00000000000101de <main>:
   101de: ef f2 31 06  	jal	t0, 0x2fa40 <__riscv_save_5>
   101e2: 13 01 01 cf  	addi	sp, sp, -0x310
   101e6: ae 84        	c.mv	s1, a1
   101e8: 8c 61        	c.ld	a1, 0x0(a1)
   101ea: 2a 84        	c.mv	s0, a0
   101ec: 23 bc b1 20  	sd	a1, 0x218(gp)
   101f0: 81 c5        	c.beqz	a1, 0x101f8 <main+0x1a>
   101f2: 83 c5 05 00  	lbu	a1, 0x0(a1)
   101f6: 99 e5        	c.bnez	a1, 0x10204 <main+0x26>
   101f8: b7 05 03 00  	lui	a1, 0x30
   101fc: 93 85 85 d1  	addi	a1, a1, -0x2e8
   10200: 23 bc b1 20  	sd	a1, 0x218(gp)
   10204: 0a 85        	c.mv	a0, sp
   10206: ef a0 70 2d  	jal	ra, 0x1acdc <jpeg_std_error>
   1020a: 2a f5        	c.sdsp	a0, 0xa8(sp)
   1020c: 28 11        	c.addi4spn	a0, sp, 0xa8
   1020e: 93 05 d0 03  	addi	a1, zero, 0x3d
   10212: 13 06 80 26  	addi	a2, zero, 0x268
   10216: ef 20 e0 0a  	jal	ra, 0x122c4 <jpeg_CreateDecompress>
   1021a: 37 05 03 00  	lui	a0, 0x30
   1021e: 13 05 85 bb  	addi	a0, a0, -0x448
   10222: 2a ed        	c.sdsp	a0, 0x98(sp)
   10224: 13 05 30 41  	addi	a0, zero, 0x413
   10228: 02 15        	c.slli	a0, 0x20
   1022a: 13 05 85 3e  	addi	a0, a0, 0x3e8
   1022e: 2a f1        	c.sdsp	a0, 0xa0(sp)
   10230: 37 05 01 00  	lui	a0, 0x10
   10234: 13 06 65 3c  	addi	a2, a0, 0x3c6
   10238: 28 11        	c.addi4spn	a0, sp, 0xa8
   1023a: 93 05 e0 0f  	addi	a1, zero, 0xfe
   1023e: ef 20 e0 11  	jal	ra, 0x1235c <jpeg_set_marker_processor>
   10242: 28 11        	c.addi4spn	a0, sp, 0xa8
   10244: a2 85        	c.mv	a1, s0
   10246: 26 86        	c.mv	a2, s1
   10248: 81 46        	c.li	a3, 0x0
   1024a: ef 00 60 28  	jal	ra, 0x104d0 <parse_switches>
   1024e: 9b 05 f4 ff  	addiw	a1, s0, -0x1
   10252: 63 5f b5 00  	bge	a0, a1, 0x10270 <main+0x92>
   10256: 03 b5 01 20  	ld	a0, 0x200(gp)
   1025a: 08 6d        	c.ld	a0, 0x18(a0)
   1025c: 03 b6 81 21  	ld	a2, 0x218(gp)
   10260: b7 05 03 00  	lui	a1, 0x30
   10264: 93 85 e5 d1  	addi	a1, a1, -0x2e2
   10268: ef c0 a0 4a  	jal	ra, 0x1c712 <fprintf>
   1026c: ef 00 e0 75  	jal	ra, 0x109ca <usage>
   10270: 63 57 85 02  	bge	a0, s0, 0x1029e <main+0xc0>
   10274: 0e 05        	c.slli	a0, 0x3
   10276: 33 89 a4 00  	add	s2, s1, a0
   1027a: 03 35 09 00  	ld	a0, 0x0(s2)
   1027e: b7 05 03 00  	lui	a1, 0x30
   10282: 93 85 75 d3  	addi	a1, a1, -0x2c9
   10286: ef c0 e0 45  	jal	ra, 0x1c6e4 <fopen>
   1028a: aa 89        	c.mv	s3, a0
   1028c: 01 ed        	c.bnez	a0, 0x102a4 <main+0xc6>
   1028e: 03 b5 01 20  	ld	a0, 0x200(gp)
   10292: 08 6d        	c.ld	a0, 0x18(a0)
   10294: 03 b6 81 21  	ld	a2, 0x218(gp)
   10298: 83 36 09 00  	ld	a3, 0x0(s2)
   1029c: 15 a8        	c.j	0x102d0 <main+0xf2>
   1029e: ef 20 60 01  	jal	ra, 0x122b4 <read_stdin>
   102a2: aa 89        	c.mv	s3, a0
   102a4: 03 b5 01 22  	ld	a0, 0x220(gp)
   102a8: 09 e5        	c.bnez	a0, 0x102b2 <main+0xd4>
   102aa: ef 20 20 01  	jal	ra, 0x122bc <write_stdout>
   102ae: 2a 89        	c.mv	s2, a0
   102b0: 0d a8        	c.j	0x102e2 <main+0x104>
   102b2: b7 05 03 00  	lui	a1, 0x30
   102b6: 93 85 d5 d4  	addi	a1, a1, -0x2b3
   102ba: ef c0 a0 42  	jal	ra, 0x1c6e4 <fopen>
   102be: 2a 89        	c.mv	s2, a0
   102c0: 0d e1        	c.bnez	a0, 0x102e2 <main+0x104>
   102c2: 03 b5 01 20  	ld	a0, 0x200(gp)
   102c6: 08 6d        	c.ld	a0, 0x18(a0)
   102c8: 03 b6 81 21  	ld	a2, 0x218(gp)
   102cc: 83 b6 01 22  	ld	a3, 0x220(gp)
   102d0: b7 05 03 00  	lui	a1, 0x30
   102d4: 93 85 a5 d3  	addi	a1, a1, -0x2c6
   102d8: ef c0 a0 43  	jal	ra, 0x1c712 <fprintf>
   102dc: 05 45        	c.li	a0, 0x1
   102de: ef f0 3f e4  	jal	ra, 0x10120 <exit>
   102e2: 28 11        	c.addi4spn	a0, sp, 0xa8
   102e4: ce 85        	c.mv	a1, s3
   102e6: ef 20 e0 6a  	jal	ra, 0x12994 <jpeg_stdio_src>
   102ea: 28 11        	c.addi4spn	a0, sp, 0xa8
   102ec: 85 45        	c.li	a1, 0x1
   102ee: ef 20 80 0a  	jal	ra, 0x12396 <jpeg_read_header>
   102f2: 28 11        	c.addi4spn	a0, sp, 0xa8
   102f4: 85 46        	c.li	a3, 0x1
   102f6: a2 85        	c.mv	a1, s0
   102f8: 26 86        	c.mv	a2, s1
   102fa: ef 00 60 1d  	jal	ra, 0x104d0 <parse_switches>
   102fe: 03 a5 81 22  	lw	a0, 0x228(gp)
   10302: 95 45        	c.li	a1, 0x5
   10304: 63 ed a5 00  	bltu	a1, a0, 0x1031e <main+0x140>
   10308: 0a 05        	c.slli	a0, 0x2
   1030a: b7 05 03 00  	lui	a1, 0x30
   1030e: 93 85 05 ba  	addi	a1, a1, -0x460
   10312: 2e 95        	c.add	a0, a1
   10314: 08 41        	c.lw	a0, 0x0(a0)
   10316: 02 85        	c.jr	a0
   10318: 28 11        	c.addi4spn	a0, sp, 0xa8
   1031a: 81 45        	c.li	a1, 0x0
   1031c: 21 a8        	c.j	0x10334 <main+0x156>
   1031e: 2a 75        	c.ldsp	a0, 0xa8(sp)
   10320: 0c 61        	c.ld	a1, 0x0(a0)
   10322: 13 06 20 41  	addi	a2, zero, 0x412
   10326: 10 d5        	c.sw	a2, 0x28(a0)
   10328: 28 11        	c.addi4spn	a0, sp, 0xa8
   1032a: 82 95        	c.jalr	a1
   1032c: 01 44        	c.li	s0, 0x0
   1032e: 15 a0        	c.j	0x10352 <main+0x174>
   10330: 28 11        	c.addi4spn	a0, sp, 0xa8
   10332: 85 45        	c.li	a1, 0x1
   10334: ef 10 00 4e  	jal	ra, 0x11814 <jinit_write_bmp>
   10338: 21 a8        	c.j	0x10350 <main+0x172>
   1033a: 28 11        	c.addi4spn	a0, sp, 0xa8
   1033c: ef 00 10 35  	jal	ra, 0x10e8c <jinit_write_gif>
   10340: 01 a8        	c.j	0x10350 <main+0x172>
   10342: 28 11        	c.addi4spn	a0, sp, 0xa8
   10344: ef 00 90 10  	jal	ra, 0x10c4c <jinit_write_ppm>
   10348: 21 a0        	c.j	0x10350 <main+0x172>
   1034a: 28 11        	c.addi4spn	a0, sp, 0xa8
   1034c: ef 10 00 19  	jal	ra, 0x114dc <jinit_write_targa>
   10350: 2a 84        	c.mv	s0, a0
   10352: 23 3c 24 01  	sd	s2, 0x18(s0)
   10356: 28 11        	c.addi4spn	a0, sp, 0xa8
   10358: ef 20 c0 2f  	jal	ra, 0x12654 <jpeg_start_decompress>
   1035c: 10 60        	c.ld	a2, 0x0(s0)
   1035e: 28 11        	c.addi4spn	a0, sp, 0xa8
   10360: a2 85        	c.mv	a1, s0
   10362: 02 96        	c.jalr	a2
   10364: 03 25 81 14  	lw	a0, 0x148(sp)
   10368: 83 25 c1 12  	lw	a1, 0x12c(sp)
   1036c: 63 7d b5 00  	bgeu	a0, a1, 0x10386 <main+0x1a8>
   10370: 0c 70        	c.ld	a1, 0x20(s0)
   10372: 10 54        	c.lw	a2, 0x28(s0)
   10374: 28 11        	c.addi4spn	a0, sp, 0xa8
   10376: ef 20 00 44  	jal	ra, 0x127b6 <jpeg_read_scanlines>
   1037a: 14 64        	c.ld	a3, 0x8(s0)
   1037c: 2a 86        	c.mv	a2, a0
   1037e: 28 11        	c.addi4spn	a0, sp, 0xa8
   10380: a2 85        	c.mv	a1, s0
   10382: 82 96        	c.jalr	a3
   10384: c5 b7        	c.j	0x10364 <main+0x186>
   10386: 10 68        	c.ld	a2, 0x10(s0)
   10388: 28 11        	c.addi4spn	a0, sp, 0xa8
   1038a: a2 85        	c.mv	a1, s0
   1038c: 02 96        	c.jalr	a2
   1038e: 28 11        	c.addi4spn	a0, sp, 0xa8
   10390: ef 20 a0 23  	jal	ra, 0x125ca <jpeg_finish_decompress>
   10394: 28 11        	c.addi4spn	a0, sp, 0xa8
   10396: ef 10 f0 7b  	jal	ra, 0x12354 <jpeg_destroy_decompress>
   1039a: 03 b5 01 20  	ld	a0, 0x200(gp)
   1039e: 0c 65        	c.ld	a1, 0x8(a0)
   103a0: 63 87 b9 00  	beq	s3, a1, 0x103ae <main+0x1d0>
   103a4: 4e 85        	c.mv	a0, s3
   103a6: ef b0 f0 5f  	jal	ra, 0x1c1a4 <fclose>
   103aa: 03 b5 01 20  	ld	a0, 0x200(gp)
   103ae: 08 69        	c.ld	a0, 0x10(a0)
   103b0: 63 05 a9 00  	beq	s2, a0, 0x103ba <main+0x1dc>
   103b4: 4a 85        	c.mv	a0, s2
   103b6: ef b0 f0 5e  	jal	ra, 0x1c1a4 <fclose>
   103ba: 0a 65        	c.ldsp	a0, 0x80(sp)
   103bc: 33 35 a0 00  	sltu	a0, zero, a0
   103c0: 06 05        	c.slli	a0, 0x1
   103c2: ef f0 ff d5  	jal	ra, 0x10120 <exit>

00000000000103c6 <COM_handler>:
   103c6: ef f2 41 65  	jal	t0, 0x2fa1a <__riscv_save_12>
   103ca: aa 8a        	c.mv	s5, a0
   103cc: 08 61        	c.ld	a0, 0x0(a0)
   103ce: 03 2a c5 07  	lw	s4, 0x7c(a0)
   103d2: 56 85        	c.mv	a0, s5
   103d4: ef 00 30 04  	jal	ra, 0x10c16 <jpeg_getc>
   103d8: 1b 19 85 00  	slliw	s2, a0, 0x8
   103dc: 56 85        	c.mv	a0, s5
   103de: ef 00 90 03  	jal	ra, 0x10c16 <jpeg_getc>
   103e2: 2a 84        	c.mv	s0, a0
   103e4: b3 64 a9 00  	or	s1, s2, a0
   103e8: 63 5d 40 01  	bge	zero, s4, 0x10402 <COM_handler+0x3c>
   103ec: 03 b5 01 20  	ld	a0, 0x200(gp)
   103f0: 08 6d        	c.ld	a0, 0x18(a0)
   103f2: 13 86 e4 ff  	addi	a2, s1, -0x2
   103f6: b7 05 03 00  	lui	a1, 0x30
   103fa: 93 85 95 27  	addi	a1, a1, 0x279
   103fe: ef c0 40 31  	jal	ra, 0x1c712 <fprintf>
   10402: 0d 45        	c.li	a0, 0x3
   10404: 63 eb a4 0a  	bltu	s1, a0, 0x104ba <COM_handler+0xf4>
   10408: 81 44        	c.li	s1, 0x0
   1040a: 3b 04 24 01  	addw	s0, s0, s2
   1040e: 79 14        	c.addi	s0, -0x2
   10410: 29 4b        	c.li	s6, 0xa
   10412: b5 4b        	c.li	s7, 0xd
   10414: 93 0c c0 05  	addi	s9, zero, 0x5c
   10418: 37 05 03 00  	lui	a0, 0x30
   1041c: 93 09 f5 28  	addi	s3, a0, 0x28f
   10420: 37 25 03 00  	lui	a0, 0x32
   10424: 13 0d 85 28  	addi	s10, a0, 0x288
   10428: 37 05 03 00  	lui	a0, 0x30
   1042c: 13 09 25 29  	addi	s2, a0, 0x292
   10430: 56 85        	c.mv	a0, s5
   10432: ef 00 40 7e  	jal	ra, 0x10c16 <jpeg_getc>
   10436: 63 53 40 03  	bge	zero, s4, 0x1045c <COM_handler+0x96>
   1043a: aa 8d        	c.mv	s11, a0
   1043c: 13 75 f5 0f  	andi	a0, a0, 0xff
   10440: 63 0b 65 03  	beq	a0, s6, 0x10476 <COM_handler+0xb0>
   10444: 63 0e 95 01  	beq	a0, s9, 0x10460 <COM_handler+0x9a>
   10448: 63 12 75 05  	bne	a0, s7, 0x1048c <COM_handler+0xc6>
   1044c: 03 b5 01 20  	ld	a0, 0x200(gp)
   10450: 0c 6d        	c.ld	a1, 0x18(a0)
   10452: 29 45        	c.li	a0, 0xa
   10454: ef c0 80 31  	jal	ra, 0x1c76c <fputc>
   10458: b5 4d        	c.li	s11, 0xd
   1045a: a1 a8        	c.j	0x104b2 <COM_handler+0xec>
   1045c: a6 8d        	c.mv	s11, s1
   1045e: 91 a8        	c.j	0x104b2 <COM_handler+0xec>
   10460: 03 b5 01 20  	ld	a0, 0x200(gp)
   10464: 14 6d        	c.ld	a3, 0x18(a0)
   10466: 89 45        	c.li	a1, 0x2
   10468: 05 46        	c.li	a2, 0x1
   1046a: 4e 85        	c.mv	a0, s3
   1046c: ef c0 20 61  	jal	ra, 0x1ca7e <fwrite>
   10470: 93 0d c0 05  	addi	s11, zero, 0x5c
   10474: 3d a8        	c.j	0x104b2 <COM_handler+0xec>
   10476: a9 4d        	c.li	s11, 0xa
   10478: 63 8d 74 03  	beq	s1, s7, 0x104b2 <COM_handler+0xec>
   1047c: 03 b5 01 20  	ld	a0, 0x200(gp)
   10480: 0c 6d        	c.ld	a1, 0x18(a0)
   10482: 29 45        	c.li	a0, 0xa
   10484: a9 4d        	c.li	s11, 0xa
   10486: ef c0 60 2e  	jal	ra, 0x1c76c <fputc>
   1048a: 25 a0        	c.j	0x104b2 <COM_handler+0xec>
   1048c: 03 b5 01 20  	ld	a0, 0x200(gp)
   10490: b3 05 bd 01  	add	a1, s10, s11
   10494: 03 c6 15 00  	lbu	a2, 0x1(a1)
   10498: 0c 6d        	c.ld	a1, 0x18(a0)
   1049a: 13 75 76 09  	andi	a0, a2, 0x97
   1049e: 09 c5        	c.beqz	a0, 0x104a8 <COM_handler+0xe2>
   104a0: 6e 85        	c.mv	a0, s11
   104a2: ef c0 a0 74  	jal	ra, 0x1cbec <putc>
   104a6: 31 a0        	c.j	0x104b2 <COM_handler+0xec>
   104a8: 2e 85        	c.mv	a0, a1
   104aa: ca 85        	c.mv	a1, s2
   104ac: 6e 86        	c.mv	a2, s11
   104ae: ef c0 40 26  	jal	ra, 0x1c712 <fprintf>
   104b2: 7d 14        	c.addi	s0, -0x1
   104b4: ee 84        	c.mv	s1, s11
   104b6: e3 4d 80 f6  	blt	zero, s0, 0x10430 <COM_handler+0x6a>
   104ba: 63 58 40 01  	bge	zero, s4, 0x104ca <COM_handler+0x104>
   104be: 03 b5 01 20  	ld	a0, 0x200(gp)
   104c2: 0c 6d        	c.ld	a1, 0x18(a0)
   104c4: 29 45        	c.li	a0, 0xa
   104c6: ef c0 60 2a  	jal	ra, 0x1c76c <fputc>
   104ca: 05 45        	c.li	a0, 0x1
   104cc: 6f f0 81 59  	jal	zero, 0x2fa64 <__riscv_restore_12>

00000000000104d0 <parse_switches>:
   104d0: ef f2 a1 54  	jal	t0, 0x2fa1a <__riscv_save_12>
   104d4: 29 71        	c.addi16sp	sp, -0x140
   104d6: 36 ee        	c.sdsp	a3, 0x118(sp)
   104d8: 2e 84        	c.mv	s0, a1
   104da: aa 89        	c.mv	s3, a0
   104dc: 23 b0 01 22  	sd	zero, 0x220(gp)
   104e0: 08 61        	c.ld	a0, 0x0(a0)
   104e2: 8d 45        	c.li	a1, 0x3
   104e4: 23 a4 b1 22  	sw	a1, 0x228(gp)
   104e8: 23 2e 05 06  	sw	zero, 0x7c(a0)
   104ec: 09 45        	c.li	a0, 0x2
   104ee: 05 4d        	c.li	s10, 0x1
   104f0: 63 47 a4 4a  	blt	s0, a0, 0x1099e <parse_switches+0x4ce>
   104f4: b2 84        	c.mv	s1, a2
   104f6: 37 05 03 00  	lui	a0, 0x30
   104fa: 13 0a 85 29  	addi	s4, a0, 0x298
   104fe: 37 15 03 00  	lui	a0, 0x31
   10502: 93 0a a5 04  	addi	s5, a0, 0x4a
   10506: 37 05 03 00  	lui	a0, 0x30
   1050a: 13 05 c5 29  	addi	a0, a0, 0x29c
   1050e: 2a f2        	c.sdsp	a0, 0x120(sp)
   10510: 37 05 03 00  	lui	a0, 0x30
   10514: 13 05 45 2a  	addi	a0, a0, 0x2a4
   10518: 2a ea        	c.sdsp	a0, 0x110(sp)
   1051a: 37 05 03 00  	lui	a0, 0x30
   1051e: 13 05 d5 2a  	addi	a0, a0, 0x2ad
   10522: 2a e6        	c.sdsp	a0, 0x108(sp)
   10524: 37 05 03 00  	lui	a0, 0x30
   10528: 13 05 65 2b  	addi	a0, a0, 0x2b6
   1052c: 2a e2        	c.sdsp	a0, 0x100(sp)
   1052e: 37 05 03 00  	lui	a0, 0x30
   10532: 13 05 95 2c  	addi	a0, a0, 0x2c9
   10536: aa f9        	c.sdsp	a0, 0xf0(sp)
   10538: 37 05 03 00  	lui	a0, 0x30
   1053c: 13 05 05 2e  	addi	a0, a0, 0x2e0
   10540: aa ed        	c.sdsp	a0, 0xd8(sp)
   10542: 37 05 03 00  	lui	a0, 0x30
   10546: 13 05 65 2e  	addi	a0, a0, 0x2e6
   1054a: 2a f5        	c.sdsp	a0, 0xa8(sp)
   1054c: 37 05 03 00  	lui	a0, 0x30
   10550: 13 05 e5 2b  	addi	a0, a0, 0x2be
   10554: aa f5        	c.sdsp	a0, 0xe8(sp)
   10556: 37 05 03 00  	lui	a0, 0x30
   1055a: 13 05 d5 34  	addi	a0, a0, 0x34d
   1055e: 2a ed        	c.sdsp	a0, 0x98(sp)
   10560: 37 05 03 00  	lui	a0, 0x30
   10564: 13 05 15 35  	addi	a0, a0, 0x351
   10568: 2a e9        	c.sdsp	a0, 0x90(sp)
   1056a: 37 05 03 00  	lui	a0, 0x30
   1056e: 13 05 b5 35  	addi	a0, a0, 0x35b
   10572: 2a e5        	c.sdsp	a0, 0x88(sp)
   10574: 37 05 03 00  	lui	a0, 0x30
   10578: 13 05 55 36  	addi	a0, a0, 0x365
   1057c: 2a e1        	c.sdsp	a0, 0x80(sp)
   1057e: 37 05 03 00  	lui	a0, 0x30
   10582: 13 05 95 36  	addi	a0, a0, 0x369
   10586: aa f8        	c.sdsp	a0, 0x70(sp)
   10588: 37 05 03 00  	lui	a0, 0x30
   1058c: 13 05 95 37  	addi	a0, a0, 0x379
   10590: aa f0        	c.sdsp	a0, 0x60(sp)
   10592: 37 05 03 00  	lui	a0, 0x30
   10596: 13 05 25 38  	addi	a0, a0, 0x382
   1059a: aa ec        	c.sdsp	a0, 0x58(sp)
   1059c: 37 05 03 00  	lui	a0, 0x30
   105a0: 13 05 a5 38  	addi	a0, a0, 0x38a
   105a4: aa e8        	c.sdsp	a0, 0x50(sp)
   105a6: 37 05 03 00  	lui	a0, 0x30
   105aa: 13 05 e5 38  	addi	a0, a0, 0x38e
   105ae: aa e4        	c.sdsp	a0, 0x48(sp)
   105b0: 37 05 03 00  	lui	a0, 0x30
   105b4: 13 05 65 39  	addi	a0, a0, 0x396
   105b8: aa e0        	c.sdsp	a0, 0x40(sp)
   105ba: 37 05 03 00  	lui	a0, 0x30
   105be: 13 05 a5 39  	addi	a0, a0, 0x39a
   105c2: 2a fc        	c.sdsp	a0, 0x38(sp)
   105c4: 37 05 03 00  	lui	a0, 0x30
   105c8: 13 05 e5 39  	addi	a0, a0, 0x39e
   105cc: 2a f8        	c.sdsp	a0, 0x30(sp)
   105ce: 37 05 03 00  	lui	a0, 0x30
   105d2: 13 05 55 35  	addi	a0, a0, 0x355
   105d6: 2a f4        	c.sdsp	a0, 0x28(sp)
   105d8: 37 05 03 00  	lui	a0, 0x30
   105dc: 13 05 45 25  	addi	a0, a0, 0x254
   105e0: 2a f0        	c.sdsp	a0, 0x20(sp)
   105e2: 37 05 03 00  	lui	a0, 0x30
   105e6: 13 05 25 3a  	addi	a0, a0, 0x3a2
   105ea: 2a ec        	c.sdsp	a0, 0x18(sp)
   105ec: 37 05 03 00  	lui	a0, 0x30
   105f0: 13 05 35 37  	addi	a0, a0, 0x373
   105f4: aa f4        	c.sdsp	a0, 0x68(sp)
   105f6: 37 05 03 00  	lui	a0, 0x30
   105fa: 13 05 75 d3  	addi	a0, a0, -0x2c9
   105fe: aa fc        	c.sdsp	a0, 0x78(sp)
   10600: 37 05 03 00  	lui	a0, 0x30
   10604: 13 05 e5 2e  	addi	a0, a0, 0x2ee
   10608: aa e1        	c.sdsp	a0, 0xc0(sp)
   1060a: 37 05 03 00  	lui	a0, 0x30
   1060e: 13 05 d5 31  	addi	a0, a0, 0x31d
   10612: 2a fd        	c.sdsp	a0, 0xb8(sp)
   10614: 37 05 03 00  	lui	a0, 0x30
   10618: 13 05 a5 32  	addi	a0, a0, 0x32a
   1061c: 2a f9        	c.sdsp	a0, 0xb0(sp)
   1061e: 37 05 03 00  	lui	a0, 0x30
   10622: 13 05 05 2d  	addi	a0, a0, 0x2d0
   10626: aa f1        	c.sdsp	a0, 0xe0(sp)
   10628: 37 05 03 00  	lui	a0, 0x30
   1062c: 13 05 35 2d  	addi	a0, a0, 0x2d3
   10630: aa e9        	c.sdsp	a0, 0xd0(sp)
   10632: 37 05 03 00  	lui	a0, 0x30
   10636: 13 05 85 2d  	addi	a0, a0, 0x2d8
   1063a: 2a f1        	c.sdsp	a0, 0xa0(sp)
   1063c: 37 05 03 00  	lui	a0, 0x30
   10640: 13 05 a5 2b  	addi	a0, a0, 0x2ba
   10644: aa fd        	c.sdsp	a0, 0xf8(sp)
   10646: 37 05 03 00  	lui	a0, 0x30
   1064a: 13 05 35 2c  	addi	a0, a0, 0x2c3
   1064e: aa e5        	c.sdsp	a0, 0xc8(sp)
   10650: 37 15 03 00  	lui	a0, 0x31
   10654: 93 0d 25 46  	addi	s11, a0, 0x462
   10658: 13 85 c9 03  	addi	a0, s3, 0x3c
   1065c: 2a e8        	c.sdsp	a0, 0x10(sp)
   1065e: 13 85 09 04  	addi	a0, s3, 0x40
   10662: 2a e4        	c.sdsp	a0, 0x8(sp)
   10664: 05 49        	c.li	s2, 0x1
   10666: 13 0b d0 02  	addi	s6, zero, 0x2d
   1066a: 05 4d        	c.li	s10, 0x1
   1066c: 13 15 3d 00  	slli	a0, s10, 0x3
   10670: 26 95        	c.add	a0, s1
   10672: 83 3c 05 00  	ld	s9, 0x0(a0)
   10676: 03 c5 0c 00  	lbu	a0, 0x0(s9)
   1067a: 63 1c 65 01  	bne	a0, s6, 0x10692 <parse_switches+0x1c2>
   1067e: 85 0c        	c.addi	s9, 0x1
   10680: 05 46        	c.li	a2, 0x1
   10682: 66 85        	c.mv	a0, s9
   10684: d2 85        	c.mv	a1, s4
   10686: ef 10 d0 3d  	jal	ra, 0x12262 <keymatch>
   1068a: 09 c9        	c.beqz	a0, 0x1069c <parse_switches+0x1cc>
   1068c: 23 a4 01 22  	sw	zero, 0x228(gp)
   10690: 8d a0        	c.j	0x106f2 <parse_switches+0x222>
   10692: 63 46 a0 31  	blt	zero, s10, 0x1099e <parse_switches+0x4ce>
   10696: 23 b0 01 22  	sd	zero, 0x220(gp)
   1069a: a1 a8        	c.j	0x106f2 <parse_switches+0x222>
   1069c: 05 46        	c.li	a2, 0x1
   1069e: 66 85        	c.mv	a0, s9
   106a0: d6 85        	c.mv	a1, s5
   106a2: ef 10 10 3c  	jal	ra, 0x12262 <keymatch>
   106a6: 1d e1        	c.bnez	a0, 0x106cc <parse_switches+0x1fc>
   106a8: 05 46        	c.li	a2, 0x1
   106aa: 66 85        	c.mv	a0, s9
   106ac: 92 75        	c.ldsp	a1, 0x120(sp)
   106ae: ef 10 50 3b  	jal	ra, 0x12262 <keymatch>
   106b2: 09 ed        	c.bnez	a0, 0x106cc <parse_switches+0x1fc>
   106b4: 05 46        	c.li	a2, 0x1
   106b6: 66 85        	c.mv	a0, s9
   106b8: d2 65        	c.ldsp	a1, 0x110(sp)
   106ba: ef 10 90 3a  	jal	ra, 0x12262 <keymatch>
   106be: 19 e5        	c.bnez	a0, 0x106cc <parse_switches+0x1fc>
   106c0: 05 46        	c.li	a2, 0x1
   106c2: 66 85        	c.mv	a0, s9
   106c4: b2 65        	c.ldsp	a1, 0x108(sp)
   106c6: ef 10 d0 39  	jal	ra, 0x12262 <keymatch>
   106ca: 05 c9        	c.beqz	a0, 0x106fa <parse_switches+0x22a>
   106cc: 05 2d        	c.addiw	s10, 0x1
   106ce: 63 5c 8d 2c  	bge	s10, s0, 0x109a6 <parse_switches+0x4d6>
   106d2: 13 15 3d 00  	slli	a0, s10, 0x3
   106d6: 26 95        	c.add	a0, s1
   106d8: 08 61        	c.ld	a0, 0x0(a0)
   106da: 70 1a        	c.addi4spn	a2, sp, 0x13c
   106dc: ee 85        	c.mv	a1, s11
   106de: ef c0 c0 7f  	jal	ra, 0x1ceda <sscanf>
   106e2: 63 12 25 2d  	bne	a0, s2, 0x109a6 <parse_switches+0x4d6>
   106e6: 03 25 c1 13  	lw	a0, 0x13c(sp)
   106ea: 23 a8 a9 06  	sw	a0, 0x70(s3)
   106ee: 23 a2 29 07  	sw	s2, 0x64(s3)
   106f2: 05 2d        	c.addiw	s10, 0x1
   106f4: e3 4c 8d f6  	blt	s10, s0, 0x1066c <parse_switches+0x19c>
   106f8: 5d a4        	c.j	0x1099e <parse_switches+0x4ce>
   106fa: 09 46        	c.li	a2, 0x2
   106fc: 66 85        	c.mv	a0, s9
   106fe: 92 65        	c.ldsp	a1, 0x100(sp)
   10700: ef 10 30 36  	jal	ra, 0x12262 <keymatch>
   10704: 0d c1        	c.beqz	a0, 0x10726 <parse_switches+0x256>
   10706: 05 2d        	c.addiw	s10, 0x1
   10708: 63 5f 8d 28  	bge	s10, s0, 0x109a6 <parse_switches+0x4d6>
   1070c: 93 1c 3d 00  	slli	s9, s10, 0x3
   10710: a6 9c        	c.add	s9, s1
   10712: 03 b5 0c 00  	ld	a0, 0x0(s9)
   10716: 05 46        	c.li	a2, 0x1
   10718: ee 75        	c.ldsp	a1, 0xf8(sp)
   1071a: ef 10 90 34  	jal	ra, 0x12262 <keymatch>
   1071e: 1d c9        	c.beqz	a0, 0x10754 <parse_switches+0x284>
   10720: 23 ac 09 04  	sw	zero, 0x58(s3)
   10724: f9 b7        	c.j	0x106f2 <parse_switches+0x222>
   10726: 09 46        	c.li	a2, 0x2
   10728: 66 85        	c.mv	a0, s9
   1072a: ce 75        	c.ldsp	a1, 0xf0(sp)
   1072c: ef 10 70 33  	jal	ra, 0x12262 <keymatch>
   10730: 05 cd        	c.beqz	a0, 0x10768 <parse_switches+0x298>
   10732: 05 2d        	c.addiw	s10, 0x1
   10734: 63 59 8d 26  	bge	s10, s0, 0x109a6 <parse_switches+0x4d6>
   10738: 93 1c 3d 00  	slli	s9, s10, 0x3
   1073c: a6 9c        	c.add	s9, s1
   1073e: 03 b5 0c 00  	ld	a0, 0x0(s9)
   10742: 09 46        	c.li	a2, 0x2
   10744: 8e 75        	c.ldsp	a1, 0xe0(sp)
   10746: ef 10 d0 31  	jal	ra, 0x12262 <keymatch>
   1074a: 31 cd        	c.beqz	a0, 0x107a6 <parse_switches+0x2d6>
   1074c: 09 45        	c.li	a0, 0x2
   1074e: 23 a4 a9 06  	sw	a0, 0x68(s3)
   10752: 45 b7        	c.j	0x106f2 <parse_switches+0x222>
   10754: 03 b5 0c 00  	ld	a0, 0x0(s9)
   10758: 09 46        	c.li	a2, 0x2
   1075a: ae 75        	c.ldsp	a1, 0xe8(sp)
   1075c: ef 10 70 30  	jal	ra, 0x12262 <keymatch>
   10760: 29 cd        	c.beqz	a0, 0x107ba <parse_switches+0x2ea>
   10762: 23 ac 29 05  	sw	s2, 0x58(s3)
   10766: 71 b7        	c.j	0x106f2 <parse_switches+0x222>
   10768: 05 46        	c.li	a2, 0x1
   1076a: 66 85        	c.mv	a0, s9
   1076c: ee 65        	c.ldsp	a1, 0xd8(sp)
   1076e: ef 10 50 2f  	jal	ra, 0x12262 <keymatch>
   10772: 19 e5        	c.bnez	a0, 0x10780 <parse_switches+0x2b0>
   10774: 05 46        	c.li	a2, 0x1
   10776: 66 85        	c.mv	a0, s9
   10778: aa 75        	c.ldsp	a1, 0xa8(sp)
   1077a: ef 10 90 2e  	jal	ra, 0x12262 <keymatch>
   1077e: 2d c5        	c.beqz	a0, 0x107e8 <parse_switches+0x318>
   10780: 03 c5 c1 22  	lbu	a0, 0x22c(gp)
   10784: 19 e9        	c.bnez	a0, 0x1079a <parse_switches+0x2ca>
   10786: 03 b5 01 20  	ld	a0, 0x200(gp)
   1078a: 08 6d        	c.ld	a0, 0x18(a0)
   1078c: 8e 65        	c.ldsp	a1, 0xc0(sp)
   1078e: 6a 76        	c.ldsp	a2, 0xb8(sp)
   10790: ca 76        	c.ldsp	a3, 0xb0(sp)
   10792: ef b0 10 78  	jal	ra, 0x1c712 <fprintf>
   10796: 23 86 21 23  	sb	s2, 0x22c(gp)
   1079a: 03 b5 09 00  	ld	a0, 0x0(s3)
   1079e: 6c 5d        	c.lw	a1, 0x7c(a0)
   107a0: 85 05        	c.addi	a1, 0x1
   107a2: 6c dd        	c.sw	a1, 0x7c(a0)
   107a4: b9 b7        	c.j	0x106f2 <parse_switches+0x222>
   107a6: 03 b5 0c 00  	ld	a0, 0x0(s9)
   107aa: 09 46        	c.li	a2, 0x2
   107ac: ce 65        	c.ldsp	a1, 0xd0(sp)
   107ae: ef 10 50 2b  	jal	ra, 0x12262 <keymatch>
   107b2: 05 c1        	c.beqz	a0, 0x107d2 <parse_switches+0x302>
   107b4: 23 a4 09 06  	sw	zero, 0x68(s3)
   107b8: 2d bf        	c.j	0x106f2 <parse_switches+0x222>
   107ba: 03 b5 0c 00  	ld	a0, 0x0(s9)
   107be: 09 46        	c.li	a2, 0x2
   107c0: ae 65        	c.ldsp	a1, 0xc8(sp)
   107c2: ef 10 10 2a  	jal	ra, 0x12262 <keymatch>
   107c6: 63 00 05 1e  	beq	a0, zero, 0x109a6 <parse_switches+0x4d6>
   107ca: 09 45        	c.li	a0, 0x2
   107cc: 23 ac a9 04  	sw	a0, 0x58(s3)
   107d0: 0d b7        	c.j	0x106f2 <parse_switches+0x222>
   107d2: 03 b5 0c 00  	ld	a0, 0x0(s9)
   107d6: 09 46        	c.li	a2, 0x2
   107d8: 8a 75        	c.ldsp	a1, 0xa0(sp)
   107da: ef 10 90 28  	jal	ra, 0x12262 <keymatch>
   107de: 63 04 05 1c  	beq	a0, zero, 0x109a6 <parse_switches+0x4d6>
   107e2: 23 a4 29 07  	sw	s2, 0x68(s3)
   107e6: 31 b7        	c.j	0x106f2 <parse_switches+0x222>
   107e8: 05 46        	c.li	a2, 0x1
   107ea: 66 85        	c.mv	a0, s9
   107ec: ae 75        	c.ldsp	a1, 0xe8(sp)
   107ee: ef 10 50 27  	jal	ra, 0x12262 <keymatch>
   107f2: 09 cd        	c.beqz	a0, 0x1080c <parse_switches+0x33c>
   107f4: 03 a5 49 06  	lw	a0, 0x64(s3)
   107f8: 23 b4 29 07  	sd	s2, 0x68(s3)
   107fc: 09 e5        	c.bnez	a0, 0x10806 <parse_switches+0x336>
   107fe: 13 05 80 0d  	addi	a0, zero, 0xd8
   10802: 23 a8 a9 06  	sw	a0, 0x70(s3)
   10806: 23 bc 29 05  	sd	s2, 0x58(s3)
   1080a: e5 b5        	c.j	0x106f2 <parse_switches+0x222>
   1080c: 05 46        	c.li	a2, 0x1
   1080e: 66 85        	c.mv	a0, s9
   10810: ea 65        	c.ldsp	a1, 0x98(sp)
   10812: ef 10 10 25  	jal	ra, 0x12262 <keymatch>
   10816: 01 c5        	c.beqz	a0, 0x1081e <parse_switches+0x34e>
   10818: 23 a4 21 23  	sw	s2, 0x228(gp)
   1081c: d9 bd        	c.j	0x106f2 <parse_switches+0x222>
   1081e: 09 46        	c.li	a2, 0x2
   10820: 66 85        	c.mv	a0, s9
   10822: ca 65        	c.ldsp	a1, 0x90(sp)
   10824: ef 10 f0 23  	jal	ra, 0x12262 <keymatch>
   10828: 19 e5        	c.bnez	a0, 0x10836 <parse_switches+0x366>
   1082a: 09 46        	c.li	a2, 0x2
   1082c: 66 85        	c.mv	a0, s9
   1082e: aa 65        	c.ldsp	a1, 0x88(sp)
   10830: ef 10 30 23  	jal	ra, 0x12262 <keymatch>
   10834: 01 c5        	c.beqz	a0, 0x1083c <parse_switches+0x36c>
   10836: 23 ac 29 03  	sw	s2, 0x38(s3)
   1083a: 65 bd        	c.j	0x106f2 <parse_switches+0x222>
   1083c: 0d 46        	c.li	a2, 0x3
   1083e: 66 85        	c.mv	a0, s9
   10840: 8a 65        	c.ldsp	a1, 0x80(sp)
   10842: ef 10 10 22  	jal	ra, 0x12262 <keymatch>
   10846: 15 c9        	c.beqz	a0, 0x1087a <parse_switches+0x3aa>
   10848: 05 2d        	c.addiw	s10, 0x1
   1084a: 63 5e 8d 14  	bge	s10, s0, 0x109a6 <parse_switches+0x4d6>
   1084e: 72 65        	c.ldsp	a0, 0x118(sp)
   10850: e3 01 05 ea  	beq	a0, zero, 0x106f2 <parse_switches+0x222>
   10854: 13 15 3d 00  	slli	a0, s10, 0x3
   10858: 26 95        	c.add	a0, s1
   1085a: 2a e0        	c.sdsp	a0, 0x0(sp)
   1085c: 08 61        	c.ld	a0, 0x0(a0)
   1085e: e6 75        	c.ldsp	a1, 0x78(sp)
   10860: ef b0 50 68  	jal	ra, 0x1c6e4 <fopen>
   10864: 63 03 05 14  	beq	a0, zero, 0x109aa <parse_switches+0x4da>
   10868: aa 8c        	c.mv	s9, a0
   1086a: 4e 85        	c.mv	a0, s3
   1086c: e6 85        	c.mv	a1, s9
   1086e: ef 10 00 66  	jal	ra, 0x11ece <read_color_map>
   10872: 66 85        	c.mv	a0, s9
   10874: ef b0 10 13  	jal	ra, 0x1c1a4 <fclose>
   10878: 9d bd        	c.j	0x106ee <parse_switches+0x21e>
   1087a: 0d 46        	c.li	a2, 0x3
   1087c: 66 85        	c.mv	a0, s9
   1087e: c6 75        	c.ldsp	a1, 0x70(sp)
   10880: ef 10 30 1e  	jal	ra, 0x12262 <keymatch>
   10884: 29 cd        	c.beqz	a0, 0x108de <parse_switches+0x40e>
   10886: 05 2d        	c.addiw	s10, 0x1
   10888: 13 05 80 07  	addi	a0, zero, 0x78
   1088c: a3 07 a1 12  	sb	a0, 0x12f(sp)
   10890: 63 5b 8d 10  	bge	s10, s0, 0x109a6 <parse_switches+0x4d6>
   10894: 13 15 3d 00  	slli	a0, s10, 0x3
   10898: 26 95        	c.add	a0, s1
   1089a: 08 61        	c.ld	a0, 0x0(a0)
   1089c: 10 1a        	c.addi4spn	a2, sp, 0x130
   1089e: 93 06 f1 12  	addi	a3, sp, 0x12f
   108a2: a6 75        	c.ldsp	a1, 0x68(sp)
   108a4: ef c0 60 63  	jal	ra, 0x1ceda <sscanf>
   108a8: 63 5f a0 0e  	bge	zero, a0, 0x109a6 <parse_switches+0x4d6>
   108ac: 03 45 f1 12  	lbu	a0, 0x12f(sp)
   108b0: d2 7c        	c.ldsp	s9, 0x130(sp)
   108b2: 13 75 f5 0d  	andi	a0, a0, 0xdf
   108b6: 2a e0        	c.sdsp	a0, 0x0(sp)
   108b8: 93 05 80 3e  	addi	a1, zero, 0x3e8
   108bc: 66 85        	c.mv	a0, s9
   108be: ef f0 21 1d  	jal	ra, 0x2fa90 <__muldi3>
   108c2: 93 05 d0 04  	addi	a1, zero, 0x4d
   108c6: 02 66        	c.ldsp	a2, 0x0(sp)
   108c8: 63 03 b6 00  	beq	a2, a1, 0x108ce <parse_switches+0x3fe>
   108cc: 66 85        	c.mv	a0, s9
   108ce: 93 05 80 3e  	addi	a1, zero, 0x3e8
   108d2: ef f0 e1 1b  	jal	ra, 0x2fa90 <__muldi3>
   108d6: 83 b5 89 00  	ld	a1, 0x8(s3)
   108da: a8 ed        	c.sd	a0, 0x58(a1)
   108dc: 19 bd        	c.j	0x106f2 <parse_switches+0x222>
   108de: 0d 46        	c.li	a2, 0x3
   108e0: 66 85        	c.mv	a0, s9
   108e2: 86 75        	c.ldsp	a1, 0x60(sp)
   108e4: ef 10 f0 17  	jal	ra, 0x12262 <keymatch>
   108e8: 01 c5        	c.beqz	a0, 0x108f0 <parse_switches+0x420>
   108ea: 23 ae 09 04  	sw	zero, 0x5c(s3)
   108ee: 11 b5        	c.j	0x106f2 <parse_switches+0x222>
   108f0: 0d 46        	c.li	a2, 0x3
   108f2: 66 85        	c.mv	a0, s9
   108f4: e6 65        	c.ldsp	a1, 0x58(sp)
   108f6: ef 10 d0 16  	jal	ra, 0x12262 <keymatch>
   108fa: 01 c5        	c.beqz	a0, 0x10902 <parse_switches+0x432>
   108fc: 23 a6 09 06  	sw	zero, 0x6c(s3)
   10900: cd bb        	c.j	0x106f2 <parse_switches+0x222>
   10902: 0d 46        	c.li	a2, 0x3
   10904: 66 85        	c.mv	a0, s9
   10906: c6 65        	c.ldsp	a1, 0x50(sp)
   10908: ef 10 b0 15  	jal	ra, 0x12262 <keymatch>
   1090c: 09 c5        	c.beqz	a0, 0x10916 <parse_switches+0x446>
   1090e: 09 45        	c.li	a0, 0x2
   10910: 23 a4 a1 22  	sw	a0, 0x228(gp)
   10914: f9 bb        	c.j	0x106f2 <parse_switches+0x222>
   10916: 11 46        	c.li	a2, 0x4
   10918: 66 85        	c.mv	a0, s9
   1091a: a6 65        	c.ldsp	a1, 0x48(sp)
   1091c: ef 10 70 14  	jal	ra, 0x12262 <keymatch>
   10920: 19 c9        	c.beqz	a0, 0x10936 <parse_switches+0x466>
   10922: 05 2d        	c.addiw	s10, 0x1
   10924: 63 51 8d 08  	bge	s10, s0, 0x109a6 <parse_switches+0x4d6>
   10928: 13 15 3d 00  	slli	a0, s10, 0x3
   1092c: 26 95        	c.add	a0, s1
   1092e: 08 61        	c.ld	a0, 0x0(a0)
   10930: 23 b0 a1 22  	sd	a0, 0x220(gp)
   10934: 7d bb        	c.j	0x106f2 <parse_switches+0x222>
   10936: 05 46        	c.li	a2, 0x1
   10938: 66 85        	c.mv	a0, s9
   1093a: 86 65        	c.ldsp	a1, 0x40(sp)
   1093c: ef 10 70 12  	jal	ra, 0x12262 <keymatch>
   10940: 19 e5        	c.bnez	a0, 0x1094e <parse_switches+0x47e>
   10942: 05 46        	c.li	a2, 0x1
   10944: 66 85        	c.mv	a0, s9
   10946: e2 75        	c.ldsp	a1, 0x38(sp)
   10948: ef 10 b0 11  	jal	ra, 0x12262 <keymatch>
   1094c: 19 c1        	c.beqz	a0, 0x10952 <parse_switches+0x482>
   1094e: 0d 45        	c.li	a0, 0x3
   10950: c1 b7        	c.j	0x10910 <parse_switches+0x440>
   10952: 05 46        	c.li	a2, 0x1
   10954: 66 85        	c.mv	a0, s9
   10956: c2 75        	c.ldsp	a1, 0x30(sp)
   10958: ef 10 b0 10  	jal	ra, 0x12262 <keymatch>
   1095c: 19 c1        	c.beqz	a0, 0x10962 <parse_switches+0x492>
   1095e: 11 45        	c.li	a0, 0x4
   10960: 45 bf        	c.j	0x10910 <parse_switches+0x440>
   10962: 05 46        	c.li	a2, 0x1
   10964: 66 85        	c.mv	a0, s9
   10966: a2 75        	c.ldsp	a1, 0x28(sp)
   10968: ef 10 b0 0f  	jal	ra, 0x12262 <keymatch>
   1096c: 0d c1        	c.beqz	a0, 0x1098e <parse_switches+0x4be>
   1096e: 05 2d        	c.addiw	s10, 0x1
   10970: 63 5b 8d 02  	bge	s10, s0, 0x109a6 <parse_switches+0x4d6>
   10974: 13 15 3d 00  	slli	a0, s10, 0x3
   10978: 26 95        	c.add	a0, s1
   1097a: 08 61        	c.ld	a0, 0x0(a0)
   1097c: e2 65        	c.ldsp	a1, 0x18(sp)
   1097e: 42 66        	c.ldsp	a2, 0x10(sp)
   10980: a2 66        	c.ldsp	a3, 0x8(sp)
   10982: ef c0 80 55  	jal	ra, 0x1ceda <sscanf>
   10986: 89 45        	c.li	a1, 0x2
   10988: e3 05 b5 d6  	beq	a0, a1, 0x106f2 <parse_switches+0x222>
   1098c: 29 a8        	c.j	0x109a6 <parse_switches+0x4d6>
   1098e: 05 46        	c.li	a2, 0x1
   10990: 66 85        	c.mv	a0, s9
   10992: 82 75        	c.ldsp	a1, 0x20(sp)
   10994: ef 10 f0 0c  	jal	ra, 0x12262 <keymatch>
   10998: 19 c5        	c.beqz	a0, 0x109a6 <parse_switches+0x4d6>
   1099a: 15 45        	c.li	a0, 0x5
   1099c: 95 bf        	c.j	0x10910 <parse_switches+0x440>
   1099e: 6a 85        	c.mv	a0, s10
   109a0: 31 61        	c.addi16sp	sp, 0x140
   109a2: 6f f0 21 0c  	jal	zero, 0x2fa64 <__riscv_restore_12>
   109a6: ef 00 40 02  	jal	ra, 0x109ca <usage>
   109aa: 03 b5 01 20  	ld	a0, 0x200(gp)
   109ae: 08 6d        	c.ld	a0, 0x18(a0)
   109b0: 03 b6 81 21  	ld	a2, 0x218(gp)
   109b4: 82 65        	c.ldsp	a1, 0x0(sp)
   109b6: 94 61        	c.ld	a3, 0x0(a1)
   109b8: b7 05 03 00  	lui	a1, 0x30
   109bc: 93 85 a5 d3  	addi	a1, a1, -0x2c6
   109c0: ef b0 30 55  	jal	ra, 0x1c712 <fprintf>
   109c4: 05 45        	c.li	a0, 0x1
   109c6: ef f0 af f5  	jal	ra, 0x10120 <exit>

00000000000109ca <usage>:
   109ca: ef f2 01 08  	jal	t0, 0x2fa4a <__riscv_save_3>
   109ce: 03 b5 01 20  	ld	a0, 0x200(gp)
   109d2: 08 6d        	c.ld	a0, 0x18(a0)
   109d4: 03 b6 81 21  	ld	a2, 0x218(gp)
   109d8: b7 05 03 00  	lui	a1, 0x30
   109dc: 93 85 85 3a  	addi	a1, a1, 0x3a8
   109e0: ef b0 30 53  	jal	ra, 0x1c712 <fprintf>
   109e4: 03 b5 01 20  	ld	a0, 0x200(gp)
   109e8: 14 6d        	c.ld	a3, 0x18(a0)
   109ea: 37 05 03 00  	lui	a0, 0x30
   109ee: 13 05 e5 3b  	addi	a0, a0, 0x3be
   109f2: b1 45        	c.li	a1, 0xc
   109f4: 05 46        	c.li	a2, 0x1
   109f6: ef c0 80 08  	jal	ra, 0x1ca7e <fwrite>
   109fa: 03 b5 01 20  	ld	a0, 0x200(gp)
   109fe: 14 6d        	c.ld	a3, 0x18(a0)
   10a00: 37 05 03 00  	lui	a0, 0x30
   10a04: 13 05 b5 3c  	addi	a0, a0, 0x3cb
   10a08: 93 05 50 02  	addi	a1, zero, 0x25
   10a0c: 05 46        	c.li	a2, 0x1
   10a0e: ef c0 00 07  	jal	ra, 0x1ca7e <fwrite>
   10a12: 03 b5 01 20  	ld	a0, 0x200(gp)
   10a16: 14 6d        	c.ld	a3, 0x18(a0)
   10a18: 37 05 03 00  	lui	a0, 0x30
   10a1c: 13 05 15 3f  	addi	a0, a0, 0x3f1
   10a20: 93 05 70 03  	addi	a1, zero, 0x37
   10a24: 05 46        	c.li	a2, 0x1
   10a26: ef c0 80 05  	jal	ra, 0x1ca7e <fwrite>
   10a2a: 03 b5 01 20  	ld	a0, 0x200(gp)
   10a2e: 14 6d        	c.ld	a3, 0x18(a0)
   10a30: 37 05 03 00  	lui	a0, 0x30
   10a34: 13 05 95 42  	addi	a0, a0, 0x429
   10a38: 93 05 e0 02  	addi	a1, zero, 0x2e
   10a3c: 05 46        	c.li	a2, 0x1
   10a3e: ef c0 00 04  	jal	ra, 0x1ca7e <fwrite>
   10a42: 03 b5 01 20  	ld	a0, 0x200(gp)
   10a46: 14 6d        	c.ld	a3, 0x18(a0)
   10a48: 37 05 03 00  	lui	a0, 0x30
   10a4c: 13 05 85 45  	addi	a0, a0, 0x458
   10a50: 93 05 80 02  	addi	a1, zero, 0x28
   10a54: 05 46        	c.li	a2, 0x1
   10a56: ef c0 80 02  	jal	ra, 0x1ca7e <fwrite>
   10a5a: 03 b5 01 20  	ld	a0, 0x200(gp)
   10a5e: 14 6d        	c.ld	a3, 0x18(a0)
   10a60: 37 05 03 00  	lui	a0, 0x30
   10a64: 13 05 15 48  	addi	a0, a0, 0x481
   10a68: 93 05 d0 03  	addi	a1, zero, 0x3d
   10a6c: 05 46        	c.li	a2, 0x1
   10a6e: ef c0 00 01  	jal	ra, 0x1ca7e <fwrite>
   10a72: 03 b5 01 20  	ld	a0, 0x200(gp)
   10a76: 08 6d        	c.ld	a0, 0x18(a0)
   10a78: b7 05 03 00  	lui	a1, 0x30
   10a7c: 93 85 f5 4b  	addi	a1, a1, 0x4bf
   10a80: 37 16 03 00  	lui	a2, 0x31
   10a84: 13 04 d6 80  	addi	s0, a2, -0x7f3
   10a88: 22 86        	c.mv	a2, s0
   10a8a: ef b0 90 48  	jal	ra, 0x1c712 <fprintf>
   10a8e: 03 b5 01 20  	ld	a0, 0x200(gp)
   10a92: 08 6d        	c.ld	a0, 0x18(a0)
   10a94: b7 05 03 00  	lui	a1, 0x30
   10a98: 93 85 c5 4f  	addi	a1, a1, 0x4fc
   10a9c: 22 86        	c.mv	a2, s0
   10a9e: ef b0 50 47  	jal	ra, 0x1c712 <fprintf>
   10aa2: 03 b5 01 20  	ld	a0, 0x200(gp)
   10aa6: 08 6d        	c.ld	a0, 0x18(a0)
   10aa8: b7 05 03 00  	lui	a1, 0x30
   10aac: 93 85 95 52  	addi	a1, a1, 0x529
   10ab0: 22 86        	c.mv	a2, s0
   10ab2: ef b0 10 46  	jal	ra, 0x1c712 <fprintf>
   10ab6: 03 b5 01 20  	ld	a0, 0x200(gp)
   10aba: 08 6d        	c.ld	a0, 0x18(a0)
   10abc: b7 05 03 00  	lui	a1, 0x30
   10ac0: 93 85 35 56  	addi	a1, a1, 0x563
   10ac4: 37 06 03 00  	lui	a2, 0x30
   10ac8: 93 04 e6 59  	addi	s1, a2, 0x59e
   10acc: 26 86        	c.mv	a2, s1
   10ace: ef b0 50 44  	jal	ra, 0x1c712 <fprintf>
   10ad2: 03 b5 01 20  	ld	a0, 0x200(gp)
   10ad6: 08 6d        	c.ld	a0, 0x18(a0)
   10ad8: b7 05 03 00  	lui	a1, 0x30
   10adc: 93 85 95 5a  	addi	a1, a1, 0x5a9
   10ae0: 22 86        	c.mv	a2, s0
   10ae2: ef b0 10 43  	jal	ra, 0x1c712 <fprintf>
   10ae6: 03 b5 01 20  	ld	a0, 0x200(gp)
   10aea: 14 6d        	c.ld	a3, 0x18(a0)
   10aec: 37 05 03 00  	lui	a0, 0x30
   10af0: 13 05 85 5d  	addi	a0, a0, 0x5d8
   10af4: f5 45        	c.li	a1, 0x1d
   10af6: 05 46        	c.li	a2, 0x1
   10af8: ef b0 70 78  	jal	ra, 0x1ca7e <fwrite>
   10afc: 03 b5 01 20  	ld	a0, 0x200(gp)
   10b00: 08 6d        	c.ld	a0, 0x18(a0)
   10b02: b7 05 03 00  	lui	a1, 0x30
   10b06: 93 85 65 5f  	addi	a1, a1, 0x5f6
   10b0a: 26 86        	c.mv	a2, s1
   10b0c: ef b0 70 40  	jal	ra, 0x1c712 <fprintf>
   10b10: 03 b5 01 20  	ld	a0, 0x200(gp)
   10b14: 08 6d        	c.ld	a0, 0x18(a0)
   10b16: b7 05 03 00  	lui	a1, 0x30
   10b1a: 93 85 15 62  	addi	a1, a1, 0x621
   10b1e: 22 86        	c.mv	a2, s0
   10b20: ef b0 30 3f  	jal	ra, 0x1c712 <fprintf>
   10b24: 03 b5 01 20  	ld	a0, 0x200(gp)
   10b28: 08 6d        	c.ld	a0, 0x18(a0)
   10b2a: b7 05 03 00  	lui	a1, 0x30
   10b2e: 93 85 a5 65  	addi	a1, a1, 0x65a
   10b32: 22 86        	c.mv	a2, s0
   10b34: ef b0 f0 3d  	jal	ra, 0x1c712 <fprintf>
   10b38: 03 b5 01 20  	ld	a0, 0x200(gp)
   10b3c: 14 6d        	c.ld	a3, 0x18(a0)
   10b3e: 37 05 03 00  	lui	a0, 0x30
   10b42: 13 05 c5 68  	addi	a0, a0, 0x68c
   10b46: 93 05 d0 02  	addi	a1, zero, 0x2d
   10b4a: 05 46        	c.li	a2, 0x1
   10b4c: ef b0 30 73  	jal	ra, 0x1ca7e <fwrite>
   10b50: 03 b5 01 20  	ld	a0, 0x200(gp)
   10b54: 14 6d        	c.ld	a3, 0x18(a0)
   10b56: 37 05 03 00  	lui	a0, 0x30
   10b5a: 13 05 a5 6b  	addi	a0, a0, 0x6ba
   10b5e: 93 05 50 03  	addi	a1, zero, 0x35
   10b62: 05 46        	c.li	a2, 0x1
   10b64: ef b0 b0 71  	jal	ra, 0x1ca7e <fwrite>
   10b68: 03 b5 01 20  	ld	a0, 0x200(gp)
   10b6c: 14 6d        	c.ld	a3, 0x18(a0)
   10b6e: 37 05 03 00  	lui	a0, 0x30
   10b72: 13 05 05 6f  	addi	a0, a0, 0x6f0
   10b76: 93 05 e0 03  	addi	a1, zero, 0x3e
   10b7a: 05 46        	c.li	a2, 0x1
   10b7c: ef b0 30 70  	jal	ra, 0x1ca7e <fwrite>
   10b80: 03 b5 01 20  	ld	a0, 0x200(gp)
   10b84: 14 6d        	c.ld	a3, 0x18(a0)
   10b86: 37 05 03 00  	lui	a0, 0x30
   10b8a: 13 05 f5 72  	addi	a0, a0, 0x72f
   10b8e: 93 05 80 03  	addi	a1, zero, 0x38
   10b92: 05 46        	c.li	a2, 0x1
   10b94: ef b0 b0 6e  	jal	ra, 0x1ca7e <fwrite>
   10b98: 03 b5 01 20  	ld	a0, 0x200(gp)
   10b9c: 14 6d        	c.ld	a3, 0x18(a0)
   10b9e: 37 05 03 00  	lui	a0, 0x30
   10ba2: 13 05 85 76  	addi	a0, a0, 0x768
   10ba6: 93 05 30 03  	addi	a1, zero, 0x33
   10baa: 05 46        	c.li	a2, 0x1
   10bac: ef b0 30 6d  	jal	ra, 0x1ca7e <fwrite>
   10bb0: 03 b5 01 20  	ld	a0, 0x200(gp)
   10bb4: 14 6d        	c.ld	a3, 0x18(a0)
   10bb6: 37 05 03 00  	lui	a0, 0x30
   10bba: 13 05 c5 79  	addi	a0, a0, 0x79c
   10bbe: 93 05 d0 03  	addi	a1, zero, 0x3d
   10bc2: 05 46        	c.li	a2, 0x1
   10bc4: ef b0 b0 6b  	jal	ra, 0x1ca7e <fwrite>
   10bc8: 03 b5 01 20  	ld	a0, 0x200(gp)
   10bcc: 14 6d        	c.ld	a3, 0x18(a0)
   10bce: 37 05 03 00  	lui	a0, 0x30
   10bd2: 13 05 a5 7d  	addi	a0, a0, 0x7da
   10bd6: 93 05 30 03  	addi	a1, zero, 0x33
   10bda: 05 46        	c.li	a2, 0x1
   10bdc: ef b0 30 6a  	jal	ra, 0x1ca7e <fwrite>
   10be0: 03 b5 01 20  	ld	a0, 0x200(gp)
   10be4: 14 6d        	c.ld	a3, 0x18(a0)
   10be6: 37 15 03 00  	lui	a0, 0x31
   10bea: 13 05 e5 80  	addi	a0, a0, -0x7f2
   10bee: 93 05 e0 02  	addi	a1, zero, 0x2e
   10bf2: 05 46        	c.li	a2, 0x1
   10bf4: ef b0 b0 68  	jal	ra, 0x1ca7e <fwrite>
   10bf8: 03 b5 01 20  	ld	a0, 0x200(gp)
   10bfc: 14 6d        	c.ld	a3, 0x18(a0)
   10bfe: 37 15 03 00  	lui	a0, 0x31
   10c02: 13 05 d5 83  	addi	a0, a0, -0x7c3
   10c06: 93 05 b0 02  	addi	a1, zero, 0x2b
   10c0a: 05 46        	c.li	a2, 0x1
   10c0c: ef b0 30 67  	jal	ra, 0x1ca7e <fwrite>
   10c10: 05 45        	c.li	a0, 0x1
   10c12: ef f0 ef d0  	jal	ra, 0x10120 <exit>

0000000000010c16 <jpeg_getc>:
   10c16: ef e2 51 63  	jal	t0, 0x2fa4a <__riscv_save_3>
   10c1a: 2a 84        	c.mv	s0, a0
   10c1c: 04 71        	c.ld	s1, 0x20(a0)
   10c1e: 88 64        	c.ld	a0, 0x8(s1)
   10c20: 19 e9        	c.bnez	a0, 0x10c36 <jpeg_getc+0x20>
   10c22: 8c 6c        	c.ld	a1, 0x18(s1)
   10c24: 22 85        	c.mv	a0, s0
   10c26: 82 95        	c.jalr	a1
   10c28: 19 e5        	c.bnez	a0, 0x10c36 <jpeg_getc+0x20>
   10c2a: 08 60        	c.ld	a0, 0x0(s0)
   10c2c: 0c 61        	c.ld	a1, 0x0(a0)
   10c2e: 59 46        	c.li	a2, 0x16
   10c30: 10 d5        	c.sw	a2, 0x28(a0)
   10c32: 22 85        	c.mv	a0, s0
   10c34: 82 95        	c.jalr	a1
   10c36: 88 64        	c.ld	a0, 0x8(s1)
   10c38: 8c 60        	c.ld	a1, 0x0(s1)
   10c3a: 7d 15        	c.addi	a0, -0x1
   10c3c: 88 e4        	c.sd	a0, 0x8(s1)
   10c3e: 13 85 15 00  	addi	a0, a1, 0x1
   10c42: 88 e0        	c.sd	a0, 0x0(s1)
   10c44: 03 c5 05 00  	lbu	a0, 0x0(a1)
   10c48: 6f e0 91 63  	jal	zero, 0x2fa80 <__riscv_restore_3>

0000000000010c4c <jinit_write_ppm>:
   10c4c: ef e2 51 5f  	jal	t0, 0x2fa40 <__riscv_save_5>
   10c50: aa 84        	c.mv	s1, a0
   10c52: 08 65        	c.ld	a0, 0x8(a0)
   10c54: 14 61        	c.ld	a3, 0x0(a0)
   10c56: 85 45        	c.li	a1, 0x1
   10c58: 13 06 00 05  	addi	a2, zero, 0x50
   10c5c: 05 49        	c.li	s2, 0x1
   10c5e: 26 85        	c.mv	a0, s1
   10c60: 82 96        	c.jalr	a3
   10c62: 2a 84        	c.mv	s0, a0
   10c64: 37 15 01 00  	lui	a0, 0x11
   10c68: 13 05 e5 d0  	addi	a0, a0, -0x2f2
   10c6c: 08 e0        	c.sd	a0, 0x0(s0)
   10c6e: 37 15 01 00  	lui	a0, 0x11
   10c72: 13 05 85 d5  	addi	a0, a0, -0x2a8
   10c76: 08 e8        	c.sd	a0, 0x10(s0)
   10c78: 26 85        	c.mv	a0, s1
   10c7a: ef 10 b0 62  	jal	ra, 0x12aa4 <jpeg_calc_output_dimensions>
   10c7e: 83 a5 04 08  	lw	a1, 0x80(s1)
   10c82: 03 a5 84 08  	lw	a0, 0x88(s1)
   10c86: ef e0 b1 60  	jal	ra, 0x2fa90 <__muldi3>
   10c8a: 8c 64        	c.ld	a1, 0x8(s1)
   10c8c: 28 c4        	c.sw	a0, 0x48(s0)
   10c8e: 94 61        	c.ld	a3, 0x0(a1)
   10c90: 02 15        	c.slli	a0, 0x20
   10c92: 13 56 05 02  	srli	a2, a0, 0x20
   10c96: 30 e0        	c.sd	a2, 0x40(s0)
   10c98: 85 45        	c.li	a1, 0x1
   10c9a: 26 85        	c.mv	a0, s1
   10c9c: 82 96        	c.jalr	a3
   10c9e: ec 50        	c.lw	a1, 0x64(s1)
   10ca0: 08 f8        	c.sd	a0, 0x30(s0)
   10ca2: 95 cd        	c.beqz	a1, 0x10cde <jinit_write_ppm+0x92>
   10ca4: 88 64        	c.ld	a0, 0x8(s1)
   10ca6: 83 39 05 01  	ld	s3, 0x10(a0)
   10caa: 83 a5 04 08  	lw	a1, 0x80(s1)
   10cae: 03 a5 c4 08  	lw	a0, 0x8c(s1)
   10cb2: ef e0 f1 5d  	jal	ra, 0x2fa90 <__muldi3>
   10cb6: 1b 06 05 00  	addiw	a2, a0, 0x0
   10cba: 85 45        	c.li	a1, 0x1
   10cbc: 85 46        	c.li	a3, 0x1
   10cbe: 26 85        	c.mv	a0, s1
   10cc0: 82 99        	c.jalr	s3
   10cc2: ec 50        	c.lw	a1, 0x64(s1)
   10cc4: 08 f0        	c.sd	a0, 0x20(s0)
   10cc6: 23 24 24 03  	sw	s2, 0x28(s0)
   10cca: 8d c5        	c.beqz	a1, 0x10cf4 <jinit_write_ppm+0xa8>
   10ccc: 88 5c        	c.lw	a0, 0x38(s1)
   10cce: 85 45        	c.li	a1, 0x1
   10cd0: 63 17 b5 02  	bne	a0, a1, 0x10cfe <jinit_write_ppm+0xb2>
   10cd4: 37 15 01 00  	lui	a0, 0x11
   10cd8: 13 05 c5 dc  	addi	a0, a0, -0x234
   10cdc: 2d a0        	c.j	0x10d06 <jinit_write_ppm+0xba>
   10cde: 93 05 84 03  	addi	a1, s0, 0x38
   10ce2: 08 fc        	c.sd	a0, 0x38(s0)
   10ce4: 0c f0        	c.sd	a1, 0x20(s0)
   10ce6: 23 24 24 03  	sw	s2, 0x28(s0)
   10cea: 37 15 01 00  	lui	a0, 0x11
   10cee: 13 05 05 e8  	addi	a0, a0, -0x180
   10cf2: 11 a8        	c.j	0x10d06 <jinit_write_ppm+0xba>
   10cf4: 37 15 01 00  	lui	a0, 0x11
   10cf8: 13 05 85 d9  	addi	a0, a0, -0x268
   10cfc: 29 a0        	c.j	0x10d06 <jinit_write_ppm+0xba>
   10cfe: 37 15 01 00  	lui	a0, 0x11
   10d02: 13 05 45 e1  	addi	a0, a0, -0x1ec
   10d06: 08 e4        	c.sd	a0, 0x8(s0)
   10d08: 22 85        	c.mv	a0, s0
   10d0a: 6f e0 11 57  	jal	zero, 0x2fa7a <__riscv_restore_5>

0000000000010d0e <start_output_ppm>:
   10d0e: 10 5d        	c.lw	a2, 0x38(a0)
   10d10: 89 46        	c.li	a3, 0x2
   10d12: 63 0f d6 00  	beq	a2, a3, 0x10d30 <start_output_ppm+0x22>
   10d16: 85 46        	c.li	a3, 0x1
   10d18: 63 1a d6 02  	bne	a2, a3, 0x10d4c <start_output_ppm+0x3e>
   10d1c: 9c 6d        	c.ld	a5, 0x18(a1)
   10d1e: 03 66 05 08  	lwu	a2, 0x80(a0)
   10d22: 83 66 45 08  	lwu	a3, 0x84(a0)
   10d26: 37 15 03 00  	lui	a0, 0x31
   10d2a: 93 05 95 86  	addi	a1, a0, -0x797
   10d2e: 11 a8        	c.j	0x10d42 <start_output_ppm+0x34>
   10d30: 9c 6d        	c.ld	a5, 0x18(a1)
   10d32: 03 66 05 08  	lwu	a2, 0x80(a0)
   10d36: 83 66 45 08  	lwu	a3, 0x84(a0)
   10d3a: 37 15 03 00  	lui	a0, 0x31
   10d3e: 93 05 85 87  	addi	a1, a0, -0x788
   10d42: 13 07 f0 0f  	addi	a4, zero, 0xff
   10d46: 3e 85        	c.mv	a0, a5
   10d48: 6f b0 b0 1c  	jal	zero, 0x1c712 <fprintf>
   10d4c: 0c 61        	c.ld	a1, 0x0(a0)
   10d4e: 9c 61        	c.ld	a5, 0x0(a1)
   10d50: 13 06 10 40  	addi	a2, zero, 0x401
   10d54: 90 d5        	c.sw	a2, 0x28(a1)
   10d56: 82 87        	c.jr	a5

0000000000010d58 <finish_output_ppm>:
   10d58: 01 11        	c.addi	sp, -0x20
   10d5a: 06 ec        	c.sdsp	ra, 0x18(sp)
   10d5c: 22 e8        	c.sdsp	s0, 0x10(sp)
   10d5e: 26 e4        	c.sdsp	s1, 0x8(sp)
   10d60: ae 84        	c.mv	s1, a1
   10d62: 8c 6d        	c.ld	a1, 0x18(a1)
   10d64: 2a 84        	c.mv	s0, a0
   10d66: 2e 85        	c.mv	a0, a1
   10d68: ef b0 20 61  	jal	ra, 0x1c37a <fflush>
   10d6c: 88 6c        	c.ld	a0, 0x18(s1)
   10d6e: 03 45 05 01  	lbu	a0, 0x10(a0)
   10d72: 13 75 05 04  	andi	a0, a0, 0x40
   10d76: 11 e5        	c.bnez	a0, 0x10d82 <finish_output_ppm+0x2a>
   10d78: e2 60        	c.ldsp	ra, 0x18(sp)
   10d7a: 42 64        	c.ldsp	s0, 0x10(sp)
   10d7c: a2 64        	c.ldsp	s1, 0x8(sp)
   10d7e: 05 61        	c.addi16sp	sp, 0x20
   10d80: 82 80        	c.jr	ra
   10d82: 08 60        	c.ld	a0, 0x0(s0)
   10d84: 1c 61        	c.ld	a5, 0x0(a0)
   10d86: 93 05 40 02  	addi	a1, zero, 0x24
   10d8a: 0c d5        	c.sw	a1, 0x28(a0)
   10d8c: 22 85        	c.mv	a0, s0
   10d8e: e2 60        	c.ldsp	ra, 0x18(sp)
   10d90: 42 64        	c.ldsp	s0, 0x10(sp)
   10d92: a2 64        	c.ldsp	s1, 0x8(sp)
   10d94: 05 61        	c.addi16sp	sp, 0x20
   10d96: 82 87        	c.jr	a5

0000000000010d98 <copy_pixel_rows>:
   10d98: b4 45        	c.lw	a3, 0x48(a1)
   10d9a: 88 79        	c.ld	a0, 0x30(a1)
   10d9c: 9d c2        	c.beqz	a3, 0x10dc2 <copy_pixel_rows+0x2a>
   10d9e: 90 71        	c.ld	a2, 0x20(a1)
   10da0: 10 62        	c.ld	a2, 0x0(a2)
   10da2: fd 16        	c.addi	a3, -0x1
   10da4: 82 16        	c.slli	a3, 0x20
   10da6: 81 92        	c.srli	a3, 0x20
   10da8: aa 96        	c.add	a3, a0
   10daa: 85 06        	c.addi	a3, 0x1
   10dac: 03 47 06 00  	lbu	a4, 0x0(a2)
   10db0: 05 06        	c.addi	a2, 0x1
   10db2: 93 07 15 00  	addi	a5, a0, 0x1
   10db6: 23 00 e5 00  	sb	a4, 0x0(a0)
   10dba: 3e 85        	c.mv	a0, a5
   10dbc: e3 98 d7 fe  	bne	a5, a3, 0x10dac <copy_pixel_rows+0x14>
   10dc0: 88 79        	c.ld	a0, 0x30(a1)
   10dc2: b0 61        	c.ld	a2, 0x40(a1)
   10dc4: 94 6d        	c.ld	a3, 0x18(a1)
   10dc6: 85 45        	c.li	a1, 0x1
   10dc8: 6f b0 70 4b  	jal	zero, 0x1ca7e <fwrite>

0000000000010dcc <put_demapped_gray>:
   10dcc: 2a 86        	c.mv	a2, a0
   10dce: 03 27 05 08  	lw	a4, 0x80(a0)
   10dd2: 88 79        	c.ld	a0, 0x30(a1)
   10dd4: 1d cb        	c.beqz	a4, 0x10e0a <put_demapped_gray+0x3e>
   10dd6: 50 6e        	c.ld	a2, 0x98(a2)
   10dd8: 94 71        	c.ld	a3, 0x20(a1)
   10dda: 03 38 06 00  	ld	a6, 0x0(a2)
   10dde: 94 62        	c.ld	a3, 0x0(a3)
   10de0: 7d 17        	c.addi	a4, -0x1
   10de2: 02 17        	c.slli	a4, 0x20
   10de4: 01 93        	c.srli	a4, 0x20
   10de6: 36 97        	c.add	a4, a3
   10de8: 05 07        	c.addi	a4, 0x1
   10dea: 83 c7 06 00  	lbu	a5, 0x0(a3)
   10dee: c2 97        	c.add	a5, a6
   10df0: 83 c7 07 00  	lbu	a5, 0x0(a5)
   10df4: 13 86 16 00  	addi	a2, a3, 0x1
   10df8: 93 06 15 00  	addi	a3, a0, 0x1
   10dfc: 23 00 f5 00  	sb	a5, 0x0(a0)
   10e00: 36 85        	c.mv	a0, a3
   10e02: b2 86        	c.mv	a3, a2
   10e04: e3 13 e6 fe  	bne	a2, a4, 0x10dea <put_demapped_gray+0x1e>
   10e08: 88 79        	c.ld	a0, 0x30(a1)
   10e0a: b0 61        	c.ld	a2, 0x40(a1)
   10e0c: 94 6d        	c.ld	a3, 0x18(a1)
   10e0e: 85 45        	c.li	a1, 0x1
   10e10: 6f b0 f0 46  	jal	zero, 0x1ca7e <fwrite>

0000000000010e14 <put_demapped_rgb>:
   10e14: 2a 86        	c.mv	a2, a0
   10e16: 83 28 05 08  	lw	a7, 0x80(a0)
   10e1a: 88 79        	c.ld	a0, 0x30(a1)
   10e1c: 63 8d 08 04  	beq	a7, zero, 0x10e76 <put_demapped_rgb+0x62>
   10e20: 50 6e        	c.ld	a2, 0x98(a2)
   10e22: 9c 71        	c.ld	a5, 0x20(a1)
   10e24: 03 38 06 00  	ld	a6, 0x0(a2)
   10e28: 83 32 86 00  	ld	t0, 0x8(a2)
   10e2c: 03 33 06 01  	ld	t1, 0x10(a2)
   10e30: 9c 63        	c.ld	a5, 0x0(a5)
   10e32: fd 18        	c.addi	a7, -0x1
   10e34: 82 18        	c.slli	a7, 0x20
   10e36: 13 d6 08 02  	srli	a2, a7, 0x20
   10e3a: 3e 96        	c.add	a2, a5
   10e3c: 05 06        	c.addi	a2, 0x1
   10e3e: 03 c7 07 00  	lbu	a4, 0x0(a5)
   10e42: b3 06 e8 00  	add	a3, a6, a4
   10e46: 83 c6 06 00  	lbu	a3, 0x0(a3)
   10e4a: 23 00 d5 00  	sb	a3, 0x0(a0)
   10e4e: b3 86 e2 00  	add	a3, t0, a4
   10e52: 83 c6 06 00  	lbu	a3, 0x0(a3)
   10e56: a3 00 d5 00  	sb	a3, 0x1(a0)
   10e5a: 1a 97        	c.add	a4, t1
   10e5c: 83 46 07 00  	lbu	a3, 0x0(a4)
   10e60: 13 87 17 00  	addi	a4, a5, 0x1
   10e64: 93 07 35 00  	addi	a5, a0, 0x3
   10e68: 23 01 d5 00  	sb	a3, 0x2(a0)
   10e6c: 3e 85        	c.mv	a0, a5
   10e6e: ba 87        	c.mv	a5, a4
   10e70: e3 17 c7 fc  	bne	a4, a2, 0x10e3e <put_demapped_rgb+0x2a>
   10e74: 88 79        	c.ld	a0, 0x30(a1)
   10e76: b0 61        	c.ld	a2, 0x40(a1)
   10e78: 94 6d        	c.ld	a3, 0x18(a1)
   10e7a: 85 45        	c.li	a1, 0x1
   10e7c: 6f b0 30 40  	jal	zero, 0x1ca7e <fwrite>

0000000000010e80 <put_pixel_rows>:
   10e80: 88 79        	c.ld	a0, 0x30(a1)
   10e82: b0 61        	c.ld	a2, 0x40(a1)
   10e84: 94 6d        	c.ld	a3, 0x18(a1)
   10e86: 85 45        	c.li	a1, 0x1
   10e88: 6f b0 70 3f  	jal	zero, 0x1ca7e <fwrite>

0000000000010e8c <jinit_write_gif>:
   10e8c: ef e2 f1 3b  	jal	t0, 0x2fa4a <__riscv_save_3>
   10e90: 2a 84        	c.mv	s0, a0
   10e92: 08 65        	c.ld	a0, 0x8(a0)
   10e94: 14 61        	c.ld	a3, 0x0(a0)
   10e96: 85 45        	c.li	a1, 0x1
   10e98: 13 06 00 18  	addi	a2, zero, 0x180
   10e9c: 05 49        	c.li	s2, 0x1
   10e9e: 22 85        	c.mv	a0, s0
   10ea0: 82 96        	c.jalr	a3
   10ea2: aa 84        	c.mv	s1, a0
   10ea4: 37 15 01 00  	lui	a0, 0x11
   10ea8: 13 05 e5 f5  	addi	a0, a0, -0xa2
   10eac: 88 e0        	c.sd	a0, 0x0(s1)
   10eae: 37 15 01 00  	lui	a0, 0x11
   10eb2: 13 05 a5 f7  	addi	a0, a0, -0x86
   10eb6: 88 e4        	c.sd	a0, 0x8(s1)
   10eb8: 08 5c        	c.lw	a0, 0x38(s0)
   10eba: b7 15 01 00  	lui	a1, 0x11
   10ebe: 93 85 e5 0a  	addi	a1, a1, 0xae
   10ec2: 8c e8        	c.sd	a1, 0x10(s1)
   10ec4: 9b 05 f5 ff  	addiw	a1, a0, -0x1
   10ec8: 80 f8        	c.sd	s0, 0x30(s1)
   10eca: 63 7a b9 00  	bgeu	s2, a1, 0x10ede <jinit_write_gif+0x52>
   10ece: 08 60        	c.ld	a0, 0x0(s0)
   10ed0: 0c 61        	c.ld	a1, 0x0(a0)
   10ed2: 13 06 60 3f  	addi	a2, zero, 0x3f6
   10ed6: 10 d5        	c.sw	a2, 0x28(a0)
   10ed8: 22 85        	c.mv	a0, s0
   10eda: 82 95        	c.jalr	a1
   10edc: 08 5c        	c.lw	a0, 0x38(s0)
   10ede: 63 17 25 01  	bne	a0, s2, 0x10eec <jinit_write_gif+0x60>
   10ee2: 03 25 04 12  	lw	a0, 0x120(s0)
   10ee6: a5 45        	c.li	a1, 0x9
   10ee8: 63 4c b5 00  	blt	a0, a1, 0x10f00 <jinit_write_gif+0x74>
   10eec: 28 58        	c.lw	a0, 0x70(s0)
   10eee: 85 45        	c.li	a1, 0x1
   10ef0: 13 06 10 10  	addi	a2, zero, 0x101
   10ef4: 6c d0        	c.sw	a1, 0x64(s0)
   10ef6: 63 45 c5 00  	blt	a0, a2, 0x10f00 <jinit_write_gif+0x74>
   10efa: 13 05 00 10  	addi	a0, zero, 0x100
   10efe: 28 d8        	c.sw	a0, 0x70(s0)
   10f00: 22 85        	c.mv	a0, s0
   10f02: ef 10 30 3a  	jal	ra, 0x12aa4 <jpeg_calc_output_dimensions>
   10f06: 03 25 c4 08  	lw	a0, 0x8c(s0)
   10f0a: 05 49        	c.li	s2, 0x1
   10f0c: 63 09 25 01  	beq	a0, s2, 0x10f1e <jinit_write_gif+0x92>
   10f10: 08 60        	c.ld	a0, 0x0(s0)
   10f12: 0c 61        	c.ld	a1, 0x0(a0)
   10f14: 13 06 40 3f  	addi	a2, zero, 0x3f4
   10f18: 10 d5        	c.sw	a2, 0x28(a0)
   10f1a: 22 85        	c.mv	a0, s0
   10f1c: 82 95        	c.jalr	a1
   10f1e: 08 64        	c.ld	a0, 0x8(s0)
   10f20: 18 69        	c.ld	a4, 0x10(a0)
   10f22: 03 26 04 08  	lw	a2, 0x80(s0)
   10f26: 85 45        	c.li	a1, 0x1
   10f28: 85 46        	c.li	a3, 0x1
   10f2a: 22 85        	c.mv	a0, s0
   10f2c: 02 97        	c.jalr	a4
   10f2e: 0c 64        	c.ld	a1, 0x8(s0)
   10f30: 94 61        	c.ld	a3, 0x0(a1)
   10f32: 88 f0        	c.sd	a0, 0x20(s1)
   10f34: 23 a4 24 03  	sw	s2, 0x28(s1)
   10f38: 09 65        	c.lui	a0, 0x2
   10f3a: 1b 06 65 71  	addiw	a2, a0, 0x716
   10f3e: 85 45        	c.li	a1, 0x1
   10f40: 22 85        	c.mv	a0, s0
   10f42: 82 96        	c.jalr	a3
   10f44: 0c 64        	c.ld	a1, 0x8(s0)
   10f46: 94 65        	c.ld	a3, 0x8(a1)
   10f48: a8 f4        	c.sd	a0, 0x68(s1)
   10f4a: 29 65        	c.lui	a0, 0xa
   10f4c: 1b 06 85 c5  	addiw	a2, a0, -0x3a8
   10f50: 85 45        	c.li	a1, 0x1
   10f52: 22 85        	c.mv	a0, s0
   10f54: 82 96        	c.jalr	a3
   10f56: a8 f8        	c.sd	a0, 0x70(s1)
   10f58: 26 85        	c.mv	a0, s1
   10f5a: 6f e0 71 32  	jal	zero, 0x2fa80 <__riscv_restore_3>

0000000000010f5e <start_output_gif>:
   10f5e: 2a 86        	c.mv	a2, a0
   10f60: 74 51        	c.lw	a3, 0x64(a0)
   10f62: 2e 85        	c.mv	a0, a1
   10f64: 91 c6        	c.beqz	a3, 0x10f70 <start_output_gif+0x12>
   10f66: 83 25 46 09  	lw	a1, 0x94(a2)
   10f6a: 50 6e        	c.ld	a2, 0x98(a2)
   10f6c: 6f 00 40 1d  	jal	zero, 0x11140 <emit_header>
   10f70: 93 05 00 10  	addi	a1, zero, 0x100
   10f74: 01 46        	c.li	a2, 0x0
   10f76: 6f 00 a0 1c  	jal	zero, 0x11140 <emit_header>

0000000000010f7a <put_pixel_rows>:
   10f7a: ef e2 11 2a  	jal	t0, 0x2fa1a <__riscv_save_12>
   10f7e: 83 2d 05 08  	lw	s11, 0x80(a0)
   10f82: 63 84 0d 12  	beq	s11, zero, 0x110aa <put_pixel_rows+0x130>
   10f86: 2e 8a        	c.mv	s4, a1
   10f88: 88 71        	c.ld	a0, 0x20(a1)
   10f8a: fd 75        	c.lui	a1, 0xfffff
   10f8c: 9b 89 55 c7  	addiw	s3, a1, -0x38b
   10f90: 00 61        	c.ld	s0, 0x0(a0)
   10f92: 05 65        	c.lui	a0, 0x1
   10f94: 9b 0a a5 38  	addiw	s5, a0, 0x38a
   10f98: 1b 0b f5 ff  	addiw	s6, a0, -0x1
   10f9c: 89 65        	c.lui	a1, 0x2
   10f9e: 1b 89 65 71  	addiw	s2, a1, 0x716
   10fa2: fd 5b        	c.li	s7, -0x1
   10fa4: 13 0c b5 38  	addi	s8, a0, 0x38b
   10fa8: 03 25 8a 05  	lw	a0, 0x58(s4)
   10fac: 83 4c 04 00  	lbu	s9, 0x0(s0)
   10fb0: 11 c5        	c.beqz	a0, 0x10fbc <put_pixel_rows+0x42>
   10fb2: 23 1a 9a 05  	sh	s9, 0x54(s4)
   10fb6: 23 2c 0a 04  	sw	zero, 0x58(s4)
   10fba: e5 a0        	c.j	0x110a2 <put_pixel_rows+0x128>
   10fbc: 83 15 4a 05  	lh	a1, 0x54(s4)
   10fc0: 13 95 4c 00  	slli	a0, s9, 0x4
   10fc4: b3 04 b5 00  	add	s1, a0, a1
   10fc8: 33 a5 9a 00  	slt	a0, s5, s1
   10fcc: 33 06 a0 40  	sub	a2, zero, a0
   10fd0: 03 35 8a 06  	ld	a0, 0x68(s4)
   10fd4: 33 76 36 01  	and	a2, a2, s3
   10fd8: b2 94        	c.add	s1, a2
   10fda: 13 96 14 00  	slli	a2, s1, 0x1
   10fde: 2a 96        	c.add	a2, a0
   10fe0: 83 56 06 00  	lhu	a3, 0x0(a2)
   10fe4: 13 96 85 00  	slli	a2, a1, 0x8
   10fe8: 33 6d 96 01  	or	s10, a2, s9
   10fec: b9 c6        	c.beqz	a3, 0x1103a <put_pixel_rows+0xc0>
   10fee: 03 36 0a 07  	ld	a2, 0x70(s4)
   10ff2: 13 97 34 00  	slli	a4, s1, 0x3
   10ff6: 32 97        	c.add	a4, a2
   10ff8: 18 63        	c.ld	a4, 0x0(a4)
   10ffa: 63 15 a7 01  	bne	a4, s10, 0x11004 <put_pixel_rows+0x8a>
   10ffe: 23 1a da 04  	sh	a3, 0x54(s4)
   11002: 45 a0        	c.j	0x110a2 <put_pixel_rows+0x128>
   11004: b3 36 90 00  	sltu	a3, zero, s1
   11008: 33 87 34 01  	add	a4, s1, s3
   1100c: fd 16        	c.addi	a3, -0x1
   1100e: d9 8e        	c.or	a3, a4
   11010: b6 94        	c.add	s1, a3
   11012: 1b d7 f4 41  	sraiw	a4, s1, 0x1f
   11016: 33 77 87 01  	and	a4, a4, s8
   1101a: b9 9c        	c.addw	s1, a4
   1101c: 13 97 14 00  	slli	a4, s1, 0x1
   11020: 2a 97        	c.add	a4, a0
   11022: 03 57 07 00  	lhu	a4, 0x0(a4)
   11026: 11 cb        	c.beqz	a4, 0x1103a <put_pixel_rows+0xc0>
   11028: 93 97 34 00  	slli	a5, s1, 0x3
   1102c: b2 97        	c.add	a5, a2
   1102e: 9c 63        	c.ld	a5, 0x0(a5)
   11030: e3 90 a7 ff  	bne	a5, s10, 0x11010 <put_pixel_rows+0x96>
   11034: 23 1a ea 04  	sh	a4, 0x54(s4)
   11038: ad a0        	c.j	0x110a2 <put_pixel_rows+0x128>
   1103a: 52 85        	c.mv	a0, s4
   1103c: ef 00 60 3e  	jal	ra, 0x11422 <output>
   11040: 03 15 0a 06  	lh	a0, 0x60(s4)
   11044: 63 44 ab 02  	blt	s6, a0, 0x1106c <put_pixel_rows+0xf2>
   11048: 93 05 15 00  	addi	a1, a0, 0x1
   1104c: 03 36 8a 06  	ld	a2, 0x68(s4)
   11050: 23 10 ba 06  	sh	a1, 0x60(s4)
   11054: 93 95 14 00  	slli	a1, s1, 0x1
   11058: 83 36 0a 07  	ld	a3, 0x70(s4)
   1105c: b2 95        	c.add	a1, a2
   1105e: 23 90 a5 00  	sh	a0, 0x0(a1)
   11062: 8e 04        	c.slli	s1, 0x3
   11064: a6 96        	c.add	a3, s1
   11066: 23 b0 a6 01  	sd	s10, 0x0(a3)
   1106a: 15 a8        	c.j	0x1109e <put_pixel_rows+0x124>
   1106c: 03 35 8a 06  	ld	a0, 0x68(s4)
   11070: 81 45        	c.li	a1, 0x0
   11072: 4a 86        	c.mv	a2, s2
   11074: ef c0 90 02  	jal	ra, 0x1d89c <memset>
   11078: 83 15 ca 05  	lh	a1, 0x5c(s4)
   1107c: 13 85 25 00  	addi	a0, a1, 0x2
   11080: 23 10 aa 06  	sh	a0, 0x60(s4)
   11084: 52 85        	c.mv	a0, s4
   11086: ef 00 c0 39  	jal	ra, 0x11422 <output>
   1108a: 03 65 0a 04  	lwu	a0, 0x40(s4)
   1108e: 23 2c aa 02  	sw	a0, 0x38(s4)
   11092: 3b 95 ab 00  	sllw	a0, s7, a0
   11096: 13 45 f5 ff  	xori	a0, a0, -0x1
   1109a: 23 1e aa 02  	sh	a0, 0x3c(s4)
   1109e: 23 1a 9a 05  	sh	s9, 0x54(s4)
   110a2: fd 3d        	c.addiw	s11, -0x1
   110a4: 05 04        	c.addi	s0, 0x1
   110a6: e3 91 0d f0  	bne	s11, zero, 0x10fa8 <put_pixel_rows+0x2e>
   110aa: 6f e0 b1 1b  	jal	zero, 0x2fa64 <__riscv_restore_12>

00000000000110ae <finish_output_gif>:
   110ae: 01 11        	c.addi	sp, -0x20
   110b0: 06 ec        	c.sdsp	ra, 0x18(sp)
   110b2: 22 e8        	c.sdsp	s0, 0x10(sp)
   110b4: 26 e4        	c.sdsp	s1, 0x8(sp)
   110b6: ae 84        	c.mv	s1, a1
   110b8: ac 4d        	c.lw	a1, 0x58(a1)
   110ba: 2a 84        	c.mv	s0, a0
   110bc: 91 e5        	c.bnez	a1, 0x110c8 <finish_output_gif+0x1a>
   110be: 83 95 44 05  	lh	a1, 0x54(s1)
   110c2: 26 85        	c.mv	a0, s1
   110c4: ef 00 e0 35  	jal	ra, 0x11422 <output>
   110c8: 83 95 e4 05  	lh	a1, 0x5e(s1)
   110cc: 26 85        	c.mv	a0, s1
   110ce: ef 00 40 35  	jal	ra, 0x11422 <output>
   110d2: a8 48        	c.lw	a0, 0x50(s1)
   110d4: 63 51 a0 02  	bge	zero, a0, 0x110f6 <finish_output_gif+0x48>
   110d8: a8 5c        	c.lw	a0, 0x78(s1)
   110da: ac 64        	c.ld	a1, 0x48(s1)
   110dc: 05 25        	c.addiw	a0, 0x1
   110de: a8 dc        	c.sw	a0, 0x78(s1)
   110e0: 26 95        	c.add	a0, s1
   110e2: 23 0e b5 06  	sb	a1, 0x7c(a0)
   110e6: a8 5c        	c.lw	a0, 0x78(s1)
   110e8: 93 05 f0 0f  	addi	a1, zero, 0xff
   110ec: 63 45 b5 00  	blt	a0, a1, 0x110f6 <finish_output_gif+0x48>
   110f0: 26 85        	c.mv	a0, s1
   110f2: ef 00 c0 3a  	jal	ra, 0x1149e <flush_packet>
   110f6: 26 85        	c.mv	a0, s1
   110f8: ef 00 60 3a  	jal	ra, 0x1149e <flush_packet>
   110fc: 8c 6c        	c.ld	a1, 0x18(s1)
   110fe: 01 45        	c.li	a0, 0x0
   11100: ef b0 d0 2e  	jal	ra, 0x1cbec <putc>
   11104: 8c 6c        	c.ld	a1, 0x18(s1)
   11106: 13 05 b0 03  	addi	a0, zero, 0x3b
   1110a: ef b0 30 2e  	jal	ra, 0x1cbec <putc>
   1110e: 88 6c        	c.ld	a0, 0x18(s1)
   11110: ef b0 a0 26  	jal	ra, 0x1c37a <fflush>
   11114: 88 6c        	c.ld	a0, 0x18(s1)
   11116: 03 45 05 01  	lbu	a0, 0x10(a0)
   1111a: 13 75 05 04  	andi	a0, a0, 0x40
   1111e: 11 e5        	c.bnez	a0, 0x1112a <finish_output_gif+0x7c>
   11120: e2 60        	c.ldsp	ra, 0x18(sp)
   11122: 42 64        	c.ldsp	s0, 0x10(sp)
   11124: a2 64        	c.ldsp	s1, 0x8(sp)
   11126: 05 61        	c.addi16sp	sp, 0x20
   11128: 82 80        	c.jr	ra
   1112a: 08 60        	c.ld	a0, 0x0(s0)
   1112c: 1c 61        	c.ld	a5, 0x0(a0)
   1112e: 93 05 40 02  	addi	a1, zero, 0x24
   11132: 0c d5        	c.sw	a1, 0x28(a0)
   11134: 22 85        	c.mv	a0, s0
   11136: e2 60        	c.ldsp	ra, 0x18(sp)
   11138: 42 64        	c.ldsp	s0, 0x10(sp)
   1113a: a2 64        	c.ldsp	s1, 0x8(sp)
   1113c: 05 61        	c.addi16sp	sp, 0x20
   1113e: 82 87        	c.jr	a5

0000000000011140 <emit_header>:
   11140: 1d 71        	c.addi16sp	sp, -0x60
   11142: 86 ec        	c.sdsp	ra, 0x58(sp)
   11144: a2 e8        	c.sdsp	s0, 0x50(sp)
   11146: a6 e4        	c.sdsp	s1, 0x48(sp)
   11148: ca e0        	c.sdsp	s2, 0x40(sp)
   1114a: 4e fc        	c.sdsp	s3, 0x38(sp)
   1114c: 52 f8        	c.sdsp	s4, 0x30(sp)
   1114e: 56 f4        	c.sdsp	s5, 0x28(sp)
   11150: 5a f0        	c.sdsp	s6, 0x20(sp)
   11152: 5e ec        	c.sdsp	s7, 0x18(sp)
   11154: 62 e8        	c.sdsp	s8, 0x10(sp)
   11156: 66 e4        	c.sdsp	s9, 0x8(sp)
   11158: aa 8a        	c.mv	s5, a0
   1115a: 08 79        	c.ld	a0, 0x30(a0)
   1115c: 03 2b 05 12  	lw	s6, 0x120(a0)
   11160: 93 06 10 10  	addi	a3, zero, 0x101
   11164: 32 89        	c.mv	s2, a2
   11166: ae 8b        	c.mv	s7, a1
   11168: 63 cd d5 00  	blt	a1, a3, 0x11182 <emit_header+0x42>
   1116c: 0c 61        	c.ld	a1, 0x0(a0)
   1116e: 23 a6 75 03  	sw	s7, 0x2c(a1)
   11172: 03 b5 0a 03  	ld	a0, 0x30(s5)
   11176: 10 61        	c.ld	a2, 0x0(a0)
   11178: 10 62        	c.ld	a2, 0x0(a2)
   1117a: 93 06 f0 40  	addi	a3, zero, 0x40f
   1117e: 94 d5        	c.sw	a3, 0x28(a1)
   11180: 02 96        	c.jalr	a2
   11182: 61 1b        	c.addi	s6, -0x8
   11184: 05 45        	c.li	a0, 0x1
   11186: c1 54        	c.li	s1, -0x10
   11188: 05 44        	c.li	s0, 0x1
   1118a: 3b 1c 85 00  	sllw	s8, a0, s0
   1118e: 05 24        	c.addiw	s0, 0x1
   11190: c1 24        	c.addiw	s1, 0x10
   11192: e3 4c 7c ff  	blt	s8, s7, 0x1118a <emit_header+0x4a>
   11196: 83 b5 8a 01  	ld	a1, 0x18(s5)
   1119a: 13 05 70 04  	addi	a0, zero, 0x47
   1119e: ef b0 f0 24  	jal	ra, 0x1cbec <putc>
   111a2: 83 b5 8a 01  	ld	a1, 0x18(s5)
   111a6: 13 05 90 04  	addi	a0, zero, 0x49
   111aa: ef b0 30 24  	jal	ra, 0x1cbec <putc>
   111ae: 83 b5 8a 01  	ld	a1, 0x18(s5)
   111b2: 13 05 60 04  	addi	a0, zero, 0x46
   111b6: ef b0 70 23  	jal	ra, 0x1cbec <putc>
   111ba: 83 b5 8a 01  	ld	a1, 0x18(s5)
   111be: 13 05 80 03  	addi	a0, zero, 0x38
   111c2: ef b0 b0 22  	jal	ra, 0x1cbec <putc>
   111c6: 83 b5 8a 01  	ld	a1, 0x18(s5)
   111ca: 13 05 70 03  	addi	a0, zero, 0x37
   111ce: ef b0 f0 21  	jal	ra, 0x1cbec <putc>
   111d2: 83 b5 8a 01  	ld	a1, 0x18(s5)
   111d6: 13 05 10 06  	addi	a0, zero, 0x61
   111da: ef b0 30 21  	jal	ra, 0x1cbec <putc>
   111de: 03 b5 0a 03  	ld	a0, 0x30(s5)
   111e2: 83 29 05 08  	lw	s3, 0x80(a0)
   111e6: 83 b5 8a 01  	ld	a1, 0x18(s5)
   111ea: 13 f5 f9 0f  	andi	a0, s3, 0xff
   111ee: ef b0 f0 1f  	jal	ra, 0x1cbec <putc>
   111f2: 83 b5 8a 01  	ld	a1, 0x18(s5)
   111f6: 13 95 09 03  	slli	a0, s3, 0x30
   111fa: 61 91        	c.srli	a0, 0x38
   111fc: ef b0 10 1f  	jal	ra, 0x1cbec <putc>
   11200: 03 b5 0a 03  	ld	a0, 0x30(s5)
   11204: 83 29 45 08  	lw	s3, 0x84(a0)
   11208: 83 b5 8a 01  	ld	a1, 0x18(s5)
   1120c: 13 f5 f9 0f  	andi	a0, s3, 0xff
   11210: ef b0 d0 1d  	jal	ra, 0x1cbec <putc>
   11214: 83 b5 8a 01  	ld	a1, 0x18(s5)
   11218: 13 95 09 03  	slli	a0, s3, 0x30
   1121c: 61 91        	c.srli	a0, 0x38
   1121e: ef b0 f0 1c  	jal	ra, 0x1cbec <putc>
   11222: 83 b5 8a 01  	ld	a1, 0x18(s5)
   11226: 1b 05 e4 ff  	addiw	a0, s0, -0x2
   1122a: 45 8d        	c.or	a0, s1
   1122c: 13 65 05 08  	ori	a0, a0, 0x80
   11230: ef b0 d0 1b  	jal	ra, 0x1cbec <putc>
   11234: 83 b5 8a 01  	ld	a1, 0x18(s5)
   11238: 01 45        	c.li	a0, 0x0
   1123a: ef b0 30 1b  	jal	ra, 0x1cbec <putc>
   1123e: 83 b5 8a 01  	ld	a1, 0x18(s5)
   11242: 01 45        	c.li	a0, 0x0
   11244: ef b0 90 1a  	jal	ra, 0x1cbec <putc>
   11248: 13 05 00 02  	addi	a0, zero, 0x20
   1124c: 9b 09 f4 ff  	addiw	s3, s0, -0x1
   11250: 63 0e a4 08  	beq	s0, a0, 0x112ec <emit_header+0x1ac>
   11254: 1b 8a fb ff  	addiw	s4, s7, -0x1
   11258: 1b 55 fa 01  	srliw	a0, s4, 0x1f
   1125c: 52 95        	c.add	a0, s4
   1125e: 63 43 80 01  	blt	zero, s8, 0x11264 <emit_header+0x124>
   11262: 05 4c        	c.li	s8, 0x1
   11264: 81 44        	c.li	s1, 0x0
   11266: 1b 54 15 40  	sraiw	s0, a0, 0x1
   1126a: 89 4c        	c.li	s9, 0x2
   1126c: 63 dc 74 05  	bge	s1, s7, 0x112c4 <emit_header+0x184>
   11270: 63 0d 09 04  	beq	s2, zero, 0x112ca <emit_header+0x18a>
   11274: 03 b5 0a 03  	ld	a0, 0x30(s5)
   11278: 83 35 09 00  	ld	a1, 0x0(s2)
   1127c: 08 5d        	c.lw	a0, 0x38(a0)
   1127e: a6 95        	c.add	a1, s1
   11280: 83 c5 05 00  	lbu	a1, 0x0(a1)
   11284: 3b d6 65 01  	srlw	a2, a1, s6
   11288: 63 19 95 05  	bne	a0, s9, 0x112da <emit_header+0x19a>
   1128c: 83 b5 8a 01  	ld	a1, 0x18(s5)
   11290: 32 85        	c.mv	a0, a2
   11292: ef b0 b0 15  	jal	ra, 0x1cbec <putc>
   11296: 03 35 89 00  	ld	a0, 0x8(s2)
   1129a: 26 95        	c.add	a0, s1
   1129c: 03 45 05 00  	lbu	a0, 0x0(a0)
   112a0: 83 b5 8a 01  	ld	a1, 0x18(s5)
   112a4: 3b 55 65 01  	srlw	a0, a0, s6
   112a8: ef b0 50 14  	jal	ra, 0x1cbec <putc>
   112ac: 03 35 09 01  	ld	a0, 0x10(s2)
   112b0: 26 95        	c.add	a0, s1
   112b2: 03 45 05 00  	lbu	a0, 0x0(a0)
   112b6: 83 b5 8a 01  	ld	a1, 0x18(s5)
   112ba: 3b 55 65 01  	srlw	a0, a0, s6
   112be: ef b0 f0 12  	jal	ra, 0x1cbec <putc>
   112c2: 05 a0        	c.j	0x112e2 <emit_header+0x1a2>
   112c4: 56 85        	c.mv	a0, s5
   112c6: 81 45        	c.li	a1, 0x0
   112c8: 19 a8        	c.j	0x112de <emit_header+0x19e>
   112ca: 22 85        	c.mv	a0, s0
   112cc: d2 85        	c.mv	a1, s4
   112ce: ef e0 31 00  	jal	ra, 0x2fad0 <__divdi3>
   112d2: 9b 05 05 00  	addiw	a1, a0, 0x0
   112d6: 56 85        	c.mv	a0, s5
   112d8: 19 a0        	c.j	0x112de <emit_header+0x19e>
   112da: 56 85        	c.mv	a0, s5
   112dc: b2 85        	c.mv	a1, a2
   112de: ef 00 60 11  	jal	ra, 0x113f4 <put_3bytes>
   112e2: 85 04        	c.addi	s1, 0x1
   112e4: 1b 04 f4 0f  	addiw	s0, s0, 0xff
   112e8: e3 12 9c f8  	bne	s8, s1, 0x1126c <emit_header+0x12c>
   112ec: 09 45        	c.li	a0, 0x2
   112ee: 63 63 35 01  	bltu	a0, s3, 0x112f4 <emit_header+0x1b4>
   112f2: 89 49        	c.li	s3, 0x2
   112f4: 83 b5 8a 01  	ld	a1, 0x18(s5)
   112f8: 13 05 c0 02  	addi	a0, zero, 0x2c
   112fc: ef b0 10 0f  	jal	ra, 0x1cbec <putc>
   11300: 83 b5 8a 01  	ld	a1, 0x18(s5)
   11304: 01 45        	c.li	a0, 0x0
   11306: ef b0 70 0e  	jal	ra, 0x1cbec <putc>
   1130a: 83 b5 8a 01  	ld	a1, 0x18(s5)
   1130e: 01 45        	c.li	a0, 0x0
   11310: ef b0 d0 0d  	jal	ra, 0x1cbec <putc>
   11314: 83 b5 8a 01  	ld	a1, 0x18(s5)
   11318: 01 45        	c.li	a0, 0x0
   1131a: ef b0 30 0d  	jal	ra, 0x1cbec <putc>
   1131e: 83 b5 8a 01  	ld	a1, 0x18(s5)
   11322: 01 45        	c.li	a0, 0x0
   11324: ef b0 90 0c  	jal	ra, 0x1cbec <putc>
   11328: 03 b5 0a 03  	ld	a0, 0x30(s5)
   1132c: 03 24 05 08  	lw	s0, 0x80(a0)
   11330: 83 b5 8a 01  	ld	a1, 0x18(s5)
   11334: 13 75 f4 0f  	andi	a0, s0, 0xff
   11338: ef b0 50 0b  	jal	ra, 0x1cbec <putc>
   1133c: 83 b5 8a 01  	ld	a1, 0x18(s5)
   11340: 13 15 04 03  	slli	a0, s0, 0x30
   11344: 61 91        	c.srli	a0, 0x38
   11346: ef b0 70 0a  	jal	ra, 0x1cbec <putc>
   1134a: 03 b5 0a 03  	ld	a0, 0x30(s5)
   1134e: 03 24 45 08  	lw	s0, 0x84(a0)
   11352: 83 b5 8a 01  	ld	a1, 0x18(s5)
   11356: 13 75 f4 0f  	andi	a0, s0, 0xff
   1135a: ef b0 30 09  	jal	ra, 0x1cbec <putc>
   1135e: 83 b5 8a 01  	ld	a1, 0x18(s5)
   11362: 13 15 04 03  	slli	a0, s0, 0x30
   11366: 61 91        	c.srli	a0, 0x38
   11368: ef b0 50 08  	jal	ra, 0x1cbec <putc>
   1136c: 83 b5 8a 01  	ld	a1, 0x18(s5)
   11370: 01 45        	c.li	a0, 0x0
   11372: ef b0 b0 07  	jal	ra, 0x1cbec <putc>
   11376: 83 b5 8a 01  	ld	a1, 0x18(s5)
   1137a: 4e 85        	c.mv	a0, s3
   1137c: ef b0 10 07  	jal	ra, 0x1cbec <putc>
   11380: 13 85 19 00  	addi	a0, s3, 0x1
   11384: 23 a0 aa 04  	sw	a0, 0x40(s5)
   11388: 23 ac aa 02  	sw	a0, 0x38(s5)
   1138c: 79 55        	c.li	a0, -0x2
   1138e: 3b 15 35 01  	sllw	a0, a0, s3
   11392: 13 45 f5 ff  	xori	a0, a0, -0x1
   11396: 23 9e aa 02  	sh	a0, 0x3c(s5)
   1139a: 05 45        	c.li	a0, 0x1
   1139c: bb 15 35 01  	sllw	a1, a0, s3
   113a0: 23 9e ba 04  	sh	a1, 0x5c(s5)
   113a4: 13 86 15 00  	addi	a2, a1, 0x1
   113a8: 23 9f ca 04  	sh	a2, 0x5e(s5)
   113ac: 89 05        	c.addi	a1, 0x2
   113ae: 23 90 ba 06  	sh	a1, 0x60(s5)
   113b2: 23 ac aa 04  	sw	a0, 0x58(s5)
   113b6: 03 b5 8a 06  	ld	a0, 0x68(s5)
   113ba: 23 ac 0a 06  	sw	zero, 0x78(s5)
   113be: 23 b4 0a 04  	sd	zero, 0x48(s5)
   113c2: 23 a8 0a 04  	sw	zero, 0x50(s5)
   113c6: 89 65        	c.lui	a1, 0x2
   113c8: 1b 86 65 71  	addiw	a2, a1, 0x716
   113cc: 81 45        	c.li	a1, 0x0
   113ce: ef c0 e0 4c  	jal	ra, 0x1d89c <memset>
   113d2: 83 95 ca 05  	lh	a1, 0x5c(s5)
   113d6: 56 85        	c.mv	a0, s5
   113d8: e6 60        	c.ldsp	ra, 0x58(sp)
   113da: 46 64        	c.ldsp	s0, 0x50(sp)
   113dc: a6 64        	c.ldsp	s1, 0x48(sp)
   113de: 06 69        	c.ldsp	s2, 0x40(sp)
   113e0: e2 79        	c.ldsp	s3, 0x38(sp)
   113e2: 42 7a        	c.ldsp	s4, 0x30(sp)
   113e4: a2 7a        	c.ldsp	s5, 0x28(sp)
   113e6: 02 7b        	c.ldsp	s6, 0x20(sp)
   113e8: e2 6b        	c.ldsp	s7, 0x18(sp)
   113ea: 42 6c        	c.ldsp	s8, 0x10(sp)
   113ec: a2 6c        	c.ldsp	s9, 0x8(sp)
   113ee: 25 61        	c.addi16sp	sp, 0x60
   113f0: 6f 00 20 03  	jal	zero, 0x11422 <output>

00000000000113f4 <put_3bytes>:
   113f4: 01 11        	c.addi	sp, -0x20
   113f6: 06 ec        	c.sdsp	ra, 0x18(sp)
   113f8: 22 e8        	c.sdsp	s0, 0x10(sp)
   113fa: 26 e4        	c.sdsp	s1, 0x8(sp)
   113fc: 2a 84        	c.mv	s0, a0
   113fe: 10 6d        	c.ld	a2, 0x18(a0)
   11400: ae 84        	c.mv	s1, a1
   11402: 2e 85        	c.mv	a0, a1
   11404: b2 85        	c.mv	a1, a2
   11406: ef b0 60 7e  	jal	ra, 0x1cbec <putc>
   1140a: 0c 6c        	c.ld	a1, 0x18(s0)
   1140c: 26 85        	c.mv	a0, s1
   1140e: ef b0 e0 7d  	jal	ra, 0x1cbec <putc>
   11412: 0c 6c        	c.ld	a1, 0x18(s0)
   11414: 26 85        	c.mv	a0, s1
   11416: e2 60        	c.ldsp	ra, 0x18(sp)
   11418: 42 64        	c.ldsp	s0, 0x10(sp)
   1141a: a2 64        	c.ldsp	s1, 0x8(sp)
   1141c: 05 61        	c.addi16sp	sp, 0x20
   1141e: 6f b0 e0 7c  	jal	zero, 0x1cbec <putc>

0000000000011422 <output>:
   11422: ef e2 81 62  	jal	t0, 0x2fa4a <__riscv_save_3>
   11426: 2a 84        	c.mv	s0, a0
   11428: 30 49        	c.lw	a2, 0x50(a0)
   1142a: 28 65        	c.ld	a0, 0x48(a0)
   1142c: 14 5c        	c.lw	a3, 0x38(s0)
   1142e: b3 95 c5 00  	sll	a1, a1, a2
   11432: 4d 8d        	c.or	a0, a1
   11434: 28 e4        	c.sd	a0, 0x48(s0)
   11436: 35 9e        	c.addw	a2, a3
   11438: a1 45        	c.li	a1, 0x8
   1143a: 30 c8        	c.sw	a2, 0x50(s0)
   1143c: 63 4a b6 02  	blt	a2, a1, 0x11470 <output+0x4e>
   11440: 13 09 f0 0f  	addi	s2, zero, 0xff
   11444: bd 44        	c.li	s1, 0xf
   11446: 2c 5c        	c.lw	a1, 0x78(s0)
   11448: 85 25        	c.addiw	a1, 0x1
   1144a: 2c dc        	c.sw	a1, 0x78(s0)
   1144c: a2 95        	c.add	a1, s0
   1144e: 23 8e a5 06  	sb	a0, 0x7c(a1)
   11452: 28 5c        	c.lw	a0, 0x78(s0)
   11454: 63 45 25 01  	blt	a0, s2, 0x1145e <output+0x3c>
   11458: 22 85        	c.mv	a0, s0
   1145a: ef 00 40 04  	jal	ra, 0x1149e <flush_packet>
   1145e: 28 64        	c.ld	a0, 0x48(s0)
   11460: 2c 48        	c.lw	a1, 0x50(s0)
   11462: 21 85        	c.srai	a0, 0x8
   11464: 28 e4        	c.sd	a0, 0x48(s0)
   11466: 13 86 85 ff  	addi	a2, a1, -0x8
   1146a: 30 c8        	c.sw	a2, 0x50(s0)
   1146c: e3 cd b4 fc  	blt	s1, a1, 0x11446 <output+0x24>
   11470: 03 15 04 06  	lh	a0, 0x60(s0)
   11474: 83 15 c4 03  	lh	a1, 0x3c(s0)
   11478: 63 d1 a5 02  	bge	a1, a0, 0x1149a <output+0x78>
   1147c: 08 5c        	c.lw	a0, 0x38(s0)
   1147e: 05 25        	c.addiw	a0, 0x1
   11480: b1 45        	c.li	a1, 0xc
   11482: 08 dc        	c.sw	a0, 0x38(s0)
   11484: 63 14 b5 00  	bne	a0, a1, 0x1148c <output+0x6a>
   11488: 05 65        	c.lui	a0, 0x1
   1148a: 31 a0        	c.j	0x11496 <output+0x74>
   1148c: fd 55        	c.li	a1, -0x1
   1148e: 3b 95 a5 00  	sllw	a0, a1, a0
   11492: 13 45 f5 ff  	xori	a0, a0, -0x1
   11496: 23 1e a4 02  	sh	a0, 0x3c(s0)
   1149a: 6f e0 61 5e  	jal	zero, 0x2fa80 <__riscv_restore_3>

000000000001149e <flush_packet>:
   1149e: ef e2 e1 5b  	jal	t0, 0x2fa5c <__riscv_save_1>
   114a2: 2a 84        	c.mv	s0, a0
   114a4: 28 5d        	c.lw	a0, 0x78(a0)
   114a6: 63 59 a0 02  	bge	zero, a0, 0x114d8 <flush_packet+0x3a>
   114aa: 1b 06 15 00  	addiw	a2, a0, 0x1
   114ae: 14 6c        	c.ld	a3, 0x18(s0)
   114b0: 30 dc        	c.sw	a2, 0x78(s0)
   114b2: 23 0e a4 06  	sb	a0, 0x7c(s0)
   114b6: 13 05 c4 07  	addi	a0, s0, 0x7c
   114ba: 85 45        	c.li	a1, 0x1
   114bc: ef b0 20 5c  	jal	ra, 0x1ca7e <fwrite>
   114c0: 2c 5c        	c.lw	a1, 0x78(s0)
   114c2: 63 09 b5 00  	beq	a0, a1, 0x114d4 <flush_packet+0x36>
   114c6: 08 78        	c.ld	a0, 0x30(s0)
   114c8: 0c 61        	c.ld	a1, 0x0(a0)
   114ca: 90 61        	c.ld	a2, 0x0(a1)
   114cc: 93 06 40 02  	addi	a3, zero, 0x24
   114d0: 94 d5        	c.sw	a3, 0x28(a1)
   114d2: 02 96        	c.jalr	a2
   114d4: 23 2c 04 06  	sw	zero, 0x78(s0)
   114d8: 6f e0 e1 5a  	jal	zero, 0x2fa86 <__riscv_restore_1>

00000000000114dc <jinit_write_targa>:
   114dc: ef e2 e1 56  	jal	t0, 0x2fa4a <__riscv_save_3>
   114e0: 2a 84        	c.mv	s0, a0
   114e2: 08 65        	c.ld	a0, 0x8(a0)
   114e4: 14 61        	c.ld	a3, 0x0(a0)
   114e6: 85 45        	c.li	a1, 0x1
   114e8: 13 06 00 04  	addi	a2, zero, 0x40
   114ec: 05 49        	c.li	s2, 0x1
   114ee: 22 85        	c.mv	a0, s0
   114f0: 82 96        	c.jalr	a3
   114f2: aa 84        	c.mv	s1, a0
   114f4: 37 15 01 00  	lui	a0, 0x11
   114f8: 13 05 85 54  	addi	a0, a0, 0x548
   114fc: 88 e0        	c.sd	a0, 0x0(s1)
   114fe: 37 15 01 00  	lui	a0, 0x11
   11502: 13 05 c5 65  	addi	a0, a0, 0x65c
   11506: 88 e8        	c.sd	a0, 0x10(s1)
   11508: 22 85        	c.mv	a0, s0
   1150a: ef 10 a0 59  	jal	ra, 0x12aa4 <jpeg_calc_output_dimensions>
   1150e: 83 25 04 08  	lw	a1, 0x80(s0)
   11512: 03 25 c4 08  	lw	a0, 0x8c(s0)
   11516: ef e0 a1 57  	jal	ra, 0x2fa90 <__muldi3>
   1151a: 0c 64        	c.ld	a1, 0x8(s0)
   1151c: 94 61        	c.ld	a3, 0x0(a1)
   1151e: 88 dc        	c.sw	a0, 0x38(s1)
   11520: 02 15        	c.slli	a0, 0x20
   11522: 13 56 05 02  	srli	a2, a0, 0x20
   11526: 85 45        	c.li	a1, 0x1
   11528: 22 85        	c.mv	a0, s0
   1152a: 82 96        	c.jalr	a3
   1152c: 0c 64        	c.ld	a1, 0x8(s0)
   1152e: 98 69        	c.ld	a4, 0x10(a1)
   11530: 90 5c        	c.lw	a2, 0x38(s1)
   11532: 88 f8        	c.sd	a0, 0x30(s1)
   11534: 85 45        	c.li	a1, 0x1
   11536: 85 46        	c.li	a3, 0x1
   11538: 22 85        	c.mv	a0, s0
   1153a: 02 97        	c.jalr	a4
   1153c: 88 f0        	c.sd	a0, 0x20(s1)
   1153e: 23 a4 24 03  	sw	s2, 0x28(s1)
   11542: 26 85        	c.mv	a0, s1
   11544: 6f e0 c1 53  	jal	zero, 0x2fa80 <__riscv_restore_3>

0000000000011548 <start_output_tga>:
   11548: 79 71        	c.addi16sp	sp, -0x30
   1154a: 06 f4        	c.sdsp	ra, 0x28(sp)
   1154c: 22 f0        	c.sdsp	s0, 0x20(sp)
   1154e: 26 ec        	c.sdsp	s1, 0x18(sp)
   11550: 4a e8        	c.sdsp	s2, 0x10(sp)
   11552: 4e e4        	c.sdsp	s3, 0x8(sp)
   11554: 52 e0        	c.sdsp	s4, 0x0(sp)
   11556: 2a 8a        	c.mv	s4, a0
   11558: 08 5d        	c.lw	a0, 0x38(a0)
   1155a: 09 46        	c.li	a2, 0x2
   1155c: ae 89        	c.mv	s3, a1
   1155e: 63 02 c5 02  	beq	a0, a2, 0x11582 <start_output_tga+0x3a>
   11562: 85 45        	c.li	a1, 0x1
   11564: 63 1a b5 04  	bne	a0, a1, 0x115b8 <start_output_tga+0x70>
   11568: 52 85        	c.mv	a0, s4
   1156a: ce 85        	c.mv	a1, s3
   1156c: 01 46        	c.li	a2, 0x0
   1156e: ef 00 e0 12  	jal	ra, 0x1169c <write_header>
   11572: 03 25 4a 06  	lw	a0, 0x64(s4)
   11576: 69 c5        	c.beqz	a0, 0x11640 <start_output_tga+0xf8>
   11578: 37 15 01 00  	lui	a0, 0x11
   1157c: 13 05 65 74  	addi	a0, a0, 0x746
   11580: e1 a0        	c.j	0x11648 <start_output_tga+0x100>
   11582: 03 25 4a 06  	lw	a0, 0x64(s4)
   11586: 21 c9        	c.beqz	a0, 0x115d6 <start_output_tga+0x8e>
   11588: 03 29 4a 09  	lw	s2, 0x94(s4)
   1158c: 13 05 10 10  	addi	a0, zero, 0x101
   11590: 63 4d a9 04  	blt	s2, a0, 0x115ea <start_output_tga+0xa2>
   11594: 03 35 0a 00  	ld	a0, 0x0(s4)
   11598: 23 26 25 03  	sw	s2, 0x2c(a0)
   1159c: 83 35 0a 00  	ld	a1, 0x0(s4)
   115a0: 8c 61        	c.ld	a1, 0x0(a1)
   115a2: 13 06 f0 40  	addi	a2, zero, 0x40f
   115a6: 10 d5        	c.sw	a2, 0x28(a0)
   115a8: 52 85        	c.mv	a0, s4
   115aa: 82 95        	c.jalr	a1
   115ac: 52 85        	c.mv	a0, s4
   115ae: ce 85        	c.mv	a1, s3
   115b0: 4a 86        	c.mv	a2, s2
   115b2: ef 00 a0 0e  	jal	ra, 0x1169c <write_header>
   115b6: 89 a0        	c.j	0x115f8 <start_output_tga+0xb0>
   115b8: 03 35 0a 00  	ld	a0, 0x0(s4)
   115bc: 1c 61        	c.ld	a5, 0x0(a0)
   115be: 93 05 a0 40  	addi	a1, zero, 0x40a
   115c2: 0c d5        	c.sw	a1, 0x28(a0)
   115c4: 52 85        	c.mv	a0, s4
   115c6: a2 70        	c.ldsp	ra, 0x28(sp)
   115c8: 02 74        	c.ldsp	s0, 0x20(sp)
   115ca: e2 64        	c.ldsp	s1, 0x18(sp)
   115cc: 42 69        	c.ldsp	s2, 0x10(sp)
   115ce: a2 69        	c.ldsp	s3, 0x8(sp)
   115d0: 02 6a        	c.ldsp	s4, 0x0(sp)
   115d2: 45 61        	c.addi16sp	sp, 0x30
   115d4: 82 87        	c.jr	a5
   115d6: 52 85        	c.mv	a0, s4
   115d8: ce 85        	c.mv	a1, s3
   115da: 01 46        	c.li	a2, 0x0
   115dc: ef 00 00 0c  	jal	ra, 0x1169c <write_header>
   115e0: 37 15 01 00  	lui	a0, 0x11
   115e4: 13 05 85 7c  	addi	a0, a0, 0x7c8
   115e8: 85 a0        	c.j	0x11648 <start_output_tga+0x100>
   115ea: 52 85        	c.mv	a0, s4
   115ec: ce 85        	c.mv	a1, s3
   115ee: 4a 86        	c.mv	a2, s2
   115f0: ef 00 c0 0a  	jal	ra, 0x1169c <write_header>
   115f4: 63 56 20 05  	bge	zero, s2, 0x11640 <start_output_tga+0xf8>
   115f8: 03 b4 89 01  	ld	s0, 0x18(s3)
   115fc: 81 44        	c.li	s1, 0x0
   115fe: 02 19        	c.slli	s2, 0x20
   11600: 13 59 09 02  	srli	s2, s2, 0x20
   11604: 03 35 8a 09  	ld	a0, 0x98(s4)
   11608: 08 69        	c.ld	a0, 0x10(a0)
   1160a: 26 95        	c.add	a0, s1
   1160c: 03 45 05 00  	lbu	a0, 0x0(a0)
   11610: a2 85        	c.mv	a1, s0
   11612: ef b0 a0 5d  	jal	ra, 0x1cbec <putc>
   11616: 03 35 8a 09  	ld	a0, 0x98(s4)
   1161a: 08 65        	c.ld	a0, 0x8(a0)
   1161c: 26 95        	c.add	a0, s1
   1161e: 03 45 05 00  	lbu	a0, 0x0(a0)
   11622: a2 85        	c.mv	a1, s0
   11624: ef b0 80 5c  	jal	ra, 0x1cbec <putc>
   11628: 03 35 8a 09  	ld	a0, 0x98(s4)
   1162c: 08 61        	c.ld	a0, 0x0(a0)
   1162e: 26 95        	c.add	a0, s1
   11630: 03 45 05 00  	lbu	a0, 0x0(a0)
   11634: a2 85        	c.mv	a1, s0
   11636: ef b0 60 5b  	jal	ra, 0x1cbec <putc>
   1163a: 85 04        	c.addi	s1, 0x1
   1163c: e3 14 99 fc  	bne	s2, s1, 0x11604 <start_output_tga+0xbc>
   11640: 37 15 01 00  	lui	a0, 0x11
   11644: 13 05 c5 78  	addi	a0, a0, 0x78c
   11648: 23 b4 a9 00  	sd	a0, 0x8(s3)
   1164c: a2 70        	c.ldsp	ra, 0x28(sp)
   1164e: 02 74        	c.ldsp	s0, 0x20(sp)
   11650: e2 64        	c.ldsp	s1, 0x18(sp)
   11652: 42 69        	c.ldsp	s2, 0x10(sp)
   11654: a2 69        	c.ldsp	s3, 0x8(sp)
   11656: 02 6a        	c.ldsp	s4, 0x0(sp)
   11658: 45 61        	c.addi16sp	sp, 0x30
   1165a: 82 80        	c.jr	ra

000000000001165c <finish_output_tga>:
   1165c: 01 11        	c.addi	sp, -0x20
   1165e: 06 ec        	c.sdsp	ra, 0x18(sp)
   11660: 22 e8        	c.sdsp	s0, 0x10(sp)
   11662: 26 e4        	c.sdsp	s1, 0x8(sp)
   11664: ae 84        	c.mv	s1, a1
   11666: 8c 6d        	c.ld	a1, 0x18(a1)
   11668: 2a 84        	c.mv	s0, a0
   1166a: 2e 85        	c.mv	a0, a1
   1166c: ef a0 f0 50  	jal	ra, 0x1c37a <fflush>
   11670: 88 6c        	c.ld	a0, 0x18(s1)
   11672: 03 45 05 01  	lbu	a0, 0x10(a0)
   11676: 13 75 05 04  	andi	a0, a0, 0x40
   1167a: 11 e5        	c.bnez	a0, 0x11686 <finish_output_tga+0x2a>
   1167c: e2 60        	c.ldsp	ra, 0x18(sp)
   1167e: 42 64        	c.ldsp	s0, 0x10(sp)
   11680: a2 64        	c.ldsp	s1, 0x8(sp)
   11682: 05 61        	c.addi16sp	sp, 0x20
   11684: 82 80        	c.jr	ra
   11686: 08 60        	c.ld	a0, 0x0(s0)
   11688: 1c 61        	c.ld	a5, 0x0(a0)
   1168a: 93 05 40 02  	addi	a1, zero, 0x24
   1168e: 0c d5        	c.sw	a1, 0x28(a0)
   11690: 22 85        	c.mv	a0, s0
   11692: e2 60        	c.ldsp	ra, 0x18(sp)
   11694: 42 64        	c.ldsp	s0, 0x10(sp)
   11696: a2 64        	c.ldsp	s1, 0x8(sp)
   11698: 05 61        	c.addi16sp	sp, 0x20
   1169a: 82 87        	c.jr	a5

000000000001169c <write_header>:
   1169c: 79 71        	c.addi16sp	sp, -0x30
   1169e: 06 f4        	c.sdsp	ra, 0x28(sp)
   116a0: 22 f0        	c.sdsp	s0, 0x20(sp)
   116a2: 26 ec        	c.sdsp	s1, 0x18(sp)
   116a4: 2a 84        	c.mv	s0, a0
   116a6: 23 08 01 00  	sb	zero, 0x10(sp)
   116aa: 02 e4        	c.sdsp	zero, 0x8(sp)
   116ac: 02 e0        	c.sdsp	zero, 0x0(sp)
   116ae: 63 5e c0 00  	bge	zero, a2, 0x116ca <write_header+0x2e>
   116b2: 05 45        	c.li	a0, 0x1
   116b4: a3 00 a1 00  	sb	a0, 0x1(sp)
   116b8: a3 02 c1 00  	sb	a2, 0x5(sp)
   116bc: 13 55 86 00  	srli	a0, a2, 0x8
   116c0: 23 03 a1 00  	sb	a0, 0x6(sp)
   116c4: 61 45        	c.li	a0, 0x18
   116c6: a3 03 a1 00  	sb	a0, 0x7(sp)
   116ca: 03 25 04 08  	lw	a0, 0x80(s0)
   116ce: 83 26 44 08  	lw	a3, 0x84(s0)
   116d2: 23 06 a1 00  	sb	a0, 0xc(sp)
   116d6: 21 81        	c.srli	a0, 0x8
   116d8: a3 06 a1 00  	sb	a0, 0xd(sp)
   116dc: 23 07 d1 00  	sb	a3, 0xe(sp)
   116e0: a1 82        	c.srli	a3, 0x8
   116e2: 08 5c        	c.lw	a0, 0x38(s0)
   116e4: a3 07 d1 00  	sb	a3, 0xf(sp)
   116e8: 93 06 00 02  	addi	a3, zero, 0x20
   116ec: 05 47        	c.li	a4, 0x1
   116ee: a3 08 d1 00  	sb	a3, 0x11(sp)
   116f2: 63 14 e5 00  	bne	a0, a4, 0x116fa <write_header+0x5e>
   116f6: 0d 45        	c.li	a0, 0x3
   116f8: 21 a0        	c.j	0x11700 <write_header+0x64>
   116fa: 63 51 c0 04  	bge	zero, a2, 0x1173c <write_header+0xa0>
   116fe: 05 45        	c.li	a0, 0x1
   11700: 23 01 a1 00  	sb	a0, 0x2(sp)
   11704: 21 45        	c.li	a0, 0x8
   11706: 23 08 a1 00  	sb	a0, 0x10(sp)
   1170a: 94 6d        	c.ld	a3, 0x18(a1)
   1170c: 0a 85        	c.mv	a0, sp
   1170e: 85 45        	c.li	a1, 0x1
   11710: 49 46        	c.li	a2, 0x12
   11712: c9 44        	c.li	s1, 0x12
   11714: ef b0 a0 36  	jal	ra, 0x1ca7e <fwrite>
   11718: 63 17 95 00  	bne	a0, s1, 0x11726 <write_header+0x8a>
   1171c: a2 70        	c.ldsp	ra, 0x28(sp)
   1171e: 02 74        	c.ldsp	s0, 0x20(sp)
   11720: e2 64        	c.ldsp	s1, 0x18(sp)
   11722: 45 61        	c.addi16sp	sp, 0x30
   11724: 82 80        	c.jr	ra
   11726: 08 60        	c.ld	a0, 0x0(s0)
   11728: 1c 61        	c.ld	a5, 0x0(a0)
   1172a: 93 05 40 02  	addi	a1, zero, 0x24
   1172e: 0c d5        	c.sw	a1, 0x28(a0)
   11730: 22 85        	c.mv	a0, s0
   11732: a2 70        	c.ldsp	ra, 0x28(sp)
   11734: 02 74        	c.ldsp	s0, 0x20(sp)
   11736: e2 64        	c.ldsp	s1, 0x18(sp)
   11738: 45 61        	c.addi16sp	sp, 0x30
   1173a: 82 87        	c.jr	a5
   1173c: 09 45        	c.li	a0, 0x2
   1173e: 23 01 a1 00  	sb	a0, 0x2(sp)
   11742: 61 45        	c.li	a0, 0x18
   11744: c9 b7        	c.j	0x11706 <write_header+0x6a>

0000000000011746 <put_demapped_gray>:
   11746: 2a 86        	c.mv	a2, a0
   11748: 03 27 05 08  	lw	a4, 0x80(a0)
   1174c: 88 79        	c.ld	a0, 0x30(a1)
   1174e: 0d cb        	c.beqz	a4, 0x11780 <put_demapped_gray+0x3a>
   11750: 50 6e        	c.ld	a2, 0x98(a2)
   11752: 94 71        	c.ld	a3, 0x20(a1)
   11754: 03 38 06 00  	ld	a6, 0x0(a2)
   11758: 94 62        	c.ld	a3, 0x0(a3)
   1175a: 7d 17        	c.addi	a4, -0x1
   1175c: 02 17        	c.slli	a4, 0x20
   1175e: 01 93        	c.srli	a4, 0x20
   11760: 2a 97        	c.add	a4, a0
   11762: 05 07        	c.addi	a4, 0x1
   11764: 83 c7 06 00  	lbu	a5, 0x0(a3)
   11768: c2 97        	c.add	a5, a6
   1176a: 83 c7 07 00  	lbu	a5, 0x0(a5)
   1176e: 85 06        	c.addi	a3, 0x1
   11770: 13 06 15 00  	addi	a2, a0, 0x1
   11774: 23 00 f5 00  	sb	a5, 0x0(a0)
   11778: 32 85        	c.mv	a0, a2
   1177a: e3 15 e6 fe  	bne	a2, a4, 0x11764 <put_demapped_gray+0x1e>
   1177e: 88 79        	c.ld	a0, 0x30(a1)
   11780: 03 e6 85 03  	lwu	a2, 0x38(a1)
   11784: 94 6d        	c.ld	a3, 0x18(a1)
   11786: 85 45        	c.li	a1, 0x1
   11788: 6f b0 60 2f  	jal	zero, 0x1ca7e <fwrite>

000000000001178c <put_gray_rows>:
   1178c: 83 26 05 08  	lw	a3, 0x80(a0)
   11790: 88 79        	c.ld	a0, 0x30(a1)
   11792: 8d c6        	c.beqz	a3, 0x117bc <put_gray_rows+0x30>
   11794: 90 71        	c.ld	a2, 0x20(a1)
   11796: 10 62        	c.ld	a2, 0x0(a2)
   11798: fd 16        	c.addi	a3, -0x1
   1179a: 82 16        	c.slli	a3, 0x20
   1179c: 81 92        	c.srli	a3, 0x20
   1179e: b2 96        	c.add	a3, a2
   117a0: 85 06        	c.addi	a3, 0x1
   117a2: 03 47 06 00  	lbu	a4, 0x0(a2)
   117a6: 93 07 16 00  	addi	a5, a2, 0x1
   117aa: 13 06 15 00  	addi	a2, a0, 0x1
   117ae: 23 00 e5 00  	sb	a4, 0x0(a0)
   117b2: 32 85        	c.mv	a0, a2
   117b4: 3e 86        	c.mv	a2, a5
   117b6: e3 96 d7 fe  	bne	a5, a3, 0x117a2 <put_gray_rows+0x16>
   117ba: 88 79        	c.ld	a0, 0x30(a1)
   117bc: 03 e6 85 03  	lwu	a2, 0x38(a1)
   117c0: 94 6d        	c.ld	a3, 0x18(a1)
   117c2: 85 45        	c.li	a1, 0x1
   117c4: 6f b0 a0 2b  	jal	zero, 0x1ca7e <fwrite>

00000000000117c8 <put_pixel_rows>:
   117c8: 83 26 05 08  	lw	a3, 0x80(a0)
   117cc: 88 79        	c.ld	a0, 0x30(a1)
   117ce: 8d ce        	c.beqz	a3, 0x11808 <put_pixel_rows+0x40>
   117d0: 90 71        	c.ld	a2, 0x20(a1)
   117d2: 10 62        	c.ld	a2, 0x0(a2)
   117d4: 09 06        	c.addi	a2, 0x2
   117d6: fd 16        	c.addi	a3, -0x1
   117d8: 82 16        	c.slli	a3, 0x20
   117da: 13 d7 06 02  	srli	a4, a3, 0x20
   117de: fd 82        	c.srli	a3, 0x1f
   117e0: ba 96        	c.add	a3, a4
   117e2: aa 96        	c.add	a3, a0
   117e4: 8d 06        	c.addi	a3, 0x3
   117e6: 03 47 06 00  	lbu	a4, 0x0(a2)
   117ea: 23 00 e5 00  	sb	a4, 0x0(a0)
   117ee: 03 47 f6 ff  	lbu	a4, -0x1(a2)
   117f2: a3 00 e5 00  	sb	a4, 0x1(a0)
   117f6: 03 47 e6 ff  	lbu	a4, -0x2(a2)
   117fa: 23 01 e5 00  	sb	a4, 0x2(a0)
   117fe: 0d 05        	c.addi	a0, 0x3
   11800: 0d 06        	c.addi	a2, 0x3
   11802: e3 12 d5 fe  	bne	a0, a3, 0x117e6 <put_pixel_rows+0x1e>
   11806: 88 79        	c.ld	a0, 0x30(a1)
   11808: 03 e6 85 03  	lwu	a2, 0x38(a1)
   1180c: 94 6d        	c.ld	a3, 0x18(a1)
   1180e: 85 45        	c.li	a1, 0x1
   11810: 6f b0 e0 26  	jal	zero, 0x1ca7e <fwrite>

0000000000011814 <jinit_write_bmp>:
   11814: ef e2 c1 22  	jal	t0, 0x2fa40 <__riscv_save_5>
   11818: 2a 84        	c.mv	s0, a0
   1181a: 08 65        	c.ld	a0, 0x8(a0)
   1181c: 14 61        	c.ld	a3, 0x0(a0)
   1181e: 2e 89        	c.mv	s2, a1
   11820: 85 45        	c.li	a1, 0x1
   11822: 13 06 00 05  	addi	a2, zero, 0x50
   11826: 85 49        	c.li	s3, 0x1
   11828: 22 85        	c.mv	a0, s0
   1182a: 82 96        	c.jalr	a3
   1182c: aa 84        	c.mv	s1, a0
   1182e: 37 25 01 00  	lui	a0, 0x12
   11832: 13 05 05 8e  	addi	a0, a0, -0x720
   11836: 88 e0        	c.sd	a0, 0x0(s1)
   11838: b7 25 01 00  	lui	a1, 0x12
   1183c: 08 5c        	c.lw	a0, 0x38(s0)
   1183e: 93 85 25 8e  	addi	a1, a1, -0x71e
   11842: 8c e8        	c.sd	a1, 0x10(s1)
   11844: 89 45        	c.li	a1, 0x2
   11846: 23 a8 24 03  	sw	s2, 0x30(s1)
   1184a: 63 0c b5 00  	beq	a0, a1, 0x11862 <jinit_write_bmp+0x4e>
   1184e: 63 0c 35 01  	beq	a0, s3, 0x11866 <jinit_write_bmp+0x52>
   11852: 08 60        	c.ld	a0, 0x0(s0)
   11854: 0c 61        	c.ld	a1, 0x0(a0)
   11856: 13 06 d0 3e  	addi	a2, zero, 0x3ed
   1185a: 10 d5        	c.sw	a2, 0x28(a0)
   1185c: 22 85        	c.mv	a0, s0
   1185e: 82 95        	c.jalr	a1
   11860: 01 a8        	c.j	0x11870 <jinit_write_bmp+0x5c>
   11862: 68 50        	c.lw	a0, 0x64(s0)
   11864: 2d c9        	c.beqz	a0, 0x118d6 <jinit_write_bmp+0xc2>
   11866: 37 25 01 00  	lui	a0, 0x12
   1186a: 13 05 65 c9  	addi	a0, a0, -0x36a
   1186e: 88 e4        	c.sd	a0, 0x8(s1)
   11870: 22 85        	c.mv	a0, s0
   11872: ef 10 20 23  	jal	ra, 0x12aa4 <jpeg_calc_output_dimensions>
   11876: 83 25 04 08  	lw	a1, 0x80(s0)
   1187a: 03 25 c4 08  	lw	a0, 0x8c(s0)
   1187e: ef e0 21 21  	jal	ra, 0x2fa90 <__muldi3>
   11882: 0c 64        	c.ld	a1, 0x8(s0)
   11884: a8 c0        	c.sw	a0, 0x40(s1)
   11886: 3b 06 a0 40  	subw	a2, zero, a0
   1188a: 0d 8a        	c.andi	a2, 0x3
   1188c: 03 b8 05 02  	ld	a6, 0x20(a1)
   11890: 03 27 44 08  	lw	a4, 0x84(s0)
   11894: 3b 09 c5 00  	addw	s2, a0, a2
   11898: b0 c4        	c.sw	a2, 0x48(s1)
   1189a: 23 a2 24 05  	sw	s2, 0x44(s1)
   1189e: 85 45        	c.li	a1, 0x1
   118a0: 85 47        	c.li	a5, 0x1
   118a2: 85 49        	c.li	s3, 0x1
   118a4: 22 85        	c.mv	a0, s0
   118a6: 01 46        	c.li	a2, 0x0
   118a8: ca 86        	c.mv	a3, s2
   118aa: 02 98        	c.jalr	a6
   118ac: 0c 68        	c.ld	a1, 0x10(s0)
   118ae: 88 fc        	c.sd	a0, 0x38(s1)
   118b0: 23 a6 04 04  	sw	zero, 0x4c(s1)
   118b4: 81 c5        	c.beqz	a1, 0x118bc <jinit_write_bmp+0xa8>
   118b6: c8 51        	c.lw	a0, 0x24(a1)
   118b8: 05 05        	c.addi	a0, 0x1
   118ba: c8 d1        	c.sw	a0, 0x24(a1)
   118bc: 08 64        	c.ld	a0, 0x8(s0)
   118be: 18 69        	c.ld	a4, 0x10(a0)
   118c0: 85 45        	c.li	a1, 0x1
   118c2: 85 46        	c.li	a3, 0x1
   118c4: 22 85        	c.mv	a0, s0
   118c6: 4a 86        	c.mv	a2, s2
   118c8: 02 97        	c.jalr	a4
   118ca: 88 f0        	c.sd	a0, 0x20(s1)
   118cc: 23 a4 34 03  	sw	s3, 0x28(s1)
   118d0: 26 85        	c.mv	a0, s1
   118d2: 6f e0 81 1a  	jal	zero, 0x2fa7a <__riscv_restore_5>
   118d6: 37 25 01 00  	lui	a0, 0x12
   118da: 13 05 85 d0  	addi	a0, a0, -0x2f8
   118de: 41 bf        	c.j	0x1186e <jinit_write_bmp+0x5a>

00000000000118e0 <start_output_bmp>:
   118e0: 82 80        	c.jr	ra

00000000000118e2 <finish_output_bmp>:
   118e2: 35 71        	c.addi16sp	sp, -0xa0
   118e4: 06 ed        	c.sdsp	ra, 0x98(sp)
   118e6: 22 e9        	c.sdsp	s0, 0x90(sp)
   118e8: 26 e5        	c.sdsp	s1, 0x88(sp)
   118ea: 4a e1        	c.sdsp	s2, 0x80(sp)
   118ec: ce fc        	c.sdsp	s3, 0x78(sp)
   118ee: d2 f8        	c.sdsp	s4, 0x70(sp)
   118f0: d6 f4        	c.sdsp	s5, 0x68(sp)
   118f2: da f0        	c.sdsp	s6, 0x60(sp)
   118f4: de ec        	c.sdsp	s7, 0x58(sp)
   118f6: e2 e8        	c.sdsp	s8, 0x50(sp)
   118f8: e6 e4        	c.sdsp	s9, 0x48(sp)
   118fa: ea e0        	c.sdsp	s10, 0x40(sp)
   118fc: 2e 89        	c.mv	s2, a1
   118fe: 2a 8a        	c.mv	s4, a0
   11900: 03 bd 85 01  	ld	s10, 0x18(a1)
   11904: 88 59        	c.lw	a0, 0x30(a1)
   11906: 83 3a 0a 01  	ld	s5, 0x10(s4)
   1190a: 0d c1        	c.beqz	a0, 0x1192c <finish_output_bmp+0x4a>
   1190c: 03 25 8a 03  	lw	a0, 0x38(s4)
   11910: 89 45        	c.li	a1, 0x2
   11912: 85 4b        	c.li	s7, 0x1
   11914: 63 1c b5 02  	bne	a0, a1, 0x1194c <finish_output_bmp+0x6a>
   11918: 03 25 4a 06  	lw	a0, 0x64(s4)
   1191c: 33 3b a0 00  	sltu	s6, zero, a0
   11920: 21 4c        	c.li	s8, 0x8
   11922: 11 e1        	c.bnez	a0, 0x11926 <finish_output_bmp+0x44>
   11924: 61 4c        	c.li	s8, 0x18
   11926: 93 19 8b 00  	slli	s3, s6, 0x8
   1192a: 2d a0        	c.j	0x11954 <finish_output_bmp+0x72>
   1192c: 03 25 8a 03  	lw	a0, 0x38(s4)
   11930: 89 4b        	c.li	s7, 0x2
   11932: 05 4c        	c.li	s8, 0x1
   11934: 63 1b 75 11  	bne	a0, s7, 0x11a4a <finish_output_bmp+0x168>
   11938: 03 25 4a 06  	lw	a0, 0x64(s4)
   1193c: 33 3b a0 00  	sltu	s6, zero, a0
   11940: a1 4c        	c.li	s9, 0x8
   11942: 11 e1        	c.bnez	a0, 0x11946 <finish_output_bmp+0x64>
   11944: e1 4c        	c.li	s9, 0x18
   11946: 93 19 8b 00  	slli	s3, s6, 0x8
   1194a: 21 a2        	c.j	0x11a52 <finish_output_bmp+0x170>
   1194c: 93 09 00 10  	addi	s3, zero, 0x100
   11950: 21 4c        	c.li	s8, 0x8
   11952: 05 4b        	c.li	s6, 0x1
   11954: 83 65 49 04  	lwu	a1, 0x44(s2)
   11958: 03 64 4a 08  	lwu	s0, 0x84(s4)
   1195c: 13 95 19 00  	slli	a0, s3, 0x1
   11960: b3 0c 35 01  	add	s9, a0, s3
   11964: 93 e4 ac 01  	ori	s1, s9, 0x1a
   11968: 22 85        	c.mv	a0, s0
   1196a: ef e0 61 12  	jal	ra, 0x2fa90 <__muldi3>
   1196e: 26 95        	c.add	a0, s1
   11970: a3 09 01 00  	sb	zero, 0x13(sp)
   11974: 23 09 01 00  	sb	zero, 0x12(sp)
   11978: a3 08 01 00  	sb	zero, 0x11(sp)
   1197c: 23 08 01 00  	sb	zero, 0x10(sp)
   11980: a3 0a 01 02  	sb	zero, 0x35(sp)
   11984: 23 0a 01 02  	sb	zero, 0x34(sp)
   11988: 93 05 20 04  	addi	a1, zero, 0x42
   1198c: 23 05 b1 00  	sb	a1, 0xa(sp)
   11990: 93 05 d0 04  	addi	a1, zero, 0x4d
   11994: a3 05 b1 00  	sb	a1, 0xb(sp)
   11998: 23 06 a1 00  	sb	a0, 0xc(sp)
   1199c: 93 55 85 00  	srli	a1, a0, 0x8
   119a0: a3 06 b1 00  	sb	a1, 0xd(sp)
   119a4: 93 55 05 01  	srli	a1, a0, 0x10
   119a8: 23 07 b1 00  	sb	a1, 0xe(sp)
   119ac: 61 81        	c.srli	a0, 0x18
   119ae: a3 07 a1 00  	sb	a0, 0xf(sp)
   119b2: 69 45        	c.li	a0, 0x1a
   119b4: 23 0a a1 00  	sb	a0, 0x14(sp)
   119b8: 13 d5 8c 00  	srli	a0, s9, 0x8
   119bc: a3 0a a1 00  	sb	a0, 0x15(sp)
   119c0: 23 0b 01 00  	sb	zero, 0x16(sp)
   119c4: a3 0b 01 00  	sb	zero, 0x17(sp)
   119c8: 03 25 0a 08  	lw	a0, 0x80(s4)
   119cc: b1 4c        	c.li	s9, 0xc
   119ce: 23 09 91 03  	sb	s9, 0x32(sp)
   119d2: a3 09 01 02  	sb	zero, 0x33(sp)
   119d6: 23 0b a1 02  	sb	a0, 0x36(sp)
   119da: 21 81        	c.srli	a0, 0x8
   119dc: a3 0b a1 02  	sb	a0, 0x37(sp)
   119e0: 23 0c 81 02  	sb	s0, 0x38(sp)
   119e4: 21 80        	c.srli	s0, 0x8
   119e6: a3 0c 81 02  	sb	s0, 0x39(sp)
   119ea: 23 0d 71 03  	sb	s7, 0x3a(sp)
   119ee: a3 0d 01 02  	sb	zero, 0x3b(sp)
   119f2: 23 0e 81 03  	sb	s8, 0x3c(sp)
   119f6: a3 0e 01 02  	sb	zero, 0x3d(sp)
   119fa: 13 05 a1 00  	addi	a0, sp, 0xa
   119fe: 85 45        	c.li	a1, 0x1
   11a00: 39 46        	c.li	a2, 0xe
   11a02: 39 44        	c.li	s0, 0xe
   11a04: ea 86        	c.mv	a3, s10
   11a06: ef b0 80 07  	jal	ra, 0x1ca7e <fwrite>
   11a0a: 63 0a 85 00  	beq	a0, s0, 0x11a1e <finish_output_bmp+0x13c>
   11a0e: 03 35 0a 00  	ld	a0, 0x0(s4)
   11a12: 0c 61        	c.ld	a1, 0x0(a0)
   11a14: 13 06 40 02  	addi	a2, zero, 0x24
   11a18: 10 d5        	c.sw	a2, 0x28(a0)
   11a1a: 52 85        	c.mv	a0, s4
   11a1c: 82 95        	c.jalr	a1
   11a1e: 83 36 89 01  	ld	a3, 0x18(s2)
   11a22: 13 05 21 03  	addi	a0, sp, 0x32
   11a26: 85 45        	c.li	a1, 0x1
   11a28: 31 46        	c.li	a2, 0xc
   11a2a: ef b0 40 05  	jal	ra, 0x1ca7e <fwrite>
   11a2e: 63 0a 95 01  	beq	a0, s9, 0x11a42 <finish_output_bmp+0x160>
   11a32: 03 35 0a 00  	ld	a0, 0x0(s4)
   11a36: 0c 61        	c.ld	a1, 0x0(a0)
   11a38: 13 06 40 02  	addi	a2, zero, 0x24
   11a3c: 10 d5        	c.sw	a2, 0x28(a0)
   11a3e: 52 85        	c.mv	a0, s4
   11a40: 82 95        	c.jalr	a1
   11a42: 63 05 0b 18  	beq	s6, zero, 0x11bcc <finish_output_bmp+0x2ea>
   11a46: 8d 46        	c.li	a3, 0x3
   11a48: ad aa        	c.j	0x11bc2 <finish_output_bmp+0x2e0>
   11a4a: 93 09 00 10  	addi	s3, zero, 0x100
   11a4e: a1 4c        	c.li	s9, 0x8
   11a50: 05 4b        	c.li	s6, 0x1
   11a52: 83 65 49 04  	lwu	a1, 0x44(s2)
   11a56: 03 64 4a 08  	lwu	s0, 0x84(s4)
   11a5a: 13 95 29 00  	slli	a0, s3, 0x2
   11a5e: 93 64 65 03  	ori	s1, a0, 0x36
   11a62: 22 85        	c.mv	a0, s0
   11a64: ef e0 c1 02  	jal	ra, 0x2fa90 <__muldi3>
   11a68: aa 94        	c.add	s1, a0
   11a6a: a3 0d 01 02  	sb	zero, 0x3b(sp)
   11a6e: 23 0d 01 02  	sb	zero, 0x3a(sp)
   11a72: a3 0c 01 02  	sb	zero, 0x39(sp)
   11a76: 23 0c 01 02  	sb	zero, 0x38(sp)
   11a7a: 68 00        	c.addi4spn	a0, sp, 0xc
   11a7c: 13 06 60 02  	addi	a2, zero, 0x26
   11a80: 81 45        	c.li	a1, 0x0
   11a82: ef b0 b0 61  	jal	ra, 0x1d89c <memset>
   11a86: 13 05 20 04  	addi	a0, zero, 0x42
   11a8a: 23 09 a1 02  	sb	a0, 0x32(sp)
   11a8e: 13 05 d0 04  	addi	a0, zero, 0x4d
   11a92: a3 09 a1 02  	sb	a0, 0x33(sp)
   11a96: 23 0a 91 02  	sb	s1, 0x34(sp)
   11a9a: 13 d5 84 00  	srli	a0, s1, 0x8
   11a9e: a3 0a a1 02  	sb	a0, 0x35(sp)
   11aa2: 13 d5 04 01  	srli	a0, s1, 0x10
   11aa6: 23 0b a1 02  	sb	a0, 0x36(sp)
   11aaa: e1 80        	c.srli	s1, 0x18
   11aac: a3 0b 91 02  	sb	s1, 0x37(sp)
   11ab0: 13 05 60 03  	addi	a0, zero, 0x36
   11ab4: 23 0e a1 02  	sb	a0, 0x3c(sp)
   11ab8: 13 d5 69 00  	srli	a0, s3, 0x6
   11abc: a3 0e a1 02  	sb	a0, 0x3d(sp)
   11ac0: 23 0f 01 02  	sb	zero, 0x3e(sp)
   11ac4: a3 0f 01 02  	sb	zero, 0x3f(sp)
   11ac8: 03 25 0a 08  	lw	a0, 0x80(s4)
   11acc: 93 05 80 02  	addi	a1, zero, 0x28
   11ad0: 23 05 b1 00  	sb	a1, 0xa(sp)
   11ad4: a3 05 01 00  	sb	zero, 0xb(sp)
   11ad8: 23 07 a1 00  	sb	a0, 0xe(sp)
   11adc: 93 55 85 00  	srli	a1, a0, 0x8
   11ae0: a3 07 b1 00  	sb	a1, 0xf(sp)
   11ae4: 93 55 05 01  	srli	a1, a0, 0x10
   11ae8: 23 08 b1 00  	sb	a1, 0x10(sp)
   11aec: 61 81        	c.srli	a0, 0x18
   11aee: a3 08 a1 00  	sb	a0, 0x11(sp)
   11af2: 23 09 81 00  	sb	s0, 0x12(sp)
   11af6: 13 55 84 00  	srli	a0, s0, 0x8
   11afa: a3 09 a1 00  	sb	a0, 0x13(sp)
   11afe: 13 55 04 01  	srli	a0, s0, 0x10
   11b02: 23 0a a1 00  	sb	a0, 0x14(sp)
   11b06: 03 45 0a 17  	lbu	a0, 0x170(s4)
   11b0a: 61 80        	c.srli	s0, 0x18
   11b0c: a3 0a 81 00  	sb	s0, 0x15(sp)
   11b10: 23 0b 81 01  	sb	s8, 0x16(sp)
   11b14: 23 0c 91 01  	sb	s9, 0x18(sp)
   11b18: 63 15 75 05  	bne	a0, s7, 0x11b62 <finish_output_bmp+0x280>
   11b1c: 03 55 2a 17  	lhu	a0, 0x172(s4)
   11b20: 93 05 40 06  	addi	a1, zero, 0x64
   11b24: ef d0 d1 76  	jal	ra, 0x2fa90 <__muldi3>
   11b28: 23 01 a1 02  	sb	a0, 0x22(sp)
   11b2c: 93 55 85 00  	srli	a1, a0, 0x8
   11b30: a3 01 b1 02  	sb	a1, 0x23(sp)
   11b34: 03 56 4a 17  	lhu	a2, 0x174(s4)
   11b38: 41 81        	c.srli	a0, 0x10
   11b3a: 23 02 a1 02  	sb	a0, 0x24(sp)
   11b3e: a3 02 01 02  	sb	zero, 0x25(sp)
   11b42: 93 05 40 06  	addi	a1, zero, 0x64
   11b46: 32 85        	c.mv	a0, a2
   11b48: ef d0 91 74  	jal	ra, 0x2fa90 <__muldi3>
   11b4c: 23 03 a1 02  	sb	a0, 0x26(sp)
   11b50: 93 55 85 00  	srli	a1, a0, 0x8
   11b54: a3 03 b1 02  	sb	a1, 0x27(sp)
   11b58: 41 81        	c.srli	a0, 0x10
   11b5a: 23 04 a1 02  	sb	a0, 0x28(sp)
   11b5e: a3 04 01 02  	sb	zero, 0x29(sp)
   11b62: 23 05 01 02  	sb	zero, 0x2a(sp)
   11b66: 13 d5 89 00  	srli	a0, s3, 0x8
   11b6a: a3 05 a1 02  	sb	a0, 0x2b(sp)
   11b6e: 13 05 21 03  	addi	a0, sp, 0x32
   11b72: 85 45        	c.li	a1, 0x1
   11b74: 39 46        	c.li	a2, 0xe
   11b76: 39 44        	c.li	s0, 0xe
   11b78: ea 86        	c.mv	a3, s10
   11b7a: ef a0 50 70  	jal	ra, 0x1ca7e <fwrite>
   11b7e: 63 0a 85 00  	beq	a0, s0, 0x11b92 <finish_output_bmp+0x2b0>
   11b82: 03 35 0a 00  	ld	a0, 0x0(s4)
   11b86: 0c 61        	c.ld	a1, 0x0(a0)
   11b88: 13 06 40 02  	addi	a2, zero, 0x24
   11b8c: 10 d5        	c.sw	a2, 0x28(a0)
   11b8e: 52 85        	c.mv	a0, s4
   11b90: 82 95        	c.jalr	a1
   11b92: 83 36 89 01  	ld	a3, 0x18(s2)
   11b96: 13 05 a1 00  	addi	a0, sp, 0xa
   11b9a: 85 45        	c.li	a1, 0x1
   11b9c: 13 06 80 02  	addi	a2, zero, 0x28
   11ba0: 13 04 80 02  	addi	s0, zero, 0x28
   11ba4: ef a0 b0 6d  	jal	ra, 0x1ca7e <fwrite>
   11ba8: 63 0a 85 00  	beq	a0, s0, 0x11bbc <finish_output_bmp+0x2da>
   11bac: 03 35 0a 00  	ld	a0, 0x0(s4)
   11bb0: 0c 61        	c.ld	a1, 0x0(a0)
   11bb2: 13 06 40 02  	addi	a2, zero, 0x24
   11bb6: 10 d5        	c.sw	a2, 0x28(a0)
   11bb8: 52 85        	c.mv	a0, s4
   11bba: 82 95        	c.jalr	a1
   11bbc: 63 08 0b 00  	beq	s6, zero, 0x11bcc <finish_output_bmp+0x2ea>
   11bc0: 91 46        	c.li	a3, 0x4
   11bc2: 52 85        	c.mv	a0, s4
   11bc4: ca 85        	c.mv	a1, s2
   11bc6: 4e 86        	c.mv	a2, s3
   11bc8: ef 00 00 1c  	jal	ra, 0x11d88 <write_colormap>
   11bcc: 83 29 4a 08  	lw	s3, 0x84(s4)
   11bd0: 63 81 09 06  	beq	s3, zero, 0x11c32 <finish_output_bmp+0x350>
   11bd4: 63 80 0a 02  	beq	s5, zero, 0x11bf4 <finish_output_bmp+0x312>
   11bd8: 03 65 4a 08  	lwu	a0, 0x84(s4)
   11bdc: bb 05 35 41  	subw	a1, a0, s3
   11be0: 82 15        	c.slli	a1, 0x20
   11be2: 03 b6 0a 00  	ld	a2, 0x0(s5)
   11be6: 81 91        	c.srli	a1, 0x20
   11be8: 23 b4 ba 00  	sd	a1, 0x8(s5)
   11bec: 23 b8 aa 00  	sd	a0, 0x10(s5)
   11bf0: 52 85        	c.mv	a0, s4
   11bf2: 02 96        	c.jalr	a2
   11bf4: 03 35 8a 00  	ld	a0, 0x8(s4)
   11bf8: 1c 7d        	c.ld	a5, 0x38(a0)
   11bfa: 83 35 89 03  	ld	a1, 0x38(s2)
   11bfe: fd 39        	c.addiw	s3, -0x1
   11c00: 85 46        	c.li	a3, 0x1
   11c02: 52 85        	c.mv	a0, s4
   11c04: 4e 86        	c.mv	a2, s3
   11c06: 01 47        	c.li	a4, 0x0
   11c08: 82 97        	c.jalr	a5
   11c0a: 83 25 49 04  	lw	a1, 0x44(s2)
   11c0e: 85 c1        	c.beqz	a1, 0x11c2e <finish_output_bmp+0x34c>
   11c10: 04 61        	c.ld	s1, 0x0(a0)
   11c12: fd 15        	c.addi	a1, -0x1
   11c14: 82 15        	c.slli	a1, 0x20
   11c16: 81 91        	c.srli	a1, 0x20
   11c18: a6 95        	c.add	a1, s1
   11c1a: 13 84 15 00  	addi	s0, a1, 0x1
   11c1e: 03 c5 04 00  	lbu	a0, 0x0(s1)
   11c22: ea 85        	c.mv	a1, s10
   11c24: ef a0 90 7c  	jal	ra, 0x1cbec <putc>
   11c28: 85 04        	c.addi	s1, 0x1
   11c2a: e3 9a 84 fe  	bne	s1, s0, 0x11c1e <finish_output_bmp+0x33c>
   11c2e: e3 93 09 fa  	bne	s3, zero, 0x11bd4 <finish_output_bmp+0x2f2>
   11c32: 63 87 0a 00  	beq	s5, zero, 0x11c40 <finish_output_bmp+0x35e>
   11c36: 03 a5 0a 02  	lw	a0, 0x20(s5)
   11c3a: 05 05        	c.addi	a0, 0x1
   11c3c: 23 a0 aa 02  	sw	a0, 0x20(s5)
   11c40: 6a 85        	c.mv	a0, s10
   11c42: ef a0 80 73  	jal	ra, 0x1c37a <fflush>
   11c46: 03 45 0d 01  	lbu	a0, 0x10(s10)
   11c4a: 13 75 05 04  	andi	a0, a0, 0x40
   11c4e: 19 ed        	c.bnez	a0, 0x11c6c <finish_output_bmp+0x38a>
   11c50: ea 60        	c.ldsp	ra, 0x98(sp)
   11c52: 4a 64        	c.ldsp	s0, 0x90(sp)
   11c54: aa 64        	c.ldsp	s1, 0x88(sp)
   11c56: 0a 69        	c.ldsp	s2, 0x80(sp)
   11c58: e6 79        	c.ldsp	s3, 0x78(sp)
   11c5a: 46 7a        	c.ldsp	s4, 0x70(sp)
   11c5c: a6 7a        	c.ldsp	s5, 0x68(sp)
   11c5e: 06 7b        	c.ldsp	s6, 0x60(sp)
   11c60: e6 6b        	c.ldsp	s7, 0x58(sp)
   11c62: 46 6c        	c.ldsp	s8, 0x50(sp)
   11c64: a6 6c        	c.ldsp	s9, 0x48(sp)
   11c66: 06 6d        	c.ldsp	s10, 0x40(sp)
   11c68: 0d 61        	c.addi16sp	sp, 0xa0
   11c6a: 82 80        	c.jr	ra
   11c6c: 03 35 0a 00  	ld	a0, 0x0(s4)
   11c70: 1c 61        	c.ld	a5, 0x0(a0)
   11c72: 93 05 40 02  	addi	a1, zero, 0x24
   11c76: 0c d5        	c.sw	a1, 0x28(a0)
   11c78: 52 85        	c.mv	a0, s4
   11c7a: ea 60        	c.ldsp	ra, 0x98(sp)
   11c7c: 4a 64        	c.ldsp	s0, 0x90(sp)
   11c7e: aa 64        	c.ldsp	s1, 0x88(sp)
   11c80: 0a 69        	c.ldsp	s2, 0x80(sp)
   11c82: e6 79        	c.ldsp	s3, 0x78(sp)
   11c84: 46 7a        	c.ldsp	s4, 0x70(sp)
   11c86: a6 7a        	c.ldsp	s5, 0x68(sp)
   11c88: 06 7b        	c.ldsp	s6, 0x60(sp)
   11c8a: e6 6b        	c.ldsp	s7, 0x58(sp)
   11c8c: 46 6c        	c.ldsp	s8, 0x50(sp)
   11c8e: a6 6c        	c.ldsp	s9, 0x48(sp)
   11c90: 06 6d        	c.ldsp	s10, 0x40(sp)
   11c92: 0d 61        	c.addi16sp	sp, 0xa0
   11c94: 82 87        	c.jr	a5

0000000000011c96 <put_gray_rows>:
   11c96: 01 11        	c.addi	sp, -0x20
   11c98: 06 ec        	c.sdsp	ra, 0x18(sp)
   11c9a: 22 e8        	c.sdsp	s0, 0x10(sp)
   11c9c: 26 e4        	c.sdsp	s1, 0x8(sp)
   11c9e: aa 84        	c.mv	s1, a0
   11ca0: 08 65        	c.ld	a0, 0x8(a0)
   11ca2: 2e 84        	c.mv	s0, a1
   11ca4: 1c 7d        	c.ld	a5, 0x38(a0)
   11ca6: 8c 7d        	c.ld	a1, 0x38(a1)
   11ca8: 70 44        	c.lw	a2, 0x4c(s0)
   11caa: 85 46        	c.li	a3, 0x1
   11cac: 05 47        	c.li	a4, 0x1
   11cae: 26 85        	c.mv	a0, s1
   11cb0: 82 97        	c.jalr	a5
   11cb2: 70 44        	c.lw	a2, 0x4c(s0)
   11cb4: 83 a6 04 08  	lw	a3, 0x80(s1)
   11cb8: 0c 61        	c.ld	a1, 0x0(a0)
   11cba: 05 06        	c.addi	a2, 0x1
   11cbc: 70 c4        	c.sw	a2, 0x4c(s0)
   11cbe: 8d c6        	c.beqz	a3, 0x11ce8 <put_gray_rows+0x52>
   11cc0: 08 70        	c.ld	a0, 0x20(s0)
   11cc2: 10 61        	c.ld	a2, 0x0(a0)
   11cc4: fd 16        	c.addi	a3, -0x1
   11cc6: 82 16        	c.slli	a3, 0x20
   11cc8: 81 92        	c.srli	a3, 0x20
   11cca: b2 96        	c.add	a3, a2
   11ccc: 85 06        	c.addi	a3, 0x1
   11cce: 03 47 06 00  	lbu	a4, 0x0(a2)
   11cd2: 93 07 16 00  	addi	a5, a2, 0x1
   11cd6: 13 85 15 00  	addi	a0, a1, 0x1
   11cda: 23 80 e5 00  	sb	a4, 0x0(a1)
   11cde: aa 85        	c.mv	a1, a0
   11ce0: 3e 86        	c.mv	a2, a5
   11ce2: e3 96 d7 fe  	bne	a5, a3, 0x11cce <put_gray_rows+0x38>
   11ce6: 11 a0        	c.j	0x11cea <put_gray_rows+0x54>
   11ce8: 2e 85        	c.mv	a0, a1
   11cea: 30 44        	c.lw	a2, 0x48(s0)
   11cec: 63 59 c0 00  	bge	zero, a2, 0x11cfe <put_gray_rows+0x68>
   11cf0: 81 45        	c.li	a1, 0x0
   11cf2: e2 60        	c.ldsp	ra, 0x18(sp)
   11cf4: 42 64        	c.ldsp	s0, 0x10(sp)
   11cf6: a2 64        	c.ldsp	s1, 0x8(sp)
   11cf8: 05 61        	c.addi16sp	sp, 0x20
   11cfa: 6f b0 30 3a  	jal	zero, 0x1d89c <memset>
   11cfe: e2 60        	c.ldsp	ra, 0x18(sp)
   11d00: 42 64        	c.ldsp	s0, 0x10(sp)
   11d02: a2 64        	c.ldsp	s1, 0x8(sp)
   11d04: 05 61        	c.addi16sp	sp, 0x20
   11d06: 82 80        	c.jr	ra

0000000000011d08 <put_pixel_rows>:
   11d08: 01 11        	c.addi	sp, -0x20
   11d0a: 06 ec        	c.sdsp	ra, 0x18(sp)
   11d0c: 22 e8        	c.sdsp	s0, 0x10(sp)
   11d0e: 26 e4        	c.sdsp	s1, 0x8(sp)
   11d10: aa 84        	c.mv	s1, a0
   11d12: 08 65        	c.ld	a0, 0x8(a0)
   11d14: 2e 84        	c.mv	s0, a1
   11d16: 1c 7d        	c.ld	a5, 0x38(a0)
   11d18: 8c 7d        	c.ld	a1, 0x38(a1)
   11d1a: 70 44        	c.lw	a2, 0x4c(s0)
   11d1c: 85 46        	c.li	a3, 0x1
   11d1e: 05 47        	c.li	a4, 0x1
   11d20: 26 85        	c.mv	a0, s1
   11d22: 82 97        	c.jalr	a5
   11d24: 6c 44        	c.lw	a1, 0x4c(s0)
   11d26: 03 a6 04 08  	lw	a2, 0x80(s1)
   11d2a: 08 61        	c.ld	a0, 0x0(a0)
   11d2c: 85 05        	c.addi	a1, 0x1
   11d2e: 6c c4        	c.sw	a1, 0x4c(s0)
   11d30: 0d ce        	c.beqz	a2, 0x11d6a <put_pixel_rows+0x62>
   11d32: 0c 70        	c.ld	a1, 0x20(s0)
   11d34: 8c 61        	c.ld	a1, 0x0(a1)
   11d36: 7d 16        	c.addi	a2, -0x1
   11d38: 02 16        	c.slli	a2, 0x20
   11d3a: 93 56 06 02  	srli	a3, a2, 0x20
   11d3e: 7d 82        	c.srli	a2, 0x1f
   11d40: 36 96        	c.add	a2, a3
   11d42: 2e 96        	c.add	a2, a1
   11d44: 0d 06        	c.addi	a2, 0x3
   11d46: 83 c6 05 00  	lbu	a3, 0x0(a1)
   11d4a: 23 01 d5 00  	sb	a3, 0x2(a0)
   11d4e: 83 c6 15 00  	lbu	a3, 0x1(a1)
   11d52: a3 00 d5 00  	sb	a3, 0x1(a0)
   11d56: 83 c6 25 00  	lbu	a3, 0x2(a1)
   11d5a: 13 87 35 00  	addi	a4, a1, 0x3
   11d5e: 23 00 d5 00  	sb	a3, 0x0(a0)
   11d62: 0d 05        	c.addi	a0, 0x3
   11d64: ba 85        	c.mv	a1, a4
   11d66: e3 10 c7 fe  	bne	a4, a2, 0x11d46 <put_pixel_rows+0x3e>
   11d6a: 30 44        	c.lw	a2, 0x48(s0)
   11d6c: 63 59 c0 00  	bge	zero, a2, 0x11d7e <put_pixel_rows+0x76>
   11d70: 81 45        	c.li	a1, 0x0
   11d72: e2 60        	c.ldsp	ra, 0x18(sp)
   11d74: 42 64        	c.ldsp	s0, 0x10(sp)
   11d76: a2 64        	c.ldsp	s1, 0x8(sp)
   11d78: 05 61        	c.addi16sp	sp, 0x20
   11d7a: 6f b0 30 32  	jal	zero, 0x1d89c <memset>
   11d7e: e2 60        	c.ldsp	ra, 0x18(sp)
   11d80: 42 64        	c.ldsp	s0, 0x10(sp)
   11d82: a2 64        	c.ldsp	s1, 0x8(sp)
   11d84: 05 61        	c.addi16sp	sp, 0x20
   11d86: 82 80        	c.jr	ra

0000000000011d88 <write_colormap>:
   11d88: ef d2 51 4a  	jal	t0, 0x2fa2c <__riscv_save_9>
   11d8c: aa 89        	c.mv	s3, a0
   11d8e: 03 3b 85 09  	ld	s6, 0x98(a0)
   11d92: 80 6d        	c.ld	s0, 0x18(a1)
   11d94: 36 8a        	c.mv	s4, a3
   11d96: 32 89        	c.mv	s2, a2
   11d98: 63 0f 0b 04  	beq	s6, zero, 0x11df6 <write_colormap+0x6e>
   11d9c: 03 a5 89 08  	lw	a0, 0x88(s3)
   11da0: 83 aa 49 09  	lw	s5, 0x94(s3)
   11da4: 8d 45        	c.li	a1, 0x3
   11da6: 63 12 b5 08  	bne	a0, a1, 0x11e2a <write_colormap+0xa2>
   11daa: 63 5e 50 11  	bge	zero, s5, 0x11ec6 <write_colormap+0x13e>
   11dae: 81 44        	c.li	s1, 0x0
   11db0: 91 4b        	c.li	s7, 0x4
   11db2: 03 35 0b 01  	ld	a0, 0x10(s6)
   11db6: 26 95        	c.add	a0, s1
   11db8: 03 45 05 00  	lbu	a0, 0x0(a0)
   11dbc: a2 85        	c.mv	a1, s0
   11dbe: ef a0 f0 62  	jal	ra, 0x1cbec <putc>
   11dc2: 03 35 8b 00  	ld	a0, 0x8(s6)
   11dc6: 26 95        	c.add	a0, s1
   11dc8: 03 45 05 00  	lbu	a0, 0x0(a0)
   11dcc: a2 85        	c.mv	a1, s0
   11dce: ef a0 f0 61  	jal	ra, 0x1cbec <putc>
   11dd2: 03 35 0b 00  	ld	a0, 0x0(s6)
   11dd6: 26 95        	c.add	a0, s1
   11dd8: 03 45 05 00  	lbu	a0, 0x0(a0)
   11ddc: a2 85        	c.mv	a1, s0
   11dde: ef a0 f0 60  	jal	ra, 0x1cbec <putc>
   11de2: 63 16 7a 01  	bne	s4, s7, 0x11dee <write_colormap+0x66>
   11de6: 01 45        	c.li	a0, 0x0
   11de8: a2 85        	c.mv	a1, s0
   11dea: ef a0 30 60  	jal	ra, 0x1cbec <putc>
   11dee: 85 04        	c.addi	s1, 0x1
   11df0: e3 91 9a fc  	bne	s5, s1, 0x11db2 <write_colormap+0x2a>
   11df4: 41 a0        	c.j	0x11e74 <write_colormap+0xec>
   11df6: 81 44        	c.li	s1, 0x0
   11df8: 11 4b        	c.li	s6, 0x4
   11dfa: 93 0a 00 10  	addi	s5, zero, 0x100
   11dfe: 26 85        	c.mv	a0, s1
   11e00: a2 85        	c.mv	a1, s0
   11e02: ef a0 b0 5e  	jal	ra, 0x1cbec <putc>
   11e06: 26 85        	c.mv	a0, s1
   11e08: a2 85        	c.mv	a1, s0
   11e0a: ef a0 30 5e  	jal	ra, 0x1cbec <putc>
   11e0e: 26 85        	c.mv	a0, s1
   11e10: a2 85        	c.mv	a1, s0
   11e12: ef a0 b0 5d  	jal	ra, 0x1cbec <putc>
   11e16: 63 16 6a 01  	bne	s4, s6, 0x11e22 <write_colormap+0x9a>
   11e1a: 01 45        	c.li	a0, 0x0
   11e1c: a2 85        	c.mv	a1, s0
   11e1e: ef a0 f0 5c  	jal	ra, 0x1cbec <putc>
   11e22: 85 24        	c.addiw	s1, 0x1
   11e24: e3 9d 54 fd  	bne	s1, s5, 0x11dfe <write_colormap+0x76>
   11e28: b1 a0        	c.j	0x11e74 <write_colormap+0xec>
   11e2a: 63 5e 50 09  	bge	zero, s5, 0x11ec6 <write_colormap+0x13e>
   11e2e: 81 44        	c.li	s1, 0x0
   11e30: 91 4b        	c.li	s7, 0x4
   11e32: 03 35 0b 00  	ld	a0, 0x0(s6)
   11e36: 26 95        	c.add	a0, s1
   11e38: 03 45 05 00  	lbu	a0, 0x0(a0)
   11e3c: a2 85        	c.mv	a1, s0
   11e3e: ef a0 f0 5a  	jal	ra, 0x1cbec <putc>
   11e42: 03 35 0b 00  	ld	a0, 0x0(s6)
   11e46: 26 95        	c.add	a0, s1
   11e48: 03 45 05 00  	lbu	a0, 0x0(a0)
   11e4c: a2 85        	c.mv	a1, s0
   11e4e: ef a0 f0 59  	jal	ra, 0x1cbec <putc>
   11e52: 03 35 0b 00  	ld	a0, 0x0(s6)
   11e56: 26 95        	c.add	a0, s1
   11e58: 03 45 05 00  	lbu	a0, 0x0(a0)
   11e5c: a2 85        	c.mv	a1, s0
   11e5e: ef a0 f0 58  	jal	ra, 0x1cbec <putc>
   11e62: 63 16 7a 01  	bne	s4, s7, 0x11e6e <write_colormap+0xe6>
   11e66: 01 45        	c.li	a0, 0x0
   11e68: a2 85        	c.mv	a1, s0
   11e6a: ef a0 30 58  	jal	ra, 0x1cbec <putc>
   11e6e: 85 04        	c.addi	s1, 0x1
   11e70: e3 91 9a fc  	bne	s5, s1, 0x11e32 <write_colormap+0xaa>
   11e74: 63 5e 59 01  	bge	s2, s5, 0x11e90 <write_colormap+0x108>
   11e78: 03 b5 09 00  	ld	a0, 0x0(s3)
   11e7c: 23 26 55 03  	sw	s5, 0x2c(a0)
   11e80: 83 b5 09 00  	ld	a1, 0x0(s3)
   11e84: 8c 61        	c.ld	a1, 0x0(a1)
   11e86: 13 06 f0 40  	addi	a2, zero, 0x40f
   11e8a: 10 d5        	c.sw	a2, 0x28(a0)
   11e8c: 4e 85        	c.mv	a0, s3
   11e8e: 82 95        	c.jalr	a1
   11e90: 63 d9 2a 03  	bge	s5, s2, 0x11ec2 <write_colormap+0x13a>
   11e94: bb 04 59 41  	subw	s1, s2, s5
   11e98: 11 49        	c.li	s2, 0x4
   11e9a: 01 45        	c.li	a0, 0x0
   11e9c: a2 85        	c.mv	a1, s0
   11e9e: ef a0 f0 54  	jal	ra, 0x1cbec <putc>
   11ea2: 01 45        	c.li	a0, 0x0
   11ea4: a2 85        	c.mv	a1, s0
   11ea6: ef a0 70 54  	jal	ra, 0x1cbec <putc>
   11eaa: 01 45        	c.li	a0, 0x0
   11eac: a2 85        	c.mv	a1, s0
   11eae: ef a0 f0 53  	jal	ra, 0x1cbec <putc>
   11eb2: 63 16 2a 01  	bne	s4, s2, 0x11ebe <write_colormap+0x136>
   11eb6: 01 45        	c.li	a0, 0x0
   11eb8: a2 85        	c.mv	a1, s0
   11eba: ef a0 30 53  	jal	ra, 0x1cbec <putc>
   11ebe: fd 34        	c.addiw	s1, -0x1
   11ec0: e9 fc        	c.bnez	s1, 0x11e9a <write_colormap+0x112>
   11ec2: 6f d0 d1 3a  	jal	zero, 0x2fa6e <__riscv_restore_9>
   11ec6: 81 4a        	c.li	s5, 0x0
   11ec8: e3 48 09 fa  	blt	s2, zero, 0x11e78 <write_colormap+0xf0>
   11ecc: d1 b7        	c.j	0x11e90 <write_colormap+0x108>

0000000000011ece <read_color_map>:
   11ece: 35 71        	c.addi16sp	sp, -0xa0
   11ed0: 06 ed        	c.sdsp	ra, 0x98(sp)
   11ed2: 22 e9        	c.sdsp	s0, 0x90(sp)
   11ed4: 26 e5        	c.sdsp	s1, 0x88(sp)
   11ed6: 4a e1        	c.sdsp	s2, 0x80(sp)
   11ed8: ce fc        	c.sdsp	s3, 0x78(sp)
   11eda: d2 f8        	c.sdsp	s4, 0x70(sp)
   11edc: d6 f4        	c.sdsp	s5, 0x68(sp)
   11ede: da f0        	c.sdsp	s6, 0x60(sp)
   11ee0: de ec        	c.sdsp	s7, 0x58(sp)
   11ee2: e2 e8        	c.sdsp	s8, 0x50(sp)
   11ee4: e6 e4        	c.sdsp	s9, 0x48(sp)
   11ee6: ea e0        	c.sdsp	s10, 0x40(sp)
   11ee8: aa 8a        	c.mv	s5, a0
   11eea: 08 65        	c.ld	a0, 0x8(a0)
   11eec: 18 69        	c.ld	a4, 0x10(a0)
   11eee: 2e 8b        	c.mv	s6, a1
   11ef0: 85 45        	c.li	a1, 0x1
   11ef2: 13 06 00 10  	addi	a2, zero, 0x100
   11ef6: 8d 46        	c.li	a3, 0x3
   11ef8: 56 85        	c.mv	a0, s5
   11efa: 02 97        	c.jalr	a4
   11efc: 23 bc aa 08  	sd	a0, 0x98(s5)
   11f00: 23 aa 0a 08  	sw	zero, 0x94(s5)
   11f04: 5a 85        	c.mv	a0, s6
   11f06: ef a0 f0 43  	jal	ra, 0x1cb44 <getc>
   11f0a: 93 05 00 05  	addi	a1, zero, 0x50
   11f0e: 63 01 b5 0e  	beq	a0, a1, 0x11ff0 <read_color_map+0x122>
   11f12: 93 05 70 04  	addi	a1, zero, 0x47
   11f16: 63 1f b5 18  	bne	a0, a1, 0x120b4 <read_color_map+0x1e6>
   11f1a: 00 08        	c.addi4spn	s0, sp, 0x10
   11f1c: 13 09 01 04  	addi	s2, sp, 0x40
   11f20: fd 54        	c.li	s1, -0x1
   11f22: 93 09 e0 40  	addi	s3, zero, 0x40e
   11f26: 5a 85        	c.mv	a0, s6
   11f28: ef a0 d0 41  	jal	ra, 0x1cb44 <getc>
   11f2c: 08 c0        	c.sw	a0, 0x0(s0)
   11f2e: 63 19 95 00  	bne	a0, s1, 0x11f40 <read_color_map+0x72>
   11f32: 03 b5 0a 00  	ld	a0, 0x0(s5)
   11f36: 0c 61        	c.ld	a1, 0x0(a0)
   11f38: 23 24 35 03  	sw	s3, 0x28(a0)
   11f3c: 56 85        	c.mv	a0, s5
   11f3e: 82 95        	c.jalr	a1
   11f40: 11 04        	c.addi	s0, 0x4
   11f42: e3 12 24 ff  	bne	s0, s2, 0x11f26 <read_color_map+0x58>
   11f46: 42 45        	c.lwsp	a0, 0x10(sp)
   11f48: 93 05 90 04  	addi	a1, zero, 0x49
   11f4c: 63 17 b5 00  	bne	a0, a1, 0x11f5a <read_color_map+0x8c>
   11f50: 52 45        	c.lwsp	a0, 0x14(sp)
   11f52: 93 05 60 04  	addi	a1, zero, 0x46
   11f56: 63 0a b5 00  	beq	a0, a1, 0x11f6a <read_color_map+0x9c>
   11f5a: 03 b5 0a 00  	ld	a0, 0x0(s5)
   11f5e: 0c 61        	c.ld	a1, 0x0(a0)
   11f60: 13 06 e0 40  	addi	a2, zero, 0x40e
   11f64: 10 d5        	c.sw	a2, 0x28(a0)
   11f66: 56 85        	c.mv	a0, s5
   11f68: 82 95        	c.jalr	a1
   11f6a: 03 64 41 03  	lwu	s0, 0x34(sp)
   11f6e: 13 75 04 08  	andi	a0, s0, 0x80
   11f72: 09 e9        	c.bnez	a0, 0x11f84 <read_color_map+0xb6>
   11f74: 03 b5 0a 00  	ld	a0, 0x0(s5)
   11f78: 0c 61        	c.ld	a1, 0x0(a0)
   11f7a: 13 06 e0 40  	addi	a2, zero, 0x40e
   11f7e: 10 d5        	c.sw	a2, 0x28(a0)
   11f80: 56 85        	c.mv	a0, s5
   11f82: 82 95        	c.jalr	a1
   11f84: 1d 88        	c.andi	s0, 0x7
   11f86: 09 45        	c.li	a0, 0x2
   11f88: 3b 14 85 00  	sllw	s0, a0, s0
   11f8c: 7d 5a        	c.li	s4, -0x1
   11f8e: 93 0b e0 40  	addi	s7, zero, 0x40e
   11f92: 5a 85        	c.mv	a0, s6
   11f94: ef a0 10 3b  	jal	ra, 0x1cb44 <getc>
   11f98: 2a 89        	c.mv	s2, a0
   11f9a: 5a 85        	c.mv	a0, s6
   11f9c: ef a0 90 3a  	jal	ra, 0x1cb44 <getc>
   11fa0: aa 89        	c.mv	s3, a0
   11fa2: 5a 85        	c.mv	a0, s6
   11fa4: ef a0 10 3a  	jal	ra, 0x1cb44 <getc>
   11fa8: aa 84        	c.mv	s1, a0
   11faa: 63 06 49 01  	beq	s2, s4, 0x11fb6 <read_color_map+0xe8>
   11fae: 63 84 49 01  	beq	s3, s4, 0x11fb6 <read_color_map+0xe8>
   11fb2: 63 99 44 01  	bne	s1, s4, 0x11fc4 <read_color_map+0xf6>
   11fb6: 03 b5 0a 00  	ld	a0, 0x0(s5)
   11fba: 0c 61        	c.ld	a1, 0x0(a0)
   11fbc: 23 24 75 03  	sw	s7, 0x28(a0)
   11fc0: 56 85        	c.mv	a0, s5
   11fc2: 82 95        	c.jalr	a1
   11fc4: 56 85        	c.mv	a0, s5
   11fc6: ca 85        	c.mv	a1, s2
   11fc8: 4e 86        	c.mv	a2, s3
   11fca: a6 86        	c.mv	a3, s1
   11fcc: ef 00 20 15  	jal	ra, 0x1211e <add_map_entry>
   11fd0: 7d 34        	c.addiw	s0, -0x1
   11fd2: 61 f0        	c.bnez	s0, 0x11f92 <read_color_map+0xc4>
   11fd4: ea 60        	c.ldsp	ra, 0x98(sp)
   11fd6: 4a 64        	c.ldsp	s0, 0x90(sp)
   11fd8: aa 64        	c.ldsp	s1, 0x88(sp)
   11fda: 0a 69        	c.ldsp	s2, 0x80(sp)
   11fdc: e6 79        	c.ldsp	s3, 0x78(sp)
   11fde: 46 7a        	c.ldsp	s4, 0x70(sp)
   11fe0: a6 7a        	c.ldsp	s5, 0x68(sp)
   11fe2: 06 7b        	c.ldsp	s6, 0x60(sp)
   11fe4: e6 6b        	c.ldsp	s7, 0x58(sp)
   11fe6: 46 6c        	c.ldsp	s8, 0x50(sp)
   11fe8: a6 6c        	c.ldsp	s9, 0x48(sp)
   11fea: 06 6d        	c.ldsp	s10, 0x40(sp)
   11fec: 0d 61        	c.addi16sp	sp, 0xa0
   11fee: 82 80        	c.jr	ra
   11ff0: 5a 85        	c.mv	a0, s6
   11ff2: ef a0 30 35  	jal	ra, 0x1cb44 <getc>
   11ff6: 2a 8a        	c.mv	s4, a0
   11ff8: 56 85        	c.mv	a0, s5
   11ffa: da 85        	c.mv	a1, s6
   11ffc: ef 00 e0 1a  	jal	ra, 0x121aa <read_pbm_integer>
   12000: 2a 89        	c.mv	s2, a0
   12002: 56 85        	c.mv	a0, s5
   12004: da 85        	c.mv	a1, s6
   12006: ef 00 40 1a  	jal	ra, 0x121aa <read_pbm_integer>
   1200a: aa 89        	c.mv	s3, a0
   1200c: 56 85        	c.mv	a0, s5
   1200e: da 85        	c.mv	a1, s6
   12010: ef 00 a0 19  	jal	ra, 0x121aa <read_pbm_integer>
   12014: 2a 84        	c.mv	s0, a0
   12016: 63 05 09 00  	beq	s2, zero, 0x12020 <read_color_map+0x152>
   1201a: 63 83 09 00  	beq	s3, zero, 0x12020 <read_color_map+0x152>
   1201e: 09 e8        	c.bnez	s0, 0x12030 <read_color_map+0x162>
   12020: 03 b5 0a 00  	ld	a0, 0x0(s5)
   12024: 0c 61        	c.ld	a1, 0x0(a0)
   12026: 13 06 e0 40  	addi	a2, zero, 0x40e
   1202a: 10 d5        	c.sw	a2, 0x28(a0)
   1202c: 56 85        	c.mv	a0, s5
   1202e: 82 95        	c.jalr	a1
   12030: 13 05 f0 0f  	addi	a0, zero, 0xff
   12034: 63 0a a4 00  	beq	s0, a0, 0x12048 <read_color_map+0x17a>
   12038: 03 b5 0a 00  	ld	a0, 0x0(s5)
   1203c: 0c 61        	c.ld	a1, 0x0(a0)
   1203e: 13 06 e0 40  	addi	a2, zero, 0x40e
   12042: 10 d5        	c.sw	a2, 0x28(a0)
   12044: 56 85        	c.mv	a0, s5
   12046: 82 95        	c.jalr	a1
   12048: 13 05 30 03  	addi	a0, zero, 0x33
   1204c: 63 09 aa 08  	beq	s4, a0, 0x120de <read_color_map+0x210>
   12050: 13 05 60 03  	addi	a0, zero, 0x36
   12054: 63 10 aa 06  	bne	s4, a0, 0x120b4 <read_color_map+0x1e6>
   12058: e3 8e 09 f6  	beq	s3, zero, 0x11fd4 <read_color_map+0x106>
   1205c: 81 4b        	c.li	s7, 0x0
   1205e: 7d 5c        	c.li	s8, -0x1
   12060: 93 0c e0 40  	addi	s9, zero, 0x40e
   12064: 63 04 09 04  	beq	s2, zero, 0x120ac <read_color_map+0x1de>
   12068: ca 84        	c.mv	s1, s2
   1206a: 5a 85        	c.mv	a0, s6
   1206c: ef 00 e0 1c  	jal	ra, 0x1223a <pbm_getc>
   12070: 2a 8a        	c.mv	s4, a0
   12072: 5a 85        	c.mv	a0, s6
   12074: ef 00 60 1c  	jal	ra, 0x1223a <pbm_getc>
   12078: 2a 8d        	c.mv	s10, a0
   1207a: 5a 85        	c.mv	a0, s6
   1207c: ef 00 e0 1b  	jal	ra, 0x1223a <pbm_getc>
   12080: 2a 84        	c.mv	s0, a0
   12082: 63 06 8a 01  	beq	s4, s8, 0x1208e <read_color_map+0x1c0>
   12086: 63 04 8d 01  	beq	s10, s8, 0x1208e <read_color_map+0x1c0>
   1208a: 63 19 84 01  	bne	s0, s8, 0x1209c <read_color_map+0x1ce>
   1208e: 03 b5 0a 00  	ld	a0, 0x0(s5)
   12092: 0c 61        	c.ld	a1, 0x0(a0)
   12094: 23 24 95 03  	sw	s9, 0x28(a0)
   12098: 56 85        	c.mv	a0, s5
   1209a: 82 95        	c.jalr	a1
   1209c: 56 85        	c.mv	a0, s5
   1209e: d2 85        	c.mv	a1, s4
   120a0: 6a 86        	c.mv	a2, s10
   120a2: a2 86        	c.mv	a3, s0
   120a4: ef 00 a0 07  	jal	ra, 0x1211e <add_map_entry>
   120a8: fd 34        	c.addiw	s1, -0x1
   120aa: e1 f0        	c.bnez	s1, 0x1206a <read_color_map+0x19c>
   120ac: 85 2b        	c.addiw	s7, 0x1
   120ae: e3 9b 3b fb  	bne	s7, s3, 0x12064 <read_color_map+0x196>
   120b2: 0d b7        	c.j	0x11fd4 <read_color_map+0x106>
   120b4: 03 b5 0a 00  	ld	a0, 0x0(s5)
   120b8: 1c 61        	c.ld	a5, 0x0(a0)
   120ba: 93 05 e0 40  	addi	a1, zero, 0x40e
   120be: 0c d5        	c.sw	a1, 0x28(a0)
   120c0: 56 85        	c.mv	a0, s5
   120c2: ea 60        	c.ldsp	ra, 0x98(sp)
   120c4: 4a 64        	c.ldsp	s0, 0x90(sp)
   120c6: aa 64        	c.ldsp	s1, 0x88(sp)
   120c8: 0a 69        	c.ldsp	s2, 0x80(sp)
   120ca: e6 79        	c.ldsp	s3, 0x78(sp)
   120cc: 46 7a        	c.ldsp	s4, 0x70(sp)
   120ce: a6 7a        	c.ldsp	s5, 0x68(sp)
   120d0: 06 7b        	c.ldsp	s6, 0x60(sp)
   120d2: e6 6b        	c.ldsp	s7, 0x58(sp)
   120d4: 46 6c        	c.ldsp	s8, 0x50(sp)
   120d6: a6 6c        	c.ldsp	s9, 0x48(sp)
   120d8: 06 6d        	c.ldsp	s10, 0x40(sp)
   120da: 0d 61        	c.addi16sp	sp, 0xa0
   120dc: 82 87        	c.jr	a5
   120de: e3 8b 09 ee  	beq	s3, zero, 0x11fd4 <read_color_map+0x106>
   120e2: 01 4a        	c.li	s4, 0x0
   120e4: 63 09 09 02  	beq	s2, zero, 0x12116 <read_color_map+0x248>
   120e8: 4a 84        	c.mv	s0, s2
   120ea: 56 85        	c.mv	a0, s5
   120ec: da 85        	c.mv	a1, s6
   120ee: ef 00 c0 0b  	jal	ra, 0x121aa <read_pbm_integer>
   120f2: aa 8b        	c.mv	s7, a0
   120f4: 56 85        	c.mv	a0, s5
   120f6: da 85        	c.mv	a1, s6
   120f8: ef 00 20 0b  	jal	ra, 0x121aa <read_pbm_integer>
   120fc: aa 84        	c.mv	s1, a0
   120fe: 56 85        	c.mv	a0, s5
   12100: da 85        	c.mv	a1, s6
   12102: ef 00 80 0a  	jal	ra, 0x121aa <read_pbm_integer>
   12106: aa 86        	c.mv	a3, a0
   12108: 56 85        	c.mv	a0, s5
   1210a: de 85        	c.mv	a1, s7
   1210c: 26 86        	c.mv	a2, s1
   1210e: ef 00 00 01  	jal	ra, 0x1211e <add_map_entry>
   12112: 7d 34        	c.addiw	s0, -0x1
   12114: 79 f8        	c.bnez	s0, 0x120ea <read_color_map+0x21c>
   12116: 05 2a        	c.addiw	s4, 0x1
   12118: e3 16 3a fd  	bne	s4, s3, 0x120e4 <read_color_map+0x216>
   1211c: 65 bd        	c.j	0x11fd4 <read_color_map+0x106>

000000000001211e <add_map_entry>:
   1211e: ef d2 f1 10  	jal	t0, 0x2fa2c <__riscv_save_9>
   12122: 2a 89        	c.mv	s2, a0
   12124: 48 6d        	c.ld	a0, 0x98(a0)
   12126: 03 3b 05 00  	ld	s6, 0x0(a0)
   1212a: 03 3a 85 00  	ld	s4, 0x8(a0)
   1212e: 83 2a 49 09  	lw	s5, 0x94(s2)
   12132: 83 3b 05 01  	ld	s7, 0x10(a0)
   12136: b6 89        	c.mv	s3, a3
   12138: 32 84        	c.mv	s0, a2
   1213a: ae 84        	c.mv	s1, a1
   1213c: 63 57 50 05  	bge	zero, s5, 0x1218a <add_map_entry+0x6c>
   12140: 56 85        	c.mv	a0, s5
   12142: da 85        	c.mv	a1, s6
   12144: 52 86        	c.mv	a2, s4
   12146: de 86        	c.mv	a3, s7
   12148: 03 c7 05 00  	lbu	a4, 0x0(a1)
   1214c: 63 1a 97 00  	bne	a4, s1, 0x12160 <add_map_entry+0x42>
   12150: 03 47 06 00  	lbu	a4, 0x0(a2)
   12154: 63 16 87 00  	bne	a4, s0, 0x12160 <add_map_entry+0x42>
   12158: 03 c7 06 00  	lbu	a4, 0x0(a3)
   1215c: 63 05 37 05  	beq	a4, s3, 0x121a6 <add_map_entry+0x88>
   12160: 85 06        	c.addi	a3, 0x1
   12162: 05 06        	c.addi	a2, 0x1
   12164: 7d 15        	c.addi	a0, -0x1
   12166: 85 05        	c.addi	a1, 0x1
   12168: 65 f1        	c.bnez	a0, 0x12148 <add_map_entry+0x2a>
   1216a: 13 05 00 10  	addi	a0, zero, 0x100
   1216e: 63 ce aa 00  	blt	s5, a0, 0x1218a <add_map_entry+0x6c>
   12172: 03 35 09 00  	ld	a0, 0x0(s2)
   12176: 85 45        	c.li	a1, 0x1
   12178: a2 15        	c.slli	a1, 0x28
   1217a: 93 85 85 03  	addi	a1, a1, 0x38
   1217e: 0c f5        	c.sd	a1, 0x28(a0)
   12180: 03 35 09 00  	ld	a0, 0x0(s2)
   12184: 0c 61        	c.ld	a1, 0x0(a0)
   12186: 4a 85        	c.mv	a0, s2
   12188: 82 95        	c.jalr	a1
   1218a: 56 9b        	c.add	s6, s5
   1218c: 23 00 9b 00  	sb	s1, 0x0(s6)
   12190: 56 9a        	c.add	s4, s5
   12192: 23 00 8a 00  	sb	s0, 0x0(s4)
   12196: de 9a        	c.add	s5, s7
   12198: 23 80 3a 01  	sb	s3, 0x0(s5)
   1219c: 03 25 49 09  	lw	a0, 0x94(s2)
   121a0: 05 05        	c.addi	a0, 0x1
   121a2: 23 2a a9 08  	sw	a0, 0x94(s2)
   121a6: 6f d0 91 0c  	jal	zero, 0x2fa6e <__riscv_restore_9>

00000000000121aa <read_pbm_integer>:
   121aa: ef d2 71 09  	jal	t0, 0x2fa40 <__riscv_save_5>
   121ae: ae 89        	c.mv	s3, a1
   121b0: 2a 89        	c.mv	s2, a0
   121b2: 13 0a 10 02  	addi	s4, zero, 0x21
   121b6: 37 05 80 00  	lui	a0, 0x800
   121ba: 4d 25        	c.addiw	a0, 0x13
   121bc: 13 14 a5 00  	slli	s0, a0, 0xa
   121c0: 4e 85        	c.mv	a0, s3
   121c2: ef 00 80 07  	jal	ra, 0x1223a <pbm_getc>
   121c6: aa 84        	c.mv	s1, a0
   121c8: 05 05        	c.addi	a0, 0x1
   121ca: 63 60 aa 02  	bltu	s4, a0, 0x121ea <read_pbm_integer+0x40>
   121ce: b3 55 a4 00  	srl	a1, s0, a0
   121d2: 85 89        	c.andi	a1, 0x1
   121d4: f5 f5        	c.bnez	a1, 0x121c0 <read_pbm_integer+0x16>
   121d6: 11 e9        	c.bnez	a0, 0x121ea <read_pbm_integer+0x40>
   121d8: 03 35 09 00  	ld	a0, 0x0(s2)
   121dc: 0c 61        	c.ld	a1, 0x0(a0)
   121de: 13 06 e0 40  	addi	a2, zero, 0x40e
   121e2: 10 d5        	c.sw	a2, 0x28(a0)
   121e4: 4a 85        	c.mv	a0, s2
   121e6: 82 95        	c.jalr	a1
   121e8: 31 a0        	c.j	0x121f4 <read_pbm_integer+0x4a>
   121ea: 1b 85 64 fc  	addiw	a0, s1, -0x3a
   121ee: d5 55        	c.li	a1, -0xb
   121f0: 63 ea a5 00  	bltu	a1, a0, 0x12204 <read_pbm_integer+0x5a>
   121f4: 03 35 09 00  	ld	a0, 0x0(s2)
   121f8: 0c 61        	c.ld	a1, 0x0(a0)
   121fa: 13 06 e0 40  	addi	a2, zero, 0x40e
   121fe: 10 d5        	c.sw	a2, 0x28(a0)
   12200: 4a 85        	c.mv	a0, s2
   12202: 82 95        	c.jalr	a1
   12204: 1b 84 04 fd  	addiw	s0, s1, -0x30
   12208: 4e 85        	c.mv	a0, s3
   1220a: ef 00 00 03  	jal	ra, 0x1223a <pbm_getc>
   1220e: 9b 04 05 fd  	addiw	s1, a0, -0x30
   12212: 25 45        	c.li	a0, 0x9
   12214: 63 60 95 02  	bltu	a0, s1, 0x12234 <read_pbm_integer+0x8a>
   12218: 29 49        	c.li	s2, 0xa
   1221a: a9 45        	c.li	a1, 0xa
   1221c: 22 85        	c.mv	a0, s0
   1221e: ef d0 31 07  	jal	ra, 0x2fa90 <__muldi3>
   12222: 3b 84 a4 00  	addw	s0, s1, a0
   12226: 4e 85        	c.mv	a0, s3
   12228: ef 00 20 01  	jal	ra, 0x1223a <pbm_getc>
   1222c: 9b 04 05 fd  	addiw	s1, a0, -0x30
   12230: e3 e5 24 ff  	bltu	s1, s2, 0x1221a <read_pbm_integer+0x70>
   12234: 22 85        	c.mv	a0, s0
   12236: 6f d0 51 04  	jal	zero, 0x2fa7a <__riscv_restore_5>

000000000001223a <pbm_getc>:
   1223a: ef d2 11 01  	jal	t0, 0x2fa4a <__riscv_save_3>
   1223e: 2a 84        	c.mv	s0, a0
   12240: ef a0 50 10  	jal	ra, 0x1cb44 <getc>
   12244: 93 05 30 02  	addi	a1, zero, 0x23
   12248: 63 1b b5 00  	bne	a0, a1, 0x1225e <pbm_getc+0x24>
   1224c: a9 44        	c.li	s1, 0xa
   1224e: 7d 59        	c.li	s2, -0x1
   12250: 22 85        	c.mv	a0, s0
   12252: ef a0 30 0f  	jal	ra, 0x1cb44 <getc>
   12256: 63 04 95 00  	beq	a0, s1, 0x1225e <pbm_getc+0x24>
   1225a: e3 1b 25 ff  	bne	a0, s2, 0x12250 <pbm_getc+0x16>
   1225e: 6f d0 31 02  	jal	zero, 0x2fa80 <__riscv_restore_3>

0000000000012262 <keymatch>:
   12262: 03 47 05 00  	lbu	a4, 0x0(a0)
   12266: 29 c3        	c.beqz	a4, 0x122a8 <keymatch+0x46>
   12268: 81 48        	c.li	a7, 0x0
   1226a: 05 05        	c.addi	a0, 0x1
   1226c: b7 27 03 00  	lui	a5, 0x32
   12270: 13 88 87 28  	addi	a6, a5, 0x288
   12274: 83 c7 05 00  	lbu	a5, 0x0(a1)
   12278: 95 c7        	c.beqz	a5, 0x122a4 <keymatch+0x42>
   1227a: 93 76 f7 0f  	andi	a3, a4, 0xff
   1227e: 33 07 d8 00  	add	a4, a6, a3
   12282: 03 47 17 00  	lbu	a4, 0x1(a4)
   12286: 0d 8b        	c.andi	a4, 0x3
   12288: 7d 17        	c.addi	a4, -0x1
   1228a: 13 37 17 00  	sltiu	a4, a4, 0x1
   1228e: 16 07        	c.slli	a4, 0x5
   12290: ba 96        	c.add	a3, a4
   12292: 63 99 f6 00  	bne	a3, a5, 0x122a4 <keymatch+0x42>
   12296: 03 47 05 00  	lbu	a4, 0x0(a0)
   1229a: 85 05        	c.addi	a1, 0x1
   1229c: 85 28        	c.addiw	a7, 0x1
   1229e: 05 05        	c.addi	a0, 0x1
   122a0: 71 fb        	c.bnez	a4, 0x12274 <keymatch+0x12>
   122a2: 21 a0        	c.j	0x122aa <keymatch+0x48>
   122a4: 01 45        	c.li	a0, 0x0
   122a6: 82 80        	c.jr	ra
   122a8: 81 48        	c.li	a7, 0x0
   122aa: 33 a5 c8 00  	slt	a0, a7, a2
   122ae: 13 45 15 00  	xori	a0, a0, 0x1
   122b2: 82 80        	c.jr	ra

00000000000122b4 <read_stdin>:
   122b4: 03 b5 01 20  	ld	a0, 0x200(gp)
   122b8: 08 65        	c.ld	a0, 0x8(a0)
   122ba: 82 80        	c.jr	ra

00000000000122bc <write_stdout>:
   122bc: 03 b5 01 20  	ld	a0, 0x200(gp)
   122c0: 08 69        	c.ld	a0, 0x10(a0)
   122c2: 82 80        	c.jr	ra

00000000000122c4 <jpeg_CreateDecompress>:
   122c4: ef d2 61 78  	jal	t0, 0x2fa4a <__riscv_save_3>
   122c8: b2 84        	c.mv	s1, a2
   122ca: 2a 84        	c.mv	s0, a0
   122cc: 13 05 d0 03  	addi	a0, zero, 0x3d
   122d0: 23 34 04 00  	sd	zero, 0x8(s0)
   122d4: 63 8c a5 00  	beq	a1, a0, 0x122ec <jpeg_CreateDecompress+0x28>
   122d8: 10 60        	c.ld	a2, 0x0(s0)
   122da: 02 15        	c.slli	a0, 0x20
   122dc: 29 05        	c.addi	a0, 0xa
   122de: 08 f6        	c.sd	a0, 0x28(a2)
   122e0: 08 60        	c.ld	a0, 0x0(s0)
   122e2: 0c d9        	c.sw	a1, 0x30(a0)
   122e4: 08 60        	c.ld	a0, 0x0(s0)
   122e6: 0c 61        	c.ld	a1, 0x0(a0)
   122e8: 22 85        	c.mv	a0, s0
   122ea: 82 95        	c.jalr	a1
   122ec: 13 05 80 26  	addi	a0, zero, 0x268
   122f0: 63 8e a4 00  	beq	s1, a0, 0x1230c <jpeg_CreateDecompress+0x48>
   122f4: 08 60        	c.ld	a0, 0x0(s0)
   122f6: 93 05 d0 04  	addi	a1, zero, 0x4d
   122fa: 8e 15        	c.slli	a1, 0x23
   122fc: cd 05        	c.addi	a1, 0x13
   122fe: 0c f5        	c.sd	a1, 0x28(a0)
   12300: 08 60        	c.ld	a0, 0x0(s0)
   12302: 04 d9        	c.sw	s1, 0x30(a0)
   12304: 08 60        	c.ld	a0, 0x0(s0)
   12306: 0c 61        	c.ld	a1, 0x0(a0)
   12308: 22 85        	c.mv	a0, s0
   1230a: 82 95        	c.jalr	a1
   1230c: 04 60        	c.ld	s1, 0x0(s0)
   1230e: 13 05 84 00  	addi	a0, s0, 0x8
   12312: 13 06 00 26  	addi	a2, zero, 0x260
   12316: 81 45        	c.li	a1, 0x0
   12318: ef b0 40 58  	jal	ra, 0x1d89c <memset>
   1231c: 04 e0        	c.sd	s1, 0x0(s0)
   1231e: 05 45        	c.li	a0, 0x1
   12320: 08 cc        	c.sw	a0, 0x18(s0)
   12322: 22 85        	c.mv	a0, s0
   12324: ef 80 30 34  	jal	ra, 0x1ae66 <jinit_memory_mgr>
   12328: 23 38 04 00  	sd	zero, 0x10(s0)
   1232c: 23 30 04 02  	sd	zero, 0x20(s0)
   12330: 13 05 04 0c  	addi	a0, s0, 0xc0
   12334: 13 06 00 06  	addi	a2, zero, 0x60
   12338: 81 45        	c.li	a1, 0x0
   1233a: ef b0 20 56  	jal	ra, 0x1d89c <memset>
   1233e: 22 85        	c.mv	a0, s0
   12340: ef 10 40 48  	jal	ra, 0x137c4 <jinit_marker_reader>
   12344: 22 85        	c.mv	a0, s0
   12346: ef 00 50 5b  	jal	ra, 0x130fa <jinit_input_controller>
   1234a: 13 05 80 0c  	addi	a0, zero, 0xc8
   1234e: 48 cc        	c.sw	a0, 0x1c(s0)
   12350: 6f d0 01 73  	jal	zero, 0x2fa80 <__riscv_restore_3>

0000000000012354 <jpeg_destroy_decompress>:
   12354: 6f 80 b0 0b  	jal	zero, 0x1ac0e <jpeg_destroy>

0000000000012358 <jpeg_abort_decompress>:
   12358: 6f 80 50 09  	jal	zero, 0x1abec <jpeg_abort>

000000000001235c <jpeg_set_marker_processor>:
   1235c: 93 06 e0 0f  	addi	a3, zero, 0xfe
   12360: 63 96 d5 00  	bne	a1, a3, 0x1236c <jpeg_set_marker_processor+0x10>
   12364: 03 35 85 23  	ld	a0, 0x238(a0)
   12368: 10 ed        	c.sd	a2, 0x18(a0)
   1236a: 82 80        	c.jr	ra
   1236c: 93 f6 05 ff  	andi	a3, a1, -0x10
   12370: 13 07 00 0e  	addi	a4, zero, 0xe0
   12374: 63 99 e6 00  	bne	a3, a4, 0x12386 <jpeg_set_marker_processor+0x2a>
   12378: 03 35 85 23  	ld	a0, 0x238(a0)
   1237c: 8e 05        	c.slli	a1, 0x3
   1237e: 2e 95        	c.add	a0, a1
   12380: 23 30 c5 92  	sd	a2, -0x6e0(a0)
   12384: 82 80        	c.jr	ra
   12386: 10 61        	c.ld	a2, 0x0(a0)
   12388: 4c d6        	c.sw	a1, 0x2c(a2)
   1238a: 0c 61        	c.ld	a1, 0x0(a0)
   1238c: 9c 61        	c.ld	a5, 0x0(a1)
   1238e: 93 05 30 04  	addi	a1, zero, 0x43
   12392: 0c d6        	c.sw	a1, 0x28(a2)
   12394: 82 87        	c.jr	a5

0000000000012396 <jpeg_read_header>:
   12396: ef d2 41 6b  	jal	t0, 0x2fa4a <__riscv_save_3>
   1239a: 2a 84        	c.mv	s0, a0
   1239c: 48 4d        	c.lw	a0, 0x1c(a0)
   1239e: 13 76 e5 ff  	andi	a2, a0, -0x2
   123a2: 93 06 80 0c  	addi	a3, zero, 0xc8
   123a6: 2e 89        	c.mv	s2, a1
   123a8: 63 0a d6 00  	beq	a2, a3, 0x123bc <jpeg_read_header+0x26>
   123ac: 0c 60        	c.ld	a1, 0x0(s0)
   123ae: c8 d5        	c.sw	a0, 0x2c(a1)
   123b0: 08 60        	c.ld	a0, 0x0(s0)
   123b2: 10 61        	c.ld	a2, 0x0(a0)
   123b4: 49 45        	c.li	a0, 0x12
   123b6: 88 d5        	c.sw	a0, 0x28(a1)
   123b8: 22 85        	c.mv	a0, s0
   123ba: 02 96        	c.jalr	a2
   123bc: 22 85        	c.mv	a0, s0
   123be: ef 00 a0 02  	jal	ra, 0x123e8 <jpeg_consume_input>
   123c2: 89 45        	c.li	a1, 0x2
   123c4: aa 84        	c.mv	s1, a0
   123c6: 63 1e b5 00  	bne	a0, a1, 0x123e2 <jpeg_read_header+0x4c>
   123ca: 63 09 09 00  	beq	s2, zero, 0x123dc <jpeg_read_header+0x46>
   123ce: 08 60        	c.ld	a0, 0x0(s0)
   123d0: 0c 61        	c.ld	a1, 0x0(a0)
   123d2: 13 06 20 03  	addi	a2, zero, 0x32
   123d6: 10 d5        	c.sw	a2, 0x28(a0)
   123d8: 22 85        	c.mv	a0, s0
   123da: 82 95        	c.jalr	a1
   123dc: 22 85        	c.mv	a0, s0
   123de: ef 80 f0 00  	jal	ra, 0x1abec <jpeg_abort>
   123e2: 26 85        	c.mv	a0, s1
   123e4: 6f d0 c1 69  	jal	zero, 0x2fa80 <__riscv_restore_3>

00000000000123e8 <jpeg_consume_input>:
   123e8: 01 11        	c.addi	sp, -0x20
   123ea: 06 ec        	c.sdsp	ra, 0x18(sp)
   123ec: 22 e8        	c.sdsp	s0, 0x10(sp)
   123ee: 26 e4        	c.sdsp	s1, 0x8(sp)
   123f0: 4a e0        	c.sdsp	s2, 0x0(sp)
   123f2: 2a 84        	c.mv	s0, a0
   123f4: 4c 4d        	c.lw	a1, 0x1c(a0)
   123f6: 13 85 85 f3  	addi	a0, a1, -0xc8
   123fa: 29 46        	c.li	a2, 0xa
   123fc: 63 69 a6 08  	bltu	a2, a0, 0x1248e <jpeg_consume_input+0xa6>
   12400: 0a 05        	c.slli	a0, 0x2
   12402: 37 26 03 00  	lui	a2, 0x32
   12406: 13 06 86 93  	addi	a2, a2, -0x6c8
   1240a: 32 95        	c.add	a0, a2
   1240c: 10 41        	c.lw	a2, 0x0(a0)
   1240e: 05 45        	c.li	a0, 0x1
   12410: 02 86        	c.jr	a2
   12412: 03 35 04 23  	ld	a0, 0x230(s0)
   12416: 1c 61        	c.ld	a5, 0x0(a0)
   12418: 22 85        	c.mv	a0, s0
   1241a: e2 60        	c.ldsp	ra, 0x18(sp)
   1241c: 42 64        	c.ldsp	s0, 0x10(sp)
   1241e: a2 64        	c.ldsp	s1, 0x8(sp)
   12420: 02 69        	c.ldsp	s2, 0x0(sp)
   12422: 05 61        	c.addi16sp	sp, 0x20
   12424: 82 87        	c.jr	a5
   12426: 03 35 04 23  	ld	a0, 0x230(s0)
   1242a: 0c 65        	c.ld	a1, 0x8(a0)
   1242c: 22 85        	c.mv	a0, s0
   1242e: 82 95        	c.jalr	a1
   12430: 08 70        	c.ld	a0, 0x20(s0)
   12432: 0c 69        	c.ld	a1, 0x10(a0)
   12434: 22 85        	c.mv	a0, s0
   12436: 82 95        	c.jalr	a1
   12438: 13 05 90 0c  	addi	a0, zero, 0xc9
   1243c: 48 cc        	c.sw	a0, 0x1c(s0)
   1243e: 03 35 04 23  	ld	a0, 0x230(s0)
   12442: 0c 61        	c.ld	a1, 0x0(a0)
   12444: 22 85        	c.mv	a0, s0
   12446: 82 95        	c.jalr	a1
   12448: 85 45        	c.li	a1, 0x1
   1244a: 63 14 b5 0c  	bne	a0, a1, 0x12512 <jpeg_consume_input+0x12a>
   1244e: 08 58        	c.lw	a0, 0x30(s0)
   12450: 63 0e b5 06  	beq	a0, a1, 0x124cc <jpeg_consume_input+0xe4>
   12454: 91 44        	c.li	s1, 0x4
   12456: 63 06 95 04  	beq	a0, s1, 0x124a2 <jpeg_consume_input+0xba>
   1245a: 0d 49        	c.li	s2, 0x3
   1245c: 63 1b 25 07  	bne	a0, s2, 0x124d2 <jpeg_consume_input+0xea>
   12460: 03 25 c4 16  	lw	a0, 0x16c(s0)
   12464: 89 44        	c.li	s1, 0x2
   12466: 35 e9        	c.bnez	a0, 0x124da <jpeg_consume_input+0xf2>
   12468: 03 25 84 17  	lw	a0, 0x178(s0)
   1246c: 4d c9        	c.beqz	a0, 0x1251e <jpeg_consume_input+0x136>
   1246e: 03 45 c4 17  	lbu	a0, 0x17c(s0)
   12472: 89 44        	c.li	s1, 0x2
   12474: 6d c1        	c.beqz	a0, 0x12556 <jpeg_consume_input+0x16e>
   12476: 85 45        	c.li	a1, 0x1
   12478: 63 01 b5 06  	beq	a0, a1, 0x124da <jpeg_consume_input+0xf2>
   1247c: 0c 60        	c.ld	a1, 0x0(s0)
   1247e: c8 d5        	c.sw	a0, 0x2c(a1)
   12480: 08 60        	c.ld	a0, 0x0(s0)
   12482: 10 65        	c.ld	a2, 0x8(a0)
   12484: 13 05 e0 06  	addi	a0, zero, 0x6e
   12488: 88 d5        	c.sw	a0, 0x28(a1)
   1248a: fd 55        	c.li	a1, -0x1
   1248c: c5 a0        	c.j	0x1256c <jpeg_consume_input+0x184>
   1248e: 08 60        	c.ld	a0, 0x0(s0)
   12490: 4c d5        	c.sw	a1, 0x2c(a0)
   12492: 0c 60        	c.ld	a1, 0x0(s0)
   12494: 8c 61        	c.ld	a1, 0x0(a1)
   12496: 49 46        	c.li	a2, 0x12
   12498: 10 d5        	c.sw	a2, 0x28(a0)
   1249a: 22 85        	c.mv	a0, s0
   1249c: 82 95        	c.jalr	a1
   1249e: 01 45        	c.li	a0, 0x0
   124a0: 8d a8        	c.j	0x12512 <jpeg_consume_input+0x12a>
   124a2: 03 25 84 17  	lw	a0, 0x178(s0)
   124a6: 0d c9        	c.beqz	a0, 0x124d8 <jpeg_consume_input+0xf0>
   124a8: 03 45 c4 17  	lbu	a0, 0x17c(s0)
   124ac: 15 c5        	c.beqz	a0, 0x124d8 <jpeg_consume_input+0xf0>
   124ae: 89 45        	c.li	a1, 0x2
   124b0: 63 0c b5 00  	beq	a0, a1, 0x124c8 <jpeg_consume_input+0xe0>
   124b4: 0c 60        	c.ld	a1, 0x0(s0)
   124b6: c8 d5        	c.sw	a0, 0x2c(a1)
   124b8: 08 60        	c.ld	a0, 0x0(s0)
   124ba: 10 65        	c.ld	a2, 0x8(a0)
   124bc: 13 05 e0 06  	addi	a0, zero, 0x6e
   124c0: 88 d5        	c.sw	a0, 0x28(a1)
   124c2: fd 55        	c.li	a1, -0x1
   124c4: 22 85        	c.mv	a0, s0
   124c6: 02 96        	c.jalr	a2
   124c8: 15 49        	c.li	s2, 0x5
   124ca: 01 a8        	c.j	0x124da <jpeg_consume_input+0xf2>
   124cc: 2a 89        	c.mv	s2, a0
   124ce: aa 84        	c.mv	s1, a0
   124d0: 29 a0        	c.j	0x124da <jpeg_consume_input+0xf2>
   124d2: 01 49        	c.li	s2, 0x0
   124d4: 81 44        	c.li	s1, 0x0
   124d6: 11 a0        	c.j	0x124da <jpeg_consume_input+0xf2>
   124d8: 11 49        	c.li	s2, 0x4
   124da: 23 2a 24 03  	sw	s2, 0x34(s0)
   124de: 04 dc        	c.sw	s1, 0x38(s0)
   124e0: 05 45        	c.li	a0, 0x1
   124e2: 48 dc        	c.sw	a0, 0x3c(s0)
   124e4: 28 c0        	c.sw	a0, 0x40(s0)
   124e6: 93 05 f0 3f  	addi	a1, zero, 0x3ff
   124ea: d2 15        	c.slli	a1, 0x34
   124ec: 2c e4        	c.sd	a1, 0x48(s0)
   124ee: 23 38 04 04  	sd	zero, 0x50(s0)
   124f2: 93 15 05 02  	slli	a1, a0, 0x20
   124f6: 2c ec        	c.sd	a1, 0x58(s0)
   124f8: 28 f0        	c.sd	a0, 0x60(s0)
   124fa: 89 05        	c.addi	a1, 0x2
   124fc: 2c f4        	c.sd	a1, 0x68(s0)
   124fe: 93 05 00 10  	addi	a1, zero, 0x100
   12502: 2c f8        	c.sd	a1, 0x70(s0)
   12504: 23 3c 04 08  	sd	zero, 0x98(s0)
   12508: 23 3c 04 06  	sd	zero, 0x78(s0)
   1250c: 93 05 a0 0c  	addi	a1, zero, 0xca
   12510: 4c cc        	c.sw	a1, 0x1c(s0)
   12512: e2 60        	c.ldsp	ra, 0x18(sp)
   12514: 42 64        	c.ldsp	s0, 0x10(sp)
   12516: a2 64        	c.ldsp	s1, 0x8(sp)
   12518: 02 69        	c.ldsp	s2, 0x0(sp)
   1251a: 05 61        	c.addi16sp	sp, 0x20
   1251c: 82 80        	c.jr	ra
   1251e: 03 35 84 12  	ld	a0, 0x128(s0)
   12522: 0c 41        	c.lw	a1, 0x0(a0)
   12524: 30 51        	c.lw	a2, 0x60(a0)
   12526: 03 25 05 0c  	lw	a0, 0xc0(a0)
   1252a: 85 46        	c.li	a3, 0x1
   1252c: 63 98 d5 00  	bne	a1, a3, 0x1253c <jpeg_consume_input+0x154>
   12530: 89 46        	c.li	a3, 0x2
   12532: 63 15 d6 00  	bne	a2, a3, 0x1253c <jpeg_consume_input+0x154>
   12536: 8d 46        	c.li	a3, 0x3
   12538: e3 01 d5 fa  	beq	a0, a3, 0x124da <jpeg_consume_input+0xf2>
   1253c: 93 06 20 05  	addi	a3, zero, 0x52
   12540: 89 44        	c.li	s1, 0x2
   12542: 63 9c d5 00  	bne	a1, a3, 0x1255a <jpeg_consume_input+0x172>
   12546: 93 06 70 04  	addi	a3, zero, 0x47
   1254a: 63 18 d6 00  	bne	a2, a3, 0x1255a <jpeg_consume_input+0x172>
   1254e: 93 06 20 04  	addi	a3, zero, 0x42
   12552: 63 14 d5 00  	bne	a0, a3, 0x1255a <jpeg_consume_input+0x172>
   12556: 09 49        	c.li	s2, 0x2
   12558: 49 b7        	c.j	0x124da <jpeg_consume_input+0xf2>
   1255a: 14 60        	c.ld	a3, 0x0(s0)
   1255c: cc d6        	c.sw	a1, 0x2c(a3)
   1255e: 90 da        	c.sw	a2, 0x30(a3)
   12560: 90 66        	c.ld	a2, 0x8(a3)
   12562: c8 da        	c.sw	a0, 0x34(a3)
   12564: 13 05 b0 06  	addi	a0, zero, 0x6b
   12568: 88 d6        	c.sw	a0, 0x28(a3)
   1256a: 85 45        	c.li	a1, 0x1
   1256c: 22 85        	c.mv	a0, s0
   1256e: 02 96        	c.jalr	a2
   12570: ad b7        	c.j	0x124da <jpeg_consume_input+0xf2>

0000000000012572 <jpeg_input_complete>:
   12572: ef d2 a1 4e  	jal	t0, 0x2fa5c <__riscv_save_1>
   12576: 2a 84        	c.mv	s0, a0
   12578: 48 4d        	c.lw	a0, 0x1c(a0)
   1257a: 9b 05 d5 f2  	addiw	a1, a0, -0xd3
   1257e: 51 56        	c.li	a2, -0xc
   12580: 63 6a b6 00  	bltu	a2, a1, 0x12594 <jpeg_input_complete+0x22>
   12584: 0c 60        	c.ld	a1, 0x0(s0)
   12586: c8 d5        	c.sw	a0, 0x2c(a1)
   12588: 08 60        	c.ld	a0, 0x0(s0)
   1258a: 10 61        	c.ld	a2, 0x0(a0)
   1258c: 49 45        	c.li	a0, 0x12
   1258e: 88 d5        	c.sw	a0, 0x28(a1)
   12590: 22 85        	c.mv	a0, s0
   12592: 02 96        	c.jalr	a2
   12594: 03 35 04 23  	ld	a0, 0x230(s0)
   12598: 48 51        	c.lw	a0, 0x24(a0)
   1259a: 6f d0 c1 4e  	jal	zero, 0x2fa86 <__riscv_restore_1>

000000000001259e <jpeg_has_multiple_scans>:
   1259e: ef d2 e1 4b  	jal	t0, 0x2fa5c <__riscv_save_1>
   125a2: 2a 84        	c.mv	s0, a0
   125a4: 48 4d        	c.lw	a0, 0x1c(a0)
   125a6: 9b 05 d5 f2  	addiw	a1, a0, -0xd3
   125aa: 59 56        	c.li	a2, -0xa
   125ac: 63 6a b6 00  	bltu	a2, a1, 0x125c0 <jpeg_has_multiple_scans+0x22>
   125b0: 0c 60        	c.ld	a1, 0x0(s0)
   125b2: c8 d5        	c.sw	a0, 0x2c(a1)
   125b4: 08 60        	c.ld	a0, 0x0(s0)
   125b6: 10 61        	c.ld	a2, 0x0(a0)
   125b8: 49 45        	c.li	a0, 0x12
   125ba: 88 d5        	c.sw	a0, 0x28(a1)
   125bc: 22 85        	c.mv	a0, s0
   125be: 02 96        	c.jalr	a2
   125c0: 03 35 04 23  	ld	a0, 0x230(s0)
   125c4: 08 51        	c.lw	a0, 0x20(a0)
   125c6: 6f d0 01 4c  	jal	zero, 0x2fa86 <__riscv_restore_1>

00000000000125ca <jpeg_finish_decompress>:
   125ca: ef d2 21 49  	jal	t0, 0x2fa5c <__riscv_save_1>
   125ce: 2a 84        	c.mv	s0, a0
   125d0: 48 4d        	c.lw	a0, 0x1c(a0)
   125d2: 9b 05 35 f3  	addiw	a1, a0, -0xcd
   125d6: 05 46        	c.li	a2, 0x1
   125d8: 63 64 b6 00  	bltu	a2, a1, 0x125e0 <jpeg_finish_decompress+0x16>
   125dc: 2c 48        	c.lw	a1, 0x50(s0)
   125de: 95 c1        	c.beqz	a1, 0x12602 <jpeg_finish_decompress+0x38>
   125e0: 93 05 20 0d  	addi	a1, zero, 0xd2
   125e4: 63 04 b5 04  	beq	a0, a1, 0x1262c <jpeg_finish_decompress+0x62>
   125e8: 93 05 f0 0c  	addi	a1, zero, 0xcf
   125ec: 63 0d b5 02  	beq	a0, a1, 0x12626 <jpeg_finish_decompress+0x5c>
   125f0: 0c 60        	c.ld	a1, 0x0(s0)
   125f2: c8 d5        	c.sw	a0, 0x2c(a1)
   125f4: 08 60        	c.ld	a0, 0x0(s0)
   125f6: 10 61        	c.ld	a2, 0x0(a0)
   125f8: 49 45        	c.li	a0, 0x12
   125fa: 88 d5        	c.sw	a0, 0x28(a1)
   125fc: 22 85        	c.mv	a0, s0
   125fe: 02 96        	c.jalr	a2
   12600: 35 a0        	c.j	0x1262c <jpeg_finish_decompress+0x62>
   12602: 03 25 04 0a  	lw	a0, 0xa0(s0)
   12606: 83 25 44 08  	lw	a1, 0x84(s0)
   1260a: 63 79 b5 00  	bgeu	a0, a1, 0x1261c <jpeg_finish_decompress+0x52>
   1260e: 08 60        	c.ld	a0, 0x0(s0)
   12610: 0c 61        	c.ld	a1, 0x0(a0)
   12612: 13 06 20 04  	addi	a2, zero, 0x42
   12616: 10 d5        	c.sw	a2, 0x28(a0)
   12618: 22 85        	c.mv	a0, s0
   1261a: 82 95        	c.jalr	a1
   1261c: 03 35 04 21  	ld	a0, 0x210(s0)
   12620: 0c 65        	c.ld	a1, 0x8(a0)
   12622: 22 85        	c.mv	a0, s0
   12624: 82 95        	c.jalr	a1
   12626: 13 05 20 0d  	addi	a0, zero, 0xd2
   1262a: 48 cc        	c.sw	a0, 0x1c(s0)
   1262c: 03 35 04 23  	ld	a0, 0x230(s0)
   12630: 4c 51        	c.lw	a1, 0x24(a0)
   12632: 99 e5        	c.bnez	a1, 0x12640 <jpeg_finish_decompress+0x76>
   12634: 0c 61        	c.ld	a1, 0x0(a0)
   12636: 22 85        	c.mv	a0, s0
   12638: 82 95        	c.jalr	a1
   1263a: 6d f9        	c.bnez	a0, 0x1262c <jpeg_finish_decompress+0x62>
   1263c: 6f d0 a1 44  	jal	zero, 0x2fa86 <__riscv_restore_1>
   12640: 08 70        	c.ld	a0, 0x20(s0)
   12642: 0c 79        	c.ld	a1, 0x30(a0)
   12644: 22 85        	c.mv	a0, s0
   12646: 82 95        	c.jalr	a1
   12648: 22 85        	c.mv	a0, s0
   1264a: ef 80 20 5a  	jal	ra, 0x1abec <jpeg_abort>
   1264e: 05 45        	c.li	a0, 0x1
   12650: 6f d0 61 43  	jal	zero, 0x2fa86 <__riscv_restore_1>

0000000000012654 <jpeg_start_decompress>:
   12654: 01 11        	c.addi	sp, -0x20
   12656: 06 ec        	c.sdsp	ra, 0x18(sp)
   12658: 22 e8        	c.sdsp	s0, 0x10(sp)
   1265a: 26 e4        	c.sdsp	s1, 0x8(sp)
   1265c: 4a e0        	c.sdsp	s2, 0x0(sp)
   1265e: 2a 84        	c.mv	s0, a0
   12660: 48 4d        	c.lw	a0, 0x1c(a0)
   12662: 93 05 c0 0c  	addi	a1, zero, 0xcc
   12666: 63 0c b5 08  	beq	a0, a1, 0x126fe <jpeg_start_decompress+0xaa>
   1266a: 93 05 b0 0c  	addi	a1, zero, 0xcb
   1266e: 63 01 b5 04  	beq	a0, a1, 0x126b0 <jpeg_start_decompress+0x5c>
   12672: 93 05 a0 0c  	addi	a1, zero, 0xca
   12676: 63 11 b5 02  	bne	a0, a1, 0x12698 <jpeg_start_decompress+0x44>
   1267a: 22 85        	c.mv	a0, s0
   1267c: ef 00 80 6e  	jal	ra, 0x12d64 <jinit_master_decompress>
   12680: 28 48        	c.lw	a0, 0x50(s0)
   12682: 05 c5        	c.beqz	a0, 0x126aa <jpeg_start_decompress+0x56>
   12684: 13 05 f0 0c  	addi	a0, zero, 0xcf
   12688: 48 cc        	c.sw	a0, 0x1c(s0)
   1268a: 05 45        	c.li	a0, 0x1
   1268c: e2 60        	c.ldsp	ra, 0x18(sp)
   1268e: 42 64        	c.ldsp	s0, 0x10(sp)
   12690: a2 64        	c.ldsp	s1, 0x8(sp)
   12692: 02 69        	c.ldsp	s2, 0x0(sp)
   12694: 05 61        	c.addi16sp	sp, 0x20
   12696: 82 80        	c.jr	ra
   12698: 0c 60        	c.ld	a1, 0x0(s0)
   1269a: c8 d5        	c.sw	a0, 0x2c(a1)
   1269c: 08 60        	c.ld	a0, 0x0(s0)
   1269e: 10 61        	c.ld	a2, 0x0(a0)
   126a0: 49 45        	c.li	a0, 0x12
   126a2: 88 d5        	c.sw	a0, 0x28(a1)
   126a4: 22 85        	c.mv	a0, s0
   126a6: 02 96        	c.jalr	a2
   126a8: 99 a8        	c.j	0x126fe <jpeg_start_decompress+0xaa>
   126aa: 13 05 b0 0c  	addi	a0, zero, 0xcb
   126ae: 48 cc        	c.sw	a0, 0x1c(s0)
   126b0: 03 35 04 23  	ld	a0, 0x230(s0)
   126b4: 08 51        	c.lw	a0, 0x20(a0)
   126b6: 21 c1        	c.beqz	a0, 0x126f6 <jpeg_start_decompress+0xa2>
   126b8: 0c 68        	c.ld	a1, 0x10(s0)
   126ba: 89 44        	c.li	s1, 0x2
   126bc: 05 49        	c.li	s2, 0x1
   126be: 81 c5        	c.beqz	a1, 0x126c6 <jpeg_start_decompress+0x72>
   126c0: 8c 61        	c.ld	a1, 0x0(a1)
   126c2: 22 85        	c.mv	a0, s0
   126c4: 82 95        	c.jalr	a1
   126c6: 03 35 04 23  	ld	a0, 0x230(s0)
   126ca: 0c 61        	c.ld	a1, 0x0(a0)
   126cc: 22 85        	c.mv	a0, s0
   126ce: 82 95        	c.jalr	a1
   126d0: 55 dd        	c.beqz	a0, 0x1268c <jpeg_start_decompress+0x38>
   126d2: 63 02 95 02  	beq	a0, s1, 0x126f6 <jpeg_start_decompress+0xa2>
   126d6: 0c 68        	c.ld	a1, 0x10(s0)
   126d8: 75 99        	c.andi	a0, -0x3
   126da: e3 12 25 ff  	bne	a0, s2, 0x126be <jpeg_start_decompress+0x6a>
   126de: e5 d1        	c.beqz	a1, 0x126be <jpeg_start_decompress+0x6a>
   126e0: 90 65        	c.ld	a2, 0x8(a1)
   126e2: 88 69        	c.ld	a0, 0x10(a1)
   126e4: 05 06        	c.addi	a2, 0x1
   126e6: 90 e5        	c.sd	a2, 0x8(a1)
   126e8: e3 4b a6 fc  	blt	a2, a0, 0x126be <jpeg_start_decompress+0x6a>
   126ec: 03 66 04 19  	lwu	a2, 0x190(s0)
   126f0: 32 95        	c.add	a0, a2
   126f2: 88 e9        	c.sd	a0, 0x10(a1)
   126f4: e9 b7        	c.j	0x126be <jpeg_start_decompress+0x6a>
   126f6: 03 25 44 0a  	lw	a0, 0xa4(s0)
   126fa: 23 26 a4 0a  	sw	a0, 0xac(s0)
   126fe: 22 85        	c.mv	a0, s0
   12700: e2 60        	c.ldsp	ra, 0x18(sp)
   12702: 42 64        	c.ldsp	s0, 0x10(sp)
   12704: a2 64        	c.ldsp	s1, 0x8(sp)
   12706: 02 69        	c.ldsp	s2, 0x0(sp)
   12708: 05 61        	c.addi16sp	sp, 0x20
   1270a: 6f 00 40 00  	jal	zero, 0x1270e <output_pass_setup>

000000000001270e <output_pass_setup>:
   1270e: ef d2 c1 33  	jal	t0, 0x2fa4a <__riscv_save_3>
   12712: 2a 84        	c.mv	s0, a0
   12714: 48 4d        	c.lw	a0, 0x1c(a0)
   12716: 93 04 c0 0c  	addi	s1, zero, 0xcc
   1271a: 63 0a 95 00  	beq	a0, s1, 0x1272e <output_pass_setup+0x20>
   1271e: 03 35 04 21  	ld	a0, 0x210(s0)
   12722: 0c 61        	c.ld	a1, 0x0(a0)
   12724: 22 85        	c.mv	a0, s0
   12726: 82 95        	c.jalr	a1
   12728: 23 20 04 0a  	sw	zero, 0xa0(s0)
   1272c: 44 cc        	c.sw	s1, 0x1c(s0)
   1272e: 03 35 04 21  	ld	a0, 0x210(s0)
   12732: 08 49        	c.lw	a0, 0x10(a0)
   12734: 2d c5        	c.beqz	a0, 0x1279e <output_pass_setup+0x90>
   12736: 03 25 04 0a  	lw	a0, 0xa0(s0)
   1273a: 13 09 04 0a  	addi	s2, s0, 0xa0
   1273e: 83 25 44 08  	lw	a1, 0x84(s0)
   12742: 63 7d b5 02  	bgeu	a0, a1, 0x1277c <output_pass_setup+0x6e>
   12746: 10 68        	c.ld	a2, 0x10(s0)
   12748: 01 ce        	c.beqz	a2, 0x12760 <output_pass_setup+0x52>
   1274a: 02 15        	c.slli	a0, 0x20
   1274c: 01 91        	c.srli	a0, 0x20
   1274e: 08 e6        	c.sd	a0, 0x8(a2)
   12750: 14 62        	c.ld	a3, 0x0(a2)
   12752: 82 15        	c.slli	a1, 0x20
   12754: 81 91        	c.srli	a1, 0x20
   12756: 0c ea        	c.sd	a1, 0x10(a2)
   12758: 22 85        	c.mv	a0, s0
   1275a: 82 96        	c.jalr	a3
   1275c: 03 25 04 0a  	lw	a0, 0xa0(s0)
   12760: 83 35 84 21  	ld	a1, 0x218(s0)
   12764: 98 65        	c.ld	a4, 0x8(a1)
   12766: aa 84        	c.mv	s1, a0
   12768: 22 85        	c.mv	a0, s0
   1276a: 81 45        	c.li	a1, 0x0
   1276c: 4a 86        	c.mv	a2, s2
   1276e: 81 46        	c.li	a3, 0x0
   12770: 02 97        	c.jalr	a4
   12772: 03 25 04 0a  	lw	a0, 0xa0(s0)
   12776: e3 14 95 fc  	bne	a0, s1, 0x1273e <output_pass_setup+0x30>
   1277a: 1d a8        	c.j	0x127b0 <output_pass_setup+0xa2>
   1277c: 03 35 04 21  	ld	a0, 0x210(s0)
   12780: 0c 65        	c.ld	a1, 0x8(a0)
   12782: 22 85        	c.mv	a0, s0
   12784: 82 95        	c.jalr	a1
   12786: 03 35 04 21  	ld	a0, 0x210(s0)
   1278a: 0c 61        	c.ld	a1, 0x0(a0)
   1278c: 22 85        	c.mv	a0, s0
   1278e: 82 95        	c.jalr	a1
   12790: 03 35 04 21  	ld	a0, 0x210(s0)
   12794: 0c 49        	c.lw	a1, 0x10(a0)
   12796: 01 45        	c.li	a0, 0x0
   12798: 23 20 04 0a  	sw	zero, 0xa0(s0)
   1279c: cd f1        	c.bnez	a1, 0x1273e <output_pass_setup+0x30>
   1279e: 68 48        	c.lw	a0, 0x54(s0)
   127a0: 33 35 a0 00  	sltu	a0, zero, a0
   127a4: 13 05 d5 0c  	addi	a0, a0, 0xcd
   127a8: 48 cc        	c.sw	a0, 0x1c(s0)
   127aa: 05 45        	c.li	a0, 0x1
   127ac: 6f d0 41 2d  	jal	zero, 0x2fa80 <__riscv_restore_3>
   127b0: 01 45        	c.li	a0, 0x0
   127b2: 6f d0 e1 2c  	jal	zero, 0x2fa80 <__riscv_restore_3>

00000000000127b6 <jpeg_read_scanlines>:
   127b6: ef d2 41 29  	jal	t0, 0x2fa4a <__riscv_save_3>
   127ba: 41 11        	c.addi	sp, -0x10
   127bc: 2a 84        	c.mv	s0, a0
   127be: 48 4d        	c.lw	a0, 0x1c(a0)
   127c0: 93 06 d0 0c  	addi	a3, zero, 0xcd
   127c4: 32 89        	c.mv	s2, a2
   127c6: ae 84        	c.mv	s1, a1
   127c8: 63 0a d5 00  	beq	a0, a3, 0x127dc <jpeg_read_scanlines+0x26>
   127cc: 0c 60        	c.ld	a1, 0x0(s0)
   127ce: c8 d5        	c.sw	a0, 0x2c(a1)
   127d0: 08 60        	c.ld	a0, 0x0(s0)
   127d2: 10 61        	c.ld	a2, 0x0(a0)
   127d4: 49 45        	c.li	a0, 0x12
   127d6: 88 d5        	c.sw	a0, 0x28(a1)
   127d8: 22 85        	c.mv	a0, s0
   127da: 02 96        	c.jalr	a2
   127dc: 03 26 04 0a  	lw	a2, 0xa0(s0)
   127e0: 03 25 44 08  	lw	a0, 0x84(s0)
   127e4: 63 7d a6 02  	bgeu	a2, a0, 0x1281e <jpeg_read_scanlines+0x68>
   127e8: 0c 68        	c.ld	a1, 0x10(s0)
   127ea: 91 c9        	c.beqz	a1, 0x127fe <jpeg_read_scanlines+0x48>
   127ec: 02 16        	c.slli	a2, 0x20
   127ee: 01 92        	c.srli	a2, 0x20
   127f0: 90 e5        	c.sd	a2, 0x8(a1)
   127f2: 90 61        	c.ld	a2, 0x0(a1)
   127f4: 02 15        	c.slli	a0, 0x20
   127f6: 01 91        	c.srli	a0, 0x20
   127f8: 88 e9        	c.sd	a0, 0x10(a1)
   127fa: 22 85        	c.mv	a0, s0
   127fc: 02 96        	c.jalr	a2
   127fe: 03 35 84 21  	ld	a0, 0x218(s0)
   12802: 18 65        	c.ld	a4, 0x8(a0)
   12804: 02 c6        	c.swsp	zero, 0xc(sp)
   12806: 70 00        	c.addi4spn	a2, sp, 0xc
   12808: 22 85        	c.mv	a0, s0
   1280a: a6 85        	c.mv	a1, s1
   1280c: ca 86        	c.mv	a3, s2
   1280e: 02 97        	c.jalr	a4
   12810: 32 45        	c.lwsp	a0, 0xc(sp)
   12812: 83 25 04 0a  	lw	a1, 0xa0(s0)
   12816: aa 95        	c.add	a1, a0
   12818: 23 20 b4 0a  	sw	a1, 0xa0(s0)
   1281c: 11 a8        	c.j	0x12830 <jpeg_read_scanlines+0x7a>
   1281e: 08 60        	c.ld	a0, 0x0(s0)
   12820: 10 65        	c.ld	a2, 0x8(a0)
   12822: 93 05 70 07  	addi	a1, zero, 0x77
   12826: 0c d5        	c.sw	a1, 0x28(a0)
   12828: fd 55        	c.li	a1, -0x1
   1282a: 22 85        	c.mv	a0, s0
   1282c: 02 96        	c.jalr	a2
   1282e: 01 45        	c.li	a0, 0x0
   12830: 41 01        	c.addi	sp, 0x10
   12832: 6f d0 e1 24  	jal	zero, 0x2fa80 <__riscv_restore_3>

0000000000012836 <jpeg_read_raw_data>:
   12836: ef d2 a1 20  	jal	t0, 0x2fa40 <__riscv_save_5>
   1283a: 2a 84        	c.mv	s0, a0
   1283c: 48 4d        	c.lw	a0, 0x1c(a0)
   1283e: 93 06 e0 0c  	addi	a3, zero, 0xce
   12842: b2 89        	c.mv	s3, a2
   12844: 2e 89        	c.mv	s2, a1
   12846: 63 0a d5 00  	beq	a0, a3, 0x1285a <jpeg_read_raw_data+0x24>
   1284a: 0c 60        	c.ld	a1, 0x0(s0)
   1284c: c8 d5        	c.sw	a0, 0x2c(a1)
   1284e: 08 60        	c.ld	a0, 0x0(s0)
   12850: 10 61        	c.ld	a2, 0x0(a0)
   12852: 49 45        	c.li	a0, 0x12
   12854: 88 d5        	c.sw	a0, 0x28(a1)
   12856: 22 85        	c.mv	a0, s0
   12858: 02 96        	c.jalr	a2
   1285a: 03 26 04 0a  	lw	a2, 0xa0(s0)
   1285e: 03 25 44 08  	lw	a0, 0x84(s0)
   12862: 63 7a a6 04  	bgeu	a2, a0, 0x128b6 <jpeg_read_raw_data+0x80>
   12866: 0c 68        	c.ld	a1, 0x10(s0)
   12868: 91 c9        	c.beqz	a1, 0x1287c <jpeg_read_raw_data+0x46>
   1286a: 02 16        	c.slli	a2, 0x20
   1286c: 01 92        	c.srli	a2, 0x20
   1286e: 90 e5        	c.sd	a2, 0x8(a1)
   12870: 90 61        	c.ld	a2, 0x0(a1)
   12872: 02 15        	c.slli	a0, 0x20
   12874: 01 91        	c.srli	a0, 0x20
   12876: 88 e9        	c.sd	a0, 0x10(a1)
   12878: 22 85        	c.mv	a0, s0
   1287a: 02 96        	c.jalr	a2
   1287c: 83 25 84 18  	lw	a1, 0x188(s0)
   12880: 03 25 c4 18  	lw	a0, 0x18c(s0)
   12884: ef d0 c1 20  	jal	ra, 0x2fa90 <__muldi3>
   12888: aa 84        	c.mv	s1, a0
   1288a: 01 25        	c.addiw	a0, 0x0
   1288c: 63 f8 a9 00  	bgeu	s3, a0, 0x1289c <jpeg_read_raw_data+0x66>
   12890: 08 60        	c.ld	a0, 0x0(s0)
   12892: 0c 61        	c.ld	a1, 0x0(a0)
   12894: 55 46        	c.li	a2, 0x15
   12896: 10 d5        	c.sw	a2, 0x28(a0)
   12898: 22 85        	c.mv	a0, s0
   1289a: 82 95        	c.jalr	a1
   1289c: 03 35 04 22  	ld	a0, 0x220(s0)
   128a0: 10 6d        	c.ld	a2, 0x18(a0)
   128a2: 22 85        	c.mv	a0, s0
   128a4: ca 85        	c.mv	a1, s2
   128a6: 02 96        	c.jalr	a2
   128a8: 19 cd        	c.beqz	a0, 0x128c6 <jpeg_read_raw_data+0x90>
   128aa: 03 25 04 0a  	lw	a0, 0xa0(s0)
   128ae: 26 95        	c.add	a0, s1
   128b0: 23 20 a4 0a  	sw	a0, 0xa0(s0)
   128b4: 11 a8        	c.j	0x128c8 <jpeg_read_raw_data+0x92>
   128b6: 08 60        	c.ld	a0, 0x0(s0)
   128b8: 10 65        	c.ld	a2, 0x8(a0)
   128ba: 93 05 70 07  	addi	a1, zero, 0x77
   128be: 0c d5        	c.sw	a1, 0x28(a0)
   128c0: fd 55        	c.li	a1, -0x1
   128c2: 22 85        	c.mv	a0, s0
   128c4: 02 96        	c.jalr	a2
   128c6: 81 44        	c.li	s1, 0x0
   128c8: 1b 85 04 00  	addiw	a0, s1, 0x0
   128cc: 6f d0 e1 1a  	jal	zero, 0x2fa7a <__riscv_restore_5>

00000000000128d0 <jpeg_start_output>:
   128d0: 01 11        	c.addi	sp, -0x20
   128d2: 06 ec        	c.sdsp	ra, 0x18(sp)
   128d4: 22 e8        	c.sdsp	s0, 0x10(sp)
   128d6: 26 e4        	c.sdsp	s1, 0x8(sp)
   128d8: 2a 84        	c.mv	s0, a0
   128da: 48 4d        	c.lw	a0, 0x1c(a0)
   128dc: 13 06 c0 0c  	addi	a2, zero, 0xcc
   128e0: ae 84        	c.mv	s1, a1
   128e2: 63 0e c5 00  	beq	a0, a2, 0x128fe <jpeg_start_output+0x2e>
   128e6: 93 05 f0 0c  	addi	a1, zero, 0xcf
   128ea: 63 0a b5 00  	beq	a0, a1, 0x128fe <jpeg_start_output+0x2e>
   128ee: 0c 60        	c.ld	a1, 0x0(s0)
   128f0: c8 d5        	c.sw	a0, 0x2c(a1)
   128f2: 08 60        	c.ld	a0, 0x0(s0)
   128f4: 10 61        	c.ld	a2, 0x0(a0)
   128f6: 49 45        	c.li	a0, 0x12
   128f8: 88 d5        	c.sw	a0, 0x28(a1)
   128fa: 22 85        	c.mv	a0, s0
   128fc: 02 96        	c.jalr	a2
   128fe: 63 43 90 00  	blt	zero, s1, 0x12904 <jpeg_start_output+0x34>
   12902: 85 44        	c.li	s1, 0x1
   12904: 03 35 04 23  	ld	a0, 0x230(s0)
   12908: 48 51        	c.lw	a0, 0x24(a0)
   1290a: 11 c5        	c.beqz	a0, 0x12916 <jpeg_start_output+0x46>
   1290c: 03 25 44 0a  	lw	a0, 0xa4(s0)
   12910: 63 c3 a4 00  	blt	s1, a0, 0x12916 <jpeg_start_output+0x46>
   12914: aa 84        	c.mv	s1, a0
   12916: 23 26 94 0a  	sw	s1, 0xac(s0)
   1291a: 22 85        	c.mv	a0, s0
   1291c: e2 60        	c.ldsp	ra, 0x18(sp)
   1291e: 42 64        	c.ldsp	s0, 0x10(sp)
   12920: a2 64        	c.ldsp	s1, 0x8(sp)
   12922: 05 61        	c.addi16sp	sp, 0x20
   12924: 6f f0 bf de  	jal	zero, 0x1270e <output_pass_setup>

0000000000012928 <jpeg_finish_output>:
   12928: ef d2 41 13  	jal	t0, 0x2fa5c <__riscv_save_1>
   1292c: 2a 84        	c.mv	s0, a0
   1292e: 48 4d        	c.lw	a0, 0x1c(a0)
   12930: 9b 05 35 f3  	addiw	a1, a0, -0xcd
   12934: 05 46        	c.li	a2, 0x1
   12936: 63 6d b6 00  	bltu	a2, a1, 0x12950 <jpeg_finish_output+0x28>
   1293a: 2c 48        	c.lw	a1, 0x50(s0)
   1293c: 91 cd        	c.beqz	a1, 0x12958 <jpeg_finish_output+0x30>
   1293e: 03 35 04 21  	ld	a0, 0x210(s0)
   12942: 0c 65        	c.ld	a1, 0x8(a0)
   12944: 22 85        	c.mv	a0, s0
   12946: 82 95        	c.jalr	a1
   12948: 13 05 00 0d  	addi	a0, zero, 0xd0
   1294c: 48 cc        	c.sw	a0, 0x1c(s0)
   1294e: 29 a8        	c.j	0x12968 <jpeg_finish_output+0x40>
   12950: 93 05 00 0d  	addi	a1, zero, 0xd0
   12954: 63 0a b5 00  	beq	a0, a1, 0x12968 <jpeg_finish_output+0x40>
   12958: 0c 60        	c.ld	a1, 0x0(s0)
   1295a: c8 d5        	c.sw	a0, 0x2c(a1)
   1295c: 08 60        	c.ld	a0, 0x0(s0)
   1295e: 10 61        	c.ld	a2, 0x0(a0)
   12960: 49 45        	c.li	a0, 0x12
   12962: 88 d5        	c.sw	a0, 0x28(a1)
   12964: 22 85        	c.mv	a0, s0
   12966: 02 96        	c.jalr	a2
   12968: 03 25 44 0a  	lw	a0, 0xa4(s0)
   1296c: 83 25 c4 0a  	lw	a1, 0xac(s0)
   12970: 63 cc a5 00  	blt	a1, a0, 0x12988 <jpeg_finish_output+0x60>
   12974: 03 35 04 23  	ld	a0, 0x230(s0)
   12978: 4c 51        	c.lw	a1, 0x24(a0)
   1297a: 99 e5        	c.bnez	a1, 0x12988 <jpeg_finish_output+0x60>
   1297c: 0c 61        	c.ld	a1, 0x0(a0)
   1297e: 22 85        	c.mv	a0, s0
   12980: 82 95        	c.jalr	a1
   12982: 7d f1        	c.bnez	a0, 0x12968 <jpeg_finish_output+0x40>
   12984: 6f d0 21 10  	jal	zero, 0x2fa86 <__riscv_restore_1>
   12988: 13 05 f0 0c  	addi	a0, zero, 0xcf
   1298c: 48 cc        	c.sw	a0, 0x1c(s0)
   1298e: 05 45        	c.li	a0, 0x1
   12990: 6f d0 61 0f  	jal	zero, 0x2fa86 <__riscv_restore_1>

0000000000012994 <jpeg_stdio_src>:
   12994: ef d2 61 0b  	jal	t0, 0x2fa4a <__riscv_save_3>
   12998: 10 71        	c.ld	a2, 0x20(a0)
   1299a: 2e 89        	c.mv	s2, a1
   1299c: 1d e2        	c.bnez	a2, 0x129c2 <jpeg_stdio_src+0x2e>
   1299e: aa 84        	c.mv	s1, a0
   129a0: 08 65        	c.ld	a0, 0x8(a0)
   129a2: 14 61        	c.ld	a3, 0x0(a0)
   129a4: 13 06 00 05  	addi	a2, zero, 0x50
   129a8: 26 85        	c.mv	a0, s1
   129aa: 81 45        	c.li	a1, 0x0
   129ac: 82 96        	c.jalr	a3
   129ae: 8c 64        	c.ld	a1, 0x8(s1)
   129b0: 94 61        	c.ld	a3, 0x0(a1)
   129b2: 2a 84        	c.mv	s0, a0
   129b4: 88 f0        	c.sd	a0, 0x20(s1)
   129b6: 05 66        	c.lui	a2, 0x1
   129b8: 26 85        	c.mv	a0, s1
   129ba: 81 45        	c.li	a1, 0x0
   129bc: 82 96        	c.jalr	a3
   129be: 90 70        	c.ld	a2, 0x20(s1)
   129c0: 28 e0        	c.sd	a0, 0x40(s0)
   129c2: 37 35 01 00  	lui	a0, 0x13
   129c6: 13 05 45 a0  	addi	a0, a0, -0x5fc
   129ca: 08 ea        	c.sd	a0, 0x10(a2)
   129cc: 37 35 01 00  	lui	a0, 0x13
   129d0: 13 05 c5 a0  	addi	a0, a0, -0x5f4
   129d4: 08 ee        	c.sd	a0, 0x18(a2)
   129d6: 37 35 01 00  	lui	a0, 0x13
   129da: 13 05 a5 a6  	addi	a0, a0, -0x596
   129de: 08 f2        	c.sd	a0, 0x20(a2)
   129e0: 37 35 01 00  	lui	a0, 0x13
   129e4: 13 05 65 5e  	addi	a0, a0, 0x5e6
   129e8: 08 f6        	c.sd	a0, 0x28(a2)
   129ea: 37 35 01 00  	lui	a0, 0x13
   129ee: 13 05 25 aa  	addi	a0, a0, -0x55e
   129f2: 08 fa        	c.sd	a0, 0x30(a2)
   129f4: 23 3c 26 03  	sd	s2, 0x38(a2)
   129f8: 23 30 06 00  	sd	zero, 0x0(a2)
   129fc: 23 34 06 00  	sd	zero, 0x8(a2)
   12a00: 6f d0 01 08  	jal	zero, 0x2fa80 <__riscv_restore_3>

0000000000012a04 <init_source>:
   12a04: 08 71        	c.ld	a0, 0x20(a0)
   12a06: 85 45        	c.li	a1, 0x1
   12a08: 2c c5        	c.sw	a1, 0x48(a0)
   12a0a: 82 80        	c.jr	ra

0000000000012a0c <fill_input_buffer>:
   12a0c: ef d2 e1 03  	jal	t0, 0x2fa4a <__riscv_save_3>
   12a10: 2a 84        	c.mv	s0, a0
   12a12: 04 71        	c.ld	s1, 0x20(a0)
   12a14: a8 60        	c.ld	a0, 0x40(s1)
   12a16: 94 7c        	c.ld	a3, 0x38(s1)
   12a18: 85 45        	c.li	a1, 0x1
   12a1a: 05 66        	c.lui	a2, 0x1
   12a1c: ef 90 f0 73  	jal	ra, 0x1c95a <fread>
   12a20: 0d ed        	c.bnez	a0, 0x12a5a <fill_input_buffer+0x4e>
   12a22: a8 44        	c.lw	a0, 0x48(s1)
   12a24: 01 c9        	c.beqz	a0, 0x12a34 <fill_input_buffer+0x28>
   12a26: 08 60        	c.ld	a0, 0x0(s0)
   12a28: 0c 61        	c.ld	a1, 0x0(a0)
   12a2a: 13 06 90 02  	addi	a2, zero, 0x29
   12a2e: 10 d5        	c.sw	a2, 0x28(a0)
   12a30: 22 85        	c.mv	a0, s0
   12a32: 82 95        	c.jalr	a1
   12a34: 08 60        	c.ld	a0, 0x0(s0)
   12a36: 10 65        	c.ld	a2, 0x8(a0)
   12a38: 93 05 40 07  	addi	a1, zero, 0x74
   12a3c: 0c d5        	c.sw	a1, 0x28(a0)
   12a3e: fd 55        	c.li	a1, -0x1
   12a40: 22 85        	c.mv	a0, s0
   12a42: 02 96        	c.jalr	a2
   12a44: a8 60        	c.ld	a0, 0x40(s1)
   12a46: 93 05 f0 0f  	addi	a1, zero, 0xff
   12a4a: 23 00 b5 00  	sb	a1, 0x0(a0)
   12a4e: a8 60        	c.ld	a0, 0x40(s1)
   12a50: 93 05 90 0d  	addi	a1, zero, 0xd9
   12a54: a3 00 b5 00  	sb	a1, 0x1(a0)
   12a58: 09 45        	c.li	a0, 0x2
   12a5a: ac 60        	c.ld	a1, 0x40(s1)
   12a5c: 8c e0        	c.sd	a1, 0x0(s1)
   12a5e: 88 e4        	c.sd	a0, 0x8(s1)
   12a60: 05 45        	c.li	a0, 0x1
   12a62: 23 a4 04 04  	sw	zero, 0x48(s1)
   12a66: 6f d0 a1 01  	jal	zero, 0x2fa80 <__riscv_restore_3>

0000000000012a6a <skip_input_data>:
   12a6a: 63 5b b0 02  	bge	zero, a1, 0x12aa0 <skip_input_data+0x36>
   12a6e: ef c2 d1 7d  	jal	t0, 0x2fa4a <__riscv_save_3>
   12a72: 2e 84        	c.mv	s0, a1
   12a74: aa 84        	c.mv	s1, a0
   12a76: 03 39 05 02  	ld	s2, 0x20(a0)
   12a7a: 03 35 89 00  	ld	a0, 0x8(s2)
   12a7e: 63 57 85 00  	bge	a0, s0, 0x12a8c <skip_input_data+0x22>
   12a82: 09 8c        	c.sub	s0, a0
   12a84: 26 85        	c.mv	a0, s1
   12a86: ef f0 7f f8  	jal	ra, 0x12a0c <fill_input_buffer>
   12a8a: c5 bf        	c.j	0x12a7a <skip_input_data+0x10>
   12a8c: 83 35 09 00  	ld	a1, 0x0(s2)
   12a90: a2 95        	c.add	a1, s0
   12a92: 23 30 b9 00  	sd	a1, 0x0(s2)
   12a96: 01 8d        	c.sub	a0, s0
   12a98: 23 34 a9 00  	sd	a0, 0x8(s2)
   12a9c: 6f c0 51 7e  	jal	zero, 0x2fa80 <__riscv_restore_3>
   12aa0: 82 80        	c.jr	ra

0000000000012aa2 <term_source>:
   12aa2: 82 80        	c.jr	ra

0000000000012aa4 <jpeg_calc_output_dimensions>:
   12aa4: ef c2 71 77  	jal	t0, 0x2fa1a <__riscv_save_12>
   12aa8: 41 11        	c.addi	sp, -0x10
   12aaa: 2a 89        	c.mv	s2, a0
   12aac: 48 4d        	c.lw	a0, 0x1c(a0)
   12aae: 93 05 a0 0c  	addi	a1, zero, 0xca
   12ab2: 63 0c b5 00  	beq	a0, a1, 0x12aca <jpeg_calc_output_dimensions+0x26>
   12ab6: 83 35 09 00  	ld	a1, 0x0(s2)
   12aba: c8 d5        	c.sw	a0, 0x2c(a1)
   12abc: 03 35 09 00  	ld	a0, 0x0(s2)
   12ac0: 10 61        	c.ld	a2, 0x0(a0)
   12ac2: 49 45        	c.li	a0, 0x12
   12ac4: 88 d5        	c.sw	a0, 0x28(a1)
   12ac6: 4a 85        	c.mv	a0, s2
   12ac8: 02 96        	c.jalr	a2
   12aca: 03 25 c9 03  	lw	a0, 0x3c(s2)
   12ace: 83 25 09 04  	lw	a1, 0x40(s2)
   12ad2: 1b 16 35 00  	slliw	a2, a0, 0x3
   12ad6: 63 f3 c5 02  	bgeu	a1, a2, 0x12afc <jpeg_calc_output_dimensions+0x58>
   12ada: 1b 16 25 00  	slliw	a2, a0, 0x2
   12ade: 63 ff c5 02  	bgeu	a1, a2, 0x12b1c <jpeg_calc_output_dimensions+0x78>
   12ae2: 03 66 89 02  	lwu	a2, 0x28(s2)
   12ae6: 1b 15 15 00  	slliw	a0, a0, 0x1
   12aea: 63 f9 a5 04  	bgeu	a1, a0, 0x12b3c <jpeg_calc_output_dimensions+0x98>
   12aee: 03 25 c9 02  	lw	a0, 0x2c(s2)
   12af2: 81 4a        	c.li	s5, 0x0
   12af4: 23 20 c9 08  	sw	a2, 0x80(s2)
   12af8: a1 49        	c.li	s3, 0x8
   12afa: b9 a8        	c.j	0x12b58 <jpeg_calc_output_dimensions+0xb4>
   12afc: 03 65 89 02  	lwu	a0, 0x28(s2)
   12b00: a1 45        	c.li	a1, 0x8
   12b02: ef 80 80 15  	jal	ra, 0x1ac5a <jdiv_round_up>
   12b06: 03 66 c9 02  	lwu	a2, 0x2c(s2)
   12b0a: 23 20 a9 08  	sw	a0, 0x80(s2)
   12b0e: a1 45        	c.li	a1, 0x8
   12b10: 32 85        	c.mv	a0, a2
   12b12: ef 80 80 14  	jal	ra, 0x1ac5a <jdiv_round_up>
   12b16: 85 49        	c.li	s3, 0x1
   12b18: 85 4a        	c.li	s5, 0x1
   12b1a: 3d a8        	c.j	0x12b58 <jpeg_calc_output_dimensions+0xb4>
   12b1c: 03 65 89 02  	lwu	a0, 0x28(s2)
   12b20: 91 45        	c.li	a1, 0x4
   12b22: ef 80 80 13  	jal	ra, 0x1ac5a <jdiv_round_up>
   12b26: 03 66 c9 02  	lwu	a2, 0x2c(s2)
   12b2a: 23 20 a9 08  	sw	a0, 0x80(s2)
   12b2e: 91 45        	c.li	a1, 0x4
   12b30: 32 85        	c.mv	a0, a2
   12b32: ef 80 80 12  	jal	ra, 0x1ac5a <jdiv_round_up>
   12b36: 85 4a        	c.li	s5, 0x1
   12b38: 89 49        	c.li	s3, 0x2
   12b3a: 39 a8        	c.j	0x12b58 <jpeg_calc_output_dimensions+0xb4>
   12b3c: 89 45        	c.li	a1, 0x2
   12b3e: 32 85        	c.mv	a0, a2
   12b40: ef 80 a0 11  	jal	ra, 0x1ac5a <jdiv_round_up>
   12b44: 03 66 c9 02  	lwu	a2, 0x2c(s2)
   12b48: 23 20 a9 08  	sw	a0, 0x80(s2)
   12b4c: 89 45        	c.li	a1, 0x2
   12b4e: 32 85        	c.mv	a0, a2
   12b50: ef 80 a0 10  	jal	ra, 0x1ac5a <jdiv_round_up>
   12b54: 85 4a        	c.li	s5, 0x1
   12b56: 91 49        	c.li	s3, 0x4
   12b58: 03 2a 09 03  	lw	s4, 0x30(s2)
   12b5c: 23 22 a9 08  	sw	a0, 0x84(s2)
   12b60: 23 26 39 19  	sw	s3, 0x18c(s2)
   12b64: 63 5c 40 0d  	bge	zero, s4, 0x12c3c <jpeg_calc_output_dimensions+0x198>
   12b68: 83 3d 89 12  	ld	s11, 0x128(s2)
   12b6c: 81 4b        	c.li	s7, 0x0
   12b6e: 11 4c        	c.li	s8, 0x4
   12b70: 6e e4        	c.sdsp	s11, 0x8(sp)
   12b72: 4e 84        	c.mv	s0, s3
   12b74: 63 8b 0a 04  	beq	s5, zero, 0x12bca <jpeg_calc_output_dimensions+0x126>
   12b78: 83 ac 8d 00  	lw	s9, 0x8(s11)
   12b7c: 03 25 49 18  	lw	a0, 0x184(s2)
   12b80: ce 85        	c.mv	a1, s3
   12b82: ef c0 f1 70  	jal	ra, 0x2fa90 <__muldi3>
   12b86: 1b 0d 05 00  	addiw	s10, a0, 0x0
   12b8a: 4e 84        	c.mv	s0, s3
   12b8c: a2 84        	c.mv	s1, s0
   12b8e: 13 15 14 00  	slli	a0, s0, 0x1
   12b92: e6 85        	c.mv	a1, s9
   12b94: ef c0 d1 6f  	jal	ra, 0x2fa90 <__muldi3>
   12b98: 01 25        	c.addiw	a0, 0x0
   12b9a: 63 47 ad 02  	blt	s10, a0, 0x12bc8 <jpeg_calc_output_dimensions+0x124>
   12b9e: 83 a5 cd 00  	lw	a1, 0xc(s11)
   12ba2: 1b 94 14 00  	slliw	s0, s1, 0x1
   12ba6: 22 85        	c.mv	a0, s0
   12ba8: ef c0 91 6e  	jal	ra, 0x2fa90 <__muldi3>
   12bac: 83 25 89 18  	lw	a1, 0x188(s2)
   12bb0: 1b 0b 05 00  	addiw	s6, a0, 0x0
   12bb4: 2e 85        	c.mv	a0, a1
   12bb6: ce 85        	c.mv	a1, s3
   12bb8: ef c0 91 6d  	jal	ra, 0x2fa90 <__muldi3>
   12bbc: 01 25        	c.addiw	a0, 0x0
   12bbe: 63 45 65 01  	blt	a0, s6, 0x12bc8 <jpeg_calc_output_dimensions+0x124>
   12bc2: e3 c5 84 fd  	blt	s1, s8, 0x12b8c <jpeg_calc_output_dimensions+0xe8>
   12bc6: 11 a0        	c.j	0x12bca <jpeg_calc_output_dimensions+0x126>
   12bc8: 26 84        	c.mv	s0, s1
   12bca: 23 a2 8d 02  	sw	s0, 0x24(s11)
   12bce: 85 2b        	c.addiw	s7, 0x1
   12bd0: 93 8d 0d 06  	addi	s11, s11, 0x60
   12bd4: e3 9f 4b f9  	bne	s7, s4, 0x12b72 <jpeg_calc_output_dimensions+0xce>
   12bd8: 63 52 40 07  	bge	zero, s4, 0x12c3c <jpeg_calc_output_dimensions+0x198>
   12bdc: 81 44        	c.li	s1, 0x0
   12bde: 22 65        	c.ldsp	a0, 0x8(sp)
   12be0: 13 04 45 02  	addi	s0, a0, 0x24
   12be4: 83 69 89 02  	lwu	s3, 0x28(s2)
   12be8: 83 25 44 fe  	lw	a1, -0x1c(s0)
   12bec: 08 40        	c.lw	a0, 0x0(s0)
   12bee: ef c0 31 6a  	jal	ra, 0x2fa90 <__muldi3>
   12bf2: 01 25        	c.addiw	a0, 0x0
   12bf4: ce 85        	c.mv	a1, s3
   12bf6: ef c0 b1 69  	jal	ra, 0x2fa90 <__muldi3>
   12bfa: 83 25 49 18  	lw	a1, 0x184(s2)
   12bfe: 9b 95 35 00  	slliw	a1, a1, 0x3
   12c02: ef 80 80 05  	jal	ra, 0x1ac5a <jdiv_round_up>
   12c06: 83 69 c9 02  	lwu	s3, 0x2c(s2)
   12c0a: 83 25 84 fe  	lw	a1, -0x18(s0)
   12c0e: 10 40        	c.lw	a2, 0x0(s0)
   12c10: 48 c0        	c.sw	a0, 0x4(s0)
   12c12: 32 85        	c.mv	a0, a2
   12c14: ef c0 d1 67  	jal	ra, 0x2fa90 <__muldi3>
   12c18: 01 25        	c.addiw	a0, 0x0
   12c1a: ce 85        	c.mv	a1, s3
   12c1c: ef c0 51 67  	jal	ra, 0x2fa90 <__muldi3>
   12c20: 83 25 89 18  	lw	a1, 0x188(s2)
   12c24: 9b 95 35 00  	slliw	a1, a1, 0x3
   12c28: ef 80 20 03  	jal	ra, 0x1ac5a <jdiv_round_up>
   12c2c: 03 2a 09 03  	lw	s4, 0x30(s2)
   12c30: 08 c4        	c.sw	a0, 0x8(s0)
   12c32: 85 24        	c.addiw	s1, 0x1
   12c34: 13 04 04 06  	addi	s0, s0, 0x60
   12c38: e3 c6 44 fb  	blt	s1, s4, 0x12be4 <jpeg_calc_output_dimensions+0x140>
   12c3c: 03 25 89 03  	lw	a0, 0x38(s2)
   12c40: 7d 35        	c.addiw	a0, -0x1
   12c42: 91 45        	c.li	a1, 0x4
   12c44: 63 ea a5 00  	bltu	a1, a0, 0x12c58 <jpeg_calc_output_dimensions+0x1b4>
   12c48: 0a 05        	c.slli	a0, 0x2
   12c4a: b7 25 03 00  	lui	a1, 0x32
   12c4e: 93 85 45 96  	addi	a1, a1, -0x69c
   12c52: 2e 95        	c.add	a0, a1
   12c54: 03 2a 05 00  	lw	s4, 0x0(a0)
   12c58: 03 25 49 06  	lw	a0, 0x64(s2)
   12c5c: 23 24 49 09  	sw	s4, 0x88(s2)
   12c60: 05 44        	c.li	s0, 0x1
   12c62: 11 c1        	c.beqz	a0, 0x12c66 <jpeg_calc_output_dimensions+0x1c2>
   12c64: 05 4a        	c.li	s4, 0x1
   12c66: 23 26 49 09  	sw	s4, 0x8c(s2)
   12c6a: 4a 85        	c.mv	a0, s2
   12c6c: ef 00 40 01  	jal	ra, 0x12c80 <use_merged_upsample>
   12c70: 19 c1        	c.beqz	a0, 0x12c76 <jpeg_calc_output_dimensions+0x1d2>
   12c72: 03 24 89 18  	lw	s0, 0x188(s2)
   12c76: 23 28 89 08  	sw	s0, 0x90(s2)
   12c7a: 41 01        	c.addi	sp, 0x10
   12c7c: 6f c0 91 5e  	jal	zero, 0x2fa64 <__riscv_restore_12>

0000000000012c80 <use_merged_upsample>:
   12c80: 6c 4d        	c.lw	a1, 0x5c(a0)
   12c82: ad ed        	c.bnez	a1, 0x12cfc <use_merged_upsample+0x7c>
   12c84: 83 25 05 18  	lw	a1, 0x180(a0)
   12c88: b5 e9        	c.bnez	a1, 0x12cfc <use_merged_upsample+0x7c>
   12c8a: 50 59        	c.lw	a2, 0x34(a0)
   12c8c: 8d 45        	c.li	a1, 0x3
   12c8e: 63 17 b6 06  	bne	a2, a1, 0x12cfc <use_merged_upsample+0x7c>
   12c92: 10 59        	c.lw	a2, 0x30(a0)
   12c94: 63 14 b6 06  	bne	a2, a1, 0x12cfc <use_merged_upsample+0x7c>
   12c98: 0c 5d        	c.lw	a1, 0x38(a0)
   12c9a: 09 46        	c.li	a2, 0x2
   12c9c: 63 90 c5 06  	bne	a1, a2, 0x12cfc <use_merged_upsample+0x7c>
   12ca0: 83 25 85 08  	lw	a1, 0x88(a0)
   12ca4: 0d 46        	c.li	a2, 0x3
   12ca6: 63 9b c5 04  	bne	a1, a2, 0x12cfc <use_merged_upsample+0x7c>
   12caa: 83 35 85 12  	ld	a1, 0x128(a0)
   12cae: 90 45        	c.lw	a2, 0x8(a1)
   12cb0: 89 46        	c.li	a3, 0x2
   12cb2: 63 15 d6 04  	bne	a2, a3, 0x12cfc <use_merged_upsample+0x7c>
   12cb6: b4 55        	c.lw	a3, 0x68(a1)
   12cb8: 05 46        	c.li	a2, 0x1
   12cba: 63 91 c6 04  	bne	a3, a2, 0x12cfc <use_merged_upsample+0x7c>
   12cbe: 83 a6 85 0c  	lw	a3, 0xc8(a1)
   12cc2: 63 9d c6 02  	bne	a3, a2, 0x12cfc <use_merged_upsample+0x7c>
   12cc6: d0 45        	c.lw	a2, 0xc(a1)
   12cc8: 89 46        	c.li	a3, 0x2
   12cca: 63 c9 c6 02  	blt	a3, a2, 0x12cfc <use_merged_upsample+0x7c>
   12cce: f4 55        	c.lw	a3, 0x6c(a1)
   12cd0: 05 46        	c.li	a2, 0x1
   12cd2: 63 95 c6 02  	bne	a3, a2, 0x12cfc <use_merged_upsample+0x7c>
   12cd6: 83 a6 c5 0c  	lw	a3, 0xcc(a1)
   12cda: 63 91 c6 02  	bne	a3, a2, 0x12cfc <use_merged_upsample+0x7c>
   12cde: d0 51        	c.lw	a2, 0x24(a1)
   12ce0: 03 25 c5 18  	lw	a0, 0x18c(a0)
   12ce4: 63 1c a6 00  	bne	a2, a0, 0x12cfc <use_merged_upsample+0x7c>
   12ce8: 03 a5 45 08  	lw	a0, 0x84(a1)
   12cec: 63 18 c5 00  	bne	a0, a2, 0x12cfc <use_merged_upsample+0x7c>
   12cf0: 03 a5 45 0e  	lw	a0, 0xe4(a1)
   12cf4: 31 8d        	c.xor	a0, a2
   12cf6: 13 35 15 00  	sltiu	a0, a0, 0x1
   12cfa: 82 80        	c.jr	ra
   12cfc: 01 45        	c.li	a0, 0x0
   12cfe: 82 80        	c.jr	ra

0000000000012d00 <jpeg_new_colormap>:
   12d00: 01 11        	c.addi	sp, -0x20
   12d02: 06 ec        	c.sdsp	ra, 0x18(sp)
   12d04: 22 e8        	c.sdsp	s0, 0x10(sp)
   12d06: 26 e4        	c.sdsp	s1, 0x8(sp)
   12d08: 2a 84        	c.mv	s0, a0
   12d0a: 48 4d        	c.lw	a0, 0x1c(a0)
   12d0c: 83 34 04 21  	ld	s1, 0x210(s0)
   12d10: 93 05 f0 0c  	addi	a1, zero, 0xcf
   12d14: 63 0a b5 00  	beq	a0, a1, 0x12d28 <jpeg_new_colormap+0x28>
   12d18: 0c 60        	c.ld	a1, 0x0(s0)
   12d1a: c8 d5        	c.sw	a0, 0x2c(a1)
   12d1c: 08 60        	c.ld	a0, 0x0(s0)
   12d1e: 10 61        	c.ld	a2, 0x0(a0)
   12d20: 49 45        	c.li	a0, 0x12
   12d22: 88 d5        	c.sw	a0, 0x28(a1)
   12d24: 22 85        	c.mv	a0, s0
   12d26: 02 96        	c.jalr	a2
   12d28: 68 50        	c.lw	a0, 0x64(s0)
   12d2a: 15 c1        	c.beqz	a0, 0x12d4e <jpeg_new_colormap+0x4e>
   12d2c: 28 5c        	c.lw	a0, 0x78(s0)
   12d2e: 05 c1        	c.beqz	a0, 0x12d4e <jpeg_new_colormap+0x4e>
   12d30: 48 6c        	c.ld	a0, 0x98(s0)
   12d32: 11 cd        	c.beqz	a0, 0x12d4e <jpeg_new_colormap+0x4e>
   12d34: 88 74        	c.ld	a0, 0x28(s1)
   12d36: 0c 6d        	c.ld	a1, 0x18(a0)
   12d38: 23 30 a4 26  	sd	a0, 0x260(s0)
   12d3c: 22 85        	c.mv	a0, s0
   12d3e: 82 95        	c.jalr	a1
   12d40: 23 a8 04 00  	sw	zero, 0x10(s1)
   12d44: e2 60        	c.ldsp	ra, 0x18(sp)
   12d46: 42 64        	c.ldsp	s0, 0x10(sp)
   12d48: a2 64        	c.ldsp	s1, 0x8(sp)
   12d4a: 05 61        	c.addi16sp	sp, 0x20
   12d4c: 82 80        	c.jr	ra
   12d4e: 08 60        	c.ld	a0, 0x0(s0)
   12d50: 1c 61        	c.ld	a5, 0x0(a0)
   12d52: 93 05 d0 02  	addi	a1, zero, 0x2d
   12d56: 0c d5        	c.sw	a1, 0x28(a0)
   12d58: 22 85        	c.mv	a0, s0
   12d5a: e2 60        	c.ldsp	ra, 0x18(sp)
   12d5c: 42 64        	c.ldsp	s0, 0x10(sp)
   12d5e: a2 64        	c.ldsp	s1, 0x8(sp)
   12d60: 05 61        	c.addi16sp	sp, 0x20
   12d62: 82 87        	c.jr	a5

0000000000012d64 <jinit_master_decompress>:
   12d64: ef c2 d1 4d  	jal	t0, 0x2fa40 <__riscv_save_5>
   12d68: 2a 8a        	c.mv	s4, a0
   12d6a: 08 65        	c.ld	a0, 0x8(a0)
   12d6c: 14 61        	c.ld	a3, 0x0(a0)
   12d6e: 85 45        	c.li	a1, 0x1
   12d70: 13 06 00 03  	addi	a2, zero, 0x30
   12d74: 52 85        	c.mv	a0, s4
   12d76: 82 96        	c.jalr	a3
   12d78: 2a 89        	c.mv	s2, a0
   12d7a: 23 38 aa 20  	sd	a0, 0x210(s4)
   12d7e: 37 35 01 00  	lui	a0, 0x13
   12d82: 13 05 a5 fc  	addi	a0, a0, -0x36
   12d86: 23 30 a9 00  	sd	a0, 0x0(s2)
   12d8a: 37 35 01 00  	lui	a0, 0x13
   12d8e: 13 05 c5 0d  	addi	a0, a0, 0xdc
   12d92: 23 34 a9 00  	sd	a0, 0x8(s2)
   12d96: 23 28 09 00  	sw	zero, 0x10(s2)
   12d9a: 52 85        	c.mv	a0, s4
   12d9c: ef f0 9f d0  	jal	ra, 0x12aa4 <jpeg_calc_output_dimensions>
   12da0: 03 35 8a 00  	ld	a0, 0x8(s4)
   12da4: 14 61        	c.ld	a3, 0x0(a0)
   12da6: 85 45        	c.li	a1, 0x1
   12da8: 13 06 00 58  	addi	a2, zero, 0x580
   12dac: 52 85        	c.mv	a0, s4
   12dae: 82 96        	c.jalr	a3
   12db0: aa 89        	c.mv	s3, a0
   12db2: 93 04 05 10  	addi	s1, a0, 0x100
   12db6: 23 3c 9a 18  	sd	s1, 0x198(s4)
   12dba: 13 06 00 10  	addi	a2, zero, 0x100
   12dbe: 13 04 00 10  	addi	s0, zero, 0x100
   12dc2: 81 45        	c.li	a1, 0x0
   12dc4: ef a0 90 2d  	jal	ra, 0x1d89c <memset>
   12dc8: 01 45        	c.li	a0, 0x0
   12dca: b3 85 a4 00  	add	a1, s1, a0
   12dce: 23 80 a5 00  	sb	a0, 0x0(a1)
   12dd2: 05 05        	c.addi	a0, 0x1
   12dd4: e3 1b 85 fe  	bne	a0, s0, 0x12dca <jinit_master_decompress+0x66>
   12dd8: 13 85 09 20  	addi	a0, s3, 0x200
   12ddc: 93 05 f0 0f  	addi	a1, zero, 0xff
   12de0: 13 06 00 18  	addi	a2, zero, 0x180
   12de4: ef a0 90 2b  	jal	ra, 0x1d89c <memset>
   12de8: 13 85 09 38  	addi	a0, s3, 0x380
   12dec: 13 06 00 18  	addi	a2, zero, 0x180
   12df0: 81 45        	c.li	a1, 0x0
   12df2: ef a0 b0 2a  	jal	ra, 0x1d89c <memset>
   12df6: 83 35 8a 19  	ld	a1, 0x198(s4)
   12dfa: 13 85 09 50  	addi	a0, s3, 0x500
   12dfe: 13 06 00 08  	addi	a2, zero, 0x80
   12e02: ef a0 50 34  	jal	ra, 0x1d946 <memcpy>
   12e06: 83 65 0a 08  	lwu	a1, 0x80(s4)
   12e0a: 03 25 8a 08  	lw	a0, 0x88(s4)
   12e0e: ef c0 31 48  	jal	ra, 0x2fa90 <__muldi3>
   12e12: 01 91        	c.srli	a0, 0x20
   12e14: 09 c9        	c.beqz	a0, 0x12e26 <jinit_master_decompress+0xc2>
   12e16: 03 35 0a 00  	ld	a0, 0x0(s4)
   12e1a: 0c 61        	c.ld	a1, 0x0(a0)
   12e1c: 13 06 50 04  	addi	a2, zero, 0x45
   12e20: 10 d5        	c.sw	a2, 0x28(a0)
   12e22: 52 85        	c.mv	a0, s4
   12e24: 82 95        	c.jalr	a1
   12e26: 23 2c 09 00  	sw	zero, 0x18(s2)
   12e2a: 52 85        	c.mv	a0, s4
   12e2c: ef f0 5f e5  	jal	ra, 0x12c80 <use_merged_upsample>
   12e30: 23 30 09 02  	sd	zero, 0x20(s2)
   12e34: 23 34 09 02  	sd	zero, 0x28(s2)
   12e38: 83 25 4a 06  	lw	a1, 0x64(s4)
   12e3c: 23 2e a9 00  	sw	a0, 0x1c(s2)
   12e40: a1 c1        	c.beqz	a1, 0x12e80 <jinit_master_decompress+0x11c>
   12e42: 03 25 0a 05  	lw	a0, 0x50(s4)
   12e46: 09 e5        	c.bnez	a0, 0x12e50 <jinit_master_decompress+0xec>
   12e48: 23 2a 0a 06  	sw	zero, 0x74(s4)
   12e4c: 23 3c 0a 06  	sd	zero, 0x78(s4)
   12e50: 03 25 4a 05  	lw	a0, 0x54(s4)
   12e54: 09 c9        	c.beqz	a0, 0x12e66 <jinit_master_decompress+0x102>
   12e56: 03 35 0a 00  	ld	a0, 0x0(s4)
   12e5a: 0c 61        	c.ld	a1, 0x0(a0)
   12e5c: 13 06 e0 02  	addi	a2, zero, 0x2e
   12e60: 10 d5        	c.sw	a2, 0x28(a0)
   12e62: 52 85        	c.mv	a0, s4
   12e64: 82 95        	c.jalr	a1
   12e66: 03 25 8a 08  	lw	a0, 0x88(s4)
   12e6a: 8d 45        	c.li	a1, 0x3
   12e6c: 63 1f b5 00  	bne	a0, a1, 0x12e8a <jinit_master_decompress+0x126>
   12e70: 03 35 8a 09  	ld	a0, 0x98(s4)
   12e74: 63 00 05 14  	beq	a0, zero, 0x12fb4 <jinit_master_decompress+0x250>
   12e78: 05 45        	c.li	a0, 0x1
   12e7a: 23 2c aa 06  	sw	a0, 0x78(s4)
   12e7e: 29 a8        	c.j	0x12e98 <jinit_master_decompress+0x134>
   12e80: 23 2a 0a 06  	sw	zero, 0x74(s4)
   12e84: 23 3c 0a 06  	sd	zero, 0x78(s4)
   12e88: 81 a0        	c.j	0x12ec8 <jinit_master_decompress+0x164>
   12e8a: 05 45        	c.li	a0, 0x1
   12e8c: 23 2a aa 06  	sw	a0, 0x74(s4)
   12e90: 23 3c 0a 06  	sd	zero, 0x78(s4)
   12e94: 23 3c 0a 08  	sd	zero, 0x98(s4)
   12e98: 03 25 4a 07  	lw	a0, 0x74(s4)
   12e9c: 09 c9        	c.beqz	a0, 0x12eae <jinit_master_decompress+0x14a>
   12e9e: 13 04 09 02  	addi	s0, s2, 0x20
   12ea2: 52 85        	c.mv	a0, s4
   12ea4: ef 50 d0 64  	jal	ra, 0x18cf0 <jinit_1pass_quantizer>
   12ea8: 03 35 0a 26  	ld	a0, 0x260(s4)
   12eac: 08 e0        	c.sd	a0, 0x0(s0)
   12eae: 03 25 ca 07  	lw	a0, 0x7c(s4)
   12eb2: 01 e5        	c.bnez	a0, 0x12eba <jinit_master_decompress+0x156>
   12eb4: 03 25 8a 07  	lw	a0, 0x78(s4)
   12eb8: 01 c9        	c.beqz	a0, 0x12ec8 <jinit_master_decompress+0x164>
   12eba: 52 85        	c.mv	a0, s4
   12ebc: ef 60 b0 07  	jal	ra, 0x19736 <jinit_2pass_quantizer>
   12ec0: 03 35 0a 26  	ld	a0, 0x260(s4)
   12ec4: 23 34 a9 02  	sd	a0, 0x28(s2)
   12ec8: 03 25 4a 05  	lw	a0, 0x54(s4)
   12ecc: 1d e1        	c.bnez	a0, 0x12ef2 <jinit_master_decompress+0x18e>
   12ece: 03 25 c9 01  	lw	a0, 0x1c(s2)
   12ed2: 09 c5        	c.beqz	a0, 0x12edc <jinit_master_decompress+0x178>
   12ed4: 52 85        	c.mv	a0, s4
   12ed6: ef 70 20 7f  	jal	ra, 0x1a6c8 <jinit_merged_upsampler>
   12eda: 39 a0        	c.j	0x12ee8 <jinit_master_decompress+0x184>
   12edc: 52 85        	c.mv	a0, s4
   12ede: ef 50 d0 1e  	jal	ra, 0x188ca <jinit_color_deconverter>
   12ee2: 52 85        	c.mv	a0, s4
   12ee4: ef 50 80 39  	jal	ra, 0x1827c <jinit_upsampler>
   12ee8: 83 25 ca 07  	lw	a1, 0x7c(s4)
   12eec: 52 85        	c.mv	a0, s4
   12eee: ef 30 d0 61  	jal	ra, 0x16d0a <jinit_d_post_controller>
   12ef2: 52 85        	c.mv	a0, s4
   12ef4: ef 40 00 0a  	jal	ra, 0x16f94 <jinit_inverse_dct>
   12ef8: 03 25 4a 13  	lw	a0, 0x134(s4)
   12efc: 09 c9        	c.beqz	a0, 0x12f0e <jinit_master_decompress+0x1aa>
   12efe: 03 35 0a 00  	ld	a0, 0x0(s4)
   12f02: 0c 61        	c.ld	a1, 0x0(a0)
   12f04: 05 46        	c.li	a2, 0x1
   12f06: 10 d5        	c.sw	a2, 0x28(a0)
   12f08: 52 85        	c.mv	a0, s4
   12f0a: 82 95        	c.jalr	a1
   12f0c: 19 a8        	c.j	0x12f22 <jinit_master_decompress+0x1be>
   12f0e: 03 25 0a 13  	lw	a0, 0x130(s4)
   12f12: 09 c5        	c.beqz	a0, 0x12f1c <jinit_master_decompress+0x1b8>
   12f14: 52 85        	c.mv	a0, s4
   12f16: ef 20 80 2d  	jal	ra, 0x151ee <jinit_phuff_decoder>
   12f1a: 21 a0        	c.j	0x12f22 <jinit_master_decompress+0x1be>
   12f1c: 52 85        	c.mv	a0, s4
   12f1e: ef 10 d0 62  	jal	ra, 0x14d4a <jinit_huff_decoder>
   12f22: 03 35 0a 23  	ld	a0, 0x230(s4)
   12f26: 08 51        	c.lw	a0, 0x20(a0)
   12f28: 85 45        	c.li	a1, 0x1
   12f2a: 09 e5        	c.bnez	a0, 0x12f34 <jinit_master_decompress+0x1d0>
   12f2c: 03 25 0a 05  	lw	a0, 0x50(s4)
   12f30: b3 35 a0 00  	sltu	a1, zero, a0
   12f34: 52 85        	c.mv	a0, s4
   12f36: ef 30 80 2c  	jal	ra, 0x161fe <jinit_d_coef_controller>
   12f3a: 03 25 4a 05  	lw	a0, 0x54(s4)
   12f3e: 09 e5        	c.bnez	a0, 0x12f48 <jinit_master_decompress+0x1e4>
   12f40: 52 85        	c.mv	a0, s4
   12f42: 81 45        	c.li	a1, 0x0
   12f44: ef 20 f0 4d  	jal	ra, 0x15c22 <jinit_d_main_controller>
   12f48: 03 35 8a 00  	ld	a0, 0x8(s4)
   12f4c: 0c 79        	c.ld	a1, 0x30(a0)
   12f4e: 52 85        	c.mv	a0, s4
   12f50: 82 95        	c.jalr	a1
   12f52: 03 35 0a 23  	ld	a0, 0x230(s4)
   12f56: 0c 69        	c.ld	a1, 0x10(a0)
   12f58: 52 85        	c.mv	a0, s4
   12f5a: 82 95        	c.jalr	a1
   12f5c: 83 34 0a 01  	ld	s1, 0x10(s4)
   12f60: 81 c4        	c.beqz	s1, 0x12f68 <jinit_master_decompress+0x204>
   12f62: 03 25 0a 05  	lw	a0, 0x50(s4)
   12f66: 19 c1        	c.beqz	a0, 0x12f6c <jinit_master_decompress+0x208>
   12f68: 6f c0 31 31  	jal	zero, 0x2fa7a <__riscv_restore_5>
   12f6c: 03 35 0a 23  	ld	a0, 0x230(s4)
   12f70: 08 51        	c.lw	a0, 0x20(a0)
   12f72: 7d d9        	c.beqz	a0, 0x12f68 <jinit_master_decompress+0x204>
   12f74: 83 25 0a 13  	lw	a1, 0x130(s4)
   12f78: 03 25 0a 03  	lw	a0, 0x30(s4)
   12f7c: 89 c5        	c.beqz	a1, 0x12f86 <jinit_master_decompress+0x222>
   12f7e: 93 15 15 00  	slli	a1, a0, 0x1
   12f82: 2e 95        	c.add	a0, a1
   12f84: 09 25        	c.addiw	a0, 0x2
   12f86: 83 65 0a 19  	lwu	a1, 0x190(s4)
   12f8a: 23 b4 04 00  	sd	zero, 0x8(s1)
   12f8e: ef c0 31 30  	jal	ra, 0x2fa90 <__muldi3>
   12f92: 83 25 ca 07  	lw	a1, 0x7c(s4)
   12f96: 88 e8        	c.sd	a0, 0x10(s1)
   12f98: 23 ac 04 00  	sw	zero, 0x18(s1)
   12f9c: 03 25 89 01  	lw	a0, 0x18(s2)
   12fa0: 93 b5 15 00  	sltiu	a1, a1, 0x1
   12fa4: 93 c5 35 00  	xori	a1, a1, 0x3
   12fa8: cc cc        	c.sw	a1, 0x1c(s1)
   12faa: 05 05        	c.addi	a0, 0x1
   12fac: 23 2c a9 00  	sw	a0, 0x18(s2)
   12fb0: 6f c0 b1 2c  	jal	zero, 0x2fa7a <__riscv_restore_5>
   12fb4: 03 25 ca 06  	lw	a0, 0x6c(s4)
   12fb8: 09 c5        	c.beqz	a0, 0x12fc2 <jinit_master_decompress+0x25e>
   12fba: 05 45        	c.li	a0, 0x1
   12fbc: 23 2e aa 06  	sw	a0, 0x7c(s4)
   12fc0: e1 bd        	c.j	0x12e98 <jinit_master_decompress+0x134>
   12fc2: 05 45        	c.li	a0, 0x1
   12fc4: 23 2a aa 06  	sw	a0, 0x74(s4)
   12fc8: c1 bd        	c.j	0x12e98 <jinit_master_decompress+0x134>

0000000000012fca <prepare_for_output_pass>:
   12fca: ef c2 11 28  	jal	t0, 0x2fa4a <__riscv_save_3>
   12fce: 2a 84        	c.mv	s0, a0
   12fd0: 03 39 05 21  	ld	s2, 0x210(a0)
   12fd4: 03 25 09 01  	lw	a0, 0x10(s2)
   12fd8: 1d c5        	c.beqz	a0, 0x13006 <prepare_for_output_pass+0x3c>
   12fda: 03 35 04 26  	ld	a0, 0x260(s0)
   12fde: 10 61        	c.ld	a2, 0x0(a0)
   12fe0: 23 28 09 00  	sw	zero, 0x10(s2)
   12fe4: 22 85        	c.mv	a0, s0
   12fe6: 81 45        	c.li	a1, 0x0
   12fe8: 02 96        	c.jalr	a2
   12fea: 03 35 84 22  	ld	a0, 0x228(s0)
   12fee: 10 61        	c.ld	a2, 0x0(a0)
   12ff0: 89 45        	c.li	a1, 0x2
   12ff2: 89 44        	c.li	s1, 0x2
   12ff4: 22 85        	c.mv	a0, s0
   12ff6: 02 96        	c.jalr	a2
   12ff8: 03 35 84 21  	ld	a0, 0x218(s0)
   12ffc: 10 61        	c.ld	a2, 0x0(a0)
   12ffe: 22 85        	c.mv	a0, s0
   13000: a6 85        	c.mv	a1, s1
   13002: 02 96        	c.jalr	a2
   13004: 0d a0        	c.j	0x13026 <prepare_for_output_pass+0x5c>
   13006: 68 50        	c.lw	a0, 0x64(s0)
   13008: 19 c1        	c.beqz	a0, 0x1300e <prepare_for_output_pass+0x44>
   1300a: 48 6c        	c.ld	a0, 0x98(s0)
   1300c: 49 cd        	c.beqz	a0, 0x130a6 <prepare_for_output_pass+0xdc>
   1300e: 03 35 84 24  	ld	a0, 0x248(s0)
   13012: 0c 61        	c.ld	a1, 0x0(a0)
   13014: 22 85        	c.mv	a0, s0
   13016: 82 95        	c.jalr	a1
   13018: 03 35 04 22  	ld	a0, 0x220(s0)
   1301c: 0c 69        	c.ld	a1, 0x10(a0)
   1301e: 22 85        	c.mv	a0, s0
   13020: 82 95        	c.jalr	a1
   13022: 68 48        	c.lw	a0, 0x54(s0)
   13024: 0d cd        	c.beqz	a0, 0x1305e <prepare_for_output_pass+0x94>
   13026: 08 68        	c.ld	a0, 0x10(s0)
   13028: 0d c1        	c.beqz	a0, 0x1304a <prepare_for_output_pass+0x80>
   1302a: 83 25 89 01  	lw	a1, 0x18(s2)
   1302e: 03 26 09 01  	lw	a2, 0x10(s2)
   13032: 0c cd        	c.sw	a1, 0x18(a0)
   13034: 34 48        	c.lw	a3, 0x50(s0)
   13036: 13 36 16 00  	sltiu	a2, a2, 0x1
   1303a: 91 9d        	c.subw	a1, a2
   1303c: 89 05        	c.addi	a1, 0x2
   1303e: 4c cd        	c.sw	a1, 0x1c(a0)
   13040: 89 c6        	c.beqz	a3, 0x1304a <prepare_for_output_pass+0x80>
   13042: 03 36 04 23  	ld	a2, 0x230(s0)
   13046: 50 52        	c.lw	a2, 0x24(a2)
   13048: 19 c2        	c.beqz	a2, 0x1304e <prepare_for_output_pass+0x84>
   1304a: 6f c0 71 23  	jal	zero, 0x2fa80 <__riscv_restore_3>
   1304e: 70 5c        	c.lw	a2, 0x7c(s0)
   13050: 13 36 16 00  	sltiu	a2, a2, 0x1
   13054: 91 9d        	c.subw	a1, a2
   13056: 89 05        	c.addi	a1, 0x2
   13058: 4c cd        	c.sw	a1, 0x1c(a0)
   1305a: 6f c0 71 22  	jal	zero, 0x2fa80 <__riscv_restore_3>
   1305e: 03 25 c9 01  	lw	a0, 0x1c(s2)
   13062: 11 e5        	c.bnez	a0, 0x1306e <prepare_for_output_pass+0xa4>
   13064: 03 35 84 25  	ld	a0, 0x258(s0)
   13068: 0c 61        	c.ld	a1, 0x0(a0)
   1306a: 22 85        	c.mv	a0, s0
   1306c: 82 95        	c.jalr	a1
   1306e: 03 35 04 25  	ld	a0, 0x250(s0)
   13072: 0c 61        	c.ld	a1, 0x0(a0)
   13074: 22 85        	c.mv	a0, s0
   13076: 82 95        	c.jalr	a1
   13078: 68 50        	c.lw	a0, 0x64(s0)
   1307a: 01 c9        	c.beqz	a0, 0x1308a <prepare_for_output_pass+0xc0>
   1307c: 03 35 04 26  	ld	a0, 0x260(s0)
   13080: 10 61        	c.ld	a2, 0x0(a0)
   13082: 83 25 09 01  	lw	a1, 0x10(s2)
   13086: 22 85        	c.mv	a0, s0
   13088: 02 96        	c.jalr	a2
   1308a: 03 35 84 22  	ld	a0, 0x228(s0)
   1308e: 83 25 09 01  	lw	a1, 0x10(s2)
   13092: 10 61        	c.ld	a2, 0x0(a0)
   13094: 13 b5 15 00  	sltiu	a0, a1, 0x1
   13098: 7d 15        	c.addi	a0, -0x1
   1309a: 93 75 35 00  	andi	a1, a0, 0x3
   1309e: 22 85        	c.mv	a0, s0
   130a0: 02 96        	c.jalr	a2
   130a2: 81 44        	c.li	s1, 0x0
   130a4: 91 bf        	c.j	0x12ff8 <prepare_for_output_pass+0x2e>
   130a6: 68 54        	c.lw	a0, 0x6c(s0)
   130a8: 19 c9        	c.beqz	a0, 0x130be <prepare_for_output_pass+0xf4>
   130aa: 68 5c        	c.lw	a0, 0x7c(s0)
   130ac: 09 c9        	c.beqz	a0, 0x130be <prepare_for_output_pass+0xf4>
   130ae: 03 35 89 02  	ld	a0, 0x28(s2)
   130b2: 23 30 a4 26  	sd	a0, 0x260(s0)
   130b6: 05 45        	c.li	a0, 0x1
   130b8: 23 28 a9 00  	sw	a0, 0x10(s2)
   130bc: 89 bf        	c.j	0x1300e <prepare_for_output_pass+0x44>
   130be: 68 58        	c.lw	a0, 0x74(s0)
   130c0: 11 c5        	c.beqz	a0, 0x130cc <prepare_for_output_pass+0x102>
   130c2: 03 35 09 02  	ld	a0, 0x20(s2)
   130c6: 23 30 a4 26  	sd	a0, 0x260(s0)
   130ca: 91 b7        	c.j	0x1300e <prepare_for_output_pass+0x44>
   130cc: 08 60        	c.ld	a0, 0x0(s0)
   130ce: 0c 61        	c.ld	a1, 0x0(a0)
   130d0: 13 06 d0 02  	addi	a2, zero, 0x2d
   130d4: 10 d5        	c.sw	a2, 0x28(a0)
   130d6: 22 85        	c.mv	a0, s0
   130d8: 82 95        	c.jalr	a1
   130da: 15 bf        	c.j	0x1300e <prepare_for_output_pass+0x44>

00000000000130dc <finish_output_pass>:
   130dc: ef c2 11 18  	jal	t0, 0x2fa5c <__riscv_save_1>
   130e0: 6c 51        	c.lw	a1, 0x64(a0)
   130e2: 03 34 05 21  	ld	s0, 0x210(a0)
   130e6: 89 c5        	c.beqz	a1, 0x130f0 <finish_output_pass+0x14>
   130e8: 83 35 05 26  	ld	a1, 0x260(a0)
   130ec: 8c 69        	c.ld	a1, 0x10(a1)
   130ee: 82 95        	c.jalr	a1
   130f0: 08 4c        	c.lw	a0, 0x18(s0)
   130f2: 05 05        	c.addi	a0, 0x1
   130f4: 08 cc        	c.sw	a0, 0x18(s0)
   130f6: 6f c0 11 19  	jal	zero, 0x2fa86 <__riscv_restore_1>

00000000000130fa <jinit_input_controller>:
   130fa: ef c2 31 16  	jal	t0, 0x2fa5c <__riscv_save_1>
   130fe: 2a 84        	c.mv	s0, a0
   13100: 08 65        	c.ld	a0, 0x8(a0)
   13102: 14 61        	c.ld	a3, 0x0(a0)
   13104: 13 06 00 03  	addi	a2, zero, 0x30
   13108: 22 85        	c.mv	a0, s0
   1310a: 81 45        	c.li	a1, 0x0
   1310c: 82 96        	c.jalr	a3
   1310e: 23 38 a4 22  	sd	a0, 0x230(s0)
   13112: b7 35 01 00  	lui	a1, 0x13
   13116: 93 85 65 14  	addi	a1, a1, 0x146
   1311a: 0c e1        	c.sd	a1, 0x0(a0)
   1311c: b7 35 01 00  	lui	a1, 0x13
   13120: 93 85 85 3a  	addi	a1, a1, 0x3a8
   13124: 0c e5        	c.sd	a1, 0x8(a0)
   13126: b7 35 01 00  	lui	a1, 0x13
   1312a: 93 85 e5 3d  	addi	a1, a1, 0x3de
   1312e: 0c e9        	c.sd	a1, 0x10(a0)
   13130: b7 35 01 00  	lui	a1, 0x13
   13134: 93 85 65 5d  	addi	a1, a1, 0x5d6
   13138: 0c ed        	c.sd	a1, 0x18(a0)
   1313a: 23 30 05 02  	sd	zero, 0x20(a0)
   1313e: 85 45        	c.li	a1, 0x1
   13140: 0c d5        	c.sw	a1, 0x28(a0)
   13142: 6f c0 51 14  	jal	zero, 0x2fa86 <__riscv_restore_1>

0000000000013146 <consume_markers>:
   13146: ef c2 11 0f  	jal	t0, 0x2fa36 <__riscv_save_7>
   1314a: 2a 8a        	c.mv	s4, a0
   1314c: 03 39 05 23  	ld	s2, 0x230(a0)
   13150: 03 25 49 02  	lw	a0, 0x24(s2)
   13154: 89 44        	c.li	s1, 0x2
   13156: 01 c5        	c.beqz	a0, 0x1315e <consume_markers+0x18>
   13158: 26 85        	c.mv	a0, s1
   1315a: 6f c0 b1 11  	jal	zero, 0x2fa74 <__riscv_restore_7>
   1315e: 03 35 8a 23  	ld	a0, 0x238(s4)
   13162: 0c 65        	c.ld	a1, 0x8(a0)
   13164: 52 85        	c.mv	a0, s4
   13166: 82 95        	c.jalr	a1
   13168: 89 45        	c.li	a1, 0x2
   1316a: 63 02 b5 1a  	beq	a0, a1, 0x1330e <consume_markers+0x1c8>
   1316e: aa 84        	c.mv	s1, a0
   13170: 05 45        	c.li	a0, 0x1
   13172: e3 93 a4 fe  	bne	s1, a0, 0x13158 <consume_markers+0x12>
   13176: 03 25 89 02  	lw	a0, 0x28(s2)
   1317a: 63 00 05 1c  	beq	a0, zero, 0x1333a <consume_markers+0x1f4>
   1317e: 83 25 ca 02  	lw	a1, 0x2c(s4)
   13182: 41 65        	c.lui	a0, 0x10
   13184: 1b 06 c5 fd  	addiw	a2, a0, -0x24
   13188: 63 68 b6 00  	bltu	a2, a1, 0x13198 <consume_markers+0x52>
   1318c: 83 25 8a 02  	lw	a1, 0x28(s4)
   13190: 1b 05 d5 fd  	addiw	a0, a0, -0x23
   13194: 63 ef a5 00  	bltu	a1, a0, 0x131b2 <consume_markers+0x6c>
   13198: 03 35 0a 00  	ld	a0, 0x0(s4)
   1319c: b7 75 ff 03  	lui	a1, 0x3ff7
   131a0: da 05        	c.slli	a1, 0x16
   131a2: 93 85 85 02  	addi	a1, a1, 0x28
   131a6: 0c f5        	c.sd	a1, 0x28(a0)
   131a8: 03 35 0a 00  	ld	a0, 0x0(s4)
   131ac: 0c 61        	c.ld	a1, 0x0(a0)
   131ae: 52 85        	c.mv	a0, s4
   131b0: 82 95        	c.jalr	a1
   131b2: 03 25 0a 12  	lw	a0, 0x120(s4)
   131b6: a1 45        	c.li	a1, 0x8
   131b8: 63 0c b5 00  	beq	a0, a1, 0x131d0 <consume_markers+0x8a>
   131bc: 83 35 0a 00  	ld	a1, 0x0(s4)
   131c0: c8 d5        	c.sw	a0, 0x2c(a1)
   131c2: 03 35 0a 00  	ld	a0, 0x0(s4)
   131c6: 10 61        	c.ld	a2, 0x0(a0)
   131c8: 35 45        	c.li	a0, 0xd
   131ca: 88 d5        	c.sw	a0, 0x28(a1)
   131cc: 52 85        	c.mv	a0, s4
   131ce: 02 96        	c.jalr	a2
   131d0: 03 25 0a 03  	lw	a0, 0x30(s4)
   131d4: ad 45        	c.li	a1, 0xb
   131d6: 63 42 b5 02  	blt	a0, a1, 0x131fa <consume_markers+0xb4>
   131da: 83 35 0a 00  	ld	a1, 0x0(s4)
   131de: c8 d5        	c.sw	a0, 0x2c(a1)
   131e0: 03 35 0a 00  	ld	a0, 0x0(s4)
   131e4: 61 46        	c.li	a2, 0x18
   131e6: 90 d5        	c.sw	a2, 0x28(a1)
   131e8: a9 45        	c.li	a1, 0xa
   131ea: 0c d9        	c.sw	a1, 0x30(a0)
   131ec: 03 35 0a 00  	ld	a0, 0x0(s4)
   131f0: 0c 61        	c.ld	a1, 0x0(a0)
   131f2: 52 85        	c.mv	a0, s4
   131f4: 82 95        	c.jalr	a1
   131f6: 03 25 0a 03  	lw	a0, 0x30(s4)
   131fa: 85 45        	c.li	a1, 0x1
   131fc: 23 22 ba 18  	sw	a1, 0x184(s4)
   13200: 23 24 ba 18  	sw	a1, 0x188(s4)
   13204: 63 55 a0 16  	bge	zero, a0, 0x1336e <consume_markers+0x228>
   13208: 83 34 8a 12  	ld	s1, 0x128(s4)
   1320c: 01 44        	c.li	s0, 0x0
   1320e: b1 04        	c.addi	s1, 0xc
   13210: 85 45        	c.li	a1, 0x1
   13212: f1 59        	c.li	s3, -0x4
   13214: c1 4a        	c.li	s5, 0x10
   13216: 6d 5b        	c.li	s6, -0x5
   13218: 05 46        	c.li	a2, 0x1
   1321a: 03 a7 c4 ff  	lw	a4, -0x4(s1)
   1321e: 9b 06 b7 ff  	addiw	a3, a4, -0x5
   13222: 63 e7 36 01  	bltu	a3, s3, 0x13230 <consume_markers+0xea>
   13226: 94 40        	c.lw	a3, 0x0(s1)
   13228: 9b 87 b6 ff  	addiw	a5, a3, -0x5
   1322c: 63 62 fb 02  	bltu	s6, a5, 0x13250 <consume_markers+0x10a>
   13230: 03 35 0a 00  	ld	a0, 0x0(s4)
   13234: 0c 61        	c.ld	a1, 0x0(a0)
   13236: 23 24 55 03  	sw	s5, 0x28(a0)
   1323a: 52 85        	c.mv	a0, s4
   1323c: 82 95        	c.jalr	a1
   1323e: 03 26 4a 18  	lw	a2, 0x184(s4)
   13242: 03 a7 c4 ff  	lw	a4, -0x4(s1)
   13246: 83 25 8a 18  	lw	a1, 0x188(s4)
   1324a: 94 40        	c.lw	a3, 0x0(s1)
   1324c: 03 25 0a 03  	lw	a0, 0x30(s4)
   13250: 63 43 c7 00  	blt	a4, a2, 0x13256 <consume_markers+0x110>
   13254: 3a 86        	c.mv	a2, a4
   13256: 23 22 ca 18  	sw	a2, 0x184(s4)
   1325a: 63 c3 b6 00  	blt	a3, a1, 0x13260 <consume_markers+0x11a>
   1325e: b6 85        	c.mv	a1, a3
   13260: 23 24 ba 18  	sw	a1, 0x188(s4)
   13264: 05 24        	c.addiw	s0, 0x1
   13266: 93 84 04 06  	addi	s1, s1, 0x60
   1326a: e3 48 a4 fa  	blt	s0, a0, 0x1321a <consume_markers+0xd4>
   1326e: a1 49        	c.li	s3, 0x8
   13270: 23 26 3a 19  	sw	s3, 0x18c(s4)
   13274: 63 50 a0 10  	bge	zero, a0, 0x13374 <consume_markers+0x22e>
   13278: 03 35 8a 12  	ld	a0, 0x128(s4)
   1327c: 81 44        	c.li	s1, 0x0
   1327e: 13 04 85 02  	addi	s0, a0, 0x28
   13282: 85 4a        	c.li	s5, 0x1
   13284: 83 65 8a 02  	lwu	a1, 0x28(s4)
   13288: 03 25 04 fe  	lw	a0, -0x20(s0)
   1328c: 23 2e 34 ff  	sw	s3, -0x4(s0)
   13290: ef c0 11 00  	jal	ra, 0x2fa90 <__muldi3>
   13294: 83 25 4a 18  	lw	a1, 0x184(s4)
   13298: 9b 95 35 00  	slliw	a1, a1, 0x3
   1329c: ef 70 f0 1b  	jal	ra, 0x1ac5a <jdiv_round_up>
   132a0: 83 65 ca 02  	lwu	a1, 0x2c(s4)
   132a4: 03 26 44 fe  	lw	a2, -0x1c(s0)
   132a8: 23 2a a4 fe  	sw	a0, -0xc(s0)
   132ac: 32 85        	c.mv	a0, a2
   132ae: ef c0 21 7e  	jal	ra, 0x2fa90 <__muldi3>
   132b2: 83 25 8a 18  	lw	a1, 0x188(s4)
   132b6: 9b 95 35 00  	slliw	a1, a1, 0x3
   132ba: ef 70 10 1a  	jal	ra, 0x1ac5a <jdiv_round_up>
   132be: 83 65 8a 02  	lwu	a1, 0x28(s4)
   132c2: 03 26 04 fe  	lw	a2, -0x20(s0)
   132c6: 23 2c a4 fe  	sw	a0, -0x8(s0)
   132ca: 32 85        	c.mv	a0, a2
   132cc: ef c0 41 7c  	jal	ra, 0x2fa90 <__muldi3>
   132d0: 83 25 4a 18  	lw	a1, 0x184(s4)
   132d4: ef 70 70 18  	jal	ra, 0x1ac5a <jdiv_round_up>
   132d8: 83 65 ca 02  	lwu	a1, 0x2c(s4)
   132dc: 03 26 44 fe  	lw	a2, -0x1c(s0)
   132e0: 08 c0        	c.sw	a0, 0x0(s0)
   132e2: 32 85        	c.mv	a0, a2
   132e4: ef c0 c1 7a  	jal	ra, 0x2fa90 <__muldi3>
   132e8: 83 25 8a 18  	lw	a1, 0x188(s4)
   132ec: ef 70 f0 16  	jal	ra, 0x1ac5a <jdiv_round_up>
   132f0: 48 c0        	c.sw	a0, 0x4(s0)
   132f2: 03 25 0a 03  	lw	a0, 0x30(s4)
   132f6: 23 24 54 01  	sw	s5, 0x8(s0)
   132fa: 23 34 04 02  	sd	zero, 0x28(s0)
   132fe: 85 24        	c.addiw	s1, 0x1
   13300: 13 04 04 06  	addi	s0, s0, 0x60
   13304: e3 c0 a4 f8  	blt	s1, a0, 0x13284 <consume_markers+0x13e>
   13308: 83 25 8a 18  	lw	a1, 0x188(s4)
   1330c: a5 a0        	c.j	0x13374 <consume_markers+0x22e>
   1330e: 03 25 89 02  	lw	a0, 0x28(s2)
   13312: 85 45        	c.li	a1, 0x1
   13314: 23 22 b9 02  	sw	a1, 0x24(s2)
   13318: 29 c1        	c.beqz	a0, 0x1335a <consume_markers+0x214>
   1331a: 03 35 8a 23  	ld	a0, 0x238(s4)
   1331e: 03 25 45 0a  	lw	a0, 0xa4(a0)
   13322: 89 44        	c.li	s1, 0x2
   13324: e3 0a 05 e2  	beq	a0, zero, 0x13158 <consume_markers+0x12>
   13328: 03 35 0a 00  	ld	a0, 0x0(s4)
   1332c: 0c 61        	c.ld	a1, 0x0(a0)
   1332e: 13 06 a0 03  	addi	a2, zero, 0x3a
   13332: 10 d5        	c.sw	a2, 0x28(a0)
   13334: 52 85        	c.mv	a0, s4
   13336: 82 95        	c.jalr	a1
   13338: 05 b5        	c.j	0x13158 <consume_markers+0x12>
   1333a: 03 25 09 02  	lw	a0, 0x20(s2)
   1333e: 09 e9        	c.bnez	a0, 0x13350 <consume_markers+0x20a>
   13340: 03 35 0a 00  	ld	a0, 0x0(s4)
   13344: 0c 61        	c.ld	a1, 0x0(a0)
   13346: 13 06 20 02  	addi	a2, zero, 0x22
   1334a: 10 d5        	c.sw	a2, 0x28(a0)
   1334c: 52 85        	c.mv	a0, s4
   1334e: 82 95        	c.jalr	a1
   13350: 52 85        	c.mv	a0, s4
   13352: ef 00 c0 08  	jal	ra, 0x133de <start_input_pass>
   13356: 85 44        	c.li	s1, 0x1
   13358: 01 b5        	c.j	0x13158 <consume_markers+0x12>
   1335a: 83 25 ca 0a  	lw	a1, 0xac(s4)
   1335e: 03 25 4a 0a  	lw	a0, 0xa4(s4)
   13362: 89 44        	c.li	s1, 0x2
   13364: e3 5a b5 de  	bge	a0, a1, 0x13158 <consume_markers+0x12>
   13368: 23 26 aa 0a  	sw	a0, 0xac(s4)
   1336c: f5 b3        	c.j	0x13158 <consume_markers+0x12>
   1336e: 21 45        	c.li	a0, 0x8
   13370: 23 26 aa 18  	sw	a0, 0x18c(s4)
   13374: 03 65 ca 02  	lwu	a0, 0x2c(s4)
   13378: 9b 95 35 00  	slliw	a1, a1, 0x3
   1337c: ef 70 f0 0d  	jal	ra, 0x1ac5a <jdiv_round_up>
   13380: 83 25 0a 1a  	lw	a1, 0x1a0(s4)
   13384: 03 26 0a 03  	lw	a2, 0x30(s4)
   13388: 23 28 aa 18  	sw	a0, 0x190(s4)
   1338c: 85 44        	c.li	s1, 0x1
   1338e: 05 45        	c.li	a0, 0x1
   13390: 63 c6 c5 00  	blt	a1, a2, 0x1339c <consume_markers+0x256>
   13394: 03 25 0a 13  	lw	a0, 0x130(s4)
   13398: 33 35 a0 00  	sltu	a0, zero, a0
   1339c: 83 35 0a 23  	ld	a1, 0x230(s4)
   133a0: 88 d1        	c.sw	a0, 0x20(a1)
   133a2: 23 24 09 02  	sw	zero, 0x28(s2)
   133a6: 4d bb        	c.j	0x13158 <consume_markers+0x12>

00000000000133a8 <reset_input_controller>:
   133a8: ef c2 41 6b  	jal	t0, 0x2fa5c <__riscv_save_1>
   133ac: 2a 84        	c.mv	s0, a0
   133ae: 03 35 05 23  	ld	a0, 0x230(a0)
   133b2: 23 30 05 02  	sd	zero, 0x20(a0)
   133b6: 0c 60        	c.ld	a1, 0x0(s0)
   133b8: 37 36 01 00  	lui	a2, 0x13
   133bc: 13 06 66 14  	addi	a2, a2, 0x146
   133c0: 8c 71        	c.ld	a1, 0x20(a1)
   133c2: 10 e1        	c.sd	a2, 0x0(a0)
   133c4: 05 46        	c.li	a2, 0x1
   133c6: 10 d5        	c.sw	a2, 0x28(a0)
   133c8: 22 85        	c.mv	a0, s0
   133ca: 82 95        	c.jalr	a1
   133cc: 03 35 84 23  	ld	a0, 0x238(s0)
   133d0: 0c 61        	c.ld	a1, 0x0(a0)
   133d2: 22 85        	c.mv	a0, s0
   133d4: 82 95        	c.jalr	a1
   133d6: 23 3c 04 0a  	sd	zero, 0xb8(s0)
   133da: 6f c0 c1 6a  	jal	zero, 0x2fa86 <__riscv_restore_1>

00000000000133de <start_input_pass>:
   133de: ef c2 e1 64  	jal	t0, 0x2fa2c <__riscv_save_9>
   133e2: 2a 84        	c.mv	s0, a0
   133e4: 03 25 05 1a  	lw	a0, 0x1a0(a0)
   133e8: 05 49        	c.li	s2, 0x1
   133ea: 63 17 25 05  	bne	a0, s2, 0x13438 <start_input_pass+0x5a>
   133ee: 83 34 84 1a  	ld	s1, 0x1a8(s0)
   133f2: c8 4c        	c.lw	a0, 0x1c(s1)
   133f4: 8c 50        	c.lw	a1, 0x20(s1)
   133f6: 23 24 a4 1c  	sw	a0, 0x1c8(s0)
   133fa: 13 95 05 02  	slli	a0, a1, 0x20
   133fe: 01 91        	c.srli	a0, 0x20
   13400: 23 26 b4 1c  	sw	a1, 0x1cc(s0)
   13404: 93 15 09 02  	slli	a1, s2, 0x20
   13408: 85 05        	c.addi	a1, 0x1
   1340a: d0 50        	c.lw	a2, 0x24(s1)
   1340c: 8c fc        	c.sd	a1, 0x38(s1)
   1340e: 83 a9 c4 00  	lw	s3, 0xc(s1)
   13412: 23 aa 24 03  	sw	s2, 0x34(s1)
   13416: b0 c0        	c.sw	a2, 0x40(s1)
   13418: 23 a2 24 05  	sw	s2, 0x44(s1)
   1341c: 93 95 09 02  	slli	a1, s3, 0x20
   13420: 81 91        	c.srli	a1, 0x20
   13422: ef c0 21 6e  	jal	ra, 0x2fb04 <__umoddi3>
   13426: 11 c1        	c.beqz	a0, 0x1342a <start_input_pass+0x4c>
   13428: aa 89        	c.mv	s3, a0
   1342a: 23 a4 34 05  	sw	s3, 0x48(s1)
   1342e: 23 28 24 1d  	sw	s2, 0x1d0(s0)
   13432: 23 2a 04 1c  	sw	zero, 0x1d4(s0)
   13436: 09 aa        	c.j	0x13548 <start_input_pass+0x16a>
   13438: 9b 05 b5 ff  	addiw	a1, a0, -0x5
   1343c: 6d 56        	c.li	a2, -0x5
   1343e: 63 6d b6 00  	bltu	a2, a1, 0x13458 <start_input_pass+0x7a>
   13442: 0c 60        	c.ld	a1, 0x0(s0)
   13444: c8 d5        	c.sw	a0, 0x2c(a1)
   13446: 08 60        	c.ld	a0, 0x0(s0)
   13448: 61 46        	c.li	a2, 0x18
   1344a: 90 d5        	c.sw	a2, 0x28(a1)
   1344c: 91 45        	c.li	a1, 0x4
   1344e: 0c d9        	c.sw	a1, 0x30(a0)
   13450: 08 60        	c.ld	a0, 0x0(s0)
   13452: 0c 61        	c.ld	a1, 0x0(a0)
   13454: 22 85        	c.mv	a0, s0
   13456: 82 95        	c.jalr	a1
   13458: 83 25 44 18  	lw	a1, 0x184(s0)
   1345c: 03 65 84 02  	lwu	a0, 0x28(s0)
   13460: 9b 95 35 00  	slliw	a1, a1, 0x3
   13464: ef 70 60 7f  	jal	ra, 0x1ac5a <jdiv_round_up>
   13468: 83 25 84 18  	lw	a1, 0x188(s0)
   1346c: 03 66 c4 02  	lwu	a2, 0x2c(s0)
   13470: 23 24 a4 1c  	sw	a0, 0x1c8(s0)
   13474: 9b 95 35 00  	slliw	a1, a1, 0x3
   13478: 32 85        	c.mv	a0, a2
   1347a: ef 70 00 7e  	jal	ra, 0x1ac5a <jdiv_round_up>
   1347e: 83 25 04 1a  	lw	a1, 0x1a0(s0)
   13482: 23 26 a4 1c  	sw	a0, 0x1cc(s0)
   13486: 23 28 04 1c  	sw	zero, 0x1d0(s0)
   1348a: 63 54 b0 12  	bge	zero, a1, 0x135b2 <start_input_pass+0x1d4>
   1348e: 81 44        	c.li	s1, 0x0
   13490: 2d 4b        	c.li	s6, 0xb
   13492: 85 4b        	c.li	s7, 0x1
   13494: 13 95 34 00  	slli	a0, s1, 0x3
   13498: 22 95        	c.add	a0, s0
   1349a: 03 3c 85 1a  	ld	s8, 0x1a8(a0)
   1349e: 83 2a 8c 00  	lw	s5, 0x8(s8)
   134a2: 83 29 cc 00  	lw	s3, 0xc(s8)
   134a6: 13 95 0a 02  	slli	a0, s5, 0x20
   134aa: 13 5a 05 02  	srli	s4, a0, 0x20
   134ae: 23 2a 5c 03  	sw	s5, 0x34(s8)
   134b2: 23 2c 3c 03  	sw	s3, 0x38(s8)
   134b6: 4e 85        	c.mv	a0, s3
   134b8: d6 85        	c.mv	a1, s5
   134ba: ef c0 61 5d  	jal	ra, 0x2fa90 <__muldi3>
   134be: 83 25 4c 02  	lw	a1, 0x24(s8)
   134c2: 2a 89        	c.mv	s2, a0
   134c4: 23 2e ac 02  	sw	a0, 0x3c(s8)
   134c8: 2e 85        	c.mv	a0, a1
   134ca: d6 85        	c.mv	a1, s5
   134cc: ef c0 41 5c  	jal	ra, 0x2fa90 <__muldi3>
   134d0: 83 65 cc 01  	lwu	a1, 0x1c(s8)
   134d4: 23 20 ac 04  	sw	a0, 0x40(s8)
   134d8: 2e 85        	c.mv	a0, a1
   134da: d2 85        	c.mv	a1, s4
   134dc: ef c0 81 62  	jal	ra, 0x2fb04 <__umoddi3>
   134e0: 11 c1        	c.beqz	a0, 0x134e4 <start_input_pass+0x106>
   134e2: aa 8a        	c.mv	s5, a0
   134e4: 03 65 0c 02  	lwu	a0, 0x20(s8)
   134e8: 23 22 5c 05  	sw	s5, 0x44(s8)
   134ec: 93 95 09 02  	slli	a1, s3, 0x20
   134f0: 81 91        	c.srli	a1, 0x20
   134f2: ef c0 21 61  	jal	ra, 0x2fb04 <__umoddi3>
   134f6: 11 c1        	c.beqz	a0, 0x134fa <start_input_pass+0x11c>
   134f8: aa 89        	c.mv	s3, a0
   134fa: 03 25 04 1d  	lw	a0, 0x1d0(s0)
   134fe: 3b 05 25 01  	addw	a0, a0, s2
   13502: 23 24 3c 05  	sw	s3, 0x48(s8)
   13506: 63 48 65 01  	blt	a0, s6, 0x13516 <start_input_pass+0x138>
   1350a: 08 60        	c.ld	a0, 0x0(s0)
   1350c: 0c 61        	c.ld	a1, 0x0(a0)
   1350e: 23 24 65 03  	sw	s6, 0x28(a0)
   13512: 22 85        	c.mv	a0, s0
   13514: 82 95        	c.jalr	a1
   13516: 1b 05 09 00  	addiw	a0, s2, 0x0
   1351a: 63 50 a0 02  	bge	zero, a0, 0x1353a <start_input_pass+0x15c>
   1351e: 05 05        	c.addi	a0, 0x1
   13520: 83 25 04 1d  	lw	a1, 0x1d0(s0)
   13524: 13 86 15 00  	addi	a2, a1, 0x1
   13528: 23 28 c4 1c  	sw	a2, 0x1d0(s0)
   1352c: 8a 05        	c.slli	a1, 0x2
   1352e: a2 95        	c.add	a1, s0
   13530: 7d 35        	c.addiw	a0, -0x1
   13532: 23 aa 95 1c  	sw	s1, 0x1d4(a1)
   13536: e3 e5 ab fe  	bltu	s7, a0, 0x13520 <start_input_pass+0x142>
   1353a: 03 29 04 1a  	lw	s2, 0x1a0(s0)
   1353e: 85 04        	c.addi	s1, 0x1
   13540: e3 ca 24 f5  	blt	s1, s2, 0x13494 <start_input_pass+0xb6>
   13544: 63 57 20 07  	bge	zero, s2, 0x135b2 <start_input_pass+0x1d4>
   13548: 01 4a        	c.li	s4, 0x0
   1354a: 93 04 84 1a  	addi	s1, s0, 0x1a8
   1354e: 8d 4a        	c.li	s5, 0x3
   13550: 13 0b 30 03  	addi	s6, zero, 0x33
   13554: 83 bb 04 00  	ld	s7, 0x0(s1)
   13558: 03 b5 0b 05  	ld	a0, 0x50(s7)
   1355c: 39 e5        	c.bnez	a0, 0x135aa <start_input_pass+0x1cc>
   1355e: 03 a9 0b 01  	lw	s2, 0x10(s7)
   13562: 63 e7 2a 01  	bltu	s5, s2, 0x13570 <start_input_pass+0x192>
   13566: 13 15 39 00  	slli	a0, s2, 0x3
   1356a: 22 95        	c.add	a0, s0
   1356c: 68 61        	c.ld	a0, 0xc0(a0)
   1356e: 11 e9        	c.bnez	a0, 0x13582 <start_input_pass+0x1a4>
   13570: 08 60        	c.ld	a0, 0x0(s0)
   13572: 23 26 25 03  	sw	s2, 0x2c(a0)
   13576: 0c 60        	c.ld	a1, 0x0(s0)
   13578: 8c 61        	c.ld	a1, 0x0(a1)
   1357a: 23 24 65 03  	sw	s6, 0x28(a0)
   1357e: 22 85        	c.mv	a0, s0
   13580: 82 95        	c.jalr	a1
   13582: 08 64        	c.ld	a0, 0x8(s0)
   13584: 14 61        	c.ld	a3, 0x0(a0)
   13586: 85 45        	c.li	a1, 0x1
   13588: 13 06 40 08  	addi	a2, zero, 0x84
   1358c: 22 85        	c.mv	a0, s0
   1358e: 82 96        	c.jalr	a3
   13590: 0e 09        	c.slli	s2, 0x3
   13592: 22 99        	c.add	s2, s0
   13594: 83 35 09 0c  	ld	a1, 0xc0(s2)
   13598: aa 89        	c.mv	s3, a0
   1359a: 13 06 40 08  	addi	a2, zero, 0x84
   1359e: ef a0 80 3a  	jal	ra, 0x1d946 <memcpy>
   135a2: 03 29 04 1a  	lw	s2, 0x1a0(s0)
   135a6: 23 b8 3b 05  	sd	s3, 0x50(s7)
   135aa: 05 0a        	c.addi	s4, 0x1
   135ac: a1 04        	c.addi	s1, 0x8
   135ae: e3 43 2a fb  	blt	s4, s2, 0x13554 <start_input_pass+0x176>
   135b2: 03 35 04 24  	ld	a0, 0x240(s0)
   135b6: 0c 61        	c.ld	a1, 0x0(a0)
   135b8: 22 85        	c.mv	a0, s0
   135ba: 82 95        	c.jalr	a1
   135bc: 03 35 04 22  	ld	a0, 0x220(s0)
   135c0: 0c 61        	c.ld	a1, 0x0(a0)
   135c2: 22 85        	c.mv	a0, s0
   135c4: 82 95        	c.jalr	a1
   135c6: 03 35 04 22  	ld	a0, 0x220(s0)
   135ca: 08 65        	c.ld	a0, 0x8(a0)
   135cc: 83 35 04 23  	ld	a1, 0x230(s0)
   135d0: 88 e1        	c.sd	a0, 0x0(a1)
   135d2: 6f c0 c1 49  	jal	zero, 0x2fa6e <__riscv_restore_9>

00000000000135d6 <finish_input_pass>:
   135d6: 03 35 05 23  	ld	a0, 0x230(a0)
   135da: b7 35 01 00  	lui	a1, 0x13
   135de: 93 85 65 14  	addi	a1, a1, 0x146
   135e2: 0c e1        	c.sd	a1, 0x0(a0)
   135e4: 82 80        	c.jr	ra

00000000000135e6 <jpeg_resync_to_restart>:
   135e6: ef c2 c1 43  	jal	t0, 0x2fa22 <__riscv_save_11>
   135ea: 2a 84        	c.mv	s0, a0
   135ec: 83 24 c5 20  	lw	s1, 0x20c(a0)
   135f0: 08 61        	c.ld	a0, 0x0(a0)
   135f2: 44 d5        	c.sw	s1, 0x2c(a0)
   135f4: 10 60        	c.ld	a2, 0x0(s0)
   135f6: 2e 89        	c.mv	s2, a1
   135f8: 93 05 50 07  	addi	a1, zero, 0x75
   135fc: 0c d5        	c.sw	a1, 0x28(a0)
   135fe: 23 28 26 03  	sw	s2, 0x30(a2)
   13602: 08 60        	c.ld	a0, 0x0(s0)
   13604: 10 65        	c.ld	a2, 0x8(a0)
   13606: fd 55        	c.li	a1, -0x1
   13608: 22 85        	c.mv	a0, s0
   1360a: 02 96        	c.jalr	a2
   1360c: 13 05 19 00  	addi	a0, s2, 0x1
   13610: 1d 89        	c.andi	a0, 0x7
   13612: 93 09 05 0d  	addi	s3, a0, 0xd0
   13616: 13 05 29 00  	addi	a0, s2, 0x2
   1361a: 1d 89        	c.andi	a0, 0x7
   1361c: 13 0a 05 0d  	addi	s4, a0, 0xd0
   13620: 13 05 f9 ff  	addi	a0, s2, -0x1
   13624: 1d 89        	c.andi	a0, 0x7
   13626: 93 0a 05 0d  	addi	s5, a0, 0xd0
   1362a: 19 09        	c.addi	s2, 0x6
   1362c: 13 75 79 00  	andi	a0, s2, 0x7
   13630: 13 09 05 0d  	addi	s2, a0, 0xd0
   13634: 13 0b 00 0c  	addi	s6, zero, 0xc0
   13638: 93 0b 00 06  	addi	s7, zero, 0x60
   1363c: 09 4c        	c.li	s8, 0x2
   1363e: e1 5c        	c.li	s9, -0x8
   13640: 63 ce 64 01  	blt	s1, s6, 0x1365c <jpeg_resync_to_restart+0x76>
   13644: 1b 85 84 f2  	addiw	a0, s1, -0xd8
   13648: 63 61 95 05  	bltu	a0, s9, 0x1368a <jpeg_resync_to_restart+0xa4>
   1364c: 63 8f 34 03  	beq	s1, s3, 0x1368a <jpeg_resync_to_restart+0xa4>
   13650: 63 8d 44 03  	beq	s1, s4, 0x1368a <jpeg_resync_to_restart+0xa4>
   13654: 63 84 54 01  	beq	s1, s5, 0x1365c <jpeg_resync_to_restart+0x76>
   13658: 63 98 24 05  	bne	s1, s2, 0x136a8 <jpeg_resync_to_restart+0xc2>
   1365c: 08 60        	c.ld	a0, 0x0(s0)
   1365e: 44 d5        	c.sw	s1, 0x2c(a0)
   13660: 0c 60        	c.ld	a1, 0x0(s0)
   13662: 23 24 75 03  	sw	s7, 0x28(a0)
   13666: 23 a8 85 03  	sw	s8, 0x30(a1)
   1366a: 08 60        	c.ld	a0, 0x0(s0)
   1366c: 10 65        	c.ld	a2, 0x8(a0)
   1366e: 91 45        	c.li	a1, 0x4
   13670: 22 85        	c.mv	a0, s0
   13672: 02 96        	c.jalr	a2
   13674: 22 85        	c.mv	a0, s0
   13676: ef 00 60 05  	jal	ra, 0x136cc <next_marker>
   1367a: 11 c5        	c.beqz	a0, 0x13686 <jpeg_resync_to_restart+0xa0>
   1367c: 83 24 c4 20  	lw	s1, 0x20c(s0)
   13680: e3 d2 64 fd  	bge	s1, s6, 0x13644 <jpeg_resync_to_restart+0x5e>
   13684: e1 bf        	c.j	0x1365c <jpeg_resync_to_restart+0x76>
   13686: 81 44        	c.li	s1, 0x0
   13688: 3d a8        	c.j	0x136c6 <jpeg_resync_to_restart+0xe0>
   1368a: 08 60        	c.ld	a0, 0x0(s0)
   1368c: 44 d5        	c.sw	s1, 0x2c(a0)
   1368e: 0c 60        	c.ld	a1, 0x0(s0)
   13690: 13 06 00 06  	addi	a2, zero, 0x60
   13694: 10 d5        	c.sw	a2, 0x28(a0)
   13696: 0d 45        	c.li	a0, 0x3
   13698: 88 d9        	c.sw	a0, 0x30(a1)
   1369a: 08 60        	c.ld	a0, 0x0(s0)
   1369c: 10 65        	c.ld	a2, 0x8(a0)
   1369e: 91 45        	c.li	a1, 0x4
   136a0: 22 85        	c.mv	a0, s0
   136a2: 02 96        	c.jalr	a2
   136a4: 85 44        	c.li	s1, 0x1
   136a6: 05 a0        	c.j	0x136c6 <jpeg_resync_to_restart+0xe0>
   136a8: 08 60        	c.ld	a0, 0x0(s0)
   136aa: 44 d5        	c.sw	s1, 0x2c(a0)
   136ac: 0c 60        	c.ld	a1, 0x0(s0)
   136ae: 13 06 00 06  	addi	a2, zero, 0x60
   136b2: 10 d5        	c.sw	a2, 0x28(a0)
   136b4: 85 44        	c.li	s1, 0x1
   136b6: 84 d9        	c.sw	s1, 0x30(a1)
   136b8: 08 60        	c.ld	a0, 0x0(s0)
   136ba: 10 65        	c.ld	a2, 0x8(a0)
   136bc: 91 45        	c.li	a1, 0x4
   136be: 22 85        	c.mv	a0, s0
   136c0: 02 96        	c.jalr	a2
   136c2: 23 26 04 20  	sw	zero, 0x20c(s0)
   136c6: 26 85        	c.mv	a0, s1
   136c8: 6f c0 01 3a  	jal	zero, 0x2fa68 <__riscv_restore_11>

00000000000136cc <next_marker>:
   136cc: ef c2 a1 36  	jal	t0, 0x2fa36 <__riscv_save_7>
   136d0: 2a 89        	c.mv	s2, a0
   136d2: 03 3a 05 02  	ld	s4, 0x20(a0)
   136d6: 83 34 0a 00  	ld	s1, 0x0(s4)
   136da: 03 34 8a 00  	ld	s0, 0x8(s4)
   136de: 93 09 f0 0f  	addi	s3, zero, 0xff
   136e2: 11 e8        	c.bnez	s0, 0x136f6 <next_marker+0x2a>
   136e4: 83 35 8a 01  	ld	a1, 0x18(s4)
   136e8: 4a 85        	c.mv	a0, s2
   136ea: 82 95        	c.jalr	a1
   136ec: 71 c9        	c.beqz	a0, 0x137c0 <next_marker+0xf4>
   136ee: 83 34 0a 00  	ld	s1, 0x0(s4)
   136f2: 03 34 8a 00  	ld	s0, 0x8(s4)
   136f6: 83 c5 04 00  	lbu	a1, 0x0(s1)
   136fa: 13 85 14 00  	addi	a0, s1, 0x1
   136fe: 7d 14        	c.addi	s0, -0x1
   13700: 63 80 35 05  	beq	a1, s3, 0x13740 <next_marker+0x74>
   13704: 83 35 89 23  	ld	a1, 0x238(s2)
   13708: 03 a6 c5 0a  	lw	a2, 0xac(a1)
   1370c: 05 06        	c.addi	a2, 0x1
   1370e: 23 a6 c5 0a  	sw	a2, 0xac(a1)
   13712: 23 30 aa 00  	sd	a0, 0x0(s4)
   13716: 23 34 8a 00  	sd	s0, 0x8(s4)
   1371a: 11 e8        	c.bnez	s0, 0x1372e <next_marker+0x62>
   1371c: 83 35 8a 01  	ld	a1, 0x18(s4)
   13720: 4a 85        	c.mv	a0, s2
   13722: 82 95        	c.jalr	a1
   13724: 51 cd        	c.beqz	a0, 0x137c0 <next_marker+0xf4>
   13726: 03 35 0a 00  	ld	a0, 0x0(s4)
   1372a: 03 34 8a 00  	ld	s0, 0x8(s4)
   1372e: 83 45 05 00  	lbu	a1, 0x0(a0)
   13732: 93 04 15 00  	addi	s1, a0, 0x1
   13736: 7d 14        	c.addi	s0, -0x1
   13738: 26 85        	c.mv	a0, s1
   1373a: e3 95 35 fd  	bne	a1, s3, 0x13704 <next_marker+0x38>
   1373e: 11 a0        	c.j	0x13742 <next_marker+0x76>
   13740: aa 84        	c.mv	s1, a0
   13742: 11 e8        	c.bnez	s0, 0x13756 <next_marker+0x8a>
   13744: 83 35 8a 01  	ld	a1, 0x18(s4)
   13748: 4a 85        	c.mv	a0, s2
   1374a: 82 95        	c.jalr	a1
   1374c: 35 c9        	c.beqz	a0, 0x137c0 <next_marker+0xf4>
   1374e: 83 34 0a 00  	ld	s1, 0x0(s4)
   13752: 03 34 8a 00  	ld	s0, 0x8(s4)
   13756: 83 ca 04 00  	lbu	s5, 0x0(s1)
   1375a: 7d 14        	c.addi	s0, -0x1
   1375c: 85 04        	c.addi	s1, 0x1
   1375e: e3 82 3a ff  	beq	s5, s3, 0x13742 <next_marker+0x76>
   13762: 63 9f 0a 00  	bne	s5, zero, 0x13780 <next_marker+0xb4>
   13766: 03 35 89 23  	ld	a0, 0x238(s2)
   1376a: 83 25 c5 0a  	lw	a1, 0xac(a0)
   1376e: 89 05        	c.addi	a1, 0x2
   13770: 23 26 b5 0a  	sw	a1, 0xac(a0)
   13774: 23 30 9a 00  	sd	s1, 0x0(s4)
   13778: 23 34 8a 00  	sd	s0, 0x8(s4)
   1377c: 2d fc        	c.bnez	s0, 0x136f6 <next_marker+0x2a>
   1377e: 9d b7        	c.j	0x136e4 <next_marker+0x18>
   13780: 03 35 89 23  	ld	a0, 0x238(s2)
   13784: 03 25 c5 0a  	lw	a0, 0xac(a0)
   13788: 0d c5        	c.beqz	a0, 0x137b2 <next_marker+0xe6>
   1378a: 83 35 09 00  	ld	a1, 0x0(s2)
   1378e: c8 d5        	c.sw	a0, 0x2c(a1)
   13790: 03 35 09 00  	ld	a0, 0x0(s2)
   13794: 13 06 00 07  	addi	a2, zero, 0x70
   13798: 90 d5        	c.sw	a2, 0x28(a1)
   1379a: 23 28 55 03  	sw	s5, 0x30(a0)
   1379e: 03 35 09 00  	ld	a0, 0x0(s2)
   137a2: 10 65        	c.ld	a2, 0x8(a0)
   137a4: fd 55        	c.li	a1, -0x1
   137a6: 4a 85        	c.mv	a0, s2
   137a8: 02 96        	c.jalr	a2
   137aa: 03 35 89 23  	ld	a0, 0x238(s2)
   137ae: 23 26 05 0a  	sw	zero, 0xac(a0)
   137b2: 23 26 59 21  	sw	s5, 0x20c(s2)
   137b6: 23 30 9a 00  	sd	s1, 0x0(s4)
   137ba: 23 34 8a 00  	sd	s0, 0x8(s4)
   137be: 05 45        	c.li	a0, 0x1
   137c0: 6f c0 41 2b  	jal	zero, 0x2fa74 <__riscv_restore_7>

00000000000137c4 <jinit_marker_reader>:
   137c4: ef c2 81 29  	jal	t0, 0x2fa5c <__riscv_save_1>
   137c8: 2a 84        	c.mv	s0, a0
   137ca: 08 65        	c.ld	a0, 0x8(a0)
   137cc: 14 61        	c.ld	a3, 0x0(a0)
   137ce: 13 06 00 0b  	addi	a2, zero, 0xb0
   137d2: 22 85        	c.mv	a0, s0
   137d4: 81 45        	c.li	a1, 0x0
   137d6: 82 96        	c.jalr	a3
   137d8: 23 3c a4 22  	sd	a0, 0x238(s0)
   137dc: b7 45 01 00  	lui	a1, 0x14
   137e0: 93 85 25 85  	addi	a1, a1, -0x7ae
   137e4: 0c e1        	c.sd	a1, 0x0(a0)
   137e6: b7 45 01 00  	lui	a1, 0x14
   137ea: 93 85 c5 86  	addi	a1, a1, -0x794
   137ee: 0c e5        	c.sd	a1, 0x8(a0)
   137f0: b7 45 01 00  	lui	a1, 0x14
   137f4: 93 85 e5 2f  	addi	a1, a1, 0x2fe
   137f8: 0c e9        	c.sd	a1, 0x10(a0)
   137fa: b7 45 01 00  	lui	a1, 0x14
   137fe: 93 85 05 36  	addi	a1, a1, 0x360
   13802: 0c ed        	c.sd	a1, 0x18(a0)
   13804: 13 05 00 02  	addi	a0, zero, 0x20
   13808: 13 06 00 0a  	addi	a2, zero, 0xa0
   1380c: 83 36 84 23  	ld	a3, 0x238(s0)
   13810: aa 96        	c.add	a3, a0
   13812: 21 05        	c.addi	a0, 0x8
   13814: 8c e2        	c.sd	a1, 0x0(a3)
   13816: e3 1b c5 fe  	bne	a0, a2, 0x1380c <jinit_marker_reader+0x48>
   1381a: 03 35 84 23  	ld	a0, 0x238(s0)
   1381e: b7 45 01 00  	lui	a1, 0x14
   13822: 93 85 05 3e  	addi	a1, a1, 0x3e0
   13826: 0c f1        	c.sd	a1, 0x20(a0)
   13828: 03 35 84 23  	ld	a0, 0x238(s0)
   1382c: b7 45 01 00  	lui	a1, 0x14
   13830: 93 85 a5 5d  	addi	a1, a1, 0x5da
   13834: 4c e9        	c.sd	a1, 0x90(a0)
   13836: 03 35 84 23  	ld	a0, 0x238(s0)
   1383a: 23 34 04 12  	sd	zero, 0x128(s0)
   1383e: 23 22 04 0a  	sw	zero, 0xa4(s0)
   13842: 23 26 04 20  	sw	zero, 0x20c(s0)
   13846: 23 30 05 0a  	sd	zero, 0xa0(a0)
   1384a: 23 26 05 0a  	sw	zero, 0xac(a0)
   1384e: 6f c0 81 23  	jal	zero, 0x2fa86 <__riscv_restore_1>

0000000000013852 <reset_marker_reader>:
   13852: 83 35 85 23  	ld	a1, 0x238(a0)
   13856: 23 34 05 12  	sd	zero, 0x128(a0)
   1385a: 23 22 05 0a  	sw	zero, 0xa4(a0)
   1385e: 23 26 05 20  	sw	zero, 0x20c(a0)
   13862: 23 b0 05 0a  	sd	zero, 0xa0(a1)
   13866: 23 a6 05 0a  	sw	zero, 0xac(a1)
   1386a: 82 80        	c.jr	ra

000000000001386c <read_markers>:
   1386c: ef c2 e1 1a  	jal	t0, 0x2fa1a <__riscv_save_12>
   13870: 4d 71        	c.addi16sp	sp, -0x150
   13872: 2a 89        	c.mv	s2, a0
   13874: 93 0b 85 16  	addi	s7, a0, 0x168
   13878: 93 0c 85 13  	addi	s9, a0, 0x138
   1387c: 93 0d 85 14  	addi	s11, a0, 0x148
   13880: 13 05 85 15  	addi	a0, a0, 0x158
   13884: 2a f4        	c.sdsp	a0, 0x28(sp)
   13886: 03 24 c9 20  	lw	s0, 0x20c(s2)
   1388a: 13 0b f0 0f  	addi	s6, zero, 0xff
   1388e: 13 0d e0 03  	addi	s10, zero, 0x3e
   13892: 37 25 03 00  	lui	a0, 0x32
   13896: 13 0c 85 97  	addi	s8, a0, -0x688
   1389a: 37 25 03 00  	lui	a0, 0x32
   1389e: 13 05 c5 d5  	addi	a0, a0, -0x2a4
   138a2: 2a f8        	c.sdsp	a0, 0x30(sp)
   138a4: 41 ec        	c.bnez	s0, 0x1393c <read_markers+0xd0>
   138a6: 03 35 89 23  	ld	a0, 0x238(s2)
   138aa: 03 25 05 0a  	lw	a0, 0xa0(a0)
   138ae: 09 c9        	c.beqz	a0, 0x138c0 <read_markers+0x54>
   138b0: 4a 85        	c.mv	a0, s2
   138b2: ef f0 bf e1  	jal	ra, 0x136cc <next_marker>
   138b6: e3 0f 05 22  	beq	a0, zero, 0x142f4 <read_markers+0xa88>
   138ba: 03 24 c9 20  	lw	s0, 0x20c(s2)
   138be: bd a8        	c.j	0x1393c <read_markers+0xd0>
   138c0: 83 34 09 02  	ld	s1, 0x20(s2)
   138c4: 03 ba 84 00  	ld	s4, 0x8(s1)
   138c8: 63 19 0a 00  	bne	s4, zero, 0x138da <read_markers+0x6e>
   138cc: 8c 6c        	c.ld	a1, 0x18(s1)
   138ce: 4a 85        	c.mv	a0, s2
   138d0: 82 95        	c.jalr	a1
   138d2: e3 01 05 22  	beq	a0, zero, 0x142f4 <read_markers+0xa88>
   138d6: 03 ba 84 00  	ld	s4, 0x8(s1)
   138da: 83 ba 04 00  	ld	s5, 0x0(s1)
   138de: 83 c9 0a 00  	lbu	s3, 0x0(s5)
   138e2: 7d 1a        	c.addi	s4, -0x1
   138e4: 63 04 0a 00  	beq	s4, zero, 0x138ec <read_markers+0x80>
   138e8: 85 0a        	c.addi	s5, 0x1
   138ea: 11 a8        	c.j	0x138fe <read_markers+0x92>
   138ec: 8c 6c        	c.ld	a1, 0x18(s1)
   138ee: 4a 85        	c.mv	a0, s2
   138f0: 82 95        	c.jalr	a1
   138f2: e3 01 05 20  	beq	a0, zero, 0x142f4 <read_markers+0xa88>
   138f6: 83 ba 04 00  	ld	s5, 0x0(s1)
   138fa: 03 ba 84 00  	ld	s4, 0x8(s1)
   138fe: 03 c4 0a 00  	lbu	s0, 0x0(s5)
   13902: 63 96 69 01  	bne	s3, s6, 0x1390e <read_markers+0xa2>
   13906: 13 05 80 0d  	addi	a0, zero, 0xd8
   1390a: 63 01 a4 02  	beq	s0, a0, 0x1392c <read_markers+0xc0>
   1390e: 03 35 09 00  	ld	a0, 0x0(s2)
   13912: 23 26 35 03  	sw	s3, 0x2c(a0)
   13916: 83 35 09 00  	ld	a1, 0x0(s2)
   1391a: 13 06 40 03  	addi	a2, zero, 0x34
   1391e: 10 d5        	c.sw	a2, 0x28(a0)
   13920: 80 d9        	c.sw	s0, 0x30(a1)
   13922: 03 35 09 00  	ld	a0, 0x0(s2)
   13926: 0c 61        	c.ld	a1, 0x0(a0)
   13928: 4a 85        	c.mv	a0, s2
   1392a: 82 95        	c.jalr	a1
   1392c: 7d 1a        	c.addi	s4, -0x1
   1392e: 85 0a        	c.addi	s5, 0x1
   13930: 23 26 89 20  	sw	s0, 0x20c(s2)
   13934: 23 b0 54 01  	sd	s5, 0x0(s1)
   13938: 23 b4 44 01  	sd	s4, 0x8(s1)
   1393c: 13 05 04 f4  	addi	a0, s0, -0xc0
   13940: 63 61 ad 04  	bltu	s10, a0, 0x13982 <read_markers+0x116>
   13944: 0a 05        	c.slli	a0, 0x2
   13946: 62 95        	c.add	a0, s8
   13948: 08 41        	c.lw	a0, 0x0(a0)
   1394a: 02 85        	c.jr	a0
   1394c: 03 35 89 23  	ld	a0, 0x238(s2)
   13950: 0e 04        	c.slli	s0, 0x3
   13952: 22 95        	c.add	a0, s0
   13954: 83 35 05 92  	ld	a1, -0x6e0(a0)
   13958: 4a 85        	c.mv	a0, s2
   1395a: 82 95        	c.jalr	a1
   1395c: 63 11 05 72  	bne	a0, zero, 0x1407e <read_markers+0x812>
   13960: 6f 00 50 19  	jal	zero, 0x142f4 <read_markers+0xa88>
   13964: 03 35 09 00  	ld	a0, 0x0(s2)
   13968: 40 d5        	c.sw	s0, 0x2c(a0)
   1396a: 83 35 09 00  	ld	a1, 0x0(s2)
   1396e: 8c 61        	c.ld	a1, 0x0(a1)
   13970: 13 06 b0 03  	addi	a2, zero, 0x3b
   13974: 10 d5        	c.sw	a2, 0x28(a0)
   13976: 4a 85        	c.mv	a0, s2
   13978: 82 95        	c.jalr	a1
   1397a: 11 a7        	c.j	0x1407e <read_markers+0x812>
   1397c: 4a 85        	c.mv	a0, s2
   1397e: 81 45        	c.li	a1, 0x0
   13980: 85 a8        	c.j	0x139f0 <read_markers+0x184>
   13982: 05 45        	c.li	a0, 0x1
   13984: 63 1f a4 00  	bne	s0, a0, 0x139a2 <read_markers+0x136>
   13988: 03 35 09 00  	ld	a0, 0x0(s2)
   1398c: 40 d5        	c.sw	s0, 0x2c(a0)
   1398e: 83 35 09 00  	ld	a1, 0x0(s2)
   13992: 90 65        	c.ld	a2, 0x8(a1)
   13994: 93 05 b0 05  	addi	a1, zero, 0x5b
   13998: 0c d5        	c.sw	a1, 0x28(a0)
   1399a: 85 45        	c.li	a1, 0x1
   1399c: 4a 85        	c.mv	a0, s2
   1399e: 02 96        	c.jalr	a2
   139a0: f9 ad        	c.j	0x1407e <read_markers+0x812>
   139a2: 03 35 09 00  	ld	a0, 0x0(s2)
   139a6: 40 d5        	c.sw	s0, 0x2c(a0)
   139a8: 83 35 09 00  	ld	a1, 0x0(s2)
   139ac: 8c 61        	c.ld	a1, 0x0(a1)
   139ae: 13 06 30 04  	addi	a2, zero, 0x43
   139b2: c9 b7        	c.j	0x13974 <read_markers+0x108>
   139b4: 6e e8        	c.sdsp	s11, 0x10(sp)
   139b6: 66 ec        	c.sdsp	s9, 0x18(sp)
   139b8: 5e f0        	c.sdsp	s7, 0x20(sp)
   139ba: 83 3b 09 02  	ld	s7, 0x20(s2)
   139be: 83 bd 8b 00  	ld	s11, 0x8(s7)
   139c2: 63 9c 0d 00  	bne	s11, zero, 0x139da <read_markers+0x16e>
   139c6: 83 b5 8b 01  	ld	a1, 0x18(s7)
   139ca: 4a 85        	c.mv	a0, s2
   139cc: 82 95        	c.jalr	a1
   139ce: e3 03 05 12  	beq	a0, zero, 0x142f4 <read_markers+0xa88>
   139d2: 83 bd 8b 00  	ld	s11, 0x8(s7)
   139d6: 13 0b f0 0f  	addi	s6, zero, 0xff
   139da: 83 bc 0b 00  	ld	s9, 0x0(s7)
   139de: 03 c4 0c 00  	lbu	s0, 0x0(s9)
   139e2: fd 1d        	c.addi	s11, -0x1
   139e4: 63 8f 0d 12  	beq	s11, zero, 0x13b22 <read_markers+0x2b6>
   139e8: 85 0c        	c.addi	s9, 0x1
   139ea: 81 aa        	c.j	0x13b3a <read_markers+0x2ce>
   139ec: 85 45        	c.li	a1, 0x1
   139ee: 4a 85        	c.mv	a0, s2
   139f0: 01 46        	c.li	a2, 0x0
   139f2: ed a0        	c.j	0x13adc <read_markers+0x270>
   139f4: 83 3a 09 02  	ld	s5, 0x20(s2)
   139f8: 83 b4 8a 00  	ld	s1, 0x8(s5)
   139fc: 89 e8        	c.bnez	s1, 0x13a0e <read_markers+0x1a2>
   139fe: 83 b5 8a 01  	ld	a1, 0x18(s5)
   13a02: 4a 85        	c.mv	a0, s2
   13a04: 82 95        	c.jalr	a1
   13a06: e3 07 05 0e  	beq	a0, zero, 0x142f4 <read_markers+0xa88>
   13a0a: 83 b4 8a 00  	ld	s1, 0x8(s5)
   13a0e: 83 b9 0a 00  	ld	s3, 0x0(s5)
   13a12: 03 ca 09 00  	lbu	s4, 0x0(s3)
   13a16: fd 14        	c.addi	s1, -0x1
   13a18: 63 88 04 30  	beq	s1, zero, 0x13d28 <read_markers+0x4bc>
   13a1c: 85 09        	c.addi	s3, 0x1
   13a1e: 39 ae        	c.j	0x13d3c <read_markers+0x4d0>
   13a20: 03 35 89 23  	ld	a0, 0x238(s2)
   13a24: 0c 6d        	c.ld	a1, 0x18(a0)
   13a26: 0d bf        	c.j	0x13958 <read_markers+0xec>
   13a28: 03 35 09 00  	ld	a0, 0x0(s2)
   13a2c: 10 65        	c.ld	a2, 0x8(a0)
   13a2e: 93 05 50 06  	addi	a1, zero, 0x65
   13a32: 0c d5        	c.sw	a1, 0x28(a0)
   13a34: 85 45        	c.li	a1, 0x1
   13a36: 4a 85        	c.mv	a0, s2
   13a38: 02 96        	c.jalr	a2
   13a3a: 03 34 89 23  	ld	s0, 0x238(s2)
   13a3e: 03 25 04 0a  	lw	a0, 0xa0(s0)
   13a42: 19 c9        	c.beqz	a0, 0x13a58 <read_markers+0x1ec>
   13a44: 03 35 09 00  	ld	a0, 0x0(s2)
   13a48: 0c 61        	c.ld	a1, 0x0(a0)
   13a4a: 13 06 c0 03  	addi	a2, zero, 0x3c
   13a4e: 10 d5        	c.sw	a2, 0x28(a0)
   13a50: 4a 85        	c.mv	a0, s2
   13a52: 82 95        	c.jalr	a1
   13a54: 03 34 89 23  	ld	s0, 0x238(s2)
   13a58: 41 46        	c.li	a2, 0x10
   13a5a: 66 85        	c.mv	a0, s9
   13a5c: 81 45        	c.li	a1, 0x0
   13a5e: ef 90 f0 63  	jal	ra, 0x1d89c <memset>
   13a62: 85 45        	c.li	a1, 0x1
   13a64: 41 46        	c.li	a2, 0x10
   13a66: 6e 85        	c.mv	a0, s11
   13a68: ef 90 50 63  	jal	ra, 0x1d89c <memset>
   13a6c: 95 45        	c.li	a1, 0x5
   13a6e: 41 46        	c.li	a2, 0x10
   13a70: 22 75        	c.ldsp	a0, 0x28(sp)
   13a72: ef 90 b0 62  	jal	ra, 0x1d89c <memset>
   13a76: 23 2a 09 02  	sw	zero, 0x34(s2)
   13a7a: 23 20 09 18  	sw	zero, 0x180(s2)
   13a7e: 23 b0 0b 00  	sd	zero, 0x0(s7)
   13a82: 23 84 0b 00  	sb	zero, 0x8(s7)
   13a86: 05 45        	c.li	a0, 0x1
   13a88: 23 19 a9 16  	sh	a0, 0x172(s2)
   13a8c: 23 1a a9 16  	sh	a0, 0x174(s2)
   13a90: 23 2c 09 16  	sw	zero, 0x178(s2)
   13a94: 23 0e 09 16  	sb	zero, 0x17c(s2)
   13a98: 23 20 a4 0a  	sw	a0, 0xa0(s0)
   13a9c: cd a3        	c.j	0x1407e <read_markers+0x812>
   13a9e: 5e f0        	c.sdsp	s7, 0x20(sp)
   13aa0: 83 3b 09 02  	ld	s7, 0x20(s2)
   13aa4: 03 ba 8b 00  	ld	s4, 0x8(s7)
   13aa8: 63 1a 0a 00  	bne	s4, zero, 0x13abc <read_markers+0x250>
   13aac: 83 b5 8b 01  	ld	a1, 0x18(s7)
   13ab0: 4a 85        	c.mv	a0, s2
   13ab2: 82 95        	c.jalr	a1
   13ab4: e3 00 05 04  	beq	a0, zero, 0x142f4 <read_markers+0xa88>
   13ab8: 03 ba 8b 00  	ld	s4, 0x8(s7)
   13abc: 83 b9 0b 00  	ld	s3, 0x0(s7)
   13ac0: 03 c4 09 00  	lbu	s0, 0x0(s3)
   13ac4: 7d 1a        	c.addi	s4, -0x1
   13ac6: 63 01 0a 2a  	beq	s4, zero, 0x13d68 <read_markers+0x4fc>
   13aca: 85 09        	c.addi	s3, 0x1
   13acc: 45 ac        	c.j	0x13d7c <read_markers+0x510>
   13ace: 85 45        	c.li	a1, 0x1
   13ad0: 05 46        	c.li	a2, 0x1
   13ad2: 4a 85        	c.mv	a0, s2
   13ad4: 21 a0        	c.j	0x13adc <read_markers+0x270>
   13ad6: 05 46        	c.li	a2, 0x1
   13ad8: 4a 85        	c.mv	a0, s2
   13ada: 81 45        	c.li	a1, 0x0
   13adc: ef 00 10 46  	jal	ra, 0x1473c <get_sof>
   13ae0: 63 1f 05 58  	bne	a0, zero, 0x1407e <read_markers+0x812>
   13ae4: 6f 00 10 01  	jal	zero, 0x142f4 <read_markers+0xa88>
   13ae8: 83 39 09 02  	ld	s3, 0x20(s2)
   13aec: 83 ba 89 00  	ld	s5, 0x8(s3)
   13af0: 63 9a 0a 00  	bne	s5, zero, 0x13b04 <read_markers+0x298>
   13af4: 83 b5 89 01  	ld	a1, 0x18(s3)
   13af8: 4a 85        	c.mv	a0, s2
   13afa: 82 95        	c.jalr	a1
   13afc: 63 0c 05 7e  	beq	a0, zero, 0x142f4 <read_markers+0xa88>
   13b00: 83 ba 89 00  	ld	s5, 0x8(s3)
   13b04: 03 ba 09 00  	ld	s4, 0x0(s3)
   13b08: 03 44 0a 00  	lbu	s0, 0x0(s4)
   13b0c: fd 1a        	c.addi	s5, -0x1
   13b0e: 63 86 0a 40  	beq	s5, zero, 0x13f1a <read_markers+0x6ae>
   13b12: 05 0a        	c.addi	s4, 0x1
   13b14: 29 a9        	c.j	0x13f2e <read_markers+0x6c2>
   13b16: 4a 85        	c.mv	a0, s2
   13b18: ef 00 90 04  	jal	ra, 0x14360 <skip_variable>
   13b1c: 63 11 05 56  	bne	a0, zero, 0x1407e <read_markers+0x812>
   13b20: d1 af        	c.j	0x142f4 <read_markers+0xa88>
   13b22: 83 b5 8b 01  	ld	a1, 0x18(s7)
   13b26: 4a 85        	c.mv	a0, s2
   13b28: 82 95        	c.jalr	a1
   13b2a: 63 05 05 7c  	beq	a0, zero, 0x142f4 <read_markers+0xa88>
   13b2e: 83 bc 0b 00  	ld	s9, 0x0(s7)
   13b32: 83 bd 8b 00  	ld	s11, 0x8(s7)
   13b36: 13 0b f0 0f  	addi	s6, zero, 0xff
   13b3a: 03 c5 0c 00  	lbu	a0, 0x0(s9)
   13b3e: 22 04        	c.slli	s0, 0x8
   13b40: fd 1d        	c.addi	s11, -0x1
   13b42: b3 69 a4 00  	or	s3, s0, a0
   13b46: 85 0c        	c.addi	s9, 0x1
   13b48: 0d 45        	c.li	a0, 0x3
   13b4a: 63 e7 a9 1c  	bltu	s3, a0, 0x13d18 <read_markers+0x4ac>
   13b4e: f9 19        	c.addi	s3, -0x2
   13b50: 63 9c 0d 00  	bne	s11, zero, 0x13b68 <read_markers+0x2fc>
   13b54: 83 b5 8b 01  	ld	a1, 0x18(s7)
   13b58: 4a 85        	c.mv	a0, s2
   13b5a: 82 95        	c.jalr	a1
   13b5c: 63 0c 05 78  	beq	a0, zero, 0x142f4 <read_markers+0xa88>
   13b60: 83 bc 0b 00  	ld	s9, 0x0(s7)
   13b64: 83 bd 8b 00  	ld	s11, 0x8(s7)
   13b68: 03 cb 0c 00  	lbu	s6, 0x0(s9)
   13b6c: 03 35 09 00  	ld	a0, 0x0(s2)
   13b70: 23 26 65 03  	sw	s6, 0x2c(a0)
   13b74: 83 35 09 00  	ld	a1, 0x0(s2)
   13b78: 90 65        	c.ld	a2, 0x8(a1)
   13b7a: 93 05 f0 04  	addi	a1, zero, 0x4f
   13b7e: 0c d5        	c.sw	a1, 0x28(a0)
   13b80: 85 45        	c.li	a1, 0x1
   13b82: 4a 85        	c.mv	a0, s2
   13b84: 02 96        	c.jalr	a2
   13b86: 81 4a        	c.li	s5, 0x0
   13b88: a3 0f 01 12  	sb	zero, 0x13f(sp)
   13b8c: 13 8a 1c 00  	addi	s4, s9, 0x1
   13b90: fd 1d        	c.addi	s11, -0x1
   13b92: c1 44        	c.li	s1, 0x10
   13b94: 80 02        	c.addi4spn	s0, sp, 0x140
   13b96: 63 9c 0d 00  	bne	s11, zero, 0x13bae <read_markers+0x342>
   13b9a: 83 b5 8b 01  	ld	a1, 0x18(s7)
   13b9e: 4a 85        	c.mv	a0, s2
   13ba0: 82 95        	c.jalr	a1
   13ba2: 63 09 05 74  	beq	a0, zero, 0x142f4 <read_markers+0xa88>
   13ba6: 03 ba 0b 00  	ld	s4, 0x0(s7)
   13baa: 83 bd 8b 00  	ld	s11, 0x8(s7)
   13bae: 03 45 0a 00  	lbu	a0, 0x0(s4)
   13bb2: 23 00 a4 00  	sb	a0, 0x0(s0)
   13bb6: bb 8a aa 00  	addw	s5, s5, a0
   13bba: 05 0a        	c.addi	s4, 0x1
   13bbc: fd 1d        	c.addi	s11, -0x1
   13bbe: fd 14        	c.addi	s1, -0x1
   13bc0: 05 04        	c.addi	s0, 0x1
   13bc2: f1 f8        	c.bnez	s1, 0x13b96 <read_markers+0x32a>
   13bc4: 03 35 09 00  	ld	a0, 0x0(s2)
   13bc8: 83 45 01 14  	lbu	a1, 0x140(sp)
   13bcc: 03 46 11 14  	lbu	a2, 0x141(sp)
   13bd0: 83 46 21 14  	lbu	a3, 0x142(sp)
   13bd4: 4c d5        	c.sw	a1, 0x2c(a0)
   13bd6: 83 45 31 14  	lbu	a1, 0x143(sp)
   13bda: 10 d9        	c.sw	a2, 0x30(a0)
   13bdc: 54 d9        	c.sw	a3, 0x34(a0)
   13bde: 03 46 41 14  	lbu	a2, 0x144(sp)
   13be2: 0c dd        	c.sw	a1, 0x38(a0)
   13be4: 83 45 51 14  	lbu	a1, 0x145(sp)
   13be8: 83 46 61 14  	lbu	a3, 0x146(sp)
   13bec: 50 dd        	c.sw	a2, 0x3c(a0)
   13bee: 03 46 71 14  	lbu	a2, 0x147(sp)
   13bf2: 2c c1        	c.sw	a1, 0x40(a0)
   13bf4: 74 c1        	c.sw	a3, 0x44(a0)
   13bf6: 14 65        	c.ld	a3, 0x8(a0)
   13bf8: 30 c5        	c.sw	a2, 0x48(a0)
   13bfa: 93 84 f9 fe  	addi	s1, s3, -0x11
   13bfe: 13 04 50 05  	addi	s0, zero, 0x55
   13c02: 00 d5        	c.sw	s0, 0x28(a0)
   13c04: 89 45        	c.li	a1, 0x2
   13c06: 4a 85        	c.mv	a0, s2
   13c08: 82 96        	c.jalr	a3
   13c0a: 03 35 09 00  	ld	a0, 0x0(s2)
   13c0e: 83 45 81 14  	lbu	a1, 0x148(sp)
   13c12: 03 46 91 14  	lbu	a2, 0x149(sp)
   13c16: 4c d5        	c.sw	a1, 0x2c(a0)
   13c18: 83 45 a1 14  	lbu	a1, 0x14a(sp)
   13c1c: 83 46 b1 14  	lbu	a3, 0x14b(sp)
   13c20: 10 d9        	c.sw	a2, 0x30(a0)
   13c22: 03 46 c1 14  	lbu	a2, 0x14c(sp)
   13c26: 4c d9        	c.sw	a1, 0x34(a0)
   13c28: 14 dd        	c.sw	a3, 0x38(a0)
   13c2a: 83 45 d1 14  	lbu	a1, 0x14d(sp)
   13c2e: 50 dd        	c.sw	a2, 0x3c(a0)
   13c30: 03 46 e1 14  	lbu	a2, 0x14e(sp)
   13c34: 83 46 f1 14  	lbu	a3, 0x14f(sp)
   13c38: 2c c1        	c.sw	a1, 0x40(a0)
   13c3a: 18 65        	c.ld	a4, 0x8(a0)
   13c3c: 70 c1        	c.sw	a2, 0x44(a0)
   13c3e: 34 c5        	c.sw	a3, 0x48(a0)
   13c40: 00 d5        	c.sw	s0, 0x28(a0)
   13c42: 89 45        	c.li	a1, 0x2
   13c44: 4a 85        	c.mv	a0, s2
   13c46: 02 97        	c.jalr	a4
   13c48: 13 95 0a 02  	slli	a0, s5, 0x20
   13c4c: 93 59 05 02  	srli	s3, a0, 0x20
   13c50: 13 05 00 10  	addi	a0, zero, 0x100
   13c54: 63 64 55 01  	bltu	a0, s5, 0x13c5c <read_markers+0x3f0>
   13c58: 63 d9 34 01  	bge	s1, s3, 0x13c6a <read_markers+0x3fe>
   13c5c: 03 35 09 00  	ld	a0, 0x0(s2)
   13c60: 0c 61        	c.ld	a1, 0x0(a0)
   13c62: 71 46        	c.li	a2, 0x1c
   13c64: 10 d5        	c.sw	a2, 0x28(a0)
   13c66: 4a 85        	c.mv	a0, s2
   13c68: 82 95        	c.jalr	a1
   13c6a: 26 e4        	c.sdsp	s1, 0x8(sp)
   13c6c: 63 8e 0a 02  	beq	s5, zero, 0x13ca8 <read_markers+0x43c>
   13c70: 93 04 f1 03  	addi	s1, sp, 0x3f
   13c74: ce 8a        	c.mv	s5, s3
   13c76: 63 9c 0d 00  	bne	s11, zero, 0x13c8e <read_markers+0x422>
   13c7a: 83 b5 8b 01  	ld	a1, 0x18(s7)
   13c7e: 4a 85        	c.mv	a0, s2
   13c80: 82 95        	c.jalr	a1
   13c82: 63 09 05 66  	beq	a0, zero, 0x142f4 <read_markers+0xa88>
   13c86: 03 ba 0b 00  	ld	s4, 0x0(s7)
   13c8a: 83 bd 8b 00  	ld	s11, 0x8(s7)
   13c8e: 03 45 0a 00  	lbu	a0, 0x0(s4)
   13c92: fd 1d        	c.addi	s11, -0x1
   13c94: 93 0c 1a 00  	addi	s9, s4, 0x1
   13c98: 23 80 a4 00  	sb	a0, 0x0(s1)
   13c9c: fd 1a        	c.addi	s5, -0x1
   13c9e: 85 04        	c.addi	s1, 0x1
   13ca0: 66 8a        	c.mv	s4, s9
   13ca2: e3 9a 0a fc  	bne	s5, zero, 0x13c76 <read_markers+0x40a>
   13ca6: 11 a0        	c.j	0x13caa <read_markers+0x43e>
   13ca8: d2 8c        	c.mv	s9, s4
   13caa: 13 75 0b 01  	andi	a0, s6, 0x10
   13cae: 01 c9        	c.beqz	a0, 0x13cbe <read_markers+0x452>
   13cb0: 41 1b        	c.addi	s6, -0x10
   13cb2: 13 15 3b 00  	slli	a0, s6, 0x3
   13cb6: 4a 95        	c.add	a0, s2
   13cb8: 13 04 05 10  	addi	s0, a0, 0x100
   13cbc: 31 a0        	c.j	0x13cc8 <read_markers+0x45c>
   13cbe: 13 15 3b 00  	slli	a0, s6, 0x3
   13cc2: 4a 95        	c.add	a0, s2
   13cc4: 13 04 05 0e  	addi	s0, a0, 0xe0
   13cc8: a2 64        	c.ldsp	s1, 0x8(sp)
   13cca: 11 45        	c.li	a0, 0x4
   13ccc: 63 4d ab 00  	blt	s6, a0, 0x13ce6 <read_markers+0x47a>
   13cd0: 03 35 09 00  	ld	a0, 0x0(s2)
   13cd4: 23 26 65 03  	sw	s6, 0x2c(a0)
   13cd8: 83 35 09 00  	ld	a1, 0x0(s2)
   13cdc: 8c 61        	c.ld	a1, 0x0(a1)
   13cde: 75 46        	c.li	a2, 0x1d
   13ce0: 10 d5        	c.sw	a2, 0x28(a0)
   13ce2: 4a 85        	c.mv	a0, s2
   13ce4: 82 95        	c.jalr	a1
   13ce6: 08 60        	c.ld	a0, 0x0(s0)
   13ce8: 09 e5        	c.bnez	a0, 0x13cf2 <read_markers+0x486>
   13cea: 4a 85        	c.mv	a0, s2
   13cec: ef 60 70 75  	jal	ra, 0x1ac42 <jpeg_alloc_huff_table>
   13cf0: 08 e0        	c.sd	a0, 0x0(s0)
   13cf2: b3 89 34 41  	sub	s3, s1, s3
   13cf6: 93 05 f1 13  	addi	a1, sp, 0x13f
   13cfa: 45 46        	c.li	a2, 0x11
   13cfc: ef 90 b0 44  	jal	ra, 0x1d946 <memcpy>
   13d00: 08 60        	c.ld	a0, 0x0(s0)
   13d02: 45 05        	c.addi	a0, 0x11
   13d04: 93 05 f1 03  	addi	a1, sp, 0x3f
   13d08: 13 06 00 10  	addi	a2, zero, 0x100
   13d0c: ef 90 b0 43  	jal	ra, 0x1d946 <memcpy>
   13d10: 13 0b f0 0f  	addi	s6, zero, 0xff
   13d14: e3 4e 30 e3  	blt	zero, s3, 0x13b50 <read_markers+0x2e4>
   13d18: 23 b0 9b 01  	sd	s9, 0x0(s7)
   13d1c: 23 b4 bb 01  	sd	s11, 0x8(s7)
   13d20: 82 7b        	c.ldsp	s7, 0x20(sp)
   13d22: e2 6c        	c.ldsp	s9, 0x18(sp)
   13d24: c2 6d        	c.ldsp	s11, 0x10(sp)
   13d26: a1 ae        	c.j	0x1407e <read_markers+0x812>
   13d28: 83 b5 8a 01  	ld	a1, 0x18(s5)
   13d2c: 4a 85        	c.mv	a0, s2
   13d2e: 82 95        	c.jalr	a1
   13d30: 63 02 05 5c  	beq	a0, zero, 0x142f4 <read_markers+0xa88>
   13d34: 83 b9 0a 00  	ld	s3, 0x0(s5)
   13d38: 83 b4 8a 00  	ld	s1, 0x8(s5)
   13d3c: 03 c5 09 00  	lbu	a0, 0x0(s3)
   13d40: 22 0a        	c.slli	s4, 0x8
   13d42: 33 65 aa 00  	or	a0, s4, a0
   13d46: 91 45        	c.li	a1, 0x4
   13d48: 63 09 b5 00  	beq	a0, a1, 0x13d5a <read_markers+0x4ee>
   13d4c: 03 35 09 00  	ld	a0, 0x0(s2)
   13d50: 0c 61        	c.ld	a1, 0x0(a0)
   13d52: 25 46        	c.li	a2, 0x9
   13d54: 10 d5        	c.sw	a2, 0x28(a0)
   13d56: 4a 85        	c.mv	a0, s2
   13d58: 82 95        	c.jalr	a1
   13d5a: 13 85 f4 ff  	addi	a0, s1, -0x1
   13d5e: 63 0c 05 2a  	beq	a0, zero, 0x14016 <read_markers+0x7aa>
   13d62: 93 85 19 00  	addi	a1, s3, 0x1
   13d66: d1 a4        	c.j	0x1402a <read_markers+0x7be>
   13d68: 83 b5 8b 01  	ld	a1, 0x18(s7)
   13d6c: 4a 85        	c.mv	a0, s2
   13d6e: 82 95        	c.jalr	a1
   13d70: 63 02 05 58  	beq	a0, zero, 0x142f4 <read_markers+0xa88>
   13d74: 83 b9 0b 00  	ld	s3, 0x0(s7)
   13d78: 03 ba 8b 00  	ld	s4, 0x8(s7)
   13d7c: 03 c5 09 00  	lbu	a0, 0x0(s3)
   13d80: 22 04        	c.slli	s0, 0x8
   13d82: 7d 1a        	c.addi	s4, -0x1
   13d84: 33 6b a4 00  	or	s6, s0, a0
   13d88: 85 09        	c.addi	s3, 0x1
   13d8a: 0d 45        	c.li	a0, 0x3
   13d8c: 63 61 ab 18  	bltu	s6, a0, 0x13f0e <read_markers+0x6a2>
   13d90: 79 1b        	c.addi	s6, -0x2
   13d92: 66 ec        	c.sdsp	s9, 0x18(sp)
   13d94: 6e e8        	c.sdsp	s11, 0x10(sp)
   13d96: 63 1c 0a 00  	bne	s4, zero, 0x13dae <read_markers+0x542>
   13d9a: 83 b5 8b 01  	ld	a1, 0x18(s7)
   13d9e: 4a 85        	c.mv	a0, s2
   13da0: 82 95        	c.jalr	a1
   13da2: 63 09 05 54  	beq	a0, zero, 0x142f4 <read_markers+0xa88>
   13da6: 83 b9 0b 00  	ld	s3, 0x0(s7)
   13daa: 03 ba 8b 00  	ld	s4, 0x8(s7)
   13dae: 83 cd 09 00  	lbu	s11, 0x0(s3)
   13db2: 03 35 09 00  	ld	a0, 0x0(s2)
   13db6: 13 f4 fd 00  	andi	s0, s11, 0xf
   13dba: 40 d5        	c.sw	s0, 0x2c(a0)
   13dbc: 83 35 09 00  	ld	a1, 0x0(s2)
   13dc0: 13 06 00 05  	addi	a2, zero, 0x50
   13dc4: 10 d5        	c.sw	a2, 0x28(a0)
   13dc6: 13 d5 4d 00  	srli	a0, s11, 0x4
   13dca: 88 d9        	c.sw	a0, 0x30(a1)
   13dcc: 03 35 09 00  	ld	a0, 0x0(s2)
   13dd0: 10 65        	c.ld	a2, 0x8(a0)
   13dd2: 85 45        	c.li	a1, 0x1
   13dd4: 4a 85        	c.mv	a0, s2
   13dd6: 02 96        	c.jalr	a2
   13dd8: 11 45        	c.li	a0, 0x4
   13dda: 63 6c a4 00  	bltu	s0, a0, 0x13df2 <read_markers+0x586>
   13dde: 03 35 09 00  	ld	a0, 0x0(s2)
   13de2: 40 d5        	c.sw	s0, 0x2c(a0)
   13de4: 83 35 09 00  	ld	a1, 0x0(s2)
   13de8: 8c 61        	c.ld	a1, 0x0(a1)
   13dea: 79 46        	c.li	a2, 0x1e
   13dec: 10 d5        	c.sw	a2, 0x28(a0)
   13dee: 4a 85        	c.mv	a0, s2
   13df0: 82 95        	c.jalr	a1
   13df2: 13 15 34 00  	slli	a0, s0, 0x3
   13df6: 4a 95        	c.add	a0, s2
   13df8: 83 3a 05 0c  	ld	s5, 0xc0(a0)
   13dfc: 93 0c c0 05  	addi	s9, zero, 0x5c
   13e00: 63 99 0a 00  	bne	s5, zero, 0x13e12 <read_markers+0x5a6>
   13e04: 13 04 05 0c  	addi	s0, a0, 0xc0
   13e08: 4a 85        	c.mv	a0, s2
   13e0a: ef 60 10 62  	jal	ra, 0x1ac2a <jpeg_alloc_quant_table>
   13e0e: aa 8a        	c.mv	s5, a0
   13e10: 08 e0        	c.sd	a0, 0x0(s0)
   13e12: 7d 1a        	c.addi	s4, -0x1
   13e14: 85 09        	c.addi	s3, 0x1
   13e16: 13 04 00 04  	addi	s0, zero, 0x40
   13e1a: c2 74        	c.ldsp	s1, 0x30(sp)
   13e1c: 41 45        	c.li	a0, 0x10
   13e1e: 63 f1 ad 02  	bgeu	s11, a0, 0x13e40 <read_markers+0x5d4>
   13e22: 63 1c 0a 00  	bne	s4, zero, 0x13e3a <read_markers+0x5ce>
   13e26: 83 b5 8b 01  	ld	a1, 0x18(s7)
   13e2a: 4a 85        	c.mv	a0, s2
   13e2c: 82 95        	c.jalr	a1
   13e2e: 63 03 05 4c  	beq	a0, zero, 0x142f4 <read_markers+0xa88>
   13e32: 83 b9 0b 00  	ld	s3, 0x0(s7)
   13e36: 03 ba 8b 00  	ld	s4, 0x8(s7)
   13e3a: 03 c5 09 00  	lbu	a0, 0x0(s3)
   13e3e: a9 a0        	c.j	0x13e88 <read_markers+0x61c>
   13e40: 63 1c 0a 00  	bne	s4, zero, 0x13e58 <read_markers+0x5ec>
   13e44: 83 b5 8b 01  	ld	a1, 0x18(s7)
   13e48: 4a 85        	c.mv	a0, s2
   13e4a: 82 95        	c.jalr	a1
   13e4c: 63 04 05 4a  	beq	a0, zero, 0x142f4 <read_markers+0xa88>
   13e50: 83 b9 0b 00  	ld	s3, 0x0(s7)
   13e54: 03 ba 8b 00  	ld	s4, 0x8(s7)
   13e58: 83 cc 09 00  	lbu	s9, 0x0(s3)
   13e5c: 7d 1a        	c.addi	s4, -0x1
   13e5e: 63 04 0a 00  	beq	s4, zero, 0x13e66 <read_markers+0x5fa>
   13e62: 85 09        	c.addi	s3, 0x1
   13e64: 19 a8        	c.j	0x13e7a <read_markers+0x60e>
   13e66: 83 b5 8b 01  	ld	a1, 0x18(s7)
   13e6a: 4a 85        	c.mv	a0, s2
   13e6c: 82 95        	c.jalr	a1
   13e6e: 63 03 05 48  	beq	a0, zero, 0x142f4 <read_markers+0xa88>
   13e72: 83 b9 0b 00  	ld	s3, 0x0(s7)
   13e76: 03 ba 8b 00  	ld	s4, 0x8(s7)
   13e7a: 03 c5 09 00  	lbu	a0, 0x0(s3)
   13e7e: a2 0c        	c.slli	s9, 0x8
   13e80: 33 e5 ac 00  	or	a0, s9, a0
   13e84: 93 0c c0 05  	addi	s9, zero, 0x5c
   13e88: 8c 40        	c.lw	a1, 0x0(s1)
   13e8a: 86 05        	c.slli	a1, 0x1
   13e8c: d6 95        	c.add	a1, s5
   13e8e: 23 90 a5 00  	sh	a0, 0x0(a1)
   13e92: 7d 1a        	c.addi	s4, -0x1
   13e94: 85 09        	c.addi	s3, 0x1
   13e96: 7d 14        	c.addi	s0, -0x1
   13e98: 91 04        	c.addi	s1, 0x4
   13e9a: 49 f0        	c.bnez	s0, 0x13e1c <read_markers+0x5b0>
   13e9c: 03 35 09 00  	ld	a0, 0x0(s2)
   13ea0: 68 5d        	c.lw	a0, 0x7c(a0)
   13ea2: 89 45        	c.li	a1, 0x2
   13ea4: 63 49 b5 04  	blt	a0, a1, 0x13ef6 <read_markers+0x68a>
   13ea8: 13 84 8a 00  	addi	s0, s5, 0x8
   13eac: 93 84 8a 08  	addi	s1, s5, 0x88
   13eb0: 03 35 09 00  	ld	a0, 0x0(s2)
   13eb4: 83 55 84 ff  	lhu	a1, -0x8(s0)
   13eb8: 03 56 a4 ff  	lhu	a2, -0x6(s0)
   13ebc: 4c d5        	c.sw	a1, 0x2c(a0)
   13ebe: 83 55 c4 ff  	lhu	a1, -0x4(s0)
   13ec2: 83 56 e4 ff  	lhu	a3, -0x2(s0)
   13ec6: 10 d9        	c.sw	a2, 0x30(a0)
   13ec8: 03 56 04 00  	lhu	a2, 0x0(s0)
   13ecc: 4c d9        	c.sw	a1, 0x34(a0)
   13ece: 14 dd        	c.sw	a3, 0x38(a0)
   13ed0: 83 55 24 00  	lhu	a1, 0x2(s0)
   13ed4: 50 dd        	c.sw	a2, 0x3c(a0)
   13ed6: 03 56 44 00  	lhu	a2, 0x4(s0)
   13eda: 83 56 64 00  	lhu	a3, 0x6(s0)
   13ede: 2c c1        	c.sw	a1, 0x40(a0)
   13ee0: 18 65        	c.ld	a4, 0x8(a0)
   13ee2: 70 c1        	c.sw	a2, 0x44(a0)
   13ee4: 34 c5        	c.sw	a3, 0x48(a0)
   13ee6: 23 24 95 03  	sw	s9, 0x28(a0)
   13eea: 89 45        	c.li	a1, 0x2
   13eec: 4a 85        	c.mv	a0, s2
   13eee: 02 97        	c.jalr	a4
   13ef0: 41 04        	c.addi	s0, 0x10
   13ef2: e3 1f 94 fa  	bne	s0, s1, 0x13eb0 <read_markers+0x644>
   13ef6: 13 05 f0 fb  	addi	a0, zero, -0x41
   13efa: c1 45        	c.li	a1, 0x10
   13efc: 63 e4 bd 00  	bltu	s11, a1, 0x13f04 <read_markers+0x698>
   13f00: 13 05 f0 f7  	addi	a0, zero, -0x81
   13f04: 2a 9b        	c.add	s6, a0
   13f06: e2 6c        	c.ldsp	s9, 0x18(sp)
   13f08: c2 6d        	c.ldsp	s11, 0x10(sp)
   13f0a: e3 46 60 e9  	blt	zero, s6, 0x13d96 <read_markers+0x52a>
   13f0e: 23 b0 3b 01  	sd	s3, 0x0(s7)
   13f12: 23 b4 4b 01  	sd	s4, 0x8(s7)
   13f16: 82 7b        	c.ldsp	s7, 0x20(sp)
   13f18: e5 a8        	c.j	0x14010 <read_markers+0x7a4>
   13f1a: 83 b5 89 01  	ld	a1, 0x18(s3)
   13f1e: 4a 85        	c.mv	a0, s2
   13f20: 82 95        	c.jalr	a1
   13f22: 63 09 05 3c  	beq	a0, zero, 0x142f4 <read_markers+0xa88>
   13f26: 03 ba 09 00  	ld	s4, 0x0(s3)
   13f2a: 83 ba 89 00  	ld	s5, 0x8(s3)
   13f2e: 03 45 0a 00  	lbu	a0, 0x0(s4)
   13f32: 22 04        	c.slli	s0, 0x8
   13f34: b3 65 a4 00  	or	a1, s0, a0
   13f38: 05 0a        	c.addi	s4, 0x1
   13f3a: fd 1a        	c.addi	s5, -0x1
   13f3c: 0d 46        	c.li	a2, 0x3
   13f3e: 63 e5 c5 0c  	bltu	a1, a2, 0x14008 <read_markers+0x79c>
   13f42: 22 95        	c.add	a0, s0
   13f44: 13 0b 25 00  	addi	s6, a0, 0x2
   13f48: 63 9c 0a 00  	bne	s5, zero, 0x13f60 <read_markers+0x6f4>
   13f4c: 83 b5 89 01  	ld	a1, 0x18(s3)
   13f50: 4a 85        	c.mv	a0, s2
   13f52: 82 95        	c.jalr	a1
   13f54: 63 00 05 3a  	beq	a0, zero, 0x142f4 <read_markers+0xa88>
   13f58: 03 ba 09 00  	ld	s4, 0x0(s3)
   13f5c: 83 ba 89 00  	ld	s5, 0x8(s3)
   13f60: 83 44 0a 00  	lbu	s1, 0x0(s4)
   13f64: fd 1a        	c.addi	s5, -0x1
   13f66: 63 84 0a 00  	beq	s5, zero, 0x13f6e <read_markers+0x702>
   13f6a: 05 0a        	c.addi	s4, 0x1
   13f6c: 19 a8        	c.j	0x13f82 <read_markers+0x716>
   13f6e: 83 b5 89 01  	ld	a1, 0x18(s3)
   13f72: 4a 85        	c.mv	a0, s2
   13f74: 82 95        	c.jalr	a1
   13f76: 63 0f 05 36  	beq	a0, zero, 0x142f4 <read_markers+0xa88>
   13f7a: 03 ba 09 00  	ld	s4, 0x0(s3)
   13f7e: 83 ba 89 00  	ld	s5, 0x8(s3)
   13f82: 03 35 09 00  	ld	a0, 0x0(s2)
   13f86: 03 44 0a 00  	lbu	s0, 0x0(s4)
   13f8a: 44 d5        	c.sw	s1, 0x2c(a0)
   13f8c: 83 35 09 00  	ld	a1, 0x0(s2)
   13f90: 13 06 e0 04  	addi	a2, zero, 0x4e
   13f94: 10 d5        	c.sw	a2, 0x28(a0)
   13f96: 80 d9        	c.sw	s0, 0x30(a1)
   13f98: 03 35 09 00  	ld	a0, 0x0(s2)
   13f9c: 10 65        	c.ld	a2, 0x8(a0)
   13f9e: 85 45        	c.li	a1, 0x1
   13fa0: 4a 85        	c.mv	a0, s2
   13fa2: 02 96        	c.jalr	a2
   13fa4: 13 05 00 02  	addi	a0, zero, 0x20
   13fa8: 63 ed a4 00  	bltu	s1, a0, 0x13fc2 <read_markers+0x756>
   13fac: 03 35 09 00  	ld	a0, 0x0(s2)
   13fb0: 44 d5        	c.sw	s1, 0x2c(a0)
   13fb2: 83 35 09 00  	ld	a1, 0x0(s2)
   13fb6: 8c 61        	c.ld	a1, 0x0(a1)
   13fb8: 69 46        	c.li	a2, 0x1a
   13fba: 10 d5        	c.sw	a2, 0x28(a0)
   13fbc: 4a 85        	c.mv	a0, s2
   13fbe: 82 95        	c.jalr	a1
   13fc0: 21 a0        	c.j	0x13fc8 <read_markers+0x75c>
   13fc2: 41 45        	c.li	a0, 0x10
   13fc4: 63 ec a4 00  	bltu	s1, a0, 0x13fdc <read_markers+0x770>
   13fc8: ca 94        	c.add	s1, s2
   13fca: 23 84 84 14  	sb	s0, 0x148(s1)
   13fce: 05 0a        	c.addi	s4, 0x1
   13fd0: 79 1b        	c.addi	s6, -0x2
   13fd2: fd 1a        	c.addi	s5, -0x1
   13fd4: 11 45        	c.li	a0, 0x4
   13fd6: e3 69 65 f7  	bltu	a0, s6, 0x13f48 <read_markers+0x6dc>
   13fda: 3d a0        	c.j	0x14008 <read_markers+0x79c>
   13fdc: 13 75 f4 00  	andi	a0, s0, 0xf
   13fe0: ca 94        	c.add	s1, s2
   13fe2: 23 8c a4 12  	sb	a0, 0x138(s1)
   13fe6: 93 55 44 00  	srli	a1, s0, 0x4
   13fea: 23 84 b4 14  	sb	a1, 0x148(s1)
   13fee: e3 f0 a5 fe  	bgeu	a1, a0, 0x13fce <read_markers+0x762>
   13ff2: 03 35 09 00  	ld	a0, 0x0(s2)
   13ff6: 40 d5        	c.sw	s0, 0x2c(a0)
   13ff8: 83 35 09 00  	ld	a1, 0x0(s2)
   13ffc: 8c 61        	c.ld	a1, 0x0(a1)
   13ffe: 6d 46        	c.li	a2, 0x1b
   14000: 10 d5        	c.sw	a2, 0x28(a0)
   14002: 4a 85        	c.mv	a0, s2
   14004: 82 95        	c.jalr	a1
   14006: e1 b7        	c.j	0x13fce <read_markers+0x762>
   14008: 23 b0 49 01  	sd	s4, 0x0(s3)
   1400c: 23 b4 59 01  	sd	s5, 0x8(s3)
   14010: 13 0b f0 0f  	addi	s6, zero, 0xff
   14014: ad a0        	c.j	0x1407e <read_markers+0x812>
   14016: 83 b5 8a 01  	ld	a1, 0x18(s5)
   1401a: 4a 85        	c.mv	a0, s2
   1401c: 82 95        	c.jalr	a1
   1401e: 63 0b 05 2c  	beq	a0, zero, 0x142f4 <read_markers+0xa88>
   14022: 83 b5 0a 00  	ld	a1, 0x0(s5)
   14026: 03 b5 8a 00  	ld	a0, 0x8(s5)
   1402a: 83 c4 05 00  	lbu	s1, 0x0(a1)
   1402e: 7d 15        	c.addi	a0, -0x1
   14030: 19 c1        	c.beqz	a0, 0x14036 <read_markers+0x7ca>
   14032: 85 05        	c.addi	a1, 0x1
   14034: 19 a8        	c.j	0x1404a <read_markers+0x7de>
   14036: 83 b5 8a 01  	ld	a1, 0x18(s5)
   1403a: 4a 85        	c.mv	a0, s2
   1403c: 82 95        	c.jalr	a1
   1403e: 63 0b 05 2a  	beq	a0, zero, 0x142f4 <read_markers+0xa88>
   14042: 83 b5 0a 00  	ld	a1, 0x0(s5)
   14046: 03 b5 8a 00  	ld	a0, 0x8(s5)
   1404a: 03 c6 05 00  	lbu	a2, 0x0(a1)
   1404e: 83 36 09 00  	ld	a3, 0x0(s2)
   14052: a2 04        	c.slli	s1, 0x8
   14054: d1 8c        	c.or	s1, a2
   14056: c4 d6        	c.sw	s1, 0x2c(a3)
   14058: 03 36 09 00  	ld	a2, 0x0(s2)
   1405c: 10 66        	c.ld	a2, 0x8(a2)
   1405e: 13 07 10 05  	addi	a4, zero, 0x51
   14062: 98 d6        	c.sw	a4, 0x28(a3)
   14064: 93 09 f5 ff  	addi	s3, a0, -0x1
   14068: 13 84 15 00  	addi	s0, a1, 0x1
   1406c: 85 45        	c.li	a1, 0x1
   1406e: 4a 85        	c.mv	a0, s2
   14070: 02 96        	c.jalr	a2
   14072: 23 24 99 16  	sw	s1, 0x168(s2)
   14076: 23 b0 8a 00  	sd	s0, 0x0(s5)
   1407a: 23 b4 3a 01  	sd	s3, 0x8(s5)
   1407e: 01 44        	c.li	s0, 0x0
   14080: 23 26 09 20  	sw	zero, 0x20c(s2)
   14084: e3 1c 00 8a  	bne	zero, zero, 0x1393c <read_markers+0xd0>
   14088: 6f f0 ff 81  	jal	zero, 0x138a6 <read_markers+0x3a>
   1408c: 03 35 09 00  	ld	a0, 0x0(s2)
   14090: 10 65        	c.ld	a2, 0x8(a0)
   14092: 93 05 40 05  	addi	a1, zero, 0x54
   14096: 0c d5        	c.sw	a1, 0x28(a0)
   14098: 85 45        	c.li	a1, 0x1
   1409a: 4a 85        	c.mv	a0, s2
   1409c: 02 96        	c.jalr	a2
   1409e: 23 26 09 20  	sw	zero, 0x20c(s2)
   140a2: 89 44        	c.li	s1, 0x2
   140a4: 89 ac        	c.j	0x142f6 <read_markers+0xa8a>
   140a6: 03 3b 09 02  	ld	s6, 0x20(s2)
   140aa: 03 35 89 23  	ld	a0, 0x238(s2)
   140ae: 03 34 0b 00  	ld	s0, 0x0(s6)
   140b2: 03 25 45 0a  	lw	a0, 0xa4(a0)
   140b6: 83 34 8b 00  	ld	s1, 0x8(s6)
   140ba: 09 e9        	c.bnez	a0, 0x140cc <read_markers+0x860>
   140bc: 03 35 09 00  	ld	a0, 0x0(s2)
   140c0: 0c 61        	c.ld	a1, 0x0(a0)
   140c2: 13 06 d0 03  	addi	a2, zero, 0x3d
   140c6: 10 d5        	c.sw	a2, 0x28(a0)
   140c8: 4a 85        	c.mv	a0, s2
   140ca: 82 95        	c.jalr	a1
   140cc: 99 e8        	c.bnez	s1, 0x140e2 <read_markers+0x876>
   140ce: 83 35 8b 01  	ld	a1, 0x18(s6)
   140d2: 4a 85        	c.mv	a0, s2
   140d4: 82 95        	c.jalr	a1
   140d6: 63 0f 05 20  	beq	a0, zero, 0x142f4 <read_markers+0xa88>
   140da: 03 34 0b 00  	ld	s0, 0x0(s6)
   140de: 83 34 8b 00  	ld	s1, 0x8(s6)
   140e2: 03 4a 04 00  	lbu	s4, 0x0(s0)
   140e6: 13 85 f4 ff  	addi	a0, s1, -0x1
   140ea: 01 c5        	c.beqz	a0, 0x140f2 <read_markers+0x886>
   140ec: 93 0b 14 00  	addi	s7, s0, 0x1
   140f0: 19 a8        	c.j	0x14106 <read_markers+0x89a>
   140f2: 83 35 8b 01  	ld	a1, 0x18(s6)
   140f6: 4a 85        	c.mv	a0, s2
   140f8: 82 95        	c.jalr	a1
   140fa: 63 0d 05 1e  	beq	a0, zero, 0x142f4 <read_markers+0xa88>
   140fe: 83 3b 0b 00  	ld	s7, 0x0(s6)
   14102: 03 35 8b 00  	ld	a0, 0x8(s6)
   14106: 83 c4 0b 00  	lbu	s1, 0x0(s7)
   1410a: 13 04 f5 ff  	addi	s0, a0, -0x1
   1410e: 19 c0        	c.beqz	s0, 0x14114 <read_markers+0x8a8>
   14110: 85 0b        	c.addi	s7, 0x1
   14112: 19 a8        	c.j	0x14128 <read_markers+0x8bc>
   14114: 83 35 8b 01  	ld	a1, 0x18(s6)
   14118: 4a 85        	c.mv	a0, s2
   1411a: 82 95        	c.jalr	a1
   1411c: 63 0c 05 1c  	beq	a0, zero, 0x142f4 <read_markers+0xa88>
   14120: 83 3b 0b 00  	ld	s7, 0x0(s6)
   14124: 03 34 8b 00  	ld	s0, 0x8(s6)
   14128: 83 c9 0b 00  	lbu	s3, 0x0(s7)
   1412c: 93 85 b9 ff  	addi	a1, s3, -0x5
   14130: 03 35 09 00  	ld	a0, 0x0(s2)
   14134: 93 f5 f5 0f  	andi	a1, a1, 0xff
   14138: 13 06 c0 0f  	addi	a2, zero, 0xfc
   1413c: 63 ea c5 00  	bltu	a1, a2, 0x14150 <read_markers+0x8e4>
   14140: 22 0a        	c.slli	s4, 0x8
   14142: b3 65 9a 00  	or	a1, s4, s1
   14146: 13 96 19 00  	slli	a2, s3, 0x1
   1414a: 19 06        	c.addi	a2, 0x6
   1414c: 63 89 c5 00  	beq	a1, a2, 0x1415e <read_markers+0x8f2>
   14150: 0c 61        	c.ld	a1, 0x0(a0)
   14152: 25 46        	c.li	a2, 0x9
   14154: 10 d5        	c.sw	a2, 0x28(a0)
   14156: 4a 85        	c.mv	a0, s2
   14158: 82 95        	c.jalr	a1
   1415a: 03 35 09 00  	ld	a0, 0x0(s2)
   1415e: 23 26 35 03  	sw	s3, 0x2c(a0)
   14162: 83 35 09 00  	ld	a1, 0x0(s2)
   14166: 90 65        	c.ld	a2, 0x8(a1)
   14168: 93 05 60 06  	addi	a1, zero, 0x66
   1416c: 0c d5        	c.sw	a1, 0x28(a0)
   1416e: 85 45        	c.li	a1, 0x1
   14170: 4a 85        	c.mv	a0, s2
   14172: 02 96        	c.jalr	a2
   14174: 23 20 39 1b  	sw	s3, 0x1a0(s2)
   14178: 85 0b        	c.addi	s7, 0x1
   1417a: 13 0c f4 ff  	addi	s8, s0, -0x1
   1417e: 63 89 09 0a  	beq	s3, zero, 0x14230 <read_markers+0x9c4>
   14182: 81 4c        	c.li	s9, 0x0
   14184: 13 0a 70 06  	addi	s4, zero, 0x67
   14188: 95 4a        	c.li	s5, 0x5
   1418a: 63 1c 0c 00  	bne	s8, zero, 0x141a2 <read_markers+0x936>
   1418e: 83 35 8b 01  	ld	a1, 0x18(s6)
   14192: 4a 85        	c.mv	a0, s2
   14194: 82 95        	c.jalr	a1
   14196: 63 0f 05 14  	beq	a0, zero, 0x142f4 <read_markers+0xa88>
   1419a: 83 3b 0b 00  	ld	s7, 0x0(s6)
   1419e: 03 3c 8b 00  	ld	s8, 0x8(s6)
   141a2: 03 c4 0b 00  	lbu	s0, 0x0(s7)
   141a6: 7d 1c        	c.addi	s8, -0x1
   141a8: 63 04 0c 00  	beq	s8, zero, 0x141b0 <read_markers+0x944>
   141ac: 85 0b        	c.addi	s7, 0x1
   141ae: 19 a8        	c.j	0x141c4 <read_markers+0x958>
   141b0: 83 35 8b 01  	ld	a1, 0x18(s6)
   141b4: 4a 85        	c.mv	a0, s2
   141b6: 82 95        	c.jalr	a1
   141b8: 63 0e 05 12  	beq	a0, zero, 0x142f4 <read_markers+0xa88>
   141bc: 83 3b 0b 00  	ld	s7, 0x0(s6)
   141c0: 03 3c 8b 00  	ld	s8, 0x8(s6)
   141c4: 03 cd 0b 00  	lbu	s10, 0x0(s7)
   141c8: 03 25 09 03  	lw	a0, 0x30(s2)
   141cc: 83 34 89 12  	ld	s1, 0x128(s2)
   141d0: 63 59 a0 00  	bge	zero, a0, 0x141e2 <read_markers+0x976>
   141d4: 8c 40        	c.lw	a1, 0x0(s1)
   141d6: 63 80 85 02  	beq	a1, s0, 0x141f6 <read_markers+0x98a>
   141da: 7d 35        	c.addiw	a0, -0x1
   141dc: 93 84 04 06  	addi	s1, s1, 0x60
   141e0: 75 f9        	c.bnez	a0, 0x141d4 <read_markers+0x968>
   141e2: 03 35 09 00  	ld	a0, 0x0(s2)
   141e6: 40 d5        	c.sw	s0, 0x2c(a0)
   141e8: 83 35 09 00  	ld	a1, 0x0(s2)
   141ec: 8c 61        	c.ld	a1, 0x0(a1)
   141ee: 23 24 55 03  	sw	s5, 0x28(a0)
   141f2: 4a 85        	c.mv	a0, s2
   141f4: 82 95        	c.jalr	a1
   141f6: 13 55 4d 00  	srli	a0, s10, 0x4
   141fa: 83 35 09 00  	ld	a1, 0x0(s2)
   141fe: c8 c8        	c.sw	a0, 0x14(s1)
   14200: 13 75 fd 00  	andi	a0, s10, 0xf
   14204: 88 cc        	c.sw	a0, 0x18(s1)
   14206: c0 d5        	c.sw	s0, 0x2c(a1)
   14208: c8 48        	c.lw	a0, 0x14(s1)
   1420a: 13 96 3c 00  	slli	a2, s9, 0x3
   1420e: 4a 96        	c.add	a2, s2
   14210: 88 d9        	c.sw	a0, 0x30(a1)
   14212: 88 4c        	c.lw	a0, 0x18(s1)
   14214: 23 34 96 1a  	sd	s1, 0x1a8(a2)
   14218: 90 65        	c.ld	a2, 0x8(a1)
   1421a: c8 d9        	c.sw	a0, 0x34(a1)
   1421c: 23 a4 45 03  	sw	s4, 0x28(a1)
   14220: 85 45        	c.li	a1, 0x1
   14222: 4a 85        	c.mv	a0, s2
   14224: 02 96        	c.jalr	a2
   14226: 85 0c        	c.addi	s9, 0x1
   14228: 85 0b        	c.addi	s7, 0x1
   1422a: 7d 1c        	c.addi	s8, -0x1
   1422c: e3 9f 3c f5  	bne	s9, s3, 0x1418a <read_markers+0x91e>
   14230: 63 1b 0c 00  	bne	s8, zero, 0x14246 <read_markers+0x9da>
   14234: 83 35 8b 01  	ld	a1, 0x18(s6)
   14238: 4a 85        	c.mv	a0, s2
   1423a: 82 95        	c.jalr	a1
   1423c: 45 cd        	c.beqz	a0, 0x142f4 <read_markers+0xa88>
   1423e: 83 3b 0b 00  	ld	s7, 0x0(s6)
   14242: 03 3c 8b 00  	ld	s8, 0x8(s6)
   14246: 83 c5 0b 00  	lbu	a1, 0x0(s7)
   1424a: 13 05 fc ff  	addi	a0, s8, -0x1
   1424e: 23 2e b9 1e  	sw	a1, 0x1fc(s2)
   14252: 01 c5        	c.beqz	a0, 0x1425a <read_markers+0x9ee>
   14254: 93 85 1b 00  	addi	a1, s7, 0x1
   14258: 11 a8        	c.j	0x1426c <read_markers+0xa00>
   1425a: 83 35 8b 01  	ld	a1, 0x18(s6)
   1425e: 4a 85        	c.mv	a0, s2
   14260: 82 95        	c.jalr	a1
   14262: 49 c9        	c.beqz	a0, 0x142f4 <read_markers+0xa88>
   14264: 83 35 0b 00  	ld	a1, 0x0(s6)
   14268: 03 35 8b 00  	ld	a0, 0x8(s6)
   1426c: 03 c6 05 00  	lbu	a2, 0x0(a1)
   14270: 7d 15        	c.addi	a0, -0x1
   14272: 23 20 c9 20  	sw	a2, 0x200(s2)
   14276: 19 c1        	c.beqz	a0, 0x1427c <read_markers+0xa10>
   14278: 85 05        	c.addi	a1, 0x1
   1427a: 11 a8        	c.j	0x1428e <read_markers+0xa22>
   1427c: 83 35 8b 01  	ld	a1, 0x18(s6)
   14280: 4a 85        	c.mv	a0, s2
   14282: 82 95        	c.jalr	a1
   14284: 25 c9        	c.beqz	a0, 0x142f4 <read_markers+0xa88>
   14286: 83 35 0b 00  	ld	a1, 0x0(s6)
   1428a: 03 35 8b 00  	ld	a0, 0x8(s6)
   1428e: 03 c6 05 00  	lbu	a2, 0x0(a1)
   14292: 93 56 46 00  	srli	a3, a2, 0x4
   14296: 03 37 09 00  	ld	a4, 0x0(s2)
   1429a: 83 27 c9 1f  	lw	a5, 0x1fc(s2)
   1429e: 23 22 d9 20  	sw	a3, 0x204(s2)
   142a2: 3d 8a        	c.andi	a2, 0xf
   142a4: 23 24 c9 20  	sw	a2, 0x208(s2)
   142a8: 5c d7        	c.sw	a5, 0x2c(a4)
   142aa: 03 26 09 20  	lw	a2, 0x200(s2)
   142ae: 10 db        	c.sw	a2, 0x30(a4)
   142b0: 03 26 49 20  	lw	a2, 0x204(s2)
   142b4: 50 db        	c.sw	a2, 0x34(a4)
   142b6: 03 26 89 20  	lw	a2, 0x208(s2)
   142ba: 10 df        	c.sw	a2, 0x38(a4)
   142bc: 13 06 80 06  	addi	a2, zero, 0x68
   142c0: 14 67        	c.ld	a3, 0x8(a4)
   142c2: 10 d7        	c.sw	a2, 0x28(a4)
   142c4: 93 09 f5 ff  	addi	s3, a0, -0x1
   142c8: 13 84 15 00  	addi	s0, a1, 0x1
   142cc: 85 45        	c.li	a1, 0x1
   142ce: 85 44        	c.li	s1, 0x1
   142d0: 4a 85        	c.mv	a0, s2
   142d2: 82 96        	c.jalr	a3
   142d4: 03 35 89 23  	ld	a0, 0x238(s2)
   142d8: 83 25 49 0a  	lw	a1, 0xa4(s2)
   142dc: 23 24 05 0a  	sw	zero, 0xa8(a0)
   142e0: 85 05        	c.addi	a1, 0x1
   142e2: 23 22 b9 0a  	sw	a1, 0xa4(s2)
   142e6: 23 30 8b 00  	sd	s0, 0x0(s6)
   142ea: 23 34 3b 01  	sd	s3, 0x8(s6)
   142ee: 23 26 09 20  	sw	zero, 0x20c(s2)
   142f2: 11 a0        	c.j	0x142f6 <read_markers+0xa8a>
   142f4: 81 44        	c.li	s1, 0x0
   142f6: 26 85        	c.mv	a0, s1
   142f8: 71 61        	c.addi16sp	sp, 0x150
   142fa: 6f b0 a1 76  	jal	zero, 0x2fa64 <__riscv_restore_12>

00000000000142fe <read_restart_marker>:
   142fe: ef b2 e1 75  	jal	t0, 0x2fa5c <__riscv_save_1>
   14302: 2a 84        	c.mv	s0, a0
   14304: 03 25 c5 20  	lw	a0, 0x20c(a0)
   14308: 19 e5        	c.bnez	a0, 0x14316 <read_restart_marker+0x18>
   1430a: 22 85        	c.mv	a0, s0
   1430c: ef f0 0f bc  	jal	ra, 0x136cc <next_marker>
   14310: 31 c5        	c.beqz	a0, 0x1435c <read_restart_marker+0x5e>
   14312: 03 25 c4 20  	lw	a0, 0x20c(s0)
   14316: 83 35 84 23  	ld	a1, 0x238(s0)
   1431a: 83 a5 85 0a  	lw	a1, 0xa8(a1)
   1431e: 1b 86 05 0d  	addiw	a2, a1, 0xd0
   14322: 63 1f c5 00  	bne	a0, a2, 0x14340 <read_restart_marker+0x42>
   14326: 08 60        	c.ld	a0, 0x0(s0)
   14328: 4c d5        	c.sw	a1, 0x2c(a0)
   1432a: 0c 60        	c.ld	a1, 0x0(s0)
   1432c: 90 65        	c.ld	a2, 0x8(a1)
   1432e: 93 05 10 06  	addi	a1, zero, 0x61
   14332: 0c d5        	c.sw	a1, 0x28(a0)
   14334: 8d 45        	c.li	a1, 0x3
   14336: 22 85        	c.mv	a0, s0
   14338: 02 96        	c.jalr	a2
   1433a: 23 26 04 20  	sw	zero, 0x20c(s0)
   1433e: 31 a0        	c.j	0x1434a <read_restart_marker+0x4c>
   14340: 08 70        	c.ld	a0, 0x20(s0)
   14342: 10 75        	c.ld	a2, 0x28(a0)
   14344: 22 85        	c.mv	a0, s0
   14346: 02 96        	c.jalr	a2
   14348: 11 c9        	c.beqz	a0, 0x1435c <read_restart_marker+0x5e>
   1434a: 03 35 84 23  	ld	a0, 0x238(s0)
   1434e: 83 25 85 0a  	lw	a1, 0xa8(a0)
   14352: 85 05        	c.addi	a1, 0x1
   14354: 9d 89        	c.andi	a1, 0x7
   14356: 23 24 b5 0a  	sw	a1, 0xa8(a0)
   1435a: 05 45        	c.li	a0, 0x1
   1435c: 6f b0 a1 72  	jal	zero, 0x2fa86 <__riscv_restore_1>

0000000000014360 <skip_variable>:
   14360: ef b2 61 6d  	jal	t0, 0x2fa36 <__riscv_save_7>
   14364: 2a 84        	c.mv	s0, a0
   14366: 04 71        	c.ld	s1, 0x20(a0)
   14368: 88 64        	c.ld	a0, 0x8(s1)
   1436a: 11 e5        	c.bnez	a0, 0x14376 <skip_variable+0x16>
   1436c: 8c 6c        	c.ld	a1, 0x18(s1)
   1436e: 22 85        	c.mv	a0, s0
   14370: 82 95        	c.jalr	a1
   14372: 3d c1        	c.beqz	a0, 0x143d8 <skip_variable+0x78>
   14374: 88 64        	c.ld	a0, 0x8(s1)
   14376: 8c 60        	c.ld	a1, 0x0(s1)
   14378: 03 c9 05 00  	lbu	s2, 0x0(a1)
   1437c: 7d 15        	c.addi	a0, -0x1
   1437e: 19 c1        	c.beqz	a0, 0x14384 <skip_variable+0x24>
   14380: 85 05        	c.addi	a1, 0x1
   14382: 39 a0        	c.j	0x14390 <skip_variable+0x30>
   14384: 8c 6c        	c.ld	a1, 0x18(s1)
   14386: 22 85        	c.mv	a0, s0
   14388: 82 95        	c.jalr	a1
   1438a: 39 c5        	c.beqz	a0, 0x143d8 <skip_variable+0x78>
   1438c: 8c 60        	c.ld	a1, 0x0(s1)
   1438e: 88 64        	c.ld	a0, 0x8(s1)
   14390: 10 60        	c.ld	a2, 0x0(s0)
   14392: 83 26 c4 20  	lw	a3, 0x20c(s0)
   14396: 03 c7 05 00  	lbu	a4, 0x0(a1)
   1439a: 93 07 a0 05  	addi	a5, zero, 0x5a
   1439e: 54 d6        	c.sw	a3, 0x2c(a2)
   143a0: 14 60        	c.ld	a3, 0x0(s0)
   143a2: 1c d6        	c.sw	a5, 0x28(a2)
   143a4: 22 09        	c.slli	s2, 0x8
   143a6: b3 69 e9 00  	or	s3, s2, a4
   143aa: 23 a8 36 03  	sw	s3, 0x30(a3)
   143ae: 10 60        	c.ld	a2, 0x0(s0)
   143b0: 10 66        	c.ld	a2, 0x8(a2)
   143b2: 13 0a f5 ff  	addi	s4, a0, -0x1
   143b6: 93 8a 15 00  	addi	s5, a1, 0x1
   143ba: 85 45        	c.li	a1, 0x1
   143bc: 05 49        	c.li	s2, 0x1
   143be: 22 85        	c.mv	a0, s0
   143c0: 02 96        	c.jalr	a2
   143c2: 08 70        	c.ld	a0, 0x20(s0)
   143c4: 10 71        	c.ld	a2, 0x20(a0)
   143c6: 23 b0 54 01  	sd	s5, 0x0(s1)
   143ca: 23 b4 44 01  	sd	s4, 0x8(s1)
   143ce: 93 85 e9 ff  	addi	a1, s3, -0x2
   143d2: 22 85        	c.mv	a0, s0
   143d4: 02 96        	c.jalr	a2
   143d6: 11 a0        	c.j	0x143da <skip_variable+0x7a>
   143d8: 01 49        	c.li	s2, 0x0
   143da: 4a 85        	c.mv	a0, s2
   143dc: 6f b0 81 69  	jal	zero, 0x2fa74 <__riscv_restore_7>

00000000000143e0 <get_app0>:
   143e0: ef b2 c1 64  	jal	t0, 0x2fa2c <__riscv_save_9>
   143e4: 41 11        	c.addi	sp, -0x10
   143e6: aa 8a        	c.mv	s5, a0
   143e8: 03 3b 05 02  	ld	s6, 0x20(a0)
   143ec: 03 3c 8b 00  	ld	s8, 0x8(s6)
   143f0: 63 19 0c 00  	bne	s8, zero, 0x14402 <get_app0+0x22>
   143f4: 83 35 8b 01  	ld	a1, 0x18(s6)
   143f8: 56 85        	c.mv	a0, s5
   143fa: 82 95        	c.jalr	a1
   143fc: 71 cd        	c.beqz	a0, 0x144d8 <get_app0+0xf8>
   143fe: 03 3c 8b 00  	ld	s8, 0x8(s6)
   14402: 83 3b 0b 00  	ld	s7, 0x0(s6)
   14406: 03 c4 0b 00  	lbu	s0, 0x0(s7)
   1440a: 7d 1c        	c.addi	s8, -0x1
   1440c: 63 04 0c 00  	beq	s8, zero, 0x14414 <get_app0+0x34>
   14410: 85 0b        	c.addi	s7, 0x1
   14412: 11 a8        	c.j	0x14426 <get_app0+0x46>
   14414: 83 35 8b 01  	ld	a1, 0x18(s6)
   14418: 56 85        	c.mv	a0, s5
   1441a: 82 95        	c.jalr	a1
   1441c: 55 cd        	c.beqz	a0, 0x144d8 <get_app0+0xf8>
   1441e: 83 3b 0b 00  	ld	s7, 0x0(s6)
   14422: 03 3c 8b 00  	ld	s8, 0x8(s6)
   14426: 03 c5 0b 00  	lbu	a0, 0x0(s7)
   1442a: 22 04        	c.slli	s0, 0x8
   1442c: 7d 1c        	c.addi	s8, -0x1
   1442e: 33 69 a4 00  	or	s2, s0, a0
   14432: 41 45        	c.li	a0, 0x10
   14434: 85 0b        	c.addi	s7, 0x1
   14436: 63 68 a9 08  	bltu	s2, a0, 0x144c6 <get_app0+0xe6>
   1443a: 93 04 21 00  	addi	s1, sp, 0x2
   1443e: 39 44        	c.li	s0, 0xe
   14440: 63 1b 0c 00  	bne	s8, zero, 0x14456 <get_app0+0x76>
   14444: 83 35 8b 01  	ld	a1, 0x18(s6)
   14448: 56 85        	c.mv	a0, s5
   1444a: 82 95        	c.jalr	a1
   1444c: 51 c5        	c.beqz	a0, 0x144d8 <get_app0+0xf8>
   1444e: 83 3b 0b 00  	ld	s7, 0x0(s6)
   14452: 03 3c 8b 00  	ld	s8, 0x8(s6)
   14456: 03 c5 0b 00  	lbu	a0, 0x0(s7)
   1445a: 7d 1c        	c.addi	s8, -0x1
   1445c: 85 0b        	c.addi	s7, 0x1
   1445e: 23 80 a4 00  	sb	a0, 0x0(s1)
   14462: 7d 14        	c.addi	s0, -0x1
   14464: 85 04        	c.addi	s1, 0x1
   14466: 69 fc        	c.bnez	s0, 0x14440 <get_app0+0x60>
   14468: 03 45 21 00  	lbu	a0, 0x2(sp)
   1446c: 93 05 a0 04  	addi	a1, zero, 0x4a
   14470: 41 19        	c.addi	s2, -0x10
   14472: 63 15 b5 06  	bne	a0, a1, 0x144dc <get_app0+0xfc>
   14476: 03 45 31 00  	lbu	a0, 0x3(sp)
   1447a: 93 05 60 04  	addi	a1, zero, 0x46
   1447e: 63 1f b5 04  	bne	a0, a1, 0x144dc <get_app0+0xfc>
   14482: 03 45 41 00  	lbu	a0, 0x4(sp)
   14486: 93 05 90 04  	addi	a1, zero, 0x49
   1448a: 63 19 b5 04  	bne	a0, a1, 0x144dc <get_app0+0xfc>
   1448e: 03 45 51 00  	lbu	a0, 0x5(sp)
   14492: 93 05 60 04  	addi	a1, zero, 0x46
   14496: 63 13 b5 04  	bne	a0, a1, 0x144dc <get_app0+0xfc>
   1449a: 03 45 61 00  	lbu	a0, 0x6(sp)
   1449e: 1d ed        	c.bnez	a0, 0x144dc <get_app0+0xfc>
   144a0: 83 45 71 00  	lbu	a1, 0x7(sp)
   144a4: 05 45        	c.li	a0, 0x1
   144a6: 63 93 a5 04  	bne	a1, a0, 0x144ec <get_app0+0x10c>
   144aa: 03 45 81 00  	lbu	a0, 0x8(sp)
   144ae: 8d 45        	c.li	a1, 0x3
   144b0: 63 6f b5 04  	bltu	a0, a1, 0x1450e <get_app0+0x12e>
   144b4: 03 b6 0a 00  	ld	a2, 0x0(s5)
   144b8: 85 45        	c.li	a1, 0x1
   144ba: 93 96 05 02  	slli	a3, a1, 0x20
   144be: 93 86 86 05  	addi	a3, a3, 0x58
   144c2: 14 f6        	c.sd	a3, 0x28(a2)
   144c4: 2d a8        	c.j	0x144fe <get_app0+0x11e>
   144c6: 03 b5 0a 00  	ld	a0, 0x0(s5)
   144ca: 93 05 e9 ff  	addi	a1, s2, -0x2
   144ce: 13 06 c0 04  	addi	a2, zero, 0x4c
   144d2: 10 d5        	c.sw	a2, 0x28(a0)
   144d4: 2e 89        	c.mv	s2, a1
   144d6: d1 a8        	c.j	0x145aa <get_app0+0x1ca>
   144d8: 81 44        	c.li	s1, 0x0
   144da: e5 a8        	c.j	0x145d2 <get_app0+0x1f2>
   144dc: 03 b5 0a 00  	ld	a0, 0x0(s5)
   144e0: 93 05 c0 04  	addi	a1, zero, 0x4c
   144e4: 0c d5        	c.sw	a1, 0x28(a0)
   144e6: 93 05 e9 00  	addi	a1, s2, 0xe
   144ea: c1 a0        	c.j	0x145aa <get_app0+0x1ca>
   144ec: 03 b6 0a 00  	ld	a2, 0x0(s5)
   144f0: 93 06 30 07  	addi	a3, zero, 0x73
   144f4: 03 45 81 00  	lbu	a0, 0x8(sp)
   144f8: 14 d6        	c.sw	a3, 0x28(a2)
   144fa: 4c d6        	c.sw	a1, 0x2c(a2)
   144fc: fd 55        	c.li	a1, -0x1
   144fe: 03 b6 0a 00  	ld	a2, 0x0(s5)
   14502: 08 da        	c.sw	a0, 0x30(a2)
   14504: 03 b5 0a 00  	ld	a0, 0x0(s5)
   14508: 10 65        	c.ld	a2, 0x8(a0)
   1450a: 56 85        	c.mv	a0, s5
   1450c: 02 96        	c.jalr	a2
   1450e: 03 45 91 00  	lbu	a0, 0x9(sp)
   14512: 85 45        	c.li	a1, 0x1
   14514: 03 46 a1 00  	lbu	a2, 0xa(sp)
   14518: 23 a6 ba 16  	sw	a1, 0x16c(s5)
   1451c: 23 88 aa 16  	sb	a0, 0x170(s5)
   14520: 83 45 b1 00  	lbu	a1, 0xb(sp)
   14524: 22 06        	c.slli	a2, 0x8
   14526: 83 46 c1 00  	lbu	a3, 0xc(sp)
   1452a: 03 47 d1 00  	lbu	a4, 0xd(sp)
   1452e: d1 8d        	c.or	a1, a2
   14530: 23 99 ba 16  	sh	a1, 0x172(s5)
   14534: a2 06        	c.slli	a3, 0x8
   14536: d9 8e        	c.or	a3, a4
   14538: 23 9a da 16  	sh	a3, 0x174(s5)
   1453c: 03 b6 0a 00  	ld	a2, 0x0(s5)
   14540: 41 67        	c.lui	a4, 0x10
   14542: 7d 17        	c.addi	a4, -0x1
   14544: f9 8d        	c.and	a1, a4
   14546: 4c d6        	c.sw	a1, 0x2c(a2)
   14548: f9 8e        	c.and	a3, a4
   1454a: 14 da        	c.sw	a3, 0x30(a2)
   1454c: 14 66        	c.ld	a3, 0x8(a2)
   1454e: 48 da        	c.sw	a0, 0x34(a2)
   14550: 13 05 60 05  	addi	a0, zero, 0x56
   14554: 08 d6        	c.sw	a0, 0x28(a2)
   14556: 85 45        	c.li	a1, 0x1
   14558: 56 85        	c.mv	a0, s5
   1455a: 82 96        	c.jalr	a3
   1455c: 83 49 e1 00  	lbu	s3, 0xe(sp)
   14560: 03 4a f1 00  	lbu	s4, 0xf(sp)
   14564: 33 65 3a 01  	or	a0, s4, s3
   14568: 15 c1        	c.beqz	a0, 0x1458c <get_app0+0x1ac>
   1456a: 03 b5 0a 00  	ld	a0, 0x0(s5)
   1456e: 23 26 35 03  	sw	s3, 0x2c(a0)
   14572: 83 b5 0a 00  	ld	a1, 0x0(s5)
   14576: 13 06 90 05  	addi	a2, zero, 0x59
   1457a: 10 d5        	c.sw	a2, 0x28(a0)
   1457c: 23 a8 45 03  	sw	s4, 0x30(a1)
   14580: 03 b5 0a 00  	ld	a0, 0x0(s5)
   14584: 10 65        	c.ld	a2, 0x8(a0)
   14586: 85 45        	c.li	a1, 0x1
   14588: 56 85        	c.mv	a0, s5
   1458a: 02 96        	c.jalr	a2
   1458c: 4e 85        	c.mv	a0, s3
   1458e: d2 85        	c.mv	a1, s4
   14590: ef b0 01 50  	jal	ra, 0x2fa90 <__muldi3>
   14594: 93 15 15 00  	slli	a1, a0, 0x1
   14598: 2e 95        	c.add	a0, a1
   1459a: 63 0f a9 00  	beq	s2, a0, 0x145b8 <get_app0+0x1d8>
   1459e: 03 b5 0a 00  	ld	a0, 0x0(s5)
   145a2: 93 05 70 05  	addi	a1, zero, 0x57
   145a6: 0c d5        	c.sw	a1, 0x28(a0)
   145a8: ca 85        	c.mv	a1, s2
   145aa: 4c d5        	c.sw	a1, 0x2c(a0)
   145ac: 03 b5 0a 00  	ld	a0, 0x0(s5)
   145b0: 10 65        	c.ld	a2, 0x8(a0)
   145b2: 85 45        	c.li	a1, 0x1
   145b4: 56 85        	c.mv	a0, s5
   145b6: 02 96        	c.jalr	a2
   145b8: 23 30 7b 01  	sd	s7, 0x0(s6)
   145bc: 23 34 8b 01  	sd	s8, 0x8(s6)
   145c0: 85 44        	c.li	s1, 0x1
   145c2: 63 58 20 01  	bge	zero, s2, 0x145d2 <get_app0+0x1f2>
   145c6: 03 b5 0a 02  	ld	a0, 0x20(s5)
   145ca: 10 71        	c.ld	a2, 0x20(a0)
   145cc: 56 85        	c.mv	a0, s5
   145ce: ca 85        	c.mv	a1, s2
   145d0: 02 96        	c.jalr	a2
   145d2: 26 85        	c.mv	a0, s1
   145d4: 41 01        	c.addi	sp, 0x10
   145d6: 6f b0 81 49  	jal	zero, 0x2fa6e <__riscv_restore_9>

00000000000145da <get_app14>:
   145da: ef b2 c1 45  	jal	t0, 0x2fa36 <__riscv_save_7>
   145de: 41 11        	c.addi	sp, -0x10
   145e0: aa 89        	c.mv	s3, a0
   145e2: 03 3a 05 02  	ld	s4, 0x20(a0)
   145e6: 03 3b 8a 00  	ld	s6, 0x8(s4)
   145ea: 63 1a 0b 00  	bne	s6, zero, 0x145fe <get_app14+0x24>
   145ee: 83 35 8a 01  	ld	a1, 0x18(s4)
   145f2: 4e 85        	c.mv	a0, s3
   145f4: 82 95        	c.jalr	a1
   145f6: 63 02 05 10  	beq	a0, zero, 0x146fa <get_app14+0x120>
   145fa: 03 3b 8a 00  	ld	s6, 0x8(s4)
   145fe: 83 3a 0a 00  	ld	s5, 0x0(s4)
   14602: 03 c4 0a 00  	lbu	s0, 0x0(s5)
   14606: 7d 1b        	c.addi	s6, -0x1
   14608: 63 04 0b 00  	beq	s6, zero, 0x14610 <get_app14+0x36>
   1460c: 85 0a        	c.addi	s5, 0x1
   1460e: 11 a8        	c.j	0x14622 <get_app14+0x48>
   14610: 83 35 8a 01  	ld	a1, 0x18(s4)
   14614: 4e 85        	c.mv	a0, s3
   14616: 82 95        	c.jalr	a1
   14618: 6d c1        	c.beqz	a0, 0x146fa <get_app14+0x120>
   1461a: 83 3a 0a 00  	ld	s5, 0x0(s4)
   1461e: 03 3b 8a 00  	ld	s6, 0x8(s4)
   14622: 03 c5 0a 00  	lbu	a0, 0x0(s5)
   14626: 22 04        	c.slli	s0, 0x8
   14628: 7d 1b        	c.addi	s6, -0x1
   1462a: 33 69 a4 00  	or	s2, s0, a0
   1462e: 39 45        	c.li	a0, 0xe
   14630: 85 0a        	c.addi	s5, 0x1
   14632: 63 6e a9 0a  	bltu	s2, a0, 0x146ee <get_app14+0x114>
   14636: 44 00        	c.addi4spn	s1, sp, 0x4
   14638: 31 44        	c.li	s0, 0xc
   1463a: 63 1b 0b 00  	bne	s6, zero, 0x14650 <get_app14+0x76>
   1463e: 83 35 8a 01  	ld	a1, 0x18(s4)
   14642: 4e 85        	c.mv	a0, s3
   14644: 82 95        	c.jalr	a1
   14646: 55 c9        	c.beqz	a0, 0x146fa <get_app14+0x120>
   14648: 83 3a 0a 00  	ld	s5, 0x0(s4)
   1464c: 03 3b 8a 00  	ld	s6, 0x8(s4)
   14650: 03 c5 0a 00  	lbu	a0, 0x0(s5)
   14654: 7d 1b        	c.addi	s6, -0x1
   14656: 85 0a        	c.addi	s5, 0x1
   14658: 23 80 a4 00  	sb	a0, 0x0(s1)
   1465c: 7d 14        	c.addi	s0, -0x1
   1465e: 85 04        	c.addi	s1, 0x1
   14660: 69 fc        	c.bnez	s0, 0x1463a <get_app14+0x60>
   14662: 03 45 41 00  	lbu	a0, 0x4(sp)
   14666: 93 05 10 04  	addi	a1, zero, 0x41
   1466a: 49 19        	c.addi	s2, -0xe
   1466c: 63 19 b5 08  	bne	a0, a1, 0x146fe <get_app14+0x124>
   14670: 03 45 51 00  	lbu	a0, 0x5(sp)
   14674: 93 05 40 06  	addi	a1, zero, 0x64
   14678: 63 13 b5 08  	bne	a0, a1, 0x146fe <get_app14+0x124>
   1467c: 03 45 61 00  	lbu	a0, 0x6(sp)
   14680: 93 05 f0 06  	addi	a1, zero, 0x6f
   14684: 63 1d b5 06  	bne	a0, a1, 0x146fe <get_app14+0x124>
   14688: 03 45 71 00  	lbu	a0, 0x7(sp)
   1468c: 93 05 20 06  	addi	a1, zero, 0x62
   14690: 63 17 b5 06  	bne	a0, a1, 0x146fe <get_app14+0x124>
   14694: 03 45 81 00  	lbu	a0, 0x8(sp)
   14698: 93 05 50 06  	addi	a1, zero, 0x65
   1469c: 63 11 b5 06  	bne	a0, a1, 0x146fe <get_app14+0x124>
   146a0: 03 45 91 00  	lbu	a0, 0x9(sp)
   146a4: 83 45 a1 00  	lbu	a1, 0xa(sp)
   146a8: 03 46 b1 00  	lbu	a2, 0xb(sp)
   146ac: 22 05        	c.slli	a0, 0x8
   146ae: 4d 8d        	c.or	a0, a1
   146b0: 83 45 c1 00  	lbu	a1, 0xc(sp)
   146b4: 22 06        	c.slli	a2, 0x8
   146b6: 83 46 d1 00  	lbu	a3, 0xd(sp)
   146ba: 03 47 e1 00  	lbu	a4, 0xe(sp)
   146be: d1 8d        	c.or	a1, a2
   146c0: 03 b6 09 00  	ld	a2, 0x0(s3)
   146c4: a2 06        	c.slli	a3, 0x8
   146c6: d9 8e        	c.or	a3, a4
   146c8: 03 44 f1 00  	lbu	s0, 0xf(sp)
   146cc: 48 d6        	c.sw	a0, 0x2c(a2)
   146ce: 0c da        	c.sw	a1, 0x30(a2)
   146d0: 54 da        	c.sw	a3, 0x34(a2)
   146d2: 14 66        	c.ld	a3, 0x8(a2)
   146d4: 00 de        	c.sw	s0, 0x38(a2)
   146d6: 13 05 b0 04  	addi	a0, zero, 0x4b
   146da: 08 d6        	c.sw	a0, 0x28(a2)
   146dc: 85 45        	c.li	a1, 0x1
   146de: 85 44        	c.li	s1, 0x1
   146e0: 4e 85        	c.mv	a0, s3
   146e2: 82 96        	c.jalr	a3
   146e4: 23 ac 99 16  	sw	s1, 0x178(s3)
   146e8: 23 8e 89 16  	sb	s0, 0x17c(s3)
   146ec: 3d a0        	c.j	0x1471a <get_app14+0x140>
   146ee: 03 b5 09 00  	ld	a0, 0x0(s3)
   146f2: 79 19        	c.addi	s2, -0x2
   146f4: 23 26 25 03  	sw	s2, 0x2c(a0)
   146f8: 01 a8        	c.j	0x14708 <get_app14+0x12e>
   146fa: 81 44        	c.li	s1, 0x0
   146fc: 25 a8        	c.j	0x14734 <get_app14+0x15a>
   146fe: 03 b5 09 00  	ld	a0, 0x0(s3)
   14702: 93 05 c9 00  	addi	a1, s2, 0xc
   14706: 4c d5        	c.sw	a1, 0x2c(a0)
   14708: 83 b5 09 00  	ld	a1, 0x0(s3)
   1470c: 90 65        	c.ld	a2, 0x8(a1)
   1470e: 93 05 d0 04  	addi	a1, zero, 0x4d
   14712: 0c d5        	c.sw	a1, 0x28(a0)
   14714: 85 45        	c.li	a1, 0x1
   14716: 4e 85        	c.mv	a0, s3
   14718: 02 96        	c.jalr	a2
   1471a: 23 30 5a 01  	sd	s5, 0x0(s4)
   1471e: 23 34 6a 01  	sd	s6, 0x8(s4)
   14722: 85 44        	c.li	s1, 0x1
   14724: 63 58 20 01  	bge	zero, s2, 0x14734 <get_app14+0x15a>
   14728: 03 b5 09 02  	ld	a0, 0x20(s3)
   1472c: 10 71        	c.ld	a2, 0x20(a0)
   1472e: 4e 85        	c.mv	a0, s3
   14730: ca 85        	c.mv	a1, s2
   14732: 02 96        	c.jalr	a2
   14734: 26 85        	c.mv	a0, s1
   14736: 41 01        	c.addi	sp, 0x10
   14738: 6f b0 c1 33  	jal	zero, 0x2fa74 <__riscv_restore_7>

000000000001473c <get_sof>:
   1473c: ef b2 01 2f  	jal	t0, 0x2fa2c <__riscv_save_9>
   14740: aa 8b        	c.mv	s7, a0
   14742: 03 3b 05 02  	ld	s6, 0x20(a0)
   14746: 83 36 8b 00  	ld	a3, 0x8(s6)
   1474a: 03 35 0b 00  	ld	a0, 0x0(s6)
   1474e: 23 a8 bb 12  	sw	a1, 0x130(s7)
   14752: 23 aa cb 12  	sw	a2, 0x134(s7)
   14756: 99 ea        	c.bnez	a3, 0x1476c <get_sof+0x30>
   14758: 83 35 8b 01  	ld	a1, 0x18(s6)
   1475c: 5e 85        	c.mv	a0, s7
   1475e: 82 95        	c.jalr	a1
   14760: 63 02 05 2a  	beq	a0, zero, 0x14a04 <get_sof+0x2c8>
   14764: 03 35 0b 00  	ld	a0, 0x0(s6)
   14768: 83 36 8b 00  	ld	a3, 0x8(s6)
   1476c: 03 49 05 00  	lbu	s2, 0x0(a0)
   14770: fd 16        	c.addi	a3, -0x1
   14772: 99 c2        	c.beqz	a3, 0x14778 <get_sof+0x3c>
   14774: 05 05        	c.addi	a0, 0x1
   14776: 19 a8        	c.j	0x1478c <get_sof+0x50>
   14778: 83 35 8b 01  	ld	a1, 0x18(s6)
   1477c: 5e 85        	c.mv	a0, s7
   1477e: 82 95        	c.jalr	a1
   14780: 63 02 05 28  	beq	a0, zero, 0x14a04 <get_sof+0x2c8>
   14784: 03 35 0b 00  	ld	a0, 0x0(s6)
   14788: 83 36 8b 00  	ld	a3, 0x8(s6)
   1478c: 83 49 05 00  	lbu	s3, 0x0(a0)
   14790: 93 85 f6 ff  	addi	a1, a3, -0x1
   14794: 99 c1        	c.beqz	a1, 0x1479a <get_sof+0x5e>
   14796: 05 05        	c.addi	a0, 0x1
   14798: 19 a8        	c.j	0x147ae <get_sof+0x72>
   1479a: 83 35 8b 01  	ld	a1, 0x18(s6)
   1479e: 5e 85        	c.mv	a0, s7
   147a0: 82 95        	c.jalr	a1
   147a2: 63 01 05 26  	beq	a0, zero, 0x14a04 <get_sof+0x2c8>
   147a6: 03 35 0b 00  	ld	a0, 0x0(s6)
   147aa: 83 35 8b 00  	ld	a1, 0x8(s6)
   147ae: 03 46 05 00  	lbu	a2, 0x0(a0)
   147b2: fd 15        	c.addi	a1, -0x1
   147b4: 23 a0 cb 12  	sw	a2, 0x120(s7)
   147b8: 99 c1        	c.beqz	a1, 0x147be <get_sof+0x82>
   147ba: 05 05        	c.addi	a0, 0x1
   147bc: 19 a8        	c.j	0x147d2 <get_sof+0x96>
   147be: 83 35 8b 01  	ld	a1, 0x18(s6)
   147c2: 5e 85        	c.mv	a0, s7
   147c4: 82 95        	c.jalr	a1
   147c6: 63 0f 05 22  	beq	a0, zero, 0x14a04 <get_sof+0x2c8>
   147ca: 03 35 0b 00  	ld	a0, 0x0(s6)
   147ce: 83 35 8b 00  	ld	a1, 0x8(s6)
   147d2: 03 46 05 00  	lbu	a2, 0x0(a0)
   147d6: fd 15        	c.addi	a1, -0x1
   147d8: 22 06        	c.slli	a2, 0x8
   147da: 23 a6 cb 02  	sw	a2, 0x2c(s7)
   147de: 99 c1        	c.beqz	a1, 0x147e4 <get_sof+0xa8>
   147e0: 05 05        	c.addi	a0, 0x1
   147e2: 29 a8        	c.j	0x147fc <get_sof+0xc0>
   147e4: 83 35 8b 01  	ld	a1, 0x18(s6)
   147e8: 5e 85        	c.mv	a0, s7
   147ea: 82 95        	c.jalr	a1
   147ec: 63 0c 05 20  	beq	a0, zero, 0x14a04 <get_sof+0x2c8>
   147f0: 03 35 0b 00  	ld	a0, 0x0(s6)
   147f4: 83 35 8b 00  	ld	a1, 0x8(s6)
   147f8: 03 a6 cb 02  	lw	a2, 0x2c(s7)
   147fc: 83 46 05 00  	lbu	a3, 0x0(a0)
   14800: fd 15        	c.addi	a1, -0x1
   14802: 36 96        	c.add	a2, a3
   14804: 23 a6 cb 02  	sw	a2, 0x2c(s7)
   14808: 81 c5        	c.beqz	a1, 0x14810 <get_sof+0xd4>
   1480a: 93 0a 15 00  	addi	s5, a0, 0x1
   1480e: 19 a8        	c.j	0x14824 <get_sof+0xe8>
   14810: 83 35 8b 01  	ld	a1, 0x18(s6)
   14814: 5e 85        	c.mv	a0, s7
   14816: 82 95        	c.jalr	a1
   14818: 63 06 05 1e  	beq	a0, zero, 0x14a04 <get_sof+0x2c8>
   1481c: 83 3a 0b 00  	ld	s5, 0x0(s6)
   14820: 83 35 8b 00  	ld	a1, 0x8(s6)
   14824: 03 c5 0a 00  	lbu	a0, 0x0(s5)
   14828: 13 8a f5 ff  	addi	s4, a1, -0x1
   1482c: 22 05        	c.slli	a0, 0x8
   1482e: 23 a4 ab 02  	sw	a0, 0x28(s7)
   14832: 63 04 0a 00  	beq	s4, zero, 0x1483a <get_sof+0xfe>
   14836: 85 0a        	c.addi	s5, 0x1
   14838: 29 a8        	c.j	0x14852 <get_sof+0x116>
   1483a: 83 35 8b 01  	ld	a1, 0x18(s6)
   1483e: 5e 85        	c.mv	a0, s7
   14840: 82 95        	c.jalr	a1
   14842: 63 01 05 1c  	beq	a0, zero, 0x14a04 <get_sof+0x2c8>
   14846: 83 3a 0b 00  	ld	s5, 0x0(s6)
   1484a: 03 3a 8b 00  	ld	s4, 0x8(s6)
   1484e: 03 a5 8b 02  	lw	a0, 0x28(s7)
   14852: 83 c5 0a 00  	lbu	a1, 0x0(s5)
   14856: 7d 1a        	c.addi	s4, -0x1
   14858: 2e 95        	c.add	a0, a1
   1485a: 23 a4 ab 02  	sw	a0, 0x28(s7)
   1485e: 63 04 0a 00  	beq	s4, zero, 0x14866 <get_sof+0x12a>
   14862: 85 0a        	c.addi	s5, 0x1
   14864: 19 a8        	c.j	0x1487a <get_sof+0x13e>
   14866: 83 35 8b 01  	ld	a1, 0x18(s6)
   1486a: 5e 85        	c.mv	a0, s7
   1486c: 82 95        	c.jalr	a1
   1486e: 63 0b 05 18  	beq	a0, zero, 0x14a04 <get_sof+0x2c8>
   14872: 83 3a 0b 00  	ld	s5, 0x0(s6)
   14876: 03 3a 8b 00  	ld	s4, 0x8(s6)
   1487a: 03 c5 0a 00  	lbu	a0, 0x0(s5)
   1487e: 83 b5 0b 00  	ld	a1, 0x0(s7)
   14882: 03 a6 cb 20  	lw	a2, 0x20c(s7)
   14886: 23 a8 ab 02  	sw	a0, 0x30(s7)
   1488a: d0 d5        	c.sw	a2, 0x2c(a1)
   1488c: 03 a5 8b 02  	lw	a0, 0x28(s7)
   14890: 88 d9        	c.sw	a0, 0x30(a1)
   14892: 03 a5 cb 02  	lw	a0, 0x2c(s7)
   14896: c8 d9        	c.sw	a0, 0x34(a1)
   14898: 03 a5 0b 03  	lw	a0, 0x30(s7)
   1489c: 88 dd        	c.sw	a0, 0x38(a1)
   1489e: 13 05 30 06  	addi	a0, zero, 0x63
   148a2: 90 65        	c.ld	a2, 0x8(a1)
   148a4: 88 d5        	c.sw	a0, 0x28(a1)
   148a6: 22 09        	c.slli	s2, 0x8
   148a8: 33 64 39 01  	or	s0, s2, s3
   148ac: 85 45        	c.li	a1, 0x1
   148ae: 5e 85        	c.mv	a0, s7
   148b0: 02 96        	c.jalr	a2
   148b2: 03 b5 8b 23  	ld	a0, 0x238(s7)
   148b6: 03 25 45 0a  	lw	a0, 0xa4(a0)
   148ba: 09 c9        	c.beqz	a0, 0x148cc <get_sof+0x190>
   148bc: 03 b5 0b 00  	ld	a0, 0x0(s7)
   148c0: 0c 61        	c.ld	a1, 0x0(a0)
   148c2: 13 06 90 03  	addi	a2, zero, 0x39
   148c6: 10 d5        	c.sw	a2, 0x28(a0)
   148c8: 5e 85        	c.mv	a0, s7
   148ca: 82 95        	c.jalr	a1
   148cc: 03 a5 cb 02  	lw	a0, 0x2c(s7)
   148d0: 61 14        	c.addi	s0, -0x8
   148d2: 01 c9        	c.beqz	a0, 0x148e2 <get_sof+0x1a6>
   148d4: 03 a5 8b 02  	lw	a0, 0x28(s7)
   148d8: 09 c5        	c.beqz	a0, 0x148e2 <get_sof+0x1a6>
   148da: 03 a6 0b 03  	lw	a2, 0x30(s7)
   148de: 63 4b c0 00  	blt	zero, a2, 0x148f4 <get_sof+0x1b8>
   148e2: 03 b5 0b 00  	ld	a0, 0x0(s7)
   148e6: 0c 61        	c.ld	a1, 0x0(a0)
   148e8: 7d 46        	c.li	a2, 0x1f
   148ea: 10 d5        	c.sw	a2, 0x28(a0)
   148ec: 5e 85        	c.mv	a0, s7
   148ee: 82 95        	c.jalr	a1
   148f0: 03 a6 0b 03  	lw	a2, 0x30(s7)
   148f4: 13 15 16 00  	slli	a0, a2, 0x1
   148f8: 31 9d        	c.addw	a0, a2
   148fa: 63 0b a4 00  	beq	s0, a0, 0x14910 <get_sof+0x1d4>
   148fe: 03 b5 0b 00  	ld	a0, 0x0(s7)
   14902: 0c 61        	c.ld	a1, 0x0(a0)
   14904: 25 46        	c.li	a2, 0x9
   14906: 10 d5        	c.sw	a2, 0x28(a0)
   14908: 5e 85        	c.mv	a0, s7
   1490a: 82 95        	c.jalr	a1
   1490c: 03 a6 0b 03  	lw	a2, 0x30(s7)
   14910: 03 b5 8b 12  	ld	a0, 0x128(s7)
   14914: 0d e1        	c.bnez	a0, 0x14936 <get_sof+0x1fa>
   14916: 03 b5 8b 00  	ld	a0, 0x8(s7)
   1491a: 00 61        	c.ld	s0, 0x0(a0)
   1491c: 93 05 00 06  	addi	a1, zero, 0x60
   14920: 32 85        	c.mv	a0, a2
   14922: ef b0 e1 16  	jal	ra, 0x2fa90 <__muldi3>
   14926: 2a 86        	c.mv	a2, a0
   14928: 85 45        	c.li	a1, 0x1
   1492a: 5e 85        	c.mv	a0, s7
   1492c: 02 94        	c.jalr	s0
   1492e: 03 a6 0b 03  	lw	a2, 0x30(s7)
   14932: 23 b4 ab 12  	sd	a0, 0x128(s7)
   14936: 85 0a        	c.addi	s5, 0x1
   14938: 7d 1a        	c.addi	s4, -0x1
   1493a: 63 5c c0 0a  	bge	zero, a2, 0x149f2 <get_sof+0x2b6>
   1493e: 81 44        	c.li	s1, 0x0
   14940: 13 04 05 01  	addi	s0, a0, 0x10
   14944: 13 09 40 06  	addi	s2, zero, 0x64
   14948: 23 2a 94 fe  	sw	s1, -0xc(s0)
   1494c: 63 1b 0a 00  	bne	s4, zero, 0x14962 <get_sof+0x226>
   14950: 83 35 8b 01  	ld	a1, 0x18(s6)
   14954: 5e 85        	c.mv	a0, s7
   14956: 82 95        	c.jalr	a1
   14958: 55 c5        	c.beqz	a0, 0x14a04 <get_sof+0x2c8>
   1495a: 83 3a 0b 00  	ld	s5, 0x0(s6)
   1495e: 03 3a 8b 00  	ld	s4, 0x8(s6)
   14962: 03 c5 0a 00  	lbu	a0, 0x0(s5)
   14966: 7d 1a        	c.addi	s4, -0x1
   14968: 23 28 a4 fe  	sw	a0, -0x10(s0)
   1496c: 63 04 0a 00  	beq	s4, zero, 0x14974 <get_sof+0x238>
   14970: 85 0a        	c.addi	s5, 0x1
   14972: 11 a8        	c.j	0x14986 <get_sof+0x24a>
   14974: 83 35 8b 01  	ld	a1, 0x18(s6)
   14978: 5e 85        	c.mv	a0, s7
   1497a: 82 95        	c.jalr	a1
   1497c: 41 c5        	c.beqz	a0, 0x14a04 <get_sof+0x2c8>
   1497e: 83 3a 0b 00  	ld	s5, 0x0(s6)
   14982: 03 3a 8b 00  	ld	s4, 0x8(s6)
   14986: 03 c5 0a 00  	lbu	a0, 0x0(s5)
   1498a: 7d 1a        	c.addi	s4, -0x1
   1498c: 93 55 45 00  	srli	a1, a0, 0x4
   14990: 23 2c b4 fe  	sw	a1, -0x8(s0)
   14994: 3d 89        	c.andi	a0, 0xf
   14996: 23 2e a4 fe  	sw	a0, -0x4(s0)
   1499a: 63 04 0a 00  	beq	s4, zero, 0x149a2 <get_sof+0x266>
   1499e: 85 0a        	c.addi	s5, 0x1
   149a0: 11 a8        	c.j	0x149b4 <get_sof+0x278>
   149a2: 83 35 8b 01  	ld	a1, 0x18(s6)
   149a6: 5e 85        	c.mv	a0, s7
   149a8: 82 95        	c.jalr	a1
   149aa: 29 cd        	c.beqz	a0, 0x14a04 <get_sof+0x2c8>
   149ac: 83 3a 0b 00  	ld	s5, 0x0(s6)
   149b0: 03 3a 8b 00  	ld	s4, 0x8(s6)
   149b4: 03 c5 0a 00  	lbu	a0, 0x0(s5)
   149b8: 83 b5 0b 00  	ld	a1, 0x0(s7)
   149bc: 03 26 04 ff  	lw	a2, -0x10(s0)
   149c0: 08 c0        	c.sw	a0, 0x0(s0)
   149c2: d0 d5        	c.sw	a2, 0x2c(a1)
   149c4: 03 25 84 ff  	lw	a0, -0x8(s0)
   149c8: 88 d9        	c.sw	a0, 0x30(a1)
   149ca: 03 25 c4 ff  	lw	a0, -0x4(s0)
   149ce: c8 d9        	c.sw	a0, 0x34(a1)
   149d0: 08 40        	c.lw	a0, 0x0(s0)
   149d2: 90 65        	c.ld	a2, 0x8(a1)
   149d4: 88 dd        	c.sw	a0, 0x38(a1)
   149d6: 23 a4 25 03  	sw	s2, 0x28(a1)
   149da: 85 45        	c.li	a1, 0x1
   149dc: 5e 85        	c.mv	a0, s7
   149de: 02 96        	c.jalr	a2
   149e0: 03 a5 0b 03  	lw	a0, 0x30(s7)
   149e4: 85 24        	c.addiw	s1, 0x1
   149e6: 85 0a        	c.addi	s5, 0x1
   149e8: 7d 1a        	c.addi	s4, -0x1
   149ea: 13 04 04 06  	addi	s0, s0, 0x60
   149ee: e3 cd a4 f4  	blt	s1, a0, 0x14948 <get_sof+0x20c>
   149f2: 83 b5 8b 23  	ld	a1, 0x238(s7)
   149f6: 05 45        	c.li	a0, 0x1
   149f8: 23 a2 a5 0a  	sw	a0, 0xa4(a1)
   149fc: 23 30 5b 01  	sd	s5, 0x0(s6)
   14a00: 23 34 4b 01  	sd	s4, 0x8(s6)
   14a04: 6f b0 a1 06  	jal	zero, 0x2fa6e <__riscv_restore_9>

0000000000014a08 <jpeg_make_d_derived_tbl>:
   14a08: ef b2 e1 02  	jal	t0, 0x2fa36 <__riscv_save_7>
   14a0c: 13 01 01 af  	addi	sp, sp, -0x510
   14a10: 03 39 06 00  	ld	s2, 0x0(a2)
   14a14: ae 89        	c.mv	s3, a1
   14a16: 63 1b 09 00  	bne	s2, zero, 0x14a2c <jpeg_make_d_derived_tbl+0x24>
   14a1a: b2 84        	c.mv	s1, a2
   14a1c: 0c 65        	c.ld	a1, 0x8(a0)
   14a1e: 94 61        	c.ld	a3, 0x0(a1)
   14a20: 85 45        	c.li	a1, 0x1
   14a22: 13 06 80 66  	addi	a2, zero, 0x668
   14a26: 82 96        	c.jalr	a3
   14a28: 2a 89        	c.mv	s2, a0
   14a2a: 88 e0        	c.sd	a0, 0x0(s1)
   14a2c: 01 4a        	c.li	s4, 0x0
   14a2e: 23 30 39 17  	sd	s3, 0x160(s2)
   14a32: 85 44        	c.li	s1, 0x1
   14a34: c5 4a        	c.li	s5, 0x11
   14a36: 13 0b f1 40  	addi	s6, sp, 0x40f
   14a3a: 33 85 99 00  	add	a0, s3, s1
   14a3e: 03 44 05 00  	lbu	s0, 0x0(a0)
   14a42: 09 c8        	c.beqz	s0, 0x14a54 <jpeg_make_d_derived_tbl+0x4c>
   14a44: 33 05 4b 01  	add	a0, s6, s4
   14a48: a6 85        	c.mv	a1, s1
   14a4a: 22 86        	c.mv	a2, s0
   14a4c: ef 80 10 65  	jal	ra, 0x1d89c <memset>
   14a50: 3b 0a 8a 00  	addw	s4, s4, s0
   14a54: 85 04        	c.addi	s1, 0x1
   14a56: e3 92 54 ff  	bne	s1, s5, 0x14a3a <jpeg_make_d_derived_tbl+0x32>
   14a5a: 13 08 f1 40  	addi	a6, sp, 0x40f
   14a5e: 42 9a        	c.add	s4, a6
   14a60: 23 00 0a 00  	sb	zero, 0x0(s4)
   14a64: 03 44 f1 40  	lbu	s0, 0x40f(sp)
   14a68: 21 c8        	c.beqz	s0, 0x14ab8 <jpeg_make_d_derived_tbl+0xb0>
   14a6a: 81 45        	c.li	a1, 0x0
   14a6c: 81 46        	c.li	a3, 0x0
   14a6e: 93 08 01 41  	addi	a7, sp, 0x410
   14a72: 93 02 81 00  	addi	t0, sp, 0x8
   14a76: 85 47        	c.li	a5, 0x1
   14a78: 82 17        	c.slli	a5, 0x20
   14a7a: a2 84        	c.mv	s1, s0
   14a7c: 13 75 f4 0f  	andi	a0, s0, 0xff
   14a80: 63 97 a4 02  	bne	s1, a0, 0x14aae <jpeg_make_d_derived_tbl+0xa6>
   14a84: 13 97 26 00  	slli	a4, a3, 0x2
   14a88: 16 97        	c.add	a4, t0
   14a8a: 13 96 06 02  	slli	a2, a3, 0x20
   14a8e: 33 85 d8 00  	add	a0, a7, a3
   14a92: 0c c3        	c.sw	a1, 0x0(a4)
   14a94: 85 05        	c.addi	a1, 0x1
   14a96: 03 44 05 00  	lbu	s0, 0x0(a0)
   14a9a: 11 07        	c.addi	a4, 0x4
   14a9c: 3e 96        	c.add	a2, a5
   14a9e: 85 26        	c.addiw	a3, 0x1
   14aa0: 05 05        	c.addi	a0, 0x1
   14aa2: e3 88 84 fe  	beq	s1, s0, 0x14a92 <jpeg_make_d_derived_tbl+0x8a>
   14aa6: 01 96        	c.srai	a2, 0x20
   14aa8: 42 96        	c.add	a2, a6
   14aaa: 03 44 06 00  	lbu	s0, 0x0(a2)
   14aae: 86 05        	c.slli	a1, 0x1
   14ab0: 13 75 f4 0f  	andi	a0, s0, 0xff
   14ab4: 85 24        	c.addiw	s1, 0x1
   14ab6: 79 f1        	c.bnez	a0, 0x14a7c <jpeg_make_d_derived_tbl+0x74>
   14ab8: 01 44        	c.li	s0, 0x0
   14aba: 93 05 09 09  	addi	a1, s2, 0x90
   14abe: 13 86 19 00  	addi	a2, s3, 0x1
   14ac2: 93 06 c9 11  	addi	a3, s2, 0x11c
   14ac6: 13 07 09 11  	addi	a4, s2, 0x110
   14aca: 3c 00        	c.addi4spn	a5, sp, 0x8
   14acc: 83 44 06 00  	lbu	s1, 0x0(a2)
   14ad0: 95 c0        	c.beqz	s1, 0x14af4 <jpeg_make_d_derived_tbl+0xec>
   14ad2: 13 15 24 00  	slli	a0, s0, 0x2
   14ad6: 3e 95        	c.add	a0, a5
   14ad8: 03 65 05 00  	lwu	a0, 0x0(a0)
   14adc: 80 c2        	c.sw	s0, 0x0(a3)
   14ade: 23 bc a5 f6  	sd	a0, -0x88(a1)
   14ae2: 03 45 06 00  	lbu	a0, 0x0(a2)
   14ae6: 29 9c        	c.addw	s0, a0
   14ae8: 13 15 24 00  	slli	a0, s0, 0x2
   14aec: 3e 95        	c.add	a0, a5
   14aee: 83 64 c5 ff  	lwu	s1, -0x4(a0)
   14af2: 11 a0        	c.j	0x14af6 <jpeg_make_d_derived_tbl+0xee>
   14af4: fd 54        	c.li	s1, -0x1
   14af6: 84 e1        	c.sd	s1, 0x0(a1)
   14af8: a1 05        	c.addi	a1, 0x8
   14afa: 05 06        	c.addi	a2, 0x1
   14afc: 91 06        	c.addi	a3, 0x4
   14afe: e3 97 e5 fc  	bne	a1, a4, 0x14acc <jpeg_make_d_derived_tbl+0xc4>
   14b02: 37 05 10 00  	lui	a0, 0x100
   14b06: 7d 35        	c.addiw	a0, -0x1
   14b08: 23 38 a9 10  	sd	a0, 0x110(s2)
   14b0c: 13 0a 89 16  	addi	s4, s2, 0x168
   14b10: 13 06 00 40  	addi	a2, zero, 0x400
   14b14: 52 85        	c.mv	a0, s4
   14b16: 81 45        	c.li	a1, 0x0
   14b18: ef 80 50 58  	jal	ra, 0x1d89c <memset>
   14b1c: 01 45        	c.li	a0, 0x0
   14b1e: 93 03 89 56  	addi	t2, s2, 0x568
   14b22: 93 02 c9 16  	addi	t0, s2, 0x16c
   14b26: 85 46        	c.li	a3, 0x1
   14b28: a5 48        	c.li	a7, 0x9
   14b2a: 21 48        	c.li	a6, 0x8
   14b2c: 13 03 81 00  	addi	t1, sp, 0x8
   14b30: 33 8e d9 00  	add	t3, s3, a3
   14b34: 83 45 0e 00  	lbu	a1, 0x0(t3)
   14b38: a5 c1        	c.beqz	a1, 0x14b98 <jpeg_make_d_derived_tbl+0x190>
   14b3a: bb 0e d8 40  	subw	t4, a6, a3
   14b3e: 05 44        	c.li	s0, 0x1
   14b40: bb 15 d4 01  	sllw	a1, s0, t4
   14b44: 2e 86        	c.mv	a2, a1
   14b46: 63 53 b0 00  	bge	zero, a1, 0x14b4c <jpeg_make_d_derived_tbl+0x144>
   14b4a: 05 46        	c.li	a2, 0x1
   14b4c: 01 25        	c.addiw	a0, 0x0
   14b4e: 91 9d        	c.subw	a1, a2
   14b50: 82 15        	c.slli	a1, 0x20
   14b52: f9 81        	c.srli	a1, 0x1e
   14b54: 33 8f b2 00  	add	t5, t0, a1
   14b58: 93 15 25 00  	slli	a1, a0, 0x2
   14b5c: 9a 95        	c.add	a1, t1
   14b5e: 8c 41        	c.lw	a1, 0x0(a1)
   14b60: a2 84        	c.mv	s1, s0
   14b62: bb 97 d5 01  	sllw	a5, a1, t4
   14b66: 33 84 a9 00  	add	s0, s3, a0
   14b6a: 45 04        	c.addi	s0, 0x11
   14b6c: 13 96 27 00  	slli	a2, a5, 0x2
   14b70: b3 05 ca 00  	add	a1, s4, a2
   14b74: 9e 97        	c.add	a5, t2
   14b76: 7a 96        	c.add	a2, t5
   14b78: 94 c1        	c.sw	a3, 0x0(a1)
   14b7a: 03 47 04 00  	lbu	a4, 0x0(s0)
   14b7e: 23 80 e7 00  	sb	a4, 0x0(a5)
   14b82: 91 05        	c.addi	a1, 0x4
   14b84: 85 07        	c.addi	a5, 0x1
   14b86: e3 99 c5 fe  	bne	a1, a2, 0x14b78 <jpeg_make_d_derived_tbl+0x170>
   14b8a: 83 45 0e 00  	lbu	a1, 0x0(t3)
   14b8e: 1b 84 14 00  	addiw	s0, s1, 0x1
   14b92: 05 05        	c.addi	a0, 0x1
   14b94: e3 e2 b4 fc  	bltu	s1, a1, 0x14b58 <jpeg_make_d_derived_tbl+0x150>
   14b98: 85 06        	c.addi	a3, 0x1
   14b9a: e3 9b 16 f9  	bne	a3, a7, 0x14b30 <jpeg_make_d_derived_tbl+0x128>
   14b9e: 13 01 01 51  	addi	sp, sp, 0x510
   14ba2: 6f a0 31 6d  	jal	zero, 0x2fa74 <__riscv_restore_7>

0000000000014ba6 <jpeg_fill_bit_buffer>:
   14ba6: ef a2 d1 67  	jal	t0, 0x2fa22 <__riscv_save_11>
   14baa: 2a 8c        	c.mv	s8, a0
   14bac: 00 61        	c.ld	s0, 0x0(a0)
   14bae: 04 65        	c.ld	s1, 0x8(a0)
   14bb0: 61 45        	c.li	a0, 0x18
   14bb2: 2e 8b        	c.mv	s6, a1
   14bb4: 63 47 c5 0a  	blt	a0, a2, 0x14c62 <jpeg_fill_bit_buffer+0xbc>
   14bb8: 36 89        	c.mv	s2, a3
   14bba: 93 09 f0 0f  	addi	s3, zero, 0xff
   14bbe: 45 4a        	c.li	s4, 0x11
   14bc0: 93 0a 10 07  	addi	s5, zero, 0x71
   14bc4: 85 4b        	c.li	s7, 0x1
   14bc6: 03 25 0c 01  	lw	a0, 0x10(s8)
   14bca: b2 8c        	c.mv	s9, a2
   14bcc: 09 c9        	c.beqz	a0, 0x14bde <jpeg_fill_bit_buffer+0x38>
   14bce: 63 d9 2c 09  	bge	s9, s2, 0x14c60 <jpeg_fill_bit_buffer+0xba>
   14bd2: 03 35 0c 03  	ld	a0, 0x30(s8)
   14bd6: 08 41        	c.lw	a0, 0x0(a0)
   14bd8: 39 c9        	c.beqz	a0, 0x14c2e <jpeg_fill_bit_buffer+0x88>
   14bda: 01 45        	c.li	a0, 0x0
   14bdc: b5 a0        	c.j	0x14c48 <jpeg_fill_bit_buffer+0xa2>
   14bde: 81 ec        	c.bnez	s1, 0x14bf6 <jpeg_fill_bit_buffer+0x50>
   14be0: 03 35 8c 02  	ld	a0, 0x28(s8)
   14be4: 0c 71        	c.ld	a1, 0x20(a0)
   14be6: 8c 6d        	c.ld	a1, 0x18(a1)
   14be8: 82 95        	c.jalr	a1
   14bea: 49 c5        	c.beqz	a0, 0x14c74 <jpeg_fill_bit_buffer+0xce>
   14bec: 03 35 8c 02  	ld	a0, 0x28(s8)
   14bf0: 08 71        	c.ld	a0, 0x20(a0)
   14bf2: 00 61        	c.ld	s0, 0x0(a0)
   14bf4: 04 65        	c.ld	s1, 0x8(a0)
   14bf6: 03 45 04 00  	lbu	a0, 0x0(s0)
   14bfa: fd 14        	c.addi	s1, -0x1
   14bfc: 05 04        	c.addi	s0, 0x1
   14bfe: 63 15 35 05  	bne	a0, s3, 0x14c48 <jpeg_fill_bit_buffer+0xa2>
   14c02: 81 ec        	c.bnez	s1, 0x14c1a <jpeg_fill_bit_buffer+0x74>
   14c04: 03 35 8c 02  	ld	a0, 0x28(s8)
   14c08: 0c 71        	c.ld	a1, 0x20(a0)
   14c0a: 8c 6d        	c.ld	a1, 0x18(a1)
   14c0c: 82 95        	c.jalr	a1
   14c0e: 3d c1        	c.beqz	a0, 0x14c74 <jpeg_fill_bit_buffer+0xce>
   14c10: 03 35 8c 02  	ld	a0, 0x28(s8)
   14c14: 08 71        	c.ld	a0, 0x20(a0)
   14c16: 00 61        	c.ld	s0, 0x0(a0)
   14c18: 04 65        	c.ld	s1, 0x8(a0)
   14c1a: 03 45 04 00  	lbu	a0, 0x0(s0)
   14c1e: fd 14        	c.addi	s1, -0x1
   14c20: 05 04        	c.addi	s0, 0x1
   14c22: e3 00 35 ff  	beq	a0, s3, 0x14c02 <jpeg_fill_bit_buffer+0x5c>
   14c26: 0d e9        	c.bnez	a0, 0x14c58 <jpeg_fill_bit_buffer+0xb2>
   14c28: 13 05 f0 0f  	addi	a0, zero, 0xff
   14c2c: 31 a8        	c.j	0x14c48 <jpeg_fill_bit_buffer+0xa2>
   14c2e: 03 35 8c 02  	ld	a0, 0x28(s8)
   14c32: 0c 61        	c.ld	a1, 0x0(a0)
   14c34: 90 65        	c.ld	a2, 0x8(a1)
   14c36: 23 a4 55 03  	sw	s5, 0x28(a1)
   14c3a: fd 55        	c.li	a1, -0x1
   14c3c: 02 96        	c.jalr	a2
   14c3e: 83 35 0c 03  	ld	a1, 0x30(s8)
   14c42: 01 45        	c.li	a0, 0x0
   14c44: 23 a0 75 01  	sw	s7, 0x0(a1)
   14c48: 22 0b        	c.slli	s6, 0x8
   14c4a: 33 6b 65 01  	or	s6, a0, s6
   14c4e: 1b 86 8c 00  	addiw	a2, s9, 0x8
   14c52: e3 ca 4c f7  	blt	s9, s4, 0x14bc6 <jpeg_fill_bit_buffer+0x20>
   14c56: 31 a0        	c.j	0x14c62 <jpeg_fill_bit_buffer+0xbc>
   14c58: 23 28 ac 00  	sw	a0, 0x10(s8)
   14c5c: e3 cb 2c f7  	blt	s9, s2, 0x14bd2 <jpeg_fill_bit_buffer+0x2c>
   14c60: 66 86        	c.mv	a2, s9
   14c62: 23 30 8c 00  	sd	s0, 0x0(s8)
   14c66: 23 34 9c 00  	sd	s1, 0x8(s8)
   14c6a: 23 3c 6c 01  	sd	s6, 0x18(s8)
   14c6e: 23 20 cc 02  	sw	a2, 0x20(s8)
   14c72: 05 45        	c.li	a0, 0x1
   14c74: 6f a0 51 5f  	jal	zero, 0x2fa68 <__riscv_restore_11>

0000000000014c78 <jpeg_huff_decode>:
   14c78: ef a2 f1 5b  	jal	t0, 0x2fa36 <__riscv_save_7>
   14c7c: 3a 8a        	c.mv	s4, a4
   14c7e: 36 89        	c.mv	s2, a3
   14c80: aa 89        	c.mv	s3, a0
   14c82: 63 5b e6 00  	bge	a2, a4, 0x14c98 <jpeg_huff_decode+0x20>
   14c86: 4e 85        	c.mv	a0, s3
   14c88: d2 86        	c.mv	a3, s4
   14c8a: ef f0 df f1  	jal	ra, 0x14ba6 <jpeg_fill_bit_buffer>
   14c8e: 5d c9        	c.beqz	a0, 0x14d44 <jpeg_huff_decode+0xcc>
   14c90: 83 b5 89 01  	ld	a1, 0x18(s3)
   14c94: 03 a6 09 02  	lw	a2, 0x20(s3)
   14c98: 3b 06 46 41  	subw	a2, a2, s4
   14c9c: 33 d5 c5 40  	sra	a0, a1, a2
   14ca0: fd 56        	c.li	a3, -0x1
   14ca2: 13 17 3a 00  	slli	a4, s4, 0x3
   14ca6: 4a 97        	c.add	a4, s2
   14ca8: 58 67        	c.ld	a4, 0x88(a4)
   14caa: bb 96 46 01  	sllw	a3, a3, s4
   14cae: 93 c6 f6 ff  	xori	a3, a3, -0x1
   14cb2: b3 7a d5 00  	and	s5, a0, a3
   14cb6: 63 51 57 05  	bge	a4, s5, 0x14cf8 <jpeg_huff_decode+0x80>
   14cba: 13 15 3a 00  	slli	a0, s4, 0x3
   14cbe: 4a 95        	c.add	a0, s2
   14cc0: 13 04 05 09  	addi	s0, a0, 0x90
   14cc4: d2 84        	c.mv	s1, s4
   14cc6: 63 4b c0 00  	blt	zero, a2, 0x14cdc <jpeg_huff_decode+0x64>
   14cca: 85 46        	c.li	a3, 0x1
   14ccc: 4e 85        	c.mv	a0, s3
   14cce: ef f0 9f ed  	jal	ra, 0x14ba6 <jpeg_fill_bit_buffer>
   14cd2: 2d c9        	c.beqz	a0, 0x14d44 <jpeg_huff_decode+0xcc>
   14cd4: 83 b5 89 01  	ld	a1, 0x18(s3)
   14cd8: 03 a6 09 02  	lw	a2, 0x20(s3)
   14cdc: 86 0a        	c.slli	s5, 0x1
   14cde: 7d 36        	c.addiw	a2, -0x1
   14ce0: 33 d5 c5 00  	srl	a0, a1, a2
   14ce4: 05 89        	c.andi	a0, 0x1
   14ce6: 14 60        	c.ld	a3, 0x0(s0)
   14ce8: b3 6a 55 01  	or	s5, a0, s5
   14cec: 85 04        	c.addi	s1, 0x1
   14cee: 05 2a        	c.addiw	s4, 0x1
   14cf0: 21 04        	c.addi	s0, 0x8
   14cf2: e3 ca 56 fd  	blt	a3, s5, 0x14cc6 <jpeg_huff_decode+0x4e>
   14cf6: 11 a0        	c.j	0x14cfa <jpeg_huff_decode+0x82>
   14cf8: d2 84        	c.mv	s1, s4
   14cfa: 23 bc b9 00  	sd	a1, 0x18(s3)
   14cfe: 45 45        	c.li	a0, 0x11
   14d00: 23 a0 c9 02  	sw	a2, 0x20(s3)
   14d04: 63 4e aa 00  	blt	s4, a0, 0x14d20 <jpeg_huff_decode+0xa8>
   14d08: 03 b5 89 02  	ld	a0, 0x28(s3)
   14d0c: 0c 61        	c.ld	a1, 0x0(a0)
   14d0e: 90 65        	c.ld	a2, 0x8(a1)
   14d10: 93 06 20 07  	addi	a3, zero, 0x72
   14d14: 94 d5        	c.sw	a3, 0x28(a1)
   14d16: fd 55        	c.li	a1, -0x1
   14d18: 02 96        	c.jalr	a2
   14d1a: 01 45        	c.li	a0, 0x0
   14d1c: 6f a0 91 55  	jal	zero, 0x2fa74 <__riscv_restore_7>
   14d20: 13 95 24 00  	slli	a0, s1, 0x2
   14d24: 4a 95        	c.add	a0, s2
   14d26: 8e 04        	c.slli	s1, 0x3
   14d28: ca 94        	c.add	s1, s2
   14d2a: 8c 60        	c.ld	a1, 0x0(s1)
   14d2c: 03 25 85 11  	lw	a0, 0x118(a0)
   14d30: 03 36 09 16  	ld	a2, 0x160(s2)
   14d34: bb 85 ba 40  	subw	a1, s5, a1
   14d38: 2d 9d        	c.addw	a0, a1
   14d3a: 32 95        	c.add	a0, a2
   14d3c: 03 45 15 01  	lbu	a0, 0x11(a0)
   14d40: 6f a0 51 53  	jal	zero, 0x2fa74 <__riscv_restore_7>
   14d44: 7d 55        	c.li	a0, -0x1
   14d46: 6f a0 f1 52  	jal	zero, 0x2fa74 <__riscv_restore_7>

0000000000014d4a <jinit_huff_decoder>:
   14d4a: ef a2 31 51  	jal	t0, 0x2fa5c <__riscv_save_1>
   14d4e: 2a 84        	c.mv	s0, a0
   14d50: 08 65        	c.ld	a0, 0x8(a0)
   14d52: 14 61        	c.ld	a3, 0x0(a0)
   14d54: 85 45        	c.li	a1, 0x1
   14d56: 13 06 80 07  	addi	a2, zero, 0x78
   14d5a: 22 85        	c.mv	a0, s0
   14d5c: 82 96        	c.jalr	a3
   14d5e: 23 30 a4 24  	sd	a0, 0x240(s0)
   14d62: b7 55 01 00  	lui	a1, 0x15
   14d66: 93 85 c5 d9  	addi	a1, a1, -0x264
   14d6a: 0c e1        	c.sd	a1, 0x0(a0)
   14d6c: b7 55 01 00  	lui	a1, 0x15
   14d70: 93 85 e5 e8  	addi	a1, a1, -0x172
   14d74: 0c e5        	c.sd	a1, 0x8(a0)
   14d76: 23 38 05 04  	sd	zero, 0x50(a0)
   14d7a: 23 34 05 04  	sd	zero, 0x48(a0)
   14d7e: 23 30 05 04  	sd	zero, 0x40(a0)
   14d82: 23 3c 05 02  	sd	zero, 0x38(a0)
   14d86: 93 05 85 05  	addi	a1, a0, 0x58
   14d8a: 13 05 85 07  	addi	a0, a0, 0x78
   14d8e: 23 b0 05 00  	sd	zero, 0x0(a1)
   14d92: a1 05        	c.addi	a1, 0x8
   14d94: e3 9d a5 fe  	bne	a1, a0, 0x14d8e <jinit_huff_decoder+0x44>
   14d98: 6f a0 f1 4e  	jal	zero, 0x2fa86 <__riscv_restore_1>

0000000000014d9c <start_pass_huff_decoder>:
   14d9c: ef a2 11 49  	jal	t0, 0x2fa2c <__riscv_save_9>
   14da0: 2a 84        	c.mv	s0, a0
   14da2: 03 25 c5 1f  	lw	a0, 0x1fc(a0)
   14da6: 03 39 04 24  	ld	s2, 0x240(s0)
   14daa: 09 ed        	c.bnez	a0, 0x14dc4 <start_pass_huff_decoder+0x28>
   14dac: 03 25 04 20  	lw	a0, 0x200(s0)
   14db0: 93 05 f0 03  	addi	a1, zero, 0x3f
   14db4: 63 18 b5 00  	bne	a0, a1, 0x14dc4 <start_pass_huff_decoder+0x28>
   14db8: 03 25 44 20  	lw	a0, 0x204(s0)
   14dbc: 01 e5        	c.bnez	a0, 0x14dc4 <start_pass_huff_decoder+0x28>
   14dbe: 03 25 84 20  	lw	a0, 0x208(s0)
   14dc2: 09 c9        	c.beqz	a0, 0x14dd4 <start_pass_huff_decoder+0x38>
   14dc4: 08 60        	c.ld	a0, 0x0(s0)
   14dc6: 10 65        	c.ld	a2, 0x8(a0)
   14dc8: 93 05 60 07  	addi	a1, zero, 0x76
   14dcc: 0c d5        	c.sw	a1, 0x28(a0)
   14dce: fd 55        	c.li	a1, -0x1
   14dd0: 22 85        	c.mv	a0, s0
   14dd2: 02 96        	c.jalr	a2
   14dd4: 03 25 04 1a  	lw	a0, 0x1a0(s0)
   14dd8: 63 51 a0 0a  	bge	zero, a0, 0x14e7a <start_pass_huff_decoder+0xde>
   14ddc: 81 49        	c.li	s3, 0x0
   14dde: 13 0a 09 02  	addi	s4, s2, 0x20
   14de2: 93 04 84 1a  	addi	s1, s0, 0x1a8
   14de6: 8d 4a        	c.li	s5, 0x3
   14de8: 13 0b 10 03  	addi	s6, zero, 0x31
   14dec: 88 60        	c.ld	a0, 0x0(s1)
   14dee: 03 2c 45 01  	lw	s8, 0x14(a0)
   14df2: 83 2b 85 01  	lw	s7, 0x18(a0)
   14df6: 63 ea 8a 01  	bltu	s5, s8, 0x14e0a <start_pass_huff_decoder+0x6e>
   14dfa: 13 15 3c 00  	slli	a0, s8, 0x3
   14dfe: 22 95        	c.add	a0, s0
   14e00: 68 71        	c.ld	a0, 0xe0(a0)
   14e02: 01 c5        	c.beqz	a0, 0x14e0a <start_pass_huff_decoder+0x6e>
   14e04: 63 fe 7a 01  	bgeu	s5, s7, 0x14e20 <start_pass_huff_decoder+0x84>
   14e08: 15 a0        	c.j	0x14e2c <start_pass_huff_decoder+0x90>
   14e0a: 08 60        	c.ld	a0, 0x0(s0)
   14e0c: 23 26 85 03  	sw	s8, 0x2c(a0)
   14e10: 0c 60        	c.ld	a1, 0x0(s0)
   14e12: 8c 61        	c.ld	a1, 0x0(a1)
   14e14: 23 24 65 03  	sw	s6, 0x28(a0)
   14e18: 22 85        	c.mv	a0, s0
   14e1a: 82 95        	c.jalr	a1
   14e1c: 63 e8 7a 01  	bltu	s5, s7, 0x14e2c <start_pass_huff_decoder+0x90>
   14e20: 13 95 3b 00  	slli	a0, s7, 0x3
   14e24: 22 95        	c.add	a0, s0
   14e26: 03 35 05 10  	ld	a0, 0x100(a0)
   14e2a: 11 e9        	c.bnez	a0, 0x14e3e <start_pass_huff_decoder+0xa2>
   14e2c: 08 60        	c.ld	a0, 0x0(s0)
   14e2e: 23 26 75 03  	sw	s7, 0x2c(a0)
   14e32: 0c 60        	c.ld	a1, 0x0(s0)
   14e34: 8c 61        	c.ld	a1, 0x0(a1)
   14e36: 23 24 65 03  	sw	s6, 0x28(a0)
   14e3a: 22 85        	c.mv	a0, s0
   14e3c: 82 95        	c.jalr	a1
   14e3e: 0e 0c        	c.slli	s8, 0x3
   14e40: 33 05 84 01  	add	a0, s0, s8
   14e44: 6c 71        	c.ld	a1, 0xe0(a0)
   14e46: 4a 9c        	c.add	s8, s2
   14e48: 13 06 8c 03  	addi	a2, s8, 0x38
   14e4c: 22 85        	c.mv	a0, s0
   14e4e: ef f0 bf bb  	jal	ra, 0x14a08 <jpeg_make_d_derived_tbl>
   14e52: 8e 0b        	c.slli	s7, 0x3
   14e54: 33 05 74 01  	add	a0, s0, s7
   14e58: 83 35 05 10  	ld	a1, 0x100(a0)
   14e5c: ca 9b        	c.add	s7, s2
   14e5e: 13 86 8b 05  	addi	a2, s7, 0x58
   14e62: 22 85        	c.mv	a0, s0
   14e64: ef f0 5f ba  	jal	ra, 0x14a08 <jpeg_make_d_derived_tbl>
   14e68: 23 20 0a 00  	sw	zero, 0x0(s4)
   14e6c: 03 25 04 1a  	lw	a0, 0x1a0(s0)
   14e70: 85 09        	c.addi	s3, 0x1
   14e72: 11 0a        	c.addi	s4, 0x4
   14e74: a1 04        	c.addi	s1, 0x8
   14e76: e3 cb a9 f6  	blt	s3, a0, 0x14dec <start_pass_huff_decoder+0x50>
   14e7a: 23 3c 09 00  	sd	zero, 0x18(s2)
   14e7e: 23 38 09 00  	sd	zero, 0x10(s2)
   14e82: 03 25 84 16  	lw	a0, 0x168(s0)
   14e86: 23 28 a9 02  	sw	a0, 0x30(s2)
   14e8a: 6f a0 51 3e  	jal	zero, 0x2fa6e <__riscv_restore_9>

0000000000014e8e <decode_mcu>:
   14e8e: ef a2 d1 38  	jal	t0, 0x2fa1a <__riscv_save_12>
   14e92: 1d 71        	c.addi16sp	sp, -0x60
   14e94: aa 89        	c.mv	s3, a0
   14e96: 03 25 85 16  	lw	a0, 0x168(a0)
   14e9a: 03 ba 09 24  	ld	s4, 0x240(s3)
   14e9e: ae 8b        	c.mv	s7, a1
   14ea0: 39 cd        	c.beqz	a0, 0x14efe <decode_mcu+0x70>
   14ea2: 03 25 0a 03  	lw	a0, 0x30(s4)
   14ea6: 21 ed        	c.bnez	a0, 0x14efe <decode_mcu+0x70>
   14ea8: 03 25 8a 01  	lw	a0, 0x18(s4)
   14eac: 83 b5 89 23  	ld	a1, 0x238(s3)
   14eb0: 13 16 15 00  	slli	a2, a0, 0x1
   14eb4: 75 92        	c.srli	a2, 0x3d
   14eb6: 83 a6 c5 0a  	lw	a3, 0xac(a1)
   14eba: 32 95        	c.add	a0, a2
   14ebc: 1b 55 35 40  	sraiw	a0, a0, 0x3
   14ec0: 90 69        	c.ld	a2, 0x10(a1)
   14ec2: 36 95        	c.add	a0, a3
   14ec4: 23 a6 a5 0a  	sw	a0, 0xac(a1)
   14ec8: 23 2c 0a 00  	sw	zero, 0x18(s4)
   14ecc: 4e 85        	c.mv	a0, s3
   14ece: 02 96        	c.jalr	a2
   14ed0: 63 0c 05 30  	beq	a0, zero, 0x151e8 <decode_mcu+0x35a>
   14ed4: 03 a5 09 1a  	lw	a0, 0x1a0(s3)
   14ed8: 63 5d a0 00  	bge	zero, a0, 0x14ef2 <decode_mcu+0x64>
   14edc: 01 45        	c.li	a0, 0x0
   14ede: 93 05 0a 02  	addi	a1, s4, 0x20
   14ee2: 23 a0 05 00  	sw	zero, 0x0(a1)
   14ee6: 03 a6 09 1a  	lw	a2, 0x1a0(s3)
   14eea: 05 05        	c.addi	a0, 0x1
   14eec: 91 05        	c.addi	a1, 0x4
   14eee: e3 4a c5 fe  	blt	a0, a2, 0x14ee2 <decode_mcu+0x54>
   14ef2: 03 a5 89 16  	lw	a0, 0x168(s3)
   14ef6: 23 28 aa 02  	sw	a0, 0x30(s4)
   14efa: 23 2e 0a 00  	sw	zero, 0x1c(s4)
   14efe: 03 b5 09 02  	ld	a0, 0x20(s3)
   14f02: 14 61        	c.ld	a3, 0x0(a0)
   14f04: ce e8        	c.sdsp	s3, 0x50(sp)
   14f06: 36 f4        	c.sdsp	a3, 0x28(sp)
   14f08: 1c 65        	c.ld	a5, 0x8(a0)
   14f0a: 03 a7 c9 20  	lw	a4, 0x20c(s3)
   14f0e: 83 65 4a 02  	lwu	a1, 0x24(s4)
   14f12: 03 66 0a 02  	lwu	a2, 0x20(s4)
   14f16: 93 04 ca 01  	addi	s1, s4, 0x1c
   14f1a: a6 ec        	c.sdsp	s1, 0x58(sp)
   14f1c: 82 15        	c.slli	a1, 0x20
   14f1e: 4d 8e        	c.or	a2, a1
   14f20: 83 64 ca 02  	lwu	s1, 0x2c(s4)
   14f24: 03 64 8a 02  	lwu	s0, 0x28(s4)
   14f28: 83 35 0a 01  	ld	a1, 0x10(s4)
   14f2c: 32 ec        	c.sdsp	a2, 0x18(sp)
   14f2e: 82 14        	c.slli	s1, 0x20
   14f30: 45 8c        	c.or	s0, s1
   14f32: 83 a4 09 1d  	lw	s1, 0x1d0(s3)
   14f36: 03 26 8a 01  	lw	a2, 0x18(s4)
   14f3a: 3e f8        	c.sdsp	a5, 0x30(sp)
   14f3c: 3a dc        	c.swsp	a4, 0x38(sp)
   14f3e: 22 f0        	c.sdsp	s0, 0x20(sp)
   14f40: 63 5a 90 26  	bge	zero, s1, 0x151b4 <decode_mcu+0x326>
   14f44: 81 4a        	c.li	s5, 0x0
   14f46: 1d 4b        	c.li	s6, 0x7
   14f48: 93 0c 00 04  	addi	s9, zero, 0x40
   14f4c: 37 25 03 00  	lui	a0, 0x32
   14f50: 13 09 45 a7  	addi	s2, a0, -0x58c
   14f54: 37 25 03 00  	lui	a0, 0x32
   14f58: 13 05 45 ab  	addi	a0, a0, -0x54c
   14f5c: 2a e4        	c.sdsp	a0, 0x8(sp)
   14f5e: 37 25 03 00  	lui	a0, 0x32
   14f62: 13 05 c5 d5  	addi	a0, a0, -0x2a4
   14f66: 2a e8        	c.sdsp	a0, 0x10(sp)
   14f68: 5e e0        	c.sdsp	s7, 0x0(sp)
   14f6a: a1 44        	c.li	s1, 0x8
   14f6c: 13 95 2a 00  	slli	a0, s5, 0x2
   14f70: 4e 95        	c.add	a0, s3
   14f72: 83 2d 45 1d  	lw	s11, 0x1d4(a0)
   14f76: 13 95 3d 00  	slli	a0, s11, 0x3
   14f7a: 4e 95        	c.add	a0, s3
   14f7c: 03 3c 85 1a  	ld	s8, 0x1a8(a0)
   14f80: 13 95 3a 00  	slli	a0, s5, 0x3
   14f84: 83 26 4c 01  	lw	a3, 0x14(s8)
   14f88: 5e 95        	c.add	a0, s7
   14f8a: 03 3d 05 00  	ld	s10, 0x0(a0)
   14f8e: 03 25 8c 01  	lw	a0, 0x18(s8)
   14f92: 8e 06        	c.slli	a3, 0x3
   14f94: d2 96        	c.add	a3, s4
   14f96: 80 7e        	c.ld	s0, 0x38(a3)
   14f98: 0e 05        	c.slli	a0, 0x3
   14f9a: 52 95        	c.add	a0, s4
   14f9c: 83 3b 85 05  	ld	s7, 0x58(a0)
   14fa0: 63 4d cb 00  	blt	s6, a2, 0x14fba <decode_mcu+0x12c>
   14fa4: 28 10        	c.addi4spn	a0, sp, 0x28
   14fa6: 81 46        	c.li	a3, 0x0
   14fa8: ef f0 ff bf  	jal	ra, 0x14ba6 <jpeg_fill_bit_buffer>
   14fac: 63 0e 05 22  	beq	a0, zero, 0x151e8 <decode_mcu+0x35a>
   14fb0: 26 46        	c.lwsp	a2, 0x48(sp)
   14fb2: 86 65        	c.ldsp	a1, 0x40(sp)
   14fb4: 05 47        	c.li	a4, 0x1
   14fb6: 63 46 96 02  	blt	a2, s1, 0x14fe2 <decode_mcu+0x154>
   14fba: 13 05 86 ff  	addi	a0, a2, -0x8
   14fbe: 33 d5 a5 40  	sra	a0, a1, a0
   14fc2: 13 75 f5 0f  	andi	a0, a0, 0xff
   14fc6: 93 16 25 00  	slli	a3, a0, 0x2
   14fca: a2 96        	c.add	a3, s0
   14fcc: 83 a6 86 16  	lw	a3, 0x168(a3)
   14fd0: 81 ca        	c.beqz	a3, 0x14fe0 <decode_mcu+0x152>
   14fd2: 22 95        	c.add	a0, s0
   14fd4: 03 44 85 56  	lbu	s0, 0x568(a0)
   14fd8: 15 9e        	c.subw	a2, a3
   14fda: 11 ec        	c.bnez	s0, 0x14ff6 <decode_mcu+0x168>
   14fdc: 01 45        	c.li	a0, 0x0
   14fde: 91 a8        	c.j	0x15032 <decode_mcu+0x1a4>
   14fe0: 25 47        	c.li	a4, 0x9
   14fe2: 28 10        	c.addi4spn	a0, sp, 0x28
   14fe4: a2 86        	c.mv	a3, s0
   14fe6: ef f0 3f c9  	jal	ra, 0x14c78 <jpeg_huff_decode>
   14fea: 63 4e 05 1e  	blt	a0, zero, 0x151e6 <decode_mcu+0x358>
   14fee: 2a 84        	c.mv	s0, a0
   14ff0: 86 65        	c.ldsp	a1, 0x40(sp)
   14ff2: 26 46        	c.lwsp	a2, 0x48(sp)
   14ff4: 65 d5        	c.beqz	a0, 0x14fdc <decode_mcu+0x14e>
   14ff6: 63 5a 86 00  	bge	a2, s0, 0x1500a <decode_mcu+0x17c>
   14ffa: 28 10        	c.addi4spn	a0, sp, 0x28
   14ffc: a2 86        	c.mv	a3, s0
   14ffe: ef f0 9f ba  	jal	ra, 0x14ba6 <jpeg_fill_bit_buffer>
   15002: 63 03 05 1e  	beq	a0, zero, 0x151e8 <decode_mcu+0x35a>
   15006: 86 65        	c.ldsp	a1, 0x40(sp)
   15008: 26 46        	c.lwsp	a2, 0x48(sp)
   1500a: 01 9e        	c.subw	a2, s0
   1500c: 33 d5 c5 40  	sra	a0, a1, a2
   15010: 93 16 24 00  	slli	a3, s0, 0x2
   15014: 33 07 d9 00  	add	a4, s2, a3
   15018: 18 43        	c.lw	a4, 0x0(a4)
   1501a: fd 57        	c.li	a5, -0x1
   1501c: bb 97 87 00  	sllw	a5, a5, s0
   15020: 93 c7 f7 ff  	xori	a5, a5, -0x1
   15024: 7d 8d        	c.and	a0, a5
   15026: 63 56 e5 00  	bge	a0, a4, 0x15032 <decode_mcu+0x1a4>
   1502a: 22 67        	c.ldsp	a4, 0x8(sp)
   1502c: ba 96        	c.add	a3, a4
   1502e: 94 42        	c.lw	a3, 0x0(a3)
   15030: 36 95        	c.add	a0, a3
   15032: 83 26 0c 03  	lw	a3, 0x30(s8)
   15036: e5 c6        	c.beqz	a3, 0x1511e <decode_mcu+0x290>
   15038: 8a 0d        	c.slli	s11, 0x2
   1503a: 34 08        	c.addi4spn	a3, sp, 0x18
   1503c: b6 9d        	c.add	s11, a3
   1503e: 83 a6 0d 00  	lw	a3, 0x0(s11)
   15042: 03 27 4c 02  	lw	a4, 0x24(s8)
   15046: 36 95        	c.add	a0, a3
   15048: 23 a0 ad 00  	sw	a0, 0x0(s11)
   1504c: 23 10 ad 00  	sh	a0, 0x0(s10)
   15050: 09 45        	c.li	a0, 0x2
   15052: 63 46 a7 0c  	blt	a4, a0, 0x1511e <decode_mcu+0x290>
   15056: 05 4c        	c.li	s8, 0x1
   15058: a1 4d        	c.li	s11, 0x8
   1505a: 63 4d cb 00  	blt	s6, a2, 0x15074 <decode_mcu+0x1e6>
   1505e: 28 10        	c.addi4spn	a0, sp, 0x28
   15060: 81 46        	c.li	a3, 0x0
   15062: ef f0 5f b4  	jal	ra, 0x14ba6 <jpeg_fill_bit_buffer>
   15066: 63 01 05 18  	beq	a0, zero, 0x151e8 <decode_mcu+0x35a>
   1506a: 26 46        	c.lwsp	a2, 0x48(sp)
   1506c: 86 65        	c.ldsp	a1, 0x40(sp)
   1506e: 05 47        	c.li	a4, 0x1
   15070: 63 44 b6 03  	blt	a2, s11, 0x15098 <decode_mcu+0x20a>
   15074: 13 05 86 ff  	addi	a0, a2, -0x8
   15078: 33 d5 a5 40  	sra	a0, a1, a0
   1507c: 13 75 f5 0f  	andi	a0, a0, 0xff
   15080: 93 16 25 00  	slli	a3, a0, 0x2
   15084: de 96        	c.add	a3, s7
   15086: 83 a6 86 16  	lw	a3, 0x168(a3)
   1508a: 91 c6        	c.beqz	a3, 0x15096 <decode_mcu+0x208>
   1508c: 5e 95        	c.add	a0, s7
   1508e: 03 45 85 56  	lbu	a0, 0x568(a0)
   15092: 15 9e        	c.subw	a2, a3
   15094: 11 a8        	c.j	0x150a8 <decode_mcu+0x21a>
   15096: 25 47        	c.li	a4, 0x9
   15098: 28 10        	c.addi4spn	a0, sp, 0x28
   1509a: de 86        	c.mv	a3, s7
   1509c: ef f0 df bd  	jal	ra, 0x14c78 <jpeg_huff_decode>
   150a0: 63 43 05 14  	blt	a0, zero, 0x151e6 <decode_mcu+0x358>
   150a4: 86 65        	c.ldsp	a1, 0x40(sp)
   150a6: 26 46        	c.lwsp	a2, 0x48(sp)
   150a8: 13 74 f5 00  	andi	s0, a0, 0xf
   150ac: 9b 54 45 00  	srliw	s1, a0, 0x4
   150b0: 39 c8        	c.beqz	s0, 0x15106 <decode_mcu+0x278>
   150b2: 63 5a 86 00  	bge	a2, s0, 0x150c6 <decode_mcu+0x238>
   150b6: 28 10        	c.addi4spn	a0, sp, 0x28
   150b8: a2 86        	c.mv	a3, s0
   150ba: ef f0 df ae  	jal	ra, 0x14ba6 <jpeg_fill_bit_buffer>
   150be: 63 05 05 12  	beq	a0, zero, 0x151e8 <decode_mcu+0x35a>
   150c2: 86 65        	c.ldsp	a1, 0x40(sp)
   150c4: 26 46        	c.lwsp	a2, 0x48(sp)
   150c6: 01 9e        	c.subw	a2, s0
   150c8: b3 d6 c5 40  	sra	a3, a1, a2
   150cc: 13 15 24 00  	slli	a0, s0, 0x2
   150d0: 33 07 a9 00  	add	a4, s2, a0
   150d4: 18 43        	c.lw	a4, 0x0(a4)
   150d6: fd 57        	c.li	a5, -0x1
   150d8: bb 97 87 00  	sllw	a5, a5, s0
   150dc: 93 c7 f7 ff  	xori	a5, a5, -0x1
   150e0: fd 8e        	c.and	a3, a5
   150e2: 63 d6 e6 00  	bge	a3, a4, 0x150ee <decode_mcu+0x260>
   150e6: 22 67        	c.ldsp	a4, 0x8(sp)
   150e8: 3a 95        	c.add	a0, a4
   150ea: 08 41        	c.lw	a0, 0x0(a0)
   150ec: aa 96        	c.add	a3, a0
   150ee: 3b 85 84 01  	addw	a0, s1, s8
   150f2: 13 17 25 00  	slli	a4, a0, 0x2
   150f6: c2 67        	c.ldsp	a5, 0x10(sp)
   150f8: 3e 97        	c.add	a4, a5
   150fa: 18 43        	c.lw	a4, 0x0(a4)
   150fc: 06 07        	c.slli	a4, 0x1
   150fe: 6a 97        	c.add	a4, s10
   15100: 23 10 d7 00  	sh	a3, 0x0(a4)
   15104: 31 a0        	c.j	0x15110 <decode_mcu+0x282>
   15106: 3d 45        	c.li	a0, 0xf
   15108: 63 9b a4 08  	bne	s1, a0, 0x1519e <decode_mcu+0x310>
   1510c: 1b 05 fc 00  	addiw	a0, s8, 0xf
   15110: 13 0c 15 00  	addi	s8, a0, 0x1
   15114: 93 06 f0 03  	addi	a3, zero, 0x3f
   15118: e3 41 d5 f4  	blt	a0, a3, 0x1505a <decode_mcu+0x1cc>
   1511c: 49 a0        	c.j	0x1519e <decode_mcu+0x310>
   1511e: 05 4c        	c.li	s8, 0x1
   15120: 21 4d        	c.li	s10, 0x8
   15122: 63 4c cb 00  	blt	s6, a2, 0x1513a <decode_mcu+0x2ac>
   15126: 28 10        	c.addi4spn	a0, sp, 0x28
   15128: 81 46        	c.li	a3, 0x0
   1512a: ef f0 df a7  	jal	ra, 0x14ba6 <jpeg_fill_bit_buffer>
   1512e: 4d cd        	c.beqz	a0, 0x151e8 <decode_mcu+0x35a>
   15130: 26 46        	c.lwsp	a2, 0x48(sp)
   15132: 86 65        	c.ldsp	a1, 0x40(sp)
   15134: 05 47        	c.li	a4, 0x1
   15136: 63 44 a6 03  	blt	a2, s10, 0x1515e <decode_mcu+0x2d0>
   1513a: 13 05 86 ff  	addi	a0, a2, -0x8
   1513e: 33 d5 a5 40  	sra	a0, a1, a0
   15142: 13 75 f5 0f  	andi	a0, a0, 0xff
   15146: 93 16 25 00  	slli	a3, a0, 0x2
   1514a: de 96        	c.add	a3, s7
   1514c: 83 a6 86 16  	lw	a3, 0x168(a3)
   15150: 91 c6        	c.beqz	a3, 0x1515c <decode_mcu+0x2ce>
   15152: 5e 95        	c.add	a0, s7
   15154: 03 45 85 56  	lbu	a0, 0x568(a0)
   15158: 15 9e        	c.subw	a2, a3
   1515a: 11 a8        	c.j	0x1516e <decode_mcu+0x2e0>
   1515c: 25 47        	c.li	a4, 0x9
   1515e: 28 10        	c.addi4spn	a0, sp, 0x28
   15160: de 86        	c.mv	a3, s7
   15162: ef f0 7f b1  	jal	ra, 0x14c78 <jpeg_huff_decode>
   15166: 63 40 05 08  	blt	a0, zero, 0x151e6 <decode_mcu+0x358>
   1516a: 86 65        	c.ldsp	a1, 0x40(sp)
   1516c: 26 46        	c.lwsp	a2, 0x48(sp)
   1516e: 13 74 f5 00  	andi	s0, a0, 0xf
   15172: 9b 54 45 00  	srliw	s1, a0, 0x4
   15176: 01 cc        	c.beqz	s0, 0x1518e <decode_mcu+0x300>
   15178: 63 59 86 00  	bge	a2, s0, 0x1518a <decode_mcu+0x2fc>
   1517c: 28 10        	c.addi4spn	a0, sp, 0x28
   1517e: a2 86        	c.mv	a3, s0
   15180: ef f0 7f a2  	jal	ra, 0x14ba6 <jpeg_fill_bit_buffer>
   15184: 35 c1        	c.beqz	a0, 0x151e8 <decode_mcu+0x35a>
   15186: 86 65        	c.ldsp	a1, 0x40(sp)
   15188: 26 46        	c.lwsp	a2, 0x48(sp)
   1518a: 01 9e        	c.subw	a2, s0
   1518c: 21 a0        	c.j	0x15194 <decode_mcu+0x306>
   1518e: 3d 45        	c.li	a0, 0xf
   15190: 63 97 a4 00  	bne	s1, a0, 0x1519e <decode_mcu+0x310>
   15194: e2 94        	c.add	s1, s8
   15196: 1b 8c 14 00  	addiw	s8, s1, 0x1
   1519a: e3 44 9c f9  	blt	s8, s9, 0x15122 <decode_mcu+0x294>
   1519e: 03 a5 09 1d  	lw	a0, 0x1d0(s3)
   151a2: 85 0a        	c.addi	s5, 0x1
   151a4: 82 6b        	c.ldsp	s7, 0x0(sp)
   151a6: e3 c2 aa dc  	blt	s5, a0, 0x14f6a <decode_mcu+0xdc>
   151aa: a2 76        	c.ldsp	a3, 0x28(sp)
   151ac: 03 b5 09 02  	ld	a0, 0x20(s3)
   151b0: c2 77        	c.ldsp	a5, 0x30(sp)
   151b2: 62 57        	c.lwsp	a4, 0x38(sp)
   151b4: 93 04 0a 02  	addi	s1, s4, 0x20
   151b8: 14 e1        	c.sd	a3, 0x0(a0)
   151ba: 1c e5        	c.sd	a5, 0x8(a0)
   151bc: 62 45        	c.lwsp	a0, 0x18(sp)
   151be: 23 a6 e9 20  	sw	a4, 0x20c(s3)
   151c2: 23 38 ba 00  	sd	a1, 0x10(s4)
   151c6: 23 2c ca 00  	sw	a2, 0x18(s4)
   151ca: 88 c0        	c.sw	a0, 0x0(s1)
   151cc: 72 45        	c.lwsp	a0, 0x1c(sp)
   151ce: 82 55        	c.lwsp	a1, 0x20(sp)
   151d0: 12 56        	c.lwsp	a2, 0x24(sp)
   151d2: 83 26 0a 03  	lw	a3, 0x30(s4)
   151d6: c8 c0        	c.sw	a0, 0x4(s1)
   151d8: 8c c4        	c.sw	a1, 0x8(s1)
   151da: d0 c4        	c.sw	a2, 0xc(s1)
   151dc: fd 16        	c.addi	a3, -0x1
   151de: 23 28 da 02  	sw	a3, 0x30(s4)
   151e2: 05 45        	c.li	a0, 0x1
   151e4: 11 a0        	c.j	0x151e8 <decode_mcu+0x35a>
   151e6: 01 45        	c.li	a0, 0x0
   151e8: 25 61        	c.addi16sp	sp, 0x60
   151ea: 6f a0 b1 07  	jal	zero, 0x2fa64 <__riscv_restore_12>

00000000000151ee <jinit_phuff_decoder>:
   151ee: ef a2 d1 05  	jal	t0, 0x2fa4a <__riscv_save_3>
   151f2: 2a 89        	c.mv	s2, a0
   151f4: 08 65        	c.ld	a0, 0x8(a0)
   151f6: 14 61        	c.ld	a3, 0x0(a0)
   151f8: 85 45        	c.li	a1, 0x1
   151fa: 13 06 00 06  	addi	a2, zero, 0x60
   151fe: 4a 85        	c.mv	a0, s2
   15200: 82 96        	c.jalr	a3
   15202: 23 30 a9 24  	sd	a0, 0x240(s2)
   15206: 23 38 05 04  	sd	zero, 0x50(a0)
   1520a: 23 34 05 04  	sd	zero, 0x48(a0)
   1520e: 23 30 05 04  	sd	zero, 0x40(a0)
   15212: 23 3c 05 02  	sd	zero, 0x38(a0)
   15216: 83 35 89 00  	ld	a1, 0x8(s2)
   1521a: 37 56 01 00  	lui	a2, 0x15
   1521e: 83 26 09 03  	lw	a3, 0x30(s2)
   15222: 13 06 66 26  	addi	a2, a2, 0x266
   15226: 98 61        	c.ld	a4, 0x0(a1)
   15228: 10 e1        	c.sd	a2, 0x0(a0)
   1522a: 1b 96 66 00  	slliw	a2, a3, 0x6
   1522e: 0a 06        	c.slli	a2, 0x2
   15230: 85 45        	c.li	a1, 0x1
   15232: 4a 85        	c.mv	a0, s2
   15234: 02 97        	c.jalr	a4
   15236: 83 25 09 03  	lw	a1, 0x30(s2)
   1523a: 23 3c a9 0a  	sd	a0, 0xb8(s2)
   1523e: 63 52 b0 02  	bge	zero, a1, 0x15262 <jinit_phuff_decoder+0x74>
   15242: aa 84        	c.mv	s1, a0
   15244: 01 44        	c.li	s0, 0x0
   15246: 93 05 f0 0f  	addi	a1, zero, 0xff
   1524a: 13 06 00 10  	addi	a2, zero, 0x100
   1524e: 26 85        	c.mv	a0, s1
   15250: ef 80 c0 64  	jal	ra, 0x1d89c <memset>
   15254: 03 25 09 03  	lw	a0, 0x30(s2)
   15258: 05 24        	c.addiw	s0, 0x1
   1525a: 93 84 04 10  	addi	s1, s1, 0x100
   1525e: e3 44 a4 fe  	blt	s0, a0, 0x15246 <jinit_phuff_decoder+0x58>
   15262: 6f a0 f1 01  	jal	zero, 0x2fa80 <__riscv_restore_3>

0000000000015266 <start_pass_phuff_decoder>:
   15266: ef a2 c1 7b  	jal	t0, 0x2fa22 <__riscv_save_11>
   1526a: 2a 8c        	c.mv	s8, a0
   1526c: 83 29 c5 1f  	lw	s3, 0x1fc(a0)
   15270: 03 25 05 20  	lw	a0, 0x200(a0)
   15274: 63 80 09 02  	beq	s3, zero, 0x15294 <start_pass_phuff_decoder+0x2e>
   15278: b3 25 35 01  	slt	a1, a0, s3
   1527c: 03 26 0c 1a  	lw	a2, 0x1a0(s8)
   15280: 13 25 05 04  	slti	a0, a0, 0x40
   15284: 13 45 15 00  	xori	a0, a0, 0x1
   15288: 4d 8d        	c.or	a0, a1
   1528a: 7d 16        	c.addi	a2, -0x1
   1528c: b3 35 c0 00  	sltu	a1, zero, a2
   15290: 4d 8d        	c.or	a0, a1
   15292: 19 a0        	c.j	0x15298 <start_pass_phuff_decoder+0x32>
   15294: 33 35 a0 00  	sltu	a0, zero, a0
   15298: 83 25 8c 20  	lw	a1, 0x208(s8)
   1529c: 03 39 0c 24  	ld	s2, 0x240(s8)
   152a0: 35 46        	c.li	a2, 0xd
   152a2: 63 4d b6 00  	blt	a2, a1, 0x152bc <start_pass_phuff_decoder+0x56>
   152a6: 03 26 4c 20  	lw	a2, 0x204(s8)
   152aa: b3 36 c0 00  	sltu	a3, zero, a2
   152ae: 7d 36        	c.addiw	a2, -0x1
   152b0: b1 8d        	c.xor	a1, a2
   152b2: b3 35 b0 00  	sltu	a1, zero, a1
   152b6: f5 8d        	c.and	a1, a3
   152b8: 91 e1        	c.bnez	a1, 0x152bc <start_pass_phuff_decoder+0x56>
   152ba: 1d c9        	c.beqz	a0, 0x152f0 <start_pass_phuff_decoder+0x8a>
   152bc: 03 35 0c 00  	ld	a0, 0x0(s8)
   152c0: 23 26 35 03  	sw	s3, 0x2c(a0)
   152c4: 83 25 0c 20  	lw	a1, 0x200(s8)
   152c8: 03 36 0c 00  	ld	a2, 0x0(s8)
   152cc: b9 46        	c.li	a3, 0xe
   152ce: 14 d5        	c.sw	a3, 0x28(a0)
   152d0: 0c da        	c.sw	a1, 0x30(a2)
   152d2: 03 25 4c 20  	lw	a0, 0x204(s8)
   152d6: 83 35 0c 00  	ld	a1, 0x0(s8)
   152da: c8 d9        	c.sw	a0, 0x34(a1)
   152dc: 03 25 8c 20  	lw	a0, 0x208(s8)
   152e0: 83 35 0c 00  	ld	a1, 0x0(s8)
   152e4: 88 dd        	c.sw	a0, 0x38(a1)
   152e6: 03 35 0c 00  	ld	a0, 0x0(s8)
   152ea: 0c 61        	c.ld	a1, 0x0(a0)
   152ec: 62 85        	c.mv	a0, s8
   152ee: 82 95        	c.jalr	a1
   152f0: 03 25 0c 1a  	lw	a0, 0x1a0(s8)
   152f4: 63 5b a0 0c  	bge	zero, a0, 0x153ca <start_pass_phuff_decoder+0x164>
   152f8: 81 4a        	c.li	s5, 0x0
   152fa: 13 0a f0 06  	addi	s4, zero, 0x6f
   152fe: 13 95 3a 00  	slli	a0, s5, 0x3
   15302: 62 95        	c.add	a0, s8
   15304: 03 35 85 1a  	ld	a0, 0x1a8(a0)
   15308: 03 2b 45 00  	lw	s6, 0x4(a0)
   1530c: 03 34 8c 0b  	ld	s0, 0xb8(s8)
   15310: 93 1c 8b 00  	slli	s9, s6, 0x8
   15314: 63 87 09 02  	beq	s3, zero, 0x15342 <start_pass_phuff_decoder+0xdc>
   15318: 33 05 94 01  	add	a0, s0, s9
   1531c: 08 41        	c.lw	a0, 0x0(a0)
   1531e: 63 52 05 02  	bge	a0, zero, 0x15342 <start_pass_phuff_decoder+0xdc>
   15322: 03 35 0c 00  	ld	a0, 0x0(s8)
   15326: 23 26 65 03  	sw	s6, 0x2c(a0)
   1532a: 83 35 0c 00  	ld	a1, 0x0(s8)
   1532e: 23 24 45 03  	sw	s4, 0x28(a0)
   15332: 23 a8 05 02  	sw	zero, 0x30(a1)
   15336: 03 35 0c 00  	ld	a0, 0x0(s8)
   1533a: 10 65        	c.ld	a2, 0x8(a0)
   1533c: fd 55        	c.li	a1, -0x1
   1533e: 62 85        	c.mv	a0, s8
   15340: 02 96        	c.jalr	a2
   15342: 83 2b cc 1f  	lw	s7, 0x1fc(s8)
   15346: 03 25 0c 20  	lw	a0, 0x200(s8)
   1534a: 63 4d 75 05  	blt	a0, s7, 0x153a4 <start_pass_phuff_decoder+0x13e>
   1534e: 93 84 fb ff  	addi	s1, s7, -0x1
   15352: 13 95 2b 00  	slli	a0, s7, 0x2
   15356: 22 95        	c.add	a0, s0
   15358: 33 04 95 01  	add	s0, a0, s9
   1535c: 08 40        	c.lw	a0, 0x0(s0)
   1535e: 83 25 4c 20  	lw	a1, 0x204(s8)
   15362: 33 26 a0 00  	slt	a2, zero, a0
   15366: 33 06 c0 40  	sub	a2, zero, a2
   1536a: 71 8d        	c.and	a0, a2
   1536c: 63 82 a5 02  	beq	a1, a0, 0x15390 <start_pass_phuff_decoder+0x12a>
   15370: 03 35 0c 00  	ld	a0, 0x0(s8)
   15374: 23 26 65 03  	sw	s6, 0x2c(a0)
   15378: 83 35 0c 00  	ld	a1, 0x0(s8)
   1537c: 23 24 45 03  	sw	s4, 0x28(a0)
   15380: 23 a8 75 03  	sw	s7, 0x30(a1)
   15384: 03 35 0c 00  	ld	a0, 0x0(s8)
   15388: 10 65        	c.ld	a2, 0x8(a0)
   1538a: fd 55        	c.li	a1, -0x1
   1538c: 62 85        	c.mv	a0, s8
   1538e: 02 96        	c.jalr	a2
   15390: 03 25 8c 20  	lw	a0, 0x208(s8)
   15394: 08 c0        	c.sw	a0, 0x0(s0)
   15396: 03 25 0c 20  	lw	a0, 0x200(s8)
   1539a: 85 04        	c.addi	s1, 0x1
   1539c: 85 0b        	c.addi	s7, 0x1
   1539e: 11 04        	c.addi	s0, 0x4
   153a0: e3 ce a4 fa  	blt	s1, a0, 0x1535c <start_pass_phuff_decoder+0xf6>
   153a4: 03 25 0c 1a  	lw	a0, 0x1a0(s8)
   153a8: 85 0a        	c.addi	s5, 0x1
   153aa: e3 ca aa f4  	blt	s5, a0, 0x152fe <start_pass_phuff_decoder+0x98>
   153ae: 83 25 4c 20  	lw	a1, 0x204(s8)
   153b2: 63 8a 09 02  	beq	s3, zero, 0x153e6 <start_pass_phuff_decoder+0x180>
   153b6: 37 56 01 00  	lui	a2, 0x15
   153ba: 13 06 c6 67  	addi	a2, a2, 0x67c
   153be: b7 66 01 00  	lui	a3, 0x16
   153c2: 93 86 06 8e  	addi	a3, a3, -0x720
   153c6: 8d e9        	c.bnez	a1, 0x153f8 <start_pass_phuff_decoder+0x192>
   153c8: 0d a8        	c.j	0x153fa <start_pass_phuff_decoder+0x194>
   153ca: 03 25 4c 20  	lw	a0, 0x204(s8)
   153ce: 63 81 09 0e  	beq	s3, zero, 0x154b0 <start_pass_phuff_decoder+0x24a>
   153d2: b7 55 01 00  	lui	a1, 0x15
   153d6: 93 85 c5 67  	addi	a1, a1, 0x67c
   153da: 37 66 01 00  	lui	a2, 0x16
   153de: 13 06 06 8e  	addi	a2, a2, -0x720
   153e2: 65 e1        	c.bnez	a0, 0x154c2 <start_pass_phuff_decoder+0x25c>
   153e4: c5 a0        	c.j	0x154c4 <start_pass_phuff_decoder+0x25e>
   153e6: 37 56 01 00  	lui	a2, 0x15
   153ea: 13 06 06 4e  	addi	a2, a2, 0x4e0
   153ee: b7 66 01 00  	lui	a3, 0x16
   153f2: 93 86 46 82  	addi	a3, a3, -0x7dc
   153f6: 91 c1        	c.beqz	a1, 0x153fa <start_pass_phuff_decoder+0x194>
   153f8: 36 86        	c.mv	a2, a3
   153fa: 23 34 c9 00  	sd	a2, 0x8(s2)
   153fe: 63 55 a0 0c  	bge	zero, a0, 0x154c8 <start_pass_phuff_decoder+0x262>
   15402: 01 4a        	c.li	s4, 0x0
   15404: 93 0a 8c 1a  	addi	s5, s8, 0x1a8
   15408: 93 04 49 02  	addi	s1, s2, 0x24
   1540c: 0d 4b        	c.li	s6, 0x3
   1540e: 93 0b 10 03  	addi	s7, zero, 0x31
   15412: 03 b5 0a 00  	ld	a0, 0x0(s5)
   15416: 63 84 09 04  	beq	s3, zero, 0x1545e <start_pass_phuff_decoder+0x1f8>
   1541a: 00 4d        	c.lw	s0, 0x18(a0)
   1541c: 63 68 8b 00  	bltu	s6, s0, 0x1542c <start_pass_phuff_decoder+0x1c6>
   15420: 13 15 34 00  	slli	a0, s0, 0x3
   15424: 62 95        	c.add	a0, s8
   15426: 03 35 05 10  	ld	a0, 0x100(a0)
   1542a: 19 e9        	c.bnez	a0, 0x15440 <start_pass_phuff_decoder+0x1da>
   1542c: 03 35 0c 00  	ld	a0, 0x0(s8)
   15430: 40 d5        	c.sw	s0, 0x2c(a0)
   15432: 83 35 0c 00  	ld	a1, 0x0(s8)
   15436: 8c 61        	c.ld	a1, 0x0(a1)
   15438: 23 24 75 03  	sw	s7, 0x28(a0)
   1543c: 62 85        	c.mv	a0, s8
   1543e: 82 95        	c.jalr	a1
   15440: 0e 04        	c.slli	s0, 0x3
   15442: 33 05 8c 00  	add	a0, s8, s0
   15446: 83 35 05 10  	ld	a1, 0x100(a0)
   1544a: 4a 94        	c.add	s0, s2
   1544c: 13 06 84 03  	addi	a2, s0, 0x38
   15450: 62 85        	c.mv	a0, s8
   15452: ef f0 6f db  	jal	ra, 0x14a08 <jpeg_make_d_derived_tbl>
   15456: 08 7c        	c.ld	a0, 0x38(s0)
   15458: 23 3c a9 04  	sd	a0, 0x58(s2)
   1545c: 81 a0        	c.j	0x1549c <start_pass_phuff_decoder+0x236>
   1545e: 83 25 4c 20  	lw	a1, 0x204(s8)
   15462: 8d ed        	c.bnez	a1, 0x1549c <start_pass_phuff_decoder+0x236>
   15464: 40 49        	c.lw	s0, 0x14(a0)
   15466: 63 67 8b 00  	bltu	s6, s0, 0x15474 <start_pass_phuff_decoder+0x20e>
   1546a: 13 15 34 00  	slli	a0, s0, 0x3
   1546e: 62 95        	c.add	a0, s8
   15470: 68 71        	c.ld	a0, 0xe0(a0)
   15472: 19 e9        	c.bnez	a0, 0x15488 <start_pass_phuff_decoder+0x222>
   15474: 03 35 0c 00  	ld	a0, 0x0(s8)
   15478: 40 d5        	c.sw	s0, 0x2c(a0)
   1547a: 83 35 0c 00  	ld	a1, 0x0(s8)
   1547e: 8c 61        	c.ld	a1, 0x0(a1)
   15480: 23 24 75 03  	sw	s7, 0x28(a0)
   15484: 62 85        	c.mv	a0, s8
   15486: 82 95        	c.jalr	a1
   15488: 0e 04        	c.slli	s0, 0x3
   1548a: 33 05 8c 00  	add	a0, s8, s0
   1548e: 6c 71        	c.ld	a1, 0xe0(a0)
   15490: 4a 94        	c.add	s0, s2
   15492: 13 06 84 03  	addi	a2, s0, 0x38
   15496: 62 85        	c.mv	a0, s8
   15498: ef f0 0f d7  	jal	ra, 0x14a08 <jpeg_make_d_derived_tbl>
   1549c: 23 a0 04 00  	sw	zero, 0x0(s1)
   154a0: 03 25 0c 1a  	lw	a0, 0x1a0(s8)
   154a4: 05 0a        	c.addi	s4, 0x1
   154a6: a1 0a        	c.addi	s5, 0x8
   154a8: 91 04        	c.addi	s1, 0x4
   154aa: e3 44 aa f6  	blt	s4, a0, 0x15412 <start_pass_phuff_decoder+0x1ac>
   154ae: 29 a8        	c.j	0x154c8 <start_pass_phuff_decoder+0x262>
   154b0: b7 55 01 00  	lui	a1, 0x15
   154b4: 93 85 05 4e  	addi	a1, a1, 0x4e0
   154b8: 37 66 01 00  	lui	a2, 0x16
   154bc: 13 06 46 82  	addi	a2, a2, -0x7dc
   154c0: 11 c1        	c.beqz	a0, 0x154c4 <start_pass_phuff_decoder+0x25e>
   154c2: b2 85        	c.mv	a1, a2
   154c4: 23 34 b9 00  	sd	a1, 0x8(s2)
   154c8: 23 20 09 02  	sw	zero, 0x20(s2)
   154cc: 23 3c 09 00  	sd	zero, 0x18(s2)
   154d0: 23 38 09 00  	sd	zero, 0x10(s2)
   154d4: 03 25 8c 16  	lw	a0, 0x168(s8)
   154d8: 23 2a a9 02  	sw	a0, 0x34(s2)
   154dc: 6f a0 c1 58  	jal	zero, 0x2fa68 <__riscv_restore_11>

00000000000154e0 <decode_mcu_DC_first>:
   154e0: ef a2 a1 53  	jal	t0, 0x2fa1a <__riscv_save_12>
   154e4: 1d 71        	c.addi16sp	sp, -0x60
   154e6: 2a 89        	c.mv	s2, a0
   154e8: 83 39 05 24  	ld	s3, 0x240(a0)
   154ec: 03 25 85 16  	lw	a0, 0x168(a0)
   154f0: 03 2a 89 20  	lw	s4, 0x208(s2)
   154f4: ae 8a        	c.mv	s5, a1
   154f6: 09 c9        	c.beqz	a0, 0x15508 <decode_mcu_DC_first+0x28>
   154f8: 03 a5 49 03  	lw	a0, 0x34(s3)
   154fc: 11 e5        	c.bnez	a0, 0x15508 <decode_mcu_DC_first+0x28>
   154fe: 4a 85        	c.mv	a0, s2
   15500: ef 00 e0 6b  	jal	ra, 0x15bbe <process_restart>
   15504: 63 07 05 16  	beq	a0, zero, 0x15672 <decode_mcu_DC_first+0x192>
   15508: 83 36 09 02  	ld	a3, 0x20(s2)
   1550c: 98 62        	c.ld	a4, 0x0(a3)
   1550e: ca e8        	c.sdsp	s2, 0x50(sp)
   15510: 3a f4        	c.sdsp	a4, 0x28(sp)
   15512: 9c 66        	c.ld	a5, 0x8(a3)
   15514: 13 85 c9 01  	addi	a0, s3, 0x1c
   15518: aa ec        	c.sdsp	a0, 0x58(sp)
   1551a: 03 a5 09 03  	lw	a0, 0x30(s3)
   1551e: 83 e5 49 02  	lwu	a1, 0x24(s3)
   15522: 03 e6 09 02  	lwu	a2, 0x20(s3)
   15526: 83 24 c9 20  	lw	s1, 0x20c(s2)
   1552a: 2a d0        	c.swsp	a0, 0x20(sp)
   1552c: 82 15        	c.slli	a1, 0x20
   1552e: 4d 8e        	c.or	a2, a1
   15530: 03 e5 c9 02  	lwu	a0, 0x2c(s3)
   15534: 03 e4 89 02  	lwu	s0, 0x28(s3)
   15538: 83 b5 09 01  	ld	a1, 0x10(s3)
   1553c: 32 e8        	c.sdsp	a2, 0x10(sp)
   1553e: 02 15        	c.slli	a0, 0x20
   15540: 41 8d        	c.or	a0, s0
   15542: 03 24 09 1d  	lw	s0, 0x1d0(s2)
   15546: 03 a6 89 01  	lw	a2, 0x18(s3)
   1554a: 3e f8        	c.sdsp	a5, 0x30(sp)
   1554c: 26 dc        	c.swsp	s1, 0x38(sp)
   1554e: 2a ec        	c.sdsp	a0, 0x18(sp)
   15550: 63 5d 80 0e  	bge	zero, s0, 0x1564a <decode_mcu_DC_first+0x16a>
   15554: 01 4b        	c.li	s6, 0x0
   15556: 93 04 49 1d  	addi	s1, s2, 0x1d4
   1555a: 9d 4b        	c.li	s7, 0x7
   1555c: 93 0c 01 01  	addi	s9, sp, 0x10
   15560: 37 25 03 00  	lui	a0, 0x32
   15564: 93 0d 45 af  	addi	s11, a0, -0x50c
   15568: 37 25 03 00  	lui	a0, 0x32
   1556c: 13 05 45 b3  	addi	a0, a0, -0x4cc
   15570: 2a e4        	c.sdsp	a0, 0x8(sp)
   15572: 03 ac 04 00  	lw	s8, 0x0(s1)
   15576: 13 15 3c 00  	slli	a0, s8, 0x3
   1557a: 4a 95        	c.add	a0, s2
   1557c: 03 35 85 1a  	ld	a0, 0x1a8(a0)
   15580: 48 49        	c.lw	a0, 0x14(a0)
   15582: 03 bd 0a 00  	ld	s10, 0x0(s5)
   15586: 0e 05        	c.slli	a0, 0x3
   15588: 4e 95        	c.add	a0, s3
   1558a: 00 7d        	c.ld	s0, 0x38(a0)
   1558c: 63 cd cb 00  	blt	s7, a2, 0x155a6 <decode_mcu_DC_first+0xc6>
   15590: 28 10        	c.addi4spn	a0, sp, 0x28
   15592: 81 46        	c.li	a3, 0x0
   15594: ef f0 2f e1  	jal	ra, 0x14ba6 <jpeg_fill_bit_buffer>
   15598: 69 cd        	c.beqz	a0, 0x15672 <decode_mcu_DC_first+0x192>
   1559a: 26 46        	c.lwsp	a2, 0x48(sp)
   1559c: 86 65        	c.ldsp	a1, 0x40(sp)
   1559e: 05 47        	c.li	a4, 0x1
   155a0: 21 45        	c.li	a0, 0x8
   155a2: 63 46 a6 02  	blt	a2, a0, 0x155ce <decode_mcu_DC_first+0xee>
   155a6: 13 05 86 ff  	addi	a0, a2, -0x8
   155aa: 33 d5 a5 40  	sra	a0, a1, a0
   155ae: 13 75 f5 0f  	andi	a0, a0, 0xff
   155b2: 93 16 25 00  	slli	a3, a0, 0x2
   155b6: a2 96        	c.add	a3, s0
   155b8: 83 a6 86 16  	lw	a3, 0x168(a3)
   155bc: 81 ca        	c.beqz	a3, 0x155cc <decode_mcu_DC_first+0xec>
   155be: 22 95        	c.add	a0, s0
   155c0: 03 44 85 56  	lbu	s0, 0x568(a0)
   155c4: 15 9e        	c.subw	a2, a3
   155c6: 11 ec        	c.bnez	s0, 0x155e2 <decode_mcu_DC_first+0x102>
   155c8: 01 45        	c.li	a0, 0x0
   155ca: 89 a8        	c.j	0x1561c <decode_mcu_DC_first+0x13c>
   155cc: 25 47        	c.li	a4, 0x9
   155ce: 28 10        	c.addi4spn	a0, sp, 0x28
   155d0: a2 86        	c.mv	a3, s0
   155d2: ef f0 6f ea  	jal	ra, 0x14c78 <jpeg_huff_decode>
   155d6: 63 41 05 0a  	blt	a0, zero, 0x15678 <decode_mcu_DC_first+0x198>
   155da: 2a 84        	c.mv	s0, a0
   155dc: 86 65        	c.ldsp	a1, 0x40(sp)
   155de: 26 46        	c.lwsp	a2, 0x48(sp)
   155e0: 65 d5        	c.beqz	a0, 0x155c8 <decode_mcu_DC_first+0xe8>
   155e2: 63 59 86 00  	bge	a2, s0, 0x155f4 <decode_mcu_DC_first+0x114>
   155e6: 28 10        	c.addi4spn	a0, sp, 0x28
   155e8: a2 86        	c.mv	a3, s0
   155ea: ef f0 cf db  	jal	ra, 0x14ba6 <jpeg_fill_bit_buffer>
   155ee: 51 c1        	c.beqz	a0, 0x15672 <decode_mcu_DC_first+0x192>
   155f0: 86 65        	c.ldsp	a1, 0x40(sp)
   155f2: 26 46        	c.lwsp	a2, 0x48(sp)
   155f4: 01 9e        	c.subw	a2, s0
   155f6: 33 d5 c5 40  	sra	a0, a1, a2
   155fa: 93 16 24 00  	slli	a3, s0, 0x2
   155fe: 33 87 dd 00  	add	a4, s11, a3
   15602: 18 43        	c.lw	a4, 0x0(a4)
   15604: fd 57        	c.li	a5, -0x1
   15606: bb 97 87 00  	sllw	a5, a5, s0
   1560a: 93 c7 f7 ff  	xori	a5, a5, -0x1
   1560e: 7d 8d        	c.and	a0, a5
   15610: 63 56 e5 00  	bge	a0, a4, 0x1561c <decode_mcu_DC_first+0x13c>
   15614: 22 67        	c.ldsp	a4, 0x8(sp)
   15616: ba 96        	c.add	a3, a4
   15618: 94 42        	c.lw	a3, 0x0(a3)
   1561a: 36 95        	c.add	a0, a3
   1561c: 0a 0c        	c.slli	s8, 0x2
   1561e: 66 9c        	c.add	s8, s9
   15620: 83 26 4c 00  	lw	a3, 0x4(s8)
   15624: 36 95        	c.add	a0, a3
   15626: 23 22 ac 00  	sw	a0, 0x4(s8)
   1562a: 3b 15 45 01  	sllw	a0, a0, s4
   1562e: 83 26 09 1d  	lw	a3, 0x1d0(s2)
   15632: 23 10 ad 00  	sh	a0, 0x0(s10)
   15636: 05 0b        	c.addi	s6, 0x1
   15638: a1 0a        	c.addi	s5, 0x8
   1563a: 91 04        	c.addi	s1, 0x4
   1563c: e3 4b db f2  	blt	s6, a3, 0x15572 <decode_mcu_DC_first+0x92>
   15640: 22 77        	c.ldsp	a4, 0x28(sp)
   15642: 83 36 09 02  	ld	a3, 0x20(s2)
   15646: c2 77        	c.ldsp	a5, 0x30(sp)
   15648: e2 54        	c.lwsp	s1, 0x38(sp)
   1564a: 13 85 09 02  	addi	a0, s3, 0x20
   1564e: 98 e2        	c.sd	a4, 0x0(a3)
   15650: 9c e6        	c.sd	a5, 0x8(a3)
   15652: 23 26 99 20  	sw	s1, 0x20c(s2)
   15656: 23 b8 b9 00  	sd	a1, 0x10(s3)
   1565a: 23 ac c9 00  	sw	a2, 0x18(s3)
   1565e: 0c 08        	c.addi4spn	a1, sp, 0x10
   15660: 51 46        	c.li	a2, 0x14
   15662: ef 80 40 2e  	jal	ra, 0x1d946 <memcpy>
   15666: 03 a5 49 03  	lw	a0, 0x34(s3)
   1566a: 7d 15        	c.addi	a0, -0x1
   1566c: 23 aa a9 02  	sw	a0, 0x34(s3)
   15670: 05 45        	c.li	a0, 0x1
   15672: 25 61        	c.addi16sp	sp, 0x60
   15674: 6f a0 01 3f  	jal	zero, 0x2fa64 <__riscv_restore_12>
   15678: 01 45        	c.li	a0, 0x0
   1567a: e5 bf        	c.j	0x15672 <decode_mcu_DC_first+0x192>

000000000001567c <decode_mcu_AC_first>:
   1567c: ef a2 e1 39  	jal	t0, 0x2fa1a <__riscv_save_12>
   15680: 39 71        	c.addi16sp	sp, -0x40
   15682: aa 89        	c.mv	s3, a0
   15684: 03 3a 05 24  	ld	s4, 0x240(a0)
   15688: 83 2a 05 20  	lw	s5, 0x200(a0)
   1568c: 03 25 85 16  	lw	a0, 0x168(a0)
   15690: 03 ab 89 20  	lw	s6, 0x208(s3)
   15694: ae 84        	c.mv	s1, a1
   15696: 09 c9        	c.beqz	a0, 0x156a8 <decode_mcu_AC_first+0x2c>
   15698: 03 25 4a 03  	lw	a0, 0x34(s4)
   1569c: 11 e5        	c.bnez	a0, 0x156a8 <decode_mcu_AC_first+0x2c>
   1569e: 4e 85        	c.mv	a0, s3
   156a0: ef 00 e0 51  	jal	ra, 0x15bbe <process_restart>
   156a4: 63 03 05 14  	beq	a0, zero, 0x157ea <decode_mcu_AC_first+0x16e>
   156a8: 03 24 0a 02  	lw	s0, 0x20(s4)
   156ac: 19 c0        	c.beqz	s0, 0x156b2 <decode_mcu_AC_first+0x36>
   156ae: 7d 14        	c.addi	s0, -0x1
   156b0: 2d a2        	c.j	0x157da <decode_mcu_AC_first+0x15e>
   156b2: 03 b5 09 02  	ld	a0, 0x20(s3)
   156b6: 0c 61        	c.ld	a1, 0x0(a0)
   156b8: 08 65        	c.ld	a0, 0x8(a0)
   156ba: 03 a6 c9 20  	lw	a2, 0x20c(s3)
   156be: 2e e4        	c.sdsp	a1, 0x8(sp)
   156c0: 2a e8        	c.sdsp	a0, 0x10(sp)
   156c2: 32 cc        	c.swsp	a2, 0x18(sp)
   156c4: 83 35 0a 01  	ld	a1, 0x10(s4)
   156c8: 83 ac c9 1f  	lw	s9, 0x1fc(s3)
   156cc: 03 26 8a 01  	lw	a2, 0x18(s4)
   156d0: 13 05 ca 01  	addi	a0, s4, 0x1c
   156d4: 2a fc        	c.sdsp	a0, 0x38(sp)
   156d6: 4e f8        	c.sdsp	s3, 0x30(sp)
   156d8: 63 c3 9a 0f  	blt	s5, s9, 0x157be <decode_mcu_AC_first+0x142>
   156dc: 83 bb 04 00  	ld	s7, 0x0(s1)
   156e0: 03 39 8a 05  	ld	s2, 0x58(s4)
   156e4: 1d 4c        	c.li	s8, 0x7
   156e6: 37 25 03 00  	lui	a0, 0x32
   156ea: 13 0d 45 af  	addi	s10, a0, -0x50c
   156ee: 37 25 03 00  	lui	a0, 0x32
   156f2: 13 05 45 b3  	addi	a0, a0, -0x4cc
   156f6: 2a e0        	c.sdsp	a0, 0x0(sp)
   156f8: 37 25 03 00  	lui	a0, 0x32
   156fc: 93 0d c5 d5  	addi	s11, a0, -0x2a4
   15700: 63 4d cc 00  	blt	s8, a2, 0x1571a <decode_mcu_AC_first+0x9e>
   15704: 28 00        	c.addi4spn	a0, sp, 0x8
   15706: 81 46        	c.li	a3, 0x0
   15708: ef f0 ef c9  	jal	ra, 0x14ba6 <jpeg_fill_bit_buffer>
   1570c: 79 cd        	c.beqz	a0, 0x157ea <decode_mcu_AC_first+0x16e>
   1570e: 22 56        	c.lwsp	a2, 0x28(sp)
   15710: 82 75        	c.ldsp	a1, 0x20(sp)
   15712: 05 47        	c.li	a4, 0x1
   15714: 21 45        	c.li	a0, 0x8
   15716: 63 44 a6 02  	blt	a2, a0, 0x1573e <decode_mcu_AC_first+0xc2>
   1571a: 13 05 86 ff  	addi	a0, a2, -0x8
   1571e: 33 d5 a5 40  	sra	a0, a1, a0
   15722: 13 75 f5 0f  	andi	a0, a0, 0xff
   15726: 93 16 25 00  	slli	a3, a0, 0x2
   1572a: ca 96        	c.add	a3, s2
   1572c: 83 a6 86 16  	lw	a3, 0x168(a3)
   15730: 91 c6        	c.beqz	a3, 0x1573c <decode_mcu_AC_first+0xc0>
   15732: 4a 95        	c.add	a0, s2
   15734: 03 45 85 56  	lbu	a0, 0x568(a0)
   15738: 15 9e        	c.subw	a2, a3
   1573a: 11 a8        	c.j	0x1574e <decode_mcu_AC_first+0xd2>
   1573c: 25 47        	c.li	a4, 0x9
   1573e: 28 00        	c.addi4spn	a0, sp, 0x8
   15740: ca 86        	c.mv	a3, s2
   15742: ef f0 6f d3  	jal	ra, 0x14c78 <jpeg_huff_decode>
   15746: 63 45 05 0a  	blt	a0, zero, 0x157f0 <decode_mcu_AC_first+0x174>
   1574a: 82 75        	c.ldsp	a1, 0x20(sp)
   1574c: 22 56        	c.lwsp	a2, 0x28(sp)
   1574e: 13 74 f5 00  	andi	s0, a0, 0xf
   15752: 9b 54 45 00  	srliw	s1, a0, 0x4
   15756: 39 c8        	c.beqz	s0, 0x157ac <decode_mcu_AC_first+0x130>
   15758: 63 59 86 00  	bge	a2, s0, 0x1576a <decode_mcu_AC_first+0xee>
   1575c: 28 00        	c.addi4spn	a0, sp, 0x8
   1575e: a2 86        	c.mv	a3, s0
   15760: ef f0 6f c4  	jal	ra, 0x14ba6 <jpeg_fill_bit_buffer>
   15764: 59 c1        	c.beqz	a0, 0x157ea <decode_mcu_AC_first+0x16e>
   15766: 82 75        	c.ldsp	a1, 0x20(sp)
   15768: 22 56        	c.lwsp	a2, 0x28(sp)
   1576a: 01 9e        	c.subw	a2, s0
   1576c: b3 d6 c5 40  	sra	a3, a1, a2
   15770: 13 15 24 00  	slli	a0, s0, 0x2
   15774: 33 07 ad 00  	add	a4, s10, a0
   15778: 18 43        	c.lw	a4, 0x0(a4)
   1577a: fd 57        	c.li	a5, -0x1
   1577c: bb 97 87 00  	sllw	a5, a5, s0
   15780: 93 c7 f7 ff  	xori	a5, a5, -0x1
   15784: fd 8e        	c.and	a3, a5
   15786: 63 d6 e6 00  	bge	a3, a4, 0x15792 <decode_mcu_AC_first+0x116>
   1578a: 02 67        	c.ldsp	a4, 0x0(sp)
   1578c: 3a 95        	c.add	a0, a4
   1578e: 08 41        	c.lw	a0, 0x0(a0)
   15790: aa 96        	c.add	a3, a0
   15792: 3b 85 94 01  	addw	a0, s1, s9
   15796: 13 17 25 00  	slli	a4, a0, 0x2
   1579a: 6e 97        	c.add	a4, s11
   1579c: 18 43        	c.lw	a4, 0x0(a4)
   1579e: bb 96 66 01  	sllw	a3, a3, s6
   157a2: 06 07        	c.slli	a4, 0x1
   157a4: 5e 97        	c.add	a4, s7
   157a6: 23 10 d7 00  	sh	a3, 0x0(a4)
   157aa: 31 a0        	c.j	0x157b6 <decode_mcu_AC_first+0x13a>
   157ac: bd 46        	c.li	a3, 0xf
   157ae: 63 93 d4 04  	bne	s1, a3, 0x157f4 <decode_mcu_AC_first+0x178>
   157b2: 1b 85 fc 00  	addiw	a0, s9, 0xf
   157b6: 93 0c 15 00  	addi	s9, a0, 0x1
   157ba: e3 43 55 f5  	blt	a0, s5, 0x15700 <decode_mcu_AC_first+0x84>
   157be: 01 44        	c.li	s0, 0x0
   157c0: 22 65        	c.ldsp	a0, 0x8(sp)
   157c2: 83 b6 09 02  	ld	a3, 0x20(s3)
   157c6: 42 67        	c.ldsp	a4, 0x10(sp)
   157c8: e2 47        	c.lwsp	a5, 0x18(sp)
   157ca: 88 e2        	c.sd	a0, 0x0(a3)
   157cc: 98 e6        	c.sd	a4, 0x8(a3)
   157ce: 23 a6 f9 20  	sw	a5, 0x20c(s3)
   157d2: 23 38 ba 00  	sd	a1, 0x10(s4)
   157d6: 23 2c ca 00  	sw	a2, 0x18(s4)
   157da: 03 25 4a 03  	lw	a0, 0x34(s4)
   157de: 23 20 8a 02  	sw	s0, 0x20(s4)
   157e2: 7d 15        	c.addi	a0, -0x1
   157e4: 23 2a aa 02  	sw	a0, 0x34(s4)
   157e8: 05 45        	c.li	a0, 0x1
   157ea: 21 61        	c.addi16sp	sp, 0x40
   157ec: 6f a0 81 27  	jal	zero, 0x2fa64 <__riscv_restore_12>
   157f0: 01 45        	c.li	a0, 0x0
   157f2: e5 bf        	c.j	0x157ea <decode_mcu_AC_first+0x16e>
   157f4: 85 46        	c.li	a3, 0x1
   157f6: 41 47        	c.li	a4, 0x10
   157f8: 3b 94 96 00  	sllw	s0, a3, s1
   157fc: 63 62 e5 02  	bltu	a0, a4, 0x15820 <decode_mcu_AC_first+0x1a4>
   15800: 63 59 96 00  	bge	a2, s1, 0x15812 <decode_mcu_AC_first+0x196>
   15804: 28 00        	c.addi4spn	a0, sp, 0x8
   15806: a6 86        	c.mv	a3, s1
   15808: ef f0 ef b9  	jal	ra, 0x14ba6 <jpeg_fill_bit_buffer>
   1580c: 79 dd        	c.beqz	a0, 0x157ea <decode_mcu_AC_first+0x16e>
   1580e: 82 75        	c.ldsp	a1, 0x20(sp)
   15810: 22 56        	c.lwsp	a2, 0x28(sp)
   15812: 05 9e        	c.subw	a2, s1
   15814: 33 d5 c5 40  	sra	a0, a1, a2
   15818: 93 06 f4 ff  	addi	a3, s0, -0x1
   1581c: 75 8d        	c.and	a0, a3
   1581e: 2a 94        	c.add	s0, a0
   15820: 7d 14        	c.addi	s0, -0x1
   15822: 79 bf        	c.j	0x157c0 <decode_mcu_AC_first+0x144>

0000000000015824 <decode_mcu_DC_refine>:
   15824: ef a2 21 21  	jal	t0, 0x2fa36 <__riscv_save_7>
   15828: 39 71        	c.addi16sp	sp, -0x40
   1582a: aa 89        	c.mv	s3, a0
   1582c: 03 39 05 24  	ld	s2, 0x240(a0)
   15830: 03 25 85 16  	lw	a0, 0x168(a0)
   15834: 03 ea 89 20  	lwu	s4, 0x208(s3)
   15838: ae 84        	c.mv	s1, a1
   1583a: 01 c9        	c.beqz	a0, 0x1584a <decode_mcu_DC_refine+0x26>
   1583c: 03 25 49 03  	lw	a0, 0x34(s2)
   15840: 09 e5        	c.bnez	a0, 0x1584a <decode_mcu_DC_refine+0x26>
   15842: 4e 85        	c.mv	a0, s3
   15844: ef 00 a0 37  	jal	ra, 0x15bbe <process_restart>
   15848: 49 c9        	c.beqz	a0, 0x158da <decode_mcu_DC_refine+0xb6>
   1584a: 03 b5 09 02  	ld	a0, 0x20(s3)
   1584e: 4e f8        	c.sdsp	s3, 0x30(sp)
   15850: 14 61        	c.ld	a3, 0x0(a0)
   15852: 1c 65        	c.ld	a5, 0x8(a0)
   15854: 03 a7 c9 20  	lw	a4, 0x20c(s3)
   15858: 83 35 09 01  	ld	a1, 0x10(s2)
   1585c: 13 06 c9 01  	addi	a2, s2, 0x1c
   15860: 32 fc        	c.sdsp	a2, 0x38(sp)
   15862: 03 a4 09 1d  	lw	s0, 0x1d0(s3)
   15866: 03 26 89 01  	lw	a2, 0x18(s2)
   1586a: 36 e4        	c.sdsp	a3, 0x8(sp)
   1586c: 3e e8        	c.sdsp	a5, 0x10(sp)
   1586e: 3a cc        	c.swsp	a4, 0x18(sp)
   15870: 63 57 80 04  	bge	zero, s0, 0x158be <decode_mcu_DC_refine+0x9a>
   15874: 01 44        	c.li	s0, 0x0
   15876: 05 45        	c.li	a0, 0x1
   15878: 3b 1a 45 01  	sllw	s4, a0, s4
   1587c: 83 ba 04 00  	ld	s5, 0x0(s1)
   15880: 63 49 c0 00  	blt	zero, a2, 0x15892 <decode_mcu_DC_refine+0x6e>
   15884: 28 00        	c.addi4spn	a0, sp, 0x8
   15886: 85 46        	c.li	a3, 0x1
   15888: ef f0 ef b1  	jal	ra, 0x14ba6 <jpeg_fill_bit_buffer>
   1588c: 39 c5        	c.beqz	a0, 0x158da <decode_mcu_DC_refine+0xb6>
   1588e: 82 75        	c.ldsp	a1, 0x20(sp)
   15890: 22 56        	c.lwsp	a2, 0x28(sp)
   15892: 7d 36        	c.addiw	a2, -0x1
   15894: 33 d5 c5 00  	srl	a0, a1, a2
   15898: 05 89        	c.andi	a0, 0x1
   1589a: 19 c5        	c.beqz	a0, 0x158a8 <decode_mcu_DC_refine+0x84>
   1589c: 03 95 0a 00  	lh	a0, 0x0(s5)
   158a0: 33 65 45 01  	or	a0, a0, s4
   158a4: 23 90 aa 00  	sh	a0, 0x0(s5)
   158a8: 03 a5 09 1d  	lw	a0, 0x1d0(s3)
   158ac: 05 04        	c.addi	s0, 0x1
   158ae: a1 04        	c.addi	s1, 0x8
   158b0: e3 46 a4 fc  	blt	s0, a0, 0x1587c <decode_mcu_DC_refine+0x58>
   158b4: a2 66        	c.ldsp	a3, 0x8(sp)
   158b6: 03 b5 09 02  	ld	a0, 0x20(s3)
   158ba: c2 67        	c.ldsp	a5, 0x10(sp)
   158bc: 62 47        	c.lwsp	a4, 0x18(sp)
   158be: 14 e1        	c.sd	a3, 0x0(a0)
   158c0: 1c e5        	c.sd	a5, 0x8(a0)
   158c2: 03 25 49 03  	lw	a0, 0x34(s2)
   158c6: 23 a6 e9 20  	sw	a4, 0x20c(s3)
   158ca: 23 38 b9 00  	sd	a1, 0x10(s2)
   158ce: 23 2c c9 00  	sw	a2, 0x18(s2)
   158d2: 7d 15        	c.addi	a0, -0x1
   158d4: 23 2a a9 02  	sw	a0, 0x34(s2)
   158d8: 05 45        	c.li	a0, 0x1
   158da: 21 61        	c.addi16sp	sp, 0x40
   158dc: 6f a0 81 19  	jal	zero, 0x2fa74 <__riscv_restore_7>

00000000000158e0 <decode_mcu_AC_refine>:
   158e0: ef a2 a1 13  	jal	t0, 0x2fa1a <__riscv_save_12>
   158e4: 49 71        	c.addi16sp	sp, -0x170
   158e6: 03 34 05 24  	ld	s0, 0x240(a0)
   158ea: 03 2b 05 20  	lw	s6, 0x200(a0)
   158ee: 03 26 85 16  	lw	a2, 0x168(a0)
   158f2: 2a ec        	c.sdsp	a0, 0x18(sp)
   158f4: 83 64 85 20  	lwu	s1, 0x208(a0)
   158f8: ae 8a        	c.mv	s5, a1
   158fa: 01 ca        	c.beqz	a2, 0x1590a <decode_mcu_AC_refine+0x2a>
   158fc: 48 58        	c.lw	a0, 0x34(s0)
   158fe: 11 e5        	c.bnez	a0, 0x1590a <decode_mcu_AC_refine+0x2a>
   15900: 62 65        	c.ldsp	a0, 0x18(sp)
   15902: ef 00 c0 2b  	jal	ra, 0x15bbe <process_restart>
   15906: 63 09 05 2a  	beq	a0, zero, 0x15bb8 <decode_mcu_AC_refine+0x2d8>
   1590a: 02 f4        	c.sdsp	zero, 0x28(sp)
   1590c: 62 67        	c.ldsp	a4, 0x18(sp)
   1590e: 08 73        	c.ld	a0, 0x20(a4)
   15910: 85 45        	c.li	a1, 0x1
   15912: 3b 9c 95 00  	sllw	s8, a1, s1
   15916: fd 55        	c.li	a1, -0x1
   15918: 10 61        	c.ld	a2, 0x0(a0)
   1591a: 08 65        	c.ld	a0, 0x8(a0)
   1591c: 83 26 c7 20  	lw	a3, 0x20c(a4)
   15920: bb 95 95 00  	sllw	a1, a1, s1
   15924: 2e f8        	c.sdsp	a1, 0x30(sp)
   15926: 32 fe        	c.sdsp	a2, 0x138(sp)
   15928: aa e2        	c.sdsp	a0, 0x140(sp)
   1592a: 23 24 d1 14  	sw	a3, 0x148(sp)
   1592e: 03 3a 04 01  	ld	s4, 0x10(s0)
   15932: 04 4c        	c.lw	s1, 0x18(s0)
   15934: 22 85        	c.mv	a0, s0
   15936: 83 29 04 02  	lw	s3, 0x20(s0)
   1593a: 83 bb 0a 00  	ld	s7, 0x0(s5)
   1593e: 03 24 c7 1f  	lw	s0, 0x1fc(a4)
   15942: 2a e4        	c.sdsp	a0, 0x8(sp)
   15944: 71 05        	c.addi	a0, 0x1c
   15946: aa f6        	c.sdsp	a0, 0x168(sp)
   15948: ba f2        	c.sdsp	a4, 0x160(sp)
   1594a: 63 9c 09 1a  	bne	s3, zero, 0x15b02 <decode_mcu_AC_refine+0x222>
   1594e: 63 4a 8b 1a  	blt	s6, s0, 0x15b02 <decode_mcu_AC_refine+0x222>
   15952: 02 f4        	c.sdsp	zero, 0x28(sp)
   15954: 22 65        	c.ldsp	a0, 0x8(sp)
   15956: 03 39 85 05  	ld	s2, 0x58(a0)
   1595a: 37 25 03 00  	lui	a0, 0x32
   1595e: 13 05 c5 d5  	addi	a0, a0, -0x2a4
   15962: 2a f0        	c.sdsp	a0, 0x20(sp)
   15964: 4a e8        	c.sdsp	s2, 0x10(sp)
   15966: 1d 45        	c.li	a0, 0x7
   15968: 63 41 95 02  	blt	a0, s1, 0x1598a <decode_mcu_AC_refine+0xaa>
   1596c: 28 1a        	c.addi4spn	a0, sp, 0x138
   1596e: d2 85        	c.mv	a1, s4
   15970: 26 86        	c.mv	a2, s1
   15972: 81 46        	c.li	a3, 0x0
   15974: ef f0 2f a3  	jal	ra, 0x14ba6 <jpeg_fill_bit_buffer>
   15978: 63 01 05 22  	beq	a0, zero, 0x15b9a <decode_mcu_AC_refine+0x2ba>
   1597c: 83 24 81 15  	lw	s1, 0x158(sp)
   15980: 56 6a        	c.ldsp	s4, 0x150(sp)
   15982: 05 47        	c.li	a4, 0x1
   15984: 21 45        	c.li	a0, 0x8
   15986: 63 c4 a4 02  	blt	s1, a0, 0x159ae <decode_mcu_AC_refine+0xce>
   1598a: 13 85 84 ff  	addi	a0, s1, -0x8
   1598e: 33 55 aa 40  	sra	a0, s4, a0
   15992: 13 75 f5 0f  	andi	a0, a0, 0xff
   15996: 93 15 25 00  	slli	a1, a0, 0x2
   1599a: ca 95        	c.add	a1, s2
   1599c: 83 a5 85 16  	lw	a1, 0x168(a1)
   159a0: 91 c5        	c.beqz	a1, 0x159ac <decode_mcu_AC_refine+0xcc>
   159a2: 4a 95        	c.add	a0, s2
   159a4: 03 45 85 56  	lbu	a0, 0x568(a0)
   159a8: 8d 9c        	c.subw	s1, a1
   159aa: 29 a8        	c.j	0x159c4 <decode_mcu_AC_refine+0xe4>
   159ac: 25 47        	c.li	a4, 0x9
   159ae: 28 1a        	c.addi4spn	a0, sp, 0x138
   159b0: d2 85        	c.mv	a1, s4
   159b2: 26 86        	c.mv	a2, s1
   159b4: ca 86        	c.mv	a3, s2
   159b6: ef f0 2f ac  	jal	ra, 0x14c78 <jpeg_huff_decode>
   159ba: 63 40 05 1e  	blt	a0, zero, 0x15b9a <decode_mcu_AC_refine+0x2ba>
   159be: 56 6a        	c.ldsp	s4, 0x150(sp)
   159c0: 83 24 81 15  	lw	s1, 0x158(sp)
   159c4: 93 75 f5 00  	andi	a1, a0, 0xf
   159c8: 9b 5d 45 00  	srliw	s11, a0, 0x4
   159cc: a9 c1        	c.beqz	a1, 0x15a0e <decode_mcu_AC_refine+0x12e>
   159ce: 05 45        	c.li	a0, 0x1
   159d0: 63 8a a5 00  	beq	a1, a0, 0x159e4 <decode_mcu_AC_refine+0x104>
   159d4: 62 65        	c.ldsp	a0, 0x18(sp)
   159d6: 0c 61        	c.ld	a1, 0x0(a0)
   159d8: 90 65        	c.ld	a2, 0x8(a1)
   159da: 93 06 20 07  	addi	a3, zero, 0x72
   159de: 94 d5        	c.sw	a3, 0x28(a1)
   159e0: fd 55        	c.li	a1, -0x1
   159e2: 02 96        	c.jalr	a2
   159e4: 63 4d 90 00  	blt	zero, s1, 0x159fe <decode_mcu_AC_refine+0x11e>
   159e8: 28 1a        	c.addi4spn	a0, sp, 0x138
   159ea: 85 46        	c.li	a3, 0x1
   159ec: d2 85        	c.mv	a1, s4
   159ee: 26 86        	c.mv	a2, s1
   159f0: ef f0 6f 9b  	jal	ra, 0x14ba6 <jpeg_fill_bit_buffer>
   159f4: 63 03 05 1a  	beq	a0, zero, 0x15b9a <decode_mcu_AC_refine+0x2ba>
   159f8: 56 6a        	c.ldsp	s4, 0x150(sp)
   159fa: 83 24 81 15  	lw	s1, 0x158(sp)
   159fe: fd 34        	c.addiw	s1, -0x1
   15a00: 33 55 9a 00  	srl	a0, s4, s1
   15a04: 05 89        	c.andi	a0, 0x1
   15a06: c2 7c        	c.ldsp	s9, 0x30(sp)
   15a08: 19 c5        	c.beqz	a0, 0x15a16 <decode_mcu_AC_refine+0x136>
   15a0a: e2 8c        	c.mv	s9, s8
   15a0c: 29 a0        	c.j	0x15a16 <decode_mcu_AC_refine+0x136>
   15a0e: bd 45        	c.li	a1, 0xf
   15a10: 63 9e bd 0a  	bne	s11, a1, 0x15acc <decode_mcu_AC_refine+0x1ec>
   15a14: 81 4c        	c.li	s9, 0x0
   15a16: 22 85        	c.mv	a0, s0
   15a18: 63 43 8b 00  	blt	s6, s0, 0x15a1e <decode_mcu_AC_refine+0x13e>
   15a1c: 5a 85        	c.mv	a0, s6
   15a1e: 5a 89        	c.mv	s2, s6
   15a20: 9b 09 15 00  	addiw	s3, a0, 0x1
   15a24: 01 8d        	c.sub	a0, s0
   15a26: 93 0a 15 00  	addi	s5, a0, 0x1
   15a2a: 13 1d 24 00  	slli	s10, s0, 0x2
   15a2e: 02 75        	c.ldsp	a0, 0x20(sp)
   15a30: 2a 9d        	c.add	s10, a0
   15a32: 03 25 0d 00  	lw	a0, 0x0(s10)
   15a36: 06 05        	c.slli	a0, 0x1
   15a38: 33 8b ab 00  	add	s6, s7, a0
   15a3c: 03 55 0b 00  	lhu	a0, 0x0(s6)
   15a40: 21 c1        	c.beqz	a0, 0x15a80 <decode_mcu_AC_refine+0x1a0>
   15a42: 63 4d 90 00  	blt	zero, s1, 0x15a5c <decode_mcu_AC_refine+0x17c>
   15a46: 28 1a        	c.addi4spn	a0, sp, 0x138
   15a48: 85 46        	c.li	a3, 0x1
   15a4a: d2 85        	c.mv	a1, s4
   15a4c: 26 86        	c.mv	a2, s1
   15a4e: ef f0 8f 95  	jal	ra, 0x14ba6 <jpeg_fill_bit_buffer>
   15a52: 63 04 05 14  	beq	a0, zero, 0x15b9a <decode_mcu_AC_refine+0x2ba>
   15a56: 56 6a        	c.ldsp	s4, 0x150(sp)
   15a58: 83 24 81 15  	lw	s1, 0x158(sp)
   15a5c: fd 34        	c.addiw	s1, -0x1
   15a5e: 33 55 9a 00  	srl	a0, s4, s1
   15a62: 05 89        	c.andi	a0, 0x1
   15a64: 0d c1        	c.beqz	a0, 0x15a86 <decode_mcu_AC_refine+0x1a6>
   15a66: 03 15 0b 00  	lh	a0, 0x0(s6)
   15a6a: b3 75 ac 00  	and	a1, s8, a0
   15a6e: 81 ed        	c.bnez	a1, 0x15a86 <decode_mcu_AC_refine+0x1a6>
   15a70: c2 75        	c.ldsp	a1, 0x30(sp)
   15a72: 63 43 05 00  	blt	a0, zero, 0x15a78 <decode_mcu_AC_refine+0x198>
   15a76: e2 85        	c.mv	a1, s8
   15a78: 2e 95        	c.add	a0, a1
   15a7a: 23 10 ab 00  	sh	a0, 0x0(s6)
   15a7e: 21 a0        	c.j	0x15a86 <decode_mcu_AC_refine+0x1a6>
   15a80: 63 59 b0 01  	bge	zero, s11, 0x15a92 <decode_mcu_AC_refine+0x1b2>
   15a84: fd 3d        	c.addiw	s11, -0x1
   15a86: 05 24        	c.addiw	s0, 0x1
   15a88: fd 1a        	c.addi	s5, -0x1
   15a8a: 11 0d        	c.addi	s10, 0x4
   15a8c: e3 93 0a fa  	bne	s5, zero, 0x15a32 <decode_mcu_AC_refine+0x152>
   15a90: 11 a0        	c.j	0x15a94 <decode_mcu_AC_refine+0x1b4>
   15a92: a2 89        	c.mv	s3, s0
   15a94: 4a 8b        	c.mv	s6, s2
   15a96: 63 84 0c 02  	beq	s9, zero, 0x15abe <decode_mcu_AC_refine+0x1de>
   15a9a: 13 95 29 00  	slli	a0, s3, 0x2
   15a9e: 82 75        	c.ldsp	a1, 0x20(sp)
   15aa0: 2e 95        	c.add	a0, a1
   15aa2: 08 41        	c.lw	a0, 0x0(a0)
   15aa4: 93 15 15 00  	slli	a1, a0, 0x1
   15aa8: de 95        	c.add	a1, s7
   15aaa: 23 90 95 01  	sh	s9, 0x0(a1)
   15aae: 22 76        	c.ldsp	a2, 0x28(sp)
   15ab0: 93 15 26 00  	slli	a1, a2, 0x2
   15ab4: 05 26        	c.addiw	a2, 0x1
   15ab6: 34 18        	c.addi4spn	a3, sp, 0x38
   15ab8: b6 95        	c.add	a1, a3
   15aba: 88 c1        	c.sw	a0, 0x0(a1)
   15abc: 32 f4        	c.sdsp	a2, 0x28(sp)
   15abe: 42 69        	c.ldsp	s2, 0x10(sp)
   15ac0: 1b 84 19 00  	addiw	s0, s3, 0x1
   15ac4: e3 c1 69 eb  	blt	s3, s6, 0x15966 <decode_mcu_AC_refine+0x86>
   15ac8: 81 49        	c.li	s3, 0x0
   15aca: 5d a0        	c.j	0x15b70 <decode_mcu_AC_refine+0x290>
   15acc: 85 45        	c.li	a1, 0x1
   15ace: 41 46        	c.li	a2, 0x10
   15ad0: bb 99 b5 01  	sllw	s3, a1, s11
   15ad4: 63 69 c5 02  	bltu	a0, a2, 0x15b06 <decode_mcu_AC_refine+0x226>
   15ad8: 63 dc b4 01  	bge	s1, s11, 0x15af0 <decode_mcu_AC_refine+0x210>
   15adc: 28 1a        	c.addi4spn	a0, sp, 0x138
   15ade: d2 85        	c.mv	a1, s4
   15ae0: 26 86        	c.mv	a2, s1
   15ae2: ee 86        	c.mv	a3, s11
   15ae4: ef f0 2f 8c  	jal	ra, 0x14ba6 <jpeg_fill_bit_buffer>
   15ae8: 4d c9        	c.beqz	a0, 0x15b9a <decode_mcu_AC_refine+0x2ba>
   15aea: 56 6a        	c.ldsp	s4, 0x150(sp)
   15aec: 83 24 81 15  	lw	s1, 0x158(sp)
   15af0: bb 84 b4 41  	subw	s1, s1, s11
   15af4: 33 55 9a 40  	sra	a0, s4, s1
   15af8: 93 85 f9 ff  	addi	a1, s3, -0x1
   15afc: 6d 8d        	c.and	a0, a1
   15afe: bb 09 35 01  	addw	s3, a0, s3
   15b02: 63 87 09 06  	beq	s3, zero, 0x15b70 <decode_mcu_AC_refine+0x290>
   15b06: 63 44 8b 06  	blt	s6, s0, 0x15b6e <decode_mcu_AC_refine+0x28e>
   15b0a: 93 1a 24 00  	slli	s5, s0, 0x2
   15b0e: 37 25 03 00  	lui	a0, 0x32
   15b12: 13 05 c5 d5  	addi	a0, a0, -0x2a4
   15b16: aa 9a        	c.add	s5, a0
   15b18: 3b 04 8b 40  	subw	s0, s6, s0
   15b1c: 05 04        	c.addi	s0, 0x1
   15b1e: 03 a5 0a 00  	lw	a0, 0x0(s5)
   15b22: 06 05        	c.slli	a0, 0x1
   15b24: 33 8b ab 00  	add	s6, s7, a0
   15b28: 03 55 0b 00  	lhu	a0, 0x0(s6)
   15b2c: 15 cd        	c.beqz	a0, 0x15b68 <decode_mcu_AC_refine+0x288>
   15b2e: 63 4c 90 00  	blt	zero, s1, 0x15b46 <decode_mcu_AC_refine+0x266>
   15b32: 28 1a        	c.addi4spn	a0, sp, 0x138
   15b34: 85 46        	c.li	a3, 0x1
   15b36: d2 85        	c.mv	a1, s4
   15b38: 26 86        	c.mv	a2, s1
   15b3a: ef f0 cf 86  	jal	ra, 0x14ba6 <jpeg_fill_bit_buffer>
   15b3e: 31 cd        	c.beqz	a0, 0x15b9a <decode_mcu_AC_refine+0x2ba>
   15b40: 56 6a        	c.ldsp	s4, 0x150(sp)
   15b42: 83 24 81 15  	lw	s1, 0x158(sp)
   15b46: fd 34        	c.addiw	s1, -0x1
   15b48: 33 55 9a 00  	srl	a0, s4, s1
   15b4c: 05 89        	c.andi	a0, 0x1
   15b4e: 09 cd        	c.beqz	a0, 0x15b68 <decode_mcu_AC_refine+0x288>
   15b50: 03 15 0b 00  	lh	a0, 0x0(s6)
   15b54: b3 75 ac 00  	and	a1, s8, a0
   15b58: 81 e9        	c.bnez	a1, 0x15b68 <decode_mcu_AC_refine+0x288>
   15b5a: c2 75        	c.ldsp	a1, 0x30(sp)
   15b5c: 63 43 05 00  	blt	a0, zero, 0x15b62 <decode_mcu_AC_refine+0x282>
   15b60: e2 85        	c.mv	a1, s8
   15b62: 2e 95        	c.add	a0, a1
   15b64: 23 10 ab 00  	sh	a0, 0x0(s6)
   15b68: 7d 34        	c.addiw	s0, -0x1
   15b6a: 91 0a        	c.addi	s5, 0x4
   15b6c: 4d f8        	c.bnez	s0, 0x15b1e <decode_mcu_AC_refine+0x23e>
   15b6e: fd 19        	c.addi	s3, -0x1
   15b70: 72 75        	c.ldsp	a0, 0x138(sp)
   15b72: 62 67        	c.ldsp	a4, 0x18(sp)
   15b74: 0c 73        	c.ld	a1, 0x20(a4)
   15b76: 16 66        	c.ldsp	a2, 0x140(sp)
   15b78: 83 26 81 14  	lw	a3, 0x148(sp)
   15b7c: 88 e1        	c.sd	a0, 0x0(a1)
   15b7e: 90 e5        	c.sd	a2, 0x8(a1)
   15b80: 23 26 d7 20  	sw	a3, 0x20c(a4)
   15b84: a2 65        	c.ldsp	a1, 0x8(sp)
   15b86: c8 59        	c.lw	a0, 0x34(a1)
   15b88: 23 b8 45 01  	sd	s4, 0x10(a1)
   15b8c: 84 cd        	c.sw	s1, 0x18(a1)
   15b8e: 23 a0 35 03  	sw	s3, 0x20(a1)
   15b92: 7d 15        	c.addi	a0, -0x1
   15b94: c8 d9        	c.sw	a0, 0x34(a1)
   15b96: 05 45        	c.li	a0, 0x1
   15b98: 05 a0        	c.j	0x15bb8 <decode_mcu_AC_refine+0x2d8>
   15b9a: a2 75        	c.ldsp	a1, 0x28(sp)
   15b9c: 63 5d b0 00  	bge	zero, a1, 0x15bb6 <decode_mcu_AC_refine+0x2d6>
   15ba0: 8a 05        	c.slli	a1, 0x2
   15ba2: 48 18        	c.addi4spn	a0, sp, 0x34
   15ba4: aa 95        	c.add	a1, a0
   15ba6: 90 41        	c.lw	a2, 0x0(a1)
   15ba8: 06 06        	c.slli	a2, 0x1
   15baa: 5e 96        	c.add	a2, s7
   15bac: f1 15        	c.addi	a1, -0x4
   15bae: 23 10 06 00  	sh	zero, 0x0(a2)
   15bb2: e3 9a a5 fe  	bne	a1, a0, 0x15ba6 <decode_mcu_AC_refine+0x2c6>
   15bb6: 01 45        	c.li	a0, 0x0
   15bb8: 75 61        	c.addi16sp	sp, 0x170
   15bba: 6f 90 b1 6a  	jal	zero, 0x2fa64 <__riscv_restore_12>

0000000000015bbe <process_restart>:
   15bbe: ef 92 d1 68  	jal	t0, 0x2fa4a <__riscv_save_3>
   15bc2: 2a 84        	c.mv	s0, a0
   15bc4: 83 34 05 24  	ld	s1, 0x240(a0)
   15bc8: 88 4c        	c.lw	a0, 0x18(s1)
   15bca: 83 35 84 23  	ld	a1, 0x238(s0)
   15bce: 13 16 15 00  	slli	a2, a0, 0x1
   15bd2: 75 92        	c.srli	a2, 0x3d
   15bd4: 83 a6 c5 0a  	lw	a3, 0xac(a1)
   15bd8: 32 95        	c.add	a0, a2
   15bda: 1b 55 35 40  	sraiw	a0, a0, 0x3
   15bde: 90 69        	c.ld	a2, 0x10(a1)
   15be0: 36 95        	c.add	a0, a3
   15be2: 23 a6 a5 0a  	sw	a0, 0xac(a1)
   15be6: 23 ac 04 00  	sw	zero, 0x18(s1)
   15bea: 22 85        	c.mv	a0, s0
   15bec: 02 96        	c.jalr	a2
   15bee: 05 c9        	c.beqz	a0, 0x15c1e <process_restart+0x60>
   15bf0: 03 25 04 1a  	lw	a0, 0x1a0(s0)
   15bf4: 63 5d a0 00  	bge	zero, a0, 0x15c0e <process_restart+0x50>
   15bf8: 01 45        	c.li	a0, 0x0
   15bfa: 93 85 44 02  	addi	a1, s1, 0x24
   15bfe: 23 a0 05 00  	sw	zero, 0x0(a1)
   15c02: 03 26 04 1a  	lw	a2, 0x1a0(s0)
   15c06: 05 05        	c.addi	a0, 0x1
   15c08: 91 05        	c.addi	a1, 0x4
   15c0a: e3 4a c5 fe  	blt	a0, a2, 0x15bfe <process_restart+0x40>
   15c0e: 03 25 84 16  	lw	a0, 0x168(s0)
   15c12: 23 a0 04 02  	sw	zero, 0x20(s1)
   15c16: c8 d8        	c.sw	a0, 0x34(s1)
   15c18: 23 ae 04 00  	sw	zero, 0x1c(s1)
   15c1c: 05 45        	c.li	a0, 0x1
   15c1e: 6f 90 31 66  	jal	zero, 0x2fa80 <__riscv_restore_3>

0000000000015c22 <jinit_d_main_controller>:
   15c22: ef 92 11 60  	jal	t0, 0x2fa22 <__riscv_save_11>
   15c26: 2a 8a        	c.mv	s4, a0
   15c28: 08 65        	c.ld	a0, 0x8(a0)
   15c2a: 14 61        	c.ld	a3, 0x0(a0)
   15c2c: ae 84        	c.mv	s1, a1
   15c2e: 85 45        	c.li	a1, 0x1
   15c30: 13 06 80 08  	addi	a2, zero, 0x88
   15c34: 52 85        	c.mv	a0, s4
   15c36: 82 96        	c.jalr	a3
   15c38: 2a 89        	c.mv	s2, a0
   15c3a: 23 3c aa 20  	sd	a0, 0x218(s4)
   15c3e: 37 65 01 00  	lui	a0, 0x16
   15c42: 13 05 c5 d9  	addi	a0, a0, -0x264
   15c46: 23 30 a9 00  	sd	a0, 0x0(s2)
   15c4a: 81 c8        	c.beqz	s1, 0x15c5a <jinit_d_main_controller+0x38>
   15c4c: 03 35 0a 00  	ld	a0, 0x0(s4)
   15c50: 0c 61        	c.ld	a1, 0x0(a0)
   15c52: 11 46        	c.li	a2, 0x4
   15c54: 10 d5        	c.sw	a2, 0x28(a0)
   15c56: 52 85        	c.mv	a0, s4
   15c58: 82 95        	c.jalr	a1
   15c5a: 03 35 0a 25  	ld	a0, 0x250(s4)
   15c5e: 08 49        	c.lw	a0, 0x10(a0)
   15c60: 83 29 ca 18  	lw	s3, 0x18c(s4)
   15c64: 79 c1        	c.beqz	a0, 0x15d2a <jinit_d_main_controller+0x108>
   15c66: 05 45        	c.li	a0, 0x1
   15c68: 63 4c 35 01  	blt	a0, s3, 0x15c80 <jinit_d_main_controller+0x5e>
   15c6c: 03 35 0a 00  	ld	a0, 0x0(s4)
   15c70: 0c 61        	c.ld	a1, 0x0(a0)
   15c72: 13 06 e0 02  	addi	a2, zero, 0x2e
   15c76: 10 d5        	c.sw	a2, 0x28(a0)
   15c78: 52 85        	c.mv	a0, s4
   15c7a: 82 95        	c.jalr	a1
   15c7c: 83 29 ca 18  	lw	s3, 0x18c(s4)
   15c80: 03 35 8a 00  	ld	a0, 0x8(s4)
   15c84: 83 25 0a 03  	lw	a1, 0x30(s4)
   15c88: 83 3a 8a 21  	ld	s5, 0x218(s4)
   15c8c: 14 61        	c.ld	a3, 0x0(a0)
   15c8e: 1b 96 15 00  	slliw	a2, a1, 0x1
   15c92: 0e 06        	c.slli	a2, 0x3
   15c94: 85 45        	c.li	a1, 0x1
   15c96: 52 85        	c.mv	a0, s4
   15c98: 82 96        	c.jalr	a3
   15c9a: 83 25 0a 03  	lw	a1, 0x30(s4)
   15c9e: 23 b4 aa 06  	sd	a0, 0x68(s5)
   15ca2: 13 96 35 00  	slli	a2, a1, 0x3
   15ca6: 32 95        	c.add	a0, a2
   15ca8: 23 b8 aa 06  	sd	a0, 0x70(s5)
   15cac: 63 59 b0 06  	bge	zero, a1, 0x15d1e <jinit_d_main_controller+0xfc>
   15cb0: 03 35 8a 12  	ld	a0, 0x128(s4)
   15cb4: 01 44        	c.li	s0, 0x0
   15cb6: 01 4c        	c.li	s8, 0x0
   15cb8: 91 29        	c.addiw	s3, 0x4
   15cba: 93 04 45 02  	addi	s1, a0, 0x24
   15cbe: 83 a5 84 fe  	lw	a1, -0x18(s1)
   15cc2: 88 40        	c.lw	a0, 0x0(s1)
   15cc4: ef 90 d1 5c  	jal	ra, 0x2fa90 <__muldi3>
   15cc8: 83 25 ca 18  	lw	a1, 0x18c(s4)
   15ccc: 01 25        	c.addiw	a0, 0x0
   15cce: ef 90 31 60  	jal	ra, 0x2fad0 <__divdi3>
   15cd2: 83 35 8a 00  	ld	a1, 0x8(s4)
   15cd6: 83 bc 05 00  	ld	s9, 0x0(a1)
   15cda: aa 8b        	c.mv	s7, a0
   15cdc: ce 85        	c.mv	a1, s3
   15cde: ef 90 31 5b  	jal	ra, 0x2fa90 <__muldi3>
   15ce2: 2a 8b        	c.mv	s6, a0
   15ce4: 1b 16 15 00  	slliw	a2, a0, 0x1
   15ce8: 0e 06        	c.slli	a2, 0x3
   15cea: 85 45        	c.li	a1, 0x1
   15cec: 52 85        	c.mv	a0, s4
   15cee: 82 9c        	c.jalr	s9
   15cf0: 83 b5 8a 06  	ld	a1, 0x68(s5)
   15cf4: 81 2b        	c.addiw	s7, 0x0
   15cf6: 8e 0b        	c.slli	s7, 0x3
   15cf8: 5e 95        	c.add	a0, s7
   15cfa: a2 95        	c.add	a1, s0
   15cfc: 88 e1        	c.sd	a0, 0x0(a1)
   15cfe: 83 b5 0a 07  	ld	a1, 0x70(s5)
   15d02: 01 2b        	c.addiw	s6, 0x0
   15d04: 0e 0b        	c.slli	s6, 0x3
   15d06: 5a 95        	c.add	a0, s6
   15d08: 33 86 85 00  	add	a2, a1, s0
   15d0c: 83 25 0a 03  	lw	a1, 0x30(s4)
   15d10: 08 e2        	c.sd	a0, 0x0(a2)
   15d12: 05 0c        	c.addi	s8, 0x1
   15d14: 21 04        	c.addi	s0, 0x8
   15d16: 93 84 04 06  	addi	s1, s1, 0x60
   15d1a: e3 42 bc fa  	blt	s8, a1, 0x15cbe <jinit_d_main_controller+0x9c>
   15d1e: 83 29 ca 18  	lw	s3, 0x18c(s4)
   15d22: 89 29        	c.addiw	s3, 0x2
   15d24: 63 47 b0 00  	blt	zero, a1, 0x15d32 <jinit_d_main_controller+0x110>
   15d28: 85 a8        	c.j	0x15d98 <jinit_d_main_controller+0x176>
   15d2a: 83 25 0a 03  	lw	a1, 0x30(s4)
   15d2e: 63 55 b0 06  	bge	zero, a1, 0x15d98 <jinit_d_main_controller+0x176>
   15d32: 03 35 8a 12  	ld	a0, 0x128(s4)
   15d36: 01 4b        	c.li	s6, 0x0
   15d38: 13 04 09 01  	addi	s0, s2, 0x10
   15d3c: 93 04 45 02  	addi	s1, a0, 0x24
   15d40: 83 a5 84 fe  	lw	a1, -0x18(s1)
   15d44: 83 aa 04 00  	lw	s5, 0x0(s1)
   15d48: 56 85        	c.mv	a0, s5
   15d4a: ef 90 71 54  	jal	ra, 0x2fa90 <__muldi3>
   15d4e: 83 25 ca 18  	lw	a1, 0x18c(s4)
   15d52: 01 25        	c.addiw	a0, 0x0
   15d54: ef 90 d1 57  	jal	ra, 0x2fad0 <__divdi3>
   15d58: 83 35 8a 00  	ld	a1, 0x8(s4)
   15d5c: 83 bb 05 01  	ld	s7, 0x10(a1)
   15d60: 83 a5 84 ff  	lw	a1, -0x8(s1)
   15d64: 2a 89        	c.mv	s2, a0
   15d66: 2e 85        	c.mv	a0, a1
   15d68: d6 85        	c.mv	a1, s5
   15d6a: ef 90 71 52  	jal	ra, 0x2fa90 <__muldi3>
   15d6e: aa 8a        	c.mv	s5, a0
   15d70: 4a 85        	c.mv	a0, s2
   15d72: ce 85        	c.mv	a1, s3
   15d74: ef 90 d1 51  	jal	ra, 0x2fa90 <__muldi3>
   15d78: 1b 86 0a 00  	addiw	a2, s5, 0x0
   15d7c: 9b 06 05 00  	addiw	a3, a0, 0x0
   15d80: 85 45        	c.li	a1, 0x1
   15d82: 52 85        	c.mv	a0, s4
   15d84: 82 9b        	c.jalr	s7
   15d86: 83 25 0a 03  	lw	a1, 0x30(s4)
   15d8a: 08 e0        	c.sd	a0, 0x0(s0)
   15d8c: 05 0b        	c.addi	s6, 0x1
   15d8e: 21 04        	c.addi	s0, 0x8
   15d90: 93 84 04 06  	addi	s1, s1, 0x60
   15d94: e3 46 bb fa  	blt	s6, a1, 0x15d40 <jinit_d_main_controller+0x11e>
   15d98: 6f 90 11 4d  	jal	zero, 0x2fa68 <__riscv_restore_11>

0000000000015d9c <start_pass_main>:
   15d9c: 59 71        	c.addi16sp	sp, -0x70
   15d9e: 86 f4        	c.sdsp	ra, 0x68(sp)
   15da0: a2 f0        	c.sdsp	s0, 0x60(sp)
   15da2: a6 ec        	c.sdsp	s1, 0x58(sp)
   15da4: ca e8        	c.sdsp	s2, 0x50(sp)
   15da6: ce e4        	c.sdsp	s3, 0x48(sp)
   15da8: d2 e0        	c.sdsp	s4, 0x40(sp)
   15daa: 56 fc        	c.sdsp	s5, 0x38(sp)
   15dac: 5a f8        	c.sdsp	s6, 0x30(sp)
   15dae: 5e f4        	c.sdsp	s7, 0x28(sp)
   15db0: 62 f0        	c.sdsp	s8, 0x20(sp)
   15db2: 66 ec        	c.sdsp	s9, 0x18(sp)
   15db4: 6a e8        	c.sdsp	s10, 0x10(sp)
   15db6: 6e e4        	c.sdsp	s11, 0x8(sp)
   15db8: 83 3a 85 21  	ld	s5, 0x218(a0)
   15dbc: 09 46        	c.li	a2, 0x2
   15dbe: 63 86 c5 10  	beq	a1, a2, 0x15eca <start_pass_main+0x12e>
   15dc2: 63 9b 05 10  	bne	a1, zero, 0x15ed8 <start_pass_main+0x13c>
   15dc6: 83 35 05 25  	ld	a1, 0x250(a0)
   15dca: 8c 49        	c.lw	a1, 0x10(a1)
   15dcc: 63 89 05 12  	beq	a1, zero, 0x15efe <start_pass_main+0x162>
   15dd0: 03 2b 05 03  	lw	s6, 0x30(a0)
   15dd4: b7 65 01 00  	lui	a1, 0x16
   15dd8: 93 85 c5 f2  	addi	a1, a1, -0xd4
   15ddc: 23 b4 ba 00  	sd	a1, 0x8(s5)
   15de0: 63 50 60 0f  	bge	zero, s6, 0x15ec0 <start_pass_main+0x124>
   15de4: 03 2a c5 18  	lw	s4, 0x18c(a0)
   15de8: 03 3c 85 12  	ld	s8, 0x128(a0)
   15dec: 81 4c        	c.li	s9, 0x0
   15dee: 9b 09 2a 00  	addiw	s3, s4, 0x2
   15df2: 1b 05 ea ff  	addiw	a0, s4, -0x2
   15df6: 2a e0        	c.sdsp	a0, 0x0(sp)
   15df8: 83 25 cc 00  	lw	a1, 0xc(s8)
   15dfc: 03 25 4c 02  	lw	a0, 0x24(s8)
   15e00: ef 90 11 49  	jal	ra, 0x2fa90 <__muldi3>
   15e04: 01 25        	c.addiw	a0, 0x0
   15e06: d2 85        	c.mv	a1, s4
   15e08: ef 90 91 4c  	jal	ra, 0x2fad0 <__divdi3>
   15e0c: 83 b5 8a 06  	ld	a1, 0x68(s5)
   15e10: 03 b6 0a 07  	ld	a2, 0x70(s5)
   15e14: 93 96 3c 00  	slli	a3, s9, 0x3
   15e18: b6 95        	c.add	a1, a3
   15e1a: 80 61        	c.ld	s0, 0x0(a1)
   15e1c: 36 96        	c.add	a2, a3
   15e1e: 83 3d 06 00  	ld	s11, 0x0(a2)
   15e22: d6 96        	c.add	a3, s5
   15e24: 03 bd 06 01  	ld	s10, 0x10(a3)
   15e28: aa 84        	c.mv	s1, a0
   15e2a: ce 85        	c.mv	a1, s3
   15e2c: ef 90 51 46  	jal	ra, 0x2fa90 <__muldi3>
   15e30: 01 25        	c.addiw	a0, 0x0
   15e32: 63 5f a0 00  	bge	zero, a0, 0x15e50 <start_pass_main+0xb4>
   15e36: 0e 05        	c.slli	a0, 0x3
   15e38: 22 95        	c.add	a0, s0
   15e3a: ea 85        	c.mv	a1, s10
   15e3c: 6e 86        	c.mv	a2, s11
   15e3e: a2 86        	c.mv	a3, s0
   15e40: 98 61        	c.ld	a4, 0x0(a1)
   15e42: 18 e2        	c.sd	a4, 0x0(a2)
   15e44: 98 e2        	c.sd	a4, 0x0(a3)
   15e46: a1 06        	c.addi	a3, 0x8
   15e48: 21 06        	c.addi	a2, 0x8
   15e4a: a1 05        	c.addi	a1, 0x8
   15e4c: e3 9a a6 fe  	bne	a3, a0, 0x15e40 <start_pass_main+0xa4>
   15e50: 81 24        	c.addiw	s1, 0x0
   15e52: 63 52 90 06  	bge	zero, s1, 0x15eb6 <start_pass_main+0x11a>
   15e56: 1b 99 14 00  	slliw	s2, s1, 0x1
   15e5a: 26 85        	c.mv	a0, s1
   15e5c: d2 85        	c.mv	a1, s4
   15e5e: ef 90 31 43  	jal	ra, 0x2fa90 <__muldi3>
   15e62: aa 8b        	c.mv	s7, a0
   15e64: 26 85        	c.mv	a0, s1
   15e66: 82 65        	c.ldsp	a1, 0x0(sp)
   15e68: ef 90 91 42  	jal	ra, 0x2fa90 <__muldi3>
   15e6c: 63 43 20 01  	blt	zero, s2, 0x15e72 <start_pass_main+0xd6>
   15e70: 05 49        	c.li	s2, 0x1
   15e72: 81 2b        	c.addiw	s7, 0x0
   15e74: 01 25        	c.addiw	a0, 0x0
   15e76: 93 16 35 00  	slli	a3, a0, 0x3
   15e7a: 33 05 dd 00  	add	a0, s10, a3
   15e7e: b3 85 dd 00  	add	a1, s11, a3
   15e82: 13 96 3b 00  	slli	a2, s7, 0x3
   15e86: b2 9d        	c.add	s11, a2
   15e88: 6a 96        	c.add	a2, s10
   15e8a: 0e 09        	c.slli	s2, 0x3
   15e8c: 6a 99        	c.add	s2, s10
   15e8e: ca 96        	c.add	a3, s2
   15e90: 18 62        	c.ld	a4, 0x0(a2)
   15e92: 98 e1        	c.sd	a4, 0x0(a1)
   15e94: 18 61        	c.ld	a4, 0x0(a0)
   15e96: 23 b0 ed 00  	sd	a4, 0x0(s11)
   15e9a: 21 05        	c.addi	a0, 0x8
   15e9c: a1 05        	c.addi	a1, 0x8
   15e9e: a1 0d        	c.addi	s11, 0x8
   15ea0: 21 06        	c.addi	a2, 0x8
   15ea2: e3 17 d5 fe  	bne	a0, a3, 0x15e90 <start_pass_main+0xf4>
   15ea6: 08 60        	c.ld	a0, 0x0(s0)
   15ea8: 8e 04        	c.slli	s1, 0x3
   15eaa: b3 05 94 40  	sub	a1, s0, s1
   15eae: 88 e1        	c.sd	a0, 0x0(a1)
   15eb0: a1 05        	c.addi	a1, 0x8
   15eb2: e3 9e 85 fe  	bne	a1, s0, 0x15eae <start_pass_main+0x112>
   15eb6: 85 0c        	c.addi	s9, 0x1
   15eb8: 13 0c 0c 06  	addi	s8, s8, 0x60
   15ebc: e3 9e 6c f3  	bne	s9, s6, 0x15df8 <start_pass_main+0x5c>
   15ec0: 23 bc 0a 06  	sd	zero, 0x78(s5)
   15ec4: 23 a2 0a 08  	sw	zero, 0x84(s5)
   15ec8: 89 a0        	c.j	0x15f0a <start_pass_main+0x16e>
   15eca: 37 65 01 00  	lui	a0, 0x16
   15ece: 13 05 85 1e  	addi	a0, a0, 0x1e8
   15ed2: 23 b4 aa 00  	sd	a0, 0x8(s5)
   15ed6: 25 a8        	c.j	0x15f0e <start_pass_main+0x172>
   15ed8: 0c 61        	c.ld	a1, 0x0(a0)
   15eda: 9c 61        	c.ld	a5, 0x0(a1)
   15edc: 11 46        	c.li	a2, 0x4
   15ede: 90 d5        	c.sw	a2, 0x28(a1)
   15ee0: a6 70        	c.ldsp	ra, 0x68(sp)
   15ee2: 06 74        	c.ldsp	s0, 0x60(sp)
   15ee4: e6 64        	c.ldsp	s1, 0x58(sp)
   15ee6: 46 69        	c.ldsp	s2, 0x50(sp)
   15ee8: a6 69        	c.ldsp	s3, 0x48(sp)
   15eea: 06 6a        	c.ldsp	s4, 0x40(sp)
   15eec: e2 7a        	c.ldsp	s5, 0x38(sp)
   15eee: 42 7b        	c.ldsp	s6, 0x30(sp)
   15ef0: a2 7b        	c.ldsp	s7, 0x28(sp)
   15ef2: 02 7c        	c.ldsp	s8, 0x20(sp)
   15ef4: e2 6c        	c.ldsp	s9, 0x18(sp)
   15ef6: 42 6d        	c.ldsp	s10, 0x10(sp)
   15ef8: a2 6d        	c.ldsp	s11, 0x8(sp)
   15efa: 65 61        	c.addi16sp	sp, 0x70
   15efc: 82 87        	c.jr	a5
   15efe: 37 65 01 00  	lui	a0, 0x16
   15f02: 13 05 25 19  	addi	a0, a0, 0x192
   15f06: 23 b4 aa 00  	sd	a0, 0x8(s5)
   15f0a: 23 b0 0a 06  	sd	zero, 0x60(s5)
   15f0e: a6 70        	c.ldsp	ra, 0x68(sp)
   15f10: 06 74        	c.ldsp	s0, 0x60(sp)
   15f12: e6 64        	c.ldsp	s1, 0x58(sp)
   15f14: 46 69        	c.ldsp	s2, 0x50(sp)
   15f16: a6 69        	c.ldsp	s3, 0x48(sp)
   15f18: 06 6a        	c.ldsp	s4, 0x40(sp)
   15f1a: e2 7a        	c.ldsp	s5, 0x38(sp)
   15f1c: 42 7b        	c.ldsp	s6, 0x30(sp)
   15f1e: a2 7b        	c.ldsp	s7, 0x28(sp)
   15f20: 02 7c        	c.ldsp	s8, 0x20(sp)
   15f22: e2 6c        	c.ldsp	s9, 0x18(sp)
   15f24: 42 6d        	c.ldsp	s10, 0x10(sp)
   15f26: a2 6d        	c.ldsp	s11, 0x8(sp)
   15f28: 65 61        	c.addi16sp	sp, 0x70
   15f2a: 82 80        	c.jr	ra

0000000000015f2c <process_data_context_main>:
   15f2c: ef 92 f1 2e  	jal	t0, 0x2fa1a <__riscv_save_12>
   15f30: 41 11        	c.addi	sp, -0x10
   15f32: aa 8a        	c.mv	s5, a0
   15f34: 03 3c 85 21  	ld	s8, 0x218(a0)
   15f38: 03 25 0c 06  	lw	a0, 0x60(s8)
   15f3c: 36 84        	c.mv	s0, a3
   15f3e: 32 8a        	c.mv	s4, a2
   15f40: 2e 89        	c.mv	s2, a1
   15f42: 0d e5        	c.bnez	a0, 0x15f6c <process_data_context_main+0x40>
   15f44: 03 b5 0a 22  	ld	a0, 0x220(s5)
   15f48: 83 25 8c 07  	lw	a1, 0x78(s8)
   15f4c: 10 6d        	c.ld	a2, 0x18(a0)
   15f4e: 8e 05        	c.slli	a1, 0x3
   15f50: e2 95        	c.add	a1, s8
   15f52: ac 75        	c.ld	a1, 0x68(a1)
   15f54: 56 85        	c.mv	a0, s5
   15f56: 02 96        	c.jalr	a2
   15f58: 63 0a 05 22  	beq	a0, zero, 0x1618c <process_data_context_main+0x260>
   15f5c: 03 25 4c 08  	lw	a0, 0x84(s8)
   15f60: 85 45        	c.li	a1, 0x1
   15f62: 23 20 bc 06  	sw	a1, 0x60(s8)
   15f66: 05 05        	c.addi	a0, 0x1
   15f68: 23 22 ac 08  	sw	a0, 0x84(s8)
   15f6c: 03 25 cc 07  	lw	a0, 0x7c(s8)
   15f70: 21 c5        	c.beqz	a0, 0x15fb8 <process_data_context_main+0x8c>
   15f72: 85 45        	c.li	a1, 0x1
   15f74: 63 0a b5 10  	beq	a0, a1, 0x16088 <process_data_context_main+0x15c>
   15f78: 89 45        	c.li	a1, 0x2
   15f7a: 63 19 b5 20  	bne	a0, a1, 0x1618c <process_data_context_main+0x260>
   15f7e: 03 b5 8a 22  	ld	a0, 0x228(s5)
   15f82: 83 25 8c 07  	lw	a1, 0x78(s8)
   15f86: 04 65        	c.ld	s1, 0x8(a0)
   15f88: 8e 05        	c.slli	a1, 0x3
   15f8a: e2 95        	c.add	a1, s8
   15f8c: ac 75        	c.ld	a1, 0x68(a1)
   15f8e: 83 26 0c 08  	lw	a3, 0x80(s8)
   15f92: 13 06 4c 06  	addi	a2, s8, 0x64
   15f96: 56 85        	c.mv	a0, s5
   15f98: 4a 87        	c.mv	a4, s2
   15f9a: d2 87        	c.mv	a5, s4
   15f9c: 22 88        	c.mv	a6, s0
   15f9e: 82 94        	c.jalr	s1
   15fa0: 03 25 4c 06  	lw	a0, 0x64(s8)
   15fa4: 83 25 0c 08  	lw	a1, 0x80(s8)
   15fa8: 63 62 b5 1e  	bltu	a0, a1, 0x1618c <process_data_context_main+0x260>
   15fac: 23 2e 0c 06  	sw	zero, 0x7c(s8)
   15fb0: 03 25 0a 00  	lw	a0, 0x0(s4)
   15fb4: 63 7c 85 1c  	bgeu	a0, s0, 0x1618c <process_data_context_main+0x260>
   15fb8: 4a e0        	c.sdsp	s2, 0x0(sp)
   15fba: 22 e4        	c.sdsp	s0, 0x8(sp)
   15fbc: 03 ab ca 18  	lw	s6, 0x18c(s5)
   15fc0: 03 25 4c 08  	lw	a0, 0x84(s8)
   15fc4: 83 a5 0a 19  	lw	a1, 0x190(s5)
   15fc8: 13 06 fb ff  	addi	a2, s6, -0x1
   15fcc: 23 20 cc 08  	sw	a2, 0x80(s8)
   15fd0: 23 22 0c 06  	sw	zero, 0x64(s8)
   15fd4: 63 15 b5 0a  	bne	a0, a1, 0x1607e <process_data_context_main+0x152>
   15fd8: 83 ac 0a 03  	lw	s9, 0x30(s5)
   15fdc: 63 51 90 0b  	bge	zero, s9, 0x1607e <process_data_context_main+0x152>
   15fe0: 03 bd 8a 21  	ld	s10, 0x218(s5)
   15fe4: 03 25 8d 07  	lw	a0, 0x78(s10)
   15fe8: 01 44        	c.li	s0, 0x0
   15fea: 83 b9 8a 12  	ld	s3, 0x128(s5)
   15fee: 0e 05        	c.slli	a0, 0x3
   15ff0: 6a 95        	c.add	a0, s10
   15ff2: 13 09 85 06  	addi	s2, a0, 0x68
   15ff6: 83 a5 c9 00  	lw	a1, 0xc(s3)
   15ffa: 03 a5 49 02  	lw	a0, 0x24(s3)
   15ffe: ef 90 31 29  	jal	ra, 0x2fa90 <__muldi3>
   16002: aa 8d        	c.mv	s11, a0
   16004: 93 14 05 02  	slli	s1, a0, 0x20
   16008: 81 90        	c.srli	s1, 0x20
   1600a: 01 25        	c.addiw	a0, 0x0
   1600c: da 85        	c.mv	a1, s6
   1600e: ef 90 31 2c  	jal	ra, 0x2fad0 <__divdi3>
   16012: 83 e5 c9 02  	lwu	a1, 0x2c(s3)
   16016: aa 8b        	c.mv	s7, a0
   16018: 2e 85        	c.mv	a0, a1
   1601a: a6 85        	c.mv	a1, s1
   1601c: ef 90 91 2e  	jal	ra, 0x2fb04 <__umoddi3>
   16020: 11 c1        	c.beqz	a0, 0x16024 <process_data_context_main+0xf8>
   16022: aa 8d        	c.mv	s11, a0
   16024: 9b 84 0b 00  	addiw	s1, s7, 0x0
   16028: 01 c4        	c.beqz	s0, 0x16030 <process_data_context_main+0x104>
   1602a: 63 4d 90 00  	blt	zero, s1, 0x16044 <process_data_context_main+0x118>
   1602e: 99 a0        	c.j	0x16074 <process_data_context_main+0x148>
   16030: 1b 85 fd ff  	addiw	a0, s11, -0x1
   16034: a6 85        	c.mv	a1, s1
   16036: ef 90 b1 29  	jal	ra, 0x2fad0 <__divdi3>
   1603a: 05 05        	c.addi	a0, 0x1
   1603c: 23 20 ad 08  	sw	a0, 0x80(s10)
   16040: 63 5a 90 02  	bge	zero, s1, 0x16074 <process_data_context_main+0x148>
   16044: 1b 95 14 00  	slliw	a0, s1, 0x1
   16048: 63 43 a0 00  	blt	zero, a0, 0x1604e <process_data_context_main+0x122>
   1604c: 05 45        	c.li	a0, 0x1
   1604e: 83 35 09 00  	ld	a1, 0x0(s2)
   16052: 13 16 34 00  	slli	a2, s0, 0x3
   16056: b2 95        	c.add	a1, a2
   16058: 94 61        	c.ld	a3, 0x0(a1)
   1605a: 81 2d        	c.addiw	s11, 0x0
   1605c: 8e 0d        	c.slli	s11, 0x3
   1605e: b3 85 b6 01  	add	a1, a3, s11
   16062: 03 b6 85 ff  	ld	a2, -0x8(a1)
   16066: 0e 05        	c.slli	a0, 0x3
   16068: ee 96        	c.add	a3, s11
   1606a: 36 95        	c.add	a0, a3
   1606c: 90 e1        	c.sd	a2, 0x0(a1)
   1606e: a1 05        	c.addi	a1, 0x8
   16070: e3 9e a5 fe  	bne	a1, a0, 0x1606c <process_data_context_main+0x140>
   16074: 05 04        	c.addi	s0, 0x1
   16076: 93 89 09 06  	addi	s3, s3, 0x60
   1607a: e3 1e 94 f7  	bne	s0, s9, 0x15ff6 <process_data_context_main+0xca>
   1607e: 05 45        	c.li	a0, 0x1
   16080: 23 2e ac 06  	sw	a0, 0x7c(s8)
   16084: 22 64        	c.ldsp	s0, 0x8(sp)
   16086: 02 69        	c.ldsp	s2, 0x0(sp)
   16088: 03 b5 8a 22  	ld	a0, 0x228(s5)
   1608c: 83 25 8c 07  	lw	a1, 0x78(s8)
   16090: 04 65        	c.ld	s1, 0x8(a0)
   16092: 8e 05        	c.slli	a1, 0x3
   16094: e2 95        	c.add	a1, s8
   16096: ac 75        	c.ld	a1, 0x68(a1)
   16098: 83 26 0c 08  	lw	a3, 0x80(s8)
   1609c: 13 06 4c 06  	addi	a2, s8, 0x64
   160a0: 56 85        	c.mv	a0, s5
   160a2: 4a 87        	c.mv	a4, s2
   160a4: d2 87        	c.mv	a5, s4
   160a6: 22 88        	c.mv	a6, s0
   160a8: 82 94        	c.jalr	s1
   160aa: 03 25 4c 06  	lw	a0, 0x64(s8)
   160ae: 83 25 0c 08  	lw	a1, 0x80(s8)
   160b2: 63 6d b5 0c  	bltu	a0, a1, 0x1618c <process_data_context_main+0x260>
   160b6: 03 aa ca 18  	lw	s4, 0x18c(s5)
   160ba: 03 25 4c 08  	lw	a0, 0x84(s8)
   160be: 85 45        	c.li	a1, 0x1
   160c0: 9b 09 1a 00  	addiw	s3, s4, 0x1
   160c4: 1b 09 2a 00  	addiw	s2, s4, 0x2
   160c8: 63 13 b5 0a  	bne	a0, a1, 0x1616e <process_data_context_main+0x242>
   160cc: 03 ab 0a 03  	lw	s6, 0x30(s5)
   160d0: 63 5f 60 09  	bge	zero, s6, 0x1616e <process_data_context_main+0x242>
   160d4: 03 bd 8a 12  	ld	s10, 0x128(s5)
   160d8: 83 bb 8a 21  	ld	s7, 0x218(s5)
   160dc: 81 4c        	c.li	s9, 0x0
   160de: 83 25 cd 00  	lw	a1, 0xc(s10)
   160e2: 03 25 4d 02  	lw	a0, 0x24(s10)
   160e6: ef 90 b1 1a  	jal	ra, 0x2fa90 <__muldi3>
   160ea: 01 25        	c.addiw	a0, 0x0
   160ec: d2 85        	c.mv	a1, s4
   160ee: ef 90 31 1e  	jal	ra, 0x2fad0 <__divdi3>
   160f2: 9b 0d 05 00  	addiw	s11, a0, 0x0
   160f6: 63 57 b0 07  	bge	zero, s11, 0x16164 <process_data_context_main+0x238>
   160fa: 03 b5 8b 06  	ld	a0, 0x68(s7)
   160fe: 83 b5 0b 07  	ld	a1, 0x70(s7)
   16102: 13 96 3c 00  	slli	a2, s9, 0x3
   16106: 32 95        	c.add	a0, a2
   16108: 04 61        	c.ld	s1, 0x0(a0)
   1610a: b2 95        	c.add	a1, a2
   1610c: 80 61        	c.ld	s0, 0x0(a1)
   1610e: 6e 85        	c.mv	a0, s11
   16110: ce 85        	c.mv	a1, s3
   16112: ef 90 f1 17  	jal	ra, 0x2fa90 <__muldi3>
   16116: aa 8a        	c.mv	s5, a0
   16118: 6e 85        	c.mv	a0, s11
   1611a: ca 85        	c.mv	a1, s2
   1611c: ef 90 51 17  	jal	ra, 0x2fa90 <__muldi3>
   16120: 1b 86 0a 00  	addiw	a2, s5, 0x0
   16124: 01 25        	c.addiw	a0, 0x0
   16126: 0e 05        	c.slli	a0, 0x3
   16128: 93 96 3d 00  	slli	a3, s11, 0x3
   1612c: b3 05 d0 40  	sub	a1, zero, a3
   16130: 0e 06        	c.slli	a2, 0x3
   16132: a2 96        	c.add	a3, s0
   16134: 33 87 c4 00  	add	a4, s1, a2
   16138: 18 63        	c.ld	a4, 0x0(a4)
   1613a: b3 87 b4 00  	add	a5, s1, a1
   1613e: 98 e3        	c.sd	a4, 0x0(a5)
   16140: 33 07 c4 00  	add	a4, s0, a2
   16144: 18 63        	c.ld	a4, 0x0(a4)
   16146: b3 07 b4 00  	add	a5, s0, a1
   1614a: 98 e3        	c.sd	a4, 0x0(a5)
   1614c: 98 60        	c.ld	a4, 0x0(s1)
   1614e: b3 87 a4 00  	add	a5, s1, a0
   16152: 98 e3        	c.sd	a4, 0x0(a5)
   16154: 18 60        	c.ld	a4, 0x0(s0)
   16156: b3 07 a4 00  	add	a5, s0, a0
   1615a: 98 e3        	c.sd	a4, 0x0(a5)
   1615c: 21 04        	c.addi	s0, 0x8
   1615e: a1 04        	c.addi	s1, 0x8
   16160: e3 1a d4 fc  	bne	s0, a3, 0x16134 <process_data_context_main+0x208>
   16164: 85 0c        	c.addi	s9, 0x1
   16166: 13 0d 0d 06  	addi	s10, s10, 0x60
   1616a: e3 9a 6c f7  	bne	s9, s6, 0x160de <process_data_context_main+0x1b2>
   1616e: 03 25 8c 07  	lw	a0, 0x78(s8)
   16172: 13 45 15 00  	xori	a0, a0, 0x1
   16176: 23 2c ac 06  	sw	a0, 0x78(s8)
   1617a: 23 20 0c 06  	sw	zero, 0x60(s8)
   1617e: 23 22 3c 07  	sw	s3, 0x64(s8)
   16182: 23 20 2c 09  	sw	s2, 0x80(s8)
   16186: 09 45        	c.li	a0, 0x2
   16188: 23 2e ac 06  	sw	a0, 0x7c(s8)
   1618c: 41 01        	c.addi	sp, 0x10
   1618e: 6f 90 71 0d  	jal	zero, 0x2fa64 <__riscv_restore_12>

0000000000016192 <process_data_simple_main>:
   16192: ef 92 51 0a  	jal	t0, 0x2fa36 <__riscv_save_7>
   16196: 2a 84        	c.mv	s0, a0
   16198: 83 34 85 21  	ld	s1, 0x218(a0)
   1619c: a8 50        	c.lw	a0, 0x60(s1)
   1619e: 36 89        	c.mv	s2, a3
   161a0: b2 89        	c.mv	s3, a2
   161a2: 2e 8a        	c.mv	s4, a1
   161a4: 93 8a 04 01  	addi	s5, s1, 0x10
   161a8: 11 e9        	c.bnez	a0, 0x161bc <process_data_simple_main+0x2a>
   161aa: 03 35 04 22  	ld	a0, 0x220(s0)
   161ae: 10 6d        	c.ld	a2, 0x18(a0)
   161b0: 22 85        	c.mv	a0, s0
   161b2: d6 85        	c.mv	a1, s5
   161b4: 02 96        	c.jalr	a2
   161b6: 1d c5        	c.beqz	a0, 0x161e4 <process_data_simple_main+0x52>
   161b8: 05 45        	c.li	a0, 0x1
   161ba: a8 d0        	c.sw	a0, 0x60(s1)
   161bc: 03 35 84 22  	ld	a0, 0x228(s0)
   161c0: 03 2b c4 18  	lw	s6, 0x18c(s0)
   161c4: 83 38 85 00  	ld	a7, 0x8(a0)
   161c8: 13 86 44 06  	addi	a2, s1, 0x64
   161cc: 22 85        	c.mv	a0, s0
   161ce: d6 85        	c.mv	a1, s5
   161d0: da 86        	c.mv	a3, s6
   161d2: 52 87        	c.mv	a4, s4
   161d4: ce 87        	c.mv	a5, s3
   161d6: 4a 88        	c.mv	a6, s2
   161d8: 82 98        	c.jalr	a7
   161da: e8 50        	c.lw	a0, 0x64(s1)
   161dc: 63 64 65 01  	bltu	a0, s6, 0x161e4 <process_data_simple_main+0x52>
   161e0: 23 b0 04 06  	sd	zero, 0x60(s1)
   161e4: 6f 90 11 09  	jal	zero, 0x2fa74 <__riscv_restore_7>

00000000000161e8 <process_data_crank_post>:
   161e8: 03 37 85 22  	ld	a4, 0x228(a0)
   161ec: 03 33 87 00  	ld	t1, 0x8(a4)
   161f0: 36 88        	c.mv	a6, a3
   161f2: b2 87        	c.mv	a5, a2
   161f4: 2e 87        	c.mv	a4, a1
   161f6: 81 45        	c.li	a1, 0x0
   161f8: 01 46        	c.li	a2, 0x0
   161fa: 81 46        	c.li	a3, 0x0
   161fc: 02 83        	c.jr	t1

00000000000161fe <jinit_d_coef_controller>:
   161fe: ef 92 f1 02  	jal	t0, 0x2fa2c <__riscv_save_9>
   16202: 2a 8a        	c.mv	s4, a0
   16204: 08 65        	c.ld	a0, 0x8(a0)
   16206: 14 61        	c.ld	a3, 0x0(a0)
   16208: 2e 89        	c.mv	s2, a1
   1620a: 85 45        	c.li	a1, 0x1
   1620c: 13 06 00 0e  	addi	a2, zero, 0xe0
   16210: 52 85        	c.mv	a0, s4
   16212: 82 96        	c.jalr	a3
   16214: aa 89        	c.mv	s3, a0
   16216: 23 30 aa 22  	sd	a0, 0x220(s4)
   1621a: 37 65 01 00  	lui	a0, 0x16
   1621e: 13 05 e5 30  	addi	a0, a0, 0x30e
   16222: 23 b0 a9 00  	sd	a0, 0x0(s3)
   16226: 37 65 01 00  	lui	a0, 0x16
   1622a: 13 05 65 31  	addi	a0, a0, 0x316
   1622e: 23 b8 a9 00  	sd	a0, 0x10(s3)
   16232: 23 bc 09 0c  	sd	zero, 0xd8(s3)
   16236: 63 09 09 08  	beq	s2, zero, 0x162c8 <jinit_d_coef_controller+0xca>
   1623a: 03 25 0a 03  	lw	a0, 0x30(s4)
   1623e: 63 58 a0 06  	bge	zero, a0, 0x162ae <jinit_d_coef_controller+0xb0>
   16242: 03 34 8a 12  	ld	s0, 0x128(s4)
   16246: 01 4b        	c.li	s6, 0x0
   16248: 93 84 89 08  	addi	s1, s3, 0x88
   1624c: 71 04        	c.addi	s0, 0x1c
   1624e: 03 25 0a 13  	lw	a0, 0x130(s4)
   16252: 03 26 04 ff  	lw	a2, -0x10(s0)
   16256: 83 35 8a 00  	ld	a1, 0x8(s4)
   1625a: 93 36 15 00  	sltiu	a3, a0, 0x1
   1625e: 13 17 16 00  	slli	a4, a2, 0x1
   16262: 83 bb 85 02  	ld	s7, 0x28(a1)
   16266: 03 65 04 00  	lwu	a0, 0x0(s0)
   1626a: 83 25 c4 fe  	lw	a1, -0x14(s0)
   1626e: fd 16        	c.addi	a3, -0x1
   16270: f9 8e        	c.and	a3, a4
   16272: 3b 09 d6 00  	addw	s2, a2, a3
   16276: ef 40 d0 1e  	jal	ra, 0x1ac62 <jround_up>
   1627a: 03 66 44 00  	lwu	a2, 0x4(s0)
   1627e: 83 25 04 ff  	lw	a1, -0x10(s0)
   16282: aa 8a        	c.mv	s5, a0
   16284: 32 85        	c.mv	a0, a2
   16286: ef 40 d0 1d  	jal	ra, 0x1ac62 <jround_up>
   1628a: 9b 86 0a 00  	addiw	a3, s5, 0x0
   1628e: 1b 07 05 00  	addiw	a4, a0, 0x0
   16292: 85 45        	c.li	a1, 0x1
   16294: 05 46        	c.li	a2, 0x1
   16296: 52 85        	c.mv	a0, s4
   16298: ca 87        	c.mv	a5, s2
   1629a: 82 9b        	c.jalr	s7
   1629c: 83 25 0a 03  	lw	a1, 0x30(s4)
   162a0: 88 e0        	c.sd	a0, 0x0(s1)
   162a2: 05 0b        	c.addi	s6, 0x1
   162a4: a1 04        	c.addi	s1, 0x8
   162a6: 13 04 04 06  	addi	s0, s0, 0x60
   162aa: e3 42 bb fa  	blt	s6, a1, 0x1624e <jinit_d_coef_controller+0x50>
   162ae: 13 85 89 08  	addi	a0, s3, 0x88
   162b2: b7 65 01 00  	lui	a1, 0x16
   162b6: 93 85 45 3f  	addi	a1, a1, 0x3f4
   162ba: 23 b4 b9 00  	sd	a1, 0x8(s3)
   162be: b7 65 01 00  	lui	a1, 0x16
   162c2: 93 85 85 55  	addi	a1, a1, 0x558
   162c6: 35 a8        	c.j	0x16302 <jinit_d_coef_controller+0x104>
   162c8: 03 35 8a 00  	ld	a0, 0x8(s4)
   162cc: 14 65        	c.ld	a3, 0x8(a0)
   162ce: 85 45        	c.li	a1, 0x1
   162d0: 13 06 00 50  	addi	a2, zero, 0x500
   162d4: 52 85        	c.mv	a0, s4
   162d6: 82 96        	c.jalr	a3
   162d8: 93 85 89 03  	addi	a1, s3, 0x38
   162dc: 13 86 89 08  	addi	a2, s3, 0x88
   162e0: 88 e1        	c.sd	a0, 0x0(a1)
   162e2: a1 05        	c.addi	a1, 0x8
   162e4: 13 05 05 08  	addi	a0, a0, 0x80
   162e8: e3 9c c5 fe  	bne	a1, a2, 0x162e0 <jinit_d_coef_controller+0xe2>
   162ec: 01 45        	c.li	a0, 0x0
   162ee: b7 65 01 00  	lui	a1, 0x16
   162f2: 93 85 85 68  	addi	a1, a1, 0x688
   162f6: 23 b4 b9 00  	sd	a1, 0x8(s3)
   162fa: b7 65 01 00  	lui	a1, 0x16
   162fe: 93 85 c5 68  	addi	a1, a1, 0x68c
   16302: 23 bc b9 00  	sd	a1, 0x18(s3)
   16306: 23 b0 a9 02  	sd	a0, 0x20(s3)
   1630a: 6f 90 41 76  	jal	zero, 0x2fa6e <__riscv_restore_9>

000000000001630e <start_input_pass>:
   1630e: 23 24 05 0a  	sw	zero, 0xa8(a0)
   16312: 6f 00 80 52  	jal	zero, 0x1683a <start_iMCU_row>

0000000000016316 <start_output_pass>:
   16316: ef 92 61 71  	jal	t0, 0x2fa2c <__riscv_save_9>
   1631a: 2a 84        	c.mv	s0, a0
   1631c: 83 39 05 22  	ld	s3, 0x220(a0)
   16320: 03 b5 09 02  	ld	a0, 0x20(s3)
   16324: 61 c5        	c.beqz	a0, 0x163ec <start_output_pass+0xd6>
   16326: 28 50        	c.lw	a0, 0x60(s0)
   16328: 45 cd        	c.beqz	a0, 0x163e0 <start_output_pass+0xca>
   1632a: 03 25 04 13  	lw	a0, 0x130(s0)
   1632e: 4d c9        	c.beqz	a0, 0x163e0 <start_output_pass+0xca>
   16330: 48 7c        	c.ld	a0, 0xb8(s0)
   16332: 5d c5        	c.beqz	a0, 0x163e0 <start_output_pass+0xca>
   16334: 03 b9 89 0d  	ld	s2, 0xd8(s3)
   16338: 63 1f 09 00  	bne	s2, zero, 0x16356 <start_output_pass+0x40>
   1633c: 08 64        	c.ld	a0, 0x8(s0)
   1633e: 04 61        	c.ld	s1, 0x0(a0)
   16340: 08 58        	c.lw	a0, 0x30(s0)
   16342: e1 45        	c.li	a1, 0x18
   16344: ef 90 c1 74  	jal	ra, 0x2fa90 <__muldi3>
   16348: 2a 86        	c.mv	a2, a0
   1634a: 85 45        	c.li	a1, 0x1
   1634c: 22 85        	c.mv	a0, s0
   1634e: 82 94        	c.jalr	s1
   16350: 2a 89        	c.mv	s2, a0
   16352: 23 bc a9 0c  	sd	a0, 0xd8(s3)
   16356: 08 58        	c.lw	a0, 0x30(s0)
   16358: 63 54 a0 08  	bge	zero, a0, 0x163e0 <start_output_pass+0xca>
   1635c: 03 3a 84 12  	ld	s4, 0x128(s0)
   16360: 81 4a        	c.li	s5, 0x0
   16362: 81 44        	c.li	s1, 0x0
   16364: 13 0b 49 00  	addi	s6, s2, 0x4
   16368: 91 4b        	c.li	s7, 0x4
   1636a: e1 45        	c.li	a1, 0x18
   1636c: 56 85        	c.mv	a0, s5
   1636e: ef 90 21 72  	jal	ra, 0x2fa90 <__muldi3>
   16372: 83 35 0a 05  	ld	a1, 0x50(s4)
   16376: ad c5        	c.beqz	a1, 0x163e0 <start_output_pass+0xca>
   16378: 03 d6 05 00  	lhu	a2, 0x0(a1)
   1637c: 35 c2        	c.beqz	a2, 0x163e0 <start_output_pass+0xca>
   1637e: 03 d6 25 00  	lhu	a2, 0x2(a1)
   16382: 39 ce        	c.beqz	a2, 0x163e0 <start_output_pass+0xca>
   16384: 03 d6 05 01  	lhu	a2, 0x10(a1)
   16388: 21 ce        	c.beqz	a2, 0x163e0 <start_output_pass+0xca>
   1638a: 03 d6 05 02  	lhu	a2, 0x20(a1)
   1638e: 29 ca        	c.beqz	a2, 0x163e0 <start_output_pass+0xca>
   16390: 03 d6 25 01  	lhu	a2, 0x12(a1)
   16394: 31 c6        	c.beqz	a2, 0x163e0 <start_output_pass+0xca>
   16396: 83 d5 45 00  	lhu	a1, 0x4(a1)
   1639a: b9 c1        	c.beqz	a1, 0x163e0 <start_output_pass+0xca>
   1639c: 4c 7c        	c.ld	a1, 0xb8(s0)
   1639e: 13 96 8a 00  	slli	a2, s5, 0x8
   163a2: 2e 96        	c.add	a2, a1
   163a4: 10 42        	c.lw	a2, 0x0(a2)
   163a6: 63 4d 06 02  	blt	a2, zero, 0x163e0 <start_output_pass+0xca>
   163aa: 4a 95        	c.add	a0, s2
   163ac: 61 05        	c.addi	a0, 0x18
   163ae: de 95        	c.add	a1, s7
   163b0: 5a 86        	c.mv	a2, s6
   163b2: 94 41        	c.lw	a3, 0x0(a1)
   163b4: 14 c2        	c.sw	a3, 0x0(a2)
   163b6: 91 c2        	c.beqz	a3, 0x163ba <start_output_pass+0xa4>
   163b8: 85 44        	c.li	s1, 0x1
   163ba: 11 06        	c.addi	a2, 0x4
   163bc: 91 05        	c.addi	a1, 0x4
   163be: e3 1a a6 fe  	bne	a2, a0, 0x163b2 <start_output_pass+0x9c>
   163c2: 08 58        	c.lw	a0, 0x30(s0)
   163c4: 85 0a        	c.addi	s5, 0x1
   163c6: 13 0a 0a 06  	addi	s4, s4, 0x60
   163ca: 61 0b        	c.addi	s6, 0x18
   163cc: 93 8b 0b 10  	addi	s7, s7, 0x100
   163d0: e3 cd aa f8  	blt	s5, a0, 0x1636a <start_output_pass+0x54>
   163d4: 91 c4        	c.beqz	s1, 0x163e0 <start_output_pass+0xca>
   163d6: 37 75 01 00  	lui	a0, 0x17
   163da: 13 05 c5 86  	addi	a0, a0, -0x794
   163de: 29 a0        	c.j	0x163e8 <start_output_pass+0xd2>
   163e0: 37 65 01 00  	lui	a0, 0x16
   163e4: 13 05 85 55  	addi	a0, a0, 0x558
   163e8: 23 bc a9 00  	sd	a0, 0x18(s3)
   163ec: 23 28 04 0a  	sw	zero, 0xb0(s0)
   163f0: 6f 90 e1 67  	jal	zero, 0x2fa6e <__riscv_restore_9>

00000000000163f4 <consume_data>:
   163f4: ef 92 61 62  	jal	t0, 0x2fa1a <__riscv_save_12>
   163f8: 79 71        	c.addi16sp	sp, -0x30
   163fa: 2a 89        	c.mv	s2, a0
   163fc: 03 25 05 1a  	lw	a0, 0x1a0(a0)
   16400: 03 3c 09 22  	ld	s8, 0x220(s2)
   16404: 63 56 a0 04  	bge	zero, a0, 0x16450 <consume_data+0x5c>
   16408: 01 4b        	c.li	s6, 0x0
   1640a: 93 04 89 1a  	addi	s1, s2, 0x1a8
   1640e: 00 08        	c.addi4spn	s0, sp, 0x10
   16410: 88 60        	c.ld	a0, 0x0(s1)
   16412: 83 35 89 00  	ld	a1, 0x8(s2)
   16416: 50 41        	c.lw	a2, 0x4(a0)
   16418: 03 ba 05 04  	ld	s4, 0x40(a1)
   1641c: 0e 06        	c.slli	a2, 0x3
   1641e: 62 96        	c.add	a2, s8
   16420: 83 39 86 08  	ld	s3, 0x88(a2)
   16424: 83 25 89 0a  	lw	a1, 0xa8(s2)
   16428: 83 2a c5 00  	lw	s5, 0xc(a0)
   1642c: 56 85        	c.mv	a0, s5
   1642e: ef 90 21 66  	jal	ra, 0x2fa90 <__muldi3>
   16432: 1b 06 05 00  	addiw	a2, a0, 0x0
   16436: 05 47        	c.li	a4, 0x1
   16438: 4a 85        	c.mv	a0, s2
   1643a: ce 85        	c.mv	a1, s3
   1643c: d6 86        	c.mv	a3, s5
   1643e: 02 9a        	c.jalr	s4
   16440: 83 25 09 1a  	lw	a1, 0x1a0(s2)
   16444: 08 e0        	c.sd	a0, 0x0(s0)
   16446: 05 0b        	c.addi	s6, 0x1
   16448: 21 04        	c.addi	s0, 0x8
   1644a: a1 04        	c.addi	s1, 0x8
   1644c: e3 42 bb fc  	blt	s6, a1, 0x16410 <consume_data+0x1c>
   16450: 03 26 cc 02  	lw	a2, 0x2c(s8)
   16454: 03 25 0c 03  	lw	a0, 0x30(s8)
   16458: 63 53 a6 0c  	bge	a2, a0, 0x1651e <consume_data+0x12a>
   1645c: 83 29 8c 02  	lw	s3, 0x28(s8)
   16460: 83 25 89 1c  	lw	a1, 0x1c8(s2)
   16464: 93 0d 8c 03  	addi	s11, s8, 0x38
   16468: 13 0b 0c 04  	addi	s6, s8, 0x40
   1646c: 93 0b 01 01  	addi	s7, sp, 0x10
   16470: 62 e0        	c.sdsp	s8, 0x0(sp)
   16472: 63 f0 b9 0a  	bgeu	s3, a1, 0x16512 <consume_data+0x11e>
   16476: 32 e4        	c.sdsp	a2, 0x8(sp)
   16478: 13 1c 36 00  	slli	s8, a2, 0x3
   1647c: 83 2c 09 1a  	lw	s9, 0x1a0(s2)
   16480: 63 59 90 07  	bge	zero, s9, 0x164f2 <consume_data+0xfe>
   16484: 01 4d        	c.li	s10, 0x0
   16486: 81 44        	c.li	s1, 0x0
   16488: 13 1a 3d 00  	slli	s4, s10, 0x3
   1648c: 33 05 49 01  	add	a0, s2, s4
   16490: 03 35 85 1a  	ld	a0, 0x1a8(a0)
   16494: 83 2a 85 03  	lw	s5, 0x38(a0)
   16498: 63 5a 50 05  	bge	zero, s5, 0x164ec <consume_data+0xf8>
   1649c: 40 59        	c.lw	s0, 0x34(a0)
   1649e: 22 85        	c.mv	a0, s0
   164a0: ce 85        	c.mv	a1, s3
   164a2: ef 90 e1 5e  	jal	ra, 0x2fa90 <__muldi3>
   164a6: 5e 9a        	c.add	s4, s7
   164a8: 03 38 0a 00  	ld	a6, 0x0(s4)
   164ac: 81 45        	c.li	a1, 0x0
   164ae: 02 15        	c.slli	a0, 0x20
   164b0: 01 91        	c.srli	a0, 0x20
   164b2: 62 98        	c.add	a6, s8
   164b4: 13 06 f4 ff  	addi	a2, s0, -0x1
   164b8: 02 16        	c.slli	a2, 0x20
   164ba: 75 82        	c.srli	a2, 0x1d
   164bc: 5a 96        	c.add	a2, s6
   164be: 1e 05        	c.slli	a0, 0x7
   164c0: 63 53 80 02  	bge	zero, s0, 0x164e6 <consume_data+0xf2>
   164c4: 93 96 35 00  	slli	a3, a1, 0x3
   164c8: c2 96        	c.add	a3, a6
   164ca: 94 62        	c.ld	a3, 0x0(a3)
   164cc: 93 97 34 00  	slli	a5, s1, 0x3
   164d0: 33 07 f6 00  	add	a4, a2, a5
   164d4: aa 96        	c.add	a3, a0
   164d6: ee 97        	c.add	a5, s11
   164d8: a1 9c        	c.addw	s1, s0
   164da: 94 e3        	c.sd	a3, 0x0(a5)
   164dc: 93 86 06 08  	addi	a3, a3, 0x80
   164e0: a1 07        	c.addi	a5, 0x8
   164e2: e3 9c e7 fe  	bne	a5, a4, 0x164da <consume_data+0xe6>
   164e6: 85 05        	c.addi	a1, 0x1
   164e8: e3 9c 55 fd  	bne	a1, s5, 0x164c0 <consume_data+0xcc>
   164ec: 05 0d        	c.addi	s10, 0x1
   164ee: e3 1d 9d f9  	bne	s10, s9, 0x16488 <consume_data+0x94>
   164f2: 03 35 09 24  	ld	a0, 0x240(s2)
   164f6: 10 65        	c.ld	a2, 0x8(a0)
   164f8: 4a 85        	c.mv	a0, s2
   164fa: ee 85        	c.mv	a1, s11
   164fc: 02 96        	c.jalr	a2
   164fe: 15 cd        	c.beqz	a0, 0x1653a <consume_data+0x146>
   16500: 83 25 89 1c  	lw	a1, 0x1c8(s2)
   16504: 85 29        	c.addiw	s3, 0x1
   16506: e3 eb b9 f6  	bltu	s3, a1, 0x1647c <consume_data+0x88>
   1650a: 02 6c        	c.ldsp	s8, 0x0(sp)
   1650c: 03 25 0c 03  	lw	a0, 0x30(s8)
   16510: 22 66        	c.ldsp	a2, 0x8(sp)
   16512: 81 49        	c.li	s3, 0x0
   16514: 05 06        	c.addi	a2, 0x1
   16516: 23 24 0c 02  	sw	zero, 0x28(s8)
   1651a: e3 4c a6 f4  	blt	a2, a0, 0x16472 <consume_data+0x7e>
   1651e: 03 25 89 0a  	lw	a0, 0xa8(s2)
   16522: 83 25 09 19  	lw	a1, 0x190(s2)
   16526: 05 25        	c.addiw	a0, 0x1
   16528: 23 24 a9 0a  	sw	a0, 0xa8(s2)
   1652c: 63 7d b5 00  	bgeu	a0, a1, 0x16546 <consume_data+0x152>
   16530: 4a 85        	c.mv	a0, s2
   16532: ef 00 80 30  	jal	ra, 0x1683a <start_iMCU_row>
   16536: 0d 45        	c.li	a0, 0x3
   16538: 29 a8        	c.j	0x16552 <consume_data+0x15e>
   1653a: 82 65        	c.ldsp	a1, 0x0(sp)
   1653c: 22 66        	c.ldsp	a2, 0x8(sp)
   1653e: d0 d5        	c.sw	a2, 0x2c(a1)
   16540: 23 a4 35 03  	sw	s3, 0x28(a1)
   16544: 39 a0        	c.j	0x16552 <consume_data+0x15e>
   16546: 03 35 09 23  	ld	a0, 0x230(s2)
   1654a: 0c 6d        	c.ld	a1, 0x18(a0)
   1654c: 4a 85        	c.mv	a0, s2
   1654e: 82 95        	c.jalr	a1
   16550: 11 45        	c.li	a0, 0x4
   16552: 45 61        	c.addi16sp	sp, 0x30
   16554: 6f 90 01 51  	jal	zero, 0x2fa64 <__riscv_restore_12>

0000000000016558 <decompress_data>:
   16558: ef 92 21 4c  	jal	t0, 0x2fa1a <__riscv_save_12>
   1655c: 41 11        	c.addi	sp, -0x10
   1655e: 2a 8a        	c.mv	s4, a0
   16560: 03 2c 05 19  	lw	s8, 0x190(a0)
   16564: 03 35 05 22  	ld	a0, 0x220(a0)
   16568: 2a e4        	c.sdsp	a0, 0x8(sp)
   1656a: 2e e0        	c.sdsp	a1, 0x0(sp)
   1656c: 7d 3c        	c.addiw	s8, -0x1
   1656e: 03 25 4a 0a  	lw	a0, 0xa4(s4)
   16572: 83 25 ca 0a  	lw	a1, 0xac(s4)
   16576: 63 4a b5 00  	blt	a0, a1, 0x1658a <decompress_data+0x32>
   1657a: 63 1f b5 00  	bne	a0, a1, 0x16598 <decompress_data+0x40>
   1657e: 03 25 8a 0a  	lw	a0, 0xa8(s4)
   16582: 83 25 0a 0b  	lw	a1, 0xb0(s4)
   16586: 63 e9 a5 00  	bltu	a1, a0, 0x16598 <decompress_data+0x40>
   1658a: 03 35 0a 23  	ld	a0, 0x230(s4)
   1658e: 0c 61        	c.ld	a1, 0x0(a0)
   16590: 52 85        	c.mv	a0, s4
   16592: 82 95        	c.jalr	a1
   16594: 69 fd        	c.bnez	a0, 0x1656e <decompress_data+0x16>
   16596: f5 a0        	c.j	0x16682 <decompress_data+0x12a>
   16598: 03 25 0a 03  	lw	a0, 0x30(s4)
   1659c: 63 57 a0 0c  	bge	zero, a0, 0x1666a <decompress_data+0x112>
   165a0: 03 3b 8a 12  	ld	s6, 0x128(s4)
   165a4: 81 4c        	c.li	s9, 0x0
   165a6: 03 25 0b 03  	lw	a0, 0x30(s6)
   165aa: 4d c9        	c.beqz	a0, 0x1665c <decompress_data+0x104>
   165ac: 03 35 8a 00  	ld	a0, 0x8(s4)
   165b0: 83 39 05 04  	ld	s3, 0x40(a0)
   165b4: 13 99 3c 00  	slli	s2, s9, 0x3
   165b8: 22 65        	c.ldsp	a0, 0x8(sp)
   165ba: 4a 95        	c.add	a0, s2
   165bc: 40 65        	c.ld	s0, 0x88(a0)
   165be: 83 25 0a 0b  	lw	a1, 0xb0(s4)
   165c2: 83 24 cb 00  	lw	s1, 0xc(s6)
   165c6: 26 85        	c.mv	a0, s1
   165c8: ef 90 81 4c  	jal	ra, 0x2fa90 <__muldi3>
   165cc: 1b 06 05 00  	addiw	a2, a0, 0x0
   165d0: 52 85        	c.mv	a0, s4
   165d2: a2 85        	c.mv	a1, s0
   165d4: a6 86        	c.mv	a3, s1
   165d6: 01 47        	c.li	a4, 0x0
   165d8: 82 99        	c.jalr	s3
   165da: 83 25 0a 0b  	lw	a1, 0xb0(s4)
   165de: aa 89        	c.mv	s3, a0
   165e0: 63 f5 85 01  	bgeu	a1, s8, 0x165ea <decompress_data+0x92>
   165e4: 03 2d cb 00  	lw	s10, 0xc(s6)
   165e8: 21 a8        	c.j	0x16600 <decompress_data+0xa8>
   165ea: 03 2d cb 00  	lw	s10, 0xc(s6)
   165ee: 03 65 0b 02  	lwu	a0, 0x20(s6)
   165f2: 93 15 0d 02  	slli	a1, s10, 0x20
   165f6: 81 91        	c.srli	a1, 0x20
   165f8: ef 90 c1 50  	jal	ra, 0x2fb04 <__umoddi3>
   165fc: 11 c1        	c.beqz	a0, 0x16600 <decompress_data+0xa8>
   165fe: 2a 8d        	c.mv	s10, a0
   16600: 01 2d        	c.addiw	s10, 0x0
   16602: 63 5d a0 05  	bge	zero, s10, 0x1665c <decompress_data+0x104>
   16606: 03 35 8a 24  	ld	a0, 0x248(s4)
   1660a: 4a 95        	c.add	a0, s2
   1660c: 83 3d 85 00  	ld	s11, 0x8(a0)
   16610: 02 65        	c.ldsp	a0, 0x0(sp)
   16612: 2a 99        	c.add	s2, a0
   16614: 83 3a 09 00  	ld	s5, 0x0(s2)
   16618: 03 25 cb 01  	lw	a0, 0x1c(s6)
   1661c: 01 49        	c.li	s2, 0x0
   1661e: 05 c9        	c.beqz	a0, 0x1664e <decompress_data+0xf6>
   16620: 13 15 39 00  	slli	a0, s2, 0x3
   16624: 4e 95        	c.add	a0, s3
   16626: 00 61        	c.ld	s0, 0x0(a0)
   16628: 81 44        	c.li	s1, 0x0
   1662a: 81 4b        	c.li	s7, 0x0
   1662c: 52 85        	c.mv	a0, s4
   1662e: da 85        	c.mv	a1, s6
   16630: 22 86        	c.mv	a2, s0
   16632: d6 86        	c.mv	a3, s5
   16634: 26 87        	c.mv	a4, s1
   16636: 82 9d        	c.jalr	s11
   16638: 83 25 4b 02  	lw	a1, 0x24(s6)
   1663c: 03 25 cb 01  	lw	a0, 0x1c(s6)
   16640: 13 04 04 08  	addi	s0, s0, 0x80
   16644: 85 2b        	c.addiw	s7, 0x1
   16646: ad 9c        	c.addw	s1, a1
   16648: e3 e2 ab fe  	bltu	s7, a0, 0x1662c <decompress_data+0xd4>
   1664c: 19 a0        	c.j	0x16652 <decompress_data+0xfa>
   1664e: 83 25 4b 02  	lw	a1, 0x24(s6)
   16652: 8e 05        	c.slli	a1, 0x3
   16654: 05 09        	c.addi	s2, 0x1
   16656: ae 9a        	c.add	s5, a1
   16658: e3 13 a9 fd  	bne	s2, s10, 0x1661e <decompress_data+0xc6>
   1665c: 03 25 0a 03  	lw	a0, 0x30(s4)
   16660: 85 0c        	c.addi	s9, 0x1
   16662: 13 0b 0b 06  	addi	s6, s6, 0x60
   16666: e3 c0 ac f4  	blt	s9, a0, 0x165a6 <decompress_data+0x4e>
   1666a: 03 25 0a 0b  	lw	a0, 0xb0(s4)
   1666e: 83 25 0a 19  	lw	a1, 0x190(s4)
   16672: 05 25        	c.addiw	a0, 0x1
   16674: 23 28 aa 0a  	sw	a0, 0xb0(s4)
   16678: 33 35 b5 00  	sltu	a0, a0, a1
   1667c: 91 45        	c.li	a1, 0x4
   1667e: 33 85 a5 40  	sub	a0, a1, a0
   16682: 41 01        	c.addi	sp, 0x10
   16684: 6f 90 01 3e  	jal	zero, 0x2fa64 <__riscv_restore_12>

0000000000016688 <dummy_consume_data>:
   16688: 01 45        	c.li	a0, 0x0
   1668a: 82 80        	c.jr	ra

000000000001668c <decompress_onepass>:
   1668c: ef 92 e1 38  	jal	t0, 0x2fa1a <__riscv_save_12>
   16690: 5d 71        	c.addi16sp	sp, -0x50
   16692: aa 8b        	c.mv	s7, a0
   16694: 03 34 05 22  	ld	s0, 0x220(a0)
   16698: 50 54        	c.lw	a2, 0x2c(s0)
   1669a: 08 58        	c.lw	a0, 0x30(s0)
   1669c: 83 ad 0b 19  	lw	s11, 0x190(s7)
   166a0: 2e e8        	c.sdsp	a1, 0x10(sp)
   166a2: 32 f8        	c.sdsp	a2, 0x30(sp)
   166a4: 63 5c a6 14  	bge	a2, a0, 0x167fc <decompress_onepass+0x170>
   166a8: 83 a5 8b 1c  	lw	a1, 0x1c8(s7)
   166ac: 03 2a 84 02  	lw	s4, 0x28(s0)
   166b0: fd 35        	c.addiw	a1, -0x1
   166b2: 2e f0        	c.sdsp	a1, 0x20(sp)
   166b4: fd 3d        	c.addiw	s11, -0x1
   166b6: ee e4        	c.sdsp	s11, 0x48(sp)
   166b8: 93 05 84 03  	addi	a1, s0, 0x38
   166bc: 2e fc        	c.sdsp	a1, 0x38(sp)
   166be: 22 e4        	c.sdsp	s0, 0x8(sp)
   166c0: 82 75        	c.ldsp	a1, 0x20(sp)
   166c2: 63 e3 45 13  	bltu	a1, s4, 0x167e8 <decompress_onepass+0x15c>
   166c6: 83 a5 0b 1d  	lw	a1, 0x1d0(s7)
   166ca: e2 74        	c.ldsp	s1, 0x38(sp)
   166cc: 88 60        	c.ld	a0, 0x0(s1)
   166ce: 9e 05        	c.slli	a1, 0x7
   166d0: ef 40 40 60  	jal	ra, 0x1acd4 <jzero_far>
   166d4: 03 b5 0b 24  	ld	a0, 0x240(s7)
   166d8: 10 65        	c.ld	a2, 0x8(a0)
   166da: 5e 85        	c.mv	a0, s7
   166dc: a6 85        	c.mv	a1, s1
   166de: 02 96        	c.jalr	a2
   166e0: 63 0f 05 12  	beq	a0, zero, 0x1681e <decompress_onepass+0x192>
   166e4: 83 aa 0b 1a  	lw	s5, 0x1a0(s7)
   166e8: 63 5a 50 0f  	bge	zero, s5, 0x167dc <decompress_onepass+0x150>
   166ec: 81 44        	c.li	s1, 0x0
   166ee: 01 49        	c.li	s2, 0x0
   166f0: 52 ec        	c.sdsp	s4, 0x18(sp)
   166f2: 13 94 34 00  	slli	s0, s1, 0x3
   166f6: 33 85 8b 00  	add	a0, s7, s0
   166fa: 03 3c 85 1a  	ld	s8, 0x1a8(a0)
   166fe: 03 25 0c 03  	lw	a0, 0x30(s8)
   16702: 71 c5        	c.beqz	a0, 0x167ce <decompress_onepass+0x142>
   16704: 03 25 4c 00  	lw	a0, 0x4(s8)
   16708: 83 b5 8b 24  	ld	a1, 0x248(s7)
   1670c: 0e 05        	c.slli	a0, 0x3
   1670e: 2e 95        	c.add	a0, a1
   16710: 03 3d 85 00  	ld	s10, 0x8(a0)
   16714: 03 25 0c 04  	lw	a0, 0x40(s8)
   16718: d2 85        	c.mv	a1, s4
   1671a: ef 90 61 37  	jal	ra, 0x2fa90 <__muldi3>
   1671e: 83 29 8c 03  	lw	s3, 0x38(s8)
   16722: aa e0        	c.sdsp	a0, 0x40(sp)
   16724: 63 59 30 0b  	bge	zero, s3, 0x167d6 <decompress_onepass+0x14a>
   16728: 13 05 40 03  	addi	a0, zero, 0x34
   1672c: 82 75        	c.ldsp	a1, 0x20(sp)
   1672e: 63 64 ba 00  	bltu	s4, a1, 0x16736 <decompress_onepass+0xaa>
   16732: 13 05 40 04  	addi	a0, zero, 0x44
   16736: 26 f4        	c.sdsp	s1, 0x28(sp)
   16738: 62 95        	c.add	a0, s8
   1673a: 03 2a 05 00  	lw	s4, 0x0(a0)
   1673e: 42 65        	c.ldsp	a0, 0x10(sp)
   16740: b3 04 85 00  	add	s1, a0, s0
   16744: 84 60        	c.ld	s1, 0x0(s1)
   16746: 03 24 4c 02  	lw	s0, 0x24(s8)
   1674a: 22 85        	c.mv	a0, s0
   1674c: c2 75        	c.ldsp	a1, 0x30(sp)
   1674e: ef 90 21 34  	jal	ra, 0x2fa90 <__muldi3>
   16752: d2 85        	c.mv	a1, s4
   16754: 63 43 40 01  	blt	zero, s4, 0x1675a <decompress_onepass+0xce>
   16758: 85 45        	c.li	a1, 0x1
   1675a: 81 4a        	c.li	s5, 0x0
   1675c: 01 25        	c.addiw	a0, 0x0
   1675e: 0e 05        	c.slli	a0, 0x3
   16760: b3 8d a4 00  	add	s11, s1, a0
   16764: 8e 05        	c.slli	a1, 0x3
   16766: e2 7c        	c.ldsp	s9, 0x38(sp)
   16768: ae 9c        	c.add	s9, a1
   1676a: 03 a5 8b 0a  	lw	a0, 0xa8(s7)
   1676e: a6 65        	c.ldsp	a1, 0x48(sp)
   16770: 63 69 b5 00  	bltu	a0, a1, 0x16782 <decompress_onepass+0xf6>
   16774: 03 25 8c 04  	lw	a0, 0x48(s8)
   16778: c2 75        	c.ldsp	a1, 0x30(sp)
   1677a: bb 85 ba 00  	addw	a1, s5, a1
   1677e: 63 d9 a5 02  	bge	a1, a0, 0x167b0 <decompress_onepass+0x124>
   16782: 63 57 40 03  	bge	zero, s4, 0x167b0 <decompress_onepass+0x124>
   16786: 93 19 39 00  	slli	s3, s2, 0x3
   1678a: e2 74        	c.ldsp	s1, 0x38(sp)
   1678c: ce 94        	c.add	s1, s3
   1678e: e6 99        	c.add	s3, s9
   16790: 06 6b        	c.ldsp	s6, 0x40(sp)
   16792: 90 60        	c.ld	a2, 0x0(s1)
   16794: 1b 07 0b 00  	addiw	a4, s6, 0x0
   16798: 5e 85        	c.mv	a0, s7
   1679a: e2 85        	c.mv	a1, s8
   1679c: ee 86        	c.mv	a3, s11
   1679e: 02 9d        	c.jalr	s10
   167a0: 03 24 4c 02  	lw	s0, 0x24(s8)
   167a4: a1 04        	c.addi	s1, 0x8
   167a6: 22 9b        	c.add	s6, s0
   167a8: e3 95 34 ff  	bne	s1, s3, 0x16792 <decompress_onepass+0x106>
   167ac: 83 29 8c 03  	lw	s3, 0x38(s8)
   167b0: 03 25 4c 03  	lw	a0, 0x34(s8)
   167b4: 3b 09 25 01  	addw	s2, a0, s2
   167b8: 13 15 34 00  	slli	a0, s0, 0x3
   167bc: 85 2a        	c.addiw	s5, 0x1
   167be: aa 9d        	c.add	s11, a0
   167c0: e3 c5 3a fb  	blt	s5, s3, 0x1676a <decompress_onepass+0xde>
   167c4: 83 aa 0b 1a  	lw	s5, 0x1a0(s7)
   167c8: 62 6a        	c.ldsp	s4, 0x18(sp)
   167ca: a2 74        	c.ldsp	s1, 0x28(sp)
   167cc: 29 a0        	c.j	0x167d6 <decompress_onepass+0x14a>
   167ce: 03 25 cc 03  	lw	a0, 0x3c(s8)
   167d2: 3b 09 25 01  	addw	s2, a0, s2
   167d6: 85 04        	c.addi	s1, 0x1
   167d8: e3 cd 54 f1  	blt	s1, s5, 0x166f2 <decompress_onepass+0x66>
   167dc: 05 2a        	c.addiw	s4, 0x1
   167de: 22 64        	c.ldsp	s0, 0x8(sp)
   167e0: 02 75        	c.ldsp	a0, 0x20(sp)
   167e2: e3 72 45 ef  	bgeu	a0, s4, 0x166c6 <decompress_onepass+0x3a>
   167e6: 08 58        	c.lw	a0, 0x30(s0)
   167e8: 01 4a        	c.li	s4, 0x0
   167ea: c2 75        	c.ldsp	a1, 0x30(sp)
   167ec: 85 25        	c.addiw	a1, 0x1
   167ee: 23 24 04 02  	sw	zero, 0x28(s0)
   167f2: 2e f8        	c.sdsp	a1, 0x30(sp)
   167f4: e3 c6 a5 ec  	blt	a1, a0, 0x166c0 <decompress_onepass+0x34>
   167f8: 83 ad 0b 19  	lw	s11, 0x190(s7)
   167fc: 03 a5 0b 0b  	lw	a0, 0xb0(s7)
   16800: 83 a5 8b 0a  	lw	a1, 0xa8(s7)
   16804: 05 05        	c.addi	a0, 0x1
   16806: 23 a8 ab 0a  	sw	a0, 0xb0(s7)
   1680a: 85 25        	c.addiw	a1, 0x1
   1680c: 23 a4 bb 0a  	sw	a1, 0xa8(s7)
   16810: 63 fc b5 01  	bgeu	a1, s11, 0x16828 <decompress_onepass+0x19c>
   16814: 5e 85        	c.mv	a0, s7
   16816: ef 00 40 02  	jal	ra, 0x1683a <start_iMCU_row>
   1681a: 0d 45        	c.li	a0, 0x3
   1681c: 21 a8        	c.j	0x16834 <decompress_onepass+0x1a8>
   1681e: c2 75        	c.ldsp	a1, 0x30(sp)
   16820: 4c d4        	c.sw	a1, 0x2c(s0)
   16822: 23 24 44 03  	sw	s4, 0x28(s0)
   16826: 39 a0        	c.j	0x16834 <decompress_onepass+0x1a8>
   16828: 03 b5 0b 23  	ld	a0, 0x230(s7)
   1682c: 0c 6d        	c.ld	a1, 0x18(a0)
   1682e: 5e 85        	c.mv	a0, s7
   16830: 82 95        	c.jalr	a1
   16832: 11 45        	c.li	a0, 0x4
   16834: 61 61        	c.addi16sp	sp, 0x50
   16836: 6f 90 e1 22  	jal	zero, 0x2fa64 <__riscv_restore_12>

000000000001683a <start_iMCU_row>:
   1683a: 03 26 05 1a  	lw	a2, 0x1a0(a0)
   1683e: 83 35 05 22  	ld	a1, 0x220(a0)
   16842: 89 46        	c.li	a3, 0x2
   16844: 63 44 d6 00  	blt	a2, a3, 0x1684c <start_iMCU_row+0x12>
   16848: 05 45        	c.li	a0, 0x1
   1684a: 29 a8        	c.j	0x16864 <start_iMCU_row+0x2a>
   1684c: 03 26 05 19  	lw	a2, 0x190(a0)
   16850: 83 26 85 0a  	lw	a3, 0xa8(a0)
   16854: 03 35 85 1a  	ld	a0, 0x1a8(a0)
   16858: 7d 36        	c.addiw	a2, -0x1
   1685a: 63 f4 c6 00  	bgeu	a3, a2, 0x16862 <start_iMCU_row+0x28>
   1685e: 48 45        	c.lw	a0, 0xc(a0)
   16860: 11 a0        	c.j	0x16864 <start_iMCU_row+0x2a>
   16862: 28 45        	c.lw	a0, 0x48(a0)
   16864: 88 d9        	c.sw	a0, 0x30(a1)
   16866: 23 b4 05 02  	sd	zero, 0x28(a1)
   1686a: 82 80        	c.jr	ra

000000000001686c <decompress_smooth_data>:
   1686c: ef 92 e1 1a  	jal	t0, 0x2fa1a <__riscv_save_12>
   16870: 09 71        	c.addi16sp	sp, -0x180
   16872: 2a 8d        	c.mv	s10, a0
   16874: 03 25 05 19  	lw	a0, 0x190(a0)
   16878: 03 36 0d 22  	ld	a2, 0x220(s10)
   1687c: 32 e8        	c.sdsp	a2, 0x10(sp)
   1687e: 2e e4        	c.sdsp	a1, 0x8(sp)
   16880: 7d 35        	c.addiw	a0, -0x1
   16882: aa e0        	c.sdsp	a0, 0x40(sp)
   16884: 83 25 4d 0a  	lw	a1, 0xa4(s10)
   16888: 03 26 cd 0a  	lw	a2, 0xac(s10)
   1688c: 63 48 b6 02  	blt	a2, a1, 0x168bc <decompress_smooth_data+0x50>
   16890: 03 35 0d 23  	ld	a0, 0x230(s10)
   16894: 54 51        	c.lw	a3, 0x24(a0)
   16896: 9d e2        	c.bnez	a3, 0x168bc <decompress_smooth_data+0x50>
   16898: 63 9d c5 00  	bne	a1, a2, 0x168b2 <decompress_smooth_data+0x46>
   1689c: 83 25 cd 1f  	lw	a1, 0x1fc(s10)
   168a0: 03 26 0d 0b  	lw	a2, 0xb0(s10)
   168a4: 83 26 8d 0a  	lw	a3, 0xa8(s10)
   168a8: 93 b5 15 00  	sltiu	a1, a1, 0x1
   168ac: b1 9d        	c.addw	a1, a2
   168ae: 63 e7 d5 00  	bltu	a1, a3, 0x168bc <decompress_smooth_data+0x50>
   168b2: 0c 61        	c.ld	a1, 0x0(a0)
   168b4: 6a 85        	c.mv	a0, s10
   168b6: 82 95        	c.jalr	a1
   168b8: 71 f5        	c.bnez	a0, 0x16884 <decompress_smooth_data+0x18>
   168ba: a9 a1        	c.j	0x16d04 <decompress_smooth_data+0x498>
   168bc: 03 25 0d 03  	lw	a0, 0x30(s10)
   168c0: 63 56 a0 42  	bge	zero, a0, 0x16cec <decompress_smooth_data+0x480>
   168c4: 03 34 8d 12  	ld	s0, 0x128(s10)
   168c8: 02 ec        	c.sdsp	zero, 0x18(sp)
   168ca: 08 58        	c.lw	a0, 0x30(s0)
   168cc: 63 07 05 40  	beq	a0, zero, 0x16cda <decompress_smooth_data+0x46e>
   168d0: 03 2c 0d 0b  	lw	s8, 0xb0(s10)
   168d4: 06 65        	c.ldsp	a0, 0x40(sp)
   168d6: 63 6e ac 00  	bltu	s8, a0, 0x168f2 <decompress_smooth_data+0x86>
   168da: 03 65 04 02  	lwu	a0, 0x20(s0)
   168de: 83 64 c4 00  	lwu	s1, 0xc(s0)
   168e2: a6 85        	c.mv	a1, s1
   168e4: ef 90 01 22  	jal	ra, 0x2fb04 <__umoddi3>
   168e8: a6 86        	c.mv	a3, s1
   168ea: 11 c1        	c.beqz	a0, 0x168ee <decompress_smooth_data+0x82>
   168ec: aa 86        	c.mv	a3, a0
   168ee: 36 8a        	c.mv	s4, a3
   168f0: 29 a0        	c.j	0x168fa <decompress_smooth_data+0x8e>
   168f2: 44 44        	c.lw	s1, 0xc(s0)
   168f4: 93 96 14 00  	slli	a3, s1, 0x1
   168f8: 26 8a        	c.mv	s4, s1
   168fa: 62 6b        	c.ldsp	s6, 0x18(sp)
   168fc: 0e 0b        	c.slli	s6, 0x3
   168fe: 63 0c 0c 02  	beq	s8, zero, 0x16936 <decompress_smooth_data+0xca>
   16902: 03 35 8d 00  	ld	a0, 0x8(s10)
   16906: 83 3a 05 04  	ld	s5, 0x40(a0)
   1690a: 42 65        	c.ldsp	a0, 0x10(sp)
   1690c: 5a 95        	c.add	a0, s6
   1690e: 03 39 85 08  	ld	s2, 0x88(a0)
   16912: bb 89 d4 00  	addw	s3, s1, a3
   16916: 93 05 fc ff  	addi	a1, s8, -0x1
   1691a: 26 85        	c.mv	a0, s1
   1691c: ef 90 41 17  	jal	ra, 0x2fa90 <__muldi3>
   16920: 1b 06 05 00  	addiw	a2, a0, 0x0
   16924: 6a 85        	c.mv	a0, s10
   16926: ca 85        	c.mv	a1, s2
   16928: ce 86        	c.mv	a3, s3
   1692a: 01 47        	c.li	a4, 0x0
   1692c: 82 9a        	c.jalr	s5
   1692e: 4c 44        	c.lw	a1, 0xc(s0)
   16930: 8e 05        	c.slli	a1, 0x3
   16932: 2e 95        	c.add	a0, a1
   16934: 21 a8        	c.j	0x1694c <decompress_smooth_data+0xe0>
   16936: 03 35 8d 00  	ld	a0, 0x8(s10)
   1693a: 3c 61        	c.ld	a5, 0x40(a0)
   1693c: 42 65        	c.ldsp	a0, 0x10(sp)
   1693e: 5a 95        	c.add	a0, s6
   16940: 4c 65        	c.ld	a1, 0x88(a0)
   16942: 81 26        	c.addiw	a3, 0x0
   16944: 6a 85        	c.mv	a0, s10
   16946: 01 46        	c.li	a2, 0x0
   16948: 01 47        	c.li	a4, 0x0
   1694a: 82 97        	c.jalr	a5
   1694c: 2a fc        	c.sdsp	a0, 0x38(sp)
   1694e: 1b 05 0a 00  	addiw	a0, s4, 0x0
   16952: 2a f8        	c.sdsp	a0, 0x30(sp)
   16954: 63 53 a0 38  	bge	zero, a0, 0x16cda <decompress_smooth_data+0x46e>
   16958: 03 35 8d 24  	ld	a0, 0x248(s10)
   1695c: 5a 95        	c.add	a0, s6
   1695e: 2c 68        	c.ld	a1, 0x50(s0)
   16960: 08 65        	c.ld	a0, 0x8(a0)
   16962: 2a fd        	c.sdsp	a0, 0xb8(sp)
   16964: a2 64        	c.ldsp	s1, 0x8(sp)
   16966: da 94        	c.add	s1, s6
   16968: 88 60        	c.ld	a0, 0x0(s1)
   1696a: aa e9        	c.sdsp	a0, 0xd0(sp)
   1696c: 83 d9 45 00  	lhu	s3, 0x4(a1)
   16970: 83 da 25 01  	lhu	s5, 0x12(a1)
   16974: 03 db 05 02  	lhu	s6, 0x20(a1)
   16978: 83 db 05 01  	lhu	s7, 0x10(a1)
   1697c: 83 d4 25 00  	lhu	s1, 0x2(a1)
   16980: 03 d9 05 00  	lhu	s2, 0x0(a1)
   16984: 42 65        	c.ldsp	a0, 0x10(sp)
   16986: 83 3d 85 0d  	ld	s11, 0xd8(a0)
   1698a: e1 45        	c.li	a1, 0x18
   1698c: 62 65        	c.ldsp	a0, 0x18(sp)
   1698e: ef 90 21 10  	jal	ra, 0x2fa90 <__muldi3>
   16992: aa 9d        	c.add	s11, a0
   16994: 7d 3a        	c.addiw	s4, -0x1
   16996: 52 f0        	c.sdsp	s4, 0x20(sp)
   16998: 93 05 40 02  	addi	a1, zero, 0x24
   1699c: 4a 85        	c.mv	a0, s2
   1699e: ef 90 21 0f  	jal	ra, 0x2fa90 <__muldi3>
   169a2: 2a f9        	c.sdsp	a0, 0xb0(sp)
   169a4: 01 47        	c.li	a4, 0x0
   169a6: 13 95 74 00  	slli	a0, s1, 0x7
   169aa: 2a f1        	c.sdsp	a0, 0xa0(sp)
   169ac: a2 04        	c.slli	s1, 0x8
   169ae: 26 ed        	c.sdsp	s1, 0x98(sp)
   169b0: 13 95 7b 00  	slli	a0, s7, 0x7
   169b4: 2a e9        	c.sdsp	a0, 0x90(sp)
   169b6: a2 0b        	c.slli	s7, 0x8
   169b8: 5e e5        	c.sdsp	s7, 0x88(sp)
   169ba: 13 15 39 00  	slli	a0, s2, 0x3
   169be: 4a 95        	c.add	a0, s2
   169c0: 2a f5        	c.sdsp	a0, 0xa8(sp)
   169c2: 13 15 7b 00  	slli	a0, s6, 0x7
   169c6: 2a e1        	c.sdsp	a0, 0x80(sp)
   169c8: 22 0b        	c.slli	s6, 0x8
   169ca: da fc        	c.sdsp	s6, 0x78(sp)
   169cc: 13 15 29 00  	slli	a0, s2, 0x2
   169d0: 4a 95        	c.add	a0, s2
   169d2: aa f8        	c.sdsp	a0, 0x70(sp)
   169d4: 13 95 7a 00  	slli	a0, s5, 0x7
   169d8: aa f4        	c.sdsp	a0, 0x68(sp)
   169da: a2 0a        	c.slli	s5, 0x8
   169dc: d6 f0        	c.sdsp	s5, 0x60(sp)
   169de: 13 95 79 00  	slli	a0, s3, 0x7
   169e2: aa ec        	c.sdsp	a0, 0x58(sp)
   169e4: a2 09        	c.slli	s3, 0x8
   169e6: ce e8        	c.sdsp	s3, 0x50(sp)
   169e8: a2 e1        	c.sdsp	s0, 0xc0(sp)
   169ea: 62 f4        	c.sdsp	s8, 0x28(sp)
   169ec: 13 16 37 00  	slli	a2, a4, 0x3
   169f0: 62 75        	c.ldsp	a0, 0x38(sp)
   169f2: 2a 96        	c.add	a2, a0
   169f4: 03 3a 06 00  	ld	s4, 0x0(a2)
   169f8: 33 65 ec 00  	or	a0, s8, a4
   169fc: 9b 05 05 00  	addiw	a1, a0, 0x0
   16a00: 52 85        	c.mv	a0, s4
   16a02: 99 c1        	c.beqz	a1, 0x16a08 <decompress_smooth_data+0x19c>
   16a04: 03 35 86 ff  	ld	a0, -0x8(a2)
   16a08: 86 65        	c.ldsp	a1, 0x40(sp)
   16a0a: 63 66 bc 00  	bltu	s8, a1, 0x16a16 <decompress_smooth_data+0x1aa>
   16a0e: d2 85        	c.mv	a1, s4
   16a10: 82 76        	c.ldsp	a3, 0x20(sp)
   16a12: 63 03 d7 00  	beq	a4, a3, 0x16a18 <decompress_smooth_data+0x1ac>
   16a16: 0c 66        	c.ld	a1, 0x8(a2)
   16a18: ba e4        	c.sdsp	a4, 0x48(sp)
   16a1a: 03 19 05 00  	lh	s2, 0x0(a0)
   16a1e: 50 4c        	c.lw	a2, 0x1c(s0)
   16a20: 83 19 0a 00  	lh	s3, 0x0(s4)
   16a24: 83 9a 05 00  	lh	s5, 0x0(a1)
   16a28: 01 4c        	c.li	s8, 0x0
   16a2a: 81 4b        	c.li	s7, 0x0
   16a2c: 9b 04 f6 ff  	addiw	s1, a2, -0x1
   16a30: 13 0b 05 08  	addi	s6, a0, 0x80
   16a34: 93 8c 05 08  	addi	s9, a1, 0x80
   16a38: d6 f5        	c.sdsp	s5, 0xe8(sp)
   16a3a: ce fd        	c.sdsp	s3, 0xf8(sp)
   16a3c: ca f9        	c.sdsp	s2, 0xf0(sp)
   16a3e: a6 e5        	c.sdsp	s1, 0xc8(sp)
   16a40: 6a 84        	c.mv	s0, s10
   16a42: ca ed        	c.sdsp	s2, 0xd8(sp)
   16a44: 4e 79        	c.ldsp	s2, 0xf0(sp)
   16a46: ce f1        	c.sdsp	s3, 0xe0(sp)
   16a48: ee 79        	c.ldsp	s3, 0xf8(sp)
   16a4a: 56 8d        	c.mv	s10, s5
   16a4c: ae 7a        	c.ldsp	s5, 0xe8(sp)
   16a4e: 0c 02        	c.addi4spn	a1, sp, 0x100
   16a50: 05 46        	c.li	a2, 0x1
   16a52: 52 85        	c.mv	a0, s4
   16a54: ef 40 20 27  	jal	ra, 0x1acc6 <jcopy_block_row>
   16a58: 63 7b 9c 00  	bgeu	s8, s1, 0x16a6e <decompress_smooth_data+0x202>
   16a5c: 03 15 0b 00  	lh	a0, 0x0(s6)
   16a60: aa f9        	c.sdsp	a0, 0xf0(sp)
   16a62: 03 15 0a 08  	lh	a0, 0x80(s4)
   16a66: aa fd        	c.sdsp	a0, 0xf8(sp)
   16a68: 03 95 0c 00  	lh	a0, 0x0(s9)
   16a6c: aa f5        	c.sdsp	a0, 0xe8(sp)
   16a6e: 83 a4 4d 00  	lw	s1, 0x4(s11)
   16a72: a5 c4        	c.beqz	s1, 0x16ada <decompress_smooth_data+0x26e>
   16a74: 03 55 21 10  	lhu	a0, 0x102(sp)
   16a78: 2d e1        	c.bnez	a0, 0x16ada <decompress_smooth_data+0x26e>
   16a7a: 6e 75        	c.ldsp	a0, 0xf8(sp)
   16a7c: 8e 75        	c.ldsp	a1, 0xe0(sp)
   16a7e: 89 9d        	c.subw	a1, a0
   16a80: 4a 75        	c.ldsp	a0, 0xb0(sp)
   16a82: ef 90 e1 00  	jal	ra, 0x2fa90 <__muldi3>
   16a86: 63 43 05 02  	blt	a0, zero, 0x16aac <decompress_smooth_data+0x240>
   16a8a: 8a 75        	c.ldsp	a1, 0xa0(sp)
   16a8c: 2e 95        	c.add	a0, a1
   16a8e: ea 65        	c.ldsp	a1, 0x98(sp)
   16a90: ef 90 81 04  	jal	ra, 0x2fad8 <__udivdi3>
   16a94: 63 51 90 04  	bge	zero, s1, 0x16ad6 <decompress_smooth_data+0x26a>
   16a98: 1b 06 05 00  	addiw	a2, a0, 0x0
   16a9c: 85 45        	c.li	a1, 0x1
   16a9e: bb 95 95 00  	sllw	a1, a1, s1
   16aa2: 63 4a b6 02  	blt	a2, a1, 0x16ad6 <decompress_smooth_data+0x26a>
   16aa6: 13 85 f5 ff  	addi	a0, a1, -0x1
   16aaa: 35 a0        	c.j	0x16ad6 <decompress_smooth_data+0x26a>
   16aac: 8a 75        	c.ldsp	a1, 0xa0(sp)
   16aae: 33 85 a5 40  	sub	a0, a1, a0
   16ab2: ea 65        	c.ldsp	a1, 0x98(sp)
   16ab4: ef 90 41 02  	jal	ra, 0x2fad8 <__udivdi3>
   16ab8: 9b 06 05 00  	addiw	a3, a0, 0x0
   16abc: 85 45        	c.li	a1, 0x1
   16abe: 3b 96 95 00  	sllw	a2, a1, s1
   16ac2: aa 85        	c.mv	a1, a0
   16ac4: 63 c4 c6 00  	blt	a3, a2, 0x16acc <decompress_smooth_data+0x260>
   16ac8: 93 05 f6 ff  	addi	a1, a2, -0x1
   16acc: 63 43 90 00  	blt	zero, s1, 0x16ad2 <decompress_smooth_data+0x266>
   16ad0: aa 85        	c.mv	a1, a0
   16ad2: 3b 05 b0 40  	subw	a0, zero, a1
   16ad6: 23 11 a1 10  	sh	a0, 0x102(sp)
   16ada: 83 a4 8d 00  	lw	s1, 0x8(s11)
   16ade: bd c0        	c.beqz	s1, 0x16b44 <decompress_smooth_data+0x2d8>
   16ae0: 03 55 01 11  	lhu	a0, 0x110(sp)
   16ae4: 25 e1        	c.bnez	a0, 0x16b44 <decompress_smooth_data+0x2d8>
   16ae6: bb 05 59 41  	subw	a1, s2, s5
   16aea: 4a 75        	c.ldsp	a0, 0xb0(sp)
   16aec: ef 80 51 7a  	jal	ra, 0x2fa90 <__muldi3>
   16af0: 63 43 05 02  	blt	a0, zero, 0x16b16 <decompress_smooth_data+0x2aa>
   16af4: ca 65        	c.ldsp	a1, 0x90(sp)
   16af6: 2e 95        	c.add	a0, a1
   16af8: aa 65        	c.ldsp	a1, 0x88(sp)
   16afa: ef 80 f1 7d  	jal	ra, 0x2fad8 <__udivdi3>
   16afe: 63 51 90 04  	bge	zero, s1, 0x16b40 <decompress_smooth_data+0x2d4>
   16b02: 1b 06 05 00  	addiw	a2, a0, 0x0
   16b06: 85 45        	c.li	a1, 0x1
   16b08: bb 95 95 00  	sllw	a1, a1, s1
   16b0c: 63 4a b6 02  	blt	a2, a1, 0x16b40 <decompress_smooth_data+0x2d4>
   16b10: 13 85 f5 ff  	addi	a0, a1, -0x1
   16b14: 35 a0        	c.j	0x16b40 <decompress_smooth_data+0x2d4>
   16b16: ca 65        	c.ldsp	a1, 0x90(sp)
   16b18: 33 85 a5 40  	sub	a0, a1, a0
   16b1c: aa 65        	c.ldsp	a1, 0x88(sp)
   16b1e: ef 80 b1 7b  	jal	ra, 0x2fad8 <__udivdi3>
   16b22: 9b 06 05 00  	addiw	a3, a0, 0x0
   16b26: 85 45        	c.li	a1, 0x1
   16b28: 3b 96 95 00  	sllw	a2, a1, s1
   16b2c: aa 85        	c.mv	a1, a0
   16b2e: 63 c4 c6 00  	blt	a3, a2, 0x16b36 <decompress_smooth_data+0x2ca>
   16b32: 93 05 f6 ff  	addi	a1, a2, -0x1
   16b36: 63 43 90 00  	blt	zero, s1, 0x16b3c <decompress_smooth_data+0x2d0>
   16b3a: aa 85        	c.mv	a1, a0
   16b3c: 3b 05 b0 40  	subw	a0, zero, a1
   16b40: 23 18 a1 10  	sh	a0, 0x110(sp)
   16b44: 83 a4 cd 00  	lw	s1, 0xc(s11)
   16b48: b5 c4        	c.beqz	s1, 0x16bb4 <decompress_smooth_data+0x348>
   16b4a: 03 55 01 12  	lhu	a0, 0x120(sp)
   16b4e: 3d e1        	c.bnez	a0, 0x16bb4 <decompress_smooth_data+0x348>
   16b50: 13 95 19 00  	slli	a0, s3, 0x1
   16b54: b3 05 59 01  	add	a1, s2, s5
   16b58: 89 9d        	c.subw	a1, a0
   16b5a: 2a 75        	c.ldsp	a0, 0xa8(sp)
   16b5c: ef 80 51 73  	jal	ra, 0x2fa90 <__muldi3>
   16b60: 63 43 05 02  	blt	a0, zero, 0x16b86 <decompress_smooth_data+0x31a>
   16b64: 8a 65        	c.ldsp	a1, 0x80(sp)
   16b66: 2e 95        	c.add	a0, a1
   16b68: e6 75        	c.ldsp	a1, 0x78(sp)
   16b6a: ef 80 f1 76  	jal	ra, 0x2fad8 <__udivdi3>
   16b6e: 63 51 90 04  	bge	zero, s1, 0x16bb0 <decompress_smooth_data+0x344>
   16b72: 1b 06 05 00  	addiw	a2, a0, 0x0
   16b76: 85 45        	c.li	a1, 0x1
   16b78: bb 95 95 00  	sllw	a1, a1, s1
   16b7c: 63 4a b6 02  	blt	a2, a1, 0x16bb0 <decompress_smooth_data+0x344>
   16b80: 13 85 f5 ff  	addi	a0, a1, -0x1
   16b84: 35 a0        	c.j	0x16bb0 <decompress_smooth_data+0x344>
   16b86: 8a 65        	c.ldsp	a1, 0x80(sp)
   16b88: 33 85 a5 40  	sub	a0, a1, a0
   16b8c: e6 75        	c.ldsp	a1, 0x78(sp)
   16b8e: ef 80 b1 74  	jal	ra, 0x2fad8 <__udivdi3>
   16b92: 9b 06 05 00  	addiw	a3, a0, 0x0
   16b96: 85 45        	c.li	a1, 0x1
   16b98: 3b 96 95 00  	sllw	a2, a1, s1
   16b9c: aa 85        	c.mv	a1, a0
   16b9e: 63 c4 c6 00  	blt	a3, a2, 0x16ba6 <decompress_smooth_data+0x33a>
   16ba2: 93 05 f6 ff  	addi	a1, a2, -0x1
   16ba6: 63 43 90 00  	blt	zero, s1, 0x16bac <decompress_smooth_data+0x340>
   16baa: aa 85        	c.mv	a1, a0
   16bac: 3b 05 b0 40  	subw	a0, zero, a1
   16bb0: 23 10 a1 12  	sh	a0, 0x120(sp)
   16bb4: 83 a4 0d 01  	lw	s1, 0x10(s11)
   16bb8: a5 c8        	c.beqz	s1, 0x16c28 <decompress_smooth_data+0x3bc>
   16bba: 03 55 21 11  	lhu	a0, 0x112(sp)
   16bbe: 2d e5        	c.bnez	a0, 0x16c28 <decompress_smooth_data+0x3bc>
   16bc0: 4e 75        	c.ldsp	a0, 0xf0(sp)
   16bc2: 2a 9d        	c.add	s10, a0
   16bc4: 2e 75        	c.ldsp	a0, 0xe8(sp)
   16bc6: ee 65        	c.ldsp	a1, 0xd8(sp)
   16bc8: 2e 95        	c.add	a0, a1
   16bca: bb 05 a5 41  	subw	a1, a0, s10
   16bce: 46 75        	c.ldsp	a0, 0x70(sp)
   16bd0: ef 80 11 6c  	jal	ra, 0x2fa90 <__muldi3>
   16bd4: 63 43 05 02  	blt	a0, zero, 0x16bfa <decompress_smooth_data+0x38e>
   16bd8: a6 75        	c.ldsp	a1, 0x68(sp)
   16bda: 2e 95        	c.add	a0, a1
   16bdc: 86 75        	c.ldsp	a1, 0x60(sp)
   16bde: ef 80 b1 6f  	jal	ra, 0x2fad8 <__udivdi3>
   16be2: 63 51 90 04  	bge	zero, s1, 0x16c24 <decompress_smooth_data+0x3b8>
   16be6: 1b 06 05 00  	addiw	a2, a0, 0x0
   16bea: 85 45        	c.li	a1, 0x1
   16bec: bb 95 95 00  	sllw	a1, a1, s1
   16bf0: 63 4a b6 02  	blt	a2, a1, 0x16c24 <decompress_smooth_data+0x3b8>
   16bf4: 13 85 f5 ff  	addi	a0, a1, -0x1
   16bf8: 35 a0        	c.j	0x16c24 <decompress_smooth_data+0x3b8>
   16bfa: a6 75        	c.ldsp	a1, 0x68(sp)
   16bfc: 33 85 a5 40  	sub	a0, a1, a0
   16c00: 86 75        	c.ldsp	a1, 0x60(sp)
   16c02: ef 80 71 6d  	jal	ra, 0x2fad8 <__udivdi3>
   16c06: 9b 06 05 00  	addiw	a3, a0, 0x0
   16c0a: 85 45        	c.li	a1, 0x1
   16c0c: 3b 96 95 00  	sllw	a2, a1, s1
   16c10: aa 85        	c.mv	a1, a0
   16c12: 63 c4 c6 00  	blt	a3, a2, 0x16c1a <decompress_smooth_data+0x3ae>
   16c16: 93 05 f6 ff  	addi	a1, a2, -0x1
   16c1a: 63 43 90 00  	blt	zero, s1, 0x16c20 <decompress_smooth_data+0x3b4>
   16c1e: aa 85        	c.mv	a1, a0
   16c20: 3b 05 b0 40  	subw	a0, zero, a1
   16c24: 23 19 a1 10  	sh	a0, 0x112(sp)
   16c28: 83 a4 4d 01  	lw	s1, 0x14(s11)
   16c2c: 22 8d        	c.mv	s10, s0
   16c2e: 0e 64        	c.ldsp	s0, 0xc0(sp)
   16c30: bd c4        	c.beqz	s1, 0x16c9e <decompress_smooth_data+0x432>
   16c32: 03 55 41 10  	lhu	a0, 0x104(sp)
   16c36: 25 e5        	c.bnez	a0, 0x16c9e <decompress_smooth_data+0x432>
   16c38: 13 95 19 00  	slli	a0, s3, 0x1
   16c3c: ee 75        	c.ldsp	a1, 0xf8(sp)
   16c3e: 0e 76        	c.ldsp	a2, 0xe0(sp)
   16c40: b2 95        	c.add	a1, a2
   16c42: 89 9d        	c.subw	a1, a0
   16c44: 2a 75        	c.ldsp	a0, 0xa8(sp)
   16c46: ef 80 b1 64  	jal	ra, 0x2fa90 <__muldi3>
   16c4a: 63 43 05 02  	blt	a0, zero, 0x16c70 <decompress_smooth_data+0x404>
   16c4e: e6 65        	c.ldsp	a1, 0x58(sp)
   16c50: 2e 95        	c.add	a0, a1
   16c52: c6 65        	c.ldsp	a1, 0x50(sp)
   16c54: ef 80 51 68  	jal	ra, 0x2fad8 <__udivdi3>
   16c58: 63 51 90 04  	bge	zero, s1, 0x16c9a <decompress_smooth_data+0x42e>
   16c5c: 1b 06 05 00  	addiw	a2, a0, 0x0
   16c60: 85 45        	c.li	a1, 0x1
   16c62: bb 95 95 00  	sllw	a1, a1, s1
   16c66: 63 4a b6 02  	blt	a2, a1, 0x16c9a <decompress_smooth_data+0x42e>
   16c6a: 13 85 f5 ff  	addi	a0, a1, -0x1
   16c6e: 35 a0        	c.j	0x16c9a <decompress_smooth_data+0x42e>
   16c70: e6 65        	c.ldsp	a1, 0x58(sp)
   16c72: 33 85 a5 40  	sub	a0, a1, a0
   16c76: c6 65        	c.ldsp	a1, 0x50(sp)
   16c78: ef 80 11 66  	jal	ra, 0x2fad8 <__udivdi3>
   16c7c: 9b 06 05 00  	addiw	a3, a0, 0x0
   16c80: 85 45        	c.li	a1, 0x1
   16c82: 3b 96 95 00  	sllw	a2, a1, s1
   16c86: aa 85        	c.mv	a1, a0
   16c88: 63 c4 c6 00  	blt	a3, a2, 0x16c90 <decompress_smooth_data+0x424>
   16c8c: 93 05 f6 ff  	addi	a1, a2, -0x1
   16c90: 63 43 90 00  	blt	zero, s1, 0x16c96 <decompress_smooth_data+0x42a>
   16c94: aa 85        	c.mv	a1, a0
   16c96: 3b 05 b0 40  	subw	a0, zero, a1
   16c9a: 23 12 a1 10  	sh	a0, 0x104(sp)
   16c9e: 10 02        	c.addi4spn	a2, sp, 0x100
   16ca0: 6a 85        	c.mv	a0, s10
   16ca2: a2 85        	c.mv	a1, s0
   16ca4: ce 66        	c.ldsp	a3, 0xd0(sp)
   16ca6: 5e 87        	c.mv	a4, s7
   16ca8: ea 77        	c.ldsp	a5, 0xb8(sp)
   16caa: 82 97        	c.jalr	a5
   16cac: 48 50        	c.lw	a0, 0x24(s0)
   16cae: 13 0a 0a 08  	addi	s4, s4, 0x80
   16cb2: bb 0b 75 01  	addw	s7, a0, s7
   16cb6: 05 2c        	c.addiw	s8, 0x1
   16cb8: 13 0b 0b 08  	addi	s6, s6, 0x80
   16cbc: 93 8c 0c 08  	addi	s9, s9, 0x80
   16cc0: ae 64        	c.ldsp	s1, 0xc8(sp)
   16cc2: e3 ff 84 d7  	bgeu	s1, s8, 0x16a40 <decompress_smooth_data+0x1d4>
   16cc6: 0e 05        	c.slli	a0, 0x3
   16cc8: 26 67        	c.ldsp	a4, 0x48(sp)
   16cca: 05 07        	c.addi	a4, 0x1
   16ccc: ce 65        	c.ldsp	a1, 0xd0(sp)
   16cce: aa 95        	c.add	a1, a0
   16cd0: ae e9        	c.sdsp	a1, 0xd0(sp)
   16cd2: 22 7c        	c.ldsp	s8, 0x28(sp)
   16cd4: 42 75        	c.ldsp	a0, 0x30(sp)
   16cd6: e3 1b a7 d0  	bne	a4, a0, 0x169ec <decompress_smooth_data+0x180>
   16cda: 03 25 0d 03  	lw	a0, 0x30(s10)
   16cde: e2 65        	c.ldsp	a1, 0x18(sp)
   16ce0: 85 05        	c.addi	a1, 0x1
   16ce2: 13 04 04 06  	addi	s0, s0, 0x60
   16ce6: 2e ec        	c.sdsp	a1, 0x18(sp)
   16ce8: e3 c1 a5 be  	blt	a1, a0, 0x168ca <decompress_smooth_data+0x5e>
   16cec: 03 25 0d 0b  	lw	a0, 0xb0(s10)
   16cf0: 83 25 0d 19  	lw	a1, 0x190(s10)
   16cf4: 05 25        	c.addiw	a0, 0x1
   16cf6: 23 28 ad 0a  	sw	a0, 0xb0(s10)
   16cfa: 33 35 b5 00  	sltu	a0, a0, a1
   16cfe: 91 45        	c.li	a1, 0x4
   16d00: 33 85 a5 40  	sub	a0, a1, a0
   16d04: 19 61        	c.addi16sp	sp, 0x180
   16d06: 6f 80 f1 55  	jal	zero, 0x2fa64 <__riscv_restore_12>

0000000000016d0a <jinit_d_post_controller>:
   16d0a: ef 82 d1 52  	jal	t0, 0x2fa36 <__riscv_save_7>
   16d0e: aa 84        	c.mv	s1, a0
   16d10: 08 65        	c.ld	a0, 0x8(a0)
   16d12: 14 61        	c.ld	a3, 0x0(a0)
   16d14: 2e 89        	c.mv	s2, a1
   16d16: 85 45        	c.li	a1, 0x1
   16d18: 13 06 00 03  	addi	a2, zero, 0x30
   16d1c: 26 85        	c.mv	a0, s1
   16d1e: 82 96        	c.jalr	a3
   16d20: 2a 84        	c.mv	s0, a0
   16d22: 23 b4 a4 22  	sd	a0, 0x228(s1)
   16d26: 23 38 05 00  	sd	zero, 0x10(a0)
   16d2a: 23 3c 05 00  	sd	zero, 0x18(a0)
   16d2e: e8 50        	c.lw	a0, 0x64(s1)
   16d30: b7 75 01 00  	lui	a1, 0x17
   16d34: 93 85 65 d9  	addi	a1, a1, -0x26a
   16d38: 0c e0        	c.sd	a1, 0x0(s0)
   16d3a: 21 cd        	c.beqz	a0, 0x16d92 <jinit_d_post_controller+0x88>
   16d3c: 03 ea 84 18  	lwu	s4, 0x188(s1)
   16d40: 83 ba 84 00  	ld	s5, 0x8(s1)
   16d44: 83 a5 04 08  	lw	a1, 0x80(s1)
   16d48: 03 a5 84 08  	lw	a0, 0x88(s1)
   16d4c: 23 20 44 03  	sw	s4, 0x20(s0)
   16d50: ef 80 11 54  	jal	ra, 0x2fa90 <__muldi3>
   16d54: 9b 09 05 00  	addiw	s3, a0, 0x0
   16d58: 63 04 09 02  	beq	s2, zero, 0x16d80 <jinit_d_post_controller+0x76>
   16d5c: 03 b9 0a 02  	ld	s2, 0x20(s5)
   16d60: 03 e5 44 08  	lwu	a0, 0x84(s1)
   16d64: d2 85        	c.mv	a1, s4
   16d66: ef 30 d0 6f  	jal	ra, 0x1ac62 <jround_up>
   16d6a: 1c 50        	c.lw	a5, 0x20(s0)
   16d6c: 1b 07 05 00  	addiw	a4, a0, 0x0
   16d70: 85 45        	c.li	a1, 0x1
   16d72: 26 85        	c.mv	a0, s1
   16d74: 01 46        	c.li	a2, 0x0
   16d76: ce 86        	c.mv	a3, s3
   16d78: 02 99        	c.jalr	s2
   16d7a: 08 e8        	c.sd	a0, 0x10(s0)
   16d7c: 6f 80 91 4f  	jal	zero, 0x2fa74 <__riscv_restore_7>
   16d80: 03 b7 0a 01  	ld	a4, 0x10(s5)
   16d84: 9b 06 0a 00  	addiw	a3, s4, 0x0
   16d88: 85 45        	c.li	a1, 0x1
   16d8a: 26 85        	c.mv	a0, s1
   16d8c: 4e 86        	c.mv	a2, s3
   16d8e: 02 97        	c.jalr	a4
   16d90: 08 ec        	c.sd	a0, 0x18(s0)
   16d92: 6f 80 31 4e  	jal	zero, 0x2fa74 <__riscv_restore_7>

0000000000016d96 <start_pass_dpost>:
   16d96: ef 82 71 4c  	jal	t0, 0x2fa5c <__riscv_save_1>
   16d9a: 03 34 85 22  	ld	s0, 0x228(a0)
   16d9e: 0d 46        	c.li	a2, 0x3
   16da0: 63 84 c5 04  	beq	a1, a2, 0x16de8 <start_pass_dpost+0x52>
   16da4: 09 46        	c.li	a2, 0x2
   16da6: 63 85 c5 02  	beq	a1, a2, 0x16dd0 <start_pass_dpost+0x3a>
   16daa: b9 e9        	c.bnez	a1, 0x16e00 <start_pass_dpost+0x6a>
   16dac: 6c 51        	c.lw	a1, 0x64(a0)
   16dae: b9 cd        	c.beqz	a1, 0x16e0c <start_pass_dpost+0x76>
   16db0: 0c 6c        	c.ld	a1, 0x18(s0)
   16db2: 37 76 01 00  	lui	a2, 0x17
   16db6: 13 06 06 e2  	addi	a2, a2, -0x1e0
   16dba: 10 e4        	c.sd	a2, 0x8(s0)
   16dbc: a1 ed        	c.bnez	a1, 0x16e14 <start_pass_dpost+0x7e>
   16dbe: 0c 65        	c.ld	a1, 0x8(a0)
   16dc0: 9c 7d        	c.ld	a5, 0x38(a1)
   16dc2: 0c 68        	c.ld	a1, 0x10(s0)
   16dc4: 14 50        	c.lw	a3, 0x20(s0)
   16dc6: 05 47        	c.li	a4, 0x1
   16dc8: 01 46        	c.li	a2, 0x0
   16dca: 82 97        	c.jalr	a5
   16dcc: 08 ec        	c.sd	a0, 0x18(s0)
   16dce: 99 a0        	c.j	0x16e14 <start_pass_dpost+0x7e>
   16dd0: 0c 68        	c.ld	a1, 0x10(s0)
   16dd2: 91 e5        	c.bnez	a1, 0x16dde <start_pass_dpost+0x48>
   16dd4: 0c 61        	c.ld	a1, 0x0(a0)
   16dd6: 90 61        	c.ld	a2, 0x0(a1)
   16dd8: 91 46        	c.li	a3, 0x4
   16dda: 94 d5        	c.sw	a3, 0x28(a1)
   16ddc: 02 96        	c.jalr	a2
   16dde: 37 75 01 00  	lui	a0, 0x17
   16de2: 13 05 c5 f0  	addi	a0, a0, -0xf4
   16de6: 35 a0        	c.j	0x16e12 <start_pass_dpost+0x7c>
   16de8: 0c 68        	c.ld	a1, 0x10(s0)
   16dea: 91 e5        	c.bnez	a1, 0x16df6 <start_pass_dpost+0x60>
   16dec: 0c 61        	c.ld	a1, 0x0(a0)
   16dee: 90 61        	c.ld	a2, 0x0(a1)
   16df0: 91 46        	c.li	a3, 0x4
   16df2: 94 d5        	c.sw	a3, 0x28(a1)
   16df4: 02 96        	c.jalr	a2
   16df6: 37 75 01 00  	lui	a0, 0x17
   16dfa: 13 05 c5 e7  	addi	a0, a0, -0x184
   16dfe: 11 a8        	c.j	0x16e12 <start_pass_dpost+0x7c>
   16e00: 0c 61        	c.ld	a1, 0x0(a0)
   16e02: 90 61        	c.ld	a2, 0x0(a1)
   16e04: 91 46        	c.li	a3, 0x4
   16e06: 94 d5        	c.sw	a3, 0x28(a1)
   16e08: 02 96        	c.jalr	a2
   16e0a: 29 a0        	c.j	0x16e14 <start_pass_dpost+0x7e>
   16e0c: 03 35 05 25  	ld	a0, 0x250(a0)
   16e10: 08 65        	c.ld	a0, 0x8(a0)
   16e12: 08 e4        	c.sd	a0, 0x8(s0)
   16e14: 23 24 04 02  	sw	zero, 0x28(s0)
   16e18: 23 22 04 02  	sw	zero, 0x24(s0)
   16e1c: 6f 80 b1 46  	jal	zero, 0x2fa86 <__riscv_restore_1>

0000000000016e20 <post_process_1pass>:
   16e20: ef 82 11 42  	jal	t0, 0x2fa40 <__riscv_save_5>
   16e24: 41 11        	c.addi	sp, -0x10
   16e26: aa 84        	c.mv	s1, a0
   16e28: 83 39 85 22  	ld	s3, 0x228(a0)
   16e2c: 3e 84        	c.mv	s0, a5
   16e2e: 9c 43        	c.lw	a5, 0x0(a5)
   16e30: 03 a5 09 02  	lw	a0, 0x20(s3)
   16e34: 3b 08 f8 40  	subw	a6, a6, a5
   16e38: 3a 89        	c.mv	s2, a4
   16e3a: 63 63 a8 00  	bltu	a6, a0, 0x16e40 <post_process_1pass+0x20>
   16e3e: 2a 88        	c.mv	a6, a0
   16e40: 03 b5 04 25  	ld	a0, 0x250(s1)
   16e44: 83 38 85 00  	ld	a7, 0x8(a0)
   16e48: 03 b7 89 01  	ld	a4, 0x18(s3)
   16e4c: 02 c6        	c.swsp	zero, 0xc(sp)
   16e4e: 7c 00        	c.addi4spn	a5, sp, 0xc
   16e50: 26 85        	c.mv	a0, s1
   16e52: 82 98        	c.jalr	a7
   16e54: 03 b5 04 26  	ld	a0, 0x260(s1)
   16e58: 18 65        	c.ld	a4, 0x8(a0)
   16e5a: 03 65 04 00  	lwu	a0, 0x0(s0)
   16e5e: 83 b5 89 01  	ld	a1, 0x18(s3)
   16e62: b2 46        	c.lwsp	a3, 0xc(sp)
   16e64: 0e 05        	c.slli	a0, 0x3
   16e66: 33 06 a9 00  	add	a2, s2, a0
   16e6a: 26 85        	c.mv	a0, s1
   16e6c: 02 97        	c.jalr	a4
   16e6e: 32 45        	c.lwsp	a0, 0xc(sp)
   16e70: 0c 40        	c.lw	a1, 0x0(s0)
   16e72: 2e 95        	c.add	a0, a1
   16e74: 08 c0        	c.sw	a0, 0x0(s0)
   16e76: 41 01        	c.addi	sp, 0x10
   16e78: 6f 80 31 40  	jal	zero, 0x2fa7a <__riscv_restore_5>

0000000000016e7c <post_process_prepass>:
   16e7c: ef 82 11 3b  	jal	t0, 0x2fa2c <__riscv_save_9>
   16e80: aa 8b        	c.mv	s7, a0
   16e82: 03 34 85 22  	ld	s0, 0x228(a0)
   16e86: 04 54        	c.lw	s1, 0x28(s0)
   16e88: 3e 89        	c.mv	s2, a5
   16e8a: b6 89        	c.mv	s3, a3
   16e8c: b2 8a        	c.mv	s5, a2
   16e8e: 2e 8b        	c.mv	s6, a1
   16e90: 13 0a 84 02  	addi	s4, s0, 0x28
   16e94: 99 c0        	c.beqz	s1, 0x16e9a <post_process_prepass+0x1e>
   16e96: 18 6c        	c.ld	a4, 0x18(s0)
   16e98: 29 a8        	c.j	0x16eb2 <post_process_prepass+0x36>
   16e9a: 03 b5 8b 00  	ld	a0, 0x8(s7)
   16e9e: 1c 7d        	c.ld	a5, 0x38(a0)
   16ea0: 0c 68        	c.ld	a1, 0x10(s0)
   16ea2: 50 50        	c.lw	a2, 0x24(s0)
   16ea4: 14 50        	c.lw	a3, 0x20(s0)
   16ea6: 05 47        	c.li	a4, 0x1
   16ea8: 5e 85        	c.mv	a0, s7
   16eaa: 82 97        	c.jalr	a5
   16eac: 04 54        	c.lw	s1, 0x28(s0)
   16eae: 2a 87        	c.mv	a4, a0
   16eb0: 08 ec        	c.sd	a0, 0x18(s0)
   16eb2: 03 b5 0b 25  	ld	a0, 0x250(s7)
   16eb6: 83 38 85 00  	ld	a7, 0x8(a0)
   16eba: 03 28 04 02  	lw	a6, 0x20(s0)
   16ebe: 5e 85        	c.mv	a0, s7
   16ec0: da 85        	c.mv	a1, s6
   16ec2: 56 86        	c.mv	a2, s5
   16ec4: ce 86        	c.mv	a3, s3
   16ec6: d2 87        	c.mv	a5, s4
   16ec8: 82 98        	c.jalr	a7
   16eca: 08 54        	c.lw	a0, 0x28(s0)
   16ecc: 63 f6 a4 02  	bgeu	s1, a0, 0x16ef8 <post_process_prepass+0x7c>
   16ed0: 83 b5 0b 26  	ld	a1, 0x260(s7)
   16ed4: bb 09 95 40  	subw	s3, a0, s1
   16ed8: 08 6c        	c.ld	a0, 0x18(s0)
   16eda: 98 65        	c.ld	a4, 0x8(a1)
   16edc: 82 14        	c.slli	s1, 0x20
   16ede: 93 d5 d4 01  	srli	a1, s1, 0x1d
   16ee2: aa 95        	c.add	a1, a0
   16ee4: 5e 85        	c.mv	a0, s7
   16ee6: 01 46        	c.li	a2, 0x0
   16ee8: ce 86        	c.mv	a3, s3
   16eea: 02 97        	c.jalr	a4
   16eec: 03 25 09 00  	lw	a0, 0x0(s2)
   16ef0: 4e 95        	c.add	a0, s3
   16ef2: 23 20 a9 00  	sw	a0, 0x0(s2)
   16ef6: 08 54        	c.lw	a0, 0x28(s0)
   16ef8: 0c 50        	c.lw	a1, 0x20(s0)
   16efa: 63 67 b5 00  	bltu	a0, a1, 0x16f08 <post_process_prepass+0x8c>
   16efe: 48 50        	c.lw	a0, 0x24(s0)
   16f00: 2e 95        	c.add	a0, a1
   16f02: 48 d0        	c.sw	a0, 0x24(s0)
   16f04: 23 24 04 02  	sw	zero, 0x28(s0)
   16f08: 6f 80 71 36  	jal	zero, 0x2fa6e <__riscv_restore_9>

0000000000016f0c <post_process_2pass>:
   16f0c: ef 82 b1 32  	jal	t0, 0x2fa36 <__riscv_save_7>
   16f10: aa 8a        	c.mv	s5, a0
   16f12: 83 34 85 22  	ld	s1, 0x228(a0)
   16f16: 8c 54        	c.lw	a1, 0x28(s1)
   16f18: c2 89        	c.mv	s3, a6
   16f1a: 3e 8a        	c.mv	s4, a5
   16f1c: 3a 89        	c.mv	s2, a4
   16f1e: 99 c1        	c.beqz	a1, 0x16f24 <post_process_2pass+0x18>
   16f20: 88 6c        	c.ld	a0, 0x18(s1)
   16f22: 21 a8        	c.j	0x16f3a <post_process_2pass+0x2e>
   16f24: 03 b5 8a 00  	ld	a0, 0x8(s5)
   16f28: 1c 7d        	c.ld	a5, 0x38(a0)
   16f2a: 8c 68        	c.ld	a1, 0x10(s1)
   16f2c: d0 50        	c.lw	a2, 0x24(s1)
   16f2e: 94 50        	c.lw	a3, 0x20(s1)
   16f30: 56 85        	c.mv	a0, s5
   16f32: 01 47        	c.li	a4, 0x0
   16f34: 82 97        	c.jalr	a5
   16f36: 8c 54        	c.lw	a1, 0x28(s1)
   16f38: 88 ec        	c.sd	a0, 0x18(s1)
   16f3a: 80 50        	c.lw	s0, 0x20(s1)
   16f3c: 03 66 0a 00  	lwu	a2, 0x0(s4)
   16f40: 0d 9c        	c.subw	s0, a1
   16f42: bb 86 c9 40  	subw	a3, s3, a2
   16f46: 63 63 d4 00  	bltu	s0, a3, 0x16f4c <post_process_2pass+0x40>
   16f4a: 36 84        	c.mv	s0, a3
   16f4c: 83 a6 4a 08  	lw	a3, 0x84(s5)
   16f50: d8 50        	c.lw	a4, 0x24(s1)
   16f52: 99 9e        	c.subw	a3, a4
   16f54: 63 63 d4 00  	bltu	s0, a3, 0x16f5a <post_process_2pass+0x4e>
   16f58: 36 84        	c.mv	s0, a3
   16f5a: 83 b6 0a 26  	ld	a3, 0x260(s5)
   16f5e: 98 66        	c.ld	a4, 0x8(a3)
   16f60: 82 15        	c.slli	a1, 0x20
   16f62: f5 81        	c.srli	a1, 0x1d
   16f64: aa 95        	c.add	a1, a0
   16f66: 0e 06        	c.slli	a2, 0x3
   16f68: 4a 96        	c.add	a2, s2
   16f6a: 56 85        	c.mv	a0, s5
   16f6c: a2 86        	c.mv	a3, s0
   16f6e: 02 97        	c.jalr	a4
   16f70: 03 25 0a 00  	lw	a0, 0x0(s4)
   16f74: 22 95        	c.add	a0, s0
   16f76: 23 20 aa 00  	sw	a0, 0x0(s4)
   16f7a: 8c 54        	c.lw	a1, 0x28(s1)
   16f7c: 88 50        	c.lw	a0, 0x20(s1)
   16f7e: a1 9d        	c.addw	a1, s0
   16f80: 8c d4        	c.sw	a1, 0x28(s1)
   16f82: 63 e7 a5 00  	bltu	a1, a0, 0x16f90 <post_process_2pass+0x84>
   16f86: cc 50        	c.lw	a1, 0x24(s1)
   16f88: 2e 95        	c.add	a0, a1
   16f8a: c8 d0        	c.sw	a0, 0x24(s1)
   16f8c: 23 a4 04 02  	sw	zero, 0x28(s1)
   16f90: 6f 80 51 2e  	jal	zero, 0x2fa74 <__riscv_restore_7>

0000000000016f94 <jinit_inverse_dct>:
   16f94: ef 82 d1 2a  	jal	t0, 0x2fa40 <__riscv_save_5>
   16f98: 2a 89        	c.mv	s2, a0
   16f9a: 08 65        	c.ld	a0, 0x8(a0)
   16f9c: 14 61        	c.ld	a3, 0x0(a0)
   16f9e: 85 45        	c.li	a1, 0x1
   16fa0: 13 06 00 08  	addi	a2, zero, 0x80
   16fa4: 4a 85        	c.mv	a0, s2
   16fa6: 82 96        	c.jalr	a3
   16fa8: 83 25 09 03  	lw	a1, 0x30(s2)
   16fac: 37 76 01 00  	lui	a2, 0x17
   16fb0: 13 06 26 00  	addi	a2, a2, 0x2
   16fb4: 10 e1        	c.sd	a2, 0x0(a0)
   16fb6: 23 34 a9 24  	sd	a0, 0x248(s2)
   16fba: 63 52 b0 04  	bge	zero, a1, 0x16ffe <jinit_inverse_dct+0x6a>
   16fbe: 83 35 89 12  	ld	a1, 0x128(s2)
   16fc2: 81 49        	c.li	s3, 0x0
   16fc4: 13 04 85 05  	addi	s0, a0, 0x58
   16fc8: 93 84 85 05  	addi	s1, a1, 0x58
   16fcc: 7d 5a        	c.li	s4, -0x1
   16fce: 03 35 89 00  	ld	a0, 0x8(s2)
   16fd2: 14 61        	c.ld	a3, 0x0(a0)
   16fd4: 85 45        	c.li	a1, 0x1
   16fd6: 13 06 00 10  	addi	a2, zero, 0x100
   16fda: 4a 85        	c.mv	a0, s2
   16fdc: 82 96        	c.jalr	a3
   16fde: 88 e0        	c.sd	a0, 0x0(s1)
   16fe0: 13 06 00 10  	addi	a2, zero, 0x100
   16fe4: 81 45        	c.li	a1, 0x0
   16fe6: ef 60 70 0b  	jal	ra, 0x1d89c <memset>
   16fea: 23 20 44 01  	sw	s4, 0x0(s0)
   16fee: 03 25 09 03  	lw	a0, 0x30(s2)
   16ff2: 85 09        	c.addi	s3, 0x1
   16ff4: 11 04        	c.addi	s0, 0x4
   16ff6: 93 84 04 06  	addi	s1, s1, 0x60
   16ffa: e3 ca a9 fc  	blt	s3, a0, 0x16fce <jinit_inverse_dct+0x3a>
   16ffe: 6f 80 d1 27  	jal	zero, 0x2fa7a <__riscv_restore_5>

0000000000017002 <start_pass>:
   17002: ef 82 91 21  	jal	t0, 0x2fa1a <__riscv_save_12>
   17006: 79 71        	c.addi16sp	sp, -0x30
   17008: aa 89        	c.mv	s3, a0
   1700a: 08 59        	c.lw	a0, 0x30(a0)
   1700c: 63 50 a0 1a  	bge	zero, a0, 0x171ac <start_pass+0x1aa>
   17010: 81 4d        	c.li	s11, 0x0
   17012: 81 4b        	c.li	s7, 0x0
   17014: 01 4c        	c.li	s8, 0x0
   17016: 03 b5 89 24  	ld	a0, 0x248(s3)
   1701a: 2a f4        	c.sdsp	a0, 0x28(sp)
   1701c: 03 b9 89 12  	ld	s2, 0x128(s3)
   17020: 37 85 01 00  	lui	a0, 0x18
   17024: 13 05 65 24  	addi	a0, a0, 0x246
   17028: 2a f0        	c.sdsp	a0, 0x20(sp)
   1702a: 37 85 01 00  	lui	a0, 0x18
   1702e: 13 05 05 06  	addi	a0, a0, 0x60
   17032: 2a ec        	c.sdsp	a0, 0x18(sp)
   17034: 37 25 03 00  	lui	a0, 0x32
   17038: 13 05 85 b7  	addi	a0, a0, -0x488
   1703c: 2a e0        	c.sdsp	a0, 0x0(sp)
   1703e: 37 25 03 00  	lui	a0, 0x32
   17042: 13 0d 85 bf  	addi	s10, a0, -0x408
   17046: e1 54        	c.li	s1, -0x8
   17048: 37 85 01 00  	lui	a0, 0x18
   1704c: 13 05 85 d1  	addi	a0, a0, -0x2e8
   17050: 2a e8        	c.sdsp	a0, 0x10(sp)
   17052: 37 25 03 00  	lui	a0, 0x32
   17056: 13 05 85 c3  	addi	a0, a0, -0x3c8
   1705a: 2a e4        	c.sdsp	a0, 0x8(sp)
   1705c: 03 25 49 02  	lw	a0, 0x24(s2)
   17060: 8d 45        	c.li	a1, 0x3
   17062: 63 cb a5 00  	blt	a1, a0, 0x17078 <start_pass+0x76>
   17066: 85 45        	c.li	a1, 0x1
   17068: 63 06 b5 04  	beq	a0, a1, 0x170b4 <start_pass+0xb2>
   1706c: 89 45        	c.li	a1, 0x2
   1706e: 63 18 b5 02  	bne	a0, a1, 0x1709e <start_pass+0x9c>
   17072: 81 4b        	c.li	s7, 0x0
   17074: 62 6c        	c.ldsp	s8, 0x18(sp)
   17076: a9 a8        	c.j	0x170d0 <start_pass+0xce>
   17078: 91 45        	c.li	a1, 0x4
   1707a: 63 00 b5 04  	beq	a0, a1, 0x170ba <start_pass+0xb8>
   1707e: a1 45        	c.li	a1, 0x8
   17080: 63 1f b5 00  	bne	a0, a1, 0x1709e <start_pass+0x9c>
   17084: 03 a5 89 05  	lw	a0, 0x58(s3)
   17088: 8d 45        	c.li	a1, 0x3
   1708a: 63 7b b5 02  	bgeu	a0, a1, 0x170c0 <start_pass+0xbe>
   1708e: 93 15 35 00  	slli	a1, a0, 0x3
   17092: 22 66        	c.ldsp	a2, 0x8(sp)
   17094: b2 95        	c.add	a1, a2
   17096: 03 bc 05 00  	ld	s8, 0x0(a1)
   1709a: aa 8b        	c.mv	s7, a0
   1709c: 15 a8        	c.j	0x170d0 <start_pass+0xce>
   1709e: 83 b5 09 00  	ld	a1, 0x0(s3)
   170a2: c8 d5        	c.sw	a0, 0x2c(a1)
   170a4: 03 b5 09 00  	ld	a0, 0x0(s3)
   170a8: 10 61        	c.ld	a2, 0x0(a0)
   170aa: 19 45        	c.li	a0, 0x6
   170ac: 88 d5        	c.sw	a0, 0x28(a1)
   170ae: 4e 85        	c.mv	a0, s3
   170b0: 02 96        	c.jalr	a2
   170b2: 39 a8        	c.j	0x170d0 <start_pass+0xce>
   170b4: 81 4b        	c.li	s7, 0x0
   170b6: 02 7c        	c.ldsp	s8, 0x20(sp)
   170b8: 21 a8        	c.j	0x170d0 <start_pass+0xce>
   170ba: 81 4b        	c.li	s7, 0x0
   170bc: 42 6c        	c.ldsp	s8, 0x10(sp)
   170be: 09 a8        	c.j	0x170d0 <start_pass+0xce>
   170c0: 03 b5 09 00  	ld	a0, 0x0(s3)
   170c4: 0c 61        	c.ld	a1, 0x0(a0)
   170c6: 13 06 f0 02  	addi	a2, zero, 0x2f
   170ca: 10 d5        	c.sw	a2, 0x28(a0)
   170cc: 4e 85        	c.mv	a0, s3
   170ce: 82 95        	c.jalr	a1
   170d0: 03 25 09 03  	lw	a0, 0x30(s2)
   170d4: 93 95 3d 00  	slli	a1, s11, 0x3
   170d8: 22 76        	c.ldsp	a2, 0x28(sp)
   170da: b2 95        	c.add	a1, a2
   170dc: 23 b4 85 01  	sd	s8, 0x8(a1)
   170e0: 5d cd        	c.beqz	a0, 0x1719e <start_pass+0x19c>
   170e2: 13 95 2d 00  	slli	a0, s11, 0x2
   170e6: a2 75        	c.ldsp	a1, 0x28(sp)
   170e8: 2e 95        	c.add	a0, a1
   170ea: 2c 4d        	c.lw	a1, 0x58(a0)
   170ec: 63 89 75 0b  	beq	a1, s7, 0x1719e <start_pass+0x19c>
   170f0: 03 3a 09 05  	ld	s4, 0x50(s2)
   170f4: 63 05 0a 0a  	beq	s4, zero, 0x1719e <start_pass+0x19c>
   170f8: 03 3b 89 05  	ld	s6, 0x58(s2)
   170fc: 13 05 85 05  	addi	a0, a0, 0x58
   17100: 23 20 75 01  	sw	s7, 0x0(a0)
   17104: 63 8a 0b 02  	beq	s7, zero, 0x17138 <start_pass+0x136>
   17108: 05 45        	c.li	a0, 0x1
   1710a: 63 92 ab 04  	bne	s7, a0, 0x1714e <start_pass+0x14c>
   1710e: 93 0a 0b 10  	addi	s5, s6, 0x100
   17112: 82 6c        	c.ldsp	s9, 0x0(sp)
   17114: 83 55 0a 00  	lhu	a1, 0x0(s4)
   17118: 03 95 0c 00  	lh	a0, 0x0(s9)
   1711c: ef 80 51 17  	jal	ra, 0x2fa90 <__muldi3>
   17120: 13 05 f5 7f  	addi	a0, a0, 0x7ff
   17124: 05 05        	c.addi	a0, 0x1
   17126: 31 81        	c.srli	a0, 0xc
   17128: 23 20 ab 00  	sw	a0, 0x0(s6)
   1712c: 11 0b        	c.addi	s6, 0x4
   1712e: 89 0c        	c.addi	s9, 0x2
   17130: 09 0a        	c.addi	s4, 0x2
   17132: e3 11 5b ff  	bne	s6, s5, 0x17114 <start_pass+0x112>
   17136: a5 a0        	c.j	0x1719e <start_pass+0x19c>
   17138: 13 05 0b 10  	addi	a0, s6, 0x100
   1713c: 83 55 0a 00  	lhu	a1, 0x0(s4)
   17140: 23 20 bb 00  	sw	a1, 0x0(s6)
   17144: 11 0b        	c.addi	s6, 0x4
   17146: 09 0a        	c.addi	s4, 0x2
   17148: e3 1a ab fe  	bne	s6, a0, 0x1713c <start_pass+0x13a>
   1714c: 89 a8        	c.j	0x1719e <start_pass+0x19c>
   1714e: 01 45        	c.li	a0, 0x0
   17150: 81 45        	c.li	a1, 0x0
   17152: 01 46        	c.li	a2, 0x0
   17154: 93 16 35 00  	slli	a3, a0, 0x3
   17158: ea 96        	c.add	a3, s10
   1715a: 87 b7 06 00  	fld	fa5, 0x0(a3)
   1715e: 93 96 15 00  	slli	a3, a1, 0x1
   17162: d2 96        	c.add	a3, s4
   17164: 13 97 25 00  	slli	a4, a1, 0x2
   17168: 5a 97        	c.add	a4, s6
   1716a: ea 87        	c.mv	a5, s10
   1716c: 03 d4 06 00  	lhu	s0, 0x0(a3)
   17170: 07 b7 07 00  	fld	fa4, 0x0(a5)
   17174: d3 06 14 d2  	fcvt.d.wu	fa3, s0
   17178: d3 f6 d7 12  	fmul.d	fa3, fa5, fa3, dyn
   1717c: 53 f7 e6 12  	fmul.d	fa4, fa3, fa4, dyn
   17180: 53 77 17 40  	fcvt.s.d	fa4, fa4, dyn
   17184: 27 20 e7 00  	fsw	fa4, 0x0(a4)
   17188: 89 06        	c.addi	a3, 0x2
   1718a: 11 07        	c.addi	a4, 0x4
   1718c: 7d 16        	c.addi	a2, -0x1
   1718e: a1 07        	c.addi	a5, 0x8
   17190: e3 1e 96 fc  	bne	a2, s1, 0x1716c <start_pass+0x16a>
   17194: 05 05        	c.addi	a0, 0x1
   17196: 91 9d        	c.subw	a1, a2
   17198: 21 46        	c.li	a2, 0x8
   1719a: e3 1c c5 fa  	bne	a0, a2, 0x17152 <start_pass+0x150>
   1719e: 03 a5 09 03  	lw	a0, 0x30(s3)
   171a2: 85 0d        	c.addi	s11, 0x1
   171a4: 13 09 09 06  	addi	s2, s2, 0x60
   171a8: e3 ca ad ea  	blt	s11, a0, 0x1705c <start_pass+0x5a>
   171ac: 45 61        	c.addi16sp	sp, 0x30
   171ae: 6f 80 71 0b  	jal	zero, 0x2fa64 <__riscv_restore_12>

00000000000171b2 <jpeg_idct_ifast>:
   171b2: ef 82 91 06  	jal	t0, 0x2fa1a <__riscv_save_12>
   171b6: 69 71        	c.addi16sp	sp, -0x130
   171b8: 3a e8        	c.sdsp	a4, 0x10(sp)
   171ba: 36 f4        	c.sdsp	a3, 0x28(sp)
   171bc: 85 46        	c.li	a3, 0x1
   171be: a2 16        	c.slli	a3, 0x28
   171c0: 93 86 36 d6  	addi	a3, a3, -0x29d
   171c4: 36 f0        	c.sdsp	a3, 0x20(sp)
   171c6: ac 6d        	c.ld	a1, 0x58(a1)
   171c8: 13 09 01 03  	addi	s2, sp, 0x30
   171cc: 03 35 85 19  	ld	a0, 0x198(a0)
   171d0: 2a e4        	c.sdsp	a0, 0x8(sp)
   171d2: 93 09 06 04  	addi	s3, a2, 0x40
   171d6: 13 8a 05 08  	addi	s4, a1, 0x80
   171da: 03 9c 09 fd  	lh	s8, -0x30(s3)
   171de: 03 94 09 fe  	lh	s0, -0x20(s3)
   171e2: 83 9b 09 ff  	lh	s7, -0x10(s3)
   171e6: 03 9d 09 00  	lh	s10, 0x0(s3)
   171ea: 33 65 84 01  	or	a0, s0, s8
   171ee: b3 e5 ab 01  	or	a1, s7, s10
   171f2: 33 66 b5 00  	or	a2, a0, a1
   171f6: 03 9b 09 01  	lh	s6, 0x10(s3)
   171fa: 83 9c 09 02  	lh	s9, 0x20(s3)
   171fe: 83 9a 09 03  	lh	s5, 0x30(s3)
   17202: 83 95 09 fc  	lh	a1, -0x40(s3)
   17206: 03 25 0a f8  	lw	a0, -0x80(s4)
   1720a: b3 66 9b 01  	or	a3, s6, s9
   1720e: b3 e6 56 01  	or	a3, a3, s5
   17212: b3 64 d6 00  	or	s1, a2, a3
   17216: ef 80 b1 07  	jal	ra, 0x2fa90 <__muldi3>
   1721a: 93 95 04 03  	slli	a1, s1, 0x30
   1721e: aa 84        	c.mv	s1, a0
   17220: 63 80 05 12  	beq	a1, zero, 0x17340 <jpeg_idct_ifast+0x18e>
   17224: 03 25 0a fc  	lw	a0, -0x40(s4)
   17228: a2 85        	c.mv	a1, s0
   1722a: ef 80 71 06  	jal	ra, 0x2fa90 <__muldi3>
   1722e: 83 25 0a 00  	lw	a1, 0x0(s4)
   17232: aa 8d        	c.mv	s11, a0
   17234: 2e 85        	c.mv	a0, a1
   17236: ea 85        	c.mv	a1, s10
   17238: ef 80 91 05  	jal	ra, 0x2fa90 <__muldi3>
   1723c: 83 25 0a 04  	lw	a1, 0x40(s4)
   17240: 2a 84        	c.mv	s0, a0
   17242: 2e 85        	c.mv	a0, a1
   17244: e6 85        	c.mv	a1, s9
   17246: ef 80 b1 04  	jal	ra, 0x2fa90 <__muldi3>
   1724a: b3 0c 94 00  	add	s9, s0, s1
   1724e: 81 9c        	c.subw	s1, s0
   17250: 33 04 b5 01  	add	s0, a0, s11
   17254: 3b 85 ad 40  	subw	a0, s11, a0
   17258: 93 05 a0 16  	addi	a1, zero, 0x16a
   1725c: ef 80 51 03  	jal	ra, 0x2fa90 <__muldi3>
   17260: 21 81        	c.srli	a0, 0x8
   17262: bb 05 85 40  	subw	a1, a0, s0
   17266: 33 0d 94 01  	add	s10, s0, s9
   1726a: 03 25 0a fa  	lw	a0, -0x60(s4)
   1726e: 3b 86 8c 40  	subw	a2, s9, s0
   17272: 32 ec        	c.sdsp	a2, 0x18(sp)
   17274: b3 8c 95 00  	add	s9, a1, s1
   17278: bb 8d b4 40  	subw	s11, s1, a1
   1727c: e2 85        	c.mv	a1, s8
   1727e: ef 80 31 01  	jal	ra, 0x2fa90 <__muldi3>
   17282: 83 25 0a fe  	lw	a1, -0x20(s4)
   17286: 2a 8c        	c.mv	s8, a0
   17288: 2e 85        	c.mv	a0, a1
   1728a: de 85        	c.mv	a1, s7
   1728c: ef 80 51 00  	jal	ra, 0x2fa90 <__muldi3>
   17290: 83 25 0a 02  	lw	a1, 0x20(s4)
   17294: aa 84        	c.mv	s1, a0
   17296: 2e 85        	c.mv	a0, a1
   17298: da 85        	c.mv	a1, s6
   1729a: ef 80 61 7f  	jal	ra, 0x2fa90 <__muldi3>
   1729e: 83 25 0a 06  	lw	a1, 0x60(s4)
   172a2: 2a 84        	c.mv	s0, a0
   172a4: 2e 85        	c.mv	a0, a1
   172a6: d6 85        	c.mv	a1, s5
   172a8: ef 80 81 7e  	jal	ra, 0x2fa90 <__muldi3>
   172ac: b3 05 94 00  	add	a1, s0, s1
   172b0: bb 0a 94 40  	subw	s5, s0, s1
   172b4: 33 06 85 01  	add	a2, a0, s8
   172b8: bb 04 ac 40  	subw	s1, s8, a0
   172bc: b3 0b b6 00  	add	s7, a2, a1
   172c0: 3b 05 b6 40  	subw	a0, a2, a1
   172c4: 93 05 a0 16  	addi	a1, zero, 0x16a
   172c8: ef 80 81 7c  	jal	ra, 0x2fa90 <__muldi3>
   172cc: 13 5b 85 00  	srli	s6, a0, 0x8
   172d0: 3b 85 54 01  	addw	a0, s1, s5
   172d4: 93 05 90 1d  	addi	a1, zero, 0x1d9
   172d8: ef 80 81 7b  	jal	ra, 0x2fa90 <__muldi3>
   172dc: 13 54 85 00  	srli	s0, a0, 0x8
   172e0: 93 05 50 11  	addi	a1, zero, 0x115
   172e4: 26 85        	c.mv	a0, s1
   172e6: ef 80 a1 7a  	jal	ra, 0x2fa90 <__muldi3>
   172ea: 21 81        	c.srli	a0, 0x8
   172ec: bb 04 85 40  	subw	s1, a0, s0
   172f0: 56 85        	c.mv	a0, s5
   172f2: 82 75        	c.ldsp	a1, 0x20(sp)
   172f4: ef 80 c1 79  	jal	ra, 0x2fa90 <__muldi3>
   172f8: 21 81        	c.srli	a0, 0x8
   172fa: 3b 05 75 41  	subw	a0, a0, s7
   172fe: 2a 94        	c.add	s0, a0
   17300: 3b 06 8b 40  	subw	a2, s6, s0
   17304: b2 94        	c.add	s1, a2
   17306: 33 85 ab 01  	add	a0, s7, s10
   1730a: 23 20 a9 00  	sw	a0, 0x0(s2)
   1730e: 3b 05 7d 41  	subw	a0, s10, s7
   17312: b3 05 94 01  	add	a1, s0, s9
   17316: 23 20 b9 02  	sw	a1, 0x20(s2)
   1731a: bb 85 8c 40  	subw	a1, s9, s0
   1731e: b3 06 b6 01  	add	a3, a2, s11
   17322: 23 20 d9 04  	sw	a3, 0x40(s2)
   17326: 3b 86 cd 40  	subw	a2, s11, a2
   1732a: 23 20 c9 0a  	sw	a2, 0xa0(s2)
   1732e: e2 66        	c.ldsp	a3, 0x18(sp)
   17330: 33 86 d4 00  	add	a2, s1, a3
   17334: 23 20 c9 08  	sw	a2, 0x80(s2)
   17338: bb 84 96 40  	subw	s1, a3, s1
   1733c: 61 46        	c.li	a2, 0x18
   1733e: 39 a8        	c.j	0x1735c <jpeg_idct_ifast+0x1aa>
   17340: 23 20 99 00  	sw	s1, 0x0(s2)
   17344: 23 20 99 02  	sw	s1, 0x20(s2)
   17348: 23 20 99 04  	sw	s1, 0x40(s2)
   1734c: 23 20 99 06  	sw	s1, 0x60(s2)
   17350: 23 20 99 08  	sw	s1, 0x80(s2)
   17354: 13 06 80 02  	addi	a2, zero, 0x28
   17358: a6 85        	c.mv	a1, s1
   1735a: 26 85        	c.mv	a0, s1
   1735c: 0a 06        	c.slli	a2, 0x2
   1735e: 4a 96        	c.add	a2, s2
   17360: 04 c2        	c.sw	s1, 0x0(a2)
   17362: 23 20 b9 0c  	sw	a1, 0xc0(s2)
   17366: 23 20 a9 0e  	sw	a0, 0xe0(s2)
   1736a: 11 09        	c.addi	s2, 0x4
   1736c: 89 09        	c.addi	s3, 0x2
   1736e: 11 0a        	c.addi	s4, 0x4
   17370: 88 08        	c.addi4spn	a0, sp, 0x50
   17372: e3 14 a9 e6  	bne	s2, a0, 0x171da <jpeg_idct_ifast+0x28>
   17376: 22 65        	c.ldsp	a0, 0x8(sp)
   17378: 13 0a 05 08  	addi	s4, a0, 0x80
   1737c: 42 65        	c.ldsp	a0, 0x10(sp)
   1737e: 02 15        	c.slli	a0, 0x20
   17380: 01 91        	c.srli	a0, 0x20
   17382: 2a ec        	c.sdsp	a0, 0x18(sp)
   17384: 84 00        	c.addi4spn	s1, sp, 0x40
   17386: 22 78        	c.ldsp	a6, 0x28(sp)
   17388: 13 05 08 04  	addi	a0, a6, 0x40
   1738c: 2a e8        	c.sdsp	a0, 0x10(sp)
   1738e: 03 ac 44 ff  	lw	s8, -0xc(s1)
   17392: 03 a5 84 ff  	lw	a0, -0x8(s1)
   17396: 83 3d 08 00  	ld	s11, 0x0(a6)
   1739a: 03 ad c4 ff  	lw	s10, -0x4(s1)
   1739e: 8c 40        	c.lw	a1, 0x0(s1)
   173a0: b3 66 85 01  	or	a3, a0, s8
   173a4: 83 a9 44 00  	lw	s3, 0x4(s1)
   173a8: 90 44        	c.lw	a2, 0x8(s1)
   173aa: 33 67 bd 00  	or	a4, s10, a1
   173ae: 03 a9 c4 00  	lw	s2, 0xc(s1)
   173b2: 55 8f        	c.or	a4, a3
   173b4: b3 e7 c9 00  	or	a5, s3, a2
   173b8: 83 a6 04 ff  	lw	a3, -0x10(s1)
   173bc: b3 e7 27 01  	or	a5, a5, s2
   173c0: 5d 8f        	c.or	a4, a5
   173c2: e2 67        	c.ldsp	a5, 0x18(sp)
   173c4: be 9d        	c.add	s11, a5
   173c6: 63 08 07 12  	beq	a4, zero, 0x174f6 <jpeg_idct_ifast+0x344>
   173ca: b3 8a b6 00  	add	s5, a3, a1
   173ce: 3b 8b b6 40  	subw	s6, a3, a1
   173d2: 33 04 a6 00  	add	s0, a2, a0
   173d6: 11 9d        	c.subw	a0, a2
   173d8: 02 15        	c.slli	a0, 0x20
   173da: 01 91        	c.srli	a0, 0x20
   173dc: 93 05 a0 16  	addi	a1, zero, 0x16a
   173e0: 42 f4        	c.sdsp	a6, 0x28(sp)
   173e2: ef 80 e1 6a  	jal	ra, 0x2fa90 <__muldi3>
   173e6: 21 81        	c.srli	a0, 0x8
   173e8: 01 9d        	c.subw	a0, s0
   173ea: b3 8c 8a 00  	add	s9, s5, s0
   173ee: bb 8a 8a 40  	subw	s5, s5, s0
   173f2: b3 0b ab 00  	add	s7, s6, a0
   173f6: 3b 0b ab 40  	subw	s6, s6, a0
   173fa: 33 85 a9 01  	add	a0, s3, s10
   173fe: bb 89 a9 41  	subw	s3, s3, s10
   17402: b3 05 89 01  	add	a1, s2, s8
   17406: 3b 04 2c 41  	subw	s0, s8, s2
   1740a: 33 8d a5 00  	add	s10, a1, a0
   1740e: 89 9d        	c.subw	a1, a0
   17410: 13 95 05 02  	slli	a0, a1, 0x20
   17414: 01 91        	c.srli	a0, 0x20
   17416: 93 05 a0 16  	addi	a1, zero, 0x16a
   1741a: ef 80 61 67  	jal	ra, 0x2fa90 <__muldi3>
   1741e: 13 5c 85 00  	srli	s8, a0, 0x8
   17422: 33 05 34 01  	add	a0, s0, s3
   17426: 02 15        	c.slli	a0, 0x20
   17428: 01 91        	c.srli	a0, 0x20
   1742a: 93 05 90 1d  	addi	a1, zero, 0x1d9
   1742e: ef 80 21 66  	jal	ra, 0x2fa90 <__muldi3>
   17432: 13 59 85 00  	srli	s2, a0, 0x8
   17436: 13 15 04 02  	slli	a0, s0, 0x20
   1743a: 01 91        	c.srli	a0, 0x20
   1743c: 93 05 50 11  	addi	a1, zero, 0x115
   17440: ef 80 01 65  	jal	ra, 0x2fa90 <__muldi3>
   17444: 21 81        	c.srli	a0, 0x8
   17446: 3b 04 25 41  	subw	s0, a0, s2
   1744a: 13 95 09 02  	slli	a0, s3, 0x20
   1744e: 01 91        	c.srli	a0, 0x20
   17450: 82 75        	c.ldsp	a1, 0x20(sp)
   17452: ef 80 e1 63  	jal	ra, 0x2fa90 <__muldi3>
   17456: 22 78        	c.ldsp	a6, 0x28(sp)
   17458: b3 85 ac 01  	add	a1, s9, s10
   1745c: c6 15        	c.slli	a1, 0x31
   1745e: d9 91        	c.srli	a1, 0x36
   17460: d2 95        	c.add	a1, s4
   17462: 83 c5 05 00  	lbu	a1, 0x0(a1)
   17466: 23 80 bd 00  	sb	a1, 0x0(s11)
   1746a: bb 85 ac 41  	subw	a1, s9, s10
   1746e: c6 15        	c.slli	a1, 0x31
   17470: d9 91        	c.srli	a1, 0x36
   17472: d2 95        	c.add	a1, s4
   17474: 83 c5 05 00  	lbu	a1, 0x0(a1)
   17478: 21 81        	c.srli	a0, 0x8
   1747a: 3b 05 a5 41  	subw	a0, a0, s10
   1747e: 4a 95        	c.add	a0, s2
   17480: a3 83 bd 00  	sb	a1, 0x7(s11)
   17484: b3 85 ab 00  	add	a1, s7, a0
   17488: c6 15        	c.slli	a1, 0x31
   1748a: d9 91        	c.srli	a1, 0x36
   1748c: d2 95        	c.add	a1, s4
   1748e: 83 c5 05 00  	lbu	a1, 0x0(a1)
   17492: a3 80 bd 00  	sb	a1, 0x1(s11)
   17496: bb 85 ab 40  	subw	a1, s7, a0
   1749a: c6 15        	c.slli	a1, 0x31
   1749c: d9 91        	c.srli	a1, 0x36
   1749e: d2 95        	c.add	a1, s4
   174a0: 83 c5 05 00  	lbu	a1, 0x0(a1)
   174a4: 3b 05 ac 40  	subw	a0, s8, a0
   174a8: 23 83 bd 00  	sb	a1, 0x6(s11)
   174ac: b3 05 ab 00  	add	a1, s6, a0
   174b0: c6 15        	c.slli	a1, 0x31
   174b2: d9 91        	c.srli	a1, 0x36
   174b4: d2 95        	c.add	a1, s4
   174b6: 83 c5 05 00  	lbu	a1, 0x0(a1)
   174ba: 23 81 bd 00  	sb	a1, 0x2(s11)
   174be: bb 05 ab 40  	subw	a1, s6, a0
   174c2: c6 15        	c.slli	a1, 0x31
   174c4: d9 91        	c.srli	a1, 0x36
   174c6: d2 95        	c.add	a1, s4
   174c8: 83 c5 05 00  	lbu	a1, 0x0(a1)
   174cc: 22 95        	c.add	a0, s0
   174ce: a3 82 bd 00  	sb	a1, 0x5(s11)
   174d2: b3 85 aa 00  	add	a1, s5, a0
   174d6: c6 15        	c.slli	a1, 0x31
   174d8: d9 91        	c.srli	a1, 0x36
   174da: d2 95        	c.add	a1, s4
   174dc: 83 c5 05 00  	lbu	a1, 0x0(a1)
   174e0: 23 82 bd 00  	sb	a1, 0x4(s11)
   174e4: 3b 85 aa 40  	subw	a0, s5, a0
   174e8: 46 15        	c.slli	a0, 0x31
   174ea: 59 91        	c.srli	a0, 0x36
   174ec: 52 95        	c.add	a0, s4
   174ee: 03 45 05 00  	lbu	a0, 0x0(a0)
   174f2: 8d 45        	c.li	a1, 0x3
   174f4: 2d a0        	c.j	0x1751e <jpeg_idct_ifast+0x36c>
   174f6: c6 16        	c.slli	a3, 0x31
   174f8: d9 92        	c.srli	a3, 0x36
   174fa: d2 96        	c.add	a3, s4
   174fc: 03 c5 06 00  	lbu	a0, 0x0(a3)
   17500: 23 80 ad 00  	sb	a0, 0x0(s11)
   17504: a3 80 ad 00  	sb	a0, 0x1(s11)
   17508: 23 81 ad 00  	sb	a0, 0x2(s11)
   1750c: a3 81 ad 00  	sb	a0, 0x3(s11)
   17510: 23 82 ad 00  	sb	a0, 0x4(s11)
   17514: a3 82 ad 00  	sb	a0, 0x5(s11)
   17518: 23 83 ad 00  	sb	a0, 0x6(s11)
   1751c: 9d 45        	c.li	a1, 0x7
   1751e: ee 95        	c.add	a1, s11
   17520: 23 80 a5 00  	sb	a0, 0x0(a1)
   17524: 21 08        	c.addi	a6, 0x8
   17526: 93 84 04 02  	addi	s1, s1, 0x20
   1752a: 42 65        	c.ldsp	a0, 0x10(sp)
   1752c: e3 11 a8 e6  	bne	a6, a0, 0x1738e <jpeg_idct_ifast+0x1dc>
   17530: 55 61        	c.addi16sp	sp, 0x130
   17532: 6f 80 21 53  	jal	zero, 0x2fa64 <__riscv_restore_12>

0000000000017536 <jpeg_idct_float>:
   17536: ef 82 41 51  	jal	t0, 0x2fa4a <__riscv_save_3>
   1753a: 11 71        	c.addi16sp	sp, -0x100
   1753c: 03 38 85 19  	ld	a6, 0x198(a0)
   17540: a8 6d        	c.ld	a0, 0x58(a1)
   17542: 93 05 06 04  	addi	a1, a2, 0x40
   17546: 87 a7 01 1e  	flw	fa5, 0x1e0(gp)
   1754a: 07 a7 41 1e  	flw	fa4, 0x1e4(gp)
   1754e: 87 a6 81 1e  	flw	fa3, 0x1e8(gp)
   17552: 07 a6 c1 1e  	flw	fa2, 0x1ec(gp)
   17556: 13 06 05 08  	addi	a2, a0, 0x80
   1755a: 8a 87        	c.mv	a5, sp
   1755c: 93 08 01 02  	addi	a7, sp, 0x20
   17560: 03 de 05 fd  	lhu	t3, -0x30(a1)
   17564: 83 df 05 fe  	lhu	t6, -0x20(a1)
   17568: 83 d3 05 ff  	lhu	t2, -0x10(a1)
   1756c: 03 df 05 00  	lhu	t5, 0x0(a1)
   17570: 33 e5 cf 01  	or	a0, t6, t3
   17574: 03 d3 05 01  	lhu	t1, 0x10(a1)
   17578: 83 de 05 02  	lhu	t4, 0x20(a1)
   1757c: 33 e4 e3 01  	or	s0, t2, t5
   17580: 83 d2 05 03  	lhu	t0, 0x30(a1)
   17584: 41 8d        	c.or	a0, s0
   17586: 33 64 d3 01  	or	s0, t1, t4
   1758a: 83 94 05 fc  	lh	s1, -0x40(a1)
   1758e: 33 64 54 00  	or	s0, s0, t0
   17592: 87 25 06 f8  	flw	fa1, -0x80(a2)
   17596: 41 8d        	c.or	a0, s0
   17598: 53 f5 04 d0  	fcvt.s.w	fa0, s1, dyn
   1759c: 42 15        	c.slli	a0, 0x30
   1759e: d3 f5 a5 10  	fmul.s	fa1, fa1, fa0, dyn
   175a2: 63 09 05 10  	beq	a0, zero, 0x176b4 <jpeg_idct_float+0x17e>
   175a6: 07 25 06 fc  	flw	fa0, -0x40(a2)
   175aa: c2 1f        	c.slli	t6, 0x30
   175ac: 13 d5 0f 43  	srai	a0, t6, 0x30
   175b0: 53 70 05 d0  	fcvt.s.w	ft0, a0, dyn
   175b4: 53 75 05 10  	fmul.s	fa0, fa0, ft0, dyn
   175b8: 07 20 06 00  	flw	ft0, 0x0(a2)
   175bc: 42 1f        	c.slli	t5, 0x30
   175be: 13 55 0f 43  	srai	a0, t5, 0x30
   175c2: d3 70 05 d0  	fcvt.s.w	ft1, a0, dyn
   175c6: 53 70 10 10  	fmul.s	ft0, ft0, ft1, dyn
   175ca: 87 20 06 04  	flw	ft1, 0x40(a2)
   175ce: c2 1e        	c.slli	t4, 0x30
   175d0: 13 d5 0e 43  	srai	a0, t4, 0x30
   175d4: 53 71 05 d0  	fcvt.s.w	ft2, a0, dyn
   175d8: d3 f0 20 10  	fmul.s	ft1, ft1, ft2, dyn
   175dc: 53 f1 05 00  	fadd.s	ft2, fa1, ft0, dyn
   175e0: d3 f5 05 08  	fsub.s	fa1, fa1, ft0, dyn
   175e4: 53 70 15 00  	fadd.s	ft0, fa0, ft1, dyn
   175e8: 53 75 15 08  	fsub.s	fa0, fa0, ft1, dyn
   175ec: 47 75 f5 00  	fmsub.s	fa0, fa0, fa5, ft0, dyn
   175f0: d3 70 01 00  	fadd.s	ft1, ft2, ft0, dyn
   175f4: 53 71 01 08  	fsub.s	ft2, ft2, ft0, dyn
   175f8: 53 f0 a5 00  	fadd.s	ft0, fa1, fa0, dyn
   175fc: d3 f5 a5 08  	fsub.s	fa1, fa1, fa0, dyn
   17600: 07 25 06 fa  	flw	fa0, -0x60(a2)
   17604: 42 1e        	c.slli	t3, 0x30
   17606: 13 55 0e 43  	srai	a0, t3, 0x30
   1760a: d3 71 05 d0  	fcvt.s.w	ft3, a0, dyn
   1760e: 53 75 35 10  	fmul.s	fa0, fa0, ft3, dyn
   17612: 87 21 06 fe  	flw	ft3, -0x20(a2)
   17616: c2 13        	c.slli	t2, 0x30
   17618: 13 d5 03 43  	srai	a0, t2, 0x30
   1761c: 53 72 05 d0  	fcvt.s.w	ft4, a0, dyn
   17620: d3 f1 41 10  	fmul.s	ft3, ft3, ft4, dyn
   17624: 07 22 06 02  	flw	ft4, 0x20(a2)
   17628: 42 13        	c.slli	t1, 0x30
   1762a: 13 55 03 43  	srai	a0, t1, 0x30
   1762e: d3 72 05 d0  	fcvt.s.w	ft5, a0, dyn
   17632: 53 72 52 10  	fmul.s	ft4, ft4, ft5, dyn
   17636: 87 22 06 06  	flw	ft5, 0x60(a2)
   1763a: c2 12        	c.slli	t0, 0x30
   1763c: 13 d5 02 43  	srai	a0, t0, 0x30
   17640: 53 73 05 d0  	fcvt.s.w	ft6, a0, dyn
   17644: d3 f2 62 10  	fmul.s	ft5, ft5, ft6, dyn
   17648: 53 f3 41 00  	fadd.s	ft6, ft3, ft4, dyn
   1764c: d3 71 32 08  	fsub.s	ft3, ft4, ft3, dyn
   17650: 53 72 55 00  	fadd.s	ft4, fa0, ft5, dyn
   17654: 53 75 55 08  	fsub.s	fa0, fa0, ft5, dyn
   17658: d3 72 43 00  	fadd.s	ft5, ft6, ft4, dyn
   1765c: 53 72 62 08  	fsub.s	ft4, ft4, ft6, dyn
   17660: 53 72 f2 10  	fmul.s	ft4, ft4, fa5, dyn
   17664: 53 f3 a1 00  	fadd.s	ft6, ft3, fa0, dyn
   17668: 53 73 e3 10  	fmul.s	ft6, ft6, fa4, dyn
   1766c: 47 75 d5 30  	fmsub.s	fa0, fa0, fa3, ft6, dyn
   17670: c3 f1 c1 30  	fmadd.s	ft3, ft3, fa2, ft6, dyn
   17674: d3 f1 51 08  	fsub.s	ft3, ft3, ft5, dyn
   17678: 53 72 32 08  	fsub.s	ft4, ft4, ft3, dyn
   1767c: 53 73 45 00  	fadd.s	ft6, fa0, ft4, dyn
   17680: 53 f5 50 00  	fadd.s	fa0, ft1, ft5, dyn
   17684: 27 a0 a7 00  	fsw	fa0, 0x0(a5)
   17688: 53 f5 50 08  	fsub.s	fa0, ft1, ft5, dyn
   1768c: d3 70 30 00  	fadd.s	ft1, ft0, ft3, dyn
   17690: 27 a0 17 02  	fsw	ft1, 0x20(a5)
   17694: 53 70 30 08  	fsub.s	ft0, ft0, ft3, dyn
   17698: d3 f0 45 00  	fadd.s	ft1, fa1, ft4, dyn
   1769c: 27 a0 17 04  	fsw	ft1, 0x40(a5)
   176a0: d3 f0 45 08  	fsub.s	ft1, fa1, ft4, dyn
   176a4: d3 75 61 00  	fadd.s	fa1, ft2, ft6, dyn
   176a8: 27 a0 b7 08  	fsw	fa1, 0x80(a5)
   176ac: d3 75 61 08  	fsub.s	fa1, ft2, ft6, dyn
   176b0: 61 45        	c.li	a0, 0x18
   176b2: 0d a0        	c.j	0x176d4 <jpeg_idct_float+0x19e>
   176b4: 27 a0 b7 00  	fsw	fa1, 0x0(a5)
   176b8: 27 a0 b7 02  	fsw	fa1, 0x20(a5)
   176bc: 27 a0 b7 04  	fsw	fa1, 0x40(a5)
   176c0: 27 a0 b7 06  	fsw	fa1, 0x60(a5)
   176c4: 13 05 00 02  	addi	a0, zero, 0x20
   176c8: d3 80 b5 20  	fsgnj.s	ft1, fa1, fa1
   176cc: 53 80 b5 20  	fsgnj.s	ft0, fa1, fa1
   176d0: 53 85 b5 20  	fsgnj.s	fa0, fa1, fa1
   176d4: 0a 05        	c.slli	a0, 0x2
   176d6: 3e 95        	c.add	a0, a5
   176d8: 27 20 b5 00  	fsw	fa1, 0x0(a0)
   176dc: 27 a0 17 0a  	fsw	ft1, 0xa0(a5)
   176e0: 27 a0 07 0c  	fsw	ft0, 0xc0(a5)
   176e4: 27 a0 a7 0e  	fsw	fa0, 0xe0(a5)
   176e8: 91 07        	c.addi	a5, 0x4
   176ea: 89 05        	c.addi	a1, 0x2
   176ec: 11 06        	c.addi	a2, 0x4
   176ee: e3 99 17 e7  	bne	a5, a7, 0x17560 <jpeg_idct_float+0x2a>
   176f2: 13 05 08 08  	addi	a0, a6, 0x80
   176f6: 93 15 07 02  	slli	a1, a4, 0x20
   176fa: 87 a7 01 1e  	flw	fa5, 0x1e0(gp)
   176fe: 07 a7 41 1e  	flw	fa4, 0x1e4(gp)
   17702: 87 a6 81 1e  	flw	fa3, 0x1e8(gp)
   17706: 07 a6 c1 1e  	flw	fa2, 0x1ec(gp)
   1770a: 81 91        	c.srli	a1, 0x20
   1770c: 0a 86        	c.mv	a2, sp
   1770e: 18 02        	c.addi4spn	a4, sp, 0x100
   17710: 9c 62        	c.ld	a5, 0x0(a3)
   17712: 07 25 06 00  	flw	fa0, 0x0(a2)
   17716: 07 20 06 01  	flw	ft0, 0x10(a2)
   1771a: 87 20 86 00  	flw	ft1, 0x8(a2)
   1771e: 07 21 86 01  	flw	ft2, 0x18(a2)
   17722: ae 97        	c.add	a5, a1
   17724: d3 75 05 00  	fadd.s	fa1, fa0, ft0, dyn
   17728: d3 71 05 08  	fsub.s	ft3, fa0, ft0, dyn
   1772c: 53 f5 20 00  	fadd.s	fa0, ft1, ft2, dyn
   17730: 53 f0 20 08  	fsub.s	ft0, ft1, ft2, dyn
   17734: c7 70 f0 50  	fmsub.s	ft1, ft0, fa5, fa0, dyn
   17738: 07 20 46 01  	flw	ft0, 0x14(a2)
   1773c: 07 21 c6 00  	flw	ft2, 0xc(a2)
   17740: 07 22 46 00  	flw	ft4, 0x4(a2)
   17744: 87 22 c6 01  	flw	ft5, 0x1c(a2)
   17748: 53 f3 a5 00  	fadd.s	ft6, fa1, fa0, dyn
   1774c: d3 73 20 00  	fadd.s	ft7, ft0, ft2, dyn
   17750: 53 71 20 08  	fsub.s	ft2, ft0, ft2, dyn
   17754: 53 78 52 00  	fadd.s	fa6, ft4, ft5, dyn
   17758: 53 70 52 08  	fsub.s	ft0, ft4, ft5, dyn
   1775c: 53 f2 03 01  	fadd.s	ft4, ft7, fa6, dyn
   17760: d3 72 43 00  	fadd.s	ft5, ft6, ft4, dyn
   17764: d3 94 22 c0  	fcvt.l.s	s1, ft5, rtz
   17768: d3 f2 11 00  	fadd.s	ft5, ft3, ft1, dyn
   1776c: 91 04        	c.addi	s1, 0x4
   1776e: ce 14        	c.slli	s1, 0x33
   17770: d9 90        	c.srli	s1, 0x36
   17772: aa 94        	c.add	s1, a0
   17774: 83 c4 04 00  	lbu	s1, 0x0(s1)
   17778: 53 73 43 08  	fsub.s	ft6, ft6, ft4, dyn
   1777c: 53 14 23 c0  	fcvt.l.s	s0, ft6, rtz
   17780: 53 73 01 00  	fadd.s	ft6, ft2, ft0, dyn
   17784: 53 73 e3 10  	fmul.s	ft6, ft6, fa4, dyn
   17788: 43 71 c1 30  	fmadd.s	ft2, ft2, fa2, ft6, dyn
   1778c: 23 80 97 00  	sb	s1, 0x0(a5)
   17790: 11 04        	c.addi	s0, 0x4
   17792: 4e 14        	c.slli	s0, 0x33
   17794: 59 90        	c.srli	s0, 0x36
   17796: 2a 94        	c.add	s0, a0
   17798: 83 44 04 00  	lbu	s1, 0x0(s0)
   1779c: 53 71 41 08  	fsub.s	ft2, ft2, ft4, dyn
   177a0: 53 f2 22 00  	fadd.s	ft4, ft5, ft2, dyn
   177a4: 53 14 22 c0  	fcvt.l.s	s0, ft4, rtz
   177a8: a3 83 97 00  	sb	s1, 0x7(a5)
   177ac: 11 04        	c.addi	s0, 0x4
   177ae: 4e 14        	c.slli	s0, 0x33
   177b0: 59 90        	c.srli	s0, 0x36
   177b2: 2a 94        	c.add	s0, a0
   177b4: 83 44 04 00  	lbu	s1, 0x0(s0)
   177b8: d3 f0 11 08  	fsub.s	ft1, ft3, ft1, dyn
   177bc: a3 80 97 00  	sb	s1, 0x1(a5)
   177c0: d3 f1 22 08  	fsub.s	ft3, ft5, ft2, dyn
   177c4: d3 94 21 c0  	fcvt.l.s	s1, ft3, rtz
   177c8: 91 04        	c.addi	s1, 0x4
   177ca: ce 14        	c.slli	s1, 0x33
   177cc: d9 90        	c.srli	s1, 0x36
   177ce: aa 94        	c.add	s1, a0
   177d0: 83 c4 04 00  	lbu	s1, 0x0(s1)
   177d4: d3 71 78 08  	fsub.s	ft3, fa6, ft7, dyn
   177d8: d3 f1 f1 10  	fmul.s	ft3, ft3, fa5, dyn
   177dc: 53 f1 21 08  	fsub.s	ft2, ft3, ft2, dyn
   177e0: 23 83 97 00  	sb	s1, 0x6(a5)
   177e4: d3 f1 20 00  	fadd.s	ft3, ft1, ft2, dyn
   177e8: d3 94 21 c0  	fcvt.l.s	s1, ft3, rtz
   177ec: 91 04        	c.addi	s1, 0x4
   177ee: ce 14        	c.slli	s1, 0x33
   177f0: d9 90        	c.srli	s1, 0x36
   177f2: aa 94        	c.add	s1, a0
   177f4: 83 c4 04 00  	lbu	s1, 0x0(s1)
   177f8: 23 81 97 00  	sb	s1, 0x2(a5)
   177fc: d3 f0 20 08  	fsub.s	ft1, ft1, ft2, dyn
   17800: d3 94 20 c0  	fcvt.l.s	s1, ft1, rtz
   17804: 91 04        	c.addi	s1, 0x4
   17806: ce 14        	c.slli	s1, 0x33
   17808: d9 90        	c.srli	s1, 0x36
   1780a: aa 94        	c.add	s1, a0
   1780c: 83 c4 04 00  	lbu	s1, 0x0(s1)
   17810: d3 f5 a5 08  	fsub.s	fa1, fa1, fa0, dyn
   17814: 47 75 d0 30  	fmsub.s	fa0, ft0, fa3, ft6, dyn
   17818: 53 75 25 00  	fadd.s	fa0, fa0, ft2, dyn
   1781c: a3 82 97 00  	sb	s1, 0x5(a5)
   17820: 53 f0 a5 00  	fadd.s	ft0, fa1, fa0, dyn
   17824: d3 14 20 c0  	fcvt.l.s	s1, ft0, rtz
   17828: 91 04        	c.addi	s1, 0x4
   1782a: ce 14        	c.slli	s1, 0x33
   1782c: d9 90        	c.srli	s1, 0x36
   1782e: aa 94        	c.add	s1, a0
   17830: 83 c4 04 00  	lbu	s1, 0x0(s1)
   17834: 23 82 97 00  	sb	s1, 0x4(a5)
   17838: d3 f5 a5 08  	fsub.s	fa1, fa1, fa0, dyn
   1783c: d3 94 25 c0  	fcvt.l.s	s1, fa1, rtz
   17840: 91 04        	c.addi	s1, 0x4
   17842: ce 14        	c.slli	s1, 0x33
   17844: d9 90        	c.srli	s1, 0x36
   17846: aa 94        	c.add	s1, a0
   17848: 83 c4 04 00  	lbu	s1, 0x0(s1)
   1784c: a3 81 97 00  	sb	s1, 0x3(a5)
   17850: 13 06 06 02  	addi	a2, a2, 0x20
   17854: a1 06        	c.addi	a3, 0x8
   17856: e3 1d e6 ea  	bne	a2, a4, 0x17710 <jpeg_idct_float+0x1da>
   1785a: 11 61        	c.addi16sp	sp, 0x100
   1785c: 6f 80 41 22  	jal	zero, 0x2fa80 <__riscv_restore_3>

0000000000017860 <jpeg_idct_islow>:
   17860: ef 82 a1 1b  	jal	t0, 0x2fa1a <__riscv_save_12>
   17864: 25 71        	c.addi16sp	sp, -0x1a0
   17866: 3a e4        	c.sdsp	a4, 0x8(sp)
   17868: 36 e5        	c.sdsp	a3, 0x88(sp)
   1786a: b2 8d        	c.mv	s11, a2
   1786c: 7d 76        	c.lui	a2, 0xfffff
   1786e: 1b 06 46 38  	addiw	a2, a2, 0x384
   17872: 32 e1        	c.sdsp	a2, 0x80(sp)
   17874: 79 76        	c.lui	a2, 0xffffe
   17876: 1b 06 36 33  	addiw	a2, a2, 0x333
   1787a: b2 fc        	c.sdsp	a2, 0x78(sp)
   1787c: 71 76        	c.lui	a2, 0xffffc
   1787e: 1b 06 b6 13  	addiw	a2, a2, 0x13b
   17882: 32 ed        	c.sdsp	a2, 0x98(sp)
   17884: 6d 76        	c.lui	a2, 0xffffb
   17886: 1b 06 d6 df  	addiw	a2, a2, -0x203
   1788a: b2 f8        	c.sdsp	a2, 0x70(sp)
   1788c: 19 66        	c.lui	a2, 0x6
   1788e: 1b 06 46 25  	addiw	a2, a2, 0x254
   17892: b2 f4        	c.sdsp	a2, 0x68(sp)
   17894: 11 66        	c.lui	a2, 0x4
   17896: 1b 06 36 1b  	addiw	a2, a2, 0x1b3
   1789a: b2 f0        	c.sdsp	a2, 0x60(sp)
   1789c: 0d 66        	c.lui	a2, 0x3
   1789e: 2d 26        	c.addiw	a2, 0xb
   178a0: b2 ec        	c.sdsp	a2, 0x58(sp)
   178a2: 09 66        	c.lui	a2, 0x2
   178a4: 9b 06 16 5a  	addiw	a3, a2, 0x5a1
   178a8: b6 e8        	c.sdsp	a3, 0x50(sp)
   178aa: 1b 06 e6 87  	addiw	a2, a2, -0x782
   178ae: b2 e4        	c.sdsp	a2, 0x48(sp)
   178b0: 05 66        	c.lui	a2, 0x1
   178b2: 03 35 85 19  	ld	a0, 0x198(a0)
   178b6: 2a e0        	c.sdsp	a0, 0x0(sp)
   178b8: 03 bb 85 05  	ld	s6, 0x58(a1)
   178bc: 1b 05 e6 98  	addiw	a0, a2, -0x672
   178c0: 2a e9        	c.sdsp	a0, 0x90(sp)
   178c2: 93 09 01 0a  	addi	s3, sp, 0xa0
   178c6: 13 85 0d 01  	addi	a0, s11, 0x10
   178ca: 2a e8        	c.sdsp	a0, 0x10(sp)
   178cc: 03 99 0d 01  	lh	s2, 0x10(s11)
   178d0: 83 95 0d 02  	lh	a1, 0x20(s11)
   178d4: 33 e5 25 01  	or	a0, a1, s2
   178d8: 03 9a 0d 03  	lh	s4, 0x30(s11)
   178dc: 03 9c 0d 04  	lh	s8, 0x40(s11)
   178e0: 83 9b 0d 05  	lh	s7, 0x50(s11)
   178e4: 83 94 0d 06  	lh	s1, 0x60(s11)
   178e8: 83 9a 0d 07  	lh	s5, 0x70(s11)
   178ec: 33 66 8a 01  	or	a2, s4, s8
   178f0: 51 8d        	c.or	a0, a2
   178f2: 33 e6 9b 00  	or	a2, s7, s1
   178f6: 33 66 56 01  	or	a2, a2, s5
   178fa: 51 8d        	c.or	a0, a2
   178fc: 42 15        	c.slli	a0, 0x30
   178fe: 63 06 05 1a  	beq	a0, zero, 0x17aaa <jpeg_idct_islow+0x24a>
   17902: 03 25 0b 04  	lw	a0, 0x40(s6)
   17906: ef 80 a1 18  	jal	ra, 0x2fa90 <__muldi3>
   1790a: 83 25 0b 0c  	lw	a1, 0xc0(s6)
   1790e: 9b 0c 05 00  	addiw	s9, a0, 0x0
   17912: 2e 85        	c.mv	a0, a1
   17914: a6 85        	c.mv	a1, s1
   17916: ef 80 a1 17  	jal	ra, 0x2fa90 <__muldi3>
   1791a: 9b 04 05 00  	addiw	s1, a0, 0x0
   1791e: 33 85 94 01  	add	a0, s1, s9
   17922: ca 65        	c.ldsp	a1, 0x90(sp)
   17924: 93 85 35 7c  	addi	a1, a1, 0x7c3
   17928: ef 80 81 16  	jal	ra, 0x2fa90 <__muldi3>
   1792c: 2a 84        	c.mv	s0, a0
   1792e: 6a 65        	c.ldsp	a0, 0x98(sp)
   17930: 93 05 45 3a  	addi	a1, a0, 0x3a4
   17934: 26 85        	c.mv	a0, s1
   17936: ef 80 a1 15  	jal	ra, 0x2fa90 <__muldi3>
   1793a: 33 0d a4 00  	add	s10, s0, a0
   1793e: 66 85        	c.mv	a0, s9
   17940: a6 65        	c.ldsp	a1, 0x48(sp)
   17942: ef 80 e1 14  	jal	ra, 0x2fa90 <__muldi3>
   17946: 83 95 0d 00  	lh	a1, 0x0(s11)
   1794a: 03 26 0b 00  	lw	a2, 0x0(s6)
   1794e: 2a 94        	c.add	s0, a0
   17950: 32 85        	c.mv	a0, a2
   17952: ef 80 e1 13  	jal	ra, 0x2fa90 <__muldi3>
   17956: 83 25 0b 08  	lw	a1, 0x80(s6)
   1795a: 9b 04 05 00  	addiw	s1, a0, 0x0
   1795e: 2e 85        	c.mv	a0, a1
   17960: e2 85        	c.mv	a1, s8
   17962: ef 80 e1 12  	jal	ra, 0x2fa90 <__muldi3>
   17966: 01 25        	c.addiw	a0, 0x0
   17968: b3 05 95 00  	add	a1, a0, s1
   1796c: b6 05        	c.slli	a1, 0xd
   1796e: 89 8c        	c.sub	s1, a0
   17970: b6 04        	c.slli	s1, 0xd
   17972: 33 85 85 00  	add	a0, a1, s0
   17976: 2a f8        	c.sdsp	a0, 0x30(sp)
   17978: 03 25 0b 0e  	lw	a0, 0xe0(s6)
   1797c: 81 8d        	c.sub	a1, s0
   1797e: ae e0        	c.sdsp	a1, 0x40(sp)
   17980: b3 85 a4 01  	add	a1, s1, s10
   17984: 2e f4        	c.sdsp	a1, 0x28(sp)
   17986: b3 85 a4 41  	sub	a1, s1, s10
   1798a: 2e fc        	c.sdsp	a1, 0x38(sp)
   1798c: d6 85        	c.mv	a1, s5
   1798e: ef 80 21 10  	jal	ra, 0x2fa90 <__muldi3>
   17992: 83 25 0b 0a  	lw	a1, 0xa0(s6)
   17996: 9b 0a 05 00  	addiw	s5, a0, 0x0
   1799a: 2e 85        	c.mv	a0, a1
   1799c: de 85        	c.mv	a1, s7
   1799e: ef 80 21 0f  	jal	ra, 0x2fa90 <__muldi3>
   179a2: 83 25 0b 06  	lw	a1, 0x60(s6)
   179a6: 9b 0b 05 00  	addiw	s7, a0, 0x0
   179aa: 2e 85        	c.mv	a0, a1
   179ac: d2 85        	c.mv	a1, s4
   179ae: ef 80 21 0e  	jal	ra, 0x2fa90 <__muldi3>
   179b2: 83 25 0b 02  	lw	a1, 0x20(s6)
   179b6: 1b 04 05 00  	addiw	s0, a0, 0x0
   179ba: 2e 85        	c.mv	a0, a1
   179bc: ca 85        	c.mv	a1, s2
   179be: ef 80 21 0d  	jal	ra, 0x2fa90 <__muldi3>
   179c2: 9b 04 05 00  	addiw	s1, a0, 0x0
   179c6: 33 89 54 01  	add	s2, s1, s5
   179ca: 33 05 74 01  	add	a0, s0, s7
   179ce: 2a ec        	c.sdsp	a0, 0x18(sp)
   179d0: 33 0c 54 01  	add	s8, s0, s5
   179d4: b3 8c 74 01  	add	s9, s1, s7
   179d8: 33 85 8c 01  	add	a0, s9, s8
   179dc: c6 65        	c.ldsp	a1, 0x50(sp)
   179de: ef 80 21 0b  	jal	ra, 0x2fa90 <__muldi3>
   179e2: 2a 8d        	c.mv	s10, a0
   179e4: 56 85        	c.mv	a0, s5
   179e6: ca 65        	c.ldsp	a1, 0x90(sp)
   179e8: ef 80 81 0a  	jal	ra, 0x2fa90 <__muldi3>
   179ec: 2a f0        	c.sdsp	a0, 0x20(sp)
   179ee: 5e 85        	c.mv	a0, s7
   179f0: 86 75        	c.ldsp	a1, 0x60(sp)
   179f2: ef 80 e1 09  	jal	ra, 0x2fa90 <__muldi3>
   179f6: aa 8b        	c.mv	s7, a0
   179f8: 22 85        	c.mv	a0, s0
   179fa: a6 75        	c.ldsp	a1, 0x68(sp)
   179fc: ef 80 41 09  	jal	ra, 0x2fa90 <__muldi3>
   17a00: aa 8a        	c.mv	s5, a0
   17a02: 26 85        	c.mv	a0, s1
   17a04: e6 65        	c.ldsp	a1, 0x58(sp)
   17a06: ef 80 a1 08  	jal	ra, 0x2fa90 <__muldi3>
   17a0a: 2a 8a        	c.mv	s4, a0
   17a0c: 4a 85        	c.mv	a0, s2
   17a0e: e6 75        	c.ldsp	a1, 0x78(sp)
   17a10: ef 80 01 08  	jal	ra, 0x2fa90 <__muldi3>
   17a14: 2a 89        	c.mv	s2, a0
   17a16: 62 65        	c.ldsp	a0, 0x18(sp)
   17a18: c6 75        	c.ldsp	a1, 0x70(sp)
   17a1a: ef 80 61 07  	jal	ra, 0x2fa90 <__muldi3>
   17a1e: aa 84        	c.mv	s1, a0
   17a20: 62 85        	c.mv	a0, s8
   17a22: ea 65        	c.ldsp	a1, 0x98(sp)
   17a24: ef 80 c1 06  	jal	ra, 0x2fa90 <__muldi3>
   17a28: 2a 84        	c.mv	s0, a0
   17a2a: 66 85        	c.mv	a0, s9
   17a2c: 8a 65        	c.ldsp	a1, 0x80(sp)
   17a2e: ef 80 21 06  	jal	ra, 0x2fa90 <__muldi3>
   17a32: 6a 94        	c.add	s0, s10
   17a34: 6a 95        	c.add	a0, s10
   17a36: 82 75        	c.ldsp	a1, 0x20(sp)
   17a38: ca 95        	c.add	a1, s2
   17a3a: 33 86 85 00  	add	a2, a1, s0
   17a3e: a6 9b        	c.add	s7, s1
   17a40: aa 9b        	c.add	s7, a0
   17a42: d6 94        	c.add	s1, s5
   17a44: 26 94        	c.add	s0, s1
   17a46: 52 99        	c.add	s2, s4
   17a48: 4a 95        	c.add	a0, s2
   17a4a: c2 75        	c.ldsp	a1, 0x30(sp)
   17a4c: 93 85 05 40  	addi	a1, a1, 0x400
   17a50: b3 86 a5 00  	add	a3, a1, a0
   17a54: ad 82        	c.srli	a3, 0xb
   17a56: 23 a0 d9 00  	sw	a3, 0x0(s3)
   17a5a: 33 85 a5 40  	sub	a0, a1, a0
   17a5e: 2d 81        	c.srli	a0, 0xb
   17a60: a2 75        	c.ldsp	a1, 0x28(sp)
   17a62: 93 85 05 40  	addi	a1, a1, 0x400
   17a66: b3 86 85 00  	add	a3, a1, s0
   17a6a: ad 82        	c.srli	a3, 0xb
   17a6c: 23 a0 d9 02  	sw	a3, 0x20(s3)
   17a70: 81 8d        	c.sub	a1, s0
   17a72: ad 81        	c.srli	a1, 0xb
   17a74: e2 76        	c.ldsp	a3, 0x38(sp)
   17a76: 93 86 06 40  	addi	a3, a3, 0x400
   17a7a: 33 87 76 01  	add	a4, a3, s7
   17a7e: 2d 83        	c.srli	a4, 0xb
   17a80: 23 a0 e9 04  	sw	a4, 0x40(s3)
   17a84: b3 86 76 41  	sub	a3, a3, s7
   17a88: ad 82        	c.srli	a3, 0xb
   17a8a: 23 a0 d9 0a  	sw	a3, 0xa0(s3)
   17a8e: 86 66        	c.ldsp	a3, 0x40(sp)
   17a90: 93 86 06 40  	addi	a3, a3, 0x400
   17a94: 33 87 c6 00  	add	a4, a3, a2
   17a98: 2d 83        	c.srli	a4, 0xb
   17a9a: 23 a0 e9 06  	sw	a4, 0x60(s3)
   17a9e: 33 86 c6 40  	sub	a2, a3, a2
   17aa2: 2d 82        	c.srli	a2, 0xb
   17aa4: 93 06 00 02  	addi	a3, zero, 0x20
   17aa8: 3d a0        	c.j	0x17ad6 <jpeg_idct_islow+0x276>
   17aaa: 03 95 0d 00  	lh	a0, 0x0(s11)
   17aae: 83 25 0b 00  	lw	a1, 0x0(s6)
   17ab2: ef 70 f1 7d  	jal	ra, 0x2fa90 <__muldi3>
   17ab6: 13 16 25 00  	slli	a2, a0, 0x2
   17aba: 23 a0 c9 00  	sw	a2, 0x0(s3)
   17abe: 23 a0 c9 02  	sw	a2, 0x20(s3)
   17ac2: 23 a0 c9 04  	sw	a2, 0x40(s3)
   17ac6: 23 a0 c9 06  	sw	a2, 0x60(s3)
   17aca: 23 a0 c9 08  	sw	a2, 0x80(s3)
   17ace: 93 06 80 02  	addi	a3, zero, 0x28
   17ad2: b2 85        	c.mv	a1, a2
   17ad4: 32 85        	c.mv	a0, a2
   17ad6: 8a 06        	c.slli	a3, 0x2
   17ad8: ce 96        	c.add	a3, s3
   17ada: 90 c2        	c.sw	a2, 0x0(a3)
   17adc: 23 a0 b9 0c  	sw	a1, 0xc0(s3)
   17ae0: 23 a0 a9 0e  	sw	a0, 0xe0(s3)
   17ae4: 91 09        	c.addi	s3, 0x4
   17ae6: 89 0d        	c.addi	s11, 0x2
   17ae8: 11 0b        	c.addi	s6, 0x4
   17aea: 42 65        	c.ldsp	a0, 0x10(sp)
   17aec: e3 90 ad de  	bne	s11, a0, 0x178cc <jpeg_idct_islow+0x6c>
   17af0: 02 65        	c.ldsp	a0, 0x0(sp)
   17af2: 93 0d 05 08  	addi	s11, a0, 0x80
   17af6: 22 65        	c.ldsp	a0, 0x8(sp)
   17af8: 02 15        	c.slli	a0, 0x20
   17afa: 01 91        	c.srli	a0, 0x20
   17afc: 2a ec        	c.sdsp	a0, 0x18(sp)
   17afe: 13 09 01 0b  	addi	s2, sp, 0xb0
   17b02: 2a 66        	c.ldsp	a2, 0x88(sp)
   17b04: 13 05 06 04  	addi	a0, a2, 0x40
   17b08: 2a e8        	c.sdsp	a0, 0x10(sp)
   17b0a: 4a 65        	c.ldsp	a0, 0x90(sp)
   17b0c: 13 05 35 7c  	addi	a0, a0, 0x7c3
   17b10: 2a e4        	c.sdsp	a0, 0x8(sp)
   17b12: 6a 65        	c.ldsp	a0, 0x98(sp)
   17b14: 13 05 45 3a  	addi	a0, a0, 0x3a4
   17b18: 2a e0        	c.sdsp	a0, 0x0(sp)
   17b1a: 03 6c 49 ff  	lwu	s8, -0xc(s2)
   17b1e: 03 64 89 ff  	lwu	s0, -0x8(s2)
   17b22: 83 3b 06 00  	ld	s7, 0x0(a2)
   17b26: 33 65 84 01  	or	a0, s0, s8
   17b2a: 03 6b c9 ff  	lwu	s6, -0x4(s2)
   17b2e: 03 2a 09 00  	lw	s4, 0x0(s2)
   17b32: 83 6c 49 00  	lwu	s9, 0x4(s2)
   17b36: 83 64 89 00  	lwu	s1, 0x8(s2)
   17b3a: 83 6a c9 00  	lwu	s5, 0xc(s2)
   17b3e: b3 65 4b 01  	or	a1, s6, s4
   17b42: 4d 8d        	c.or	a0, a1
   17b44: b3 e5 9c 00  	or	a1, s9, s1
   17b48: b3 e5 55 01  	or	a1, a1, s5
   17b4c: 4d 8d        	c.or	a0, a1
   17b4e: 01 25        	c.addiw	a0, 0x0
   17b50: e2 65        	c.ldsp	a1, 0x18(sp)
   17b52: ae 9b        	c.add	s7, a1
   17b54: 63 0f 05 16  	beq	a0, zero, 0x17cd2 <jpeg_idct_islow+0x472>
   17b58: 33 85 84 00  	add	a0, s1, s0
   17b5c: a2 65        	c.ldsp	a1, 0x8(sp)
   17b5e: 32 e5        	c.sdsp	a2, 0x88(sp)
   17b60: ef 70 11 73  	jal	ra, 0x2fa90 <__muldi3>
   17b64: aa 89        	c.mv	s3, a0
   17b66: 26 85        	c.mv	a0, s1
   17b68: 82 65        	c.ldsp	a1, 0x0(sp)
   17b6a: ef 70 71 72  	jal	ra, 0x2fa90 <__muldi3>
   17b6e: b3 84 a9 00  	add	s1, s3, a0
   17b72: 22 85        	c.mv	a0, s0
   17b74: a6 65        	c.ldsp	a1, 0x48(sp)
   17b76: ef 70 b1 71  	jal	ra, 0x2fa90 <__muldi3>
   17b7a: 83 25 09 ff  	lw	a1, -0x10(s2)
   17b7e: 4e 95        	c.add	a0, s3
   17b80: 33 86 45 01  	add	a2, a1, s4
   17b84: 36 06        	c.slli	a2, 0xd
   17b86: bb 85 45 41  	subw	a1, a1, s4
   17b8a: b6 05        	c.slli	a1, 0xd
   17b8c: b3 06 a6 00  	add	a3, a2, a0
   17b90: 36 f0        	c.sdsp	a3, 0x20(sp)
   17b92: 09 9e        	c.subw	a2, a0
   17b94: b2 e0        	c.sdsp	a2, 0x40(sp)
   17b96: 33 85 95 00  	add	a0, a1, s1
   17b9a: 2a f4        	c.sdsp	a0, 0x28(sp)
   17b9c: 85 9d        	c.subw	a1, s1
   17b9e: 2e fc        	c.sdsp	a1, 0x38(sp)
   17ba0: 33 8d 8a 01  	add	s10, s5, s8
   17ba4: 33 8a 6c 01  	add	s4, s9, s6
   17ba8: 33 84 6a 01  	add	s0, s5, s6
   17bac: b3 84 8c 01  	add	s1, s9, s8
   17bb0: 33 05 94 00  	add	a0, s0, s1
   17bb4: c6 65        	c.ldsp	a1, 0x50(sp)
   17bb6: ef 70 b1 6d  	jal	ra, 0x2fa90 <__muldi3>
   17bba: aa 89        	c.mv	s3, a0
   17bbc: 56 85        	c.mv	a0, s5
   17bbe: ca 65        	c.ldsp	a1, 0x90(sp)
   17bc0: ef 70 11 6d  	jal	ra, 0x2fa90 <__muldi3>
   17bc4: 2a f8        	c.sdsp	a0, 0x30(sp)
   17bc6: 66 85        	c.mv	a0, s9
   17bc8: 86 75        	c.ldsp	a1, 0x60(sp)
   17bca: ef 70 71 6c  	jal	ra, 0x2fa90 <__muldi3>
   17bce: aa 8a        	c.mv	s5, a0
   17bd0: 5a 85        	c.mv	a0, s6
   17bd2: a6 75        	c.ldsp	a1, 0x68(sp)
   17bd4: ef 70 d1 6b  	jal	ra, 0x2fa90 <__muldi3>
   17bd8: aa 8c        	c.mv	s9, a0
   17bda: 62 85        	c.mv	a0, s8
   17bdc: e6 65        	c.ldsp	a1, 0x58(sp)
   17bde: ef 70 31 6b  	jal	ra, 0x2fa90 <__muldi3>
   17be2: 2a 8c        	c.mv	s8, a0
   17be4: 6a 85        	c.mv	a0, s10
   17be6: e6 75        	c.ldsp	a1, 0x78(sp)
   17be8: ef 70 91 6a  	jal	ra, 0x2fa90 <__muldi3>
   17bec: 2a 8b        	c.mv	s6, a0
   17bee: 52 85        	c.mv	a0, s4
   17bf0: c6 75        	c.ldsp	a1, 0x70(sp)
   17bf2: ef 70 f1 69  	jal	ra, 0x2fa90 <__muldi3>
   17bf6: 2a 8a        	c.mv	s4, a0
   17bf8: 22 85        	c.mv	a0, s0
   17bfa: ea 65        	c.ldsp	a1, 0x98(sp)
   17bfc: ef 70 51 69  	jal	ra, 0x2fa90 <__muldi3>
   17c00: 2a 84        	c.mv	s0, a0
   17c02: 26 85        	c.mv	a0, s1
   17c04: 8a 65        	c.ldsp	a1, 0x80(sp)
   17c06: ef 70 b1 68  	jal	ra, 0x2fa90 <__muldi3>
   17c0a: 2a 66        	c.ldsp	a2, 0x88(sp)
   17c0c: 4e 95        	c.add	a0, s3
   17c0e: 5a 9c        	c.add	s8, s6
   17c10: 2a 9c        	c.add	s8, a0
   17c12: b7 06 02 00  	lui	a3, 0x20
   17c16: 02 77        	c.ldsp	a4, 0x20(sp)
   17c18: b3 05 d7 00  	add	a1, a4, a3
   17c1c: e2 95        	c.add	a1, s8
   17c1e: 92 15        	c.slli	a1, 0x24
   17c20: d9 91        	c.srli	a1, 0x36
   17c22: ee 95        	c.add	a1, s11
   17c24: 83 c5 05 00  	lbu	a1, 0x0(a1)
   17c28: 23 80 bb 00  	sb	a1, 0x0(s7)
   17c2c: b3 05 d7 00  	add	a1, a4, a3
   17c30: bb 85 85 41  	subw	a1, a1, s8
   17c34: 92 15        	c.slli	a1, 0x24
   17c36: d9 91        	c.srli	a1, 0x36
   17c38: ee 95        	c.add	a1, s11
   17c3a: 83 c5 05 00  	lbu	a1, 0x0(a1)
   17c3e: 4e 94        	c.add	s0, s3
   17c40: d2 9c        	c.add	s9, s4
   17c42: a2 9c        	c.add	s9, s0
   17c44: a3 83 bb 00  	sb	a1, 0x7(s7)
   17c48: 22 77        	c.ldsp	a4, 0x28(sp)
   17c4a: b3 05 d7 00  	add	a1, a4, a3
   17c4e: e6 95        	c.add	a1, s9
   17c50: 92 15        	c.slli	a1, 0x24
   17c52: d9 91        	c.srli	a1, 0x36
   17c54: ee 95        	c.add	a1, s11
   17c56: 83 c5 05 00  	lbu	a1, 0x0(a1)
   17c5a: a3 80 bb 00  	sb	a1, 0x1(s7)
   17c5e: b3 05 d7 00  	add	a1, a4, a3
   17c62: bb 85 95 41  	subw	a1, a1, s9
   17c66: 92 15        	c.slli	a1, 0x24
   17c68: d9 91        	c.srli	a1, 0x36
   17c6a: ee 95        	c.add	a1, s11
   17c6c: 83 c5 05 00  	lbu	a1, 0x0(a1)
   17c70: 56 9a        	c.add	s4, s5
   17c72: 52 95        	c.add	a0, s4
   17c74: 23 83 bb 00  	sb	a1, 0x6(s7)
   17c78: 62 77        	c.ldsp	a4, 0x38(sp)
   17c7a: b3 05 d7 00  	add	a1, a4, a3
   17c7e: aa 95        	c.add	a1, a0
   17c80: 92 15        	c.slli	a1, 0x24
   17c82: d9 91        	c.srli	a1, 0x36
   17c84: ee 95        	c.add	a1, s11
   17c86: 83 c5 05 00  	lbu	a1, 0x0(a1)
   17c8a: 23 81 bb 00  	sb	a1, 0x2(s7)
   17c8e: b3 05 d7 00  	add	a1, a4, a3
   17c92: 89 9d        	c.subw	a1, a0
   17c94: 92 15        	c.slli	a1, 0x24
   17c96: d9 91        	c.srli	a1, 0x36
   17c98: ee 95        	c.add	a1, s11
   17c9a: 03 c5 05 00  	lbu	a0, 0x0(a1)
   17c9e: c2 75        	c.ldsp	a1, 0x30(sp)
   17ca0: 2e 9b        	c.add	s6, a1
   17ca2: 5a 94        	c.add	s0, s6
   17ca4: a3 82 ab 00  	sb	a0, 0x5(s7)
   17ca8: 86 65        	c.ldsp	a1, 0x40(sp)
   17caa: 33 85 d5 00  	add	a0, a1, a3
   17cae: 22 95        	c.add	a0, s0
   17cb0: 12 15        	c.slli	a0, 0x24
   17cb2: 59 91        	c.srli	a0, 0x36
   17cb4: 6e 95        	c.add	a0, s11
   17cb6: 03 45 05 00  	lbu	a0, 0x0(a0)
   17cba: a3 81 ab 00  	sb	a0, 0x3(s7)
   17cbe: 33 85 d5 00  	add	a0, a1, a3
   17cc2: 01 9d        	c.subw	a0, s0
   17cc4: 12 15        	c.slli	a0, 0x24
   17cc6: 59 91        	c.srli	a0, 0x36
   17cc8: 6e 95        	c.add	a0, s11
   17cca: 03 45 05 00  	lbu	a0, 0x0(a0)
   17cce: 91 45        	c.li	a1, 0x4
   17cd0: 05 a8        	c.j	0x17d00 <jpeg_idct_islow+0x4a0>
   17cd2: 03 25 09 ff  	lw	a0, -0x10(s2)
   17cd6: 41 05        	c.addi	a0, 0x10
   17cd8: 46 15        	c.slli	a0, 0x31
   17cda: 59 91        	c.srli	a0, 0x36
   17cdc: 6e 95        	c.add	a0, s11
   17cde: 03 45 05 00  	lbu	a0, 0x0(a0)
   17ce2: 23 80 ab 00  	sb	a0, 0x0(s7)
   17ce6: a3 80 ab 00  	sb	a0, 0x1(s7)
   17cea: 23 81 ab 00  	sb	a0, 0x2(s7)
   17cee: a3 81 ab 00  	sb	a0, 0x3(s7)
   17cf2: 23 82 ab 00  	sb	a0, 0x4(s7)
   17cf6: a3 82 ab 00  	sb	a0, 0x5(s7)
   17cfa: 23 83 ab 00  	sb	a0, 0x6(s7)
   17cfe: 9d 45        	c.li	a1, 0x7
   17d00: de 95        	c.add	a1, s7
   17d02: 23 80 a5 00  	sb	a0, 0x0(a1)
   17d06: 21 06        	c.addi	a2, 0x8
   17d08: 13 09 09 02  	addi	s2, s2, 0x20
   17d0c: 42 65        	c.ldsp	a0, 0x10(sp)
   17d0e: e3 16 a6 e0  	bne	a2, a0, 0x17b1a <jpeg_idct_islow+0x2ba>
   17d12: 1d 61        	c.addi16sp	sp, 0x1a0
   17d14: 6f 70 11 55  	jal	zero, 0x2fa64 <__riscv_restore_12>

0000000000017d18 <jpeg_idct_4x4>:
   17d18: ef 72 31 50  	jal	t0, 0x2fa1a <__riscv_save_12>
   17d1c: 51 71        	c.addi16sp	sp, -0xf0
   17d1e: 3a e8        	c.sdsp	a4, 0x10(sp)
   17d20: b6 8d        	c.mv	s11, a3
   17d22: fd 76        	c.lui	a3, 0xfffff
   17d24: 9b 86 06 fb  	addiw	a3, a3, -0x50
   17d28: b6 e0        	c.sdsp	a3, 0x40(sp)
   17d2a: f9 76        	c.lui	a3, 0xffffe
   17d2c: 9b 86 26 78  	addiw	a3, a3, 0x782
   17d30: b6 f4        	c.sdsp	a3, 0x68(sp)
   17d32: f1 76        	c.lui	a3, 0xffffc
   17d34: 9b 86 96 a7  	addiw	a3, a3, -0x587
   17d38: 36 fc        	c.sdsp	a3, 0x38(sp)
   17d3a: 95 66        	c.lui	a3, 0x5
   17d3c: 9b 86 36 20  	addiw	a3, a3, 0x203
   17d40: 36 f8        	c.sdsp	a3, 0x30(sp)
   17d42: 91 66        	c.lui	a3, 0x4
   17d44: 9b 86 16 b2  	addiw	a3, a3, -0x4df
   17d48: 36 f4        	c.sdsp	a3, 0x28(sp)
   17d4a: 8d 66        	c.lui	a3, 0x3
   17d4c: 9b 86 56 e7  	addiw	a3, a3, -0x18b
   17d50: 36 f0        	c.sdsp	a3, 0x20(sp)
   17d52: 89 66        	c.lui	a3, 0x2
   17d54: 9b 86 d6 cc  	addiw	a3, a3, -0x333
   17d58: b6 e4        	c.sdsp	a3, 0x48(sp)
   17d5a: 85 44        	c.li	s1, 0x1
   17d5c: 93 96 b4 00  	slli	a3, s1, 0xb
   17d60: 36 ec        	c.sdsp	a3, 0x18(sp)
   17d62: ac 6d        	c.ld	a1, 0x58(a1)
   17d64: 93 0a 01 07  	addi	s5, sp, 0x70
   17d68: 03 35 85 19  	ld	a0, 0x198(a0)
   17d6c: 2a e4        	c.sdsp	a0, 0x8(sp)
   17d6e: 13 0b 06 05  	addi	s6, a2, 0x50
   17d72: 93 8b 05 0a  	addi	s7, a1, 0xa0
   17d76: a5 4c        	c.li	s9, 0x9
   17d78: 15 45        	c.li	a0, 0x5
   17d7a: 63 8f ac 16  	beq	s9, a0, 0x17ef8 <jpeg_idct_4x4+0x1e0>
   17d7e: 03 1d 0b fc  	lh	s10, -0x40(s6)
   17d82: 03 1c 0b fd  	lh	s8, -0x30(s6)
   17d86: 03 19 0b fe  	lh	s2, -0x20(s6)
   17d8a: 83 19 0b 00  	lh	s3, 0x0(s6)
   17d8e: 03 14 0b 01  	lh	s0, 0x10(s6)
   17d92: 03 1a 0b 02  	lh	s4, 0x20(s6)
   17d96: 33 65 ac 01  	or	a0, s8, s10
   17d9a: b3 65 39 01  	or	a1, s2, s3
   17d9e: 4d 8d        	c.or	a0, a1
   17da0: b3 66 44 01  	or	a3, s0, s4
   17da4: 83 15 0b fb  	lh	a1, -0x50(s6)
   17da8: 03 a6 0b f6  	lw	a2, -0xa0(s7)
   17dac: 55 8d        	c.or	a0, a3
   17dae: 42 15        	c.slli	a0, 0x30
   17db0: 63 04 05 12  	beq	a0, zero, 0x17ed8 <jpeg_idct_4x4+0x1c0>
   17db4: 32 85        	c.mv	a0, a2
   17db6: ef 70 b1 4d  	jal	ra, 0x2fa90 <__muldi3>
   17dba: 83 a5 0b fa  	lw	a1, -0x60(s7)
   17dbe: 01 25        	c.addiw	a0, 0x0
   17dc0: 3a 05        	c.slli	a0, 0xe
   17dc2: aa f0        	c.sdsp	a0, 0x60(sp)
   17dc4: 2e 85        	c.mv	a0, a1
   17dc6: e2 85        	c.mv	a1, s8
   17dc8: ef 70 91 4c  	jal	ra, 0x2fa90 <__muldi3>
   17dcc: 83 a5 0b 02  	lw	a1, 0x20(s7)
   17dd0: 9b 04 05 00  	addiw	s1, a0, 0x0
   17dd4: 2e 85        	c.mv	a0, a1
   17dd6: a2 85        	c.mv	a1, s0
   17dd8: ef 70 91 4b  	jal	ra, 0x2fa90 <__muldi3>
   17ddc: 1b 04 05 00  	addiw	s0, a0, 0x0
   17de0: 26 85        	c.mv	a0, s1
   17de2: a2 75        	c.ldsp	a1, 0x28(sp)
   17de4: ef 70 d1 4a  	jal	ra, 0x2fa90 <__muldi3>
   17de8: aa 84        	c.mv	s1, a0
   17dea: 22 85        	c.mv	a0, s0
   17dec: a6 75        	c.ldsp	a1, 0x68(sp)
   17dee: ef 70 31 4a  	jal	ra, 0x2fa90 <__muldi3>
   17df2: 83 a5 0b 04  	lw	a1, 0x40(s7)
   17df6: 26 95        	c.add	a0, s1
   17df8: aa ec        	c.sdsp	a0, 0x58(sp)
   17dfa: 2e 85        	c.mv	a0, a1
   17dfc: d2 85        	c.mv	a1, s4
   17dfe: ef 70 31 49  	jal	ra, 0x2fa90 <__muldi3>
   17e02: 83 a5 0b 00  	lw	a1, 0x0(s7)
   17e06: 9b 04 05 00  	addiw	s1, a0, 0x0
   17e0a: 2e 85        	c.mv	a0, a1
   17e0c: ce 85        	c.mv	a1, s3
   17e0e: ef 70 31 48  	jal	ra, 0x2fa90 <__muldi3>
   17e12: 83 a5 0b fc  	lw	a1, -0x40(s7)
   17e16: 1b 04 05 00  	addiw	s0, a0, 0x0
   17e1a: a2 e8        	c.sdsp	s0, 0x50(sp)
   17e1c: 2e 85        	c.mv	a0, a1
   17e1e: ca 85        	c.mv	a1, s2
   17e20: ef 70 11 47  	jal	ra, 0x2fa90 <__muldi3>
   17e24: 83 a5 0b f8  	lw	a1, -0x80(s7)
   17e28: 1b 09 05 00  	addiw	s2, a0, 0x0
   17e2c: 2e 85        	c.mv	a0, a1
   17e2e: ea 85        	c.mv	a1, s10
   17e30: ef 70 11 46  	jal	ra, 0x2fa90 <__muldi3>
   17e34: 1b 0d 05 00  	addiw	s10, a0, 0x0
   17e38: 93 05 e0 93  	addi	a1, zero, -0x6c2
   17e3c: 26 85        	c.mv	a0, s1
   17e3e: a6 89        	c.mv	s3, s1
   17e40: ef 70 11 45  	jal	ra, 0x2fa90 <__muldi3>
   17e44: aa 84        	c.mv	s1, a0
   17e46: 22 85        	c.mv	a0, s0
   17e48: 82 75        	c.ldsp	a1, 0x20(sp)
   17e4a: ef 70 71 44  	jal	ra, 0x2fa90 <__muldi3>
   17e4e: 33 04 95 00  	add	s0, a0, s1
   17e52: 4a 85        	c.mv	a0, s2
   17e54: e2 75        	c.ldsp	a1, 0x38(sp)
   17e56: ef 70 b1 43  	jal	ra, 0x2fa90 <__muldi3>
   17e5a: aa 84        	c.mv	s1, a0
   17e5c: 26 6a        	c.ldsp	s4, 0x48(sp)
   17e5e: 93 05 ca 52  	addi	a1, s4, 0x52c
   17e62: 6a 85        	c.mv	a0, s10
   17e64: ef 70 d1 42  	jal	ra, 0x2fa90 <__muldi3>
   17e68: 26 95        	c.add	a0, s1
   17e6a: 33 0c a4 00  	add	s8, s0, a0
   17e6e: 4e 85        	c.mv	a0, s3
   17e70: 86 65        	c.ldsp	a1, 0x40(sp)
   17e72: ef 70 f1 41  	jal	ra, 0x2fa90 <__muldi3>
   17e76: aa 84        	c.mv	s1, a0
   17e78: 26 75        	c.ldsp	a0, 0x68(sp)
   17e7a: 93 05 05 54  	addi	a1, a0, 0x540
   17e7e: 46 65        	c.ldsp	a0, 0x50(sp)
   17e80: ef 70 11 41  	jal	ra, 0x2fa90 <__muldi3>
   17e84: 33 04 95 00  	add	s0, a0, s1
   17e88: 4a 85        	c.mv	a0, s2
   17e8a: d2 85        	c.mv	a1, s4
   17e8c: ef 70 51 40  	jal	ra, 0x2fa90 <__muldi3>
   17e90: aa 84        	c.mv	s1, a0
   17e92: 6a 85        	c.mv	a0, s10
   17e94: c2 75        	c.ldsp	a1, 0x30(sp)
   17e96: ef 70 b1 3f  	jal	ra, 0x2fa90 <__muldi3>
   17e9a: 26 95        	c.add	a0, s1
   17e9c: 85 44        	c.li	s1, 0x1
   17e9e: 22 95        	c.add	a0, s0
   17ea0: e2 66        	c.ldsp	a3, 0x18(sp)
   17ea2: 06 77        	c.ldsp	a4, 0x60(sp)
   17ea4: b3 05 d7 00  	add	a1, a4, a3
   17ea8: e6 67        	c.ldsp	a5, 0x58(sp)
   17eaa: be 95        	c.add	a1, a5
   17eac: 33 86 a5 00  	add	a2, a1, a0
   17eb0: 31 82        	c.srli	a2, 0xc
   17eb2: 23 a0 ca 00  	sw	a2, 0x0(s5)
   17eb6: 89 8d        	c.sub	a1, a0
   17eb8: b1 81        	c.srli	a1, 0xc
   17eba: 23 a0 ba 06  	sw	a1, 0x60(s5)
   17ebe: 33 05 d7 00  	add	a0, a4, a3
   17ec2: 1d 8d        	c.sub	a0, a5
   17ec4: b3 05 85 01  	add	a1, a0, s8
   17ec8: b1 81        	c.srli	a1, 0xc
   17eca: 23 a0 ba 02  	sw	a1, 0x20(s5)
   17ece: 33 05 85 41  	sub	a0, a0, s8
   17ed2: 31 81        	c.srli	a0, 0xc
   17ed4: c1 45        	c.li	a1, 0x10
   17ed6: 29 a8        	c.j	0x17ef0 <jpeg_idct_4x4+0x1d8>
   17ed8: 2e 85        	c.mv	a0, a1
   17eda: b2 85        	c.mv	a1, a2
   17edc: ef 70 51 3b  	jal	ra, 0x2fa90 <__muldi3>
   17ee0: 0a 05        	c.slli	a0, 0x2
   17ee2: 23 a0 aa 00  	sw	a0, 0x0(s5)
   17ee6: 23 a0 aa 02  	sw	a0, 0x20(s5)
   17eea: 23 a0 aa 04  	sw	a0, 0x40(s5)
   17eee: e1 45        	c.li	a1, 0x18
   17ef0: 8a 05        	c.slli	a1, 0x2
   17ef2: d6 95        	c.add	a1, s5
   17ef4: 88 c1        	c.sw	a0, 0x0(a1)
   17ef6: 15 45        	c.li	a0, 0x5
   17ef8: 91 0a        	c.addi	s5, 0x4
   17efa: fd 3c        	c.addiw	s9, -0x1
   17efc: 09 0b        	c.addi	s6, 0x2
   17efe: 91 0b        	c.addi	s7, 0x4
   17f00: e3 ed 94 e7  	bltu	s1, s9, 0x17d7a <jpeg_idct_4x4+0x62>
   17f04: 22 65        	c.ldsp	a0, 0x8(sp)
   17f06: 13 05 05 08  	addi	a0, a0, 0x80
   17f0a: aa f0        	c.sdsp	a0, 0x60(sp)
   17f0c: 42 65        	c.ldsp	a0, 0x10(sp)
   17f0e: 02 15        	c.slli	a0, 0x20
   17f10: 01 91        	c.srli	a0, 0x20
   17f12: aa ec        	c.sdsp	a0, 0x58(sp)
   17f14: 13 0c 41 08  	addi	s8, sp, 0x84
   17f18: 13 85 0d 02  	addi	a0, s11, 0x20
   17f1c: aa e8        	c.sdsp	a0, 0x50(sp)
   17f1e: 26 65        	c.ldsp	a0, 0x48(sp)
   17f20: 13 05 c5 52  	addi	a0, a0, 0x52c
   17f24: 2a ec        	c.sdsp	a0, 0x18(sp)
   17f26: 26 75        	c.ldsp	a0, 0x68(sp)
   17f28: 13 05 05 54  	addi	a0, a0, 0x540
   17f2c: 2a e8        	c.sdsp	a0, 0x10(sp)
   17f2e: 03 6b 0c ff  	lwu	s6, -0x10(s8)
   17f32: 03 65 4c ff  	lwu	a0, -0xc(s8)
   17f36: 03 bd 0d 00  	ld	s10, 0x0(s11)
   17f3a: 03 64 8c ff  	lwu	s0, -0x8(s8)
   17f3e: 03 69 0c 00  	lwu	s2, 0x0(s8)
   17f42: b3 65 65 01  	or	a1, a0, s6
   17f46: 03 6a 4c 00  	lwu	s4, 0x4(s8)
   17f4a: 83 69 8c 00  	lwu	s3, 0x8(s8)
   17f4e: 33 66 24 01  	or	a2, s0, s2
   17f52: 4d 8e        	c.or	a2, a1
   17f54: 83 25 cc fe  	lw	a1, -0x14(s8)
   17f58: b3 66 3a 01  	or	a3, s4, s3
   17f5c: 55 8e        	c.or	a2, a3
   17f5e: e6 66        	c.ldsp	a3, 0x58(sp)
   17f60: 36 9d        	c.add	s10, a3
   17f62: 79 c6        	c.beqz	a2, 0x18030 <jpeg_idct_4x4+0x318>
   17f64: 93 94 e5 00  	slli	s1, a1, 0xe
   17f68: a2 75        	c.ldsp	a1, 0x28(sp)
   17f6a: ef 70 71 32  	jal	ra, 0x2fa90 <__muldi3>
   17f6e: aa 8a        	c.mv	s5, a0
   17f70: 52 85        	c.mv	a0, s4
   17f72: a6 75        	c.ldsp	a1, 0x68(sp)
   17f74: ef 70 d1 31  	jal	ra, 0x2fa90 <__muldi3>
   17f78: 56 95        	c.add	a0, s5
   17f7a: b3 8b a4 00  	add	s7, s1, a0
   17f7e: bb 8c a4 40  	subw	s9, s1, a0
   17f82: 93 05 e0 93  	addi	a1, zero, -0x6c2
   17f86: 4e 85        	c.mv	a0, s3
   17f88: ef 70 91 30  	jal	ra, 0x2fa90 <__muldi3>
   17f8c: 2a 8a        	c.mv	s4, a0
   17f8e: 4a 85        	c.mv	a0, s2
   17f90: 82 75        	c.ldsp	a1, 0x20(sp)
   17f92: ef 70 f1 2f  	jal	ra, 0x2fa90 <__muldi3>
   17f96: aa 8a        	c.mv	s5, a0
   17f98: 22 85        	c.mv	a0, s0
   17f9a: e2 75        	c.ldsp	a1, 0x38(sp)
   17f9c: ef 70 51 2f  	jal	ra, 0x2fa90 <__muldi3>
   17fa0: aa 84        	c.mv	s1, a0
   17fa2: 5a 85        	c.mv	a0, s6
   17fa4: e2 65        	c.ldsp	a1, 0x18(sp)
   17fa6: ef 70 b1 2e  	jal	ra, 0x2fa90 <__muldi3>
   17faa: 26 95        	c.add	a0, s1
   17fac: 56 9a        	c.add	s4, s5
   17fae: 2a 9a        	c.add	s4, a0
   17fb0: 4e 85        	c.mv	a0, s3
   17fb2: 86 65        	c.ldsp	a1, 0x40(sp)
   17fb4: ef 70 d1 2d  	jal	ra, 0x2fa90 <__muldi3>
   17fb8: aa 89        	c.mv	s3, a0
   17fba: 4a 85        	c.mv	a0, s2
   17fbc: c2 65        	c.ldsp	a1, 0x10(sp)
   17fbe: ef 70 31 2d  	jal	ra, 0x2fa90 <__muldi3>
   17fc2: aa 84        	c.mv	s1, a0
   17fc4: 22 85        	c.mv	a0, s0
   17fc6: a6 65        	c.ldsp	a1, 0x48(sp)
   17fc8: ef 70 91 2c  	jal	ra, 0x2fa90 <__muldi3>
   17fcc: 2a 84        	c.mv	s0, a0
   17fce: 5a 85        	c.mv	a0, s6
   17fd0: c2 75        	c.ldsp	a1, 0x30(sp)
   17fd2: ef 70 f1 2b  	jal	ra, 0x2fa90 <__muldi3>
   17fd6: 22 95        	c.add	a0, s0
   17fd8: ce 94        	c.add	s1, s3
   17fda: 26 95        	c.add	a0, s1
   17fdc: b3 05 75 01  	add	a1, a0, s7
   17fe0: b7 06 04 00  	lui	a3, 0x40
   17fe4: b6 95        	c.add	a1, a3
   17fe6: 8e 15        	c.slli	a1, 0x23
   17fe8: d9 91        	c.srli	a1, 0x36
   17fea: 06 76        	c.ldsp	a2, 0x60(sp)
   17fec: b2 95        	c.add	a1, a2
   17fee: 83 c5 05 00  	lbu	a1, 0x0(a1)
   17ff2: 23 00 bd 00  	sb	a1, 0x0(s10)
   17ff6: 3b 85 ab 40  	subw	a0, s7, a0
   17ffa: 36 95        	c.add	a0, a3
   17ffc: 0e 15        	c.slli	a0, 0x23
   17ffe: 59 91        	c.srli	a0, 0x36
   18000: 32 95        	c.add	a0, a2
   18002: 03 45 05 00  	lbu	a0, 0x0(a0)
   18006: a3 01 ad 00  	sb	a0, 0x3(s10)
   1800a: 33 05 9a 01  	add	a0, s4, s9
   1800e: 36 95        	c.add	a0, a3
   18010: 0e 15        	c.slli	a0, 0x23
   18012: 59 91        	c.srli	a0, 0x36
   18014: 32 95        	c.add	a0, a2
   18016: 03 45 05 00  	lbu	a0, 0x0(a0)
   1801a: a3 00 ad 00  	sb	a0, 0x1(s10)
   1801e: 3b 85 4c 41  	subw	a0, s9, s4
   18022: 36 95        	c.add	a0, a3
   18024: 0e 15        	c.slli	a0, 0x23
   18026: 59 91        	c.srli	a0, 0x36
   18028: 32 95        	c.add	a0, a2
   1802a: 03 45 05 00  	lbu	a0, 0x0(a0)
   1802e: 31 a8        	c.j	0x1804a <jpeg_idct_4x4+0x332>
   18030: c1 05        	c.addi	a1, 0x10
   18032: c6 15        	c.slli	a1, 0x31
   18034: d9 91        	c.srli	a1, 0x36
   18036: 06 75        	c.ldsp	a0, 0x60(sp)
   18038: aa 95        	c.add	a1, a0
   1803a: 03 c5 05 00  	lbu	a0, 0x0(a1)
   1803e: 23 00 ad 00  	sb	a0, 0x0(s10)
   18042: a3 00 ad 00  	sb	a0, 0x1(s10)
   18046: a3 01 ad 00  	sb	a0, 0x3(s10)
   1804a: 23 01 ad 00  	sb	a0, 0x2(s10)
   1804e: a1 0d        	c.addi	s11, 0x8
   18050: 13 0c 0c 02  	addi	s8, s8, 0x20
   18054: 46 65        	c.ldsp	a0, 0x50(sp)
   18056: e3 9c ad ec  	bne	s11, a0, 0x17f2e <jpeg_idct_4x4+0x216>
   1805a: 6d 61        	c.addi16sp	sp, 0xf0
   1805c: 6f 70 91 20  	jal	zero, 0x2fa64 <__riscv_restore_12>

0000000000018060 <jpeg_idct_2x2>:
   18060: ef 72 b1 1b  	jal	t0, 0x2fa1a <__riscv_save_12>
   18064: 59 71        	c.addi16sp	sp, -0x70
   18066: ba 8b        	c.mv	s7, a4
   18068: 36 f4        	c.sdsp	a3, 0x28(sp)
   1806a: fd 76        	c.lui	a3, 0xfffff
   1806c: 9b 86 e6 8e  	addiw	a3, a3, -0x712
   18070: 36 f0        	c.sdsp	a3, 0x20(sp)
   18072: f5 76        	c.lui	a3, 0xffffd
   18074: 9b 86 66 74  	addiw	a3, a3, 0x746
   18078: 36 ec        	c.sdsp	a3, 0x18(sp)
   1807a: 9d 66        	c.lui	a3, 0x7
   1807c: 9b 86 c6 3f  	addiw	a3, a3, 0x3fc
   18080: 36 e8        	c.sdsp	a3, 0x10(sp)
   18082: ac 6d        	c.ld	a1, 0x58(a1)
   18084: 89 66        	c.lui	a3, 0x2
   18086: 9b 86 76 b3  	addiw	a3, a3, -0x4c9
   1808a: 36 e4        	c.sdsp	a3, 0x8(sp)
   1808c: 03 35 85 19  	ld	a0, 0x198(a0)
   18090: 2a e0        	c.sdsp	a0, 0x0(sp)
   18092: 93 84 05 0a  	addi	s1, a1, 0xa0
   18096: 93 0a 06 05  	addi	s5, a2, 0x50
   1809a: 25 4d        	c.li	s10, 0x9
   1809c: 13 09 00 02  	addi	s2, zero, 0x20
   180a0: b7 09 00 80  	lui	s3, 0x80000
   180a4: f5 39        	c.addiw	s3, -0x3
   180a6: 0d 4b        	c.li	s6, 0x3
   180a8: 85 45        	c.li	a1, 0x1
   180aa: 63 08 6d 0d  	beq	s10, s6, 0x1817a <jpeg_idct_2x2+0x11a>
   180ae: 13 05 fd ff  	addi	a0, s10, -0x1
   180b2: 33 75 35 01  	and	a0, a0, s3
   180b6: 11 46        	c.li	a2, 0x4
   180b8: 63 01 c5 0c  	beq	a0, a2, 0x1817a <jpeg_idct_2x2+0x11a>
   180bc: 03 9c 0a fc  	lh	s8, -0x40(s5)
   180c0: 83 9c 0a fe  	lh	s9, -0x20(s5)
   180c4: 83 9d 0a 00  	lh	s11, 0x0(s5)
   180c8: 03 94 0a 02  	lh	s0, 0x20(s5)
   180cc: 33 e5 8c 01  	or	a0, s9, s8
   180d0: b3 e6 8d 00  	or	a3, s11, s0
   180d4: 83 95 0a fb  	lh	a1, -0x50(s5)
   180d8: 03 a6 04 f6  	lw	a2, -0xa0(s1)
   180dc: 55 8d        	c.or	a0, a3
   180de: 42 15        	c.slli	a0, 0x30
   180e0: 13 0a 01 03  	addi	s4, sp, 0x30
   180e4: 4a 9a        	c.add	s4, s2
   180e6: 41 c1        	c.beqz	a0, 0x18166 <jpeg_idct_2x2+0x106>
   180e8: 32 85        	c.mv	a0, a2
   180ea: ef 70 71 1a  	jal	ra, 0x2fa90 <__muldi3>
   180ee: ac 40        	c.lw	a1, 0x40(s1)
   180f0: 01 25        	c.addiw	a0, 0x0
   180f2: 13 1b f5 00  	slli	s6, a0, 0xf
   180f6: 2e 85        	c.mv	a0, a1
   180f8: a2 85        	c.mv	a1, s0
   180fa: ef 70 71 19  	jal	ra, 0x2fa90 <__muldi3>
   180fe: 01 25        	c.addiw	a0, 0x0
   18100: 82 75        	c.ldsp	a1, 0x20(sp)
   18102: ef 70 f1 18  	jal	ra, 0x2fa90 <__muldi3>
   18106: 8c 40        	c.lw	a1, 0x0(s1)
   18108: 2a 84        	c.mv	s0, a0
   1810a: 2e 85        	c.mv	a0, a1
   1810c: ee 85        	c.mv	a1, s11
   1810e: ef 70 31 18  	jal	ra, 0x2fa90 <__muldi3>
   18112: 01 25        	c.addiw	a0, 0x0
   18114: a2 65        	c.ldsp	a1, 0x8(sp)
   18116: ef 70 b1 17  	jal	ra, 0x2fa90 <__muldi3>
   1811a: 83 a5 04 fc  	lw	a1, -0x40(s1)
   1811e: b3 0d 85 00  	add	s11, a0, s0
   18122: 2e 85        	c.mv	a0, a1
   18124: e6 85        	c.mv	a1, s9
   18126: ef 70 b1 16  	jal	ra, 0x2fa90 <__muldi3>
   1812a: 01 25        	c.addiw	a0, 0x0
   1812c: e2 65        	c.ldsp	a1, 0x18(sp)
   1812e: ef 70 31 16  	jal	ra, 0x2fa90 <__muldi3>
   18132: 83 a5 04 f8  	lw	a1, -0x80(s1)
   18136: 2a 84        	c.mv	s0, a0
   18138: 2e 85        	c.mv	a0, a1
   1813a: e2 85        	c.mv	a1, s8
   1813c: ef 70 51 15  	jal	ra, 0x2fa90 <__muldi3>
   18140: 01 25        	c.addiw	a0, 0x0
   18142: c2 65        	c.ldsp	a1, 0x10(sp)
   18144: ef 70 d1 14  	jal	ra, 0x2fa90 <__muldi3>
   18148: 22 95        	c.add	a0, s0
   1814a: 6e 95        	c.add	a0, s11
   1814c: 85 65        	c.lui	a1, 0x1
   1814e: b3 65 bb 00  	or	a1, s6, a1
   18152: 0d 4b        	c.li	s6, 0x3
   18154: 33 86 a5 00  	add	a2, a1, a0
   18158: 35 82        	c.srli	a2, 0xd
   1815a: 23 20 ca fe  	sw	a2, -0x20(s4)
   1815e: 33 85 a5 40  	sub	a0, a1, a0
   18162: 35 81        	c.srli	a0, 0xd
   18164: 01 a8        	c.j	0x18174 <jpeg_idct_2x2+0x114>
   18166: 2e 85        	c.mv	a0, a1
   18168: b2 85        	c.mv	a1, a2
   1816a: ef 70 71 12  	jal	ra, 0x2fa90 <__muldi3>
   1816e: 0a 05        	c.slli	a0, 0x2
   18170: 23 20 aa fe  	sw	a0, -0x20(s4)
   18174: 23 20 aa 00  	sw	a0, 0x0(s4)
   18178: 85 45        	c.li	a1, 0x1
   1817a: 7d 3d        	c.addiw	s10, -0x1
   1817c: 11 09        	c.addi	s2, 0x4
   1817e: 91 04        	c.addi	s1, 0x4
   18180: 89 0a        	c.addi	s5, 0x2
   18182: e3 e4 a5 f3  	bltu	a1, s10, 0x180aa <jpeg_idct_2x2+0x4a>
   18186: 01 45        	c.li	a0, 0x0
   18188: 82 65        	c.ldsp	a1, 0x0(sp)
   1818a: 13 89 05 08  	addi	s2, a1, 0x80
   1818e: 93 95 0b 02  	slli	a1, s7, 0x20
   18192: 93 d9 05 02  	srli	s3, a1, 0x20
   18196: 85 4d        	c.li	s11, 0x1
   18198: c4 00        	c.addi4spn	s1, sp, 0x44
   1819a: 37 0d 08 00  	lui	s10, 0x80
   1819e: 0e 05        	c.slli	a0, 0x3
   181a0: a2 75        	c.ldsp	a1, 0x28(sp)
   181a2: aa 95        	c.add	a1, a0
   181a4: 83 ea 04 ff  	lwu	s5, -0x10(s1)
   181a8: 03 ea 84 ff  	lwu	s4, -0x8(s1)
   181ac: 03 e4 04 00  	lwu	s0, 0x0(s1)
   181b0: 03 e5 84 00  	lwu	a0, 0x8(s1)
   181b4: 03 bb 05 00  	ld	s6, 0x0(a1)
   181b8: 33 66 5a 01  	or	a2, s4, s5
   181bc: 83 a5 c4 fe  	lw	a1, -0x14(s1)
   181c0: b3 66 a4 00  	or	a3, s0, a0
   181c4: 55 8e        	c.or	a2, a3
   181c6: 4e 9b        	c.add	s6, s3
   181c8: 39 ca        	c.beqz	a2, 0x1821e <jpeg_idct_2x2+0x1be>
   181ca: 93 9b f5 00  	slli	s7, a1, 0xf
   181ce: 82 75        	c.ldsp	a1, 0x20(sp)
   181d0: ef 70 11 0c  	jal	ra, 0x2fa90 <__muldi3>
   181d4: 2a 8c        	c.mv	s8, a0
   181d6: 22 85        	c.mv	a0, s0
   181d8: a2 65        	c.ldsp	a1, 0x8(sp)
   181da: ef 70 71 0b  	jal	ra, 0x2fa90 <__muldi3>
   181de: aa 8c        	c.mv	s9, a0
   181e0: 52 85        	c.mv	a0, s4
   181e2: e2 65        	c.ldsp	a1, 0x18(sp)
   181e4: ef 70 d1 0a  	jal	ra, 0x2fa90 <__muldi3>
   181e8: 2a 84        	c.mv	s0, a0
   181ea: 56 85        	c.mv	a0, s5
   181ec: c2 65        	c.ldsp	a1, 0x10(sp)
   181ee: ef 70 31 0a  	jal	ra, 0x2fa90 <__muldi3>
   181f2: 22 95        	c.add	a0, s0
   181f4: 66 9c        	c.add	s8, s9
   181f6: 62 95        	c.add	a0, s8
   181f8: b3 85 ab 01  	add	a1, s7, s10
   181fc: aa 95        	c.add	a1, a0
   181fe: 8a 15        	c.slli	a1, 0x22
   18200: d9 91        	c.srli	a1, 0x36
   18202: ca 95        	c.add	a1, s2
   18204: 83 c5 05 00  	lbu	a1, 0x0(a1)
   18208: 23 00 bb 00  	sb	a1, 0x0(s6)
   1820c: ea 9b        	c.add	s7, s10
   1820e: 3b 85 ab 40  	subw	a0, s7, a0
   18212: 0a 15        	c.slli	a0, 0x22
   18214: 59 91        	c.srli	a0, 0x36
   18216: 4a 95        	c.add	a0, s2
   18218: 03 45 05 00  	lbu	a0, 0x0(a0)
   1821c: 09 a8        	c.j	0x1822e <jpeg_idct_2x2+0x1ce>
   1821e: c1 05        	c.addi	a1, 0x10
   18220: c6 15        	c.slli	a1, 0x31
   18222: d9 91        	c.srli	a1, 0x36
   18224: ca 95        	c.add	a1, s2
   18226: 03 c5 05 00  	lbu	a0, 0x0(a1)
   1822a: 23 00 ab 00  	sb	a0, 0x0(s6)
   1822e: a3 00 ab 00  	sb	a0, 0x1(s6)
   18232: 93 84 04 02  	addi	s1, s1, 0x20
   18236: 93 f5 1d 00  	andi	a1, s11, 0x1
   1823a: 05 45        	c.li	a0, 0x1
   1823c: 81 4d        	c.li	s11, 0x0
   1823e: a5 f1        	c.bnez	a1, 0x1819e <jpeg_idct_2x2+0x13e>
   18240: 65 61        	c.addi16sp	sp, 0x70
   18242: 6f 70 31 02  	jal	zero, 0x2fa64 <__riscv_restore_12>

0000000000018246 <jpeg_idct_1x1>:
   18246: ef 72 51 00  	jal	t0, 0x2fa4a <__riscv_save_3>
   1824a: bc 6d        	c.ld	a5, 0x58(a1)
   1824c: 03 34 85 19  	ld	s0, 0x198(a0)
   18250: 83 15 06 00  	lh	a1, 0x0(a2)
   18254: 88 43        	c.lw	a0, 0x0(a5)
   18256: 3a 89        	c.mv	s2, a4
   18258: b6 84        	c.mv	s1, a3
   1825a: ef 70 71 03  	jal	ra, 0x2fa90 <__muldi3>
   1825e: 11 05        	c.addi	a0, 0x4
   18260: 4e 15        	c.slli	a0, 0x33
   18262: 59 91        	c.srli	a0, 0x36
   18264: 22 95        	c.add	a0, s0
   18266: 8c 60        	c.ld	a1, 0x0(s1)
   18268: 03 45 05 08  	lbu	a0, 0x80(a0)
   1826c: 02 19        	c.slli	s2, 0x20
   1826e: 13 56 09 02  	srli	a2, s2, 0x20
   18272: b2 95        	c.add	a1, a2
   18274: 23 80 a5 00  	sb	a0, 0x0(a1)
   18278: 6f 70 91 00  	jal	zero, 0x2fa80 <__riscv_restore_3>

000000000001827c <jinit_upsampler>:
   1827c: ef 72 e1 79  	jal	t0, 0x2fa1a <__riscv_save_12>
   18280: 39 71        	c.addi16sp	sp, -0x40
   18282: aa 89        	c.mv	s3, a0
   18284: 08 65        	c.ld	a0, 0x8(a0)
   18286: 14 61        	c.ld	a3, 0x0(a0)
   18288: 85 45        	c.li	a1, 0x1
   1828a: 13 06 00 10  	addi	a2, zero, 0x100
   1828e: 4e 85        	c.mv	a0, s3
   18290: 82 96        	c.jalr	a3
   18292: b7 85 01 00  	lui	a1, 0x18
   18296: 93 85 85 48  	addi	a1, a1, 0x488
   1829a: 0c e1        	c.sd	a1, 0x0(a0)
   1829c: 37 86 01 00  	lui	a2, 0x18
   182a0: 83 a5 09 18  	lw	a1, 0x180(s3)
   182a4: 13 06 e6 49  	addi	a2, a2, 0x49e
   182a8: 10 e5        	c.sd	a2, 0x8(a0)
   182aa: 23 b8 a9 24  	sd	a0, 0x250(s3)
   182ae: 2a f0        	c.sdsp	a0, 0x20(sp)
   182b0: 23 28 05 00  	sw	zero, 0x10(a0)
   182b4: 81 c9        	c.beqz	a1, 0x182c4 <jinit_upsampler+0x48>
   182b6: 03 b5 09 00  	ld	a0, 0x0(s3)
   182ba: 0c 61        	c.ld	a1, 0x0(a0)
   182bc: 5d 46        	c.li	a2, 0x17
   182be: 10 d5        	c.sw	a2, 0x28(a0)
   182c0: 4e 85        	c.mv	a0, s3
   182c2: 82 95        	c.jalr	a1
   182c4: 03 a5 c9 05  	lw	a0, 0x5c(s3)
   182c8: 01 c9        	c.beqz	a0, 0x182d8 <jinit_upsampler+0x5c>
   182ca: 03 a5 c9 18  	lw	a0, 0x18c(s3)
   182ce: 13 25 25 00  	slti	a0, a0, 0x2
   182d2: 13 4b 15 00  	xori	s6, a0, 0x1
   182d6: 11 a0        	c.j	0x182da <jinit_upsampler+0x5e>
   182d8: 01 4b        	c.li	s6, 0x0
   182da: 03 a5 09 03  	lw	a0, 0x30(s3)
   182de: 63 52 a0 1a  	bge	zero, a0, 0x18482 <jinit_upsampler+0x206>
   182e2: 03 b5 89 12  	ld	a0, 0x128(s3)
   182e6: 01 4c        	c.li	s8, 0x0
   182e8: 82 75        	c.ldsp	a1, 0x20(sp)
   182ea: 93 8c 05 0c  	addi	s9, a1, 0xc0
   182ee: 13 8d 85 06  	addi	s10, a1, 0x68
   182f2: 93 0d 45 02  	addi	s11, a0, 0x24
   182f6: 93 8b 25 0f  	addi	s7, a1, 0xf2
   182fa: 37 85 01 00  	lui	a0, 0x18
   182fe: 13 09 45 58  	addi	s2, a0, 0x584
   18302: 37 85 01 00  	lui	a0, 0x18
   18306: 13 05 a5 58  	addi	a0, a0, 0x58a
   1830a: 2a fc        	c.sdsp	a0, 0x38(sp)
   1830c: 37 85 01 00  	lui	a0, 0x18
   18310: 13 05 e5 58  	addi	a0, a0, 0x58e
   18314: 2a e8        	c.sdsp	a0, 0x10(sp)
   18316: 37 85 01 00  	lui	a0, 0x18
   1831a: 13 05 65 64  	addi	a0, a0, 0x646
   1831e: 2a f8        	c.sdsp	a0, 0x30(sp)
   18320: 37 85 01 00  	lui	a0, 0x18
   18324: 13 05 05 69  	addi	a0, a0, 0x690
   18328: 2a e4        	c.sdsp	a0, 0x8(sp)
   1832a: 37 85 01 00  	lui	a0, 0x18
   1832e: 13 05 c5 7a  	addi	a0, a0, 0x7ac
   18332: 2a ec        	c.sdsp	a0, 0x18(sp)
   18334: 37 95 01 00  	lui	a0, 0x19
   18338: 13 05 65 82  	addi	a0, a0, -0x7da
   1833c: 2a e0        	c.sdsp	a0, 0x0(sp)
   1833e: 4a f4        	c.sdsp	s2, 0x28(sp)
   18340: 83 a5 4d fe  	lw	a1, -0x1c(s11)
   18344: 03 a4 0d 00  	lw	s0, 0x0(s11)
   18348: 22 85        	c.mv	a0, s0
   1834a: ef 70 61 74  	jal	ra, 0x2fa90 <__muldi3>
   1834e: 83 a4 c9 18  	lw	s1, 0x18c(s3)
   18352: 01 25        	c.addiw	a0, 0x0
   18354: a6 85        	c.mv	a1, s1
   18356: ef 70 a1 77  	jal	ra, 0x2fad0 <__divdi3>
   1835a: 83 a5 8d fe  	lw	a1, -0x18(s11)
   1835e: aa 8a        	c.mv	s5, a0
   18360: 2e 85        	c.mv	a0, a1
   18362: a2 85        	c.mv	a1, s0
   18364: ef 70 c1 72  	jal	ra, 0x2fa90 <__muldi3>
   18368: 01 25        	c.addiw	a0, 0x0
   1836a: a6 85        	c.mv	a1, s1
   1836c: ef 70 41 76  	jal	ra, 0x2fad0 <__divdi3>
   18370: 2a 84        	c.mv	s0, a0
   18372: 83 a4 49 18  	lw	s1, 0x184(s3)
   18376: 03 aa 89 18  	lw	s4, 0x188(s3)
   1837a: 23 a0 ac 00  	sw	a0, 0x0(s9)
   1837e: 03 a5 cd 00  	lw	a0, 0xc(s11)
   18382: 09 cd        	c.beqz	a0, 0x1839c <jinit_upsampler+0x120>
   18384: 9b 85 0a 00  	addiw	a1, s5, 0x0
   18388: 1b 05 04 00  	addiw	a0, s0, 0x0
   1838c: 63 9b 95 00  	bne	a1, s1, 0x183a2 <jinit_upsampler+0x126>
   18390: 63 19 45 01  	bne	a0, s4, 0x183a2 <jinit_upsampler+0x126>
   18394: 62 75        	c.ldsp	a0, 0x38(sp)
   18396: 23 30 ad 00  	sd	a0, 0x0(s10)
   1839a: c9 a0        	c.j	0x1845c <jinit_upsampler+0x1e0>
   1839c: 23 30 2d 01  	sd	s2, 0x0(s10)
   183a0: 75 a8        	c.j	0x1845c <jinit_upsampler+0x1e0>
   183a2: 9b 95 1a 00  	slliw	a1, s5, 0x1
   183a6: 63 9d 95 00  	bne	a1, s1, 0x183c0 <jinit_upsampler+0x144>
   183aa: 63 1b 45 01  	bne	a0, s4, 0x183c0 <jinit_upsampler+0x144>
   183ae: 63 0d 0b 02  	beq	s6, zero, 0x183e8 <jinit_upsampler+0x16c>
   183b2: 03 a5 4d 00  	lw	a0, 0x4(s11)
   183b6: 8d 45        	c.li	a1, 0x3
   183b8: 63 68 b5 02  	bltu	a0, a1, 0x183e8 <jinit_upsampler+0x16c>
   183bc: 42 65        	c.ldsp	a0, 0x10(sp)
   183be: 9d a8        	c.j	0x18434 <jinit_upsampler+0x1b8>
   183c0: 63 96 95 02  	bne	a1, s1, 0x183ec <jinit_upsampler+0x170>
   183c4: 1b 15 14 00  	slliw	a0, s0, 0x1
   183c8: 63 12 45 03  	bne	a0, s4, 0x183ec <jinit_upsampler+0x170>
   183cc: 63 03 0b 06  	beq	s6, zero, 0x18432 <jinit_upsampler+0x1b6>
   183d0: 03 a5 4d 00  	lw	a0, 0x4(s11)
   183d4: 8d 45        	c.li	a1, 0x3
   183d6: 63 6e b5 04  	bltu	a0, a1, 0x18432 <jinit_upsampler+0x1b6>
   183da: 22 65        	c.ldsp	a0, 0x8(sp)
   183dc: 23 30 ad 00  	sd	a0, 0x0(s10)
   183e0: 02 75        	c.ldsp	a0, 0x20(sp)
   183e2: 85 45        	c.li	a1, 0x1
   183e4: 0c c9        	c.sw	a1, 0x10(a0)
   183e6: 89 a8        	c.j	0x18438 <jinit_upsampler+0x1bc>
   183e8: 42 75        	c.ldsp	a0, 0x30(sp)
   183ea: a9 a0        	c.j	0x18434 <jinit_upsampler+0x1b8>
   183ec: 5a 89        	c.mv	s2, s6
   183ee: 9b 85 0a 00  	addiw	a1, s5, 0x0
   183f2: 26 85        	c.mv	a0, s1
   183f4: ef 70 c1 6d  	jal	ra, 0x2fad0 <__divdi3>
   183f8: 2a 8b        	c.mv	s6, a0
   183fa: d6 85        	c.mv	a1, s5
   183fc: ef 70 41 69  	jal	ra, 0x2fa90 <__muldi3>
   18400: 89 9c        	c.subw	s1, a0
   18402: 89 ec        	c.bnez	s1, 0x1841c <jinit_upsampler+0x1a0>
   18404: 9b 05 04 00  	addiw	a1, s0, 0x0
   18408: 52 85        	c.mv	a0, s4
   1840a: ef 70 61 6c  	jal	ra, 0x2fad0 <__divdi3>
   1840e: aa 84        	c.mv	s1, a0
   18410: a2 85        	c.mv	a1, s0
   18412: ef 70 e1 67  	jal	ra, 0x2fa90 <__muldi3>
   18416: 3b 05 aa 40  	subw	a0, s4, a0
   1841a: 21 cd        	c.beqz	a0, 0x18472 <jinit_upsampler+0x1f6>
   1841c: 03 b5 09 00  	ld	a0, 0x0(s3)
   18420: 0c 61        	c.ld	a1, 0x0(a0)
   18422: 13 06 50 02  	addi	a2, zero, 0x25
   18426: 10 d5        	c.sw	a2, 0x28(a0)
   18428: 4e 85        	c.mv	a0, s3
   1842a: 82 95        	c.jalr	a1
   1842c: 4a 8b        	c.mv	s6, s2
   1842e: 22 79        	c.ldsp	s2, 0x28(sp)
   18430: 21 a0        	c.j	0x18438 <jinit_upsampler+0x1bc>
   18432: 62 65        	c.ldsp	a0, 0x18(sp)
   18434: 23 30 ad 00  	sd	a0, 0x0(s10)
   18438: 03 b5 89 00  	ld	a0, 0x8(s3)
   1843c: 00 69        	c.ld	s0, 0x10(a0)
   1843e: 03 e5 09 08  	lwu	a0, 0x80(s3)
   18442: 83 a5 49 18  	lw	a1, 0x184(s3)
   18446: ef 20 d0 01  	jal	ra, 0x1ac62 <jround_up>
   1844a: 83 a6 89 18  	lw	a3, 0x188(s3)
   1844e: 1b 06 05 00  	addiw	a2, a0, 0x0
   18452: 85 45        	c.li	a1, 0x1
   18454: 4e 85        	c.mv	a0, s3
   18456: 02 94        	c.jalr	s0
   18458: 23 38 ad fa  	sd	a0, -0x50(s10)
   1845c: 05 0c        	c.addi	s8, 0x1
   1845e: 03 a5 09 03  	lw	a0, 0x30(s3)
   18462: 91 0c        	c.addi	s9, 0x4
   18464: 21 0d        	c.addi	s10, 0x8
   18466: 93 8d 0d 06  	addi	s11, s11, 0x60
   1846a: 85 0b        	c.addi	s7, 0x1
   1846c: e3 4a ac ec  	blt	s8, a0, 0x18340 <jinit_upsampler+0xc4>
   18470: 09 a8        	c.j	0x18482 <jinit_upsampler+0x206>
   18472: 02 65        	c.ldsp	a0, 0x0(sp)
   18474: 23 30 ad 00  	sd	a0, 0x0(s10)
   18478: 23 8b 6b ff  	sb	s6, -0xa(s7)
   1847c: 23 80 9b 00  	sb	s1, 0x0(s7)
   18480: 75 b7        	c.j	0x1842c <jinit_upsampler+0x1b0>
   18482: 21 61        	c.addi16sp	sp, 0x40
   18484: 6f 70 01 5e  	jal	zero, 0x2fa64 <__riscv_restore_12>

0000000000018488 <start_pass_upsample>:
   18488: 83 35 05 25  	ld	a1, 0x250(a0)
   1848c: 03 26 85 18  	lw	a2, 0x188(a0)
   18490: 03 25 45 08  	lw	a0, 0x84(a0)
   18494: 23 ac c5 0a  	sw	a2, 0xb8(a1)
   18498: 23 ae a5 0a  	sw	a0, 0xbc(a1)
   1849c: 82 80        	c.jr	ra

000000000001849e <sep_upsample>:
   1849e: ef 72 c1 57  	jal	t0, 0x2fa1a <__riscv_save_12>
   184a2: 41 11        	c.addi	sp, -0x10
   184a4: 2a 8b        	c.mv	s6, a0
   184a6: 83 3b 05 25  	ld	s7, 0x250(a0)
   184aa: 83 a6 8b 0b  	lw	a3, 0xb8(s7)
   184ae: 03 24 85 18  	lw	s0, 0x188(a0)
   184b2: 42 8a        	c.mv	s4, a6
   184b4: 3e 89        	c.mv	s2, a5
   184b6: b2 8a        	c.mv	s5, a2
   184b8: 63 c1 86 06  	blt	a3, s0, 0x1851a <sep_upsample+0x7c>
   184bc: 03 25 0b 03  	lw	a0, 0x30(s6)
   184c0: 63 5a a0 04  	bge	zero, a0, 0x18514 <sep_upsample+0x76>
   184c4: 2e 8c        	c.mv	s8, a1
   184c6: 3a e4        	c.sdsp	a4, 0x8(sp)
   184c8: 83 3c 8b 12  	ld	s9, 0x128(s6)
   184cc: 01 4d        	c.li	s10, 0x0
   184ce: 93 84 8b 06  	addi	s1, s7, 0x68
   184d2: 13 84 0b 0c  	addi	s0, s7, 0xc0
   184d6: 83 bd 04 00  	ld	s11, 0x0(s1)
   184da: 83 39 0c 00  	ld	s3, 0x0(s8)
   184de: 83 a5 0a 00  	lw	a1, 0x0(s5)
   184e2: 08 40        	c.lw	a0, 0x0(s0)
   184e4: ef 70 c1 5a  	jal	ra, 0x2fa90 <__muldi3>
   184e8: 02 15        	c.slli	a0, 0x20
   184ea: 75 81        	c.srli	a0, 0x1d
   184ec: 33 86 a9 00  	add	a2, s3, a0
   184f0: 93 86 04 fb  	addi	a3, s1, -0x50
   184f4: 5a 85        	c.mv	a0, s6
   184f6: e6 85        	c.mv	a1, s9
   184f8: 82 9d        	c.jalr	s11
   184fa: 05 0d        	c.addi	s10, 0x1
   184fc: 03 25 0b 03  	lw	a0, 0x30(s6)
   18500: 93 8c 0c 06  	addi	s9, s9, 0x60
   18504: a1 04        	c.addi	s1, 0x8
   18506: 21 0c        	c.addi	s8, 0x8
   18508: 11 04        	c.addi	s0, 0x4
   1850a: e3 46 ad fc  	blt	s10, a0, 0x184d6 <sep_upsample+0x38>
   1850e: 03 24 8b 18  	lw	s0, 0x188(s6)
   18512: 22 67        	c.ldsp	a4, 0x8(sp)
   18514: 81 46        	c.li	a3, 0x0
   18516: 23 ac 0b 0a  	sw	zero, 0xb8(s7)
   1851a: 03 a5 cb 0b  	lw	a0, 0xbc(s7)
   1851e: 15 9c        	c.subw	s0, a3
   18520: 63 63 a4 00  	bltu	s0, a0, 0x18526 <sep_upsample+0x88>
   18524: 2a 84        	c.mv	s0, a0
   18526: 03 65 09 00  	lwu	a0, 0x0(s2)
   1852a: bb 05 aa 40  	subw	a1, s4, a0
   1852e: 63 63 b4 00  	bltu	s0, a1, 0x18534 <sep_upsample+0x96>
   18532: 2e 84        	c.mv	s0, a1
   18534: 83 35 8b 25  	ld	a1, 0x258(s6)
   18538: 9c 65        	c.ld	a5, 0x8(a1)
   1853a: 93 85 8b 01  	addi	a1, s7, 0x18
   1853e: 0e 05        	c.slli	a0, 0x3
   18540: b3 09 a7 00  	add	s3, a4, a0
   18544: 5a 85        	c.mv	a0, s6
   18546: 36 86        	c.mv	a2, a3
   18548: ce 86        	c.mv	a3, s3
   1854a: 22 87        	c.mv	a4, s0
   1854c: 82 97        	c.jalr	a5
   1854e: 03 25 09 00  	lw	a0, 0x0(s2)
   18552: 22 95        	c.add	a0, s0
   18554: 23 20 a9 00  	sw	a0, 0x0(s2)
   18558: 03 a5 cb 0b  	lw	a0, 0xbc(s7)
   1855c: 83 a5 8b 0b  	lw	a1, 0xb8(s7)
   18560: 03 26 8b 18  	lw	a2, 0x188(s6)
   18564: 01 9d        	c.subw	a0, s0
   18566: 23 ae ab 0a  	sw	a0, 0xbc(s7)
   1856a: a1 9d        	c.addw	a1, s0
   1856c: 23 ac bb 0a  	sw	a1, 0xb8(s7)
   18570: 63 c7 c5 00  	blt	a1, a2, 0x1857e <sep_upsample+0xe0>
   18574: 03 a5 0a 00  	lw	a0, 0x0(s5)
   18578: 05 05        	c.addi	a0, 0x1
   1857a: 23 a0 aa 00  	sw	a0, 0x0(s5)
   1857e: 41 01        	c.addi	sp, 0x10
   18580: 6f 70 41 4e  	jal	zero, 0x2fa64 <__riscv_restore_12>

0000000000018584 <noop_upsample>:
   18584: 23 b0 06 00  	sd	zero, 0x0(a3)
   18588: 82 80        	c.jr	ra

000000000001858a <fullsize_upsample>:
   1858a: 90 e2        	c.sd	a2, 0x0(a3)
   1858c: 82 80        	c.jr	ra

000000000001858e <h2v1_fancy_upsample>:
   1858e: 03 27 85 18  	lw	a4, 0x188(a0)
   18592: 63 59 e0 0a  	bge	zero, a4, 0x18644 <h2v1_fancy_upsample+0xb6>
   18596: 83 b8 06 00  	ld	a7, 0x0(a3)
   1859a: 81 42        	c.li	t0, 0x0
   1859c: 09 48        	c.li	a6, 0x2
   1859e: 93 96 32 00  	slli	a3, t0, 0x3
   185a2: 33 07 d6 00  	add	a4, a2, a3
   185a6: 03 3e 07 00  	ld	t3, 0x0(a4)
   185aa: c6 96        	c.add	a3, a7
   185ac: 03 b3 06 00  	ld	t1, 0x0(a3)
   185b0: 83 46 0e 00  	lbu	a3, 0x0(t3)
   185b4: 23 00 d3 00  	sb	a3, 0x0(t1)
   185b8: 83 47 1e 00  	lbu	a5, 0x1(t3)
   185bc: 93 93 16 00  	slli	t2, a3, 0x1
   185c0: be 96        	c.add	a3, a5
   185c2: 9e 96        	c.add	a3, t2
   185c4: 89 06        	c.addi	a3, 0x2
   185c6: 89 82        	c.srli	a3, 0x2
   185c8: a3 00 d3 00  	sb	a3, 0x1(t1)
   185cc: 83 a3 85 02  	lw	t2, 0x28(a1)
   185d0: 93 06 1e 00  	addi	a3, t3, 0x1
   185d4: 93 0e 23 00  	addi	t4, t1, 0x2
   185d8: 63 83 03 05  	beq	t2, a6, 0x1861e <h2v1_fancy_upsample+0x90>
   185dc: f5 13        	c.addi	t2, -0x3
   185de: 82 13        	c.slli	t2, 0x20
   185e0: 13 d7 03 02  	srli	a4, t2, 0x20
   185e4: 72 97        	c.add	a4, t3
   185e6: 13 03 27 00  	addi	t1, a4, 0x2
   185ea: 83 c7 06 00  	lbu	a5, 0x0(a3)
   185ee: 83 c3 f6 ff  	lbu	t2, -0x1(a3)
   185f2: 13 97 17 00  	slli	a4, a5, 0x1
   185f6: 3e 97        	c.add	a4, a5
   185f8: ba 93        	c.add	t2, a4
   185fa: 85 03        	c.addi	t2, 0x1
   185fc: 93 d7 23 00  	srli	a5, t2, 0x2
   18600: 23 80 fe 00  	sb	a5, 0x0(t4)
   18604: 83 c7 16 00  	lbu	a5, 0x1(a3)
   18608: 85 06        	c.addi	a3, 0x1
   1860a: 3e 97        	c.add	a4, a5
   1860c: 09 07        	c.addi	a4, 0x2
   1860e: 09 83        	c.srli	a4, 0x2
   18610: a3 80 ee 00  	sb	a4, 0x1(t4)
   18614: 89 0e        	c.addi	t4, 0x2
   18616: e3 9a 66 fc  	bne	a3, t1, 0x185ea <h2v1_fancy_upsample+0x5c>
   1861a: 13 83 ee ff  	addi	t1, t4, -0x2
   1861e: 03 c7 06 00  	lbu	a4, 0x0(a3)
   18622: 83 c6 f6 ff  	lbu	a3, -0x1(a3)
   18626: 93 17 17 00  	slli	a5, a4, 0x1
   1862a: ba 96        	c.add	a3, a4
   1862c: be 96        	c.add	a3, a5
   1862e: 85 06        	c.addi	a3, 0x1
   18630: 89 82        	c.srli	a3, 0x2
   18632: 23 80 de 00  	sb	a3, 0x0(t4)
   18636: a3 01 e3 00  	sb	a4, 0x3(t1)
   1863a: 83 26 85 18  	lw	a3, 0x188(a0)
   1863e: 85 02        	c.addi	t0, 0x1
   18640: e3 cf d2 f4  	blt	t0, a3, 0x1859e <h2v1_fancy_upsample+0x10>
   18644: 82 80        	c.jr	ra

0000000000018646 <h2v1_upsample>:
   18646: 03 27 85 18  	lw	a4, 0x188(a0)
   1864a: 63 52 e0 04  	bge	zero, a4, 0x1868e <h2v1_upsample+0x48>
   1864e: 03 b8 06 00  	ld	a6, 0x0(a3)
   18652: 81 48        	c.li	a7, 0x0
   18654: 83 67 05 08  	lwu	a5, 0x80(a0)
   18658: 85 cb        	c.beqz	a5, 0x18688 <h2v1_upsample+0x42>
   1865a: 93 95 38 00  	slli	a1, a7, 0x3
   1865e: 33 07 b8 00  	add	a4, a6, a1
   18662: 18 63        	c.ld	a4, 0x0(a4)
   18664: b2 95        	c.add	a1, a2
   18666: 8c 61        	c.ld	a1, 0x0(a1)
   18668: b3 02 f7 00  	add	t0, a4, a5
   1866c: 83 c6 05 00  	lbu	a3, 0x0(a1)
   18670: 85 05        	c.addi	a1, 0x1
   18672: 23 00 d7 00  	sb	a3, 0x0(a4)
   18676: 93 07 27 00  	addi	a5, a4, 0x2
   1867a: a3 00 d7 00  	sb	a3, 0x1(a4)
   1867e: 3e 87        	c.mv	a4, a5
   18680: e3 e6 57 fe  	bltu	a5, t0, 0x1866c <h2v1_upsample+0x26>
   18684: 03 27 85 18  	lw	a4, 0x188(a0)
   18688: 85 08        	c.addi	a7, 0x1
   1868a: e3 c5 e8 fc  	blt	a7, a4, 0x18654 <h2v1_upsample+0xe>
   1868e: 82 80        	c.jr	ra

0000000000018690 <h2v2_fancy_upsample>:
   18690: 03 27 85 18  	lw	a4, 0x188(a0)
   18694: 63 5b e0 10  	bge	zero, a4, 0x187aa <h2v2_fancy_upsample+0x11a>
   18698: ef 72 81 3a  	jal	t0, 0x2fa40 <__riscv_save_5>
   1869c: 83 b2 06 00  	ld	t0, 0x0(a3)
   186a0: 01 48        	c.li	a6, 0x0
   186a2: 01 4e        	c.li	t3, 0x0
   186a4: 89 48        	c.li	a7, 0x2
   186a6: 13 13 38 00  	slli	t1, a6, 0x3
   186aa: 32 93        	c.add	t1, a2
   186ac: 01 2e        	c.addiw	t3, 0x0
   186ae: 85 47        	c.li	a5, 0x1
   186b0: 93 f3 17 00  	andi	t2, a5, 0x1
   186b4: e1 56        	c.li	a3, -0x8
   186b6: 63 93 03 00  	bne	t2, zero, 0x186bc <h2v2_fancy_upsample+0x2c>
   186ba: a1 46        	c.li	a3, 0x8
   186bc: 03 37 03 00  	ld	a4, 0x0(t1)
   186c0: 9a 96        	c.add	a3, t1
   186c2: 83 bf 06 00  	ld	t6, 0x0(a3)
   186c6: 83 46 07 00  	lbu	a3, 0x0(a4)
   186ca: 93 17 3e 00  	slli	a5, t3, 0x3
   186ce: 96 97        	c.add	a5, t0
   186d0: 83 be 07 00  	ld	t4, 0x0(a5)
   186d4: 93 97 16 00  	slli	a5, a3, 0x1
   186d8: 83 c4 0f 00  	lbu	s1, 0x0(t6)
   186dc: 03 44 17 00  	lbu	s0, 0x1(a4)
   186e0: be 96        	c.add	a3, a5
   186e2: 03 cf 1f 00  	lbu	t5, 0x1(t6)
   186e6: 33 89 96 00  	add	s2, a3, s1
   186ea: 93 16 14 00  	slli	a3, s0, 0x1
   186ee: a2 96        	c.add	a3, s0
   186f0: 36 9f        	c.add	t5, a3
   186f2: 93 16 29 00  	slli	a3, s2, 0x2
   186f6: a1 06        	c.addi	a3, 0x8
   186f8: 91 82        	c.srli	a3, 0x4
   186fa: 23 80 de 00  	sb	a3, 0x0(t4)
   186fe: 93 16 19 00  	slli	a3, s2, 0x1
   18702: 33 04 e9 01  	add	s0, s2, t5
   18706: a2 96        	c.add	a3, s0
   18708: 9d 06        	c.addi	a3, 0x7
   1870a: 91 82        	c.srli	a3, 0x4
   1870c: a3 80 de 00  	sb	a3, 0x1(t4)
   18710: 84 55        	c.lw	s1, 0x28(a1)
   18712: 93 86 2e 00  	addi	a3, t4, 0x2
   18716: 63 8d 14 05  	beq	s1, a7, 0x18770 <h2v2_fancy_upsample+0xe0>
   1871a: 89 0f        	c.addi	t6, 0x2
   1871c: 13 04 27 00  	addi	s0, a4, 0x2
   18720: f5 14        	c.addi	s1, -0x3
   18722: 82 14        	c.slli	s1, 0x20
   18724: 81 90        	c.srli	s1, 0x20
   18726: 26 97        	c.add	a4, s1
   18728: 93 0e 37 00  	addi	t4, a4, 0x3
   1872c: 83 44 04 00  	lbu	s1, 0x0(s0)
   18730: 7a 87        	c.mv	a4, t5
   18732: 83 c7 0f 00  	lbu	a5, 0x0(t6)
   18736: 93 09 14 00  	addi	s3, s0, 0x1
   1873a: 13 9f 14 00  	slli	t5, s1, 0x1
   1873e: 85 0f        	c.addi	t6, 0x1
   18740: a6 97        	c.add	a5, s1
   18742: 3e 9f        	c.add	t5, a5
   18744: 93 17 17 00  	slli	a5, a4, 0x1
   18748: ba 97        	c.add	a5, a4
   1874a: 3e 99        	c.add	s2, a5
   1874c: 21 09        	c.addi	s2, 0x8
   1874e: 13 54 49 00  	srli	s0, s2, 0x4
   18752: 23 80 86 00  	sb	s0, 0x0(a3)
   18756: fa 97        	c.add	a5, t5
   18758: 9d 07        	c.addi	a5, 0x7
   1875a: 91 83        	c.srli	a5, 0x4
   1875c: a3 80 f6 00  	sb	a5, 0x1(a3)
   18760: 89 06        	c.addi	a3, 0x2
   18762: 3a 89        	c.mv	s2, a4
   18764: 4e 84        	c.mv	s0, s3
   18766: e3 93 d9 fd  	bne	s3, t4, 0x1872c <h2v2_fancy_upsample+0x9c>
   1876a: 93 8e e6 ff  	addi	t4, a3, -0x2
   1876e: 11 a0        	c.j	0x18772 <h2v2_fancy_upsample+0xe2>
   18770: 4a 87        	c.mv	a4, s2
   18772: 81 47        	c.li	a5, 0x0
   18774: 93 14 1f 00  	slli	s1, t5, 0x1
   18778: 7a 97        	c.add	a4, t5
   1877a: 26 97        	c.add	a4, s1
   1877c: 05 0e        	c.addi	t3, 0x1
   1877e: 21 07        	c.addi	a4, 0x8
   18780: 11 83        	c.srli	a4, 0x4
   18782: 23 80 e6 00  	sb	a4, 0x0(a3)
   18786: 0a 0f        	c.slli	t5, 0x2
   18788: 1d 0f        	c.addi	t5, 0x7
   1878a: 93 56 4f 00  	srli	a3, t5, 0x4
   1878e: a3 81 de 00  	sb	a3, 0x3(t4)
   18792: e3 9f 03 f0  	bne	t2, zero, 0x186b0 <h2v2_fancy_upsample+0x20>
   18796: 83 26 85 18  	lw	a3, 0x188(a0)
   1879a: 1b 07 0e 00  	addiw	a4, t3, 0x0
   1879e: 05 08        	c.addi	a6, 0x1
   187a0: e3 43 d7 f0  	blt	a4, a3, 0x186a6 <h2v2_fancy_upsample+0x16>
   187a4: 6f 70 61 2d  	jal	zero, 0x2fa7a <__riscv_restore_5>
   187a8: 09 a0        	c.j	0x187aa <h2v2_fancy_upsample+0x11a>
   187aa: 82 80        	c.jr	ra

00000000000187ac <h2v2_upsample>:
   187ac: ef 72 a1 28  	jal	t0, 0x2fa36 <__riscv_save_7>
   187b0: aa 89        	c.mv	s3, a0
   187b2: 03 25 85 18  	lw	a0, 0x188(a0)
   187b6: 63 56 a0 06  	bge	zero, a0, 0x18822 <h2v2_upsample+0x76>
   187ba: 32 89        	c.mv	s2, a2
   187bc: 03 ba 06 00  	ld	s4, 0x0(a3)
   187c0: 81 4a        	c.li	s5, 0x0
   187c2: 01 44        	c.li	s0, 0x0
   187c4: 81 44        	c.li	s1, 0x0
   187c6: 83 e5 09 08  	lwu	a1, 0x80(s3)
   187ca: 8d c9        	c.beqz	a1, 0x187fc <h2v2_upsample+0x50>
   187cc: 13 15 34 00  	slli	a0, s0, 0x3
   187d0: 52 95        	c.add	a0, s4
   187d2: 08 61        	c.ld	a0, 0x0(a0)
   187d4: 13 96 3a 00  	slli	a2, s5, 0x3
   187d8: 4a 96        	c.add	a2, s2
   187da: 10 62        	c.ld	a2, 0x0(a2)
   187dc: aa 95        	c.add	a1, a0
   187de: 83 46 06 00  	lbu	a3, 0x0(a2)
   187e2: 05 06        	c.addi	a2, 0x1
   187e4: 23 00 d5 00  	sb	a3, 0x0(a0)
   187e8: 13 07 25 00  	addi	a4, a0, 0x2
   187ec: a3 00 d5 00  	sb	a3, 0x1(a0)
   187f0: 3a 85        	c.mv	a0, a4
   187f2: e3 66 b7 fe  	bltu	a4, a1, 0x187de <h2v2_upsample+0x32>
   187f6: 83 a7 09 08  	lw	a5, 0x80(s3)
   187fa: 11 a0        	c.j	0x187fe <h2v2_upsample+0x52>
   187fc: 81 47        	c.li	a5, 0x0
   187fe: 93 e6 14 00  	ori	a3, s1, 0x1
   18802: 9b 05 04 00  	addiw	a1, s0, 0x0
   18806: 05 47        	c.li	a4, 0x1
   18808: 52 85        	c.mv	a0, s4
   1880a: 52 86        	c.mv	a2, s4
   1880c: ef 20 e0 46  	jal	ra, 0x1ac7a <jcopy_sample_rows>
   18810: 03 a5 89 18  	lw	a0, 0x188(s3)
   18814: 85 0a        	c.addi	s5, 0x1
   18816: 9b 05 24 00  	addiw	a1, s0, 0x2
   1881a: 09 04        	c.addi	s0, 0x2
   1881c: 89 24        	c.addiw	s1, 0x2
   1881e: e3 c4 a5 fa  	blt	a1, a0, 0x187c6 <h2v2_upsample+0x1a>
   18822: 6f 70 21 25  	jal	zero, 0x2fa74 <__riscv_restore_7>

0000000000018826 <int_upsample>:
   18826: ef 72 41 1f  	jal	t0, 0x2fa1a <__riscv_save_12>
   1882a: 41 11        	c.addi	sp, -0x10
   1882c: aa 8a        	c.mv	s5, a0
   1882e: 03 25 85 18  	lw	a0, 0x188(a0)
   18832: 63 59 a0 08  	bge	zero, a0, 0x188c4 <int_upsample+0x9e>
   18836: 32 89        	c.mv	s2, a2
   18838: 03 b5 0a 25  	ld	a0, 0x250(s5)
   1883c: cc 41        	c.lw	a1, 0x4(a1)
   1883e: 2e 95        	c.add	a0, a1
   18840: 03 4b 25 0f  	lbu	s6, 0xf2(a0)
   18844: 83 44 85 0e  	lbu	s1, 0xe8(a0)
   18848: 81 4b        	c.li	s7, 0x0
   1884a: 81 4c        	c.li	s9, 0x0
   1884c: 01 4c        	c.li	s8, 0x0
   1884e: 83 b9 06 00  	ld	s3, 0x0(a3)
   18852: 13 05 fb ff  	addi	a0, s6, -0x1
   18856: 2a e4        	c.sdsp	a0, 0x8(sp)
   18858: 13 85 f4 ff  	addi	a0, s1, -0x1
   1885c: 02 15        	c.slli	a0, 0x20
   1885e: 01 91        	c.srli	a0, 0x20
   18860: 13 0d 15 00  	addi	s10, a0, 0x1
   18864: 83 ed 0a 08  	lwu	s11, 0x80(s5)
   18868: 63 87 0d 02  	beq	s11, zero, 0x18896 <int_upsample+0x70>
   1886c: 13 95 3c 00  	slli	a0, s9, 0x3
   18870: 4e 95        	c.add	a0, s3
   18872: 00 61        	c.ld	s0, 0x0(a0)
   18874: 13 95 3b 00  	slli	a0, s7, 0x3
   18878: 4a 95        	c.add	a0, s2
   1887a: 03 3a 05 00  	ld	s4, 0x0(a0)
   1887e: a2 9d        	c.add	s11, s0
   18880: 81 c8        	c.beqz	s1, 0x18890 <int_upsample+0x6a>
   18882: 83 45 0a 00  	lbu	a1, 0x0(s4)
   18886: 22 85        	c.mv	a0, s0
   18888: 26 86        	c.mv	a2, s1
   1888a: ef 50 20 01  	jal	ra, 0x1d89c <memset>
   1888e: 6a 94        	c.add	s0, s10
   18890: 05 0a        	c.addi	s4, 0x1
   18892: e3 67 b4 ff  	bltu	s0, s11, 0x18880 <int_upsample+0x5a>
   18896: 09 45        	c.li	a0, 0x2
   18898: 63 6d ab 00  	bltu	s6, a0, 0x188b2 <int_upsample+0x8c>
   1889c: 83 a7 0a 08  	lw	a5, 0x80(s5)
   188a0: 9b 06 1c 00  	addiw	a3, s8, 0x1
   188a4: 9b 85 0c 00  	addiw	a1, s9, 0x0
   188a8: 4e 85        	c.mv	a0, s3
   188aa: 4e 86        	c.mv	a2, s3
   188ac: 22 67        	c.ldsp	a4, 0x8(sp)
   188ae: ef 20 c0 3c  	jal	ra, 0x1ac7a <jcopy_sample_rows>
   188b2: 03 a5 8a 18  	lw	a0, 0x188(s5)
   188b6: 85 0b        	c.addi	s7, 0x1
   188b8: bb 85 6c 01  	addw	a1, s9, s6
   188bc: da 9c        	c.add	s9, s6
   188be: 5a 9c        	c.add	s8, s6
   188c0: e3 c2 a5 fa  	blt	a1, a0, 0x18864 <int_upsample+0x3e>
   188c4: 41 01        	c.addi	sp, 0x10
   188c6: 6f 70 e1 19  	jal	zero, 0x2fa64 <__riscv_restore_12>

00000000000188ca <jinit_color_deconverter>:
   188ca: ef 72 01 18  	jal	t0, 0x2fa4a <__riscv_save_3>
   188ce: 2a 84        	c.mv	s0, a0
   188d0: 08 65        	c.ld	a0, 0x8(a0)
   188d2: 14 61        	c.ld	a3, 0x0(a0)
   188d4: 85 45        	c.li	a1, 0x1
   188d6: 13 06 00 03  	addi	a2, zero, 0x30
   188da: 22 85        	c.mv	a0, s0
   188dc: 82 96        	c.jalr	a3
   188de: aa 84        	c.mv	s1, a0
   188e0: 48 58        	c.lw	a0, 0x34(s0)
   188e2: b7 95 01 00  	lui	a1, 0x19
   188e6: 93 85 25 a0  	addi	a1, a1, -0x5fe
   188ea: 8c e0        	c.sd	a1, 0x0(s1)
   188ec: 13 06 e5 ff  	addi	a2, a0, -0x2
   188f0: 89 45        	c.li	a1, 0x2
   188f2: 23 3c 94 24  	sd	s1, 0x258(s0)
   188f6: 63 6b b6 00  	bltu	a2, a1, 0x1890c <jinit_color_deconverter+0x42>
   188fa: 13 06 c5 ff  	addi	a2, a0, -0x4
   188fe: 63 7e b6 06  	bgeu	a2, a1, 0x1897a <jinit_color_deconverter+0xb0>
   18902: 08 58        	c.lw	a0, 0x30(s0)
   18904: 91 45        	c.li	a1, 0x4
   18906: 63 17 b5 00  	bne	a0, a1, 0x18914 <jinit_color_deconverter+0x4a>
   1890a: 19 a8        	c.j	0x18920 <jinit_color_deconverter+0x56>
   1890c: 08 58        	c.lw	a0, 0x30(s0)
   1890e: 8d 45        	c.li	a1, 0x3
   18910: 63 08 b5 00  	beq	a0, a1, 0x18920 <jinit_color_deconverter+0x56>
   18914: 08 60        	c.ld	a0, 0x0(s0)
   18916: 0c 61        	c.ld	a1, 0x0(a0)
   18918: 21 46        	c.li	a2, 0x8
   1891a: 10 d5        	c.sw	a2, 0x28(a0)
   1891c: 22 85        	c.mv	a0, s0
   1891e: 82 95        	c.jalr	a1
   18920: 08 5c        	c.lw	a0, 0x38(s0)
   18922: 91 45        	c.li	a1, 0x4
   18924: 63 0f b5 06  	beq	a0, a1, 0x189a2 <jinit_color_deconverter+0xd8>
   18928: 89 45        	c.li	a1, 0x2
   1892a: 63 0f b5 04  	beq	a0, a1, 0x18988 <jinit_color_deconverter+0xbe>
   1892e: 85 45        	c.li	a1, 0x1
   18930: 63 1a b5 08  	bne	a0, a1, 0x189c4 <jinit_color_deconverter+0xfa>
   18934: 48 58        	c.lw	a0, 0x34(s0)
   18936: 13 65 25 00  	ori	a0, a0, 0x2
   1893a: 0d 46        	c.li	a2, 0x3
   1893c: 23 24 b4 08  	sw	a1, 0x88(s0)
   18940: 63 1e c5 08  	bne	a0, a2, 0x189dc <jinit_color_deconverter+0x112>
   18944: 08 58        	c.lw	a0, 0x30(s0)
   18946: b7 95 01 00  	lui	a1, 0x19
   1894a: 93 85 45 a0  	addi	a1, a1, -0x5fc
   1894e: 09 46        	c.li	a2, 0x2
   18950: 8c e4        	c.sd	a1, 0x8(s1)
   18952: 63 4b c5 08  	blt	a0, a2, 0x189e8 <jinit_color_deconverter+0x11e>
   18956: 03 39 84 12  	ld	s2, 0x128(s0)
   1895a: 93 04 09 09  	addi	s1, s2, 0x90
   1895e: 93 05 00 06  	addi	a1, zero, 0x60
   18962: ef 70 e1 12  	jal	ra, 0x2fa90 <__muldi3>
   18966: 4a 95        	c.add	a0, s2
   18968: 13 05 05 03  	addi	a0, a0, 0x30
   1896c: 23 a0 04 00  	sw	zero, 0x0(s1)
   18970: 93 84 04 06  	addi	s1, s1, 0x60
   18974: e3 9c a4 fe  	bne	s1, a0, 0x1896c <jinit_color_deconverter+0xa2>
   18978: 85 a8        	c.j	0x189e8 <jinit_color_deconverter+0x11e>
   1897a: 85 45        	c.li	a1, 0x1
   1897c: 63 1f b5 06  	bne	a0, a1, 0x189fa <jinit_color_deconverter+0x130>
   18980: 08 58        	c.lw	a0, 0x30(s0)
   18982: e3 19 b5 f8  	bne	a0, a1, 0x18914 <jinit_color_deconverter+0x4a>
   18986: 69 bf        	c.j	0x18920 <jinit_color_deconverter+0x56>
   18988: 48 58        	c.lw	a0, 0x34(s0)
   1898a: 0d 46        	c.li	a2, 0x3
   1898c: 23 24 c4 08  	sw	a2, 0x88(s0)
   18990: 63 00 b5 04  	beq	a0, a1, 0x189d0 <jinit_color_deconverter+0x106>
   18994: 63 14 c5 04  	bne	a0, a2, 0x189dc <jinit_color_deconverter+0x112>
   18998: 37 95 01 00  	lui	a0, 0x19
   1899c: 13 05 65 a1  	addi	a0, a0, -0x5ea
   189a0: 29 a8        	c.j	0x189ba <jinit_color_deconverter+0xf0>
   189a2: 48 58        	c.lw	a0, 0x34(s0)
   189a4: 23 24 b4 08  	sw	a1, 0x88(s0)
   189a8: 63 04 b5 02  	beq	a0, a1, 0x189d0 <jinit_color_deconverter+0x106>
   189ac: 95 45        	c.li	a1, 0x5
   189ae: 63 17 b5 02  	bne	a0, a1, 0x189dc <jinit_color_deconverter+0x112>
   189b2: 37 95 01 00  	lui	a0, 0x19
   189b6: 13 05 85 c0  	addi	a0, a0, -0x3f8
   189ba: 88 e4        	c.sd	a0, 0x8(s1)
   189bc: 22 85        	c.mv	a0, s0
   189be: ef 00 60 12  	jal	ra, 0x18ae4 <build_ycc_rgb_table>
   189c2: 1d a0        	c.j	0x189e8 <jinit_color_deconverter+0x11e>
   189c4: 4c 58        	c.lw	a1, 0x34(s0)
   189c6: 63 1b b5 00  	bne	a0, a1, 0x189dc <jinit_color_deconverter+0x112>
   189ca: 08 58        	c.lw	a0, 0x30(s0)
   189cc: 23 24 a4 08  	sw	a0, 0x88(s0)
   189d0: 37 95 01 00  	lui	a0, 0x19
   189d4: 13 05 a5 b9  	addi	a0, a0, -0x466
   189d8: 88 e4        	c.sd	a0, 0x8(s1)
   189da: 39 a0        	c.j	0x189e8 <jinit_color_deconverter+0x11e>
   189dc: 08 60        	c.ld	a0, 0x0(s0)
   189de: 0c 61        	c.ld	a1, 0x0(a0)
   189e0: 65 46        	c.li	a2, 0x19
   189e2: 10 d5        	c.sw	a2, 0x28(a0)
   189e4: 22 85        	c.mv	a0, s0
   189e6: 82 95        	c.jalr	a1
   189e8: 6c 50        	c.lw	a1, 0x64(s0)
   189ea: 05 45        	c.li	a0, 0x1
   189ec: 99 e1        	c.bnez	a1, 0x189f2 <jinit_color_deconverter+0x128>
   189ee: 03 25 84 08  	lw	a0, 0x88(s0)
   189f2: 23 26 a4 08  	sw	a0, 0x8c(s0)
   189f6: 6f 70 a1 08  	jal	zero, 0x2fa80 <__riscv_restore_3>
   189fa: 08 58        	c.lw	a0, 0x30(s0)
   189fc: e3 42 a0 f2  	blt	zero, a0, 0x18920 <jinit_color_deconverter+0x56>
   18a00: 11 bf        	c.j	0x18914 <jinit_color_deconverter+0x4a>

0000000000018a02 <start_pass_dcolor>:
   18a02: 82 80        	c.jr	ra

0000000000018a04 <grayscale_convert>:
   18a04: 8c 61        	c.ld	a1, 0x0(a1)
   18a06: 83 27 05 08  	lw	a5, 0x80(a0)
   18a0a: 2e 85        	c.mv	a0, a1
   18a0c: b2 85        	c.mv	a1, a2
   18a0e: 36 86        	c.mv	a2, a3
   18a10: 81 46        	c.li	a3, 0x0
   18a12: 6f 20 80 26  	jal	zero, 0x1ac7a <jcopy_sample_rows>

0000000000018a16 <ycc_rgb_convert>:
   18a16: 63 56 e0 0c  	bge	zero, a4, 0x18ae2 <ycc_rgb_convert+0xcc>
   18a1a: ef 72 c1 01  	jal	t0, 0x2fa36 <__riscv_save_7>
   18a1e: 83 37 85 25  	ld	a5, 0x258(a0)
   18a22: 83 3f 85 19  	ld	t6, 0x198(a0)
   18a26: 03 b8 07 01  	ld	a6, 0x10(a5)
   18a2a: 83 68 05 08  	lwu	a7, 0x80(a0)
   18a2e: 83 b2 87 01  	ld	t0, 0x18(a5)
   18a32: 03 b3 07 02  	ld	t1, 0x20(a5)
   18a36: 03 bf 87 02  	ld	t5, 0x28(a5)
   18a3a: 93 93 18 00  	slli	t2, a7, 0x1
   18a3e: c6 93        	c.add	t2, a7
   18a40: 09 4e        	c.li	t3, 0x2
   18a42: ba 8e        	c.mv	t4, a4
   18a44: 63 86 08 08  	beq	a7, zero, 0x18ad0 <ycc_rgb_convert+0xba>
   18a48: 88 61        	c.ld	a0, 0x0(a1)
   18a4a: 13 17 06 02  	slli	a4, a2, 0x20
   18a4e: 93 57 d7 01  	srli	a5, a4, 0x1d
   18a52: 80 65        	c.ld	s0, 0x8(a1)
   18a54: 3e 95        	c.add	a0, a5
   18a56: 84 69        	c.ld	s1, 0x10(a1)
   18a58: 18 61        	c.ld	a4, 0x0(a0)
   18a5a: 3e 94        	c.add	s0, a5
   18a5c: 08 60        	c.ld	a0, 0x0(s0)
   18a5e: be 94        	c.add	s1, a5
   18a60: 9c 62        	c.ld	a5, 0x0(a3)
   18a62: 80 60        	c.ld	s0, 0x0(s1)
   18a64: 33 89 77 00  	add	s2, a5, t2
   18a68: 83 49 04 00  	lbu	s3, 0x0(s0)
   18a6c: 03 4a 07 00  	lbu	s4, 0x0(a4)
   18a70: 93 94 29 00  	slli	s1, s3, 0x2
   18a74: c2 94        	c.add	s1, a6
   18a76: 84 40        	c.lw	s1, 0x0(s1)
   18a78: bb 84 44 01  	addw	s1, s1, s4
   18a7c: fe 94        	c.add	s1, t6
   18a7e: 83 ca 04 00  	lbu	s5, 0x0(s1)
   18a82: 03 4b 05 00  	lbu	s6, 0x0(a0)
   18a86: 23 80 57 01  	sb	s5, 0x0(a5)
   18a8a: 93 14 3b 00  	slli	s1, s6, 0x3
   18a8e: fa 94        	c.add	s1, t5
   18a90: 83 ba 04 00  	ld	s5, 0x0(s1)
   18a94: 8e 09        	c.slli	s3, 0x3
   18a96: 9a 99        	c.add	s3, t1
   18a98: 83 b4 09 00  	ld	s1, 0x0(s3)
   18a9c: d6 94        	c.add	s1, s5
   18a9e: c1 80        	c.srli	s1, 0x10
   18aa0: bb 84 44 01  	addw	s1, s1, s4
   18aa4: fe 94        	c.add	s1, t6
   18aa6: 83 c4 04 00  	lbu	s1, 0x0(s1)
   18aaa: a3 80 97 00  	sb	s1, 0x1(a5)
   18aae: 0a 0b        	c.slli	s6, 0x2
   18ab0: 16 9b        	c.add	s6, t0
   18ab2: 83 24 0b 00  	lw	s1, 0x0(s6)
   18ab6: bb 84 44 01  	addw	s1, s1, s4
   18aba: fe 94        	c.add	s1, t6
   18abc: 83 c4 04 00  	lbu	s1, 0x0(s1)
   18ac0: 23 81 97 00  	sb	s1, 0x2(a5)
   18ac4: 05 07        	c.addi	a4, 0x1
   18ac6: 05 05        	c.addi	a0, 0x1
   18ac8: 8d 07        	c.addi	a5, 0x3
   18aca: 05 04        	c.addi	s0, 0x1
   18acc: e3 9e 27 f9  	bne	a5, s2, 0x18a68 <ycc_rgb_convert+0x52>
   18ad0: 1b 87 fe ff  	addiw	a4, t4, -0x1
   18ad4: 05 06        	c.addi	a2, 0x1
   18ad6: a1 06        	c.addi	a3, 0x8
   18ad8: e3 d5 ce f7  	bge	t4, t3, 0x18a42 <ycc_rgb_convert+0x2c>
   18adc: 6f 60 91 79  	jal	zero, 0x2fa74 <__riscv_restore_7>
   18ae0: 09 a0        	c.j	0x18ae2 <ycc_rgb_convert+0xcc>
   18ae2: 82 80        	c.jr	ra

0000000000018ae4 <build_ycc_rgb_table>:
   18ae4: ef 62 71 76  	jal	t0, 0x2fa4a <__riscv_save_3>
   18ae8: 2a 84        	c.mv	s0, a0
   18aea: 08 65        	c.ld	a0, 0x8(a0)
   18aec: 83 34 84 25  	ld	s1, 0x258(s0)
   18af0: 14 61        	c.ld	a3, 0x0(a0)
   18af2: 85 45        	c.li	a1, 0x1
   18af4: 13 06 00 40  	addi	a2, zero, 0x400
   18af8: 05 49        	c.li	s2, 0x1
   18afa: 22 85        	c.mv	a0, s0
   18afc: 82 96        	c.jalr	a3
   18afe: 0c 64        	c.ld	a1, 0x8(s0)
   18b00: 94 61        	c.ld	a3, 0x0(a1)
   18b02: 88 e8        	c.sd	a0, 0x10(s1)
   18b04: 85 45        	c.li	a1, 0x1
   18b06: 13 06 00 40  	addi	a2, zero, 0x400
   18b0a: 22 85        	c.mv	a0, s0
   18b0c: 82 96        	c.jalr	a3
   18b0e: 0c 64        	c.ld	a1, 0x8(s0)
   18b10: 94 61        	c.ld	a3, 0x0(a1)
   18b12: 88 ec        	c.sd	a0, 0x18(s1)
   18b14: 2e 09        	c.slli	s2, 0xb
   18b16: 85 45        	c.li	a1, 0x1
   18b18: 22 85        	c.mv	a0, s0
   18b1a: 4a 86        	c.mv	a2, s2
   18b1c: 82 96        	c.jalr	a3
   18b1e: 0c 64        	c.ld	a1, 0x8(s0)
   18b20: 94 61        	c.ld	a3, 0x0(a1)
   18b22: 88 f0        	c.sd	a0, 0x20(s1)
   18b24: 85 45        	c.li	a1, 0x1
   18b26: 22 85        	c.mv	a0, s0
   18b28: 4a 86        	c.mv	a2, s2
   18b2a: 82 96        	c.jalr	a3
   18b2c: 88 f4        	c.sd	a0, 0x28(s1)
   18b2e: 83 b3 04 01  	ld	t2, 0x10(s1)
   18b32: 90 6c        	c.ld	a2, 0x18(s1)
   18b34: 94 70        	c.ld	a3, 0x20(s1)
   18b36: 2a 99        	c.add	s2, a0
   18b38: 37 17 4d ff  	lui	a4, 0xff4d1
   18b3c: 1b 07 07 b8  	addiw	a4, a4, -0x480
   18b40: b7 b7 1d ff  	lui	a5, 0xff1db
   18b44: 9b 87 07 f0  	addiw	a5, a5, -0x100
   18b48: b7 74 5b 00  	lui	s1, 0x5b7
   18b4c: 1b 84 04 90  	addiw	s0, s1, -0x700
   18b50: b7 94 2c 00  	lui	s1, 0x2c9
   18b54: 9b 84 04 d0  	addiw	s1, s1, -0x300
   18b58: d9 65        	c.lui	a1, 0x16
   18b5a: 1b 88 95 6e  	addiw	a6, a1, 0x6e9
   18b5e: f1 65        	c.lui	a1, 0x1c
   18b60: 9b 88 25 5a  	addiw	a7, a1, 0x5a2
   18b64: d5 75        	c.lui	a1, 0xffff5
   18b66: 9b 82 e5 92  	addiw	t0, a1, -0x6d2
   18b6a: e9 75        	c.lui	a1, 0xffffa
   18b6c: 1b 83 65 7e  	addiw	t1, a1, 0x7e6
   18b70: 93 55 07 01  	srli	a1, a4, 0x10
   18b74: 23 a0 b3 00  	sw	a1, 0x0(t2)
   18b78: 93 d5 07 01  	srli	a1, a5, 0x10
   18b7c: 0c c2        	c.sw	a1, 0x0(a2)
   18b7e: 80 e2        	c.sd	s0, 0x0(a3)
   18b80: 04 e1        	c.sd	s1, 0x0(a0)
   18b82: 21 05        	c.addi	a0, 0x8
   18b84: a1 06        	c.addi	a3, 0x8
   18b86: 11 06        	c.addi	a2, 0x4
   18b88: 91 03        	c.addi	t2, 0x4
   18b8a: 42 97        	c.add	a4, a6
   18b8c: c6 97        	c.add	a5, a7
   18b8e: 16 94        	c.add	s0, t0
   18b90: 9a 94        	c.add	s1, t1
   18b92: e3 1f 25 fd  	bne	a0, s2, 0x18b70 <build_ycc_rgb_table+0x8c>
   18b96: 6f 60 b1 6e  	jal	zero, 0x2fa80 <__riscv_restore_3>

0000000000018b9a <null_convert>:
   18b9a: 63 56 e0 06  	bge	zero, a4, 0x18c06 <null_convert+0x6c>
   18b9e: 03 23 05 08  	lw	t1, 0x80(a0)
   18ba2: 83 2e 05 03  	lw	t4, 0x30(a0)
   18ba6: 13 05 f3 ff  	addi	a0, t1, -0x1
   18baa: 02 15        	c.slli	a0, 0x20
   18bac: 01 91        	c.srli	a0, 0x20
   18bae: 13 08 15 00  	addi	a6, a0, 0x1
   18bb2: 85 48        	c.li	a7, 0x1
   18bb4: ba 82        	c.mv	t0, a4
   18bb6: 63 52 d0 05  	bge	zero, t4, 0x18bfa <null_convert+0x60>
   18bba: 01 4e        	c.li	t3, 0x0
   18bbc: 13 15 06 02  	slli	a0, a2, 0x20
   18bc0: 01 91        	c.srli	a0, 0x20
   18bc2: 93 13 35 00  	slli	t2, a0, 0x3
   18bc6: 63 07 03 02  	beq	t1, zero, 0x18bf4 <null_convert+0x5a>
   18bca: 13 15 3e 00  	slli	a0, t3, 0x3
   18bce: 2e 95        	c.add	a0, a1
   18bd0: 08 61        	c.ld	a0, 0x0(a0)
   18bd2: 9c 62        	c.ld	a5, 0x0(a3)
   18bd4: 1e 95        	c.add	a0, t2
   18bd6: 18 61        	c.ld	a4, 0x0(a0)
   18bd8: 33 85 c7 01  	add	a0, a5, t3
   18bdc: 33 0f 07 01  	add	t5, a4, a6
   18be0: 83 4f 07 00  	lbu	t6, 0x0(a4)
   18be4: 93 07 17 00  	addi	a5, a4, 0x1
   18be8: 23 00 f5 01  	sb	t6, 0x0(a0)
   18bec: 76 95        	c.add	a0, t4
   18bee: 3e 87        	c.mv	a4, a5
   18bf0: e3 98 e7 ff  	bne	a5, t5, 0x18be0 <null_convert+0x46>
   18bf4: 05 0e        	c.addi	t3, 0x1
   18bf6: e3 18 de fd  	bne	t3, t4, 0x18bc6 <null_convert+0x2c>
   18bfa: 1b 87 f2 ff  	addiw	a4, t0, -0x1
   18bfe: 05 06        	c.addi	a2, 0x1
   18c00: a1 06        	c.addi	a3, 0x8
   18c02: e3 c9 58 fa  	blt	a7, t0, 0x18bb4 <null_convert+0x1a>
   18c06: 82 80        	c.jr	ra

0000000000018c08 <ycck_cmyk_convert>:
   18c08: 63 53 e0 0e  	bge	zero, a4, 0x18cee <ycck_cmyk_convert+0xe6>
   18c0c: ef 62 11 62  	jal	t0, 0x2fa2c <__riscv_save_9>
   18c10: 83 37 85 25  	ld	a5, 0x258(a0)
   18c14: 83 3f 85 19  	ld	t6, 0x198(a0)
   18c18: 03 b8 07 01  	ld	a6, 0x10(a5)
   18c1c: 83 b8 87 01  	ld	a7, 0x18(a5)
   18c20: 83 62 05 08  	lwu	t0, 0x80(a0)
   18c24: 03 b3 07 02  	ld	t1, 0x20(a5)
   18c28: 03 bf 87 02  	ld	t5, 0x28(a5)
   18c2c: 93 93 22 00  	slli	t2, t0, 0x2
   18c30: 09 4e        	c.li	t3, 0x2
   18c32: ba 8e        	c.mv	t4, a4
   18c34: 63 84 02 0a  	beq	t0, zero, 0x18cdc <ycck_cmyk_convert+0xd4>
   18c38: 88 61        	c.ld	a0, 0x0(a1)
   18c3a: 13 17 06 02  	slli	a4, a2, 0x20
   18c3e: 13 54 d7 01  	srli	s0, a4, 0x1d
   18c42: 9c 65        	c.ld	a5, 0x8(a1)
   18c44: 22 95        	c.add	a0, s0
   18c46: 83 39 05 00  	ld	s3, 0x0(a0)
   18c4a: 03 b9 05 01  	ld	s2, 0x10(a1)
   18c4e: a2 97        	c.add	a5, s0
   18c50: 84 6d        	c.ld	s1, 0x18(a1)
   18c52: 83 bb 07 00  	ld	s7, 0x0(a5)
   18c56: 22 99        	c.add	s2, s0
   18c58: 83 37 09 00  	ld	a5, 0x0(s2)
   18c5c: a2 94        	c.add	s1, s0
   18c5e: 80 62        	c.ld	s0, 0x0(a3)
   18c60: 84 60        	c.ld	s1, 0x0(s1)
   18c62: 33 09 74 00  	add	s2, s0, t2
   18c66: 83 ca 07 00  	lbu	s5, 0x0(a5)
   18c6a: 03 ca 09 00  	lbu	s4, 0x0(s3)
   18c6e: 13 97 2a 00  	slli	a4, s5, 0x2
   18c72: 42 97        	c.add	a4, a6
   18c74: 03 2b 07 00  	lw	s6, 0x0(a4)
   18c78: 13 47 fa 0f  	xori	a4, s4, 0xff
   18c7c: 3b 05 67 41  	subw	a0, a4, s6
   18c80: 7e 95        	c.add	a0, t6
   18c82: 03 4a 05 00  	lbu	s4, 0x0(a0)
   18c86: 03 cb 0b 00  	lbu	s6, 0x0(s7)
   18c8a: 23 00 44 01  	sb	s4, 0x0(s0)
   18c8e: 13 15 3b 00  	slli	a0, s6, 0x3
   18c92: 7a 95        	c.add	a0, t5
   18c94: 03 3a 05 00  	ld	s4, 0x0(a0)
   18c98: 8e 0a        	c.slli	s5, 0x3
   18c9a: 9a 9a        	c.add	s5, t1
   18c9c: 03 b5 0a 00  	ld	a0, 0x0(s5)
   18ca0: 52 95        	c.add	a0, s4
   18ca2: 41 81        	c.srli	a0, 0x10
   18ca4: 3b 05 a7 40  	subw	a0, a4, a0
   18ca8: 7e 95        	c.add	a0, t6
   18caa: 03 45 05 00  	lbu	a0, 0x0(a0)
   18cae: a3 00 a4 00  	sb	a0, 0x1(s0)
   18cb2: 0a 0b        	c.slli	s6, 0x2
   18cb4: 46 9b        	c.add	s6, a7
   18cb6: 03 25 0b 00  	lw	a0, 0x0(s6)
   18cba: 09 9f        	c.subw	a4, a0
   18cbc: 7e 97        	c.add	a4, t6
   18cbe: 03 45 07 00  	lbu	a0, 0x0(a4)
   18cc2: 23 01 a4 00  	sb	a0, 0x2(s0)
   18cc6: 03 c5 04 00  	lbu	a0, 0x0(s1)
   18cca: a3 01 a4 00  	sb	a0, 0x3(s0)
   18cce: 85 09        	c.addi	s3, 0x1
   18cd0: 85 0b        	c.addi	s7, 0x1
   18cd2: 85 07        	c.addi	a5, 0x1
   18cd4: 11 04        	c.addi	s0, 0x4
   18cd6: 85 04        	c.addi	s1, 0x1
   18cd8: e3 17 24 f9  	bne	s0, s2, 0x18c66 <ycck_cmyk_convert+0x5e>
   18cdc: 1b 87 fe ff  	addiw	a4, t4, -0x1
   18ce0: 05 06        	c.addi	a2, 0x1
   18ce2: a1 06        	c.addi	a3, 0x8
   18ce4: e3 d7 ce f5  	bge	t4, t3, 0x18c32 <ycck_cmyk_convert+0x2a>
   18ce8: 6f 60 71 58  	jal	zero, 0x2fa6e <__riscv_restore_9>
   18cec: 09 a0        	c.j	0x18cee <ycck_cmyk_convert+0xe6>
   18cee: 82 80        	c.jr	ra

0000000000018cf0 <jinit_1pass_quantizer>:
   18cf0: 35 71        	c.addi16sp	sp, -0xa0
   18cf2: 06 ed        	c.sdsp	ra, 0x98(sp)
   18cf4: 22 e9        	c.sdsp	s0, 0x90(sp)
   18cf6: 26 e5        	c.sdsp	s1, 0x88(sp)
   18cf8: 4a e1        	c.sdsp	s2, 0x80(sp)
   18cfa: ce fc        	c.sdsp	s3, 0x78(sp)
   18cfc: d2 f8        	c.sdsp	s4, 0x70(sp)
   18cfe: d6 f4        	c.sdsp	s5, 0x68(sp)
   18d00: da f0        	c.sdsp	s6, 0x60(sp)
   18d02: de ec        	c.sdsp	s7, 0x58(sp)
   18d04: e2 e8        	c.sdsp	s8, 0x50(sp)
   18d06: e6 e4        	c.sdsp	s9, 0x48(sp)
   18d08: ea e0        	c.sdsp	s10, 0x40(sp)
   18d0a: 6e fc        	c.sdsp	s11, 0x38(sp)
   18d0c: aa 8d        	c.mv	s11, a0
   18d0e: 08 65        	c.ld	a0, 0x8(a0)
   18d10: 14 61        	c.ld	a3, 0x0(a0)
   18d12: 85 45        	c.li	a1, 0x1
   18d14: 13 06 80 09  	addi	a2, zero, 0x98
   18d18: 05 44        	c.li	s0, 0x1
   18d1a: 6e 85        	c.mv	a0, s11
   18d1c: 82 96        	c.jalr	a3
   18d1e: 23 b0 ad 26  	sd	a0, 0x260(s11)
   18d22: b7 95 01 00  	lui	a1, 0x19
   18d26: 93 85 05 fd  	addi	a1, a1, -0x30
   18d2a: 0c e1        	c.sd	a1, 0x0(a0)
   18d2c: b7 95 01 00  	lui	a1, 0x19
   18d30: 93 85 85 1c  	addi	a1, a1, 0x1c8
   18d34: 0c e9        	c.sd	a1, 0x10(a0)
   18d36: b7 95 01 00  	lui	a1, 0x19
   18d3a: 93 85 a5 1c  	addi	a1, a1, 0x1ca
   18d3e: 03 a6 8d 08  	lw	a2, 0x88(s11)
   18d42: 0c ed        	c.sd	a1, 0x18(a0)
   18d44: 23 38 05 06  	sd	zero, 0x70(a0)
   18d48: 95 45        	c.li	a1, 0x5
   18d4a: 23 38 05 04  	sd	zero, 0x50(a0)
   18d4e: 63 4d b6 00  	blt	a2, a1, 0x18d68 <jinit_1pass_quantizer+0x78>
   18d52: 03 b5 0d 00  	ld	a0, 0x0(s11)
   18d56: 0a 14        	c.slli	s0, 0x22
   18d58: 93 05 64 03  	addi	a1, s0, 0x36
   18d5c: 0c f5        	c.sd	a1, 0x28(a0)
   18d5e: 03 b5 0d 00  	ld	a0, 0x0(s11)
   18d62: 0c 61        	c.ld	a1, 0x0(a0)
   18d64: 6e 85        	c.mv	a0, s11
   18d66: 82 95        	c.jalr	a1
   18d68: 83 a9 0d 07  	lw	s3, 0x70(s11)
   18d6c: 13 05 10 10  	addi	a0, zero, 0x101
   18d70: 63 c0 a9 02  	blt	s3, a0, 0x18d90 <jinit_1pass_quantizer+0xa0>
   18d74: 03 b5 0d 00  	ld	a0, 0x0(s11)
   18d78: 85 45        	c.li	a1, 0x1
   18d7a: a2 15        	c.slli	a1, 0x28
   18d7c: 93 85 85 03  	addi	a1, a1, 0x38
   18d80: 0c f5        	c.sd	a1, 0x28(a0)
   18d82: 03 b5 0d 00  	ld	a0, 0x0(s11)
   18d86: 0c 61        	c.ld	a1, 0x0(a0)
   18d88: 6e 85        	c.mv	a0, s11
   18d8a: 82 95        	c.jalr	a1
   18d8c: 83 a9 0d 07  	lw	s3, 0x70(s11)
   18d90: 83 ea 8d 08  	lwu	s5, 0x88(s11)
   18d94: 03 b5 0d 26  	ld	a0, 0x260(s11)
   18d98: 2a ec        	c.sdsp	a0, 0x18(sp)
   18d9a: 1b 8b 0a 00  	addiw	s6, s5, 0x0
   18d9e: 13 89 fa ff  	addi	s2, s5, -0x1
   18da2: 85 44        	c.li	s1, 0x1
   18da4: 09 4a        	c.li	s4, 0x2
   18da6: a6 8b        	c.mv	s7, s1
   18da8: 85 04        	c.addi	s1, 0x1
   18daa: 26 85        	c.mv	a0, s1
   18dac: 63 49 4b 01  	blt	s6, s4, 0x18dbe <jinit_1pass_quantizer+0xce>
   18db0: 4a 84        	c.mv	s0, s2
   18db2: 26 85        	c.mv	a0, s1
   18db4: a6 85        	c.mv	a1, s1
   18db6: ef 60 b1 4d  	jal	ra, 0x2fa90 <__muldi3>
   18dba: 7d 34        	c.addiw	s0, -0x1
   18dbc: 65 fc        	c.bnez	s0, 0x18db4 <jinit_1pass_quantizer+0xc4>
   18dbe: e3 d4 a9 fe  	bge	s3, a0, 0x18da6 <jinit_1pass_quantizer+0xb6>
   18dc2: 9b 85 0b 00  	addiw	a1, s7, 0x0
   18dc6: 85 4c        	c.li	s9, 0x1
   18dc8: 63 ed bc 00  	bltu	s9, a1, 0x18de2 <jinit_1pass_quantizer+0xf2>
   18dcc: 83 b5 0d 00  	ld	a1, 0x0(s11)
   18dd0: c8 d5        	c.sw	a0, 0x2c(a1)
   18dd2: 03 b5 0d 00  	ld	a0, 0x0(s11)
   18dd6: 10 61        	c.ld	a2, 0x0(a0)
   18dd8: 13 05 70 03  	addi	a0, zero, 0x37
   18ddc: 88 d5        	c.sw	a0, 0x28(a1)
   18dde: 6e 85        	c.mv	a0, s11
   18de0: 02 96        	c.jalr	a2
   18de2: 63 56 60 09  	bge	zero, s6, 0x18e6e <jinit_1pass_quantizer+0x17e>
   18de6: e2 65        	c.ldsp	a1, 0x18(sp)
   18de8: 13 89 c5 03  	addi	s2, a1, 0x3c
   18dec: 13 95 2a 00  	slli	a0, s5, 0x2
   18df0: 2e 95        	c.add	a0, a1
   18df2: 13 0a c5 03  	addi	s4, a0, 0x3c
   18df6: 85 4c        	c.li	s9, 0x1
   18df8: ca 84        	c.mv	s1, s2
   18dfa: 23 a0 74 01  	sw	s7, 0x0(s1)
   18dfe: 66 85        	c.mv	a0, s9
   18e00: de 85        	c.mv	a1, s7
   18e02: ef 60 f1 48  	jal	ra, 0x2fa90 <__muldi3>
   18e06: 91 04        	c.addi	s1, 0x4
   18e08: aa 8c        	c.mv	s9, a0
   18e0a: e3 98 44 ff  	bne	s1, s4, 0x18dfa <jinit_1pass_quantizer+0x10a>
   18e0e: 63 50 60 07  	bge	zero, s6, 0x18e6e <jinit_1pass_quantizer+0x17e>
   18e12: 81 44        	c.li	s1, 0x0
   18e14: 05 4a        	c.li	s4, 0x1
   18e16: 09 4b        	c.li	s6, 0x2
   18e18: 37 25 03 00  	lui	a0, 0x32
   18e1c: 93 0b 05 d5  	addi	s7, a0, -0x2b0
   18e20: 83 a5 8d 03  	lw	a1, 0x38(s11)
   18e24: 26 85        	c.mv	a0, s1
   18e26: 63 96 65 01  	bne	a1, s6, 0x18e32 <jinit_1pass_quantizer+0x142>
   18e2a: 13 95 24 00  	slli	a0, s1, 0x2
   18e2e: 5e 95        	c.add	a0, s7
   18e30: 08 41        	c.lw	a0, 0x0(a0)
   18e32: 01 25        	c.addiw	a0, 0x0
   18e34: 0a 05        	c.slli	a0, 0x2
   18e36: 33 0c a9 00  	add	s8, s2, a0
   18e3a: 03 24 0c 00  	lw	s0, 0x0(s8)
   18e3e: 1b 85 0c 00  	addiw	a0, s9, 0x0
   18e42: a2 85        	c.mv	a1, s0
   18e44: ef 60 d1 48  	jal	ra, 0x2fad0 <__divdi3>
   18e48: 01 25        	c.addiw	a0, 0x0
   18e4a: 05 24        	c.addiw	s0, 0x1
   18e4c: a2 85        	c.mv	a1, s0
   18e4e: ef 60 31 44  	jal	ra, 0x2fa90 <__muldi3>
   18e52: 63 c9 a9 00  	blt	s3, a0, 0x18e64 <jinit_1pass_quantizer+0x174>
   18e56: 01 4a        	c.li	s4, 0x0
   18e58: 85 04        	c.addi	s1, 0x1
   18e5a: 23 20 8c 00  	sw	s0, 0x0(s8)
   18e5e: aa 8c        	c.mv	s9, a0
   18e60: e3 90 54 fd  	bne	s1, s5, 0x18e20 <jinit_1pass_quantizer+0x130>
   18e64: 81 44        	c.li	s1, 0x0
   18e66: 13 75 1a 00  	andi	a0, s4, 0x1
   18e6a: 05 4a        	c.li	s4, 0x1
   18e6c: 55 d9        	c.beqz	a0, 0x18e20 <jinit_1pass_quantizer+0x130>
   18e6e: 83 a5 8d 08  	lw	a1, 0x88(s11)
   18e72: 03 b5 0d 00  	ld	a0, 0x0(s11)
   18e76: 0d 46        	c.li	a2, 0x3
   18e78: 23 26 95 03  	sw	s9, 0x2c(a0)
   18e7c: 63 9d c5 00  	bne	a1, a2, 0x18e96 <jinit_1pass_quantizer+0x1a6>
   18e80: 62 66        	c.ldsp	a2, 0x18(sp)
   18e82: 4c 5e        	c.lw	a1, 0x3c(a2)
   18e84: 0c d9        	c.sw	a1, 0x30(a0)
   18e86: 2c 42        	c.lw	a1, 0x40(a2)
   18e88: 4c d9        	c.sw	a1, 0x34(a0)
   18e8a: 6c 42        	c.lw	a1, 0x44(a2)
   18e8c: 0c dd        	c.sw	a1, 0x38(a0)
   18e8e: 93 05 d0 05  	addi	a1, zero, 0x5d
   18e92: 2a 86        	c.mv	a2, a0
   18e94: 29 a0        	c.j	0x18e9e <jinit_1pass_quantizer+0x1ae>
   18e96: 03 b6 0d 00  	ld	a2, 0x0(s11)
   18e9a: 93 05 e0 05  	addi	a1, zero, 0x5e
   18e9e: 0c d5        	c.sw	a1, 0x28(a0)
   18ea0: 10 66        	c.ld	a2, 0x8(a2)
   18ea2: 85 45        	c.li	a1, 0x1
   18ea4: 6e 85        	c.mv	a0, s11
   18ea6: 02 96        	c.jalr	a2
   18ea8: 03 b5 8d 00  	ld	a0, 0x8(s11)
   18eac: 18 69        	c.ld	a4, 0x10(a0)
   18eae: 83 a6 8d 08  	lw	a3, 0x88(s11)
   18eb2: 66 e0        	c.sdsp	s9, 0x0(sp)
   18eb4: 1b 8b 0c 00  	addiw	s6, s9, 0x0
   18eb8: 85 45        	c.li	a1, 0x1
   18eba: 6e 85        	c.mv	a0, s11
   18ebc: 5a 86        	c.mv	a2, s6
   18ebe: 02 97        	c.jalr	a4
   18ec0: 03 a4 8d 08  	lw	s0, 0x88(s11)
   18ec4: 2a e8        	c.sdsp	a0, 0x10(sp)
   18ec6: 63 58 80 0a  	bge	zero, s0, 0x18f76 <jinit_1pass_quantizer+0x286>
   18eca: 81 44        	c.li	s1, 0x0
   18ecc: 82 6c        	c.ldsp	s9, 0x0(sp)
   18ece: 6e e4        	c.sdsp	s11, 0x8(sp)
   18ed0: 13 95 24 00  	slli	a0, s1, 0x2
   18ed4: e2 65        	c.ldsp	a1, 0x18(sp)
   18ed6: 2e 95        	c.add	a0, a1
   18ed8: 83 2a c5 03  	lw	s5, 0x3c(a0)
   18edc: 1b 8d 0c 00  	addiw	s10, s9, 0x0
   18ee0: 6a 85        	c.mv	a0, s10
   18ee2: d6 85        	c.mv	a1, s5
   18ee4: ef 60 d1 3e  	jal	ra, 0x2fad0 <__divdi3>
   18ee8: 9b 0c 05 00  	addiw	s9, a0, 0x0
   18eec: 63 52 50 09  	bge	zero, s5, 0x18f70 <jinit_1pass_quantizer+0x280>
   18ef0: 81 4b        	c.li	s7, 0x0
   18ef2: 81 4d        	c.li	s11, 0x0
   18ef4: 1b 8c fa ff  	addiw	s8, s5, -0x1
   18ef8: 1b 55 1c 00  	srliw	a0, s8, 0x1
   18efc: 2a f8        	c.sdsp	a0, 0x30(sp)
   18efe: 26 f0        	c.sdsp	s1, 0x20(sp)
   18f00: 13 9a 34 00  	slli	s4, s1, 0x3
   18f04: 42 65        	c.ldsp	a0, 0x10(sp)
   18f06: 2a 9a        	c.add	s4, a0
   18f08: 13 95 0c 02  	slli	a0, s9, 0x20
   18f0c: 01 91        	c.srli	a0, 0x20
   18f0e: 2a f4        	c.sdsp	a0, 0x28(sp)
   18f10: 5e 85        	c.mv	a0, s7
   18f12: e6 85        	c.mv	a1, s9
   18f14: ef 60 d1 37  	jal	ra, 0x2fa90 <__muldi3>
   18f18: 63 54 65 05  	bge	a0, s6, 0x18f60 <jinit_1pass_quantizer+0x270>
   18f1c: a2 79        	c.ldsp	s3, 0x28(sp)
   18f1e: ee 99        	c.add	s3, s11
   18f20: 13 95 8b 00  	slli	a0, s7, 0x8
   18f24: 33 05 75 41  	sub	a0, a0, s7
   18f28: c2 75        	c.ldsp	a1, 0x30(sp)
   18f2a: 2e 95        	c.add	a0, a1
   18f2c: e2 85        	c.mv	a1, s8
   18f2e: ef 60 b1 3a  	jal	ra, 0x2fad8 <__udivdi3>
   18f32: aa 84        	c.mv	s1, a0
   18f34: 01 44        	c.li	s0, 0x0
   18f36: 6e 89        	c.mv	s2, s11
   18f38: 6a 85        	c.mv	a0, s10
   18f3a: a2 85        	c.mv	a1, s0
   18f3c: ef 60 51 35  	jal	ra, 0x2fa90 <__muldi3>
   18f40: 63 5c 90 01  	bge	zero, s9, 0x18f58 <jinit_1pass_quantizer+0x268>
   18f44: 4e 95        	c.add	a0, s3
   18f46: ca 85        	c.mv	a1, s2
   18f48: 03 36 0a 00  	ld	a2, 0x0(s4)
   18f4c: 2e 96        	c.add	a2, a1
   18f4e: 85 05        	c.addi	a1, 0x1
   18f50: 23 00 96 00  	sb	s1, 0x0(a2)
   18f54: e3 9a a5 fe  	bne	a1, a0, 0x18f48 <jinit_1pass_quantizer+0x258>
   18f58: 6a 99        	c.add	s2, s10
   18f5a: 05 04        	c.addi	s0, 0x1
   18f5c: e3 4e 69 fd  	blt	s2, s6, 0x18f38 <jinit_1pass_quantizer+0x248>
   18f60: 85 0b        	c.addi	s7, 0x1
   18f62: e6 9d        	c.add	s11, s9
   18f64: e3 96 5b fb  	bne	s7, s5, 0x18f10 <jinit_1pass_quantizer+0x220>
   18f68: a2 6d        	c.ldsp	s11, 0x8(sp)
   18f6a: 03 a4 8d 08  	lw	s0, 0x88(s11)
   18f6e: 82 74        	c.ldsp	s1, 0x20(sp)
   18f70: 85 04        	c.addi	s1, 0x1
   18f72: e3 cf 84 f4  	blt	s1, s0, 0x18ed0 <jinit_1pass_quantizer+0x1e0>
   18f76: 62 65        	c.ldsp	a0, 0x18(sp)
   18f78: c2 65        	c.ldsp	a1, 0x10(sp)
   18f7a: 0c f1        	c.sd	a1, 0x20(a0)
   18f7c: 82 65        	c.ldsp	a1, 0x0(sp)
   18f7e: 0c d5        	c.sw	a1, 0x28(a0)
   18f80: 6e 85        	c.mv	a0, s11
   18f82: ef 00 40 25  	jal	ra, 0x191d6 <create_colorindex>
   18f86: 03 a5 8d 06  	lw	a0, 0x68(s11)
   18f8a: 89 45        	c.li	a1, 0x2
   18f8c: 63 13 b5 02  	bne	a0, a1, 0x18fb2 <jinit_1pass_quantizer+0x2c2>
   18f90: 6e 85        	c.mv	a0, s11
   18f92: ea 60        	c.ldsp	ra, 0x98(sp)
   18f94: 4a 64        	c.ldsp	s0, 0x90(sp)
   18f96: aa 64        	c.ldsp	s1, 0x88(sp)
   18f98: 0a 69        	c.ldsp	s2, 0x80(sp)
   18f9a: e6 79        	c.ldsp	s3, 0x78(sp)
   18f9c: 46 7a        	c.ldsp	s4, 0x70(sp)
   18f9e: a6 7a        	c.ldsp	s5, 0x68(sp)
   18fa0: 06 7b        	c.ldsp	s6, 0x60(sp)
   18fa2: e6 6b        	c.ldsp	s7, 0x58(sp)
   18fa4: 46 6c        	c.ldsp	s8, 0x50(sp)
   18fa6: a6 6c        	c.ldsp	s9, 0x48(sp)
   18fa8: 06 6d        	c.ldsp	s10, 0x40(sp)
   18faa: e2 7d        	c.ldsp	s11, 0x38(sp)
   18fac: 0d 61        	c.addi16sp	sp, 0xa0
   18fae: 6f 00 20 34  	jal	zero, 0x192f0 <alloc_fs_workspace>
   18fb2: ea 60        	c.ldsp	ra, 0x98(sp)
   18fb4: 4a 64        	c.ldsp	s0, 0x90(sp)
   18fb6: aa 64        	c.ldsp	s1, 0x88(sp)
   18fb8: 0a 69        	c.ldsp	s2, 0x80(sp)
   18fba: e6 79        	c.ldsp	s3, 0x78(sp)
   18fbc: 46 7a        	c.ldsp	s4, 0x70(sp)
   18fbe: a6 7a        	c.ldsp	s5, 0x68(sp)
   18fc0: 06 7b        	c.ldsp	s6, 0x60(sp)
   18fc2: e6 6b        	c.ldsp	s7, 0x58(sp)
   18fc4: 46 6c        	c.ldsp	s8, 0x50(sp)
   18fc6: a6 6c        	c.ldsp	s9, 0x48(sp)
   18fc8: 06 6d        	c.ldsp	s10, 0x40(sp)
   18fca: e2 7d        	c.ldsp	s11, 0x38(sp)
   18fcc: 0d 61        	c.addi16sp	sp, 0xa0
   18fce: 82 80        	c.jr	ra

0000000000018fd0 <start_pass_1_quant>:
   18fd0: 75 71        	c.addi16sp	sp, -0x90
   18fd2: 06 e5        	c.sdsp	ra, 0x88(sp)
   18fd4: 22 e1        	c.sdsp	s0, 0x80(sp)
   18fd6: a6 fc        	c.sdsp	s1, 0x78(sp)
   18fd8: ca f8        	c.sdsp	s2, 0x70(sp)
   18fda: ce f4        	c.sdsp	s3, 0x68(sp)
   18fdc: d2 f0        	c.sdsp	s4, 0x60(sp)
   18fde: d6 ec        	c.sdsp	s5, 0x58(sp)
   18fe0: da e8        	c.sdsp	s6, 0x50(sp)
   18fe2: de e4        	c.sdsp	s7, 0x48(sp)
   18fe4: e2 e0        	c.sdsp	s8, 0x40(sp)
   18fe6: 66 fc        	c.sdsp	s9, 0x38(sp)
   18fe8: 6a f8        	c.sdsp	s10, 0x30(sp)
   18fea: 6e f4        	c.sdsp	s11, 0x28(sp)
   18fec: 2a 89        	c.mv	s2, a0
   18fee: 83 39 05 26  	ld	s3, 0x260(a0)
   18ff2: 83 b5 09 02  	ld	a1, 0x20(s3)
   18ff6: 03 a6 89 02  	lw	a2, 0x28(s3)
   18ffa: 28 55        	c.lw	a0, 0x68(a0)
   18ffc: 23 3c b9 08  	sd	a1, 0x98(s2)
   19000: 89 45        	c.li	a1, 0x2
   19002: 23 2a c9 08  	sw	a2, 0x94(s2)
   19006: 63 0a b5 02  	beq	a0, a1, 0x1903a <start_pass_1_quant+0x6a>
   1900a: 85 45        	c.li	a1, 0x1
   1900c: 63 0d b5 00  	beq	a0, a1, 0x19026 <start_pass_1_quant+0x56>
   19010: 3d e9        	c.bnez	a0, 0x19086 <start_pass_1_quant+0xb6>
   19012: 03 25 89 08  	lw	a0, 0x88(s2)
   19016: 8d 45        	c.li	a1, 0x3
   19018: 63 13 b5 18  	bne	a0, a1, 0x1919e <start_pass_1_quant+0x1ce>
   1901c: 37 95 01 00  	lui	a0, 0x19
   19020: 13 05 45 33  	addi	a0, a0, 0x334
   19024: 49 a2        	c.j	0x191a6 <start_pass_1_quant+0x1d6>
   19026: 03 25 89 08  	lw	a0, 0x88(s2)
   1902a: 8d 45        	c.li	a1, 0x3
   1902c: 63 03 b5 08  	beq	a0, a1, 0x190b2 <start_pass_1_quant+0xe2>
   19030: 37 95 01 00  	lui	a0, 0x19
   19034: 13 05 45 51  	addi	a0, a0, 0x514
   19038: 49 a0        	c.j	0x190ba <start_pass_1_quant+0xea>
   1903a: 03 b5 09 07  	ld	a0, 0x70(s3)
   1903e: b7 95 01 00  	lui	a1, 0x19
   19042: 93 85 e5 5c  	addi	a1, a1, 0x5ce
   19046: 23 b4 b9 00  	sd	a1, 0x8(s3)
   1904a: 23 a8 09 08  	sw	zero, 0x90(s3)
   1904e: 01 e5        	c.bnez	a0, 0x19056 <start_pass_1_quant+0x86>
   19050: 4a 85        	c.mv	a0, s2
   19052: ef 00 e0 29  	jal	ra, 0x192f0 <alloc_fs_workspace>
   19056: 03 25 89 08  	lw	a0, 0x88(s2)
   1905a: 63 58 a0 14  	bge	zero, a0, 0x191aa <start_pass_1_quant+0x1da>
   1905e: 03 25 09 08  	lw	a0, 0x80(s2)
   19062: 81 44        	c.li	s1, 0x0
   19064: 09 05        	c.addi	a0, 0x2
   19066: 02 15        	c.slli	a0, 0x20
   19068: 13 5a f5 01  	srli	s4, a0, 0x1f
   1906c: 13 84 09 07  	addi	s0, s3, 0x70
   19070: 08 60        	c.ld	a0, 0x0(s0)
   19072: d2 85        	c.mv	a1, s4
   19074: ef 10 10 46  	jal	ra, 0x1acd4 <jzero_far>
   19078: 03 25 89 08  	lw	a0, 0x88(s2)
   1907c: 85 04        	c.addi	s1, 0x1
   1907e: 21 04        	c.addi	s0, 0x8
   19080: e3 c8 a4 fe  	blt	s1, a0, 0x19070 <start_pass_1_quant+0xa0>
   19084: 1d a2        	c.j	0x191aa <start_pass_1_quant+0x1da>
   19086: 03 35 09 00  	ld	a0, 0x0(s2)
   1908a: 1c 61        	c.ld	a5, 0x0(a0)
   1908c: 93 05 f0 02  	addi	a1, zero, 0x2f
   19090: 0c d5        	c.sw	a1, 0x28(a0)
   19092: 4a 85        	c.mv	a0, s2
   19094: aa 60        	c.ldsp	ra, 0x88(sp)
   19096: 0a 64        	c.ldsp	s0, 0x80(sp)
   19098: e6 74        	c.ldsp	s1, 0x78(sp)
   1909a: 46 79        	c.ldsp	s2, 0x70(sp)
   1909c: a6 79        	c.ldsp	s3, 0x68(sp)
   1909e: 06 7a        	c.ldsp	s4, 0x60(sp)
   190a0: e6 6a        	c.ldsp	s5, 0x58(sp)
   190a2: 46 6b        	c.ldsp	s6, 0x50(sp)
   190a4: a6 6b        	c.ldsp	s7, 0x48(sp)
   190a6: 06 6c        	c.ldsp	s8, 0x40(sp)
   190a8: e2 7c        	c.ldsp	s9, 0x38(sp)
   190aa: 42 7d        	c.ldsp	s10, 0x30(sp)
   190ac: a2 7d        	c.ldsp	s11, 0x28(sp)
   190ae: 49 61        	c.addi16sp	sp, 0x90
   190b0: 82 87        	c.jr	a5
   190b2: 37 95 01 00  	lui	a0, 0x19
   190b6: 13 05 25 44  	addi	a0, a0, 0x442
   190ba: 83 a5 89 03  	lw	a1, 0x38(s3)
   190be: 23 b4 a9 00  	sd	a0, 0x8(s3)
   190c2: 23 a6 09 04  	sw	zero, 0x4c(s3)
   190c6: 81 e5        	c.bnez	a1, 0x190ce <start_pass_1_quant+0xfe>
   190c8: 4a 85        	c.mv	a0, s2
   190ca: ef 00 c0 10  	jal	ra, 0x191d6 <create_colorindex>
   190ce: 03 b5 09 05  	ld	a0, 0x50(s3)
   190d2: 61 ed        	c.bnez	a0, 0x191aa <start_pass_1_quant+0x1da>
   190d4: 03 25 89 08  	lw	a0, 0x88(s2)
   190d8: 63 59 a0 0c  	bge	zero, a0, 0x191aa <start_pass_1_quant+0x1da>
   190dc: 83 37 09 26  	ld	a5, 0x260(s2)
   190e0: 01 4a        	c.li	s4, 0x0
   190e2: 93 85 07 05  	addi	a1, a5, 0x50
   190e6: 2e f0        	c.sdsp	a1, 0x20(sp)
   190e8: 93 85 c7 03  	addi	a1, a5, 0x3c
   190ec: 2e ec        	c.sdsp	a1, 0x18(sp)
   190ee: b7 25 03 00  	lui	a1, 0x32
   190f2: 93 85 05 c5  	addi	a1, a1, -0x3b0
   190f6: 2e e4        	c.sdsp	a1, 0x8(sp)
   190f8: 13 0d f0 0f  	addi	s10, zero, 0xff
   190fc: c1 4c        	c.li	s9, 0x10
   190fe: 3e e8        	c.sdsp	a5, 0x10(sp)
   19100: 93 15 2a 00  	slli	a1, s4, 0x2
   19104: be 95        	c.add	a1, a5
   19106: c0 5d        	c.lw	s0, 0x3c(a1)
   19108: e2 65        	c.ldsp	a1, 0x18(sp)
   1910a: d2 86        	c.mv	a3, s4
   1910c: 02 76        	c.ldsp	a2, 0x20(sp)
   1910e: 63 0e 0a 00  	beq	s4, zero, 0x1912a <start_pass_1_quant+0x15a>
   19112: 98 41        	c.lw	a4, 0x0(a1)
   19114: 63 07 e4 00  	beq	s0, a4, 0x19122 <start_pass_1_quant+0x152>
   19118: 21 06        	c.addi	a2, 0x8
   1911a: fd 16        	c.addi	a3, -0x1
   1911c: 91 05        	c.addi	a1, 0x4
   1911e: f5 fa        	c.bnez	a3, 0x19112 <start_pass_1_quant+0x142>
   19120: 29 a0        	c.j	0x1912a <start_pass_1_quant+0x15a>
   19122: 83 39 06 00  	ld	s3, 0x0(a2)
   19126: 63 93 09 06  	bne	s3, zero, 0x1918c <start_pass_1_quant+0x1bc>
   1912a: 03 35 89 00  	ld	a0, 0x8(s2)
   1912e: 14 61        	c.ld	a3, 0x0(a0)
   19130: 85 45        	c.li	a1, 0x1
   19132: 13 06 00 40  	addi	a2, zero, 0x400
   19136: 4a 85        	c.mv	a0, s2
   19138: 82 96        	c.jalr	a3
   1913a: aa 89        	c.mv	s3, a0
   1913c: 81 44        	c.li	s1, 0x0
   1913e: 26 04        	c.slli	s0, 0x9
   19140: 13 04 04 e0  	addi	s0, s0, -0x200
   19144: 22 6b        	c.ldsp	s6, 0x8(sp)
   19146: aa 8b        	c.mv	s7, a0
   19148: 13 95 64 00  	slli	a0, s1, 0x6
   1914c: 4e 95        	c.add	a0, s3
   1914e: 93 0a 05 04  	addi	s5, a0, 0x40
   19152: da 8d        	c.mv	s11, s6
   19154: 5e 8c        	c.mv	s8, s7
   19156: 03 c5 0d 00  	lbu	a0, 0x0(s11)
   1915a: 06 05        	c.slli	a0, 0x1
   1915c: 33 05 ad 40  	sub	a0, s10, a0
   19160: 93 15 85 00  	slli	a1, a0, 0x8
   19164: 33 85 a5 40  	sub	a0, a1, a0
   19168: a2 85        	c.mv	a1, s0
   1916a: ef 60 71 16  	jal	ra, 0x2fad0 <__divdi3>
   1916e: 23 20 ac 00  	sw	a0, 0x0(s8)
   19172: 11 0c        	c.addi	s8, 0x4
   19174: 85 0d        	c.addi	s11, 0x1
   19176: e3 10 5c ff  	bne	s8, s5, 0x19156 <start_pass_1_quant+0x186>
   1917a: 85 04        	c.addi	s1, 0x1
   1917c: 93 8b 0b 04  	addi	s7, s7, 0x40
   19180: 41 0b        	c.addi	s6, 0x10
   19182: e3 93 94 fd  	bne	s1, s9, 0x19148 <start_pass_1_quant+0x178>
   19186: 03 25 89 08  	lw	a0, 0x88(s2)
   1918a: c2 67        	c.ldsp	a5, 0x10(sp)
   1918c: 93 15 3a 00  	slli	a1, s4, 0x3
   19190: be 95        	c.add	a1, a5
   19192: 05 0a        	c.addi	s4, 0x1
   19194: 23 b8 35 05  	sd	s3, 0x50(a1)
   19198: e3 44 aa f6  	blt	s4, a0, 0x19100 <start_pass_1_quant+0x130>
   1919c: 39 a0        	c.j	0x191aa <start_pass_1_quant+0x1da>
   1919e: 37 95 01 00  	lui	a0, 0x19
   191a2: 13 05 85 3b  	addi	a0, a0, 0x3b8
   191a6: 23 b4 a9 00  	sd	a0, 0x8(s3)
   191aa: aa 60        	c.ldsp	ra, 0x88(sp)
   191ac: 0a 64        	c.ldsp	s0, 0x80(sp)
   191ae: e6 74        	c.ldsp	s1, 0x78(sp)
   191b0: 46 79        	c.ldsp	s2, 0x70(sp)
   191b2: a6 79        	c.ldsp	s3, 0x68(sp)
   191b4: 06 7a        	c.ldsp	s4, 0x60(sp)
   191b6: e6 6a        	c.ldsp	s5, 0x58(sp)
   191b8: 46 6b        	c.ldsp	s6, 0x50(sp)
   191ba: a6 6b        	c.ldsp	s7, 0x48(sp)
   191bc: 06 6c        	c.ldsp	s8, 0x40(sp)
   191be: e2 7c        	c.ldsp	s9, 0x38(sp)
   191c0: 42 7d        	c.ldsp	s10, 0x30(sp)
   191c2: a2 7d        	c.ldsp	s11, 0x28(sp)
   191c4: 49 61        	c.addi16sp	sp, 0x90
   191c6: 82 80        	c.jr	ra

00000000000191c8 <finish_pass_1_quant>:
   191c8: 82 80        	c.jr	ra

00000000000191ca <new_color_map_1_quant>:
   191ca: 0c 61        	c.ld	a1, 0x0(a0)
   191cc: 9c 61        	c.ld	a5, 0x0(a1)
   191ce: 13 06 d0 02  	addi	a2, zero, 0x2d
   191d2: 90 d5        	c.sw	a2, 0x28(a1)
   191d4: 82 87        	c.jr	a5

00000000000191d6 <create_colorindex>:
   191d6: ef 62 51 04  	jal	t0, 0x2fa1a <__riscv_save_12>
   191da: 41 11        	c.addi	sp, -0x10
   191dc: 83 2a 85 06  	lw	s5, 0x68(a0)
   191e0: 03 3b 05 26  	ld	s6, 0x260(a0)
   191e4: 93 85 fa ff  	addi	a1, s5, -0x1
   191e8: 93 b5 15 00  	sltiu	a1, a1, 0x1
   191ec: 23 2c bb 02  	sw	a1, 0x38(s6)
   191f0: 0c 65        	c.ld	a1, 0x8(a0)
   191f2: 98 69        	c.ld	a4, 0x10(a1)
   191f4: 2a e4        	c.sdsp	a0, 0x8(sp)
   191f6: 83 26 85 08  	lw	a3, 0x88(a0)
   191fa: 05 45        	c.li	a0, 0x1
   191fc: 13 06 e0 2f  	addi	a2, zero, 0x2fe
   19200: 63 84 aa 00  	beq	s5, a0, 0x19208 <create_colorindex+0x32>
   19204: 13 06 00 10  	addi	a2, zero, 0x100
   19208: 85 45        	c.li	a1, 0x1
   1920a: 22 64        	c.ldsp	s0, 0x8(sp)
   1920c: 22 85        	c.mv	a0, s0
   1920e: 02 97        	c.jalr	a4
   19210: 83 25 84 08  	lw	a1, 0x88(s0)
   19214: 23 38 ab 02  	sd	a0, 0x30(s6)
   19218: 63 59 b0 0c  	bge	zero, a1, 0x192ea <create_colorindex+0x114>
   1921c: 83 29 8b 02  	lw	s3, 0x28(s6)
   19220: 81 4b        	c.li	s7, 0x0
   19222: 85 44        	c.li	s1, 0x1
   19224: 93 0c 00 10  	addi	s9, zero, 0x100
   19228: 13 95 2b 00  	slli	a0, s7, 0x2
   1922c: 5a 95        	c.add	a0, s6
   1922e: 40 5d        	c.lw	s0, 0x3c(a0)
   19230: 1b 85 09 00  	addiw	a0, s3, 0x0
   19234: a2 85        	c.mv	a1, s0
   19236: ef 60 b1 09  	jal	ra, 0x2fad0 <__divdi3>
   1923a: 83 35 0b 03  	ld	a1, 0x30(s6)
   1923e: aa 89        	c.mv	s3, a0
   19240: 13 95 3b 00  	slli	a0, s7, 0x3
   19244: 63 99 9a 00  	bne	s5, s1, 0x19256 <create_colorindex+0x80>
   19248: aa 95        	c.add	a1, a0
   1924a: 90 61        	c.ld	a2, 0x0(a1)
   1924c: 13 06 f6 0f  	addi	a2, a2, 0xff
   19250: 90 e1        	c.sd	a2, 0x0(a1)
   19252: 83 35 0b 03  	ld	a1, 0x30(s6)
   19256: 2e 95        	c.add	a0, a1
   19258: 03 3d 05 00  	ld	s10, 0x0(a0)
   1925c: 9b 0d f4 ff  	addiw	s11, s0, -0x1
   19260: 13 85 fd 0f  	addi	a0, s11, 0xff
   19264: 1b 9a 1d 00  	slliw	s4, s11, 0x1
   19268: d2 85        	c.mv	a1, s4
   1926a: ef 60 71 06  	jal	ra, 0x2fad0 <__divdi3>
   1926e: 2a 84        	c.mv	s0, a0
   19270: 01 4c        	c.li	s8, 0x0
   19272: 81 44        	c.li	s1, 0x0
   19274: 1b 05 04 00  	addiw	a0, s0, 0x0
   19278: 63 53 85 03  	bge	a0, s8, 0x1929e <create_colorindex+0xc8>
   1927c: 13 99 14 00  	slli	s2, s1, 0x1
   19280: 0d 29        	c.addiw	s2, 0x3
   19282: 13 15 89 00  	slli	a0, s2, 0x8
   19286: b3 05 b9 41  	sub	a1, s2, s11
   1928a: 0d 8d        	c.sub	a0, a1
   1928c: d2 85        	c.mv	a1, s4
   1928e: ef 60 31 04  	jal	ra, 0x2fad0 <__divdi3>
   19292: 2a 84        	c.mv	s0, a0
   19294: 01 25        	c.addiw	a0, 0x0
   19296: 85 24        	c.addiw	s1, 0x1
   19298: 09 29        	c.addiw	s2, 0x2
   1929a: e3 44 85 ff  	blt	a0, s8, 0x19282 <create_colorindex+0xac>
   1929e: 26 85        	c.mv	a0, s1
   192a0: ce 85        	c.mv	a1, s3
   192a2: ef 60 e1 7e  	jal	ra, 0x2fa90 <__muldi3>
   192a6: b3 05 8d 01  	add	a1, s10, s8
   192aa: 05 0c        	c.addi	s8, 0x1
   192ac: 23 80 a5 00  	sb	a0, 0x0(a1)
   192b0: e3 12 9c fd  	bne	s8, s9, 0x19274 <create_colorindex+0x9e>
   192b4: 85 44        	c.li	s1, 0x1
   192b6: 63 94 9a 02  	bne	s5, s1, 0x192de <create_colorindex+0x108>
   192ba: 03 45 0d 00  	lbu	a0, 0x0(s10)
   192be: 93 05 fd ff  	addi	a1, s10, -0x1
   192c2: 13 06 0d 10  	addi	a2, s10, 0x100
   192c6: 93 06 0d f0  	addi	a3, s10, -0x100
   192ca: 23 80 a5 00  	sb	a0, 0x0(a1)
   192ce: 03 47 fd 0f  	lbu	a4, 0xff(s10)
   192d2: 23 00 e6 00  	sb	a4, 0x0(a2)
   192d6: fd 15        	c.addi	a1, -0x1
   192d8: 05 06        	c.addi	a2, 0x1
   192da: e3 98 d5 fe  	bne	a1, a3, 0x192ca <create_colorindex+0xf4>
   192de: 22 65        	c.ldsp	a0, 0x8(sp)
   192e0: 03 25 85 08  	lw	a0, 0x88(a0)
   192e4: 85 0b        	c.addi	s7, 0x1
   192e6: e3 c1 ab f4  	blt	s7, a0, 0x19228 <create_colorindex+0x52>
   192ea: 41 01        	c.addi	sp, 0x10
   192ec: 6f 60 81 77  	jal	zero, 0x2fa64 <__riscv_restore_12>

00000000000192f0 <alloc_fs_workspace>:
   192f0: ef 62 01 75  	jal	t0, 0x2fa40 <__riscv_save_5>
   192f4: aa 89        	c.mv	s3, a0
   192f6: 03 25 85 08  	lw	a0, 0x88(a0)
   192fa: 63 5b a0 02  	bge	zero, a0, 0x19330 <alloc_fs_workspace+0x40>
   192fe: 03 a5 09 08  	lw	a0, 0x80(s3)
   19302: 81 44        	c.li	s1, 0x0
   19304: 83 b5 09 26  	ld	a1, 0x260(s3)
   19308: 09 05        	c.addi	a0, 0x2
   1930a: 02 15        	c.slli	a0, 0x20
   1930c: 13 59 f5 01  	srli	s2, a0, 0x1f
   19310: 13 84 05 07  	addi	s0, a1, 0x70
   19314: 03 b5 89 00  	ld	a0, 0x8(s3)
   19318: 14 65        	c.ld	a3, 0x8(a0)
   1931a: 85 45        	c.li	a1, 0x1
   1931c: 4e 85        	c.mv	a0, s3
   1931e: 4a 86        	c.mv	a2, s2
   19320: 82 96        	c.jalr	a3
   19322: 83 a5 89 08  	lw	a1, 0x88(s3)
   19326: 08 e0        	c.sd	a0, 0x0(s0)
   19328: 85 04        	c.addi	s1, 0x1
   1932a: 21 04        	c.addi	s0, 0x8
   1932c: e3 c4 b4 fe  	blt	s1, a1, 0x19314 <alloc_fs_workspace+0x24>
   19330: 6f 60 a1 74  	jal	zero, 0x2fa7a <__riscv_restore_5>

0000000000019334 <color_quantize3>:
   19334: 63 51 d0 08  	bge	zero, a3, 0x193b6 <color_quantize3+0x82>
   19338: ef 62 21 71  	jal	t0, 0x2fa4a <__riscv_save_3>
   1933c: 03 37 05 26  	ld	a4, 0x260(a0)
   19340: 18 7b        	c.ld	a4, 0x30(a4)
   19342: 81 48        	c.li	a7, 0x0
   19344: 03 28 05 08  	lw	a6, 0x80(a0)
   19348: 03 33 07 00  	ld	t1, 0x0(a4)
   1934c: 83 33 87 00  	ld	t2, 0x8(a4)
   19350: 03 3e 07 01  	ld	t3, 0x10(a4)
   19354: 13 05 f8 ff  	addi	a0, a6, -0x1
   19358: 02 15        	c.slli	a0, 0x20
   1935a: 01 91        	c.srli	a0, 0x20
   1935c: 93 02 15 00  	addi	t0, a0, 0x1
   19360: 63 05 08 04  	beq	a6, zero, 0x193aa <color_quantize3+0x76>
   19364: 13 97 38 00  	slli	a4, a7, 0x3
   19368: 33 05 e6 00  	add	a0, a2, a4
   1936c: 04 61        	c.ld	s1, 0x0(a0)
   1936e: 2e 97        	c.add	a4, a1
   19370: 1c 63        	c.ld	a5, 0x0(a4)
   19372: b3 8e 54 00  	add	t4, s1, t0
   19376: 03 c7 07 00  	lbu	a4, 0x0(a5)
   1937a: 03 cf 17 00  	lbu	t5, 0x1(a5)
   1937e: b3 0f e3 00  	add	t6, t1, a4
   19382: 03 c4 27 00  	lbu	s0, 0x2(a5)
   19386: 83 cf 0f 00  	lbu	t6, 0x0(t6)
   1938a: 1e 9f        	c.add	t5, t2
   1938c: 03 47 0f 00  	lbu	a4, 0x0(t5)
   19390: 72 94        	c.add	s0, t3
   19392: 03 44 04 00  	lbu	s0, 0x0(s0)
   19396: 7e 97        	c.add	a4, t6
   19398: 22 97        	c.add	a4, s0
   1939a: 13 85 14 00  	addi	a0, s1, 0x1
   1939e: 23 80 e4 00  	sb	a4, 0x0(s1)
   193a2: 8d 07        	c.addi	a5, 0x3
   193a4: aa 84        	c.mv	s1, a0
   193a6: e3 18 d5 fd  	bne	a0, t4, 0x19376 <color_quantize3+0x42>
   193aa: 85 08        	c.addi	a7, 0x1
   193ac: e3 9a d8 fa  	bne	a7, a3, 0x19360 <color_quantize3+0x2c>
   193b0: 6f 60 01 6d  	jal	zero, 0x2fa80 <__riscv_restore_3>
   193b4: 09 a0        	c.j	0x193b6 <color_quantize3+0x82>
   193b6: 82 80        	c.jr	ra

00000000000193b8 <color_quantize>:
   193b8: 63 54 d0 08  	bge	zero, a3, 0x19440 <color_quantize+0x88>
   193bc: ef 62 e1 68  	jal	t0, 0x2fa4a <__riscv_save_3>
   193c0: 03 37 05 26  	ld	a4, 0x260(a0)
   193c4: 83 68 85 08  	lwu	a7, 0x88(a0)
   193c8: 01 48        	c.li	a6, 0x0
   193ca: 03 33 07 03  	ld	t1, 0x30(a4)
   193ce: 83 22 05 08  	lw	t0, 0x80(a0)
   193d2: 1b 8e 08 00  	addiw	t3, a7, 0x0
   193d6: 13 85 f8 ff  	addi	a0, a7, -0x1
   193da: 02 15        	c.slli	a0, 0x20
   193dc: 01 91        	c.srli	a0, 0x20
   193de: 93 03 15 00  	addi	t2, a0, 0x1
   193e2: 63 89 02 04  	beq	t0, zero, 0x19434 <color_quantize+0x7c>
   193e6: 13 15 38 00  	slli	a0, a6, 0x3
   193ea: 33 07 a6 00  	add	a4, a2, a0
   193ee: 03 3f 07 00  	ld	t5, 0x0(a4)
   193f2: 2e 95        	c.add	a0, a1
   193f4: 83 3e 05 00  	ld	t4, 0x0(a0)
   193f8: 96 8f        	c.mv	t6, t0
   193fa: 01 45        	c.li	a0, 0x0
   193fc: 63 54 c0 03  	bge	zero, t3, 0x19424 <color_quantize+0x6c>
   19400: 33 89 1e 01  	add	s2, t4, a7
   19404: 1a 87        	c.mv	a4, t1
   19406: 76 84        	c.mv	s0, t4
   19408: 04 63        	c.ld	s1, 0x0(a4)
   1940a: 83 47 04 00  	lbu	a5, 0x0(s0)
   1940e: a6 97        	c.add	a5, s1
   19410: 83 c7 07 00  	lbu	a5, 0x0(a5)
   19414: 93 04 14 00  	addi	s1, s0, 0x1
   19418: 3e 95        	c.add	a0, a5
   1941a: 21 07        	c.addi	a4, 0x8
   1941c: 26 84        	c.mv	s0, s1
   1941e: e3 95 24 ff  	bne	s1, s2, 0x19408 <color_quantize+0x50>
   19422: 9e 9e        	c.add	t4, t2
   19424: 13 07 1f 00  	addi	a4, t5, 0x1
   19428: fd 3f        	c.addiw	t6, -0x1
   1942a: 23 00 af 00  	sb	a0, 0x0(t5)
   1942e: 3a 8f        	c.mv	t5, a4
   19430: e3 95 0f fc  	bne	t6, zero, 0x193fa <color_quantize+0x42>
   19434: 05 08        	c.addi	a6, 0x1
   19436: e3 16 d8 fa  	bne	a6, a3, 0x193e2 <color_quantize+0x2a>
   1943a: 6f 60 61 64  	jal	zero, 0x2fa80 <__riscv_restore_3>
   1943e: 09 a0        	c.j	0x19440 <color_quantize+0x88>
   19440: 82 80        	c.jr	ra

0000000000019442 <quantize3_ord_dither>:
   19442: 63 58 d0 0c  	bge	zero, a3, 0x19512 <quantize3_ord_dither+0xd0>
   19446: ef 62 61 5e  	jal	t0, 0x2fa2c <__riscv_save_9>
   1944a: 03 38 05 26  	ld	a6, 0x260(a0)
   1944e: 03 37 08 03  	ld	a4, 0x30(a6)
   19452: 81 42        	c.li	t0, 0x0
   19454: 03 3e 07 00  	ld	t3, 0x0(a4)
   19458: 83 28 05 08  	lw	a7, 0x80(a0)
   1945c: 83 3e 87 00  	ld	t4, 0x8(a4)
   19460: 03 3f 07 01  	ld	t5, 0x10(a4)
   19464: 03 23 c8 04  	lw	t1, 0x4c(a6)
   19468: 13 85 f8 ff  	addi	a0, a7, -0x1
   1946c: 02 15        	c.slli	a0, 0x20
   1946e: 01 91        	c.srli	a0, 0x20
   19470: 93 03 15 00  	addi	t2, a0, 0x1
   19474: 63 84 08 08  	beq	a7, zero, 0x194fc <quantize3_ord_dither+0xba>
   19478: 83 3f 08 05  	ld	t6, 0x50(a6)
   1947c: 81 4b        	c.li	s7, 0x0
   1947e: 13 15 63 00  	slli	a0, t1, 0x6
   19482: aa 9f        	c.add	t6, a0
   19484: 03 39 88 05  	ld	s2, 0x58(a6)
   19488: 83 39 08 06  	ld	s3, 0x60(a6)
   1948c: 93 97 32 00  	slli	a5, t0, 0x3
   19490: b3 04 f6 00  	add	s1, a2, a5
   19494: 84 60        	c.ld	s1, 0x0(s1)
   19496: ae 97        	c.add	a5, a1
   19498: 9c 63        	c.ld	a5, 0x0(a5)
   1949a: 2a 99        	c.add	s2, a0
   1949c: aa 99        	c.add	s3, a0
   1949e: 33 8a 74 00  	add	s4, s1, t2
   194a2: 83 ca 07 00  	lbu	s5, 0x0(a5)
   194a6: 13 94 2b 00  	slli	s0, s7, 0x2
   194aa: 33 87 8f 00  	add	a4, t6, s0
   194ae: 03 2b 07 00  	lw	s6, 0x0(a4)
   194b2: 03 cc 17 00  	lbu	s8, 0x1(a5)
   194b6: 33 05 89 00  	add	a0, s2, s0
   194ba: 08 41        	c.lw	a0, 0x0(a0)
   194bc: 3b 07 5b 01  	addw	a4, s6, s5
   194c0: 72 97        	c.add	a4, t3
   194c2: bb 0a 85 01  	addw	s5, a0, s8
   194c6: 03 cb 27 00  	lbu	s6, 0x2(a5)
   194ca: 4e 94        	c.add	s0, s3
   194cc: 00 40        	c.lw	s0, 0x0(s0)
   194ce: 03 47 07 00  	lbu	a4, 0x0(a4)
   194d2: f6 9a        	c.add	s5, t4
   194d4: 03 c5 0a 00  	lbu	a0, 0x0(s5)
   194d8: 3b 04 64 01  	addw	s0, s0, s6
   194dc: 7a 94        	c.add	s0, t5
   194de: 03 44 04 00  	lbu	s0, 0x0(s0)
   194e2: 3a 95        	c.add	a0, a4
   194e4: 22 95        	c.add	a0, s0
   194e6: 13 87 14 00  	addi	a4, s1, 0x1
   194ea: 23 80 a4 00  	sb	a0, 0x0(s1)
   194ee: 85 0b        	c.addi	s7, 0x1
   194f0: 93 fb fb 00  	andi	s7, s7, 0xf
   194f4: 8d 07        	c.addi	a5, 0x3
   194f6: ba 84        	c.mv	s1, a4
   194f8: e3 15 47 fb  	bne	a4, s4, 0x194a2 <quantize3_ord_dither+0x60>
   194fc: 05 03        	c.addi	t1, 0x1
   194fe: 13 73 f3 00  	andi	t1, t1, 0xf
   19502: 85 02        	c.addi	t0, 0x1
   19504: 23 26 68 04  	sw	t1, 0x4c(a6)
   19508: e3 96 d2 f6  	bne	t0, a3, 0x19474 <quantize3_ord_dither+0x32>
   1950c: 6f 60 21 56  	jal	zero, 0x2fa6e <__riscv_restore_9>
   19510: 09 a0        	c.j	0x19512 <quantize3_ord_dither+0xd0>
   19512: 82 80        	c.jr	ra

0000000000019514 <quantize_ord_dither>:
   19514: 63 5c d0 0a  	bge	zero, a3, 0x195cc <quantize_ord_dither+0xb8>
   19518: ef 62 a1 50  	jal	t0, 0x2fa22 <__riscv_save_11>
   1951c: 36 8a        	c.mv	s4, a3
   1951e: b2 89        	c.mv	s3, a2
   19520: 2e 89        	c.mv	s2, a1
   19522: 03 6b 05 08  	lwu	s6, 0x80(a0)
   19526: 81 4a        	c.li	s5, 0x0
   19528: 83 3c 05 26  	ld	s9, 0x260(a0)
   1952c: 03 2d 85 08  	lw	s10, 0x88(a0)
   19530: 13 05 fb ff  	addi	a0, s6, -0x1
   19534: 02 15        	c.slli	a0, 0x20
   19536: 01 91        	c.srli	a0, 0x20
   19538: 93 0b 15 00  	addi	s7, a0, 0x1
   1953c: 13 94 3a 00  	slli	s0, s5, 0x3
   19540: 33 8c 89 00  	add	s8, s3, s0
   19544: 03 35 0c 00  	ld	a0, 0x0(s8)
   19548: da 85        	c.mv	a1, s6
   1954a: ef 10 a0 78  	jal	ra, 0x1acd4 <jzero_far>
   1954e: 03 a8 cc 04  	lw	a6, 0x4c(s9)
   19552: 63 52 a0 07  	bge	zero, s10, 0x195b6 <quantize_ord_dither+0xa2>
   19556: 01 43        	c.li	t1, 0x0
   19558: b3 08 89 00  	add	a7, s2, s0
   1955c: 93 12 68 00  	slli	t0, a6, 0x6
   19560: 63 08 0b 04  	beq	s6, zero, 0x195b0 <quantize_ord_dither+0x9c>
   19564: 03 b5 0c 03  	ld	a0, 0x30(s9)
   19568: 81 44        	c.li	s1, 0x0
   1956a: 93 15 33 00  	slli	a1, t1, 0x3
   1956e: 2e 95        	c.add	a0, a1
   19570: e6 95        	c.add	a1, s9
   19572: b4 69        	c.ld	a3, 0x50(a1)
   19574: 83 b5 08 00  	ld	a1, 0x0(a7)
   19578: 83 37 0c 00  	ld	a5, 0x0(s8)
   1957c: 08 61        	c.ld	a0, 0x0(a0)
   1957e: 96 96        	c.add	a3, t0
   19580: 9a 95        	c.add	a1, t1
   19582: 33 84 77 01  	add	s0, a5, s7
   19586: 03 c6 05 00  	lbu	a2, 0x0(a1)
   1958a: 13 97 24 00  	slli	a4, s1, 0x2
   1958e: 36 97        	c.add	a4, a3
   19590: 18 43        	c.lw	a4, 0x0(a4)
   19592: 39 9e        	c.addw	a2, a4
   19594: 2a 96        	c.add	a2, a0
   19596: 03 46 06 00  	lbu	a2, 0x0(a2)
   1959a: 03 c7 07 00  	lbu	a4, 0x0(a5)
   1959e: 3a 96        	c.add	a2, a4
   195a0: 23 80 c7 00  	sb	a2, 0x0(a5)
   195a4: ea 95        	c.add	a1, s10
   195a6: 85 07        	c.addi	a5, 0x1
   195a8: 85 04        	c.addi	s1, 0x1
   195aa: bd 88        	c.andi	s1, 0xf
   195ac: e3 9d 87 fc  	bne	a5, s0, 0x19586 <quantize_ord_dither+0x72>
   195b0: 05 03        	c.addi	t1, 0x1
   195b2: e3 17 a3 fb  	bne	t1, s10, 0x19560 <quantize_ord_dither+0x4c>
   195b6: 05 08        	c.addi	a6, 0x1
   195b8: 13 75 f8 00  	andi	a0, a6, 0xf
   195bc: 85 0a        	c.addi	s5, 0x1
   195be: 23 a6 ac 04  	sw	a0, 0x4c(s9)
   195c2: e3 9d 4a f7  	bne	s5, s4, 0x1953c <quantize_ord_dither+0x28>
   195c6: 6f 60 21 4a  	jal	zero, 0x2fa68 <__riscv_restore_11>
   195ca: 09 a0        	c.j	0x195cc <quantize_ord_dither+0xb8>
   195cc: 82 80        	c.jr	ra

00000000000195ce <quantize_fs_dither>:
   195ce: ef 62 c1 44  	jal	t0, 0x2fa1a <__riscv_save_12>
   195d2: 59 71        	c.addi16sp	sp, -0x70
   195d4: 32 e8        	c.sdsp	a2, 0x10(sp)
   195d6: 2e e4        	c.sdsp	a1, 0x8(sp)
   195d8: 36 ec        	c.sdsp	a3, 0x18(sp)
   195da: 63 5b d0 14  	bge	zero, a3, 0x19730 <quantize_fs_dither+0x162>
   195de: 03 3c 05 26  	ld	s8, 0x260(a0)
   195e2: 83 24 85 08  	lw	s1, 0x88(a0)
   195e6: 03 69 05 08  	lwu	s2, 0x80(a0)
   195ea: 83 3a 85 19  	ld	s5, 0x198(a0)
   195ee: 13 04 f9 ff  	addi	s0, s2, -0x1
   195f2: 22 85        	c.mv	a0, s0
   195f4: a6 85        	c.mv	a1, s1
   195f6: ef 60 a1 49  	jal	ra, 0x2fa90 <__muldi3>
   195fa: 26 88        	c.mv	a6, s1
   195fc: 81 45        	c.li	a1, 0x0
   195fe: 02 15        	c.slli	a0, 0x20
   19600: 01 91        	c.srli	a0, 0x20
   19602: aa e4        	c.sdsp	a0, 0x48(sp)
   19604: 02 14        	c.slli	s0, 0x20
   19606: 01 90        	c.srli	s0, 0x20
   19608: 3b 05 90 40  	subw	a0, zero, s1
   1960c: 2a fc        	c.sdsp	a0, 0x38(sp)
   1960e: ca f4        	c.sdsp	s2, 0x68(sp)
   19610: 13 05 19 00  	addi	a0, s2, 0x1
   19614: 02 15        	c.slli	a0, 0x20
   19616: 01 91        	c.srli	a0, 0x20
   19618: a2 e0        	c.sdsp	s0, 0x40(sp)
   1961a: 05 04        	c.addi	s0, 0x1
   1961c: 22 f8        	c.sdsp	s0, 0x30(sp)
   1961e: 06 05        	c.slli	a0, 0x1
   19620: 2a f4        	c.sdsp	a0, 0x28(sp)
   19622: a6 e8        	c.sdsp	s1, 0x50(sp)
   19624: 2e f0        	c.sdsp	a1, 0x20(sp)
   19626: 13 94 35 00  	slli	s0, a1, 0x3
   1962a: 42 65        	c.ldsp	a0, 0x10(sp)
   1962c: 22 95        	c.add	a0, s0
   1962e: aa f0        	c.sdsp	a0, 0x60(sp)
   19630: 08 61        	c.ld	a0, 0x0(a0)
   19632: a6 75        	c.ldsp	a1, 0x68(sp)
   19634: ef 10 00 6a  	jal	ra, 0x1acd4 <jzero_far>
   19638: 46 68        	c.ldsp	a6, 0x50(sp)
   1963a: 63 50 00 0f  	bge	zero, a6, 0x1971a <quantize_fs_dither+0x14c>
   1963e: 01 49        	c.li	s2, 0x0
   19640: 22 65        	c.ldsp	a0, 0x8(sp)
   19642: 22 95        	c.add	a0, s0
   19644: aa ec        	c.sdsp	a0, 0x58(sp)
   19646: 66 65        	c.ldsp	a0, 0x58(sp)
   19648: 83 3c 05 00  	ld	s9, 0x0(a0)
   1964c: 83 25 0c 09  	lw	a1, 0x90(s8)
   19650: 06 75        	c.ldsp	a0, 0x60(sp)
   19652: 00 61        	c.ld	s0, 0x0(a0)
   19654: ca 9c        	c.add	s9, s2
   19656: 13 15 39 00  	slli	a0, s2, 0x3
   1965a: 91 cd        	c.beqz	a1, 0x19676 <quantize_fs_dither+0xa8>
   1965c: b3 05 ac 00  	add	a1, s8, a0
   19660: 83 b9 05 07  	ld	s3, 0x70(a1)
   19664: a6 65        	c.ldsp	a1, 0x48(sp)
   19666: ae 9c        	c.add	s9, a1
   19668: 86 65        	c.ldsp	a1, 0x40(sp)
   1966a: 2e 94        	c.add	s0, a1
   1966c: a2 75        	c.ldsp	a1, 0x28(sp)
   1966e: ae 99        	c.add	s3, a1
   19670: 7d 5d        	c.li	s10, -0x1
   19672: e2 7b        	c.ldsp	s7, 0x38(sp)
   19674: 39 a0        	c.j	0x19682 <quantize_fs_dither+0xb4>
   19676: b3 05 ac 00  	add	a1, s8, a0
   1967a: 83 b9 05 07  	ld	s3, 0x70(a1)
   1967e: 05 4d        	c.li	s10, 0x1
   19680: c2 8b        	c.mv	s7, a6
   19682: a6 75        	c.ldsp	a1, 0x68(sp)
   19684: d1 c5        	c.beqz	a1, 0x19710 <quantize_fs_dither+0x142>
   19686: 83 35 0c 03  	ld	a1, 0x30(s8)
   1968a: 03 36 0c 02  	ld	a2, 0x20(s8)
   1968e: aa 95        	c.add	a1, a0
   19690: 03 bb 05 00  	ld	s6, 0x0(a1)
   19694: 32 95        	c.add	a0, a2
   19696: 03 3a 05 00  	ld	s4, 0x0(a0)
   1969a: 93 1d 1d 00  	slli	s11, s10, 0x1
   1969e: 42 75        	c.ldsp	a0, 0x30(sp)
   196a0: ea 85        	c.mv	a1, s10
   196a2: ef 60 e1 3e  	jal	ra, 0x2fa90 <__muldi3>
   196a6: 46 68        	c.ldsp	a6, 0x50(sp)
   196a8: 01 47        	c.li	a4, 0x0
   196aa: 01 46        	c.li	a2, 0x0
   196ac: 81 45        	c.li	a1, 0x0
   196ae: 22 95        	c.add	a0, s0
   196b0: ce 86        	c.mv	a3, s3
   196b2: b3 89 b6 01  	add	s3, a3, s11
   196b6: 83 97 09 00  	lh	a5, 0x0(s3)
   196ba: 83 c4 0c 00  	lbu	s1, 0x0(s9)
   196be: 3e 97        	c.add	a4, a5
   196c0: 21 07        	c.addi	a4, 0x8
   196c2: 1b 57 47 40  	sraiw	a4, a4, 0x4
   196c6: d6 94        	c.add	s1, s5
   196c8: 26 97        	c.add	a4, s1
   196ca: 03 47 07 00  	lbu	a4, 0x0(a4)
   196ce: b3 07 eb 00  	add	a5, s6, a4
   196d2: 83 c7 07 00  	lbu	a5, 0x0(a5)
   196d6: 83 44 04 00  	lbu	s1, 0x0(s0)
   196da: be 94        	c.add	s1, a5
   196dc: 23 00 94 00  	sb	s1, 0x0(s0)
   196e0: d2 97        	c.add	a5, s4
   196e2: 83 c7 07 00  	lbu	a5, 0x0(a5)
   196e6: b3 07 f7 40  	sub	a5, a4, a5
   196ea: 13 97 17 00  	slli	a4, a5, 0x1
   196ee: be 95        	c.add	a1, a5
   196f0: ba 95        	c.add	a1, a4
   196f2: 23 90 b6 00  	sh	a1, 0x0(a3)
   196f6: 93 95 27 00  	slli	a1, a5, 0x2
   196fa: 3e 96        	c.add	a2, a5
   196fc: b2 95        	c.add	a1, a2
   196fe: 13 97 37 00  	slli	a4, a5, 0x3
   19702: 1d 8f        	c.sub	a4, a5
   19704: 6a 94        	c.add	s0, s10
   19706: de 9c        	c.add	s9, s7
   19708: ce 86        	c.mv	a3, s3
   1970a: 3e 86        	c.mv	a2, a5
   1970c: e3 13 a4 fa  	bne	s0, a0, 0x196b2 <quantize_fs_dither+0xe4>
   19710: 05 09        	c.addi	s2, 0x1
   19712: 23 90 b9 00  	sh	a1, 0x0(s3)
   19716: e3 18 09 f3  	bne	s2, a6, 0x19646 <quantize_fs_dither+0x78>
   1971a: 03 25 0c 09  	lw	a0, 0x90(s8)
   1971e: 13 35 15 00  	sltiu	a0, a0, 0x1
   19722: 82 75        	c.ldsp	a1, 0x20(sp)
   19724: 85 05        	c.addi	a1, 0x1
   19726: 23 28 ac 08  	sw	a0, 0x90(s8)
   1972a: 62 65        	c.ldsp	a0, 0x18(sp)
   1972c: e3 9c a5 ee  	bne	a1, a0, 0x19624 <quantize_fs_dither+0x56>
   19730: 65 61        	c.addi16sp	sp, 0x70
   19732: 6f 60 21 33  	jal	zero, 0x2fa64 <__riscv_restore_12>

0000000000019736 <jinit_2pass_quantizer>:
   19736: 79 71        	c.addi16sp	sp, -0x30
   19738: 06 f4        	c.sdsp	ra, 0x28(sp)
   1973a: 22 f0        	c.sdsp	s0, 0x20(sp)
   1973c: 26 ec        	c.sdsp	s1, 0x18(sp)
   1973e: 4a e8        	c.sdsp	s2, 0x10(sp)
   19740: 4e e4        	c.sdsp	s3, 0x8(sp)
   19742: 2a 84        	c.mv	s0, a0
   19744: 08 65        	c.ld	a0, 0x8(a0)
   19746: 14 61        	c.ld	a3, 0x0(a0)
   19748: 85 45        	c.li	a1, 0x1
   1974a: 13 06 80 05  	addi	a2, zero, 0x58
   1974e: 22 85        	c.mv	a0, s0
   19750: 82 96        	c.jalr	a3
   19752: aa 89        	c.mv	s3, a0
   19754: 23 30 a4 26  	sd	a0, 0x260(s0)
   19758: 37 a5 01 00  	lui	a0, 0x1a
   1975c: 13 05 e5 85  	addi	a0, a0, -0x7a2
   19760: 23 b0 a9 00  	sd	a0, 0x0(s3)
   19764: 37 a5 01 00  	lui	a0, 0x1a
   19768: 13 05 25 95  	addi	a0, a0, -0x6ae
   1976c: 83 25 84 08  	lw	a1, 0x88(s0)
   19770: 23 bc a9 00  	sd	a0, 0x18(s3)
   19774: 23 b0 09 04  	sd	zero, 0x40(s3)
   19778: 0d 45        	c.li	a0, 0x3
   1977a: 23 b8 09 04  	sd	zero, 0x50(s3)
   1977e: 63 89 a5 00  	beq	a1, a0, 0x19790 <jinit_2pass_quantizer+0x5a>
   19782: 08 60        	c.ld	a0, 0x0(s0)
   19784: 0c 61        	c.ld	a1, 0x0(a0)
   19786: 13 06 e0 02  	addi	a2, zero, 0x2e
   1978a: 10 d5        	c.sw	a2, 0x28(a0)
   1978c: 22 85        	c.mv	a0, s0
   1978e: 82 95        	c.jalr	a1
   19790: 08 64        	c.ld	a0, 0x8(s0)
   19792: 14 61        	c.ld	a3, 0x0(a0)
   19794: 85 45        	c.li	a1, 0x1
   19796: 13 06 00 10  	addi	a2, zero, 0x100
   1979a: 13 09 00 10  	addi	s2, zero, 0x100
   1979e: 22 85        	c.mv	a0, s0
   197a0: 82 96        	c.jalr	a3
   197a2: 81 44        	c.li	s1, 0x0
   197a4: 23 b8 a9 02  	sd	a0, 0x30(s3)
   197a8: 08 64        	c.ld	a0, 0x8(s0)
   197aa: 14 65        	c.ld	a3, 0x8(a0)
   197ac: 85 45        	c.li	a1, 0x1
   197ae: 05 66        	c.lui	a2, 0x1
   197b0: 22 85        	c.mv	a0, s0
   197b2: 82 96        	c.jalr	a3
   197b4: 83 b5 09 03  	ld	a1, 0x30(s3)
   197b8: a6 95        	c.add	a1, s1
   197ba: a1 04        	c.addi	s1, 0x8
   197bc: 88 e1        	c.sd	a0, 0x0(a1)
   197be: e3 95 24 ff  	bne	s1, s2, 0x197a8 <jinit_2pass_quantizer+0x72>
   197c2: 68 5c        	c.lw	a0, 0x7c(s0)
   197c4: 85 45        	c.li	a1, 0x1
   197c6: 23 ac b9 02  	sw	a1, 0x38(s3)
   197ca: 39 c1        	c.beqz	a0, 0x19810 <jinit_2pass_quantizer+0xda>
   197cc: 03 29 04 07  	lw	s2, 0x70(s0)
   197d0: a1 45        	c.li	a1, 0x8
   197d2: 13 05 70 03  	addi	a0, zero, 0x37
   197d6: 63 4a b9 00  	blt	s2, a1, 0x197ea <jinit_2pass_quantizer+0xb4>
   197da: 13 05 10 10  	addi	a0, zero, 0x101
   197de: 63 6d a9 00  	bltu	s2, a0, 0x197f8 <jinit_2pass_quantizer+0xc2>
   197e2: 93 05 00 10  	addi	a1, zero, 0x100
   197e6: 13 05 80 03  	addi	a0, zero, 0x38
   197ea: 10 60        	c.ld	a2, 0x0(s0)
   197ec: 4c d6        	c.sw	a1, 0x2c(a2)
   197ee: 0c 60        	c.ld	a1, 0x0(s0)
   197f0: 8c 61        	c.ld	a1, 0x0(a1)
   197f2: 08 d6        	c.sw	a0, 0x28(a2)
   197f4: 22 85        	c.mv	a0, s0
   197f6: 82 95        	c.jalr	a1
   197f8: 08 64        	c.ld	a0, 0x8(s0)
   197fa: 18 69        	c.ld	a4, 0x10(a0)
   197fc: 85 45        	c.li	a1, 0x1
   197fe: 8d 46        	c.li	a3, 0x3
   19800: 22 85        	c.mv	a0, s0
   19802: 4a 86        	c.mv	a2, s2
   19804: 02 97        	c.jalr	a4
   19806: 23 b0 a9 02  	sd	a0, 0x20(s3)
   1980a: 23 a4 29 03  	sw	s2, 0x28(s3)
   1980e: 19 a0        	c.j	0x19814 <jinit_2pass_quantizer+0xde>
   19810: 23 b0 09 02  	sd	zero, 0x20(s3)
   19814: 28 54        	c.lw	a0, 0x68(s0)
   19816: 0d cd        	c.beqz	a0, 0x19850 <jinit_2pass_quantizer+0x11a>
   19818: 08 64        	c.ld	a0, 0x8(s0)
   1981a: 83 25 04 08  	lw	a1, 0x80(s0)
   1981e: 09 46        	c.li	a2, 0x2
   19820: 30 d4        	c.sw	a2, 0x68(s0)
   19822: 04 65        	c.ld	s1, 0x8(a0)
   19824: 89 05        	c.addi	a1, 0x2
   19826: 13 95 05 02  	slli	a0, a1, 0x20
   1982a: 01 91        	c.srli	a0, 0x20
   1982c: 99 45        	c.li	a1, 0x6
   1982e: ef 60 21 26  	jal	ra, 0x2fa90 <__muldi3>
   19832: 2a 86        	c.mv	a2, a0
   19834: 85 45        	c.li	a1, 0x1
   19836: 22 85        	c.mv	a0, s0
   19838: 82 94        	c.jalr	s1
   1983a: 23 b0 a9 04  	sd	a0, 0x40(s3)
   1983e: 22 85        	c.mv	a0, s0
   19840: a2 70        	c.ldsp	ra, 0x28(sp)
   19842: 02 74        	c.ldsp	s0, 0x20(sp)
   19844: e2 64        	c.ldsp	s1, 0x18(sp)
   19846: 42 69        	c.ldsp	s2, 0x10(sp)
   19848: a2 69        	c.ldsp	s3, 0x8(sp)
   1984a: 45 61        	c.addi16sp	sp, 0x30
   1984c: 6f 00 00 11  	jal	zero, 0x1995c <init_error_limit>
   19850: a2 70        	c.ldsp	ra, 0x28(sp)
   19852: 02 74        	c.ldsp	s0, 0x20(sp)
   19854: e2 64        	c.ldsp	s1, 0x18(sp)
   19856: 42 69        	c.ldsp	s2, 0x10(sp)
   19858: a2 69        	c.ldsp	s3, 0x8(sp)
   1985a: 45 61        	c.addi16sp	sp, 0x30
   1985c: 82 80        	c.jr	ra

000000000001985e <start_pass_2_quant>:
   1985e: ef 62 21 1e  	jal	t0, 0x2fa40 <__riscv_save_5>
   19862: 2a 84        	c.mv	s0, a0
   19864: 83 39 05 26  	ld	s3, 0x260(a0)
   19868: 28 55        	c.lw	a0, 0x68(a0)
   1986a: 83 b4 09 03  	ld	s1, 0x30(s3)
   1986e: 09 c9        	c.beqz	a0, 0x19880 <start_pass_2_quant+0x22>
   19870: 09 45        	c.li	a0, 0x2
   19872: 28 d4        	c.sw	a0, 0x68(s0)
   19874: 99 e5        	c.bnez	a1, 0x19882 <start_pass_2_quant+0x24>
   19876: 37 a5 01 00  	lui	a0, 0x1a
   1987a: 13 05 a5 d7  	addi	a0, a0, -0x286
   1987e: 35 a0        	c.j	0x198aa <start_pass_2_quant+0x4c>
   19880: 8d c1        	c.beqz	a1, 0x198a2 <start_pass_2_quant+0x44>
   19882: 37 a5 01 00  	lui	a0, 0x1a
   19886: 13 05 45 9d  	addi	a0, a0, -0x62c
   1988a: 23 b4 a9 00  	sd	a0, 0x8(s3)
   1988e: 37 a5 01 00  	lui	a0, 0x1a
   19892: 13 05 e5 a4  	addi	a0, a0, -0x5b2
   19896: 23 b8 a9 00  	sd	a0, 0x10(s3)
   1989a: 05 45        	c.li	a0, 0x1
   1989c: 23 ac a9 02  	sw	a0, 0x38(s3)
   198a0: 49 a8        	c.j	0x19932 <start_pass_2_quant+0xd4>
   198a2: 37 a5 01 00  	lui	a0, 0x1a
   198a6: 13 05 a5 fd  	addi	a0, a0, -0x26
   198aa: 23 b4 a9 00  	sd	a0, 0x8(s3)
   198ae: 03 25 44 09  	lw	a0, 0x94(s0)
   198b2: b7 a5 01 00  	lui	a1, 0x1a
   198b6: 93 85 25 07  	addi	a1, a1, 0x72
   198ba: 23 b8 b9 00  	sd	a1, 0x10(s3)
   198be: 63 5b a0 00  	bge	zero, a0, 0x198d4 <start_pass_2_quant+0x76>
   198c2: 93 05 10 10  	addi	a1, zero, 0x101
   198c6: 63 61 b5 02  	bltu	a0, a1, 0x198e8 <start_pass_2_quant+0x8a>
   198ca: 93 05 00 10  	addi	a1, zero, 0x100
   198ce: 13 05 80 03  	addi	a0, zero, 0x38
   198d2: 21 a0        	c.j	0x198da <start_pass_2_quant+0x7c>
   198d4: 85 45        	c.li	a1, 0x1
   198d6: 13 05 70 03  	addi	a0, zero, 0x37
   198da: 10 60        	c.ld	a2, 0x0(s0)
   198dc: 4c d6        	c.sw	a1, 0x2c(a2)
   198de: 0c 60        	c.ld	a1, 0x0(s0)
   198e0: 8c 61        	c.ld	a1, 0x0(a1)
   198e2: 08 d6        	c.sw	a0, 0x28(a2)
   198e4: 22 85        	c.mv	a0, s0
   198e6: 82 95        	c.jalr	a1
   198e8: 28 54        	c.lw	a0, 0x68(s0)
   198ea: 89 45        	c.li	a1, 0x2
   198ec: 63 13 b5 04  	bne	a0, a1, 0x19932 <start_pass_2_quant+0xd4>
   198f0: 03 25 04 08  	lw	a0, 0x80(s0)
   198f4: 09 05        	c.addi	a0, 0x2
   198f6: 02 15        	c.slli	a0, 0x20
   198f8: 01 91        	c.srli	a0, 0x20
   198fa: 99 45        	c.li	a1, 0x6
   198fc: ef 60 41 19  	jal	ra, 0x2fa90 <__muldi3>
   19900: 83 b5 09 04  	ld	a1, 0x40(s3)
   19904: 2a 89        	c.mv	s2, a0
   19906: 91 e9        	c.bnez	a1, 0x1991a <start_pass_2_quant+0xbc>
   19908: 08 64        	c.ld	a0, 0x8(s0)
   1990a: 14 65        	c.ld	a3, 0x8(a0)
   1990c: 85 45        	c.li	a1, 0x1
   1990e: 22 85        	c.mv	a0, s0
   19910: 4a 86        	c.mv	a2, s2
   19912: 82 96        	c.jalr	a3
   19914: aa 85        	c.mv	a1, a0
   19916: 23 b0 a9 04  	sd	a0, 0x40(s3)
   1991a: 2e 85        	c.mv	a0, a1
   1991c: ca 85        	c.mv	a1, s2
   1991e: ef 10 60 3b  	jal	ra, 0x1acd4 <jzero_far>
   19922: 03 b5 09 05  	ld	a0, 0x50(s3)
   19926: 01 e5        	c.bnez	a0, 0x1992e <start_pass_2_quant+0xd0>
   19928: 22 85        	c.mv	a0, s0
   1992a: ef 00 20 03  	jal	ra, 0x1995c <init_error_limit>
   1992e: 23 a4 09 04  	sw	zero, 0x48(s3)
   19932: 03 a5 89 03  	lw	a0, 0x38(s3)
   19936: 01 cd        	c.beqz	a0, 0x1994e <start_pass_2_quant+0xf0>
   19938: 13 84 04 10  	addi	s0, s1, 0x100
   1993c: 88 60        	c.ld	a0, 0x0(s1)
   1993e: 85 65        	c.lui	a1, 0x1
   19940: ef 10 40 39  	jal	ra, 0x1acd4 <jzero_far>
   19944: a1 04        	c.addi	s1, 0x8
   19946: e3 9b 84 fe  	bne	s1, s0, 0x1993c <start_pass_2_quant+0xde>
   1994a: 23 ac 09 02  	sw	zero, 0x38(s3)
   1994e: 6f 60 c1 12  	jal	zero, 0x2fa7a <__riscv_restore_5>

0000000000019952 <new_color_map_2_quant>:
   19952: 03 35 05 26  	ld	a0, 0x260(a0)
   19956: 85 45        	c.li	a1, 0x1
   19958: 0c dd        	c.sw	a1, 0x38(a0)
   1995a: 82 80        	c.jr	ra

000000000001995c <init_error_limit>:
   1995c: ef 62 01 10  	jal	t0, 0x2fa5c <__riscv_save_1>
   19960: 0c 65        	c.ld	a1, 0x8(a0)
   19962: 03 34 05 26  	ld	s0, 0x260(a0)
   19966: 94 61        	c.ld	a3, 0x0(a1)
   19968: 85 45        	c.li	a1, 0x1
   1996a: 13 06 c0 7f  	addi	a2, zero, 0x7fc
   1996e: 82 96        	c.jalr	a3
   19970: 01 46        	c.li	a2, 0x0
   19972: 81 46        	c.li	a3, 0x0
   19974: 13 07 c5 3f  	addi	a4, a0, 0x3fc
   19978: 38 e8        	c.sd	a4, 0x50(s0)
   1997a: 13 08 c5 3b  	addi	a6, a0, 0x3bc
   1997e: ba 87        	c.mv	a5, a4
   19980: 14 c3        	c.sw	a3, 0x0(a4)
   19982: 90 c3        	c.sw	a2, 0x0(a5)
   19984: 85 06        	c.addi	a3, 0x1
   19986: f1 17        	c.addi	a5, -0x4
   19988: 11 07        	c.addi	a4, 0x4
   1998a: 7d 16        	c.addi	a2, -0x1
   1998c: e3 9a 07 ff  	bne	a5, a6, 0x19980 <init_error_limit+0x24>
   19990: 93 06 c5 43  	addi	a3, a0, 0x43c
   19994: 13 06 c5 4b  	addi	a2, a0, 0x4bc
   19998: c1 45        	c.li	a1, 0x10
   1999a: c1 47        	c.li	a5, 0x10
   1999c: 9c c2        	c.sw	a5, 0x0(a3)
   1999e: 3b 04 f0 40  	subw	s0, zero, a5
   199a2: 23 20 88 00  	sw	s0, 0x0(a6)
   199a6: 13 f7 15 00  	andi	a4, a1, 0x1
   199aa: ba 97        	c.add	a5, a4
   199ac: 91 06        	c.addi	a3, 0x4
   199ae: 71 18        	c.addi	a6, -0x4
   199b0: 85 05        	c.addi	a1, 0x1
   199b2: e3 95 c6 fe  	bne	a3, a2, 0x1999c <init_error_limit+0x40>
   199b6: 93 05 c5 33  	addi	a1, a0, 0x33c
   199ba: 13 05 c5 7f  	addi	a0, a0, 0x7fc
   199be: 93 06 00 02  	addi	a3, zero, 0x20
   199c2: 01 57        	c.li	a4, -0x20
   199c4: 14 c2        	c.sw	a3, 0x0(a2)
   199c6: 98 c1        	c.sw	a4, 0x0(a1)
   199c8: 11 06        	c.addi	a2, 0x4
   199ca: f1 15        	c.addi	a1, -0x4
   199cc: e3 1c a6 fe  	bne	a2, a0, 0x199c4 <init_error_limit+0x68>
   199d0: 6f 60 61 0b  	jal	zero, 0x2fa86 <__riscv_restore_1>

00000000000199d4 <prescan_quantize>:
   199d4: 63 5c d0 06  	bge	zero, a3, 0x19a4c <prescan_quantize+0x78>
   199d8: 03 36 05 26  	ld	a2, 0x260(a0)
   199dc: 83 28 05 08  	lw	a7, 0x80(a0)
   199e0: 81 42        	c.li	t0, 0x0
   199e2: 03 33 06 03  	ld	t1, 0x30(a2)
   199e6: 13 85 f8 ff  	addi	a0, a7, -0x1
   199ea: 02 15        	c.slli	a0, 0x20
   199ec: 13 56 05 02  	srli	a2, a0, 0x20
   199f0: 7d 81        	c.srli	a0, 0x1f
   199f2: 32 95        	c.add	a0, a2
   199f4: 13 08 35 00  	addi	a6, a0, 0x3
   199f8: 63 87 08 04  	beq	a7, zero, 0x19a46 <prescan_quantize+0x72>
   199fc: 13 95 32 00  	slli	a0, t0, 0x3
   19a00: 2e 95        	c.add	a0, a1
   19a02: 1c 61        	c.ld	a5, 0x0(a0)
   19a04: b3 83 07 01  	add	t2, a5, a6
   19a08: 03 c5 07 00  	lbu	a0, 0x0(a5)
   19a0c: 13 75 85 0f  	andi	a0, a0, 0xf8
   19a10: 03 c6 17 00  	lbu	a2, 0x1(a5)
   19a14: 1a 95        	c.add	a0, t1
   19a16: 03 c7 27 00  	lbu	a4, 0x2(a5)
   19a1a: 08 61        	c.ld	a0, 0x0(a0)
   19a1c: 09 82        	c.srli	a2, 0x2
   19a1e: 1a 06        	c.slli	a2, 0x6
   19a20: 09 83        	c.srli	a4, 0x2
   19a22: 13 77 e7 03  	andi	a4, a4, 0x3e
   19a26: 3a 96        	c.add	a2, a4
   19a28: 33 0e c5 00  	add	t3, a0, a2
   19a2c: 03 17 0e 00  	lh	a4, 0x0(t3)
   19a30: 13 06 17 00  	addi	a2, a4, 0x1
   19a34: 13 15 06 03  	slli	a0, a2, 0x30
   19a38: 11 c1        	c.beqz	a0, 0x19a3c <prescan_quantize+0x68>
   19a3a: 32 87        	c.mv	a4, a2
   19a3c: 8d 07        	c.addi	a5, 0x3
   19a3e: 23 10 ee 00  	sh	a4, 0x0(t3)
   19a42: e3 93 77 fc  	bne	a5, t2, 0x19a08 <prescan_quantize+0x34>
   19a46: 85 02        	c.addi	t0, 0x1
   19a48: e3 98 d2 fa  	bne	t0, a3, 0x199f8 <prescan_quantize+0x24>
   19a4c: 82 80        	c.jr	ra

0000000000019a4e <finish_pass1>:
   19a4e: ef 52 d1 7c  	jal	t0, 0x2fa1a <__riscv_save_12>
   19a52: 75 71        	c.addi16sp	sp, -0x90
   19a54: aa 84        	c.mv	s1, a0
   19a56: 03 36 05 26  	ld	a2, 0x260(a0)
   19a5a: 08 65        	c.ld	a0, 0x8(a0)
   19a5c: 0c 72        	c.ld	a1, 0x20(a2)
   19a5e: 32 e4        	c.sdsp	a2, 0x8(sp)
   19a60: 00 56        	c.lw	s0, 0x28(a2)
   19a62: 03 39 05 00  	ld	s2, 0x0(a0)
   19a66: cc ec        	c.sd	a1, 0x98(s1)
   19a68: 93 05 80 02  	addi	a1, zero, 0x28
   19a6c: 22 85        	c.mv	a0, s0
   19a6e: ef 60 21 02  	jal	ra, 0x2fa90 <__muldi3>
   19a72: 2a 86        	c.mv	a2, a0
   19a74: 85 45        	c.li	a1, 0x1
   19a76: 85 49        	c.li	s3, 0x1
   19a78: 26 85        	c.mv	a0, s1
   19a7a: 02 99        	c.jalr	s2
   19a7c: aa 8b        	c.mv	s7, a0
   19a7e: 7d 45        	c.li	a0, 0x1f
   19a80: 02 15        	c.slli	a0, 0x20
   19a82: 23 b0 ab 00  	sd	a0, 0x0(s7)
   19a86: 93 05 f0 03  	addi	a1, zero, 0x3f
   19a8a: 82 15        	c.slli	a1, 0x20
   19a8c: 23 b4 bb 00  	sd	a1, 0x8(s7)
   19a90: 23 b8 ab 00  	sd	a0, 0x10(s7)
   19a94: 26 f0        	c.sdsp	s1, 0x20(sp)
   19a96: 26 85        	c.mv	a0, s1
   19a98: de 85        	c.mv	a1, s7
   19a9a: ef 00 a0 5d  	jal	ra, 0x1a074 <update_box>
   19a9e: 5e ec        	c.sdsp	s7, 0x18(sp)
   19aa0: 63 d7 89 14  	bge	s3, s0, 0x19bee <finish_pass1+0x1a0>
   19aa4: 81 4a        	c.li	s5, 0x0
   19aa6: 05 4b        	c.li	s6, 0x1
   19aa8: 22 e5        	c.sdsp	s0, 0x88(sp)
   19aaa: 93 05 80 02  	addi	a1, zero, 0x28
   19aae: 56 85        	c.mv	a0, s5
   19ab0: ef 50 11 7e  	jal	ra, 0x2fa90 <__muldi3>
   19ab4: 5e 95        	c.add	a0, s7
   19ab6: 93 15 1b 00  	slli	a1, s6, 0x1
   19aba: 13 05 85 02  	addi	a0, a0, 0x28
   19abe: 63 72 b4 02  	bgeu	s0, a1, 0x19ae2 <finish_pass1+0x94>
   19ac2: 01 46        	c.li	a2, 0x0
   19ac4: 81 46        	c.li	a3, 0x0
   19ac6: de 85        	c.mv	a1, s7
   19ac8: 98 6d        	c.ld	a4, 0x18(a1)
   19aca: ae 84        	c.mv	s1, a1
   19acc: 63 c4 e6 00  	blt	a3, a4, 0x19ad4 <finish_pass1+0x86>
   19ad0: 36 87        	c.mv	a4, a3
   19ad2: b2 84        	c.mv	s1, a2
   19ad4: 93 85 85 02  	addi	a1, a1, 0x28
   19ad8: 26 86        	c.mv	a2, s1
   19ada: ba 86        	c.mv	a3, a4
   19adc: e3 96 a5 fe  	bne	a1, a0, 0x19ac8 <finish_pass1+0x7a>
   19ae0: 1d a0        	c.j	0x19b06 <finish_pass1+0xb8>
   19ae2: 81 44        	c.li	s1, 0x0
   19ae4: 01 46        	c.li	a2, 0x0
   19ae6: de 85        	c.mv	a1, s7
   19ae8: 94 71        	c.ld	a3, 0x20(a1)
   19aea: 63 5a d6 00  	bge	a2, a3, 0x19afe <finish_pass1+0xb0>
   19aee: 9c 6d        	c.ld	a5, 0x18(a1)
   19af0: 2e 87        	c.mv	a4, a1
   19af2: 63 44 f0 00  	blt	zero, a5, 0x19afa <finish_pass1+0xac>
   19af6: b2 86        	c.mv	a3, a2
   19af8: 26 87        	c.mv	a4, s1
   19afa: 36 86        	c.mv	a2, a3
   19afc: ba 84        	c.mv	s1, a4
   19afe: 93 85 85 02  	addi	a1, a1, 0x28
   19b02: e3 93 a5 fe  	bne	a1, a0, 0x19ae8 <finish_pass1+0x9a>
   19b06: f1 cc        	c.beqz	s1, 0x19be2 <finish_pass1+0x194>
   19b08: 93 05 80 02  	addi	a1, zero, 0x28
   19b0c: 5a 85        	c.mv	a0, s6
   19b0e: ef 50 31 78  	jal	ra, 0x2fa90 <__muldi3>
   19b12: 03 a9 44 00  	lw	s2, 0x4(s1)
   19b16: 83 a9 c4 00  	lw	s3, 0xc(s1)
   19b1a: 33 8a ab 00  	add	s4, s7, a0
   19b1e: 23 22 2a 01  	sw	s2, 0x4(s4)
   19b22: 23 26 3a 01  	sw	s3, 0xc(s4)
   19b26: 83 ac 44 01  	lw	s9, 0x14(s1)
   19b2a: 03 ac 04 00  	lw	s8, 0x0(s1)
   19b2e: 03 ad 84 00  	lw	s10, 0x8(s1)
   19b32: 83 ad 04 01  	lw	s11, 0x10(s1)
   19b36: 23 2a 9a 01  	sw	s9, 0x14(s4)
   19b3a: 23 20 8a 01  	sw	s8, 0x0(s4)
   19b3e: 23 24 aa 01  	sw	s10, 0x8(s4)
   19b42: 23 28 ba 01  	sw	s11, 0x10(s4)
   19b46: 3b 05 89 41  	subw	a0, s2, s8
   19b4a: 9b 1b 45 00  	slliw	s7, a0, 0x4
   19b4e: 33 85 a9 41  	sub	a0, s3, s10
   19b52: b1 45        	c.li	a1, 0xc
   19b54: ef 50 d1 73  	jal	ra, 0x2fa90 <__muldi3>
   19b58: 01 25        	c.addiw	a0, 0x0
   19b5a: 5e 86        	c.mv	a2, s7
   19b5c: 63 43 75 01  	blt	a0, s7, 0x19b62 <finish_pass1+0x114>
   19b60: 2a 86        	c.mv	a2, a0
   19b62: bb 85 bc 41  	subw	a1, s9, s11
   19b66: 9b 96 35 00  	slliw	a3, a1, 0x3
   19b6a: 89 45        	c.li	a1, 0x2
   19b6c: 63 54 d6 00  	bge	a2, a3, 0x19b74 <finish_pass1+0x126>
   19b70: 09 45        	c.li	a0, 0x2
   19b72: 29 a0        	c.j	0x19b7c <finish_pass1+0x12e>
   19b74: 33 25 75 01  	slt	a0, a0, s7
   19b78: 13 45 15 00  	xori	a0, a0, 0x1
   19b7c: e2 6b        	c.ldsp	s7, 0x18(sp)
   19b7e: 63 0f b5 00  	beq	a0, a1, 0x19b9c <finish_pass1+0x14e>
   19b82: 85 45        	c.li	a1, 0x1
   19b84: 63 16 b5 02  	bne	a0, a1, 0x19bb0 <finish_pass1+0x162>
   19b88: 13 05 8a 00  	addi	a0, s4, 0x8
   19b8c: ea 99        	c.add	s3, s10
   19b8e: 9b d5 f9 01  	srliw	a1, s3, 0x1f
   19b92: ce 95        	c.add	a1, s3
   19b94: 9b d5 15 40  	sraiw	a1, a1, 0x1
   19b98: cc c4        	c.sw	a1, 0xc(s1)
   19b9a: 1d a0        	c.j	0x19bc0 <finish_pass1+0x172>
   19b9c: 13 05 0a 01  	addi	a0, s4, 0x10
   19ba0: ee 9c        	c.add	s9, s11
   19ba2: 9b d5 fc 01  	srliw	a1, s9, 0x1f
   19ba6: e6 95        	c.add	a1, s9
   19ba8: 9b d5 15 40  	sraiw	a1, a1, 0x1
   19bac: cc c8        	c.sw	a1, 0x14(s1)
   19bae: 09 a8        	c.j	0x19bc0 <finish_pass1+0x172>
   19bb0: 62 99        	c.add	s2, s8
   19bb2: 1b 55 f9 01  	srliw	a0, s2, 0x1f
   19bb6: 4a 95        	c.add	a0, s2
   19bb8: 9b 55 15 40  	sraiw	a1, a0, 0x1
   19bbc: cc c0        	c.sw	a1, 0x4(s1)
   19bbe: 52 85        	c.mv	a0, s4
   19bc0: 85 05        	c.addi	a1, 0x1
   19bc2: 0c c1        	c.sw	a1, 0x0(a0)
   19bc4: 02 74        	c.ldsp	s0, 0x20(sp)
   19bc6: 22 85        	c.mv	a0, s0
   19bc8: a6 85        	c.mv	a1, s1
   19bca: ef 00 a0 4a  	jal	ra, 0x1a074 <update_box>
   19bce: 22 85        	c.mv	a0, s0
   19bd0: d2 85        	c.mv	a1, s4
   19bd2: ef 00 20 4a  	jal	ra, 0x1a074 <update_box>
   19bd6: 05 0b        	c.addi	s6, 0x1
   19bd8: 85 0a        	c.addi	s5, 0x1
   19bda: 2a 64        	c.ldsp	s0, 0x88(sp)
   19bdc: e3 17 8b ec  	bne	s6, s0, 0x19aaa <finish_pass1+0x5c>
   19be0: 11 a0        	c.j	0x19be4 <finish_pass1+0x196>
   19be2: 5a 84        	c.mv	s0, s6
   19be4: 1b 05 04 00  	addiw	a0, s0, 0x0
   19be8: a2 89        	c.mv	s3, s0
   19bea: 63 55 a0 16  	bge	zero, a0, 0x19d54 <finish_pass1+0x306>
   19bee: 01 44        	c.li	s0, 0x0
   19bf0: 4e e0        	c.sdsp	s3, 0x0(sp)
   19bf2: 81 29        	c.addiw	s3, 0x0
   19bf4: 4e e8        	c.sdsp	s3, 0x10(sp)
   19bf6: 93 05 80 02  	addi	a1, zero, 0x28
   19bfa: 22 85        	c.mv	a0, s0
   19bfc: ef 50 51 69  	jal	ra, 0x2fa90 <__muldi3>
   19c00: 5e 95        	c.add	a0, s7
   19c02: 04 41        	c.lw	s1, 0x0(a0)
   19c04: 83 29 45 00  	lw	s3, 0x4(a0)
   19c08: 22 f4        	c.sdsp	s0, 0x28(sp)
   19c0a: 63 d7 99 00  	bge	s3, s1, 0x19c18 <finish_pass1+0x1ca>
   19c0e: 01 4b        	c.li	s6, 0x0
   19c10: 01 49        	c.li	s2, 0x0
   19c12: 01 4d        	c.li	s10, 0x0
   19c14: 01 4c        	c.li	s8, 0x0
   19c16: fd a0        	c.j	0x19d04 <finish_pass1+0x2b6>
   19c18: 02 75        	c.ldsp	a0, 0x20(sp)
   19c1a: 03 35 05 26  	ld	a0, 0x260(a0)
   19c1e: 08 79        	c.ld	a0, 0x30(a0)
   19c20: 2a f8        	c.sdsp	a0, 0x30(sp)
   19c22: 93 05 80 02  	addi	a1, zero, 0x28
   19c26: 22 85        	c.mv	a0, s0
   19c28: ef 50 91 66  	jal	ra, 0x2fa90 <__muldi3>
   19c2c: 01 4c        	c.li	s8, 0x0
   19c2e: 01 4d        	c.li	s10, 0x0
   19c30: 01 49        	c.li	s2, 0x0
   19c32: 01 4b        	c.li	s6, 0x0
   19c34: 5e 95        	c.add	a0, s7
   19c36: 4c 45        	c.lw	a1, 0xc(a0)
   19c38: 50 49        	c.lw	a2, 0x14(a0)
   19c3a: 03 2a 85 00  	lw	s4, 0x8(a0)
   19c3e: 14 49        	c.lw	a3, 0x10(a0)
   19c40: ae e4        	c.sdsp	a1, 0x48(sp)
   19c42: 85 25        	c.addiw	a1, 0x1
   19c44: ae fc        	c.sdsp	a1, 0x78(sp)
   19c46: 85 29        	c.addiw	s3, 0x1
   19c48: 4e fc        	c.sdsp	s3, 0x38(sp)
   19c4a: 13 15 6a 00  	slli	a0, s4, 0x6
   19c4e: 93 95 16 00  	slli	a1, a3, 0x1
   19c52: ae f4        	c.sdsp	a1, 0x68(sp)
   19c54: 2e 95        	c.add	a0, a1
   19c56: 32 e5        	c.sdsp	a2, 0x88(sp)
   19c58: bb 05 d6 40  	subw	a1, a2, a3
   19c5c: 82 15        	c.slli	a1, 0x20
   19c5e: fd 81        	c.srli	a1, 0x1f
   19c60: 2e 95        	c.add	a0, a1
   19c62: 36 e1        	c.sdsp	a3, 0x80(sp)
   19c64: 93 95 36 00  	slli	a1, a3, 0x3
   19c68: 91 25        	c.addiw	a1, 0x4
   19c6a: ae f0        	c.sdsp	a1, 0x60(sp)
   19c6c: 09 05        	c.addi	a0, 0x2
   19c6e: aa ec        	c.sdsp	a0, 0x58(sp)
   19c70: d2 e0        	c.sdsp	s4, 0x40(sp)
   19c72: 26 65        	c.ldsp	a0, 0x48(sp)
   19c74: a6 e8        	c.sdsp	s1, 0x50(sp)
   19c76: 63 4e 45 07  	blt	a0, s4, 0x19cf2 <finish_pass1+0x2a4>
   19c7a: 13 95 34 00  	slli	a0, s1, 0x3
   19c7e: c2 75        	c.ldsp	a1, 0x30(sp)
   19c80: 2e 95        	c.add	a0, a1
   19c82: 08 61        	c.ld	a0, 0x0(a0)
   19c84: aa f8        	c.sdsp	a0, 0x70(sp)
   19c86: 81 4c        	c.li	s9, 0x0
   19c88: 9b 9a 34 00  	slliw	s5, s1, 0x3
   19c8c: 91 0a        	c.addi	s5, 0x4
   19c8e: 2a 65        	c.ldsp	a0, 0x88(sp)
   19c90: 8a 65        	c.ldsp	a1, 0x80(sp)
   19c92: 63 49 b5 04  	blt	a0, a1, 0x19ce4 <finish_pass1+0x296>
   19c96: 13 95 6c 00  	slli	a0, s9, 0x6
   19c9a: e6 65        	c.ldsp	a1, 0x58(sp)
   19c9c: 2e 95        	c.add	a0, a1
   19c9e: c6 75        	c.ldsp	a1, 0x70(sp)
   19ca0: b3 8d a5 00  	add	s11, a1, a0
   19ca4: 13 15 6a 00  	slli	a0, s4, 0x6
   19ca8: 2e 95        	c.add	a0, a1
   19caa: a6 79        	c.ldsp	s3, 0x68(sp)
   19cac: aa 99        	c.add	s3, a0
   19cae: 9b 1b 2a 00  	slliw	s7, s4, 0x2
   19cb2: 89 0b        	c.addi	s7, 0x2
   19cb4: 06 74        	c.ldsp	s0, 0x60(sp)
   19cb6: 83 d4 09 00  	lhu	s1, 0x0(s3)
   19cba: 8d c0        	c.beqz	s1, 0x19cdc <finish_pass1+0x28e>
   19cbc: 26 9b        	c.add	s6, s1
   19cbe: 26 85        	c.mv	a0, s1
   19cc0: d6 85        	c.mv	a1, s5
   19cc2: ef 50 f1 5c  	jal	ra, 0x2fa90 <__muldi3>
   19cc6: 2a 99        	c.add	s2, a0
   19cc8: 26 85        	c.mv	a0, s1
   19cca: de 85        	c.mv	a1, s7
   19ccc: ef 50 51 5c  	jal	ra, 0x2fa90 <__muldi3>
   19cd0: 2a 9d        	c.add	s10, a0
   19cd2: 26 85        	c.mv	a0, s1
   19cd4: a2 85        	c.mv	a1, s0
   19cd6: ef 50 b1 5b  	jal	ra, 0x2fa90 <__muldi3>
   19cda: 2a 9c        	c.add	s8, a0
   19cdc: 89 09        	c.addi	s3, 0x2
   19cde: 21 24        	c.addiw	s0, 0x8
   19ce0: e3 9b b9 fd  	bne	s3, s11, 0x19cb6 <finish_pass1+0x268>
   19ce4: 1b 05 1a 00  	addiw	a0, s4, 0x1
   19ce8: 05 0a        	c.addi	s4, 0x1
   19cea: 85 0c        	c.addi	s9, 0x1
   19cec: e6 75        	c.ldsp	a1, 0x78(sp)
   19cee: e3 90 a5 fa  	bne	a1, a0, 0x19c8e <finish_pass1+0x240>
   19cf2: c6 65        	c.ldsp	a1, 0x50(sp)
   19cf4: 1b 85 15 00  	addiw	a0, a1, 0x1
   19cf8: 93 84 15 00  	addi	s1, a1, 0x1
   19cfc: 06 6a        	c.ldsp	s4, 0x40(sp)
   19cfe: e2 75        	c.ldsp	a1, 0x38(sp)
   19d00: e3 99 a5 f6  	bne	a1, a0, 0x19c72 <finish_pass1+0x224>
   19d04: 93 59 1b 40  	srai	s3, s6, 0x1
   19d08: 33 05 39 01  	add	a0, s2, s3
   19d0c: da 85        	c.mv	a1, s6
   19d0e: ef 50 31 5c  	jal	ra, 0x2fad0 <__divdi3>
   19d12: 82 74        	c.ldsp	s1, 0x20(sp)
   19d14: cc 6c        	c.ld	a1, 0x98(s1)
   19d16: 8c 61        	c.ld	a1, 0x0(a1)
   19d18: 22 74        	c.ldsp	s0, 0x28(sp)
   19d1a: a2 95        	c.add	a1, s0
   19d1c: 23 80 a5 00  	sb	a0, 0x0(a1)
   19d20: 33 05 3d 01  	add	a0, s10, s3
   19d24: da 85        	c.mv	a1, s6
   19d26: ef 50 b1 5a  	jal	ra, 0x2fad0 <__divdi3>
   19d2a: cc 6c        	c.ld	a1, 0x98(s1)
   19d2c: 8c 65        	c.ld	a1, 0x8(a1)
   19d2e: a2 95        	c.add	a1, s0
   19d30: 23 80 a5 00  	sb	a0, 0x0(a1)
   19d34: 33 05 3c 01  	add	a0, s8, s3
   19d38: da 85        	c.mv	a1, s6
   19d3a: ef 50 71 59  	jal	ra, 0x2fad0 <__divdi3>
   19d3e: cc 6c        	c.ld	a1, 0x98(s1)
   19d40: 8c 69        	c.ld	a1, 0x10(a1)
   19d42: a2 95        	c.add	a1, s0
   19d44: 05 04        	c.addi	s0, 0x1
   19d46: 23 80 a5 00  	sb	a0, 0x0(a1)
   19d4a: e2 6b        	c.ldsp	s7, 0x18(sp)
   19d4c: 42 65        	c.ldsp	a0, 0x10(sp)
   19d4e: e3 14 a4 ea  	bne	s0, a0, 0x19bf6 <finish_pass1+0x1a8>
   19d52: 82 69        	c.ldsp	s3, 0x0(sp)
   19d54: 02 75        	c.ldsp	a0, 0x20(sp)
   19d56: 14 61        	c.ld	a3, 0x0(a0)
   19d58: 23 2a 35 09  	sw	s3, 0x94(a0)
   19d5c: 23 a6 36 03  	sw	s3, 0x2c(a3)
   19d60: 0c 61        	c.ld	a1, 0x0(a0)
   19d62: 90 65        	c.ld	a2, 0x8(a1)
   19d64: 93 05 f0 05  	addi	a1, zero, 0x5f
   19d68: 8c d6        	c.sw	a1, 0x28(a3)
   19d6a: 85 45        	c.li	a1, 0x1
   19d6c: 05 44        	c.li	s0, 0x1
   19d6e: 02 96        	c.jalr	a2
   19d70: 22 65        	c.ldsp	a0, 0x8(sp)
   19d72: 00 dd        	c.sw	s0, 0x38(a0)
   19d74: 49 61        	c.addi16sp	sp, 0x90
   19d76: 6f 50 f1 4e  	jal	zero, 0x2fa64 <__riscv_restore_12>

0000000000019d7a <pass2_fs_dither>:
   19d7a: ef 52 11 4a  	jal	t0, 0x2fa1a <__riscv_save_12>
   19d7e: 31 71        	c.addi16sp	sp, -0xc0
   19d80: 32 fc        	c.sdsp	a2, 0x38(sp)
   19d82: 2e f8        	c.sdsp	a1, 0x30(sp)
   19d84: aa e8        	c.sdsp	a0, 0x50(sp)
   19d86: b6 e0        	c.sdsp	a3, 0x40(sp)
   19d88: 63 56 d0 24  	bge	zero, a3, 0x19fd4 <pass2_fs_dither+0x25a>
   19d8c: c6 65        	c.ldsp	a1, 0x50(sp)
   19d8e: 03 b6 05 26  	ld	a2, 0x260(a1)
   19d92: 81 46        	c.li	a3, 0x0
   19d94: 03 38 06 03  	ld	a6, 0x30(a2)
   19d98: c8 6d        	c.ld	a0, 0x98(a1)
   19d9a: 03 a7 05 08  	lw	a4, 0x80(a1)
   19d9e: 83 b8 85 19  	ld	a7, 0x198(a1)
   19da2: 83 32 06 05  	ld	t0, 0x50(a2)
   19da6: 03 33 05 00  	ld	t1, 0x0(a0)
   19daa: 83 33 85 00  	ld	t2, 0x8(a0)
   19dae: 03 3e 05 01  	ld	t3, 0x10(a0)
   19db2: 13 05 f7 ff  	addi	a0, a4, -0x1
   19db6: 93 15 15 00  	slli	a1, a0, 0x1
   19dba: aa 95        	c.add	a1, a0
   19dbc: 82 15        	c.slli	a1, 0x20
   19dbe: 81 91        	c.srli	a1, 0x20
   19dc0: 2e ec        	c.sdsp	a1, 0x18(sp)
   19dc2: 02 15        	c.slli	a0, 0x20
   19dc4: 93 55 05 02  	srli	a1, a0, 0x20
   19dc8: 13 15 17 00  	slli	a0, a4, 0x1
   19dcc: 3a f0        	c.sdsp	a4, 0x20(sp)
   19dce: 3a 95        	c.add	a0, a4
   19dd0: 0d 05        	c.addi	a0, 0x3
   19dd2: 02 15        	c.slli	a0, 0x20
   19dd4: 01 91        	c.srli	a0, 0x20
   19dd6: 2e e8        	c.sdsp	a1, 0x10(sp)
   19dd8: 85 05        	c.addi	a1, 0x1
   19dda: 2e e4        	c.sdsp	a1, 0x8(sp)
   19ddc: 06 05        	c.slli	a0, 0x1
   19dde: 2a e0        	c.sdsp	a0, 0x0(sp)
   19de0: 32 f4        	c.sdsp	a2, 0x28(sp)
   19de2: 42 e1        	c.sdsp	a6, 0x80(sp)
   19de4: c6 fc        	c.sdsp	a7, 0x78(sp)
   19de6: 96 f8        	c.sdsp	t0, 0x70(sp)
   19de8: 9a f4        	c.sdsp	t1, 0x68(sp)
   19dea: 9e f0        	c.sdsp	t2, 0x60(sp)
   19dec: f2 ec        	c.sdsp	t3, 0x58(sp)
   19dee: 13 95 36 00  	slli	a0, a3, 0x3
   19df2: c2 75        	c.ldsp	a1, 0x30(sp)
   19df4: aa 95        	c.add	a1, a0
   19df6: 83 bb 05 00  	ld	s7, 0x0(a1)
   19dfa: e2 75        	c.ldsp	a1, 0x38(sp)
   19dfc: 2e 95        	c.add	a0, a1
   19dfe: 2c 46        	c.lw	a1, 0x48(a2)
   19e00: 83 3d 05 00  	ld	s11, 0x0(a0)
   19e04: 89 cd        	c.beqz	a1, 0x19e1e <pass2_fs_dither+0xa4>
   19e06: 83 3a 06 04  	ld	s5, 0x40(a2)
   19e0a: 01 45        	c.li	a0, 0x0
   19e0c: e2 65        	c.ldsp	a1, 0x18(sp)
   19e0e: ae 9b        	c.add	s7, a1
   19e10: c2 65        	c.ldsp	a1, 0x10(sp)
   19e12: ae 9d        	c.add	s11, a1
   19e14: 82 65        	c.ldsp	a1, 0x0(sp)
   19e16: ae 9a        	c.add	s5, a1
   19e18: 75 57        	c.li	a4, -0x3
   19e1a: fd 55        	c.li	a1, -0x1
   19e1c: 31 a0        	c.j	0x19e28 <pass2_fs_dither+0xae>
   19e1e: 83 3a 06 04  	ld	s5, 0x40(a2)
   19e22: 0d 47        	c.li	a4, 0x3
   19e24: 05 45        	c.li	a0, 0x1
   19e26: 85 45        	c.li	a1, 0x1
   19e28: b6 e4        	c.sdsp	a3, 0x48(sp)
   19e2a: 28 c6        	c.sw	a0, 0x48(a2)
   19e2c: 02 75        	c.ldsp	a0, 0x20(sp)
   19e2e: 63 04 05 18  	beq	a0, zero, 0x19fb6 <pass2_fs_dither+0x23c>
   19e32: 13 14 17 00  	slli	s0, a4, 0x1
   19e36: 85 0b        	c.addi	s7, 0x1
   19e38: 93 04 24 00  	addi	s1, s0, 0x2
   19e3c: 13 05 44 00  	addi	a0, s0, 0x4
   19e40: 2a f9        	c.sdsp	a0, 0xb0(sp)
   19e42: 22 65        	c.ldsp	a0, 0x8(sp)
   19e44: 3a e9        	c.sdsp	a4, 0x90(sp)
   19e46: 2e e5        	c.sdsp	a1, 0x88(sp)
   19e48: ef 50 91 44  	jal	ra, 0x2fa90 <__muldi3>
   19e4c: a6 80        	c.mv	ra, s1
   19e4e: a2 8f        	c.mv	t6, s0
   19e50: 2a 6f        	c.ldsp	t5, 0x88(sp)
   19e52: ca 6e        	c.ldsp	t4, 0x90(sp)
   19e54: 66 6e        	c.ldsp	t3, 0x58(sp)
   19e56: 86 73        	c.ldsp	t2, 0x60(sp)
   19e58: 26 73        	c.ldsp	t1, 0x68(sp)
   19e5a: c6 72        	c.ldsp	t0, 0x70(sp)
   19e5c: e6 78        	c.ldsp	a7, 0x78(sp)
   19e5e: 0a 68        	c.ldsp	a6, 0x80(sp)
   19e60: 01 46        	c.li	a2, 0x0
   19e62: 81 45        	c.li	a1, 0x0
   19e64: 81 46        	c.li	a3, 0x0
   19e66: 01 4b        	c.li	s6, 0x0
   19e68: 01 4a        	c.li	s4, 0x0
   19e6a: 01 4d        	c.li	s10, 0x0
   19e6c: 01 4c        	c.li	s8, 0x0
   19e6e: 81 49        	c.li	s3, 0x0
   19e70: 81 47        	c.li	a5, 0x0
   19e72: 6e 95        	c.add	a0, s11
   19e74: 2a f5        	c.sdsp	a0, 0xa8(sp)
   19e76: 3e fd        	c.sdsp	a5, 0xb8(sp)
   19e78: 4a 75        	c.ldsp	a0, 0xb0(sp)
   19e7a: 56 95        	c.add	a0, s5
   19e7c: 03 17 c5 ff  	lh	a4, -0x4(a0)
   19e80: 3a 96        	c.add	a2, a4
   19e82: 33 87 1a 00  	add	a4, s5, ra
   19e86: 03 17 07 00  	lh	a4, 0x0(a4)
   19e8a: 21 06        	c.addi	a2, 0x8
   19e8c: 1b 56 46 40  	sraiw	a2, a2, 0x4
   19e90: 03 15 05 00  	lh	a0, 0x0(a0)
   19e94: ba 95        	c.add	a1, a4
   19e96: a1 05        	c.addi	a1, 0x8
   19e98: 9b d5 45 40  	sraiw	a1, a1, 0x4
   19e9c: 36 95        	c.add	a0, a3
   19e9e: 21 05        	c.addi	a0, 0x8
   19ea0: 1b 55 45 40  	sraiw	a0, a0, 0x4
   19ea4: 0a 06        	c.slli	a2, 0x2
   19ea6: 16 96        	c.add	a2, t0
   19ea8: 10 42        	c.lw	a2, 0x0(a2)
   19eaa: 8a 05        	c.slli	a1, 0x2
   19eac: 96 95        	c.add	a1, t0
   19eae: 8c 41        	c.lw	a1, 0x0(a1)
   19eb0: 0a 05        	c.slli	a0, 0x2
   19eb2: 16 95        	c.add	a0, t0
   19eb4: 08 41        	c.lw	a0, 0x0(a0)
   19eb6: 83 c6 fb ff  	lbu	a3, -0x1(s7)
   19eba: 03 c7 0b 00  	lbu	a4, 0x0(s7)
   19ebe: 83 c7 1b 00  	lbu	a5, 0x1(s7)
   19ec2: 35 9e        	c.addw	a2, a3
   19ec4: b9 9d        	c.addw	a1, a4
   19ec6: 3d 9d        	c.addw	a0, a5
   19ec8: 46 96        	c.add	a2, a7
   19eca: 83 4c 06 00  	lbu	s9, 0x0(a2)
   19ece: c6 95        	c.add	a1, a7
   19ed0: 83 c4 05 00  	lbu	s1, 0x0(a1)
   19ed4: 46 95        	c.add	a0, a7
   19ed6: 03 44 05 00  	lbu	s0, 0x0(a0)
   19eda: 13 f5 8c 0f  	andi	a0, s9, 0xf8
   19ede: 42 95        	c.add	a0, a6
   19ee0: 03 39 05 00  	ld	s2, 0x0(a0)
   19ee4: 13 d6 24 00  	srli	a2, s1, 0x2
   19ee8: 93 56 34 00  	srli	a3, s0, 0x3
   19eec: 13 15 66 00  	slli	a0, a2, 0x6
   19ef0: 93 95 16 00  	slli	a1, a3, 0x1
   19ef4: 2e 95        	c.add	a0, a1
   19ef6: 2a 99        	c.add	s2, a0
   19ef8: 03 55 09 00  	lhu	a0, 0x0(s2)
   19efc: 05 e9        	c.bnez	a0, 0x19f2c <pass2_fs_dither+0x1b2>
   19efe: 93 d5 3c 00  	srli	a1, s9, 0x3
   19f02: 46 65        	c.ldsp	a0, 0x50(sp)
   19f04: 4e f1        	c.sdsp	s3, 0xa0(sp)
   19f06: fe 89        	c.mv	s3, t6
   19f08: 62 ed        	c.sdsp	s8, 0x98(sp)
   19f0a: 06 8c        	c.mv	s8, ra
   19f0c: ef 00 20 4a  	jal	ra, 0x1a3ae <fill_inverse_cmap>
   19f10: e2 80        	c.mv	ra, s8
   19f12: 6a 6c        	c.ldsp	s8, 0x98(sp)
   19f14: ce 8f        	c.mv	t6, s3
   19f16: 8a 79        	c.ldsp	s3, 0xa0(sp)
   19f18: 2a 6f        	c.ldsp	t5, 0x88(sp)
   19f1a: ca 6e        	c.ldsp	t4, 0x90(sp)
   19f1c: 66 6e        	c.ldsp	t3, 0x58(sp)
   19f1e: 86 73        	c.ldsp	t2, 0x60(sp)
   19f20: 26 73        	c.ldsp	t1, 0x68(sp)
   19f22: c6 72        	c.ldsp	t0, 0x70(sp)
   19f24: e6 78        	c.ldsp	a7, 0x78(sp)
   19f26: 0a 68        	c.ldsp	a6, 0x80(sp)
   19f28: 03 55 09 00  	lhu	a0, 0x0(s2)
   19f2c: 7d 15        	c.addi	a0, -0x1
   19f2e: 23 80 ad 00  	sb	a0, 0x0(s11)
   19f32: b3 05 a3 00  	add	a1, t1, a0
   19f36: 83 c5 05 00  	lbu	a1, 0x0(a1)
   19f3a: 33 86 a3 00  	add	a2, t2, a0
   19f3e: 03 46 06 00  	lbu	a2, 0x0(a2)
   19f42: 72 95        	c.add	a0, t3
   19f44: 03 45 05 00  	lbu	a0, 0x0(a0)
   19f48: 33 87 bc 40  	sub	a4, s9, a1
   19f4c: 91 8c        	c.sub	s1, a2
   19f4e: 09 8c        	c.sub	s0, a0
   19f50: 13 15 17 00  	slli	a0, a4, 0x1
   19f54: 3a 9c        	c.add	s8, a4
   19f56: 62 95        	c.add	a0, s8
   19f58: 23 90 aa 00  	sh	a0, 0x0(s5)
   19f5c: 13 1c 27 00  	slli	s8, a4, 0x2
   19f60: 3a 9b        	c.add	s6, a4
   19f62: 5a 9c        	c.add	s8, s6
   19f64: 13 16 37 00  	slli	a2, a4, 0x3
   19f68: 19 8e        	c.sub	a2, a4
   19f6a: 13 95 14 00  	slli	a0, s1, 0x1
   19f6e: a6 99        	c.add	s3, s1
   19f70: 4e 95        	c.add	a0, s3
   19f72: 23 91 aa 00  	sh	a0, 0x2(s5)
   19f76: 93 99 24 00  	slli	s3, s1, 0x2
   19f7a: 26 9a        	c.add	s4, s1
   19f7c: d2 99        	c.add	s3, s4
   19f7e: 93 95 34 00  	slli	a1, s1, 0x3
   19f82: 85 8d        	c.sub	a1, s1
   19f84: 13 15 14 00  	slli	a0, s0, 0x1
   19f88: ea 76        	c.ldsp	a3, 0xb8(sp)
   19f8a: a2 96        	c.add	a3, s0
   19f8c: 36 95        	c.add	a0, a3
   19f8e: 23 92 aa 00  	sh	a0, 0x4(s5)
   19f92: 13 15 24 00  	slli	a0, s0, 0x2
   19f96: 22 9d        	c.add	s10, s0
   19f98: b3 07 a5 01  	add	a5, a0, s10
   19f9c: 93 16 34 00  	slli	a3, s0, 0x3
   19fa0: 81 8e        	c.sub	a3, s0
   19fa2: fa 9d        	c.add	s11, t5
   19fa4: fe 9a        	c.add	s5, t6
   19fa6: f6 9b        	c.add	s7, t4
   19fa8: 3a 8b        	c.mv	s6, a4
   19faa: 26 8a        	c.mv	s4, s1
   19fac: 22 8d        	c.mv	s10, s0
   19fae: 2a 75        	c.ldsp	a0, 0xa8(sp)
   19fb0: e3 93 ad ec  	bne	s11, a0, 0x19e76 <pass2_fs_dither+0xfc>
   19fb4: 21 a0        	c.j	0x19fbc <pass2_fs_dither+0x242>
   19fb6: 81 47        	c.li	a5, 0x0
   19fb8: 81 49        	c.li	s3, 0x0
   19fba: 01 4c        	c.li	s8, 0x0
   19fbc: 23 90 8a 01  	sh	s8, 0x0(s5)
   19fc0: 23 91 3a 01  	sh	s3, 0x2(s5)
   19fc4: a6 66        	c.ldsp	a3, 0x48(sp)
   19fc6: 85 06        	c.addi	a3, 0x1
   19fc8: 23 92 fa 00  	sh	a5, 0x4(s5)
   19fcc: 06 65        	c.ldsp	a0, 0x40(sp)
   19fce: 22 76        	c.ldsp	a2, 0x28(sp)
   19fd0: e3 9f a6 e0  	bne	a3, a0, 0x19dee <pass2_fs_dither+0x74>
   19fd4: 29 61        	c.addi16sp	sp, 0xc0
   19fd6: 6f 50 f1 28  	jal	zero, 0x2fa64 <__riscv_restore_12>

0000000000019fda <pass2_no_dither>:
   19fda: 63 5b d0 08  	bge	zero, a3, 0x1a070 <pass2_no_dither+0x96>
   19fde: ef 52 d1 23  	jal	t0, 0x2fa1a <__riscv_save_12>
   19fe2: 36 8a        	c.mv	s4, a3
   19fe4: 32 89        	c.mv	s2, a2
   19fe6: ae 89        	c.mv	s3, a1
   19fe8: 2a 8b        	c.mv	s6, a0
   19fea: 03 35 05 26  	ld	a0, 0x260(a0)
   19fee: 83 2a 0b 08  	lw	s5, 0x80(s6)
   19ff2: 01 4c        	c.li	s8, 0x0
   19ff4: 83 3c 05 03  	ld	s9, 0x30(a0)
   19ff8: 13 85 fa ff  	addi	a0, s5, -0x1
   19ffc: 02 15        	c.slli	a0, 0x20
   19ffe: 01 91        	c.srli	a0, 0x20
   1a000: 93 0b 15 00  	addi	s7, a0, 0x1
   1a004: 63 80 0a 06  	beq	s5, zero, 0x1a064 <pass2_no_dither+0x8a>
   1a008: 13 15 3c 00  	slli	a0, s8, 0x3
   1a00c: b3 05 a9 00  	add	a1, s2, a0
   1a010: 84 61        	c.ld	s1, 0x0(a1)
   1a012: 4e 95        	c.add	a0, s3
   1a014: 00 61        	c.ld	s0, 0x0(a0)
   1a016: 33 8d 74 01  	add	s10, s1, s7
   1a01a: 03 46 14 00  	lbu	a2, 0x1(s0)
   1a01e: 83 46 24 00  	lbu	a3, 0x2(s0)
   1a022: 83 45 04 00  	lbu	a1, 0x0(s0)
   1a026: 09 82        	c.srli	a2, 0x2
   1a028: 8d 82        	c.srli	a3, 0x3
   1a02a: 13 f5 85 0f  	andi	a0, a1, 0xf8
   1a02e: 66 95        	c.add	a0, s9
   1a030: 83 3d 05 00  	ld	s11, 0x0(a0)
   1a034: 13 15 66 00  	slli	a0, a2, 0x6
   1a038: 13 97 16 00  	slli	a4, a3, 0x1
   1a03c: 3a 95        	c.add	a0, a4
   1a03e: aa 9d        	c.add	s11, a0
   1a040: 03 d5 0d 00  	lhu	a0, 0x0(s11)
   1a044: 19 e5        	c.bnez	a0, 0x1a052 <pass2_no_dither+0x78>
   1a046: 8d 81        	c.srli	a1, 0x3
   1a048: 5a 85        	c.mv	a0, s6
   1a04a: ef 00 40 36  	jal	ra, 0x1a3ae <fill_inverse_cmap>
   1a04e: 03 c5 0d 00  	lbu	a0, 0x0(s11)
   1a052: 7d 15        	c.addi	a0, -0x1
   1a054: 93 85 14 00  	addi	a1, s1, 0x1
   1a058: 23 80 a4 00  	sb	a0, 0x0(s1)
   1a05c: 0d 04        	c.addi	s0, 0x3
   1a05e: ae 84        	c.mv	s1, a1
   1a060: e3 9d a5 fb  	bne	a1, s10, 0x1a01a <pass2_no_dither+0x40>
   1a064: 05 0c        	c.addi	s8, 0x1
   1a066: e3 1f 4c f9  	bne	s8, s4, 0x1a004 <pass2_no_dither+0x2a>
   1a06a: 6f 50 b1 1f  	jal	zero, 0x2fa64 <__riscv_restore_12>
   1a06e: 09 a0        	c.j	0x1a070 <pass2_no_dither+0x96>
   1a070: 82 80        	c.jr	ra

000000000001a072 <finish_pass2>:
   1a072: 82 80        	c.jr	ra

000000000001a074 <update_box>:
   1a074: ef 52 71 1a  	jal	t0, 0x2fa1a <__riscv_save_12>
   1a078: 41 11        	c.addi	sp, -0x10
   1a07a: 03 35 05 26  	ld	a0, 0x260(a0)
   1a07e: 2e 8f        	c.mv	t5, a1
   1a080: 83 3f 05 03  	ld	t6, 0x30(a0)
   1a084: 83 a8 05 00  	lw	a7, 0x0(a1)
   1a088: 83 a2 45 00  	lw	t0, 0x4(a1)
   1a08c: 83 a0 c5 00  	lw	ra, 0xc(a1)
   1a090: 03 ad 05 01  	lw	s10, 0x10(a1)
   1a094: 83 ab 45 01  	lw	s7, 0x14(a1)
   1a098: 83 ae 85 00  	lw	t4, 0x8(a1)
   1a09c: 1b 87 10 00  	addiw	a4, ra, 0x1
   1a0a0: 3b 88 ab 41  	subw	a6, s7, s10
   1a0a4: 63 dd 58 04  	bge	a7, t0, 0x1a0fe <update_box+0x8a>
   1a0a8: 1b 83 12 00  	addiw	t1, t0, 0x1
   1a0ac: 93 03 18 00  	addi	t2, a6, 0x1
   1a0b0: 13 14 1d 00  	slli	s0, s10, 0x1
   1a0b4: 46 85        	c.mv	a0, a7
   1a0b6: 63 d8 d0 01  	bge	ra, t4, 0x1a0c6 <update_box+0x52>
   1a0ba: 9b 05 15 00  	addiw	a1, a0, 0x1
   1a0be: 05 05        	c.addi	a0, 0x1
   1a0c0: e3 1b b3 fe  	bne	t1, a1, 0x1a0b6 <update_box+0x42>
   1a0c4: 2d a8        	c.j	0x1a0fe <update_box+0x8a>
   1a0c6: 93 15 35 00  	slli	a1, a0, 0x3
   1a0ca: fe 95        	c.add	a1, t6
   1a0cc: 8c 61        	c.ld	a1, 0x0(a1)
   1a0ce: 76 86        	c.mv	a2, t4
   1a0d0: 63 ce ab 01  	blt	s7, s10, 0x1a0ec <update_box+0x78>
   1a0d4: 93 16 66 00  	slli	a3, a2, 0x6
   1a0d8: ae 96        	c.add	a3, a1
   1a0da: b3 84 86 00  	add	s1, a3, s0
   1a0de: 9e 86        	c.mv	a3, t2
   1a0e0: 83 d7 04 00  	lhu	a5, 0x0(s1)
   1a0e4: 91 eb        	c.bnez	a5, 0x1a0f8 <update_box+0x84>
   1a0e6: fd 36        	c.addiw	a3, -0x1
   1a0e8: 89 04        	c.addi	s1, 0x2
   1a0ea: fd fa        	c.bnez	a3, 0x1a0e0 <update_box+0x6c>
   1a0ec: 9b 06 16 00  	addiw	a3, a2, 0x1
   1a0f0: 05 06        	c.addi	a2, 0x1
   1a0f2: e3 1f d7 fc  	bne	a4, a3, 0x1a0d0 <update_box+0x5c>
   1a0f6: d1 b7        	c.j	0x1a0ba <update_box+0x46>
   1a0f8: 23 20 af 00  	sw	a0, 0x0(t5)
   1a0fc: aa 88        	c.mv	a7, a0
   1a0fe: 1b 8a 08 00  	addiw	s4, a7, 0x0
   1a102: 63 5d 5a 04  	bge	s4, t0, 0x1a15c <update_box+0xe8>
   1a106: 1b 83 08 00  	addiw	t1, a7, 0x0
   1a10a: 93 03 18 00  	addi	t2, a6, 0x1
   1a10e: 13 15 1d 00  	slli	a0, s10, 0x1
   1a112: 96 85        	c.mv	a1, t0
   1a114: ae 87        	c.mv	a5, a1
   1a116: 63 d7 d0 01  	bge	ra, t4, 0x1a124 <update_box+0xb0>
   1a11a: 93 85 f7 ff  	addi	a1, a5, -0x1
   1a11e: e3 4b f3 fe  	blt	t1, a5, 0x1a114 <update_box+0xa0>
   1a122: 2d a8        	c.j	0x1a15c <update_box+0xe8>
   1a124: 93 95 37 00  	slli	a1, a5, 0x3
   1a128: fe 95        	c.add	a1, t6
   1a12a: 80 61        	c.ld	s0, 0x0(a1)
   1a12c: 76 86        	c.mv	a2, t4
   1a12e: 63 ce ab 01  	blt	s7, s10, 0x1a14a <update_box+0xd6>
   1a132: 93 15 66 00  	slli	a1, a2, 0x6
   1a136: a2 95        	c.add	a1, s0
   1a138: b3 86 a5 00  	add	a3, a1, a0
   1a13c: 9e 85        	c.mv	a1, t2
   1a13e: 83 d4 06 00  	lhu	s1, 0x0(a3)
   1a142: 91 e8        	c.bnez	s1, 0x1a156 <update_box+0xe2>
   1a144: fd 35        	c.addiw	a1, -0x1
   1a146: 89 06        	c.addi	a3, 0x2
   1a148: fd f9        	c.bnez	a1, 0x1a13e <update_box+0xca>
   1a14a: 9b 05 16 00  	addiw	a1, a2, 0x1
   1a14e: 05 06        	c.addi	a2, 0x1
   1a150: e3 1f b7 fc  	bne	a4, a1, 0x1a12e <update_box+0xba>
   1a154: d9 b7        	c.j	0x1a11a <update_box+0xa6>
   1a156: 23 22 ff 00  	sw	a5, 0x4(t5)
   1a15a: be 82        	c.mv	t0, a5
   1a15c: 1b 8c 12 00  	addiw	s8, t0, 0x1
   1a160: 1b 8b 02 00  	addiw	s6, t0, 0x0
   1a164: 63 dd 1e 04  	bge	t4, ra, 0x1a1be <update_box+0x14a>
   1a168: 9b 86 08 00  	addiw	a3, a7, 0x0
   1a16c: 13 03 18 00  	addi	t1, a6, 0x1
   1a170: 93 13 1d 00  	slli	t2, s10, 0x1
   1a174: 76 85        	c.mv	a0, t4
   1a176: 63 58 db 00  	bge	s6, a3, 0x1a186 <update_box+0x112>
   1a17a: 9b 05 15 00  	addiw	a1, a0, 0x1
   1a17e: 05 05        	c.addi	a0, 0x1
   1a180: e3 1b b7 fe  	bne	a4, a1, 0x1a176 <update_box+0x102>
   1a184: 2d a8        	c.j	0x1a1be <update_box+0x14a>
   1a186: 93 14 65 00  	slli	s1, a0, 0x6
   1a18a: b6 87        	c.mv	a5, a3
   1a18c: 63 c0 ab 03  	blt	s7, s10, 0x1a1ac <update_box+0x138>
   1a190: 13 96 37 00  	slli	a2, a5, 0x3
   1a194: 7e 96        	c.add	a2, t6
   1a196: 10 62        	c.ld	a2, 0x0(a2)
   1a198: b3 85 74 00  	add	a1, s1, t2
   1a19c: 2e 96        	c.add	a2, a1
   1a19e: 1a 84        	c.mv	s0, t1
   1a1a0: 83 55 06 00  	lhu	a1, 0x0(a2)
   1a1a4: 91 e9        	c.bnez	a1, 0x1a1b8 <update_box+0x144>
   1a1a6: 7d 34        	c.addiw	s0, -0x1
   1a1a8: 09 06        	c.addi	a2, 0x2
   1a1aa: 7d f8        	c.bnez	s0, 0x1a1a0 <update_box+0x12c>
   1a1ac: 9b 85 17 00  	addiw	a1, a5, 0x1
   1a1b0: 85 07        	c.addi	a5, 0x1
   1a1b2: e3 1d bc fc  	bne	s8, a1, 0x1a18c <update_box+0x118>
   1a1b6: d1 b7        	c.j	0x1a17a <update_box+0x106>
   1a1b8: 23 24 af 00  	sw	a0, 0x8(t5)
   1a1bc: aa 8e        	c.mv	t4, a0
   1a1be: 9b 8c 0e 00  	addiw	s9, t4, 0x0
   1a1c2: 63 de 1c 04  	bge	s9, ra, 0x1a21e <update_box+0x1aa>
   1a1c6: 1b 84 08 00  	addiw	s0, a7, 0x0
   1a1ca: 1b 83 0e 00  	addiw	t1, t4, 0x0
   1a1ce: 05 08        	c.addi	a6, 0x1
   1a1d0: 93 15 1d 00  	slli	a1, s10, 0x1
   1a1d4: 06 85        	c.mv	a0, ra
   1a1d6: 2a 87        	c.mv	a4, a0
   1a1d8: 63 57 8b 00  	bge	s6, s0, 0x1a1e6 <update_box+0x172>
   1a1dc: 13 05 f7 ff  	addi	a0, a4, -0x1
   1a1e0: e3 4b e3 fe  	blt	t1, a4, 0x1a1d6 <update_box+0x162>
   1a1e4: 2d a8        	c.j	0x1a21e <update_box+0x1aa>
   1a1e6: 93 17 67 00  	slli	a5, a4, 0x6
   1a1ea: 22 85        	c.mv	a0, s0
   1a1ec: 63 c0 ab 03  	blt	s7, s10, 0x1a20c <update_box+0x198>
   1a1f0: 13 16 35 00  	slli	a2, a0, 0x3
   1a1f4: 7e 96        	c.add	a2, t6
   1a1f6: 10 62        	c.ld	a2, 0x0(a2)
   1a1f8: b3 86 b7 00  	add	a3, a5, a1
   1a1fc: 36 96        	c.add	a2, a3
   1a1fe: c2 86        	c.mv	a3, a6
   1a200: 83 54 06 00  	lhu	s1, 0x0(a2)
   1a204: 91 e8        	c.bnez	s1, 0x1a218 <update_box+0x1a4>
   1a206: fd 36        	c.addiw	a3, -0x1
   1a208: 09 06        	c.addi	a2, 0x2
   1a20a: fd fa        	c.bnez	a3, 0x1a200 <update_box+0x18c>
   1a20c: 1b 06 15 00  	addiw	a2, a0, 0x1
   1a210: 05 05        	c.addi	a0, 0x1
   1a212: e3 1d cc fc  	bne	s8, a2, 0x1a1ec <update_box+0x178>
   1a216: d9 b7        	c.j	0x1a1dc <update_box+0x168>
   1a218: 23 26 ef 00  	sw	a4, 0xc(t5)
   1a21c: ba 80        	c.mv	ra, a4
   1a21e: 3b 8e d0 41  	subw	t3, ra, t4
   1a222: 9b 8d 00 00  	addiw	s11, ra, 0x0
   1a226: 63 52 7d 07  	bge	s10, s7, 0x1a28a <update_box+0x216>
   1a22a: 1b 87 0e 00  	addiw	a4, t4, 0x0
   1a22e: 9b 85 08 00  	addiw	a1, a7, 0x0
   1a232: 1b 88 1b 00  	addiw	a6, s7, 0x1
   1a236: 13 03 1e 00  	addi	t1, t3, 0x1
   1a23a: 93 13 67 00  	slli	t2, a4, 0x6
   1a23e: 6a 85        	c.mv	a0, s10
   1a240: 63 58 bb 00  	bge	s6, a1, 0x1a250 <update_box+0x1dc>
   1a244: 1b 06 15 00  	addiw	a2, a0, 0x1
   1a248: 05 05        	c.addi	a0, 0x1
   1a24a: e3 1b c8 fe  	bne	a6, a2, 0x1a240 <update_box+0x1cc>
   1a24e: 35 a8        	c.j	0x1a28a <update_box+0x216>
   1a250: 13 14 15 00  	slli	s0, a0, 0x1
   1a254: ae 87        	c.mv	a5, a1
   1a256: 63 c1 ed 02  	blt	s11, a4, 0x1a278 <update_box+0x204>
   1a25a: 13 96 37 00  	slli	a2, a5, 0x3
   1a25e: 7e 96        	c.add	a2, t6
   1a260: 10 62        	c.ld	a2, 0x0(a2)
   1a262: b3 86 83 00  	add	a3, t2, s0
   1a266: 36 96        	c.add	a2, a3
   1a268: 9a 86        	c.mv	a3, t1
   1a26a: 83 54 06 00  	lhu	s1, 0x0(a2)
   1a26e: 99 e8        	c.bnez	s1, 0x1a284 <update_box+0x210>
   1a270: fd 36        	c.addiw	a3, -0x1
   1a272: 13 06 06 04  	addi	a2, a2, 0x40
   1a276: f5 fa        	c.bnez	a3, 0x1a26a <update_box+0x1f6>
   1a278: 1b 86 17 00  	addiw	a2, a5, 0x1
   1a27c: 85 07        	c.addi	a5, 0x1
   1a27e: e3 1c cc fc  	bne	s8, a2, 0x1a256 <update_box+0x1e2>
   1a282: c9 b7        	c.j	0x1a244 <update_box+0x1d0>
   1a284: 23 28 af 00  	sw	a0, 0x10(t5)
   1a288: 2a 8d        	c.mv	s10, a0
   1a28a: 9b 09 0d 00  	addiw	s3, s10, 0x0
   1a28e: 7e e4        	c.sdsp	t6, 0x8(sp)
   1a290: 63 df 79 05  	bge	s3, s7, 0x1a2ee <update_box+0x27a>
   1a294: 1b 85 0e 00  	addiw	a0, t4, 0x0
   1a298: 9b 86 08 00  	addiw	a3, a7, 0x0
   1a29c: 05 0e        	c.addi	t3, 0x1
   1a29e: 13 18 65 00  	slli	a6, a0, 0x6
   1a2a2: de 85        	c.mv	a1, s7
   1a2a4: ae 87        	c.mv	a5, a1
   1a2a6: 63 57 db 00  	bge	s6, a3, 0x1a2b4 <update_box+0x240>
   1a2aa: 93 85 f7 ff  	addi	a1, a5, -0x1
   1a2ae: e3 cb f9 fe  	blt	s3, a5, 0x1a2a4 <update_box+0x230>
   1a2b2: 35 a8        	c.j	0x1a2ee <update_box+0x27a>
   1a2b4: 13 94 17 00  	slli	s0, a5, 0x1
   1a2b8: 36 87        	c.mv	a4, a3
   1a2ba: 63 c1 ad 02  	blt	s11, a0, 0x1a2dc <update_box+0x268>
   1a2be: 93 15 37 00  	slli	a1, a4, 0x3
   1a2c2: fe 95        	c.add	a1, t6
   1a2c4: 90 61        	c.ld	a2, 0x0(a1)
   1a2c6: b3 05 88 00  	add	a1, a6, s0
   1a2ca: 2e 96        	c.add	a2, a1
   1a2cc: f2 85        	c.mv	a1, t3
   1a2ce: 83 54 06 00  	lhu	s1, 0x0(a2)
   1a2d2: 99 e8        	c.bnez	s1, 0x1a2e8 <update_box+0x274>
   1a2d4: fd 35        	c.addiw	a1, -0x1
   1a2d6: 13 06 06 04  	addi	a2, a2, 0x40
   1a2da: f5 f9        	c.bnez	a1, 0x1a2ce <update_box+0x25a>
   1a2dc: 9b 05 17 00  	addiw	a1, a4, 0x1
   1a2e0: 05 07        	c.addi	a4, 0x1
   1a2e2: e3 1c bc fc  	bne	s8, a1, 0x1a2ba <update_box+0x246>
   1a2e6: d1 b7        	c.j	0x1a2aa <update_box+0x236>
   1a2e8: 23 2a ff 00  	sw	a5, 0x14(t5)
   1a2ec: be 8b        	c.mv	s7, a5
   1a2ee: fa 84        	c.mv	s1, t5
   1a2f0: 3b 85 12 41  	subw	a0, t0, a7
   1a2f4: 9b 1a 45 00  	slliw	s5, a0, 0x4
   1a2f8: 33 85 d0 41  	sub	a0, ra, t4
   1a2fc: b1 45        	c.li	a1, 0xc
   1a2fe: 06 e0        	c.sdsp	ra, 0x0(sp)
   1a300: ef 50 01 79  	jal	ra, 0x2fa90 <__muldi3>
   1a304: 1b 04 05 00  	addiw	s0, a0, 0x0
   1a308: 3b 89 ab 41  	subw	s2, s7, s10
   1a30c: 1b 1d 39 00  	slliw	s10, s2, 0x3
   1a310: 56 85        	c.mv	a0, s5
   1a312: d6 85        	c.mv	a1, s5
   1a314: ef 50 c1 77  	jal	ra, 0x2fa90 <__muldi3>
   1a318: aa 8a        	c.mv	s5, a0
   1a31a: 22 85        	c.mv	a0, s0
   1a31c: a2 85        	c.mv	a1, s0
   1a31e: ef 50 21 77  	jal	ra, 0x2fa90 <__muldi3>
   1a322: 2a 84        	c.mv	s0, a0
   1a324: 6a 85        	c.mv	a0, s10
   1a326: ea 85        	c.mv	a1, s10
   1a328: ef 50 81 76  	jal	ra, 0x2fa90 <__muldi3>
   1a32c: 56 95        	c.add	a0, s5
   1a32e: 22 95        	c.add	a0, s0
   1a330: 88 ec        	c.sd	a0, 0x18(s1)
   1a332: a6 82        	c.mv	t0, s1
   1a334: 01 44        	c.li	s0, 0x0
   1a336: 63 47 4b 07  	blt	s6, s4, 0x1a3a4 <update_box+0x330>
   1a33a: 93 95 6c 00  	slli	a1, s9, 0x6
   1a33e: 13 98 19 00  	slli	a6, s3, 0x1
   1a342: c2 95        	c.add	a1, a6
   1a344: 02 19        	c.slli	s2, 0x20
   1a346: 13 56 f9 01  	srli	a2, s2, 0x1f
   1a34a: b2 95        	c.add	a1, a2
   1a34c: 02 6b        	c.ldsp	s6, 0x0(sp)
   1a34e: 05 2b        	c.addiw	s6, 0x1
   1a350: 93 88 25 00  	addi	a7, a1, 0x2
   1a354: 81 2b        	c.addiw	s7, 0x0
   1a356: 22 63        	c.ldsp	t1, 0x8(sp)
   1a358: 63 c1 9d 05  	blt	s11, s9, 0x1a39a <update_box+0x326>
   1a35c: 93 15 3a 00  	slli	a1, s4, 0x3
   1a360: 9a 95        	c.add	a1, t1
   1a362: 90 61        	c.ld	a2, 0x0(a1)
   1a364: 01 47        	c.li	a4, 0x0
   1a366: e6 87        	c.mv	a5, s9
   1a368: 63 c3 3b 03  	blt	s7, s3, 0x1a38e <update_box+0x31a>
   1a36c: 93 15 67 00  	slli	a1, a4, 0x6
   1a370: c6 95        	c.add	a1, a7
   1a372: b3 06 b6 00  	add	a3, a2, a1
   1a376: 93 95 67 00  	slli	a1, a5, 0x6
   1a37a: b2 95        	c.add	a1, a2
   1a37c: c2 95        	c.add	a1, a6
   1a37e: 83 d4 05 00  	lhu	s1, 0x0(a1)
   1a382: 33 35 90 00  	sltu	a0, zero, s1
   1a386: 89 05        	c.addi	a1, 0x2
   1a388: 2a 94        	c.add	s0, a0
   1a38a: e3 9a d5 fe  	bne	a1, a3, 0x1a37e <update_box+0x30a>
   1a38e: 1b 85 17 00  	addiw	a0, a5, 0x1
   1a392: 85 07        	c.addi	a5, 0x1
   1a394: 05 07        	c.addi	a4, 0x1
   1a396: e3 19 ab fc  	bne	s6, a0, 0x1a368 <update_box+0x2f4>
   1a39a: 1b 05 1a 00  	addiw	a0, s4, 0x1
   1a39e: 05 0a        	c.addi	s4, 0x1
   1a3a0: e3 1c ac fa  	bne	s8, a0, 0x1a358 <update_box+0x2e4>
   1a3a4: 23 b0 82 02  	sd	s0, 0x20(t0)
   1a3a8: 41 01        	c.addi	sp, 0x10
   1a3aa: 6f 50 a1 6b  	jal	zero, 0x2fa64 <__riscv_restore_12>

000000000001a3ae <fill_inverse_cmap>:
   1a3ae: ef 52 c1 66  	jal	t0, 0x2fa1a <__riscv_save_12>
   1a3b2: 13 01 01 80  	addi	sp, sp, -0x800
   1a3b6: 01 71        	c.addi16sp	sp, -0x200
   1a3b8: aa 87        	c.mv	a5, a0
   1a3ba: 03 35 05 26  	ld	a0, 0x260(a0)
   1a3be: 08 79        	c.ld	a0, 0x30(a0)
   1a3c0: 2a f8        	c.sdsp	a0, 0x30(sp)
   1a3c2: 2e ec        	c.sdsp	a1, 0x18(sp)
   1a3c4: 1b 95 35 00  	slliw	a0, a1, 0x3
   1a3c8: 13 7d 05 fe  	andi	s10, a0, -0x20
   1a3cc: 11 0d        	c.addi	s10, 0x4
   1a3ce: 32 f0        	c.sdsp	a2, 0x20(sp)
   1a3d0: 9b 15 26 00  	slliw	a1, a2, 0x2
   1a3d4: 93 fd 05 fe  	andi	s11, a1, -0x20
   1a3d8: 03 a7 47 09  	lw	a4, 0x94(a5)
   1a3dc: 89 0d        	c.addi	s11, 0x2
   1a3de: 36 f4        	c.sdsp	a3, 0x28(sp)
   1a3e0: 1b 96 36 00  	slliw	a2, a3, 0x3
   1a3e4: 13 79 06 fe  	andi	s2, a2, -0x20
   1a3e8: 11 09        	c.addi	s2, 0x4
   1a3ea: be f8        	c.sdsp	a5, 0x70(sp)
   1a3ec: 63 5b e0 18  	bge	zero, a4, 0x1a582 <fill_inverse_cmap+0x1d4>
   1a3f0: 13 64 c5 01  	ori	s0, a0, 0x1c
   1a3f4: 33 05 8d 00  	add	a0, s10, s0
   1a3f8: 1b 55 15 00  	srliw	a0, a0, 0x1
   1a3fc: aa e4        	c.sdsp	a0, 0x48(sp)
   1a3fe: 93 e9 e5 01  	ori	s3, a1, 0x1e
   1a402: 33 85 3d 01  	add	a0, s11, s3
   1a406: 1b 55 15 00  	srliw	a0, a0, 0x1
   1a40a: aa e0        	c.sdsp	a0, 0x40(sp)
   1a40c: c8 6f        	c.ld	a0, 0x98(a5)
   1a40e: 93 65 c6 01  	ori	a1, a2, 0x1c
   1a412: ae ec        	c.sdsp	a1, 0x58(sp)
   1a414: ca 95        	c.add	a1, s2
   1a416: 9b d5 15 00  	srliw	a1, a1, 0x1
   1a41a: 2e fc        	c.sdsp	a1, 0x38(sp)
   1a41c: 83 3a 05 00  	ld	s5, 0x0(a0)
   1a420: 83 3c 85 00  	ld	s9, 0x8(a0)
   1a424: 83 3b 05 01  	ld	s7, 0x10(a0)
   1a428: 3a e8        	c.sdsp	a4, 0x10(sp)
   1a42a: 13 15 37 00  	slli	a0, a4, 0x3
   1a42e: 13 0c 01 20  	addi	s8, sp, 0x200
   1a432: 62 95        	c.add	a0, s8
   1a434: aa e8        	c.sdsp	a0, 0x50(sp)
   1a436: 37 0a 00 80  	lui	s4, 0x80000
   1a43a: 7d 3a        	c.addiw	s4, -0x1
   1a43c: a2 f4        	c.sdsp	s0, 0x68(sp)
   1a43e: ea fc        	c.sdsp	s10, 0x78(sp)
   1a440: ce f0        	c.sdsp	s3, 0x60(sp)
   1a442: 83 c4 0a 00  	lbu	s1, 0x0(s5)
   1a446: 63 dd a4 01  	bge	s1, s10, 0x1a460 <fill_inverse_cmap+0xb2>
   1a44a: 3b 85 a4 41  	subw	a0, s1, s10
   1a44e: 1b 15 15 00  	slliw	a0, a0, 0x1
   1a452: aa 85        	c.mv	a1, a0
   1a454: ef 50 c1 63  	jal	ra, 0x2fa90 <__muldi3>
   1a458: 2a 8d        	c.mv	s10, a0
   1a45a: 3b 85 84 40  	subw	a0, s1, s0
   1a45e: 31 a8        	c.j	0x1a47a <fill_inverse_cmap+0xcc>
   1a460: 63 54 94 02  	bge	s0, s1, 0x1a488 <fill_inverse_cmap+0xda>
   1a464: 3b 85 84 40  	subw	a0, s1, s0
   1a468: 1b 15 15 00  	slliw	a0, a0, 0x1
   1a46c: aa 85        	c.mv	a1, a0
   1a46e: ef 50 21 62  	jal	ra, 0x2fa90 <__muldi3>
   1a472: 2a 8d        	c.mv	s10, a0
   1a474: 66 75        	c.ldsp	a0, 0x78(sp)
   1a476: 3b 85 a4 40  	subw	a0, s1, a0
   1a47a: 1b 15 15 00  	slliw	a0, a0, 0x1
   1a47e: aa 85        	c.mv	a1, a0
   1a480: ef 50 01 61  	jal	ra, 0x2fa90 <__muldi3>
   1a484: 2a 8b        	c.mv	s6, a0
   1a486: 0d a0        	c.j	0x1a4a8 <fill_inverse_cmap+0xfa>
   1a488: 26 65        	c.ldsp	a0, 0x48(sp)
   1a48a: 63 76 95 00  	bgeu	a0, s1, 0x1a496 <fill_inverse_cmap+0xe8>
   1a48e: 66 75        	c.ldsp	a0, 0x78(sp)
   1a490: 3b 85 a4 40  	subw	a0, s1, a0
   1a494: 19 a0        	c.j	0x1a49a <fill_inverse_cmap+0xec>
   1a496: 3b 85 84 40  	subw	a0, s1, s0
   1a49a: 1b 15 15 00  	slliw	a0, a0, 0x1
   1a49e: aa 85        	c.mv	a1, a0
   1a4a0: ef 50 01 5f  	jal	ra, 0x2fa90 <__muldi3>
   1a4a4: 2a 8b        	c.mv	s6, a0
   1a4a6: 01 4d        	c.li	s10, 0x0
   1a4a8: 83 c4 0c 00  	lbu	s1, 0x0(s9)
   1a4ac: 63 de b4 01  	bge	s1, s11, 0x1a4c8 <fill_inverse_cmap+0x11a>
   1a4b0: 3b 85 b4 41  	subw	a0, s1, s11
   1a4b4: 93 15 15 00  	slli	a1, a0, 0x1
   1a4b8: 2d 9d        	c.addw	a0, a1
   1a4ba: aa 85        	c.mv	a1, a0
   1a4bc: ef 50 41 5d  	jal	ra, 0x2fa90 <__muldi3>
   1a4c0: 2a 9d        	c.add	s10, a0
   1a4c2: 3b 85 34 41  	subw	a0, s1, s3
   1a4c6: 15 a0        	c.j	0x1a4ea <fill_inverse_cmap+0x13c>
   1a4c8: 63 dc 99 00  	bge	s3, s1, 0x1a4e0 <fill_inverse_cmap+0x132>
   1a4cc: 3b 85 34 41  	subw	a0, s1, s3
   1a4d0: 93 15 15 00  	slli	a1, a0, 0x1
   1a4d4: 2d 9d        	c.addw	a0, a1
   1a4d6: aa 85        	c.mv	a1, a0
   1a4d8: ef 50 81 5b  	jal	ra, 0x2fa90 <__muldi3>
   1a4dc: 2a 9d        	c.add	s10, a0
   1a4de: 21 a0        	c.j	0x1a4e6 <fill_inverse_cmap+0x138>
   1a4e0: 06 65        	c.ldsp	a0, 0x40(sp)
   1a4e2: e3 70 95 fe  	bgeu	a0, s1, 0x1a4c2 <fill_inverse_cmap+0x114>
   1a4e6: 3b 85 b4 41  	subw	a0, s1, s11
   1a4ea: 93 15 15 00  	slli	a1, a0, 0x1
   1a4ee: 2d 9d        	c.addw	a0, a1
   1a4f0: aa 85        	c.mv	a1, a0
   1a4f2: ef 50 e1 59  	jal	ra, 0x2fa90 <__muldi3>
   1a4f6: aa 84        	c.mv	s1, a0
   1a4f8: 83 c9 0b 00  	lbu	s3, 0x0(s7)
   1a4fc: 63 dc 29 01  	bge	s3, s2, 0x1a514 <fill_inverse_cmap+0x166>
   1a500: 3b 85 29 41  	subw	a0, s3, s2
   1a504: aa 85        	c.mv	a1, a0
   1a506: ef 50 a1 58  	jal	ra, 0x2fa90 <__muldi3>
   1a50a: 2a 9d        	c.add	s10, a0
   1a50c: 66 65        	c.ldsp	a0, 0x58(sp)
   1a50e: 3b 85 a9 40  	subw	a0, s3, a0
   1a512: 05 a0        	c.j	0x1a532 <fill_inverse_cmap+0x184>
   1a514: 66 65        	c.ldsp	a0, 0x58(sp)
   1a516: 63 59 35 01  	bge	a0, s3, 0x1a528 <fill_inverse_cmap+0x17a>
   1a51a: 3b 85 a9 40  	subw	a0, s3, a0
   1a51e: aa 85        	c.mv	a1, a0
   1a520: ef 50 01 57  	jal	ra, 0x2fa90 <__muldi3>
   1a524: 2a 9d        	c.add	s10, a0
   1a526: 21 a0        	c.j	0x1a52e <fill_inverse_cmap+0x180>
   1a528: e2 75        	c.ldsp	a1, 0x38(sp)
   1a52a: e3 f2 35 ff  	bgeu	a1, s3, 0x1a50e <fill_inverse_cmap+0x160>
   1a52e: 3b 85 29 41  	subw	a0, s3, s2
   1a532: aa 85        	c.mv	a1, a0
   1a534: ef 50 c1 55  	jal	ra, 0x2fa90 <__muldi3>
   1a538: da 94        	c.add	s1, s6
   1a53a: 26 95        	c.add	a0, s1
   1a53c: 23 30 ac 01  	sd	s10, 0x0(s8)
   1a540: 26 74        	c.ldsp	s0, 0x68(sp)
   1a542: 86 79        	c.ldsp	s3, 0x60(sp)
   1a544: 63 43 45 01  	blt	a0, s4, 0x1a54a <fill_inverse_cmap+0x19c>
   1a548: 52 85        	c.mv	a0, s4
   1a54a: 21 0c        	c.addi	s8, 0x8
   1a54c: 85 0b        	c.addi	s7, 0x1
   1a54e: 85 0c        	c.addi	s9, 0x1
   1a550: 85 0a        	c.addi	s5, 0x1
   1a552: 2a 8a        	c.mv	s4, a0
   1a554: 66 7d        	c.ldsp	s10, 0x78(sp)
   1a556: c6 65        	c.ldsp	a1, 0x50(sp)
   1a558: e3 15 bc ee  	bne	s8, a1, 0x1a442 <fill_inverse_cmap+0x94>
   1a55c: 81 45        	c.li	a1, 0x0
   1a55e: 81 49        	c.li	s3, 0x0
   1a560: 10 04        	c.addi4spn	a2, sp, 0x200
   1a562: 14 02        	c.addi4spn	a3, sp, 0x100
   1a564: c6 77        	c.ldsp	a5, 0x70(sp)
   1a566: c2 64        	c.ldsp	s1, 0x10(sp)
   1a568: 18 62        	c.ld	a4, 0x0(a2)
   1a56a: 63 47 e5 00  	blt	a0, a4, 0x1a578 <fill_inverse_cmap+0x1ca>
   1a56e: 33 87 36 01  	add	a4, a3, s3
   1a572: 85 29        	c.addiw	s3, 0x1
   1a574: 23 00 b7 00  	sb	a1, 0x0(a4)
   1a578: 85 05        	c.addi	a1, 0x1
   1a57a: 21 06        	c.addi	a2, 0x8
   1a57c: e3 96 b4 fe  	bne	s1, a1, 0x1a568 <fill_inverse_cmap+0x1ba>
   1a580: 11 a0        	c.j	0x1a584 <fill_inverse_cmap+0x1d6>
   1a582: 81 49        	c.li	s3, 0x0
   1a584: 0c 04        	c.addi4spn	a1, sp, 0x200
   1a586: 13 05 01 60  	addi	a0, sp, 0x600
   1a58a: 37 06 00 80  	lui	a2, 0x80000
   1a58e: 7d 36        	c.addiw	a2, -0x1
   1a590: 93 86 85 00  	addi	a3, a1, 0x8
   1a594: 90 e1        	c.sd	a2, 0x0(a1)
   1a596: b6 85        	c.mv	a1, a3
   1a598: e3 9c a6 fe  	bne	a3, a0, 0x1a590 <fill_inverse_cmap+0x1e2>
   1a59c: 63 57 30 0d  	bge	zero, s3, 0x1a66a <fill_inverse_cmap+0x2bc>
   1a5a0: 01 4a        	c.li	s4, 0x0
   1a5a2: c0 6f        	c.ld	s0, 0x98(a5)
   1a5a4: 08 02        	c.addi4spn	a0, sp, 0x100
   1a5a6: 52 95        	c.add	a0, s4
   1a5a8: 83 44 05 00  	lbu	s1, 0x0(a0)
   1a5ac: 08 60        	c.ld	a0, 0x0(s0)
   1a5ae: 26 95        	c.add	a0, s1
   1a5b0: 03 45 05 00  	lbu	a0, 0x0(a0)
   1a5b4: 3b 05 ad 40  	subw	a0, s10, a0
   1a5b8: 1b 1c 15 00  	slliw	s8, a0, 0x1
   1a5bc: 62 85        	c.mv	a0, s8
   1a5be: e2 85        	c.mv	a1, s8
   1a5c0: ef 50 01 4d  	jal	ra, 0x2fa90 <__muldi3>
   1a5c4: 0c 64        	c.ld	a1, 0x8(s0)
   1a5c6: a6 95        	c.add	a1, s1
   1a5c8: 83 c5 05 00  	lbu	a1, 0x0(a1)
   1a5cc: 2a 8b        	c.mv	s6, a0
   1a5ce: 3b 85 bd 40  	subw	a0, s11, a1
   1a5d2: 93 15 15 00  	slli	a1, a0, 0x1
   1a5d6: bb 8c a5 00  	addw	s9, a1, a0
   1a5da: 66 85        	c.mv	a0, s9
   1a5dc: e6 85        	c.mv	a1, s9
   1a5de: ef 50 21 4b  	jal	ra, 0x2fa90 <__muldi3>
   1a5e2: 0c 68        	c.ld	a1, 0x10(s0)
   1a5e4: a6 95        	c.add	a1, s1
   1a5e6: 83 c5 05 00  	lbu	a1, 0x0(a1)
   1a5ea: aa 8b        	c.mv	s7, a0
   1a5ec: bb 0a b9 40  	subw	s5, s2, a1
   1a5f0: 56 85        	c.mv	a0, s5
   1a5f2: d6 85        	c.mv	a1, s5
   1a5f4: ef 50 c1 49  	jal	ra, 0x2fa90 <__muldi3>
   1a5f8: 5a 95        	c.add	a0, s6
   1a5fa: aa 9b        	c.add	s7, a0
   1a5fc: 16 0c        	c.slli	s8, 0x5
   1a5fe: 13 0b 0c 10  	addi	s6, s8, 0x100
   1a602: e1 45        	c.li	a1, 0x18
   1a604: 66 85        	c.mv	a0, s9
   1a606: ef 50 a1 48  	jal	ra, 0x2fa90 <__muldi3>
   1a60a: 13 08 05 09  	addi	a6, a0, 0x90
   1a60e: 92 0a        	c.slli	s5, 0x4
   1a610: 93 82 0a 04  	addi	t0, s5, 0x40
   1a614: 10 04        	c.addi4spn	a2, sp, 0x200
   1a616: 14 01        	c.addi4spn	a3, sp, 0x80
   1a618: 0d 45        	c.li	a0, 0x3
   1a61a: aa 88        	c.mv	a7, a0
   1a61c: 9d 45        	c.li	a1, 0x7
   1a61e: c2 83        	c.mv	t2, a6
   1a620: 5e 85        	c.mv	a0, s7
   1a622: 2e 83        	c.mv	t1, a1
   1a624: 13 04 06 02  	addi	s0, a2, 0x20
   1a628: 96 85        	c.mv	a1, t0
   1a62a: aa 87        	c.mv	a5, a0
   1a62c: 18 62        	c.ld	a4, 0x0(a2)
   1a62e: 63 d5 e7 00  	bge	a5, a4, 0x1a638 <fill_inverse_cmap+0x28a>
   1a632: 1c e2        	c.sd	a5, 0x0(a2)
   1a634: 23 80 96 00  	sb	s1, 0x0(a3)
   1a638: ae 97        	c.add	a5, a1
   1a63a: 93 85 05 08  	addi	a1, a1, 0x80
   1a63e: 21 06        	c.addi	a2, 0x8
   1a640: 85 06        	c.addi	a3, 0x1
   1a642: e3 15 86 fe  	bne	a2, s0, 0x1a62c <fill_inverse_cmap+0x27e>
   1a646: 1e 95        	c.add	a0, t2
   1a648: 93 83 03 12  	addi	t2, t2, 0x120
   1a64c: 9b 05 f3 ff  	addiw	a1, t1, -0x1
   1a650: e3 19 03 fc  	bne	t1, zero, 0x1a622 <fill_inverse_cmap+0x274>
   1a654: da 9b        	c.add	s7, s6
   1a656: 13 0b 0b 20  	addi	s6, s6, 0x200
   1a65a: 1b 85 f8 ff  	addiw	a0, a7, -0x1
   1a65e: e3 9e 08 fa  	bne	a7, zero, 0x1a61a <fill_inverse_cmap+0x26c>
   1a662: 05 0a        	c.addi	s4, 0x1
   1a664: c6 77        	c.ldsp	a5, 0x70(sp)
   1a666: e3 1e 3a f3  	bne	s4, s3, 0x1a5a2 <fill_inverse_cmap+0x1f4>
   1a66a: 81 42        	c.li	t0, 0x0
   1a66c: 62 65        	c.ldsp	a0, 0x18(sp)
   1a66e: 93 78 c5 ff  	andi	a7, a0, -0x4
   1a672: 02 76        	c.ldsp	a2, 0x20(sp)
   1a674: 61 9a        	c.andi	a2, -0x8
   1a676: 22 75        	c.ldsp	a0, 0x28(sp)
   1a678: 71 99        	c.andi	a0, -0x4
   1a67a: 04 01        	c.addi4spn	s1, sp, 0x80
   1a67c: 06 05        	c.slli	a0, 0x1
   1a67e: 21 43        	c.li	t1, 0x8
   1a680: 11 48        	c.li	a6, 0x4
   1a682: c2 73        	c.ldsp	t2, 0x30(sp)
   1a684: b3 e5 12 01  	or	a1, t0, a7
   1a688: 8e 05        	c.slli	a1, 0x3
   1a68a: 9e 95        	c.add	a1, t2
   1a68c: 80 61        	c.ld	s0, 0x0(a1)
   1a68e: 81 47        	c.li	a5, 0x0
   1a690: b3 e5 c7 00  	or	a1, a5, a2
   1a694: 9a 05        	c.slli	a1, 0x6
   1a696: a2 95        	c.add	a1, s0
   1a698: b3 86 a5 00  	add	a3, a1, a0
   1a69c: 91 45        	c.li	a1, 0x4
   1a69e: 03 c7 04 00  	lbu	a4, 0x0(s1)
   1a6a2: 05 07        	c.addi	a4, 0x1
   1a6a4: 23 90 e6 00  	sh	a4, 0x0(a3)
   1a6a8: 89 06        	c.addi	a3, 0x2
   1a6aa: fd 15        	c.addi	a1, -0x1
   1a6ac: 85 04        	c.addi	s1, 0x1
   1a6ae: e5 f9        	c.bnez	a1, 0x1a69e <fill_inverse_cmap+0x2f0>
   1a6b0: 85 07        	c.addi	a5, 0x1
   1a6b2: e3 9f 67 fc  	bne	a5, t1, 0x1a690 <fill_inverse_cmap+0x2e2>
   1a6b6: 85 02        	c.addi	t0, 0x1
   1a6b8: e3 96 02 fd  	bne	t0, a6, 0x1a684 <fill_inverse_cmap+0x2d6>
   1a6bc: 13 01 01 7f  	addi	sp, sp, 0x7f0
   1a6c0: 13 01 01 21  	addi	sp, sp, 0x210
   1a6c4: 6f 50 01 3a  	jal	zero, 0x2fa64 <__riscv_restore_12>

000000000001a6c8 <jinit_merged_upsampler>:
   1a6c8: ef 52 21 38  	jal	t0, 0x2fa4a <__riscv_save_3>
   1a6cc: 2a 84        	c.mv	s0, a0
   1a6ce: 08 65        	c.ld	a0, 0x8(a0)
   1a6d0: 14 61        	c.ld	a3, 0x0(a0)
   1a6d2: 85 45        	c.li	a1, 0x1
   1a6d4: 13 06 80 05  	addi	a2, zero, 0x58
   1a6d8: 22 85        	c.mv	a0, s0
   1a6da: 82 96        	c.jalr	a3
   1a6dc: aa 84        	c.mv	s1, a0
   1a6de: 37 a5 01 00  	lui	a0, 0x1a
   1a6e2: 13 06 65 7f  	addi	a2, a0, 0x7f6
   1a6e6: 83 25 04 08  	lw	a1, 0x80(s0)
   1a6ea: 03 25 84 08  	lw	a0, 0x88(s0)
   1a6ee: 90 e0        	c.sd	a2, 0x0(s1)
   1a6f0: 23 38 94 24  	sd	s1, 0x250(s0)
   1a6f4: 23 a8 04 00  	sw	zero, 0x10(s1)
   1a6f8: ef 50 81 39  	jal	ra, 0x2fa90 <__muldi3>
   1a6fc: 83 25 84 18  	lw	a1, 0x188(s0)
   1a700: 09 46        	c.li	a2, 0x2
   1a702: e8 c4        	c.sw	a0, 0x4c(s1)
   1a704: 63 95 c5 02  	bne	a1, a2, 0x1a72e <jinit_merged_upsampler+0x66>
   1a708: b7 b5 01 00  	lui	a1, 0x1b
   1a70c: 93 85 65 80  	addi	a1, a1, -0x7fa
   1a710: 10 64        	c.ld	a2, 0x8(s0)
   1a712: 8c e4        	c.sd	a1, 0x8(s1)
   1a714: b7 b5 01 00  	lui	a1, 0x1b
   1a718: 93 85 65 8a  	addi	a1, a1, -0x75a
   1a71c: 14 66        	c.ld	a3, 0x8(a2)
   1a71e: 8c ec        	c.sd	a1, 0x18(s1)
   1a720: 02 15        	c.slli	a0, 0x20
   1a722: 13 56 05 02  	srli	a2, a0, 0x20
   1a726: 85 45        	c.li	a1, 0x1
   1a728: 22 85        	c.mv	a0, s0
   1a72a: 82 96        	c.jalr	a3
   1a72c: 21 a8        	c.j	0x1a744 <jinit_merged_upsampler+0x7c>
   1a72e: 01 45        	c.li	a0, 0x0
   1a730: b7 b5 01 00  	lui	a1, 0x1b
   1a734: 93 85 45 a8  	addi	a1, a1, -0x57c
   1a738: 8c e4        	c.sd	a1, 0x8(s1)
   1a73a: b7 b5 01 00  	lui	a1, 0x1b
   1a73e: 93 85 25 ab  	addi	a1, a1, -0x54e
   1a742: 8c ec        	c.sd	a1, 0x18(s1)
   1a744: a8 e0        	c.sd	a0, 0x40(s1)
   1a746: 08 64        	c.ld	a0, 0x8(s0)
   1a748: 83 34 04 25  	ld	s1, 0x250(s0)
   1a74c: 14 61        	c.ld	a3, 0x0(a0)
   1a74e: 85 45        	c.li	a1, 0x1
   1a750: 13 06 00 40  	addi	a2, zero, 0x400
   1a754: 05 49        	c.li	s2, 0x1
   1a756: 22 85        	c.mv	a0, s0
   1a758: 82 96        	c.jalr	a3
   1a75a: 0c 64        	c.ld	a1, 0x8(s0)
   1a75c: 94 61        	c.ld	a3, 0x0(a1)
   1a75e: 88 f0        	c.sd	a0, 0x20(s1)
   1a760: 85 45        	c.li	a1, 0x1
   1a762: 13 06 00 40  	addi	a2, zero, 0x400
   1a766: 22 85        	c.mv	a0, s0
   1a768: 82 96        	c.jalr	a3
   1a76a: 0c 64        	c.ld	a1, 0x8(s0)
   1a76c: 94 61        	c.ld	a3, 0x0(a1)
   1a76e: 88 f4        	c.sd	a0, 0x28(s1)
   1a770: 2e 09        	c.slli	s2, 0xb
   1a772: 85 45        	c.li	a1, 0x1
   1a774: 22 85        	c.mv	a0, s0
   1a776: 4a 86        	c.mv	a2, s2
   1a778: 82 96        	c.jalr	a3
   1a77a: 0c 64        	c.ld	a1, 0x8(s0)
   1a77c: 94 61        	c.ld	a3, 0x0(a1)
   1a77e: 88 f8        	c.sd	a0, 0x30(s1)
   1a780: 85 45        	c.li	a1, 0x1
   1a782: 22 85        	c.mv	a0, s0
   1a784: 4a 86        	c.mv	a2, s2
   1a786: 82 96        	c.jalr	a3
   1a788: 88 fc        	c.sd	a0, 0x38(s1)
   1a78a: 83 b3 04 02  	ld	t2, 0x20(s1)
   1a78e: 90 74        	c.ld	a2, 0x28(s1)
   1a790: 94 78        	c.ld	a3, 0x30(s1)
   1a792: 2a 99        	c.add	s2, a0
   1a794: 37 97 2c 00  	lui	a4, 0x2c9
   1a798: 1b 07 07 d0  	addiw	a4, a4, -0x300
   1a79c: b7 77 5b 00  	lui	a5, 0x5b7
   1a7a0: 9b 87 07 90  	addiw	a5, a5, -0x700
   1a7a4: b7 b4 1d ff  	lui	s1, 0xff1db
   1a7a8: 1b 84 04 f0  	addiw	s0, s1, -0x100
   1a7ac: b7 14 4d ff  	lui	s1, 0xff4d1
   1a7b0: 9b 84 04 b8  	addiw	s1, s1, -0x480
   1a7b4: e9 75        	c.lui	a1, 0xffffa
   1a7b6: 1b 88 65 7e  	addiw	a6, a1, 0x7e6
   1a7ba: d5 75        	c.lui	a1, 0xffff5
   1a7bc: 9b 88 e5 92  	addiw	a7, a1, -0x6d2
   1a7c0: f1 65        	c.lui	a1, 0x1c
   1a7c2: 9b 82 25 5a  	addiw	t0, a1, 0x5a2
   1a7c6: d9 65        	c.lui	a1, 0x16
   1a7c8: 1b 83 95 6e  	addiw	t1, a1, 0x6e9
   1a7cc: 93 d5 04 01  	srli	a1, s1, 0x10
   1a7d0: 23 a0 b3 00  	sw	a1, 0x0(t2)
   1a7d4: 93 55 04 01  	srli	a1, s0, 0x10
   1a7d8: 0c c2        	c.sw	a1, 0x0(a2)
   1a7da: 9c e2        	c.sd	a5, 0x0(a3)
   1a7dc: 18 e1        	c.sd	a4, 0x0(a0)
   1a7de: 21 05        	c.addi	a0, 0x8
   1a7e0: a1 06        	c.addi	a3, 0x8
   1a7e2: 11 06        	c.addi	a2, 0x4
   1a7e4: 91 03        	c.addi	t2, 0x4
   1a7e6: 42 97        	c.add	a4, a6
   1a7e8: c6 97        	c.add	a5, a7
   1a7ea: 16 94        	c.add	s0, t0
   1a7ec: 9a 94        	c.add	s1, t1
   1a7ee: e3 1f 25 fd  	bne	a0, s2, 0x1a7cc <jinit_merged_upsampler+0x104>
   1a7f2: 6f 50 e1 28  	jal	zero, 0x2fa80 <__riscv_restore_3>

000000000001a7f6 <start_pass_merged_upsample>:
   1a7f6: 83 35 05 25  	ld	a1, 0x250(a0)
   1a7fa: 03 25 45 08  	lw	a0, 0x84(a0)
   1a7fe: 23 a4 05 04  	sw	zero, 0x48(a1)
   1a802: a8 c9        	c.sw	a0, 0x50(a1)
   1a804: 82 80        	c.jr	ra

000000000001a806 <merged_2v_upsample>:
   1a806: ef 52 a1 23  	jal	t0, 0x2fa40 <__riscv_save_5>
   1a80a: 41 11        	c.addi	sp, -0x10
   1a80c: 03 34 05 25  	ld	s0, 0x250(a0)
   1a810: 34 44        	c.lw	a3, 0x48(s0)
   1a812: be 89        	c.mv	s3, a5
   1a814: 32 89        	c.mv	s2, a2
   1a816: 95 c2        	c.beqz	a3, 0x1a83a <merged_2v_upsample+0x34>
   1a818: 03 e5 09 00  	lwu	a0, 0x0(s3)
   1a81c: 7c 44        	c.lw	a5, 0x4c(s0)
   1a81e: 0e 05        	c.slli	a0, 0x3
   1a820: 33 06 a7 00  	add	a2, a4, a0
   1a824: 13 05 04 04  	addi	a0, s0, 0x40
   1a828: 05 47        	c.li	a4, 0x1
   1a82a: 85 44        	c.li	s1, 0x1
   1a82c: 81 45        	c.li	a1, 0x0
   1a82e: 81 46        	c.li	a3, 0x0
   1a830: ef 00 a0 44  	jal	ra, 0x1ac7a <jcopy_sample_rows>
   1a834: 23 24 04 04  	sw	zero, 0x48(s0)
   1a838: a9 a0        	c.j	0x1a882 <merged_2v_upsample+0x7c>
   1a83a: 83 e8 09 00  	lwu	a7, 0x0(s3)
   1a83e: 34 48        	c.lw	a3, 0x50(s0)
   1a840: bb 07 18 41  	subw	a5, a6, a7
   1a844: 63 e3 f6 00  	bltu	a3, a5, 0x1a84a <merged_2v_upsample+0x44>
   1a848: be 86        	c.mv	a3, a5
   1a84a: 89 47        	c.li	a5, 0x2
   1a84c: b6 84        	c.mv	s1, a3
   1a84e: 63 e3 f6 00  	bltu	a3, a5, 0x1a854 <merged_2v_upsample+0x4e>
   1a852: 89 44        	c.li	s1, 0x2
   1a854: 13 96 38 00  	slli	a2, a7, 0x3
   1a858: 3a 96        	c.add	a2, a4
   1a85a: 10 62        	c.ld	a2, 0x0(a2)
   1a85c: 32 e0        	c.sdsp	a2, 0x0(sp)
   1a85e: 63 e9 f6 00  	bltu	a3, a5, 0x1a870 <merged_2v_upsample+0x6a>
   1a862: 85 08        	c.addi	a7, 0x1
   1a864: 82 18        	c.slli	a7, 0x20
   1a866: 13 d6 d8 01  	srli	a2, a7, 0x1d
   1a86a: 3a 96        	c.add	a2, a4
   1a86c: 14 62        	c.ld	a3, 0x0(a2)
   1a86e: 21 a0        	c.j	0x1a876 <merged_2v_upsample+0x70>
   1a870: 34 60        	c.ld	a3, 0x40(s0)
   1a872: 05 46        	c.li	a2, 0x1
   1a874: 30 c4        	c.sw	a2, 0x48(s0)
   1a876: 18 6c        	c.ld	a4, 0x18(s0)
   1a878: 03 26 09 00  	lw	a2, 0x0(s2)
   1a87c: 36 e4        	c.sdsp	a3, 0x8(sp)
   1a87e: 8a 86        	c.mv	a3, sp
   1a880: 02 97        	c.jalr	a4
   1a882: 03 a5 09 00  	lw	a0, 0x0(s3)
   1a886: 26 95        	c.add	a0, s1
   1a888: 23 a0 a9 00  	sw	a0, 0x0(s3)
   1a88c: 28 48        	c.lw	a0, 0x50(s0)
   1a88e: 2c 44        	c.lw	a1, 0x48(s0)
   1a890: 05 9d        	c.subw	a0, s1
   1a892: 28 c8        	c.sw	a0, 0x50(s0)
   1a894: 91 e5        	c.bnez	a1, 0x1a8a0 <merged_2v_upsample+0x9a>
   1a896: 03 25 09 00  	lw	a0, 0x0(s2)
   1a89a: 05 05        	c.addi	a0, 0x1
   1a89c: 23 20 a9 00  	sw	a0, 0x0(s2)
   1a8a0: 41 01        	c.addi	sp, 0x10
   1a8a2: 6f 50 81 1d  	jal	zero, 0x2fa7a <__riscv_restore_5>

000000000001a8a6 <h2v2_merged_upsample>:
   1a8a6: ef 52 41 17  	jal	t0, 0x2fa1a <__riscv_save_12>
   1a8aa: 2a 89        	c.mv	s2, a0
   1a8ac: 03 35 05 25  	ld	a0, 0x250(a0)
   1a8b0: 83 3a 89 19  	ld	s5, 0x198(s2)
   1a8b4: 03 3b 05 02  	ld	s6, 0x20(a0)
   1a8b8: 83 39 85 02  	ld	s3, 0x28(a0)
   1a8bc: 03 3a 05 03  	ld	s4, 0x30(a0)
   1a8c0: 83 3b 85 03  	ld	s7, 0x38(a0)
   1a8c4: 88 61        	c.ld	a0, 0x0(a1)
   1a8c6: 13 17 16 00  	slli	a4, a2, 0x1
   1a8ca: 93 17 16 02  	slli	a5, a2, 0x21
   1a8ce: f5 83        	c.srli	a5, 0x1d
   1a8d0: aa 97        	c.add	a5, a0
   1a8d2: 83 bc 07 00  	ld	s9, 0x0(a5)
   1a8d6: 05 07        	c.addi	a4, 0x1
   1a8d8: 02 17        	c.slli	a4, 0x20
   1a8da: 75 83        	c.srli	a4, 0x1d
   1a8dc: 3a 95        	c.add	a0, a4
   1a8de: 03 3c 05 00  	ld	s8, 0x0(a0)
   1a8e2: 88 65        	c.ld	a0, 0x8(a1)
   1a8e4: 02 16        	c.slli	a2, 0x20
   1a8e6: 8c 69        	c.ld	a1, 0x10(a1)
   1a8e8: 75 82        	c.srli	a2, 0x1d
   1a8ea: 32 95        	c.add	a0, a2
   1a8ec: 03 3d 05 00  	ld	s10, 0x0(a0)
   1a8f0: b2 95        	c.add	a1, a2
   1a8f2: 83 bd 05 00  	ld	s11, 0x0(a1)
   1a8f6: 03 65 09 08  	lwu	a0, 0x80(s2)
   1a8fa: 84 62        	c.ld	s1, 0x0(a3)
   1a8fc: 80 66        	c.ld	s0, 0x8(a3)
   1a8fe: 93 55 15 00  	srli	a1, a0, 0x1
   1a902: 63 8f 05 0e  	beq	a1, zero, 0x1aa00 <h2v2_merged_upsample+0x15a>
   1a906: fd 15        	c.addi	a1, -0x1
   1a908: 13 95 05 02  	slli	a0, a1, 0x20
   1a90c: 01 91        	c.srli	a0, 0x20
   1a90e: 99 45        	c.li	a1, 0x6
   1a910: ef 50 01 18  	jal	ra, 0x2fa90 <__muldi3>
   1a914: 26 95        	c.add	a0, s1
   1a916: 19 05        	c.addi	a0, 0x6
   1a918: 83 c5 0d 00  	lbu	a1, 0x0(s11)
   1a91c: 03 46 0d 00  	lbu	a2, 0x0(s10)
   1a920: 93 96 25 00  	slli	a3, a1, 0x2
   1a924: da 96        	c.add	a3, s6
   1a926: 13 17 36 00  	slli	a4, a2, 0x3
   1a92a: 5e 97        	c.add	a4, s7
   1a92c: 18 63        	c.ld	a4, 0x0(a4)
   1a92e: 8e 05        	c.slli	a1, 0x3
   1a930: d2 95        	c.add	a1, s4
   1a932: 8c 61        	c.ld	a1, 0x0(a1)
   1a934: 94 42        	c.lw	a3, 0x0(a3)
   1a936: 83 c7 0c 00  	lbu	a5, 0x0(s9)
   1a93a: ba 95        	c.add	a1, a4
   1a93c: c1 81        	c.srli	a1, 0x10
   1a93e: 3b 87 f6 00  	addw	a4, a3, a5
   1a942: 56 97        	c.add	a4, s5
   1a944: 03 47 07 00  	lbu	a4, 0x0(a4)
   1a948: 0a 06        	c.slli	a2, 0x2
   1a94a: 4e 96        	c.add	a2, s3
   1a94c: 10 42        	c.lw	a2, 0x0(a2)
   1a94e: 23 80 e4 00  	sb	a4, 0x0(s1)
   1a952: 3b 87 b7 00  	addw	a4, a5, a1
   1a956: 56 97        	c.add	a4, s5
   1a958: 03 47 07 00  	lbu	a4, 0x0(a4)
   1a95c: a3 80 e4 00  	sb	a4, 0x1(s1)
   1a960: b1 9f        	c.addw	a5, a2
   1a962: d6 97        	c.add	a5, s5
   1a964: 03 c7 07 00  	lbu	a4, 0x0(a5)
   1a968: 23 81 e4 00  	sb	a4, 0x2(s1)
   1a96c: 03 c7 1c 00  	lbu	a4, 0x1(s9)
   1a970: bb 87 e6 00  	addw	a5, a3, a4
   1a974: d6 97        	c.add	a5, s5
   1a976: 83 c7 07 00  	lbu	a5, 0x0(a5)
   1a97a: a3 81 f4 00  	sb	a5, 0x3(s1)
   1a97e: bb 07 b7 00  	addw	a5, a4, a1
   1a982: d6 97        	c.add	a5, s5
   1a984: 83 c7 07 00  	lbu	a5, 0x0(a5)
   1a988: 23 82 f4 00  	sb	a5, 0x4(s1)
   1a98c: 31 9f        	c.addw	a4, a2
   1a98e: 56 97        	c.add	a4, s5
   1a990: 03 47 07 00  	lbu	a4, 0x0(a4)
   1a994: a3 82 e4 00  	sb	a4, 0x5(s1)
   1a998: 03 47 0c 00  	lbu	a4, 0x0(s8)
   1a99c: bb 87 e6 00  	addw	a5, a3, a4
   1a9a0: d6 97        	c.add	a5, s5
   1a9a2: 83 c7 07 00  	lbu	a5, 0x0(a5)
   1a9a6: 23 00 f4 00  	sb	a5, 0x0(s0)
   1a9aa: bb 07 b7 00  	addw	a5, a4, a1
   1a9ae: d6 97        	c.add	a5, s5
   1a9b0: 83 c7 07 00  	lbu	a5, 0x0(a5)
   1a9b4: a3 00 f4 00  	sb	a5, 0x1(s0)
   1a9b8: 31 9f        	c.addw	a4, a2
   1a9ba: 56 97        	c.add	a4, s5
   1a9bc: 03 47 07 00  	lbu	a4, 0x0(a4)
   1a9c0: 23 01 e4 00  	sb	a4, 0x2(s0)
   1a9c4: 03 47 1c 00  	lbu	a4, 0x1(s8)
   1a9c8: b9 9e        	c.addw	a3, a4
   1a9ca: d6 96        	c.add	a3, s5
   1a9cc: 83 c6 06 00  	lbu	a3, 0x0(a3)
   1a9d0: a3 01 d4 00  	sb	a3, 0x3(s0)
   1a9d4: b9 9d        	c.addw	a1, a4
   1a9d6: d6 95        	c.add	a1, s5
   1a9d8: 83 c5 05 00  	lbu	a1, 0x0(a1)
   1a9dc: 05 0d        	c.addi	s10, 0x1
   1a9de: 85 0d        	c.addi	s11, 0x1
   1a9e0: 23 02 b4 00  	sb	a1, 0x4(s0)
   1a9e4: 39 9e        	c.addw	a2, a4
   1a9e6: 56 96        	c.add	a2, s5
   1a9e8: 83 45 06 00  	lbu	a1, 0x0(a2)
   1a9ec: 89 0c        	c.addi	s9, 0x2
   1a9ee: 99 04        	c.addi	s1, 0x6
   1a9f0: 09 0c        	c.addi	s8, 0x2
   1a9f2: a3 02 b4 00  	sb	a1, 0x5(s0)
   1a9f6: 19 04        	c.addi	s0, 0x6
   1a9f8: e3 90 a4 f2  	bne	s1, a0, 0x1a918 <h2v2_merged_upsample+0x72>
   1a9fc: 03 25 09 08  	lw	a0, 0x80(s2)
   1aa00: 05 89        	c.andi	a0, 0x1
   1aa02: 3d cd        	c.beqz	a0, 0x1aa80 <h2v2_merged_upsample+0x1da>
   1aa04: 03 c5 0d 00  	lbu	a0, 0x0(s11)
   1aa08: 83 45 0d 00  	lbu	a1, 0x0(s10)
   1aa0c: 13 16 25 00  	slli	a2, a0, 0x2
   1aa10: 5a 96        	c.add	a2, s6
   1aa12: 93 96 35 00  	slli	a3, a1, 0x3
   1aa16: de 96        	c.add	a3, s7
   1aa18: 94 62        	c.ld	a3, 0x0(a3)
   1aa1a: 0e 05        	c.slli	a0, 0x3
   1aa1c: 52 95        	c.add	a0, s4
   1aa1e: 08 61        	c.ld	a0, 0x0(a0)
   1aa20: 10 42        	c.lw	a2, 0x0(a2)
   1aa22: 03 c7 0c 00  	lbu	a4, 0x0(s9)
   1aa26: 36 95        	c.add	a0, a3
   1aa28: 41 81        	c.srli	a0, 0x10
   1aa2a: bb 06 e6 00  	addw	a3, a2, a4
   1aa2e: d6 96        	c.add	a3, s5
   1aa30: 83 c6 06 00  	lbu	a3, 0x0(a3)
   1aa34: 8a 05        	c.slli	a1, 0x2
   1aa36: ce 95        	c.add	a1, s3
   1aa38: 8c 41        	c.lw	a1, 0x0(a1)
   1aa3a: 23 80 d4 00  	sb	a3, 0x0(s1)
   1aa3e: bb 06 a7 00  	addw	a3, a4, a0
   1aa42: d6 96        	c.add	a3, s5
   1aa44: 83 c6 06 00  	lbu	a3, 0x0(a3)
   1aa48: a3 80 d4 00  	sb	a3, 0x1(s1)
   1aa4c: 2d 9f        	c.addw	a4, a1
   1aa4e: 56 97        	c.add	a4, s5
   1aa50: 83 46 07 00  	lbu	a3, 0x0(a4)
   1aa54: 23 81 d4 00  	sb	a3, 0x2(s1)
   1aa58: 83 46 0c 00  	lbu	a3, 0x0(s8)
   1aa5c: 35 9e        	c.addw	a2, a3
   1aa5e: 56 96        	c.add	a2, s5
   1aa60: 03 46 06 00  	lbu	a2, 0x0(a2)
   1aa64: 23 00 c4 00  	sb	a2, 0x0(s0)
   1aa68: 35 9d        	c.addw	a0, a3
   1aa6a: 56 95        	c.add	a0, s5
   1aa6c: 03 45 05 00  	lbu	a0, 0x0(a0)
   1aa70: a3 00 a4 00  	sb	a0, 0x1(s0)
   1aa74: b5 9d        	c.addw	a1, a3
   1aa76: d6 95        	c.add	a1, s5
   1aa78: 03 c5 05 00  	lbu	a0, 0x0(a1)
   1aa7c: 23 01 a4 00  	sb	a0, 0x2(s0)
   1aa80: 6f 40 51 7e  	jal	zero, 0x2fa64 <__riscv_restore_12>

000000000001aa84 <merged_1v_upsample>:
   1aa84: ef 42 71 7c  	jal	t0, 0x2fa4a <__riscv_save_3>
   1aa88: 83 36 05 25  	ld	a3, 0x250(a0)
   1aa8c: 3e 84        	c.mv	s0, a5
   1aa8e: b2 84        	c.mv	s1, a2
   1aa90: 83 e7 07 00  	lwu	a5, 0x0(a5)
   1aa94: 03 b8 86 01  	ld	a6, 0x18(a3)
   1aa98: 10 42        	c.lw	a2, 0x0(a2)
   1aa9a: 93 96 37 00  	slli	a3, a5, 0x3
   1aa9e: ba 96        	c.add	a3, a4
   1aaa0: 02 98        	c.jalr	a6
   1aaa2: 08 40        	c.lw	a0, 0x0(s0)
   1aaa4: 05 05        	c.addi	a0, 0x1
   1aaa6: 08 c0        	c.sw	a0, 0x0(s0)
   1aaa8: 88 40        	c.lw	a0, 0x0(s1)
   1aaaa: 05 05        	c.addi	a0, 0x1
   1aaac: 88 c0        	c.sw	a0, 0x0(s1)
   1aaae: 6f 40 31 7d  	jal	zero, 0x2fa80 <__riscv_restore_3>

000000000001aab2 <h2v1_merged_upsample>:
   1aab2: ef 42 11 77  	jal	t0, 0x2fa22 <__riscv_save_11>
   1aab6: 2a 89        	c.mv	s2, a0
   1aab8: 03 35 05 25  	ld	a0, 0x250(a0)
   1aabc: 83 3b 89 19  	ld	s7, 0x198(s2)
   1aac0: 83 3a 05 02  	ld	s5, 0x20(a0)
   1aac4: 83 39 85 02  	ld	s3, 0x28(a0)
   1aac8: 03 3a 05 03  	ld	s4, 0x30(a0)
   1aacc: 03 3b 85 03  	ld	s6, 0x38(a0)
   1aad0: 88 61        	c.ld	a0, 0x0(a1)
   1aad2: 02 16        	c.slli	a2, 0x20
   1aad4: 75 82        	c.srli	a2, 0x1d
   1aad6: 98 65        	c.ld	a4, 0x8(a1)
   1aad8: 32 95        	c.add	a0, a2
   1aada: 8c 69        	c.ld	a1, 0x10(a1)
   1aadc: 03 3c 05 00  	ld	s8, 0x0(a0)
   1aae0: 32 97        	c.add	a4, a2
   1aae2: 83 3c 07 00  	ld	s9, 0x0(a4)
   1aae6: b2 95        	c.add	a1, a2
   1aae8: 03 65 09 08  	lwu	a0, 0x80(s2)
   1aaec: 84 61        	c.ld	s1, 0x0(a1)
   1aaee: 80 62        	c.ld	s0, 0x0(a3)
   1aaf0: 93 55 15 00  	srli	a1, a0, 0x1
   1aaf4: c5 c1        	c.beqz	a1, 0x1ab94 <h2v1_merged_upsample+0xe2>
   1aaf6: fd 15        	c.addi	a1, -0x1
   1aaf8: 13 95 05 02  	slli	a0, a1, 0x20
   1aafc: 01 91        	c.srli	a0, 0x20
   1aafe: 99 45        	c.li	a1, 0x6
   1ab00: ef 40 11 79  	jal	ra, 0x2fa90 <__muldi3>
   1ab04: 22 95        	c.add	a0, s0
   1ab06: 19 05        	c.addi	a0, 0x6
   1ab08: 83 c5 04 00  	lbu	a1, 0x0(s1)
   1ab0c: 03 c6 0c 00  	lbu	a2, 0x0(s9)
   1ab10: 93 96 25 00  	slli	a3, a1, 0x2
   1ab14: d6 96        	c.add	a3, s5
   1ab16: 13 17 36 00  	slli	a4, a2, 0x3
   1ab1a: 5a 97        	c.add	a4, s6
   1ab1c: 18 63        	c.ld	a4, 0x0(a4)
   1ab1e: 8e 05        	c.slli	a1, 0x3
   1ab20: d2 95        	c.add	a1, s4
   1ab22: 8c 61        	c.ld	a1, 0x0(a1)
   1ab24: 94 42        	c.lw	a3, 0x0(a3)
   1ab26: 83 47 0c 00  	lbu	a5, 0x0(s8)
   1ab2a: ba 95        	c.add	a1, a4
   1ab2c: c1 81        	c.srli	a1, 0x10
   1ab2e: 3b 87 f6 00  	addw	a4, a3, a5
   1ab32: 5e 97        	c.add	a4, s7
   1ab34: 03 47 07 00  	lbu	a4, 0x0(a4)
   1ab38: 0a 06        	c.slli	a2, 0x2
   1ab3a: 4e 96        	c.add	a2, s3
   1ab3c: 10 42        	c.lw	a2, 0x0(a2)
   1ab3e: 23 00 e4 00  	sb	a4, 0x0(s0)
   1ab42: 3b 87 b7 00  	addw	a4, a5, a1
   1ab46: 5e 97        	c.add	a4, s7
   1ab48: 03 47 07 00  	lbu	a4, 0x0(a4)
   1ab4c: a3 00 e4 00  	sb	a4, 0x1(s0)
   1ab50: b1 9f        	c.addw	a5, a2
   1ab52: de 97        	c.add	a5, s7
   1ab54: 03 c7 07 00  	lbu	a4, 0x0(a5)
   1ab58: 23 01 e4 00  	sb	a4, 0x2(s0)
   1ab5c: 03 47 1c 00  	lbu	a4, 0x1(s8)
   1ab60: b9 9e        	c.addw	a3, a4
   1ab62: de 96        	c.add	a3, s7
   1ab64: 83 c6 06 00  	lbu	a3, 0x0(a3)
   1ab68: a3 01 d4 00  	sb	a3, 0x3(s0)
   1ab6c: b9 9d        	c.addw	a1, a4
   1ab6e: de 95        	c.add	a1, s7
   1ab70: 83 c5 05 00  	lbu	a1, 0x0(a1)
   1ab74: 23 02 b4 00  	sb	a1, 0x4(s0)
   1ab78: 39 9e        	c.addw	a2, a4
   1ab7a: 5e 96        	c.add	a2, s7
   1ab7c: 83 45 06 00  	lbu	a1, 0x0(a2)
   1ab80: 85 0c        	c.addi	s9, 0x1
   1ab82: 85 04        	c.addi	s1, 0x1
   1ab84: a3 02 b4 00  	sb	a1, 0x5(s0)
   1ab88: 19 04        	c.addi	s0, 0x6
   1ab8a: 09 0c        	c.addi	s8, 0x2
   1ab8c: e3 1e a4 f6  	bne	s0, a0, 0x1ab08 <h2v1_merged_upsample+0x56>
   1ab90: 03 25 09 08  	lw	a0, 0x80(s2)
   1ab94: 05 89        	c.andi	a0, 0x1
   1ab96: 29 c9        	c.beqz	a0, 0x1abe8 <h2v1_merged_upsample+0x136>
   1ab98: 03 c5 04 00  	lbu	a0, 0x0(s1)
   1ab9c: 83 c5 0c 00  	lbu	a1, 0x0(s9)
   1aba0: 13 16 25 00  	slli	a2, a0, 0x2
   1aba4: 56 96        	c.add	a2, s5
   1aba6: 93 96 35 00  	slli	a3, a1, 0x3
   1abaa: da 96        	c.add	a3, s6
   1abac: 94 62        	c.ld	a3, 0x0(a3)
   1abae: 0e 05        	c.slli	a0, 0x3
   1abb0: 52 95        	c.add	a0, s4
   1abb2: 08 61        	c.ld	a0, 0x0(a0)
   1abb4: 10 42        	c.lw	a2, 0x0(a2)
   1abb6: 03 47 0c 00  	lbu	a4, 0x0(s8)
   1abba: 36 95        	c.add	a0, a3
   1abbc: 41 81        	c.srli	a0, 0x10
   1abbe: 39 9e        	c.addw	a2, a4
   1abc0: 5e 96        	c.add	a2, s7
   1abc2: 03 46 06 00  	lbu	a2, 0x0(a2)
   1abc6: 8a 05        	c.slli	a1, 0x2
   1abc8: ce 95        	c.add	a1, s3
   1abca: 8c 41        	c.lw	a1, 0x0(a1)
   1abcc: 23 00 c4 00  	sb	a2, 0x0(s0)
   1abd0: 39 9d        	c.addw	a0, a4
   1abd2: 5e 95        	c.add	a0, s7
   1abd4: 03 45 05 00  	lbu	a0, 0x0(a0)
   1abd8: a3 00 a4 00  	sb	a0, 0x1(s0)
   1abdc: b9 9d        	c.addw	a1, a4
   1abde: de 95        	c.add	a1, s7
   1abe0: 03 c5 05 00  	lbu	a0, 0x0(a1)
   1abe4: 23 01 a4 00  	sb	a0, 0x2(s0)
   1abe8: 6f 40 11 68  	jal	zero, 0x2fa68 <__riscv_restore_11>

000000000001abec <jpeg_abort>:
   1abec: ef 42 11 67  	jal	t0, 0x2fa5c <__riscv_save_1>
   1abf0: 2a 84        	c.mv	s0, a0
   1abf2: 08 65        	c.ld	a0, 0x8(a0)
   1abf4: 30 65        	c.ld	a2, 0x48(a0)
   1abf6: 85 45        	c.li	a1, 0x1
   1abf8: 22 85        	c.mv	a0, s0
   1abfa: 02 96        	c.jalr	a2
   1abfc: 0c 4c        	c.lw	a1, 0x18(s0)
   1abfe: 13 05 40 06  	addi	a0, zero, 0x64
   1ac02: 99 c1        	c.beqz	a1, 0x1ac08 <jpeg_abort+0x1c>
   1ac04: 13 05 80 0c  	addi	a0, zero, 0xc8
   1ac08: 48 cc        	c.sw	a0, 0x1c(s0)
   1ac0a: 6f 40 d1 67  	jal	zero, 0x2fa86 <__riscv_restore_1>

000000000001ac0e <jpeg_destroy>:
   1ac0e: ef 42 f1 64  	jal	t0, 0x2fa5c <__riscv_save_1>
   1ac12: 2a 84        	c.mv	s0, a0
   1ac14: 08 65        	c.ld	a0, 0x8(a0)
   1ac16: 01 c5        	c.beqz	a0, 0x1ac1e <jpeg_destroy+0x10>
   1ac18: 2c 69        	c.ld	a1, 0x50(a0)
   1ac1a: 22 85        	c.mv	a0, s0
   1ac1c: 82 95        	c.jalr	a1
   1ac1e: 23 34 04 00  	sd	zero, 0x8(s0)
   1ac22: 23 2e 04 00  	sw	zero, 0x1c(s0)
   1ac26: 6f 40 11 66  	jal	zero, 0x2fa86 <__riscv_restore_1>

000000000001ac2a <jpeg_alloc_quant_table>:
   1ac2a: ef 42 31 63  	jal	t0, 0x2fa5c <__riscv_save_1>
   1ac2e: 0c 65        	c.ld	a1, 0x8(a0)
   1ac30: 94 61        	c.ld	a3, 0x0(a1)
   1ac32: 13 06 40 08  	addi	a2, zero, 0x84
   1ac36: 81 45        	c.li	a1, 0x0
   1ac38: 82 96        	c.jalr	a3
   1ac3a: 23 20 05 08  	sw	zero, 0x80(a0)
   1ac3e: 6f 40 91 64  	jal	zero, 0x2fa86 <__riscv_restore_1>

000000000001ac42 <jpeg_alloc_huff_table>:
   1ac42: ef 42 b1 61  	jal	t0, 0x2fa5c <__riscv_save_1>
   1ac46: 0c 65        	c.ld	a1, 0x8(a0)
   1ac48: 94 61        	c.ld	a3, 0x0(a1)
   1ac4a: 13 06 80 11  	addi	a2, zero, 0x118
   1ac4e: 81 45        	c.li	a1, 0x0
   1ac50: 82 96        	c.jalr	a3
   1ac52: 23 2a 05 10  	sw	zero, 0x114(a0)
   1ac56: 6f 40 11 63  	jal	zero, 0x2fa86 <__riscv_restore_1>

000000000001ac5a <jdiv_round_up>:
   1ac5a: 2e 95        	c.add	a0, a1
   1ac5c: 7d 15        	c.addi	a0, -0x1
   1ac5e: 6f 40 31 67  	jal	zero, 0x2fad0 <__divdi3>

000000000001ac62 <jround_up>:
   1ac62: ef 42 b1 5f  	jal	t0, 0x2fa5c <__riscv_save_1>
   1ac66: 2e 95        	c.add	a0, a1
   1ac68: 13 04 f5 ff  	addi	s0, a0, -0x1
   1ac6c: 22 85        	c.mv	a0, s0
   1ac6e: ef 40 f1 6b  	jal	ra, 0x2fb2c <__modsi3>
   1ac72: 33 05 a4 40  	sub	a0, s0, a0
   1ac76: 6f 40 11 61  	jal	zero, 0x2fa86 <__riscv_restore_1>

000000000001ac7a <jcopy_sample_rows>:
   1ac7a: 63 55 e0 04  	bge	zero, a4, 0x1acc4 <jcopy_sample_rows+0x4a>
   1ac7e: ef 42 31 5c  	jal	t0, 0x2fa40 <__riscv_save_5>
   1ac82: 82 17        	c.slli	a5, 0x20
   1ac84: 13 d9 07 02  	srli	s2, a5, 0x20
   1ac88: 93 94 36 00  	slli	s1, a3, 0x3
   1ac8c: b3 06 96 00  	add	a3, a2, s1
   1ac90: 8e 05        	c.slli	a1, 0x3
   1ac92: b3 07 b5 00  	add	a5, a0, a1
   1ac96: 7d 17        	c.addi	a4, -0x1
   1ac98: 02 17        	c.slli	a4, 0x20
   1ac9a: 75 83        	c.srli	a4, 0x1d
   1ac9c: 26 96        	c.add	a2, s1
   1ac9e: 3a 96        	c.add	a2, a4
   1aca0: 93 09 86 00  	addi	s3, a2, 0x8
   1aca4: 8c 63        	c.ld	a1, 0x0(a5)
   1aca6: 88 62        	c.ld	a0, 0x0(a3)
   1aca8: 13 84 87 00  	addi	s0, a5, 0x8
   1acac: 93 84 86 00  	addi	s1, a3, 0x8
   1acb0: 4a 86        	c.mv	a2, s2
   1acb2: ef 20 50 49  	jal	ra, 0x1d946 <memcpy>
   1acb6: a2 87        	c.mv	a5, s0
   1acb8: a6 86        	c.mv	a3, s1
   1acba: e3 95 34 ff  	bne	s1, s3, 0x1aca4 <jcopy_sample_rows+0x2a>
   1acbe: 6f 40 d1 5b  	jal	zero, 0x2fa7a <__riscv_restore_5>
   1acc2: 09 a0        	c.j	0x1acc4 <jcopy_sample_rows+0x4a>
   1acc4: 82 80        	c.jr	ra

000000000001acc6 <jcopy_block_row>:
   1acc6: 02 16        	c.slli	a2, 0x20
   1acc8: 65 82        	c.srli	a2, 0x19
   1acca: aa 86        	c.mv	a3, a0
   1accc: 2e 85        	c.mv	a0, a1
   1acce: b6 85        	c.mv	a1, a3
   1acd0: 6f 20 70 47  	jal	zero, 0x1d946 <memcpy>

000000000001acd4 <jzero_far>:
   1acd4: 2e 86        	c.mv	a2, a1
   1acd6: 81 45        	c.li	a1, 0x0
   1acd8: 6f 20 50 3c  	jal	zero, 0x1d89c <memset>

000000000001acdc <jpeg_std_error>:
   1acdc: b7 b5 01 00  	lui	a1, 0x1b
   1ace0: 93 85 65 d3  	addi	a1, a1, -0x2ca
   1ace4: 0c e1        	c.sd	a1, 0x0(a0)
   1ace6: b7 b5 01 00  	lui	a1, 0x1b
   1acea: 93 85 05 d5  	addi	a1, a1, -0x2b0
   1acee: 0c e5        	c.sd	a1, 0x8(a0)
   1acf0: b7 b5 01 00  	lui	a1, 0x1b
   1acf4: 93 85 a5 d8  	addi	a1, a1, -0x276
   1acf8: 0c e9        	c.sd	a1, 0x10(a0)
   1acfa: b7 b5 01 00  	lui	a1, 0x1b
   1acfe: 93 85 25 db  	addi	a1, a1, -0x24e
   1ad02: 0c ed        	c.sd	a1, 0x18(a0)
   1ad04: b7 b5 01 00  	lui	a1, 0x1b
   1ad08: 93 85 a5 e5  	addi	a1, a1, -0x1a6
   1ad0c: 0c f1        	c.sd	a1, 0x20(a0)
   1ad0e: 23 2e 05 06  	sw	zero, 0x7c(a0)
   1ad12: 23 30 05 08  	sd	zero, 0x80(a0)
   1ad16: 23 24 05 02  	sw	zero, 0x28(a0)
   1ad1a: b7 25 03 00  	lui	a1, 0x32
   1ad1e: 93 85 05 ea  	addi	a1, a1, -0x160
   1ad22: 4c e5        	c.sd	a1, 0x88(a0)
   1ad24: 93 05 70 07  	addi	a1, zero, 0x77
   1ad28: 23 28 b5 08  	sw	a1, 0x90(a0)
   1ad2c: 23 3c 05 08  	sd	zero, 0x98(a0)
   1ad30: 23 30 05 0a  	sd	zero, 0xa0(a0)
   1ad34: 82 80        	c.jr	ra

000000000001ad36 <error_exit>:
   1ad36: ef 42 71 52  	jal	t0, 0x2fa5c <__riscv_save_1>
   1ad3a: 2a 84        	c.mv	s0, a0
   1ad3c: 08 61        	c.ld	a0, 0x0(a0)
   1ad3e: 0c 69        	c.ld	a1, 0x10(a0)
   1ad40: 22 85        	c.mv	a0, s0
   1ad42: 82 95        	c.jalr	a1
   1ad44: 22 85        	c.mv	a0, s0
   1ad46: ef f0 9f ec  	jal	ra, 0x1ac0e <jpeg_destroy>
   1ad4a: 05 45        	c.li	a0, 0x1
   1ad4c: ef 50 4f bd  	jal	ra, 0x10120 <exit>

000000000001ad50 <emit_message>:
   1ad50: 41 11        	c.addi	sp, -0x10
   1ad52: 06 e4        	c.sdsp	ra, 0x8(sp)
   1ad54: 22 e0        	c.sdsp	s0, 0x0(sp)
   1ad56: 00 61        	c.ld	s0, 0x0(a0)
   1ad58: 63 ca 05 00  	blt	a1, zero, 0x1ad6c <emit_message+0x1c>
   1ad5c: 70 5c        	c.lw	a2, 0x7c(s0)
   1ad5e: 63 42 b6 02  	blt	a2, a1, 0x1ad82 <emit_message+0x32>
   1ad62: 1c 68        	c.ld	a5, 0x10(s0)
   1ad64: a2 60        	c.ldsp	ra, 0x8(sp)
   1ad66: 02 64        	c.ldsp	s0, 0x0(sp)
   1ad68: 41 01        	c.addi	sp, 0x10
   1ad6a: 82 87        	c.jr	a5
   1ad6c: 4c 60        	c.ld	a1, 0x80(s0)
   1ad6e: 89 c5        	c.beqz	a1, 0x1ad78 <emit_message+0x28>
   1ad70: 70 5c        	c.lw	a2, 0x7c(s0)
   1ad72: 8d 46        	c.li	a3, 0x3
   1ad74: 63 45 d6 00  	blt	a2, a3, 0x1ad7e <emit_message+0x2e>
   1ad78: 0c 68        	c.ld	a1, 0x10(s0)
   1ad7a: 82 95        	c.jalr	a1
   1ad7c: 4c 60        	c.ld	a1, 0x80(s0)
   1ad7e: 85 05        	c.addi	a1, 0x1
   1ad80: 4c e0        	c.sd	a1, 0x80(s0)
   1ad82: a2 60        	c.ldsp	ra, 0x8(sp)
   1ad84: 02 64        	c.ldsp	s0, 0x0(sp)
   1ad86: 41 01        	c.addi	sp, 0x10
   1ad88: 82 80        	c.jr	ra

000000000001ad8a <output_message>:
   1ad8a: ef 42 31 4d  	jal	t0, 0x2fa5c <__riscv_save_1>
   1ad8e: 55 71        	c.addi16sp	sp, -0xd0
   1ad90: 0c 61        	c.ld	a1, 0x0(a0)
   1ad92: 90 6d        	c.ld	a2, 0x18(a1)
   1ad94: 2c 00        	c.addi4spn	a1, sp, 0x8
   1ad96: 02 96        	c.jalr	a2
   1ad98: 03 b5 01 20  	ld	a0, 0x200(gp)
   1ad9c: 08 6d        	c.ld	a0, 0x18(a0)
   1ad9e: b7 05 03 00  	lui	a1, 0x30
   1ada2: 93 85 95 31  	addi	a1, a1, 0x319
   1ada6: 30 00        	c.addi4spn	a2, sp, 0x8
   1ada8: ef 10 b0 16  	jal	ra, 0x1c712 <fprintf>
   1adac: 69 61        	c.addi16sp	sp, 0xd0
   1adae: 6f 40 91 4d  	jal	zero, 0x2fa86 <__riscv_restore_1>

000000000001adb2 <format_message>:
   1adb2: 01 11        	c.addi	sp, -0x20
   1adb4: 06 ec        	c.sdsp	ra, 0x18(sp)
   1adb6: 83 32 05 00  	ld	t0, 0x0(a0)
   1adba: 03 a6 82 02  	lw	a2, 0x28(t0)
   1adbe: 2e 85        	c.mv	a0, a1
   1adc0: 63 56 c0 00  	bge	zero, a2, 0x1adcc <format_message+0x1a>
   1adc4: 83 a5 02 09  	lw	a1, 0x90(t0)
   1adc8: 63 d1 c5 02  	bge	a1, a2, 0x1adea <format_message+0x38>
   1adcc: 83 b5 82 09  	ld	a1, 0x98(t0)
   1add0: 85 c5        	c.beqz	a1, 0x1adf8 <format_message+0x46>
   1add2: 83 a6 02 0a  	lw	a3, 0xa0(t0)
   1add6: 63 41 d6 02  	blt	a2, a3, 0x1adf8 <format_message+0x46>
   1adda: 03 a7 42 0a  	lw	a4, 0xa4(t0)
   1adde: 63 4d c7 00  	blt	a4, a2, 0x1adf8 <format_message+0x46>
   1ade2: bb 06 d6 40  	subw	a3, a2, a3
   1ade6: 8e 06        	c.slli	a3, 0x3
   1ade8: 29 a0        	c.j	0x1adf2 <format_message+0x40>
   1adea: 83 b5 82 08  	ld	a1, 0x88(t0)
   1adee: 93 16 36 00  	slli	a3, a2, 0x3
   1adf2: b6 95        	c.add	a1, a3
   1adf4: 8c 61        	c.ld	a1, 0x0(a1)
   1adf6: 91 e5        	c.bnez	a1, 0x1ae02 <format_message+0x50>
   1adf8: 83 b5 82 08  	ld	a1, 0x88(t0)
   1adfc: 23 a6 c2 02  	sw	a2, 0x2c(t0)
   1ae00: 8c 61        	c.ld	a1, 0x0(a1)
   1ae02: 93 06 50 02  	addi	a3, zero, 0x25
   1ae06: 2e 86        	c.mv	a2, a1
   1ae08: 03 47 06 00  	lbu	a4, 0x0(a2)
   1ae0c: 05 c3        	c.beqz	a4, 0x1ae2c <format_message+0x7a>
   1ae0e: 05 06        	c.addi	a2, 0x1
   1ae10: e3 1c d7 fe  	bne	a4, a3, 0x1ae08 <format_message+0x56>
   1ae14: 03 46 06 00  	lbu	a2, 0x0(a2)
   1ae18: 93 06 30 07  	addi	a3, zero, 0x73
   1ae1c: 63 18 d6 00  	bne	a2, a3, 0x1ae2c <format_message+0x7a>
   1ae20: 13 86 c2 02  	addi	a2, t0, 0x2c
   1ae24: e2 60        	c.ldsp	ra, 0x18(sp)
   1ae26: 05 61        	c.addi16sp	sp, 0x20
   1ae28: 6f 20 a0 06  	jal	zero, 0x1ce92 <sprintf>
   1ae2c: 03 a6 c2 02  	lw	a2, 0x2c(t0)
   1ae30: 83 a6 02 03  	lw	a3, 0x30(t0)
   1ae34: 03 a7 42 03  	lw	a4, 0x34(t0)
   1ae38: 83 a7 82 03  	lw	a5, 0x38(t0)
   1ae3c: 03 a8 c2 03  	lw	a6, 0x3c(t0)
   1ae40: 83 a8 02 04  	lw	a7, 0x40(t0)
   1ae44: 03 a3 42 04  	lw	t1, 0x44(t0)
   1ae48: 83 a2 82 04  	lw	t0, 0x48(t0)
   1ae4c: 16 e4        	c.sdsp	t0, 0x8(sp)
   1ae4e: 1a e0        	c.sdsp	t1, 0x0(sp)
   1ae50: ef 20 20 04  	jal	ra, 0x1ce92 <sprintf>
   1ae54: e2 60        	c.ldsp	ra, 0x18(sp)
   1ae56: 05 61        	c.addi16sp	sp, 0x20
   1ae58: 82 80        	c.jr	ra

000000000001ae5a <reset_error_mgr>:
   1ae5a: 08 61        	c.ld	a0, 0x0(a0)
   1ae5c: 23 30 05 08  	sd	zero, 0x80(a0)
   1ae60: 23 24 05 02  	sw	zero, 0x28(a0)
   1ae64: 82 80        	c.jr	ra

000000000001ae66 <jinit_memory_mgr>:
   1ae66: ef 42 b1 3d  	jal	t0, 0x2fa40 <__riscv_save_5>
   1ae6a: 41 11        	c.addi	sp, -0x10
   1ae6c: aa 84        	c.mv	s1, a0
   1ae6e: 23 34 05 00  	sd	zero, 0x8(a0)
   1ae72: ef 00 d0 37  	jal	ra, 0x1b9ee <jpeg_mem_init>
   1ae76: 2a 89        	c.mv	s2, a0
   1ae78: 2a e4        	c.sdsp	a0, 0x8(sp)
   1ae7a: 93 05 00 0a  	addi	a1, zero, 0xa0
   1ae7e: 93 09 00 0a  	addi	s3, zero, 0xa0
   1ae82: 26 85        	c.mv	a0, s1
   1ae84: ef 00 30 34  	jal	ra, 0x1b9c6 <jpeg_get_small>
   1ae88: 2a 84        	c.mv	s0, a0
   1ae8a: 01 ed        	c.bnez	a0, 0x1aea2 <jinit_memory_mgr+0x3c>
   1ae8c: 26 85        	c.mv	a0, s1
   1ae8e: ef 00 50 36  	jal	ra, 0x1b9f2 <jpeg_mem_term>
   1ae92: 88 60        	c.ld	a0, 0x0(s1)
   1ae94: 93 05 50 03  	addi	a1, zero, 0x35
   1ae98: 0c f5        	c.sd	a1, 0x28(a0)
   1ae9a: 88 60        	c.ld	a0, 0x0(s1)
   1ae9c: 0c 61        	c.ld	a1, 0x0(a0)
   1ae9e: 26 85        	c.mv	a0, s1
   1aea0: 82 95        	c.jalr	a1
   1aea2: 37 b5 01 00  	lui	a0, 0x1b
   1aea6: 13 05 25 f8  	addi	a0, a0, -0x7e
   1aeaa: 08 e0        	c.sd	a0, 0x0(s0)
   1aeac: 37 b5 01 00  	lui	a0, 0x1b
   1aeb0: 13 05 85 0a  	addi	a0, a0, 0xa8
   1aeb4: 08 e4        	c.sd	a0, 0x8(s0)
   1aeb6: 37 b5 01 00  	lui	a0, 0x1b
   1aeba: 13 05 05 14  	addi	a0, a0, 0x140
   1aebe: 08 e8        	c.sd	a0, 0x10(s0)
   1aec0: 37 b5 01 00  	lui	a0, 0x1b
   1aec4: 13 05 85 1e  	addi	a0, a0, 0x1e8
   1aec8: 08 ec        	c.sd	a0, 0x18(s0)
   1aeca: 37 b5 01 00  	lui	a0, 0x1b
   1aece: 13 05 05 2a  	addi	a0, a0, 0x2a0
   1aed2: 08 f0        	c.sd	a0, 0x20(s0)
   1aed4: 37 b5 01 00  	lui	a0, 0x1b
   1aed8: 13 05 c5 2f  	addi	a0, a0, 0x2fc
   1aedc: 08 f4        	c.sd	a0, 0x28(s0)
   1aede: 37 b5 01 00  	lui	a0, 0x1b
   1aee2: 13 05 85 35  	addi	a0, a0, 0x358
   1aee6: 08 f8        	c.sd	a0, 0x30(s0)
   1aee8: 37 b5 01 00  	lui	a0, 0x1b
   1aeec: 13 05 45 4e  	addi	a0, a0, 0x4e4
   1aef0: 08 fc        	c.sd	a0, 0x38(s0)
   1aef2: 37 b5 01 00  	lui	a0, 0x1b
   1aef6: 13 05 65 62  	addi	a0, a0, 0x626
   1aefa: 28 e0        	c.sd	a0, 0x40(s0)
   1aefc: 37 b5 01 00  	lui	a0, 0x1b
   1af00: 13 05 a5 76  	addi	a0, a0, 0x76a
   1af04: 28 e4        	c.sd	a0, 0x48(s0)
   1af06: 37 c5 01 00  	lui	a0, 0x1c
   1af0a: 13 05 e5 83  	addi	a0, a0, -0x7c2
   1af0e: 28 e8        	c.sd	a0, 0x50(s0)
   1af10: 23 3c 24 05  	sd	s2, 0x58(s0)
   1af14: 13 05 04 06  	addi	a0, s0, 0x60
   1af18: 13 06 00 03  	addi	a2, zero, 0x30
   1af1c: 81 45        	c.li	a1, 0x0
   1af1e: ef 20 f0 17  	jal	ra, 0x1d89c <memset>
   1af22: 23 38 34 09  	sd	s3, 0x90(s0)
   1af26: 80 e4        	c.sd	s0, 0x8(s1)
   1af28: 37 25 03 00  	lui	a0, 0x32
   1af2c: 13 05 e5 92  	addi	a0, a0, -0x6d2
   1af30: ef 00 10 2d  	jal	ra, 0x1ba00 <getenv>
   1af34: 21 c5        	c.beqz	a0, 0x1af7c <jinit_memory_mgr+0x116>
   1af36: 93 05 80 07  	addi	a1, zero, 0x78
   1af3a: a3 03 b1 00  	sb	a1, 0x7(sp)
   1af3e: b7 05 03 00  	lui	a1, 0x30
   1af42: 93 85 35 37  	addi	a1, a1, 0x373
   1af46: 30 00        	c.addi4spn	a2, sp, 0x8
   1af48: 93 06 71 00  	addi	a3, sp, 0x7
   1af4c: ef 10 f0 78  	jal	ra, 0x1ceda <sscanf>
   1af50: 63 56 a0 02  	bge	zero, a0, 0x1af7c <jinit_memory_mgr+0x116>
   1af54: 03 45 71 00  	lbu	a0, 0x7(sp)
   1af58: a2 64        	c.ldsp	s1, 0x8(sp)
   1af5a: 13 79 f5 0d  	andi	s2, a0, 0xdf
   1af5e: 93 05 80 3e  	addi	a1, zero, 0x3e8
   1af62: 26 85        	c.mv	a0, s1
   1af64: ef 40 d1 32  	jal	ra, 0x2fa90 <__muldi3>
   1af68: 93 05 d0 04  	addi	a1, zero, 0x4d
   1af6c: 63 03 b9 00  	beq	s2, a1, 0x1af72 <jinit_memory_mgr+0x10c>
   1af70: 26 85        	c.mv	a0, s1
   1af72: 93 05 80 3e  	addi	a1, zero, 0x3e8
   1af76: ef 40 b1 31  	jal	ra, 0x2fa90 <__muldi3>
   1af7a: 28 ec        	c.sd	a0, 0x58(s0)
   1af7c: 41 01        	c.addi	sp, 0x10
   1af7e: 6f 40 d1 2f  	jal	zero, 0x2fa7a <__riscv_restore_5>

000000000001af82 <alloc_small>:
   1af82: ef 42 11 2a  	jal	t0, 0x2fa22 <__riscv_save_11>
   1af86: 2a 8b        	c.mv	s6, a0
   1af88: 83 39 85 00  	ld	s3, 0x8(a0)
   1af8c: 37 d5 9a 3b  	lui	a0, 0x3b9ad
   1af90: 1b 05 95 9e  	addiw	a0, a0, -0x617
   1af94: b2 84        	c.mv	s1, a2
   1af96: 2e 89        	c.mv	s2, a1
   1af98: 63 6e a6 00  	bltu	a2, a0, 0x1afb4 <alloc_small+0x32>
   1af9c: 03 35 0b 00  	ld	a0, 0x0(s6)
   1afa0: 85 45        	c.li	a1, 0x1
   1afa2: 82 15        	c.slli	a1, 0x20
   1afa4: 93 85 55 03  	addi	a1, a1, 0x35
   1afa8: 0c f5        	c.sd	a1, 0x28(a0)
   1afaa: 03 35 0b 00  	ld	a0, 0x0(s6)
   1afae: 0c 61        	c.ld	a1, 0x0(a0)
   1afb0: 5a 85        	c.mv	a0, s6
   1afb2: 82 95        	c.jalr	a1
   1afb4: 09 45        	c.li	a0, 0x2
   1afb6: 9d 04        	c.addi	s1, 0x7
   1afb8: 63 6d a9 00  	bltu	s2, a0, 0x1afd2 <alloc_small+0x50>
   1afbc: 03 35 0b 00  	ld	a0, 0x0(s6)
   1afc0: 23 26 25 03  	sw	s2, 0x2c(a0)
   1afc4: 83 35 0b 00  	ld	a1, 0x0(s6)
   1afc8: 8c 61        	c.ld	a1, 0x0(a1)
   1afca: 31 46        	c.li	a2, 0xc
   1afcc: 10 d5        	c.sw	a2, 0x28(a0)
   1afce: 5a 85        	c.mv	a0, s6
   1afd0: 82 95        	c.jalr	a1
   1afd2: 93 1a 39 00  	slli	s5, s2, 0x3
   1afd6: ce 9a        	c.add	s5, s3
   1afd8: 03 b5 0a 06  	ld	a0, 0x60(s5)
   1afdc: 13 fa 84 ff  	andi	s4, s1, -0x8
   1afe0: 19 cd        	c.beqz	a0, 0x1affe <alloc_small+0x7c>
   1afe2: aa 8b        	c.mv	s7, a0
   1afe4: 08 69        	c.ld	a0, 0x10(a0)
   1afe6: 63 73 45 0b  	bgeu	a0, s4, 0x1b08c <alloc_small+0x10a>
   1afea: 03 b5 0b 00  	ld	a0, 0x0(s7)
   1afee: 75 f9        	c.bnez	a0, 0x1afe2 <alloc_small+0x60>
   1aff0: 63 8a 0b 00  	beq	s7, zero, 0x1b004 <alloc_small+0x82>
   1aff4: 37 25 03 00  	lui	a0, 0x32
   1aff8: 13 05 85 27  	addi	a0, a0, 0x278
   1affc: 01 a8        	c.j	0x1b00c <alloc_small+0x8a>
   1affe: 81 4b        	c.li	s7, 0x0
   1b000: e3 1a 00 fe  	bne	zero, zero, 0x1aff4 <alloc_small+0x72>
   1b004: 37 25 03 00  	lui	a0, 0x32
   1b008: 13 05 85 26  	addi	a0, a0, 0x268
   1b00c: 0e 09        	c.slli	s2, 0x3
   1b00e: 4a 95        	c.add	a0, s2
   1b010: 04 61        	c.ld	s1, 0x0(a0)
   1b012: 37 d5 9a 3b  	lui	a0, 0x3b9ad
   1b016: 1b 05 85 9e  	addiw	a0, a0, -0x618
   1b01a: 33 05 45 41  	sub	a0, a0, s4
   1b01e: 13 09 8a 01  	addi	s2, s4, 0x18
   1b022: 63 e3 a4 00  	bltu	s1, a0, 0x1b028 <alloc_small+0xa6>
   1b026: aa 84        	c.mv	s1, a0
   1b028: 33 04 99 00  	add	s0, s2, s1
   1b02c: 5a 85        	c.mv	a0, s6
   1b02e: a2 85        	c.mv	a1, s0
   1b030: ef 00 70 19  	jal	ra, 0x1b9c6 <jpeg_get_small>
   1b034: 15 e9        	c.bnez	a0, 0x1b068 <alloc_small+0xe6>
   1b036: 13 0c 30 06  	addi	s8, zero, 0x63
   1b03a: 05 45        	c.li	a0, 0x1
   1b03c: 06 15        	c.slli	a0, 0x21
   1b03e: 93 0c 55 03  	addi	s9, a0, 0x35
   1b042: 63 6b 9c 00  	bltu	s8, s1, 0x1b058 <alloc_small+0xd6>
   1b046: 03 35 0b 00  	ld	a0, 0x0(s6)
   1b04a: 23 34 95 03  	sd	s9, 0x28(a0)
   1b04e: 03 35 0b 00  	ld	a0, 0x0(s6)
   1b052: 0c 61        	c.ld	a1, 0x0(a0)
   1b054: 5a 85        	c.mv	a0, s6
   1b056: 82 95        	c.jalr	a1
   1b058: 85 80        	c.srli	s1, 0x1
   1b05a: 33 04 99 00  	add	s0, s2, s1
   1b05e: 5a 85        	c.mv	a0, s6
   1b060: a2 85        	c.mv	a1, s0
   1b062: ef 00 50 16  	jal	ra, 0x1b9c6 <jpeg_get_small>
   1b066: 71 dd        	c.beqz	a0, 0x1b042 <alloc_small+0xc0>
   1b068: 83 b5 09 09  	ld	a1, 0x90(s3)
   1b06c: a2 95        	c.add	a1, s0
   1b06e: 23 b8 b9 08  	sd	a1, 0x90(s3)
   1b072: d2 94        	c.add	s1, s4
   1b074: 23 34 05 00  	sd	zero, 0x8(a0)
   1b078: 23 30 05 00  	sd	zero, 0x0(a0)
   1b07c: 04 e9        	c.sd	s1, 0x10(a0)
   1b07e: 63 94 0b 00  	bne	s7, zero, 0x1b086 <alloc_small+0x104>
   1b082: 93 8b 0a 06  	addi	s7, s5, 0x60
   1b086: 23 b0 ab 00  	sd	a0, 0x0(s7)
   1b08a: 11 a0        	c.j	0x1b08e <alloc_small+0x10c>
   1b08c: 5e 85        	c.mv	a0, s7
   1b08e: 0c 65        	c.ld	a1, 0x8(a0)
   1b090: 33 86 45 01  	add	a2, a1, s4
   1b094: 14 69        	c.ld	a3, 0x10(a0)
   1b096: 10 e5        	c.sd	a2, 0x8(a0)
   1b098: aa 95        	c.add	a1, a0
   1b09a: e1 05        	c.addi	a1, 0x18
   1b09c: 33 86 46 41  	sub	a2, a3, s4
   1b0a0: 10 e9        	c.sd	a2, 0x10(a0)
   1b0a2: 2e 85        	c.mv	a0, a1
   1b0a4: 6f 40 51 1c  	jal	zero, 0x2fa68 <__riscv_restore_11>

000000000001b0a8 <alloc_large>:
   1b0a8: ef 42 f1 18  	jal	t0, 0x2fa36 <__riscv_save_7>
   1b0ac: aa 84        	c.mv	s1, a0
   1b0ae: 03 3a 85 00  	ld	s4, 0x8(a0)
   1b0b2: 37 d5 9a 3b  	lui	a0, 0x3b9ad
   1b0b6: 1b 05 95 9e  	addiw	a0, a0, -0x617
   1b0ba: 32 84        	c.mv	s0, a2
   1b0bc: 2e 89        	c.mv	s2, a1
   1b0be: 63 6c a6 00  	bltu	a2, a0, 0x1b0d6 <alloc_large+0x2e>
   1b0c2: 88 60        	c.ld	a0, 0x0(s1)
   1b0c4: 8d 45        	c.li	a1, 0x3
   1b0c6: 82 15        	c.slli	a1, 0x20
   1b0c8: 93 85 55 03  	addi	a1, a1, 0x35
   1b0cc: 0c f5        	c.sd	a1, 0x28(a0)
   1b0ce: 88 60        	c.ld	a0, 0x0(s1)
   1b0d0: 0c 61        	c.ld	a1, 0x0(a0)
   1b0d2: 26 85        	c.mv	a0, s1
   1b0d4: 82 95        	c.jalr	a1
   1b0d6: 1d 04        	c.addi	s0, 0x7
   1b0d8: 09 45        	c.li	a0, 0x2
   1b0da: 93 7a 84 ff  	andi	s5, s0, -0x8
   1b0de: 63 6b a9 00  	bltu	s2, a0, 0x1b0f4 <alloc_large+0x4c>
   1b0e2: 88 60        	c.ld	a0, 0x0(s1)
   1b0e4: 23 26 25 03  	sw	s2, 0x2c(a0)
   1b0e8: 8c 60        	c.ld	a1, 0x0(s1)
   1b0ea: 8c 61        	c.ld	a1, 0x0(a1)
   1b0ec: 31 46        	c.li	a2, 0xc
   1b0ee: 10 d5        	c.sw	a2, 0x28(a0)
   1b0f0: 26 85        	c.mv	a0, s1
   1b0f2: 82 95        	c.jalr	a1
   1b0f4: 93 89 8a 01  	addi	s3, s5, 0x18
   1b0f8: 26 85        	c.mv	a0, s1
   1b0fa: ce 85        	c.mv	a1, s3
   1b0fc: ef 00 70 0d  	jal	ra, 0x1b9d2 <jpeg_get_large>
   1b100: 2a 84        	c.mv	s0, a0
   1b102: 19 e9        	c.bnez	a0, 0x1b118 <alloc_large+0x70>
   1b104: 88 60        	c.ld	a0, 0x0(s1)
   1b106: 85 45        	c.li	a1, 0x1
   1b108: 8a 15        	c.slli	a1, 0x22
   1b10a: 93 85 55 03  	addi	a1, a1, 0x35
   1b10e: 0c f5        	c.sd	a1, 0x28(a0)
   1b110: 88 60        	c.ld	a0, 0x0(s1)
   1b112: 0c 61        	c.ld	a1, 0x0(a0)
   1b114: 26 85        	c.mv	a0, s1
   1b116: 82 95        	c.jalr	a1
   1b118: 03 35 0a 09  	ld	a0, 0x90(s4)
   1b11c: 0e 09        	c.slli	s2, 0x3
   1b11e: 52 99        	c.add	s2, s4
   1b120: 83 35 09 07  	ld	a1, 0x70(s2)
   1b124: 4e 95        	c.add	a0, s3
   1b126: 23 38 aa 08  	sd	a0, 0x90(s4)
   1b12a: 0c e0        	c.sd	a1, 0x0(s0)
   1b12c: 23 34 54 01  	sd	s5, 0x8(s0)
   1b130: 23 38 04 00  	sd	zero, 0x10(s0)
   1b134: 13 05 84 01  	addi	a0, s0, 0x18
   1b138: 23 38 89 06  	sd	s0, 0x70(s2)
   1b13c: 6f 40 91 13  	jal	zero, 0x2fa74 <__riscv_restore_7>

000000000001b140 <alloc_sarray>:
   1b140: ef 42 d1 0e  	jal	t0, 0x2fa2c <__riscv_save_9>
   1b144: aa 89        	c.mv	s3, a0
   1b146: 83 3b 85 00  	ld	s7, 0x8(a0)
   1b14a: 36 8a        	c.mv	s4, a3
   1b14c: b2 84        	c.mv	s1, a2
   1b14e: 2e 89        	c.mv	s2, a1
   1b150: 13 15 06 02  	slli	a0, a2, 0x20
   1b154: 13 5b 05 02  	srli	s6, a0, 0x20
   1b158: 37 d4 9a 3b  	lui	s0, 0x3b9ad
   1b15c: 1b 05 84 9e  	addiw	a0, s0, -0x618
   1b160: da 85        	c.mv	a1, s6
   1b162: ef 40 71 17  	jal	ra, 0x2fad8 <__udivdi3>
   1b166: 9b 05 94 9e  	addiw	a1, s0, -0x617
   1b16a: aa 8a        	c.mv	s5, a0
   1b16c: 63 ea b4 00  	bltu	s1, a1, 0x1b180 <alloc_sarray+0x40>
   1b170: 03 b5 09 00  	ld	a0, 0x0(s3)
   1b174: 0c 61        	c.ld	a1, 0x0(a0)
   1b176: 13 06 50 04  	addi	a2, zero, 0x45
   1b17a: 10 d5        	c.sw	a2, 0x28(a0)
   1b17c: 4e 85        	c.mv	a0, s3
   1b17e: 82 95        	c.jalr	a1
   1b180: 81 2a        	c.addiw	s5, 0x0
   1b182: 63 e3 4a 01  	bltu	s5, s4, 0x1b188 <alloc_sarray+0x48>
   1b186: d2 8a        	c.mv	s5, s4
   1b188: 23 ac 5b 09  	sw	s5, 0x98(s7)
   1b18c: 13 16 0a 02  	slli	a2, s4, 0x20
   1b190: 75 82        	c.srli	a2, 0x1d
   1b192: 4e 85        	c.mv	a0, s3
   1b194: ca 85        	c.mv	a1, s2
   1b196: ef f0 df de  	jal	ra, 0x1af82 <alloc_small>
   1b19a: aa 84        	c.mv	s1, a0
   1b19c: 63 03 0a 04  	beq	s4, zero, 0x1b1e2 <alloc_sarray+0xa2>
   1b1a0: 01 44        	c.li	s0, 0x0
   1b1a2: 3b 05 8a 40  	subw	a0, s4, s0
   1b1a6: 63 e3 aa 00  	bltu	s5, a0, 0x1b1ac <alloc_sarray+0x6c>
   1b1aa: aa 8a        	c.mv	s5, a0
   1b1ac: 56 85        	c.mv	a0, s5
   1b1ae: da 85        	c.mv	a1, s6
   1b1b0: ef 40 11 0e  	jal	ra, 0x2fa90 <__muldi3>
   1b1b4: 2a 86        	c.mv	a2, a0
   1b1b6: 4e 85        	c.mv	a0, s3
   1b1b8: ca 85        	c.mv	a1, s2
   1b1ba: ef f0 ff ee  	jal	ra, 0x1b0a8 <alloc_large>
   1b1be: 63 8e 0a 00  	beq	s5, zero, 0x1b1da <alloc_sarray+0x9a>
   1b1c2: 56 86        	c.mv	a2, s5
   1b1c4: 9b 05 14 00  	addiw	a1, s0, 0x1
   1b1c8: 02 14        	c.slli	s0, 0x20
   1b1ca: 75 80        	c.srli	s0, 0x1d
   1b1cc: 26 94        	c.add	s0, s1
   1b1ce: 08 e0        	c.sd	a0, 0x0(s0)
   1b1d0: 7d 36        	c.addiw	a2, -0x1
   1b1d2: 5a 95        	c.add	a0, s6
   1b1d4: 2e 84        	c.mv	s0, a1
   1b1d6: 7d f6        	c.bnez	a2, 0x1b1c4 <alloc_sarray+0x84>
   1b1d8: 11 a0        	c.j	0x1b1dc <alloc_sarray+0x9c>
   1b1da: a2 85        	c.mv	a1, s0
   1b1dc: 2e 84        	c.mv	s0, a1
   1b1de: e3 e2 45 fd  	bltu	a1, s4, 0x1b1a2 <alloc_sarray+0x62>
   1b1e2: 26 85        	c.mv	a0, s1
   1b1e4: 6f 40 b1 08  	jal	zero, 0x2fa6e <__riscv_restore_9>

000000000001b1e8 <alloc_barray>:
   1b1e8: ef 42 51 04  	jal	t0, 0x2fa2c <__riscv_save_9>
   1b1ec: 2a 8a        	c.mv	s4, a0
   1b1ee: 83 3b 85 00  	ld	s7, 0x8(a0)
   1b1f2: b6 8a        	c.mv	s5, a3
   1b1f4: 32 84        	c.mv	s0, a2
   1b1f6: 2e 89        	c.mv	s2, a1
   1b1f8: 93 14 06 02  	slli	s1, a2, 0x20
   1b1fc: 93 d9 94 01  	srli	s3, s1, 0x19
   1b200: 37 d5 9a 3b  	lui	a0, 0x3b9ad
   1b204: 1b 05 85 9e  	addiw	a0, a0, -0x618
   1b208: ce 85        	c.mv	a1, s3
   1b20a: ef 40 f1 0c  	jal	ra, 0x2fad8 <__udivdi3>
   1b20e: b7 35 77 00  	lui	a1, 0x773
   1b212: 9b 85 45 59  	addiw	a1, a1, 0x594
   1b216: 2a 8b        	c.mv	s6, a0
   1b218: 63 6a b4 00  	bltu	s0, a1, 0x1b22c <alloc_barray+0x44>
   1b21c: 03 35 0a 00  	ld	a0, 0x0(s4)
   1b220: 0c 61        	c.ld	a1, 0x0(a0)
   1b222: 13 06 50 04  	addi	a2, zero, 0x45
   1b226: 10 d5        	c.sw	a2, 0x28(a0)
   1b228: 52 85        	c.mv	a0, s4
   1b22a: 82 95        	c.jalr	a1
   1b22c: 13 96 0a 02  	slli	a2, s5, 0x20
   1b230: 13 55 06 02  	srli	a0, a2, 0x20
   1b234: 63 63 ab 00  	bltu	s6, a0, 0x1b23a <alloc_barray+0x52>
   1b238: 56 8b        	c.mv	s6, s5
   1b23a: 23 ac 6b 09  	sw	s6, 0x98(s7)
   1b23e: 75 82        	c.srli	a2, 0x1d
   1b240: 52 85        	c.mv	a0, s4
   1b242: ca 85        	c.mv	a1, s2
   1b244: ef f0 ff d3  	jal	ra, 0x1af82 <alloc_small>
   1b248: aa 8b        	c.mv	s7, a0
   1b24a: 63 88 0a 04  	beq	s5, zero, 0x1b29a <alloc_barray+0xb2>
   1b24e: 01 44        	c.li	s0, 0x0
   1b250: 81 90        	c.srli	s1, 0x20
   1b252: 9e 04        	c.slli	s1, 0x7
   1b254: 3b 85 8a 40  	subw	a0, s5, s0
   1b258: 01 2b        	c.addiw	s6, 0x0
   1b25a: 63 63 ab 00  	bltu	s6, a0, 0x1b260 <alloc_barray+0x78>
   1b25e: 2a 8b        	c.mv	s6, a0
   1b260: 93 15 0b 02  	slli	a1, s6, 0x20
   1b264: 81 91        	c.srli	a1, 0x20
   1b266: 4e 85        	c.mv	a0, s3
   1b268: ef 40 91 02  	jal	ra, 0x2fa90 <__muldi3>
   1b26c: 2a 86        	c.mv	a2, a0
   1b26e: 52 85        	c.mv	a0, s4
   1b270: ca 85        	c.mv	a1, s2
   1b272: ef f0 7f e3  	jal	ra, 0x1b0a8 <alloc_large>
   1b276: 63 0e 0b 00  	beq	s6, zero, 0x1b292 <alloc_barray+0xaa>
   1b27a: 5a 86        	c.mv	a2, s6
   1b27c: 9b 05 14 00  	addiw	a1, s0, 0x1
   1b280: 02 14        	c.slli	s0, 0x20
   1b282: 75 80        	c.srli	s0, 0x1d
   1b284: 5e 94        	c.add	s0, s7
   1b286: 08 e0        	c.sd	a0, 0x0(s0)
   1b288: 7d 36        	c.addiw	a2, -0x1
   1b28a: 26 95        	c.add	a0, s1
   1b28c: 2e 84        	c.mv	s0, a1
   1b28e: 7d f6        	c.bnez	a2, 0x1b27c <alloc_barray+0x94>
   1b290: 11 a0        	c.j	0x1b294 <alloc_barray+0xac>
   1b292: a2 85        	c.mv	a1, s0
   1b294: 2e 84        	c.mv	s0, a1
   1b296: e3 ef 55 fb  	bltu	a1, s5, 0x1b254 <alloc_barray+0x6c>
   1b29a: 5e 85        	c.mv	a0, s7
   1b29c: 6f 40 21 7d  	jal	zero, 0x2fa6e <__riscv_restore_9>

000000000001b2a0 <request_virt_sarray>:
   1b2a0: ef 42 61 79  	jal	t0, 0x2fa36 <__riscv_save_7>
   1b2a4: 2a 84        	c.mv	s0, a0
   1b2a6: 03 3b 85 00  	ld	s6, 0x8(a0)
   1b2aa: 05 45        	c.li	a0, 0x1
   1b2ac: 3e 89        	c.mv	s2, a5
   1b2ae: 3a 8a        	c.mv	s4, a4
   1b2b0: b6 8a        	c.mv	s5, a3
   1b2b2: b2 89        	c.mv	s3, a2
   1b2b4: ae 84        	c.mv	s1, a1
   1b2b6: 63 8a a5 00  	beq	a1, a0, 0x1b2ca <request_virt_sarray+0x2a>
   1b2ba: 08 60        	c.ld	a0, 0x0(s0)
   1b2bc: 44 d5        	c.sw	s1, 0x2c(a0)
   1b2be: 0c 60        	c.ld	a1, 0x0(s0)
   1b2c0: 8c 61        	c.ld	a1, 0x0(a1)
   1b2c2: 31 46        	c.li	a2, 0xc
   1b2c4: 10 d5        	c.sw	a2, 0x28(a0)
   1b2c6: 22 85        	c.mv	a0, s0
   1b2c8: 82 95        	c.jalr	a1
   1b2ca: 13 06 80 09  	addi	a2, zero, 0x98
   1b2ce: 22 85        	c.mv	a0, s0
   1b2d0: a6 85        	c.mv	a1, s1
   1b2d2: ef f0 1f cb  	jal	ra, 0x1af82 <alloc_small>
   1b2d6: 23 30 05 00  	sd	zero, 0x0(a0)
   1b2da: 23 24 45 01  	sw	s4, 0x8(a0)
   1b2de: 23 26 55 01  	sw	s5, 0xc(a0)
   1b2e2: 83 35 0b 08  	ld	a1, 0x80(s6)
   1b2e6: 23 28 25 01  	sw	s2, 0x10(a0)
   1b2ea: 23 22 35 03  	sw	s3, 0x24(a0)
   1b2ee: 23 26 05 02  	sw	zero, 0x2c(a0)
   1b2f2: 0c f9        	c.sd	a1, 0x30(a0)
   1b2f4: 23 30 ab 08  	sd	a0, 0x80(s6)
   1b2f8: 6f 40 c1 77  	jal	zero, 0x2fa74 <__riscv_restore_7>

000000000001b2fc <request_virt_barray>:
   1b2fc: ef 42 a1 73  	jal	t0, 0x2fa36 <__riscv_save_7>
   1b300: 2a 84        	c.mv	s0, a0
   1b302: 03 3b 85 00  	ld	s6, 0x8(a0)
   1b306: 05 45        	c.li	a0, 0x1
   1b308: 3e 89        	c.mv	s2, a5
   1b30a: 3a 8a        	c.mv	s4, a4
   1b30c: b6 8a        	c.mv	s5, a3
   1b30e: b2 89        	c.mv	s3, a2
   1b310: ae 84        	c.mv	s1, a1
   1b312: 63 8a a5 00  	beq	a1, a0, 0x1b326 <request_virt_barray+0x2a>
   1b316: 08 60        	c.ld	a0, 0x0(s0)
   1b318: 44 d5        	c.sw	s1, 0x2c(a0)
   1b31a: 0c 60        	c.ld	a1, 0x0(s0)
   1b31c: 8c 61        	c.ld	a1, 0x0(a1)
   1b31e: 31 46        	c.li	a2, 0xc
   1b320: 10 d5        	c.sw	a2, 0x28(a0)
   1b322: 22 85        	c.mv	a0, s0
   1b324: 82 95        	c.jalr	a1
   1b326: 13 06 80 09  	addi	a2, zero, 0x98
   1b32a: 22 85        	c.mv	a0, s0
   1b32c: a6 85        	c.mv	a1, s1
   1b32e: ef f0 5f c5  	jal	ra, 0x1af82 <alloc_small>
   1b332: 23 30 05 00  	sd	zero, 0x0(a0)
   1b336: 23 24 45 01  	sw	s4, 0x8(a0)
   1b33a: 23 26 55 01  	sw	s5, 0xc(a0)
   1b33e: 83 35 8b 08  	ld	a1, 0x88(s6)
   1b342: 23 28 25 01  	sw	s2, 0x10(a0)
   1b346: 23 22 35 03  	sw	s3, 0x24(a0)
   1b34a: 23 26 05 02  	sw	zero, 0x2c(a0)
   1b34e: 0c f9        	c.sd	a1, 0x30(a0)
   1b350: 23 34 ab 08  	sd	a0, 0x88(s6)
   1b354: 6f 40 01 72  	jal	zero, 0x2fa74 <__riscv_restore_7>

000000000001b358 <realize_virt_arrays>:
   1b358: ef 42 e1 6d  	jal	t0, 0x2fa36 <__riscv_save_7>
   1b35c: 2a 89        	c.mv	s2, a0
   1b35e: 03 3a 85 00  	ld	s4, 0x8(a0)
   1b362: 03 34 0a 08  	ld	s0, 0x80(s4)
   1b366: 1d c4        	c.beqz	s0, 0x1b394 <realize_virt_arrays+0x3c>
   1b368: 81 49        	c.li	s3, 0x0
   1b36a: 81 4a        	c.li	s5, 0x0
   1b36c: 08 60        	c.ld	a0, 0x0(s0)
   1b36e: 05 e1        	c.bnez	a0, 0x1b38e <realize_virt_arrays+0x36>
   1b370: 83 65 04 01  	lwu	a1, 0x10(s0)
   1b374: 83 64 c4 00  	lwu	s1, 0xc(s0)
   1b378: 26 85        	c.mv	a0, s1
   1b37a: ef 40 61 71  	jal	ra, 0x2fa90 <__muldi3>
   1b37e: 83 65 84 00  	lwu	a1, 0x8(s0)
   1b382: aa 99        	c.add	s3, a0
   1b384: 2e 85        	c.mv	a0, a1
   1b386: a6 85        	c.mv	a1, s1
   1b388: ef 40 81 70  	jal	ra, 0x2fa90 <__muldi3>
   1b38c: aa 9a        	c.add	s5, a0
   1b38e: 00 78        	c.ld	s0, 0x30(s0)
   1b390: 71 fc        	c.bnez	s0, 0x1b36c <realize_virt_arrays+0x14>
   1b392: 19 a0        	c.j	0x1b398 <realize_virt_arrays+0x40>
   1b394: 81 4a        	c.li	s5, 0x0
   1b396: 81 49        	c.li	s3, 0x0
   1b398: 03 34 8a 08  	ld	s0, 0x88(s4)
   1b39c: 0d c4        	c.beqz	s0, 0x1b3c6 <realize_virt_arrays+0x6e>
   1b39e: 08 60        	c.ld	a0, 0x0(s0)
   1b3a0: 0d e1        	c.bnez	a0, 0x1b3c2 <realize_virt_arrays+0x6a>
   1b3a2: 03 65 04 01  	lwu	a0, 0x10(s0)
   1b3a6: 83 64 c4 00  	lwu	s1, 0xc(s0)
   1b3aa: a6 85        	c.mv	a1, s1
   1b3ac: ef 40 41 6e  	jal	ra, 0x2fa90 <__muldi3>
   1b3b0: 83 65 84 00  	lwu	a1, 0x8(s0)
   1b3b4: 1e 05        	c.slli	a0, 0x7
   1b3b6: aa 99        	c.add	s3, a0
   1b3b8: 26 85        	c.mv	a0, s1
   1b3ba: ef 40 61 6d  	jal	ra, 0x2fa90 <__muldi3>
   1b3be: 1e 05        	c.slli	a0, 0x7
   1b3c0: aa 9a        	c.add	s5, a0
   1b3c2: 00 78        	c.ld	s0, 0x30(s0)
   1b3c4: 69 fc        	c.bnez	s0, 0x1b39e <realize_virt_arrays+0x46>
   1b3c6: 63 5d 30 11  	bge	zero, s3, 0x1b4e0 <realize_virt_arrays+0x188>
   1b3ca: 83 36 0a 09  	ld	a3, 0x90(s4)
   1b3ce: 4a 85        	c.mv	a0, s2
   1b3d0: ce 85        	c.mv	a1, s3
   1b3d2: 56 86        	c.mv	a2, s5
   1b3d4: ef 00 a0 60  	jal	ra, 0x1b9de <jpeg_mem_available>
   1b3d8: 63 5a 55 01  	bge	a0, s5, 0x1b3ec <realize_virt_arrays+0x94>
   1b3dc: ce 85        	c.mv	a1, s3
   1b3de: ef 40 21 6f  	jal	ra, 0x2fad0 <__divdi3>
   1b3e2: aa 89        	c.mv	s3, a0
   1b3e4: 63 48 a0 00  	blt	zero, a0, 0x1b3f4 <realize_virt_arrays+0x9c>
   1b3e8: 85 49        	c.li	s3, 0x1
   1b3ea: 29 a0        	c.j	0x1b3f4 <realize_virt_arrays+0x9c>
   1b3ec: 37 d5 9a 3b  	lui	a0, 0x3b9ad
   1b3f0: 9b 09 05 a0  	addiw	s3, a0, -0x600
   1b3f4: 83 34 0a 08  	ld	s1, 0x80(s4)
   1b3f8: ad c8        	c.beqz	s1, 0x1b46a <realize_virt_arrays+0x112>
   1b3fa: 05 4b        	c.li	s6, 0x1
   1b3fc: 88 60        	c.ld	a0, 0x0(s1)
   1b3fe: 25 e5        	c.bnez	a0, 0x1b466 <realize_virt_arrays+0x10e>
   1b400: 03 e4 84 00  	lwu	s0, 0x8(s1)
   1b404: 83 ea 04 01  	lwu	s5, 0x10(s1)
   1b408: 13 05 f4 ff  	addi	a0, s0, -0x1
   1b40c: d6 85        	c.mv	a1, s5
   1b40e: ef 40 21 6c  	jal	ra, 0x2fad0 <__divdi3>
   1b412: 63 54 35 01  	bge	a0, s3, 0x1b41a <realize_virt_arrays+0xc2>
   1b416: c0 c8        	c.sw	s0, 0x14(s1)
   1b418: 35 a0        	c.j	0x1b444 <realize_virt_arrays+0xec>
   1b41a: 56 85        	c.mv	a0, s5
   1b41c: ce 85        	c.mv	a1, s3
   1b41e: ef 40 21 67  	jal	ra, 0x2fa90 <__muldi3>
   1b422: 83 e5 c4 00  	lwu	a1, 0xc(s1)
   1b426: c8 c8        	c.sw	a0, 0x14(s1)
   1b428: 93 8a 84 03  	addi	s5, s1, 0x38
   1b42c: 2e 85        	c.mv	a0, a1
   1b42e: a2 85        	c.mv	a1, s0
   1b430: ef 40 01 66  	jal	ra, 0x2fa90 <__muldi3>
   1b434: 2a 86        	c.mv	a2, a0
   1b436: 4a 85        	c.mv	a0, s2
   1b438: d6 85        	c.mv	a1, s5
   1b43a: ef 00 80 5a  	jal	ra, 0x1b9e2 <jpeg_open_backing_store>
   1b43e: c0 48        	c.lw	s0, 0x14(s1)
   1b440: 23 a6 64 03  	sw	s6, 0x2c(s1)
   1b444: d0 44        	c.lw	a2, 0xc(s1)
   1b446: 9b 06 04 00  	addiw	a3, s0, 0x0
   1b44a: 85 45        	c.li	a1, 0x1
   1b44c: 4a 85        	c.mv	a0, s2
   1b44e: ef f0 3f cf  	jal	ra, 0x1b140 <alloc_sarray>
   1b452: 83 25 8a 09  	lw	a1, 0x98(s4)
   1b456: 88 e0        	c.sd	a0, 0x0(s1)
   1b458: 8c cc        	c.sw	a1, 0x18(s1)
   1b45a: 23 ae 04 00  	sw	zero, 0x1c(s1)
   1b45e: 23 a0 04 02  	sw	zero, 0x20(s1)
   1b462: 23 a4 04 02  	sw	zero, 0x28(s1)
   1b466: 84 78        	c.ld	s1, 0x30(s1)
   1b468: d1 f8        	c.bnez	s1, 0x1b3fc <realize_virt_arrays+0xa4>
   1b46a: 83 34 8a 08  	ld	s1, 0x88(s4)
   1b46e: ad c8        	c.beqz	s1, 0x1b4e0 <realize_virt_arrays+0x188>
   1b470: 05 4b        	c.li	s6, 0x1
   1b472: 88 60        	c.ld	a0, 0x0(s1)
   1b474: 25 e5        	c.bnez	a0, 0x1b4dc <realize_virt_arrays+0x184>
   1b476: 03 e4 84 00  	lwu	s0, 0x8(s1)
   1b47a: 83 ea 04 01  	lwu	s5, 0x10(s1)
   1b47e: 13 05 f4 ff  	addi	a0, s0, -0x1
   1b482: d6 85        	c.mv	a1, s5
   1b484: ef 40 c1 64  	jal	ra, 0x2fad0 <__divdi3>
   1b488: 63 54 35 01  	bge	a0, s3, 0x1b490 <realize_virt_arrays+0x138>
   1b48c: c0 c8        	c.sw	s0, 0x14(s1)
   1b48e: 35 a0        	c.j	0x1b4ba <realize_virt_arrays+0x162>
   1b490: 56 85        	c.mv	a0, s5
   1b492: ce 85        	c.mv	a1, s3
   1b494: ef 40 c1 5f  	jal	ra, 0x2fa90 <__muldi3>
   1b498: 83 e5 c4 00  	lwu	a1, 0xc(s1)
   1b49c: c8 c8        	c.sw	a0, 0x14(s1)
   1b49e: 93 8a 84 03  	addi	s5, s1, 0x38
   1b4a2: 22 85        	c.mv	a0, s0
   1b4a4: ef 40 c1 5e  	jal	ra, 0x2fa90 <__muldi3>
   1b4a8: 13 16 75 00  	slli	a2, a0, 0x7
   1b4ac: 4a 85        	c.mv	a0, s2
   1b4ae: d6 85        	c.mv	a1, s5
   1b4b0: ef 00 20 53  	jal	ra, 0x1b9e2 <jpeg_open_backing_store>
   1b4b4: c0 48        	c.lw	s0, 0x14(s1)
   1b4b6: 23 a6 64 03  	sw	s6, 0x2c(s1)
   1b4ba: d0 44        	c.lw	a2, 0xc(s1)
   1b4bc: 9b 06 04 00  	addiw	a3, s0, 0x0
   1b4c0: 85 45        	c.li	a1, 0x1
   1b4c2: 4a 85        	c.mv	a0, s2
   1b4c4: ef f0 5f d2  	jal	ra, 0x1b1e8 <alloc_barray>
   1b4c8: 83 25 8a 09  	lw	a1, 0x98(s4)
   1b4cc: 88 e0        	c.sd	a0, 0x0(s1)
   1b4ce: 8c cc        	c.sw	a1, 0x18(s1)
   1b4d0: 23 ae 04 00  	sw	zero, 0x1c(s1)
   1b4d4: 23 a0 04 02  	sw	zero, 0x20(s1)
   1b4d8: 23 a4 04 02  	sw	zero, 0x28(s1)
   1b4dc: 84 78        	c.ld	s1, 0x30(s1)
   1b4de: d1 f8        	c.bnez	s1, 0x1b472 <realize_virt_arrays+0x11a>
   1b4e0: 6f 40 41 59  	jal	zero, 0x2fa74 <__riscv_restore_7>

000000000001b4e4 <access_virt_sarray>:
   1b4e4: ef 42 21 55  	jal	t0, 0x2fa36 <__riscv_save_7>
   1b4e8: ae 8a        	c.mv	s5, a1
   1b4ea: 8c 45        	c.lw	a1, 0x8(a1)
   1b4ec: b2 89        	c.mv	s3, a2
   1b4ee: 3b 8a c6 00  	addw	s4, a3, a2
   1b4f2: 3a 89        	c.mv	s2, a4
   1b4f4: aa 84        	c.mv	s1, a0
   1b4f6: 63 e9 45 01  	bltu	a1, s4, 0x1b508 <access_virt_sarray+0x24>
   1b4fa: 03 a5 0a 01  	lw	a0, 0x10(s5)
   1b4fe: 63 65 d5 00  	bltu	a0, a3, 0x1b508 <access_virt_sarray+0x24>
   1b502: 03 b5 0a 00  	ld	a0, 0x0(s5)
   1b506: 19 e5        	c.bnez	a0, 0x1b514 <access_virt_sarray+0x30>
   1b508: 88 60        	c.ld	a0, 0x0(s1)
   1b50a: 0c 61        	c.ld	a1, 0x0(a0)
   1b50c: 51 46        	c.li	a2, 0x14
   1b50e: 10 d5        	c.sw	a2, 0x28(a0)
   1b510: 26 85        	c.mv	a0, s1
   1b512: 82 95        	c.jalr	a1
   1b514: 03 a5 ca 01  	lw	a0, 0x1c(s5)
   1b518: 63 e7 a9 00  	bltu	s3, a0, 0x1b526 <access_virt_sarray+0x42>
   1b51c: 83 a5 4a 01  	lw	a1, 0x14(s5)
   1b520: 2d 9d        	c.addw	a0, a1
   1b522: 63 7d 45 05  	bgeu	a0, s4, 0x1b57c <access_virt_sarray+0x98>
   1b526: 03 a5 ca 02  	lw	a0, 0x2c(s5)
   1b52a: 01 e9        	c.bnez	a0, 0x1b53a <access_virt_sarray+0x56>
   1b52c: 88 60        	c.ld	a0, 0x0(s1)
   1b52e: 0c 61        	c.ld	a1, 0x0(a0)
   1b530: 13 06 40 04  	addi	a2, zero, 0x44
   1b534: 10 d5        	c.sw	a2, 0x28(a0)
   1b536: 26 85        	c.mv	a0, s1
   1b538: 82 95        	c.jalr	a1
   1b53a: 03 a5 8a 02  	lw	a0, 0x28(s5)
   1b53e: 01 c9        	c.beqz	a0, 0x1b54e <access_virt_sarray+0x6a>
   1b540: 05 46        	c.li	a2, 0x1
   1b542: 26 85        	c.mv	a0, s1
   1b544: d6 85        	c.mv	a1, s5
   1b546: ef 00 60 33  	jal	ra, 0x1b87c <do_sarray_io>
   1b54a: 23 a4 0a 02  	sw	zero, 0x28(s5)
   1b54e: 83 a5 ca 01  	lw	a1, 0x1c(s5)
   1b552: 4e 85        	c.mv	a0, s3
   1b554: 63 ed 35 01  	bltu	a1, s3, 0x1b56e <access_virt_sarray+0x8a>
   1b558: 03 e5 4a 01  	lwu	a0, 0x14(s5)
   1b55c: 93 15 0a 02  	slli	a1, s4, 0x20
   1b560: 81 91        	c.srli	a1, 0x20
   1b562: 89 8d        	c.sub	a1, a0
   1b564: 33 25 b0 00  	slt	a0, zero, a1
   1b568: 33 05 a0 40  	sub	a0, zero, a0
   1b56c: 6d 8d        	c.and	a0, a1
   1b56e: 23 ae aa 00  	sw	a0, 0x1c(s5)
   1b572: 26 85        	c.mv	a0, s1
   1b574: d6 85        	c.mv	a1, s5
   1b576: 01 46        	c.li	a2, 0x0
   1b578: ef 00 40 30  	jal	ra, 0x1b87c <do_sarray_io>
   1b57c: 03 a5 0a 02  	lw	a0, 0x20(s5)
   1b580: 63 79 45 07  	bgeu	a0, s4, 0x1b5f2 <access_virt_sarray+0x10e>
   1b584: 63 7c 35 01  	bgeu	a0, s3, 0x1b59c <access_virt_sarray+0xb8>
   1b588: 63 02 09 02  	beq	s2, zero, 0x1b5ac <access_virt_sarray+0xc8>
   1b58c: 88 60        	c.ld	a0, 0x0(s1)
   1b58e: 0c 61        	c.ld	a1, 0x0(a0)
   1b590: 51 46        	c.li	a2, 0x14
   1b592: 10 d5        	c.sw	a2, 0x28(a0)
   1b594: 26 85        	c.mv	a0, s1
   1b596: 82 95        	c.jalr	a1
   1b598: 4e 85        	c.mv	a0, s3
   1b59a: 19 a0        	c.j	0x1b5a0 <access_virt_sarray+0xbc>
   1b59c: 63 0b 09 06  	beq	s2, zero, 0x1b612 <access_virt_sarray+0x12e>
   1b5a0: 83 a5 4a 02  	lw	a1, 0x24(s5)
   1b5a4: 23 a0 4a 03  	sw	s4, 0x20(s5)
   1b5a8: 91 e5        	c.bnez	a1, 0x1b5b4 <access_virt_sarray+0xd0>
   1b5aa: b1 a0        	c.j	0x1b5f6 <access_virt_sarray+0x112>
   1b5ac: 83 a5 4a 02  	lw	a1, 0x24(s5)
   1b5b0: 4e 85        	c.mv	a0, s3
   1b5b2: bd c1        	c.beqz	a1, 0x1b618 <access_virt_sarray+0x134>
   1b5b4: 03 a6 ca 01  	lw	a2, 0x1c(s5)
   1b5b8: bb 05 c5 40  	subw	a1, a0, a2
   1b5bc: 3b 06 ca 40  	subw	a2, s4, a2
   1b5c0: 63 f9 c5 02  	bgeu	a1, a2, 0x1b5f2 <access_virt_sarray+0x10e>
   1b5c4: 03 eb ca 00  	lwu	s6, 0xc(s5)
   1b5c8: 82 15        	c.slli	a1, 0x20
   1b5ca: 13 d4 d5 01  	srli	s0, a1, 0x1d
   1b5ce: 13 45 f5 ff  	xori	a0, a0, -0x1
   1b5d2: 52 95        	c.add	a0, s4
   1b5d4: 02 15        	c.slli	a0, 0x20
   1b5d6: 75 81        	c.srli	a0, 0x1d
   1b5d8: 22 95        	c.add	a0, s0
   1b5da: 93 04 85 00  	addi	s1, a0, 0x8
   1b5de: 03 b5 0a 00  	ld	a0, 0x0(s5)
   1b5e2: 22 95        	c.add	a0, s0
   1b5e4: 08 61        	c.ld	a0, 0x0(a0)
   1b5e6: da 85        	c.mv	a1, s6
   1b5e8: ef f0 cf ee  	jal	ra, 0x1acd4 <jzero_far>
   1b5ec: 21 04        	c.addi	s0, 0x8
   1b5ee: e3 18 94 fe  	bne	s0, s1, 0x1b5de <access_virt_sarray+0xfa>
   1b5f2: 63 05 09 00  	beq	s2, zero, 0x1b5fc <access_virt_sarray+0x118>
   1b5f6: 05 45        	c.li	a0, 0x1
   1b5f8: 23 a4 aa 02  	sw	a0, 0x28(s5)
   1b5fc: 03 a5 ca 01  	lw	a0, 0x1c(s5)
   1b600: 83 b5 0a 00  	ld	a1, 0x0(s5)
   1b604: 3b 85 a9 40  	subw	a0, s3, a0
   1b608: 02 15        	c.slli	a0, 0x20
   1b60a: 75 81        	c.srli	a0, 0x1d
   1b60c: 2e 95        	c.add	a0, a1
   1b60e: 6f 40 61 46  	jal	zero, 0x2fa74 <__riscv_restore_7>
   1b612: 83 a5 4a 02  	lw	a1, 0x24(s5)
   1b616: d9 fd        	c.bnez	a1, 0x1b5b4 <access_virt_sarray+0xd0>
   1b618: 88 60        	c.ld	a0, 0x0(s1)
   1b61a: 0c 61        	c.ld	a1, 0x0(a0)
   1b61c: 51 46        	c.li	a2, 0x14
   1b61e: 10 d5        	c.sw	a2, 0x28(a0)
   1b620: 26 85        	c.mv	a0, s1
   1b622: 82 95        	c.jalr	a1
   1b624: e1 bf        	c.j	0x1b5fc <access_virt_sarray+0x118>

000000000001b626 <access_virt_barray>:
   1b626: ef 42 01 41  	jal	t0, 0x2fa36 <__riscv_save_7>
   1b62a: ae 8a        	c.mv	s5, a1
   1b62c: 8c 45        	c.lw	a1, 0x8(a1)
   1b62e: b2 89        	c.mv	s3, a2
   1b630: 3b 8a c6 00  	addw	s4, a3, a2
   1b634: 3a 89        	c.mv	s2, a4
   1b636: aa 84        	c.mv	s1, a0
   1b638: 63 e9 45 01  	bltu	a1, s4, 0x1b64a <access_virt_barray+0x24>
   1b63c: 03 a5 0a 01  	lw	a0, 0x10(s5)
   1b640: 63 65 d5 00  	bltu	a0, a3, 0x1b64a <access_virt_barray+0x24>
   1b644: 03 b5 0a 00  	ld	a0, 0x0(s5)
   1b648: 19 e5        	c.bnez	a0, 0x1b656 <access_virt_barray+0x30>
   1b64a: 88 60        	c.ld	a0, 0x0(s1)
   1b64c: 0c 61        	c.ld	a1, 0x0(a0)
   1b64e: 51 46        	c.li	a2, 0x14
   1b650: 10 d5        	c.sw	a2, 0x28(a0)
   1b652: 26 85        	c.mv	a0, s1
   1b654: 82 95        	c.jalr	a1
   1b656: 03 a5 ca 01  	lw	a0, 0x1c(s5)
   1b65a: 63 e7 a9 00  	bltu	s3, a0, 0x1b668 <access_virt_barray+0x42>
   1b65e: 83 a5 4a 01  	lw	a1, 0x14(s5)
   1b662: 2d 9d        	c.addw	a0, a1
   1b664: 63 7d 45 05  	bgeu	a0, s4, 0x1b6be <access_virt_barray+0x98>
   1b668: 03 a5 ca 02  	lw	a0, 0x2c(s5)
   1b66c: 01 e9        	c.bnez	a0, 0x1b67c <access_virt_barray+0x56>
   1b66e: 88 60        	c.ld	a0, 0x0(s1)
   1b670: 0c 61        	c.ld	a1, 0x0(a0)
   1b672: 13 06 40 04  	addi	a2, zero, 0x44
   1b676: 10 d5        	c.sw	a2, 0x28(a0)
   1b678: 26 85        	c.mv	a0, s1
   1b67a: 82 95        	c.jalr	a1
   1b67c: 03 a5 8a 02  	lw	a0, 0x28(s5)
   1b680: 01 c9        	c.beqz	a0, 0x1b690 <access_virt_barray+0x6a>
   1b682: 05 46        	c.li	a2, 0x1
   1b684: 26 85        	c.mv	a0, s1
   1b686: d6 85        	c.mv	a1, s5
   1b688: ef 00 80 29  	jal	ra, 0x1b920 <do_barray_io>
   1b68c: 23 a4 0a 02  	sw	zero, 0x28(s5)
   1b690: 83 a5 ca 01  	lw	a1, 0x1c(s5)
   1b694: 4e 85        	c.mv	a0, s3
   1b696: 63 ed 35 01  	bltu	a1, s3, 0x1b6b0 <access_virt_barray+0x8a>
   1b69a: 03 e5 4a 01  	lwu	a0, 0x14(s5)
   1b69e: 93 15 0a 02  	slli	a1, s4, 0x20
   1b6a2: 81 91        	c.srli	a1, 0x20
   1b6a4: 89 8d        	c.sub	a1, a0
   1b6a6: 33 25 b0 00  	slt	a0, zero, a1
   1b6aa: 33 05 a0 40  	sub	a0, zero, a0
   1b6ae: 6d 8d        	c.and	a0, a1
   1b6b0: 23 ae aa 00  	sw	a0, 0x1c(s5)
   1b6b4: 26 85        	c.mv	a0, s1
   1b6b6: d6 85        	c.mv	a1, s5
   1b6b8: 01 46        	c.li	a2, 0x0
   1b6ba: ef 00 60 26  	jal	ra, 0x1b920 <do_barray_io>
   1b6be: 03 a5 0a 02  	lw	a0, 0x20(s5)
   1b6c2: 63 7a 45 07  	bgeu	a0, s4, 0x1b736 <access_virt_barray+0x110>
   1b6c6: 63 7c 35 01  	bgeu	a0, s3, 0x1b6de <access_virt_barray+0xb8>
   1b6ca: 63 02 09 02  	beq	s2, zero, 0x1b6ee <access_virt_barray+0xc8>
   1b6ce: 88 60        	c.ld	a0, 0x0(s1)
   1b6d0: 0c 61        	c.ld	a1, 0x0(a0)
   1b6d2: 51 46        	c.li	a2, 0x14
   1b6d4: 10 d5        	c.sw	a2, 0x28(a0)
   1b6d6: 26 85        	c.mv	a0, s1
   1b6d8: 82 95        	c.jalr	a1
   1b6da: 4e 85        	c.mv	a0, s3
   1b6dc: 19 a0        	c.j	0x1b6e2 <access_virt_barray+0xbc>
   1b6de: 63 0c 09 06  	beq	s2, zero, 0x1b756 <access_virt_barray+0x130>
   1b6e2: 83 a5 4a 02  	lw	a1, 0x24(s5)
   1b6e6: 23 a0 4a 03  	sw	s4, 0x20(s5)
   1b6ea: 91 e5        	c.bnez	a1, 0x1b6f6 <access_virt_barray+0xd0>
   1b6ec: b9 a0        	c.j	0x1b73a <access_virt_barray+0x114>
   1b6ee: 83 a5 4a 02  	lw	a1, 0x24(s5)
   1b6f2: 4e 85        	c.mv	a0, s3
   1b6f4: a5 c5        	c.beqz	a1, 0x1b75c <access_virt_barray+0x136>
   1b6f6: 03 a6 ca 01  	lw	a2, 0x1c(s5)
   1b6fa: bb 05 c5 40  	subw	a1, a0, a2
   1b6fe: 3b 06 ca 40  	subw	a2, s4, a2
   1b702: 63 fa c5 02  	bgeu	a1, a2, 0x1b736 <access_virt_barray+0x110>
   1b706: 03 eb ca 00  	lwu	s6, 0xc(s5)
   1b70a: 1e 0b        	c.slli	s6, 0x7
   1b70c: 82 15        	c.slli	a1, 0x20
   1b70e: 13 d4 d5 01  	srli	s0, a1, 0x1d
   1b712: 13 45 f5 ff  	xori	a0, a0, -0x1
   1b716: 52 95        	c.add	a0, s4
   1b718: 02 15        	c.slli	a0, 0x20
   1b71a: 75 81        	c.srli	a0, 0x1d
   1b71c: 22 95        	c.add	a0, s0
   1b71e: 93 04 85 00  	addi	s1, a0, 0x8
   1b722: 03 b5 0a 00  	ld	a0, 0x0(s5)
   1b726: 22 95        	c.add	a0, s0
   1b728: 08 61        	c.ld	a0, 0x0(a0)
   1b72a: da 85        	c.mv	a1, s6
   1b72c: ef f0 8f da  	jal	ra, 0x1acd4 <jzero_far>
   1b730: 21 04        	c.addi	s0, 0x8
   1b732: e3 18 94 fe  	bne	s0, s1, 0x1b722 <access_virt_barray+0xfc>
   1b736: 63 05 09 00  	beq	s2, zero, 0x1b740 <access_virt_barray+0x11a>
   1b73a: 05 45        	c.li	a0, 0x1
   1b73c: 23 a4 aa 02  	sw	a0, 0x28(s5)
   1b740: 03 a5 ca 01  	lw	a0, 0x1c(s5)
   1b744: 83 b5 0a 00  	ld	a1, 0x0(s5)
   1b748: 3b 85 a9 40  	subw	a0, s3, a0
   1b74c: 02 15        	c.slli	a0, 0x20
   1b74e: 75 81        	c.srli	a0, 0x1d
   1b750: 2e 95        	c.add	a0, a1
   1b752: 6f 40 21 32  	jal	zero, 0x2fa74 <__riscv_restore_7>
   1b756: 83 a5 4a 02  	lw	a1, 0x24(s5)
   1b75a: d1 fd        	c.bnez	a1, 0x1b6f6 <access_virt_barray+0xd0>
   1b75c: 88 60        	c.ld	a0, 0x0(s1)
   1b75e: 0c 61        	c.ld	a1, 0x0(a0)
   1b760: 51 46        	c.li	a2, 0x14
   1b762: 10 d5        	c.sw	a2, 0x28(a0)
   1b764: 26 85        	c.mv	a0, s1
   1b766: 82 95        	c.jalr	a1
   1b768: e1 bf        	c.j	0x1b740 <access_virt_barray+0x11a>

000000000001b76a <free_pool>:
   1b76a: ef 42 61 2d  	jal	t0, 0x2fa40 <__riscv_save_5>
   1b76e: aa 89        	c.mv	s3, a0
   1b770: 03 3a 85 00  	ld	s4, 0x8(a0)
   1b774: 09 45        	c.li	a0, 0x2
   1b776: 2e 89        	c.mv	s2, a1
   1b778: 63 ee a5 00  	bltu	a1, a0, 0x1b794 <free_pool+0x2a>
   1b77c: 03 b5 09 00  	ld	a0, 0x0(s3)
   1b780: 23 26 25 03  	sw	s2, 0x2c(a0)
   1b784: 83 b5 09 00  	ld	a1, 0x0(s3)
   1b788: 8c 61        	c.ld	a1, 0x0(a1)
   1b78a: 31 46        	c.li	a2, 0xc
   1b78c: 10 d5        	c.sw	a2, 0x28(a0)
   1b78e: 4e 85        	c.mv	a0, s3
   1b790: 82 95        	c.jalr	a1
   1b792: a1 a0        	c.j	0x1b7da <free_pool+0x70>
   1b794: 05 45        	c.li	a0, 0x1
   1b796: 63 12 a9 04  	bne	s2, a0, 0x1b7da <free_pool+0x70>
   1b79a: 83 34 0a 08  	ld	s1, 0x80(s4)
   1b79e: 81 cc        	c.beqz	s1, 0x1b7b6 <free_pool+0x4c>
   1b7a0: c8 54        	c.lw	a0, 0x2c(s1)
   1b7a2: 01 c9        	c.beqz	a0, 0x1b7b2 <free_pool+0x48>
   1b7a4: b0 64        	c.ld	a2, 0x48(s1)
   1b7a6: 23 a6 04 02  	sw	zero, 0x2c(s1)
   1b7aa: 93 85 84 03  	addi	a1, s1, 0x38
   1b7ae: 4e 85        	c.mv	a0, s3
   1b7b0: 02 96        	c.jalr	a2
   1b7b2: 84 78        	c.ld	s1, 0x30(s1)
   1b7b4: f5 f4        	c.bnez	s1, 0x1b7a0 <free_pool+0x36>
   1b7b6: 83 34 8a 08  	ld	s1, 0x88(s4)
   1b7ba: 23 30 0a 08  	sd	zero, 0x80(s4)
   1b7be: 81 cc        	c.beqz	s1, 0x1b7d6 <free_pool+0x6c>
   1b7c0: c8 54        	c.lw	a0, 0x2c(s1)
   1b7c2: 01 c9        	c.beqz	a0, 0x1b7d2 <free_pool+0x68>
   1b7c4: b0 64        	c.ld	a2, 0x48(s1)
   1b7c6: 23 a6 04 02  	sw	zero, 0x2c(s1)
   1b7ca: 93 85 84 03  	addi	a1, s1, 0x38
   1b7ce: 4e 85        	c.mv	a0, s3
   1b7d0: 02 96        	c.jalr	a2
   1b7d2: 84 78        	c.ld	s1, 0x30(s1)
   1b7d4: f5 f4        	c.bnez	s1, 0x1b7c0 <free_pool+0x56>
   1b7d6: 23 34 0a 08  	sd	zero, 0x88(s4)
   1b7da: 13 15 39 00  	slli	a0, s2, 0x3
   1b7de: 52 95        	c.add	a0, s4
   1b7e0: 2c 79        	c.ld	a1, 0x70(a0)
   1b7e2: 23 38 05 06  	sd	zero, 0x70(a0)
   1b7e6: 95 c1        	c.beqz	a1, 0x1b80a <free_pool+0xa0>
   1b7e8: 88 65        	c.ld	a0, 0x8(a1)
   1b7ea: 90 69        	c.ld	a2, 0x10(a1)
   1b7ec: 80 61        	c.ld	s0, 0x0(a1)
   1b7ee: 32 95        	c.add	a0, a2
   1b7f0: 93 04 85 01  	addi	s1, a0, 0x18
   1b7f4: 4e 85        	c.mv	a0, s3
   1b7f6: 26 86        	c.mv	a2, s1
   1b7f8: ef 00 00 1e  	jal	ra, 0x1b9d8 <jpeg_free_large>
   1b7fc: 03 35 0a 09  	ld	a0, 0x90(s4)
   1b800: 05 8d        	c.sub	a0, s1
   1b802: 23 38 aa 08  	sd	a0, 0x90(s4)
   1b806: a2 85        	c.mv	a1, s0
   1b808: 65 f0        	c.bnez	s0, 0x1b7e8 <free_pool+0x7e>
   1b80a: 0e 09        	c.slli	s2, 0x3
   1b80c: 52 99        	c.add	s2, s4
   1b80e: 83 35 09 06  	ld	a1, 0x60(s2)
   1b812: 23 30 09 06  	sd	zero, 0x60(s2)
   1b816: 95 c1        	c.beqz	a1, 0x1b83a <free_pool+0xd0>
   1b818: 88 65        	c.ld	a0, 0x8(a1)
   1b81a: 90 69        	c.ld	a2, 0x10(a1)
   1b81c: 80 61        	c.ld	s0, 0x0(a1)
   1b81e: 32 95        	c.add	a0, a2
   1b820: 93 04 85 01  	addi	s1, a0, 0x18
   1b824: 4e 85        	c.mv	a0, s3
   1b826: 26 86        	c.mv	a2, s1
   1b828: ef 00 40 1a  	jal	ra, 0x1b9cc <jpeg_free_small>
   1b82c: 03 35 0a 09  	ld	a0, 0x90(s4)
   1b830: 05 8d        	c.sub	a0, s1
   1b832: 23 38 aa 08  	sd	a0, 0x90(s4)
   1b836: a2 85        	c.mv	a1, s0
   1b838: 65 f0        	c.bnez	s0, 0x1b818 <free_pool+0xae>
   1b83a: 6f 40 01 24  	jal	zero, 0x2fa7a <__riscv_restore_5>

000000000001b83e <self_destruct>:
   1b83e: 01 11        	c.addi	sp, -0x20
   1b840: 06 ec        	c.sdsp	ra, 0x18(sp)
   1b842: 22 e8        	c.sdsp	s0, 0x10(sp)
   1b844: 26 e4        	c.sdsp	s1, 0x8(sp)
   1b846: 4a e0        	c.sdsp	s2, 0x0(sp)
   1b848: 2a 84        	c.mv	s0, a0
   1b84a: 85 44        	c.li	s1, 0x1
   1b84c: 7d 59        	c.li	s2, -0x1
   1b84e: 22 85        	c.mv	a0, s0
   1b850: a6 85        	c.mv	a1, s1
   1b852: ef f0 9f f1  	jal	ra, 0x1b76a <free_pool>
   1b856: fd 34        	c.addiw	s1, -0x1
   1b858: e3 9b 24 ff  	bne	s1, s2, 0x1b84e <self_destruct+0x10>
   1b85c: 0c 64        	c.ld	a1, 0x8(s0)
   1b85e: 13 06 00 0a  	addi	a2, zero, 0xa0
   1b862: 22 85        	c.mv	a0, s0
   1b864: ef 00 80 16  	jal	ra, 0x1b9cc <jpeg_free_small>
   1b868: 23 34 04 00  	sd	zero, 0x8(s0)
   1b86c: 22 85        	c.mv	a0, s0
   1b86e: e2 60        	c.ldsp	ra, 0x18(sp)
   1b870: 42 64        	c.ldsp	s0, 0x10(sp)
   1b872: a2 64        	c.ldsp	s1, 0x8(sp)
   1b874: 02 69        	c.ldsp	s2, 0x0(sp)
   1b876: 05 61        	c.addi16sp	sp, 0x20
   1b878: 6f 00 a0 17  	jal	zero, 0x1b9f2 <jpeg_mem_term>

000000000001b87c <do_sarray_io>:
   1b87c: ef 42 01 1b  	jal	t0, 0x2fa2c <__riscv_save_9>
   1b880: 03 ec 45 01  	lwu	s8, 0x14(a1)
   1b884: 63 0c 0c 08  	beq	s8, zero, 0x1b91c <do_sarray_io+0xa0>
   1b888: ae 8a        	c.mv	s5, a1
   1b88a: 32 8a        	c.mv	s4, a2
   1b88c: 2a 89        	c.mv	s2, a0
   1b88e: 83 e9 c5 00  	lwu	s3, 0xc(a1)
   1b892: 03 e5 c5 01  	lwu	a0, 0x1c(a1)
   1b896: ce 85        	c.mv	a1, s3
   1b898: ef 40 81 1f  	jal	ra, 0x2fa90 <__muldi3>
   1b89c: 2a 8b        	c.mv	s6, a0
   1b89e: 93 0b 80 03  	addi	s7, zero, 0x38
   1b8a2: 63 04 0a 00  	beq	s4, zero, 0x1b8aa <do_sarray_io+0x2e>
   1b8a6: 93 0b 00 04  	addi	s7, zero, 0x40
   1b8aa: 03 a5 8a 01  	lw	a0, 0x18(s5)
   1b8ae: 01 44        	c.li	s0, 0x0
   1b8b0: 13 8a 8a 03  	addi	s4, s5, 0x38
   1b8b4: d6 9b        	c.add	s7, s5
   1b8b6: 02 15        	c.slli	a0, 0x20
   1b8b8: 93 55 05 02  	srli	a1, a0, 0x20
   1b8bc: 33 05 8c 40  	sub	a0, s8, s0
   1b8c0: 63 43 b5 00  	blt	a0, a1, 0x1b8c6 <do_sarray_io+0x4a>
   1b8c4: 2e 85        	c.mv	a0, a1
   1b8c6: 83 e5 ca 01  	lwu	a1, 0x1c(s5)
   1b8ca: 03 e6 0a 02  	lwu	a2, 0x20(s5)
   1b8ce: a2 95        	c.add	a1, s0
   1b8d0: 0d 8e        	c.sub	a2, a1
   1b8d2: 63 43 c5 00  	blt	a0, a2, 0x1b8d8 <do_sarray_io+0x5c>
   1b8d6: 32 85        	c.mv	a0, a2
   1b8d8: 03 e6 8a 00  	lwu	a2, 0x8(s5)
   1b8dc: b3 05 b6 40  	sub	a1, a2, a1
   1b8e0: 63 43 b5 00  	blt	a0, a1, 0x1b8e6 <do_sarray_io+0x6a>
   1b8e4: 2e 85        	c.mv	a0, a1
   1b8e6: 63 5b a0 02  	bge	zero, a0, 0x1b91c <do_sarray_io+0xa0>
   1b8ea: ce 85        	c.mv	a1, s3
   1b8ec: ef 40 41 1a  	jal	ra, 0x2fa90 <__muldi3>
   1b8f0: 83 b5 0a 00  	ld	a1, 0x0(s5)
   1b8f4: 13 16 34 00  	slli	a2, s0, 0x3
   1b8f8: b2 95        	c.add	a1, a2
   1b8fa: 90 61        	c.ld	a2, 0x0(a1)
   1b8fc: 83 b7 0b 00  	ld	a5, 0x0(s7)
   1b900: aa 84        	c.mv	s1, a0
   1b902: 4a 85        	c.mv	a0, s2
   1b904: d2 85        	c.mv	a1, s4
   1b906: da 86        	c.mv	a3, s6
   1b908: 26 87        	c.mv	a4, s1
   1b90a: 82 97        	c.jalr	a5
   1b90c: 03 e5 8a 01  	lwu	a0, 0x18(s5)
   1b910: 03 ec 4a 01  	lwu	s8, 0x14(s5)
   1b914: 2a 94        	c.add	s0, a0
   1b916: 26 9b        	c.add	s6, s1
   1b918: e3 6f 84 f9  	bltu	s0, s8, 0x1b8b6 <do_sarray_io+0x3a>
   1b91c: 6f 40 21 15  	jal	zero, 0x2fa6e <__riscv_restore_9>

000000000001b920 <do_barray_io>:
   1b920: ef 42 c1 10  	jal	t0, 0x2fa2c <__riscv_save_9>
   1b924: 03 ec 45 01  	lwu	s8, 0x14(a1)
   1b928: 63 0d 0c 08  	beq	s8, zero, 0x1b9c2 <do_barray_io+0xa2>
   1b92c: ae 8a        	c.mv	s5, a1
   1b92e: 32 8a        	c.mv	s4, a2
   1b930: 2a 89        	c.mv	s2, a0
   1b932: 83 e9 c5 00  	lwu	s3, 0xc(a1)
   1b936: 83 e5 c5 01  	lwu	a1, 0x1c(a1)
   1b93a: 9e 09        	c.slli	s3, 0x7
   1b93c: 4e 85        	c.mv	a0, s3
   1b93e: ef 40 21 15  	jal	ra, 0x2fa90 <__muldi3>
   1b942: 2a 8b        	c.mv	s6, a0
   1b944: 93 0b 80 03  	addi	s7, zero, 0x38
   1b948: 63 04 0a 00  	beq	s4, zero, 0x1b950 <do_barray_io+0x30>
   1b94c: 93 0b 00 04  	addi	s7, zero, 0x40
   1b950: 03 a5 8a 01  	lw	a0, 0x18(s5)
   1b954: 01 44        	c.li	s0, 0x0
   1b956: 13 8a 8a 03  	addi	s4, s5, 0x38
   1b95a: d6 9b        	c.add	s7, s5
   1b95c: 02 15        	c.slli	a0, 0x20
   1b95e: 93 55 05 02  	srli	a1, a0, 0x20
   1b962: 33 05 8c 40  	sub	a0, s8, s0
   1b966: 63 43 b5 00  	blt	a0, a1, 0x1b96c <do_barray_io+0x4c>
   1b96a: 2e 85        	c.mv	a0, a1
   1b96c: 83 e5 ca 01  	lwu	a1, 0x1c(s5)
   1b970: 03 e6 0a 02  	lwu	a2, 0x20(s5)
   1b974: a2 95        	c.add	a1, s0
   1b976: 0d 8e        	c.sub	a2, a1
   1b978: 63 43 c5 00  	blt	a0, a2, 0x1b97e <do_barray_io+0x5e>
   1b97c: 32 85        	c.mv	a0, a2
   1b97e: 03 e6 8a 00  	lwu	a2, 0x8(s5)
   1b982: b3 05 b6 40  	sub	a1, a2, a1
   1b986: 63 43 b5 00  	blt	a0, a1, 0x1b98c <do_barray_io+0x6c>
   1b98a: 2e 85        	c.mv	a0, a1
   1b98c: 63 5b a0 02  	bge	zero, a0, 0x1b9c2 <do_barray_io+0xa2>
   1b990: ce 85        	c.mv	a1, s3
   1b992: ef 40 e1 0f  	jal	ra, 0x2fa90 <__muldi3>
   1b996: 83 b5 0a 00  	ld	a1, 0x0(s5)
   1b99a: 13 16 34 00  	slli	a2, s0, 0x3
   1b99e: b2 95        	c.add	a1, a2
   1b9a0: 90 61        	c.ld	a2, 0x0(a1)
   1b9a2: 83 b7 0b 00  	ld	a5, 0x0(s7)
   1b9a6: aa 84        	c.mv	s1, a0
   1b9a8: 4a 85        	c.mv	a0, s2
   1b9aa: d2 85        	c.mv	a1, s4
   1b9ac: da 86        	c.mv	a3, s6
   1b9ae: 26 87        	c.mv	a4, s1
   1b9b0: 82 97        	c.jalr	a5
   1b9b2: 03 e5 8a 01  	lwu	a0, 0x18(s5)
   1b9b6: 03 ec 4a 01  	lwu	s8, 0x14(s5)
   1b9ba: 2a 94        	c.add	s0, a0
   1b9bc: 26 9b        	c.add	s6, s1
   1b9be: e3 6f 84 f9  	bltu	s0, s8, 0x1b95c <do_barray_io+0x3c>
   1b9c2: 6f 40 c1 0a  	jal	zero, 0x2fa6e <__riscv_restore_9>

000000000001b9c6 <jpeg_get_small>:
   1b9c6: 2e 85        	c.mv	a0, a1
   1b9c8: 6f 00 60 11  	jal	zero, 0x1bade <malloc>

000000000001b9cc <jpeg_free_small>:
   1b9cc: 2e 85        	c.mv	a0, a1
   1b9ce: 6f 00 80 11  	jal	zero, 0x1bae6 <free>

000000000001b9d2 <jpeg_get_large>:
   1b9d2: 2e 85        	c.mv	a0, a1
   1b9d4: 6f 00 a0 10  	jal	zero, 0x1bade <malloc>

000000000001b9d8 <jpeg_free_large>:
   1b9d8: 2e 85        	c.mv	a0, a1
   1b9da: 6f 00 c0 10  	jal	zero, 0x1bae6 <free>

000000000001b9de <jpeg_mem_available>:
   1b9de: 32 85        	c.mv	a0, a2
   1b9e0: 82 80        	c.jr	ra

000000000001b9e2 <jpeg_open_backing_store>:
   1b9e2: 0c 61        	c.ld	a1, 0x0(a0)
   1b9e4: 9c 61        	c.ld	a5, 0x0(a1)
   1b9e6: 13 06 00 03  	addi	a2, zero, 0x30
   1b9ea: 90 d5        	c.sw	a2, 0x28(a1)
   1b9ec: 82 87        	c.jr	a5

000000000001b9ee <jpeg_mem_init>:
   1b9ee: 01 45        	c.li	a0, 0x0
   1b9f0: 82 80        	c.jr	ra

000000000001b9f2 <jpeg_mem_term>:
   1b9f2: 82 80        	c.jr	ra