00000000000101e0 <main>:
   101e0: ef 32 52 4c  	jal	t0, 0x33ea4 <__riscv_save_5>
   101e4: 13 01 01 cf  	addi	sp, sp, -0x310
   101e8: 13 89 05 00  	addi	s2, a1, 0x0
   101ec: 83 b5 05 00  	ld	a1, 0x0(a1)
   101f0: 93 09 05 00  	addi	s3, a0, 0x0
   101f4: 23 bc b1 20  	sd	a1, 0x218(gp)
   101f8: 63 86 05 00  	beq	a1, zero, 0x10204 <main+0x24>
   101fc: 83 c5 05 00  	lbu	a1, 0x0(a1)
   10200: 63 98 05 00  	bne	a1, zero, 0x10210 <main+0x30>
   10204: b7 45 03 00  	lui	a1, 0x34
   10208: 93 85 85 17  	addi	a1, a1, 0x178
   1020c: 23 bc b1 20  	sd	a1, 0x218(gp)
   10210: 13 05 01 00  	addi	a0, sp, 0x0
   10214: ef e0 50 21  	jal	ra, 0x1ec28 <jpeg_std_error>
   10218: 23 34 a1 0a  	sd	a0, 0xa8(sp)
   1021c: 13 05 81 0a  	addi	a0, sp, 0xa8
   10220: 93 05 d0 03  	addi	a1, zero, 0x3d
   10224: 13 06 80 26  	addi	a2, zero, 0x268
   10228: ef 20 90 50  	jal	ra, 0x12f30 <jpeg_CreateDecompress>
   1022c: 37 45 03 00  	lui	a0, 0x34
   10230: 13 05 85 01  	addi	a0, a0, 0x18
   10234: 23 3c a1 08  	sd	a0, 0x98(sp)
   10238: 13 05 30 41  	addi	a0, zero, 0x413
   1023c: 13 15 05 02  	slli	a0, a0, 0x20
   10240: 13 05 85 3e  	addi	a0, a0, 0x3e8
   10244: 23 30 a1 0a  	sd	a0, 0xa0(sp)
   10248: 37 05 01 00  	lui	a0, 0x10
   1024c: 13 06 85 47  	addi	a2, a0, 0x478
   10250: 13 05 81 0a  	addi	a0, sp, 0xa8
   10254: 93 05 e0 0f  	addi	a1, zero, 0xfe
   10258: ef 20 10 5b  	jal	ra, 0x13008 <jpeg_set_marker_processor>
   1025c: 13 05 81 0a  	addi	a0, sp, 0xa8
   10260: 93 85 09 00  	addi	a1, s3, 0x0
   10264: 13 06 09 00  	addi	a2, s2, 0x0
   10268: 93 06 00 00  	addi	a3, zero, 0x0
   1026c: ef 00 80 36  	jal	ra, 0x105d4 <parse_switches>
   10270: 9b 85 f9 ff  	addiw	a1, s3, -0x1
   10274: 63 50 b5 02  	bge	a0, a1, 0x10294 <main+0xb4>
   10278: 03 b5 01 20  	ld	a0, 0x200(gp)
   1027c: 03 35 85 01  	ld	a0, 0x18(a0)
   10280: 03 b6 81 21  	ld	a2, 0x218(gp)
   10284: b7 45 03 00  	lui	a1, 0x34
   10288: 93 85 e5 17  	addi	a1, a1, 0x17e
   1028c: ef 00 31 0e  	jal	ra, 0x20b6e <fprintf>
   10290: ef 00 90 22  	jal	ra, 0x10cb8 <usage>
   10294: 63 5c 35 03  	bge	a0, s3, 0x102cc <main+0xec>
   10298: 13 15 35 00  	slli	a0, a0, 0x3
   1029c: b3 04 a9 00  	add	s1, s2, a0
   102a0: 03 b5 04 00  	ld	a0, 0x0(s1)
   102a4: b7 45 03 00  	lui	a1, 0x34
   102a8: 93 85 75 19  	addi	a1, a1, 0x197
   102ac: ef 00 51 09  	jal	ra, 0x20b40 <fopen>
   102b0: 13 04 05 00  	addi	s0, a0, 0x0
   102b4: 63 10 05 02  	bne	a0, zero, 0x102d4 <main+0xf4>
   102b8: 03 b5 01 20  	ld	a0, 0x200(gp)
   102bc: 03 35 85 01  	ld	a0, 0x18(a0)
   102c0: 03 b6 81 21  	ld	a2, 0x218(gp)
   102c4: 83 b6 04 00  	ld	a3, 0x0(s1)
   102c8: 6f 00 40 04  	jal	zero, 0x1030c <main+0x12c>
   102cc: ef 20 d0 44  	jal	ra, 0x12f18 <read_stdin>
   102d0: 13 04 05 00  	addi	s0, a0, 0x0
   102d4: 03 b5 01 22  	ld	a0, 0x220(gp)
   102d8: 63 18 05 00  	bne	a0, zero, 0x102e8 <main+0x108>
   102dc: ef 20 90 44  	jal	ra, 0x12f24 <write_stdout>
   102e0: 93 04 05 00  	addi	s1, a0, 0x0
   102e4: 6f 00 c0 03  	jal	zero, 0x10320 <main+0x140>
   102e8: b7 45 03 00  	lui	a1, 0x34
   102ec: 93 85 d5 1a  	addi	a1, a1, 0x1ad
   102f0: ef 00 11 05  	jal	ra, 0x20b40 <fopen>
   102f4: 93 04 05 00  	addi	s1, a0, 0x0
   102f8: 63 14 05 02  	bne	a0, zero, 0x10320 <main+0x140>
   102fc: 03 b5 01 20  	ld	a0, 0x200(gp)
   10300: 03 35 85 01  	ld	a0, 0x18(a0)
   10304: 03 b6 81 21  	ld	a2, 0x218(gp)
   10308: 83 b6 01 22  	ld	a3, 0x220(gp)
   1030c: b7 45 03 00  	lui	a1, 0x34
   10310: 93 85 a5 19  	addi	a1, a1, 0x19a
   10314: ef 00 b1 05  	jal	ra, 0x20b6e <fprintf>
   10318: 13 05 10 00  	addi	a0, zero, 0x1
   1031c: ef f0 5f e0  	jal	ra, 0x10120 <exit>
   10320: 13 05 81 0a  	addi	a0, sp, 0xa8
   10324: 93 05 04 00  	addi	a1, s0, 0x0
   10328: ef 30 80 68  	jal	ra, 0x139b0 <jpeg_stdio_src>
   1032c: 13 05 81 0a  	addi	a0, sp, 0xa8
   10330: 93 05 10 00  	addi	a1, zero, 0x1
   10334: ef 20 50 52  	jal	ra, 0x13058 <jpeg_read_header>
   10338: 13 05 81 0a  	addi	a0, sp, 0xa8
   1033c: 93 06 10 00  	addi	a3, zero, 0x1
   10340: 93 85 09 00  	addi	a1, s3, 0x0
   10344: 13 06 09 00  	addi	a2, s2, 0x0
   10348: ef 00 c0 28  	jal	ra, 0x105d4 <parse_switches>
   1034c: 03 a5 81 22  	lw	a0, 0x228(gp)
   10350: 93 05 50 00  	addi	a1, zero, 0x5
   10354: 63 e4 a5 02  	bltu	a1, a0, 0x1037c <main+0x19c>
   10358: 13 15 25 00  	slli	a0, a0, 0x2
   1035c: b7 45 03 00  	lui	a1, 0x34
   10360: 93 85 05 00  	addi	a1, a1, 0x0
   10364: 33 05 b5 00  	add	a0, a0, a1
   10368: 03 25 05 00  	lw	a0, 0x0(a0)
   1036c: 67 00 05 00  	jalr	zero, 0x0(a0)
   10370: 13 05 81 0a  	addi	a0, sp, 0xa8
   10374: 93 05 00 00  	addi	a1, zero, 0x0
   10378: 6f 00 c0 02  	jal	zero, 0x103a4 <main+0x1c4>
   1037c: 03 35 81 0a  	ld	a0, 0xa8(sp)
   10380: 83 35 05 00  	ld	a1, 0x0(a0)
   10384: 13 06 20 41  	addi	a2, zero, 0x412
   10388: 23 24 c5 02  	sw	a2, 0x28(a0)
   1038c: 13 05 81 0a  	addi	a0, sp, 0xa8
   10390: e7 80 05 00  	jalr	ra, 0x0(a1)
   10394: 13 09 00 00  	addi	s2, zero, 0x0
   10398: 6f 00 80 03  	jal	zero, 0x103d0 <main+0x1f0>
   1039c: 13 05 81 0a  	addi	a0, sp, 0xa8
   103a0: 93 05 10 00  	addi	a1, zero, 0x1
   103a4: ef 10 90 49  	jal	ra, 0x1203c <jinit_write_bmp>
   103a8: 6f 00 40 02  	jal	zero, 0x103cc <main+0x1ec>
   103ac: 13 05 81 0a  	addi	a0, sp, 0xa8
   103b0: ef 00 90 75  	jal	ra, 0x11308 <jinit_write_gif>
   103b4: 6f 00 80 01  	jal	zero, 0x103cc <main+0x1ec>
   103b8: 13 05 81 0a  	addi	a0, sp, 0xa8
   103bc: ef 00 d0 40  	jal	ra, 0x10fc8 <jinit_write_ppm>
   103c0: 6f 00 c0 00  	jal	zero, 0x103cc <main+0x1ec>
   103c4: 13 05 81 0a  	addi	a0, sp, 0xa8
   103c8: ef 10 80 7a  	jal	ra, 0x11b70 <jinit_write_targa>
   103cc: 13 09 05 00  	addi	s2, a0, 0x0
   103d0: 23 3c 99 00  	sd	s1, 0x18(s2)
   103d4: 13 05 81 0a  	addi	a0, sp, 0xa8
   103d8: ef 30 40 0c  	jal	ra, 0x1349c <jpeg_start_decompress>
   103dc: 03 36 09 00  	ld	a2, 0x0(s2)
   103e0: 13 05 81 0a  	addi	a0, sp, 0xa8
   103e4: 93 05 09 00  	addi	a1, s2, 0x0
   103e8: e7 00 06 00  	jalr	ra, 0x0(a2)
   103ec: 03 25 81 14  	lw	a0, 0x148(sp)
   103f0: 83 25 c1 12  	lw	a1, 0x12c(sp)
   103f4: 63 76 b5 02  	bgeu	a0, a1, 0x10420 <main+0x240>
   103f8: 83 35 09 02  	ld	a1, 0x20(s2)
   103fc: 03 26 89 02  	lw	a2, 0x28(s2)
   10400: 13 05 81 0a  	addi	a0, sp, 0xa8
   10404: ef 30 c0 2b  	jal	ra, 0x136c0 <jpeg_read_scanlines>
   10408: 83 36 89 00  	ld	a3, 0x8(s2)
   1040c: 13 06 05 00  	addi	a2, a0, 0x0
   10410: 13 05 81 0a  	addi	a0, sp, 0xa8
   10414: 93 05 09 00  	addi	a1, s2, 0x0
   10418: e7 80 06 00  	jalr	ra, 0x0(a3)
   1041c: 6f f0 1f fd  	jal	zero, 0x103ec <main+0x20c>
   10420: 03 36 09 01  	ld	a2, 0x10(s2)
   10424: 13 05 81 0a  	addi	a0, sp, 0xa8
   10428: 93 05 09 00  	addi	a1, s2, 0x0
   1042c: e7 00 06 00  	jalr	ra, 0x0(a2)
   10430: 13 05 81 0a  	addi	a0, sp, 0xa8
   10434: ef 20 90 79  	jal	ra, 0x133cc <jpeg_finish_decompress>
   10438: 13 05 81 0a  	addi	a0, sp, 0xa8
   1043c: ef 20 50 3c  	jal	ra, 0x13000 <jpeg_destroy_decompress>
   10440: 03 b5 01 20  	ld	a0, 0x200(gp)
   10444: 83 35 85 00  	ld	a1, 0x8(a0)
   10448: 63 08 b4 00  	beq	s0, a1, 0x10458 <main+0x278>
   1044c: 13 05 04 00  	addi	a0, s0, 0x0
   10450: ef 00 41 19  	jal	ra, 0x205e4 <fclose>
   10454: 03 b5 01 20  	ld	a0, 0x200(gp)
   10458: 03 35 05 01  	ld	a0, 0x10(a0)
   1045c: 63 86 a4 00  	beq	s1, a0, 0x10468 <main+0x288>
   10460: 13 85 04 00  	addi	a0, s1, 0x0
   10464: ef 00 01 18  	jal	ra, 0x205e4 <fclose>
   10468: 03 35 01 08  	ld	a0, 0x80(sp)
   1046c: 33 35 a0 00  	sltu	a0, zero, a0
   10470: 13 15 15 00  	slli	a0, a0, 0x1
   10474: ef f0 df ca  	jal	ra, 0x10120 <exit>

0000000000010478 <COM_handler>:
   10478: ef 32 72 20  	jal	t0, 0x33e7e <__riscv_save_12>
   1047c: 13 04 05 00  	addi	s0, a0, 0x0
   10480: 03 35 05 00  	ld	a0, 0x0(a0)
   10484: 03 2a c5 07  	lw	s4, 0x7c(a0)
   10488: 13 05 04 00  	addi	a0, s0, 0x0
   1048c: ef 00 10 2e  	jal	ra, 0x10f6c <jpeg_getc>
   10490: 1b 19 85 00  	slliw	s2, a0, 0x8
   10494: 13 05 04 00  	addi	a0, s0, 0x0
   10498: ef 00 50 2d  	jal	ra, 0x10f6c <jpeg_getc>
   1049c: 93 04 05 00  	addi	s1, a0, 0x0
   104a0: b3 69 a9 00  	or	s3, s2, a0
   104a4: 63 5e 40 01  	bge	zero, s4, 0x104c0 <COM_handler+0x48>
   104a8: 03 b5 01 20  	ld	a0, 0x200(gp)
   104ac: 03 35 85 01  	ld	a0, 0x18(a0)
   104b0: 13 86 e9 ff  	addi	a2, s3, -0x2
   104b4: b7 45 03 00  	lui	a1, 0x34
   104b8: 93 85 95 6d  	addi	a1, a1, 0x6d9
   104bc: ef 00 21 6b  	jal	ra, 0x20b6e <fprintf>
   104c0: 13 05 30 00  	addi	a0, zero, 0x3
   104c4: 63 ea a9 0e  	bltu	s3, a0, 0x105b8 <COM_handler+0x140>
   104c8: 93 0d 00 00  	addi	s11, zero, 0x0
   104cc: bb 8a 24 01  	addw	s5, s1, s2
   104d0: 93 8a ea ff  	addi	s5, s5, -0x2
   104d4: 13 0b a0 00  	addi	s6, zero, 0xa
   104d8: 93 0b d0 00  	addi	s7, zero, 0xd
   104dc: 93 0c c0 05  	addi	s9, zero, 0x5c
   104e0: 37 45 03 00  	lui	a0, 0x34
   104e4: 93 04 f5 6e  	addi	s1, a0, 0x6ef
   104e8: 37 65 03 00  	lui	a0, 0x36
   104ec: 13 0d 85 6e  	addi	s10, a0, 0x6e8
   104f0: 37 45 03 00  	lui	a0, 0x34
   104f4: 13 09 25 6f  	addi	s2, a0, 0x6f2
   104f8: 13 05 04 00  	addi	a0, s0, 0x0
   104fc: ef 00 10 27  	jal	ra, 0x10f6c <jpeg_getc>
   10500: 63 58 40 03  	bge	zero, s4, 0x10530 <COM_handler+0xb8>
   10504: 93 09 05 00  	addi	s3, a0, 0x0
   10508: 13 75 f5 0f  	andi	a0, a0, 0xff
   1050c: 63 06 65 05  	beq	a0, s6, 0x10558 <COM_handler+0xe0>
   10510: 63 04 95 03  	beq	a0, s9, 0x10538 <COM_handler+0xc0>
   10514: 63 12 75 07  	bne	a0, s7, 0x10578 <COM_handler+0x100>
   10518: 03 b5 01 20  	ld	a0, 0x200(gp)
   1051c: 83 35 85 01  	ld	a1, 0x18(a0)
   10520: 13 05 a0 00  	addi	a0, zero, 0xa
   10524: ef 00 41 6a  	jal	ra, 0x20bc8 <fputc>
   10528: 93 09 d0 00  	addi	s3, zero, 0xd
   1052c: 6f 00 00 08  	jal	zero, 0x105ac <COM_handler+0x134>
   10530: 93 89 0d 00  	addi	s3, s11, 0x0
   10534: 6f 00 80 07  	jal	zero, 0x105ac <COM_handler+0x134>
   10538: 03 b5 01 20  	ld	a0, 0x200(gp)
   1053c: 83 36 85 01  	ld	a3, 0x18(a0)
   10540: 93 05 20 00  	addi	a1, zero, 0x2
   10544: 13 06 10 00  	addi	a2, zero, 0x1
   10548: 13 85 04 00  	addi	a0, s1, 0x0
   1054c: ef 00 f1 18  	jal	ra, 0x20eda <fwrite>
   10550: 93 09 c0 05  	addi	s3, zero, 0x5c
   10554: 6f 00 80 05  	jal	zero, 0x105ac <COM_handler+0x134>
   10558: 93 09 a0 00  	addi	s3, zero, 0xa
   1055c: 63 88 7d 05  	beq	s11, s7, 0x105ac <COM_handler+0x134>
   10560: 03 b5 01 20  	ld	a0, 0x200(gp)
   10564: 83 35 85 01  	ld	a1, 0x18(a0)
   10568: 13 05 a0 00  	addi	a0, zero, 0xa
   1056c: 93 09 a0 00  	addi	s3, zero, 0xa
   10570: ef 00 81 65  	jal	ra, 0x20bc8 <fputc>
   10574: 6f 00 80 03  	jal	zero, 0x105ac <COM_handler+0x134>
   10578: 03 b5 01 20  	ld	a0, 0x200(gp)
   1057c: b3 05 3d 01  	add	a1, s10, s3
   10580: 03 c6 15 00  	lbu	a2, 0x1(a1)
   10584: 83 35 85 01  	ld	a1, 0x18(a0)
   10588: 13 75 76 09  	andi	a0, a2, 0x97
   1058c: 63 08 05 00  	beq	a0, zero, 0x1059c <COM_handler+0x124>
   10590: 13 85 09 00  	addi	a0, s3, 0x0
   10594: ef 00 51 2b  	jal	ra, 0x21048 <putc>
   10598: 6f 00 40 01  	jal	zero, 0x105ac <COM_handler+0x134>
   1059c: 13 85 05 00  	addi	a0, a1, 0x0
   105a0: 93 05 09 00  	addi	a1, s2, 0x0
   105a4: 13 86 09 00  	addi	a2, s3, 0x0
   105a8: ef 00 61 5c  	jal	ra, 0x20b6e <fprintf>
   105ac: 93 8a fa ff  	addi	s5, s5, -0x1
   105b0: 93 8d 09 00  	addi	s11, s3, 0x0
   105b4: e3 42 50 f5  	blt	zero, s5, 0x104f8 <COM_handler+0x80>
   105b8: 63 5a 40 01  	bge	zero, s4, 0x105cc <COM_handler+0x154>
   105bc: 03 b5 01 20  	ld	a0, 0x200(gp)
   105c0: 83 35 85 01  	ld	a1, 0x18(a0)
   105c4: 13 05 a0 00  	addi	a0, zero, 0xa
   105c8: ef 00 01 60  	jal	ra, 0x20bc8 <fputc>
   105cc: 13 05 10 00  	addi	a0, zero, 0x1
   105d0: 6f 30 92 0f  	jal	zero, 0x33ec8 <__riscv_restore_12>

00000000000105d4 <parse_switches>:
   105d4: ef 32 b2 0a  	jal	t0, 0x33e7e <__riscv_save_12>
   105d8: 13 01 01 ec  	addi	sp, sp, -0x140
   105dc: 23 3c d1 10  	sd	a3, 0x118(sp)
   105e0: 13 89 05 00  	addi	s2, a1, 0x0
   105e4: 93 09 05 00  	addi	s3, a0, 0x0
   105e8: 23 b0 01 22  	sd	zero, 0x220(gp)
   105ec: 03 35 05 00  	ld	a0, 0x0(a0)
   105f0: 93 05 30 00  	addi	a1, zero, 0x3
   105f4: 23 a4 b1 22  	sw	a1, 0x228(gp)
   105f8: 23 2e 05 06  	sw	zero, 0x7c(a0)
   105fc: 13 05 20 00  	addi	a0, zero, 0x2
   10600: 13 0d 10 00  	addi	s10, zero, 0x1
   10604: 63 4e a9 66  	blt	s2, a0, 0x10c80 <parse_switches+0x6ac>
   10608: 93 04 06 00  	addi	s1, a2, 0x0
   1060c: 37 45 03 00  	lui	a0, 0x34
   10610: 13 0a 85 6f  	addi	s4, a0, 0x6f8
   10614: 37 55 03 00  	lui	a0, 0x35
   10618: 93 0a a5 4a  	addi	s5, a0, 0x4aa
   1061c: 37 45 03 00  	lui	a0, 0x34
   10620: 13 05 c5 6f  	addi	a0, a0, 0x6fc
   10624: 23 30 a1 12  	sd	a0, 0x120(sp)
   10628: 37 45 03 00  	lui	a0, 0x34
   1062c: 13 05 45 70  	addi	a0, a0, 0x704
   10630: 23 38 a1 10  	sd	a0, 0x110(sp)
   10634: 37 45 03 00  	lui	a0, 0x34
   10638: 13 05 d5 70  	addi	a0, a0, 0x70d
   1063c: 23 34 a1 10  	sd	a0, 0x108(sp)
   10640: 37 45 03 00  	lui	a0, 0x34
   10644: 13 05 65 71  	addi	a0, a0, 0x716
   10648: 23 30 a1 10  	sd	a0, 0x100(sp)
   1064c: 37 45 03 00  	lui	a0, 0x34
   10650: 13 05 95 72  	addi	a0, a0, 0x729
   10654: 23 38 a1 0e  	sd	a0, 0xf0(sp)
   10658: 37 45 03 00  	lui	a0, 0x34
   1065c: 13 05 05 74  	addi	a0, a0, 0x740
   10660: 23 3c a1 0c  	sd	a0, 0xd8(sp)
   10664: 37 45 03 00  	lui	a0, 0x34
   10668: 13 05 65 74  	addi	a0, a0, 0x746
   1066c: 23 34 a1 0a  	sd	a0, 0xa8(sp)
   10670: 37 45 03 00  	lui	a0, 0x34
   10674: 13 05 e5 71  	addi	a0, a0, 0x71e
   10678: 23 34 a1 0e  	sd	a0, 0xe8(sp)
   1067c: 37 45 03 00  	lui	a0, 0x34
   10680: 13 05 d5 7a  	addi	a0, a0, 0x7ad
   10684: 23 3c a1 08  	sd	a0, 0x98(sp)
   10688: 37 45 03 00  	lui	a0, 0x34
   1068c: 13 05 15 7b  	addi	a0, a0, 0x7b1
   10690: 23 38 a1 08  	sd	a0, 0x90(sp)
   10694: 37 45 03 00  	lui	a0, 0x34
   10698: 13 05 b5 7b  	addi	a0, a0, 0x7bb
   1069c: 23 34 a1 08  	sd	a0, 0x88(sp)
   106a0: 37 45 03 00  	lui	a0, 0x34
   106a4: 13 05 55 7c  	addi	a0, a0, 0x7c5
   106a8: 23 30 a1 08  	sd	a0, 0x80(sp)
   106ac: 37 45 03 00  	lui	a0, 0x34
   106b0: 13 05 95 7c  	addi	a0, a0, 0x7c9
   106b4: 23 38 a1 06  	sd	a0, 0x70(sp)
   106b8: 37 45 03 00  	lui	a0, 0x34
   106bc: 13 05 95 7d  	addi	a0, a0, 0x7d9
   106c0: 23 30 a1 06  	sd	a0, 0x60(sp)
   106c4: 37 45 03 00  	lui	a0, 0x34
   106c8: 13 05 25 7e  	addi	a0, a0, 0x7e2
   106cc: 23 3c a1 04  	sd	a0, 0x58(sp)
   106d0: 37 45 03 00  	lui	a0, 0x34
   106d4: 13 05 a5 7e  	addi	a0, a0, 0x7ea
   106d8: 23 38 a1 04  	sd	a0, 0x50(sp)
   106dc: 37 45 03 00  	lui	a0, 0x34
   106e0: 13 05 e5 7e  	addi	a0, a0, 0x7ee
   106e4: 23 34 a1 04  	sd	a0, 0x48(sp)
   106e8: 37 45 03 00  	lui	a0, 0x34
   106ec: 13 05 65 7f  	addi	a0, a0, 0x7f6
   106f0: 23 30 a1 04  	sd	a0, 0x40(sp)
   106f4: 37 45 03 00  	lui	a0, 0x34
   106f8: 13 05 a5 7f  	addi	a0, a0, 0x7fa
   106fc: 23 3c a1 02  	sd	a0, 0x38(sp)
   10700: 37 45 03 00  	lui	a0, 0x34
   10704: 13 05 e5 7f  	addi	a0, a0, 0x7fe
   10708: 23 38 a1 02  	sd	a0, 0x30(sp)
   1070c: 37 45 03 00  	lui	a0, 0x34
   10710: 13 05 55 7b  	addi	a0, a0, 0x7b5
   10714: 23 34 a1 02  	sd	a0, 0x28(sp)
   10718: 37 45 03 00  	lui	a0, 0x34
   1071c: 13 05 45 6b  	addi	a0, a0, 0x6b4
   10720: 23 30 a1 02  	sd	a0, 0x20(sp)
   10724: 37 55 03 00  	lui	a0, 0x35
   10728: 13 05 25 80  	addi	a0, a0, -0x7fe
   1072c: 23 3c a1 00  	sd	a0, 0x18(sp)
   10730: 37 45 03 00  	lui	a0, 0x34
   10734: 13 05 35 7d  	addi	a0, a0, 0x7d3
   10738: 23 34 a1 06  	sd	a0, 0x68(sp)
   1073c: 37 45 03 00  	lui	a0, 0x34
   10740: 13 05 75 19  	addi	a0, a0, 0x197
   10744: 23 3c a1 06  	sd	a0, 0x78(sp)
   10748: 37 45 03 00  	lui	a0, 0x34
   1074c: 13 05 e5 74  	addi	a0, a0, 0x74e
   10750: 23 30 a1 0c  	sd	a0, 0xc0(sp)
   10754: 37 45 03 00  	lui	a0, 0x34
   10758: 13 05 d5 77  	addi	a0, a0, 0x77d
   1075c: 23 3c a1 0a  	sd	a0, 0xb8(sp)
   10760: 37 45 03 00  	lui	a0, 0x34
   10764: 13 05 a5 78  	addi	a0, a0, 0x78a
   10768: 23 38 a1 0a  	sd	a0, 0xb0(sp)
   1076c: 37 45 03 00  	lui	a0, 0x34
   10770: 13 05 05 73  	addi	a0, a0, 0x730
   10774: 23 30 a1 0e  	sd	a0, 0xe0(sp)
   10778: 37 45 03 00  	lui	a0, 0x34
   1077c: 13 05 35 73  	addi	a0, a0, 0x733
   10780: 23 38 a1 0c  	sd	a0, 0xd0(sp)
   10784: 37 45 03 00  	lui	a0, 0x34
   10788: 13 05 85 73  	addi	a0, a0, 0x738
   1078c: 23 30 a1 0a  	sd	a0, 0xa0(sp)
   10790: 37 45 03 00  	lui	a0, 0x34
   10794: 13 05 a5 71  	addi	a0, a0, 0x71a
   10798: 23 3c a1 0e  	sd	a0, 0xf8(sp)
   1079c: 37 45 03 00  	lui	a0, 0x34
   107a0: 13 05 35 72  	addi	a0, a0, 0x723
   107a4: 23 34 a1 0c  	sd	a0, 0xc8(sp)
   107a8: 37 65 03 00  	lui	a0, 0x36
   107ac: 93 0d 25 8c  	addi	s11, a0, -0x73e
   107b0: 13 85 c9 03  	addi	a0, s3, 0x3c
   107b4: 23 38 a1 00  	sd	a0, 0x10(sp)
   107b8: 13 85 09 04  	addi	a0, s3, 0x40
   107bc: 23 34 a1 00  	sd	a0, 0x8(sp)
   107c0: 13 04 10 00  	addi	s0, zero, 0x1
   107c4: 13 0b d0 02  	addi	s6, zero, 0x2d
   107c8: 13 0d 10 00  	addi	s10, zero, 0x1
   107cc: 13 15 3d 00  	slli	a0, s10, 0x3
   107d0: 33 85 a4 00  	add	a0, s1, a0
   107d4: 83 3c 05 00  	ld	s9, 0x0(a0)
   107d8: 03 c5 0c 00  	lbu	a0, 0x0(s9)
   107dc: 63 12 65 03  	bne	a0, s6, 0x10800 <parse_switches+0x22c>
   107e0: 93 8c 1c 00  	addi	s9, s9, 0x1
   107e4: 13 06 10 00  	addi	a2, zero, 0x1
   107e8: 13 85 0c 00  	addi	a0, s9, 0x0
   107ec: 93 05 0a 00  	addi	a1, s4, 0x0
   107f0: ef 20 40 6b  	jal	ra, 0x12ea4 <keymatch>
   107f4: 63 0c 05 00  	beq	a0, zero, 0x1080c <parse_switches+0x238>
   107f8: 23 a4 01 22  	sw	zero, 0x228(gp)
   107fc: 6f 00 00 09  	jal	zero, 0x1088c <parse_switches+0x2b8>
   10800: 63 40 a0 49  	blt	zero, s10, 0x10c80 <parse_switches+0x6ac>
   10804: 23 b0 01 22  	sd	zero, 0x220(gp)
   10808: 6f 00 40 08  	jal	zero, 0x1088c <parse_switches+0x2b8>
   1080c: 13 06 10 00  	addi	a2, zero, 0x1
   10810: 13 85 0c 00  	addi	a0, s9, 0x0
   10814: 93 85 0a 00  	addi	a1, s5, 0x0
   10818: ef 20 c0 68  	jal	ra, 0x12ea4 <keymatch>
   1081c: 63 10 05 04  	bne	a0, zero, 0x1085c <parse_switches+0x288>
   10820: 13 06 10 00  	addi	a2, zero, 0x1
   10824: 13 85 0c 00  	addi	a0, s9, 0x0
   10828: 83 35 01 12  	ld	a1, 0x120(sp)
   1082c: ef 20 80 67  	jal	ra, 0x12ea4 <keymatch>
   10830: 63 16 05 02  	bne	a0, zero, 0x1085c <parse_switches+0x288>
   10834: 13 06 10 00  	addi	a2, zero, 0x1
   10838: 13 85 0c 00  	addi	a0, s9, 0x0
   1083c: 83 35 01 11  	ld	a1, 0x110(sp)
   10840: ef 20 40 66  	jal	ra, 0x12ea4 <keymatch>
   10844: 63 1c 05 00  	bne	a0, zero, 0x1085c <parse_switches+0x288>
   10848: 13 06 10 00  	addi	a2, zero, 0x1
   1084c: 13 85 0c 00  	addi	a0, s9, 0x0
   10850: 83 35 81 10  	ld	a1, 0x108(sp)
   10854: ef 20 00 65  	jal	ra, 0x12ea4 <keymatch>
   10858: 63 00 05 04  	beq	a0, zero, 0x10898 <parse_switches+0x2c4>
   1085c: 1b 0d 1d 00  	addiw	s10, s10, 0x1
   10860: 63 56 2d 43  	bge	s10, s2, 0x10c8c <parse_switches+0x6b8>
   10864: 13 15 3d 00  	slli	a0, s10, 0x3
   10868: 33 85 a4 00  	add	a0, s1, a0
   1086c: 03 35 05 00  	ld	a0, 0x0(a0)
   10870: 13 06 c1 13  	addi	a2, sp, 0x13c
   10874: 93 85 0d 00  	addi	a1, s11, 0x0
   10878: ef 00 11 2c  	jal	ra, 0x21338 <sscanf>
   1087c: 63 18 85 40  	bne	a0, s0, 0x10c8c <parse_switches+0x6b8>
   10880: 03 25 c1 13  	lw	a0, 0x13c(sp)
   10884: 23 a8 a9 06  	sw	a0, 0x70(s3)
   10888: 23 a2 89 06  	sw	s0, 0x64(s3)
   1088c: 1b 0d 1d 00  	addiw	s10, s10, 0x1
   10890: e3 4e 2d f3  	blt	s10, s2, 0x107cc <parse_switches+0x1f8>
   10894: 6f 00 c0 3e  	jal	zero, 0x10c80 <parse_switches+0x6ac>
   10898: 13 06 20 00  	addi	a2, zero, 0x2
   1089c: 13 85 0c 00  	addi	a0, s9, 0x0
   108a0: 83 35 01 10  	ld	a1, 0x100(sp)
   108a4: ef 20 00 60  	jal	ra, 0x12ea4 <keymatch>
   108a8: 63 08 05 02  	beq	a0, zero, 0x108d8 <parse_switches+0x304>
   108ac: 1b 0d 1d 00  	addiw	s10, s10, 0x1
   108b0: 63 5e 2d 3d  	bge	s10, s2, 0x10c8c <parse_switches+0x6b8>
   108b4: 93 1c 3d 00  	slli	s9, s10, 0x3
   108b8: b3 8c 94 01  	add	s9, s1, s9
   108bc: 03 b5 0c 00  	ld	a0, 0x0(s9)
   108c0: 13 06 10 00  	addi	a2, zero, 0x1
   108c4: 83 35 81 0f  	ld	a1, 0xf8(sp)
   108c8: ef 20 c0 5d  	jal	ra, 0x12ea4 <keymatch>
   108cc: 63 08 05 04  	beq	a0, zero, 0x1091c <parse_switches+0x348>
   108d0: 23 ac 09 04  	sw	zero, 0x58(s3)
   108d4: 6f f0 9f fb  	jal	zero, 0x1088c <parse_switches+0x2b8>
   108d8: 13 06 20 00  	addi	a2, zero, 0x2
   108dc: 13 85 0c 00  	addi	a0, s9, 0x0
   108e0: 83 35 01 0f  	ld	a1, 0xf0(sp)
   108e4: ef 20 00 5c  	jal	ra, 0x12ea4 <keymatch>
   108e8: 63 08 05 04  	beq	a0, zero, 0x10938 <parse_switches+0x364>
   108ec: 1b 0d 1d 00  	addiw	s10, s10, 0x1
   108f0: 63 5e 2d 39  	bge	s10, s2, 0x10c8c <parse_switches+0x6b8>
   108f4: 93 1c 3d 00  	slli	s9, s10, 0x3
   108f8: b3 8c 94 01  	add	s9, s1, s9
   108fc: 03 b5 0c 00  	ld	a0, 0x0(s9)
   10900: 13 06 20 00  	addi	a2, zero, 0x2
   10904: 83 35 01 0e  	ld	a1, 0xe0(sp)
   10908: ef 20 c0 59  	jal	ra, 0x12ea4 <keymatch>
   1090c: 63 06 05 08  	beq	a0, zero, 0x10998 <parse_switches+0x3c4>
   10910: 13 05 20 00  	addi	a0, zero, 0x2
   10914: 23 a4 a9 06  	sw	a0, 0x68(s3)
   10918: 6f f0 5f f7  	jal	zero, 0x1088c <parse_switches+0x2b8>
   1091c: 03 b5 0c 00  	ld	a0, 0x0(s9)
   10920: 13 06 20 00  	addi	a2, zero, 0x2
   10924: 83 35 81 0e  	ld	a1, 0xe8(sp)
   10928: ef 20 c0 57  	jal	ra, 0x12ea4 <keymatch>
   1092c: 63 04 05 08  	beq	a0, zero, 0x109b4 <parse_switches+0x3e0>
   10930: 23 ac 89 04  	sw	s0, 0x58(s3)
   10934: 6f f0 9f f5  	jal	zero, 0x1088c <parse_switches+0x2b8>
   10938: 13 06 10 00  	addi	a2, zero, 0x1
   1093c: 13 85 0c 00  	addi	a0, s9, 0x0
   10940: 83 35 81 0d  	ld	a1, 0xd8(sp)
   10944: ef 20 00 56  	jal	ra, 0x12ea4 <keymatch>
   10948: 63 1c 05 00  	bne	a0, zero, 0x10960 <parse_switches+0x38c>
   1094c: 13 06 10 00  	addi	a2, zero, 0x1
   10950: 13 85 0c 00  	addi	a0, s9, 0x0
   10954: 83 35 81 0a  	ld	a1, 0xa8(sp)
   10958: ef 20 c0 54  	jal	ra, 0x12ea4 <keymatch>
   1095c: 63 0a 05 08  	beq	a0, zero, 0x109f0 <parse_switches+0x41c>
   10960: 03 c5 c1 22  	lbu	a0, 0x22c(gp)
   10964: 63 10 05 02  	bne	a0, zero, 0x10984 <parse_switches+0x3b0>
   10968: 03 b5 01 20  	ld	a0, 0x200(gp)
   1096c: 03 35 85 01  	ld	a0, 0x18(a0)
   10970: 83 35 01 0c  	ld	a1, 0xc0(sp)
   10974: 03 36 81 0b  	ld	a2, 0xb8(sp)
   10978: 83 36 01 0b  	ld	a3, 0xb0(sp)
   1097c: ef 00 21 1f  	jal	ra, 0x20b6e <fprintf>
   10980: 23 86 81 22  	sb	s0, 0x22c(gp)
   10984: 03 b5 09 00  	ld	a0, 0x0(s3)
   10988: 83 25 c5 07  	lw	a1, 0x7c(a0)
   1098c: 93 85 15 00  	addi	a1, a1, 0x1
   10990: 23 2e b5 06  	sw	a1, 0x7c(a0)
   10994: 6f f0 9f ef  	jal	zero, 0x1088c <parse_switches+0x2b8>
   10998: 03 b5 0c 00  	ld	a0, 0x0(s9)
   1099c: 13 06 20 00  	addi	a2, zero, 0x2
   109a0: 83 35 01 0d  	ld	a1, 0xd0(sp)
   109a4: ef 20 00 50  	jal	ra, 0x12ea4 <keymatch>
   109a8: 63 06 05 02  	beq	a0, zero, 0x109d4 <parse_switches+0x400>
   109ac: 23 a4 09 06  	sw	zero, 0x68(s3)
   109b0: 6f f0 df ed  	jal	zero, 0x1088c <parse_switches+0x2b8>
   109b4: 03 b5 0c 00  	ld	a0, 0x0(s9)
   109b8: 13 06 20 00  	addi	a2, zero, 0x2
   109bc: 83 35 81 0c  	ld	a1, 0xc8(sp)
   109c0: ef 20 40 4e  	jal	ra, 0x12ea4 <keymatch>
   109c4: 63 04 05 2c  	beq	a0, zero, 0x10c8c <parse_switches+0x6b8>
   109c8: 13 05 20 00  	addi	a0, zero, 0x2
   109cc: 23 ac a9 04  	sw	a0, 0x58(s3)
   109d0: 6f f0 df eb  	jal	zero, 0x1088c <parse_switches+0x2b8>
   109d4: 03 b5 0c 00  	ld	a0, 0x0(s9)
   109d8: 13 06 20 00  	addi	a2, zero, 0x2
   109dc: 83 35 01 0a  	ld	a1, 0xa0(sp)
   109e0: ef 20 40 4c  	jal	ra, 0x12ea4 <keymatch>
   109e4: 63 04 05 2a  	beq	a0, zero, 0x10c8c <parse_switches+0x6b8>
   109e8: 23 a4 89 06  	sw	s0, 0x68(s3)
   109ec: 6f f0 1f ea  	jal	zero, 0x1088c <parse_switches+0x2b8>
   109f0: 13 06 10 00  	addi	a2, zero, 0x1
   109f4: 13 85 0c 00  	addi	a0, s9, 0x0
   109f8: 83 35 81 0e  	ld	a1, 0xe8(sp)
   109fc: ef 20 80 4a  	jal	ra, 0x12ea4 <keymatch>
   10a00: 63 00 05 02  	beq	a0, zero, 0x10a20 <parse_switches+0x44c>
   10a04: 03 a5 49 06  	lw	a0, 0x64(s3)
   10a08: 23 b4 89 06  	sd	s0, 0x68(s3)
   10a0c: 63 16 05 00  	bne	a0, zero, 0x10a18 <parse_switches+0x444>
   10a10: 13 05 80 0d  	addi	a0, zero, 0xd8
   10a14: 23 a8 a9 06  	sw	a0, 0x70(s3)
   10a18: 23 bc 89 04  	sd	s0, 0x58(s3)
   10a1c: 6f f0 1f e7  	jal	zero, 0x1088c <parse_switches+0x2b8>
   10a20: 13 06 10 00  	addi	a2, zero, 0x1
   10a24: 13 85 0c 00  	addi	a0, s9, 0x0
   10a28: 83 35 81 09  	ld	a1, 0x98(sp)
   10a2c: ef 20 80 47  	jal	ra, 0x12ea4 <keymatch>
   10a30: 63 06 05 00  	beq	a0, zero, 0x10a3c <parse_switches+0x468>
   10a34: 23 a4 81 22  	sw	s0, 0x228(gp)
   10a38: 6f f0 5f e5  	jal	zero, 0x1088c <parse_switches+0x2b8>
   10a3c: 13 06 20 00  	addi	a2, zero, 0x2
   10a40: 13 85 0c 00  	addi	a0, s9, 0x0
   10a44: 83 35 01 09  	ld	a1, 0x90(sp)
   10a48: ef 20 c0 45  	jal	ra, 0x12ea4 <keymatch>
   10a4c: 63 1c 05 00  	bne	a0, zero, 0x10a64 <parse_switches+0x490>
   10a50: 13 06 20 00  	addi	a2, zero, 0x2
   10a54: 13 85 0c 00  	addi	a0, s9, 0x0
   10a58: 83 35 81 08  	ld	a1, 0x88(sp)
   10a5c: ef 20 80 44  	jal	ra, 0x12ea4 <keymatch>
   10a60: 63 06 05 00  	beq	a0, zero, 0x10a6c <parse_switches+0x498>
   10a64: 23 ac 89 02  	sw	s0, 0x38(s3)
   10a68: 6f f0 5f e2  	jal	zero, 0x1088c <parse_switches+0x2b8>
   10a6c: 13 06 30 00  	addi	a2, zero, 0x3
   10a70: 13 85 0c 00  	addi	a0, s9, 0x0
   10a74: 83 35 01 08  	ld	a1, 0x80(sp)
   10a78: ef 20 c0 42  	jal	ra, 0x12ea4 <keymatch>
   10a7c: 63 06 05 04  	beq	a0, zero, 0x10ac8 <parse_switches+0x4f4>
   10a80: 1b 0d 1d 00  	addiw	s10, s10, 0x1
   10a84: 63 54 2d 21  	bge	s10, s2, 0x10c8c <parse_switches+0x6b8>
   10a88: 03 35 81 11  	ld	a0, 0x118(sp)
   10a8c: e3 00 05 e0  	beq	a0, zero, 0x1088c <parse_switches+0x2b8>
   10a90: 13 15 3d 00  	slli	a0, s10, 0x3
   10a94: 33 85 a4 00  	add	a0, s1, a0
   10a98: 23 30 a1 00  	sd	a0, 0x0(sp)
   10a9c: 03 35 05 00  	ld	a0, 0x0(a0)
   10aa0: 83 35 81 07  	ld	a1, 0x78(sp)
   10aa4: ef 00 c1 09  	jal	ra, 0x20b40 <fopen>
   10aa8: 63 04 05 1e  	beq	a0, zero, 0x10c90 <parse_switches+0x6bc>
   10aac: 93 0c 05 00  	addi	s9, a0, 0x0
   10ab0: 13 85 09 00  	addi	a0, s3, 0x0
   10ab4: 93 85 0c 00  	addi	a1, s9, 0x0
   10ab8: ef 10 50 6c  	jal	ra, 0x1297c <read_color_map>
   10abc: 13 85 0c 00  	addi	a0, s9, 0x0
   10ac0: ef f0 50 32  	jal	ra, 0x205e4 <fclose>
   10ac4: 6f f0 5f dc  	jal	zero, 0x10888 <parse_switches+0x2b4>
   10ac8: 13 06 30 00  	addi	a2, zero, 0x3
   10acc: 13 85 0c 00  	addi	a0, s9, 0x0
   10ad0: 83 35 01 07  	ld	a1, 0x70(sp)
   10ad4: ef 20 00 3d  	jal	ra, 0x12ea4 <keymatch>
   10ad8: 63 0a 05 06  	beq	a0, zero, 0x10b4c <parse_switches+0x578>
   10adc: 1b 0d 1d 00  	addiw	s10, s10, 0x1
   10ae0: 13 05 80 07  	addi	a0, zero, 0x78
   10ae4: a3 07 a1 12  	sb	a0, 0x12f(sp)
   10ae8: 63 52 2d 1b  	bge	s10, s2, 0x10c8c <parse_switches+0x6b8>
   10aec: 13 15 3d 00  	slli	a0, s10, 0x3
   10af0: 33 85 a4 00  	add	a0, s1, a0
   10af4: 03 35 05 00  	ld	a0, 0x0(a0)
   10af8: 13 06 01 13  	addi	a2, sp, 0x130
   10afc: 93 06 f1 12  	addi	a3, sp, 0x12f
   10b00: 83 35 81 06  	ld	a1, 0x68(sp)
   10b04: ef 00 51 03  	jal	ra, 0x21338 <sscanf>
   10b08: 63 52 a0 18  	bge	zero, a0, 0x10c8c <parse_switches+0x6b8>
   10b0c: 03 45 f1 12  	lbu	a0, 0x12f(sp)
   10b10: 83 3c 01 13  	ld	s9, 0x130(sp)
   10b14: 13 75 f5 0d  	andi	a0, a0, 0xdf
   10b18: 23 30 a1 00  	sd	a0, 0x0(sp)
   10b1c: 93 05 80 3e  	addi	a1, zero, 0x3e8
   10b20: 13 85 0c 00  	addi	a0, s9, 0x0
   10b24: ef 30 02 3d  	jal	ra, 0x33ef4 <__muldi3>
   10b28: 93 05 d0 04  	addi	a1, zero, 0x4d
   10b2c: 03 36 01 00  	ld	a2, 0x0(sp)
   10b30: 63 04 b6 00  	beq	a2, a1, 0x10b38 <parse_switches+0x564>
   10b34: 13 85 0c 00  	addi	a0, s9, 0x0
   10b38: 93 05 80 3e  	addi	a1, zero, 0x3e8
   10b3c: ef 30 82 3b  	jal	ra, 0x33ef4 <__muldi3>
   10b40: 83 b5 89 00  	ld	a1, 0x8(s3)
   10b44: 23 bc a5 04  	sd	a0, 0x58(a1)
   10b48: 6f f0 5f d4  	jal	zero, 0x1088c <parse_switches+0x2b8>
   10b4c: 13 06 30 00  	addi	a2, zero, 0x3
   10b50: 13 85 0c 00  	addi	a0, s9, 0x0
   10b54: 83 35 01 06  	ld	a1, 0x60(sp)
   10b58: ef 20 c0 34  	jal	ra, 0x12ea4 <keymatch>
   10b5c: 63 06 05 00  	beq	a0, zero, 0x10b68 <parse_switches+0x594>
   10b60: 23 ae 09 04  	sw	zero, 0x5c(s3)
   10b64: 6f f0 9f d2  	jal	zero, 0x1088c <parse_switches+0x2b8>
   10b68: 13 06 30 00  	addi	a2, zero, 0x3
   10b6c: 13 85 0c 00  	addi	a0, s9, 0x0
   10b70: 83 35 81 05  	ld	a1, 0x58(sp)
   10b74: ef 20 00 33  	jal	ra, 0x12ea4 <keymatch>
   10b78: 63 06 05 00  	beq	a0, zero, 0x10b84 <parse_switches+0x5b0>
   10b7c: 23 a6 09 06  	sw	zero, 0x6c(s3)
   10b80: 6f f0 df d0  	jal	zero, 0x1088c <parse_switches+0x2b8>
   10b84: 13 06 30 00  	addi	a2, zero, 0x3
   10b88: 13 85 0c 00  	addi	a0, s9, 0x0
   10b8c: 83 35 01 05  	ld	a1, 0x50(sp)
   10b90: ef 20 40 31  	jal	ra, 0x12ea4 <keymatch>
   10b94: 63 08 05 00  	beq	a0, zero, 0x10ba4 <parse_switches+0x5d0>
   10b98: 13 05 20 00  	addi	a0, zero, 0x2
   10b9c: 23 a4 a1 22  	sw	a0, 0x228(gp)
   10ba0: 6f f0 df ce  	jal	zero, 0x1088c <parse_switches+0x2b8>
   10ba4: 13 06 40 00  	addi	a2, zero, 0x4
   10ba8: 13 85 0c 00  	addi	a0, s9, 0x0
   10bac: 83 35 81 04  	ld	a1, 0x48(sp)
   10bb0: ef 20 40 2f  	jal	ra, 0x12ea4 <keymatch>
   10bb4: 63 00 05 02  	beq	a0, zero, 0x10bd4 <parse_switches+0x600>
   10bb8: 1b 0d 1d 00  	addiw	s10, s10, 0x1
   10bbc: 63 58 2d 0d  	bge	s10, s2, 0x10c8c <parse_switches+0x6b8>
   10bc0: 13 15 3d 00  	slli	a0, s10, 0x3
   10bc4: 33 85 a4 00  	add	a0, s1, a0
   10bc8: 03 35 05 00  	ld	a0, 0x0(a0)
   10bcc: 23 b0 a1 22  	sd	a0, 0x220(gp)
   10bd0: 6f f0 df cb  	jal	zero, 0x1088c <parse_switches+0x2b8>
   10bd4: 13 06 10 00  	addi	a2, zero, 0x1
   10bd8: 13 85 0c 00  	addi	a0, s9, 0x0
   10bdc: 83 35 01 04  	ld	a1, 0x40(sp)
   10be0: ef 20 40 2c  	jal	ra, 0x12ea4 <keymatch>
   10be4: 63 1c 05 00  	bne	a0, zero, 0x10bfc <parse_switches+0x628>
   10be8: 13 06 10 00  	addi	a2, zero, 0x1
   10bec: 13 85 0c 00  	addi	a0, s9, 0x0
   10bf0: 83 35 81 03  	ld	a1, 0x38(sp)
   10bf4: ef 20 00 2b  	jal	ra, 0x12ea4 <keymatch>
   10bf8: 63 06 05 00  	beq	a0, zero, 0x10c04 <parse_switches+0x630>
   10bfc: 13 05 30 00  	addi	a0, zero, 0x3
   10c00: 6f f0 df f9  	jal	zero, 0x10b9c <parse_switches+0x5c8>
   10c04: 13 06 10 00  	addi	a2, zero, 0x1
   10c08: 13 85 0c 00  	addi	a0, s9, 0x0
   10c0c: 83 35 01 03  	ld	a1, 0x30(sp)
   10c10: ef 20 40 29  	jal	ra, 0x12ea4 <keymatch>
   10c14: 63 06 05 00  	beq	a0, zero, 0x10c20 <parse_switches+0x64c>
   10c18: 13 05 40 00  	addi	a0, zero, 0x4
   10c1c: 6f f0 1f f8  	jal	zero, 0x10b9c <parse_switches+0x5c8>
   10c20: 13 06 10 00  	addi	a2, zero, 0x1
   10c24: 13 85 0c 00  	addi	a0, s9, 0x0
   10c28: 83 35 81 02  	ld	a1, 0x28(sp)
   10c2c: ef 20 80 27  	jal	ra, 0x12ea4 <keymatch>
   10c30: 63 0a 05 02  	beq	a0, zero, 0x10c64 <parse_switches+0x690>
   10c34: 1b 0d 1d 00  	addiw	s10, s10, 0x1
   10c38: 63 5a 2d 05  	bge	s10, s2, 0x10c8c <parse_switches+0x6b8>
   10c3c: 13 15 3d 00  	slli	a0, s10, 0x3
   10c40: 33 85 a4 00  	add	a0, s1, a0
   10c44: 03 35 05 00  	ld	a0, 0x0(a0)
   10c48: 83 35 81 01  	ld	a1, 0x18(sp)
   10c4c: 03 36 01 01  	ld	a2, 0x10(sp)
   10c50: 83 36 81 00  	ld	a3, 0x8(sp)
   10c54: ef 00 41 6e  	jal	ra, 0x21338 <sscanf>
   10c58: 93 05 20 00  	addi	a1, zero, 0x2
   10c5c: e3 08 b5 c2  	beq	a0, a1, 0x1088c <parse_switches+0x2b8>
   10c60: 6f 00 c0 02  	jal	zero, 0x10c8c <parse_switches+0x6b8>
   10c64: 13 06 10 00  	addi	a2, zero, 0x1
   10c68: 13 85 0c 00  	addi	a0, s9, 0x0
   10c6c: 83 35 01 02  	ld	a1, 0x20(sp)
   10c70: ef 20 40 23  	jal	ra, 0x12ea4 <keymatch>
   10c74: 63 0c 05 00  	beq	a0, zero, 0x10c8c <parse_switches+0x6b8>
   10c78: 13 05 50 00  	addi	a0, zero, 0x5
   10c7c: 6f f0 1f f2  	jal	zero, 0x10b9c <parse_switches+0x5c8>
   10c80: 13 05 0d 00  	addi	a0, s10, 0x0
   10c84: 13 01 01 14  	addi	sp, sp, 0x140
   10c88: 6f 30 02 24  	jal	zero, 0x33ec8 <__riscv_restore_12>
   10c8c: ef 00 c0 02  	jal	ra, 0x10cb8 <usage>
   10c90: 03 b5 01 20  	ld	a0, 0x200(gp)
   10c94: 03 35 85 01  	ld	a0, 0x18(a0)
   10c98: 03 b6 81 21  	ld	a2, 0x218(gp)
   10c9c: 83 35 01 00  	ld	a1, 0x0(sp)
   10ca0: 83 b6 05 00  	ld	a3, 0x0(a1)
   10ca4: b7 45 03 00  	lui	a1, 0x34
   10ca8: 93 85 a5 19  	addi	a1, a1, 0x19a
   10cac: ef f0 30 6c  	jal	ra, 0x20b6e <fprintf>
   10cb0: 13 05 10 00  	addi	a0, zero, 0x1
   10cb4: ef f0 cf c6  	jal	ra, 0x10120 <exit>

0000000000010cb8 <usage>:
   10cb8: ef 32 62 1f  	jal	t0, 0x33eae <__riscv_save_3>
   10cbc: 03 b5 01 20  	ld	a0, 0x200(gp)
   10cc0: 03 35 85 01  	ld	a0, 0x18(a0)
   10cc4: 03 b6 81 21  	ld	a2, 0x218(gp)
   10cc8: b7 55 03 00  	lui	a1, 0x35
   10ccc: 93 85 85 80  	addi	a1, a1, -0x7f8
   10cd0: ef f0 f0 69  	jal	ra, 0x20b6e <fprintf>
   10cd4: 03 b5 01 20  	ld	a0, 0x200(gp)
   10cd8: 83 36 85 01  	ld	a3, 0x18(a0)
   10cdc: 37 55 03 00  	lui	a0, 0x35
   10ce0: 13 05 e5 81  	addi	a0, a0, -0x7e2
   10ce4: 93 05 c0 00  	addi	a1, zero, 0xc
   10ce8: 13 06 10 00  	addi	a2, zero, 0x1
   10cec: ef 00 e1 1e  	jal	ra, 0x20eda <fwrite>
   10cf0: 03 b5 01 20  	ld	a0, 0x200(gp)
   10cf4: 83 36 85 01  	ld	a3, 0x18(a0)
   10cf8: 37 55 03 00  	lui	a0, 0x35
   10cfc: 13 05 b5 82  	addi	a0, a0, -0x7d5
   10d00: 93 05 50 02  	addi	a1, zero, 0x25
   10d04: 13 06 10 00  	addi	a2, zero, 0x1
   10d08: ef 00 21 1d  	jal	ra, 0x20eda <fwrite>
   10d0c: 03 b5 01 20  	ld	a0, 0x200(gp)
   10d10: 83 36 85 01  	ld	a3, 0x18(a0)
   10d14: 37 55 03 00  	lui	a0, 0x35
   10d18: 13 05 15 85  	addi	a0, a0, -0x7af
   10d1c: 93 05 70 03  	addi	a1, zero, 0x37
   10d20: 13 06 10 00  	addi	a2, zero, 0x1
   10d24: ef 00 61 1b  	jal	ra, 0x20eda <fwrite>
   10d28: 03 b5 01 20  	ld	a0, 0x200(gp)
   10d2c: 83 36 85 01  	ld	a3, 0x18(a0)
   10d30: 37 55 03 00  	lui	a0, 0x35
   10d34: 13 05 95 88  	addi	a0, a0, -0x777
   10d38: 93 05 e0 02  	addi	a1, zero, 0x2e
   10d3c: 13 06 10 00  	addi	a2, zero, 0x1
   10d40: ef 00 a1 19  	jal	ra, 0x20eda <fwrite>
   10d44: 03 b5 01 20  	ld	a0, 0x200(gp)
   10d48: 83 36 85 01  	ld	a3, 0x18(a0)
   10d4c: 37 55 03 00  	lui	a0, 0x35
   10d50: 13 05 85 8b  	addi	a0, a0, -0x748
   10d54: 93 05 80 02  	addi	a1, zero, 0x28
   10d58: 13 06 10 00  	addi	a2, zero, 0x1
   10d5c: ef 00 e1 17  	jal	ra, 0x20eda <fwrite>
   10d60: 03 b5 01 20  	ld	a0, 0x200(gp)
   10d64: 83 36 85 01  	ld	a3, 0x18(a0)
   10d68: 37 55 03 00  	lui	a0, 0x35
   10d6c: 13 05 15 8e  	addi	a0, a0, -0x71f
   10d70: 93 05 d0 03  	addi	a1, zero, 0x3d
   10d74: 13 06 10 00  	addi	a2, zero, 0x1
   10d78: ef 00 21 16  	jal	ra, 0x20eda <fwrite>
   10d7c: 03 b5 01 20  	ld	a0, 0x200(gp)
   10d80: 03 35 85 01  	ld	a0, 0x18(a0)
   10d84: b7 55 03 00  	lui	a1, 0x35
   10d88: 93 85 f5 91  	addi	a1, a1, -0x6e1
   10d8c: 37 56 03 00  	lui	a2, 0x35
   10d90: 13 04 d6 c6  	addi	s0, a2, -0x393
   10d94: 13 06 04 00  	addi	a2, s0, 0x0
   10d98: ef f0 70 5d  	jal	ra, 0x20b6e <fprintf>
   10d9c: 03 b5 01 20  	ld	a0, 0x200(gp)
   10da0: 03 35 85 01  	ld	a0, 0x18(a0)
   10da4: b7 55 03 00  	lui	a1, 0x35
   10da8: 93 85 c5 95  	addi	a1, a1, -0x6a4
   10dac: 13 06 04 00  	addi	a2, s0, 0x0
   10db0: ef f0 f0 5b  	jal	ra, 0x20b6e <fprintf>
   10db4: 03 b5 01 20  	ld	a0, 0x200(gp)
   10db8: 03 35 85 01  	ld	a0, 0x18(a0)
   10dbc: b7 55 03 00  	lui	a1, 0x35
   10dc0: 93 85 95 98  	addi	a1, a1, -0x677
   10dc4: 13 06 04 00  	addi	a2, s0, 0x0
   10dc8: ef f0 70 5a  	jal	ra, 0x20b6e <fprintf>
   10dcc: 03 b5 01 20  	ld	a0, 0x200(gp)
   10dd0: 03 35 85 01  	ld	a0, 0x18(a0)
   10dd4: b7 55 03 00  	lui	a1, 0x35
   10dd8: 93 85 35 9c  	addi	a1, a1, -0x63d
   10ddc: 37 56 03 00  	lui	a2, 0x35
   10de0: 93 04 e6 9f  	addi	s1, a2, -0x602
   10de4: 13 86 04 00  	addi	a2, s1, 0x0
   10de8: ef f0 70 58  	jal	ra, 0x20b6e <fprintf>
   10dec: 03 b5 01 20  	ld	a0, 0x200(gp)
   10df0: 03 35 85 01  	ld	a0, 0x18(a0)
   10df4: b7 55 03 00  	lui	a1, 0x35
   10df8: 93 85 95 a0  	addi	a1, a1, -0x5f7
   10dfc: 13 06 04 00  	addi	a2, s0, 0x0
   10e00: ef f0 f0 56  	jal	ra, 0x20b6e <fprintf>
   10e04: 03 b5 01 20  	ld	a0, 0x200(gp)
   10e08: 83 36 85 01  	ld	a3, 0x18(a0)
   10e0c: 37 55 03 00  	lui	a0, 0x35
   10e10: 13 05 85 a3  	addi	a0, a0, -0x5c8
   10e14: 93 05 d0 01  	addi	a1, zero, 0x1d
   10e18: 13 06 10 00  	addi	a2, zero, 0x1
   10e1c: ef 00 e1 0b  	jal	ra, 0x20eda <fwrite>
   10e20: 03 b5 01 20  	ld	a0, 0x200(gp)
   10e24: 03 35 85 01  	ld	a0, 0x18(a0)
   10e28: b7 55 03 00  	lui	a1, 0x35
   10e2c: 93 85 65 a5  	addi	a1, a1, -0x5aa
   10e30: 13 86 04 00  	addi	a2, s1, 0x0
   10e34: ef f0 b0 53  	jal	ra, 0x20b6e <fprintf>
   10e38: 03 b5 01 20  	ld	a0, 0x200(gp)
   10e3c: 03 35 85 01  	ld	a0, 0x18(a0)
   10e40: b7 55 03 00  	lui	a1, 0x35
   10e44: 93 85 15 a8  	addi	a1, a1, -0x57f
   10e48: 13 06 04 00  	addi	a2, s0, 0x0
   10e4c: ef f0 30 52  	jal	ra, 0x20b6e <fprintf>
   10e50: 03 b5 01 20  	ld	a0, 0x200(gp)
   10e54: 03 35 85 01  	ld	a0, 0x18(a0)
   10e58: b7 55 03 00  	lui	a1, 0x35
   10e5c: 93 85 a5 ab  	addi	a1, a1, -0x546
   10e60: 13 06 04 00  	addi	a2, s0, 0x0
   10e64: ef f0 b0 50  	jal	ra, 0x20b6e <fprintf>
   10e68: 03 b5 01 20  	ld	a0, 0x200(gp)
   10e6c: 83 36 85 01  	ld	a3, 0x18(a0)
   10e70: 37 55 03 00  	lui	a0, 0x35
   10e74: 13 05 c5 ae  	addi	a0, a0, -0x514
   10e78: 93 05 d0 02  	addi	a1, zero, 0x2d
   10e7c: 13 06 10 00  	addi	a2, zero, 0x1
   10e80: ef 00 a1 05  	jal	ra, 0x20eda <fwrite>
   10e84: 03 b5 01 20  	ld	a0, 0x200(gp)
   10e88: 83 36 85 01  	ld	a3, 0x18(a0)
   10e8c: 37 55 03 00  	lui	a0, 0x35
   10e90: 13 05 a5 b1  	addi	a0, a0, -0x4e6
   10e94: 93 05 50 03  	addi	a1, zero, 0x35
   10e98: 13 06 10 00  	addi	a2, zero, 0x1
   10e9c: ef 00 e1 03  	jal	ra, 0x20eda <fwrite>
   10ea0: 03 b5 01 20  	ld	a0, 0x200(gp)
   10ea4: 83 36 85 01  	ld	a3, 0x18(a0)
   10ea8: 37 55 03 00  	lui	a0, 0x35
   10eac: 13 05 05 b5  	addi	a0, a0, -0x4b0
   10eb0: 93 05 e0 03  	addi	a1, zero, 0x3e
   10eb4: 13 06 10 00  	addi	a2, zero, 0x1
   10eb8: ef 00 21 02  	jal	ra, 0x20eda <fwrite>
   10ebc: 03 b5 01 20  	ld	a0, 0x200(gp)
   10ec0: 83 36 85 01  	ld	a3, 0x18(a0)
   10ec4: 37 55 03 00  	lui	a0, 0x35
   10ec8: 13 05 f5 b8  	addi	a0, a0, -0x471
   10ecc: 93 05 80 03  	addi	a1, zero, 0x38
   10ed0: 13 06 10 00  	addi	a2, zero, 0x1
   10ed4: ef 00 61 00  	jal	ra, 0x20eda <fwrite>
   10ed8: 03 b5 01 20  	ld	a0, 0x200(gp)
   10edc: 83 36 85 01  	ld	a3, 0x18(a0)
   10ee0: 37 55 03 00  	lui	a0, 0x35
   10ee4: 13 05 85 bc  	addi	a0, a0, -0x438
   10ee8: 93 05 30 03  	addi	a1, zero, 0x33
   10eec: 13 06 10 00  	addi	a2, zero, 0x1
   10ef0: ef f0 b0 7e  	jal	ra, 0x20eda <fwrite>
   10ef4: 03 b5 01 20  	ld	a0, 0x200(gp)
   10ef8: 83 36 85 01  	ld	a3, 0x18(a0)
   10efc: 37 55 03 00  	lui	a0, 0x35
   10f00: 13 05 c5 bf  	addi	a0, a0, -0x404
   10f04: 93 05 d0 03  	addi	a1, zero, 0x3d
   10f08: 13 06 10 00  	addi	a2, zero, 0x1
   10f0c: ef f0 f0 7c  	jal	ra, 0x20eda <fwrite>
   10f10: 03 b5 01 20  	ld	a0, 0x200(gp)
   10f14: 83 36 85 01  	ld	a3, 0x18(a0)
   10f18: 37 55 03 00  	lui	a0, 0x35
   10f1c: 13 05 a5 c3  	addi	a0, a0, -0x3c6
   10f20: 93 05 30 03  	addi	a1, zero, 0x33
   10f24: 13 06 10 00  	addi	a2, zero, 0x1
   10f28: ef f0 30 7b  	jal	ra, 0x20eda <fwrite>
   10f2c: 03 b5 01 20  	ld	a0, 0x200(gp)
   10f30: 83 36 85 01  	ld	a3, 0x18(a0)
   10f34: 37 55 03 00  	lui	a0, 0x35
   10f38: 13 05 e5 c6  	addi	a0, a0, -0x392
   10f3c: 93 05 e0 02  	addi	a1, zero, 0x2e
   10f40: 13 06 10 00  	addi	a2, zero, 0x1
   10f44: ef f0 70 79  	jal	ra, 0x20eda <fwrite>
   10f48: 03 b5 01 20  	ld	a0, 0x200(gp)
   10f4c: 83 36 85 01  	ld	a3, 0x18(a0)
   10f50: 37 55 03 00  	lui	a0, 0x35
   10f54: 13 05 d5 c9  	addi	a0, a0, -0x363
   10f58: 93 05 b0 02  	addi	a1, zero, 0x2b
   10f5c: 13 06 10 00  	addi	a2, zero, 0x1
   10f60: ef f0 b0 77  	jal	ra, 0x20eda <fwrite>
   10f64: 13 05 10 00  	addi	a0, zero, 0x1
   10f68: ef f0 8f 9b  	jal	ra, 0x10120 <exit>

0000000000010f6c <jpeg_getc>:
   10f6c: ef 22 32 74  	jal	t0, 0x33eae <__riscv_save_3>
   10f70: 13 04 05 00  	addi	s0, a0, 0x0
   10f74: 83 34 05 02  	ld	s1, 0x20(a0)
   10f78: 03 b5 84 00  	ld	a0, 0x8(s1)
   10f7c: 63 16 05 02  	bne	a0, zero, 0x10fa8 <jpeg_getc+0x3c>
   10f80: 83 b5 84 01  	ld	a1, 0x18(s1)
   10f84: 13 05 04 00  	addi	a0, s0, 0x0
   10f88: e7 80 05 00  	jalr	ra, 0x0(a1)
   10f8c: 63 1e 05 00  	bne	a0, zero, 0x10fa8 <jpeg_getc+0x3c>
   10f90: 03 35 04 00  	ld	a0, 0x0(s0)
   10f94: 83 35 05 00  	ld	a1, 0x0(a0)
   10f98: 13 06 60 01  	addi	a2, zero, 0x16
   10f9c: 23 24 c5 02  	sw	a2, 0x28(a0)
   10fa0: 13 05 04 00  	addi	a0, s0, 0x0
   10fa4: e7 80 05 00  	jalr	ra, 0x0(a1)
   10fa8: 03 b5 84 00  	ld	a0, 0x8(s1)
   10fac: 83 b5 04 00  	ld	a1, 0x0(s1)
   10fb0: 13 05 f5 ff  	addi	a0, a0, -0x1
   10fb4: 23 b4 a4 00  	sd	a0, 0x8(s1)
   10fb8: 13 85 15 00  	addi	a0, a1, 0x1
   10fbc: 23 b0 a4 00  	sd	a0, 0x0(s1)
   10fc0: 03 c5 05 00  	lbu	a0, 0x0(a1)
   10fc4: 6f 20 12 72  	jal	zero, 0x33ee4 <__riscv_restore_3>

0000000000010fc8 <jinit_write_ppm>:
   10fc8: ef 22 d2 6d  	jal	t0, 0x33ea4 <__riscv_save_5>
   10fcc: 93 04 05 00  	addi	s1, a0, 0x0
   10fd0: 03 35 85 00  	ld	a0, 0x8(a0)
   10fd4: 83 36 05 00  	ld	a3, 0x0(a0)
   10fd8: 93 05 10 00  	addi	a1, zero, 0x1
   10fdc: 13 06 00 05  	addi	a2, zero, 0x50
   10fe0: 13 09 10 00  	addi	s2, zero, 0x1
   10fe4: 13 85 04 00  	addi	a0, s1, 0x0
   10fe8: e7 80 06 00  	jalr	ra, 0x0(a3)
   10fec: 13 04 05 00  	addi	s0, a0, 0x0
   10ff0: 37 15 01 00  	lui	a0, 0x11
   10ff4: 13 05 85 0d  	addi	a0, a0, 0xd8
   10ff8: 23 30 a4 00  	sd	a0, 0x0(s0)
   10ffc: 37 15 01 00  	lui	a0, 0x11
   11000: 13 05 85 13  	addi	a0, a0, 0x138
   11004: 23 38 a4 00  	sd	a0, 0x10(s0)
   11008: 13 85 04 00  	addi	a0, s1, 0x0
   1100c: ef 20 50 33  	jal	ra, 0x13b40 <jpeg_calc_output_dimensions>
   11010: 83 a5 04 08  	lw	a1, 0x80(s1)
   11014: 03 a5 84 08  	lw	a0, 0x88(s1)
   11018: ef 20 d2 6d  	jal	ra, 0x33ef4 <__muldi3>
   1101c: 83 b5 84 00  	ld	a1, 0x8(s1)
   11020: 23 24 a4 04  	sw	a0, 0x48(s0)
   11024: 83 b6 05 00  	ld	a3, 0x0(a1)
   11028: 13 15 05 02  	slli	a0, a0, 0x20
   1102c: 13 56 05 02  	srli	a2, a0, 0x20
   11030: 23 30 c4 04  	sd	a2, 0x40(s0)
   11034: 93 05 10 00  	addi	a1, zero, 0x1
   11038: 13 85 04 00  	addi	a0, s1, 0x0
   1103c: e7 80 06 00  	jalr	ra, 0x0(a3)
   11040: 83 a5 44 06  	lw	a1, 0x64(s1)
   11044: 23 38 a4 02  	sd	a0, 0x30(s0)
   11048: 63 8a 05 04  	beq	a1, zero, 0x1109c <jinit_write_ppm+0xd4>
   1104c: 03 b5 84 00  	ld	a0, 0x8(s1)
   11050: 83 39 05 01  	ld	s3, 0x10(a0)
   11054: 83 a5 04 08  	lw	a1, 0x80(s1)
   11058: 03 a5 c4 08  	lw	a0, 0x8c(s1)
   1105c: ef 20 92 69  	jal	ra, 0x33ef4 <__muldi3>
   11060: 1b 06 05 00  	addiw	a2, a0, 0x0
   11064: 93 05 10 00  	addi	a1, zero, 0x1
   11068: 93 06 10 00  	addi	a3, zero, 0x1
   1106c: 13 85 04 00  	addi	a0, s1, 0x0
   11070: e7 80 09 00  	jalr	ra, 0x0(s3)
   11074: 83 a5 44 06  	lw	a1, 0x64(s1)
   11078: 23 30 a4 02  	sd	a0, 0x20(s0)
   1107c: 23 24 24 03  	sw	s2, 0x28(s0)
   11080: 63 8c 05 02  	beq	a1, zero, 0x110b8 <jinit_write_ppm+0xf0>
   11084: 03 a5 84 03  	lw	a0, 0x38(s1)
   11088: 93 05 10 00  	addi	a1, zero, 0x1
   1108c: 63 1c b5 02  	bne	a0, a1, 0x110c4 <jinit_write_ppm+0xfc>
   11090: 37 15 01 00  	lui	a0, 0x11
   11094: 13 05 c5 1f  	addi	a0, a0, 0x1fc
   11098: 6f 00 40 03  	jal	zero, 0x110cc <jinit_write_ppm+0x104>
   1109c: 93 05 84 03  	addi	a1, s0, 0x38
   110a0: 23 3c a4 02  	sd	a0, 0x38(s0)
   110a4: 23 30 b4 02  	sd	a1, 0x20(s0)
   110a8: 23 24 24 03  	sw	s2, 0x28(s0)
   110ac: 37 15 01 00  	lui	a0, 0x11
   110b0: 13 05 45 2f  	addi	a0, a0, 0x2f4
   110b4: 6f 00 80 01  	jal	zero, 0x110cc <jinit_write_ppm+0x104>
   110b8: 37 15 01 00  	lui	a0, 0x11
   110bc: 13 05 85 1a  	addi	a0, a0, 0x1a8
   110c0: 6f 00 c0 00  	jal	zero, 0x110cc <jinit_write_ppm+0x104>
   110c4: 37 15 01 00  	lui	a0, 0x11
   110c8: 13 05 85 26  	addi	a0, a0, 0x268
   110cc: 23 34 a4 00  	sd	a0, 0x8(s0)
   110d0: 13 05 04 00  	addi	a0, s0, 0x0
   110d4: 6f 20 b2 60  	jal	zero, 0x33ede <__riscv_restore_5>

00000000000110d8 <start_output_ppm>:
   110d8: 03 26 85 03  	lw	a2, 0x38(a0)
   110dc: 93 06 20 00  	addi	a3, zero, 0x2
   110e0: 63 02 d6 02  	beq	a2, a3, 0x11104 <start_output_ppm+0x2c>
   110e4: 93 06 10 00  	addi	a3, zero, 0x1
   110e8: 63 1e d6 02  	bne	a2, a3, 0x11124 <start_output_ppm+0x4c>
   110ec: 83 b7 85 01  	ld	a5, 0x18(a1)
   110f0: 03 66 05 08  	lwu	a2, 0x80(a0)
   110f4: 83 66 45 08  	lwu	a3, 0x84(a0)
   110f8: 37 55 03 00  	lui	a0, 0x35
   110fc: 93 05 95 cc  	addi	a1, a0, -0x337
   11100: 6f 00 80 01  	jal	zero, 0x11118 <start_output_ppm+0x40>
   11104: 83 b7 85 01  	ld	a5, 0x18(a1)
   11108: 03 66 05 08  	lwu	a2, 0x80(a0)
   1110c: 83 66 45 08  	lwu	a3, 0x84(a0)
   11110: 37 55 03 00  	lui	a0, 0x35
   11114: 93 05 85 cd  	addi	a1, a0, -0x328
   11118: 13 07 f0 0f  	addi	a4, zero, 0xff
   1111c: 13 85 07 00  	addi	a0, a5, 0x0
   11120: 6f f0 f0 24  	jal	zero, 0x20b6e <fprintf>
   11124: 83 35 05 00  	ld	a1, 0x0(a0)
   11128: 03 b3 05 00  	ld	t1, 0x0(a1)
   1112c: 13 06 10 40  	addi	a2, zero, 0x401
   11130: 23 a4 c5 02  	sw	a2, 0x28(a1)
   11134: 67 00 03 00  	jalr	zero, 0x0(t1)

0000000000011138 <finish_output_ppm>:
   11138: 13 01 01 fe  	addi	sp, sp, -0x20
   1113c: 23 3c 11 00  	sd	ra, 0x18(sp)
   11140: 23 38 81 00  	sd	s0, 0x10(sp)
   11144: 23 34 91 00  	sd	s1, 0x8(sp)
   11148: 93 84 05 00  	addi	s1, a1, 0x0
   1114c: 83 b5 85 01  	ld	a1, 0x18(a1)
   11150: 13 04 05 00  	addi	s0, a0, 0x0
   11154: 13 85 05 00  	addi	a0, a1, 0x0
   11158: ef f0 20 66  	jal	ra, 0x207ba <fflush>
   1115c: 03 b5 84 01  	ld	a0, 0x18(s1)
   11160: 03 45 05 01  	lbu	a0, 0x10(a0)
   11164: 13 75 05 04  	andi	a0, a0, 0x40
   11168: 63 1c 05 00  	bne	a0, zero, 0x11180 <finish_output_ppm+0x48>
   1116c: 83 30 81 01  	ld	ra, 0x18(sp)
   11170: 03 34 01 01  	ld	s0, 0x10(sp)
   11174: 83 34 81 00  	ld	s1, 0x8(sp)
   11178: 13 01 01 02  	addi	sp, sp, 0x20
   1117c: 67 80 00 00  	jalr	zero, 0x0(ra)
   11180: 03 35 04 00  	ld	a0, 0x0(s0)
   11184: 03 33 05 00  	ld	t1, 0x0(a0)
   11188: 93 05 40 02  	addi	a1, zero, 0x24
   1118c: 23 24 b5 02  	sw	a1, 0x28(a0)
   11190: 13 05 04 00  	addi	a0, s0, 0x0
   11194: 83 30 81 01  	ld	ra, 0x18(sp)
   11198: 03 34 01 01  	ld	s0, 0x10(sp)
   1119c: 83 34 81 00  	ld	s1, 0x8(sp)
   111a0: 13 01 01 02  	addi	sp, sp, 0x20
   111a4: 67 00 03 00  	jalr	zero, 0x0(t1)

00000000000111a8 <copy_pixel_rows>:
   111a8: 83 a6 85 04  	lw	a3, 0x48(a1)
   111ac: 03 b5 05 03  	ld	a0, 0x30(a1)
   111b0: 63 8e 06 02  	beq	a3, zero, 0x111ec <copy_pixel_rows+0x44>
   111b4: 03 b6 05 02  	ld	a2, 0x20(a1)
   111b8: 03 36 06 00  	ld	a2, 0x0(a2)
   111bc: 93 86 f6 ff  	addi	a3, a3, -0x1
   111c0: 93 96 06 02  	slli	a3, a3, 0x20
   111c4: 93 d6 06 02  	srli	a3, a3, 0x20
   111c8: b3 86 a6 00  	add	a3, a3, a0
   111cc: 93 86 16 00  	addi	a3, a3, 0x1
   111d0: 03 47 06 00  	lbu	a4, 0x0(a2)
   111d4: 13 06 16 00  	addi	a2, a2, 0x1
   111d8: 93 07 15 00  	addi	a5, a0, 0x1
   111dc: 23 00 e5 00  	sb	a4, 0x0(a0)
   111e0: 13 85 07 00  	addi	a0, a5, 0x0
   111e4: e3 96 d7 fe  	bne	a5, a3, 0x111d0 <copy_pixel_rows+0x28>
   111e8: 03 b5 05 03  	ld	a0, 0x30(a1)
   111ec: 03 b6 05 04  	ld	a2, 0x40(a1)
   111f0: 83 b6 85 01  	ld	a3, 0x18(a1)
   111f4: 93 05 10 00  	addi	a1, zero, 0x1
   111f8: 6f f0 30 4e  	jal	zero, 0x20eda <fwrite>

00000000000111fc <put_demapped_gray>:
   111fc: 13 06 05 00  	addi	a2, a0, 0x0
   11200: 03 27 05 08  	lw	a4, 0x80(a0)
   11204: 03 b5 05 03  	ld	a0, 0x30(a1)
   11208: 63 08 07 04  	beq	a4, zero, 0x11258 <put_demapped_gray+0x5c>
   1120c: 03 36 86 09  	ld	a2, 0x98(a2)
   11210: 83 b6 05 02  	ld	a3, 0x20(a1)
   11214: 03 36 06 00  	ld	a2, 0x0(a2)
   11218: 83 b6 06 00  	ld	a3, 0x0(a3)
   1121c: 13 07 f7 ff  	addi	a4, a4, -0x1
   11220: 13 17 07 02  	slli	a4, a4, 0x20
   11224: 13 57 07 02  	srli	a4, a4, 0x20
   11228: 33 07 d7 00  	add	a4, a4, a3
   1122c: 13 07 17 00  	addi	a4, a4, 0x1
   11230: 83 c7 06 00  	lbu	a5, 0x0(a3)
   11234: b3 07 f6 00  	add	a5, a2, a5
   11238: 83 c7 07 00  	lbu	a5, 0x0(a5)
   1123c: 13 88 16 00  	addi	a6, a3, 0x1
   11240: 93 06 15 00  	addi	a3, a0, 0x1
   11244: 23 00 f5 00  	sb	a5, 0x0(a0)
   11248: 13 85 06 00  	addi	a0, a3, 0x0
   1124c: 93 06 08 00  	addi	a3, a6, 0x0
   11250: e3 10 e8 fe  	bne	a6, a4, 0x11230 <put_demapped_gray+0x34>
   11254: 03 b5 05 03  	ld	a0, 0x30(a1)
   11258: 03 b6 05 04  	ld	a2, 0x40(a1)
   1125c: 83 b6 85 01  	ld	a3, 0x18(a1)
   11260: 93 05 10 00  	addi	a1, zero, 0x1
   11264: 6f f0 70 47  	jal	zero, 0x20eda <fwrite>

0000000000011268 <put_demapped_rgb>:
   11268: 13 06 05 00  	addi	a2, a0, 0x0
   1126c: 03 28 05 08  	lw	a6, 0x80(a0)
   11270: 03 b5 05 03  	ld	a0, 0x30(a1)
   11274: 63 08 08 06  	beq	a6, zero, 0x112e4 <put_demapped_rgb+0x7c>
   11278: 03 37 86 09  	ld	a4, 0x98(a2)
   1127c: 83 b7 05 02  	ld	a5, 0x20(a1)
   11280: 03 36 07 00  	ld	a2, 0x0(a4)
   11284: 83 36 87 00  	ld	a3, 0x8(a4)
   11288: 03 37 07 01  	ld	a4, 0x10(a4)
   1128c: 83 b7 07 00  	ld	a5, 0x0(a5)
   11290: 13 08 f8 ff  	addi	a6, a6, -0x1
   11294: 13 18 08 02  	slli	a6, a6, 0x20
   11298: 13 58 08 02  	srli	a6, a6, 0x20
   1129c: 33 08 f8 00  	add	a6, a6, a5
   112a0: 13 08 18 00  	addi	a6, a6, 0x1
   112a4: 83 c8 07 00  	lbu	a7, 0x0(a5)
   112a8: b3 02 16 01  	add	t0, a2, a7
   112ac: 83 c2 02 00  	lbu	t0, 0x0(t0)
   112b0: 23 00 55 00  	sb	t0, 0x0(a0)
   112b4: b3 82 16 01  	add	t0, a3, a7
   112b8: 83 c2 02 00  	lbu	t0, 0x0(t0)
   112bc: a3 00 55 00  	sb	t0, 0x1(a0)
   112c0: b3 08 17 01  	add	a7, a4, a7
   112c4: 83 c8 08 00  	lbu	a7, 0x0(a7)
   112c8: 93 82 17 00  	addi	t0, a5, 0x1
   112cc: 93 07 35 00  	addi	a5, a0, 0x3
   112d0: 23 01 15 01  	sb	a7, 0x2(a0)
   112d4: 13 85 07 00  	addi	a0, a5, 0x0
   112d8: 93 87 02 00  	addi	a5, t0, 0x0
   112dc: e3 94 02 fd  	bne	t0, a6, 0x112a4 <put_demapped_rgb+0x3c>
   112e0: 03 b5 05 03  	ld	a0, 0x30(a1)
   112e4: 03 b6 05 04  	ld	a2, 0x40(a1)
   112e8: 83 b6 85 01  	ld	a3, 0x18(a1)
   112ec: 93 05 10 00  	addi	a1, zero, 0x1
   112f0: 6f f0 b0 3e  	jal	zero, 0x20eda <fwrite>

00000000000112f4 <put_pixel_rows>:
   112f4: 03 b5 05 03  	ld	a0, 0x30(a1)
   112f8: 03 b6 05 04  	ld	a2, 0x40(a1)
   112fc: 83 b6 85 01  	ld	a3, 0x18(a1)
   11300: 93 05 10 00  	addi	a1, zero, 0x1
   11304: 6f f0 70 3d  	jal	zero, 0x20eda <fwrite>

0000000000011308 <jinit_write_gif>:
   11308: ef 22 72 3a  	jal	t0, 0x33eae <__riscv_save_3>
   1130c: 13 04 05 00  	addi	s0, a0, 0x0
   11310: 03 35 85 00  	ld	a0, 0x8(a0)
   11314: 83 36 05 00  	ld	a3, 0x0(a0)
   11318: 93 05 10 00  	addi	a1, zero, 0x1
   1131c: 13 06 00 18  	addi	a2, zero, 0x180
   11320: 13 09 10 00  	addi	s2, zero, 0x1
   11324: 13 05 04 00  	addi	a0, s0, 0x0
   11328: e7 80 06 00  	jalr	ra, 0x0(a3)
   1132c: 93 04 05 00  	addi	s1, a0, 0x0
   11330: 37 15 01 00  	lui	a0, 0x11
   11334: 13 05 45 44  	addi	a0, a0, 0x444
   11338: 23 b0 a4 00  	sd	a0, 0x0(s1)
   1133c: 37 15 01 00  	lui	a0, 0x11
   11340: 13 05 c5 46  	addi	a0, a0, 0x46c
   11344: 23 b4 a4 00  	sd	a0, 0x8(s1)
   11348: 03 25 84 03  	lw	a0, 0x38(s0)
   1134c: b7 15 01 00  	lui	a1, 0x11
   11350: 93 85 45 5e  	addi	a1, a1, 0x5e4
   11354: 23 b8 b4 00  	sd	a1, 0x10(s1)
   11358: 9b 05 f5 ff  	addiw	a1, a0, -0x1
   1135c: 23 b8 84 02  	sd	s0, 0x30(s1)
   11360: 63 70 b9 02  	bgeu	s2, a1, 0x11380 <jinit_write_gif+0x78>
   11364: 03 35 04 00  	ld	a0, 0x0(s0)
   11368: 83 35 05 00  	ld	a1, 0x0(a0)
   1136c: 13 06 60 3f  	addi	a2, zero, 0x3f6
   11370: 23 24 c5 02  	sw	a2, 0x28(a0)
   11374: 13 05 04 00  	addi	a0, s0, 0x0
   11378: e7 80 05 00  	jalr	ra, 0x0(a1)
   1137c: 03 25 84 03  	lw	a0, 0x38(s0)
   11380: 63 18 25 01  	bne	a0, s2, 0x11390 <jinit_write_gif+0x88>
   11384: 03 25 04 12  	lw	a0, 0x120(s0)
   11388: 93 05 90 00  	addi	a1, zero, 0x9
   1138c: 63 40 b5 02  	blt	a0, a1, 0x113ac <jinit_write_gif+0xa4>
   11390: 03 25 04 07  	lw	a0, 0x70(s0)
   11394: 93 05 10 00  	addi	a1, zero, 0x1
   11398: 13 06 10 10  	addi	a2, zero, 0x101
   1139c: 23 22 b4 06  	sw	a1, 0x64(s0)
   113a0: 63 46 c5 00  	blt	a0, a2, 0x113ac <jinit_write_gif+0xa4>
   113a4: 13 05 00 10  	addi	a0, zero, 0x100
   113a8: 23 28 a4 06  	sw	a0, 0x70(s0)
   113ac: 13 05 04 00  	addi	a0, s0, 0x0
   113b0: ef 20 00 79  	jal	ra, 0x13b40 <jpeg_calc_output_dimensions>
   113b4: 03 25 c4 08  	lw	a0, 0x8c(s0)
   113b8: 13 09 10 00  	addi	s2, zero, 0x1
   113bc: 63 0e 25 01  	beq	a0, s2, 0x113d8 <jinit_write_gif+0xd0>
   113c0: 03 35 04 00  	ld	a0, 0x0(s0)
   113c4: 83 35 05 00  	ld	a1, 0x0(a0)
   113c8: 13 06 40 3f  	addi	a2, zero, 0x3f4
   113cc: 23 24 c5 02  	sw	a2, 0x28(a0)
   113d0: 13 05 04 00  	addi	a0, s0, 0x0
   113d4: e7 80 05 00  	jalr	ra, 0x0(a1)
   113d8: 03 35 84 00  	ld	a0, 0x8(s0)
   113dc: 03 37 05 01  	ld	a4, 0x10(a0)
   113e0: 03 26 04 08  	lw	a2, 0x80(s0)
   113e4: 93 05 10 00  	addi	a1, zero, 0x1
   113e8: 93 06 10 00  	addi	a3, zero, 0x1
   113ec: 13 05 04 00  	addi	a0, s0, 0x0
   113f0: e7 00 07 00  	jalr	ra, 0x0(a4)
   113f4: 83 35 84 00  	ld	a1, 0x8(s0)
   113f8: 83 b6 05 00  	ld	a3, 0x0(a1)
   113fc: 23 b0 a4 02  	sd	a0, 0x20(s1)
   11400: 23 a4 24 03  	sw	s2, 0x28(s1)
   11404: 37 25 00 00  	lui	a0, 0x2
   11408: 1b 06 65 71  	addiw	a2, a0, 0x716
   1140c: 93 05 10 00  	addi	a1, zero, 0x1
   11410: 13 05 04 00  	addi	a0, s0, 0x0
   11414: e7 80 06 00  	jalr	ra, 0x0(a3)
   11418: 83 35 84 00  	ld	a1, 0x8(s0)
   1141c: 83 b6 85 00  	ld	a3, 0x8(a1)
   11420: 23 b4 a4 06  	sd	a0, 0x68(s1)
   11424: 37 a5 00 00  	lui	a0, 0xa
   11428: 1b 06 85 c5  	addiw	a2, a0, -0x3a8
   1142c: 93 05 10 00  	addi	a1, zero, 0x1
   11430: 13 05 04 00  	addi	a0, s0, 0x0
   11434: e7 80 06 00  	jalr	ra, 0x0(a3)
   11438: 23 b8 a4 06  	sd	a0, 0x70(s1)
   1143c: 13 85 04 00  	addi	a0, s1, 0x0
   11440: 6f 20 52 2a  	jal	zero, 0x33ee4 <__riscv_restore_3>

0000000000011444 <start_output_gif>:
   11444: 13 06 05 00  	addi	a2, a0, 0x0
   11448: 83 26 45 06  	lw	a3, 0x64(a0)
   1144c: 13 85 05 00  	addi	a0, a1, 0x0
   11450: 63 88 06 00  	beq	a3, zero, 0x11460 <start_output_gif+0x1c>
   11454: 83 25 46 09  	lw	a1, 0x94(a2)
   11458: 03 36 86 09  	ld	a2, 0x98(a2)
   1145c: 6f 00 80 26  	jal	zero, 0x116c4 <emit_header>
   11460: 93 05 00 10  	addi	a1, zero, 0x100
   11464: 13 06 00 00  	addi	a2, zero, 0x0
   11468: 6f 00 c0 25  	jal	zero, 0x116c4 <emit_header>

000000000001146c <put_pixel_rows>:
   1146c: ef 22 32 21  	jal	t0, 0x33e7e <__riscv_save_12>
   11470: 03 29 05 08  	lw	s2, 0x80(a0)
   11474: 63 06 09 16  	beq	s2, zero, 0x115e0 <put_pixel_rows+0x174>
   11478: 13 84 05 00  	addi	s0, a1, 0x0
   1147c: 03 b5 05 02  	ld	a0, 0x20(a1)
   11480: b7 f5 ff ff  	lui	a1, 0xfffff
   11484: 9b 89 55 c7  	addiw	s3, a1, -0x38b
   11488: 03 3a 05 00  	ld	s4, 0x0(a0)
   1148c: 37 15 00 00  	lui	a0, 0x1
   11490: 9b 0a a5 38  	addiw	s5, a0, 0x38a
   11494: 1b 0b f5 ff  	addiw	s6, a0, -0x1
   11498: b7 25 00 00  	lui	a1, 0x2
   1149c: 9b 84 65 71  	addiw	s1, a1, 0x716
   114a0: 93 0b f0 ff  	addi	s7, zero, -0x1
   114a4: 13 0c b5 38  	addi	s8, a0, 0x38b
   114a8: 03 25 84 05  	lw	a0, 0x58(s0)
   114ac: 83 4c 0a 00  	lbu	s9, 0x0(s4)
   114b0: 63 08 05 00  	beq	a0, zero, 0x114c0 <put_pixel_rows+0x54>
   114b4: 23 1a 94 05  	sh	s9, 0x54(s0)
   114b8: 23 2c 04 04  	sw	zero, 0x58(s0)
   114bc: 6f 00 80 11  	jal	zero, 0x115d4 <put_pixel_rows+0x168>
   114c0: 83 15 44 05  	lh	a1, 0x54(s0)
   114c4: 13 95 4c 00  	slli	a0, s9, 0x4
   114c8: b3 0d b5 00  	add	s11, a0, a1
   114cc: 33 a5 ba 01  	slt	a0, s5, s11
   114d0: 33 06 a0 40  	sub	a2, zero, a0
   114d4: 03 35 84 06  	ld	a0, 0x68(s0)
   114d8: 33 76 36 01  	and	a2, a2, s3
   114dc: b3 8d cd 00  	add	s11, s11, a2
   114e0: 13 96 1d 00  	slli	a2, s11, 0x1
   114e4: 33 06 c5 00  	add	a2, a0, a2
   114e8: 83 56 06 00  	lhu	a3, 0x0(a2)
   114ec: 13 96 85 00  	slli	a2, a1, 0x8
   114f0: 33 6d 96 01  	or	s10, a2, s9
   114f4: 63 84 06 06  	beq	a3, zero, 0x1155c <put_pixel_rows+0xf0>
   114f8: 03 36 04 07  	ld	a2, 0x70(s0)
   114fc: 13 97 3d 00  	slli	a4, s11, 0x3
   11500: 33 07 e6 00  	add	a4, a2, a4
   11504: 03 37 07 00  	ld	a4, 0x0(a4)
   11508: 63 16 a7 01  	bne	a4, s10, 0x11514 <put_pixel_rows+0xa8>
   1150c: 23 1a d4 04  	sh	a3, 0x54(s0)
   11510: 6f 00 40 0c  	jal	zero, 0x115d4 <put_pixel_rows+0x168>
   11514: b3 36 b0 01  	sltu	a3, zero, s11
   11518: 33 87 3d 01  	add	a4, s11, s3
   1151c: 93 86 f6 ff  	addi	a3, a3, -0x1
   11520: b3 e6 e6 00  	or	a3, a3, a4
   11524: b3 8d dd 00  	add	s11, s11, a3
   11528: 1b d7 fd 41  	sraiw	a4, s11, 0x1f
   1152c: 33 77 87 01  	and	a4, a4, s8
   11530: bb 8d ed 00  	addw	s11, s11, a4
   11534: 13 97 1d 00  	slli	a4, s11, 0x1
   11538: 33 07 e5 00  	add	a4, a0, a4
   1153c: 03 57 07 00  	lhu	a4, 0x0(a4)
   11540: 63 0e 07 00  	beq	a4, zero, 0x1155c <put_pixel_rows+0xf0>
   11544: 93 97 3d 00  	slli	a5, s11, 0x3
   11548: b3 07 f6 00  	add	a5, a2, a5
   1154c: 83 b7 07 00  	ld	a5, 0x0(a5)
   11550: e3 9a a7 fd  	bne	a5, s10, 0x11524 <put_pixel_rows+0xb8>
   11554: 23 1a e4 04  	sh	a4, 0x54(s0)
   11558: 6f 00 c0 07  	jal	zero, 0x115d4 <put_pixel_rows+0x168>
   1155c: 13 05 04 00  	addi	a0, s0, 0x0
   11560: ef 00 80 50  	jal	ra, 0x11a68 <output>
   11564: 03 15 04 06  	lh	a0, 0x60(s0)
   11568: 63 48 ab 02  	blt	s6, a0, 0x11598 <put_pixel_rows+0x12c>
   1156c: 93 05 15 00  	addi	a1, a0, 0x1
   11570: 03 36 84 06  	ld	a2, 0x68(s0)
   11574: 23 10 b4 06  	sh	a1, 0x60(s0)
   11578: 93 95 1d 00  	slli	a1, s11, 0x1
   1157c: 83 36 04 07  	ld	a3, 0x70(s0)
   11580: b3 05 b6 00  	add	a1, a2, a1
   11584: 23 90 a5 00  	sh	a0, 0x0(a1)
   11588: 93 9d 3d 00  	slli	s11, s11, 0x3
   1158c: b3 86 b6 01  	add	a3, a3, s11
   11590: 23 b0 a6 01  	sd	s10, 0x0(a3)
   11594: 6f 00 c0 03  	jal	zero, 0x115d0 <put_pixel_rows+0x164>
   11598: 03 35 84 06  	ld	a0, 0x68(s0)
   1159c: 93 05 00 00  	addi	a1, zero, 0x0
   115a0: 13 86 04 00  	addi	a2, s1, 0x0
   115a4: ef 00 c1 75  	jal	ra, 0x21d00 <memset>
   115a8: 83 15 c4 05  	lh	a1, 0x5c(s0)
   115ac: 13 85 25 00  	addi	a0, a1, 0x2
   115b0: 23 10 a4 06  	sh	a0, 0x60(s0)
   115b4: 13 05 04 00  	addi	a0, s0, 0x0
   115b8: ef 00 00 4b  	jal	ra, 0x11a68 <output>
   115bc: 03 65 04 04  	lwu	a0, 0x40(s0)
   115c0: 23 2c a4 02  	sw	a0, 0x38(s0)
   115c4: 3b 95 ab 00  	sllw	a0, s7, a0
   115c8: 13 45 f5 ff  	xori	a0, a0, -0x1
   115cc: 23 1e a4 02  	sh	a0, 0x3c(s0)
   115d0: 23 1a 94 05  	sh	s9, 0x54(s0)
   115d4: 1b 09 f9 ff  	addiw	s2, s2, -0x1
   115d8: 13 0a 1a 00  	addi	s4, s4, 0x1
   115dc: e3 16 09 ec  	bne	s2, zero, 0x114a8 <put_pixel_rows+0x3c>
   115e0: 6f 20 92 0e  	jal	zero, 0x33ec8 <__riscv_restore_12>

00000000000115e4 <finish_output_gif>:
   115e4: 13 01 01 fe  	addi	sp, sp, -0x20
   115e8: 23 3c 11 00  	sd	ra, 0x18(sp)
   115ec: 23 38 81 00  	sd	s0, 0x10(sp)
   115f0: 23 34 91 00  	sd	s1, 0x8(sp)
   115f4: 93 84 05 00  	addi	s1, a1, 0x0
   115f8: 83 a5 85 05  	lw	a1, 0x58(a1)
   115fc: 13 04 05 00  	addi	s0, a0, 0x0
   11600: 63 98 05 00  	bne	a1, zero, 0x11610 <finish_output_gif+0x2c>
   11604: 83 95 44 05  	lh	a1, 0x54(s1)
   11608: 13 85 04 00  	addi	a0, s1, 0x0
   1160c: ef 00 c0 45  	jal	ra, 0x11a68 <output>
   11610: 83 95 e4 05  	lh	a1, 0x5e(s1)
   11614: 13 85 04 00  	addi	a0, s1, 0x0
   11618: ef 00 00 45  	jal	ra, 0x11a68 <output>
   1161c: 03 a5 04 05  	lw	a0, 0x50(s1)
   11620: 63 58 a0 02  	bge	zero, a0, 0x11650 <finish_output_gif+0x6c>
   11624: 03 a5 84 07  	lw	a0, 0x78(s1)
   11628: 83 b5 84 04  	ld	a1, 0x48(s1)
   1162c: 1b 05 15 00  	addiw	a0, a0, 0x1
   11630: 23 ac a4 06  	sw	a0, 0x78(s1)
   11634: 33 85 a4 00  	add	a0, s1, a0
   11638: 23 0e b5 06  	sb	a1, 0x7c(a0)
   1163c: 03 a5 84 07  	lw	a0, 0x78(s1)
   11640: 93 05 f0 0f  	addi	a1, zero, 0xff
   11644: 63 46 b5 00  	blt	a0, a1, 0x11650 <finish_output_gif+0x6c>
   11648: 13 85 04 00  	addi	a0, s1, 0x0
   1164c: ef 00 00 4d  	jal	ra, 0x11b1c <flush_packet>
   11650: 13 85 04 00  	addi	a0, s1, 0x0
   11654: ef 00 80 4c  	jal	ra, 0x11b1c <flush_packet>
   11658: 83 b5 84 01  	ld	a1, 0x18(s1)
   1165c: 13 05 00 00  	addi	a0, zero, 0x0
   11660: ef f0 90 1e  	jal	ra, 0x21048 <putc>
   11664: 83 b5 84 01  	ld	a1, 0x18(s1)
   11668: 13 05 b0 03  	addi	a0, zero, 0x3b
   1166c: ef f0 d0 1d  	jal	ra, 0x21048 <putc>
   11670: 03 b5 84 01  	ld	a0, 0x18(s1)
   11674: ef f0 60 14  	jal	ra, 0x207ba <fflush>
   11678: 03 b5 84 01  	ld	a0, 0x18(s1)
   1167c: 03 45 05 01  	lbu	a0, 0x10(a0)
   11680: 13 75 05 04  	andi	a0, a0, 0x40
   11684: 63 1c 05 00  	bne	a0, zero, 0x1169c <finish_output_gif+0xb8>
   11688: 83 30 81 01  	ld	ra, 0x18(sp)
   1168c: 03 34 01 01  	ld	s0, 0x10(sp)
   11690: 83 34 81 00  	ld	s1, 0x8(sp)
   11694: 13 01 01 02  	addi	sp, sp, 0x20
   11698: 67 80 00 00  	jalr	zero, 0x0(ra)
   1169c: 03 35 04 00  	ld	a0, 0x0(s0)
   116a0: 03 33 05 00  	ld	t1, 0x0(a0)
   116a4: 93 05 40 02  	addi	a1, zero, 0x24
   116a8: 23 24 b5 02  	sw	a1, 0x28(a0)
   116ac: 13 05 04 00  	addi	a0, s0, 0x0
   116b0: 83 30 81 01  	ld	ra, 0x18(sp)
   116b4: 03 34 01 01  	ld	s0, 0x10(sp)
   116b8: 83 34 81 00  	ld	s1, 0x8(sp)
   116bc: 13 01 01 02  	addi	sp, sp, 0x20
   116c0: 67 00 03 00  	jalr	zero, 0x0(t1)

00000000000116c4 <emit_header>:
   116c4: 13 01 01 fa  	addi	sp, sp, -0x60
   116c8: 23 3c 11 04  	sd	ra, 0x58(sp)
   116cc: 23 38 81 04  	sd	s0, 0x50(sp)
   116d0: 23 34 91 04  	sd	s1, 0x48(sp)
   116d4: 23 30 21 05  	sd	s2, 0x40(sp)
   116d8: 23 3c 31 03  	sd	s3, 0x38(sp)
   116dc: 23 38 41 03  	sd	s4, 0x30(sp)
   116e0: 23 34 51 03  	sd	s5, 0x28(sp)
   116e4: 23 30 61 03  	sd	s6, 0x20(sp)
   116e8: 23 3c 71 01  	sd	s7, 0x18(sp)
   116ec: 23 38 81 01  	sd	s8, 0x10(sp)
   116f0: 23 34 91 01  	sd	s9, 0x8(sp)
   116f4: 13 04 05 00  	addi	s0, a0, 0x0
   116f8: 03 35 05 03  	ld	a0, 0x30(a0)
   116fc: 03 2b 05 12  	lw	s6, 0x120(a0)
   11700: 93 06 10 10  	addi	a3, zero, 0x101
   11704: 93 04 06 00  	addi	s1, a2, 0x0
   11708: 13 89 05 00  	addi	s2, a1, 0x0
   1170c: 63 c2 d5 02  	blt	a1, a3, 0x11730 <emit_header+0x6c>
   11710: 83 35 05 00  	ld	a1, 0x0(a0)
   11714: 23 a6 25 03  	sw	s2, 0x2c(a1)
   11718: 03 35 04 03  	ld	a0, 0x30(s0)
   1171c: 03 36 05 00  	ld	a2, 0x0(a0)
   11720: 03 36 06 00  	ld	a2, 0x0(a2)
   11724: 93 06 f0 40  	addi	a3, zero, 0x40f
   11728: 23 a4 d5 02  	sw	a3, 0x28(a1)
   1172c: e7 00 06 00  	jalr	ra, 0x0(a2)
   11730: 13 0b 8b ff  	addi	s6, s6, -0x8
   11734: 13 05 10 00  	addi	a0, zero, 0x1
   11738: 93 09 00 ff  	addi	s3, zero, -0x10
   1173c: 13 0a 10 00  	addi	s4, zero, 0x1
   11740: bb 1b 45 01  	sllw	s7, a0, s4
   11744: 1b 0a 1a 00  	addiw	s4, s4, 0x1
   11748: 9b 89 09 01  	addiw	s3, s3, 0x10
   1174c: e3 ca 2b ff  	blt	s7, s2, 0x11740 <emit_header+0x7c>
   11750: 83 35 84 01  	ld	a1, 0x18(s0)
   11754: 13 05 70 04  	addi	a0, zero, 0x47
   11758: ef f0 10 0f  	jal	ra, 0x21048 <putc>
   1175c: 83 35 84 01  	ld	a1, 0x18(s0)
   11760: 13 05 90 04  	addi	a0, zero, 0x49
   11764: ef f0 50 0e  	jal	ra, 0x21048 <putc>
   11768: 83 35 84 01  	ld	a1, 0x18(s0)
   1176c: 13 05 60 04  	addi	a0, zero, 0x46
   11770: ef f0 90 0d  	jal	ra, 0x21048 <putc>
   11774: 83 35 84 01  	ld	a1, 0x18(s0)
   11778: 13 05 80 03  	addi	a0, zero, 0x38
   1177c: ef f0 d0 0c  	jal	ra, 0x21048 <putc>
   11780: 83 35 84 01  	ld	a1, 0x18(s0)
   11784: 13 05 70 03  	addi	a0, zero, 0x37
   11788: ef f0 10 0c  	jal	ra, 0x21048 <putc>
   1178c: 83 35 84 01  	ld	a1, 0x18(s0)
   11790: 13 05 10 06  	addi	a0, zero, 0x61
   11794: ef f0 50 0b  	jal	ra, 0x21048 <putc>
   11798: 03 35 04 03  	ld	a0, 0x30(s0)
   1179c: 83 2a 05 08  	lw	s5, 0x80(a0)
   117a0: 83 35 84 01  	ld	a1, 0x18(s0)
   117a4: 13 f5 fa 0f  	andi	a0, s5, 0xff
   117a8: ef f0 10 0a  	jal	ra, 0x21048 <putc>
   117ac: 83 35 84 01  	ld	a1, 0x18(s0)
   117b0: 13 95 0a 03  	slli	a0, s5, 0x30
   117b4: 13 55 85 03  	srli	a0, a0, 0x38
   117b8: ef f0 10 09  	jal	ra, 0x21048 <putc>
   117bc: 03 35 04 03  	ld	a0, 0x30(s0)
   117c0: 83 2a 45 08  	lw	s5, 0x84(a0)
   117c4: 83 35 84 01  	ld	a1, 0x18(s0)
   117c8: 13 f5 fa 0f  	andi	a0, s5, 0xff
   117cc: ef f0 d0 07  	jal	ra, 0x21048 <putc>
   117d0: 83 35 84 01  	ld	a1, 0x18(s0)
   117d4: 13 95 0a 03  	slli	a0, s5, 0x30
   117d8: 13 55 85 03  	srli	a0, a0, 0x38
   117dc: ef f0 d0 06  	jal	ra, 0x21048 <putc>
   117e0: 83 35 84 01  	ld	a1, 0x18(s0)
   117e4: 1b 05 ea ff  	addiw	a0, s4, -0x2
   117e8: 33 65 35 01  	or	a0, a0, s3
   117ec: 13 65 05 08  	ori	a0, a0, 0x80
   117f0: ef f0 90 05  	jal	ra, 0x21048 <putc>
   117f4: 83 35 84 01  	ld	a1, 0x18(s0)
   117f8: 13 05 00 00  	addi	a0, zero, 0x0
   117fc: ef f0 d0 04  	jal	ra, 0x21048 <putc>
   11800: 83 35 84 01  	ld	a1, 0x18(s0)
   11804: 13 05 00 00  	addi	a0, zero, 0x0
   11808: ef f0 10 04  	jal	ra, 0x21048 <putc>
   1180c: 13 05 00 02  	addi	a0, zero, 0x20
   11810: 9b 09 fa ff  	addiw	s3, s4, -0x1
   11814: 63 02 aa 0c  	beq	s4, a0, 0x118d8 <emit_header+0x214>
   11818: 1b 0a f9 ff  	addiw	s4, s2, -0x1
   1181c: 1b 55 fa 01  	srliw	a0, s4, 0x1f
   11820: 33 05 aa 00  	add	a0, s4, a0
   11824: 63 44 70 01  	blt	zero, s7, 0x1182c <emit_header+0x168>
   11828: 93 0b 10 00  	addi	s7, zero, 0x1
   1182c: 13 0c 00 00  	addi	s8, zero, 0x0
   11830: 9b 5a 15 40  	sraiw	s5, a0, 0x1
   11834: 93 0c 20 00  	addi	s9, zero, 0x2
   11838: 63 52 2c 07  	bge	s8, s2, 0x1189c <emit_header+0x1d8>
   1183c: 63 86 04 06  	beq	s1, zero, 0x118a8 <emit_header+0x1e4>
   11840: 03 35 04 03  	ld	a0, 0x30(s0)
   11844: 83 b5 04 00  	ld	a1, 0x0(s1)
   11848: 03 25 85 03  	lw	a0, 0x38(a0)
   1184c: b3 85 85 01  	add	a1, a1, s8
   11850: 83 c5 05 00  	lbu	a1, 0x0(a1)
   11854: 3b d6 65 01  	srlw	a2, a1, s6
   11858: 63 14 95 07  	bne	a0, s9, 0x118c0 <emit_header+0x1fc>
   1185c: 83 35 84 01  	ld	a1, 0x18(s0)
   11860: 13 05 06 00  	addi	a0, a2, 0x0
   11864: ef f0 40 7e  	jal	ra, 0x21048 <putc>
   11868: 03 b5 84 00  	ld	a0, 0x8(s1)
   1186c: 33 05 85 01  	add	a0, a0, s8
   11870: 03 45 05 00  	lbu	a0, 0x0(a0)
   11874: 83 35 84 01  	ld	a1, 0x18(s0)
   11878: 3b 55 65 01  	srlw	a0, a0, s6
   1187c: ef f0 c0 7c  	jal	ra, 0x21048 <putc>
   11880: 03 b5 04 01  	ld	a0, 0x10(s1)
   11884: 33 05 85 01  	add	a0, a0, s8
   11888: 03 45 05 00  	lbu	a0, 0x0(a0)
   1188c: 83 35 84 01  	ld	a1, 0x18(s0)
   11890: 3b 55 65 01  	srlw	a0, a0, s6
   11894: ef f0 40 7b  	jal	ra, 0x21048 <putc>
   11898: 6f 00 40 03  	jal	zero, 0x118cc <emit_header+0x208>
   1189c: 13 05 04 00  	addi	a0, s0, 0x0
   118a0: 93 05 00 00  	addi	a1, zero, 0x0
   118a4: 6f 00 40 02  	jal	zero, 0x118c8 <emit_header+0x204>
   118a8: 13 85 0a 00  	addi	a0, s5, 0x0
   118ac: 93 05 0a 00  	addi	a1, s4, 0x0
   118b0: ef 20 42 68  	jal	ra, 0x33f34 <__divdi3>
   118b4: 9b 05 05 00  	addiw	a1, a0, 0x0
   118b8: 13 05 04 00  	addi	a0, s0, 0x0
   118bc: 6f 00 c0 00  	jal	zero, 0x118c8 <emit_header+0x204>
   118c0: 13 05 04 00  	addi	a0, s0, 0x0
   118c4: 93 05 06 00  	addi	a1, a2, 0x0
   118c8: ef 00 00 15  	jal	ra, 0x11a18 <put_3bytes>
   118cc: 13 0c 1c 00  	addi	s8, s8, 0x1
   118d0: 9b 8a fa 0f  	addiw	s5, s5, 0xff
   118d4: e3 92 8b f7  	bne	s7, s8, 0x11838 <emit_header+0x174>
   118d8: 13 05 20 00  	addi	a0, zero, 0x2
   118dc: 63 64 35 01  	bltu	a0, s3, 0x118e4 <emit_header+0x220>
   118e0: 93 09 20 00  	addi	s3, zero, 0x2
   118e4: 83 35 84 01  	ld	a1, 0x18(s0)
   118e8: 13 05 c0 02  	addi	a0, zero, 0x2c
   118ec: ef f0 c0 75  	jal	ra, 0x21048 <putc>
   118f0: 83 35 84 01  	ld	a1, 0x18(s0)
   118f4: 13 05 00 00  	addi	a0, zero, 0x0
   118f8: ef f0 00 75  	jal	ra, 0x21048 <putc>
   118fc: 83 35 84 01  	ld	a1, 0x18(s0)
   11900: 13 05 00 00  	addi	a0, zero, 0x0
   11904: ef f0 40 74  	jal	ra, 0x21048 <putc>
   11908: 83 35 84 01  	ld	a1, 0x18(s0)
   1190c: 13 05 00 00  	addi	a0, zero, 0x0
   11910: ef f0 80 73  	jal	ra, 0x21048 <putc>
   11914: 83 35 84 01  	ld	a1, 0x18(s0)
   11918: 13 05 00 00  	addi	a0, zero, 0x0
   1191c: ef f0 c0 72  	jal	ra, 0x21048 <putc>
   11920: 03 35 04 03  	ld	a0, 0x30(s0)
   11924: 83 24 05 08  	lw	s1, 0x80(a0)
   11928: 83 35 84 01  	ld	a1, 0x18(s0)
   1192c: 13 f5 f4 0f  	andi	a0, s1, 0xff
   11930: ef f0 80 71  	jal	ra, 0x21048 <putc>
   11934: 83 35 84 01  	ld	a1, 0x18(s0)
   11938: 13 95 04 03  	slli	a0, s1, 0x30
   1193c: 13 55 85 03  	srli	a0, a0, 0x38
   11940: ef f0 80 70  	jal	ra, 0x21048 <putc>
   11944: 03 35 04 03  	ld	a0, 0x30(s0)
   11948: 83 24 45 08  	lw	s1, 0x84(a0)
   1194c: 83 35 84 01  	ld	a1, 0x18(s0)
   11950: 13 f5 f4 0f  	andi	a0, s1, 0xff
   11954: ef f0 40 6f  	jal	ra, 0x21048 <putc>
   11958: 83 35 84 01  	ld	a1, 0x18(s0)
   1195c: 13 95 04 03  	slli	a0, s1, 0x30
   11960: 13 55 85 03  	srli	a0, a0, 0x38
   11964: ef f0 40 6e  	jal	ra, 0x21048 <putc>
   11968: 83 35 84 01  	ld	a1, 0x18(s0)
   1196c: 13 05 00 00  	addi	a0, zero, 0x0
   11970: ef f0 80 6d  	jal	ra, 0x21048 <putc>
   11974: 83 35 84 01  	ld	a1, 0x18(s0)
   11978: 13 85 09 00  	addi	a0, s3, 0x0
   1197c: ef f0 c0 6c  	jal	ra, 0x21048 <putc>
   11980: 13 85 19 00  	addi	a0, s3, 0x1
   11984: 23 20 a4 04  	sw	a0, 0x40(s0)
   11988: 23 2c a4 02  	sw	a0, 0x38(s0)
   1198c: 13 05 e0 ff  	addi	a0, zero, -0x2
   11990: 3b 15 35 01  	sllw	a0, a0, s3
   11994: 13 45 f5 ff  	xori	a0, a0, -0x1
   11998: 23 1e a4 02  	sh	a0, 0x3c(s0)
   1199c: 13 05 10 00  	addi	a0, zero, 0x1
   119a0: bb 15 35 01  	sllw	a1, a0, s3
   119a4: 23 1e b4 04  	sh	a1, 0x5c(s0)
   119a8: 13 86 15 00  	addi	a2, a1, 0x1
   119ac: 23 1f c4 04  	sh	a2, 0x5e(s0)
   119b0: 93 85 25 00  	addi	a1, a1, 0x2
   119b4: 23 10 b4 06  	sh	a1, 0x60(s0)
   119b8: 23 2c a4 04  	sw	a0, 0x58(s0)
   119bc: 03 35 84 06  	ld	a0, 0x68(s0)
   119c0: 23 2c 04 06  	sw	zero, 0x78(s0)
   119c4: 23 34 04 04  	sd	zero, 0x48(s0)
   119c8: 23 28 04 04  	sw	zero, 0x50(s0)
   119cc: b7 25 00 00  	lui	a1, 0x2
   119d0: 1b 86 65 71  	addiw	a2, a1, 0x716
   119d4: 93 05 00 00  	addi	a1, zero, 0x0
   119d8: ef 00 81 32  	jal	ra, 0x21d00 <memset>
   119dc: 83 15 c4 05  	lh	a1, 0x5c(s0)
   119e0: 13 05 04 00  	addi	a0, s0, 0x0
   119e4: 83 30 81 05  	ld	ra, 0x58(sp)
   119e8: 03 34 01 05  	ld	s0, 0x50(sp)
   119ec: 83 34 81 04  	ld	s1, 0x48(sp)
   119f0: 03 39 01 04  	ld	s2, 0x40(sp)
   119f4: 83 39 81 03  	ld	s3, 0x38(sp)
   119f8: 03 3a 01 03  	ld	s4, 0x30(sp)
   119fc: 83 3a 81 02  	ld	s5, 0x28(sp)
   11a00: 03 3b 01 02  	ld	s6, 0x20(sp)
   11a04: 83 3b 81 01  	ld	s7, 0x18(sp)
   11a08: 03 3c 01 01  	ld	s8, 0x10(sp)
   11a0c: 83 3c 81 00  	ld	s9, 0x8(sp)
   11a10: 13 01 01 06  	addi	sp, sp, 0x60
   11a14: 6f 00 40 05  	jal	zero, 0x11a68 <output>

0000000000011a18 <put_3bytes>:
   11a18: 13 01 01 fe  	addi	sp, sp, -0x20
   11a1c: 23 3c 11 00  	sd	ra, 0x18(sp)
   11a20: 23 38 81 00  	sd	s0, 0x10(sp)
   11a24: 23 34 91 00  	sd	s1, 0x8(sp)
   11a28: 13 04 05 00  	addi	s0, a0, 0x0
   11a2c: 03 36 85 01  	ld	a2, 0x18(a0)
   11a30: 93 84 05 00  	addi	s1, a1, 0x0
   11a34: 13 85 05 00  	addi	a0, a1, 0x0
   11a38: 93 05 06 00  	addi	a1, a2, 0x0
   11a3c: ef f0 c0 60  	jal	ra, 0x21048 <putc>
   11a40: 83 35 84 01  	ld	a1, 0x18(s0)
   11a44: 13 85 04 00  	addi	a0, s1, 0x0
   11a48: ef f0 00 60  	jal	ra, 0x21048 <putc>
   11a4c: 83 35 84 01  	ld	a1, 0x18(s0)
   11a50: 13 85 04 00  	addi	a0, s1, 0x0
   11a54: 83 30 81 01  	ld	ra, 0x18(sp)
   11a58: 03 34 01 01  	ld	s0, 0x10(sp)
   11a5c: 83 34 81 00  	ld	s1, 0x8(sp)
   11a60: 13 01 01 02  	addi	sp, sp, 0x20
   11a64: 6f f0 40 5e  	jal	zero, 0x21048 <putc>

0000000000011a68 <output>:
   11a68: ef 22 62 44  	jal	t0, 0x33eae <__riscv_save_3>
   11a6c: 13 04 05 00  	addi	s0, a0, 0x0
   11a70: 03 26 05 05  	lw	a2, 0x50(a0)
   11a74: 03 35 85 04  	ld	a0, 0x48(a0)
   11a78: 83 26 84 03  	lw	a3, 0x38(s0)
   11a7c: b3 95 c5 00  	sll	a1, a1, a2
   11a80: 33 e5 a5 00  	or	a0, a1, a0
   11a84: 23 34 a4 04  	sd	a0, 0x48(s0)
   11a88: 3b 86 c6 00  	addw	a2, a3, a2
   11a8c: 93 05 80 00  	addi	a1, zero, 0x8
   11a90: 23 28 c4 04  	sw	a2, 0x50(s0)
   11a94: 63 46 b6 04  	blt	a2, a1, 0x11ae0 <output+0x78>
   11a98: 93 04 f0 0f  	addi	s1, zero, 0xff
   11a9c: 13 09 f0 00  	addi	s2, zero, 0xf
   11aa0: 83 25 84 07  	lw	a1, 0x78(s0)
   11aa4: 9b 85 15 00  	addiw	a1, a1, 0x1
   11aa8: 23 2c b4 06  	sw	a1, 0x78(s0)
   11aac: b3 05 b4 00  	add	a1, s0, a1
   11ab0: 23 8e a5 06  	sb	a0, 0x7c(a1)
   11ab4: 03 25 84 07  	lw	a0, 0x78(s0)
   11ab8: 63 46 95 00  	blt	a0, s1, 0x11ac4 <output+0x5c>
   11abc: 13 05 04 00  	addi	a0, s0, 0x0
   11ac0: ef 00 c0 05  	jal	ra, 0x11b1c <flush_packet>
   11ac4: 03 35 84 04  	ld	a0, 0x48(s0)
   11ac8: 83 25 04 05  	lw	a1, 0x50(s0)
   11acc: 13 55 85 40  	srai	a0, a0, 0x8
   11ad0: 23 34 a4 04  	sd	a0, 0x48(s0)
   11ad4: 13 86 85 ff  	addi	a2, a1, -0x8
   11ad8: 23 28 c4 04  	sw	a2, 0x50(s0)
   11adc: e3 42 b9 fc  	blt	s2, a1, 0x11aa0 <output+0x38>
   11ae0: 03 15 04 06  	lh	a0, 0x60(s0)
   11ae4: 83 15 c4 03  	lh	a1, 0x3c(s0)
   11ae8: 63 d8 a5 02  	bge	a1, a0, 0x11b18 <output+0xb0>
   11aec: 03 25 84 03  	lw	a0, 0x38(s0)
   11af0: 1b 05 15 00  	addiw	a0, a0, 0x1
   11af4: 93 05 c0 00  	addi	a1, zero, 0xc
   11af8: 23 2c a4 02  	sw	a0, 0x38(s0)
   11afc: 63 16 b5 00  	bne	a0, a1, 0x11b08 <output+0xa0>
   11b00: 37 15 00 00  	lui	a0, 0x1
   11b04: 6f 00 00 01  	jal	zero, 0x11b14 <output+0xac>
   11b08: 93 05 f0 ff  	addi	a1, zero, -0x1
   11b0c: 3b 95 a5 00  	sllw	a0, a1, a0
   11b10: 13 45 f5 ff  	xori	a0, a0, -0x1
   11b14: 23 1e a4 02  	sh	a0, 0x3c(s0)
   11b18: 6f 20 c2 3c  	jal	zero, 0x33ee4 <__riscv_restore_3>

0000000000011b1c <flush_packet>:
   11b1c: ef 22 42 3a  	jal	t0, 0x33ec0 <__riscv_save_1>
   11b20: 13 04 05 00  	addi	s0, a0, 0x0
   11b24: 03 25 85 07  	lw	a0, 0x78(a0)
   11b28: 63 52 a0 04  	bge	zero, a0, 0x11b6c <flush_packet+0x50>
   11b2c: 1b 06 15 00  	addiw	a2, a0, 0x1
   11b30: 83 36 84 01  	ld	a3, 0x18(s0)
   11b34: 23 2c c4 06  	sw	a2, 0x78(s0)
   11b38: 23 0e a4 06  	sb	a0, 0x7c(s0)
   11b3c: 13 05 c4 07  	addi	a0, s0, 0x7c
   11b40: 93 05 10 00  	addi	a1, zero, 0x1
   11b44: ef f0 60 39  	jal	ra, 0x20eda <fwrite>
   11b48: 83 25 84 07  	lw	a1, 0x78(s0)
   11b4c: 63 0e b5 00  	beq	a0, a1, 0x11b68 <flush_packet+0x4c>
   11b50: 03 35 04 03  	ld	a0, 0x30(s0)
   11b54: 83 35 05 00  	ld	a1, 0x0(a0)
   11b58: 03 b6 05 00  	ld	a2, 0x0(a1)
   11b5c: 93 06 40 02  	addi	a3, zero, 0x24
   11b60: 23 a4 d5 02  	sw	a3, 0x28(a1)
   11b64: e7 00 06 00  	jalr	ra, 0x0(a2)
   11b68: 23 2c 04 06  	sw	zero, 0x78(s0)
   11b6c: 6f 20 e2 37  	jal	zero, 0x33eea <__riscv_restore_1>

0000000000011b70 <jinit_write_targa>:
   11b70: ef 22 e2 33  	jal	t0, 0x33eae <__riscv_save_3>
   11b74: 13 04 05 00  	addi	s0, a0, 0x0
   11b78: 03 35 85 00  	ld	a0, 0x8(a0)
   11b7c: 83 36 05 00  	ld	a3, 0x0(a0)
   11b80: 93 05 10 00  	addi	a1, zero, 0x1
   11b84: 13 06 00 04  	addi	a2, zero, 0x40
   11b88: 13 09 10 00  	addi	s2, zero, 0x1
   11b8c: 13 05 04 00  	addi	a0, s0, 0x0
   11b90: e7 80 06 00  	jalr	ra, 0x0(a3)
   11b94: 93 04 05 00  	addi	s1, a0, 0x0
   11b98: 37 25 01 00  	lui	a0, 0x12
   11b9c: 13 05 45 c1  	addi	a0, a0, -0x3ec
   11ba0: 23 b0 a4 00  	sd	a0, 0x0(s1)
   11ba4: 37 25 01 00  	lui	a0, 0x12
   11ba8: 13 05 85 da  	addi	a0, a0, -0x258
   11bac: 23 b8 a4 00  	sd	a0, 0x10(s1)
   11bb0: 13 05 04 00  	addi	a0, s0, 0x0
   11bb4: ef 10 d0 78  	jal	ra, 0x13b40 <jpeg_calc_output_dimensions>
   11bb8: 83 25 04 08  	lw	a1, 0x80(s0)
   11bbc: 03 25 c4 08  	lw	a0, 0x8c(s0)
   11bc0: ef 20 42 33  	jal	ra, 0x33ef4 <__muldi3>
   11bc4: 83 35 84 00  	ld	a1, 0x8(s0)
   11bc8: 83 b6 05 00  	ld	a3, 0x0(a1)
   11bcc: 23 ac a4 02  	sw	a0, 0x38(s1)
   11bd0: 13 15 05 02  	slli	a0, a0, 0x20
   11bd4: 13 56 05 02  	srli	a2, a0, 0x20
   11bd8: 93 05 10 00  	addi	a1, zero, 0x1
   11bdc: 13 05 04 00  	addi	a0, s0, 0x0
   11be0: e7 80 06 00  	jalr	ra, 0x0(a3)
   11be4: 83 35 84 00  	ld	a1, 0x8(s0)
   11be8: 03 b7 05 01  	ld	a4, 0x10(a1)
   11bec: 03 a6 84 03  	lw	a2, 0x38(s1)
   11bf0: 23 b8 a4 02  	sd	a0, 0x30(s1)
   11bf4: 93 05 10 00  	addi	a1, zero, 0x1
   11bf8: 93 06 10 00  	addi	a3, zero, 0x1
   11bfc: 13 05 04 00  	addi	a0, s0, 0x0
   11c00: e7 00 07 00  	jalr	ra, 0x0(a4)
   11c04: 23 b0 a4 02  	sd	a0, 0x20(s1)
   11c08: 23 a4 24 03  	sw	s2, 0x28(s1)
   11c0c: 13 85 04 00  	addi	a0, s1, 0x0
   11c10: 6f 20 42 2d  	jal	zero, 0x33ee4 <__riscv_restore_3>

0000000000011c14 <start_output_tga>:
   11c14: 13 01 01 fd  	addi	sp, sp, -0x30
   11c18: 23 34 11 02  	sd	ra, 0x28(sp)
   11c1c: 23 30 81 02  	sd	s0, 0x20(sp)
   11c20: 23 3c 91 00  	sd	s1, 0x18(sp)
   11c24: 23 38 21 01  	sd	s2, 0x10(sp)
   11c28: 23 34 31 01  	sd	s3, 0x8(sp)
   11c2c: 23 30 41 01  	sd	s4, 0x0(sp)
   11c30: 93 04 05 00  	addi	s1, a0, 0x0
   11c34: 03 25 85 03  	lw	a0, 0x38(a0)
   11c38: 13 06 20 00  	addi	a2, zero, 0x2
   11c3c: 13 84 05 00  	addi	s0, a1, 0x0
   11c40: 63 08 c5 02  	beq	a0, a2, 0x11c70 <start_output_tga+0x5c>
   11c44: 93 05 10 00  	addi	a1, zero, 0x1
   11c48: 63 18 b5 06  	bne	a0, a1, 0x11cb8 <start_output_tga+0xa4>
   11c4c: 13 85 04 00  	addi	a0, s1, 0x0
   11c50: 93 05 04 00  	addi	a1, s0, 0x0
   11c54: 13 06 00 00  	addi	a2, zero, 0x0
   11c58: ef 00 00 1c  	jal	ra, 0x11e18 <write_header>
   11c5c: 03 a5 44 06  	lw	a0, 0x64(s1)
   11c60: 63 0e 05 10  	beq	a0, zero, 0x11d7c <start_output_tga+0x168>
   11c64: 37 25 01 00  	lui	a0, 0x12
   11c68: 13 05 05 f1  	addi	a0, a0, -0xf0
   11c6c: 6f 00 80 11  	jal	zero, 0x11d84 <start_output_tga+0x170>
   11c70: 03 a5 44 06  	lw	a0, 0x64(s1)
   11c74: 63 0c 05 06  	beq	a0, zero, 0x11cec <start_output_tga+0xd8>
   11c78: 03 a9 44 09  	lw	s2, 0x94(s1)
   11c7c: 13 05 10 10  	addi	a0, zero, 0x101
   11c80: 63 44 a9 08  	blt	s2, a0, 0x11d08 <start_output_tga+0xf4>
   11c84: 03 b5 04 00  	ld	a0, 0x0(s1)
   11c88: 23 26 25 03  	sw	s2, 0x2c(a0)
   11c8c: 83 b5 04 00  	ld	a1, 0x0(s1)
   11c90: 83 b5 05 00  	ld	a1, 0x0(a1)
   11c94: 13 06 f0 40  	addi	a2, zero, 0x40f
   11c98: 23 24 c5 02  	sw	a2, 0x28(a0)
   11c9c: 13 85 04 00  	addi	a0, s1, 0x0
   11ca0: e7 80 05 00  	jalr	ra, 0x0(a1)
   11ca4: 13 85 04 00  	addi	a0, s1, 0x0
   11ca8: 93 05 04 00  	addi	a1, s0, 0x0
   11cac: 13 06 09 00  	addi	a2, s2, 0x0
   11cb0: ef 00 80 16  	jal	ra, 0x11e18 <write_header>
   11cb4: 6f 00 80 06  	jal	zero, 0x11d1c <start_output_tga+0x108>
   11cb8: 03 b5 04 00  	ld	a0, 0x0(s1)
   11cbc: 03 33 05 00  	ld	t1, 0x0(a0)
   11cc0: 93 05 a0 40  	addi	a1, zero, 0x40a
   11cc4: 23 24 b5 02  	sw	a1, 0x28(a0)
   11cc8: 13 85 04 00  	addi	a0, s1, 0x0
   11ccc: 83 30 81 02  	ld	ra, 0x28(sp)
   11cd0: 03 34 01 02  	ld	s0, 0x20(sp)
   11cd4: 83 34 81 01  	ld	s1, 0x18(sp)
   11cd8: 03 39 01 01  	ld	s2, 0x10(sp)
   11cdc: 83 39 81 00  	ld	s3, 0x8(sp)
   11ce0: 03 3a 01 00  	ld	s4, 0x0(sp)
   11ce4: 13 01 01 03  	addi	sp, sp, 0x30
   11ce8: 67 00 03 00  	jalr	zero, 0x0(t1)
   11cec: 13 85 04 00  	addi	a0, s1, 0x0
   11cf0: 93 05 04 00  	addi	a1, s0, 0x0
   11cf4: 13 06 00 00  	addi	a2, zero, 0x0
   11cf8: ef 00 00 12  	jal	ra, 0x11e18 <write_header>
   11cfc: 37 25 01 00  	lui	a0, 0x12
   11d00: 13 05 05 fd  	addi	a0, a0, -0x30
   11d04: 6f 00 00 08  	jal	zero, 0x11d84 <start_output_tga+0x170>
   11d08: 13 85 04 00  	addi	a0, s1, 0x0
   11d0c: 93 05 04 00  	addi	a1, s0, 0x0
   11d10: 13 06 09 00  	addi	a2, s2, 0x0
   11d14: ef 00 40 10  	jal	ra, 0x11e18 <write_header>
   11d18: 63 52 20 07  	bge	zero, s2, 0x11d7c <start_output_tga+0x168>
   11d1c: 83 39 84 01  	ld	s3, 0x18(s0)
   11d20: 13 0a 00 00  	addi	s4, zero, 0x0
   11d24: 13 19 09 02  	slli	s2, s2, 0x20
   11d28: 13 59 09 02  	srli	s2, s2, 0x20
   11d2c: 03 b5 84 09  	ld	a0, 0x98(s1)
   11d30: 03 35 05 01  	ld	a0, 0x10(a0)
   11d34: 33 05 45 01  	add	a0, a0, s4
   11d38: 03 45 05 00  	lbu	a0, 0x0(a0)
   11d3c: 93 85 09 00  	addi	a1, s3, 0x0
   11d40: ef f0 80 30  	jal	ra, 0x21048 <putc>
   11d44: 03 b5 84 09  	ld	a0, 0x98(s1)
   11d48: 03 35 85 00  	ld	a0, 0x8(a0)
   11d4c: 33 05 45 01  	add	a0, a0, s4
   11d50: 03 45 05 00  	lbu	a0, 0x0(a0)
   11d54: 93 85 09 00  	addi	a1, s3, 0x0
   11d58: ef f0 00 2f  	jal	ra, 0x21048 <putc>
   11d5c: 03 b5 84 09  	ld	a0, 0x98(s1)
   11d60: 03 35 05 00  	ld	a0, 0x0(a0)
   11d64: 33 05 45 01  	add	a0, a0, s4
   11d68: 03 45 05 00  	lbu	a0, 0x0(a0)
   11d6c: 93 85 09 00  	addi	a1, s3, 0x0
   11d70: ef f0 80 2d  	jal	ra, 0x21048 <putc>
   11d74: 13 0a 1a 00  	addi	s4, s4, 0x1
   11d78: e3 1a 49 fb  	bne	s2, s4, 0x11d2c <start_output_tga+0x118>
   11d7c: 37 25 01 00  	lui	a0, 0x12
   11d80: 13 05 85 f7  	addi	a0, a0, -0x88
   11d84: 23 34 a4 00  	sd	a0, 0x8(s0)
   11d88: 83 30 81 02  	ld	ra, 0x28(sp)
   11d8c: 03 34 01 02  	ld	s0, 0x20(sp)
   11d90: 83 34 81 01  	ld	s1, 0x18(sp)
   11d94: 03 39 01 01  	ld	s2, 0x10(sp)
   11d98: 83 39 81 00  	ld	s3, 0x8(sp)
   11d9c: 03 3a 01 00  	ld	s4, 0x0(sp)
   11da0: 13 01 01 03  	addi	sp, sp, 0x30
   11da4: 67 80 00 00  	jalr	zero, 0x0(ra)

0000000000011da8 <finish_output_tga>:
   11da8: 13 01 01 fe  	addi	sp, sp, -0x20
   11dac: 23 3c 11 00  	sd	ra, 0x18(sp)
   11db0: 23 38 81 00  	sd	s0, 0x10(sp)
   11db4: 23 34 91 00  	sd	s1, 0x8(sp)
   11db8: 93 84 05 00  	addi	s1, a1, 0x0
   11dbc: 83 b5 85 01  	ld	a1, 0x18(a1)
   11dc0: 13 04 05 00  	addi	s0, a0, 0x0
   11dc4: 13 85 05 00  	addi	a0, a1, 0x0
   11dc8: ef e0 30 1f  	jal	ra, 0x207ba <fflush>
   11dcc: 03 b5 84 01  	ld	a0, 0x18(s1)
   11dd0: 03 45 05 01  	lbu	a0, 0x10(a0)
   11dd4: 13 75 05 04  	andi	a0, a0, 0x40
   11dd8: 63 1c 05 00  	bne	a0, zero, 0x11df0 <finish_output_tga+0x48>
   11ddc: 83 30 81 01  	ld	ra, 0x18(sp)
   11de0: 03 34 01 01  	ld	s0, 0x10(sp)
   11de4: 83 34 81 00  	ld	s1, 0x8(sp)
   11de8: 13 01 01 02  	addi	sp, sp, 0x20
   11dec: 67 80 00 00  	jalr	zero, 0x0(ra)
   11df0: 03 35 04 00  	ld	a0, 0x0(s0)
   11df4: 03 33 05 00  	ld	t1, 0x0(a0)
   11df8: 93 05 40 02  	addi	a1, zero, 0x24
   11dfc: 23 24 b5 02  	sw	a1, 0x28(a0)
   11e00: 13 05 04 00  	addi	a0, s0, 0x0
   11e04: 83 30 81 01  	ld	ra, 0x18(sp)
   11e08: 03 34 01 01  	ld	s0, 0x10(sp)
   11e0c: 83 34 81 00  	ld	s1, 0x8(sp)
   11e10: 13 01 01 02  	addi	sp, sp, 0x20
   11e14: 67 00 03 00  	jalr	zero, 0x0(t1)

0000000000011e18 <write_header>:
   11e18: 13 01 01 fd  	addi	sp, sp, -0x30
   11e1c: 23 34 11 02  	sd	ra, 0x28(sp)
   11e20: 23 30 81 02  	sd	s0, 0x20(sp)
   11e24: 23 3c 91 00  	sd	s1, 0x18(sp)
   11e28: 13 04 05 00  	addi	s0, a0, 0x0
   11e2c: 23 08 01 00  	sb	zero, 0x10(sp)
   11e30: 23 34 01 00  	sd	zero, 0x8(sp)
   11e34: 23 30 01 00  	sd	zero, 0x0(sp)
   11e38: 63 50 c0 02  	bge	zero, a2, 0x11e58 <write_header+0x40>
   11e3c: 13 05 10 00  	addi	a0, zero, 0x1
   11e40: a3 00 a1 00  	sb	a0, 0x1(sp)
   11e44: a3 02 c1 00  	sb	a2, 0x5(sp)
   11e48: 13 55 86 00  	srli	a0, a2, 0x8
   11e4c: 23 03 a1 00  	sb	a0, 0x6(sp)
   11e50: 13 05 80 01  	addi	a0, zero, 0x18
   11e54: a3 03 a1 00  	sb	a0, 0x7(sp)
   11e58: 03 25 04 08  	lw	a0, 0x80(s0)
   11e5c: 83 26 44 08  	lw	a3, 0x84(s0)
   11e60: 23 06 a1 00  	sb	a0, 0xc(sp)
   11e64: 13 55 85 00  	srli	a0, a0, 0x8
   11e68: a3 06 a1 00  	sb	a0, 0xd(sp)
   11e6c: 23 07 d1 00  	sb	a3, 0xe(sp)
   11e70: 93 d6 86 00  	srli	a3, a3, 0x8
   11e74: 03 25 84 03  	lw	a0, 0x38(s0)
   11e78: a3 07 d1 00  	sb	a3, 0xf(sp)
   11e7c: 93 06 00 02  	addi	a3, zero, 0x20
   11e80: 13 07 10 00  	addi	a4, zero, 0x1
   11e84: a3 08 d1 00  	sb	a3, 0x11(sp)
   11e88: 63 16 e5 00  	bne	a0, a4, 0x11e94 <write_header+0x7c>
   11e8c: 13 05 30 00  	addi	a0, zero, 0x3
   11e90: 6f 00 c0 00  	jal	zero, 0x11e9c <write_header+0x84>
   11e94: 63 56 c0 06  	bge	zero, a2, 0x11f00 <write_header+0xe8>
   11e98: 13 05 10 00  	addi	a0, zero, 0x1
   11e9c: 23 01 a1 00  	sb	a0, 0x2(sp)
   11ea0: 13 05 80 00  	addi	a0, zero, 0x8
   11ea4: 23 08 a1 00  	sb	a0, 0x10(sp)
   11ea8: 83 b6 85 01  	ld	a3, 0x18(a1)
   11eac: 13 05 01 00  	addi	a0, sp, 0x0
   11eb0: 93 05 10 00  	addi	a1, zero, 0x1
   11eb4: 13 06 20 01  	addi	a2, zero, 0x12
   11eb8: 93 04 20 01  	addi	s1, zero, 0x12
   11ebc: ef f0 e0 01  	jal	ra, 0x20eda <fwrite>
   11ec0: 63 1c 95 00  	bne	a0, s1, 0x11ed8 <write_header+0xc0>
   11ec4: 83 30 81 02  	ld	ra, 0x28(sp)
   11ec8: 03 34 01 02  	ld	s0, 0x20(sp)
   11ecc: 83 34 81 01  	ld	s1, 0x18(sp)
   11ed0: 13 01 01 03  	addi	sp, sp, 0x30
   11ed4: 67 80 00 00  	jalr	zero, 0x0(ra)
   11ed8: 03 35 04 00  	ld	a0, 0x0(s0)
   11edc: 03 33 05 00  	ld	t1, 0x0(a0)
   11ee0: 93 05 40 02  	addi	a1, zero, 0x24
   11ee4: 23 24 b5 02  	sw	a1, 0x28(a0)
   11ee8: 13 05 04 00  	addi	a0, s0, 0x0
   11eec: 83 30 81 02  	ld	ra, 0x28(sp)
   11ef0: 03 34 01 02  	ld	s0, 0x20(sp)
   11ef4: 83 34 81 01  	ld	s1, 0x18(sp)
   11ef8: 13 01 01 03  	addi	sp, sp, 0x30
   11efc: 67 00 03 00  	jalr	zero, 0x0(t1)
   11f00: 13 05 20 00  	addi	a0, zero, 0x2
   11f04: 23 01 a1 00  	sb	a0, 0x2(sp)
   11f08: 13 05 80 01  	addi	a0, zero, 0x18
   11f0c: 6f f0 9f f9  	jal	zero, 0x11ea4 <write_header+0x8c>

0000000000011f10 <put_demapped_gray>:
   11f10: 13 06 05 00  	addi	a2, a0, 0x0
   11f14: 03 27 05 08  	lw	a4, 0x80(a0)
   11f18: 03 b5 05 03  	ld	a0, 0x30(a1)
   11f1c: 63 06 07 04  	beq	a4, zero, 0x11f68 <put_demapped_gray+0x58>
   11f20: 03 36 86 09  	ld	a2, 0x98(a2)
   11f24: 83 b6 05 02  	ld	a3, 0x20(a1)
   11f28: 03 36 06 00  	ld	a2, 0x0(a2)
   11f2c: 83 b6 06 00  	ld	a3, 0x0(a3)
   11f30: 13 07 f7 ff  	addi	a4, a4, -0x1
   11f34: 13 17 07 02  	slli	a4, a4, 0x20
   11f38: 13 57 07 02  	srli	a4, a4, 0x20
   11f3c: 33 07 a7 00  	add	a4, a4, a0
   11f40: 13 07 17 00  	addi	a4, a4, 0x1
   11f44: 83 c7 06 00  	lbu	a5, 0x0(a3)
   11f48: b3 07 f6 00  	add	a5, a2, a5
   11f4c: 83 c7 07 00  	lbu	a5, 0x0(a5)
   11f50: 93 86 16 00  	addi	a3, a3, 0x1
   11f54: 13 08 15 00  	addi	a6, a0, 0x1
   11f58: 23 00 f5 00  	sb	a5, 0x0(a0)
   11f5c: 13 05 08 00  	addi	a0, a6, 0x0
   11f60: e3 12 e8 fe  	bne	a6, a4, 0x11f44 <put_demapped_gray+0x34>
   11f64: 03 b5 05 03  	ld	a0, 0x30(a1)
   11f68: 03 e6 85 03  	lwu	a2, 0x38(a1)
   11f6c: 83 b6 85 01  	ld	a3, 0x18(a1)
   11f70: 93 05 10 00  	addi	a1, zero, 0x1
   11f74: 6f e0 70 76  	jal	zero, 0x20eda <fwrite>

0000000000011f78 <put_gray_rows>:
   11f78: 83 26 05 08  	lw	a3, 0x80(a0)
   11f7c: 03 b5 05 03  	ld	a0, 0x30(a1)
   11f80: 63 80 06 04  	beq	a3, zero, 0x11fc0 <put_gray_rows+0x48>
   11f84: 03 b6 05 02  	ld	a2, 0x20(a1)
   11f88: 03 36 06 00  	ld	a2, 0x0(a2)
   11f8c: 93 86 f6 ff  	addi	a3, a3, -0x1
   11f90: 93 96 06 02  	slli	a3, a3, 0x20
   11f94: 93 d6 06 02  	srli	a3, a3, 0x20
   11f98: b3 86 c6 00  	add	a3, a3, a2
   11f9c: 93 86 16 00  	addi	a3, a3, 0x1
   11fa0: 03 47 06 00  	lbu	a4, 0x0(a2)
   11fa4: 93 07 16 00  	addi	a5, a2, 0x1
   11fa8: 13 06 15 00  	addi	a2, a0, 0x1
   11fac: 23 00 e5 00  	sb	a4, 0x0(a0)
   11fb0: 13 05 06 00  	addi	a0, a2, 0x0
   11fb4: 13 86 07 00  	addi	a2, a5, 0x0
   11fb8: e3 94 d7 fe  	bne	a5, a3, 0x11fa0 <put_gray_rows+0x28>
   11fbc: 03 b5 05 03  	ld	a0, 0x30(a1)
   11fc0: 03 e6 85 03  	lwu	a2, 0x38(a1)
   11fc4: 83 b6 85 01  	ld	a3, 0x18(a1)
   11fc8: 93 05 10 00  	addi	a1, zero, 0x1
   11fcc: 6f e0 f0 70  	jal	zero, 0x20eda <fwrite>

0000000000011fd0 <put_pixel_rows>:
   11fd0: 83 26 05 08  	lw	a3, 0x80(a0)
   11fd4: 03 b5 05 03  	ld	a0, 0x30(a1)
   11fd8: 63 8a 06 04  	beq	a3, zero, 0x1202c <put_pixel_rows+0x5c>
   11fdc: 03 b6 05 02  	ld	a2, 0x20(a1)
   11fe0: 03 36 06 00  	ld	a2, 0x0(a2)
   11fe4: 13 06 26 00  	addi	a2, a2, 0x2
   11fe8: 93 86 f6 ff  	addi	a3, a3, -0x1
   11fec: 93 96 06 02  	slli	a3, a3, 0x20
   11ff0: 13 d7 06 02  	srli	a4, a3, 0x20
   11ff4: 93 d6 f6 01  	srli	a3, a3, 0x1f
   11ff8: b3 86 e6 00  	add	a3, a3, a4
   11ffc: b3 86 a6 00  	add	a3, a3, a0
   12000: 93 86 36 00  	addi	a3, a3, 0x3
   12004: 03 47 06 00  	lbu	a4, 0x0(a2)
   12008: 23 00 e5 00  	sb	a4, 0x0(a0)
   1200c: 03 47 f6 ff  	lbu	a4, -0x1(a2)
   12010: a3 00 e5 00  	sb	a4, 0x1(a0)
   12014: 03 47 e6 ff  	lbu	a4, -0x2(a2)
   12018: 23 01 e5 00  	sb	a4, 0x2(a0)
   1201c: 13 05 35 00  	addi	a0, a0, 0x3
   12020: 13 06 36 00  	addi	a2, a2, 0x3
   12024: e3 10 d5 fe  	bne	a0, a3, 0x12004 <put_pixel_rows+0x34>
   12028: 03 b5 05 03  	ld	a0, 0x30(a1)
   1202c: 03 e6 85 03  	lwu	a2, 0x38(a1)
   12030: 83 b6 85 01  	ld	a3, 0x18(a1)
   12034: 93 05 10 00  	addi	a1, zero, 0x1
   12038: 6f e0 30 6a  	jal	zero, 0x20eda <fwrite>

000000000001203c <jinit_write_bmp>:
   1203c: ef 12 92 66  	jal	t0, 0x33ea4 <__riscv_save_5>
   12040: 13 04 05 00  	addi	s0, a0, 0x0
   12044: 03 35 85 00  	ld	a0, 0x8(a0)
   12048: 83 36 05 00  	ld	a3, 0x0(a0)
   1204c: 13 89 05 00  	addi	s2, a1, 0x0
   12050: 93 05 10 00  	addi	a1, zero, 0x1
   12054: 13 06 00 05  	addi	a2, zero, 0x50
   12058: 93 09 10 00  	addi	s3, zero, 0x1
   1205c: 13 05 04 00  	addi	a0, s0, 0x0
   12060: e7 80 06 00  	jalr	ra, 0x0(a3)
   12064: 93 04 05 00  	addi	s1, a0, 0x0
   12068: 37 25 01 00  	lui	a0, 0x12
   1206c: 13 05 c5 16  	addi	a0, a0, 0x16c
   12070: 23 b0 a4 00  	sd	a0, 0x0(s1)
   12074: b7 25 01 00  	lui	a1, 0x12
   12078: 03 25 84 03  	lw	a0, 0x38(s0)
   1207c: 93 85 05 17  	addi	a1, a1, 0x170
   12080: 23 b8 b4 00  	sd	a1, 0x10(s1)
   12084: 93 05 20 00  	addi	a1, zero, 0x2
   12088: 23 a8 24 03  	sw	s2, 0x30(s1)
   1208c: 63 02 b5 02  	beq	a0, a1, 0x120b0 <jinit_write_bmp+0x74>
   12090: 63 04 35 03  	beq	a0, s3, 0x120b8 <jinit_write_bmp+0x7c>
   12094: 03 35 04 00  	ld	a0, 0x0(s0)
   12098: 83 35 05 00  	ld	a1, 0x0(a0)
   1209c: 13 06 d0 3e  	addi	a2, zero, 0x3ed
   120a0: 23 24 c5 02  	sw	a2, 0x28(a0)
   120a4: 13 05 04 00  	addi	a0, s0, 0x0
   120a8: e7 80 05 00  	jalr	ra, 0x0(a1)
   120ac: 6f 00 80 01  	jal	zero, 0x120c4 <jinit_write_bmp+0x88>
   120b0: 03 25 44 06  	lw	a0, 0x64(s0)
   120b4: 63 06 05 0a  	beq	a0, zero, 0x12160 <jinit_write_bmp+0x124>
   120b8: 37 25 01 00  	lui	a0, 0x12
   120bc: 13 05 45 63  	addi	a0, a0, 0x634
   120c0: 23 b4 a4 00  	sd	a0, 0x8(s1)
   120c4: 13 05 04 00  	addi	a0, s0, 0x0
   120c8: ef 10 90 27  	jal	ra, 0x13b40 <jpeg_calc_output_dimensions>
   120cc: 83 25 04 08  	lw	a1, 0x80(s0)
   120d0: 03 25 c4 08  	lw	a0, 0x8c(s0)
   120d4: ef 10 12 62  	jal	ra, 0x33ef4 <__muldi3>
   120d8: 83 35 84 00  	ld	a1, 0x8(s0)
   120dc: 23 a0 a4 04  	sw	a0, 0x40(s1)
   120e0: 3b 06 a0 40  	subw	a2, zero, a0
   120e4: 13 76 36 00  	andi	a2, a2, 0x3
   120e8: 03 b8 05 02  	ld	a6, 0x20(a1)
   120ec: 03 27 44 08  	lw	a4, 0x84(s0)
   120f0: 3b 09 c5 00  	addw	s2, a0, a2
   120f4: 23 a4 c4 04  	sw	a2, 0x48(s1)
   120f8: 23 a2 24 05  	sw	s2, 0x44(s1)
   120fc: 93 05 10 00  	addi	a1, zero, 0x1
   12100: 93 07 10 00  	addi	a5, zero, 0x1
   12104: 93 09 10 00  	addi	s3, zero, 0x1
   12108: 13 05 04 00  	addi	a0, s0, 0x0
   1210c: 13 06 00 00  	addi	a2, zero, 0x0
   12110: 93 06 09 00  	addi	a3, s2, 0x0
   12114: e7 00 08 00  	jalr	ra, 0x0(a6)
   12118: 83 35 04 01  	ld	a1, 0x10(s0)
   1211c: 23 bc a4 02  	sd	a0, 0x38(s1)
   12120: 23 a6 04 04  	sw	zero, 0x4c(s1)
   12124: 63 88 05 00  	beq	a1, zero, 0x12134 <jinit_write_bmp+0xf8>
   12128: 03 a5 45 02  	lw	a0, 0x24(a1)
   1212c: 13 05 15 00  	addi	a0, a0, 0x1
   12130: 23 a2 a5 02  	sw	a0, 0x24(a1)
   12134: 03 35 84 00  	ld	a0, 0x8(s0)
   12138: 03 37 05 01  	ld	a4, 0x10(a0)
   1213c: 93 05 10 00  	addi	a1, zero, 0x1
   12140: 93 06 10 00  	addi	a3, zero, 0x1
   12144: 13 05 04 00  	addi	a0, s0, 0x0
   12148: 13 06 09 00  	addi	a2, s2, 0x0
   1214c: e7 00 07 00  	jalr	ra, 0x0(a4)
   12150: 23 b0 a4 02  	sd	a0, 0x20(s1)
   12154: 23 a4 34 03  	sw	s3, 0x28(s1)
   12158: 13 85 04 00  	addi	a0, s1, 0x0
   1215c: 6f 10 32 58  	jal	zero, 0x33ede <__riscv_restore_5>
   12160: 37 25 01 00  	lui	a0, 0x12
   12164: 13 05 85 6f  	addi	a0, a0, 0x6f8
   12168: 6f f0 9f f5  	jal	zero, 0x120c0 <jinit_write_bmp+0x84>

000000000001216c <start_output_bmp>:
   1216c: 67 80 00 00  	jalr	zero, 0x0(ra)

0000000000012170 <finish_output_bmp>:
   12170: 13 01 01 f6  	addi	sp, sp, -0xa0
   12174: 23 3c 11 08  	sd	ra, 0x98(sp)
   12178: 23 38 81 08  	sd	s0, 0x90(sp)
   1217c: 23 34 91 08  	sd	s1, 0x88(sp)
   12180: 23 30 21 09  	sd	s2, 0x80(sp)
   12184: 23 3c 31 07  	sd	s3, 0x78(sp)
   12188: 23 38 41 07  	sd	s4, 0x70(sp)
   1218c: 23 34 51 07  	sd	s5, 0x68(sp)
   12190: 23 30 61 07  	sd	s6, 0x60(sp)
   12194: 23 3c 71 05  	sd	s7, 0x58(sp)
   12198: 23 38 81 05  	sd	s8, 0x50(sp)
   1219c: 23 34 91 05  	sd	s9, 0x48(sp)
   121a0: 23 30 a1 05  	sd	s10, 0x40(sp)
   121a4: 13 89 05 00  	addi	s2, a1, 0x0
   121a8: 13 04 05 00  	addi	s0, a0, 0x0
   121ac: 83 b4 85 01  	ld	s1, 0x18(a1)
   121b0: 03 a5 05 03  	lw	a0, 0x30(a1)
   121b4: 83 3a 04 01  	ld	s5, 0x10(s0)
   121b8: 63 08 05 02  	beq	a0, zero, 0x121e8 <finish_output_bmp+0x78>
   121bc: 03 25 84 03  	lw	a0, 0x38(s0)
   121c0: 93 05 20 00  	addi	a1, zero, 0x2
   121c4: 93 0b 10 00  	addi	s7, zero, 0x1
   121c8: 63 16 b5 04  	bne	a0, a1, 0x12214 <finish_output_bmp+0xa4>
   121cc: 03 25 44 06  	lw	a0, 0x64(s0)
   121d0: 33 3b a0 00  	sltu	s6, zero, a0
   121d4: 13 0c 80 00  	addi	s8, zero, 0x8
   121d8: 63 14 05 00  	bne	a0, zero, 0x121e0 <finish_output_bmp+0x70>
   121dc: 13 0c 80 01  	addi	s8, zero, 0x18
   121e0: 93 19 8b 00  	slli	s3, s6, 0x8
   121e4: 6f 00 c0 03  	jal	zero, 0x12220 <finish_output_bmp+0xb0>
   121e8: 03 25 84 03  	lw	a0, 0x38(s0)
   121ec: 93 0b 20 00  	addi	s7, zero, 0x2
   121f0: 13 0c 10 00  	addi	s8, zero, 0x1
   121f4: 63 18 75 15  	bne	a0, s7, 0x12344 <finish_output_bmp+0x1d4>
   121f8: 03 25 44 06  	lw	a0, 0x64(s0)
   121fc: 33 3b a0 00  	sltu	s6, zero, a0
   12200: 93 0c 80 00  	addi	s9, zero, 0x8
   12204: 63 14 05 00  	bne	a0, zero, 0x1220c <finish_output_bmp+0x9c>
   12208: 93 0c 80 01  	addi	s9, zero, 0x18
   1220c: 93 19 8b 00  	slli	s3, s6, 0x8
   12210: 6f 00 00 14  	jal	zero, 0x12350 <finish_output_bmp+0x1e0>
   12214: 93 09 00 10  	addi	s3, zero, 0x100
   12218: 13 0c 80 00  	addi	s8, zero, 0x8
   1221c: 13 0b 10 00  	addi	s6, zero, 0x1
   12220: 83 65 49 04  	lwu	a1, 0x44(s2)
   12224: 03 6a 44 08  	lwu	s4, 0x84(s0)
   12228: 13 95 19 00  	slli	a0, s3, 0x1
   1222c: b3 0c 35 01  	add	s9, a0, s3
   12230: 13 ed ac 01  	ori	s10, s9, 0x1a
   12234: 13 05 0a 00  	addi	a0, s4, 0x0
   12238: ef 10 d2 4b  	jal	ra, 0x33ef4 <__muldi3>
   1223c: 33 05 a5 01  	add	a0, a0, s10
   12240: a3 09 01 00  	sb	zero, 0x13(sp)
   12244: 23 09 01 00  	sb	zero, 0x12(sp)
   12248: a3 08 01 00  	sb	zero, 0x11(sp)
   1224c: 23 08 01 00  	sb	zero, 0x10(sp)
   12250: a3 0a 01 02  	sb	zero, 0x35(sp)
   12254: 23 0a 01 02  	sb	zero, 0x34(sp)
   12258: 93 05 20 04  	addi	a1, zero, 0x42
   1225c: 23 05 b1 00  	sb	a1, 0xa(sp)
   12260: 93 05 d0 04  	addi	a1, zero, 0x4d
   12264: a3 05 b1 00  	sb	a1, 0xb(sp)
   12268: 23 06 a1 00  	sb	a0, 0xc(sp)
   1226c: 93 55 85 00  	srli	a1, a0, 0x8
   12270: a3 06 b1 00  	sb	a1, 0xd(sp)
   12274: 93 55 05 01  	srli	a1, a0, 0x10
   12278: 23 07 b1 00  	sb	a1, 0xe(sp)
   1227c: 13 55 85 01  	srli	a0, a0, 0x18
   12280: a3 07 a1 00  	sb	a0, 0xf(sp)
   12284: 13 05 a0 01  	addi	a0, zero, 0x1a
   12288: 23 0a a1 00  	sb	a0, 0x14(sp)
   1228c: 13 d5 8c 00  	srli	a0, s9, 0x8
   12290: a3 0a a1 00  	sb	a0, 0x15(sp)
   12294: 23 0b 01 00  	sb	zero, 0x16(sp)
   12298: a3 0b 01 00  	sb	zero, 0x17(sp)
   1229c: 03 25 04 08  	lw	a0, 0x80(s0)
   122a0: 93 0c c0 00  	addi	s9, zero, 0xc
   122a4: 23 09 91 03  	sb	s9, 0x32(sp)
   122a8: a3 09 01 02  	sb	zero, 0x33(sp)
   122ac: 23 0b a1 02  	sb	a0, 0x36(sp)
   122b0: 13 55 85 00  	srli	a0, a0, 0x8
   122b4: a3 0b a1 02  	sb	a0, 0x37(sp)
   122b8: 23 0c 41 03  	sb	s4, 0x38(sp)
   122bc: 13 55 8a 00  	srli	a0, s4, 0x8
   122c0: a3 0c a1 02  	sb	a0, 0x39(sp)
   122c4: 23 0d 71 03  	sb	s7, 0x3a(sp)
   122c8: a3 0d 01 02  	sb	zero, 0x3b(sp)
   122cc: 23 0e 81 03  	sb	s8, 0x3c(sp)
   122d0: a3 0e 01 02  	sb	zero, 0x3d(sp)
   122d4: 13 05 a1 00  	addi	a0, sp, 0xa
   122d8: 93 05 10 00  	addi	a1, zero, 0x1
   122dc: 13 06 e0 00  	addi	a2, zero, 0xe
   122e0: 13 0a e0 00  	addi	s4, zero, 0xe
   122e4: 93 86 04 00  	addi	a3, s1, 0x0
   122e8: ef e0 30 3f  	jal	ra, 0x20eda <fwrite>
   122ec: 63 0e 45 01  	beq	a0, s4, 0x12308 <finish_output_bmp+0x198>
   122f0: 03 35 04 00  	ld	a0, 0x0(s0)
   122f4: 83 35 05 00  	ld	a1, 0x0(a0)
   122f8: 13 06 40 02  	addi	a2, zero, 0x24
   122fc: 23 24 c5 02  	sw	a2, 0x28(a0)
   12300: 13 05 04 00  	addi	a0, s0, 0x0
   12304: e7 80 05 00  	jalr	ra, 0x0(a1)
   12308: 83 36 89 01  	ld	a3, 0x18(s2)
   1230c: 13 05 21 03  	addi	a0, sp, 0x32
   12310: 93 05 10 00  	addi	a1, zero, 0x1
   12314: 13 06 c0 00  	addi	a2, zero, 0xc
   12318: ef e0 30 3c  	jal	ra, 0x20eda <fwrite>
   1231c: 63 0e 95 01  	beq	a0, s9, 0x12338 <finish_output_bmp+0x1c8>
   12320: 03 35 04 00  	ld	a0, 0x0(s0)
   12324: 83 35 05 00  	ld	a1, 0x0(a0)
   12328: 13 06 40 02  	addi	a2, zero, 0x24
   1232c: 23 24 c5 02  	sw	a2, 0x28(a0)
   12330: 13 05 04 00  	addi	a0, s0, 0x0
   12334: e7 80 05 00  	jalr	ra, 0x0(a1)
   12338: 63 04 0b 1c  	beq	s6, zero, 0x12500 <finish_output_bmp+0x390>
   1233c: 93 06 30 00  	addi	a3, zero, 0x3
   12340: 6f 00 00 1b  	jal	zero, 0x124f0 <finish_output_bmp+0x380>
   12344: 93 09 00 10  	addi	s3, zero, 0x100
   12348: 93 0c 80 00  	addi	s9, zero, 0x8
   1234c: 13 0b 10 00  	addi	s6, zero, 0x1
   12350: 83 65 49 04  	lwu	a1, 0x44(s2)
   12354: 03 6a 44 08  	lwu	s4, 0x84(s0)
   12358: 13 95 29 00  	slli	a0, s3, 0x2
   1235c: 13 6d 65 03  	ori	s10, a0, 0x36
   12360: 13 05 0a 00  	addi	a0, s4, 0x0
   12364: ef 10 12 39  	jal	ra, 0x33ef4 <__muldi3>
   12368: 33 0d a5 01  	add	s10, a0, s10
   1236c: a3 0d 01 02  	sb	zero, 0x3b(sp)
   12370: 23 0d 01 02  	sb	zero, 0x3a(sp)
   12374: a3 0c 01 02  	sb	zero, 0x39(sp)
   12378: 23 0c 01 02  	sb	zero, 0x38(sp)
   1237c: 13 05 c1 00  	addi	a0, sp, 0xc
   12380: 13 06 60 02  	addi	a2, zero, 0x26
   12384: 93 05 00 00  	addi	a1, zero, 0x0
   12388: ef f0 90 17  	jal	ra, 0x21d00 <memset>
   1238c: 13 05 20 04  	addi	a0, zero, 0x42
   12390: 23 09 a1 02  	sb	a0, 0x32(sp)
   12394: 13 05 d0 04  	addi	a0, zero, 0x4d
   12398: a3 09 a1 02  	sb	a0, 0x33(sp)
   1239c: 23 0a a1 03  	sb	s10, 0x34(sp)
   123a0: 13 55 8d 00  	srli	a0, s10, 0x8
   123a4: a3 0a a1 02  	sb	a0, 0x35(sp)
   123a8: 13 55 0d 01  	srli	a0, s10, 0x10
   123ac: 23 0b a1 02  	sb	a0, 0x36(sp)
   123b0: 13 55 8d 01  	srli	a0, s10, 0x18
   123b4: a3 0b a1 02  	sb	a0, 0x37(sp)
   123b8: 13 05 60 03  	addi	a0, zero, 0x36
   123bc: 23 0e a1 02  	sb	a0, 0x3c(sp)
   123c0: 13 d5 69 00  	srli	a0, s3, 0x6
   123c4: a3 0e a1 02  	sb	a0, 0x3d(sp)
   123c8: 23 0f 01 02  	sb	zero, 0x3e(sp)
   123cc: a3 0f 01 02  	sb	zero, 0x3f(sp)
   123d0: 03 25 04 08  	lw	a0, 0x80(s0)
   123d4: 93 05 80 02  	addi	a1, zero, 0x28
   123d8: 23 05 b1 00  	sb	a1, 0xa(sp)
   123dc: a3 05 01 00  	sb	zero, 0xb(sp)
   123e0: 23 07 a1 00  	sb	a0, 0xe(sp)
   123e4: 93 55 85 00  	srli	a1, a0, 0x8
   123e8: a3 07 b1 00  	sb	a1, 0xf(sp)
   123ec: 93 55 05 01  	srli	a1, a0, 0x10
   123f0: 23 08 b1 00  	sb	a1, 0x10(sp)
   123f4: 13 55 85 01  	srli	a0, a0, 0x18
   123f8: a3 08 a1 00  	sb	a0, 0x11(sp)
   123fc: 23 09 41 01  	sb	s4, 0x12(sp)
   12400: 13 55 8a 00  	srli	a0, s4, 0x8
   12404: a3 09 a1 00  	sb	a0, 0x13(sp)
   12408: 13 55 0a 01  	srli	a0, s4, 0x10
   1240c: 23 0a a1 00  	sb	a0, 0x14(sp)
   12410: 03 45 04 17  	lbu	a0, 0x170(s0)
   12414: 93 55 8a 01  	srli	a1, s4, 0x18
   12418: a3 0a b1 00  	sb	a1, 0x15(sp)
   1241c: 23 0b 81 01  	sb	s8, 0x16(sp)
   12420: 23 0c 91 01  	sb	s9, 0x18(sp)
   12424: 63 18 75 05  	bne	a0, s7, 0x12474 <finish_output_bmp+0x304>
   12428: 03 55 24 17  	lhu	a0, 0x172(s0)
   1242c: 93 05 40 06  	addi	a1, zero, 0x64
   12430: ef 10 52 2c  	jal	ra, 0x33ef4 <__muldi3>
   12434: 23 01 a1 02  	sb	a0, 0x22(sp)
   12438: 93 55 85 00  	srli	a1, a0, 0x8
   1243c: a3 01 b1 02  	sb	a1, 0x23(sp)
   12440: 03 56 44 17  	lhu	a2, 0x174(s0)
   12444: 13 55 05 01  	srli	a0, a0, 0x10
   12448: 23 02 a1 02  	sb	a0, 0x24(sp)
   1244c: a3 02 01 02  	sb	zero, 0x25(sp)
   12450: 93 05 40 06  	addi	a1, zero, 0x64
   12454: 13 05 06 00  	addi	a0, a2, 0x0
   12458: ef 10 d2 29  	jal	ra, 0x33ef4 <__muldi3>
   1245c: 23 03 a1 02  	sb	a0, 0x26(sp)
   12460: 93 55 85 00  	srli	a1, a0, 0x8
   12464: a3 03 b1 02  	sb	a1, 0x27(sp)
   12468: 13 55 05 01  	srli	a0, a0, 0x10
   1246c: 23 04 a1 02  	sb	a0, 0x28(sp)
   12470: a3 04 01 02  	sb	zero, 0x29(sp)
   12474: 23 05 01 02  	sb	zero, 0x2a(sp)
   12478: 13 d5 89 00  	srli	a0, s3, 0x8
   1247c: a3 05 a1 02  	sb	a0, 0x2b(sp)
   12480: 13 05 21 03  	addi	a0, sp, 0x32
   12484: 93 05 10 00  	addi	a1, zero, 0x1
   12488: 13 06 e0 00  	addi	a2, zero, 0xe
   1248c: 13 0a e0 00  	addi	s4, zero, 0xe
   12490: 93 86 04 00  	addi	a3, s1, 0x0
   12494: ef e0 70 24  	jal	ra, 0x20eda <fwrite>
   12498: 63 0e 45 01  	beq	a0, s4, 0x124b4 <finish_output_bmp+0x344>
   1249c: 03 35 04 00  	ld	a0, 0x0(s0)
   124a0: 83 35 05 00  	ld	a1, 0x0(a0)
   124a4: 13 06 40 02  	addi	a2, zero, 0x24
   124a8: 23 24 c5 02  	sw	a2, 0x28(a0)
   124ac: 13 05 04 00  	addi	a0, s0, 0x0
   124b0: e7 80 05 00  	jalr	ra, 0x0(a1)
   124b4: 83 36 89 01  	ld	a3, 0x18(s2)
   124b8: 13 05 a1 00  	addi	a0, sp, 0xa
   124bc: 93 05 10 00  	addi	a1, zero, 0x1
   124c0: 13 06 80 02  	addi	a2, zero, 0x28
   124c4: 13 0a 80 02  	addi	s4, zero, 0x28
   124c8: ef e0 30 21  	jal	ra, 0x20eda <fwrite>
   124cc: 63 0e 45 01  	beq	a0, s4, 0x124e8 <finish_output_bmp+0x378>
   124d0: 03 35 04 00  	ld	a0, 0x0(s0)
   124d4: 83 35 05 00  	ld	a1, 0x0(a0)
   124d8: 13 06 40 02  	addi	a2, zero, 0x24
   124dc: 23 24 c5 02  	sw	a2, 0x28(a0)
   124e0: 13 05 04 00  	addi	a0, s0, 0x0
   124e4: e7 80 05 00  	jalr	ra, 0x0(a1)
   124e8: 63 0c 0b 00  	beq	s6, zero, 0x12500 <finish_output_bmp+0x390>
   124ec: 93 06 40 00  	addi	a3, zero, 0x4
   124f0: 13 05 04 00  	addi	a0, s0, 0x0
   124f4: 93 05 09 00  	addi	a1, s2, 0x0
   124f8: 13 86 09 00  	addi	a2, s3, 0x0
   124fc: ef 00 c0 2c  	jal	ra, 0x127c8 <write_colormap>
   12500: 83 29 44 08  	lw	s3, 0x84(s0)
   12504: 63 84 09 08  	beq	s3, zero, 0x1258c <finish_output_bmp+0x41c>
   12508: 63 84 0a 02  	beq	s5, zero, 0x12530 <finish_output_bmp+0x3c0>
   1250c: 03 65 44 08  	lwu	a0, 0x84(s0)
   12510: bb 05 35 41  	subw	a1, a0, s3
   12514: 93 95 05 02  	slli	a1, a1, 0x20
   12518: 03 b6 0a 00  	ld	a2, 0x0(s5)
   1251c: 93 d5 05 02  	srli	a1, a1, 0x20
   12520: 23 b4 ba 00  	sd	a1, 0x8(s5)
   12524: 23 b8 aa 00  	sd	a0, 0x10(s5)
   12528: 13 05 04 00  	addi	a0, s0, 0x0
   1252c: e7 00 06 00  	jalr	ra, 0x0(a2)
   12530: 03 35 84 00  	ld	a0, 0x8(s0)
   12534: 83 37 85 03  	ld	a5, 0x38(a0)
   12538: 83 35 89 03  	ld	a1, 0x38(s2)
   1253c: 9b 89 f9 ff  	addiw	s3, s3, -0x1
   12540: 93 06 10 00  	addi	a3, zero, 0x1
   12544: 13 05 04 00  	addi	a0, s0, 0x0
   12548: 13 86 09 00  	addi	a2, s3, 0x0
   1254c: 13 07 00 00  	addi	a4, zero, 0x0
   12550: e7 80 07 00  	jalr	ra, 0x0(a5)
   12554: 83 25 49 04  	lw	a1, 0x44(s2)
   12558: 63 88 05 02  	beq	a1, zero, 0x12588 <finish_output_bmp+0x418>
   1255c: 03 3a 05 00  	ld	s4, 0x0(a0)
   12560: 93 85 f5 ff  	addi	a1, a1, -0x1
   12564: 93 95 05 02  	slli	a1, a1, 0x20
   12568: 93 d5 05 02  	srli	a1, a1, 0x20
   1256c: b3 05 ba 00  	add	a1, s4, a1
   12570: 13 8b 15 00  	addi	s6, a1, 0x1
   12574: 03 45 0a 00  	lbu	a0, 0x0(s4)
   12578: 93 85 04 00  	addi	a1, s1, 0x0
   1257c: ef e0 d0 2c  	jal	ra, 0x21048 <putc>
   12580: 13 0a 1a 00  	addi	s4, s4, 0x1
   12584: e3 18 6a ff  	bne	s4, s6, 0x12574 <finish_output_bmp+0x404>
   12588: e3 90 09 f8  	bne	s3, zero, 0x12508 <finish_output_bmp+0x398>
   1258c: 63 88 0a 00  	beq	s5, zero, 0x1259c <finish_output_bmp+0x42c>
   12590: 03 a5 0a 02  	lw	a0, 0x20(s5)
   12594: 13 05 15 00  	addi	a0, a0, 0x1
   12598: 23 a0 aa 02  	sw	a0, 0x20(s5)
   1259c: 13 85 04 00  	addi	a0, s1, 0x0
   125a0: ef e0 a0 21  	jal	ra, 0x207ba <fflush>
   125a4: 03 c5 04 01  	lbu	a0, 0x10(s1)
   125a8: 13 75 05 04  	andi	a0, a0, 0x40
   125ac: 63 1e 05 02  	bne	a0, zero, 0x125e8 <finish_output_bmp+0x478>
   125b0: 83 30 81 09  	ld	ra, 0x98(sp)
   125b4: 03 34 01 09  	ld	s0, 0x90(sp)
   125b8: 83 34 81 08  	ld	s1, 0x88(sp)
   125bc: 03 39 01 08  	ld	s2, 0x80(sp)
   125c0: 83 39 81 07  	ld	s3, 0x78(sp)
   125c4: 03 3a 01 07  	ld	s4, 0x70(sp)
   125c8: 83 3a 81 06  	ld	s5, 0x68(sp)
   125cc: 03 3b 01 06  	ld	s6, 0x60(sp)
   125d0: 83 3b 81 05  	ld	s7, 0x58(sp)
   125d4: 03 3c 01 05  	ld	s8, 0x50(sp)
   125d8: 83 3c 81 04  	ld	s9, 0x48(sp)
   125dc: 03 3d 01 04  	ld	s10, 0x40(sp)
   125e0: 13 01 01 0a  	addi	sp, sp, 0xa0
   125e4: 67 80 00 00  	jalr	zero, 0x0(ra)
   125e8: 03 35 04 00  	ld	a0, 0x0(s0)
   125ec: 03 33 05 00  	ld	t1, 0x0(a0)
   125f0: 93 05 40 02  	addi	a1, zero, 0x24
   125f4: 23 24 b5 02  	sw	a1, 0x28(a0)
   125f8: 13 05 04 00  	addi	a0, s0, 0x0
   125fc: 83 30 81 09  	ld	ra, 0x98(sp)
   12600: 03 34 01 09  	ld	s0, 0x90(sp)
   12604: 83 34 81 08  	ld	s1, 0x88(sp)
   12608: 03 39 01 08  	ld	s2, 0x80(sp)
   1260c: 83 39 81 07  	ld	s3, 0x78(sp)
   12610: 03 3a 01 07  	ld	s4, 0x70(sp)
   12614: 83 3a 81 06  	ld	s5, 0x68(sp)
   12618: 03 3b 01 06  	ld	s6, 0x60(sp)
   1261c: 83 3b 81 05  	ld	s7, 0x58(sp)
   12620: 03 3c 01 05  	ld	s8, 0x50(sp)
   12624: 83 3c 81 04  	ld	s9, 0x48(sp)
   12628: 03 3d 01 04  	ld	s10, 0x40(sp)
   1262c: 13 01 01 0a  	addi	sp, sp, 0xa0
   12630: 67 00 03 00  	jalr	zero, 0x0(t1)

0000000000012634 <put_gray_rows>:
   12634: 13 01 01 fe  	addi	sp, sp, -0x20
   12638: 23 3c 11 00  	sd	ra, 0x18(sp)
   1263c: 23 38 81 00  	sd	s0, 0x10(sp)
   12640: 23 34 91 00  	sd	s1, 0x8(sp)
   12644: 93 04 05 00  	addi	s1, a0, 0x0
   12648: 03 35 85 00  	ld	a0, 0x8(a0)
   1264c: 13 84 05 00  	addi	s0, a1, 0x0
   12650: 83 37 85 03  	ld	a5, 0x38(a0)
   12654: 83 b5 85 03  	ld	a1, 0x38(a1)
   12658: 03 26 c4 04  	lw	a2, 0x4c(s0)
   1265c: 93 06 10 00  	addi	a3, zero, 0x1
   12660: 13 07 10 00  	addi	a4, zero, 0x1
   12664: 13 85 04 00  	addi	a0, s1, 0x0
   12668: e7 80 07 00  	jalr	ra, 0x0(a5)
   1266c: 03 26 c4 04  	lw	a2, 0x4c(s0)
   12670: 83 a6 04 08  	lw	a3, 0x80(s1)
   12674: 83 35 05 00  	ld	a1, 0x0(a0)
   12678: 13 06 16 00  	addi	a2, a2, 0x1
   1267c: 23 26 c4 04  	sw	a2, 0x4c(s0)
   12680: 63 80 06 04  	beq	a3, zero, 0x126c0 <put_gray_rows+0x8c>
   12684: 03 35 04 02  	ld	a0, 0x20(s0)
   12688: 03 36 05 00  	ld	a2, 0x0(a0)
   1268c: 93 86 f6 ff  	addi	a3, a3, -0x1
   12690: 93 96 06 02  	slli	a3, a3, 0x20
   12694: 93 d6 06 02  	srli	a3, a3, 0x20
   12698: b3 86 c6 00  	add	a3, a3, a2
   1269c: 93 86 16 00  	addi	a3, a3, 0x1
   126a0: 03 47 06 00  	lbu	a4, 0x0(a2)
   126a4: 93 07 16 00  	addi	a5, a2, 0x1
   126a8: 13 85 15 00  	addi	a0, a1, 0x1
   126ac: 23 80 e5 00  	sb	a4, 0x0(a1)
   126b0: 93 05 05 00  	addi	a1, a0, 0x0
   126b4: 13 86 07 00  	addi	a2, a5, 0x0
   126b8: e3 94 d7 fe  	bne	a5, a3, 0x126a0 <put_gray_rows+0x6c>
   126bc: 6f 00 80 00  	jal	zero, 0x126c4 <put_gray_rows+0x90>
   126c0: 13 85 05 00  	addi	a0, a1, 0x0
   126c4: 03 26 84 04  	lw	a2, 0x48(s0)
   126c8: 63 5e c0 00  	bge	zero, a2, 0x126e4 <put_gray_rows+0xb0>
   126cc: 93 05 00 00  	addi	a1, zero, 0x0
   126d0: 83 30 81 01  	ld	ra, 0x18(sp)
   126d4: 03 34 01 01  	ld	s0, 0x10(sp)
   126d8: 83 34 81 00  	ld	s1, 0x8(sp)
   126dc: 13 01 01 02  	addi	sp, sp, 0x20
   126e0: 6f f0 00 62  	jal	zero, 0x21d00 <memset>
   126e4: 83 30 81 01  	ld	ra, 0x18(sp)
   126e8: 03 34 01 01  	ld	s0, 0x10(sp)
   126ec: 83 34 81 00  	ld	s1, 0x8(sp)
   126f0: 13 01 01 02  	addi	sp, sp, 0x20
   126f4: 67 80 00 00  	jalr	zero, 0x0(ra)

00000000000126f8 <put_pixel_rows>:
   126f8: 13 01 01 fe  	addi	sp, sp, -0x20
   126fc: 23 3c 11 00  	sd	ra, 0x18(sp)
   12700: 23 38 81 00  	sd	s0, 0x10(sp)
   12704: 23 34 91 00  	sd	s1, 0x8(sp)
   12708: 93 04 05 00  	addi	s1, a0, 0x0
   1270c: 03 35 85 00  	ld	a0, 0x8(a0)
   12710: 13 84 05 00  	addi	s0, a1, 0x0
   12714: 83 37 85 03  	ld	a5, 0x38(a0)
   12718: 83 b5 85 03  	ld	a1, 0x38(a1)
   1271c: 03 26 c4 04  	lw	a2, 0x4c(s0)
   12720: 93 06 10 00  	addi	a3, zero, 0x1
   12724: 13 07 10 00  	addi	a4, zero, 0x1
   12728: 13 85 04 00  	addi	a0, s1, 0x0
   1272c: e7 80 07 00  	jalr	ra, 0x0(a5)
   12730: 83 25 c4 04  	lw	a1, 0x4c(s0)
   12734: 03 a6 04 08  	lw	a2, 0x80(s1)
   12738: 03 35 05 00  	ld	a0, 0x0(a0)
   1273c: 93 85 15 00  	addi	a1, a1, 0x1
   12740: 23 26 b4 04  	sw	a1, 0x4c(s0)
   12744: 63 08 06 04  	beq	a2, zero, 0x12794 <put_pixel_rows+0x9c>
   12748: 83 35 04 02  	ld	a1, 0x20(s0)
   1274c: 83 b5 05 00  	ld	a1, 0x0(a1)
   12750: 13 06 f6 ff  	addi	a2, a2, -0x1
   12754: 13 16 06 02  	slli	a2, a2, 0x20
   12758: 93 56 06 02  	srli	a3, a2, 0x20
   1275c: 13 56 f6 01  	srli	a2, a2, 0x1f
   12760: 33 06 d6 00  	add	a2, a2, a3
   12764: 33 06 b6 00  	add	a2, a2, a1
   12768: 13 06 36 00  	addi	a2, a2, 0x3
   1276c: 83 c6 05 00  	lbu	a3, 0x0(a1)
   12770: 23 01 d5 00  	sb	a3, 0x2(a0)
   12774: 83 c6 15 00  	lbu	a3, 0x1(a1)
   12778: a3 00 d5 00  	sb	a3, 0x1(a0)
   1277c: 83 c6 25 00  	lbu	a3, 0x2(a1)
   12780: 13 87 35 00  	addi	a4, a1, 0x3
   12784: 23 00 d5 00  	sb	a3, 0x0(a0)
   12788: 13 05 35 00  	addi	a0, a0, 0x3
   1278c: 93 05 07 00  	addi	a1, a4, 0x0
   12790: e3 1e c7 fc  	bne	a4, a2, 0x1276c <put_pixel_rows+0x74>
   12794: 03 26 84 04  	lw	a2, 0x48(s0)
   12798: 63 5e c0 00  	bge	zero, a2, 0x127b4 <put_pixel_rows+0xbc>
   1279c: 93 05 00 00  	addi	a1, zero, 0x0
   127a0: 83 30 81 01  	ld	ra, 0x18(sp)
   127a4: 03 34 01 01  	ld	s0, 0x10(sp)
   127a8: 83 34 81 00  	ld	s1, 0x8(sp)
   127ac: 13 01 01 02  	addi	sp, sp, 0x20
   127b0: 6f f0 00 55  	jal	zero, 0x21d00 <memset>
   127b4: 83 30 81 01  	ld	ra, 0x18(sp)
   127b8: 03 34 01 01  	ld	s0, 0x10(sp)
   127bc: 83 34 81 00  	ld	s1, 0x8(sp)
   127c0: 13 01 01 02  	addi	sp, sp, 0x20
   127c4: 67 80 00 00  	jalr	zero, 0x0(ra)

00000000000127c8 <write_colormap>:
   127c8: ef 12 82 6c  	jal	t0, 0x33e90 <__riscv_save_9>
   127cc: 93 09 05 00  	addi	s3, a0, 0x0
   127d0: 03 3a 85 09  	ld	s4, 0x98(a0)
   127d4: 03 b4 85 01  	ld	s0, 0x18(a1)
   127d8: 93 84 06 00  	addi	s1, a3, 0x0
   127dc: 13 09 06 00  	addi	s2, a2, 0x0
   127e0: 63 0c 0a 06  	beq	s4, zero, 0x12858 <write_colormap+0x90>
   127e4: 03 a5 89 08  	lw	a0, 0x88(s3)
   127e8: 83 aa 49 09  	lw	s5, 0x94(s3)
   127ec: 93 05 30 00  	addi	a1, zero, 0x3
   127f0: 63 18 b5 0a  	bne	a0, a1, 0x128a0 <write_colormap+0xd8>
   127f4: 63 5e 50 17  	bge	zero, s5, 0x12970 <write_colormap+0x1a8>
   127f8: 13 0b 00 00  	addi	s6, zero, 0x0
   127fc: 93 0b 40 00  	addi	s7, zero, 0x4
   12800: 03 35 0a 01  	ld	a0, 0x10(s4)
   12804: 33 05 65 01  	add	a0, a0, s6
   12808: 03 45 05 00  	lbu	a0, 0x0(a0)
   1280c: 93 05 04 00  	addi	a1, s0, 0x0
   12810: ef e0 90 03  	jal	ra, 0x21048 <putc>
   12814: 03 35 8a 00  	ld	a0, 0x8(s4)
   12818: 33 05 65 01  	add	a0, a0, s6
   1281c: 03 45 05 00  	lbu	a0, 0x0(a0)
   12820: 93 05 04 00  	addi	a1, s0, 0x0
   12824: ef e0 50 02  	jal	ra, 0x21048 <putc>
   12828: 03 35 0a 00  	ld	a0, 0x0(s4)
   1282c: 33 05 65 01  	add	a0, a0, s6
   12830: 03 45 05 00  	lbu	a0, 0x0(a0)
   12834: 93 05 04 00  	addi	a1, s0, 0x0
   12838: ef e0 10 01  	jal	ra, 0x21048 <putc>
   1283c: 63 98 74 01  	bne	s1, s7, 0x1284c <write_colormap+0x84>
   12840: 13 05 00 00  	addi	a0, zero, 0x0
   12844: 93 05 04 00  	addi	a1, s0, 0x0
   12848: ef e0 10 00  	jal	ra, 0x21048 <putc>
   1284c: 13 0b 1b 00  	addi	s6, s6, 0x1
   12850: e3 98 6a fb  	bne	s5, s6, 0x12800 <write_colormap+0x38>
   12854: 6f 00 c0 0a  	jal	zero, 0x12900 <write_colormap+0x138>
   12858: 13 0b 40 00  	addi	s6, zero, 0x4
   1285c: 93 0a 00 10  	addi	s5, zero, 0x100
   12860: 13 05 0a 00  	addi	a0, s4, 0x0
   12864: 93 05 04 00  	addi	a1, s0, 0x0
   12868: ef e0 00 7e  	jal	ra, 0x21048 <putc>
   1286c: 13 05 0a 00  	addi	a0, s4, 0x0
   12870: 93 05 04 00  	addi	a1, s0, 0x0
   12874: ef e0 40 7d  	jal	ra, 0x21048 <putc>
   12878: 13 05 0a 00  	addi	a0, s4, 0x0
   1287c: 93 05 04 00  	addi	a1, s0, 0x0
   12880: ef e0 80 7c  	jal	ra, 0x21048 <putc>
   12884: 63 98 64 01  	bne	s1, s6, 0x12894 <write_colormap+0xcc>
   12888: 13 05 00 00  	addi	a0, zero, 0x0
   1288c: 93 05 04 00  	addi	a1, s0, 0x0
   12890: ef e0 80 7b  	jal	ra, 0x21048 <putc>
   12894: 1b 0a 1a 00  	addiw	s4, s4, 0x1
   12898: e3 14 5a fd  	bne	s4, s5, 0x12860 <write_colormap+0x98>
   1289c: 6f 00 40 06  	jal	zero, 0x12900 <write_colormap+0x138>
   128a0: 63 58 50 0d  	bge	zero, s5, 0x12970 <write_colormap+0x1a8>
   128a4: 13 0b 00 00  	addi	s6, zero, 0x0
   128a8: 93 0b 40 00  	addi	s7, zero, 0x4
   128ac: 03 35 0a 00  	ld	a0, 0x0(s4)
   128b0: 33 05 65 01  	add	a0, a0, s6
   128b4: 03 45 05 00  	lbu	a0, 0x0(a0)
   128b8: 93 05 04 00  	addi	a1, s0, 0x0
   128bc: ef e0 c0 78  	jal	ra, 0x21048 <putc>
   128c0: 03 35 0a 00  	ld	a0, 0x0(s4)
   128c4: 33 05 65 01  	add	a0, a0, s6
   128c8: 03 45 05 00  	lbu	a0, 0x0(a0)
   128cc: 93 05 04 00  	addi	a1, s0, 0x0
   128d0: ef e0 80 77  	jal	ra, 0x21048 <putc>
   128d4: 03 35 0a 00  	ld	a0, 0x0(s4)
   128d8: 33 05 65 01  	add	a0, a0, s6
   128dc: 03 45 05 00  	lbu	a0, 0x0(a0)
   128e0: 93 05 04 00  	addi	a1, s0, 0x0
   128e4: ef e0 40 76  	jal	ra, 0x21048 <putc>
   128e8: 63 98 74 01  	bne	s1, s7, 0x128f8 <write_colormap+0x130>
   128ec: 13 05 00 00  	addi	a0, zero, 0x0
   128f0: 93 05 04 00  	addi	a1, s0, 0x0
   128f4: ef e0 40 75  	jal	ra, 0x21048 <putc>
   128f8: 13 0b 1b 00  	addi	s6, s6, 0x1
   128fc: e3 98 6a fb  	bne	s5, s6, 0x128ac <write_colormap+0xe4>
   12900: 63 52 59 03  	bge	s2, s5, 0x12924 <write_colormap+0x15c>
   12904: 03 b5 09 00  	ld	a0, 0x0(s3)
   12908: 23 26 55 03  	sw	s5, 0x2c(a0)
   1290c: 83 b5 09 00  	ld	a1, 0x0(s3)
   12910: 83 b5 05 00  	ld	a1, 0x0(a1)
   12914: 13 06 f0 40  	addi	a2, zero, 0x40f
   12918: 23 24 c5 02  	sw	a2, 0x28(a0)
   1291c: 13 85 09 00  	addi	a0, s3, 0x0
   12920: e7 80 05 00  	jalr	ra, 0x0(a1)
   12924: 63 d4 2a 05  	bge	s5, s2, 0x1296c <write_colormap+0x1a4>
   12928: 3b 09 59 41  	subw	s2, s2, s5
   1292c: 93 09 40 00  	addi	s3, zero, 0x4
   12930: 13 05 00 00  	addi	a0, zero, 0x0
   12934: 93 05 04 00  	addi	a1, s0, 0x0
   12938: ef e0 00 71  	jal	ra, 0x21048 <putc>
   1293c: 13 05 00 00  	addi	a0, zero, 0x0
   12940: 93 05 04 00  	addi	a1, s0, 0x0
   12944: ef e0 40 70  	jal	ra, 0x21048 <putc>
   12948: 13 05 00 00  	addi	a0, zero, 0x0
   1294c: 93 05 04 00  	addi	a1, s0, 0x0
   12950: ef e0 80 6f  	jal	ra, 0x21048 <putc>
   12954: 63 98 34 01  	bne	s1, s3, 0x12964 <write_colormap+0x19c>
   12958: 13 05 00 00  	addi	a0, zero, 0x0
   1295c: 93 05 04 00  	addi	a1, s0, 0x0
   12960: ef e0 80 6e  	jal	ra, 0x21048 <putc>
   12964: 1b 09 f9 ff  	addiw	s2, s2, -0x1
   12968: e3 14 09 fc  	bne	s2, zero, 0x12930 <write_colormap+0x168>
   1296c: 6f 10 62 56  	jal	zero, 0x33ed2 <__riscv_restore_9>
   12970: 93 0a 00 00  	addi	s5, zero, 0x0
   12974: e3 48 09 f8  	blt	s2, zero, 0x12904 <write_colormap+0x13c>
   12978: 6f f0 df fa  	jal	zero, 0x12924 <write_colormap+0x15c>

000000000001297c <read_color_map>:
   1297c: 13 01 01 f6  	addi	sp, sp, -0xa0
   12980: 23 3c 11 08  	sd	ra, 0x98(sp)
   12984: 23 38 81 08  	sd	s0, 0x90(sp)
   12988: 23 34 91 08  	sd	s1, 0x88(sp)
   1298c: 23 30 21 09  	sd	s2, 0x80(sp)
   12990: 23 3c 31 07  	sd	s3, 0x78(sp)
   12994: 23 38 41 07  	sd	s4, 0x70(sp)
   12998: 23 34 51 07  	sd	s5, 0x68(sp)
   1299c: 23 30 61 07  	sd	s6, 0x60(sp)
   129a0: 23 3c 71 05  	sd	s7, 0x58(sp)
   129a4: 23 38 81 05  	sd	s8, 0x50(sp)
   129a8: 23 34 91 05  	sd	s9, 0x48(sp)
   129ac: 23 30 a1 05  	sd	s10, 0x40(sp)
   129b0: 13 04 05 00  	addi	s0, a0, 0x0
   129b4: 03 35 85 00  	ld	a0, 0x8(a0)
   129b8: 03 37 05 01  	ld	a4, 0x10(a0)
   129bc: 93 84 05 00  	addi	s1, a1, 0x0
   129c0: 93 05 10 00  	addi	a1, zero, 0x1
   129c4: 13 06 00 10  	addi	a2, zero, 0x100
   129c8: 93 06 30 00  	addi	a3, zero, 0x3
   129cc: 13 05 04 00  	addi	a0, s0, 0x0
   129d0: e7 00 07 00  	jalr	ra, 0x0(a4)
   129d4: 23 3c a4 08  	sd	a0, 0x98(s0)
   129d8: 23 2a 04 08  	sw	zero, 0x94(s0)
   129dc: 13 85 04 00  	addi	a0, s1, 0x0
   129e0: ef e0 00 5c  	jal	ra, 0x20fa0 <getc>
   129e4: 93 05 00 05  	addi	a1, zero, 0x50
   129e8: 63 04 b5 14  	beq	a0, a1, 0x12b30 <read_color_map+0x1b4>
   129ec: 93 05 70 04  	addi	a1, zero, 0x47
   129f0: 63 1a b5 24  	bne	a0, a1, 0x12c44 <read_color_map+0x2c8>
   129f4: 13 09 01 01  	addi	s2, sp, 0x10
   129f8: 93 09 01 04  	addi	s3, sp, 0x40
   129fc: 13 0a f0 ff  	addi	s4, zero, -0x1
   12a00: 93 0a e0 40  	addi	s5, zero, 0x40e
   12a04: 13 85 04 00  	addi	a0, s1, 0x0
   12a08: ef e0 80 59  	jal	ra, 0x20fa0 <getc>
   12a0c: 23 20 a9 00  	sw	a0, 0x0(s2)
   12a10: 63 1c 45 01  	bne	a0, s4, 0x12a28 <read_color_map+0xac>
   12a14: 03 35 04 00  	ld	a0, 0x0(s0)
   12a18: 83 35 05 00  	ld	a1, 0x0(a0)
   12a1c: 23 24 55 03  	sw	s5, 0x28(a0)
   12a20: 13 05 04 00  	addi	a0, s0, 0x0
   12a24: e7 80 05 00  	jalr	ra, 0x0(a1)
   12a28: 13 09 49 00  	addi	s2, s2, 0x4
   12a2c: e3 1c 39 fd  	bne	s2, s3, 0x12a04 <read_color_map+0x88>
   12a30: 03 25 01 01  	lw	a0, 0x10(sp)
   12a34: 93 05 90 04  	addi	a1, zero, 0x49
   12a38: 63 18 b5 00  	bne	a0, a1, 0x12a48 <read_color_map+0xcc>
   12a3c: 03 25 41 01  	lw	a0, 0x14(sp)
   12a40: 93 05 60 04  	addi	a1, zero, 0x46
   12a44: 63 0e b5 00  	beq	a0, a1, 0x12a60 <read_color_map+0xe4>
   12a48: 03 35 04 00  	ld	a0, 0x0(s0)
   12a4c: 83 35 05 00  	ld	a1, 0x0(a0)
   12a50: 13 06 e0 40  	addi	a2, zero, 0x40e
   12a54: 23 24 c5 02  	sw	a2, 0x28(a0)
   12a58: 13 05 04 00  	addi	a0, s0, 0x0
   12a5c: e7 80 05 00  	jalr	ra, 0x0(a1)
   12a60: 03 69 41 03  	lwu	s2, 0x34(sp)
   12a64: 13 75 09 08  	andi	a0, s2, 0x80
   12a68: 63 1e 05 00  	bne	a0, zero, 0x12a84 <read_color_map+0x108>
   12a6c: 03 35 04 00  	ld	a0, 0x0(s0)
   12a70: 83 35 05 00  	ld	a1, 0x0(a0)
   12a74: 13 06 e0 40  	addi	a2, zero, 0x40e
   12a78: 23 24 c5 02  	sw	a2, 0x28(a0)
   12a7c: 13 05 04 00  	addi	a0, s0, 0x0
   12a80: e7 80 05 00  	jalr	ra, 0x0(a1)
   12a84: 13 75 79 00  	andi	a0, s2, 0x7
   12a88: 93 05 20 00  	addi	a1, zero, 0x2
   12a8c: bb 9a a5 00  	sllw	s5, a1, a0
   12a90: 13 0b f0 ff  	addi	s6, zero, -0x1
   12a94: 93 0b e0 40  	addi	s7, zero, 0x40e
   12a98: 13 85 04 00  	addi	a0, s1, 0x0
   12a9c: ef e0 40 50  	jal	ra, 0x20fa0 <getc>
   12aa0: 13 09 05 00  	addi	s2, a0, 0x0
   12aa4: 13 85 04 00  	addi	a0, s1, 0x0
   12aa8: ef e0 80 4f  	jal	ra, 0x20fa0 <getc>
   12aac: 93 09 05 00  	addi	s3, a0, 0x0
   12ab0: 13 85 04 00  	addi	a0, s1, 0x0
   12ab4: ef e0 c0 4e  	jal	ra, 0x20fa0 <getc>
   12ab8: 13 0a 05 00  	addi	s4, a0, 0x0
   12abc: 63 06 69 01  	beq	s2, s6, 0x12ac8 <read_color_map+0x14c>
   12ac0: 63 84 69 01  	beq	s3, s6, 0x12ac8 <read_color_map+0x14c>
   12ac4: 63 1c 6a 01  	bne	s4, s6, 0x12adc <read_color_map+0x160>
   12ac8: 03 35 04 00  	ld	a0, 0x0(s0)
   12acc: 83 35 05 00  	ld	a1, 0x0(a0)
   12ad0: 23 24 75 03  	sw	s7, 0x28(a0)
   12ad4: 13 05 04 00  	addi	a0, s0, 0x0
   12ad8: e7 80 05 00  	jalr	ra, 0x0(a1)
   12adc: 13 05 04 00  	addi	a0, s0, 0x0
   12ae0: 93 05 09 00  	addi	a1, s2, 0x0
   12ae4: 13 86 09 00  	addi	a2, s3, 0x0
   12ae8: 93 06 0a 00  	addi	a3, s4, 0x0
   12aec: ef 00 80 20  	jal	ra, 0x12cf4 <add_map_entry>
   12af0: 9b 8a fa ff  	addiw	s5, s5, -0x1
   12af4: e3 92 0a fa  	bne	s5, zero, 0x12a98 <read_color_map+0x11c>
   12af8: 83 30 81 09  	ld	ra, 0x98(sp)
   12afc: 03 34 01 09  	ld	s0, 0x90(sp)
   12b00: 83 34 81 08  	ld	s1, 0x88(sp)
   12b04: 03 39 01 08  	ld	s2, 0x80(sp)
   12b08: 83 39 81 07  	ld	s3, 0x78(sp)
   12b0c: 03 3a 01 07  	ld	s4, 0x70(sp)
   12b10: 83 3a 81 06  	ld	s5, 0x68(sp)
   12b14: 03 3b 01 06  	ld	s6, 0x60(sp)
   12b18: 83 3b 81 05  	ld	s7, 0x58(sp)
   12b1c: 03 3c 01 05  	ld	s8, 0x50(sp)
   12b20: 83 3c 81 04  	ld	s9, 0x48(sp)
   12b24: 03 3d 01 04  	ld	s10, 0x40(sp)
   12b28: 13 01 01 0a  	addi	sp, sp, 0xa0
   12b2c: 67 80 00 00  	jalr	zero, 0x0(ra)
   12b30: 13 85 04 00  	addi	a0, s1, 0x0
   12b34: ef e0 c0 46  	jal	ra, 0x20fa0 <getc>
   12b38: 13 0a 05 00  	addi	s4, a0, 0x0
   12b3c: 13 05 04 00  	addi	a0, s0, 0x0
   12b40: 93 85 04 00  	addi	a1, s1, 0x0
   12b44: ef 00 c0 26  	jal	ra, 0x12db0 <read_pbm_integer>
   12b48: 13 09 05 00  	addi	s2, a0, 0x0
   12b4c: 13 05 04 00  	addi	a0, s0, 0x0
   12b50: 93 85 04 00  	addi	a1, s1, 0x0
   12b54: ef 00 c0 25  	jal	ra, 0x12db0 <read_pbm_integer>
   12b58: 93 09 05 00  	addi	s3, a0, 0x0
   12b5c: 13 05 04 00  	addi	a0, s0, 0x0
   12b60: 93 85 04 00  	addi	a1, s1, 0x0
   12b64: ef 00 c0 24  	jal	ra, 0x12db0 <read_pbm_integer>
   12b68: 93 0a 05 00  	addi	s5, a0, 0x0
   12b6c: 63 06 09 00  	beq	s2, zero, 0x12b78 <read_color_map+0x1fc>
   12b70: 63 84 09 00  	beq	s3, zero, 0x12b78 <read_color_map+0x1fc>
   12b74: 63 9e 0a 00  	bne	s5, zero, 0x12b90 <read_color_map+0x214>
   12b78: 03 35 04 00  	ld	a0, 0x0(s0)
   12b7c: 83 35 05 00  	ld	a1, 0x0(a0)
   12b80: 13 06 e0 40  	addi	a2, zero, 0x40e
   12b84: 23 24 c5 02  	sw	a2, 0x28(a0)
   12b88: 13 05 04 00  	addi	a0, s0, 0x0
   12b8c: e7 80 05 00  	jalr	ra, 0x0(a1)
   12b90: 13 05 f0 0f  	addi	a0, zero, 0xff
   12b94: 63 8e aa 00  	beq	s5, a0, 0x12bb0 <read_color_map+0x234>
   12b98: 03 35 04 00  	ld	a0, 0x0(s0)
   12b9c: 83 35 05 00  	ld	a1, 0x0(a0)
   12ba0: 13 06 e0 40  	addi	a2, zero, 0x40e
   12ba4: 23 24 c5 02  	sw	a2, 0x28(a0)
   12ba8: 13 05 04 00  	addi	a0, s0, 0x0
   12bac: e7 80 05 00  	jalr	ra, 0x0(a1)
   12bb0: 13 05 30 03  	addi	a0, zero, 0x33
   12bb4: 63 0e aa 0c  	beq	s4, a0, 0x12c90 <read_color_map+0x314>
   12bb8: 13 05 60 03  	addi	a0, zero, 0x36
   12bbc: 63 14 aa 08  	bne	s4, a0, 0x12c44 <read_color_map+0x2c8>
   12bc0: e3 8c 09 f2  	beq	s3, zero, 0x12af8 <read_color_map+0x17c>
   12bc4: 93 0b 00 00  	addi	s7, zero, 0x0
   12bc8: 13 0c f0 ff  	addi	s8, zero, -0x1
   12bcc: 93 0c e0 40  	addi	s9, zero, 0x40e
   12bd0: 63 04 09 06  	beq	s2, zero, 0x12c38 <read_color_map+0x2bc>
   12bd4: 13 0d 09 00  	addi	s10, s2, 0x0
   12bd8: 13 85 04 00  	addi	a0, s1, 0x0
   12bdc: ef 00 80 29  	jal	ra, 0x12e74 <pbm_getc>
   12be0: 13 0a 05 00  	addi	s4, a0, 0x0
   12be4: 13 85 04 00  	addi	a0, s1, 0x0
   12be8: ef 00 c0 28  	jal	ra, 0x12e74 <pbm_getc>
   12bec: 93 0a 05 00  	addi	s5, a0, 0x0
   12bf0: 13 85 04 00  	addi	a0, s1, 0x0
   12bf4: ef 00 00 28  	jal	ra, 0x12e74 <pbm_getc>
   12bf8: 13 0b 05 00  	addi	s6, a0, 0x0
   12bfc: 63 06 8a 01  	beq	s4, s8, 0x12c08 <read_color_map+0x28c>
   12c00: 63 84 8a 01  	beq	s5, s8, 0x12c08 <read_color_map+0x28c>
   12c04: 63 1c 8b 01  	bne	s6, s8, 0x12c1c <read_color_map+0x2a0>
   12c08: 03 35 04 00  	ld	a0, 0x0(s0)
   12c0c: 83 35 05 00  	ld	a1, 0x0(a0)
   12c10: 23 24 95 03  	sw	s9, 0x28(a0)
   12c14: 13 05 04 00  	addi	a0, s0, 0x0
   12c18: e7 80 05 00  	jalr	ra, 0x0(a1)
   12c1c: 13 05 04 00  	addi	a0, s0, 0x0
   12c20: 93 05 0a 00  	addi	a1, s4, 0x0
   12c24: 13 86 0a 00  	addi	a2, s5, 0x0
   12c28: 93 06 0b 00  	addi	a3, s6, 0x0
   12c2c: ef 00 80 0c  	jal	ra, 0x12cf4 <add_map_entry>
   12c30: 1b 0d fd ff  	addiw	s10, s10, -0x1
   12c34: e3 12 0d fa  	bne	s10, zero, 0x12bd8 <read_color_map+0x25c>
   12c38: 9b 8b 1b 00  	addiw	s7, s7, 0x1
   12c3c: e3 9a 3b f9  	bne	s7, s3, 0x12bd0 <read_color_map+0x254>
   12c40: 6f f0 9f eb  	jal	zero, 0x12af8 <read_color_map+0x17c>
   12c44: 03 35 04 00  	ld	a0, 0x0(s0)
   12c48: 03 33 05 00  	ld	t1, 0x0(a0)
   12c4c: 93 05 e0 40  	addi	a1, zero, 0x40e
   12c50: 23 24 b5 02  	sw	a1, 0x28(a0)
   12c54: 13 05 04 00  	addi	a0, s0, 0x0
   12c58: 83 30 81 09  	ld	ra, 0x98(sp)
   12c5c: 03 34 01 09  	ld	s0, 0x90(sp)
   12c60: 83 34 81 08  	ld	s1, 0x88(sp)
   12c64: 03 39 01 08  	ld	s2, 0x80(sp)
   12c68: 83 39 81 07  	ld	s3, 0x78(sp)
   12c6c: 03 3a 01 07  	ld	s4, 0x70(sp)
   12c70: 83 3a 81 06  	ld	s5, 0x68(sp)
   12c74: 03 3b 01 06  	ld	s6, 0x60(sp)
   12c78: 83 3b 81 05  	ld	s7, 0x58(sp)
   12c7c: 03 3c 01 05  	ld	s8, 0x50(sp)
   12c80: 83 3c 81 04  	ld	s9, 0x48(sp)
   12c84: 03 3d 01 04  	ld	s10, 0x40(sp)
   12c88: 13 01 01 0a  	addi	sp, sp, 0xa0
   12c8c: 67 00 03 00  	jalr	zero, 0x0(t1)
   12c90: e3 84 09 e6  	beq	s3, zero, 0x12af8 <read_color_map+0x17c>
   12c94: 13 0b 00 00  	addi	s6, zero, 0x0
   12c98: 63 08 09 04  	beq	s2, zero, 0x12ce8 <read_color_map+0x36c>
   12c9c: 93 0b 09 00  	addi	s7, s2, 0x0
   12ca0: 13 05 04 00  	addi	a0, s0, 0x0
   12ca4: 93 85 04 00  	addi	a1, s1, 0x0
   12ca8: ef 00 80 10  	jal	ra, 0x12db0 <read_pbm_integer>
   12cac: 13 0a 05 00  	addi	s4, a0, 0x0
   12cb0: 13 05 04 00  	addi	a0, s0, 0x0
   12cb4: 93 85 04 00  	addi	a1, s1, 0x0
   12cb8: ef 00 80 0f  	jal	ra, 0x12db0 <read_pbm_integer>
   12cbc: 93 0a 05 00  	addi	s5, a0, 0x0
   12cc0: 13 05 04 00  	addi	a0, s0, 0x0
   12cc4: 93 85 04 00  	addi	a1, s1, 0x0
   12cc8: ef 00 80 0e  	jal	ra, 0x12db0 <read_pbm_integer>
   12ccc: 93 06 05 00  	addi	a3, a0, 0x0
   12cd0: 13 05 04 00  	addi	a0, s0, 0x0
   12cd4: 93 05 0a 00  	addi	a1, s4, 0x0
   12cd8: 13 86 0a 00  	addi	a2, s5, 0x0
   12cdc: ef 00 80 01  	jal	ra, 0x12cf4 <add_map_entry>
   12ce0: 9b 8b fb ff  	addiw	s7, s7, -0x1
   12ce4: e3 9e 0b fa  	bne	s7, zero, 0x12ca0 <read_color_map+0x324>
   12ce8: 1b 0b 1b 00  	addiw	s6, s6, 0x1
   12cec: e3 16 3b fb  	bne	s6, s3, 0x12c98 <read_color_map+0x31c>
   12cf0: 6f f0 9f e0  	jal	zero, 0x12af8 <read_color_map+0x17c>

0000000000012cf4 <add_map_entry>:
   12cf4: ef 12 c2 19  	jal	t0, 0x33e90 <__riscv_save_9>
   12cf8: 13 04 05 00  	addi	s0, a0, 0x0
   12cfc: 03 35 85 09  	ld	a0, 0x98(a0)
   12d00: 03 3b 05 00  	ld	s6, 0x0(a0)
   12d04: 03 3a 85 00  	ld	s4, 0x8(a0)
   12d08: 83 2a 44 09  	lw	s5, 0x94(s0)
   12d0c: 83 3b 05 01  	ld	s7, 0x10(a0)
   12d10: 93 84 06 00  	addi	s1, a3, 0x0
   12d14: 13 09 06 00  	addi	s2, a2, 0x0
   12d18: 93 89 05 00  	addi	s3, a1, 0x0
   12d1c: 63 56 50 07  	bge	zero, s5, 0x12d88 <add_map_entry+0x94>
   12d20: 13 85 0a 00  	addi	a0, s5, 0x0
   12d24: 93 05 0b 00  	addi	a1, s6, 0x0
   12d28: 13 06 0a 00  	addi	a2, s4, 0x0
   12d2c: 93 86 0b 00  	addi	a3, s7, 0x0
   12d30: 03 c7 05 00  	lbu	a4, 0x0(a1)
   12d34: 63 1a 37 01  	bne	a4, s3, 0x12d48 <add_map_entry+0x54>
   12d38: 03 47 06 00  	lbu	a4, 0x0(a2)
   12d3c: 63 16 27 01  	bne	a4, s2, 0x12d48 <add_map_entry+0x54>
   12d40: 03 c7 06 00  	lbu	a4, 0x0(a3)
   12d44: 63 04 97 06  	beq	a4, s1, 0x12dac <add_map_entry+0xb8>
   12d48: 93 86 16 00  	addi	a3, a3, 0x1
   12d4c: 13 06 16 00  	addi	a2, a2, 0x1
   12d50: 13 05 f5 ff  	addi	a0, a0, -0x1
   12d54: 93 85 15 00  	addi	a1, a1, 0x1
   12d58: e3 1c 05 fc  	bne	a0, zero, 0x12d30 <add_map_entry+0x3c>
   12d5c: 13 05 00 10  	addi	a0, zero, 0x100
   12d60: 63 c4 aa 02  	blt	s5, a0, 0x12d88 <add_map_entry+0x94>
   12d64: 03 35 04 00  	ld	a0, 0x0(s0)
   12d68: 93 05 10 00  	addi	a1, zero, 0x1
   12d6c: 93 95 85 02  	slli	a1, a1, 0x28
   12d70: 93 85 85 03  	addi	a1, a1, 0x38
   12d74: 23 34 b5 02  	sd	a1, 0x28(a0)
   12d78: 03 35 04 00  	ld	a0, 0x0(s0)
   12d7c: 83 35 05 00  	ld	a1, 0x0(a0)
   12d80: 13 05 04 00  	addi	a0, s0, 0x0
   12d84: e7 80 05 00  	jalr	ra, 0x0(a1)
   12d88: 33 0b 5b 01  	add	s6, s6, s5
   12d8c: 23 00 3b 01  	sb	s3, 0x0(s6)
   12d90: 33 0a 5a 01  	add	s4, s4, s5
   12d94: 23 00 2a 01  	sb	s2, 0x0(s4)
   12d98: b3 8a 5b 01  	add	s5, s7, s5
   12d9c: 23 80 9a 00  	sb	s1, 0x0(s5)
   12da0: 03 25 44 09  	lw	a0, 0x94(s0)
   12da4: 13 05 15 00  	addi	a0, a0, 0x1
   12da8: 23 2a a4 08  	sw	a0, 0x94(s0)
   12dac: 6f 10 62 12  	jal	zero, 0x33ed2 <__riscv_restore_9>

0000000000012db0 <read_pbm_integer>:
   12db0: ef 12 42 0f  	jal	t0, 0x33ea4 <__riscv_save_5>
   12db4: 13 84 05 00  	addi	s0, a1, 0x0
   12db8: 93 04 05 00  	addi	s1, a0, 0x0
   12dbc: 93 09 10 02  	addi	s3, zero, 0x21
   12dc0: 37 05 80 00  	lui	a0, 0x800
   12dc4: 1b 05 35 01  	addiw	a0, a0, 0x13
   12dc8: 13 1a a5 00  	slli	s4, a0, 0xa
   12dcc: 13 05 04 00  	addi	a0, s0, 0x0
   12dd0: ef 00 40 0a  	jal	ra, 0x12e74 <pbm_getc>
   12dd4: 13 09 05 00  	addi	s2, a0, 0x0
   12dd8: 13 05 15 00  	addi	a0, a0, 0x1
   12ddc: 63 e8 a9 02  	bltu	s3, a0, 0x12e0c <read_pbm_integer+0x5c>
   12de0: b3 55 aa 00  	srl	a1, s4, a0
   12de4: 93 f5 15 00  	andi	a1, a1, 0x1
   12de8: e3 92 05 fe  	bne	a1, zero, 0x12dcc <read_pbm_integer+0x1c>
   12dec: 63 10 05 02  	bne	a0, zero, 0x12e0c <read_pbm_integer+0x5c>
   12df0: 03 b5 04 00  	ld	a0, 0x0(s1)
   12df4: 83 35 05 00  	ld	a1, 0x0(a0)
   12df8: 13 06 e0 40  	addi	a2, zero, 0x40e
   12dfc: 23 24 c5 02  	sw	a2, 0x28(a0)
   12e00: 13 85 04 00  	addi	a0, s1, 0x0
   12e04: e7 80 05 00  	jalr	ra, 0x0(a1)
   12e08: 6f 00 00 01  	jal	zero, 0x12e18 <read_pbm_integer+0x68>
   12e0c: 1b 05 69 fc  	addiw	a0, s2, -0x3a
   12e10: 93 05 50 ff  	addi	a1, zero, -0xb
   12e14: 63 ee a5 00  	bltu	a1, a0, 0x12e30 <read_pbm_integer+0x80>
   12e18: 03 b5 04 00  	ld	a0, 0x0(s1)
   12e1c: 83 35 05 00  	ld	a1, 0x0(a0)
   12e20: 13 06 e0 40  	addi	a2, zero, 0x40e
   12e24: 23 24 c5 02  	sw	a2, 0x28(a0)
   12e28: 13 85 04 00  	addi	a0, s1, 0x0
   12e2c: e7 80 05 00  	jalr	ra, 0x0(a1)
   12e30: 9b 04 09 fd  	addiw	s1, s2, -0x30
   12e34: 13 05 04 00  	addi	a0, s0, 0x0
   12e38: ef 00 c0 03  	jal	ra, 0x12e74 <pbm_getc>
   12e3c: 9b 09 05 fd  	addiw	s3, a0, -0x30
   12e40: 13 05 90 00  	addi	a0, zero, 0x9
   12e44: 63 64 35 03  	bltu	a0, s3, 0x12e6c <read_pbm_integer+0xbc>
   12e48: 13 09 a0 00  	addi	s2, zero, 0xa
   12e4c: 93 05 a0 00  	addi	a1, zero, 0xa
   12e50: 13 85 04 00  	addi	a0, s1, 0x0
   12e54: ef 10 02 0a  	jal	ra, 0x33ef4 <__muldi3>
   12e58: bb 84 a9 00  	addw	s1, s3, a0
   12e5c: 13 05 04 00  	addi	a0, s0, 0x0
   12e60: ef 00 40 01  	jal	ra, 0x12e74 <pbm_getc>
   12e64: 9b 09 05 fd  	addiw	s3, a0, -0x30
   12e68: e3 e2 29 ff  	bltu	s3, s2, 0x12e4c <read_pbm_integer+0x9c>
   12e6c: 13 85 04 00  	addi	a0, s1, 0x0
   12e70: 6f 10 e2 06  	jal	zero, 0x33ede <__riscv_restore_5>

0000000000012e74 <pbm_getc>:
   12e74: ef 12 a2 03  	jal	t0, 0x33eae <__riscv_save_3>
   12e78: 13 04 05 00  	addi	s0, a0, 0x0
   12e7c: ef e0 40 12  	jal	ra, 0x20fa0 <getc>
   12e80: 93 05 30 02  	addi	a1, zero, 0x23
   12e84: 63 1e b5 00  	bne	a0, a1, 0x12ea0 <pbm_getc+0x2c>
   12e88: 93 04 a0 00  	addi	s1, zero, 0xa
   12e8c: 13 09 f0 ff  	addi	s2, zero, -0x1
   12e90: 13 05 04 00  	addi	a0, s0, 0x0
   12e94: ef e0 c0 10  	jal	ra, 0x20fa0 <getc>
   12e98: 63 04 95 00  	beq	a0, s1, 0x12ea0 <pbm_getc+0x2c>
   12e9c: e3 1a 25 ff  	bne	a0, s2, 0x12e90 <pbm_getc+0x1c>
   12ea0: 6f 10 42 04  	jal	zero, 0x33ee4 <__riscv_restore_3>

0000000000012ea4 <keymatch>:
   12ea4: 03 47 05 00  	lbu	a4, 0x0(a0)
   12ea8: 63 00 07 06  	beq	a4, zero, 0x12f08 <keymatch+0x64>
   12eac: 93 06 00 00  	addi	a3, zero, 0x0
   12eb0: 13 05 15 00  	addi	a0, a0, 0x1
   12eb4: b7 67 03 00  	lui	a5, 0x36
   12eb8: 93 87 87 6e  	addi	a5, a5, 0x6e8
   12ebc: 03 c8 05 00  	lbu	a6, 0x0(a1)
   12ec0: 63 00 08 04  	beq	a6, zero, 0x12f00 <keymatch+0x5c>
   12ec4: 13 77 f7 0f  	andi	a4, a4, 0xff
   12ec8: b3 88 e7 00  	add	a7, a5, a4
   12ecc: 83 c8 18 00  	lbu	a7, 0x1(a7)
   12ed0: 93 f8 38 00  	andi	a7, a7, 0x3
   12ed4: 93 88 f8 ff  	addi	a7, a7, -0x1
   12ed8: 93 b8 18 00  	sltiu	a7, a7, 0x1
   12edc: 93 98 58 00  	slli	a7, a7, 0x5
   12ee0: 33 07 17 01  	add	a4, a4, a7
   12ee4: 63 1e 07 01  	bne	a4, a6, 0x12f00 <keymatch+0x5c>
   12ee8: 03 47 05 00  	lbu	a4, 0x0(a0)
   12eec: 93 85 15 00  	addi	a1, a1, 0x1
   12ef0: 9b 86 16 00  	addiw	a3, a3, 0x1
   12ef4: 13 05 15 00  	addi	a0, a0, 0x1
   12ef8: e3 12 07 fc  	bne	a4, zero, 0x12ebc <keymatch+0x18>
   12efc: 6f 00 00 01  	jal	zero, 0x12f0c <keymatch+0x68>
   12f00: 13 05 00 00  	addi	a0, zero, 0x0
   12f04: 67 80 00 00  	jalr	zero, 0x0(ra)
   12f08: 93 06 00 00  	addi	a3, zero, 0x0
   12f0c: 33 a5 c6 00  	slt	a0, a3, a2
   12f10: 13 45 15 00  	xori	a0, a0, 0x1
   12f14: 67 80 00 00  	jalr	zero, 0x0(ra)

0000000000012f18 <read_stdin>:
   12f18: 03 b5 01 20  	ld	a0, 0x200(gp)
   12f1c: 03 35 85 00  	ld	a0, 0x8(a0)
   12f20: 67 80 00 00  	jalr	zero, 0x0(ra)

0000000000012f24 <write_stdout>:
   12f24: 03 b5 01 20  	ld	a0, 0x200(gp)
   12f28: 03 35 05 01  	ld	a0, 0x10(a0)
   12f2c: 67 80 00 00  	jalr	zero, 0x0(ra)

0000000000012f30 <jpeg_CreateDecompress>:
   12f30: ef 02 f2 77  	jal	t0, 0x33eae <__riscv_save_3>
   12f34: 93 04 06 00  	addi	s1, a2, 0x0
   12f38: 13 04 05 00  	addi	s0, a0, 0x0
   12f3c: 13 05 d0 03  	addi	a0, zero, 0x3d
   12f40: 23 34 04 00  	sd	zero, 0x8(s0)
   12f44: 63 86 a5 02  	beq	a1, a0, 0x12f70 <jpeg_CreateDecompress+0x40>
   12f48: 03 36 04 00  	ld	a2, 0x0(s0)
   12f4c: 13 15 05 02  	slli	a0, a0, 0x20
   12f50: 13 05 a5 00  	addi	a0, a0, 0xa
   12f54: 23 34 a6 02  	sd	a0, 0x28(a2)
   12f58: 03 35 04 00  	ld	a0, 0x0(s0)
   12f5c: 23 28 b5 02  	sw	a1, 0x30(a0)
   12f60: 03 35 04 00  	ld	a0, 0x0(s0)
   12f64: 83 35 05 00  	ld	a1, 0x0(a0)
   12f68: 13 05 04 00  	addi	a0, s0, 0x0
   12f6c: e7 80 05 00  	jalr	ra, 0x0(a1)
   12f70: 13 05 80 26  	addi	a0, zero, 0x268
   12f74: 63 88 a4 02  	beq	s1, a0, 0x12fa4 <jpeg_CreateDecompress+0x74>
   12f78: 03 35 04 00  	ld	a0, 0x0(s0)
   12f7c: 93 05 d0 04  	addi	a1, zero, 0x4d
   12f80: 93 95 35 02  	slli	a1, a1, 0x23
   12f84: 93 85 35 01  	addi	a1, a1, 0x13
   12f88: 23 34 b5 02  	sd	a1, 0x28(a0)
   12f8c: 03 35 04 00  	ld	a0, 0x0(s0)
   12f90: 23 28 95 02  	sw	s1, 0x30(a0)
   12f94: 03 35 04 00  	ld	a0, 0x0(s0)
   12f98: 83 35 05 00  	ld	a1, 0x0(a0)
   12f9c: 13 05 04 00  	addi	a0, s0, 0x0
   12fa0: e7 80 05 00  	jalr	ra, 0x0(a1)
   12fa4: 83 34 04 00  	ld	s1, 0x0(s0)
   12fa8: 13 05 84 00  	addi	a0, s0, 0x8
   12fac: 13 06 00 26  	addi	a2, zero, 0x260
   12fb0: 93 05 00 00  	addi	a1, zero, 0x0
   12fb4: ef e0 d0 54  	jal	ra, 0x21d00 <memset>
   12fb8: 23 30 94 00  	sd	s1, 0x0(s0)
   12fbc: 13 05 10 00  	addi	a0, zero, 0x1
   12fc0: 23 2c a4 00  	sw	a0, 0x18(s0)
   12fc4: 13 05 04 00  	addi	a0, s0, 0x0
   12fc8: ef b0 10 67  	jal	ra, 0x1ee38 <jinit_memory_mgr>
   12fcc: 23 38 04 00  	sd	zero, 0x10(s0)
   12fd0: 23 30 04 02  	sd	zero, 0x20(s0)
   12fd4: 13 05 04 0c  	addi	a0, s0, 0xc0
   12fd8: 13 06 00 06  	addi	a2, zero, 0x60
   12fdc: 93 05 00 00  	addi	a1, zero, 0x0
   12fe0: ef e0 10 52  	jal	ra, 0x21d00 <memset>
   12fe4: 13 05 04 00  	addi	a0, s0, 0x0
   12fe8: ef 10 10 4f  	jal	ra, 0x14cd8 <jinit_marker_reader>
   12fec: 13 05 04 00  	addi	a0, s0, 0x0
   12ff0: ef 10 c0 3f  	jal	ra, 0x143ec <jinit_input_controller>
   12ff4: 13 05 80 0c  	addi	a0, zero, 0xc8
   12ff8: 23 2e a4 00  	sw	a0, 0x1c(s0)
   12ffc: 6f 00 92 6e  	jal	zero, 0x33ee4 <__riscv_restore_3>

0000000000013000 <jpeg_destroy_decompress>:
   13000: 6f b0 d0 30  	jal	zero, 0x1eb0c <jpeg_destroy>

0000000000013004 <jpeg_abort_decompress>:
   13004: 6f b0 50 2d  	jal	zero, 0x1ead8 <jpeg_abort>

0000000000013008 <jpeg_set_marker_processor>:
   13008: 93 06 e0 0f  	addi	a3, zero, 0xfe
   1300c: 63 98 d5 00  	bne	a1, a3, 0x1301c <jpeg_set_marker_processor+0x14>
   13010: 03 35 85 23  	ld	a0, 0x238(a0)
   13014: 23 3c c5 00  	sd	a2, 0x18(a0)
   13018: 67 80 00 00  	jalr	zero, 0x0(ra)
   1301c: 93 f6 05 ff  	andi	a3, a1, -0x10
   13020: 13 07 00 0e  	addi	a4, zero, 0xe0
   13024: 63 9c e6 00  	bne	a3, a4, 0x1303c <jpeg_set_marker_processor+0x34>
   13028: 03 35 85 23  	ld	a0, 0x238(a0)
   1302c: 93 95 35 00  	slli	a1, a1, 0x3
   13030: 33 85 a5 00  	add	a0, a1, a0
   13034: 23 30 c5 92  	sd	a2, -0x6e0(a0)
   13038: 67 80 00 00  	jalr	zero, 0x0(ra)
   1303c: 03 36 05 00  	ld	a2, 0x0(a0)
   13040: 23 26 b6 02  	sw	a1, 0x2c(a2)
   13044: 83 35 05 00  	ld	a1, 0x0(a0)
   13048: 03 b3 05 00  	ld	t1, 0x0(a1)
   1304c: 93 05 30 04  	addi	a1, zero, 0x43
   13050: 23 24 b6 02  	sw	a1, 0x28(a2)
   13054: 67 00 03 00  	jalr	zero, 0x0(t1)

0000000000013058 <jpeg_read_header>:
   13058: ef 02 72 65  	jal	t0, 0x33eae <__riscv_save_3>
   1305c: 13 04 05 00  	addi	s0, a0, 0x0
   13060: 03 25 c5 01  	lw	a0, 0x1c(a0)
   13064: 13 76 e5 ff  	andi	a2, a0, -0x2
   13068: 93 06 80 0c  	addi	a3, zero, 0xc8
   1306c: 93 84 05 00  	addi	s1, a1, 0x0
   13070: 63 02 d6 02  	beq	a2, a3, 0x13094 <jpeg_read_header+0x3c>
   13074: 83 35 04 00  	ld	a1, 0x0(s0)
   13078: 23 a6 a5 02  	sw	a0, 0x2c(a1)
   1307c: 03 35 04 00  	ld	a0, 0x0(s0)
   13080: 03 36 05 00  	ld	a2, 0x0(a0)
   13084: 13 05 20 01  	addi	a0, zero, 0x12
   13088: 23 a4 a5 02  	sw	a0, 0x28(a1)
   1308c: 13 05 04 00  	addi	a0, s0, 0x0
   13090: e7 00 06 00  	jalr	ra, 0x0(a2)
   13094: 13 05 04 00  	addi	a0, s0, 0x0
   13098: ef 00 c0 03  	jal	ra, 0x130d4 <jpeg_consume_input>
   1309c: 93 05 20 00  	addi	a1, zero, 0x2
   130a0: 13 09 05 00  	addi	s2, a0, 0x0
   130a4: 63 14 b5 02  	bne	a0, a1, 0x130cc <jpeg_read_header+0x74>
   130a8: 63 8e 04 00  	beq	s1, zero, 0x130c4 <jpeg_read_header+0x6c>
   130ac: 03 35 04 00  	ld	a0, 0x0(s0)
   130b0: 83 35 05 00  	ld	a1, 0x0(a0)
   130b4: 13 06 20 03  	addi	a2, zero, 0x32
   130b8: 23 24 c5 02  	sw	a2, 0x28(a0)
   130bc: 13 05 04 00  	addi	a0, s0, 0x0
   130c0: e7 80 05 00  	jalr	ra, 0x0(a1)
   130c4: 13 05 04 00  	addi	a0, s0, 0x0
   130c8: ef b0 10 21  	jal	ra, 0x1ead8 <jpeg_abort>
   130cc: 13 05 09 00  	addi	a0, s2, 0x0
   130d0: 6f 00 52 61  	jal	zero, 0x33ee4 <__riscv_restore_3>

00000000000130d4 <jpeg_consume_input>:
   130d4: 13 01 01 fe  	addi	sp, sp, -0x20
   130d8: 23 3c 11 00  	sd	ra, 0x18(sp)
   130dc: 23 38 81 00  	sd	s0, 0x10(sp)
   130e0: 23 34 91 00  	sd	s1, 0x8(sp)
   130e4: 23 30 21 01  	sd	s2, 0x0(sp)
   130e8: 13 04 05 00  	addi	s0, a0, 0x0
   130ec: 83 25 c5 01  	lw	a1, 0x1c(a0)
   130f0: 13 85 85 f3  	addi	a0, a1, -0xc8
   130f4: 13 06 a0 00  	addi	a2, zero, 0xa
   130f8: 63 62 a6 0e  	bltu	a2, a0, 0x131dc <jpeg_consume_input+0x108>
   130fc: 13 15 25 00  	slli	a0, a0, 0x2
   13100: 37 66 03 00  	lui	a2, 0x36
   13104: 13 06 86 d9  	addi	a2, a2, -0x268
   13108: 33 05 c5 00  	add	a0, a0, a2
   1310c: 03 26 05 00  	lw	a2, 0x0(a0)
   13110: 13 05 10 00  	addi	a0, zero, 0x1
   13114: 67 00 06 00  	jalr	zero, 0x0(a2)
   13118: 03 35 04 23  	ld	a0, 0x230(s0)
   1311c: 03 33 05 00  	ld	t1, 0x0(a0)
   13120: 13 05 04 00  	addi	a0, s0, 0x0
   13124: 83 30 81 01  	ld	ra, 0x18(sp)
   13128: 03 34 01 01  	ld	s0, 0x10(sp)
   1312c: 83 34 81 00  	ld	s1, 0x8(sp)
   13130: 03 39 01 00  	ld	s2, 0x0(sp)
   13134: 13 01 01 02  	addi	sp, sp, 0x20
   13138: 67 00 03 00  	jalr	zero, 0x0(t1)
   1313c: 03 35 04 23  	ld	a0, 0x230(s0)
   13140: 83 35 85 00  	ld	a1, 0x8(a0)
   13144: 13 05 04 00  	addi	a0, s0, 0x0
   13148: e7 80 05 00  	jalr	ra, 0x0(a1)
   1314c: 03 35 04 02  	ld	a0, 0x20(s0)
   13150: 83 35 05 01  	ld	a1, 0x10(a0)
   13154: 13 05 04 00  	addi	a0, s0, 0x0
   13158: e7 80 05 00  	jalr	ra, 0x0(a1)
   1315c: 13 05 90 0c  	addi	a0, zero, 0xc9
   13160: 23 2e a4 00  	sw	a0, 0x1c(s0)
   13164: 03 35 04 23  	ld	a0, 0x230(s0)
   13168: 83 35 05 00  	ld	a1, 0x0(a0)
   1316c: 13 05 04 00  	addi	a0, s0, 0x0
   13170: e7 80 05 00  	jalr	ra, 0x0(a1)
   13174: 93 05 10 00  	addi	a1, zero, 0x1
   13178: 63 1e b5 12  	bne	a0, a1, 0x132b4 <jpeg_consume_input+0x1e0>
   1317c: 03 25 04 03  	lw	a0, 0x30(s0)
   13180: 63 04 b5 0c  	beq	a0, a1, 0x13248 <jpeg_consume_input+0x174>
   13184: 93 04 40 00  	addi	s1, zero, 0x4
   13188: 63 0e 95 06  	beq	a0, s1, 0x13204 <jpeg_consume_input+0x130>
   1318c: 13 09 30 00  	addi	s2, zero, 0x3
   13190: 63 12 25 0d  	bne	a0, s2, 0x13254 <jpeg_consume_input+0x180>
   13194: 03 25 c4 16  	lw	a0, 0x16c(s0)
   13198: 93 04 20 00  	addi	s1, zero, 0x2
   1319c: 63 14 05 0c  	bne	a0, zero, 0x13264 <jpeg_consume_input+0x190>
   131a0: 03 25 84 17  	lw	a0, 0x178(s0)
   131a4: 63 04 05 12  	beq	a0, zero, 0x132cc <jpeg_consume_input+0x1f8>
   131a8: 03 45 c4 17  	lbu	a0, 0x17c(s0)
   131ac: 93 04 20 00  	addi	s1, zero, 0x2
   131b0: 63 00 05 16  	beq	a0, zero, 0x13310 <jpeg_consume_input+0x23c>
   131b4: 93 05 10 00  	addi	a1, zero, 0x1
   131b8: 63 06 b5 0a  	beq	a0, a1, 0x13264 <jpeg_consume_input+0x190>
   131bc: 83 35 04 00  	ld	a1, 0x0(s0)
   131c0: 23 a6 a5 02  	sw	a0, 0x2c(a1)
   131c4: 03 35 04 00  	ld	a0, 0x0(s0)
   131c8: 03 36 85 00  	ld	a2, 0x8(a0)
   131cc: 13 05 e0 06  	addi	a0, zero, 0x6e
   131d0: 23 a4 a5 02  	sw	a0, 0x28(a1)
   131d4: 93 05 f0 ff  	addi	a1, zero, -0x1
   131d8: 6f 00 00 16  	jal	zero, 0x13338 <jpeg_consume_input+0x264>
   131dc: 03 35 04 00  	ld	a0, 0x0(s0)
   131e0: 23 26 b5 02  	sw	a1, 0x2c(a0)
   131e4: 83 35 04 00  	ld	a1, 0x0(s0)
   131e8: 83 b5 05 00  	ld	a1, 0x0(a1)
   131ec: 13 06 20 01  	addi	a2, zero, 0x12
   131f0: 23 24 c5 02  	sw	a2, 0x28(a0)
   131f4: 13 05 04 00  	addi	a0, s0, 0x0
   131f8: e7 80 05 00  	jalr	ra, 0x0(a1)
   131fc: 13 05 00 00  	addi	a0, zero, 0x0
   13200: 6f 00 40 0b  	jal	zero, 0x132b4 <jpeg_consume_input+0x1e0>
   13204: 03 25 84 17  	lw	a0, 0x178(s0)
   13208: 63 0c 05 04  	beq	a0, zero, 0x13260 <jpeg_consume_input+0x18c>
   1320c: 03 45 c4 17  	lbu	a0, 0x17c(s0)
   13210: 63 08 05 04  	beq	a0, zero, 0x13260 <jpeg_consume_input+0x18c>
   13214: 93 05 20 00  	addi	a1, zero, 0x2
   13218: 63 04 b5 02  	beq	a0, a1, 0x13240 <jpeg_consume_input+0x16c>
   1321c: 83 35 04 00  	ld	a1, 0x0(s0)
   13220: 23 a6 a5 02  	sw	a0, 0x2c(a1)
   13224: 03 35 04 00  	ld	a0, 0x0(s0)
   13228: 03 36 85 00  	ld	a2, 0x8(a0)
   1322c: 13 05 e0 06  	addi	a0, zero, 0x6e
   13230: 23 a4 a5 02  	sw	a0, 0x28(a1)
   13234: 93 05 f0 ff  	addi	a1, zero, -0x1
   13238: 13 05 04 00  	addi	a0, s0, 0x0
   1323c: e7 00 06 00  	jalr	ra, 0x0(a2)
   13240: 13 09 50 00  	addi	s2, zero, 0x5
   13244: 6f 00 00 02  	jal	zero, 0x13264 <jpeg_consume_input+0x190>
   13248: 13 09 05 00  	addi	s2, a0, 0x0
   1324c: 93 04 05 00  	addi	s1, a0, 0x0
   13250: 6f 00 40 01  	jal	zero, 0x13264 <jpeg_consume_input+0x190>
   13254: 13 09 00 00  	addi	s2, zero, 0x0
   13258: 93 04 00 00  	addi	s1, zero, 0x0
   1325c: 6f 00 80 00  	jal	zero, 0x13264 <jpeg_consume_input+0x190>
   13260: 13 09 40 00  	addi	s2, zero, 0x4
   13264: 23 2a 24 03  	sw	s2, 0x34(s0)
   13268: 23 2c 94 02  	sw	s1, 0x38(s0)
   1326c: 13 05 10 00  	addi	a0, zero, 0x1
   13270: 23 2e a4 02  	sw	a0, 0x3c(s0)
   13274: 23 20 a4 04  	sw	a0, 0x40(s0)
   13278: 93 05 f0 3f  	addi	a1, zero, 0x3ff
   1327c: 93 95 45 03  	slli	a1, a1, 0x34
   13280: 23 34 b4 04  	sd	a1, 0x48(s0)
   13284: 23 38 04 04  	sd	zero, 0x50(s0)
   13288: 93 15 05 02  	slli	a1, a0, 0x20
   1328c: 23 3c b4 04  	sd	a1, 0x58(s0)
   13290: 23 30 a4 06  	sd	a0, 0x60(s0)
   13294: 93 85 25 00  	addi	a1, a1, 0x2
   13298: 23 34 b4 06  	sd	a1, 0x68(s0)
   1329c: 93 05 00 10  	addi	a1, zero, 0x100
   132a0: 23 38 b4 06  	sd	a1, 0x70(s0)
   132a4: 23 3c 04 08  	sd	zero, 0x98(s0)
   132a8: 23 3c 04 06  	sd	zero, 0x78(s0)
   132ac: 93 05 a0 0c  	addi	a1, zero, 0xca
   132b0: 23 2e b4 00  	sw	a1, 0x1c(s0)
   132b4: 83 30 81 01  	ld	ra, 0x18(sp)
   132b8: 03 34 01 01  	ld	s0, 0x10(sp)
   132bc: 83 34 81 00  	ld	s1, 0x8(sp)
   132c0: 03 39 01 00  	ld	s2, 0x0(sp)
   132c4: 13 01 01 02  	addi	sp, sp, 0x20
   132c8: 67 80 00 00  	jalr	zero, 0x0(ra)
   132cc: 03 35 84 12  	ld	a0, 0x128(s0)
   132d0: 83 25 05 00  	lw	a1, 0x0(a0)
   132d4: 03 26 05 06  	lw	a2, 0x60(a0)
   132d8: 03 25 05 0c  	lw	a0, 0xc0(a0)
   132dc: 93 06 10 00  	addi	a3, zero, 0x1
   132e0: 63 9a d5 00  	bne	a1, a3, 0x132f4 <jpeg_consume_input+0x220>
   132e4: 93 06 20 00  	addi	a3, zero, 0x2
   132e8: 63 16 d6 00  	bne	a2, a3, 0x132f4 <jpeg_consume_input+0x220>
   132ec: 93 06 30 00  	addi	a3, zero, 0x3
   132f0: e3 0a d5 f6  	beq	a0, a3, 0x13264 <jpeg_consume_input+0x190>
   132f4: 93 06 20 05  	addi	a3, zero, 0x52
   132f8: 93 04 20 00  	addi	s1, zero, 0x2
   132fc: 63 9e d5 00  	bne	a1, a3, 0x13318 <jpeg_consume_input+0x244>
   13300: 93 06 70 04  	addi	a3, zero, 0x47
   13304: 63 1a d6 00  	bne	a2, a3, 0x13318 <jpeg_consume_input+0x244>
   13308: 93 06 20 04  	addi	a3, zero, 0x42
   1330c: 63 16 d5 00  	bne	a0, a3, 0x13318 <jpeg_consume_input+0x244>
   13310: 13 09 20 00  	addi	s2, zero, 0x2
   13314: 6f f0 1f f5  	jal	zero, 0x13264 <jpeg_consume_input+0x190>
   13318: 83 36 04 00  	ld	a3, 0x0(s0)
   1331c: 23 a6 b6 02  	sw	a1, 0x2c(a3)
   13320: 23 a8 c6 02  	sw	a2, 0x30(a3)
   13324: 03 b6 86 00  	ld	a2, 0x8(a3)
   13328: 23 aa a6 02  	sw	a0, 0x34(a3)
   1332c: 13 05 b0 06  	addi	a0, zero, 0x6b
   13330: 23 a4 a6 02  	sw	a0, 0x28(a3)
   13334: 93 05 10 00  	addi	a1, zero, 0x1
   13338: 13 05 04 00  	addi	a0, s0, 0x0
   1333c: e7 00 06 00  	jalr	ra, 0x0(a2)
   13340: 6f f0 5f f2  	jal	zero, 0x13264 <jpeg_consume_input+0x190>

0000000000013344 <jpeg_input_complete>:
   13344: ef 02 d2 37  	jal	t0, 0x33ec0 <__riscv_save_1>
   13348: 13 04 05 00  	addi	s0, a0, 0x0
   1334c: 03 25 c5 01  	lw	a0, 0x1c(a0)
   13350: 9b 05 d5 f2  	addiw	a1, a0, -0xd3
   13354: 13 06 40 ff  	addi	a2, zero, -0xc
   13358: 63 62 b6 02  	bltu	a2, a1, 0x1337c <jpeg_input_complete+0x38>
   1335c: 83 35 04 00  	ld	a1, 0x0(s0)
   13360: 23 a6 a5 02  	sw	a0, 0x2c(a1)
   13364: 03 35 04 00  	ld	a0, 0x0(s0)
   13368: 03 36 05 00  	ld	a2, 0x0(a0)
   1336c: 13 05 20 01  	addi	a0, zero, 0x12
   13370: 23 a4 a5 02  	sw	a0, 0x28(a1)
   13374: 13 05 04 00  	addi	a0, s0, 0x0
   13378: e7 00 06 00  	jalr	ra, 0x0(a2)
   1337c: 03 35 04 23  	ld	a0, 0x230(s0)
   13380: 03 25 45 02  	lw	a0, 0x24(a0)
   13384: 6f 00 72 36  	jal	zero, 0x33eea <__riscv_restore_1>

0000000000013388 <jpeg_has_multiple_scans>:
   13388: ef 02 92 33  	jal	t0, 0x33ec0 <__riscv_save_1>
   1338c: 13 04 05 00  	addi	s0, a0, 0x0
   13390: 03 25 c5 01  	lw	a0, 0x1c(a0)
   13394: 9b 05 d5 f2  	addiw	a1, a0, -0xd3
   13398: 13 06 60 ff  	addi	a2, zero, -0xa
   1339c: 63 62 b6 02  	bltu	a2, a1, 0x133c0 <jpeg_has_multiple_scans+0x38>
   133a0: 83 35 04 00  	ld	a1, 0x0(s0)
   133a4: 23 a6 a5 02  	sw	a0, 0x2c(a1)
   133a8: 03 35 04 00  	ld	a0, 0x0(s0)
   133ac: 03 36 05 00  	ld	a2, 0x0(a0)
   133b0: 13 05 20 01  	addi	a0, zero, 0x12
   133b4: 23 a4 a5 02  	sw	a0, 0x28(a1)
   133b8: 13 05 04 00  	addi	a0, s0, 0x0
   133bc: e7 00 06 00  	jalr	ra, 0x0(a2)
   133c0: 03 35 04 23  	ld	a0, 0x230(s0)
   133c4: 03 25 05 02  	lw	a0, 0x20(a0)
   133c8: 6f 00 32 32  	jal	zero, 0x33eea <__riscv_restore_1>

00000000000133cc <jpeg_finish_decompress>:
   133cc: ef 02 52 2f  	jal	t0, 0x33ec0 <__riscv_save_1>
   133d0: 13 04 05 00  	addi	s0, a0, 0x0
   133d4: 03 25 c5 01  	lw	a0, 0x1c(a0)
   133d8: 9b 05 35 f3  	addiw	a1, a0, -0xcd
   133dc: 13 06 10 00  	addi	a2, zero, 0x1
   133e0: 63 66 b6 00  	bltu	a2, a1, 0x133ec <jpeg_finish_decompress+0x20>
   133e4: 83 25 04 05  	lw	a1, 0x50(s0)
   133e8: 63 8c 05 02  	beq	a1, zero, 0x13420 <jpeg_finish_decompress+0x54>
   133ec: 93 05 20 0d  	addi	a1, zero, 0xd2
   133f0: 63 06 b5 06  	beq	a0, a1, 0x1345c <jpeg_finish_decompress+0x90>
   133f4: 93 05 f0 0c  	addi	a1, zero, 0xcf
   133f8: 63 0e b5 04  	beq	a0, a1, 0x13454 <jpeg_finish_decompress+0x88>
   133fc: 83 35 04 00  	ld	a1, 0x0(s0)
   13400: 23 a6 a5 02  	sw	a0, 0x2c(a1)
   13404: 03 35 04 00  	ld	a0, 0x0(s0)
   13408: 03 36 05 00  	ld	a2, 0x0(a0)
   1340c: 13 05 20 01  	addi	a0, zero, 0x12
   13410: 23 a4 a5 02  	sw	a0, 0x28(a1)
   13414: 13 05 04 00  	addi	a0, s0, 0x0
   13418: e7 00 06 00  	jalr	ra, 0x0(a2)
   1341c: 6f 00 00 04  	jal	zero, 0x1345c <jpeg_finish_decompress+0x90>
   13420: 03 25 04 0a  	lw	a0, 0xa0(s0)
   13424: 83 25 44 08  	lw	a1, 0x84(s0)
   13428: 63 7e b5 00  	bgeu	a0, a1, 0x13444 <jpeg_finish_decompress+0x78>
   1342c: 03 35 04 00  	ld	a0, 0x0(s0)
   13430: 83 35 05 00  	ld	a1, 0x0(a0)
   13434: 13 06 20 04  	addi	a2, zero, 0x42
   13438: 23 24 c5 02  	sw	a2, 0x28(a0)
   1343c: 13 05 04 00  	addi	a0, s0, 0x0
   13440: e7 80 05 00  	jalr	ra, 0x0(a1)
   13444: 03 35 04 21  	ld	a0, 0x210(s0)
   13448: 83 35 85 00  	ld	a1, 0x8(a0)
   1344c: 13 05 04 00  	addi	a0, s0, 0x0
   13450: e7 80 05 00  	jalr	ra, 0x0(a1)
   13454: 13 05 20 0d  	addi	a0, zero, 0xd2
   13458: 23 2e a4 00  	sw	a0, 0x1c(s0)
   1345c: 03 35 04 23  	ld	a0, 0x230(s0)
   13460: 83 25 45 02  	lw	a1, 0x24(a0)
   13464: 63 9c 05 00  	bne	a1, zero, 0x1347c <jpeg_finish_decompress+0xb0>
   13468: 83 35 05 00  	ld	a1, 0x0(a0)
   1346c: 13 05 04 00  	addi	a0, s0, 0x0
   13470: e7 80 05 00  	jalr	ra, 0x0(a1)
   13474: e3 14 05 fe  	bne	a0, zero, 0x1345c <jpeg_finish_decompress+0x90>
   13478: 6f 00 32 27  	jal	zero, 0x33eea <__riscv_restore_1>
   1347c: 03 35 04 02  	ld	a0, 0x20(s0)
   13480: 83 35 05 03  	ld	a1, 0x30(a0)
   13484: 13 05 04 00  	addi	a0, s0, 0x0
   13488: e7 80 05 00  	jalr	ra, 0x0(a1)
   1348c: 13 05 04 00  	addi	a0, s0, 0x0
   13490: ef b0 80 64  	jal	ra, 0x1ead8 <jpeg_abort>
   13494: 13 05 10 00  	addi	a0, zero, 0x1
   13498: 6f 00 32 25  	jal	zero, 0x33eea <__riscv_restore_1>

000000000001349c <jpeg_start_decompress>:
   1349c: 13 01 01 fe  	addi	sp, sp, -0x20
   134a0: 23 3c 11 00  	sd	ra, 0x18(sp)
   134a4: 23 38 81 00  	sd	s0, 0x10(sp)
   134a8: 23 34 91 00  	sd	s1, 0x8(sp)
   134ac: 23 30 21 01  	sd	s2, 0x0(sp)
   134b0: 13 04 05 00  	addi	s0, a0, 0x0
   134b4: 03 25 c5 01  	lw	a0, 0x1c(a0)
   134b8: 93 05 c0 0c  	addi	a1, zero, 0xcc
   134bc: 63 08 b5 0e  	beq	a0, a1, 0x135ac <jpeg_start_decompress+0x110>
   134c0: 93 05 b0 0c  	addi	a1, zero, 0xcb
   134c4: 63 06 b5 06  	beq	a0, a1, 0x13530 <jpeg_start_decompress+0x94>
   134c8: 93 05 a0 0c  	addi	a1, zero, 0xca
   134cc: 63 1c b5 02  	bne	a0, a1, 0x13504 <jpeg_start_decompress+0x68>
   134d0: 13 05 04 00  	addi	a0, s0, 0x0
   134d4: ef 00 d0 22  	jal	ra, 0x13f00 <jinit_master_decompress>
   134d8: 03 25 04 05  	lw	a0, 0x50(s0)
   134dc: 63 06 05 04  	beq	a0, zero, 0x13528 <jpeg_start_decompress+0x8c>
   134e0: 13 05 f0 0c  	addi	a0, zero, 0xcf
   134e4: 23 2e a4 00  	sw	a0, 0x1c(s0)
   134e8: 13 05 10 00  	addi	a0, zero, 0x1
   134ec: 83 30 81 01  	ld	ra, 0x18(sp)
   134f0: 03 34 01 01  	ld	s0, 0x10(sp)
   134f4: 83 34 81 00  	ld	s1, 0x8(sp)
   134f8: 03 39 01 00  	ld	s2, 0x0(sp)
   134fc: 13 01 01 02  	addi	sp, sp, 0x20
   13500: 67 80 00 00  	jalr	zero, 0x0(ra)
   13504: 83 35 04 00  	ld	a1, 0x0(s0)
   13508: 23 a6 a5 02  	sw	a0, 0x2c(a1)
   1350c: 03 35 04 00  	ld	a0, 0x0(s0)
   13510: 03 36 05 00  	ld	a2, 0x0(a0)
   13514: 13 05 20 01  	addi	a0, zero, 0x12
   13518: 23 a4 a5 02  	sw	a0, 0x28(a1)
   1351c: 13 05 04 00  	addi	a0, s0, 0x0
   13520: e7 00 06 00  	jalr	ra, 0x0(a2)
   13524: 6f 00 80 08  	jal	zero, 0x135ac <jpeg_start_decompress+0x110>
   13528: 13 05 b0 0c  	addi	a0, zero, 0xcb
   1352c: 23 2e a4 00  	sw	a0, 0x1c(s0)
   13530: 03 35 04 23  	ld	a0, 0x230(s0)
   13534: 03 25 05 02  	lw	a0, 0x20(a0)
   13538: 63 06 05 06  	beq	a0, zero, 0x135a4 <jpeg_start_decompress+0x108>
   1353c: 83 35 04 01  	ld	a1, 0x10(s0)
   13540: 93 04 20 00  	addi	s1, zero, 0x2
   13544: 13 09 10 00  	addi	s2, zero, 0x1
   13548: 63 88 05 00  	beq	a1, zero, 0x13558 <jpeg_start_decompress+0xbc>
   1354c: 83 b5 05 00  	ld	a1, 0x0(a1)
   13550: 13 05 04 00  	addi	a0, s0, 0x0
   13554: e7 80 05 00  	jalr	ra, 0x0(a1)
   13558: 03 35 04 23  	ld	a0, 0x230(s0)
   1355c: 83 35 05 00  	ld	a1, 0x0(a0)
   13560: 13 05 04 00  	addi	a0, s0, 0x0
   13564: e7 80 05 00  	jalr	ra, 0x0(a1)
   13568: e3 02 05 f8  	beq	a0, zero, 0x134ec <jpeg_start_decompress+0x50>
   1356c: 63 0c 95 02  	beq	a0, s1, 0x135a4 <jpeg_start_decompress+0x108>
   13570: 83 35 04 01  	ld	a1, 0x10(s0)
   13574: 13 75 d5 ff  	andi	a0, a0, -0x3
   13578: e3 18 25 fd  	bne	a0, s2, 0x13548 <jpeg_start_decompress+0xac>
   1357c: e3 86 05 fc  	beq	a1, zero, 0x13548 <jpeg_start_decompress+0xac>
   13580: 03 b6 85 00  	ld	a2, 0x8(a1)
   13584: 03 b5 05 01  	ld	a0, 0x10(a1)
   13588: 13 06 16 00  	addi	a2, a2, 0x1
   1358c: 23 b4 c5 00  	sd	a2, 0x8(a1)
   13590: e3 4c a6 fa  	blt	a2, a0, 0x13548 <jpeg_start_decompress+0xac>
   13594: 03 66 04 19  	lwu	a2, 0x190(s0)
   13598: 33 05 c5 00  	add	a0, a0, a2
   1359c: 23 b8 a5 00  	sd	a0, 0x10(a1)
   135a0: 6f f0 9f fa  	jal	zero, 0x13548 <jpeg_start_decompress+0xac>
   135a4: 03 25 44 0a  	lw	a0, 0xa4(s0)
   135a8: 23 26 a4 0a  	sw	a0, 0xac(s0)
   135ac: 13 05 04 00  	addi	a0, s0, 0x0
   135b0: 83 30 81 01  	ld	ra, 0x18(sp)
   135b4: 03 34 01 01  	ld	s0, 0x10(sp)
   135b8: 83 34 81 00  	ld	s1, 0x8(sp)
   135bc: 03 39 01 00  	ld	s2, 0x0(sp)
   135c0: 13 01 01 02  	addi	sp, sp, 0x20
   135c4: 6f 00 40 00  	jal	zero, 0x135c8 <output_pass_setup>

00000000000135c8 <output_pass_setup>:
   135c8: ef 02 72 0e  	jal	t0, 0x33eae <__riscv_save_3>
   135cc: 13 04 05 00  	addi	s0, a0, 0x0
   135d0: 03 25 c5 01  	lw	a0, 0x1c(a0)
   135d4: 93 04 c0 0c  	addi	s1, zero, 0xcc
   135d8: 63 0e 95 00  	beq	a0, s1, 0x135f4 <output_pass_setup+0x2c>
   135dc: 03 35 04 21  	ld	a0, 0x210(s0)
   135e0: 83 35 05 00  	ld	a1, 0x0(a0)
   135e4: 13 05 04 00  	addi	a0, s0, 0x0
   135e8: e7 80 05 00  	jalr	ra, 0x0(a1)
   135ec: 23 20 04 0a  	sw	zero, 0xa0(s0)
   135f0: 23 2e 94 00  	sw	s1, 0x1c(s0)
   135f4: 03 35 04 21  	ld	a0, 0x210(s0)
   135f8: 03 25 05 01  	lw	a0, 0x10(a0)
   135fc: 63 02 05 0a  	beq	a0, zero, 0x136a0 <output_pass_setup+0xd8>
   13600: 03 25 04 0a  	lw	a0, 0xa0(s0)
   13604: 93 04 04 0a  	addi	s1, s0, 0xa0
   13608: 83 25 44 08  	lw	a1, 0x84(s0)
   1360c: 63 70 b5 06  	bgeu	a0, a1, 0x1366c <output_pass_setup+0xa4>
   13610: 03 36 04 01  	ld	a2, 0x10(s0)
   13614: 63 06 06 02  	beq	a2, zero, 0x13640 <output_pass_setup+0x78>
   13618: 13 15 05 02  	slli	a0, a0, 0x20
   1361c: 13 55 05 02  	srli	a0, a0, 0x20
   13620: 23 34 a6 00  	sd	a0, 0x8(a2)
   13624: 83 36 06 00  	ld	a3, 0x0(a2)
   13628: 93 95 05 02  	slli	a1, a1, 0x20
   1362c: 93 d5 05 02  	srli	a1, a1, 0x20
   13630: 23 38 b6 00  	sd	a1, 0x10(a2)
   13634: 13 05 04 00  	addi	a0, s0, 0x0
   13638: e7 80 06 00  	jalr	ra, 0x0(a3)
   1363c: 03 25 04 0a  	lw	a0, 0xa0(s0)
   13640: 83 35 84 21  	ld	a1, 0x218(s0)
   13644: 03 b7 85 00  	ld	a4, 0x8(a1)
   13648: 13 09 05 00  	addi	s2, a0, 0x0
   1364c: 13 05 04 00  	addi	a0, s0, 0x0
   13650: 93 05 00 00  	addi	a1, zero, 0x0
   13654: 13 86 04 00  	addi	a2, s1, 0x0
   13658: 93 06 00 00  	addi	a3, zero, 0x0
   1365c: e7 00 07 00  	jalr	ra, 0x0(a4)
   13660: 03 25 04 0a  	lw	a0, 0xa0(s0)
   13664: e3 12 25 fb  	bne	a0, s2, 0x13608 <output_pass_setup+0x40>
   13668: 6f 00 00 05  	jal	zero, 0x136b8 <output_pass_setup+0xf0>
   1366c: 03 35 04 21  	ld	a0, 0x210(s0)
   13670: 83 35 85 00  	ld	a1, 0x8(a0)
   13674: 13 05 04 00  	addi	a0, s0, 0x0
   13678: e7 80 05 00  	jalr	ra, 0x0(a1)
   1367c: 03 35 04 21  	ld	a0, 0x210(s0)
   13680: 83 35 05 00  	ld	a1, 0x0(a0)
   13684: 13 05 04 00  	addi	a0, s0, 0x0
   13688: e7 80 05 00  	jalr	ra, 0x0(a1)
   1368c: 03 35 04 21  	ld	a0, 0x210(s0)
   13690: 83 25 05 01  	lw	a1, 0x10(a0)
   13694: 13 05 00 00  	addi	a0, zero, 0x0
   13698: 23 20 04 0a  	sw	zero, 0xa0(s0)
   1369c: e3 96 05 f6  	bne	a1, zero, 0x13608 <output_pass_setup+0x40>
   136a0: 03 25 44 05  	lw	a0, 0x54(s0)
   136a4: 33 35 a0 00  	sltu	a0, zero, a0
   136a8: 13 05 d5 0c  	addi	a0, a0, 0xcd
   136ac: 23 2e a4 00  	sw	a0, 0x1c(s0)
   136b0: 13 05 10 00  	addi	a0, zero, 0x1
   136b4: 6f 00 12 03  	jal	zero, 0x33ee4 <__riscv_restore_3>
   136b8: 13 05 00 00  	addi	a0, zero, 0x0
   136bc: 6f 00 92 02  	jal	zero, 0x33ee4 <__riscv_restore_3>

00000000000136c0 <jpeg_read_scanlines>:
   136c0: ef 02 e2 7e  	jal	t0, 0x33eae <__riscv_save_3>
   136c4: 13 01 01 ff  	addi	sp, sp, -0x10
   136c8: 13 04 05 00  	addi	s0, a0, 0x0
   136cc: 03 25 c5 01  	lw	a0, 0x1c(a0)
   136d0: 93 06 d0 0c  	addi	a3, zero, 0xcd
   136d4: 93 04 06 00  	addi	s1, a2, 0x0
   136d8: 13 89 05 00  	addi	s2, a1, 0x0
   136dc: 63 02 d5 02  	beq	a0, a3, 0x13700 <jpeg_read_scanlines+0x40>
   136e0: 83 35 04 00  	ld	a1, 0x0(s0)
   136e4: 23 a6 a5 02  	sw	a0, 0x2c(a1)
   136e8: 03 35 04 00  	ld	a0, 0x0(s0)
   136ec: 03 36 05 00  	ld	a2, 0x0(a0)
   136f0: 13 05 20 01  	addi	a0, zero, 0x12
   136f4: 23 a4 a5 02  	sw	a0, 0x28(a1)
   136f8: 13 05 04 00  	addi	a0, s0, 0x0
   136fc: e7 00 06 00  	jalr	ra, 0x0(a2)
   13700: 03 26 04 0a  	lw	a2, 0xa0(s0)
   13704: 03 25 44 08  	lw	a0, 0x84(s0)
   13708: 63 72 a6 06  	bgeu	a2, a0, 0x1376c <jpeg_read_scanlines+0xac>
   1370c: 83 35 04 01  	ld	a1, 0x10(s0)
   13710: 63 84 05 02  	beq	a1, zero, 0x13738 <jpeg_read_scanlines+0x78>
   13714: 13 16 06 02  	slli	a2, a2, 0x20
   13718: 13 56 06 02  	srli	a2, a2, 0x20
   1371c: 23 b4 c5 00  	sd	a2, 0x8(a1)
   13720: 03 b6 05 00  	ld	a2, 0x0(a1)
   13724: 13 15 05 02  	slli	a0, a0, 0x20
   13728: 13 55 05 02  	srli	a0, a0, 0x20
   1372c: 23 b8 a5 00  	sd	a0, 0x10(a1)
   13730: 13 05 04 00  	addi	a0, s0, 0x0
   13734: e7 00 06 00  	jalr	ra, 0x0(a2)
   13738: 03 35 84 21  	ld	a0, 0x218(s0)
   1373c: 03 37 85 00  	ld	a4, 0x8(a0)
   13740: 23 26 01 00  	sw	zero, 0xc(sp)
   13744: 13 06 c1 00  	addi	a2, sp, 0xc
   13748: 13 05 04 00  	addi	a0, s0, 0x0
   1374c: 93 05 09 00  	addi	a1, s2, 0x0
   13750: 93 86 04 00  	addi	a3, s1, 0x0
   13754: e7 00 07 00  	jalr	ra, 0x0(a4)
   13758: 03 25 c1 00  	lw	a0, 0xc(sp)
   1375c: 83 25 04 0a  	lw	a1, 0xa0(s0)
   13760: b3 85 a5 00  	add	a1, a1, a0
   13764: 23 20 b4 0a  	sw	a1, 0xa0(s0)
   13768: 6f 00 40 02  	jal	zero, 0x1378c <jpeg_read_scanlines+0xcc>
   1376c: 03 35 04 00  	ld	a0, 0x0(s0)
   13770: 03 36 85 00  	ld	a2, 0x8(a0)
   13774: 93 05 70 07  	addi	a1, zero, 0x77
   13778: 23 24 b5 02  	sw	a1, 0x28(a0)
   1377c: 93 05 f0 ff  	addi	a1, zero, -0x1
   13780: 13 05 04 00  	addi	a0, s0, 0x0
   13784: e7 00 06 00  	jalr	ra, 0x0(a2)
   13788: 13 05 00 00  	addi	a0, zero, 0x0
   1378c: 13 01 01 01  	addi	sp, sp, 0x10
   13790: 6f 00 42 75  	jal	zero, 0x33ee4 <__riscv_restore_3>

0000000000013794 <jpeg_read_raw_data>:
   13794: ef 02 02 71  	jal	t0, 0x33ea4 <__riscv_save_5>
   13798: 13 04 05 00  	addi	s0, a0, 0x0
   1379c: 03 25 c5 01  	lw	a0, 0x1c(a0)
   137a0: 93 06 e0 0c  	addi	a3, zero, 0xce
   137a4: 13 09 06 00  	addi	s2, a2, 0x0
   137a8: 93 84 05 00  	addi	s1, a1, 0x0
   137ac: 63 02 d5 02  	beq	a0, a3, 0x137d0 <jpeg_read_raw_data+0x3c>
   137b0: 83 35 04 00  	ld	a1, 0x0(s0)
   137b4: 23 a6 a5 02  	sw	a0, 0x2c(a1)
   137b8: 03 35 04 00  	ld	a0, 0x0(s0)
   137bc: 03 36 05 00  	ld	a2, 0x0(a0)
   137c0: 13 05 20 01  	addi	a0, zero, 0x12
   137c4: 23 a4 a5 02  	sw	a0, 0x28(a1)
   137c8: 13 05 04 00  	addi	a0, s0, 0x0
   137cc: e7 00 06 00  	jalr	ra, 0x0(a2)
   137d0: 03 26 04 0a  	lw	a2, 0xa0(s0)
   137d4: 03 25 44 08  	lw	a0, 0x84(s0)
   137d8: 63 74 a6 08  	bgeu	a2, a0, 0x13860 <jpeg_read_raw_data+0xcc>
   137dc: 83 35 04 01  	ld	a1, 0x10(s0)
   137e0: 63 84 05 02  	beq	a1, zero, 0x13808 <jpeg_read_raw_data+0x74>
   137e4: 13 16 06 02  	slli	a2, a2, 0x20
   137e8: 13 56 06 02  	srli	a2, a2, 0x20
   137ec: 23 b4 c5 00  	sd	a2, 0x8(a1)
   137f0: 03 b6 05 00  	ld	a2, 0x0(a1)
   137f4: 13 15 05 02  	slli	a0, a0, 0x20
   137f8: 13 55 05 02  	srli	a0, a0, 0x20
   137fc: 23 b8 a5 00  	sd	a0, 0x10(a1)
   13800: 13 05 04 00  	addi	a0, s0, 0x0
   13804: e7 00 06 00  	jalr	ra, 0x0(a2)
   13808: 83 25 84 18  	lw	a1, 0x188(s0)
   1380c: 03 25 c4 18  	lw	a0, 0x18c(s0)
   13810: ef 00 42 6e  	jal	ra, 0x33ef4 <__muldi3>
   13814: 93 09 05 00  	addi	s3, a0, 0x0
   13818: 1b 05 05 00  	addiw	a0, a0, 0x0
   1381c: 63 7e a9 00  	bgeu	s2, a0, 0x13838 <jpeg_read_raw_data+0xa4>
   13820: 03 35 04 00  	ld	a0, 0x0(s0)
   13824: 83 35 05 00  	ld	a1, 0x0(a0)
   13828: 13 06 50 01  	addi	a2, zero, 0x15
   1382c: 23 24 c5 02  	sw	a2, 0x28(a0)
   13830: 13 05 04 00  	addi	a0, s0, 0x0
   13834: e7 80 05 00  	jalr	ra, 0x0(a1)
   13838: 03 35 04 22  	ld	a0, 0x220(s0)
   1383c: 03 36 85 01  	ld	a2, 0x18(a0)
   13840: 13 05 04 00  	addi	a0, s0, 0x0
   13844: 93 85 04 00  	addi	a1, s1, 0x0
   13848: e7 00 06 00  	jalr	ra, 0x0(a2)
   1384c: 63 08 05 02  	beq	a0, zero, 0x1387c <jpeg_read_raw_data+0xe8>
   13850: 03 25 04 0a  	lw	a0, 0xa0(s0)
   13854: 33 05 35 01  	add	a0, a0, s3
   13858: 23 20 a4 0a  	sw	a0, 0xa0(s0)
   1385c: 6f 00 40 02  	jal	zero, 0x13880 <jpeg_read_raw_data+0xec>
   13860: 03 35 04 00  	ld	a0, 0x0(s0)
   13864: 03 36 85 00  	ld	a2, 0x8(a0)
   13868: 93 05 70 07  	addi	a1, zero, 0x77
   1386c: 23 24 b5 02  	sw	a1, 0x28(a0)
   13870: 93 05 f0 ff  	addi	a1, zero, -0x1
   13874: 13 05 04 00  	addi	a0, s0, 0x0
   13878: e7 00 06 00  	jalr	ra, 0x0(a2)
   1387c: 93 09 00 00  	addi	s3, zero, 0x0
   13880: 1b 85 09 00  	addiw	a0, s3, 0x0
   13884: 6f 00 a2 65  	jal	zero, 0x33ede <__riscv_restore_5>

0000000000013888 <jpeg_start_output>:
   13888: 13 01 01 fe  	addi	sp, sp, -0x20
   1388c: 23 3c 11 00  	sd	ra, 0x18(sp)
   13890: 23 38 81 00  	sd	s0, 0x10(sp)
   13894: 23 34 91 00  	sd	s1, 0x8(sp)
   13898: 13 04 05 00  	addi	s0, a0, 0x0
   1389c: 03 25 c5 01  	lw	a0, 0x1c(a0)
   138a0: 13 06 c0 0c  	addi	a2, zero, 0xcc
   138a4: 93 84 05 00  	addi	s1, a1, 0x0
   138a8: 63 06 c5 02  	beq	a0, a2, 0x138d4 <jpeg_start_output+0x4c>
   138ac: 93 05 f0 0c  	addi	a1, zero, 0xcf
   138b0: 63 02 b5 02  	beq	a0, a1, 0x138d4 <jpeg_start_output+0x4c>
   138b4: 83 35 04 00  	ld	a1, 0x0(s0)
   138b8: 23 a6 a5 02  	sw	a0, 0x2c(a1)
   138bc: 03 35 04 00  	ld	a0, 0x0(s0)
   138c0: 03 36 05 00  	ld	a2, 0x0(a0)
   138c4: 13 05 20 01  	addi	a0, zero, 0x12
   138c8: 23 a4 a5 02  	sw	a0, 0x28(a1)
   138cc: 13 05 04 00  	addi	a0, s0, 0x0
   138d0: e7 00 06 00  	jalr	ra, 0x0(a2)
   138d4: 63 44 90 00  	blt	zero, s1, 0x138dc <jpeg_start_output+0x54>
   138d8: 93 04 10 00  	addi	s1, zero, 0x1
   138dc: 03 35 04 23  	ld	a0, 0x230(s0)
   138e0: 03 25 45 02  	lw	a0, 0x24(a0)
   138e4: 63 08 05 00  	beq	a0, zero, 0x138f4 <jpeg_start_output+0x6c>
   138e8: 03 25 44 0a  	lw	a0, 0xa4(s0)
   138ec: 63 c4 a4 00  	blt	s1, a0, 0x138f4 <jpeg_start_output+0x6c>
   138f0: 93 04 05 00  	addi	s1, a0, 0x0
   138f4: 23 26 94 0a  	sw	s1, 0xac(s0)
   138f8: 13 05 04 00  	addi	a0, s0, 0x0
   138fc: 83 30 81 01  	ld	ra, 0x18(sp)
   13900: 03 34 01 01  	ld	s0, 0x10(sp)
   13904: 83 34 81 00  	ld	s1, 0x8(sp)
   13908: 13 01 01 02  	addi	sp, sp, 0x20
   1390c: 6f f0 df cb  	jal	zero, 0x135c8 <output_pass_setup>

0000000000013910 <jpeg_finish_output>:
   13910: ef 02 02 5b  	jal	t0, 0x33ec0 <__riscv_save_1>
   13914: 13 04 05 00  	addi	s0, a0, 0x0
   13918: 03 25 c5 01  	lw	a0, 0x1c(a0)
   1391c: 9b 05 35 f3  	addiw	a1, a0, -0xcd
   13920: 13 06 10 00  	addi	a2, zero, 0x1
   13924: 63 64 b6 02  	bltu	a2, a1, 0x1394c <jpeg_finish_output+0x3c>
   13928: 83 25 04 05  	lw	a1, 0x50(s0)
   1392c: 63 84 05 02  	beq	a1, zero, 0x13954 <jpeg_finish_output+0x44>
   13930: 03 35 04 21  	ld	a0, 0x210(s0)
   13934: 83 35 85 00  	ld	a1, 0x8(a0)
   13938: 13 05 04 00  	addi	a0, s0, 0x0
   1393c: e7 80 05 00  	jalr	ra, 0x0(a1)
   13940: 13 05 00 0d  	addi	a0, zero, 0xd0
   13944: 23 2e a4 00  	sw	a0, 0x1c(s0)
   13948: 6f 00 c0 02  	jal	zero, 0x13974 <jpeg_finish_output+0x64>
   1394c: 93 05 00 0d  	addi	a1, zero, 0xd0
   13950: 63 02 b5 02  	beq	a0, a1, 0x13974 <jpeg_finish_output+0x64>
   13954: 83 35 04 00  	ld	a1, 0x0(s0)
   13958: 23 a6 a5 02  	sw	a0, 0x2c(a1)
   1395c: 03 35 04 00  	ld	a0, 0x0(s0)
   13960: 03 36 05 00  	ld	a2, 0x0(a0)
   13964: 13 05 20 01  	addi	a0, zero, 0x12
   13968: 23 a4 a5 02  	sw	a0, 0x28(a1)
   1396c: 13 05 04 00  	addi	a0, s0, 0x0
   13970: e7 00 06 00  	jalr	ra, 0x0(a2)
   13974: 03 25 44 0a  	lw	a0, 0xa4(s0)
   13978: 83 25 c4 0a  	lw	a1, 0xac(s0)
   1397c: 63 c2 a5 02  	blt	a1, a0, 0x139a0 <jpeg_finish_output+0x90>
   13980: 03 35 04 23  	ld	a0, 0x230(s0)
   13984: 83 25 45 02  	lw	a1, 0x24(a0)
   13988: 63 9c 05 00  	bne	a1, zero, 0x139a0 <jpeg_finish_output+0x90>
   1398c: 83 35 05 00  	ld	a1, 0x0(a0)
   13990: 13 05 04 00  	addi	a0, s0, 0x0
   13994: e7 80 05 00  	jalr	ra, 0x0(a1)
   13998: e3 1e 05 fc  	bne	a0, zero, 0x13974 <jpeg_finish_output+0x64>
   1399c: 6f 00 e2 54  	jal	zero, 0x33eea <__riscv_restore_1>
   139a0: 13 05 f0 0c  	addi	a0, zero, 0xcf
   139a4: 23 2e a4 00  	sw	a0, 0x1c(s0)
   139a8: 13 05 10 00  	addi	a0, zero, 0x1
   139ac: 6f 00 e2 53  	jal	zero, 0x33eea <__riscv_restore_1>

00000000000139b0 <jpeg_stdio_src>:
   139b0: ef 02 e2 4f  	jal	t0, 0x33eae <__riscv_save_3>
   139b4: 03 36 05 02  	ld	a2, 0x20(a0)
   139b8: 13 84 05 00  	addi	s0, a1, 0x0
   139bc: 63 14 06 04  	bne	a2, zero, 0x13a04 <jpeg_stdio_src+0x54>
   139c0: 93 04 05 00  	addi	s1, a0, 0x0
   139c4: 03 35 85 00  	ld	a0, 0x8(a0)
   139c8: 83 36 05 00  	ld	a3, 0x0(a0)
   139cc: 13 06 00 05  	addi	a2, zero, 0x50
   139d0: 13 85 04 00  	addi	a0, s1, 0x0
   139d4: 93 05 00 00  	addi	a1, zero, 0x0
   139d8: e7 80 06 00  	jalr	ra, 0x0(a3)
   139dc: 83 b5 84 00  	ld	a1, 0x8(s1)
   139e0: 83 b6 05 00  	ld	a3, 0x0(a1)
   139e4: 13 09 05 00  	addi	s2, a0, 0x0
   139e8: 23 b0 a4 02  	sd	a0, 0x20(s1)
   139ec: 37 16 00 00  	lui	a2, 0x1
   139f0: 13 85 04 00  	addi	a0, s1, 0x0
   139f4: 93 05 00 00  	addi	a1, zero, 0x0
   139f8: e7 80 06 00  	jalr	ra, 0x0(a3)
   139fc: 03 b6 04 02  	ld	a2, 0x20(s1)
   13a00: 23 30 a9 04  	sd	a0, 0x40(s2)
   13a04: 37 45 01 00  	lui	a0, 0x14
   13a08: 13 05 05 a5  	addi	a0, a0, -0x5b0
   13a0c: 23 38 a6 00  	sd	a0, 0x10(a2)
   13a10: 37 45 01 00  	lui	a0, 0x14
   13a14: 13 05 05 a6  	addi	a0, a0, -0x5a0
   13a18: 23 3c a6 00  	sd	a0, 0x18(a2)
   13a1c: 37 45 01 00  	lui	a0, 0x14
   13a20: 13 05 45 af  	addi	a0, a0, -0x50c
   13a24: 23 30 a6 02  	sd	a0, 0x20(a2)
   13a28: 37 55 01 00  	lui	a0, 0x15
   13a2c: 13 05 c5 a4  	addi	a0, a0, -0x5b4
   13a30: 23 34 a6 02  	sd	a0, 0x28(a2)
   13a34: 37 45 01 00  	lui	a0, 0x14
   13a38: 13 05 c5 b3  	addi	a0, a0, -0x4c4
   13a3c: 23 38 a6 02  	sd	a0, 0x30(a2)
   13a40: 23 3c 86 02  	sd	s0, 0x38(a2)
   13a44: 23 30 06 00  	sd	zero, 0x0(a2)
   13a48: 23 34 06 00  	sd	zero, 0x8(a2)
   13a4c: 6f 00 82 49  	jal	zero, 0x33ee4 <__riscv_restore_3>

0000000000013a50 <init_source>:
   13a50: 03 35 05 02  	ld	a0, 0x20(a0)
   13a54: 93 05 10 00  	addi	a1, zero, 0x1
   13a58: 23 24 b5 04  	sw	a1, 0x48(a0)
   13a5c: 67 80 00 00  	jalr	zero, 0x0(ra)

0000000000013a60 <fill_input_buffer>:
   13a60: ef 02 e2 44  	jal	t0, 0x33eae <__riscv_save_3>
   13a64: 13 04 05 00  	addi	s0, a0, 0x0
   13a68: 83 34 05 02  	ld	s1, 0x20(a0)
   13a6c: 03 b5 04 04  	ld	a0, 0x40(s1)
   13a70: 83 b6 84 03  	ld	a3, 0x38(s1)
   13a74: 93 05 10 00  	addi	a1, zero, 0x1
   13a78: 37 16 00 00  	lui	a2, 0x1
   13a7c: ef d0 a0 33  	jal	ra, 0x20db6 <fread>
   13a80: 63 1e 05 04  	bne	a0, zero, 0x13adc <fill_input_buffer+0x7c>
   13a84: 03 a5 84 04  	lw	a0, 0x48(s1)
   13a88: 63 0e 05 00  	beq	a0, zero, 0x13aa4 <fill_input_buffer+0x44>
   13a8c: 03 35 04 00  	ld	a0, 0x0(s0)
   13a90: 83 35 05 00  	ld	a1, 0x0(a0)
   13a94: 13 06 90 02  	addi	a2, zero, 0x29
   13a98: 23 24 c5 02  	sw	a2, 0x28(a0)
   13a9c: 13 05 04 00  	addi	a0, s0, 0x0
   13aa0: e7 80 05 00  	jalr	ra, 0x0(a1)
   13aa4: 03 35 04 00  	ld	a0, 0x0(s0)
   13aa8: 03 36 85 00  	ld	a2, 0x8(a0)
   13aac: 93 05 40 07  	addi	a1, zero, 0x74
   13ab0: 23 24 b5 02  	sw	a1, 0x28(a0)
   13ab4: 93 05 f0 ff  	addi	a1, zero, -0x1
   13ab8: 13 05 04 00  	addi	a0, s0, 0x0
   13abc: e7 00 06 00  	jalr	ra, 0x0(a2)
   13ac0: 03 b5 04 04  	ld	a0, 0x40(s1)
   13ac4: 93 05 f0 0f  	addi	a1, zero, 0xff
   13ac8: 23 00 b5 00  	sb	a1, 0x0(a0)
   13acc: 03 b5 04 04  	ld	a0, 0x40(s1)
   13ad0: 93 05 90 0d  	addi	a1, zero, 0xd9
   13ad4: a3 00 b5 00  	sb	a1, 0x1(a0)
   13ad8: 13 05 20 00  	addi	a0, zero, 0x2
   13adc: 83 b5 04 04  	ld	a1, 0x40(s1)
   13ae0: 23 b0 b4 00  	sd	a1, 0x0(s1)
   13ae4: 23 b4 a4 00  	sd	a0, 0x8(s1)
   13ae8: 13 05 10 00  	addi	a0, zero, 0x1
   13aec: 23 a4 04 04  	sw	zero, 0x48(s1)
   13af0: 6f 00 42 3f  	jal	zero, 0x33ee4 <__riscv_restore_3>

0000000000013af4 <skip_input_data>:
   13af4: 63 52 b0 04  	bge	zero, a1, 0x13b38 <skip_input_data+0x44>
   13af8: ef 02 62 3b  	jal	t0, 0x33eae <__riscv_save_3>
   13afc: 13 84 05 00  	addi	s0, a1, 0x0
   13b00: 93 04 05 00  	addi	s1, a0, 0x0
   13b04: 03 39 05 02  	ld	s2, 0x20(a0)
   13b08: 03 35 89 00  	ld	a0, 0x8(s2)
   13b0c: 63 5a 85 00  	bge	a0, s0, 0x13b20 <skip_input_data+0x2c>
   13b10: 33 04 a4 40  	sub	s0, s0, a0
   13b14: 13 85 04 00  	addi	a0, s1, 0x0
   13b18: ef f0 9f f4  	jal	ra, 0x13a60 <fill_input_buffer>
   13b1c: 6f f0 df fe  	jal	zero, 0x13b08 <skip_input_data+0x14>
   13b20: 83 35 09 00  	ld	a1, 0x0(s2)
   13b24: b3 85 85 00  	add	a1, a1, s0
   13b28: 23 30 b9 00  	sd	a1, 0x0(s2)
   13b2c: 33 05 85 40  	sub	a0, a0, s0
   13b30: 23 34 a9 00  	sd	a0, 0x8(s2)
   13b34: 6f 00 02 3b  	jal	zero, 0x33ee4 <__riscv_restore_3>
   13b38: 67 80 00 00  	jalr	zero, 0x0(ra)

0000000000013b3c <term_source>:
   13b3c: 67 80 00 00  	jalr	zero, 0x0(ra)

0000000000013b40 <jpeg_calc_output_dimensions>:
   13b40: ef 02 e2 33  	jal	t0, 0x33e7e <__riscv_save_12>
   13b44: 13 01 01 ff  	addi	sp, sp, -0x10
   13b48: 13 04 05 00  	addi	s0, a0, 0x0
   13b4c: 03 25 c5 01  	lw	a0, 0x1c(a0)
   13b50: 93 05 a0 0c  	addi	a1, zero, 0xca
   13b54: 63 02 b5 02  	beq	a0, a1, 0x13b78 <jpeg_calc_output_dimensions+0x38>
   13b58: 83 35 04 00  	ld	a1, 0x0(s0)
   13b5c: 23 a6 a5 02  	sw	a0, 0x2c(a1)
   13b60: 03 35 04 00  	ld	a0, 0x0(s0)
   13b64: 03 36 05 00  	ld	a2, 0x0(a0)
   13b68: 13 05 20 01  	addi	a0, zero, 0x12
   13b6c: 23 a4 a5 02  	sw	a0, 0x28(a1)
   13b70: 13 05 04 00  	addi	a0, s0, 0x0
   13b74: e7 00 06 00  	jalr	ra, 0x0(a2)
   13b78: 03 25 c4 03  	lw	a0, 0x3c(s0)
   13b7c: 83 25 04 04  	lw	a1, 0x40(s0)
   13b80: 1b 16 35 00  	slliw	a2, a0, 0x3
   13b84: 63 f6 c5 02  	bgeu	a1, a2, 0x13bb0 <jpeg_calc_output_dimensions+0x70>
   13b88: 1b 16 25 00  	slliw	a2, a0, 0x2
   13b8c: 63 f8 c5 04  	bgeu	a1, a2, 0x13bdc <jpeg_calc_output_dimensions+0x9c>
   13b90: 03 66 84 02  	lwu	a2, 0x28(s0)
   13b94: 1b 15 15 00  	slliw	a0, a0, 0x1
   13b98: 63 f8 a5 06  	bgeu	a1, a0, 0x13c08 <jpeg_calc_output_dimensions+0xc8>
   13b9c: 03 25 c4 02  	lw	a0, 0x2c(s0)
   13ba0: 93 0a 00 00  	addi	s5, zero, 0x0
   13ba4: 23 20 c4 08  	sw	a2, 0x80(s0)
   13ba8: 93 04 80 00  	addi	s1, zero, 0x8
   13bac: 6f 00 40 08  	jal	zero, 0x13c30 <jpeg_calc_output_dimensions+0xf0>
   13bb0: 03 65 84 02  	lwu	a0, 0x28(s0)
   13bb4: 93 05 80 00  	addi	a1, zero, 0x8
   13bb8: ef a0 d0 7b  	jal	ra, 0x1eb74 <jdiv_round_up>
   13bbc: 03 66 c4 02  	lwu	a2, 0x2c(s0)
   13bc0: 23 20 a4 08  	sw	a0, 0x80(s0)
   13bc4: 93 05 80 00  	addi	a1, zero, 0x8
   13bc8: 13 05 06 00  	addi	a0, a2, 0x0
   13bcc: ef a0 90 7a  	jal	ra, 0x1eb74 <jdiv_round_up>
   13bd0: 93 04 10 00  	addi	s1, zero, 0x1
   13bd4: 93 0a 10 00  	addi	s5, zero, 0x1
   13bd8: 6f 00 80 05  	jal	zero, 0x13c30 <jpeg_calc_output_dimensions+0xf0>
   13bdc: 03 65 84 02  	lwu	a0, 0x28(s0)
   13be0: 93 05 40 00  	addi	a1, zero, 0x4
   13be4: ef a0 10 79  	jal	ra, 0x1eb74 <jdiv_round_up>
   13be8: 03 66 c4 02  	lwu	a2, 0x2c(s0)
   13bec: 23 20 a4 08  	sw	a0, 0x80(s0)
   13bf0: 93 05 40 00  	addi	a1, zero, 0x4
   13bf4: 13 05 06 00  	addi	a0, a2, 0x0
   13bf8: ef a0 d0 77  	jal	ra, 0x1eb74 <jdiv_round_up>
   13bfc: 93 0a 10 00  	addi	s5, zero, 0x1
   13c00: 93 04 20 00  	addi	s1, zero, 0x2
   13c04: 6f 00 c0 02  	jal	zero, 0x13c30 <jpeg_calc_output_dimensions+0xf0>
   13c08: 93 05 20 00  	addi	a1, zero, 0x2
   13c0c: 13 05 06 00  	addi	a0, a2, 0x0
   13c10: ef a0 50 76  	jal	ra, 0x1eb74 <jdiv_round_up>
   13c14: 03 66 c4 02  	lwu	a2, 0x2c(s0)
   13c18: 23 20 a4 08  	sw	a0, 0x80(s0)
   13c1c: 93 05 20 00  	addi	a1, zero, 0x2
   13c20: 13 05 06 00  	addi	a0, a2, 0x0
   13c24: ef a0 10 75  	jal	ra, 0x1eb74 <jdiv_round_up>
   13c28: 93 0a 10 00  	addi	s5, zero, 0x1
   13c2c: 93 04 40 00  	addi	s1, zero, 0x4
   13c30: 03 2a 04 03  	lw	s4, 0x30(s0)
   13c34: 23 22 a4 08  	sw	a0, 0x84(s0)
   13c38: 23 26 94 18  	sw	s1, 0x18c(s0)
   13c3c: 63 58 40 11  	bge	zero, s4, 0x13d4c <jpeg_calc_output_dimensions+0x20c>
   13c40: 83 3c 84 12  	ld	s9, 0x128(s0)
   13c44: 93 0b 00 00  	addi	s7, zero, 0x0
   13c48: 13 0c 40 00  	addi	s8, zero, 0x4
   13c4c: 23 34 91 01  	sd	s9, 0x8(sp)
   13c50: 93 89 04 00  	addi	s3, s1, 0x0
   13c54: 63 86 0a 06  	beq	s5, zero, 0x13cc0 <jpeg_calc_output_dimensions+0x180>
   13c58: 03 a9 8c 00  	lw	s2, 0x8(s9)
   13c5c: 03 25 44 18  	lw	a0, 0x184(s0)
   13c60: 93 85 04 00  	addi	a1, s1, 0x0
   13c64: ef 00 02 29  	jal	ra, 0x33ef4 <__muldi3>
   13c68: 1b 0d 05 00  	addiw	s10, a0, 0x0
   13c6c: 93 89 04 00  	addi	s3, s1, 0x0
   13c70: 93 8d 09 00  	addi	s11, s3, 0x0
   13c74: 13 95 19 00  	slli	a0, s3, 0x1
   13c78: 93 05 09 00  	addi	a1, s2, 0x0
   13c7c: ef 00 82 27  	jal	ra, 0x33ef4 <__muldi3>
   13c80: 1b 05 05 00  	addiw	a0, a0, 0x0
   13c84: 63 4c ad 02  	blt	s10, a0, 0x13cbc <jpeg_calc_output_dimensions+0x17c>
   13c88: 83 a5 cc 00  	lw	a1, 0xc(s9)
   13c8c: 9b 99 1d 00  	slliw	s3, s11, 0x1
   13c90: 13 85 09 00  	addi	a0, s3, 0x0
   13c94: ef 00 02 26  	jal	ra, 0x33ef4 <__muldi3>
   13c98: 83 25 84 18  	lw	a1, 0x188(s0)
   13c9c: 1b 0b 05 00  	addiw	s6, a0, 0x0
   13ca0: 13 85 05 00  	addi	a0, a1, 0x0
   13ca4: 93 85 04 00  	addi	a1, s1, 0x0
   13ca8: ef 00 c2 24  	jal	ra, 0x33ef4 <__muldi3>
   13cac: 1b 05 05 00  	addiw	a0, a0, 0x0
   13cb0: 63 46 65 01  	blt	a0, s6, 0x13cbc <jpeg_calc_output_dimensions+0x17c>
   13cb4: e3 ce 8d fb  	blt	s11, s8, 0x13c70 <jpeg_calc_output_dimensions+0x130>
   13cb8: 6f 00 80 00  	jal	zero, 0x13cc0 <jpeg_calc_output_dimensions+0x180>
   13cbc: 93 89 0d 00  	addi	s3, s11, 0x0
   13cc0: 23 a2 3c 03  	sw	s3, 0x24(s9)
   13cc4: 9b 8b 1b 00  	addiw	s7, s7, 0x1
   13cc8: 93 8c 0c 06  	addi	s9, s9, 0x60
   13ccc: e3 92 4b f9  	bne	s7, s4, 0x13c50 <jpeg_calc_output_dimensions+0x110>
   13cd0: 63 5e 40 07  	bge	zero, s4, 0x13d4c <jpeg_calc_output_dimensions+0x20c>
   13cd4: 13 09 00 00  	addi	s2, zero, 0x0
   13cd8: 03 35 81 00  	ld	a0, 0x8(sp)
   13cdc: 93 09 45 02  	addi	s3, a0, 0x24
   13ce0: 83 64 84 02  	lwu	s1, 0x28(s0)
   13ce4: 83 a5 49 fe  	lw	a1, -0x1c(s3)
   13ce8: 03 a5 09 00  	lw	a0, 0x0(s3)
   13cec: ef 00 82 20  	jal	ra, 0x33ef4 <__muldi3>
   13cf0: 1b 05 05 00  	addiw	a0, a0, 0x0
   13cf4: 93 85 04 00  	addi	a1, s1, 0x0
   13cf8: ef 00 c2 1f  	jal	ra, 0x33ef4 <__muldi3>
   13cfc: 83 25 44 18  	lw	a1, 0x184(s0)
   13d00: 9b 95 35 00  	slliw	a1, a1, 0x3
   13d04: ef a0 10 67  	jal	ra, 0x1eb74 <jdiv_round_up>
   13d08: 83 64 c4 02  	lwu	s1, 0x2c(s0)
   13d0c: 83 a5 89 fe  	lw	a1, -0x18(s3)
   13d10: 03 a6 09 00  	lw	a2, 0x0(s3)
   13d14: 23 a2 a9 00  	sw	a0, 0x4(s3)
   13d18: 13 05 06 00  	addi	a0, a2, 0x0
   13d1c: ef 00 82 1d  	jal	ra, 0x33ef4 <__muldi3>
   13d20: 1b 05 05 00  	addiw	a0, a0, 0x0
   13d24: 93 85 04 00  	addi	a1, s1, 0x0
   13d28: ef 00 c2 1c  	jal	ra, 0x33ef4 <__muldi3>
   13d2c: 83 25 84 18  	lw	a1, 0x188(s0)
   13d30: 9b 95 35 00  	slliw	a1, a1, 0x3
   13d34: ef a0 10 64  	jal	ra, 0x1eb74 <jdiv_round_up>
   13d38: 03 2a 04 03  	lw	s4, 0x30(s0)
   13d3c: 23 a4 a9 00  	sw	a0, 0x8(s3)
   13d40: 1b 09 19 00  	addiw	s2, s2, 0x1
   13d44: 93 89 09 06  	addi	s3, s3, 0x60
   13d48: e3 4c 49 f9  	blt	s2, s4, 0x13ce0 <jpeg_calc_output_dimensions+0x1a0>
   13d4c: 03 25 84 03  	lw	a0, 0x38(s0)
   13d50: 1b 05 f5 ff  	addiw	a0, a0, -0x1
   13d54: 93 05 40 00  	addi	a1, zero, 0x4
   13d58: 63 ec a5 00  	bltu	a1, a0, 0x13d70 <jpeg_calc_output_dimensions+0x230>
   13d5c: 13 15 25 00  	slli	a0, a0, 0x2
   13d60: b7 65 03 00  	lui	a1, 0x36
   13d64: 93 85 45 dc  	addi	a1, a1, -0x23c
   13d68: 33 85 a5 00  	add	a0, a1, a0
   13d6c: 03 2a 05 00  	lw	s4, 0x0(a0)
   13d70: 03 25 44 06  	lw	a0, 0x64(s0)
   13d74: 23 24 44 09  	sw	s4, 0x88(s0)
   13d78: 93 04 10 00  	addi	s1, zero, 0x1
   13d7c: 63 04 05 00  	beq	a0, zero, 0x13d84 <jpeg_calc_output_dimensions+0x244>
   13d80: 13 0a 10 00  	addi	s4, zero, 0x1
   13d84: 23 26 44 09  	sw	s4, 0x8c(s0)
   13d88: 13 05 04 00  	addi	a0, s0, 0x0
   13d8c: ef 00 80 01  	jal	ra, 0x13da4 <use_merged_upsample>
   13d90: 63 04 05 00  	beq	a0, zero, 0x13d98 <jpeg_calc_output_dimensions+0x258>
   13d94: 83 24 84 18  	lw	s1, 0x188(s0)
   13d98: 23 28 94 08  	sw	s1, 0x90(s0)
   13d9c: 13 01 01 01  	addi	sp, sp, 0x10
   13da0: 6f 00 82 12  	jal	zero, 0x33ec8 <__riscv_restore_12>

0000000000013da4 <use_merged_upsample>:
   13da4: 83 25 c5 05  	lw	a1, 0x5c(a0)
   13da8: 63 90 05 0a  	bne	a1, zero, 0x13e48 <use_merged_upsample+0xa4>
   13dac: 83 25 05 18  	lw	a1, 0x180(a0)
   13db0: 63 9c 05 08  	bne	a1, zero, 0x13e48 <use_merged_upsample+0xa4>
   13db4: 03 26 45 03  	lw	a2, 0x34(a0)
   13db8: 93 05 30 00  	addi	a1, zero, 0x3
   13dbc: 63 16 b6 08  	bne	a2, a1, 0x13e48 <use_merged_upsample+0xa4>
   13dc0: 03 26 05 03  	lw	a2, 0x30(a0)
   13dc4: 63 12 b6 08  	bne	a2, a1, 0x13e48 <use_merged_upsample+0xa4>
   13dc8: 83 25 85 03  	lw	a1, 0x38(a0)
   13dcc: 13 06 20 00  	addi	a2, zero, 0x2
   13dd0: 63 9c c5 06  	bne	a1, a2, 0x13e48 <use_merged_upsample+0xa4>
   13dd4: 83 25 85 08  	lw	a1, 0x88(a0)
   13dd8: 13 06 30 00  	addi	a2, zero, 0x3
   13ddc: 63 96 c5 06  	bne	a1, a2, 0x13e48 <use_merged_upsample+0xa4>
   13de0: 83 35 85 12  	ld	a1, 0x128(a0)
   13de4: 03 a6 85 00  	lw	a2, 0x8(a1)
   13de8: 93 06 20 00  	addi	a3, zero, 0x2
   13dec: 63 1e d6 04  	bne	a2, a3, 0x13e48 <use_merged_upsample+0xa4>
   13df0: 83 a6 85 06  	lw	a3, 0x68(a1)
   13df4: 13 06 10 00  	addi	a2, zero, 0x1
   13df8: 63 98 c6 04  	bne	a3, a2, 0x13e48 <use_merged_upsample+0xa4>
   13dfc: 83 a6 85 0c  	lw	a3, 0xc8(a1)
   13e00: 63 94 c6 04  	bne	a3, a2, 0x13e48 <use_merged_upsample+0xa4>
   13e04: 03 a6 c5 00  	lw	a2, 0xc(a1)
   13e08: 93 06 20 00  	addi	a3, zero, 0x2
   13e0c: 63 ce c6 02  	blt	a3, a2, 0x13e48 <use_merged_upsample+0xa4>
   13e10: 83 a6 c5 06  	lw	a3, 0x6c(a1)
   13e14: 13 06 10 00  	addi	a2, zero, 0x1
   13e18: 63 98 c6 02  	bne	a3, a2, 0x13e48 <use_merged_upsample+0xa4>
   13e1c: 83 a6 c5 0c  	lw	a3, 0xcc(a1)
   13e20: 63 94 c6 02  	bne	a3, a2, 0x13e48 <use_merged_upsample+0xa4>
   13e24: 03 a6 45 02  	lw	a2, 0x24(a1)
   13e28: 03 25 c5 18  	lw	a0, 0x18c(a0)
   13e2c: 63 1e a6 00  	bne	a2, a0, 0x13e48 <use_merged_upsample+0xa4>
   13e30: 03 a5 45 08  	lw	a0, 0x84(a1)
   13e34: 63 1a c5 00  	bne	a0, a2, 0x13e48 <use_merged_upsample+0xa4>
   13e38: 03 a5 45 0e  	lw	a0, 0xe4(a1)
   13e3c: 33 45 c5 00  	xor	a0, a0, a2
   13e40: 13 35 15 00  	sltiu	a0, a0, 0x1
   13e44: 67 80 00 00  	jalr	zero, 0x0(ra)
   13e48: 13 05 00 00  	addi	a0, zero, 0x0
   13e4c: 67 80 00 00  	jalr	zero, 0x0(ra)

0000000000013e50 <jpeg_new_colormap>:
   13e50: 13 01 01 fe  	addi	sp, sp, -0x20
   13e54: 23 3c 11 00  	sd	ra, 0x18(sp)
   13e58: 23 38 81 00  	sd	s0, 0x10(sp)
   13e5c: 23 34 91 00  	sd	s1, 0x8(sp)
   13e60: 13 04 05 00  	addi	s0, a0, 0x0
   13e64: 03 25 c5 01  	lw	a0, 0x1c(a0)
   13e68: 83 34 04 21  	ld	s1, 0x210(s0)
   13e6c: 93 05 f0 0c  	addi	a1, zero, 0xcf
   13e70: 63 02 b5 02  	beq	a0, a1, 0x13e94 <jpeg_new_colormap+0x44>
   13e74: 83 35 04 00  	ld	a1, 0x0(s0)
   13e78: 23 a6 a5 02  	sw	a0, 0x2c(a1)
   13e7c: 03 35 04 00  	ld	a0, 0x0(s0)
   13e80: 03 36 05 00  	ld	a2, 0x0(a0)
   13e84: 13 05 20 01  	addi	a0, zero, 0x12
   13e88: 23 a4 a5 02  	sw	a0, 0x28(a1)
   13e8c: 13 05 04 00  	addi	a0, s0, 0x0
   13e90: e7 00 06 00  	jalr	ra, 0x0(a2)
   13e94: 03 25 44 06  	lw	a0, 0x64(s0)
   13e98: 63 00 05 04  	beq	a0, zero, 0x13ed8 <jpeg_new_colormap+0x88>
   13e9c: 03 25 84 07  	lw	a0, 0x78(s0)
   13ea0: 63 0c 05 02  	beq	a0, zero, 0x13ed8 <jpeg_new_colormap+0x88>
   13ea4: 03 35 84 09  	ld	a0, 0x98(s0)
   13ea8: 63 08 05 02  	beq	a0, zero, 0x13ed8 <jpeg_new_colormap+0x88>
   13eac: 03 b5 84 02  	ld	a0, 0x28(s1)
   13eb0: 83 35 85 01  	ld	a1, 0x18(a0)
   13eb4: 23 30 a4 26  	sd	a0, 0x260(s0)
   13eb8: 13 05 04 00  	addi	a0, s0, 0x0
   13ebc: e7 80 05 00  	jalr	ra, 0x0(a1)
   13ec0: 23 a8 04 00  	sw	zero, 0x10(s1)
   13ec4: 83 30 81 01  	ld	ra, 0x18(sp)
   13ec8: 03 34 01 01  	ld	s0, 0x10(sp)
   13ecc: 83 34 81 00  	ld	s1, 0x8(sp)
   13ed0: 13 01 01 02  	addi	sp, sp, 0x20
   13ed4: 67 80 00 00  	jalr	zero, 0x0(ra)
   13ed8: 03 35 04 00  	ld	a0, 0x0(s0)
   13edc: 03 33 05 00  	ld	t1, 0x0(a0)
   13ee0: 93 05 d0 02  	addi	a1, zero, 0x2d
   13ee4: 23 24 b5 02  	sw	a1, 0x28(a0)
   13ee8: 13 05 04 00  	addi	a0, s0, 0x0
   13eec: 83 30 81 01  	ld	ra, 0x18(sp)
   13ef0: 03 34 01 01  	ld	s0, 0x10(sp)
   13ef4: 83 34 81 00  	ld	s1, 0x8(sp)
   13ef8: 13 01 01 02  	addi	sp, sp, 0x20
   13efc: 67 00 03 00  	jalr	zero, 0x0(t1)

0000000000013f00 <jinit_master_decompress>:
   13f00: ef f2 51 7a  	jal	t0, 0x33ea4 <__riscv_save_5>
   13f04: 13 04 05 00  	addi	s0, a0, 0x0
   13f08: 03 35 85 00  	ld	a0, 0x8(a0)
   13f0c: 83 36 05 00  	ld	a3, 0x0(a0)
   13f10: 93 05 10 00  	addi	a1, zero, 0x1
   13f14: 13 06 00 03  	addi	a2, zero, 0x30
   13f18: 13 05 04 00  	addi	a0, s0, 0x0
   13f1c: e7 80 06 00  	jalr	ra, 0x0(a3)
   13f20: 93 04 05 00  	addi	s1, a0, 0x0
   13f24: 23 38 a4 20  	sd	a0, 0x210(s0)
   13f28: 37 45 01 00  	lui	a0, 0x14
   13f2c: 13 05 85 21  	addi	a0, a0, 0x218
   13f30: 23 b0 a4 00  	sd	a0, 0x0(s1)
   13f34: 37 45 01 00  	lui	a0, 0x14
   13f38: 13 05 05 3c  	addi	a0, a0, 0x3c0
   13f3c: 23 b4 a4 00  	sd	a0, 0x8(s1)
   13f40: 23 a8 04 00  	sw	zero, 0x10(s1)
   13f44: 13 05 04 00  	addi	a0, s0, 0x0
   13f48: ef f0 9f bf  	jal	ra, 0x13b40 <jpeg_calc_output_dimensions>
   13f4c: 03 35 84 00  	ld	a0, 0x8(s0)
   13f50: 83 36 05 00  	ld	a3, 0x0(a0)
   13f54: 93 05 10 00  	addi	a1, zero, 0x1
   13f58: 13 06 00 58  	addi	a2, zero, 0x580
   13f5c: 13 05 04 00  	addi	a0, s0, 0x0
   13f60: e7 80 06 00  	jalr	ra, 0x0(a3)
   13f64: 13 09 05 00  	addi	s2, a0, 0x0
   13f68: 93 09 05 10  	addi	s3, a0, 0x100
   13f6c: 23 3c 34 19  	sd	s3, 0x198(s0)
   13f70: 13 06 00 10  	addi	a2, zero, 0x100
   13f74: 13 0a 00 10  	addi	s4, zero, 0x100
   13f78: 93 05 00 00  	addi	a1, zero, 0x0
   13f7c: ef d0 50 58  	jal	ra, 0x21d00 <memset>
   13f80: 13 05 00 00  	addi	a0, zero, 0x0
   13f84: b3 85 a9 00  	add	a1, s3, a0
   13f88: 23 80 a5 00  	sb	a0, 0x0(a1)
   13f8c: 13 05 15 00  	addi	a0, a0, 0x1
   13f90: e3 1a 45 ff  	bne	a0, s4, 0x13f84 <jinit_master_decompress+0x84>
   13f94: 13 05 09 20  	addi	a0, s2, 0x200
   13f98: 93 05 f0 0f  	addi	a1, zero, 0xff
   13f9c: 13 06 00 18  	addi	a2, zero, 0x180
   13fa0: ef d0 10 56  	jal	ra, 0x21d00 <memset>
   13fa4: 13 05 09 38  	addi	a0, s2, 0x380
   13fa8: 13 06 00 18  	addi	a2, zero, 0x180
   13fac: 93 05 00 00  	addi	a1, zero, 0x0
   13fb0: ef d0 10 55  	jal	ra, 0x21d00 <memset>
   13fb4: 83 35 84 19  	ld	a1, 0x198(s0)
   13fb8: 13 05 09 50  	addi	a0, s2, 0x500
   13fbc: 13 06 00 08  	addi	a2, zero, 0x80
   13fc0: ef d0 b0 5e  	jal	ra, 0x21daa <memcpy>
   13fc4: 83 65 04 08  	lwu	a1, 0x80(s0)
   13fc8: 03 25 84 08  	lw	a0, 0x88(s0)
   13fcc: ef f0 91 72  	jal	ra, 0x33ef4 <__muldi3>
   13fd0: 13 55 05 02  	srli	a0, a0, 0x20
   13fd4: 63 0e 05 00  	beq	a0, zero, 0x13ff0 <jinit_master_decompress+0xf0>
   13fd8: 03 35 04 00  	ld	a0, 0x0(s0)
   13fdc: 83 35 05 00  	ld	a1, 0x0(a0)
   13fe0: 13 06 50 04  	addi	a2, zero, 0x45
   13fe4: 23 24 c5 02  	sw	a2, 0x28(a0)
   13fe8: 13 05 04 00  	addi	a0, s0, 0x0
   13fec: e7 80 05 00  	jalr	ra, 0x0(a1)
   13ff0: 23 ac 04 00  	sw	zero, 0x18(s1)
   13ff4: 13 05 04 00  	addi	a0, s0, 0x0
   13ff8: ef f0 df da  	jal	ra, 0x13da4 <use_merged_upsample>
   13ffc: 23 b0 04 02  	sd	zero, 0x20(s1)
   14000: 23 b4 04 02  	sd	zero, 0x28(s1)
   14004: 83 25 44 06  	lw	a1, 0x64(s0)
   14008: 23 ae a4 00  	sw	a0, 0x1c(s1)
   1400c: 63 8a 05 04  	beq	a1, zero, 0x14060 <jinit_master_decompress+0x160>
   14010: 03 25 04 05  	lw	a0, 0x50(s0)
   14014: 63 16 05 00  	bne	a0, zero, 0x14020 <jinit_master_decompress+0x120>
   14018: 23 2a 04 06  	sw	zero, 0x74(s0)
   1401c: 23 3c 04 06  	sd	zero, 0x78(s0)
   14020: 03 25 44 05  	lw	a0, 0x54(s0)
   14024: 63 0e 05 00  	beq	a0, zero, 0x14040 <jinit_master_decompress+0x140>
   14028: 03 35 04 00  	ld	a0, 0x0(s0)
   1402c: 83 35 05 00  	ld	a1, 0x0(a0)
   14030: 13 06 e0 02  	addi	a2, zero, 0x2e
   14034: 23 24 c5 02  	sw	a2, 0x28(a0)
   14038: 13 05 04 00  	addi	a0, s0, 0x0
   1403c: e7 80 05 00  	jalr	ra, 0x0(a1)
   14040: 03 25 84 08  	lw	a0, 0x88(s0)
   14044: 93 05 30 00  	addi	a1, zero, 0x3
   14048: 63 12 b5 02  	bne	a0, a1, 0x1406c <jinit_master_decompress+0x16c>
   1404c: 03 35 84 09  	ld	a0, 0x98(s0)
   14050: 63 04 05 1a  	beq	a0, zero, 0x141f8 <jinit_master_decompress+0x2f8>
   14054: 13 05 10 00  	addi	a0, zero, 0x1
   14058: 23 2c a4 06  	sw	a0, 0x78(s0)
   1405c: 6f 00 00 02  	jal	zero, 0x1407c <jinit_master_decompress+0x17c>
   14060: 23 2a 04 06  	sw	zero, 0x74(s0)
   14064: 23 3c 04 06  	sd	zero, 0x78(s0)
   14068: 6f 00 00 05  	jal	zero, 0x140b8 <jinit_master_decompress+0x1b8>
   1406c: 13 05 10 00  	addi	a0, zero, 0x1
   14070: 23 2a a4 06  	sw	a0, 0x74(s0)
   14074: 23 3c 04 06  	sd	zero, 0x78(s0)
   14078: 23 3c 04 08  	sd	zero, 0x98(s0)
   1407c: 03 25 44 07  	lw	a0, 0x74(s0)
   14080: 63 0c 05 00  	beq	a0, zero, 0x14098 <jinit_master_decompress+0x198>
   14084: 13 89 04 02  	addi	s2, s1, 0x20
   14088: 13 05 04 00  	addi	a0, s0, 0x0
   1408c: ef 70 50 6f  	jal	ra, 0x1bf80 <jinit_1pass_quantizer>
   14090: 03 35 04 26  	ld	a0, 0x260(s0)
   14094: 23 30 a9 00  	sd	a0, 0x0(s2)
   14098: 03 25 c4 07  	lw	a0, 0x7c(s0)
   1409c: 63 16 05 00  	bne	a0, zero, 0x140a8 <jinit_master_decompress+0x1a8>
   140a0: 03 25 84 07  	lw	a0, 0x78(s0)
   140a4: 63 0a 05 00  	beq	a0, zero, 0x140b8 <jinit_master_decompress+0x1b8>
   140a8: 13 05 04 00  	addi	a0, s0, 0x0
   140ac: ef 80 d0 4f  	jal	ra, 0x1cda8 <jinit_2pass_quantizer>
   140b0: 03 35 04 26  	ld	a0, 0x260(s0)
   140b4: 23 b4 a4 02  	sd	a0, 0x28(s1)
   140b8: 03 25 44 05  	lw	a0, 0x54(s0)
   140bc: 63 1a 05 02  	bne	a0, zero, 0x140f0 <jinit_master_decompress+0x1f0>
   140c0: 03 a5 c4 01  	lw	a0, 0x1c(s1)
   140c4: 63 08 05 00  	beq	a0, zero, 0x140d4 <jinit_master_decompress+0x1d4>
   140c8: 13 05 04 00  	addi	a0, s0, 0x0
   140cc: ef a0 40 2d  	jal	ra, 0x1e3a0 <jinit_merged_upsampler>
   140d0: 6f 00 40 01  	jal	zero, 0x140e4 <jinit_master_decompress+0x1e4>
   140d4: 13 05 04 00  	addi	a0, s0, 0x0
   140d8: ef 70 10 10  	jal	ra, 0x1b9d8 <jinit_color_deconverter>
   140dc: 13 05 04 00  	addi	a0, s0, 0x0
   140e0: ef 70 00 0b  	jal	ra, 0x1b190 <jinit_upsampler>
   140e4: 83 25 c4 07  	lw	a1, 0x7c(s0)
   140e8: 13 05 04 00  	addi	a0, s0, 0x0
   140ec: ef 50 c0 3e  	jal	ra, 0x194d8 <jinit_d_post_controller>
   140f0: 13 05 04 00  	addi	a0, s0, 0x0
   140f4: ef 50 80 7b  	jal	ra, 0x198ac <jinit_inverse_dct>
   140f8: 03 25 44 13  	lw	a0, 0x134(s0)
   140fc: 63 00 05 02  	beq	a0, zero, 0x1411c <jinit_master_decompress+0x21c>
   14100: 03 35 04 00  	ld	a0, 0x0(s0)
   14104: 83 35 05 00  	ld	a1, 0x0(a0)
   14108: 13 06 10 00  	addi	a2, zero, 0x1
   1410c: 23 24 c5 02  	sw	a2, 0x28(a0)
   14110: 13 05 04 00  	addi	a0, s0, 0x0
   14114: e7 80 05 00  	jalr	ra, 0x0(a1)
   14118: 6f 00 00 02  	jal	zero, 0x14138 <jinit_master_decompress+0x238>
   1411c: 03 25 04 13  	lw	a0, 0x130(s0)
   14120: 63 08 05 00  	beq	a0, zero, 0x14130 <jinit_master_decompress+0x230>
   14124: 13 05 04 00  	addi	a0, s0, 0x0
   14128: ef 20 10 6b  	jal	ra, 0x16fd8 <jinit_phuff_decoder>
   1412c: 6f 00 c0 00  	jal	zero, 0x14138 <jinit_master_decompress+0x238>
   14130: 13 05 04 00  	addi	a0, s0, 0x0
   14134: ef 20 10 06  	jal	ra, 0x16994 <jinit_huff_decoder>
   14138: 03 35 04 23  	ld	a0, 0x230(s0)
   1413c: 03 25 05 02  	lw	a0, 0x20(a0)
   14140: 93 05 10 00  	addi	a1, zero, 0x1
   14144: 63 16 05 00  	bne	a0, zero, 0x14150 <jinit_master_decompress+0x250>
   14148: 03 25 04 05  	lw	a0, 0x50(s0)
   1414c: b3 35 a0 00  	sltu	a1, zero, a0
   14150: 13 05 04 00  	addi	a0, s0, 0x0
   14154: ef 40 40 47  	jal	ra, 0x185c8 <jinit_d_coef_controller>
   14158: 03 25 44 05  	lw	a0, 0x54(s0)
   1415c: 63 18 05 00  	bne	a0, zero, 0x1416c <jinit_master_decompress+0x26c>
   14160: 13 05 04 00  	addi	a0, s0, 0x0
   14164: 93 05 00 00  	addi	a1, zero, 0x0
   14168: ef 30 d0 43  	jal	ra, 0x17da4 <jinit_d_main_controller>
   1416c: 03 35 84 00  	ld	a0, 0x8(s0)
   14170: 83 35 05 03  	ld	a1, 0x30(a0)
   14174: 13 05 04 00  	addi	a0, s0, 0x0
   14178: e7 80 05 00  	jalr	ra, 0x0(a1)
   1417c: 03 35 04 23  	ld	a0, 0x230(s0)
   14180: 83 35 05 01  	ld	a1, 0x10(a0)
   14184: 13 05 04 00  	addi	a0, s0, 0x0
   14188: e7 80 05 00  	jalr	ra, 0x0(a1)
   1418c: 03 39 04 01  	ld	s2, 0x10(s0)
   14190: 63 06 09 00  	beq	s2, zero, 0x1419c <jinit_master_decompress+0x29c>
   14194: 03 25 04 05  	lw	a0, 0x50(s0)
   14198: 63 04 05 00  	beq	a0, zero, 0x141a0 <jinit_master_decompress+0x2a0>
   1419c: 6f f0 31 54  	jal	zero, 0x33ede <__riscv_restore_5>
   141a0: 03 35 04 23  	ld	a0, 0x230(s0)
   141a4: 03 25 05 02  	lw	a0, 0x20(a0)
   141a8: e3 0a 05 fe  	beq	a0, zero, 0x1419c <jinit_master_decompress+0x29c>
   141ac: 83 25 04 13  	lw	a1, 0x130(s0)
   141b0: 03 25 04 03  	lw	a0, 0x30(s0)
   141b4: 63 88 05 00  	beq	a1, zero, 0x141c4 <jinit_master_decompress+0x2c4>
   141b8: 93 15 15 00  	slli	a1, a0, 0x1
   141bc: 33 85 a5 00  	add	a0, a1, a0
   141c0: 1b 05 25 00  	addiw	a0, a0, 0x2
   141c4: 83 65 04 19  	lwu	a1, 0x190(s0)
   141c8: 23 34 09 00  	sd	zero, 0x8(s2)
   141cc: ef f0 91 52  	jal	ra, 0x33ef4 <__muldi3>
   141d0: 83 25 c4 07  	lw	a1, 0x7c(s0)
   141d4: 23 38 a9 00  	sd	a0, 0x10(s2)
   141d8: 23 2c 09 00  	sw	zero, 0x18(s2)
   141dc: 03 a5 84 01  	lw	a0, 0x18(s1)
   141e0: 93 b5 15 00  	sltiu	a1, a1, 0x1
   141e4: 93 c5 35 00  	xori	a1, a1, 0x3
   141e8: 23 2e b9 00  	sw	a1, 0x1c(s2)
   141ec: 13 05 15 00  	addi	a0, a0, 0x1
   141f0: 23 ac a4 00  	sw	a0, 0x18(s1)
   141f4: 6f f0 b1 4e  	jal	zero, 0x33ede <__riscv_restore_5>
   141f8: 03 25 c4 06  	lw	a0, 0x6c(s0)
   141fc: 63 08 05 00  	beq	a0, zero, 0x1420c <jinit_master_decompress+0x30c>
   14200: 13 05 10 00  	addi	a0, zero, 0x1
   14204: 23 2e a4 06  	sw	a0, 0x7c(s0)
   14208: 6f f0 5f e7  	jal	zero, 0x1407c <jinit_master_decompress+0x17c>
   1420c: 13 05 10 00  	addi	a0, zero, 0x1
   14210: 23 2a a4 06  	sw	a0, 0x74(s0)
   14214: 6f f0 9f e6  	jal	zero, 0x1407c <jinit_master_decompress+0x17c>

0000000000014218 <prepare_for_output_pass>:
   14218: ef f2 71 49  	jal	t0, 0x33eae <__riscv_save_3>
   1421c: 13 04 05 00  	addi	s0, a0, 0x0
   14220: 03 39 05 21  	ld	s2, 0x210(a0)
   14224: 03 25 09 01  	lw	a0, 0x10(s2)
   14228: 63 06 05 04  	beq	a0, zero, 0x14274 <prepare_for_output_pass+0x5c>
   1422c: 03 35 04 26  	ld	a0, 0x260(s0)
   14230: 03 36 05 00  	ld	a2, 0x0(a0)
   14234: 23 28 09 00  	sw	zero, 0x10(s2)
   14238: 13 05 04 00  	addi	a0, s0, 0x0
   1423c: 93 05 00 00  	addi	a1, zero, 0x0
   14240: e7 00 06 00  	jalr	ra, 0x0(a2)
   14244: 03 35 84 22  	ld	a0, 0x228(s0)
   14248: 03 36 05 00  	ld	a2, 0x0(a0)
   1424c: 93 05 20 00  	addi	a1, zero, 0x2
   14250: 93 04 20 00  	addi	s1, zero, 0x2
   14254: 13 05 04 00  	addi	a0, s0, 0x0
   14258: e7 00 06 00  	jalr	ra, 0x0(a2)
   1425c: 03 35 84 21  	ld	a0, 0x218(s0)
   14260: 03 36 05 00  	ld	a2, 0x0(a0)
   14264: 13 05 04 00  	addi	a0, s0, 0x0
   14268: 93 85 04 00  	addi	a1, s1, 0x0
   1426c: e7 00 06 00  	jalr	ra, 0x0(a2)
   14270: 6f 00 c0 03  	jal	zero, 0x142ac <prepare_for_output_pass+0x94>
   14274: 03 25 44 06  	lw	a0, 0x64(s0)
   14278: 63 06 05 00  	beq	a0, zero, 0x14284 <prepare_for_output_pass+0x6c>
   1427c: 03 35 84 09  	ld	a0, 0x98(s0)
   14280: 63 06 05 0e  	beq	a0, zero, 0x1436c <prepare_for_output_pass+0x154>
   14284: 03 35 84 24  	ld	a0, 0x248(s0)
   14288: 83 35 05 00  	ld	a1, 0x0(a0)
   1428c: 13 05 04 00  	addi	a0, s0, 0x0
   14290: e7 80 05 00  	jalr	ra, 0x0(a1)
   14294: 03 35 04 22  	ld	a0, 0x220(s0)
   14298: 83 35 05 01  	ld	a1, 0x10(a0)
   1429c: 13 05 04 00  	addi	a0, s0, 0x0
   142a0: e7 80 05 00  	jalr	ra, 0x0(a1)
   142a4: 03 25 44 05  	lw	a0, 0x54(s0)
   142a8: 63 0c 05 04  	beq	a0, zero, 0x14300 <prepare_for_output_pass+0xe8>
   142ac: 03 35 04 01  	ld	a0, 0x10(s0)
   142b0: 63 0a 05 02  	beq	a0, zero, 0x142e4 <prepare_for_output_pass+0xcc>
   142b4: 83 25 89 01  	lw	a1, 0x18(s2)
   142b8: 03 26 09 01  	lw	a2, 0x10(s2)
   142bc: 23 2c b5 00  	sw	a1, 0x18(a0)
   142c0: 83 26 04 05  	lw	a3, 0x50(s0)
   142c4: 13 36 16 00  	sltiu	a2, a2, 0x1
   142c8: bb 85 c5 40  	subw	a1, a1, a2
   142cc: 93 85 25 00  	addi	a1, a1, 0x2
   142d0: 23 2e b5 00  	sw	a1, 0x1c(a0)
   142d4: 63 88 06 00  	beq	a3, zero, 0x142e4 <prepare_for_output_pass+0xcc>
   142d8: 03 36 04 23  	ld	a2, 0x230(s0)
   142dc: 03 26 46 02  	lw	a2, 0x24(a2)
   142e0: 63 04 06 00  	beq	a2, zero, 0x142e8 <prepare_for_output_pass+0xd0>
   142e4: 6f f0 11 40  	jal	zero, 0x33ee4 <__riscv_restore_3>
   142e8: 03 26 c4 07  	lw	a2, 0x7c(s0)
   142ec: 13 36 16 00  	sltiu	a2, a2, 0x1
   142f0: bb 85 c5 40  	subw	a1, a1, a2
   142f4: 93 85 25 00  	addi	a1, a1, 0x2
   142f8: 23 2e b5 00  	sw	a1, 0x1c(a0)
   142fc: 6f f0 91 3e  	jal	zero, 0x33ee4 <__riscv_restore_3>
   14300: 03 25 c9 01  	lw	a0, 0x1c(s2)
   14304: 63 1a 05 00  	bne	a0, zero, 0x14318 <prepare_for_output_pass+0x100>
   14308: 03 35 84 25  	ld	a0, 0x258(s0)
   1430c: 83 35 05 00  	ld	a1, 0x0(a0)
   14310: 13 05 04 00  	addi	a0, s0, 0x0
   14314: e7 80 05 00  	jalr	ra, 0x0(a1)
   14318: 03 35 04 25  	ld	a0, 0x250(s0)
   1431c: 83 35 05 00  	ld	a1, 0x0(a0)
   14320: 13 05 04 00  	addi	a0, s0, 0x0
   14324: e7 80 05 00  	jalr	ra, 0x0(a1)
   14328: 03 25 44 06  	lw	a0, 0x64(s0)
   1432c: 63 0c 05 00  	beq	a0, zero, 0x14344 <prepare_for_output_pass+0x12c>
   14330: 03 35 04 26  	ld	a0, 0x260(s0)
   14334: 03 36 05 00  	ld	a2, 0x0(a0)
   14338: 83 25 09 01  	lw	a1, 0x10(s2)
   1433c: 13 05 04 00  	addi	a0, s0, 0x0
   14340: e7 00 06 00  	jalr	ra, 0x0(a2)
   14344: 03 35 84 22  	ld	a0, 0x228(s0)
   14348: 83 25 09 01  	lw	a1, 0x10(s2)
   1434c: 03 36 05 00  	ld	a2, 0x0(a0)
   14350: 13 b5 15 00  	sltiu	a0, a1, 0x1
   14354: 13 05 f5 ff  	addi	a0, a0, -0x1
   14358: 93 75 35 00  	andi	a1, a0, 0x3
   1435c: 13 05 04 00  	addi	a0, s0, 0x0
   14360: e7 00 06 00  	jalr	ra, 0x0(a2)
   14364: 93 04 00 00  	addi	s1, zero, 0x0
   14368: 6f f0 5f ef  	jal	zero, 0x1425c <prepare_for_output_pass+0x44>
   1436c: 03 25 c4 06  	lw	a0, 0x6c(s0)
   14370: 63 00 05 02  	beq	a0, zero, 0x14390 <prepare_for_output_pass+0x178>
   14374: 03 25 c4 07  	lw	a0, 0x7c(s0)
   14378: 63 0c 05 00  	beq	a0, zero, 0x14390 <prepare_for_output_pass+0x178>
   1437c: 03 35 89 02  	ld	a0, 0x28(s2)
   14380: 23 30 a4 26  	sd	a0, 0x260(s0)
   14384: 13 05 10 00  	addi	a0, zero, 0x1
   14388: 23 28 a9 00  	sw	a0, 0x10(s2)
   1438c: 6f f0 9f ef  	jal	zero, 0x14284 <prepare_for_output_pass+0x6c>
   14390: 03 25 44 07  	lw	a0, 0x74(s0)
   14394: 63 08 05 00  	beq	a0, zero, 0x143a4 <prepare_for_output_pass+0x18c>
   14398: 03 35 09 02  	ld	a0, 0x20(s2)
   1439c: 23 30 a4 26  	sd	a0, 0x260(s0)
   143a0: 6f f0 5f ee  	jal	zero, 0x14284 <prepare_for_output_pass+0x6c>
   143a4: 03 35 04 00  	ld	a0, 0x0(s0)
   143a8: 83 35 05 00  	ld	a1, 0x0(a0)
   143ac: 13 06 d0 02  	addi	a2, zero, 0x2d
   143b0: 23 24 c5 02  	sw	a2, 0x28(a0)
   143b4: 13 05 04 00  	addi	a0, s0, 0x0
   143b8: e7 80 05 00  	jalr	ra, 0x0(a1)
   143bc: 6f f0 9f ec  	jal	zero, 0x14284 <prepare_for_output_pass+0x6c>

00000000000143c0 <finish_output_pass>:
   143c0: ef f2 11 30  	jal	t0, 0x33ec0 <__riscv_save_1>
   143c4: 83 25 45 06  	lw	a1, 0x64(a0)
   143c8: 03 34 05 21  	ld	s0, 0x210(a0)
   143cc: 63 88 05 00  	beq	a1, zero, 0x143dc <finish_output_pass+0x1c>
   143d0: 83 35 05 26  	ld	a1, 0x260(a0)
   143d4: 83 b5 05 01  	ld	a1, 0x10(a1)
   143d8: e7 80 05 00  	jalr	ra, 0x0(a1)
   143dc: 03 25 84 01  	lw	a0, 0x18(s0)
   143e0: 13 05 15 00  	addi	a0, a0, 0x1
   143e4: 23 2c a4 00  	sw	a0, 0x18(s0)
   143e8: 6f f0 31 30  	jal	zero, 0x33eea <__riscv_restore_1>

00000000000143ec <jinit_input_controller>:
   143ec: ef f2 51 2d  	jal	t0, 0x33ec0 <__riscv_save_1>
   143f0: 13 04 05 00  	addi	s0, a0, 0x0
   143f4: 03 35 85 00  	ld	a0, 0x8(a0)
   143f8: 83 36 05 00  	ld	a3, 0x0(a0)
   143fc: 13 06 00 03  	addi	a2, zero, 0x30
   14400: 13 05 04 00  	addi	a0, s0, 0x0
   14404: 93 05 00 00  	addi	a1, zero, 0x0
   14408: e7 80 06 00  	jalr	ra, 0x0(a3)
   1440c: 23 38 a4 22  	sd	a0, 0x230(s0)
   14410: b7 45 01 00  	lui	a1, 0x14
   14414: 93 85 05 45  	addi	a1, a1, 0x450
   14418: 23 30 b5 00  	sd	a1, 0x0(a0)
   1441c: b7 45 01 00  	lui	a1, 0x14
   14420: 93 85 45 75  	addi	a1, a1, 0x754
   14424: 23 34 b5 00  	sd	a1, 0x8(a0)
   14428: b7 45 01 00  	lui	a1, 0x14
   1442c: 93 85 05 7a  	addi	a1, a1, 0x7a0
   14430: 23 38 b5 00  	sd	a1, 0x10(a0)
   14434: b7 55 01 00  	lui	a1, 0x15
   14438: 93 85 85 a3  	addi	a1, a1, -0x5c8
   1443c: 23 3c b5 00  	sd	a1, 0x18(a0)
   14440: 23 30 05 02  	sd	zero, 0x20(a0)
   14444: 93 05 10 00  	addi	a1, zero, 0x1
   14448: 23 24 b5 02  	sw	a1, 0x28(a0)
   1444c: 6f f0 f1 29  	jal	zero, 0x33eea <__riscv_restore_1>

0000000000014450 <consume_markers>:
   14450: ef f2 b1 24  	jal	t0, 0x33e9a <__riscv_save_7>
   14454: 13 04 05 00  	addi	s0, a0, 0x0
   14458: 03 39 05 23  	ld	s2, 0x230(a0)
   1445c: 03 25 49 02  	lw	a0, 0x24(s2)
   14460: 93 04 20 00  	addi	s1, zero, 0x2
   14464: 63 06 05 00  	beq	a0, zero, 0x14470 <consume_markers+0x20>
   14468: 13 85 04 00  	addi	a0, s1, 0x0
   1446c: 6f f0 d1 26  	jal	zero, 0x33ed8 <__riscv_restore_7>
   14470: 03 35 84 23  	ld	a0, 0x238(s0)
   14474: 83 35 85 00  	ld	a1, 0x8(a0)
   14478: 13 05 04 00  	addi	a0, s0, 0x0
   1447c: e7 80 05 00  	jalr	ra, 0x0(a1)
   14480: 93 05 20 00  	addi	a1, zero, 0x2
   14484: 63 04 b5 20  	beq	a0, a1, 0x1468c <consume_markers+0x23c>
   14488: 93 04 05 00  	addi	s1, a0, 0x0
   1448c: 13 05 10 00  	addi	a0, zero, 0x1
   14490: e3 9c a4 fc  	bne	s1, a0, 0x14468 <consume_markers+0x18>
   14494: 03 25 89 02  	lw	a0, 0x28(s2)
   14498: 63 08 05 22  	beq	a0, zero, 0x146c8 <consume_markers+0x278>
   1449c: 83 25 c4 02  	lw	a1, 0x2c(s0)
   144a0: 37 05 01 00  	lui	a0, 0x10
   144a4: 1b 06 c5 fd  	addiw	a2, a0, -0x24
   144a8: 63 68 b6 00  	bltu	a2, a1, 0x144b8 <consume_markers+0x68>
   144ac: 83 25 84 02  	lw	a1, 0x28(s0)
   144b0: 1b 05 d5 fd  	addiw	a0, a0, -0x23
   144b4: 63 e4 a5 02  	bltu	a1, a0, 0x144dc <consume_markers+0x8c>
   144b8: 03 35 04 00  	ld	a0, 0x0(s0)
   144bc: b7 75 ff 03  	lui	a1, 0x3ff7
   144c0: 93 95 65 01  	slli	a1, a1, 0x16
   144c4: 93 85 85 02  	addi	a1, a1, 0x28
   144c8: 23 34 b5 02  	sd	a1, 0x28(a0)
   144cc: 03 35 04 00  	ld	a0, 0x0(s0)
   144d0: 83 35 05 00  	ld	a1, 0x0(a0)
   144d4: 13 05 04 00  	addi	a0, s0, 0x0
   144d8: e7 80 05 00  	jalr	ra, 0x0(a1)
   144dc: 03 25 04 12  	lw	a0, 0x120(s0)
   144e0: 93 05 80 00  	addi	a1, zero, 0x8
   144e4: 63 02 b5 02  	beq	a0, a1, 0x14508 <consume_markers+0xb8>
   144e8: 83 35 04 00  	ld	a1, 0x0(s0)
   144ec: 23 a6 a5 02  	sw	a0, 0x2c(a1)
   144f0: 03 35 04 00  	ld	a0, 0x0(s0)
   144f4: 03 36 05 00  	ld	a2, 0x0(a0)
   144f8: 13 05 d0 00  	addi	a0, zero, 0xd
   144fc: 23 a4 a5 02  	sw	a0, 0x28(a1)
   14500: 13 05 04 00  	addi	a0, s0, 0x0
   14504: e7 00 06 00  	jalr	ra, 0x0(a2)
   14508: 03 25 04 03  	lw	a0, 0x30(s0)
   1450c: 93 05 b0 00  	addi	a1, zero, 0xb
   14510: 63 4a b5 02  	blt	a0, a1, 0x14544 <consume_markers+0xf4>
   14514: 83 35 04 00  	ld	a1, 0x0(s0)
   14518: 23 a6 a5 02  	sw	a0, 0x2c(a1)
   1451c: 03 35 04 00  	ld	a0, 0x0(s0)
   14520: 13 06 80 01  	addi	a2, zero, 0x18
   14524: 23 a4 c5 02  	sw	a2, 0x28(a1)
   14528: 93 05 a0 00  	addi	a1, zero, 0xa
   1452c: 23 28 b5 02  	sw	a1, 0x30(a0)
   14530: 03 35 04 00  	ld	a0, 0x0(s0)
   14534: 83 35 05 00  	ld	a1, 0x0(a0)
   14538: 13 05 04 00  	addi	a0, s0, 0x0
   1453c: e7 80 05 00  	jalr	ra, 0x0(a1)
   14540: 03 25 04 03  	lw	a0, 0x30(s0)
   14544: 93 05 10 00  	addi	a1, zero, 0x1
   14548: 23 22 b4 18  	sw	a1, 0x184(s0)
   1454c: 23 24 b4 18  	sw	a1, 0x188(s0)
   14550: 63 50 a0 1c  	bge	zero, a0, 0x14710 <consume_markers+0x2c0>
   14554: 83 39 84 12  	ld	s3, 0x128(s0)
   14558: 93 04 00 00  	addi	s1, zero, 0x0
   1455c: 93 89 c9 00  	addi	s3, s3, 0xc
   14560: 93 05 10 00  	addi	a1, zero, 0x1
   14564: 13 0a c0 ff  	addi	s4, zero, -0x4
   14568: 93 0a 00 01  	addi	s5, zero, 0x10
   1456c: 13 0b b0 ff  	addi	s6, zero, -0x5
   14570: 13 06 10 00  	addi	a2, zero, 0x1
   14574: 03 a7 c9 ff  	lw	a4, -0x4(s3)
   14578: 9b 06 b7 ff  	addiw	a3, a4, -0x5
   1457c: 63 e8 46 01  	bltu	a3, s4, 0x1458c <consume_markers+0x13c>
   14580: 83 a6 09 00  	lw	a3, 0x0(s3)
   14584: 9b 87 b6 ff  	addiw	a5, a3, -0x5
   14588: 63 66 fb 02  	bltu	s6, a5, 0x145b4 <consume_markers+0x164>
   1458c: 03 35 04 00  	ld	a0, 0x0(s0)
   14590: 83 35 05 00  	ld	a1, 0x0(a0)
   14594: 23 24 55 03  	sw	s5, 0x28(a0)
   14598: 13 05 04 00  	addi	a0, s0, 0x0
   1459c: e7 80 05 00  	jalr	ra, 0x0(a1)
   145a0: 03 26 44 18  	lw	a2, 0x184(s0)
   145a4: 03 a7 c9 ff  	lw	a4, -0x4(s3)
   145a8: 83 25 84 18  	lw	a1, 0x188(s0)
   145ac: 83 a6 09 00  	lw	a3, 0x0(s3)
   145b0: 03 25 04 03  	lw	a0, 0x30(s0)
   145b4: 63 44 c7 00  	blt	a4, a2, 0x145bc <consume_markers+0x16c>
   145b8: 13 06 07 00  	addi	a2, a4, 0x0
   145bc: 23 22 c4 18  	sw	a2, 0x184(s0)
   145c0: 63 c4 b6 00  	blt	a3, a1, 0x145c8 <consume_markers+0x178>
   145c4: 93 85 06 00  	addi	a1, a3, 0x0
   145c8: 23 24 b4 18  	sw	a1, 0x188(s0)
   145cc: 9b 84 14 00  	addiw	s1, s1, 0x1
   145d0: 93 89 09 06  	addi	s3, s3, 0x60
   145d4: e3 c0 a4 fa  	blt	s1, a0, 0x14574 <consume_markers+0x124>
   145d8: 93 04 80 00  	addi	s1, zero, 0x8
   145dc: 23 26 94 18  	sw	s1, 0x18c(s0)
   145e0: 63 5c a0 12  	bge	zero, a0, 0x14718 <consume_markers+0x2c8>
   145e4: 03 35 84 12  	ld	a0, 0x128(s0)
   145e8: 93 09 00 00  	addi	s3, zero, 0x0
   145ec: 13 0a 85 02  	addi	s4, a0, 0x28
   145f0: 93 0a 10 00  	addi	s5, zero, 0x1
   145f4: 83 65 84 02  	lwu	a1, 0x28(s0)
   145f8: 03 25 0a fe  	lw	a0, -0x20(s4)
   145fc: 23 2e 9a fe  	sw	s1, -0x4(s4)
   14600: ef f0 51 0f  	jal	ra, 0x33ef4 <__muldi3>
   14604: 83 25 44 18  	lw	a1, 0x184(s0)
   14608: 9b 95 35 00  	slliw	a1, a1, 0x3
   1460c: ef a0 80 56  	jal	ra, 0x1eb74 <jdiv_round_up>
   14610: 83 65 c4 02  	lwu	a1, 0x2c(s0)
   14614: 03 26 4a fe  	lw	a2, -0x1c(s4)
   14618: 23 2a aa fe  	sw	a0, -0xc(s4)
   1461c: 13 05 06 00  	addi	a0, a2, 0x0
   14620: ef f0 51 0d  	jal	ra, 0x33ef4 <__muldi3>
   14624: 83 25 84 18  	lw	a1, 0x188(s0)
   14628: 9b 95 35 00  	slliw	a1, a1, 0x3
   1462c: ef a0 80 54  	jal	ra, 0x1eb74 <jdiv_round_up>
   14630: 83 65 84 02  	lwu	a1, 0x28(s0)
   14634: 03 26 0a fe  	lw	a2, -0x20(s4)
   14638: 23 2c aa fe  	sw	a0, -0x8(s4)
   1463c: 13 05 06 00  	addi	a0, a2, 0x0
   14640: ef f0 51 0b  	jal	ra, 0x33ef4 <__muldi3>
   14644: 83 25 44 18  	lw	a1, 0x184(s0)
   14648: ef a0 c0 52  	jal	ra, 0x1eb74 <jdiv_round_up>
   1464c: 83 65 c4 02  	lwu	a1, 0x2c(s0)
   14650: 03 26 4a fe  	lw	a2, -0x1c(s4)
   14654: 23 20 aa 00  	sw	a0, 0x0(s4)
   14658: 13 05 06 00  	addi	a0, a2, 0x0
   1465c: ef f0 91 09  	jal	ra, 0x33ef4 <__muldi3>
   14660: 83 25 84 18  	lw	a1, 0x188(s0)
   14664: ef a0 00 51  	jal	ra, 0x1eb74 <jdiv_round_up>
   14668: 23 22 aa 00  	sw	a0, 0x4(s4)
   1466c: 03 25 04 03  	lw	a0, 0x30(s0)
   14670: 23 24 5a 01  	sw	s5, 0x8(s4)
   14674: 23 34 0a 02  	sd	zero, 0x28(s4)
   14678: 9b 89 19 00  	addiw	s3, s3, 0x1
   1467c: 13 0a 0a 06  	addi	s4, s4, 0x60
   14680: e3 ca a9 f6  	blt	s3, a0, 0x145f4 <consume_markers+0x1a4>
   14684: 83 25 84 18  	lw	a1, 0x188(s0)
   14688: 6f 00 00 09  	jal	zero, 0x14718 <consume_markers+0x2c8>
   1468c: 03 25 89 02  	lw	a0, 0x28(s2)
   14690: 93 05 10 00  	addi	a1, zero, 0x1
   14694: 23 22 b9 02  	sw	a1, 0x24(s2)
   14698: 63 00 05 06  	beq	a0, zero, 0x146f8 <consume_markers+0x2a8>
   1469c: 03 35 84 23  	ld	a0, 0x238(s0)
   146a0: 03 25 45 0a  	lw	a0, 0xa4(a0)
   146a4: 93 04 20 00  	addi	s1, zero, 0x2
   146a8: e3 00 05 dc  	beq	a0, zero, 0x14468 <consume_markers+0x18>
   146ac: 03 35 04 00  	ld	a0, 0x0(s0)
   146b0: 83 35 05 00  	ld	a1, 0x0(a0)
   146b4: 13 06 a0 03  	addi	a2, zero, 0x3a
   146b8: 23 24 c5 02  	sw	a2, 0x28(a0)
   146bc: 13 05 04 00  	addi	a0, s0, 0x0
   146c0: e7 80 05 00  	jalr	ra, 0x0(a1)
   146c4: 6f f0 5f da  	jal	zero, 0x14468 <consume_markers+0x18>
   146c8: 03 25 09 02  	lw	a0, 0x20(s2)
   146cc: 63 1e 05 00  	bne	a0, zero, 0x146e8 <consume_markers+0x298>
   146d0: 03 35 04 00  	ld	a0, 0x0(s0)
   146d4: 83 35 05 00  	ld	a1, 0x0(a0)
   146d8: 13 06 20 02  	addi	a2, zero, 0x22
   146dc: 23 24 c5 02  	sw	a2, 0x28(a0)
   146e0: 13 05 04 00  	addi	a0, s0, 0x0
   146e4: e7 80 05 00  	jalr	ra, 0x0(a1)
   146e8: 13 05 04 00  	addi	a0, s0, 0x0
   146ec: ef 00 40 0b  	jal	ra, 0x147a0 <start_input_pass>
   146f0: 93 04 10 00  	addi	s1, zero, 0x1
   146f4: 6f f0 5f d7  	jal	zero, 0x14468 <consume_markers+0x18>
   146f8: 83 25 c4 0a  	lw	a1, 0xac(s0)
   146fc: 03 25 44 0a  	lw	a0, 0xa4(s0)
   14700: 93 04 20 00  	addi	s1, zero, 0x2
   14704: e3 52 b5 d6  	bge	a0, a1, 0x14468 <consume_markers+0x18>
   14708: 23 26 a4 0a  	sw	a0, 0xac(s0)
   1470c: 6f f0 df d5  	jal	zero, 0x14468 <consume_markers+0x18>
   14710: 13 05 80 00  	addi	a0, zero, 0x8
   14714: 23 26 a4 18  	sw	a0, 0x18c(s0)
   14718: 03 65 c4 02  	lwu	a0, 0x2c(s0)
   1471c: 9b 95 35 00  	slliw	a1, a1, 0x3
   14720: ef a0 40 45  	jal	ra, 0x1eb74 <jdiv_round_up>
   14724: 83 25 04 1a  	lw	a1, 0x1a0(s0)
   14728: 03 26 04 03  	lw	a2, 0x30(s0)
   1472c: 23 28 a4 18  	sw	a0, 0x190(s0)
   14730: 93 04 10 00  	addi	s1, zero, 0x1
   14734: 13 05 10 00  	addi	a0, zero, 0x1
   14738: 63 c6 c5 00  	blt	a1, a2, 0x14744 <consume_markers+0x2f4>
   1473c: 03 25 04 13  	lw	a0, 0x130(s0)
   14740: 33 35 a0 00  	sltu	a0, zero, a0
   14744: 83 35 04 23  	ld	a1, 0x230(s0)
   14748: 23 a0 a5 02  	sw	a0, 0x20(a1)
   1474c: 23 24 09 02  	sw	zero, 0x28(s2)
   14750: 6f f0 9f d1  	jal	zero, 0x14468 <consume_markers+0x18>

0000000000014754 <reset_input_controller>:
   14754: ef f2 c1 76  	jal	t0, 0x33ec0 <__riscv_save_1>
   14758: 13 04 05 00  	addi	s0, a0, 0x0
   1475c: 03 35 05 23  	ld	a0, 0x230(a0)
   14760: 23 30 05 02  	sd	zero, 0x20(a0)
   14764: 83 35 04 00  	ld	a1, 0x0(s0)
   14768: 37 46 01 00  	lui	a2, 0x14
   1476c: 13 06 06 45  	addi	a2, a2, 0x450
   14770: 83 b5 05 02  	ld	a1, 0x20(a1)
   14774: 23 30 c5 00  	sd	a2, 0x0(a0)
   14778: 13 06 10 00  	addi	a2, zero, 0x1
   1477c: 23 24 c5 02  	sw	a2, 0x28(a0)
   14780: 13 05 04 00  	addi	a0, s0, 0x0
   14784: e7 80 05 00  	jalr	ra, 0x0(a1)
   14788: 03 35 84 23  	ld	a0, 0x238(s0)
   1478c: 83 35 05 00  	ld	a1, 0x0(a0)
   14790: 13 05 04 00  	addi	a0, s0, 0x0
   14794: e7 80 05 00  	jalr	ra, 0x0(a1)
   14798: 23 3c 04 0a  	sd	zero, 0xb8(s0)
   1479c: 6f f0 e1 74  	jal	zero, 0x33eea <__riscv_restore_1>

00000000000147a0 <start_input_pass>:
   147a0: ef f2 01 6f  	jal	t0, 0x33e90 <__riscv_save_9>
   147a4: 13 04 05 00  	addi	s0, a0, 0x0
   147a8: 03 25 05 1a  	lw	a0, 0x1a0(a0)
   147ac: 13 09 10 00  	addi	s2, zero, 0x1
   147b0: 63 12 25 07  	bne	a0, s2, 0x14814 <start_input_pass+0x74>
   147b4: 83 34 84 1a  	ld	s1, 0x1a8(s0)
   147b8: 03 a5 c4 01  	lw	a0, 0x1c(s1)
   147bc: 83 a5 04 02  	lw	a1, 0x20(s1)
   147c0: 23 24 a4 1c  	sw	a0, 0x1c8(s0)
   147c4: 13 95 05 02  	slli	a0, a1, 0x20
   147c8: 13 55 05 02  	srli	a0, a0, 0x20
   147cc: 23 26 b4 1c  	sw	a1, 0x1cc(s0)
   147d0: 93 15 09 02  	slli	a1, s2, 0x20
   147d4: 93 85 15 00  	addi	a1, a1, 0x1
   147d8: 03 a6 44 02  	lw	a2, 0x24(s1)
   147dc: 23 bc b4 02  	sd	a1, 0x38(s1)
   147e0: 83 a9 c4 00  	lw	s3, 0xc(s1)
   147e4: 23 aa 24 03  	sw	s2, 0x34(s1)
   147e8: 23 a0 c4 04  	sw	a2, 0x40(s1)
   147ec: 23 a2 24 05  	sw	s2, 0x44(s1)
   147f0: 93 95 09 02  	slli	a1, s3, 0x20
   147f4: 93 d5 05 02  	srli	a1, a1, 0x20
   147f8: ef f0 01 77  	jal	ra, 0x33f68 <__umoddi3>
   147fc: 63 04 05 00  	beq	a0, zero, 0x14804 <start_input_pass+0x64>
   14800: 93 09 05 00  	addi	s3, a0, 0x0
   14804: 23 a4 34 05  	sw	s3, 0x48(s1)
   14808: 23 28 24 1d  	sw	s2, 0x1d0(s0)
   1480c: 23 2a 04 1c  	sw	zero, 0x1d4(s0)
   14810: 6f 00 00 16  	jal	zero, 0x14970 <start_input_pass+0x1d0>
   14814: 9b 05 b5 ff  	addiw	a1, a0, -0x5
   14818: 13 06 b0 ff  	addi	a2, zero, -0x5
   1481c: 63 68 b6 02  	bltu	a2, a1, 0x1484c <start_input_pass+0xac>
   14820: 83 35 04 00  	ld	a1, 0x0(s0)
   14824: 23 a6 a5 02  	sw	a0, 0x2c(a1)
   14828: 03 35 04 00  	ld	a0, 0x0(s0)
   1482c: 13 06 80 01  	addi	a2, zero, 0x18
   14830: 23 a4 c5 02  	sw	a2, 0x28(a1)
   14834: 93 05 40 00  	addi	a1, zero, 0x4
   14838: 23 28 b5 02  	sw	a1, 0x30(a0)
   1483c: 03 35 04 00  	ld	a0, 0x0(s0)
   14840: 83 35 05 00  	ld	a1, 0x0(a0)
   14844: 13 05 04 00  	addi	a0, s0, 0x0
   14848: e7 80 05 00  	jalr	ra, 0x0(a1)
   1484c: 83 25 44 18  	lw	a1, 0x184(s0)
   14850: 03 65 84 02  	lwu	a0, 0x28(s0)
   14854: 9b 95 35 00  	slliw	a1, a1, 0x3
   14858: ef a0 c0 31  	jal	ra, 0x1eb74 <jdiv_round_up>
   1485c: 83 25 84 18  	lw	a1, 0x188(s0)
   14860: 03 66 c4 02  	lwu	a2, 0x2c(s0)
   14864: 23 24 a4 1c  	sw	a0, 0x1c8(s0)
   14868: 9b 95 35 00  	slliw	a1, a1, 0x3
   1486c: 13 05 06 00  	addi	a0, a2, 0x0
   14870: ef a0 40 30  	jal	ra, 0x1eb74 <jdiv_round_up>
   14874: 83 25 04 1a  	lw	a1, 0x1a0(s0)
   14878: 23 26 a4 1c  	sw	a0, 0x1cc(s0)
   1487c: 23 28 04 1c  	sw	zero, 0x1d0(s0)
   14880: 63 52 b0 18  	bge	zero, a1, 0x14a04 <start_input_pass+0x264>
   14884: 93 0a 00 00  	addi	s5, zero, 0x0
   14888: 13 0b b0 00  	addi	s6, zero, 0xb
   1488c: 93 0b 10 00  	addi	s7, zero, 0x1
   14890: 13 95 3a 00  	slli	a0, s5, 0x3
   14894: 33 05 a4 00  	add	a0, s0, a0
   14898: 03 3c 85 1a  	ld	s8, 0x1a8(a0)
   1489c: 83 29 8c 00  	lw	s3, 0x8(s8)
   148a0: 03 29 cc 00  	lw	s2, 0xc(s8)
   148a4: 13 95 09 02  	slli	a0, s3, 0x20
   148a8: 13 5a 05 02  	srli	s4, a0, 0x20
   148ac: 23 2a 3c 03  	sw	s3, 0x34(s8)
   148b0: 23 2c 2c 03  	sw	s2, 0x38(s8)
   148b4: 13 05 09 00  	addi	a0, s2, 0x0
   148b8: 93 85 09 00  	addi	a1, s3, 0x0
   148bc: ef f0 81 63  	jal	ra, 0x33ef4 <__muldi3>
   148c0: 83 25 4c 02  	lw	a1, 0x24(s8)
   148c4: 93 04 05 00  	addi	s1, a0, 0x0
   148c8: 23 2e ac 02  	sw	a0, 0x3c(s8)
   148cc: 13 85 05 00  	addi	a0, a1, 0x0
   148d0: 93 85 09 00  	addi	a1, s3, 0x0
   148d4: ef f0 01 62  	jal	ra, 0x33ef4 <__muldi3>
   148d8: 83 65 cc 01  	lwu	a1, 0x1c(s8)
   148dc: 23 20 ac 04  	sw	a0, 0x40(s8)
   148e0: 13 85 05 00  	addi	a0, a1, 0x0
   148e4: 93 05 0a 00  	addi	a1, s4, 0x0
   148e8: ef f0 01 68  	jal	ra, 0x33f68 <__umoddi3>
   148ec: 63 04 05 00  	beq	a0, zero, 0x148f4 <start_input_pass+0x154>
   148f0: 93 09 05 00  	addi	s3, a0, 0x0
   148f4: 03 65 0c 02  	lwu	a0, 0x20(s8)
   148f8: 23 22 3c 05  	sw	s3, 0x44(s8)
   148fc: 93 15 09 02  	slli	a1, s2, 0x20
   14900: 93 d5 05 02  	srli	a1, a1, 0x20
   14904: ef f0 41 66  	jal	ra, 0x33f68 <__umoddi3>
   14908: 63 04 05 00  	beq	a0, zero, 0x14910 <start_input_pass+0x170>
   1490c: 13 09 05 00  	addi	s2, a0, 0x0
   14910: 03 25 04 1d  	lw	a0, 0x1d0(s0)
   14914: 3b 05 95 00  	addw	a0, a0, s1
   14918: 23 24 2c 05  	sw	s2, 0x48(s8)
   1491c: 63 4c 65 01  	blt	a0, s6, 0x14934 <start_input_pass+0x194>
   14920: 03 35 04 00  	ld	a0, 0x0(s0)
   14924: 83 35 05 00  	ld	a1, 0x0(a0)
   14928: 23 24 65 03  	sw	s6, 0x28(a0)
   1492c: 13 05 04 00  	addi	a0, s0, 0x0
   14930: e7 80 05 00  	jalr	ra, 0x0(a1)
   14934: 1b 85 04 00  	addiw	a0, s1, 0x0
   14938: 63 54 a0 02  	bge	zero, a0, 0x14960 <start_input_pass+0x1c0>
   1493c: 13 05 15 00  	addi	a0, a0, 0x1
   14940: 83 25 04 1d  	lw	a1, 0x1d0(s0)
   14944: 13 86 15 00  	addi	a2, a1, 0x1
   14948: 23 28 c4 1c  	sw	a2, 0x1d0(s0)
   1494c: 93 95 25 00  	slli	a1, a1, 0x2
   14950: b3 05 b4 00  	add	a1, s0, a1
   14954: 1b 05 f5 ff  	addiw	a0, a0, -0x1
   14958: 23 aa 55 1d  	sw	s5, 0x1d4(a1)
   1495c: e3 e2 ab fe  	bltu	s7, a0, 0x14940 <start_input_pass+0x1a0>
   14960: 03 29 04 1a  	lw	s2, 0x1a0(s0)
   14964: 93 8a 1a 00  	addi	s5, s5, 0x1
   14968: e3 c4 2a f3  	blt	s5, s2, 0x14890 <start_input_pass+0xf0>
   1496c: 63 5c 20 09  	bge	zero, s2, 0x14a04 <start_input_pass+0x264>
   14970: 93 09 00 00  	addi	s3, zero, 0x0
   14974: 13 0a 84 1a  	addi	s4, s0, 0x1a8
   14978: 93 0a 30 00  	addi	s5, zero, 0x3
   1497c: 13 0b 30 03  	addi	s6, zero, 0x33
   14980: 83 3b 0a 00  	ld	s7, 0x0(s4)
   14984: 03 b5 0b 05  	ld	a0, 0x50(s7)
   14988: 63 18 05 06  	bne	a0, zero, 0x149f8 <start_input_pass+0x258>
   1498c: 83 a4 0b 01  	lw	s1, 0x10(s7)
   14990: 63 ea 9a 00  	bltu	s5, s1, 0x149a4 <start_input_pass+0x204>
   14994: 13 95 34 00  	slli	a0, s1, 0x3
   14998: 33 05 a4 00  	add	a0, s0, a0
   1499c: 03 35 05 0c  	ld	a0, 0xc0(a0)
   149a0: 63 10 05 02  	bne	a0, zero, 0x149c0 <start_input_pass+0x220>
   149a4: 03 35 04 00  	ld	a0, 0x0(s0)
   149a8: 23 26 95 02  	sw	s1, 0x2c(a0)
   149ac: 83 35 04 00  	ld	a1, 0x0(s0)
   149b0: 83 b5 05 00  	ld	a1, 0x0(a1)
   149b4: 23 24 65 03  	sw	s6, 0x28(a0)
   149b8: 13 05 04 00  	addi	a0, s0, 0x0
   149bc: e7 80 05 00  	jalr	ra, 0x0(a1)
   149c0: 03 35 84 00  	ld	a0, 0x8(s0)
   149c4: 83 36 05 00  	ld	a3, 0x0(a0)
   149c8: 93 05 10 00  	addi	a1, zero, 0x1
   149cc: 13 06 40 08  	addi	a2, zero, 0x84
   149d0: 13 05 04 00  	addi	a0, s0, 0x0
   149d4: e7 80 06 00  	jalr	ra, 0x0(a3)
   149d8: 93 94 34 00  	slli	s1, s1, 0x3
   149dc: b3 04 94 00  	add	s1, s0, s1
   149e0: 83 b5 04 0c  	ld	a1, 0xc0(s1)
   149e4: 93 04 05 00  	addi	s1, a0, 0x0
   149e8: 13 06 40 08  	addi	a2, zero, 0x84
   149ec: ef d0 e0 3b  	jal	ra, 0x21daa <memcpy>
   149f0: 03 29 04 1a  	lw	s2, 0x1a0(s0)
   149f4: 23 b8 9b 04  	sd	s1, 0x50(s7)
   149f8: 93 89 19 00  	addi	s3, s3, 0x1
   149fc: 13 0a 8a 00  	addi	s4, s4, 0x8
   14a00: e3 c0 29 f9  	blt	s3, s2, 0x14980 <start_input_pass+0x1e0>
   14a04: 03 35 04 24  	ld	a0, 0x240(s0)
   14a08: 83 35 05 00  	ld	a1, 0x0(a0)
   14a0c: 13 05 04 00  	addi	a0, s0, 0x0
   14a10: e7 80 05 00  	jalr	ra, 0x0(a1)
   14a14: 03 35 04 22  	ld	a0, 0x220(s0)
   14a18: 83 35 05 00  	ld	a1, 0x0(a0)
   14a1c: 13 05 04 00  	addi	a0, s0, 0x0
   14a20: e7 80 05 00  	jalr	ra, 0x0(a1)
   14a24: 03 35 04 22  	ld	a0, 0x220(s0)
   14a28: 03 35 85 00  	ld	a0, 0x8(a0)
   14a2c: 83 35 04 23  	ld	a1, 0x230(s0)
   14a30: 23 b0 a5 00  	sd	a0, 0x0(a1)
   14a34: 6f f0 e1 49  	jal	zero, 0x33ed2 <__riscv_restore_9>

0000000000014a38 <finish_input_pass>:
   14a38: 03 35 05 23  	ld	a0, 0x230(a0)
   14a3c: b7 45 01 00  	lui	a1, 0x14
   14a40: 93 85 05 45  	addi	a1, a1, 0x450
   14a44: 23 30 b5 00  	sd	a1, 0x0(a0)
   14a48: 67 80 00 00  	jalr	zero, 0x0(ra)

0000000000014a4c <jpeg_resync_to_restart>:
   14a4c: ef f2 a1 43  	jal	t0, 0x33e86 <__riscv_save_11>
   14a50: 13 04 05 00  	addi	s0, a0, 0x0
   14a54: 03 29 c5 20  	lw	s2, 0x20c(a0)
   14a58: 03 35 05 00  	ld	a0, 0x0(a0)
   14a5c: 23 26 25 03  	sw	s2, 0x2c(a0)
   14a60: 03 36 04 00  	ld	a2, 0x0(s0)
   14a64: 93 84 05 00  	addi	s1, a1, 0x0
   14a68: 93 05 50 07  	addi	a1, zero, 0x75
   14a6c: 23 24 b5 02  	sw	a1, 0x28(a0)
   14a70: 23 28 96 02  	sw	s1, 0x30(a2)
   14a74: 03 35 04 00  	ld	a0, 0x0(s0)
   14a78: 03 36 85 00  	ld	a2, 0x8(a0)
   14a7c: 93 05 f0 ff  	addi	a1, zero, -0x1
   14a80: 13 05 04 00  	addi	a0, s0, 0x0
   14a84: e7 00 06 00  	jalr	ra, 0x0(a2)
   14a88: 13 85 14 00  	addi	a0, s1, 0x1
   14a8c: 13 75 75 00  	andi	a0, a0, 0x7
   14a90: 93 09 05 0d  	addi	s3, a0, 0xd0
   14a94: 13 85 24 00  	addi	a0, s1, 0x2
   14a98: 13 75 75 00  	andi	a0, a0, 0x7
   14a9c: 13 0a 05 0d  	addi	s4, a0, 0xd0
   14aa0: 13 85 f4 ff  	addi	a0, s1, -0x1
   14aa4: 13 75 75 00  	andi	a0, a0, 0x7
   14aa8: 93 0a 05 0d  	addi	s5, a0, 0xd0
   14aac: 93 84 64 00  	addi	s1, s1, 0x6
   14ab0: 93 f4 74 00  	andi	s1, s1, 0x7
   14ab4: 93 84 04 0d  	addi	s1, s1, 0xd0
   14ab8: 13 0b 00 0c  	addi	s6, zero, 0xc0
   14abc: 93 0b 00 06  	addi	s7, zero, 0x60
   14ac0: 13 0c 20 00  	addi	s8, zero, 0x2
   14ac4: 93 0c 80 ff  	addi	s9, zero, -0x8
   14ac8: 63 4e 69 01  	blt	s2, s6, 0x14ae4 <jpeg_resync_to_restart+0x98>
   14acc: 1b 05 89 f2  	addiw	a0, s2, -0xd8
   14ad0: 63 6e 95 05  	bltu	a0, s9, 0x14b2c <jpeg_resync_to_restart+0xe0>
   14ad4: 63 0c 39 05  	beq	s2, s3, 0x14b2c <jpeg_resync_to_restart+0xe0>
   14ad8: 63 0a 49 05  	beq	s2, s4, 0x14b2c <jpeg_resync_to_restart+0xe0>
   14adc: 63 04 59 01  	beq	s2, s5, 0x14ae4 <jpeg_resync_to_restart+0x98>
   14ae0: 63 12 99 08  	bne	s2, s1, 0x14b64 <jpeg_resync_to_restart+0x118>
   14ae4: 03 35 04 00  	ld	a0, 0x0(s0)
   14ae8: 23 26 25 03  	sw	s2, 0x2c(a0)
   14aec: 83 35 04 00  	ld	a1, 0x0(s0)
   14af0: 23 24 75 03  	sw	s7, 0x28(a0)
   14af4: 23 a8 85 03  	sw	s8, 0x30(a1)
   14af8: 03 35 04 00  	ld	a0, 0x0(s0)
   14afc: 03 36 85 00  	ld	a2, 0x8(a0)
   14b00: 93 05 40 00  	addi	a1, zero, 0x4
   14b04: 13 05 04 00  	addi	a0, s0, 0x0
   14b08: e7 00 06 00  	jalr	ra, 0x0(a2)
   14b0c: 13 05 04 00  	addi	a0, s0, 0x0
   14b10: ef 00 00 09  	jal	ra, 0x14ba0 <next_marker>
   14b14: 63 08 05 00  	beq	a0, zero, 0x14b24 <jpeg_resync_to_restart+0xd8>
   14b18: 03 29 c4 20  	lw	s2, 0x20c(s0)
   14b1c: e3 58 69 fb  	bge	s2, s6, 0x14acc <jpeg_resync_to_restart+0x80>
   14b20: 6f f0 5f fc  	jal	zero, 0x14ae4 <jpeg_resync_to_restart+0x98>
   14b24: 93 04 00 00  	addi	s1, zero, 0x0
   14b28: 6f 00 00 07  	jal	zero, 0x14b98 <jpeg_resync_to_restart+0x14c>
   14b2c: 03 35 04 00  	ld	a0, 0x0(s0)
   14b30: 23 26 25 03  	sw	s2, 0x2c(a0)
   14b34: 83 35 04 00  	ld	a1, 0x0(s0)
   14b38: 13 06 00 06  	addi	a2, zero, 0x60
   14b3c: 23 24 c5 02  	sw	a2, 0x28(a0)
   14b40: 13 05 30 00  	addi	a0, zero, 0x3
   14b44: 23 a8 a5 02  	sw	a0, 0x30(a1)
   14b48: 03 35 04 00  	ld	a0, 0x0(s0)
   14b4c: 03 36 85 00  	ld	a2, 0x8(a0)
   14b50: 93 05 40 00  	addi	a1, zero, 0x4
   14b54: 13 05 04 00  	addi	a0, s0, 0x0
   14b58: e7 00 06 00  	jalr	ra, 0x0(a2)
   14b5c: 93 04 10 00  	addi	s1, zero, 0x1
   14b60: 6f 00 80 03  	jal	zero, 0x14b98 <jpeg_resync_to_restart+0x14c>
   14b64: 03 35 04 00  	ld	a0, 0x0(s0)
   14b68: 23 26 25 03  	sw	s2, 0x2c(a0)
   14b6c: 83 35 04 00  	ld	a1, 0x0(s0)
   14b70: 13 06 00 06  	addi	a2, zero, 0x60
   14b74: 23 24 c5 02  	sw	a2, 0x28(a0)
   14b78: 93 04 10 00  	addi	s1, zero, 0x1
   14b7c: 23 a8 95 02  	sw	s1, 0x30(a1)
   14b80: 03 35 04 00  	ld	a0, 0x0(s0)
   14b84: 03 36 85 00  	ld	a2, 0x8(a0)
   14b88: 93 05 40 00  	addi	a1, zero, 0x4
   14b8c: 13 05 04 00  	addi	a0, s0, 0x0
   14b90: e7 00 06 00  	jalr	ra, 0x0(a2)
   14b94: 23 26 04 20  	sw	zero, 0x20c(s0)
   14b98: 13 85 04 00  	addi	a0, s1, 0x0
   14b9c: 6f f0 01 33  	jal	zero, 0x33ecc <__riscv_restore_11>

0000000000014ba0 <next_marker>:
   14ba0: ef f2 a1 2f  	jal	t0, 0x33e9a <__riscv_save_7>
   14ba4: 13 04 05 00  	addi	s0, a0, 0x0
   14ba8: 83 34 05 02  	ld	s1, 0x20(a0)
   14bac: 03 ba 04 00  	ld	s4, 0x0(s1)
   14bb0: 03 b9 84 00  	ld	s2, 0x8(s1)
   14bb4: 93 09 f0 0f  	addi	s3, zero, 0xff
   14bb8: 63 1e 09 00  	bne	s2, zero, 0x14bd4 <next_marker+0x34>
   14bbc: 83 b5 84 01  	ld	a1, 0x18(s1)
   14bc0: 13 05 04 00  	addi	a0, s0, 0x0
   14bc4: e7 80 05 00  	jalr	ra, 0x0(a1)
   14bc8: 63 06 05 10  	beq	a0, zero, 0x14cd4 <next_marker+0x134>
   14bcc: 03 ba 04 00  	ld	s4, 0x0(s1)
   14bd0: 03 b9 84 00  	ld	s2, 0x8(s1)
   14bd4: 83 45 0a 00  	lbu	a1, 0x0(s4)
   14bd8: 13 05 1a 00  	addi	a0, s4, 0x1
   14bdc: 13 09 f9 ff  	addi	s2, s2, -0x1
   14be0: 63 88 35 05  	beq	a1, s3, 0x14c30 <next_marker+0x90>
   14be4: 83 35 84 23  	ld	a1, 0x238(s0)
   14be8: 03 a6 c5 0a  	lw	a2, 0xac(a1)
   14bec: 13 06 16 00  	addi	a2, a2, 0x1
   14bf0: 23 a6 c5 0a  	sw	a2, 0xac(a1)
   14bf4: 23 b0 a4 00  	sd	a0, 0x0(s1)
   14bf8: 23 b4 24 01  	sd	s2, 0x8(s1)
   14bfc: 63 1e 09 00  	bne	s2, zero, 0x14c18 <next_marker+0x78>
   14c00: 83 b5 84 01  	ld	a1, 0x18(s1)
   14c04: 13 05 04 00  	addi	a0, s0, 0x0
   14c08: e7 80 05 00  	jalr	ra, 0x0(a1)
   14c0c: 63 04 05 0c  	beq	a0, zero, 0x14cd4 <next_marker+0x134>
   14c10: 03 b5 04 00  	ld	a0, 0x0(s1)
   14c14: 03 b9 84 00  	ld	s2, 0x8(s1)
   14c18: 83 45 05 00  	lbu	a1, 0x0(a0)
   14c1c: 13 0a 15 00  	addi	s4, a0, 0x1
   14c20: 13 09 f9 ff  	addi	s2, s2, -0x1
   14c24: 13 05 0a 00  	addi	a0, s4, 0x0
   14c28: e3 9e 35 fb  	bne	a1, s3, 0x14be4 <next_marker+0x44>
   14c2c: 6f 00 80 00  	jal	zero, 0x14c34 <next_marker+0x94>
   14c30: 13 0a 05 00  	addi	s4, a0, 0x0
   14c34: 63 1e 09 00  	bne	s2, zero, 0x14c50 <next_marker+0xb0>
   14c38: 83 b5 84 01  	ld	a1, 0x18(s1)
   14c3c: 13 05 04 00  	addi	a0, s0, 0x0
   14c40: e7 80 05 00  	jalr	ra, 0x0(a1)
   14c44: 63 08 05 08  	beq	a0, zero, 0x14cd4 <next_marker+0x134>
   14c48: 03 ba 04 00  	ld	s4, 0x0(s1)
   14c4c: 03 b9 84 00  	ld	s2, 0x8(s1)
   14c50: 83 4a 0a 00  	lbu	s5, 0x0(s4)
   14c54: 13 09 f9 ff  	addi	s2, s2, -0x1
   14c58: 13 0a 1a 00  	addi	s4, s4, 0x1
   14c5c: e3 8c 3a fd  	beq	s5, s3, 0x14c34 <next_marker+0x94>
   14c60: 63 92 0a 02  	bne	s5, zero, 0x14c84 <next_marker+0xe4>
   14c64: 03 35 84 23  	ld	a0, 0x238(s0)
   14c68: 83 25 c5 0a  	lw	a1, 0xac(a0)
   14c6c: 93 85 25 00  	addi	a1, a1, 0x2
   14c70: 23 26 b5 0a  	sw	a1, 0xac(a0)
   14c74: 23 b0 44 01  	sd	s4, 0x0(s1)
   14c78: 23 b4 24 01  	sd	s2, 0x8(s1)
   14c7c: e3 1c 09 f4  	bne	s2, zero, 0x14bd4 <next_marker+0x34>
   14c80: 6f f0 df f3  	jal	zero, 0x14bbc <next_marker+0x1c>
   14c84: 03 35 84 23  	ld	a0, 0x238(s0)
   14c88: 03 25 c5 0a  	lw	a0, 0xac(a0)
   14c8c: 63 0c 05 02  	beq	a0, zero, 0x14cc4 <next_marker+0x124>
   14c90: 83 35 04 00  	ld	a1, 0x0(s0)
   14c94: 23 a6 a5 02  	sw	a0, 0x2c(a1)
   14c98: 03 35 04 00  	ld	a0, 0x0(s0)
   14c9c: 13 06 00 07  	addi	a2, zero, 0x70
   14ca0: 23 a4 c5 02  	sw	a2, 0x28(a1)
   14ca4: 23 28 55 03  	sw	s5, 0x30(a0)
   14ca8: 03 35 04 00  	ld	a0, 0x0(s0)
   14cac: 03 36 85 00  	ld	a2, 0x8(a0)
   14cb0: 93 05 f0 ff  	addi	a1, zero, -0x1
   14cb4: 13 05 04 00  	addi	a0, s0, 0x0
   14cb8: e7 00 06 00  	jalr	ra, 0x0(a2)
   14cbc: 03 35 84 23  	ld	a0, 0x238(s0)
   14cc0: 23 26 05 0a  	sw	zero, 0xac(a0)
   14cc4: 23 26 54 21  	sw	s5, 0x20c(s0)
   14cc8: 23 b0 44 01  	sd	s4, 0x0(s1)
   14ccc: 23 b4 24 01  	sd	s2, 0x8(s1)
   14cd0: 13 05 10 00  	addi	a0, zero, 0x1
   14cd4: 6f f0 41 20  	jal	zero, 0x33ed8 <__riscv_restore_7>

0000000000014cd8 <jinit_marker_reader>:
   14cd8: ef f2 81 1e  	jal	t0, 0x33ec0 <__riscv_save_1>
   14cdc: 13 04 05 00  	addi	s0, a0, 0x0
   14ce0: 03 35 85 00  	ld	a0, 0x8(a0)
   14ce4: 83 36 05 00  	ld	a3, 0x0(a0)
   14ce8: 13 06 00 0b  	addi	a2, zero, 0xb0
   14cec: 13 05 04 00  	addi	a0, s0, 0x0
   14cf0: 93 05 00 00  	addi	a1, zero, 0x0
   14cf4: e7 80 06 00  	jalr	ra, 0x0(a3)
   14cf8: 23 3c a4 22  	sd	a0, 0x238(s0)
   14cfc: b7 55 01 00  	lui	a1, 0x15
   14d00: 93 85 45 d8  	addi	a1, a1, -0x27c
   14d04: 23 30 b5 00  	sd	a1, 0x0(a0)
   14d08: b7 55 01 00  	lui	a1, 0x15
   14d0c: 93 85 05 da  	addi	a1, a1, -0x260
   14d10: 23 34 b5 00  	sd	a1, 0x8(a0)
   14d14: b7 65 01 00  	lui	a1, 0x16
   14d18: 93 85 85 b9  	addi	a1, a1, -0x468
   14d1c: 23 38 b5 00  	sd	a1, 0x10(a0)
   14d20: b7 65 01 00  	lui	a1, 0x16
   14d24: 93 85 45 c2  	addi	a1, a1, -0x3dc
   14d28: 23 3c b5 00  	sd	a1, 0x18(a0)
   14d2c: 13 05 00 02  	addi	a0, zero, 0x20
   14d30: 13 06 00 0a  	addi	a2, zero, 0xa0
   14d34: 83 36 84 23  	ld	a3, 0x238(s0)
   14d38: b3 86 a6 00  	add	a3, a3, a0
   14d3c: 13 05 85 00  	addi	a0, a0, 0x8
   14d40: 23 b0 b6 00  	sd	a1, 0x0(a3)
   14d44: e3 18 c5 fe  	bne	a0, a2, 0x14d34 <jinit_marker_reader+0x5c>
   14d48: 03 35 84 23  	ld	a0, 0x238(s0)
   14d4c: b7 65 01 00  	lui	a1, 0x16
   14d50: 93 85 05 cf  	addi	a1, a1, -0x310
   14d54: 23 30 b5 02  	sd	a1, 0x20(a0)
   14d58: 03 35 84 23  	ld	a0, 0x238(s0)
   14d5c: b7 65 01 00  	lui	a1, 0x16
   14d60: 93 85 45 f9  	addi	a1, a1, -0x6c
   14d64: 23 38 b5 08  	sd	a1, 0x90(a0)
   14d68: 03 35 84 23  	ld	a0, 0x238(s0)
   14d6c: 23 34 04 12  	sd	zero, 0x128(s0)
   14d70: 23 22 04 0a  	sw	zero, 0xa4(s0)
   14d74: 23 26 04 20  	sw	zero, 0x20c(s0)
   14d78: 23 30 05 0a  	sd	zero, 0xa0(a0)
   14d7c: 23 26 05 0a  	sw	zero, 0xac(a0)
   14d80: 6f f0 a1 16  	jal	zero, 0x33eea <__riscv_restore_1>

0000000000014d84 <reset_marker_reader>:
   14d84: 83 35 85 23  	ld	a1, 0x238(a0)
   14d88: 23 34 05 12  	sd	zero, 0x128(a0)
   14d8c: 23 22 05 0a  	sw	zero, 0xa4(a0)
   14d90: 23 26 05 20  	sw	zero, 0x20c(a0)
   14d94: 23 b0 05 0a  	sd	zero, 0xa0(a1)
   14d98: 23 a6 05 0a  	sw	zero, 0xac(a1)
   14d9c: 67 80 00 00  	jalr	zero, 0x0(ra)

0000000000014da0 <read_markers>:
   14da0: ef f2 e1 0d  	jal	t0, 0x33e7e <__riscv_save_12>
   14da4: 13 01 01 ec  	addi	sp, sp, -0x140
   14da8: 13 04 05 00  	addi	s0, a0, 0x0
   14dac: 93 0b 85 16  	addi	s7, a0, 0x168
   14db0: 93 0c 85 13  	addi	s9, a0, 0x138
   14db4: 93 0d 85 14  	addi	s11, a0, 0x148
   14db8: 13 05 85 15  	addi	a0, a0, 0x158
   14dbc: 23 3c a1 00  	sd	a0, 0x18(sp)
   14dc0: 83 24 c4 20  	lw	s1, 0x20c(s0)
   14dc4: 13 0d e0 03  	addi	s10, zero, 0x3e
   14dc8: 37 65 03 00  	lui	a0, 0x36
   14dcc: 13 0c 85 dd  	addi	s8, a0, -0x228
   14dd0: 37 65 03 00  	lui	a0, 0x36
   14dd4: 13 05 c5 1b  	addi	a0, a0, 0x1bc
   14dd8: 23 30 a1 02  	sd	a0, 0x20(sp)
   14ddc: 63 92 04 0c  	bne	s1, zero, 0x14ea0 <read_markers+0x100>
   14de0: 03 35 84 23  	ld	a0, 0x238(s0)
   14de4: 03 25 05 0a  	lw	a0, 0xa0(a0)
   14de8: 63 0c 05 00  	beq	a0, zero, 0x14e00 <read_markers+0x60>
   14dec: 13 05 04 00  	addi	a0, s0, 0x0
   14df0: ef f0 1f db  	jal	ra, 0x14ba0 <next_marker>
   14df4: e3 0a 05 58  	beq	a0, zero, 0x15b88 <read_markers+0xde8>
   14df8: 83 24 c4 20  	lw	s1, 0x20c(s0)
   14dfc: 6f 00 40 0a  	jal	zero, 0x14ea0 <read_markers+0x100>
   14e00: 03 39 04 02  	ld	s2, 0x20(s0)
   14e04: 03 3a 89 00  	ld	s4, 0x8(s2)
   14e08: 63 1c 0a 00  	bne	s4, zero, 0x14e20 <read_markers+0x80>
   14e0c: 83 35 89 01  	ld	a1, 0x18(s2)
   14e10: 13 05 04 00  	addi	a0, s0, 0x0
   14e14: e7 80 05 00  	jalr	ra, 0x0(a1)
   14e18: e3 08 05 56  	beq	a0, zero, 0x15b88 <read_markers+0xde8>
   14e1c: 03 3a 89 00  	ld	s4, 0x8(s2)
   14e20: 83 3a 09 00  	ld	s5, 0x0(s2)
   14e24: 83 c9 0a 00  	lbu	s3, 0x0(s5)
   14e28: 13 0a fa ff  	addi	s4, s4, -0x1
   14e2c: 63 06 0a 00  	beq	s4, zero, 0x14e38 <read_markers+0x98>
   14e30: 93 8a 1a 00  	addi	s5, s5, 0x1
   14e34: 6f 00 c0 01  	jal	zero, 0x14e50 <read_markers+0xb0>
   14e38: 83 35 89 01  	ld	a1, 0x18(s2)
   14e3c: 13 05 04 00  	addi	a0, s0, 0x0
   14e40: e7 80 05 00  	jalr	ra, 0x0(a1)
   14e44: e3 02 05 54  	beq	a0, zero, 0x15b88 <read_markers+0xde8>
   14e48: 83 3a 09 00  	ld	s5, 0x0(s2)
   14e4c: 03 3a 89 00  	ld	s4, 0x8(s2)
   14e50: 83 c4 0a 00  	lbu	s1, 0x0(s5)
   14e54: 13 05 f0 0f  	addi	a0, zero, 0xff
   14e58: 63 96 a9 00  	bne	s3, a0, 0x14e64 <read_markers+0xc4>
   14e5c: 13 05 80 0d  	addi	a0, zero, 0xd8
   14e60: 63 86 a4 02  	beq	s1, a0, 0x14e8c <read_markers+0xec>
   14e64: 03 35 04 00  	ld	a0, 0x0(s0)
   14e68: 23 26 35 03  	sw	s3, 0x2c(a0)
   14e6c: 83 35 04 00  	ld	a1, 0x0(s0)
   14e70: 13 06 40 03  	addi	a2, zero, 0x34
   14e74: 23 24 c5 02  	sw	a2, 0x28(a0)
   14e78: 23 a8 95 02  	sw	s1, 0x30(a1)
   14e7c: 03 35 04 00  	ld	a0, 0x0(s0)
   14e80: 83 35 05 00  	ld	a1, 0x0(a0)
   14e84: 13 05 04 00  	addi	a0, s0, 0x0
   14e88: e7 80 05 00  	jalr	ra, 0x0(a1)
   14e8c: 13 0a fa ff  	addi	s4, s4, -0x1
   14e90: 93 8a 1a 00  	addi	s5, s5, 0x1
   14e94: 23 26 94 20  	sw	s1, 0x20c(s0)
   14e98: 23 30 59 01  	sd	s5, 0x0(s2)
   14e9c: 23 34 49 01  	sd	s4, 0x8(s2)
   14ea0: 13 85 04 f4  	addi	a0, s1, -0xc0
   14ea4: 63 62 ad 06  	bltu	s10, a0, 0x14f08 <read_markers+0x168>
   14ea8: 13 15 25 00  	slli	a0, a0, 0x2
   14eac: 33 05 85 01  	add	a0, a0, s8
   14eb0: 03 25 05 00  	lw	a0, 0x0(a0)
   14eb4: 67 00 05 00  	jalr	zero, 0x0(a0)
   14eb8: 03 35 84 23  	ld	a0, 0x238(s0)
   14ebc: 93 94 34 00  	slli	s1, s1, 0x3
   14ec0: 33 85 a4 00  	add	a0, s1, a0
   14ec4: 83 35 05 92  	ld	a1, -0x6e0(a0)
   14ec8: 13 05 04 00  	addi	a0, s0, 0x0
   14ecc: e7 80 05 00  	jalr	ra, 0x0(a1)
   14ed0: 63 1c 05 20  	bne	a0, zero, 0x150e8 <read_markers+0x348>
   14ed4: 6f 00 50 4b  	jal	zero, 0x15b88 <read_markers+0xde8>
   14ed8: 03 35 04 00  	ld	a0, 0x0(s0)
   14edc: 23 26 95 02  	sw	s1, 0x2c(a0)
   14ee0: 83 35 04 00  	ld	a1, 0x0(s0)
   14ee4: 83 b5 05 00  	ld	a1, 0x0(a1)
   14ee8: 13 06 b0 03  	addi	a2, zero, 0x3b
   14eec: 23 24 c5 02  	sw	a2, 0x28(a0)
   14ef0: 13 05 04 00  	addi	a0, s0, 0x0
   14ef4: e7 80 05 00  	jalr	ra, 0x0(a1)
   14ef8: 6f 00 00 1f  	jal	zero, 0x150e8 <read_markers+0x348>
   14efc: 13 05 04 00  	addi	a0, s0, 0x0
   14f00: 93 05 00 00  	addi	a1, zero, 0x0
   14f04: 6f 00 80 09  	jal	zero, 0x14f9c <read_markers+0x1fc>
   14f08: 13 05 10 00  	addi	a0, zero, 0x1
   14f0c: 63 96 a4 02  	bne	s1, a0, 0x14f38 <read_markers+0x198>
   14f10: 03 35 04 00  	ld	a0, 0x0(s0)
   14f14: 23 26 95 02  	sw	s1, 0x2c(a0)
   14f18: 83 35 04 00  	ld	a1, 0x0(s0)
   14f1c: 03 b6 85 00  	ld	a2, 0x8(a1)
   14f20: 93 05 b0 05  	addi	a1, zero, 0x5b
   14f24: 23 24 b5 02  	sw	a1, 0x28(a0)
   14f28: 93 05 10 00  	addi	a1, zero, 0x1
   14f2c: 13 05 04 00  	addi	a0, s0, 0x0
   14f30: e7 00 06 00  	jalr	ra, 0x0(a2)
   14f34: 6f 00 40 1b  	jal	zero, 0x150e8 <read_markers+0x348>
   14f38: 03 35 04 00  	ld	a0, 0x0(s0)
   14f3c: 23 26 95 02  	sw	s1, 0x2c(a0)
   14f40: 83 35 04 00  	ld	a1, 0x0(s0)
   14f44: 83 b5 05 00  	ld	a1, 0x0(a1)
   14f48: 13 06 30 04  	addi	a2, zero, 0x43
   14f4c: 6f f0 1f fa  	jal	zero, 0x14eec <read_markers+0x14c>
   14f50: 23 30 b1 01  	sd	s11, 0x0(sp)
   14f54: 23 34 91 01  	sd	s9, 0x8(sp)
   14f58: 23 38 71 01  	sd	s7, 0x10(sp)
   14f5c: 03 3a 04 02  	ld	s4, 0x20(s0)
   14f60: 83 3b 8a 00  	ld	s7, 0x8(s4)
   14f64: 63 9c 0b 00  	bne	s7, zero, 0x14f7c <read_markers+0x1dc>
   14f68: 83 35 8a 01  	ld	a1, 0x18(s4)
   14f6c: 13 05 04 00  	addi	a0, s0, 0x0
   14f70: e7 80 05 00  	jalr	ra, 0x0(a1)
   14f74: e3 0a 05 40  	beq	a0, zero, 0x15b88 <read_markers+0xde8>
   14f78: 83 3b 8a 00  	ld	s7, 0x8(s4)
   14f7c: 83 3d 0a 00  	ld	s11, 0x0(s4)
   14f80: 83 c4 0d 00  	lbu	s1, 0x0(s11)
   14f84: 93 8b fb ff  	addi	s7, s7, -0x1
   14f88: 63 8c 0b 1a  	beq	s7, zero, 0x15140 <read_markers+0x3a0>
   14f8c: 93 8d 1d 00  	addi	s11, s11, 0x1
   14f90: 6f 00 80 1c  	jal	zero, 0x15158 <read_markers+0x3b8>
   14f94: 93 05 10 00  	addi	a1, zero, 0x1
   14f98: 13 05 04 00  	addi	a0, s0, 0x0
   14f9c: 13 06 00 00  	addi	a2, zero, 0x0
   14fa0: 6f 00 00 14  	jal	zero, 0x150e0 <read_markers+0x340>
   14fa4: 83 34 04 02  	ld	s1, 0x20(s0)
   14fa8: 83 b9 84 00  	ld	s3, 0x8(s1)
   14fac: 63 9c 09 00  	bne	s3, zero, 0x14fc4 <read_markers+0x224>
   14fb0: 83 b5 84 01  	ld	a1, 0x18(s1)
   14fb4: 13 05 04 00  	addi	a0, s0, 0x0
   14fb8: e7 80 05 00  	jalr	ra, 0x0(a1)
   14fbc: e3 06 05 3c  	beq	a0, zero, 0x15b88 <read_markers+0xde8>
   14fc0: 83 b9 84 00  	ld	s3, 0x8(s1)
   14fc4: 03 b9 04 00  	ld	s2, 0x0(s1)
   14fc8: 03 4a 09 00  	lbu	s4, 0x0(s2)
   14fcc: 93 89 f9 ff  	addi	s3, s3, -0x1
   14fd0: 63 8e 09 40  	beq	s3, zero, 0x153ec <read_markers+0x64c>
   14fd4: 13 09 19 00  	addi	s2, s2, 0x1
   14fd8: 6f 00 c0 42  	jal	zero, 0x15404 <read_markers+0x664>
   14fdc: 03 35 84 23  	ld	a0, 0x238(s0)
   14fe0: 83 35 85 01  	ld	a1, 0x18(a0)
   14fe4: 6f f0 5f ee  	jal	zero, 0x14ec8 <read_markers+0x128>
   14fe8: 03 35 04 00  	ld	a0, 0x0(s0)
   14fec: 03 36 85 00  	ld	a2, 0x8(a0)
   14ff0: 93 05 50 06  	addi	a1, zero, 0x65
   14ff4: 23 24 b5 02  	sw	a1, 0x28(a0)
   14ff8: 93 05 10 00  	addi	a1, zero, 0x1
   14ffc: 13 05 04 00  	addi	a0, s0, 0x0
   15000: e7 00 06 00  	jalr	ra, 0x0(a2)
   15004: 83 34 84 23  	ld	s1, 0x238(s0)
   15008: 03 a5 04 0a  	lw	a0, 0xa0(s1)
   1500c: 63 00 05 02  	beq	a0, zero, 0x1502c <read_markers+0x28c>
   15010: 03 35 04 00  	ld	a0, 0x0(s0)
   15014: 83 35 05 00  	ld	a1, 0x0(a0)
   15018: 13 06 c0 03  	addi	a2, zero, 0x3c
   1501c: 23 24 c5 02  	sw	a2, 0x28(a0)
   15020: 13 05 04 00  	addi	a0, s0, 0x0
   15024: e7 80 05 00  	jalr	ra, 0x0(a1)
   15028: 83 34 84 23  	ld	s1, 0x238(s0)
   1502c: 13 06 00 01  	addi	a2, zero, 0x10
   15030: 13 85 0c 00  	addi	a0, s9, 0x0
   15034: 93 05 00 00  	addi	a1, zero, 0x0
   15038: ef c0 90 4c  	jal	ra, 0x21d00 <memset>
   1503c: 93 05 10 00  	addi	a1, zero, 0x1
   15040: 13 06 00 01  	addi	a2, zero, 0x10
   15044: 13 85 0d 00  	addi	a0, s11, 0x0
   15048: ef c0 90 4b  	jal	ra, 0x21d00 <memset>
   1504c: 93 05 50 00  	addi	a1, zero, 0x5
   15050: 13 06 00 01  	addi	a2, zero, 0x10
   15054: 03 35 81 01  	ld	a0, 0x18(sp)
   15058: ef c0 90 4a  	jal	ra, 0x21d00 <memset>
   1505c: 23 2a 04 02  	sw	zero, 0x34(s0)
   15060: 23 20 04 18  	sw	zero, 0x180(s0)
   15064: 23 b0 0b 00  	sd	zero, 0x0(s7)
   15068: 23 84 0b 00  	sb	zero, 0x8(s7)
   1506c: 13 05 10 00  	addi	a0, zero, 0x1
   15070: 23 19 a4 16  	sh	a0, 0x172(s0)
   15074: 23 1a a4 16  	sh	a0, 0x174(s0)
   15078: 23 2c 04 16  	sw	zero, 0x178(s0)
   1507c: 23 0e 04 16  	sb	zero, 0x17c(s0)
   15080: 23 a0 a4 0a  	sw	a0, 0xa0(s1)
   15084: 6f 00 40 06  	jal	zero, 0x150e8 <read_markers+0x348>
   15088: 23 38 71 01  	sd	s7, 0x10(sp)
   1508c: 83 3b 04 02  	ld	s7, 0x20(s0)
   15090: 83 b9 8b 00  	ld	s3, 0x8(s7)
   15094: 63 9c 09 00  	bne	s3, zero, 0x150ac <read_markers+0x30c>
   15098: 83 b5 8b 01  	ld	a1, 0x18(s7)
   1509c: 13 05 04 00  	addi	a0, s0, 0x0
   150a0: e7 80 05 00  	jalr	ra, 0x0(a1)
   150a4: e3 02 05 2e  	beq	a0, zero, 0x15b88 <read_markers+0xde8>
   150a8: 83 b9 8b 00  	ld	s3, 0x8(s7)
   150ac: 03 b9 0b 00  	ld	s2, 0x0(s7)
   150b0: 83 44 09 00  	lbu	s1, 0x0(s2)
   150b4: 93 89 f9 ff  	addi	s3, s3, -0x1
   150b8: 63 84 09 38  	beq	s3, zero, 0x15440 <read_markers+0x6a0>
   150bc: 13 09 19 00  	addi	s2, s2, 0x1
   150c0: 6f 00 80 39  	jal	zero, 0x15458 <read_markers+0x6b8>
   150c4: 93 05 10 00  	addi	a1, zero, 0x1
   150c8: 13 06 10 00  	addi	a2, zero, 0x1
   150cc: 13 05 04 00  	addi	a0, s0, 0x0
   150d0: 6f 00 00 01  	jal	zero, 0x150e0 <read_markers+0x340>
   150d4: 13 06 10 00  	addi	a2, zero, 0x1
   150d8: 13 05 04 00  	addi	a0, s0, 0x0
   150dc: 93 05 00 00  	addi	a1, zero, 0x0
   150e0: ef 10 c0 08  	jal	ra, 0x1616c <get_sof>
   150e4: e3 02 05 2a  	beq	a0, zero, 0x15b88 <read_markers+0xde8>
   150e8: 93 04 00 00  	addi	s1, zero, 0x0
   150ec: 23 26 04 20  	sw	zero, 0x20c(s0)
   150f0: e3 18 00 da  	bne	zero, zero, 0x14ea0 <read_markers+0x100>
   150f4: 6f f0 df ce  	jal	zero, 0x14de0 <read_markers+0x40>
   150f8: 03 39 04 02  	ld	s2, 0x20(s0)
   150fc: 83 39 89 00  	ld	s3, 0x8(s2)
   15100: 63 9c 09 00  	bne	s3, zero, 0x15118 <read_markers+0x378>
   15104: 83 35 89 01  	ld	a1, 0x18(s2)
   15108: 13 05 04 00  	addi	a0, s0, 0x0
   1510c: e7 80 05 00  	jalr	ra, 0x0(a1)
   15110: e3 0c 05 26  	beq	a0, zero, 0x15b88 <read_markers+0xde8>
   15114: 83 39 89 00  	ld	s3, 0x8(s2)
   15118: 03 3a 09 00  	ld	s4, 0x0(s2)
   1511c: 83 44 0a 00  	lbu	s1, 0x0(s4)
   15120: 93 89 f9 ff  	addi	s3, s3, -0x1
   15124: 63 80 09 56  	beq	s3, zero, 0x15684 <read_markers+0x8e4>
   15128: 13 0a 1a 00  	addi	s4, s4, 0x1
   1512c: 6f 00 00 57  	jal	zero, 0x1569c <read_markers+0x8fc>
   15130: 13 05 04 00  	addi	a0, s0, 0x0
   15134: ef 00 10 2f  	jal	ra, 0x15c24 <skip_variable>
   15138: e3 18 05 fa  	bne	a0, zero, 0x150e8 <read_markers+0x348>
   1513c: 6f 00 d0 24  	jal	zero, 0x15b88 <read_markers+0xde8>
   15140: 83 35 8a 01  	ld	a1, 0x18(s4)
   15144: 13 05 04 00  	addi	a0, s0, 0x0
   15148: e7 80 05 00  	jalr	ra, 0x0(a1)
   1514c: e3 0e 05 22  	beq	a0, zero, 0x15b88 <read_markers+0xde8>
   15150: 83 3d 0a 00  	ld	s11, 0x0(s4)
   15154: 83 3b 8a 00  	ld	s7, 0x8(s4)
   15158: 03 c5 0d 00  	lbu	a0, 0x0(s11)
   1515c: 93 94 84 00  	slli	s1, s1, 0x8
   15160: 93 8b fb ff  	addi	s7, s7, -0x1
   15164: 33 e9 a4 00  	or	s2, s1, a0
   15168: 93 8d 1d 00  	addi	s11, s11, 0x1
   1516c: 13 05 30 00  	addi	a0, zero, 0x3
   15170: 63 62 a9 26  	bltu	s2, a0, 0x153d4 <read_markers+0x634>
   15174: 13 09 e9 ff  	addi	s2, s2, -0x2
   15178: 63 9e 0b 00  	bne	s7, zero, 0x15194 <read_markers+0x3f4>
   1517c: 83 35 8a 01  	ld	a1, 0x18(s4)
   15180: 13 05 04 00  	addi	a0, s0, 0x0
   15184: e7 80 05 00  	jalr	ra, 0x0(a1)
   15188: e3 00 05 20  	beq	a0, zero, 0x15b88 <read_markers+0xde8>
   1518c: 83 3d 0a 00  	ld	s11, 0x0(s4)
   15190: 83 3b 8a 00  	ld	s7, 0x8(s4)
   15194: 03 cb 0d 00  	lbu	s6, 0x0(s11)
   15198: 03 35 04 00  	ld	a0, 0x0(s0)
   1519c: 23 26 65 03  	sw	s6, 0x2c(a0)
   151a0: 83 35 04 00  	ld	a1, 0x0(s0)
   151a4: 03 b6 85 00  	ld	a2, 0x8(a1)
   151a8: 93 05 f0 04  	addi	a1, zero, 0x4f
   151ac: 23 24 b5 02  	sw	a1, 0x28(a0)
   151b0: 93 05 10 00  	addi	a1, zero, 0x1
   151b4: 13 05 04 00  	addi	a0, s0, 0x0
   151b8: e7 00 06 00  	jalr	ra, 0x0(a2)
   151bc: 93 04 00 00  	addi	s1, zero, 0x0
   151c0: a3 07 01 12  	sb	zero, 0x12f(sp)
   151c4: 93 89 1d 00  	addi	s3, s11, 0x1
   151c8: 93 8b fb ff  	addi	s7, s7, -0x1
   151cc: 93 0a 00 01  	addi	s5, zero, 0x10
   151d0: 93 0d 01 13  	addi	s11, sp, 0x130
   151d4: 63 9e 0b 00  	bne	s7, zero, 0x151f0 <read_markers+0x450>
   151d8: 83 35 8a 01  	ld	a1, 0x18(s4)
   151dc: 13 05 04 00  	addi	a0, s0, 0x0
   151e0: e7 80 05 00  	jalr	ra, 0x0(a1)
   151e4: e3 02 05 1a  	beq	a0, zero, 0x15b88 <read_markers+0xde8>
   151e8: 83 39 0a 00  	ld	s3, 0x0(s4)
   151ec: 83 3b 8a 00  	ld	s7, 0x8(s4)
   151f0: 03 c5 09 00  	lbu	a0, 0x0(s3)
   151f4: 23 80 ad 00  	sb	a0, 0x0(s11)
   151f8: bb 84 a4 00  	addw	s1, s1, a0
   151fc: 93 89 19 00  	addi	s3, s3, 0x1
   15200: 93 8b fb ff  	addi	s7, s7, -0x1
   15204: 93 8a fa ff  	addi	s5, s5, -0x1
   15208: 93 8d 1d 00  	addi	s11, s11, 0x1
   1520c: e3 94 0a fc  	bne	s5, zero, 0x151d4 <read_markers+0x434>
   15210: 03 35 04 00  	ld	a0, 0x0(s0)
   15214: 83 45 01 13  	lbu	a1, 0x130(sp)
   15218: 03 46 11 13  	lbu	a2, 0x131(sp)
   1521c: 83 46 21 13  	lbu	a3, 0x132(sp)
   15220: 23 26 b5 02  	sw	a1, 0x2c(a0)
   15224: 83 45 31 13  	lbu	a1, 0x133(sp)
   15228: 23 28 c5 02  	sw	a2, 0x30(a0)
   1522c: 23 2a d5 02  	sw	a3, 0x34(a0)
   15230: 03 46 41 13  	lbu	a2, 0x134(sp)
   15234: 23 2c b5 02  	sw	a1, 0x38(a0)
   15238: 83 45 51 13  	lbu	a1, 0x135(sp)
   1523c: 83 46 61 13  	lbu	a3, 0x136(sp)
   15240: 23 2e c5 02  	sw	a2, 0x3c(a0)
   15244: 03 46 71 13  	lbu	a2, 0x137(sp)
   15248: 23 20 b5 04  	sw	a1, 0x40(a0)
   1524c: 23 22 d5 04  	sw	a3, 0x44(a0)
   15250: 83 36 85 00  	ld	a3, 0x8(a0)
   15254: 23 24 c5 04  	sw	a2, 0x48(a0)
   15258: 93 0c f9 fe  	addi	s9, s2, -0x11
   1525c: 13 09 50 05  	addi	s2, zero, 0x55
   15260: 23 24 25 03  	sw	s2, 0x28(a0)
   15264: 93 05 20 00  	addi	a1, zero, 0x2
   15268: 13 05 04 00  	addi	a0, s0, 0x0
   1526c: e7 80 06 00  	jalr	ra, 0x0(a3)
   15270: 03 35 04 00  	ld	a0, 0x0(s0)
   15274: 83 45 81 13  	lbu	a1, 0x138(sp)
   15278: 03 46 91 13  	lbu	a2, 0x139(sp)
   1527c: 23 26 b5 02  	sw	a1, 0x2c(a0)
   15280: 83 45 a1 13  	lbu	a1, 0x13a(sp)
   15284: 83 46 b1 13  	lbu	a3, 0x13b(sp)
   15288: 23 28 c5 02  	sw	a2, 0x30(a0)
   1528c: 03 46 c1 13  	lbu	a2, 0x13c(sp)
   15290: 23 2a b5 02  	sw	a1, 0x34(a0)
   15294: 23 2c d5 02  	sw	a3, 0x38(a0)
   15298: 83 45 d1 13  	lbu	a1, 0x13d(sp)
   1529c: 23 2e c5 02  	sw	a2, 0x3c(a0)
   152a0: 03 46 e1 13  	lbu	a2, 0x13e(sp)
   152a4: 83 46 f1 13  	lbu	a3, 0x13f(sp)
   152a8: 23 20 b5 04  	sw	a1, 0x40(a0)
   152ac: 03 37 85 00  	ld	a4, 0x8(a0)
   152b0: 23 22 c5 04  	sw	a2, 0x44(a0)
   152b4: 23 24 d5 04  	sw	a3, 0x48(a0)
   152b8: 23 24 25 03  	sw	s2, 0x28(a0)
   152bc: 93 05 20 00  	addi	a1, zero, 0x2
   152c0: 13 05 04 00  	addi	a0, s0, 0x0
   152c4: e7 00 07 00  	jalr	ra, 0x0(a4)
   152c8: 13 95 04 02  	slli	a0, s1, 0x20
   152cc: 13 59 05 02  	srli	s2, a0, 0x20
   152d0: 13 05 00 10  	addi	a0, zero, 0x100
   152d4: 63 6a 95 04  	bltu	a0, s1, 0x15328 <read_markers+0x588>
   152d8: 63 c8 2c 05  	blt	s9, s2, 0x15328 <read_markers+0x588>
   152dc: 63 84 04 06  	beq	s1, zero, 0x15344 <read_markers+0x5a4>
   152e0: 93 04 f1 02  	addi	s1, sp, 0x2f
   152e4: 93 0a 09 00  	addi	s5, s2, 0x0
   152e8: 63 9e 0b 00  	bne	s7, zero, 0x15304 <read_markers+0x564>
   152ec: 83 35 8a 01  	ld	a1, 0x18(s4)
   152f0: 13 05 04 00  	addi	a0, s0, 0x0
   152f4: e7 80 05 00  	jalr	ra, 0x0(a1)
   152f8: e3 08 05 08  	beq	a0, zero, 0x15b88 <read_markers+0xde8>
   152fc: 83 39 0a 00  	ld	s3, 0x0(s4)
   15300: 83 3b 8a 00  	ld	s7, 0x8(s4)
   15304: 03 c5 09 00  	lbu	a0, 0x0(s3)
   15308: 93 8b fb ff  	addi	s7, s7, -0x1
   1530c: 93 8d 19 00  	addi	s11, s3, 0x1
   15310: 23 80 a4 00  	sb	a0, 0x0(s1)
   15314: 93 8a fa ff  	addi	s5, s5, -0x1
   15318: 93 84 14 00  	addi	s1, s1, 0x1
   1531c: 93 89 0d 00  	addi	s3, s11, 0x0
   15320: e3 94 0a fc  	bne	s5, zero, 0x152e8 <read_markers+0x548>
   15324: 6f 00 40 02  	jal	zero, 0x15348 <read_markers+0x5a8>
   15328: 03 35 04 00  	ld	a0, 0x0(s0)
   1532c: 83 35 05 00  	ld	a1, 0x0(a0)
   15330: 13 06 c0 01  	addi	a2, zero, 0x1c
   15334: 23 24 c5 02  	sw	a2, 0x28(a0)
   15338: 13 05 04 00  	addi	a0, s0, 0x0
   1533c: e7 80 05 00  	jalr	ra, 0x0(a1)
   15340: e3 90 04 fa  	bne	s1, zero, 0x152e0 <read_markers+0x540>
   15344: 93 8d 09 00  	addi	s11, s3, 0x0
   15348: 13 75 0b 01  	andi	a0, s6, 0x10
   1534c: 63 0c 05 00  	beq	a0, zero, 0x15364 <read_markers+0x5c4>
   15350: 13 0b 0b ff  	addi	s6, s6, -0x10
   15354: 13 15 3b 00  	slli	a0, s6, 0x3
   15358: 33 05 a4 00  	add	a0, s0, a0
   1535c: 93 04 05 10  	addi	s1, a0, 0x100
   15360: 6f 00 00 01  	jal	zero, 0x15370 <read_markers+0x5d0>
   15364: 13 15 3b 00  	slli	a0, s6, 0x3
   15368: 33 05 a4 00  	add	a0, s0, a0
   1536c: 93 04 05 0e  	addi	s1, a0, 0xe0
   15370: 13 05 40 00  	addi	a0, zero, 0x4
   15374: 63 42 ab 02  	blt	s6, a0, 0x15398 <read_markers+0x5f8>
   15378: 03 35 04 00  	ld	a0, 0x0(s0)
   1537c: 23 26 65 03  	sw	s6, 0x2c(a0)
   15380: 83 35 04 00  	ld	a1, 0x0(s0)
   15384: 83 b5 05 00  	ld	a1, 0x0(a1)
   15388: 13 06 d0 01  	addi	a2, zero, 0x1d
   1538c: 23 24 c5 02  	sw	a2, 0x28(a0)
   15390: 13 05 04 00  	addi	a0, s0, 0x0
   15394: e7 80 05 00  	jalr	ra, 0x0(a1)
   15398: 03 b5 04 00  	ld	a0, 0x0(s1)
   1539c: 63 18 05 00  	bne	a0, zero, 0x153ac <read_markers+0x60c>
   153a0: 13 05 04 00  	addi	a0, s0, 0x0
   153a4: ef 90 00 7b  	jal	ra, 0x1eb54 <jpeg_alloc_huff_table>
   153a8: 23 b0 a4 00  	sd	a0, 0x0(s1)
   153ac: 33 89 2c 41  	sub	s2, s9, s2
   153b0: 93 05 f1 12  	addi	a1, sp, 0x12f
   153b4: 13 06 10 01  	addi	a2, zero, 0x11
   153b8: ef c0 30 1f  	jal	ra, 0x21daa <memcpy>
   153bc: 03 b5 04 00  	ld	a0, 0x0(s1)
   153c0: 13 05 15 01  	addi	a0, a0, 0x11
   153c4: 93 05 f1 02  	addi	a1, sp, 0x2f
   153c8: 13 06 00 10  	addi	a2, zero, 0x100
   153cc: ef c0 f0 1d  	jal	ra, 0x21daa <memcpy>
   153d0: e3 44 20 db  	blt	zero, s2, 0x15178 <read_markers+0x3d8>
   153d4: 23 30 ba 01  	sd	s11, 0x0(s4)
   153d8: 23 34 7a 01  	sd	s7, 0x8(s4)
   153dc: 83 3b 01 01  	ld	s7, 0x10(sp)
   153e0: 83 3c 81 00  	ld	s9, 0x8(sp)
   153e4: 83 3d 01 00  	ld	s11, 0x0(sp)
   153e8: 6f f0 1f d0  	jal	zero, 0x150e8 <read_markers+0x348>
   153ec: 83 b5 84 01  	ld	a1, 0x18(s1)
   153f0: 13 05 04 00  	addi	a0, s0, 0x0
   153f4: e7 80 05 00  	jalr	ra, 0x0(a1)
   153f8: 63 08 05 78  	beq	a0, zero, 0x15b88 <read_markers+0xde8>
   153fc: 03 b9 04 00  	ld	s2, 0x0(s1)
   15400: 83 b9 84 00  	ld	s3, 0x8(s1)
   15404: 03 45 09 00  	lbu	a0, 0x0(s2)
   15408: 13 1a 8a 00  	slli	s4, s4, 0x8
   1540c: 33 65 aa 00  	or	a0, s4, a0
   15410: 93 05 40 00  	addi	a1, zero, 0x4
   15414: 63 0e b5 00  	beq	a0, a1, 0x15430 <read_markers+0x690>
   15418: 03 35 04 00  	ld	a0, 0x0(s0)
   1541c: 83 35 05 00  	ld	a1, 0x0(a0)
   15420: 13 06 90 00  	addi	a2, zero, 0x9
   15424: 23 24 c5 02  	sw	a2, 0x28(a0)
   15428: 13 05 04 00  	addi	a0, s0, 0x0
   1542c: e7 80 05 00  	jalr	ra, 0x0(a1)
   15430: 13 85 f9 ff  	addi	a0, s3, -0x1
   15434: 63 00 05 3a  	beq	a0, zero, 0x157d4 <read_markers+0xa34>
   15438: 93 05 19 00  	addi	a1, s2, 0x1
   1543c: 6f 00 00 3b  	jal	zero, 0x157ec <read_markers+0xa4c>
   15440: 83 b5 8b 01  	ld	a1, 0x18(s7)
   15444: 13 05 04 00  	addi	a0, s0, 0x0
   15448: e7 80 05 00  	jalr	ra, 0x0(a1)
   1544c: 63 0e 05 72  	beq	a0, zero, 0x15b88 <read_markers+0xde8>
   15450: 03 b9 0b 00  	ld	s2, 0x0(s7)
   15454: 83 b9 8b 00  	ld	s3, 0x8(s7)
   15458: 03 45 09 00  	lbu	a0, 0x0(s2)
   1545c: 93 94 84 00  	slli	s1, s1, 0x8
   15460: 93 89 f9 ff  	addi	s3, s3, -0x1
   15464: 33 eb a4 00  	or	s6, s1, a0
   15468: 13 09 19 00  	addi	s2, s2, 0x1
   1546c: 13 05 30 00  	addi	a0, zero, 0x3
   15470: 63 62 ab 20  	bltu	s6, a0, 0x15674 <read_markers+0x8d4>
   15474: 13 0b eb ff  	addi	s6, s6, -0x2
   15478: 23 34 91 01  	sd	s9, 0x8(sp)
   1547c: 23 30 b1 01  	sd	s11, 0x0(sp)
   15480: 63 9e 09 00  	bne	s3, zero, 0x1549c <read_markers+0x6fc>
   15484: 83 b5 8b 01  	ld	a1, 0x18(s7)
   15488: 13 05 04 00  	addi	a0, s0, 0x0
   1548c: e7 80 05 00  	jalr	ra, 0x0(a1)
   15490: 63 0c 05 6e  	beq	a0, zero, 0x15b88 <read_markers+0xde8>
   15494: 03 b9 0b 00  	ld	s2, 0x0(s7)
   15498: 83 b9 8b 00  	ld	s3, 0x8(s7)
   1549c: 83 4d 09 00  	lbu	s11, 0x0(s2)
   154a0: 03 35 04 00  	ld	a0, 0x0(s0)
   154a4: 93 f4 fd 00  	andi	s1, s11, 0xf
   154a8: 23 26 95 02  	sw	s1, 0x2c(a0)
   154ac: 83 35 04 00  	ld	a1, 0x0(s0)
   154b0: 13 06 00 05  	addi	a2, zero, 0x50
   154b4: 23 24 c5 02  	sw	a2, 0x28(a0)
   154b8: 13 d5 4d 00  	srli	a0, s11, 0x4
   154bc: 23 a8 a5 02  	sw	a0, 0x30(a1)
   154c0: 03 35 04 00  	ld	a0, 0x0(s0)
   154c4: 03 36 85 00  	ld	a2, 0x8(a0)
   154c8: 93 05 10 00  	addi	a1, zero, 0x1
   154cc: 13 05 04 00  	addi	a0, s0, 0x0
   154d0: e7 00 06 00  	jalr	ra, 0x0(a2)
   154d4: 13 05 40 00  	addi	a0, zero, 0x4
   154d8: 63 e2 a4 02  	bltu	s1, a0, 0x154fc <read_markers+0x75c>
   154dc: 03 35 04 00  	ld	a0, 0x0(s0)
   154e0: 23 26 95 02  	sw	s1, 0x2c(a0)
   154e4: 83 35 04 00  	ld	a1, 0x0(s0)
   154e8: 83 b5 05 00  	ld	a1, 0x0(a1)
   154ec: 13 06 e0 01  	addi	a2, zero, 0x1e
   154f0: 23 24 c5 02  	sw	a2, 0x28(a0)
   154f4: 13 05 04 00  	addi	a0, s0, 0x0
   154f8: e7 80 05 00  	jalr	ra, 0x0(a1)
   154fc: 13 95 34 00  	slli	a0, s1, 0x3
   15500: 33 05 a4 00  	add	a0, s0, a0
   15504: 03 3a 05 0c  	ld	s4, 0xc0(a0)
   15508: 93 0c c0 05  	addi	s9, zero, 0x5c
   1550c: 63 1c 0a 00  	bne	s4, zero, 0x15524 <read_markers+0x784>
   15510: 93 04 05 0c  	addi	s1, a0, 0xc0
   15514: 13 05 04 00  	addi	a0, s0, 0x0
   15518: ef 90 c0 61  	jal	ra, 0x1eb34 <jpeg_alloc_quant_table>
   1551c: 13 0a 05 00  	addi	s4, a0, 0x0
   15520: 23 b0 a4 00  	sd	a0, 0x0(s1)
   15524: 93 89 f9 ff  	addi	s3, s3, -0x1
   15528: 13 09 19 00  	addi	s2, s2, 0x1
   1552c: 93 04 00 04  	addi	s1, zero, 0x40
   15530: 83 3a 01 02  	ld	s5, 0x20(sp)
   15534: 13 05 00 01  	addi	a0, zero, 0x10
   15538: 63 f4 ad 02  	bgeu	s11, a0, 0x15560 <read_markers+0x7c0>
   1553c: 63 9e 09 00  	bne	s3, zero, 0x15558 <read_markers+0x7b8>
   15540: 83 b5 8b 01  	ld	a1, 0x18(s7)
   15544: 13 05 04 00  	addi	a0, s0, 0x0
   15548: e7 80 05 00  	jalr	ra, 0x0(a1)
   1554c: 63 0e 05 62  	beq	a0, zero, 0x15b88 <read_markers+0xde8>
   15550: 03 b9 0b 00  	ld	s2, 0x0(s7)
   15554: 83 b9 8b 00  	ld	s3, 0x8(s7)
   15558: 03 45 09 00  	lbu	a0, 0x0(s2)
   1555c: 6f 00 c0 05  	jal	zero, 0x155b8 <read_markers+0x818>
   15560: 63 9e 09 00  	bne	s3, zero, 0x1557c <read_markers+0x7dc>
   15564: 83 b5 8b 01  	ld	a1, 0x18(s7)
   15568: 13 05 04 00  	addi	a0, s0, 0x0
   1556c: e7 80 05 00  	jalr	ra, 0x0(a1)
   15570: 63 0c 05 60  	beq	a0, zero, 0x15b88 <read_markers+0xde8>
   15574: 03 b9 0b 00  	ld	s2, 0x0(s7)
   15578: 83 b9 8b 00  	ld	s3, 0x8(s7)
   1557c: 83 4c 09 00  	lbu	s9, 0x0(s2)
   15580: 93 89 f9 ff  	addi	s3, s3, -0x1
   15584: 63 86 09 00  	beq	s3, zero, 0x15590 <read_markers+0x7f0>
   15588: 13 09 19 00  	addi	s2, s2, 0x1
   1558c: 6f 00 c0 01  	jal	zero, 0x155a8 <read_markers+0x808>
   15590: 83 b5 8b 01  	ld	a1, 0x18(s7)
   15594: 13 05 04 00  	addi	a0, s0, 0x0
   15598: e7 80 05 00  	jalr	ra, 0x0(a1)
   1559c: 63 06 05 5e  	beq	a0, zero, 0x15b88 <read_markers+0xde8>
   155a0: 03 b9 0b 00  	ld	s2, 0x0(s7)
   155a4: 83 b9 8b 00  	ld	s3, 0x8(s7)
   155a8: 03 45 09 00  	lbu	a0, 0x0(s2)
   155ac: 93 9c 8c 00  	slli	s9, s9, 0x8
   155b0: 33 e5 ac 00  	or	a0, s9, a0
   155b4: 93 0c c0 05  	addi	s9, zero, 0x5c
   155b8: 83 a5 0a 00  	lw	a1, 0x0(s5)
   155bc: 93 95 15 00  	slli	a1, a1, 0x1
   155c0: b3 05 ba 00  	add	a1, s4, a1
   155c4: 23 90 a5 00  	sh	a0, 0x0(a1)
   155c8: 93 89 f9 ff  	addi	s3, s3, -0x1
   155cc: 13 09 19 00  	addi	s2, s2, 0x1
   155d0: 93 84 f4 ff  	addi	s1, s1, -0x1
   155d4: 93 8a 4a 00  	addi	s5, s5, 0x4
   155d8: e3 9e 04 f4  	bne	s1, zero, 0x15534 <read_markers+0x794>
   155dc: 03 35 04 00  	ld	a0, 0x0(s0)
   155e0: 03 25 c5 07  	lw	a0, 0x7c(a0)
   155e4: 93 05 20 00  	addi	a1, zero, 0x2
   155e8: 63 46 b5 06  	blt	a0, a1, 0x15654 <read_markers+0x8b4>
   155ec: 93 04 8a 00  	addi	s1, s4, 0x8
   155f0: 13 0a 8a 08  	addi	s4, s4, 0x88
   155f4: 03 35 04 00  	ld	a0, 0x0(s0)
   155f8: 83 d5 84 ff  	lhu	a1, -0x8(s1)
   155fc: 03 d6 a4 ff  	lhu	a2, -0x6(s1)
   15600: 23 26 b5 02  	sw	a1, 0x2c(a0)
   15604: 83 d5 c4 ff  	lhu	a1, -0x4(s1)
   15608: 83 d6 e4 ff  	lhu	a3, -0x2(s1)
   1560c: 23 28 c5 02  	sw	a2, 0x30(a0)
   15610: 03 d6 04 00  	lhu	a2, 0x0(s1)
   15614: 23 2a b5 02  	sw	a1, 0x34(a0)
   15618: 23 2c d5 02  	sw	a3, 0x38(a0)
   1561c: 83 d5 24 00  	lhu	a1, 0x2(s1)
   15620: 23 2e c5 02  	sw	a2, 0x3c(a0)
   15624: 03 d6 44 00  	lhu	a2, 0x4(s1)
   15628: 83 d6 64 00  	lhu	a3, 0x6(s1)
   1562c: 23 20 b5 04  	sw	a1, 0x40(a0)
   15630: 03 37 85 00  	ld	a4, 0x8(a0)
   15634: 23 22 c5 04  	sw	a2, 0x44(a0)
   15638: 23 24 d5 04  	sw	a3, 0x48(a0)
   1563c: 23 24 95 03  	sw	s9, 0x28(a0)
   15640: 93 05 20 00  	addi	a1, zero, 0x2
   15644: 13 05 04 00  	addi	a0, s0, 0x0
   15648: e7 00 07 00  	jalr	ra, 0x0(a4)
   1564c: 93 84 04 01  	addi	s1, s1, 0x10
   15650: e3 92 44 fb  	bne	s1, s4, 0x155f4 <read_markers+0x854>
   15654: 13 05 f0 fb  	addi	a0, zero, -0x41
   15658: 93 05 00 01  	addi	a1, zero, 0x10
   1565c: 63 e4 bd 00  	bltu	s11, a1, 0x15664 <read_markers+0x8c4>
   15660: 13 05 f0 f7  	addi	a0, zero, -0x81
   15664: 33 0b 65 01  	add	s6, a0, s6
   15668: 83 3c 81 00  	ld	s9, 0x8(sp)
   1566c: 83 3d 01 00  	ld	s11, 0x0(sp)
   15670: e3 48 60 e1  	blt	zero, s6, 0x15480 <read_markers+0x6e0>
   15674: 23 b0 2b 01  	sd	s2, 0x0(s7)
   15678: 23 b4 3b 01  	sd	s3, 0x8(s7)
   1567c: 83 3b 01 01  	ld	s7, 0x10(sp)
   15680: 6f f0 9f a6  	jal	zero, 0x150e8 <read_markers+0x348>
   15684: 83 35 89 01  	ld	a1, 0x18(s2)
   15688: 13 05 04 00  	addi	a0, s0, 0x0
   1568c: e7 80 05 00  	jalr	ra, 0x0(a1)
   15690: 63 0c 05 4e  	beq	a0, zero, 0x15b88 <read_markers+0xde8>
   15694: 03 3a 09 00  	ld	s4, 0x0(s2)
   15698: 83 39 89 00  	ld	s3, 0x8(s2)
   1569c: 03 45 0a 00  	lbu	a0, 0x0(s4)
   156a0: 93 94 84 00  	slli	s1, s1, 0x8
   156a4: b3 e5 a4 00  	or	a1, s1, a0
   156a8: 13 0a 1a 00  	addi	s4, s4, 0x1
   156ac: 93 89 f9 ff  	addi	s3, s3, -0x1
   156b0: 13 06 30 00  	addi	a2, zero, 0x3
   156b4: 63 ea c5 10  	bltu	a1, a2, 0x157c8 <read_markers+0xa28>
   156b8: 33 85 a4 00  	add	a0, s1, a0
   156bc: 93 04 25 00  	addi	s1, a0, 0x2
   156c0: 63 9e 09 00  	bne	s3, zero, 0x156dc <read_markers+0x93c>
   156c4: 83 35 89 01  	ld	a1, 0x18(s2)
   156c8: 13 05 04 00  	addi	a0, s0, 0x0
   156cc: e7 80 05 00  	jalr	ra, 0x0(a1)
   156d0: 63 0c 05 4a  	beq	a0, zero, 0x15b88 <read_markers+0xde8>
   156d4: 03 3a 09 00  	ld	s4, 0x0(s2)
   156d8: 83 39 89 00  	ld	s3, 0x8(s2)
   156dc: 83 4a 0a 00  	lbu	s5, 0x0(s4)
   156e0: 93 89 f9 ff  	addi	s3, s3, -0x1
   156e4: 63 86 09 00  	beq	s3, zero, 0x156f0 <read_markers+0x950>
   156e8: 13 0a 1a 00  	addi	s4, s4, 0x1
   156ec: 6f 00 c0 01  	jal	zero, 0x15708 <read_markers+0x968>
   156f0: 83 35 89 01  	ld	a1, 0x18(s2)
   156f4: 13 05 04 00  	addi	a0, s0, 0x0
   156f8: e7 80 05 00  	jalr	ra, 0x0(a1)
   156fc: 63 06 05 48  	beq	a0, zero, 0x15b88 <read_markers+0xde8>
   15700: 03 3a 09 00  	ld	s4, 0x0(s2)
   15704: 83 39 89 00  	ld	s3, 0x8(s2)
   15708: 03 35 04 00  	ld	a0, 0x0(s0)
   1570c: 03 4b 0a 00  	lbu	s6, 0x0(s4)
   15710: 23 26 55 03  	sw	s5, 0x2c(a0)
   15714: 83 35 04 00  	ld	a1, 0x0(s0)
   15718: 13 06 e0 04  	addi	a2, zero, 0x4e
   1571c: 23 24 c5 02  	sw	a2, 0x28(a0)
   15720: 23 a8 65 03  	sw	s6, 0x30(a1)
   15724: 03 35 04 00  	ld	a0, 0x0(s0)
   15728: 03 36 85 00  	ld	a2, 0x8(a0)
   1572c: 93 05 10 00  	addi	a1, zero, 0x1
   15730: 13 05 04 00  	addi	a0, s0, 0x0
   15734: e7 00 06 00  	jalr	ra, 0x0(a2)
   15738: 13 05 00 02  	addi	a0, zero, 0x20
   1573c: 63 e4 aa 02  	bltu	s5, a0, 0x15764 <read_markers+0x9c4>
   15740: 03 35 04 00  	ld	a0, 0x0(s0)
   15744: 23 26 55 03  	sw	s5, 0x2c(a0)
   15748: 83 35 04 00  	ld	a1, 0x0(s0)
   1574c: 83 b5 05 00  	ld	a1, 0x0(a1)
   15750: 13 06 a0 01  	addi	a2, zero, 0x1a
   15754: 23 24 c5 02  	sw	a2, 0x28(a0)
   15758: 13 05 04 00  	addi	a0, s0, 0x0
   1575c: e7 80 05 00  	jalr	ra, 0x0(a1)
   15760: 6f 00 c0 00  	jal	zero, 0x1576c <read_markers+0x9cc>
   15764: 13 05 00 01  	addi	a0, zero, 0x10
   15768: 63 e2 aa 02  	bltu	s5, a0, 0x1578c <read_markers+0x9ec>
   1576c: b3 8a 8a 00  	add	s5, s5, s0
   15770: 23 84 6a 15  	sb	s6, 0x148(s5)
   15774: 13 0a 1a 00  	addi	s4, s4, 0x1
   15778: 93 84 e4 ff  	addi	s1, s1, -0x2
   1577c: 93 89 f9 ff  	addi	s3, s3, -0x1
   15780: 13 05 40 00  	addi	a0, zero, 0x4
   15784: e3 6e 95 f2  	bltu	a0, s1, 0x156c0 <read_markers+0x920>
   15788: 6f 00 00 04  	jal	zero, 0x157c8 <read_markers+0xa28>
   1578c: 13 75 fb 00  	andi	a0, s6, 0xf
   15790: b3 0a 54 01  	add	s5, s0, s5
   15794: 23 8c aa 12  	sb	a0, 0x138(s5)
   15798: 93 55 4b 00  	srli	a1, s6, 0x4
   1579c: 23 84 ba 14  	sb	a1, 0x148(s5)
   157a0: e3 fa a5 fc  	bgeu	a1, a0, 0x15774 <read_markers+0x9d4>
   157a4: 03 35 04 00  	ld	a0, 0x0(s0)
   157a8: 23 26 65 03  	sw	s6, 0x2c(a0)
   157ac: 83 35 04 00  	ld	a1, 0x0(s0)
   157b0: 83 b5 05 00  	ld	a1, 0x0(a1)
   157b4: 13 06 b0 01  	addi	a2, zero, 0x1b
   157b8: 23 24 c5 02  	sw	a2, 0x28(a0)
   157bc: 13 05 04 00  	addi	a0, s0, 0x0
   157c0: e7 80 05 00  	jalr	ra, 0x0(a1)
   157c4: 6f f0 1f fb  	jal	zero, 0x15774 <read_markers+0x9d4>
   157c8: 23 30 49 01  	sd	s4, 0x0(s2)
   157cc: 23 34 39 01  	sd	s3, 0x8(s2)
   157d0: 6f f0 9f 91  	jal	zero, 0x150e8 <read_markers+0x348>
   157d4: 83 b5 84 01  	ld	a1, 0x18(s1)
   157d8: 13 05 04 00  	addi	a0, s0, 0x0
   157dc: e7 80 05 00  	jalr	ra, 0x0(a1)
   157e0: 63 04 05 3a  	beq	a0, zero, 0x15b88 <read_markers+0xde8>
   157e4: 83 b5 04 00  	ld	a1, 0x0(s1)
   157e8: 03 b5 84 00  	ld	a0, 0x8(s1)
   157ec: 03 c9 05 00  	lbu	s2, 0x0(a1)
   157f0: 13 05 f5 ff  	addi	a0, a0, -0x1
   157f4: 63 06 05 00  	beq	a0, zero, 0x15800 <read_markers+0xa60>
   157f8: 93 85 15 00  	addi	a1, a1, 0x1
   157fc: 6f 00 c0 01  	jal	zero, 0x15818 <read_markers+0xa78>
   15800: 83 b5 84 01  	ld	a1, 0x18(s1)
   15804: 13 05 04 00  	addi	a0, s0, 0x0
   15808: e7 80 05 00  	jalr	ra, 0x0(a1)
   1580c: 63 0e 05 36  	beq	a0, zero, 0x15b88 <read_markers+0xde8>
   15810: 83 b5 04 00  	ld	a1, 0x0(s1)
   15814: 03 b5 84 00  	ld	a0, 0x8(s1)
   15818: 03 c6 05 00  	lbu	a2, 0x0(a1)
   1581c: 83 36 04 00  	ld	a3, 0x0(s0)
   15820: 13 19 89 00  	slli	s2, s2, 0x8
   15824: 33 69 c9 00  	or	s2, s2, a2
   15828: 23 a6 26 03  	sw	s2, 0x2c(a3)
   1582c: 03 36 04 00  	ld	a2, 0x0(s0)
   15830: 03 36 86 00  	ld	a2, 0x8(a2)
   15834: 13 07 10 05  	addi	a4, zero, 0x51
   15838: 23 a4 e6 02  	sw	a4, 0x28(a3)
   1583c: 93 09 f5 ff  	addi	s3, a0, -0x1
   15840: 13 8a 15 00  	addi	s4, a1, 0x1
   15844: 93 05 10 00  	addi	a1, zero, 0x1
   15848: 13 05 04 00  	addi	a0, s0, 0x0
   1584c: e7 00 06 00  	jalr	ra, 0x0(a2)
   15850: 23 24 24 17  	sw	s2, 0x168(s0)
   15854: 23 b0 44 01  	sd	s4, 0x0(s1)
   15858: 23 b4 34 01  	sd	s3, 0x8(s1)
   1585c: 6f f0 df 88  	jal	zero, 0x150e8 <read_markers+0x348>
   15860: 03 35 04 00  	ld	a0, 0x0(s0)
   15864: 03 36 85 00  	ld	a2, 0x8(a0)
   15868: 93 05 40 05  	addi	a1, zero, 0x54
   1586c: 23 24 b5 02  	sw	a1, 0x28(a0)
   15870: 93 05 10 00  	addi	a1, zero, 0x1
   15874: 13 05 04 00  	addi	a0, s0, 0x0
   15878: e7 00 06 00  	jalr	ra, 0x0(a2)
   1587c: 23 26 04 20  	sw	zero, 0x20c(s0)
   15880: 93 04 20 00  	addi	s1, zero, 0x2
   15884: 6f 00 80 30  	jal	zero, 0x15b8c <read_markers+0xdec>
   15888: 03 39 04 02  	ld	s2, 0x20(s0)
   1588c: 03 35 84 23  	ld	a0, 0x238(s0)
   15890: 83 34 09 00  	ld	s1, 0x0(s2)
   15894: 03 25 45 0a  	lw	a0, 0xa4(a0)
   15898: 83 39 89 00  	ld	s3, 0x8(s2)
   1589c: 63 1e 05 00  	bne	a0, zero, 0x158b8 <read_markers+0xb18>
   158a0: 03 35 04 00  	ld	a0, 0x0(s0)
   158a4: 83 35 05 00  	ld	a1, 0x0(a0)
   158a8: 13 06 d0 03  	addi	a2, zero, 0x3d
   158ac: 23 24 c5 02  	sw	a2, 0x28(a0)
   158b0: 13 05 04 00  	addi	a0, s0, 0x0
   158b4: e7 80 05 00  	jalr	ra, 0x0(a1)
   158b8: 63 9e 09 00  	bne	s3, zero, 0x158d4 <read_markers+0xb34>
   158bc: 83 35 89 01  	ld	a1, 0x18(s2)
   158c0: 13 05 04 00  	addi	a0, s0, 0x0
   158c4: e7 80 05 00  	jalr	ra, 0x0(a1)
   158c8: 63 00 05 2c  	beq	a0, zero, 0x15b88 <read_markers+0xde8>
   158cc: 83 34 09 00  	ld	s1, 0x0(s2)
   158d0: 83 39 89 00  	ld	s3, 0x8(s2)
   158d4: 03 ca 04 00  	lbu	s4, 0x0(s1)
   158d8: 93 89 f9 ff  	addi	s3, s3, -0x1
   158dc: 63 86 09 00  	beq	s3, zero, 0x158e8 <read_markers+0xb48>
   158e0: 93 84 14 00  	addi	s1, s1, 0x1
   158e4: 6f 00 c0 01  	jal	zero, 0x15900 <read_markers+0xb60>
   158e8: 83 35 89 01  	ld	a1, 0x18(s2)
   158ec: 13 05 04 00  	addi	a0, s0, 0x0
   158f0: e7 80 05 00  	jalr	ra, 0x0(a1)
   158f4: 63 0a 05 28  	beq	a0, zero, 0x15b88 <read_markers+0xde8>
   158f8: 83 34 09 00  	ld	s1, 0x0(s2)
   158fc: 83 39 89 00  	ld	s3, 0x8(s2)
   15900: 83 ca 04 00  	lbu	s5, 0x0(s1)
   15904: 93 89 f9 ff  	addi	s3, s3, -0x1
   15908: 63 86 09 00  	beq	s3, zero, 0x15914 <read_markers+0xb74>
   1590c: 93 8b 14 00  	addi	s7, s1, 0x1
   15910: 6f 00 c0 01  	jal	zero, 0x1592c <read_markers+0xb8c>
   15914: 83 35 89 01  	ld	a1, 0x18(s2)
   15918: 13 05 04 00  	addi	a0, s0, 0x0
   1591c: e7 80 05 00  	jalr	ra, 0x0(a1)
   15920: 63 04 05 26  	beq	a0, zero, 0x15b88 <read_markers+0xde8>
   15924: 83 3b 09 00  	ld	s7, 0x0(s2)
   15928: 83 39 89 00  	ld	s3, 0x8(s2)
   1592c: 83 c4 0b 00  	lbu	s1, 0x0(s7)
   15930: 93 85 b4 ff  	addi	a1, s1, -0x5
   15934: 03 35 04 00  	ld	a0, 0x0(s0)
   15938: 93 f5 f5 0f  	andi	a1, a1, 0xff
   1593c: 13 06 c0 0f  	addi	a2, zero, 0xfc
   15940: 63 ec c5 00  	bltu	a1, a2, 0x15958 <read_markers+0xbb8>
   15944: 13 1a 8a 00  	slli	s4, s4, 0x8
   15948: b3 65 5a 01  	or	a1, s4, s5
   1594c: 13 96 14 00  	slli	a2, s1, 0x1
   15950: 13 06 66 00  	addi	a2, a2, 0x6
   15954: 63 8e c5 00  	beq	a1, a2, 0x15970 <read_markers+0xbd0>
   15958: 83 35 05 00  	ld	a1, 0x0(a0)
   1595c: 13 06 90 00  	addi	a2, zero, 0x9
   15960: 23 24 c5 02  	sw	a2, 0x28(a0)
   15964: 13 05 04 00  	addi	a0, s0, 0x0
   15968: e7 80 05 00  	jalr	ra, 0x0(a1)
   1596c: 03 35 04 00  	ld	a0, 0x0(s0)
   15970: 23 26 95 02  	sw	s1, 0x2c(a0)
   15974: 83 35 04 00  	ld	a1, 0x0(s0)
   15978: 03 b6 85 00  	ld	a2, 0x8(a1)
   1597c: 93 05 60 06  	addi	a1, zero, 0x66
   15980: 23 24 b5 02  	sw	a1, 0x28(a0)
   15984: 93 05 10 00  	addi	a1, zero, 0x1
   15988: 13 05 04 00  	addi	a0, s0, 0x0
   1598c: e7 00 06 00  	jalr	ra, 0x0(a2)
   15990: 23 20 94 1a  	sw	s1, 0x1a0(s0)
   15994: 93 8b 1b 00  	addi	s7, s7, 0x1
   15998: 13 8b f9 ff  	addi	s6, s3, -0x1
   1599c: 63 88 04 0e  	beq	s1, zero, 0x15a8c <read_markers+0xcec>
   159a0: 93 09 00 00  	addi	s3, zero, 0x0
   159a4: 13 0a 70 06  	addi	s4, zero, 0x67
   159a8: 93 0a 50 00  	addi	s5, zero, 0x5
   159ac: 63 1e 0b 00  	bne	s6, zero, 0x159c8 <read_markers+0xc28>
   159b0: 83 35 89 01  	ld	a1, 0x18(s2)
   159b4: 13 05 04 00  	addi	a0, s0, 0x0
   159b8: e7 80 05 00  	jalr	ra, 0x0(a1)
   159bc: 63 06 05 1c  	beq	a0, zero, 0x15b88 <read_markers+0xde8>
   159c0: 83 3b 09 00  	ld	s7, 0x0(s2)
   159c4: 03 3b 89 00  	ld	s6, 0x8(s2)
   159c8: 03 cc 0b 00  	lbu	s8, 0x0(s7)
   159cc: 13 0b fb ff  	addi	s6, s6, -0x1
   159d0: 63 06 0b 00  	beq	s6, zero, 0x159dc <read_markers+0xc3c>
   159d4: 93 8b 1b 00  	addi	s7, s7, 0x1
   159d8: 6f 00 c0 01  	jal	zero, 0x159f4 <read_markers+0xc54>
   159dc: 83 35 89 01  	ld	a1, 0x18(s2)
   159e0: 13 05 04 00  	addi	a0, s0, 0x0
   159e4: e7 80 05 00  	jalr	ra, 0x0(a1)
   159e8: 63 00 05 1a  	beq	a0, zero, 0x15b88 <read_markers+0xde8>
   159ec: 83 3b 09 00  	ld	s7, 0x0(s2)
   159f0: 03 3b 89 00  	ld	s6, 0x8(s2)
   159f4: 03 cd 0b 00  	lbu	s10, 0x0(s7)
   159f8: 03 25 04 03  	lw	a0, 0x30(s0)
   159fc: 83 3c 84 12  	ld	s9, 0x128(s0)
   15a00: 63 5c a0 00  	bge	zero, a0, 0x15a18 <read_markers+0xc78>
   15a04: 83 a5 0c 00  	lw	a1, 0x0(s9)
   15a08: 63 86 85 03  	beq	a1, s8, 0x15a34 <read_markers+0xc94>
   15a0c: 1b 05 f5 ff  	addiw	a0, a0, -0x1
   15a10: 93 8c 0c 06  	addi	s9, s9, 0x60
   15a14: e3 18 05 fe  	bne	a0, zero, 0x15a04 <read_markers+0xc64>
   15a18: 03 35 04 00  	ld	a0, 0x0(s0)
   15a1c: 23 26 85 03  	sw	s8, 0x2c(a0)
   15a20: 83 35 04 00  	ld	a1, 0x0(s0)
   15a24: 83 b5 05 00  	ld	a1, 0x0(a1)
   15a28: 23 24 55 03  	sw	s5, 0x28(a0)
   15a2c: 13 05 04 00  	addi	a0, s0, 0x0
   15a30: e7 80 05 00  	jalr	ra, 0x0(a1)
   15a34: 13 55 4d 00  	srli	a0, s10, 0x4
   15a38: 83 35 04 00  	ld	a1, 0x0(s0)
   15a3c: 23 aa ac 00  	sw	a0, 0x14(s9)
   15a40: 13 75 fd 00  	andi	a0, s10, 0xf
   15a44: 23 ac ac 00  	sw	a0, 0x18(s9)
   15a48: 23 a6 85 03  	sw	s8, 0x2c(a1)
   15a4c: 03 a5 4c 01  	lw	a0, 0x14(s9)
   15a50: 13 96 39 00  	slli	a2, s3, 0x3
   15a54: 33 06 c4 00  	add	a2, s0, a2
   15a58: 23 a8 a5 02  	sw	a0, 0x30(a1)
   15a5c: 03 a5 8c 01  	lw	a0, 0x18(s9)
   15a60: 23 34 96 1b  	sd	s9, 0x1a8(a2)
   15a64: 03 b6 85 00  	ld	a2, 0x8(a1)
   15a68: 23 aa a5 02  	sw	a0, 0x34(a1)
   15a6c: 23 a4 45 03  	sw	s4, 0x28(a1)
   15a70: 93 05 10 00  	addi	a1, zero, 0x1
   15a74: 13 05 04 00  	addi	a0, s0, 0x0
   15a78: e7 00 06 00  	jalr	ra, 0x0(a2)
   15a7c: 93 89 19 00  	addi	s3, s3, 0x1
   15a80: 93 8b 1b 00  	addi	s7, s7, 0x1
   15a84: 13 0b fb ff  	addi	s6, s6, -0x1
   15a88: e3 92 99 f2  	bne	s3, s1, 0x159ac <read_markers+0xc0c>
   15a8c: 63 1e 0b 00  	bne	s6, zero, 0x15aa8 <read_markers+0xd08>
   15a90: 83 35 89 01  	ld	a1, 0x18(s2)
   15a94: 13 05 04 00  	addi	a0, s0, 0x0
   15a98: e7 80 05 00  	jalr	ra, 0x0(a1)
   15a9c: 63 06 05 0e  	beq	a0, zero, 0x15b88 <read_markers+0xde8>
   15aa0: 83 3b 09 00  	ld	s7, 0x0(s2)
   15aa4: 03 3b 89 00  	ld	s6, 0x8(s2)
   15aa8: 83 c5 0b 00  	lbu	a1, 0x0(s7)
   15aac: 13 05 fb ff  	addi	a0, s6, -0x1
   15ab0: 23 2e b4 1e  	sw	a1, 0x1fc(s0)
   15ab4: 63 06 05 00  	beq	a0, zero, 0x15ac0 <read_markers+0xd20>
   15ab8: 93 85 1b 00  	addi	a1, s7, 0x1
   15abc: 6f 00 c0 01  	jal	zero, 0x15ad8 <read_markers+0xd38>
   15ac0: 83 35 89 01  	ld	a1, 0x18(s2)
   15ac4: 13 05 04 00  	addi	a0, s0, 0x0
   15ac8: e7 80 05 00  	jalr	ra, 0x0(a1)
   15acc: 63 0e 05 0a  	beq	a0, zero, 0x15b88 <read_markers+0xde8>
   15ad0: 83 35 09 00  	ld	a1, 0x0(s2)
   15ad4: 03 35 89 00  	ld	a0, 0x8(s2)
   15ad8: 03 c6 05 00  	lbu	a2, 0x0(a1)
   15adc: 13 05 f5 ff  	addi	a0, a0, -0x1
   15ae0: 23 20 c4 20  	sw	a2, 0x200(s0)
   15ae4: 63 06 05 00  	beq	a0, zero, 0x15af0 <read_markers+0xd50>
   15ae8: 93 85 15 00  	addi	a1, a1, 0x1
   15aec: 6f 00 c0 01  	jal	zero, 0x15b08 <read_markers+0xd68>
   15af0: 83 35 89 01  	ld	a1, 0x18(s2)
   15af4: 13 05 04 00  	addi	a0, s0, 0x0
   15af8: e7 80 05 00  	jalr	ra, 0x0(a1)
   15afc: 63 06 05 08  	beq	a0, zero, 0x15b88 <read_markers+0xde8>
   15b00: 83 35 09 00  	ld	a1, 0x0(s2)
   15b04: 03 35 89 00  	ld	a0, 0x8(s2)
   15b08: 03 c6 05 00  	lbu	a2, 0x0(a1)
   15b0c: 93 56 46 00  	srli	a3, a2, 0x4
   15b10: 03 37 04 00  	ld	a4, 0x0(s0)
   15b14: 83 27 c4 1f  	lw	a5, 0x1fc(s0)
   15b18: 23 22 d4 20  	sw	a3, 0x204(s0)
   15b1c: 13 76 f6 00  	andi	a2, a2, 0xf
   15b20: 23 24 c4 20  	sw	a2, 0x208(s0)
   15b24: 23 26 f7 02  	sw	a5, 0x2c(a4)
   15b28: 03 26 04 20  	lw	a2, 0x200(s0)
   15b2c: 23 28 c7 02  	sw	a2, 0x30(a4)
   15b30: 03 26 44 20  	lw	a2, 0x204(s0)
   15b34: 23 2a c7 02  	sw	a2, 0x34(a4)
   15b38: 03 26 84 20  	lw	a2, 0x208(s0)
   15b3c: 23 2c c7 02  	sw	a2, 0x38(a4)
   15b40: 13 06 80 06  	addi	a2, zero, 0x68
   15b44: 83 36 87 00  	ld	a3, 0x8(a4)
   15b48: 23 24 c7 02  	sw	a2, 0x28(a4)
   15b4c: 93 09 f5 ff  	addi	s3, a0, -0x1
   15b50: 13 8a 15 00  	addi	s4, a1, 0x1
   15b54: 93 05 10 00  	addi	a1, zero, 0x1
   15b58: 93 04 10 00  	addi	s1, zero, 0x1
   15b5c: 13 05 04 00  	addi	a0, s0, 0x0
   15b60: e7 80 06 00  	jalr	ra, 0x0(a3)
   15b64: 03 35 84 23  	ld	a0, 0x238(s0)
   15b68: 83 25 44 0a  	lw	a1, 0xa4(s0)
   15b6c: 23 24 05 0a  	sw	zero, 0xa8(a0)
   15b70: 93 85 15 00  	addi	a1, a1, 0x1
   15b74: 23 22 b4 0a  	sw	a1, 0xa4(s0)
   15b78: 23 30 49 01  	sd	s4, 0x0(s2)
   15b7c: 23 34 39 01  	sd	s3, 0x8(s2)
   15b80: 23 26 04 20  	sw	zero, 0x20c(s0)
   15b84: 6f 00 80 00  	jal	zero, 0x15b8c <read_markers+0xdec>
   15b88: 93 04 00 00  	addi	s1, zero, 0x0
   15b8c: 13 85 04 00  	addi	a0, s1, 0x0
   15b90: 13 01 01 14  	addi	sp, sp, 0x140
   15b94: 6f e0 41 33  	jal	zero, 0x33ec8 <__riscv_restore_12>

0000000000015b98 <read_restart_marker>:
   15b98: ef e2 81 32  	jal	t0, 0x33ec0 <__riscv_save_1>
   15b9c: 13 04 05 00  	addi	s0, a0, 0x0
   15ba0: 03 25 c5 20  	lw	a0, 0x20c(a0)
   15ba4: 63 1a 05 00  	bne	a0, zero, 0x15bb8 <read_restart_marker+0x20>
   15ba8: 13 05 04 00  	addi	a0, s0, 0x0
   15bac: ef e0 5f ff  	jal	ra, 0x14ba0 <next_marker>
   15bb0: 63 08 05 06  	beq	a0, zero, 0x15c20 <read_restart_marker+0x88>
   15bb4: 03 25 c4 20  	lw	a0, 0x20c(s0)
   15bb8: 83 35 84 23  	ld	a1, 0x238(s0)
   15bbc: 83 a5 85 0a  	lw	a1, 0xa8(a1)
   15bc0: 1b 86 05 0d  	addiw	a2, a1, 0xd0
   15bc4: 63 18 c5 02  	bne	a0, a2, 0x15bf4 <read_restart_marker+0x5c>
   15bc8: 03 35 04 00  	ld	a0, 0x0(s0)
   15bcc: 23 26 b5 02  	sw	a1, 0x2c(a0)
   15bd0: 83 35 04 00  	ld	a1, 0x0(s0)
   15bd4: 03 b6 85 00  	ld	a2, 0x8(a1)
   15bd8: 93 05 10 06  	addi	a1, zero, 0x61
   15bdc: 23 24 b5 02  	sw	a1, 0x28(a0)
   15be0: 93 05 30 00  	addi	a1, zero, 0x3
   15be4: 13 05 04 00  	addi	a0, s0, 0x0
   15be8: e7 00 06 00  	jalr	ra, 0x0(a2)
   15bec: 23 26 04 20  	sw	zero, 0x20c(s0)
   15bf0: 6f 00 80 01  	jal	zero, 0x15c08 <read_restart_marker+0x70>
   15bf4: 03 35 04 02  	ld	a0, 0x20(s0)
   15bf8: 03 36 85 02  	ld	a2, 0x28(a0)
   15bfc: 13 05 04 00  	addi	a0, s0, 0x0
   15c00: e7 00 06 00  	jalr	ra, 0x0(a2)
   15c04: 63 0e 05 00  	beq	a0, zero, 0x15c20 <read_restart_marker+0x88>
   15c08: 03 35 84 23  	ld	a0, 0x238(s0)
   15c0c: 83 25 85 0a  	lw	a1, 0xa8(a0)
   15c10: 93 85 15 00  	addi	a1, a1, 0x1
   15c14: 93 f5 75 00  	andi	a1, a1, 0x7
   15c18: 23 24 b5 0a  	sw	a1, 0xa8(a0)
   15c1c: 13 05 10 00  	addi	a0, zero, 0x1
   15c20: 6f e0 a1 2c  	jal	zero, 0x33eea <__riscv_restore_1>

0000000000015c24 <skip_variable>:
   15c24: ef e2 61 27  	jal	t0, 0x33e9a <__riscv_save_7>
   15c28: 13 04 05 00  	addi	s0, a0, 0x0
   15c2c: 03 39 05 02  	ld	s2, 0x20(a0)
   15c30: 03 35 89 00  	ld	a0, 0x8(s2)
   15c34: 63 1c 05 00  	bne	a0, zero, 0x15c4c <skip_variable+0x28>
   15c38: 83 35 89 01  	ld	a1, 0x18(s2)
   15c3c: 13 05 04 00  	addi	a0, s0, 0x0
   15c40: e7 80 05 00  	jalr	ra, 0x0(a1)
   15c44: 63 00 05 0a  	beq	a0, zero, 0x15ce4 <skip_variable+0xc0>
   15c48: 03 35 89 00  	ld	a0, 0x8(s2)
   15c4c: 83 35 09 00  	ld	a1, 0x0(s2)
   15c50: 83 c4 05 00  	lbu	s1, 0x0(a1)
   15c54: 13 05 f5 ff  	addi	a0, a0, -0x1
   15c58: 63 06 05 00  	beq	a0, zero, 0x15c64 <skip_variable+0x40>
   15c5c: 93 85 15 00  	addi	a1, a1, 0x1
   15c60: 6f 00 c0 01  	jal	zero, 0x15c7c <skip_variable+0x58>
   15c64: 83 35 89 01  	ld	a1, 0x18(s2)
   15c68: 13 05 04 00  	addi	a0, s0, 0x0
   15c6c: e7 80 05 00  	jalr	ra, 0x0(a1)
   15c70: 63 0a 05 06  	beq	a0, zero, 0x15ce4 <skip_variable+0xc0>
   15c74: 83 35 09 00  	ld	a1, 0x0(s2)
   15c78: 03 35 89 00  	ld	a0, 0x8(s2)
   15c7c: 03 36 04 00  	ld	a2, 0x0(s0)
   15c80: 83 26 c4 20  	lw	a3, 0x20c(s0)
   15c84: 03 c7 05 00  	lbu	a4, 0x0(a1)
   15c88: 93 07 a0 05  	addi	a5, zero, 0x5a
   15c8c: 23 26 d6 02  	sw	a3, 0x2c(a2)
   15c90: 83 36 04 00  	ld	a3, 0x0(s0)
   15c94: 23 24 f6 02  	sw	a5, 0x28(a2)
   15c98: 93 94 84 00  	slli	s1, s1, 0x8
   15c9c: b3 e9 e4 00  	or	s3, s1, a4
   15ca0: 23 a8 36 03  	sw	s3, 0x30(a3)
   15ca4: 03 36 04 00  	ld	a2, 0x0(s0)
   15ca8: 03 36 86 00  	ld	a2, 0x8(a2)
   15cac: 13 0a f5 ff  	addi	s4, a0, -0x1
   15cb0: 93 8a 15 00  	addi	s5, a1, 0x1
   15cb4: 93 05 10 00  	addi	a1, zero, 0x1
   15cb8: 93 04 10 00  	addi	s1, zero, 0x1
   15cbc: 13 05 04 00  	addi	a0, s0, 0x0
   15cc0: e7 00 06 00  	jalr	ra, 0x0(a2)
   15cc4: 03 35 04 02  	ld	a0, 0x20(s0)
   15cc8: 03 36 05 02  	ld	a2, 0x20(a0)
   15ccc: 23 30 59 01  	sd	s5, 0x0(s2)
   15cd0: 23 34 49 01  	sd	s4, 0x8(s2)
   15cd4: 93 85 e9 ff  	addi	a1, s3, -0x2
   15cd8: 13 05 04 00  	addi	a0, s0, 0x0
   15cdc: e7 00 06 00  	jalr	ra, 0x0(a2)
   15ce0: 6f 00 80 00  	jal	zero, 0x15ce8 <skip_variable+0xc4>
   15ce4: 93 04 00 00  	addi	s1, zero, 0x0
   15ce8: 13 85 04 00  	addi	a0, s1, 0x0
   15cec: 6f e0 c1 1e  	jal	zero, 0x33ed8 <__riscv_restore_7>

0000000000015cf0 <get_app0>:
   15cf0: ef e2 a1 1a  	jal	t0, 0x33e9a <__riscv_save_7>
   15cf4: 13 01 01 ff  	addi	sp, sp, -0x10
   15cf8: 13 04 05 00  	addi	s0, a0, 0x0
   15cfc: 03 3a 05 02  	ld	s4, 0x20(a0)
   15d00: 83 3a 8a 00  	ld	s5, 0x8(s4)
   15d04: 63 9c 0a 00  	bne	s5, zero, 0x15d1c <get_app0+0x2c>
   15d08: 83 35 8a 01  	ld	a1, 0x18(s4)
   15d0c: 13 05 04 00  	addi	a0, s0, 0x0
   15d10: e7 80 05 00  	jalr	ra, 0x0(a1)
   15d14: 63 0c 05 10  	beq	a0, zero, 0x15e2c <get_app0+0x13c>
   15d18: 83 3a 8a 00  	ld	s5, 0x8(s4)
   15d1c: 03 3b 0a 00  	ld	s6, 0x0(s4)
   15d20: 83 44 0b 00  	lbu	s1, 0x0(s6)
   15d24: 93 8a fa ff  	addi	s5, s5, -0x1
   15d28: 63 86 0a 00  	beq	s5, zero, 0x15d34 <get_app0+0x44>
   15d2c: 13 0b 1b 00  	addi	s6, s6, 0x1
   15d30: 6f 00 c0 01  	jal	zero, 0x15d4c <get_app0+0x5c>
   15d34: 83 35 8a 01  	ld	a1, 0x18(s4)
   15d38: 13 05 04 00  	addi	a0, s0, 0x0
   15d3c: e7 80 05 00  	jalr	ra, 0x0(a1)
   15d40: 63 06 05 0e  	beq	a0, zero, 0x15e2c <get_app0+0x13c>
   15d44: 03 3b 0a 00  	ld	s6, 0x0(s4)
   15d48: 83 3a 8a 00  	ld	s5, 0x8(s4)
   15d4c: 03 45 0b 00  	lbu	a0, 0x0(s6)
   15d50: 93 94 84 00  	slli	s1, s1, 0x8
   15d54: 93 8a fa ff  	addi	s5, s5, -0x1
   15d58: b3 e4 a4 00  	or	s1, s1, a0
   15d5c: 13 05 00 01  	addi	a0, zero, 0x10
   15d60: 13 0b 1b 00  	addi	s6, s6, 0x1
   15d64: 63 e8 a4 0a  	bltu	s1, a0, 0x15e14 <get_app0+0x124>
   15d68: 13 09 21 00  	addi	s2, sp, 0x2
   15d6c: 93 09 e0 00  	addi	s3, zero, 0xe
   15d70: 63 9e 0a 00  	bne	s5, zero, 0x15d8c <get_app0+0x9c>
   15d74: 83 35 8a 01  	ld	a1, 0x18(s4)
   15d78: 13 05 04 00  	addi	a0, s0, 0x0
   15d7c: e7 80 05 00  	jalr	ra, 0x0(a1)
   15d80: 63 06 05 0a  	beq	a0, zero, 0x15e2c <get_app0+0x13c>
   15d84: 03 3b 0a 00  	ld	s6, 0x0(s4)
   15d88: 83 3a 8a 00  	ld	s5, 0x8(s4)
   15d8c: 03 45 0b 00  	lbu	a0, 0x0(s6)
   15d90: 93 8a fa ff  	addi	s5, s5, -0x1
   15d94: 13 0b 1b 00  	addi	s6, s6, 0x1
   15d98: 23 00 a9 00  	sb	a0, 0x0(s2)
   15d9c: 93 89 f9 ff  	addi	s3, s3, -0x1
   15da0: 13 09 19 00  	addi	s2, s2, 0x1
   15da4: e3 96 09 fc  	bne	s3, zero, 0x15d70 <get_app0+0x80>
   15da8: 03 45 21 00  	lbu	a0, 0x2(sp)
   15dac: 93 05 a0 04  	addi	a1, zero, 0x4a
   15db0: 93 84 04 ff  	addi	s1, s1, -0x10
   15db4: 63 10 b5 08  	bne	a0, a1, 0x15e34 <get_app0+0x144>
   15db8: 03 45 31 00  	lbu	a0, 0x3(sp)
   15dbc: 93 05 60 04  	addi	a1, zero, 0x46
   15dc0: 63 1a b5 06  	bne	a0, a1, 0x15e34 <get_app0+0x144>
   15dc4: 03 45 41 00  	lbu	a0, 0x4(sp)
   15dc8: 93 05 90 04  	addi	a1, zero, 0x49
   15dcc: 63 14 b5 06  	bne	a0, a1, 0x15e34 <get_app0+0x144>
   15dd0: 03 45 51 00  	lbu	a0, 0x5(sp)
   15dd4: 93 05 60 04  	addi	a1, zero, 0x46
   15dd8: 63 1e b5 04  	bne	a0, a1, 0x15e34 <get_app0+0x144>
   15ddc: 03 45 61 00  	lbu	a0, 0x6(sp)
   15de0: 63 1a 05 04  	bne	a0, zero, 0x15e34 <get_app0+0x144>
   15de4: 83 45 71 00  	lbu	a1, 0x7(sp)
   15de8: 13 05 10 00  	addi	a0, zero, 0x1
   15dec: 63 9e a5 04  	bne	a1, a0, 0x15e48 <get_app0+0x158>
   15df0: 03 45 81 00  	lbu	a0, 0x8(sp)
   15df4: 93 05 30 00  	addi	a1, zero, 0x3
   15df8: 63 60 b5 08  	bltu	a0, a1, 0x15e78 <get_app0+0x188>
   15dfc: 03 36 04 00  	ld	a2, 0x0(s0)
   15e00: 93 05 10 00  	addi	a1, zero, 0x1
   15e04: 93 96 05 02  	slli	a3, a1, 0x20
   15e08: 93 86 86 05  	addi	a3, a3, 0x58
   15e0c: 23 34 d6 02  	sd	a3, 0x28(a2)
   15e10: 6f 00 00 05  	jal	zero, 0x15e60 <get_app0+0x170>
   15e14: 03 35 04 00  	ld	a0, 0x0(s0)
   15e18: 93 85 e4 ff  	addi	a1, s1, -0x2
   15e1c: 13 06 c0 04  	addi	a2, zero, 0x4c
   15e20: 23 24 c5 02  	sw	a2, 0x28(a0)
   15e24: 93 84 05 00  	addi	s1, a1, 0x0
   15e28: 6f 00 40 12  	jal	zero, 0x15f4c <get_app0+0x25c>
   15e2c: 13 09 00 00  	addi	s2, zero, 0x0
   15e30: 6f 00 80 15  	jal	zero, 0x15f88 <get_app0+0x298>
   15e34: 03 35 04 00  	ld	a0, 0x0(s0)
   15e38: 93 05 c0 04  	addi	a1, zero, 0x4c
   15e3c: 23 24 b5 02  	sw	a1, 0x28(a0)
   15e40: 93 85 e4 00  	addi	a1, s1, 0xe
   15e44: 6f 00 80 10  	jal	zero, 0x15f4c <get_app0+0x25c>
   15e48: 03 36 04 00  	ld	a2, 0x0(s0)
   15e4c: 93 06 30 07  	addi	a3, zero, 0x73
   15e50: 03 45 81 00  	lbu	a0, 0x8(sp)
   15e54: 23 24 d6 02  	sw	a3, 0x28(a2)
   15e58: 23 26 b6 02  	sw	a1, 0x2c(a2)
   15e5c: 93 05 f0 ff  	addi	a1, zero, -0x1
   15e60: 03 36 04 00  	ld	a2, 0x0(s0)
   15e64: 23 28 a6 02  	sw	a0, 0x30(a2)
   15e68: 03 35 04 00  	ld	a0, 0x0(s0)
   15e6c: 03 36 85 00  	ld	a2, 0x8(a0)
   15e70: 13 05 04 00  	addi	a0, s0, 0x0
   15e74: e7 00 06 00  	jalr	ra, 0x0(a2)
   15e78: 03 45 91 00  	lbu	a0, 0x9(sp)
   15e7c: 93 05 10 00  	addi	a1, zero, 0x1
   15e80: 03 46 a1 00  	lbu	a2, 0xa(sp)
   15e84: 23 26 b4 16  	sw	a1, 0x16c(s0)
   15e88: 23 08 a4 16  	sb	a0, 0x170(s0)
   15e8c: 83 45 b1 00  	lbu	a1, 0xb(sp)
   15e90: 13 16 86 00  	slli	a2, a2, 0x8
   15e94: 83 46 c1 00  	lbu	a3, 0xc(sp)
   15e98: 03 47 d1 00  	lbu	a4, 0xd(sp)
   15e9c: b3 65 b6 00  	or	a1, a2, a1
   15ea0: 23 19 b4 16  	sh	a1, 0x172(s0)
   15ea4: 93 96 86 00  	slli	a3, a3, 0x8
   15ea8: b3 e6 e6 00  	or	a3, a3, a4
   15eac: 23 1a d4 16  	sh	a3, 0x174(s0)
   15eb0: 03 36 04 00  	ld	a2, 0x0(s0)
   15eb4: 37 07 01 00  	lui	a4, 0x10
   15eb8: 13 07 f7 ff  	addi	a4, a4, -0x1
   15ebc: b3 f5 e5 00  	and	a1, a1, a4
   15ec0: 23 26 b6 02  	sw	a1, 0x2c(a2)
   15ec4: b3 f6 e6 00  	and	a3, a3, a4
   15ec8: 23 28 d6 02  	sw	a3, 0x30(a2)
   15ecc: 83 36 86 00  	ld	a3, 0x8(a2)
   15ed0: 23 2a a6 02  	sw	a0, 0x34(a2)
   15ed4: 13 05 60 05  	addi	a0, zero, 0x56
   15ed8: 23 24 a6 02  	sw	a0, 0x28(a2)
   15edc: 93 05 10 00  	addi	a1, zero, 0x1
   15ee0: 13 05 04 00  	addi	a0, s0, 0x0
   15ee4: e7 80 06 00  	jalr	ra, 0x0(a3)
   15ee8: 03 49 e1 00  	lbu	s2, 0xe(sp)
   15eec: 83 49 f1 00  	lbu	s3, 0xf(sp)
   15ef0: 33 e5 29 01  	or	a0, s3, s2
   15ef4: 63 08 05 02  	beq	a0, zero, 0x15f24 <get_app0+0x234>
   15ef8: 03 35 04 00  	ld	a0, 0x0(s0)
   15efc: 23 26 25 03  	sw	s2, 0x2c(a0)
   15f00: 83 35 04 00  	ld	a1, 0x0(s0)
   15f04: 13 06 90 05  	addi	a2, zero, 0x59
   15f08: 23 24 c5 02  	sw	a2, 0x28(a0)
   15f0c: 23 a8 35 03  	sw	s3, 0x30(a1)
   15f10: 03 35 04 00  	ld	a0, 0x0(s0)
   15f14: 03 36 85 00  	ld	a2, 0x8(a0)
   15f18: 93 05 10 00  	addi	a1, zero, 0x1
   15f1c: 13 05 04 00  	addi	a0, s0, 0x0
   15f20: e7 00 06 00  	jalr	ra, 0x0(a2)
   15f24: 13 05 09 00  	addi	a0, s2, 0x0
   15f28: 93 85 09 00  	addi	a1, s3, 0x0
   15f2c: ef d0 91 7c  	jal	ra, 0x33ef4 <__muldi3>
   15f30: 93 15 15 00  	slli	a1, a0, 0x1
   15f34: 33 85 a5 00  	add	a0, a1, a0
   15f38: 63 86 a4 02  	beq	s1, a0, 0x15f64 <get_app0+0x274>
   15f3c: 03 35 04 00  	ld	a0, 0x0(s0)
   15f40: 93 05 70 05  	addi	a1, zero, 0x57
   15f44: 23 24 b5 02  	sw	a1, 0x28(a0)
   15f48: 93 85 04 00  	addi	a1, s1, 0x0
   15f4c: 23 26 b5 02  	sw	a1, 0x2c(a0)
   15f50: 03 35 04 00  	ld	a0, 0x0(s0)
   15f54: 03 36 85 00  	ld	a2, 0x8(a0)
   15f58: 93 05 10 00  	addi	a1, zero, 0x1
   15f5c: 13 05 04 00  	addi	a0, s0, 0x0
   15f60: e7 00 06 00  	jalr	ra, 0x0(a2)
   15f64: 23 30 6a 01  	sd	s6, 0x0(s4)
   15f68: 23 34 5a 01  	sd	s5, 0x8(s4)
   15f6c: 13 09 10 00  	addi	s2, zero, 0x1
   15f70: 63 5c 90 00  	bge	zero, s1, 0x15f88 <get_app0+0x298>
   15f74: 03 35 04 02  	ld	a0, 0x20(s0)
   15f78: 03 36 05 02  	ld	a2, 0x20(a0)
   15f7c: 13 05 04 00  	addi	a0, s0, 0x0
   15f80: 93 85 04 00  	addi	a1, s1, 0x0
   15f84: e7 00 06 00  	jalr	ra, 0x0(a2)
   15f88: 13 05 09 00  	addi	a0, s2, 0x0
   15f8c: 13 01 01 01  	addi	sp, sp, 0x10
   15f90: 6f d0 91 74  	jal	zero, 0x33ed8 <__riscv_restore_7>

0000000000015f94 <get_app14>:
   15f94: ef d2 71 70  	jal	t0, 0x33e9a <__riscv_save_7>
   15f98: 13 01 01 ff  	addi	sp, sp, -0x10
   15f9c: 13 04 05 00  	addi	s0, a0, 0x0
   15fa0: 03 39 05 02  	ld	s2, 0x20(a0)
   15fa4: 83 39 89 00  	ld	s3, 0x8(s2)
   15fa8: 63 9c 09 00  	bne	s3, zero, 0x15fc0 <get_app14+0x2c>
   15fac: 83 35 89 01  	ld	a1, 0x18(s2)
   15fb0: 13 05 04 00  	addi	a0, s0, 0x0
   15fb4: e7 80 05 00  	jalr	ra, 0x0(a1)
   15fb8: 63 0a 05 14  	beq	a0, zero, 0x1610c <get_app14+0x178>
   15fbc: 83 39 89 00  	ld	s3, 0x8(s2)
   15fc0: 03 3a 09 00  	ld	s4, 0x0(s2)
   15fc4: 83 44 0a 00  	lbu	s1, 0x0(s4)
   15fc8: 93 89 f9 ff  	addi	s3, s3, -0x1
   15fcc: 63 86 09 00  	beq	s3, zero, 0x15fd8 <get_app14+0x44>
   15fd0: 13 0a 1a 00  	addi	s4, s4, 0x1
   15fd4: 6f 00 c0 01  	jal	zero, 0x15ff0 <get_app14+0x5c>
   15fd8: 83 35 89 01  	ld	a1, 0x18(s2)
   15fdc: 13 05 04 00  	addi	a0, s0, 0x0
   15fe0: e7 80 05 00  	jalr	ra, 0x0(a1)
   15fe4: 63 04 05 12  	beq	a0, zero, 0x1610c <get_app14+0x178>
   15fe8: 03 3a 09 00  	ld	s4, 0x0(s2)
   15fec: 83 39 89 00  	ld	s3, 0x8(s2)
   15ff0: 03 45 0a 00  	lbu	a0, 0x0(s4)
   15ff4: 93 94 84 00  	slli	s1, s1, 0x8
   15ff8: 93 89 f9 ff  	addi	s3, s3, -0x1
   15ffc: b3 e4 a4 00  	or	s1, s1, a0
   16000: 13 05 e0 00  	addi	a0, zero, 0xe
   16004: 13 0a 1a 00  	addi	s4, s4, 0x1
   16008: 63 ea a4 0e  	bltu	s1, a0, 0x160fc <get_app14+0x168>
   1600c: 93 0a 41 00  	addi	s5, sp, 0x4
   16010: 13 0b c0 00  	addi	s6, zero, 0xc
   16014: 63 9e 09 00  	bne	s3, zero, 0x16030 <get_app14+0x9c>
   16018: 83 35 89 01  	ld	a1, 0x18(s2)
   1601c: 13 05 04 00  	addi	a0, s0, 0x0
   16020: e7 80 05 00  	jalr	ra, 0x0(a1)
   16024: 63 04 05 0e  	beq	a0, zero, 0x1610c <get_app14+0x178>
   16028: 03 3a 09 00  	ld	s4, 0x0(s2)
   1602c: 83 39 89 00  	ld	s3, 0x8(s2)
   16030: 03 45 0a 00  	lbu	a0, 0x0(s4)
   16034: 93 89 f9 ff  	addi	s3, s3, -0x1
   16038: 13 0a 1a 00  	addi	s4, s4, 0x1
   1603c: 23 80 aa 00  	sb	a0, 0x0(s5)
   16040: 13 0b fb ff  	addi	s6, s6, -0x1
   16044: 93 8a 1a 00  	addi	s5, s5, 0x1
   16048: e3 16 0b fc  	bne	s6, zero, 0x16014 <get_app14+0x80>
   1604c: 03 45 41 00  	lbu	a0, 0x4(sp)
   16050: 93 05 10 04  	addi	a1, zero, 0x41
   16054: 93 84 24 ff  	addi	s1, s1, -0xe
   16058: 63 1e b5 0a  	bne	a0, a1, 0x16114 <get_app14+0x180>
   1605c: 03 45 51 00  	lbu	a0, 0x5(sp)
   16060: 93 05 40 06  	addi	a1, zero, 0x64
   16064: 63 18 b5 0a  	bne	a0, a1, 0x16114 <get_app14+0x180>
   16068: 03 45 61 00  	lbu	a0, 0x6(sp)
   1606c: 93 05 f0 06  	addi	a1, zero, 0x6f
   16070: 63 12 b5 0a  	bne	a0, a1, 0x16114 <get_app14+0x180>
   16074: 03 45 71 00  	lbu	a0, 0x7(sp)
   16078: 93 05 20 06  	addi	a1, zero, 0x62
   1607c: 63 1c b5 08  	bne	a0, a1, 0x16114 <get_app14+0x180>
   16080: 03 45 81 00  	lbu	a0, 0x8(sp)
   16084: 93 05 50 06  	addi	a1, zero, 0x65
   16088: 63 16 b5 08  	bne	a0, a1, 0x16114 <get_app14+0x180>
   1608c: 03 45 91 00  	lbu	a0, 0x9(sp)
   16090: 83 45 a1 00  	lbu	a1, 0xa(sp)
   16094: 03 46 b1 00  	lbu	a2, 0xb(sp)
   16098: 13 15 85 00  	slli	a0, a0, 0x8
   1609c: 33 65 b5 00  	or	a0, a0, a1
   160a0: 83 45 c1 00  	lbu	a1, 0xc(sp)
   160a4: 13 16 86 00  	slli	a2, a2, 0x8
   160a8: 83 46 d1 00  	lbu	a3, 0xd(sp)
   160ac: 03 47 e1 00  	lbu	a4, 0xe(sp)
   160b0: b3 65 b6 00  	or	a1, a2, a1
   160b4: 03 36 04 00  	ld	a2, 0x0(s0)
   160b8: 93 96 86 00  	slli	a3, a3, 0x8
   160bc: b3 e6 e6 00  	or	a3, a3, a4
   160c0: 83 4a f1 00  	lbu	s5, 0xf(sp)
   160c4: 23 26 a6 02  	sw	a0, 0x2c(a2)
   160c8: 23 28 b6 02  	sw	a1, 0x30(a2)
   160cc: 23 2a d6 02  	sw	a3, 0x34(a2)
   160d0: 83 36 86 00  	ld	a3, 0x8(a2)
   160d4: 23 2c 56 03  	sw	s5, 0x38(a2)
   160d8: 13 05 b0 04  	addi	a0, zero, 0x4b
   160dc: 23 24 a6 02  	sw	a0, 0x28(a2)
   160e0: 93 05 10 00  	addi	a1, zero, 0x1
   160e4: 13 0b 10 00  	addi	s6, zero, 0x1
   160e8: 13 05 04 00  	addi	a0, s0, 0x0
   160ec: e7 80 06 00  	jalr	ra, 0x0(a3)
   160f0: 23 2c 64 17  	sw	s6, 0x178(s0)
   160f4: 23 0e 54 17  	sb	s5, 0x17c(s0)
   160f8: 6f 00 40 04  	jal	zero, 0x1613c <get_app14+0x1a8>
   160fc: 03 35 04 00  	ld	a0, 0x0(s0)
   16100: 93 84 e4 ff  	addi	s1, s1, -0x2
   16104: 23 26 95 02  	sw	s1, 0x2c(a0)
   16108: 6f 00 80 01  	jal	zero, 0x16120 <get_app14+0x18c>
   1610c: 13 09 00 00  	addi	s2, zero, 0x0
   16110: 6f 00 00 05  	jal	zero, 0x16160 <get_app14+0x1cc>
   16114: 03 35 04 00  	ld	a0, 0x0(s0)
   16118: 93 85 c4 00  	addi	a1, s1, 0xc
   1611c: 23 26 b5 02  	sw	a1, 0x2c(a0)
   16120: 83 35 04 00  	ld	a1, 0x0(s0)
   16124: 03 b6 85 00  	ld	a2, 0x8(a1)
   16128: 93 05 d0 04  	addi	a1, zero, 0x4d
   1612c: 23 24 b5 02  	sw	a1, 0x28(a0)
   16130: 93 05 10 00  	addi	a1, zero, 0x1
   16134: 13 05 04 00  	addi	a0, s0, 0x0
   16138: e7 00 06 00  	jalr	ra, 0x0(a2)
   1613c: 23 30 49 01  	sd	s4, 0x0(s2)
   16140: 23 34 39 01  	sd	s3, 0x8(s2)
   16144: 13 09 10 00  	addi	s2, zero, 0x1
   16148: 63 5c 90 00  	bge	zero, s1, 0x16160 <get_app14+0x1cc>
   1614c: 03 35 04 02  	ld	a0, 0x20(s0)
   16150: 03 36 05 02  	ld	a2, 0x20(a0)
   16154: 13 05 04 00  	addi	a0, s0, 0x0
   16158: 93 85 04 00  	addi	a1, s1, 0x0
   1615c: e7 00 06 00  	jalr	ra, 0x0(a2)
   16160: 13 05 09 00  	addi	a0, s2, 0x0
   16164: 13 01 01 01  	addi	sp, sp, 0x10
   16168: 6f d0 11 57  	jal	zero, 0x33ed8 <__riscv_restore_7>

000000000001616c <get_sof>:
   1616c: ef d2 f1 52  	jal	t0, 0x33e9a <__riscv_save_7>
   16170: 13 04 05 00  	addi	s0, a0, 0x0
   16174: 83 34 05 02  	ld	s1, 0x20(a0)
   16178: 83 b6 84 00  	ld	a3, 0x8(s1)
   1617c: 03 b5 04 00  	ld	a0, 0x0(s1)
   16180: 23 28 b4 12  	sw	a1, 0x130(s0)
   16184: 23 2a c4 12  	sw	a2, 0x134(s0)
   16188: 63 9e 06 00  	bne	a3, zero, 0x161a4 <get_sof+0x38>
   1618c: 83 b5 84 01  	ld	a1, 0x18(s1)
   16190: 13 05 04 00  	addi	a0, s0, 0x0
   16194: e7 80 05 00  	jalr	ra, 0x0(a1)
   16198: 63 00 05 38  	beq	a0, zero, 0x16518 <get_sof+0x3ac>
   1619c: 03 b5 04 00  	ld	a0, 0x0(s1)
   161a0: 83 b6 84 00  	ld	a3, 0x8(s1)
   161a4: 03 49 05 00  	lbu	s2, 0x0(a0)
   161a8: 93 86 f6 ff  	addi	a3, a3, -0x1
   161ac: 63 86 06 00  	beq	a3, zero, 0x161b8 <get_sof+0x4c>
   161b0: 13 05 15 00  	addi	a0, a0, 0x1
   161b4: 6f 00 c0 01  	jal	zero, 0x161d0 <get_sof+0x64>
   161b8: 83 b5 84 01  	ld	a1, 0x18(s1)
   161bc: 13 05 04 00  	addi	a0, s0, 0x0
   161c0: e7 80 05 00  	jalr	ra, 0x0(a1)
   161c4: 63 0a 05 34  	beq	a0, zero, 0x16518 <get_sof+0x3ac>
   161c8: 03 b5 04 00  	ld	a0, 0x0(s1)
   161cc: 83 b6 84 00  	ld	a3, 0x8(s1)
   161d0: 83 49 05 00  	lbu	s3, 0x0(a0)
   161d4: 93 85 f6 ff  	addi	a1, a3, -0x1
   161d8: 63 86 05 00  	beq	a1, zero, 0x161e4 <get_sof+0x78>
   161dc: 13 05 15 00  	addi	a0, a0, 0x1
   161e0: 6f 00 c0 01  	jal	zero, 0x161fc <get_sof+0x90>
   161e4: 83 b5 84 01  	ld	a1, 0x18(s1)
   161e8: 13 05 04 00  	addi	a0, s0, 0x0
   161ec: e7 80 05 00  	jalr	ra, 0x0(a1)
   161f0: 63 04 05 32  	beq	a0, zero, 0x16518 <get_sof+0x3ac>
   161f4: 03 b5 04 00  	ld	a0, 0x0(s1)
   161f8: 83 b5 84 00  	ld	a1, 0x8(s1)
   161fc: 03 46 05 00  	lbu	a2, 0x0(a0)
   16200: 93 85 f5 ff  	addi	a1, a1, -0x1
   16204: 23 20 c4 12  	sw	a2, 0x120(s0)
   16208: 63 86 05 00  	beq	a1, zero, 0x16214 <get_sof+0xa8>
   1620c: 13 05 15 00  	addi	a0, a0, 0x1
   16210: 6f 00 c0 01  	jal	zero, 0x1622c <get_sof+0xc0>
   16214: 83 b5 84 01  	ld	a1, 0x18(s1)
   16218: 13 05 04 00  	addi	a0, s0, 0x0
   1621c: e7 80 05 00  	jalr	ra, 0x0(a1)
   16220: 63 0c 05 2e  	beq	a0, zero, 0x16518 <get_sof+0x3ac>
   16224: 03 b5 04 00  	ld	a0, 0x0(s1)
   16228: 83 b5 84 00  	ld	a1, 0x8(s1)
   1622c: 03 46 05 00  	lbu	a2, 0x0(a0)
   16230: 93 85 f5 ff  	addi	a1, a1, -0x1
   16234: 13 16 86 00  	slli	a2, a2, 0x8
   16238: 23 26 c4 02  	sw	a2, 0x2c(s0)
   1623c: 63 86 05 00  	beq	a1, zero, 0x16248 <get_sof+0xdc>
   16240: 13 05 15 00  	addi	a0, a0, 0x1
   16244: 6f 00 00 02  	jal	zero, 0x16264 <get_sof+0xf8>
   16248: 83 b5 84 01  	ld	a1, 0x18(s1)
   1624c: 13 05 04 00  	addi	a0, s0, 0x0
   16250: e7 80 05 00  	jalr	ra, 0x0(a1)
   16254: 63 02 05 2c  	beq	a0, zero, 0x16518 <get_sof+0x3ac>
   16258: 03 b5 04 00  	ld	a0, 0x0(s1)
   1625c: 83 b5 84 00  	ld	a1, 0x8(s1)
   16260: 03 26 c4 02  	lw	a2, 0x2c(s0)
   16264: 83 46 05 00  	lbu	a3, 0x0(a0)
   16268: 93 85 f5 ff  	addi	a1, a1, -0x1
   1626c: 33 06 d6 00  	add	a2, a2, a3
   16270: 23 26 c4 02  	sw	a2, 0x2c(s0)
   16274: 63 86 05 00  	beq	a1, zero, 0x16280 <get_sof+0x114>
   16278: 93 0a 15 00  	addi	s5, a0, 0x1
   1627c: 6f 00 c0 01  	jal	zero, 0x16298 <get_sof+0x12c>
   16280: 83 b5 84 01  	ld	a1, 0x18(s1)
   16284: 13 05 04 00  	addi	a0, s0, 0x0
   16288: e7 80 05 00  	jalr	ra, 0x0(a1)
   1628c: 63 06 05 28  	beq	a0, zero, 0x16518 <get_sof+0x3ac>
   16290: 83 ba 04 00  	ld	s5, 0x0(s1)
   16294: 83 b5 84 00  	ld	a1, 0x8(s1)
   16298: 03 c5 0a 00  	lbu	a0, 0x0(s5)
   1629c: 13 8a f5 ff  	addi	s4, a1, -0x1
   162a0: 13 15 85 00  	slli	a0, a0, 0x8
   162a4: 23 24 a4 02  	sw	a0, 0x28(s0)
   162a8: 63 06 0a 00  	beq	s4, zero, 0x162b4 <get_sof+0x148>
   162ac: 93 8a 1a 00  	addi	s5, s5, 0x1
   162b0: 6f 00 00 02  	jal	zero, 0x162d0 <get_sof+0x164>
   162b4: 83 b5 84 01  	ld	a1, 0x18(s1)
   162b8: 13 05 04 00  	addi	a0, s0, 0x0
   162bc: e7 80 05 00  	jalr	ra, 0x0(a1)
   162c0: 63 0c 05 24  	beq	a0, zero, 0x16518 <get_sof+0x3ac>
   162c4: 83 ba 04 00  	ld	s5, 0x0(s1)
   162c8: 03 ba 84 00  	ld	s4, 0x8(s1)
   162cc: 03 25 84 02  	lw	a0, 0x28(s0)
   162d0: 83 c5 0a 00  	lbu	a1, 0x0(s5)
   162d4: 13 0a fa ff  	addi	s4, s4, -0x1
   162d8: 33 05 b5 00  	add	a0, a0, a1
   162dc: 23 24 a4 02  	sw	a0, 0x28(s0)
   162e0: 63 06 0a 00  	beq	s4, zero, 0x162ec <get_sof+0x180>
   162e4: 93 8a 1a 00  	addi	s5, s5, 0x1
   162e8: 6f 00 c0 01  	jal	zero, 0x16304 <get_sof+0x198>
   162ec: 83 b5 84 01  	ld	a1, 0x18(s1)
   162f0: 13 05 04 00  	addi	a0, s0, 0x0
   162f4: e7 80 05 00  	jalr	ra, 0x0(a1)
   162f8: 63 00 05 22  	beq	a0, zero, 0x16518 <get_sof+0x3ac>
   162fc: 83 ba 04 00  	ld	s5, 0x0(s1)
   16300: 03 ba 84 00  	ld	s4, 0x8(s1)
   16304: 03 c5 0a 00  	lbu	a0, 0x0(s5)
   16308: 83 35 04 00  	ld	a1, 0x0(s0)
   1630c: 03 26 c4 20  	lw	a2, 0x20c(s0)
   16310: 23 28 a4 02  	sw	a0, 0x30(s0)
   16314: 23 a6 c5 02  	sw	a2, 0x2c(a1)
   16318: 03 25 84 02  	lw	a0, 0x28(s0)
   1631c: 23 a8 a5 02  	sw	a0, 0x30(a1)
   16320: 03 25 c4 02  	lw	a0, 0x2c(s0)
   16324: 23 aa a5 02  	sw	a0, 0x34(a1)
   16328: 03 25 04 03  	lw	a0, 0x30(s0)
   1632c: 23 ac a5 02  	sw	a0, 0x38(a1)
   16330: 13 05 30 06  	addi	a0, zero, 0x63
   16334: 03 b6 85 00  	ld	a2, 0x8(a1)
   16338: 23 a4 a5 02  	sw	a0, 0x28(a1)
   1633c: 13 19 89 00  	slli	s2, s2, 0x8
   16340: 33 69 39 01  	or	s2, s2, s3
   16344: 93 05 10 00  	addi	a1, zero, 0x1
   16348: 13 05 04 00  	addi	a0, s0, 0x0
   1634c: e7 00 06 00  	jalr	ra, 0x0(a2)
   16350: 03 35 84 23  	ld	a0, 0x238(s0)
   16354: 03 25 45 0a  	lw	a0, 0xa4(a0)
   16358: 63 0e 05 00  	beq	a0, zero, 0x16374 <get_sof+0x208>
   1635c: 03 35 04 00  	ld	a0, 0x0(s0)
   16360: 83 35 05 00  	ld	a1, 0x0(a0)
   16364: 13 06 90 03  	addi	a2, zero, 0x39
   16368: 23 24 c5 02  	sw	a2, 0x28(a0)
   1636c: 13 05 04 00  	addi	a0, s0, 0x0
   16370: e7 80 05 00  	jalr	ra, 0x0(a1)
   16374: 03 25 c4 02  	lw	a0, 0x2c(s0)
   16378: 13 09 89 ff  	addi	s2, s2, -0x8
   1637c: 63 0a 05 00  	beq	a0, zero, 0x16390 <get_sof+0x224>
   16380: 03 25 84 02  	lw	a0, 0x28(s0)
   16384: 63 06 05 00  	beq	a0, zero, 0x16390 <get_sof+0x224>
   16388: 03 26 04 03  	lw	a2, 0x30(s0)
   1638c: 63 40 c0 02  	blt	zero, a2, 0x163ac <get_sof+0x240>
   16390: 03 35 04 00  	ld	a0, 0x0(s0)
   16394: 83 35 05 00  	ld	a1, 0x0(a0)
   16398: 13 06 f0 01  	addi	a2, zero, 0x1f
   1639c: 23 24 c5 02  	sw	a2, 0x28(a0)
   163a0: 13 05 04 00  	addi	a0, s0, 0x0
   163a4: e7 80 05 00  	jalr	ra, 0x0(a1)
   163a8: 03 26 04 03  	lw	a2, 0x30(s0)
   163ac: 13 15 16 00  	slli	a0, a2, 0x1
   163b0: 3b 05 c5 00  	addw	a0, a0, a2
   163b4: 63 00 a9 02  	beq	s2, a0, 0x163d4 <get_sof+0x268>
   163b8: 03 35 04 00  	ld	a0, 0x0(s0)
   163bc: 83 35 05 00  	ld	a1, 0x0(a0)
   163c0: 13 06 90 00  	addi	a2, zero, 0x9
   163c4: 23 24 c5 02  	sw	a2, 0x28(a0)
   163c8: 13 05 04 00  	addi	a0, s0, 0x0
   163cc: e7 80 05 00  	jalr	ra, 0x0(a1)
   163d0: 03 26 04 03  	lw	a2, 0x30(s0)
   163d4: 03 35 84 12  	ld	a0, 0x128(s0)
   163d8: 63 18 05 02  	bne	a0, zero, 0x16408 <get_sof+0x29c>
   163dc: 03 35 84 00  	ld	a0, 0x8(s0)
   163e0: 03 39 05 00  	ld	s2, 0x0(a0)
   163e4: 93 05 00 06  	addi	a1, zero, 0x60
   163e8: 13 05 06 00  	addi	a0, a2, 0x0
   163ec: ef d0 91 30  	jal	ra, 0x33ef4 <__muldi3>
   163f0: 13 06 05 00  	addi	a2, a0, 0x0
   163f4: 93 05 10 00  	addi	a1, zero, 0x1
   163f8: 13 05 04 00  	addi	a0, s0, 0x0
   163fc: e7 00 09 00  	jalr	ra, 0x0(s2)
   16400: 03 26 04 03  	lw	a2, 0x30(s0)
   16404: 23 34 a4 12  	sd	a0, 0x128(s0)
   16408: 93 8a 1a 00  	addi	s5, s5, 0x1
   1640c: 93 05 fa ff  	addi	a1, s4, -0x1
   16410: 63 5a c0 0e  	bge	zero, a2, 0x16504 <get_sof+0x398>
   16414: 13 09 00 00  	addi	s2, zero, 0x0
   16418: 93 09 05 01  	addi	s3, a0, 0x10
   1641c: 13 0a 40 06  	addi	s4, zero, 0x64
   16420: 23 aa 29 ff  	sw	s2, -0xc(s3)
   16424: 63 9e 05 00  	bne	a1, zero, 0x16440 <get_sof+0x2d4>
   16428: 83 b5 84 01  	ld	a1, 0x18(s1)
   1642c: 13 05 04 00  	addi	a0, s0, 0x0
   16430: e7 80 05 00  	jalr	ra, 0x0(a1)
   16434: 63 02 05 0e  	beq	a0, zero, 0x16518 <get_sof+0x3ac>
   16438: 83 ba 04 00  	ld	s5, 0x0(s1)
   1643c: 83 b5 84 00  	ld	a1, 0x8(s1)
   16440: 03 c5 0a 00  	lbu	a0, 0x0(s5)
   16444: 93 85 f5 ff  	addi	a1, a1, -0x1
   16448: 23 a8 a9 fe  	sw	a0, -0x10(s3)
   1644c: 63 86 05 00  	beq	a1, zero, 0x16458 <get_sof+0x2ec>
   16450: 93 8a 1a 00  	addi	s5, s5, 0x1
   16454: 6f 00 c0 01  	jal	zero, 0x16470 <get_sof+0x304>
   16458: 83 b5 84 01  	ld	a1, 0x18(s1)
   1645c: 13 05 04 00  	addi	a0, s0, 0x0
   16460: e7 80 05 00  	jalr	ra, 0x0(a1)
   16464: 63 0a 05 0a  	beq	a0, zero, 0x16518 <get_sof+0x3ac>
   16468: 83 ba 04 00  	ld	s5, 0x0(s1)
   1646c: 83 b5 84 00  	ld	a1, 0x8(s1)
   16470: 03 c5 0a 00  	lbu	a0, 0x0(s5)
   16474: 13 8b f5 ff  	addi	s6, a1, -0x1
   16478: 93 55 45 00  	srli	a1, a0, 0x4
   1647c: 23 ac b9 fe  	sw	a1, -0x8(s3)
   16480: 13 75 f5 00  	andi	a0, a0, 0xf
   16484: 23 ae a9 fe  	sw	a0, -0x4(s3)
   16488: 63 06 0b 00  	beq	s6, zero, 0x16494 <get_sof+0x328>
   1648c: 93 8a 1a 00  	addi	s5, s5, 0x1
   16490: 6f 00 c0 01  	jal	zero, 0x164ac <get_sof+0x340>
   16494: 83 b5 84 01  	ld	a1, 0x18(s1)
   16498: 13 05 04 00  	addi	a0, s0, 0x0
   1649c: e7 80 05 00  	jalr	ra, 0x0(a1)
   164a0: 63 0c 05 06  	beq	a0, zero, 0x16518 <get_sof+0x3ac>
   164a4: 83 ba 04 00  	ld	s5, 0x0(s1)
   164a8: 03 bb 84 00  	ld	s6, 0x8(s1)
   164ac: 03 c5 0a 00  	lbu	a0, 0x0(s5)
   164b0: 83 35 04 00  	ld	a1, 0x0(s0)
   164b4: 03 a6 09 ff  	lw	a2, -0x10(s3)
   164b8: 23 a0 a9 00  	sw	a0, 0x0(s3)
   164bc: 23 a6 c5 02  	sw	a2, 0x2c(a1)
   164c0: 03 a5 89 ff  	lw	a0, -0x8(s3)
   164c4: 23 a8 a5 02  	sw	a0, 0x30(a1)
   164c8: 03 a5 c9 ff  	lw	a0, -0x4(s3)
   164cc: 23 aa a5 02  	sw	a0, 0x34(a1)
   164d0: 03 a5 09 00  	lw	a0, 0x0(s3)
   164d4: 03 b6 85 00  	ld	a2, 0x8(a1)
   164d8: 23 ac a5 02  	sw	a0, 0x38(a1)
   164dc: 23 a4 45 03  	sw	s4, 0x28(a1)
   164e0: 93 05 10 00  	addi	a1, zero, 0x1
   164e4: 13 05 04 00  	addi	a0, s0, 0x0
   164e8: e7 00 06 00  	jalr	ra, 0x0(a2)
   164ec: 03 25 04 03  	lw	a0, 0x30(s0)
   164f0: 1b 09 19 00  	addiw	s2, s2, 0x1
   164f4: 93 8a 1a 00  	addi	s5, s5, 0x1
   164f8: 93 05 fb ff  	addi	a1, s6, -0x1
   164fc: 93 89 09 06  	addi	s3, s3, 0x60
   16500: e3 40 a9 f2  	blt	s2, a0, 0x16420 <get_sof+0x2b4>
   16504: 03 36 84 23  	ld	a2, 0x238(s0)
   16508: 13 05 10 00  	addi	a0, zero, 0x1
   1650c: 23 22 a6 0a  	sw	a0, 0xa4(a2)
   16510: 23 b0 54 01  	sd	s5, 0x0(s1)
   16514: 23 b4 b4 00  	sd	a1, 0x8(s1)
   16518: 6f d0 11 1c  	jal	zero, 0x33ed8 <__riscv_restore_7>

000000000001651c <jpeg_make_d_derived_tbl>:
   1651c: ef d2 f1 17  	jal	t0, 0x33e9a <__riscv_save_7>
   16520: 13 01 01 af  	addi	sp, sp, -0x510
   16524: 83 34 06 00  	ld	s1, 0x0(a2)
   16528: 13 84 05 00  	addi	s0, a1, 0x0
   1652c: 63 92 04 02  	bne	s1, zero, 0x16550 <jpeg_make_d_derived_tbl+0x34>
   16530: 13 09 06 00  	addi	s2, a2, 0x0
   16534: 83 35 85 00  	ld	a1, 0x8(a0)
   16538: 83 b6 05 00  	ld	a3, 0x0(a1)
   1653c: 93 05 10 00  	addi	a1, zero, 0x1
   16540: 13 06 80 66  	addi	a2, zero, 0x668
   16544: e7 80 06 00  	jalr	ra, 0x0(a3)
   16548: 93 04 05 00  	addi	s1, a0, 0x0
   1654c: 23 30 a9 00  	sd	a0, 0x0(s2)
   16550: 13 0a 00 00  	addi	s4, zero, 0x0
   16554: 23 b0 84 16  	sd	s0, 0x160(s1)
   16558: 13 09 10 00  	addi	s2, zero, 0x1
   1655c: 93 0a 10 01  	addi	s5, zero, 0x11
   16560: 13 0b f1 40  	addi	s6, sp, 0x40f
   16564: 33 05 24 01  	add	a0, s0, s2
   16568: 83 49 05 00  	lbu	s3, 0x0(a0)
   1656c: 63 8c 09 00  	beq	s3, zero, 0x16584 <jpeg_make_d_derived_tbl+0x68>
   16570: 33 05 4b 01  	add	a0, s6, s4
   16574: 93 05 09 00  	addi	a1, s2, 0x0
   16578: 13 86 09 00  	addi	a2, s3, 0x0
   1657c: ef b0 40 78  	jal	ra, 0x21d00 <memset>
   16580: 3b 0a 3a 01  	addw	s4, s4, s3
   16584: 13 09 19 00  	addi	s2, s2, 0x1
   16588: e3 1e 59 fd  	bne	s2, s5, 0x16564 <jpeg_make_d_derived_tbl+0x48>
   1658c: 13 05 f1 40  	addi	a0, sp, 0x40f
   16590: 33 0a 45 01  	add	s4, a0, s4
   16594: 23 00 0a 00  	sb	zero, 0x0(s4)
   16598: 83 48 f1 40  	lbu	a7, 0x40f(sp)
   1659c: 63 8a 08 06  	beq	a7, zero, 0x16610 <jpeg_make_d_derived_tbl+0xf4>
   165a0: 93 05 00 00  	addi	a1, zero, 0x0
   165a4: 13 06 00 00  	addi	a2, zero, 0x0
   165a8: 93 06 01 41  	addi	a3, sp, 0x410
   165ac: 13 07 81 00  	addi	a4, sp, 0x8
   165b0: 93 07 10 00  	addi	a5, zero, 0x1
   165b4: 93 97 07 02  	slli	a5, a5, 0x20
   165b8: 13 88 08 00  	addi	a6, a7, 0x0
   165bc: 93 f2 f8 0f  	andi	t0, a7, 0xff
   165c0: 63 10 58 04  	bne	a6, t0, 0x16600 <jpeg_make_d_derived_tbl+0xe4>
   165c4: 93 12 26 00  	slli	t0, a2, 0x2
   165c8: b3 02 57 00  	add	t0, a4, t0
   165cc: 93 18 06 02  	slli	a7, a2, 0x20
   165d0: 33 83 c6 00  	add	t1, a3, a2
   165d4: 23 a0 b2 00  	sw	a1, 0x0(t0)
   165d8: 93 85 15 00  	addi	a1, a1, 0x1
   165dc: 83 43 03 00  	lbu	t2, 0x0(t1)
   165e0: 93 82 42 00  	addi	t0, t0, 0x4
   165e4: b3 88 f8 00  	add	a7, a7, a5
   165e8: 1b 06 16 00  	addiw	a2, a2, 0x1
   165ec: 13 03 13 00  	addi	t1, t1, 0x1
   165f0: e3 02 78 fe  	beq	a6, t2, 0x165d4 <jpeg_make_d_derived_tbl+0xb8>
   165f4: 93 d8 08 42  	srai	a7, a7, 0x20
   165f8: b3 08 15 01  	add	a7, a0, a7
   165fc: 83 c8 08 00  	lbu	a7, 0x0(a7)
   16600: 93 95 15 00  	slli	a1, a1, 0x1
   16604: 93 f2 f8 0f  	andi	t0, a7, 0xff
   16608: 1b 08 18 00  	addiw	a6, a6, 0x1
   1660c: e3 98 02 fa  	bne	t0, zero, 0x165bc <jpeg_make_d_derived_tbl+0xa0>
   16610: 13 05 00 00  	addi	a0, zero, 0x0
   16614: 93 85 04 09  	addi	a1, s1, 0x90
   16618: 13 06 14 00  	addi	a2, s0, 0x1
   1661c: 93 86 c4 11  	addi	a3, s1, 0x11c
   16620: 13 87 04 11  	addi	a4, s1, 0x110
   16624: 93 07 81 00  	addi	a5, sp, 0x8
   16628: 03 48 06 00  	lbu	a6, 0x0(a2)
   1662c: 63 08 08 02  	beq	a6, zero, 0x1665c <jpeg_make_d_derived_tbl+0x140>
   16630: 13 18 25 00  	slli	a6, a0, 0x2
   16634: 33 88 07 01  	add	a6, a5, a6
   16638: 03 68 08 00  	lwu	a6, 0x0(a6)
   1663c: 23 a0 a6 00  	sw	a0, 0x0(a3)
   16640: 23 bc 05 f7  	sd	a6, -0x88(a1)
   16644: 03 48 06 00  	lbu	a6, 0x0(a2)
   16648: 3b 05 05 01  	addw	a0, a0, a6
   1664c: 13 18 25 00  	slli	a6, a0, 0x2
   16650: 33 08 f8 00  	add	a6, a6, a5
   16654: 03 68 c8 ff  	lwu	a6, -0x4(a6)
   16658: 6f 00 80 00  	jal	zero, 0x16660 <jpeg_make_d_derived_tbl+0x144>
   1665c: 13 08 f0 ff  	addi	a6, zero, -0x1
   16660: 23 b0 05 01  	sd	a6, 0x0(a1)
   16664: 93 85 85 00  	addi	a1, a1, 0x8
   16668: 13 06 16 00  	addi	a2, a2, 0x1
   1666c: 93 86 46 00  	addi	a3, a3, 0x4
   16670: e3 9c e5 fa  	bne	a1, a4, 0x16628 <jpeg_make_d_derived_tbl+0x10c>
   16674: 37 05 10 00  	lui	a0, 0x100
   16678: 1b 05 f5 ff  	addiw	a0, a0, -0x1
   1667c: 23 b8 a4 10  	sd	a0, 0x110(s1)
   16680: 13 89 84 16  	addi	s2, s1, 0x168
   16684: 13 06 00 40  	addi	a2, zero, 0x400
   16688: 13 05 09 00  	addi	a0, s2, 0x0
   1668c: 93 05 00 00  	addi	a1, zero, 0x0
   16690: ef b0 00 67  	jal	ra, 0x21d00 <memset>
   16694: 13 05 00 00  	addi	a0, zero, 0x0
   16698: 93 85 84 56  	addi	a1, s1, 0x568
   1669c: 13 86 c4 16  	addi	a2, s1, 0x16c
   166a0: 93 06 10 00  	addi	a3, zero, 0x1
   166a4: 13 07 90 00  	addi	a4, zero, 0x9
   166a8: 93 07 80 00  	addi	a5, zero, 0x8
   166ac: 13 08 81 00  	addi	a6, sp, 0x8
   166b0: b3 08 d4 00  	add	a7, s0, a3
   166b4: 83 c2 08 00  	lbu	t0, 0x0(a7)
   166b8: 63 82 02 08  	beq	t0, zero, 0x1673c <jpeg_make_d_derived_tbl+0x220>
   166bc: bb 82 d7 40  	subw	t0, a5, a3
   166c0: 13 0e 10 00  	addi	t3, zero, 0x1
   166c4: 3b 13 5e 00  	sllw	t1, t3, t0
   166c8: 93 03 03 00  	addi	t2, t1, 0x0
   166cc: 63 54 60 00  	bge	zero, t1, 0x166d4 <jpeg_make_d_derived_tbl+0x1b8>
   166d0: 93 03 10 00  	addi	t2, zero, 0x1
   166d4: 1b 05 05 00  	addiw	a0, a0, 0x0
   166d8: 3b 03 73 40  	subw	t1, t1, t2
   166dc: 13 13 03 02  	slli	t1, t1, 0x20
   166e0: 13 53 e3 01  	srli	t1, t1, 0x1e
   166e4: 33 03 66 00  	add	t1, a2, t1
   166e8: 93 13 25 00  	slli	t2, a0, 0x2
   166ec: b3 03 78 00  	add	t2, a6, t2
   166f0: 83 ae 03 00  	lw	t4, 0x0(t2)
   166f4: 93 03 0e 00  	addi	t2, t3, 0x0
   166f8: 3b 9f 5e 00  	sllw	t5, t4, t0
   166fc: 33 0e a4 00  	add	t3, s0, a0
   16700: 13 0e 1e 01  	addi	t3, t3, 0x11
   16704: 93 1f 2f 00  	slli	t6, t5, 0x2
   16708: b3 0e f9 01  	add	t4, s2, t6
   1670c: 33 8f e5 01  	add	t5, a1, t5
   16710: b3 0f f3 01  	add	t6, t1, t6
   16714: 23 a0 de 00  	sw	a3, 0x0(t4)
   16718: 83 44 0e 00  	lbu	s1, 0x0(t3)
   1671c: 23 00 9f 00  	sb	s1, 0x0(t5)
   16720: 93 8e 4e 00  	addi	t4, t4, 0x4
   16724: 13 0f 1f 00  	addi	t5, t5, 0x1
   16728: e3 96 fe ff  	bne	t4, t6, 0x16714 <jpeg_make_d_derived_tbl+0x1f8>
   1672c: 83 ce 08 00  	lbu	t4, 0x0(a7)
   16730: 1b 8e 13 00  	addiw	t3, t2, 0x1
   16734: 13 05 15 00  	addi	a0, a0, 0x1
   16738: e3 e8 d3 fb  	bltu	t2, t4, 0x166e8 <jpeg_make_d_derived_tbl+0x1cc>
   1673c: 93 86 16 00  	addi	a3, a3, 0x1
   16740: e3 98 e6 f6  	bne	a3, a4, 0x166b0 <jpeg_make_d_derived_tbl+0x194>
   16744: 13 01 01 51  	addi	sp, sp, 0x510
   16748: 6f d0 01 79  	jal	zero, 0x33ed8 <__riscv_restore_7>

000000000001674c <jpeg_fill_bit_buffer>:
   1674c: ef d2 a1 73  	jal	t0, 0x33e86 <__riscv_save_11>
   16750: 13 04 05 00  	addi	s0, a0, 0x0
   16754: 03 3c 05 00  	ld	s8, 0x0(a0)
   16758: 03 3b 85 00  	ld	s6, 0x8(a0)
   1675c: 13 05 80 01  	addi	a0, zero, 0x18
   16760: 93 84 05 00  	addi	s1, a1, 0x0
   16764: 63 4e c5 0e  	blt	a0, a2, 0x16860 <jpeg_fill_bit_buffer+0x114>
   16768: 13 89 06 00  	addi	s2, a3, 0x0
   1676c: 93 09 f0 0f  	addi	s3, zero, 0xff
   16770: 13 0a 10 01  	addi	s4, zero, 0x11
   16774: 93 0a 10 07  	addi	s5, zero, 0x71
   16778: 93 0b 10 00  	addi	s7, zero, 0x1
   1677c: 03 25 04 01  	lw	a0, 0x10(s0)
   16780: 93 0c 06 00  	addi	s9, a2, 0x0
   16784: 63 0e 05 00  	beq	a0, zero, 0x167a0 <jpeg_fill_bit_buffer+0x54>
   16788: 63 da 2c 0d  	bge	s9, s2, 0x1685c <jpeg_fill_bit_buffer+0x110>
   1678c: 03 35 04 03  	ld	a0, 0x30(s0)
   16790: 03 25 05 00  	lw	a0, 0x0(a0)
   16794: 63 04 05 08  	beq	a0, zero, 0x1681c <jpeg_fill_bit_buffer+0xd0>
   16798: 13 05 00 00  	addi	a0, zero, 0x0
   1679c: 6f 00 40 0a  	jal	zero, 0x16840 <jpeg_fill_bit_buffer+0xf4>
   167a0: 63 14 0b 02  	bne	s6, zero, 0x167c8 <jpeg_fill_bit_buffer+0x7c>
   167a4: 03 35 84 02  	ld	a0, 0x28(s0)
   167a8: 83 35 05 02  	ld	a1, 0x20(a0)
   167ac: 83 b5 85 01  	ld	a1, 0x18(a1)
   167b0: e7 80 05 00  	jalr	ra, 0x0(a1)
   167b4: 63 00 05 0c  	beq	a0, zero, 0x16874 <jpeg_fill_bit_buffer+0x128>
   167b8: 03 35 84 02  	ld	a0, 0x28(s0)
   167bc: 03 35 05 02  	ld	a0, 0x20(a0)
   167c0: 03 3c 05 00  	ld	s8, 0x0(a0)
   167c4: 03 3b 85 00  	ld	s6, 0x8(a0)
   167c8: 03 45 0c 00  	lbu	a0, 0x0(s8)
   167cc: 13 0b fb ff  	addi	s6, s6, -0x1
   167d0: 13 0c 1c 00  	addi	s8, s8, 0x1
   167d4: 63 16 35 07  	bne	a0, s3, 0x16840 <jpeg_fill_bit_buffer+0xf4>
   167d8: 63 14 0b 02  	bne	s6, zero, 0x16800 <jpeg_fill_bit_buffer+0xb4>
   167dc: 03 35 84 02  	ld	a0, 0x28(s0)
   167e0: 83 35 05 02  	ld	a1, 0x20(a0)
   167e4: 83 b5 85 01  	ld	a1, 0x18(a1)
   167e8: e7 80 05 00  	jalr	ra, 0x0(a1)
   167ec: 63 04 05 08  	beq	a0, zero, 0x16874 <jpeg_fill_bit_buffer+0x128>
   167f0: 03 35 84 02  	ld	a0, 0x28(s0)
   167f4: 03 35 05 02  	ld	a0, 0x20(a0)
   167f8: 03 3c 05 00  	ld	s8, 0x0(a0)
   167fc: 03 3b 85 00  	ld	s6, 0x8(a0)
   16800: 03 45 0c 00  	lbu	a0, 0x0(s8)
   16804: 13 0b fb ff  	addi	s6, s6, -0x1
   16808: 13 0c 1c 00  	addi	s8, s8, 0x1
   1680c: e3 06 35 fd  	beq	a0, s3, 0x167d8 <jpeg_fill_bit_buffer+0x8c>
   16810: 63 12 05 04  	bne	a0, zero, 0x16854 <jpeg_fill_bit_buffer+0x108>
   16814: 13 05 f0 0f  	addi	a0, zero, 0xff
   16818: 6f 00 80 02  	jal	zero, 0x16840 <jpeg_fill_bit_buffer+0xf4>
   1681c: 03 35 84 02  	ld	a0, 0x28(s0)
   16820: 83 35 05 00  	ld	a1, 0x0(a0)
   16824: 03 b6 85 00  	ld	a2, 0x8(a1)
   16828: 23 a4 55 03  	sw	s5, 0x28(a1)
   1682c: 93 05 f0 ff  	addi	a1, zero, -0x1
   16830: e7 00 06 00  	jalr	ra, 0x0(a2)
   16834: 83 35 04 03  	ld	a1, 0x30(s0)
   16838: 13 05 00 00  	addi	a0, zero, 0x0
   1683c: 23 a0 75 01  	sw	s7, 0x0(a1)
   16840: 93 94 84 00  	slli	s1, s1, 0x8
   16844: b3 64 95 00  	or	s1, a0, s1
   16848: 1b 86 8c 00  	addiw	a2, s9, 0x8
   1684c: e3 c8 4c f3  	blt	s9, s4, 0x1677c <jpeg_fill_bit_buffer+0x30>
   16850: 6f 00 00 01  	jal	zero, 0x16860 <jpeg_fill_bit_buffer+0x114>
   16854: 23 28 a4 00  	sw	a0, 0x10(s0)
   16858: e3 ca 2c f3  	blt	s9, s2, 0x1678c <jpeg_fill_bit_buffer+0x40>
   1685c: 13 86 0c 00  	addi	a2, s9, 0x0
   16860: 23 30 84 01  	sd	s8, 0x0(s0)
   16864: 23 34 64 01  	sd	s6, 0x8(s0)
   16868: 23 3c 94 00  	sd	s1, 0x18(s0)
   1686c: 23 20 c4 02  	sw	a2, 0x20(s0)
   16870: 13 05 10 00  	addi	a0, zero, 0x1
   16874: 6f d0 81 65  	jal	zero, 0x33ecc <__riscv_restore_11>

0000000000016878 <jpeg_huff_decode>:
   16878: ef d2 21 62  	jal	t0, 0x33e9a <__riscv_save_7>
   1687c: 93 04 07 00  	addi	s1, a4, 0x0
   16880: 13 84 06 00  	addi	s0, a3, 0x0
   16884: 13 09 05 00  	addi	s2, a0, 0x0
   16888: 63 5e e6 00  	bge	a2, a4, 0x168a4 <jpeg_huff_decode+0x2c>
   1688c: 13 05 09 00  	addi	a0, s2, 0x0
   16890: 93 86 04 00  	addi	a3, s1, 0x0
   16894: ef f0 9f eb  	jal	ra, 0x1674c <jpeg_fill_bit_buffer>
   16898: 63 0a 05 0e  	beq	a0, zero, 0x1698c <jpeg_huff_decode+0x114>
   1689c: 83 35 89 01  	ld	a1, 0x18(s2)
   168a0: 03 26 09 02  	lw	a2, 0x20(s2)
   168a4: 3b 06 96 40  	subw	a2, a2, s1
   168a8: 33 d5 c5 40  	sra	a0, a1, a2
   168ac: 93 06 f0 ff  	addi	a3, zero, -0x1
   168b0: 13 97 34 00  	slli	a4, s1, 0x3
   168b4: 33 07 e4 00  	add	a4, s0, a4
   168b8: 03 37 87 08  	ld	a4, 0x88(a4)
   168bc: bb 96 96 00  	sllw	a3, a3, s1
   168c0: 93 c6 f6 ff  	xori	a3, a3, -0x1
   168c4: b3 79 d5 00  	and	s3, a0, a3
   168c8: 63 5e 37 05  	bge	a4, s3, 0x16924 <jpeg_huff_decode+0xac>
   168cc: 13 95 34 00  	slli	a0, s1, 0x3
   168d0: 33 05 85 00  	add	a0, a0, s0
   168d4: 93 0a 05 09  	addi	s5, a0, 0x90
   168d8: 13 8a 04 00  	addi	s4, s1, 0x0
   168dc: 63 4e c0 00  	blt	zero, a2, 0x168f8 <jpeg_huff_decode+0x80>
   168e0: 93 06 10 00  	addi	a3, zero, 0x1
   168e4: 13 05 09 00  	addi	a0, s2, 0x0
   168e8: ef f0 5f e6  	jal	ra, 0x1674c <jpeg_fill_bit_buffer>
   168ec: 63 00 05 0a  	beq	a0, zero, 0x1698c <jpeg_huff_decode+0x114>
   168f0: 83 35 89 01  	ld	a1, 0x18(s2)
   168f4: 03 26 09 02  	lw	a2, 0x20(s2)
   168f8: 93 99 19 00  	slli	s3, s3, 0x1
   168fc: 1b 06 f6 ff  	addiw	a2, a2, -0x1
   16900: 33 d5 c5 00  	srl	a0, a1, a2
   16904: 13 75 15 00  	andi	a0, a0, 0x1
   16908: 83 b6 0a 00  	ld	a3, 0x0(s5)
   1690c: b3 69 35 01  	or	s3, a0, s3
   16910: 13 0a 1a 00  	addi	s4, s4, 0x1
   16914: 9b 84 14 00  	addiw	s1, s1, 0x1
   16918: 93 8a 8a 00  	addi	s5, s5, 0x8
   1691c: e3 c0 36 fd  	blt	a3, s3, 0x168dc <jpeg_huff_decode+0x64>
   16920: 6f 00 80 00  	jal	zero, 0x16928 <jpeg_huff_decode+0xb0>
   16924: 13 8a 04 00  	addi	s4, s1, 0x0
   16928: 23 3c b9 00  	sd	a1, 0x18(s2)
   1692c: 13 05 10 01  	addi	a0, zero, 0x11
   16930: 23 20 c9 02  	sw	a2, 0x20(s2)
   16934: 63 c4 a4 02  	blt	s1, a0, 0x1695c <jpeg_huff_decode+0xe4>
   16938: 03 35 89 02  	ld	a0, 0x28(s2)
   1693c: 83 35 05 00  	ld	a1, 0x0(a0)
   16940: 03 b6 85 00  	ld	a2, 0x8(a1)
   16944: 93 06 20 07  	addi	a3, zero, 0x72
   16948: 23 a4 d5 02  	sw	a3, 0x28(a1)
   1694c: 93 05 f0 ff  	addi	a1, zero, -0x1
   16950: e7 00 06 00  	jalr	ra, 0x0(a2)
   16954: 13 05 00 00  	addi	a0, zero, 0x0
   16958: 6f d0 01 58  	jal	zero, 0x33ed8 <__riscv_restore_7>
   1695c: 13 15 2a 00  	slli	a0, s4, 0x2
   16960: 33 05 a4 00  	add	a0, s0, a0
   16964: 13 1a 3a 00  	slli	s4, s4, 0x3
   16968: 33 0a 44 01  	add	s4, s0, s4
   1696c: 83 35 0a 00  	ld	a1, 0x0(s4)
   16970: 03 25 85 11  	lw	a0, 0x118(a0)
   16974: 03 36 04 16  	ld	a2, 0x160(s0)
   16978: bb 85 b9 40  	subw	a1, s3, a1
   1697c: 3b 05 b5 00  	addw	a0, a0, a1
   16980: 33 05 a6 00  	add	a0, a2, a0
   16984: 03 45 15 01  	lbu	a0, 0x11(a0)
   16988: 6f d0 01 55  	jal	zero, 0x33ed8 <__riscv_restore_7>
   1698c: 13 05 f0 ff  	addi	a0, zero, -0x1
   16990: 6f d0 81 54  	jal	zero, 0x33ed8 <__riscv_restore_7>

0000000000016994 <jinit_huff_decoder>:
   16994: ef d2 c1 52  	jal	t0, 0x33ec0 <__riscv_save_1>
   16998: 13 04 05 00  	addi	s0, a0, 0x0
   1699c: 03 35 85 00  	ld	a0, 0x8(a0)
   169a0: 83 36 05 00  	ld	a3, 0x0(a0)
   169a4: 93 05 10 00  	addi	a1, zero, 0x1
   169a8: 13 06 80 07  	addi	a2, zero, 0x78
   169ac: 13 05 04 00  	addi	a0, s0, 0x0
   169b0: e7 80 06 00  	jalr	ra, 0x0(a3)
   169b4: 23 30 a4 24  	sd	a0, 0x240(s0)
   169b8: b7 75 01 00  	lui	a1, 0x17
   169bc: 93 85 85 9f  	addi	a1, a1, -0x608
   169c0: 23 30 b5 00  	sd	a1, 0x0(a0)
   169c4: b7 75 01 00  	lui	a1, 0x17
   169c8: 93 85 85 b3  	addi	a1, a1, -0x4c8
   169cc: 23 34 b5 00  	sd	a1, 0x8(a0)
   169d0: 23 38 05 04  	sd	zero, 0x50(a0)
   169d4: 23 34 05 04  	sd	zero, 0x48(a0)
   169d8: 23 30 05 04  	sd	zero, 0x40(a0)
   169dc: 23 3c 05 02  	sd	zero, 0x38(a0)
   169e0: 93 05 85 05  	addi	a1, a0, 0x58
   169e4: 13 05 85 07  	addi	a0, a0, 0x78
   169e8: 23 b0 05 00  	sd	zero, 0x0(a1)
   169ec: 93 85 85 00  	addi	a1, a1, 0x8
   169f0: e3 9c a5 fe  	bne	a1, a0, 0x169e8 <jinit_huff_decoder+0x54>
   169f4: 6f d0 61 4f  	jal	zero, 0x33eea <__riscv_restore_1>

00000000000169f8 <start_pass_huff_decoder>:
   169f8: ef d2 81 49  	jal	t0, 0x33e90 <__riscv_save_9>
   169fc: 13 04 05 00  	addi	s0, a0, 0x0
   16a00: 03 25 c5 1f  	lw	a0, 0x1fc(a0)
   16a04: 83 34 04 24  	ld	s1, 0x240(s0)
   16a08: 63 10 05 02  	bne	a0, zero, 0x16a28 <start_pass_huff_decoder+0x30>
   16a0c: 03 25 04 20  	lw	a0, 0x200(s0)
   16a10: 93 05 f0 03  	addi	a1, zero, 0x3f
   16a14: 63 1a b5 00  	bne	a0, a1, 0x16a28 <start_pass_huff_decoder+0x30>
   16a18: 03 25 44 20  	lw	a0, 0x204(s0)
   16a1c: 63 16 05 00  	bne	a0, zero, 0x16a28 <start_pass_huff_decoder+0x30>
   16a20: 03 25 84 20  	lw	a0, 0x208(s0)
   16a24: 63 00 05 02  	beq	a0, zero, 0x16a44 <start_pass_huff_decoder+0x4c>
   16a28: 03 35 04 00  	ld	a0, 0x0(s0)
   16a2c: 03 36 85 00  	ld	a2, 0x8(a0)
   16a30: 93 05 60 07  	addi	a1, zero, 0x76
   16a34: 23 24 b5 02  	sw	a1, 0x28(a0)
   16a38: 93 05 f0 ff  	addi	a1, zero, -0x1
   16a3c: 13 05 04 00  	addi	a0, s0, 0x0
   16a40: e7 00 06 00  	jalr	ra, 0x0(a2)
   16a44: 03 25 04 1a  	lw	a0, 0x1a0(s0)
   16a48: 63 5e a0 0c  	bge	zero, a0, 0x16b24 <start_pass_huff_decoder+0x12c>
   16a4c: 13 09 00 00  	addi	s2, zero, 0x0
   16a50: 93 89 04 02  	addi	s3, s1, 0x20
   16a54: 13 0a 84 1a  	addi	s4, s0, 0x1a8
   16a58: 93 0a 30 00  	addi	s5, zero, 0x3
   16a5c: 13 0b 10 03  	addi	s6, zero, 0x31
   16a60: 03 35 0a 00  	ld	a0, 0x0(s4)
   16a64: 03 2c 45 01  	lw	s8, 0x14(a0)
   16a68: 83 2b 85 01  	lw	s7, 0x18(a0)
   16a6c: 63 ee 8a 01  	bltu	s5, s8, 0x16a88 <start_pass_huff_decoder+0x90>
   16a70: 13 15 3c 00  	slli	a0, s8, 0x3
   16a74: 33 05 a4 00  	add	a0, s0, a0
   16a78: 03 35 05 0e  	ld	a0, 0xe0(a0)
   16a7c: 63 06 05 00  	beq	a0, zero, 0x16a88 <start_pass_huff_decoder+0x90>
   16a80: 63 f4 7a 03  	bgeu	s5, s7, 0x16aa8 <start_pass_huff_decoder+0xb0>
   16a84: 6f 00 40 03  	jal	zero, 0x16ab8 <start_pass_huff_decoder+0xc0>
   16a88: 03 35 04 00  	ld	a0, 0x0(s0)
   16a8c: 23 26 85 03  	sw	s8, 0x2c(a0)
   16a90: 83 35 04 00  	ld	a1, 0x0(s0)
   16a94: 83 b5 05 00  	ld	a1, 0x0(a1)
   16a98: 23 24 65 03  	sw	s6, 0x28(a0)
   16a9c: 13 05 04 00  	addi	a0, s0, 0x0
   16aa0: e7 80 05 00  	jalr	ra, 0x0(a1)
   16aa4: 63 ea 7a 01  	bltu	s5, s7, 0x16ab8 <start_pass_huff_decoder+0xc0>
   16aa8: 13 95 3b 00  	slli	a0, s7, 0x3
   16aac: 33 05 a4 00  	add	a0, s0, a0
   16ab0: 03 35 05 10  	ld	a0, 0x100(a0)
   16ab4: 63 10 05 02  	bne	a0, zero, 0x16ad4 <start_pass_huff_decoder+0xdc>
   16ab8: 03 35 04 00  	ld	a0, 0x0(s0)
   16abc: 23 26 75 03  	sw	s7, 0x2c(a0)
   16ac0: 83 35 04 00  	ld	a1, 0x0(s0)
   16ac4: 83 b5 05 00  	ld	a1, 0x0(a1)
   16ac8: 23 24 65 03  	sw	s6, 0x28(a0)
   16acc: 13 05 04 00  	addi	a0, s0, 0x0
   16ad0: e7 80 05 00  	jalr	ra, 0x0(a1)
   16ad4: 13 1c 3c 00  	slli	s8, s8, 0x3
   16ad8: 33 05 84 01  	add	a0, s0, s8
   16adc: 83 35 05 0e  	ld	a1, 0xe0(a0)
   16ae0: 33 8c 84 01  	add	s8, s1, s8
   16ae4: 13 06 8c 03  	addi	a2, s8, 0x38
   16ae8: 13 05 04 00  	addi	a0, s0, 0x0
   16aec: ef f0 1f a3  	jal	ra, 0x1651c <jpeg_make_d_derived_tbl>
   16af0: 93 9b 3b 00  	slli	s7, s7, 0x3
   16af4: 33 05 74 01  	add	a0, s0, s7
   16af8: 83 35 05 10  	ld	a1, 0x100(a0)
   16afc: b3 8b 74 01  	add	s7, s1, s7
   16b00: 13 86 8b 05  	addi	a2, s7, 0x58
   16b04: 13 05 04 00  	addi	a0, s0, 0x0
   16b08: ef f0 5f a1  	jal	ra, 0x1651c <jpeg_make_d_derived_tbl>
   16b0c: 23 a0 09 00  	sw	zero, 0x0(s3)
   16b10: 03 25 04 1a  	lw	a0, 0x1a0(s0)
   16b14: 13 09 19 00  	addi	s2, s2, 0x1
   16b18: 93 89 49 00  	addi	s3, s3, 0x4
   16b1c: 13 0a 8a 00  	addi	s4, s4, 0x8
   16b20: e3 40 a9 f4  	blt	s2, a0, 0x16a60 <start_pass_huff_decoder+0x68>
   16b24: 23 bc 04 00  	sd	zero, 0x18(s1)
   16b28: 23 b8 04 00  	sd	zero, 0x10(s1)
   16b2c: 03 25 84 16  	lw	a0, 0x168(s0)
   16b30: 23 a8 a4 02  	sw	a0, 0x30(s1)
   16b34: 6f d0 e1 39  	jal	zero, 0x33ed2 <__riscv_restore_9>

0000000000016b38 <decode_mcu>:
   16b38: ef d2 61 34  	jal	t0, 0x33e7e <__riscv_save_12>
   16b3c: 13 01 01 fa  	addi	sp, sp, -0x60
   16b40: 13 04 05 00  	addi	s0, a0, 0x0
   16b44: 03 25 85 16  	lw	a0, 0x168(a0)
   16b48: 03 3a 04 24  	ld	s4, 0x240(s0)
   16b4c: 13 89 05 00  	addi	s2, a1, 0x0
   16b50: 63 0a 05 06  	beq	a0, zero, 0x16bc4 <decode_mcu+0x8c>
   16b54: 03 25 0a 03  	lw	a0, 0x30(s4)
   16b58: 63 16 05 06  	bne	a0, zero, 0x16bc4 <decode_mcu+0x8c>
   16b5c: 03 25 8a 01  	lw	a0, 0x18(s4)
   16b60: 83 35 84 23  	ld	a1, 0x238(s0)
   16b64: 13 16 15 00  	slli	a2, a0, 0x1
   16b68: 13 56 d6 03  	srli	a2, a2, 0x3d
   16b6c: 83 a6 c5 0a  	lw	a3, 0xac(a1)
   16b70: 33 05 c5 00  	add	a0, a0, a2
   16b74: 1b 55 35 40  	sraiw	a0, a0, 0x3
   16b78: 03 b6 05 01  	ld	a2, 0x10(a1)
   16b7c: 33 85 a6 00  	add	a0, a3, a0
   16b80: 23 a6 a5 0a  	sw	a0, 0xac(a1)
   16b84: 23 2c 0a 00  	sw	zero, 0x18(s4)
   16b88: 13 05 04 00  	addi	a0, s0, 0x0
   16b8c: e7 00 06 00  	jalr	ra, 0x0(a2)
   16b90: 63 00 05 44  	beq	a0, zero, 0x16fd0 <decode_mcu+0x498>
   16b94: 03 25 04 1a  	lw	a0, 0x1a0(s0)
   16b98: 63 50 a0 02  	bge	zero, a0, 0x16bb8 <decode_mcu+0x80>
   16b9c: 13 05 00 00  	addi	a0, zero, 0x0
   16ba0: 93 05 0a 02  	addi	a1, s4, 0x20
   16ba4: 23 a0 05 00  	sw	zero, 0x0(a1)
   16ba8: 03 26 04 1a  	lw	a2, 0x1a0(s0)
   16bac: 13 05 15 00  	addi	a0, a0, 0x1
   16bb0: 93 85 45 00  	addi	a1, a1, 0x4
   16bb4: e3 48 c5 fe  	blt	a0, a2, 0x16ba4 <decode_mcu+0x6c>
   16bb8: 03 25 84 16  	lw	a0, 0x168(s0)
   16bbc: 23 28 aa 02  	sw	a0, 0x30(s4)
   16bc0: 23 2e 0a 00  	sw	zero, 0x1c(s4)
   16bc4: 03 35 04 02  	ld	a0, 0x20(s0)
   16bc8: 83 36 05 00  	ld	a3, 0x0(a0)
   16bcc: 23 38 81 04  	sd	s0, 0x50(sp)
   16bd0: 23 34 d1 02  	sd	a3, 0x28(sp)
   16bd4: 83 37 85 00  	ld	a5, 0x8(a0)
   16bd8: 03 27 c4 20  	lw	a4, 0x20c(s0)
   16bdc: 83 65 4a 02  	lwu	a1, 0x24(s4)
   16be0: 03 66 0a 02  	lwu	a2, 0x20(s4)
   16be4: 13 08 ca 01  	addi	a6, s4, 0x1c
   16be8: 23 3c 01 05  	sd	a6, 0x58(sp)
   16bec: 93 95 05 02  	slli	a1, a1, 0x20
   16bf0: 33 e6 c5 00  	or	a2, a1, a2
   16bf4: 03 68 ca 02  	lwu	a6, 0x2c(s4)
   16bf8: 83 68 8a 02  	lwu	a7, 0x28(s4)
   16bfc: 83 35 0a 01  	ld	a1, 0x10(s4)
   16c00: 23 3c c1 00  	sd	a2, 0x18(sp)
   16c04: 13 18 08 02  	slli	a6, a6, 0x20
   16c08: 33 68 18 01  	or	a6, a6, a7
   16c0c: 83 28 04 1d  	lw	a7, 0x1d0(s0)
   16c10: 03 26 8a 01  	lw	a2, 0x18(s4)
   16c14: 23 38 f1 02  	sd	a5, 0x30(sp)
   16c18: 23 2c e1 02  	sw	a4, 0x38(sp)
   16c1c: 23 30 01 03  	sd	a6, 0x20(sp)
   16c20: 63 50 10 37  	bge	zero, a7, 0x16f80 <decode_mcu+0x448>
   16c24: 93 0a 00 00  	addi	s5, zero, 0x0
   16c28: 13 0b 70 00  	addi	s6, zero, 0x7
   16c2c: 93 0b 80 00  	addi	s7, zero, 0x8
   16c30: 93 0c 00 04  	addi	s9, zero, 0x40
   16c34: 37 65 03 00  	lui	a0, 0x36
   16c38: 93 04 45 ed  	addi	s1, a0, -0x12c
   16c3c: 37 65 03 00  	lui	a0, 0x36
   16c40: 13 05 45 f1  	addi	a0, a0, -0xec
   16c44: 23 34 a1 00  	sd	a0, 0x8(sp)
   16c48: 37 65 03 00  	lui	a0, 0x36
   16c4c: 13 05 c5 1b  	addi	a0, a0, 0x1bc
   16c50: 23 38 a1 00  	sd	a0, 0x10(sp)
   16c54: 23 30 21 01  	sd	s2, 0x0(sp)
   16c58: 13 95 2a 00  	slli	a0, s5, 0x2
   16c5c: 33 05 a4 00  	add	a0, s0, a0
   16c60: 83 2d 45 1d  	lw	s11, 0x1d4(a0)
   16c64: 13 95 3d 00  	slli	a0, s11, 0x3
   16c68: 33 05 a4 00  	add	a0, s0, a0
   16c6c: 03 3c 85 1a  	ld	s8, 0x1a8(a0)
   16c70: 13 95 3a 00  	slli	a0, s5, 0x3
   16c74: 83 26 4c 01  	lw	a3, 0x14(s8)
   16c78: 33 05 a9 00  	add	a0, s2, a0
   16c7c: 03 3d 05 00  	ld	s10, 0x0(a0)
   16c80: 03 25 8c 01  	lw	a0, 0x18(s8)
   16c84: 93 96 36 00  	slli	a3, a3, 0x3
   16c88: b3 06 da 00  	add	a3, s4, a3
   16c8c: 83 b9 86 03  	ld	s3, 0x38(a3)
   16c90: 13 15 35 00  	slli	a0, a0, 0x3
   16c94: 33 05 aa 00  	add	a0, s4, a0
   16c98: 03 39 85 05  	ld	s2, 0x58(a0)
   16c9c: 63 42 cb 02  	blt	s6, a2, 0x16cc0 <decode_mcu+0x188>
   16ca0: 13 05 81 02  	addi	a0, sp, 0x28
   16ca4: 93 06 00 00  	addi	a3, zero, 0x0
   16ca8: ef f0 5f aa  	jal	ra, 0x1674c <jpeg_fill_bit_buffer>
   16cac: 63 02 05 32  	beq	a0, zero, 0x16fd0 <decode_mcu+0x498>
   16cb0: 03 26 81 04  	lw	a2, 0x48(sp)
   16cb4: 83 35 01 04  	ld	a1, 0x40(sp)
   16cb8: 13 07 10 00  	addi	a4, zero, 0x1
   16cbc: 63 4e 76 03  	blt	a2, s7, 0x16cf8 <decode_mcu+0x1c0>
   16cc0: 13 05 86 ff  	addi	a0, a2, -0x8
   16cc4: 33 d5 a5 40  	sra	a0, a1, a0
   16cc8: 13 75 f5 0f  	andi	a0, a0, 0xff
   16ccc: 93 16 25 00  	slli	a3, a0, 0x2
   16cd0: b3 86 d9 00  	add	a3, s3, a3
   16cd4: 83 a6 86 16  	lw	a3, 0x168(a3)
   16cd8: 63 8e 06 00  	beq	a3, zero, 0x16cf4 <decode_mcu+0x1bc>
   16cdc: 33 85 a9 00  	add	a0, s3, a0
   16ce0: 83 49 85 56  	lbu	s3, 0x568(a0)
   16ce4: 3b 06 d6 40  	subw	a2, a2, a3
   16ce8: 63 98 09 02  	bne	s3, zero, 0x16d18 <decode_mcu+0x1e0>
   16cec: 13 05 00 00  	addi	a0, zero, 0x0
   16cf0: 6f 00 c0 07  	jal	zero, 0x16d6c <decode_mcu+0x234>
   16cf4: 13 07 90 00  	addi	a4, zero, 0x9
   16cf8: 13 05 81 02  	addi	a0, sp, 0x28
   16cfc: 93 86 09 00  	addi	a3, s3, 0x0
   16d00: ef f0 9f b7  	jal	ra, 0x16878 <jpeg_huff_decode>
   16d04: 63 44 05 2c  	blt	a0, zero, 0x16fcc <decode_mcu+0x494>
   16d08: 93 09 05 00  	addi	s3, a0, 0x0
   16d0c: 83 35 01 04  	ld	a1, 0x40(sp)
   16d10: 03 26 81 04  	lw	a2, 0x48(sp)
   16d14: e3 0c 05 fc  	beq	a0, zero, 0x16cec <decode_mcu+0x1b4>
   16d18: 63 5e 36 01  	bge	a2, s3, 0x16d34 <decode_mcu+0x1fc>
   16d1c: 13 05 81 02  	addi	a0, sp, 0x28
   16d20: 93 86 09 00  	addi	a3, s3, 0x0
   16d24: ef f0 9f a2  	jal	ra, 0x1674c <jpeg_fill_bit_buffer>
   16d28: 63 04 05 2a  	beq	a0, zero, 0x16fd0 <decode_mcu+0x498>
   16d2c: 83 35 01 04  	ld	a1, 0x40(sp)
   16d30: 03 26 81 04  	lw	a2, 0x48(sp)
   16d34: 3b 06 36 41  	subw	a2, a2, s3
   16d38: 33 d5 c5 40  	sra	a0, a1, a2
   16d3c: 93 96 29 00  	slli	a3, s3, 0x2
   16d40: 33 87 d4 00  	add	a4, s1, a3
   16d44: 03 27 07 00  	lw	a4, 0x0(a4)
   16d48: 93 07 f0 ff  	addi	a5, zero, -0x1
   16d4c: bb 97 37 01  	sllw	a5, a5, s3
   16d50: 93 c7 f7 ff  	xori	a5, a5, -0x1
   16d54: 33 75 f5 00  	and	a0, a0, a5
   16d58: 63 5a e5 00  	bge	a0, a4, 0x16d6c <decode_mcu+0x234>
   16d5c: 03 37 81 00  	ld	a4, 0x8(sp)
   16d60: b3 06 d7 00  	add	a3, a4, a3
   16d64: 83 a6 06 00  	lw	a3, 0x0(a3)
   16d68: 33 85 a6 00  	add	a0, a3, a0
   16d6c: 83 26 0c 03  	lw	a3, 0x30(s8)
   16d70: 63 8e 06 12  	beq	a3, zero, 0x16eac <decode_mcu+0x374>
   16d74: 93 9d 2d 00  	slli	s11, s11, 0x2
   16d78: 93 06 81 01  	addi	a3, sp, 0x18
   16d7c: b3 8d b6 01  	add	s11, a3, s11
   16d80: 83 a6 0d 00  	lw	a3, 0x0(s11)
   16d84: 03 27 4c 02  	lw	a4, 0x24(s8)
   16d88: 33 85 a6 00  	add	a0, a3, a0
   16d8c: 23 a0 ad 00  	sw	a0, 0x0(s11)
   16d90: 23 10 ad 00  	sh	a0, 0x0(s10)
   16d94: 13 05 20 00  	addi	a0, zero, 0x2
   16d98: 63 4a a7 10  	blt	a4, a0, 0x16eac <decode_mcu+0x374>
   16d9c: 13 0c 10 00  	addi	s8, zero, 0x1
   16da0: 63 42 cb 02  	blt	s6, a2, 0x16dc4 <decode_mcu+0x28c>
   16da4: 13 05 81 02  	addi	a0, sp, 0x28
   16da8: 93 06 00 00  	addi	a3, zero, 0x0
   16dac: ef f0 1f 9a  	jal	ra, 0x1674c <jpeg_fill_bit_buffer>
   16db0: 63 00 05 22  	beq	a0, zero, 0x16fd0 <decode_mcu+0x498>
   16db4: 03 26 81 04  	lw	a2, 0x48(sp)
   16db8: 83 35 01 04  	ld	a1, 0x40(sp)
   16dbc: 13 07 10 00  	addi	a4, zero, 0x1
   16dc0: 63 4a 76 03  	blt	a2, s7, 0x16df4 <decode_mcu+0x2bc>
   16dc4: 13 05 86 ff  	addi	a0, a2, -0x8
   16dc8: 33 d5 a5 40  	sra	a0, a1, a0
   16dcc: 13 75 f5 0f  	andi	a0, a0, 0xff
   16dd0: 93 16 25 00  	slli	a3, a0, 0x2
   16dd4: b3 06 d9 00  	add	a3, s2, a3
   16dd8: 83 a6 86 16  	lw	a3, 0x168(a3)
   16ddc: 63 8a 06 00  	beq	a3, zero, 0x16df0 <decode_mcu+0x2b8>
   16de0: 33 05 a9 00  	add	a0, s2, a0
   16de4: 03 45 85 56  	lbu	a0, 0x568(a0)
   16de8: 3b 06 d6 40  	subw	a2, a2, a3
   16dec: 6f 00 00 02  	jal	zero, 0x16e0c <decode_mcu+0x2d4>
   16df0: 13 07 90 00  	addi	a4, zero, 0x9
   16df4: 13 05 81 02  	addi	a0, sp, 0x28
   16df8: 93 06 09 00  	addi	a3, s2, 0x0
   16dfc: ef f0 df a7  	jal	ra, 0x16878 <jpeg_huff_decode>
   16e00: 63 46 05 1c  	blt	a0, zero, 0x16fcc <decode_mcu+0x494>
   16e04: 83 35 01 04  	ld	a1, 0x40(sp)
   16e08: 03 26 81 04  	lw	a2, 0x48(sp)
   16e0c: 93 79 f5 00  	andi	s3, a0, 0xf
   16e10: 9b 5d 45 00  	srliw	s11, a0, 0x4
   16e14: 63 8e 09 06  	beq	s3, zero, 0x16e90 <decode_mcu+0x358>
   16e18: 63 5e 36 01  	bge	a2, s3, 0x16e34 <decode_mcu+0x2fc>
   16e1c: 13 05 81 02  	addi	a0, sp, 0x28
   16e20: 93 86 09 00  	addi	a3, s3, 0x0
   16e24: ef f0 9f 92  	jal	ra, 0x1674c <jpeg_fill_bit_buffer>
   16e28: 63 04 05 1a  	beq	a0, zero, 0x16fd0 <decode_mcu+0x498>
   16e2c: 83 35 01 04  	ld	a1, 0x40(sp)
   16e30: 03 26 81 04  	lw	a2, 0x48(sp)
   16e34: 3b 06 36 41  	subw	a2, a2, s3
   16e38: b3 d6 c5 40  	sra	a3, a1, a2
   16e3c: 13 95 29 00  	slli	a0, s3, 0x2
   16e40: 33 87 a4 00  	add	a4, s1, a0
   16e44: 03 27 07 00  	lw	a4, 0x0(a4)
   16e48: 93 07 f0 ff  	addi	a5, zero, -0x1
   16e4c: bb 97 37 01  	sllw	a5, a5, s3
   16e50: 93 c7 f7 ff  	xori	a5, a5, -0x1
   16e54: b3 f6 f6 00  	and	a3, a3, a5
   16e58: 63 da e6 00  	bge	a3, a4, 0x16e6c <decode_mcu+0x334>
   16e5c: 03 37 81 00  	ld	a4, 0x8(sp)
   16e60: 33 05 a7 00  	add	a0, a4, a0
   16e64: 03 25 05 00  	lw	a0, 0x0(a0)
   16e68: b3 06 d5 00  	add	a3, a0, a3
   16e6c: 3b 85 8d 01  	addw	a0, s11, s8
   16e70: 13 17 25 00  	slli	a4, a0, 0x2
   16e74: 83 37 01 01  	ld	a5, 0x10(sp)
   16e78: 33 87 e7 00  	add	a4, a5, a4
   16e7c: 03 27 07 00  	lw	a4, 0x0(a4)
   16e80: 13 17 17 00  	slli	a4, a4, 0x1
   16e84: 33 07 ed 00  	add	a4, s10, a4
   16e88: 23 10 d7 00  	sh	a3, 0x0(a4)
   16e8c: 6f 00 00 01  	jal	zero, 0x16e9c <decode_mcu+0x364>
   16e90: 13 05 f0 00  	addi	a0, zero, 0xf
   16e94: 63 96 ad 0c  	bne	s11, a0, 0x16f60 <decode_mcu+0x428>
   16e98: 1b 05 fc 00  	addiw	a0, s8, 0xf
   16e9c: 13 0c 15 00  	addi	s8, a0, 0x1
   16ea0: 93 06 f0 03  	addi	a3, zero, 0x3f
   16ea4: e3 4e d5 ee  	blt	a0, a3, 0x16da0 <decode_mcu+0x268>
   16ea8: 6f 00 80 0b  	jal	zero, 0x16f60 <decode_mcu+0x428>
   16eac: 13 0c 10 00  	addi	s8, zero, 0x1
   16eb0: 63 42 cb 02  	blt	s6, a2, 0x16ed4 <decode_mcu+0x39c>
   16eb4: 13 05 81 02  	addi	a0, sp, 0x28
   16eb8: 93 06 00 00  	addi	a3, zero, 0x0
   16ebc: ef f0 1f 89  	jal	ra, 0x1674c <jpeg_fill_bit_buffer>
   16ec0: 63 08 05 10  	beq	a0, zero, 0x16fd0 <decode_mcu+0x498>
   16ec4: 03 26 81 04  	lw	a2, 0x48(sp)
   16ec8: 83 35 01 04  	ld	a1, 0x40(sp)
   16ecc: 13 07 10 00  	addi	a4, zero, 0x1
   16ed0: 63 4a 76 03  	blt	a2, s7, 0x16f04 <decode_mcu+0x3cc>
   16ed4: 13 05 86 ff  	addi	a0, a2, -0x8
   16ed8: 33 d5 a5 40  	sra	a0, a1, a0
   16edc: 13 75 f5 0f  	andi	a0, a0, 0xff
   16ee0: 93 16 25 00  	slli	a3, a0, 0x2
   16ee4: b3 06 d9 00  	add	a3, s2, a3
   16ee8: 83 a6 86 16  	lw	a3, 0x168(a3)
   16eec: 63 8a 06 00  	beq	a3, zero, 0x16f00 <decode_mcu+0x3c8>
   16ef0: 33 05 a9 00  	add	a0, s2, a0
   16ef4: 03 45 85 56  	lbu	a0, 0x568(a0)
   16ef8: 3b 06 d6 40  	subw	a2, a2, a3
   16efc: 6f 00 00 02  	jal	zero, 0x16f1c <decode_mcu+0x3e4>
   16f00: 13 07 90 00  	addi	a4, zero, 0x9
   16f04: 13 05 81 02  	addi	a0, sp, 0x28
   16f08: 93 06 09 00  	addi	a3, s2, 0x0
   16f0c: ef f0 df 96  	jal	ra, 0x16878 <jpeg_huff_decode>
   16f10: 63 4e 05 0a  	blt	a0, zero, 0x16fcc <decode_mcu+0x494>
   16f14: 83 35 01 04  	ld	a1, 0x40(sp)
   16f18: 03 26 81 04  	lw	a2, 0x48(sp)
   16f1c: 93 79 f5 00  	andi	s3, a0, 0xf
   16f20: 1b 5d 45 00  	srliw	s10, a0, 0x4
   16f24: 63 84 09 02  	beq	s3, zero, 0x16f4c <decode_mcu+0x414>
   16f28: 63 5e 36 01  	bge	a2, s3, 0x16f44 <decode_mcu+0x40c>
   16f2c: 13 05 81 02  	addi	a0, sp, 0x28
   16f30: 93 86 09 00  	addi	a3, s3, 0x0
   16f34: ef f0 9f 81  	jal	ra, 0x1674c <jpeg_fill_bit_buffer>
   16f38: 63 0c 05 08  	beq	a0, zero, 0x16fd0 <decode_mcu+0x498>
   16f3c: 83 35 01 04  	ld	a1, 0x40(sp)
   16f40: 03 26 81 04  	lw	a2, 0x48(sp)
   16f44: 3b 06 36 41  	subw	a2, a2, s3
   16f48: 6f 00 c0 00  	jal	zero, 0x16f54 <decode_mcu+0x41c>
   16f4c: 13 05 f0 00  	addi	a0, zero, 0xf
   16f50: 63 18 ad 00  	bne	s10, a0, 0x16f60 <decode_mcu+0x428>
   16f54: 33 0c ac 01  	add	s8, s8, s10
   16f58: 1b 0c 1c 00  	addiw	s8, s8, 0x1
   16f5c: e3 4a 9c f5  	blt	s8, s9, 0x16eb0 <decode_mcu+0x378>
   16f60: 03 25 04 1d  	lw	a0, 0x1d0(s0)
   16f64: 93 8a 1a 00  	addi	s5, s5, 0x1
   16f68: 03 39 01 00  	ld	s2, 0x0(sp)
   16f6c: e3 c6 aa ce  	blt	s5, a0, 0x16c58 <decode_mcu+0x120>
   16f70: 83 36 81 02  	ld	a3, 0x28(sp)
   16f74: 03 35 04 02  	ld	a0, 0x20(s0)
   16f78: 83 37 01 03  	ld	a5, 0x30(sp)
   16f7c: 03 27 81 03  	lw	a4, 0x38(sp)
   16f80: 13 08 0a 02  	addi	a6, s4, 0x20
   16f84: 23 30 d5 00  	sd	a3, 0x0(a0)
   16f88: 23 34 f5 00  	sd	a5, 0x8(a0)
   16f8c: 03 25 81 01  	lw	a0, 0x18(sp)
   16f90: 23 26 e4 20  	sw	a4, 0x20c(s0)
   16f94: 23 38 ba 00  	sd	a1, 0x10(s4)
   16f98: 23 2c ca 00  	sw	a2, 0x18(s4)
   16f9c: 23 20 a8 00  	sw	a0, 0x0(a6)
   16fa0: 03 25 c1 01  	lw	a0, 0x1c(sp)
   16fa4: 83 25 01 02  	lw	a1, 0x20(sp)
   16fa8: 03 26 41 02  	lw	a2, 0x24(sp)
   16fac: 83 26 0a 03  	lw	a3, 0x30(s4)
   16fb0: 23 22 a8 00  	sw	a0, 0x4(a6)
   16fb4: 23 24 b8 00  	sw	a1, 0x8(a6)
   16fb8: 23 26 c8 00  	sw	a2, 0xc(a6)
   16fbc: 93 86 f6 ff  	addi	a3, a3, -0x1
   16fc0: 23 28 da 02  	sw	a3, 0x30(s4)
   16fc4: 13 05 10 00  	addi	a0, zero, 0x1
   16fc8: 6f 00 80 00  	jal	zero, 0x16fd0 <decode_mcu+0x498>
   16fcc: 13 05 00 00  	addi	a0, zero, 0x0
   16fd0: 13 01 01 06  	addi	sp, sp, 0x60
   16fd4: 6f c0 51 6f  	jal	zero, 0x33ec8 <__riscv_restore_12>

0000000000016fd8 <jinit_phuff_decoder>:
   16fd8: ef c2 71 6d  	jal	t0, 0x33eae <__riscv_save_3>
   16fdc: 13 04 05 00  	addi	s0, a0, 0x0
   16fe0: 03 35 85 00  	ld	a0, 0x8(a0)
   16fe4: 83 36 05 00  	ld	a3, 0x0(a0)
   16fe8: 93 05 10 00  	addi	a1, zero, 0x1
   16fec: 13 06 00 06  	addi	a2, zero, 0x60
   16ff0: 13 05 04 00  	addi	a0, s0, 0x0
   16ff4: e7 80 06 00  	jalr	ra, 0x0(a3)
   16ff8: 23 30 a4 24  	sd	a0, 0x240(s0)
   16ffc: 23 38 05 04  	sd	zero, 0x50(a0)
   17000: 23 34 05 04  	sd	zero, 0x48(a0)
   17004: 23 30 05 04  	sd	zero, 0x40(a0)
   17008: 23 3c 05 02  	sd	zero, 0x38(a0)
   1700c: 83 35 84 00  	ld	a1, 0x8(s0)
   17010: 37 76 01 00  	lui	a2, 0x17
   17014: 83 26 04 03  	lw	a3, 0x30(s0)
   17018: 13 06 06 07  	addi	a2, a2, 0x70
   1701c: 03 b7 05 00  	ld	a4, 0x0(a1)
   17020: 23 30 c5 00  	sd	a2, 0x0(a0)
   17024: 1b 96 66 00  	slliw	a2, a3, 0x6
   17028: 13 16 26 00  	slli	a2, a2, 0x2
   1702c: 93 05 10 00  	addi	a1, zero, 0x1
   17030: 13 05 04 00  	addi	a0, s0, 0x0
   17034: e7 00 07 00  	jalr	ra, 0x0(a4)
   17038: 83 25 04 03  	lw	a1, 0x30(s0)
   1703c: 23 3c a4 0a  	sd	a0, 0xb8(s0)
   17040: 63 56 b0 02  	bge	zero, a1, 0x1706c <jinit_phuff_decoder+0x94>
   17044: 93 04 05 00  	addi	s1, a0, 0x0
   17048: 13 09 00 00  	addi	s2, zero, 0x0
   1704c: 93 05 f0 0f  	addi	a1, zero, 0xff
   17050: 13 06 00 10  	addi	a2, zero, 0x100
   17054: 13 85 04 00  	addi	a0, s1, 0x0
   17058: ef a0 90 4a  	jal	ra, 0x21d00 <memset>
   1705c: 03 25 04 03  	lw	a0, 0x30(s0)
   17060: 1b 09 19 00  	addiw	s2, s2, 0x1
   17064: 93 84 04 10  	addi	s1, s1, 0x100
   17068: e3 42 a9 fe  	blt	s2, a0, 0x1704c <jinit_phuff_decoder+0x74>
   1706c: 6f c0 91 67  	jal	zero, 0x33ee4 <__riscv_restore_3>

0000000000017070 <start_pass_phuff_decoder>:
   17070: ef c2 71 61  	jal	t0, 0x33e86 <__riscv_save_11>
   17074: 13 04 05 00  	addi	s0, a0, 0x0
   17078: 03 29 c5 1f  	lw	s2, 0x1fc(a0)
   1707c: 03 25 05 20  	lw	a0, 0x200(a0)
   17080: 63 04 09 02  	beq	s2, zero, 0x170a8 <start_pass_phuff_decoder+0x38>
   17084: b3 25 25 01  	slt	a1, a0, s2
   17088: 03 26 04 1a  	lw	a2, 0x1a0(s0)
   1708c: 13 25 05 04  	slti	a0, a0, 0x40
   17090: 13 45 15 00  	xori	a0, a0, 0x1
   17094: 33 e5 a5 00  	or	a0, a1, a0
   17098: 13 06 f6 ff  	addi	a2, a2, -0x1
   1709c: b3 35 c0 00  	sltu	a1, zero, a2
   170a0: 33 e5 a5 00  	or	a0, a1, a0
   170a4: 6f 00 80 00  	jal	zero, 0x170ac <start_pass_phuff_decoder+0x3c>
   170a8: 33 35 a0 00  	sltu	a0, zero, a0
   170ac: 83 25 84 20  	lw	a1, 0x208(s0)
   170b0: 83 34 04 24  	ld	s1, 0x240(s0)
   170b4: 13 06 d0 00  	addi	a2, zero, 0xd
   170b8: 63 42 b6 02  	blt	a2, a1, 0x170dc <start_pass_phuff_decoder+0x6c>
   170bc: 03 26 44 20  	lw	a2, 0x204(s0)
   170c0: b3 36 c0 00  	sltu	a3, zero, a2
   170c4: 1b 06 f6 ff  	addiw	a2, a2, -0x1
   170c8: b3 c5 c5 00  	xor	a1, a1, a2
   170cc: b3 35 b0 00  	sltu	a1, zero, a1
   170d0: b3 f5 b6 00  	and	a1, a3, a1
   170d4: 63 94 05 00  	bne	a1, zero, 0x170dc <start_pass_phuff_decoder+0x6c>
   170d8: 63 04 05 04  	beq	a0, zero, 0x17120 <start_pass_phuff_decoder+0xb0>
   170dc: 03 35 04 00  	ld	a0, 0x0(s0)
   170e0: 23 26 25 03  	sw	s2, 0x2c(a0)
   170e4: 83 25 04 20  	lw	a1, 0x200(s0)
   170e8: 03 36 04 00  	ld	a2, 0x0(s0)
   170ec: 93 06 e0 00  	addi	a3, zero, 0xe
   170f0: 23 24 d5 02  	sw	a3, 0x28(a0)
   170f4: 23 28 b6 02  	sw	a1, 0x30(a2)
   170f8: 03 25 44 20  	lw	a0, 0x204(s0)
   170fc: 83 35 04 00  	ld	a1, 0x0(s0)
   17100: 23 aa a5 02  	sw	a0, 0x34(a1)
   17104: 03 25 84 20  	lw	a0, 0x208(s0)
   17108: 83 35 04 00  	ld	a1, 0x0(s0)
   1710c: 23 ac a5 02  	sw	a0, 0x38(a1)
   17110: 03 35 04 00  	ld	a0, 0x0(s0)
   17114: 83 35 05 00  	ld	a1, 0x0(a0)
   17118: 13 05 04 00  	addi	a0, s0, 0x0
   1711c: e7 80 05 00  	jalr	ra, 0x0(a1)
   17120: 03 25 04 1a  	lw	a0, 0x1a0(s0)
   17124: 63 50 a0 10  	bge	zero, a0, 0x17224 <start_pass_phuff_decoder+0x1b4>
   17128: 93 09 00 00  	addi	s3, zero, 0x0
   1712c: 13 0a f0 06  	addi	s4, zero, 0x6f
   17130: 13 95 39 00  	slli	a0, s3, 0x3
   17134: 33 05 a4 00  	add	a0, s0, a0
   17138: 03 35 85 1a  	ld	a0, 0x1a8(a0)
   1713c: 83 2a 45 00  	lw	s5, 0x4(a0)
   17140: 03 3c 84 0b  	ld	s8, 0xb8(s0)
   17144: 93 9c 8a 00  	slli	s9, s5, 0x8
   17148: 63 0c 09 02  	beq	s2, zero, 0x17180 <start_pass_phuff_decoder+0x110>
   1714c: 33 05 9c 01  	add	a0, s8, s9
   17150: 03 25 05 00  	lw	a0, 0x0(a0)
   17154: 63 56 05 02  	bge	a0, zero, 0x17180 <start_pass_phuff_decoder+0x110>
   17158: 03 35 04 00  	ld	a0, 0x0(s0)
   1715c: 23 26 55 03  	sw	s5, 0x2c(a0)
   17160: 83 35 04 00  	ld	a1, 0x0(s0)
   17164: 23 24 45 03  	sw	s4, 0x28(a0)
   17168: 23 a8 05 02  	sw	zero, 0x30(a1)
   1716c: 03 35 04 00  	ld	a0, 0x0(s0)
   17170: 03 36 85 00  	ld	a2, 0x8(a0)
   17174: 93 05 f0 ff  	addi	a1, zero, -0x1
   17178: 13 05 04 00  	addi	a0, s0, 0x0
   1717c: e7 00 06 00  	jalr	ra, 0x0(a2)
   17180: 03 2b c4 1f  	lw	s6, 0x1fc(s0)
   17184: 03 25 04 20  	lw	a0, 0x200(s0)
   17188: 63 48 65 07  	blt	a0, s6, 0x171f8 <start_pass_phuff_decoder+0x188>
   1718c: 93 0b fb ff  	addi	s7, s6, -0x1
   17190: 13 15 2b 00  	slli	a0, s6, 0x2
   17194: 33 05 ac 00  	add	a0, s8, a0
   17198: 33 0c 95 01  	add	s8, a0, s9
   1719c: 03 25 0c 00  	lw	a0, 0x0(s8)
   171a0: 83 25 44 20  	lw	a1, 0x204(s0)
   171a4: 33 26 a0 00  	slt	a2, zero, a0
   171a8: 33 06 c0 40  	sub	a2, zero, a2
   171ac: 33 75 a6 00  	and	a0, a2, a0
   171b0: 63 86 a5 02  	beq	a1, a0, 0x171dc <start_pass_phuff_decoder+0x16c>
   171b4: 03 35 04 00  	ld	a0, 0x0(s0)
   171b8: 23 26 55 03  	sw	s5, 0x2c(a0)
   171bc: 83 35 04 00  	ld	a1, 0x0(s0)
   171c0: 23 24 45 03  	sw	s4, 0x28(a0)
   171c4: 23 a8 65 03  	sw	s6, 0x30(a1)
   171c8: 03 35 04 00  	ld	a0, 0x0(s0)
   171cc: 03 36 85 00  	ld	a2, 0x8(a0)
   171d0: 93 05 f0 ff  	addi	a1, zero, -0x1
   171d4: 13 05 04 00  	addi	a0, s0, 0x0
   171d8: e7 00 06 00  	jalr	ra, 0x0(a2)
   171dc: 03 25 84 20  	lw	a0, 0x208(s0)
   171e0: 23 20 ac 00  	sw	a0, 0x0(s8)
   171e4: 03 25 04 20  	lw	a0, 0x200(s0)
   171e8: 93 8b 1b 00  	addi	s7, s7, 0x1
   171ec: 13 0b 1b 00  	addi	s6, s6, 0x1
   171f0: 13 0c 4c 00  	addi	s8, s8, 0x4
   171f4: e3 c4 ab fa  	blt	s7, a0, 0x1719c <start_pass_phuff_decoder+0x12c>
   171f8: 03 25 04 1a  	lw	a0, 0x1a0(s0)
   171fc: 93 89 19 00  	addi	s3, s3, 0x1
   17200: e3 c8 a9 f2  	blt	s3, a0, 0x17130 <start_pass_phuff_decoder+0xc0>
   17204: 83 25 44 20  	lw	a1, 0x204(s0)
   17208: 63 0e 09 02  	beq	s2, zero, 0x17244 <start_pass_phuff_decoder+0x1d4>
   1720c: 37 76 01 00  	lui	a2, 0x17
   17210: 13 06 06 5c  	addi	a2, a2, 0x5c0
   17214: b7 86 01 00  	lui	a3, 0x18
   17218: 93 86 46 90  	addi	a3, a3, -0x6fc
   1721c: 63 9e 05 02  	bne	a1, zero, 0x17258 <start_pass_phuff_decoder+0x1e8>
   17220: 6f 00 c0 03  	jal	zero, 0x1725c <start_pass_phuff_decoder+0x1ec>
   17224: 03 25 44 20  	lw	a0, 0x204(s0)
   17228: 63 04 09 12  	beq	s2, zero, 0x17350 <start_pass_phuff_decoder+0x2e0>
   1722c: b7 75 01 00  	lui	a1, 0x17
   17230: 93 85 05 5c  	addi	a1, a1, 0x5c0
   17234: 37 86 01 00  	lui	a2, 0x18
   17238: 13 06 46 90  	addi	a2, a2, -0x6fc
   1723c: 63 14 05 12  	bne	a0, zero, 0x17364 <start_pass_phuff_decoder+0x2f4>
   17240: 6f 00 80 12  	jal	zero, 0x17368 <start_pass_phuff_decoder+0x2f8>
   17244: 37 76 01 00  	lui	a2, 0x17
   17248: 13 06 46 38  	addi	a2, a2, 0x384
   1724c: b7 86 01 00  	lui	a3, 0x18
   17250: 93 86 46 80  	addi	a3, a3, -0x7fc
   17254: 63 84 05 00  	beq	a1, zero, 0x1725c <start_pass_phuff_decoder+0x1ec>
   17258: 13 86 06 00  	addi	a2, a3, 0x0
   1725c: 23 b4 c4 00  	sd	a2, 0x8(s1)
   17260: 63 56 a0 10  	bge	zero, a0, 0x1736c <start_pass_phuff_decoder+0x2fc>
   17264: 93 09 00 00  	addi	s3, zero, 0x0
   17268: 13 0a 84 1a  	addi	s4, s0, 0x1a8
   1726c: 93 8a 44 02  	addi	s5, s1, 0x24
   17270: 13 0b 30 00  	addi	s6, zero, 0x3
   17274: 93 0b 10 03  	addi	s7, zero, 0x31
   17278: 03 35 0a 00  	ld	a0, 0x0(s4)
   1727c: 63 00 09 06  	beq	s2, zero, 0x172dc <start_pass_phuff_decoder+0x26c>
   17280: 03 2c 85 01  	lw	s8, 0x18(a0)
   17284: 63 6a 8b 01  	bltu	s6, s8, 0x17298 <start_pass_phuff_decoder+0x228>
   17288: 13 15 3c 00  	slli	a0, s8, 0x3
   1728c: 33 05 a4 00  	add	a0, s0, a0
   17290: 03 35 05 10  	ld	a0, 0x100(a0)
   17294: 63 10 05 02  	bne	a0, zero, 0x172b4 <start_pass_phuff_decoder+0x244>
   17298: 03 35 04 00  	ld	a0, 0x0(s0)
   1729c: 23 26 85 03  	sw	s8, 0x2c(a0)
   172a0: 83 35 04 00  	ld	a1, 0x0(s0)
   172a4: 83 b5 05 00  	ld	a1, 0x0(a1)
   172a8: 23 24 75 03  	sw	s7, 0x28(a0)
   172ac: 13 05 04 00  	addi	a0, s0, 0x0
   172b0: e7 80 05 00  	jalr	ra, 0x0(a1)
   172b4: 13 1c 3c 00  	slli	s8, s8, 0x3
   172b8: 33 05 84 01  	add	a0, s0, s8
   172bc: 83 35 05 10  	ld	a1, 0x100(a0)
   172c0: 33 8c 84 01  	add	s8, s1, s8
   172c4: 13 06 8c 03  	addi	a2, s8, 0x38
   172c8: 13 05 04 00  	addi	a0, s0, 0x0
   172cc: ef f0 0f a5  	jal	ra, 0x1651c <jpeg_make_d_derived_tbl>
   172d0: 03 35 8c 03  	ld	a0, 0x38(s8)
   172d4: 23 bc a4 04  	sd	a0, 0x58(s1)
   172d8: 6f 00 c0 05  	jal	zero, 0x17334 <start_pass_phuff_decoder+0x2c4>
   172dc: 83 25 44 20  	lw	a1, 0x204(s0)
   172e0: 63 9a 05 04  	bne	a1, zero, 0x17334 <start_pass_phuff_decoder+0x2c4>
   172e4: 03 2c 45 01  	lw	s8, 0x14(a0)
   172e8: 63 6a 8b 01  	bltu	s6, s8, 0x172fc <start_pass_phuff_decoder+0x28c>
   172ec: 13 15 3c 00  	slli	a0, s8, 0x3
   172f0: 33 05 a4 00  	add	a0, s0, a0
   172f4: 03 35 05 0e  	ld	a0, 0xe0(a0)
   172f8: 63 10 05 02  	bne	a0, zero, 0x17318 <start_pass_phuff_decoder+0x2a8>
   172fc: 03 35 04 00  	ld	a0, 0x0(s0)
   17300: 23 26 85 03  	sw	s8, 0x2c(a0)
   17304: 83 35 04 00  	ld	a1, 0x0(s0)
   17308: 83 b5 05 00  	ld	a1, 0x0(a1)
   1730c: 23 24 75 03  	sw	s7, 0x28(a0)
   17310: 13 05 04 00  	addi	a0, s0, 0x0
   17314: e7 80 05 00  	jalr	ra, 0x0(a1)
   17318: 13 1c 3c 00  	slli	s8, s8, 0x3
   1731c: 33 05 84 01  	add	a0, s0, s8
   17320: 83 35 05 0e  	ld	a1, 0xe0(a0)
   17324: 33 8c 84 01  	add	s8, s1, s8
   17328: 13 06 8c 03  	addi	a2, s8, 0x38
   1732c: 13 05 04 00  	addi	a0, s0, 0x0
   17330: ef f0 cf 9e  	jal	ra, 0x1651c <jpeg_make_d_derived_tbl>
   17334: 23 a0 0a 00  	sw	zero, 0x0(s5)
   17338: 03 25 04 1a  	lw	a0, 0x1a0(s0)
   1733c: 93 89 19 00  	addi	s3, s3, 0x1
   17340: 13 0a 8a 00  	addi	s4, s4, 0x8
   17344: 93 8a 4a 00  	addi	s5, s5, 0x4
   17348: e3 c8 a9 f2  	blt	s3, a0, 0x17278 <start_pass_phuff_decoder+0x208>
   1734c: 6f 00 00 02  	jal	zero, 0x1736c <start_pass_phuff_decoder+0x2fc>
   17350: b7 75 01 00  	lui	a1, 0x17
   17354: 93 85 45 38  	addi	a1, a1, 0x384
   17358: 37 86 01 00  	lui	a2, 0x18
   1735c: 13 06 46 80  	addi	a2, a2, -0x7fc
   17360: 63 04 05 00  	beq	a0, zero, 0x17368 <start_pass_phuff_decoder+0x2f8>
   17364: 93 05 06 00  	addi	a1, a2, 0x0
   17368: 23 b4 b4 00  	sd	a1, 0x8(s1)
   1736c: 23 a0 04 02  	sw	zero, 0x20(s1)
   17370: 23 bc 04 00  	sd	zero, 0x18(s1)
   17374: 23 b8 04 00  	sd	zero, 0x10(s1)
   17378: 03 25 84 16  	lw	a0, 0x168(s0)
   1737c: 23 aa a4 02  	sw	a0, 0x34(s1)
   17380: 6f c0 d1 34  	jal	zero, 0x33ecc <__riscv_restore_11>

0000000000017384 <decode_mcu_DC_first>:
   17384: ef c2 b1 2f  	jal	t0, 0x33e7e <__riscv_save_12>
   17388: 13 01 01 fa  	addi	sp, sp, -0x60
   1738c: 13 04 05 00  	addi	s0, a0, 0x0
   17390: 83 39 05 24  	ld	s3, 0x240(a0)
   17394: 03 25 85 16  	lw	a0, 0x168(a0)
   17398: 03 2a 84 20  	lw	s4, 0x208(s0)
   1739c: 93 84 05 00  	addi	s1, a1, 0x0
   173a0: 63 0c 05 00  	beq	a0, zero, 0x173b8 <decode_mcu_DC_first+0x34>
   173a4: 03 a5 49 03  	lw	a0, 0x34(s3)
   173a8: 63 18 05 00  	bne	a0, zero, 0x173b8 <decode_mcu_DC_first+0x34>
   173ac: 13 05 04 00  	addi	a0, s0, 0x0
   173b0: ef 00 50 17  	jal	ra, 0x17d24 <process_restart>
   173b4: 63 0e 05 1e  	beq	a0, zero, 0x175b0 <decode_mcu_DC_first+0x22c>
   173b8: 83 36 04 02  	ld	a3, 0x20(s0)
   173bc: 03 b7 06 00  	ld	a4, 0x0(a3)
   173c0: 23 38 81 04  	sd	s0, 0x50(sp)
   173c4: 23 34 e1 02  	sd	a4, 0x28(sp)
   173c8: 83 b7 86 00  	ld	a5, 0x8(a3)
   173cc: 13 85 c9 01  	addi	a0, s3, 0x1c
   173d0: 23 3c a1 04  	sd	a0, 0x58(sp)
   173d4: 03 a5 09 03  	lw	a0, 0x30(s3)
   173d8: 83 e5 49 02  	lwu	a1, 0x24(s3)
   173dc: 03 e6 09 02  	lwu	a2, 0x20(s3)
   173e0: 03 28 c4 20  	lw	a6, 0x20c(s0)
   173e4: 23 20 a1 02  	sw	a0, 0x20(sp)
   173e8: 93 95 05 02  	slli	a1, a1, 0x20
   173ec: 33 e6 c5 00  	or	a2, a1, a2
   173f0: 03 e5 c9 02  	lwu	a0, 0x2c(s3)
   173f4: 83 e8 89 02  	lwu	a7, 0x28(s3)
   173f8: 83 b5 09 01  	ld	a1, 0x10(s3)
   173fc: 23 38 c1 00  	sd	a2, 0x10(sp)
   17400: 13 15 05 02  	slli	a0, a0, 0x20
   17404: 33 65 15 01  	or	a0, a0, a7
   17408: 83 28 04 1d  	lw	a7, 0x1d0(s0)
   1740c: 03 a6 89 01  	lw	a2, 0x18(s3)
   17410: 23 38 f1 02  	sd	a5, 0x30(sp)
   17414: 23 2c 01 03  	sw	a6, 0x38(sp)
   17418: 23 3c a1 00  	sd	a0, 0x18(sp)
   1741c: 63 50 10 17  	bge	zero, a7, 0x1757c <decode_mcu_DC_first+0x1f8>
   17420: 93 0a 00 00  	addi	s5, zero, 0x0
   17424: 13 0b 44 1d  	addi	s6, s0, 0x1d4
   17428: 93 0b 70 00  	addi	s7, zero, 0x7
   1742c: 93 0c 01 01  	addi	s9, sp, 0x10
   17430: 37 65 03 00  	lui	a0, 0x36
   17434: 93 0d 45 f5  	addi	s11, a0, -0xac
   17438: 37 65 03 00  	lui	a0, 0x36
   1743c: 13 05 45 f9  	addi	a0, a0, -0x6c
   17440: 23 34 a1 00  	sd	a0, 0x8(sp)
   17444: 03 2c 0b 00  	lw	s8, 0x0(s6)
   17448: 13 15 3c 00  	slli	a0, s8, 0x3
   1744c: 33 05 a4 00  	add	a0, s0, a0
   17450: 03 35 85 1a  	ld	a0, 0x1a8(a0)
   17454: 03 25 45 01  	lw	a0, 0x14(a0)
   17458: 03 bd 04 00  	ld	s10, 0x0(s1)
   1745c: 13 15 35 00  	slli	a0, a0, 0x3
   17460: 33 85 a9 00  	add	a0, s3, a0
   17464: 03 39 85 03  	ld	s2, 0x38(a0)
   17468: 63 c4 cb 02  	blt	s7, a2, 0x17490 <decode_mcu_DC_first+0x10c>
   1746c: 13 05 81 02  	addi	a0, sp, 0x28
   17470: 93 06 00 00  	addi	a3, zero, 0x0
   17474: ef f0 8f ad  	jal	ra, 0x1674c <jpeg_fill_bit_buffer>
   17478: 63 0c 05 12  	beq	a0, zero, 0x175b0 <decode_mcu_DC_first+0x22c>
   1747c: 03 26 81 04  	lw	a2, 0x48(sp)
   17480: 83 35 01 04  	ld	a1, 0x40(sp)
   17484: 13 07 10 00  	addi	a4, zero, 0x1
   17488: 13 05 80 00  	addi	a0, zero, 0x8
   1748c: 63 4e a6 02  	blt	a2, a0, 0x174c8 <decode_mcu_DC_first+0x144>
   17490: 13 05 86 ff  	addi	a0, a2, -0x8
   17494: 33 d5 a5 40  	sra	a0, a1, a0
   17498: 13 75 f5 0f  	andi	a0, a0, 0xff
   1749c: 93 16 25 00  	slli	a3, a0, 0x2
   174a0: b3 06 d9 00  	add	a3, s2, a3
   174a4: 83 a6 86 16  	lw	a3, 0x168(a3)
   174a8: 63 8e 06 00  	beq	a3, zero, 0x174c4 <decode_mcu_DC_first+0x140>
   174ac: 33 05 a9 00  	add	a0, s2, a0
   174b0: 03 49 85 56  	lbu	s2, 0x568(a0)
   174b4: 3b 06 d6 40  	subw	a2, a2, a3
   174b8: 63 18 09 02  	bne	s2, zero, 0x174e8 <decode_mcu_DC_first+0x164>
   174bc: 13 05 00 00  	addi	a0, zero, 0x0
   174c0: 6f 00 c0 07  	jal	zero, 0x1753c <decode_mcu_DC_first+0x1b8>
   174c4: 13 07 90 00  	addi	a4, zero, 0x9
   174c8: 13 05 81 02  	addi	a0, sp, 0x28
   174cc: 93 06 09 00  	addi	a3, s2, 0x0
   174d0: ef f0 8f ba  	jal	ra, 0x16878 <jpeg_huff_decode>
   174d4: 63 42 05 0e  	blt	a0, zero, 0x175b8 <decode_mcu_DC_first+0x234>
   174d8: 13 09 05 00  	addi	s2, a0, 0x0
   174dc: 83 35 01 04  	ld	a1, 0x40(sp)
   174e0: 03 26 81 04  	lw	a2, 0x48(sp)
   174e4: e3 0c 05 fc  	beq	a0, zero, 0x174bc <decode_mcu_DC_first+0x138>
   174e8: 63 5e 26 01  	bge	a2, s2, 0x17504 <decode_mcu_DC_first+0x180>
   174ec: 13 05 81 02  	addi	a0, sp, 0x28
   174f0: 93 06 09 00  	addi	a3, s2, 0x0
   174f4: ef f0 8f a5  	jal	ra, 0x1674c <jpeg_fill_bit_buffer>
   174f8: 63 0c 05 0a  	beq	a0, zero, 0x175b0 <decode_mcu_DC_first+0x22c>
   174fc: 83 35 01 04  	ld	a1, 0x40(sp)
   17500: 03 26 81 04  	lw	a2, 0x48(sp)
   17504: 3b 06 26 41  	subw	a2, a2, s2
   17508: 33 d5 c5 40  	sra	a0, a1, a2
   1750c: 93 16 29 00  	slli	a3, s2, 0x2
   17510: 33 87 dd 00  	add	a4, s11, a3
   17514: 03 27 07 00  	lw	a4, 0x0(a4)
   17518: 93 07 f0 ff  	addi	a5, zero, -0x1
   1751c: bb 97 27 01  	sllw	a5, a5, s2
   17520: 93 c7 f7 ff  	xori	a5, a5, -0x1
   17524: 33 75 f5 00  	and	a0, a0, a5
   17528: 63 5a e5 00  	bge	a0, a4, 0x1753c <decode_mcu_DC_first+0x1b8>
   1752c: 03 37 81 00  	ld	a4, 0x8(sp)
   17530: b3 06 d7 00  	add	a3, a4, a3
   17534: 83 a6 06 00  	lw	a3, 0x0(a3)
   17538: 33 85 a6 00  	add	a0, a3, a0
   1753c: 13 1c 2c 00  	slli	s8, s8, 0x2
   17540: 33 8c 8c 01  	add	s8, s9, s8
   17544: 83 26 4c 00  	lw	a3, 0x4(s8)
   17548: 33 85 a6 00  	add	a0, a3, a0
   1754c: 23 22 ac 00  	sw	a0, 0x4(s8)
   17550: 3b 15 45 01  	sllw	a0, a0, s4
   17554: 83 26 04 1d  	lw	a3, 0x1d0(s0)
   17558: 23 10 ad 00  	sh	a0, 0x0(s10)
   1755c: 93 8a 1a 00  	addi	s5, s5, 0x1
   17560: 93 84 84 00  	addi	s1, s1, 0x8
   17564: 13 0b 4b 00  	addi	s6, s6, 0x4
   17568: e3 ce da ec  	blt	s5, a3, 0x17444 <decode_mcu_DC_first+0xc0>
   1756c: 03 37 81 02  	ld	a4, 0x28(sp)
   17570: 83 36 04 02  	ld	a3, 0x20(s0)
   17574: 83 37 01 03  	ld	a5, 0x30(sp)
   17578: 03 28 81 03  	lw	a6, 0x38(sp)
   1757c: 13 85 09 02  	addi	a0, s3, 0x20
   17580: 23 b0 e6 00  	sd	a4, 0x0(a3)
   17584: 23 b4 f6 00  	sd	a5, 0x8(a3)
   17588: 23 26 04 21  	sw	a6, 0x20c(s0)
   1758c: 23 b8 b9 00  	sd	a1, 0x10(s3)
   17590: 23 ac c9 00  	sw	a2, 0x18(s3)
   17594: 93 05 01 01  	addi	a1, sp, 0x10
   17598: 13 06 40 01  	addi	a2, zero, 0x14
   1759c: ef a0 f0 00  	jal	ra, 0x21daa <memcpy>
   175a0: 03 a5 49 03  	lw	a0, 0x34(s3)
   175a4: 13 05 f5 ff  	addi	a0, a0, -0x1
   175a8: 23 aa a9 02  	sw	a0, 0x34(s3)
   175ac: 13 05 10 00  	addi	a0, zero, 0x1
   175b0: 13 01 01 06  	addi	sp, sp, 0x60
   175b4: 6f c0 51 11  	jal	zero, 0x33ec8 <__riscv_restore_12>
   175b8: 13 05 00 00  	addi	a0, zero, 0x0
   175bc: 6f f0 5f ff  	jal	zero, 0x175b0 <decode_mcu_DC_first+0x22c>

00000000000175c0 <decode_mcu_AC_first>:
   175c0: ef c2 f1 0b  	jal	t0, 0x33e7e <__riscv_save_12>
   175c4: 13 01 01 fc  	addi	sp, sp, -0x40
   175c8: 13 04 05 00  	addi	s0, a0, 0x0
   175cc: 03 3a 05 24  	ld	s4, 0x240(a0)
   175d0: 83 2a 05 20  	lw	s5, 0x200(a0)
   175d4: 03 25 85 16  	lw	a0, 0x168(a0)
   175d8: 03 2b 84 20  	lw	s6, 0x208(s0)
   175dc: 93 84 05 00  	addi	s1, a1, 0x0
   175e0: 63 0c 05 00  	beq	a0, zero, 0x175f8 <decode_mcu_AC_first+0x38>
   175e4: 03 25 4a 03  	lw	a0, 0x34(s4)
   175e8: 63 18 05 00  	bne	a0, zero, 0x175f8 <decode_mcu_AC_first+0x38>
   175ec: 13 05 04 00  	addi	a0, s0, 0x0
   175f0: ef 00 40 73  	jal	ra, 0x17d24 <process_restart>
   175f4: 63 0c 05 1a  	beq	a0, zero, 0x177ac <decode_mcu_AC_first+0x1ec>
   175f8: 03 25 0a 02  	lw	a0, 0x20(s4)
   175fc: 63 06 05 00  	beq	a0, zero, 0x17608 <decode_mcu_AC_first+0x48>
   17600: 93 04 f5 ff  	addi	s1, a0, -0x1
   17604: 6f 00 40 19  	jal	zero, 0x17798 <decode_mcu_AC_first+0x1d8>
   17608: 03 35 04 02  	ld	a0, 0x20(s0)
   1760c: 83 35 05 00  	ld	a1, 0x0(a0)
   17610: 03 35 85 00  	ld	a0, 0x8(a0)
   17614: 03 26 c4 20  	lw	a2, 0x20c(s0)
   17618: 23 34 b1 00  	sd	a1, 0x8(sp)
   1761c: 23 38 a1 00  	sd	a0, 0x10(sp)
   17620: 23 2c c1 00  	sw	a2, 0x18(sp)
   17624: 83 35 0a 01  	ld	a1, 0x10(s4)
   17628: 83 2c c4 1f  	lw	s9, 0x1fc(s0)
   1762c: 03 26 8a 01  	lw	a2, 0x18(s4)
   17630: 13 05 ca 01  	addi	a0, s4, 0x1c
   17634: 23 3c a1 02  	sd	a0, 0x38(sp)
   17638: 23 38 81 02  	sd	s0, 0x30(sp)
   1763c: 63 ca 9a 13  	blt	s5, s9, 0x17770 <decode_mcu_AC_first+0x1b0>
   17640: 83 bb 04 00  	ld	s7, 0x0(s1)
   17644: 83 34 8a 05  	ld	s1, 0x58(s4)
   17648: 13 0c 70 00  	addi	s8, zero, 0x7
   1764c: 37 65 03 00  	lui	a0, 0x36
   17650: 13 0d 45 f5  	addi	s10, a0, -0xac
   17654: 37 65 03 00  	lui	a0, 0x36
   17658: 13 05 45 f9  	addi	a0, a0, -0x6c
   1765c: 23 30 a1 00  	sd	a0, 0x0(sp)
   17660: 37 65 03 00  	lui	a0, 0x36
   17664: 93 0d c5 1b  	addi	s11, a0, 0x1bc
   17668: 63 44 cc 02  	blt	s8, a2, 0x17690 <decode_mcu_AC_first+0xd0>
   1766c: 13 05 81 00  	addi	a0, sp, 0x8
   17670: 93 06 00 00  	addi	a3, zero, 0x0
   17674: ef f0 8f 8d  	jal	ra, 0x1674c <jpeg_fill_bit_buffer>
   17678: 63 0a 05 12  	beq	a0, zero, 0x177ac <decode_mcu_AC_first+0x1ec>
   1767c: 03 26 81 02  	lw	a2, 0x28(sp)
   17680: 83 35 01 02  	ld	a1, 0x20(sp)
   17684: 13 07 10 00  	addi	a4, zero, 0x1
   17688: 13 05 80 00  	addi	a0, zero, 0x8
   1768c: 63 4a a6 02  	blt	a2, a0, 0x176c0 <decode_mcu_AC_first+0x100>
   17690: 13 05 86 ff  	addi	a0, a2, -0x8
   17694: 33 d5 a5 40  	sra	a0, a1, a0
   17698: 13 75 f5 0f  	andi	a0, a0, 0xff
   1769c: 93 16 25 00  	slli	a3, a0, 0x2
   176a0: b3 86 d4 00  	add	a3, s1, a3
   176a4: 83 a6 86 16  	lw	a3, 0x168(a3)
   176a8: 63 8a 06 00  	beq	a3, zero, 0x176bc <decode_mcu_AC_first+0xfc>
   176ac: 33 85 a4 00  	add	a0, s1, a0
   176b0: 03 45 85 56  	lbu	a0, 0x568(a0)
   176b4: 3b 06 d6 40  	subw	a2, a2, a3
   176b8: 6f 00 00 02  	jal	zero, 0x176d8 <decode_mcu_AC_first+0x118>
   176bc: 13 07 90 00  	addi	a4, zero, 0x9
   176c0: 13 05 81 00  	addi	a0, sp, 0x8
   176c4: 93 86 04 00  	addi	a3, s1, 0x0
   176c8: ef f0 0f 9b  	jal	ra, 0x16878 <jpeg_huff_decode>
   176cc: 63 44 05 0e  	blt	a0, zero, 0x177b4 <decode_mcu_AC_first+0x1f4>
   176d0: 83 35 01 02  	ld	a1, 0x20(sp)
   176d4: 03 26 81 02  	lw	a2, 0x28(sp)
   176d8: 93 79 f5 00  	andi	s3, a0, 0xf
   176dc: 1b 59 45 00  	srliw	s2, a0, 0x4
   176e0: 63 8e 09 06  	beq	s3, zero, 0x1775c <decode_mcu_AC_first+0x19c>
   176e4: 63 5e 36 01  	bge	a2, s3, 0x17700 <decode_mcu_AC_first+0x140>
   176e8: 13 05 81 00  	addi	a0, sp, 0x8
   176ec: 93 86 09 00  	addi	a3, s3, 0x0
   176f0: ef f0 cf 85  	jal	ra, 0x1674c <jpeg_fill_bit_buffer>
   176f4: 63 0c 05 0a  	beq	a0, zero, 0x177ac <decode_mcu_AC_first+0x1ec>
   176f8: 83 35 01 02  	ld	a1, 0x20(sp)
   176fc: 03 26 81 02  	lw	a2, 0x28(sp)
   17700: 3b 06 36 41  	subw	a2, a2, s3
   17704: b3 d6 c5 40  	sra	a3, a1, a2
   17708: 13 95 29 00  	slli	a0, s3, 0x2
   1770c: 33 07 ad 00  	add	a4, s10, a0
   17710: 03 27 07 00  	lw	a4, 0x0(a4)
   17714: 93 07 f0 ff  	addi	a5, zero, -0x1
   17718: bb 97 37 01  	sllw	a5, a5, s3
   1771c: 93 c7 f7 ff  	xori	a5, a5, -0x1
   17720: b3 f6 f6 00  	and	a3, a3, a5
   17724: 63 da e6 00  	bge	a3, a4, 0x17738 <decode_mcu_AC_first+0x178>
   17728: 03 37 01 00  	ld	a4, 0x0(sp)
   1772c: 33 05 a7 00  	add	a0, a4, a0
   17730: 03 25 05 00  	lw	a0, 0x0(a0)
   17734: b3 06 d5 00  	add	a3, a0, a3
   17738: 3b 05 99 01  	addw	a0, s2, s9
   1773c: 13 17 25 00  	slli	a4, a0, 0x2
   17740: 33 87 ed 00  	add	a4, s11, a4
   17744: 03 27 07 00  	lw	a4, 0x0(a4)
   17748: bb 96 66 01  	sllw	a3, a3, s6
   1774c: 13 17 17 00  	slli	a4, a4, 0x1
   17750: 33 87 eb 00  	add	a4, s7, a4
   17754: 23 10 d7 00  	sh	a3, 0x0(a4)
   17758: 6f 00 00 01  	jal	zero, 0x17768 <decode_mcu_AC_first+0x1a8>
   1775c: 93 06 f0 00  	addi	a3, zero, 0xf
   17760: 63 1e d9 04  	bne	s2, a3, 0x177bc <decode_mcu_AC_first+0x1fc>
   17764: 1b 85 fc 00  	addiw	a0, s9, 0xf
   17768: 93 0c 15 00  	addi	s9, a0, 0x1
   1776c: e3 4e 55 ef  	blt	a0, s5, 0x17668 <decode_mcu_AC_first+0xa8>
   17770: 93 04 00 00  	addi	s1, zero, 0x0
   17774: 03 35 81 00  	ld	a0, 0x8(sp)
   17778: 83 36 04 02  	ld	a3, 0x20(s0)
   1777c: 03 37 01 01  	ld	a4, 0x10(sp)
   17780: 83 27 81 01  	lw	a5, 0x18(sp)
   17784: 23 b0 a6 00  	sd	a0, 0x0(a3)
   17788: 23 b4 e6 00  	sd	a4, 0x8(a3)
   1778c: 23 26 f4 20  	sw	a5, 0x20c(s0)
   17790: 23 38 ba 00  	sd	a1, 0x10(s4)
   17794: 23 2c ca 00  	sw	a2, 0x18(s4)
   17798: 03 25 4a 03  	lw	a0, 0x34(s4)
   1779c: 23 20 9a 02  	sw	s1, 0x20(s4)
   177a0: 13 05 f5 ff  	addi	a0, a0, -0x1
   177a4: 23 2a aa 02  	sw	a0, 0x34(s4)
   177a8: 13 05 10 00  	addi	a0, zero, 0x1
   177ac: 13 01 01 04  	addi	sp, sp, 0x40
   177b0: 6f c0 81 71  	jal	zero, 0x33ec8 <__riscv_restore_12>
   177b4: 13 05 00 00  	addi	a0, zero, 0x0
   177b8: 6f f0 5f ff  	jal	zero, 0x177ac <decode_mcu_AC_first+0x1ec>
   177bc: 93 06 10 00  	addi	a3, zero, 0x1
   177c0: 13 07 00 01  	addi	a4, zero, 0x10
   177c4: bb 94 26 01  	sllw	s1, a3, s2
   177c8: 63 6a e5 02  	bltu	a0, a4, 0x177fc <decode_mcu_AC_first+0x23c>
   177cc: 63 5e 26 01  	bge	a2, s2, 0x177e8 <decode_mcu_AC_first+0x228>
   177d0: 13 05 81 00  	addi	a0, sp, 0x8
   177d4: 93 06 09 00  	addi	a3, s2, 0x0
   177d8: ef e0 5f f7  	jal	ra, 0x1674c <jpeg_fill_bit_buffer>
   177dc: e3 08 05 fc  	beq	a0, zero, 0x177ac <decode_mcu_AC_first+0x1ec>
   177e0: 83 35 01 02  	ld	a1, 0x20(sp)
   177e4: 03 26 81 02  	lw	a2, 0x28(sp)
   177e8: 3b 06 26 41  	subw	a2, a2, s2
   177ec: 33 d5 c5 40  	sra	a0, a1, a2
   177f0: 93 86 f4 ff  	addi	a3, s1, -0x1
   177f4: 33 f5 a6 00  	and	a0, a3, a0
   177f8: b3 04 95 00  	add	s1, a0, s1
   177fc: 93 84 f4 ff  	addi	s1, s1, -0x1
   17800: 6f f0 5f f7  	jal	zero, 0x17774 <decode_mcu_AC_first+0x1b4>

0000000000017804 <decode_mcu_DC_refine>:
   17804: ef c2 61 69  	jal	t0, 0x33e9a <__riscv_save_7>
   17808: 13 01 01 fc  	addi	sp, sp, -0x40
   1780c: 13 04 05 00  	addi	s0, a0, 0x0
   17810: 03 39 05 24  	ld	s2, 0x240(a0)
   17814: 03 25 85 16  	lw	a0, 0x168(a0)
   17818: 03 6a 84 20  	lwu	s4, 0x208(s0)
   1781c: 93 84 05 00  	addi	s1, a1, 0x0
   17820: 63 0c 05 00  	beq	a0, zero, 0x17838 <decode_mcu_DC_refine+0x34>
   17824: 03 25 49 03  	lw	a0, 0x34(s2)
   17828: 63 18 05 00  	bne	a0, zero, 0x17838 <decode_mcu_DC_refine+0x34>
   1782c: 13 05 04 00  	addi	a0, s0, 0x0
   17830: ef 00 40 4f  	jal	ra, 0x17d24 <process_restart>
   17834: 63 04 05 0c  	beq	a0, zero, 0x178fc <decode_mcu_DC_refine+0xf8>
   17838: 03 35 04 02  	ld	a0, 0x20(s0)
   1783c: 23 38 81 02  	sd	s0, 0x30(sp)
   17840: 83 36 05 00  	ld	a3, 0x0(a0)
   17844: 83 37 85 00  	ld	a5, 0x8(a0)
   17848: 03 27 c4 20  	lw	a4, 0x20c(s0)
   1784c: 83 35 09 01  	ld	a1, 0x10(s2)
   17850: 13 06 c9 01  	addi	a2, s2, 0x1c
   17854: 23 3c c1 02  	sd	a2, 0x38(sp)
   17858: 03 28 04 1d  	lw	a6, 0x1d0(s0)
   1785c: 03 26 89 01  	lw	a2, 0x18(s2)
   17860: 23 34 d1 00  	sd	a3, 0x8(sp)
   17864: 23 38 f1 00  	sd	a5, 0x10(sp)
   17868: 23 2c e1 00  	sw	a4, 0x18(sp)
   1786c: 63 56 00 07  	bge	zero, a6, 0x178d8 <decode_mcu_DC_refine+0xd4>
   17870: 93 09 00 00  	addi	s3, zero, 0x0
   17874: 13 05 10 00  	addi	a0, zero, 0x1
   17878: 3b 1a 45 01  	sllw	s4, a0, s4
   1787c: 83 ba 04 00  	ld	s5, 0x0(s1)
   17880: 63 4e c0 00  	blt	zero, a2, 0x1789c <decode_mcu_DC_refine+0x98>
   17884: 13 05 81 00  	addi	a0, sp, 0x8
   17888: 93 06 10 00  	addi	a3, zero, 0x1
   1788c: ef e0 1f ec  	jal	ra, 0x1674c <jpeg_fill_bit_buffer>
   17890: 63 06 05 06  	beq	a0, zero, 0x178fc <decode_mcu_DC_refine+0xf8>
   17894: 83 35 01 02  	ld	a1, 0x20(sp)
   17898: 03 26 81 02  	lw	a2, 0x28(sp)
   1789c: 1b 06 f6 ff  	addiw	a2, a2, -0x1
   178a0: 33 d5 c5 00  	srl	a0, a1, a2
   178a4: 13 75 15 00  	andi	a0, a0, 0x1
   178a8: 63 08 05 00  	beq	a0, zero, 0x178b8 <decode_mcu_DC_refine+0xb4>
   178ac: 03 95 0a 00  	lh	a0, 0x0(s5)
   178b0: 33 65 45 01  	or	a0, a0, s4
   178b4: 23 90 aa 00  	sh	a0, 0x0(s5)
   178b8: 03 25 04 1d  	lw	a0, 0x1d0(s0)
   178bc: 93 89 19 00  	addi	s3, s3, 0x1
   178c0: 93 84 84 00  	addi	s1, s1, 0x8
   178c4: e3 cc a9 fa  	blt	s3, a0, 0x1787c <decode_mcu_DC_refine+0x78>
   178c8: 83 36 81 00  	ld	a3, 0x8(sp)
   178cc: 03 35 04 02  	ld	a0, 0x20(s0)
   178d0: 83 37 01 01  	ld	a5, 0x10(sp)
   178d4: 03 27 81 01  	lw	a4, 0x18(sp)
   178d8: 23 30 d5 00  	sd	a3, 0x0(a0)
   178dc: 23 34 f5 00  	sd	a5, 0x8(a0)
   178e0: 03 25 49 03  	lw	a0, 0x34(s2)
   178e4: 23 26 e4 20  	sw	a4, 0x20c(s0)
   178e8: 23 38 b9 00  	sd	a1, 0x10(s2)
   178ec: 23 2c c9 00  	sw	a2, 0x18(s2)
   178f0: 13 05 f5 ff  	addi	a0, a0, -0x1
   178f4: 23 2a a9 02  	sw	a0, 0x34(s2)
   178f8: 13 05 10 00  	addi	a0, zero, 0x1
   178fc: 13 01 01 04  	addi	sp, sp, 0x40
   17900: 6f c0 81 5d  	jal	zero, 0x33ed8 <__riscv_restore_7>

0000000000017904 <decode_mcu_AC_refine>:
   17904: ef c2 a1 57  	jal	t0, 0x33e7e <__riscv_save_12>
   17908: 13 01 01 e9  	addi	sp, sp, -0x170
   1790c: 03 39 05 24  	ld	s2, 0x240(a0)
   17910: 83 2a 05 20  	lw	s5, 0x200(a0)
   17914: 03 26 85 16  	lw	a2, 0x168(a0)
   17918: 23 3c a1 00  	sd	a0, 0x18(sp)
   1791c: 83 64 85 20  	lwu	s1, 0x208(a0)
   17920: 93 89 05 00  	addi	s3, a1, 0x0
   17924: 63 0c 06 00  	beq	a2, zero, 0x1793c <decode_mcu_AC_refine+0x38>
   17928: 03 25 49 03  	lw	a0, 0x34(s2)
   1792c: 63 18 05 00  	bne	a0, zero, 0x1793c <decode_mcu_AC_refine+0x38>
   17930: 03 35 81 01  	ld	a0, 0x18(sp)
   17934: ef 00 00 3f  	jal	ra, 0x17d24 <process_restart>
   17938: 63 02 05 3e  	beq	a0, zero, 0x17d1c <decode_mcu_AC_refine+0x418>
   1793c: 23 34 01 02  	sd	zero, 0x28(sp)
   17940: 03 37 81 01  	ld	a4, 0x18(sp)
   17944: 03 35 07 02  	ld	a0, 0x20(a4)
   17948: 93 05 10 00  	addi	a1, zero, 0x1
   1794c: 3b 9c 95 00  	sllw	s8, a1, s1
   17950: 93 05 f0 ff  	addi	a1, zero, -0x1
   17954: 03 36 05 00  	ld	a2, 0x0(a0)
   17958: 03 35 85 00  	ld	a0, 0x8(a0)
   1795c: 83 26 c7 20  	lw	a3, 0x20c(a4)
   17960: bb 95 95 00  	sllw	a1, a1, s1
   17964: 23 38 b1 02  	sd	a1, 0x30(sp)
   17968: 23 3c c1 12  	sd	a2, 0x138(sp)
   1796c: 23 30 a1 14  	sd	a0, 0x140(sp)
   17970: 23 24 d1 14  	sw	a3, 0x148(sp)
   17974: 13 05 09 00  	addi	a0, s2, 0x0
   17978: 03 39 09 01  	ld	s2, 0x10(s2)
   1797c: 83 24 85 01  	lw	s1, 0x18(a0)
   17980: 83 2c 05 02  	lw	s9, 0x20(a0)
   17984: 83 bb 09 00  	ld	s7, 0x0(s3)
   17988: 83 2d c7 1f  	lw	s11, 0x1fc(a4)
   1798c: 23 34 a1 00  	sd	a0, 0x8(sp)
   17990: 13 05 c5 01  	addi	a0, a0, 0x1c
   17994: 23 34 a1 16  	sd	a0, 0x168(sp)
   17998: 23 30 e1 16  	sd	a4, 0x160(sp)
   1799c: 63 9a 0c 26  	bne	s9, zero, 0x17c10 <decode_mcu_AC_refine+0x30c>
   179a0: 63 c8 ba 27  	blt	s5, s11, 0x17c10 <decode_mcu_AC_refine+0x30c>
   179a4: 23 34 01 02  	sd	zero, 0x28(sp)
   179a8: 03 35 81 00  	ld	a0, 0x8(sp)
   179ac: 03 34 85 05  	ld	s0, 0x58(a0)
   179b0: 37 65 03 00  	lui	a0, 0x36
   179b4: 13 05 c5 1b  	addi	a0, a0, 0x1bc
   179b8: 23 30 a1 02  	sd	a0, 0x20(sp)
   179bc: 23 38 81 00  	sd	s0, 0x10(sp)
   179c0: 13 05 70 00  	addi	a0, zero, 0x7
   179c4: 63 48 95 02  	blt	a0, s1, 0x179f4 <decode_mcu_AC_refine+0xf0>
   179c8: 13 05 81 13  	addi	a0, sp, 0x138
   179cc: 93 05 09 00  	addi	a1, s2, 0x0
   179d0: 13 86 04 00  	addi	a2, s1, 0x0
   179d4: 93 06 00 00  	addi	a3, zero, 0x0
   179d8: ef e0 5f d7  	jal	ra, 0x1674c <jpeg_fill_bit_buffer>
   179dc: 63 08 05 30  	beq	a0, zero, 0x17cec <decode_mcu_AC_refine+0x3e8>
   179e0: 83 24 81 15  	lw	s1, 0x158(sp)
   179e4: 03 39 01 15  	ld	s2, 0x150(sp)
   179e8: 13 07 10 00  	addi	a4, zero, 0x1
   179ec: 13 05 80 00  	addi	a0, zero, 0x8
   179f0: 63 ca a4 02  	blt	s1, a0, 0x17a24 <decode_mcu_AC_refine+0x120>
   179f4: 13 85 84 ff  	addi	a0, s1, -0x8
   179f8: 33 55 a9 40  	sra	a0, s2, a0
   179fc: 13 75 f5 0f  	andi	a0, a0, 0xff
   17a00: 93 15 25 00  	slli	a1, a0, 0x2
   17a04: b3 05 b4 00  	add	a1, s0, a1
   17a08: 83 a5 85 16  	lw	a1, 0x168(a1)
   17a0c: 63 8a 05 00  	beq	a1, zero, 0x17a20 <decode_mcu_AC_refine+0x11c>
   17a10: 33 05 a4 00  	add	a0, s0, a0
   17a14: 03 45 85 56  	lbu	a0, 0x568(a0)
   17a18: bb 84 b4 40  	subw	s1, s1, a1
   17a1c: 6f 00 80 02  	jal	zero, 0x17a44 <decode_mcu_AC_refine+0x140>
   17a20: 13 07 90 00  	addi	a4, zero, 0x9
   17a24: 13 05 81 13  	addi	a0, sp, 0x138
   17a28: 93 05 09 00  	addi	a1, s2, 0x0
   17a2c: 13 86 04 00  	addi	a2, s1, 0x0
   17a30: 93 06 04 00  	addi	a3, s0, 0x0
   17a34: ef e0 5f e4  	jal	ra, 0x16878 <jpeg_huff_decode>
   17a38: 63 4a 05 2a  	blt	a0, zero, 0x17cec <decode_mcu_AC_refine+0x3e8>
   17a3c: 03 39 01 15  	ld	s2, 0x150(sp)
   17a40: 83 24 81 15  	lw	s1, 0x158(sp)
   17a44: 93 75 f5 00  	andi	a1, a0, 0xf
   17a48: 1b 5a 45 00  	srliw	s4, a0, 0x4
   17a4c: 63 84 05 06  	beq	a1, zero, 0x17ab4 <decode_mcu_AC_refine+0x1b0>
   17a50: 13 05 10 00  	addi	a0, zero, 0x1
   17a54: 63 80 a5 02  	beq	a1, a0, 0x17a74 <decode_mcu_AC_refine+0x170>
   17a58: 03 35 81 01  	ld	a0, 0x18(sp)
   17a5c: 83 35 05 00  	ld	a1, 0x0(a0)
   17a60: 03 b6 85 00  	ld	a2, 0x8(a1)
   17a64: 93 06 20 07  	addi	a3, zero, 0x72
   17a68: 23 a4 d5 02  	sw	a3, 0x28(a1)
   17a6c: 93 05 f0 ff  	addi	a1, zero, -0x1
   17a70: e7 00 06 00  	jalr	ra, 0x0(a2)
   17a74: 63 42 90 02  	blt	zero, s1, 0x17a98 <decode_mcu_AC_refine+0x194>
   17a78: 13 05 81 13  	addi	a0, sp, 0x138
   17a7c: 93 06 10 00  	addi	a3, zero, 0x1
   17a80: 93 05 09 00  	addi	a1, s2, 0x0
   17a84: 13 86 04 00  	addi	a2, s1, 0x0
   17a88: ef e0 5f cc  	jal	ra, 0x1674c <jpeg_fill_bit_buffer>
   17a8c: 63 00 05 26  	beq	a0, zero, 0x17cec <decode_mcu_AC_refine+0x3e8>
   17a90: 03 39 01 15  	ld	s2, 0x150(sp)
   17a94: 83 24 81 15  	lw	s1, 0x158(sp)
   17a98: 9b 84 f4 ff  	addiw	s1, s1, -0x1
   17a9c: 33 55 99 00  	srl	a0, s2, s1
   17aa0: 13 75 15 00  	andi	a0, a0, 0x1
   17aa4: 83 3c 01 03  	ld	s9, 0x30(sp)
   17aa8: 63 0c 05 00  	beq	a0, zero, 0x17ac0 <decode_mcu_AC_refine+0x1bc>
   17aac: 93 0c 0c 00  	addi	s9, s8, 0x0
   17ab0: 6f 00 00 01  	jal	zero, 0x17ac0 <decode_mcu_AC_refine+0x1bc>
   17ab4: 93 05 f0 00  	addi	a1, zero, 0xf
   17ab8: 63 18 ba 10  	bne	s4, a1, 0x17bc8 <decode_mcu_AC_refine+0x2c4>
   17abc: 93 0c 00 00  	addi	s9, zero, 0x0
   17ac0: 13 85 0d 00  	addi	a0, s11, 0x0
   17ac4: 63 c4 ba 01  	blt	s5, s11, 0x17acc <decode_mcu_AC_refine+0x1c8>
   17ac8: 13 85 0a 00  	addi	a0, s5, 0x0
   17acc: 13 84 0a 00  	addi	s0, s5, 0x0
   17ad0: 9b 09 15 00  	addiw	s3, a0, 0x1
   17ad4: b3 0a b5 41  	sub	s5, a0, s11
   17ad8: 93 8a 1a 00  	addi	s5, s5, 0x1
   17adc: 13 9d 2d 00  	slli	s10, s11, 0x2
   17ae0: 03 35 01 02  	ld	a0, 0x20(sp)
   17ae4: 33 0d a5 01  	add	s10, a0, s10
   17ae8: 03 25 0d 00  	lw	a0, 0x0(s10)
   17aec: 13 15 15 00  	slli	a0, a0, 0x1
   17af0: 33 8b ab 00  	add	s6, s7, a0
   17af4: 03 55 0b 00  	lhu	a0, 0x0(s6)
   17af8: 63 0e 05 04  	beq	a0, zero, 0x17b54 <decode_mcu_AC_refine+0x250>
   17afc: 63 42 90 02  	blt	zero, s1, 0x17b20 <decode_mcu_AC_refine+0x21c>
   17b00: 13 05 81 13  	addi	a0, sp, 0x138
   17b04: 93 06 10 00  	addi	a3, zero, 0x1
   17b08: 93 05 09 00  	addi	a1, s2, 0x0
   17b0c: 13 86 04 00  	addi	a2, s1, 0x0
   17b10: ef e0 df c3  	jal	ra, 0x1674c <jpeg_fill_bit_buffer>
   17b14: 63 0c 05 1c  	beq	a0, zero, 0x17cec <decode_mcu_AC_refine+0x3e8>
   17b18: 03 39 01 15  	ld	s2, 0x150(sp)
   17b1c: 83 24 81 15  	lw	s1, 0x158(sp)
   17b20: 9b 84 f4 ff  	addiw	s1, s1, -0x1
   17b24: 33 55 99 00  	srl	a0, s2, s1
   17b28: 13 75 15 00  	andi	a0, a0, 0x1
   17b2c: 63 08 05 02  	beq	a0, zero, 0x17b5c <decode_mcu_AC_refine+0x258>
   17b30: 03 15 0b 00  	lh	a0, 0x0(s6)
   17b34: b3 75 ac 00  	and	a1, s8, a0
   17b38: 63 92 05 02  	bne	a1, zero, 0x17b5c <decode_mcu_AC_refine+0x258>
   17b3c: 83 35 01 03  	ld	a1, 0x30(sp)
   17b40: 63 44 05 00  	blt	a0, zero, 0x17b48 <decode_mcu_AC_refine+0x244>
   17b44: 93 05 0c 00  	addi	a1, s8, 0x0
   17b48: 33 05 b5 00  	add	a0, a0, a1
   17b4c: 23 10 ab 00  	sh	a0, 0x0(s6)
   17b50: 6f 00 c0 00  	jal	zero, 0x17b5c <decode_mcu_AC_refine+0x258>
   17b54: 63 5e 40 01  	bge	zero, s4, 0x17b70 <decode_mcu_AC_refine+0x26c>
   17b58: 1b 0a fa ff  	addiw	s4, s4, -0x1
   17b5c: 9b 8d 1d 00  	addiw	s11, s11, 0x1
   17b60: 93 8a fa ff  	addi	s5, s5, -0x1
   17b64: 13 0d 4d 00  	addi	s10, s10, 0x4
   17b68: e3 90 0a f8  	bne	s5, zero, 0x17ae8 <decode_mcu_AC_refine+0x1e4>
   17b6c: 6f 00 80 00  	jal	zero, 0x17b74 <decode_mcu_AC_refine+0x270>
   17b70: 93 89 0d 00  	addi	s3, s11, 0x0
   17b74: 93 0a 04 00  	addi	s5, s0, 0x0
   17b78: 63 8e 0c 02  	beq	s9, zero, 0x17bb4 <decode_mcu_AC_refine+0x2b0>
   17b7c: 13 95 29 00  	slli	a0, s3, 0x2
   17b80: 83 35 01 02  	ld	a1, 0x20(sp)
   17b84: 33 85 a5 00  	add	a0, a1, a0
   17b88: 03 25 05 00  	lw	a0, 0x0(a0)
   17b8c: 93 15 15 00  	slli	a1, a0, 0x1
   17b90: b3 85 bb 00  	add	a1, s7, a1
   17b94: 23 90 95 01  	sh	s9, 0x0(a1)
   17b98: 03 36 81 02  	ld	a2, 0x28(sp)
   17b9c: 93 15 26 00  	slli	a1, a2, 0x2
   17ba0: 1b 06 16 00  	addiw	a2, a2, 0x1
   17ba4: 93 06 81 03  	addi	a3, sp, 0x38
   17ba8: b3 85 b6 00  	add	a1, a3, a1
   17bac: 23 a0 a5 00  	sw	a0, 0x0(a1)
   17bb0: 23 34 c1 02  	sd	a2, 0x28(sp)
   17bb4: 03 34 01 01  	ld	s0, 0x10(sp)
   17bb8: 9b 8d 19 00  	addiw	s11, s3, 0x1
   17bbc: e3 c2 59 e1  	blt	s3, s5, 0x179c0 <decode_mcu_AC_refine+0xbc>
   17bc0: 93 0c 00 00  	addi	s9, zero, 0x0
   17bc4: 6f 00 40 0e  	jal	zero, 0x17ca8 <decode_mcu_AC_refine+0x3a4>
   17bc8: 93 05 10 00  	addi	a1, zero, 0x1
   17bcc: 13 06 00 01  	addi	a2, zero, 0x10
   17bd0: bb 9c 45 01  	sllw	s9, a1, s4
   17bd4: 63 60 c5 04  	bltu	a0, a2, 0x17c14 <decode_mcu_AC_refine+0x310>
   17bd8: 63 d2 44 03  	bge	s1, s4, 0x17bfc <decode_mcu_AC_refine+0x2f8>
   17bdc: 13 05 81 13  	addi	a0, sp, 0x138
   17be0: 93 05 09 00  	addi	a1, s2, 0x0
   17be4: 13 86 04 00  	addi	a2, s1, 0x0
   17be8: 93 06 0a 00  	addi	a3, s4, 0x0
   17bec: ef e0 1f b6  	jal	ra, 0x1674c <jpeg_fill_bit_buffer>
   17bf0: 63 0e 05 0e  	beq	a0, zero, 0x17cec <decode_mcu_AC_refine+0x3e8>
   17bf4: 03 39 01 15  	ld	s2, 0x150(sp)
   17bf8: 83 24 81 15  	lw	s1, 0x158(sp)
   17bfc: bb 84 44 41  	subw	s1, s1, s4
   17c00: 33 55 99 40  	sra	a0, s2, s1
   17c04: 93 85 fc ff  	addi	a1, s9, -0x1
   17c08: 33 f5 a5 00  	and	a0, a1, a0
   17c0c: bb 0c 95 01  	addw	s9, a0, s9
   17c10: 63 8c 0c 08  	beq	s9, zero, 0x17ca8 <decode_mcu_AC_refine+0x3a4>
   17c14: 63 c8 ba 09  	blt	s5, s11, 0x17ca4 <decode_mcu_AC_refine+0x3a0>
   17c18: 93 99 2d 00  	slli	s3, s11, 0x2
   17c1c: 37 65 03 00  	lui	a0, 0x36
   17c20: 13 05 c5 1b  	addi	a0, a0, 0x1bc
   17c24: b3 09 35 01  	add	s3, a0, s3
   17c28: 3b 8a ba 41  	subw	s4, s5, s11
   17c2c: 13 0a 1a 00  	addi	s4, s4, 0x1
   17c30: 03 a5 09 00  	lw	a0, 0x0(s3)
   17c34: 13 15 15 00  	slli	a0, a0, 0x1
   17c38: b3 8a ab 00  	add	s5, s7, a0
   17c3c: 03 d5 0a 00  	lhu	a0, 0x0(s5)
   17c40: 63 0c 05 04  	beq	a0, zero, 0x17c98 <decode_mcu_AC_refine+0x394>
   17c44: 63 42 90 02  	blt	zero, s1, 0x17c68 <decode_mcu_AC_refine+0x364>
   17c48: 13 05 81 13  	addi	a0, sp, 0x138
   17c4c: 93 06 10 00  	addi	a3, zero, 0x1
   17c50: 93 05 09 00  	addi	a1, s2, 0x0
   17c54: 13 86 04 00  	addi	a2, s1, 0x0
   17c58: ef e0 5f af  	jal	ra, 0x1674c <jpeg_fill_bit_buffer>
   17c5c: 63 08 05 08  	beq	a0, zero, 0x17cec <decode_mcu_AC_refine+0x3e8>
   17c60: 03 39 01 15  	ld	s2, 0x150(sp)
   17c64: 83 24 81 15  	lw	s1, 0x158(sp)
   17c68: 9b 84 f4 ff  	addiw	s1, s1, -0x1
   17c6c: 33 55 99 00  	srl	a0, s2, s1
   17c70: 13 75 15 00  	andi	a0, a0, 0x1
   17c74: 63 02 05 02  	beq	a0, zero, 0x17c98 <decode_mcu_AC_refine+0x394>
   17c78: 03 95 0a 00  	lh	a0, 0x0(s5)
   17c7c: b3 75 ac 00  	and	a1, s8, a0
   17c80: 63 9c 05 00  	bne	a1, zero, 0x17c98 <decode_mcu_AC_refine+0x394>
   17c84: 83 35 01 03  	ld	a1, 0x30(sp)
   17c88: 63 44 05 00  	blt	a0, zero, 0x17c90 <decode_mcu_AC_refine+0x38c>
   17c8c: 93 05 0c 00  	addi	a1, s8, 0x0
   17c90: 33 05 b5 00  	add	a0, a0, a1
   17c94: 23 90 aa 00  	sh	a0, 0x0(s5)
   17c98: 1b 0a fa ff  	addiw	s4, s4, -0x1
   17c9c: 93 89 49 00  	addi	s3, s3, 0x4
   17ca0: e3 18 0a f8  	bne	s4, zero, 0x17c30 <decode_mcu_AC_refine+0x32c>
   17ca4: 93 8c fc ff  	addi	s9, s9, -0x1
   17ca8: 03 35 81 13  	ld	a0, 0x138(sp)
   17cac: 03 37 81 01  	ld	a4, 0x18(sp)
   17cb0: 83 35 07 02  	ld	a1, 0x20(a4)
   17cb4: 03 36 01 14  	ld	a2, 0x140(sp)
   17cb8: 83 26 81 14  	lw	a3, 0x148(sp)
   17cbc: 23 b0 a5 00  	sd	a0, 0x0(a1)
   17cc0: 23 b4 c5 00  	sd	a2, 0x8(a1)
   17cc4: 23 26 d7 20  	sw	a3, 0x20c(a4)
   17cc8: 83 35 81 00  	ld	a1, 0x8(sp)
   17ccc: 03 a5 45 03  	lw	a0, 0x34(a1)
   17cd0: 23 b8 25 01  	sd	s2, 0x10(a1)
   17cd4: 23 ac 95 00  	sw	s1, 0x18(a1)
   17cd8: 23 a0 95 03  	sw	s9, 0x20(a1)
   17cdc: 13 05 f5 ff  	addi	a0, a0, -0x1
   17ce0: 23 aa a5 02  	sw	a0, 0x34(a1)
   17ce4: 13 05 10 00  	addi	a0, zero, 0x1
   17ce8: 6f 00 40 03  	jal	zero, 0x17d1c <decode_mcu_AC_refine+0x418>
   17cec: 83 35 81 02  	ld	a1, 0x28(sp)
   17cf0: 63 54 b0 02  	bge	zero, a1, 0x17d18 <decode_mcu_AC_refine+0x414>
   17cf4: 93 95 25 00  	slli	a1, a1, 0x2
   17cf8: 13 05 41 03  	addi	a0, sp, 0x34
   17cfc: b3 05 b5 00  	add	a1, a0, a1
   17d00: 03 a6 05 00  	lw	a2, 0x0(a1)
   17d04: 13 16 16 00  	slli	a2, a2, 0x1
   17d08: 33 86 cb 00  	add	a2, s7, a2
   17d0c: 93 85 c5 ff  	addi	a1, a1, -0x4
   17d10: 23 10 06 00  	sh	zero, 0x0(a2)
   17d14: e3 96 a5 fe  	bne	a1, a0, 0x17d00 <decode_mcu_AC_refine+0x3fc>
   17d18: 13 05 00 00  	addi	a0, zero, 0x0
   17d1c: 13 01 01 17  	addi	sp, sp, 0x170
   17d20: 6f c0 81 1a  	jal	zero, 0x33ec8 <__riscv_restore_12>

0000000000017d24 <process_restart>:
   17d24: ef c2 a1 18  	jal	t0, 0x33eae <__riscv_save_3>
   17d28: 13 04 05 00  	addi	s0, a0, 0x0
   17d2c: 83 34 05 24  	ld	s1, 0x240(a0)
   17d30: 03 a5 84 01  	lw	a0, 0x18(s1)
   17d34: 83 35 84 23  	ld	a1, 0x238(s0)
   17d38: 13 16 15 00  	slli	a2, a0, 0x1
   17d3c: 13 56 d6 03  	srli	a2, a2, 0x3d
   17d40: 83 a6 c5 0a  	lw	a3, 0xac(a1)
   17d44: 33 05 c5 00  	add	a0, a0, a2
   17d48: 1b 55 35 40  	sraiw	a0, a0, 0x3
   17d4c: 03 b6 05 01  	ld	a2, 0x10(a1)
   17d50: 33 85 a6 00  	add	a0, a3, a0
   17d54: 23 a6 a5 0a  	sw	a0, 0xac(a1)
   17d58: 23 ac 04 00  	sw	zero, 0x18(s1)
   17d5c: 13 05 04 00  	addi	a0, s0, 0x0
   17d60: e7 00 06 00  	jalr	ra, 0x0(a2)
   17d64: 63 0e 05 02  	beq	a0, zero, 0x17da0 <process_restart+0x7c>
   17d68: 03 25 04 1a  	lw	a0, 0x1a0(s0)
   17d6c: 63 50 a0 02  	bge	zero, a0, 0x17d8c <process_restart+0x68>
   17d70: 13 05 00 00  	addi	a0, zero, 0x0
   17d74: 93 85 44 02  	addi	a1, s1, 0x24
   17d78: 23 a0 05 00  	sw	zero, 0x0(a1)
   17d7c: 03 26 04 1a  	lw	a2, 0x1a0(s0)
   17d80: 13 05 15 00  	addi	a0, a0, 0x1
   17d84: 93 85 45 00  	addi	a1, a1, 0x4
   17d88: e3 48 c5 fe  	blt	a0, a2, 0x17d78 <process_restart+0x54>
   17d8c: 03 25 84 16  	lw	a0, 0x168(s0)
   17d90: 23 a0 04 02  	sw	zero, 0x20(s1)
   17d94: 23 aa a4 02  	sw	a0, 0x34(s1)
   17d98: 23 ae 04 00  	sw	zero, 0x1c(s1)
   17d9c: 13 05 10 00  	addi	a0, zero, 0x1
   17da0: 6f c0 41 14  	jal	zero, 0x33ee4 <__riscv_restore_3>

0000000000017da4 <jinit_d_main_controller>:
   17da4: ef c2 21 0e  	jal	t0, 0x33e86 <__riscv_save_11>
   17da8: 13 04 05 00  	addi	s0, a0, 0x0
   17dac: 03 35 85 00  	ld	a0, 0x8(a0)
   17db0: 83 36 05 00  	ld	a3, 0x0(a0)
   17db4: 13 89 05 00  	addi	s2, a1, 0x0
   17db8: 93 05 10 00  	addi	a1, zero, 0x1
   17dbc: 13 06 80 08  	addi	a2, zero, 0x88
   17dc0: 13 05 04 00  	addi	a0, s0, 0x0
   17dc4: e7 80 06 00  	jalr	ra, 0x0(a3)
   17dc8: 93 04 05 00  	addi	s1, a0, 0x0
   17dcc: 23 3c a4 20  	sd	a0, 0x218(s0)
   17dd0: 37 85 01 00  	lui	a0, 0x18
   17dd4: 13 05 45 fa  	addi	a0, a0, -0x5c
   17dd8: 23 b0 a4 00  	sd	a0, 0x0(s1)
   17ddc: 63 0e 09 00  	beq	s2, zero, 0x17df8 <jinit_d_main_controller+0x54>
   17de0: 03 35 04 00  	ld	a0, 0x0(s0)
   17de4: 83 35 05 00  	ld	a1, 0x0(a0)
   17de8: 13 06 40 00  	addi	a2, zero, 0x4
   17dec: 23 24 c5 02  	sw	a2, 0x28(a0)
   17df0: 13 05 04 00  	addi	a0, s0, 0x0
   17df4: e7 80 05 00  	jalr	ra, 0x0(a1)
   17df8: 03 35 04 25  	ld	a0, 0x250(s0)
   17dfc: 03 25 05 01  	lw	a0, 0x10(a0)
   17e00: 03 29 c4 18  	lw	s2, 0x18c(s0)
   17e04: 63 08 05 10  	beq	a0, zero, 0x17f14 <jinit_d_main_controller+0x170>
   17e08: 13 05 10 00  	addi	a0, zero, 0x1
   17e0c: 63 40 25 03  	blt	a0, s2, 0x17e2c <jinit_d_main_controller+0x88>
   17e10: 03 35 04 00  	ld	a0, 0x0(s0)
   17e14: 83 35 05 00  	ld	a1, 0x0(a0)
   17e18: 13 06 e0 02  	addi	a2, zero, 0x2e
   17e1c: 23 24 c5 02  	sw	a2, 0x28(a0)
   17e20: 13 05 04 00  	addi	a0, s0, 0x0
   17e24: e7 80 05 00  	jalr	ra, 0x0(a1)
   17e28: 03 29 c4 18  	lw	s2, 0x18c(s0)
   17e2c: 03 35 84 00  	ld	a0, 0x8(s0)
   17e30: 83 25 04 03  	lw	a1, 0x30(s0)
   17e34: 83 3a 84 21  	ld	s5, 0x218(s0)
   17e38: 83 36 05 00  	ld	a3, 0x0(a0)
   17e3c: 1b 96 15 00  	slliw	a2, a1, 0x1
   17e40: 13 16 36 00  	slli	a2, a2, 0x3
   17e44: 93 05 10 00  	addi	a1, zero, 0x1
   17e48: 13 05 04 00  	addi	a0, s0, 0x0
   17e4c: e7 80 06 00  	jalr	ra, 0x0(a3)
   17e50: 83 25 04 03  	lw	a1, 0x30(s0)
   17e54: 23 b4 aa 06  	sd	a0, 0x68(s5)
   17e58: 13 96 35 00  	slli	a2, a1, 0x3
   17e5c: 33 05 c5 00  	add	a0, a0, a2
   17e60: 23 b8 aa 06  	sd	a0, 0x70(s5)
   17e64: 63 50 b0 0a  	bge	zero, a1, 0x17f04 <jinit_d_main_controller+0x160>
   17e68: 03 35 84 12  	ld	a0, 0x128(s0)
   17e6c: 13 0b 00 00  	addi	s6, zero, 0x0
   17e70: 93 0b 00 00  	addi	s7, zero, 0x0
   17e74: 1b 09 49 00  	addiw	s2, s2, 0x4
   17e78: 13 0c 45 02  	addi	s8, a0, 0x24
   17e7c: 83 25 8c fe  	lw	a1, -0x18(s8)
   17e80: 03 25 0c 00  	lw	a0, 0x0(s8)
   17e84: ef c0 01 07  	jal	ra, 0x33ef4 <__muldi3>
   17e88: 83 25 c4 18  	lw	a1, 0x18c(s0)
   17e8c: 1b 05 05 00  	addiw	a0, a0, 0x0
   17e90: ef c0 41 0a  	jal	ra, 0x33f34 <__divdi3>
   17e94: 83 35 84 00  	ld	a1, 0x8(s0)
   17e98: 83 bc 05 00  	ld	s9, 0x0(a1)
   17e9c: 93 09 05 00  	addi	s3, a0, 0x0
   17ea0: 93 05 09 00  	addi	a1, s2, 0x0
   17ea4: ef c0 01 05  	jal	ra, 0x33ef4 <__muldi3>
   17ea8: 13 0a 05 00  	addi	s4, a0, 0x0
   17eac: 1b 16 15 00  	slliw	a2, a0, 0x1
   17eb0: 13 16 36 00  	slli	a2, a2, 0x3
   17eb4: 93 05 10 00  	addi	a1, zero, 0x1
   17eb8: 13 05 04 00  	addi	a0, s0, 0x0
   17ebc: e7 80 0c 00  	jalr	ra, 0x0(s9)
   17ec0: 83 b5 8a 06  	ld	a1, 0x68(s5)
   17ec4: 9b 89 09 00  	addiw	s3, s3, 0x0
   17ec8: 93 99 39 00  	slli	s3, s3, 0x3
   17ecc: 33 05 35 01  	add	a0, a0, s3
   17ed0: b3 85 65 01  	add	a1, a1, s6
   17ed4: 23 b0 a5 00  	sd	a0, 0x0(a1)
   17ed8: 83 b5 0a 07  	ld	a1, 0x70(s5)
   17edc: 1b 0a 0a 00  	addiw	s4, s4, 0x0
   17ee0: 13 1a 3a 00  	slli	s4, s4, 0x3
   17ee4: 33 05 45 01  	add	a0, a0, s4
   17ee8: 33 86 65 01  	add	a2, a1, s6
   17eec: 83 25 04 03  	lw	a1, 0x30(s0)
   17ef0: 23 30 a6 00  	sd	a0, 0x0(a2)
   17ef4: 93 8b 1b 00  	addi	s7, s7, 0x1
   17ef8: 13 0b 8b 00  	addi	s6, s6, 0x8
   17efc: 13 0c 0c 06  	addi	s8, s8, 0x60
   17f00: e3 ce bb f6  	blt	s7, a1, 0x17e7c <jinit_d_main_controller+0xd8>
   17f04: 03 29 c4 18  	lw	s2, 0x18c(s0)
   17f08: 1b 09 29 00  	addiw	s2, s2, 0x2
   17f0c: 63 48 b0 00  	blt	zero, a1, 0x17f1c <jinit_d_main_controller+0x178>
   17f10: 6f 00 00 09  	jal	zero, 0x17fa0 <jinit_d_main_controller+0x1fc>
   17f14: 83 25 04 03  	lw	a1, 0x30(s0)
   17f18: 63 54 b0 08  	bge	zero, a1, 0x17fa0 <jinit_d_main_controller+0x1fc>
   17f1c: 03 35 84 12  	ld	a0, 0x128(s0)
   17f20: 13 0a 00 00  	addi	s4, zero, 0x0
   17f24: 93 8a 04 01  	addi	s5, s1, 0x10
   17f28: 13 0b 45 02  	addi	s6, a0, 0x24
   17f2c: 83 25 8b fe  	lw	a1, -0x18(s6)
   17f30: 83 24 0b 00  	lw	s1, 0x0(s6)
   17f34: 13 85 04 00  	addi	a0, s1, 0x0
   17f38: ef b0 d1 7b  	jal	ra, 0x33ef4 <__muldi3>
   17f3c: 83 25 c4 18  	lw	a1, 0x18c(s0)
   17f40: 1b 05 05 00  	addiw	a0, a0, 0x0
   17f44: ef b0 11 7f  	jal	ra, 0x33f34 <__divdi3>
   17f48: 83 35 84 00  	ld	a1, 0x8(s0)
   17f4c: 83 bb 05 01  	ld	s7, 0x10(a1)
   17f50: 83 25 8b ff  	lw	a1, -0x8(s6)
   17f54: 93 09 05 00  	addi	s3, a0, 0x0
   17f58: 13 85 05 00  	addi	a0, a1, 0x0
   17f5c: 93 85 04 00  	addi	a1, s1, 0x0
   17f60: ef b0 51 79  	jal	ra, 0x33ef4 <__muldi3>
   17f64: 93 04 05 00  	addi	s1, a0, 0x0
   17f68: 13 85 09 00  	addi	a0, s3, 0x0
   17f6c: 93 05 09 00  	addi	a1, s2, 0x0
   17f70: ef b0 51 78  	jal	ra, 0x33ef4 <__muldi3>
   17f74: 1b 86 04 00  	addiw	a2, s1, 0x0
   17f78: 9b 06 05 00  	addiw	a3, a0, 0x0
   17f7c: 93 05 10 00  	addi	a1, zero, 0x1
   17f80: 13 05 04 00  	addi	a0, s0, 0x0
   17f84: e7 80 0b 00  	jalr	ra, 0x0(s7)
   17f88: 83 25 04 03  	lw	a1, 0x30(s0)
   17f8c: 23 b0 aa 00  	sd	a0, 0x0(s5)
   17f90: 13 0a 1a 00  	addi	s4, s4, 0x1
   17f94: 93 8a 8a 00  	addi	s5, s5, 0x8
   17f98: 13 0b 0b 06  	addi	s6, s6, 0x60
   17f9c: e3 48 ba f8  	blt	s4, a1, 0x17f2c <jinit_d_main_controller+0x188>
   17fa0: 6f b0 d1 72  	jal	zero, 0x33ecc <__riscv_restore_11>

0000000000017fa4 <start_pass_main>:
   17fa4: 13 01 01 f9  	addi	sp, sp, -0x70
   17fa8: 23 34 11 06  	sd	ra, 0x68(sp)
   17fac: 23 30 81 06  	sd	s0, 0x60(sp)
   17fb0: 23 3c 91 04  	sd	s1, 0x58(sp)
   17fb4: 23 38 21 05  	sd	s2, 0x50(sp)
   17fb8: 23 34 31 05  	sd	s3, 0x48(sp)
   17fbc: 23 30 41 05  	sd	s4, 0x40(sp)
   17fc0: 23 3c 51 03  	sd	s5, 0x38(sp)
   17fc4: 23 38 61 03  	sd	s6, 0x30(sp)
   17fc8: 23 34 71 03  	sd	s7, 0x28(sp)
   17fcc: 23 30 81 03  	sd	s8, 0x20(sp)
   17fd0: 23 3c 91 01  	sd	s9, 0x18(sp)
   17fd4: 23 38 a1 01  	sd	s10, 0x10(sp)
   17fd8: 23 34 b1 01  	sd	s11, 0x8(sp)
   17fdc: 83 3a 85 21  	ld	s5, 0x218(a0)
   17fe0: 13 06 20 00  	addi	a2, zero, 0x2
   17fe4: 63 88 c5 16  	beq	a1, a2, 0x18154 <start_pass_main+0x1b0>
   17fe8: 63 9e 05 16  	bne	a1, zero, 0x18164 <start_pass_main+0x1c0>
   17fec: 83 35 05 25  	ld	a1, 0x250(a0)
   17ff0: 83 a5 05 01  	lw	a1, 0x10(a1)
   17ff4: 63 8e 05 1a  	beq	a1, zero, 0x181b0 <start_pass_main+0x20c>
   17ff8: 03 2b 05 03  	lw	s6, 0x30(a0)
   17ffc: b7 85 01 00  	lui	a1, 0x18
   18000: 93 85 c5 1f  	addi	a1, a1, 0x1fc
   18004: 23 b4 ba 00  	sd	a1, 0x8(s5)
   18008: 63 50 60 15  	bge	zero, s6, 0x18148 <start_pass_main+0x1a4>
   1800c: 03 24 c5 18  	lw	s0, 0x18c(a0)
   18010: 83 3b 85 12  	ld	s7, 0x128(a0)
   18014: 13 0c 00 00  	addi	s8, zero, 0x0
   18018: 9b 04 24 00  	addiw	s1, s0, 0x2
   1801c: 1b 05 e4 ff  	addiw	a0, s0, -0x2
   18020: 23 30 a1 00  	sd	a0, 0x0(sp)
   18024: 83 a5 cb 00  	lw	a1, 0xc(s7)
   18028: 03 a5 4b 02  	lw	a0, 0x24(s7)
   1802c: ef b0 91 6c  	jal	ra, 0x33ef4 <__muldi3>
   18030: 1b 05 05 00  	addiw	a0, a0, 0x0
   18034: 93 05 04 00  	addi	a1, s0, 0x0
   18038: ef b0 d1 6f  	jal	ra, 0x33f34 <__divdi3>
   1803c: 83 b5 8a 06  	ld	a1, 0x68(s5)
   18040: 03 b6 0a 07  	ld	a2, 0x70(s5)
   18044: 93 16 3c 00  	slli	a3, s8, 0x3
   18048: b3 85 d5 00  	add	a1, a1, a3
   1804c: 83 bc 05 00  	ld	s9, 0x0(a1)
   18050: 33 06 d6 00  	add	a2, a2, a3
   18054: 83 3d 06 00  	ld	s11, 0x0(a2)
   18058: b3 86 da 00  	add	a3, s5, a3
   1805c: 03 bd 06 01  	ld	s10, 0x10(a3)
   18060: 93 09 05 00  	addi	s3, a0, 0x0
   18064: 93 85 04 00  	addi	a1, s1, 0x0
   18068: ef b0 d1 68  	jal	ra, 0x33ef4 <__muldi3>
   1806c: 1b 05 05 00  	addiw	a0, a0, 0x0
   18070: 63 5a a0 02  	bge	zero, a0, 0x180a4 <start_pass_main+0x100>
   18074: 13 15 35 00  	slli	a0, a0, 0x3
   18078: 33 85 ac 00  	add	a0, s9, a0
   1807c: 93 05 0d 00  	addi	a1, s10, 0x0
   18080: 13 86 0d 00  	addi	a2, s11, 0x0
   18084: 93 86 0c 00  	addi	a3, s9, 0x0
   18088: 03 b7 05 00  	ld	a4, 0x0(a1)
   1808c: 23 30 e6 00  	sd	a4, 0x0(a2)
   18090: 23 b0 e6 00  	sd	a4, 0x0(a3)
   18094: 93 86 86 00  	addi	a3, a3, 0x8
   18098: 13 06 86 00  	addi	a2, a2, 0x8
   1809c: 93 85 85 00  	addi	a1, a1, 0x8
   180a0: e3 94 a6 fe  	bne	a3, a0, 0x18088 <start_pass_main+0xe4>
   180a4: 9b 89 09 00  	addiw	s3, s3, 0x0
   180a8: 63 5a 30 09  	bge	zero, s3, 0x1813c <start_pass_main+0x198>
   180ac: 1b 99 19 00  	slliw	s2, s3, 0x1
   180b0: 13 85 09 00  	addi	a0, s3, 0x0
   180b4: 93 05 04 00  	addi	a1, s0, 0x0
   180b8: ef b0 d1 63  	jal	ra, 0x33ef4 <__muldi3>
   180bc: 13 0a 05 00  	addi	s4, a0, 0x0
   180c0: 13 85 09 00  	addi	a0, s3, 0x0
   180c4: 83 35 01 00  	ld	a1, 0x0(sp)
   180c8: ef b0 d1 62  	jal	ra, 0x33ef4 <__muldi3>
   180cc: 63 44 20 01  	blt	zero, s2, 0x180d4 <start_pass_main+0x130>
   180d0: 13 09 10 00  	addi	s2, zero, 0x1
   180d4: 1b 0a 0a 00  	addiw	s4, s4, 0x0
   180d8: 1b 05 05 00  	addiw	a0, a0, 0x0
   180dc: 93 16 35 00  	slli	a3, a0, 0x3
   180e0: 33 05 dd 00  	add	a0, s10, a3
   180e4: b3 85 dd 00  	add	a1, s11, a3
   180e8: 13 16 3a 00  	slli	a2, s4, 0x3
   180ec: b3 8d cd 00  	add	s11, s11, a2
   180f0: 33 06 cd 00  	add	a2, s10, a2
   180f4: 13 19 39 00  	slli	s2, s2, 0x3
   180f8: 33 09 2d 01  	add	s2, s10, s2
   180fc: b3 06 d9 00  	add	a3, s2, a3
   18100: 03 37 06 00  	ld	a4, 0x0(a2)
   18104: 23 b0 e5 00  	sd	a4, 0x0(a1)
   18108: 03 37 05 00  	ld	a4, 0x0(a0)
   1810c: 23 b0 ed 00  	sd	a4, 0x0(s11)
   18110: 13 05 85 00  	addi	a0, a0, 0x8
   18114: 93 85 85 00  	addi	a1, a1, 0x8
   18118: 93 8d 8d 00  	addi	s11, s11, 0x8
   1811c: 13 06 86 00  	addi	a2, a2, 0x8
   18120: e3 10 d5 fe  	bne	a0, a3, 0x18100 <start_pass_main+0x15c>
   18124: 03 b5 0c 00  	ld	a0, 0x0(s9)
   18128: 93 99 39 00  	slli	s3, s3, 0x3
   1812c: b3 85 3c 41  	sub	a1, s9, s3
   18130: 23 b0 a5 00  	sd	a0, 0x0(a1)
   18134: 93 85 85 00  	addi	a1, a1, 0x8
   18138: e3 9c 95 ff  	bne	a1, s9, 0x18130 <start_pass_main+0x18c>
   1813c: 13 0c 1c 00  	addi	s8, s8, 0x1
   18140: 93 8b 0b 06  	addi	s7, s7, 0x60
   18144: e3 10 6c ef  	bne	s8, s6, 0x18024 <start_pass_main+0x80>
   18148: 23 bc 0a 06  	sd	zero, 0x78(s5)
   1814c: 23 a2 0a 08  	sw	zero, 0x84(s5)
   18150: 6f 00 c0 06  	jal	zero, 0x181bc <start_pass_main+0x218>
   18154: 37 85 01 00  	lui	a0, 0x18
   18158: 13 05 45 5a  	addi	a0, a0, 0x5a4
   1815c: 23 b4 aa 00  	sd	a0, 0x8(s5)
   18160: 6f 00 00 06  	jal	zero, 0x181c0 <start_pass_main+0x21c>
   18164: 83 35 05 00  	ld	a1, 0x0(a0)
   18168: 03 b3 05 00  	ld	t1, 0x0(a1)
   1816c: 13 06 40 00  	addi	a2, zero, 0x4
   18170: 23 a4 c5 02  	sw	a2, 0x28(a1)
   18174: 83 30 81 06  	ld	ra, 0x68(sp)
   18178: 03 34 01 06  	ld	s0, 0x60(sp)
   1817c: 83 34 81 05  	ld	s1, 0x58(sp)
   18180: 03 39 01 05  	ld	s2, 0x50(sp)
   18184: 83 39 81 04  	ld	s3, 0x48(sp)
   18188: 03 3a 01 04  	ld	s4, 0x40(sp)
   1818c: 83 3a 81 03  	ld	s5, 0x38(sp)
   18190: 03 3b 01 03  	ld	s6, 0x30(sp)
   18194: 83 3b 81 02  	ld	s7, 0x28(sp)
   18198: 03 3c 01 02  	ld	s8, 0x20(sp)
   1819c: 83 3c 81 01  	ld	s9, 0x18(sp)
   181a0: 03 3d 01 01  	ld	s10, 0x10(sp)
   181a4: 83 3d 81 00  	ld	s11, 0x8(sp)
   181a8: 13 01 01 07  	addi	sp, sp, 0x70
   181ac: 67 00 03 00  	jalr	zero, 0x0(t1)
   181b0: 37 85 01 00  	lui	a0, 0x18
   181b4: 13 05 45 52  	addi	a0, a0, 0x524
   181b8: 23 b4 aa 00  	sd	a0, 0x8(s5)
   181bc: 23 b0 0a 06  	sd	zero, 0x60(s5)
   181c0: 83 30 81 06  	ld	ra, 0x68(sp)
   181c4: 03 34 01 06  	ld	s0, 0x60(sp)
   181c8: 83 34 81 05  	ld	s1, 0x58(sp)
   181cc: 03 39 01 05  	ld	s2, 0x50(sp)
   181d0: 83 39 81 04  	ld	s3, 0x48(sp)
   181d4: 03 3a 01 04  	ld	s4, 0x40(sp)
   181d8: 83 3a 81 03  	ld	s5, 0x38(sp)
   181dc: 03 3b 01 03  	ld	s6, 0x30(sp)
   181e0: 83 3b 81 02  	ld	s7, 0x28(sp)
   181e4: 03 3c 01 02  	ld	s8, 0x20(sp)
   181e8: 83 3c 81 01  	ld	s9, 0x18(sp)
   181ec: 03 3d 01 01  	ld	s10, 0x10(sp)
   181f0: 83 3d 81 00  	ld	s11, 0x8(sp)
   181f4: 13 01 01 07  	addi	sp, sp, 0x70
   181f8: 67 80 00 00  	jalr	zero, 0x0(ra)

00000000000181fc <process_data_context_main>:
   181fc: ef b2 31 48  	jal	t0, 0x33e7e <__riscv_save_12>
   18200: 13 01 01 ff  	addi	sp, sp, -0x10
   18204: 13 04 05 00  	addi	s0, a0, 0x0
   18208: 03 3c 85 21  	ld	s8, 0x218(a0)
   1820c: 03 25 0c 06  	lw	a0, 0x60(s8)
   18210: 93 84 06 00  	addi	s1, a3, 0x0
   18214: 13 09 06 00  	addi	s2, a2, 0x0
   18218: 93 89 05 00  	addi	s3, a1, 0x0
   1821c: 63 1e 05 02  	bne	a0, zero, 0x18258 <process_data_context_main+0x5c>
   18220: 03 35 04 22  	ld	a0, 0x220(s0)
   18224: 83 25 8c 07  	lw	a1, 0x78(s8)
   18228: 03 36 85 01  	ld	a2, 0x18(a0)
   1822c: 93 95 35 00  	slli	a1, a1, 0x3
   18230: b3 05 bc 00  	add	a1, s8, a1
   18234: 83 b5 85 06  	ld	a1, 0x68(a1)
   18238: 13 05 04 00  	addi	a0, s0, 0x0
   1823c: e7 00 06 00  	jalr	ra, 0x0(a2)
   18240: 63 0e 05 2c  	beq	a0, zero, 0x1851c <process_data_context_main+0x320>
   18244: 03 25 4c 08  	lw	a0, 0x84(s8)
   18248: 93 05 10 00  	addi	a1, zero, 0x1
   1824c: 23 20 bc 06  	sw	a1, 0x60(s8)
   18250: 13 05 15 00  	addi	a0, a0, 0x1
   18254: 23 22 ac 08  	sw	a0, 0x84(s8)
   18258: 03 25 cc 07  	lw	a0, 0x7c(s8)
   1825c: 63 00 05 06  	beq	a0, zero, 0x182bc <process_data_context_main+0xc0>
   18260: 93 05 10 00  	addi	a1, zero, 0x1
   18264: 63 04 b5 16  	beq	a0, a1, 0x183cc <process_data_context_main+0x1d0>
   18268: 93 05 20 00  	addi	a1, zero, 0x2
   1826c: 63 18 b5 2a  	bne	a0, a1, 0x1851c <process_data_context_main+0x320>
   18270: 03 35 84 22  	ld	a0, 0x228(s0)
   18274: 83 25 8c 07  	lw	a1, 0x78(s8)
   18278: 83 38 85 00  	ld	a7, 0x8(a0)
   1827c: 93 95 35 00  	slli	a1, a1, 0x3
   18280: b3 05 bc 00  	add	a1, s8, a1
   18284: 83 b5 85 06  	ld	a1, 0x68(a1)
   18288: 83 26 0c 08  	lw	a3, 0x80(s8)
   1828c: 13 06 4c 06  	addi	a2, s8, 0x64
   18290: 13 05 04 00  	addi	a0, s0, 0x0
   18294: 13 87 09 00  	addi	a4, s3, 0x0
   18298: 93 07 09 00  	addi	a5, s2, 0x0
   1829c: 13 88 04 00  	addi	a6, s1, 0x0
   182a0: e7 80 08 00  	jalr	ra, 0x0(a7)
   182a4: 03 25 4c 06  	lw	a0, 0x64(s8)
   182a8: 83 25 0c 08  	lw	a1, 0x80(s8)
   182ac: 63 68 b5 26  	bltu	a0, a1, 0x1851c <process_data_context_main+0x320>
   182b0: 23 2e 0c 06  	sw	zero, 0x7c(s8)
   182b4: 03 25 09 00  	lw	a0, 0x0(s2)
   182b8: 63 72 95 26  	bgeu	a0, s1, 0x1851c <process_data_context_main+0x320>
   182bc: 23 30 31 01  	sd	s3, 0x0(sp)
   182c0: 23 34 91 00  	sd	s1, 0x8(sp)
   182c4: 03 2a c4 18  	lw	s4, 0x18c(s0)
   182c8: 03 25 4c 08  	lw	a0, 0x84(s8)
   182cc: 83 25 04 19  	lw	a1, 0x190(s0)
   182d0: 13 06 fa ff  	addi	a2, s4, -0x1
   182d4: 23 20 cc 08  	sw	a2, 0x80(s8)
   182d8: 23 22 0c 06  	sw	zero, 0x64(s8)
   182dc: 63 10 b5 0e  	bne	a0, a1, 0x183bc <process_data_context_main+0x1c0>
   182e0: 83 2c 04 03  	lw	s9, 0x30(s0)
   182e4: 63 5c 90 0d  	bge	zero, s9, 0x183bc <process_data_context_main+0x1c0>
   182e8: 03 3d 84 21  	ld	s10, 0x218(s0)
   182ec: 03 25 8d 07  	lw	a0, 0x78(s10)
   182f0: 93 0d 00 00  	addi	s11, zero, 0x0
   182f4: 83 39 84 12  	ld	s3, 0x128(s0)
   182f8: 13 15 35 00  	slli	a0, a0, 0x3
   182fc: 33 05 ad 00  	add	a0, s10, a0
   18300: 93 04 85 06  	addi	s1, a0, 0x68
   18304: 83 a5 c9 00  	lw	a1, 0xc(s3)
   18308: 03 a5 49 02  	lw	a0, 0x24(s3)
   1830c: ef b0 91 3e  	jal	ra, 0x33ef4 <__muldi3>
   18310: 93 0a 05 00  	addi	s5, a0, 0x0
   18314: 13 15 05 02  	slli	a0, a0, 0x20
   18318: 93 5b 05 02  	srli	s7, a0, 0x20
   1831c: 1b 85 0a 00  	addiw	a0, s5, 0x0
   18320: 93 05 0a 00  	addi	a1, s4, 0x0
   18324: ef b0 11 41  	jal	ra, 0x33f34 <__divdi3>
   18328: 83 e5 c9 02  	lwu	a1, 0x2c(s3)
   1832c: 13 0b 05 00  	addi	s6, a0, 0x0
   18330: 13 85 05 00  	addi	a0, a1, 0x0
   18334: 93 85 0b 00  	addi	a1, s7, 0x0
   18338: ef b0 11 43  	jal	ra, 0x33f68 <__umoddi3>
   1833c: 63 04 05 00  	beq	a0, zero, 0x18344 <process_data_context_main+0x148>
   18340: 93 0a 05 00  	addi	s5, a0, 0x0
   18344: 1b 0b 0b 00  	addiw	s6, s6, 0x0
   18348: 63 86 0d 00  	beq	s11, zero, 0x18354 <process_data_context_main+0x158>
   1834c: 63 40 60 03  	blt	zero, s6, 0x1836c <process_data_context_main+0x170>
   18350: 6f 00 00 06  	jal	zero, 0x183b0 <process_data_context_main+0x1b4>
   18354: 1b 85 fa ff  	addiw	a0, s5, -0x1
   18358: 93 05 0b 00  	addi	a1, s6, 0x0
   1835c: ef b0 91 3d  	jal	ra, 0x33f34 <__divdi3>
   18360: 13 05 15 00  	addi	a0, a0, 0x1
   18364: 23 20 ad 08  	sw	a0, 0x80(s10)
   18368: 63 54 60 05  	bge	zero, s6, 0x183b0 <process_data_context_main+0x1b4>
   1836c: 1b 15 1b 00  	slliw	a0, s6, 0x1
   18370: 63 44 a0 00  	blt	zero, a0, 0x18378 <process_data_context_main+0x17c>
   18374: 13 05 10 00  	addi	a0, zero, 0x1
   18378: 83 b5 04 00  	ld	a1, 0x0(s1)
   1837c: 13 96 3d 00  	slli	a2, s11, 0x3
   18380: b3 85 c5 00  	add	a1, a1, a2
   18384: 83 b6 05 00  	ld	a3, 0x0(a1)
   18388: 9b 8a 0a 00  	addiw	s5, s5, 0x0
   1838c: 93 9a 3a 00  	slli	s5, s5, 0x3
   18390: b3 85 56 01  	add	a1, a3, s5
   18394: 03 b6 85 ff  	ld	a2, -0x8(a1)
   18398: 13 15 35 00  	slli	a0, a0, 0x3
   1839c: b3 86 56 01  	add	a3, a3, s5
   183a0: 33 85 a6 00  	add	a0, a3, a0
   183a4: 23 b0 c5 00  	sd	a2, 0x0(a1)
   183a8: 93 85 85 00  	addi	a1, a1, 0x8
   183ac: e3 9c a5 fe  	bne	a1, a0, 0x183a4 <process_data_context_main+0x1a8>
   183b0: 93 8d 1d 00  	addi	s11, s11, 0x1
   183b4: 93 89 09 06  	addi	s3, s3, 0x60
   183b8: e3 96 9d f5  	bne	s11, s9, 0x18304 <process_data_context_main+0x108>
   183bc: 13 05 10 00  	addi	a0, zero, 0x1
   183c0: 23 2e ac 06  	sw	a0, 0x7c(s8)
   183c4: 83 34 81 00  	ld	s1, 0x8(sp)
   183c8: 83 39 01 00  	ld	s3, 0x0(sp)
   183cc: 03 35 84 22  	ld	a0, 0x228(s0)
   183d0: 83 25 8c 07  	lw	a1, 0x78(s8)
   183d4: 83 38 85 00  	ld	a7, 0x8(a0)
   183d8: 93 95 35 00  	slli	a1, a1, 0x3
   183dc: b3 05 bc 00  	add	a1, s8, a1
   183e0: 83 b5 85 06  	ld	a1, 0x68(a1)
   183e4: 83 26 0c 08  	lw	a3, 0x80(s8)
   183e8: 13 06 4c 06  	addi	a2, s8, 0x64
   183ec: 13 05 04 00  	addi	a0, s0, 0x0
   183f0: 13 87 09 00  	addi	a4, s3, 0x0
   183f4: 93 07 09 00  	addi	a5, s2, 0x0
   183f8: 13 88 04 00  	addi	a6, s1, 0x0
   183fc: e7 80 08 00  	jalr	ra, 0x0(a7)
   18400: 03 25 4c 06  	lw	a0, 0x64(s8)
   18404: 83 25 0c 08  	lw	a1, 0x80(s8)
   18408: 63 6a b5 10  	bltu	a0, a1, 0x1851c <process_data_context_main+0x320>
   1840c: 83 29 c4 18  	lw	s3, 0x18c(s0)
   18410: 03 25 4c 08  	lw	a0, 0x84(s8)
   18414: 93 05 10 00  	addi	a1, zero, 0x1
   18418: 9b 84 19 00  	addiw	s1, s3, 0x1
   1841c: 1b 89 29 00  	addiw	s2, s3, 0x2
   18420: 63 1e b5 0c  	bne	a0, a1, 0x184fc <process_data_context_main+0x300>
   18424: 83 2a 04 03  	lw	s5, 0x30(s0)
   18428: 63 5a 50 0d  	bge	zero, s5, 0x184fc <process_data_context_main+0x300>
   1842c: 03 3b 84 12  	ld	s6, 0x128(s0)
   18430: 83 3b 84 21  	ld	s7, 0x218(s0)
   18434: 93 0c 00 00  	addi	s9, zero, 0x0
   18438: 83 25 cb 00  	lw	a1, 0xc(s6)
   1843c: 03 25 4b 02  	lw	a0, 0x24(s6)
   18440: ef b0 51 2b  	jal	ra, 0x33ef4 <__muldi3>
   18444: 1b 05 05 00  	addiw	a0, a0, 0x0
   18448: 93 85 09 00  	addi	a1, s3, 0x0
   1844c: ef b0 91 2e  	jal	ra, 0x33f34 <__divdi3>
   18450: 1b 04 05 00  	addiw	s0, a0, 0x0
   18454: 63 5e 80 08  	bge	zero, s0, 0x184f0 <process_data_context_main+0x2f4>
   18458: 03 b5 8b 06  	ld	a0, 0x68(s7)
   1845c: 83 b5 0b 07  	ld	a1, 0x70(s7)
   18460: 13 96 3c 00  	slli	a2, s9, 0x3
   18464: 33 05 c5 00  	add	a0, a0, a2
   18468: 03 3d 05 00  	ld	s10, 0x0(a0)
   1846c: b3 85 c5 00  	add	a1, a1, a2
   18470: 83 bd 05 00  	ld	s11, 0x0(a1)
   18474: 13 05 04 00  	addi	a0, s0, 0x0
   18478: 93 85 04 00  	addi	a1, s1, 0x0
   1847c: ef b0 91 27  	jal	ra, 0x33ef4 <__muldi3>
   18480: 13 0a 05 00  	addi	s4, a0, 0x0
   18484: 13 05 04 00  	addi	a0, s0, 0x0
   18488: 93 05 09 00  	addi	a1, s2, 0x0
   1848c: ef b0 91 26  	jal	ra, 0x33ef4 <__muldi3>
   18490: 1b 06 0a 00  	addiw	a2, s4, 0x0
   18494: 1b 05 05 00  	addiw	a0, a0, 0x0
   18498: 13 15 35 00  	slli	a0, a0, 0x3
   1849c: 93 16 34 00  	slli	a3, s0, 0x3
   184a0: b3 05 d0 40  	sub	a1, zero, a3
   184a4: 13 16 36 00  	slli	a2, a2, 0x3
   184a8: b3 86 dd 00  	add	a3, s11, a3
   184ac: 33 07 cd 00  	add	a4, s10, a2
   184b0: 03 37 07 00  	ld	a4, 0x0(a4)
   184b4: b3 07 bd 00  	add	a5, s10, a1
   184b8: 23 b0 e7 00  	sd	a4, 0x0(a5)
   184bc: 33 87 cd 00  	add	a4, s11, a2
   184c0: 03 37 07 00  	ld	a4, 0x0(a4)
   184c4: b3 87 bd 00  	add	a5, s11, a1
   184c8: 23 b0 e7 00  	sd	a4, 0x0(a5)
   184cc: 03 37 0d 00  	ld	a4, 0x0(s10)
   184d0: b3 07 ad 00  	add	a5, s10, a0
   184d4: 23 b0 e7 00  	sd	a4, 0x0(a5)
   184d8: 03 b7 0d 00  	ld	a4, 0x0(s11)
   184dc: b3 87 ad 00  	add	a5, s11, a0
   184e0: 23 b0 e7 00  	sd	a4, 0x0(a5)
   184e4: 93 8d 8d 00  	addi	s11, s11, 0x8
   184e8: 13 0d 8d 00  	addi	s10, s10, 0x8
   184ec: e3 90 dd fc  	bne	s11, a3, 0x184ac <process_data_context_main+0x2b0>
   184f0: 93 8c 1c 00  	addi	s9, s9, 0x1
   184f4: 13 0b 0b 06  	addi	s6, s6, 0x60
   184f8: e3 90 5c f5  	bne	s9, s5, 0x18438 <process_data_context_main+0x23c>
   184fc: 03 25 8c 07  	lw	a0, 0x78(s8)
   18500: 13 45 15 00  	xori	a0, a0, 0x1
   18504: 23 2c ac 06  	sw	a0, 0x78(s8)
   18508: 23 20 0c 06  	sw	zero, 0x60(s8)
   1850c: 23 22 9c 06  	sw	s1, 0x64(s8)
   18510: 23 20 2c 09  	sw	s2, 0x80(s8)
   18514: 13 05 20 00  	addi	a0, zero, 0x2
   18518: 23 2e ac 06  	sw	a0, 0x7c(s8)
   1851c: 13 01 01 01  	addi	sp, sp, 0x10
   18520: 6f b0 91 1a  	jal	zero, 0x33ec8 <__riscv_restore_12>

0000000000018524 <process_data_simple_main>:
   18524: ef b2 71 17  	jal	t0, 0x33e9a <__riscv_save_7>
   18528: 13 09 05 00  	addi	s2, a0, 0x0
   1852c: 03 3b 85 21  	ld	s6, 0x218(a0)
   18530: 03 25 0b 06  	lw	a0, 0x60(s6)
   18534: 13 84 06 00  	addi	s0, a3, 0x0
   18538: 93 04 06 00  	addi	s1, a2, 0x0
   1853c: 93 89 05 00  	addi	s3, a1, 0x0
   18540: 13 0a 0b 01  	addi	s4, s6, 0x10
   18544: 63 12 05 02  	bne	a0, zero, 0x18568 <process_data_simple_main+0x44>
   18548: 03 35 09 22  	ld	a0, 0x220(s2)
   1854c: 03 36 85 01  	ld	a2, 0x18(a0)
   18550: 13 05 09 00  	addi	a0, s2, 0x0
   18554: 93 05 0a 00  	addi	a1, s4, 0x0
   18558: e7 00 06 00  	jalr	ra, 0x0(a2)
   1855c: 63 02 05 04  	beq	a0, zero, 0x185a0 <process_data_simple_main+0x7c>
   18560: 13 05 10 00  	addi	a0, zero, 0x1
   18564: 23 20 ab 06  	sw	a0, 0x60(s6)
   18568: 03 35 89 22  	ld	a0, 0x228(s2)
   1856c: 83 2a c9 18  	lw	s5, 0x18c(s2)
   18570: 83 38 85 00  	ld	a7, 0x8(a0)
   18574: 13 06 4b 06  	addi	a2, s6, 0x64
   18578: 13 05 09 00  	addi	a0, s2, 0x0
   1857c: 93 05 0a 00  	addi	a1, s4, 0x0
   18580: 93 86 0a 00  	addi	a3, s5, 0x0
   18584: 13 87 09 00  	addi	a4, s3, 0x0
   18588: 93 87 04 00  	addi	a5, s1, 0x0
   1858c: 13 08 04 00  	addi	a6, s0, 0x0
   18590: e7 80 08 00  	jalr	ra, 0x0(a7)
   18594: 03 25 4b 06  	lw	a0, 0x64(s6)
   18598: 63 64 55 01  	bltu	a0, s5, 0x185a0 <process_data_simple_main+0x7c>
   1859c: 23 30 0b 06  	sd	zero, 0x60(s6)
   185a0: 6f b0 91 13  	jal	zero, 0x33ed8 <__riscv_restore_7>

00000000000185a4 <process_data_crank_post>:
   185a4: 03 37 85 22  	ld	a4, 0x228(a0)
   185a8: 03 33 87 00  	ld	t1, 0x8(a4)
   185ac: 13 88 06 00  	addi	a6, a3, 0x0
   185b0: 93 07 06 00  	addi	a5, a2, 0x0
   185b4: 13 87 05 00  	addi	a4, a1, 0x0
   185b8: 93 05 00 00  	addi	a1, zero, 0x0
   185bc: 13 06 00 00  	addi	a2, zero, 0x0
   185c0: 93 06 00 00  	addi	a3, zero, 0x0
   185c4: 67 00 03 00  	jalr	zero, 0x0(t1)

00000000000185c8 <jinit_d_coef_controller>:
   185c8: ef b2 91 0c  	jal	t0, 0x33e90 <__riscv_save_9>
   185cc: 93 04 05 00  	addi	s1, a0, 0x0
   185d0: 03 35 85 00  	ld	a0, 0x8(a0)
   185d4: 83 36 05 00  	ld	a3, 0x0(a0)
   185d8: 13 89 05 00  	addi	s2, a1, 0x0
   185dc: 93 05 10 00  	addi	a1, zero, 0x1
   185e0: 13 06 00 0e  	addi	a2, zero, 0xe0
   185e4: 13 85 04 00  	addi	a0, s1, 0x0
   185e8: e7 80 06 00  	jalr	ra, 0x0(a3)
   185ec: 13 04 05 00  	addi	s0, a0, 0x0
   185f0: 23 b0 a4 22  	sd	a0, 0x220(s1)
   185f4: 37 85 01 00  	lui	a0, 0x18
   185f8: 13 05 45 71  	addi	a0, a0, 0x714
   185fc: 23 30 a4 00  	sd	a0, 0x0(s0)
   18600: 37 85 01 00  	lui	a0, 0x18
   18604: 13 05 c5 71  	addi	a0, a0, 0x71c
   18608: 23 38 a4 00  	sd	a0, 0x10(s0)
   1860c: 23 3c 04 0c  	sd	zero, 0xd8(s0)
   18610: 63 08 09 0a  	beq	s2, zero, 0x186c0 <jinit_d_coef_controller+0xf8>
   18614: 03 a5 04 03  	lw	a0, 0x30(s1)
   18618: 63 56 a0 08  	bge	zero, a0, 0x186a4 <jinit_d_coef_controller+0xdc>
   1861c: 03 bb 84 12  	ld	s6, 0x128(s1)
   18620: 13 0a 00 00  	addi	s4, zero, 0x0
   18624: 93 0a 84 08  	addi	s5, s0, 0x88
   18628: 13 0b cb 01  	addi	s6, s6, 0x1c
   1862c: 03 a5 04 13  	lw	a0, 0x130(s1)
   18630: 03 26 0b ff  	lw	a2, -0x10(s6)
   18634: 83 b5 84 00  	ld	a1, 0x8(s1)
   18638: 93 36 15 00  	sltiu	a3, a0, 0x1
   1863c: 13 17 16 00  	slli	a4, a2, 0x1
   18640: 83 bb 85 02  	ld	s7, 0x28(a1)
   18644: 03 65 0b 00  	lwu	a0, 0x0(s6)
   18648: 83 25 cb fe  	lw	a1, -0x14(s6)
   1864c: 93 86 f6 ff  	addi	a3, a3, -0x1
   18650: b3 f6 e6 00  	and	a3, a3, a4
   18654: 3b 09 d6 00  	addw	s2, a2, a3
   18658: ef 60 80 52  	jal	ra, 0x1eb80 <jround_up>
   1865c: 03 66 4b 00  	lwu	a2, 0x4(s6)
   18660: 83 25 0b ff  	lw	a1, -0x10(s6)
   18664: 93 09 05 00  	addi	s3, a0, 0x0
   18668: 13 05 06 00  	addi	a0, a2, 0x0
   1866c: ef 60 40 51  	jal	ra, 0x1eb80 <jround_up>
   18670: 9b 86 09 00  	addiw	a3, s3, 0x0
   18674: 1b 07 05 00  	addiw	a4, a0, 0x0
   18678: 93 05 10 00  	addi	a1, zero, 0x1
   1867c: 13 06 10 00  	addi	a2, zero, 0x1
   18680: 13 85 04 00  	addi	a0, s1, 0x0
   18684: 93 07 09 00  	addi	a5, s2, 0x0
   18688: e7 80 0b 00  	jalr	ra, 0x0(s7)
   1868c: 83 a5 04 03  	lw	a1, 0x30(s1)
   18690: 23 b0 aa 00  	sd	a0, 0x0(s5)
   18694: 13 0a 1a 00  	addi	s4, s4, 0x1
   18698: 93 8a 8a 00  	addi	s5, s5, 0x8
   1869c: 13 0b 0b 06  	addi	s6, s6, 0x60
   186a0: e3 46 ba f8  	blt	s4, a1, 0x1862c <jinit_d_coef_controller+0x64>
   186a4: 13 05 84 08  	addi	a0, s0, 0x88
   186a8: b7 95 01 00  	lui	a1, 0x19
   186ac: 93 85 85 85  	addi	a1, a1, -0x7a8
   186b0: 23 34 b4 00  	sd	a1, 0x8(s0)
   186b4: b7 95 01 00  	lui	a1, 0x19
   186b8: 93 85 05 a4  	addi	a1, a1, -0x5c0
   186bc: 6f 00 c0 04  	jal	zero, 0x18708 <jinit_d_coef_controller+0x140>
   186c0: 03 b5 84 00  	ld	a0, 0x8(s1)
   186c4: 83 36 85 00  	ld	a3, 0x8(a0)
   186c8: 93 05 10 00  	addi	a1, zero, 0x1
   186cc: 13 06 00 50  	addi	a2, zero, 0x500
   186d0: 13 85 04 00  	addi	a0, s1, 0x0
   186d4: e7 80 06 00  	jalr	ra, 0x0(a3)
   186d8: 93 05 84 03  	addi	a1, s0, 0x38
   186dc: 13 06 84 08  	addi	a2, s0, 0x88
   186e0: 23 b0 a5 00  	sd	a0, 0x0(a1)
   186e4: 93 85 85 00  	addi	a1, a1, 0x8
   186e8: 13 05 05 08  	addi	a0, a0, 0x80
   186ec: e3 9a c5 fe  	bne	a1, a2, 0x186e0 <jinit_d_coef_controller+0x118>
   186f0: 13 05 00 00  	addi	a0, zero, 0x0
   186f4: b7 95 01 00  	lui	a1, 0x19
   186f8: 93 85 85 bd  	addi	a1, a1, -0x428
   186fc: 23 34 b4 00  	sd	a1, 0x8(s0)
   18700: b7 95 01 00  	lui	a1, 0x19
   18704: 93 85 05 be  	addi	a1, a1, -0x420
   18708: 23 3c b4 00  	sd	a1, 0x18(s0)
   1870c: 23 30 a4 02  	sd	a0, 0x20(s0)
   18710: 6f b0 21 7c  	jal	zero, 0x33ed2 <__riscv_restore_9>

0000000000018714 <start_input_pass>:
   18714: 23 24 05 0a  	sw	zero, 0xa8(a0)
   18718: 6f 00 c0 71  	jal	zero, 0x18e34 <start_iMCU_row>

000000000001871c <start_output_pass>:
   1871c: ef b2 41 77  	jal	t0, 0x33e90 <__riscv_save_9>
   18720: 13 04 05 00  	addi	s0, a0, 0x0
   18724: 83 39 05 22  	ld	s3, 0x220(a0)
   18728: 03 b5 09 02  	ld	a0, 0x20(s3)
   1872c: 63 02 05 12  	beq	a0, zero, 0x18850 <start_output_pass+0x134>
   18730: 03 25 04 06  	lw	a0, 0x60(s0)
   18734: 63 08 05 10  	beq	a0, zero, 0x18844 <start_output_pass+0x128>
   18738: 03 25 04 13  	lw	a0, 0x130(s0)
   1873c: 63 04 05 10  	beq	a0, zero, 0x18844 <start_output_pass+0x128>
   18740: 03 35 84 0b  	ld	a0, 0xb8(s0)
   18744: 63 00 05 10  	beq	a0, zero, 0x18844 <start_output_pass+0x128>
   18748: 83 b4 89 0d  	ld	s1, 0xd8(s3)
   1874c: 63 98 04 02  	bne	s1, zero, 0x1877c <start_output_pass+0x60>
   18750: 03 35 84 00  	ld	a0, 0x8(s0)
   18754: 83 34 05 00  	ld	s1, 0x0(a0)
   18758: 03 25 04 03  	lw	a0, 0x30(s0)
   1875c: 93 05 80 01  	addi	a1, zero, 0x18
   18760: ef b0 41 79  	jal	ra, 0x33ef4 <__muldi3>
   18764: 13 06 05 00  	addi	a2, a0, 0x0
   18768: 93 05 10 00  	addi	a1, zero, 0x1
   1876c: 13 05 04 00  	addi	a0, s0, 0x0
   18770: e7 80 04 00  	jalr	ra, 0x0(s1)
   18774: 93 04 05 00  	addi	s1, a0, 0x0
   18778: 23 bc a9 0c  	sd	a0, 0xd8(s3)
   1877c: 03 25 04 03  	lw	a0, 0x30(s0)
   18780: 63 52 a0 0c  	bge	zero, a0, 0x18844 <start_output_pass+0x128>
   18784: 03 3a 84 12  	ld	s4, 0x128(s0)
   18788: 13 09 00 00  	addi	s2, zero, 0x0
   1878c: 93 0a 00 00  	addi	s5, zero, 0x0
   18790: 13 8b 44 00  	addi	s6, s1, 0x4
   18794: 93 0b 40 00  	addi	s7, zero, 0x4
   18798: 93 05 80 01  	addi	a1, zero, 0x18
   1879c: 13 05 09 00  	addi	a0, s2, 0x0
   187a0: ef b0 41 75  	jal	ra, 0x33ef4 <__muldi3>
   187a4: 83 35 0a 05  	ld	a1, 0x50(s4)
   187a8: 63 8e 05 08  	beq	a1, zero, 0x18844 <start_output_pass+0x128>
   187ac: 03 d6 05 00  	lhu	a2, 0x0(a1)
   187b0: 63 0a 06 08  	beq	a2, zero, 0x18844 <start_output_pass+0x128>
   187b4: 03 d6 25 00  	lhu	a2, 0x2(a1)
   187b8: 63 06 06 08  	beq	a2, zero, 0x18844 <start_output_pass+0x128>
   187bc: 03 d6 05 01  	lhu	a2, 0x10(a1)
   187c0: 63 02 06 08  	beq	a2, zero, 0x18844 <start_output_pass+0x128>
   187c4: 03 d6 05 02  	lhu	a2, 0x20(a1)
   187c8: 63 0e 06 06  	beq	a2, zero, 0x18844 <start_output_pass+0x128>
   187cc: 03 d6 25 01  	lhu	a2, 0x12(a1)
   187d0: 63 0a 06 06  	beq	a2, zero, 0x18844 <start_output_pass+0x128>
   187d4: 83 d5 45 00  	lhu	a1, 0x4(a1)
   187d8: 63 86 05 06  	beq	a1, zero, 0x18844 <start_output_pass+0x128>
   187dc: 83 35 84 0b  	ld	a1, 0xb8(s0)
   187e0: 13 16 89 00  	slli	a2, s2, 0x8
   187e4: 33 86 c5 00  	add	a2, a1, a2
   187e8: 03 26 06 00  	lw	a2, 0x0(a2)
   187ec: 63 4c 06 04  	blt	a2, zero, 0x18844 <start_output_pass+0x128>
   187f0: 33 05 95 00  	add	a0, a0, s1
   187f4: 13 05 85 01  	addi	a0, a0, 0x18
   187f8: b3 85 75 01  	add	a1, a1, s7
   187fc: 13 06 0b 00  	addi	a2, s6, 0x0
   18800: 83 a6 05 00  	lw	a3, 0x0(a1)
   18804: 23 20 d6 00  	sw	a3, 0x0(a2)
   18808: 63 84 06 00  	beq	a3, zero, 0x18810 <start_output_pass+0xf4>
   1880c: 93 0a 10 00  	addi	s5, zero, 0x1
   18810: 13 06 46 00  	addi	a2, a2, 0x4
   18814: 93 85 45 00  	addi	a1, a1, 0x4
   18818: e3 14 a6 fe  	bne	a2, a0, 0x18800 <start_output_pass+0xe4>
   1881c: 03 25 04 03  	lw	a0, 0x30(s0)
   18820: 13 09 19 00  	addi	s2, s2, 0x1
   18824: 13 0a 0a 06  	addi	s4, s4, 0x60
   18828: 13 0b 8b 01  	addi	s6, s6, 0x18
   1882c: 93 8b 0b 10  	addi	s7, s7, 0x100
   18830: e3 44 a9 f6  	blt	s2, a0, 0x18798 <start_output_pass+0x7c>
   18834: 63 88 0a 00  	beq	s5, zero, 0x18844 <start_output_pass+0x128>
   18838: 37 95 01 00  	lui	a0, 0x19
   1883c: 13 05 85 e7  	addi	a0, a0, -0x188
   18840: 6f 00 c0 00  	jal	zero, 0x1884c <start_output_pass+0x130>
   18844: 37 95 01 00  	lui	a0, 0x19
   18848: 13 05 05 a4  	addi	a0, a0, -0x5c0
   1884c: 23 bc a9 00  	sd	a0, 0x18(s3)
   18850: 23 28 04 0a  	sw	zero, 0xb0(s0)
   18854: 6f b0 e1 67  	jal	zero, 0x33ed2 <__riscv_restore_9>

0000000000018858 <consume_data>:
   18858: ef b2 61 62  	jal	t0, 0x33e7e <__riscv_save_12>
   1885c: 13 01 01 fd  	addi	sp, sp, -0x30
   18860: 13 04 05 00  	addi	s0, a0, 0x0
   18864: 03 25 05 1a  	lw	a0, 0x1a0(a0)
   18868: 03 3c 04 22  	ld	s8, 0x220(s0)
   1886c: 63 56 a0 06  	bge	zero, a0, 0x188d8 <consume_data+0x80>
   18870: 93 09 00 00  	addi	s3, zero, 0x0
   18874: 93 0a 84 1a  	addi	s5, s0, 0x1a8
   18878: 13 0b 01 01  	addi	s6, sp, 0x10
   1887c: 03 b5 0a 00  	ld	a0, 0x0(s5)
   18880: 83 35 84 00  	ld	a1, 0x8(s0)
   18884: 03 26 45 00  	lw	a2, 0x4(a0)
   18888: 03 ba 05 04  	ld	s4, 0x40(a1)
   1888c: 13 16 36 00  	slli	a2, a2, 0x3
   18890: 33 06 cc 00  	add	a2, s8, a2
   18894: 83 34 86 08  	ld	s1, 0x88(a2)
   18898: 83 25 84 0a  	lw	a1, 0xa8(s0)
   1889c: 03 29 c5 00  	lw	s2, 0xc(a0)
   188a0: 13 05 09 00  	addi	a0, s2, 0x0
   188a4: ef b0 01 65  	jal	ra, 0x33ef4 <__muldi3>
   188a8: 1b 06 05 00  	addiw	a2, a0, 0x0
   188ac: 13 07 10 00  	addi	a4, zero, 0x1
   188b0: 13 05 04 00  	addi	a0, s0, 0x0
   188b4: 93 85 04 00  	addi	a1, s1, 0x0
   188b8: 93 06 09 00  	addi	a3, s2, 0x0
   188bc: e7 00 0a 00  	jalr	ra, 0x0(s4)
   188c0: 83 25 04 1a  	lw	a1, 0x1a0(s0)
   188c4: 23 30 ab 00  	sd	a0, 0x0(s6)
   188c8: 93 89 19 00  	addi	s3, s3, 0x1
   188cc: 13 0b 8b 00  	addi	s6, s6, 0x8
   188d0: 93 8a 8a 00  	addi	s5, s5, 0x8
   188d4: e3 c4 b9 fa  	blt	s3, a1, 0x1887c <consume_data+0x24>
   188d8: 03 26 cc 02  	lw	a2, 0x2c(s8)
   188dc: 03 25 0c 03  	lw	a0, 0x30(s8)
   188e0: 63 56 a6 10  	bge	a2, a0, 0x189ec <consume_data+0x194>
   188e4: 03 29 8c 02  	lw	s2, 0x28(s8)
   188e8: 83 25 84 1c  	lw	a1, 0x1c8(s0)
   188ec: 93 04 8c 03  	addi	s1, s8, 0x38
   188f0: 13 0b 0c 04  	addi	s6, s8, 0x40
   188f4: 93 0b 01 01  	addi	s7, sp, 0x10
   188f8: 23 30 81 01  	sd	s8, 0x0(sp)
   188fc: 63 70 b9 0e  	bgeu	s2, a1, 0x189dc <consume_data+0x184>
   18900: 23 34 c1 00  	sd	a2, 0x8(sp)
   18904: 13 1c 36 00  	slli	s8, a2, 0x3
   18908: 83 2c 04 1a  	lw	s9, 0x1a0(s0)
   1890c: 63 50 90 0b  	bge	zero, s9, 0x189ac <consume_data+0x154>
   18910: 13 0d 00 00  	addi	s10, zero, 0x0
   18914: 93 0d 00 00  	addi	s11, zero, 0x0
   18918: 13 1a 3d 00  	slli	s4, s10, 0x3
   1891c: 33 05 44 01  	add	a0, s0, s4
   18920: 03 35 85 1a  	ld	a0, 0x1a8(a0)
   18924: 83 2a 85 03  	lw	s5, 0x38(a0)
   18928: 63 5e 50 07  	bge	zero, s5, 0x189a4 <consume_data+0x14c>
   1892c: 83 29 45 03  	lw	s3, 0x34(a0)
   18930: 13 85 09 00  	addi	a0, s3, 0x0
   18934: 93 05 09 00  	addi	a1, s2, 0x0
   18938: ef b0 c1 5b  	jal	ra, 0x33ef4 <__muldi3>
   1893c: 33 8a 4b 01  	add	s4, s7, s4
   18940: 03 36 0a 00  	ld	a2, 0x0(s4)
   18944: 93 05 00 00  	addi	a1, zero, 0x0
   18948: 13 15 05 02  	slli	a0, a0, 0x20
   1894c: 93 56 05 02  	srli	a3, a0, 0x20
   18950: 33 05 86 01  	add	a0, a2, s8
   18954: 13 86 f9 ff  	addi	a2, s3, -0x1
   18958: 13 16 06 02  	slli	a2, a2, 0x20
   1895c: 13 56 d6 01  	srli	a2, a2, 0x1d
   18960: 33 06 cb 00  	add	a2, s6, a2
   18964: 93 96 76 00  	slli	a3, a3, 0x7
   18968: 63 5a 30 03  	bge	zero, s3, 0x1899c <consume_data+0x144>
   1896c: 13 97 35 00  	slli	a4, a1, 0x3
   18970: 33 07 e5 00  	add	a4, a0, a4
   18974: 03 38 07 00  	ld	a6, 0x0(a4)
   18978: 93 97 3d 00  	slli	a5, s11, 0x3
   1897c: 33 07 f6 00  	add	a4, a2, a5
   18980: 33 08 d8 00  	add	a6, a6, a3
   18984: b3 87 f4 00  	add	a5, s1, a5
   18988: bb 8d b9 01  	addw	s11, s3, s11
   1898c: 23 b0 07 01  	sd	a6, 0x0(a5)
   18990: 13 08 08 08  	addi	a6, a6, 0x80
   18994: 93 87 87 00  	addi	a5, a5, 0x8
   18998: e3 9a e7 fe  	bne	a5, a4, 0x1898c <consume_data+0x134>
   1899c: 93 85 15 00  	addi	a1, a1, 0x1
   189a0: e3 94 55 fd  	bne	a1, s5, 0x18968 <consume_data+0x110>
   189a4: 13 0d 1d 00  	addi	s10, s10, 0x1
   189a8: e3 18 9d f7  	bne	s10, s9, 0x18918 <consume_data+0xc0>
   189ac: 03 35 04 24  	ld	a0, 0x240(s0)
   189b0: 03 36 85 00  	ld	a2, 0x8(a0)
   189b4: 13 05 04 00  	addi	a0, s0, 0x0
   189b8: 93 85 04 00  	addi	a1, s1, 0x0
   189bc: e7 00 06 00  	jalr	ra, 0x0(a2)
   189c0: 63 08 05 04  	beq	a0, zero, 0x18a10 <consume_data+0x1b8>
   189c4: 83 25 84 1c  	lw	a1, 0x1c8(s0)
   189c8: 1b 09 19 00  	addiw	s2, s2, 0x1
   189cc: e3 6e b9 f2  	bltu	s2, a1, 0x18908 <consume_data+0xb0>
   189d0: 03 3c 01 00  	ld	s8, 0x0(sp)
   189d4: 03 25 0c 03  	lw	a0, 0x30(s8)
   189d8: 03 36 81 00  	ld	a2, 0x8(sp)
   189dc: 13 09 00 00  	addi	s2, zero, 0x0
   189e0: 13 06 16 00  	addi	a2, a2, 0x1
   189e4: 23 24 0c 02  	sw	zero, 0x28(s8)
   189e8: e3 4a a6 f0  	blt	a2, a0, 0x188fc <consume_data+0xa4>
   189ec: 03 25 84 0a  	lw	a0, 0xa8(s0)
   189f0: 83 25 04 19  	lw	a1, 0x190(s0)
   189f4: 1b 05 15 00  	addiw	a0, a0, 0x1
   189f8: 23 24 a4 0a  	sw	a0, 0xa8(s0)
   189fc: 63 74 b5 02  	bgeu	a0, a1, 0x18a24 <consume_data+0x1cc>
   18a00: 13 05 04 00  	addi	a0, s0, 0x0
   18a04: ef 00 00 43  	jal	ra, 0x18e34 <start_iMCU_row>
   18a08: 13 05 30 00  	addi	a0, zero, 0x3
   18a0c: 6f 00 c0 02  	jal	zero, 0x18a38 <consume_data+0x1e0>
   18a10: 83 35 01 00  	ld	a1, 0x0(sp)
   18a14: 03 36 81 00  	ld	a2, 0x8(sp)
   18a18: 23 a6 c5 02  	sw	a2, 0x2c(a1)
   18a1c: 23 a4 25 03  	sw	s2, 0x28(a1)
   18a20: 6f 00 80 01  	jal	zero, 0x18a38 <consume_data+0x1e0>
   18a24: 03 35 04 23  	ld	a0, 0x230(s0)
   18a28: 83 35 85 01  	ld	a1, 0x18(a0)
   18a2c: 13 05 04 00  	addi	a0, s0, 0x0
   18a30: e7 80 05 00  	jalr	ra, 0x0(a1)
   18a34: 13 05 40 00  	addi	a0, zero, 0x4
   18a38: 13 01 01 03  	addi	sp, sp, 0x30
   18a3c: 6f b0 c1 48  	jal	zero, 0x33ec8 <__riscv_restore_12>

0000000000018a40 <decompress_data>:
   18a40: ef b2 e1 43  	jal	t0, 0x33e7e <__riscv_save_12>
   18a44: 13 01 01 ff  	addi	sp, sp, -0x10
   18a48: 13 04 05 00  	addi	s0, a0, 0x0
   18a4c: 03 2c 05 19  	lw	s8, 0x190(a0)
   18a50: 03 35 05 22  	ld	a0, 0x220(a0)
   18a54: 23 34 a1 00  	sd	a0, 0x8(sp)
   18a58: 23 30 b1 00  	sd	a1, 0x0(sp)
   18a5c: 1b 0c fc ff  	addiw	s8, s8, -0x1
   18a60: 03 25 44 0a  	lw	a0, 0xa4(s0)
   18a64: 83 25 c4 0a  	lw	a1, 0xac(s0)
   18a68: 63 4a b5 00  	blt	a0, a1, 0x18a7c <decompress_data+0x3c>
   18a6c: 63 14 b5 02  	bne	a0, a1, 0x18a94 <decompress_data+0x54>
   18a70: 03 25 84 0a  	lw	a0, 0xa8(s0)
   18a74: 83 25 04 0b  	lw	a1, 0xb0(s0)
   18a78: 63 ee a5 00  	bltu	a1, a0, 0x18a94 <decompress_data+0x54>
   18a7c: 03 35 04 23  	ld	a0, 0x230(s0)
   18a80: 83 35 05 00  	ld	a1, 0x0(a0)
   18a84: 13 05 04 00  	addi	a0, s0, 0x0
   18a88: e7 80 05 00  	jalr	ra, 0x0(a1)
   18a8c: e3 1a 05 fc  	bne	a0, zero, 0x18a60 <decompress_data+0x20>
   18a90: 6f 00 00 14  	jal	zero, 0x18bd0 <decompress_data+0x190>
   18a94: 03 25 04 03  	lw	a0, 0x30(s0)
   18a98: 63 5e a0 10  	bge	zero, a0, 0x18bb4 <decompress_data+0x174>
   18a9c: 03 39 84 12  	ld	s2, 0x128(s0)
   18aa0: 93 0c 00 00  	addi	s9, zero, 0x0
   18aa4: 03 25 09 03  	lw	a0, 0x30(s2)
   18aa8: 63 0e 05 0e  	beq	a0, zero, 0x18ba4 <decompress_data+0x164>
   18aac: 03 35 84 00  	ld	a0, 0x8(s0)
   18ab0: 83 3a 05 04  	ld	s5, 0x40(a0)
   18ab4: 93 94 3c 00  	slli	s1, s9, 0x3
   18ab8: 03 35 81 00  	ld	a0, 0x8(sp)
   18abc: 33 05 95 00  	add	a0, a0, s1
   18ac0: 83 39 85 08  	ld	s3, 0x88(a0)
   18ac4: 83 25 04 0b  	lw	a1, 0xb0(s0)
   18ac8: 03 2a c9 00  	lw	s4, 0xc(s2)
   18acc: 13 05 0a 00  	addi	a0, s4, 0x0
   18ad0: ef b0 41 42  	jal	ra, 0x33ef4 <__muldi3>
   18ad4: 1b 06 05 00  	addiw	a2, a0, 0x0
   18ad8: 13 05 04 00  	addi	a0, s0, 0x0
   18adc: 93 85 09 00  	addi	a1, s3, 0x0
   18ae0: 93 06 0a 00  	addi	a3, s4, 0x0
   18ae4: 13 07 00 00  	addi	a4, zero, 0x0
   18ae8: e7 80 0a 00  	jalr	ra, 0x0(s5)
   18aec: 83 25 04 0b  	lw	a1, 0xb0(s0)
   18af0: 93 09 05 00  	addi	s3, a0, 0x0
   18af4: 63 f6 85 01  	bgeu	a1, s8, 0x18b00 <decompress_data+0xc0>
   18af8: 03 2d c9 00  	lw	s10, 0xc(s2)
   18afc: 6f 00 00 02  	jal	zero, 0x18b1c <decompress_data+0xdc>
   18b00: 03 2d c9 00  	lw	s10, 0xc(s2)
   18b04: 03 65 09 02  	lwu	a0, 0x20(s2)
   18b08: 93 15 0d 02  	slli	a1, s10, 0x20
   18b0c: 93 d5 05 02  	srli	a1, a1, 0x20
   18b10: ef b0 81 45  	jal	ra, 0x33f68 <__umoddi3>
   18b14: 63 04 05 00  	beq	a0, zero, 0x18b1c <decompress_data+0xdc>
   18b18: 13 0d 05 00  	addi	s10, a0, 0x0
   18b1c: 1b 0d 0d 00  	addiw	s10, s10, 0x0
   18b20: 63 52 a0 09  	bge	zero, s10, 0x18ba4 <decompress_data+0x164>
   18b24: 03 35 84 24  	ld	a0, 0x248(s0)
   18b28: 33 05 95 00  	add	a0, a0, s1
   18b2c: 83 3d 85 00  	ld	s11, 0x8(a0)
   18b30: 03 35 01 00  	ld	a0, 0x0(sp)
   18b34: b3 04 95 00  	add	s1, a0, s1
   18b38: 03 ba 04 00  	ld	s4, 0x0(s1)
   18b3c: 03 25 c9 01  	lw	a0, 0x1c(s2)
   18b40: 93 04 00 00  	addi	s1, zero, 0x0
   18b44: 63 06 05 04  	beq	a0, zero, 0x18b90 <decompress_data+0x150>
   18b48: 13 95 34 00  	slli	a0, s1, 0x3
   18b4c: 33 85 a9 00  	add	a0, s3, a0
   18b50: 83 3a 05 00  	ld	s5, 0x0(a0)
   18b54: 13 0b 00 00  	addi	s6, zero, 0x0
   18b58: 93 0b 00 00  	addi	s7, zero, 0x0
   18b5c: 13 05 04 00  	addi	a0, s0, 0x0
   18b60: 93 05 09 00  	addi	a1, s2, 0x0
   18b64: 13 86 0a 00  	addi	a2, s5, 0x0
   18b68: 93 06 0a 00  	addi	a3, s4, 0x0
   18b6c: 13 07 0b 00  	addi	a4, s6, 0x0
   18b70: e7 80 0d 00  	jalr	ra, 0x0(s11)
   18b74: 83 25 49 02  	lw	a1, 0x24(s2)
   18b78: 03 25 c9 01  	lw	a0, 0x1c(s2)
   18b7c: 93 8a 0a 08  	addi	s5, s5, 0x80
   18b80: 9b 8b 1b 00  	addiw	s7, s7, 0x1
   18b84: 3b 8b 65 01  	addw	s6, a1, s6
   18b88: e3 ea ab fc  	bltu	s7, a0, 0x18b5c <decompress_data+0x11c>
   18b8c: 6f 00 80 00  	jal	zero, 0x18b94 <decompress_data+0x154>
   18b90: 83 25 49 02  	lw	a1, 0x24(s2)
   18b94: 93 95 35 00  	slli	a1, a1, 0x3
   18b98: 93 84 14 00  	addi	s1, s1, 0x1
   18b9c: 33 0a ba 00  	add	s4, s4, a1
   18ba0: e3 92 a4 fb  	bne	s1, s10, 0x18b44 <decompress_data+0x104>
   18ba4: 03 25 04 03  	lw	a0, 0x30(s0)
   18ba8: 93 8c 1c 00  	addi	s9, s9, 0x1
   18bac: 13 09 09 06  	addi	s2, s2, 0x60
   18bb0: e3 ca ac ee  	blt	s9, a0, 0x18aa4 <decompress_data+0x64>
   18bb4: 03 25 04 0b  	lw	a0, 0xb0(s0)
   18bb8: 83 25 04 19  	lw	a1, 0x190(s0)
   18bbc: 1b 05 15 00  	addiw	a0, a0, 0x1
   18bc0: 23 28 a4 0a  	sw	a0, 0xb0(s0)
   18bc4: 33 35 b5 00  	sltu	a0, a0, a1
   18bc8: 93 05 40 00  	addi	a1, zero, 0x4
   18bcc: 33 85 a5 40  	sub	a0, a1, a0
   18bd0: 13 01 01 01  	addi	sp, sp, 0x10
   18bd4: 6f b0 41 2f  	jal	zero, 0x33ec8 <__riscv_restore_12>

0000000000018bd8 <dummy_consume_data>:
   18bd8: 13 05 00 00  	addi	a0, zero, 0x0
   18bdc: 67 80 00 00  	jalr	zero, 0x0(ra)

0000000000018be0 <decompress_onepass>:
   18be0: ef b2 e1 29  	jal	t0, 0x33e7e <__riscv_save_12>
   18be4: 13 01 01 fb  	addi	sp, sp, -0x50
   18be8: 13 04 05 00  	addi	s0, a0, 0x0
   18bec: 83 34 05 22  	ld	s1, 0x220(a0)
   18bf0: 03 a6 c4 02  	lw	a2, 0x2c(s1)
   18bf4: 03 a5 04 03  	lw	a0, 0x30(s1)
   18bf8: 83 2d 04 19  	lw	s11, 0x190(s0)
   18bfc: 23 38 b1 00  	sd	a1, 0x10(sp)
   18c00: 23 38 c1 02  	sd	a2, 0x30(sp)
   18c04: 63 5c a6 1c  	bge	a2, a0, 0x18ddc <decompress_onepass+0x1fc>
   18c08: 83 25 84 1c  	lw	a1, 0x1c8(s0)
   18c0c: 03 aa 84 02  	lw	s4, 0x28(s1)
   18c10: 9b 85 f5 ff  	addiw	a1, a1, -0x1
   18c14: 23 30 b1 02  	sd	a1, 0x20(sp)
   18c18: 9b 8d fd ff  	addiw	s11, s11, -0x1
   18c1c: 23 34 b1 05  	sd	s11, 0x48(sp)
   18c20: 93 85 84 03  	addi	a1, s1, 0x38
   18c24: 23 3c b1 02  	sd	a1, 0x38(sp)
   18c28: 23 34 91 00  	sd	s1, 0x8(sp)
   18c2c: 83 35 01 02  	ld	a1, 0x20(sp)
   18c30: 63 e8 45 19  	bltu	a1, s4, 0x18dc0 <decompress_onepass+0x1e0>
   18c34: 83 25 04 1d  	lw	a1, 0x1d0(s0)
   18c38: 03 39 81 03  	ld	s2, 0x38(sp)
   18c3c: 03 35 09 00  	ld	a0, 0x0(s2)
   18c40: 93 95 75 00  	slli	a1, a1, 0x7
   18c44: ef 50 90 7d  	jal	ra, 0x1ec1c <jzero_far>
   18c48: 03 35 04 24  	ld	a0, 0x240(s0)
   18c4c: 03 36 85 00  	ld	a2, 0x8(a0)
   18c50: 13 05 04 00  	addi	a0, s0, 0x0
   18c54: 93 05 09 00  	addi	a1, s2, 0x0
   18c58: e7 00 06 00  	jalr	ra, 0x0(a2)
   18c5c: 63 06 05 1a  	beq	a0, zero, 0x18e08 <decompress_onepass+0x228>
   18c60: 83 29 04 1a  	lw	s3, 0x1a0(s0)
   18c64: 63 54 30 15  	bge	zero, s3, 0x18dac <decompress_onepass+0x1cc>
   18c68: 13 0b 00 00  	addi	s6, zero, 0x0
   18c6c: 13 09 00 00  	addi	s2, zero, 0x0
   18c70: 23 3c 41 01  	sd	s4, 0x18(sp)
   18c74: 93 1b 3b 00  	slli	s7, s6, 0x3
   18c78: 33 05 74 01  	add	a0, s0, s7
   18c7c: 83 3a 85 1a  	ld	s5, 0x1a8(a0)
   18c80: 03 a5 0a 03  	lw	a0, 0x30(s5)
   18c84: 63 0c 05 10  	beq	a0, zero, 0x18d9c <decompress_onepass+0x1bc>
   18c88: 03 a5 4a 00  	lw	a0, 0x4(s5)
   18c8c: 83 35 84 24  	ld	a1, 0x248(s0)
   18c90: 13 15 35 00  	slli	a0, a0, 0x3
   18c94: 33 85 a5 00  	add	a0, a1, a0
   18c98: 03 3d 85 00  	ld	s10, 0x8(a0)
   18c9c: 03 a5 0a 04  	lw	a0, 0x40(s5)
   18ca0: 93 05 0a 00  	addi	a1, s4, 0x0
   18ca4: ef b0 01 25  	jal	ra, 0x33ef4 <__muldi3>
   18ca8: 83 a4 8a 03  	lw	s1, 0x38(s5)
   18cac: 23 30 a1 04  	sd	a0, 0x40(sp)
   18cb0: 63 5a 90 0e  	bge	zero, s1, 0x18da4 <decompress_onepass+0x1c4>
   18cb4: 23 34 61 03  	sd	s6, 0x28(sp)
   18cb8: 13 05 40 03  	addi	a0, zero, 0x34
   18cbc: 83 35 01 02  	ld	a1, 0x20(sp)
   18cc0: 63 64 ba 00  	bltu	s4, a1, 0x18cc8 <decompress_onepass+0xe8>
   18cc4: 13 05 40 04  	addi	a0, zero, 0x44
   18cc8: 33 85 aa 00  	add	a0, s5, a0
   18ccc: 03 2a 05 00  	lw	s4, 0x0(a0)
   18cd0: 03 35 01 01  	ld	a0, 0x10(sp)
   18cd4: b3 0b 75 01  	add	s7, a0, s7
   18cd8: 03 bc 0b 00  	ld	s8, 0x0(s7)
   18cdc: 83 ab 4a 02  	lw	s7, 0x24(s5)
   18ce0: 13 85 0b 00  	addi	a0, s7, 0x0
   18ce4: 83 35 01 03  	ld	a1, 0x30(sp)
   18ce8: ef b0 c1 20  	jal	ra, 0x33ef4 <__muldi3>
   18cec: 93 05 0a 00  	addi	a1, s4, 0x0
   18cf0: 63 44 40 01  	blt	zero, s4, 0x18cf8 <decompress_onepass+0x118>
   18cf4: 93 05 10 00  	addi	a1, zero, 0x1
   18cf8: 93 09 00 00  	addi	s3, zero, 0x0
   18cfc: 1b 05 05 00  	addiw	a0, a0, 0x0
   18d00: 13 15 35 00  	slli	a0, a0, 0x3
   18d04: 33 0c ac 00  	add	s8, s8, a0
   18d08: 93 95 35 00  	slli	a1, a1, 0x3
   18d0c: 83 3d 81 03  	ld	s11, 0x38(sp)
   18d10: b3 8d bd 00  	add	s11, s11, a1
   18d14: 03 25 84 0a  	lw	a0, 0xa8(s0)
   18d18: 83 35 81 04  	ld	a1, 0x48(sp)
   18d1c: 63 6a b5 00  	bltu	a0, a1, 0x18d30 <decompress_onepass+0x150>
   18d20: 03 a5 8a 04  	lw	a0, 0x48(s5)
   18d24: 83 35 01 03  	ld	a1, 0x30(sp)
   18d28: bb 85 b9 00  	addw	a1, s3, a1
   18d2c: 63 d4 a5 04  	bge	a1, a0, 0x18d74 <decompress_onepass+0x194>
   18d30: 63 52 40 05  	bge	zero, s4, 0x18d74 <decompress_onepass+0x194>
   18d34: 93 1c 39 00  	slli	s9, s2, 0x3
   18d38: 83 34 81 03  	ld	s1, 0x38(sp)
   18d3c: b3 84 94 01  	add	s1, s1, s9
   18d40: b3 8c 9d 01  	add	s9, s11, s9
   18d44: 03 3b 01 04  	ld	s6, 0x40(sp)
   18d48: 03 b6 04 00  	ld	a2, 0x0(s1)
   18d4c: 1b 07 0b 00  	addiw	a4, s6, 0x0
   18d50: 13 05 04 00  	addi	a0, s0, 0x0
   18d54: 93 85 0a 00  	addi	a1, s5, 0x0
   18d58: 93 06 0c 00  	addi	a3, s8, 0x0
   18d5c: e7 00 0d 00  	jalr	ra, 0x0(s10)
   18d60: 83 ab 4a 02  	lw	s7, 0x24(s5)
   18d64: 93 84 84 00  	addi	s1, s1, 0x8
   18d68: 33 8b 6b 01  	add	s6, s7, s6
   18d6c: e3 9e 94 fd  	bne	s1, s9, 0x18d48 <decompress_onepass+0x168>
   18d70: 83 a4 8a 03  	lw	s1, 0x38(s5)
   18d74: 03 a5 4a 03  	lw	a0, 0x34(s5)
   18d78: 3b 09 25 01  	addw	s2, a0, s2
   18d7c: 13 95 3b 00  	slli	a0, s7, 0x3
   18d80: 9b 89 19 00  	addiw	s3, s3, 0x1
   18d84: 33 0c ac 00  	add	s8, s8, a0
   18d88: e3 c6 99 f8  	blt	s3, s1, 0x18d14 <decompress_onepass+0x134>
   18d8c: 83 29 04 1a  	lw	s3, 0x1a0(s0)
   18d90: 03 3a 81 01  	ld	s4, 0x18(sp)
   18d94: 03 3b 81 02  	ld	s6, 0x28(sp)
   18d98: 6f 00 c0 00  	jal	zero, 0x18da4 <decompress_onepass+0x1c4>
   18d9c: 03 a5 ca 03  	lw	a0, 0x3c(s5)
   18da0: 3b 09 25 01  	addw	s2, a0, s2
   18da4: 13 0b 1b 00  	addi	s6, s6, 0x1
   18da8: e3 46 3b ed  	blt	s6, s3, 0x18c74 <decompress_onepass+0x94>
   18dac: 1b 0a 1a 00  	addiw	s4, s4, 0x1
   18db0: 83 34 81 00  	ld	s1, 0x8(sp)
   18db4: 03 35 01 02  	ld	a0, 0x20(sp)
   18db8: e3 7e 45 e7  	bgeu	a0, s4, 0x18c34 <decompress_onepass+0x54>
   18dbc: 03 a5 04 03  	lw	a0, 0x30(s1)
   18dc0: 13 0a 00 00  	addi	s4, zero, 0x0
   18dc4: 83 35 01 03  	ld	a1, 0x30(sp)
   18dc8: 9b 85 15 00  	addiw	a1, a1, 0x1
   18dcc: 23 a4 04 02  	sw	zero, 0x28(s1)
   18dd0: 23 38 b1 02  	sd	a1, 0x30(sp)
   18dd4: e3 cc a5 e4  	blt	a1, a0, 0x18c2c <decompress_onepass+0x4c>
   18dd8: 83 2d 04 19  	lw	s11, 0x190(s0)
   18ddc: 03 25 04 0b  	lw	a0, 0xb0(s0)
   18de0: 83 25 84 0a  	lw	a1, 0xa8(s0)
   18de4: 13 05 15 00  	addi	a0, a0, 0x1
   18de8: 23 28 a4 0a  	sw	a0, 0xb0(s0)
   18dec: 9b 85 15 00  	addiw	a1, a1, 0x1
   18df0: 23 24 b4 0a  	sw	a1, 0xa8(s0)
   18df4: 63 f2 b5 03  	bgeu	a1, s11, 0x18e18 <decompress_onepass+0x238>
   18df8: 13 05 04 00  	addi	a0, s0, 0x0
   18dfc: ef 00 80 03  	jal	ra, 0x18e34 <start_iMCU_row>
   18e00: 13 05 30 00  	addi	a0, zero, 0x3
   18e04: 6f 00 80 02  	jal	zero, 0x18e2c <decompress_onepass+0x24c>
   18e08: 83 35 01 03  	ld	a1, 0x30(sp)
   18e0c: 23 a6 b4 02  	sw	a1, 0x2c(s1)
   18e10: 23 a4 44 03  	sw	s4, 0x28(s1)
   18e14: 6f 00 80 01  	jal	zero, 0x18e2c <decompress_onepass+0x24c>
   18e18: 03 35 04 23  	ld	a0, 0x230(s0)
   18e1c: 83 35 85 01  	ld	a1, 0x18(a0)
   18e20: 13 05 04 00  	addi	a0, s0, 0x0
   18e24: e7 80 05 00  	jalr	ra, 0x0(a1)
   18e28: 13 05 40 00  	addi	a0, zero, 0x4
   18e2c: 13 01 01 05  	addi	sp, sp, 0x50
   18e30: 6f b0 81 09  	jal	zero, 0x33ec8 <__riscv_restore_12>

0000000000018e34 <start_iMCU_row>:
   18e34: 03 26 05 1a  	lw	a2, 0x1a0(a0)
   18e38: 83 35 05 22  	ld	a1, 0x220(a0)
   18e3c: 93 06 20 00  	addi	a3, zero, 0x2
   18e40: 63 46 d6 00  	blt	a2, a3, 0x18e4c <start_iMCU_row+0x18>
   18e44: 13 05 10 00  	addi	a0, zero, 0x1
   18e48: 6f 00 40 02  	jal	zero, 0x18e6c <start_iMCU_row+0x38>
   18e4c: 03 26 05 19  	lw	a2, 0x190(a0)
   18e50: 83 26 85 0a  	lw	a3, 0xa8(a0)
   18e54: 03 35 85 1a  	ld	a0, 0x1a8(a0)
   18e58: 1b 06 f6 ff  	addiw	a2, a2, -0x1
   18e5c: 63 f6 c6 00  	bgeu	a3, a2, 0x18e68 <start_iMCU_row+0x34>
   18e60: 03 25 c5 00  	lw	a0, 0xc(a0)
   18e64: 6f 00 80 00  	jal	zero, 0x18e6c <start_iMCU_row+0x38>
   18e68: 03 25 85 04  	lw	a0, 0x48(a0)
   18e6c: 23 a8 a5 02  	sw	a0, 0x30(a1)
   18e70: 23 b4 05 02  	sd	zero, 0x28(a1)
   18e74: 67 80 00 00  	jalr	zero, 0x0(ra)

0000000000018e78 <decompress_smooth_data>:
   18e78: ef b2 61 00  	jal	t0, 0x33e7e <__riscv_save_12>
   18e7c: 13 01 01 e8  	addi	sp, sp, -0x180
   18e80: 13 0d 05 00  	addi	s10, a0, 0x0
   18e84: 03 25 05 19  	lw	a0, 0x190(a0)
   18e88: 03 36 0d 22  	ld	a2, 0x220(s10)
   18e8c: 23 38 c1 00  	sd	a2, 0x10(sp)
   18e90: 23 34 b1 00  	sd	a1, 0x8(sp)
   18e94: 1b 05 f5 ff  	addiw	a0, a0, -0x1
   18e98: 23 30 a1 04  	sd	a0, 0x40(sp)
   18e9c: 83 25 4d 0a  	lw	a1, 0xa4(s10)
   18ea0: 03 26 cd 0a  	lw	a2, 0xac(s10)
   18ea4: 63 40 b6 04  	blt	a2, a1, 0x18ee4 <decompress_smooth_data+0x6c>
   18ea8: 03 35 0d 23  	ld	a0, 0x230(s10)
   18eac: 83 26 45 02  	lw	a3, 0x24(a0)
   18eb0: 63 9a 06 02  	bne	a3, zero, 0x18ee4 <decompress_smooth_data+0x6c>
   18eb4: 63 9e c5 00  	bne	a1, a2, 0x18ed0 <decompress_smooth_data+0x58>
   18eb8: 83 25 cd 1f  	lw	a1, 0x1fc(s10)
   18ebc: 03 26 0d 0b  	lw	a2, 0xb0(s10)
   18ec0: 83 26 8d 0a  	lw	a3, 0xa8(s10)
   18ec4: 93 b5 15 00  	sltiu	a1, a1, 0x1
   18ec8: bb 05 b6 00  	addw	a1, a2, a1
   18ecc: 63 ec d5 00  	bltu	a1, a3, 0x18ee4 <decompress_smooth_data+0x6c>
   18ed0: 83 35 05 00  	ld	a1, 0x0(a0)
   18ed4: 13 05 0d 00  	addi	a0, s10, 0x0
   18ed8: e7 80 05 00  	jalr	ra, 0x0(a1)
   18edc: e3 10 05 fc  	bne	a0, zero, 0x18e9c <decompress_smooth_data+0x24>
   18ee0: 6f 00 00 5f  	jal	zero, 0x194d0 <decompress_smooth_data+0x658>
   18ee4: 03 25 0d 03  	lw	a0, 0x30(s10)
   18ee8: 63 56 a0 5c  	bge	zero, a0, 0x194b4 <decompress_smooth_data+0x63c>
   18eec: 83 3a 8d 12  	ld	s5, 0x128(s10)
   18ef0: 23 3c 01 00  	sd	zero, 0x18(sp)
   18ef4: 03 a5 0a 03  	lw	a0, 0x30(s5)
   18ef8: 63 02 05 5a  	beq	a0, zero, 0x1949c <decompress_smooth_data+0x624>
   18efc: 83 2b 0d 0b  	lw	s7, 0xb0(s10)
   18f00: 03 35 01 04  	ld	a0, 0x40(sp)
   18f04: 63 e4 ab 02  	bltu	s7, a0, 0x18f2c <decompress_smooth_data+0xb4>
   18f08: 03 e5 0a 02  	lwu	a0, 0x20(s5)
   18f0c: 83 e4 ca 00  	lwu	s1, 0xc(s5)
   18f10: 93 85 04 00  	addi	a1, s1, 0x0
   18f14: ef b0 41 05  	jal	ra, 0x33f68 <__umoddi3>
   18f18: 93 86 04 00  	addi	a3, s1, 0x0
   18f1c: 63 04 05 00  	beq	a0, zero, 0x18f24 <decompress_smooth_data+0xac>
   18f20: 93 06 05 00  	addi	a3, a0, 0x0
   18f24: 13 84 06 00  	addi	s0, a3, 0x0
   18f28: 6f 00 00 01  	jal	zero, 0x18f38 <decompress_smooth_data+0xc0>
   18f2c: 83 a4 ca 00  	lw	s1, 0xc(s5)
   18f30: 93 96 14 00  	slli	a3, s1, 0x1
   18f34: 13 84 04 00  	addi	s0, s1, 0x0
   18f38: 03 39 81 01  	ld	s2, 0x18(sp)
   18f3c: 13 19 39 00  	slli	s2, s2, 0x3
   18f40: 23 30 51 0d  	sd	s5, 0xc0(sp)
   18f44: 63 8a 0b 04  	beq	s7, zero, 0x18f98 <decompress_smooth_data+0x120>
   18f48: 03 35 8d 00  	ld	a0, 0x8(s10)
   18f4c: 83 3a 05 04  	ld	s5, 0x40(a0)
   18f50: 03 35 01 01  	ld	a0, 0x10(sp)
   18f54: 33 05 25 01  	add	a0, a0, s2
   18f58: 83 39 85 08  	ld	s3, 0x88(a0)
   18f5c: 3b 8a d4 00  	addw	s4, s1, a3
   18f60: 93 85 fb ff  	addi	a1, s7, -0x1
   18f64: 13 85 04 00  	addi	a0, s1, 0x0
   18f68: ef a0 d1 78  	jal	ra, 0x33ef4 <__muldi3>
   18f6c: 1b 06 05 00  	addiw	a2, a0, 0x0
   18f70: 13 05 0d 00  	addi	a0, s10, 0x0
   18f74: 93 85 09 00  	addi	a1, s3, 0x0
   18f78: 93 06 0a 00  	addi	a3, s4, 0x0
   18f7c: 13 07 00 00  	addi	a4, zero, 0x0
   18f80: e7 80 0a 00  	jalr	ra, 0x0(s5)
   18f84: 83 3a 01 0c  	ld	s5, 0xc0(sp)
   18f88: 83 a5 ca 00  	lw	a1, 0xc(s5)
   18f8c: 93 95 35 00  	slli	a1, a1, 0x3
   18f90: 33 05 b5 00  	add	a0, a0, a1
   18f94: 6f 00 c0 02  	jal	zero, 0x18fc0 <decompress_smooth_data+0x148>
   18f98: 03 35 8d 00  	ld	a0, 0x8(s10)
   18f9c: 83 37 05 04  	ld	a5, 0x40(a0)
   18fa0: 03 35 01 01  	ld	a0, 0x10(sp)
   18fa4: 33 05 25 01  	add	a0, a0, s2
   18fa8: 83 35 85 08  	ld	a1, 0x88(a0)
   18fac: 9b 86 06 00  	addiw	a3, a3, 0x0
   18fb0: 13 05 0d 00  	addi	a0, s10, 0x0
   18fb4: 13 06 00 00  	addi	a2, zero, 0x0
   18fb8: 13 07 00 00  	addi	a4, zero, 0x0
   18fbc: e7 80 07 00  	jalr	ra, 0x0(a5)
   18fc0: 23 3c a1 02  	sd	a0, 0x38(sp)
   18fc4: 1b 05 04 00  	addiw	a0, s0, 0x0
   18fc8: 23 38 a1 02  	sd	a0, 0x30(sp)
   18fcc: 63 58 a0 4c  	bge	zero, a0, 0x1949c <decompress_smooth_data+0x624>
   18fd0: 03 35 8d 24  	ld	a0, 0x248(s10)
   18fd4: 33 05 25 01  	add	a0, a0, s2
   18fd8: 83 b5 0a 05  	ld	a1, 0x50(s5)
   18fdc: 03 35 85 00  	ld	a0, 0x8(a0)
   18fe0: 23 3c a1 0a  	sd	a0, 0xb8(sp)
   18fe4: 03 35 81 00  	ld	a0, 0x8(sp)
   18fe8: 33 09 25 01  	add	s2, a0, s2
   18fec: 03 35 09 00  	ld	a0, 0x0(s2)
   18ff0: 23 38 a1 0c  	sd	a0, 0xd0(sp)
   18ff4: 03 d9 45 00  	lhu	s2, 0x4(a1)
   18ff8: 83 d9 25 01  	lhu	s3, 0x12(a1)
   18ffc: 03 da 05 02  	lhu	s4, 0x20(a1)
   19000: 83 da 05 01  	lhu	s5, 0x10(a1)
   19004: 03 db 25 00  	lhu	s6, 0x2(a1)
   19008: 83 d4 05 00  	lhu	s1, 0x0(a1)
   1900c: 03 35 01 01  	ld	a0, 0x10(sp)
   19010: 83 3d 85 0d  	ld	s11, 0xd8(a0)
   19014: 93 05 80 01  	addi	a1, zero, 0x18
   19018: 03 35 81 01  	ld	a0, 0x18(sp)
   1901c: ef a0 91 6d  	jal	ra, 0x33ef4 <__muldi3>
   19020: b3 8d ad 00  	add	s11, s11, a0
   19024: 1b 04 f4 ff  	addiw	s0, s0, -0x1
   19028: 23 30 81 02  	sd	s0, 0x20(sp)
   1902c: 93 05 40 02  	addi	a1, zero, 0x24
   19030: 13 85 04 00  	addi	a0, s1, 0x0
   19034: ef a0 11 6c  	jal	ra, 0x33ef4 <__muldi3>
   19038: 23 38 a1 0a  	sd	a0, 0xb0(sp)
   1903c: 13 07 00 00  	addi	a4, zero, 0x0
   19040: 13 15 7b 00  	slli	a0, s6, 0x7
   19044: 23 30 a1 0a  	sd	a0, 0xa0(sp)
   19048: 13 1b 8b 00  	slli	s6, s6, 0x8
   1904c: 23 3c 61 09  	sd	s6, 0x98(sp)
   19050: 13 95 7a 00  	slli	a0, s5, 0x7
   19054: 23 38 a1 08  	sd	a0, 0x90(sp)
   19058: 93 9a 8a 00  	slli	s5, s5, 0x8
   1905c: 23 34 51 09  	sd	s5, 0x88(sp)
   19060: 83 3a 01 0c  	ld	s5, 0xc0(sp)
   19064: 13 95 34 00  	slli	a0, s1, 0x3
   19068: 33 05 95 00  	add	a0, a0, s1
   1906c: 23 34 a1 0a  	sd	a0, 0xa8(sp)
   19070: 13 15 7a 00  	slli	a0, s4, 0x7
   19074: 23 30 a1 08  	sd	a0, 0x80(sp)
   19078: 13 1a 8a 00  	slli	s4, s4, 0x8
   1907c: 23 3c 41 07  	sd	s4, 0x78(sp)
   19080: 13 95 24 00  	slli	a0, s1, 0x2
   19084: 33 05 95 00  	add	a0, a0, s1
   19088: 23 38 a1 06  	sd	a0, 0x70(sp)
   1908c: 13 95 79 00  	slli	a0, s3, 0x7
   19090: 23 34 a1 06  	sd	a0, 0x68(sp)
   19094: 93 99 89 00  	slli	s3, s3, 0x8
   19098: 23 30 31 07  	sd	s3, 0x60(sp)
   1909c: 13 15 79 00  	slli	a0, s2, 0x7
   190a0: 23 3c a1 04  	sd	a0, 0x58(sp)
   190a4: 13 19 89 00  	slli	s2, s2, 0x8
   190a8: 23 38 21 05  	sd	s2, 0x50(sp)
   190ac: 23 34 71 03  	sd	s7, 0x28(sp)
   190b0: 13 16 37 00  	slli	a2, a4, 0x3
   190b4: 03 35 81 03  	ld	a0, 0x38(sp)
   190b8: 33 06 c5 00  	add	a2, a0, a2
   190bc: 03 3a 06 00  	ld	s4, 0x0(a2)
   190c0: 33 e5 eb 00  	or	a0, s7, a4
   190c4: 9b 05 05 00  	addiw	a1, a0, 0x0
   190c8: 13 05 0a 00  	addi	a0, s4, 0x0
   190cc: 63 84 05 00  	beq	a1, zero, 0x190d4 <decompress_smooth_data+0x25c>
   190d0: 03 35 86 ff  	ld	a0, -0x8(a2)
   190d4: 83 35 01 04  	ld	a1, 0x40(sp)
   190d8: 63 e8 bb 00  	bltu	s7, a1, 0x190e8 <decompress_smooth_data+0x270>
   190dc: 93 05 0a 00  	addi	a1, s4, 0x0
   190e0: 83 36 01 02  	ld	a3, 0x20(sp)
   190e4: 63 04 d7 00  	beq	a4, a3, 0x190ec <decompress_smooth_data+0x274>
   190e8: 83 35 86 00  	ld	a1, 0x8(a2)
   190ec: 23 34 e1 04  	sd	a4, 0x48(sp)
   190f0: 83 14 05 00  	lh	s1, 0x0(a0)
   190f4: 03 a6 ca 01  	lw	a2, 0x1c(s5)
   190f8: 83 19 0a 00  	lh	s3, 0x0(s4)
   190fc: 03 94 05 00  	lh	s0, 0x0(a1)
   19100: 13 0c 00 00  	addi	s8, zero, 0x0
   19104: 93 0b 00 00  	addi	s7, zero, 0x0
   19108: 1b 09 f6 ff  	addiw	s2, a2, -0x1
   1910c: 13 0b 05 08  	addi	s6, a0, 0x80
   19110: 93 8c 05 08  	addi	s9, a1, 0x80
   19114: 23 34 81 0e  	sd	s0, 0xe8(sp)
   19118: 23 3c 31 0f  	sd	s3, 0xf8(sp)
   1911c: 23 38 91 0e  	sd	s1, 0xf0(sp)
   19120: 23 34 21 0d  	sd	s2, 0xc8(sp)
   19124: 93 0a 0d 00  	addi	s5, s10, 0x0
   19128: 23 3c 91 0c  	sd	s1, 0xd8(sp)
   1912c: 83 34 01 0f  	ld	s1, 0xf0(sp)
   19130: 23 30 31 0f  	sd	s3, 0xe0(sp)
   19134: 83 39 81 0f  	ld	s3, 0xf8(sp)
   19138: 13 0d 04 00  	addi	s10, s0, 0x0
   1913c: 03 34 81 0e  	ld	s0, 0xe8(sp)
   19140: 93 05 01 10  	addi	a1, sp, 0x100
   19144: 13 06 10 00  	addi	a2, zero, 0x1
   19148: 13 05 0a 00  	addi	a0, s4, 0x0
   1914c: ef 50 90 2b  	jal	ra, 0x1ec04 <jcopy_block_row>
   19150: 63 7e 2c 01  	bgeu	s8, s2, 0x1916c <decompress_smooth_data+0x2f4>
   19154: 03 15 0b 00  	lh	a0, 0x0(s6)
   19158: 23 38 a1 0e  	sd	a0, 0xf0(sp)
   1915c: 03 15 0a 08  	lh	a0, 0x80(s4)
   19160: 23 3c a1 0e  	sd	a0, 0xf8(sp)
   19164: 03 95 0c 00  	lh	a0, 0x0(s9)
   19168: 23 34 a1 0e  	sd	a0, 0xe8(sp)
   1916c: 03 a9 4d 00  	lw	s2, 0x4(s11)
   19170: 63 04 09 08  	beq	s2, zero, 0x191f8 <decompress_smooth_data+0x380>
   19174: 03 55 21 10  	lhu	a0, 0x102(sp)
   19178: 63 10 05 08  	bne	a0, zero, 0x191f8 <decompress_smooth_data+0x380>
   1917c: 03 35 81 0f  	ld	a0, 0xf8(sp)
   19180: 83 35 01 0e  	ld	a1, 0xe0(sp)
   19184: bb 85 a5 40  	subw	a1, a1, a0
   19188: 03 35 01 0b  	ld	a0, 0xb0(sp)
   1918c: ef a0 91 56  	jal	ra, 0x33ef4 <__muldi3>
   19190: 63 48 05 02  	blt	a0, zero, 0x191c0 <decompress_smooth_data+0x348>
   19194: 83 35 01 0a  	ld	a1, 0xa0(sp)
   19198: 33 05 b5 00  	add	a0, a0, a1
   1919c: 83 35 81 09  	ld	a1, 0x98(sp)
   191a0: ef a0 d1 59  	jal	ra, 0x33f3c <__udivdi3>
   191a4: 63 58 20 05  	bge	zero, s2, 0x191f4 <decompress_smooth_data+0x37c>
   191a8: 1b 06 05 00  	addiw	a2, a0, 0x0
   191ac: 93 05 10 00  	addi	a1, zero, 0x1
   191b0: bb 95 25 01  	sllw	a1, a1, s2
   191b4: 63 40 b6 04  	blt	a2, a1, 0x191f4 <decompress_smooth_data+0x37c>
   191b8: 13 85 f5 ff  	addi	a0, a1, -0x1
   191bc: 6f 00 80 03  	jal	zero, 0x191f4 <decompress_smooth_data+0x37c>
   191c0: 83 35 01 0a  	ld	a1, 0xa0(sp)
   191c4: 33 85 a5 40  	sub	a0, a1, a0
   191c8: 83 35 81 09  	ld	a1, 0x98(sp)
   191cc: ef a0 11 57  	jal	ra, 0x33f3c <__udivdi3>
   191d0: 9b 06 05 00  	addiw	a3, a0, 0x0
   191d4: 93 05 10 00  	addi	a1, zero, 0x1
   191d8: 3b 96 25 01  	sllw	a2, a1, s2
   191dc: 93 05 05 00  	addi	a1, a0, 0x0
   191e0: 63 c4 c6 00  	blt	a3, a2, 0x191e8 <decompress_smooth_data+0x370>
   191e4: 93 05 f6 ff  	addi	a1, a2, -0x1
   191e8: 63 44 20 01  	blt	zero, s2, 0x191f0 <decompress_smooth_data+0x378>
   191ec: 93 05 05 00  	addi	a1, a0, 0x0
   191f0: 3b 05 b0 40  	subw	a0, zero, a1
   191f4: 23 11 a1 10  	sh	a0, 0x102(sp)
   191f8: 03 a9 8d 00  	lw	s2, 0x8(s11)
   191fc: 63 00 09 08  	beq	s2, zero, 0x1927c <decompress_smooth_data+0x404>
   19200: 03 55 01 11  	lhu	a0, 0x110(sp)
   19204: 63 1c 05 06  	bne	a0, zero, 0x1927c <decompress_smooth_data+0x404>
   19208: bb 85 84 40  	subw	a1, s1, s0
   1920c: 03 35 01 0b  	ld	a0, 0xb0(sp)
   19210: ef a0 51 4e  	jal	ra, 0x33ef4 <__muldi3>
   19214: 63 48 05 02  	blt	a0, zero, 0x19244 <decompress_smooth_data+0x3cc>
   19218: 83 35 01 09  	ld	a1, 0x90(sp)
   1921c: 33 05 b5 00  	add	a0, a0, a1
   19220: 83 35 81 08  	ld	a1, 0x88(sp)
   19224: ef a0 91 51  	jal	ra, 0x33f3c <__udivdi3>
   19228: 63 58 20 05  	bge	zero, s2, 0x19278 <decompress_smooth_data+0x400>
   1922c: 1b 06 05 00  	addiw	a2, a0, 0x0
   19230: 93 05 10 00  	addi	a1, zero, 0x1
   19234: bb 95 25 01  	sllw	a1, a1, s2
   19238: 63 40 b6 04  	blt	a2, a1, 0x19278 <decompress_smooth_data+0x400>
   1923c: 13 85 f5 ff  	addi	a0, a1, -0x1
   19240: 6f 00 80 03  	jal	zero, 0x19278 <decompress_smooth_data+0x400>
   19244: 83 35 01 09  	ld	a1, 0x90(sp)
   19248: 33 85 a5 40  	sub	a0, a1, a0
   1924c: 83 35 81 08  	ld	a1, 0x88(sp)
   19250: ef a0 d1 4e  	jal	ra, 0x33f3c <__udivdi3>
   19254: 9b 06 05 00  	addiw	a3, a0, 0x0
   19258: 93 05 10 00  	addi	a1, zero, 0x1
   1925c: 3b 96 25 01  	sllw	a2, a1, s2
   19260: 93 05 05 00  	addi	a1, a0, 0x0
   19264: 63 c4 c6 00  	blt	a3, a2, 0x1926c <decompress_smooth_data+0x3f4>
   19268: 93 05 f6 ff  	addi	a1, a2, -0x1
   1926c: 63 44 20 01  	blt	zero, s2, 0x19274 <decompress_smooth_data+0x3fc>
   19270: 93 05 05 00  	addi	a1, a0, 0x0
   19274: 3b 05 b0 40  	subw	a0, zero, a1
   19278: 23 18 a1 10  	sh	a0, 0x110(sp)
   1927c: 03 a9 cd 00  	lw	s2, 0xc(s11)
   19280: 63 04 09 08  	beq	s2, zero, 0x19308 <decompress_smooth_data+0x490>
   19284: 03 55 01 12  	lhu	a0, 0x120(sp)
   19288: 63 10 05 08  	bne	a0, zero, 0x19308 <decompress_smooth_data+0x490>
   1928c: 13 95 19 00  	slli	a0, s3, 0x1
   19290: b3 85 84 00  	add	a1, s1, s0
   19294: bb 85 a5 40  	subw	a1, a1, a0
   19298: 03 35 81 0a  	ld	a0, 0xa8(sp)
   1929c: ef a0 91 45  	jal	ra, 0x33ef4 <__muldi3>
   192a0: 63 48 05 02  	blt	a0, zero, 0x192d0 <decompress_smooth_data+0x458>
   192a4: 83 35 01 08  	ld	a1, 0x80(sp)
   192a8: 33 05 b5 00  	add	a0, a0, a1
   192ac: 83 35 81 07  	ld	a1, 0x78(sp)
   192b0: ef a0 d1 48  	jal	ra, 0x33f3c <__udivdi3>
   192b4: 63 58 20 05  	bge	zero, s2, 0x19304 <decompress_smooth_data+0x48c>
   192b8: 1b 06 05 00  	addiw	a2, a0, 0x0
   192bc: 93 05 10 00  	addi	a1, zero, 0x1
   192c0: bb 95 25 01  	sllw	a1, a1, s2
   192c4: 63 40 b6 04  	blt	a2, a1, 0x19304 <decompress_smooth_data+0x48c>
   192c8: 13 85 f5 ff  	addi	a0, a1, -0x1
   192cc: 6f 00 80 03  	jal	zero, 0x19304 <decompress_smooth_data+0x48c>
   192d0: 83 35 01 08  	ld	a1, 0x80(sp)
   192d4: 33 85 a5 40  	sub	a0, a1, a0
   192d8: 83 35 81 07  	ld	a1, 0x78(sp)
   192dc: ef a0 11 46  	jal	ra, 0x33f3c <__udivdi3>
   192e0: 9b 06 05 00  	addiw	a3, a0, 0x0
   192e4: 93 05 10 00  	addi	a1, zero, 0x1
   192e8: 3b 96 25 01  	sllw	a2, a1, s2
   192ec: 93 05 05 00  	addi	a1, a0, 0x0
   192f0: 63 c4 c6 00  	blt	a3, a2, 0x192f8 <decompress_smooth_data+0x480>
   192f4: 93 05 f6 ff  	addi	a1, a2, -0x1
   192f8: 63 44 20 01  	blt	zero, s2, 0x19300 <decompress_smooth_data+0x488>
   192fc: 93 05 05 00  	addi	a1, a0, 0x0
   19300: 3b 05 b0 40  	subw	a0, zero, a1
   19304: 23 10 a1 12  	sh	a0, 0x120(sp)
   19308: 03 a9 0d 01  	lw	s2, 0x10(s11)
   1930c: 63 0a 09 08  	beq	s2, zero, 0x193a0 <decompress_smooth_data+0x528>
   19310: 03 55 21 11  	lhu	a0, 0x112(sp)
   19314: 63 16 05 08  	bne	a0, zero, 0x193a0 <decompress_smooth_data+0x528>
   19318: 03 35 01 0f  	ld	a0, 0xf0(sp)
   1931c: 33 0d ad 00  	add	s10, s10, a0
   19320: 03 35 81 0e  	ld	a0, 0xe8(sp)
   19324: 83 35 81 0d  	ld	a1, 0xd8(sp)
   19328: 33 85 a5 00  	add	a0, a1, a0
   1932c: bb 05 a5 41  	subw	a1, a0, s10
   19330: 03 35 01 07  	ld	a0, 0x70(sp)
   19334: ef a0 11 3c  	jal	ra, 0x33ef4 <__muldi3>
   19338: 63 48 05 02  	blt	a0, zero, 0x19368 <decompress_smooth_data+0x4f0>
   1933c: 83 35 81 06  	ld	a1, 0x68(sp)
   19340: 33 05 b5 00  	add	a0, a0, a1
   19344: 83 35 01 06  	ld	a1, 0x60(sp)
   19348: ef a0 51 3f  	jal	ra, 0x33f3c <__udivdi3>
   1934c: 63 58 20 05  	bge	zero, s2, 0x1939c <decompress_smooth_data+0x524>
   19350: 1b 06 05 00  	addiw	a2, a0, 0x0
   19354: 93 05 10 00  	addi	a1, zero, 0x1
   19358: bb 95 25 01  	sllw	a1, a1, s2
   1935c: 63 40 b6 04  	blt	a2, a1, 0x1939c <decompress_smooth_data+0x524>
   19360: 13 85 f5 ff  	addi	a0, a1, -0x1
   19364: 6f 00 80 03  	jal	zero, 0x1939c <decompress_smooth_data+0x524>
   19368: 83 35 81 06  	ld	a1, 0x68(sp)
   1936c: 33 85 a5 40  	sub	a0, a1, a0
   19370: 83 35 01 06  	ld	a1, 0x60(sp)
   19374: ef a0 91 3c  	jal	ra, 0x33f3c <__udivdi3>
   19378: 9b 06 05 00  	addiw	a3, a0, 0x0
   1937c: 93 05 10 00  	addi	a1, zero, 0x1
   19380: 3b 96 25 01  	sllw	a2, a1, s2
   19384: 93 05 05 00  	addi	a1, a0, 0x0
   19388: 63 c4 c6 00  	blt	a3, a2, 0x19390 <decompress_smooth_data+0x518>
   1938c: 93 05 f6 ff  	addi	a1, a2, -0x1
   19390: 63 44 20 01  	blt	zero, s2, 0x19398 <decompress_smooth_data+0x520>
   19394: 93 05 05 00  	addi	a1, a0, 0x0
   19398: 3b 05 b0 40  	subw	a0, zero, a1
   1939c: 23 19 a1 10  	sh	a0, 0x112(sp)
   193a0: 03 a9 4d 01  	lw	s2, 0x14(s11)
   193a4: 13 8d 0a 00  	addi	s10, s5, 0x0
   193a8: 83 3a 01 0c  	ld	s5, 0xc0(sp)
   193ac: 63 08 09 08  	beq	s2, zero, 0x1943c <decompress_smooth_data+0x5c4>
   193b0: 03 55 41 10  	lhu	a0, 0x104(sp)
   193b4: 63 14 05 08  	bne	a0, zero, 0x1943c <decompress_smooth_data+0x5c4>
   193b8: 13 95 19 00  	slli	a0, s3, 0x1
   193bc: 83 35 81 0f  	ld	a1, 0xf8(sp)
   193c0: 03 36 01 0e  	ld	a2, 0xe0(sp)
   193c4: b3 05 b6 00  	add	a1, a2, a1
   193c8: bb 85 a5 40  	subw	a1, a1, a0
   193cc: 03 35 81 0a  	ld	a0, 0xa8(sp)
   193d0: ef a0 51 32  	jal	ra, 0x33ef4 <__muldi3>
   193d4: 63 48 05 02  	blt	a0, zero, 0x19404 <decompress_smooth_data+0x58c>
   193d8: 83 35 81 05  	ld	a1, 0x58(sp)
   193dc: 33 05 b5 00  	add	a0, a0, a1
   193e0: 83 35 01 05  	ld	a1, 0x50(sp)
   193e4: ef a0 91 35  	jal	ra, 0x33f3c <__udivdi3>
   193e8: 63 58 20 05  	bge	zero, s2, 0x19438 <decompress_smooth_data+0x5c0>
   193ec: 1b 06 05 00  	addiw	a2, a0, 0x0
   193f0: 93 05 10 00  	addi	a1, zero, 0x1
   193f4: bb 95 25 01  	sllw	a1, a1, s2
   193f8: 63 40 b6 04  	blt	a2, a1, 0x19438 <decompress_smooth_data+0x5c0>
   193fc: 13 85 f5 ff  	addi	a0, a1, -0x1
   19400: 6f 00 80 03  	jal	zero, 0x19438 <decompress_smooth_data+0x5c0>
   19404: 83 35 81 05  	ld	a1, 0x58(sp)
   19408: 33 85 a5 40  	sub	a0, a1, a0
   1940c: 83 35 01 05  	ld	a1, 0x50(sp)
   19410: ef a0 d1 32  	jal	ra, 0x33f3c <__udivdi3>
   19414: 9b 06 05 00  	addiw	a3, a0, 0x0
   19418: 93 05 10 00  	addi	a1, zero, 0x1
   1941c: 3b 96 25 01  	sllw	a2, a1, s2
   19420: 93 05 05 00  	addi	a1, a0, 0x0
   19424: 63 c4 c6 00  	blt	a3, a2, 0x1942c <decompress_smooth_data+0x5b4>
   19428: 93 05 f6 ff  	addi	a1, a2, -0x1
   1942c: 63 44 20 01  	blt	zero, s2, 0x19434 <decompress_smooth_data+0x5bc>
   19430: 93 05 05 00  	addi	a1, a0, 0x0
   19434: 3b 05 b0 40  	subw	a0, zero, a1
   19438: 23 12 a1 10  	sh	a0, 0x104(sp)
   1943c: 13 06 01 10  	addi	a2, sp, 0x100
   19440: 13 05 0d 00  	addi	a0, s10, 0x0
   19444: 93 85 0a 00  	addi	a1, s5, 0x0
   19448: 83 36 01 0d  	ld	a3, 0xd0(sp)
   1944c: 13 87 0b 00  	addi	a4, s7, 0x0
   19450: 83 37 81 0b  	ld	a5, 0xb8(sp)
   19454: e7 80 07 00  	jalr	ra, 0x0(a5)
   19458: 03 a5 4a 02  	lw	a0, 0x24(s5)
   1945c: 13 0a 0a 08  	addi	s4, s4, 0x80
   19460: bb 0b 75 01  	addw	s7, a0, s7
   19464: 1b 0c 1c 00  	addiw	s8, s8, 0x1
   19468: 13 0b 0b 08  	addi	s6, s6, 0x80
   1946c: 93 8c 0c 08  	addi	s9, s9, 0x80
   19470: 03 39 81 0c  	ld	s2, 0xc8(sp)
   19474: e3 78 89 cb  	bgeu	s2, s8, 0x19124 <decompress_smooth_data+0x2ac>
   19478: 13 15 35 00  	slli	a0, a0, 0x3
   1947c: 03 37 81 04  	ld	a4, 0x48(sp)
   19480: 13 07 17 00  	addi	a4, a4, 0x1
   19484: 83 35 01 0d  	ld	a1, 0xd0(sp)
   19488: b3 85 a5 00  	add	a1, a1, a0
   1948c: 23 38 b1 0c  	sd	a1, 0xd0(sp)
   19490: 83 3b 81 02  	ld	s7, 0x28(sp)
   19494: 03 35 01 03  	ld	a0, 0x30(sp)
   19498: e3 1c a7 c0  	bne	a4, a0, 0x190b0 <decompress_smooth_data+0x238>
   1949c: 03 25 0d 03  	lw	a0, 0x30(s10)
   194a0: 83 35 81 01  	ld	a1, 0x18(sp)
   194a4: 93 85 15 00  	addi	a1, a1, 0x1
   194a8: 93 8a 0a 06  	addi	s5, s5, 0x60
   194ac: 23 3c b1 00  	sd	a1, 0x18(sp)
   194b0: e3 c2 a5 a4  	blt	a1, a0, 0x18ef4 <decompress_smooth_data+0x7c>
   194b4: 03 25 0d 0b  	lw	a0, 0xb0(s10)
   194b8: 83 25 0d 19  	lw	a1, 0x190(s10)
   194bc: 1b 05 15 00  	addiw	a0, a0, 0x1
   194c0: 23 28 ad 0a  	sw	a0, 0xb0(s10)
   194c4: 33 35 b5 00  	sltu	a0, a0, a1
   194c8: 93 05 40 00  	addi	a1, zero, 0x4
   194cc: 33 85 a5 40  	sub	a0, a1, a0
   194d0: 13 01 01 18  	addi	sp, sp, 0x180
   194d4: 6f a0 51 1f  	jal	zero, 0x33ec8 <__riscv_restore_12>

00000000000194d8 <jinit_d_post_controller>:
   194d8: ef a2 31 1c  	jal	t0, 0x33e9a <__riscv_save_7>
   194dc: 93 04 05 00  	addi	s1, a0, 0x0
   194e0: 03 35 85 00  	ld	a0, 0x8(a0)
   194e4: 83 36 05 00  	ld	a3, 0x0(a0)
   194e8: 13 89 05 00  	addi	s2, a1, 0x0
   194ec: 93 05 10 00  	addi	a1, zero, 0x1
   194f0: 13 06 00 03  	addi	a2, zero, 0x30
   194f4: 13 85 04 00  	addi	a0, s1, 0x0
   194f8: e7 80 06 00  	jalr	ra, 0x0(a3)
   194fc: 13 04 05 00  	addi	s0, a0, 0x0
   19500: 23 b4 a4 22  	sd	a0, 0x228(s1)
   19504: 23 38 05 00  	sd	zero, 0x10(a0)
   19508: 23 3c 05 00  	sd	zero, 0x18(a0)
   1950c: 03 a5 44 06  	lw	a0, 0x64(s1)
   19510: b7 95 01 00  	lui	a1, 0x19
   19514: 93 85 45 59  	addi	a1, a1, 0x594
   19518: 23 30 b4 00  	sd	a1, 0x0(s0)
   1951c: 63 0a 05 06  	beq	a0, zero, 0x19590 <jinit_d_post_controller+0xb8>
   19520: 03 ea 84 18  	lwu	s4, 0x188(s1)
   19524: 83 ba 84 00  	ld	s5, 0x8(s1)
   19528: 83 a5 04 08  	lw	a1, 0x80(s1)
   1952c: 03 a5 84 08  	lw	a0, 0x88(s1)
   19530: 23 20 44 03  	sw	s4, 0x20(s0)
   19534: ef a0 11 1c  	jal	ra, 0x33ef4 <__muldi3>
   19538: 9b 09 05 00  	addiw	s3, a0, 0x0
   1953c: 63 0c 09 02  	beq	s2, zero, 0x19574 <jinit_d_post_controller+0x9c>
   19540: 03 b9 0a 02  	ld	s2, 0x20(s5)
   19544: 03 e5 44 08  	lwu	a0, 0x84(s1)
   19548: 93 05 0a 00  	addi	a1, s4, 0x0
   1954c: ef 50 40 63  	jal	ra, 0x1eb80 <jround_up>
   19550: 83 27 04 02  	lw	a5, 0x20(s0)
   19554: 1b 07 05 00  	addiw	a4, a0, 0x0
   19558: 93 05 10 00  	addi	a1, zero, 0x1
   1955c: 13 85 04 00  	addi	a0, s1, 0x0
   19560: 13 06 00 00  	addi	a2, zero, 0x0
   19564: 93 86 09 00  	addi	a3, s3, 0x0
   19568: e7 00 09 00  	jalr	ra, 0x0(s2)
   1956c: 23 38 a4 00  	sd	a0, 0x10(s0)
   19570: 6f a0 91 16  	jal	zero, 0x33ed8 <__riscv_restore_7>
   19574: 03 b7 0a 01  	ld	a4, 0x10(s5)
   19578: 9b 06 0a 00  	addiw	a3, s4, 0x0
   1957c: 93 05 10 00  	addi	a1, zero, 0x1
   19580: 13 85 04 00  	addi	a0, s1, 0x0
   19584: 13 86 09 00  	addi	a2, s3, 0x0
   19588: e7 00 07 00  	jalr	ra, 0x0(a4)
   1958c: 23 3c a4 00  	sd	a0, 0x18(s0)
   19590: 6f a0 91 14  	jal	zero, 0x33ed8 <__riscv_restore_7>

0000000000019594 <start_pass_dpost>:
   19594: ef a2 d1 12  	jal	t0, 0x33ec0 <__riscv_save_1>
   19598: 03 34 85 22  	ld	s0, 0x228(a0)
   1959c: 13 06 30 00  	addi	a2, zero, 0x3
   195a0: 63 8c c5 06  	beq	a1, a2, 0x19618 <start_pass_dpost+0x84>
   195a4: 13 06 20 00  	addi	a2, zero, 0x2
   195a8: 63 84 c5 04  	beq	a1, a2, 0x195f0 <start_pass_dpost+0x5c>
   195ac: 63 9a 05 08  	bne	a1, zero, 0x19640 <start_pass_dpost+0xac>
   195b0: 83 25 45 06  	lw	a1, 0x64(a0)
   195b4: 63 82 05 0a  	beq	a1, zero, 0x19658 <start_pass_dpost+0xc4>
   195b8: 83 35 84 01  	ld	a1, 0x18(s0)
   195bc: 37 96 01 00  	lui	a2, 0x19
   195c0: 13 06 06 67  	addi	a2, a2, 0x670
   195c4: 23 34 c4 00  	sd	a2, 0x8(s0)
   195c8: 63 9e 05 08  	bne	a1, zero, 0x19664 <start_pass_dpost+0xd0>
   195cc: 83 35 85 00  	ld	a1, 0x8(a0)
   195d0: 83 b7 85 03  	ld	a5, 0x38(a1)
   195d4: 83 35 04 01  	ld	a1, 0x10(s0)
   195d8: 83 26 04 02  	lw	a3, 0x20(s0)
   195dc: 13 07 10 00  	addi	a4, zero, 0x1
   195e0: 13 06 00 00  	addi	a2, zero, 0x0
   195e4: e7 80 07 00  	jalr	ra, 0x0(a5)
   195e8: 23 3c a4 00  	sd	a0, 0x18(s0)
   195ec: 6f 00 80 07  	jal	zero, 0x19664 <start_pass_dpost+0xd0>
   195f0: 83 35 04 01  	ld	a1, 0x10(s0)
   195f4: 63 9c 05 00  	bne	a1, zero, 0x1960c <start_pass_dpost+0x78>
   195f8: 83 35 05 00  	ld	a1, 0x0(a0)
   195fc: 03 b6 05 00  	ld	a2, 0x0(a1)
   19600: 93 06 40 00  	addi	a3, zero, 0x4
   19604: 23 a4 d5 02  	sw	a3, 0x28(a1)
   19608: e7 00 06 00  	jalr	ra, 0x0(a2)
   1960c: 37 95 01 00  	lui	a0, 0x19
   19610: 13 05 45 7d  	addi	a0, a0, 0x7d4
   19614: 6f 00 c0 04  	jal	zero, 0x19660 <start_pass_dpost+0xcc>
   19618: 83 35 04 01  	ld	a1, 0x10(s0)
   1961c: 63 9c 05 00  	bne	a1, zero, 0x19634 <start_pass_dpost+0xa0>
   19620: 83 35 05 00  	ld	a1, 0x0(a0)
   19624: 03 b6 05 00  	ld	a2, 0x0(a1)
   19628: 93 06 40 00  	addi	a3, zero, 0x4
   1962c: 23 a4 d5 02  	sw	a3, 0x28(a1)
   19630: e7 00 06 00  	jalr	ra, 0x0(a2)
   19634: 37 95 01 00  	lui	a0, 0x19
   19638: 13 05 45 6f  	addi	a0, a0, 0x6f4
   1963c: 6f 00 40 02  	jal	zero, 0x19660 <start_pass_dpost+0xcc>
   19640: 83 35 05 00  	ld	a1, 0x0(a0)
   19644: 03 b6 05 00  	ld	a2, 0x0(a1)
   19648: 93 06 40 00  	addi	a3, zero, 0x4
   1964c: 23 a4 d5 02  	sw	a3, 0x28(a1)
   19650: e7 00 06 00  	jalr	ra, 0x0(a2)
   19654: 6f 00 00 01  	jal	zero, 0x19664 <start_pass_dpost+0xd0>
   19658: 03 35 05 25  	ld	a0, 0x250(a0)
   1965c: 03 35 85 00  	ld	a0, 0x8(a0)
   19660: 23 34 a4 00  	sd	a0, 0x8(s0)
   19664: 23 24 04 02  	sw	zero, 0x28(s0)
   19668: 23 22 04 02  	sw	zero, 0x24(s0)
   1966c: 6f a0 f1 07  	jal	zero, 0x33eea <__riscv_restore_1>

0000000000019670 <post_process_1pass>:
   19670: ef a2 51 03  	jal	t0, 0x33ea4 <__riscv_save_5>
   19674: 13 01 01 ff  	addi	sp, sp, -0x10
   19678: 93 04 05 00  	addi	s1, a0, 0x0
   1967c: 83 39 85 22  	ld	s3, 0x228(a0)
   19680: 13 84 07 00  	addi	s0, a5, 0x0
   19684: 83 a7 07 00  	lw	a5, 0x0(a5)
   19688: 03 a5 09 02  	lw	a0, 0x20(s3)
   1968c: 3b 08 f8 40  	subw	a6, a6, a5
   19690: 13 09 07 00  	addi	s2, a4, 0x0
   19694: 63 64 a8 00  	bltu	a6, a0, 0x1969c <post_process_1pass+0x2c>
   19698: 13 08 05 00  	addi	a6, a0, 0x0
   1969c: 03 b5 04 25  	ld	a0, 0x250(s1)
   196a0: 83 38 85 00  	ld	a7, 0x8(a0)
   196a4: 03 b7 89 01  	ld	a4, 0x18(s3)
   196a8: 23 26 01 00  	sw	zero, 0xc(sp)
   196ac: 93 07 c1 00  	addi	a5, sp, 0xc
   196b0: 13 85 04 00  	addi	a0, s1, 0x0
   196b4: e7 80 08 00  	jalr	ra, 0x0(a7)
   196b8: 03 b5 04 26  	ld	a0, 0x260(s1)
   196bc: 03 37 85 00  	ld	a4, 0x8(a0)
   196c0: 03 65 04 00  	lwu	a0, 0x0(s0)
   196c4: 83 b5 89 01  	ld	a1, 0x18(s3)
   196c8: 83 26 c1 00  	lw	a3, 0xc(sp)
   196cc: 13 15 35 00  	slli	a0, a0, 0x3
   196d0: 33 06 a9 00  	add	a2, s2, a0
   196d4: 13 85 04 00  	addi	a0, s1, 0x0
   196d8: e7 00 07 00  	jalr	ra, 0x0(a4)
   196dc: 03 25 c1 00  	lw	a0, 0xc(sp)
   196e0: 83 25 04 00  	lw	a1, 0x0(s0)
   196e4: 33 85 a5 00  	add	a0, a1, a0
   196e8: 23 20 a4 00  	sw	a0, 0x0(s0)
   196ec: 13 01 01 01  	addi	sp, sp, 0x10
   196f0: 6f a0 e1 7e  	jal	zero, 0x33ede <__riscv_restore_5>

00000000000196f4 <post_process_prepass>:
   196f4: ef a2 c1 79  	jal	t0, 0x33e90 <__riscv_save_9>
   196f8: 93 04 05 00  	addi	s1, a0, 0x0
   196fc: 03 3b 85 22  	ld	s6, 0x228(a0)
   19700: 83 2b 8b 02  	lw	s7, 0x28(s6)
   19704: 13 84 07 00  	addi	s0, a5, 0x0
   19708: 13 89 06 00  	addi	s2, a3, 0x0
   1970c: 13 0a 06 00  	addi	s4, a2, 0x0
   19710: 93 8a 05 00  	addi	s5, a1, 0x0
   19714: 93 09 8b 02  	addi	s3, s6, 0x28
   19718: 63 86 0b 00  	beq	s7, zero, 0x19724 <post_process_prepass+0x30>
   1971c: 03 37 8b 01  	ld	a4, 0x18(s6)
   19720: 6f 00 00 03  	jal	zero, 0x19750 <post_process_prepass+0x5c>
   19724: 03 b5 84 00  	ld	a0, 0x8(s1)
   19728: 83 37 85 03  	ld	a5, 0x38(a0)
   1972c: 83 35 0b 01  	ld	a1, 0x10(s6)
   19730: 03 26 4b 02  	lw	a2, 0x24(s6)
   19734: 83 26 0b 02  	lw	a3, 0x20(s6)
   19738: 13 07 10 00  	addi	a4, zero, 0x1
   1973c: 13 85 04 00  	addi	a0, s1, 0x0
   19740: e7 80 07 00  	jalr	ra, 0x0(a5)
   19744: 83 2b 8b 02  	lw	s7, 0x28(s6)
   19748: 13 07 05 00  	addi	a4, a0, 0x0
   1974c: 23 3c ab 00  	sd	a0, 0x18(s6)
   19750: 03 b5 04 25  	ld	a0, 0x250(s1)
   19754: 83 38 85 00  	ld	a7, 0x8(a0)
   19758: 03 28 0b 02  	lw	a6, 0x20(s6)
   1975c: 13 85 04 00  	addi	a0, s1, 0x0
   19760: 93 85 0a 00  	addi	a1, s5, 0x0
   19764: 13 06 0a 00  	addi	a2, s4, 0x0
   19768: 93 06 09 00  	addi	a3, s2, 0x0
   1976c: 93 87 09 00  	addi	a5, s3, 0x0
   19770: e7 80 08 00  	jalr	ra, 0x0(a7)
   19774: 03 25 8b 02  	lw	a0, 0x28(s6)
   19778: 63 f0 ab 04  	bgeu	s7, a0, 0x197b8 <post_process_prepass+0xc4>
   1977c: 83 b5 04 26  	ld	a1, 0x260(s1)
   19780: 3b 09 75 41  	subw	s2, a0, s7
   19784: 03 35 8b 01  	ld	a0, 0x18(s6)
   19788: 03 b7 85 00  	ld	a4, 0x8(a1)
   1978c: 93 9b 0b 02  	slli	s7, s7, 0x20
   19790: 93 d5 db 01  	srli	a1, s7, 0x1d
   19794: b3 05 b5 00  	add	a1, a0, a1
   19798: 13 85 04 00  	addi	a0, s1, 0x0
   1979c: 13 06 00 00  	addi	a2, zero, 0x0
   197a0: 93 06 09 00  	addi	a3, s2, 0x0
   197a4: e7 00 07 00  	jalr	ra, 0x0(a4)
   197a8: 03 25 04 00  	lw	a0, 0x0(s0)
   197ac: 33 05 25 01  	add	a0, a0, s2
   197b0: 23 20 a4 00  	sw	a0, 0x0(s0)
   197b4: 03 25 8b 02  	lw	a0, 0x28(s6)
   197b8: 83 25 0b 02  	lw	a1, 0x20(s6)
   197bc: 63 6a b5 00  	bltu	a0, a1, 0x197d0 <post_process_prepass+0xdc>
   197c0: 03 25 4b 02  	lw	a0, 0x24(s6)
   197c4: 33 05 b5 00  	add	a0, a0, a1
   197c8: 23 22 ab 02  	sw	a0, 0x24(s6)
   197cc: 23 24 0b 02  	sw	zero, 0x28(s6)
   197d0: 6f a0 21 70  	jal	zero, 0x33ed2 <__riscv_restore_9>

00000000000197d4 <post_process_2pass>:
   197d4: ef a2 61 6c  	jal	t0, 0x33e9a <__riscv_save_7>
   197d8: 93 04 05 00  	addi	s1, a0, 0x0
   197dc: 83 3a 85 22  	ld	s5, 0x228(a0)
   197e0: 83 a5 8a 02  	lw	a1, 0x28(s5)
   197e4: 93 09 08 00  	addi	s3, a6, 0x0
   197e8: 13 84 07 00  	addi	s0, a5, 0x0
   197ec: 13 09 07 00  	addi	s2, a4, 0x0
   197f0: 63 86 05 00  	beq	a1, zero, 0x197fc <post_process_2pass+0x28>
   197f4: 03 b5 8a 01  	ld	a0, 0x18(s5)
   197f8: 6f 00 c0 02  	jal	zero, 0x19824 <post_process_2pass+0x50>
   197fc: 03 b5 84 00  	ld	a0, 0x8(s1)
   19800: 83 37 85 03  	ld	a5, 0x38(a0)
   19804: 83 b5 0a 01  	ld	a1, 0x10(s5)
   19808: 03 a6 4a 02  	lw	a2, 0x24(s5)
   1980c: 83 a6 0a 02  	lw	a3, 0x20(s5)
   19810: 13 85 04 00  	addi	a0, s1, 0x0
   19814: 13 07 00 00  	addi	a4, zero, 0x0
   19818: e7 80 07 00  	jalr	ra, 0x0(a5)
   1981c: 83 a5 8a 02  	lw	a1, 0x28(s5)
   19820: 23 bc aa 00  	sd	a0, 0x18(s5)
   19824: 83 a6 0a 02  	lw	a3, 0x20(s5)
   19828: 03 66 04 00  	lwu	a2, 0x0(s0)
   1982c: 3b 8a b6 40  	subw	s4, a3, a1
   19830: bb 86 c9 40  	subw	a3, s3, a2
   19834: 63 64 da 00  	bltu	s4, a3, 0x1983c <post_process_2pass+0x68>
   19838: 13 8a 06 00  	addi	s4, a3, 0x0
   1983c: 83 a6 44 08  	lw	a3, 0x84(s1)
   19840: 03 a7 4a 02  	lw	a4, 0x24(s5)
   19844: bb 86 e6 40  	subw	a3, a3, a4
   19848: 63 64 da 00  	bltu	s4, a3, 0x19850 <post_process_2pass+0x7c>
   1984c: 13 8a 06 00  	addi	s4, a3, 0x0
   19850: 83 b6 04 26  	ld	a3, 0x260(s1)
   19854: 03 b7 86 00  	ld	a4, 0x8(a3)
   19858: 93 95 05 02  	slli	a1, a1, 0x20
   1985c: 93 d5 d5 01  	srli	a1, a1, 0x1d
   19860: b3 05 b5 00  	add	a1, a0, a1
   19864: 13 16 36 00  	slli	a2, a2, 0x3
   19868: 33 06 c9 00  	add	a2, s2, a2
   1986c: 13 85 04 00  	addi	a0, s1, 0x0
   19870: 93 06 0a 00  	addi	a3, s4, 0x0
   19874: e7 00 07 00  	jalr	ra, 0x0(a4)
   19878: 03 25 04 00  	lw	a0, 0x0(s0)
   1987c: 33 05 45 01  	add	a0, a0, s4
   19880: 23 20 a4 00  	sw	a0, 0x0(s0)
   19884: 83 a5 8a 02  	lw	a1, 0x28(s5)
   19888: 03 a5 0a 02  	lw	a0, 0x20(s5)
   1988c: bb 85 45 01  	addw	a1, a1, s4
   19890: 23 a4 ba 02  	sw	a1, 0x28(s5)
   19894: 63 ea a5 00  	bltu	a1, a0, 0x198a8 <post_process_2pass+0xd4>
   19898: 83 a5 4a 02  	lw	a1, 0x24(s5)
   1989c: 33 85 a5 00  	add	a0, a1, a0
   198a0: 23 a2 aa 02  	sw	a0, 0x24(s5)
   198a4: 23 a4 0a 02  	sw	zero, 0x28(s5)
   198a8: 6f a0 01 63  	jal	zero, 0x33ed8 <__riscv_restore_7>

00000000000198ac <jinit_inverse_dct>:
   198ac: ef a2 81 5f  	jal	t0, 0x33ea4 <__riscv_save_5>
   198b0: 13 04 05 00  	addi	s0, a0, 0x0
   198b4: 03 35 85 00  	ld	a0, 0x8(a0)
   198b8: 83 36 05 00  	ld	a3, 0x0(a0)
   198bc: 93 05 10 00  	addi	a1, zero, 0x1
   198c0: 13 06 00 08  	addi	a2, zero, 0x80
   198c4: 13 05 04 00  	addi	a0, s0, 0x0
   198c8: e7 80 06 00  	jalr	ra, 0x0(a3)
   198cc: 83 25 04 03  	lw	a1, 0x30(s0)
   198d0: 37 a6 01 00  	lui	a2, 0x1a
   198d4: 13 06 c6 93  	addi	a2, a2, -0x6c4
   198d8: 23 30 c5 00  	sd	a2, 0x0(a0)
   198dc: 23 34 a4 24  	sd	a0, 0x248(s0)
   198e0: 63 5c b0 04  	bge	zero, a1, 0x19938 <jinit_inverse_dct+0x8c>
   198e4: 83 35 84 12  	ld	a1, 0x128(s0)
   198e8: 93 04 00 00  	addi	s1, zero, 0x0
   198ec: 13 09 85 05  	addi	s2, a0, 0x58
   198f0: 93 89 85 05  	addi	s3, a1, 0x58
   198f4: 13 0a f0 ff  	addi	s4, zero, -0x1
   198f8: 03 35 84 00  	ld	a0, 0x8(s0)
   198fc: 83 36 05 00  	ld	a3, 0x0(a0)
   19900: 93 05 10 00  	addi	a1, zero, 0x1
   19904: 13 06 00 10  	addi	a2, zero, 0x100
   19908: 13 05 04 00  	addi	a0, s0, 0x0
   1990c: e7 80 06 00  	jalr	ra, 0x0(a3)
   19910: 23 b0 a9 00  	sd	a0, 0x0(s3)
   19914: 13 06 00 10  	addi	a2, zero, 0x100
   19918: 93 05 00 00  	addi	a1, zero, 0x0
   1991c: ef 80 40 3e  	jal	ra, 0x21d00 <memset>
   19920: 23 20 49 01  	sw	s4, 0x0(s2)
   19924: 03 25 04 03  	lw	a0, 0x30(s0)
   19928: 93 84 14 00  	addi	s1, s1, 0x1
   1992c: 13 09 49 00  	addi	s2, s2, 0x4
   19930: 93 89 09 06  	addi	s3, s3, 0x60
   19934: e3 c2 a4 fc  	blt	s1, a0, 0x198f8 <jinit_inverse_dct+0x4c>
   19938: 6f a0 61 5a  	jal	zero, 0x33ede <__riscv_restore_5>

000000000001993c <start_pass>:
   1993c: ef a2 21 54  	jal	t0, 0x33e7e <__riscv_save_12>
   19940: 13 01 01 fd  	addi	sp, sp, -0x30
   19944: 13 04 05 00  	addi	s0, a0, 0x0
   19948: 03 25 05 03  	lw	a0, 0x30(a0)
   1994c: 63 52 a0 22  	bge	zero, a0, 0x19b70 <start_pass+0x234>
   19950: 93 04 00 00  	addi	s1, zero, 0x0
   19954: 93 0b 00 00  	addi	s7, zero, 0x0
   19958: 13 0c 00 00  	addi	s8, zero, 0x0
   1995c: 03 39 84 24  	ld	s2, 0x248(s0)
   19960: 83 39 84 12  	ld	s3, 0x128(s0)
   19964: 37 b5 01 00  	lui	a0, 0x1b
   19968: 13 05 45 14  	addi	a0, a0, 0x144
   1996c: 23 34 a1 02  	sd	a0, 0x28(sp)
   19970: 37 b5 01 00  	lui	a0, 0x1b
   19974: 13 05 85 e9  	addi	a0, a0, -0x168
   19978: 23 30 a1 02  	sd	a0, 0x20(sp)
   1997c: 37 65 03 00  	lui	a0, 0x36
   19980: 13 05 85 fd  	addi	a0, a0, -0x28
   19984: 23 34 a1 00  	sd	a0, 0x8(sp)
   19988: 37 65 03 00  	lui	a0, 0x36
   1998c: 13 0d 85 05  	addi	s10, a0, 0x58
   19990: 93 0d 80 ff  	addi	s11, zero, -0x8
   19994: 37 b5 01 00  	lui	a0, 0x1b
   19998: 13 05 05 a0  	addi	a0, a0, -0x600
   1999c: 23 3c a1 00  	sd	a0, 0x18(sp)
   199a0: 37 65 03 00  	lui	a0, 0x36
   199a4: 13 05 85 09  	addi	a0, a0, 0x98
   199a8: 23 38 a1 00  	sd	a0, 0x10(sp)
   199ac: 03 a5 49 02  	lw	a0, 0x24(s3)
   199b0: 93 05 30 00  	addi	a1, zero, 0x3
   199b4: 63 c0 a5 02  	blt	a1, a0, 0x199d4 <start_pass+0x98>
   199b8: 93 05 10 00  	addi	a1, zero, 0x1
   199bc: 63 08 b5 06  	beq	a0, a1, 0x19a2c <start_pass+0xf0>
   199c0: 93 05 20 00  	addi	a1, zero, 0x2
   199c4: 63 12 b5 04  	bne	a0, a1, 0x19a08 <start_pass+0xcc>
   199c8: 93 0b 00 00  	addi	s7, zero, 0x0
   199cc: 03 3c 01 02  	ld	s8, 0x20(sp)
   199d0: 6f 00 c0 08  	jal	zero, 0x19a5c <start_pass+0x120>
   199d4: 93 05 40 00  	addi	a1, zero, 0x4
   199d8: 63 00 b5 06  	beq	a0, a1, 0x19a38 <start_pass+0xfc>
   199dc: 93 05 80 00  	addi	a1, zero, 0x8
   199e0: 63 14 b5 02  	bne	a0, a1, 0x19a08 <start_pass+0xcc>
   199e4: 03 25 84 05  	lw	a0, 0x58(s0)
   199e8: 93 05 30 00  	addi	a1, zero, 0x3
   199ec: 63 7c b5 04  	bgeu	a0, a1, 0x19a44 <start_pass+0x108>
   199f0: 93 15 35 00  	slli	a1, a0, 0x3
   199f4: 03 36 01 01  	ld	a2, 0x10(sp)
   199f8: b3 05 b6 00  	add	a1, a2, a1
   199fc: 03 bc 05 00  	ld	s8, 0x0(a1)
   19a00: 93 0b 05 00  	addi	s7, a0, 0x0
   19a04: 6f 00 80 05  	jal	zero, 0x19a5c <start_pass+0x120>
   19a08: 83 35 04 00  	ld	a1, 0x0(s0)
   19a0c: 23 a6 a5 02  	sw	a0, 0x2c(a1)
   19a10: 03 35 04 00  	ld	a0, 0x0(s0)
   19a14: 03 36 05 00  	ld	a2, 0x0(a0)
   19a18: 13 05 60 00  	addi	a0, zero, 0x6
   19a1c: 23 a4 a5 02  	sw	a0, 0x28(a1)
   19a20: 13 05 04 00  	addi	a0, s0, 0x0
   19a24: e7 00 06 00  	jalr	ra, 0x0(a2)
   19a28: 6f 00 40 03  	jal	zero, 0x19a5c <start_pass+0x120>
   19a2c: 93 0b 00 00  	addi	s7, zero, 0x0
   19a30: 03 3c 81 02  	ld	s8, 0x28(sp)
   19a34: 6f 00 80 02  	jal	zero, 0x19a5c <start_pass+0x120>
   19a38: 93 0b 00 00  	addi	s7, zero, 0x0
   19a3c: 03 3c 81 01  	ld	s8, 0x18(sp)
   19a40: 6f 00 c0 01  	jal	zero, 0x19a5c <start_pass+0x120>
   19a44: 03 35 04 00  	ld	a0, 0x0(s0)
   19a48: 83 35 05 00  	ld	a1, 0x0(a0)
   19a4c: 13 06 f0 02  	addi	a2, zero, 0x2f
   19a50: 23 24 c5 02  	sw	a2, 0x28(a0)
   19a54: 13 05 04 00  	addi	a0, s0, 0x0
   19a58: e7 80 05 00  	jalr	ra, 0x0(a1)
   19a5c: 03 a5 09 03  	lw	a0, 0x30(s3)
   19a60: 93 95 34 00  	slli	a1, s1, 0x3
   19a64: b3 05 b9 00  	add	a1, s2, a1
   19a68: 23 b4 85 01  	sd	s8, 0x8(a1)
   19a6c: 63 0a 05 0e  	beq	a0, zero, 0x19b60 <start_pass+0x224>
   19a70: 13 95 24 00  	slli	a0, s1, 0x2
   19a74: 33 05 a9 00  	add	a0, s2, a0
   19a78: 83 25 85 05  	lw	a1, 0x58(a0)
   19a7c: 63 82 75 0f  	beq	a1, s7, 0x19b60 <start_pass+0x224>
   19a80: 03 ba 09 05  	ld	s4, 0x50(s3)
   19a84: 63 0e 0a 0c  	beq	s4, zero, 0x19b60 <start_pass+0x224>
   19a88: 03 bb 89 05  	ld	s6, 0x58(s3)
   19a8c: 13 05 85 05  	addi	a0, a0, 0x58
   19a90: 23 20 75 01  	sw	s7, 0x0(a0)
   19a94: 63 82 0b 04  	beq	s7, zero, 0x19ad8 <start_pass+0x19c>
   19a98: 13 05 10 00  	addi	a0, zero, 0x1
   19a9c: 63 9c ab 04  	bne	s7, a0, 0x19af4 <start_pass+0x1b8>
   19aa0: 93 0a 0b 10  	addi	s5, s6, 0x100
   19aa4: 83 3c 81 00  	ld	s9, 0x8(sp)
   19aa8: 83 55 0a 00  	lhu	a1, 0x0(s4)
   19aac: 03 95 0c 00  	lh	a0, 0x0(s9)
   19ab0: ef a0 41 44  	jal	ra, 0x33ef4 <__muldi3>
   19ab4: 13 05 f5 7f  	addi	a0, a0, 0x7ff
   19ab8: 13 05 15 00  	addi	a0, a0, 0x1
   19abc: 13 55 c5 00  	srli	a0, a0, 0xc
   19ac0: 23 20 ab 00  	sw	a0, 0x0(s6)
   19ac4: 13 0b 4b 00  	addi	s6, s6, 0x4
   19ac8: 93 8c 2c 00  	addi	s9, s9, 0x2
   19acc: 13 0a 2a 00  	addi	s4, s4, 0x2
   19ad0: e3 1c 5b fd  	bne	s6, s5, 0x19aa8 <start_pass+0x16c>
   19ad4: 6f 00 c0 08  	jal	zero, 0x19b60 <start_pass+0x224>
   19ad8: 13 05 0b 10  	addi	a0, s6, 0x100
   19adc: 83 55 0a 00  	lhu	a1, 0x0(s4)
   19ae0: 23 20 bb 00  	sw	a1, 0x0(s6)
   19ae4: 13 0b 4b 00  	addi	s6, s6, 0x4
   19ae8: 13 0a 2a 00  	addi	s4, s4, 0x2
   19aec: e3 18 ab fe  	bne	s6, a0, 0x19adc <start_pass+0x1a0>
   19af0: 6f 00 00 07  	jal	zero, 0x19b60 <start_pass+0x224>
   19af4: 13 05 00 00  	addi	a0, zero, 0x0
   19af8: 93 05 00 00  	addi	a1, zero, 0x0
   19afc: 13 06 00 00  	addi	a2, zero, 0x0
   19b00: 93 16 35 00  	slli	a3, a0, 0x3
   19b04: b3 06 dd 00  	add	a3, s10, a3
   19b08: 87 b7 06 00  	fld	fa5, 0x0(a3)
   19b0c: 93 96 15 00  	slli	a3, a1, 0x1
   19b10: b3 06 da 00  	add	a3, s4, a3
   19b14: 13 97 25 00  	slli	a4, a1, 0x2
   19b18: 33 07 eb 00  	add	a4, s6, a4
   19b1c: 93 07 0d 00  	addi	a5, s10, 0x0
   19b20: 03 d8 06 00  	lhu	a6, 0x0(a3)
   19b24: 07 b7 07 00  	fld	fa4, 0x0(a5)
   19b28: d3 06 18 d2  	fcvt.d.wu	fa3, a6
   19b2c: d3 f6 d7 12  	fmul.d	fa3, fa5, fa3, dyn
   19b30: 53 f7 e6 12  	fmul.d	fa4, fa3, fa4, dyn
   19b34: 53 77 17 40  	fcvt.s.d	fa4, fa4, dyn
   19b38: 27 20 e7 00  	fsw	fa4, 0x0(a4)
   19b3c: 93 86 26 00  	addi	a3, a3, 0x2
   19b40: 13 07 47 00  	addi	a4, a4, 0x4
   19b44: 13 06 f6 ff  	addi	a2, a2, -0x1
   19b48: 93 87 87 00  	addi	a5, a5, 0x8
   19b4c: e3 1a b6 fd  	bne	a2, s11, 0x19b20 <start_pass+0x1e4>
   19b50: 13 05 15 00  	addi	a0, a0, 0x1
   19b54: bb 85 c5 40  	subw	a1, a1, a2
   19b58: 13 06 80 00  	addi	a2, zero, 0x8
   19b5c: e3 10 c5 fa  	bne	a0, a2, 0x19afc <start_pass+0x1c0>
   19b60: 03 25 04 03  	lw	a0, 0x30(s0)
   19b64: 93 84 14 00  	addi	s1, s1, 0x1
   19b68: 93 89 09 06  	addi	s3, s3, 0x60
   19b6c: e3 c0 a4 e4  	blt	s1, a0, 0x199ac <start_pass+0x70>
   19b70: 13 01 01 03  	addi	sp, sp, 0x30
   19b74: 6f a0 41 35  	jal	zero, 0x33ec8 <__riscv_restore_12>

0000000000019b78 <jpeg_idct_ifast>:
   19b78: ef a2 61 30  	jal	t0, 0x33e7e <__riscv_save_12>
   19b7c: 13 01 01 ee  	addi	sp, sp, -0x120
   19b80: 23 34 e1 00  	sd	a4, 0x8(sp)
   19b84: 13 84 06 00  	addi	s0, a3, 0x0
   19b88: 93 06 10 00  	addi	a3, zero, 0x1
   19b8c: 93 96 86 02  	slli	a3, a3, 0x28
   19b90: 93 86 36 d6  	addi	a3, a3, -0x29d
   19b94: 23 3c d1 00  	sd	a3, 0x18(sp)
   19b98: 83 b5 85 05  	ld	a1, 0x58(a1)
   19b9c: 13 09 01 02  	addi	s2, sp, 0x20
   19ba0: 03 35 85 19  	ld	a0, 0x198(a0)
   19ba4: 23 30 a1 00  	sd	a0, 0x0(sp)
   19ba8: 93 0d 06 04  	addi	s11, a2, 0x40
   19bac: 93 84 05 08  	addi	s1, a1, 0x80
   19bb0: 03 9b 0d fd  	lh	s6, -0x30(s11)
   19bb4: 03 9d 0d fe  	lh	s10, -0x20(s11)
   19bb8: 83 9a 0d ff  	lh	s5, -0x10(s11)
   19bbc: 83 9c 0d 00  	lh	s9, 0x0(s11)
   19bc0: 33 65 6d 01  	or	a0, s10, s6
   19bc4: b3 e5 9a 01  	or	a1, s5, s9
   19bc8: 33 66 b5 00  	or	a2, a0, a1
   19bcc: 03 9a 0d 01  	lh	s4, 0x10(s11)
   19bd0: 03 9c 0d 02  	lh	s8, 0x20(s11)
   19bd4: 83 99 0d 03  	lh	s3, 0x30(s11)
   19bd8: 83 95 0d fc  	lh	a1, -0x40(s11)
   19bdc: 03 a5 04 f8  	lw	a0, -0x80(s1)
   19be0: b3 66 8a 01  	or	a3, s4, s8
   19be4: b3 e6 36 01  	or	a3, a3, s3
   19be8: b3 6b d6 00  	or	s7, a2, a3
   19bec: ef a0 81 30  	jal	ra, 0x33ef4 <__muldi3>
   19bf0: 93 95 0b 03  	slli	a1, s7, 0x30
   19bf4: 93 0b 05 00  	addi	s7, a0, 0x0
   19bf8: 63 8e 05 14  	beq	a1, zero, 0x19d54 <jpeg_idct_ifast+0x1dc>
   19bfc: 03 a5 04 fc  	lw	a0, -0x40(s1)
   19c00: 93 05 0d 00  	addi	a1, s10, 0x0
   19c04: ef a0 01 2f  	jal	ra, 0x33ef4 <__muldi3>
   19c08: 83 a5 04 00  	lw	a1, 0x0(s1)
   19c0c: 13 0d 05 00  	addi	s10, a0, 0x0
   19c10: 13 85 05 00  	addi	a0, a1, 0x0
   19c14: 93 85 0c 00  	addi	a1, s9, 0x0
   19c18: ef a0 c1 2d  	jal	ra, 0x33ef4 <__muldi3>
   19c1c: 83 a5 04 04  	lw	a1, 0x40(s1)
   19c20: 93 0c 05 00  	addi	s9, a0, 0x0
   19c24: 13 85 05 00  	addi	a0, a1, 0x0
   19c28: 93 05 0c 00  	addi	a1, s8, 0x0
   19c2c: ef a0 81 2c  	jal	ra, 0x33ef4 <__muldi3>
   19c30: 33 8c 7c 01  	add	s8, s9, s7
   19c34: bb 8c 9b 41  	subw	s9, s7, s9
   19c38: b3 0b a5 01  	add	s7, a0, s10
   19c3c: 3b 05 ad 40  	subw	a0, s10, a0
   19c40: 93 05 a0 16  	addi	a1, zero, 0x16a
   19c44: ef a0 01 2b  	jal	ra, 0x33ef4 <__muldi3>
   19c48: 13 55 85 00  	srli	a0, a0, 0x8
   19c4c: bb 05 75 41  	subw	a1, a0, s7
   19c50: 33 85 8b 01  	add	a0, s7, s8
   19c54: 23 38 a1 00  	sd	a0, 0x10(sp)
   19c58: 03 a5 04 fa  	lw	a0, -0x60(s1)
   19c5c: 3b 0c 7c 41  	subw	s8, s8, s7
   19c60: 33 8d 95 01  	add	s10, a1, s9
   19c64: bb 8c bc 40  	subw	s9, s9, a1
   19c68: 93 05 0b 00  	addi	a1, s6, 0x0
   19c6c: ef a0 81 28  	jal	ra, 0x33ef4 <__muldi3>
   19c70: 83 a5 04 fe  	lw	a1, -0x20(s1)
   19c74: 13 0b 05 00  	addi	s6, a0, 0x0
   19c78: 13 85 05 00  	addi	a0, a1, 0x0
   19c7c: 93 85 0a 00  	addi	a1, s5, 0x0
   19c80: ef a0 41 27  	jal	ra, 0x33ef4 <__muldi3>
   19c84: 83 a5 04 02  	lw	a1, 0x20(s1)
   19c88: 93 0a 05 00  	addi	s5, a0, 0x0
   19c8c: 13 85 05 00  	addi	a0, a1, 0x0
   19c90: 93 05 0a 00  	addi	a1, s4, 0x0
   19c94: ef a0 01 26  	jal	ra, 0x33ef4 <__muldi3>
   19c98: 83 a5 04 06  	lw	a1, 0x60(s1)
   19c9c: 13 0a 05 00  	addi	s4, a0, 0x0
   19ca0: 13 85 05 00  	addi	a0, a1, 0x0
   19ca4: 93 85 09 00  	addi	a1, s3, 0x0
   19ca8: ef a0 c1 24  	jal	ra, 0x33ef4 <__muldi3>
   19cac: b3 05 5a 01  	add	a1, s4, s5
   19cb0: bb 09 5a 41  	subw	s3, s4, s5
   19cb4: 33 06 65 01  	add	a2, a0, s6
   19cb8: 3b 0a ab 40  	subw	s4, s6, a0
   19cbc: b3 0a b6 00  	add	s5, a2, a1
   19cc0: 3b 05 b6 40  	subw	a0, a2, a1
   19cc4: 93 05 a0 16  	addi	a1, zero, 0x16a
   19cc8: ef a0 c1 22  	jal	ra, 0x33ef4 <__muldi3>
   19ccc: 13 5b 85 00  	srli	s6, a0, 0x8
   19cd0: 3b 05 3a 01  	addw	a0, s4, s3
   19cd4: 93 05 90 1d  	addi	a1, zero, 0x1d9
   19cd8: ef a0 c1 21  	jal	ra, 0x33ef4 <__muldi3>
   19cdc: 93 5b 85 00  	srli	s7, a0, 0x8
   19ce0: 93 05 50 11  	addi	a1, zero, 0x115
   19ce4: 13 05 0a 00  	addi	a0, s4, 0x0
   19ce8: ef a0 c1 20  	jal	ra, 0x33ef4 <__muldi3>
   19cec: 13 55 85 00  	srli	a0, a0, 0x8
   19cf0: 3b 0a 75 41  	subw	s4, a0, s7
   19cf4: 13 85 09 00  	addi	a0, s3, 0x0
   19cf8: 83 35 81 01  	ld	a1, 0x18(sp)
   19cfc: ef a0 81 1f  	jal	ra, 0x33ef4 <__muldi3>
   19d00: 13 55 85 00  	srli	a0, a0, 0x8
   19d04: 3b 05 55 41  	subw	a0, a0, s5
   19d08: b3 0b 75 01  	add	s7, a0, s7
   19d0c: 3b 06 7b 41  	subw	a2, s6, s7
   19d10: 33 0a 46 01  	add	s4, a2, s4
   19d14: 83 35 01 01  	ld	a1, 0x10(sp)
   19d18: 33 85 ba 00  	add	a0, s5, a1
   19d1c: 23 20 a9 00  	sw	a0, 0x0(s2)
   19d20: 3b 85 55 41  	subw	a0, a1, s5
   19d24: b3 85 ab 01  	add	a1, s7, s10
   19d28: 23 20 b9 02  	sw	a1, 0x20(s2)
   19d2c: bb 05 7d 41  	subw	a1, s10, s7
   19d30: b3 06 96 01  	add	a3, a2, s9
   19d34: 23 20 d9 04  	sw	a3, 0x40(s2)
   19d38: 3b 86 cc 40  	subw	a2, s9, a2
   19d3c: 23 20 c9 0a  	sw	a2, 0xa0(s2)
   19d40: 33 06 8a 01  	add	a2, s4, s8
   19d44: 23 20 c9 08  	sw	a2, 0x80(s2)
   19d48: bb 0b 4c 41  	subw	s7, s8, s4
   19d4c: 13 06 80 01  	addi	a2, zero, 0x18
   19d50: 6f 00 40 02  	jal	zero, 0x19d74 <jpeg_idct_ifast+0x1fc>
   19d54: 23 20 79 01  	sw	s7, 0x0(s2)
   19d58: 23 20 79 03  	sw	s7, 0x20(s2)
   19d5c: 23 20 79 05  	sw	s7, 0x40(s2)
   19d60: 23 20 79 07  	sw	s7, 0x60(s2)
   19d64: 23 20 79 09  	sw	s7, 0x80(s2)
   19d68: 13 06 80 02  	addi	a2, zero, 0x28
   19d6c: 93 85 0b 00  	addi	a1, s7, 0x0
   19d70: 13 85 0b 00  	addi	a0, s7, 0x0
   19d74: 13 16 26 00  	slli	a2, a2, 0x2
   19d78: 33 06 c9 00  	add	a2, s2, a2
   19d7c: 23 20 76 01  	sw	s7, 0x0(a2)
   19d80: 23 20 b9 0c  	sw	a1, 0xc0(s2)
   19d84: 23 20 a9 0e  	sw	a0, 0xe0(s2)
   19d88: 13 09 49 00  	addi	s2, s2, 0x4
   19d8c: 93 8d 2d 00  	addi	s11, s11, 0x2
   19d90: 93 84 44 00  	addi	s1, s1, 0x4
   19d94: 13 05 01 04  	addi	a0, sp, 0x40
   19d98: e3 1c a9 e0  	bne	s2, a0, 0x19bb0 <jpeg_idct_ifast+0x38>
   19d9c: 03 35 01 00  	ld	a0, 0x0(sp)
   19da0: 93 04 05 08  	addi	s1, a0, 0x80
   19da4: 03 35 81 00  	ld	a0, 0x8(sp)
   19da8: 13 15 05 02  	slli	a0, a0, 0x20
   19dac: 13 55 05 02  	srli	a0, a0, 0x20
   19db0: 23 34 a1 00  	sd	a0, 0x8(sp)
   19db4: 93 09 01 03  	addi	s3, sp, 0x30
   19db8: 13 05 04 04  	addi	a0, s0, 0x40
   19dbc: 23 30 a1 00  	sd	a0, 0x0(sp)
   19dc0: 83 ac 49 ff  	lw	s9, -0xc(s3)
   19dc4: 03 a5 89 ff  	lw	a0, -0x8(s3)
   19dc8: 83 3a 04 00  	ld	s5, 0x0(s0)
   19dcc: 83 ad c9 ff  	lw	s11, -0x4(s3)
   19dd0: 83 a5 09 00  	lw	a1, 0x0(s3)
   19dd4: b3 66 95 01  	or	a3, a0, s9
   19dd8: 03 a9 49 00  	lw	s2, 0x4(s3)
   19ddc: 03 a6 89 00  	lw	a2, 0x8(s3)
   19de0: 33 e7 bd 00  	or	a4, s11, a1
   19de4: 03 aa c9 00  	lw	s4, 0xc(s3)
   19de8: 33 e7 e6 00  	or	a4, a3, a4
   19dec: b3 67 c9 00  	or	a5, s2, a2
   19df0: 83 a6 09 ff  	lw	a3, -0x10(s3)
   19df4: b3 e7 47 01  	or	a5, a5, s4
   19df8: 33 67 f7 00  	or	a4, a4, a5
   19dfc: 83 37 81 00  	ld	a5, 0x8(sp)
   19e00: b3 8a fa 00  	add	s5, s5, a5
   19e04: 63 04 07 18  	beq	a4, zero, 0x19f8c <jpeg_idct_ifast+0x414>
   19e08: 33 8b b6 00  	add	s6, a3, a1
   19e0c: bb 8b b6 40  	subw	s7, a3, a1
   19e10: 33 0c a6 00  	add	s8, a2, a0
   19e14: 3b 05 c5 40  	subw	a0, a0, a2
   19e18: 13 15 05 02  	slli	a0, a0, 0x20
   19e1c: 13 55 05 02  	srli	a0, a0, 0x20
   19e20: 93 05 a0 16  	addi	a1, zero, 0x16a
   19e24: ef a0 01 0d  	jal	ra, 0x33ef4 <__muldi3>
   19e28: 13 55 85 00  	srli	a0, a0, 0x8
   19e2c: 3b 05 85 41  	subw	a0, a0, s8
   19e30: 33 0d 8b 01  	add	s10, s6, s8
   19e34: 3b 0b 8b 41  	subw	s6, s6, s8
   19e38: 33 8c ab 00  	add	s8, s7, a0
   19e3c: bb 8b ab 40  	subw	s7, s7, a0
   19e40: 33 05 b9 01  	add	a0, s2, s11
   19e44: 3b 09 b9 41  	subw	s2, s2, s11
   19e48: b3 05 9a 01  	add	a1, s4, s9
   19e4c: 3b 8a 4c 41  	subw	s4, s9, s4
   19e50: b3 8d a5 00  	add	s11, a1, a0
   19e54: bb 85 a5 40  	subw	a1, a1, a0
   19e58: 13 95 05 02  	slli	a0, a1, 0x20
   19e5c: 13 55 05 02  	srli	a0, a0, 0x20
   19e60: 93 05 a0 16  	addi	a1, zero, 0x16a
   19e64: ef a0 01 09  	jal	ra, 0x33ef4 <__muldi3>
   19e68: 13 55 85 00  	srli	a0, a0, 0x8
   19e6c: 23 38 a1 00  	sd	a0, 0x10(sp)
   19e70: 33 05 2a 01  	add	a0, s4, s2
   19e74: 13 15 05 02  	slli	a0, a0, 0x20
   19e78: 13 55 05 02  	srli	a0, a0, 0x20
   19e7c: 93 05 90 1d  	addi	a1, zero, 0x1d9
   19e80: ef a0 41 07  	jal	ra, 0x33ef4 <__muldi3>
   19e84: 93 5c 85 00  	srli	s9, a0, 0x8
   19e88: 13 15 0a 02  	slli	a0, s4, 0x20
   19e8c: 13 55 05 02  	srli	a0, a0, 0x20
   19e90: 93 05 50 11  	addi	a1, zero, 0x115
   19e94: ef a0 01 06  	jal	ra, 0x33ef4 <__muldi3>
   19e98: 13 55 85 00  	srli	a0, a0, 0x8
   19e9c: 3b 0a 95 41  	subw	s4, a0, s9
   19ea0: 13 15 09 02  	slli	a0, s2, 0x20
   19ea4: 13 55 05 02  	srli	a0, a0, 0x20
   19ea8: 83 35 81 01  	ld	a1, 0x18(sp)
   19eac: ef a0 81 04  	jal	ra, 0x33ef4 <__muldi3>
   19eb0: b3 05 bd 01  	add	a1, s10, s11
   19eb4: 93 95 15 03  	slli	a1, a1, 0x31
   19eb8: 93 d5 65 03  	srli	a1, a1, 0x36
   19ebc: b3 85 b4 00  	add	a1, s1, a1
   19ec0: 83 c5 05 00  	lbu	a1, 0x0(a1)
   19ec4: 23 80 ba 00  	sb	a1, 0x0(s5)
   19ec8: bb 05 bd 41  	subw	a1, s10, s11
   19ecc: 93 95 15 03  	slli	a1, a1, 0x31
   19ed0: 93 d5 65 03  	srli	a1, a1, 0x36
   19ed4: b3 85 b4 00  	add	a1, s1, a1
   19ed8: 83 c5 05 00  	lbu	a1, 0x0(a1)
   19edc: 13 55 85 00  	srli	a0, a0, 0x8
   19ee0: 3b 05 b5 41  	subw	a0, a0, s11
   19ee4: 33 05 95 01  	add	a0, a0, s9
   19ee8: a3 83 ba 00  	sb	a1, 0x7(s5)
   19eec: b3 05 ac 00  	add	a1, s8, a0
   19ef0: 93 95 15 03  	slli	a1, a1, 0x31
   19ef4: 93 d5 65 03  	srli	a1, a1, 0x36
   19ef8: b3 85 b4 00  	add	a1, s1, a1
   19efc: 83 c5 05 00  	lbu	a1, 0x0(a1)
   19f00: a3 80 ba 00  	sb	a1, 0x1(s5)
   19f04: bb 05 ac 40  	subw	a1, s8, a0
   19f08: 93 95 15 03  	slli	a1, a1, 0x31
   19f0c: 93 d5 65 03  	srli	a1, a1, 0x36
   19f10: b3 85 b4 00  	add	a1, s1, a1
   19f14: 83 c5 05 00  	lbu	a1, 0x0(a1)
   19f18: 03 36 01 01  	ld	a2, 0x10(sp)
   19f1c: 3b 05 a6 40  	subw	a0, a2, a0
   19f20: 23 83 ba 00  	sb	a1, 0x6(s5)
   19f24: b3 85 ab 00  	add	a1, s7, a0
   19f28: 93 95 15 03  	slli	a1, a1, 0x31
   19f2c: 93 d5 65 03  	srli	a1, a1, 0x36
   19f30: b3 85 b4 00  	add	a1, s1, a1
   19f34: 83 c5 05 00  	lbu	a1, 0x0(a1)
   19f38: 23 81 ba 00  	sb	a1, 0x2(s5)
   19f3c: bb 85 ab 40  	subw	a1, s7, a0
   19f40: 93 95 15 03  	slli	a1, a1, 0x31
   19f44: 93 d5 65 03  	srli	a1, a1, 0x36
   19f48: b3 85 b4 00  	add	a1, s1, a1
   19f4c: 83 c5 05 00  	lbu	a1, 0x0(a1)
   19f50: 33 05 45 01  	add	a0, a0, s4
   19f54: a3 82 ba 00  	sb	a1, 0x5(s5)
   19f58: b3 05 ab 00  	add	a1, s6, a0
   19f5c: 93 95 15 03  	slli	a1, a1, 0x31
   19f60: 93 d5 65 03  	srli	a1, a1, 0x36
   19f64: b3 85 b4 00  	add	a1, s1, a1
   19f68: 83 c5 05 00  	lbu	a1, 0x0(a1)
   19f6c: 23 82 ba 00  	sb	a1, 0x4(s5)
   19f70: 3b 05 ab 40  	subw	a0, s6, a0
   19f74: 13 15 15 03  	slli	a0, a0, 0x31
   19f78: 13 55 65 03  	srli	a0, a0, 0x36
   19f7c: 33 85 a4 00  	add	a0, s1, a0
   19f80: 03 45 05 00  	lbu	a0, 0x0(a0)
   19f84: 93 05 30 00  	addi	a1, zero, 0x3
   19f88: 6f 00 40 03  	jal	zero, 0x19fbc <jpeg_idct_ifast+0x444>
   19f8c: 93 96 16 03  	slli	a3, a3, 0x31
   19f90: 93 d6 66 03  	srli	a3, a3, 0x36
   19f94: b3 86 d4 00  	add	a3, s1, a3
   19f98: 03 c5 06 00  	lbu	a0, 0x0(a3)
   19f9c: 23 80 aa 00  	sb	a0, 0x0(s5)
   19fa0: a3 80 aa 00  	sb	a0, 0x1(s5)
   19fa4: 23 81 aa 00  	sb	a0, 0x2(s5)
   19fa8: a3 81 aa 00  	sb	a0, 0x3(s5)
   19fac: 23 82 aa 00  	sb	a0, 0x4(s5)
   19fb0: a3 82 aa 00  	sb	a0, 0x5(s5)
   19fb4: 23 83 aa 00  	sb	a0, 0x6(s5)
   19fb8: 93 05 70 00  	addi	a1, zero, 0x7
   19fbc: b3 85 ba 00  	add	a1, s5, a1
   19fc0: 23 80 a5 00  	sb	a0, 0x0(a1)
   19fc4: 13 04 84 00  	addi	s0, s0, 0x8
   19fc8: 93 89 09 02  	addi	s3, s3, 0x20
   19fcc: 03 35 01 00  	ld	a0, 0x0(sp)
   19fd0: e3 18 a4 de  	bne	s0, a0, 0x19dc0 <jpeg_idct_ifast+0x248>
   19fd4: 13 01 01 12  	addi	sp, sp, 0x120
   19fd8: 6f 90 11 6f  	jal	zero, 0x33ec8 <__riscv_restore_12>

0000000000019fdc <jpeg_idct_float>:
   19fdc: ef 92 31 6d  	jal	t0, 0x33eae <__riscv_save_3>
   19fe0: 13 01 01 f0  	addi	sp, sp, -0x100
   19fe4: 03 35 85 19  	ld	a0, 0x198(a0)
   19fe8: 83 b7 85 05  	ld	a5, 0x58(a1)
   19fec: 93 05 06 04  	addi	a1, a2, 0x40
   19ff0: 87 a7 01 1e  	flw	fa5, 0x1e0(gp)
   19ff4: 07 a7 41 1e  	flw	fa4, 0x1e4(gp)
   19ff8: 87 a6 81 1e  	flw	fa3, 0x1e8(gp)
   19ffc: 07 a6 c1 1e  	flw	fa2, 0x1ec(gp)
   1a000: 13 86 07 08  	addi	a2, a5, 0x80
   1a004: 93 07 01 00  	addi	a5, sp, 0x0
   1a008: 13 08 01 02  	addi	a6, sp, 0x20
   1a00c: 83 d3 05 fd  	lhu	t2, -0x30(a1)
   1a010: 03 df 05 fe  	lhu	t5, -0x20(a1)
   1a014: 03 d3 05 ff  	lhu	t1, -0x10(a1)
   1a018: 83 de 05 00  	lhu	t4, 0x0(a1)
   1a01c: b3 6f 7f 00  	or	t6, t5, t2
   1a020: 83 d2 05 01  	lhu	t0, 0x10(a1)
   1a024: 03 de 05 02  	lhu	t3, 0x20(a1)
   1a028: 33 64 d3 01  	or	s0, t1, t4
   1a02c: 83 d8 05 03  	lhu	a7, 0x30(a1)
   1a030: b3 ef 8f 00  	or	t6, t6, s0
   1a034: 33 e4 c2 01  	or	s0, t0, t3
   1a038: 83 94 05 fc  	lh	s1, -0x40(a1)
   1a03c: 33 64 14 01  	or	s0, s0, a7
   1a040: 87 25 06 f8  	flw	fa1, -0x80(a2)
   1a044: b3 ef 8f 00  	or	t6, t6, s0
   1a048: 53 f5 04 d0  	fcvt.s.w	fa0, s1, dyn
   1a04c: 93 9f 0f 03  	slli	t6, t6, 0x30
   1a050: d3 f5 a5 10  	fmul.s	fa1, fa1, fa0, dyn
   1a054: 63 82 0f 12  	beq	t6, zero, 0x1a178 <jpeg_idct_float+0x19c>
   1a058: 07 25 06 fc  	flw	fa0, -0x40(a2)
   1a05c: 13 1f 0f 03  	slli	t5, t5, 0x30
   1a060: 13 5f 0f 43  	srai	t5, t5, 0x30
   1a064: 53 70 0f d0  	fcvt.s.w	ft0, t5, dyn
   1a068: 53 75 05 10  	fmul.s	fa0, fa0, ft0, dyn
   1a06c: 07 20 06 00  	flw	ft0, 0x0(a2)
   1a070: 93 9e 0e 03  	slli	t4, t4, 0x30
   1a074: 93 de 0e 43  	srai	t4, t4, 0x30
   1a078: d3 f0 0e d0  	fcvt.s.w	ft1, t4, dyn
   1a07c: 53 70 10 10  	fmul.s	ft0, ft0, ft1, dyn
   1a080: 87 20 06 04  	flw	ft1, 0x40(a2)
   1a084: 13 1e 0e 03  	slli	t3, t3, 0x30
   1a088: 13 5e 0e 43  	srai	t3, t3, 0x30
   1a08c: 53 71 0e d0  	fcvt.s.w	ft2, t3, dyn
   1a090: d3 f0 20 10  	fmul.s	ft1, ft1, ft2, dyn
   1a094: 53 f1 05 00  	fadd.s	ft2, fa1, ft0, dyn
   1a098: d3 f5 05 08  	fsub.s	fa1, fa1, ft0, dyn
   1a09c: 53 70 15 00  	fadd.s	ft0, fa0, ft1, dyn
   1a0a0: 53 75 15 08  	fsub.s	fa0, fa0, ft1, dyn
   1a0a4: 47 75 f5 00  	fmsub.s	fa0, fa0, fa5, ft0, dyn
   1a0a8: d3 70 01 00  	fadd.s	ft1, ft2, ft0, dyn
   1a0ac: 53 71 01 08  	fsub.s	ft2, ft2, ft0, dyn
   1a0b0: 53 f0 a5 00  	fadd.s	ft0, fa1, fa0, dyn
   1a0b4: d3 f5 a5 08  	fsub.s	fa1, fa1, fa0, dyn
   1a0b8: 07 25 06 fa  	flw	fa0, -0x60(a2)
   1a0bc: 93 93 03 03  	slli	t2, t2, 0x30
   1a0c0: 93 d3 03 43  	srai	t2, t2, 0x30
   1a0c4: d3 f1 03 d0  	fcvt.s.w	ft3, t2, dyn
   1a0c8: 53 75 35 10  	fmul.s	fa0, fa0, ft3, dyn
   1a0cc: 87 21 06 fe  	flw	ft3, -0x20(a2)
   1a0d0: 13 13 03 03  	slli	t1, t1, 0x30
   1a0d4: 13 53 03 43  	srai	t1, t1, 0x30
   1a0d8: 53 72 03 d0  	fcvt.s.w	ft4, t1, dyn
   1a0dc: d3 f1 41 10  	fmul.s	ft3, ft3, ft4, dyn
   1a0e0: 07 22 06 02  	flw	ft4, 0x20(a2)
   1a0e4: 93 92 02 03  	slli	t0, t0, 0x30
   1a0e8: 93 d2 02 43  	srai	t0, t0, 0x30
   1a0ec: d3 f2 02 d0  	fcvt.s.w	ft5, t0, dyn
   1a0f0: 53 72 52 10  	fmul.s	ft4, ft4, ft5, dyn
   1a0f4: 87 22 06 06  	flw	ft5, 0x60(a2)
   1a0f8: 93 98 08 03  	slli	a7, a7, 0x30
   1a0fc: 93 d8 08 43  	srai	a7, a7, 0x30
   1a100: 53 f3 08 d0  	fcvt.s.w	ft6, a7, dyn
   1a104: d3 f2 62 10  	fmul.s	ft5, ft5, ft6, dyn
   1a108: 53 f3 41 00  	fadd.s	ft6, ft3, ft4, dyn
   1a10c: d3 71 32 08  	fsub.s	ft3, ft4, ft3, dyn
   1a110: 53 72 55 00  	fadd.s	ft4, fa0, ft5, dyn
   1a114: 53 75 55 08  	fsub.s	fa0, fa0, ft5, dyn
   1a118: d3 72 43 00  	fadd.s	ft5, ft6, ft4, dyn
   1a11c: 53 72 62 08  	fsub.s	ft4, ft4, ft6, dyn
   1a120: 53 72 f2 10  	fmul.s	ft4, ft4, fa5, dyn
   1a124: 53 f3 a1 00  	fadd.s	ft6, ft3, fa0, dyn
   1a128: 53 73 e3 10  	fmul.s	ft6, ft6, fa4, dyn
   1a12c: 47 75 d5 30  	fmsub.s	fa0, fa0, fa3, ft6, dyn
   1a130: c3 f1 c1 30  	fmadd.s	ft3, ft3, fa2, ft6, dyn
   1a134: d3 f1 51 08  	fsub.s	ft3, ft3, ft5, dyn
   1a138: 53 72 32 08  	fsub.s	ft4, ft4, ft3, dyn
   1a13c: 53 73 45 00  	fadd.s	ft6, fa0, ft4, dyn
   1a140: 53 f5 50 00  	fadd.s	fa0, ft1, ft5, dyn
   1a144: 27 a0 a7 00  	fsw	fa0, 0x0(a5)
   1a148: 53 f5 50 08  	fsub.s	fa0, ft1, ft5, dyn
   1a14c: d3 70 30 00  	fadd.s	ft1, ft0, ft3, dyn
   1a150: 27 a0 17 02  	fsw	ft1, 0x20(a5)
   1a154: 53 70 30 08  	fsub.s	ft0, ft0, ft3, dyn
   1a158: d3 f0 45 00  	fadd.s	ft1, fa1, ft4, dyn
   1a15c: 27 a0 17 04  	fsw	ft1, 0x40(a5)
   1a160: d3 f0 45 08  	fsub.s	ft1, fa1, ft4, dyn
   1a164: d3 75 61 00  	fadd.s	fa1, ft2, ft6, dyn
   1a168: 27 a0 b7 08  	fsw	fa1, 0x80(a5)
   1a16c: d3 75 61 08  	fsub.s	fa1, ft2, ft6, dyn
   1a170: 93 08 80 01  	addi	a7, zero, 0x18
   1a174: 6f 00 40 02  	jal	zero, 0x1a198 <jpeg_idct_float+0x1bc>
   1a178: 27 a0 b7 00  	fsw	fa1, 0x0(a5)
   1a17c: 27 a0 b7 02  	fsw	fa1, 0x20(a5)
   1a180: 27 a0 b7 04  	fsw	fa1, 0x40(a5)
   1a184: 27 a0 b7 06  	fsw	fa1, 0x60(a5)
   1a188: 93 08 00 02  	addi	a7, zero, 0x20
   1a18c: d3 80 b5 20  	fsgnj.s	ft1, fa1, fa1
   1a190: 53 80 b5 20  	fsgnj.s	ft0, fa1, fa1
   1a194: 53 85 b5 20  	fsgnj.s	fa0, fa1, fa1
   1a198: 93 98 28 00  	slli	a7, a7, 0x2
   1a19c: b3 88 17 01  	add	a7, a5, a7
   1a1a0: 27 a0 b8 00  	fsw	fa1, 0x0(a7)
   1a1a4: 27 a0 17 0a  	fsw	ft1, 0xa0(a5)
   1a1a8: 27 a0 07 0c  	fsw	ft0, 0xc0(a5)
   1a1ac: 27 a0 a7 0e  	fsw	fa0, 0xe0(a5)
   1a1b0: 93 87 47 00  	addi	a5, a5, 0x4
   1a1b4: 93 85 25 00  	addi	a1, a1, 0x2
   1a1b8: 13 06 46 00  	addi	a2, a2, 0x4
   1a1bc: e3 98 07 e5  	bne	a5, a6, 0x1a00c <jpeg_idct_float+0x30>
   1a1c0: 13 05 05 08  	addi	a0, a0, 0x80
   1a1c4: 93 15 07 02  	slli	a1, a4, 0x20
   1a1c8: 87 a7 01 1e  	flw	fa5, 0x1e0(gp)
   1a1cc: 07 a7 41 1e  	flw	fa4, 0x1e4(gp)
   1a1d0: 87 a6 81 1e  	flw	fa3, 0x1e8(gp)
   1a1d4: 07 a6 c1 1e  	flw	fa2, 0x1ec(gp)
   1a1d8: 93 d5 05 02  	srli	a1, a1, 0x20
   1a1dc: 13 06 01 00  	addi	a2, sp, 0x0
   1a1e0: 13 07 01 10  	addi	a4, sp, 0x100
   1a1e4: 83 b7 06 00  	ld	a5, 0x0(a3)
   1a1e8: 07 25 06 00  	flw	fa0, 0x0(a2)
   1a1ec: 07 20 06 01  	flw	ft0, 0x10(a2)
   1a1f0: 87 20 86 00  	flw	ft1, 0x8(a2)
   1a1f4: 07 21 86 01  	flw	ft2, 0x18(a2)
   1a1f8: b3 87 b7 00  	add	a5, a5, a1
   1a1fc: d3 75 05 00  	fadd.s	fa1, fa0, ft0, dyn
   1a200: d3 71 05 08  	fsub.s	ft3, fa0, ft0, dyn
   1a204: 53 f5 20 00  	fadd.s	fa0, ft1, ft2, dyn
   1a208: 53 f0 20 08  	fsub.s	ft0, ft1, ft2, dyn
   1a20c: c7 70 f0 50  	fmsub.s	ft1, ft0, fa5, fa0, dyn
   1a210: 07 20 46 01  	flw	ft0, 0x14(a2)
   1a214: 07 21 c6 00  	flw	ft2, 0xc(a2)
   1a218: 07 22 46 00  	flw	ft4, 0x4(a2)
   1a21c: 87 22 c6 01  	flw	ft5, 0x1c(a2)
   1a220: 53 f3 a5 00  	fadd.s	ft6, fa1, fa0, dyn
   1a224: d3 73 20 00  	fadd.s	ft7, ft0, ft2, dyn
   1a228: 53 71 20 08  	fsub.s	ft2, ft0, ft2, dyn
   1a22c: 53 78 52 00  	fadd.s	fa6, ft4, ft5, dyn
   1a230: 53 70 52 08  	fsub.s	ft0, ft4, ft5, dyn
   1a234: 53 f2 03 01  	fadd.s	ft4, ft7, fa6, dyn
   1a238: d3 72 43 00  	fadd.s	ft5, ft6, ft4, dyn
   1a23c: 53 98 22 c0  	fcvt.l.s	a6, ft5, rtz
   1a240: d3 f2 11 00  	fadd.s	ft5, ft3, ft1, dyn
   1a244: 13 08 48 00  	addi	a6, a6, 0x4
   1a248: 13 18 38 03  	slli	a6, a6, 0x33
   1a24c: 13 58 68 03  	srli	a6, a6, 0x36
   1a250: 33 08 05 01  	add	a6, a0, a6
   1a254: 03 48 08 00  	lbu	a6, 0x0(a6)
   1a258: 53 73 43 08  	fsub.s	ft6, ft6, ft4, dyn
   1a25c: d3 18 23 c0  	fcvt.l.s	a7, ft6, rtz
   1a260: 53 73 01 00  	fadd.s	ft6, ft2, ft0, dyn
   1a264: 53 73 e3 10  	fmul.s	ft6, ft6, fa4, dyn
   1a268: 43 71 c1 30  	fmadd.s	ft2, ft2, fa2, ft6, dyn
   1a26c: 23 80 07 01  	sb	a6, 0x0(a5)
   1a270: 93 88 48 00  	addi	a7, a7, 0x4
   1a274: 93 98 38 03  	slli	a7, a7, 0x33
   1a278: 13 d8 68 03  	srli	a6, a7, 0x36
   1a27c: 33 08 05 01  	add	a6, a0, a6
   1a280: 03 48 08 00  	lbu	a6, 0x0(a6)
   1a284: 53 71 41 08  	fsub.s	ft2, ft2, ft4, dyn
   1a288: 53 f2 22 00  	fadd.s	ft4, ft5, ft2, dyn
   1a28c: d3 18 22 c0  	fcvt.l.s	a7, ft4, rtz
   1a290: a3 83 07 01  	sb	a6, 0x7(a5)
   1a294: 93 88 48 00  	addi	a7, a7, 0x4
   1a298: 93 98 38 03  	slli	a7, a7, 0x33
   1a29c: 13 d8 68 03  	srli	a6, a7, 0x36
   1a2a0: 33 08 05 01  	add	a6, a0, a6
   1a2a4: 03 48 08 00  	lbu	a6, 0x0(a6)
   1a2a8: d3 f0 11 08  	fsub.s	ft1, ft3, ft1, dyn
   1a2ac: a3 80 07 01  	sb	a6, 0x1(a5)
   1a2b0: d3 f1 22 08  	fsub.s	ft3, ft5, ft2, dyn
   1a2b4: 53 98 21 c0  	fcvt.l.s	a6, ft3, rtz
   1a2b8: 13 08 48 00  	addi	a6, a6, 0x4
   1a2bc: 13 18 38 03  	slli	a6, a6, 0x33
   1a2c0: 13 58 68 03  	srli	a6, a6, 0x36
   1a2c4: 33 08 05 01  	add	a6, a0, a6
   1a2c8: 03 48 08 00  	lbu	a6, 0x0(a6)
   1a2cc: d3 71 78 08  	fsub.s	ft3, fa6, ft7, dyn
   1a2d0: d3 f1 f1 10  	fmul.s	ft3, ft3, fa5, dyn
   1a2d4: 53 f1 21 08  	fsub.s	ft2, ft3, ft2, dyn
   1a2d8: 23 83 07 01  	sb	a6, 0x6(a5)
   1a2dc: d3 f1 20 00  	fadd.s	ft3, ft1, ft2, dyn
   1a2e0: 53 98 21 c0  	fcvt.l.s	a6, ft3, rtz
   1a2e4: 13 08 48 00  	addi	a6, a6, 0x4
   1a2e8: 13 18 38 03  	slli	a6, a6, 0x33
   1a2ec: 13 58 68 03  	srli	a6, a6, 0x36
   1a2f0: 33 08 05 01  	add	a6, a0, a6
   1a2f4: 03 48 08 00  	lbu	a6, 0x0(a6)
   1a2f8: 23 81 07 01  	sb	a6, 0x2(a5)
   1a2fc: d3 f0 20 08  	fsub.s	ft1, ft1, ft2, dyn
   1a300: 53 98 20 c0  	fcvt.l.s	a6, ft1, rtz
   1a304: 13 08 48 00  	addi	a6, a6, 0x4
   1a308: 13 18 38 03  	slli	a6, a6, 0x33
   1a30c: 13 58 68 03  	srli	a6, a6, 0x36
   1a310: 33 08 05 01  	add	a6, a0, a6
   1a314: 03 48 08 00  	lbu	a6, 0x0(a6)
   1a318: d3 f5 a5 08  	fsub.s	fa1, fa1, fa0, dyn
   1a31c: 47 75 d0 30  	fmsub.s	fa0, ft0, fa3, ft6, dyn
   1a320: 53 75 25 00  	fadd.s	fa0, fa0, ft2, dyn
   1a324: a3 82 07 01  	sb	a6, 0x5(a5)
   1a328: 53 f0 a5 00  	fadd.s	ft0, fa1, fa0, dyn
   1a32c: 53 18 20 c0  	fcvt.l.s	a6, ft0, rtz
   1a330: 13 08 48 00  	addi	a6, a6, 0x4
   1a334: 13 18 38 03  	slli	a6, a6, 0x33
   1a338: 13 58 68 03  	srli	a6, a6, 0x36
   1a33c: 33 08 05 01  	add	a6, a0, a6
   1a340: 03 48 08 00  	lbu	a6, 0x0(a6)
   1a344: 23 82 07 01  	sb	a6, 0x4(a5)
   1a348: d3 f5 a5 08  	fsub.s	fa1, fa1, fa0, dyn
   1a34c: 53 98 25 c0  	fcvt.l.s	a6, fa1, rtz
   1a350: 13 08 48 00  	addi	a6, a6, 0x4
   1a354: 13 18 38 03  	slli	a6, a6, 0x33
   1a358: 13 58 68 03  	srli	a6, a6, 0x36
   1a35c: 33 08 05 01  	add	a6, a0, a6
   1a360: 03 48 08 00  	lbu	a6, 0x0(a6)
   1a364: a3 81 07 01  	sb	a6, 0x3(a5)
   1a368: 13 06 06 02  	addi	a2, a2, 0x20
   1a36c: 93 86 86 00  	addi	a3, a3, 0x8
   1a370: e3 1a e6 e6  	bne	a2, a4, 0x1a1e4 <jpeg_idct_float+0x208>
   1a374: 13 01 01 10  	addi	sp, sp, 0x100
   1a378: 6f 90 d1 36  	jal	zero, 0x33ee4 <__riscv_restore_3>

000000000001a37c <jpeg_idct_islow>:
   1a37c: ef 92 31 30  	jal	t0, 0x33e7e <__riscv_save_12>
   1a380: 13 01 01 e6  	addi	sp, sp, -0x1a0
   1a384: 23 3c e1 00  	sd	a4, 0x18(sp)
   1a388: 23 34 d1 08  	sd	a3, 0x88(sp)
   1a38c: 93 0d 06 00  	addi	s11, a2, 0x0
   1a390: 37 f6 ff ff  	lui	a2, 0xfffff
   1a394: 1b 06 46 38  	addiw	a2, a2, 0x384
   1a398: 23 30 c1 08  	sd	a2, 0x80(sp)
   1a39c: 37 e6 ff ff  	lui	a2, 0xffffe
   1a3a0: 1b 06 36 33  	addiw	a2, a2, 0x333
   1a3a4: 23 3c c1 06  	sd	a2, 0x78(sp)
   1a3a8: 37 c6 ff ff  	lui	a2, 0xffffc
   1a3ac: 1b 06 b6 13  	addiw	a2, a2, 0x13b
   1a3b0: 23 3c c1 08  	sd	a2, 0x98(sp)
   1a3b4: 37 b6 ff ff  	lui	a2, 0xffffb
   1a3b8: 1b 06 d6 df  	addiw	a2, a2, -0x203
   1a3bc: 23 38 c1 06  	sd	a2, 0x70(sp)
   1a3c0: 37 66 00 00  	lui	a2, 0x6
   1a3c4: 1b 06 46 25  	addiw	a2, a2, 0x254
   1a3c8: 23 34 c1 06  	sd	a2, 0x68(sp)
   1a3cc: 37 46 00 00  	lui	a2, 0x4
   1a3d0: 1b 06 36 1b  	addiw	a2, a2, 0x1b3
   1a3d4: 23 30 c1 06  	sd	a2, 0x60(sp)
   1a3d8: 37 36 00 00  	lui	a2, 0x3
   1a3dc: 1b 06 b6 00  	addiw	a2, a2, 0xb
   1a3e0: 23 3c c1 04  	sd	a2, 0x58(sp)
   1a3e4: 37 26 00 00  	lui	a2, 0x2
   1a3e8: 9b 06 16 5a  	addiw	a3, a2, 0x5a1
   1a3ec: 23 38 d1 04  	sd	a3, 0x50(sp)
   1a3f0: 1b 06 e6 87  	addiw	a2, a2, -0x782
   1a3f4: 23 34 c1 04  	sd	a2, 0x48(sp)
   1a3f8: 37 16 00 00  	lui	a2, 0x1
   1a3fc: 03 35 85 19  	ld	a0, 0x198(a0)
   1a400: 23 38 a1 00  	sd	a0, 0x10(sp)
   1a404: 03 bd 85 05  	ld	s10, 0x58(a1)
   1a408: 1b 05 e6 98  	addiw	a0, a2, -0x672
   1a40c: 23 38 a1 08  	sd	a0, 0x90(sp)
   1a410: 13 04 01 0a  	addi	s0, sp, 0xa0
   1a414: 13 85 0d 01  	addi	a0, s11, 0x10
   1a418: 23 30 a1 02  	sd	a0, 0x20(sp)
   1a41c: 83 94 0d 01  	lh	s1, 0x10(s11)
   1a420: 83 95 0d 02  	lh	a1, 0x20(s11)
   1a424: 33 e5 95 00  	or	a0, a1, s1
   1a428: 03 99 0d 03  	lh	s2, 0x30(s11)
   1a42c: 03 9b 0d 04  	lh	s6, 0x40(s11)
   1a430: 03 9a 0d 05  	lh	s4, 0x50(s11)
   1a434: 83 9b 0d 06  	lh	s7, 0x60(s11)
   1a438: 83 9a 0d 07  	lh	s5, 0x70(s11)
   1a43c: 33 66 69 01  	or	a2, s2, s6
   1a440: 33 65 c5 00  	or	a0, a0, a2
   1a444: 33 66 7a 01  	or	a2, s4, s7
   1a448: 33 66 56 01  	or	a2, a2, s5
   1a44c: 33 65 c5 00  	or	a0, a0, a2
   1a450: 13 15 05 03  	slli	a0, a0, 0x30
   1a454: 63 00 05 24  	beq	a0, zero, 0x1a694 <jpeg_idct_islow+0x318>
   1a458: 03 25 0d 04  	lw	a0, 0x40(s10)
   1a45c: ef 90 91 29  	jal	ra, 0x33ef4 <__muldi3>
   1a460: 83 25 0d 0c  	lw	a1, 0xc0(s10)
   1a464: 1b 0c 05 00  	addiw	s8, a0, 0x0
   1a468: 13 85 05 00  	addi	a0, a1, 0x0
   1a46c: 93 85 0b 00  	addi	a1, s7, 0x0
   1a470: ef 90 51 28  	jal	ra, 0x33ef4 <__muldi3>
   1a474: 9b 0b 05 00  	addiw	s7, a0, 0x0
   1a478: 33 85 8b 01  	add	a0, s7, s8
   1a47c: 83 35 01 09  	ld	a1, 0x90(sp)
   1a480: 93 85 35 7c  	addi	a1, a1, 0x7c3
   1a484: ef 90 11 27  	jal	ra, 0x33ef4 <__muldi3>
   1a488: 93 0c 05 00  	addi	s9, a0, 0x0
   1a48c: 03 35 81 09  	ld	a0, 0x98(sp)
   1a490: 93 05 45 3a  	addi	a1, a0, 0x3a4
   1a494: 13 85 0b 00  	addi	a0, s7, 0x0
   1a498: ef 90 d1 25  	jal	ra, 0x33ef4 <__muldi3>
   1a49c: b3 89 ac 00  	add	s3, s9, a0
   1a4a0: 13 05 0c 00  	addi	a0, s8, 0x0
   1a4a4: 83 35 81 04  	ld	a1, 0x48(sp)
   1a4a8: ef 90 d1 24  	jal	ra, 0x33ef4 <__muldi3>
   1a4ac: 83 95 0d 00  	lh	a1, 0x0(s11)
   1a4b0: 03 26 0d 00  	lw	a2, 0x0(s10)
   1a4b4: b3 8c ac 00  	add	s9, s9, a0
   1a4b8: 13 05 06 00  	addi	a0, a2, 0x0
   1a4bc: ef 90 91 23  	jal	ra, 0x33ef4 <__muldi3>
   1a4c0: 83 25 0d 08  	lw	a1, 0x80(s10)
   1a4c4: 9b 0b 05 00  	addiw	s7, a0, 0x0
   1a4c8: 13 85 05 00  	addi	a0, a1, 0x0
   1a4cc: 93 05 0b 00  	addi	a1, s6, 0x0
   1a4d0: ef 90 51 22  	jal	ra, 0x33ef4 <__muldi3>
   1a4d4: 1b 05 05 00  	addiw	a0, a0, 0x0
   1a4d8: b3 05 75 01  	add	a1, a0, s7
   1a4dc: 93 95 d5 00  	slli	a1, a1, 0xd
   1a4e0: 33 85 ab 40  	sub	a0, s7, a0
   1a4e4: 13 16 d5 00  	slli	a2, a0, 0xd
   1a4e8: 33 85 95 01  	add	a0, a1, s9
   1a4ec: 23 38 a1 02  	sd	a0, 0x30(sp)
   1a4f0: 03 25 0d 0e  	lw	a0, 0xe0(s10)
   1a4f4: b3 85 95 41  	sub	a1, a1, s9
   1a4f8: 23 30 b1 04  	sd	a1, 0x40(sp)
   1a4fc: b3 05 36 01  	add	a1, a2, s3
   1a500: 23 34 b1 02  	sd	a1, 0x28(sp)
   1a504: b3 05 36 41  	sub	a1, a2, s3
   1a508: 23 3c b1 02  	sd	a1, 0x38(sp)
   1a50c: 93 85 0a 00  	addi	a1, s5, 0x0
   1a510: ef 90 51 1e  	jal	ra, 0x33ef4 <__muldi3>
   1a514: 83 25 0d 0a  	lw	a1, 0xa0(s10)
   1a518: 9b 0a 05 00  	addiw	s5, a0, 0x0
   1a51c: 13 85 05 00  	addi	a0, a1, 0x0
   1a520: 93 05 0a 00  	addi	a1, s4, 0x0
   1a524: ef 90 11 1d  	jal	ra, 0x33ef4 <__muldi3>
   1a528: 83 25 0d 06  	lw	a1, 0x60(s10)
   1a52c: 1b 0a 05 00  	addiw	s4, a0, 0x0
   1a530: 13 85 05 00  	addi	a0, a1, 0x0
   1a534: 93 05 09 00  	addi	a1, s2, 0x0
   1a538: ef 90 d1 1b  	jal	ra, 0x33ef4 <__muldi3>
   1a53c: 83 25 0d 02  	lw	a1, 0x20(s10)
   1a540: 1b 09 05 00  	addiw	s2, a0, 0x0
   1a544: 13 85 05 00  	addi	a0, a1, 0x0
   1a548: 93 85 04 00  	addi	a1, s1, 0x0
   1a54c: ef 90 91 1a  	jal	ra, 0x33ef4 <__muldi3>
   1a550: 9b 04 05 00  	addiw	s1, a0, 0x0
   1a554: 33 8b 54 01  	add	s6, s1, s5
   1a558: b3 0b 49 01  	add	s7, s2, s4
   1a55c: 33 0c 59 01  	add	s8, s2, s5
   1a560: b3 8c 44 01  	add	s9, s1, s4
   1a564: 33 85 8c 01  	add	a0, s9, s8
   1a568: 83 35 01 05  	ld	a1, 0x50(sp)
   1a56c: ef 90 91 18  	jal	ra, 0x33ef4 <__muldi3>
   1a570: 93 09 05 00  	addi	s3, a0, 0x0
   1a574: 13 85 0a 00  	addi	a0, s5, 0x0
   1a578: 83 35 01 09  	ld	a1, 0x90(sp)
   1a57c: ef 90 91 17  	jal	ra, 0x33ef4 <__muldi3>
   1a580: 93 0a 05 00  	addi	s5, a0, 0x0
   1a584: 13 05 0a 00  	addi	a0, s4, 0x0
   1a588: 83 35 01 06  	ld	a1, 0x60(sp)
   1a58c: ef 90 91 16  	jal	ra, 0x33ef4 <__muldi3>
   1a590: 13 0a 05 00  	addi	s4, a0, 0x0
   1a594: 13 05 09 00  	addi	a0, s2, 0x0
   1a598: 83 35 81 06  	ld	a1, 0x68(sp)
   1a59c: ef 90 91 15  	jal	ra, 0x33ef4 <__muldi3>
   1a5a0: 13 09 05 00  	addi	s2, a0, 0x0
   1a5a4: 13 85 04 00  	addi	a0, s1, 0x0
   1a5a8: 83 35 81 05  	ld	a1, 0x58(sp)
   1a5ac: ef 90 91 14  	jal	ra, 0x33ef4 <__muldi3>
   1a5b0: 93 04 05 00  	addi	s1, a0, 0x0
   1a5b4: 13 05 0b 00  	addi	a0, s6, 0x0
   1a5b8: 83 35 81 07  	ld	a1, 0x78(sp)
   1a5bc: ef 90 91 13  	jal	ra, 0x33ef4 <__muldi3>
   1a5c0: 13 0b 05 00  	addi	s6, a0, 0x0
   1a5c4: 13 85 0b 00  	addi	a0, s7, 0x0
   1a5c8: 83 35 01 07  	ld	a1, 0x70(sp)
   1a5cc: ef 90 91 12  	jal	ra, 0x33ef4 <__muldi3>
   1a5d0: 93 0b 05 00  	addi	s7, a0, 0x0
   1a5d4: 13 05 0c 00  	addi	a0, s8, 0x0
   1a5d8: 83 35 81 09  	ld	a1, 0x98(sp)
   1a5dc: ef 90 91 11  	jal	ra, 0x33ef4 <__muldi3>
   1a5e0: 13 0c 05 00  	addi	s8, a0, 0x0
   1a5e4: 13 85 0c 00  	addi	a0, s9, 0x0
   1a5e8: 83 35 01 08  	ld	a1, 0x80(sp)
   1a5ec: ef 90 91 10  	jal	ra, 0x33ef4 <__muldi3>
   1a5f0: 33 8c 89 01  	add	s8, s3, s8
   1a5f4: 33 85 a9 00  	add	a0, s3, a0
   1a5f8: b3 0a 5b 01  	add	s5, s6, s5
   1a5fc: b3 8a 8a 01  	add	s5, s5, s8
   1a600: 33 8a 4b 01  	add	s4, s7, s4
   1a604: 33 0a aa 00  	add	s4, s4, a0
   1a608: 33 89 2b 01  	add	s2, s7, s2
   1a60c: 33 09 89 01  	add	s2, s2, s8
   1a610: b3 04 9b 00  	add	s1, s6, s1
   1a614: 33 85 a4 00  	add	a0, s1, a0
   1a618: 83 35 01 03  	ld	a1, 0x30(sp)
   1a61c: 93 85 05 40  	addi	a1, a1, 0x400
   1a620: 33 86 a5 00  	add	a2, a1, a0
   1a624: 13 56 b6 00  	srli	a2, a2, 0xb
   1a628: 23 20 c4 00  	sw	a2, 0x0(s0)
   1a62c: 33 85 a5 40  	sub	a0, a1, a0
   1a630: 13 55 b5 00  	srli	a0, a0, 0xb
   1a634: 83 35 81 02  	ld	a1, 0x28(sp)
   1a638: 93 85 05 40  	addi	a1, a1, 0x400
   1a63c: 33 86 25 01  	add	a2, a1, s2
   1a640: 13 56 b6 00  	srli	a2, a2, 0xb
   1a644: 23 20 c4 02  	sw	a2, 0x20(s0)
   1a648: b3 85 25 41  	sub	a1, a1, s2
   1a64c: 93 d5 b5 00  	srli	a1, a1, 0xb
   1a650: 03 36 81 03  	ld	a2, 0x38(sp)
   1a654: 13 06 06 40  	addi	a2, a2, 0x400
   1a658: b3 06 46 01  	add	a3, a2, s4
   1a65c: 93 d6 b6 00  	srli	a3, a3, 0xb
   1a660: 23 20 d4 04  	sw	a3, 0x40(s0)
   1a664: 33 06 46 41  	sub	a2, a2, s4
   1a668: 13 56 b6 00  	srli	a2, a2, 0xb
   1a66c: 23 20 c4 0a  	sw	a2, 0xa0(s0)
   1a670: 03 36 01 04  	ld	a2, 0x40(sp)
   1a674: 13 06 06 40  	addi	a2, a2, 0x400
   1a678: b3 06 56 01  	add	a3, a2, s5
   1a67c: 93 d6 b6 00  	srli	a3, a3, 0xb
   1a680: 23 20 d4 06  	sw	a3, 0x60(s0)
   1a684: 33 06 56 41  	sub	a2, a2, s5
   1a688: 13 56 b6 00  	srli	a2, a2, 0xb
   1a68c: 93 06 00 02  	addi	a3, zero, 0x20
   1a690: 6f 00 40 03  	jal	zero, 0x1a6c4 <jpeg_idct_islow+0x348>
   1a694: 03 95 0d 00  	lh	a0, 0x0(s11)
   1a698: 83 25 0d 00  	lw	a1, 0x0(s10)
   1a69c: ef 90 91 05  	jal	ra, 0x33ef4 <__muldi3>
   1a6a0: 13 16 25 00  	slli	a2, a0, 0x2
   1a6a4: 23 20 c4 00  	sw	a2, 0x0(s0)
   1a6a8: 23 20 c4 02  	sw	a2, 0x20(s0)
   1a6ac: 23 20 c4 04  	sw	a2, 0x40(s0)
   1a6b0: 23 20 c4 06  	sw	a2, 0x60(s0)
   1a6b4: 23 20 c4 08  	sw	a2, 0x80(s0)
   1a6b8: 93 06 80 02  	addi	a3, zero, 0x28
   1a6bc: 93 05 06 00  	addi	a1, a2, 0x0
   1a6c0: 13 05 06 00  	addi	a0, a2, 0x0
   1a6c4: 93 96 26 00  	slli	a3, a3, 0x2
   1a6c8: b3 06 d4 00  	add	a3, s0, a3
   1a6cc: 23 a0 c6 00  	sw	a2, 0x0(a3)
   1a6d0: 23 20 b4 0c  	sw	a1, 0xc0(s0)
   1a6d4: 23 20 a4 0e  	sw	a0, 0xe0(s0)
   1a6d8: 13 04 44 00  	addi	s0, s0, 0x4
   1a6dc: 93 8d 2d 00  	addi	s11, s11, 0x2
   1a6e0: 13 0d 4d 00  	addi	s10, s10, 0x4
   1a6e4: 03 35 01 02  	ld	a0, 0x20(sp)
   1a6e8: e3 9a ad d2  	bne	s11, a0, 0x1a41c <jpeg_idct_islow+0xa0>
   1a6ec: 03 35 01 01  	ld	a0, 0x10(sp)
   1a6f0: 13 05 05 08  	addi	a0, a0, 0x80
   1a6f4: 23 30 a1 02  	sd	a0, 0x20(sp)
   1a6f8: 03 35 81 01  	ld	a0, 0x18(sp)
   1a6fc: 13 15 05 02  	slli	a0, a0, 0x20
   1a700: 13 55 05 02  	srli	a0, a0, 0x20
   1a704: 23 3c a1 00  	sd	a0, 0x18(sp)
   1a708: 13 0d 01 0b  	addi	s10, sp, 0xb0
   1a70c: 03 36 81 08  	ld	a2, 0x88(sp)
   1a710: 13 05 06 04  	addi	a0, a2, 0x40
   1a714: 23 38 a1 00  	sd	a0, 0x10(sp)
   1a718: 03 35 01 09  	ld	a0, 0x90(sp)
   1a71c: 13 05 35 7c  	addi	a0, a0, 0x7c3
   1a720: 23 34 a1 00  	sd	a0, 0x8(sp)
   1a724: 03 35 81 09  	ld	a0, 0x98(sp)
   1a728: 13 05 45 3a  	addi	a0, a0, 0x3a4
   1a72c: 23 30 a1 00  	sd	a0, 0x0(sp)
   1a730: 03 6a 4d ff  	lwu	s4, -0xc(s10)
   1a734: 83 6b 8d ff  	lwu	s7, -0x8(s10)
   1a738: 03 34 06 00  	ld	s0, 0x0(a2)
   1a73c: 33 e5 4b 01  	or	a0, s7, s4
   1a740: 03 6b cd ff  	lwu	s6, -0x4(s10)
   1a744: 83 24 0d 00  	lw	s1, 0x0(s10)
   1a748: 83 6a 4d 00  	lwu	s5, 0x4(s10)
   1a74c: 03 6c 8d 00  	lwu	s8, 0x8(s10)
   1a750: 03 69 cd 00  	lwu	s2, 0xc(s10)
   1a754: b3 65 9b 00  	or	a1, s6, s1
   1a758: 33 65 b5 00  	or	a0, a0, a1
   1a75c: b3 e5 8a 01  	or	a1, s5, s8
   1a760: b3 e5 25 01  	or	a1, a1, s2
   1a764: 33 65 b5 00  	or	a0, a0, a1
   1a768: 1b 05 05 00  	addiw	a0, a0, 0x0
   1a76c: 83 35 81 01  	ld	a1, 0x18(sp)
   1a770: 33 04 b4 00  	add	s0, s0, a1
   1a774: 63 08 05 22  	beq	a0, zero, 0x1a9a4 <jpeg_idct_islow+0x628>
   1a778: 33 05 7c 01  	add	a0, s8, s7
   1a77c: 83 35 81 00  	ld	a1, 0x8(sp)
   1a780: 23 34 c1 08  	sd	a2, 0x88(sp)
   1a784: ef 90 01 77  	jal	ra, 0x33ef4 <__muldi3>
   1a788: 93 09 05 00  	addi	s3, a0, 0x0
   1a78c: 13 05 0c 00  	addi	a0, s8, 0x0
   1a790: 83 35 01 00  	ld	a1, 0x0(sp)
   1a794: ef 90 01 76  	jal	ra, 0x33ef4 <__muldi3>
   1a798: 33 8c a9 00  	add	s8, s3, a0
   1a79c: 13 85 0b 00  	addi	a0, s7, 0x0
   1a7a0: 83 35 81 04  	ld	a1, 0x48(sp)
   1a7a4: ef 90 01 75  	jal	ra, 0x33ef4 <__muldi3>
   1a7a8: 83 25 0d ff  	lw	a1, -0x10(s10)
   1a7ac: 33 85 a9 00  	add	a0, s3, a0
   1a7b0: 33 86 95 00  	add	a2, a1, s1
   1a7b4: 13 16 d6 00  	slli	a2, a2, 0xd
   1a7b8: bb 85 95 40  	subw	a1, a1, s1
   1a7bc: 93 95 d5 00  	slli	a1, a1, 0xd
   1a7c0: b3 06 a6 00  	add	a3, a2, a0
   1a7c4: 23 34 d1 02  	sd	a3, 0x28(sp)
   1a7c8: 3b 06 a6 40  	subw	a2, a2, a0
   1a7cc: 23 30 c1 04  	sd	a2, 0x40(sp)
   1a7d0: 33 85 85 01  	add	a0, a1, s8
   1a7d4: 23 38 a1 02  	sd	a0, 0x30(sp)
   1a7d8: 3b 85 85 41  	subw	a0, a1, s8
   1a7dc: 23 3c a1 02  	sd	a0, 0x38(sp)
   1a7e0: b3 09 49 01  	add	s3, s2, s4
   1a7e4: 33 8c 6a 01  	add	s8, s5, s6
   1a7e8: b3 0c 69 01  	add	s9, s2, s6
   1a7ec: b3 8d 4a 01  	add	s11, s5, s4
   1a7f0: 33 85 bc 01  	add	a0, s9, s11
   1a7f4: 83 35 01 05  	ld	a1, 0x50(sp)
   1a7f8: ef 90 c1 6f  	jal	ra, 0x33ef4 <__muldi3>
   1a7fc: 93 0b 05 00  	addi	s7, a0, 0x0
   1a800: 13 05 09 00  	addi	a0, s2, 0x0
   1a804: 83 35 01 09  	ld	a1, 0x90(sp)
   1a808: ef 90 c1 6e  	jal	ra, 0x33ef4 <__muldi3>
   1a80c: 13 09 05 00  	addi	s2, a0, 0x0
   1a810: 13 85 0a 00  	addi	a0, s5, 0x0
   1a814: 83 35 01 06  	ld	a1, 0x60(sp)
   1a818: ef 90 c1 6d  	jal	ra, 0x33ef4 <__muldi3>
   1a81c: 93 0a 05 00  	addi	s5, a0, 0x0
   1a820: 13 05 0b 00  	addi	a0, s6, 0x0
   1a824: 83 35 81 06  	ld	a1, 0x68(sp)
   1a828: ef 90 c1 6c  	jal	ra, 0x33ef4 <__muldi3>
   1a82c: 13 0b 05 00  	addi	s6, a0, 0x0
   1a830: 13 05 0a 00  	addi	a0, s4, 0x0
   1a834: 83 35 81 05  	ld	a1, 0x58(sp)
   1a838: ef 90 c1 6b  	jal	ra, 0x33ef4 <__muldi3>
   1a83c: 93 04 05 00  	addi	s1, a0, 0x0
   1a840: 13 85 09 00  	addi	a0, s3, 0x0
   1a844: 83 35 81 07  	ld	a1, 0x78(sp)
   1a848: ef 90 c1 6a  	jal	ra, 0x33ef4 <__muldi3>
   1a84c: 13 0a 05 00  	addi	s4, a0, 0x0
   1a850: 13 05 0c 00  	addi	a0, s8, 0x0
   1a854: 83 35 01 07  	ld	a1, 0x70(sp)
   1a858: ef 90 c1 69  	jal	ra, 0x33ef4 <__muldi3>
   1a85c: 93 09 05 00  	addi	s3, a0, 0x0
   1a860: 13 85 0c 00  	addi	a0, s9, 0x0
   1a864: 83 35 81 09  	ld	a1, 0x98(sp)
   1a868: ef 90 c1 68  	jal	ra, 0x33ef4 <__muldi3>
   1a86c: 13 0c 05 00  	addi	s8, a0, 0x0
   1a870: 13 85 0d 00  	addi	a0, s11, 0x0
   1a874: 83 35 01 08  	ld	a1, 0x80(sp)
   1a878: ef 90 c1 67  	jal	ra, 0x33ef4 <__muldi3>
   1a87c: 03 36 81 08  	ld	a2, 0x88(sp)
   1a880: 33 85 ab 00  	add	a0, s7, a0
   1a884: b3 04 9a 00  	add	s1, s4, s1
   1a888: b3 84 a4 00  	add	s1, s1, a0
   1a88c: 37 07 02 00  	lui	a4, 0x20
   1a890: 83 37 81 02  	ld	a5, 0x28(sp)
   1a894: b3 85 e7 00  	add	a1, a5, a4
   1a898: b3 85 b4 00  	add	a1, s1, a1
   1a89c: 93 95 45 02  	slli	a1, a1, 0x24
   1a8a0: 93 d5 65 03  	srli	a1, a1, 0x36
   1a8a4: 83 36 01 02  	ld	a3, 0x20(sp)
   1a8a8: b3 85 b6 00  	add	a1, a3, a1
   1a8ac: 83 c5 05 00  	lbu	a1, 0x0(a1)
   1a8b0: 23 00 b4 00  	sb	a1, 0x0(s0)
   1a8b4: b3 85 e7 00  	add	a1, a5, a4
   1a8b8: bb 85 95 40  	subw	a1, a1, s1
   1a8bc: 93 95 45 02  	slli	a1, a1, 0x24
   1a8c0: 93 d5 65 03  	srli	a1, a1, 0x36
   1a8c4: b3 85 b6 00  	add	a1, a3, a1
   1a8c8: 83 c5 05 00  	lbu	a1, 0x0(a1)
   1a8cc: b3 8b 8b 01  	add	s7, s7, s8
   1a8d0: 33 8b 69 01  	add	s6, s3, s6
   1a8d4: 33 0b 7b 01  	add	s6, s6, s7
   1a8d8: a3 03 b4 00  	sb	a1, 0x7(s0)
   1a8dc: 83 37 01 03  	ld	a5, 0x30(sp)
   1a8e0: b3 85 e7 00  	add	a1, a5, a4
   1a8e4: b3 05 bb 00  	add	a1, s6, a1
   1a8e8: 93 95 45 02  	slli	a1, a1, 0x24
   1a8ec: 93 d5 65 03  	srli	a1, a1, 0x36
   1a8f0: b3 85 b6 00  	add	a1, a3, a1
   1a8f4: 83 c5 05 00  	lbu	a1, 0x0(a1)
   1a8f8: a3 00 b4 00  	sb	a1, 0x1(s0)
   1a8fc: b3 85 e7 00  	add	a1, a5, a4
   1a900: bb 85 65 41  	subw	a1, a1, s6
   1a904: 93 95 45 02  	slli	a1, a1, 0x24
   1a908: 93 d5 65 03  	srli	a1, a1, 0x36
   1a90c: b3 85 b6 00  	add	a1, a3, a1
   1a910: 83 c5 05 00  	lbu	a1, 0x0(a1)
   1a914: b3 89 59 01  	add	s3, s3, s5
   1a918: 33 85 a9 00  	add	a0, s3, a0
   1a91c: 23 03 b4 00  	sb	a1, 0x6(s0)
   1a920: 83 37 81 03  	ld	a5, 0x38(sp)
   1a924: b3 85 e7 00  	add	a1, a5, a4
   1a928: b3 05 b5 00  	add	a1, a0, a1
   1a92c: 93 95 45 02  	slli	a1, a1, 0x24
   1a930: 93 d5 65 03  	srli	a1, a1, 0x36
   1a934: b3 85 b6 00  	add	a1, a3, a1
   1a938: 83 c5 05 00  	lbu	a1, 0x0(a1)
   1a93c: 23 01 b4 00  	sb	a1, 0x2(s0)
   1a940: b3 85 e7 00  	add	a1, a5, a4
   1a944: bb 85 a5 40  	subw	a1, a1, a0
   1a948: 93 95 45 02  	slli	a1, a1, 0x24
   1a94c: 93 d5 65 03  	srli	a1, a1, 0x36
   1a950: b3 85 b6 00  	add	a1, a3, a1
   1a954: 03 c5 05 00  	lbu	a0, 0x0(a1)
   1a958: 33 09 2a 01  	add	s2, s4, s2
   1a95c: 33 09 79 01  	add	s2, s2, s7
   1a960: a3 02 a4 00  	sb	a0, 0x5(s0)
   1a964: 83 35 01 04  	ld	a1, 0x40(sp)
   1a968: 33 85 e5 00  	add	a0, a1, a4
   1a96c: 33 05 a9 00  	add	a0, s2, a0
   1a970: 13 15 45 02  	slli	a0, a0, 0x24
   1a974: 13 55 65 03  	srli	a0, a0, 0x36
   1a978: 33 85 a6 00  	add	a0, a3, a0
   1a97c: 03 45 05 00  	lbu	a0, 0x0(a0)
   1a980: a3 01 a4 00  	sb	a0, 0x3(s0)
   1a984: 33 85 e5 00  	add	a0, a1, a4
   1a988: 3b 05 25 41  	subw	a0, a0, s2
   1a98c: 13 15 45 02  	slli	a0, a0, 0x24
   1a990: 13 55 65 03  	srli	a0, a0, 0x36
   1a994: 33 85 a6 00  	add	a0, a3, a0
   1a998: 03 45 05 00  	lbu	a0, 0x0(a0)
   1a99c: 93 05 40 00  	addi	a1, zero, 0x4
   1a9a0: 6f 00 00 04  	jal	zero, 0x1a9e0 <jpeg_idct_islow+0x664>
   1a9a4: 03 25 0d ff  	lw	a0, -0x10(s10)
   1a9a8: 13 05 05 01  	addi	a0, a0, 0x10
   1a9ac: 13 15 15 03  	slli	a0, a0, 0x31
   1a9b0: 13 55 65 03  	srli	a0, a0, 0x36
   1a9b4: 83 35 01 02  	ld	a1, 0x20(sp)
   1a9b8: 33 85 a5 00  	add	a0, a1, a0
   1a9bc: 03 45 05 00  	lbu	a0, 0x0(a0)
   1a9c0: 23 00 a4 00  	sb	a0, 0x0(s0)
   1a9c4: a3 00 a4 00  	sb	a0, 0x1(s0)
   1a9c8: 23 01 a4 00  	sb	a0, 0x2(s0)
   1a9cc: a3 01 a4 00  	sb	a0, 0x3(s0)
   1a9d0: 23 02 a4 00  	sb	a0, 0x4(s0)
   1a9d4: a3 02 a4 00  	sb	a0, 0x5(s0)
   1a9d8: 23 03 a4 00  	sb	a0, 0x6(s0)
   1a9dc: 93 05 70 00  	addi	a1, zero, 0x7
   1a9e0: b3 05 b4 00  	add	a1, s0, a1
   1a9e4: 23 80 a5 00  	sb	a0, 0x0(a1)
   1a9e8: 13 06 86 00  	addi	a2, a2, 0x8
   1a9ec: 13 0d 0d 02  	addi	s10, s10, 0x20
   1a9f0: 03 35 01 01  	ld	a0, 0x10(sp)
   1a9f4: e3 1e a6 d2  	bne	a2, a0, 0x1a730 <jpeg_idct_islow+0x3b4>
   1a9f8: 13 01 01 1a  	addi	sp, sp, 0x1a0
   1a9fc: 6f 90 c1 4c  	jal	zero, 0x33ec8 <__riscv_restore_12>

000000000001aa00 <jpeg_idct_4x4>:
   1aa00: ef 92 e1 47  	jal	t0, 0x33e7e <__riscv_save_12>
   1aa04: 13 01 01 f2  	addi	sp, sp, -0xe0
   1aa08: 23 34 e1 00  	sd	a4, 0x8(sp)
   1aa0c: 13 84 06 00  	addi	s0, a3, 0x0
   1aa10: b7 f6 ff ff  	lui	a3, 0xfffff
   1aa14: 9b 86 06 fb  	addiw	a3, a3, -0x50
   1aa18: 23 38 d1 02  	sd	a3, 0x30(sp)
   1aa1c: b7 e6 ff ff  	lui	a3, 0xffffe
   1aa20: 9b 86 26 78  	addiw	a3, a3, 0x782
   1aa24: 23 3c d1 04  	sd	a3, 0x58(sp)
   1aa28: b7 c6 ff ff  	lui	a3, 0xffffc
   1aa2c: 9b 86 96 a7  	addiw	a3, a3, -0x587
   1aa30: 23 34 d1 02  	sd	a3, 0x28(sp)
   1aa34: b7 56 00 00  	lui	a3, 0x5
   1aa38: 9b 86 36 20  	addiw	a3, a3, 0x203
   1aa3c: 23 30 d1 02  	sd	a3, 0x20(sp)
   1aa40: b7 46 00 00  	lui	a3, 0x4
   1aa44: 9b 86 16 b2  	addiw	a3, a3, -0x4df
   1aa48: 23 3c d1 00  	sd	a3, 0x18(sp)
   1aa4c: b7 36 00 00  	lui	a3, 0x3
   1aa50: 9b 86 56 e7  	addiw	a3, a3, -0x18b
   1aa54: 23 38 d1 00  	sd	a3, 0x10(sp)
   1aa58: b7 26 00 00  	lui	a3, 0x2
   1aa5c: 9b 86 d6 cc  	addiw	a3, a3, -0x333
   1aa60: 23 3c d1 02  	sd	a3, 0x38(sp)
   1aa64: 13 0a 10 00  	addi	s4, zero, 0x1
   1aa68: 93 16 ba 00  	slli	a3, s4, 0xb
   1aa6c: 23 30 d1 04  	sd	a3, 0x40(sp)
   1aa70: 83 b5 85 05  	ld	a1, 0x58(a1)
   1aa74: 93 0a 01 06  	addi	s5, sp, 0x60
   1aa78: 03 35 85 19  	ld	a0, 0x198(a0)
   1aa7c: 23 30 a1 00  	sd	a0, 0x0(sp)
   1aa80: 13 0b 06 05  	addi	s6, a2, 0x50
   1aa84: 13 89 05 0a  	addi	s2, a1, 0xa0
   1aa88: 93 0b 90 00  	addi	s7, zero, 0x9
   1aa8c: 13 05 50 00  	addi	a0, zero, 0x5
   1aa90: 63 82 ab 20  	beq	s7, a0, 0x1ac94 <jpeg_idct_4x4+0x294>
   1aa94: 83 1c 0b fc  	lh	s9, -0x40(s6)
   1aa98: 03 1c 0b fd  	lh	s8, -0x30(s6)
   1aa9c: 03 1d 0b fe  	lh	s10, -0x20(s6)
   1aaa0: 83 1d 0b 00  	lh	s11, 0x0(s6)
   1aaa4: 83 19 0b 01  	lh	s3, 0x10(s6)
   1aaa8: 83 14 0b 02  	lh	s1, 0x20(s6)
   1aaac: 33 65 9c 01  	or	a0, s8, s9
   1aab0: b3 65 bd 01  	or	a1, s10, s11
   1aab4: 33 65 b5 00  	or	a0, a0, a1
   1aab8: b3 e6 99 00  	or	a3, s3, s1
   1aabc: 83 15 0b fb  	lh	a1, -0x50(s6)
   1aac0: 03 26 09 f6  	lw	a2, -0xa0(s2)
   1aac4: 33 65 d5 00  	or	a0, a0, a3
   1aac8: 13 15 05 03  	slli	a0, a0, 0x30
   1aacc: 63 0c 05 18  	beq	a0, zero, 0x1ac64 <jpeg_idct_4x4+0x264>
   1aad0: 13 05 06 00  	addi	a0, a2, 0x0
   1aad4: ef 90 01 42  	jal	ra, 0x33ef4 <__muldi3>
   1aad8: 83 25 09 fa  	lw	a1, -0x60(s2)
   1aadc: 1b 05 05 00  	addiw	a0, a0, 0x0
   1aae0: 13 15 e5 00  	slli	a0, a0, 0xe
   1aae4: 23 38 a1 04  	sd	a0, 0x50(sp)
   1aae8: 13 85 05 00  	addi	a0, a1, 0x0
   1aaec: 93 05 0c 00  	addi	a1, s8, 0x0
   1aaf0: ef 90 41 40  	jal	ra, 0x33ef4 <__muldi3>
   1aaf4: 83 25 09 02  	lw	a1, 0x20(s2)
   1aaf8: 1b 0a 05 00  	addiw	s4, a0, 0x0
   1aafc: 13 85 05 00  	addi	a0, a1, 0x0
   1ab00: 93 85 09 00  	addi	a1, s3, 0x0
   1ab04: ef 90 01 3f  	jal	ra, 0x33ef4 <__muldi3>
   1ab08: 9b 09 05 00  	addiw	s3, a0, 0x0
   1ab0c: 13 05 0a 00  	addi	a0, s4, 0x0
   1ab10: 83 35 81 01  	ld	a1, 0x18(sp)
   1ab14: ef 90 01 3e  	jal	ra, 0x33ef4 <__muldi3>
   1ab18: 13 0a 05 00  	addi	s4, a0, 0x0
   1ab1c: 13 85 09 00  	addi	a0, s3, 0x0
   1ab20: 83 35 81 05  	ld	a1, 0x58(sp)
   1ab24: ef 90 01 3d  	jal	ra, 0x33ef4 <__muldi3>
   1ab28: 83 25 09 04  	lw	a1, 0x40(s2)
   1ab2c: 33 05 45 01  	add	a0, a0, s4
   1ab30: 23 34 a1 04  	sd	a0, 0x48(sp)
   1ab34: 13 85 05 00  	addi	a0, a1, 0x0
   1ab38: 93 85 04 00  	addi	a1, s1, 0x0
   1ab3c: ef 90 81 3b  	jal	ra, 0x33ef4 <__muldi3>
   1ab40: 83 25 09 00  	lw	a1, 0x0(s2)
   1ab44: 9b 04 05 00  	addiw	s1, a0, 0x0
   1ab48: 13 85 05 00  	addi	a0, a1, 0x0
   1ab4c: 93 85 0d 00  	addi	a1, s11, 0x0
   1ab50: ef 90 41 3a  	jal	ra, 0x33ef4 <__muldi3>
   1ab54: 83 25 09 fc  	lw	a1, -0x40(s2)
   1ab58: 9b 09 05 00  	addiw	s3, a0, 0x0
   1ab5c: 13 85 05 00  	addi	a0, a1, 0x0
   1ab60: 93 05 0d 00  	addi	a1, s10, 0x0
   1ab64: ef 90 01 39  	jal	ra, 0x33ef4 <__muldi3>
   1ab68: 83 25 09 f8  	lw	a1, -0x80(s2)
   1ab6c: 1b 0a 05 00  	addiw	s4, a0, 0x0
   1ab70: 13 85 05 00  	addi	a0, a1, 0x0
   1ab74: 93 85 0c 00  	addi	a1, s9, 0x0
   1ab78: ef 90 c1 37  	jal	ra, 0x33ef4 <__muldi3>
   1ab7c: 1b 0c 05 00  	addiw	s8, a0, 0x0
   1ab80: 93 05 e0 93  	addi	a1, zero, -0x6c2
   1ab84: 13 85 04 00  	addi	a0, s1, 0x0
   1ab88: ef 90 c1 36  	jal	ra, 0x33ef4 <__muldi3>
   1ab8c: 93 0c 05 00  	addi	s9, a0, 0x0
   1ab90: 13 85 09 00  	addi	a0, s3, 0x0
   1ab94: 83 35 01 01  	ld	a1, 0x10(sp)
   1ab98: ef 90 c1 35  	jal	ra, 0x33ef4 <__muldi3>
   1ab9c: 33 0d 95 01  	add	s10, a0, s9
   1aba0: 13 05 0a 00  	addi	a0, s4, 0x0
   1aba4: 83 35 81 02  	ld	a1, 0x28(sp)
   1aba8: ef 90 c1 34  	jal	ra, 0x33ef4 <__muldi3>
   1abac: 93 0c 05 00  	addi	s9, a0, 0x0
   1abb0: 83 3d 81 03  	ld	s11, 0x38(sp)
   1abb4: 93 85 cd 52  	addi	a1, s11, 0x52c
   1abb8: 13 05 0c 00  	addi	a0, s8, 0x0
   1abbc: ef 90 81 33  	jal	ra, 0x33ef4 <__muldi3>
   1abc0: 33 85 ac 00  	add	a0, s9, a0
   1abc4: 33 0d ad 00  	add	s10, s10, a0
   1abc8: 13 85 04 00  	addi	a0, s1, 0x0
   1abcc: 83 35 01 03  	ld	a1, 0x30(sp)
   1abd0: ef 90 41 32  	jal	ra, 0x33ef4 <__muldi3>
   1abd4: 93 04 05 00  	addi	s1, a0, 0x0
   1abd8: 03 35 81 05  	ld	a0, 0x58(sp)
   1abdc: 93 05 05 54  	addi	a1, a0, 0x540
   1abe0: 13 85 09 00  	addi	a0, s3, 0x0
   1abe4: ef 90 01 31  	jal	ra, 0x33ef4 <__muldi3>
   1abe8: b3 09 95 00  	add	s3, a0, s1
   1abec: 13 05 0a 00  	addi	a0, s4, 0x0
   1abf0: 13 0a 10 00  	addi	s4, zero, 0x1
   1abf4: 93 85 0d 00  	addi	a1, s11, 0x0
   1abf8: ef 90 c1 2f  	jal	ra, 0x33ef4 <__muldi3>
   1abfc: 93 04 05 00  	addi	s1, a0, 0x0
   1ac00: 13 05 0c 00  	addi	a0, s8, 0x0
   1ac04: 83 35 01 02  	ld	a1, 0x20(sp)
   1ac08: ef 90 c1 2e  	jal	ra, 0x33ef4 <__muldi3>
   1ac0c: 33 85 a4 00  	add	a0, s1, a0
   1ac10: 33 85 a9 00  	add	a0, s3, a0
   1ac14: 83 36 01 04  	ld	a3, 0x40(sp)
   1ac18: 03 37 01 05  	ld	a4, 0x50(sp)
   1ac1c: b3 05 d7 00  	add	a1, a4, a3
   1ac20: 83 37 81 04  	ld	a5, 0x48(sp)
   1ac24: b3 85 b7 00  	add	a1, a5, a1
   1ac28: 33 86 a5 00  	add	a2, a1, a0
   1ac2c: 13 56 c6 00  	srli	a2, a2, 0xc
   1ac30: 23 a0 ca 00  	sw	a2, 0x0(s5)
   1ac34: b3 85 a5 40  	sub	a1, a1, a0
   1ac38: 93 d5 c5 00  	srli	a1, a1, 0xc
   1ac3c: 23 a0 ba 06  	sw	a1, 0x60(s5)
   1ac40: 33 05 d7 00  	add	a0, a4, a3
   1ac44: 33 05 f5 40  	sub	a0, a0, a5
   1ac48: b3 05 a5 01  	add	a1, a0, s10
   1ac4c: 93 d5 c5 00  	srli	a1, a1, 0xc
   1ac50: 23 a0 ba 02  	sw	a1, 0x20(s5)
   1ac54: 33 05 a5 41  	sub	a0, a0, s10
   1ac58: 13 55 c5 00  	srli	a0, a0, 0xc
   1ac5c: 93 05 00 01  	addi	a1, zero, 0x10
   1ac60: 6f 00 40 02  	jal	zero, 0x1ac84 <jpeg_idct_4x4+0x284>
   1ac64: 13 85 05 00  	addi	a0, a1, 0x0
   1ac68: 93 05 06 00  	addi	a1, a2, 0x0
   1ac6c: ef 90 81 28  	jal	ra, 0x33ef4 <__muldi3>
   1ac70: 13 15 25 00  	slli	a0, a0, 0x2
   1ac74: 23 a0 aa 00  	sw	a0, 0x0(s5)
   1ac78: 23 a0 aa 02  	sw	a0, 0x20(s5)
   1ac7c: 23 a0 aa 04  	sw	a0, 0x40(s5)
   1ac80: 93 05 80 01  	addi	a1, zero, 0x18
   1ac84: 93 95 25 00  	slli	a1, a1, 0x2
   1ac88: b3 85 ba 00  	add	a1, s5, a1
   1ac8c: 23 a0 a5 00  	sw	a0, 0x0(a1)
   1ac90: 13 05 50 00  	addi	a0, zero, 0x5
   1ac94: 93 8a 4a 00  	addi	s5, s5, 0x4
   1ac98: 9b 8b fb ff  	addiw	s7, s7, -0x1
   1ac9c: 13 0b 2b 00  	addi	s6, s6, 0x2
   1aca0: 13 09 49 00  	addi	s2, s2, 0x4
   1aca4: e3 66 7a df  	bltu	s4, s7, 0x1aa90 <jpeg_idct_4x4+0x90>
   1aca8: 03 35 01 00  	ld	a0, 0x0(sp)
   1acac: 13 05 05 08  	addi	a0, a0, 0x80
   1acb0: 23 38 a1 04  	sd	a0, 0x50(sp)
   1acb4: 03 35 81 00  	ld	a0, 0x8(sp)
   1acb8: 13 15 05 02  	slli	a0, a0, 0x20
   1acbc: 13 55 05 02  	srli	a0, a0, 0x20
   1acc0: 23 34 a1 04  	sd	a0, 0x48(sp)
   1acc4: 13 0c 41 07  	addi	s8, sp, 0x74
   1acc8: 13 05 04 02  	addi	a0, s0, 0x20
   1accc: 23 30 a1 04  	sd	a0, 0x40(sp)
   1acd0: 03 35 81 03  	ld	a0, 0x38(sp)
   1acd4: 13 05 c5 52  	addi	a0, a0, 0x52c
   1acd8: 23 34 a1 00  	sd	a0, 0x8(sp)
   1acdc: 03 35 81 05  	ld	a0, 0x58(sp)
   1ace0: 13 05 05 54  	addi	a0, a0, 0x540
   1ace4: 23 30 a1 00  	sd	a0, 0x0(sp)
   1ace8: 03 6d 0c ff  	lwu	s10, -0x10(s8)
   1acec: 03 65 4c ff  	lwu	a0, -0xc(s8)
   1acf0: 83 3c 04 00  	ld	s9, 0x0(s0)
   1acf4: 83 6d 8c ff  	lwu	s11, -0x8(s8)
   1acf8: 83 64 0c 00  	lwu	s1, 0x0(s8)
   1acfc: b3 65 a5 01  	or	a1, a0, s10
   1ad00: 03 6a 4c 00  	lwu	s4, 0x4(s8)
   1ad04: 83 69 8c 00  	lwu	s3, 0x8(s8)
   1ad08: 33 e6 9d 00  	or	a2, s11, s1
   1ad0c: 33 e6 c5 00  	or	a2, a1, a2
   1ad10: 83 25 cc fe  	lw	a1, -0x14(s8)
   1ad14: b3 66 3a 01  	or	a3, s4, s3
   1ad18: 33 66 d6 00  	or	a2, a2, a3
   1ad1c: 83 36 81 04  	ld	a3, 0x48(sp)
   1ad20: b3 8c dc 00  	add	s9, s9, a3
   1ad24: 63 0a 06 12  	beq	a2, zero, 0x1ae58 <jpeg_idct_4x4+0x458>
   1ad28: 13 9b e5 00  	slli	s6, a1, 0xe
   1ad2c: 83 35 81 01  	ld	a1, 0x18(sp)
   1ad30: ef 90 41 1c  	jal	ra, 0x33ef4 <__muldi3>
   1ad34: 93 0a 05 00  	addi	s5, a0, 0x0
   1ad38: 13 05 0a 00  	addi	a0, s4, 0x0
   1ad3c: 83 35 81 05  	ld	a1, 0x58(sp)
   1ad40: ef 90 41 1b  	jal	ra, 0x33ef4 <__muldi3>
   1ad44: 33 05 55 01  	add	a0, a0, s5
   1ad48: 33 09 ab 00  	add	s2, s6, a0
   1ad4c: bb 0b ab 40  	subw	s7, s6, a0
   1ad50: 93 05 e0 93  	addi	a1, zero, -0x6c2
   1ad54: 13 85 09 00  	addi	a0, s3, 0x0
   1ad58: ef 90 c1 19  	jal	ra, 0x33ef4 <__muldi3>
   1ad5c: 13 0a 05 00  	addi	s4, a0, 0x0
   1ad60: 13 85 04 00  	addi	a0, s1, 0x0
   1ad64: 83 35 01 01  	ld	a1, 0x10(sp)
   1ad68: ef 90 c1 18  	jal	ra, 0x33ef4 <__muldi3>
   1ad6c: 93 0a 05 00  	addi	s5, a0, 0x0
   1ad70: 13 85 0d 00  	addi	a0, s11, 0x0
   1ad74: 83 35 81 02  	ld	a1, 0x28(sp)
   1ad78: ef 90 c1 17  	jal	ra, 0x33ef4 <__muldi3>
   1ad7c: 13 0b 05 00  	addi	s6, a0, 0x0
   1ad80: 13 05 0d 00  	addi	a0, s10, 0x0
   1ad84: 83 35 81 00  	ld	a1, 0x8(sp)
   1ad88: ef 90 c1 16  	jal	ra, 0x33ef4 <__muldi3>
   1ad8c: 33 05 ab 00  	add	a0, s6, a0
   1ad90: 33 8a 4a 01  	add	s4, s5, s4
   1ad94: b3 0a 45 01  	add	s5, a0, s4
   1ad98: 13 85 09 00  	addi	a0, s3, 0x0
   1ad9c: 83 35 01 03  	ld	a1, 0x30(sp)
   1ada0: ef 90 41 15  	jal	ra, 0x33ef4 <__muldi3>
   1ada4: 93 09 05 00  	addi	s3, a0, 0x0
   1ada8: 13 85 04 00  	addi	a0, s1, 0x0
   1adac: 83 35 01 00  	ld	a1, 0x0(sp)
   1adb0: ef 90 41 14  	jal	ra, 0x33ef4 <__muldi3>
   1adb4: 93 04 05 00  	addi	s1, a0, 0x0
   1adb8: 13 85 0d 00  	addi	a0, s11, 0x0
   1adbc: 83 35 81 03  	ld	a1, 0x38(sp)
   1adc0: ef 90 41 13  	jal	ra, 0x33ef4 <__muldi3>
   1adc4: 13 0a 05 00  	addi	s4, a0, 0x0
   1adc8: 13 05 0d 00  	addi	a0, s10, 0x0
   1adcc: 83 35 01 02  	ld	a1, 0x20(sp)
   1add0: ef 90 41 12  	jal	ra, 0x33ef4 <__muldi3>
   1add4: 33 05 aa 00  	add	a0, s4, a0
   1add8: b3 84 34 01  	add	s1, s1, s3
   1addc: 33 05 95 00  	add	a0, a0, s1
   1ade0: b3 05 25 01  	add	a1, a0, s2
   1ade4: b7 06 04 00  	lui	a3, 0x40
   1ade8: b3 85 d5 00  	add	a1, a1, a3
   1adec: 93 95 35 02  	slli	a1, a1, 0x23
   1adf0: 93 d5 65 03  	srli	a1, a1, 0x36
   1adf4: 03 36 01 05  	ld	a2, 0x50(sp)
   1adf8: b3 05 b6 00  	add	a1, a2, a1
   1adfc: 83 c5 05 00  	lbu	a1, 0x0(a1)
   1ae00: 23 80 bc 00  	sb	a1, 0x0(s9)
   1ae04: 3b 05 a9 40  	subw	a0, s2, a0
   1ae08: 33 05 d5 00  	add	a0, a0, a3
   1ae0c: 13 15 35 02  	slli	a0, a0, 0x23
   1ae10: 13 55 65 03  	srli	a0, a0, 0x36
   1ae14: 33 05 a6 00  	add	a0, a2, a0
   1ae18: 03 45 05 00  	lbu	a0, 0x0(a0)
   1ae1c: a3 81 ac 00  	sb	a0, 0x3(s9)
   1ae20: 33 85 7a 01  	add	a0, s5, s7
   1ae24: 33 05 d5 00  	add	a0, a0, a3
   1ae28: 13 15 35 02  	slli	a0, a0, 0x23
   1ae2c: 13 55 65 03  	srli	a0, a0, 0x36
   1ae30: 33 05 a6 00  	add	a0, a2, a0
   1ae34: 03 45 05 00  	lbu	a0, 0x0(a0)
   1ae38: a3 80 ac 00  	sb	a0, 0x1(s9)
   1ae3c: 3b 85 5b 41  	subw	a0, s7, s5
   1ae40: 33 05 d5 00  	add	a0, a0, a3
   1ae44: 13 15 35 02  	slli	a0, a0, 0x23
   1ae48: 13 55 65 03  	srli	a0, a0, 0x36
   1ae4c: 33 05 a6 00  	add	a0, a2, a0
   1ae50: 03 45 05 00  	lbu	a0, 0x0(a0)
   1ae54: 6f 00 80 02  	jal	zero, 0x1ae7c <jpeg_idct_4x4+0x47c>
   1ae58: 93 85 05 01  	addi	a1, a1, 0x10
   1ae5c: 93 95 15 03  	slli	a1, a1, 0x31
   1ae60: 93 d5 65 03  	srli	a1, a1, 0x36
   1ae64: 03 35 01 05  	ld	a0, 0x50(sp)
   1ae68: b3 05 b5 00  	add	a1, a0, a1
   1ae6c: 03 c5 05 00  	lbu	a0, 0x0(a1)
   1ae70: 23 80 ac 00  	sb	a0, 0x0(s9)
   1ae74: a3 80 ac 00  	sb	a0, 0x1(s9)
   1ae78: a3 81 ac 00  	sb	a0, 0x3(s9)
   1ae7c: 23 81 ac 00  	sb	a0, 0x2(s9)
   1ae80: 13 04 84 00  	addi	s0, s0, 0x8
   1ae84: 13 0c 0c 02  	addi	s8, s8, 0x20
   1ae88: 03 35 01 04  	ld	a0, 0x40(sp)
   1ae8c: e3 1e a4 e4  	bne	s0, a0, 0x1ace8 <jpeg_idct_4x4+0x2e8>
   1ae90: 13 01 01 0e  	addi	sp, sp, 0xe0
   1ae94: 6f 90 41 03  	jal	zero, 0x33ec8 <__riscv_restore_12>

000000000001ae98 <jpeg_idct_2x2>:
   1ae98: ef 82 71 7e  	jal	t0, 0x33e7e <__riscv_save_12>
   1ae9c: 13 01 01 f9  	addi	sp, sp, -0x70
   1aea0: 23 34 e1 00  	sd	a4, 0x8(sp)
   1aea4: 13 84 06 00  	addi	s0, a3, 0x0
   1aea8: b7 f6 ff ff  	lui	a3, 0xfffff
   1aeac: 9b 86 e6 8e  	addiw	a3, a3, -0x712
   1aeb0: 23 34 d1 02  	sd	a3, 0x28(sp)
   1aeb4: b7 d6 ff ff  	lui	a3, 0xffffd
   1aeb8: 9b 86 66 74  	addiw	a3, a3, 0x746
   1aebc: 23 30 d1 02  	sd	a3, 0x20(sp)
   1aec0: b7 76 00 00  	lui	a3, 0x7
   1aec4: 9b 86 c6 3f  	addiw	a3, a3, 0x3fc
   1aec8: 23 3c d1 00  	sd	a3, 0x18(sp)
   1aecc: 83 b5 85 05  	ld	a1, 0x58(a1)
   1aed0: b7 26 00 00  	lui	a3, 0x2
   1aed4: 9b 86 76 b3  	addiw	a3, a3, -0x4c9
   1aed8: 23 38 d1 00  	sd	a3, 0x10(sp)
   1aedc: 03 35 85 19  	ld	a0, 0x198(a0)
   1aee0: 23 30 a1 00  	sd	a0, 0x0(sp)
   1aee4: 93 8d 05 0a  	addi	s11, a1, 0xa0
   1aee8: 93 0a 06 05  	addi	s5, a2, 0x50
   1aeec: 13 0d 90 00  	addi	s10, zero, 0x9
   1aef0: 93 04 00 02  	addi	s1, zero, 0x20
   1aef4: 37 09 00 80  	lui	s2, 0x80000
   1aef8: 1b 09 d9 ff  	addiw	s2, s2, -0x3
   1aefc: 13 0a 30 00  	addi	s4, zero, 0x3
   1af00: 93 05 10 00  	addi	a1, zero, 0x1
   1af04: 63 0e 4d 11  	beq	s10, s4, 0x1b020 <jpeg_idct_2x2+0x188>
   1af08: 13 05 fd ff  	addi	a0, s10, -0x1
   1af0c: 33 75 25 01  	and	a0, a0, s2
   1af10: 13 06 40 00  	addi	a2, zero, 0x4
   1af14: 63 06 c5 10  	beq	a0, a2, 0x1b020 <jpeg_idct_2x2+0x188>
   1af18: 03 9b 0a fc  	lh	s6, -0x40(s5)
   1af1c: 83 9b 0a fe  	lh	s7, -0x20(s5)
   1af20: 03 9c 0a 00  	lh	s8, 0x0(s5)
   1af24: 83 9c 0a 02  	lh	s9, 0x20(s5)
   1af28: 33 e5 6b 01  	or	a0, s7, s6
   1af2c: b3 66 9c 01  	or	a3, s8, s9
   1af30: 83 95 0a fb  	lh	a1, -0x50(s5)
   1af34: 03 a6 0d f6  	lw	a2, -0xa0(s11)
   1af38: 33 65 d5 00  	or	a0, a0, a3
   1af3c: 13 15 05 03  	slli	a0, a0, 0x30
   1af40: 93 09 01 03  	addi	s3, sp, 0x30
   1af44: b3 89 99 00  	add	s3, s3, s1
   1af48: 63 0e 05 0a  	beq	a0, zero, 0x1b004 <jpeg_idct_2x2+0x16c>
   1af4c: 13 05 06 00  	addi	a0, a2, 0x0
   1af50: ef 80 51 7a  	jal	ra, 0x33ef4 <__muldi3>
   1af54: 83 a5 0d 04  	lw	a1, 0x40(s11)
   1af58: 1b 05 05 00  	addiw	a0, a0, 0x0
   1af5c: 13 1a f5 00  	slli	s4, a0, 0xf
   1af60: 13 85 05 00  	addi	a0, a1, 0x0
   1af64: 93 85 0c 00  	addi	a1, s9, 0x0
   1af68: ef 80 d1 78  	jal	ra, 0x33ef4 <__muldi3>
   1af6c: 1b 05 05 00  	addiw	a0, a0, 0x0
   1af70: 83 35 81 02  	ld	a1, 0x28(sp)
   1af74: ef 80 11 78  	jal	ra, 0x33ef4 <__muldi3>
   1af78: 83 a5 0d 00  	lw	a1, 0x0(s11)
   1af7c: 93 0c 05 00  	addi	s9, a0, 0x0
   1af80: 13 85 05 00  	addi	a0, a1, 0x0
   1af84: 93 05 0c 00  	addi	a1, s8, 0x0
   1af88: ef 80 d1 76  	jal	ra, 0x33ef4 <__muldi3>
   1af8c: 1b 05 05 00  	addiw	a0, a0, 0x0
   1af90: 83 35 01 01  	ld	a1, 0x10(sp)
   1af94: ef 80 11 76  	jal	ra, 0x33ef4 <__muldi3>
   1af98: 83 a5 0d fc  	lw	a1, -0x40(s11)
   1af9c: b3 0c 95 01  	add	s9, a0, s9
   1afa0: 13 85 05 00  	addi	a0, a1, 0x0
   1afa4: 93 85 0b 00  	addi	a1, s7, 0x0
   1afa8: ef 80 d1 74  	jal	ra, 0x33ef4 <__muldi3>
   1afac: 1b 05 05 00  	addiw	a0, a0, 0x0
   1afb0: 83 35 01 02  	ld	a1, 0x20(sp)
   1afb4: ef 80 11 74  	jal	ra, 0x33ef4 <__muldi3>
   1afb8: 83 a5 0d f8  	lw	a1, -0x80(s11)
   1afbc: 93 0b 05 00  	addi	s7, a0, 0x0
   1afc0: 13 85 05 00  	addi	a0, a1, 0x0
   1afc4: 93 05 0b 00  	addi	a1, s6, 0x0
   1afc8: ef 80 d1 72  	jal	ra, 0x33ef4 <__muldi3>
   1afcc: 1b 05 05 00  	addiw	a0, a0, 0x0
   1afd0: 83 35 81 01  	ld	a1, 0x18(sp)
   1afd4: ef 80 11 72  	jal	ra, 0x33ef4 <__muldi3>
   1afd8: 33 85 ab 00  	add	a0, s7, a0
   1afdc: 33 85 ac 00  	add	a0, s9, a0
   1afe0: b7 15 00 00  	lui	a1, 0x1
   1afe4: b3 65 ba 00  	or	a1, s4, a1
   1afe8: 13 0a 30 00  	addi	s4, zero, 0x3
   1afec: 33 86 a5 00  	add	a2, a1, a0
   1aff0: 13 56 d6 00  	srli	a2, a2, 0xd
   1aff4: 23 a0 c9 fe  	sw	a2, -0x20(s3)
   1aff8: 33 85 a5 40  	sub	a0, a1, a0
   1affc: 13 55 d5 00  	srli	a0, a0, 0xd
   1b000: 6f 00 80 01  	jal	zero, 0x1b018 <jpeg_idct_2x2+0x180>
   1b004: 13 85 05 00  	addi	a0, a1, 0x0
   1b008: 93 05 06 00  	addi	a1, a2, 0x0
   1b00c: ef 80 91 6e  	jal	ra, 0x33ef4 <__muldi3>
   1b010: 13 15 25 00  	slli	a0, a0, 0x2
   1b014: 23 a0 a9 fe  	sw	a0, -0x20(s3)
   1b018: 23 a0 a9 00  	sw	a0, 0x0(s3)
   1b01c: 93 05 10 00  	addi	a1, zero, 0x1
   1b020: 1b 0d fd ff  	addiw	s10, s10, -0x1
   1b024: 93 84 44 00  	addi	s1, s1, 0x4
   1b028: 93 8d 4d 00  	addi	s11, s11, 0x4
   1b02c: 93 8a 2a 00  	addi	s5, s5, 0x2
   1b030: e3 ea a5 ed  	bltu	a1, s10, 0x1af04 <jpeg_idct_2x2+0x6c>
   1b034: 13 05 00 00  	addi	a0, zero, 0x0
   1b038: 83 35 01 00  	ld	a1, 0x0(sp)
   1b03c: 93 84 05 08  	addi	s1, a1, 0x80
   1b040: 83 35 81 00  	ld	a1, 0x8(sp)
   1b044: 93 95 05 02  	slli	a1, a1, 0x20
   1b048: 13 d9 05 02  	srli	s2, a1, 0x20
   1b04c: 13 0d 10 00  	addi	s10, zero, 0x1
   1b050: 93 09 41 04  	addi	s3, sp, 0x44
   1b054: b7 0c 08 00  	lui	s9, 0x80
   1b058: 13 15 35 00  	slli	a0, a0, 0x3
   1b05c: b3 05 a4 00  	add	a1, s0, a0
   1b060: 83 ea 09 ff  	lwu	s5, -0x10(s3)
   1b064: 03 eb 89 ff  	lwu	s6, -0x8(s3)
   1b068: 83 eb 09 00  	lwu	s7, 0x0(s3)
   1b06c: 03 e5 89 00  	lwu	a0, 0x8(s3)
   1b070: 03 ba 05 00  	ld	s4, 0x0(a1)
   1b074: 33 66 5b 01  	or	a2, s6, s5
   1b078: 83 a5 c9 fe  	lw	a1, -0x14(s3)
   1b07c: b3 e6 ab 00  	or	a3, s7, a0
   1b080: 33 66 d6 00  	or	a2, a2, a3
   1b084: 33 0a 2a 01  	add	s4, s4, s2
   1b088: 63 02 06 08  	beq	a2, zero, 0x1b10c <jpeg_idct_2x2+0x274>
   1b08c: 93 9d f5 00  	slli	s11, a1, 0xf
   1b090: 83 35 81 02  	ld	a1, 0x28(sp)
   1b094: ef 80 11 66  	jal	ra, 0x33ef4 <__muldi3>
   1b098: 13 0c 05 00  	addi	s8, a0, 0x0
   1b09c: 13 85 0b 00  	addi	a0, s7, 0x0
   1b0a0: 83 35 01 01  	ld	a1, 0x10(sp)
   1b0a4: ef 80 11 65  	jal	ra, 0x33ef4 <__muldi3>
   1b0a8: 93 0b 05 00  	addi	s7, a0, 0x0
   1b0ac: 13 05 0b 00  	addi	a0, s6, 0x0
   1b0b0: 83 35 01 02  	ld	a1, 0x20(sp)
   1b0b4: ef 80 11 64  	jal	ra, 0x33ef4 <__muldi3>
   1b0b8: 13 0b 05 00  	addi	s6, a0, 0x0
   1b0bc: 13 85 0a 00  	addi	a0, s5, 0x0
   1b0c0: 83 35 81 01  	ld	a1, 0x18(sp)
   1b0c4: ef 80 11 63  	jal	ra, 0x33ef4 <__muldi3>
   1b0c8: 33 05 ab 00  	add	a0, s6, a0
   1b0cc: b3 8b 8b 01  	add	s7, s7, s8
   1b0d0: 33 05 75 01  	add	a0, a0, s7
   1b0d4: b3 85 9d 01  	add	a1, s11, s9
   1b0d8: b3 05 b5 00  	add	a1, a0, a1
   1b0dc: 93 95 25 02  	slli	a1, a1, 0x22
   1b0e0: 93 d5 65 03  	srli	a1, a1, 0x36
   1b0e4: b3 85 b4 00  	add	a1, s1, a1
   1b0e8: 83 c5 05 00  	lbu	a1, 0x0(a1)
   1b0ec: 23 00 ba 00  	sb	a1, 0x0(s4)
   1b0f0: b3 8d 9d 01  	add	s11, s11, s9
   1b0f4: 3b 85 ad 40  	subw	a0, s11, a0
   1b0f8: 13 15 25 02  	slli	a0, a0, 0x22
   1b0fc: 13 55 65 03  	srli	a0, a0, 0x36
   1b100: 33 85 a4 00  	add	a0, s1, a0
   1b104: 03 45 05 00  	lbu	a0, 0x0(a0)
   1b108: 6f 00 c0 01  	jal	zero, 0x1b124 <jpeg_idct_2x2+0x28c>
   1b10c: 93 85 05 01  	addi	a1, a1, 0x10
   1b110: 93 95 15 03  	slli	a1, a1, 0x31
   1b114: 93 d5 65 03  	srli	a1, a1, 0x36
   1b118: b3 85 b4 00  	add	a1, s1, a1
   1b11c: 03 c5 05 00  	lbu	a0, 0x0(a1)
   1b120: 23 00 aa 00  	sb	a0, 0x0(s4)
   1b124: a3 00 aa 00  	sb	a0, 0x1(s4)
   1b128: 93 89 09 02  	addi	s3, s3, 0x20
   1b12c: 93 75 1d 00  	andi	a1, s10, 0x1
   1b130: 13 05 10 00  	addi	a0, zero, 0x1
   1b134: 13 0d 00 00  	addi	s10, zero, 0x0
   1b138: e3 90 05 f2  	bne	a1, zero, 0x1b058 <jpeg_idct_2x2+0x1c0>
   1b13c: 13 01 01 07  	addi	sp, sp, 0x70
   1b140: 6f 80 91 58  	jal	zero, 0x33ec8 <__riscv_restore_12>

000000000001b144 <jpeg_idct_1x1>:
   1b144: ef 82 b1 56  	jal	t0, 0x33eae <__riscv_save_3>
   1b148: 83 b7 85 05  	ld	a5, 0x58(a1)
   1b14c: 03 39 85 19  	ld	s2, 0x198(a0)
   1b150: 83 15 06 00  	lh	a1, 0x0(a2)
   1b154: 03 a5 07 00  	lw	a0, 0x0(a5)
   1b158: 13 04 07 00  	addi	s0, a4, 0x0
   1b15c: 93 84 06 00  	addi	s1, a3, 0x0
   1b160: ef 80 51 59  	jal	ra, 0x33ef4 <__muldi3>
   1b164: 13 05 45 00  	addi	a0, a0, 0x4
   1b168: 13 15 35 03  	slli	a0, a0, 0x33
   1b16c: 13 55 65 03  	srli	a0, a0, 0x36
   1b170: 33 05 a9 00  	add	a0, s2, a0
   1b174: 83 b5 04 00  	ld	a1, 0x0(s1)
   1b178: 03 45 05 08  	lbu	a0, 0x80(a0)
   1b17c: 13 14 04 02  	slli	s0, s0, 0x20
   1b180: 13 54 04 02  	srli	s0, s0, 0x20
   1b184: b3 85 85 00  	add	a1, a1, s0
   1b188: 23 80 a5 00  	sb	a0, 0x0(a1)
   1b18c: 6f 80 91 55  	jal	zero, 0x33ee4 <__riscv_restore_3>

000000000001b190 <jinit_upsampler>:
   1b190: ef 82 f1 4e  	jal	t0, 0x33e7e <__riscv_save_12>
   1b194: 13 01 01 fc  	addi	sp, sp, -0x40
   1b198: 13 04 05 00  	addi	s0, a0, 0x0
   1b19c: 03 35 85 00  	ld	a0, 0x8(a0)
   1b1a0: 83 36 05 00  	ld	a3, 0x0(a0)
   1b1a4: 93 05 10 00  	addi	a1, zero, 0x1
   1b1a8: 13 06 00 10  	addi	a2, zero, 0x100
   1b1ac: 13 05 04 00  	addi	a0, s0, 0x0
   1b1b0: e7 80 06 00  	jalr	ra, 0x0(a3)
   1b1b4: b7 b5 01 00  	lui	a1, 0x1b
   1b1b8: 93 85 05 44  	addi	a1, a1, 0x440
   1b1bc: 23 30 b5 00  	sd	a1, 0x0(a0)
   1b1c0: 37 b6 01 00  	lui	a2, 0x1b
   1b1c4: 83 25 04 18  	lw	a1, 0x180(s0)
   1b1c8: 13 06 86 45  	addi	a2, a2, 0x458
   1b1cc: 23 34 c5 00  	sd	a2, 0x8(a0)
   1b1d0: 23 38 a4 24  	sd	a0, 0x250(s0)
   1b1d4: 23 30 a1 02  	sd	a0, 0x20(sp)
   1b1d8: 23 28 05 00  	sw	zero, 0x10(a0)
   1b1dc: 63 8e 05 00  	beq	a1, zero, 0x1b1f8 <jinit_upsampler+0x68>
   1b1e0: 03 35 04 00  	ld	a0, 0x0(s0)
   1b1e4: 83 35 05 00  	ld	a1, 0x0(a0)
   1b1e8: 13 06 70 01  	addi	a2, zero, 0x17
   1b1ec: 23 24 c5 02  	sw	a2, 0x28(a0)
   1b1f0: 13 05 04 00  	addi	a0, s0, 0x0
   1b1f4: e7 80 05 00  	jalr	ra, 0x0(a1)
   1b1f8: 03 25 c4 05  	lw	a0, 0x5c(s0)
   1b1fc: 63 0a 05 00  	beq	a0, zero, 0x1b210 <jinit_upsampler+0x80>
   1b200: 03 25 c4 18  	lw	a0, 0x18c(s0)
   1b204: 13 25 25 00  	slti	a0, a0, 0x2
   1b208: 13 4b 15 00  	xori	s6, a0, 0x1
   1b20c: 6f 00 80 00  	jal	zero, 0x1b214 <jinit_upsampler+0x84>
   1b210: 13 0b 00 00  	addi	s6, zero, 0x0
   1b214: 03 25 04 03  	lw	a0, 0x30(s0)
   1b218: 63 50 a0 22  	bge	zero, a0, 0x1b438 <jinit_upsampler+0x2a8>
   1b21c: 03 35 84 12  	ld	a0, 0x128(s0)
   1b220: 13 0c 00 00  	addi	s8, zero, 0x0
   1b224: 83 35 01 02  	ld	a1, 0x20(sp)
   1b228: 93 8c 05 0c  	addi	s9, a1, 0xc0
   1b22c: 13 8d 85 06  	addi	s10, a1, 0x68
   1b230: 93 0d 45 02  	addi	s11, a0, 0x24
   1b234: 93 8b 25 0f  	addi	s7, a1, 0xf2
   1b238: 37 b5 01 00  	lui	a0, 0x1b
   1b23c: 93 04 45 58  	addi	s1, a0, 0x584
   1b240: 37 b5 01 00  	lui	a0, 0x1b
   1b244: 13 05 c5 58  	addi	a0, a0, 0x58c
   1b248: 23 3c a1 02  	sd	a0, 0x38(sp)
   1b24c: 37 b5 01 00  	lui	a0, 0x1b
   1b250: 13 05 45 59  	addi	a0, a0, 0x594
   1b254: 23 38 a1 00  	sd	a0, 0x10(sp)
   1b258: 37 b5 01 00  	lui	a0, 0x1b
   1b25c: 13 05 c5 67  	addi	a0, a0, 0x67c
   1b260: 23 38 a1 02  	sd	a0, 0x30(sp)
   1b264: 37 b5 01 00  	lui	a0, 0x1b
   1b268: 13 05 85 6d  	addi	a0, a0, 0x6d8
   1b26c: 23 34 a1 00  	sd	a0, 0x8(sp)
   1b270: 37 c5 01 00  	lui	a0, 0x1c
   1b274: 13 05 85 85  	addi	a0, a0, -0x7a8
   1b278: 23 3c a1 00  	sd	a0, 0x18(sp)
   1b27c: 37 c5 01 00  	lui	a0, 0x1c
   1b280: 13 05 c5 8f  	addi	a0, a0, -0x704
   1b284: 23 30 a1 00  	sd	a0, 0x0(sp)
   1b288: 23 34 91 02  	sd	s1, 0x28(sp)
   1b28c: 83 a5 4d fe  	lw	a1, -0x1c(s11)
   1b290: 03 a9 0d 00  	lw	s2, 0x0(s11)
   1b294: 13 05 09 00  	addi	a0, s2, 0x0
   1b298: ef 80 d1 45  	jal	ra, 0x33ef4 <__muldi3>
   1b29c: 83 29 c4 18  	lw	s3, 0x18c(s0)
   1b2a0: 1b 05 05 00  	addiw	a0, a0, 0x0
   1b2a4: 93 85 09 00  	addi	a1, s3, 0x0
   1b2a8: ef 80 d1 48  	jal	ra, 0x33f34 <__divdi3>
   1b2ac: 83 a5 8d fe  	lw	a1, -0x18(s11)
   1b2b0: 13 0a 05 00  	addi	s4, a0, 0x0
   1b2b4: 13 85 05 00  	addi	a0, a1, 0x0
   1b2b8: 93 05 09 00  	addi	a1, s2, 0x0
   1b2bc: ef 80 91 43  	jal	ra, 0x33ef4 <__muldi3>
   1b2c0: 1b 05 05 00  	addiw	a0, a0, 0x0
   1b2c4: 93 85 09 00  	addi	a1, s3, 0x0
   1b2c8: ef 80 d1 46  	jal	ra, 0x33f34 <__divdi3>
   1b2cc: 93 09 05 00  	addi	s3, a0, 0x0
   1b2d0: 83 2a 44 18  	lw	s5, 0x184(s0)
   1b2d4: 03 29 84 18  	lw	s2, 0x188(s0)
   1b2d8: 23 a0 ac 00  	sw	a0, 0x0(s9)
   1b2dc: 03 a5 cd 00  	lw	a0, 0xc(s11)
   1b2e0: 63 00 05 02  	beq	a0, zero, 0x1b300 <jinit_upsampler+0x170>
   1b2e4: 9b 05 0a 00  	addiw	a1, s4, 0x0
   1b2e8: 1b 85 09 00  	addiw	a0, s3, 0x0
   1b2ec: 63 9e 55 01  	bne	a1, s5, 0x1b308 <jinit_upsampler+0x178>
   1b2f0: 63 1c 25 01  	bne	a0, s2, 0x1b308 <jinit_upsampler+0x178>
   1b2f4: 03 35 81 03  	ld	a0, 0x38(sp)
   1b2f8: 23 30 ad 00  	sd	a0, 0x0(s10)
   1b2fc: 6f 00 80 10  	jal	zero, 0x1b404 <jinit_upsampler+0x274>
   1b300: 23 30 9d 00  	sd	s1, 0x0(s10)
   1b304: 6f 00 00 10  	jal	zero, 0x1b404 <jinit_upsampler+0x274>
   1b308: 9b 15 1a 00  	slliw	a1, s4, 0x1
   1b30c: 63 90 55 03  	bne	a1, s5, 0x1b32c <jinit_upsampler+0x19c>
   1b310: 63 1e 25 01  	bne	a0, s2, 0x1b32c <jinit_upsampler+0x19c>
   1b314: 63 06 0b 04  	beq	s6, zero, 0x1b360 <jinit_upsampler+0x1d0>
   1b318: 03 a5 4d 00  	lw	a0, 0x4(s11)
   1b31c: 93 05 30 00  	addi	a1, zero, 0x3
   1b320: 63 60 b5 04  	bltu	a0, a1, 0x1b360 <jinit_upsampler+0x1d0>
   1b324: 03 35 01 01  	ld	a0, 0x10(sp)
   1b328: 6f 00 c0 0a  	jal	zero, 0x1b3d4 <jinit_upsampler+0x244>
   1b32c: 63 9e 55 03  	bne	a1, s5, 0x1b368 <jinit_upsampler+0x1d8>
   1b330: 1b 95 19 00  	slliw	a0, s3, 0x1
   1b334: 63 1a 25 03  	bne	a0, s2, 0x1b368 <jinit_upsampler+0x1d8>
   1b338: 63 0c 0b 08  	beq	s6, zero, 0x1b3d0 <jinit_upsampler+0x240>
   1b33c: 03 a5 4d 00  	lw	a0, 0x4(s11)
   1b340: 93 05 30 00  	addi	a1, zero, 0x3
   1b344: 63 66 b5 08  	bltu	a0, a1, 0x1b3d0 <jinit_upsampler+0x240>
   1b348: 03 35 81 00  	ld	a0, 0x8(sp)
   1b34c: 23 30 ad 00  	sd	a0, 0x0(s10)
   1b350: 03 35 01 02  	ld	a0, 0x20(sp)
   1b354: 93 05 10 00  	addi	a1, zero, 0x1
   1b358: 23 28 b5 00  	sw	a1, 0x10(a0)
   1b35c: 6f 00 c0 07  	jal	zero, 0x1b3d8 <jinit_upsampler+0x248>
   1b360: 03 35 01 03  	ld	a0, 0x30(sp)
   1b364: 6f 00 00 07  	jal	zero, 0x1b3d4 <jinit_upsampler+0x244>
   1b368: 93 04 0b 00  	addi	s1, s6, 0x0
   1b36c: 9b 05 0a 00  	addiw	a1, s4, 0x0
   1b370: 13 85 0a 00  	addi	a0, s5, 0x0
   1b374: ef 80 11 3c  	jal	ra, 0x33f34 <__divdi3>
   1b378: 13 0b 05 00  	addi	s6, a0, 0x0
   1b37c: 93 05 0a 00  	addi	a1, s4, 0x0
   1b380: ef 80 51 37  	jal	ra, 0x33ef4 <__muldi3>
   1b384: 3b 85 aa 40  	subw	a0, s5, a0
   1b388: 63 12 05 02  	bne	a0, zero, 0x1b3ac <jinit_upsampler+0x21c>
   1b38c: 9b 85 09 00  	addiw	a1, s3, 0x0
   1b390: 13 05 09 00  	addi	a0, s2, 0x0
   1b394: ef 80 11 3a  	jal	ra, 0x33f34 <__divdi3>
   1b398: 13 0a 05 00  	addi	s4, a0, 0x0
   1b39c: 93 85 09 00  	addi	a1, s3, 0x0
   1b3a0: ef 80 51 35  	jal	ra, 0x33ef4 <__muldi3>
   1b3a4: 3b 05 a9 40  	subw	a0, s2, a0
   1b3a8: 63 0e 05 06  	beq	a0, zero, 0x1b424 <jinit_upsampler+0x294>
   1b3ac: 03 35 04 00  	ld	a0, 0x0(s0)
   1b3b0: 83 35 05 00  	ld	a1, 0x0(a0)
   1b3b4: 13 06 50 02  	addi	a2, zero, 0x25
   1b3b8: 23 24 c5 02  	sw	a2, 0x28(a0)
   1b3bc: 13 05 04 00  	addi	a0, s0, 0x0
   1b3c0: e7 80 05 00  	jalr	ra, 0x0(a1)
   1b3c4: 13 8b 04 00  	addi	s6, s1, 0x0
   1b3c8: 83 34 81 02  	ld	s1, 0x28(sp)
   1b3cc: 6f 00 c0 00  	jal	zero, 0x1b3d8 <jinit_upsampler+0x248>
   1b3d0: 03 35 81 01  	ld	a0, 0x18(sp)
   1b3d4: 23 30 ad 00  	sd	a0, 0x0(s10)
   1b3d8: 03 35 84 00  	ld	a0, 0x8(s0)
   1b3dc: 03 39 05 01  	ld	s2, 0x10(a0)
   1b3e0: 03 65 04 08  	lwu	a0, 0x80(s0)
   1b3e4: 83 25 44 18  	lw	a1, 0x184(s0)
   1b3e8: ef 30 80 79  	jal	ra, 0x1eb80 <jround_up>
   1b3ec: 83 26 84 18  	lw	a3, 0x188(s0)
   1b3f0: 1b 06 05 00  	addiw	a2, a0, 0x0
   1b3f4: 93 05 10 00  	addi	a1, zero, 0x1
   1b3f8: 13 05 04 00  	addi	a0, s0, 0x0
   1b3fc: e7 00 09 00  	jalr	ra, 0x0(s2)
   1b400: 23 38 ad fa  	sd	a0, -0x50(s10)
   1b404: 13 0c 1c 00  	addi	s8, s8, 0x1
   1b408: 03 25 04 03  	lw	a0, 0x30(s0)
   1b40c: 93 8c 4c 00  	addi	s9, s9, 0x4
   1b410: 13 0d 8d 00  	addi	s10, s10, 0x8
   1b414: 93 8d 0d 06  	addi	s11, s11, 0x60
   1b418: 93 8b 1b 00  	addi	s7, s7, 0x1
   1b41c: e3 48 ac e6  	blt	s8, a0, 0x1b28c <jinit_upsampler+0xfc>
   1b420: 6f 00 80 01  	jal	zero, 0x1b438 <jinit_upsampler+0x2a8>
   1b424: 03 35 01 00  	ld	a0, 0x0(sp)
   1b428: 23 30 ad 00  	sd	a0, 0x0(s10)
   1b42c: 23 8b 6b ff  	sb	s6, -0xa(s7)
   1b430: 23 80 4b 01  	sb	s4, 0x0(s7)
   1b434: 6f f0 1f f9  	jal	zero, 0x1b3c4 <jinit_upsampler+0x234>
   1b438: 13 01 01 04  	addi	sp, sp, 0x40
   1b43c: 6f 80 d1 28  	jal	zero, 0x33ec8 <__riscv_restore_12>

000000000001b440 <start_pass_upsample>:
   1b440: 83 35 05 25  	ld	a1, 0x250(a0)
   1b444: 03 26 85 18  	lw	a2, 0x188(a0)
   1b448: 03 25 45 08  	lw	a0, 0x84(a0)
   1b44c: 23 ac c5 0a  	sw	a2, 0xb8(a1)
   1b450: 23 ae a5 0a  	sw	a0, 0xbc(a1)
   1b454: 67 80 00 00  	jalr	zero, 0x0(ra)

000000000001b458 <sep_upsample>:
   1b458: ef 82 71 22  	jal	t0, 0x33e7e <__riscv_save_12>
   1b45c: 13 01 01 ff  	addi	sp, sp, -0x10
   1b460: 93 04 05 00  	addi	s1, a0, 0x0
   1b464: 83 3b 05 25  	ld	s7, 0x250(a0)
   1b468: 83 a6 8b 0b  	lw	a3, 0xb8(s7)
   1b46c: 03 25 85 18  	lw	a0, 0x188(a0)
   1b470: 13 0a 08 00  	addi	s4, a6, 0x0
   1b474: 13 89 07 00  	addi	s2, a5, 0x0
   1b478: 13 04 06 00  	addi	s0, a2, 0x0
   1b47c: 63 c0 a6 08  	blt	a3, a0, 0x1b4fc <sep_upsample+0xa4>
   1b480: 93 8a 05 00  	addi	s5, a1, 0x0
   1b484: 83 a5 04 03  	lw	a1, 0x30(s1)
   1b488: 63 56 b0 06  	bge	zero, a1, 0x1b4f4 <sep_upsample+0x9c>
   1b48c: 23 34 e1 00  	sd	a4, 0x8(sp)
   1b490: 03 bb 84 12  	ld	s6, 0x128(s1)
   1b494: 13 0c 00 00  	addi	s8, zero, 0x0
   1b498: 93 8c 8b 06  	addi	s9, s7, 0x68
   1b49c: 13 8d 0b 0c  	addi	s10, s7, 0xc0
   1b4a0: 83 bd 0c 00  	ld	s11, 0x0(s9)
   1b4a4: 83 b9 0a 00  	ld	s3, 0x0(s5)
   1b4a8: 83 25 04 00  	lw	a1, 0x0(s0)
   1b4ac: 03 25 0d 00  	lw	a0, 0x0(s10)
   1b4b0: ef 80 51 24  	jal	ra, 0x33ef4 <__muldi3>
   1b4b4: 13 15 05 02  	slli	a0, a0, 0x20
   1b4b8: 13 55 d5 01  	srli	a0, a0, 0x1d
   1b4bc: 33 86 a9 00  	add	a2, s3, a0
   1b4c0: 93 86 0c fb  	addi	a3, s9, -0x50
   1b4c4: 13 85 04 00  	addi	a0, s1, 0x0
   1b4c8: 93 05 0b 00  	addi	a1, s6, 0x0
   1b4cc: e7 80 0d 00  	jalr	ra, 0x0(s11)
   1b4d0: 13 0c 1c 00  	addi	s8, s8, 0x1
   1b4d4: 03 a5 04 03  	lw	a0, 0x30(s1)
   1b4d8: 13 0b 0b 06  	addi	s6, s6, 0x60
   1b4dc: 93 8c 8c 00  	addi	s9, s9, 0x8
   1b4e0: 93 8a 8a 00  	addi	s5, s5, 0x8
   1b4e4: 13 0d 4d 00  	addi	s10, s10, 0x4
   1b4e8: e3 4c ac fa  	blt	s8, a0, 0x1b4a0 <sep_upsample+0x48>
   1b4ec: 03 a5 84 18  	lw	a0, 0x188(s1)
   1b4f0: 03 37 81 00  	ld	a4, 0x8(sp)
   1b4f4: 93 06 00 00  	addi	a3, zero, 0x0
   1b4f8: 23 ac 0b 0a  	sw	zero, 0xb8(s7)
   1b4fc: 83 a5 cb 0b  	lw	a1, 0xbc(s7)
   1b500: bb 0a d5 40  	subw	s5, a0, a3
   1b504: 63 e4 ba 00  	bltu	s5, a1, 0x1b50c <sep_upsample+0xb4>
   1b508: 93 8a 05 00  	addi	s5, a1, 0x0
   1b50c: 03 65 09 00  	lwu	a0, 0x0(s2)
   1b510: bb 05 aa 40  	subw	a1, s4, a0
   1b514: 63 e4 ba 00  	bltu	s5, a1, 0x1b51c <sep_upsample+0xc4>
   1b518: 93 8a 05 00  	addi	s5, a1, 0x0
   1b51c: 83 b5 84 25  	ld	a1, 0x258(s1)
   1b520: 83 b7 85 00  	ld	a5, 0x8(a1)
   1b524: 93 85 8b 01  	addi	a1, s7, 0x18
   1b528: 13 15 35 00  	slli	a0, a0, 0x3
   1b52c: b3 09 a7 00  	add	s3, a4, a0
   1b530: 13 85 04 00  	addi	a0, s1, 0x0
   1b534: 13 86 06 00  	addi	a2, a3, 0x0
   1b538: 93 86 09 00  	addi	a3, s3, 0x0
   1b53c: 13 87 0a 00  	addi	a4, s5, 0x0
   1b540: e7 80 07 00  	jalr	ra, 0x0(a5)
   1b544: 03 25 09 00  	lw	a0, 0x0(s2)
   1b548: 33 05 55 01  	add	a0, a0, s5
   1b54c: 23 20 a9 00  	sw	a0, 0x0(s2)
   1b550: 03 a5 cb 0b  	lw	a0, 0xbc(s7)
   1b554: 83 a5 8b 0b  	lw	a1, 0xb8(s7)
   1b558: 03 a6 84 18  	lw	a2, 0x188(s1)
   1b55c: 3b 05 55 41  	subw	a0, a0, s5
   1b560: 23 ae ab 0a  	sw	a0, 0xbc(s7)
   1b564: 3b 85 55 01  	addw	a0, a1, s5
   1b568: 23 ac ab 0a  	sw	a0, 0xb8(s7)
   1b56c: 63 48 c5 00  	blt	a0, a2, 0x1b57c <sep_upsample+0x124>
   1b570: 03 25 04 00  	lw	a0, 0x0(s0)
   1b574: 13 05 15 00  	addi	a0, a0, 0x1
   1b578: 23 20 a4 00  	sw	a0, 0x0(s0)
   1b57c: 13 01 01 01  	addi	sp, sp, 0x10
   1b580: 6f 80 91 14  	jal	zero, 0x33ec8 <__riscv_restore_12>

000000000001b584 <noop_upsample>:
   1b584: 23 b0 06 00  	sd	zero, 0x0(a3)
   1b588: 67 80 00 00  	jalr	zero, 0x0(ra)

000000000001b58c <fullsize_upsample>:
   1b58c: 23 b0 c6 00  	sd	a2, 0x0(a3)
   1b590: 67 80 00 00  	jalr	zero, 0x0(ra)

000000000001b594 <h2v1_fancy_upsample>:
   1b594: 03 27 85 18  	lw	a4, 0x188(a0)
   1b598: 63 50 e0 0e  	bge	zero, a4, 0x1b678 <h2v1_fancy_upsample+0xe4>
   1b59c: 83 b6 06 00  	ld	a3, 0x0(a3)
   1b5a0: 13 07 00 00  	addi	a4, zero, 0x0
   1b5a4: 93 07 20 00  	addi	a5, zero, 0x2
   1b5a8: 13 18 37 00  	slli	a6, a4, 0x3
   1b5ac: b3 08 06 01  	add	a7, a2, a6
   1b5b0: 03 b3 08 00  	ld	t1, 0x0(a7)
   1b5b4: 33 88 06 01  	add	a6, a3, a6
   1b5b8: 83 32 08 00  	ld	t0, 0x0(a6)
   1b5bc: 03 48 03 00  	lbu	a6, 0x0(t1)
   1b5c0: 23 80 02 01  	sb	a6, 0x0(t0)
   1b5c4: 83 48 13 00  	lbu	a7, 0x1(t1)
   1b5c8: 93 13 18 00  	slli	t2, a6, 0x1
   1b5cc: 33 08 18 01  	add	a6, a6, a7
   1b5d0: 33 88 03 01  	add	a6, t2, a6
   1b5d4: 13 08 28 00  	addi	a6, a6, 0x2
   1b5d8: 13 58 28 00  	srli	a6, a6, 0x2
   1b5dc: a3 80 02 01  	sb	a6, 0x1(t0)
   1b5e0: 83 a3 85 02  	lw	t2, 0x28(a1)
   1b5e4: 93 08 13 00  	addi	a7, t1, 0x1
   1b5e8: 13 88 22 00  	addi	a6, t0, 0x2
   1b5ec: 63 8e f3 04  	beq	t2, a5, 0x1b648 <h2v1_fancy_upsample+0xb4>
   1b5f0: 93 83 d3 ff  	addi	t2, t2, -0x3
   1b5f4: 93 93 03 02  	slli	t2, t2, 0x20
   1b5f8: 93 d2 03 02  	srli	t0, t2, 0x20
   1b5fc: b3 02 53 00  	add	t0, t1, t0
   1b600: 93 82 22 00  	addi	t0, t0, 0x2
   1b604: 03 c3 08 00  	lbu	t1, 0x0(a7)
   1b608: 83 c3 f8 ff  	lbu	t2, -0x1(a7)
   1b60c: 13 1e 13 00  	slli	t3, t1, 0x1
   1b610: 33 03 6e 00  	add	t1, t3, t1
   1b614: b3 83 63 00  	add	t2, t2, t1
   1b618: 93 83 13 00  	addi	t2, t2, 0x1
   1b61c: 93 d3 23 00  	srli	t2, t2, 0x2
   1b620: 23 00 78 00  	sb	t2, 0x0(a6)
   1b624: 83 c3 18 00  	lbu	t2, 0x1(a7)
   1b628: 93 88 18 00  	addi	a7, a7, 0x1
   1b62c: 33 03 73 00  	add	t1, t1, t2
   1b630: 13 03 23 00  	addi	t1, t1, 0x2
   1b634: 13 53 23 00  	srli	t1, t1, 0x2
   1b638: a3 00 68 00  	sb	t1, 0x1(a6)
   1b63c: 13 08 28 00  	addi	a6, a6, 0x2
   1b640: e3 92 58 fc  	bne	a7, t0, 0x1b604 <h2v1_fancy_upsample+0x70>
   1b644: 93 02 e8 ff  	addi	t0, a6, -0x2
   1b648: 03 c3 08 00  	lbu	t1, 0x0(a7)
   1b64c: 83 c8 f8 ff  	lbu	a7, -0x1(a7)
   1b650: 93 13 13 00  	slli	t2, t1, 0x1
   1b654: b3 88 68 00  	add	a7, a7, t1
   1b658: b3 88 78 00  	add	a7, a7, t2
   1b65c: 93 88 18 00  	addi	a7, a7, 0x1
   1b660: 93 d8 28 00  	srli	a7, a7, 0x2
   1b664: 23 00 18 01  	sb	a7, 0x0(a6)
   1b668: a3 81 62 00  	sb	t1, 0x3(t0)
   1b66c: 03 28 85 18  	lw	a6, 0x188(a0)
   1b670: 13 07 17 00  	addi	a4, a4, 0x1
   1b674: e3 4a 07 f3  	blt	a4, a6, 0x1b5a8 <h2v1_fancy_upsample+0x14>
   1b678: 67 80 00 00  	jalr	zero, 0x0(ra)

000000000001b67c <h2v1_upsample>:
   1b67c: 03 27 85 18  	lw	a4, 0x188(a0)
   1b680: 63 5a e0 04  	bge	zero, a4, 0x1b6d4 <h2v1_upsample+0x58>
   1b684: 83 b5 06 00  	ld	a1, 0x0(a3)
   1b688: 93 06 00 00  	addi	a3, zero, 0x0
   1b68c: 83 67 05 08  	lwu	a5, 0x80(a0)
   1b690: 63 8e 07 02  	beq	a5, zero, 0x1b6cc <h2v1_upsample+0x50>
   1b694: 13 98 36 00  	slli	a6, a3, 0x3
   1b698: 33 87 05 01  	add	a4, a1, a6
   1b69c: 03 37 07 00  	ld	a4, 0x0(a4)
   1b6a0: 33 08 06 01  	add	a6, a2, a6
   1b6a4: 03 38 08 00  	ld	a6, 0x0(a6)
   1b6a8: b3 07 f7 00  	add	a5, a4, a5
   1b6ac: 83 48 08 00  	lbu	a7, 0x0(a6)
   1b6b0: 13 08 18 00  	addi	a6, a6, 0x1
   1b6b4: 23 00 17 01  	sb	a7, 0x0(a4)
   1b6b8: 93 02 27 00  	addi	t0, a4, 0x2
   1b6bc: a3 00 17 01  	sb	a7, 0x1(a4)
   1b6c0: 13 87 02 00  	addi	a4, t0, 0x0
   1b6c4: e3 e4 f2 fe  	bltu	t0, a5, 0x1b6ac <h2v1_upsample+0x30>
   1b6c8: 03 27 85 18  	lw	a4, 0x188(a0)
   1b6cc: 93 86 16 00  	addi	a3, a3, 0x1
   1b6d0: e3 ce e6 fa  	blt	a3, a4, 0x1b68c <h2v1_upsample+0x10>
   1b6d4: 67 80 00 00  	jalr	zero, 0x0(ra)

000000000001b6d8 <h2v2_fancy_upsample>:
   1b6d8: 03 27 85 18  	lw	a4, 0x188(a0)
   1b6dc: 63 5c e0 16  	bge	zero, a4, 0x1b854 <h2v2_fancy_upsample+0x17c>
   1b6e0: ef 82 e1 7c  	jal	t0, 0x33eae <__riscv_save_3>
   1b6e4: 83 b6 06 00  	ld	a3, 0x0(a3)
   1b6e8: 13 07 00 00  	addi	a4, zero, 0x0
   1b6ec: 93 07 00 00  	addi	a5, zero, 0x0
   1b6f0: 13 08 20 00  	addi	a6, zero, 0x2
   1b6f4: 93 18 37 00  	slli	a7, a4, 0x3
   1b6f8: b3 08 16 01  	add	a7, a2, a7
   1b6fc: 9b 87 07 00  	addiw	a5, a5, 0x0
   1b700: 93 0e 10 00  	addi	t4, zero, 0x1
   1b704: 93 f2 1e 00  	andi	t0, t4, 0x1
   1b708: 13 03 80 ff  	addi	t1, zero, -0x8
   1b70c: 63 94 02 00  	bne	t0, zero, 0x1b714 <h2v2_fancy_upsample+0x3c>
   1b710: 13 03 80 00  	addi	t1, zero, 0x8
   1b714: 03 bf 08 00  	ld	t5, 0x0(a7)
   1b718: 33 83 68 00  	add	t1, a7, t1
   1b71c: 83 3f 03 00  	ld	t6, 0x0(t1)
   1b720: 03 43 0f 00  	lbu	t1, 0x0(t5)
   1b724: 93 93 37 00  	slli	t2, a5, 0x3
   1b728: b3 83 76 00  	add	t2, a3, t2
   1b72c: 03 be 03 00  	ld	t3, 0x0(t2)
   1b730: 93 13 13 00  	slli	t2, t1, 0x1
   1b734: 83 ce 0f 00  	lbu	t4, 0x0(t6)
   1b738: 03 44 1f 00  	lbu	s0, 0x1(t5)
   1b73c: 33 83 63 00  	add	t1, t2, t1
   1b740: 83 c3 1f 00  	lbu	t2, 0x1(t6)
   1b744: b3 0e d3 01  	add	t4, t1, t4
   1b748: 13 13 14 00  	slli	t1, s0, 0x1
   1b74c: 33 03 83 00  	add	t1, t1, s0
   1b750: 33 03 73 00  	add	t1, t1, t2
   1b754: 93 93 2e 00  	slli	t2, t4, 0x2
   1b758: 93 83 83 00  	addi	t2, t2, 0x8
   1b75c: 93 d3 43 00  	srli	t2, t2, 0x4
   1b760: 23 00 7e 00  	sb	t2, 0x0(t3)
   1b764: 93 93 1e 00  	slli	t2, t4, 0x1
   1b768: 33 84 6e 00  	add	s0, t4, t1
   1b76c: b3 83 83 00  	add	t2, t2, s0
   1b770: 93 83 73 00  	addi	t2, t2, 0x7
   1b774: 93 d3 43 00  	srli	t2, t2, 0x4
   1b778: a3 00 7e 00  	sb	t2, 0x1(t3)
   1b77c: 83 a4 85 02  	lw	s1, 0x28(a1)
   1b780: 93 03 2e 00  	addi	t2, t3, 0x2
   1b784: 63 80 04 09  	beq	s1, a6, 0x1b804 <h2v2_fancy_upsample+0x12c>
   1b788: 93 8f 2f 00  	addi	t6, t6, 0x2
   1b78c: 13 04 2f 00  	addi	s0, t5, 0x2
   1b790: 93 84 d4 ff  	addi	s1, s1, -0x3
   1b794: 93 94 04 02  	slli	s1, s1, 0x20
   1b798: 93 d4 04 02  	srli	s1, s1, 0x20
   1b79c: 33 0e 9f 00  	add	t3, t5, s1
   1b7a0: 13 0e 3e 00  	addi	t3, t3, 0x3
   1b7a4: 83 44 04 00  	lbu	s1, 0x0(s0)
   1b7a8: 13 0f 03 00  	addi	t5, t1, 0x0
   1b7ac: 03 c3 0f 00  	lbu	t1, 0x0(t6)
   1b7b0: 13 09 14 00  	addi	s2, s0, 0x1
   1b7b4: 13 94 14 00  	slli	s0, s1, 0x1
   1b7b8: 93 8f 1f 00  	addi	t6, t6, 0x1
   1b7bc: 33 83 64 00  	add	t1, s1, t1
   1b7c0: 33 03 64 00  	add	t1, s0, t1
   1b7c4: 13 14 1f 00  	slli	s0, t5, 0x1
   1b7c8: 33 04 e4 01  	add	s0, s0, t5
   1b7cc: b3 8e 8e 00  	add	t4, t4, s0
   1b7d0: 93 8e 8e 00  	addi	t4, t4, 0x8
   1b7d4: 93 de 4e 00  	srli	t4, t4, 0x4
   1b7d8: 23 80 d3 01  	sb	t4, 0x0(t2)
   1b7dc: 33 04 64 00  	add	s0, s0, t1
   1b7e0: 13 04 74 00  	addi	s0, s0, 0x7
   1b7e4: 13 54 44 00  	srli	s0, s0, 0x4
   1b7e8: a3 80 83 00  	sb	s0, 0x1(t2)
   1b7ec: 93 83 23 00  	addi	t2, t2, 0x2
   1b7f0: 93 0e 0f 00  	addi	t4, t5, 0x0
   1b7f4: 13 04 09 00  	addi	s0, s2, 0x0
   1b7f8: e3 16 c9 fb  	bne	s2, t3, 0x1b7a4 <h2v2_fancy_upsample+0xcc>
   1b7fc: 13 8e e3 ff  	addi	t3, t2, -0x2
   1b800: 6f 00 80 00  	jal	zero, 0x1b808 <h2v2_fancy_upsample+0x130>
   1b804: 13 8f 0e 00  	addi	t5, t4, 0x0
   1b808: 93 0e 00 00  	addi	t4, zero, 0x0
   1b80c: 93 1f 13 00  	slli	t6, t1, 0x1
   1b810: 33 0f 6f 00  	add	t5, t5, t1
   1b814: 33 0f ff 01  	add	t5, t5, t6
   1b818: 93 87 17 00  	addi	a5, a5, 0x1
   1b81c: 13 0f 8f 00  	addi	t5, t5, 0x8
   1b820: 13 5f 4f 00  	srli	t5, t5, 0x4
   1b824: 23 80 e3 01  	sb	t5, 0x0(t2)
   1b828: 13 13 23 00  	slli	t1, t1, 0x2
   1b82c: 13 03 73 00  	addi	t1, t1, 0x7
   1b830: 13 53 43 00  	srli	t1, t1, 0x4
   1b834: a3 01 6e 00  	sb	t1, 0x3(t3)
   1b838: e3 96 02 ec  	bne	t0, zero, 0x1b704 <h2v2_fancy_upsample+0x2c>
   1b83c: 83 28 85 18  	lw	a7, 0x188(a0)
   1b840: 9b 82 07 00  	addiw	t0, a5, 0x0
   1b844: 13 07 17 00  	addi	a4, a4, 0x1
   1b848: e3 c6 12 eb  	blt	t0, a7, 0x1b6f4 <h2v2_fancy_upsample+0x1c>
   1b84c: 6f 80 81 69  	jal	zero, 0x33ee4 <__riscv_restore_3>
   1b850: 6f 00 40 00  	jal	zero, 0x1b854 <h2v2_fancy_upsample+0x17c>
   1b854: 67 80 00 00  	jalr	zero, 0x0(ra)

000000000001b858 <h2v2_upsample>:
   1b858: ef 82 21 64  	jal	t0, 0x33e9a <__riscv_save_7>
   1b85c: 13 04 05 00  	addi	s0, a0, 0x0
   1b860: 03 25 85 18  	lw	a0, 0x188(a0)
   1b864: 63 5a a0 08  	bge	zero, a0, 0x1b8f8 <h2v2_upsample+0xa0>
   1b868: 93 04 06 00  	addi	s1, a2, 0x0
   1b86c: 03 b9 06 00  	ld	s2, 0x0(a3)
   1b870: 93 09 00 00  	addi	s3, zero, 0x0
   1b874: 93 0a 00 00  	addi	s5, zero, 0x0
   1b878: 13 0a 00 00  	addi	s4, zero, 0x0
   1b87c: 83 65 04 08  	lwu	a1, 0x80(s0)
   1b880: 63 82 05 04  	beq	a1, zero, 0x1b8c4 <h2v2_upsample+0x6c>
   1b884: 13 95 3a 00  	slli	a0, s5, 0x3
   1b888: 33 05 a9 00  	add	a0, s2, a0
   1b88c: 03 35 05 00  	ld	a0, 0x0(a0)
   1b890: 13 96 39 00  	slli	a2, s3, 0x3
   1b894: 33 86 c4 00  	add	a2, s1, a2
   1b898: 03 36 06 00  	ld	a2, 0x0(a2)
   1b89c: b3 05 b5 00  	add	a1, a0, a1
   1b8a0: 83 46 06 00  	lbu	a3, 0x0(a2)
   1b8a4: 13 06 16 00  	addi	a2, a2, 0x1
   1b8a8: 23 00 d5 00  	sb	a3, 0x0(a0)
   1b8ac: 13 07 25 00  	addi	a4, a0, 0x2
   1b8b0: a3 00 d5 00  	sb	a3, 0x1(a0)
   1b8b4: 13 05 07 00  	addi	a0, a4, 0x0
   1b8b8: e3 64 b7 fe  	bltu	a4, a1, 0x1b8a0 <h2v2_upsample+0x48>
   1b8bc: 83 27 04 08  	lw	a5, 0x80(s0)
   1b8c0: 6f 00 80 00  	jal	zero, 0x1b8c8 <h2v2_upsample+0x70>
   1b8c4: 93 07 00 00  	addi	a5, zero, 0x0
   1b8c8: 93 66 1a 00  	ori	a3, s4, 0x1
   1b8cc: 9b 85 0a 00  	addiw	a1, s5, 0x0
   1b8d0: 13 07 10 00  	addi	a4, zero, 0x1
   1b8d4: 13 05 09 00  	addi	a0, s2, 0x0
   1b8d8: 13 06 09 00  	addi	a2, s2, 0x0
   1b8dc: ef 30 00 2c  	jal	ra, 0x1eb9c <jcopy_sample_rows>
   1b8e0: 03 25 84 18  	lw	a0, 0x188(s0)
   1b8e4: 93 89 19 00  	addi	s3, s3, 0x1
   1b8e8: 9b 85 2a 00  	addiw	a1, s5, 0x2
   1b8ec: 93 8a 2a 00  	addi	s5, s5, 0x2
   1b8f0: 1b 0a 2a 00  	addiw	s4, s4, 0x2
   1b8f4: e3 c4 a5 f8  	blt	a1, a0, 0x1b87c <h2v2_upsample+0x24>
   1b8f8: 6f 80 01 5e  	jal	zero, 0x33ed8 <__riscv_restore_7>

000000000001b8fc <int_upsample>:
   1b8fc: ef 82 21 58  	jal	t0, 0x33e7e <__riscv_save_12>
   1b900: 13 01 01 ff  	addi	sp, sp, -0x10
   1b904: 13 04 05 00  	addi	s0, a0, 0x0
   1b908: 03 25 85 18  	lw	a0, 0x188(a0)
   1b90c: 63 52 a0 0c  	bge	zero, a0, 0x1b9d0 <int_upsample+0xd4>
   1b910: 93 04 06 00  	addi	s1, a2, 0x0
   1b914: 03 35 04 25  	ld	a0, 0x250(s0)
   1b918: 83 a5 45 00  	lw	a1, 0x4(a1)
   1b91c: 33 05 b5 00  	add	a0, a0, a1
   1b920: 03 4b 25 0f  	lbu	s6, 0xf2(a0)
   1b924: 03 49 85 0e  	lbu	s2, 0xe8(a0)
   1b928: 93 0b 00 00  	addi	s7, zero, 0x0
   1b92c: 93 0c 00 00  	addi	s9, zero, 0x0
   1b930: 13 0c 00 00  	addi	s8, zero, 0x0
   1b934: 83 b9 06 00  	ld	s3, 0x0(a3)
   1b938: 13 05 fb ff  	addi	a0, s6, -0x1
   1b93c: 23 34 a1 00  	sd	a0, 0x8(sp)
   1b940: 13 05 f9 ff  	addi	a0, s2, -0x1
   1b944: 13 15 05 02  	slli	a0, a0, 0x20
   1b948: 13 55 05 02  	srli	a0, a0, 0x20
   1b94c: 13 0d 15 00  	addi	s10, a0, 0x1
   1b950: 83 6d 04 08  	lwu	s11, 0x80(s0)
   1b954: 63 80 0d 04  	beq	s11, zero, 0x1b994 <int_upsample+0x98>
   1b958: 13 95 3c 00  	slli	a0, s9, 0x3
   1b95c: 33 85 a9 00  	add	a0, s3, a0
   1b960: 83 3a 05 00  	ld	s5, 0x0(a0)
   1b964: 13 95 3b 00  	slli	a0, s7, 0x3
   1b968: 33 85 a4 00  	add	a0, s1, a0
   1b96c: 03 3a 05 00  	ld	s4, 0x0(a0)
   1b970: b3 8d ba 01  	add	s11, s5, s11
   1b974: 63 0c 09 00  	beq	s2, zero, 0x1b98c <int_upsample+0x90>
   1b978: 83 45 0a 00  	lbu	a1, 0x0(s4)
   1b97c: 13 85 0a 00  	addi	a0, s5, 0x0
   1b980: 13 06 09 00  	addi	a2, s2, 0x0
   1b984: ef 60 c0 37  	jal	ra, 0x21d00 <memset>
   1b988: b3 8a aa 01  	add	s5, s5, s10
   1b98c: 13 0a 1a 00  	addi	s4, s4, 0x1
   1b990: e3 e2 ba ff  	bltu	s5, s11, 0x1b974 <int_upsample+0x78>
   1b994: 13 05 20 00  	addi	a0, zero, 0x2
   1b998: 63 60 ab 02  	bltu	s6, a0, 0x1b9b8 <int_upsample+0xbc>
   1b99c: 83 27 04 08  	lw	a5, 0x80(s0)
   1b9a0: 9b 06 1c 00  	addiw	a3, s8, 0x1
   1b9a4: 9b 85 0c 00  	addiw	a1, s9, 0x0
   1b9a8: 13 85 09 00  	addi	a0, s3, 0x0
   1b9ac: 13 86 09 00  	addi	a2, s3, 0x0
   1b9b0: 03 37 81 00  	ld	a4, 0x8(sp)
   1b9b4: ef 30 80 1e  	jal	ra, 0x1eb9c <jcopy_sample_rows>
   1b9b8: 03 25 84 18  	lw	a0, 0x188(s0)
   1b9bc: 93 8b 1b 00  	addi	s7, s7, 0x1
   1b9c0: bb 85 6c 01  	addw	a1, s9, s6
   1b9c4: b3 8c 6c 01  	add	s9, s9, s6
   1b9c8: 33 0c 6c 01  	add	s8, s8, s6
   1b9cc: e3 c2 a5 f8  	blt	a1, a0, 0x1b950 <int_upsample+0x54>
   1b9d0: 13 01 01 01  	addi	sp, sp, 0x10
   1b9d4: 6f 80 41 4f  	jal	zero, 0x33ec8 <__riscv_restore_12>

000000000001b9d8 <jinit_color_deconverter>:
   1b9d8: ef 82 61 4d  	jal	t0, 0x33eae <__riscv_save_3>
   1b9dc: 13 04 05 00  	addi	s0, a0, 0x0
   1b9e0: 03 35 85 00  	ld	a0, 0x8(a0)
   1b9e4: 83 36 05 00  	ld	a3, 0x0(a0)
   1b9e8: 93 05 10 00  	addi	a1, zero, 0x1
   1b9ec: 13 06 00 03  	addi	a2, zero, 0x30
   1b9f0: 13 05 04 00  	addi	a0, s0, 0x0
   1b9f4: e7 80 06 00  	jalr	ra, 0x0(a3)
   1b9f8: 93 04 05 00  	addi	s1, a0, 0x0
   1b9fc: 03 25 44 03  	lw	a0, 0x34(s0)
   1ba00: b7 c5 01 00  	lui	a1, 0x1c
   1ba04: 93 85 45 b8  	addi	a1, a1, -0x47c
   1ba08: 23 b0 b4 00  	sd	a1, 0x0(s1)
   1ba0c: 13 06 e5 ff  	addi	a2, a0, -0x2
   1ba10: 93 05 20 00  	addi	a1, zero, 0x2
   1ba14: 23 3c 94 24  	sd	s1, 0x258(s0)
   1ba18: 63 6e b6 00  	bltu	a2, a1, 0x1ba34 <jinit_color_deconverter+0x5c>
   1ba1c: 13 06 c5 ff  	addi	a2, a0, -0x4
   1ba20: 63 74 b6 0a  	bgeu	a2, a1, 0x1bac8 <jinit_color_deconverter+0xf0>
   1ba24: 03 25 04 03  	lw	a0, 0x30(s0)
   1ba28: 93 05 40 00  	addi	a1, zero, 0x4
   1ba2c: 63 1a b5 00  	bne	a0, a1, 0x1ba40 <jinit_color_deconverter+0x68>
   1ba30: 6f 00 80 02  	jal	zero, 0x1ba58 <jinit_color_deconverter+0x80>
   1ba34: 03 25 04 03  	lw	a0, 0x30(s0)
   1ba38: 93 05 30 00  	addi	a1, zero, 0x3
   1ba3c: 63 0e b5 00  	beq	a0, a1, 0x1ba58 <jinit_color_deconverter+0x80>
   1ba40: 03 35 04 00  	ld	a0, 0x0(s0)
   1ba44: 83 35 05 00  	ld	a1, 0x0(a0)
   1ba48: 13 06 80 00  	addi	a2, zero, 0x8
   1ba4c: 23 24 c5 02  	sw	a2, 0x28(a0)
   1ba50: 13 05 04 00  	addi	a0, s0, 0x0
   1ba54: e7 80 05 00  	jalr	ra, 0x0(a1)
   1ba58: 03 25 84 03  	lw	a0, 0x38(s0)
   1ba5c: 93 05 40 00  	addi	a1, zero, 0x4
   1ba60: 63 0e b5 08  	beq	a0, a1, 0x1bafc <jinit_color_deconverter+0x124>
   1ba64: 93 05 20 00  	addi	a1, zero, 0x2
   1ba68: 63 0a b5 06  	beq	a0, a1, 0x1badc <jinit_color_deconverter+0x104>
   1ba6c: 93 05 10 00  	addi	a1, zero, 0x1
   1ba70: 63 1c b5 0a  	bne	a0, a1, 0x1bb28 <jinit_color_deconverter+0x150>
   1ba74: 03 25 44 03  	lw	a0, 0x34(s0)
   1ba78: 13 65 25 00  	ori	a0, a0, 0x2
   1ba7c: 13 06 30 00  	addi	a2, zero, 0x3
   1ba80: 23 24 b4 08  	sw	a1, 0x88(s0)
   1ba84: 63 12 c5 0c  	bne	a0, a2, 0x1bb48 <jinit_color_deconverter+0x170>
   1ba88: 03 25 04 03  	lw	a0, 0x30(s0)
   1ba8c: b7 c5 01 00  	lui	a1, 0x1c
   1ba90: 93 85 85 b8  	addi	a1, a1, -0x478
   1ba94: 13 06 20 00  	addi	a2, zero, 0x2
   1ba98: 23 b4 b4 00  	sd	a1, 0x8(s1)
   1ba9c: 63 42 c5 0c  	blt	a0, a2, 0x1bb60 <jinit_color_deconverter+0x188>
   1baa0: 03 39 84 12  	ld	s2, 0x128(s0)
   1baa4: 93 04 09 09  	addi	s1, s2, 0x90
   1baa8: 93 05 00 06  	addi	a1, zero, 0x60
   1baac: ef 80 81 44  	jal	ra, 0x33ef4 <__muldi3>
   1bab0: 33 05 25 01  	add	a0, a0, s2
   1bab4: 13 05 05 03  	addi	a0, a0, 0x30
   1bab8: 23 a0 04 00  	sw	zero, 0x0(s1)
   1babc: 93 84 04 06  	addi	s1, s1, 0x60
   1bac0: e3 9c a4 fe  	bne	s1, a0, 0x1bab8 <jinit_color_deconverter+0xe0>
   1bac4: 6f 00 c0 09  	jal	zero, 0x1bb60 <jinit_color_deconverter+0x188>
   1bac8: 93 05 10 00  	addi	a1, zero, 0x1
   1bacc: 63 16 b5 0a  	bne	a0, a1, 0x1bb78 <jinit_color_deconverter+0x1a0>
   1bad0: 03 25 04 03  	lw	a0, 0x30(s0)
   1bad4: e3 16 b5 f6  	bne	a0, a1, 0x1ba40 <jinit_color_deconverter+0x68>
   1bad8: 6f f0 1f f8  	jal	zero, 0x1ba58 <jinit_color_deconverter+0x80>
   1badc: 03 25 44 03  	lw	a0, 0x34(s0)
   1bae0: 13 06 30 00  	addi	a2, zero, 0x3
   1bae4: 23 24 c4 08  	sw	a2, 0x88(s0)
   1bae8: 63 08 b5 04  	beq	a0, a1, 0x1bb38 <jinit_color_deconverter+0x160>
   1baec: 63 1e c5 04  	bne	a0, a2, 0x1bb48 <jinit_color_deconverter+0x170>
   1baf0: 37 c5 01 00  	lui	a0, 0x1c
   1baf4: 13 05 45 ba  	addi	a0, a0, -0x45c
   1baf8: 6f 00 00 02  	jal	zero, 0x1bb18 <jinit_color_deconverter+0x140>
   1bafc: 03 25 44 03  	lw	a0, 0x34(s0)
   1bb00: 23 24 b4 08  	sw	a1, 0x88(s0)
   1bb04: 63 0a b5 02  	beq	a0, a1, 0x1bb38 <jinit_color_deconverter+0x160>
   1bb08: 93 05 50 00  	addi	a1, zero, 0x5
   1bb0c: 63 1e b5 02  	bne	a0, a1, 0x1bb48 <jinit_color_deconverter+0x170>
   1bb10: 37 c5 01 00  	lui	a0, 0x1c
   1bb14: 13 05 85 e5  	addi	a0, a0, -0x1a8
   1bb18: 23 b4 a4 00  	sd	a0, 0x8(s1)
   1bb1c: 13 05 04 00  	addi	a0, s0, 0x0
   1bb20: ef 00 40 19  	jal	ra, 0x1bcb4 <build_ycc_rgb_table>
   1bb24: 6f 00 c0 03  	jal	zero, 0x1bb60 <jinit_color_deconverter+0x188>
   1bb28: 83 25 44 03  	lw	a1, 0x34(s0)
   1bb2c: 63 1e b5 00  	bne	a0, a1, 0x1bb48 <jinit_color_deconverter+0x170>
   1bb30: 03 25 04 03  	lw	a0, 0x30(s0)
   1bb34: 23 24 a4 08  	sw	a0, 0x88(s0)
   1bb38: 37 c5 01 00  	lui	a0, 0x1c
   1bb3c: 13 05 85 dc  	addi	a0, a0, -0x238
   1bb40: 23 b4 a4 00  	sd	a0, 0x8(s1)
   1bb44: 6f 00 c0 01  	jal	zero, 0x1bb60 <jinit_color_deconverter+0x188>
   1bb48: 03 35 04 00  	ld	a0, 0x0(s0)
   1bb4c: 83 35 05 00  	ld	a1, 0x0(a0)
   1bb50: 13 06 90 01  	addi	a2, zero, 0x19
   1bb54: 23 24 c5 02  	sw	a2, 0x28(a0)
   1bb58: 13 05 04 00  	addi	a0, s0, 0x0
   1bb5c: e7 80 05 00  	jalr	ra, 0x0(a1)
   1bb60: 83 25 44 06  	lw	a1, 0x64(s0)
   1bb64: 13 05 10 00  	addi	a0, zero, 0x1
   1bb68: 63 94 05 00  	bne	a1, zero, 0x1bb70 <jinit_color_deconverter+0x198>
   1bb6c: 03 25 84 08  	lw	a0, 0x88(s0)
   1bb70: 23 26 a4 08  	sw	a0, 0x8c(s0)
   1bb74: 6f 80 01 37  	jal	zero, 0x33ee4 <__riscv_restore_3>
   1bb78: 03 25 04 03  	lw	a0, 0x30(s0)
   1bb7c: e3 4e a0 ec  	blt	zero, a0, 0x1ba58 <jinit_color_deconverter+0x80>
   1bb80: 6f f0 1f ec  	jal	zero, 0x1ba40 <jinit_color_deconverter+0x68>

000000000001bb84 <start_pass_dcolor>:
   1bb84: 67 80 00 00  	jalr	zero, 0x0(ra)

000000000001bb88 <grayscale_convert>:
   1bb88: 83 b5 05 00  	ld	a1, 0x0(a1)
   1bb8c: 83 27 05 08  	lw	a5, 0x80(a0)
   1bb90: 13 85 05 00  	addi	a0, a1, 0x0
   1bb94: 93 05 06 00  	addi	a1, a2, 0x0
   1bb98: 13 86 06 00  	addi	a2, a3, 0x0
   1bb9c: 93 06 00 00  	addi	a3, zero, 0x0
   1bba0: 6f 20 d0 7f  	jal	zero, 0x1eb9c <jcopy_sample_rows>

000000000001bba4 <ycc_rgb_convert>:
   1bba4: 63 56 e0 10  	bge	zero, a4, 0x1bcb0 <ycc_rgb_convert+0x10c>
   1bba8: ef 82 21 2f  	jal	t0, 0x33e9a <__riscv_save_7>
   1bbac: 03 33 85 25  	ld	t1, 0x258(a0)
   1bbb0: 83 37 85 19  	ld	a5, 0x198(a0)
   1bbb4: 03 38 03 01  	ld	a6, 0x10(t1)
   1bbb8: 03 65 05 08  	lwu	a0, 0x80(a0)
   1bbbc: 83 38 83 01  	ld	a7, 0x18(t1)
   1bbc0: 83 32 03 02  	ld	t0, 0x20(t1)
   1bbc4: 03 33 83 02  	ld	t1, 0x28(t1)
   1bbc8: 93 13 15 00  	slli	t2, a0, 0x1
   1bbcc: b3 83 a3 00  	add	t2, t2, a0
   1bbd0: 13 0e 20 00  	addi	t3, zero, 0x2
   1bbd4: 93 0e 07 00  	addi	t4, a4, 0x0
   1bbd8: 63 00 05 0c  	beq	a0, zero, 0x1bc98 <ycc_rgb_convert+0xf4>
   1bbdc: 03 b7 05 00  	ld	a4, 0x0(a1)
   1bbe0: 13 1f 06 02  	slli	t5, a2, 0x20
   1bbe4: 93 5f df 01  	srli	t6, t5, 0x1d
   1bbe8: 03 bf 85 00  	ld	t5, 0x8(a1)
   1bbec: 33 07 f7 01  	add	a4, a4, t6
   1bbf0: 03 b4 05 01  	ld	s0, 0x10(a1)
   1bbf4: 03 37 07 00  	ld	a4, 0x0(a4)
   1bbf8: 33 0f ff 01  	add	t5, t5, t6
   1bbfc: 03 3f 0f 00  	ld	t5, 0x0(t5)
   1bc00: 33 04 f4 01  	add	s0, s0, t6
   1bc04: 83 bf 06 00  	ld	t6, 0x0(a3)
   1bc08: 03 34 04 00  	ld	s0, 0x0(s0)
   1bc0c: b3 84 7f 00  	add	s1, t6, t2
   1bc10: 03 49 04 00  	lbu	s2, 0x0(s0)
   1bc14: 83 49 07 00  	lbu	s3, 0x0(a4)
   1bc18: 13 1a 29 00  	slli	s4, s2, 0x2
   1bc1c: 33 0a 48 01  	add	s4, a6, s4
   1bc20: 03 2a 0a 00  	lw	s4, 0x0(s4)
   1bc24: 3b 0a 3a 01  	addw	s4, s4, s3
   1bc28: 33 8a 47 01  	add	s4, a5, s4
   1bc2c: 03 4a 0a 00  	lbu	s4, 0x0(s4)
   1bc30: 83 4a 0f 00  	lbu	s5, 0x0(t5)
   1bc34: 23 80 4f 01  	sb	s4, 0x0(t6)
   1bc38: 13 9a 3a 00  	slli	s4, s5, 0x3
   1bc3c: 33 0a 43 01  	add	s4, t1, s4
   1bc40: 03 3a 0a 00  	ld	s4, 0x0(s4)
   1bc44: 13 19 39 00  	slli	s2, s2, 0x3
   1bc48: 33 89 22 01  	add	s2, t0, s2
   1bc4c: 03 39 09 00  	ld	s2, 0x0(s2)
   1bc50: 33 09 49 01  	add	s2, s2, s4
   1bc54: 13 59 09 01  	srli	s2, s2, 0x10
   1bc58: 3b 09 39 01  	addw	s2, s2, s3
   1bc5c: 33 89 27 01  	add	s2, a5, s2
   1bc60: 03 49 09 00  	lbu	s2, 0x0(s2)
   1bc64: a3 80 2f 01  	sb	s2, 0x1(t6)
   1bc68: 93 9a 2a 00  	slli	s5, s5, 0x2
   1bc6c: b3 8a 58 01  	add	s5, a7, s5
   1bc70: 03 a9 0a 00  	lw	s2, 0x0(s5)
   1bc74: 3b 09 39 01  	addw	s2, s2, s3
   1bc78: 33 89 27 01  	add	s2, a5, s2
   1bc7c: 03 49 09 00  	lbu	s2, 0x0(s2)
   1bc80: 23 81 2f 01  	sb	s2, 0x2(t6)
   1bc84: 13 07 17 00  	addi	a4, a4, 0x1
   1bc88: 13 0f 1f 00  	addi	t5, t5, 0x1
   1bc8c: 93 8f 3f 00  	addi	t6, t6, 0x3
   1bc90: 13 04 14 00  	addi	s0, s0, 0x1
   1bc94: e3 9e 9f f6  	bne	t6, s1, 0x1bc10 <ycc_rgb_convert+0x6c>
   1bc98: 1b 87 fe ff  	addiw	a4, t4, -0x1
   1bc9c: 13 06 16 00  	addi	a2, a2, 0x1
   1bca0: 93 86 86 00  	addi	a3, a3, 0x8
   1bca4: e3 d8 ce f3  	bge	t4, t3, 0x1bbd4 <ycc_rgb_convert+0x30>
   1bca8: 6f 80 01 23  	jal	zero, 0x33ed8 <__riscv_restore_7>
   1bcac: 6f 00 40 00  	jal	zero, 0x1bcb0 <ycc_rgb_convert+0x10c>
   1bcb0: 67 80 00 00  	jalr	zero, 0x0(ra)

000000000001bcb4 <build_ycc_rgb_table>:
   1bcb4: ef 82 a1 1f  	jal	t0, 0x33eae <__riscv_save_3>
   1bcb8: 13 04 05 00  	addi	s0, a0, 0x0
   1bcbc: 03 35 85 00  	ld	a0, 0x8(a0)
   1bcc0: 03 39 84 25  	ld	s2, 0x258(s0)
   1bcc4: 83 36 05 00  	ld	a3, 0x0(a0)
   1bcc8: 93 05 10 00  	addi	a1, zero, 0x1
   1bccc: 13 06 00 40  	addi	a2, zero, 0x400
   1bcd0: 93 04 10 00  	addi	s1, zero, 0x1
   1bcd4: 13 05 04 00  	addi	a0, s0, 0x0
   1bcd8: e7 80 06 00  	jalr	ra, 0x0(a3)
   1bcdc: 83 35 84 00  	ld	a1, 0x8(s0)
   1bce0: 83 b6 05 00  	ld	a3, 0x0(a1)
   1bce4: 23 38 a9 00  	sd	a0, 0x10(s2)
   1bce8: 93 05 10 00  	addi	a1, zero, 0x1
   1bcec: 13 06 00 40  	addi	a2, zero, 0x400
   1bcf0: 13 05 04 00  	addi	a0, s0, 0x0
   1bcf4: e7 80 06 00  	jalr	ra, 0x0(a3)
   1bcf8: 83 35 84 00  	ld	a1, 0x8(s0)
   1bcfc: 83 b6 05 00  	ld	a3, 0x0(a1)
   1bd00: 23 3c a9 00  	sd	a0, 0x18(s2)
   1bd04: 93 94 b4 00  	slli	s1, s1, 0xb
   1bd08: 93 05 10 00  	addi	a1, zero, 0x1
   1bd0c: 13 05 04 00  	addi	a0, s0, 0x0
   1bd10: 13 86 04 00  	addi	a2, s1, 0x0
   1bd14: e7 80 06 00  	jalr	ra, 0x0(a3)
   1bd18: 83 35 84 00  	ld	a1, 0x8(s0)
   1bd1c: 83 b6 05 00  	ld	a3, 0x0(a1)
   1bd20: 23 30 a9 02  	sd	a0, 0x20(s2)
   1bd24: 93 05 10 00  	addi	a1, zero, 0x1
   1bd28: 13 05 04 00  	addi	a0, s0, 0x0
   1bd2c: 13 86 04 00  	addi	a2, s1, 0x0
   1bd30: e7 80 06 00  	jalr	ra, 0x0(a3)
   1bd34: 23 34 a9 02  	sd	a0, 0x28(s2)
   1bd38: 83 35 09 01  	ld	a1, 0x10(s2)
   1bd3c: 03 36 89 01  	ld	a2, 0x18(s2)
   1bd40: 83 36 09 02  	ld	a3, 0x20(s2)
   1bd44: b3 04 95 00  	add	s1, a0, s1
   1bd48: 37 17 4d ff  	lui	a4, 0xff4d1
   1bd4c: 1b 07 07 b8  	addiw	a4, a4, -0x480
   1bd50: b7 b7 1d ff  	lui	a5, 0xff1db
   1bd54: 9b 87 07 f0  	addiw	a5, a5, -0x100
   1bd58: 37 78 5b 00  	lui	a6, 0x5b7
   1bd5c: 1b 08 08 90  	addiw	a6, a6, -0x700
   1bd60: b7 98 2c 00  	lui	a7, 0x2c9
   1bd64: 9b 88 08 d0  	addiw	a7, a7, -0x300
   1bd68: b7 62 01 00  	lui	t0, 0x16
   1bd6c: 9b 82 92 6e  	addiw	t0, t0, 0x6e9
   1bd70: 37 c3 01 00  	lui	t1, 0x1c
   1bd74: 1b 03 23 5a  	addiw	t1, t1, 0x5a2
   1bd78: b7 53 ff ff  	lui	t2, 0xffff5
   1bd7c: 9b 83 e3 92  	addiw	t2, t2, -0x6d2
   1bd80: 37 ae ff ff  	lui	t3, 0xffffa
   1bd84: 1b 0e 6e 7e  	addiw	t3, t3, 0x7e6
   1bd88: 93 5e 07 01  	srli	t4, a4, 0x10
   1bd8c: 23 a0 d5 01  	sw	t4, 0x0(a1)
   1bd90: 93 de 07 01  	srli	t4, a5, 0x10
   1bd94: 23 20 d6 01  	sw	t4, 0x0(a2)
   1bd98: 23 b0 06 01  	sd	a6, 0x0(a3)
   1bd9c: 23 30 15 01  	sd	a7, 0x0(a0)
   1bda0: 13 05 85 00  	addi	a0, a0, 0x8
   1bda4: 93 86 86 00  	addi	a3, a3, 0x8
   1bda8: 13 06 46 00  	addi	a2, a2, 0x4
   1bdac: 93 85 45 00  	addi	a1, a1, 0x4
   1bdb0: 33 07 57 00  	add	a4, a4, t0
   1bdb4: b3 87 67 00  	add	a5, a5, t1
   1bdb8: 33 08 78 00  	add	a6, a6, t2
   1bdbc: b3 88 c8 01  	add	a7, a7, t3
   1bdc0: e3 14 95 fc  	bne	a0, s1, 0x1bd88 <build_ycc_rgb_table+0xd4>
   1bdc4: 6f 80 01 12  	jal	zero, 0x33ee4 <__riscv_restore_3>

000000000001bdc8 <null_convert>:
   1bdc8: 63 56 e0 08  	bge	zero, a4, 0x1be54 <null_convert+0x8c>
   1bdcc: 83 27 05 08  	lw	a5, 0x80(a0)
   1bdd0: 03 25 05 03  	lw	a0, 0x30(a0)
   1bdd4: 13 88 f7 ff  	addi	a6, a5, -0x1
   1bdd8: 13 18 08 02  	slli	a6, a6, 0x20
   1bddc: 13 58 08 02  	srli	a6, a6, 0x20
   1bde0: 13 08 18 00  	addi	a6, a6, 0x1
   1bde4: 93 08 10 00  	addi	a7, zero, 0x1
   1bde8: 93 02 07 00  	addi	t0, a4, 0x0
   1bdec: 63 5c a0 04  	bge	zero, a0, 0x1be44 <null_convert+0x7c>
   1bdf0: 13 07 00 00  	addi	a4, zero, 0x0
   1bdf4: 13 13 06 02  	slli	t1, a2, 0x20
   1bdf8: 13 53 03 02  	srli	t1, t1, 0x20
   1bdfc: 13 13 33 00  	slli	t1, t1, 0x3
   1be00: 63 8e 07 02  	beq	a5, zero, 0x1be3c <null_convert+0x74>
   1be04: 93 13 37 00  	slli	t2, a4, 0x3
   1be08: b3 83 75 00  	add	t2, a1, t2
   1be0c: 83 b3 03 00  	ld	t2, 0x0(t2)
   1be10: 03 be 06 00  	ld	t3, 0x0(a3)
   1be14: b3 83 63 00  	add	t2, t2, t1
   1be18: 83 be 03 00  	ld	t4, 0x0(t2)
   1be1c: b3 03 ee 00  	add	t2, t3, a4
   1be20: 33 8e 0e 01  	add	t3, t4, a6
   1be24: 03 cf 0e 00  	lbu	t5, 0x0(t4)
   1be28: 93 8f 1e 00  	addi	t6, t4, 0x1
   1be2c: 23 80 e3 01  	sb	t5, 0x0(t2)
   1be30: b3 83 a3 00  	add	t2, t2, a0
   1be34: 93 8e 0f 00  	addi	t4, t6, 0x0
   1be38: e3 96 cf ff  	bne	t6, t3, 0x1be24 <null_convert+0x5c>
   1be3c: 13 07 17 00  	addi	a4, a4, 0x1
   1be40: e3 10 a7 fc  	bne	a4, a0, 0x1be00 <null_convert+0x38>
   1be44: 1b 87 f2 ff  	addiw	a4, t0, -0x1
   1be48: 13 06 16 00  	addi	a2, a2, 0x1
   1be4c: 93 86 86 00  	addi	a3, a3, 0x8
   1be50: e3 cc 58 f8  	blt	a7, t0, 0x1bde8 <null_convert+0x20>
   1be54: 67 80 00 00  	jalr	zero, 0x0(ra)

000000000001be58 <ycck_cmyk_convert>:
   1be58: 63 52 e0 12  	bge	zero, a4, 0x1bf7c <ycck_cmyk_convert+0x124>
   1be5c: ef 82 e1 03  	jal	t0, 0x33e9a <__riscv_save_7>
   1be60: 03 33 85 25  	ld	t1, 0x258(a0)
   1be64: 83 37 85 19  	ld	a5, 0x198(a0)
   1be68: 03 38 03 01  	ld	a6, 0x10(t1)
   1be6c: 83 38 83 01  	ld	a7, 0x18(t1)
   1be70: 03 65 05 08  	lwu	a0, 0x80(a0)
   1be74: 83 32 03 02  	ld	t0, 0x20(t1)
   1be78: 03 33 83 02  	ld	t1, 0x28(t1)
   1be7c: 93 13 25 00  	slli	t2, a0, 0x2
   1be80: 13 0e 20 00  	addi	t3, zero, 0x2
   1be84: 93 0e 07 00  	addi	t4, a4, 0x0
   1be88: 63 0e 05 0c  	beq	a0, zero, 0x1bf64 <ycck_cmyk_convert+0x10c>
   1be8c: 03 b7 05 00  	ld	a4, 0x0(a1)
   1be90: 13 1f 06 02  	slli	t5, a2, 0x20
   1be94: 13 54 df 01  	srli	s0, t5, 0x1d
   1be98: 03 bf 85 00  	ld	t5, 0x8(a1)
   1be9c: 33 07 87 00  	add	a4, a4, s0
   1bea0: 03 37 07 00  	ld	a4, 0x0(a4)
   1bea4: 83 bf 05 01  	ld	t6, 0x10(a1)
   1bea8: 33 0f 8f 00  	add	t5, t5, s0
   1beac: 83 b4 85 01  	ld	s1, 0x18(a1)
   1beb0: 03 3f 0f 00  	ld	t5, 0x0(t5)
   1beb4: b3 8f 8f 00  	add	t6, t6, s0
   1beb8: 83 bf 0f 00  	ld	t6, 0x0(t6)
   1bebc: b3 84 84 00  	add	s1, s1, s0
   1bec0: 03 b4 06 00  	ld	s0, 0x0(a3)
   1bec4: 83 b4 04 00  	ld	s1, 0x0(s1)
   1bec8: 33 09 74 00  	add	s2, s0, t2
   1becc: 83 c9 0f 00  	lbu	s3, 0x0(t6)
   1bed0: 03 4a 07 00  	lbu	s4, 0x0(a4)
   1bed4: 93 9a 29 00  	slli	s5, s3, 0x2
   1bed8: b3 0a 58 01  	add	s5, a6, s5
   1bedc: 83 aa 0a 00  	lw	s5, 0x0(s5)
   1bee0: 13 4a fa 0f  	xori	s4, s4, 0xff
   1bee4: bb 0a 5a 41  	subw	s5, s4, s5
   1bee8: b3 8a 57 01  	add	s5, a5, s5
   1beec: 83 ca 0a 00  	lbu	s5, 0x0(s5)
   1bef0: 03 4b 0f 00  	lbu	s6, 0x0(t5)
   1bef4: 23 00 54 01  	sb	s5, 0x0(s0)
   1bef8: 93 1a 3b 00  	slli	s5, s6, 0x3
   1befc: b3 0a 53 01  	add	s5, t1, s5
   1bf00: 83 ba 0a 00  	ld	s5, 0x0(s5)
   1bf04: 93 99 39 00  	slli	s3, s3, 0x3
   1bf08: b3 89 32 01  	add	s3, t0, s3
   1bf0c: 83 b9 09 00  	ld	s3, 0x0(s3)
   1bf10: b3 89 59 01  	add	s3, s3, s5
   1bf14: 93 d9 09 01  	srli	s3, s3, 0x10
   1bf18: bb 09 3a 41  	subw	s3, s4, s3
   1bf1c: b3 89 37 01  	add	s3, a5, s3
   1bf20: 83 c9 09 00  	lbu	s3, 0x0(s3)
   1bf24: a3 00 34 01  	sb	s3, 0x1(s0)
   1bf28: 13 1b 2b 00  	slli	s6, s6, 0x2
   1bf2c: 33 8b 68 01  	add	s6, a7, s6
   1bf30: 83 29 0b 00  	lw	s3, 0x0(s6)
   1bf34: bb 09 3a 41  	subw	s3, s4, s3
   1bf38: b3 89 37 01  	add	s3, a5, s3
   1bf3c: 83 c9 09 00  	lbu	s3, 0x0(s3)
   1bf40: 23 01 34 01  	sb	s3, 0x2(s0)
   1bf44: 83 c9 04 00  	lbu	s3, 0x0(s1)
   1bf48: a3 01 34 01  	sb	s3, 0x3(s0)
   1bf4c: 13 07 17 00  	addi	a4, a4, 0x1
   1bf50: 13 0f 1f 00  	addi	t5, t5, 0x1
   1bf54: 93 8f 1f 00  	addi	t6, t6, 0x1
   1bf58: 13 04 44 00  	addi	s0, s0, 0x4
   1bf5c: 93 84 14 00  	addi	s1, s1, 0x1
   1bf60: e3 16 24 f7  	bne	s0, s2, 0x1becc <ycck_cmyk_convert+0x74>
   1bf64: 1b 87 fe ff  	addiw	a4, t4, -0x1
   1bf68: 13 06 16 00  	addi	a2, a2, 0x1
   1bf6c: 93 86 86 00  	addi	a3, a3, 0x8
   1bf70: e3 da ce f1  	bge	t4, t3, 0x1be84 <ycck_cmyk_convert+0x2c>
   1bf74: 6f 70 51 76  	jal	zero, 0x33ed8 <__riscv_restore_7>
   1bf78: 6f 00 40 00  	jal	zero, 0x1bf7c <ycck_cmyk_convert+0x124>
   1bf7c: 67 80 00 00  	jalr	zero, 0x0(ra)

000000000001bf80 <jinit_1pass_quantizer>:
   1bf80: 13 01 01 f6  	addi	sp, sp, -0xa0
   1bf84: 23 3c 11 08  	sd	ra, 0x98(sp)
   1bf88: 23 38 81 08  	sd	s0, 0x90(sp)
   1bf8c: 23 34 91 08  	sd	s1, 0x88(sp)
   1bf90: 23 30 21 09  	sd	s2, 0x80(sp)
   1bf94: 23 3c 31 07  	sd	s3, 0x78(sp)
   1bf98: 23 38 41 07  	sd	s4, 0x70(sp)
   1bf9c: 23 34 51 07  	sd	s5, 0x68(sp)
   1bfa0: 23 30 61 07  	sd	s6, 0x60(sp)
   1bfa4: 23 3c 71 05  	sd	s7, 0x58(sp)
   1bfa8: 23 38 81 05  	sd	s8, 0x50(sp)
   1bfac: 23 34 91 05  	sd	s9, 0x48(sp)
   1bfb0: 23 30 a1 05  	sd	s10, 0x40(sp)
   1bfb4: 23 3c b1 03  	sd	s11, 0x38(sp)
   1bfb8: 93 0c 05 00  	addi	s9, a0, 0x0
   1bfbc: 03 35 85 00  	ld	a0, 0x8(a0)
   1bfc0: 83 36 05 00  	ld	a3, 0x0(a0)
   1bfc4: 93 05 10 00  	addi	a1, zero, 0x1
   1bfc8: 13 06 80 09  	addi	a2, zero, 0x98
   1bfcc: 13 04 10 00  	addi	s0, zero, 0x1
   1bfd0: 13 85 0c 00  	addi	a0, s9, 0x0
   1bfd4: e7 80 06 00  	jalr	ra, 0x0(a3)
   1bfd8: 23 b0 ac 26  	sd	a0, 0x260(s9)
   1bfdc: b7 c5 01 00  	lui	a1, 0x1c
   1bfe0: 93 85 05 3c  	addi	a1, a1, 0x3c0
   1bfe4: 23 30 b5 00  	sd	a1, 0x0(a0)
   1bfe8: b7 c5 01 00  	lui	a1, 0x1c
   1bfec: 93 85 05 69  	addi	a1, a1, 0x690
   1bff0: 23 38 b5 00  	sd	a1, 0x10(a0)
   1bff4: b7 c5 01 00  	lui	a1, 0x1c
   1bff8: 93 85 45 69  	addi	a1, a1, 0x694
   1bffc: 03 a6 8c 08  	lw	a2, 0x88(s9)
   1c000: 23 3c b5 00  	sd	a1, 0x18(a0)
   1c004: 23 38 05 06  	sd	zero, 0x70(a0)
   1c008: 93 05 50 00  	addi	a1, zero, 0x5
   1c00c: 23 38 05 04  	sd	zero, 0x50(a0)
   1c010: 63 42 b6 02  	blt	a2, a1, 0x1c034 <jinit_1pass_quantizer+0xb4>
   1c014: 03 b5 0c 00  	ld	a0, 0x0(s9)
   1c018: 13 14 24 02  	slli	s0, s0, 0x22
   1c01c: 93 05 64 03  	addi	a1, s0, 0x36
   1c020: 23 34 b5 02  	sd	a1, 0x28(a0)
   1c024: 03 b5 0c 00  	ld	a0, 0x0(s9)
   1c028: 83 35 05 00  	ld	a1, 0x0(a0)
   1c02c: 13 85 0c 00  	addi	a0, s9, 0x0
   1c030: e7 80 05 00  	jalr	ra, 0x0(a1)
   1c034: 83 a9 0c 07  	lw	s3, 0x70(s9)
   1c038: 13 05 10 10  	addi	a0, zero, 0x101
   1c03c: 63 c6 a9 02  	blt	s3, a0, 0x1c068 <jinit_1pass_quantizer+0xe8>
   1c040: 03 b5 0c 00  	ld	a0, 0x0(s9)
   1c044: 93 05 10 00  	addi	a1, zero, 0x1
   1c048: 93 95 85 02  	slli	a1, a1, 0x28
   1c04c: 93 85 85 03  	addi	a1, a1, 0x38
   1c050: 23 34 b5 02  	sd	a1, 0x28(a0)
   1c054: 03 b5 0c 00  	ld	a0, 0x0(s9)
   1c058: 83 35 05 00  	ld	a1, 0x0(a0)
   1c05c: 13 85 0c 00  	addi	a0, s9, 0x0
   1c060: e7 80 05 00  	jalr	ra, 0x0(a1)
   1c064: 83 a9 0c 07  	lw	s3, 0x70(s9)
   1c068: 03 ea 8c 08  	lwu	s4, 0x88(s9)
   1c06c: 03 b5 0c 26  	ld	a0, 0x260(s9)
   1c070: 23 3c a1 00  	sd	a0, 0x18(sp)
   1c074: 1b 0b 0a 00  	addiw	s6, s4, 0x0
   1c078: 13 04 fa ff  	addi	s0, s4, -0x1
   1c07c: 93 04 10 00  	addi	s1, zero, 0x1
   1c080: 93 0a 20 00  	addi	s5, zero, 0x2
   1c084: 13 89 04 00  	addi	s2, s1, 0x0
   1c088: 93 84 14 00  	addi	s1, s1, 0x1
   1c08c: 13 85 04 00  	addi	a0, s1, 0x0
   1c090: 63 4e 5b 01  	blt	s6, s5, 0x1c0ac <jinit_1pass_quantizer+0x12c>
   1c094: 93 0b 04 00  	addi	s7, s0, 0x0
   1c098: 13 85 04 00  	addi	a0, s1, 0x0
   1c09c: 93 85 04 00  	addi	a1, s1, 0x0
   1c0a0: ef 70 51 65  	jal	ra, 0x33ef4 <__muldi3>
   1c0a4: 9b 8b fb ff  	addiw	s7, s7, -0x1
   1c0a8: e3 9a 0b fe  	bne	s7, zero, 0x1c09c <jinit_1pass_quantizer+0x11c>
   1c0ac: e3 dc a9 fc  	bge	s3, a0, 0x1c084 <jinit_1pass_quantizer+0x104>
   1c0b0: 9b 05 09 00  	addiw	a1, s2, 0x0
   1c0b4: 13 0d 10 00  	addi	s10, zero, 0x1
   1c0b8: 63 62 bd 02  	bltu	s10, a1, 0x1c0dc <jinit_1pass_quantizer+0x15c>
   1c0bc: 83 b5 0c 00  	ld	a1, 0x0(s9)
   1c0c0: 23 a6 a5 02  	sw	a0, 0x2c(a1)
   1c0c4: 03 b5 0c 00  	ld	a0, 0x0(s9)
   1c0c8: 03 36 05 00  	ld	a2, 0x0(a0)
   1c0cc: 13 05 70 03  	addi	a0, zero, 0x37
   1c0d0: 23 a4 a5 02  	sw	a0, 0x28(a1)
   1c0d4: 13 85 0c 00  	addi	a0, s9, 0x0
   1c0d8: e7 00 06 00  	jalr	ra, 0x0(a2)
   1c0dc: 63 50 60 0d  	bge	zero, s6, 0x1c19c <jinit_1pass_quantizer+0x21c>
   1c0e0: 83 35 81 01  	ld	a1, 0x18(sp)
   1c0e4: 93 8a c5 03  	addi	s5, a1, 0x3c
   1c0e8: 13 15 2a 00  	slli	a0, s4, 0x2
   1c0ec: 33 05 b5 00  	add	a0, a0, a1
   1c0f0: 13 04 c5 03  	addi	s0, a0, 0x3c
   1c0f4: 13 0d 10 00  	addi	s10, zero, 0x1
   1c0f8: 93 84 0a 00  	addi	s1, s5, 0x0
   1c0fc: 23 a0 24 01  	sw	s2, 0x0(s1)
   1c100: 13 05 0d 00  	addi	a0, s10, 0x0
   1c104: 93 05 09 00  	addi	a1, s2, 0x0
   1c108: ef 70 d1 5e  	jal	ra, 0x33ef4 <__muldi3>
   1c10c: 93 84 44 00  	addi	s1, s1, 0x4
   1c110: 13 0d 05 00  	addi	s10, a0, 0x0
   1c114: e3 94 84 fe  	bne	s1, s0, 0x1c0fc <jinit_1pass_quantizer+0x17c>
   1c118: 63 52 60 09  	bge	zero, s6, 0x1c19c <jinit_1pass_quantizer+0x21c>
   1c11c: 13 04 00 00  	addi	s0, zero, 0x0
   1c120: 93 04 10 00  	addi	s1, zero, 0x1
   1c124: 13 0b 20 00  	addi	s6, zero, 0x2
   1c128: 37 65 03 00  	lui	a0, 0x36
   1c12c: 93 0b 05 1b  	addi	s7, a0, 0x1b0
   1c130: 83 a5 8c 03  	lw	a1, 0x38(s9)
   1c134: 13 05 04 00  	addi	a0, s0, 0x0
   1c138: 63 98 65 01  	bne	a1, s6, 0x1c148 <jinit_1pass_quantizer+0x1c8>
   1c13c: 13 15 24 00  	slli	a0, s0, 0x2
   1c140: 33 85 ab 00  	add	a0, s7, a0
   1c144: 03 25 05 00  	lw	a0, 0x0(a0)
   1c148: 1b 05 05 00  	addiw	a0, a0, 0x0
   1c14c: 13 15 25 00  	slli	a0, a0, 0x2
   1c150: 33 8c aa 00  	add	s8, s5, a0
   1c154: 03 29 0c 00  	lw	s2, 0x0(s8)
   1c158: 1b 05 0d 00  	addiw	a0, s10, 0x0
   1c15c: 93 05 09 00  	addi	a1, s2, 0x0
   1c160: ef 70 51 5d  	jal	ra, 0x33f34 <__divdi3>
   1c164: 1b 05 05 00  	addiw	a0, a0, 0x0
   1c168: 1b 09 19 00  	addiw	s2, s2, 0x1
   1c16c: 93 05 09 00  	addi	a1, s2, 0x0
   1c170: ef 70 51 58  	jal	ra, 0x33ef4 <__muldi3>
   1c174: 63 cc a9 00  	blt	s3, a0, 0x1c18c <jinit_1pass_quantizer+0x20c>
   1c178: 93 04 00 00  	addi	s1, zero, 0x0
   1c17c: 13 04 14 00  	addi	s0, s0, 0x1
   1c180: 23 20 2c 01  	sw	s2, 0x0(s8)
   1c184: 13 0d 05 00  	addi	s10, a0, 0x0
   1c188: e3 14 44 fb  	bne	s0, s4, 0x1c130 <jinit_1pass_quantizer+0x1b0>
   1c18c: 13 04 00 00  	addi	s0, zero, 0x0
   1c190: 13 f5 14 00  	andi	a0, s1, 0x1
   1c194: 93 04 10 00  	addi	s1, zero, 0x1
   1c198: e3 0c 05 f8  	beq	a0, zero, 0x1c130 <jinit_1pass_quantizer+0x1b0>
   1c19c: 83 a5 8c 08  	lw	a1, 0x88(s9)
   1c1a0: 03 b5 0c 00  	ld	a0, 0x0(s9)
   1c1a4: 13 06 30 00  	addi	a2, zero, 0x3
   1c1a8: 23 26 a5 03  	sw	s10, 0x2c(a0)
   1c1ac: 63 96 c5 02  	bne	a1, a2, 0x1c1d8 <jinit_1pass_quantizer+0x258>
   1c1b0: 03 36 81 01  	ld	a2, 0x18(sp)
   1c1b4: 83 25 c6 03  	lw	a1, 0x3c(a2)
   1c1b8: 23 28 b5 02  	sw	a1, 0x30(a0)
   1c1bc: 83 25 06 04  	lw	a1, 0x40(a2)
   1c1c0: 23 2a b5 02  	sw	a1, 0x34(a0)
   1c1c4: 83 25 46 04  	lw	a1, 0x44(a2)
   1c1c8: 23 2c b5 02  	sw	a1, 0x38(a0)
   1c1cc: 93 05 d0 05  	addi	a1, zero, 0x5d
   1c1d0: 13 06 05 00  	addi	a2, a0, 0x0
   1c1d4: 6f 00 c0 00  	jal	zero, 0x1c1e0 <jinit_1pass_quantizer+0x260>
   1c1d8: 03 b6 0c 00  	ld	a2, 0x0(s9)
   1c1dc: 93 05 e0 05  	addi	a1, zero, 0x5e
   1c1e0: 23 24 b5 02  	sw	a1, 0x28(a0)
   1c1e4: 03 36 86 00  	ld	a2, 0x8(a2)
   1c1e8: 93 05 10 00  	addi	a1, zero, 0x1
   1c1ec: 13 85 0c 00  	addi	a0, s9, 0x0
   1c1f0: e7 00 06 00  	jalr	ra, 0x0(a2)
   1c1f4: 03 b5 8c 00  	ld	a0, 0x8(s9)
   1c1f8: 03 37 05 01  	ld	a4, 0x10(a0)
   1c1fc: 83 a6 8c 08  	lw	a3, 0x88(s9)
   1c200: 1b 09 0d 00  	addiw	s2, s10, 0x0
   1c204: 93 05 10 00  	addi	a1, zero, 0x1
   1c208: 13 85 0c 00  	addi	a0, s9, 0x0
   1c20c: 13 06 09 00  	addi	a2, s2, 0x0
   1c210: e7 00 07 00  	jalr	ra, 0x0(a4)
   1c214: 03 a4 8c 08  	lw	s0, 0x88(s9)
   1c218: 23 38 a1 00  	sd	a0, 0x10(sp)
   1c21c: 63 52 80 10  	bge	zero, s0, 0x1c320 <jinit_1pass_quantizer+0x3a0>
   1c220: 93 04 00 00  	addi	s1, zero, 0x0
   1c224: 13 0a 0d 00  	addi	s4, s10, 0x0
   1c228: 23 34 91 01  	sd	s9, 0x8(sp)
   1c22c: 23 30 a1 01  	sd	s10, 0x0(sp)
   1c230: 13 95 24 00  	slli	a0, s1, 0x2
   1c234: 83 35 81 01  	ld	a1, 0x18(sp)
   1c238: 33 85 a5 00  	add	a0, a1, a0
   1c23c: 83 2a c5 03  	lw	s5, 0x3c(a0)
   1c240: 1b 0b 0a 00  	addiw	s6, s4, 0x0
   1c244: 13 05 0b 00  	addi	a0, s6, 0x0
   1c248: 93 85 0a 00  	addi	a1, s5, 0x0
   1c24c: ef 70 91 4e  	jal	ra, 0x33f34 <__divdi3>
   1c250: 1b 0a 05 00  	addiw	s4, a0, 0x0
   1c254: 63 52 50 0d  	bge	zero, s5, 0x1c318 <jinit_1pass_quantizer+0x398>
   1c258: 93 0b 00 00  	addi	s7, zero, 0x0
   1c25c: 93 0d 00 00  	addi	s11, zero, 0x0
   1c260: 1b 8c fa ff  	addiw	s8, s5, -0x1
   1c264: 1b 55 1c 00  	srliw	a0, s8, 0x1
   1c268: 23 38 a1 02  	sd	a0, 0x30(sp)
   1c26c: 23 30 91 02  	sd	s1, 0x20(sp)
   1c270: 93 94 34 00  	slli	s1, s1, 0x3
   1c274: 03 35 01 01  	ld	a0, 0x10(sp)
   1c278: b3 04 95 00  	add	s1, a0, s1
   1c27c: 13 15 0a 02  	slli	a0, s4, 0x20
   1c280: 13 55 05 02  	srli	a0, a0, 0x20
   1c284: 23 34 a1 02  	sd	a0, 0x28(sp)
   1c288: 13 85 0b 00  	addi	a0, s7, 0x0
   1c28c: 93 05 0a 00  	addi	a1, s4, 0x0
   1c290: ef 70 51 46  	jal	ra, 0x33ef4 <__muldi3>
   1c294: 63 54 25 07  	bge	a0, s2, 0x1c2fc <jinit_1pass_quantizer+0x37c>
   1c298: 83 39 81 02  	ld	s3, 0x28(sp)
   1c29c: b3 89 b9 01  	add	s3, s3, s11
   1c2a0: 13 95 8b 00  	slli	a0, s7, 0x8
   1c2a4: 33 05 75 41  	sub	a0, a0, s7
   1c2a8: 83 35 01 03  	ld	a1, 0x30(sp)
   1c2ac: 33 05 b5 00  	add	a0, a0, a1
   1c2b0: 93 05 0c 00  	addi	a1, s8, 0x0
   1c2b4: ef 70 91 48  	jal	ra, 0x33f3c <__udivdi3>
   1c2b8: 93 0c 05 00  	addi	s9, a0, 0x0
   1c2bc: 13 0d 00 00  	addi	s10, zero, 0x0
   1c2c0: 13 84 0d 00  	addi	s0, s11, 0x0
   1c2c4: 13 05 0b 00  	addi	a0, s6, 0x0
   1c2c8: 93 05 0d 00  	addi	a1, s10, 0x0
   1c2cc: ef 70 91 42  	jal	ra, 0x33ef4 <__muldi3>
   1c2d0: 63 50 40 03  	bge	zero, s4, 0x1c2f0 <jinit_1pass_quantizer+0x370>
   1c2d4: 33 85 a9 00  	add	a0, s3, a0
   1c2d8: 93 05 04 00  	addi	a1, s0, 0x0
   1c2dc: 03 b6 04 00  	ld	a2, 0x0(s1)
   1c2e0: 33 06 b6 00  	add	a2, a2, a1
   1c2e4: 93 85 15 00  	addi	a1, a1, 0x1
   1c2e8: 23 00 96 01  	sb	s9, 0x0(a2)
   1c2ec: e3 98 a5 fe  	bne	a1, a0, 0x1c2dc <jinit_1pass_quantizer+0x35c>
   1c2f0: 33 04 64 01  	add	s0, s0, s6
   1c2f4: 13 0d 1d 00  	addi	s10, s10, 0x1
   1c2f8: e3 46 24 fd  	blt	s0, s2, 0x1c2c4 <jinit_1pass_quantizer+0x344>
   1c2fc: 93 8b 1b 00  	addi	s7, s7, 0x1
   1c300: b3 8d 4d 01  	add	s11, s11, s4
   1c304: e3 92 5b f9  	bne	s7, s5, 0x1c288 <jinit_1pass_quantizer+0x308>
   1c308: 83 3c 81 00  	ld	s9, 0x8(sp)
   1c30c: 03 a4 8c 08  	lw	s0, 0x88(s9)
   1c310: 03 3d 01 00  	ld	s10, 0x0(sp)
   1c314: 83 34 01 02  	ld	s1, 0x20(sp)
   1c318: 93 84 14 00  	addi	s1, s1, 0x1
   1c31c: e3 ca 84 f0  	blt	s1, s0, 0x1c230 <jinit_1pass_quantizer+0x2b0>
   1c320: 03 35 81 01  	ld	a0, 0x18(sp)
   1c324: 83 35 01 01  	ld	a1, 0x10(sp)
   1c328: 23 30 b5 02  	sd	a1, 0x20(a0)
   1c32c: 23 24 a5 03  	sw	s10, 0x28(a0)
   1c330: 13 85 0c 00  	addi	a0, s9, 0x0
   1c334: ef 00 40 37  	jal	ra, 0x1c6a8 <create_colorindex>
   1c338: 03 a5 8c 06  	lw	a0, 0x68(s9)
   1c33c: 93 05 20 00  	addi	a1, zero, 0x2
   1c340: 63 12 b5 04  	bne	a0, a1, 0x1c384 <jinit_1pass_quantizer+0x404>
   1c344: 13 85 0c 00  	addi	a0, s9, 0x0
   1c348: 83 30 81 09  	ld	ra, 0x98(sp)
   1c34c: 03 34 01 09  	ld	s0, 0x90(sp)
   1c350: 83 34 81 08  	ld	s1, 0x88(sp)
   1c354: 03 39 01 08  	ld	s2, 0x80(sp)
   1c358: 83 39 81 07  	ld	s3, 0x78(sp)
   1c35c: 03 3a 01 07  	ld	s4, 0x70(sp)
   1c360: 83 3a 81 06  	ld	s5, 0x68(sp)
   1c364: 03 3b 01 06  	ld	s6, 0x60(sp)
   1c368: 83 3b 81 05  	ld	s7, 0x58(sp)
   1c36c: 03 3c 01 05  	ld	s8, 0x50(sp)
   1c370: 83 3c 81 04  	ld	s9, 0x48(sp)
   1c374: 03 3d 01 04  	ld	s10, 0x40(sp)
   1c378: 83 3d 81 03  	ld	s11, 0x38(sp)
   1c37c: 13 01 01 0a  	addi	sp, sp, 0xa0
   1c380: 6f 00 00 49  	jal	zero, 0x1c810 <alloc_fs_workspace>
   1c384: 83 30 81 09  	ld	ra, 0x98(sp)
   1c388: 03 34 01 09  	ld	s0, 0x90(sp)
   1c38c: 83 34 81 08  	ld	s1, 0x88(sp)
   1c390: 03 39 01 08  	ld	s2, 0x80(sp)
   1c394: 83 39 81 07  	ld	s3, 0x78(sp)
   1c398: 03 3a 01 07  	ld	s4, 0x70(sp)
   1c39c: 83 3a 81 06  	ld	s5, 0x68(sp)
   1c3a0: 03 3b 01 06  	ld	s6, 0x60(sp)
   1c3a4: 83 3b 81 05  	ld	s7, 0x58(sp)
   1c3a8: 03 3c 01 05  	ld	s8, 0x50(sp)
   1c3ac: 83 3c 81 04  	ld	s9, 0x48(sp)
   1c3b0: 03 3d 01 04  	ld	s10, 0x40(sp)
   1c3b4: 83 3d 81 03  	ld	s11, 0x38(sp)
   1c3b8: 13 01 01 0a  	addi	sp, sp, 0xa0
   1c3bc: 67 80 00 00  	jalr	zero, 0x0(ra)

000000000001c3c0 <start_pass_1_quant>:
   1c3c0: 13 01 01 f7  	addi	sp, sp, -0x90
   1c3c4: 23 34 11 08  	sd	ra, 0x88(sp)
   1c3c8: 23 30 81 08  	sd	s0, 0x80(sp)
   1c3cc: 23 3c 91 06  	sd	s1, 0x78(sp)
   1c3d0: 23 38 21 07  	sd	s2, 0x70(sp)
   1c3d4: 23 34 31 07  	sd	s3, 0x68(sp)
   1c3d8: 23 30 41 07  	sd	s4, 0x60(sp)
   1c3dc: 23 3c 51 05  	sd	s5, 0x58(sp)
   1c3e0: 23 38 61 05  	sd	s6, 0x50(sp)
   1c3e4: 23 34 71 05  	sd	s7, 0x48(sp)
   1c3e8: 23 30 81 05  	sd	s8, 0x40(sp)
   1c3ec: 23 3c 91 03  	sd	s9, 0x38(sp)
   1c3f0: 23 38 a1 03  	sd	s10, 0x30(sp)
   1c3f4: 23 34 b1 03  	sd	s11, 0x28(sp)
   1c3f8: 13 04 05 00  	addi	s0, a0, 0x0
   1c3fc: 03 39 05 26  	ld	s2, 0x260(a0)
   1c400: 83 35 09 02  	ld	a1, 0x20(s2)
   1c404: 03 26 89 02  	lw	a2, 0x28(s2)
   1c408: 03 25 85 06  	lw	a0, 0x68(a0)
   1c40c: 23 3c b4 08  	sd	a1, 0x98(s0)
   1c410: 93 05 20 00  	addi	a1, zero, 0x2
   1c414: 23 2a c4 08  	sw	a2, 0x94(s0)
   1c418: 63 00 b5 04  	beq	a0, a1, 0x1c458 <start_pass_1_quant+0x98>
   1c41c: 93 05 10 00  	addi	a1, zero, 0x1
   1c420: 63 00 b5 02  	beq	a0, a1, 0x1c440 <start_pass_1_quant+0x80>
   1c424: 63 1a 05 08  	bne	a0, zero, 0x1c4b8 <start_pass_1_quant+0xf8>
   1c428: 03 25 84 08  	lw	a0, 0x88(s0)
   1c42c: 93 05 30 00  	addi	a1, zero, 0x3
   1c430: 63 1c b5 20  	bne	a0, a1, 0x1c648 <start_pass_1_quant+0x288>
   1c434: 37 d5 01 00  	lui	a0, 0x1d
   1c438: 13 05 c5 86  	addi	a0, a0, -0x794
   1c43c: 6f 00 40 21  	jal	zero, 0x1c650 <start_pass_1_quant+0x290>
   1c440: 03 25 84 08  	lw	a0, 0x88(s0)
   1c444: 93 05 30 00  	addi	a1, zero, 0x3
   1c448: 63 00 b5 0c  	beq	a0, a1, 0x1c508 <start_pass_1_quant+0x148>
   1c44c: 37 d5 01 00  	lui	a0, 0x1d
   1c450: 13 05 85 ab  	addi	a0, a0, -0x548
   1c454: 6f 00 c0 0b  	jal	zero, 0x1c510 <start_pass_1_quant+0x150>
   1c458: 03 35 09 07  	ld	a0, 0x70(s2)
   1c45c: b7 d5 01 00  	lui	a1, 0x1d
   1c460: 93 85 c5 ba  	addi	a1, a1, -0x454
   1c464: 23 34 b9 00  	sd	a1, 0x8(s2)
   1c468: 23 28 09 08  	sw	zero, 0x90(s2)
   1c46c: 63 16 05 00  	bne	a0, zero, 0x1c478 <start_pass_1_quant+0xb8>
   1c470: 13 05 04 00  	addi	a0, s0, 0x0
   1c474: ef 00 c0 39  	jal	ra, 0x1c810 <alloc_fs_workspace>
   1c478: 03 25 84 08  	lw	a0, 0x88(s0)
   1c47c: 63 5c a0 1c  	bge	zero, a0, 0x1c654 <start_pass_1_quant+0x294>
   1c480: 03 25 04 08  	lw	a0, 0x80(s0)
   1c484: 93 09 00 00  	addi	s3, zero, 0x0
   1c488: 13 05 25 00  	addi	a0, a0, 0x2
   1c48c: 13 15 05 02  	slli	a0, a0, 0x20
   1c490: 93 54 f5 01  	srli	s1, a0, 0x1f
   1c494: 13 09 09 07  	addi	s2, s2, 0x70
   1c498: 03 35 09 00  	ld	a0, 0x0(s2)
   1c49c: 93 85 04 00  	addi	a1, s1, 0x0
   1c4a0: ef 20 c0 77  	jal	ra, 0x1ec1c <jzero_far>
   1c4a4: 03 25 84 08  	lw	a0, 0x88(s0)
   1c4a8: 93 89 19 00  	addi	s3, s3, 0x1
   1c4ac: 13 09 89 00  	addi	s2, s2, 0x8
   1c4b0: e3 c4 a9 fe  	blt	s3, a0, 0x1c498 <start_pass_1_quant+0xd8>
   1c4b4: 6f 00 00 1a  	jal	zero, 0x1c654 <start_pass_1_quant+0x294>
   1c4b8: 03 35 04 00  	ld	a0, 0x0(s0)
   1c4bc: 03 33 05 00  	ld	t1, 0x0(a0)
   1c4c0: 93 05 f0 02  	addi	a1, zero, 0x2f
   1c4c4: 23 24 b5 02  	sw	a1, 0x28(a0)
   1c4c8: 13 05 04 00  	addi	a0, s0, 0x0
   1c4cc: 83 30 81 08  	ld	ra, 0x88(sp)
   1c4d0: 03 34 01 08  	ld	s0, 0x80(sp)
   1c4d4: 83 34 81 07  	ld	s1, 0x78(sp)
   1c4d8: 03 39 01 07  	ld	s2, 0x70(sp)
   1c4dc: 83 39 81 06  	ld	s3, 0x68(sp)
   1c4e0: 03 3a 01 06  	ld	s4, 0x60(sp)
   1c4e4: 83 3a 81 05  	ld	s5, 0x58(sp)
   1c4e8: 03 3b 01 05  	ld	s6, 0x50(sp)
   1c4ec: 83 3b 81 04  	ld	s7, 0x48(sp)
   1c4f0: 03 3c 01 04  	ld	s8, 0x40(sp)
   1c4f4: 83 3c 81 03  	ld	s9, 0x38(sp)
   1c4f8: 03 3d 01 03  	ld	s10, 0x30(sp)
   1c4fc: 83 3d 81 02  	ld	s11, 0x28(sp)
   1c500: 13 01 01 09  	addi	sp, sp, 0x90
   1c504: 67 00 03 00  	jalr	zero, 0x0(t1)
   1c508: 37 d5 01 00  	lui	a0, 0x1d
   1c50c: 13 05 45 9b  	addi	a0, a0, -0x64c
   1c510: 83 25 89 03  	lw	a1, 0x38(s2)
   1c514: 23 34 a9 00  	sd	a0, 0x8(s2)
   1c518: 23 26 09 04  	sw	zero, 0x4c(s2)
   1c51c: 63 96 05 00  	bne	a1, zero, 0x1c528 <start_pass_1_quant+0x168>
   1c520: 13 05 04 00  	addi	a0, s0, 0x0
   1c524: ef 00 40 18  	jal	ra, 0x1c6a8 <create_colorindex>
   1c528: 03 35 09 05  	ld	a0, 0x50(s2)
   1c52c: 63 14 05 12  	bne	a0, zero, 0x1c654 <start_pass_1_quant+0x294>
   1c530: 03 25 84 08  	lw	a0, 0x88(s0)
   1c534: 63 50 a0 12  	bge	zero, a0, 0x1c654 <start_pass_1_quant+0x294>
   1c538: 83 37 04 26  	ld	a5, 0x260(s0)
   1c53c: 13 0a 00 00  	addi	s4, zero, 0x0
   1c540: 93 85 07 05  	addi	a1, a5, 0x50
   1c544: 23 30 b1 02  	sd	a1, 0x20(sp)
   1c548: 93 85 c7 03  	addi	a1, a5, 0x3c
   1c54c: 23 3c b1 00  	sd	a1, 0x18(sp)
   1c550: b7 65 03 00  	lui	a1, 0x36
   1c554: 93 85 05 0b  	addi	a1, a1, 0xb0
   1c558: 23 34 b1 00  	sd	a1, 0x8(sp)
   1c55c: 13 0c f0 0f  	addi	s8, zero, 0xff
   1c560: 93 0c 00 01  	addi	s9, zero, 0x10
   1c564: 23 38 f1 00  	sd	a5, 0x10(sp)
   1c568: 93 15 2a 00  	slli	a1, s4, 0x2
   1c56c: b3 85 b7 00  	add	a1, a5, a1
   1c570: 03 a9 c5 03  	lw	s2, 0x3c(a1)
   1c574: 83 35 81 01  	ld	a1, 0x18(sp)
   1c578: 93 06 0a 00  	addi	a3, s4, 0x0
   1c57c: 03 36 01 02  	ld	a2, 0x20(sp)
   1c580: 63 04 0a 02  	beq	s4, zero, 0x1c5a8 <start_pass_1_quant+0x1e8>
   1c584: 03 a7 05 00  	lw	a4, 0x0(a1)
   1c588: 63 0c e9 00  	beq	s2, a4, 0x1c5a0 <start_pass_1_quant+0x1e0>
   1c58c: 13 06 86 00  	addi	a2, a2, 0x8
   1c590: 93 86 f6 ff  	addi	a3, a3, -0x1
   1c594: 93 85 45 00  	addi	a1, a1, 0x4
   1c598: e3 96 06 fe  	bne	a3, zero, 0x1c584 <start_pass_1_quant+0x1c4>
   1c59c: 6f 00 c0 00  	jal	zero, 0x1c5a8 <start_pass_1_quant+0x1e8>
   1c5a0: 83 39 06 00  	ld	s3, 0x0(a2)
   1c5a4: 63 96 09 08  	bne	s3, zero, 0x1c630 <start_pass_1_quant+0x270>
   1c5a8: 03 35 84 00  	ld	a0, 0x8(s0)
   1c5ac: 83 36 05 00  	ld	a3, 0x0(a0)
   1c5b0: 93 05 10 00  	addi	a1, zero, 0x1
   1c5b4: 13 06 00 40  	addi	a2, zero, 0x400
   1c5b8: 13 05 04 00  	addi	a0, s0, 0x0
   1c5bc: e7 80 06 00  	jalr	ra, 0x0(a3)
   1c5c0: 93 09 05 00  	addi	s3, a0, 0x0
   1c5c4: 13 0d 00 00  	addi	s10, zero, 0x0
   1c5c8: 13 19 99 00  	slli	s2, s2, 0x9
   1c5cc: 13 09 09 e0  	addi	s2, s2, -0x200
   1c5d0: 03 3b 81 00  	ld	s6, 0x8(sp)
   1c5d4: 93 0b 05 00  	addi	s7, a0, 0x0
   1c5d8: 13 15 6d 00  	slli	a0, s10, 0x6
   1c5dc: 33 05 35 01  	add	a0, a0, s3
   1c5e0: 93 0a 05 04  	addi	s5, a0, 0x40
   1c5e4: 93 0d 0b 00  	addi	s11, s6, 0x0
   1c5e8: 93 84 0b 00  	addi	s1, s7, 0x0
   1c5ec: 03 c5 0d 00  	lbu	a0, 0x0(s11)
   1c5f0: 13 15 15 00  	slli	a0, a0, 0x1
   1c5f4: 33 05 ac 40  	sub	a0, s8, a0
   1c5f8: 93 15 85 00  	slli	a1, a0, 0x8
   1c5fc: 33 85 a5 40  	sub	a0, a1, a0
   1c600: 93 05 09 00  	addi	a1, s2, 0x0
   1c604: ef 70 11 13  	jal	ra, 0x33f34 <__divdi3>
   1c608: 23 a0 a4 00  	sw	a0, 0x0(s1)
   1c60c: 93 84 44 00  	addi	s1, s1, 0x4
   1c610: 93 8d 1d 00  	addi	s11, s11, 0x1
   1c614: e3 9c 54 fd  	bne	s1, s5, 0x1c5ec <start_pass_1_quant+0x22c>
   1c618: 13 0d 1d 00  	addi	s10, s10, 0x1
   1c61c: 93 8b 0b 04  	addi	s7, s7, 0x40
   1c620: 13 0b 0b 01  	addi	s6, s6, 0x10
   1c624: e3 1a 9d fb  	bne	s10, s9, 0x1c5d8 <start_pass_1_quant+0x218>
   1c628: 03 25 84 08  	lw	a0, 0x88(s0)
   1c62c: 83 37 01 01  	ld	a5, 0x10(sp)
   1c630: 93 15 3a 00  	slli	a1, s4, 0x3
   1c634: b3 85 b7 00  	add	a1, a5, a1
   1c638: 13 0a 1a 00  	addi	s4, s4, 0x1
   1c63c: 23 b8 35 05  	sd	s3, 0x50(a1)
   1c640: e3 44 aa f2  	blt	s4, a0, 0x1c568 <start_pass_1_quant+0x1a8>
   1c644: 6f 00 00 01  	jal	zero, 0x1c654 <start_pass_1_quant+0x294>
   1c648: 37 d5 01 00  	lui	a0, 0x1d
   1c64c: 13 05 45 90  	addi	a0, a0, -0x6fc
   1c650: 23 34 a9 00  	sd	a0, 0x8(s2)
   1c654: 83 30 81 08  	ld	ra, 0x88(sp)
   1c658: 03 34 01 08  	ld	s0, 0x80(sp)
   1c65c: 83 34 81 07  	ld	s1, 0x78(sp)
   1c660: 03 39 01 07  	ld	s2, 0x70(sp)
   1c664: 83 39 81 06  	ld	s3, 0x68(sp)
   1c668: 03 3a 01 06  	ld	s4, 0x60(sp)
   1c66c: 83 3a 81 05  	ld	s5, 0x58(sp)
   1c670: 03 3b 01 05  	ld	s6, 0x50(sp)
   1c674: 83 3b 81 04  	ld	s7, 0x48(sp)
   1c678: 03 3c 01 04  	ld	s8, 0x40(sp)
   1c67c: 83 3c 81 03  	ld	s9, 0x38(sp)
   1c680: 03 3d 01 03  	ld	s10, 0x30(sp)
   1c684: 83 3d 81 02  	ld	s11, 0x28(sp)
   1c688: 13 01 01 09  	addi	sp, sp, 0x90
   1c68c: 67 80 00 00  	jalr	zero, 0x0(ra)

000000000001c690 <finish_pass_1_quant>:
   1c690: 67 80 00 00  	jalr	zero, 0x0(ra)

000000000001c694 <new_color_map_1_quant>:
   1c694: 83 35 05 00  	ld	a1, 0x0(a0)
   1c698: 03 b3 05 00  	ld	t1, 0x0(a1)
   1c69c: 13 06 d0 02  	addi	a2, zero, 0x2d
   1c6a0: 23 a4 c5 02  	sw	a2, 0x28(a1)
   1c6a4: 67 00 03 00  	jalr	zero, 0x0(t1)

000000000001c6a8 <create_colorindex>:
   1c6a8: ef 72 61 7d  	jal	t0, 0x33e7e <__riscv_save_12>
   1c6ac: 13 01 01 ff  	addi	sp, sp, -0x10
   1c6b0: 83 2a 85 06  	lw	s5, 0x68(a0)
   1c6b4: 03 3b 05 26  	ld	s6, 0x260(a0)
   1c6b8: 93 85 fa ff  	addi	a1, s5, -0x1
   1c6bc: 93 b5 15 00  	sltiu	a1, a1, 0x1
   1c6c0: 23 2c bb 02  	sw	a1, 0x38(s6)
   1c6c4: 83 35 85 00  	ld	a1, 0x8(a0)
   1c6c8: 03 b7 05 01  	ld	a4, 0x10(a1)
   1c6cc: 23 34 a1 00  	sd	a0, 0x8(sp)
   1c6d0: 83 26 85 08  	lw	a3, 0x88(a0)
   1c6d4: 13 05 10 00  	addi	a0, zero, 0x1
   1c6d8: 13 06 e0 2f  	addi	a2, zero, 0x2fe
   1c6dc: 63 84 aa 00  	beq	s5, a0, 0x1c6e4 <create_colorindex+0x3c>
   1c6e0: 13 06 00 10  	addi	a2, zero, 0x100
   1c6e4: 93 05 10 00  	addi	a1, zero, 0x1
   1c6e8: 03 34 81 00  	ld	s0, 0x8(sp)
   1c6ec: 13 05 04 00  	addi	a0, s0, 0x0
   1c6f0: e7 00 07 00  	jalr	ra, 0x0(a4)
   1c6f4: 83 25 84 08  	lw	a1, 0x88(s0)
   1c6f8: 23 38 ab 02  	sd	a0, 0x30(s6)
   1c6fc: 63 56 b0 10  	bge	zero, a1, 0x1c808 <create_colorindex+0x160>
   1c700: 83 24 8b 02  	lw	s1, 0x28(s6)
   1c704: 93 0b 00 00  	addi	s7, zero, 0x0
   1c708: 13 04 10 00  	addi	s0, zero, 0x1
   1c70c: 93 0c 00 10  	addi	s9, zero, 0x100
   1c710: 13 95 2b 00  	slli	a0, s7, 0x2
   1c714: 33 05 ab 00  	add	a0, s6, a0
   1c718: 03 29 c5 03  	lw	s2, 0x3c(a0)
   1c71c: 1b 85 04 00  	addiw	a0, s1, 0x0
   1c720: 93 05 09 00  	addi	a1, s2, 0x0
   1c724: ef 70 11 01  	jal	ra, 0x33f34 <__divdi3>
   1c728: 83 35 0b 03  	ld	a1, 0x30(s6)
   1c72c: 93 04 05 00  	addi	s1, a0, 0x0
   1c730: 13 95 3b 00  	slli	a0, s7, 0x3
   1c734: 63 9c 8a 00  	bne	s5, s0, 0x1c74c <create_colorindex+0xa4>
   1c738: b3 85 a5 00  	add	a1, a1, a0
   1c73c: 03 b6 05 00  	ld	a2, 0x0(a1)
   1c740: 13 06 f6 0f  	addi	a2, a2, 0xff
   1c744: 23 b0 c5 00  	sd	a2, 0x0(a1)
   1c748: 83 35 0b 03  	ld	a1, 0x30(s6)
   1c74c: 33 85 a5 00  	add	a0, a1, a0
   1c750: 03 3d 05 00  	ld	s10, 0x0(a0)
   1c754: 9b 0d f9 ff  	addiw	s11, s2, -0x1
   1c758: 13 85 fd 0f  	addi	a0, s11, 0xff
   1c75c: 1b 99 1d 00  	slliw	s2, s11, 0x1
   1c760: 93 05 09 00  	addi	a1, s2, 0x0
   1c764: ef 70 01 7d  	jal	ra, 0x33f34 <__divdi3>
   1c768: 13 0a 05 00  	addi	s4, a0, 0x0
   1c76c: 13 0c 00 00  	addi	s8, zero, 0x0
   1c770: 93 09 00 00  	addi	s3, zero, 0x0
   1c774: 1b 05 0a 00  	addiw	a0, s4, 0x0
   1c778: 63 5a 85 03  	bge	a0, s8, 0x1c7ac <create_colorindex+0x104>
   1c77c: 13 94 19 00  	slli	s0, s3, 0x1
   1c780: 1b 04 34 00  	addiw	s0, s0, 0x3
   1c784: 13 15 84 00  	slli	a0, s0, 0x8
   1c788: b3 05 b4 41  	sub	a1, s0, s11
   1c78c: 33 05 b5 40  	sub	a0, a0, a1
   1c790: 93 05 09 00  	addi	a1, s2, 0x0
   1c794: ef 70 01 7a  	jal	ra, 0x33f34 <__divdi3>
   1c798: 13 0a 05 00  	addi	s4, a0, 0x0
   1c79c: 1b 05 05 00  	addiw	a0, a0, 0x0
   1c7a0: 9b 89 19 00  	addiw	s3, s3, 0x1
   1c7a4: 1b 04 24 00  	addiw	s0, s0, 0x2
   1c7a8: e3 4e 85 fd  	blt	a0, s8, 0x1c784 <create_colorindex+0xdc>
   1c7ac: 13 85 09 00  	addi	a0, s3, 0x0
   1c7b0: 93 85 04 00  	addi	a1, s1, 0x0
   1c7b4: ef 70 01 74  	jal	ra, 0x33ef4 <__muldi3>
   1c7b8: b3 05 8d 01  	add	a1, s10, s8
   1c7bc: 13 0c 1c 00  	addi	s8, s8, 0x1
   1c7c0: 23 80 a5 00  	sb	a0, 0x0(a1)
   1c7c4: e3 18 9c fb  	bne	s8, s9, 0x1c774 <create_colorindex+0xcc>
   1c7c8: 13 04 10 00  	addi	s0, zero, 0x1
   1c7cc: 63 96 8a 02  	bne	s5, s0, 0x1c7f8 <create_colorindex+0x150>
   1c7d0: 03 45 0d 00  	lbu	a0, 0x0(s10)
   1c7d4: 93 05 fd ff  	addi	a1, s10, -0x1
   1c7d8: 13 06 0d 10  	addi	a2, s10, 0x100
   1c7dc: 93 06 0d f0  	addi	a3, s10, -0x100
   1c7e0: 23 80 a5 00  	sb	a0, 0x0(a1)
   1c7e4: 03 47 fd 0f  	lbu	a4, 0xff(s10)
   1c7e8: 23 00 e6 00  	sb	a4, 0x0(a2)
   1c7ec: 93 85 f5 ff  	addi	a1, a1, -0x1
   1c7f0: 13 06 16 00  	addi	a2, a2, 0x1
   1c7f4: e3 96 d5 fe  	bne	a1, a3, 0x1c7e0 <create_colorindex+0x138>
   1c7f8: 03 35 81 00  	ld	a0, 0x8(sp)
   1c7fc: 03 25 85 08  	lw	a0, 0x88(a0)
   1c800: 93 8b 1b 00  	addi	s7, s7, 0x1
   1c804: e3 c6 ab f0  	blt	s7, a0, 0x1c710 <create_colorindex+0x68>
   1c808: 13 01 01 01  	addi	sp, sp, 0x10
   1c80c: 6f 70 c1 6b  	jal	zero, 0x33ec8 <__riscv_restore_12>

000000000001c810 <alloc_fs_workspace>:
   1c810: ef 72 41 69  	jal	t0, 0x33ea4 <__riscv_save_5>
   1c814: 13 04 05 00  	addi	s0, a0, 0x0
   1c818: 03 25 85 08  	lw	a0, 0x88(a0)
   1c81c: 63 56 a0 04  	bge	zero, a0, 0x1c868 <alloc_fs_workspace+0x58>
   1c820: 03 25 04 08  	lw	a0, 0x80(s0)
   1c824: 13 09 00 00  	addi	s2, zero, 0x0
   1c828: 83 35 04 26  	ld	a1, 0x260(s0)
   1c82c: 13 05 25 00  	addi	a0, a0, 0x2
   1c830: 13 15 05 02  	slli	a0, a0, 0x20
   1c834: 93 54 f5 01  	srli	s1, a0, 0x1f
   1c838: 93 89 05 07  	addi	s3, a1, 0x70
   1c83c: 03 35 84 00  	ld	a0, 0x8(s0)
   1c840: 83 36 85 00  	ld	a3, 0x8(a0)
   1c844: 93 05 10 00  	addi	a1, zero, 0x1
   1c848: 13 05 04 00  	addi	a0, s0, 0x0
   1c84c: 13 86 04 00  	addi	a2, s1, 0x0
   1c850: e7 80 06 00  	jalr	ra, 0x0(a3)
   1c854: 83 25 84 08  	lw	a1, 0x88(s0)
   1c858: 23 b0 a9 00  	sd	a0, 0x0(s3)
   1c85c: 13 09 19 00  	addi	s2, s2, 0x1
   1c860: 93 89 89 00  	addi	s3, s3, 0x8
   1c864: e3 4c b9 fc  	blt	s2, a1, 0x1c83c <alloc_fs_workspace+0x2c>
   1c868: 6f 70 61 67  	jal	zero, 0x33ede <__riscv_restore_5>

000000000001c86c <color_quantize3>:
   1c86c: 63 5a d0 08  	bge	zero, a3, 0x1c900 <color_quantize3+0x94>
   1c870: 03 37 05 26  	ld	a4, 0x260(a0)
   1c874: 83 38 07 03  	ld	a7, 0x30(a4)
   1c878: 13 07 00 00  	addi	a4, zero, 0x0
   1c87c: 03 25 05 08  	lw	a0, 0x80(a0)
   1c880: 83 b7 08 00  	ld	a5, 0x0(a7)
   1c884: 03 b8 88 00  	ld	a6, 0x8(a7)
   1c888: 83 b8 08 01  	ld	a7, 0x10(a7)
   1c88c: 93 02 f5 ff  	addi	t0, a0, -0x1
   1c890: 93 92 02 02  	slli	t0, t0, 0x20
   1c894: 93 d2 02 02  	srli	t0, t0, 0x20
   1c898: 93 82 12 00  	addi	t0, t0, 0x1
   1c89c: 63 0e 05 04  	beq	a0, zero, 0x1c8f8 <color_quantize3+0x8c>
   1c8a0: 13 13 37 00  	slli	t1, a4, 0x3
   1c8a4: b3 03 66 00  	add	t2, a2, t1
   1c8a8: 03 be 03 00  	ld	t3, 0x0(t2)
   1c8ac: 33 83 65 00  	add	t1, a1, t1
   1c8b0: 03 33 03 00  	ld	t1, 0x0(t1)
   1c8b4: b3 03 5e 00  	add	t2, t3, t0
   1c8b8: 83 4e 03 00  	lbu	t4, 0x0(t1)
   1c8bc: 03 4f 13 00  	lbu	t5, 0x1(t1)
   1c8c0: b3 8e d7 01  	add	t4, a5, t4
   1c8c4: 83 4f 23 00  	lbu	t6, 0x2(t1)
   1c8c8: 83 ce 0e 00  	lbu	t4, 0x0(t4)
   1c8cc: 33 0f e8 01  	add	t5, a6, t5
   1c8d0: 03 4f 0f 00  	lbu	t5, 0x0(t5)
   1c8d4: b3 8f f8 01  	add	t6, a7, t6
   1c8d8: 83 cf 0f 00  	lbu	t6, 0x0(t6)
   1c8dc: b3 0e df 01  	add	t4, t5, t4
   1c8e0: b3 8e fe 01  	add	t4, t4, t6
   1c8e4: 13 0f 1e 00  	addi	t5, t3, 0x1
   1c8e8: 23 00 de 01  	sb	t4, 0x0(t3)
   1c8ec: 13 03 33 00  	addi	t1, t1, 0x3
   1c8f0: 13 0e 0f 00  	addi	t3, t5, 0x0
   1c8f4: e3 12 7f fc  	bne	t5, t2, 0x1c8b8 <color_quantize3+0x4c>
   1c8f8: 13 07 17 00  	addi	a4, a4, 0x1
   1c8fc: e3 10 d7 fa  	bne	a4, a3, 0x1c89c <color_quantize3+0x30>
   1c900: 67 80 00 00  	jalr	zero, 0x0(ra)

000000000001c904 <color_quantize>:
   1c904: 63 56 d0 0a  	bge	zero, a3, 0x1c9b0 <color_quantize+0xac>
   1c908: ef 72 61 5a  	jal	t0, 0x33eae <__riscv_save_3>
   1c90c: 03 38 05 26  	ld	a6, 0x260(a0)
   1c910: 03 67 85 08  	lwu	a4, 0x88(a0)
   1c914: 93 07 00 00  	addi	a5, zero, 0x0
   1c918: 03 38 08 03  	ld	a6, 0x30(a6)
   1c91c: 03 25 05 08  	lw	a0, 0x80(a0)
   1c920: 9b 08 07 00  	addiw	a7, a4, 0x0
   1c924: 93 02 f7 ff  	addi	t0, a4, -0x1
   1c928: 93 92 02 02  	slli	t0, t0, 0x20
   1c92c: 93 d2 02 02  	srli	t0, t0, 0x20
   1c930: 93 82 12 00  	addi	t0, t0, 0x1
   1c934: 63 06 05 06  	beq	a0, zero, 0x1c9a0 <color_quantize+0x9c>
   1c938: 93 93 37 00  	slli	t2, a5, 0x3
   1c93c: 33 03 76 00  	add	t1, a2, t2
   1c940: 03 33 03 00  	ld	t1, 0x0(t1)
   1c944: b3 83 75 00  	add	t2, a1, t2
   1c948: 83 b3 03 00  	ld	t2, 0x0(t2)
   1c94c: 13 0e 05 00  	addi	t3, a0, 0x0
   1c950: 93 0e 00 00  	addi	t4, zero, 0x0
   1c954: 63 5c 10 03  	bge	zero, a7, 0x1c98c <color_quantize+0x88>
   1c958: 33 8f e3 00  	add	t5, t2, a4
   1c95c: 93 0f 08 00  	addi	t6, a6, 0x0
   1c960: 13 84 03 00  	addi	s0, t2, 0x0
   1c964: 83 b4 0f 00  	ld	s1, 0x0(t6)
   1c968: 03 49 04 00  	lbu	s2, 0x0(s0)
   1c96c: b3 84 24 01  	add	s1, s1, s2
   1c970: 83 c4 04 00  	lbu	s1, 0x0(s1)
   1c974: 13 09 14 00  	addi	s2, s0, 0x1
   1c978: b3 8e 9e 00  	add	t4, t4, s1
   1c97c: 93 8f 8f 00  	addi	t6, t6, 0x8
   1c980: 13 04 09 00  	addi	s0, s2, 0x0
   1c984: e3 10 e9 ff  	bne	s2, t5, 0x1c964 <color_quantize+0x60>
   1c988: b3 83 53 00  	add	t2, t2, t0
   1c98c: 13 0f 13 00  	addi	t5, t1, 0x1
   1c990: 1b 0e fe ff  	addiw	t3, t3, -0x1
   1c994: 23 00 d3 01  	sb	t4, 0x0(t1)
   1c998: 13 03 0f 00  	addi	t1, t5, 0x0
   1c99c: e3 1a 0e fa  	bne	t3, zero, 0x1c950 <color_quantize+0x4c>
   1c9a0: 93 87 17 00  	addi	a5, a5, 0x1
   1c9a4: e3 98 d7 f8  	bne	a5, a3, 0x1c934 <color_quantize+0x30>
   1c9a8: 6f 70 c1 53  	jal	zero, 0x33ee4 <__riscv_restore_3>
   1c9ac: 6f 00 40 00  	jal	zero, 0x1c9b0 <color_quantize+0xac>
   1c9b0: 67 80 00 00  	jalr	zero, 0x0(ra)

000000000001c9b4 <quantize3_ord_dither>:
   1c9b4: 63 50 d0 10  	bge	zero, a3, 0x1cab4 <quantize3_ord_dither+0x100>
   1c9b8: ef 72 81 4d  	jal	t0, 0x33e90 <__riscv_save_9>
   1c9bc: 03 37 05 26  	ld	a4, 0x260(a0)
   1c9c0: 83 32 07 03  	ld	t0, 0x30(a4)
   1c9c4: 93 07 00 00  	addi	a5, zero, 0x0
   1c9c8: 03 b8 02 00  	ld	a6, 0x0(t0)
   1c9cc: 03 25 05 08  	lw	a0, 0x80(a0)
   1c9d0: 83 b8 82 00  	ld	a7, 0x8(t0)
   1c9d4: 83 b2 02 01  	ld	t0, 0x10(t0)
   1c9d8: 03 23 c7 04  	lw	t1, 0x4c(a4)
   1c9dc: 93 03 f5 ff  	addi	t2, a0, -0x1
   1c9e0: 93 93 03 02  	slli	t2, t2, 0x20
   1c9e4: 93 d3 03 02  	srli	t2, t2, 0x20
   1c9e8: 93 83 13 00  	addi	t2, t2, 0x1
   1c9ec: 63 06 05 0a  	beq	a0, zero, 0x1ca98 <quantize3_ord_dither+0xe4>
   1c9f0: 83 3e 07 05  	ld	t4, 0x50(a4)
   1c9f4: 13 0e 00 00  	addi	t3, zero, 0x0
   1c9f8: 13 14 63 00  	slli	s0, t1, 0x6
   1c9fc: b3 8e 8e 00  	add	t4, t4, s0
   1ca00: 83 3f 87 05  	ld	t6, 0x58(a4)
   1ca04: 83 34 07 06  	ld	s1, 0x60(a4)
   1ca08: 13 9f 37 00  	slli	t5, a5, 0x3
   1ca0c: 33 09 e6 01  	add	s2, a2, t5
   1ca10: 03 39 09 00  	ld	s2, 0x0(s2)
   1ca14: 33 8f e5 01  	add	t5, a1, t5
   1ca18: 03 3f 0f 00  	ld	t5, 0x0(t5)
   1ca1c: b3 8f 8f 00  	add	t6, t6, s0
   1ca20: 33 84 84 00  	add	s0, s1, s0
   1ca24: b3 04 79 00  	add	s1, s2, t2
   1ca28: 83 49 0f 00  	lbu	s3, 0x0(t5)
   1ca2c: 13 1a 2e 00  	slli	s4, t3, 0x2
   1ca30: b3 8a 4e 01  	add	s5, t4, s4
   1ca34: 83 aa 0a 00  	lw	s5, 0x0(s5)
   1ca38: 03 4b 1f 00  	lbu	s6, 0x1(t5)
   1ca3c: b3 8b 4f 01  	add	s7, t6, s4
   1ca40: 83 ab 0b 00  	lw	s7, 0x0(s7)
   1ca44: bb 89 3a 01  	addw	s3, s5, s3
   1ca48: b3 09 38 01  	add	s3, a6, s3
   1ca4c: bb 8a 6b 01  	addw	s5, s7, s6
   1ca50: 03 4b 2f 00  	lbu	s6, 0x2(t5)
   1ca54: 33 0a 44 01  	add	s4, s0, s4
   1ca58: 03 2a 0a 00  	lw	s4, 0x0(s4)
   1ca5c: 83 c9 09 00  	lbu	s3, 0x0(s3)
   1ca60: b3 8a 58 01  	add	s5, a7, s5
   1ca64: 83 ca 0a 00  	lbu	s5, 0x0(s5)
   1ca68: 3b 0a 6a 01  	addw	s4, s4, s6
   1ca6c: 33 8a 42 01  	add	s4, t0, s4
   1ca70: 03 4a 0a 00  	lbu	s4, 0x0(s4)
   1ca74: b3 89 3a 01  	add	s3, s5, s3
   1ca78: b3 89 49 01  	add	s3, s3, s4
   1ca7c: 13 0a 19 00  	addi	s4, s2, 0x1
   1ca80: 23 00 39 01  	sb	s3, 0x0(s2)
   1ca84: 13 0e 1e 00  	addi	t3, t3, 0x1
   1ca88: 13 7e fe 00  	andi	t3, t3, 0xf
   1ca8c: 13 0f 3f 00  	addi	t5, t5, 0x3
   1ca90: 13 09 0a 00  	addi	s2, s4, 0x0
   1ca94: e3 1a 9a f8  	bne	s4, s1, 0x1ca28 <quantize3_ord_dither+0x74>
   1ca98: 13 03 13 00  	addi	t1, t1, 0x1
   1ca9c: 13 73 f3 00  	andi	t1, t1, 0xf
   1caa0: 93 87 17 00  	addi	a5, a5, 0x1
   1caa4: 23 26 67 04  	sw	t1, 0x4c(a4)
   1caa8: e3 92 d7 f4  	bne	a5, a3, 0x1c9ec <quantize3_ord_dither+0x38>
   1caac: 6f 70 61 42  	jal	zero, 0x33ed2 <__riscv_restore_9>
   1cab0: 6f 00 40 00  	jal	zero, 0x1cab4 <quantize3_ord_dither+0x100>
   1cab4: 67 80 00 00  	jalr	zero, 0x0(ra)

000000000001cab8 <quantize_ord_dither>:
   1cab8: 63 58 d0 0e  	bge	zero, a3, 0x1cba8 <quantize_ord_dither+0xf0>
   1cabc: ef 72 a1 3c  	jal	t0, 0x33e86 <__riscv_save_11>
   1cac0: 13 84 06 00  	addi	s0, a3, 0x0
   1cac4: 93 04 06 00  	addi	s1, a2, 0x0
   1cac8: 13 89 05 00  	addi	s2, a1, 0x0
   1cacc: 83 69 05 08  	lwu	s3, 0x80(a0)
   1cad0: 13 0a 00 00  	addi	s4, zero, 0x0
   1cad4: 83 3a 05 26  	ld	s5, 0x260(a0)
   1cad8: 03 2b 85 08  	lw	s6, 0x88(a0)
   1cadc: 13 85 f9 ff  	addi	a0, s3, -0x1
   1cae0: 13 15 05 02  	slli	a0, a0, 0x20
   1cae4: 13 55 05 02  	srli	a0, a0, 0x20
   1cae8: 93 0b 15 00  	addi	s7, a0, 0x1
   1caec: 93 1c 3a 00  	slli	s9, s4, 0x3
   1caf0: 33 8c 94 01  	add	s8, s1, s9
   1caf4: 03 35 0c 00  	ld	a0, 0x0(s8)
   1caf8: 93 85 09 00  	addi	a1, s3, 0x0
   1cafc: ef 20 00 12  	jal	ra, 0x1ec1c <jzero_far>
   1cb00: 03 a5 ca 04  	lw	a0, 0x4c(s5)
   1cb04: 63 54 60 09  	bge	zero, s6, 0x1cb8c <quantize_ord_dither+0xd4>
   1cb08: 93 05 00 00  	addi	a1, zero, 0x0
   1cb0c: 33 06 99 01  	add	a2, s2, s9
   1cb10: 93 16 65 00  	slli	a3, a0, 0x6
   1cb14: 63 88 09 06  	beq	s3, zero, 0x1cb84 <quantize_ord_dither+0xcc>
   1cb18: 83 b7 0a 03  	ld	a5, 0x30(s5)
   1cb1c: 13 07 00 00  	addi	a4, zero, 0x0
   1cb20: 13 98 35 00  	slli	a6, a1, 0x3
   1cb24: b3 88 07 01  	add	a7, a5, a6
   1cb28: 33 88 0a 01  	add	a6, s5, a6
   1cb2c: 83 32 08 05  	ld	t0, 0x50(a6)
   1cb30: 03 33 06 00  	ld	t1, 0x0(a2)
   1cb34: 83 37 0c 00  	ld	a5, 0x0(s8)
   1cb38: 03 b8 08 00  	ld	a6, 0x0(a7)
   1cb3c: b3 88 d2 00  	add	a7, t0, a3
   1cb40: b3 02 b3 00  	add	t0, t1, a1
   1cb44: 33 83 77 01  	add	t1, a5, s7
   1cb48: 83 c3 02 00  	lbu	t2, 0x0(t0)
   1cb4c: 13 1e 27 00  	slli	t3, a4, 0x2
   1cb50: 33 8e c8 01  	add	t3, a7, t3
   1cb54: 03 2e 0e 00  	lw	t3, 0x0(t3)
   1cb58: bb 03 7e 00  	addw	t2, t3, t2
   1cb5c: b3 03 78 00  	add	t2, a6, t2
   1cb60: 83 c3 03 00  	lbu	t2, 0x0(t2)
   1cb64: 03 ce 07 00  	lbu	t3, 0x0(a5)
   1cb68: b3 03 7e 00  	add	t2, t3, t2
   1cb6c: 23 80 77 00  	sb	t2, 0x0(a5)
   1cb70: b3 82 62 01  	add	t0, t0, s6
   1cb74: 93 87 17 00  	addi	a5, a5, 0x1
   1cb78: 13 07 17 00  	addi	a4, a4, 0x1
   1cb7c: 13 77 f7 00  	andi	a4, a4, 0xf
   1cb80: e3 94 67 fc  	bne	a5, t1, 0x1cb48 <quantize_ord_dither+0x90>
   1cb84: 93 85 15 00  	addi	a1, a1, 0x1
   1cb88: e3 96 65 f9  	bne	a1, s6, 0x1cb14 <quantize_ord_dither+0x5c>
   1cb8c: 13 05 15 00  	addi	a0, a0, 0x1
   1cb90: 13 75 f5 00  	andi	a0, a0, 0xf
   1cb94: 13 0a 1a 00  	addi	s4, s4, 0x1
   1cb98: 23 a6 aa 04  	sw	a0, 0x4c(s5)
   1cb9c: e3 18 8a f4  	bne	s4, s0, 0x1caec <quantize_ord_dither+0x34>
   1cba0: 6f 70 c1 32  	jal	zero, 0x33ecc <__riscv_restore_11>
   1cba4: 6f 00 40 00  	jal	zero, 0x1cba8 <quantize_ord_dither+0xf0>
   1cba8: 67 80 00 00  	jalr	zero, 0x0(ra)

000000000001cbac <quantize_fs_dither>:
   1cbac: ef 72 21 2d  	jal	t0, 0x33e7e <__riscv_save_12>
   1cbb0: 13 01 01 fa  	addi	sp, sp, -0x60
   1cbb4: 23 34 c1 00  	sd	a2, 0x8(sp)
   1cbb8: 23 30 b1 00  	sd	a1, 0x0(sp)
   1cbbc: 23 38 d1 00  	sd	a3, 0x10(sp)
   1cbc0: 63 50 d0 1e  	bge	zero, a3, 0x1cda0 <quantize_fs_dither+0x1f4>
   1cbc4: 83 3b 05 26  	ld	s7, 0x260(a0)
   1cbc8: 83 2a 85 08  	lw	s5, 0x88(a0)
   1cbcc: 83 64 05 08  	lwu	s1, 0x80(a0)
   1cbd0: 03 3c 85 19  	ld	s8, 0x198(a0)
   1cbd4: 13 84 f4 ff  	addi	s0, s1, -0x1
   1cbd8: 13 05 04 00  	addi	a0, s0, 0x0
   1cbdc: 93 85 0a 00  	addi	a1, s5, 0x0
   1cbe0: ef 70 41 31  	jal	ra, 0x33ef4 <__muldi3>
   1cbe4: 93 05 00 00  	addi	a1, zero, 0x0
   1cbe8: 13 15 05 02  	slli	a0, a0, 0x20
   1cbec: 13 55 05 02  	srli	a0, a0, 0x20
   1cbf0: 23 30 a1 04  	sd	a0, 0x40(sp)
   1cbf4: 13 14 04 02  	slli	s0, s0, 0x20
   1cbf8: 13 54 04 02  	srli	s0, s0, 0x20
   1cbfc: 3b 05 50 41  	subw	a0, zero, s5
   1cc00: 23 38 a1 02  	sd	a0, 0x30(sp)
   1cc04: 23 3c 91 04  	sd	s1, 0x58(sp)
   1cc08: 13 85 14 00  	addi	a0, s1, 0x1
   1cc0c: 13 15 05 02  	slli	a0, a0, 0x20
   1cc10: 13 55 05 02  	srli	a0, a0, 0x20
   1cc14: 23 3c 81 02  	sd	s0, 0x38(sp)
   1cc18: 13 04 14 00  	addi	s0, s0, 0x1
   1cc1c: 23 34 81 02  	sd	s0, 0x28(sp)
   1cc20: 13 15 15 00  	slli	a0, a0, 0x1
   1cc24: 23 30 a1 02  	sd	a0, 0x20(sp)
   1cc28: 23 3c b1 00  	sd	a1, 0x18(sp)
   1cc2c: 13 94 35 00  	slli	s0, a1, 0x3
   1cc30: 03 35 81 00  	ld	a0, 0x8(sp)
   1cc34: 33 05 85 00  	add	a0, a0, s0
   1cc38: 23 38 a1 04  	sd	a0, 0x50(sp)
   1cc3c: 03 35 05 00  	ld	a0, 0x0(a0)
   1cc40: 83 35 81 05  	ld	a1, 0x58(sp)
   1cc44: ef 10 90 7d  	jal	ra, 0x1ec1c <jzero_far>
   1cc48: 63 5e 50 13  	bge	zero, s5, 0x1cd84 <quantize_fs_dither+0x1d8>
   1cc4c: 13 09 00 00  	addi	s2, zero, 0x0
   1cc50: 03 35 01 00  	ld	a0, 0x0(sp)
   1cc54: 33 05 85 00  	add	a0, a0, s0
   1cc58: 23 34 a1 04  	sd	a0, 0x48(sp)
   1cc5c: 03 35 81 04  	ld	a0, 0x48(sp)
   1cc60: 83 3c 05 00  	ld	s9, 0x0(a0)
   1cc64: 83 a5 0b 09  	lw	a1, 0x90(s7)
   1cc68: 03 35 01 05  	ld	a0, 0x50(sp)
   1cc6c: 03 3b 05 00  	ld	s6, 0x0(a0)
   1cc70: b3 8c 2c 01  	add	s9, s9, s2
   1cc74: 13 15 39 00  	slli	a0, s2, 0x3
   1cc78: 63 88 05 02  	beq	a1, zero, 0x1cca8 <quantize_fs_dither+0xfc>
   1cc7c: b3 85 ab 00  	add	a1, s7, a0
   1cc80: 83 b4 05 07  	ld	s1, 0x70(a1)
   1cc84: 83 35 01 04  	ld	a1, 0x40(sp)
   1cc88: b3 8c bc 00  	add	s9, s9, a1
   1cc8c: 83 35 81 03  	ld	a1, 0x38(sp)
   1cc90: 33 0b bb 00  	add	s6, s6, a1
   1cc94: 83 35 01 02  	ld	a1, 0x20(sp)
   1cc98: b3 84 b4 00  	add	s1, s1, a1
   1cc9c: 13 0d f0 ff  	addi	s10, zero, -0x1
   1cca0: 83 39 01 03  	ld	s3, 0x30(sp)
   1cca4: 6f 00 40 01  	jal	zero, 0x1ccb8 <quantize_fs_dither+0x10c>
   1cca8: b3 85 ab 00  	add	a1, s7, a0
   1ccac: 83 b4 05 07  	ld	s1, 0x70(a1)
   1ccb0: 13 0d 10 00  	addi	s10, zero, 0x1
   1ccb4: 93 89 0a 00  	addi	s3, s5, 0x0
   1ccb8: 83 35 81 05  	ld	a1, 0x58(sp)
   1ccbc: 63 8e 05 0a  	beq	a1, zero, 0x1cd78 <quantize_fs_dither+0x1cc>
   1ccc0: 83 b5 0b 03  	ld	a1, 0x30(s7)
   1ccc4: 03 b6 0b 02  	ld	a2, 0x20(s7)
   1ccc8: b3 85 a5 00  	add	a1, a1, a0
   1cccc: 03 ba 05 00  	ld	s4, 0x0(a1)
   1ccd0: 33 05 a6 00  	add	a0, a2, a0
   1ccd4: 03 34 05 00  	ld	s0, 0x0(a0)
   1ccd8: 93 1d 1d 00  	slli	s11, s10, 0x1
   1ccdc: 03 35 81 02  	ld	a0, 0x28(sp)
   1cce0: 93 05 0d 00  	addi	a1, s10, 0x0
   1cce4: ef 70 01 21  	jal	ra, 0x33ef4 <__muldi3>
   1cce8: 13 07 00 00  	addi	a4, zero, 0x0
   1ccec: 13 06 00 00  	addi	a2, zero, 0x0
   1ccf0: 93 05 00 00  	addi	a1, zero, 0x0
   1ccf4: 33 05 ab 00  	add	a0, s6, a0
   1ccf8: 93 86 04 00  	addi	a3, s1, 0x0
   1ccfc: b3 84 b6 01  	add	s1, a3, s11
   1cd00: 83 97 04 00  	lh	a5, 0x0(s1)
   1cd04: 03 c8 0c 00  	lbu	a6, 0x0(s9)
   1cd08: 33 07 f7 00  	add	a4, a4, a5
   1cd0c: 13 07 87 00  	addi	a4, a4, 0x8
   1cd10: 1b 57 47 40  	sraiw	a4, a4, 0x4
   1cd14: 33 08 0c 01  	add	a6, s8, a6
   1cd18: 33 07 e8 00  	add	a4, a6, a4
   1cd1c: 03 47 07 00  	lbu	a4, 0x0(a4)
   1cd20: b3 07 ea 00  	add	a5, s4, a4
   1cd24: 83 c7 07 00  	lbu	a5, 0x0(a5)
   1cd28: 03 48 0b 00  	lbu	a6, 0x0(s6)
   1cd2c: 33 08 f8 00  	add	a6, a6, a5
   1cd30: 23 00 0b 01  	sb	a6, 0x0(s6)
   1cd34: b3 07 f4 00  	add	a5, s0, a5
   1cd38: 83 c7 07 00  	lbu	a5, 0x0(a5)
   1cd3c: b3 07 f7 40  	sub	a5, a4, a5
   1cd40: 13 97 17 00  	slli	a4, a5, 0x1
   1cd44: b3 85 b7 00  	add	a1, a5, a1
   1cd48: b3 05 b7 00  	add	a1, a4, a1
   1cd4c: 23 90 b6 00  	sh	a1, 0x0(a3)
   1cd50: 93 95 27 00  	slli	a1, a5, 0x2
   1cd54: 33 86 c7 00  	add	a2, a5, a2
   1cd58: b3 85 c5 00  	add	a1, a1, a2
   1cd5c: 13 97 37 00  	slli	a4, a5, 0x3
   1cd60: 33 07 f7 40  	sub	a4, a4, a5
   1cd64: 33 0b ab 01  	add	s6, s6, s10
   1cd68: b3 8c 3c 01  	add	s9, s9, s3
   1cd6c: 93 86 04 00  	addi	a3, s1, 0x0
   1cd70: 13 86 07 00  	addi	a2, a5, 0x0
   1cd74: e3 14 ab f8  	bne	s6, a0, 0x1ccfc <quantize_fs_dither+0x150>
   1cd78: 13 09 19 00  	addi	s2, s2, 0x1
   1cd7c: 23 90 b4 00  	sh	a1, 0x0(s1)
   1cd80: e3 1e 59 ed  	bne	s2, s5, 0x1cc5c <quantize_fs_dither+0xb0>
   1cd84: 03 a5 0b 09  	lw	a0, 0x90(s7)
   1cd88: 13 35 15 00  	sltiu	a0, a0, 0x1
   1cd8c: 83 35 81 01  	ld	a1, 0x18(sp)
   1cd90: 93 85 15 00  	addi	a1, a1, 0x1
   1cd94: 23 a8 ab 08  	sw	a0, 0x90(s7)
   1cd98: 03 35 01 01  	ld	a0, 0x10(sp)
   1cd9c: e3 96 a5 e8  	bne	a1, a0, 0x1cc28 <quantize_fs_dither+0x7c>
   1cda0: 13 01 01 06  	addi	sp, sp, 0x60
   1cda4: 6f 70 41 12  	jal	zero, 0x33ec8 <__riscv_restore_12>

000000000001cda8 <jinit_2pass_quantizer>:
   1cda8: 13 01 01 fd  	addi	sp, sp, -0x30
   1cdac: 23 34 11 02  	sd	ra, 0x28(sp)
   1cdb0: 23 30 81 02  	sd	s0, 0x20(sp)
   1cdb4: 23 3c 91 00  	sd	s1, 0x18(sp)
   1cdb8: 23 38 21 01  	sd	s2, 0x10(sp)
   1cdbc: 23 34 31 01  	sd	s3, 0x8(sp)
   1cdc0: 13 04 05 00  	addi	s0, a0, 0x0
   1cdc4: 03 35 85 00  	ld	a0, 0x8(a0)
   1cdc8: 83 36 05 00  	ld	a3, 0x0(a0)
   1cdcc: 93 05 10 00  	addi	a1, zero, 0x1
   1cdd0: 13 06 80 05  	addi	a2, zero, 0x58
   1cdd4: 13 05 04 00  	addi	a0, s0, 0x0
   1cdd8: e7 80 06 00  	jalr	ra, 0x0(a3)
   1cddc: 93 04 05 00  	addi	s1, a0, 0x0
   1cde0: 23 30 a4 26  	sd	a0, 0x260(s0)
   1cde4: 37 d5 01 00  	lui	a0, 0x1d
   1cde8: 13 05 05 f7  	addi	a0, a0, -0x90
   1cdec: 23 b0 a4 00  	sd	a0, 0x0(s1)
   1cdf0: 37 d5 01 00  	lui	a0, 0x1d
   1cdf4: 13 05 85 0b  	addi	a0, a0, 0xb8
   1cdf8: 83 25 84 08  	lw	a1, 0x88(s0)
   1cdfc: 23 bc a4 00  	sd	a0, 0x18(s1)
   1ce00: 23 b0 04 04  	sd	zero, 0x40(s1)
   1ce04: 13 05 30 00  	addi	a0, zero, 0x3
   1ce08: 23 b8 04 04  	sd	zero, 0x50(s1)
   1ce0c: 63 8e a5 00  	beq	a1, a0, 0x1ce28 <jinit_2pass_quantizer+0x80>
   1ce10: 03 35 04 00  	ld	a0, 0x0(s0)
   1ce14: 83 35 05 00  	ld	a1, 0x0(a0)
   1ce18: 13 06 e0 02  	addi	a2, zero, 0x2e
   1ce1c: 23 24 c5 02  	sw	a2, 0x28(a0)
   1ce20: 13 05 04 00  	addi	a0, s0, 0x0
   1ce24: e7 80 05 00  	jalr	ra, 0x0(a1)
   1ce28: 03 35 84 00  	ld	a0, 0x8(s0)
   1ce2c: 83 36 05 00  	ld	a3, 0x0(a0)
   1ce30: 93 05 10 00  	addi	a1, zero, 0x1
   1ce34: 13 06 00 10  	addi	a2, zero, 0x100
   1ce38: 13 09 00 10  	addi	s2, zero, 0x100
   1ce3c: 13 05 04 00  	addi	a0, s0, 0x0
   1ce40: e7 80 06 00  	jalr	ra, 0x0(a3)
   1ce44: 93 09 00 00  	addi	s3, zero, 0x0
   1ce48: 23 b8 a4 02  	sd	a0, 0x30(s1)
   1ce4c: 03 35 84 00  	ld	a0, 0x8(s0)
   1ce50: 83 36 85 00  	ld	a3, 0x8(a0)
   1ce54: 93 05 10 00  	addi	a1, zero, 0x1
   1ce58: 37 16 00 00  	lui	a2, 0x1
   1ce5c: 13 05 04 00  	addi	a0, s0, 0x0
   1ce60: e7 80 06 00  	jalr	ra, 0x0(a3)
   1ce64: 83 b5 04 03  	ld	a1, 0x30(s1)
   1ce68: b3 85 35 01  	add	a1, a1, s3
   1ce6c: 93 89 89 00  	addi	s3, s3, 0x8
   1ce70: 23 b0 a5 00  	sd	a0, 0x0(a1)
   1ce74: e3 9c 29 fd  	bne	s3, s2, 0x1ce4c <jinit_2pass_quantizer+0xa4>
   1ce78: 03 25 c4 07  	lw	a0, 0x7c(s0)
   1ce7c: 93 05 10 00  	addi	a1, zero, 0x1
   1ce80: 23 ac b4 02  	sw	a1, 0x38(s1)
   1ce84: 63 04 05 06  	beq	a0, zero, 0x1ceec <jinit_2pass_quantizer+0x144>
   1ce88: 03 29 04 07  	lw	s2, 0x70(s0)
   1ce8c: 93 05 80 00  	addi	a1, zero, 0x8
   1ce90: 13 05 70 03  	addi	a0, zero, 0x37
   1ce94: 63 4a b9 00  	blt	s2, a1, 0x1cea8 <jinit_2pass_quantizer+0x100>
   1ce98: 13 05 10 10  	addi	a0, zero, 0x101
   1ce9c: 63 64 a9 02  	bltu	s2, a0, 0x1cec4 <jinit_2pass_quantizer+0x11c>
   1cea0: 93 05 00 10  	addi	a1, zero, 0x100
   1cea4: 13 05 80 03  	addi	a0, zero, 0x38
   1cea8: 03 36 04 00  	ld	a2, 0x0(s0)
   1ceac: 23 26 b6 02  	sw	a1, 0x2c(a2)
   1ceb0: 83 35 04 00  	ld	a1, 0x0(s0)
   1ceb4: 83 b5 05 00  	ld	a1, 0x0(a1)
   1ceb8: 23 24 a6 02  	sw	a0, 0x28(a2)
   1cebc: 13 05 04 00  	addi	a0, s0, 0x0
   1cec0: e7 80 05 00  	jalr	ra, 0x0(a1)
   1cec4: 03 35 84 00  	ld	a0, 0x8(s0)
   1cec8: 03 37 05 01  	ld	a4, 0x10(a0)
   1cecc: 93 05 10 00  	addi	a1, zero, 0x1
   1ced0: 93 06 30 00  	addi	a3, zero, 0x3
   1ced4: 13 05 04 00  	addi	a0, s0, 0x0
   1ced8: 13 06 09 00  	addi	a2, s2, 0x0
   1cedc: e7 00 07 00  	jalr	ra, 0x0(a4)
   1cee0: 23 b0 a4 02  	sd	a0, 0x20(s1)
   1cee4: 23 a4 24 03  	sw	s2, 0x28(s1)
   1cee8: 6f 00 80 00  	jal	zero, 0x1cef0 <jinit_2pass_quantizer+0x148>
   1ceec: 23 b0 04 02  	sd	zero, 0x20(s1)
   1cef0: 03 25 84 06  	lw	a0, 0x68(s0)
   1cef4: 63 00 05 06  	beq	a0, zero, 0x1cf54 <jinit_2pass_quantizer+0x1ac>
   1cef8: 03 35 84 00  	ld	a0, 0x8(s0)
   1cefc: 83 25 04 08  	lw	a1, 0x80(s0)
   1cf00: 13 06 20 00  	addi	a2, zero, 0x2
   1cf04: 23 24 c4 06  	sw	a2, 0x68(s0)
   1cf08: 03 39 85 00  	ld	s2, 0x8(a0)
   1cf0c: 93 85 25 00  	addi	a1, a1, 0x2
   1cf10: 13 95 05 02  	slli	a0, a1, 0x20
   1cf14: 13 55 05 02  	srli	a0, a0, 0x20
   1cf18: 93 05 60 00  	addi	a1, zero, 0x6
   1cf1c: ef 60 91 7d  	jal	ra, 0x33ef4 <__muldi3>
   1cf20: 13 06 05 00  	addi	a2, a0, 0x0
   1cf24: 93 05 10 00  	addi	a1, zero, 0x1
   1cf28: 13 05 04 00  	addi	a0, s0, 0x0
   1cf2c: e7 00 09 00  	jalr	ra, 0x0(s2)
   1cf30: 23 b0 a4 04  	sd	a0, 0x40(s1)
   1cf34: 13 05 04 00  	addi	a0, s0, 0x0
   1cf38: 83 30 81 02  	ld	ra, 0x28(sp)
   1cf3c: 03 34 01 02  	ld	s0, 0x20(sp)
   1cf40: 83 34 81 01  	ld	s1, 0x18(sp)
   1cf44: 03 39 01 01  	ld	s2, 0x10(sp)
   1cf48: 83 39 81 00  	ld	s3, 0x8(sp)
   1cf4c: 13 01 01 03  	addi	sp, sp, 0x30
   1cf50: 6f 00 80 17  	jal	zero, 0x1d0c8 <init_error_limit>
   1cf54: 83 30 81 02  	ld	ra, 0x28(sp)
   1cf58: 03 34 01 02  	ld	s0, 0x20(sp)
   1cf5c: 83 34 81 01  	ld	s1, 0x18(sp)
   1cf60: 03 39 01 01  	ld	s2, 0x10(sp)
   1cf64: 83 39 81 00  	ld	s3, 0x8(sp)
   1cf68: 13 01 01 03  	addi	sp, sp, 0x30
   1cf6c: 67 80 00 00  	jalr	zero, 0x0(ra)

000000000001cf70 <start_pass_2_quant>:
   1cf70: ef 62 51 73  	jal	t0, 0x33ea4 <__riscv_save_5>
   1cf74: 13 04 05 00  	addi	s0, a0, 0x0
   1cf78: 03 39 05 26  	ld	s2, 0x260(a0)
   1cf7c: 03 25 85 06  	lw	a0, 0x68(a0)
   1cf80: 83 39 09 03  	ld	s3, 0x30(s2)
   1cf84: 63 0e 05 00  	beq	a0, zero, 0x1cfa0 <start_pass_2_quant+0x30>
   1cf88: 13 05 20 00  	addi	a0, zero, 0x2
   1cf8c: 23 24 a4 06  	sw	a0, 0x68(s0)
   1cf90: 63 9a 05 00  	bne	a1, zero, 0x1cfa4 <start_pass_2_quant+0x34>
   1cf94: 37 d5 01 00  	lui	a0, 0x1d
   1cf98: 13 05 05 6b  	addi	a0, a0, 0x6b0
   1cf9c: 6f 00 40 03  	jal	zero, 0x1cfd0 <start_pass_2_quant+0x60>
   1cfa0: 63 84 05 02  	beq	a1, zero, 0x1cfc8 <start_pass_2_quant+0x58>
   1cfa4: 37 d5 01 00  	lui	a0, 0x1d
   1cfa8: 13 05 45 17  	addi	a0, a0, 0x174
   1cfac: 23 34 a9 00  	sd	a0, 0x8(s2)
   1cfb0: 37 d5 01 00  	lui	a0, 0x1d
   1cfb4: 13 05 05 21  	addi	a0, a0, 0x210
   1cfb8: 23 38 a9 00  	sd	a0, 0x10(s2)
   1cfbc: 13 05 10 00  	addi	a0, zero, 0x1
   1cfc0: 23 2c a9 02  	sw	a0, 0x38(s2)
   1cfc4: 6f 00 c0 0c  	jal	zero, 0x1d090 <start_pass_2_quant+0x120>
   1cfc8: 37 e5 01 00  	lui	a0, 0x1e
   1cfcc: 13 05 85 a4  	addi	a0, a0, -0x5b8
   1cfd0: 23 34 a9 00  	sd	a0, 0x8(s2)
   1cfd4: 03 25 44 09  	lw	a0, 0x94(s0)
   1cfd8: b7 e5 01 00  	lui	a1, 0x1e
   1cfdc: 93 85 05 b1  	addi	a1, a1, -0x4f0
   1cfe0: 23 38 b9 00  	sd	a1, 0x10(s2)
   1cfe4: 63 5c a0 00  	bge	zero, a0, 0x1cffc <start_pass_2_quant+0x8c>
   1cfe8: 93 05 10 10  	addi	a1, zero, 0x101
   1cfec: 63 6a b5 02  	bltu	a0, a1, 0x1d020 <start_pass_2_quant+0xb0>
   1cff0: 93 05 00 10  	addi	a1, zero, 0x100
   1cff4: 13 05 80 03  	addi	a0, zero, 0x38
   1cff8: 6f 00 c0 00  	jal	zero, 0x1d004 <start_pass_2_quant+0x94>
   1cffc: 93 05 10 00  	addi	a1, zero, 0x1
   1d000: 13 05 70 03  	addi	a0, zero, 0x37
   1d004: 03 36 04 00  	ld	a2, 0x0(s0)
   1d008: 23 26 b6 02  	sw	a1, 0x2c(a2)
   1d00c: 83 35 04 00  	ld	a1, 0x0(s0)
   1d010: 83 b5 05 00  	ld	a1, 0x0(a1)
   1d014: 23 24 a6 02  	sw	a0, 0x28(a2)
   1d018: 13 05 04 00  	addi	a0, s0, 0x0
   1d01c: e7 80 05 00  	jalr	ra, 0x0(a1)
   1d020: 03 25 84 06  	lw	a0, 0x68(s0)
   1d024: 93 05 20 00  	addi	a1, zero, 0x2
   1d028: 63 14 b5 06  	bne	a0, a1, 0x1d090 <start_pass_2_quant+0x120>
   1d02c: 03 25 04 08  	lw	a0, 0x80(s0)
   1d030: 13 05 25 00  	addi	a0, a0, 0x2
   1d034: 13 15 05 02  	slli	a0, a0, 0x20
   1d038: 13 55 05 02  	srli	a0, a0, 0x20
   1d03c: 93 05 60 00  	addi	a1, zero, 0x6
   1d040: ef 60 51 6b  	jal	ra, 0x33ef4 <__muldi3>
   1d044: 83 35 09 04  	ld	a1, 0x40(s2)
   1d048: 93 04 05 00  	addi	s1, a0, 0x0
   1d04c: 63 92 05 02  	bne	a1, zero, 0x1d070 <start_pass_2_quant+0x100>
   1d050: 03 35 84 00  	ld	a0, 0x8(s0)
   1d054: 83 36 85 00  	ld	a3, 0x8(a0)
   1d058: 93 05 10 00  	addi	a1, zero, 0x1
   1d05c: 13 05 04 00  	addi	a0, s0, 0x0
   1d060: 13 86 04 00  	addi	a2, s1, 0x0
   1d064: e7 80 06 00  	jalr	ra, 0x0(a3)
   1d068: 93 05 05 00  	addi	a1, a0, 0x0
   1d06c: 23 30 a9 04  	sd	a0, 0x40(s2)
   1d070: 13 85 05 00  	addi	a0, a1, 0x0
   1d074: 93 85 04 00  	addi	a1, s1, 0x0
   1d078: ef 10 50 3a  	jal	ra, 0x1ec1c <jzero_far>
   1d07c: 03 35 09 05  	ld	a0, 0x50(s2)
   1d080: 63 16 05 00  	bne	a0, zero, 0x1d08c <start_pass_2_quant+0x11c>
   1d084: 13 05 04 00  	addi	a0, s0, 0x0
   1d088: ef 00 00 04  	jal	ra, 0x1d0c8 <init_error_limit>
   1d08c: 23 24 09 04  	sw	zero, 0x48(s2)
   1d090: 03 25 89 03  	lw	a0, 0x38(s2)
   1d094: 63 00 05 02  	beq	a0, zero, 0x1d0b4 <start_pass_2_quant+0x144>
   1d098: 13 84 09 10  	addi	s0, s3, 0x100
   1d09c: 03 b5 09 00  	ld	a0, 0x0(s3)
   1d0a0: b7 15 00 00  	lui	a1, 0x1
   1d0a4: ef 10 90 37  	jal	ra, 0x1ec1c <jzero_far>
   1d0a8: 93 89 89 00  	addi	s3, s3, 0x8
   1d0ac: e3 98 89 fe  	bne	s3, s0, 0x1d09c <start_pass_2_quant+0x12c>
   1d0b0: 23 2c 09 02  	sw	zero, 0x38(s2)
   1d0b4: 6f 60 b1 62  	jal	zero, 0x33ede <__riscv_restore_5>

000000000001d0b8 <new_color_map_2_quant>:
   1d0b8: 03 35 05 26  	ld	a0, 0x260(a0)
   1d0bc: 93 05 10 00  	addi	a1, zero, 0x1
   1d0c0: 23 2c b5 02  	sw	a1, 0x38(a0)
   1d0c4: 67 80 00 00  	jalr	zero, 0x0(ra)

000000000001d0c8 <init_error_limit>:
   1d0c8: ef 62 91 5f  	jal	t0, 0x33ec0 <__riscv_save_1>
   1d0cc: 83 35 85 00  	ld	a1, 0x8(a0)
   1d0d0: 03 34 05 26  	ld	s0, 0x260(a0)
   1d0d4: 83 b6 05 00  	ld	a3, 0x0(a1)
   1d0d8: 93 05 10 00  	addi	a1, zero, 0x1
   1d0dc: 13 06 c0 7f  	addi	a2, zero, 0x7fc
   1d0e0: e7 80 06 00  	jalr	ra, 0x0(a3)
   1d0e4: 13 06 00 00  	addi	a2, zero, 0x0
   1d0e8: 93 06 00 00  	addi	a3, zero, 0x0
   1d0ec: 13 07 c5 3f  	addi	a4, a0, 0x3fc
   1d0f0: 23 38 e4 04  	sd	a4, 0x50(s0)
   1d0f4: 93 05 c5 3b  	addi	a1, a0, 0x3bc
   1d0f8: 93 07 07 00  	addi	a5, a4, 0x0
   1d0fc: 23 20 d7 00  	sw	a3, 0x0(a4)
   1d100: 23 a0 c7 00  	sw	a2, 0x0(a5)
   1d104: 93 86 16 00  	addi	a3, a3, 0x1
   1d108: 93 87 c7 ff  	addi	a5, a5, -0x4
   1d10c: 13 07 47 00  	addi	a4, a4, 0x4
   1d110: 13 06 f6 ff  	addi	a2, a2, -0x1
   1d114: e3 94 b7 fe  	bne	a5, a1, 0x1d0fc <init_error_limit+0x34>
   1d118: 93 06 c5 43  	addi	a3, a0, 0x43c
   1d11c: 13 06 c5 4b  	addi	a2, a0, 0x4bc
   1d120: 13 07 00 01  	addi	a4, zero, 0x10
   1d124: 93 07 00 01  	addi	a5, zero, 0x10
   1d128: 23 a0 f6 00  	sw	a5, 0x0(a3)
   1d12c: 3b 08 f0 40  	subw	a6, zero, a5
   1d130: 23 a0 05 01  	sw	a6, 0x0(a1)
   1d134: 13 78 17 00  	andi	a6, a4, 0x1
   1d138: b3 87 07 01  	add	a5, a5, a6
   1d13c: 93 86 46 00  	addi	a3, a3, 0x4
   1d140: 93 85 c5 ff  	addi	a1, a1, -0x4
   1d144: 13 07 17 00  	addi	a4, a4, 0x1
   1d148: e3 90 c6 fe  	bne	a3, a2, 0x1d128 <init_error_limit+0x60>
   1d14c: 93 05 c5 33  	addi	a1, a0, 0x33c
   1d150: 13 05 c5 7f  	addi	a0, a0, 0x7fc
   1d154: 93 06 00 02  	addi	a3, zero, 0x20
   1d158: 13 07 00 fe  	addi	a4, zero, -0x20
   1d15c: 23 20 d6 00  	sw	a3, 0x0(a2)
   1d160: 23 a0 e5 00  	sw	a4, 0x0(a1)
   1d164: 13 06 46 00  	addi	a2, a2, 0x4
   1d168: 93 85 c5 ff  	addi	a1, a1, -0x4
   1d16c: e3 18 a6 fe  	bne	a2, a0, 0x1d15c <init_error_limit+0x94>
   1d170: 6f 60 b1 57  	jal	zero, 0x33eea <__riscv_restore_1>

000000000001d174 <prescan_quantize>:
   1d174: 63 5c d0 08  	bge	zero, a3, 0x1d20c <prescan_quantize+0x98>
   1d178: 03 37 05 26  	ld	a4, 0x260(a0)
   1d17c: 03 25 05 08  	lw	a0, 0x80(a0)
   1d180: 13 06 00 00  	addi	a2, zero, 0x0
   1d184: 03 37 07 03  	ld	a4, 0x30(a4)
   1d188: 93 07 f5 ff  	addi	a5, a0, -0x1
   1d18c: 93 97 07 02  	slli	a5, a5, 0x20
   1d190: 13 d8 07 02  	srli	a6, a5, 0x20
   1d194: 93 d7 f7 01  	srli	a5, a5, 0x1f
   1d198: b3 87 07 01  	add	a5, a5, a6
   1d19c: 93 87 37 00  	addi	a5, a5, 0x3
   1d1a0: 63 02 05 06  	beq	a0, zero, 0x1d204 <prescan_quantize+0x90>
   1d1a4: 13 18 36 00  	slli	a6, a2, 0x3
   1d1a8: 33 88 05 01  	add	a6, a1, a6
   1d1ac: 03 38 08 00  	ld	a6, 0x0(a6)
   1d1b0: b3 08 f8 00  	add	a7, a6, a5
   1d1b4: 83 42 08 00  	lbu	t0, 0x0(a6)
   1d1b8: 93 f2 82 0f  	andi	t0, t0, 0xf8
   1d1bc: 03 43 18 00  	lbu	t1, 0x1(a6)
   1d1c0: b3 02 57 00  	add	t0, a4, t0
   1d1c4: 83 43 28 00  	lbu	t2, 0x2(a6)
   1d1c8: 83 b2 02 00  	ld	t0, 0x0(t0)
   1d1cc: 13 53 23 00  	srli	t1, t1, 0x2
   1d1d0: 13 13 63 00  	slli	t1, t1, 0x6
   1d1d4: 93 d3 23 00  	srli	t2, t2, 0x2
   1d1d8: 93 f3 e3 03  	andi	t2, t2, 0x3e
   1d1dc: 33 03 73 00  	add	t1, t1, t2
   1d1e0: b3 82 62 00  	add	t0, t0, t1
   1d1e4: 03 93 02 00  	lh	t1, 0x0(t0)
   1d1e8: 93 03 13 00  	addi	t2, t1, 0x1
   1d1ec: 13 9e 03 03  	slli	t3, t2, 0x30
   1d1f0: 63 04 0e 00  	beq	t3, zero, 0x1d1f8 <prescan_quantize+0x84>
   1d1f4: 13 83 03 00  	addi	t1, t2, 0x0
   1d1f8: 13 08 38 00  	addi	a6, a6, 0x3
   1d1fc: 23 90 62 00  	sh	t1, 0x0(t0)
   1d200: e3 1a 18 fb  	bne	a6, a7, 0x1d1b4 <prescan_quantize+0x40>
   1d204: 13 06 16 00  	addi	a2, a2, 0x1
   1d208: e3 1c d6 f8  	bne	a2, a3, 0x1d1a0 <prescan_quantize+0x2c>
   1d20c: 67 80 00 00  	jalr	zero, 0x0(ra)

000000000001d210 <finish_pass1>:
   1d210: ef 62 f1 46  	jal	t0, 0x33e7e <__riscv_save_12>
   1d214: 13 01 01 f7  	addi	sp, sp, -0x90
   1d218: 93 04 05 00  	addi	s1, a0, 0x0
   1d21c: 03 36 05 26  	ld	a2, 0x260(a0)
   1d220: 03 35 85 00  	ld	a0, 0x8(a0)
   1d224: 83 35 06 02  	ld	a1, 0x20(a2)
   1d228: 23 34 c1 00  	sd	a2, 0x8(sp)
   1d22c: 03 29 86 02  	lw	s2, 0x28(a2)
   1d230: 03 34 05 00  	ld	s0, 0x0(a0)
   1d234: 23 bc b4 08  	sd	a1, 0x98(s1)
   1d238: 93 05 80 02  	addi	a1, zero, 0x28
   1d23c: 13 05 09 00  	addi	a0, s2, 0x0
   1d240: ef 60 51 4b  	jal	ra, 0x33ef4 <__muldi3>
   1d244: 13 06 05 00  	addi	a2, a0, 0x0
   1d248: 93 05 10 00  	addi	a1, zero, 0x1
   1d24c: 93 09 10 00  	addi	s3, zero, 0x1
   1d250: 13 85 04 00  	addi	a0, s1, 0x0
   1d254: e7 00 04 00  	jalr	ra, 0x0(s0)
   1d258: 93 0b 05 00  	addi	s7, a0, 0x0
   1d25c: 13 05 f0 01  	addi	a0, zero, 0x1f
   1d260: 13 15 05 02  	slli	a0, a0, 0x20
   1d264: 23 b0 ab 00  	sd	a0, 0x0(s7)
   1d268: 93 05 f0 03  	addi	a1, zero, 0x3f
   1d26c: 93 95 05 02  	slli	a1, a1, 0x20
   1d270: 23 b4 bb 00  	sd	a1, 0x8(s7)
   1d274: 23 b8 ab 00  	sd	a0, 0x10(s7)
   1d278: 23 30 91 02  	sd	s1, 0x20(sp)
   1d27c: 13 85 04 00  	addi	a0, s1, 0x0
   1d280: 93 85 0b 00  	addi	a1, s7, 0x0
   1d284: ef 00 10 09  	jal	ra, 0x1db14 <update_box>
   1d288: 23 3c 71 01  	sd	s7, 0x18(sp)
   1d28c: 63 d0 29 1d  	bge	s3, s2, 0x1d44c <finish_pass1+0x23c>
   1d290: 13 0a 00 00  	addi	s4, zero, 0x0
   1d294: 93 09 10 00  	addi	s3, zero, 0x1
   1d298: 93 05 80 02  	addi	a1, zero, 0x28
   1d29c: 13 05 0a 00  	addi	a0, s4, 0x0
   1d2a0: ef 60 51 45  	jal	ra, 0x33ef4 <__muldi3>
   1d2a4: 33 05 75 01  	add	a0, a0, s7
   1d2a8: 93 95 19 00  	slli	a1, s3, 0x1
   1d2ac: 13 05 85 02  	addi	a0, a0, 0x28
   1d2b0: 63 7c b9 02  	bgeu	s2, a1, 0x1d2e8 <finish_pass1+0xd8>
   1d2b4: 13 06 00 00  	addi	a2, zero, 0x0
   1d2b8: 93 06 00 00  	addi	a3, zero, 0x0
   1d2bc: 93 85 0b 00  	addi	a1, s7, 0x0
   1d2c0: 03 b7 85 01  	ld	a4, 0x18(a1)
   1d2c4: 93 8a 05 00  	addi	s5, a1, 0x0
   1d2c8: 63 c6 e6 00  	blt	a3, a4, 0x1d2d4 <finish_pass1+0xc4>
   1d2cc: 13 87 06 00  	addi	a4, a3, 0x0
   1d2d0: 93 0a 06 00  	addi	s5, a2, 0x0
   1d2d4: 93 85 85 02  	addi	a1, a1, 0x28
   1d2d8: 13 86 0a 00  	addi	a2, s5, 0x0
   1d2dc: 93 06 07 00  	addi	a3, a4, 0x0
   1d2e0: e3 90 a5 fe  	bne	a1, a0, 0x1d2c0 <finish_pass1+0xb0>
   1d2e4: 6f 00 c0 03  	jal	zero, 0x1d320 <finish_pass1+0x110>
   1d2e8: 93 0a 00 00  	addi	s5, zero, 0x0
   1d2ec: 13 06 00 00  	addi	a2, zero, 0x0
   1d2f0: 93 85 0b 00  	addi	a1, s7, 0x0
   1d2f4: 83 b6 05 02  	ld	a3, 0x20(a1)
   1d2f8: 63 50 d6 02  	bge	a2, a3, 0x1d318 <finish_pass1+0x108>
   1d2fc: 83 b7 85 01  	ld	a5, 0x18(a1)
   1d300: 13 87 05 00  	addi	a4, a1, 0x0
   1d304: 63 46 f0 00  	blt	zero, a5, 0x1d310 <finish_pass1+0x100>
   1d308: 93 06 06 00  	addi	a3, a2, 0x0
   1d30c: 13 87 0a 00  	addi	a4, s5, 0x0
   1d310: 13 86 06 00  	addi	a2, a3, 0x0
   1d314: 93 0a 07 00  	addi	s5, a4, 0x0
   1d318: 93 85 85 02  	addi	a1, a1, 0x28
   1d31c: e3 9c a5 fc  	bne	a1, a0, 0x1d2f4 <finish_pass1+0xe4>
   1d320: 63 8e 0a 10  	beq	s5, zero, 0x1d43c <finish_pass1+0x22c>
   1d324: 93 05 80 02  	addi	a1, zero, 0x28
   1d328: 13 85 09 00  	addi	a0, s3, 0x0
   1d32c: ef 60 91 3c  	jal	ra, 0x33ef4 <__muldi3>
   1d330: 03 a4 4a 00  	lw	s0, 0x4(s5)
   1d334: 83 a4 ca 00  	lw	s1, 0xc(s5)
   1d338: 33 8b ab 00  	add	s6, s7, a0
   1d33c: 23 22 8b 00  	sw	s0, 0x4(s6)
   1d340: 23 26 9b 00  	sw	s1, 0xc(s6)
   1d344: 83 ac 4a 01  	lw	s9, 0x14(s5)
   1d348: 03 ac 0a 00  	lw	s8, 0x0(s5)
   1d34c: 03 ad 8a 00  	lw	s10, 0x8(s5)
   1d350: 83 ad 0a 01  	lw	s11, 0x10(s5)
   1d354: 23 2a 9b 01  	sw	s9, 0x14(s6)
   1d358: 23 20 8b 01  	sw	s8, 0x0(s6)
   1d35c: 23 24 ab 01  	sw	s10, 0x8(s6)
   1d360: 23 28 bb 01  	sw	s11, 0x10(s6)
   1d364: 3b 05 84 41  	subw	a0, s0, s8
   1d368: 9b 1b 45 00  	slliw	s7, a0, 0x4
   1d36c: 33 85 a4 41  	sub	a0, s1, s10
   1d370: 93 05 c0 00  	addi	a1, zero, 0xc
   1d374: ef 60 11 38  	jal	ra, 0x33ef4 <__muldi3>
   1d378: 1b 05 05 00  	addiw	a0, a0, 0x0
   1d37c: 13 86 0b 00  	addi	a2, s7, 0x0
   1d380: 63 44 75 01  	blt	a0, s7, 0x1d388 <finish_pass1+0x178>
   1d384: 13 06 05 00  	addi	a2, a0, 0x0
   1d388: bb 85 bc 41  	subw	a1, s9, s11
   1d38c: 9b 96 35 00  	slliw	a3, a1, 0x3
   1d390: 93 05 20 00  	addi	a1, zero, 0x2
   1d394: 63 56 d6 00  	bge	a2, a3, 0x1d3a0 <finish_pass1+0x190>
   1d398: 13 05 20 00  	addi	a0, zero, 0x2
   1d39c: 6f 00 c0 00  	jal	zero, 0x1d3a8 <finish_pass1+0x198>
   1d3a0: 33 25 75 01  	slt	a0, a0, s7
   1d3a4: 13 45 15 00  	xori	a0, a0, 0x1
   1d3a8: 83 3b 81 01  	ld	s7, 0x18(sp)
   1d3ac: 63 04 b5 02  	beq	a0, a1, 0x1d3d4 <finish_pass1+0x1c4>
   1d3b0: 93 05 10 00  	addi	a1, zero, 0x1
   1d3b4: 63 1e b5 02  	bne	a0, a1, 0x1d3f0 <finish_pass1+0x1e0>
   1d3b8: 13 05 8b 00  	addi	a0, s6, 0x8
   1d3bc: b3 04 9d 00  	add	s1, s10, s1
   1d3c0: 9b d5 f4 01  	srliw	a1, s1, 0x1f
   1d3c4: b3 85 b4 00  	add	a1, s1, a1
   1d3c8: 9b d5 15 40  	sraiw	a1, a1, 0x1
   1d3cc: 23 a6 ba 00  	sw	a1, 0xc(s5)
   1d3d0: 6f 00 80 03  	jal	zero, 0x1d408 <finish_pass1+0x1f8>
   1d3d4: 13 05 0b 01  	addi	a0, s6, 0x10
   1d3d8: b3 8c 9d 01  	add	s9, s11, s9
   1d3dc: 9b d5 fc 01  	srliw	a1, s9, 0x1f
   1d3e0: b3 85 bc 00  	add	a1, s9, a1
   1d3e4: 9b d5 15 40  	sraiw	a1, a1, 0x1
   1d3e8: 23 aa ba 00  	sw	a1, 0x14(s5)
   1d3ec: 6f 00 c0 01  	jal	zero, 0x1d408 <finish_pass1+0x1f8>
   1d3f0: 33 04 8c 00  	add	s0, s8, s0
   1d3f4: 1b 55 f4 01  	srliw	a0, s0, 0x1f
   1d3f8: 33 05 a4 00  	add	a0, s0, a0
   1d3fc: 9b 55 15 40  	sraiw	a1, a0, 0x1
   1d400: 23 a2 ba 00  	sw	a1, 0x4(s5)
   1d404: 13 05 0b 00  	addi	a0, s6, 0x0
   1d408: 93 85 15 00  	addi	a1, a1, 0x1
   1d40c: 23 20 b5 00  	sw	a1, 0x0(a0)
   1d410: 03 34 01 02  	ld	s0, 0x20(sp)
   1d414: 13 05 04 00  	addi	a0, s0, 0x0
   1d418: 93 85 0a 00  	addi	a1, s5, 0x0
   1d41c: ef 00 80 6f  	jal	ra, 0x1db14 <update_box>
   1d420: 13 05 04 00  	addi	a0, s0, 0x0
   1d424: 93 05 0b 00  	addi	a1, s6, 0x0
   1d428: ef 00 c0 6e  	jal	ra, 0x1db14 <update_box>
   1d42c: 93 89 19 00  	addi	s3, s3, 0x1
   1d430: 13 0a 1a 00  	addi	s4, s4, 0x1
   1d434: e3 92 29 e7  	bne	s3, s2, 0x1d298 <finish_pass1+0x88>
   1d438: 6f 00 80 00  	jal	zero, 0x1d440 <finish_pass1+0x230>
   1d43c: 13 89 09 00  	addi	s2, s3, 0x0
   1d440: 1b 05 09 00  	addiw	a0, s2, 0x0
   1d444: 93 09 09 00  	addi	s3, s2, 0x0
   1d448: 63 56 a0 22  	bge	zero, a0, 0x1d674 <finish_pass1+0x464>
   1d44c: 13 09 00 00  	addi	s2, zero, 0x0
   1d450: 23 30 31 01  	sd	s3, 0x0(sp)
   1d454: 9b 89 09 00  	addiw	s3, s3, 0x0
   1d458: 23 38 31 01  	sd	s3, 0x10(sp)
   1d45c: 93 05 80 02  	addi	a1, zero, 0x28
   1d460: 13 05 09 00  	addi	a0, s2, 0x0
   1d464: ef 60 11 29  	jal	ra, 0x33ef4 <__muldi3>
   1d468: 33 85 ab 00  	add	a0, s7, a0
   1d46c: 03 2a 05 00  	lw	s4, 0x0(a0)
   1d470: 03 24 45 00  	lw	s0, 0x4(a0)
   1d474: 23 34 21 03  	sd	s2, 0x28(sp)
   1d478: 63 5c 44 01  	bge	s0, s4, 0x1d490 <finish_pass1+0x280>
   1d47c: 93 09 00 00  	addi	s3, zero, 0x0
   1d480: 93 04 00 00  	addi	s1, zero, 0x0
   1d484: 13 0d 00 00  	addi	s10, zero, 0x0
   1d488: 13 0c 00 00  	addi	s8, zero, 0x0
   1d48c: 6f 00 40 17  	jal	zero, 0x1d600 <finish_pass1+0x3f0>
   1d490: 03 35 01 02  	ld	a0, 0x20(sp)
   1d494: 03 35 05 26  	ld	a0, 0x260(a0)
   1d498: 03 35 05 03  	ld	a0, 0x30(a0)
   1d49c: 23 38 a1 02  	sd	a0, 0x30(sp)
   1d4a0: 93 05 80 02  	addi	a1, zero, 0x28
   1d4a4: 13 05 09 00  	addi	a0, s2, 0x0
   1d4a8: ef 60 d1 24  	jal	ra, 0x33ef4 <__muldi3>
   1d4ac: 13 0c 00 00  	addi	s8, zero, 0x0
   1d4b0: 13 0d 00 00  	addi	s10, zero, 0x0
   1d4b4: 93 04 00 00  	addi	s1, zero, 0x0
   1d4b8: 93 09 00 00  	addi	s3, zero, 0x0
   1d4bc: 33 85 ab 00  	add	a0, s7, a0
   1d4c0: 83 25 c5 00  	lw	a1, 0xc(a0)
   1d4c4: 03 26 45 01  	lw	a2, 0x14(a0)
   1d4c8: 03 29 85 00  	lw	s2, 0x8(a0)
   1d4cc: 83 26 05 01  	lw	a3, 0x10(a0)
   1d4d0: 23 34 b1 04  	sd	a1, 0x48(sp)
   1d4d4: 9b 85 15 00  	addiw	a1, a1, 0x1
   1d4d8: 23 3c b1 06  	sd	a1, 0x78(sp)
   1d4dc: 1b 04 14 00  	addiw	s0, s0, 0x1
   1d4e0: 23 3c 81 02  	sd	s0, 0x38(sp)
   1d4e4: 13 15 69 00  	slli	a0, s2, 0x6
   1d4e8: 93 95 16 00  	slli	a1, a3, 0x1
   1d4ec: 23 34 b1 06  	sd	a1, 0x68(sp)
   1d4f0: 33 05 b5 00  	add	a0, a0, a1
   1d4f4: 23 34 c1 08  	sd	a2, 0x88(sp)
   1d4f8: bb 05 d6 40  	subw	a1, a2, a3
   1d4fc: 93 95 05 02  	slli	a1, a1, 0x20
   1d500: 93 d5 f5 01  	srli	a1, a1, 0x1f
   1d504: 33 05 b5 00  	add	a0, a0, a1
   1d508: 23 30 d1 08  	sd	a3, 0x80(sp)
   1d50c: 93 95 36 00  	slli	a1, a3, 0x3
   1d510: 9b 85 45 00  	addiw	a1, a1, 0x4
   1d514: 23 30 b1 06  	sd	a1, 0x60(sp)
   1d518: 13 05 25 00  	addi	a0, a0, 0x2
   1d51c: 23 3c a1 04  	sd	a0, 0x58(sp)
   1d520: 23 30 21 05  	sd	s2, 0x40(sp)
   1d524: 03 35 81 04  	ld	a0, 0x48(sp)
   1d528: 23 38 41 05  	sd	s4, 0x50(sp)
   1d52c: 63 4e 25 0b  	blt	a0, s2, 0x1d5e8 <finish_pass1+0x3d8>
   1d530: 13 15 3a 00  	slli	a0, s4, 0x3
   1d534: 83 35 01 03  	ld	a1, 0x30(sp)
   1d538: 33 85 a5 00  	add	a0, a1, a0
   1d53c: 03 35 05 00  	ld	a0, 0x0(a0)
   1d540: 23 38 a1 06  	sd	a0, 0x70(sp)
   1d544: 93 0c 00 00  	addi	s9, zero, 0x0
   1d548: 1b 1a 3a 00  	slliw	s4, s4, 0x3
   1d54c: 13 0a 4a 00  	addi	s4, s4, 0x4
   1d550: 03 35 81 08  	ld	a0, 0x88(sp)
   1d554: 83 35 01 08  	ld	a1, 0x80(sp)
   1d558: 63 4e b5 06  	blt	a0, a1, 0x1d5d4 <finish_pass1+0x3c4>
   1d55c: 13 95 6c 00  	slli	a0, s9, 0x6
   1d560: 83 35 81 05  	ld	a1, 0x58(sp)
   1d564: 33 85 a5 00  	add	a0, a1, a0
   1d568: 83 35 01 07  	ld	a1, 0x70(sp)
   1d56c: b3 8d a5 00  	add	s11, a1, a0
   1d570: 13 15 69 00  	slli	a0, s2, 0x6
   1d574: 33 85 a5 00  	add	a0, a1, a0
   1d578: 03 34 81 06  	ld	s0, 0x68(sp)
   1d57c: 33 04 85 00  	add	s0, a0, s0
   1d580: 9b 1a 29 00  	slliw	s5, s2, 0x2
   1d584: 93 8a 2a 00  	addi	s5, s5, 0x2
   1d588: 03 3b 01 06  	ld	s6, 0x60(sp)
   1d58c: 83 5b 04 00  	lhu	s7, 0x0(s0)
   1d590: 63 8c 0b 02  	beq	s7, zero, 0x1d5c8 <finish_pass1+0x3b8>
   1d594: b3 89 79 01  	add	s3, s3, s7
   1d598: 13 85 0b 00  	addi	a0, s7, 0x0
   1d59c: 93 05 0a 00  	addi	a1, s4, 0x0
   1d5a0: ef 60 51 15  	jal	ra, 0x33ef4 <__muldi3>
   1d5a4: b3 04 95 00  	add	s1, a0, s1
   1d5a8: 13 85 0b 00  	addi	a0, s7, 0x0
   1d5ac: 93 85 0a 00  	addi	a1, s5, 0x0
   1d5b0: ef 60 51 14  	jal	ra, 0x33ef4 <__muldi3>
   1d5b4: 33 0d a5 01  	add	s10, a0, s10
   1d5b8: 13 85 0b 00  	addi	a0, s7, 0x0
   1d5bc: 93 05 0b 00  	addi	a1, s6, 0x0
   1d5c0: ef 60 51 13  	jal	ra, 0x33ef4 <__muldi3>
   1d5c4: 33 0c 85 01  	add	s8, a0, s8
   1d5c8: 13 04 24 00  	addi	s0, s0, 0x2
   1d5cc: 1b 0b 8b 00  	addiw	s6, s6, 0x8
   1d5d0: e3 1e b4 fb  	bne	s0, s11, 0x1d58c <finish_pass1+0x37c>
   1d5d4: 1b 05 19 00  	addiw	a0, s2, 0x1
   1d5d8: 13 09 19 00  	addi	s2, s2, 0x1
   1d5dc: 93 8c 1c 00  	addi	s9, s9, 0x1
   1d5e0: 83 35 81 07  	ld	a1, 0x78(sp)
   1d5e4: e3 96 a5 f6  	bne	a1, a0, 0x1d550 <finish_pass1+0x340>
   1d5e8: 83 35 01 05  	ld	a1, 0x50(sp)
   1d5ec: 1b 85 15 00  	addiw	a0, a1, 0x1
   1d5f0: 13 8a 15 00  	addi	s4, a1, 0x1
   1d5f4: 03 39 01 04  	ld	s2, 0x40(sp)
   1d5f8: 83 35 81 03  	ld	a1, 0x38(sp)
   1d5fc: e3 94 a5 f2  	bne	a1, a0, 0x1d524 <finish_pass1+0x314>
   1d600: 13 d4 19 40  	srai	s0, s3, 0x1
   1d604: 33 85 84 00  	add	a0, s1, s0
   1d608: 93 85 09 00  	addi	a1, s3, 0x0
   1d60c: ef 60 91 12  	jal	ra, 0x33f34 <__divdi3>
   1d610: 83 34 01 02  	ld	s1, 0x20(sp)
   1d614: 83 b5 84 09  	ld	a1, 0x98(s1)
   1d618: 83 b5 05 00  	ld	a1, 0x0(a1)
   1d61c: 03 39 81 02  	ld	s2, 0x28(sp)
   1d620: b3 85 25 01  	add	a1, a1, s2
   1d624: 23 80 a5 00  	sb	a0, 0x0(a1)
   1d628: 33 05 8d 00  	add	a0, s10, s0
   1d62c: 93 85 09 00  	addi	a1, s3, 0x0
   1d630: ef 60 51 10  	jal	ra, 0x33f34 <__divdi3>
   1d634: 83 b5 84 09  	ld	a1, 0x98(s1)
   1d638: 83 b5 85 00  	ld	a1, 0x8(a1)
   1d63c: b3 85 25 01  	add	a1, a1, s2
   1d640: 23 80 a5 00  	sb	a0, 0x0(a1)
   1d644: 33 05 8c 00  	add	a0, s8, s0
   1d648: 93 85 09 00  	addi	a1, s3, 0x0
   1d64c: ef 60 91 0e  	jal	ra, 0x33f34 <__divdi3>
   1d650: 83 b5 84 09  	ld	a1, 0x98(s1)
   1d654: 83 b5 05 01  	ld	a1, 0x10(a1)
   1d658: b3 85 25 01  	add	a1, a1, s2
   1d65c: 13 09 19 00  	addi	s2, s2, 0x1
   1d660: 23 80 a5 00  	sb	a0, 0x0(a1)
   1d664: 83 3b 81 01  	ld	s7, 0x18(sp)
   1d668: 03 35 01 01  	ld	a0, 0x10(sp)
   1d66c: e3 18 a9 de  	bne	s2, a0, 0x1d45c <finish_pass1+0x24c>
   1d670: 83 39 01 00  	ld	s3, 0x0(sp)
   1d674: 03 35 01 02  	ld	a0, 0x20(sp)
   1d678: 83 36 05 00  	ld	a3, 0x0(a0)
   1d67c: 23 2a 35 09  	sw	s3, 0x94(a0)
   1d680: 23 a6 36 03  	sw	s3, 0x2c(a3)
   1d684: 83 35 05 00  	ld	a1, 0x0(a0)
   1d688: 03 b6 85 00  	ld	a2, 0x8(a1)
   1d68c: 93 05 f0 05  	addi	a1, zero, 0x5f
   1d690: 23 a4 b6 02  	sw	a1, 0x28(a3)
   1d694: 93 05 10 00  	addi	a1, zero, 0x1
   1d698: 13 04 10 00  	addi	s0, zero, 0x1
   1d69c: e7 00 06 00  	jalr	ra, 0x0(a2)
   1d6a0: 03 35 81 00  	ld	a0, 0x8(sp)
   1d6a4: 23 2c 85 02  	sw	s0, 0x38(a0)
   1d6a8: 13 01 01 09  	addi	sp, sp, 0x90
   1d6ac: 6f 60 d1 01  	jal	zero, 0x33ec8 <__riscv_restore_12>

000000000001d6b0 <pass2_fs_dither>:
   1d6b0: ef 62 e1 7c  	jal	t0, 0x33e7e <__riscv_save_12>
   1d6b4: 13 01 01 f4  	addi	sp, sp, -0xc0
   1d6b8: 23 3c c1 02  	sd	a2, 0x38(sp)
   1d6bc: 23 38 b1 02  	sd	a1, 0x30(sp)
   1d6c0: 23 38 a1 04  	sd	a0, 0x50(sp)
   1d6c4: 23 30 d1 04  	sd	a3, 0x40(sp)
   1d6c8: 63 5c d0 36  	bge	zero, a3, 0x1da40 <pass2_fs_dither+0x390>
   1d6cc: 83 35 01 05  	ld	a1, 0x50(sp)
   1d6d0: 03 b6 05 26  	ld	a2, 0x260(a1)
   1d6d4: 93 06 00 00  	addi	a3, zero, 0x0
   1d6d8: 83 38 06 03  	ld	a7, 0x30(a2)
   1d6dc: 03 b5 85 09  	ld	a0, 0x98(a1)
   1d6e0: 03 a7 05 08  	lw	a4, 0x80(a1)
   1d6e4: 83 b2 85 19  	ld	t0, 0x198(a1)
   1d6e8: 03 33 06 05  	ld	t1, 0x50(a2)
   1d6ec: 83 33 05 00  	ld	t2, 0x0(a0)
   1d6f0: 03 3e 85 00  	ld	t3, 0x8(a0)
   1d6f4: 83 3e 05 01  	ld	t4, 0x10(a0)
   1d6f8: 13 05 f7 ff  	addi	a0, a4, -0x1
   1d6fc: 93 15 15 00  	slli	a1, a0, 0x1
   1d700: b3 85 a5 00  	add	a1, a1, a0
   1d704: 93 95 05 02  	slli	a1, a1, 0x20
   1d708: 93 d5 05 02  	srli	a1, a1, 0x20
   1d70c: 23 3c b1 00  	sd	a1, 0x18(sp)
   1d710: 13 15 05 02  	slli	a0, a0, 0x20
   1d714: 93 55 05 02  	srli	a1, a0, 0x20
   1d718: 13 15 17 00  	slli	a0, a4, 0x1
   1d71c: 23 30 e1 02  	sd	a4, 0x20(sp)
   1d720: 33 05 e5 00  	add	a0, a0, a4
   1d724: 13 05 35 00  	addi	a0, a0, 0x3
   1d728: 13 15 05 02  	slli	a0, a0, 0x20
   1d72c: 13 55 05 02  	srli	a0, a0, 0x20
   1d730: 23 38 b1 00  	sd	a1, 0x10(sp)
   1d734: 93 85 15 00  	addi	a1, a1, 0x1
   1d738: 23 34 b1 00  	sd	a1, 0x8(sp)
   1d73c: 13 15 15 00  	slli	a0, a0, 0x1
   1d740: 23 30 a1 00  	sd	a0, 0x0(sp)
   1d744: 23 34 c1 02  	sd	a2, 0x28(sp)
   1d748: 23 30 11 09  	sd	a7, 0x80(sp)
   1d74c: 23 3c 51 06  	sd	t0, 0x78(sp)
   1d750: 23 38 61 06  	sd	t1, 0x70(sp)
   1d754: 23 34 71 06  	sd	t2, 0x68(sp)
   1d758: 23 30 c1 07  	sd	t3, 0x60(sp)
   1d75c: 23 3c d1 05  	sd	t4, 0x58(sp)
   1d760: 13 95 36 00  	slli	a0, a3, 0x3
   1d764: 83 35 01 03  	ld	a1, 0x30(sp)
   1d768: b3 85 a5 00  	add	a1, a1, a0
   1d76c: 83 b9 05 00  	ld	s3, 0x0(a1)
   1d770: 83 35 81 03  	ld	a1, 0x38(sp)
   1d774: 33 85 a5 00  	add	a0, a1, a0
   1d778: 83 25 86 04  	lw	a1, 0x48(a2)
   1d77c: 83 3a 05 00  	ld	s5, 0x0(a0)
   1d780: 63 88 05 02  	beq	a1, zero, 0x1d7b0 <pass2_fs_dither+0x100>
   1d784: 03 34 06 04  	ld	s0, 0x40(a2)
   1d788: 13 05 00 00  	addi	a0, zero, 0x0
   1d78c: 83 35 81 01  	ld	a1, 0x18(sp)
   1d790: b3 89 b9 00  	add	s3, s3, a1
   1d794: 83 35 01 01  	ld	a1, 0x10(sp)
   1d798: b3 8a ba 00  	add	s5, s5, a1
   1d79c: 83 35 01 00  	ld	a1, 0x0(sp)
   1d7a0: 33 04 b4 00  	add	s0, s0, a1
   1d7a4: 13 07 d0 ff  	addi	a4, zero, -0x3
   1d7a8: 93 05 f0 ff  	addi	a1, zero, -0x1
   1d7ac: 6f 00 40 01  	jal	zero, 0x1d7c0 <pass2_fs_dither+0x110>
   1d7b0: 03 34 06 04  	ld	s0, 0x40(a2)
   1d7b4: 13 07 30 00  	addi	a4, zero, 0x3
   1d7b8: 13 05 10 00  	addi	a0, zero, 0x1
   1d7bc: 93 05 10 00  	addi	a1, zero, 0x1
   1d7c0: 23 34 d1 04  	sd	a3, 0x48(sp)
   1d7c4: 23 24 a6 04  	sw	a0, 0x48(a2)
   1d7c8: 03 35 01 02  	ld	a0, 0x20(sp)
   1d7cc: 63 04 05 24  	beq	a0, zero, 0x1da14 <pass2_fs_dither+0x364>
   1d7d0: 93 14 17 00  	slli	s1, a4, 0x1
   1d7d4: 93 89 19 00  	addi	s3, s3, 0x1
   1d7d8: 13 85 24 00  	addi	a0, s1, 0x2
   1d7dc: 23 3c a1 0a  	sd	a0, 0xb8(sp)
   1d7e0: 13 85 44 00  	addi	a0, s1, 0x4
   1d7e4: 23 38 a1 0a  	sd	a0, 0xb0(sp)
   1d7e8: 03 35 81 00  	ld	a0, 0x8(sp)
   1d7ec: 23 38 e1 08  	sd	a4, 0x90(sp)
   1d7f0: 23 34 b1 08  	sd	a1, 0x88(sp)
   1d7f4: ef 60 01 70  	jal	ra, 0x33ef4 <__muldi3>
   1d7f8: 93 80 04 00  	addi	ra, s1, 0x0
   1d7fc: 83 3f 81 08  	ld	t6, 0x88(sp)
   1d800: 03 3f 01 09  	ld	t5, 0x90(sp)
   1d804: 83 3e 81 05  	ld	t4, 0x58(sp)
   1d808: 03 3e 01 06  	ld	t3, 0x60(sp)
   1d80c: 83 33 81 06  	ld	t2, 0x68(sp)
   1d810: 03 33 01 07  	ld	t1, 0x70(sp)
   1d814: 83 32 81 07  	ld	t0, 0x78(sp)
   1d818: 83 38 01 08  	ld	a7, 0x80(sp)
   1d81c: 13 06 00 00  	addi	a2, zero, 0x0
   1d820: 93 05 00 00  	addi	a1, zero, 0x0
   1d824: 93 06 00 00  	addi	a3, zero, 0x0
   1d828: 13 0b 00 00  	addi	s6, zero, 0x0
   1d82c: 13 0a 00 00  	addi	s4, zero, 0x0
   1d830: 13 0c 00 00  	addi	s8, zero, 0x0
   1d834: 93 0b 00 00  	addi	s7, zero, 0x0
   1d838: 13 09 00 00  	addi	s2, zero, 0x0
   1d83c: 13 08 00 00  	addi	a6, zero, 0x0
   1d840: 33 85 aa 00  	add	a0, s5, a0
   1d844: 23 34 a1 0a  	sd	a0, 0xa8(sp)
   1d848: 03 35 01 0b  	ld	a0, 0xb0(sp)
   1d84c: 33 05 a4 00  	add	a0, s0, a0
   1d850: 03 17 c5 ff  	lh	a4, -0x4(a0)
   1d854: 33 06 e6 00  	add	a2, a2, a4
   1d858: 03 37 81 0b  	ld	a4, 0xb8(sp)
   1d85c: 33 07 e4 00  	add	a4, s0, a4
   1d860: 03 17 07 00  	lh	a4, 0x0(a4)
   1d864: 13 06 86 00  	addi	a2, a2, 0x8
   1d868: 1b 56 46 40  	sraiw	a2, a2, 0x4
   1d86c: 03 15 05 00  	lh	a0, 0x0(a0)
   1d870: b3 85 e5 00  	add	a1, a1, a4
   1d874: 93 85 85 00  	addi	a1, a1, 0x8
   1d878: 9b d5 45 40  	sraiw	a1, a1, 0x4
   1d87c: 33 85 a6 00  	add	a0, a3, a0
   1d880: 13 05 85 00  	addi	a0, a0, 0x8
   1d884: 1b 55 45 40  	sraiw	a0, a0, 0x4
   1d888: 13 16 26 00  	slli	a2, a2, 0x2
   1d88c: 33 06 c3 00  	add	a2, t1, a2
   1d890: 03 26 06 00  	lw	a2, 0x0(a2)
   1d894: 93 95 25 00  	slli	a1, a1, 0x2
   1d898: b3 05 b3 00  	add	a1, t1, a1
   1d89c: 83 a5 05 00  	lw	a1, 0x0(a1)
   1d8a0: 13 15 25 00  	slli	a0, a0, 0x2
   1d8a4: 33 05 a3 00  	add	a0, t1, a0
   1d8a8: 03 25 05 00  	lw	a0, 0x0(a0)
   1d8ac: 83 c6 f9 ff  	lbu	a3, -0x1(s3)
   1d8b0: 03 c7 09 00  	lbu	a4, 0x0(s3)
   1d8b4: 83 c7 19 00  	lbu	a5, 0x1(s3)
   1d8b8: 3b 06 d6 00  	addw	a2, a2, a3
   1d8bc: bb 85 e5 00  	addw	a1, a1, a4
   1d8c0: 3b 05 f5 00  	addw	a0, a0, a5
   1d8c4: 33 86 c2 00  	add	a2, t0, a2
   1d8c8: 83 4c 06 00  	lbu	s9, 0x0(a2)
   1d8cc: b3 85 b2 00  	add	a1, t0, a1
   1d8d0: 03 cd 05 00  	lbu	s10, 0x0(a1)
   1d8d4: 33 85 a2 00  	add	a0, t0, a0
   1d8d8: 83 4d 05 00  	lbu	s11, 0x0(a0)
   1d8dc: 13 f5 8c 0f  	andi	a0, s9, 0xf8
   1d8e0: 33 85 a8 00  	add	a0, a7, a0
   1d8e4: 83 34 05 00  	ld	s1, 0x0(a0)
   1d8e8: 13 56 2d 00  	srli	a2, s10, 0x2
   1d8ec: 93 d6 3d 00  	srli	a3, s11, 0x3
   1d8f0: 13 15 66 00  	slli	a0, a2, 0x6
   1d8f4: 93 95 16 00  	slli	a1, a3, 0x1
   1d8f8: 33 05 b5 00  	add	a0, a0, a1
   1d8fc: b3 84 a4 00  	add	s1, s1, a0
   1d900: 03 d5 04 00  	lhu	a0, 0x0(s1)
   1d904: 63 1a 05 04  	bne	a0, zero, 0x1d958 <pass2_fs_dither+0x2a8>
   1d908: 93 d5 3c 00  	srli	a1, s9, 0x3
   1d90c: 03 35 01 05  	ld	a0, 0x50(sp)
   1d910: 23 30 21 0b  	sd	s2, 0xa0(sp)
   1d914: 13 89 00 00  	addi	s2, ra, 0x0
   1d918: 23 3c 71 09  	sd	s7, 0x98(sp)
   1d91c: 93 0b 08 00  	addi	s7, a6, 0x0
   1d920: ef 00 80 63  	jal	ra, 0x1df58 <fill_inverse_cmap>
   1d924: 13 88 0b 00  	addi	a6, s7, 0x0
   1d928: 83 3b 81 09  	ld	s7, 0x98(sp)
   1d92c: 93 00 09 00  	addi	ra, s2, 0x0
   1d930: 03 39 01 0a  	ld	s2, 0xa0(sp)
   1d934: 83 3f 81 08  	ld	t6, 0x88(sp)
   1d938: 03 3f 01 09  	ld	t5, 0x90(sp)
   1d93c: 83 3e 81 05  	ld	t4, 0x58(sp)
   1d940: 03 3e 01 06  	ld	t3, 0x60(sp)
   1d944: 83 33 81 06  	ld	t2, 0x68(sp)
   1d948: 03 33 01 07  	ld	t1, 0x70(sp)
   1d94c: 83 32 81 07  	ld	t0, 0x78(sp)
   1d950: 83 38 01 08  	ld	a7, 0x80(sp)
   1d954: 03 d5 04 00  	lhu	a0, 0x0(s1)
   1d958: 13 05 f5 ff  	addi	a0, a0, -0x1
   1d95c: 23 80 aa 00  	sb	a0, 0x0(s5)
   1d960: b3 85 a3 00  	add	a1, t2, a0
   1d964: 83 c5 05 00  	lbu	a1, 0x0(a1)
   1d968: 33 06 ae 00  	add	a2, t3, a0
   1d96c: 03 46 06 00  	lbu	a2, 0x0(a2)
   1d970: 33 85 ae 00  	add	a0, t4, a0
   1d974: 03 45 05 00  	lbu	a0, 0x0(a0)
   1d978: 33 87 bc 40  	sub	a4, s9, a1
   1d97c: b3 07 cd 40  	sub	a5, s10, a2
   1d980: 33 85 ad 40  	sub	a0, s11, a0
   1d984: 93 15 17 00  	slli	a1, a4, 0x1
   1d988: b3 0b 77 01  	add	s7, a4, s7
   1d98c: b3 85 75 01  	add	a1, a1, s7
   1d990: 23 10 b4 00  	sh	a1, 0x0(s0)
   1d994: 93 1b 27 00  	slli	s7, a4, 0x2
   1d998: 33 0b 67 01  	add	s6, a4, s6
   1d99c: b3 8b 6b 01  	add	s7, s7, s6
   1d9a0: 13 16 37 00  	slli	a2, a4, 0x3
   1d9a4: 33 06 e6 40  	sub	a2, a2, a4
   1d9a8: 93 95 17 00  	slli	a1, a5, 0x1
   1d9ac: 33 89 27 01  	add	s2, a5, s2
   1d9b0: b3 85 25 01  	add	a1, a1, s2
   1d9b4: 23 11 b4 00  	sh	a1, 0x2(s0)
   1d9b8: 13 99 27 00  	slli	s2, a5, 0x2
   1d9bc: 33 8a 47 01  	add	s4, a5, s4
   1d9c0: 33 09 49 01  	add	s2, s2, s4
   1d9c4: 93 95 37 00  	slli	a1, a5, 0x3
   1d9c8: b3 85 f5 40  	sub	a1, a1, a5
   1d9cc: 93 16 15 00  	slli	a3, a0, 0x1
   1d9d0: 33 08 05 01  	add	a6, a0, a6
   1d9d4: b3 86 06 01  	add	a3, a3, a6
   1d9d8: 23 12 d4 00  	sh	a3, 0x4(s0)
   1d9dc: 93 16 25 00  	slli	a3, a0, 0x2
   1d9e0: 33 0c 85 01  	add	s8, a0, s8
   1d9e4: 33 88 86 01  	add	a6, a3, s8
   1d9e8: 93 16 35 00  	slli	a3, a0, 0x3
   1d9ec: b3 86 a6 40  	sub	a3, a3, a0
   1d9f0: b3 8a fa 01  	add	s5, s5, t6
   1d9f4: 33 04 14 00  	add	s0, s0, ra
   1d9f8: b3 89 e9 01  	add	s3, s3, t5
   1d9fc: 13 0b 07 00  	addi	s6, a4, 0x0
   1da00: 13 8a 07 00  	addi	s4, a5, 0x0
   1da04: 13 0c 05 00  	addi	s8, a0, 0x0
   1da08: 03 35 81 0a  	ld	a0, 0xa8(sp)
   1da0c: e3 9e aa e2  	bne	s5, a0, 0x1d848 <pass2_fs_dither+0x198>
   1da10: 6f 00 00 01  	jal	zero, 0x1da20 <pass2_fs_dither+0x370>
   1da14: 13 08 00 00  	addi	a6, zero, 0x0
   1da18: 13 09 00 00  	addi	s2, zero, 0x0
   1da1c: 93 0b 00 00  	addi	s7, zero, 0x0
   1da20: 23 10 74 01  	sh	s7, 0x0(s0)
   1da24: 23 11 24 01  	sh	s2, 0x2(s0)
   1da28: 83 36 81 04  	ld	a3, 0x48(sp)
   1da2c: 93 86 16 00  	addi	a3, a3, 0x1
   1da30: 23 12 04 01  	sh	a6, 0x4(s0)
   1da34: 03 35 01 04  	ld	a0, 0x40(sp)
   1da38: 03 36 81 02  	ld	a2, 0x28(sp)
   1da3c: e3 92 a6 d2  	bne	a3, a0, 0x1d760 <pass2_fs_dither+0xb0>
   1da40: 13 01 01 0c  	addi	sp, sp, 0xc0
   1da44: 6f 60 41 48  	jal	zero, 0x33ec8 <__riscv_restore_12>

000000000001da48 <pass2_no_dither>:
   1da48: 63 52 d0 0c  	bge	zero, a3, 0x1db0c <pass2_no_dither+0xc4>
   1da4c: ef 62 21 43  	jal	t0, 0x33e7e <__riscv_save_12>
   1da50: 13 84 06 00  	addi	s0, a3, 0x0
   1da54: 93 04 06 00  	addi	s1, a2, 0x0
   1da58: 13 89 05 00  	addi	s2, a1, 0x0
   1da5c: 93 09 05 00  	addi	s3, a0, 0x0
   1da60: 03 35 05 26  	ld	a0, 0x260(a0)
   1da64: 03 aa 09 08  	lw	s4, 0x80(s3)
   1da68: 93 0a 00 00  	addi	s5, zero, 0x0
   1da6c: 03 3b 05 03  	ld	s6, 0x30(a0)
   1da70: 13 05 fa ff  	addi	a0, s4, -0x1
   1da74: 13 15 05 02  	slli	a0, a0, 0x20
   1da78: 13 55 05 02  	srli	a0, a0, 0x20
   1da7c: 93 0b 15 00  	addi	s7, a0, 0x1
   1da80: 63 0e 0a 06  	beq	s4, zero, 0x1dafc <pass2_no_dither+0xb4>
   1da84: 13 95 3a 00  	slli	a0, s5, 0x3
   1da88: b3 85 a4 00  	add	a1, s1, a0
   1da8c: 03 bd 05 00  	ld	s10, 0x0(a1)
   1da90: 33 05 a9 00  	add	a0, s2, a0
   1da94: 03 3c 05 00  	ld	s8, 0x0(a0)
   1da98: b3 0c 7d 01  	add	s9, s10, s7
   1da9c: 03 46 1c 00  	lbu	a2, 0x1(s8)
   1daa0: 83 46 2c 00  	lbu	a3, 0x2(s8)
   1daa4: 83 45 0c 00  	lbu	a1, 0x0(s8)
   1daa8: 13 56 26 00  	srli	a2, a2, 0x2
   1daac: 93 d6 36 00  	srli	a3, a3, 0x3
   1dab0: 13 f5 85 0f  	andi	a0, a1, 0xf8
   1dab4: 33 05 ab 00  	add	a0, s6, a0
   1dab8: 83 3d 05 00  	ld	s11, 0x0(a0)
   1dabc: 13 15 66 00  	slli	a0, a2, 0x6
   1dac0: 13 97 16 00  	slli	a4, a3, 0x1
   1dac4: 33 05 e5 00  	add	a0, a0, a4
   1dac8: b3 8d ad 00  	add	s11, s11, a0
   1dacc: 03 d5 0d 00  	lhu	a0, 0x0(s11)
   1dad0: 63 1a 05 00  	bne	a0, zero, 0x1dae4 <pass2_no_dither+0x9c>
   1dad4: 93 d5 35 00  	srli	a1, a1, 0x3
   1dad8: 13 85 09 00  	addi	a0, s3, 0x0
   1dadc: ef 00 c0 47  	jal	ra, 0x1df58 <fill_inverse_cmap>
   1dae0: 03 c5 0d 00  	lbu	a0, 0x0(s11)
   1dae4: 13 05 f5 ff  	addi	a0, a0, -0x1
   1dae8: 93 05 1d 00  	addi	a1, s10, 0x1
   1daec: 23 00 ad 00  	sb	a0, 0x0(s10)
   1daf0: 13 0c 3c 00  	addi	s8, s8, 0x3
   1daf4: 13 8d 05 00  	addi	s10, a1, 0x0
   1daf8: e3 92 95 fb  	bne	a1, s9, 0x1da9c <pass2_no_dither+0x54>
   1dafc: 93 8a 1a 00  	addi	s5, s5, 0x1
   1db00: e3 90 8a f8  	bne	s5, s0, 0x1da80 <pass2_no_dither+0x38>
   1db04: 6f 60 41 3c  	jal	zero, 0x33ec8 <__riscv_restore_12>
   1db08: 6f 00 40 00  	jal	zero, 0x1db0c <pass2_no_dither+0xc4>
   1db0c: 67 80 00 00  	jalr	zero, 0x0(ra)

000000000001db10 <finish_pass2>:
   1db10: 67 80 00 00  	jalr	zero, 0x0(ra)

000000000001db14 <update_box>:
   1db14: ef 62 a1 36  	jal	t0, 0x33e7e <__riscv_save_12>
   1db18: 13 01 01 ff  	addi	sp, sp, -0x10
   1db1c: 03 35 05 26  	ld	a0, 0x260(a0)
   1db20: 13 8b 05 00  	addi	s6, a1, 0x0
   1db24: 03 3a 05 03  	ld	s4, 0x30(a0)
   1db28: 03 a5 05 00  	lw	a0, 0x0(a1)
   1db2c: 03 a4 45 00  	lw	s0, 0x4(a1)
   1db30: 03 a9 c5 00  	lw	s2, 0xc(a1)
   1db34: 03 ad 05 01  	lw	s10, 0x10(a1)
   1db38: 83 ab 45 01  	lw	s7, 0x14(a1)
   1db3c: 03 a6 85 00  	lw	a2, 0x8(a1)
   1db40: 1b 07 19 00  	addiw	a4, s2, 0x1
   1db44: bb 86 ab 41  	subw	a3, s7, s10
   1db48: 63 5c 85 06  	bge	a0, s0, 0x1dbc0 <update_box+0xac>
   1db4c: 9b 07 14 00  	addiw	a5, s0, 0x1
   1db50: 93 88 16 00  	addi	a7, a3, 0x1
   1db54: 93 12 1d 00  	slli	t0, s10, 0x1
   1db58: 13 08 05 00  	addi	a6, a0, 0x0
   1db5c: 63 5a c9 00  	bge	s2, a2, 0x1db70 <update_box+0x5c>
   1db60: 1b 03 18 00  	addiw	t1, a6, 0x1
   1db64: 13 08 18 00  	addi	a6, a6, 0x1
   1db68: e3 9a 67 fe  	bne	a5, t1, 0x1db5c <update_box+0x48>
   1db6c: 6f 00 40 05  	jal	zero, 0x1dbc0 <update_box+0xac>
   1db70: 13 13 38 00  	slli	t1, a6, 0x3
   1db74: 33 03 6a 00  	add	t1, s4, t1
   1db78: 03 33 03 00  	ld	t1, 0x0(t1)
   1db7c: 93 03 06 00  	addi	t2, a2, 0x0
   1db80: 63 c4 ab 03  	blt	s7, s10, 0x1dba8 <update_box+0x94>
   1db84: 13 9e 63 00  	slli	t3, t2, 0x6
   1db88: 33 0e c3 01  	add	t3, t1, t3
   1db8c: 33 0e 5e 00  	add	t3, t3, t0
   1db90: 93 8e 08 00  	addi	t4, a7, 0x0
   1db94: 03 5f 0e 00  	lhu	t5, 0x0(t3)
   1db98: 63 10 0f 02  	bne	t5, zero, 0x1dbb8 <update_box+0xa4>
   1db9c: 9b 8e fe ff  	addiw	t4, t4, -0x1
   1dba0: 13 0e 2e 00  	addi	t3, t3, 0x2
   1dba4: e3 98 0e fe  	bne	t4, zero, 0x1db94 <update_box+0x80>
   1dba8: 1b 8e 13 00  	addiw	t3, t2, 0x1
   1dbac: 93 83 13 00  	addi	t2, t2, 0x1
   1dbb0: e3 18 c7 fd  	bne	a4, t3, 0x1db80 <update_box+0x6c>
   1dbb4: 6f f0 df fa  	jal	zero, 0x1db60 <update_box+0x4c>
   1dbb8: 23 20 0b 01  	sw	a6, 0x0(s6)
   1dbbc: 13 05 08 00  	addi	a0, a6, 0x0
   1dbc0: 9b 0a 05 00  	addiw	s5, a0, 0x0
   1dbc4: 63 dc 8a 06  	bge	s5, s0, 0x1dc3c <update_box+0x128>
   1dbc8: 9b 07 05 00  	addiw	a5, a0, 0x0
   1dbcc: 13 88 16 00  	addi	a6, a3, 0x1
   1dbd0: 93 18 1d 00  	slli	a7, s10, 0x1
   1dbd4: 13 03 04 00  	addi	t1, s0, 0x0
   1dbd8: 93 02 03 00  	addi	t0, t1, 0x0
   1dbdc: 63 58 c9 00  	bge	s2, a2, 0x1dbec <update_box+0xd8>
   1dbe0: 13 83 f2 ff  	addi	t1, t0, -0x1
   1dbe4: e3 ca 57 fe  	blt	a5, t0, 0x1dbd8 <update_box+0xc4>
   1dbe8: 6f 00 40 05  	jal	zero, 0x1dc3c <update_box+0x128>
   1dbec: 13 93 32 00  	slli	t1, t0, 0x3
   1dbf0: 33 03 6a 00  	add	t1, s4, t1
   1dbf4: 03 33 03 00  	ld	t1, 0x0(t1)
   1dbf8: 93 03 06 00  	addi	t2, a2, 0x0
   1dbfc: 63 c4 ab 03  	blt	s7, s10, 0x1dc24 <update_box+0x110>
   1dc00: 13 9e 63 00  	slli	t3, t2, 0x6
   1dc04: 33 0e c3 01  	add	t3, t1, t3
   1dc08: 33 0e 1e 01  	add	t3, t3, a7
   1dc0c: 93 0e 08 00  	addi	t4, a6, 0x0
   1dc10: 03 5f 0e 00  	lhu	t5, 0x0(t3)
   1dc14: 63 10 0f 02  	bne	t5, zero, 0x1dc34 <update_box+0x120>
   1dc18: 9b 8e fe ff  	addiw	t4, t4, -0x1
   1dc1c: 13 0e 2e 00  	addi	t3, t3, 0x2
   1dc20: e3 98 0e fe  	bne	t4, zero, 0x1dc10 <update_box+0xfc>
   1dc24: 1b 8e 13 00  	addiw	t3, t2, 0x1
   1dc28: 93 83 13 00  	addi	t2, t2, 0x1
   1dc2c: e3 18 c7 fd  	bne	a4, t3, 0x1dbfc <update_box+0xe8>
   1dc30: 6f f0 1f fb  	jal	zero, 0x1dbe0 <update_box+0xcc>
   1dc34: 23 22 5b 00  	sw	t0, 0x4(s6)
   1dc38: 13 84 02 00  	addi	s0, t0, 0x0
   1dc3c: 1b 0c 14 00  	addiw	s8, s0, 0x1
   1dc40: 9b 04 04 00  	addiw	s1, s0, 0x0
   1dc44: 63 5c 26 07  	bge	a2, s2, 0x1dcbc <update_box+0x1a8>
   1dc48: 9b 07 05 00  	addiw	a5, a0, 0x0
   1dc4c: 93 88 16 00  	addi	a7, a3, 0x1
   1dc50: 93 12 1d 00  	slli	t0, s10, 0x1
   1dc54: 13 08 06 00  	addi	a6, a2, 0x0
   1dc58: 63 da f4 00  	bge	s1, a5, 0x1dc6c <update_box+0x158>
   1dc5c: 1b 03 18 00  	addiw	t1, a6, 0x1
   1dc60: 13 08 18 00  	addi	a6, a6, 0x1
   1dc64: e3 1a 67 fe  	bne	a4, t1, 0x1dc58 <update_box+0x144>
   1dc68: 6f 00 40 05  	jal	zero, 0x1dcbc <update_box+0x1a8>
   1dc6c: 13 13 68 00  	slli	t1, a6, 0x6
   1dc70: 93 83 07 00  	addi	t2, a5, 0x0
   1dc74: 63 c8 ab 03  	blt	s7, s10, 0x1dca4 <update_box+0x190>
   1dc78: 13 9e 33 00  	slli	t3, t2, 0x3
   1dc7c: 33 0e ca 01  	add	t3, s4, t3
   1dc80: 03 3e 0e 00  	ld	t3, 0x0(t3)
   1dc84: b3 0e 53 00  	add	t4, t1, t0
   1dc88: 33 0e de 01  	add	t3, t3, t4
   1dc8c: 93 8e 08 00  	addi	t4, a7, 0x0
   1dc90: 03 5f 0e 00  	lhu	t5, 0x0(t3)
   1dc94: 63 10 0f 02  	bne	t5, zero, 0x1dcb4 <update_box+0x1a0>
   1dc98: 9b 8e fe ff  	addiw	t4, t4, -0x1
   1dc9c: 13 0e 2e 00  	addi	t3, t3, 0x2
   1dca0: e3 98 0e fe  	bne	t4, zero, 0x1dc90 <update_box+0x17c>
   1dca4: 1b 8e 13 00  	addiw	t3, t2, 0x1
   1dca8: 93 83 13 00  	addi	t2, t2, 0x1
   1dcac: e3 14 cc fd  	bne	s8, t3, 0x1dc74 <update_box+0x160>
   1dcb0: 6f f0 df fa  	jal	zero, 0x1dc5c <update_box+0x148>
   1dcb4: 23 24 0b 01  	sw	a6, 0x8(s6)
   1dcb8: 13 06 08 00  	addi	a2, a6, 0x0
   1dcbc: 9b 0c 06 00  	addiw	s9, a2, 0x0
   1dcc0: 63 de 2c 07  	bge	s9, s2, 0x1dd3c <update_box+0x228>
   1dcc4: 1b 07 05 00  	addiw	a4, a0, 0x0
   1dcc8: 9b 07 06 00  	addiw	a5, a2, 0x0
   1dccc: 93 86 16 00  	addi	a3, a3, 0x1
   1dcd0: 13 18 1d 00  	slli	a6, s10, 0x1
   1dcd4: 93 02 09 00  	addi	t0, s2, 0x0
   1dcd8: 93 88 02 00  	addi	a7, t0, 0x0
   1dcdc: 63 d8 e4 00  	bge	s1, a4, 0x1dcec <update_box+0x1d8>
   1dce0: 93 82 f8 ff  	addi	t0, a7, -0x1
   1dce4: e3 ca 17 ff  	blt	a5, a7, 0x1dcd8 <update_box+0x1c4>
   1dce8: 6f 00 40 05  	jal	zero, 0x1dd3c <update_box+0x228>
   1dcec: 93 92 68 00  	slli	t0, a7, 0x6
   1dcf0: 13 03 07 00  	addi	t1, a4, 0x0
   1dcf4: 63 c8 ab 03  	blt	s7, s10, 0x1dd24 <update_box+0x210>
   1dcf8: 93 13 33 00  	slli	t2, t1, 0x3
   1dcfc: b3 03 7a 00  	add	t2, s4, t2
   1dd00: 83 b3 03 00  	ld	t2, 0x0(t2)
   1dd04: 33 8e 02 01  	add	t3, t0, a6
   1dd08: b3 83 c3 01  	add	t2, t2, t3
   1dd0c: 13 8e 06 00  	addi	t3, a3, 0x0
   1dd10: 83 de 03 00  	lhu	t4, 0x0(t2)
   1dd14: 63 90 0e 02  	bne	t4, zero, 0x1dd34 <update_box+0x220>
   1dd18: 1b 0e fe ff  	addiw	t3, t3, -0x1
   1dd1c: 93 83 23 00  	addi	t2, t2, 0x2
   1dd20: e3 18 0e fe  	bne	t3, zero, 0x1dd10 <update_box+0x1fc>
   1dd24: 9b 03 13 00  	addiw	t2, t1, 0x1
   1dd28: 13 03 13 00  	addi	t1, t1, 0x1
   1dd2c: e3 14 7c fc  	bne	s8, t2, 0x1dcf4 <update_box+0x1e0>
   1dd30: 6f f0 1f fb  	jal	zero, 0x1dce0 <update_box+0x1cc>
   1dd34: 23 26 1b 01  	sw	a7, 0xc(s6)
   1dd38: 13 89 08 00  	addi	s2, a7, 0x0
   1dd3c: bb 06 c9 40  	subw	a3, s2, a2
   1dd40: 9b 0d 09 00  	addiw	s11, s2, 0x0
   1dd44: 63 50 7d 09  	bge	s10, s7, 0x1ddc4 <update_box+0x2b0>
   1dd48: 1b 07 06 00  	addiw	a4, a2, 0x0
   1dd4c: 9b 07 05 00  	addiw	a5, a0, 0x0
   1dd50: 1b 88 1b 00  	addiw	a6, s7, 0x1
   1dd54: 93 82 16 00  	addi	t0, a3, 0x1
   1dd58: 13 13 67 00  	slli	t1, a4, 0x6
   1dd5c: 93 08 0d 00  	addi	a7, s10, 0x0
   1dd60: 63 da f4 00  	bge	s1, a5, 0x1dd74 <update_box+0x260>
   1dd64: 9b 83 18 00  	addiw	t2, a7, 0x1
   1dd68: 93 88 18 00  	addi	a7, a7, 0x1
   1dd6c: e3 1a 78 fe  	bne	a6, t2, 0x1dd60 <update_box+0x24c>
   1dd70: 6f 00 40 05  	jal	zero, 0x1ddc4 <update_box+0x2b0>
   1dd74: 93 93 18 00  	slli	t2, a7, 0x1
   1dd78: 13 8e 07 00  	addi	t3, a5, 0x0
   1dd7c: 63 c8 ed 02  	blt	s11, a4, 0x1ddac <update_box+0x298>
   1dd80: 93 1e 3e 00  	slli	t4, t3, 0x3
   1dd84: b3 0e da 01  	add	t4, s4, t4
   1dd88: 83 be 0e 00  	ld	t4, 0x0(t4)
   1dd8c: 33 0f 73 00  	add	t5, t1, t2
   1dd90: b3 8e ee 01  	add	t4, t4, t5
   1dd94: 13 8f 02 00  	addi	t5, t0, 0x0
   1dd98: 83 df 0e 00  	lhu	t6, 0x0(t4)
   1dd9c: 63 90 0f 02  	bne	t6, zero, 0x1ddbc <update_box+0x2a8>
   1dda0: 1b 0f ff ff  	addiw	t5, t5, -0x1
   1dda4: 93 8e 0e 04  	addi	t4, t4, 0x40
   1dda8: e3 18 0f fe  	bne	t5, zero, 0x1dd98 <update_box+0x284>
   1ddac: 9b 0e 1e 00  	addiw	t4, t3, 0x1
   1ddb0: 13 0e 1e 00  	addi	t3, t3, 0x1
   1ddb4: e3 14 dc fd  	bne	s8, t4, 0x1dd7c <update_box+0x268>
   1ddb8: 6f f0 df fa  	jal	zero, 0x1dd64 <update_box+0x250>
   1ddbc: 23 28 1b 01  	sw	a7, 0x10(s6)
   1ddc0: 13 8d 08 00  	addi	s10, a7, 0x0
   1ddc4: 9b 09 0d 00  	addiw	s3, s10, 0x0
   1ddc8: 23 34 41 01  	sd	s4, 0x8(sp)
   1ddcc: 63 da 79 07  	bge	s3, s7, 0x1de40 <update_box+0x32c>
   1ddd0: 1b 07 06 00  	addiw	a4, a2, 0x0
   1ddd4: 9b 07 05 00  	addiw	a5, a0, 0x0
   1ddd8: 93 86 16 00  	addi	a3, a3, 0x1
   1dddc: 13 18 67 00  	slli	a6, a4, 0x6
   1dde0: 93 82 0b 00  	addi	t0, s7, 0x0
   1dde4: 93 88 02 00  	addi	a7, t0, 0x0
   1dde8: 63 d8 f4 00  	bge	s1, a5, 0x1ddf8 <update_box+0x2e4>
   1ddec: 93 82 f8 ff  	addi	t0, a7, -0x1
   1ddf0: e3 ca 19 ff  	blt	s3, a7, 0x1dde4 <update_box+0x2d0>
   1ddf4: 6f 00 c0 04  	jal	zero, 0x1de40 <update_box+0x32c>
   1ddf8: 93 92 18 00  	slli	t0, a7, 0x1
   1ddfc: 13 83 07 00  	addi	t1, a5, 0x0
   1de00: 63 c8 ed 02  	blt	s11, a4, 0x1de30 <update_box+0x31c>
   1de04: 93 13 33 00  	slli	t2, t1, 0x3
   1de08: b3 03 7a 00  	add	t2, s4, t2
   1de0c: 83 b3 03 00  	ld	t2, 0x0(t2)
   1de10: 33 0e 58 00  	add	t3, a6, t0
   1de14: b3 83 c3 01  	add	t2, t2, t3
   1de18: 13 8e 06 00  	addi	t3, a3, 0x0
   1de1c: 83 de 03 00  	lhu	t4, 0x0(t2)
   1de20: 63 94 0e 02  	bne	t4, zero, 0x1de48 <update_box+0x334>
   1de24: 1b 0e fe ff  	addiw	t3, t3, -0x1
   1de28: 93 83 03 04  	addi	t2, t2, 0x40
   1de2c: e3 18 0e fe  	bne	t3, zero, 0x1de1c <update_box+0x308>
   1de30: 9b 03 13 00  	addiw	t2, t1, 0x1
   1de34: 13 03 13 00  	addi	t1, t1, 0x1
   1de38: e3 14 7c fc  	bne	s8, t2, 0x1de00 <update_box+0x2ec>
   1de3c: 6f f0 1f fb  	jal	zero, 0x1ddec <update_box+0x2d8>
   1de40: 13 8a 04 00  	addi	s4, s1, 0x0
   1de44: 6f 00 00 01  	jal	zero, 0x1de54 <update_box+0x340>
   1de48: 13 8a 04 00  	addi	s4, s1, 0x0
   1de4c: 23 2a 1b 01  	sw	a7, 0x14(s6)
   1de50: 93 8b 08 00  	addi	s7, a7, 0x0
   1de54: bb 05 a4 40  	subw	a1, s0, a0
   1de58: 9b 94 45 00  	slliw	s1, a1, 0x4
   1de5c: 33 05 c9 40  	sub	a0, s2, a2
   1de60: 93 05 c0 00  	addi	a1, zero, 0xc
   1de64: ef 60 01 09  	jal	ra, 0x33ef4 <__muldi3>
   1de68: 23 30 21 01  	sd	s2, 0x0(sp)
   1de6c: 1b 09 05 00  	addiw	s2, a0, 0x0
   1de70: 3b 84 ab 41  	subw	s0, s7, s10
   1de74: 1b 1d 34 00  	slliw	s10, s0, 0x3
   1de78: 13 85 04 00  	addi	a0, s1, 0x0
   1de7c: 93 85 04 00  	addi	a1, s1, 0x0
   1de80: ef 60 41 07  	jal	ra, 0x33ef4 <__muldi3>
   1de84: 93 04 05 00  	addi	s1, a0, 0x0
   1de88: 13 05 09 00  	addi	a0, s2, 0x0
   1de8c: 93 05 09 00  	addi	a1, s2, 0x0
   1de90: ef 60 41 06  	jal	ra, 0x33ef4 <__muldi3>
   1de94: 13 09 05 00  	addi	s2, a0, 0x0
   1de98: 13 05 0d 00  	addi	a0, s10, 0x0
   1de9c: 93 05 0d 00  	addi	a1, s10, 0x0
   1dea0: ef 60 41 05  	jal	ra, 0x33ef4 <__muldi3>
   1dea4: 33 85 a4 00  	add	a0, s1, a0
   1dea8: 33 05 a9 00  	add	a0, s2, a0
   1deac: 23 3c ab 00  	sd	a0, 0x18(s6)
   1deb0: 13 03 0b 00  	addi	t1, s6, 0x0
   1deb4: 13 05 00 00  	addi	a0, zero, 0x0
   1deb8: 63 4a 5a 09  	blt	s4, s5, 0x1df4c <update_box+0x438>
   1debc: 13 96 6c 00  	slli	a2, s9, 0x6
   1dec0: 93 95 19 00  	slli	a1, s3, 0x1
   1dec4: 33 06 b6 00  	add	a2, a2, a1
   1dec8: 13 14 04 02  	slli	s0, s0, 0x20
   1decc: 13 54 f4 01  	srli	s0, s0, 0x1f
   1ded0: 33 06 86 00  	add	a2, a2, s0
   1ded4: 03 3b 01 00  	ld	s6, 0x0(sp)
   1ded8: 1b 0b 1b 00  	addiw	s6, s6, 0x1
   1dedc: 13 06 26 00  	addi	a2, a2, 0x2
   1dee0: 9b 8b 0b 00  	addiw	s7, s7, 0x0
   1dee4: 83 33 81 00  	ld	t2, 0x8(sp)
   1dee8: 63 cc 9d 05  	blt	s11, s9, 0x1df40 <update_box+0x42c>
   1deec: 93 96 3a 00  	slli	a3, s5, 0x3
   1def0: b3 86 d3 00  	add	a3, t2, a3
   1def4: 83 b6 06 00  	ld	a3, 0x0(a3)
   1def8: 13 07 00 00  	addi	a4, zero, 0x0
   1defc: 93 87 0c 00  	addi	a5, s9, 0x0
   1df00: 63 c8 3b 03  	blt	s7, s3, 0x1df30 <update_box+0x41c>
   1df04: 13 18 67 00  	slli	a6, a4, 0x6
   1df08: 33 08 06 01  	add	a6, a2, a6
   1df0c: 33 88 06 01  	add	a6, a3, a6
   1df10: 93 98 67 00  	slli	a7, a5, 0x6
   1df14: b3 88 16 01  	add	a7, a3, a7
   1df18: b3 88 b8 00  	add	a7, a7, a1
   1df1c: 83 d2 08 00  	lhu	t0, 0x0(a7)
   1df20: b3 32 50 00  	sltu	t0, zero, t0
   1df24: 93 88 28 00  	addi	a7, a7, 0x2
   1df28: 33 05 55 00  	add	a0, a0, t0
   1df2c: e3 98 08 ff  	bne	a7, a6, 0x1df1c <update_box+0x408>
   1df30: 1b 88 17 00  	addiw	a6, a5, 0x1
   1df34: 93 87 17 00  	addi	a5, a5, 0x1
   1df38: 13 07 17 00  	addi	a4, a4, 0x1
   1df3c: e3 12 0b fd  	bne	s6, a6, 0x1df00 <update_box+0x3ec>
   1df40: 9b 86 1a 00  	addiw	a3, s5, 0x1
   1df44: 93 8a 1a 00  	addi	s5, s5, 0x1
   1df48: e3 10 dc fa  	bne	s8, a3, 0x1dee8 <update_box+0x3d4>
   1df4c: 23 30 a3 02  	sd	a0, 0x20(t1)
   1df50: 13 01 01 01  	addi	sp, sp, 0x10
   1df54: 6f 50 51 77  	jal	zero, 0x33ec8 <__riscv_restore_12>

000000000001df58 <fill_inverse_cmap>:
   1df58: ef 52 71 72  	jal	t0, 0x33e7e <__riscv_save_12>
   1df5c: 13 01 01 80  	addi	sp, sp, -0x800
   1df60: 13 01 01 e1  	addi	sp, sp, -0x1f0
   1df64: 93 07 05 00  	addi	a5, a0, 0x0
   1df68: 03 35 05 26  	ld	a0, 0x260(a0)
   1df6c: 03 35 05 03  	ld	a0, 0x30(a0)
   1df70: 23 34 a1 02  	sd	a0, 0x28(sp)
   1df74: 23 38 b1 00  	sd	a1, 0x10(sp)
   1df78: 1b 95 35 00  	slliw	a0, a1, 0x3
   1df7c: 13 7d 05 fe  	andi	s10, a0, -0x20
   1df80: 13 0d 4d 00  	addi	s10, s10, 0x4
   1df84: 23 3c c1 00  	sd	a2, 0x18(sp)
   1df88: 9b 15 26 00  	slliw	a1, a2, 0x2
   1df8c: 93 fd 05 fe  	andi	s11, a1, -0x20
   1df90: 03 a7 47 09  	lw	a4, 0x94(a5)
   1df94: 93 8d 2d 00  	addi	s11, s11, 0x2
   1df98: 23 30 d1 02  	sd	a3, 0x20(sp)
   1df9c: 1b 96 36 00  	slliw	a2, a3, 0x3
   1dfa0: 13 74 06 fe  	andi	s0, a2, -0x20
   1dfa4: 13 04 44 00  	addi	s0, s0, 0x4
   1dfa8: 23 34 f1 06  	sd	a5, 0x68(sp)
   1dfac: 63 5e e0 20  	bge	zero, a4, 0x1e1c8 <fill_inverse_cmap+0x270>
   1dfb0: 93 64 c5 01  	ori	s1, a0, 0x1c
   1dfb4: 33 05 9d 00  	add	a0, s10, s1
   1dfb8: 1b 55 15 00  	srliw	a0, a0, 0x1
   1dfbc: 23 30 a1 04  	sd	a0, 0x40(sp)
   1dfc0: 13 e5 e5 01  	ori	a0, a1, 0x1e
   1dfc4: 23 3c a1 04  	sd	a0, 0x58(sp)
   1dfc8: 33 85 ad 00  	add	a0, s11, a0
   1dfcc: 1b 55 15 00  	srliw	a0, a0, 0x1
   1dfd0: 23 3c a1 02  	sd	a0, 0x38(sp)
   1dfd4: 03 b5 87 09  	ld	a0, 0x98(a5)
   1dfd8: 93 65 c6 01  	ori	a1, a2, 0x1c
   1dfdc: 23 38 b1 04  	sd	a1, 0x50(sp)
   1dfe0: b3 05 b4 00  	add	a1, s0, a1
   1dfe4: 9b d5 15 00  	srliw	a1, a1, 0x1
   1dfe8: 23 38 b1 02  	sd	a1, 0x30(sp)
   1dfec: 83 39 05 00  	ld	s3, 0x0(a0)
   1dff0: 83 3c 85 00  	ld	s9, 0x8(a0)
   1dff4: 83 3b 05 01  	ld	s7, 0x10(a0)
   1dff8: 23 34 e1 00  	sd	a4, 0x8(sp)
   1dffc: 13 15 37 00  	slli	a0, a4, 0x3
   1e000: 13 0c 01 1f  	addi	s8, sp, 0x1f0
   1e004: 33 05 ac 00  	add	a0, s8, a0
   1e008: 23 34 a1 04  	sd	a0, 0x48(sp)
   1e00c: 37 09 00 80  	lui	s2, 0x80000
   1e010: 1b 09 f9 ff  	addiw	s2, s2, -0x1
   1e014: 23 30 91 06  	sd	s1, 0x60(sp)
   1e018: 83 ca 09 00  	lbu	s5, 0x0(s3)
   1e01c: 63 d0 aa 03  	bge	s5, s10, 0x1e03c <fill_inverse_cmap+0xe4>
   1e020: 3b 85 aa 41  	subw	a0, s5, s10
   1e024: 1b 15 15 00  	slliw	a0, a0, 0x1
   1e028: 93 05 05 00  	addi	a1, a0, 0x0
   1e02c: ef 50 91 6c  	jal	ra, 0x33ef4 <__muldi3>
   1e030: 13 0a 05 00  	addi	s4, a0, 0x0
   1e034: 3b 85 9a 40  	subw	a0, s5, s1
   1e038: 6f 00 00 02  	jal	zero, 0x1e058 <fill_inverse_cmap+0x100>
   1e03c: 63 d8 54 03  	bge	s1, s5, 0x1e06c <fill_inverse_cmap+0x114>
   1e040: 3b 85 9a 40  	subw	a0, s5, s1
   1e044: 1b 15 15 00  	slliw	a0, a0, 0x1
   1e048: 93 05 05 00  	addi	a1, a0, 0x0
   1e04c: ef 50 91 6a  	jal	ra, 0x33ef4 <__muldi3>
   1e050: 13 0a 05 00  	addi	s4, a0, 0x0
   1e054: 3b 85 aa 41  	subw	a0, s5, s10
   1e058: 1b 15 15 00  	slliw	a0, a0, 0x1
   1e05c: 93 05 05 00  	addi	a1, a0, 0x0
   1e060: ef 50 51 69  	jal	ra, 0x33ef4 <__muldi3>
   1e064: 93 0a 05 00  	addi	s5, a0, 0x0
   1e068: 6f 00 c0 02  	jal	zero, 0x1e094 <fill_inverse_cmap+0x13c>
   1e06c: 03 35 01 04  	ld	a0, 0x40(sp)
   1e070: 63 76 55 01  	bgeu	a0, s5, 0x1e07c <fill_inverse_cmap+0x124>
   1e074: 3b 85 aa 41  	subw	a0, s5, s10
   1e078: 6f 00 80 00  	jal	zero, 0x1e080 <fill_inverse_cmap+0x128>
   1e07c: 3b 85 9a 40  	subw	a0, s5, s1
   1e080: 1b 15 15 00  	slliw	a0, a0, 0x1
   1e084: 93 05 05 00  	addi	a1, a0, 0x0
   1e088: ef 50 d1 66  	jal	ra, 0x33ef4 <__muldi3>
   1e08c: 93 0a 05 00  	addi	s5, a0, 0x0
   1e090: 13 0a 00 00  	addi	s4, zero, 0x0
   1e094: 03 cb 0c 00  	lbu	s6, 0x0(s9)
   1e098: 63 54 bb 03  	bge	s6, s11, 0x1e0c0 <fill_inverse_cmap+0x168>
   1e09c: 3b 05 bb 41  	subw	a0, s6, s11
   1e0a0: 93 15 15 00  	slli	a1, a0, 0x1
   1e0a4: 3b 85 a5 00  	addw	a0, a1, a0
   1e0a8: 93 05 05 00  	addi	a1, a0, 0x0
   1e0ac: ef 50 91 64  	jal	ra, 0x33ef4 <__muldi3>
   1e0b0: 33 0a 45 01  	add	s4, a0, s4
   1e0b4: 03 35 81 05  	ld	a0, 0x58(sp)
   1e0b8: 3b 05 ab 40  	subw	a0, s6, a0
   1e0bc: 6f 00 40 03  	jal	zero, 0x1e0f0 <fill_inverse_cmap+0x198>
   1e0c0: 03 35 81 05  	ld	a0, 0x58(sp)
   1e0c4: 63 50 65 03  	bge	a0, s6, 0x1e0e4 <fill_inverse_cmap+0x18c>
   1e0c8: 3b 05 ab 40  	subw	a0, s6, a0
   1e0cc: 93 15 15 00  	slli	a1, a0, 0x1
   1e0d0: 3b 85 a5 00  	addw	a0, a1, a0
   1e0d4: 93 05 05 00  	addi	a1, a0, 0x0
   1e0d8: ef 50 d1 61  	jal	ra, 0x33ef4 <__muldi3>
   1e0dc: 33 0a 45 01  	add	s4, a0, s4
   1e0e0: 6f 00 c0 00  	jal	zero, 0x1e0ec <fill_inverse_cmap+0x194>
   1e0e4: 83 35 81 03  	ld	a1, 0x38(sp)
   1e0e8: e3 f8 65 fd  	bgeu	a1, s6, 0x1e0b8 <fill_inverse_cmap+0x160>
   1e0ec: 3b 05 bb 41  	subw	a0, s6, s11
   1e0f0: 93 15 15 00  	slli	a1, a0, 0x1
   1e0f4: 3b 85 a5 00  	addw	a0, a1, a0
   1e0f8: 93 05 05 00  	addi	a1, a0, 0x0
   1e0fc: ef 50 91 5f  	jal	ra, 0x33ef4 <__muldi3>
   1e100: 13 0b 05 00  	addi	s6, a0, 0x0
   1e104: 83 c4 0b 00  	lbu	s1, 0x0(s7)
   1e108: 63 d0 84 02  	bge	s1, s0, 0x1e128 <fill_inverse_cmap+0x1d0>
   1e10c: 3b 85 84 40  	subw	a0, s1, s0
   1e110: 93 05 05 00  	addi	a1, a0, 0x0
   1e114: ef 50 11 5e  	jal	ra, 0x33ef4 <__muldi3>
   1e118: 33 0a 45 01  	add	s4, a0, s4
   1e11c: 03 35 01 05  	ld	a0, 0x50(sp)
   1e120: 3b 85 a4 40  	subw	a0, s1, a0
   1e124: 6f 00 c0 02  	jal	zero, 0x1e150 <fill_inverse_cmap+0x1f8>
   1e128: 03 35 01 05  	ld	a0, 0x50(sp)
   1e12c: 63 5c 95 00  	bge	a0, s1, 0x1e144 <fill_inverse_cmap+0x1ec>
   1e130: 3b 85 a4 40  	subw	a0, s1, a0
   1e134: 93 05 05 00  	addi	a1, a0, 0x0
   1e138: ef 50 d1 5b  	jal	ra, 0x33ef4 <__muldi3>
   1e13c: 33 0a 45 01  	add	s4, a0, s4
   1e140: 6f 00 c0 00  	jal	zero, 0x1e14c <fill_inverse_cmap+0x1f4>
   1e144: 83 35 01 03  	ld	a1, 0x30(sp)
   1e148: e3 fc 95 fc  	bgeu	a1, s1, 0x1e120 <fill_inverse_cmap+0x1c8>
   1e14c: 3b 85 84 40  	subw	a0, s1, s0
   1e150: 93 05 05 00  	addi	a1, a0, 0x0
   1e154: ef 50 11 5a  	jal	ra, 0x33ef4 <__muldi3>
   1e158: b3 0a 5b 01  	add	s5, s6, s5
   1e15c: 33 85 aa 00  	add	a0, s5, a0
   1e160: 23 30 4c 01  	sd	s4, 0x0(s8)
   1e164: 83 34 01 06  	ld	s1, 0x60(sp)
   1e168: 63 44 25 01  	blt	a0, s2, 0x1e170 <fill_inverse_cmap+0x218>
   1e16c: 13 05 09 00  	addi	a0, s2, 0x0
   1e170: 13 0c 8c 00  	addi	s8, s8, 0x8
   1e174: 93 8b 1b 00  	addi	s7, s7, 0x1
   1e178: 93 8c 1c 00  	addi	s9, s9, 0x1
   1e17c: 93 89 19 00  	addi	s3, s3, 0x1
   1e180: 13 09 05 00  	addi	s2, a0, 0x0
   1e184: 83 35 81 04  	ld	a1, 0x48(sp)
   1e188: e3 18 bc e8  	bne	s8, a1, 0x1e018 <fill_inverse_cmap+0xc0>
   1e18c: 93 05 00 00  	addi	a1, zero, 0x0
   1e190: 93 04 00 00  	addi	s1, zero, 0x0
   1e194: 13 06 01 1f  	addi	a2, sp, 0x1f0
   1e198: 93 06 01 0f  	addi	a3, sp, 0xf0
   1e19c: 83 37 81 06  	ld	a5, 0x68(sp)
   1e1a0: 03 38 81 00  	ld	a6, 0x8(sp)
   1e1a4: 03 37 06 00  	ld	a4, 0x0(a2)
   1e1a8: 63 48 e5 00  	blt	a0, a4, 0x1e1b8 <fill_inverse_cmap+0x260>
   1e1ac: 33 87 96 00  	add	a4, a3, s1
   1e1b0: 9b 84 14 00  	addiw	s1, s1, 0x1
   1e1b4: 23 00 b7 00  	sb	a1, 0x0(a4)
   1e1b8: 93 85 15 00  	addi	a1, a1, 0x1
   1e1bc: 13 06 86 00  	addi	a2, a2, 0x8
   1e1c0: e3 12 b8 fe  	bne	a6, a1, 0x1e1a4 <fill_inverse_cmap+0x24c>
   1e1c4: 6f 00 80 00  	jal	zero, 0x1e1cc <fill_inverse_cmap+0x274>
   1e1c8: 93 04 00 00  	addi	s1, zero, 0x0
   1e1cc: 93 05 01 1f  	addi	a1, sp, 0x1f0
   1e1d0: 13 05 01 5f  	addi	a0, sp, 0x5f0
   1e1d4: 37 06 00 80  	lui	a2, 0x80000
   1e1d8: 1b 06 f6 ff  	addiw	a2, a2, -0x1
   1e1dc: 93 86 85 00  	addi	a3, a1, 0x8
   1e1e0: 23 b0 c5 00  	sd	a2, 0x0(a1)
   1e1e4: 93 85 06 00  	addi	a1, a3, 0x0
   1e1e8: e3 9a a6 fe  	bne	a3, a0, 0x1e1dc <fill_inverse_cmap+0x284>
   1e1ec: 63 52 90 12  	bge	zero, s1, 0x1e310 <fill_inverse_cmap+0x3b8>
   1e1f0: 13 09 00 00  	addi	s2, zero, 0x0
   1e1f4: 93 09 01 0f  	addi	s3, sp, 0xf0
   1e1f8: 83 bb 87 09  	ld	s7, 0x98(a5)
   1e1fc: 33 85 29 01  	add	a0, s3, s2
   1e200: 83 4c 05 00  	lbu	s9, 0x0(a0)
   1e204: 03 b5 0b 00  	ld	a0, 0x0(s7)
   1e208: 33 05 95 01  	add	a0, a0, s9
   1e20c: 03 45 05 00  	lbu	a0, 0x0(a0)
   1e210: 3b 05 ad 40  	subw	a0, s10, a0
   1e214: 1b 1a 15 00  	slliw	s4, a0, 0x1
   1e218: 13 05 0a 00  	addi	a0, s4, 0x0
   1e21c: 93 05 0a 00  	addi	a1, s4, 0x0
   1e220: ef 50 51 4d  	jal	ra, 0x33ef4 <__muldi3>
   1e224: 83 b5 8b 00  	ld	a1, 0x8(s7)
   1e228: b3 85 95 01  	add	a1, a1, s9
   1e22c: 83 c5 05 00  	lbu	a1, 0x0(a1)
   1e230: 93 0a 05 00  	addi	s5, a0, 0x0
   1e234: 3b 85 bd 40  	subw	a0, s11, a1
   1e238: 93 15 15 00  	slli	a1, a0, 0x1
   1e23c: 3b 8b a5 00  	addw	s6, a1, a0
   1e240: 13 05 0b 00  	addi	a0, s6, 0x0
   1e244: 93 05 0b 00  	addi	a1, s6, 0x0
   1e248: ef 50 d1 4a  	jal	ra, 0x33ef4 <__muldi3>
   1e24c: 83 b5 0b 01  	ld	a1, 0x10(s7)
   1e250: b3 85 95 01  	add	a1, a1, s9
   1e254: 83 c5 05 00  	lbu	a1, 0x0(a1)
   1e258: 93 0b 05 00  	addi	s7, a0, 0x0
   1e25c: 3b 0c b4 40  	subw	s8, s0, a1
   1e260: 13 05 0c 00  	addi	a0, s8, 0x0
   1e264: 93 05 0c 00  	addi	a1, s8, 0x0
   1e268: ef 50 d1 48  	jal	ra, 0x33ef4 <__muldi3>
   1e26c: 33 85 aa 00  	add	a0, s5, a0
   1e270: b3 8b ab 00  	add	s7, s7, a0
   1e274: 13 1a 5a 00  	slli	s4, s4, 0x5
   1e278: 13 0a 0a 10  	addi	s4, s4, 0x100
   1e27c: 93 05 80 01  	addi	a1, zero, 0x18
   1e280: 13 05 0b 00  	addi	a0, s6, 0x0
   1e284: ef 50 11 47  	jal	ra, 0x33ef4 <__muldi3>
   1e288: 13 05 05 09  	addi	a0, a0, 0x90
   1e28c: 13 1c 4c 00  	slli	s8, s8, 0x4
   1e290: 93 05 0c 04  	addi	a1, s8, 0x40
   1e294: 13 06 01 1f  	addi	a2, sp, 0x1f0
   1e298: 93 06 01 07  	addi	a3, sp, 0x70
   1e29c: 93 07 30 00  	addi	a5, zero, 0x3
   1e2a0: 13 87 07 00  	addi	a4, a5, 0x0
   1e2a4: 93 02 70 00  	addi	t0, zero, 0x7
   1e2a8: 93 07 05 00  	addi	a5, a0, 0x0
   1e2ac: 13 88 0b 00  	addi	a6, s7, 0x0
   1e2b0: 93 88 02 00  	addi	a7, t0, 0x0
   1e2b4: 93 02 06 02  	addi	t0, a2, 0x20
   1e2b8: 13 83 05 00  	addi	t1, a1, 0x0
   1e2bc: 93 03 08 00  	addi	t2, a6, 0x0
   1e2c0: 03 3e 06 00  	ld	t3, 0x0(a2)
   1e2c4: 63 d6 c3 01  	bge	t2, t3, 0x1e2d0 <fill_inverse_cmap+0x378>
   1e2c8: 23 30 76 00  	sd	t2, 0x0(a2)
   1e2cc: 23 80 96 01  	sb	s9, 0x0(a3)
   1e2d0: b3 83 63 00  	add	t2, t2, t1
   1e2d4: 13 03 03 08  	addi	t1, t1, 0x80
   1e2d8: 13 06 86 00  	addi	a2, a2, 0x8
   1e2dc: 93 86 16 00  	addi	a3, a3, 0x1
   1e2e0: e3 10 56 fe  	bne	a2, t0, 0x1e2c0 <fill_inverse_cmap+0x368>
   1e2e4: 33 08 f8 00  	add	a6, a6, a5
   1e2e8: 93 87 07 12  	addi	a5, a5, 0x120
   1e2ec: 9b 82 f8 ff  	addiw	t0, a7, -0x1
   1e2f0: e3 90 08 fc  	bne	a7, zero, 0x1e2b0 <fill_inverse_cmap+0x358>
   1e2f4: b3 8b 4b 01  	add	s7, s7, s4
   1e2f8: 13 0a 0a 20  	addi	s4, s4, 0x200
   1e2fc: 9b 07 f7 ff  	addiw	a5, a4, -0x1
   1e300: e3 10 07 fa  	bne	a4, zero, 0x1e2a0 <fill_inverse_cmap+0x348>
   1e304: 13 09 19 00  	addi	s2, s2, 0x1
   1e308: 83 37 81 06  	ld	a5, 0x68(sp)
   1e30c: e3 16 99 ee  	bne	s2, s1, 0x1e1f8 <fill_inverse_cmap+0x2a0>
   1e310: 13 05 00 00  	addi	a0, zero, 0x0
   1e314: 83 35 01 01  	ld	a1, 0x10(sp)
   1e318: 93 f5 c5 ff  	andi	a1, a1, -0x4
   1e31c: 03 36 81 01  	ld	a2, 0x18(sp)
   1e320: 13 76 86 ff  	andi	a2, a2, -0x8
   1e324: 83 36 01 02  	ld	a3, 0x20(sp)
   1e328: 93 f6 c6 ff  	andi	a3, a3, -0x4
   1e32c: 13 08 01 07  	addi	a6, sp, 0x70
   1e330: 93 96 16 00  	slli	a3, a3, 0x1
   1e334: 13 07 80 00  	addi	a4, zero, 0x8
   1e338: 93 07 40 00  	addi	a5, zero, 0x4
   1e33c: 83 3e 81 02  	ld	t4, 0x28(sp)
   1e340: b3 68 b5 00  	or	a7, a0, a1
   1e344: 93 98 38 00  	slli	a7, a7, 0x3
   1e348: b3 88 1e 01  	add	a7, t4, a7
   1e34c: 83 b8 08 00  	ld	a7, 0x0(a7)
   1e350: 93 02 00 00  	addi	t0, zero, 0x0
   1e354: 33 e3 c2 00  	or	t1, t0, a2
   1e358: 13 13 63 00  	slli	t1, t1, 0x6
   1e35c: 33 83 68 00  	add	t1, a7, t1
   1e360: b3 03 d3 00  	add	t2, t1, a3
   1e364: 13 03 40 00  	addi	t1, zero, 0x4
   1e368: 03 4e 08 00  	lbu	t3, 0x0(a6)
   1e36c: 13 0e 1e 00  	addi	t3, t3, 0x1
   1e370: 23 90 c3 01  	sh	t3, 0x0(t2)
   1e374: 93 83 23 00  	addi	t2, t2, 0x2
   1e378: 13 03 f3 ff  	addi	t1, t1, -0x1
   1e37c: 13 08 18 00  	addi	a6, a6, 0x1
   1e380: e3 14 03 fe  	bne	t1, zero, 0x1e368 <fill_inverse_cmap+0x410>
   1e384: 93 82 12 00  	addi	t0, t0, 0x1
   1e388: e3 96 e2 fc  	bne	t0, a4, 0x1e354 <fill_inverse_cmap+0x3fc>
   1e38c: 13 05 15 00  	addi	a0, a0, 0x1
   1e390: e3 18 f5 fa  	bne	a0, a5, 0x1e340 <fill_inverse_cmap+0x3e8>
   1e394: 13 01 01 7f  	addi	sp, sp, 0x7f0
   1e398: 13 01 01 20  	addi	sp, sp, 0x200
   1e39c: 6f 50 d1 32  	jal	zero, 0x33ec8 <__riscv_restore_12>

000000000001e3a0 <jinit_merged_upsampler>:
   1e3a0: ef 52 f1 30  	jal	t0, 0x33eae <__riscv_save_3>
   1e3a4: 13 04 05 00  	addi	s0, a0, 0x0
   1e3a8: 03 35 85 00  	ld	a0, 0x8(a0)
   1e3ac: 83 36 05 00  	ld	a3, 0x0(a0)
   1e3b0: 93 05 10 00  	addi	a1, zero, 0x1
   1e3b4: 13 06 80 05  	addi	a2, zero, 0x58
   1e3b8: 13 05 04 00  	addi	a0, s0, 0x0
   1e3bc: e7 80 06 00  	jalr	ra, 0x0(a3)
   1e3c0: 93 04 05 00  	addi	s1, a0, 0x0
   1e3c4: 37 e5 01 00  	lui	a0, 0x1e
   1e3c8: 13 06 85 55  	addi	a2, a0, 0x558
   1e3cc: 83 25 04 08  	lw	a1, 0x80(s0)
   1e3d0: 03 25 84 08  	lw	a0, 0x88(s0)
   1e3d4: 23 b0 c4 00  	sd	a2, 0x0(s1)
   1e3d8: 23 38 94 24  	sd	s1, 0x250(s0)
   1e3dc: 23 a8 04 00  	sw	zero, 0x10(s1)
   1e3e0: ef 50 51 31  	jal	ra, 0x33ef4 <__muldi3>
   1e3e4: 83 25 84 18  	lw	a1, 0x188(s0)
   1e3e8: 13 06 20 00  	addi	a2, zero, 0x2
   1e3ec: 23 a6 a4 04  	sw	a0, 0x4c(s1)
   1e3f0: 63 9e c5 02  	bne	a1, a2, 0x1e42c <jinit_merged_upsampler+0x8c>
   1e3f4: b7 e5 01 00  	lui	a1, 0x1e
   1e3f8: 93 85 c5 56  	addi	a1, a1, 0x56c
   1e3fc: 03 36 84 00  	ld	a2, 0x8(s0)
   1e400: 23 b4 b4 00  	sd	a1, 0x8(s1)
   1e404: b7 e5 01 00  	lui	a1, 0x1e
   1e408: 93 85 c5 65  	addi	a1, a1, 0x65c
   1e40c: 83 36 86 00  	ld	a3, 0x8(a2)
   1e410: 23 bc b4 00  	sd	a1, 0x18(s1)
   1e414: 13 15 05 02  	slli	a0, a0, 0x20
   1e418: 13 56 05 02  	srli	a2, a0, 0x20
   1e41c: 93 05 10 00  	addi	a1, zero, 0x1
   1e420: 13 05 04 00  	addi	a0, s0, 0x0
   1e424: e7 80 06 00  	jalr	ra, 0x0(a3)
   1e428: 6f 00 00 02  	jal	zero, 0x1e448 <jinit_merged_upsampler+0xa8>
   1e42c: 13 05 00 00  	addi	a0, zero, 0x0
   1e430: b7 f5 01 00  	lui	a1, 0x1f
   1e434: 93 85 c5 8d  	addi	a1, a1, -0x724
   1e438: 23 b4 b4 00  	sd	a1, 0x8(s1)
   1e43c: b7 f5 01 00  	lui	a1, 0x1f
   1e440: 93 85 05 92  	addi	a1, a1, -0x6e0
   1e444: 23 bc b4 00  	sd	a1, 0x18(s1)
   1e448: 23 b0 a4 04  	sd	a0, 0x40(s1)
   1e44c: 03 35 84 00  	ld	a0, 0x8(s0)
   1e450: 03 39 04 25  	ld	s2, 0x250(s0)
   1e454: 83 36 05 00  	ld	a3, 0x0(a0)
   1e458: 93 05 10 00  	addi	a1, zero, 0x1
   1e45c: 13 06 00 40  	addi	a2, zero, 0x400
   1e460: 93 04 10 00  	addi	s1, zero, 0x1
   1e464: 13 05 04 00  	addi	a0, s0, 0x0
   1e468: e7 80 06 00  	jalr	ra, 0x0(a3)
   1e46c: 83 35 84 00  	ld	a1, 0x8(s0)
   1e470: 83 b6 05 00  	ld	a3, 0x0(a1)
   1e474: 23 30 a9 02  	sd	a0, 0x20(s2)
   1e478: 93 05 10 00  	addi	a1, zero, 0x1
   1e47c: 13 06 00 40  	addi	a2, zero, 0x400
   1e480: 13 05 04 00  	addi	a0, s0, 0x0
   1e484: e7 80 06 00  	jalr	ra, 0x0(a3)
   1e488: 83 35 84 00  	ld	a1, 0x8(s0)
   1e48c: 83 b6 05 00  	ld	a3, 0x0(a1)
   1e490: 23 34 a9 02  	sd	a0, 0x28(s2)
   1e494: 93 94 b4 00  	slli	s1, s1, 0xb
   1e498: 93 05 10 00  	addi	a1, zero, 0x1
   1e49c: 13 05 04 00  	addi	a0, s0, 0x0
   1e4a0: 13 86 04 00  	addi	a2, s1, 0x0
   1e4a4: e7 80 06 00  	jalr	ra, 0x0(a3)
   1e4a8: 83 35 84 00  	ld	a1, 0x8(s0)
   1e4ac: 83 b6 05 00  	ld	a3, 0x0(a1)
   1e4b0: 23 38 a9 02  	sd	a0, 0x30(s2)
   1e4b4: 93 05 10 00  	addi	a1, zero, 0x1
   1e4b8: 13 05 04 00  	addi	a0, s0, 0x0
   1e4bc: 13 86 04 00  	addi	a2, s1, 0x0
   1e4c0: e7 80 06 00  	jalr	ra, 0x0(a3)
   1e4c4: 23 3c a9 02  	sd	a0, 0x38(s2)
   1e4c8: 83 35 09 02  	ld	a1, 0x20(s2)
   1e4cc: 03 36 89 02  	ld	a2, 0x28(s2)
   1e4d0: 83 36 09 03  	ld	a3, 0x30(s2)
   1e4d4: b3 04 95 00  	add	s1, a0, s1
   1e4d8: 37 97 2c 00  	lui	a4, 0x2c9
   1e4dc: 1b 07 07 d0  	addiw	a4, a4, -0x300
   1e4e0: b7 77 5b 00  	lui	a5, 0x5b7
   1e4e4: 9b 87 07 90  	addiw	a5, a5, -0x700
   1e4e8: 37 b8 1d ff  	lui	a6, 0xff1db
   1e4ec: 1b 08 08 f0  	addiw	a6, a6, -0x100
   1e4f0: b7 18 4d ff  	lui	a7, 0xff4d1
   1e4f4: 9b 88 08 b8  	addiw	a7, a7, -0x480
   1e4f8: b7 a2 ff ff  	lui	t0, 0xffffa
   1e4fc: 9b 82 62 7e  	addiw	t0, t0, 0x7e6
   1e500: 37 53 ff ff  	lui	t1, 0xffff5
   1e504: 1b 03 e3 92  	addiw	t1, t1, -0x6d2
   1e508: b7 c3 01 00  	lui	t2, 0x1c
   1e50c: 9b 83 23 5a  	addiw	t2, t2, 0x5a2
   1e510: 37 6e 01 00  	lui	t3, 0x16
   1e514: 1b 0e 9e 6e  	addiw	t3, t3, 0x6e9
   1e518: 93 de 08 01  	srli	t4, a7, 0x10
   1e51c: 23 a0 d5 01  	sw	t4, 0x0(a1)
   1e520: 93 5e 08 01  	srli	t4, a6, 0x10
   1e524: 23 20 d6 01  	sw	t4, 0x0(a2)
   1e528: 23 b0 f6 00  	sd	a5, 0x0(a3)
   1e52c: 23 30 e5 00  	sd	a4, 0x0(a0)
   1e530: 13 05 85 00  	addi	a0, a0, 0x8
   1e534: 93 86 86 00  	addi	a3, a3, 0x8
   1e538: 13 06 46 00  	addi	a2, a2, 0x4
   1e53c: 93 85 45 00  	addi	a1, a1, 0x4
   1e540: 33 07 57 00  	add	a4, a4, t0
   1e544: b3 87 67 00  	add	a5, a5, t1
   1e548: 33 08 78 00  	add	a6, a6, t2
   1e54c: b3 88 c8 01  	add	a7, a7, t3
   1e550: e3 14 95 fc  	bne	a0, s1, 0x1e518 <jinit_merged_upsampler+0x178>
   1e554: 6f 50 11 19  	jal	zero, 0x33ee4 <__riscv_restore_3>

000000000001e558 <start_pass_merged_upsample>:
   1e558: 83 35 05 25  	ld	a1, 0x250(a0)
   1e55c: 03 25 45 08  	lw	a0, 0x84(a0)
   1e560: 23 a4 05 04  	sw	zero, 0x48(a1)
   1e564: 23 a8 a5 04  	sw	a0, 0x50(a1)
   1e568: 67 80 00 00  	jalr	zero, 0x0(ra)

000000000001e56c <merged_2v_upsample>:
   1e56c: ef 52 91 13  	jal	t0, 0x33ea4 <__riscv_save_5>
   1e570: 13 01 01 ff  	addi	sp, sp, -0x10
   1e574: 03 39 05 25  	ld	s2, 0x250(a0)
   1e578: 83 26 89 04  	lw	a3, 0x48(s2)
   1e57c: 93 84 07 00  	addi	s1, a5, 0x0
   1e580: 13 04 06 00  	addi	s0, a2, 0x0
   1e584: 63 8a 06 02  	beq	a3, zero, 0x1e5b8 <merged_2v_upsample+0x4c>
   1e588: 03 e5 04 00  	lwu	a0, 0x0(s1)
   1e58c: 83 27 c9 04  	lw	a5, 0x4c(s2)
   1e590: 13 15 35 00  	slli	a0, a0, 0x3
   1e594: 33 06 a7 00  	add	a2, a4, a0
   1e598: 13 05 09 04  	addi	a0, s2, 0x40
   1e59c: 13 07 10 00  	addi	a4, zero, 0x1
   1e5a0: 93 09 10 00  	addi	s3, zero, 0x1
   1e5a4: 93 05 00 00  	addi	a1, zero, 0x0
   1e5a8: 93 06 00 00  	addi	a3, zero, 0x0
   1e5ac: ef 00 00 5f  	jal	ra, 0x1eb9c <jcopy_sample_rows>
   1e5b0: 23 24 09 04  	sw	zero, 0x48(s2)
   1e5b4: 6f 00 40 07  	jal	zero, 0x1e628 <merged_2v_upsample+0xbc>
   1e5b8: 03 e6 04 00  	lwu	a2, 0x0(s1)
   1e5bc: 83 26 09 05  	lw	a3, 0x50(s2)
   1e5c0: bb 07 c8 40  	subw	a5, a6, a2
   1e5c4: 63 e4 f6 00  	bltu	a3, a5, 0x1e5cc <merged_2v_upsample+0x60>
   1e5c8: 93 86 07 00  	addi	a3, a5, 0x0
   1e5cc: 93 07 20 00  	addi	a5, zero, 0x2
   1e5d0: 93 89 06 00  	addi	s3, a3, 0x0
   1e5d4: 63 e4 f6 00  	bltu	a3, a5, 0x1e5dc <merged_2v_upsample+0x70>
   1e5d8: 93 09 20 00  	addi	s3, zero, 0x2
   1e5dc: 13 18 36 00  	slli	a6, a2, 0x3
   1e5e0: 33 08 07 01  	add	a6, a4, a6
   1e5e4: 03 38 08 00  	ld	a6, 0x0(a6)
   1e5e8: 23 30 01 01  	sd	a6, 0x0(sp)
   1e5ec: 63 ee f6 00  	bltu	a3, a5, 0x1e608 <merged_2v_upsample+0x9c>
   1e5f0: 13 06 16 00  	addi	a2, a2, 0x1
   1e5f4: 13 16 06 02  	slli	a2, a2, 0x20
   1e5f8: 13 56 d6 01  	srli	a2, a2, 0x1d
   1e5fc: 33 06 c7 00  	add	a2, a4, a2
   1e600: 83 36 06 00  	ld	a3, 0x0(a2)
   1e604: 6f 00 00 01  	jal	zero, 0x1e614 <merged_2v_upsample+0xa8>
   1e608: 83 36 09 04  	ld	a3, 0x40(s2)
   1e60c: 13 06 10 00  	addi	a2, zero, 0x1
   1e610: 23 24 c9 04  	sw	a2, 0x48(s2)
   1e614: 03 37 89 01  	ld	a4, 0x18(s2)
   1e618: 03 26 04 00  	lw	a2, 0x0(s0)
   1e61c: 23 34 d1 00  	sd	a3, 0x8(sp)
   1e620: 93 06 01 00  	addi	a3, sp, 0x0
   1e624: e7 00 07 00  	jalr	ra, 0x0(a4)
   1e628: 03 a5 04 00  	lw	a0, 0x0(s1)
   1e62c: 33 05 35 01  	add	a0, a0, s3
   1e630: 23 a0 a4 00  	sw	a0, 0x0(s1)
   1e634: 03 25 09 05  	lw	a0, 0x50(s2)
   1e638: 83 25 89 04  	lw	a1, 0x48(s2)
   1e63c: 3b 05 35 41  	subw	a0, a0, s3
   1e640: 23 28 a9 04  	sw	a0, 0x50(s2)
   1e644: 63 98 05 00  	bne	a1, zero, 0x1e654 <merged_2v_upsample+0xe8>
   1e648: 03 25 04 00  	lw	a0, 0x0(s0)
   1e64c: 13 05 15 00  	addi	a0, a0, 0x1
   1e650: 23 20 a4 00  	sw	a0, 0x0(s0)
   1e654: 13 01 01 01  	addi	sp, sp, 0x10
   1e658: 6f 50 71 08  	jal	zero, 0x33ede <__riscv_restore_5>

000000000001e65c <h2v2_merged_upsample>:
   1e65c: ef 52 31 02  	jal	t0, 0x33e7e <__riscv_save_12>
   1e660: 13 04 05 00  	addi	s0, a0, 0x0
   1e664: 03 35 05 25  	ld	a0, 0x250(a0)
   1e668: 83 34 84 19  	ld	s1, 0x198(s0)
   1e66c: 03 3b 05 02  	ld	s6, 0x20(a0)
   1e670: 03 39 85 02  	ld	s2, 0x28(a0)
   1e674: 03 3a 05 03  	ld	s4, 0x30(a0)
   1e678: 83 3b 85 03  	ld	s7, 0x38(a0)
   1e67c: 03 b5 05 00  	ld	a0, 0x0(a1)
   1e680: 13 17 16 00  	slli	a4, a2, 0x1
   1e684: 93 17 16 02  	slli	a5, a2, 0x21
   1e688: 93 d7 d7 01  	srli	a5, a5, 0x1d
   1e68c: b3 07 f5 00  	add	a5, a0, a5
   1e690: 83 bc 07 00  	ld	s9, 0x0(a5)
   1e694: 13 07 17 00  	addi	a4, a4, 0x1
   1e698: 13 17 07 02  	slli	a4, a4, 0x20
   1e69c: 13 57 d7 01  	srli	a4, a4, 0x1d
   1e6a0: 33 05 e5 00  	add	a0, a0, a4
   1e6a4: 03 3c 05 00  	ld	s8, 0x0(a0)
   1e6a8: 03 b5 85 00  	ld	a0, 0x8(a1)
   1e6ac: 13 16 06 02  	slli	a2, a2, 0x20
   1e6b0: 83 b5 05 01  	ld	a1, 0x10(a1)
   1e6b4: 13 56 d6 01  	srli	a2, a2, 0x1d
   1e6b8: 33 05 c5 00  	add	a0, a0, a2
   1e6bc: 03 3d 05 00  	ld	s10, 0x0(a0)
   1e6c0: b3 85 c5 00  	add	a1, a1, a2
   1e6c4: 83 bd 05 00  	ld	s11, 0x0(a1)
   1e6c8: 03 65 04 08  	lwu	a0, 0x80(s0)
   1e6cc: 83 ba 06 00  	ld	s5, 0x0(a3)
   1e6d0: 83 b9 86 00  	ld	s3, 0x8(a3)
   1e6d4: 93 55 15 00  	srli	a1, a0, 0x1
   1e6d8: 63 88 05 14  	beq	a1, zero, 0x1e828 <h2v2_merged_upsample+0x1cc>
   1e6dc: 93 85 f5 ff  	addi	a1, a1, -0x1
   1e6e0: 13 95 05 02  	slli	a0, a1, 0x20
   1e6e4: 13 55 05 02  	srli	a0, a0, 0x20
   1e6e8: 93 05 60 00  	addi	a1, zero, 0x6
   1e6ec: ef 50 91 00  	jal	ra, 0x33ef4 <__muldi3>
   1e6f0: 33 05 55 01  	add	a0, a0, s5
   1e6f4: 13 05 65 00  	addi	a0, a0, 0x6
   1e6f8: 83 c5 0d 00  	lbu	a1, 0x0(s11)
   1e6fc: 03 46 0d 00  	lbu	a2, 0x0(s10)
   1e700: 93 96 25 00  	slli	a3, a1, 0x2
   1e704: b3 06 db 00  	add	a3, s6, a3
   1e708: 13 17 36 00  	slli	a4, a2, 0x3
   1e70c: 33 87 eb 00  	add	a4, s7, a4
   1e710: 03 37 07 00  	ld	a4, 0x0(a4)
   1e714: 93 95 35 00  	slli	a1, a1, 0x3
   1e718: b3 05 ba 00  	add	a1, s4, a1
   1e71c: 83 b5 05 00  	ld	a1, 0x0(a1)
   1e720: 83 a6 06 00  	lw	a3, 0x0(a3)
   1e724: 83 c7 0c 00  	lbu	a5, 0x0(s9)
   1e728: b3 85 e5 00  	add	a1, a1, a4
   1e72c: 93 d5 05 01  	srli	a1, a1, 0x10
   1e730: 3b 87 f6 00  	addw	a4, a3, a5
   1e734: 33 87 e4 00  	add	a4, s1, a4
   1e738: 03 47 07 00  	lbu	a4, 0x0(a4)
   1e73c: 13 16 26 00  	slli	a2, a2, 0x2
   1e740: 33 06 c9 00  	add	a2, s2, a2
   1e744: 03 26 06 00  	lw	a2, 0x0(a2)
   1e748: 23 80 ea 00  	sb	a4, 0x0(s5)
   1e74c: 3b 87 b7 00  	addw	a4, a5, a1
   1e750: 33 87 e4 00  	add	a4, s1, a4
   1e754: 03 47 07 00  	lbu	a4, 0x0(a4)
   1e758: a3 80 ea 00  	sb	a4, 0x1(s5)
   1e75c: bb 07 f6 00  	addw	a5, a2, a5
   1e760: b3 87 f4 00  	add	a5, s1, a5
   1e764: 03 c7 07 00  	lbu	a4, 0x0(a5)
   1e768: 23 81 ea 00  	sb	a4, 0x2(s5)
   1e76c: 03 c7 1c 00  	lbu	a4, 0x1(s9)
   1e770: bb 87 e6 00  	addw	a5, a3, a4
   1e774: b3 87 f4 00  	add	a5, s1, a5
   1e778: 83 c7 07 00  	lbu	a5, 0x0(a5)
   1e77c: a3 81 fa 00  	sb	a5, 0x3(s5)
   1e780: bb 07 b7 00  	addw	a5, a4, a1
   1e784: b3 87 f4 00  	add	a5, s1, a5
   1e788: 83 c7 07 00  	lbu	a5, 0x0(a5)
   1e78c: 23 82 fa 00  	sb	a5, 0x4(s5)
   1e790: 3b 07 e6 00  	addw	a4, a2, a4
   1e794: 33 87 e4 00  	add	a4, s1, a4
   1e798: 03 47 07 00  	lbu	a4, 0x0(a4)
   1e79c: a3 82 ea 00  	sb	a4, 0x5(s5)
   1e7a0: 03 47 0c 00  	lbu	a4, 0x0(s8)
   1e7a4: bb 87 e6 00  	addw	a5, a3, a4
   1e7a8: b3 87 f4 00  	add	a5, s1, a5
   1e7ac: 83 c7 07 00  	lbu	a5, 0x0(a5)
   1e7b0: 23 80 f9 00  	sb	a5, 0x0(s3)
   1e7b4: bb 07 b7 00  	addw	a5, a4, a1
   1e7b8: b3 87 f4 00  	add	a5, s1, a5
   1e7bc: 83 c7 07 00  	lbu	a5, 0x0(a5)
   1e7c0: a3 80 f9 00  	sb	a5, 0x1(s3)
   1e7c4: 3b 07 e6 00  	addw	a4, a2, a4
   1e7c8: 33 87 e4 00  	add	a4, s1, a4
   1e7cc: 03 47 07 00  	lbu	a4, 0x0(a4)
   1e7d0: 23 81 e9 00  	sb	a4, 0x2(s3)
   1e7d4: 03 47 1c 00  	lbu	a4, 0x1(s8)
   1e7d8: bb 86 e6 00  	addw	a3, a3, a4
   1e7dc: b3 86 d4 00  	add	a3, s1, a3
   1e7e0: 83 c6 06 00  	lbu	a3, 0x0(a3)
   1e7e4: a3 81 d9 00  	sb	a3, 0x3(s3)
   1e7e8: bb 05 b7 00  	addw	a1, a4, a1
   1e7ec: b3 85 b4 00  	add	a1, s1, a1
   1e7f0: 83 c5 05 00  	lbu	a1, 0x0(a1)
   1e7f4: 13 0d 1d 00  	addi	s10, s10, 0x1
   1e7f8: 93 8d 1d 00  	addi	s11, s11, 0x1
   1e7fc: 23 82 b9 00  	sb	a1, 0x4(s3)
   1e800: 3b 06 e6 00  	addw	a2, a2, a4
   1e804: 33 86 c4 00  	add	a2, s1, a2
   1e808: 83 45 06 00  	lbu	a1, 0x0(a2)
   1e80c: 93 8c 2c 00  	addi	s9, s9, 0x2
   1e810: 93 8a 6a 00  	addi	s5, s5, 0x6
   1e814: 13 0c 2c 00  	addi	s8, s8, 0x2
   1e818: a3 82 b9 00  	sb	a1, 0x5(s3)
   1e81c: 93 89 69 00  	addi	s3, s3, 0x6
   1e820: e3 9c aa ec  	bne	s5, a0, 0x1e6f8 <h2v2_merged_upsample+0x9c>
   1e824: 03 25 04 08  	lw	a0, 0x80(s0)
   1e828: 13 75 15 00  	andi	a0, a0, 0x1
   1e82c: 63 06 05 0a  	beq	a0, zero, 0x1e8d8 <h2v2_merged_upsample+0x27c>
   1e830: 03 c5 0d 00  	lbu	a0, 0x0(s11)
   1e834: 83 45 0d 00  	lbu	a1, 0x0(s10)
   1e838: 13 16 25 00  	slli	a2, a0, 0x2
   1e83c: 33 06 cb 00  	add	a2, s6, a2
   1e840: 93 96 35 00  	slli	a3, a1, 0x3
   1e844: b3 86 db 00  	add	a3, s7, a3
   1e848: 83 b6 06 00  	ld	a3, 0x0(a3)
   1e84c: 13 15 35 00  	slli	a0, a0, 0x3
   1e850: 33 05 aa 00  	add	a0, s4, a0
   1e854: 03 35 05 00  	ld	a0, 0x0(a0)
   1e858: 03 26 06 00  	lw	a2, 0x0(a2)
   1e85c: 03 c7 0c 00  	lbu	a4, 0x0(s9)
   1e860: 33 05 d5 00  	add	a0, a0, a3
   1e864: 13 55 05 01  	srli	a0, a0, 0x10
   1e868: bb 06 e6 00  	addw	a3, a2, a4
   1e86c: b3 86 d4 00  	add	a3, s1, a3
   1e870: 83 c6 06 00  	lbu	a3, 0x0(a3)
   1e874: 93 95 25 00  	slli	a1, a1, 0x2
   1e878: b3 05 b9 00  	add	a1, s2, a1
   1e87c: 83 a5 05 00  	lw	a1, 0x0(a1)
   1e880: 23 80 da 00  	sb	a3, 0x0(s5)
   1e884: bb 06 a7 00  	addw	a3, a4, a0
   1e888: b3 86 d4 00  	add	a3, s1, a3
   1e88c: 83 c6 06 00  	lbu	a3, 0x0(a3)
   1e890: a3 80 da 00  	sb	a3, 0x1(s5)
   1e894: 3b 87 e5 00  	addw	a4, a1, a4
   1e898: 33 87 e4 00  	add	a4, s1, a4
   1e89c: 83 46 07 00  	lbu	a3, 0x0(a4)
   1e8a0: 23 81 da 00  	sb	a3, 0x2(s5)
   1e8a4: 83 46 0c 00  	lbu	a3, 0x0(s8)
   1e8a8: 3b 06 d6 00  	addw	a2, a2, a3
   1e8ac: 33 86 c4 00  	add	a2, s1, a2
   1e8b0: 03 46 06 00  	lbu	a2, 0x0(a2)
   1e8b4: 23 80 c9 00  	sb	a2, 0x0(s3)
   1e8b8: 3b 85 a6 00  	addw	a0, a3, a0
   1e8bc: 33 85 a4 00  	add	a0, s1, a0
   1e8c0: 03 45 05 00  	lbu	a0, 0x0(a0)
   1e8c4: a3 80 a9 00  	sb	a0, 0x1(s3)
   1e8c8: bb 85 d5 00  	addw	a1, a1, a3
   1e8cc: b3 85 b4 00  	add	a1, s1, a1
   1e8d0: 03 c5 05 00  	lbu	a0, 0x0(a1)
   1e8d4: 23 81 a9 00  	sb	a0, 0x2(s3)
   1e8d8: 6f 50 01 5f  	jal	zero, 0x33ec8 <__riscv_restore_12>

000000000001e8dc <merged_1v_upsample>:
   1e8dc: ef 52 21 5d  	jal	t0, 0x33eae <__riscv_save_3>
   1e8e0: 83 36 05 25  	ld	a3, 0x250(a0)
   1e8e4: 13 84 07 00  	addi	s0, a5, 0x0
   1e8e8: 93 04 06 00  	addi	s1, a2, 0x0
   1e8ec: 83 e7 07 00  	lwu	a5, 0x0(a5)
   1e8f0: 03 b8 86 01  	ld	a6, 0x18(a3)
   1e8f4: 03 26 06 00  	lw	a2, 0x0(a2)
   1e8f8: 93 96 37 00  	slli	a3, a5, 0x3
   1e8fc: b3 06 d7 00  	add	a3, a4, a3
   1e900: e7 00 08 00  	jalr	ra, 0x0(a6)
   1e904: 03 25 04 00  	lw	a0, 0x0(s0)
   1e908: 13 05 15 00  	addi	a0, a0, 0x1
   1e90c: 23 20 a4 00  	sw	a0, 0x0(s0)
   1e910: 03 a5 04 00  	lw	a0, 0x0(s1)
   1e914: 13 05 15 00  	addi	a0, a0, 0x1
   1e918: 23 a0 a4 00  	sw	a0, 0x0(s1)
   1e91c: 6f 50 81 5c  	jal	zero, 0x33ee4 <__riscv_restore_3>

000000000001e920 <h2v1_merged_upsample>:
   1e920: ef 52 61 56  	jal	t0, 0x33e86 <__riscv_save_11>
   1e924: 13 04 05 00  	addi	s0, a0, 0x0
   1e928: 03 35 05 25  	ld	a0, 0x250(a0)
   1e92c: 83 34 84 19  	ld	s1, 0x198(s0)
   1e930: 83 3a 05 02  	ld	s5, 0x20(a0)
   1e934: 03 39 85 02  	ld	s2, 0x28(a0)
   1e938: 03 3a 05 03  	ld	s4, 0x30(a0)
   1e93c: 03 3b 85 03  	ld	s6, 0x38(a0)
   1e940: 03 b5 05 00  	ld	a0, 0x0(a1)
   1e944: 13 16 06 02  	slli	a2, a2, 0x20
   1e948: 13 56 d6 01  	srli	a2, a2, 0x1d
   1e94c: 03 b7 85 00  	ld	a4, 0x8(a1)
   1e950: 33 05 c5 00  	add	a0, a0, a2
   1e954: 83 b5 05 01  	ld	a1, 0x10(a1)
   1e958: 83 3b 05 00  	ld	s7, 0x0(a0)
   1e95c: 33 07 c7 00  	add	a4, a4, a2
   1e960: 03 3c 07 00  	ld	s8, 0x0(a4)
   1e964: b3 85 c5 00  	add	a1, a1, a2
   1e968: 03 65 04 08  	lwu	a0, 0x80(s0)
   1e96c: 83 bc 05 00  	ld	s9, 0x0(a1)
   1e970: 83 b9 06 00  	ld	s3, 0x0(a3)
   1e974: 93 55 15 00  	srli	a1, a0, 0x1
   1e978: 63 80 05 0e  	beq	a1, zero, 0x1ea58 <h2v1_merged_upsample+0x138>
   1e97c: 93 85 f5 ff  	addi	a1, a1, -0x1
   1e980: 13 95 05 02  	slli	a0, a1, 0x20
   1e984: 13 55 05 02  	srli	a0, a0, 0x20
   1e988: 93 05 60 00  	addi	a1, zero, 0x6
   1e98c: ef 50 81 56  	jal	ra, 0x33ef4 <__muldi3>
   1e990: 33 05 35 01  	add	a0, a0, s3
   1e994: 13 05 65 00  	addi	a0, a0, 0x6
   1e998: 83 c5 0c 00  	lbu	a1, 0x0(s9)
   1e99c: 03 46 0c 00  	lbu	a2, 0x0(s8)
   1e9a0: 93 96 25 00  	slli	a3, a1, 0x2
   1e9a4: b3 86 da 00  	add	a3, s5, a3
   1e9a8: 13 17 36 00  	slli	a4, a2, 0x3
   1e9ac: 33 07 eb 00  	add	a4, s6, a4
   1e9b0: 03 37 07 00  	ld	a4, 0x0(a4)
   1e9b4: 93 95 35 00  	slli	a1, a1, 0x3
   1e9b8: b3 05 ba 00  	add	a1, s4, a1
   1e9bc: 83 b5 05 00  	ld	a1, 0x0(a1)
   1e9c0: 83 a6 06 00  	lw	a3, 0x0(a3)
   1e9c4: 83 c7 0b 00  	lbu	a5, 0x0(s7)
   1e9c8: b3 85 e5 00  	add	a1, a1, a4
   1e9cc: 93 d5 05 01  	srli	a1, a1, 0x10
   1e9d0: 3b 87 f6 00  	addw	a4, a3, a5
   1e9d4: 33 87 e4 00  	add	a4, s1, a4
   1e9d8: 03 47 07 00  	lbu	a4, 0x0(a4)
   1e9dc: 13 16 26 00  	slli	a2, a2, 0x2
   1e9e0: 33 06 c9 00  	add	a2, s2, a2
   1e9e4: 03 26 06 00  	lw	a2, 0x0(a2)
   1e9e8: 23 80 e9 00  	sb	a4, 0x0(s3)
   1e9ec: 3b 87 b7 00  	addw	a4, a5, a1
   1e9f0: 33 87 e4 00  	add	a4, s1, a4
   1e9f4: 03 47 07 00  	lbu	a4, 0x0(a4)
   1e9f8: a3 80 e9 00  	sb	a4, 0x1(s3)
   1e9fc: bb 07 f6 00  	addw	a5, a2, a5
   1ea00: b3 87 f4 00  	add	a5, s1, a5
   1ea04: 03 c7 07 00  	lbu	a4, 0x0(a5)
   1ea08: 23 81 e9 00  	sb	a4, 0x2(s3)
   1ea0c: 03 c7 1b 00  	lbu	a4, 0x1(s7)
   1ea10: bb 86 e6 00  	addw	a3, a3, a4
   1ea14: b3 86 d4 00  	add	a3, s1, a3
   1ea18: 83 c6 06 00  	lbu	a3, 0x0(a3)
   1ea1c: a3 81 d9 00  	sb	a3, 0x3(s3)
   1ea20: bb 05 b7 00  	addw	a1, a4, a1
   1ea24: b3 85 b4 00  	add	a1, s1, a1
   1ea28: 83 c5 05 00  	lbu	a1, 0x0(a1)
   1ea2c: 23 82 b9 00  	sb	a1, 0x4(s3)
   1ea30: 3b 06 e6 00  	addw	a2, a2, a4
   1ea34: 33 86 c4 00  	add	a2, s1, a2
   1ea38: 83 45 06 00  	lbu	a1, 0x0(a2)
   1ea3c: 13 0c 1c 00  	addi	s8, s8, 0x1
   1ea40: 93 8c 1c 00  	addi	s9, s9, 0x1
   1ea44: a3 82 b9 00  	sb	a1, 0x5(s3)
   1ea48: 93 89 69 00  	addi	s3, s3, 0x6
   1ea4c: 93 8b 2b 00  	addi	s7, s7, 0x2
   1ea50: e3 94 a9 f4  	bne	s3, a0, 0x1e998 <h2v1_merged_upsample+0x78>
   1ea54: 03 25 04 08  	lw	a0, 0x80(s0)
   1ea58: 13 75 15 00  	andi	a0, a0, 0x1
   1ea5c: 63 0c 05 06  	beq	a0, zero, 0x1ead4 <h2v1_merged_upsample+0x1b4>
   1ea60: 03 c5 0c 00  	lbu	a0, 0x0(s9)
   1ea64: 83 45 0c 00  	lbu	a1, 0x0(s8)
   1ea68: 13 16 25 00  	slli	a2, a0, 0x2
   1ea6c: 33 86 ca 00  	add	a2, s5, a2
   1ea70: 93 96 35 00  	slli	a3, a1, 0x3
   1ea74: b3 06 db 00  	add	a3, s6, a3
   1ea78: 83 b6 06 00  	ld	a3, 0x0(a3)
   1ea7c: 13 15 35 00  	slli	a0, a0, 0x3
   1ea80: 33 05 aa 00  	add	a0, s4, a0
   1ea84: 03 35 05 00  	ld	a0, 0x0(a0)
   1ea88: 03 26 06 00  	lw	a2, 0x0(a2)
   1ea8c: 03 c7 0b 00  	lbu	a4, 0x0(s7)
   1ea90: 33 05 d5 00  	add	a0, a0, a3
   1ea94: 13 55 05 01  	srli	a0, a0, 0x10
   1ea98: 3b 06 e6 00  	addw	a2, a2, a4
   1ea9c: 33 86 c4 00  	add	a2, s1, a2
   1eaa0: 03 46 06 00  	lbu	a2, 0x0(a2)
   1eaa4: 93 95 25 00  	slli	a1, a1, 0x2
   1eaa8: b3 05 b9 00  	add	a1, s2, a1
   1eaac: 83 a5 05 00  	lw	a1, 0x0(a1)
   1eab0: 23 80 c9 00  	sb	a2, 0x0(s3)
   1eab4: 3b 05 a7 00  	addw	a0, a4, a0
   1eab8: 33 85 a4 00  	add	a0, s1, a0
   1eabc: 03 45 05 00  	lbu	a0, 0x0(a0)
   1eac0: a3 80 a9 00  	sb	a0, 0x1(s3)
   1eac4: bb 85 e5 00  	addw	a1, a1, a4
   1eac8: b3 85 b4 00  	add	a1, s1, a1
   1eacc: 03 c5 05 00  	lbu	a0, 0x0(a1)
   1ead0: 23 81 a9 00  	sb	a0, 0x2(s3)
   1ead4: 6f 50 81 3f  	jal	zero, 0x33ecc <__riscv_restore_11>

000000000001ead8 <jpeg_abort>:
   1ead8: ef 52 81 3e  	jal	t0, 0x33ec0 <__riscv_save_1>
   1eadc: 13 04 05 00  	addi	s0, a0, 0x0
   1eae0: 03 35 85 00  	ld	a0, 0x8(a0)
   1eae4: 03 36 85 04  	ld	a2, 0x48(a0)
   1eae8: 93 05 10 00  	addi	a1, zero, 0x1
   1eaec: 13 05 04 00  	addi	a0, s0, 0x0
   1eaf0: e7 00 06 00  	jalr	ra, 0x0(a2)
   1eaf4: 83 25 84 01  	lw	a1, 0x18(s0)
   1eaf8: 13 05 40 06  	addi	a0, zero, 0x64
   1eafc: 63 84 05 00  	beq	a1, zero, 0x1eb04 <jpeg_abort+0x2c>
   1eb00: 13 05 80 0c  	addi	a0, zero, 0xc8
   1eb04: 23 2e a4 00  	sw	a0, 0x1c(s0)
   1eb08: 6f 50 21 3e  	jal	zero, 0x33eea <__riscv_restore_1>

000000000001eb0c <jpeg_destroy>:
   1eb0c: ef 52 41 3b  	jal	t0, 0x33ec0 <__riscv_save_1>
   1eb10: 13 04 05 00  	addi	s0, a0, 0x0
   1eb14: 03 35 85 00  	ld	a0, 0x8(a0)
   1eb18: 63 08 05 00  	beq	a0, zero, 0x1eb28 <jpeg_destroy+0x1c>
   1eb1c: 83 35 05 05  	ld	a1, 0x50(a0)
   1eb20: 13 05 04 00  	addi	a0, s0, 0x0
   1eb24: e7 80 05 00  	jalr	ra, 0x0(a1)
   1eb28: 23 34 04 00  	sd	zero, 0x8(s0)
   1eb2c: 23 2e 04 00  	sw	zero, 0x1c(s0)
   1eb30: 6f 50 a1 3b  	jal	zero, 0x33eea <__riscv_restore_1>

000000000001eb34 <jpeg_alloc_quant_table>:
   1eb34: ef 52 c1 38  	jal	t0, 0x33ec0 <__riscv_save_1>
   1eb38: 83 35 85 00  	ld	a1, 0x8(a0)
   1eb3c: 83 b6 05 00  	ld	a3, 0x0(a1)
   1eb40: 13 06 40 08  	addi	a2, zero, 0x84
   1eb44: 93 05 00 00  	addi	a1, zero, 0x0
   1eb48: e7 80 06 00  	jalr	ra, 0x0(a3)
   1eb4c: 23 20 05 08  	sw	zero, 0x80(a0)
   1eb50: 6f 50 a1 39  	jal	zero, 0x33eea <__riscv_restore_1>

000000000001eb54 <jpeg_alloc_huff_table>:
   1eb54: ef 52 c1 36  	jal	t0, 0x33ec0 <__riscv_save_1>
   1eb58: 83 35 85 00  	ld	a1, 0x8(a0)
   1eb5c: 83 b6 05 00  	ld	a3, 0x0(a1)
   1eb60: 13 06 80 11  	addi	a2, zero, 0x118
   1eb64: 93 05 00 00  	addi	a1, zero, 0x0
   1eb68: e7 80 06 00  	jalr	ra, 0x0(a3)
   1eb6c: 23 2a 05 10  	sw	zero, 0x114(a0)
   1eb70: 6f 50 a1 37  	jal	zero, 0x33eea <__riscv_restore_1>

000000000001eb74 <jdiv_round_up>:
   1eb74: 33 05 b5 00  	add	a0, a0, a1
   1eb78: 13 05 f5 ff  	addi	a0, a0, -0x1
   1eb7c: 6f 50 81 3b  	jal	zero, 0x33f34 <__divdi3>

000000000001eb80 <jround_up>:
   1eb80: ef 52 01 34  	jal	t0, 0x33ec0 <__riscv_save_1>
   1eb84: 33 05 b5 00  	add	a0, a0, a1
   1eb88: 13 04 f5 ff  	addi	s0, a0, -0x1
   1eb8c: 13 05 04 00  	addi	a0, s0, 0x0
   1eb90: ef 50 01 40  	jal	ra, 0x33f90 <__modsi3>
   1eb94: 33 05 a4 40  	sub	a0, s0, a0
   1eb98: 6f 50 21 35  	jal	zero, 0x33eea <__riscv_restore_1>

000000000001eb9c <jcopy_sample_rows>:
   1eb9c: 63 52 e0 06  	bge	zero, a4, 0x1ec00 <jcopy_sample_rows+0x64>
   1eba0: ef 52 41 30  	jal	t0, 0x33ea4 <__riscv_save_5>
   1eba4: 93 97 07 02  	slli	a5, a5, 0x20
   1eba8: 13 d4 07 02  	srli	s0, a5, 0x20
   1ebac: 13 98 36 00  	slli	a6, a3, 0x3
   1ebb0: b3 06 06 01  	add	a3, a2, a6
   1ebb4: 93 95 35 00  	slli	a1, a1, 0x3
   1ebb8: b3 07 b5 00  	add	a5, a0, a1
   1ebbc: 13 07 f7 ff  	addi	a4, a4, -0x1
   1ebc0: 13 17 07 02  	slli	a4, a4, 0x20
   1ebc4: 13 57 d7 01  	srli	a4, a4, 0x1d
   1ebc8: 33 06 c8 00  	add	a2, a6, a2
   1ebcc: 33 06 e6 00  	add	a2, a2, a4
   1ebd0: 93 04 86 00  	addi	s1, a2, 0x8
   1ebd4: 83 b5 07 00  	ld	a1, 0x0(a5)
   1ebd8: 03 b5 06 00  	ld	a0, 0x0(a3)
   1ebdc: 13 89 87 00  	addi	s2, a5, 0x8
   1ebe0: 93 89 86 00  	addi	s3, a3, 0x8
   1ebe4: 13 06 04 00  	addi	a2, s0, 0x0
   1ebe8: ef 30 20 1c  	jal	ra, 0x21daa <memcpy>
   1ebec: 93 07 09 00  	addi	a5, s2, 0x0
   1ebf0: 93 86 09 00  	addi	a3, s3, 0x0
   1ebf4: e3 90 99 fe  	bne	s3, s1, 0x1ebd4 <jcopy_sample_rows+0x38>
   1ebf8: 6f 50 61 2e  	jal	zero, 0x33ede <__riscv_restore_5>
   1ebfc: 6f 00 40 00  	jal	zero, 0x1ec00 <jcopy_sample_rows+0x64>
   1ec00: 67 80 00 00  	jalr	zero, 0x0(ra)

000000000001ec04 <jcopy_block_row>:
   1ec04: 13 16 06 02  	slli	a2, a2, 0x20
   1ec08: 13 56 96 01  	srli	a2, a2, 0x19
   1ec0c: 93 06 05 00  	addi	a3, a0, 0x0
   1ec10: 13 85 05 00  	addi	a0, a1, 0x0
   1ec14: 93 85 06 00  	addi	a1, a3, 0x0
   1ec18: 6f 30 20 19  	jal	zero, 0x21daa <memcpy>

000000000001ec1c <jzero_far>:
   1ec1c: 13 86 05 00  	addi	a2, a1, 0x0
   1ec20: 93 05 00 00  	addi	a1, zero, 0x0
   1ec24: 6f 30 c0 0d  	jal	zero, 0x21d00 <memset>

000000000001ec28 <jpeg_std_error>:
   1ec28: b7 f5 01 00  	lui	a1, 0x1f
   1ec2c: 93 85 05 c9  	addi	a1, a1, -0x370
   1ec30: 23 30 b5 00  	sd	a1, 0x0(a0)
   1ec34: b7 f5 01 00  	lui	a1, 0x1f
   1ec38: 93 85 85 cb  	addi	a1, a1, -0x348
   1ec3c: 23 34 b5 00  	sd	a1, 0x8(a0)
   1ec40: b7 f5 01 00  	lui	a1, 0x1f
   1ec44: 93 85 05 d2  	addi	a1, a1, -0x2e0
   1ec48: 23 38 b5 00  	sd	a1, 0x10(a0)
   1ec4c: b7 f5 01 00  	lui	a1, 0x1f
   1ec50: 93 85 85 d5  	addi	a1, a1, -0x2a8
   1ec54: 23 3c b5 00  	sd	a1, 0x18(a0)
   1ec58: b7 f5 01 00  	lui	a1, 0x1f
   1ec5c: 93 85 85 e2  	addi	a1, a1, -0x1d8
   1ec60: 23 30 b5 02  	sd	a1, 0x20(a0)
   1ec64: 23 2e 05 06  	sw	zero, 0x7c(a0)
   1ec68: 23 30 05 08  	sd	zero, 0x80(a0)
   1ec6c: 23 24 05 02  	sw	zero, 0x28(a0)
   1ec70: b7 65 03 00  	lui	a1, 0x36
   1ec74: 93 85 05 30  	addi	a1, a1, 0x300
   1ec78: 23 34 b5 08  	sd	a1, 0x88(a0)
   1ec7c: 93 05 70 07  	addi	a1, zero, 0x77
   1ec80: 23 28 b5 08  	sw	a1, 0x90(a0)
   1ec84: 23 3c 05 08  	sd	zero, 0x98(a0)
   1ec88: 23 30 05 0a  	sd	zero, 0xa0(a0)
   1ec8c: 67 80 00 00  	jalr	zero, 0x0(ra)

000000000001ec90 <error_exit>:
   1ec90: ef 52 01 23  	jal	t0, 0x33ec0 <__riscv_save_1>
   1ec94: 13 04 05 00  	addi	s0, a0, 0x0
   1ec98: 03 35 05 00  	ld	a0, 0x0(a0)
   1ec9c: 83 35 05 01  	ld	a1, 0x10(a0)
   1eca0: 13 05 04 00  	addi	a0, s0, 0x0
   1eca4: e7 80 05 00  	jalr	ra, 0x0(a1)
   1eca8: 13 05 04 00  	addi	a0, s0, 0x0
   1ecac: ef f0 1f e6  	jal	ra, 0x1eb0c <jpeg_destroy>
   1ecb0: 13 05 10 00  	addi	a0, zero, 0x1
   1ecb4: ef 10 cf c6  	jal	ra, 0x10120 <exit>

000000000001ecb8 <emit_message>:
   1ecb8: 13 01 01 ff  	addi	sp, sp, -0x10
   1ecbc: 23 34 11 00  	sd	ra, 0x8(sp)
   1ecc0: 23 30 81 00  	sd	s0, 0x0(sp)
   1ecc4: 03 34 05 00  	ld	s0, 0x0(a0)
   1ecc8: 63 c0 05 02  	blt	a1, zero, 0x1ece8 <emit_message+0x30>
   1eccc: 03 26 c4 07  	lw	a2, 0x7c(s0)
   1ecd0: 63 40 b6 04  	blt	a2, a1, 0x1ed10 <emit_message+0x58>
   1ecd4: 03 33 04 01  	ld	t1, 0x10(s0)
   1ecd8: 83 30 81 00  	ld	ra, 0x8(sp)
   1ecdc: 03 34 01 00  	ld	s0, 0x0(sp)
   1ece0: 13 01 01 01  	addi	sp, sp, 0x10
   1ece4: 67 00 03 00  	jalr	zero, 0x0(t1)
   1ece8: 83 35 04 08  	ld	a1, 0x80(s0)
   1ecec: 63 88 05 00  	beq	a1, zero, 0x1ecfc <emit_message+0x44>
   1ecf0: 03 26 c4 07  	lw	a2, 0x7c(s0)
   1ecf4: 93 06 30 00  	addi	a3, zero, 0x3
   1ecf8: 63 48 d6 00  	blt	a2, a3, 0x1ed08 <emit_message+0x50>
   1ecfc: 83 35 04 01  	ld	a1, 0x10(s0)
   1ed00: e7 80 05 00  	jalr	ra, 0x0(a1)
   1ed04: 83 35 04 08  	ld	a1, 0x80(s0)
   1ed08: 93 85 15 00  	addi	a1, a1, 0x1
   1ed0c: 23 30 b4 08  	sd	a1, 0x80(s0)
   1ed10: 83 30 81 00  	ld	ra, 0x8(sp)
   1ed14: 03 34 01 00  	ld	s0, 0x0(sp)
   1ed18: 13 01 01 01  	addi	sp, sp, 0x10
   1ed1c: 67 80 00 00  	jalr	zero, 0x0(ra)

000000000001ed20 <output_message>:
   1ed20: ef 52 01 1a  	jal	t0, 0x33ec0 <__riscv_save_1>
   1ed24: 13 01 01 f3  	addi	sp, sp, -0xd0
   1ed28: 83 35 05 00  	ld	a1, 0x0(a0)
   1ed2c: 03 b6 85 01  	ld	a2, 0x18(a1)
   1ed30: 93 05 81 00  	addi	a1, sp, 0x8
   1ed34: e7 00 06 00  	jalr	ra, 0x0(a2)
   1ed38: 03 b5 01 20  	ld	a0, 0x200(gp)
   1ed3c: 03 35 85 01  	ld	a0, 0x18(a0)
   1ed40: b7 45 03 00  	lui	a1, 0x34
   1ed44: 93 85 95 77  	addi	a1, a1, 0x779
   1ed48: 13 06 81 00  	addi	a2, sp, 0x8
   1ed4c: ef 10 30 62  	jal	ra, 0x20b6e <fprintf>
   1ed50: 13 01 01 0d  	addi	sp, sp, 0xd0
   1ed54: 6f 50 61 19  	jal	zero, 0x33eea <__riscv_restore_1>

000000000001ed58 <format_message>:
   1ed58: 13 01 01 fe  	addi	sp, sp, -0x20
   1ed5c: 23 3c 11 00  	sd	ra, 0x18(sp)
   1ed60: 83 32 05 00  	ld	t0, 0x0(a0)
   1ed64: 03 a6 82 02  	lw	a2, 0x28(t0)
   1ed68: 13 85 05 00  	addi	a0, a1, 0x0
   1ed6c: 63 56 c0 00  	bge	zero, a2, 0x1ed78 <format_message+0x20>
   1ed70: 83 a5 02 09  	lw	a1, 0x90(t0)
   1ed74: 63 d4 c5 02  	bge	a1, a2, 0x1ed9c <format_message+0x44>
   1ed78: 83 b5 82 09  	ld	a1, 0x98(t0)
   1ed7c: 63 8a 05 02  	beq	a1, zero, 0x1edb0 <format_message+0x58>
   1ed80: 83 a6 02 0a  	lw	a3, 0xa0(t0)
   1ed84: 63 46 d6 02  	blt	a2, a3, 0x1edb0 <format_message+0x58>
   1ed88: 03 a7 42 0a  	lw	a4, 0xa4(t0)
   1ed8c: 63 42 c7 02  	blt	a4, a2, 0x1edb0 <format_message+0x58>
   1ed90: bb 06 d6 40  	subw	a3, a2, a3
   1ed94: 93 96 36 00  	slli	a3, a3, 0x3
   1ed98: 6f 00 c0 00  	jal	zero, 0x1eda4 <format_message+0x4c>
   1ed9c: 83 b5 82 08  	ld	a1, 0x88(t0)
   1eda0: 93 16 36 00  	slli	a3, a2, 0x3
   1eda4: b3 85 d5 00  	add	a1, a1, a3
   1eda8: 83 b5 05 00  	ld	a1, 0x0(a1)
   1edac: 63 98 05 00  	bne	a1, zero, 0x1edbc <format_message+0x64>
   1edb0: 83 b5 82 08  	ld	a1, 0x88(t0)
   1edb4: 23 a6 c2 02  	sw	a2, 0x2c(t0)
   1edb8: 83 b5 05 00  	ld	a1, 0x0(a1)
   1edbc: 93 06 50 02  	addi	a3, zero, 0x25
   1edc0: 13 86 05 00  	addi	a2, a1, 0x0
   1edc4: 03 47 06 00  	lbu	a4, 0x0(a2)
   1edc8: 63 04 07 02  	beq	a4, zero, 0x1edf0 <format_message+0x98>
   1edcc: 13 06 16 00  	addi	a2, a2, 0x1
   1edd0: e3 1a d7 fe  	bne	a4, a3, 0x1edc4 <format_message+0x6c>
   1edd4: 03 46 06 00  	lbu	a2, 0x0(a2)
   1edd8: 93 06 30 07  	addi	a3, zero, 0x73
   1eddc: 63 1a d6 00  	bne	a2, a3, 0x1edf0 <format_message+0x98>
   1ede0: 13 86 c2 02  	addi	a2, t0, 0x2c
   1ede4: 83 30 81 01  	ld	ra, 0x18(sp)
   1ede8: 13 01 01 02  	addi	sp, sp, 0x20
   1edec: 6f 20 40 50  	jal	zero, 0x212f0 <sprintf>
   1edf0: 03 a6 c2 02  	lw	a2, 0x2c(t0)
   1edf4: 83 a6 02 03  	lw	a3, 0x30(t0)
   1edf8: 03 a7 42 03  	lw	a4, 0x34(t0)
   1edfc: 83 a7 82 03  	lw	a5, 0x38(t0)
   1ee00: 03 a8 c2 03  	lw	a6, 0x3c(t0)
   1ee04: 83 a8 02 04  	lw	a7, 0x40(t0)
   1ee08: 03 a3 42 04  	lw	t1, 0x44(t0)
   1ee0c: 83 a2 82 04  	lw	t0, 0x48(t0)
   1ee10: 23 34 51 00  	sd	t0, 0x8(sp)
   1ee14: 23 30 61 00  	sd	t1, 0x0(sp)
   1ee18: ef 20 80 4d  	jal	ra, 0x212f0 <sprintf>
   1ee1c: 83 30 81 01  	ld	ra, 0x18(sp)
   1ee20: 13 01 01 02  	addi	sp, sp, 0x20
   1ee24: 67 80 00 00  	jalr	zero, 0x0(ra)

000000000001ee28 <reset_error_mgr>:
   1ee28: 03 35 05 00  	ld	a0, 0x0(a0)
   1ee2c: 23 30 05 08  	sd	zero, 0x80(a0)
   1ee30: 23 24 05 02  	sw	zero, 0x28(a0)
   1ee34: 67 80 00 00  	jalr	zero, 0x0(ra)

000000000001ee38 <jinit_memory_mgr>:
   1ee38: ef 52 c1 06  	jal	t0, 0x33ea4 <__riscv_save_5>
   1ee3c: 13 01 01 ff  	addi	sp, sp, -0x10
   1ee40: 93 04 05 00  	addi	s1, a0, 0x0
   1ee44: 23 34 05 00  	sd	zero, 0x8(a0)
   1ee48: ef 00 10 7e  	jal	ra, 0x1fe28 <jpeg_mem_init>
   1ee4c: 13 09 05 00  	addi	s2, a0, 0x0
   1ee50: 23 34 a1 00  	sd	a0, 0x8(sp)
   1ee54: 93 05 00 0a  	addi	a1, zero, 0xa0
   1ee58: 93 09 00 0a  	addi	s3, zero, 0xa0
   1ee5c: 13 85 04 00  	addi	a0, s1, 0x0
   1ee60: ef 00 d0 78  	jal	ra, 0x1fdec <jpeg_get_small>
   1ee64: 13 04 05 00  	addi	s0, a0, 0x0
   1ee68: 63 14 05 02  	bne	a0, zero, 0x1ee90 <jinit_memory_mgr+0x58>
   1ee6c: 13 85 04 00  	addi	a0, s1, 0x0
   1ee70: ef 00 10 7c  	jal	ra, 0x1fe30 <jpeg_mem_term>
   1ee74: 03 b5 04 00  	ld	a0, 0x0(s1)
   1ee78: 93 05 50 03  	addi	a1, zero, 0x35
   1ee7c: 23 34 b5 02  	sd	a1, 0x28(a0)
   1ee80: 03 b5 04 00  	ld	a0, 0x0(s1)
   1ee84: 83 35 05 00  	ld	a1, 0x0(a0)
   1ee88: 13 85 04 00  	addi	a0, s1, 0x0
   1ee8c: e7 80 05 00  	jalr	ra, 0x0(a1)
   1ee90: 37 f5 01 00  	lui	a0, 0x1f
   1ee94: 13 05 85 f9  	addi	a0, a0, -0x68
   1ee98: 23 30 a4 00  	sd	a0, 0x0(s0)
   1ee9c: 37 f5 01 00  	lui	a0, 0x1f
   1eea0: 13 05 45 12  	addi	a0, a0, 0x124
   1eea4: 23 34 a4 00  	sd	a0, 0x8(s0)
   1eea8: 37 f5 01 00  	lui	a0, 0x1f
   1eeac: 13 05 45 20  	addi	a0, a0, 0x204
   1eeb0: 23 38 a4 00  	sd	a0, 0x10(s0)
   1eeb4: 37 f5 01 00  	lui	a0, 0x1f
   1eeb8: 13 05 45 2f  	addi	a0, a0, 0x2f4
   1eebc: 23 3c a4 00  	sd	a0, 0x18(s0)
   1eec0: 37 f5 01 00  	lui	a0, 0x1f
   1eec4: 13 05 85 3f  	addi	a0, a0, 0x3f8
   1eec8: 23 30 a4 02  	sd	a0, 0x20(s0)
   1eecc: 37 f5 01 00  	lui	a0, 0x1f
   1eed0: 13 05 85 47  	addi	a0, a0, 0x478
   1eed4: 23 34 a4 02  	sd	a0, 0x28(s0)
   1eed8: 37 f5 01 00  	lui	a0, 0x1f
   1eedc: 13 05 85 4f  	addi	a0, a0, 0x4f8
   1eee0: 23 38 a4 02  	sd	a0, 0x30(s0)
   1eee4: 37 f5 01 00  	lui	a0, 0x1f
   1eee8: 13 05 05 72  	addi	a0, a0, 0x720
   1eeec: 23 3c a4 02  	sd	a0, 0x38(s0)
   1eef0: 37 05 02 00  	lui	a0, 0x20
   1eef4: 13 05 05 8e  	addi	a0, a0, -0x720
   1eef8: 23 30 a4 04  	sd	a0, 0x40(s0)
   1eefc: 37 05 02 00  	lui	a0, 0x20
   1ef00: 13 05 45 aa  	addi	a0, a0, -0x55c
   1ef04: 23 34 a4 04  	sd	a0, 0x48(s0)
   1ef08: 37 05 02 00  	lui	a0, 0x20
   1ef0c: 13 05 c5 bd  	addi	a0, a0, -0x424
   1ef10: 23 38 a4 04  	sd	a0, 0x50(s0)
   1ef14: 23 3c 24 05  	sd	s2, 0x58(s0)
   1ef18: 13 05 04 06  	addi	a0, s0, 0x60
   1ef1c: 13 06 00 03  	addi	a2, zero, 0x30
   1ef20: 93 05 00 00  	addi	a1, zero, 0x0
   1ef24: ef 20 d0 5d  	jal	ra, 0x21d00 <memset>
   1ef28: 23 38 34 09  	sd	s3, 0x90(s0)
   1ef2c: 23 b4 84 00  	sd	s0, 0x8(s1)
   1ef30: 37 65 03 00  	lui	a0, 0x36
   1ef34: 13 05 e5 d8  	addi	a0, a0, -0x272
   1ef38: ef 00 90 70  	jal	ra, 0x1fe40 <getenv>
   1ef3c: 63 0a 05 04  	beq	a0, zero, 0x1ef90 <jinit_memory_mgr+0x158>
   1ef40: 93 05 80 07  	addi	a1, zero, 0x78
   1ef44: a3 03 b1 00  	sb	a1, 0x7(sp)
   1ef48: b7 45 03 00  	lui	a1, 0x34
   1ef4c: 93 85 35 7d  	addi	a1, a1, 0x7d3
   1ef50: 13 06 81 00  	addi	a2, sp, 0x8
   1ef54: 93 06 71 00  	addi	a3, sp, 0x7
   1ef58: ef 20 00 3e  	jal	ra, 0x21338 <sscanf>
   1ef5c: 63 5a a0 02  	bge	zero, a0, 0x1ef90 <jinit_memory_mgr+0x158>
   1ef60: 03 45 71 00  	lbu	a0, 0x7(sp)
   1ef64: 83 34 81 00  	ld	s1, 0x8(sp)
   1ef68: 13 79 f5 0d  	andi	s2, a0, 0xdf
   1ef6c: 93 05 80 3e  	addi	a1, zero, 0x3e8
   1ef70: 13 85 04 00  	addi	a0, s1, 0x0
   1ef74: ef 40 11 78  	jal	ra, 0x33ef4 <__muldi3>
   1ef78: 93 05 d0 04  	addi	a1, zero, 0x4d
   1ef7c: 63 04 b9 00  	beq	s2, a1, 0x1ef84 <jinit_memory_mgr+0x14c>
   1ef80: 13 85 04 00  	addi	a0, s1, 0x0
   1ef84: 93 05 80 3e  	addi	a1, zero, 0x3e8
   1ef88: ef 40 d1 76  	jal	ra, 0x33ef4 <__muldi3>
   1ef8c: 23 3c a4 04  	sd	a0, 0x58(s0)
   1ef90: 13 01 01 01  	addi	sp, sp, 0x10
   1ef94: 6f 40 b1 74  	jal	zero, 0x33ede <__riscv_restore_5>

000000000001ef98 <alloc_small>:
   1ef98: ef 42 f1 6e  	jal	t0, 0x33e86 <__riscv_save_11>
   1ef9c: 13 04 05 00  	addi	s0, a0, 0x0
   1efa0: 83 39 85 00  	ld	s3, 0x8(a0)
   1efa4: 37 d5 9a 3b  	lui	a0, 0x3b9ad
   1efa8: 1b 05 95 9e  	addiw	a0, a0, -0x617
   1efac: 13 09 06 00  	addi	s2, a2, 0x0
   1efb0: 93 84 05 00  	addi	s1, a1, 0x0
   1efb4: 63 64 a6 02  	bltu	a2, a0, 0x1efdc <alloc_small+0x44>
   1efb8: 03 35 04 00  	ld	a0, 0x0(s0)
   1efbc: 93 05 10 00  	addi	a1, zero, 0x1
   1efc0: 93 95 05 02  	slli	a1, a1, 0x20
   1efc4: 93 85 55 03  	addi	a1, a1, 0x35
   1efc8: 23 34 b5 02  	sd	a1, 0x28(a0)
   1efcc: 03 35 04 00  	ld	a0, 0x0(s0)
   1efd0: 83 35 05 00  	ld	a1, 0x0(a0)
   1efd4: 13 05 04 00  	addi	a0, s0, 0x0
   1efd8: e7 80 05 00  	jalr	ra, 0x0(a1)
   1efdc: 13 05 20 00  	addi	a0, zero, 0x2
   1efe0: 13 09 79 00  	addi	s2, s2, 0x7
   1efe4: 63 e2 a4 02  	bltu	s1, a0, 0x1f008 <alloc_small+0x70>
   1efe8: 03 35 04 00  	ld	a0, 0x0(s0)
   1efec: 23 26 95 02  	sw	s1, 0x2c(a0)
   1eff0: 83 35 04 00  	ld	a1, 0x0(s0)
   1eff4: 83 b5 05 00  	ld	a1, 0x0(a1)
   1eff8: 13 06 c0 00  	addi	a2, zero, 0xc
   1effc: 23 24 c5 02  	sw	a2, 0x28(a0)
   1f000: 13 05 04 00  	addi	a0, s0, 0x0
   1f004: e7 80 05 00  	jalr	ra, 0x0(a1)
   1f008: 13 9a 34 00  	slli	s4, s1, 0x3
   1f00c: 33 8a 49 01  	add	s4, s3, s4
   1f010: 03 35 0a 06  	ld	a0, 0x60(s4)
   1f014: 13 79 89 ff  	andi	s2, s2, -0x8
   1f018: 63 04 05 02  	beq	a0, zero, 0x1f040 <alloc_small+0xa8>
   1f01c: 93 0a 05 00  	addi	s5, a0, 0x0
   1f020: 03 35 05 01  	ld	a0, 0x10(a0)
   1f024: 63 7a 25 0d  	bgeu	a0, s2, 0x1f0f8 <alloc_small+0x160>
   1f028: 03 b5 0a 00  	ld	a0, 0x0(s5)
   1f02c: e3 18 05 fe  	bne	a0, zero, 0x1f01c <alloc_small+0x84>
   1f030: 63 8c 0a 00  	beq	s5, zero, 0x1f048 <alloc_small+0xb0>
   1f034: 37 65 03 00  	lui	a0, 0x36
   1f038: 13 05 85 6d  	addi	a0, a0, 0x6d8
   1f03c: 6f 00 40 01  	jal	zero, 0x1f050 <alloc_small+0xb8>
   1f040: 93 0a 00 00  	addi	s5, zero, 0x0
   1f044: e3 18 00 fe  	bne	zero, zero, 0x1f034 <alloc_small+0x9c>
   1f048: 37 65 03 00  	lui	a0, 0x36
   1f04c: 13 05 85 6c  	addi	a0, a0, 0x6c8
   1f050: 93 94 34 00  	slli	s1, s1, 0x3
   1f054: 33 05 95 00  	add	a0, a0, s1
   1f058: 03 3b 05 00  	ld	s6, 0x0(a0)
   1f05c: 37 d5 9a 3b  	lui	a0, 0x3b9ad
   1f060: 1b 05 85 9e  	addiw	a0, a0, -0x618
   1f064: 33 05 25 41  	sub	a0, a0, s2
   1f068: 93 0b 89 01  	addi	s7, s2, 0x18
   1f06c: 63 64 ab 00  	bltu	s6, a0, 0x1f074 <alloc_small+0xdc>
   1f070: 13 0b 05 00  	addi	s6, a0, 0x0
   1f074: b3 84 6b 01  	add	s1, s7, s6
   1f078: 13 05 04 00  	addi	a0, s0, 0x0
   1f07c: 93 85 04 00  	addi	a1, s1, 0x0
   1f080: ef 00 d0 56  	jal	ra, 0x1fdec <jpeg_get_small>
   1f084: 63 14 05 04  	bne	a0, zero, 0x1f0cc <alloc_small+0x134>
   1f088: 13 0c 30 06  	addi	s8, zero, 0x63
   1f08c: 13 05 10 00  	addi	a0, zero, 0x1
   1f090: 13 15 15 02  	slli	a0, a0, 0x21
   1f094: 93 0c 55 03  	addi	s9, a0, 0x35
   1f098: 63 6e 6c 01  	bltu	s8, s6, 0x1f0b4 <alloc_small+0x11c>
   1f09c: 03 35 04 00  	ld	a0, 0x0(s0)
   1f0a0: 23 34 95 03  	sd	s9, 0x28(a0)
   1f0a4: 03 35 04 00  	ld	a0, 0x0(s0)
   1f0a8: 83 35 05 00  	ld	a1, 0x0(a0)
   1f0ac: 13 05 04 00  	addi	a0, s0, 0x0
   1f0b0: e7 80 05 00  	jalr	ra, 0x0(a1)
   1f0b4: 13 5b 1b 00  	srli	s6, s6, 0x1
   1f0b8: b3 84 6b 01  	add	s1, s7, s6
   1f0bc: 13 05 04 00  	addi	a0, s0, 0x0
   1f0c0: 93 85 04 00  	addi	a1, s1, 0x0
   1f0c4: ef 00 90 52  	jal	ra, 0x1fdec <jpeg_get_small>
   1f0c8: e3 08 05 fc  	beq	a0, zero, 0x1f098 <alloc_small+0x100>
   1f0cc: 83 b5 09 09  	ld	a1, 0x90(s3)
   1f0d0: b3 85 95 00  	add	a1, a1, s1
   1f0d4: 23 b8 b9 08  	sd	a1, 0x90(s3)
   1f0d8: 33 0b 2b 01  	add	s6, s6, s2
   1f0dc: 23 34 05 00  	sd	zero, 0x8(a0)
   1f0e0: 23 30 05 00  	sd	zero, 0x0(a0)
   1f0e4: 23 38 65 01  	sd	s6, 0x10(a0)
   1f0e8: 63 94 0a 00  	bne	s5, zero, 0x1f0f0 <alloc_small+0x158>
   1f0ec: 93 0a 0a 06  	addi	s5, s4, 0x60
   1f0f0: 23 b0 aa 00  	sd	a0, 0x0(s5)
   1f0f4: 6f 00 80 00  	jal	zero, 0x1f0fc <alloc_small+0x164>
   1f0f8: 13 85 0a 00  	addi	a0, s5, 0x0
   1f0fc: 83 35 85 00  	ld	a1, 0x8(a0)
   1f100: 33 86 25 01  	add	a2, a1, s2
   1f104: 83 36 05 01  	ld	a3, 0x10(a0)
   1f108: 23 34 c5 00  	sd	a2, 0x8(a0)
   1f10c: b3 05 b5 00  	add	a1, a0, a1
   1f110: 93 85 85 01  	addi	a1, a1, 0x18
   1f114: 33 86 26 41  	sub	a2, a3, s2
   1f118: 23 38 c5 00  	sd	a2, 0x10(a0)
   1f11c: 13 85 05 00  	addi	a0, a1, 0x0
   1f120: 6f 40 d1 5a  	jal	zero, 0x33ecc <__riscv_restore_11>

000000000001f124 <alloc_large>:
   1f124: ef 42 71 57  	jal	t0, 0x33e9a <__riscv_save_7>
   1f128: 93 04 05 00  	addi	s1, a0, 0x0
   1f12c: 03 3a 85 00  	ld	s4, 0x8(a0)
   1f130: 37 d5 9a 3b  	lui	a0, 0x3b9ad
   1f134: 1b 05 95 9e  	addiw	a0, a0, -0x617
   1f138: 13 09 06 00  	addi	s2, a2, 0x0
   1f13c: 13 84 05 00  	addi	s0, a1, 0x0
   1f140: 63 64 a6 02  	bltu	a2, a0, 0x1f168 <alloc_large+0x44>
   1f144: 03 b5 04 00  	ld	a0, 0x0(s1)
   1f148: 93 05 30 00  	addi	a1, zero, 0x3
   1f14c: 93 95 05 02  	slli	a1, a1, 0x20
   1f150: 93 85 55 03  	addi	a1, a1, 0x35
   1f154: 23 34 b5 02  	sd	a1, 0x28(a0)
   1f158: 03 b5 04 00  	ld	a0, 0x0(s1)
   1f15c: 83 35 05 00  	ld	a1, 0x0(a0)
   1f160: 13 85 04 00  	addi	a0, s1, 0x0
   1f164: e7 80 05 00  	jalr	ra, 0x0(a1)
   1f168: 13 09 79 00  	addi	s2, s2, 0x7
   1f16c: 13 05 20 00  	addi	a0, zero, 0x2
   1f170: 93 7a 89 ff  	andi	s5, s2, -0x8
   1f174: 63 62 a4 02  	bltu	s0, a0, 0x1f198 <alloc_large+0x74>
   1f178: 03 b5 04 00  	ld	a0, 0x0(s1)
   1f17c: 23 26 85 02  	sw	s0, 0x2c(a0)
   1f180: 83 b5 04 00  	ld	a1, 0x0(s1)
   1f184: 83 b5 05 00  	ld	a1, 0x0(a1)
   1f188: 13 06 c0 00  	addi	a2, zero, 0xc
   1f18c: 23 24 c5 02  	sw	a2, 0x28(a0)
   1f190: 13 85 04 00  	addi	a0, s1, 0x0
   1f194: e7 80 05 00  	jalr	ra, 0x0(a1)
   1f198: 93 89 8a 01  	addi	s3, s5, 0x18
   1f19c: 13 85 04 00  	addi	a0, s1, 0x0
   1f1a0: 93 85 09 00  	addi	a1, s3, 0x0
   1f1a4: ef 00 90 45  	jal	ra, 0x1fdfc <jpeg_get_large>
   1f1a8: 13 09 05 00  	addi	s2, a0, 0x0
   1f1ac: 63 14 05 02  	bne	a0, zero, 0x1f1d4 <alloc_large+0xb0>
   1f1b0: 03 b5 04 00  	ld	a0, 0x0(s1)
   1f1b4: 93 05 10 00  	addi	a1, zero, 0x1
   1f1b8: 93 95 25 02  	slli	a1, a1, 0x22
   1f1bc: 93 85 55 03  	addi	a1, a1, 0x35
   1f1c0: 23 34 b5 02  	sd	a1, 0x28(a0)
   1f1c4: 03 b5 04 00  	ld	a0, 0x0(s1)
   1f1c8: 83 35 05 00  	ld	a1, 0x0(a0)
   1f1cc: 13 85 04 00  	addi	a0, s1, 0x0
   1f1d0: e7 80 05 00  	jalr	ra, 0x0(a1)
   1f1d4: 03 35 0a 09  	ld	a0, 0x90(s4)
   1f1d8: 13 14 34 00  	slli	s0, s0, 0x3
   1f1dc: 33 04 8a 00  	add	s0, s4, s0
   1f1e0: 83 35 04 07  	ld	a1, 0x70(s0)
   1f1e4: 33 05 35 01  	add	a0, a0, s3
   1f1e8: 23 38 aa 08  	sd	a0, 0x90(s4)
   1f1ec: 23 30 b9 00  	sd	a1, 0x0(s2)
   1f1f0: 23 34 59 01  	sd	s5, 0x8(s2)
   1f1f4: 23 38 09 00  	sd	zero, 0x10(s2)
   1f1f8: 13 05 89 01  	addi	a0, s2, 0x18
   1f1fc: 23 38 24 07  	sd	s2, 0x70(s0)
   1f200: 6f 40 91 4d  	jal	zero, 0x33ed8 <__riscv_restore_7>

000000000001f204 <alloc_sarray>:
   1f204: ef 42 71 49  	jal	t0, 0x33e9a <__riscv_save_7>
   1f208: 13 04 05 00  	addi	s0, a0, 0x0
   1f20c: 03 3b 85 00  	ld	s6, 0x8(a0)
   1f210: 93 84 06 00  	addi	s1, a3, 0x0
   1f214: 93 0a 06 00  	addi	s5, a2, 0x0
   1f218: 13 89 05 00  	addi	s2, a1, 0x0
   1f21c: 13 15 06 02  	slli	a0, a2, 0x20
   1f220: 93 59 05 02  	srli	s3, a0, 0x20
   1f224: 37 da 9a 3b  	lui	s4, 0x3b9ad
   1f228: 1b 05 8a 9e  	addiw	a0, s4, -0x618
   1f22c: 93 85 09 00  	addi	a1, s3, 0x0
   1f230: ef 40 d1 50  	jal	ra, 0x33f3c <__udivdi3>
   1f234: 9b 05 9a 9e  	addiw	a1, s4, -0x617
   1f238: 13 0a 05 00  	addi	s4, a0, 0x0
   1f23c: 63 ee ba 00  	bltu	s5, a1, 0x1f258 <alloc_sarray+0x54>
   1f240: 03 35 04 00  	ld	a0, 0x0(s0)
   1f244: 83 35 05 00  	ld	a1, 0x0(a0)
   1f248: 13 06 50 04  	addi	a2, zero, 0x45
   1f24c: 23 24 c5 02  	sw	a2, 0x28(a0)
   1f250: 13 05 04 00  	addi	a0, s0, 0x0
   1f254: e7 80 05 00  	jalr	ra, 0x0(a1)
   1f258: 1b 0a 0a 00  	addiw	s4, s4, 0x0
   1f25c: 63 64 9a 00  	bltu	s4, s1, 0x1f264 <alloc_sarray+0x60>
   1f260: 13 8a 04 00  	addi	s4, s1, 0x0
   1f264: 23 2c 4b 09  	sw	s4, 0x98(s6)
   1f268: 13 96 04 02  	slli	a2, s1, 0x20
   1f26c: 13 56 d6 01  	srli	a2, a2, 0x1d
   1f270: 13 05 04 00  	addi	a0, s0, 0x0
   1f274: 93 05 09 00  	addi	a1, s2, 0x0
   1f278: ef f0 1f d2  	jal	ra, 0x1ef98 <alloc_small>
   1f27c: 93 0a 05 00  	addi	s5, a0, 0x0
   1f280: 63 86 04 06  	beq	s1, zero, 0x1f2ec <alloc_sarray+0xe8>
   1f284: 13 0b 00 00  	addi	s6, zero, 0x0
   1f288: 3b 85 64 41  	subw	a0, s1, s6
   1f28c: 63 64 aa 00  	bltu	s4, a0, 0x1f294 <alloc_sarray+0x90>
   1f290: 13 0a 05 00  	addi	s4, a0, 0x0
   1f294: 13 05 0a 00  	addi	a0, s4, 0x0
   1f298: 93 85 09 00  	addi	a1, s3, 0x0
   1f29c: ef 40 91 45  	jal	ra, 0x33ef4 <__muldi3>
   1f2a0: 13 06 05 00  	addi	a2, a0, 0x0
   1f2a4: 13 05 04 00  	addi	a0, s0, 0x0
   1f2a8: 93 05 09 00  	addi	a1, s2, 0x0
   1f2ac: ef f0 9f e7  	jal	ra, 0x1f124 <alloc_large>
   1f2b0: 63 08 0a 02  	beq	s4, zero, 0x1f2e0 <alloc_sarray+0xdc>
   1f2b4: 13 06 0a 00  	addi	a2, s4, 0x0
   1f2b8: 9b 05 1b 00  	addiw	a1, s6, 0x1
   1f2bc: 13 1b 0b 02  	slli	s6, s6, 0x20
   1f2c0: 93 56 db 01  	srli	a3, s6, 0x1d
   1f2c4: b3 86 da 00  	add	a3, s5, a3
   1f2c8: 23 b0 a6 00  	sd	a0, 0x0(a3)
   1f2cc: 1b 06 f6 ff  	addiw	a2, a2, -0x1
   1f2d0: 33 05 35 01  	add	a0, a0, s3
   1f2d4: 13 8b 05 00  	addi	s6, a1, 0x0
   1f2d8: e3 10 06 fe  	bne	a2, zero, 0x1f2b8 <alloc_sarray+0xb4>
   1f2dc: 6f 00 80 00  	jal	zero, 0x1f2e4 <alloc_sarray+0xe0>
   1f2e0: 93 05 0b 00  	addi	a1, s6, 0x0
   1f2e4: 13 8b 05 00  	addi	s6, a1, 0x0
   1f2e8: e3 e0 95 fa  	bltu	a1, s1, 0x1f288 <alloc_sarray+0x84>
   1f2ec: 13 85 0a 00  	addi	a0, s5, 0x0
   1f2f0: 6f 40 91 3e  	jal	zero, 0x33ed8 <__riscv_restore_7>

000000000001f2f4 <alloc_barray>:
   1f2f4: ef 42 d1 39  	jal	t0, 0x33e90 <__riscv_save_9>
   1f2f8: 13 04 05 00  	addi	s0, a0, 0x0
   1f2fc: 83 3b 85 00  	ld	s7, 0x8(a0)
   1f300: 93 84 06 00  	addi	s1, a3, 0x0
   1f304: 93 0a 06 00  	addi	s5, a2, 0x0
   1f308: 13 89 05 00  	addi	s2, a1, 0x0
   1f30c: 13 1b 06 02  	slli	s6, a2, 0x20
   1f310: 93 59 9b 01  	srli	s3, s6, 0x19
   1f314: 37 d5 9a 3b  	lui	a0, 0x3b9ad
   1f318: 1b 05 85 9e  	addiw	a0, a0, -0x618
   1f31c: 93 85 09 00  	addi	a1, s3, 0x0
   1f320: ef 40 d1 41  	jal	ra, 0x33f3c <__udivdi3>
   1f324: b7 35 77 00  	lui	a1, 0x773
   1f328: 9b 85 45 59  	addiw	a1, a1, 0x594
   1f32c: 13 0a 05 00  	addi	s4, a0, 0x0
   1f330: 63 ee ba 00  	bltu	s5, a1, 0x1f34c <alloc_barray+0x58>
   1f334: 03 35 04 00  	ld	a0, 0x0(s0)
   1f338: 83 35 05 00  	ld	a1, 0x0(a0)
   1f33c: 13 06 50 04  	addi	a2, zero, 0x45
   1f340: 23 24 c5 02  	sw	a2, 0x28(a0)
   1f344: 13 05 04 00  	addi	a0, s0, 0x0
   1f348: e7 80 05 00  	jalr	ra, 0x0(a1)
   1f34c: 13 96 04 02  	slli	a2, s1, 0x20
   1f350: 13 55 06 02  	srli	a0, a2, 0x20
   1f354: 63 64 aa 00  	bltu	s4, a0, 0x1f35c <alloc_barray+0x68>
   1f358: 13 8a 04 00  	addi	s4, s1, 0x0
   1f35c: 23 ac 4b 09  	sw	s4, 0x98(s7)
   1f360: 13 56 d6 01  	srli	a2, a2, 0x1d
   1f364: 13 05 04 00  	addi	a0, s0, 0x0
   1f368: 93 05 09 00  	addi	a1, s2, 0x0
   1f36c: ef f0 df c2  	jal	ra, 0x1ef98 <alloc_small>
   1f370: 93 0a 05 00  	addi	s5, a0, 0x0
   1f374: 63 8e 04 06  	beq	s1, zero, 0x1f3f0 <alloc_barray+0xfc>
   1f378: 93 0b 00 00  	addi	s7, zero, 0x0
   1f37c: 13 5b 0b 02  	srli	s6, s6, 0x20
   1f380: 13 1b 7b 00  	slli	s6, s6, 0x7
   1f384: 3b 85 74 41  	subw	a0, s1, s7
   1f388: 1b 0a 0a 00  	addiw	s4, s4, 0x0
   1f38c: 63 64 aa 00  	bltu	s4, a0, 0x1f394 <alloc_barray+0xa0>
   1f390: 13 0a 05 00  	addi	s4, a0, 0x0
   1f394: 93 15 0a 02  	slli	a1, s4, 0x20
   1f398: 93 d5 05 02  	srli	a1, a1, 0x20
   1f39c: 13 85 09 00  	addi	a0, s3, 0x0
   1f3a0: ef 40 51 35  	jal	ra, 0x33ef4 <__muldi3>
   1f3a4: 13 06 05 00  	addi	a2, a0, 0x0
   1f3a8: 13 05 04 00  	addi	a0, s0, 0x0
   1f3ac: 93 05 09 00  	addi	a1, s2, 0x0
   1f3b0: ef f0 5f d7  	jal	ra, 0x1f124 <alloc_large>
   1f3b4: 63 08 0a 02  	beq	s4, zero, 0x1f3e4 <alloc_barray+0xf0>
   1f3b8: 13 06 0a 00  	addi	a2, s4, 0x0
   1f3bc: 9b 85 1b 00  	addiw	a1, s7, 0x1
   1f3c0: 93 9b 0b 02  	slli	s7, s7, 0x20
   1f3c4: 93 d6 db 01  	srli	a3, s7, 0x1d
   1f3c8: b3 86 da 00  	add	a3, s5, a3
   1f3cc: 23 b0 a6 00  	sd	a0, 0x0(a3)
   1f3d0: 1b 06 f6 ff  	addiw	a2, a2, -0x1
   1f3d4: 33 05 65 01  	add	a0, a0, s6
   1f3d8: 93 8b 05 00  	addi	s7, a1, 0x0
   1f3dc: e3 10 06 fe  	bne	a2, zero, 0x1f3bc <alloc_barray+0xc8>
   1f3e0: 6f 00 80 00  	jal	zero, 0x1f3e8 <alloc_barray+0xf4>
   1f3e4: 93 85 0b 00  	addi	a1, s7, 0x0
   1f3e8: 93 8b 05 00  	addi	s7, a1, 0x0
   1f3ec: e3 ec 95 f8  	bltu	a1, s1, 0x1f384 <alloc_barray+0x90>
   1f3f0: 13 85 0a 00  	addi	a0, s5, 0x0
   1f3f4: 6f 40 f1 2d  	jal	zero, 0x33ed2 <__riscv_restore_9>

000000000001f3f8 <request_virt_sarray>:
   1f3f8: ef 42 31 2a  	jal	t0, 0x33e9a <__riscv_save_7>
   1f3fc: 13 09 05 00  	addi	s2, a0, 0x0
   1f400: 03 3b 85 00  	ld	s6, 0x8(a0)
   1f404: 13 05 10 00  	addi	a0, zero, 0x1
   1f408: 13 84 07 00  	addi	s0, a5, 0x0
   1f40c: 13 0a 07 00  	addi	s4, a4, 0x0
   1f410: 93 89 06 00  	addi	s3, a3, 0x0
   1f414: 93 04 06 00  	addi	s1, a2, 0x0
   1f418: 93 8a 05 00  	addi	s5, a1, 0x0
   1f41c: 63 82 a5 02  	beq	a1, a0, 0x1f440 <request_virt_sarray+0x48>
   1f420: 03 35 09 00  	ld	a0, 0x0(s2)
   1f424: 23 26 55 03  	sw	s5, 0x2c(a0)
   1f428: 83 35 09 00  	ld	a1, 0x0(s2)
   1f42c: 83 b5 05 00  	ld	a1, 0x0(a1)
   1f430: 13 06 c0 00  	addi	a2, zero, 0xc
   1f434: 23 24 c5 02  	sw	a2, 0x28(a0)
   1f438: 13 05 09 00  	addi	a0, s2, 0x0
   1f43c: e7 80 05 00  	jalr	ra, 0x0(a1)
   1f440: 13 06 80 09  	addi	a2, zero, 0x98
   1f444: 13 05 09 00  	addi	a0, s2, 0x0
   1f448: 93 85 0a 00  	addi	a1, s5, 0x0
   1f44c: ef f0 df b4  	jal	ra, 0x1ef98 <alloc_small>
   1f450: 23 30 05 00  	sd	zero, 0x0(a0)
   1f454: 23 24 45 01  	sw	s4, 0x8(a0)
   1f458: 23 26 35 01  	sw	s3, 0xc(a0)
   1f45c: 83 35 0b 08  	ld	a1, 0x80(s6)
   1f460: 23 28 85 00  	sw	s0, 0x10(a0)
   1f464: 23 22 95 02  	sw	s1, 0x24(a0)
   1f468: 23 26 05 02  	sw	zero, 0x2c(a0)
   1f46c: 23 38 b5 02  	sd	a1, 0x30(a0)
   1f470: 23 30 ab 08  	sd	a0, 0x80(s6)
   1f474: 6f 40 51 26  	jal	zero, 0x33ed8 <__riscv_restore_7>

000000000001f478 <request_virt_barray>:
   1f478: ef 42 31 22  	jal	t0, 0x33e9a <__riscv_save_7>
   1f47c: 13 09 05 00  	addi	s2, a0, 0x0
   1f480: 03 3b 85 00  	ld	s6, 0x8(a0)
   1f484: 13 05 10 00  	addi	a0, zero, 0x1
   1f488: 13 84 07 00  	addi	s0, a5, 0x0
   1f48c: 13 0a 07 00  	addi	s4, a4, 0x0
   1f490: 93 89 06 00  	addi	s3, a3, 0x0
   1f494: 93 04 06 00  	addi	s1, a2, 0x0
   1f498: 93 8a 05 00  	addi	s5, a1, 0x0
   1f49c: 63 82 a5 02  	beq	a1, a0, 0x1f4c0 <request_virt_barray+0x48>
   1f4a0: 03 35 09 00  	ld	a0, 0x0(s2)
   1f4a4: 23 26 55 03  	sw	s5, 0x2c(a0)
   1f4a8: 83 35 09 00  	ld	a1, 0x0(s2)
   1f4ac: 83 b5 05 00  	ld	a1, 0x0(a1)
   1f4b0: 13 06 c0 00  	addi	a2, zero, 0xc
   1f4b4: 23 24 c5 02  	sw	a2, 0x28(a0)
   1f4b8: 13 05 09 00  	addi	a0, s2, 0x0
   1f4bc: e7 80 05 00  	jalr	ra, 0x0(a1)
   1f4c0: 13 06 80 09  	addi	a2, zero, 0x98
   1f4c4: 13 05 09 00  	addi	a0, s2, 0x0
   1f4c8: 93 85 0a 00  	addi	a1, s5, 0x0
   1f4cc: ef f0 df ac  	jal	ra, 0x1ef98 <alloc_small>
   1f4d0: 23 30 05 00  	sd	zero, 0x0(a0)
   1f4d4: 23 24 45 01  	sw	s4, 0x8(a0)
   1f4d8: 23 26 35 01  	sw	s3, 0xc(a0)
   1f4dc: 83 35 8b 08  	ld	a1, 0x88(s6)
   1f4e0: 23 28 85 00  	sw	s0, 0x10(a0)
   1f4e4: 23 22 95 02  	sw	s1, 0x24(a0)
   1f4e8: 23 26 05 02  	sw	zero, 0x2c(a0)
   1f4ec: 23 38 b5 02  	sd	a1, 0x30(a0)
   1f4f0: 23 34 ab 08  	sd	a0, 0x88(s6)
   1f4f4: 6f 40 51 1e  	jal	zero, 0x33ed8 <__riscv_restore_7>

000000000001f4f8 <realize_virt_arrays>:
   1f4f8: ef 42 31 1a  	jal	t0, 0x33e9a <__riscv_save_7>
   1f4fc: 13 04 05 00  	addi	s0, a0, 0x0
   1f500: 03 3a 85 00  	ld	s4, 0x8(a0)
   1f504: 83 3a 0a 08  	ld	s5, 0x80(s4)
   1f508: 63 84 0a 04  	beq	s5, zero, 0x1f550 <realize_virt_arrays+0x58>
   1f50c: 93 04 00 00  	addi	s1, zero, 0x0
   1f510: 13 09 00 00  	addi	s2, zero, 0x0
   1f514: 03 b5 0a 00  	ld	a0, 0x0(s5)
   1f518: 63 16 05 02  	bne	a0, zero, 0x1f544 <realize_virt_arrays+0x4c>
   1f51c: 83 e5 0a 01  	lwu	a1, 0x10(s5)
   1f520: 83 e9 ca 00  	lwu	s3, 0xc(s5)
   1f524: 13 85 09 00  	addi	a0, s3, 0x0
   1f528: ef 40 d1 1c  	jal	ra, 0x33ef4 <__muldi3>
   1f52c: 83 e5 8a 00  	lwu	a1, 0x8(s5)
   1f530: b3 04 95 00  	add	s1, a0, s1
   1f534: 13 85 05 00  	addi	a0, a1, 0x0
   1f538: 93 85 09 00  	addi	a1, s3, 0x0
   1f53c: ef 40 91 1b  	jal	ra, 0x33ef4 <__muldi3>
   1f540: 33 09 25 01  	add	s2, a0, s2
   1f544: 83 ba 0a 03  	ld	s5, 0x30(s5)
   1f548: e3 96 0a fc  	bne	s5, zero, 0x1f514 <realize_virt_arrays+0x1c>
   1f54c: 6f 00 c0 00  	jal	zero, 0x1f558 <realize_virt_arrays+0x60>
   1f550: 13 09 00 00  	addi	s2, zero, 0x0
   1f554: 93 04 00 00  	addi	s1, zero, 0x0
   1f558: 83 3a 8a 08  	ld	s5, 0x88(s4)
   1f55c: 63 80 0a 04  	beq	s5, zero, 0x1f59c <realize_virt_arrays+0xa4>
   1f560: 03 b5 0a 00  	ld	a0, 0x0(s5)
   1f564: 63 18 05 02  	bne	a0, zero, 0x1f594 <realize_virt_arrays+0x9c>
   1f568: 03 e5 0a 01  	lwu	a0, 0x10(s5)
   1f56c: 83 e9 ca 00  	lwu	s3, 0xc(s5)
   1f570: 93 85 09 00  	addi	a1, s3, 0x0
   1f574: ef 40 11 18  	jal	ra, 0x33ef4 <__muldi3>
   1f578: 83 e5 8a 00  	lwu	a1, 0x8(s5)
   1f57c: 13 15 75 00  	slli	a0, a0, 0x7
   1f580: b3 04 95 00  	add	s1, a0, s1
   1f584: 13 85 09 00  	addi	a0, s3, 0x0
   1f588: ef 40 d1 16  	jal	ra, 0x33ef4 <__muldi3>
   1f58c: 13 15 75 00  	slli	a0, a0, 0x7
   1f590: 33 09 25 01  	add	s2, a0, s2
   1f594: 83 ba 0a 03  	ld	s5, 0x30(s5)
   1f598: e3 94 0a fc  	bne	s5, zero, 0x1f560 <realize_virt_arrays+0x68>
   1f59c: 63 50 90 18  	bge	zero, s1, 0x1f71c <realize_virt_arrays+0x224>
   1f5a0: 83 36 0a 09  	ld	a3, 0x90(s4)
   1f5a4: 13 05 04 00  	addi	a0, s0, 0x0
   1f5a8: 93 85 04 00  	addi	a1, s1, 0x0
   1f5ac: 13 06 09 00  	addi	a2, s2, 0x0
   1f5b0: ef 00 d0 05  	jal	ra, 0x1fe0c <jpeg_mem_available>
   1f5b4: 63 5e 25 01  	bge	a0, s2, 0x1f5d0 <realize_virt_arrays+0xd8>
   1f5b8: 93 85 04 00  	addi	a1, s1, 0x0
   1f5bc: ef 40 91 17  	jal	ra, 0x33f34 <__divdi3>
   1f5c0: 93 04 05 00  	addi	s1, a0, 0x0
   1f5c4: 63 4a a0 00  	blt	zero, a0, 0x1f5d8 <realize_virt_arrays+0xe0>
   1f5c8: 93 04 10 00  	addi	s1, zero, 0x1
   1f5cc: 6f 00 c0 00  	jal	zero, 0x1f5d8 <realize_virt_arrays+0xe0>
   1f5d0: 37 d5 9a 3b  	lui	a0, 0x3b9ad
   1f5d4: 9b 04 05 a0  	addiw	s1, a0, -0x600
   1f5d8: 83 3a 0a 08  	ld	s5, 0x80(s4)
   1f5dc: 63 80 0a 0a  	beq	s5, zero, 0x1f67c <realize_virt_arrays+0x184>
   1f5e0: 13 0b 10 00  	addi	s6, zero, 0x1
   1f5e4: 03 b5 0a 00  	ld	a0, 0x0(s5)
   1f5e8: 63 16 05 08  	bne	a0, zero, 0x1f674 <realize_virt_arrays+0x17c>
   1f5ec: 03 e9 8a 00  	lwu	s2, 0x8(s5)
   1f5f0: 83 e9 0a 01  	lwu	s3, 0x10(s5)
   1f5f4: 13 05 f9 ff  	addi	a0, s2, -0x1
   1f5f8: 93 85 09 00  	addi	a1, s3, 0x0
   1f5fc: ef 40 91 13  	jal	ra, 0x33f34 <__divdi3>
   1f600: 63 56 95 00  	bge	a0, s1, 0x1f60c <realize_virt_arrays+0x114>
   1f604: 23 aa 2a 01  	sw	s2, 0x14(s5)
   1f608: 6f 00 00 04  	jal	zero, 0x1f648 <realize_virt_arrays+0x150>
   1f60c: 13 85 09 00  	addi	a0, s3, 0x0
   1f610: 93 85 04 00  	addi	a1, s1, 0x0
   1f614: ef 40 11 0e  	jal	ra, 0x33ef4 <__muldi3>
   1f618: 83 e5 ca 00  	lwu	a1, 0xc(s5)
   1f61c: 23 aa aa 00  	sw	a0, 0x14(s5)
   1f620: 93 89 8a 03  	addi	s3, s5, 0x38
   1f624: 13 85 05 00  	addi	a0, a1, 0x0
   1f628: 93 05 09 00  	addi	a1, s2, 0x0
   1f62c: ef 40 91 0c  	jal	ra, 0x33ef4 <__muldi3>
   1f630: 13 06 05 00  	addi	a2, a0, 0x0
   1f634: 13 05 04 00  	addi	a0, s0, 0x0
   1f638: 93 85 09 00  	addi	a1, s3, 0x0
   1f63c: ef 00 80 7d  	jal	ra, 0x1fe14 <jpeg_open_backing_store>
   1f640: 03 a9 4a 01  	lw	s2, 0x14(s5)
   1f644: 23 a6 6a 03  	sw	s6, 0x2c(s5)
   1f648: 03 a6 ca 00  	lw	a2, 0xc(s5)
   1f64c: 9b 06 09 00  	addiw	a3, s2, 0x0
   1f650: 93 05 10 00  	addi	a1, zero, 0x1
   1f654: 13 05 04 00  	addi	a0, s0, 0x0
   1f658: ef f0 df ba  	jal	ra, 0x1f204 <alloc_sarray>
   1f65c: 83 25 8a 09  	lw	a1, 0x98(s4)
   1f660: 23 b0 aa 00  	sd	a0, 0x0(s5)
   1f664: 23 ac ba 00  	sw	a1, 0x18(s5)
   1f668: 23 ae 0a 00  	sw	zero, 0x1c(s5)
   1f66c: 23 a0 0a 02  	sw	zero, 0x20(s5)
   1f670: 23 a4 0a 02  	sw	zero, 0x28(s5)
   1f674: 83 ba 0a 03  	ld	s5, 0x30(s5)
   1f678: e3 96 0a f6  	bne	s5, zero, 0x1f5e4 <realize_virt_arrays+0xec>
   1f67c: 83 3a 8a 08  	ld	s5, 0x88(s4)
   1f680: 63 8e 0a 08  	beq	s5, zero, 0x1f71c <realize_virt_arrays+0x224>
   1f684: 13 0b 10 00  	addi	s6, zero, 0x1
   1f688: 03 b5 0a 00  	ld	a0, 0x0(s5)
   1f68c: 63 14 05 08  	bne	a0, zero, 0x1f714 <realize_virt_arrays+0x21c>
   1f690: 03 e9 8a 00  	lwu	s2, 0x8(s5)
   1f694: 83 e9 0a 01  	lwu	s3, 0x10(s5)
   1f698: 13 05 f9 ff  	addi	a0, s2, -0x1
   1f69c: 93 85 09 00  	addi	a1, s3, 0x0
   1f6a0: ef 40 51 09  	jal	ra, 0x33f34 <__divdi3>
   1f6a4: 63 56 95 00  	bge	a0, s1, 0x1f6b0 <realize_virt_arrays+0x1b8>
   1f6a8: 23 aa 2a 01  	sw	s2, 0x14(s5)
   1f6ac: 6f 00 c0 03  	jal	zero, 0x1f6e8 <realize_virt_arrays+0x1f0>
   1f6b0: 13 85 09 00  	addi	a0, s3, 0x0
   1f6b4: 93 85 04 00  	addi	a1, s1, 0x0
   1f6b8: ef 40 d1 03  	jal	ra, 0x33ef4 <__muldi3>
   1f6bc: 83 e5 ca 00  	lwu	a1, 0xc(s5)
   1f6c0: 23 aa aa 00  	sw	a0, 0x14(s5)
   1f6c4: 93 89 8a 03  	addi	s3, s5, 0x38
   1f6c8: 13 05 09 00  	addi	a0, s2, 0x0
   1f6cc: ef 40 91 02  	jal	ra, 0x33ef4 <__muldi3>
   1f6d0: 13 16 75 00  	slli	a2, a0, 0x7
   1f6d4: 13 05 04 00  	addi	a0, s0, 0x0
   1f6d8: 93 85 09 00  	addi	a1, s3, 0x0
   1f6dc: ef 00 80 73  	jal	ra, 0x1fe14 <jpeg_open_backing_store>
   1f6e0: 03 a9 4a 01  	lw	s2, 0x14(s5)
   1f6e4: 23 a6 6a 03  	sw	s6, 0x2c(s5)
   1f6e8: 03 a6 ca 00  	lw	a2, 0xc(s5)
   1f6ec: 9b 06 09 00  	addiw	a3, s2, 0x0
   1f6f0: 93 05 10 00  	addi	a1, zero, 0x1
   1f6f4: 13 05 04 00  	addi	a0, s0, 0x0
   1f6f8: ef f0 df bf  	jal	ra, 0x1f2f4 <alloc_barray>
   1f6fc: 83 25 8a 09  	lw	a1, 0x98(s4)
   1f700: 23 b0 aa 00  	sd	a0, 0x0(s5)
   1f704: 23 ac ba 00  	sw	a1, 0x18(s5)
   1f708: 23 ae 0a 00  	sw	zero, 0x1c(s5)
   1f70c: 23 a0 0a 02  	sw	zero, 0x20(s5)
   1f710: 23 a4 0a 02  	sw	zero, 0x28(s5)
   1f714: 83 ba 0a 03  	ld	s5, 0x30(s5)
   1f718: e3 98 0a f6  	bne	s5, zero, 0x1f688 <realize_virt_arrays+0x190>
   1f71c: 6f 40 c1 7b  	jal	zero, 0x33ed8 <__riscv_restore_7>

000000000001f720 <access_virt_sarray>:
   1f720: ef 42 a1 77  	jal	t0, 0x33e9a <__riscv_save_7>
   1f724: 13 84 05 00  	addi	s0, a1, 0x0
   1f728: 83 a5 85 00  	lw	a1, 0x8(a1)
   1f72c: 93 04 06 00  	addi	s1, a2, 0x0
   1f730: 3b 8a c6 00  	addw	s4, a3, a2
   1f734: 13 09 07 00  	addi	s2, a4, 0x0
   1f738: 93 09 05 00  	addi	s3, a0, 0x0
   1f73c: 63 ea 45 01  	bltu	a1, s4, 0x1f750 <access_virt_sarray+0x30>
   1f740: 03 25 04 01  	lw	a0, 0x10(s0)
   1f744: 63 66 d5 00  	bltu	a0, a3, 0x1f750 <access_virt_sarray+0x30>
   1f748: 03 35 04 00  	ld	a0, 0x0(s0)
   1f74c: 63 1e 05 00  	bne	a0, zero, 0x1f768 <access_virt_sarray+0x48>
   1f750: 03 b5 09 00  	ld	a0, 0x0(s3)
   1f754: 83 35 05 00  	ld	a1, 0x0(a0)
   1f758: 13 06 40 01  	addi	a2, zero, 0x14
   1f75c: 23 24 c5 02  	sw	a2, 0x28(a0)
   1f760: 13 85 09 00  	addi	a0, s3, 0x0
   1f764: e7 80 05 00  	jalr	ra, 0x0(a1)
   1f768: 03 25 c4 01  	lw	a0, 0x1c(s0)
   1f76c: 63 e8 a4 00  	bltu	s1, a0, 0x1f77c <access_virt_sarray+0x5c>
   1f770: 83 25 44 01  	lw	a1, 0x14(s0)
   1f774: 3b 85 a5 00  	addw	a0, a1, a0
   1f778: 63 7e 45 07  	bgeu	a0, s4, 0x1f7f4 <access_virt_sarray+0xd4>
   1f77c: 03 25 c4 02  	lw	a0, 0x2c(s0)
   1f780: 63 1e 05 00  	bne	a0, zero, 0x1f79c <access_virt_sarray+0x7c>
   1f784: 03 b5 09 00  	ld	a0, 0x0(s3)
   1f788: 83 35 05 00  	ld	a1, 0x0(a0)
   1f78c: 13 06 40 04  	addi	a2, zero, 0x44
   1f790: 23 24 c5 02  	sw	a2, 0x28(a0)
   1f794: 13 85 09 00  	addi	a0, s3, 0x0
   1f798: e7 80 05 00  	jalr	ra, 0x0(a1)
   1f79c: 03 25 84 02  	lw	a0, 0x28(s0)
   1f7a0: 63 0c 05 00  	beq	a0, zero, 0x1f7b8 <access_virt_sarray+0x98>
   1f7a4: 13 06 10 00  	addi	a2, zero, 0x1
   1f7a8: 13 85 09 00  	addi	a0, s3, 0x0
   1f7ac: 93 05 04 00  	addi	a1, s0, 0x0
   1f7b0: ef 00 00 49  	jal	ra, 0x1fc40 <do_sarray_io>
   1f7b4: 23 24 04 02  	sw	zero, 0x28(s0)
   1f7b8: 83 25 c4 01  	lw	a1, 0x1c(s0)
   1f7bc: 13 85 04 00  	addi	a0, s1, 0x0
   1f7c0: 63 e0 95 02  	bltu	a1, s1, 0x1f7e0 <access_virt_sarray+0xc0>
   1f7c4: 03 65 44 01  	lwu	a0, 0x14(s0)
   1f7c8: 93 15 0a 02  	slli	a1, s4, 0x20
   1f7cc: 93 d5 05 02  	srli	a1, a1, 0x20
   1f7d0: b3 85 a5 40  	sub	a1, a1, a0
   1f7d4: 33 25 b0 00  	slt	a0, zero, a1
   1f7d8: 33 05 a0 40  	sub	a0, zero, a0
   1f7dc: 33 75 b5 00  	and	a0, a0, a1
   1f7e0: 23 2e a4 00  	sw	a0, 0x1c(s0)
   1f7e4: 13 85 09 00  	addi	a0, s3, 0x0
   1f7e8: 93 05 04 00  	addi	a1, s0, 0x0
   1f7ec: 13 06 00 00  	addi	a2, zero, 0x0
   1f7f0: ef 00 00 45  	jal	ra, 0x1fc40 <do_sarray_io>
   1f7f4: 03 25 04 02  	lw	a0, 0x20(s0)
   1f7f8: 63 7e 45 09  	bgeu	a0, s4, 0x1f894 <access_virt_sarray+0x174>
   1f7fc: 63 74 95 02  	bgeu	a0, s1, 0x1f824 <access_virt_sarray+0x104>
   1f800: 63 0c 09 02  	beq	s2, zero, 0x1f838 <access_virt_sarray+0x118>
   1f804: 03 b5 09 00  	ld	a0, 0x0(s3)
   1f808: 83 35 05 00  	ld	a1, 0x0(a0)
   1f80c: 13 06 40 01  	addi	a2, zero, 0x14
   1f810: 23 24 c5 02  	sw	a2, 0x28(a0)
   1f814: 13 85 09 00  	addi	a0, s3, 0x0
   1f818: e7 80 05 00  	jalr	ra, 0x0(a1)
   1f81c: 13 85 04 00  	addi	a0, s1, 0x0
   1f820: 6f 00 80 00  	jal	zero, 0x1f828 <access_virt_sarray+0x108>
   1f824: 63 0c 09 08  	beq	s2, zero, 0x1f8bc <access_virt_sarray+0x19c>
   1f828: 83 25 44 02  	lw	a1, 0x24(s0)
   1f82c: 23 20 44 03  	sw	s4, 0x20(s0)
   1f830: 63 9a 05 00  	bne	a1, zero, 0x1f844 <access_virt_sarray+0x124>
   1f834: 6f 00 40 06  	jal	zero, 0x1f898 <access_virt_sarray+0x178>
   1f838: 83 25 44 02  	lw	a1, 0x24(s0)
   1f83c: 13 85 04 00  	addi	a0, s1, 0x0
   1f840: 63 82 05 08  	beq	a1, zero, 0x1f8c4 <access_virt_sarray+0x1a4>
   1f844: 03 26 c4 01  	lw	a2, 0x1c(s0)
   1f848: bb 05 c5 40  	subw	a1, a0, a2
   1f84c: 3b 06 ca 40  	subw	a2, s4, a2
   1f850: 63 f2 c5 04  	bgeu	a1, a2, 0x1f894 <access_virt_sarray+0x174>
   1f854: 83 69 c4 00  	lwu	s3, 0xc(s0)
   1f858: 93 95 05 02  	slli	a1, a1, 0x20
   1f85c: 93 da d5 01  	srli	s5, a1, 0x1d
   1f860: 13 45 f5 ff  	xori	a0, a0, -0x1
   1f864: 33 05 45 01  	add	a0, a0, s4
   1f868: 13 15 05 02  	slli	a0, a0, 0x20
   1f86c: 13 55 d5 01  	srli	a0, a0, 0x1d
   1f870: 33 05 55 01  	add	a0, a0, s5
   1f874: 13 0a 85 00  	addi	s4, a0, 0x8
   1f878: 03 35 04 00  	ld	a0, 0x0(s0)
   1f87c: 33 05 55 01  	add	a0, a0, s5
   1f880: 03 35 05 00  	ld	a0, 0x0(a0)
   1f884: 93 85 09 00  	addi	a1, s3, 0x0
   1f888: ef f0 4f b9  	jal	ra, 0x1ec1c <jzero_far>
   1f88c: 93 8a 8a 00  	addi	s5, s5, 0x8
   1f890: e3 94 4a ff  	bne	s5, s4, 0x1f878 <access_virt_sarray+0x158>
   1f894: 63 06 09 00  	beq	s2, zero, 0x1f8a0 <access_virt_sarray+0x180>
   1f898: 13 05 10 00  	addi	a0, zero, 0x1
   1f89c: 23 24 a4 02  	sw	a0, 0x28(s0)
   1f8a0: 03 25 c4 01  	lw	a0, 0x1c(s0)
   1f8a4: 83 35 04 00  	ld	a1, 0x0(s0)
   1f8a8: bb 84 a4 40  	subw	s1, s1, a0
   1f8ac: 93 94 04 02  	slli	s1, s1, 0x20
   1f8b0: 13 d5 d4 01  	srli	a0, s1, 0x1d
   1f8b4: 33 85 a5 00  	add	a0, a1, a0
   1f8b8: 6f 40 01 62  	jal	zero, 0x33ed8 <__riscv_restore_7>
   1f8bc: 83 25 44 02  	lw	a1, 0x24(s0)
   1f8c0: e3 92 05 f8  	bne	a1, zero, 0x1f844 <access_virt_sarray+0x124>
   1f8c4: 03 b5 09 00  	ld	a0, 0x0(s3)
   1f8c8: 83 35 05 00  	ld	a1, 0x0(a0)
   1f8cc: 13 06 40 01  	addi	a2, zero, 0x14
   1f8d0: 23 24 c5 02  	sw	a2, 0x28(a0)
   1f8d4: 13 85 09 00  	addi	a0, s3, 0x0
   1f8d8: e7 80 05 00  	jalr	ra, 0x0(a1)
   1f8dc: 6f f0 5f fc  	jal	zero, 0x1f8a0 <access_virt_sarray+0x180>

000000000001f8e0 <access_virt_barray>:
   1f8e0: ef 42 a1 5b  	jal	t0, 0x33e9a <__riscv_save_7>
   1f8e4: 13 84 05 00  	addi	s0, a1, 0x0
   1f8e8: 83 a5 85 00  	lw	a1, 0x8(a1)
   1f8ec: 93 04 06 00  	addi	s1, a2, 0x0
   1f8f0: 3b 8a c6 00  	addw	s4, a3, a2
   1f8f4: 13 09 07 00  	addi	s2, a4, 0x0
   1f8f8: 93 09 05 00  	addi	s3, a0, 0x0
   1f8fc: 63 ea 45 01  	bltu	a1, s4, 0x1f910 <access_virt_barray+0x30>
   1f900: 03 25 04 01  	lw	a0, 0x10(s0)
   1f904: 63 66 d5 00  	bltu	a0, a3, 0x1f910 <access_virt_barray+0x30>
   1f908: 03 35 04 00  	ld	a0, 0x0(s0)
   1f90c: 63 1e 05 00  	bne	a0, zero, 0x1f928 <access_virt_barray+0x48>
   1f910: 03 b5 09 00  	ld	a0, 0x0(s3)
   1f914: 83 35 05 00  	ld	a1, 0x0(a0)
   1f918: 13 06 40 01  	addi	a2, zero, 0x14
   1f91c: 23 24 c5 02  	sw	a2, 0x28(a0)
   1f920: 13 85 09 00  	addi	a0, s3, 0x0
   1f924: e7 80 05 00  	jalr	ra, 0x0(a1)
   1f928: 03 25 c4 01  	lw	a0, 0x1c(s0)
   1f92c: 63 e8 a4 00  	bltu	s1, a0, 0x1f93c <access_virt_barray+0x5c>
   1f930: 83 25 44 01  	lw	a1, 0x14(s0)
   1f934: 3b 85 a5 00  	addw	a0, a1, a0
   1f938: 63 7e 45 07  	bgeu	a0, s4, 0x1f9b4 <access_virt_barray+0xd4>
   1f93c: 03 25 c4 02  	lw	a0, 0x2c(s0)
   1f940: 63 1e 05 00  	bne	a0, zero, 0x1f95c <access_virt_barray+0x7c>
   1f944: 03 b5 09 00  	ld	a0, 0x0(s3)
   1f948: 83 35 05 00  	ld	a1, 0x0(a0)
   1f94c: 13 06 40 04  	addi	a2, zero, 0x44
   1f950: 23 24 c5 02  	sw	a2, 0x28(a0)
   1f954: 13 85 09 00  	addi	a0, s3, 0x0
   1f958: e7 80 05 00  	jalr	ra, 0x0(a1)
   1f95c: 03 25 84 02  	lw	a0, 0x28(s0)
   1f960: 63 0c 05 00  	beq	a0, zero, 0x1f978 <access_virt_barray+0x98>
   1f964: 13 06 10 00  	addi	a2, zero, 0x1
   1f968: 13 85 09 00  	addi	a0, s3, 0x0
   1f96c: 93 05 04 00  	addi	a1, s0, 0x0
   1f970: ef 00 40 3a  	jal	ra, 0x1fd14 <do_barray_io>
   1f974: 23 24 04 02  	sw	zero, 0x28(s0)
   1f978: 83 25 c4 01  	lw	a1, 0x1c(s0)
   1f97c: 13 85 04 00  	addi	a0, s1, 0x0
   1f980: 63 e0 95 02  	bltu	a1, s1, 0x1f9a0 <access_virt_barray+0xc0>
   1f984: 03 65 44 01  	lwu	a0, 0x14(s0)
   1f988: 93 15 0a 02  	slli	a1, s4, 0x20
   1f98c: 93 d5 05 02  	srli	a1, a1, 0x20
   1f990: b3 85 a5 40  	sub	a1, a1, a0
   1f994: 33 25 b0 00  	slt	a0, zero, a1
   1f998: 33 05 a0 40  	sub	a0, zero, a0
   1f99c: 33 75 b5 00  	and	a0, a0, a1
   1f9a0: 23 2e a4 00  	sw	a0, 0x1c(s0)
   1f9a4: 13 85 09 00  	addi	a0, s3, 0x0
   1f9a8: 93 05 04 00  	addi	a1, s0, 0x0
   1f9ac: 13 06 00 00  	addi	a2, zero, 0x0
   1f9b0: ef 00 40 36  	jal	ra, 0x1fd14 <do_barray_io>
   1f9b4: 03 25 04 02  	lw	a0, 0x20(s0)
   1f9b8: 63 70 45 0b  	bgeu	a0, s4, 0x1fa58 <access_virt_barray+0x178>
   1f9bc: 63 74 95 02  	bgeu	a0, s1, 0x1f9e4 <access_virt_barray+0x104>
   1f9c0: 63 0c 09 02  	beq	s2, zero, 0x1f9f8 <access_virt_barray+0x118>
   1f9c4: 03 b5 09 00  	ld	a0, 0x0(s3)
   1f9c8: 83 35 05 00  	ld	a1, 0x0(a0)
   1f9cc: 13 06 40 01  	addi	a2, zero, 0x14
   1f9d0: 23 24 c5 02  	sw	a2, 0x28(a0)
   1f9d4: 13 85 09 00  	addi	a0, s3, 0x0
   1f9d8: e7 80 05 00  	jalr	ra, 0x0(a1)
   1f9dc: 13 85 04 00  	addi	a0, s1, 0x0
   1f9e0: 6f 00 80 00  	jal	zero, 0x1f9e8 <access_virt_barray+0x108>
   1f9e4: 63 0e 09 08  	beq	s2, zero, 0x1fa80 <access_virt_barray+0x1a0>
   1f9e8: 83 25 44 02  	lw	a1, 0x24(s0)
   1f9ec: 23 20 44 03  	sw	s4, 0x20(s0)
   1f9f0: 63 9a 05 00  	bne	a1, zero, 0x1fa04 <access_virt_barray+0x124>
   1f9f4: 6f 00 80 06  	jal	zero, 0x1fa5c <access_virt_barray+0x17c>
   1f9f8: 83 25 44 02  	lw	a1, 0x24(s0)
   1f9fc: 13 85 04 00  	addi	a0, s1, 0x0
   1fa00: 63 84 05 08  	beq	a1, zero, 0x1fa88 <access_virt_barray+0x1a8>
   1fa04: 03 26 c4 01  	lw	a2, 0x1c(s0)
   1fa08: bb 05 c5 40  	subw	a1, a0, a2
   1fa0c: 3b 06 ca 40  	subw	a2, s4, a2
   1fa10: 63 f4 c5 04  	bgeu	a1, a2, 0x1fa58 <access_virt_barray+0x178>
   1fa14: 83 69 c4 00  	lwu	s3, 0xc(s0)
   1fa18: 93 99 79 00  	slli	s3, s3, 0x7
   1fa1c: 93 95 05 02  	slli	a1, a1, 0x20
   1fa20: 93 da d5 01  	srli	s5, a1, 0x1d
   1fa24: 13 45 f5 ff  	xori	a0, a0, -0x1
   1fa28: 33 05 45 01  	add	a0, a0, s4
   1fa2c: 13 15 05 02  	slli	a0, a0, 0x20
   1fa30: 13 55 d5 01  	srli	a0, a0, 0x1d
   1fa34: 33 05 55 01  	add	a0, a0, s5
   1fa38: 13 0a 85 00  	addi	s4, a0, 0x8
   1fa3c: 03 35 04 00  	ld	a0, 0x0(s0)
   1fa40: 33 05 55 01  	add	a0, a0, s5
   1fa44: 03 35 05 00  	ld	a0, 0x0(a0)
   1fa48: 93 85 09 00  	addi	a1, s3, 0x0
   1fa4c: ef f0 0f 9d  	jal	ra, 0x1ec1c <jzero_far>
   1fa50: 93 8a 8a 00  	addi	s5, s5, 0x8
   1fa54: e3 94 4a ff  	bne	s5, s4, 0x1fa3c <access_virt_barray+0x15c>
   1fa58: 63 06 09 00  	beq	s2, zero, 0x1fa64 <access_virt_barray+0x184>
   1fa5c: 13 05 10 00  	addi	a0, zero, 0x1
   1fa60: 23 24 a4 02  	sw	a0, 0x28(s0)
   1fa64: 03 25 c4 01  	lw	a0, 0x1c(s0)
   1fa68: 83 35 04 00  	ld	a1, 0x0(s0)
   1fa6c: bb 84 a4 40  	subw	s1, s1, a0
   1fa70: 93 94 04 02  	slli	s1, s1, 0x20
   1fa74: 13 d5 d4 01  	srli	a0, s1, 0x1d
   1fa78: 33 85 a5 00  	add	a0, a1, a0
   1fa7c: 6f 40 c1 45  	jal	zero, 0x33ed8 <__riscv_restore_7>
   1fa80: 83 25 44 02  	lw	a1, 0x24(s0)
   1fa84: e3 90 05 f8  	bne	a1, zero, 0x1fa04 <access_virt_barray+0x124>
   1fa88: 03 b5 09 00  	ld	a0, 0x0(s3)
   1fa8c: 83 35 05 00  	ld	a1, 0x0(a0)
   1fa90: 13 06 40 01  	addi	a2, zero, 0x14
   1fa94: 23 24 c5 02  	sw	a2, 0x28(a0)
   1fa98: 13 85 09 00  	addi	a0, s3, 0x0
   1fa9c: e7 80 05 00  	jalr	ra, 0x0(a1)
   1faa0: 6f f0 5f fc  	jal	zero, 0x1fa64 <access_virt_barray+0x184>

000000000001faa4 <free_pool>:
   1faa4: ef 42 01 40  	jal	t0, 0x33ea4 <__riscv_save_5>
   1faa8: 13 04 05 00  	addi	s0, a0, 0x0
   1faac: 83 39 85 00  	ld	s3, 0x8(a0)
   1fab0: 13 05 20 00  	addi	a0, zero, 0x2
   1fab4: 93 84 05 00  	addi	s1, a1, 0x0
   1fab8: 63 e4 a5 02  	bltu	a1, a0, 0x1fae0 <free_pool+0x3c>
   1fabc: 03 35 04 00  	ld	a0, 0x0(s0)
   1fac0: 23 26 95 02  	sw	s1, 0x2c(a0)
   1fac4: 83 35 04 00  	ld	a1, 0x0(s0)
   1fac8: 83 b5 05 00  	ld	a1, 0x0(a1)
   1facc: 13 06 c0 00  	addi	a2, zero, 0xc
   1fad0: 23 24 c5 02  	sw	a2, 0x28(a0)
   1fad4: 13 05 04 00  	addi	a0, s0, 0x0
   1fad8: e7 80 05 00  	jalr	ra, 0x0(a1)
   1fadc: 6f 00 c0 06  	jal	zero, 0x1fb48 <free_pool+0xa4>
   1fae0: 13 05 10 00  	addi	a0, zero, 0x1
   1fae4: 63 92 a4 06  	bne	s1, a0, 0x1fb48 <free_pool+0xa4>
   1fae8: 03 b9 09 08  	ld	s2, 0x80(s3)
   1faec: 63 04 09 02  	beq	s2, zero, 0x1fb14 <free_pool+0x70>
   1faf0: 03 25 c9 02  	lw	a0, 0x2c(s2)
   1faf4: 63 0c 05 00  	beq	a0, zero, 0x1fb0c <free_pool+0x68>
   1faf8: 03 36 89 04  	ld	a2, 0x48(s2)
   1fafc: 23 26 09 02  	sw	zero, 0x2c(s2)
   1fb00: 93 05 89 03  	addi	a1, s2, 0x38
   1fb04: 13 05 04 00  	addi	a0, s0, 0x0
   1fb08: e7 00 06 00  	jalr	ra, 0x0(a2)
   1fb0c: 03 39 09 03  	ld	s2, 0x30(s2)
   1fb10: e3 10 09 fe  	bne	s2, zero, 0x1faf0 <free_pool+0x4c>
   1fb14: 03 b9 89 08  	ld	s2, 0x88(s3)
   1fb18: 23 b0 09 08  	sd	zero, 0x80(s3)
   1fb1c: 63 04 09 02  	beq	s2, zero, 0x1fb44 <free_pool+0xa0>
   1fb20: 03 25 c9 02  	lw	a0, 0x2c(s2)
   1fb24: 63 0c 05 00  	beq	a0, zero, 0x1fb3c <free_pool+0x98>
   1fb28: 03 36 89 04  	ld	a2, 0x48(s2)
   1fb2c: 23 26 09 02  	sw	zero, 0x2c(s2)
   1fb30: 93 05 89 03  	addi	a1, s2, 0x38
   1fb34: 13 05 04 00  	addi	a0, s0, 0x0
   1fb38: e7 00 06 00  	jalr	ra, 0x0(a2)
   1fb3c: 03 39 09 03  	ld	s2, 0x30(s2)
   1fb40: e3 10 09 fe  	bne	s2, zero, 0x1fb20 <free_pool+0x7c>
   1fb44: 23 b4 09 08  	sd	zero, 0x88(s3)
   1fb48: 13 95 34 00  	slli	a0, s1, 0x3
   1fb4c: 33 85 a9 00  	add	a0, s3, a0
   1fb50: 83 35 05 07  	ld	a1, 0x70(a0)
   1fb54: 23 38 05 06  	sd	zero, 0x70(a0)
   1fb58: 63 8c 05 02  	beq	a1, zero, 0x1fb90 <free_pool+0xec>
   1fb5c: 03 b5 85 00  	ld	a0, 0x8(a1)
   1fb60: 03 b6 05 01  	ld	a2, 0x10(a1)
   1fb64: 03 ba 05 00  	ld	s4, 0x0(a1)
   1fb68: 33 05 c5 00  	add	a0, a0, a2
   1fb6c: 13 09 85 01  	addi	s2, a0, 0x18
   1fb70: 13 05 04 00  	addi	a0, s0, 0x0
   1fb74: 13 06 09 00  	addi	a2, s2, 0x0
   1fb78: ef 00 c0 28  	jal	ra, 0x1fe04 <jpeg_free_large>
   1fb7c: 03 b5 09 09  	ld	a0, 0x90(s3)
   1fb80: 33 05 25 41  	sub	a0, a0, s2
   1fb84: 23 b8 a9 08  	sd	a0, 0x90(s3)
   1fb88: 93 05 0a 00  	addi	a1, s4, 0x0
   1fb8c: e3 18 0a fc  	bne	s4, zero, 0x1fb5c <free_pool+0xb8>
   1fb90: 93 94 34 00  	slli	s1, s1, 0x3
   1fb94: b3 84 99 00  	add	s1, s3, s1
   1fb98: 83 b5 04 06  	ld	a1, 0x60(s1)
   1fb9c: 23 b0 04 06  	sd	zero, 0x60(s1)
   1fba0: 63 8c 05 02  	beq	a1, zero, 0x1fbd8 <free_pool+0x134>
   1fba4: 03 b5 85 00  	ld	a0, 0x8(a1)
   1fba8: 03 b6 05 01  	ld	a2, 0x10(a1)
   1fbac: 03 b9 05 00  	ld	s2, 0x0(a1)
   1fbb0: 33 05 c5 00  	add	a0, a0, a2
   1fbb4: 93 04 85 01  	addi	s1, a0, 0x18
   1fbb8: 13 05 04 00  	addi	a0, s0, 0x0
   1fbbc: 13 86 04 00  	addi	a2, s1, 0x0
   1fbc0: ef 00 40 23  	jal	ra, 0x1fdf4 <jpeg_free_small>
   1fbc4: 03 b5 09 09  	ld	a0, 0x90(s3)
   1fbc8: 33 05 95 40  	sub	a0, a0, s1
   1fbcc: 23 b8 a9 08  	sd	a0, 0x90(s3)
   1fbd0: 93 05 09 00  	addi	a1, s2, 0x0
   1fbd4: e3 18 09 fc  	bne	s2, zero, 0x1fba4 <free_pool+0x100>
   1fbd8: 6f 40 61 30  	jal	zero, 0x33ede <__riscv_restore_5>

000000000001fbdc <self_destruct>:
   1fbdc: 13 01 01 fe  	addi	sp, sp, -0x20
   1fbe0: 23 3c 11 00  	sd	ra, 0x18(sp)
   1fbe4: 23 38 81 00  	sd	s0, 0x10(sp)
   1fbe8: 23 34 91 00  	sd	s1, 0x8(sp)
   1fbec: 23 30 21 01  	sd	s2, 0x0(sp)
   1fbf0: 13 04 05 00  	addi	s0, a0, 0x0
   1fbf4: 93 04 10 00  	addi	s1, zero, 0x1
   1fbf8: 13 09 f0 ff  	addi	s2, zero, -0x1
   1fbfc: 13 05 04 00  	addi	a0, s0, 0x0
   1fc00: 93 85 04 00  	addi	a1, s1, 0x0
   1fc04: ef f0 1f ea  	jal	ra, 0x1faa4 <free_pool>
   1fc08: 9b 84 f4 ff  	addiw	s1, s1, -0x1
   1fc0c: e3 98 24 ff  	bne	s1, s2, 0x1fbfc <self_destruct+0x20>
   1fc10: 83 35 84 00  	ld	a1, 0x8(s0)
   1fc14: 13 06 00 0a  	addi	a2, zero, 0xa0
   1fc18: 13 05 04 00  	addi	a0, s0, 0x0
   1fc1c: ef 00 80 1d  	jal	ra, 0x1fdf4 <jpeg_free_small>
   1fc20: 23 34 04 00  	sd	zero, 0x8(s0)
   1fc24: 13 05 04 00  	addi	a0, s0, 0x0
   1fc28: 83 30 81 01  	ld	ra, 0x18(sp)
   1fc2c: 03 34 01 01  	ld	s0, 0x10(sp)
   1fc30: 83 34 81 00  	ld	s1, 0x8(sp)
   1fc34: 03 39 01 00  	ld	s2, 0x0(sp)
   1fc38: 13 01 01 02  	addi	sp, sp, 0x20
   1fc3c: 6f 00 40 1f  	jal	zero, 0x1fe30 <jpeg_mem_term>

000000000001fc40 <do_sarray_io>:
   1fc40: ef 42 01 25  	jal	t0, 0x33e90 <__riscv_save_9>
   1fc44: 03 ec 45 01  	lwu	s8, 0x14(a1)
   1fc48: 63 04 0c 0c  	beq	s8, zero, 0x1fd10 <do_sarray_io+0xd0>
   1fc4c: 13 84 05 00  	addi	s0, a1, 0x0
   1fc50: 13 0a 06 00  	addi	s4, a2, 0x0
   1fc54: 93 04 05 00  	addi	s1, a0, 0x0
   1fc58: 03 e9 c5 00  	lwu	s2, 0xc(a1)
   1fc5c: 03 e5 c5 01  	lwu	a0, 0x1c(a1)
   1fc60: 93 05 09 00  	addi	a1, s2, 0x0
   1fc64: ef 40 01 29  	jal	ra, 0x33ef4 <__muldi3>
   1fc68: 93 09 05 00  	addi	s3, a0, 0x0
   1fc6c: 93 0b 80 03  	addi	s7, zero, 0x38
   1fc70: 63 04 0a 00  	beq	s4, zero, 0x1fc78 <do_sarray_io+0x38>
   1fc74: 93 0b 00 04  	addi	s7, zero, 0x40
   1fc78: 03 25 84 01  	lw	a0, 0x18(s0)
   1fc7c: 13 0b 00 00  	addi	s6, zero, 0x0
   1fc80: 13 0a 84 03  	addi	s4, s0, 0x38
   1fc84: b3 0b 74 01  	add	s7, s0, s7
   1fc88: 13 15 05 02  	slli	a0, a0, 0x20
   1fc8c: 93 55 05 02  	srli	a1, a0, 0x20
   1fc90: 33 05 6c 41  	sub	a0, s8, s6
   1fc94: 63 44 b5 00  	blt	a0, a1, 0x1fc9c <do_sarray_io+0x5c>
   1fc98: 13 85 05 00  	addi	a0, a1, 0x0
   1fc9c: 83 65 c4 01  	lwu	a1, 0x1c(s0)
   1fca0: 03 66 04 02  	lwu	a2, 0x20(s0)
   1fca4: b3 05 bb 00  	add	a1, s6, a1
   1fca8: 33 06 b6 40  	sub	a2, a2, a1
   1fcac: 63 44 c5 00  	blt	a0, a2, 0x1fcb4 <do_sarray_io+0x74>
   1fcb0: 13 05 06 00  	addi	a0, a2, 0x0
   1fcb4: 03 66 84 00  	lwu	a2, 0x8(s0)
   1fcb8: b3 05 b6 40  	sub	a1, a2, a1
   1fcbc: 63 44 b5 00  	blt	a0, a1, 0x1fcc4 <do_sarray_io+0x84>
   1fcc0: 13 85 05 00  	addi	a0, a1, 0x0
   1fcc4: 63 56 a0 04  	bge	zero, a0, 0x1fd10 <do_sarray_io+0xd0>
   1fcc8: 93 05 09 00  	addi	a1, s2, 0x0
   1fccc: ef 40 81 22  	jal	ra, 0x33ef4 <__muldi3>
   1fcd0: 83 35 04 00  	ld	a1, 0x0(s0)
   1fcd4: 13 16 3b 00  	slli	a2, s6, 0x3
   1fcd8: b3 85 c5 00  	add	a1, a1, a2
   1fcdc: 03 b6 05 00  	ld	a2, 0x0(a1)
   1fce0: 83 b7 0b 00  	ld	a5, 0x0(s7)
   1fce4: 93 0a 05 00  	addi	s5, a0, 0x0
   1fce8: 13 85 04 00  	addi	a0, s1, 0x0
   1fcec: 93 05 0a 00  	addi	a1, s4, 0x0
   1fcf0: 93 86 09 00  	addi	a3, s3, 0x0
   1fcf4: 13 87 0a 00  	addi	a4, s5, 0x0
   1fcf8: e7 80 07 00  	jalr	ra, 0x0(a5)
   1fcfc: 03 65 84 01  	lwu	a0, 0x18(s0)
   1fd00: 03 6c 44 01  	lwu	s8, 0x14(s0)
   1fd04: 33 0b ab 00  	add	s6, s6, a0
   1fd08: b3 89 3a 01  	add	s3, s5, s3
   1fd0c: e3 6e 8b f7  	bltu	s6, s8, 0x1fc88 <do_sarray_io+0x48>
   1fd10: 6f 40 21 1c  	jal	zero, 0x33ed2 <__riscv_restore_9>

000000000001fd14 <do_barray_io>:
   1fd14: ef 42 c1 17  	jal	t0, 0x33e90 <__riscv_save_9>
   1fd18: 03 ec 45 01  	lwu	s8, 0x14(a1)
   1fd1c: 63 06 0c 0c  	beq	s8, zero, 0x1fde8 <do_barray_io+0xd4>
   1fd20: 13 84 05 00  	addi	s0, a1, 0x0
   1fd24: 13 0a 06 00  	addi	s4, a2, 0x0
   1fd28: 93 04 05 00  	addi	s1, a0, 0x0
   1fd2c: 03 e9 c5 00  	lwu	s2, 0xc(a1)
   1fd30: 83 e5 c5 01  	lwu	a1, 0x1c(a1)
   1fd34: 13 19 79 00  	slli	s2, s2, 0x7
   1fd38: 13 05 09 00  	addi	a0, s2, 0x0
   1fd3c: ef 40 81 1b  	jal	ra, 0x33ef4 <__muldi3>
   1fd40: 93 09 05 00  	addi	s3, a0, 0x0
   1fd44: 93 0b 80 03  	addi	s7, zero, 0x38
   1fd48: 63 04 0a 00  	beq	s4, zero, 0x1fd50 <do_barray_io+0x3c>
   1fd4c: 93 0b 00 04  	addi	s7, zero, 0x40
   1fd50: 03 25 84 01  	lw	a0, 0x18(s0)
   1fd54: 13 0b 00 00  	addi	s6, zero, 0x0
   1fd58: 13 0a 84 03  	addi	s4, s0, 0x38
   1fd5c: b3 0b 74 01  	add	s7, s0, s7
   1fd60: 13 15 05 02  	slli	a0, a0, 0x20
   1fd64: 93 55 05 02  	srli	a1, a0, 0x20
   1fd68: 33 05 6c 41  	sub	a0, s8, s6
   1fd6c: 63 44 b5 00  	blt	a0, a1, 0x1fd74 <do_barray_io+0x60>
   1fd70: 13 85 05 00  	addi	a0, a1, 0x0
   1fd74: 83 65 c4 01  	lwu	a1, 0x1c(s0)
   1fd78: 03 66 04 02  	lwu	a2, 0x20(s0)
   1fd7c: b3 05 bb 00  	add	a1, s6, a1
   1fd80: 33 06 b6 40  	sub	a2, a2, a1
   1fd84: 63 44 c5 00  	blt	a0, a2, 0x1fd8c <do_barray_io+0x78>
   1fd88: 13 05 06 00  	addi	a0, a2, 0x0
   1fd8c: 03 66 84 00  	lwu	a2, 0x8(s0)
   1fd90: b3 05 b6 40  	sub	a1, a2, a1
   1fd94: 63 44 b5 00  	blt	a0, a1, 0x1fd9c <do_barray_io+0x88>
   1fd98: 13 85 05 00  	addi	a0, a1, 0x0
   1fd9c: 63 56 a0 04  	bge	zero, a0, 0x1fde8 <do_barray_io+0xd4>
   1fda0: 93 05 09 00  	addi	a1, s2, 0x0
   1fda4: ef 40 01 15  	jal	ra, 0x33ef4 <__muldi3>
   1fda8: 83 35 04 00  	ld	a1, 0x0(s0)
   1fdac: 13 16 3b 00  	slli	a2, s6, 0x3
   1fdb0: b3 85 c5 00  	add	a1, a1, a2
   1fdb4: 03 b6 05 00  	ld	a2, 0x0(a1)
   1fdb8: 83 b7 0b 00  	ld	a5, 0x0(s7)
   1fdbc: 93 0a 05 00  	addi	s5, a0, 0x0
   1fdc0: 13 85 04 00  	addi	a0, s1, 0x0
   1fdc4: 93 05 0a 00  	addi	a1, s4, 0x0
   1fdc8: 93 86 09 00  	addi	a3, s3, 0x0
   1fdcc: 13 87 0a 00  	addi	a4, s5, 0x0
   1fdd0: e7 80 07 00  	jalr	ra, 0x0(a5)
   1fdd4: 03 65 84 01  	lwu	a0, 0x18(s0)
   1fdd8: 03 6c 44 01  	lwu	s8, 0x14(s0)
   1fddc: 33 0b ab 00  	add	s6, s6, a0
   1fde0: b3 89 3a 01  	add	s3, s5, s3
   1fde4: e3 6e 8b f7  	bltu	s6, s8, 0x1fd60 <do_barray_io+0x4c>
   1fde8: 6f 40 a1 0e  	jal	zero, 0x33ed2 <__riscv_restore_9>

000000000001fdec <jpeg_get_small>:
   1fdec: 13 85 05 00  	addi	a0, a1, 0x0
   1fdf0: 6f 00 e0 12  	jal	zero, 0x1ff1e <malloc>

000000000001fdf4 <jpeg_free_small>:
   1fdf4: 13 85 05 00  	addi	a0, a1, 0x0
   1fdf8: 6f 00 e0 12  	jal	zero, 0x1ff26 <free>

000000000001fdfc <jpeg_get_large>:
   1fdfc: 13 85 05 00  	addi	a0, a1, 0x0
   1fe00: 6f 00 e0 11  	jal	zero, 0x1ff1e <malloc>

000000000001fe04 <jpeg_free_large>:
   1fe04: 13 85 05 00  	addi	a0, a1, 0x0
   1fe08: 6f 00 e0 11  	jal	zero, 0x1ff26 <free>

000000000001fe0c <jpeg_mem_available>:
   1fe0c: 13 05 06 00  	addi	a0, a2, 0x0
   1fe10: 67 80 00 00  	jalr	zero, 0x0(ra)

000000000001fe14 <jpeg_open_backing_store>:
   1fe14: 83 35 05 00  	ld	a1, 0x0(a0)
   1fe18: 03 b3 05 00  	ld	t1, 0x0(a1)
   1fe1c: 13 06 00 03  	addi	a2, zero, 0x30
   1fe20: 23 a4 c5 02  	sw	a2, 0x28(a1)
   1fe24: 67 00 03 00  	jalr	zero, 0x0(t1)

000000000001fe28 <jpeg_mem_init>:
   1fe28: 13 05 00 00  	addi	a0, zero, 0x0
   1fe2c: 67 80 00 00  	jalr	zero, 0x0(ra)

000000000001fe30 <jpeg_mem_term>:
   1fe30: 67 80 00 00  	jalr	zero, 0x0(ra)