
dynamic_baseISA_susan:	file format elf64-littleriscv

Disassembly of section .text:

0000000000010120 <exit>:
   10120: 41 11        	addi	sp, sp, -0x10
   10122: 81 45        	li	a1, 0x0
   10124: 22 e0        	sd	s0, 0x0(sp)
   10126: 06 e4        	sd	ra, 0x8(sp)
   10128: 2a 84        	mv	s0, a0
   1012a: ef 80 50 01  	jal	0x1893e <__call_exitprocs>
   1012e: 83 b7 01 25  	ld	a5, 0x250(gp)
   10132: 91 c3        	beqz	a5, 0x10136 <exit+0x16>
   10134: 82 97        	jalr	a5
   10136: 22 85        	mv	a0, s0
   10138: ef f0 40 6d  	jal	0x1f80c <_exit>

000000000001013c <register_fini>:
   1013c: 93 07 00 00  	li	a5, 0x0
   10140: 91 c7        	beqz	a5, 0x1014c <register_fini+0x10>
   10142: 75 65        	lui	a0, 0x1d
   10144: 13 05 85 60  	addi	a0, a0, 0x608
   10148: 6f 80 90 0c  	j	0x18a10 <atexit>
   1014c: 82 80        	ret

000000000001014e <_start>:
   1014e: 97 31 01 00  	auipc	gp, 0x13
   10152: 93 81 a1 df  	addi	gp, gp, -0x206
   10156: 13 85 81 23  	addi	a0, gp, 0x238
   1015a: 17 36 01 00  	auipc	a2, 0x13
   1015e: 13 06 e6 5e  	addi	a2, a2, 0x5ee
   10162: 09 8e        	sub	a2, a2, a0
   10164: 81 45        	li	a1, 0x0
   10166: ef 80 00 45  	jal	0x185b6 <memset>
   1016a: 17 95 00 00  	auipc	a0, 0x9
   1016e: 13 05 65 8a  	addi	a0, a0, -0x75a
   10172: 19 c5        	beqz	a0, 0x10180 <_start+0x32>
   10174: 17 d5 00 00  	auipc	a0, 0xd
   10178: 13 05 45 49  	addi	a0, a0, 0x494
   1017c: ef 80 50 09  	jal	0x18a10 <atexit>
   10180: ef 80 40 3c  	jal	0x18544 <__libc_init_array>
   10184: 02 45        	lw	a0, 0x0(sp)
   10186: 2c 00        	addi	a1, sp, 0x8
   10188: 01 46        	li	a2, 0x0
   1018a: ef 40 f0 50  	jal	0x14e98 <main>
   1018e: 49 bf        	j	0x10120 <exit>

0000000000010190 <__do_global_dtors_aux>:
   10190: 41 11        	addi	sp, sp, -0x10
   10192: 22 e0        	sd	s0, 0x0(sp)
   10194: 83 c7 81 27  	lbu	a5, 0x278(gp)
   10198: 06 e4        	sd	ra, 0x8(sp)
   1019a: 99 ef        	bnez	a5, 0x101b8 <__do_global_dtors_aux+0x28>
   1019c: 93 07 00 00  	li	a5, 0x0
   101a0: 89 cb        	beqz	a5, 0x101b2 <__do_global_dtors_aux+0x22>
   101a2: 37 25 02 00  	lui	a0, 0x22
   101a6: 13 05 05 00  	mv	a0, a0
   101aa: 97 00 00 00  	auipc	ra, 0x0
   101ae: e7 00 00 00  	jalr	zero
   101b2: 85 47        	li	a5, 0x1
   101b4: 23 8c f1 26  	sb	a5, 0x278(gp)
   101b8: a2 60        	ld	ra, 0x8(sp)
   101ba: 02 64        	ld	s0, 0x0(sp)
   101bc: 41 01        	addi	sp, sp, 0x10
   101be: 82 80        	ret

00000000000101c0 <frame_dummy>:
   101c0: 93 07 00 00  	li	a5, 0x0
   101c4: 99 cb        	beqz	a5, 0x101da <frame_dummy+0x1a>
   101c6: 37 25 02 00  	lui	a0, 0x22
   101ca: 93 85 01 28  	addi	a1, gp, 0x280
   101ce: 13 05 05 00  	mv	a0, a0
   101d2: 17 03 00 00  	auipc	t1, 0x0
   101d6: 67 00 00 00  	jr	zero
   101da: 82 80        	ret

00000000000101dc <usage>:
   101dc: ef 02 31 23  	jal	t0, 0x20c0e <__riscv_save_1>
   101e0: 37 15 02 00  	lui	a0, 0x21
   101e4: 13 05 05 ee  	addi	a0, a0, -0x120
   101e8: ef 70 b0 13  	jal	0x17b22 <puts>
   101ec: 37 15 02 00  	lui	a0, 0x21
   101f0: 13 05 b5 f0  	addi	a0, a0, -0xf5
   101f4: ef 70 f0 12  	jal	0x17b22 <puts>
   101f8: 37 15 02 00  	lui	a0, 0x21
   101fc: 13 05 95 f2  	addi	a0, a0, -0xd7
   10200: ef 70 30 12  	jal	0x17b22 <puts>
   10204: 37 15 02 00  	lui	a0, 0x21
   10208: 13 05 95 f3  	addi	a0, a0, -0xc7
   1020c: ef 70 70 11  	jal	0x17b22 <puts>
   10210: 37 15 02 00  	lui	a0, 0x21
   10214: 13 05 c5 f4  	addi	a0, a0, -0xb4
   10218: ef 70 b0 10  	jal	0x17b22 <puts>
   1021c: 37 15 02 00  	lui	a0, 0x21
   10220: 13 05 e5 f8  	addi	a0, a0, -0x72
   10224: ef 70 f0 0f  	jal	0x17b22 <puts>
   10228: 37 15 02 00  	lui	a0, 0x21
   1022c: 13 05 95 fc  	addi	a0, a0, -0x37
   10230: ef 70 30 0f  	jal	0x17b22 <puts>
   10234: 37 15 02 00  	lui	a0, 0x21
   10238: 13 05 35 03  	addi	a0, a0, 0x33
   1023c: ef 70 70 0e  	jal	0x17b22 <puts>
   10240: 37 15 02 00  	lui	a0, 0x21
   10244: 13 05 35 06  	addi	a0, a0, 0x63
   10248: ef 70 b0 0d  	jal	0x17b22 <puts>
   1024c: 37 15 02 00  	lui	a0, 0x21
   10250: 13 05 15 0b  	addi	a0, a0, 0xb1
   10254: ef 70 f0 0c  	jal	0x17b22 <puts>
   10258: 37 15 02 00  	lui	a0, 0x21
   1025c: 13 05 f5 11  	addi	a0, a0, 0x11f
   10260: ef 70 30 0c  	jal	0x17b22 <puts>
   10264: 37 15 02 00  	lui	a0, 0x21
   10268: 13 05 a5 18  	addi	a0, a0, 0x18a
   1026c: ef 70 70 0b  	jal	0x17b22 <puts>
   10270: 37 15 02 00  	lui	a0, 0x21
   10274: 13 05 45 1e  	addi	a0, a0, 0x1e4
   10278: ef 70 b0 0a  	jal	0x17b22 <puts>
   1027c: 13 05 00 00  	li	a0, 0x0
   10280: ef f0 1f ea  	jal	0x10120 <exit>

0000000000010284 <getint>:
   10284: ef 02 51 16  	jal	t0, 0x20be8 <__riscv_save_7>
   10288: b7 25 00 00  	lui	a1, 0x2
   1028c: 9b 85 05 72  	addiw	a1, a1, 0x720
   10290: 33 01 b1 40  	sub	sp, sp, a1
   10294: 13 04 05 00  	mv	s0, a0
   10298: ef 70 c0 76  	jal	0x17a04 <getc>
   1029c: 93 04 05 00  	mv	s1, a0
   102a0: 93 09 30 02  	li	s3, 0x23
   102a4: 37 25 00 00  	lui	a0, 0x2
   102a8: 1b 09 85 32  	addiw	s2, a0, 0x328
   102ac: 13 0a f0 ff  	li	s4, -0x1
   102b0: 93 0a 90 00  	li	s5, 0x9
   102b4: 63 8a 34 01  	beq	s1, s3, 0x102c8 <getint+0x44>
   102b8: 63 8c 44 07  	beq	s1, s4, 0x10330 <getint+0xac>
   102bc: 1b 85 04 fd  	addiw	a0, s1, -0x30
   102c0: 63 ec aa 00  	bltu	s5, a0, 0x102d8 <getint+0x54>
   102c4: 6f 00 80 02  	j	0x102ec <getint+0x68>
   102c8: 13 05 01 01  	addi	a0, sp, 0x10
   102cc: 93 05 09 00  	mv	a1, s2
   102d0: 13 06 04 00  	mv	a2, s0
   102d4: ef 70 60 01  	jal	0x172ea <fgets>
   102d8: 13 05 04 00  	mv	a0, s0
   102dc: ef 70 80 72  	jal	0x17a04 <getc>
   102e0: 93 04 05 00  	mv	s1, a0
   102e4: e3 1a 35 fd  	bne	a0, s3, 0x102b8 <getint+0x34>
   102e8: 6f f0 1f fe  	j	0x102c8 <getint+0x44>
   102ec: 13 09 00 00  	li	s2, 0x0
   102f0: 93 09 50 ff  	li	s3, -0xb
   102f4: 93 05 a0 00  	li	a1, 0xa
   102f8: 13 05 09 00  	mv	a0, s2
   102fc: ef 00 51 14  	jal	0x20c40 <__muldi3>
   10300: 33 85 a4 00  	add	a0, s1, a0
   10304: 1b 09 05 fd  	addiw	s2, a0, -0x30
   10308: 13 05 04 00  	mv	a0, s0
   1030c: ef 70 80 6f  	jal	0x17a04 <getc>
   10310: 93 04 05 00  	mv	s1, a0
   10314: 1b 05 65 fc  	addiw	a0, a0, -0x3a
   10318: e3 ee a9 fc  	bltu	s3, a0, 0x102f4 <getint+0x70>
   1031c: 13 05 09 00  	mv	a0, s2
   10320: b7 25 00 00  	lui	a1, 0x2
   10324: 9b 85 05 72  	addiw	a1, a1, 0x720
   10328: 33 01 b1 00  	add	sp, sp, a1
   1032c: 6f 00 b1 0f  	j	0x20c26 <__riscv_restore_7>
   10330: 03 b5 01 23  	ld	a0, 0x230(gp)
   10334: 03 35 85 01  	ld	a0, 0x18(a0)
   10338: b7 15 02 00  	lui	a1, 0x21
   1033c: 93 85 c5 d9  	addi	a1, a1, -0x264
   10340: 37 16 02 00  	lui	a2, 0x21
   10344: 13 06 66 db  	addi	a2, a2, -0x24a
   10348: ef 70 80 2f  	jal	0x17640 <fprintf>
   1034c: 13 05 00 00  	li	a0, 0x0
   10350: ef f0 1f dd  	jal	0x10120 <exit>

0000000000010354 <get_image>:
   10354: 13 01 01 fc  	addi	sp, sp, -0x40
   10358: 23 3c 11 02  	sd	ra, 0x38(sp)
   1035c: 23 38 81 02  	sd	s0, 0x30(sp)
   10360: 23 34 91 02  	sd	s1, 0x28(sp)
   10364: 23 30 21 03  	sd	s2, 0x20(sp)
   10368: 23 3c 31 01  	sd	s3, 0x18(sp)
   1036c: 23 38 41 01  	sd	s4, 0x10(sp)
   10370: 23 34 51 01  	sd	s5, 0x8(sp)
   10374: 93 89 06 00  	mv	s3, a3
   10378: 13 0a 06 00  	mv	s4, a2
   1037c: 13 89 05 00  	mv	s2, a1
   10380: 13 04 05 00  	mv	s0, a0
   10384: 37 15 02 00  	lui	a0, 0x21
   10388: 93 05 95 db  	addi	a1, a0, -0x247
   1038c: 13 05 04 00  	mv	a0, s0
   10390: ef 70 20 28  	jal	0x17612 <fopen>
   10394: 63 04 05 0a  	beqz	a0, 0x1043c <get_image+0xe8>
   10398: 93 04 05 00  	mv	s1, a0
   1039c: ef 60 70 63  	jal	0x171d2 <fgetc>
   103a0: 93 0a 05 00  	mv	s5, a0
   103a4: 13 85 04 00  	mv	a0, s1
   103a8: ef 60 b0 62  	jal	0x171d2 <fgetc>
   103ac: 93 f5 fa 0f  	andi	a1, s5, 0xff
   103b0: 13 06 00 05  	li	a2, 0x50
   103b4: 63 9e c5 08  	bne	a1, a2, 0x10450 <get_image+0xfc>
   103b8: 13 75 f5 0f  	andi	a0, a0, 0xff
   103bc: 93 05 50 03  	li	a1, 0x35
   103c0: 63 18 b5 08  	bne	a0, a1, 0x10450 <get_image+0xfc>
   103c4: 13 85 04 00  	mv	a0, s1
   103c8: ef f0 df eb  	jal	0x10284 <getint>
   103cc: 23 20 aa 00  	sw	a0, 0x0(s4)
   103d0: 13 85 04 00  	mv	a0, s1
   103d4: ef f0 1f eb  	jal	0x10284 <getint>
   103d8: 23 a0 a9 00  	sw	a0, 0x0(s3)
   103dc: 13 85 04 00  	mv	a0, s1
   103e0: ef f0 5f ea  	jal	0x10284 <getint>
   103e4: 83 25 0a 00  	lw	a1, 0x0(s4)
   103e8: 03 a5 09 00  	lw	a0, 0x0(s3)
   103ec: ef 00 51 05  	jal	0x20c40 <__muldi3>
   103f0: 9b 09 05 00  	sext.w	s3, a0
   103f4: 13 85 09 00  	mv	a0, s3
   103f8: ef 50 00 2c  	jal	0x156b8 <malloc>
   103fc: 23 30 a9 00  	sd	a0, 0x0(s2)
   10400: 93 05 10 00  	li	a1, 0x1
   10404: 13 86 09 00  	mv	a2, s3
   10408: 93 86 04 00  	mv	a3, s1
   1040c: ef 70 20 41  	jal	0x1781e <fread>
   10410: 63 0a 05 04  	beqz	a0, 0x10464 <get_image+0x110>
   10414: 13 85 04 00  	mv	a0, s1
   10418: 83 30 81 03  	ld	ra, 0x38(sp)
   1041c: 03 34 01 03  	ld	s0, 0x30(sp)
   10420: 83 34 81 02  	ld	s1, 0x28(sp)
   10424: 03 39 01 02  	ld	s2, 0x20(sp)
   10428: 83 39 81 01  	ld	s3, 0x18(sp)
   1042c: 03 3a 01 01  	ld	s4, 0x10(sp)
   10430: 83 3a 81 00  	ld	s5, 0x8(sp)
   10434: 13 01 01 04  	addi	sp, sp, 0x40
   10438: 6f 60 f0 32  	j	0x16f66 <fclose>
   1043c: 03 b5 01 23  	ld	a0, 0x230(gp)
   10440: 03 35 85 01  	ld	a0, 0x18(a0)
   10444: b7 15 02 00  	lui	a1, 0x21
   10448: 93 85 b5 db  	addi	a1, a1, -0x245
   1044c: 6f 00 80 02  	j	0x10474 <get_image+0x120>
   10450: 03 b5 01 23  	ld	a0, 0x230(gp)
   10454: 03 35 85 01  	ld	a0, 0x18(a0)
   10458: b7 15 02 00  	lui	a1, 0x21
   1045c: 93 85 25 dd  	addi	a1, a1, -0x22e
   10460: 6f 00 40 01  	j	0x10474 <get_image+0x120>
   10464: 03 b5 01 23  	ld	a0, 0x230(gp)
   10468: 03 35 85 01  	ld	a0, 0x18(a0)
   1046c: b7 15 02 00  	lui	a1, 0x21
   10470: 93 85 d5 df  	addi	a1, a1, -0x203
   10474: 13 06 04 00  	mv	a2, s0
   10478: ef 70 80 1c  	jal	0x17640 <fprintf>
   1047c: 13 05 00 00  	li	a0, 0x0
   10480: ef f0 1f ca  	jal	0x10120 <exit>

0000000000010484 <put_image>:
   10484: 13 01 01 fc  	addi	sp, sp, -0x40
   10488: 23 3c 11 02  	sd	ra, 0x38(sp)
   1048c: 23 38 81 02  	sd	s0, 0x30(sp)
   10490: 23 34 91 02  	sd	s1, 0x28(sp)
   10494: 23 30 21 03  	sd	s2, 0x20(sp)
   10498: 23 3c 31 01  	sd	s3, 0x18(sp)
   1049c: 23 38 41 01  	sd	s4, 0x10(sp)
   104a0: 23 34 51 01  	sd	s5, 0x8(sp)
   104a4: 13 8a 06 00  	mv	s4, a3
   104a8: 93 09 06 00  	mv	s3, a2
   104ac: 13 89 05 00  	mv	s2, a1
   104b0: 13 04 05 00  	mv	s0, a0
   104b4: 37 15 02 00  	lui	a0, 0x21
   104b8: 93 05 65 e1  	addi	a1, a0, -0x1ea
   104bc: 13 05 04 00  	mv	a0, s0
   104c0: ef 70 20 15  	jal	0x17612 <fopen>
   104c4: 63 00 05 0a  	beqz	a0, 0x10564 <put_image+0xe0>
   104c8: 93 04 05 00  	mv	s1, a0
   104cc: 37 15 02 00  	lui	a0, 0x21
   104d0: 13 05 f5 e2  	addi	a0, a0, -0x1d1
   104d4: 93 05 30 00  	li	a1, 0x3
   104d8: 13 06 10 00  	li	a2, 0x1
   104dc: 93 0a 10 00  	li	s5, 0x1
   104e0: 93 86 04 00  	mv	a3, s1
   104e4: ef 70 a0 45  	jal	0x1793e <fwrite>
   104e8: 37 15 02 00  	lui	a0, 0x21
   104ec: 93 05 35 e3  	addi	a1, a0, -0x1cd
   104f0: 13 85 04 00  	mv	a0, s1
   104f4: 13 86 09 00  	mv	a2, s3
   104f8: 93 06 0a 00  	mv	a3, s4
   104fc: ef 70 40 14  	jal	0x17640 <fprintf>
   10500: 37 15 02 00  	lui	a0, 0x21
   10504: 13 05 a5 e3  	addi	a0, a0, -0x1c6
   10508: 93 05 40 00  	li	a1, 0x4
   1050c: 13 06 10 00  	li	a2, 0x1
   10510: 93 86 04 00  	mv	a3, s1
   10514: ef 70 a0 42  	jal	0x1793e <fwrite>
   10518: 13 05 0a 00  	mv	a0, s4
   1051c: 93 85 09 00  	mv	a1, s3
   10520: ef 00 01 72  	jal	0x20c40 <__muldi3>
   10524: 9b 05 05 00  	sext.w	a1, a0
   10528: 13 06 10 00  	li	a2, 0x1
   1052c: 13 05 09 00  	mv	a0, s2
   10530: 93 86 04 00  	mv	a3, s1
   10534: ef 70 a0 40  	jal	0x1793e <fwrite>
   10538: 63 10 55 05  	bne	a0, s5, 0x10578 <put_image+0xf4>
   1053c: 13 85 04 00  	mv	a0, s1
   10540: 83 30 81 03  	ld	ra, 0x38(sp)
   10544: 03 34 01 03  	ld	s0, 0x30(sp)
   10548: 83 34 81 02  	ld	s1, 0x28(sp)
   1054c: 03 39 01 02  	ld	s2, 0x20(sp)
   10550: 83 39 81 01  	ld	s3, 0x18(sp)
   10554: 03 3a 01 01  	ld	s4, 0x10(sp)
   10558: 83 3a 81 00  	ld	s5, 0x8(sp)
   1055c: 13 01 01 04  	addi	sp, sp, 0x40
   10560: 6f 60 70 20  	j	0x16f66 <fclose>
   10564: 03 b5 01 23  	ld	a0, 0x230(gp)
   10568: 03 35 85 01  	ld	a0, 0x18(a0)
   1056c: b7 15 02 00  	lui	a1, 0x21
   10570: 93 85 85 e1  	addi	a1, a1, -0x1e8
   10574: 6f 00 40 01  	j	0x10588 <put_image+0x104>
   10578: 03 b5 01 23  	ld	a0, 0x230(gp)
   1057c: 03 35 85 01  	ld	a0, 0x18(a0)
   10580: b7 15 02 00  	lui	a1, 0x21
   10584: 93 85 f5 e3  	addi	a1, a1, -0x1c1
   10588: 13 06 04 00  	mv	a2, s0
   1058c: ef 70 40 0b  	jal	0x17640 <fprintf>
   10590: 13 05 00 00  	li	a0, 0x0
   10594: ef f0 df b8  	jal	0x10120 <exit>

0000000000010598 <int_to_uchar>:
   10598: ef 02 a1 65  	jal	t0, 0x20bf2 <__riscv_save_5>
   1059c: 63 5e c0 06  	blez	a2, 0x10618 <int_to_uchar+0x80>
   105a0: 13 84 05 00  	mv	s0, a1
   105a4: 93 04 05 00  	mv	s1, a0
   105a8: 83 26 05 00  	lw	a3, 0x0(a0)
   105ac: 13 15 26 00  	slli	a0, a2, 0x2
   105b0: 33 85 a4 00  	add	a0, s1, a0
   105b4: 93 85 04 00  	mv	a1, s1
   105b8: 93 87 06 00  	mv	a5, a3
   105bc: 83 a9 05 00  	lw	s3, 0x0(a1)
   105c0: 13 87 09 00  	mv	a4, s3
   105c4: 63 c4 37 01  	blt	a5, s3, 0x105cc <int_to_uchar+0x34>
   105c8: 13 87 07 00  	mv	a4, a5
   105cc: 63 c4 d9 00  	blt	s3, a3, 0x105d4 <int_to_uchar+0x3c>
   105d0: 93 89 06 00  	mv	s3, a3
   105d4: 93 85 45 00  	addi	a1, a1, 0x4
   105d8: 93 86 09 00  	mv	a3, s3
   105dc: 93 07 07 00  	mv	a5, a4
   105e0: e3 9e a5 fc  	bne	a1, a0, 0x105bc <int_to_uchar+0x24>
   105e4: 63 5a c0 02  	blez	a2, 0x10618 <int_to_uchar+0x80>
   105e8: 3b 09 37 41  	subw	s2, a4, s3
   105ec: 33 0a c4 00  	add	s4, s0, a2
   105f0: 03 a5 04 00  	lw	a0, 0x0(s1)
   105f4: 3b 05 35 41  	subw	a0, a0, s3
   105f8: 93 15 85 00  	slli	a1, a0, 0x8
   105fc: 3b 85 a5 40  	subw	a0, a1, a0
   10600: 93 05 09 00  	mv	a1, s2
   10604: ef 00 c1 67  	jal	0x20c80 <__divdi3>
   10608: 23 00 a4 00  	sb	a0, 0x0(s0)
   1060c: 13 04 14 00  	addi	s0, s0, 0x1
   10610: 93 84 44 00  	addi	s1, s1, 0x4
   10614: e3 1e 44 fd  	bne	s0, s4, 0x105f0 <int_to_uchar+0x58>
   10618: 13 05 00 00  	li	a0, 0x0
   1061c: 6f 00 01 61  	j	0x20c2c <__riscv_restore_5>

0000000000010620 <setup_brightness_lut>:
   10620: ef 02 81 5c  	jal	t0, 0x20be8 <__riscv_save_7>
   10624: 13 01 01 fe  	addi	sp, sp, -0x20
   10628: 27 3c 81 00  	fsd	fs0, 0x18(sp)
   1062c: 27 38 91 00  	fsd	fs1, 0x10(sp)
   10630: 27 34 21 01  	fsd	fs2, 0x8(sp)
   10634: 13 04 06 00  	mv	s0, a2
   10638: 13 89 05 00  	mv	s2, a1
   1063c: 93 04 05 00  	mv	s1, a0
   10640: 13 05 40 20  	li	a0, 0x204
   10644: ef 50 40 07  	jal	0x156b8 <malloc>
   10648: 13 05 25 10  	addi	a0, a0, 0x102
   1064c: 23 b0 a4 00  	sd	a0, 0x0(s1)
   10650: 53 74 09 d0  	fcvt.s.w	fs0, s2
   10654: 13 09 00 f0  	li	s2, -0x100
   10658: 37 05 80 3f  	lui	a0, 0x3f800
   1065c: d3 04 05 f0  	fmv.w.x	fs1, a0
   10660: 07 b9 81 1c  	fld	fs2, 0x1c8(gp)
   10664: 93 09 60 00  	li	s3, 0x6
   10668: 13 0a 10 10  	li	s4, 0x101
   1066c: 93 0a 00 f0  	li	s5, -0x100
   10670: d3 77 09 d0  	fcvt.s.w	fa5, s2
   10674: d3 f7 87 18  	fdiv.s	fa5, fa5, fs0
   10678: d3 f7 f7 10  	fmul.s	fa5, fa5, fa5
   1067c: 63 06 34 01  	beq	s0, s3, 0x10688 <setup_brightness_lut+0x68>
   10680: 53 87 94 20  	fmv.s	fa4, fs1
   10684: 6f 00 80 00  	j	0x1068c <setup_brightness_lut+0x6c>
   10688: 53 f7 f7 10  	fmul.s	fa4, fa5, fa5
   1068c: d3 97 f7 20  	fneg.s	fa5, fa5
   10690: d3 77 f7 10  	fmul.s	fa5, fa4, fa5
   10694: 53 85 07 42  	fcvt.d.s	fa0, fa5
   10698: ef 40 10 45  	jal	0x152e8 <exp>
   1069c: 03 b5 04 00  	ld	a0, 0x0(s1)
   106a0: d3 77 25 13  	fmul.d	fa5, fa0, fs2
   106a4: d3 f7 17 40  	fcvt.s.d	fa5, fa5
   106a8: d3 95 37 c0  	fcvt.lu.s	a1, fa5, rtz
   106ac: 33 05 55 01  	add	a0, a0, s5
   106b0: 23 00 b5 00  	sb	a1, 0x0(a0)
   106b4: 93 8a 1a 00  	addi	s5, s5, 0x1
   106b8: 13 09 19 00  	addi	s2, s2, 0x1
   106bc: e3 9a 4a fb  	bne	s5, s4, 0x10670 <setup_brightness_lut+0x50>
   106c0: 07 34 81 01  	fld	fs0, 0x18(sp)
   106c4: 87 34 01 01  	fld	fs1, 0x10(sp)
   106c8: 07 39 81 00  	fld	fs2, 0x8(sp)
   106cc: 13 01 01 02  	addi	sp, sp, 0x20
   106d0: 6f 00 61 55  	j	0x20c26 <__riscv_restore_7>

00000000000106d4 <susan_principle>:
   106d4: ef 02 81 4f  	jal	t0, 0x20bcc <__riscv_save_12>
   106d8: 93 8a 07 00  	mv	s5, a5
   106dc: 13 04 07 00  	mv	s0, a4
   106e0: 93 84 06 00  	mv	s1, a3
   106e4: 13 09 06 00  	mv	s2, a2
   106e8: 13 8a 05 00  	mv	s4, a1
   106ec: 93 09 05 00  	mv	s3, a0
   106f0: 13 85 07 00  	mv	a0, a5
   106f4: 93 05 07 00  	mv	a1, a4
   106f8: ef 00 81 54  	jal	0x20c40 <__muldi3>
   106fc: 1b 05 05 00  	sext.w	a0, a0
   10700: 13 16 25 00  	slli	a2, a0, 0x2
   10704: 13 05 0a 00  	mv	a0, s4
   10708: 93 05 00 00  	li	a1, 0x0
   1070c: ef 70 b0 6a  	jal	0x185b6 <memset>
   10710: 13 05 70 00  	li	a0, 0x7
   10714: 63 c4 aa 34  	blt	s5, a0, 0x10a5c <susan_principle+0x388>
   10718: 9b 8a da ff  	addiw	s5, s5, -0x3
   1071c: 9b 02 d4 ff  	addiw	t0, s0, -0x3
   10720: 1b 03 b4 ff  	addiw	t1, s0, -0x5
   10724: 9b 08 a4 ff  	addiw	a7, s0, -0x6
   10728: 93 95 02 02  	slli	a1, t0, 0x20
   1072c: 93 d6 05 02  	srli	a3, a1, 0x20
   10730: 13 0a ca 00  	addi	s4, s4, 0xc
   10734: 93 15 14 00  	slli	a1, s0, 0x1
   10738: b3 85 85 00  	add	a1, a1, s0
   1073c: 13 86 39 00  	addi	a2, s3, 0x3
   10740: 93 86 d6 ff  	addi	a3, a3, -0x3
   10744: 13 97 12 00  	slli	a4, t0, 0x1
   10748: 93 13 13 00  	slli	t2, t1, 0x1
   1074c: 33 07 77 00  	add	a4, a4, t2
   10750: 13 9e 18 00  	slli	t3, a7, 0x1
   10754: b3 07 3e 01  	add	a5, t3, s3
   10758: 33 07 f7 00  	add	a4, a4, a5
   1075c: 13 07 e7 01  	addi	a4, a4, 0x1e
   10760: b3 87 59 00  	add	a5, s3, t0
   10764: b3 8e 62 00  	add	t4, t0, t1
   10768: 33 88 d9 01  	add	a6, s3, t4
   1076c: b3 88 38 01  	add	a7, a7, s3
   10770: b3 88 1e 01  	add	a7, t4, a7
   10774: 93 88 48 01  	addi	a7, a7, 0x14
   10778: 33 0e 5e 00  	add	t3, t3, t0
   1077c: 33 03 33 01  	add	t1, t1, s3
   10780: b3 02 6e 00  	add	t0, t3, t1
   10784: 93 82 a2 01  	addi	t0, t0, 0x1a
   10788: b3 83 33 01  	add	t2, t2, s3
   1078c: 33 03 7e 00  	add	t1, t3, t2
   10790: 13 03 a3 01  	addi	t1, t1, 0x1a
   10794: 93 03 30 00  	li	t2, 0x3
   10798: 63 4e a4 28  	blt	s0, a0, 0x10a34 <susan_principle+0x360>
   1079c: 13 0e 00 00  	li	t3, 0x0
   107a0: 93 9e 05 02  	slli	t4, a1, 0x20
   107a4: 13 df 0e 02  	srli	t5, t4, 0x20
   107a8: 93 de ee 01  	srli	t4, t4, 0x1e
   107ac: b3 0e da 01  	add	t4, s4, t4
   107b0: 33 0f e6 01  	add	t5, a2, t5
   107b4: 33 8b c9 01  	add	s6, s3, t3
   107b8: b3 0f cf 01  	add	t6, t5, t3
   107bc: 83 cf 0f 00  	lbu	t6, 0x0(t6)
   107c0: 83 4b 2b 00  	lbu	s7, 0x2(s6)
   107c4: 03 4c 3b 00  	lbu	s8, 0x3(s6)
   107c8: b3 0f f9 01  	add	t6, s2, t6
   107cc: b3 8b 7f 41  	sub	s7, t6, s7
   107d0: 83 cb 0b 00  	lbu	s7, 0x0(s7)
   107d4: 33 8c 8f 41  	sub	s8, t6, s8
   107d8: 03 4b 4b 00  	lbu	s6, 0x4(s6)
   107dc: b3 8c c7 01  	add	s9, a5, t3
   107e0: 03 cd 4c 00  	lbu	s10, 0x4(s9)
   107e4: 03 4c 0c 00  	lbu	s8, 0x0(s8)
   107e8: 33 8b 6f 41  	sub	s6, t6, s6
   107ec: 03 4b 0b 00  	lbu	s6, 0x0(s6)
   107f0: 33 8d af 41  	sub	s10, t6, s10
   107f4: 03 4d 0d 00  	lbu	s10, 0x0(s10)
   107f8: 83 cd 5c 00  	lbu	s11, 0x5(s9)
   107fc: b3 8b 8b 01  	add	s7, s7, s8
   10800: 33 0b ab 01  	add	s6, s6, s10
   10804: 03 cc 6c 00  	lbu	s8, 0x6(s9)
   10808: 33 8d bf 41  	sub	s10, t6, s11
   1080c: 83 cd 7c 00  	lbu	s11, 0x7(s9)
   10810: 03 4d 0d 00  	lbu	s10, 0x0(s10)
   10814: 33 8c 8f 41  	sub	s8, t6, s8
   10818: 03 4c 0c 00  	lbu	s8, 0x0(s8)
   1081c: b3 8d bf 41  	sub	s11, t6, s11
   10820: 83 cd 0d 00  	lbu	s11, 0x0(s11)
   10824: 33 8b 6b 01  	add	s6, s7, s6
   10828: 33 0c 8d 01  	add	s8, s10, s8
   1082c: 83 cb 8c 00  	lbu	s7, 0x8(s9)
   10830: 33 0c bc 01  	add	s8, s8, s11
   10834: b3 0c c8 01  	add	s9, a6, t3
   10838: 03 cd 8c 00  	lbu	s10, 0x8(s9)
   1083c: b3 8b 7f 41  	sub	s7, t6, s7
   10840: 83 cd 9c 00  	lbu	s11, 0x9(s9)
   10844: 83 cb 0b 00  	lbu	s7, 0x0(s7)
   10848: 33 8d af 41  	sub	s10, t6, s10
   1084c: 03 4d 0d 00  	lbu	s10, 0x0(s10)
   10850: b3 8d bf 41  	sub	s11, t6, s11
   10854: 83 cd 0d 00  	lbu	s11, 0x0(s11)
   10858: 33 0b 8b 01  	add	s6, s6, s8
   1085c: 03 cc ac 00  	lbu	s8, 0xa(s9)
   10860: b3 8b ab 01  	add	s7, s7, s10
   10864: b3 8b bb 01  	add	s7, s7, s11
   10868: 03 cd bc 00  	lbu	s10, 0xb(s9)
   1086c: 33 8c 8f 41  	sub	s8, t6, s8
   10870: 83 cd cc 00  	lbu	s11, 0xc(s9)
   10874: 03 4c 0c 00  	lbu	s8, 0x0(s8)
   10878: 33 8d af 41  	sub	s10, t6, s10
   1087c: 03 4d 0d 00  	lbu	s10, 0x0(s10)
   10880: b3 8d bf 41  	sub	s11, t6, s11
   10884: 83 cd 0d 00  	lbu	s11, 0x0(s11)
   10888: 83 c0 dc 00  	lbu	ra, 0xd(s9)
   1088c: b3 8b 8b 01  	add	s7, s7, s8
   10890: 33 0b 7b 01  	add	s6, s6, s7
   10894: 33 0d bd 01  	add	s10, s10, s11
   10898: b3 8b 1f 40  	sub	s7, t6, ra
   1089c: 03 cc ec 00  	lbu	s8, 0xe(s9)
   108a0: b3 8c c8 01  	add	s9, a7, t3
   108a4: 83 cd ac ff  	lbu	s11, -0x6(s9)
   108a8: 83 cb 0b 00  	lbu	s7, 0x0(s7)
   108ac: 33 8c 8f 41  	sub	s8, t6, s8
   108b0: 03 4c 0c 00  	lbu	s8, 0x0(s8)
   108b4: b3 8d bf 41  	sub	s11, t6, s11
   108b8: 83 cd 0d 00  	lbu	s11, 0x0(s11)
   108bc: b3 0b 7d 01  	add	s7, s10, s7
   108c0: 03 cd bc ff  	lbu	s10, -0x5(s9)
   108c4: b3 8b 8b 01  	add	s7, s7, s8
   108c8: b3 8b bb 01  	add	s7, s7, s11
   108cc: 03 cc cc ff  	lbu	s8, -0x4(s9)
   108d0: 33 8d af 41  	sub	s10, t6, s10
   108d4: 83 cd ec ff  	lbu	s11, -0x2(s9)
   108d8: 03 4d 0d 00  	lbu	s10, 0x0(s10)
   108dc: 33 8c 8f 41  	sub	s8, t6, s8
   108e0: 03 4c 0c 00  	lbu	s8, 0x0(s8)
   108e4: b3 8d bf 41  	sub	s11, t6, s11
   108e8: 83 cd 0d 00  	lbu	s11, 0x0(s11)
   108ec: 83 c0 fc ff  	lbu	ra, -0x1(s9)
   108f0: 33 0b 7b 01  	add	s6, s6, s7
   108f4: 33 0c 8d 01  	add	s8, s10, s8
   108f8: 33 0c bc 01  	add	s8, s8, s11
   108fc: b3 8b 1f 40  	sub	s7, t6, ra
   10900: 83 cb 0b 00  	lbu	s7, 0x0(s7)
   10904: 83 cc 0c 00  	lbu	s9, 0x0(s9)
   10908: 33 8d c2 01  	add	s10, t0, t3
   1090c: 83 4d ad ff  	lbu	s11, -0x6(s10)
   10910: b3 0b 7c 01  	add	s7, s8, s7
   10914: 33 8c 9f 41  	sub	s8, t6, s9
   10918: 03 4c 0c 00  	lbu	s8, 0x0(s8)
   1091c: b3 8c bf 41  	sub	s9, t6, s11
   10920: 83 cc 0c 00  	lbu	s9, 0x0(s9)
   10924: 83 4d bd ff  	lbu	s11, -0x5(s10)
   10928: b3 8b 8b 01  	add	s7, s7, s8
   1092c: 03 4c cd ff  	lbu	s8, -0x4(s10)
   10930: b3 8b 9b 01  	add	s7, s7, s9
   10934: b3 8c bf 41  	sub	s9, t6, s11
   10938: 83 cc 0c 00  	lbu	s9, 0x0(s9)
   1093c: 33 8c 8f 41  	sub	s8, t6, s8
   10940: 03 4c 0c 00  	lbu	s8, 0x0(s8)
   10944: 83 4d dd ff  	lbu	s11, -0x3(s10)
   10948: 33 0b 7b 01  	add	s6, s6, s7
   1094c: 83 4b ed ff  	lbu	s7, -0x2(s10)
   10950: 33 8c 8c 01  	add	s8, s9, s8
   10954: b3 8c bf 41  	sub	s9, t6, s11
   10958: 83 cc 0c 00  	lbu	s9, 0x0(s9)
   1095c: b3 8b 7f 41  	sub	s7, t6, s7
   10960: 83 cb 0b 00  	lbu	s7, 0x0(s7)
   10964: 83 4d fd ff  	lbu	s11, -0x1(s10)
   10968: 33 0c 9c 01  	add	s8, s8, s9
   1096c: 83 4c 0d 00  	lbu	s9, 0x0(s10)
   10970: b3 0b 7c 01  	add	s7, s8, s7
   10974: 33 8c bf 41  	sub	s8, t6, s11
   10978: 03 4c 0c 00  	lbu	s8, 0x0(s8)
   1097c: b3 8c 9f 41  	sub	s9, t6, s9
   10980: 83 cc 0c 00  	lbu	s9, 0x0(s9)
   10984: 33 0d c3 01  	add	s10, t1, t3
   10988: 83 4d 0d 00  	lbu	s11, 0x0(s10)
   1098c: b3 8b 8b 01  	add	s7, s7, s8
   10990: b3 8b 9b 01  	add	s7, s7, s9
   10994: 03 4c 1d 00  	lbu	s8, 0x1(s10)
   10998: b3 8c bf 41  	sub	s9, t6, s11
   1099c: 83 cc 0c 00  	lbu	s9, 0x0(s9)
   109a0: 83 4d 2d 00  	lbu	s11, 0x2(s10)
   109a4: 33 8c 8f 41  	sub	s8, t6, s8
   109a8: 83 40 3d 00  	lbu	ra, 0x3(s10)
   109ac: 03 4c 0c 00  	lbu	s8, 0x0(s8)
   109b0: b3 8d bf 41  	sub	s11, t6, s11
   109b4: 83 cd 0d 00  	lbu	s11, 0x0(s11)
   109b8: b3 80 1f 40  	sub	ra, t6, ra
   109bc: 83 c0 00 00  	lbu	ra, 0x0(ra)
   109c0: b3 8b 9b 01  	add	s7, s7, s9
   109c4: 33 0b 7b 01  	add	s6, s6, s7
   109c8: 33 0c bc 01  	add	s8, s8, s11
   109cc: 33 0c 1c 00  	add	s8, s8, ra
   109d0: 83 4b 4d 00  	lbu	s7, 0x4(s10)
   109d4: b3 0c c7 01  	add	s9, a4, t3
   109d8: 03 cd 0c 00  	lbu	s10, 0x0(s9)
   109dc: 83 cd 1c 00  	lbu	s11, 0x1(s9)
   109e0: 83 cc 2c 00  	lbu	s9, 0x2(s9)
   109e4: b3 8b 7f 41  	sub	s7, t6, s7
   109e8: 33 8d af 41  	sub	s10, t6, s10
   109ec: b3 8d bf 41  	sub	s11, t6, s11
   109f0: b3 8f 9f 41  	sub	t6, t6, s9
   109f4: 83 cb 0b 00  	lbu	s7, 0x0(s7)
   109f8: 83 4c 0d 00  	lbu	s9, 0x0(s10)
   109fc: 03 cd 0d 00  	lbu	s10, 0x0(s11)
   10a00: 83 cf 0f 00  	lbu	t6, 0x0(t6)
   10a04: b3 0b 7c 01  	add	s7, s8, s7
   10a08: b3 8b 9b 01  	add	s7, s7, s9
   10a0c: b3 8b ab 01  	add	s7, s7, s10
   10a10: b3 8f fb 01  	add	t6, s7, t6
   10a14: b3 0f fb 01  	add	t6, s6, t6
   10a18: 9b 8f 4f 06  	addiw	t6, t6, 0x64
   10a1c: 63 c6 f4 01  	blt	s1, t6, 0x10a28 <susan_principle+0x354>
   10a20: bb 8f f4 41  	subw	t6, s1, t6
   10a24: 23 a0 fe 01  	sw	t6, 0x0(t4)
   10a28: 13 0e 1e 00  	addi	t3, t3, 0x1
   10a2c: 93 8e 4e 00  	addi	t4, t4, 0x4
   10a30: e3 92 c6 d9  	bne	a3, t3, 0x107b4 <susan_principle+0xe0>
   10a34: 93 83 13 00  	addi	t2, t2, 0x1
   10a38: b3 85 85 00  	add	a1, a1, s0
   10a3c: b3 89 89 00  	add	s3, s3, s0
   10a40: 33 07 87 00  	add	a4, a4, s0
   10a44: b3 87 87 00  	add	a5, a5, s0
   10a48: 33 08 88 00  	add	a6, a6, s0
   10a4c: b3 88 88 00  	add	a7, a7, s0
   10a50: b3 82 82 00  	add	t0, t0, s0
   10a54: 33 03 83 00  	add	t1, t1, s0
   10a58: e3 90 53 d5  	bne	t2, s5, 0x10798 <susan_principle+0xc4>
   10a5c: 13 05 00 00  	li	a0, 0x0
   10a60: 6f 00 61 1b  	j	0x20c16 <__riscv_restore_12>

0000000000010a64 <susan_principle_small>:
   10a64: ef 02 41 18  	jal	t0, 0x20be8 <__riscv_save_7>
   10a68: 13 8a 07 00  	mv	s4, a5
   10a6c: 13 04 07 00  	mv	s0, a4
   10a70: 93 04 06 00  	mv	s1, a2
   10a74: 93 89 05 00  	mv	s3, a1
   10a78: 13 09 05 00  	mv	s2, a0
   10a7c: 13 85 07 00  	mv	a0, a5
   10a80: 93 05 07 00  	mv	a1, a4
   10a84: ef 00 c1 1b  	jal	0x20c40 <__muldi3>
   10a88: 1b 05 05 00  	sext.w	a0, a0
   10a8c: 13 16 25 00  	slli	a2, a0, 0x2
   10a90: 13 85 09 00  	mv	a0, s3
   10a94: 93 05 00 00  	li	a1, 0x0
   10a98: ef 70 f0 31  	jal	0x185b6 <memset>
   10a9c: 13 05 30 00  	li	a0, 0x3
   10aa0: 63 42 aa 12  	blt	s4, a0, 0x10bc4 <susan_principle_small+0x160>
   10aa4: 1b 0a fa ff  	addiw	s4, s4, -0x1
   10aa8: 93 05 f4 ff  	addi	a1, s0, -0x1
   10aac: 1b 07 e4 ff  	addiw	a4, s0, -0x2
   10ab0: 93 95 05 02  	slli	a1, a1, 0x20
   10ab4: 13 d6 05 02  	srli	a2, a1, 0x20
   10ab8: 93 89 49 00  	addi	s3, s3, 0x4
   10abc: 93 05 19 00  	addi	a1, s2, 0x1
   10ac0: 13 06 f6 ff  	addi	a2, a2, -0x1
   10ac4: b3 06 27 01  	add	a3, a4, s2
   10ac8: 93 86 26 00  	addi	a3, a3, 0x2
   10acc: 13 17 17 00  	slli	a4, a4, 0x1
   10ad0: 33 07 e9 00  	add	a4, s2, a4
   10ad4: 93 07 10 00  	li	a5, 0x1
   10ad8: 13 08 a0 2d  	li	a6, 0x2da
   10adc: 93 08 04 00  	mv	a7, s0
   10ae0: 63 46 a4 0c  	blt	s0, a0, 0x10bac <susan_principle_small+0x148>
   10ae4: 93 02 00 00  	li	t0, 0x0
   10ae8: 13 93 08 02  	slli	t1, a7, 0x20
   10aec: 93 53 03 02  	srli	t2, t1, 0x20
   10af0: 13 53 e3 01  	srli	t1, t1, 0x1e
   10af4: 33 83 69 00  	add	t1, s3, t1
   10af8: b3 83 75 00  	add	t2, a1, t2
   10afc: 33 0e 59 00  	add	t3, s2, t0
   10b00: b3 8e 53 00  	add	t4, t2, t0
   10b04: 83 ce 0e 00  	lbu	t4, 0x0(t4)
   10b08: 03 4f 0e 00  	lbu	t5, 0x0(t3)
   10b0c: 83 4f 1e 00  	lbu	t6, 0x1(t3)
   10b10: b3 8e d4 01  	add	t4, s1, t4
   10b14: 33 8f ee 41  	sub	t5, t4, t5
   10b18: 03 4f 0f 00  	lbu	t5, 0x0(t5)
   10b1c: b3 8f fe 41  	sub	t6, t4, t6
   10b20: 03 4e 2e 00  	lbu	t3, 0x2(t3)
   10b24: b3 8a 56 00  	add	s5, a3, t0
   10b28: 03 cb 0a 00  	lbu	s6, 0x0(s5)
   10b2c: 83 cf 0f 00  	lbu	t6, 0x0(t6)
   10b30: 33 8e ce 41  	sub	t3, t4, t3
   10b34: 03 4e 0e 00  	lbu	t3, 0x0(t3)
   10b38: 33 8b 6e 41  	sub	s6, t4, s6
   10b3c: 03 4b 0b 00  	lbu	s6, 0x0(s6)
   10b40: 33 0f ff 01  	add	t5, t5, t6
   10b44: 33 0e 6e 01  	add	t3, t3, s6
   10b48: 83 cf 2a 00  	lbu	t6, 0x2(s5)
   10b4c: 33 0e cf 01  	add	t3, t5, t3
   10b50: 33 0f 57 00  	add	t5, a4, t0
   10b54: 83 4a 4f 00  	lbu	s5, 0x4(t5)
   10b58: b3 8f fe 41  	sub	t6, t4, t6
   10b5c: 83 cf 0f 00  	lbu	t6, 0x0(t6)
   10b60: 03 4b 5f 00  	lbu	s6, 0x5(t5)
   10b64: b3 8a 5e 41  	sub	s5, t4, s5
   10b68: 03 4f 6f 00  	lbu	t5, 0x6(t5)
   10b6c: 83 ca 0a 00  	lbu	s5, 0x0(s5)
   10b70: 33 8b 6e 41  	sub	s6, t4, s6
   10b74: 03 4b 0b 00  	lbu	s6, 0x0(s6)
   10b78: b3 8e ee 41  	sub	t4, t4, t5
   10b7c: 83 ce 0e 00  	lbu	t4, 0x0(t4)
   10b80: b3 8f 5f 01  	add	t6, t6, s5
   10b84: b3 8f 6f 01  	add	t6, t6, s6
   10b88: 33 0e fe 01  	add	t3, t3, t6
   10b8c: 33 0e de 01  	add	t3, t3, t4
   10b90: 1b 0e 4e 06  	addiw	t3, t3, 0x64
   10b94: 63 66 c8 01  	bltu	a6, t3, 0x10ba0 <susan_principle_small+0x13c>
   10b98: 3b 0e c8 41  	subw	t3, a6, t3
   10b9c: 23 20 c3 01  	sw	t3, 0x0(t1)
   10ba0: 93 82 12 00  	addi	t0, t0, 0x1
   10ba4: 13 03 43 00  	addi	t1, t1, 0x4
   10ba8: e3 1a 56 f4  	bne	a2, t0, 0x10afc <susan_principle_small+0x98>
   10bac: 93 87 17 00  	addi	a5, a5, 0x1
   10bb0: b3 88 88 00  	add	a7, a7, s0
   10bb4: 33 09 89 00  	add	s2, s2, s0
   10bb8: b3 86 86 00  	add	a3, a3, s0
   10bbc: 33 07 87 00  	add	a4, a4, s0
   10bc0: e3 90 47 f3  	bne	a5, s4, 0x10ae0 <susan_principle_small+0x7c>
   10bc4: 13 05 00 00  	li	a0, 0x0
   10bc8: 6f 00 e1 05  	j	0x20c26 <__riscv_restore_7>

0000000000010bcc <median>:
   10bcc: ef 02 61 02  	jal	t0, 0x20bf2 <__riscv_save_5>
   10bd0: 13 01 01 fe  	addi	sp, sp, -0x20
   10bd4: 13 84 06 00  	mv	s0, a3
   10bd8: 93 04 06 00  	mv	s1, a2
   10bdc: 13 89 05 00  	mv	s2, a1
   10be0: 93 09 05 00  	mv	s3, a0
   10be4: 13 85 f5 ff  	addi	a0, a1, -0x1
   10be8: 93 85 06 00  	mv	a1, a3
   10bec: ef 00 41 05  	jal	0x20c40 <__muldi3>
   10bf0: 3b 05 95 00  	addw	a0, a0, s1
   10bf4: 33 85 a9 00  	add	a0, s3, a0
   10bf8: 83 45 f5 ff  	lbu	a1, -0x1(a0)
   10bfc: 03 46 05 00  	lbu	a2, 0x0(a0)
   10c00: 03 45 15 00  	lbu	a0, 0x1(a0)
   10c04: 23 20 b1 00  	sw	a1, 0x0(sp)
   10c08: 13 0a 41 00  	addi	s4, sp, 0x4
   10c0c: 23 22 c1 00  	sw	a2, 0x4(sp)
   10c10: 23 24 a1 00  	sw	a0, 0x8(sp)
   10c14: 13 05 04 00  	mv	a0, s0
   10c18: 93 05 09 00  	mv	a1, s2
   10c1c: ef 00 41 02  	jal	0x20c40 <__muldi3>
   10c20: 3b 05 95 00  	addw	a0, a0, s1
   10c24: 33 85 a9 00  	add	a0, s3, a0
   10c28: 83 45 f5 ff  	lbu	a1, -0x1(a0)
   10c2c: 03 45 15 00  	lbu	a0, 0x1(a0)
   10c30: 23 26 b1 00  	sw	a1, 0xc(sp)
   10c34: 23 28 a1 00  	sw	a0, 0x10(sp)
   10c38: 13 05 19 00  	addi	a0, s2, 0x1
   10c3c: 93 05 04 00  	mv	a1, s0
   10c40: ef 00 01 00  	jal	0x20c40 <__muldi3>
   10c44: 3b 05 95 00  	addw	a0, a0, s1
   10c48: 33 85 a9 00  	add	a0, s3, a0
   10c4c: 83 45 f5 ff  	lbu	a1, -0x1(a0)
   10c50: 03 46 05 00  	lbu	a2, 0x0(a0)
   10c54: 83 46 15 00  	lbu	a3, 0x1(a0)
   10c58: 13 05 00 00  	li	a0, 0x0
   10c5c: 23 2a b1 00  	sw	a1, 0x14(sp)
   10c60: 23 2c c1 00  	sw	a2, 0x18(sp)
   10c64: 23 2e d1 00  	sw	a3, 0x1c(sp)
   10c68: 93 05 70 00  	li	a1, 0x7
   10c6c: 93 46 75 00  	xori	a3, a0, 0x7
   10c70: 63 8c 06 02  	beqz	a3, 0x10ca8 <median+0xdc>
   10c74: 03 26 01 00  	lw	a2, 0x0(sp)
   10c78: 93 96 06 02  	slli	a3, a3, 0x20
   10c7c: 93 d6 e6 01  	srli	a3, a3, 0x1e
   10c80: b3 06 da 00  	add	a3, s4, a3
   10c84: 13 07 0a 00  	mv	a4, s4
   10c88: 83 27 07 00  	lw	a5, 0x0(a4)
   10c8c: 63 d8 c7 00  	bge	a5, a2, 0x10c9c <median+0xd0>
   10c90: 23 2e f7 fe  	sw	a5, -0x4(a4)
   10c94: 23 20 c7 00  	sw	a2, 0x0(a4)
   10c98: 6f 00 80 00  	j	0x10ca0 <median+0xd4>
   10c9c: 13 86 07 00  	mv	a2, a5
   10ca0: 13 07 47 00  	addi	a4, a4, 0x4
   10ca4: e3 12 d7 fe  	bne	a4, a3, 0x10c88 <median+0xbc>
   10ca8: 1b 05 15 00  	addiw	a0, a0, 0x1
   10cac: e3 10 b5 fc  	bne	a0, a1, 0x10c6c <median+0xa0>
   10cb0: 03 25 c1 00  	lw	a0, 0xc(sp)
   10cb4: 83 25 01 01  	lw	a1, 0x10(sp)
   10cb8: 33 85 a5 00  	add	a0, a1, a0
   10cbc: 9b 55 f5 01  	srliw	a1, a0, 0x1f
   10cc0: 33 05 b5 00  	add	a0, a0, a1
   10cc4: 13 15 75 03  	slli	a0, a0, 0x37
   10cc8: 13 55 85 03  	srli	a0, a0, 0x38
   10ccc: 13 01 01 02  	addi	sp, sp, 0x20
   10cd0: 6f f0 d0 75  	j	0x20c2c <__riscv_restore_5>

0000000000010cd4 <enlarge>:
   10cd4: ef f2 90 6f  	jal	t0, 0x20bcc <__riscv_save_12>
   10cd8: 13 01 01 ff  	addi	sp, sp, -0x10
   10cdc: 13 84 06 00  	mv	s0, a3
   10ce0: 83 a6 06 00  	lw	a3, 0x0(a3)
   10ce4: 13 0a 07 00  	mv	s4, a4
   10ce8: 93 09 06 00  	mv	s3, a2
   10cec: 93 84 05 00  	mv	s1, a1
   10cf0: 13 09 05 00  	mv	s2, a0
   10cf4: b3 8c e5 00  	add	s9, a1, a4
   10cf8: 63 5a d0 04  	blez	a3, 0x10d4c <enlarge+0x78>
   10cfc: 93 0a 00 00  	li	s5, 0x0
   10d00: 1b 1c 1a 00  	slliw	s8, s4, 0x1
   10d04: 03 ab 09 00  	lw	s6, 0x0(s3)
   10d08: b3 05 5a 01  	add	a1, s4, s5
   10d0c: 33 05 8b 01  	add	a0, s6, s8
   10d10: ef f0 10 73  	jal	0x20c40 <__muldi3>
   10d14: 03 3d 09 00  	ld	s10, 0x0(s2)
   10d18: 1b 05 05 00  	sext.w	a0, a0
   10d1c: b3 8b ac 00  	add	s7, s9, a0
   10d20: 13 05 0b 00  	mv	a0, s6
   10d24: 93 85 0a 00  	mv	a1, s5
   10d28: ef f0 90 71  	jal	0x20c40 <__muldi3>
   10d2c: 1b 05 05 00  	sext.w	a0, a0
   10d30: b3 05 ad 00  	add	a1, s10, a0
   10d34: 13 85 0b 00  	mv	a0, s7
   10d38: 13 06 0b 00  	mv	a2, s6
   10d3c: ef 70 50 12  	jal	0x18660 <memcpy>
   10d40: 03 25 04 00  	lw	a0, 0x0(s0)
   10d44: 9b 8a 1a 00  	addiw	s5, s5, 0x1
   10d48: e3 ce aa fa  	blt	s5, a0, 0x10d04 <enlarge+0x30>
   10d4c: 63 50 40 15  	blez	s4, 0x10e8c <enlarge+0x1b8>
   10d50: 93 0a 00 00  	li	s5, 0x0
   10d54: 1b 1c 1a 00  	slliw	s8, s4, 0x1
   10d58: 13 0d f0 ff  	li	s10, -0x1
   10d5c: 23 34 21 01  	sd	s2, 0x8(sp)
   10d60: 03 ab 09 00  	lw	s6, 0x0(s3)
   10d64: b3 05 aa 01  	add	a1, s4, s10
   10d68: 33 05 8b 01  	add	a0, s6, s8
   10d6c: ef f0 50 6d  	jal	0x20c40 <__muldi3>
   10d70: 83 3d 09 00  	ld	s11, 0x0(s2)
   10d74: 1b 05 05 00  	sext.w	a0, a0
   10d78: b3 8b ac 00  	add	s7, s9, a0
   10d7c: 13 05 0b 00  	mv	a0, s6
   10d80: 93 85 0a 00  	mv	a1, s5
   10d84: ef f0 d0 6b  	jal	0x20c40 <__muldi3>
   10d88: 1b 05 05 00  	sext.w	a0, a0
   10d8c: b3 85 ad 00  	add	a1, s11, a0
   10d90: 13 85 0b 00  	mv	a0, s7
   10d94: 13 06 0b 00  	mv	a2, s6
   10d98: ef 70 90 0c  	jal	0x18660 <memcpy>
   10d9c: 83 2d 04 00  	lw	s11, 0x0(s0)
   10da0: 03 ab 09 00  	lw	s6, 0x0(s3)
   10da4: 33 05 5a 01  	add	a0, s4, s5
   10da8: 33 05 b5 01  	add	a0, a0, s11
   10dac: b3 05 8b 01  	add	a1, s6, s8
   10db0: ef f0 10 69  	jal	0x20c40 <__muldi3>
   10db4: 83 35 81 00  	ld	a1, 0x8(sp)
   10db8: 03 b9 05 00  	ld	s2, 0x0(a1)
   10dbc: 1b 05 05 00  	sext.w	a0, a0
   10dc0: b3 8b ac 00  	add	s7, s9, a0
   10dc4: 33 05 bd 01  	add	a0, s10, s11
   10dc8: 93 05 0b 00  	mv	a1, s6
   10dcc: ef f0 50 67  	jal	0x20c40 <__muldi3>
   10dd0: 1b 05 05 00  	sext.w	a0, a0
   10dd4: b3 05 a9 00  	add	a1, s2, a0
   10dd8: 03 39 81 00  	ld	s2, 0x8(sp)
   10ddc: 13 85 0b 00  	mv	a0, s7
   10de0: 13 06 0b 00  	mv	a2, s6
   10de4: ef 70 d0 07  	jal	0x18660 <memcpy>
   10de8: 9b 8a 1a 00  	addiw	s5, s5, 0x1
   10dec: 1b 0d fd ff  	addiw	s10, s10, -0x1
   10df0: e3 18 5a f7  	bne	s4, s5, 0x10d60 <enlarge+0x8c>
   10df4: 63 5c 40 09  	blez	s4, 0x10e8c <enlarge+0x1b8>
   10df8: 03 25 04 00  	lw	a0, 0x0(s0)
   10dfc: 13 0b 00 00  	li	s6, 0x0
   10e00: bb 0b 80 41  	negw	s7, s8
   10e04: 63 dc ab 06  	bge	s7, a0, 0x10e7c <enlarge+0x1a8>
   10e08: 93 0a 00 00  	li	s5, 0x0
   10e0c: 93 4c fb ff  	not	s9, s6
   10e10: 03 a5 09 00  	lw	a0, 0x0(s3)
   10e14: 33 05 85 01  	add	a0, a0, s8
   10e18: 93 85 0a 00  	mv	a1, s5
   10e1c: ef f0 50 62  	jal	0x20c40 <__muldi3>
   10e20: 33 05 45 01  	add	a0, a0, s4
   10e24: bb 05 65 01  	addw	a1, a0, s6
   10e28: b3 85 b4 00  	add	a1, s1, a1
   10e2c: 83 c5 05 00  	lbu	a1, 0x0(a1)
   10e30: 3b 05 95 01  	addw	a0, a0, s9
   10e34: 33 85 a4 00  	add	a0, s1, a0
   10e38: 23 00 b5 00  	sb	a1, 0x0(a0)
   10e3c: 03 a9 09 00  	lw	s2, 0x0(s3)
   10e40: 33 05 89 01  	add	a0, s2, s8
   10e44: 93 85 0a 00  	mv	a1, s5
   10e48: ef f0 90 5f  	jal	0x20c40 <__muldi3>
   10e4c: 33 09 49 01  	add	s2, s2, s4
   10e50: 33 05 a9 00  	add	a0, s2, a0
   10e54: bb 05 95 01  	addw	a1, a0, s9
   10e58: b3 85 b4 00  	add	a1, s1, a1
   10e5c: 83 c5 05 00  	lbu	a1, 0x0(a1)
   10e60: 3b 05 65 01  	addw	a0, a0, s6
   10e64: 33 85 a4 00  	add	a0, s1, a0
   10e68: 23 00 b5 00  	sb	a1, 0x0(a0)
   10e6c: 03 25 04 00  	lw	a0, 0x0(s0)
   10e70: 9b 8a 1a 00  	addiw	s5, s5, 0x1
   10e74: bb 05 85 01  	addw	a1, a0, s8
   10e78: e3 cc ba f8  	blt	s5, a1, 0x10e10 <enlarge+0x13c>
   10e7c: 1b 0b 1b 00  	addiw	s6, s6, 0x1
   10e80: e3 12 4b f9  	bne	s6, s4, 0x10e04 <enlarge+0x130>
   10e84: 03 39 81 00  	ld	s2, 0x8(sp)
   10e88: 6f 00 80 00  	j	0x10e90 <enlarge+0x1bc>
   10e8c: 13 1c 1a 00  	slli	s8, s4, 0x1
   10e90: 03 a5 09 00  	lw	a0, 0x0(s3)
   10e94: 33 05 85 01  	add	a0, a0, s8
   10e98: 23 a0 a9 00  	sw	a0, 0x0(s3)
   10e9c: 03 25 04 00  	lw	a0, 0x0(s0)
   10ea0: 33 05 85 01  	add	a0, a0, s8
   10ea4: 23 20 a4 00  	sw	a0, 0x0(s0)
   10ea8: 23 30 99 00  	sd	s1, 0x0(s2)
   10eac: 13 05 00 00  	li	a0, 0x0
   10eb0: 13 01 01 01  	addi	sp, sp, 0x10
   10eb4: 6f f0 30 56  	j	0x20c16 <__riscv_restore_12>

0000000000010eb8 <susan_smoothing>:
   10eb8: ef f2 50 51  	jal	t0, 0x20bcc <__riscv_save_12>
   10ebc: 13 01 01 f7  	addi	sp, sp, -0x90
   10ec0: 27 34 81 08  	fsd	fs0, 0x88(sp)
   10ec4: 27 30 91 08  	fsd	fs1, 0x80(sp)
   10ec8: 23 3c e1 04  	sd	a4, 0x58(sp)
   10ecc: 13 04 05 00  	mv	s0, a0
   10ed0: 53 74 15 40  	fcvt.s.d	fs0, fa0
   10ed4: 07 b7 01 1d  	fld	fa4, 0x1d0(gp)
   10ed8: 23 34 b1 06  	sd	a1, 0x68(sp)
   10edc: 23 3c b1 06  	sd	a1, 0x78(sp)
   10ee0: 23 2a c1 06  	sw	a2, 0x74(sp)
   10ee4: d3 07 04 42  	fcvt.d.s	fa5, fs0
   10ee8: 53 f7 e7 12  	fmul.d	fa4, fa5, fa4
   10eec: 53 19 07 c2  	fcvt.w.d	s2, fa4, rtz
   10ef0: 9b 0c 19 00  	addiw	s9, s2, 0x1
   10ef4: 23 28 d1 06  	sw	a3, 0x70(sp)
   10ef8: 13 8d 0c 00  	mv	s10, s9
   10efc: 63 04 04 00  	beqz	s0, 0x10f04 <susan_smoothing+0x4c>
   10f00: 13 0d 10 00  	li	s10, 0x1
   10f04: 37 05 70 41  	lui	a0, 0x41700
   10f08: 53 07 05 f0  	fmv.w.x	fa4, a0
   10f0c: 53 15 87 a0  	flt.s	a0, fa4, fs0
   10f10: 63 1a 05 50  	bnez	a0, 0x11424 <susan_smoothing+0x56c>
   10f14: 9b 19 1d 00  	slliw	s3, s10, 0x1
   10f18: 63 dc c9 52  	bge	s3, a2, 0x11450 <susan_smoothing+0x598>
   10f1c: 63 da d9 52  	bge	s3, a3, 0x11450 <susan_smoothing+0x598>
   10f20: 33 85 c9 00  	add	a0, s3, a2
   10f24: b3 85 d9 00  	add	a1, s3, a3
   10f28: ef f0 90 51  	jal	0x20c40 <__muldi3>
   10f2c: 1b 05 05 00  	sext.w	a0, a0
   10f30: ef 40 80 78  	jal	0x156b8 <malloc>
   10f34: 93 05 05 00  	mv	a1, a0
   10f38: 13 05 81 07  	addi	a0, sp, 0x78
   10f3c: 13 06 41 07  	addi	a2, sp, 0x74
   10f40: 93 06 01 07  	addi	a3, sp, 0x70
   10f44: 13 07 0d 00  	mv	a4, s10
   10f48: ef f0 df d8  	jal	0x10cd4 <enlarge>
   10f4c: 63 0a 04 28  	beqz	s0, 0x111e0 <susan_smoothing+0x328>
   10f50: 03 25 01 07  	lw	a0, 0x70(sp)
   10f54: 13 06 30 00  	li	a2, 0x3
   10f58: 63 4e c5 4a  	blt	a0, a2, 0x11414 <susan_smoothing+0x55c>
   10f5c: 83 2a 41 07  	lw	s5, 0x74(sp)
   10f60: 23 38 01 00  	sd	zero, 0x10(sp)
   10f64: 13 04 10 00  	li	s0, 0x1
   10f68: 63 ce ca 24  	blt	s5, a2, 0x111c4 <susan_smoothing+0x30c>
   10f6c: 93 04 10 00  	li	s1, 0x1
   10f70: 93 09 60 00  	li	s3, 0x6
   10f74: 23 34 81 00  	sd	s0, 0x8(sp)
   10f78: 23 30 91 06  	sd	s1, 0x60(sp)
   10f7c: 83 3b 81 07  	ld	s7, 0x78(sp)
   10f80: 03 35 01 01  	ld	a0, 0x10(sp)
   10f84: 93 85 0a 00  	mv	a1, s5
   10f88: ef f0 90 4b  	jal	0x20c40 <__muldi3>
   10f8c: 9b 04 05 00  	sext.w	s1, a0
   10f90: 33 85 34 01  	add	a0, s1, s3
   10f94: 33 89 ab 00  	add	s2, s7, a0
   10f98: 13 05 04 00  	mv	a0, s0
   10f9c: 93 85 0a 00  	mv	a1, s5
   10fa0: ef f0 10 4a  	jal	0x20c40 <__muldi3>
   10fa4: 1b 05 05 00  	sext.w	a0, a0
   10fa8: 33 05 35 01  	add	a0, a0, s3
   10fac: 33 85 ab 00  	add	a0, s7, a0
   10fb0: 83 48 b5 ff  	lbu	a7, -0x5(a0)
   10fb4: 83 45 a9 ff  	lbu	a1, -0x6(s2)
   10fb8: 03 4e b9 ff  	lbu	t3, -0x5(s2)
   10fbc: 03 36 81 05  	ld	a2, 0x58(sp)
   10fc0: 33 06 16 01  	add	a2, a2, a7
   10fc4: 33 05 b6 40  	sub	a0, a2, a1
   10fc8: 03 45 05 00  	lbu	a0, 0x0(a0)
   10fcc: b3 06 c6 41  	sub	a3, a2, t3
   10fd0: 13 08 04 00  	mv	a6, s0
   10fd4: 03 c4 06 00  	lbu	s0, 0x0(a3)
   10fd8: 83 4e c9 ff  	lbu	t4, -0x4(s2)
   10fdc: 9b 86 ea ff  	addiw	a3, s5, -0x2
   10fe0: 33 87 d4 00  	add	a4, s1, a3
   10fe4: 33 07 37 01  	add	a4, a4, s3
   10fe8: 33 87 eb 00  	add	a4, s7, a4
   10fec: 03 4b c7 ff  	lbu	s6, -0x4(a4)
   10ff0: b3 07 d6 41  	sub	a5, a2, t4
   10ff4: 83 42 d7 ff  	lbu	t0, -0x3(a4)
   10ff8: 03 c9 07 00  	lbu	s2, 0x0(a5)
   10ffc: b3 07 66 41  	sub	a5, a2, s6
   11000: 83 cd 07 00  	lbu	s11, 0x0(a5)
   11004: b3 07 56 40  	sub	a5, a2, t0
   11008: 83 cc 07 00  	lbu	s9, 0x0(a5)
   1100c: 03 43 e7 ff  	lbu	t1, -0x2(a4)
   11010: 93 96 16 00  	slli	a3, a3, 0x1
   11014: b3 86 96 00  	add	a3, a3, s1
   11018: b3 86 36 01  	add	a3, a3, s3
   1101c: b3 86 db 00  	add	a3, s7, a3
   11020: 03 cf e6 ff  	lbu	t5, -0x2(a3)
   11024: 33 07 66 40  	sub	a4, a2, t1
   11028: 03 4a 07 00  	lbu	s4, 0x0(a4)
   1102c: 83 c3 f6 ff  	lbu	t2, -0x1(a3)
   11030: 33 07 e6 41  	sub	a4, a2, t5
   11034: 83 c7 06 00  	lbu	a5, 0x0(a3)
   11038: 83 44 07 00  	lbu	s1, 0x0(a4)
   1103c: b3 06 76 40  	sub	a3, a2, t2
   11040: 03 cd 06 00  	lbu	s10, 0x0(a3)
   11044: 33 06 f6 40  	sub	a2, a2, a5
   11048: 03 4c 06 00  	lbu	s8, 0x0(a2)
   1104c: 33 06 85 00  	add	a2, a0, s0
   11050: b3 06 b9 01  	add	a3, s2, s11
   11054: 33 06 d6 00  	add	a2, a2, a3
   11058: b3 86 4c 01  	add	a3, s9, s4
   1105c: b3 86 96 00  	add	a3, a3, s1
   11060: 33 06 d6 00  	add	a2, a2, a3
   11064: b3 06 8d 01  	add	a3, s10, s8
   11068: 33 06 d6 00  	add	a2, a2, a3
   1106c: 1b 06 c6 f9  	addiw	a2, a2, -0x64
   11070: 63 0c 06 0e  	beqz	a2, 0x11168 <susan_smoothing+0x2b0>
   11074: 23 30 11 05  	sd	a7, 0x40(sp)
   11078: 23 38 c1 04  	sd	a2, 0x50(sp)
   1107c: 23 3c f1 02  	sd	a5, 0x38(sp)
   11080: 23 3c 51 00  	sd	t0, 0x18(sp)
   11084: 23 30 61 02  	sd	t1, 0x20(sp)
   11088: 23 38 71 02  	sd	t2, 0x30(sp)
   1108c: 93 0a 0e 00  	mv	s5, t3
   11090: 93 8b 0e 00  	mv	s7, t4
   11094: 23 34 e1 03  	sd	t5, 0x28(sp)
   11098: ef f0 90 3a  	jal	0x20c40 <__muldi3>
   1109c: 23 34 a1 04  	sd	a0, 0x48(sp)
   110a0: 13 05 04 00  	mv	a0, s0
   110a4: 93 85 0a 00  	mv	a1, s5
   110a8: ef f0 90 39  	jal	0x20c40 <__muldi3>
   110ac: 13 04 05 00  	mv	s0, a0
   110b0: 13 05 09 00  	mv	a0, s2
   110b4: 93 85 0b 00  	mv	a1, s7
   110b8: ef f0 90 38  	jal	0x20c40 <__muldi3>
   110bc: 13 09 05 00  	mv	s2, a0
   110c0: 13 85 0d 00  	mv	a0, s11
   110c4: 93 05 0b 00  	mv	a1, s6
   110c8: ef f0 90 37  	jal	0x20c40 <__muldi3>
   110cc: 13 0b 05 00  	mv	s6, a0
   110d0: 13 85 0c 00  	mv	a0, s9
   110d4: 83 35 81 01  	ld	a1, 0x18(sp)
   110d8: ef f0 90 36  	jal	0x20c40 <__muldi3>
   110dc: 93 0b 05 00  	mv	s7, a0
   110e0: 13 05 0a 00  	mv	a0, s4
   110e4: 83 35 01 02  	ld	a1, 0x20(sp)
   110e8: ef f0 90 35  	jal	0x20c40 <__muldi3>
   110ec: 13 0a 05 00  	mv	s4, a0
   110f0: 13 85 04 00  	mv	a0, s1
   110f4: 83 35 81 02  	ld	a1, 0x28(sp)
   110f8: ef f0 90 34  	jal	0x20c40 <__muldi3>
   110fc: 93 04 05 00  	mv	s1, a0
   11100: 13 05 0d 00  	mv	a0, s10
   11104: 83 35 01 03  	ld	a1, 0x30(sp)
   11108: ef f0 90 33  	jal	0x20c40 <__muldi3>
   1110c: 93 0c 05 00  	mv	s9, a0
   11110: 13 05 0c 00  	mv	a0, s8
   11114: 83 35 81 03  	ld	a1, 0x38(sp)
   11118: ef f0 90 32  	jal	0x20c40 <__muldi3>
   1111c: 13 0c 05 00  	mv	s8, a0
   11120: 93 05 c0 f9  	li	a1, -0x64
   11124: 03 35 01 04  	ld	a0, 0x40(sp)
   11128: ef f0 90 31  	jal	0x20c40 <__muldi3>
   1112c: 83 35 81 04  	ld	a1, 0x48(sp)
   11130: 33 85 a5 00  	add	a0, a1, a0
   11134: 33 04 24 01  	add	s0, s0, s2
   11138: 33 05 85 00  	add	a0, a0, s0
   1113c: 33 0b 7b 01  	add	s6, s6, s7
   11140: 33 0a 4b 01  	add	s4, s6, s4
   11144: 33 05 45 01  	add	a0, a0, s4
   11148: b3 84 94 01  	add	s1, s1, s9
   1114c: b3 84 84 01  	add	s1, s1, s8
   11150: 3b 05 95 00  	addw	a0, a0, s1
   11154: 83 35 01 05  	ld	a1, 0x50(sp)
   11158: ef f0 90 32  	jal	0x20c80 <__divdi3>
   1115c: 03 34 81 00  	ld	s0, 0x8(sp)
   11160: 83 34 01 06  	ld	s1, 0x60(sp)
   11164: 6f 00 00 02  	j	0x11184 <susan_smoothing+0x2cc>
   11168: 13 85 0b 00  	mv	a0, s7
   1116c: 93 05 08 00  	mv	a1, a6
   11170: 83 34 01 06  	ld	s1, 0x60(sp)
   11174: 13 86 04 00  	mv	a2, s1
   11178: 93 86 0a 00  	mv	a3, s5
   1117c: 13 04 08 00  	mv	s0, a6
   11180: ef f0 df a4  	jal	0x10bcc <median>
   11184: 83 35 81 06  	ld	a1, 0x68(sp)
   11188: b3 85 35 01  	add	a1, a1, s3
   1118c: 23 8d a5 fe  	sb	a0, -0x6(a1)
   11190: 83 2a 41 07  	lw	s5, 0x74(sp)
   11194: 1b 85 fa ff  	addiw	a0, s5, -0x1
   11198: 93 85 19 00  	addi	a1, s3, 0x1
   1119c: 13 86 c9 ff  	addi	a2, s3, -0x4
   111a0: 9b 84 14 00  	addiw	s1, s1, 0x1
   111a4: 93 89 05 00  	mv	s3, a1
   111a8: e3 48 a6 dc  	blt	a2, a0, 0x10f78 <susan_smoothing+0xc0>
   111ac: 03 25 01 07  	lw	a0, 0x70(sp)
   111b0: 03 36 81 06  	ld	a2, 0x68(sp)
   111b4: b3 05 b6 00  	add	a1, a2, a1
   111b8: 93 85 a5 ff  	addi	a1, a1, -0x6
   111bc: 23 34 b1 06  	sd	a1, 0x68(sp)
   111c0: 13 06 30 00  	li	a2, 0x3
   111c4: 1b 04 14 00  	addiw	s0, s0, 0x1
   111c8: 9b 05 f5 ff  	addiw	a1, a0, -0x1
   111cc: 83 36 01 01  	ld	a3, 0x10(sp)
   111d0: 9b 86 16 00  	addiw	a3, a3, 0x1
   111d4: 23 38 d1 00  	sd	a3, 0x10(sp)
   111d8: e3 48 b4 d8  	blt	s0, a1, 0x10f68 <susan_smoothing+0xb0>
   111dc: 6f 00 80 23  	j	0x11414 <susan_smoothing+0x55c>
   111e0: 83 2a 41 07  	lw	s5, 0x74(sp)
   111e4: 13 85 19 00  	addi	a0, s3, 0x1
   111e8: 93 05 05 00  	mv	a1, a0
   111ec: ef f0 50 25  	jal	0x20c40 <__muldi3>
   111f0: 1b 05 05 00  	sext.w	a0, a0
   111f4: ef 40 40 4c  	jal	0x156b8 <malloc>
   111f8: 13 4a f9 ff  	not	s4, s2
   111fc: 23 34 a1 02  	sd	a0, 0x28(sp)
   11200: 23 30 41 05  	sd	s4, 0x40(sp)
   11204: 63 cc 4c 07  	blt	s9, s4, 0x1127c <susan_smoothing+0x3c4>
   11208: d3 17 84 20  	fneg.s	fa5, fs0
   1120c: 87 b4 81 1d  	fld	fs1, 0x1d8(gp)
   11210: 53 f4 87 10  	fmul.s	fs0, fa5, fs0
   11214: 3b 0b a0 41  	negw	s6, s10
   11218: 93 0b 10 00  	li	s7, 0x1
   1121c: 03 3c 81 02  	ld	s8, 0x28(sp)
   11220: 13 05 0a 00  	mv	a0, s4
   11224: 13 04 05 00  	mv	s0, a0
   11228: 93 05 05 00  	mv	a1, a0
   1122c: ef f0 50 21  	jal	0x20c40 <__muldi3>
   11230: 93 04 05 00  	mv	s1, a0
   11234: 13 05 0a 00  	mv	a0, s4
   11238: 93 05 0a 00  	mv	a1, s4
   1123c: ef f0 50 20  	jal	0x20c40 <__muldi3>
   11240: 33 05 95 00  	add	a0, a0, s1
   11244: d3 77 05 d0  	fcvt.s.w	fa5, a0
   11248: d3 f7 87 18  	fdiv.s	fa5, fa5, fs0
   1124c: 53 85 07 42  	fcvt.d.s	fa0, fa5
   11250: ef 40 80 09  	jal	0x152e8 <exp>
   11254: d3 77 95 12  	fmul.d	fa5, fa0, fs1
   11258: 53 95 07 c2  	fcvt.w.d	a0, fa5, rtz
   1125c: 23 00 ac 00  	sb	a0, 0x0(s8)
   11260: 1b 0a 1a 00  	addiw	s4, s4, 0x1
   11264: 3b 05 4b 01  	addw	a0, s6, s4
   11268: 13 0c 1c 00  	addi	s8, s8, 0x1
   1126c: e3 14 75 fd  	bne	a0, s7, 0x11234 <susan_smoothing+0x37c>
   11270: 1b 05 14 00  	addiw	a0, s0, 0x1
   11274: 03 3a 01 04  	ld	s4, 0x40(sp)
   11278: e3 16 a4 fb  	bne	s0, s10, 0x11224 <susan_smoothing+0x36c>
   1127c: 03 25 01 07  	lw	a0, 0x70(sp)
   11280: bb 05 a5 41  	subw	a1, a0, s10
   11284: 63 58 bd 18  	bge	s10, a1, 0x11414 <susan_smoothing+0x55c>
   11288: b7 e5 ff ff  	lui	a1, 0xffffe
   1128c: 9b 84 05 8f  	addiw	s1, a1, -0x710
   11290: bb 05 a0 41  	negw	a1, s10
   11294: 23 38 b1 00  	sd	a1, 0x10(sp)
   11298: 03 24 41 07  	lw	s0, 0x74(sp)
   1129c: 13 cc f9 ff  	not	s8, s3
   112a0: 33 0c 5c 01  	add	s8, s8, s5
   112a4: 33 09 2d 01  	add	s2, s10, s2
   112a8: 13 09 19 00  	addi	s2, s2, 0x1
   112ac: 13 19 09 02  	slli	s2, s2, 0x20
   112b0: 13 5b 09 02  	srli	s6, s2, 0x20
   112b4: 13 0b 1b 00  	addi	s6, s6, 0x1
   112b8: 93 09 0d 00  	mv	s3, s10
   112bc: 23 30 91 03  	sd	s9, 0x20(sp)
   112c0: 23 3c 91 00  	sd	s1, 0x18(sp)
   112c4: bb 05 a4 41  	subw	a1, s0, s10
   112c8: 63 50 bd 14  	bge	s10, a1, 0x11408 <susan_smoothing+0x550>
   112cc: 3b 85 a9 41  	subw	a0, s3, s10
   112d0: 23 38 a1 02  	sd	a0, 0x30(sp)
   112d4: 13 09 0d 00  	mv	s2, s10
   112d8: 23 3c 31 03  	sd	s3, 0x38(sp)
   112dc: 83 3d 81 07  	ld	s11, 0x78(sp)
   112e0: 13 05 04 00  	mv	a0, s0
   112e4: 93 85 09 00  	mv	a1, s3
   112e8: ef f0 90 15  	jal	0x20c40 <__muldi3>
   112ec: 1b 05 05 00  	sext.w	a0, a0
   112f0: 33 05 a9 00  	add	a0, s2, a0
   112f4: 33 85 ad 00  	add	a0, s11, a0
   112f8: 03 45 05 00  	lbu	a0, 0x0(a0)
   112fc: 63 d8 4c 01  	bge	s9, s4, 0x1130c <susan_smoothing+0x454>
   11300: 93 0b 00 00  	li	s7, 0x0
   11304: 13 84 04 00  	mv	s0, s1
   11308: 6f 00 80 0a  	j	0x113b0 <susan_smoothing+0x4f8>
   1130c: 83 3c 81 05  	ld	s9, 0x58(sp)
   11310: 23 30 a1 06  	sd	a0, 0x60(sp)
   11314: b3 8c ac 00  	add	s9, s9, a0
   11318: 23 38 81 04  	sd	s0, 0x50(sp)
   1131c: 13 05 04 00  	mv	a0, s0
   11320: 83 35 01 03  	ld	a1, 0x30(sp)
   11324: ef f0 d0 11  	jal	0x20c40 <__muldi3>
   11328: 93 0b 00 00  	li	s7, 0x0
   1132c: 93 0a 00 00  	li	s5, 0x0
   11330: 1b 05 05 00  	sext.w	a0, a0
   11334: 33 05 25 01  	add	a0, a0, s2
   11338: 83 35 01 01  	ld	a1, 0x10(sp)
   1133c: 33 05 b5 00  	add	a0, a0, a1
   11340: 23 34 b1 05  	sd	s11, 0x48(sp)
   11344: b3 89 ad 00  	add	s3, s11, a0
   11348: 83 3d 81 02  	ld	s11, 0x28(sp)
   1134c: 13 05 0a 00  	mv	a0, s4
   11350: 13 0a 05 00  	mv	s4, a0
   11354: b3 84 69 01  	add	s1, s3, s6
   11358: 03 c4 09 00  	lbu	s0, 0x0(s3)
   1135c: 83 c5 0d 00  	lbu	a1, 0x0(s11)
   11360: 33 85 8c 40  	sub	a0, s9, s0
   11364: 03 45 05 00  	lbu	a0, 0x0(a0)
   11368: 93 89 19 00  	addi	s3, s3, 0x1
   1136c: 93 8d 1d 00  	addi	s11, s11, 0x1
   11370: ef f0 10 0d  	jal	0x20c40 <__muldi3>
   11374: b3 0a 55 01  	add	s5, a0, s5
   11378: 93 05 04 00  	mv	a1, s0
   1137c: ef f0 50 0c  	jal	0x20c40 <__muldi3>
   11380: b3 0b 75 01  	add	s7, a0, s7
   11384: e3 9a 99 fc  	bne	s3, s1, 0x11358 <susan_smoothing+0x4a0>
   11388: b3 89 89 01  	add	s3, s3, s8
   1138c: 1b 05 1a 00  	addiw	a0, s4, 0x1
   11390: e3 10 aa fd  	bne	s4, s10, 0x11350 <susan_smoothing+0x498>
   11394: 83 34 81 01  	ld	s1, 0x18(sp)
   11398: 3b 84 9a 00  	addw	s0, s5, s1
   1139c: 83 3c 01 02  	ld	s9, 0x20(sp)
   113a0: 03 3a 01 04  	ld	s4, 0x40(sp)
   113a4: 83 39 81 03  	ld	s3, 0x38(sp)
   113a8: 03 35 01 06  	ld	a0, 0x60(sp)
   113ac: 63 0e 04 02  	beqz	s0, 0x113e8 <susan_smoothing+0x530>
   113b0: 93 85 04 00  	mv	a1, s1
   113b4: ef f0 d0 08  	jal	0x20c40 <__muldi3>
   113b8: 3b 85 ab 00  	addw	a0, s7, a0
   113bc: 93 05 04 00  	mv	a1, s0
   113c0: ef f0 10 0c  	jal	0x20c80 <__divdi3>
   113c4: 83 35 81 06  	ld	a1, 0x68(sp)
   113c8: 23 80 a5 00  	sb	a0, 0x0(a1)
   113cc: 03 24 41 07  	lw	s0, 0x74(sp)
   113d0: 93 85 15 00  	addi	a1, a1, 0x1
   113d4: 13 09 19 00  	addi	s2, s2, 0x1
   113d8: 3b 05 a4 41  	subw	a0, s0, s10
   113dc: 23 34 b1 06  	sd	a1, 0x68(sp)
   113e0: e3 4e a9 ee  	blt	s2, a0, 0x112dc <susan_smoothing+0x424>
   113e4: 6f 00 c0 01  	j	0x11400 <susan_smoothing+0x548>
   113e8: 1b 06 09 00  	sext.w	a2, s2
   113ec: 03 35 81 04  	ld	a0, 0x48(sp)
   113f0: 93 85 09 00  	mv	a1, s3
   113f4: 83 36 01 05  	ld	a3, 0x50(sp)
   113f8: ef f0 4f fd  	jal	0x10bcc <median>
   113fc: 6f f0 9f fc  	j	0x113c4 <susan_smoothing+0x50c>
   11400: 03 25 01 07  	lw	a0, 0x70(sp)
   11404: 23 34 b1 06  	sd	a1, 0x68(sp)
   11408: 9b 89 19 00  	addiw	s3, s3, 0x1
   1140c: bb 05 a5 41  	subw	a1, a0, s10
   11410: e3 ca b9 ea  	blt	s3, a1, 0x112c4 <susan_smoothing+0x40c>
   11414: 07 34 81 08  	fld	fs0, 0x88(sp)
   11418: 87 34 01 08  	fld	fs1, 0x80(sp)
   1141c: 13 01 01 09  	addi	sp, sp, 0x90
   11420: 6f f0 60 7f  	j	0x20c16 <__riscv_restore_12>
   11424: 37 15 02 00  	lui	a0, 0x21
   11428: 13 05 65 e5  	addi	a0, a0, -0x1aa
   1142c: d3 85 07 e2  	fmv.x.d	a1, fa5
   11430: ef 60 40 64  	jal	0x17a74 <printf>
   11434: 37 15 02 00  	lui	a0, 0x21
   11438: 13 05 05 23  	addi	a0, a0, 0x230
   1143c: ef 60 60 6e  	jal	0x17b22 <puts>
   11440: 37 15 02 00  	lui	a0, 0x21
   11444: 13 05 c5 26  	addi	a0, a0, 0x26c
   11448: ef 60 a0 6d  	jal	0x17b22 <puts>
   1144c: 6f 00 40 01  	j	0x11460 <susan_smoothing+0x5a8>
   11450: 37 15 02 00  	lui	a0, 0x21
   11454: 13 05 c5 e8  	addi	a0, a0, -0x174
   11458: 93 05 0d 00  	mv	a1, s10
   1145c: ef 60 80 61  	jal	0x17a74 <printf>
   11460: 13 05 00 00  	li	a0, 0x0
   11464: ef e0 df cb  	jal	0x10120 <exit>

0000000000011468 <edge_draw>:
   11468: ef f2 a0 78  	jal	t0, 0x20bf2 <__riscv_save_5>
   1146c: 93 09 07 00  	mv	s3, a4
   11470: 13 09 06 00  	mv	s2, a2
   11474: 13 84 05 00  	mv	s0, a1
   11478: 93 04 05 00  	mv	s1, a0
   1147c: 13 85 06 00  	mv	a0, a3
   11480: 93 05 06 00  	mv	a1, a2
   11484: ef f0 c0 7b  	jal	0x20c40 <__muldi3>
   11488: 1b 05 05 00  	sext.w	a0, a0
   1148c: 63 92 09 08  	bnez	s3, 0x11510 <edge_draw+0xa8>
   11490: 63 5a a0 0a  	blez	a0, 0x11544 <edge_draw+0xdc>
   11494: 93 05 00 00  	li	a1, 0x0
   11498: 33 86 24 41  	sub	a2, s1, s2
   1149c: 1b 07 e9 ff  	addiw	a4, s2, -0x2
   114a0: 93 16 17 00  	slli	a3, a4, 0x1
   114a4: b3 87 24 41  	sub	a5, s1, s2
   114a8: b3 86 d7 00  	add	a3, a5, a3
   114ac: b3 07 99 40  	sub	a5, s2, s1
   114b0: 33 07 f7 40  	sub	a4, a4, a5
   114b4: 13 07 17 00  	addi	a4, a4, 0x1
   114b8: 93 07 f5 ff  	addi	a5, a0, -0x1
   114bc: 93 97 07 02  	slli	a5, a5, 0x20
   114c0: 93 d7 07 02  	srli	a5, a5, 0x20
   114c4: 93 87 17 00  	addi	a5, a5, 0x1
   114c8: 13 08 70 00  	li	a6, 0x7
   114cc: 93 08 f0 0f  	li	a7, 0xff
   114d0: b3 02 b4 00  	add	t0, s0, a1
   114d4: 83 c2 02 00  	lbu	t0, 0x0(t0)
   114d8: 63 68 58 02  	bltu	a6, t0, 0x11508 <edge_draw+0xa0>
   114dc: b3 02 b6 00  	add	t0, a2, a1
   114e0: a3 8f 12 ff  	sb	a7, -0x1(t0)
   114e4: 23 80 12 01  	sb	a7, 0x0(t0)
   114e8: a3 80 12 01  	sb	a7, 0x1(t0)
   114ec: b3 02 b7 00  	add	t0, a4, a1
   114f0: 23 80 12 01  	sb	a7, 0x0(t0)
   114f4: 23 81 12 01  	sb	a7, 0x2(t0)
   114f8: b3 82 b6 00  	add	t0, a3, a1
   114fc: a3 81 12 01  	sb	a7, 0x3(t0)
   11500: 23 82 12 01  	sb	a7, 0x4(t0)
   11504: a3 82 12 01  	sb	a7, 0x5(t0)
   11508: 93 85 15 00  	addi	a1, a1, 0x1
   1150c: e3 92 f5 fc  	bne	a1, a5, 0x114d0 <edge_draw+0x68>
   11510: 63 5a a0 02  	blez	a0, 0x11544 <edge_draw+0xdc>
   11514: 13 05 f5 ff  	addi	a0, a0, -0x1
   11518: 13 15 05 02  	slli	a0, a0, 0x20
   1151c: 13 55 05 02  	srli	a0, a0, 0x20
   11520: 33 05 85 00  	add	a0, a0, s0
   11524: 13 05 15 00  	addi	a0, a0, 0x1
   11528: 93 05 70 00  	li	a1, 0x7
   1152c: 03 46 04 00  	lbu	a2, 0x0(s0)
   11530: 63 e4 c5 00  	bltu	a1, a2, 0x11538 <edge_draw+0xd0>
   11534: 23 80 04 00  	sb	zero, 0x0(s1)
   11538: 13 04 14 00  	addi	s0, s0, 0x1
   1153c: 93 84 14 00  	addi	s1, s1, 0x1
   11540: e3 16 a4 fe  	bne	s0, a0, 0x1152c <edge_draw+0xc4>
   11544: 13 05 00 00  	li	a0, 0x0
   11548: 6f f0 40 6e  	j	0x20c2c <__riscv_restore_5>

000000000001154c <susan_thin>:
   1154c: ef f2 00 68  	jal	t0, 0x20bcc <__riscv_save_12>
   11550: 13 01 01 f6  	addi	sp, sp, -0xa0
   11554: 27 3c 81 08  	fsd	fs0, 0x98(sp)
   11558: 13 07 90 00  	li	a4, 0x9
   1155c: 23 30 a1 06  	sd	a0, 0x60(sp)
   11560: e3 ca e6 1e  	blt	a3, a4, 0x11f54 <susan_thin+0xa08>
   11564: 13 04 06 00  	mv	s0, a2
   11568: 93 8b 05 00  	mv	s7, a1
   1156c: 9b 86 c6 ff  	addiw	a3, a3, -0x4
   11570: 23 34 d1 00  	sd	a3, 0x8(sp)
   11574: 1b 0a c6 ff  	addiw	s4, a2, -0x4
   11578: 13 85 f5 ff  	addi	a0, a1, -0x1
   1157c: 23 30 a1 00  	sd	a0, 0x0(sp)
   11580: 93 09 40 00  	li	s3, 0x4
   11584: 93 04 70 00  	li	s1, 0x7
   11588: 07 b4 01 1e  	fld	fs0, 0x1e0(gp)
   1158c: 23 38 b1 04  	sd	a1, 0x50(sp)
   11590: 23 34 41 05  	sd	s4, 0x48(sp)
   11594: 13 05 90 00  	li	a0, 0x9
   11598: e3 48 a4 1a  	blt	s0, a0, 0x11f48 <susan_thin+0x9fc>
   1159c: 13 0d 40 00  	li	s10, 0x4
   115a0: 13 85 09 00  	mv	a0, s3
   115a4: 93 05 04 00  	mv	a1, s0
   115a8: ef f0 80 69  	jal	0x20c40 <__muldi3>
   115ac: bb 0a a5 01  	addw	s5, a0, s10
   115b0: b3 8c 5b 01  	add	s9, s7, s5
   115b4: 03 c9 0c 00  	lbu	s2, 0x0(s9)
   115b8: 63 ee 24 7b  	bltu	s1, s2, 0x11d74 <susan_thin+0x828>
   115bc: 13 95 2a 00  	slli	a0, s5, 0x2
   115c0: 83 35 01 06  	ld	a1, 0x60(sp)
   115c4: 33 85 a5 00  	add	a0, a1, a0
   115c8: 03 25 05 00  	lw	a0, 0x0(a0)
   115cc: 23 3c a1 04  	sd	a0, 0x58(sp)
   115d0: 23 34 31 07  	sd	s3, 0x68(sp)
   115d4: 9b 89 f9 ff  	addiw	s3, s3, -0x1
   115d8: 13 85 09 00  	mv	a0, s3
   115dc: 93 05 04 00  	mv	a1, s0
   115e0: ef f0 00 66  	jal	0x20c40 <__muldi3>
   115e4: 9b 05 05 00  	sext.w	a1, a0
   115e8: 33 86 ab 01  	add	a2, s7, s10
   115ec: b3 05 b6 00  	add	a1, a2, a1
   115f0: 03 c6 f5 ff  	lbu	a2, -0x1(a1)
   115f4: 83 c6 05 00  	lbu	a3, 0x0(a1)
   115f8: 13 87 f5 ff  	addi	a4, a1, -0x1
   115fc: 13 36 86 00  	sltiu	a2, a2, 0x8
   11600: 93 b6 86 00  	sltiu	a3, a3, 0x8
   11604: 83 c5 15 00  	lbu	a1, 0x1(a1)
   11608: 33 07 87 00  	add	a4, a4, s0
   1160c: 83 47 07 00  	lbu	a5, 0x0(a4)
   11610: 33 86 c6 00  	add	a2, a3, a2
   11614: 93 b5 85 00  	sltiu	a1, a1, 0x8
   11618: b3 05 b6 00  	add	a1, a2, a1
   1161c: 13 b6 87 00  	sltiu	a2, a5, 0x8
   11620: 83 46 27 00  	lbu	a3, 0x2(a4)
   11624: b3 85 c5 00  	add	a1, a1, a2
   11628: 33 07 87 00  	add	a4, a4, s0
   1162c: 03 46 07 00  	lbu	a2, 0x0(a4)
   11630: 93 b6 86 00  	sltiu	a3, a3, 0x8
   11634: 83 47 17 00  	lbu	a5, 0x1(a4)
   11638: b3 85 d5 00  	add	a1, a1, a3
   1163c: 13 36 86 00  	sltiu	a2, a2, 0x8
   11640: 83 46 27 00  	lbu	a3, 0x2(a4)
   11644: 13 b7 87 00  	sltiu	a4, a5, 0x8
   11648: 33 06 e6 00  	add	a2, a2, a4
   1164c: b3 85 c5 00  	add	a1, a1, a2
   11650: 13 b6 86 00  	sltiu	a2, a3, 0x8
   11654: 3b 8c c5 00  	addw	s8, a1, a2
   11658: 93 05 10 00  	li	a1, 0x1
   1165c: 63 0a bc 00  	beq	s8, a1, 0x11670 <susan_thin+0x124>
   11660: 63 14 0c 2e  	bnez	s8, 0x11948 <susan_thin+0x3fc>
   11664: 13 05 40 06  	li	a0, 0x64
   11668: 23 80 ac 00  	sb	a0, 0x0(s9)
   1166c: 6f 00 40 13  	j	0x117a0 <susan_thin+0x254>
   11670: 23 30 31 05  	sd	s3, 0x40(sp)
   11674: 93 05 50 00  	li	a1, 0x5
   11678: 63 e4 25 13  	bltu	a1, s2, 0x117a0 <susan_thin+0x254>
   1167c: bb 0c a5 01  	addw	s9, a0, s10
   11680: 9b 84 fc ff  	addiw	s1, s9, -0x1
   11684: 13 95 24 00  	slli	a0, s1, 0x2
   11688: 03 3a 01 06  	ld	s4, 0x60(sp)
   1168c: 33 05 aa 00  	add	a0, s4, a0
   11690: 83 25 05 00  	lw	a1, 0x0(a0)
   11694: 13 95 2c 00  	slli	a0, s9, 0x2
   11698: 33 05 aa 00  	add	a0, s4, a0
   1169c: 03 25 05 00  	lw	a0, 0x0(a0)
   116a0: 23 34 b1 02  	sd	a1, 0x28(sp)
   116a4: 23 2a b1 06  	sw	a1, 0x74(sp)
   116a8: 23 3c a1 00  	sd	a0, 0x18(sp)
   116ac: 23 2c a1 06  	sw	a0, 0x78(sp)
   116b0: 1b 85 1c 00  	addiw	a0, s9, 0x1
   116b4: 23 38 a1 02  	sd	a0, 0x30(sp)
   116b8: 13 15 25 00  	slli	a0, a0, 0x2
   116bc: 33 05 aa 00  	add	a0, s4, a0
   116c0: 83 29 05 00  	lw	s3, 0x0(a0)
   116c4: 1b 85 fa ff  	addiw	a0, s5, -0x1
   116c8: 23 30 a1 02  	sd	a0, 0x20(sp)
   116cc: 13 15 25 00  	slli	a0, a0, 0x2
   116d0: 33 05 aa 00  	add	a0, s4, a0
   116d4: 83 25 05 00  	lw	a1, 0x0(a0)
   116d8: 1b 85 1a 00  	addiw	a0, s5, 0x1
   116dc: 23 38 a1 00  	sd	a0, 0x10(sp)
   116e0: 13 15 25 00  	slli	a0, a0, 0x2
   116e4: 33 05 aa 00  	add	a0, s4, a0
   116e8: 83 2a 05 00  	lw	s5, 0x0(a0)
   116ec: 23 2e 31 07  	sw	s3, 0x7c(sp)
   116f0: 23 3c b1 02  	sd	a1, 0x38(sp)
   116f4: 23 20 b1 08  	sw	a1, 0x80(sp)
   116f8: 23 22 01 08  	sw	zero, 0x84(sp)
   116fc: 23 24 51 09  	sw	s5, 0x88(sp)
   11700: 03 35 81 06  	ld	a0, 0x68(sp)
   11704: 13 05 15 00  	addi	a0, a0, 0x1
   11708: 93 05 04 00  	mv	a1, s0
   1170c: ef f0 40 53  	jal	0x20c40 <__muldi3>
   11710: bb 06 a5 01  	addw	a3, a0, s10
   11714: 9b 87 f6 ff  	addiw	a5, a3, -0x1
   11718: 13 95 27 00  	slli	a0, a5, 0x2
   1171c: 33 05 aa 00  	add	a0, s4, a0
   11720: 03 25 05 00  	lw	a0, 0x0(a0)
   11724: 93 95 26 00  	slli	a1, a3, 0x2
   11728: b3 05 ba 00  	add	a1, s4, a1
   1172c: 83 a5 05 00  	lw	a1, 0x0(a1)
   11730: 1b 87 16 00  	addiw	a4, a3, 0x1
   11734: 13 16 27 00  	slli	a2, a4, 0x2
   11738: 33 06 ca 00  	add	a2, s4, a2
   1173c: 03 26 06 00  	lw	a2, 0x0(a2)
   11740: b3 84 9b 00  	add	s1, s7, s1
   11744: 03 c8 04 00  	lbu	a6, 0x0(s1)
   11748: 93 04 70 00  	li	s1, 0x7
   1174c: 23 26 a1 08  	sw	a0, 0x8c(sp)
   11750: 23 28 b1 08  	sw	a1, 0x90(sp)
   11754: 23 2a c1 08  	sw	a2, 0x94(sp)
   11758: 63 e8 04 05  	bltu	s1, a6, 0x117a8 <susan_thin+0x25c>
   1175c: 23 2a 01 06  	sw	zero, 0x74(sp)
   11760: 23 2c 01 06  	sw	zero, 0x78(sp)
   11764: 23 20 01 08  	sw	zero, 0x80(sp)
   11768: 93 96 19 00  	slli	a3, s3, 0x1
   1176c: 23 2e d1 06  	sw	a3, 0x7c(sp)
   11770: 13 15 15 00  	slli	a0, a0, 0x1
   11774: 23 26 a1 08  	sw	a0, 0x8c(sp)
   11778: 13 95 1a 00  	slli	a0, s5, 0x1
   1177c: 33 05 55 01  	add	a0, a0, s5
   11780: 23 24 a1 08  	sw	a0, 0x88(sp)
   11784: 13 95 15 00  	slli	a0, a1, 0x1
   11788: 33 05 b5 00  	add	a0, a0, a1
   1178c: 23 28 a1 08  	sw	a0, 0x90(sp)
   11790: 13 16 26 00  	slli	a2, a2, 0x2
   11794: 23 2a c1 08  	sw	a2, 0x94(sp)
   11798: 03 3a 81 04  	ld	s4, 0x48(sp)
   1179c: 6f 00 c0 0b  	j	0x11858 <susan_thin+0x30c>
   117a0: 83 39 81 06  	ld	s3, 0x68(sp)
   117a4: 6f 00 00 5d  	j	0x11d74 <susan_thin+0x828>
   117a8: 13 83 0b 00  	mv	t1, s7
   117ac: 93 82 0a 00  	mv	t0, s5
   117b0: b3 8c 9b 01  	add	s9, s7, s9
   117b4: 03 c8 0c 00  	lbu	a6, 0x0(s9)
   117b8: 03 3a 81 04  	ld	s4, 0x48(sp)
   117bc: 63 e4 04 05  	bltu	s1, a6, 0x11804 <susan_thin+0x2b8>
   117c0: 23 2c 01 06  	sw	zero, 0x78(sp)
   117c4: 23 2a 01 06  	sw	zero, 0x74(sp)
   117c8: 23 2e 01 06  	sw	zero, 0x7c(sp)
   117cc: 83 36 81 03  	ld	a3, 0x38(sp)
   117d0: 93 96 16 00  	slli	a3, a3, 0x1
   117d4: 23 20 d1 08  	sw	a3, 0x80(sp)
   117d8: 93 96 12 00  	slli	a3, t0, 0x1
   117dc: 23 24 d1 08  	sw	a3, 0x88(sp)
   117e0: 93 16 15 00  	slli	a3, a0, 0x1
   117e4: 33 85 a6 00  	add	a0, a3, a0
   117e8: 23 26 a1 08  	sw	a0, 0x8c(sp)
   117ec: 13 15 16 00  	slli	a0, a2, 0x1
   117f0: 33 05 c5 00  	add	a0, a0, a2
   117f4: 23 2a a1 08  	sw	a0, 0x94(sp)
   117f8: 93 95 25 00  	slli	a1, a1, 0x2
   117fc: 23 28 b1 08  	sw	a1, 0x90(sp)
   11800: 6f 00 80 05  	j	0x11858 <susan_thin+0x30c>
   11804: 83 3b 01 03  	ld	s7, 0x30(sp)
   11808: b3 0b 73 01  	add	s7, t1, s7
   1180c: 03 c8 0b 00  	lbu	a6, 0x0(s7)
   11810: 63 e8 04 57  	bltu	s1, a6, 0x11d80 <susan_thin+0x834>
   11814: 23 2e 01 06  	sw	zero, 0x7c(sp)
   11818: 23 2c 01 06  	sw	zero, 0x78(sp)
   1181c: 23 24 01 08  	sw	zero, 0x88(sp)
   11820: 83 36 81 02  	ld	a3, 0x28(sp)
   11824: 93 96 16 00  	slli	a3, a3, 0x1
   11828: 23 2a d1 06  	sw	a3, 0x74(sp)
   1182c: 13 16 16 00  	slli	a2, a2, 0x1
   11830: 23 2a c1 08  	sw	a2, 0x94(sp)
   11834: 83 36 81 03  	ld	a3, 0x38(sp)
   11838: 13 96 16 00  	slli	a2, a3, 0x1
   1183c: 33 06 d6 00  	add	a2, a2, a3
   11840: 23 20 c1 08  	sw	a2, 0x80(sp)
   11844: 13 96 15 00  	slli	a2, a1, 0x1
   11848: b3 05 b6 00  	add	a1, a2, a1
   1184c: 23 28 b1 08  	sw	a1, 0x90(sp)
   11850: 13 15 25 00  	slli	a0, a0, 0x2
   11854: 23 26 a1 08  	sw	a0, 0x8c(sp)
   11858: 93 0a 00 00  	li	s5, 0x0
   1185c: 93 0b 00 00  	li	s7, 0x0
   11860: 93 0c 41 07  	addi	s9, sp, 0x74
   11864: 93 05 c0 00  	li	a1, 0xc
   11868: 13 85 0a 00  	mv	a0, s5
   1186c: ef f0 40 3d  	jal	0x20c40 <__muldi3>
   11870: 93 05 00 00  	li	a1, 0x0
   11874: 13 06 41 07  	addi	a2, sp, 0x74
   11878: 33 05 c5 00  	add	a0, a0, a2
   1187c: 13 05 c5 00  	addi	a0, a0, 0xc
   11880: 13 86 0c 00  	mv	a2, s9
   11884: 93 06 0b 00  	mv	a3, s6
   11888: 13 87 0d 00  	mv	a4, s11
   1188c: 93 87 0b 00  	mv	a5, s7
   11890: 83 2b 06 00  	lw	s7, 0x0(a2)
   11894: 93 8d 0a 00  	mv	s11, s5
   11898: 13 8b 05 00  	mv	s6, a1
   1189c: 63 c8 77 01  	blt	a5, s7, 0x118ac <susan_thin+0x360>
   118a0: 93 8b 07 00  	mv	s7, a5
   118a4: 93 0d 07 00  	mv	s11, a4
   118a8: 13 8b 06 00  	mv	s6, a3
   118ac: 13 06 46 00  	addi	a2, a2, 0x4
   118b0: 93 85 15 00  	addi	a1, a1, 0x1
   118b4: 93 06 0b 00  	mv	a3, s6
   118b8: 13 87 0d 00  	mv	a4, s11
   118bc: 93 87 0b 00  	mv	a5, s7
   118c0: e3 18 a6 fc  	bne	a2, a0, 0x11890 <susan_thin+0x344>
   118c4: 93 8a 1a 00  	addi	s5, s5, 0x1
   118c8: 93 8c cc 00  	addi	s9, s9, 0xc
   118cc: 13 05 30 00  	li	a0, 0x3
   118d0: e3 9a aa f8  	bne	s5, a0, 0x11864 <susan_thin+0x318>
   118d4: 63 58 70 07  	blez	s7, 0x11944 <susan_thin+0x3f8>
   118d8: 93 04 40 00  	li	s1, 0x4
   118dc: 63 64 99 00  	bltu	s2, s1, 0x118e4 <susan_thin+0x398>
   118e0: 93 04 19 00  	addi	s1, s2, 0x1
   118e4: 83 39 01 04  	ld	s3, 0x40(sp)
   118e8: 33 85 b9 01  	add	a0, s3, s11
   118ec: 93 05 04 00  	mv	a1, s0
   118f0: ef f0 00 35  	jal	0x20c40 <__muldi3>
   118f4: b3 05 ab 01  	add	a1, s6, s10
   118f8: 3b 85 a5 00  	addw	a0, a1, a0
   118fc: 03 36 01 00  	ld	a2, 0x0(sp)
   11900: 33 05 a6 00  	add	a0, a2, a0
   11904: 13 96 1d 00  	slli	a2, s11, 0x1
   11908: 3b 06 66 01  	addw	a2, a2, s6
   1190c: 23 00 95 00  	sb	s1, 0x0(a0)
   11910: 83 3b 01 05  	ld	s7, 0x50(sp)
   11914: 93 06 20 00  	li	a3, 0x2
   11918: 63 c8 c6 20  	blt	a3, a2, 0x11b28 <susan_thin+0x5dc>
   1191c: bb 89 b9 01  	addw	s3, s3, s11
   11920: 13 05 40 00  	li	a0, 0x4
   11924: 93 04 70 00  	li	s1, 0x7
   11928: 63 44 35 01  	blt	a0, s3, 0x11930 <susan_thin+0x3e4>
   1192c: 93 09 40 00  	li	s3, 0x4
   11930: 1b 8d e5 ff  	addiw	s10, a1, -0x2
   11934: 63 4e a5 01  	blt	a0, s10, 0x11950 <susan_thin+0x404>
   11938: 13 0d 40 00  	li	s10, 0x4
   1193c: 63 0c dc 00  	beq	s8, a3, 0x11954 <susan_thin+0x408>
   11940: 6f 00 40 1f  	j	0x11b34 <susan_thin+0x5e8>
   11944: 83 3b 01 05  	ld	s7, 0x50(sp)
   11948: 93 06 20 00  	li	a3, 0x2
   1194c: 83 39 81 06  	ld	s3, 0x68(sp)
   11950: 63 12 dc 1e  	bne	s8, a3, 0x11b34 <susan_thin+0x5e8>
   11954: 13 85 f9 ff  	addi	a0, s3, -0x1
   11958: 93 05 04 00  	mv	a1, s0
   1195c: ef f0 40 2e  	jal	0x20c40 <__muldi3>
   11960: 3b 0c a5 01  	addw	s8, a0, s10
   11964: 23 34 81 07  	sd	s8, 0x68(sp)
   11968: 33 8c 8b 01  	add	s8, s7, s8
   1196c: 83 44 fc ff  	lbu	s1, -0x1(s8)
   11970: 93 8c 0b 00  	mv	s9, s7
   11974: 83 4b 1c 00  	lbu	s7, 0x1(s8)
   11978: 13 0a 20 00  	li	s4, 0x2
   1197c: 13 b9 84 00  	sltiu	s2, s1, 0x8
   11980: 93 ba 8b 00  	sltiu	s5, s7, 0x8
   11984: 13 85 19 00  	addi	a0, s3, 0x1
   11988: 93 05 04 00  	mv	a1, s0
   1198c: ef f0 40 2b  	jal	0x20c40 <__muldi3>
   11990: 3b 07 a5 01  	addw	a4, a0, s10
   11994: b3 8c ec 00  	add	s9, s9, a4
   11998: 03 c5 fc ff  	lbu	a0, -0x1(s9)
   1199c: 83 c5 1c 00  	lbu	a1, 0x1(s9)
   119a0: 13 35 85 00  	sltiu	a0, a0, 0x8
   119a4: 93 b5 85 00  	sltiu	a1, a1, 0x8
   119a8: 33 86 2a 01  	add	a2, s5, s2
   119ac: b3 06 b5 00  	add	a3, a0, a1
   119b0: 33 06 d6 00  	add	a2, a2, a3
   119b4: 63 1c 46 03  	bne	a2, s4, 0x119ec <susan_thin+0x4a0>
   119b8: b3 e5 25 01  	or	a1, a1, s2
   119bc: 33 65 55 01  	or	a0, a0, s5
   119c0: 33 f5 a5 00  	and	a0, a1, a0
   119c4: 63 04 05 02  	beqz	a0, 0x119ec <susan_thin+0x4a0>
   119c8: 13 b5 8b 00  	sltiu	a0, s7, 0x8
   119cc: 93 4c 15 00  	xori	s9, a0, 0x1
   119d0: 13 0a 07 00  	mv	s4, a4
   119d4: 93 05 70 00  	li	a1, 0x7
   119d8: 63 e8 95 26  	bltu	a1, s1, 0x11c48 <susan_thin+0x6fc>
   119dc: 93 8b 0a 00  	mv	s7, s5
   119e0: b3 0a 90 41  	neg	s5, s9
   119e4: b3 04 a0 40  	neg	s1, a0
   119e8: 6f 00 c0 26  	j	0x11c54 <susan_thin+0x708>
   119ec: 03 45 0c 00  	lbu	a0, 0x0(s8)
   119f0: 93 3b 85 00  	sltiu	s7, a0, 0x8
   119f4: 13 85 09 00  	mv	a0, s3
   119f8: 93 05 04 00  	mv	a1, s0
   119fc: ef f0 40 24  	jal	0x20c40 <__muldi3>
   11a00: 3b 09 a5 01  	addw	s2, a0, s10
   11a04: 03 35 01 05  	ld	a0, 0x50(sp)
   11a08: 33 09 25 01  	add	s2, a0, s2
   11a0c: 03 45 19 00  	lbu	a0, 0x1(s2)
   11a10: 83 c5 0c 00  	lbu	a1, 0x0(s9)
   11a14: 03 46 f9 ff  	lbu	a2, -0x1(s2)
   11a18: 93 3a 85 00  	sltiu	s5, a0, 0x8
   11a1c: 13 ba 85 00  	sltiu	s4, a1, 0x8
   11a20: 93 34 86 00  	sltiu	s1, a2, 0x8
   11a24: 33 85 7a 01  	add	a0, s5, s7
   11a28: b3 05 9a 00  	add	a1, s4, s1
   11a2c: 33 05 b5 00  	add	a0, a0, a1
   11a30: 93 05 20 00  	li	a1, 0x2
   11a34: 63 1a b5 32  	bne	a0, a1, 0x11d68 <susan_thin+0x81c>
   11a38: 33 e5 54 01  	or	a0, s1, s5
   11a3c: b3 65 7a 01  	or	a1, s4, s7
   11a40: 33 75 b5 00  	and	a0, a0, a1
   11a44: 63 02 05 32  	beqz	a0, 0x11d68 <susan_thin+0x81c>
   11a48: 13 85 e9 ff  	addi	a0, s3, -0x2
   11a4c: 93 05 04 00  	mv	a1, s0
   11a50: ef f0 00 1f  	jal	0x20c40 <__muldi3>
   11a54: 3b 05 a5 01  	addw	a0, a0, s10
   11a58: 83 35 01 05  	ld	a1, 0x50(sp)
   11a5c: 33 85 a5 00  	add	a0, a1, a0
   11a60: 83 45 f5 ff  	lbu	a1, -0x1(a0)
   11a64: 03 45 15 00  	lbu	a0, 0x1(a0)
   11a68: 93 b5 85 00  	sltiu	a1, a1, 0x8
   11a6c: 13 35 85 00  	sltiu	a0, a0, 0x8
   11a70: 03 46 ec ff  	lbu	a2, -0x2(s8)
   11a74: 23 34 c1 06  	sd	a2, 0x68(sp)
   11a78: 03 c6 ec ff  	lbu	a2, -0x2(s9)
   11a7c: 23 3c c1 04  	sd	a2, 0x58(sp)
   11a80: 03 4c 2c 00  	lbu	s8, 0x2(s8)
   11a84: 83 cc 2c 00  	lbu	s9, 0x2(s9)
   11a88: 33 e5 a5 00  	or	a0, a1, a0
   11a8c: b3 fb ab 00  	and	s7, s7, a0
   11a90: 13 85 29 00  	addi	a0, s3, 0x2
   11a94: 93 05 04 00  	mv	a1, s0
   11a98: ef f0 80 1a  	jal	0x20c40 <__muldi3>
   11a9c: 63 9e 0b 04  	bnez	s7, 0x11af8 <susan_thin+0x5ac>
   11aa0: 83 35 81 06  	ld	a1, 0x68(sp)
   11aa4: 93 b5 85 00  	sltiu	a1, a1, 0x8
   11aa8: 03 36 81 05  	ld	a2, 0x58(sp)
   11aac: 13 36 86 00  	sltiu	a2, a2, 0x8
   11ab0: b3 e5 c5 00  	or	a1, a1, a2
   11ab4: b3 f5 b4 00  	and	a1, s1, a1
   11ab8: 63 90 05 04  	bnez	a1, 0x11af8 <susan_thin+0x5ac>
   11abc: 93 35 8c 00  	sltiu	a1, s8, 0x8
   11ac0: 13 b6 8c 00  	sltiu	a2, s9, 0x8
   11ac4: b3 e5 c5 00  	or	a1, a1, a2
   11ac8: b3 f5 ba 00  	and	a1, s5, a1
   11acc: 63 96 05 02  	bnez	a1, 0x11af8 <susan_thin+0x5ac>
   11ad0: 3b 05 a5 01  	addw	a0, a0, s10
   11ad4: 83 35 01 05  	ld	a1, 0x50(sp)
   11ad8: 33 85 a5 00  	add	a0, a1, a0
   11adc: 83 45 f5 ff  	lbu	a1, -0x1(a0)
   11ae0: 03 45 15 00  	lbu	a0, 0x1(a0)
   11ae4: 93 b5 85 00  	sltiu	a1, a1, 0x8
   11ae8: 13 35 85 00  	sltiu	a0, a0, 0x8
   11aec: 33 e5 a5 00  	or	a0, a1, a0
   11af0: 33 75 aa 00  	and	a0, s4, a0
   11af4: 63 0a 05 26  	beqz	a0, 0x11d68 <susan_thin+0x81c>
   11af8: 9b 89 09 00  	sext.w	s3, s3
   11afc: 13 05 50 00  	li	a0, 0x5
   11b00: 93 05 40 06  	li	a1, 0x64
   11b04: 23 00 b9 00  	sb	a1, 0x0(s2)
   11b08: 63 44 35 01  	blt	a0, s3, 0x11b10 <susan_thin+0x5c4>
   11b0c: 93 09 50 00  	li	s3, 0x5
   11b10: 13 05 60 00  	li	a0, 0x6
   11b14: 83 3b 01 05  	ld	s7, 0x50(sp)
   11b18: 03 3a 81 04  	ld	s4, 0x48(sp)
   11b1c: 93 04 70 00  	li	s1, 0x7
   11b20: 63 5c a5 11  	bge	a0, s10, 0x11c38 <susan_thin+0x6ec>
   11b24: 6f 00 80 11  	j	0x11c3c <susan_thin+0x6f0>
   11b28: 93 04 70 00  	li	s1, 0x7
   11b2c: 83 39 81 06  	ld	s3, 0x68(sp)
   11b30: e3 02 dc e2  	beq	s8, a3, 0x11954 <susan_thin+0x408>
   11b34: 13 05 30 00  	li	a0, 0x3
   11b38: 63 4e ac 22  	blt	s8, a0, 0x11d74 <susan_thin+0x828>
   11b3c: 13 85 f9 ff  	addi	a0, s3, -0x1
   11b40: 93 05 04 00  	mv	a1, s0
   11b44: ef f0 c0 0f  	jal	0x20c40 <__muldi3>
   11b48: bb 0a a5 01  	addw	s5, a0, s10
   11b4c: b3 8a 5b 01  	add	s5, s7, s5
   11b50: 03 c5 0a 00  	lbu	a0, 0x0(s5)
   11b54: 93 34 85 00  	sltiu	s1, a0, 0x8
   11b58: 13 85 09 00  	mv	a0, s3
   11b5c: 93 05 04 00  	mv	a1, s0
   11b60: ef f0 00 0e  	jal	0x20c40 <__muldi3>
   11b64: 13 0c 20 00  	li	s8, 0x2
   11b68: 3b 09 a5 01  	addw	s2, a0, s10
   11b6c: 33 89 2b 01  	add	s2, s7, s2
   11b70: 03 45 19 00  	lbu	a0, 0x1(s2)
   11b74: 13 3a 85 00  	sltiu	s4, a0, 0x8
   11b78: 13 85 19 00  	addi	a0, s3, 0x1
   11b7c: 93 05 04 00  	mv	a1, s0
   11b80: ef f0 00 0c  	jal	0x20c40 <__muldi3>
   11b84: 3b 06 a5 01  	addw	a2, a0, s10
   11b88: 33 86 cb 00  	add	a2, s7, a2
   11b8c: 03 45 06 00  	lbu	a0, 0x0(a2)
   11b90: 83 45 f9 ff  	lbu	a1, -0x1(s2)
   11b94: 13 35 85 00  	sltiu	a0, a0, 0x8
   11b98: 93 b5 85 00  	sltiu	a1, a1, 0x8
   11b9c: b3 06 9a 00  	add	a3, s4, s1
   11ba0: 33 07 b5 00  	add	a4, a0, a1
   11ba4: b3 86 e6 00  	add	a3, a3, a4
   11ba8: 63 e2 86 1d  	bltu	a3, s8, 0x11d6c <susan_thin+0x820>
   11bac: 83 c6 fa ff  	lbu	a3, -0x1(s5)
   11bb0: 03 c7 1a 00  	lbu	a4, 0x1(s5)
   11bb4: 83 47 f6 ff  	lbu	a5, -0x1(a2)
   11bb8: 03 46 16 00  	lbu	a2, 0x1(a2)
   11bbc: 93 b6 86 00  	sltiu	a3, a3, 0x8
   11bc0: 13 37 87 00  	sltiu	a4, a4, 0x8
   11bc4: 93 b7 87 00  	sltiu	a5, a5, 0x8
   11bc8: 13 36 86 00  	sltiu	a2, a2, 0x8
   11bcc: b3 e6 d4 00  	or	a3, s1, a3
   11bd0: 33 67 ea 00  	or	a4, s4, a4
   11bd4: 33 66 c5 00  	or	a2, a0, a2
   11bd8: b3 e7 f5 00  	or	a5, a1, a5
   11bdc: b3 74 97 00  	and	s1, a4, s1
   11be0: 33 78 46 01  	and	a6, a2, s4
   11be4: 33 f5 a7 00  	and	a0, a5, a0
   11be8: b3 f5 b6 00  	and	a1, a3, a1
   11bec: b3 06 d7 00  	add	a3, a4, a3
   11bf0: b3 85 95 00  	add	a1, a1, s1
   11bf4: 33 86 c7 00  	add	a2, a5, a2
   11bf8: 33 86 c6 00  	add	a2, a3, a2
   11bfc: 33 05 05 01  	add	a0, a0, a6
   11c00: 33 85 a5 00  	add	a0, a1, a0
   11c04: 33 06 a6 40  	sub	a2, a2, a0
   11c08: 13 05 10 00  	li	a0, 0x1
   11c0c: 63 40 c5 16  	blt	a0, a2, 0x11d6c <susan_thin+0x820>
   11c10: 9b 89 09 00  	sext.w	s3, s3
   11c14: 13 05 50 00  	li	a0, 0x5
   11c18: 93 05 40 06  	li	a1, 0x64
   11c1c: 23 00 b9 00  	sb	a1, 0x0(s2)
   11c20: 03 3a 81 04  	ld	s4, 0x48(sp)
   11c24: 93 04 70 00  	li	s1, 0x7
   11c28: 63 44 35 01  	blt	a0, s3, 0x11c30 <susan_thin+0x6e4>
   11c2c: 93 09 50 00  	li	s3, 0x5
   11c30: 13 05 60 00  	li	a0, 0x6
   11c34: 63 44 a5 01  	blt	a0, s10, 0x11c3c <susan_thin+0x6f0>
   11c38: 13 0d 60 00  	li	s10, 0x6
   11c3c: 93 89 f9 ff  	addi	s3, s3, -0x1
   11c40: 13 0d ed ff  	addi	s10, s10, -0x2
   11c44: 6f 00 00 13  	j	0x11d74 <susan_thin+0x828>
   11c48: 93 84 0c 00  	mv	s1, s9
   11c4c: 93 8b 0c 00  	mv	s7, s9
   11c50: 93 8c 0a 00  	mv	s9, s5
   11c54: 13 09 80 00  	li	s2, 0x8
   11c58: 33 85 34 01  	add	a0, s1, s3
   11c5c: 93 05 04 00  	mv	a1, s0
   11c60: ef e0 10 7e  	jal	0x20c40 <__muldi3>
   11c64: b3 85 aa 01  	add	a1, s5, s10
   11c68: 3b 8c a5 00  	addw	s8, a1, a0
   11c6c: 13 15 2c 00  	slli	a0, s8, 0x2
   11c70: 83 35 01 06  	ld	a1, 0x60(sp)
   11c74: 33 85 a5 00  	add	a0, a1, a0
   11c78: 03 25 05 00  	lw	a0, 0x0(a0)
   11c7c: d3 77 05 d0  	fcvt.s.w	fa5, a0
   11c80: 03 35 81 05  	ld	a0, 0x58(sp)
   11c84: 53 77 05 d0  	fcvt.s.w	fa4, a0
   11c88: d3 f7 e7 18  	fdiv.s	fa5, fa5, fa4
   11c8c: d3 87 07 42  	fcvt.d.s	fa5, fa5
   11c90: 53 15 f4 a2  	flt.d	a0, fs0, fa5
   11c94: 63 0a 05 0c  	beqz	a0, 0x11d68 <susan_thin+0x81c>
   11c98: 63 8c 0b 04  	beqz	s7, 0x11cf0 <susan_thin+0x7a4>
   11c9c: 13 95 14 00  	slli	a0, s1, 0x1
   11ca0: 33 05 35 01  	add	a0, a0, s3
   11ca4: 93 05 04 00  	mv	a1, s0
   11ca8: ef e0 90 79  	jal	0x20c40 <__muldi3>
   11cac: 3b 05 a5 01  	addw	a0, a0, s10
   11cb0: 83 35 01 05  	ld	a1, 0x50(sp)
   11cb4: 33 85 a5 00  	add	a0, a1, a0
   11cb8: 83 45 05 00  	lbu	a1, 0x0(a0)
   11cbc: 63 ea 25 03  	bltu	a1, s2, 0x11cf0 <susan_thin+0x7a4>
   11cc0: 83 45 f5 ff  	lbu	a1, -0x1(a0)
   11cc4: 63 e6 25 03  	bltu	a1, s2, 0x11cf0 <susan_thin+0x7a4>
   11cc8: 03 45 15 00  	lbu	a0, 0x1(a0)
   11ccc: 63 62 25 03  	bltu	a0, s2, 0x11cf0 <susan_thin+0x7a4>
   11cd0: 13 85 09 00  	mv	a0, s3
   11cd4: 93 05 04 00  	mv	a1, s0
   11cd8: ef e0 90 76  	jal	0x20c40 <__muldi3>
   11cdc: 3b 05 a5 01  	addw	a0, a0, s10
   11ce0: 83 3b 01 05  	ld	s7, 0x50(sp)
   11ce4: 03 3a 81 04  	ld	s4, 0x48(sp)
   11ce8: 93 04 70 00  	li	s1, 0x7
   11cec: 6f 00 00 06  	j	0x11d4c <susan_thin+0x800>
   11cf0: 63 8c 0c 06  	beqz	s9, 0x11d68 <susan_thin+0x81c>
   11cf4: 13 85 09 00  	mv	a0, s3
   11cf8: 93 05 04 00  	mv	a1, s0
   11cfc: ef e0 50 74  	jal	0x20c40 <__muldi3>
   11d00: 3b 05 a5 01  	addw	a0, a0, s10
   11d04: 93 9a 1a 00  	slli	s5, s5, 0x1
   11d08: bb 05 55 01  	addw	a1, a0, s5
   11d0c: 83 3b 01 05  	ld	s7, 0x50(sp)
   11d10: b3 85 bb 00  	add	a1, s7, a1
   11d14: 83 c5 05 00  	lbu	a1, 0x0(a1)
   11d18: 93 04 70 00  	li	s1, 0x7
   11d1c: 63 ee 25 0b  	bltu	a1, s2, 0x11dd8 <susan_thin+0x88c>
   11d20: bb 85 4a 01  	addw	a1, s5, s4
   11d24: b3 85 bb 00  	add	a1, s7, a1
   11d28: 83 c5 05 00  	lbu	a1, 0x0(a1)
   11d2c: 13 06 80 00  	li	a2, 0x8
   11d30: 63 e4 c5 0a  	bltu	a1, a2, 0x11dd8 <susan_thin+0x88c>
   11d34: 83 35 81 06  	ld	a1, 0x68(sp)
   11d38: bb 85 ba 00  	addw	a1, s5, a1
   11d3c: b3 85 bb 00  	add	a1, s7, a1
   11d40: 83 c5 05 00  	lbu	a1, 0x0(a1)
   11d44: 03 3a 81 04  	ld	s4, 0x48(sp)
   11d48: 63 e6 c5 02  	bltu	a1, a2, 0x11d74 <susan_thin+0x828>
   11d4c: 33 85 ab 00  	add	a0, s7, a0
   11d50: 93 05 40 06  	li	a1, 0x64
   11d54: 23 00 b5 00  	sb	a1, 0x0(a0)
   11d58: 33 8c 8b 01  	add	s8, s7, s8
   11d5c: 13 05 30 00  	li	a0, 0x3
   11d60: 23 00 ac 00  	sb	a0, 0x0(s8)
   11d64: 6f 00 00 01  	j	0x11d74 <susan_thin+0x828>
   11d68: 83 3b 01 05  	ld	s7, 0x50(sp)
   11d6c: 03 3a 81 04  	ld	s4, 0x48(sp)
   11d70: 93 04 70 00  	li	s1, 0x7
   11d74: 1b 0d 1d 00  	addiw	s10, s10, 0x1
   11d78: e3 44 4d 83  	blt	s10, s4, 0x115a0 <susan_thin+0x54>
   11d7c: 6f 00 c0 1c  	j	0x11f48 <susan_thin+0x9fc>
   11d80: 93 88 09 00  	mv	a7, s3
   11d84: 03 38 01 02  	ld	a6, 0x20(sp)
   11d88: 33 08 03 01  	add	a6, t1, a6
   11d8c: 03 48 08 00  	lbu	a6, 0x0(a6)
   11d90: 63 e8 04 05  	bltu	s1, a6, 0x11de0 <susan_thin+0x894>
   11d94: 23 20 01 08  	sw	zero, 0x80(sp)
   11d98: 23 2a 01 06  	sw	zero, 0x74(sp)
   11d9c: 23 26 01 08  	sw	zero, 0x8c(sp)
   11da0: 03 35 81 01  	ld	a0, 0x18(sp)
   11da4: 13 15 15 00  	slli	a0, a0, 0x1
   11da8: 23 2c a1 06  	sw	a0, 0x78(sp)
   11dac: 93 95 15 00  	slli	a1, a1, 0x1
   11db0: 23 28 b1 08  	sw	a1, 0x90(sp)
   11db4: 13 95 18 00  	slli	a0, a7, 0x1
   11db8: 33 05 15 01  	add	a0, a0, a7
   11dbc: 23 2e a1 06  	sw	a0, 0x7c(sp)
   11dc0: 13 15 16 00  	slli	a0, a2, 0x1
   11dc4: 33 05 c5 00  	add	a0, a0, a2
   11dc8: 23 2a a1 08  	sw	a0, 0x94(sp)
   11dcc: 13 95 22 00  	slli	a0, t0, 0x2
   11dd0: 23 24 a1 08  	sw	a0, 0x88(sp)
   11dd4: 6f f0 5f 9c  	j	0x11798 <susan_thin+0x24c>
   11dd8: 03 3a 81 04  	ld	s4, 0x48(sp)
   11ddc: 6f f0 9f f9  	j	0x11d74 <susan_thin+0x828>
   11de0: 13 0a 03 00  	mv	s4, t1
   11de4: 83 3a 01 01  	ld	s5, 0x10(sp)
   11de8: b3 0a 53 01  	add	s5, t1, s5
   11dec: 03 c8 0a 00  	lbu	a6, 0x0(s5)
   11df0: 63 e8 04 05  	bltu	s1, a6, 0x11e40 <susan_thin+0x8f4>
   11df4: 23 24 01 08  	sw	zero, 0x88(sp)
   11df8: 23 2e 01 06  	sw	zero, 0x7c(sp)
   11dfc: 23 2a 01 08  	sw	zero, 0x94(sp)
   11e00: 03 36 81 01  	ld	a2, 0x18(sp)
   11e04: 13 16 16 00  	slli	a2, a2, 0x1
   11e08: 23 2c c1 06  	sw	a2, 0x78(sp)
   11e0c: 93 95 15 00  	slli	a1, a1, 0x1
   11e10: 23 28 b1 08  	sw	a1, 0x90(sp)
   11e14: 83 39 81 02  	ld	s3, 0x28(sp)
   11e18: 93 95 19 00  	slli	a1, s3, 0x1
   11e1c: b3 85 35 01  	add	a1, a1, s3
   11e20: 23 2a b1 06  	sw	a1, 0x74(sp)
   11e24: 93 15 15 00  	slli	a1, a0, 0x1
   11e28: 33 85 a5 00  	add	a0, a1, a0
   11e2c: 23 26 a1 08  	sw	a0, 0x8c(sp)
   11e30: 03 35 81 03  	ld	a0, 0x38(sp)
   11e34: 13 15 25 00  	slli	a0, a0, 0x2
   11e38: 23 20 a1 08  	sw	a0, 0x80(sp)
   11e3c: 6f f0 df 95  	j	0x11798 <susan_thin+0x24c>
   11e40: b3 07 fa 00  	add	a5, s4, a5
   11e44: 83 c5 07 00  	lbu	a1, 0x0(a5)
   11e48: 63 e6 b4 04  	bltu	s1, a1, 0x11e94 <susan_thin+0x948>
   11e4c: 23 26 01 08  	sw	zero, 0x8c(sp)
   11e50: 23 20 01 08  	sw	zero, 0x80(sp)
   11e54: 23 28 01 08  	sw	zero, 0x90(sp)
   11e58: 03 35 81 02  	ld	a0, 0x28(sp)
   11e5c: 13 15 15 00  	slli	a0, a0, 0x1
   11e60: 23 2a a1 06  	sw	a0, 0x74(sp)
   11e64: 13 16 16 00  	slli	a2, a2, 0x1
   11e68: 23 2a c1 08  	sw	a2, 0x94(sp)
   11e6c: 83 35 81 01  	ld	a1, 0x18(sp)
   11e70: 13 95 15 00  	slli	a0, a1, 0x1
   11e74: 33 05 b5 00  	add	a0, a0, a1
   11e78: 23 2c a1 06  	sw	a0, 0x78(sp)
   11e7c: 13 95 12 00  	slli	a0, t0, 0x1
   11e80: 33 05 55 00  	add	a0, a0, t0
   11e84: 23 24 a1 08  	sw	a0, 0x88(sp)
   11e88: 13 95 28 00  	slli	a0, a7, 0x2
   11e8c: 23 2e a1 06  	sw	a0, 0x7c(sp)
   11e90: 6f f0 9f 90  	j	0x11798 <susan_thin+0x24c>
   11e94: b3 06 da 00  	add	a3, s4, a3
   11e98: 83 c5 06 00  	lbu	a1, 0x0(a3)
   11e9c: 63 e8 b4 04  	bltu	s1, a1, 0x11eec <susan_thin+0x9a0>
   11ea0: 23 28 01 08  	sw	zero, 0x90(sp)
   11ea4: 23 26 01 08  	sw	zero, 0x8c(sp)
   11ea8: 23 2a 01 08  	sw	zero, 0x94(sp)
   11eac: 03 35 81 03  	ld	a0, 0x38(sp)
   11eb0: 13 15 15 00  	slli	a0, a0, 0x1
   11eb4: 23 20 a1 08  	sw	a0, 0x80(sp)
   11eb8: 13 95 12 00  	slli	a0, t0, 0x1
   11ebc: 23 24 a1 08  	sw	a0, 0x88(sp)
   11ec0: 83 39 81 02  	ld	s3, 0x28(sp)
   11ec4: 13 95 19 00  	slli	a0, s3, 0x1
   11ec8: 33 05 35 01  	add	a0, a0, s3
   11ecc: 23 2a a1 06  	sw	a0, 0x74(sp)
   11ed0: 13 95 18 00  	slli	a0, a7, 0x1
   11ed4: 33 05 15 01  	add	a0, a0, a7
   11ed8: 23 2e a1 06  	sw	a0, 0x7c(sp)
   11edc: 03 35 81 01  	ld	a0, 0x18(sp)
   11ee0: 13 15 25 00  	slli	a0, a0, 0x2
   11ee4: 23 2c a1 06  	sw	a0, 0x78(sp)
   11ee8: 6f f0 1f 8b  	j	0x11798 <susan_thin+0x24c>
   11eec: 33 07 ea 00  	add	a4, s4, a4
   11ef0: 83 45 07 00  	lbu	a1, 0x0(a4)
   11ef4: 03 3a 81 04  	ld	s4, 0x48(sp)
   11ef8: e3 e0 b4 96  	bltu	s1, a1, 0x11858 <susan_thin+0x30c>
   11efc: 23 2a 01 08  	sw	zero, 0x94(sp)
   11f00: 23 24 01 08  	sw	zero, 0x88(sp)
   11f04: 23 28 01 08  	sw	zero, 0x90(sp)
   11f08: 13 15 15 00  	slli	a0, a0, 0x1
   11f0c: 23 26 a1 08  	sw	a0, 0x8c(sp)
   11f10: 13 95 18 00  	slli	a0, a7, 0x1
   11f14: 23 2e a1 06  	sw	a0, 0x7c(sp)
   11f18: 83 35 81 01  	ld	a1, 0x18(sp)
   11f1c: 13 95 15 00  	slli	a0, a1, 0x1
   11f20: 33 05 b5 00  	add	a0, a0, a1
   11f24: 23 2c a1 06  	sw	a0, 0x78(sp)
   11f28: 83 35 81 03  	ld	a1, 0x38(sp)
   11f2c: 13 95 15 00  	slli	a0, a1, 0x1
   11f30: 33 05 b5 00  	add	a0, a0, a1
   11f34: 23 20 a1 08  	sw	a0, 0x80(sp)
   11f38: 03 35 81 02  	ld	a0, 0x28(sp)
   11f3c: 13 15 25 00  	slli	a0, a0, 0x2
   11f40: 23 2a a1 06  	sw	a0, 0x74(sp)
   11f44: 6f f0 5f 91  	j	0x11858 <susan_thin+0x30c>
   11f48: 9b 89 19 00  	addiw	s3, s3, 0x1
   11f4c: 03 35 81 00  	ld	a0, 0x8(sp)
   11f50: 63 c2 a9 e4  	blt	s3, a0, 0x11594 <susan_thin+0x48>
   11f54: 13 05 00 00  	li	a0, 0x0
   11f58: 07 34 81 09  	fld	fs0, 0x98(sp)
   11f5c: 13 01 01 0a  	addi	sp, sp, 0xa0
   11f60: 6f e0 70 4b  	j	0x20c16 <__riscv_restore_12>

0000000000011f64 <susan_edges>:
   11f64: ef e2 90 46  	jal	t0, 0x20bcc <__riscv_save_12>
   11f68: 13 01 01 ea  	addi	sp, sp, -0x160
   11f6c: 27 3c 81 14  	fsd	fs0, 0x158(sp)
   11f70: 27 38 91 14  	fsd	fs1, 0x150(sp)
   11f74: 27 34 21 15  	fsd	fs2, 0x148(sp)
   11f78: 27 30 31 15  	fsd	fs3, 0x140(sp)
   11f7c: 27 3c 41 13  	fsd	fs4, 0x138(sp)
   11f80: 13 0b 08 00  	mv	s6, a6
   11f84: 93 8a 07 00  	mv	s5, a5
   11f88: 23 38 e1 12  	sd	a4, 0x130(sp)
   11f8c: 23 34 d1 12  	sd	a3, 0x128(sp)
   11f90: 93 04 06 00  	mv	s1, a2
   11f94: 13 84 05 00  	mv	s0, a1
   11f98: 13 0a 05 00  	mv	s4, a0
   11f9c: 13 05 08 00  	mv	a0, a6
   11fa0: 93 85 07 00  	mv	a1, a5
   11fa4: ef e0 d0 49  	jal	0x20c40 <__muldi3>
   11fa8: 1b 05 05 00  	sext.w	a0, a0
   11fac: 13 16 25 00  	slli	a2, a0, 0x2
   11fb0: 23 30 81 10  	sd	s0, 0x100(sp)
   11fb4: 13 05 04 00  	mv	a0, s0
   11fb8: 93 05 00 00  	li	a1, 0x0
   11fbc: ef 60 a0 5f  	jal	0x185b6 <memset>
   11fc0: 13 07 70 00  	li	a4, 0x7
   11fc4: e3 40 eb 78  	blt	s6, a4, 0x12f44 <susan_edges+0xfe0>
   11fc8: 23 30 91 12  	sd	s1, 0x120(sp)
   11fcc: 9b 07 db ff  	addiw	a5, s6, -0x3
   11fd0: 1b 85 da ff  	addiw	a0, s5, -0x3
   11fd4: 1b 83 ba ff  	addiw	t1, s5, -0x5
   11fd8: 9b 85 aa ff  	addiw	a1, s5, -0x6
   11fdc: 93 16 05 02  	slli	a3, a0, 0x20
   11fe0: 93 d6 06 02  	srli	a3, a3, 0x20
   11fe4: 03 38 01 10  	ld	a6, 0x100(sp)
   11fe8: 13 08 c8 00  	addi	a6, a6, 0xc
   11fec: 93 92 1a 00  	slli	t0, s5, 0x1
   11ff0: b3 82 52 01  	add	t0, t0, s5
   11ff4: 93 03 3a 00  	addi	t2, s4, 0x3
   11ff8: 13 8e d6 ff  	addi	t3, a3, -0x3
   11ffc: 33 06 aa 00  	add	a2, s4, a0
   12000: b3 06 65 00  	add	a3, a0, t1
   12004: 33 0f da 00  	add	t5, s4, a3
   12008: b3 88 45 01  	add	a7, a1, s4
   1200c: b3 86 16 01  	add	a3, a3, a7
   12010: 93 8f 06 01  	addi	t6, a3, 0x10
   12014: 23 3c b1 10  	sd	a1, 0x118(sp)
   12018: 93 95 15 00  	slli	a1, a1, 0x1
   1201c: 33 89 a5 00  	add	s2, a1, a0
   12020: b3 08 43 01  	add	a7, t1, s4
   12024: b3 08 19 01  	add	a7, s2, a7
   12028: 13 84 48 01  	addi	s0, a7, 0x14
   1202c: 93 14 15 00  	slli	s1, a0, 0x1
   12030: 23 38 61 10  	sd	t1, 0x110(sp)
   12034: 13 13 13 00  	slli	t1, t1, 0x1
   12038: 23 3c 91 0e  	sd	s1, 0xf8(sp)
   1203c: b3 84 64 00  	add	s1, s1, t1
   12040: 23 34 b1 10  	sd	a1, 0x108(sp)
   12044: b3 89 45 01  	add	s3, a1, s4
   12048: b3 84 34 01  	add	s1, s1, s3
   1204c: 93 84 e4 01  	addi	s1, s1, 0x1e
   12050: 23 34 61 0e  	sd	t1, 0xe8(sp)
   12054: b3 09 43 01  	add	s3, t1, s4
   12058: 33 09 39 01  	add	s2, s2, s3
   1205c: 13 09 a9 01  	addi	s2, s2, 0x1a
   12060: 93 09 30 00  	li	s3, 0x3
   12064: 93 0b 0a 00  	mv	s7, s4
   12068: 23 38 51 0b  	sd	s5, 0xb0(sp)
   1206c: 63 c4 ea 2a  	blt	s5, a4, 0x12314 <susan_edges+0x3b0>
   12070: 13 0c 00 00  	li	s8, 0x0
   12074: 93 9c 02 02  	slli	s9, t0, 0x20
   12078: 13 dd 0c 02  	srli	s10, s9, 0x20
   1207c: 93 dc ec 01  	srli	s9, s9, 0x1e
   12080: b3 0c 98 01  	add	s9, a6, s9
   12084: 33 8d a3 01  	add	s10, t2, s10
   12088: b3 80 8b 01  	add	ra, s7, s8
   1208c: b3 0d 8d 01  	add	s11, s10, s8
   12090: 83 cd 0d 00  	lbu	s11, 0x0(s11)
   12094: 83 ca 20 00  	lbu	s5, 0x2(ra)
   12098: 83 c8 30 00  	lbu	a7, 0x3(ra)
   1209c: 83 35 81 12  	ld	a1, 0x128(sp)
   120a0: b3 8d b5 01  	add	s11, a1, s11
   120a4: b3 8a 5d 41  	sub	s5, s11, s5
   120a8: 83 ca 0a 00  	lbu	s5, 0x0(s5)
   120ac: b3 88 1d 41  	sub	a7, s11, a7
   120b0: 83 c0 40 00  	lbu	ra, 0x4(ra)
   120b4: b3 0e 86 01  	add	t4, a2, s8
   120b8: 03 c3 4e 00  	lbu	t1, 0x4(t4)
   120bc: 83 c8 08 00  	lbu	a7, 0x0(a7)
   120c0: b3 80 1d 40  	sub	ra, s11, ra
   120c4: 83 c0 00 00  	lbu	ra, 0x0(ra)
   120c8: 33 83 6d 40  	sub	t1, s11, t1
   120cc: 03 43 03 00  	lbu	t1, 0x0(t1)
   120d0: 83 c6 5e 00  	lbu	a3, 0x5(t4)
   120d4: b3 88 1a 01  	add	a7, s5, a7
   120d8: 33 83 60 00  	add	t1, ra, t1
   120dc: 83 ca 6e 00  	lbu	s5, 0x6(t4)
   120e0: b3 86 dd 40  	sub	a3, s11, a3
   120e4: 83 c0 7e 00  	lbu	ra, 0x7(t4)
   120e8: 83 c6 06 00  	lbu	a3, 0x0(a3)
   120ec: b3 8a 5d 41  	sub	s5, s11, s5
   120f0: 83 ca 0a 00  	lbu	s5, 0x0(s5)
   120f4: b3 80 1d 40  	sub	ra, s11, ra
   120f8: 83 c0 00 00  	lbu	ra, 0x0(ra)
   120fc: b3 88 68 00  	add	a7, a7, t1
   12100: b3 86 56 01  	add	a3, a3, s5
   12104: 03 c3 8e 00  	lbu	t1, 0x8(t4)
   12108: b3 86 16 00  	add	a3, a3, ra
   1210c: b3 0e 8f 01  	add	t4, t5, s8
   12110: 83 ca 8e 00  	lbu	s5, 0x8(t4)
   12114: 33 83 6d 40  	sub	t1, s11, t1
   12118: 83 c0 9e 00  	lbu	ra, 0x9(t4)
   1211c: 03 43 03 00  	lbu	t1, 0x0(t1)
   12120: b3 8a 5d 41  	sub	s5, s11, s5
   12124: 83 ca 0a 00  	lbu	s5, 0x0(s5)
   12128: b3 80 1d 40  	sub	ra, s11, ra
   1212c: 83 c0 00 00  	lbu	ra, 0x0(ra)
   12130: b3 86 d8 00  	add	a3, a7, a3
   12134: 83 c8 ae 00  	lbu	a7, 0xa(t4)
   12138: 33 03 53 01  	add	t1, t1, s5
   1213c: 33 03 13 00  	add	t1, t1, ra
   12140: 83 ca be 00  	lbu	s5, 0xb(t4)
   12144: b3 88 1d 41  	sub	a7, s11, a7
   12148: 83 c0 ce 00  	lbu	ra, 0xc(t4)
   1214c: 83 c8 08 00  	lbu	a7, 0x0(a7)
   12150: b3 8a 5d 41  	sub	s5, s11, s5
   12154: 83 ca 0a 00  	lbu	s5, 0x0(s5)
   12158: b3 80 1d 40  	sub	ra, s11, ra
   1215c: 83 c0 00 00  	lbu	ra, 0x0(ra)
   12160: 83 c5 de 00  	lbu	a1, 0xd(t4)
   12164: b3 08 13 01  	add	a7, t1, a7
   12168: b3 86 16 01  	add	a3, a3, a7
   1216c: b3 8a 1a 00  	add	s5, s5, ra
   12170: b3 85 bd 40  	sub	a1, s11, a1
   12174: 83 c8 ee 00  	lbu	a7, 0xe(t4)
   12178: 33 83 8f 01  	add	t1, t6, s8
   1217c: 83 4e e3 ff  	lbu	t4, -0x2(t1)
   12180: 83 c5 05 00  	lbu	a1, 0x0(a1)
   12184: b3 88 1d 41  	sub	a7, s11, a7
   12188: 83 c8 08 00  	lbu	a7, 0x0(a7)
   1218c: b3 8e dd 41  	sub	t4, s11, t4
   12190: 83 ce 0e 00  	lbu	t4, 0x0(t4)
   12194: b3 85 ba 00  	add	a1, s5, a1
   12198: 83 4a f3 ff  	lbu	s5, -0x1(t1)
   1219c: b3 85 15 01  	add	a1, a1, a7
   121a0: b3 85 d5 01  	add	a1, a1, t4
   121a4: 83 48 03 00  	lbu	a7, 0x0(t1)
   121a8: b3 8e 5d 41  	sub	t4, s11, s5
   121ac: 83 4a 23 00  	lbu	s5, 0x2(t1)
   121b0: 83 ce 0e 00  	lbu	t4, 0x0(t4)
   121b4: b3 88 1d 41  	sub	a7, s11, a7
   121b8: 83 c8 08 00  	lbu	a7, 0x0(a7)
   121bc: b3 8a 5d 41  	sub	s5, s11, s5
   121c0: 83 ca 0a 00  	lbu	s5, 0x0(s5)
   121c4: 83 40 33 00  	lbu	ra, 0x3(t1)
   121c8: b3 85 b6 00  	add	a1, a3, a1
   121cc: b3 88 1e 01  	add	a7, t4, a7
   121d0: b3 88 58 01  	add	a7, a7, s5
   121d4: b3 86 1d 40  	sub	a3, s11, ra
   121d8: 83 c6 06 00  	lbu	a3, 0x0(a3)
   121dc: 03 43 43 00  	lbu	t1, 0x4(t1)
   121e0: b3 0e 84 01  	add	t4, s0, s8
   121e4: 83 ca 0e 00  	lbu	s5, 0x0(t4)
   121e8: b3 86 d8 00  	add	a3, a7, a3
   121ec: b3 88 6d 40  	sub	a7, s11, t1
   121f0: 83 c8 08 00  	lbu	a7, 0x0(a7)
   121f4: 33 83 5d 41  	sub	t1, s11, s5
   121f8: 03 43 03 00  	lbu	t1, 0x0(t1)
   121fc: 83 ca 1e 00  	lbu	s5, 0x1(t4)
   12200: b3 86 16 01  	add	a3, a3, a7
   12204: 83 c8 2e 00  	lbu	a7, 0x2(t4)
   12208: b3 86 66 00  	add	a3, a3, t1
   1220c: 33 83 5d 41  	sub	t1, s11, s5
   12210: 03 43 03 00  	lbu	t1, 0x0(t1)
   12214: b3 88 1d 41  	sub	a7, s11, a7
   12218: 83 c8 08 00  	lbu	a7, 0x0(a7)
   1221c: 83 ca 3e 00  	lbu	s5, 0x3(t4)
   12220: b3 85 d5 00  	add	a1, a1, a3
   12224: 83 c6 4e 00  	lbu	a3, 0x4(t4)
   12228: b3 08 13 01  	add	a7, t1, a7
   1222c: 33 83 5d 41  	sub	t1, s11, s5
   12230: 03 43 03 00  	lbu	t1, 0x0(t1)
   12234: b3 86 dd 40  	sub	a3, s11, a3
   12238: 83 c6 06 00  	lbu	a3, 0x0(a3)
   1223c: 83 ca 5e 00  	lbu	s5, 0x5(t4)
   12240: b3 88 68 00  	add	a7, a7, t1
   12244: 03 c3 6e 00  	lbu	t1, 0x6(t4)
   12248: b3 86 d8 00  	add	a3, a7, a3
   1224c: b3 88 5d 41  	sub	a7, s11, s5
   12250: 83 c8 08 00  	lbu	a7, 0x0(a7)
   12254: 33 83 6d 40  	sub	t1, s11, t1
   12258: 03 43 03 00  	lbu	t1, 0x0(t1)
   1225c: b3 0e 89 01  	add	t4, s2, s8
   12260: 83 ca 0e 00  	lbu	s5, 0x0(t4)
   12264: b3 86 16 01  	add	a3, a3, a7
   12268: b3 86 66 00  	add	a3, a3, t1
   1226c: 83 c8 1e 00  	lbu	a7, 0x1(t4)
   12270: 33 83 5d 41  	sub	t1, s11, s5
   12274: 03 43 03 00  	lbu	t1, 0x0(t1)
   12278: 83 ca 2e 00  	lbu	s5, 0x2(t4)
   1227c: b3 88 1d 41  	sub	a7, s11, a7
   12280: 83 c0 3e 00  	lbu	ra, 0x3(t4)
   12284: 83 c8 08 00  	lbu	a7, 0x0(a7)
   12288: b3 8a 5d 41  	sub	s5, s11, s5
   1228c: 83 ca 0a 00  	lbu	s5, 0x0(s5)
   12290: b3 80 1d 40  	sub	ra, s11, ra
   12294: 83 c0 00 00  	lbu	ra, 0x0(ra)
   12298: b3 86 66 00  	add	a3, a3, t1
   1229c: b3 85 d5 00  	add	a1, a1, a3
   122a0: b3 88 58 01  	add	a7, a7, s5
   122a4: b3 88 18 00  	add	a7, a7, ra
   122a8: 83 c6 4e 00  	lbu	a3, 0x4(t4)
   122ac: 33 83 84 01  	add	t1, s1, s8
   122b0: 83 4e 03 00  	lbu	t4, 0x0(t1)
   122b4: 83 4a 13 00  	lbu	s5, 0x1(t1)
   122b8: 03 43 23 00  	lbu	t1, 0x2(t1)
   122bc: b3 86 dd 40  	sub	a3, s11, a3
   122c0: b3 8e dd 41  	sub	t4, s11, t4
   122c4: b3 8a 5d 41  	sub	s5, s11, s5
   122c8: 33 83 6d 40  	sub	t1, s11, t1
   122cc: 83 c6 06 00  	lbu	a3, 0x0(a3)
   122d0: 83 ce 0e 00  	lbu	t4, 0x0(t4)
   122d4: 83 ca 0a 00  	lbu	s5, 0x0(s5)
   122d8: 03 43 03 00  	lbu	t1, 0x0(t1)
   122dc: b3 86 d8 00  	add	a3, a7, a3
   122e0: b3 86 d6 01  	add	a3, a3, t4
   122e4: b3 86 56 01  	add	a3, a3, s5
   122e8: b3 86 66 00  	add	a3, a3, t1
   122ec: b3 85 d5 00  	add	a1, a1, a3
   122f0: 9b 8d 45 06  	addiw	s11, a1, 0x64
   122f4: 83 35 01 13  	ld	a1, 0x130(sp)
   122f8: 63 c8 b5 01  	blt	a1, s11, 0x12308 <susan_edges+0x3a4>
   122fc: 83 35 01 13  	ld	a1, 0x130(sp)
   12300: bb 85 b5 41  	subw	a1, a1, s11
   12304: 23 a0 bc 00  	sw	a1, 0x0(s9)
   12308: 13 0c 1c 00  	addi	s8, s8, 0x1
   1230c: 93 8c 4c 00  	addi	s9, s9, 0x4
   12310: e3 1c 8e d7  	bne	t3, s8, 0x12088 <susan_edges+0x124>
   12314: 93 89 19 00  	addi	s3, s3, 0x1
   12318: 83 3a 01 0b  	ld	s5, 0xb0(sp)
   1231c: b3 82 52 01  	add	t0, t0, s5
   12320: b3 8b 5b 01  	add	s7, s7, s5
   12324: 33 06 56 01  	add	a2, a2, s5
   12328: 33 0f 5f 01  	add	t5, t5, s5
   1232c: b3 8f 5f 01  	add	t6, t6, s5
   12330: 33 04 54 01  	add	s0, s0, s5
   12334: b3 84 54 01  	add	s1, s1, s5
   12338: 33 09 59 01  	add	s2, s2, s5
   1233c: e3 98 f9 d2  	bne	s3, a5, 0x1206c <susan_edges+0x108>
   12340: 93 05 90 00  	li	a1, 0x9
   12344: 03 36 01 12  	ld	a2, 0x120(sp)
   12348: e3 4e bb 3e  	blt	s6, a1, 0x12f44 <susan_edges+0xfe0>
   1234c: 1b 0b cb ff  	addiw	s6, s6, -0x4
   12350: 23 3c 61 01  	sd	s6, 0x18(sp)
   12354: 13 87 ca ff  	addi	a4, s5, -0x4
   12358: 13 17 07 02  	slli	a4, a4, 0x20
   1235c: 13 57 07 02  	srli	a4, a4, 0x20
   12360: 93 05 46 00  	addi	a1, a2, 0x4
   12364: 23 38 b1 00  	sd	a1, 0x10(sp)
   12368: 93 95 2a 00  	slli	a1, s5, 0x2
   1236c: 23 38 b1 02  	sd	a1, 0x30(sp)
   12370: 93 05 4a 00  	addi	a1, s4, 0x4
   12374: 23 34 b1 00  	sd	a1, 0x8(sp)
   12378: 83 35 01 10  	ld	a1, 0x100(sp)
   1237c: 93 85 05 01  	addi	a1, a1, 0x10
   12380: 23 30 b1 00  	sd	a1, 0x0(sp)
   12384: 13 07 c7 ff  	addi	a4, a4, -0x4
   12388: 23 38 e1 0e  	sd	a4, 0xf0(sp)
   1238c: 83 36 81 10  	ld	a3, 0x108(sp)
   12390: 03 33 81 0e  	ld	t1, 0xe8(sp)
   12394: 33 03 d3 00  	add	t1, t1, a3
   12398: 83 38 81 0f  	ld	a7, 0xf8(sp)
   1239c: b3 08 13 01  	add	a7, t1, a7
   123a0: 33 87 4a 01  	add	a4, s5, s4
   123a4: 33 87 e8 00  	add	a4, a7, a4
   123a8: 13 07 f7 01  	addi	a4, a4, 0x1f
   123ac: 23 34 e1 0a  	sd	a4, 0xa8(sp)
   123b0: b3 05 5a 01  	add	a1, s4, s5
   123b4: 23 30 b1 0a  	sd	a1, 0xa0(sp)
   123b8: 33 86 aa 00  	add	a2, s5, a0
   123bc: 33 03 66 00  	add	t1, a2, t1
   123c0: 33 03 43 01  	add	t1, t1, s4
   123c4: 13 03 b3 01  	addi	t1, t1, 0x1b
   123c8: 23 3c 61 08  	sd	t1, 0x98(sp)
   123cc: 33 05 ca 00  	add	a0, s4, a2
   123d0: 23 38 a1 08  	sd	a0, 0x90(sp)
   123d4: 83 35 01 11  	ld	a1, 0x110(sp)
   123d8: b3 05 b6 00  	add	a1, a2, a1
   123dc: 33 05 ba 00  	add	a0, s4, a1
   123e0: 23 34 a1 08  	sd	a0, 0x88(sp)
   123e4: 03 35 81 11  	ld	a0, 0x118(sp)
   123e8: 33 05 45 01  	add	a0, a0, s4
   123ec: 33 85 a5 00  	add	a0, a1, a0
   123f0: 13 05 05 01  	addi	a0, a0, 0x10
   123f4: 23 30 a1 08  	sd	a0, 0x80(sp)
   123f8: b3 86 46 01  	add	a3, a3, s4
   123fc: b3 85 d5 00  	add	a1, a1, a3
   12400: 93 85 55 01  	addi	a1, a1, 0x15
   12404: 23 3c b1 06  	sd	a1, 0x78(sp)
   12408: 93 09 40 00  	li	s3, 0x4
   1240c: 07 b4 81 1e  	fld	fs0, 0x1e8(gp)
   12410: 87 a4 01 1f  	flw	fs1, 0x1f0(gp)
   12414: 53 09 00 f0  	fmv.w.x	fs2, zero
   12418: 37 05 00 3f  	lui	a0, 0x3f000
   1241c: d3 09 05 f0  	fmv.w.x	fs3, a0
   12420: 37 05 00 40  	lui	a0, 0x40000
   12424: 53 0a 05 f0  	fmv.w.x	fs4, a0
   12428: 93 05 40 00  	li	a1, 0x4
   1242c: 23 34 b1 02  	sd	a1, 0x28(sp)
   12430: 13 05 90 00  	li	a0, 0x9
   12434: e3 ce aa 28  	blt	s5, a0, 0x12ed0 <susan_edges+0xf6c>
   12438: 13 04 00 00  	li	s0, 0x0
   1243c: 03 35 01 03  	ld	a0, 0x30(sp)
   12440: 13 15 05 02  	slli	a0, a0, 0x20
   12444: 93 55 05 02  	srli	a1, a0, 0x20
   12448: 03 36 01 01  	ld	a2, 0x10(sp)
   1244c: 33 06 b6 00  	add	a2, a2, a1
   12450: 23 30 c1 02  	sd	a2, 0x20(sp)
   12454: 03 36 81 00  	ld	a2, 0x8(sp)
   12458: b3 05 b6 00  	add	a1, a2, a1
   1245c: 23 34 b1 06  	sd	a1, 0x68(sp)
   12460: 13 55 e5 01  	srli	a0, a0, 0x1e
   12464: 83 35 01 00  	ld	a1, 0x0(sp)
   12468: 33 8a a5 00  	add	s4, a1, a0
   1246c: 13 0b 40 00  	li	s6, 0x4
   12470: 23 38 31 07  	sd	s3, 0x70(sp)
   12474: 83 25 0a 00  	lw	a1, 0x0(s4)
   12478: e3 5a b0 22  	blez	a1, 0x12eac <susan_edges+0xf48>
   1247c: 23 3c 61 11  	sd	s6, 0x118(sp)
   12480: 23 30 41 13  	sd	s4, 0x120(sp)
   12484: 03 35 81 06  	ld	a0, 0x68(sp)
   12488: 33 05 85 00  	add	a0, a0, s0
   1248c: 03 49 05 00  	lbu	s2, 0x0(a0)
   12490: 03 35 01 13  	ld	a0, 0x130(sp)
   12494: 23 38 b1 10  	sd	a1, 0x110(sp)
   12498: 3b 06 b5 40  	subw	a2, a0, a1
   1249c: 03 35 81 12  	ld	a0, 0x128(sp)
   124a0: 33 09 25 01  	add	s2, a0, s2
   124a4: 03 35 01 0a  	ld	a0, 0xa0(sp)
   124a8: b3 06 85 00  	add	a3, a0, s0
   124ac: 83 3c 01 09  	ld	s9, 0x90(sp)
   124b0: b3 8c 8c 00  	add	s9, s9, s0
   124b4: 83 3d 81 08  	ld	s11, 0x88(sp)
   124b8: b3 8d 8d 00  	add	s11, s11, s0
   124bc: 03 35 01 08  	ld	a0, 0x80(sp)
   124c0: 33 05 85 00  	add	a0, a0, s0
   124c4: 23 34 a1 10  	sd	a0, 0x108(sp)
   124c8: 03 3d 81 07  	ld	s10, 0x78(sp)
   124cc: 33 0d 8d 00  	add	s10, s10, s0
   124d0: 83 39 81 09  	ld	s3, 0x98(sp)
   124d4: 33 8f 89 00  	add	t5, s3, s0
   124d8: 03 35 81 0a  	ld	a0, 0xa8(sp)
   124dc: b3 05 85 00  	add	a1, a0, s0
   124e0: 13 05 90 25  	li	a0, 0x259
   124e4: 63 46 a6 3c  	blt	a2, a0, 0x128b0 <susan_edges+0x94c>
   124e8: 23 30 c1 0e  	sd	a2, 0xe0(sp)
   124ec: 03 c5 36 00  	lbu	a0, 0x3(a3)
   124f0: 13 87 05 00  	mv	a4, a1
   124f4: 83 c5 46 00  	lbu	a1, 0x4(a3)
   124f8: 33 05 a9 40  	sub	a0, s2, a0
   124fc: 83 47 05 00  	lbu	a5, 0x0(a0)
   12500: 23 3c f1 0e  	sd	a5, 0xf8(sp)
   12504: 33 05 b9 40  	sub	a0, s2, a1
   12508: 03 45 05 00  	lbu	a0, 0x0(a0)
   1250c: 23 34 d1 0e  	sd	a3, 0xe8(sp)
   12510: 83 c5 56 00  	lbu	a1, 0x5(a3)
   12514: 03 c6 5c 00  	lbu	a2, 0x5(s9)
   12518: 33 05 f5 00  	add	a0, a0, a5
   1251c: 23 3c a1 0c  	sd	a0, 0xd8(sp)
   12520: 33 05 b9 40  	sub	a0, s2, a1
   12524: 83 c5 6c 00  	lbu	a1, 0x6(s9)
   12528: 33 06 c9 40  	sub	a2, s2, a2
   1252c: 83 42 06 00  	lbu	t0, 0x0(a2)
   12530: 03 c6 7c 00  	lbu	a2, 0x7(s9)
   12534: b3 05 b9 40  	sub	a1, s2, a1
   12538: 83 c6 8c 00  	lbu	a3, 0x8(s9)
   1253c: 83 ce 05 00  	lbu	t4, 0x0(a1)
   12540: b3 05 c9 40  	sub	a1, s2, a2
   12544: 83 c5 05 00  	lbu	a1, 0x0(a1)
   12548: 33 06 d9 40  	sub	a2, s2, a3
   1254c: 03 4e 06 00  	lbu	t3, 0x0(a2)
   12550: 03 45 05 00  	lbu	a0, 0x0(a0)
   12554: 23 34 a1 0c  	sd	a0, 0xc8(sp)
   12558: 33 85 5e 00  	add	a0, t4, t0
   1255c: 03 c6 9c 00  	lbu	a2, 0x9(s9)
   12560: b3 85 c5 01  	add	a1, a1, t3
   12564: 33 05 b5 00  	add	a0, a0, a1
   12568: 23 38 a1 0c  	sd	a0, 0xd0(sp)
   1256c: 03 c5 9d 00  	lbu	a0, 0x9(s11)
   12570: b3 05 c9 40  	sub	a1, s2, a2
   12574: 03 c3 05 00  	lbu	t1, 0x0(a1)
   12578: 83 c5 ad 00  	lbu	a1, 0xa(s11)
   1257c: 33 05 a9 40  	sub	a0, s2, a0
   12580: 83 46 05 00  	lbu	a3, 0x0(a0)
   12584: 23 38 d1 04  	sd	a3, 0x50(sp)
   12588: 03 c5 bd 00  	lbu	a0, 0xb(s11)
   1258c: b3 05 b9 40  	sub	a1, s2, a1
   12590: 83 c5 05 00  	lbu	a1, 0x0(a1)
   12594: 23 30 b1 06  	sd	a1, 0x60(sp)
   12598: 83 c5 dd 00  	lbu	a1, 0xd(s11)
   1259c: 33 05 a9 40  	sub	a0, s2, a0
   125a0: 03 45 05 00  	lbu	a0, 0x0(a0)
   125a4: 23 30 a1 0c  	sd	a0, 0xc0(sp)
   125a8: 03 c5 ed 00  	lbu	a0, 0xe(s11)
   125ac: b3 05 b9 40  	sub	a1, s2, a1
   125b0: 83 c5 05 00  	lbu	a1, 0x0(a1)
   125b4: 23 3c b1 0a  	sd	a1, 0xb8(sp)
   125b8: 83 c5 fd 00  	lbu	a1, 0xf(s11)
   125bc: 33 05 a9 40  	sub	a0, s2, a0
   125c0: 83 43 05 00  	lbu	t2, 0x0(a0)
   125c4: 83 34 81 10  	ld	s1, 0x108(sp)
   125c8: 03 c5 f4 ff  	lbu	a0, -0x1(s1)
   125cc: b3 05 b9 40  	sub	a1, s2, a1
   125d0: 03 c8 05 00  	lbu	a6, 0x0(a1)
   125d4: 23 3c 01 05  	sd	a6, 0x58(sp)
   125d8: 83 c5 04 00  	lbu	a1, 0x0(s1)
   125dc: 33 05 a9 40  	sub	a0, s2, a0
   125e0: 03 46 05 00  	lbu	a2, 0x0(a0)
   125e4: 83 cf 14 00  	lbu	t6, 0x1(s1)
   125e8: b3 05 b9 40  	sub	a1, s2, a1
   125ec: 83 c8 05 00  	lbu	a7, 0x0(a1)
   125f0: 03 ca 34 00  	lbu	s4, 0x3(s1)
   125f4: b3 0f f9 41  	sub	t6, s2, t6
   125f8: 83 ca 0f 00  	lbu	s5, 0x0(t6)
   125fc: 83 cf 44 00  	lbu	t6, 0x4(s1)
   12600: 33 0a 49 41  	sub	s4, s2, s4
   12604: 83 40 0a 00  	lbu	ra, 0x0(s4)
   12608: 03 ca 54 00  	lbu	s4, 0x5(s1)
   1260c: b3 0f f9 41  	sub	t6, s2, t6
   12610: 83 cb 0f 00  	lbu	s7, 0x0(t6)
   12614: 83 4f 0d 00  	lbu	t6, 0x0(s10)
   12618: 33 0a 49 41  	sub	s4, s2, s4
   1261c: 03 4c 0a 00  	lbu	s8, 0x0(s4)
   12620: 03 45 1d 00  	lbu	a0, 0x1(s10)
   12624: b3 0f f9 41  	sub	t6, s2, t6
   12628: 03 4b 6d 00  	lbu	s6, 0x6(s10)
   1262c: 03 ca 0f 00  	lbu	s4, 0x0(t6)
   12630: 33 05 a9 40  	sub	a0, s2, a0
   12634: 83 45 2d 00  	lbu	a1, 0x2(s10)
   12638: b3 0f 69 41  	sub	t6, s2, s6
   1263c: 83 cf 0f 00  	lbu	t6, 0x0(t6)
   12640: 33 86 c6 00  	add	a2, a3, a2
   12644: 33 0c 88 01  	add	s8, a6, s8
   12648: 33 06 46 01  	add	a2, a2, s4
   1264c: 33 0c fc 01  	add	s8, s8, t6
   12650: 3b 06 cc 40  	subw	a2, s8, a2
   12654: 13 1b 16 00  	slli	s6, a2, 0x1
   12658: 33 06 cb 00  	add	a2, s6, a2
   1265c: 93 09 0f 00  	mv	s3, t5
   12660: 13 08 03 00  	mv	a6, t1
   12664: 33 0b 73 00  	add	s6, t1, t2
   12668: 33 0b 7b 01  	add	s6, s6, s7
   1266c: 83 4b 4d 00  	lbu	s7, 0x4(s10)
   12670: 03 43 05 00  	lbu	t1, 0x0(a0)
   12674: b3 05 b9 40  	sub	a1, s2, a1
   12678: 03 cc 05 00  	lbu	s8, 0x0(a1)
   1267c: b3 05 79 41  	sub	a1, s2, s7
   12680: 83 37 01 06  	ld	a5, 0x60(sp)
   12684: 33 8f f2 00  	add	t5, t0, a5
   12688: b3 86 68 00  	add	a3, a7, t1
   1268c: b3 06 df 00  	add	a3, t5, a3
   12690: 03 cf 09 00  	lbu	t5, 0x0(s3)
   12694: 83 c5 05 00  	lbu	a1, 0x0(a1)
   12698: bb 06 db 40  	subw	a3, s6, a3
   1269c: 03 4b 5d 00  	lbu	s6, 0x5(s10)
   126a0: 33 0f e9 41  	sub	t5, s2, t5
   126a4: 03 4f 0f 00  	lbu	t5, 0x0(t5)
   126a8: 83 3b 81 0f  	ld	s7, 0xf8(sp)
   126ac: b3 8b db 01  	add	s7, s7, t4
   126b0: 83 c4 19 00  	lbu	s1, 0x1(s3)
   126b4: b3 02 69 41  	sub	t0, s2, s6
   126b8: 83 ce 02 00  	lbu	t4, 0x0(t0)
   126bc: 93 12 1f 00  	slli	t0, t5, 0x1
   126c0: 33 0f 99 40  	sub	t5, s2, s1
   126c4: 03 4f 0f 00  	lbu	t5, 0x0(t5)
   126c8: 03 35 01 0c  	ld	a0, 0xc0(sp)
   126cc: b3 0a 55 01  	add	s5, a0, s5
   126d0: b3 8a 5b 01  	add	s5, s7, s5
   126d4: 83 c4 49 00  	lbu	s1, 0x4(s3)
   126d8: 83 38 81 0c  	ld	a7, 0xc8(sp)
   126dc: 33 8e c8 01  	add	t3, a7, t3
   126e0: 83 3b 81 0b  	ld	s7, 0xb8(sp)
   126e4: b3 80 1b 00  	add	ra, s7, ra
   126e8: 33 0e 1e 00  	add	t3, t3, ra
   126ec: 33 0b 5c 00  	add	s6, s8, t0
   126f0: b3 8a 6a 01  	add	s5, s5, s6
   126f4: 03 cb 39 00  	lbu	s6, 0x3(s3)
   126f8: b3 04 99 40  	sub	s1, s2, s1
   126fc: 83 c4 04 00  	lbu	s1, 0x0(s1)
   12700: 33 0e be 00  	add	t3, t3, a1
   12704: b3 8a ea 01  	add	s5, s5, t5
   12708: 3b 0e 5e 41  	subw	t3, t3, s5
   1270c: 83 4a 07 00  	lbu	s5, 0x0(a4)
   12710: 33 0b 69 41  	sub	s6, s2, s6
   12714: 03 4b 0b 00  	lbu	s6, 0x0(s6)
   12718: 93 94 14 00  	slli	s1, s1, 0x1
   1271c: b3 0a 59 41  	sub	s5, s2, s5
   12720: 83 ca 0a 00  	lbu	s5, 0x0(s5)
   12724: 33 06 ce 00  	add	a2, t3, a2
   12728: 03 4e 17 00  	lbu	t3, 0x1(a4)
   1272c: b3 86 d6 01  	add	a3, a3, t4
   12730: 93 96 16 00  	slli	a3, a3, 0x1
   12734: b3 86 66 01  	add	a3, a3, s6
   12738: 33 06 d6 00  	add	a2, a2, a3
   1273c: 23 3c e1 0e  	sd	a4, 0xf8(sp)
   12740: 83 46 27 00  	lbu	a3, 0x2(a4)
   12744: 3b 06 96 00  	addw	a2, a2, s1
   12748: b3 00 56 41  	sub	ra, a2, s5
   1274c: 33 86 1a 41  	sub	a2, s5, a7
   12750: 23 34 31 0d  	sd	s3, 0xc8(sp)
   12754: 03 c7 29 00  	lbu	a4, 0x2(s3)
   12758: 33 0e c9 41  	sub	t3, s2, t3
   1275c: 03 4e 0e 00  	lbu	t3, 0x0(t3)
   12760: b3 06 d9 40  	sub	a3, s2, a3
   12764: 83 c9 06 00  	lbu	s3, 0x0(a3)
   12768: 83 36 81 0d  	ld	a3, 0xd8(sp)
   1276c: 33 06 d6 40  	sub	a2, a2, a3
   12770: 83 c6 cd 00  	lbu	a3, 0xc(s11)
   12774: 33 07 e9 40  	sub	a4, s2, a4
   12778: 03 47 07 00  	lbu	a4, 0x0(a4)
   1277c: 33 0e 3e 01  	add	t3, t3, s3
   12780: 33 06 c6 01  	add	a2, a2, t3
   12784: 1b 1e 16 00  	slliw	t3, a2, 0x1
   12788: 33 0e ce 00  	add	t3, t3, a2
   1278c: 3b 06 0f 41  	subw	a2, t5, a6
   12790: 33 06 e6 00  	add	a2, a2, a4
   12794: b3 06 d9 40  	sub	a3, s2, a3
   12798: 83 c6 06 00  	lbu	a3, 0x0(a3)
   1279c: 03 37 01 0d  	ld	a4, 0xd0(sp)
   127a0: 3b 06 e6 40  	subw	a2, a2, a4
   127a4: 33 06 66 01  	add	a2, a2, s6
   127a8: 03 37 01 05  	ld	a4, 0x50(sp)
   127ac: b3 87 e7 00  	add	a5, a5, a4
   127b0: b3 06 d5 00  	add	a3, a0, a3
   127b4: 03 47 3d 00  	lbu	a4, 0x3(s10)
   127b8: b3 86 d7 00  	add	a3, a5, a3
   127bc: b3 88 7b 00  	add	a7, s7, t2
   127c0: 93 0b 0e 00  	mv	s7, t3
   127c4: 03 35 81 05  	ld	a0, 0x58(sp)
   127c8: b3 88 a8 00  	add	a7, a7, a0
   127cc: 33 07 e9 40  	sub	a4, s2, a4
   127d0: 03 47 07 00  	lbu	a4, 0x0(a4)
   127d4: b3 86 16 01  	add	a3, a3, a7
   127d8: 33 05 6a 00  	add	a0, s4, t1
   127dc: 33 05 85 01  	add	a0, a0, s8
   127e0: 33 05 e5 00  	add	a0, a0, a4
   127e4: 3b 05 d5 40  	subw	a0, a0, a3
   127e8: b3 85 d5 01  	add	a1, a1, t4
   127ec: b3 85 f5 01  	add	a1, a1, t6
   127f0: b3 85 55 00  	add	a1, a1, t0
   127f4: b3 85 95 00  	add	a1, a1, s1
   127f8: 93 84 00 00  	mv	s1, ra
   127fc: bb 05 b5 00  	addw	a1, a0, a1
   12800: 33 85 30 01  	add	a0, ra, s3
   12804: 1b 1c 16 00  	slliw	s8, a2, 0x1
   12808: 33 8c 85 01  	add	s8, a1, s8
   1280c: 33 0a cc 01  	add	s4, s8, t3
   12810: 93 05 05 00  	mv	a1, a0
   12814: ef e0 c0 42  	jal	0x20c40 <__muldi3>
   12818: 93 0a 05 00  	mv	s5, a0
   1281c: 13 05 0a 00  	mv	a0, s4
   12820: 93 05 0a 00  	mv	a1, s4
   12824: ef e0 c0 41  	jal	0x20c40 <__muldi3>
   12828: 33 05 55 01  	add	a0, a0, s5
   1282c: d3 77 05 d0  	fcvt.s.w	fa5, a0
   12830: 53 f5 07 58  	fsqrt.s	fa0, fa5
   12834: 53 25 a5 a0  	feq.s	a0, fa0, fa0
   12838: 63 06 05 68  	beqz	a0, 0x12ec4 <susan_edges+0xf60>
   1283c: d3 07 05 42  	fcvt.d.s	fa5, fa0
   12840: 03 35 01 0e  	ld	a0, 0xe0(sp)
   12844: 53 77 05 d0  	fcvt.s.w	fa4, a0
   12848: 53 07 07 42  	fcvt.d.s	fa4, fa4
   1284c: 53 77 87 12  	fmul.d	fa4, fa4, fs0
   12850: 53 15 f7 a2  	flt.d	a0, fa4, fa5
   12854: 83 35 81 0f  	ld	a1, 0xf8(sp)
   12858: 83 36 81 0e  	ld	a3, 0xe8(sp)
   1285c: 03 3f 81 0c  	ld	t5, 0xc8(sp)
   12860: 63 08 05 04  	beqz	a0, 0x128b0 <susan_edges+0x94c>
   12864: 3b 85 34 01  	addw	a0, s1, s3
   12868: d3 87 94 20  	fmv.s	fa5, fs1
   1286c: 83 3a 01 0b  	ld	s5, 0xb0(sp)
   12870: 03 3a 01 12  	ld	s4, 0x120(sp)
   12874: 03 3b 81 11  	ld	s6, 0x118(sp)
   12878: 63 0a 05 00  	beqz	a0, 0x1288c <susan_edges+0x928>
   1287c: 33 0c 7c 01  	add	s8, s8, s7
   12880: d3 77 0c d0  	fcvt.s.w	fa5, s8
   12884: 53 77 05 d0  	fcvt.s.w	fa4, a0
   12888: d3 f7 e7 18  	fdiv.s	fa5, fa5, fa4
   1288c: 53 95 27 a1  	flt.s	a0, fa5, fs2
   12890: 83 39 01 07  	ld	s3, 0x70(sp)
   12894: 63 04 05 00  	beqz	a0, 0x1289c <susan_edges+0x938>
   12898: d3 97 f7 20  	fneg.s	fa5, fa5
   1289c: 83 3b 01 11  	ld	s7, 0x110(sp)
   128a0: d3 95 37 a1  	flt.s	a1, fa5, fs3
   128a4: 63 82 05 48  	beqz	a1, 0x12d28 <susan_edges+0xdc4>
   128a8: 93 04 00 00  	li	s1, 0x0
   128ac: 6f 00 40 54  	j	0x12df0 <susan_edges+0xe8c>
   128b0: 03 c5 36 00  	lbu	a0, 0x3(a3)
   128b4: 03 c6 46 00  	lbu	a2, 0x4(a3)
   128b8: 33 05 a9 40  	sub	a0, s2, a0
   128bc: 83 4a 05 00  	lbu	s5, 0x0(a0)
   128c0: 03 c5 5c 00  	lbu	a0, 0x5(s9)
   128c4: 33 06 c9 40  	sub	a2, s2, a2
   128c8: 83 c6 56 00  	lbu	a3, 0x5(a3)
   128cc: 03 46 06 00  	lbu	a2, 0x0(a2)
   128d0: 23 34 c1 0e  	sd	a2, 0xe8(sp)
   128d4: 33 05 a9 40  	sub	a0, s2, a0
   128d8: 03 45 05 00  	lbu	a0, 0x0(a0)
   128dc: 33 06 d9 40  	sub	a2, s2, a3
   128e0: 03 c7 6c 00  	lbu	a4, 0x6(s9)
   128e4: 83 48 06 00  	lbu	a7, 0x0(a2)
   128e8: 93 16 25 00  	slli	a3, a0, 0x2
   128ec: 03 c5 7c 00  	lbu	a0, 0x7(s9)
   128f0: 33 06 e9 40  	sub	a2, s2, a4
   128f4: 83 43 06 00  	lbu	t2, 0x0(a2)
   128f8: 03 c7 9c 00  	lbu	a4, 0x9(s9)
   128fc: 33 05 a9 40  	sub	a0, s2, a0
   12900: 83 c7 8c 00  	lbu	a5, 0x8(s9)
   12904: 83 4c 05 00  	lbu	s9, 0x0(a0)
   12908: 33 05 e9 40  	sub	a0, s2, a4
   1290c: 03 47 05 00  	lbu	a4, 0x0(a0)
   12910: 33 05 f9 40  	sub	a0, s2, a5
   12914: 03 c8 9d 00  	lbu	a6, 0x9(s11)
   12918: 83 42 05 00  	lbu	t0, 0x0(a0)
   1291c: 13 17 27 00  	slli	a4, a4, 0x2
   12920: 03 c5 ad 00  	lbu	a0, 0xa(s11)
   12924: 33 08 09 41  	sub	a6, s2, a6
   12928: 03 46 08 00  	lbu	a2, 0x0(a6)
   1292c: 23 3c c1 0e  	sd	a2, 0xf8(sp)
   12930: 03 c8 bd 00  	lbu	a6, 0xb(s11)
   12934: 33 05 a9 40  	sub	a0, s2, a0
   12938: 83 49 05 00  	lbu	s3, 0x0(a0)
   1293c: 03 c5 cd 00  	lbu	a0, 0xc(s11)
   12940: 33 08 09 41  	sub	a6, s2, a6
   12944: 83 4f 08 00  	lbu	t6, 0x0(a6)
   12948: 03 c3 dd 00  	lbu	t1, 0xd(s11)
   1294c: 33 05 a9 40  	sub	a0, s2, a0
   12950: 03 45 05 00  	lbu	a0, 0x0(a0)
   12954: 23 30 a1 0e  	sd	a0, 0xe0(sp)
   12958: 03 c5 ed 00  	lbu	a0, 0xe(s11)
   1295c: 33 03 69 40  	sub	t1, s2, t1
   12960: 83 40 03 00  	lbu	ra, 0x0(t1)
   12964: 03 ce fd 00  	lbu	t3, 0xf(s11)
   12968: 33 05 a9 40  	sub	a0, s2, a0
   1296c: 03 43 05 00  	lbu	t1, 0x0(a0)
   12970: 03 45 0d 00  	lbu	a0, 0x0(s10)
   12974: 33 0e c9 41  	sub	t3, s2, t3
   12978: 83 4e 0e 00  	lbu	t4, 0x0(t3)
   1297c: 03 4e 1d 00  	lbu	t3, 0x1(s10)
   12980: 33 05 a9 40  	sub	a0, s2, a0
   12984: 83 47 05 00  	lbu	a5, 0x0(a0)
   12988: 03 45 2d 00  	lbu	a0, 0x2(s10)
   1298c: 33 0e c9 41  	sub	t3, s2, t3
   12990: 03 46 0e 00  	lbu	a2, 0x0(t3)
   12994: 83 44 3d 00  	lbu	s1, 0x3(s10)
   12998: 33 05 a9 40  	sub	a0, s2, a0
   1299c: 03 4e 05 00  	lbu	t3, 0x0(a0)
   129a0: 03 45 1f 00  	lbu	a0, 0x1(t5)
   129a4: 33 0b 99 40  	sub	s6, s2, s1
   129a8: 93 04 06 00  	mv	s1, a2
   129ac: 83 4b 4d 00  	lbu	s7, 0x4(s10)
   129b0: 03 4a 2f 00  	lbu	s4, 0x2(t5)
   129b4: 33 05 a9 40  	sub	a0, s2, a0
   129b8: 03 4c 3f 00  	lbu	s8, 0x3(t5)
   129bc: 83 4d 05 00  	lbu	s11, 0x0(a0)
   129c0: 33 05 49 41  	sub	a0, s2, s4
   129c4: 03 45 05 00  	lbu	a0, 0x0(a0)
   129c8: 33 0a 89 41  	sub	s4, s2, s8
   129cc: 03 4a 0a 00  	lbu	s4, 0x0(s4)
   129d0: 03 cc 05 00  	lbu	s8, 0x0(a1)
   129d4: 23 38 71 0c  	sd	t2, 0xd0(sp)
   129d8: b3 8c 7c 00  	add	s9, s9, t2
   129dc: 23 34 51 0c  	sd	t0, 0xc8(sp)
   129e0: 23 30 b1 0d  	sd	s11, 0xc0(sp)
   129e4: b3 8d b2 01  	add	s11, t0, s11
   129e8: b3 8c bc 01  	add	s9, s9, s11
   129ec: 83 cd 15 00  	lbu	s11, 0x1(a1)
   129f0: 33 0c 89 41  	sub	s8, s2, s8
   129f4: 83 c5 25 00  	lbu	a1, 0x2(a1)
   129f8: 03 48 0c 00  	lbu	a6, 0x0(s8)
   129fc: b3 0d b9 41  	sub	s11, s2, s11
   12a00: 03 c6 0d 00  	lbu	a2, 0x0(s11)
   12a04: b3 05 b9 40  	sub	a1, s2, a1
   12a08: 83 cd 05 00  	lbu	s11, 0x0(a1)
   12a0c: 33 05 45 01  	add	a0, a0, s4
   12a10: b3 8c ac 00  	add	s9, s9, a0
   12a14: 23 3c 51 0d  	sd	s5, 0xd8(sp)
   12a18: 03 35 81 0e  	ld	a0, 0xe8(sp)
   12a1c: b3 0a 55 01  	add	s5, a0, s5
   12a20: 93 82 08 00  	mv	t0, a7
   12a24: 23 3c 01 0b  	sd	a6, 0xb8(sp)
   12a28: 33 85 08 01  	add	a0, a7, a6
   12a2c: 33 85 aa 00  	add	a0, s5, a0
   12a30: 33 06 b6 01  	add	a2, a2, s11
   12a34: 33 05 c5 00  	add	a0, a0, a2
   12a38: 93 15 35 00  	slli	a1, a0, 0x3
   12a3c: b3 85 a5 00  	add	a1, a1, a0
   12a40: 23 34 d1 0e  	sd	a3, 0xe8(sp)
   12a44: 93 08 07 00  	mv	a7, a4
   12a48: 33 05 d7 00  	add	a0, a4, a3
   12a4c: 03 37 81 0f  	ld	a4, 0xf8(sp)
   12a50: 13 88 09 00  	mv	a6, s3
   12a54: 33 06 37 01  	add	a2, a4, s3
   12a58: 33 06 f6 01  	add	a2, a2, t6
   12a5c: 33 05 c5 00  	add	a0, a0, a2
   12a60: 03 46 5d 00  	lbu	a2, 0x5(s10)
   12a64: 03 4b 0b 00  	lbu	s6, 0x0(s6)
   12a68: b3 0a 79 41  	sub	s5, s2, s7
   12a6c: 83 ca 0a 00  	lbu	s5, 0x0(s5)
   12a70: 33 06 c9 40  	sub	a2, s2, a2
   12a74: 13 8c 00 00  	mv	s8, ra
   12a78: 83 33 01 0e  	ld	t2, 0xe0(sp)
   12a7c: b3 80 13 00  	add	ra, t2, ra
   12a80: b3 80 60 00  	add	ra, ra, t1
   12a84: 23 30 d1 0f  	sd	t4, 0xe0(sp)
   12a88: b3 80 d0 01  	add	ra, ra, t4
   12a8c: b3 0b 15 00  	add	s7, a0, ra
   12a90: 93 83 07 00  	mv	t2, a5
   12a94: 33 85 97 00  	add	a0, a5, s1
   12a98: 33 05 c5 01  	add	a0, a0, t3
   12a9c: 33 0b 65 01  	add	s6, a0, s6
   12aa0: 03 45 0f 00  	lbu	a0, 0x0(t5)
   12aa4: 83 4e 06 00  	lbu	t4, 0x0(a2)
   12aa8: 03 46 4f 00  	lbu	a2, 0x4(t5)
   12aac: 83 49 6d 00  	lbu	s3, 0x6(s10)
   12ab0: 33 05 a9 40  	sub	a0, s2, a0
   12ab4: 03 4d 05 00  	lbu	s10, 0x0(a0)
   12ab8: 33 05 c9 40  	sub	a0, s2, a2
   12abc: 03 46 05 00  	lbu	a2, 0x0(a0)
   12ac0: 33 05 39 41  	sub	a0, s2, s3
   12ac4: 03 45 05 00  	lbu	a0, 0x0(a0)
   12ac8: 13 1d 2d 00  	slli	s10, s10, 0x2
   12acc: 93 17 26 00  	slli	a5, a2, 0x2
   12ad0: 93 9c 2c 00  	slli	s9, s9, 0x2
   12ad4: 33 0b 5b 01  	add	s6, s6, s5
   12ad8: 33 8b 6b 01  	add	s6, s7, s6
   12adc: 33 86 ae 00  	add	a2, t4, a0
   12ae0: 33 06 a6 01  	add	a2, a2, s10
   12ae4: 33 06 f6 00  	add	a2, a2, a5
   12ae8: 33 06 96 01  	add	a2, a2, s9
   12aec: 33 06 cb 00  	add	a2, s6, a2
   12af0: bb 0b b6 00  	addw	s7, a2, a1
   12af4: 63 84 0b 14  	beqz	s7, 0x12c3c <susan_edges+0xcd8>
   12af8: 93 86 0f 00  	mv	a3, t6
   12afc: 23 30 41 07  	sd	s4, 0x60(sp)
   12b00: 13 0a 0e 00  	mv	s4, t3
   12b04: 13 0e 07 00  	mv	t3, a4
   12b08: 03 37 81 10  	ld	a4, 0x108(sp)
   12b0c: 83 45 f7 ff  	lbu	a1, -0x1(a4)
   12b10: 03 46 07 00  	lbu	a2, 0x0(a4)
   12b14: b3 05 b9 40  	sub	a1, s2, a1
   12b18: 33 06 c9 40  	sub	a2, s2, a2
   12b1c: 03 4b 17 00  	lbu	s6, 0x1(a4)
   12b20: 03 46 06 00  	lbu	a2, 0x0(a2)
   12b24: 83 4c 37 00  	lbu	s9, 0x3(a4)
   12b28: 83 30 81 0c  	ld	ra, 0xc8(sp)
   12b2c: 93 89 08 00  	mv	s3, a7
   12b30: 93 88 02 00  	mv	a7, t0
   12b34: 83 46 47 00  	lbu	a3, 0x4(a4)
   12b38: 33 0b 69 41  	sub	s6, s2, s6
   12b3c: 03 47 57 00  	lbu	a4, 0x5(a4)
   12b40: b3 0c 99 41  	sub	s9, s2, s9
   12b44: b3 06 d9 40  	sub	a3, s2, a3
   12b48: 83 c6 06 00  	lbu	a3, 0x0(a3)
   12b4c: 33 07 e9 40  	sub	a4, s2, a4
   12b50: 23 34 01 11  	sd	a6, 0x108(sp)
   12b54: 23 3c 61 04  	sd	t1, 0x58(sp)
   12b58: 33 09 03 01  	add	s2, t1, a6
   12b5c: 83 32 81 0d  	ld	t0, 0xd8(sp)
   12b60: 03 38 81 0e  	ld	a6, 0xe8(sp)
   12b64: 23 38 91 04  	sd	s1, 0x50(sp)
   12b68: 23 3c d1 03  	sd	t4, 0x38(sp)
   12b6c: b3 8e d4 01  	add	t4, s1, t4
   12b70: b3 0e d9 01  	add	t4, s2, t4
   12b74: 83 c5 05 00  	lbu	a1, 0x0(a1)
   12b78: 03 47 07 00  	lbu	a4, 0x0(a4)
   12b7c: 33 06 d6 00  	add	a2, a2, a3
   12b80: 33 86 ce 00  	add	a2, t4, a2
   12b84: 03 3f 01 0e  	ld	t5, 0xe0(sp)
   12b88: b3 06 cf 01  	add	a3, t5, t3
   12b8c: 13 0e 0a 00  	mv	t3, s4
   12b90: 13 8a 03 00  	mv	s4, t2
   12b94: b3 8e a3 00  	add	t4, t2, a0
   12b98: b3 86 d6 01  	add	a3, a3, t4
   12b9c: 83 4e 0b 00  	lbu	t4, 0x0(s6)
   12ba0: 03 c9 0c 00  	lbu	s2, 0x0(s9)
   12ba4: b3 85 e5 00  	add	a1, a1, a4
   12ba8: b3 85 b6 00  	add	a1, a3, a1
   12bac: 93 96 35 00  	slli	a3, a1, 0x3
   12bb0: b3 85 b6 00  	add	a1, a3, a1
   12bb4: b3 86 58 00  	add	a3, a7, t0
   12bb8: b3 86 06 01  	add	a3, a3, a6
   12bbc: 83 33 01 0d  	ld	t2, 0xd0(sp)
   12bc0: 33 87 13 00  	add	a4, t2, ra
   12bc4: 33 07 37 01  	add	a4, a4, s3
   12bc8: b3 86 e6 00  	add	a3, a3, a4
   12bcc: 33 87 8f 01  	add	a4, t6, s8
   12bd0: 33 07 c7 01  	add	a4, a4, t3
   12bd4: 33 07 57 01  	add	a4, a4, s5
   12bd8: b3 86 e6 00  	add	a3, a3, a4
   12bdc: 03 3b 01 0c  	ld	s6, 0xc0(sp)
   12be0: 23 30 a1 05  	sd	s10, 0x40(sp)
   12be4: 33 07 6d 01  	add	a4, s10, s6
   12be8: 83 34 01 06  	ld	s1, 0x60(sp)
   12bec: 33 07 97 00  	add	a4, a4, s1
   12bf0: 23 34 f1 04  	sd	a5, 0x48(sp)
   12bf4: 33 07 f7 00  	add	a4, a4, a5
   12bf8: b3 86 e6 00  	add	a3, a3, a4
   12bfc: 83 3c 81 0b  	ld	s9, 0xb8(sp)
   12c00: 33 87 bc 01  	add	a4, s9, s11
   12c04: 33 07 d7 01  	add	a4, a4, t4
   12c08: 33 07 27 01  	add	a4, a4, s2
   12c0c: 13 16 26 00  	slli	a2, a2, 0x2
   12c10: 33 06 c7 00  	add	a2, a4, a2
   12c14: 33 86 c6 00  	add	a2, a3, a2
   12c18: b3 05 b6 00  	add	a1, a2, a1
   12c1c: d3 f7 05 d0  	fcvt.s.w	fa5, a1
   12c20: 53 f7 0b d0  	fcvt.s.w	fa4, s7
   12c24: d3 f7 e7 18  	fdiv.s	fa5, fa5, fa4
   12c28: d3 95 37 a1  	flt.s	a1, fa5, fs3
   12c2c: 63 8e 05 0c  	beqz	a1, 0x12d08 <susan_edges+0xda4>
   12c30: 13 09 00 00  	li	s2, 0x0
   12c34: 93 04 10 00  	li	s1, 0x1
   12c38: 6f 00 c0 00  	j	0x12c44 <susan_edges+0xce0>
   12c3c: 93 04 00 00  	li	s1, 0x0
   12c40: 13 09 10 00  	li	s2, 0x1
   12c44: 03 3b 81 11  	ld	s6, 0x118(sp)
   12c48: 83 3b 01 11  	ld	s7, 0x110(sp)
   12c4c: 83 39 01 07  	ld	s3, 0x70(sp)
   12c50: b3 85 29 01  	add	a1, s3, s2
   12c54: 83 3a 01 0b  	ld	s5, 0xb0(sp)
   12c58: 13 85 0a 00  	mv	a0, s5
   12c5c: ef d0 50 7e  	jal	0x20c40 <__muldi3>
   12c60: b3 05 9b 00  	add	a1, s6, s1
   12c64: 3b 85 a5 00  	addw	a0, a1, a0
   12c68: 13 15 25 00  	slli	a0, a0, 0x2
   12c6c: 83 35 01 10  	ld	a1, 0x100(sp)
   12c70: 33 85 a5 00  	add	a0, a1, a0
   12c74: 03 25 05 00  	lw	a0, 0x0(a0)
   12c78: 03 3a 01 12  	ld	s4, 0x120(sp)
   12c7c: 63 58 75 23  	bge	a0, s7, 0x12eac <susan_edges+0xf48>
   12c80: b3 85 29 41  	sub	a1, s3, s2
   12c84: 13 85 0a 00  	mv	a0, s5
   12c88: ef d0 90 7b  	jal	0x20c40 <__muldi3>
   12c8c: bb 05 9b 40  	subw	a1, s6, s1
   12c90: 3b 85 a5 00  	addw	a0, a1, a0
   12c94: 13 15 25 00  	slli	a0, a0, 0x2
   12c98: 83 35 01 10  	ld	a1, 0x100(sp)
   12c9c: 33 85 a5 00  	add	a0, a1, a0
   12ca0: 03 25 05 00  	lw	a0, 0x0(a0)
   12ca4: 63 c4 ab 20  	blt	s7, a0, 0x12eac <susan_edges+0xf48>
   12ca8: 13 19 19 00  	slli	s2, s2, 0x1
   12cac: 93 94 14 00  	slli	s1, s1, 0x1
   12cb0: b3 85 29 01  	add	a1, s3, s2
   12cb4: 13 85 0a 00  	mv	a0, s5
   12cb8: ef d0 90 78  	jal	0x20c40 <__muldi3>
   12cbc: b3 05 9b 00  	add	a1, s6, s1
   12cc0: 3b 85 a5 00  	addw	a0, a1, a0
   12cc4: 13 15 25 00  	slli	a0, a0, 0x2
   12cc8: 83 35 01 10  	ld	a1, 0x100(sp)
   12ccc: 33 85 a5 00  	add	a0, a1, a0
   12cd0: 03 25 05 00  	lw	a0, 0x0(a0)
   12cd4: 63 5c 75 1d  	bge	a0, s7, 0x12eac <susan_edges+0xf48>
   12cd8: b3 85 29 41  	sub	a1, s3, s2
   12cdc: 13 85 0a 00  	mv	a0, s5
   12ce0: ef d0 10 76  	jal	0x20c40 <__muldi3>
   12ce4: bb 05 9b 40  	subw	a1, s6, s1
   12ce8: 3b 85 a5 00  	addw	a0, a1, a0
   12cec: 13 15 25 00  	slli	a0, a0, 0x2
   12cf0: 83 35 01 10  	ld	a1, 0x100(sp)
   12cf4: 33 85 a5 00  	add	a0, a1, a0
   12cf8: 83 25 05 00  	lw	a1, 0x0(a0)
   12cfc: 13 05 20 00  	li	a0, 0x2
   12d00: 63 d0 bb 1a  	bge	s7, a1, 0x12ea0 <susan_edges+0xf3c>
   12d04: 6f 00 80 1a  	j	0x12eac <susan_edges+0xf48>
   12d08: 93 0e 0b 00  	mv	t4, s6
   12d0c: d3 15 fa a0  	flt.s	a1, fs4, fa5
   12d10: 03 3b 81 11  	ld	s6, 0x118(sp)
   12d14: 83 3b 01 11  	ld	s7, 0x110(sp)
   12d18: 63 82 05 02  	beqz	a1, 0x12d3c <susan_edges+0xdd8>
   12d1c: 93 04 00 00  	li	s1, 0x0
   12d20: 13 09 10 00  	li	s2, 0x1
   12d24: 6f f0 9f f2  	j	0x12c4c <susan_edges+0xce8>
   12d28: d3 15 fa a0  	flt.s	a1, fs4, fa5
   12d2c: 63 8e 05 0a  	beqz	a1, 0x12de8 <susan_edges+0xe84>
   12d30: 13 09 00 00  	li	s2, 0x0
   12d34: 93 04 10 00  	li	s1, 0x1
   12d38: 6f 00 c0 0b  	j	0x12df4 <susan_edges+0xe90>
   12d3c: 13 06 08 00  	mv	a2, a6
   12d40: 93 86 08 00  	mv	a3, a7
   12d44: 13 88 0f 00  	mv	a6, t6
   12d48: 93 0f 0a 00  	mv	t6, s4
   12d4c: 93 88 0c 00  	mv	a7, s9
   12d50: 83 35 81 0f  	ld	a1, 0xf8(sp)
   12d54: b3 82 b2 00  	add	t0, t0, a1
   12d58: 33 8f e6 01  	add	t5, a3, t5
   12d5c: 33 85 a2 00  	add	a0, t0, a0
   12d60: b3 0f 9a 01  	add	t6, s4, s9
   12d64: 33 0f ff 01  	add	t5, t5, t6
   12d68: 3b 05 e5 41  	subw	a0, a0, t5
   12d6c: 33 05 b5 01  	add	a0, a0, s11
   12d70: 93 15 15 00  	slli	a1, a0, 0x1
   12d74: 33 85 a5 00  	add	a0, a1, a0
   12d78: 83 38 81 10  	ld	a7, 0x108(sp)
   12d7c: b3 88 13 01  	add	a7, t2, a7
   12d80: 83 33 81 05  	ld	t2, 0x58(sp)
   12d84: b3 83 70 00  	add	t2, ra, t2
   12d88: 83 35 81 03  	ld	a1, 0x38(sp)
   12d8c: b3 88 b8 00  	add	a7, a7, a1
   12d90: 83 37 01 05  	ld	a5, 0x50(sp)
   12d94: b3 87 d7 01  	add	a5, a5, t4
   12d98: b3 87 f3 00  	add	a5, t2, a5
   12d9c: bb 85 f8 40  	subw	a1, a7, a5
   12da0: b3 85 95 00  	add	a1, a1, s1
   12da4: 93 95 15 00  	slli	a1, a1, 0x1
   12da8: 33 08 06 01  	add	a6, a2, a6
   12dac: 33 83 89 01  	add	t1, s3, s8
   12db0: 33 08 58 01  	add	a6, a6, s5
   12db4: 03 36 01 04  	ld	a2, 0x40(sp)
   12db8: 33 0e ce 00  	add	t3, t3, a2
   12dbc: 33 03 c3 01  	add	t1, t1, t3
   12dc0: 3b 06 68 40  	subw	a2, a6, t1
   12dc4: 83 36 81 04  	ld	a3, 0x48(sp)
   12dc8: 33 06 d6 00  	add	a2, a2, a3
   12dcc: b3 05 b6 00  	add	a1, a2, a1
   12dd0: 3b 85 a5 00  	addw	a0, a1, a0
   12dd4: 33 25 a0 00  	sgtz	a0, a0
   12dd8: 33 05 a0 40  	neg	a0, a0
   12ddc: 13 69 15 00  	ori	s2, a0, 0x1
   12de0: 93 04 10 00  	li	s1, 0x1
   12de4: 6f f0 9f e6  	j	0x12c4c <susan_edges+0xce8>
   12de8: 33 05 a0 40  	neg	a0, a0
   12dec: 93 64 15 00  	ori	s1, a0, 0x1
   12df0: 13 09 10 00  	li	s2, 0x1
   12df4: b3 85 99 00  	add	a1, s3, s1
   12df8: 13 85 0a 00  	mv	a0, s5
   12dfc: ef d0 50 64  	jal	0x20c40 <__muldi3>
   12e00: b3 05 2b 01  	add	a1, s6, s2
   12e04: 3b 85 a5 00  	addw	a0, a1, a0
   12e08: 13 15 25 00  	slli	a0, a0, 0x2
   12e0c: 83 35 01 10  	ld	a1, 0x100(sp)
   12e10: 33 85 a5 00  	add	a0, a1, a0
   12e14: 03 25 05 00  	lw	a0, 0x0(a0)
   12e18: 63 5a 75 09  	bge	a0, s7, 0x12eac <susan_edges+0xf48>
   12e1c: b3 85 99 40  	sub	a1, s3, s1
   12e20: 13 85 0a 00  	mv	a0, s5
   12e24: ef d0 d0 61  	jal	0x20c40 <__muldi3>
   12e28: bb 05 2b 41  	subw	a1, s6, s2
   12e2c: 3b 85 a5 00  	addw	a0, a1, a0
   12e30: 13 15 25 00  	slli	a0, a0, 0x2
   12e34: 83 35 01 10  	ld	a1, 0x100(sp)
   12e38: 33 85 a5 00  	add	a0, a1, a0
   12e3c: 03 25 05 00  	lw	a0, 0x0(a0)
   12e40: 63 c6 ab 06  	blt	s7, a0, 0x12eac <susan_edges+0xf48>
   12e44: 93 94 14 00  	slli	s1, s1, 0x1
   12e48: 13 19 19 00  	slli	s2, s2, 0x1
   12e4c: b3 85 99 00  	add	a1, s3, s1
   12e50: 13 85 0a 00  	mv	a0, s5
   12e54: ef d0 d0 5e  	jal	0x20c40 <__muldi3>
   12e58: b3 05 2b 01  	add	a1, s6, s2
   12e5c: 3b 85 a5 00  	addw	a0, a1, a0
   12e60: 13 15 25 00  	slli	a0, a0, 0x2
   12e64: 83 35 01 10  	ld	a1, 0x100(sp)
   12e68: 33 85 a5 00  	add	a0, a1, a0
   12e6c: 03 25 05 00  	lw	a0, 0x0(a0)
   12e70: 63 5e 75 03  	bge	a0, s7, 0x12eac <susan_edges+0xf48>
   12e74: b3 85 99 40  	sub	a1, s3, s1
   12e78: 13 85 0a 00  	mv	a0, s5
   12e7c: ef d0 50 5c  	jal	0x20c40 <__muldi3>
   12e80: bb 05 2b 41  	subw	a1, s6, s2
   12e84: 3b 85 a5 00  	addw	a0, a1, a0
   12e88: 13 15 25 00  	slli	a0, a0, 0x2
   12e8c: 83 35 01 10  	ld	a1, 0x100(sp)
   12e90: 33 85 a5 00  	add	a0, a1, a0
   12e94: 83 25 05 00  	lw	a1, 0x0(a0)
   12e98: 13 05 10 00  	li	a0, 0x1
   12e9c: 63 c8 bb 00  	blt	s7, a1, 0x12eac <susan_edges+0xf48>
   12ea0: 83 35 01 02  	ld	a1, 0x20(sp)
   12ea4: b3 85 85 00  	add	a1, a1, s0
   12ea8: 23 80 a5 00  	sb	a0, 0x0(a1)
   12eac: 13 04 14 00  	addi	s0, s0, 0x1
   12eb0: 13 0a 4a 00  	addi	s4, s4, 0x4
   12eb4: 13 0b 1b 00  	addi	s6, s6, 0x1
   12eb8: 03 35 01 0f  	ld	a0, 0xf0(sp)
   12ebc: 63 1c 85 da  	bne	a0, s0, 0x12474 <susan_edges+0x510>
   12ec0: 6f 00 00 01  	j	0x12ed0 <susan_edges+0xf6c>
   12ec4: 53 85 f7 20  	fmv.s	fa0, fa5
   12ec8: ef 20 c0 48  	jal	0x15354 <sqrtf>
   12ecc: 6f f0 1f 97  	j	0x1283c <susan_edges+0x8d8>
   12ed0: 83 35 81 02  	ld	a1, 0x28(sp)
   12ed4: 93 85 15 00  	addi	a1, a1, 0x1
   12ed8: 03 35 01 03  	ld	a0, 0x30(sp)
   12edc: 33 05 55 01  	add	a0, a0, s5
   12ee0: 23 38 a1 02  	sd	a0, 0x30(sp)
   12ee4: 9b 89 19 00  	addiw	s3, s3, 0x1
   12ee8: 03 35 81 0a  	ld	a0, 0xa8(sp)
   12eec: 33 05 55 01  	add	a0, a0, s5
   12ef0: 23 34 a1 0a  	sd	a0, 0xa8(sp)
   12ef4: 03 35 01 0a  	ld	a0, 0xa0(sp)
   12ef8: 33 05 55 01  	add	a0, a0, s5
   12efc: 23 30 a1 0a  	sd	a0, 0xa0(sp)
   12f00: 03 35 81 09  	ld	a0, 0x98(sp)
   12f04: 33 05 55 01  	add	a0, a0, s5
   12f08: 23 3c a1 08  	sd	a0, 0x98(sp)
   12f0c: 03 35 01 09  	ld	a0, 0x90(sp)
   12f10: 33 05 55 01  	add	a0, a0, s5
   12f14: 23 38 a1 08  	sd	a0, 0x90(sp)
   12f18: 03 35 81 08  	ld	a0, 0x88(sp)
   12f1c: 33 05 55 01  	add	a0, a0, s5
   12f20: 23 34 a1 08  	sd	a0, 0x88(sp)
   12f24: 03 35 01 08  	ld	a0, 0x80(sp)
   12f28: 33 05 55 01  	add	a0, a0, s5
   12f2c: 23 30 a1 08  	sd	a0, 0x80(sp)
   12f30: 03 35 81 07  	ld	a0, 0x78(sp)
   12f34: 33 05 55 01  	add	a0, a0, s5
   12f38: 23 3c a1 06  	sd	a0, 0x78(sp)
   12f3c: 03 35 81 01  	ld	a0, 0x18(sp)
   12f40: 63 96 a5 ce  	bne	a1, a0, 0x1242c <susan_edges+0x4c8>
   12f44: 13 05 00 00  	li	a0, 0x0
   12f48: 07 34 81 15  	fld	fs0, 0x158(sp)
   12f4c: 87 34 01 15  	fld	fs1, 0x150(sp)
   12f50: 07 39 81 14  	fld	fs2, 0x148(sp)
   12f54: 87 39 01 14  	fld	fs3, 0x140(sp)
   12f58: 07 3a 81 13  	fld	fs4, 0x138(sp)
   12f5c: 13 01 01 16  	addi	sp, sp, 0x160
   12f60: 6f d0 70 4b  	j	0x20c16 <__riscv_restore_12>

0000000000012f64 <susan_edges_small>:
   12f64: ef d2 90 46  	jal	t0, 0x20bcc <__riscv_save_12>
   12f68: 13 01 01 f6  	addi	sp, sp, -0xa0
   12f6c: 27 3c 81 08  	fsd	fs0, 0x98(sp)
   12f70: 27 38 91 08  	fsd	fs1, 0x90(sp)
   12f74: 27 34 21 09  	fsd	fs2, 0x88(sp)
   12f78: 27 30 31 09  	fsd	fs3, 0x80(sp)
   12f7c: 27 3c 41 07  	fsd	fs4, 0x78(sp)
   12f80: 93 0a 08 00  	mv	s5, a6
   12f84: 13 84 07 00  	mv	s0, a5
   12f88: 93 8d 06 00  	mv	s11, a3
   12f8c: 13 0a 06 00  	mv	s4, a2
   12f90: 93 84 05 00  	mv	s1, a1
   12f94: 93 09 05 00  	mv	s3, a0
   12f98: 13 05 08 00  	mv	a0, a6
   12f9c: 93 85 07 00  	mv	a1, a5
   12fa0: ef d0 10 4a  	jal	0x20c40 <__muldi3>
   12fa4: 1b 05 05 00  	sext.w	a0, a0
   12fa8: 13 16 25 00  	slli	a2, a0, 0x2
   12fac: 23 30 91 06  	sd	s1, 0x60(sp)
   12fb0: 13 85 04 00  	mv	a0, s1
   12fb4: 93 05 00 00  	li	a1, 0x0
   12fb8: ef 50 e0 5f  	jal	0x185b6 <memset>
   12fbc: 93 05 30 00  	li	a1, 0x3
   12fc0: 63 ca ba 56  	blt	s5, a1, 0x13534 <susan_edges_small+0x5d0>
   12fc4: 9b 86 fa ff  	addiw	a3, s5, -0x1
   12fc8: 13 06 f4 ff  	addi	a2, s0, -0x1
   12fcc: 1b 05 e4 ff  	addiw	a0, s0, -0x2
   12fd0: 13 16 06 02  	slli	a2, a2, 0x20
   12fd4: 13 56 06 02  	srli	a2, a2, 0x20
   12fd8: 03 37 01 06  	ld	a4, 0x60(sp)
   12fdc: 13 07 47 00  	addi	a4, a4, 0x4
   12fe0: 93 87 19 00  	addi	a5, s3, 0x1
   12fe4: 13 08 f6 ff  	addi	a6, a2, -0x1
   12fe8: 13 16 15 00  	slli	a2, a0, 0x1
   12fec: b3 88 c9 00  	add	a7, s3, a2
   12ff0: b3 02 35 01  	add	t0, a0, s3
   12ff4: 93 82 22 00  	addi	t0, t0, 0x2
   12ff8: 13 03 10 00  	li	t1, 0x1
   12ffc: 93 03 a0 2d  	li	t2, 0x2da
   13000: 13 8e 09 00  	mv	t3, s3
   13004: 93 0e 04 00  	mv	t4, s0
   13008: 23 3c 81 02  	sd	s0, 0x38(sp)
   1300c: 63 46 b4 0c  	blt	s0, a1, 0x130d8 <susan_edges_small+0x174>
   13010: 13 0f 00 00  	li	t5, 0x0
   13014: 93 9f 0e 02  	slli	t6, t4, 0x20
   13018: 13 d4 0f 02  	srli	s0, t6, 0x20
   1301c: 93 df ef 01  	srli	t6, t6, 0x1e
   13020: b3 0f f7 01  	add	t6, a4, t6
   13024: 33 84 87 00  	add	s0, a5, s0
   13028: b3 04 ee 01  	add	s1, t3, t5
   1302c: 33 09 e4 01  	add	s2, s0, t5
   13030: 03 49 09 00  	lbu	s2, 0x0(s2)
   13034: 03 cb 04 00  	lbu	s6, 0x0(s1)
   13038: 83 cb 14 00  	lbu	s7, 0x1(s1)
   1303c: 33 89 2d 01  	add	s2, s11, s2
   13040: 33 0b 69 41  	sub	s6, s2, s6
   13044: 03 4b 0b 00  	lbu	s6, 0x0(s6)
   13048: b3 0b 79 41  	sub	s7, s2, s7
   1304c: 83 c4 24 00  	lbu	s1, 0x2(s1)
   13050: 33 8c e2 01  	add	s8, t0, t5
   13054: 83 4c 0c 00  	lbu	s9, 0x0(s8)
   13058: 83 cb 0b 00  	lbu	s7, 0x0(s7)
   1305c: b3 04 99 40  	sub	s1, s2, s1
   13060: 83 c4 04 00  	lbu	s1, 0x0(s1)
   13064: b3 0c 99 41  	sub	s9, s2, s9
   13068: 83 cc 0c 00  	lbu	s9, 0x0(s9)
   1306c: 33 0b 7b 01  	add	s6, s6, s7
   13070: b3 84 94 01  	add	s1, s1, s9
   13074: 83 4b 2c 00  	lbu	s7, 0x2(s8)
   13078: b3 04 9b 00  	add	s1, s6, s1
   1307c: 33 8b e8 01  	add	s6, a7, t5
   13080: 03 4c 4b 00  	lbu	s8, 0x4(s6)
   13084: b3 0b 79 41  	sub	s7, s2, s7
   13088: 83 cb 0b 00  	lbu	s7, 0x0(s7)
   1308c: 83 4c 5b 00  	lbu	s9, 0x5(s6)
   13090: 33 0c 89 41  	sub	s8, s2, s8
   13094: 03 4b 6b 00  	lbu	s6, 0x6(s6)
   13098: 03 4c 0c 00  	lbu	s8, 0x0(s8)
   1309c: b3 0c 99 41  	sub	s9, s2, s9
   130a0: 83 cc 0c 00  	lbu	s9, 0x0(s9)
   130a4: 33 09 69 41  	sub	s2, s2, s6
   130a8: 03 49 09 00  	lbu	s2, 0x0(s2)
   130ac: b3 8b 8b 01  	add	s7, s7, s8
   130b0: b3 8b 9b 01  	add	s7, s7, s9
   130b4: b3 84 74 01  	add	s1, s1, s7
   130b8: b3 84 24 01  	add	s1, s1, s2
   130bc: 9b 84 44 06  	addiw	s1, s1, 0x64
   130c0: 63 e6 93 00  	bltu	t2, s1, 0x130cc <susan_edges_small+0x168>
   130c4: bb 84 93 40  	subw	s1, t2, s1
   130c8: 23 a0 9f 00  	sw	s1, 0x0(t6)
   130cc: 13 0f 1f 00  	addi	t5, t5, 0x1
   130d0: 93 8f 4f 00  	addi	t6, t6, 0x4
   130d4: e3 1a e8 f5  	bne	a6, t5, 0x13028 <susan_edges_small+0xc4>
   130d8: 13 03 13 00  	addi	t1, t1, 0x1
   130dc: 03 34 81 03  	ld	s0, 0x38(sp)
   130e0: b3 8e 8e 00  	add	t4, t4, s0
   130e4: b3 88 88 00  	add	a7, a7, s0
   130e8: 33 0e 8e 00  	add	t3, t3, s0
   130ec: b3 82 82 00  	add	t0, t0, s0
   130f0: e3 1e d3 f0  	bne	t1, a3, 0x1300c <susan_edges_small+0xa8>
   130f4: 93 05 50 00  	li	a1, 0x5
   130f8: 63 ce ba 42  	blt	s5, a1, 0x13534 <susan_edges_small+0x5d0>
   130fc: 9b 8a ea ff  	addiw	s5, s5, -0x2
   13100: 23 3c 51 01  	sd	s5, 0x18(sp)
   13104: 93 15 05 02  	slli	a1, a0, 0x20
   13108: 93 d5 05 02  	srli	a1, a1, 0x20
   1310c: 13 0a 2a 00  	addi	s4, s4, 0x2
   13110: 23 38 41 01  	sd	s4, 0x10(sp)
   13114: 93 16 14 00  	slli	a3, s0, 0x1
   13118: 23 34 d1 02  	sd	a3, 0x28(sp)
   1311c: 93 86 29 00  	addi	a3, s3, 0x2
   13120: 23 34 d1 00  	sd	a3, 0x8(sp)
   13124: 83 36 01 06  	ld	a3, 0x60(sp)
   13128: 93 86 86 00  	addi	a3, a3, 0x8
   1312c: 23 30 d1 00  	sd	a3, 0x0(sp)
   13130: 93 85 e5 ff  	addi	a1, a1, -0x2
   13134: 23 34 b1 06  	sd	a1, 0x68(sp)
   13138: 33 06 86 00  	add	a2, a2, s0
   1313c: 33 06 36 01  	add	a2, a2, s3
   13140: 13 06 56 00  	addi	a2, a2, 0x5
   13144: 23 3c c1 04  	sd	a2, 0x58(sp)
   13148: 33 05 a4 00  	add	a0, s0, a0
   1314c: 33 05 35 01  	add	a0, a0, s3
   13150: 13 05 55 00  	addi	a0, a0, 0x5
   13154: 23 38 a1 04  	sd	a0, 0x50(sp)
   13158: b3 89 89 00  	add	s3, s3, s0
   1315c: 23 34 31 05  	sd	s3, 0x48(sp)
   13160: 13 05 20 00  	li	a0, 0x2
   13164: 23 38 a1 06  	sd	a0, 0x70(sp)
   13168: 07 b4 81 1f  	fld	fs0, 0x1f8(gp)
   1316c: 87 a4 01 20  	flw	fs1, 0x200(gp)
   13170: 53 09 00 f0  	fmv.w.x	fs2, zero
   13174: 37 05 00 3f  	lui	a0, 0x3f000
   13178: d3 09 05 f0  	fmv.w.x	fs3, a0
   1317c: 37 05 00 40  	lui	a0, 0x40000
   13180: 53 0a 05 f0  	fmv.w.x	fs4, a0
   13184: 93 05 20 00  	li	a1, 0x2
   13188: 23 30 b1 02  	sd	a1, 0x20(sp)
   1318c: 93 0a 04 00  	mv	s5, s0
   13190: 13 05 50 00  	li	a0, 0x5
   13194: 63 48 a4 34  	blt	s0, a0, 0x134e4 <susan_edges_small+0x580>
   13198: 93 0c 00 00  	li	s9, 0x0
   1319c: 03 35 81 02  	ld	a0, 0x28(sp)
   131a0: 13 15 05 02  	slli	a0, a0, 0x20
   131a4: 93 55 05 02  	srli	a1, a0, 0x20
   131a8: 03 36 01 01  	ld	a2, 0x10(sp)
   131ac: 33 06 b6 00  	add	a2, a2, a1
   131b0: 23 38 c1 02  	sd	a2, 0x30(sp)
   131b4: 03 36 81 00  	ld	a2, 0x8(sp)
   131b8: b3 05 b6 00  	add	a1, a2, a1
   131bc: 23 30 b1 04  	sd	a1, 0x40(sp)
   131c0: 13 55 e5 01  	srli	a0, a0, 0x1e
   131c4: 03 39 01 00  	ld	s2, 0x0(sp)
   131c8: 33 09 a9 00  	add	s2, s2, a0
   131cc: 13 0c 20 00  	li	s8, 0x2
   131d0: 03 2d 09 00  	lw	s10, 0x0(s2)
   131d4: 63 56 a0 2f  	blez	s10, 0x134c0 <susan_edges_small+0x55c>
   131d8: 03 35 01 04  	ld	a0, 0x40(sp)
   131dc: 33 05 95 01  	add	a0, a0, s9
   131e0: 83 44 05 00  	lbu	s1, 0x0(a0)
   131e4: b3 84 9d 00  	add	s1, s11, s1
   131e8: 03 34 81 04  	ld	s0, 0x48(sp)
   131ec: 33 04 94 01  	add	s0, s0, s9
   131f0: 03 3b 01 05  	ld	s6, 0x50(sp)
   131f4: 33 0b 9b 01  	add	s6, s6, s9
   131f8: 83 3b 81 05  	ld	s7, 0x58(sp)
   131fc: b3 8b 9b 01  	add	s7, s7, s9
   13200: 13 05 f0 1d  	li	a0, 0x1df
   13204: 63 66 a5 11  	bltu	a0, s10, 0x13310 <susan_edges_small+0x3ac>
   13208: 03 45 14 00  	lbu	a0, 0x1(s0)
   1320c: 83 45 24 00  	lbu	a1, 0x2(s0)
   13210: 33 85 a4 40  	sub	a0, s1, a0
   13214: 03 45 05 00  	lbu	a0, 0x0(a0)
   13218: 03 46 34 00  	lbu	a2, 0x3(s0)
   1321c: b3 85 b4 40  	sub	a1, s1, a1
   13220: 83 c5 05 00  	lbu	a1, 0x0(a1)
   13224: 83 46 eb ff  	lbu	a3, -0x2(s6)
   13228: 33 86 c4 40  	sub	a2, s1, a2
   1322c: 03 c7 0b 00  	lbu	a4, 0x0(s7)
   13230: 03 46 06 00  	lbu	a2, 0x0(a2)
   13234: b3 86 d4 40  	sub	a3, s1, a3
   13238: 83 47 0b 00  	lbu	a5, 0x0(s6)
   1323c: 33 87 e4 40  	sub	a4, s1, a4
   13240: 03 47 07 00  	lbu	a4, 0x0(a4)
   13244: 83 c6 06 00  	lbu	a3, 0x0(a3)
   13248: b3 87 f4 40  	sub	a5, s1, a5
   1324c: b3 85 a5 00  	add	a1, a1, a0
   13250: 33 08 c7 40  	sub	a6, a4, a2
   13254: 83 c8 1b 00  	lbu	a7, 0x1(s7)
   13258: 33 0a b8 40  	sub	s4, a6, a1
   1325c: 83 c5 2b 00  	lbu	a1, 0x2(s7)
   13260: 83 c7 07 00  	lbu	a5, 0x0(a5)
   13264: 33 88 14 41  	sub	a6, s1, a7
   13268: 03 48 08 00  	lbu	a6, 0x0(a6)
   1326c: b3 85 b4 40  	sub	a1, s1, a1
   13270: 83 c5 05 00  	lbu	a1, 0x0(a1)
   13274: 33 05 d5 00  	add	a0, a0, a3
   13278: 33 06 f6 00  	add	a2, a2, a5
   1327c: 33 05 e5 00  	add	a0, a0, a4
   13280: 33 06 b6 00  	add	a2, a2, a1
   13284: b3 09 a6 40  	sub	s3, a2, a0
   13288: b3 05 b8 00  	add	a1, a6, a1
   1328c: 33 0a ba 00  	add	s4, s4, a1
   13290: 13 85 09 00  	mv	a0, s3
   13294: 93 85 09 00  	mv	a1, s3
   13298: ef d0 90 1a  	jal	0x20c40 <__muldi3>
   1329c: 93 0a 05 00  	mv	s5, a0
   132a0: 13 05 0a 00  	mv	a0, s4
   132a4: 93 05 0a 00  	mv	a1, s4
   132a8: ef d0 90 19  	jal	0x20c40 <__muldi3>
   132ac: 33 85 aa 00  	add	a0, s5, a0
   132b0: d3 77 05 d0  	fcvt.s.w	fa5, a0
   132b4: 53 f5 07 58  	fsqrt.s	fa0, fa5
   132b8: 53 25 a5 a0  	feq.s	a0, fa0, fa0
   132bc: 63 0e 05 20  	beqz	a0, 0x134d8 <susan_edges_small+0x574>
   132c0: 13 05 a0 2d  	li	a0, 0x2da
   132c4: 3b 05 a5 41  	subw	a0, a0, s10
   132c8: d3 07 05 42  	fcvt.d.s	fa5, fa0
   132cc: 53 07 05 d2  	fcvt.d.w	fa4, a0
   132d0: 53 77 87 12  	fmul.d	fa4, fa4, fs0
   132d4: 53 15 f7 a2  	flt.d	a0, fa4, fa5
   132d8: 83 3a 81 03  	ld	s5, 0x38(sp)
   132dc: 63 0a 05 02  	beqz	a0, 0x13310 <susan_edges_small+0x3ac>
   132e0: d3 87 94 20  	fmv.s	fa5, fs1
   132e4: 63 88 09 00  	beqz	s3, 0x132f4 <susan_edges_small+0x390>
   132e8: d3 77 0a d0  	fcvt.s.w	fa5, s4
   132ec: 53 f7 09 d0  	fcvt.s.w	fa4, s3
   132f0: d3 f7 e7 18  	fdiv.s	fa5, fa5, fa4
   132f4: 53 95 27 a1  	flt.s	a0, fa5, fs2
   132f8: 63 04 05 00  	beqz	a0, 0x13300 <susan_edges_small+0x39c>
   132fc: d3 97 f7 20  	fneg.s	fa5, fa5
   13300: d3 95 37 a1  	flt.s	a1, fa5, fs3
   13304: 63 80 05 0c  	beqz	a1, 0x133c4 <susan_edges_small+0x460>
   13308: 93 04 00 00  	li	s1, 0x0
   1330c: 6f 00 80 14  	j	0x13454 <susan_edges_small+0x4f0>
   13310: 03 45 14 00  	lbu	a0, 0x1(s0)
   13314: 83 45 24 00  	lbu	a1, 0x2(s0)
   13318: 33 85 a4 40  	sub	a0, s1, a0
   1331c: 03 45 05 00  	lbu	a0, 0x0(a0)
   13320: 03 46 34 00  	lbu	a2, 0x3(s0)
   13324: b3 85 b4 40  	sub	a1, s1, a1
   13328: 83 c6 05 00  	lbu	a3, 0x0(a1)
   1332c: 83 c5 0b 00  	lbu	a1, 0x0(s7)
   13330: 33 86 c4 40  	sub	a2, s1, a2
   13334: 03 46 06 00  	lbu	a2, 0x0(a2)
   13338: 03 c7 1b 00  	lbu	a4, 0x1(s7)
   1333c: b3 85 b4 40  	sub	a1, s1, a1
   13340: 83 c7 2b 00  	lbu	a5, 0x2(s7)
   13344: 03 c8 05 00  	lbu	a6, 0x0(a1)
   13348: b3 85 e4 40  	sub	a1, s1, a4
   1334c: 83 c8 05 00  	lbu	a7, 0x0(a1)
   13350: b3 85 f4 40  	sub	a1, s1, a5
   13354: 83 c5 05 00  	lbu	a1, 0x0(a1)
   13358: 33 06 c8 00  	add	a2, a6, a2
   1335c: 33 07 a6 00  	add	a4, a2, a0
   13360: b3 86 16 01  	add	a3, a3, a7
   13364: b3 86 b6 00  	add	a3, a3, a1
   13368: b3 06 d7 00  	add	a3, a4, a3
   1336c: 63 86 06 04  	beqz	a3, 0x133b8 <susan_edges_small+0x454>
   13370: 83 47 eb ff  	lbu	a5, -0x2(s6)
   13374: 03 48 0b 00  	lbu	a6, 0x0(s6)
   13378: b3 87 f4 40  	sub	a5, s1, a5
   1337c: 83 c7 07 00  	lbu	a5, 0x0(a5)
   13380: 33 88 04 41  	sub	a6, s1, a6
   13384: 03 48 08 00  	lbu	a6, 0x0(a6)
   13388: 33 07 b7 00  	add	a4, a4, a1
   1338c: b3 87 07 01  	add	a5, a5, a6
   13390: 33 07 f7 00  	add	a4, a4, a5
   13394: d3 77 07 d0  	fcvt.s.w	fa5, a4
   13398: 53 f7 06 d0  	fcvt.s.w	fa4, a3
   1339c: d3 f7 e7 18  	fdiv.s	fa5, fa5, fa4
   133a0: d3 96 37 a1  	flt.s	a3, fa5, fs3
   133a4: 63 86 06 00  	beqz	a3, 0x133b0 <susan_edges_small+0x44c>
   133a8: 93 04 00 00  	li	s1, 0x0
   133ac: 6f 00 c0 03  	j	0x133e8 <susan_edges_small+0x484>
   133b0: d3 16 fa a0  	flt.s	a3, fs4, fa5
   133b4: 63 82 06 02  	beqz	a3, 0x133d8 <susan_edges_small+0x474>
   133b8: 13 04 00 00  	li	s0, 0x0
   133bc: 93 04 10 00  	li	s1, 0x1
   133c0: 6f 00 c0 02  	j	0x133ec <susan_edges_small+0x488>
   133c4: d3 15 fa a0  	flt.s	a1, fs4, fa5
   133c8: 63 82 05 08  	beqz	a1, 0x1344c <susan_edges_small+0x4e8>
   133cc: 13 04 00 00  	li	s0, 0x0
   133d0: 93 04 10 00  	li	s1, 0x1
   133d4: 6f 00 40 08  	j	0x13458 <susan_edges_small+0x4f4>
   133d8: 33 85 a5 00  	add	a0, a1, a0
   133dc: 33 35 a6 00  	sltu	a0, a2, a0
   133e0: 33 05 a0 40  	neg	a0, a0
   133e4: 93 64 15 00  	ori	s1, a0, 0x1
   133e8: 13 04 10 00  	li	s0, 0x1
   133ec: 83 35 01 07  	ld	a1, 0x70(sp)
   133f0: b3 85 95 00  	add	a1, a1, s1
   133f4: 13 85 0a 00  	mv	a0, s5
   133f8: ef d0 90 04  	jal	0x20c40 <__muldi3>
   133fc: b3 05 8c 00  	add	a1, s8, s0
   13400: 3b 85 a5 00  	addw	a0, a1, a0
   13404: 13 15 25 00  	slli	a0, a0, 0x2
   13408: 83 35 01 06  	ld	a1, 0x60(sp)
   1340c: 33 85 a5 00  	add	a0, a1, a0
   13410: 03 25 05 00  	lw	a0, 0x0(a0)
   13414: 63 56 a5 0b  	bge	a0, s10, 0x134c0 <susan_edges_small+0x55c>
   13418: 83 35 01 07  	ld	a1, 0x70(sp)
   1341c: b3 85 95 40  	sub	a1, a1, s1
   13420: 13 85 0a 00  	mv	a0, s5
   13424: ef d0 d0 01  	jal	0x20c40 <__muldi3>
   13428: bb 05 8c 40  	subw	a1, s8, s0
   1342c: 3b 85 a5 00  	addw	a0, a1, a0
   13430: 13 15 25 00  	slli	a0, a0, 0x2
   13434: 83 35 01 06  	ld	a1, 0x60(sp)
   13438: 33 85 a5 00  	add	a0, a1, a0
   1343c: 83 25 05 00  	lw	a1, 0x0(a0)
   13440: 13 05 20 00  	li	a0, 0x2
   13444: 63 58 bd 06  	bge	s10, a1, 0x134b4 <susan_edges_small+0x550>
   13448: 6f 00 80 07  	j	0x134c0 <susan_edges_small+0x55c>
   1344c: 33 05 a0 40  	neg	a0, a0
   13450: 93 64 15 00  	ori	s1, a0, 0x1
   13454: 13 04 10 00  	li	s0, 0x1
   13458: 83 35 01 07  	ld	a1, 0x70(sp)
   1345c: b3 85 95 00  	add	a1, a1, s1
   13460: 13 85 0a 00  	mv	a0, s5
   13464: ef d0 c0 7d  	jal	0x20c40 <__muldi3>
   13468: b3 05 8c 00  	add	a1, s8, s0
   1346c: 3b 85 a5 00  	addw	a0, a1, a0
   13470: 13 15 25 00  	slli	a0, a0, 0x2
   13474: 83 35 01 06  	ld	a1, 0x60(sp)
   13478: 33 85 a5 00  	add	a0, a1, a0
   1347c: 03 25 05 00  	lw	a0, 0x0(a0)
   13480: 63 50 a5 05  	bge	a0, s10, 0x134c0 <susan_edges_small+0x55c>
   13484: 83 35 01 07  	ld	a1, 0x70(sp)
   13488: b3 85 95 40  	sub	a1, a1, s1
   1348c: 13 85 0a 00  	mv	a0, s5
   13490: ef d0 00 7b  	jal	0x20c40 <__muldi3>
   13494: bb 05 8c 40  	subw	a1, s8, s0
   13498: 3b 85 a5 00  	addw	a0, a1, a0
   1349c: 13 15 25 00  	slli	a0, a0, 0x2
   134a0: 83 35 01 06  	ld	a1, 0x60(sp)
   134a4: 33 85 a5 00  	add	a0, a1, a0
   134a8: 83 25 05 00  	lw	a1, 0x0(a0)
   134ac: 13 05 10 00  	li	a0, 0x1
   134b0: 63 48 bd 00  	blt	s10, a1, 0x134c0 <susan_edges_small+0x55c>
   134b4: 83 35 01 03  	ld	a1, 0x30(sp)
   134b8: b3 85 95 01  	add	a1, a1, s9
   134bc: 23 80 a5 00  	sb	a0, 0x0(a1)
   134c0: 93 8c 1c 00  	addi	s9, s9, 0x1
   134c4: 13 09 49 00  	addi	s2, s2, 0x4
   134c8: 13 0c 1c 00  	addi	s8, s8, 0x1
   134cc: 03 35 81 06  	ld	a0, 0x68(sp)
   134d0: e3 10 95 d1  	bne	a0, s9, 0x131d0 <susan_edges_small+0x26c>
   134d4: 6f 00 00 01  	j	0x134e4 <susan_edges_small+0x580>
   134d8: 53 85 f7 20  	fmv.s	fa0, fa5
   134dc: ef 10 90 67  	jal	0x15354 <sqrtf>
   134e0: 6f f0 1f de  	j	0x132c0 <susan_edges_small+0x35c>
   134e4: 83 35 01 02  	ld	a1, 0x20(sp)
   134e8: 93 85 15 00  	addi	a1, a1, 0x1
   134ec: 03 35 81 02  	ld	a0, 0x28(sp)
   134f0: 33 05 55 01  	add	a0, a0, s5
   134f4: 23 34 a1 02  	sd	a0, 0x28(sp)
   134f8: 03 35 01 07  	ld	a0, 0x70(sp)
   134fc: 1b 05 15 00  	addiw	a0, a0, 0x1
   13500: 23 38 a1 06  	sd	a0, 0x70(sp)
   13504: 03 35 81 05  	ld	a0, 0x58(sp)
   13508: 33 05 55 01  	add	a0, a0, s5
   1350c: 23 3c a1 04  	sd	a0, 0x58(sp)
   13510: 03 35 01 05  	ld	a0, 0x50(sp)
   13514: 33 05 55 01  	add	a0, a0, s5
   13518: 23 38 a1 04  	sd	a0, 0x50(sp)
   1351c: 03 35 81 04  	ld	a0, 0x48(sp)
   13520: 33 05 55 01  	add	a0, a0, s5
   13524: 23 34 a1 04  	sd	a0, 0x48(sp)
   13528: 13 84 0a 00  	mv	s0, s5
   1352c: 03 35 81 01  	ld	a0, 0x18(sp)
   13530: e3 9c a5 c4  	bne	a1, a0, 0x13188 <susan_edges_small+0x224>
   13534: 13 05 00 00  	li	a0, 0x0
   13538: 07 34 81 09  	fld	fs0, 0x98(sp)
   1353c: 87 34 01 09  	fld	fs1, 0x90(sp)
   13540: 07 39 81 08  	fld	fs2, 0x88(sp)
   13544: 87 39 01 08  	fld	fs3, 0x80(sp)
   13548: 07 3a 81 07  	fld	fs4, 0x78(sp)
   1354c: 13 01 01 0a  	addi	sp, sp, 0xa0
   13550: 6f d0 60 6c  	j	0x20c16 <__riscv_restore_12>

0000000000013554 <corner_draw>:
   13554: ef d2 40 69  	jal	t0, 0x20be8 <__riscv_save_7>
   13558: 13 84 05 00  	mv	s0, a1
   1355c: 83 a5 85 00  	lw	a1, 0x8(a1)
   13560: 13 0a 70 00  	li	s4, 0x7
   13564: 63 8e 45 09  	beq	a1, s4, 0x13600 <corner_draw+0xac>
   13568: 93 84 06 00  	mv	s1, a3
   1356c: 13 09 06 00  	mv	s2, a2
   13570: 93 09 05 00  	mv	s3, a0
   13574: 9b 0a e6 ff  	addiw	s5, a2, -0x2
   13578: 13 0b f0 0f  	li	s6, 0xff
   1357c: 03 25 44 00  	lw	a0, 0x4(s0)
   13580: 63 82 04 02  	beqz	s1, 0x135a4 <corner_draw+0x50>
   13584: 93 05 09 00  	mv	a1, s2
   13588: ef d0 80 6b  	jal	0x20c40 <__muldi3>
   1358c: 83 25 04 00  	lw	a1, 0x0(s0)
   13590: 1b 05 05 00  	sext.w	a0, a0
   13594: b3 85 b9 00  	add	a1, s3, a1
   13598: 33 85 a5 00  	add	a0, a1, a0
   1359c: 23 00 05 00  	sb	zero, 0x0(a0)
   135a0: 6f 00 40 05  	j	0x135f4 <corner_draw+0xa0>
   135a4: 13 05 f5 ff  	addi	a0, a0, -0x1
   135a8: 93 05 09 00  	mv	a1, s2
   135ac: ef d0 40 69  	jal	0x20c40 <__muldi3>
   135b0: 83 25 04 00  	lw	a1, 0x0(s0)
   135b4: 1b 05 05 00  	sext.w	a0, a0
   135b8: b3 85 b9 00  	add	a1, s3, a1
   135bc: 33 85 a5 00  	add	a0, a1, a0
   135c0: a3 0f 65 ff  	sb	s6, -0x1(a0)
   135c4: 93 05 15 00  	addi	a1, a0, 0x1
   135c8: 23 00 65 01  	sb	s6, 0x0(a0)
   135cc: a3 00 65 01  	sb	s6, 0x1(a0)
   135d0: b3 85 55 01  	add	a1, a1, s5
   135d4: 23 80 65 01  	sb	s6, 0x0(a1)
   135d8: 13 85 25 00  	addi	a0, a1, 0x2
   135dc: a3 80 05 00  	sb	zero, 0x1(a1)
   135e0: 23 81 65 01  	sb	s6, 0x2(a1)
   135e4: 33 05 55 01  	add	a0, a0, s5
   135e8: 23 00 65 01  	sb	s6, 0x0(a0)
   135ec: a3 00 65 01  	sb	s6, 0x1(a0)
   135f0: 23 01 65 01  	sb	s6, 0x2(a0)
   135f4: 03 25 04 02  	lw	a0, 0x20(s0)
   135f8: 13 04 84 01  	addi	s0, s0, 0x18
   135fc: e3 10 45 f9  	bne	a0, s4, 0x1357c <corner_draw+0x28>
   13600: 13 05 00 00  	li	a0, 0x0
   13604: 6f d0 20 62  	j	0x20c26 <__riscv_restore_7>

0000000000013608 <susan_corners>:
   13608: 13 01 01 df  	addi	sp, sp, -0x210
   1360c: 23 34 11 20  	sd	ra, 0x208(sp)
   13610: 23 30 81 20  	sd	s0, 0x200(sp)
   13614: 23 3c 91 1e  	sd	s1, 0x1f8(sp)
   13618: 23 38 21 1f  	sd	s2, 0x1f0(sp)
   1361c: 23 34 31 1f  	sd	s3, 0x1e8(sp)
   13620: 23 30 41 1f  	sd	s4, 0x1e0(sp)
   13624: 23 3c 51 1d  	sd	s5, 0x1d8(sp)
   13628: 23 38 61 1d  	sd	s6, 0x1d0(sp)
   1362c: 23 34 71 1d  	sd	s7, 0x1c8(sp)
   13630: 23 30 81 1d  	sd	s8, 0x1c0(sp)
   13634: 23 3c 91 1b  	sd	s9, 0x1b8(sp)
   13638: 23 38 a1 1b  	sd	s10, 0x1b0(sp)
   1363c: 23 34 b1 1b  	sd	s11, 0x1a8(sp)
   13640: 27 30 81 1a  	fsd	fs0, 0x1a0(sp)
   13644: 27 3c 91 18  	fsd	fs1, 0x198(sp)
   13648: 27 38 21 19  	fsd	fs2, 0x190(sp)
   1364c: 27 34 31 19  	fsd	fs3, 0x188(sp)
   13650: 27 30 41 19  	fsd	fs4, 0x180(sp)
   13654: 93 0a 08 00  	mv	s5, a6
   13658: 93 89 07 00  	mv	s3, a5
   1365c: 13 04 07 00  	mv	s0, a4
   13660: 13 8b 06 00  	mv	s6, a3
   13664: 23 38 c1 14  	sd	a2, 0x150(sp)
   13668: 13 8a 05 00  	mv	s4, a1
   1366c: 93 0b 05 00  	mv	s7, a0
   13670: 13 05 08 00  	mv	a0, a6
   13674: 93 85 07 00  	mv	a1, a5
   13678: ef d0 80 5c  	jal	0x20c40 <__muldi3>
   1367c: 1b 05 05 00  	sext.w	a0, a0
   13680: 93 14 25 00  	slli	s1, a0, 0x2
   13684: 13 05 0a 00  	mv	a0, s4
   13688: 93 05 00 00  	li	a1, 0x0
   1368c: 13 86 04 00  	mv	a2, s1
   13690: ef 40 70 72  	jal	0x185b6 <memset>
   13694: 13 85 04 00  	mv	a0, s1
   13698: ef 20 00 02  	jal	0x156b8 <malloc>
   1369c: 13 09 05 00  	mv	s2, a0
   136a0: 13 85 04 00  	mv	a0, s1
   136a4: ef 20 40 01  	jal	0x156b8 <malloc>
   136a8: 93 05 b0 00  	li	a1, 0xb
   136ac: 93 04 05 00  	mv	s1, a0
   136b0: 13 05 00 00  	li	a0, 0x0
   136b4: e3 c0 ba 50  	blt	s5, a1, 0x143b4 <susan_corners+0xdac>
   136b8: 23 34 61 15  	sd	s6, 0x148(sp)
   136bc: 23 38 81 08  	sd	s0, 0x90(sp)
   136c0: 23 3c 51 07  	sd	s5, 0x78(sp)
   136c4: 1b 85 ba ff  	addiw	a0, s5, -0x5
   136c8: 23 30 a1 0e  	sd	a0, 0xe0(sp)
   136cc: 1b 85 b9 ff  	addiw	a0, s3, -0x5
   136d0: 9b 85 d9 ff  	addiw	a1, s3, -0x3
   136d4: 1b 86 a9 ff  	addiw	a2, s3, -0x6
   136d8: 93 16 05 02  	slli	a3, a0, 0x20
   136dc: 23 34 d1 06  	sd	a3, 0x68(sp)
   136e0: 93 d6 06 02  	srli	a3, a3, 0x20
   136e4: 23 30 91 08  	sd	s1, 0x80(sp)
   136e8: 93 84 44 01  	addi	s1, s1, 0x14
   136ec: 23 34 91 0c  	sd	s1, 0xc8(sp)
   136f0: 13 97 29 00  	slli	a4, s3, 0x2
   136f4: 33 07 37 01  	add	a4, a4, s3
   136f8: 23 3c e1 10  	sd	a4, 0x118(sp)
   136fc: 23 34 21 09  	sd	s2, 0x88(sp)
   13700: 13 09 49 01  	addi	s2, s2, 0x14
   13704: 23 30 21 0d  	sd	s2, 0xc0(sp)
   13708: 23 38 41 07  	sd	s4, 0x70(sp)
   1370c: 13 0a 4a 01  	addi	s4, s4, 0x14
   13710: 23 38 41 0b  	sd	s4, 0xb0(sp)
   13714: 13 87 5b 00  	addi	a4, s7, 0x5
   13718: 23 3c e1 0a  	sd	a4, 0xb8(sp)
   1371c: 93 86 b6 ff  	addi	a3, a3, -0x5
   13720: 23 30 d1 14  	sd	a3, 0x140(sp)
   13724: 93 96 19 00  	slli	a3, s3, 0x1
   13728: 33 87 db 00  	add	a4, s7, a3
   1372c: 23 3c e1 16  	sd	a4, 0x178(sp)
   13730: 33 87 b6 00  	add	a4, a3, a1
   13734: b3 87 eb 00  	add	a5, s7, a4
   13738: 23 38 f1 16  	sd	a5, 0x170(sp)
   1373c: 33 07 a7 00  	add	a4, a4, a0
   13740: b3 87 eb 00  	add	a5, s7, a4
   13744: 23 34 f1 16  	sd	a5, 0x168(sp)
   13748: b3 07 76 01  	add	a5, a2, s7
   1374c: 33 07 f7 00  	add	a4, a4, a5
   13750: 13 07 17 01  	addi	a4, a4, 0x11
   13754: 23 30 e1 16  	sd	a4, 0x160(sp)
   13758: 13 16 16 00  	slli	a2, a2, 0x1
   1375c: 33 86 c6 00  	add	a2, a3, a2
   13760: b3 86 a5 00  	add	a3, a1, a0
   13764: b3 86 76 01  	add	a3, a3, s7
   13768: b3 06 d6 00  	add	a3, a2, a3
   1376c: 93 86 66 01  	addi	a3, a3, 0x16
   13770: 23 30 d1 12  	sd	a3, 0x120(sp)
   13774: 13 15 15 00  	slli	a0, a0, 0x1
   13778: 33 05 a6 00  	add	a0, a2, a0
   1377c: 33 86 75 01  	add	a2, a1, s7
   13780: 33 06 c5 00  	add	a2, a0, a2
   13784: 13 06 c6 01  	addi	a2, a2, 0x1c
   13788: 93 95 15 00  	slli	a1, a1, 0x1
   1378c: 23 3c 71 05  	sd	s7, 0x58(sp)
   13790: b3 85 75 01  	add	a1, a1, s7
   13794: 33 05 b5 00  	add	a0, a0, a1
   13798: 93 05 05 02  	addi	a1, a0, 0x20
   1379c: 93 06 50 00  	li	a3, 0x5
   137a0: 53 04 00 f0  	fmv.w.x	fs0, zero
   137a4: 87 b4 81 20  	fld	fs1, 0x208(gp)
   137a8: 07 b9 01 21  	fld	fs2, 0x210(gp)
   137ac: 37 05 40 40  	lui	a0, 0x40400
   137b0: d3 09 05 f0  	fmv.w.x	fs3, a0
   137b4: 13 07 50 00  	li	a4, 0x5
   137b8: 23 3c 31 0d  	sd	s3, 0xd8(sp)
   137bc: 23 38 e1 0e  	sd	a4, 0xf0(sp)
   137c0: 23 30 d1 10  	sd	a3, 0x100(sp)
   137c4: 23 34 b1 10  	sd	a1, 0x108(sp)
   137c8: 23 38 c1 10  	sd	a2, 0x110(sp)
   137cc: 13 05 b0 00  	li	a0, 0xb
   137d0: 63 ce a9 7e  	blt	s3, a0, 0x13fcc <susan_corners+0x9c4>
   137d4: 13 0a 00 00  	li	s4, 0x0
   137d8: 03 35 81 11  	ld	a0, 0x118(sp)
   137dc: 13 15 05 02  	slli	a0, a0, 0x20
   137e0: 93 55 05 02  	srli	a1, a0, 0x20
   137e4: 13 55 e5 01  	srli	a0, a0, 0x1e
   137e8: 03 3d 81 0c  	ld	s10, 0xc8(sp)
   137ec: 33 0d ad 00  	add	s10, s10, a0
   137f0: 83 34 01 0c  	ld	s1, 0xc0(sp)
   137f4: b3 84 a4 00  	add	s1, s1, a0
   137f8: 03 34 01 0b  	ld	s0, 0xb0(sp)
   137fc: 33 04 a4 00  	add	s0, s0, a0
   13800: 03 35 81 0b  	ld	a0, 0xb8(sp)
   13804: 33 05 b5 00  	add	a0, a0, a1
   13808: 23 3c a1 14  	sd	a0, 0x158(sp)
   1380c: 93 0b 50 00  	li	s7, 0x5
   13810: 13 09 50 00  	li	s2, 0x5
   13814: 83 35 81 17  	ld	a1, 0x178(sp)
   13818: b3 85 45 01  	add	a1, a1, s4
   1381c: 03 35 81 15  	ld	a0, 0x158(sp)
   13820: 33 05 45 01  	add	a0, a0, s4
   13824: 83 4d 05 00  	lbu	s11, 0x0(a0)
   13828: 03 c5 45 00  	lbu	a0, 0x4(a1)
   1382c: 03 c6 55 00  	lbu	a2, 0x5(a1)
   13830: 83 36 01 15  	ld	a3, 0x150(sp)
   13834: b3 8d b6 01  	add	s11, a3, s11
   13838: 33 85 ad 40  	sub	a0, s11, a0
   1383c: 83 46 05 00  	lbu	a3, 0x0(a0)
   13840: 33 86 cd 40  	sub	a2, s11, a2
   13844: 03 46 06 00  	lbu	a2, 0x0(a2)
   13848: 83 c5 65 00  	lbu	a1, 0x6(a1)
   1384c: 23 3c d1 12  	sd	a3, 0x138(sp)
   13850: b3 86 c6 00  	add	a3, a3, a2
   13854: 03 37 01 17  	ld	a4, 0x170(sp)
   13858: 33 07 47 01  	add	a4, a4, s4
   1385c: 83 47 67 00  	lbu	a5, 0x6(a4)
   13860: b3 85 bd 40  	sub	a1, s11, a1
   13864: 03 c6 05 00  	lbu	a2, 0x0(a1)
   13868: 83 45 77 00  	lbu	a1, 0x7(a4)
   1386c: b3 87 fd 40  	sub	a5, s11, a5
   13870: 83 42 87 00  	lbu	t0, 0x8(a4)
   13874: 83 c8 07 00  	lbu	a7, 0x0(a5)
   13878: b3 85 bd 40  	sub	a1, s11, a1
   1387c: 03 c8 05 00  	lbu	a6, 0x0(a1)
   13880: b3 85 5d 40  	sub	a1, s11, t0
   13884: 03 cf 05 00  	lbu	t5, 0x0(a1)
   13888: b3 85 c6 00  	add	a1, a3, a2
   1388c: 83 46 97 00  	lbu	a3, 0x9(a4)
   13890: b3 87 08 01  	add	a5, a7, a6
   13894: b3 87 e7 01  	add	a5, a5, t5
   13898: b3 82 f5 00  	add	t0, a1, a5
   1389c: b3 86 dd 40  	sub	a3, s11, a3
   138a0: 03 47 a7 00  	lbu	a4, 0xa(a4)
   138a4: 03 c3 06 00  	lbu	t1, 0x0(a3)
   138a8: 83 3f 81 16  	ld	t6, 0x168(sp)
   138ac: b3 8f 4f 01  	add	t6, t6, s4
   138b0: 83 c6 af 00  	lbu	a3, 0xa(t6)
   138b4: 33 87 ed 40  	sub	a4, s11, a4
   138b8: 83 c3 bf 00  	lbu	t2, 0xb(t6)
   138bc: 83 47 07 00  	lbu	a5, 0x0(a4)
   138c0: b3 86 dd 40  	sub	a3, s11, a3
   138c4: 83 c6 06 00  	lbu	a3, 0x0(a3)
   138c8: 33 87 7d 40  	sub	a4, s11, t2
   138cc: 03 47 07 00  	lbu	a4, 0x0(a4)
   138d0: b3 03 f3 00  	add	t2, t1, a5
   138d4: b3 83 d3 00  	add	t2, t2, a3
   138d8: 03 ce cf 00  	lbu	t3, 0xc(t6)
   138dc: b3 83 e3 00  	add	t2, t2, a4
   138e0: b3 89 72 00  	add	s3, t0, t2
   138e4: 83 c3 df 00  	lbu	t2, 0xd(t6)
   138e8: b3 82 cd 41  	sub	t0, s11, t3
   138ec: 83 c2 02 00  	lbu	t0, 0x0(t0)
   138f0: 03 ce ef 00  	lbu	t3, 0xe(t6)
   138f4: b3 83 7d 40  	sub	t2, s11, t2
   138f8: 83 ce ff 00  	lbu	t4, 0xf(t6)
   138fc: 83 c3 03 00  	lbu	t2, 0x0(t2)
   13900: 33 8e cd 41  	sub	t3, s11, t3
   13904: 03 4e 0e 00  	lbu	t3, 0x0(t3)
   13908: b3 8e dd 41  	sub	t4, s11, t4
   1390c: 83 ce 0e 00  	lbu	t4, 0x0(t4)
   13910: b3 8a 72 00  	add	s5, t0, t2
   13914: b3 8a ca 01  	add	s5, s5, t3
   13918: 83 cf 0f 01  	lbu	t6, 0x10(t6)
   1391c: 33 8c da 01  	add	s8, s5, t4
   13920: 03 3b 01 16  	ld	s6, 0x160(sp)
   13924: 33 0b 4b 01  	add	s6, s6, s4
   13928: 83 4a fb ff  	lbu	s5, -0x1(s6)
   1392c: b3 8f fd 41  	sub	t6, s11, t6
   13930: 83 cf 0f 00  	lbu	t6, 0x0(t6)
   13934: 83 40 0b 00  	lbu	ra, 0x0(s6)
   13938: b3 8a 5d 41  	sub	s5, s11, s5
   1393c: 03 45 1b 00  	lbu	a0, 0x1(s6)
   13940: 83 cc 0a 00  	lbu	s9, 0x0(s5)
   13944: b3 8a 1d 40  	sub	s5, s11, ra
   13948: 83 ca 0a 00  	lbu	s5, 0x0(s5)
   1394c: 33 85 ad 40  	sub	a0, s11, a0
   13950: 83 40 05 00  	lbu	ra, 0x0(a0)
   13954: 33 0c fc 01  	add	s8, s8, t6
   13958: b3 89 89 01  	add	s3, s3, s8
   1395c: 33 85 5c 01  	add	a0, s9, s5
   13960: 33 05 15 00  	add	a0, a0, ra
   13964: 33 85 a9 00  	add	a0, s3, a0
   13968: 9b 09 45 06  	addiw	s3, a0, 0x64
   1396c: 03 3c 81 14  	ld	s8, 0x148(sp)
   13970: 63 de 89 63  	bge	s3, s8, 0x13fac <susan_corners+0x9a4>
   13974: 03 45 3b 00  	lbu	a0, 0x3(s6)
   13978: 33 85 ad 40  	sub	a0, s11, a0
   1397c: 03 45 05 00  	lbu	a0, 0x0(a0)
   13980: 23 38 a1 12  	sd	a0, 0x130(sp)
   13984: bb 89 a9 00  	addw	s3, s3, a0
   13988: 63 f2 89 63  	bgeu	s3, s8, 0x13fac <susan_corners+0x9a4>
   1398c: 03 45 4b 00  	lbu	a0, 0x4(s6)
   13990: 33 85 ad 40  	sub	a0, s11, a0
   13994: 03 45 05 00  	lbu	a0, 0x0(a0)
   13998: 23 34 a1 12  	sd	a0, 0x128(sp)
   1399c: bb 89 a9 00  	addw	s3, s3, a0
   139a0: 63 f6 89 61  	bgeu	s3, s8, 0x13fac <susan_corners+0x9a4>
   139a4: 03 45 5b 00  	lbu	a0, 0x5(s6)
   139a8: 33 85 ad 40  	sub	a0, s11, a0
   139ac: 03 45 05 00  	lbu	a0, 0x0(a0)
   139b0: 23 3c a1 0e  	sd	a0, 0xf8(sp)
   139b4: 3b 8b a9 00  	addw	s6, s3, a0
   139b8: 63 7a 8b 5f  	bgeu	s6, s8, 0x13fac <susan_corners+0x9a4>
   139bc: 03 35 01 12  	ld	a0, 0x120(sp)
   139c0: 33 05 45 01  	add	a0, a0, s4
   139c4: 23 34 a1 0e  	sd	a0, 0xe8(sp)
   139c8: 03 45 05 00  	lbu	a0, 0x0(a0)
   139cc: 33 85 ad 40  	sub	a0, s11, a0
   139d0: 03 45 05 00  	lbu	a0, 0x0(a0)
   139d4: 23 38 a1 0c  	sd	a0, 0xd0(sp)
   139d8: bb 09 ab 00  	addw	s3, s6, a0
   139dc: 63 f8 89 5d  	bgeu	s3, s8, 0x13fac <susan_corners+0x9a4>
   139e0: 03 35 81 0e  	ld	a0, 0xe8(sp)
   139e4: 03 45 15 00  	lbu	a0, 0x1(a0)
   139e8: 33 85 ad 40  	sub	a0, s11, a0
   139ec: 03 45 05 00  	lbu	a0, 0x0(a0)
   139f0: bb 89 a9 00  	addw	s3, s3, a0
   139f4: 63 fc 89 5b  	bgeu	s3, s8, 0x13fac <susan_corners+0x9a4>
   139f8: 13 0b 05 00  	mv	s6, a0
   139fc: 03 35 81 0e  	ld	a0, 0xe8(sp)
   13a00: 03 45 25 00  	lbu	a0, 0x2(a0)
   13a04: 33 85 ad 40  	sub	a0, s11, a0
   13a08: 03 45 05 00  	lbu	a0, 0x0(a0)
   13a0c: 23 34 a1 0a  	sd	a0, 0xa8(sp)
   13a10: bb 89 a9 00  	addw	s3, s3, a0
   13a14: 63 fc 89 59  	bgeu	s3, s8, 0x13fac <susan_corners+0x9a4>
   13a18: 03 35 81 0e  	ld	a0, 0xe8(sp)
   13a1c: 03 45 35 00  	lbu	a0, 0x3(a0)
   13a20: 33 85 ad 40  	sub	a0, s11, a0
   13a24: 03 45 05 00  	lbu	a0, 0x0(a0)
   13a28: 23 30 a1 0a  	sd	a0, 0xa0(sp)
   13a2c: bb 89 a9 00  	addw	s3, s3, a0
   13a30: 63 fe 89 57  	bgeu	s3, s8, 0x13fac <susan_corners+0x9a4>
   13a34: 03 35 81 0e  	ld	a0, 0xe8(sp)
   13a38: 03 45 45 00  	lbu	a0, 0x4(a0)
   13a3c: 33 85 ad 40  	sub	a0, s11, a0
   13a40: 03 45 05 00  	lbu	a0, 0x0(a0)
   13a44: 23 3c a1 08  	sd	a0, 0x98(sp)
   13a48: bb 89 a9 00  	addw	s3, s3, a0
   13a4c: 63 f0 89 57  	bgeu	s3, s8, 0x13fac <susan_corners+0x9a4>
   13a50: 03 35 81 0e  	ld	a0, 0xe8(sp)
   13a54: 03 45 55 00  	lbu	a0, 0x5(a0)
   13a58: 33 85 ad 40  	sub	a0, s11, a0
   13a5c: 03 45 05 00  	lbu	a0, 0x0(a0)
   13a60: 23 30 a1 06  	sd	a0, 0x60(sp)
   13a64: bb 89 a9 00  	addw	s3, s3, a0
   13a68: 63 f2 89 55  	bgeu	s3, s8, 0x13fac <susan_corners+0x9a4>
   13a6c: 03 35 81 0e  	ld	a0, 0xe8(sp)
   13a70: 03 45 65 00  	lbu	a0, 0x6(a0)
   13a74: 33 85 ad 40  	sub	a0, s11, a0
   13a78: 03 45 05 00  	lbu	a0, 0x0(a0)
   13a7c: 23 34 a1 0e  	sd	a0, 0xe8(sp)
   13a80: bb 89 a9 00  	addw	s3, s3, a0
   13a84: 63 f4 89 53  	bgeu	s3, s8, 0x13fac <susan_corners+0x9a4>
   13a88: 03 35 01 11  	ld	a0, 0x110(sp)
   13a8c: 33 05 45 01  	add	a0, a0, s4
   13a90: 23 38 a1 04  	sd	a0, 0x50(sp)
   13a94: 03 45 05 00  	lbu	a0, 0x0(a0)
   13a98: 33 85 ad 40  	sub	a0, s11, a0
   13a9c: 03 45 05 00  	lbu	a0, 0x0(a0)
   13aa0: 23 34 a1 04  	sd	a0, 0x48(sp)
   13aa4: bb 89 a9 00  	addw	s3, s3, a0
   13aa8: 63 f2 89 51  	bgeu	s3, s8, 0x13fac <susan_corners+0x9a4>
   13aac: 03 35 01 05  	ld	a0, 0x50(sp)
   13ab0: 03 45 15 00  	lbu	a0, 0x1(a0)
   13ab4: 33 85 ad 40  	sub	a0, s11, a0
   13ab8: 03 45 05 00  	lbu	a0, 0x0(a0)
   13abc: 23 30 a1 04  	sd	a0, 0x40(sp)
   13ac0: bb 89 a9 00  	addw	s3, s3, a0
   13ac4: 63 f4 89 4f  	bgeu	s3, s8, 0x13fac <susan_corners+0x9a4>
   13ac8: 03 35 01 05  	ld	a0, 0x50(sp)
   13acc: 03 45 25 00  	lbu	a0, 0x2(a0)
   13ad0: 33 85 ad 40  	sub	a0, s11, a0
   13ad4: 03 45 05 00  	lbu	a0, 0x0(a0)
   13ad8: 23 3c a1 02  	sd	a0, 0x38(sp)
   13adc: bb 89 a9 00  	addw	s3, s3, a0
   13ae0: 63 f6 89 4d  	bgeu	s3, s8, 0x13fac <susan_corners+0x9a4>
   13ae4: 03 35 01 05  	ld	a0, 0x50(sp)
   13ae8: 03 45 35 00  	lbu	a0, 0x3(a0)
   13aec: 33 85 ad 40  	sub	a0, s11, a0
   13af0: 03 45 05 00  	lbu	a0, 0x0(a0)
   13af4: 23 38 a1 02  	sd	a0, 0x30(sp)
   13af8: bb 89 a9 00  	addw	s3, s3, a0
   13afc: 63 f8 89 4b  	bgeu	s3, s8, 0x13fac <susan_corners+0x9a4>
   13b00: 03 35 01 05  	ld	a0, 0x50(sp)
   13b04: 03 45 45 00  	lbu	a0, 0x4(a0)
   13b08: 33 85 ad 40  	sub	a0, s11, a0
   13b0c: 03 45 05 00  	lbu	a0, 0x0(a0)
   13b10: 23 38 a1 04  	sd	a0, 0x50(sp)
   13b14: bb 89 a9 00  	addw	s3, s3, a0
   13b18: 63 fa 89 49  	bgeu	s3, s8, 0x13fac <susan_corners+0x9a4>
   13b1c: 03 35 81 10  	ld	a0, 0x108(sp)
   13b20: 33 05 45 01  	add	a0, a0, s4
   13b24: 23 34 a1 02  	sd	a0, 0x28(sp)
   13b28: 03 45 05 00  	lbu	a0, 0x0(a0)
   13b2c: 33 85 ad 40  	sub	a0, s11, a0
   13b30: 03 45 05 00  	lbu	a0, 0x0(a0)
   13b34: 23 30 a1 02  	sd	a0, 0x20(sp)
   13b38: bb 89 a9 00  	addw	s3, s3, a0
   13b3c: 63 f8 89 47  	bgeu	s3, s8, 0x13fac <susan_corners+0x9a4>
   13b40: 03 35 81 02  	ld	a0, 0x28(sp)
   13b44: 03 45 15 00  	lbu	a0, 0x1(a0)
   13b48: 33 85 ad 40  	sub	a0, s11, a0
   13b4c: 03 45 05 00  	lbu	a0, 0x0(a0)
   13b50: 23 3c a1 00  	sd	a0, 0x18(sp)
   13b54: bb 89 a9 00  	addw	s3, s3, a0
   13b58: 63 fa 89 45  	bgeu	s3, s8, 0x13fac <susan_corners+0x9a4>
   13b5c: 03 35 81 02  	ld	a0, 0x28(sp)
   13b60: 03 45 25 00  	lbu	a0, 0x2(a0)
   13b64: 33 85 ad 40  	sub	a0, s11, a0
   13b68: 03 45 05 00  	lbu	a0, 0x0(a0)
   13b6c: 23 38 a1 00  	sd	a0, 0x10(sp)
   13b70: 3b 85 a9 00  	addw	a0, s3, a0
   13b74: 23 34 a1 02  	sd	a0, 0x28(sp)
   13b78: 63 7a 85 43  	bgeu	a0, s8, 0x13fac <susan_corners+0x9a4>
   13b7c: 33 0f 6f 00  	add	t5, t5, t1
   13b80: 33 05 18 01  	add	a0, a6, a7
   13b84: 33 05 e5 01  	add	a0, a0, t5
   13b88: 23 34 a1 00  	sd	a0, 0x8(sp)
   13b8c: b3 8c 96 01  	add	s9, a3, s9
   13b90: 03 3f 81 0f  	ld	t5, 0xf8(sp)
   13b94: 33 8f ef 01  	add	t5, t6, t5
   13b98: 03 35 01 0d  	ld	a0, 0xd0(sp)
   13b9c: b3 8c ac 00  	add	s9, s9, a0
   13ba0: 03 35 81 0e  	ld	a0, 0xe8(sp)
   13ba4: 33 0f af 00  	add	t5, t5, a0
   13ba8: 3b 0f 9f 41  	subw	t5, t5, s9
   13bac: 93 19 1f 00  	slli	s3, t5, 0x1
   13bb0: 33 8f e9 01  	add	t5, s3, t5
   13bb4: b3 89 d7 01  	add	s3, a5, t4
   13bb8: 03 3c 81 12  	ld	s8, 0x128(sp)
   13bbc: b3 89 89 01  	add	s3, s3, s8
   13bc0: b3 88 e8 00  	add	a7, a7, a4
   13bc4: 23 30 61 01  	sd	s6, 0x0(sp)
   13bc8: b3 8a 6a 01  	add	s5, s5, s6
   13bcc: b3 88 58 01  	add	a7, a7, s5
   13bd0: bb 88 19 41  	subw	a7, s3, a7
   13bd4: 83 39 81 13  	ld	s3, 0x138(sp)
   13bd8: 33 88 09 01  	add	a6, s3, a6
   13bdc: 33 06 66 00  	add	a2, a2, t1
   13be0: b3 80 12 00  	add	ra, t0, ra
   13be4: 33 08 18 00  	add	a6, a6, ra
   13be8: 03 3c 01 13  	ld	s8, 0x130(sp)
   13bec: 33 0c 8e 01  	add	s8, t3, s8
   13bf0: 33 06 86 01  	add	a2, a2, s8
   13bf4: 83 39 81 0a  	ld	s3, 0xa8(sp)
   13bf8: 33 08 38 01  	add	a6, a6, s3
   13bfc: 03 3c 81 09  	ld	s8, 0x98(sp)
   13c00: 33 06 86 01  	add	a2, a2, s8
   13c04: 3b 06 06 41  	subw	a2, a2, a6
   13c08: 03 38 81 04  	ld	a6, 0x48(sp)
   13c0c: 13 18 18 00  	slli	a6, a6, 0x1
   13c10: 83 3c 01 06  	ld	s9, 0x60(sp)
   13c14: b3 88 98 01  	add	a7, a7, s9
   13c18: 93 98 18 00  	slli	a7, a7, 0x1
   13c1c: 33 06 16 01  	add	a2, a2, a7
   13c20: 83 30 01 04  	ld	ra, 0x40(sp)
   13c24: b3 08 18 00  	add	a7, a6, ra
   13c28: bb 08 1f 41  	subw	a7, t5, a7
   13c2c: 03 33 01 05  	ld	t1, 0x50(sp)
   13c30: 13 13 13 00  	slli	t1, t1, 0x1
   13c34: 33 06 16 01  	add	a2, a2, a7
   13c38: 03 3f 01 03  	ld	t5, 0x30(sp)
   13c3c: b3 08 6f 00  	add	a7, t5, t1
   13c40: 03 35 01 02  	ld	a0, 0x20(sp)
   13c44: bb 88 a8 40  	subw	a7, a7, a0
   13c48: 83 3a 01 01  	ld	s5, 0x10(sp)
   13c4c: b3 88 58 01  	add	a7, a7, s5
   13c50: 3b 0b 16 01  	addw	s6, a2, a7
   13c54: bb 05 b5 40  	subw	a1, a0, a1
   13c58: 03 36 81 01  	ld	a2, 0x18(sp)
   13c5c: 33 06 56 01  	add	a2, a2, s5
   13c60: b3 85 c5 00  	add	a1, a1, a2
   13c64: 13 96 15 00  	slli	a2, a1, 0x1
   13c68: b3 05 b6 00  	add	a1, a2, a1
   13c6c: 3b 86 f0 40  	subw	a2, ra, a5
   13c70: 83 37 81 03  	ld	a5, 0x38(sp)
   13c74: 33 06 f6 00  	add	a2, a2, a5
   13c78: 03 35 81 00  	ld	a0, 0x8(sp)
   13c7c: 3b 06 a6 40  	subw	a2, a2, a0
   13c80: 33 06 e6 01  	add	a2, a2, t5
   13c84: b3 06 d7 00  	add	a3, a4, a3
   13c88: b3 82 72 00  	add	t0, t0, t2
   13c8c: b3 86 56 00  	add	a3, a3, t0
   13c90: 33 0e de 01  	add	t3, t3, t4
   13c94: 33 0e fe 01  	add	t3, t3, t6
   13c98: b3 86 c6 01  	add	a3, a3, t3
   13c9c: 03 35 01 0d  	ld	a0, 0xd0(sp)
   13ca0: 03 37 01 00  	ld	a4, 0x0(sp)
   13ca4: 33 05 e5 00  	add	a0, a0, a4
   13ca8: 33 05 35 01  	add	a0, a0, s3
   13cac: 03 37 01 0a  	ld	a4, 0xa0(sp)
   13cb0: 33 05 e5 00  	add	a0, a0, a4
   13cb4: 3b 05 d5 40  	subw	a0, a0, a3
   13cb8: b3 06 9c 01  	add	a3, s8, s9
   13cbc: 03 37 81 0e  	ld	a4, 0xe8(sp)
   13cc0: b3 86 e6 00  	add	a3, a3, a4
   13cc4: b3 86 06 01  	add	a3, a3, a6
   13cc8: 33 05 d5 00  	add	a0, a0, a3
   13ccc: 13 16 16 00  	slli	a2, a2, 0x1
   13cd0: 33 05 c5 00  	add	a0, a0, a2
   13cd4: 33 05 65 00  	add	a0, a0, t1
   13cd8: 3b 0c b5 00  	addw	s8, a0, a1
   13cdc: 13 05 0b 00  	mv	a0, s6
   13ce0: 93 05 0b 00  	mv	a1, s6
   13ce4: ef c0 d0 75  	jal	0x20c40 <__muldi3>
   13ce8: 93 0a 05 00  	mv	s5, a0
   13cec: 13 05 0c 00  	mv	a0, s8
   13cf0: 93 05 0c 00  	mv	a1, s8
   13cf4: ef c0 d0 74  	jal	0x20c40 <__muldi3>
   13cf8: 93 0c 05 00  	mv	s9, a0
   13cfc: bb 09 55 01  	addw	s3, a0, s5
   13d00: 03 35 81 02  	ld	a0, 0x28(sp)
   13d04: 93 05 05 00  	mv	a1, a0
   13d08: ef c0 90 73  	jal	0x20c40 <__muldi3>
   13d0c: 1b 55 15 00  	srliw	a0, a0, 0x1
   13d10: 63 7e 35 29  	bgeu	a0, s3, 0x13fac <susan_corners+0x9a4>
   13d14: 1b 85 0a 00  	sext.w	a0, s5
   13d18: 9b 85 0c 00  	sext.w	a1, s9
   13d1c: 23 3c 61 13  	sd	s6, 0x138(sp)
   13d20: 23 38 81 13  	sd	s8, 0x130(sp)
   13d24: 63 fa a5 10  	bgeu	a1, a0, 0x13e38 <susan_corners+0x830>
   13d28: d3 77 0c d0  	fcvt.s.w	fa5, s8
   13d2c: 1b 55 fb 41  	sraiw	a0, s6, 0x1f
   13d30: b3 45 ab 00  	xor	a1, s6, a0
   13d34: bb 85 a5 40  	subw	a1, a1, a0
   13d38: 53 f7 05 d0  	fcvt.s.w	fa4, a1
   13d3c: 53 fa e7 18  	fdiv.s	fs4, fa5, fa4
   13d40: 13 95 05 03  	slli	a0, a1, 0x30
   13d44: 13 55 05 43  	srai	a0, a0, 0x30
   13d48: 93 15 0b 03  	slli	a1, s6, 0x30
   13d4c: 93 d5 05 43  	srai	a1, a1, 0x30
   13d50: ef c0 10 73  	jal	0x20c80 <__divdi3>
   13d54: d3 15 8a a0  	flt.s	a1, fs4, fs0
   13d58: d3 07 29 23  	fmv.d	fa5, fs2
   13d5c: 03 3c 81 0d  	ld	s8, 0xd8(sp)
   13d60: 83 3c 81 05  	ld	s9, 0x58(sp)
   13d64: 63 94 05 00  	bnez	a1, 0x13d6c <susan_corners+0x764>
   13d68: d3 87 94 22  	fmv.d	fa5, fs1
   13d6c: 13 15 05 03  	slli	a0, a0, 0x30
   13d70: 93 59 05 43  	srai	s3, a0, 0x30
   13d74: 53 07 0a 42  	fcvt.d.s	fa4, fs4
   13d78: d3 f7 e7 02  	fadd.d	fa5, fa5, fa4
   13d7c: d3 95 07 c2  	fcvt.w.d	a1, fa5, rtz
   13d80: 03 35 01 10  	ld	a0, 0x100(sp)
   13d84: b3 05 b5 00  	add	a1, a0, a1
   13d88: 13 05 0c 00  	mv	a0, s8
   13d8c: ef c0 50 6b  	jal	0x20c40 <__muldi3>
   13d90: b3 85 3b 01  	add	a1, s7, s3
   13d94: 3b 85 a5 00  	addw	a0, a1, a0
   13d98: 33 85 ac 00  	add	a0, s9, a0
   13d9c: 03 45 05 00  	lbu	a0, 0x0(a0)
   13da0: 33 85 ad 40  	sub	a0, s11, a0
   13da4: 83 4a 05 00  	lbu	s5, 0x0(a0)
   13da8: d3 77 4a 01  	fadd.s	fa5, fs4, fs4
   13dac: 53 95 87 a0  	flt.s	a0, fa5, fs0
   13db0: 53 07 29 23  	fmv.d	fa4, fs2
   13db4: 63 14 05 00  	bnez	a0, 0x13dbc <susan_corners+0x7b4>
   13db8: 53 87 94 22  	fmv.d	fa4, fs1
   13dbc: d3 87 07 42  	fcvt.d.s	fa5, fa5
   13dc0: d3 77 f7 02  	fadd.d	fa5, fa4, fa5
   13dc4: d3 95 07 c2  	fcvt.w.d	a1, fa5, rtz
   13dc8: 13 9b 19 00  	slli	s6, s3, 0x1
   13dcc: 03 35 01 10  	ld	a0, 0x100(sp)
   13dd0: b3 05 b5 00  	add	a1, a0, a1
   13dd4: 13 05 0c 00  	mv	a0, s8
   13dd8: ef c0 90 66  	jal	0x20c40 <__muldi3>
   13ddc: b3 85 6b 01  	add	a1, s7, s6
   13de0: 3b 85 a5 00  	addw	a0, a1, a0
   13de4: 33 85 ac 00  	add	a0, s9, a0
   13de8: 03 45 05 00  	lbu	a0, 0x0(a0)
   13dec: 33 85 ad 40  	sub	a0, s11, a0
   13df0: 03 45 05 00  	lbu	a0, 0x0(a0)
   13df4: d3 77 3a 11  	fmul.s	fa5, fs4, fs3
   13df8: d3 95 87 a0  	flt.s	a1, fa5, fs0
   13dfc: 53 07 29 23  	fmv.d	fa4, fs2
   13e00: 63 94 05 00  	bnez	a1, 0x13e08 <susan_corners+0x800>
   13e04: 53 87 94 22  	fmv.d	fa4, fs1
   13e08: b3 0a 55 01  	add	s5, a0, s5
   13e0c: d3 87 07 42  	fcvt.d.s	fa5, fa5
   13e10: d3 77 f7 02  	fadd.d	fa5, fa4, fa5
   13e14: 53 95 07 c2  	fcvt.w.d	a0, fa5, rtz
   13e18: 83 35 01 0f  	ld	a1, 0xf0(sp)
   13e1c: 33 85 a5 00  	add	a0, a1, a0
   13e20: 93 05 0c 00  	mv	a1, s8
   13e24: ef c0 d0 61  	jal	0x20c40 <__muldi3>
   13e28: b3 09 3b 01  	add	s3, s6, s3
   13e2c: b3 09 39 01  	add	s3, s2, s3
   13e30: 3b 05 35 01  	addw	a0, a0, s3
   13e34: 6f 00 00 11  	j	0x13f44 <susan_corners+0x93c>
   13e38: d3 77 0b d0  	fcvt.s.w	fa5, s6
   13e3c: 1b 55 fc 41  	sraiw	a0, s8, 0x1f
   13e40: b3 45 ac 00  	xor	a1, s8, a0
   13e44: bb 85 a5 40  	subw	a1, a1, a0
   13e48: 53 f7 05 d0  	fcvt.s.w	fa4, a1
   13e4c: 53 fa e7 18  	fdiv.s	fs4, fa5, fa4
   13e50: 13 95 05 03  	slli	a0, a1, 0x30
   13e54: 13 55 05 43  	srai	a0, a0, 0x30
   13e58: 93 15 0c 03  	slli	a1, s8, 0x30
   13e5c: 93 d5 05 43  	srai	a1, a1, 0x30
   13e60: ef c0 10 62  	jal	0x20c80 <__divdi3>
   13e64: d3 15 8a a0  	flt.s	a1, fs4, fs0
   13e68: d3 07 29 23  	fmv.d	fa5, fs2
   13e6c: 03 36 81 0d  	ld	a2, 0xd8(sp)
   13e70: 83 3c 81 05  	ld	s9, 0x58(sp)
   13e74: 63 94 05 00  	bnez	a1, 0x13e7c <susan_corners+0x874>
   13e78: d3 87 94 22  	fmv.d	fa5, fs1
   13e7c: 13 15 05 03  	slli	a0, a0, 0x30
   13e80: 93 59 05 43  	srai	s3, a0, 0x30
   13e84: 53 07 0a 42  	fcvt.d.s	fa4, fs4
   13e88: d3 f7 e7 02  	fadd.d	fa5, fa5, fa4
   13e8c: d3 9a 07 c2  	fcvt.w.d	s5, fa5, rtz
   13e90: 83 35 01 10  	ld	a1, 0x100(sp)
   13e94: b3 85 35 01  	add	a1, a1, s3
   13e98: 13 05 06 00  	mv	a0, a2
   13e9c: ef c0 50 5a  	jal	0x20c40 <__muldi3>
   13ea0: b3 8a 5b 01  	add	s5, s7, s5
   13ea4: 3b 85 aa 00  	addw	a0, s5, a0
   13ea8: 33 85 ac 00  	add	a0, s9, a0
   13eac: 03 45 05 00  	lbu	a0, 0x0(a0)
   13eb0: 33 85 ad 40  	sub	a0, s11, a0
   13eb4: 83 4a 05 00  	lbu	s5, 0x0(a0)
   13eb8: d3 77 4a 01  	fadd.s	fa5, fs4, fs4
   13ebc: 53 95 87 a0  	flt.s	a0, fa5, fs0
   13ec0: 53 07 29 23  	fmv.d	fa4, fs2
   13ec4: 63 14 05 00  	bnez	a0, 0x13ecc <susan_corners+0x8c4>
   13ec8: 53 87 94 22  	fmv.d	fa4, fs1
   13ecc: 13 9b 19 00  	slli	s6, s3, 0x1
   13ed0: d3 87 07 42  	fcvt.d.s	fa5, fa5
   13ed4: d3 77 f7 02  	fadd.d	fa5, fa4, fa5
   13ed8: 53 9c 07 c2  	fcvt.w.d	s8, fa5, rtz
   13edc: 83 35 01 10  	ld	a1, 0x100(sp)
   13ee0: b3 85 65 01  	add	a1, a1, s6
   13ee4: 03 35 81 0d  	ld	a0, 0xd8(sp)
   13ee8: ef c0 90 55  	jal	0x20c40 <__muldi3>
   13eec: 33 8c 8b 01  	add	s8, s7, s8
   13ef0: 3b 05 ac 00  	addw	a0, s8, a0
   13ef4: 33 85 ac 00  	add	a0, s9, a0
   13ef8: 03 45 05 00  	lbu	a0, 0x0(a0)
   13efc: 33 85 ad 40  	sub	a0, s11, a0
   13f00: 03 45 05 00  	lbu	a0, 0x0(a0)
   13f04: d3 77 3a 11  	fmul.s	fa5, fs4, fs3
   13f08: d3 95 87 a0  	flt.s	a1, fa5, fs0
   13f0c: 53 07 29 23  	fmv.d	fa4, fs2
   13f10: 63 94 05 00  	bnez	a1, 0x13f18 <susan_corners+0x910>
   13f14: 53 87 94 22  	fmv.d	fa4, fs1
   13f18: b3 0a 55 01  	add	s5, a0, s5
   13f1c: b3 05 3b 01  	add	a1, s6, s3
   13f20: d3 87 07 42  	fcvt.d.s	fa5, fa5
   13f24: d3 77 f7 02  	fadd.d	fa5, fa4, fa5
   13f28: d3 99 07 c2  	fcvt.w.d	s3, fa5, rtz
   13f2c: 03 35 01 10  	ld	a0, 0x100(sp)
   13f30: b3 05 b5 00  	add	a1, a0, a1
   13f34: 03 35 81 0d  	ld	a0, 0xd8(sp)
   13f38: ef c0 90 50  	jal	0x20c40 <__muldi3>
   13f3c: b3 89 3b 01  	add	s3, s7, s3
   13f40: 3b 85 a9 00  	addw	a0, s3, a0
   13f44: 03 3b 01 13  	ld	s6, 0x130(sp)
   13f48: 33 85 ac 00  	add	a0, s9, a0
   13f4c: 03 45 05 00  	lbu	a0, 0x0(a0)
   13f50: 33 85 ad 40  	sub	a0, s11, a0
   13f54: 03 45 05 00  	lbu	a0, 0x0(a0)
   13f58: b3 8a aa 00  	add	s5, s5, a0
   13f5c: 83 35 81 14  	ld	a1, 0x148(sp)
   13f60: 13 06 30 12  	li	a2, 0x123
   13f64: 83 39 81 02  	ld	s3, 0x28(sp)
   13f68: 03 35 81 13  	ld	a0, 0x138(sp)
   13f6c: 63 e0 ca 04  	bltu	s5, a2, 0x13fac <susan_corners+0x9a4>
   13f70: bb 85 35 41  	subw	a1, a1, s3
   13f74: 23 20 b4 00  	sw	a1, 0x0(s0)
   13f78: 93 05 30 03  	li	a1, 0x33
   13f7c: ef c0 50 4c  	jal	0x20c40 <__muldi3>
   13f80: 1b 05 05 00  	sext.w	a0, a0
   13f84: 93 85 09 00  	mv	a1, s3
   13f88: ef c0 90 4f  	jal	0x20c80 <__divdi3>
   13f8c: 23 a0 a4 00  	sw	a0, 0x0(s1)
   13f90: 93 05 30 03  	li	a1, 0x33
   13f94: 13 05 0b 00  	mv	a0, s6
   13f98: ef c0 90 4a  	jal	0x20c40 <__muldi3>
   13f9c: 1b 05 05 00  	sext.w	a0, a0
   13fa0: 93 85 09 00  	mv	a1, s3
   13fa4: ef c0 d0 4d  	jal	0x20c80 <__divdi3>
   13fa8: 23 20 ad 00  	sw	a0, 0x0(s10)
   13fac: 13 09 19 00  	addi	s2, s2, 0x1
   13fb0: 93 8b 1b 00  	addi	s7, s7, 0x1
   13fb4: 13 0d 4d 00  	addi	s10, s10, 0x4
   13fb8: 93 84 44 00  	addi	s1, s1, 0x4
   13fbc: 13 0a 1a 00  	addi	s4, s4, 0x1
   13fc0: 13 04 44 00  	addi	s0, s0, 0x4
   13fc4: 03 35 01 14  	ld	a0, 0x140(sp)
   13fc8: e3 16 45 85  	bne	a0, s4, 0x13814 <susan_corners+0x20c>
   13fcc: 03 37 01 0f  	ld	a4, 0xf0(sp)
   13fd0: 13 07 17 00  	addi	a4, a4, 0x1
   13fd4: 83 36 01 10  	ld	a3, 0x100(sp)
   13fd8: 9b 86 16 00  	addiw	a3, a3, 0x1
   13fdc: 83 39 81 0d  	ld	s3, 0xd8(sp)
   13fe0: 03 35 81 11  	ld	a0, 0x118(sp)
   13fe4: 33 05 35 01  	add	a0, a0, s3
   13fe8: 23 3c a1 10  	sd	a0, 0x118(sp)
   13fec: 03 35 81 17  	ld	a0, 0x178(sp)
   13ff0: 33 05 35 01  	add	a0, a0, s3
   13ff4: 23 3c a1 16  	sd	a0, 0x178(sp)
   13ff8: 03 35 01 17  	ld	a0, 0x170(sp)
   13ffc: 33 05 35 01  	add	a0, a0, s3
   14000: 23 38 a1 16  	sd	a0, 0x170(sp)
   14004: 03 35 81 16  	ld	a0, 0x168(sp)
   14008: 33 05 35 01  	add	a0, a0, s3
   1400c: 23 34 a1 16  	sd	a0, 0x168(sp)
   14010: 03 35 01 16  	ld	a0, 0x160(sp)
   14014: 33 05 35 01  	add	a0, a0, s3
   14018: 23 30 a1 16  	sd	a0, 0x160(sp)
   1401c: 03 35 01 12  	ld	a0, 0x120(sp)
   14020: 33 05 35 01  	add	a0, a0, s3
   14024: 23 30 a1 12  	sd	a0, 0x120(sp)
   14028: 03 36 01 11  	ld	a2, 0x110(sp)
   1402c: 33 06 36 01  	add	a2, a2, s3
   14030: 83 35 81 10  	ld	a1, 0x108(sp)
   14034: b3 85 35 01  	add	a1, a1, s3
   14038: 03 35 01 0e  	ld	a0, 0xe0(sp)
   1403c: 63 10 a7 f8  	bne	a4, a0, 0x137bc <susan_corners+0x1b4>
   14040: 13 05 b0 00  	li	a0, 0xb
   14044: 83 35 81 07  	ld	a1, 0x78(sp)
   14048: 63 ce a5 34  	blt	a1, a0, 0x143a4 <susan_corners+0xd9c>
   1404c: 23 34 01 14  	sd	zero, 0x148(sp)
   14050: 03 34 81 06  	ld	s0, 0x68(sp)
   14054: 13 54 e4 01  	srli	s0, s0, 0x1e
   14058: 13 04 c4 fe  	addi	s0, s0, -0x14
   1405c: 03 35 01 07  	ld	a0, 0x70(sp)
   14060: 93 0c 05 02  	addi	s9, a0, 0x20
   14064: 93 94 29 00  	slli	s1, s3, 0x2
   14068: 13 05 05 01  	addi	a0, a0, 0x10
   1406c: 23 3c a1 16  	sd	a0, 0x178(sp)
   14070: 13 0b 50 00  	li	s6, 0x5
   14074: 93 05 a0 00  	li	a1, 0xa
   14078: 37 45 00 00  	lui	a0, 0x4
   1407c: 1b 05 85 a9  	addiw	a0, a0, -0x568
   14080: 23 30 a1 14  	sd	a0, 0x140(sp)
   14084: 63 de 35 2f  	bge	a1, s3, 0x14380 <susan_corners+0xd78>
   14088: 13 05 0b 00  	mv	a0, s6
   1408c: 93 85 09 00  	mv	a1, s3
   14090: ef c0 10 3b  	jal	0x20c40 <__muldi3>
   14094: 93 0b 05 00  	mv	s7, a0
   14098: 13 0c db ff  	addi	s8, s6, -0x3
   1409c: 13 0d eb ff  	addi	s10, s6, -0x2
   140a0: 93 0d fb ff  	addi	s11, s6, -0x1
   140a4: 13 09 1b 00  	addi	s2, s6, 0x1
   140a8: 93 09 2b 00  	addi	s3, s6, 0x2
   140ac: 13 0a 3b 00  	addi	s4, s6, 0x3
   140b0: 13 85 04 00  	mv	a0, s1
   140b4: 93 05 0b 00  	mv	a1, s6
   140b8: ef c0 90 38  	jal	0x20c40 <__muldi3>
   140bc: b3 8a ac 00  	add	s5, s9, a0
   140c0: 83 35 01 0c  	ld	a1, 0xc0(sp)
   140c4: b3 85 a5 00  	add	a1, a1, a0
   140c8: 23 30 b1 16  	sd	a1, 0x160(sp)
   140cc: 83 35 81 0c  	ld	a1, 0xc8(sp)
   140d0: 33 85 a5 00  	add	a0, a1, a0
   140d4: 23 3c a1 14  	sd	a0, 0x158(sp)
   140d8: 13 85 04 00  	mv	a0, s1
   140dc: 93 05 0a 00  	mv	a1, s4
   140e0: ef c0 10 36  	jal	0x20c40 <__muldi3>
   140e4: 03 3a 81 17  	ld	s4, 0x178(sp)
   140e8: 33 05 aa 00  	add	a0, s4, a0
   140ec: 23 38 a1 14  	sd	a0, 0x150(sp)
   140f0: 03 35 81 0b  	ld	a0, 0xb8(sp)
   140f4: b3 0b 75 01  	add	s7, a0, s7
   140f8: 13 85 04 00  	mv	a0, s1
   140fc: 93 05 0c 00  	mv	a1, s8
   14100: ef c0 10 34  	jal	0x20c40 <__muldi3>
   14104: 33 8c ac 00  	add	s8, s9, a0
   14108: 13 85 04 00  	mv	a0, s1
   1410c: 93 05 0d 00  	mv	a1, s10
   14110: ef c0 10 33  	jal	0x20c40 <__muldi3>
   14114: 33 8d ac 00  	add	s10, s9, a0
   14118: 13 85 04 00  	mv	a0, s1
   1411c: 93 85 0d 00  	mv	a1, s11
   14120: ef c0 10 32  	jal	0x20c40 <__muldi3>
   14124: 33 85 ac 00  	add	a0, s9, a0
   14128: 23 38 a1 16  	sd	a0, 0x170(sp)
   1412c: 13 85 04 00  	mv	a0, s1
   14130: 93 05 09 00  	mv	a1, s2
   14134: ef c0 d0 30  	jal	0x20c40 <__muldi3>
   14138: 33 85 ac 00  	add	a0, s9, a0
   1413c: 23 34 a1 16  	sd	a0, 0x168(sp)
   14140: 13 85 04 00  	mv	a0, s1
   14144: 93 85 09 00  	mv	a1, s3
   14148: ef c0 90 2f  	jal	0x20c40 <__muldi3>
   1414c: 93 09 00 00  	li	s3, 0x0
   14150: b3 0d aa 00  	add	s11, s4, a0
   14154: 13 0a 50 00  	li	s4, 0x5
   14158: b3 85 3a 01  	add	a1, s5, s3
   1415c: 03 a5 45 ff  	lw	a0, -0xc(a1)
   14160: 63 52 a0 20  	blez	a0, 0x14364 <susan_corners+0xd5c>
   14164: 33 06 3c 01  	add	a2, s8, s3
   14168: 83 26 86 fe  	lw	a3, -0x18(a2)
   1416c: 63 dc a6 1e  	bge	a3, a0, 0x14364 <susan_corners+0xd5c>
   14170: 83 26 c6 fe  	lw	a3, -0x14(a2)
   14174: 63 d8 a6 1e  	bge	a3, a0, 0x14364 <susan_corners+0xd5c>
   14178: 83 26 06 ff  	lw	a3, -0x10(a2)
   1417c: 63 d4 a6 1e  	bge	a3, a0, 0x14364 <susan_corners+0xd5c>
   14180: 83 26 46 ff  	lw	a3, -0xc(a2)
   14184: 63 d0 a6 1e  	bge	a3, a0, 0x14364 <susan_corners+0xd5c>
   14188: 83 26 86 ff  	lw	a3, -0x8(a2)
   1418c: 63 dc a6 1c  	bge	a3, a0, 0x14364 <susan_corners+0xd5c>
   14190: 83 26 c6 ff  	lw	a3, -0x4(a2)
   14194: 63 d8 a6 1c  	bge	a3, a0, 0x14364 <susan_corners+0xd5c>
   14198: 03 26 06 00  	lw	a2, 0x0(a2)
   1419c: 63 54 a6 1c  	bge	a2, a0, 0x14364 <susan_corners+0xd5c>
   141a0: 33 06 3d 01  	add	a2, s10, s3
   141a4: 83 26 86 fe  	lw	a3, -0x18(a2)
   141a8: 63 de a6 1a  	bge	a3, a0, 0x14364 <susan_corners+0xd5c>
   141ac: 83 26 c6 fe  	lw	a3, -0x14(a2)
   141b0: 63 da a6 1a  	bge	a3, a0, 0x14364 <susan_corners+0xd5c>
   141b4: 83 26 06 ff  	lw	a3, -0x10(a2)
   141b8: 63 d6 a6 1a  	bge	a3, a0, 0x14364 <susan_corners+0xd5c>
   141bc: 83 26 46 ff  	lw	a3, -0xc(a2)
   141c0: 63 d2 a6 1a  	bge	a3, a0, 0x14364 <susan_corners+0xd5c>
   141c4: 83 26 86 ff  	lw	a3, -0x8(a2)
   141c8: 63 de a6 18  	bge	a3, a0, 0x14364 <susan_corners+0xd5c>
   141cc: 83 26 c6 ff  	lw	a3, -0x4(a2)
   141d0: 63 da a6 18  	bge	a3, a0, 0x14364 <susan_corners+0xd5c>
   141d4: 03 26 06 00  	lw	a2, 0x0(a2)
   141d8: 63 56 a6 18  	bge	a2, a0, 0x14364 <susan_corners+0xd5c>
   141dc: 03 36 01 17  	ld	a2, 0x170(sp)
   141e0: 33 06 36 01  	add	a2, a2, s3
   141e4: 83 26 86 fe  	lw	a3, -0x18(a2)
   141e8: 63 de a6 16  	bge	a3, a0, 0x14364 <susan_corners+0xd5c>
   141ec: 83 26 c6 fe  	lw	a3, -0x14(a2)
   141f0: 63 da a6 16  	bge	a3, a0, 0x14364 <susan_corners+0xd5c>
   141f4: 83 26 06 ff  	lw	a3, -0x10(a2)
   141f8: 63 d6 a6 16  	bge	a3, a0, 0x14364 <susan_corners+0xd5c>
   141fc: 83 26 46 ff  	lw	a3, -0xc(a2)
   14200: 63 d2 a6 16  	bge	a3, a0, 0x14364 <susan_corners+0xd5c>
   14204: 83 26 86 ff  	lw	a3, -0x8(a2)
   14208: 63 de a6 14  	bge	a3, a0, 0x14364 <susan_corners+0xd5c>
   1420c: 83 26 c6 ff  	lw	a3, -0x4(a2)
   14210: 63 da a6 14  	bge	a3, a0, 0x14364 <susan_corners+0xd5c>
   14214: 03 26 06 00  	lw	a2, 0x0(a2)
   14218: 63 56 a6 14  	bge	a2, a0, 0x14364 <susan_corners+0xd5c>
   1421c: 03 a6 85 fe  	lw	a2, -0x18(a1)
   14220: 63 52 a6 14  	bge	a2, a0, 0x14364 <susan_corners+0xd5c>
   14224: 03 a6 c5 fe  	lw	a2, -0x14(a1)
   14228: 63 5e a6 12  	bge	a2, a0, 0x14364 <susan_corners+0xd5c>
   1422c: 03 a6 05 ff  	lw	a2, -0x10(a1)
   14230: 63 5a a6 12  	bge	a2, a0, 0x14364 <susan_corners+0xd5c>
   14234: 03 a6 85 ff  	lw	a2, -0x8(a1)
   14238: 63 46 c5 12  	blt	a0, a2, 0x14364 <susan_corners+0xd5c>
   1423c: 03 a6 c5 ff  	lw	a2, -0x4(a1)
   14240: 63 42 c5 12  	blt	a0, a2, 0x14364 <susan_corners+0xd5c>
   14244: 83 a5 05 00  	lw	a1, 0x0(a1)
   14248: 63 4e b5 10  	blt	a0, a1, 0x14364 <susan_corners+0xd5c>
   1424c: 83 35 81 16  	ld	a1, 0x168(sp)
   14250: b3 85 35 01  	add	a1, a1, s3
   14254: 03 a6 85 fe  	lw	a2, -0x18(a1)
   14258: 63 46 c5 10  	blt	a0, a2, 0x14364 <susan_corners+0xd5c>
   1425c: 03 a6 c5 fe  	lw	a2, -0x14(a1)
   14260: 63 42 c5 10  	blt	a0, a2, 0x14364 <susan_corners+0xd5c>
   14264: 03 a6 05 ff  	lw	a2, -0x10(a1)
   14268: 63 4e c5 0e  	blt	a0, a2, 0x14364 <susan_corners+0xd5c>
   1426c: 03 a6 45 ff  	lw	a2, -0xc(a1)
   14270: 63 4a c5 0e  	blt	a0, a2, 0x14364 <susan_corners+0xd5c>
   14274: 03 a6 85 ff  	lw	a2, -0x8(a1)
   14278: 63 46 c5 0e  	blt	a0, a2, 0x14364 <susan_corners+0xd5c>
   1427c: 03 a6 c5 ff  	lw	a2, -0x4(a1)
   14280: 63 42 c5 0e  	blt	a0, a2, 0x14364 <susan_corners+0xd5c>
   14284: 83 a5 05 00  	lw	a1, 0x0(a1)
   14288: 63 4e b5 0c  	blt	a0, a1, 0x14364 <susan_corners+0xd5c>
   1428c: b3 85 3d 01  	add	a1, s11, s3
   14290: 03 a6 85 ff  	lw	a2, -0x8(a1)
   14294: 63 48 c5 0c  	blt	a0, a2, 0x14364 <susan_corners+0xd5c>
   14298: 03 a6 c5 ff  	lw	a2, -0x4(a1)
   1429c: 63 44 c5 0c  	blt	a0, a2, 0x14364 <susan_corners+0xd5c>
   142a0: 03 a6 05 00  	lw	a2, 0x0(a1)
   142a4: 63 40 c5 0c  	blt	a0, a2, 0x14364 <susan_corners+0xd5c>
   142a8: 03 a6 45 00  	lw	a2, 0x4(a1)
   142ac: 63 4c c5 0a  	blt	a0, a2, 0x14364 <susan_corners+0xd5c>
   142b0: 03 a6 85 00  	lw	a2, 0x8(a1)
   142b4: 63 48 c5 0a  	blt	a0, a2, 0x14364 <susan_corners+0xd5c>
   142b8: 03 a6 c5 00  	lw	a2, 0xc(a1)
   142bc: 63 44 c5 0a  	blt	a0, a2, 0x14364 <susan_corners+0xd5c>
   142c0: 83 a5 05 01  	lw	a1, 0x10(a1)
   142c4: 63 40 b5 0a  	blt	a0, a1, 0x14364 <susan_corners+0xd5c>
   142c8: 83 35 01 15  	ld	a1, 0x150(sp)
   142cc: b3 85 35 01  	add	a1, a1, s3
   142d0: 03 a6 85 ff  	lw	a2, -0x8(a1)
   142d4: 63 48 c5 08  	blt	a0, a2, 0x14364 <susan_corners+0xd5c>
   142d8: 03 a6 c5 ff  	lw	a2, -0x4(a1)
   142dc: 63 44 c5 08  	blt	a0, a2, 0x14364 <susan_corners+0xd5c>
   142e0: 03 a6 05 00  	lw	a2, 0x0(a1)
   142e4: 63 40 c5 08  	blt	a0, a2, 0x14364 <susan_corners+0xd5c>
   142e8: 03 a6 45 00  	lw	a2, 0x4(a1)
   142ec: 63 4c c5 06  	blt	a0, a2, 0x14364 <susan_corners+0xd5c>
   142f0: 03 a6 85 00  	lw	a2, 0x8(a1)
   142f4: 63 48 c5 06  	blt	a0, a2, 0x14364 <susan_corners+0xd5c>
   142f8: 03 a6 c5 00  	lw	a2, 0xc(a1)
   142fc: 63 44 c5 06  	blt	a0, a2, 0x14364 <susan_corners+0xd5c>
   14300: 83 a5 05 01  	lw	a1, 0x10(a1)
   14304: 63 40 b5 06  	blt	a0, a1, 0x14364 <susan_corners+0xd5c>
   14308: 93 05 80 01  	li	a1, 0x18
   1430c: 03 35 81 14  	ld	a0, 0x148(sp)
   14310: ef c0 10 13  	jal	0x20c40 <__muldi3>
   14314: 83 35 01 16  	ld	a1, 0x160(sp)
   14318: b3 85 35 01  	add	a1, a1, s3
   1431c: 83 a5 05 00  	lw	a1, 0x0(a1)
   14320: 03 36 01 09  	ld	a2, 0x90(sp)
   14324: 33 05 a6 00  	add	a0, a2, a0
   14328: 23 26 b5 00  	sw	a1, 0xc(a0)
   1432c: 83 35 81 15  	ld	a1, 0x158(sp)
   14330: b3 85 35 01  	add	a1, a1, s3
   14334: 83 a5 05 00  	lw	a1, 0x0(a1)
   14338: 23 24 05 00  	sw	zero, 0x8(a0)
   1433c: 23 20 45 01  	sw	s4, 0x0(a0)
   14340: 23 22 65 01  	sw	s6, 0x4(a0)
   14344: 23 28 b5 00  	sw	a1, 0x10(a0)
   14348: 83 c5 0b 00  	lbu	a1, 0x0(s7)
   1434c: 03 36 81 14  	ld	a2, 0x148(sp)
   14350: 1b 06 16 00  	addiw	a2, a2, 0x1
   14354: 23 2a b5 00  	sw	a1, 0x14(a0)
   14358: 23 34 c1 14  	sd	a2, 0x148(sp)
   1435c: 03 35 01 14  	ld	a0, 0x140(sp)
   14360: 63 02 a6 0c  	beq	a2, a0, 0x14424 <susan_corners+0xe1c>
   14364: 93 89 49 00  	addi	s3, s3, 0x4
   14368: 93 8b 1b 00  	addi	s7, s7, 0x1
   1436c: 13 0a 1a 00  	addi	s4, s4, 0x1
   14370: e3 14 34 df  	bne	s0, s3, 0x14158 <susan_corners+0xb50>
   14374: 83 39 81 0d  	ld	s3, 0xd8(sp)
   14378: 93 05 a0 00  	li	a1, 0xa
   1437c: 6f 00 80 00  	j	0x14384 <susan_corners+0xd7c>
   14380: 13 09 1b 00  	addi	s2, s6, 0x1
   14384: 13 0b 09 00  	mv	s6, s2
   14388: 03 35 01 0e  	ld	a0, 0xe0(sp)
   1438c: e3 1c a9 ce  	bne	s2, a0, 0x14084 <susan_corners+0xa7c>
   14390: 03 34 01 09  	ld	s0, 0x90(sp)
   14394: 03 39 81 08  	ld	s2, 0x88(sp)
   14398: 83 34 01 08  	ld	s1, 0x80(sp)
   1439c: 03 35 81 14  	ld	a0, 0x148(sp)
   143a0: 6f 00 40 01  	j	0x143b4 <susan_corners+0xdac>
   143a4: 13 05 00 00  	li	a0, 0x0
   143a8: 03 34 01 09  	ld	s0, 0x90(sp)
   143ac: 03 39 81 08  	ld	s2, 0x88(sp)
   143b0: 83 34 01 08  	ld	s1, 0x80(sp)
   143b4: 93 05 80 01  	li	a1, 0x18
   143b8: ef c0 90 08  	jal	0x20c40 <__muldi3>
   143bc: 33 05 a4 00  	add	a0, s0, a0
   143c0: 93 05 70 00  	li	a1, 0x7
   143c4: 23 24 b5 00  	sw	a1, 0x8(a0)
   143c8: 13 05 09 00  	mv	a0, s2
   143cc: ef 10 40 2f  	jal	0x156c0 <free>
   143d0: 13 85 04 00  	mv	a0, s1
   143d4: 83 30 81 20  	ld	ra, 0x208(sp)
   143d8: 03 34 01 20  	ld	s0, 0x200(sp)
   143dc: 83 34 81 1f  	ld	s1, 0x1f8(sp)
   143e0: 03 39 01 1f  	ld	s2, 0x1f0(sp)
   143e4: 83 39 81 1e  	ld	s3, 0x1e8(sp)
   143e8: 03 3a 01 1e  	ld	s4, 0x1e0(sp)
   143ec: 83 3a 81 1d  	ld	s5, 0x1d8(sp)
   143f0: 03 3b 01 1d  	ld	s6, 0x1d0(sp)
   143f4: 83 3b 81 1c  	ld	s7, 0x1c8(sp)
   143f8: 03 3c 01 1c  	ld	s8, 0x1c0(sp)
   143fc: 83 3c 81 1b  	ld	s9, 0x1b8(sp)
   14400: 03 3d 01 1b  	ld	s10, 0x1b0(sp)
   14404: 83 3d 81 1a  	ld	s11, 0x1a8(sp)
   14408: 07 34 01 1a  	fld	fs0, 0x1a0(sp)
   1440c: 87 34 81 19  	fld	fs1, 0x198(sp)
   14410: 07 39 01 19  	fld	fs2, 0x190(sp)
   14414: 87 39 81 18  	fld	fs3, 0x188(sp)
   14418: 07 3a 01 18  	fld	fs4, 0x180(sp)
   1441c: 13 01 01 21  	addi	sp, sp, 0x210
   14420: 6f 10 00 2a  	j	0x156c0 <free>
   14424: 03 b5 01 23  	ld	a0, 0x230(gp)
   14428: 83 36 85 01  	ld	a3, 0x18(a0)
   1442c: 37 15 02 00  	lui	a0, 0x21
   14430: 13 05 d5 ec  	addi	a0, a0, -0x133
   14434: 93 05 20 01  	li	a1, 0x12
   14438: 13 06 10 00  	li	a2, 0x1
   1443c: ef 30 20 50  	jal	0x1793e <fwrite>
   14440: 13 05 10 00  	li	a0, 0x1
   14444: ef b0 df cd  	jal	0x10120 <exit>

0000000000014448 <susan_corners_quick>:
   14448: ef c2 40 78  	jal	t0, 0x20bcc <__riscv_save_12>
   1444c: 13 01 01 f6  	addi	sp, sp, -0xa0
   14450: 93 09 08 00  	mv	s3, a6
   14454: 93 84 07 00  	mv	s1, a5
   14458: 13 04 07 00  	mv	s0, a4
   1445c: 93 8b 06 00  	mv	s7, a3
   14460: 13 0c 06 00  	mv	s8, a2
   14464: 13 89 05 00  	mv	s2, a1
   14468: 93 0a 05 00  	mv	s5, a0
   1446c: 13 05 08 00  	mv	a0, a6
   14470: 93 85 07 00  	mv	a1, a5
   14474: ef c0 c0 7c  	jal	0x20c40 <__muldi3>
   14478: 1b 05 05 00  	sext.w	a0, a0
   1447c: 13 16 25 00  	slli	a2, a0, 0x2
   14480: 13 05 09 00  	mv	a0, s2
   14484: 93 05 00 00  	li	a1, 0x0
   14488: ef 40 e0 12  	jal	0x185b6 <memset>
   1448c: 93 05 f0 00  	li	a1, 0xf
   14490: 13 05 00 00  	li	a0, 0x0
   14494: e3 c0 b9 1c  	blt	s3, a1, 0x14e54 <susan_corners_quick+0xa0c>
   14498: 23 34 81 02  	sd	s0, 0x28(sp)
   1449c: 23 38 31 09  	sd	s3, 0x90(sp)
   144a0: 1b 85 99 ff  	addiw	a0, s3, -0x7
   144a4: 23 3c a1 08  	sd	a0, 0x98(sp)
   144a8: 13 85 94 ff  	addi	a0, s1, -0x7
   144ac: 9b 8e d4 ff  	addiw	t4, s1, -0x3
   144b0: 1b 8e b4 ff  	addiw	t3, s1, -0x5
   144b4: 9b 83 a4 ff  	addiw	t2, s1, -0x6
   144b8: 13 15 05 02  	slli	a0, a0, 0x20
   144bc: 23 30 a1 08  	sd	a0, 0x80(sp)
   144c0: 93 57 05 02  	srli	a5, a0, 0x20
   144c4: 23 34 21 09  	sd	s2, 0x88(sp)
   144c8: 13 06 c9 01  	addi	a2, s2, 0x1c
   144cc: 93 96 34 00  	slli	a3, s1, 0x3
   144d0: bb 86 96 40  	subw	a3, a3, s1
   144d4: 13 87 7a 00  	addi	a4, s5, 0x7
   144d8: 93 87 97 ff  	addi	a5, a5, -0x7
   144dc: 13 95 24 00  	slli	a0, s1, 0x2
   144e0: 33 88 aa 00  	add	a6, s5, a0
   144e4: b3 02 d5 01  	add	t0, a0, t4
   144e8: b3 88 5a 00  	add	a7, s5, t0
   144ec: 33 83 c2 01  	add	t1, t0, t3
   144f0: b3 82 6a 00  	add	t0, s5, t1
   144f4: 33 8f 53 01  	add	t5, t2, s5
   144f8: 33 03 e3 01  	add	t1, t1, t5
   144fc: 13 03 23 01  	addi	t1, t1, 0x12
   14500: 93 93 13 00  	slli	t2, t2, 0x1
   14504: 23 30 a1 06  	sd	a0, 0x60(sp)
   14508: 33 0f 75 00  	add	t5, a0, t2
   1450c: b3 83 ce 01  	add	t2, t4, t3
   14510: b3 83 53 01  	add	t2, t2, s5
   14514: b3 03 7f 00  	add	t2, t5, t2
   14518: 93 83 83 01  	addi	t2, t2, 0x18
   1451c: 13 1e 1e 00  	slli	t3, t3, 0x1
   14520: 33 0f cf 01  	add	t5, t5, t3
   14524: 33 8e 5e 01  	add	t3, t4, s5
   14528: 33 0e cf 01  	add	t3, t5, t3
   1452c: 13 0e ee 01  	addi	t3, t3, 0x1e
   14530: 93 9e 1e 00  	slli	t4, t4, 0x1
   14534: b3 8e 5e 01  	add	t4, t4, s5
   14538: b3 0e df 01  	add	t4, t5, t4
   1453c: 93 8e 2e 02  	addi	t4, t4, 0x22
   14540: 13 0f 70 00  	li	t5, 0x7
   14544: 63 c2 b4 2e  	blt	s1, a1, 0x14828 <susan_corners_quick+0x3e0>
   14548: 93 0f 00 00  	li	t6, 0x0
   1454c: 13 94 06 02  	slli	s0, a3, 0x20
   14550: 13 59 04 02  	srli	s2, s0, 0x20
   14554: 13 54 e4 01  	srli	s0, s0, 0x1e
   14558: 33 04 86 00  	add	s0, a2, s0
   1455c: 33 09 27 01  	add	s2, a4, s2
   14560: b3 0c f8 01  	add	s9, a6, t6
   14564: b3 09 f9 01  	add	s3, s2, t6
   14568: 83 c9 09 00  	lbu	s3, 0x0(s3)
   1456c: 03 cd 6c 00  	lbu	s10, 0x6(s9)
   14570: 83 cd 7c 00  	lbu	s11, 0x7(s9)
   14574: b3 09 3c 01  	add	s3, s8, s3
   14578: 33 8d a9 41  	sub	s10, s3, s10
   1457c: 03 4d 0d 00  	lbu	s10, 0x0(s10)
   14580: b3 8d b9 41  	sub	s11, s3, s11
   14584: 83 cd 0d 00  	lbu	s11, 0x0(s11)
   14588: 83 cc 8c 00  	lbu	s9, 0x8(s9)
   1458c: 33 0d bd 01  	add	s10, s10, s11
   14590: b3 8d f8 01  	add	s11, a7, t6
   14594: 83 c0 8d 00  	lbu	ra, 0x8(s11)
   14598: b3 8c 99 41  	sub	s9, s3, s9
   1459c: 83 cc 0c 00  	lbu	s9, 0x0(s9)
   145a0: 03 c5 9d 00  	lbu	a0, 0x9(s11)
   145a4: b3 80 19 40  	sub	ra, s3, ra
   145a8: 83 c0 00 00  	lbu	ra, 0x0(ra)
   145ac: 03 ca ad 00  	lbu	s4, 0xa(s11)
   145b0: 33 85 a9 40  	sub	a0, s3, a0
   145b4: 03 cb bd 00  	lbu	s6, 0xb(s11)
   145b8: 03 45 05 00  	lbu	a0, 0x0(a0)
   145bc: 33 8a 49 41  	sub	s4, s3, s4
   145c0: 03 4a 0a 00  	lbu	s4, 0x0(s4)
   145c4: 33 8b 69 41  	sub	s6, s3, s6
   145c8: 03 4b 0b 00  	lbu	s6, 0x0(s6)
   145cc: b3 8c 1c 00  	add	s9, s9, ra
   145d0: b3 0c 9d 01  	add	s9, s10, s9
   145d4: 33 05 45 01  	add	a0, a0, s4
   145d8: 33 05 65 01  	add	a0, a0, s6
   145dc: 03 ca cd 00  	lbu	s4, 0xc(s11)
   145e0: 33 85 ac 00  	add	a0, s9, a0
   145e4: 33 8b f2 01  	add	s6, t0, t6
   145e8: 83 4c cb 00  	lbu	s9, 0xc(s6)
   145ec: 33 8a 49 41  	sub	s4, s3, s4
   145f0: 03 4a 0a 00  	lbu	s4, 0x0(s4)
   145f4: 03 4d db 00  	lbu	s10, 0xd(s6)
   145f8: b3 8c 99 41  	sub	s9, s3, s9
   145fc: 83 4d eb 00  	lbu	s11, 0xe(s6)
   14600: 83 cc 0c 00  	lbu	s9, 0x0(s9)
   14604: 33 8d a9 41  	sub	s10, s3, s10
   14608: 03 4d 0d 00  	lbu	s10, 0x0(s10)
   1460c: b3 8d b9 41  	sub	s11, s3, s11
   14610: 83 cd 0d 00  	lbu	s11, 0x0(s11)
   14614: 33 0a 9a 01  	add	s4, s4, s9
   14618: 83 4c fb 00  	lbu	s9, 0xf(s6)
   1461c: 33 0a aa 01  	add	s4, s4, s10
   14620: 33 0a ba 01  	add	s4, s4, s11
   14624: 03 4d 0b 01  	lbu	s10, 0x10(s6)
   14628: b3 8c 99 41  	sub	s9, s3, s9
   1462c: 83 4d 1b 01  	lbu	s11, 0x11(s6)
   14630: 83 cc 0c 00  	lbu	s9, 0x0(s9)
   14634: 33 8d a9 41  	sub	s10, s3, s10
   14638: 03 4d 0d 00  	lbu	s10, 0x0(s10)
   1463c: b3 8d b9 41  	sub	s11, s3, s11
   14640: 83 cd 0d 00  	lbu	s11, 0x0(s11)
   14644: 33 05 45 01  	add	a0, a0, s4
   14648: b3 8c ac 01  	add	s9, s9, s10
   1464c: 03 4a 2b 01  	lbu	s4, 0x12(s6)
   14650: b3 8d bc 01  	add	s11, s9, s11
   14654: b3 0c f3 01  	add	s9, t1, t6
   14658: 03 cb 0c 00  	lbu	s6, 0x0(s9)
   1465c: 33 8a 49 41  	sub	s4, s3, s4
   14660: 03 4a 0a 00  	lbu	s4, 0x0(s4)
   14664: 03 cd 1c 00  	lbu	s10, 0x1(s9)
   14668: 33 8b 69 41  	sub	s6, s3, s6
   1466c: 83 c0 2c 00  	lbu	ra, 0x2(s9)
   14670: 03 4b 0b 00  	lbu	s6, 0x0(s6)
   14674: 33 8d a9 41  	sub	s10, s3, s10
   14678: 03 4d 0d 00  	lbu	s10, 0x0(s10)
   1467c: b3 80 19 40  	sub	ra, s3, ra
   14680: 83 c0 00 00  	lbu	ra, 0x0(ra)
   14684: 33 8a 4d 01  	add	s4, s11, s4
   14688: 33 0a 6a 01  	add	s4, s4, s6
   1468c: 33 05 45 01  	add	a0, a0, s4
   14690: 33 0d 1d 00  	add	s10, s10, ra
   14694: 33 05 a5 01  	add	a0, a0, s10
   14698: 1b 0d 45 06  	addiw	s10, a0, 0x64
   1469c: 63 50 7d 19  	bge	s10, s7, 0x1481c <susan_corners_quick+0x3d4>
   146a0: 03 c5 4c 00  	lbu	a0, 0x4(s9)
   146a4: 33 85 a9 40  	sub	a0, s3, a0
   146a8: 03 45 05 00  	lbu	a0, 0x0(a0)
   146ac: 3b 0d ad 00  	addw	s10, s10, a0
   146b0: 63 76 7d 17  	bgeu	s10, s7, 0x1481c <susan_corners_quick+0x3d4>
   146b4: 03 c5 5c 00  	lbu	a0, 0x5(s9)
   146b8: 33 85 a9 40  	sub	a0, s3, a0
   146bc: 03 45 05 00  	lbu	a0, 0x0(a0)
   146c0: 3b 0d ad 00  	addw	s10, s10, a0
   146c4: 63 7c 7d 15  	bgeu	s10, s7, 0x1481c <susan_corners_quick+0x3d4>
   146c8: 03 c5 6c 00  	lbu	a0, 0x6(s9)
   146cc: 33 85 a9 40  	sub	a0, s3, a0
   146d0: 03 45 05 00  	lbu	a0, 0x0(a0)
   146d4: 3b 0d ad 00  	addw	s10, s10, a0
   146d8: 63 72 7d 15  	bgeu	s10, s7, 0x1481c <susan_corners_quick+0x3d4>
   146dc: b3 8c f3 01  	add	s9, t2, t6
   146e0: 03 c5 0c 00  	lbu	a0, 0x0(s9)
   146e4: 33 85 a9 40  	sub	a0, s3, a0
   146e8: 03 45 05 00  	lbu	a0, 0x0(a0)
   146ec: 3b 0d ad 00  	addw	s10, s10, a0
   146f0: 63 76 7d 13  	bgeu	s10, s7, 0x1481c <susan_corners_quick+0x3d4>
   146f4: 03 c5 1c 00  	lbu	a0, 0x1(s9)
   146f8: 33 85 a9 40  	sub	a0, s3, a0
   146fc: 03 45 05 00  	lbu	a0, 0x0(a0)
   14700: 3b 0d ad 00  	addw	s10, s10, a0
   14704: 63 7c 7d 11  	bgeu	s10, s7, 0x1481c <susan_corners_quick+0x3d4>
   14708: 03 c5 2c 00  	lbu	a0, 0x2(s9)
   1470c: 33 85 a9 40  	sub	a0, s3, a0
   14710: 03 45 05 00  	lbu	a0, 0x0(a0)
   14714: 3b 0d ad 00  	addw	s10, s10, a0
   14718: 63 72 7d 11  	bgeu	s10, s7, 0x1481c <susan_corners_quick+0x3d4>
   1471c: 03 c5 3c 00  	lbu	a0, 0x3(s9)
   14720: 33 85 a9 40  	sub	a0, s3, a0
   14724: 03 45 05 00  	lbu	a0, 0x0(a0)
   14728: 3b 0d ad 00  	addw	s10, s10, a0
   1472c: 63 78 7d 0f  	bgeu	s10, s7, 0x1481c <susan_corners_quick+0x3d4>
   14730: 03 c5 4c 00  	lbu	a0, 0x4(s9)
   14734: 33 85 a9 40  	sub	a0, s3, a0
   14738: 03 45 05 00  	lbu	a0, 0x0(a0)
   1473c: 3b 0d ad 00  	addw	s10, s10, a0
   14740: 63 7e 7d 0d  	bgeu	s10, s7, 0x1481c <susan_corners_quick+0x3d4>
   14744: 03 c5 5c 00  	lbu	a0, 0x5(s9)
   14748: 33 85 a9 40  	sub	a0, s3, a0
   1474c: 03 45 05 00  	lbu	a0, 0x0(a0)
   14750: 3b 0d ad 00  	addw	s10, s10, a0
   14754: 63 74 7d 0d  	bgeu	s10, s7, 0x1481c <susan_corners_quick+0x3d4>
   14758: 03 c5 6c 00  	lbu	a0, 0x6(s9)
   1475c: 33 85 a9 40  	sub	a0, s3, a0
   14760: 03 45 05 00  	lbu	a0, 0x0(a0)
   14764: 3b 0d ad 00  	addw	s10, s10, a0
   14768: 63 7a 7d 0b  	bgeu	s10, s7, 0x1481c <susan_corners_quick+0x3d4>
   1476c: b3 0c fe 01  	add	s9, t3, t6
   14770: 03 c5 0c 00  	lbu	a0, 0x0(s9)
   14774: 33 85 a9 40  	sub	a0, s3, a0
   14778: 03 45 05 00  	lbu	a0, 0x0(a0)
   1477c: 3b 0d ad 00  	addw	s10, s10, a0
   14780: 63 7e 7d 09  	bgeu	s10, s7, 0x1481c <susan_corners_quick+0x3d4>
   14784: 03 c5 1c 00  	lbu	a0, 0x1(s9)
   14788: 33 85 a9 40  	sub	a0, s3, a0
   1478c: 03 45 05 00  	lbu	a0, 0x0(a0)
   14790: 3b 0d ad 00  	addw	s10, s10, a0
   14794: 63 74 7d 09  	bgeu	s10, s7, 0x1481c <susan_corners_quick+0x3d4>
   14798: 03 c5 2c 00  	lbu	a0, 0x2(s9)
   1479c: 33 85 a9 40  	sub	a0, s3, a0
   147a0: 03 45 05 00  	lbu	a0, 0x0(a0)
   147a4: 3b 0d ad 00  	addw	s10, s10, a0
   147a8: 63 7a 7d 07  	bgeu	s10, s7, 0x1481c <susan_corners_quick+0x3d4>
   147ac: 03 c5 3c 00  	lbu	a0, 0x3(s9)
   147b0: 33 85 a9 40  	sub	a0, s3, a0
   147b4: 03 45 05 00  	lbu	a0, 0x0(a0)
   147b8: 3b 0d ad 00  	addw	s10, s10, a0
   147bc: 63 70 7d 07  	bgeu	s10, s7, 0x1481c <susan_corners_quick+0x3d4>
   147c0: 03 c5 4c 00  	lbu	a0, 0x4(s9)
   147c4: 33 85 a9 40  	sub	a0, s3, a0
   147c8: 03 45 05 00  	lbu	a0, 0x0(a0)
   147cc: 3b 0d ad 00  	addw	s10, s10, a0
   147d0: 63 76 7d 05  	bgeu	s10, s7, 0x1481c <susan_corners_quick+0x3d4>
   147d4: b3 8c fe 01  	add	s9, t4, t6
   147d8: 03 c5 0c 00  	lbu	a0, 0x0(s9)
   147dc: 33 85 a9 40  	sub	a0, s3, a0
   147e0: 03 45 05 00  	lbu	a0, 0x0(a0)
   147e4: 3b 0d ad 00  	addw	s10, s10, a0
   147e8: 63 7a 7d 03  	bgeu	s10, s7, 0x1481c <susan_corners_quick+0x3d4>
   147ec: 03 c5 1c 00  	lbu	a0, 0x1(s9)
   147f0: 33 85 a9 40  	sub	a0, s3, a0
   147f4: 03 45 05 00  	lbu	a0, 0x0(a0)
   147f8: 3b 0d ad 00  	addw	s10, s10, a0
   147fc: 63 70 7d 03  	bgeu	s10, s7, 0x1481c <susan_corners_quick+0x3d4>
   14800: 03 c5 2c 00  	lbu	a0, 0x2(s9)
   14804: 33 85 a9 40  	sub	a0, s3, a0
   14808: 03 45 05 00  	lbu	a0, 0x0(a0)
   1480c: bb 09 ad 00  	addw	s3, s10, a0
   14810: 63 f6 79 01  	bgeu	s3, s7, 0x1481c <susan_corners_quick+0x3d4>
   14814: 3b 85 3b 41  	subw	a0, s7, s3
   14818: 23 20 a4 00  	sw	a0, 0x0(s0)
   1481c: 93 8f 1f 00  	addi	t6, t6, 0x1
   14820: 13 04 44 00  	addi	s0, s0, 0x4
   14824: e3 9e f7 d3  	bne	a5, t6, 0x14560 <susan_corners_quick+0x118>
   14828: 13 0f 1f 00  	addi	t5, t5, 0x1
   1482c: b3 86 96 00  	add	a3, a3, s1
   14830: 33 08 98 00  	add	a6, a6, s1
   14834: b3 88 98 00  	add	a7, a7, s1
   14838: b3 82 92 00  	add	t0, t0, s1
   1483c: 33 03 93 00  	add	t1, t1, s1
   14840: b3 83 93 00  	add	t2, t2, s1
   14844: 33 0e 9e 00  	add	t3, t3, s1
   14848: b3 8e 9e 00  	add	t4, t4, s1
   1484c: 03 35 81 09  	ld	a0, 0x98(sp)
   14850: e3 1a af ce  	bne	t5, a0, 0x14544 <susan_corners_quick+0xfc>
   14854: 93 05 f0 00  	li	a1, 0xf
   14858: 03 35 01 09  	ld	a0, 0x90(sp)
   1485c: 63 48 b5 5e  	blt	a0, a1, 0x14e4c <susan_corners_quick+0xa04>
   14860: 23 30 01 02  	sd	zero, 0x20(sp)
   14864: 03 35 01 08  	ld	a0, 0x80(sp)
   14868: 13 55 e5 01  	srli	a0, a0, 0x1e
   1486c: 13 0b 45 fe  	addi	s6, a0, -0x1c
   14870: 93 8a 9a 00  	addi	s5, s5, 0x9
   14874: 23 3c 51 05  	sd	s5, 0x58(sp)
   14878: 83 35 81 08  	ld	a1, 0x88(sp)
   1487c: 13 85 85 02  	addi	a0, a1, 0x28
   14880: 23 38 a1 04  	sd	a0, 0x50(sp)
   14884: 13 85 45 01  	addi	a0, a1, 0x14
   14888: 23 30 a1 04  	sd	a0, 0x40(sp)
   1488c: 93 09 70 00  	li	s3, 0x7
   14890: 93 05 e0 00  	li	a1, 0xe
   14894: 37 45 00 00  	lui	a0, 0x4
   14898: 1b 05 85 a9  	addiw	a0, a0, -0x568
   1489c: 23 3c a1 00  	sd	a0, 0x18(sp)
   148a0: 23 34 91 04  	sd	s1, 0x48(sp)
   148a4: 63 d6 95 58  	bge	a1, s1, 0x14e30 <susan_corners_quick+0x9e8>
   148a8: 13 85 09 00  	mv	a0, s3
   148ac: 93 85 04 00  	mv	a1, s1
   148b0: ef c0 00 39  	jal	0x20c40 <__muldi3>
   148b4: 93 0b 05 00  	mv	s7, a0
   148b8: 13 85 d9 ff  	addi	a0, s3, -0x3
   148bc: 23 38 a1 08  	sd	a0, 0x90(sp)
   148c0: 13 8c e9 ff  	addi	s8, s3, -0x2
   148c4: 13 05 0c 00  	mv	a0, s8
   148c8: 93 85 04 00  	mv	a1, s1
   148cc: ef c0 40 37  	jal	0x20c40 <__muldi3>
   148d0: 93 0c 05 00  	mv	s9, a0
   148d4: 13 85 f9 ff  	addi	a0, s3, -0x1
   148d8: 23 30 a1 08  	sd	a0, 0x80(sp)
   148dc: 93 85 04 00  	mv	a1, s1
   148e0: ef c0 00 36  	jal	0x20c40 <__muldi3>
   148e4: 93 0d 05 00  	mv	s11, a0
   148e8: 13 8d 19 00  	addi	s10, s3, 0x1
   148ec: 13 05 0d 00  	mv	a0, s10
   148f0: 93 85 04 00  	mv	a1, s1
   148f4: ef c0 c0 34  	jal	0x20c40 <__muldi3>
   148f8: 23 38 a1 06  	sd	a0, 0x70(sp)
   148fc: 13 85 29 00  	addi	a0, s3, 0x2
   14900: 23 34 a1 08  	sd	a0, 0x88(sp)
   14904: 93 85 04 00  	mv	a1, s1
   14908: ef c0 80 33  	jal	0x20c40 <__muldi3>
   1490c: 23 3c a1 06  	sd	a0, 0x78(sp)
   14910: 13 84 39 00  	addi	s0, s3, 0x3
   14914: 03 39 81 05  	ld	s2, 0x58(sp)
   14918: b3 0b 79 01  	add	s7, s2, s7
   1491c: 03 3a 01 06  	ld	s4, 0x60(sp)
   14920: 13 05 0a 00  	mv	a0, s4
   14924: 23 3c 31 03  	sd	s3, 0x38(sp)
   14928: 93 85 09 00  	mv	a1, s3
   1492c: ef c0 40 31  	jal	0x20c40 <__muldi3>
   14930: 83 39 01 05  	ld	s3, 0x50(sp)
   14934: b3 84 a9 00  	add	s1, s3, a0
   14938: b3 0c 99 01  	add	s9, s2, s9
   1493c: 13 05 0a 00  	mv	a0, s4
   14940: 93 05 0c 00  	mv	a1, s8
   14944: ef c0 c0 2f  	jal	0x20c40 <__muldi3>
   14948: 83 3a 01 04  	ld	s5, 0x40(sp)
   1494c: 33 85 aa 00  	add	a0, s5, a0
   14950: 23 34 a1 06  	sd	a0, 0x68(sp)
   14954: 13 05 0a 00  	mv	a0, s4
   14958: 93 05 04 00  	mv	a1, s0
   1495c: ef c0 40 2e  	jal	0x20c40 <__muldi3>
   14960: 33 85 aa 00  	add	a0, s5, a0
   14964: 23 38 a1 02  	sd	a0, 0x30(sp)
   14968: b3 0d b9 01  	add	s11, s2, s11
   1496c: 13 05 0a 00  	mv	a0, s4
   14970: 83 35 01 08  	ld	a1, 0x80(sp)
   14974: ef c0 c0 2c  	jal	0x20c40 <__muldi3>
   14978: 33 85 aa 00  	add	a0, s5, a0
   1497c: 23 30 a1 08  	sd	a0, 0x80(sp)
   14980: 03 34 01 07  	ld	s0, 0x70(sp)
   14984: 33 04 89 00  	add	s0, s2, s0
   14988: 13 05 0a 00  	mv	a0, s4
   1498c: 13 0c 0d 00  	mv	s8, s10
   14990: 93 05 0d 00  	mv	a1, s10
   14994: ef c0 c0 2a  	jal	0x20c40 <__muldi3>
   14998: 33 85 a9 00  	add	a0, s3, a0
   1499c: 23 38 a1 06  	sd	a0, 0x70(sp)
   149a0: 03 35 81 07  	ld	a0, 0x78(sp)
   149a4: 33 09 a9 00  	add	s2, s2, a0
   149a8: 13 05 0a 00  	mv	a0, s4
   149ac: 83 35 81 08  	ld	a1, 0x88(sp)
   149b0: ef c0 00 29  	jal	0x20c40 <__muldi3>
   149b4: b3 89 a9 00  	add	s3, s3, a0
   149b8: 13 05 0a 00  	mv	a0, s4
   149bc: 83 35 01 09  	ld	a1, 0x90(sp)
   149c0: ef c0 00 28  	jal	0x20c40 <__muldi3>
   149c4: 13 0d 00 00  	li	s10, 0x0
   149c8: b3 8a aa 00  	add	s5, s5, a0
   149cc: 13 0a 70 00  	li	s4, 0x7
   149d0: b3 85 a4 01  	add	a1, s1, s10
   149d4: 03 a5 45 ff  	lw	a0, -0xc(a1)
   149d8: 63 56 a0 42  	blez	a0, 0x14e04 <susan_corners_quick+0x9bc>
   149dc: 33 86 aa 01  	add	a2, s5, s10
   149e0: 83 26 c6 ff  	lw	a3, -0x4(a2)
   149e4: 63 d0 a6 42  	bge	a3, a0, 0x14e04 <susan_corners_quick+0x9bc>
   149e8: 83 26 06 00  	lw	a3, 0x0(a2)
   149ec: 63 dc a6 40  	bge	a3, a0, 0x14e04 <susan_corners_quick+0x9bc>
   149f0: 83 26 46 00  	lw	a3, 0x4(a2)
   149f4: 63 d8 a6 40  	bge	a3, a0, 0x14e04 <susan_corners_quick+0x9bc>
   149f8: 83 26 86 00  	lw	a3, 0x8(a2)
   149fc: 63 d4 a6 40  	bge	a3, a0, 0x14e04 <susan_corners_quick+0x9bc>
   14a00: 83 26 c6 00  	lw	a3, 0xc(a2)
   14a04: 63 d0 a6 40  	bge	a3, a0, 0x14e04 <susan_corners_quick+0x9bc>
   14a08: 83 26 06 01  	lw	a3, 0x10(a2)
   14a0c: 63 dc a6 3e  	bge	a3, a0, 0x14e04 <susan_corners_quick+0x9bc>
   14a10: 03 26 46 01  	lw	a2, 0x14(a2)
   14a14: 63 58 a6 3e  	bge	a2, a0, 0x14e04 <susan_corners_quick+0x9bc>
   14a18: 03 36 81 06  	ld	a2, 0x68(sp)
   14a1c: 33 06 a6 01  	add	a2, a2, s10
   14a20: 83 26 c6 ff  	lw	a3, -0x4(a2)
   14a24: 63 d0 a6 3e  	bge	a3, a0, 0x14e04 <susan_corners_quick+0x9bc>
   14a28: 83 26 06 00  	lw	a3, 0x0(a2)
   14a2c: 63 dc a6 3c  	bge	a3, a0, 0x14e04 <susan_corners_quick+0x9bc>
   14a30: 83 26 46 00  	lw	a3, 0x4(a2)
   14a34: 63 d8 a6 3c  	bge	a3, a0, 0x14e04 <susan_corners_quick+0x9bc>
   14a38: 83 26 86 00  	lw	a3, 0x8(a2)
   14a3c: 63 d4 a6 3c  	bge	a3, a0, 0x14e04 <susan_corners_quick+0x9bc>
   14a40: 83 26 c6 00  	lw	a3, 0xc(a2)
   14a44: 63 d0 a6 3c  	bge	a3, a0, 0x14e04 <susan_corners_quick+0x9bc>
   14a48: 83 26 06 01  	lw	a3, 0x10(a2)
   14a4c: 63 dc a6 3a  	bge	a3, a0, 0x14e04 <susan_corners_quick+0x9bc>
   14a50: 03 26 46 01  	lw	a2, 0x14(a2)
   14a54: 63 58 a6 3a  	bge	a2, a0, 0x14e04 <susan_corners_quick+0x9bc>
   14a58: 03 36 01 08  	ld	a2, 0x80(sp)
   14a5c: 33 06 a6 01  	add	a2, a2, s10
   14a60: 83 26 c6 ff  	lw	a3, -0x4(a2)
   14a64: 63 d0 a6 3a  	bge	a3, a0, 0x14e04 <susan_corners_quick+0x9bc>
   14a68: 83 26 06 00  	lw	a3, 0x0(a2)
   14a6c: 63 dc a6 38  	bge	a3, a0, 0x14e04 <susan_corners_quick+0x9bc>
   14a70: 83 26 46 00  	lw	a3, 0x4(a2)
   14a74: 63 d8 a6 38  	bge	a3, a0, 0x14e04 <susan_corners_quick+0x9bc>
   14a78: 83 26 86 00  	lw	a3, 0x8(a2)
   14a7c: 63 d4 a6 38  	bge	a3, a0, 0x14e04 <susan_corners_quick+0x9bc>
   14a80: 83 26 c6 00  	lw	a3, 0xc(a2)
   14a84: 63 d0 a6 38  	bge	a3, a0, 0x14e04 <susan_corners_quick+0x9bc>
   14a88: 83 26 06 01  	lw	a3, 0x10(a2)
   14a8c: 63 dc a6 36  	bge	a3, a0, 0x14e04 <susan_corners_quick+0x9bc>
   14a90: 03 26 46 01  	lw	a2, 0x14(a2)
   14a94: 63 58 a6 36  	bge	a2, a0, 0x14e04 <susan_corners_quick+0x9bc>
   14a98: 03 a6 85 fe  	lw	a2, -0x18(a1)
   14a9c: 63 54 a6 36  	bge	a2, a0, 0x14e04 <susan_corners_quick+0x9bc>
   14aa0: 03 a6 c5 fe  	lw	a2, -0x14(a1)
   14aa4: 63 50 a6 36  	bge	a2, a0, 0x14e04 <susan_corners_quick+0x9bc>
   14aa8: 03 a6 05 ff  	lw	a2, -0x10(a1)
   14aac: 63 5c a6 34  	bge	a2, a0, 0x14e04 <susan_corners_quick+0x9bc>
   14ab0: 03 a6 85 ff  	lw	a2, -0x8(a1)
   14ab4: 63 48 c5 34  	blt	a0, a2, 0x14e04 <susan_corners_quick+0x9bc>
   14ab8: 03 a6 c5 ff  	lw	a2, -0x4(a1)
   14abc: 63 44 c5 34  	blt	a0, a2, 0x14e04 <susan_corners_quick+0x9bc>
   14ac0: 83 a5 05 00  	lw	a1, 0x0(a1)
   14ac4: 63 40 b5 34  	blt	a0, a1, 0x14e04 <susan_corners_quick+0x9bc>
   14ac8: 83 35 01 07  	ld	a1, 0x70(sp)
   14acc: b3 85 a5 01  	add	a1, a1, s10
   14ad0: 03 a6 85 fe  	lw	a2, -0x18(a1)
   14ad4: 63 48 c5 32  	blt	a0, a2, 0x14e04 <susan_corners_quick+0x9bc>
   14ad8: 03 a6 c5 fe  	lw	a2, -0x14(a1)
   14adc: 63 44 c5 32  	blt	a0, a2, 0x14e04 <susan_corners_quick+0x9bc>
   14ae0: 03 a6 05 ff  	lw	a2, -0x10(a1)
   14ae4: 63 40 c5 32  	blt	a0, a2, 0x14e04 <susan_corners_quick+0x9bc>
   14ae8: 03 a6 45 ff  	lw	a2, -0xc(a1)
   14aec: 63 4c c5 30  	blt	a0, a2, 0x14e04 <susan_corners_quick+0x9bc>
   14af0: 03 a6 85 ff  	lw	a2, -0x8(a1)
   14af4: 63 48 c5 30  	blt	a0, a2, 0x14e04 <susan_corners_quick+0x9bc>
   14af8: 03 a6 c5 ff  	lw	a2, -0x4(a1)
   14afc: 63 44 c5 30  	blt	a0, a2, 0x14e04 <susan_corners_quick+0x9bc>
   14b00: 83 a5 05 00  	lw	a1, 0x0(a1)
   14b04: 63 40 b5 30  	blt	a0, a1, 0x14e04 <susan_corners_quick+0x9bc>
   14b08: b3 85 a9 01  	add	a1, s3, s10
   14b0c: 03 a6 85 fe  	lw	a2, -0x18(a1)
   14b10: 63 4a c5 2e  	blt	a0, a2, 0x14e04 <susan_corners_quick+0x9bc>
   14b14: 03 a6 c5 fe  	lw	a2, -0x14(a1)
   14b18: 63 46 c5 2e  	blt	a0, a2, 0x14e04 <susan_corners_quick+0x9bc>
   14b1c: 03 a6 05 ff  	lw	a2, -0x10(a1)
   14b20: 63 42 c5 2e  	blt	a0, a2, 0x14e04 <susan_corners_quick+0x9bc>
   14b24: 03 a6 45 ff  	lw	a2, -0xc(a1)
   14b28: 63 4e c5 2c  	blt	a0, a2, 0x14e04 <susan_corners_quick+0x9bc>
   14b2c: 03 a6 85 ff  	lw	a2, -0x8(a1)
   14b30: 63 4a c5 2c  	blt	a0, a2, 0x14e04 <susan_corners_quick+0x9bc>
   14b34: 03 a6 c5 ff  	lw	a2, -0x4(a1)
   14b38: 63 46 c5 2c  	blt	a0, a2, 0x14e04 <susan_corners_quick+0x9bc>
   14b3c: 83 a5 05 00  	lw	a1, 0x0(a1)
   14b40: 63 42 b5 2c  	blt	a0, a1, 0x14e04 <susan_corners_quick+0x9bc>
   14b44: 83 35 01 03  	ld	a1, 0x30(sp)
   14b48: b3 85 a5 01  	add	a1, a1, s10
   14b4c: 03 a6 c5 ff  	lw	a2, -0x4(a1)
   14b50: 63 4a c5 2a  	blt	a0, a2, 0x14e04 <susan_corners_quick+0x9bc>
   14b54: 03 a6 05 00  	lw	a2, 0x0(a1)
   14b58: 63 46 c5 2a  	blt	a0, a2, 0x14e04 <susan_corners_quick+0x9bc>
   14b5c: 03 a6 45 00  	lw	a2, 0x4(a1)
   14b60: 63 42 c5 2a  	blt	a0, a2, 0x14e04 <susan_corners_quick+0x9bc>
   14b64: 03 a6 85 00  	lw	a2, 0x8(a1)
   14b68: 63 4e c5 28  	blt	a0, a2, 0x14e04 <susan_corners_quick+0x9bc>
   14b6c: 03 a6 c5 00  	lw	a2, 0xc(a1)
   14b70: 63 4a c5 28  	blt	a0, a2, 0x14e04 <susan_corners_quick+0x9bc>
   14b74: 03 a6 05 01  	lw	a2, 0x10(a1)
   14b78: 63 46 c5 28  	blt	a0, a2, 0x14e04 <susan_corners_quick+0x9bc>
   14b7c: 83 a5 45 01  	lw	a1, 0x14(a1)
   14b80: 63 42 b5 28  	blt	a0, a1, 0x14e04 <susan_corners_quick+0x9bc>
   14b84: 93 05 80 01  	li	a1, 0x18
   14b88: 03 35 01 02  	ld	a0, 0x20(sp)
   14b8c: ef c0 40 0b  	jal	0x20c40 <__muldi3>
   14b90: 83 35 81 02  	ld	a1, 0x28(sp)
   14b94: b3 85 a5 00  	add	a1, a1, a0
   14b98: 23 38 b1 08  	sd	a1, 0x90(sp)
   14b9c: 23 a4 05 00  	sw	zero, 0x8(a1)
   14ba0: 23 a0 45 01  	sw	s4, 0x0(a1)
   14ba4: 03 35 81 03  	ld	a0, 0x38(sp)
   14ba8: 23 a2 a5 00  	sw	a0, 0x4(a1)
   14bac: 03 c5 cc ff  	lbu	a0, -0x4(s9)
   14bb0: 83 c5 dc ff  	lbu	a1, -0x3(s9)
   14bb4: 33 85 a5 00  	add	a0, a1, a0
   14bb8: 83 c5 ec ff  	lbu	a1, -0x2(s9)
   14bbc: 03 c6 fc ff  	lbu	a2, -0x1(s9)
   14bc0: 83 c6 0c 00  	lbu	a3, 0x0(s9)
   14bc4: 03 c7 cd ff  	lbu	a4, -0x4(s11)
   14bc8: 83 c7 dd ff  	lbu	a5, -0x3(s11)
   14bcc: b3 85 c5 00  	add	a1, a1, a2
   14bd0: 33 05 b5 00  	add	a0, a0, a1
   14bd4: b3 86 e6 00  	add	a3, a3, a4
   14bd8: b3 86 f6 00  	add	a3, a3, a5
   14bdc: 83 c5 ed ff  	lbu	a1, -0x2(s11)
   14be0: 03 c6 fd ff  	lbu	a2, -0x1(s11)
   14be4: 03 c7 0d 00  	lbu	a4, 0x0(s11)
   14be8: 83 c7 cb ff  	lbu	a5, -0x4(s7)
   14bec: 33 05 d5 00  	add	a0, a0, a3
   14bf0: b3 85 c5 00  	add	a1, a1, a2
   14bf4: b3 85 e5 00  	add	a1, a1, a4
   14bf8: b3 85 f5 00  	add	a1, a1, a5
   14bfc: 33 05 b5 00  	add	a0, a0, a1
   14c00: 83 c5 db ff  	lbu	a1, -0x3(s7)
   14c04: 03 c6 eb ff  	lbu	a2, -0x2(s7)
   14c08: 83 c6 fb ff  	lbu	a3, -0x1(s7)
   14c0c: 03 c7 0b 00  	lbu	a4, 0x0(s7)
   14c10: 83 47 c4 ff  	lbu	a5, -0x4(s0)
   14c14: b3 85 c5 00  	add	a1, a1, a2
   14c18: b3 85 d5 00  	add	a1, a1, a3
   14c1c: b3 85 e5 00  	add	a1, a1, a4
   14c20: b3 85 f5 00  	add	a1, a1, a5
   14c24: 33 05 b5 00  	add	a0, a0, a1
   14c28: 83 45 d4 ff  	lbu	a1, -0x3(s0)
   14c2c: 03 46 e4 ff  	lbu	a2, -0x2(s0)
   14c30: 83 46 f4 ff  	lbu	a3, -0x1(s0)
   14c34: 03 47 04 00  	lbu	a4, 0x0(s0)
   14c38: 83 47 c9 ff  	lbu	a5, -0x4(s2)
   14c3c: b3 85 c5 00  	add	a1, a1, a2
   14c40: b3 85 d5 00  	add	a1, a1, a3
   14c44: b3 85 e5 00  	add	a1, a1, a4
   14c48: b3 85 f5 00  	add	a1, a1, a5
   14c4c: 03 46 d9 ff  	lbu	a2, -0x3(s2)
   14c50: 83 46 e9 ff  	lbu	a3, -0x2(s2)
   14c54: 03 47 f9 ff  	lbu	a4, -0x1(s2)
   14c58: 83 47 09 00  	lbu	a5, 0x0(s2)
   14c5c: b3 85 c5 00  	add	a1, a1, a2
   14c60: 33 05 b5 00  	add	a0, a0, a1
   14c64: b3 86 e6 00  	add	a3, a3, a4
   14c68: b3 86 f6 00  	add	a3, a3, a5
   14c6c: 33 05 d5 00  	add	a0, a0, a3
   14c70: 13 15 05 03  	slli	a0, a0, 0x30
   14c74: 13 55 05 03  	srli	a0, a0, 0x30
   14c78: 93 05 90 01  	li	a1, 0x19
   14c7c: ef c0 c0 00  	jal	0x20c88 <__udivdi3>
   14c80: 83 35 01 09  	ld	a1, 0x90(sp)
   14c84: 23 aa a5 00  	sw	a0, 0x14(a1)
   14c88: 83 c2 0c 00  	lbu	t0, 0x0(s9)
   14c8c: 83 c3 0d 00  	lbu	t2, 0x0(s11)
   14c90: 23 34 71 08  	sd	t2, 0x88(sp)
   14c94: 03 c6 0b 00  	lbu	a2, 0x0(s7)
   14c98: 03 45 04 00  	lbu	a0, 0x0(s0)
   14c9c: 23 3c a1 06  	sd	a0, 0x78(sp)
   14ca0: 03 48 09 00  	lbu	a6, 0x0(s2)
   14ca4: 83 c7 cc ff  	lbu	a5, -0x4(s9)
   14ca8: 83 c5 cd ff  	lbu	a1, -0x4(s11)
   14cac: 23 38 b1 00  	sd	a1, 0x10(sp)
   14cb0: 83 c8 cb ff  	lbu	a7, -0x4(s7)
   14cb4: 83 46 c4 ff  	lbu	a3, -0x4(s0)
   14cb8: 23 34 d1 00  	sd	a3, 0x8(sp)
   14cbc: 03 43 c9 ff  	lbu	t1, -0x4(s2)
   14cc0: b3 83 53 00  	add	t2, t2, t0
   14cc4: 33 06 a6 00  	add	a2, a2, a0
   14cc8: 33 86 c3 00  	add	a2, t2, a2
   14ccc: 33 06 06 01  	add	a2, a2, a6
   14cd0: b3 83 b7 00  	add	t2, a5, a1
   14cd4: b3 88 d8 00  	add	a7, a7, a3
   14cd8: b3 88 13 01  	add	a7, t2, a7
   14cdc: b3 88 68 00  	add	a7, a7, t1
   14ce0: bb 08 16 41  	subw	a7, a2, a7
   14ce4: 03 c6 fc ff  	lbu	a2, -0x1(s9)
   14ce8: 83 c3 fd ff  	lbu	t2, -0x1(s11)
   14cec: 03 ce fb ff  	lbu	t3, -0x1(s7)
   14cf0: 83 4e f4 ff  	lbu	t4, -0x1(s0)
   14cf4: 03 4f f9 ff  	lbu	t5, -0x1(s2)
   14cf8: 83 cf dc ff  	lbu	t6, -0x3(s9)
   14cfc: 83 c0 dd ff  	lbu	ra, -0x3(s11)
   14d00: 83 c5 db ff  	lbu	a1, -0x3(s7)
   14d04: 03 47 d4 ff  	lbu	a4, -0x3(s0)
   14d08: 03 45 d9 ff  	lbu	a0, -0x3(s2)
   14d0c: 93 96 18 00  	slli	a3, a7, 0x1
   14d10: b3 88 c3 00  	add	a7, t2, a2
   14d14: b3 88 c8 01  	add	a7, a7, t3
   14d18: b3 88 d8 01  	add	a7, a7, t4
   14d1c: b3 88 e8 01  	add	a7, a7, t5
   14d20: 33 8e 1f 00  	add	t3, t6, ra
   14d24: b3 85 e5 00  	add	a1, a1, a4
   14d28: b3 05 be 00  	add	a1, t3, a1
   14d2c: b3 85 a5 00  	add	a1, a1, a0
   14d30: bb 85 b8 40  	subw	a1, a7, a1
   14d34: b3 85 d5 00  	add	a1, a1, a3
   14d38: 83 46 e9 ff  	lbu	a3, -0x2(s2)
   14d3c: 83 c8 ec ff  	lbu	a7, -0x2(s9)
   14d40: b3 87 f2 00  	add	a5, t0, a5
   14d44: 33 08 68 00  	add	a6, a6, t1
   14d48: 33 08 e8 01  	add	a6, a6, t5
   14d4c: 33 06 f6 01  	add	a2, a2, t6
   14d50: 33 86 c7 00  	add	a2, a5, a2
   14d54: 3b 06 c8 40  	subw	a2, a6, a2
   14d58: 33 05 d5 00  	add	a0, a0, a3
   14d5c: 3b 05 15 41  	subw	a0, a0, a7
   14d60: 33 05 a6 00  	add	a0, a2, a0
   14d64: 03 46 e4 ff  	lbu	a2, -0x2(s0)
   14d68: 83 c6 ed ff  	lbu	a3, -0x2(s11)
   14d6c: 13 15 15 00  	slli	a0, a0, 0x1
   14d70: 83 37 81 08  	ld	a5, 0x88(sp)
   14d74: 03 38 01 01  	ld	a6, 0x10(sp)
   14d78: b3 87 07 01  	add	a5, a5, a6
   14d7c: 03 38 81 07  	ld	a6, 0x78(sp)
   14d80: 83 38 81 00  	ld	a7, 0x8(sp)
   14d84: 33 08 18 01  	add	a6, a6, a7
   14d88: 33 08 d8 01  	add	a6, a6, t4
   14d8c: b3 83 13 00  	add	t2, t2, ra
   14d90: b3 87 77 00  	add	a5, a5, t2
   14d94: bb 07 f8 40  	subw	a5, a6, a5
   14d98: 33 06 c7 00  	add	a2, a4, a2
   14d9c: 3b 06 d6 40  	subw	a2, a2, a3
   14da0: 33 86 c7 00  	add	a2, a5, a2
   14da4: 33 05 a6 00  	add	a0, a2, a0
   14da8: 23 34 a1 08  	sd	a0, 0x88(sp)
   14dac: 13 95 05 03  	slli	a0, a1, 0x30
   14db0: 13 55 05 43  	srai	a0, a0, 0x30
   14db4: 93 05 f0 00  	li	a1, 0xf
   14db8: ef b0 90 6c  	jal	0x20c80 <__divdi3>
   14dbc: 13 15 05 03  	slli	a0, a0, 0x30
   14dc0: 13 55 05 43  	srai	a0, a0, 0x30
   14dc4: 83 35 01 09  	ld	a1, 0x90(sp)
   14dc8: 23 a6 a5 00  	sw	a0, 0xc(a1)
   14dcc: 03 35 81 08  	ld	a0, 0x88(sp)
   14dd0: 13 15 05 03  	slli	a0, a0, 0x30
   14dd4: 13 55 05 43  	srai	a0, a0, 0x30
   14dd8: 93 05 f0 00  	li	a1, 0xf
   14ddc: ef b0 50 6a  	jal	0x20c80 <__divdi3>
   14de0: 13 15 05 03  	slli	a0, a0, 0x30
   14de4: 13 55 05 43  	srai	a0, a0, 0x30
   14de8: 83 35 01 02  	ld	a1, 0x20(sp)
   14dec: 9b 85 15 00  	addiw	a1, a1, 0x1
   14df0: 03 36 01 09  	ld	a2, 0x90(sp)
   14df4: 23 28 a6 00  	sw	a0, 0x10(a2)
   14df8: 23 30 b1 02  	sd	a1, 0x20(sp)
   14dfc: 03 35 81 01  	ld	a0, 0x18(sp)
   14e00: 63 8a a5 06  	beq	a1, a0, 0x14e74 <susan_corners_quick+0xa2c>
   14e04: 13 0d 4d 00  	addi	s10, s10, 0x4
   14e08: 93 8b 1b 00  	addi	s7, s7, 0x1
   14e0c: 93 8c 1c 00  	addi	s9, s9, 0x1
   14e10: 93 8d 1d 00  	addi	s11, s11, 0x1
   14e14: 13 04 14 00  	addi	s0, s0, 0x1
   14e18: 13 09 19 00  	addi	s2, s2, 0x1
   14e1c: 13 0a 1a 00  	addi	s4, s4, 0x1
   14e20: e3 18 ab bb  	bne	s6, s10, 0x149d0 <susan_corners_quick+0x588>
   14e24: 83 34 81 04  	ld	s1, 0x48(sp)
   14e28: 93 05 e0 00  	li	a1, 0xe
   14e2c: 6f 00 80 00  	j	0x14e34 <susan_corners_quick+0x9ec>
   14e30: 13 8c 19 00  	addi	s8, s3, 0x1
   14e34: 93 09 0c 00  	mv	s3, s8
   14e38: 03 35 81 09  	ld	a0, 0x98(sp)
   14e3c: e3 14 ac a6  	bne	s8, a0, 0x148a4 <susan_corners_quick+0x45c>
   14e40: 03 34 81 02  	ld	s0, 0x28(sp)
   14e44: 03 35 01 02  	ld	a0, 0x20(sp)
   14e48: 6f 00 c0 00  	j	0x14e54 <susan_corners_quick+0xa0c>
   14e4c: 13 05 00 00  	li	a0, 0x0
   14e50: 03 34 81 02  	ld	s0, 0x28(sp)
   14e54: 93 05 80 01  	li	a1, 0x18
   14e58: ef b0 90 5e  	jal	0x20c40 <__muldi3>
   14e5c: 33 05 a4 00  	add	a0, s0, a0
   14e60: 93 05 70 00  	li	a1, 0x7
   14e64: 23 24 b5 00  	sw	a1, 0x8(a0)
   14e68: 13 05 00 00  	li	a0, 0x0
   14e6c: 13 01 01 0a  	addi	sp, sp, 0xa0
   14e70: 6f b0 70 5a  	j	0x20c16 <__riscv_restore_12>
   14e74: 03 b5 01 23  	ld	a0, 0x230(gp)
   14e78: 83 36 85 01  	ld	a3, 0x18(a0)
   14e7c: 37 15 02 00  	lui	a0, 0x21
   14e80: 13 05 d5 ec  	addi	a0, a0, -0x133
   14e84: 93 05 20 01  	li	a1, 0x12
   14e88: 13 06 10 00  	li	a2, 0x1
   14e8c: ef 20 30 2b  	jal	0x1793e <fwrite>
   14e90: 13 05 10 00  	li	a0, 0x1
   14e94: ef b0 cf a8  	jal	0x10120 <exit>

0000000000014e98 <main>:
   14e98: ef b2 50 53  	jal	t0, 0x20bcc <__riscv_save_12>
   14e9c: 37 86 05 00  	lui	a2, 0x58
   14ea0: 1b 06 06 e8  	addiw	a2, a2, -0x180
   14ea4: 33 01 c1 40  	sub	sp, sp, a2
   14ea8: 37 86 05 00  	lui	a2, 0x58
   14eac: 33 06 c1 00  	add	a2, sp, a2
   14eb0: 27 3c 86 e6  	fsd	fs0, -0x188(a2)
   14eb4: 37 86 05 00  	lui	a2, 0x58
   14eb8: 33 06 c1 00  	add	a2, sp, a2
   14ebc: 27 38 96 e6  	fsd	fs1, -0x190(a2)
   14ec0: 13 06 20 00  	li	a2, 0x2
   14ec4: 63 50 a6 40  	bge	a2, a0, 0x152c4 <main+0x42c>
   14ec8: 13 84 05 00  	mv	s0, a1
   14ecc: 13 0a 05 00  	mv	s4, a0
   14ed0: 03 b5 85 00  	ld	a0, 0x8(a1)
   14ed4: b7 85 05 00  	lui	a1, 0x58
   14ed8: 9b 85 85 e6  	addiw	a1, a1, -0x198
   14edc: b3 05 b1 00  	add	a1, sp, a1
   14ee0: 37 86 05 00  	lui	a2, 0x58
   14ee4: 1b 06 c6 e5  	addiw	a2, a2, -0x1a4
   14ee8: 33 06 c1 00  	add	a2, sp, a2
   14eec: b7 86 05 00  	lui	a3, 0x58
   14ef0: 9b 86 86 e5  	addiw	a3, a3, -0x1a8
   14ef4: b3 06 d1 00  	add	a3, sp, a3
   14ef8: ef b0 cf c5  	jal	0x10354 <get_image>
   14efc: 13 0b 30 00  	li	s6, 0x3
   14f00: 63 14 6a 03  	bne	s4, s6, 0x14f28 <main+0x90>
   14f04: 07 b4 81 21  	fld	fs0, 0x218(gp)
   14f08: 13 0c 00 00  	li	s8, 0x0
   14f0c: 93 04 00 00  	li	s1, 0x0
   14f10: 13 09 00 00  	li	s2, 0x0
   14f14: 13 0d 00 00  	li	s10, 0x0
   14f18: 93 0a 00 00  	li	s5, 0x0
   14f1c: 93 09 40 01  	li	s3, 0x14
   14f20: 93 0b 10 00  	li	s7, 0x1
   14f24: 6f 00 40 11  	j	0x15038 <main+0x1a0>
   14f28: 93 0a 00 00  	li	s5, 0x0
   14f2c: 93 0b 00 00  	li	s7, 0x0
   14f30: 23 38 01 00  	sd	zero, 0x10(sp)
   14f34: 13 09 00 00  	li	s2, 0x0
   14f38: 13 0c 00 00  	li	s8, 0x0
   14f3c: 93 09 40 01  	li	s3, 0x14
   14f40: 93 0d 10 00  	li	s11, 0x1
   14f44: 37 05 80 40  	lui	a0, 0x40800
   14f48: d3 04 05 f0  	fmv.w.x	fs1, a0
   14f4c: 93 0c d0 02  	li	s9, 0x2d
   14f50: 13 0d 20 01  	li	s10, 0x12
   14f54: 37 15 02 00  	lui	a0, 0x21
   14f58: 93 04 05 d5  	addi	s1, a0, -0x2b0
   14f5c: 53 04 00 f0  	fmv.w.x	fs0, zero
   14f60: 13 15 3b 00  	slli	a0, s6, 0x3
   14f64: 33 05 a4 00  	add	a0, s0, a0
   14f68: 03 35 05 00  	ld	a0, 0x0(a0)
   14f6c: 83 45 05 00  	lbu	a1, 0x0(a0)
   14f70: 63 9a 95 35  	bne	a1, s9, 0x152c4 <main+0x42c>
   14f74: 03 45 15 00  	lbu	a0, 0x1(a0)
   14f78: 93 05 e5 f9  	addi	a1, a0, -0x62
   14f7c: 63 60 bd 02  	bltu	s10, a1, 0x14f9c <main+0x104>
   14f80: 93 95 25 00  	slli	a1, a1, 0x2
   14f84: b3 85 95 00  	add	a1, a1, s1
   14f88: 03 a5 05 00  	lw	a0, 0x0(a1)
   14f8c: 67 00 05 00  	jr	a0
   14f90: 13 05 10 00  	li	a0, 0x1
   14f94: 23 38 a1 00  	sd	a0, 0x10(sp)
   14f98: 6f 00 80 08  	j	0x15020 <main+0x188>
   14f9c: 93 05 30 03  	li	a1, 0x33
   14fa0: 63 0e b5 04  	beq	a0, a1, 0x14ffc <main+0x164>
   14fa4: 6f 00 c0 07  	j	0x15020 <main+0x188>
   14fa8: 1b 0b 1b 00  	addiw	s6, s6, 0x1
   14fac: 63 5e 4b 31  	bge	s6, s4, 0x152c8 <main+0x430>
   14fb0: 13 15 3b 00  	slli	a0, s6, 0x3
   14fb4: 33 05 a4 00  	add	a0, s0, a0
   14fb8: 03 35 05 00  	ld	a0, 0x0(a0)
   14fbc: ef 00 40 6d  	jal	0x15690 <atoi>
   14fc0: 93 09 05 00  	mv	s3, a0
   14fc4: 6f 00 c0 05  	j	0x15020 <main+0x188>
   14fc8: 93 0d 00 00  	li	s11, 0x0
   14fcc: 6f 00 40 05  	j	0x15020 <main+0x188>
   14fd0: 93 0b 10 00  	li	s7, 0x1
   14fd4: 6f 00 c0 04  	j	0x15020 <main+0x188>
   14fd8: 1b 0b 1b 00  	addiw	s6, s6, 0x1
   14fdc: 63 5c 4b 2f  	bge	s6, s4, 0x152d4 <main+0x43c>
   14fe0: 13 15 3b 00  	slli	a0, s6, 0x3
   14fe4: 33 05 a4 00  	add	a0, s0, a0
   14fe8: 03 35 05 00  	ld	a0, 0x0(a0)
   14fec: ef 00 e0 69  	jal	0x1568a <atof>
   14ff0: d3 74 15 40  	fcvt.s.d	fs1, fa0
   14ff4: 53 95 84 a0  	flt.s	a0, fs1, fs0
   14ff8: 63 04 05 02  	beqz	a0, 0x15020 <main+0x188>
   14ffc: 13 09 10 00  	li	s2, 0x1
   15000: 6f 00 00 02  	j	0x15020 <main+0x188>
   15004: 93 0a 10 00  	li	s5, 0x1
   15008: 6f 00 80 01  	j	0x15020 <main+0x188>
   1500c: 93 0a 20 00  	li	s5, 0x2
   15010: 6f 00 00 01  	j	0x15020 <main+0x188>
   15014: 13 0c 10 00  	li	s8, 0x1
   15018: 6f 00 80 00  	j	0x15020 <main+0x188>
   1501c: 93 0a 00 00  	li	s5, 0x0
   15020: 1b 0b 1b 00  	addiw	s6, s6, 0x1
   15024: e3 4e 4b f3  	blt	s6, s4, 0x14f60 <main+0xc8>
   15028: 93 bb 1b 00  	seqz	s7, s7
   1502c: 93 b4 1d 00  	seqz	s1, s11
   15030: 53 84 04 42  	fcvt.d.s	fs0, fs1
   15034: 03 3d 01 01  	ld	s10, 0x10(sp)
   15038: 13 45 1c 00  	xori	a0, s8, 0x1
   1503c: 33 65 55 01  	or	a0, a0, s5
   15040: 63 14 05 00  	bnez	a0, 0x15048 <main+0x1b0>
   15044: 93 0a 10 00  	li	s5, 0x1
   15048: 13 05 20 00  	li	a0, 0x2
   1504c: b7 85 05 00  	lui	a1, 0x58
   15050: 9b 85 85 e5  	addiw	a1, a1, -0x1a8
   15054: b3 0c b1 00  	add	s9, sp, a1
   15058: 63 8a aa 06  	beq	s5, a0, 0x150cc <main+0x234>
   1505c: 13 05 10 00  	li	a0, 0x1
   15060: 63 9e aa 0c  	bne	s5, a0, 0x1513c <main+0x2a4>
   15064: 03 aa 4c 00  	lw	s4, 0x4(s9)
   15068: 83 aa 0c 00  	lw	s5, 0x0(s9)
   1506c: 13 85 0a 00  	mv	a0, s5
   15070: 93 05 0a 00  	mv	a1, s4
   15074: ef b0 d0 3c  	jal	0x20c40 <__muldi3>
   15078: 9b 0b 05 00  	sext.w	s7, a0
   1507c: 13 95 2b 00  	slli	a0, s7, 0x2
   15080: ef 00 80 63  	jal	0x156b8 <malloc>
   15084: 13 0b 05 00  	mv	s6, a0
   15088: 37 85 05 00  	lui	a0, 0x58
   1508c: 1b 05 05 e6  	addiw	a0, a0, -0x1a0
   15090: 33 05 a1 00  	add	a0, sp, a0
   15094: 13 06 60 00  	li	a2, 0x6
   15098: 93 85 09 00  	mv	a1, s3
   1509c: ef b0 4f d8  	jal	0x10620 <setup_brightness_lut>
   150a0: 63 00 0c 0e  	beqz	s8, 0x15180 <main+0x2e8>
   150a4: 83 b9 0c 01  	ld	s3, 0x10(s9)
   150a8: 03 b6 8c 00  	ld	a2, 0x8(s9)
   150ac: 63 04 09 16  	beqz	s2, 0x15214 <main+0x37c>
   150b0: 13 85 09 00  	mv	a0, s3
   150b4: 93 05 0b 00  	mv	a1, s6
   150b8: 93 06 00 00  	li	a3, 0x0
   150bc: 13 07 0a 00  	mv	a4, s4
   150c0: 93 87 0a 00  	mv	a5, s5
   150c4: ef b0 1f 9a  	jal	0x10a64 <susan_principle_small>
   150c8: 6f 00 80 16  	j	0x15230 <main+0x398>
   150cc: 03 aa 4c 00  	lw	s4, 0x4(s9)
   150d0: 83 aa 0c 00  	lw	s5, 0x0(s9)
   150d4: 13 85 0a 00  	mv	a0, s5
   150d8: 93 05 0a 00  	mv	a1, s4
   150dc: ef b0 50 36  	jal	0x20c40 <__muldi3>
   150e0: 1b 0b 05 00  	sext.w	s6, a0
   150e4: 13 15 2b 00  	slli	a0, s6, 0x2
   150e8: ef 00 00 5d  	jal	0x156b8 <malloc>
   150ec: 13 09 05 00  	mv	s2, a0
   150f0: 37 85 05 00  	lui	a0, 0x58
   150f4: 1b 05 05 e6  	addiw	a0, a0, -0x1a0
   150f8: 33 05 a1 00  	add	a0, sp, a0
   150fc: 13 06 60 00  	li	a2, 0x6
   15100: 93 85 09 00  	mv	a1, s3
   15104: ef b0 cf d1  	jal	0x10620 <setup_brightness_lut>
   15108: 83 b9 0c 01  	ld	s3, 0x10(s9)
   1510c: 03 b6 8c 00  	ld	a2, 0x8(s9)
   15110: 93 06 a0 73  	li	a3, 0x73a
   15114: 63 00 0c 0e  	beqz	s8, 0x151f4 <main+0x35c>
   15118: 13 85 09 00  	mv	a0, s3
   1511c: 93 05 09 00  	mv	a1, s2
   15120: 13 07 0a 00  	mv	a4, s4
   15124: 93 87 0a 00  	mv	a5, s5
   15128: ef b0 cf da  	jal	0x106d4 <susan_principle>
   1512c: 13 05 09 00  	mv	a0, s2
   15130: 93 85 09 00  	mv	a1, s3
   15134: 13 06 0b 00  	mv	a2, s6
   15138: 6f 00 40 10  	j	0x1523c <main+0x3a4>
   1513c: 37 85 05 00  	lui	a0, 0x58
   15140: 1b 05 05 e6  	addiw	a0, a0, -0x1a0
   15144: 33 05 a1 00  	add	a0, sp, a0
   15148: 13 06 20 00  	li	a2, 0x2
   1514c: 93 85 09 00  	mv	a1, s3
   15150: ef b0 0f cd  	jal	0x10620 <setup_brightness_lut>
   15154: 83 b9 0c 01  	ld	s3, 0x10(s9)
   15158: 03 aa 4c 00  	lw	s4, 0x4(s9)
   1515c: 83 aa 0c 00  	lw	s5, 0x0(s9)
   15160: 03 b7 8c 00  	ld	a4, 0x8(s9)
   15164: 13 05 09 00  	mv	a0, s2
   15168: 93 85 09 00  	mv	a1, s3
   1516c: 53 05 84 22  	fmv.d	fa0, fs0
   15170: 13 06 0a 00  	mv	a2, s4
   15174: 93 86 0a 00  	mv	a3, s5
   15178: ef b0 1f d4  	jal	0x10eb8 <susan_smoothing>
   1517c: 6f 00 00 0e  	j	0x1525c <main+0x3c4>
   15180: 13 85 0b 00  	mv	a0, s7
   15184: ef 00 40 53  	jal	0x156b8 <malloc>
   15188: 13 0c 05 00  	mv	s8, a0
   1518c: 93 05 40 06  	li	a1, 0x64
   15190: 13 86 0b 00  	mv	a2, s7
   15194: ef 30 20 42  	jal	0x185b6 <memset>
   15198: 83 b9 0c 01  	ld	s3, 0x10(s9)
   1519c: 83 b6 8c 00  	ld	a3, 0x8(s9)
   151a0: 63 0e 09 0e  	beqz	s2, 0x1529c <main+0x404>
   151a4: 13 85 09 00  	mv	a0, s3
   151a8: 93 05 0b 00  	mv	a1, s6
   151ac: 13 06 0c 00  	mv	a2, s8
   151b0: 13 07 00 00  	li	a4, 0x0
   151b4: 93 07 0a 00  	mv	a5, s4
   151b8: 13 88 0a 00  	mv	a6, s5
   151bc: ef d0 9f da  	jal	0x12f64 <susan_edges_small>
   151c0: 63 9c 04 00  	bnez	s1, 0x151d8 <main+0x340>
   151c4: 13 05 0b 00  	mv	a0, s6
   151c8: 93 05 0c 00  	mv	a1, s8
   151cc: 13 06 0a 00  	mv	a2, s4
   151d0: 93 86 0a 00  	mv	a3, s5
   151d4: ef c0 8f b7  	jal	0x1154c <susan_thin>
   151d8: 13 85 09 00  	mv	a0, s3
   151dc: 93 05 0c 00  	mv	a1, s8
   151e0: 13 06 0a 00  	mv	a2, s4
   151e4: 93 86 0a 00  	mv	a3, s5
   151e8: 13 07 0d 00  	mv	a4, s10
   151ec: ef c0 cf a7  	jal	0x11468 <edge_draw>
   151f0: 6f 00 c0 06  	j	0x1525c <main+0x3c4>
   151f4: 13 07 81 01  	addi	a4, sp, 0x18
   151f8: 13 85 09 00  	mv	a0, s3
   151fc: 93 05 09 00  	mv	a1, s2
   15200: 93 07 0a 00  	mv	a5, s4
   15204: 13 88 0a 00  	mv	a6, s5
   15208: 63 8e 0b 02  	beqz	s7, 0x15244 <main+0x3ac>
   1520c: ef e0 cf bf  	jal	0x13608 <susan_corners>
   15210: 6f 00 80 03  	j	0x15248 <main+0x3b0>
   15214: 37 15 00 00  	lui	a0, 0x1
   15218: 9b 06 a5 a5  	addiw	a3, a0, -0x5a6
   1521c: 13 85 09 00  	mv	a0, s3
   15220: 93 05 0b 00  	mv	a1, s6
   15224: 13 07 0a 00  	mv	a4, s4
   15228: 93 87 0a 00  	mv	a5, s5
   1522c: ef b0 8f ca  	jal	0x106d4 <susan_principle>
   15230: 13 05 0b 00  	mv	a0, s6
   15234: 93 85 09 00  	mv	a1, s3
   15238: 13 86 0b 00  	mv	a2, s7
   1523c: ef b0 cf b5  	jal	0x10598 <int_to_uchar>
   15240: 6f 00 c0 01  	j	0x1525c <main+0x3c4>
   15244: ef f0 4f a0  	jal	0x14448 <susan_corners_quick>
   15248: 93 05 81 01  	addi	a1, sp, 0x18
   1524c: 13 85 09 00  	mv	a0, s3
   15250: 13 06 0a 00  	mv	a2, s4
   15254: 93 06 0d 00  	mv	a3, s10
   15258: ef e0 cf af  	jal	0x13554 <corner_draw>
   1525c: 03 35 04 01  	ld	a0, 0x10(s0)
   15260: 93 85 09 00  	mv	a1, s3
   15264: 13 06 0a 00  	mv	a2, s4
   15268: 93 86 0a 00  	mv	a3, s5
   1526c: ef b0 8f a1  	jal	0x10484 <put_image>
   15270: 13 05 00 00  	li	a0, 0x0
   15274: b7 85 05 00  	lui	a1, 0x58
   15278: b3 05 b1 00  	add	a1, sp, a1
   1527c: 07 b4 85 e7  	fld	fs0, -0x188(a1)
   15280: b7 85 05 00  	lui	a1, 0x58
   15284: b3 05 b1 00  	add	a1, sp, a1
   15288: 87 b4 05 e7  	fld	fs1, -0x190(a1)
   1528c: b7 85 05 00  	lui	a1, 0x58
   15290: 9b 85 05 e8  	addiw	a1, a1, -0x180
   15294: 33 01 b1 00  	add	sp, sp, a1
   15298: 6f b0 f0 17  	j	0x20c16 <__riscv_restore_12>
   1529c: 37 15 00 00  	lui	a0, 0x1
   152a0: 1b 07 a5 a5  	addiw	a4, a0, -0x5a6
   152a4: 13 85 09 00  	mv	a0, s3
   152a8: 93 05 0b 00  	mv	a1, s6
   152ac: 13 06 0c 00  	mv	a2, s8
   152b0: 93 07 0a 00  	mv	a5, s4
   152b4: 13 88 0a 00  	mv	a6, s5
   152b8: ef c0 df ca  	jal	0x11f64 <susan_edges>
   152bc: e3 84 04 f0  	beqz	s1, 0x151c4 <main+0x32c>
   152c0: 6f f0 9f f1  	j	0x151d8 <main+0x340>
   152c4: ef a0 9f f1  	jal	0x101dc <usage>
   152c8: 37 15 02 00  	lui	a0, 0x21
   152cc: 13 05 35 29  	addi	a0, a0, 0x293
   152d0: 6f 00 c0 00  	j	0x152dc <main+0x444>
   152d4: 37 15 02 00  	lui	a0, 0x21
   152d8: 13 05 c5 2a  	addi	a0, a0, 0x2ac
   152dc: ef 20 70 04  	jal	0x17b22 <puts>
   152e0: 13 05 00 00  	li	a0, 0x0
   152e4: ef a0 df e3  	jal	0x10120 <exit>

00000000000152e8 <exp>:
   152e8: 01 11        	addi	sp, sp, -0x20
   152ea: 22 a4        	fsd	fs0, 0x8(sp)
   152ec: 53 04 a5 22  	fmv.d	fs0, fa0
   152f0: 26 a0        	fsd	fs1, 0x0(sp)
   152f2: 06 ec        	sd	ra, 0x18(sp)
   152f4: ef 00 60 0b  	jal	0x153aa <__ieee754_exp>
   152f8: d3 04 a5 22  	fmv.d	fs1, fa0
   152fc: 53 05 84 22  	fmv.d	fa0, fs0
   15300: ef 00 c0 09  	jal	0x1539c <finite>
   15304: 19 c9        	beqz	a0, 0x1531a <exp+0x32>
   15306: 87 b7 81 08  	fld	fa5, 0x88(gp)
   1530a: d3 97 87 a2  	flt.d	a5, fa5, fs0
   1530e: 89 ef        	bnez	a5, 0x15328 <exp+0x40>
   15310: 87 b7 01 09  	fld	fa5, 0x90(gp)
   15314: d3 17 f4 a2  	flt.d	a5, fs0, fa5
   15318: 95 e7        	bnez	a5, 0x15344 <exp+0x5c>
   1531a: e2 60        	ld	ra, 0x18(sp)
   1531c: 53 85 94 22  	fmv.d	fa0, fs1
   15320: 22 24        	fld	fs0, 0x8(sp)
   15322: 82 24        	fld	fs1, 0x0(sp)
   15324: 05 61        	addi	sp, sp, 0x20
   15326: 82 80        	ret
   15328: ef 30 60 21  	jal	0x1853e <__errno>
   1532c: 87 b4 01 08  	fld	fs1, 0x80(gp)
   15330: e2 60        	ld	ra, 0x18(sp)
   15332: 93 07 20 02  	li	a5, 0x22
   15336: 1c c1        	sw	a5, 0x0(a0)
   15338: 53 85 94 22  	fmv.d	fa0, fs1
   1533c: 22 24        	fld	fs0, 0x8(sp)
   1533e: 82 24        	fld	fs1, 0x0(sp)
   15340: 05 61        	addi	sp, sp, 0x20
   15342: 82 80        	ret
   15344: ef 30 a0 1f  	jal	0x1853e <__errno>
   15348: 93 07 20 02  	li	a5, 0x22
   1534c: d3 04 00 f2  	fmv.d.x	fs1, zero
   15350: 1c c1        	sw	a5, 0x0(a0)
   15352: e1 b7        	j	0x1531a <exp+0x32>

0000000000015354 <sqrtf>:
   15354: 01 11        	addi	sp, sp, -0x20
   15356: 22 a4        	fsd	fs0, 0x8(sp)
   15358: 53 04 a5 20  	fmv.s	fs0, fa0
   1535c: 06 ec        	sd	ra, 0x18(sp)
   1535e: ef 00 80 03  	jal	0x15396 <__ieee754_sqrtf>
   15362: d3 27 84 a0  	feq.s	a5, fs0, fs0
   15366: 81 cb        	beqz	a5, 0x15376 <sqrtf+0x22>
   15368: 26 a0        	fsd	fs1, 0x0(sp)
   1536a: d3 04 00 f0  	fmv.w.x	fs1, zero
   1536e: d3 17 94 a0  	flt.s	a5, fs0, fs1
   15372: 91 e7        	bnez	a5, 0x1537e <sqrtf+0x2a>
   15374: 82 24        	fld	fs1, 0x0(sp)
   15376: e2 60        	ld	ra, 0x18(sp)
   15378: 22 24        	fld	fs0, 0x8(sp)
   1537a: 05 61        	addi	sp, sp, 0x20
   1537c: 82 80        	ret
   1537e: ef 30 00 1c  	jal	0x1853e <__errno>
   15382: e2 60        	ld	ra, 0x18(sp)
   15384: 93 07 10 02  	li	a5, 0x21
   15388: 1c c1        	sw	a5, 0x0(a0)
   1538a: 53 f5 94 18  	fdiv.s	fa0, fs1, fs1
   1538e: 22 24        	fld	fs0, 0x8(sp)
   15390: 82 24        	fld	fs1, 0x0(sp)
   15392: 05 61        	addi	sp, sp, 0x20
   15394: 82 80        	ret

0000000000015396 <__ieee754_sqrtf>:
   15396: 53 75 05 58  	fsqrt.s	fa0, fa0
   1539a: 82 80        	ret

000000000001539c <finite>:
   1539c: 53 15 05 e2  	fclass.d	a0, fa0
   153a0: 13 75 15 38  	andi	a0, a0, 0x381
   153a4: 13 35 15 00  	seqz	a0, a0
   153a8: 82 80        	ret

00000000000153aa <__ieee754_exp>:
   153aa: d3 07 05 e2  	fmv.x.d	a5, fa0
   153ae: 37 36 86 40  	lui	a2, 0x40863
   153b2: 13 06 16 e4  	addi	a2, a2, -0x1bf
   153b6: 93 d6 07 42  	srai	a3, a5, 0x20
   153ba: 13 97 16 02  	slli	a4, a3, 0x21
   153be: 13 d5 f7 03  	srli	a0, a5, 0x3f
   153c2: 05 93        	srli	a4, a4, 0x21
   153c4: aa 85        	mv	a1, a0
   153c6: 63 74 e6 02  	bgeu	a2, a4, 0x153ee <__ieee754_exp+0x44>
   153ca: 37 06 f0 7f  	lui	a2, 0x7ff00
   153ce: 63 69 c7 08  	bltu	a4, a2, 0x15460 <__ieee754_exp+0xb6>
   153d2: 13 97 c6 02  	slli	a4, a3, 0x2c
   153d6: 31 93        	srli	a4, a4, 0x2c
   153d8: 5d 8f        	or	a4, a4, a5
   153da: 01 27        	sext.w	a4, a4
   153dc: 63 11 07 1a  	bnez	a4, 0x1557e <__ieee754_exp+0x1d4>
   153e0: 13 07 00 00  	li	a4, 0x0
   153e4: 63 11 05 14  	bnez	a0, 0x15526 <__ieee754_exp+0x17c>
   153e8: 53 07 05 e2  	fmv.x.d	a4, fa0
   153ec: 2d aa        	j	0x15526 <__ieee754_exp+0x17c>
   153ee: b7 36 d6 3f  	lui	a3, 0x3fd63
   153f2: 93 86 26 e4  	addi	a3, a3, -0x1be
   153f6: 63 ea e6 14  	bltu	a3, a4, 0x1554a <__ieee754_exp+0x1a0>
   153fa: b7 06 f0 3d  	lui	a3, 0x3df00
   153fe: 63 67 d7 12  	bltu	a4, a3, 0x1552c <__ieee754_exp+0x182>
   15402: d3 87 07 f2  	fmv.d.x	fa5, a5
   15406: 07 b7 01 0b  	fld	fa4, 0xb0(gp)
   1540a: d3 f7 f7 12  	fmul.d	fa5, fa5, fa5
   1540e: 87 b6 81 0b  	fld	fa3, 0xb8(gp)
   15412: 43 f7 e7 6a  	fmadd.d	fa4, fa5, fa4, fa3
   15416: 87 b6 01 0c  	fld	fa3, 0xc0(gp)
   1541a: 43 f7 e7 6a  	fmadd.d	fa4, fa5, fa4, fa3
   1541e: 87 b6 81 0c  	fld	fa3, 0xc8(gp)
   15422: 43 f7 e7 6a  	fmadd.d	fa4, fa5, fa4, fa3
   15426: 87 b6 01 0d  	fld	fa3, 0xd0(gp)
   1542a: 43 f7 e7 6a  	fmadd.d	fa4, fa5, fa4, fa3
   1542e: d3 86 07 f2  	fmv.d.x	fa3, a5
   15432: cb f7 e7 6a  	fnmsub.d	fa5, fa5, fa4, fa3
   15436: d3 f6 f6 12  	fmul.d	fa3, fa3, fa5
   1543a: 07 b7 01 0e  	fld	fa4, 0xe0(gp)
   1543e: 07 b6 81 0e  	fld	fa2, 0xe8(gp)
   15442: d3 f7 c7 0a  	fsub.d	fa5, fa5, fa2
   15446: d3 f6 f6 1a  	fdiv.d	fa3, fa3, fa5
   1544a: d3 87 07 f2  	fmv.d.x	fa5, a5
   1544e: d3 f6 f6 0a  	fsub.d	fa3, fa3, fa5
   15452: d3 77 d7 0a  	fsub.d	fa5, fa4, fa3
   15456: 53 87 07 e2  	fmv.x.d	a4, fa5
   1545a: 53 05 07 f2  	fmv.d.x	fa0, a4
   1545e: 82 80        	ret
   15460: 87 b7 81 08  	fld	fa5, 0x88(gp)
   15464: 53 97 a7 a2  	flt.d	a4, fa5, fa0
   15468: 63 12 07 12  	bnez	a4, 0x1558c <__ieee754_exp+0x1e2>
   1546c: 87 b7 01 09  	fld	fa5, 0x90(gp)
   15470: 53 17 f5 a2  	flt.d	a4, fa0, fa5
   15474: 63 13 07 14  	bnez	a4, 0x155ba <__ieee754_exp+0x210>
   15478: 37 17 02 00  	lui	a4, 0x21
   1547c: 8e 05        	slli	a1, a1, 0x3
   1547e: 13 07 87 2e  	addi	a4, a4, 0x2e8
   15482: 2e 97        	add	a4, a4, a1
   15484: 18 23        	fld	fa4, 0x0(a4)
   15486: d3 86 07 f2  	fmv.d.x	fa3, a5
   1548a: 87 b7 81 09  	fld	fa5, 0x98(gp)
   1548e: c3 f7 f6 72  	fmadd.d	fa5, fa3, fa5, fa4
   15492: 07 b6 01 0a  	fld	fa2, 0xa0(gp)
   15496: 53 97 07 c2  	fcvt.w.d	a4, fa5, rtz
   1549a: 87 b7 81 0a  	fld	fa5, 0xa8(gp)
   1549e: 53 07 07 d2  	fcvt.d.w	fa4, a4
   154a2: 01 27        	sext.w	a4, a4
   154a4: 4b 76 c7 6a  	fnmsub.d	fa2, fa4, fa2, fa3
   154a8: 53 77 f7 12  	fmul.d	fa4, fa4, fa5
   154ac: d3 77 e6 0a  	fsub.d	fa5, fa2, fa4
   154b0: d3 f6 f7 12  	fmul.d	fa3, fa5, fa5
   154b4: d3 87 07 e2  	fmv.x.d	a5, fa5
   154b8: 87 b7 01 0b  	fld	fa5, 0xb0(gp)
   154bc: 87 b5 81 0b  	fld	fa1, 0xb8(gp)
   154c0: c3 f7 f6 5a  	fmadd.d	fa5, fa3, fa5, fa1
   154c4: 87 b5 01 0c  	fld	fa1, 0xc0(gp)
   154c8: c3 f7 d7 5a  	fmadd.d	fa5, fa5, fa3, fa1
   154cc: 87 b5 81 0c  	fld	fa1, 0xc8(gp)
   154d0: c3 f7 d7 5a  	fmadd.d	fa5, fa5, fa3, fa1
   154d4: 87 b5 01 0d  	fld	fa1, 0xd0(gp)
   154d8: c3 f7 d7 5a  	fmadd.d	fa5, fa5, fa3, fa1
   154dc: d3 85 07 f2  	fmv.d.x	fa1, a5
   154e0: cb f7 d7 5a  	fnmsub.d	fa5, fa5, fa3, fa1
   154e4: d3 f6 f5 12  	fmul.d	fa3, fa1, fa5
   154e8: 79 cb        	beqz	a4, 0x155be <__ieee754_exp+0x214>
   154ea: 87 b5 81 0e  	fld	fa1, 0xe8(gp)
   154ee: 93 07 30 c0  	li	a5, -0x3fd
   154f2: d3 f7 f5 0a  	fsub.d	fa5, fa1, fa5
   154f6: d3 f6 f6 1a  	fdiv.d	fa3, fa3, fa5
   154fa: 87 b7 01 0e  	fld	fa5, 0xe0(gp)
   154fe: 53 77 d7 0a  	fsub.d	fa4, fa4, fa3
   15502: 53 77 c7 0a  	fsub.d	fa4, fa4, fa2
   15506: d3 f7 e7 0a  	fsub.d	fa5, fa5, fa4
   1550a: d3 86 07 e2  	fmv.x.d	a3, fa5
   1550e: 13 d6 06 42  	srai	a2, a3, 0x20
   15512: 63 4f f7 06  	blt	a4, a5, 0x15590 <__ieee754_exp+0x1e6>
   15516: 1b 17 47 01  	slliw	a4, a4, 0x14
   1551a: fd 57        	li	a5, -0x1
   1551c: 31 9f        	addw	a4, a4, a2
   1551e: 81 93        	srli	a5, a5, 0x20
   15520: 02 17        	slli	a4, a4, 0x20
   15522: f5 8f        	and	a5, a5, a3
   15524: 5d 8f        	or	a4, a4, a5
   15526: 53 05 07 f2  	fmv.d.x	fa0, a4
   1552a: 82 80        	ret
   1552c: 07 b7 81 0d  	fld	fa4, 0xd8(gp)
   15530: 87 b7 01 0e  	fld	fa5, 0xe0(gp)
   15534: 53 77 e5 02  	fadd.d	fa4, fa0, fa4
   15538: d3 96 e7 a2  	flt.d	a3, fa5, fa4
   1553c: e3 83 06 ec  	beqz	a3, 0x15402 <__ieee754_exp+0x58>
   15540: d3 77 f5 02  	fadd.d	fa5, fa0, fa5
   15544: 53 87 07 e2  	fmv.x.d	a4, fa5
   15548: f9 bf        	j	0x15526 <__ieee754_exp+0x17c>
   1554a: b7 a6 f0 3f  	lui	a3, 0x3ff0a
   1554e: 93 86 16 2b  	addi	a3, a3, 0x2b1
   15552: e3 e3 e6 f2  	bltu	a3, a4, 0x15478 <__ieee754_exp+0xce>
   15556: 37 17 02 00  	lui	a4, 0x21
   1555a: 93 15 35 00  	slli	a1, a0, 0x3
   1555e: 13 07 87 2d  	addi	a4, a4, 0x2d8
   15562: 2e 97        	add	a4, a4, a1
   15564: 10 23        	fld	fa2, 0x0(a4)
   15566: b7 16 02 00  	lui	a3, 0x21
   1556a: 93 86 86 2c  	addi	a3, a3, 0x2c8
   1556e: ae 96        	add	a3, a3, a1
   15570: 13 47 15 00  	xori	a4, a0, 0x1
   15574: 53 76 c5 0a  	fsub.d	fa2, fa0, fa2
   15578: 98 22        	fld	fa4, 0x0(a3)
   1557a: 09 9f        	subw	a4, a4, a0
   1557c: 05 bf        	j	0x154ac <__ieee754_exp+0x102>
   1557e: d3 77 a5 02  	fadd.d	fa5, fa0, fa0
   15582: 53 87 07 e2  	fmv.x.d	a4, fa5
   15586: 53 05 07 f2  	fmv.d.x	fa0, a4
   1558a: 82 80        	ret
   1558c: 01 45        	li	a0, 0x0
   1558e: b5 a8        	j	0x1560a <__math_oflow>
   15590: 9b 07 87 3e  	addiw	a5, a4, 0x3e8
   15594: 9b 97 47 01  	slliw	a5, a5, 0x14
   15598: 7d 57        	li	a4, -0x1
   1559a: b1 9f        	addw	a5, a5, a2
   1559c: 01 93        	srli	a4, a4, 0x20
   1559e: 75 8f        	and	a4, a4, a3
   155a0: 82 17        	slli	a5, a5, 0x20
   155a2: d9 8f        	or	a5, a5, a4
   155a4: 87 b7 01 0f  	fld	fa5, 0xf0(gp)
   155a8: 53 87 07 f2  	fmv.d.x	fa4, a5
   155ac: d3 f7 e7 12  	fmul.d	fa5, fa5, fa4
   155b0: 53 87 07 e2  	fmv.x.d	a4, fa5
   155b4: 53 05 07 f2  	fmv.d.x	fa0, a4
   155b8: 82 80        	ret
   155ba: 01 45        	li	a0, 0x0
   155bc: 89 a0        	j	0x155fe <__math_uflow>
   155be: b5 bd        	j	0x1543a <__ieee754_exp+0x90>

00000000000155c0 <with_errno>:
   155c0: 01 11        	addi	sp, sp, -0x20
   155c2: 22 e8        	sd	s0, 0x10(sp)
   155c4: 22 a4        	fsd	fs0, 0x8(sp)
   155c6: 06 ec        	sd	ra, 0x18(sp)
   155c8: 53 04 a5 22  	fmv.d	fs0, fa0
   155cc: 2a 84        	mv	s0, a0
   155ce: ef 20 10 77  	jal	0x1853e <__errno>
   155d2: e2 60        	ld	ra, 0x18(sp)
   155d4: 00 c1        	sw	s0, 0x0(a0)
   155d6: 42 64        	ld	s0, 0x10(sp)
   155d8: 53 05 84 22  	fmv.d	fa0, fs0
   155dc: 22 24        	fld	fs0, 0x8(sp)
   155de: 05 61        	addi	sp, sp, 0x20
   155e0: 82 80        	ret

00000000000155e2 <xflow>:
   155e2: d3 07 a5 22  	fmv.d	fa5, fa0
   155e6: 41 11        	addi	sp, sp, -0x10
   155e8: 19 c1        	beqz	a0, 0x155ee <xflow+0xc>
   155ea: d3 17 a5 22  	fneg.d	fa5, fa0
   155ee: 3e a4        	fsd	fa5, 0x8(sp)
   155f0: a2 27        	fld	fa5, 0x8(sp)
   155f2: 13 05 20 02  	li	a0, 0x22
   155f6: 53 75 f5 12  	fmul.d	fa0, fa0, fa5
   155fa: 41 01        	addi	sp, sp, 0x10
   155fc: d1 b7        	j	0x155c0 <with_errno>

00000000000155fe <__math_uflow>:
   155fe: 07 b5 81 0f  	fld	fa0, 0xf8(gp)
   15602: c5 b7        	j	0x155e2 <xflow>

0000000000015604 <__math_may_uflow>:
   15604: 07 b5 01 10  	fld	fa0, 0x100(gp)
   15608: e9 bf        	j	0x155e2 <xflow>

000000000001560a <__math_oflow>:
   1560a: 07 b5 81 10  	fld	fa0, 0x108(gp)
   1560e: d1 bf        	j	0x155e2 <xflow>

0000000000015610 <__math_divzero>:
   15610: 41 11        	addi	sp, sp, -0x10
   15612: 09 cd        	beqz	a0, 0x1562c <__math_divzero+0x1c>
   15614: 87 b7 01 11  	fld	fa5, 0x110(gp)
   15618: 13 05 20 02  	li	a0, 0x22
   1561c: 3e a4        	fsd	fa5, 0x8(sp)
   1561e: 22 25        	fld	fa0, 0x8(sp)
   15620: d3 07 00 f2  	fmv.d.x	fa5, zero
   15624: 41 01        	addi	sp, sp, 0x10
   15626: 53 75 f5 1a  	fdiv.d	fa0, fa0, fa5
   1562a: 59 bf        	j	0x155c0 <with_errno>
   1562c: 87 b7 01 0e  	fld	fa5, 0xe0(gp)
   15630: 13 05 20 02  	li	a0, 0x22
   15634: 3e a4        	fsd	fa5, 0x8(sp)
   15636: 22 25        	fld	fa0, 0x8(sp)
   15638: d3 07 00 f2  	fmv.d.x	fa5, zero
   1563c: 41 01        	addi	sp, sp, 0x10
   1563e: 53 75 f5 1a  	fdiv.d	fa0, fa0, fa5
   15642: bd bf        	j	0x155c0 <with_errno>

0000000000015644 <__math_invalid>:
   15644: d3 77 a5 0a  	fsub.d	fa5, fa0, fa0
   15648: d3 27 a5 a2  	feq.d	a5, fa0, fa0
   1564c: 53 f5 f7 1a  	fdiv.d	fa0, fa5, fa5
   15650: 81 c7        	beqz	a5, 0x15658 <__math_invalid+0x14>
   15652: 13 05 10 02  	li	a0, 0x21
   15656: ad b7        	j	0x155c0 <with_errno>
   15658: 82 80        	ret

000000000001565a <__math_check_uflow>:
   1565a: d3 07 00 f2  	fmv.d.x	fa5, zero
   1565e: d3 27 f5 a2  	feq.d	a5, fa0, fa5
   15662: 91 e3        	bnez	a5, 0x15666 <__math_check_uflow+0xc>
   15664: 82 80        	ret
   15666: 13 05 20 02  	li	a0, 0x22
   1566a: 99 bf        	j	0x155c0 <with_errno>

000000000001566c <__math_check_oflow>:
   1566c: d3 27 a5 22  	fabs.d	fa5, fa0
   15670: 73 27 10 00  	frflags	a4
   15674: 07 b7 81 11  	fld	fa4, 0x118(gp)
   15678: d3 17 f7 a2  	flt.d	a5, fa4, fa5
   1567c: 73 10 17 00  	fsflags	a4
   15680: 91 e3        	bnez	a5, 0x15684 <__math_check_oflow+0x18>
   15682: 82 80        	ret
   15684: 13 05 20 02  	li	a0, 0x22
   15688: 25 bf        	j	0x155c0 <with_errno>

000000000001568a <atof>:
   1568a: 81 45        	li	a1, 0x0
   1568c: 6f 10 60 54  	j	0x16bd2 <strtod>

0000000000015690 <atoi>:
   15690: 41 11        	addi	sp, sp, -0x10
   15692: 29 46        	li	a2, 0xa
   15694: 81 45        	li	a1, 0x0
   15696: 06 e4        	sd	ra, 0x8(sp)
   15698: ef 10 70 01  	jal	0x16eae <strtol>
   1569c: a2 60        	ld	ra, 0x8(sp)
   1569e: 01 25        	sext.w	a0, a0
   156a0: 41 01        	addi	sp, sp, 0x10
   156a2: 82 80        	ret

00000000000156a4 <_atoi_r>:
   156a4: 41 11        	addi	sp, sp, -0x10
   156a6: a9 46        	li	a3, 0xa
   156a8: 01 46        	li	a2, 0x0
   156aa: 06 e4        	sd	ra, 0x8(sp)
   156ac: ef 10 e0 7e  	jal	0x16e9a <_strtol_r>
   156b0: a2 60        	ld	ra, 0x8(sp)
   156b2: 01 25        	sext.w	a0, a0
   156b4: 41 01        	addi	sp, sp, 0x10
   156b6: 82 80        	ret

00000000000156b8 <malloc>:
   156b8: aa 85        	mv	a1, a0
   156ba: 03 b5 01 23  	ld	a0, 0x230(gp)
   156be: 31 a0        	j	0x156ca <_malloc_r>

00000000000156c0 <free>:
   156c0: aa 85        	mv	a1, a0
   156c2: 03 b5 01 23  	ld	a0, 0x230(gp)
   156c6: 6f 30 60 42  	j	0x18aec <_free_r>

00000000000156ca <_malloc_r>:
   156ca: 1d 71        	addi	sp, sp, -0x60
   156cc: a6 e4        	sd	s1, 0x48(sp)
   156ce: ca e0        	sd	s2, 0x40(sp)
   156d0: 86 ec        	sd	ra, 0x58(sp)
   156d2: a2 e8        	sd	s0, 0x50(sp)
   156d4: 4e fc        	sd	s3, 0x38(sp)
   156d6: 93 84 75 01  	addi	s1, a1, 0x17
   156da: 93 07 e0 02  	li	a5, 0x2e
   156de: 2a 89        	mv	s2, a0
   156e0: 63 ee 97 04  	bltu	a5, s1, 0x1573c <_malloc_r+0x72>
   156e4: 93 07 00 02  	li	a5, 0x20
   156e8: 63 ec b7 18  	bltu	a5, a1, 0x15880 <_malloc_r+0x1b6>
   156ec: ef 00 60 5e  	jal	0x15cd2 <__malloc_lock>
   156f0: 93 07 00 05  	li	a5, 0x50
   156f4: 91 45        	li	a1, 0x4
   156f6: 93 04 00 02  	li	s1, 0x20
   156fa: b7 29 02 00  	lui	s3, 0x22
   156fe: 93 89 09 4a  	addi	s3, s3, 0x4a0
   15702: ce 97        	add	a5, a5, s3
   15704: 80 67        	ld	s0, 0x8(a5)
   15706: 13 87 07 ff  	addi	a4, a5, -0x10
   1570a: 63 0f e4 26  	beq	s0, a4, 0x15988 <_malloc_r+0x2be>
   1570e: 1c 64        	ld	a5, 0x8(s0)
   15710: 14 6c        	ld	a3, 0x18(s0)
   15712: 10 68        	ld	a2, 0x10(s0)
   15714: f1 9b        	andi	a5, a5, -0x4
   15716: a2 97        	add	a5, a5, s0
   15718: 98 67        	ld	a4, 0x8(a5)
   1571a: 14 ee        	sd	a3, 0x18(a2)
   1571c: 90 ea        	sd	a2, 0x10(a3)
   1571e: 13 67 17 00  	ori	a4, a4, 0x1
   15722: 4a 85        	mv	a0, s2
   15724: 98 e7        	sd	a4, 0x8(a5)
   15726: ef 00 e0 5a  	jal	0x15cd4 <__malloc_unlock>
   1572a: 13 05 04 01  	addi	a0, s0, 0x10
   1572e: e6 60        	ld	ra, 0x58(sp)
   15730: 46 64        	ld	s0, 0x50(sp)
   15732: a6 64        	ld	s1, 0x48(sp)
   15734: 06 69        	ld	s2, 0x40(sp)
   15736: e2 79        	ld	s3, 0x38(sp)
   15738: 25 61        	addi	sp, sp, 0x60
   1573a: 82 80        	ret
   1573c: b7 07 00 80  	lui	a5, 0x80000
   15740: c1 98        	andi	s1, s1, -0x10
   15742: 93 c7 f7 ff  	not	a5, a5
   15746: 63 ed 97 12  	bltu	a5, s1, 0x15880 <_malloc_r+0x1b6>
   1574a: 63 eb b4 12  	bltu	s1, a1, 0x15880 <_malloc_r+0x1b6>
   1574e: ef 00 40 58  	jal	0x15cd2 <__malloc_lock>
   15752: 93 07 70 1f  	li	a5, 0x1f7
   15756: 63 f4 97 32  	bgeu	a5, s1, 0x15a7e <_malloc_r+0x3b4>
   1575a: 93 d7 94 00  	srli	a5, s1, 0x9
   1575e: 63 86 07 12  	beqz	a5, 0x1588a <_malloc_r+0x1c0>
   15762: 11 47        	li	a4, 0x4
   15764: 63 69 f7 26  	bltu	a4, a5, 0x159d6 <_malloc_r+0x30c>
   15768: 93 d7 64 00  	srli	a5, s1, 0x6
   1576c: 9b 85 97 03  	addiw	a1, a5, 0x39
   15770: 1b 96 15 00  	slliw	a2, a1, 0x1
   15774: 1b 88 87 03  	addiw	a6, a5, 0x38
   15778: 0e 06        	slli	a2, a2, 0x3
   1577a: b7 29 02 00  	lui	s3, 0x22
   1577e: 93 89 09 4a  	addi	s3, s3, 0x4a0
   15782: 4e 96        	add	a2, a2, s3
   15784: 00 66        	ld	s0, 0x8(a2)
   15786: 41 16        	addi	a2, a2, -0x10
   15788: 63 01 86 02  	beq	a2, s0, 0x157aa <_malloc_r+0xe0>
   1578c: 7d 45        	li	a0, 0x1f
   1578e: 39 a0        	j	0x1579c <_malloc_r+0xd2>
   15790: 14 6c        	ld	a3, 0x18(s0)
   15792: 63 59 07 1e  	bgez	a4, 0x15984 <_malloc_r+0x2ba>
   15796: 63 0a d6 00  	beq	a2, a3, 0x157aa <_malloc_r+0xe0>
   1579a: 36 84        	mv	s0, a3
   1579c: 1c 64        	ld	a5, 0x8(s0)
   1579e: f1 9b        	andi	a5, a5, -0x4
   157a0: 33 87 97 40  	sub	a4, a5, s1
   157a4: e3 56 e5 fe  	bge	a0, a4, 0x15790 <_malloc_r+0xc6>
   157a8: c2 85        	mv	a1, a6
   157aa: 03 b4 09 02  	ld	s0, 0x20(s3)
   157ae: 37 28 02 00  	lui	a6, 0x22
   157b2: 13 08 08 4b  	addi	a6, a6, 0x4b0
   157b6: 63 04 04 1d  	beq	s0, a6, 0x1597e <_malloc_r+0x2b4>
   157ba: 1c 64        	ld	a5, 0x8(s0)
   157bc: fd 46        	li	a3, 0x1f
   157be: f1 9b        	andi	a5, a5, -0x4
   157c0: 33 87 97 40  	sub	a4, a5, s1
   157c4: 63 c6 e6 28  	blt	a3, a4, 0x15a50 <_malloc_r+0x386>
   157c8: 23 b4 09 03  	sd	a6, 0x28(s3)
   157cc: 23 b0 09 03  	sd	a6, 0x20(s3)
   157d0: 63 55 07 26  	bgez	a4, 0x15a3a <_malloc_r+0x370>
   157d4: 13 07 f0 1f  	li	a4, 0x1ff
   157d8: 03 b5 89 00  	ld	a0, 0x8(s3)
   157dc: 63 6b f7 1a  	bltu	a4, a5, 0x15992 <_malloc_r+0x2c8>
   157e0: 8d 83        	srli	a5, a5, 0x3
   157e2: 1b 87 17 00  	addiw	a4, a5, 0x1
   157e6: 1b 17 17 00  	slliw	a4, a4, 0x1
   157ea: 0e 07        	slli	a4, a4, 0x3
   157ec: 4e 97        	add	a4, a4, s3
   157ee: 10 63        	ld	a2, 0x0(a4)
   157f0: 9b d7 27 40  	sraiw	a5, a5, 0x2
   157f4: 85 46        	li	a3, 0x1
   157f6: b3 97 f6 00  	sll	a5, a3, a5
   157fa: 5d 8d        	or	a0, a0, a5
   157fc: 93 07 07 ff  	addi	a5, a4, -0x10
   15800: 1c ec        	sd	a5, 0x18(s0)
   15802: 10 e8        	sd	a2, 0x10(s0)
   15804: 23 b4 a9 00  	sd	a0, 0x8(s3)
   15808: 00 e3        	sd	s0, 0x0(a4)
   1580a: 00 ee        	sd	s0, 0x18(a2)
   1580c: 9b d7 25 40  	sraiw	a5, a1, 0x2
   15810: 05 46        	li	a2, 0x1
   15812: 33 16 f6 00  	sll	a2, a2, a5
   15816: 63 61 c5 08  	bltu	a0, a2, 0x15898 <_malloc_r+0x1ce>
   1581a: b3 77 a6 00  	and	a5, a2, a0
   1581e: 81 ef        	bnez	a5, 0x15836 <_malloc_r+0x16c>
   15820: 06 06        	slli	a2, a2, 0x1
   15822: f1 99        	andi	a1, a1, -0x4
   15824: b3 77 a6 00  	and	a5, a2, a0
   15828: 91 25        	addiw	a1, a1, 0x4
   1582a: 91 e7        	bnez	a5, 0x15836 <_malloc_r+0x16c>
   1582c: 06 06        	slli	a2, a2, 0x1
   1582e: b3 77 a6 00  	and	a5, a2, a0
   15832: 91 25        	addiw	a1, a1, 0x4
   15834: e5 df        	beqz	a5, 0x1582c <_malloc_r+0x162>
   15836: fd 48        	li	a7, 0x1f
   15838: 1b 83 15 00  	addiw	t1, a1, 0x1
   1583c: 1b 13 13 00  	slliw	t1, t1, 0x1
   15840: 0e 03        	slli	t1, t1, 0x3
   15842: 41 13        	addi	t1, t1, -0x10
   15844: 4e 93        	add	t1, t1, s3
   15846: 1a 85        	mv	a0, t1
   15848: 1c 6d        	ld	a5, 0x18(a0)
   1584a: 2e 8e        	mv	t3, a1
   1584c: 63 06 f5 1a  	beq	a0, a5, 0x159f8 <_malloc_r+0x32e>
   15850: 98 67        	ld	a4, 0x8(a5)
   15852: 3e 84        	mv	s0, a5
   15854: 9c 6f        	ld	a5, 0x18(a5)
   15856: 71 9b        	andi	a4, a4, -0x4
   15858: b3 06 97 40  	sub	a3, a4, s1
   1585c: 63 c5 d8 1a  	blt	a7, a3, 0x15a06 <_malloc_r+0x33c>
   15860: e3 c6 06 fe  	bltz	a3, 0x1584c <_malloc_r+0x182>
   15864: 22 97        	add	a4, a4, s0
   15866: 14 67        	ld	a3, 0x8(a4)
   15868: 10 68        	ld	a2, 0x10(s0)
   1586a: 4a 85        	mv	a0, s2
   1586c: 93 e6 16 00  	ori	a3, a3, 0x1
   15870: 14 e7        	sd	a3, 0x8(a4)
   15872: 1c ee        	sd	a5, 0x18(a2)
   15874: 90 eb        	sd	a2, 0x10(a5)
   15876: ef 00 e0 45  	jal	0x15cd4 <__malloc_unlock>
   1587a: 13 05 04 01  	addi	a0, s0, 0x10
   1587e: 45 bd        	j	0x1572e <_malloc_r+0x64>
   15880: b1 47        	li	a5, 0xc
   15882: 23 20 f9 00  	sw	a5, 0x0(s2)
   15886: 01 45        	li	a0, 0x0
   15888: 5d b5        	j	0x1572e <_malloc_r+0x64>
   1588a: 13 06 00 40  	li	a2, 0x400
   1588e: 93 05 00 04  	li	a1, 0x40
   15892: 13 08 f0 03  	li	a6, 0x3f
   15896: d5 b5        	j	0x1577a <_malloc_r+0xb0>
   15898: 03 b4 09 01  	ld	s0, 0x10(s3)
   1589c: 56 f4        	sd	s5, 0x28(sp)
   1589e: 1c 64        	ld	a5, 0x8(s0)
   158a0: 93 fa c7 ff  	andi	s5, a5, -0x4
   158a4: 63 e7 9a 00  	bltu	s5, s1, 0x158b2 <_malloc_r+0x1e8>
   158a8: 33 87 9a 40  	sub	a4, s5, s1
   158ac: fd 47        	li	a5, 0x1f
   158ae: 63 c2 e7 0a  	blt	a5, a4, 0x15952 <_malloc_r+0x288>
   158b2: 66 e4        	sd	s9, 0x8(sp)
   158b4: 52 f8        	sd	s4, 0x30(sp)
   158b6: 03 b7 01 22  	ld	a4, 0x220(gp)
   158ba: 03 ba 81 24  	ld	s4, 0x248(gp)
   158be: 62 e8        	sd	s8, 0x10(sp)
   158c0: 5a f0        	sd	s6, 0x20(sp)
   158c2: fd 57        	li	a5, -0x1
   158c4: 33 0c 54 01  	add	s8, s0, s5
   158c8: 26 9a        	add	s4, s4, s1
   158ca: 63 08 f7 2e  	beq	a4, a5, 0x15bba <_malloc_r+0x4f0>
   158ce: 85 67        	lui	a5, 0x1
   158d0: fd 07        	addi	a5, a5, 0x1f
   158d2: 3e 9a        	add	s4, s4, a5
   158d4: fd 77        	lui	a5, 0xfffff
   158d6: 33 7a fa 00  	and	s4, s4, a5
   158da: d2 85        	mv	a1, s4
   158dc: 4a 85        	mv	a0, s2
   158de: ef 20 f0 3e  	jal	0x184cc <_sbrk_r>
   158e2: fd 57        	li	a5, -0x1
   158e4: 2a 8b        	mv	s6, a0
   158e6: 63 00 f5 36  	beq	a0, a5, 0x15c46 <_malloc_r+0x57c>
   158ea: 5e ec        	sd	s7, 0x18(sp)
   158ec: 63 6c 85 1b  	bltu	a0, s8, 0x15aa4 <_malloc_r+0x3da>
   158f0: 93 8b 01 2b  	addi	s7, gp, 0x2b0
   158f4: 83 a7 0b 00  	lw	a5, 0x0(s7)
   158f8: 3b 87 47 01  	addw	a4, a5, s4
   158fc: 23 a0 eb 00  	sw	a4, 0x0(s7)
   15900: ba 86        	mv	a3, a4
   15902: 63 17 ac 20  	bne	s8, a0, 0x15b10 <_malloc_r+0x446>
   15906: 93 17 45 03  	slli	a5, a0, 0x34
   1590a: 63 93 07 20  	bnez	a5, 0x15b10 <_malloc_r+0x446>
   1590e: 03 bb 09 01  	ld	s6, 0x10(s3)
   15912: b3 87 4a 01  	add	a5, s5, s4
   15916: 93 e7 17 00  	ori	a5, a5, 0x1
   1591a: 23 34 fb 00  	sd	a5, 0x8(s6)
   1591e: 03 b6 01 24  	ld	a2, 0x240(gp)
   15922: 63 74 e6 00  	bgeu	a2, a4, 0x1592a <_malloc_r+0x260>
   15926: 23 b0 e1 24  	sd	a4, 0x240(gp)
   1592a: 03 b6 81 23  	ld	a2, 0x238(gp)
   1592e: 63 74 e6 00  	bgeu	a2, a4, 0x15936 <_malloc_r+0x26c>
   15932: 23 bc e1 22  	sd	a4, 0x238(gp)
   15936: e2 6b        	ld	s7, 0x18(sp)
   15938: 5a 84        	mv	s0, s6
   1593a: f1 9b        	andi	a5, a5, -0x4
   1593c: 33 87 97 40  	sub	a4, a5, s1
   15940: 63 ed 97 2a  	bltu	a5, s1, 0x15bfa <_malloc_r+0x530>
   15944: fd 47        	li	a5, 0x1f
   15946: 63 da e7 2a  	bge	a5, a4, 0x15bfa <_malloc_r+0x530>
   1594a: 42 7a        	ld	s4, 0x30(sp)
   1594c: 02 7b        	ld	s6, 0x20(sp)
   1594e: 42 6c        	ld	s8, 0x10(sp)
   15950: a2 6c        	ld	s9, 0x8(sp)
   15952: 93 e7 14 00  	ori	a5, s1, 0x1
   15956: 1c e4        	sd	a5, 0x8(s0)
   15958: a2 94        	add	s1, s1, s0
   1595a: 23 b8 99 00  	sd	s1, 0x10(s3)
   1595e: 13 67 17 00  	ori	a4, a4, 0x1
   15962: 4a 85        	mv	a0, s2
   15964: 98 e4        	sd	a4, 0x8(s1)
   15966: ef 00 e0 36  	jal	0x15cd4 <__malloc_unlock>
   1596a: e6 60        	ld	ra, 0x58(sp)
   1596c: 13 05 04 01  	addi	a0, s0, 0x10
   15970: 46 64        	ld	s0, 0x50(sp)
   15972: a2 7a        	ld	s5, 0x28(sp)
   15974: a6 64        	ld	s1, 0x48(sp)
   15976: 06 69        	ld	s2, 0x40(sp)
   15978: e2 79        	ld	s3, 0x38(sp)
   1597a: 25 61        	addi	sp, sp, 0x60
   1597c: 82 80        	ret
   1597e: 03 b5 89 00  	ld	a0, 0x8(s3)
   15982: 69 b5        	j	0x1580c <_malloc_r+0x142>
   15984: 10 68        	ld	a2, 0x10(s0)
   15986: 41 bb        	j	0x15716 <_malloc_r+0x4c>
   15988: 80 6f        	ld	s0, 0x18(a5)
   1598a: 89 25        	addiw	a1, a1, 0x2
   1598c: e3 8f 87 e0  	beq	a5, s0, 0x157aa <_malloc_r+0xe0>
   15990: bd bb        	j	0x1570e <_malloc_r+0x44>
   15992: 13 d7 97 00  	srli	a4, a5, 0x9
   15996: 91 46        	li	a3, 0x4
   15998: 63 fc e6 0e  	bgeu	a3, a4, 0x15a90 <_malloc_r+0x3c6>
   1599c: d1 46        	li	a3, 0x14
   1599e: 63 e8 e6 26  	bltu	a3, a4, 0x15c0e <_malloc_r+0x544>
   159a2: 1b 06 c7 05  	addiw	a2, a4, 0x5c
   159a6: 1b 16 16 00  	slliw	a2, a2, 0x1
   159aa: 9b 06 b7 05  	addiw	a3, a4, 0x5b
   159ae: 0e 06        	slli	a2, a2, 0x3
   159b0: 4e 96        	add	a2, a2, s3
   159b2: 18 62        	ld	a4, 0x0(a2)
   159b4: 41 16        	addi	a2, a2, -0x10
   159b6: 63 16 e6 00  	bne	a2, a4, 0x159c2 <_malloc_r+0x2f8>
   159ba: 19 a4        	j	0x15bc0 <_malloc_r+0x4f6>
   159bc: 18 6b        	ld	a4, 0x10(a4)
   159be: 63 06 e6 00  	beq	a2, a4, 0x159ca <_malloc_r+0x300>
   159c2: 14 67        	ld	a3, 0x8(a4)
   159c4: f1 9a        	andi	a3, a3, -0x4
   159c6: e3 eb d7 fe  	bltu	a5, a3, 0x159bc <_malloc_r+0x2f2>
   159ca: 10 6f        	ld	a2, 0x18(a4)
   159cc: 10 ec        	sd	a2, 0x18(s0)
   159ce: 18 e8        	sd	a4, 0x10(s0)
   159d0: 00 ea        	sd	s0, 0x10(a2)
   159d2: 00 ef        	sd	s0, 0x18(a4)
   159d4: 25 bd        	j	0x1580c <_malloc_r+0x142>
   159d6: 51 47        	li	a4, 0x14
   159d8: 63 7d f7 0c  	bgeu	a4, a5, 0x15ab2 <_malloc_r+0x3e8>
   159dc: 13 07 40 05  	li	a4, 0x54
   159e0: 63 65 f7 24  	bltu	a4, a5, 0x15c2a <_malloc_r+0x560>
   159e4: 93 d7 c4 00  	srli	a5, s1, 0xc
   159e8: 9b 85 f7 06  	addiw	a1, a5, 0x6f
   159ec: 1b 96 15 00  	slliw	a2, a1, 0x1
   159f0: 1b 88 e7 06  	addiw	a6, a5, 0x6e
   159f4: 0e 06        	slli	a2, a2, 0x3
   159f6: 51 b3        	j	0x1577a <_malloc_r+0xb0>
   159f8: 05 2e        	addiw	t3, t3, 0x1
   159fa: 93 77 3e 00  	andi	a5, t3, 0x3
   159fe: 41 05        	addi	a0, a0, 0x10
   15a00: f1 c7        	beqz	a5, 0x15acc <_malloc_r+0x402>
   15a02: 1c 6d        	ld	a5, 0x18(a0)
   15a04: a1 b5        	j	0x1584c <_malloc_r+0x182>
   15a06: 10 68        	ld	a2, 0x10(s0)
   15a08: 93 e5 14 00  	ori	a1, s1, 0x1
   15a0c: 0c e4        	sd	a1, 0x8(s0)
   15a0e: 1c ee        	sd	a5, 0x18(a2)
   15a10: 90 eb        	sd	a2, 0x10(a5)
   15a12: a2 94        	add	s1, s1, s0
   15a14: 23 b4 99 02  	sd	s1, 0x28(s3)
   15a18: 23 b0 99 02  	sd	s1, 0x20(s3)
   15a1c: 93 e7 16 00  	ori	a5, a3, 0x1
   15a20: 23 bc 04 01  	sd	a6, 0x18(s1)
   15a24: 23 b8 04 01  	sd	a6, 0x10(s1)
   15a28: 9c e4        	sd	a5, 0x8(s1)
   15a2a: 22 97        	add	a4, a4, s0
   15a2c: 4a 85        	mv	a0, s2
   15a2e: 14 e3        	sd	a3, 0x0(a4)
   15a30: ef 00 40 2a  	jal	0x15cd4 <__malloc_unlock>
   15a34: 13 05 04 01  	addi	a0, s0, 0x10
   15a38: dd b9        	j	0x1572e <_malloc_r+0x64>
   15a3a: a2 97        	add	a5, a5, s0
   15a3c: 98 67        	ld	a4, 0x8(a5)
   15a3e: 4a 85        	mv	a0, s2
   15a40: 13 67 17 00  	ori	a4, a4, 0x1
   15a44: 98 e7        	sd	a4, 0x8(a5)
   15a46: ef 00 e0 28  	jal	0x15cd4 <__malloc_unlock>
   15a4a: 13 05 04 01  	addi	a0, s0, 0x10
   15a4e: c5 b1        	j	0x1572e <_malloc_r+0x64>
   15a50: 93 e6 14 00  	ori	a3, s1, 0x1
   15a54: 14 e4        	sd	a3, 0x8(s0)
   15a56: a2 94        	add	s1, s1, s0
   15a58: 23 b4 99 02  	sd	s1, 0x28(s3)
   15a5c: 23 b0 99 02  	sd	s1, 0x20(s3)
   15a60: 93 66 17 00  	ori	a3, a4, 0x1
   15a64: 23 bc 04 01  	sd	a6, 0x18(s1)
   15a68: 23 b8 04 01  	sd	a6, 0x10(s1)
   15a6c: 94 e4        	sd	a3, 0x8(s1)
   15a6e: a2 97        	add	a5, a5, s0
   15a70: 4a 85        	mv	a0, s2
   15a72: 98 e3        	sd	a4, 0x0(a5)
   15a74: ef 00 00 26  	jal	0x15cd4 <__malloc_unlock>
   15a78: 13 05 04 01  	addi	a0, s0, 0x10
   15a7c: 4d b9        	j	0x1572e <_malloc_r+0x64>
   15a7e: 93 d5 34 00  	srli	a1, s1, 0x3
   15a82: 9b 87 15 00  	addiw	a5, a1, 0x1
   15a86: 9b 97 17 00  	slliw	a5, a5, 0x1
   15a8a: 81 25        	sext.w	a1, a1
   15a8c: 8e 07        	slli	a5, a5, 0x3
   15a8e: b5 b1        	j	0x156fa <_malloc_r+0x30>
   15a90: 13 d7 67 00  	srli	a4, a5, 0x6
   15a94: 1b 06 97 03  	addiw	a2, a4, 0x39
   15a98: 1b 16 16 00  	slliw	a2, a2, 0x1
   15a9c: 9b 06 87 03  	addiw	a3, a4, 0x38
   15aa0: 0e 06        	slli	a2, a2, 0x3
   15aa2: 39 b7        	j	0x159b0 <_malloc_r+0x2e6>
   15aa4: 63 0e 34 05  	beq	s0, s3, 0x15b00 <_malloc_r+0x436>
   15aa8: 03 b4 09 01  	ld	s0, 0x10(s3)
   15aac: e2 6b        	ld	s7, 0x18(sp)
   15aae: 1c 64        	ld	a5, 0x8(s0)
   15ab0: 69 b5        	j	0x1593a <_malloc_r+0x270>
   15ab2: 9b 85 c7 05  	addiw	a1, a5, 0x5c
   15ab6: 1b 96 15 00  	slliw	a2, a1, 0x1
   15aba: 1b 88 b7 05  	addiw	a6, a5, 0x5b
   15abe: 0e 06        	slli	a2, a2, 0x3
   15ac0: 6d b9        	j	0x1577a <_malloc_r+0xb0>
   15ac2: 83 37 03 01  	ld	a5, 0x10(t1)
   15ac6: fd 35        	addiw	a1, a1, -0x1
   15ac8: 63 92 67 20  	bne	a5, t1, 0x15ccc <_malloc_r+0x602>
   15acc: 93 f7 35 00  	andi	a5, a1, 0x3
   15ad0: 41 13        	addi	t1, t1, -0x10
   15ad2: e5 fb        	bnez	a5, 0x15ac2 <_malloc_r+0x3f8>
   15ad4: 03 b7 89 00  	ld	a4, 0x8(s3)
   15ad8: 93 47 f6 ff  	not	a5, a2
   15adc: f9 8f        	and	a5, a5, a4
   15ade: 23 b4 f9 00  	sd	a5, 0x8(s3)
   15ae2: 06 06        	slli	a2, a2, 0x1
   15ae4: e3 ea c7 da  	bltu	a5, a2, 0x15898 <_malloc_r+0x1ce>
   15ae8: e3 08 06 da  	beqz	a2, 0x15898 <_malloc_r+0x1ce>
   15aec: 33 77 f6 00  	and	a4, a2, a5
   15af0: 11 e7        	bnez	a4, 0x15afc <_malloc_r+0x432>
   15af2: 06 06        	slli	a2, a2, 0x1
   15af4: 33 77 f6 00  	and	a4, a2, a5
   15af8: 11 2e        	addiw	t3, t3, 0x4
   15afa: 65 df        	beqz	a4, 0x15af2 <_malloc_r+0x428>
   15afc: f2 85        	mv	a1, t3
   15afe: 2d bb        	j	0x15838 <_malloc_r+0x16e>
   15b00: 93 8b 01 2b  	addi	s7, gp, 0x2b0
   15b04: 83 a7 0b 00  	lw	a5, 0x0(s7)
   15b08: bb 86 47 01  	addw	a3, a5, s4
   15b0c: 23 a0 db 00  	sw	a3, 0x0(s7)
   15b10: 03 b7 01 22  	ld	a4, 0x220(gp)
   15b14: fd 57        	li	a5, -0x1
   15b16: 63 0c f7 12  	beq	a4, a5, 0x15c4e <_malloc_r+0x584>
   15b1a: b3 07 8b 41  	sub	a5, s6, s8
   15b1e: b5 9f        	addw	a5, a5, a3
   15b20: 23 a0 fb 00  	sw	a5, 0x0(s7)
   15b24: 93 7c fb 00  	andi	s9, s6, 0xf
   15b28: 63 85 0c 0a  	beqz	s9, 0x15bd2 <_malloc_r+0x508>
   15b2c: 33 0b 9b 41  	sub	s6, s6, s9
   15b30: 05 67        	lui	a4, 0x1
   15b32: 41 07        	addi	a4, a4, 0x10
   15b34: 41 0b        	addi	s6, s6, 0x10
   15b36: 33 0c 97 41  	sub	s8, a4, s9
   15b3a: 5a 9a        	add	s4, s4, s6
   15b3c: 33 0c 4c 41  	sub	s8, s8, s4
   15b40: 52 1c        	slli	s8, s8, 0x34
   15b42: 13 5c 4c 03  	srli	s8, s8, 0x34
   15b46: e2 85        	mv	a1, s8
   15b48: 4a 85        	mv	a0, s2
   15b4a: ef 20 30 18  	jal	0x184cc <_sbrk_r>
   15b4e: fd 57        	li	a5, -0x1
   15b50: 63 0e f5 12  	beq	a0, a5, 0x15c8c <_malloc_r+0x5c2>
   15b54: 33 05 65 41  	sub	a0, a0, s6
   15b58: 9b 06 0c 00  	sext.w	a3, s8
   15b5c: 33 0a 85 01  	add	s4, a0, s8
   15b60: 03 a7 0b 00  	lw	a4, 0x0(s7)
   15b64: 23 b8 69 01  	sd	s6, 0x10(s3)
   15b68: 93 67 1a 00  	ori	a5, s4, 0x1
   15b6c: 35 9f        	addw	a4, a4, a3
   15b6e: 23 a0 eb 00  	sw	a4, 0x0(s7)
   15b72: 23 34 fb 00  	sd	a5, 0x8(s6)
   15b76: e3 04 34 db  	beq	s0, s3, 0x1591e <_malloc_r+0x254>
   15b7a: 7d 46        	li	a2, 0x1f
   15b7c: 63 7b 56 07  	bgeu	a2, s5, 0x15bf2 <_malloc_r+0x528>
   15b80: 14 64        	ld	a3, 0x8(s0)
   15b82: 93 87 8a fe  	addi	a5, s5, -0x18
   15b86: c1 9b        	andi	a5, a5, -0x10
   15b88: 85 8a        	andi	a3, a3, 0x1
   15b8a: dd 8e        	or	a3, a3, a5
   15b8c: 14 e4        	sd	a3, 0x8(s0)
   15b8e: a5 45        	li	a1, 0x9
   15b90: b3 06 f4 00  	add	a3, s0, a5
   15b94: 8c e6        	sd	a1, 0x8(a3)
   15b96: 8c ea        	sd	a1, 0x10(a3)
   15b98: 63 65 f6 00  	bltu	a2, a5, 0x15ba2 <_malloc_r+0x4d8>
   15b9c: 83 37 8b 00  	ld	a5, 0x8(s6)
   15ba0: bd bb        	j	0x1591e <_malloc_r+0x254>
   15ba2: 93 05 04 01  	addi	a1, s0, 0x10
   15ba6: 4a 85        	mv	a0, s2
   15ba8: ef 20 50 74  	jal	0x18aec <_free_r>
   15bac: 03 bb 09 01  	ld	s6, 0x10(s3)
   15bb0: 03 a7 0b 00  	lw	a4, 0x0(s7)
   15bb4: 83 37 8b 00  	ld	a5, 0x8(s6)
   15bb8: 9d b3        	j	0x1591e <_malloc_r+0x254>
   15bba: 13 0a 0a 02  	addi	s4, s4, 0x20
   15bbe: 31 bb        	j	0x158da <_malloc_r+0x210>
   15bc0: 9b d6 26 40  	sraiw	a3, a3, 0x2
   15bc4: 85 47        	li	a5, 0x1
   15bc6: b3 97 d7 00  	sll	a5, a5, a3
   15bca: 5d 8d        	or	a0, a0, a5
   15bcc: 23 b4 a9 00  	sd	a0, 0x8(s3)
   15bd0: f5 bb        	j	0x159cc <_malloc_r+0x302>
   15bd2: 33 0c 4b 01  	add	s8, s6, s4
   15bd6: 33 0c 80 41  	neg	s8, s8
   15bda: 52 1c        	slli	s8, s8, 0x34
   15bdc: 13 5c 4c 03  	srli	s8, s8, 0x34
   15be0: e2 85        	mv	a1, s8
   15be2: 4a 85        	mv	a0, s2
   15be4: ef 20 90 0e  	jal	0x184cc <_sbrk_r>
   15be8: fd 57        	li	a5, -0x1
   15bea: 81 46        	li	a3, 0x0
   15bec: e3 14 f5 f6  	bne	a0, a5, 0x15b54 <_malloc_r+0x48a>
   15bf0: 85 bf        	j	0x15b60 <_malloc_r+0x496>
   15bf2: e2 6b        	ld	s7, 0x18(sp)
   15bf4: 85 47        	li	a5, 0x1
   15bf6: 23 34 fb 00  	sd	a5, 0x8(s6)
   15bfa: 4a 85        	mv	a0, s2
   15bfc: ef 00 80 0d  	jal	0x15cd4 <__malloc_unlock>
   15c00: 01 45        	li	a0, 0x0
   15c02: 42 7a        	ld	s4, 0x30(sp)
   15c04: a2 7a        	ld	s5, 0x28(sp)
   15c06: 02 7b        	ld	s6, 0x20(sp)
   15c08: 42 6c        	ld	s8, 0x10(sp)
   15c0a: a2 6c        	ld	s9, 0x8(sp)
   15c0c: 0d b6        	j	0x1572e <_malloc_r+0x64>
   15c0e: 93 06 40 05  	li	a3, 0x54
   15c12: 63 e1 e6 04  	bltu	a3, a4, 0x15c54 <_malloc_r+0x58a>
   15c16: 13 d7 c7 00  	srli	a4, a5, 0xc
   15c1a: 1b 06 f7 06  	addiw	a2, a4, 0x6f
   15c1e: 1b 16 16 00  	slliw	a2, a2, 0x1
   15c22: 9b 06 e7 06  	addiw	a3, a4, 0x6e
   15c26: 0e 06        	slli	a2, a2, 0x3
   15c28: 61 b3        	j	0x159b0 <_malloc_r+0x2e6>
   15c2a: 13 07 40 15  	li	a4, 0x154
   15c2e: 63 61 f7 04  	bltu	a4, a5, 0x15c70 <_malloc_r+0x5a6>
   15c32: 93 d7 f4 00  	srli	a5, s1, 0xf
   15c36: 9b 85 87 07  	addiw	a1, a5, 0x78
   15c3a: 1b 96 15 00  	slliw	a2, a1, 0x1
   15c3e: 1b 88 77 07  	addiw	a6, a5, 0x77
   15c42: 0e 06        	slli	a2, a2, 0x3
   15c44: 1d be        	j	0x1577a <_malloc_r+0xb0>
   15c46: 03 b4 09 01  	ld	s0, 0x10(s3)
   15c4a: 1c 64        	ld	a5, 0x8(s0)
   15c4c: fd b1        	j	0x1593a <_malloc_r+0x270>
   15c4e: 23 b0 61 23  	sd	s6, 0x220(gp)
   15c52: c9 bd        	j	0x15b24 <_malloc_r+0x45a>
   15c54: 93 06 40 15  	li	a3, 0x154
   15c58: 63 e0 e6 04  	bltu	a3, a4, 0x15c98 <_malloc_r+0x5ce>
   15c5c: 13 d7 f7 00  	srli	a4, a5, 0xf
   15c60: 1b 06 87 07  	addiw	a2, a4, 0x78
   15c64: 1b 16 16 00  	slliw	a2, a2, 0x1
   15c68: 9b 06 77 07  	addiw	a3, a4, 0x77
   15c6c: 0e 06        	slli	a2, a2, 0x3
   15c6e: 89 b3        	j	0x159b0 <_malloc_r+0x2e6>
   15c70: 13 07 40 55  	li	a4, 0x554
   15c74: 63 60 f7 04  	bltu	a4, a5, 0x15cb4 <_malloc_r+0x5ea>
   15c78: 93 d7 24 01  	srli	a5, s1, 0x12
   15c7c: 9b 85 d7 07  	addiw	a1, a5, 0x7d
   15c80: 1b 96 15 00  	slliw	a2, a1, 0x1
   15c84: 1b 88 c7 07  	addiw	a6, a5, 0x7c
   15c88: 0e 06        	slli	a2, a2, 0x3
   15c8a: c5 bc        	j	0x1577a <_malloc_r+0xb0>
   15c8c: c1 1c        	addi	s9, s9, -0x10
   15c8e: 66 9a        	add	s4, s4, s9
   15c90: 33 0a 6a 41  	sub	s4, s4, s6
   15c94: 81 46        	li	a3, 0x0
   15c96: e9 b5        	j	0x15b60 <_malloc_r+0x496>
   15c98: 93 06 40 55  	li	a3, 0x554
   15c9c: 63 e3 e6 02  	bltu	a3, a4, 0x15cc2 <_malloc_r+0x5f8>
   15ca0: 13 d7 27 01  	srli	a4, a5, 0x12
   15ca4: 1b 06 d7 07  	addiw	a2, a4, 0x7d
   15ca8: 1b 16 16 00  	slliw	a2, a2, 0x1
   15cac: 9b 06 c7 07  	addiw	a3, a4, 0x7c
   15cb0: 0e 06        	slli	a2, a2, 0x3
   15cb2: fd b9        	j	0x159b0 <_malloc_r+0x2e6>
   15cb4: 13 06 00 7f  	li	a2, 0x7f0
   15cb8: 93 05 f0 07  	li	a1, 0x7f
   15cbc: 13 08 e0 07  	li	a6, 0x7e
   15cc0: 6d bc        	j	0x1577a <_malloc_r+0xb0>
   15cc2: 13 06 00 7f  	li	a2, 0x7f0
   15cc6: 93 06 e0 07  	li	a3, 0x7e
   15cca: dd b1        	j	0x159b0 <_malloc_r+0x2e6>
   15ccc: 83 b7 89 00  	ld	a5, 0x8(s3)
   15cd0: 09 bd        	j	0x15ae2 <_malloc_r+0x418>

0000000000015cd2 <__malloc_lock>:
   15cd2: 82 80        	ret

0000000000015cd4 <__malloc_unlock>:
   15cd4: 82 80        	ret

0000000000015cd6 <sulp>:
   15cd6: 53 05 05 f2  	fmv.d.x	fa0, a0
   15cda: 01 11        	addi	sp, sp, -0x20
   15cdc: 26 e4        	sd	s1, 0x8(sp)
   15cde: ae 84        	mv	s1, a1
   15ce0: 22 e8        	sd	s0, 0x10(sp)
   15ce2: 06 ec        	sd	ra, 0x18(sp)
   15ce4: 2a 84        	mv	s0, a0
   15ce6: ef 40 80 2b  	jal	0x19f9e <__ulp>
   15cea: 85 c4        	beqz	s1, 0x15d12 <sulp+0x3c>
   15cec: 51 90        	srli	s0, s0, 0x34
   15cee: 13 74 f4 7f  	andi	s0, s0, 0x7ff
   15cf2: 93 07 b0 06  	li	a5, 0x6b
   15cf6: 3b 87 87 40  	subw	a4, a5, s0
   15cfa: 63 5c e0 00  	blez	a4, 0x15d12 <sulp+0x3c>
   15cfe: 9b 17 47 01  	slliw	a5, a4, 0x14
   15d02: 37 07 f0 3f  	lui	a4, 0x3ff00
   15d06: b9 9f        	addw	a5, a5, a4
   15d08: 82 17        	slli	a5, a5, 0x20
   15d0a: d3 87 07 f2  	fmv.d.x	fa5, a5
   15d0e: 53 75 f5 12  	fmul.d	fa0, fa0, fa5
   15d12: e2 60        	ld	ra, 0x18(sp)
   15d14: 42 64        	ld	s0, 0x10(sp)
   15d16: a2 64        	ld	s1, 0x8(sp)
   15d18: 05 61        	addi	sp, sp, 0x20
   15d1a: 82 80        	ret

0000000000015d1c <_strtod_l>:
   15d1c: 11 71        	addi	sp, sp, -0x100
   15d1e: a2 f9        	sd	s0, 0xf0(sp)
   15d20: a6 f5        	sd	s1, 0xe8(sp)
   15d22: d2 e9        	sd	s4, 0xd0(sp)
   15d24: 2a 84        	mv	s0, a0
   15d26: 86 fd        	sd	ra, 0xf8(sp)
   15d28: d6 e5        	sd	s5, 0xc8(sp)
   15d2a: 5e fd        	sd	s7, 0xb8(sp)
   15d2c: 6e ed        	sd	s11, 0x98(sp)
   15d2e: 2e 8a        	mv	s4, a1
   15d30: b2 84        	mv	s1, a2
   15d32: 82 e8        	sd	zero, 0x50(sp)
   15d34: 2e 87        	mv	a4, a1
   15d36: 13 05 d0 02  	li	a0, 0x2d
   15d3a: ba e4        	sd	a4, 0x48(sp)
   15d3c: 83 47 07 00  	lbu	a5, 0x0(a4)
   15d40: ba 8a        	mv	s5, a4
   15d42: 63 6b f5 00  	bltu	a0, a5, 0x15d58 <_strtod_l+0x3c>
   15d46: b7 15 02 00  	lui	a1, 0x21
   15d4a: 13 96 27 00  	slli	a2, a5, 0x2
   15d4e: 93 85 45 4c  	addi	a1, a1, 0x4c4
   15d52: 2e 96        	add	a2, a2, a1
   15d54: 10 42        	lw	a2, 0x0(a2)
   15d56: 02 86        	jr	a2
   15d58: ca f1        	sd	s2, 0xe0(sp)
   15d5a: 66 f5        	sd	s9, 0xa8(sp)
   15d5c: 81 4b        	li	s7, 0x0
   15d5e: 13 07 00 03  	li	a4, 0x30
   15d62: 81 4c        	li	s9, 0x0
   15d64: 63 8f e7 12  	beq	a5, a4, 0x15ea2 <_strtod_l+0x186>
   15d68: ce ed        	sd	s3, 0xd8(sp)
   15d6a: da e1        	sd	s6, 0xc0(sp)
   15d6c: 62 f9        	sd	s8, 0xb0(sp)
   15d6e: 13 07 f0 02  	li	a4, 0x2f
   15d72: 9b 89 07 00  	sext.w	s3, a5
   15d76: e3 78 f7 26  	bgeu	a4, a5, 0x167e6 <_strtod_l+0xaca>
   15d7a: 56 85        	mv	a0, s5
   15d7c: 01 4c        	li	s8, 0x0
   15d7e: 01 4b        	li	s6, 0x0
   15d80: 01 49        	li	s2, 0x0
   15d82: 13 07 90 03  	li	a4, 0x39
   15d86: a1 45        	li	a1, 0x8
   15d88: 93 06 f0 02  	li	a3, 0x2f
   15d8c: 63 44 37 0b  	blt	a4, s3, 0x15e34 <_strtod_l+0x118>
   15d90: 63 c8 25 09  	blt	a1, s2, 0x15e20 <_strtod_l+0x104>
   15d94: 1b 16 2b 00  	slliw	a2, s6, 0x2
   15d98: 3b 06 66 01  	addw	a2, a2, s6
   15d9c: 1b 16 16 00  	slliw	a2, a2, 0x1
   15da0: 3d 9e        	addw	a2, a2, a5
   15da2: 1b 0b 06 fd  	addiw	s6, a2, -0x30
   15da6: 05 05        	addi	a0, a0, 0x1
   15da8: aa e4        	sd	a0, 0x48(sp)
   15daa: 83 47 05 00  	lbu	a5, 0x0(a0)
   15dae: 05 29        	addiw	s2, s2, 0x1
   15db0: 9b 89 07 00  	sext.w	s3, a5
   15db4: e3 cc f6 fc  	blt	a3, a5, 0x15d8c <_strtod_l+0x70>
   15db8: b7 15 02 00  	lui	a1, 0x21
   15dbc: 05 46        	li	a2, 0x1
   15dbe: 93 85 85 2f  	addi	a1, a1, 0x2f8
   15dc2: ef 20 20 41  	jal	0x181d4 <strncmp>
   15dc6: 63 16 05 10  	bnez	a0, 0x15ed2 <_strtod_l+0x1b6>
   15dca: a6 67        	ld	a5, 0x48(sp)
   15dcc: 4a 86        	mv	a2, s2
   15dce: 01 48        	li	a6, 0x0
   15dd0: 13 87 17 00  	addi	a4, a5, 0x1
   15dd4: ba e4        	sd	a4, 0x48(sp)
   15dd6: 83 c9 17 00  	lbu	s3, 0x1(a5)
   15dda: 9b 87 09 fd  	addiw	a5, s3, -0x30
   15dde: 25 47        	li	a4, 0x9
   15de0: be 86        	mv	a3, a5
   15de2: 63 61 f7 62  	bltu	a4, a5, 0x16404 <_strtod_l+0x6e8>
   15de6: 05 25        	addiw	a0, a0, 0x1
   15de8: a6 68        	ld	a7, 0x48(sp)
   15dea: aa 8e        	mv	t4, a0
   15dec: e3 95 07 1a  	bnez	a5, 0x16796 <_strtod_l+0xa7a>
   15df0: 93 87 18 00  	addi	a5, a7, 0x1
   15df4: be e4        	sd	a5, 0x48(sp)
   15df6: 83 c9 18 00  	lbu	s3, 0x1(a7)
   15dfa: c5 b7        	j	0x15dda <_strtod_l+0xbe>
   15dfc: 05 07        	addi	a4, a4, 0x1
   15dfe: 35 bf        	j	0x15d3a <_strtod_l+0x1e>
   15e00: 93 0d 00 00  	li	s11, 0x0
   15e04: 99 c0        	beqz	s1, 0x15e0a <_strtod_l+0xee>
   15e06: 23 b0 44 01  	sd	s4, 0x0(s1)
   15e0a: ee 70        	ld	ra, 0xf8(sp)
   15e0c: 4e 74        	ld	s0, 0xf0(sp)
   15e0e: 53 85 0d f2  	fmv.d.x	fa0, s11
   15e12: ae 74        	ld	s1, 0xe8(sp)
   15e14: 4e 6a        	ld	s4, 0xd0(sp)
   15e16: ae 6a        	ld	s5, 0xc8(sp)
   15e18: ea 7b        	ld	s7, 0xb8(sp)
   15e1a: ea 6d        	ld	s11, 0x98(sp)
   15e1c: 11 61        	addi	sp, sp, 0x100
   15e1e: 82 80        	ret
   15e20: 1b 16 2c 00  	slliw	a2, s8, 0x2
   15e24: 3b 06 86 01  	addw	a2, a2, s8
   15e28: 1b 16 16 00  	slliw	a2, a2, 0x1
   15e2c: b1 9f        	addw	a5, a5, a2
   15e2e: 1b 8c 07 fd  	addiw	s8, a5, -0x30
   15e32: 95 bf        	j	0x15da6 <_strtod_l+0x8a>
   15e34: b7 15 02 00  	lui	a1, 0x21
   15e38: 05 46        	li	a2, 0x1
   15e3a: 93 85 85 2f  	addi	a1, a1, 0x2f8
   15e3e: ef 20 60 39  	jal	0x181d4 <strncmp>
   15e42: 41 e9        	bnez	a0, 0x15ed2 <_strtod_l+0x1b6>
   15e44: a6 66        	ld	a3, 0x48(sp)
   15e46: b6 87        	mv	a5, a3
   15e48: 85 06        	addi	a3, a3, 0x1
   15e4a: b6 e4        	sd	a3, 0x48(sp)
   15e4c: 83 c9 17 00  	lbu	s3, 0x1(a5)
   15e50: e3 13 09 2e  	bnez	s2, 0x16936 <_strtod_l+0xc1a>
   15e54: 93 07 00 03  	li	a5, 0x30
   15e58: e3 97 f9 2c  	bne	s3, a5, 0x16926 <_strtod_l+0xc0a>
   15e5c: b6 87        	mv	a5, a3
   15e5e: 13 07 00 03  	li	a4, 0x30
   15e62: 3e 85        	mv	a0, a5
   15e64: 85 07        	addi	a5, a5, 0x1
   15e66: be e4        	sd	a5, 0x48(sp)
   15e68: 83 c9 07 00  	lbu	s3, 0x0(a5)
   15e6c: e3 8b e9 fe  	beq	s3, a4, 0x15e62 <_strtod_l+0x146>
   15e70: 15 9d        	subw	a0, a0, a3
   15e72: 05 25        	addiw	a0, a0, 0x1
   15e74: 9b 87 f9 fc  	addiw	a5, s3, -0x31
   15e78: 21 47        	li	a4, 0x8
   15e7a: 63 62 f7 58  	bltu	a4, a5, 0x163fe <_strtod_l+0x6e2>
   15e7e: a6 68        	ld	a7, 0x48(sp)
   15e80: 9b 87 09 fd  	addiw	a5, s3, -0x30
   15e84: 1b 08 15 00  	addiw	a6, a0, 0x1
   15e88: c6 8a        	mv	s5, a7
   15e8a: 05 49        	li	s2, 0x1
   15e8c: 01 46        	li	a2, 0x0
   15e8e: 1b 17 2b 00  	slliw	a4, s6, 0x2
   15e92: 3b 07 67 01  	addw	a4, a4, s6
   15e96: 1b 17 17 00  	slliw	a4, a4, 0x1
   15e9a: 3b 0b f7 00  	addw	s6, a4, a5
   15e9e: 01 45        	li	a0, 0x0
   15ea0: 81 bf        	j	0x15df0 <_strtod_l+0xd4>
   15ea2: 83 c7 1a 00  	lbu	a5, 0x1(s5)
   15ea6: 13 06 80 05  	li	a2, 0x58
   15eaa: 13 89 1a 00  	addi	s2, s5, 0x1
   15eae: 93 f7 f7 0d  	andi	a5, a5, 0xdf
   15eb2: e3 86 c7 04  	beq	a5, a2, 0x166fe <_strtod_l+0x9e2>
   15eb6: ca e4        	sd	s2, 0x48(sp)
   15eb8: 83 47 09 00  	lbu	a5, 0x0(s2)
   15ebc: ca 8a        	mv	s5, s2
   15ebe: 05 09        	addi	s2, s2, 0x1
   15ec0: e3 8b e7 fe  	beq	a5, a4, 0x15eb6 <_strtod_l+0x19a>
   15ec4: 63 86 07 7c  	beqz	a5, 0x16690 <_strtod_l+0x974>
   15ec8: ce ed        	sd	s3, 0xd8(sp)
   15eca: da e1        	sd	s6, 0xc0(sp)
   15ecc: 62 f9        	sd	s8, 0xb0(sp)
   15ece: 85 4c        	li	s9, 0x1
   15ed0: 79 bd        	j	0x15d6e <_strtod_l+0x52>
   15ed2: 4a 86        	mv	a2, s2
   15ed4: 01 45        	li	a0, 0x0
   15ed6: 01 48        	li	a6, 0x0
   15ed8: 01 43        	li	t1, 0x0
   15eda: 93 f7 f9 fd  	andi	a5, s3, -0x21
   15ede: 13 07 50 04  	li	a4, 0x45
   15ee2: 81 48        	li	a7, 0x0
   15ee4: 63 82 e7 08  	beq	a5, a4, 0x15f68 <_strtod_l+0x24c>
   15ee8: 63 17 09 14  	bnez	s2, 0x16036 <_strtod_l+0x31a>
   15eec: 33 e5 ac 00  	or	a0, s9, a0
   15ef0: 01 25        	sext.w	a0, a0
   15ef2: 63 19 05 78  	bnez	a0, 0x16684 <_strtod_l+0x968>
   15ef6: 63 18 03 12  	bnez	t1, 0x16026 <_strtod_l+0x30a>
   15efa: 93 07 90 06  	li	a5, 0x69
   15efe: 63 8f f9 60  	beq	s3, a5, 0x1651c <_strtod_l+0x800>
   15f02: 63 ce 37 11  	blt	a5, s3, 0x1601e <_strtod_l+0x302>
   15f06: 93 07 90 04  	li	a5, 0x49
   15f0a: 63 89 f9 60  	beq	s3, a5, 0x1651c <_strtod_l+0x800>
   15f0e: 93 07 e0 04  	li	a5, 0x4e
   15f12: 63 9a f9 10  	bne	s3, a5, 0x16026 <_strtod_l+0x30a>
   15f16: b7 15 02 00  	lui	a1, 0x21
   15f1a: 93 85 05 31  	addi	a1, a1, 0x310
   15f1e: a8 00        	addi	a0, sp, 0x48
   15f20: ef 30 40 4e  	jal	0x19404 <__match>
   15f24: 63 01 05 10  	beqz	a0, 0x16026 <_strtod_l+0x30a>
   15f28: 26 67        	ld	a4, 0x48(sp)
   15f2a: 93 07 80 02  	li	a5, 0x28
   15f2e: 03 47 07 00  	lbu	a4, 0x0(a4)
   15f32: e3 0a f7 2e  	beq	a4, a5, 0x16a26 <_strtod_l+0xd0a>
   15f36: 37 15 02 00  	lui	a0, 0x21
   15f3a: 13 05 85 45  	addi	a0, a0, 0x458
   15f3e: ef 20 50 1f  	jal	0x18932 <nan>
   15f42: d3 0d 05 e2  	fmv.x.d	s11, fa0
   15f46: ee 69        	ld	s3, 0xd8(sp)
   15f48: 0e 6b        	ld	s6, 0xc0(sp)
   15f4a: 4a 7c        	ld	s8, 0xb0(sp)
   15f4c: 99 c0        	beqz	s1, 0x15f52 <_strtod_l+0x236>
   15f4e: a6 67        	ld	a5, 0x48(sp)
   15f50: 9c e0        	sd	a5, 0x0(s1)
   15f52: e3 84 0b 0c  	beqz	s7, 0x1681a <_strtod_l+0xafe>
   15f56: d3 87 0d f2  	fmv.d.x	fa5, s11
   15f5a: 0e 79        	ld	s2, 0xe0(sp)
   15f5c: aa 7c        	ld	s9, 0xa8(sp)
   15f5e: d3 97 f7 22  	fneg.d	fa5, fa5
   15f62: d3 8d 07 e2  	fmv.x.d	s11, fa5
   15f66: 55 b5        	j	0x15e0a <_strtod_l+0xee>
   15f68: b3 67 a9 00  	or	a5, s2, a0
   15f6c: b3 e7 fc 00  	or	a5, s9, a5
   15f70: 81 27        	sext.w	a5, a5
   15f72: d5 cb        	beqz	a5, 0x16026 <_strtod_l+0x30a>
   15f74: 26 6a        	ld	s4, 0x48(sp)
   15f76: 93 07 b0 02  	li	a5, 0x2b
   15f7a: 13 07 1a 00  	addi	a4, s4, 0x1
   15f7e: ba e4        	sd	a4, 0x48(sp)
   15f80: 83 49 1a 00  	lbu	s3, 0x1(s4)
   15f84: 63 8b f9 76  	beq	s3, a5, 0x166fa <_strtod_l+0x9de>
   15f88: 93 07 d0 02  	li	a5, 0x2d
   15f8c: 63 9e f9 46  	bne	s3, a5, 0x16408 <_strtod_l+0x6ec>
   15f90: 05 4e        	li	t3, 0x1
   15f92: 93 07 2a 00  	addi	a5, s4, 0x2
   15f96: be e4        	sd	a5, 0x48(sp)
   15f98: 83 49 2a 00  	lbu	s3, 0x2(s4)
   15f9c: 1b 87 09 fd  	addiw	a4, s3, -0x30
   15fa0: a5 47        	li	a5, 0x9
   15fa2: ba 85        	mv	a1, a4
   15fa4: 63 ec e7 6a  	bltu	a5, a4, 0x1665c <_strtod_l+0x940>
   15fa8: 13 07 00 03  	li	a4, 0x30
   15fac: a6 67        	ld	a5, 0x48(sp)
   15fae: 63 97 e9 02  	bne	s3, a4, 0x15fdc <_strtod_l+0x2c0>
   15fb2: 93 86 17 00  	addi	a3, a5, 0x1
   15fb6: 93 05 00 03  	li	a1, 0x30
   15fba: b6 e4        	sd	a3, 0x48(sp)
   15fbc: 03 c7 06 00  	lbu	a4, 0x0(a3)
   15fc0: b6 87        	mv	a5, a3
   15fc2: 85 06        	addi	a3, a3, 0x1
   15fc4: 9b 09 07 00  	sext.w	s3, a4
   15fc8: e3 09 b7 fe  	beq	a4, a1, 0x15fba <_strtod_l+0x29e>
   15fcc: 1b 07 f7 fc  	addiw	a4, a4, -0x31
   15fd0: a1 46        	li	a3, 0x8
   15fd2: 81 48        	li	a7, 0x0
   15fd4: e3 ea e6 f0  	bltu	a3, a4, 0x15ee8 <_strtod_l+0x1cc>
   15fd8: 9b 85 09 fd  	addiw	a1, s3, -0x30
   15fdc: 93 86 17 00  	addi	a3, a5, 0x1
   15fe0: b6 e4        	sd	a3, 0x48(sp)
   15fe2: 83 c9 17 00  	lbu	s3, 0x1(a5)
   15fe6: 13 07 f0 02  	li	a4, 0x2f
   15fea: b6 88        	mv	a7, a3
   15fec: 93 0e 90 03  	li	t4, 0x39
   15ff0: 13 0f f0 02  	li	t5, 0x2f
   15ff4: 63 52 37 63  	bge	a4, s3, 0x16618 <_strtod_l+0x8fc>
   15ff8: 63 c9 3e 61  	blt	t4, s3, 0x1660a <_strtod_l+0x8ee>
   15ffc: 1b 97 25 00  	slliw	a4, a1, 0x2
   16000: 2d 9f        	addw	a4, a4, a1
   16002: 85 06        	addi	a3, a3, 0x1
   16004: 1b 17 17 00  	slliw	a4, a4, 0x1
   16008: b6 e4        	sd	a3, 0x48(sp)
   1600a: 3b 07 37 01  	addw	a4, a4, s3
   1600e: 83 c9 18 00  	lbu	s3, 0x1(a7)
   16012: 9b 05 07 fd  	addiw	a1, a4, -0x30
   16016: 63 5a 3f 5f  	bge	t5, s3, 0x1660a <_strtod_l+0x8ee>
   1601a: b6 88        	mv	a7, a3
   1601c: f1 bf        	j	0x15ff8 <_strtod_l+0x2dc>
   1601e: 93 07 e0 06  	li	a5, 0x6e
   16022: e3 8a f9 ee  	beq	s3, a5, 0x15f16 <_strtod_l+0x1fa>
   16026: 0e 79        	ld	s2, 0xe0(sp)
   16028: ee 69        	ld	s3, 0xd8(sp)
   1602a: 0e 6b        	ld	s6, 0xc0(sp)
   1602c: 4a 7c        	ld	s8, 0xb0(sp)
   1602e: aa 7c        	ld	s9, 0xa8(sp)
   16030: 93 0d 00 00  	li	s11, 0x0
   16034: c1 bb        	j	0x15e04 <_strtod_l+0xe8>
   16036: 6a f1        	sd	s10, 0xa0(sp)
   16038: bb 89 08 41  	subw	s3, a7, a6
   1603c: 1b 8d 09 00  	sext.w	s10, s3
   16040: 11 e2        	bnez	a2, 0x16044 <_strtod_l+0x328>
   16042: 4a 86        	mv	a2, s2
   16044: 41 47        	li	a4, 0x10
   16046: ca 87        	mv	a5, s2
   16048: 63 53 27 01  	bge	a4, s2, 0x1604e <_strtod_l+0x332>
   1604c: c1 47        	li	a5, 0x10
   1604e: d3 07 1b d2  	fcvt.d.wu	fa5, s6
   16052: a5 46        	li	a3, 0x9
   16054: 1b 87 07 00  	sext.w	a4, a5
   16058: d3 85 07 e2  	fmv.x.d	a1, fa5
   1605c: 2e 8a        	mv	s4, a1
   1605e: 63 d5 26 03  	bge	a3, s2, 0x16088 <_strtod_l+0x36c>
   16062: dd 37        	addiw	a5, a5, -0x9
   16064: b7 26 02 00  	lui	a3, 0x22
   16068: 8e 07        	slli	a5, a5, 0x3
   1606a: 93 86 86 85  	addi	a3, a3, -0x7a8
   1606e: b6 97        	add	a5, a5, a3
   16070: 98 23        	fld	fa4, 0x0(a5)
   16072: d3 07 1c d2  	fcvt.d.wu	fa5, s8
   16076: d3 86 05 f2  	fmv.d.x	fa3, a1
   1607a: bd 47        	li	a5, 0xf
   1607c: c3 f7 e6 7a  	fmadd.d	fa5, fa3, fa4, fa5
   16080: 53 8a 07 e2  	fmv.x.d	s4, fa5
   16084: 63 cd 27 05  	blt	a5, s2, 0x160de <_strtod_l+0x3c2>
   16088: d2 8d        	mv	s11, s4
   1608a: 63 05 0d 04  	beqz	s10, 0x160d4 <_strtod_l+0x3b8>
   1608e: 63 56 a0 45  	blez	s10, 0x164da <_strtod_l+0x7be>
   16092: d9 47        	li	a5, 0x16
   16094: 63 d7 a7 79  	bge	a5, s10, 0x16822 <_strtod_l+0xb06>
   16098: 93 07 50 02  	li	a5, 0x25
   1609c: bb 87 27 41  	subw	a5, a5, s2
   160a0: 63 cf a7 03  	blt	a5, s10, 0x160de <_strtod_l+0x3c2>
   160a4: bd 47        	li	a5, 0xf
   160a6: bb 86 27 41  	subw	a3, a5, s2
   160aa: 37 27 02 00  	lui	a4, 0x22
   160ae: b6 87        	mv	a5, a3
   160b0: 13 07 87 85  	addi	a4, a4, -0x7a8
   160b4: 8e 06        	slli	a3, a3, 0x3
   160b6: ba 96        	add	a3, a3, a4
   160b8: 53 07 0a f2  	fmv.d.x	fa4, s4
   160bc: 9c 22        	fld	fa5, 0x0(a3)
   160be: bb 87 f9 40  	subw	a5, s3, a5
   160c2: 8e 07        	slli	a5, a5, 0x3
   160c4: d3 f7 e7 12  	fmul.d	fa5, fa5, fa4
   160c8: 3e 97        	add	a4, a4, a5
   160ca: 18 23        	fld	fa4, 0x0(a4)
   160cc: d3 f7 e7 12  	fmul.d	fa5, fa5, fa4
   160d0: d3 8d 07 e2  	fmv.x.d	s11, fa5
   160d4: ee 69        	ld	s3, 0xd8(sp)
   160d6: 0e 6b        	ld	s6, 0xc0(sp)
   160d8: 4a 7c        	ld	s8, 0xb0(sp)
   160da: 0a 7d        	ld	s10, 0xa0(sp)
   160dc: 85 bd        	j	0x15f4c <_strtod_l+0x230>
   160de: 3b 07 e9 40  	subw	a4, s2, a4
   160e2: bb 07 37 01  	addw	a5, a4, s3
   160e6: 63 54 f0 32  	blez	a5, 0x1640e <_strtod_l+0x6f2>
   160ea: 13 f7 f7 00  	andi	a4, a5, 0xf
   160ee: 11 cf        	beqz	a4, 0x1610a <_strtod_l+0x3ee>
   160f0: b7 26 02 00  	lui	a3, 0x22
   160f4: 0e 07        	slli	a4, a4, 0x3
   160f6: 93 86 86 85  	addi	a3, a3, -0x7a8
   160fa: 36 97        	add	a4, a4, a3
   160fc: 53 07 0a f2  	fmv.d.x	fa4, s4
   16100: 1c 23        	fld	fa5, 0x0(a4)
   16102: d3 f7 e7 12  	fmul.d	fa5, fa5, fa4
   16106: 53 8a 07 e2  	fmv.x.d	s4, fa5
   1610a: c1 9b        	andi	a5, a5, -0x10
   1610c: c9 cf        	beqz	a5, 0x161a6 <_strtod_l+0x48a>
   1610e: 13 07 40 13  	li	a4, 0x134
   16112: 63 46 f7 74  	blt	a4, a5, 0x1685e <_strtod_l+0xb42>
   16116: 91 87        	srai	a5, a5, 0x4
   16118: 05 47        	li	a4, 0x1
   1611a: e3 57 f7 1a  	bge	a4, a5, 0x16ac8 <_strtod_l+0xdac>
   1611e: 37 27 02 00  	lui	a4, 0x22
   16122: 93 0e 07 83  	addi	t4, a4, -0x7d0
   16126: 52 85        	mv	a0, s4
   16128: 13 07 07 83  	addi	a4, a4, -0x7d0
   1612c: 01 4e        	li	t3, 0x0
   1612e: 81 46        	li	a3, 0x0
   16130: 05 43        	li	t1, 0x1
   16132: 93 f5 17 00  	andi	a1, a5, 0x1
   16136: 89 c9        	beqz	a1, 0x16148 <_strtod_l+0x42c>
   16138: 53 07 05 f2  	fmv.d.x	fa4, a0
   1613c: 1c 23        	fld	fa5, 0x0(a4)
   1613e: 05 4e        	li	t3, 0x1
   16140: d3 77 f7 12  	fmul.d	fa5, fa4, fa5
   16144: 53 85 07 e2  	fmv.x.d	a0, fa5
   16148: 85 87        	srai	a5, a5, 0x1
   1614a: 85 26        	addiw	a3, a3, 0x1
   1614c: 21 07        	addi	a4, a4, 0x8
   1614e: e3 92 67 fe  	bne	a5, t1, 0x16132 <_strtod_l+0x416>
   16152: 63 03 0e 00  	beqz	t3, 0x16158 <_strtod_l+0x43c>
   16156: 2a 8a        	mv	s4, a0
   16158: 13 57 0a 02  	srli	a4, s4, 0x20
   1615c: b7 07 b0 fc  	lui	a5, 0xfcb00
   16160: b9 9f        	addw	a5, a5, a4
   16162: 7d 57        	li	a4, -0x1
   16164: 01 93        	srli	a4, a4, 0x20
   16166: 8e 06        	slli	a3, a3, 0x3
   16168: 82 17        	slli	a5, a5, 0x20
   1616a: 33 7a ea 00  	and	s4, s4, a4
   1616e: b6 9e        	add	t4, t4, a3
   16170: 33 6a fa 00  	or	s4, s4, a5
   16174: 87 b7 0e 00  	fld	fa5, 0x0(t4)
   16178: 53 07 0a f2  	fmv.d.x	fa4, s4
   1617c: b7 06 f0 7f  	lui	a3, 0x7ff00
   16180: 37 05 a0 7c  	lui	a0, 0x7ca00
   16184: d3 f7 e7 12  	fmul.d	fa5, fa5, fa4
   16188: d3 87 07 e2  	fmv.x.d	a5, fa5
   1618c: 93 d5 07 42  	srai	a1, a5, 0x20
   16190: ed 8e        	and	a3, a3, a1
   16192: 63 66 d5 6c  	bltu	a0, a3, 0x1685e <_strtod_l+0xb42>
   16196: 37 05 90 7c  	lui	a0, 0x7c900
   1619a: e3 7c d5 06  	bgeu	a0, a3, 0x16a12 <_strtod_l+0xcf6>
   1619e: 13 0a f0 7f  	li	s4, 0x7ff
   161a2: 52 1a        	slli	s4, s4, 0x34
   161a4: 7d 1a        	addi	s4, s4, -0x1
   161a6: 81 4c        	li	s9, 0x0
   161a8: 5a 87        	mv	a4, s6
   161aa: ca 86        	mv	a3, s2
   161ac: d6 85        	mv	a1, s5
   161ae: 22 85        	mv	a0, s0
   161b0: 42 e8        	sd	a6, 0x10(sp)
   161b2: 46 e4        	sd	a7, 0x8(sp)
   161b4: ef 30 20 5f  	jal	0x197a6 <__s2b>
   161b8: 2a 8c        	mv	s8, a0
   161ba: 63 02 05 6a  	beqz	a0, 0x1685e <_strtod_l+0xb42>
   161be: 42 68        	ld	a6, 0x10(sp)
   161c0: 13 47 fd ff  	not	a4, s10
   161c4: a2 68        	ld	a7, 0x8(sp)
   161c6: 9b 57 f7 01  	srliw	a5, a4, 0x1f
   161ca: 93 b7 17 00  	seqz	a5, a5
   161ce: bb 07 f0 40  	negw	a5, a5
   161d2: bb 08 18 41  	subw	a7, a6, a7
   161d6: b3 f8 f8 00  	and	a7, a7, a5
   161da: 26 a1        	fsd	fs1, 0x80(sp)
   161dc: 87 b4 81 0e  	fld	fs1, 0xe8(gp)
   161e0: ca bc        	fsd	fs2, 0x78(sp)
   161e2: 07 b9 81 12  	fld	fs2, 0x128(gp)
   161e6: ce b8        	fsd	fs3, 0x70(sp)
   161e8: 7d 97        	srai	a4, a4, 0x3f
   161ea: 87 b9 01 0e  	fld	fs3, 0xe0(gp)
   161ee: d2 b4        	fsd	fs4, 0x68(sp)
   161f0: b3 f9 e9 00  	and	s3, s3, a4
   161f4: 07 ba 01 13  	fld	fs4, 0x130(gp)
   161f8: 9b 87 08 00  	sext.w	a5, a7
   161fc: 3e e8        	sd	a5, 0x10(sp)
   161fe: 9b 87 09 00  	sext.w	a5, s3
   16202: 22 a5        	fsd	fs0, 0x88(sp)
   16204: 3e ec        	sd	a5, 0x18(sp)
   16206: 81 4a        	li	s5, 0x0
   16208: 01 49        	li	s2, 0x0
   1620a: 83 25 8c 00  	lw	a1, 0x8(s8)
   1620e: 22 85        	mv	a0, s0
   16210: ef 30 60 43  	jal	0x19646 <_Balloc>
   16214: aa 89        	mv	s3, a0
   16216: 63 0e 05 3c  	beqz	a0, 0x165f2 <_strtod_l+0x8d6>
   1621a: 03 26 4c 01  	lw	a2, 0x14(s8)
   1621e: 93 05 0c 01  	addi	a1, s8, 0x10
   16222: 41 05        	addi	a0, a0, 0x10
   16224: 09 06        	addi	a2, a2, 0x2
   16226: 0a 06        	slli	a2, a2, 0x2
   16228: ef 20 80 43  	jal	0x18660 <memcpy>
   1622c: 53 05 0a f2  	fmv.d.x	fa0, s4
   16230: b0 08        	addi	a2, sp, 0x58
   16232: cc 00        	addi	a1, sp, 0x44
   16234: 22 85        	mv	a0, s0
   16236: 52 e4        	sd	s4, 0x8(sp)
   16238: ef 30 30 6c  	jal	0x1a0fa <__d2b>
   1623c: aa e8        	sd	a0, 0x50(sp)
   1623e: 63 0f 05 34  	beqz	a0, 0x1659c <_strtod_l+0x880>
   16242: 85 45        	li	a1, 0x1
   16244: 22 85        	mv	a0, s0
   16246: ef 30 00 74  	jal	0x19986 <__i2b>
   1624a: 2a 89        	mv	s2, a0
   1624c: 63 03 05 3a  	beqz	a0, 0x165f2 <_strtod_l+0x8d6>
   16250: 96 47        	lw	a5, 0x44(sp)
   16252: 63 c0 07 40  	bltz	a5, 0x16652 <_strtod_l+0x936>
   16256: 42 67        	ld	a4, 0x10(sp)
   16258: 62 66        	ld	a2, 0x18(sp)
   1625a: 3b 8b e7 00  	addw	s6, a5, a4
   1625e: 66 47        	lw	a4, 0x58(sp)
   16260: bb 87 97 41  	subw	a5, a5, s9
   16264: 93 05 60 03  	li	a1, 0x36
   16268: b9 9f        	addw	a5, a5, a4
   1626a: 1b 88 f7 ff  	addiw	a6, a5, -0x1
   1626e: 3b 87 e5 40  	subw	a4, a1, a4
   16272: 13 05 20 c0  	li	a0, -0x3fe
   16276: c2 87        	mv	a5, a6
   16278: ba 85        	mv	a1, a4
   1627a: 63 5d a8 3a  	bge	a6, a0, 0x16634 <_strtod_l+0x918>
   1627e: 13 07 20 c0  	li	a4, -0x3fe
   16282: 3b 05 07 41  	subw	a0, a4, a6
   16286: 7d 48        	li	a6, 0x1f
   16288: 3b 87 a5 40  	subw	a4, a1, a0
   1628c: 63 4c a8 3c  	blt	a6, a0, 0x16664 <_strtod_l+0x948>
   16290: 85 47        	li	a5, 0x1
   16292: bb 97 a7 00  	sllw	a5, a5, a0
   16296: 3e f0        	sd	a5, 0x20(sp)
   16298: 02 f4        	sd	zero, 0x28(sp)
   1629a: 39 9e        	addw	a2, a2, a4
   1629c: bb 85 cc 00  	addw	a1, s9, a2
   162a0: 3b 08 eb 00  	addw	a6, s6, a4
   162a4: 42 87        	mv	a4, a6
   162a6: 2e 86        	mv	a2, a1
   162a8: ae 8d        	mv	s11, a1
   162aa: da 87        	mv	a5, s6
   162ac: 63 53 68 01  	bge	a6, s6, 0x162b2 <_strtod_l+0x596>
   162b0: c2 87        	mv	a5, a6
   162b2: 1b 85 07 00  	sext.w	a0, a5
   162b6: 63 d3 a5 00  	bge	a1, a0, 0x162bc <_strtod_l+0x5a0>
   162ba: b2 87        	mv	a5, a2
   162bc: 9b 85 07 00  	sext.w	a1, a5
   162c0: 63 58 b0 00  	blez	a1, 0x162d0 <_strtod_l+0x5b4>
   162c4: 3b 08 f7 40  	subw	a6, a4, a5
   162c8: bb 0d f6 40  	subw	s11, a2, a5
   162cc: 3b 0b fb 40  	subw	s6, s6, a5
   162d0: 42 66        	ld	a2, 0x10(sp)
   162d2: 63 42 c0 28  	bgtz	a2, 0x16556 <_strtod_l+0x83a>
   162d6: 63 4b 00 2b  	bgtz	a6, 0x1658c <_strtod_l+0x870>
   162da: 63 4e a0 31  	bgtz	s10, 0x165f6 <_strtod_l+0x8da>
   162de: 63 42 b0 31  	bgtz	s11, 0x165e2 <_strtod_l+0x8c6>
   162e2: 63 5a 60 01  	blez	s6, 0x162f6 <_strtod_l+0x5da>
   162e6: ca 85        	mv	a1, s2
   162e8: 5a 86        	mv	a2, s6
   162ea: 22 85        	mv	a0, s0
   162ec: ef 30 d0 18  	jal	0x19c78 <__lshift>
   162f0: 2a 89        	mv	s2, a0
   162f2: 63 00 05 30  	beqz	a0, 0x165f2 <_strtod_l+0x8d6>
   162f6: c6 65        	ld	a1, 0x50(sp)
   162f8: 4e 86        	mv	a2, s3
   162fa: 22 85        	mv	a0, s0
   162fc: ef 30 d0 2d  	jal	0x19dd8 <__mdiff>
   16300: aa 8a        	mv	s5, a0
   16302: 63 08 05 2e  	beqz	a0, 0x165f2 <_strtod_l+0x8d6>
   16306: 83 2d 05 01  	lw	s11, 0x10(a0)
   1630a: ca 85        	mv	a1, s2
   1630c: 23 28 05 00  	sw	zero, 0x10(a0)
   16310: ef 30 10 29  	jal	0x19da0 <__mcmp>
   16314: 63 4c 05 68  	bltz	a0, 0x169ac <_strtod_l+0xc90>
   16318: 63 07 05 62  	beqz	a0, 0x16946 <_strtod_l+0xc2a>
   1631c: ca 85        	mv	a1, s2
   1631e: 56 85        	mv	a0, s5
   16320: ef 30 50 6c  	jal	0x1a1e4 <__ratio>
   16324: d3 07 95 a2  	fle.d	a5, fa0, fs1
   16328: 63 8a 07 30  	beqz	a5, 0x1663c <_strtod_l+0x920>
   1632c: 63 97 0d 34  	bnez	s11, 0x1667a <_strtod_l+0x95e>
   16330: 22 67        	ld	a4, 0x8(sp)
   16332: fd 57        	li	a5, -0x1
   16334: b1 83        	srli	a5, a5, 0xc
   16336: f9 8f        	and	a5, a5, a4
   16338: 63 83 07 42  	beqz	a5, 0x1675e <_strtod_l+0xa42>
   1633c: 85 47        	li	a5, 0x1
   1633e: 63 02 f7 74  	beq	a4, a5, 0x16a82 <_strtod_l+0xd66>
   16342: 03 b6 01 11  	ld	a2, 0x110(gp)
   16346: 07 b4 01 0e  	fld	fs0, 0xe0(gp)
   1634a: 93 55 0a 42  	srai	a1, s4, 0x20
   1634e: b7 06 f0 7f  	lui	a3, 0x7ff00
   16352: 33 f7 d5 00  	and	a4, a1, a3
   16356: 01 27        	sext.w	a4, a4
   16358: 37 05 e0 7f  	lui	a0, 0x7fe00
   1635c: b2 87        	mv	a5, a2
   1635e: 63 0c a7 32  	beq	a4, a0, 0x16696 <_strtod_l+0x97a>
   16362: 63 83 0c 04  	beqz	s9, 0x163a8 <_strtod_l+0x68c>
   16366: b7 06 a0 06  	lui	a3, 0x6a00
   1636a: 63 ef e6 02  	bltu	a3, a4, 0x163a8 <_strtod_l+0x68c>
   1636e: d3 06 44 a3  	fle.d	a3, fs0, fs4
   16372: 8d c2        	beqz	a3, 0x16394 <_strtod_l+0x678>
   16374: d3 17 14 c2  	fcvt.wu.d	a5, fs0, rtz
   16378: 9b 86 07 00  	sext.w	a3, a5
   1637c: 91 e2        	bnez	a3, 0x16380 <_strtod_l+0x664>
   1637e: 85 47        	li	a5, 0x1
   16380: 53 84 17 d2  	fcvt.d.wu	fs0, a5
   16384: d3 07 04 e2  	fmv.x.d	a5, fs0
   16388: 63 96 0d 00  	bnez	s11, 0x16394 <_strtod_l+0x678>
   1638c: d3 17 84 22  	fneg.d	fa5, fs0
   16390: d3 87 07 e2  	fmv.x.d	a5, fa5
   16394: 13 d6 07 02  	srli	a2, a5, 0x20
   16398: b7 06 b0 06  	lui	a3, 0x6b00
   1639c: b1 9e        	addw	a3, a3, a2
   1639e: 99 9e        	subw	a3, a3, a4
   163a0: 82 17        	slli	a5, a5, 0x20
   163a2: 82 16        	slli	a3, a3, 0x20
   163a4: 81 93        	srli	a5, a5, 0x20
   163a6: d5 8f        	or	a5, a5, a3
   163a8: 22 6a        	ld	s4, 0x8(sp)
   163aa: 3e f4        	sd	a5, 0x28(sp)
   163ac: 3a f0        	sd	a4, 0x20(sp)
   163ae: 53 05 0a f2  	fmv.d.x	fa0, s4
   163b2: ef 30 d0 3e  	jal	0x19f9e <__ulp>
   163b6: a2 77        	ld	a5, 0x28(sp)
   163b8: 53 07 0a f2  	fmv.d.x	fa4, s4
   163bc: 02 77        	ld	a4, 0x20(sp)
   163be: d3 87 07 f2  	fmv.d.x	fa5, a5
   163c2: c3 77 f5 72  	fmadd.d	fa5, fa0, fa5, fa4
   163c6: d3 87 07 e2  	fmv.x.d	a5, fa5
   163ca: 3e 8a        	mv	s4, a5
   163cc: 81 97        	srai	a5, a5, 0x20
   163ce: 63 97 0c 00  	bnez	s9, 0x163dc <_strtod_l+0x6c0>
   163d2: b7 06 f0 7f  	lui	a3, 0x7ff00
   163d6: f5 8f        	and	a5, a5, a3
   163d8: 63 0f f7 34  	beq	a4, a5, 0x16736 <_strtod_l+0xa1a>
   163dc: c6 65        	ld	a1, 0x50(sp)
   163de: 22 85        	mv	a0, s0
   163e0: ef 30 a0 2c  	jal	0x196aa <_Bfree>
   163e4: ce 85        	mv	a1, s3
   163e6: 22 85        	mv	a0, s0
   163e8: ef 30 20 2c  	jal	0x196aa <_Bfree>
   163ec: ca 85        	mv	a1, s2
   163ee: 22 85        	mv	a0, s0
   163f0: ef 30 a0 2b  	jal	0x196aa <_Bfree>
   163f4: d6 85        	mv	a1, s5
   163f6: 22 85        	mv	a0, s0
   163f8: ef 30 20 2b  	jal	0x196aa <_Bfree>
   163fc: 39 b5        	j	0x1620a <_strtod_l+0x4ee>
   163fe: 01 46        	li	a2, 0x0
   16400: 01 48        	li	a6, 0x0
   16402: 01 49        	li	s2, 0x0
   16404: 05 43        	li	t1, 0x1
   16406: d1 bc        	j	0x15eda <_strtod_l+0x1be>
   16408: 81 29        	sext.w	s3, s3
   1640a: 01 4e        	li	t3, 0x0
   1640c: 41 be        	j	0x15f9c <_strtod_l+0x280>
   1640e: e3 8c 07 d8  	beqz	a5, 0x161a6 <_strtod_l+0x48a>
   16412: bb 07 f0 40  	negw	a5, a5
   16416: 13 f7 f7 00  	andi	a4, a5, 0xf
   1641a: 11 cf        	beqz	a4, 0x16436 <_strtod_l+0x71a>
   1641c: b7 26 02 00  	lui	a3, 0x22
   16420: 0e 07        	slli	a4, a4, 0x3
   16422: 93 86 86 85  	addi	a3, a3, -0x7a8
   16426: 36 97        	add	a4, a4, a3
   16428: 53 07 0a f2  	fmv.d.x	fa4, s4
   1642c: 1c 23        	fld	fa5, 0x0(a4)
   1642e: d3 77 f7 1a  	fdiv.d	fa5, fa4, fa5
   16432: 53 8a 07 e2  	fmv.x.d	s4, fa5
   16436: 9b d7 47 40  	sraiw	a5, a5, 0x4
   1643a: e3 86 07 d6  	beqz	a5, 0x161a6 <_strtod_l+0x48a>
   1643e: 7d 47        	li	a4, 0x1f
   16440: 63 43 f7 08  	blt	a4, a5, 0x164c6 <_strtod_l+0x7aa>
   16444: 93 fc 07 01  	andi	s9, a5, 0x10
   16448: 63 84 0c 00  	beqz	s9, 0x16450 <_strtod_l+0x734>
   1644c: 93 0c a0 06  	li	s9, 0x6a
   16450: 37 17 02 00  	lui	a4, 0x21
   16454: d2 85        	mv	a1, s4
   16456: 13 07 87 5c  	addi	a4, a4, 0x5c8
   1645a: 01 45        	li	a0, 0x0
   1645c: 93 f6 17 00  	andi	a3, a5, 0x1
   16460: 89 ca        	beqz	a3, 0x16472 <_strtod_l+0x756>
   16462: 53 87 05 f2  	fmv.d.x	fa4, a1
   16466: 1c 23        	fld	fa5, 0x0(a4)
   16468: 05 45        	li	a0, 0x1
   1646a: d3 77 f7 12  	fmul.d	fa5, fa4, fa5
   1646e: d3 85 07 e2  	fmv.x.d	a1, fa5
   16472: 85 87        	srai	a5, a5, 0x1
   16474: 21 07        	addi	a4, a4, 0x8
   16476: fd f3        	bnez	a5, 0x1645c <_strtod_l+0x740>
   16478: 11 c1        	beqz	a0, 0x1647c <_strtod_l+0x760>
   1647a: 2e 8a        	mv	s4, a1
   1647c: 63 8d 0c 02  	beqz	s9, 0x164b6 <_strtod_l+0x79a>
   16480: 93 56 4a 03  	srli	a3, s4, 0x34
   16484: 93 f6 f6 7f  	andi	a3, a3, 0x7ff
   16488: 13 07 b0 06  	li	a4, 0x6b
   1648c: 15 9f        	subw	a4, a4, a3
   1648e: 93 57 0a 42  	srai	a5, s4, 0x20
   16492: 63 50 e0 02  	blez	a4, 0x164b2 <_strtod_l+0x796>
   16496: fd 45        	li	a1, 0x1f
   16498: 63 df e5 62  	bge	a1, a4, 0x16ad6 <_strtod_l+0xdba>
   1649c: fd 55        	li	a1, -0x1
   1649e: 82 15        	slli	a1, a1, 0x20
   164a0: 13 05 40 03  	li	a0, 0x34
   164a4: 33 7a ba 00  	and	s4, s4, a1
   164a8: 63 51 e5 6c  	bge	a0, a4, 0x16b6a <_strtod_l+0xe4e>
   164ac: 13 0a 70 03  	li	s4, 0x37
   164b0: 52 1a        	slli	s4, s4, 0x34
   164b2: 93 0c a0 06  	li	s9, 0x6a
   164b6: d3 07 00 f2  	fmv.d.x	fa5, zero
   164ba: 53 07 0a f2  	fmv.d.x	fa4, s4
   164be: d3 27 f7 a2  	feq.d	a5, fa4, fa5
   164c2: e3 83 07 ce  	beqz	a5, 0x161a8 <_strtod_l+0x48c>
   164c6: 93 0d 00 00  	li	s11, 0x0
   164ca: 93 07 20 02  	li	a5, 0x22
   164ce: ee 69        	ld	s3, 0xd8(sp)
   164d0: 0e 6b        	ld	s6, 0xc0(sp)
   164d2: 4a 7c        	ld	s8, 0xb0(sp)
   164d4: 0a 7d        	ld	s10, 0xa0(sp)
   164d6: 1c c0        	sw	a5, 0x0(s0)
   164d8: 95 bc        	j	0x15f4c <_strtod_l+0x230>
   164da: a9 57        	li	a5, -0x16
   164dc: e3 41 fd c0  	blt	s10, a5, 0x160de <_strtod_l+0x3c2>
   164e0: 3b 07 18 41  	subw	a4, a6, a7
   164e4: b7 27 02 00  	lui	a5, 0x22
   164e8: 0e 07        	slli	a4, a4, 0x3
   164ea: 93 87 87 85  	addi	a5, a5, -0x7a8
   164ee: ba 97        	add	a5, a5, a4
   164f0: 9c 23        	fld	fa5, 0x0(a5)
   164f2: 53 07 0a f2  	fmv.d.x	fa4, s4
   164f6: d3 77 f7 1a  	fdiv.d	fa5, fa4, fa5
   164fa: d3 8d 07 e2  	fmv.x.d	s11, fa5
   164fe: d9 be        	j	0x160d4 <_strtod_l+0x3b8>
   16500: 81 4b        	li	s7, 0x0
   16502: 93 0a 17 00  	addi	s5, a4, 0x1
   16506: d6 e4        	sd	s5, 0x48(sp)
   16508: 83 47 17 00  	lbu	a5, 0x1(a4)
   1650c: e3 8a 07 8e  	beqz	a5, 0x15e00 <_strtod_l+0xe4>
   16510: ca f1        	sd	s2, 0xe0(sp)
   16512: 66 f5        	sd	s9, 0xa8(sp)
   16514: 6f f0 bf 84  	j	0x15d5e <_strtod_l+0x42>
   16518: 85 4b        	li	s7, 0x1
   1651a: e5 b7        	j	0x16502 <_strtod_l+0x7e6>
   1651c: b7 15 02 00  	lui	a1, 0x21
   16520: 93 85 05 30  	addi	a1, a1, 0x300
   16524: a8 00        	addi	a0, sp, 0x48
   16526: ef 20 f0 6d  	jal	0x19404 <__match>
   1652a: e3 0e 05 ae  	beqz	a0, 0x16026 <_strtod_l+0x30a>
   1652e: a6 67        	ld	a5, 0x48(sp)
   16530: b7 15 02 00  	lui	a1, 0x21
   16534: 93 85 85 30  	addi	a1, a1, 0x308
   16538: fd 17        	addi	a5, a5, -0x1
   1653a: a8 00        	addi	a0, sp, 0x48
   1653c: be e4        	sd	a5, 0x48(sp)
   1653e: ef 20 70 6c  	jal	0x19404 <__match>
   16542: 01 e5        	bnez	a0, 0x1654a <_strtod_l+0x82e>
   16544: a6 67        	ld	a5, 0x48(sp)
   16546: 85 07        	addi	a5, a5, 0x1
   16548: be e4        	sd	a5, 0x48(sp)
   1654a: 83 bd 01 08  	ld	s11, 0x80(gp)
   1654e: ee 69        	ld	s3, 0xd8(sp)
   16550: 0e 6b        	ld	s6, 0xc0(sp)
   16552: 4a 7c        	ld	s8, 0xb0(sp)
   16554: e5 ba        	j	0x15f4c <_strtod_l+0x230>
   16556: ca 85        	mv	a1, s2
   16558: 22 85        	mv	a0, s0
   1655a: 42 f8        	sd	a6, 0x30(sp)
   1655c: ef 30 20 64  	jal	0x19b9e <__pow5mult>
   16560: 42 78        	ld	a6, 0x30(sp)
   16562: 2a 89        	mv	s2, a0
   16564: 59 c5        	beqz	a0, 0x165f2 <_strtod_l+0x8d6>
   16566: 46 66        	ld	a2, 0x50(sp)
   16568: aa 85        	mv	a1, a0
   1656a: 22 85        	mv	a0, s0
   1656c: 42 f8        	sd	a6, 0x30(sp)
   1656e: ef 30 40 48  	jal	0x199f2 <__multiply>
   16572: 42 78        	ld	a6, 0x30(sp)
   16574: 3d cd        	beqz	a0, 0x165f2 <_strtod_l+0x8d6>
   16576: c6 65        	ld	a1, 0x50(sp)
   16578: 2a fc        	sd	a0, 0x38(sp)
   1657a: 22 85        	mv	a0, s0
   1657c: 42 f8        	sd	a6, 0x30(sp)
   1657e: ef 30 c0 12  	jal	0x196aa <_Bfree>
   16582: e2 77        	ld	a5, 0x38(sp)
   16584: 42 78        	ld	a6, 0x30(sp)
   16586: be e8        	sd	a5, 0x50(sp)
   16588: e3 59 00 d5  	blez	a6, 0x162da <_strtod_l+0x5be>
   1658c: c6 65        	ld	a1, 0x50(sp)
   1658e: 42 86        	mv	a2, a6
   16590: 22 85        	mv	a0, s0
   16592: ef 30 60 6e  	jal	0x19c78 <__lshift>
   16596: aa e8        	sd	a0, 0x50(sp)
   16598: e3 11 05 d4  	bnez	a0, 0x162da <_strtod_l+0x5be>
   1659c: 83 bd 01 08  	ld	s11, 0x80(gp)
   165a0: 93 07 20 02  	li	a5, 0x22
   165a4: 1c c0        	sw	a5, 0x0(s0)
   165a6: aa 85        	mv	a1, a0
   165a8: 22 85        	mv	a0, s0
   165aa: ef 30 00 10  	jal	0x196aa <_Bfree>
   165ae: ce 85        	mv	a1, s3
   165b0: 22 85        	mv	a0, s0
   165b2: ef 30 80 0f  	jal	0x196aa <_Bfree>
   165b6: ca 85        	mv	a1, s2
   165b8: 22 85        	mv	a0, s0
   165ba: ef 30 00 0f  	jal	0x196aa <_Bfree>
   165be: e2 85        	mv	a1, s8
   165c0: 22 85        	mv	a0, s0
   165c2: ef 30 80 0e  	jal	0x196aa <_Bfree>
   165c6: d6 85        	mv	a1, s5
   165c8: 22 85        	mv	a0, s0
   165ca: ef 30 00 0e  	jal	0x196aa <_Bfree>
   165ce: ee 69        	ld	s3, 0xd8(sp)
   165d0: 0e 6b        	ld	s6, 0xc0(sp)
   165d2: 4a 7c        	ld	s8, 0xb0(sp)
   165d4: 0a 7d        	ld	s10, 0xa0(sp)
   165d6: 2a 24        	fld	fs0, 0x88(sp)
   165d8: 8a 24        	fld	fs1, 0x80(sp)
   165da: 66 39        	fld	fs2, 0x78(sp)
   165dc: c6 39        	fld	fs3, 0x70(sp)
   165de: 26 3a        	fld	fs4, 0x68(sp)
   165e0: b5 b2        	j	0x15f4c <_strtod_l+0x230>
   165e2: ce 85        	mv	a1, s3
   165e4: 6e 86        	mv	a2, s11
   165e6: 22 85        	mv	a0, s0
   165e8: ef 30 00 69  	jal	0x19c78 <__lshift>
   165ec: aa 89        	mv	s3, a0
   165ee: e3 1a 05 ce  	bnez	a0, 0x162e2 <_strtod_l+0x5c6>
   165f2: 46 65        	ld	a0, 0x50(sp)
   165f4: 65 b7        	j	0x1659c <_strtod_l+0x880>
   165f6: 62 66        	ld	a2, 0x18(sp)
   165f8: ce 85        	mv	a1, s3
   165fa: 22 85        	mv	a0, s0
   165fc: ef 30 20 5a  	jal	0x19b9e <__pow5mult>
   16600: aa 89        	mv	s3, a0
   16602: 65 d9        	beqz	a0, 0x165f2 <_strtod_l+0x8d6>
   16604: e3 5f b0 cd  	blez	s11, 0x162e2 <_strtod_l+0x5c6>
   16608: e9 bf        	j	0x165e2 <_strtod_l+0x8c6>
   1660a: 9d 8e        	sub	a3, a3, a5
   1660c: 95 68        	lui	a7, 0x5
   1660e: a1 47        	li	a5, 0x8
   16610: 93 88 f8 e1  	addi	a7, a7, -0x1e1
   16614: 63 cb d7 00  	blt	a5, a3, 0x1662a <_strtod_l+0x90e>
   16618: 95 67        	lui	a5, 0x5
   1661a: 93 87 f7 e1  	addi	a5, a5, -0x1e1
   1661e: 9b 88 05 00  	sext.w	a7, a1
   16622: 63 d4 b7 00  	bge	a5, a1, 0x1662a <_strtod_l+0x90e>
   16626: 9b 88 07 00  	sext.w	a7, a5
   1662a: e3 0f 0e 8a  	beqz	t3, 0x15ee8 <_strtod_l+0x1cc>
   1662e: bb 08 10 41  	negw	a7, a7
   16632: 5d b8        	j	0x15ee8 <_strtod_l+0x1cc>
   16634: 85 47        	li	a5, 0x1
   16636: 02 f4        	sd	zero, 0x28(sp)
   16638: 3e f0        	sd	a5, 0x20(sp)
   1663a: 85 b1        	j	0x1629a <_strtod_l+0x57e>
   1663c: 53 74 25 13  	fmul.d	fs0, fa0, fs2
   16640: 53 06 04 e2  	fmv.x.d	a2, fs0
   16644: e3 93 0d d0  	bnez	s11, 0x1634a <_strtod_l+0x62e>
   16648: d3 17 84 22  	fneg.d	fa5, fs0
   1664c: 53 86 07 e2  	fmv.x.d	a2, fa5
   16650: ed b9        	j	0x1634a <_strtod_l+0x62e>
   16652: 62 67        	ld	a4, 0x18(sp)
   16654: 42 6b        	ld	s6, 0x10(sp)
   16656: 3b 06 f7 40  	subw	a2, a4, a5
   1665a: 11 b1        	j	0x1625e <_strtod_l+0x542>
   1665c: d2 e4        	sd	s4, 0x48(sp)
   1665e: 81 48        	li	a7, 0x0
   16660: 6f f0 9f 88  	j	0x15ee8 <_strtod_l+0x1cc>
   16664: 93 05 20 be  	li	a1, -0x41e
   16668: bb 87 f5 40  	subw	a5, a1, a5
   1666c: 85 45        	li	a1, 0x1
   1666e: bb 97 f5 00  	sllw	a5, a1, a5
   16672: 3e f4        	sd	a5, 0x28(sp)
   16674: 85 47        	li	a5, 0x1
   16676: 3e f0        	sd	a5, 0x20(sp)
   16678: 0d b1        	j	0x1629a <_strtod_l+0x57e>
   1667a: 53 86 09 e2  	fmv.x.d	a2, fs3
   1667e: 53 84 39 23  	fmv.d	fs0, fs3
   16682: e1 b1        	j	0x1634a <_strtod_l+0x62e>
   16684: ee 69        	ld	s3, 0xd8(sp)
   16686: 0e 6b        	ld	s6, 0xc0(sp)
   16688: 4a 7c        	ld	s8, 0xb0(sp)
   1668a: 93 0d 00 00  	li	s11, 0x0
   1668e: 7d b8        	j	0x15f4c <_strtod_l+0x230>
   16690: 93 0d 00 00  	li	s11, 0x0
   16694: 65 b8        	j	0x15f4c <_strtod_l+0x230>
   16696: 3a f4        	sd	a4, 0x28(sp)
   16698: b7 07 b0 fc  	lui	a5, 0xfcb00
   1669c: 7d 57        	li	a4, -0x1
   1669e: ad 9f        	addw	a5, a5, a1
   166a0: 93 55 07 02  	srli	a1, a4, 0x20
   166a4: 82 17        	slli	a5, a5, 0x20
   166a6: 33 7a ba 00  	and	s4, s4, a1
   166aa: 33 6a fa 00  	or	s4, s4, a5
   166ae: 53 05 0a f2  	fmv.d.x	fa0, s4
   166b2: 3a 8b        	mv	s6, a4
   166b4: 32 f0        	sd	a2, 0x20(sp)
   166b6: ef 30 90 0e  	jal	0x19f9e <__ulp>
   166ba: 02 76        	ld	a2, 0x20(sp)
   166bc: 53 07 0a f2  	fmv.d.x	fa4, s4
   166c0: b7 06 f0 7f  	lui	a3, 0x7ff00
   166c4: d3 07 06 f2  	fmv.d.x	fa5, a2
   166c8: 37 08 a0 7c  	lui	a6, 0x7ca00
   166cc: 22 77        	ld	a4, 0x28(sp)
   166ce: c3 77 f5 72  	fmadd.d	fa5, fa0, fa5, fa4
   166d2: 93 55 0b 02  	srli	a1, s6, 0x20
   166d6: 53 86 07 e2  	fmv.x.d	a2, fa5
   166da: 13 55 06 42  	srai	a0, a2, 0x20
   166de: b3 77 d5 00  	and	a5, a0, a3
   166e2: 81 27        	sext.w	a5, a5
   166e4: 63 ef 07 11  	bltu	a5, a6, 0x16802 <_strtod_l+0xae6>
   166e8: 13 0a f0 7f  	li	s4, 0x7ff
   166ec: a2 67        	ld	a5, 0x8(sp)
   166ee: 52 1a        	slli	s4, s4, 0x34
   166f0: 7d 1a        	addi	s4, s4, -0x1
   166f2: e3 15 fa ce  	bne	s4, a5, 0x163dc <_strtod_l+0x6c0>
   166f6: 46 65        	ld	a0, 0x50(sp)
   166f8: 55 b5        	j	0x1659c <_strtod_l+0x880>
   166fa: 01 4e        	li	t3, 0x0
   166fc: 59 b8        	j	0x15f92 <_strtod_l+0x276>
   166fe: 37 16 02 00  	lui	a2, 0x21
   16702: 36 88        	mv	a6, a3
   16704: de 87        	mv	a5, s7
   16706: 98 08        	addi	a4, sp, 0x50
   16708: d4 00        	addi	a3, sp, 0x44
   1670a: 13 06 06 5b  	addi	a2, a2, 0x5b0
   1670e: ac 00        	addi	a1, sp, 0x48
   16710: 22 85        	mv	a0, s0
   16712: ce ed        	sd	s3, 0xd8(sp)
   16714: ef 20 60 6c  	jal	0x18dda <__gethex>
   16718: 13 7a f5 00  	andi	s4, a0, 0xf
   1671c: aa 89        	mv	s3, a0
   1671e: 93 0d 00 00  	li	s11, 0x0
   16722: 63 09 0a 0e  	beqz	s4, 0x16814 <_strtod_l+0xaf8>
   16726: 99 47        	li	a5, 0x6
   16728: 63 1e fa 12  	bne	s4, a5, 0x16864 <_strtod_l+0xb48>
   1672c: ee 69        	ld	s3, 0xd8(sp)
   1672e: ca e4        	sd	s2, 0x48(sp)
   16730: 81 4b        	li	s7, 0x0
   16732: 6f f0 bf 81  	j	0x15f4c <_strtod_l+0x230>
   16736: d3 17 24 c2  	fcvt.l.d	a5, fs0, rtz
   1673a: d3 f7 27 d2  	fcvt.d.l	fa5, a5
   1673e: 53 75 f4 0a  	fsub.d	fa0, fs0, fa5
   16742: 63 9d 0d 02  	bnez	s11, 0x1677c <_strtod_l+0xa60>
   16746: 93 17 ca 00  	slli	a5, s4, 0xc
   1674a: 8d eb        	bnez	a5, 0x1677c <_strtod_l+0xa60>
   1674c: 87 b7 81 14  	fld	fa5, 0x148(gp)
   16750: d3 17 f5 a2  	flt.d	a5, fa0, fa5
   16754: e3 84 07 c8  	beqz	a5, 0x163dc <_strtod_l+0x6c0>
   16758: d2 8d        	mv	s11, s4
   1675a: 46 65        	ld	a0, 0x50(sp)
   1675c: a9 b5        	j	0x165a6 <_strtod_l+0x88a>
   1675e: 87 b7 01 0e  	fld	fa5, 0xe0(gp)
   16762: d3 17 f5 a2  	flt.d	a5, fa0, fa5
   16766: 63 93 07 1c  	bnez	a5, 0x1692c <_strtod_l+0xc10>
   1676a: 87 b7 81 12  	fld	fa5, 0x128(gp)
   1676e: 53 74 f5 12  	fmul.d	fs0, fa0, fa5
   16772: d3 17 84 22  	fneg.d	fa5, fs0
   16776: 53 86 07 e2  	fmv.x.d	a2, fa5
   1677a: c1 be        	j	0x1634a <_strtod_l+0x62e>
   1677c: 87 b7 81 13  	fld	fa5, 0x138(gp)
   16780: d3 17 f5 a2  	flt.d	a5, fa0, fa5
   16784: f1 fb        	bnez	a5, 0x16758 <_strtod_l+0xa3c>
   16786: 87 b7 01 14  	fld	fa5, 0x140(gp)
   1678a: d3 97 a7 a2  	flt.d	a5, fa5, fa0
   1678e: e3 87 07 c4  	beqz	a5, 0x163dc <_strtod_l+0x6c0>
   16792: d2 8d        	mv	s11, s4
   16794: d9 b7        	j	0x1675a <_strtod_l+0xa3e>
   16796: 05 47        	li	a4, 0x1
   16798: 1b 0e 19 00  	addiw	t3, s2, 0x1
   1679c: 63 54 a7 02  	bge	a4, a0, 0x167c4 <_strtod_l+0xaa8>
   167a0: 3b 0e a9 00  	addw	t3, s2, a0
   167a4: 1b 05 fe ff  	addiw	a0, t3, -0x1
   167a8: a1 45        	li	a1, 0x8
   167aa: 41 43        	li	t1, 0x10
   167ac: 4a 87        	mv	a4, s2
   167ae: 05 29        	addiw	s2, s2, 0x1
   167b0: 63 c2 e5 02  	blt	a1, a4, 0x167d4 <_strtod_l+0xab8>
   167b4: 1b 17 2b 00  	slliw	a4, s6, 0x2
   167b8: 3b 07 67 01  	addw	a4, a4, s6
   167bc: 1b 1b 17 00  	slliw	s6, a4, 0x1
   167c0: e3 16 25 ff  	bne	a0, s2, 0x167ac <_strtod_l+0xa90>
   167c4: 21 47        	li	a4, 0x8
   167c6: 3b 88 0e 01  	addw	a6, t4, a6
   167ca: 63 4b 27 07  	blt	a4, s2, 0x16840 <_strtod_l+0xb24>
   167ce: 72 89        	mv	s2, t3
   167d0: 6f f0 ef eb  	j	0x15e8e <_strtod_l+0x172>
   167d4: e3 46 23 ff  	blt	t1, s2, 0x167c0 <_strtod_l+0xaa4>
   167d8: 1b 17 2c 00  	slliw	a4, s8, 0x2
   167dc: 3b 07 87 01  	addw	a4, a4, s8
   167e0: 1b 1c 17 00  	slliw	s8, a4, 0x1
   167e4: f1 bf        	j	0x167c0 <_strtod_l+0xaa4>
   167e6: b7 15 02 00  	lui	a1, 0x21
   167ea: 05 46        	li	a2, 0x1
   167ec: 93 85 85 2f  	addi	a1, a1, 0x2f8
   167f0: 56 85        	mv	a0, s5
   167f2: ef 10 30 1e  	jal	0x181d4 <strncmp>
   167f6: 63 0e 05 10  	beqz	a0, 0x16912 <_strtod_l+0xbf6>
   167fa: 01 45        	li	a0, 0x0
   167fc: 01 43        	li	t1, 0x0
   167fe: 6f f0 ef ee  	j	0x15eec <_strtod_l+0x1d0>
   16802: b7 07 50 03  	lui	a5, 0x3500
   16806: a9 9f        	addw	a5, a5, a0
   16808: 13 9a 07 02  	slli	s4, a5, 0x20
   1680c: f1 8d        	and	a1, a1, a2
   1680e: 33 ea 45 01  	or	s4, a1, s4
   16812: 75 be        	j	0x163ce <_strtod_l+0x6b2>
   16814: ee 69        	ld	s3, 0xd8(sp)
   16816: 6f f0 6f f3  	j	0x15f4c <_strtod_l+0x230>
   1681a: 0e 79        	ld	s2, 0xe0(sp)
   1681c: aa 7c        	ld	s9, 0xa8(sp)
   1681e: 6f f0 cf de  	j	0x15e0a <_strtod_l+0xee>
   16822: b7 27 02 00  	lui	a5, 0x22
   16826: 0e 0d        	slli	s10, s10, 0x3
   16828: 93 87 87 85  	addi	a5, a5, -0x7a8
   1682c: ea 97        	add	a5, a5, s10
   1682e: 9c 23        	fld	fa5, 0x0(a5)
   16830: 53 07 0a f2  	fmv.d.x	fa4, s4
   16834: d3 f7 e7 12  	fmul.d	fa5, fa5, fa4
   16838: d3 8d 07 e2  	fmv.x.d	s11, fa5
   1683c: 6f f0 9f 89  	j	0x160d4 <_strtod_l+0x3b8>
   16840: c1 47        	li	a5, 0x10
   16842: 63 ce c7 0f  	blt	a5, t3, 0x1693e <_strtod_l+0xc22>
   16846: 9b 17 2c 00  	slliw	a5, s8, 0x2
   1684a: bb 87 87 01  	addw	a5, a5, s8
   1684e: 9b 97 17 00  	slliw	a5, a5, 0x1
   16852: 3b 8c d7 00  	addw	s8, a5, a3
   16856: 72 89        	mv	s2, t3
   16858: 01 45        	li	a0, 0x0
   1685a: 6f f0 6f d9  	j	0x15df0 <_strtod_l+0xd4>
   1685e: 83 bd 01 08  	ld	s11, 0x80(gp)
   16862: a5 b1        	j	0x164ca <_strtod_l+0x7ae>
   16864: 46 66        	ld	a2, 0x50(sp)
   16866: 11 ca        	beqz	a2, 0x1687a <_strtod_l+0xb5e>
   16868: 93 05 50 03  	li	a1, 0x35
   1686c: a8 08        	addi	a0, sp, 0x58
   1686e: ef 30 50 22  	jal	0x1a292 <__copybits>
   16872: c6 65        	ld	a1, 0x50(sp)
   16874: 22 85        	mv	a0, s0
   16876: ef 20 50 63  	jal	0x196aa <_Bfree>
   1687a: 95 47        	li	a5, 0x5
   1687c: 96 46        	lw	a3, 0x44(sp)
   1687e: 63 e5 47 33  	bltu	a5, s4, 0x16ba8 <_strtod_l+0xe8c>
   16882: 37 17 02 00  	lui	a4, 0x21
   16886: 93 17 2a 00  	slli	a5, s4, 0x2
   1688a: 13 07 c7 57  	addi	a4, a4, 0x57c
   1688e: ba 97        	add	a5, a5, a4
   16890: 9c 43        	lw	a5, 0x0(a5)
   16892: 82 87        	jr	a5
   16894: f6 47        	lw	a5, 0x5c(sp)
   16896: 37 06 f0 ff  	lui	a2, 0xfff00
   1689a: 7d 16        	addi	a2, a2, -0x1
   1689c: 1b 87 36 43  	addiw	a4, a3, 0x433
   168a0: 1b 17 47 01  	slliw	a4, a4, 0x14
   168a4: 03 6a 81 05  	lwu	s4, 0x58(sp)
   168a8: f1 8f        	and	a5, a5, a2
   168aa: d9 8f        	or	a5, a5, a4
   168ac: 13 97 07 02  	slli	a4, a5, 0x20
   168b0: 33 6a ea 00  	or	s4, s4, a4
   168b4: 81 27        	sext.w	a5, a5
   168b6: 93 f9 09 10  	andi	s3, s3, 0x100
   168ba: 63 8c 09 00  	beqz	s3, 0x168d2 <_strtod_l+0xbb6>
   168be: 37 07 00 80  	lui	a4, 0x80000
   168c2: d9 8f        	or	a5, a5, a4
   168c4: 02 1a        	slli	s4, s4, 0x20
   168c6: 13 97 07 02  	slli	a4, a5, 0x20
   168ca: 13 5a 0a 02  	srli	s4, s4, 0x20
   168ce: 33 6a ea 00  	or	s4, s4, a4
   168d2: 13 d7 47 01  	srli	a4, a5, 0x14
   168d6: 13 77 f7 7f  	andi	a4, a4, 0x7ff
   168da: d2 8d        	mv	s11, s4
   168dc: 05 ff        	bnez	a4, 0x16814 <_strtod_l+0xaf8>
   168de: ef 10 10 46  	jal	0x1853e <__errno>
   168e2: 93 07 20 02  	li	a5, 0x22
   168e6: ee 69        	ld	s3, 0xd8(sp)
   168e8: 1c c1        	sw	a5, 0x0(a0)
   168ea: 6f f0 2f e6  	j	0x15f4c <_strtod_l+0x230>
   168ee: 7d 5a        	li	s4, -0x1
   168f0: 13 5a 1a 00  	srli	s4, s4, 0x1
   168f4: 93 f9 09 10  	andi	s3, s3, 0x100
   168f8: 63 9c 09 18  	bnez	s3, 0x16a90 <_strtod_l+0xd74>
   168fc: ee 69        	ld	s3, 0xd8(sp)
   168fe: d2 8d        	mv	s11, s4
   16900: 6f f0 cf e4  	j	0x15f4c <_strtod_l+0x230>
   16904: 13 0a f0 7f  	li	s4, 0x7ff
   16908: 52 1a        	slli	s4, s4, 0x34
   1690a: ed b7        	j	0x168f4 <_strtod_l+0xbd8>
   1690c: 66 6a        	ld	s4, 0x58(sp)
   1690e: f6 47        	lw	a5, 0x5c(sp)
   16910: 5d b7        	j	0x168b6 <_strtod_l+0xb9a>
   16912: a6 66        	ld	a3, 0x48(sp)
   16914: 01 4b        	li	s6, 0x0
   16916: 01 4c        	li	s8, 0x0
   16918: b6 87        	mv	a5, a3
   1691a: 85 06        	addi	a3, a3, 0x1
   1691c: b6 e4        	sd	a3, 0x48(sp)
   1691e: 83 c9 17 00  	lbu	s3, 0x1(a5)
   16922: 6f f0 2f d3  	j	0x15e54 <_strtod_l+0x138>
   16926: 01 45        	li	a0, 0x0
   16928: 6f f0 cf d4  	j	0x15e74 <_strtod_l+0x158>
   1692c: 03 b6 01 12  	ld	a2, 0x120(gp)
   16930: 07 b4 81 12  	fld	fs0, 0x128(gp)
   16934: 19 bc        	j	0x1634a <_strtod_l+0x62e>
   16936: 4a 86        	mv	a2, s2
   16938: 01 48        	li	a6, 0x0
   1693a: 6f f0 0f ca  	j	0x15dda <_strtod_l+0xbe>
   1693e: 72 89        	mv	s2, t3
   16940: 01 45        	li	a0, 0x0
   16942: 6f f0 ef ca  	j	0x15df0 <_strtod_l+0xd4>
   16946: 63 89 0d 10  	beqz	s11, 0x16a58 <_strtod_l+0xd3c>
   1694a: 93 57 0a 42  	srai	a5, s4, 0x20
   1694e: 13 c7 f7 ff  	not	a4, a5
   16952: 93 16 c7 02  	slli	a3, a4, 0x2c
   16956: 63 85 06 1c  	beqz	a3, 0x16b20 <_strtod_l+0xe04>
   1695a: 22 77        	ld	a4, 0x28(sp)
   1695c: 63 1e 07 1a  	bnez	a4, 0x16b18 <_strtod_l+0xdfc>
   16960: 82 77        	ld	a5, 0x20(sp)
   16962: b3 77 fa 00  	and	a5, s4, a5
   16966: 81 27        	sext.w	a5, a5
   16968: 91 cb        	beqz	a5, 0x1697c <_strtod_l+0xc60>
   1696a: 52 85        	mv	a0, s4
   1696c: e6 85        	mv	a1, s9
   1696e: ef f0 8f b6  	jal	0x15cd6 <sulp>
   16972: a2 27        	fld	fa5, 0x8(sp)
   16974: d3 f7 a7 02  	fadd.d	fa5, fa5, fa0
   16978: 53 8a 07 e2  	fmv.x.d	s4, fa5
   1697c: d2 8d        	mv	s11, s4
   1697e: e3 8e 0c dc  	beqz	s9, 0x1675a <_strtod_l+0xa3e>
   16982: 87 b7 01 15  	fld	fa5, 0x150(gp)
   16986: 53 07 0a f2  	fmv.d.x	fa4, s4
   1698a: 46 65        	ld	a0, 0x50(sp)
   1698c: d3 77 f7 12  	fmul.d	fa5, fa4, fa5
   16990: d3 8d 07 e2  	fmv.x.d	s11, fa5
   16994: 93 d7 0d 02  	srli	a5, s11, 0x20
   16998: 13 d7 47 01  	srli	a4, a5, 0x14
   1699c: 13 77 f7 7f  	andi	a4, a4, 0x7ff
   169a0: e3 13 07 c0  	bnez	a4, 0x165a6 <_strtod_l+0x88a>
   169a4: 93 07 20 02  	li	a5, 0x22
   169a8: 1c c0        	sw	a5, 0x0(s0)
   169aa: f5 be        	j	0x165a6 <_strtod_l+0x88a>
   169ac: e3 98 0d fc  	bnez	s11, 0x1697c <_strtod_l+0xc60>
   169b0: a2 67        	ld	a5, 0x8(sp)
   169b2: b2 07        	slli	a5, a5, 0xc
   169b4: e1 f7        	bnez	a5, 0x1697c <_strtod_l+0xc60>
   169b6: 13 5d 0a 02  	srli	s10, s4, 0x20
   169ba: 37 0b f0 7f  	lui	s6, 0x7ff00
   169be: 33 7b 6d 01  	and	s6, s10, s6
   169c2: b7 07 b0 06  	lui	a5, 0x6b00
   169c6: e3 fb 67 fb  	bgeu	a5, s6, 0x1697c <_strtod_l+0xc60>
   169ca: 83 a7 8a 01  	lw	a5, 0x18(s5)
   169ce: 91 e7        	bnez	a5, 0x169da <_strtod_l+0xcbe>
   169d0: 03 a7 4a 01  	lw	a4, 0x14(s5)
   169d4: 85 47        	li	a5, 0x1
   169d6: e3 d3 e7 fa  	bge	a5, a4, 0x1697c <_strtod_l+0xc60>
   169da: d6 85        	mv	a1, s5
   169dc: 05 46        	li	a2, 0x1
   169de: 22 85        	mv	a0, s0
   169e0: ef 30 80 29  	jal	0x19c78 <__lshift>
   169e4: ca 85        	mv	a1, s2
   169e6: aa 8a        	mv	s5, a0
   169e8: ef 30 80 3b  	jal	0x19da0 <__mcmp>
   169ec: e3 58 a0 f8  	blez	a0, 0x1697c <_strtod_l+0xc60>
   169f0: 63 80 0c 10  	beqz	s9, 0x16af0 <_strtod_l+0xdd4>
   169f4: b7 07 f0 ff  	lui	a5, 0xfff00
   169f8: 37 07 10 00  	lui	a4, 0x100
   169fc: bb 87 67 01  	addw	a5, a5, s6
   16a00: 7d 17        	addi	a4, a4, -0x1
   16a02: d9 8f        	or	a5, a5, a4
   16a04: 7d 5a        	li	s4, -0x1
   16a06: 82 17        	slli	a5, a5, 0x20
   16a08: 13 5a 0a 02  	srli	s4, s4, 0x20
   16a0c: 33 6a fa 00  	or	s4, s4, a5
   16a10: 8d bf        	j	0x16982 <_strtod_l+0xc66>
   16a12: 37 0a 50 03  	lui	s4, 0x3500
   16a16: 3b 0a ba 00  	addw	s4, s4, a1
   16a1a: 02 1a        	slli	s4, s4, 0x20
   16a1c: 7d 8f        	and	a4, a4, a5
   16a1e: 33 6a 47 01  	or	s4, a4, s4
   16a22: 6f f0 4f f8  	j	0x161a6 <_strtod_l+0x48a>
   16a26: b7 15 02 00  	lui	a1, 0x21
   16a2a: b0 08        	addi	a2, sp, 0x58
   16a2c: 93 85 85 59  	addi	a1, a1, 0x598
   16a30: a8 00        	addi	a0, sp, 0x48
   16a32: ef 20 50 20  	jal	0x19436 <__hexnan>
   16a36: 95 47        	li	a5, 0x5
   16a38: 63 1f f5 ce  	bne	a0, a5, 0x15f36 <_strtod_l+0x21a>
   16a3c: f6 47        	lw	a5, 0x5c(sp)
   16a3e: 83 6d 81 05  	lwu	s11, 0x58(sp)
   16a42: 37 07 f0 7f  	lui	a4, 0x7ff00
   16a46: d9 8f        	or	a5, a5, a4
   16a48: 82 17        	slli	a5, a5, 0x20
   16a4a: ee 69        	ld	s3, 0xd8(sp)
   16a4c: 0e 6b        	ld	s6, 0xc0(sp)
   16a4e: 4a 7c        	ld	s8, 0xb0(sp)
   16a50: b3 ed fd 00  	or	s11, s11, a5
   16a54: 6f f0 8f cf  	j	0x15f4c <_strtod_l+0x230>
   16a58: a2 67        	ld	a5, 0x8(sp)
   16a5a: b2 07        	slli	a5, a5, 0xc
   16a5c: 8d ef        	bnez	a5, 0x16a96 <_strtod_l+0xd7a>
   16a5e: 13 5d 0a 02  	srli	s10, s4, 0x20
   16a62: 13 5b 0a 42  	srai	s6, s4, 0x20
   16a66: 63 85 0c 08  	beqz	s9, 0x16af0 <_strtod_l+0xdd4>
   16a6a: b7 07 f0 7f  	lui	a5, 0x7ff00
   16a6e: 33 7b fb 00  	and	s6, s6, a5
   16a72: b7 07 b0 06  	lui	a5, 0x6b00
   16a76: e3 ef 67 f7  	bltu	a5, s6, 0x169f4 <_strtod_l+0xcd8>
   16a7a: b7 07 70 03  	lui	a5, 0x3700
   16a7e: e3 e2 67 f1  	bltu	a5, s6, 0x16982 <_strtod_l+0xc66>
   16a82: 93 07 20 02  	li	a5, 0x22
   16a86: 46 65        	ld	a0, 0x50(sp)
   16a88: 93 0d 00 00  	li	s11, 0x0
   16a8c: 1c c0        	sw	a5, 0x0(s0)
   16a8e: 21 be        	j	0x165a6 <_strtod_l+0x88a>
   16a90: 93 57 0a 42  	srai	a5, s4, 0x20
   16a94: 2d b5        	j	0x168be <_strtod_l+0xba2>
   16a96: 22 77        	ld	a4, 0x28(sp)
   16a98: 71 c3        	beqz	a4, 0x16b5c <_strtod_l+0xe40>
   16a9a: 93 57 0a 02  	srli	a5, s4, 0x20
   16a9e: f9 8f        	and	a5, a5, a4
   16aa0: e3 8e 07 ec  	beqz	a5, 0x1697c <_strtod_l+0xc60>
   16aa4: e6 85        	mv	a1, s9
   16aa6: 52 85        	mv	a0, s4
   16aa8: ef f0 ef a2  	jal	0x15cd6 <sulp>
   16aac: a2 27        	fld	fa5, 0x8(sp)
   16aae: d3 f7 a7 0a  	fsub.d	fa5, fa5, fa0
   16ab2: d3 87 07 e2  	fmv.x.d	a5, fa5
   16ab6: d3 07 00 f2  	fmv.d.x	fa5, zero
   16aba: 53 87 07 f2  	fmv.d.x	fa4, a5
   16abe: 53 27 f7 a2  	feq.d	a4, fa4, fa5
   16ac2: 61 f3        	bnez	a4, 0x16a82 <_strtod_l+0xd66>
   16ac4: 3e 8a        	mv	s4, a5
   16ac6: 5d bd        	j	0x1697c <_strtod_l+0xc60>
   16ac8: b7 2e 02 00  	lui	t4, 0x22
   16acc: 81 46        	li	a3, 0x0
   16ace: 93 8e 0e 83  	addi	t4, t4, -0x7d0
   16ad2: 6f f0 6f e8  	j	0x16158 <_strtod_l+0x43c>
   16ad6: fd 57        	li	a5, -0x1
   16ad8: bb 97 e7 00  	sllw	a5, a5, a4
   16adc: b3 77 fa 00  	and	a5, s4, a5
   16ae0: 82 17        	slli	a5, a5, 0x20
   16ae2: 13 5a 0a 02  	srli	s4, s4, 0x20
   16ae6: 81 93        	srli	a5, a5, 0x20
   16ae8: 02 1a        	slli	s4, s4, 0x20
   16aea: 33 6a fa 00  	or	s4, s4, a5
   16aee: d1 b2        	j	0x164b2 <_strtod_l+0x796>
   16af0: b7 07 f0 7f  	lui	a5, 0x7ff00
   16af4: 33 7d fd 00  	and	s10, s10, a5
   16af8: 37 07 10 00  	lui	a4, 0x100
   16afc: b7 07 f0 ff  	lui	a5, 0xfff00
   16b00: bb 87 a7 01  	addw	a5, a5, s10
   16b04: 7d 17        	addi	a4, a4, -0x1
   16b06: d9 8f        	or	a5, a5, a4
   16b08: fd 5d        	li	s11, -0x1
   16b0a: 82 17        	slli	a5, a5, 0x20
   16b0c: 93 dd 0d 02  	srli	s11, s11, 0x20
   16b10: 46 65        	ld	a0, 0x50(sp)
   16b12: b3 ed fd 00  	or	s11, s11, a5
   16b16: 41 bc        	j	0x165a6 <_strtod_l+0x88a>
   16b18: f9 8f        	and	a5, a5, a4
   16b1a: e3 98 07 e4  	bnez	a5, 0x1696a <_strtod_l+0xc4e>
   16b1e: b9 bd        	j	0x1697c <_strtod_l+0xc60>
   16b20: 9b 06 0a 00  	sext.w	a3, s4
   16b24: 7d 56        	li	a2, -0x1
   16b26: 63 82 0c 02  	beqz	s9, 0x16b4a <_strtod_l+0xe2e>
   16b2a: 37 07 f0 7f  	lui	a4, 0x7ff00
   16b2e: 7d 8f        	and	a4, a4, a5
   16b30: b7 05 a0 06  	lui	a1, 0x6a00
   16b34: 63 eb e5 00  	bltu	a1, a4, 0x16b4a <_strtod_l+0xe2e>
   16b38: 13 06 b0 06  	li	a2, 0x6b
   16b3c: 1b 57 47 01  	srliw	a4, a4, 0x14
   16b40: 3b 07 e6 40  	subw	a4, a2, a4
   16b44: 7d 56        	li	a2, -0x1
   16b46: 3b 16 e6 00  	sllw	a2, a2, a4
   16b4a: 63 8f c6 02  	beq	a3, a2, 0x16b88 <_strtod_l+0xe6c>
   16b4e: 22 77        	ld	a4, 0x28(sp)
   16b50: 61 f7        	bnez	a4, 0x16b18 <_strtod_l+0xdfc>
   16b52: 82 77        	ld	a5, 0x20(sp)
   16b54: fd 8e        	and	a3, a3, a5
   16b56: e3 83 06 e2  	beqz	a3, 0x1697c <_strtod_l+0xc60>
   16b5a: 01 bd        	j	0x1696a <_strtod_l+0xc4e>
   16b5c: 82 77        	ld	a5, 0x20(sp)
   16b5e: b3 77 fa 00  	and	a5, s4, a5
   16b62: 81 27        	sext.w	a5, a5
   16b64: e3 8c 07 e0  	beqz	a5, 0x1697c <_strtod_l+0xc60>
   16b68: 35 bf        	j	0x16aa4 <_strtod_l+0xd88>
   16b6a: 13 07 b0 04  	li	a4, 0x4b
   16b6e: bb 06 d7 40  	subw	a3, a4, a3
   16b72: 7d 57        	li	a4, -0x1
   16b74: 3b 17 d7 00  	sllw	a4, a4, a3
   16b78: f9 8f        	and	a5, a5, a4
   16b7a: 02 1a        	slli	s4, s4, 0x20
   16b7c: 82 17        	slli	a5, a5, 0x20
   16b7e: 13 5a 0a 02  	srli	s4, s4, 0x20
   16b82: 33 6a fa 00  	or	s4, s4, a5
   16b86: 35 b2        	j	0x164b2 <_strtod_l+0x796>
   16b88: 13 07 f0 7f  	li	a4, 0x7ff
   16b8c: a2 66        	ld	a3, 0x8(sp)
   16b8e: 52 17        	slli	a4, a4, 0x34
   16b90: 7d 17        	addi	a4, a4, -0x1
   16b92: e3 00 d7 a6  	beq	a4, a3, 0x165f2 <_strtod_l+0x8d6>
   16b96: 37 07 f0 7f  	lui	a4, 0x7ff00
   16b9a: f9 8f        	and	a5, a5, a4
   16b9c: 37 0a 10 00  	lui	s4, 0x100
   16ba0: 3b 0a fa 00  	addw	s4, s4, a5
   16ba4: 02 1a        	slli	s4, s4, 0x20
   16ba6: d9 bb        	j	0x1697c <_strtod_l+0xc60>
   16ba8: 93 f9 09 10  	andi	s3, s3, 0x100
   16bac: 93 0d 00 00  	li	s11, 0x0
   16bb0: e3 87 09 d2  	beqz	s3, 0x168de <_strtod_l+0xbc2>
   16bb4: fd 5d        	li	s11, -0x1
   16bb6: fe 1d        	slli	s11, s11, 0x3f
   16bb8: 1d b3        	j	0x168de <_strtod_l+0xbc2>

0000000000016bba <_strtod_r>:
   16bba: 93 86 01 d8  	addi	a3, gp, -0x280
   16bbe: 6f f0 ef 95  	j	0x15d1c <_strtod_l>

0000000000016bc2 <strtod_l>:
   16bc2: aa 87        	mv	a5, a0
   16bc4: 03 b5 01 23  	ld	a0, 0x230(gp)
   16bc8: b2 86        	mv	a3, a2
   16bca: 2e 86        	mv	a2, a1
   16bcc: be 85        	mv	a1, a5
   16bce: 6f f0 ef 94  	j	0x15d1c <_strtod_l>

0000000000016bd2 <strtod>:
   16bd2: aa 87        	mv	a5, a0
   16bd4: 03 b5 01 23  	ld	a0, 0x230(gp)
   16bd8: 2e 86        	mv	a2, a1
   16bda: 93 86 01 d8  	addi	a3, gp, -0x280
   16bde: be 85        	mv	a1, a5
   16be0: 6f f0 cf 93  	j	0x15d1c <_strtod_l>

0000000000016be4 <strtof_l>:
   16be4: 41 11        	addi	sp, sp, -0x10
   16be6: 22 e0        	sd	s0, 0x0(sp)
   16be8: aa 87        	mv	a5, a0
   16bea: 03 b5 01 23  	ld	a0, 0x230(gp)
   16bee: b2 86        	mv	a3, a2
   16bf0: 2e 86        	mv	a2, a1
   16bf2: be 85        	mv	a1, a5
   16bf4: 06 e4        	sd	ra, 0x8(sp)
   16bf6: ef f0 6f 92  	jal	0x15d1c <_strtod_l>
   16bfa: 53 27 a5 a2  	feq.d	a4, fa0, fa0
   16bfe: d3 07 05 e2  	fmv.x.d	a5, fa0
   16c02: 21 c7        	beqz	a4, 0x16c4a <strtof_l+0x66>
   16c04: 53 75 15 40  	fcvt.s.d	fa0, fa0
   16c08: d3 27 a5 20  	fabs.s	fa5, fa0
   16c0c: f3 26 10 00  	frflags	a3
   16c10: 07 a7 81 1b  	flw	fa4, 0x1b8(gp)
   16c14: 53 17 f7 a0  	flt.s	a4, fa4, fa5
   16c18: 73 90 16 00  	fsflags	a3
   16c1c: 1d c3        	beqz	a4, 0x16c42 <strtof_l+0x5e>
   16c1e: d3 87 07 f2  	fmv.d.x	fa5, a5
   16c22: d3 a7 f7 22  	fabs.d	fa5, fa5
   16c26: 73 27 10 00  	frflags	a4
   16c2a: 07 b7 81 11  	fld	fa4, 0x118(gp)
   16c2e: d3 17 f7 a2  	flt.d	a5, fa4, fa5
   16c32: 73 10 17 00  	fsflags	a4
   16c36: 91 e7        	bnez	a5, 0x16c42 <strtof_l+0x5e>
   16c38: 83 b7 01 23  	ld	a5, 0x230(gp)
   16c3c: 13 07 20 02  	li	a4, 0x22
   16c40: 98 c3        	sw	a4, 0x0(a5)
   16c42: a2 60        	ld	ra, 0x8(sp)
   16c44: 02 64        	ld	s0, 0x0(sp)
   16c46: 41 01        	addi	sp, sp, 0x10
   16c48: 82 80        	ret
   16c4a: 37 15 02 00  	lui	a0, 0x21
   16c4e: 13 05 85 45  	addi	a0, a0, 0x458
   16c52: 63 d7 07 00  	bgez	a5, 0x16c60 <strtof_l+0x7c>
   16c56: ef 10 30 4e  	jal	0x18938 <nanf>
   16c5a: 53 15 a5 20  	fneg.s	fa0, fa0
   16c5e: d5 b7        	j	0x16c42 <strtof_l+0x5e>
   16c60: 02 64        	ld	s0, 0x0(sp)
   16c62: a2 60        	ld	ra, 0x8(sp)
   16c64: 41 01        	addi	sp, sp, 0x10
   16c66: 6f 10 30 4d  	j	0x18938 <nanf>

0000000000016c6a <strtof>:
   16c6a: 41 11        	addi	sp, sp, -0x10
   16c6c: 22 e0        	sd	s0, 0x0(sp)
   16c6e: aa 87        	mv	a5, a0
   16c70: 03 b5 01 23  	ld	a0, 0x230(gp)
   16c74: 2e 86        	mv	a2, a1
   16c76: 93 86 01 d8  	addi	a3, gp, -0x280
   16c7a: be 85        	mv	a1, a5
   16c7c: 06 e4        	sd	ra, 0x8(sp)
   16c7e: ef f0 ef 89  	jal	0x15d1c <_strtod_l>
   16c82: 53 27 a5 a2  	feq.d	a4, fa0, fa0
   16c86: d3 07 05 e2  	fmv.x.d	a5, fa0
   16c8a: 3d c7        	beqz	a4, 0x16cf8 <strtof+0x8e>
   16c8c: d3 77 15 40  	fcvt.s.d	fa5, fa0
   16c90: 53 87 07 e0  	fmv.x.w	a4, fa5
   16c94: d3 a7 f7 20  	fabs.s	fa5, fa5
   16c98: 73 26 10 00  	frflags	a2
   16c9c: 07 a7 81 1b  	flw	fa4, 0x1b8(gp)
   16ca0: d3 16 f7 a0  	flt.s	a3, fa4, fa5
   16ca4: 73 10 16 00  	fsflags	a2
   16ca8: 9d c6        	beqz	a3, 0x16cd6 <strtof+0x6c>
   16caa: 73 26 10 00  	frflags	a2
   16cae: 07 b7 81 11  	fld	fa4, 0x118(gp)
   16cb2: d3 27 a5 22  	fabs.d	fa5, fa0
   16cb6: d3 16 f7 a2  	flt.d	a3, fa4, fa5
   16cba: 73 10 16 00  	fsflags	a2
   16cbe: 81 ee        	bnez	a3, 0x16cd6 <strtof+0x6c>
   16cc0: 83 b7 01 23  	ld	a5, 0x230(gp)
   16cc4: 93 06 20 02  	li	a3, 0x22
   16cc8: 94 c3        	sw	a3, 0x0(a5)
   16cca: a2 60        	ld	ra, 0x8(sp)
   16ccc: 02 64        	ld	s0, 0x0(sp)
   16cce: 53 05 07 f0  	fmv.w.x	fa0, a4
   16cd2: 41 01        	addi	sp, sp, 0x10
   16cd4: 82 80        	ret
   16cd6: 93 56 77 01  	srli	a3, a4, 0x17
   16cda: 93 f6 f6 0f  	andi	a3, a3, 0xff
   16cde: f5 f6        	bnez	a3, 0x16cca <strtof+0x60>
   16ce0: 81 93        	srli	a5, a5, 0x20
   16ce2: 93 d6 47 01  	srli	a3, a5, 0x14
   16ce6: 93 f6 f6 7f  	andi	a3, a3, 0x7ff
   16cea: f9 fa        	bnez	a3, 0x16cc0 <strtof+0x56>
   16cec: a2 60        	ld	ra, 0x8(sp)
   16cee: 02 64        	ld	s0, 0x0(sp)
   16cf0: 53 05 07 f0  	fmv.w.x	fa0, a4
   16cf4: 41 01        	addi	sp, sp, 0x10
   16cf6: 82 80        	ret
   16cf8: 37 15 02 00  	lui	a0, 0x21
   16cfc: 13 05 85 45  	addi	a0, a0, 0x458
   16d00: 63 d9 07 00  	bgez	a5, 0x16d12 <strtof+0xa8>
   16d04: ef 10 50 43  	jal	0x18938 <nanf>
   16d08: d3 17 a5 20  	fneg.s	fa5, fa0
   16d0c: 53 87 07 e0  	fmv.x.w	a4, fa5
   16d10: 6d bf        	j	0x16cca <strtof+0x60>
   16d12: 02 64        	ld	s0, 0x0(sp)
   16d14: a2 60        	ld	ra, 0x8(sp)
   16d16: 41 01        	addi	sp, sp, 0x10
   16d18: 6f 10 10 42  	j	0x18938 <nanf>

0000000000016d1c <_strtol_l.isra.0>:
   16d1c: 01 11        	addi	sp, sp, -0x20
   16d1e: 06 ec        	sd	ra, 0x18(sp)
   16d20: 93 07 40 02  	li	a5, 0x24
   16d24: 63 ec d7 0c  	bltu	a5, a3, 0x16dfc <_strtol_l.isra.0+0xe0>
   16d28: 85 47        	li	a5, 0x1
   16d2a: 63 89 f6 0c  	beq	a3, a5, 0x16dfc <_strtol_l.isra.0+0xe0>
   16d2e: 37 18 02 00  	lui	a6, 0x21
   16d32: 22 e8        	sd	s0, 0x10(sp)
   16d34: 26 e4        	sd	s1, 0x8(sp)
   16d36: 4a e0        	sd	s2, 0x0(sp)
   16d38: ae 88        	mv	a7, a1
   16d3a: 13 08 18 5f  	addi	a6, a6, 0x5f1
   16d3e: 03 c7 08 00  	lbu	a4, 0x0(a7)
   16d42: 46 83        	mv	t1, a7
   16d44: 85 08        	addi	a7, a7, 0x1
   16d46: b3 07 e8 00  	add	a5, a6, a4
   16d4a: 83 c7 07 00  	lbu	a5, 0x0(a5)
   16d4e: a1 8b        	andi	a5, a5, 0x8
   16d50: fd f7        	bnez	a5, 0x16d3e <_strtol_l.isra.0+0x22>
   16d52: 13 08 d0 02  	li	a6, 0x2d
   16d56: 9b 07 07 00  	sext.w	a5, a4
   16d5a: 63 0b 07 11  	beq	a4, a6, 0x16e70 <_strtol_l.isra.0+0x154>
   16d5e: 13 07 b0 02  	li	a4, 0x2b
   16d62: 63 85 e7 0a  	beq	a5, a4, 0x16e0c <_strtol_l.isra.0+0xf0>
   16d66: fd 54        	li	s1, -0x1
   16d68: 85 80        	srli	s1, s1, 0x1
   16d6a: 01 49        	li	s2, 0x0
   16d6c: c5 ea        	bnez	a3, 0x16e1c <_strtol_l.isra.0+0x100>
   16d6e: 13 07 00 03  	li	a4, 0x30
   16d72: 63 87 e7 10  	beq	a5, a4, 0x16e80 <_strtol_l.isra.0+0x164>
   16d76: a9 43        	li	t2, 0xa
   16d78: a9 46        	li	a3, 0xa
   16d7a: 33 f4 74 02  	remu	s0, s1, t2
   16d7e: a5 4e        	li	t4, 0x9
   16d80: 1b 87 07 fd  	addiw	a4, a5, -0x30
   16d84: 01 4e        	li	t3, 0x0
   16d86: 01 48        	li	a6, 0x0
   16d88: e5 42        	li	t0, 0x19
   16d8a: 7d 5f        	li	t5, -0x1
   16d8c: 1b 83 07 00  	sext.w	t1, a5
   16d90: b3 df 74 02  	divu	t6, s1, t2
   16d94: 01 24        	sext.w	s0, s0
   16d96: 63 e9 ee 02  	bltu	t4, a4, 0x16dc8 <_strtol_l.isra.0+0xac>
   16d9a: ba 87        	mv	a5, a4
   16d9c: 63 de d7 02  	bge	a5, a3, 0x16dd8 <_strtol_l.isra.0+0xbc>
   16da0: 63 0b ee 01  	beq	t3, t5, 0x16db6 <_strtol_l.isra.0+0x9a>
   16da4: 7d 5e        	li	t3, -0x1
   16da6: 63 e8 0f 01  	bltu	t6, a6, 0x16db6 <_strtol_l.isra.0+0x9a>
   16daa: 63 87 0f 0b  	beq	t6, a6, 0x16e58 <_strtol_l.isra.0+0x13c>
   16dae: 05 4e        	li	t3, 0x1
   16db0: 33 08 78 02  	mul	a6, a6, t2
   16db4: 3e 98        	add	a6, a6, a5
   16db6: 83 c7 08 00  	lbu	a5, 0x0(a7)
   16dba: 85 08        	addi	a7, a7, 0x1
   16dbc: 1b 87 07 fd  	addiw	a4, a5, -0x30
   16dc0: 1b 83 07 00  	sext.w	t1, a5
   16dc4: e3 fb ee fc  	bgeu	t4, a4, 0x16d9a <_strtol_l.isra.0+0x7e>
   16dc8: 1b 07 f3 fb  	addiw	a4, t1, -0x41
   16dcc: 63 ef e2 06  	bltu	t0, a4, 0x16e4a <_strtol_l.isra.0+0x12e>
   16dd0: 9b 87 97 fc  	addiw	a5, a5, -0x37
   16dd4: e3 c6 d7 fc  	blt	a5, a3, 0x16da0 <_strtol_l.isra.0+0x84>
   16dd8: fd 57        	li	a5, -0x1
   16dda: 63 02 fe 08  	beq	t3, a5, 0x16e5e <_strtol_l.isra.0+0x142>
   16dde: 63 04 09 00  	beqz	s2, 0x16de6 <_strtol_l.isra.0+0xca>
   16de2: 33 08 00 41  	neg	a6, a6
   16de6: 01 c6        	beqz	a2, 0x16dee <_strtol_l.isra.0+0xd2>
   16de8: 63 17 0e 0a  	bnez	t3, 0x16e96 <_strtol_l.isra.0+0x17a>
   16dec: 0c e2        	sd	a1, 0x0(a2)
   16dee: 42 64        	ld	s0, 0x10(sp)
   16df0: e2 60        	ld	ra, 0x18(sp)
   16df2: a2 64        	ld	s1, 0x8(sp)
   16df4: 02 69        	ld	s2, 0x0(sp)
   16df6: 42 85        	mv	a0, a6
   16df8: 05 61        	addi	sp, sp, 0x20
   16dfa: 82 80        	ret
   16dfc: ef 10 20 74  	jal	0x1853e <__errno>
   16e00: e2 60        	ld	ra, 0x18(sp)
   16e02: d9 47        	li	a5, 0x16
   16e04: 1c c1        	sw	a5, 0x0(a0)
   16e06: 01 45        	li	a0, 0x0
   16e08: 05 61        	addi	sp, sp, 0x20
   16e0a: 82 80        	ret
   16e0c: fd 54        	li	s1, -0x1
   16e0e: 83 c7 08 00  	lbu	a5, 0x0(a7)
   16e12: 85 80        	srli	s1, s1, 0x1
   16e14: 93 08 23 00  	addi	a7, t1, 0x2
   16e18: 01 49        	li	s2, 0x0
   16e1a: b1 da        	beqz	a3, 0x16d6e <_strtol_l.isra.0+0x52>
   16e1c: 41 47        	li	a4, 0x10
   16e1e: b6 83        	mv	t2, a3
   16e20: e3 9d e6 f4  	bne	a3, a4, 0x16d7a <_strtol_l.isra.0+0x5e>
   16e24: 13 07 00 03  	li	a4, 0x30
   16e28: c1 43        	li	t2, 0x10
   16e2a: e3 98 e7 f4  	bne	a5, a4, 0x16d7a <_strtol_l.isra.0+0x5e>
   16e2e: 03 c7 08 00  	lbu	a4, 0x0(a7)
   16e32: 13 08 80 05  	li	a6, 0x58
   16e36: 13 77 f7 0d  	andi	a4, a4, 0xdf
   16e3a: e3 10 07 f5  	bne	a4, a6, 0x16d7a <_strtol_l.isra.0+0x5e>
   16e3e: 83 c7 18 00  	lbu	a5, 0x1(a7)
   16e42: c1 43        	li	t2, 0x10
   16e44: 89 08        	addi	a7, a7, 0x2
   16e46: c1 46        	li	a3, 0x10
   16e48: 0d bf        	j	0x16d7a <_strtol_l.isra.0+0x5e>
   16e4a: 1b 03 f3 f9  	addiw	t1, t1, -0x61
   16e4e: e3 e5 62 f8  	bltu	t0, t1, 0x16dd8 <_strtol_l.isra.0+0xbc>
   16e52: 9b 87 97 fa  	addiw	a5, a5, -0x57
   16e56: 99 b7        	j	0x16d9c <_strtol_l.isra.0+0x80>
   16e58: e3 4f f4 f4  	blt	s0, a5, 0x16db6 <_strtol_l.isra.0+0x9a>
   16e5c: 89 bf        	j	0x16dae <_strtol_l.isra.0+0x92>
   16e5e: 93 07 20 02  	li	a5, 0x22
   16e62: 1c c1        	sw	a5, 0x0(a0)
   16e64: 26 88        	mv	a6, s1
   16e66: 41 d6        	beqz	a2, 0x16dee <_strtol_l.isra.0+0xd2>
   16e68: 93 85 f8 ff  	addi	a1, a7, -0x1
   16e6c: 26 88        	mv	a6, s1
   16e6e: bd bf        	j	0x16dec <_strtol_l.isra.0+0xd0>
   16e70: fd 54        	li	s1, -0x1
   16e72: 83 c7 08 00  	lbu	a5, 0x0(a7)
   16e76: fe 14        	slli	s1, s1, 0x3f
   16e78: 93 08 23 00  	addi	a7, t1, 0x2
   16e7c: 05 49        	li	s2, 0x1
   16e7e: fd b5        	j	0x16d6c <_strtol_l.isra.0+0x50>
   16e80: 03 c7 08 00  	lbu	a4, 0x0(a7)
   16e84: 13 08 80 05  	li	a6, 0x58
   16e88: a1 43        	li	t2, 0x8
   16e8a: 13 77 f7 0d  	andi	a4, a4, 0xdf
   16e8e: a1 46        	li	a3, 0x8
   16e90: e3 15 07 ef  	bne	a4, a6, 0x16d7a <_strtol_l.isra.0+0x5e>
   16e94: 6d b7        	j	0x16e3e <_strtol_l.isra.0+0x122>
   16e96: c2 84        	mv	s1, a6
   16e98: c1 bf        	j	0x16e68 <_strtol_l.isra.0+0x14c>

0000000000016e9a <_strtol_r>:
   16e9a: 6f f0 3f e8  	j	0x16d1c <_strtol_l.isra.0>

0000000000016e9e <strtol_l>:
   16e9e: aa 87        	mv	a5, a0
   16ea0: 03 b5 01 23  	ld	a0, 0x230(gp)
   16ea4: b2 86        	mv	a3, a2
   16ea6: 2e 86        	mv	a2, a1
   16ea8: be 85        	mv	a1, a5
   16eaa: 6f f0 3f e7  	j	0x16d1c <_strtol_l.isra.0>

0000000000016eae <strtol>:
   16eae: aa 87        	mv	a5, a0
   16eb0: 03 b5 01 23  	ld	a0, 0x230(gp)
   16eb4: b2 86        	mv	a3, a2
   16eb6: 2e 86        	mv	a2, a1
   16eb8: be 85        	mv	a1, a5
   16eba: 6f f0 3f e6  	j	0x16d1c <_strtol_l.isra.0>

0000000000016ebe <_fclose_r>:
   16ebe: 01 11        	addi	sp, sp, -0x20
   16ec0: 06 ec        	sd	ra, 0x18(sp)
   16ec2: 4a e0        	sd	s2, 0x0(sp)
   16ec4: 89 cd        	beqz	a1, 0x16ede <_fclose_r+0x20>
   16ec6: 22 e8        	sd	s0, 0x10(sp)
   16ec8: 26 e4        	sd	s1, 0x8(sp)
   16eca: 2e 84        	mv	s0, a1
   16ecc: aa 84        	mv	s1, a0
   16ece: 19 c1        	beqz	a0, 0x16ed4 <_fclose_r+0x16>
   16ed0: 3c 65        	ld	a5, 0x48(a0)
   16ed2: d9 c7        	beqz	a5, 0x16f60 <_fclose_r+0xa2>
   16ed4: 83 17 04 01  	lh	a5, 0x10(s0)
   16ed8: 89 eb        	bnez	a5, 0x16eea <_fclose_r+0x2c>
   16eda: 42 64        	ld	s0, 0x10(sp)
   16edc: a2 64        	ld	s1, 0x8(sp)
   16ede: e2 60        	ld	ra, 0x18(sp)
   16ee0: 01 49        	li	s2, 0x0
   16ee2: 4a 85        	mv	a0, s2
   16ee4: 02 69        	ld	s2, 0x0(sp)
   16ee6: 05 61        	addi	sp, sp, 0x20
   16ee8: 82 80        	ret
   16eea: a2 85        	mv	a1, s0
   16eec: 26 85        	mv	a0, s1
   16eee: ef 00 00 08  	jal	0x16f6e <__sflush_r>
   16ef2: 3c 68        	ld	a5, 0x50(s0)
   16ef4: 2a 89        	mv	s2, a0
   16ef6: 91 c7        	beqz	a5, 0x16f02 <_fclose_r+0x44>
   16ef8: 0c 78        	ld	a1, 0x30(s0)
   16efa: 26 85        	mv	a0, s1
   16efc: 82 97        	jalr	a5
   16efe: 63 46 05 04  	bltz	a0, 0x16f4a <_fclose_r+0x8c>
   16f02: 83 57 04 01  	lhu	a5, 0x10(s0)
   16f06: 93 f7 07 08  	andi	a5, a5, 0x80
   16f0a: b1 e7        	bnez	a5, 0x16f56 <_fclose_r+0x98>
   16f0c: 2c 6c        	ld	a1, 0x58(s0)
   16f0e: 91 c9        	beqz	a1, 0x16f22 <_fclose_r+0x64>
   16f10: 93 07 44 07  	addi	a5, s0, 0x74
   16f14: 63 85 f5 00  	beq	a1, a5, 0x16f1e <_fclose_r+0x60>
   16f18: 26 85        	mv	a0, s1
   16f1a: ef 10 30 3d  	jal	0x18aec <_free_r>
   16f1e: 23 3c 04 04  	sd	zero, 0x58(s0)
   16f22: 2c 7c        	ld	a1, 0x78(s0)
   16f24: 91 c5        	beqz	a1, 0x16f30 <_fclose_r+0x72>
   16f26: 26 85        	mv	a0, s1
   16f28: ef 10 50 3c  	jal	0x18aec <_free_r>
   16f2c: 23 3c 04 06  	sd	zero, 0x78(s0)
   16f30: ef 00 e0 60  	jal	0x1753e <__sfp_lock_acquire>
   16f34: 23 18 04 00  	sh	zero, 0x10(s0)
   16f38: ef 00 80 60  	jal	0x17540 <__sfp_lock_release>
   16f3c: e2 60        	ld	ra, 0x18(sp)
   16f3e: 42 64        	ld	s0, 0x10(sp)
   16f40: a2 64        	ld	s1, 0x8(sp)
   16f42: 4a 85        	mv	a0, s2
   16f44: 02 69        	ld	s2, 0x0(sp)
   16f46: 05 61        	addi	sp, sp, 0x20
   16f48: 82 80        	ret
   16f4a: 83 57 04 01  	lhu	a5, 0x10(s0)
   16f4e: 7d 59        	li	s2, -0x1
   16f50: 93 f7 07 08  	andi	a5, a5, 0x80
   16f54: c5 df        	beqz	a5, 0x16f0c <_fclose_r+0x4e>
   16f56: 0c 6c        	ld	a1, 0x18(s0)
   16f58: 26 85        	mv	a0, s1
   16f5a: ef 10 30 39  	jal	0x18aec <_free_r>
   16f5e: 7d b7        	j	0x16f0c <_fclose_r+0x4e>
   16f60: ef 00 60 5c  	jal	0x17526 <__sinit>
   16f64: 85 bf        	j	0x16ed4 <_fclose_r+0x16>

0000000000016f66 <fclose>:
   16f66: aa 85        	mv	a1, a0
   16f68: 03 b5 01 23  	ld	a0, 0x230(gp)
   16f6c: 89 bf        	j	0x16ebe <_fclose_r>

0000000000016f6e <__sflush_r>:
   16f6e: 03 97 05 01  	lh	a4, 0x10(a1)
   16f72: 79 71        	addi	sp, sp, -0x30
   16f74: 22 f0        	sd	s0, 0x20(sp)
   16f76: 4e e4        	sd	s3, 0x8(sp)
   16f78: 06 f4        	sd	ra, 0x28(sp)
   16f7a: 93 77 87 00  	andi	a5, a4, 0x8
   16f7e: 2e 84        	mv	s0, a1
   16f80: aa 89        	mv	s3, a0
   16f82: f1 e7        	bnez	a5, 0x1704e <__sflush_r+0xe0>
   16f84: 85 67        	lui	a5, 0x1
   16f86: 93 87 07 80  	addi	a5, a5, -0x800
   16f8a: 94 45        	lw	a3, 0x8(a1)
   16f8c: d9 8f        	or	a5, a5, a4
   16f8e: 23 98 f5 00  	sh	a5, 0x10(a1)
   16f92: 63 57 d0 10  	blez	a3, 0x170a0 <__sflush_r+0x132>
   16f96: 03 38 84 04  	ld	a6, 0x48(s0)
   16f9a: 63 04 08 0a  	beqz	a6, 0x17042 <__sflush_r+0xd4>
   16f9e: 26 ec        	sd	s1, 0x18(sp)
   16fa0: 93 16 37 03  	slli	a3, a4, 0x33
   16fa4: 83 a4 09 00  	lw	s1, 0x0(s3)
   16fa8: 23 a0 09 00  	sw	zero, 0x0(s3)
   16fac: 0c 78        	ld	a1, 0x30(s0)
   16fae: 63 c0 06 10  	bltz	a3, 0x170ae <__sflush_r+0x140>
   16fb2: 01 46        	li	a2, 0x0
   16fb4: 85 46        	li	a3, 0x1
   16fb6: 4e 85        	mv	a0, s3
   16fb8: 02 98        	jalr	a6
   16fba: fd 57        	li	a5, -0x1
   16fbc: 2a 86        	mv	a2, a0
   16fbe: 63 01 f5 12  	beq	a0, a5, 0x170e0 <__sflush_r+0x172>
   16fc2: 83 17 04 01  	lh	a5, 0x10(s0)
   16fc6: 03 38 84 04  	ld	a6, 0x48(s0)
   16fca: 0c 78        	ld	a1, 0x30(s0)
   16fcc: 91 8b        	andi	a5, a5, 0x4
   16fce: 99 c7        	beqz	a5, 0x16fdc <__sflush_r+0x6e>
   16fd0: 18 44        	lw	a4, 0x8(s0)
   16fd2: 3c 6c        	ld	a5, 0x58(s0)
   16fd4: 19 8e        	sub	a2, a2, a4
   16fd6: 99 c3        	beqz	a5, 0x16fdc <__sflush_r+0x6e>
   16fd8: 3c 58        	lw	a5, 0x70(s0)
   16fda: 1d 8e        	sub	a2, a2, a5
   16fdc: 81 46        	li	a3, 0x0
   16fde: 4e 85        	mv	a0, s3
   16fe0: 02 98        	jalr	a6
   16fe2: fd 57        	li	a5, -0x1
   16fe4: 63 17 f5 0c  	bne	a0, a5, 0x170b2 <__sflush_r+0x144>
   16fe8: 83 a6 09 00  	lw	a3, 0x0(s3)
   16fec: f5 47        	li	a5, 0x1d
   16fee: 03 17 04 01  	lh	a4, 0x10(s0)
   16ff2: 1b 86 06 00  	sext.w	a2, a3
   16ff6: 63 e1 d7 10  	bltu	a5, a3, 0x170f8 <__sflush_r+0x18a>
   16ffa: b7 07 40 20  	lui	a5, 0x20400
   16ffe: 85 07        	addi	a5, a5, 0x1
   17000: b3 d7 c7 00  	srl	a5, a5, a2
   17004: 85 8b        	andi	a5, a5, 0x1
   17006: ed cb        	beqz	a5, 0x170f8 <__sflush_r+0x18a>
   17008: 10 6c        	ld	a2, 0x18(s0)
   1700a: fd 77        	lui	a5, 0xfffff
   1700c: 93 87 f7 7f  	addi	a5, a5, 0x7ff
   17010: f9 8f        	and	a5, a5, a4
   17012: 23 18 f4 00  	sh	a5, 0x10(s0)
   17016: 23 24 04 00  	sw	zero, 0x8(s0)
   1701a: 10 e0        	sd	a2, 0x0(s0)
   1701c: 93 17 37 03  	slli	a5, a4, 0x33
   17020: 63 d3 07 00  	bgez	a5, 0x17026 <__sflush_r+0xb8>
   17024: dd c6        	beqz	a3, 0x170d2 <__sflush_r+0x164>
   17026: 2c 6c        	ld	a1, 0x58(s0)
   17028: 23 a0 99 00  	sw	s1, 0x0(s3)
   1702c: c5 c9        	beqz	a1, 0x170dc <__sflush_r+0x16e>
   1702e: 93 07 44 07  	addi	a5, s0, 0x74
   17032: 63 85 f5 00  	beq	a1, a5, 0x1703c <__sflush_r+0xce>
   17036: 4e 85        	mv	a0, s3
   17038: ef 10 50 2b  	jal	0x18aec <_free_r>
   1703c: e2 64        	ld	s1, 0x18(sp)
   1703e: 23 3c 04 04  	sd	zero, 0x58(s0)
   17042: 01 45        	li	a0, 0x0
   17044: a2 70        	ld	ra, 0x28(sp)
   17046: 02 74        	ld	s0, 0x20(sp)
   17048: a2 69        	ld	s3, 0x8(sp)
   1704a: 45 61        	addi	sp, sp, 0x30
   1704c: 82 80        	ret
   1704e: 4a e8        	sd	s2, 0x10(sp)
   17050: 03 b9 85 01  	ld	s2, 0x18(a1)
   17054: 63 0b 09 04  	beqz	s2, 0x170aa <__sflush_r+0x13c>
   17058: 26 ec        	sd	s1, 0x18(sp)
   1705a: 84 61        	ld	s1, 0x0(a1)
   1705c: 0d 8b        	andi	a4, a4, 0x3
   1705e: 23 b0 25 01  	sd	s2, 0x0(a1)
   17062: bb 84 24 41  	subw	s1, s1, s2
   17066: 81 47        	li	a5, 0x0
   17068: 11 e3        	bnez	a4, 0x1706c <__sflush_r+0xfe>
   1706a: 9c 51        	lw	a5, 0x20(a1)
   1706c: 5c c4        	sw	a5, 0xc(s0)
   1706e: 63 46 90 00  	bgtz	s1, 0x1707a <__sflush_r+0x10c>
   17072: 1d a8        	j	0x170a8 <__sflush_r+0x13a>
   17074: 2a 99        	add	s2, s2, a0
   17076: 63 59 90 02  	blez	s1, 0x170a8 <__sflush_r+0x13a>
   1707a: 3c 60        	ld	a5, 0x40(s0)
   1707c: 0c 78        	ld	a1, 0x30(s0)
   1707e: a6 86        	mv	a3, s1
   17080: 4a 86        	mv	a2, s2
   17082: 4e 85        	mv	a0, s3
   17084: 82 97        	jalr	a5
   17086: 89 9c        	subw	s1, s1, a0
   17088: e3 46 a0 fe  	bgtz	a0, 0x17074 <__sflush_r+0x106>
   1708c: 03 17 04 01  	lh	a4, 0x10(s0)
   17090: 42 69        	ld	s2, 0x10(sp)
   17092: 13 67 07 04  	ori	a4, a4, 0x40
   17096: e2 64        	ld	s1, 0x18(sp)
   17098: 23 18 e4 00  	sh	a4, 0x10(s0)
   1709c: 7d 55        	li	a0, -0x1
   1709e: 5d b7        	j	0x17044 <__sflush_r+0xd6>
   170a0: b4 59        	lw	a3, 0x70(a1)
   170a2: e3 4a d0 ee  	bgtz	a3, 0x16f96 <__sflush_r+0x28>
   170a6: 71 bf        	j	0x17042 <__sflush_r+0xd4>
   170a8: e2 64        	ld	s1, 0x18(sp)
   170aa: 42 69        	ld	s2, 0x10(sp)
   170ac: 59 bf        	j	0x17042 <__sflush_r+0xd4>
   170ae: 50 68        	ld	a2, 0x90(s0)
   170b0: 31 bf        	j	0x16fcc <__sflush_r+0x5e>
   170b2: 03 17 04 01  	lh	a4, 0x10(s0)
   170b6: 14 6c        	ld	a3, 0x18(s0)
   170b8: fd 77        	lui	a5, 0xfffff
   170ba: 93 87 f7 7f  	addi	a5, a5, 0x7ff
   170be: f9 8f        	and	a5, a5, a4
   170c0: 23 18 f4 00  	sh	a5, 0x10(s0)
   170c4: 23 24 04 00  	sw	zero, 0x8(s0)
   170c8: 14 e0        	sd	a3, 0x0(s0)
   170ca: 93 17 37 03  	slli	a5, a4, 0x33
   170ce: e3 dc 07 f4  	bgez	a5, 0x17026 <__sflush_r+0xb8>
   170d2: 2c 6c        	ld	a1, 0x58(s0)
   170d4: 48 e8        	sd	a0, 0x90(s0)
   170d6: 23 a0 99 00  	sw	s1, 0x0(s3)
   170da: b1 f9        	bnez	a1, 0x1702e <__sflush_r+0xc0>
   170dc: e2 64        	ld	s1, 0x18(sp)
   170de: 95 b7        	j	0x17042 <__sflush_r+0xd4>
   170e0: 83 a7 09 00  	lw	a5, 0x0(s3)
   170e4: e3 8f 07 ec  	beqz	a5, 0x16fc2 <__sflush_r+0x54>
   170e8: 75 47        	li	a4, 0x1d
   170ea: 63 8a e7 00  	beq	a5, a4, 0x170fe <__sflush_r+0x190>
   170ee: 59 47        	li	a4, 0x16
   170f0: 63 87 e7 00  	beq	a5, a4, 0x170fe <__sflush_r+0x190>
   170f4: 03 17 04 01  	lh	a4, 0x10(s0)
   170f8: 13 67 07 04  	ori	a4, a4, 0x40
   170fc: 69 bf        	j	0x17096 <__sflush_r+0x128>
   170fe: 23 a0 99 00  	sw	s1, 0x0(s3)
   17102: e2 64        	ld	s1, 0x18(sp)
   17104: 3d bf        	j	0x17042 <__sflush_r+0xd4>

0000000000017106 <_fflush_r>:
   17106: 01 11        	addi	sp, sp, -0x20
   17108: 22 e8        	sd	s0, 0x10(sp)
   1710a: 06 ec        	sd	ra, 0x18(sp)
   1710c: 2a 84        	mv	s0, a0
   1710e: 19 c1        	beqz	a0, 0x17114 <_fflush_r+0xe>
   17110: 3c 65        	ld	a5, 0x48(a0)
   17112: 99 cf        	beqz	a5, 0x17130 <_fflush_r+0x2a>
   17114: 83 97 05 01  	lh	a5, 0x10(a1)
   17118: 91 e7        	bnez	a5, 0x17124 <_fflush_r+0x1e>
   1711a: e2 60        	ld	ra, 0x18(sp)
   1711c: 42 64        	ld	s0, 0x10(sp)
   1711e: 01 45        	li	a0, 0x0
   17120: 05 61        	addi	sp, sp, 0x20
   17122: 82 80        	ret
   17124: 22 85        	mv	a0, s0
   17126: 42 64        	ld	s0, 0x10(sp)
   17128: e2 60        	ld	ra, 0x18(sp)
   1712a: 05 61        	addi	sp, sp, 0x20
   1712c: 6f f0 3f e4  	j	0x16f6e <__sflush_r>
   17130: 2e e4        	sd	a1, 0x8(sp)
   17132: ef 00 40 3f  	jal	0x17526 <__sinit>
   17136: a2 65        	ld	a1, 0x8(sp)
   17138: f1 bf        	j	0x17114 <_fflush_r+0xe>

000000000001713a <fflush>:
   1713a: 0d cd        	beqz	a0, 0x17174 <fflush+0x3a>
   1713c: aa 85        	mv	a1, a0
   1713e: 03 b5 01 23  	ld	a0, 0x230(gp)
   17142: 19 c1        	beqz	a0, 0x17148 <fflush+0xe>
   17144: 3c 65        	ld	a5, 0x48(a0)
   17146: 81 cb        	beqz	a5, 0x17156 <fflush+0x1c>
   17148: 83 97 05 01  	lh	a5, 0x10(a1)
   1714c: 99 e3        	bnez	a5, 0x17152 <fflush+0x18>
   1714e: 01 45        	li	a0, 0x0
   17150: 82 80        	ret
   17152: 6f f0 df e1  	j	0x16f6e <__sflush_r>
   17156: 01 11        	addi	sp, sp, -0x20
   17158: 2e e4        	sd	a1, 0x8(sp)
   1715a: 2a e0        	sd	a0, 0x0(sp)
   1715c: 06 ec        	sd	ra, 0x18(sp)
   1715e: ef 00 80 3c  	jal	0x17526 <__sinit>
   17162: a2 65        	ld	a1, 0x8(sp)
   17164: 02 65        	ld	a0, 0x0(sp)
   17166: 83 97 05 01  	lh	a5, 0x10(a1)
   1716a: 89 ef        	bnez	a5, 0x17184 <fflush+0x4a>
   1716c: e2 60        	ld	ra, 0x18(sp)
   1716e: 01 45        	li	a0, 0x0
   17170: 05 61        	addi	sp, sp, 0x20
   17172: 82 80        	ret
   17174: dd 65        	lui	a1, 0x17
   17176: 13 86 81 d6  	addi	a2, gp, -0x298
   1717a: 93 85 65 10  	addi	a1, a1, 0x106
   1717e: 13 85 81 f2  	addi	a0, gp, -0xd8
   17182: 7d ad        	j	0x17840 <_fwalk_sglue>
   17184: e2 60        	ld	ra, 0x18(sp)
   17186: 05 61        	addi	sp, sp, 0x20
   17188: 6f f0 7f de  	j	0x16f6e <__sflush_r>

000000000001718c <_fgetc_r>:
   1718c: 01 11        	addi	sp, sp, -0x20
   1718e: 22 e8        	sd	s0, 0x10(sp)
   17190: 06 ec        	sd	ra, 0x18(sp)
   17192: 2a 84        	mv	s0, a0
   17194: 19 c1        	beqz	a0, 0x1719a <_fgetc_r+0xe>
   17196: 3c 65        	ld	a5, 0x48(a0)
   17198: 85 cb        	beqz	a5, 0x171c8 <_fgetc_r+0x3c>
   1719a: 9c 45        	lw	a5, 0x8(a1)
   1719c: fd 37        	addiw	a5, a5, -0x1
   1719e: 9c c5        	sw	a5, 0x8(a1)
   171a0: 13 97 07 02  	slli	a4, a5, 0x20
   171a4: 63 4c 07 00  	bltz	a4, 0x171bc <_fgetc_r+0x30>
   171a8: 9c 61        	ld	a5, 0x0(a1)
   171aa: e2 60        	ld	ra, 0x18(sp)
   171ac: 42 64        	ld	s0, 0x10(sp)
   171ae: 13 87 17 00  	addi	a4, a5, 0x1
   171b2: 98 e1        	sd	a4, 0x0(a1)
   171b4: 03 c5 07 00  	lbu	a0, 0x0(a5)
   171b8: 05 61        	addi	sp, sp, 0x20
   171ba: 82 80        	ret
   171bc: 22 85        	mv	a0, s0
   171be: 42 64        	ld	s0, 0x10(sp)
   171c0: e2 60        	ld	ra, 0x18(sp)
   171c2: 05 61        	addi	sp, sp, 0x20
   171c4: 6f 00 d0 2d  	j	0x17ca0 <__srget_r>
   171c8: 2e e4        	sd	a1, 0x8(sp)
   171ca: ef 00 c0 35  	jal	0x17526 <__sinit>
   171ce: a2 65        	ld	a1, 0x8(sp)
   171d0: e9 b7        	j	0x1719a <_fgetc_r+0xe>

00000000000171d2 <fgetc>:
   171d2: 01 11        	addi	sp, sp, -0x20
   171d4: 26 e4        	sd	s1, 0x8(sp)
   171d6: 83 b4 01 23  	ld	s1, 0x230(gp)
   171da: 22 e8        	sd	s0, 0x10(sp)
   171dc: 06 ec        	sd	ra, 0x18(sp)
   171de: 2a 84        	mv	s0, a0
   171e0: 99 c0        	beqz	s1, 0x171e6 <fgetc+0x14>
   171e2: bc 64        	ld	a5, 0x48(s1)
   171e4: 9d cb        	beqz	a5, 0x1721a <fgetc+0x48>
   171e6: 1c 44        	lw	a5, 0x8(s0)
   171e8: fd 37        	addiw	a5, a5, -0x1
   171ea: 1c c4        	sw	a5, 0x8(s0)
   171ec: 13 97 07 02  	slli	a4, a5, 0x20
   171f0: 63 4d 07 00  	bltz	a4, 0x1720a <fgetc+0x38>
   171f4: 1c 60        	ld	a5, 0x0(s0)
   171f6: e2 60        	ld	ra, 0x18(sp)
   171f8: a2 64        	ld	s1, 0x8(sp)
   171fa: 13 87 17 00  	addi	a4, a5, 0x1
   171fe: 18 e0        	sd	a4, 0x0(s0)
   17200: 42 64        	ld	s0, 0x10(sp)
   17202: 03 c5 07 00  	lbu	a0, 0x0(a5)
   17206: 05 61        	addi	sp, sp, 0x20
   17208: 82 80        	ret
   1720a: a2 85        	mv	a1, s0
   1720c: 42 64        	ld	s0, 0x10(sp)
   1720e: e2 60        	ld	ra, 0x18(sp)
   17210: 26 85        	mv	a0, s1
   17212: a2 64        	ld	s1, 0x8(sp)
   17214: 05 61        	addi	sp, sp, 0x20
   17216: 6f 00 b0 28  	j	0x17ca0 <__srget_r>
   1721a: 26 85        	mv	a0, s1
   1721c: ef 00 a0 30  	jal	0x17526 <__sinit>
   17220: d9 b7        	j	0x171e6 <fgetc+0x14>

0000000000017222 <_fgets_r>:
   17222: 85 47        	li	a5, 0x1
   17224: 63 d1 c7 0c  	bge	a5, a2, 0x172e6 <_fgets_r+0xc4>
   17228: 1d 71        	addi	sp, sp, -0x60
   1722a: a2 e8        	sd	s0, 0x50(sp)
   1722c: 4e fc        	sd	s3, 0x38(sp)
   1722e: 52 f8        	sd	s4, 0x30(sp)
   17230: 86 ec        	sd	ra, 0x58(sp)
   17232: a6 e4        	sd	s1, 0x48(sp)
   17234: ca e0        	sd	s2, 0x40(sp)
   17236: 56 f4        	sd	s5, 0x28(sp)
   17238: 5a f0        	sd	s6, 0x20(sp)
   1723a: 5e ec        	sd	s7, 0x18(sp)
   1723c: 2a 8a        	mv	s4, a0
   1723e: ae 89        	mv	s3, a1
   17240: 36 84        	mv	s0, a3
   17242: 19 c1        	beqz	a0, 0x17248 <_fgets_r+0x26>
   17244: 3c 65        	ld	a5, 0x48(a0)
   17246: d9 cb        	beqz	a5, 0x172dc <_fgets_r+0xba>
   17248: 1b 09 f6 ff  	addiw	s2, a2, -0x1
   1724c: ce 8a        	mv	s5, s3
   1724e: 29 a8        	j	0x17268 <_fgets_r+0x46>
   17250: 1c 60        	ld	a5, 0x0(s0)
   17252: 05 9f        	subw	a4, a4, s1
   17254: 18 c4        	sw	a4, 0x8(s0)
   17256: a6 97        	add	a5, a5, s1
   17258: 1c e0        	sd	a5, 0x0(s0)
   1725a: 3b 09 79 41  	subw	s2, s2, s7
   1725e: ef 10 20 40  	jal	0x18660 <memcpy>
   17262: a6 9a        	add	s5, s5, s1
   17264: 63 07 09 06  	beqz	s2, 0x172d2 <_fgets_r+0xb0>
   17268: 1c 44        	lw	a5, 0x8(s0)
   1726a: a2 85        	mv	a1, s0
   1726c: 52 85        	mv	a0, s4
   1726e: 89 e7        	bnez	a5, 0x17278 <_fgets_r+0x56>
   17270: ef 00 50 0d  	jal	0x17b44 <__srefill_r>
   17274: 29 ed        	bnez	a0, 0x172ce <_fgets_r+0xac>
   17276: 1c 44        	lw	a5, 0x8(s0)
   17278: 03 3b 04 00  	ld	s6, 0x0(s0)
   1727c: a9 45        	li	a1, 0xa
   1727e: ca 84        	mv	s1, s2
   17280: 63 f3 27 01  	bgeu	a5, s2, 0x17286 <_fgets_r+0x64>
   17284: be 84        	mv	s1, a5
   17286: 26 86        	mv	a2, s1
   17288: 5a 85        	mv	a0, s6
   1728a: ef 00 d0 69  	jal	0x18126 <memchr>
   1728e: aa 87        	mv	a5, a0
   17290: 18 44        	lw	a4, 0x8(s0)
   17292: 26 86        	mv	a2, s1
   17294: da 85        	mv	a1, s6
   17296: 56 85        	mv	a0, s5
   17298: 9b 8b 04 00  	sext.w	s7, s1
   1729c: d5 db        	beqz	a5, 0x17250 <_fgets_r+0x2e>
   1729e: 85 07        	addi	a5, a5, 0x1
   172a0: b3 84 67 41  	sub	s1, a5, s6
   172a4: 05 9f        	subw	a4, a4, s1
   172a6: 26 86        	mv	a2, s1
   172a8: 18 c4        	sw	a4, 0x8(s0)
   172aa: 1c e0        	sd	a5, 0x0(s0)
   172ac: d6 94        	add	s1, s1, s5
   172ae: ef 10 20 3b  	jal	0x18660 <memcpy>
   172b2: 23 80 04 00  	sb	zero, 0x0(s1)
   172b6: 4e 85        	mv	a0, s3
   172b8: e6 60        	ld	ra, 0x58(sp)
   172ba: 46 64        	ld	s0, 0x50(sp)
   172bc: a6 64        	ld	s1, 0x48(sp)
   172be: 06 69        	ld	s2, 0x40(sp)
   172c0: e2 79        	ld	s3, 0x38(sp)
   172c2: 42 7a        	ld	s4, 0x30(sp)
   172c4: a2 7a        	ld	s5, 0x28(sp)
   172c6: 02 7b        	ld	s6, 0x20(sp)
   172c8: e2 6b        	ld	s7, 0x18(sp)
   172ca: 25 61        	addi	sp, sp, 0x60
   172cc: 82 80        	ret
   172ce: 63 85 3a 01  	beq	s5, s3, 0x172d8 <_fgets_r+0xb6>
   172d2: 23 80 0a 00  	sb	zero, 0x0(s5)
   172d6: c5 b7        	j	0x172b6 <_fgets_r+0x94>
   172d8: 01 45        	li	a0, 0x0
   172da: f9 bf        	j	0x172b8 <_fgets_r+0x96>
   172dc: 32 e4        	sd	a2, 0x8(sp)
   172de: ef 00 80 24  	jal	0x17526 <__sinit>
   172e2: 22 66        	ld	a2, 0x8(sp)
   172e4: 95 b7        	j	0x17248 <_fgets_r+0x26>
   172e6: 01 45        	li	a0, 0x0
   172e8: 82 80        	ret

00000000000172ea <fgets>:
   172ea: aa 87        	mv	a5, a0
   172ec: 03 b5 01 23  	ld	a0, 0x230(gp)
   172f0: b2 86        	mv	a3, a2
   172f2: 2e 86        	mv	a2, a1
   172f4: be 85        	mv	a1, a5
   172f6: 6f f0 df f2  	j	0x17222 <_fgets_r>

00000000000172fa <__fp_lock>:
   172fa: 01 45        	li	a0, 0x0
   172fc: 82 80        	ret

00000000000172fe <stdio_exit_handler>:
   172fe: dd 65        	lui	a1, 0x17
   17300: 13 86 81 d6  	addi	a2, gp, -0x298
   17304: 93 85 e5 eb  	addi	a1, a1, -0x142
   17308: 13 85 81 f2  	addi	a0, gp, -0xd8
   1730c: 15 ab        	j	0x17840 <_fwalk_sglue>

000000000001730e <cleanup_stdio>:
   1730e: 0c 65        	ld	a1, 0x8(a0)
   17310: 41 11        	addi	sp, sp, -0x10
   17312: 22 e0        	sd	s0, 0x0(sp)
   17314: 06 e4        	sd	ra, 0x8(sp)
   17316: 93 87 81 2d  	addi	a5, gp, 0x2d8
   1731a: 2a 84        	mv	s0, a0
   1731c: 63 84 f5 00  	beq	a1, a5, 0x17324 <cleanup_stdio+0x16>
   17320: ef f0 ff b9  	jal	0x16ebe <_fclose_r>
   17324: 0c 68        	ld	a1, 0x10(s0)
   17326: 93 87 81 38  	addi	a5, gp, 0x388
   1732a: 63 85 f5 00  	beq	a1, a5, 0x17334 <cleanup_stdio+0x26>
   1732e: 22 85        	mv	a0, s0
   17330: ef f0 ff b8  	jal	0x16ebe <_fclose_r>
   17334: 0c 6c        	ld	a1, 0x18(s0)
   17336: 93 87 81 43  	addi	a5, gp, 0x438
   1733a: 63 88 f5 00  	beq	a1, a5, 0x1734a <cleanup_stdio+0x3c>
   1733e: 22 85        	mv	a0, s0
   17340: 02 64        	ld	s0, 0x0(sp)
   17342: a2 60        	ld	ra, 0x8(sp)
   17344: 41 01        	addi	sp, sp, 0x10
   17346: 6f f0 9f b7  	j	0x16ebe <_fclose_r>
   1734a: a2 60        	ld	ra, 0x8(sp)
   1734c: 02 64        	ld	s0, 0x0(sp)
   1734e: 41 01        	addi	sp, sp, 0x10
   17350: 82 80        	ret

0000000000017352 <__fp_unlock>:
   17352: 01 45        	li	a0, 0x0
   17354: 82 80        	ret

0000000000017356 <global_stdio_init.part.0>:
   17356: 79 71        	addi	sp, sp, -0x30
   17358: dd 67        	lui	a5, 0x17
   1735a: 22 f0        	sd	s0, 0x20(sp)
   1735c: 93 87 e7 2f  	addi	a5, a5, 0x2fe
   17360: 13 84 81 2d  	addi	s0, gp, 0x2d8
   17364: 06 f4        	sd	ra, 0x28(sp)
   17366: 26 ec        	sd	s1, 0x18(sp)
   17368: 4a e8        	sd	s2, 0x10(sp)
   1736a: 4e e4        	sd	s3, 0x8(sp)
   1736c: 52 e0        	sd	s4, 0x0(sp)
   1736e: 23 b8 f1 24  	sd	a5, 0x250(gp)
   17372: 21 46        	li	a2, 0x8
   17374: 91 47        	li	a5, 0x4
   17376: 81 45        	li	a1, 0x0
   17378: 13 85 c1 37  	addi	a0, gp, 0x37c
   1737c: 1c c8        	sw	a5, 0x10(s0)
   1737e: 23 30 04 00  	sd	zero, 0x0(s0)
   17382: 23 34 04 00  	sd	zero, 0x8(s0)
   17386: 23 26 04 0a  	sw	zero, 0xac(s0)
   1738a: 23 3c 04 00  	sd	zero, 0x18(s0)
   1738e: 23 20 04 02  	sw	zero, 0x20(s0)
   17392: 23 24 04 02  	sw	zero, 0x28(s0)
   17396: ef 10 00 22  	jal	0x185b6 <memset>
   1739a: c1 67        	lui	a5, 0x10
   1739c: 61 6a        	lui	s4, 0x18
   1739e: e1 69        	lui	s3, 0x18
   173a0: 61 69        	lui	s2, 0x18
   173a2: e1 64        	lui	s1, 0x18
   173a4: 13 0a 8a d2  	addi	s4, s4, -0x2d8
   173a8: 93 89 49 d6  	addi	s3, s3, -0x29c
   173ac: 13 09 89 db  	addi	s2, s2, -0x248
   173b0: 93 84 a4 e0  	addi	s1, s1, -0x1f6
   173b4: a5 07        	addi	a5, a5, 0x9
   173b6: 21 46        	li	a2, 0x8
   173b8: 81 45        	li	a1, 0x0
   173ba: 13 85 c1 42  	addi	a0, gp, 0x42c
   173be: 23 3c 44 03  	sd	s4, 0x38(s0)
   173c2: 23 30 34 05  	sd	s3, 0x40(s0)
   173c6: 23 34 24 05  	sd	s2, 0x48(s0)
   173ca: 24 e8        	sd	s1, 0x50(s0)
   173cc: 23 20 f4 0c  	sw	a5, 0xc0(s0)
   173d0: 00 f8        	sd	s0, 0x30(s0)
   173d2: 23 38 04 0a  	sd	zero, 0xb0(s0)
   173d6: 23 3c 04 0a  	sd	zero, 0xb8(s0)
   173da: 23 2e 04 14  	sw	zero, 0x15c(s0)
   173de: 23 34 04 0c  	sd	zero, 0xc8(s0)
   173e2: 23 28 04 0c  	sw	zero, 0xd0(s0)
   173e6: 23 2c 04 0c  	sw	zero, 0xd8(s0)
   173ea: ef 10 c0 1c  	jal	0x185b6 <memset>
   173ee: b7 07 02 00  	lui	a5, 0x20
   173f2: c9 07        	addi	a5, a5, 0x12
   173f4: 13 87 81 38  	addi	a4, gp, 0x388
   173f8: 21 46        	li	a2, 0x8
   173fa: 81 45        	li	a1, 0x0
   173fc: 13 85 c1 4d  	addi	a0, gp, 0x4dc
   17400: 23 34 44 0f  	sd	s4, 0xe8(s0)
   17404: 23 38 34 0f  	sd	s3, 0xf0(s0)
   17408: 23 3c 24 0f  	sd	s2, 0xf8(s0)
   1740c: 23 30 94 10  	sd	s1, 0x100(s0)
   17410: 23 28 f4 16  	sw	a5, 0x170(s0)
   17414: 78 f0        	sd	a4, 0xe0(s0)
   17416: 23 30 04 16  	sd	zero, 0x160(s0)
   1741a: 23 34 04 16  	sd	zero, 0x168(s0)
   1741e: 23 26 04 20  	sw	zero, 0x20c(s0)
   17422: 23 3c 04 16  	sd	zero, 0x178(s0)
   17426: 23 20 04 18  	sw	zero, 0x180(s0)
   1742a: 23 24 04 18  	sw	zero, 0x188(s0)
   1742e: ef 10 80 18  	jal	0x185b6 <memset>
   17432: 93 87 81 43  	addi	a5, gp, 0x438
   17436: 23 3c 44 19  	sd	s4, 0x198(s0)
   1743a: 23 30 34 1b  	sd	s3, 0x1a0(s0)
   1743e: 23 34 24 1b  	sd	s2, 0x1a8(s0)
   17442: 23 38 94 1a  	sd	s1, 0x1b0(s0)
   17446: a2 70        	ld	ra, 0x28(sp)
   17448: 23 38 f4 18  	sd	a5, 0x190(s0)
   1744c: 02 74        	ld	s0, 0x20(sp)
   1744e: e2 64        	ld	s1, 0x18(sp)
   17450: 42 69        	ld	s2, 0x10(sp)
   17452: a2 69        	ld	s3, 0x8(sp)
   17454: 02 6a        	ld	s4, 0x0(sp)
   17456: 45 61        	addi	sp, sp, 0x30
   17458: 82 80        	ret

000000000001745a <__sfp>:
   1745a: 83 b7 01 25  	ld	a5, 0x250(gp)
   1745e: 79 71        	addi	sp, sp, -0x30
   17460: 4a e8        	sd	s2, 0x10(sp)
   17462: 06 f4        	sd	ra, 0x28(sp)
   17464: 22 f0        	sd	s0, 0x20(sp)
   17466: 26 ec        	sd	s1, 0x18(sp)
   17468: 4e e4        	sd	s3, 0x8(sp)
   1746a: 2a 89        	mv	s2, a0
   1746c: c5 c7        	beqz	a5, 0x17514 <__sfp+0xba>
   1746e: 93 84 81 d6  	addi	s1, gp, -0x298
   17472: 93 09 00 0b  	li	s3, 0xb0
   17476: 98 44        	lw	a4, 0x8(s1)
   17478: 80 68        	ld	s0, 0x10(s1)
   1747a: 63 54 e0 06  	blez	a4, 0x174e2 <__sfp+0x88>
   1747e: 02 17        	slli	a4, a4, 0x20
   17480: 01 93        	srli	a4, a4, 0x20
   17482: 33 07 37 03  	mul	a4, a4, s3
   17486: 22 97        	add	a4, a4, s0
   17488: 29 a0        	j	0x17492 <__sfp+0x38>
   1748a: 13 04 04 0b  	addi	s0, s0, 0xb0
   1748e: 63 0a 87 04  	beq	a4, s0, 0x174e2 <__sfp+0x88>
   17492: 83 17 04 01  	lh	a5, 0x10(s0)
   17496: f5 fb        	bnez	a5, 0x1748a <__sfp+0x30>
   17498: c1 77        	lui	a5, 0xffff0
   1749a: 85 07        	addi	a5, a5, 0x1
   1749c: 1c c8        	sw	a5, 0x10(s0)
   1749e: 23 26 04 0a  	sw	zero, 0xac(s0)
   174a2: 23 30 04 00  	sd	zero, 0x0(s0)
   174a6: 23 34 04 00  	sd	zero, 0x8(s0)
   174aa: 23 3c 04 00  	sd	zero, 0x18(s0)
   174ae: 23 20 04 02  	sw	zero, 0x20(s0)
   174b2: 23 24 04 02  	sw	zero, 0x28(s0)
   174b6: 21 46        	li	a2, 0x8
   174b8: 81 45        	li	a1, 0x0
   174ba: 13 05 44 0a  	addi	a0, s0, 0xa4
   174be: ef 10 80 0f  	jal	0x185b6 <memset>
   174c2: 23 3c 04 04  	sd	zero, 0x58(s0)
   174c6: 23 20 04 06  	sw	zero, 0x60(s0)
   174ca: 23 3c 04 06  	sd	zero, 0x78(s0)
   174ce: 23 20 04 08  	sw	zero, 0x80(s0)
   174d2: a2 70        	ld	ra, 0x28(sp)
   174d4: 22 85        	mv	a0, s0
   174d6: 02 74        	ld	s0, 0x20(sp)
   174d8: e2 64        	ld	s1, 0x18(sp)
   174da: 42 69        	ld	s2, 0x10(sp)
   174dc: a2 69        	ld	s3, 0x8(sp)
   174de: 45 61        	addi	sp, sp, 0x30
   174e0: 82 80        	ret
   174e2: 80 60        	ld	s0, 0x0(s1)
   174e4: 19 c0        	beqz	s0, 0x174ea <__sfp+0x90>
   174e6: a2 84        	mv	s1, s0
   174e8: 79 b7        	j	0x17476 <__sfp+0x1c>
   174ea: 93 05 80 2d  	li	a1, 0x2d8
   174ee: 4a 85        	mv	a0, s2
   174f0: ef e0 af 9d  	jal	0x156ca <_malloc_r>
   174f4: 2a 84        	mv	s0, a0
   174f6: 15 c1        	beqz	a0, 0x1751a <__sfp+0xc0>
   174f8: 61 05        	addi	a0, a0, 0x18
   174fa: 91 47        	li	a5, 0x4
   174fc: 23 30 04 00  	sd	zero, 0x0(s0)
   17500: 1c c4        	sw	a5, 0x8(s0)
   17502: 08 e8        	sd	a0, 0x10(s0)
   17504: 13 06 00 2c  	li	a2, 0x2c0
   17508: 81 45        	li	a1, 0x0
   1750a: ef 10 c0 0a  	jal	0x185b6 <memset>
   1750e: 80 e0        	sd	s0, 0x0(s1)
   17510: a2 84        	mv	s1, s0
   17512: 95 b7        	j	0x17476 <__sfp+0x1c>
   17514: ef f0 3f e4  	jal	0x17356 <global_stdio_init.part.0>
   17518: 99 bf        	j	0x1746e <__sfp+0x14>
   1751a: 23 b0 04 00  	sd	zero, 0x0(s1)
   1751e: b1 47        	li	a5, 0xc
   17520: 23 20 f9 00  	sw	a5, 0x0(s2)
   17524: 7d b7        	j	0x174d2 <__sfp+0x78>

0000000000017526 <__sinit>:
   17526: 3c 65        	ld	a5, 0x48(a0)
   17528: 91 c3        	beqz	a5, 0x1752c <__sinit+0x6>
   1752a: 82 80        	ret
   1752c: 03 b7 01 25  	ld	a4, 0x250(gp)
   17530: dd 67        	lui	a5, 0x17
   17532: 93 87 e7 30  	addi	a5, a5, 0x30e
   17536: 3c e5        	sd	a5, 0x48(a0)
   17538: 6d fb        	bnez	a4, 0x1752a <__sinit+0x4>
   1753a: 6f f0 df e1  	j	0x17356 <global_stdio_init.part.0>

000000000001753e <__sfp_lock_acquire>:
   1753e: 82 80        	ret

0000000000017540 <__sfp_lock_release>:
   17540: 82 80        	ret

0000000000017542 <__fp_lock_all>:
   17542: dd 65        	lui	a1, 0x17
   17544: 13 86 81 d6  	addi	a2, gp, -0x298
   17548: 93 85 a5 2f  	addi	a1, a1, 0x2fa
   1754c: 01 45        	li	a0, 0x0
   1754e: cd ac        	j	0x17840 <_fwalk_sglue>

0000000000017550 <__fp_unlock_all>:
   17550: dd 65        	lui	a1, 0x17
   17552: 13 86 81 d6  	addi	a2, gp, -0x298
   17556: 93 85 25 35  	addi	a1, a1, 0x352
   1755a: 01 45        	li	a0, 0x0
   1755c: d5 a4        	j	0x17840 <_fwalk_sglue>

000000000001755e <_fopen_r>:
   1755e: 39 71        	addi	sp, sp, -0x40
   17560: 32 87        	mv	a4, a2
   17562: 4e ec        	sd	s3, 0x18(sp)
   17564: 70 00        	addi	a2, sp, 0xc
   17566: ae 89        	mv	s3, a1
   17568: ba 85        	mv	a1, a4
   1756a: 4a f0        	sd	s2, 0x20(sp)
   1756c: 06 fc        	sd	ra, 0x38(sp)
   1756e: 22 f8        	sd	s0, 0x30(sp)
   17570: 2a 89        	mv	s2, a0
   17572: ef 50 70 04  	jal	0x1cdb8 <__sflags>
   17576: 59 c1        	beqz	a0, 0x175fc <_fopen_r+0x9e>
   17578: 26 f4        	sd	s1, 0x28(sp)
   1757a: aa 84        	mv	s1, a0
   1757c: 4a 85        	mv	a0, s2
   1757e: ef f0 df ed  	jal	0x1745a <__sfp>
   17582: 2a 84        	mv	s0, a0
   17584: 3d c9        	beqz	a0, 0x175fa <_fopen_r+0x9c>
   17586: 32 46        	lw	a2, 0xc(sp)
   17588: 93 06 60 1b  	li	a3, 0x1b6
   1758c: ce 85        	mv	a1, s3
   1758e: 4a 85        	mv	a0, s2
   17590: ef 00 50 6c  	jal	0x18454 <_open_r>
   17594: 63 46 05 06  	bltz	a0, 0x17600 <_fopen_r+0xa2>
   17598: 93 97 04 03  	slli	a5, s1, 0x30
   1759c: 1b 15 05 01  	slliw	a0, a0, 0x10
   175a0: c1 93        	srli	a5, a5, 0x30
   175a2: c9 8f        	or	a5, a5, a0
   175a4: 1c c8        	sw	a5, 0x10(s0)
   175a6: e1 67        	lui	a5, 0x18
   175a8: 93 87 87 d2  	addi	a5, a5, -0x2d8
   175ac: 1c fc        	sd	a5, 0x38(s0)
   175ae: e1 67        	lui	a5, 0x18
   175b0: 93 87 47 d6  	addi	a5, a5, -0x29c
   175b4: 3c e0        	sd	a5, 0x40(s0)
   175b6: e1 67        	lui	a5, 0x18
   175b8: 93 87 87 db  	addi	a5, a5, -0x248
   175bc: 3c e4        	sd	a5, 0x48(s0)
   175be: e1 67        	lui	a5, 0x18
   175c0: 93 87 a7 e0  	addi	a5, a5, -0x1f6
   175c4: 00 f8        	sd	s0, 0x30(s0)
   175c6: 3c e8        	sd	a5, 0x50(s0)
   175c8: 93 f4 04 10  	andi	s1, s1, 0x100
   175cc: 89 e8        	bnez	s1, 0x175de <_fopen_r+0x80>
   175ce: a2 74        	ld	s1, 0x28(sp)
   175d0: e2 70        	ld	ra, 0x38(sp)
   175d2: 22 85        	mv	a0, s0
   175d4: 42 74        	ld	s0, 0x30(sp)
   175d6: 02 79        	ld	s2, 0x20(sp)
   175d8: e2 69        	ld	s3, 0x18(sp)
   175da: 21 61        	addi	sp, sp, 0x40
   175dc: 82 80        	ret
   175de: a2 85        	mv	a1, s0
   175e0: 4a 85        	mv	a0, s2
   175e2: 89 46        	li	a3, 0x2
   175e4: 01 46        	li	a2, 0x0
   175e6: ef 00 a0 24  	jal	0x17830 <_fseek_r>
   175ea: e2 70        	ld	ra, 0x38(sp)
   175ec: 22 85        	mv	a0, s0
   175ee: 42 74        	ld	s0, 0x30(sp)
   175f0: a2 74        	ld	s1, 0x28(sp)
   175f2: 02 79        	ld	s2, 0x20(sp)
   175f4: e2 69        	ld	s3, 0x18(sp)
   175f6: 21 61        	addi	sp, sp, 0x40
   175f8: 82 80        	ret
   175fa: a2 74        	ld	s1, 0x28(sp)
   175fc: 01 44        	li	s0, 0x0
   175fe: c9 bf        	j	0x175d0 <_fopen_r+0x72>
   17600: ef f0 ff f3  	jal	0x1753e <__sfp_lock_acquire>
   17604: 23 18 04 00  	sh	zero, 0x10(s0)
   17608: ef f0 9f f3  	jal	0x17540 <__sfp_lock_release>
   1760c: 01 44        	li	s0, 0x0
   1760e: a2 74        	ld	s1, 0x28(sp)
   17610: c1 b7        	j	0x175d0 <_fopen_r+0x72>

0000000000017612 <fopen>:
   17612: aa 87        	mv	a5, a0
   17614: 03 b5 01 23  	ld	a0, 0x230(gp)
   17618: 2e 86        	mv	a2, a1
   1761a: be 85        	mv	a1, a5
   1761c: 6f f0 3f f4  	j	0x1755e <_fopen_r>

0000000000017620 <_fprintf_r>:
   17620: 5d 71        	addi	sp, sp, -0x50
   17622: 13 03 81 02  	addi	t1, sp, 0x28
   17626: 36 f4        	sd	a3, 0x28(sp)
   17628: 9a 86        	mv	a3, t1
   1762a: 06 ec        	sd	ra, 0x18(sp)
   1762c: 3a f8        	sd	a4, 0x30(sp)
   1762e: 3e fc        	sd	a5, 0x38(sp)
   17630: c2 e0        	sd	a6, 0x40(sp)
   17632: c6 e4        	sd	a7, 0x48(sp)
   17634: 1a e4        	sd	t1, 0x8(sp)
   17636: ef 20 70 51  	jal	0x1a34c <_vfprintf_r>
   1763a: e2 60        	ld	ra, 0x18(sp)
   1763c: 61 61        	addi	sp, sp, 0x50
   1763e: 82 80        	ret

0000000000017640 <fprintf>:
   17640: 2a 8e        	mv	t3, a0
   17642: 5d 71        	addi	sp, sp, -0x50
   17644: 03 b5 01 23  	ld	a0, 0x230(gp)
   17648: 13 03 01 02  	addi	t1, sp, 0x20
   1764c: 32 f0        	sd	a2, 0x20(sp)
   1764e: 36 f4        	sd	a3, 0x28(sp)
   17650: 2e 86        	mv	a2, a1
   17652: 9a 86        	mv	a3, t1
   17654: f2 85        	mv	a1, t3
   17656: 06 ec        	sd	ra, 0x18(sp)
   17658: 3a f8        	sd	a4, 0x30(sp)
   1765a: 3e fc        	sd	a5, 0x38(sp)
   1765c: c2 e0        	sd	a6, 0x40(sp)
   1765e: c6 e4        	sd	a7, 0x48(sp)
   17660: 1a e4        	sd	t1, 0x8(sp)
   17662: ef 20 b0 4e  	jal	0x1a34c <_vfprintf_r>
   17666: e2 60        	ld	ra, 0x18(sp)
   17668: 61 61        	addi	sp, sp, 0x50
   1766a: 82 80        	ret

000000000001766c <_fread_r>:
   1766c: 1d 71        	addi	sp, sp, -0x60
   1766e: 5a f0        	sd	s6, 0x20(sp)
   17670: 33 8b c6 02  	mul	s6, a3, a2
   17674: 86 ec        	sd	ra, 0x58(sp)
   17676: 63 09 0b 0a  	beqz	s6, 0x17728 <_fread_r+0xbc>
   1767a: a2 e8        	sd	s0, 0x50(sp)
   1767c: ca e0        	sd	s2, 0x40(sp)
   1767e: 52 f8        	sd	s4, 0x30(sp)
   17680: 56 f4        	sd	s5, 0x28(sp)
   17682: 5e ec        	sd	s7, 0x18(sp)
   17684: a6 e4        	sd	s1, 0x48(sp)
   17686: 4e fc        	sd	s3, 0x38(sp)
   17688: b2 8a        	mv	s5, a2
   1768a: b6 8b        	mv	s7, a3
   1768c: 2a 8a        	mv	s4, a0
   1768e: 2e 89        	mv	s2, a1
   17690: 3a 84        	mv	s0, a4
   17692: 01 c5        	beqz	a0, 0x1769a <_fread_r+0x2e>
   17694: 3c 65        	ld	a5, 0x48(a0)
   17696: 63 8b 07 16  	beqz	a5, 0x1780c <_fread_r+0x1a0>
   1769a: 83 17 04 01  	lh	a5, 0x10(s0)
   1769e: 13 97 27 03  	slli	a4, a5, 0x32
   176a2: 63 41 07 02  	bltz	a4, 0x176c4 <_fread_r+0x58>
   176a6: 03 27 c4 0a  	lw	a4, 0xac(s0)
   176aa: 09 66        	lui	a2, 0x2
   176ac: f9 76        	lui	a3, 0xffffe
   176ae: d1 8f        	or	a5, a5, a2
   176b0: fd 16        	addi	a3, a3, -0x1
   176b2: 9b 97 07 01  	slliw	a5, a5, 0x10
   176b6: 9b d7 07 41  	sraiw	a5, a5, 0x10
   176ba: 75 8f        	and	a4, a4, a3
   176bc: 23 18 f4 00  	sh	a5, 0x10(s0)
   176c0: 23 26 e4 0a  	sw	a4, 0xac(s0)
   176c4: 04 44        	lw	s1, 0x8(s0)
   176c6: 26 86        	mv	a2, s1
   176c8: 63 c5 04 06  	bltz	s1, 0x17732 <_fread_r+0xc6>
   176cc: 89 8b        	andi	a5, a5, 0x2
   176ce: 0c 60        	ld	a1, 0x0(s0)
   176d0: da 89        	mv	s3, s6
   176d2: a5 eb        	bnez	a5, 0x17742 <_fread_r+0xd6>
   176d4: 62 e8        	sd	s8, 0x10(sp)
   176d6: 15 a0        	j	0x176fa <_fread_r+0x8e>
   176d8: ef 00 90 78  	jal	0x18660 <memcpy>
   176dc: 1c 60        	ld	a5, 0x0(s0)
   176de: a2 85        	mv	a1, s0
   176e0: 52 85        	mv	a0, s4
   176e2: a6 97        	add	a5, a5, s1
   176e4: 1c e0        	sd	a5, 0x0(s0)
   176e6: 26 99        	add	s2, s2, s1
   176e8: 33 8c 99 40  	sub	s8, s3, s1
   176ec: ef 00 80 45  	jal	0x17b44 <__srefill_r>
   176f0: 63 1a 05 0e  	bnez	a0, 0x177e4 <_fread_r+0x178>
   176f4: 04 44        	lw	s1, 0x8(s0)
   176f6: 0c 60        	ld	a1, 0x0(s0)
   176f8: e2 89        	mv	s3, s8
   176fa: 26 86        	mv	a2, s1
   176fc: 4a 85        	mv	a0, s2
   176fe: e3 ed 34 fd  	bltu	s1, s3, 0x176d8 <_fread_r+0x6c>
   17702: 4e 86        	mv	a2, s3
   17704: ef 00 d0 75  	jal	0x18660 <memcpy>
   17708: 18 44        	lw	a4, 0x8(s0)
   1770a: 1c 60        	ld	a5, 0x0(s0)
   1770c: 42 6c        	ld	s8, 0x10(sp)
   1770e: 3b 07 37 41  	subw	a4, a4, s3
   17712: ce 97        	add	a5, a5, s3
   17714: 18 c4        	sw	a4, 0x8(s0)
   17716: 1c e0        	sd	a5, 0x0(s0)
   17718: 5e 8b        	mv	s6, s7
   1771a: 46 64        	ld	s0, 0x50(sp)
   1771c: a6 64        	ld	s1, 0x48(sp)
   1771e: 06 69        	ld	s2, 0x40(sp)
   17720: e2 79        	ld	s3, 0x38(sp)
   17722: 42 7a        	ld	s4, 0x30(sp)
   17724: a2 7a        	ld	s5, 0x28(sp)
   17726: e2 6b        	ld	s7, 0x18(sp)
   17728: e6 60        	ld	ra, 0x58(sp)
   1772a: 5a 85        	mv	a0, s6
   1772c: 02 7b        	ld	s6, 0x20(sp)
   1772e: 25 61        	addi	sp, sp, 0x60
   17730: 82 80        	ret
   17732: 23 24 04 00  	sw	zero, 0x8(s0)
   17736: 89 8b        	andi	a5, a5, 0x2
   17738: 0c 60        	ld	a1, 0x0(s0)
   1773a: 01 46        	li	a2, 0x0
   1773c: 81 44        	li	s1, 0x0
   1773e: da 89        	mv	s3, s6
   17740: d1 db        	beqz	a5, 0x176d4 <_fread_r+0x68>
   17742: b2 84        	mv	s1, a2
   17744: 63 62 cb 0c  	bltu	s6, a2, 0x17808 <_fread_r+0x19c>
   17748: 26 86        	mv	a2, s1
   1774a: 4a 85        	mv	a0, s2
   1774c: ef 00 50 71  	jal	0x18660 <memcpy>
   17750: 18 60        	ld	a4, 0x0(s0)
   17752: 1c 44        	lw	a5, 0x8(s0)
   17754: 2c 6c        	ld	a1, 0x58(s0)
   17756: 26 97        	add	a4, a4, s1
   17758: 85 9f        	subw	a5, a5, s1
   1775a: 18 e0        	sd	a4, 0x0(s0)
   1775c: 1c c4        	sw	a5, 0x8(s0)
   1775e: b3 09 9b 40  	sub	s3, s6, s1
   17762: c5 c9        	beqz	a1, 0x17812 <_fread_r+0x1a6>
   17764: e3 8a 09 fa  	beqz	s3, 0x17718 <_fread_r+0xac>
   17768: 62 e8        	sd	s8, 0x10(sp)
   1776a: 66 e4        	sd	s9, 0x8(sp)
   1776c: 93 07 44 07  	addi	a5, s0, 0x74
   17770: 63 85 f5 00  	beq	a1, a5, 0x1777a <_fread_r+0x10e>
   17774: 52 85        	mv	a0, s4
   17776: ef 10 60 37  	jal	0x18aec <_free_r>
   1777a: 23 3c 04 04  	sd	zero, 0x58(s0)
   1777e: ca 94        	add	s1, s1, s2
   17780: 11 a0        	j	0x17784 <_fread_r+0x118>
   17782: ba 89        	mv	s3, a4
   17784: a2 85        	mv	a1, s0
   17786: 52 85        	mv	a0, s4
   17788: 63 88 09 08  	beqz	s3, 0x17818 <_fread_r+0x1ac>
   1778c: 83 3c 84 01  	ld	s9, 0x18(s0)
   17790: 03 39 04 00  	ld	s2, 0x0(s0)
   17794: 03 2c 04 02  	lw	s8, 0x20(s0)
   17798: 04 ec        	sd	s1, 0x18(s0)
   1779a: 04 e0        	sd	s1, 0x0(s0)
   1779c: 23 20 34 03  	sw	s3, 0x20(s0)
   177a0: ef 00 40 3a  	jal	0x17b44 <__srefill_r>
   177a4: 1c 44        	lw	a5, 0x8(s0)
   177a6: 23 3c 94 01  	sd	s9, 0x18(s0)
   177aa: 23 20 84 03  	sw	s8, 0x20(s0)
   177ae: 23 30 24 01  	sd	s2, 0x0(s0)
   177b2: 23 24 04 00  	sw	zero, 0x8(s0)
   177b6: 33 87 f9 40  	sub	a4, s3, a5
   177ba: be 94        	add	s1, s1, a5
   177bc: 79 d1        	beqz	a0, 0x17782 <_fread_r+0x116>
   177be: da 97        	add	a5, a5, s6
   177c0: b3 87 37 41  	sub	a5, a5, s3
   177c4: 33 db 57 03  	divu	s6, a5, s5
   177c8: 46 64        	ld	s0, 0x50(sp)
   177ca: e6 60        	ld	ra, 0x58(sp)
   177cc: a6 64        	ld	s1, 0x48(sp)
   177ce: 06 69        	ld	s2, 0x40(sp)
   177d0: e2 79        	ld	s3, 0x38(sp)
   177d2: 42 7a        	ld	s4, 0x30(sp)
   177d4: a2 7a        	ld	s5, 0x28(sp)
   177d6: e2 6b        	ld	s7, 0x18(sp)
   177d8: 42 6c        	ld	s8, 0x10(sp)
   177da: a2 6c        	ld	s9, 0x8(sp)
   177dc: 5a 85        	mv	a0, s6
   177de: 02 7b        	ld	s6, 0x20(sp)
   177e0: 25 61        	addi	sp, sp, 0x60
   177e2: 82 80        	ret
   177e4: da 94        	add	s1, s1, s6
   177e6: b3 84 34 41  	sub	s1, s1, s3
   177ea: 33 db 54 03  	divu	s6, s1, s5
   177ee: 46 64        	ld	s0, 0x50(sp)
   177f0: e6 60        	ld	ra, 0x58(sp)
   177f2: a6 64        	ld	s1, 0x48(sp)
   177f4: 06 69        	ld	s2, 0x40(sp)
   177f6: e2 79        	ld	s3, 0x38(sp)
   177f8: 42 7a        	ld	s4, 0x30(sp)
   177fa: a2 7a        	ld	s5, 0x28(sp)
   177fc: e2 6b        	ld	s7, 0x18(sp)
   177fe: 42 6c        	ld	s8, 0x10(sp)
   17800: 5a 85        	mv	a0, s6
   17802: 02 7b        	ld	s6, 0x20(sp)
   17804: 25 61        	addi	sp, sp, 0x60
   17806: 82 80        	ret
   17808: da 84        	mv	s1, s6
   1780a: 3d bf        	j	0x17748 <_fread_r+0xdc>
   1780c: ef f0 bf d1  	jal	0x17526 <__sinit>
   17810: 69 b5        	j	0x1769a <_fread_r+0x2e>
   17812: 62 e8        	sd	s8, 0x10(sp)
   17814: 66 e4        	sd	s9, 0x8(sp)
   17816: a5 b7        	j	0x1777e <_fread_r+0x112>
   17818: 42 6c        	ld	s8, 0x10(sp)
   1781a: a2 6c        	ld	s9, 0x8(sp)
   1781c: f5 bd        	j	0x17718 <_fread_r+0xac>

000000000001781e <fread>:
   1781e: aa 87        	mv	a5, a0
   17820: 03 b5 01 23  	ld	a0, 0x230(gp)
   17824: 36 87        	mv	a4, a3
   17826: b2 86        	mv	a3, a2
   17828: 2e 86        	mv	a2, a1
   1782a: be 85        	mv	a1, a5
   1782c: 6f f0 1f e4  	j	0x1766c <_fread_r>

0000000000017830 <_fseek_r>:
   17830: c5 a3        	j	0x17e10 <_fseeko_r>

0000000000017832 <fseek>:
   17832: aa 87        	mv	a5, a0
   17834: 03 b5 01 23  	ld	a0, 0x230(gp)
   17838: b2 86        	mv	a3, a2
   1783a: 2e 86        	mv	a2, a1
   1783c: be 85        	mv	a1, a5
   1783e: c9 ab        	j	0x17e10 <_fseeko_r>

0000000000017840 <_fwalk_sglue>:
   17840: 5d 71        	addi	sp, sp, -0x50
   17842: 4a f8        	sd	s2, 0x30(sp)
   17844: 4e f4        	sd	s3, 0x28(sp)
   17846: 52 f0        	sd	s4, 0x20(sp)
   17848: 56 ec        	sd	s5, 0x18(sp)
   1784a: 5a e8        	sd	s6, 0x10(sp)
   1784c: 5e e4        	sd	s7, 0x8(sp)
   1784e: 62 e0        	sd	s8, 0x0(sp)
   17850: 86 e4        	sd	ra, 0x48(sp)
   17852: a2 e0        	sd	s0, 0x40(sp)
   17854: 26 fc        	sd	s1, 0x38(sp)
   17856: 2a 8a        	mv	s4, a0
   17858: 2e 8b        	mv	s6, a1
   1785a: b2 89        	mv	s3, a2
   1785c: 01 49        	li	s2, 0x0
   1785e: 93 0b 00 0b  	li	s7, 0xb0
   17862: 05 4c        	li	s8, 0x1
   17864: fd 5a        	li	s5, -0x1
   17866: 83 a4 89 00  	lw	s1, 0x8(s3)
   1786a: 03 b4 09 01  	ld	s0, 0x10(s3)
   1786e: 63 59 90 02  	blez	s1, 0x178a0 <_fwalk_sglue+0x60>
   17872: 82 14        	slli	s1, s1, 0x20
   17874: 81 90        	srli	s1, s1, 0x20
   17876: b3 84 74 03  	mul	s1, s1, s7
   1787a: a2 94        	add	s1, s1, s0
   1787c: 83 57 04 01  	lhu	a5, 0x10(s0)
   17880: 63 7c fc 00  	bgeu	s8, a5, 0x17898 <_fwalk_sglue+0x58>
   17884: 83 17 24 01  	lh	a5, 0x12(s0)
   17888: a2 85        	mv	a1, s0
   1788a: 52 85        	mv	a0, s4
   1788c: 63 86 57 01  	beq	a5, s5, 0x17898 <_fwalk_sglue+0x58>
   17890: 02 9b        	jalr	s6
   17892: 33 69 25 01  	or	s2, a0, s2
   17896: 01 29        	sext.w	s2, s2
   17898: 13 04 04 0b  	addi	s0, s0, 0xb0
   1789c: e3 10 94 fe  	bne	s0, s1, 0x1787c <_fwalk_sglue+0x3c>
   178a0: 83 b9 09 00  	ld	s3, 0x0(s3)
   178a4: e3 91 09 fc  	bnez	s3, 0x17866 <_fwalk_sglue+0x26>
   178a8: a6 60        	ld	ra, 0x48(sp)
   178aa: 06 64        	ld	s0, 0x40(sp)
   178ac: e2 74        	ld	s1, 0x38(sp)
   178ae: a2 79        	ld	s3, 0x28(sp)
   178b0: 02 7a        	ld	s4, 0x20(sp)
   178b2: e2 6a        	ld	s5, 0x18(sp)
   178b4: 42 6b        	ld	s6, 0x10(sp)
   178b6: a2 6b        	ld	s7, 0x8(sp)
   178b8: 02 6c        	ld	s8, 0x0(sp)
   178ba: 4a 85        	mv	a0, s2
   178bc: 42 79        	ld	s2, 0x30(sp)
   178be: 61 61        	addi	sp, sp, 0x50
   178c0: 82 80        	ret

00000000000178c2 <_fwrite_r>:
   178c2: 59 71        	addi	sp, sp, -0x70
   178c4: ca e8        	sd	s2, 0x50(sp)
   178c6: 33 89 c6 02  	mul	s2, a3, a2
   178ca: 3c 08        	addi	a5, sp, 0x18
   178cc: 3e f4        	sd	a5, 0x28(sp)
   178ce: 85 47        	li	a5, 0x1
   178d0: a2 f0        	sd	s0, 0x60(sp)
   178d2: a6 ec        	sd	s1, 0x58(sp)
   178d4: ce e4        	sd	s3, 0x48(sp)
   178d6: 2e ec        	sd	a1, 0x18(sp)
   178d8: 86 f4        	sd	ra, 0x68(sp)
   178da: 3e d8        	sw	a5, 0x30(sp)
   178dc: 4a f0        	sd	s2, 0x20(sp)
   178de: 4a fc        	sd	s2, 0x38(sp)
   178e0: b2 89        	mv	s3, a2
   178e2: 36 84        	mv	s0, a3
   178e4: aa 84        	mv	s1, a0
   178e6: ba 85        	mv	a1, a4
   178e8: 19 c1        	beqz	a0, 0x178ee <_fwrite_r+0x2c>
   178ea: 3c 65        	ld	a5, 0x48(a0)
   178ec: a1 c7        	beqz	a5, 0x17934 <_fwrite_r+0x72>
   178ee: 83 97 05 01  	lh	a5, 0x10(a1)
   178f2: 13 97 27 03  	slli	a4, a5, 0x32
   178f6: 63 4d 07 00  	bltz	a4, 0x17910 <_fwrite_r+0x4e>
   178fa: 03 a7 c5 0a  	lw	a4, 0xac(a1)
   178fe: f9 76        	lui	a3, 0xffffe
   17900: fd 16        	addi	a3, a3, -0x1
   17902: 09 66        	lui	a2, 0x2
   17904: d1 8f        	or	a5, a5, a2
   17906: 75 8f        	and	a4, a4, a3
   17908: 23 98 f5 00  	sh	a5, 0x10(a1)
   1790c: 23 a6 e5 0a  	sw	a4, 0xac(a1)
   17910: 30 10        	addi	a2, sp, 0x28
   17912: 26 85        	mv	a0, s1
   17914: ef 50 40 52  	jal	0x1ce38 <__sfvwrite_r>
   17918: 11 c5        	beqz	a0, 0x17924 <_fwrite_r+0x62>
   1791a: e2 77        	ld	a5, 0x38(sp)
   1791c: 33 09 f9 40  	sub	s2, s2, a5
   17920: 33 54 39 03  	divu	s0, s2, s3
   17924: a6 70        	ld	ra, 0x68(sp)
   17926: 22 85        	mv	a0, s0
   17928: 06 74        	ld	s0, 0x60(sp)
   1792a: e6 64        	ld	s1, 0x58(sp)
   1792c: 46 69        	ld	s2, 0x50(sp)
   1792e: a6 69        	ld	s3, 0x48(sp)
   17930: 65 61        	addi	sp, sp, 0x70
   17932: 82 80        	ret
   17934: 3a e4        	sd	a4, 0x8(sp)
   17936: ef f0 1f bf  	jal	0x17526 <__sinit>
   1793a: a2 65        	ld	a1, 0x8(sp)
   1793c: 4d bf        	j	0x178ee <_fwrite_r+0x2c>

000000000001793e <fwrite>:
   1793e: 59 71        	addi	sp, sp, -0x70
   17940: a6 ec        	sd	s1, 0x58(sp)
   17942: b3 84 c5 02  	mul	s1, a1, a2
   17946: ce e4        	sd	s3, 0x48(sp)
   17948: 83 b9 01 23  	ld	s3, 0x230(gp)
   1794c: 3c 08        	addi	a5, sp, 0x18
   1794e: 3e f4        	sd	a5, 0x28(sp)
   17950: 85 47        	li	a5, 0x1
   17952: a2 f0        	sd	s0, 0x60(sp)
   17954: ca e8        	sd	s2, 0x50(sp)
   17956: 86 f4        	sd	ra, 0x68(sp)
   17958: 2a ec        	sd	a0, 0x18(sp)
   1795a: 3e d8        	sw	a5, 0x30(sp)
   1795c: 26 f0        	sd	s1, 0x20(sp)
   1795e: 26 fc        	sd	s1, 0x38(sp)
   17960: 2e 89        	mv	s2, a1
   17962: 32 84        	mv	s0, a2
   17964: b6 85        	mv	a1, a3
   17966: 63 85 09 00  	beqz	s3, 0x17970 <fwrite+0x32>
   1796a: 83 b7 89 04  	ld	a5, 0x48(s3)
   1796e: b9 c3        	beqz	a5, 0x179b4 <fwrite+0x76>
   17970: 83 97 05 01  	lh	a5, 0x10(a1)
   17974: 13 97 27 03  	slli	a4, a5, 0x32
   17978: 63 4d 07 00  	bltz	a4, 0x17992 <fwrite+0x54>
   1797c: 03 a7 c5 0a  	lw	a4, 0xac(a1)
   17980: f9 76        	lui	a3, 0xffffe
   17982: fd 16        	addi	a3, a3, -0x1
   17984: 09 66        	lui	a2, 0x2
   17986: d1 8f        	or	a5, a5, a2
   17988: 75 8f        	and	a4, a4, a3
   1798a: 23 98 f5 00  	sh	a5, 0x10(a1)
   1798e: 23 a6 e5 0a  	sw	a4, 0xac(a1)
   17992: 30 10        	addi	a2, sp, 0x28
   17994: 4e 85        	mv	a0, s3
   17996: ef 50 20 4a  	jal	0x1ce38 <__sfvwrite_r>
   1799a: 09 c5        	beqz	a0, 0x179a4 <fwrite+0x66>
   1799c: e2 77        	ld	a5, 0x38(sp)
   1799e: 9d 8c        	sub	s1, s1, a5
   179a0: 33 d4 24 03  	divu	s0, s1, s2
   179a4: a6 70        	ld	ra, 0x68(sp)
   179a6: 22 85        	mv	a0, s0
   179a8: 06 74        	ld	s0, 0x60(sp)
   179aa: e6 64        	ld	s1, 0x58(sp)
   179ac: 46 69        	ld	s2, 0x50(sp)
   179ae: a6 69        	ld	s3, 0x48(sp)
   179b0: 65 61        	addi	sp, sp, 0x70
   179b2: 82 80        	ret
   179b4: 4e 85        	mv	a0, s3
   179b6: 36 e4        	sd	a3, 0x8(sp)
   179b8: ef f0 ff b6  	jal	0x17526 <__sinit>
   179bc: a2 65        	ld	a1, 0x8(sp)
   179be: 4d bf        	j	0x17970 <fwrite+0x32>

00000000000179c0 <_getc_r>:
   179c0: 01 11        	addi	sp, sp, -0x20
   179c2: 22 e8        	sd	s0, 0x10(sp)
   179c4: 06 ec        	sd	ra, 0x18(sp)
   179c6: 2a 84        	mv	s0, a0
   179c8: 19 c1        	beqz	a0, 0x179ce <_getc_r+0xe>
   179ca: 3c 65        	ld	a5, 0x48(a0)
   179cc: 9d c7        	beqz	a5, 0x179fa <_getc_r+0x3a>
   179ce: 9c 45        	lw	a5, 0x8(a1)
   179d0: fd 37        	addiw	a5, a5, -0x1
   179d2: 9c c5        	sw	a5, 0x8(a1)
   179d4: 13 97 07 02  	slli	a4, a5, 0x20
   179d8: 63 4c 07 00  	bltz	a4, 0x179f0 <_getc_r+0x30>
   179dc: 9c 61        	ld	a5, 0x0(a1)
   179de: e2 60        	ld	ra, 0x18(sp)
   179e0: 42 64        	ld	s0, 0x10(sp)
   179e2: 13 87 17 00  	addi	a4, a5, 0x1
   179e6: 98 e1        	sd	a4, 0x0(a1)
   179e8: 03 c5 07 00  	lbu	a0, 0x0(a5)
   179ec: 05 61        	addi	sp, sp, 0x20
   179ee: 82 80        	ret
   179f0: 22 85        	mv	a0, s0
   179f2: 42 64        	ld	s0, 0x10(sp)
   179f4: e2 60        	ld	ra, 0x18(sp)
   179f6: 05 61        	addi	sp, sp, 0x20
   179f8: 65 a4        	j	0x17ca0 <__srget_r>
   179fa: 2e e4        	sd	a1, 0x8(sp)
   179fc: ef f0 bf b2  	jal	0x17526 <__sinit>
   17a00: a2 65        	ld	a1, 0x8(sp)
   17a02: f1 b7        	j	0x179ce <_getc_r+0xe>

0000000000017a04 <getc>:
   17a04: 01 11        	addi	sp, sp, -0x20
   17a06: 26 e4        	sd	s1, 0x8(sp)
   17a08: 83 b4 01 23  	ld	s1, 0x230(gp)
   17a0c: 22 e8        	sd	s0, 0x10(sp)
   17a0e: 06 ec        	sd	ra, 0x18(sp)
   17a10: 2a 84        	mv	s0, a0
   17a12: 99 c0        	beqz	s1, 0x17a18 <getc+0x14>
   17a14: bc 64        	ld	a5, 0x48(s1)
   17a16: 95 cb        	beqz	a5, 0x17a4a <getc+0x46>
   17a18: 1c 44        	lw	a5, 0x8(s0)
   17a1a: fd 37        	addiw	a5, a5, -0x1
   17a1c: 1c c4        	sw	a5, 0x8(s0)
   17a1e: 13 97 07 02  	slli	a4, a5, 0x20
   17a22: 63 4d 07 00  	bltz	a4, 0x17a3c <getc+0x38>
   17a26: 1c 60        	ld	a5, 0x0(s0)
   17a28: e2 60        	ld	ra, 0x18(sp)
   17a2a: a2 64        	ld	s1, 0x8(sp)
   17a2c: 13 87 17 00  	addi	a4, a5, 0x1
   17a30: 18 e0        	sd	a4, 0x0(s0)
   17a32: 42 64        	ld	s0, 0x10(sp)
   17a34: 03 c5 07 00  	lbu	a0, 0x0(a5)
   17a38: 05 61        	addi	sp, sp, 0x20
   17a3a: 82 80        	ret
   17a3c: a2 85        	mv	a1, s0
   17a3e: 42 64        	ld	s0, 0x10(sp)
   17a40: e2 60        	ld	ra, 0x18(sp)
   17a42: 26 85        	mv	a0, s1
   17a44: a2 64        	ld	s1, 0x8(sp)
   17a46: 05 61        	addi	sp, sp, 0x20
   17a48: a1 ac        	j	0x17ca0 <__srget_r>
   17a4a: 26 85        	mv	a0, s1
   17a4c: ef f0 bf ad  	jal	0x17526 <__sinit>
   17a50: e1 b7        	j	0x17a18 <getc+0x14>

0000000000017a52 <_printf_r>:
   17a52: 5d 71        	addi	sp, sp, -0x50
   17a54: 32 f0        	sd	a2, 0x20(sp)
   17a56: 36 f4        	sd	a3, 0x28(sp)
   17a58: 3a f8        	sd	a4, 0x30(sp)
   17a5a: 3e fc        	sd	a5, 0x38(sp)
   17a5c: c2 e0        	sd	a6, 0x40(sp)
   17a5e: c6 e4        	sd	a7, 0x48(sp)
   17a60: 2e 86        	mv	a2, a1
   17a62: 0c 69        	ld	a1, 0x10(a0)
   17a64: 14 10        	addi	a3, sp, 0x20
   17a66: 06 ec        	sd	ra, 0x18(sp)
   17a68: 36 e4        	sd	a3, 0x8(sp)
   17a6a: ef 20 30 0e  	jal	0x1a34c <_vfprintf_r>
   17a6e: e2 60        	ld	ra, 0x18(sp)
   17a70: 61 61        	addi	sp, sp, 0x50
   17a72: 82 80        	ret

0000000000017a74 <printf>:
   17a74: 03 b3 01 23  	ld	t1, 0x230(gp)
   17a78: 1d 71        	addi	sp, sp, -0x60
   17a7a: 32 f8        	sd	a2, 0x30(sp)
   17a7c: 36 fc        	sd	a3, 0x38(sp)
   17a7e: 2e f4        	sd	a1, 0x28(sp)
   17a80: ba e0        	sd	a4, 0x40(sp)
   17a82: be e4        	sd	a5, 0x48(sp)
   17a84: c2 e8        	sd	a6, 0x50(sp)
   17a86: c6 ec        	sd	a7, 0x58(sp)
   17a88: 83 35 03 01  	ld	a1, 0x10(t1)
   17a8c: 34 10        	addi	a3, sp, 0x28
   17a8e: 2a 86        	mv	a2, a0
   17a90: 1a 85        	mv	a0, t1
   17a92: 06 ec        	sd	ra, 0x18(sp)
   17a94: 36 e4        	sd	a3, 0x8(sp)
   17a96: ef 20 70 0b  	jal	0x1a34c <_vfprintf_r>
   17a9a: e2 60        	ld	ra, 0x18(sp)
   17a9c: 25 61        	addi	sp, sp, 0x60
   17a9e: 82 80        	ret

0000000000017aa0 <_puts_r>:
   17aa0: 59 71        	addi	sp, sp, -0x70
   17aa2: a2 f0        	sd	s0, 0x60(sp)
   17aa4: 2a 84        	mv	s0, a0
   17aa6: 2e 85        	mv	a0, a1
   17aa8: a6 ec        	sd	s1, 0x58(sp)
   17aaa: 86 f4        	sd	ra, 0x68(sp)
   17aac: ae 84        	mv	s1, a1
   17aae: ef 00 90 4f  	jal	0x187a6 <strlen>
   17ab2: b7 17 02 00  	lui	a5, 0x21
   17ab6: 93 87 87 31  	addi	a5, a5, 0x318
   17aba: be e0        	sd	a5, 0x40(sp)
   17abc: 85 47        	li	a5, 0x1
   17abe: be e4        	sd	a5, 0x48(sp)
   17ac0: 38 64        	ld	a4, 0x48(s0)
   17ac2: 1c 18        	addi	a5, sp, 0x30
   17ac4: 93 06 15 00  	addi	a3, a0, 0x1
   17ac8: 3e ec        	sd	a5, 0x18(sp)
   17aca: 89 47        	li	a5, 0x2
   17acc: 26 f8        	sd	s1, 0x30(sp)
   17ace: 2a fc        	sd	a0, 0x38(sp)
   17ad0: 36 f4        	sd	a3, 0x28(sp)
   17ad2: 3e d0        	sw	a5, 0x20(sp)
   17ad4: 0c 68        	ld	a1, 0x10(s0)
   17ad6: 15 cf        	beqz	a4, 0x17b12 <_puts_r+0x72>
   17ad8: 83 97 05 01  	lh	a5, 0x10(a1)
   17adc: 13 97 27 03  	slli	a4, a5, 0x32
   17ae0: 63 4d 07 00  	bltz	a4, 0x17afa <_puts_r+0x5a>
   17ae4: 03 a7 c5 0a  	lw	a4, 0xac(a1)
   17ae8: f9 76        	lui	a3, 0xffffe
   17aea: fd 16        	addi	a3, a3, -0x1
   17aec: 09 66        	lui	a2, 0x2
   17aee: d1 8f        	or	a5, a5, a2
   17af0: 75 8f        	and	a4, a4, a3
   17af2: 23 98 f5 00  	sh	a5, 0x10(a1)
   17af6: 23 a6 e5 0a  	sw	a4, 0xac(a1)
   17afa: 30 08        	addi	a2, sp, 0x18
   17afc: 22 85        	mv	a0, s0
   17afe: ef 50 a0 33  	jal	0x1ce38 <__sfvwrite_r>
   17b02: a9 47        	li	a5, 0xa
   17b04: 09 ed        	bnez	a0, 0x17b1e <_puts_r+0x7e>
   17b06: a6 70        	ld	ra, 0x68(sp)
   17b08: 06 74        	ld	s0, 0x60(sp)
   17b0a: e6 64        	ld	s1, 0x58(sp)
   17b0c: 3e 85        	mv	a0, a5
   17b0e: 65 61        	addi	sp, sp, 0x70
   17b10: 82 80        	ret
   17b12: 22 85        	mv	a0, s0
   17b14: 2e e4        	sd	a1, 0x8(sp)
   17b16: ef f0 1f a1  	jal	0x17526 <__sinit>
   17b1a: a2 65        	ld	a1, 0x8(sp)
   17b1c: 75 bf        	j	0x17ad8 <_puts_r+0x38>
   17b1e: fd 57        	li	a5, -0x1
   17b20: dd b7        	j	0x17b06 <_puts_r+0x66>

0000000000017b22 <puts>:
   17b22: aa 85        	mv	a1, a0
   17b24: 03 b5 01 23  	ld	a0, 0x230(gp)
   17b28: 6f f0 9f f7  	j	0x17aa0 <_puts_r>

0000000000017b2c <lflush>:
   17b2c: 83 d7 05 01  	lhu	a5, 0x10(a1)
   17b30: 25 47        	li	a4, 0x9
   17b32: a5 8b        	andi	a5, a5, 0x9
   17b34: 63 84 e7 00  	beq	a5, a4, 0x17b3c <lflush+0x10>
   17b38: 01 45        	li	a0, 0x0
   17b3a: 82 80        	ret
   17b3c: 03 b5 01 23  	ld	a0, 0x230(gp)
   17b40: 6f f0 6f dc  	j	0x17106 <_fflush_r>

0000000000017b44 <__srefill_r>:
   17b44: 01 11        	addi	sp, sp, -0x20
   17b46: 22 e8        	sd	s0, 0x10(sp)
   17b48: 26 e4        	sd	s1, 0x8(sp)
   17b4a: 06 ec        	sd	ra, 0x18(sp)
   17b4c: aa 84        	mv	s1, a0
   17b4e: 2e 84        	mv	s0, a1
   17b50: 01 c5        	beqz	a0, 0x17b58 <__srefill_r+0x14>
   17b52: 3c 65        	ld	a5, 0x48(a0)
   17b54: 63 88 07 10  	beqz	a5, 0x17c64 <__srefill_r+0x120>
   17b58: 83 17 04 01  	lh	a5, 0x10(s0)
   17b5c: 13 97 27 03  	slli	a4, a5, 0x32
   17b60: 63 41 07 02  	bltz	a4, 0x17b82 <__srefill_r+0x3e>
   17b64: 03 27 c4 0a  	lw	a4, 0xac(s0)
   17b68: 09 66        	lui	a2, 0x2
   17b6a: f9 76        	lui	a3, 0xffffe
   17b6c: d1 8f        	or	a5, a5, a2
   17b6e: fd 16        	addi	a3, a3, -0x1
   17b70: 9b 97 07 01  	slliw	a5, a5, 0x10
   17b74: 9b d7 07 41  	sraiw	a5, a5, 0x10
   17b78: 75 8f        	and	a4, a4, a3
   17b7a: 23 18 f4 00  	sh	a5, 0x10(s0)
   17b7e: 23 26 e4 0a  	sw	a4, 0xac(s0)
   17b82: 23 24 04 00  	sw	zero, 0x8(s0)
   17b86: 13 f7 07 02  	andi	a4, a5, 0x20
   17b8a: 63 18 07 0e  	bnez	a4, 0x17c7a <__srefill_r+0x136>
   17b8e: 13 f7 47 00  	andi	a4, a5, 0x4
   17b92: 31 e7        	bnez	a4, 0x17bde <__srefill_r+0x9a>
   17b94: 13 f7 07 01  	andi	a4, a5, 0x10
   17b98: 63 03 07 0e  	beqz	a4, 0x17c7e <__srefill_r+0x13a>
   17b9c: 13 f7 87 00  	andi	a4, a5, 0x8
   17ba0: 45 e7        	bnez	a4, 0x17c48 <__srefill_r+0x104>
   17ba2: 4a e0        	sd	s2, 0x0(sp)
   17ba4: 93 e7 47 00  	ori	a5, a5, 0x4
   17ba8: 23 18 f4 00  	sh	a5, 0x10(s0)
   17bac: 1c 6c        	ld	a5, 0x18(s0)
   17bae: a9 cb        	beqz	a5, 0x17c00 <__srefill_r+0xbc>
   17bb0: 03 19 04 01  	lh	s2, 0x10(s0)
   17bb4: 93 77 39 00  	andi	a5, s2, 0x3
   17bb8: a9 ef        	bnez	a5, 0x17c12 <__srefill_r+0xce>
   17bba: 10 6c        	ld	a2, 0x18(s0)
   17bbc: 1c 7c        	ld	a5, 0x38(s0)
   17bbe: 14 50        	lw	a3, 0x20(s0)
   17bc0: 0c 78        	ld	a1, 0x30(s0)
   17bc2: 10 e0        	sd	a2, 0x0(s0)
   17bc4: 26 85        	mv	a0, s1
   17bc6: 82 97        	jalr	a5
   17bc8: 01 25        	sext.w	a0, a0
   17bca: 08 c4        	sw	a0, 0x8(s0)
   17bcc: 63 5f a0 08  	blez	a0, 0x17c6a <__srefill_r+0x126>
   17bd0: 02 69        	ld	s2, 0x0(sp)
   17bd2: 01 45        	li	a0, 0x0
   17bd4: e2 60        	ld	ra, 0x18(sp)
   17bd6: 42 64        	ld	s0, 0x10(sp)
   17bd8: a2 64        	ld	s1, 0x8(sp)
   17bda: 05 61        	addi	sp, sp, 0x20
   17bdc: 82 80        	ret
   17bde: 2c 6c        	ld	a1, 0x58(s0)
   17be0: 89 cd        	beqz	a1, 0x17bfa <__srefill_r+0xb6>
   17be2: 93 07 44 07  	addi	a5, s0, 0x74
   17be6: 63 85 f5 00  	beq	a1, a5, 0x17bf0 <__srefill_r+0xac>
   17bea: 26 85        	mv	a0, s1
   17bec: ef 00 10 70  	jal	0x18aec <_free_r>
   17bf0: 3c 58        	lw	a5, 0x70(s0)
   17bf2: 23 3c 04 04  	sd	zero, 0x58(s0)
   17bf6: 1c c4        	sw	a5, 0x8(s0)
   17bf8: a9 e7        	bnez	a5, 0x17c42 <__srefill_r+0xfe>
   17bfa: 1c 6c        	ld	a5, 0x18(s0)
   17bfc: 4a e0        	sd	s2, 0x0(sp)
   17bfe: cd fb        	bnez	a5, 0x17bb0 <__srefill_r+0x6c>
   17c00: a2 85        	mv	a1, s0
   17c02: 26 85        	mv	a0, s1
   17c04: ef 50 60 59  	jal	0x1d19a <__smakebuf_r>
   17c08: 03 19 04 01  	lh	s2, 0x10(s0)
   17c0c: 93 77 39 00  	andi	a5, s2, 0x3
   17c10: cd d7        	beqz	a5, 0x17bba <__srefill_r+0x76>
   17c12: 85 47        	li	a5, 0x1
   17c14: e1 65        	lui	a1, 0x18
   17c16: 23 18 f4 00  	sh	a5, 0x10(s0)
   17c1a: 13 86 81 d6  	addi	a2, gp, -0x298
   17c1e: 93 85 c5 b2  	addi	a1, a1, -0x4d4
   17c22: 13 85 81 f2  	addi	a0, gp, -0xd8
   17c26: ef f0 bf c1  	jal	0x17840 <_fwalk_sglue>
   17c2a: a5 47        	li	a5, 0x9
   17c2c: 23 18 24 01  	sh	s2, 0x10(s0)
   17c30: 13 79 99 00  	andi	s2, s2, 0x9
   17c34: e3 13 f9 f8  	bne	s2, a5, 0x17bba <__srefill_r+0x76>
   17c38: a2 85        	mv	a1, s0
   17c3a: 26 85        	mv	a0, s1
   17c3c: ef f0 2f b3  	jal	0x16f6e <__sflush_r>
   17c40: ad bf        	j	0x17bba <__srefill_r+0x76>
   17c42: 3c 74        	ld	a5, 0x68(s0)
   17c44: 1c e0        	sd	a5, 0x0(s0)
   17c46: 71 b7        	j	0x17bd2 <__srefill_r+0x8e>
   17c48: a2 85        	mv	a1, s0
   17c4a: 26 85        	mv	a0, s1
   17c4c: ef f0 af cb  	jal	0x17106 <_fflush_r>
   17c50: 0d e5        	bnez	a0, 0x17c7a <__srefill_r+0x136>
   17c52: 83 17 04 01  	lh	a5, 0x10(s0)
   17c56: 4a e0        	sd	s2, 0x0(sp)
   17c58: 23 26 04 00  	sw	zero, 0xc(s0)
   17c5c: 23 24 04 02  	sw	zero, 0x28(s0)
   17c60: dd 9b        	andi	a5, a5, -0x9
   17c62: 89 b7        	j	0x17ba4 <__srefill_r+0x60>
   17c64: ef f0 3f 8c  	jal	0x17526 <__sinit>
   17c68: c5 bd        	j	0x17b58 <__srefill_r+0x14>
   17c6a: 83 17 04 01  	lh	a5, 0x10(s0)
   17c6e: 05 e1        	bnez	a0, 0x17c8e <__srefill_r+0x14a>
   17c70: 02 69        	ld	s2, 0x0(sp)
   17c72: 93 e7 07 02  	ori	a5, a5, 0x20
   17c76: 23 18 f4 00  	sh	a5, 0x10(s0)
   17c7a: 7d 55        	li	a0, -0x1
   17c7c: a1 bf        	j	0x17bd4 <__srefill_r+0x90>
   17c7e: 25 47        	li	a4, 0x9
   17c80: 98 c0        	sw	a4, 0x0(s1)
   17c82: 93 e7 07 04  	ori	a5, a5, 0x40
   17c86: 23 18 f4 00  	sh	a5, 0x10(s0)
   17c8a: 7d 55        	li	a0, -0x1
   17c8c: a1 b7        	j	0x17bd4 <__srefill_r+0x90>
   17c8e: 93 e7 07 04  	ori	a5, a5, 0x40
   17c92: 02 69        	ld	s2, 0x0(sp)
   17c94: 23 24 04 00  	sw	zero, 0x8(s0)
   17c98: 23 18 f4 00  	sh	a5, 0x10(s0)
   17c9c: 7d 55        	li	a0, -0x1
   17c9e: 1d bf        	j	0x17bd4 <__srefill_r+0x90>

0000000000017ca0 <__srget_r>:
   17ca0: 01 11        	addi	sp, sp, -0x20
   17ca2: 22 e8        	sd	s0, 0x10(sp)
   17ca4: 26 e4        	sd	s1, 0x8(sp)
   17ca6: 06 ec        	sd	ra, 0x18(sp)
   17ca8: aa 84        	mv	s1, a0
   17caa: 2e 84        	mv	s0, a1
   17cac: 19 c1        	beqz	a0, 0x17cb2 <__srget_r+0x12>
   17cae: 3c 65        	ld	a5, 0x48(a0)
   17cb0: 85 c7        	beqz	a5, 0x17cd8 <__srget_r+0x38>
   17cb2: a2 85        	mv	a1, s0
   17cb4: 26 85        	mv	a0, s1
   17cb6: ef f0 ff e8  	jal	0x17b44 <__srefill_r>
   17cba: 15 e1        	bnez	a0, 0x17cde <__srget_r+0x3e>
   17cbc: 18 60        	ld	a4, 0x0(s0)
   17cbe: 1c 44        	lw	a5, 0x8(s0)
   17cc0: 93 06 17 00  	addi	a3, a4, 0x1
   17cc4: fd 37        	addiw	a5, a5, -0x1
   17cc6: 1c c4        	sw	a5, 0x8(s0)
   17cc8: 14 e0        	sd	a3, 0x0(s0)
   17cca: 03 45 07 00  	lbu	a0, 0x0(a4)
   17cce: e2 60        	ld	ra, 0x18(sp)
   17cd0: 42 64        	ld	s0, 0x10(sp)
   17cd2: a2 64        	ld	s1, 0x8(sp)
   17cd4: 05 61        	addi	sp, sp, 0x20
   17cd6: 82 80        	ret
   17cd8: ef f0 ff 84  	jal	0x17526 <__sinit>
   17cdc: d9 bf        	j	0x17cb2 <__srget_r+0x12>
   17cde: 7d 55        	li	a0, -0x1
   17ce0: fd b7        	j	0x17cce <__srget_r+0x2e>

0000000000017ce2 <__srget>:
   17ce2: 01 11        	addi	sp, sp, -0x20
   17ce4: 26 e4        	sd	s1, 0x8(sp)
   17ce6: 83 b4 01 23  	ld	s1, 0x230(gp)
   17cea: 22 e8        	sd	s0, 0x10(sp)
   17cec: 06 ec        	sd	ra, 0x18(sp)
   17cee: 2a 84        	mv	s0, a0
   17cf0: 99 c0        	beqz	s1, 0x17cf6 <__srget+0x14>
   17cf2: bc 64        	ld	a5, 0x48(s1)
   17cf4: 85 c7        	beqz	a5, 0x17d1c <__srget+0x3a>
   17cf6: a2 85        	mv	a1, s0
   17cf8: 26 85        	mv	a0, s1
   17cfa: ef f0 bf e4  	jal	0x17b44 <__srefill_r>
   17cfe: 1d e1        	bnez	a0, 0x17d24 <__srget+0x42>
   17d00: 18 60        	ld	a4, 0x0(s0)
   17d02: 1c 44        	lw	a5, 0x8(s0)
   17d04: 93 06 17 00  	addi	a3, a4, 0x1
   17d08: fd 37        	addiw	a5, a5, -0x1
   17d0a: 1c c4        	sw	a5, 0x8(s0)
   17d0c: 14 e0        	sd	a3, 0x0(s0)
   17d0e: 03 45 07 00  	lbu	a0, 0x0(a4)
   17d12: e2 60        	ld	ra, 0x18(sp)
   17d14: 42 64        	ld	s0, 0x10(sp)
   17d16: a2 64        	ld	s1, 0x8(sp)
   17d18: 05 61        	addi	sp, sp, 0x20
   17d1a: 82 80        	ret
   17d1c: 26 85        	mv	a0, s1
   17d1e: ef f0 9f 80  	jal	0x17526 <__sinit>
   17d22: d1 bf        	j	0x17cf6 <__srget+0x14>
   17d24: 7d 55        	li	a0, -0x1
   17d26: f5 b7        	j	0x17d12 <__srget+0x30>

0000000000017d28 <__sread>:
   17d28: 41 11        	addi	sp, sp, -0x10
   17d2a: 22 e0        	sd	s0, 0x0(sp)
   17d2c: 2e 84        	mv	s0, a1
   17d2e: 83 95 25 01  	lh	a1, 0x12(a1)
   17d32: 06 e4        	sd	ra, 0x8(sp)
   17d34: ef 00 c0 75  	jal	0x18490 <_read_r>
   17d38: 63 49 05 00  	bltz	a0, 0x17d4a <__sread+0x22>
   17d3c: 5c 68        	ld	a5, 0x90(s0)
   17d3e: a2 60        	ld	ra, 0x8(sp)
   17d40: aa 97        	add	a5, a5, a0
   17d42: 5c e8        	sd	a5, 0x90(s0)
   17d44: 02 64        	ld	s0, 0x0(sp)
   17d46: 41 01        	addi	sp, sp, 0x10
   17d48: 82 80        	ret
   17d4a: 83 57 04 01  	lhu	a5, 0x10(s0)
   17d4e: 7d 77        	lui	a4, 0xfffff
   17d50: 7d 17        	addi	a4, a4, -0x1
   17d52: f9 8f        	and	a5, a5, a4
   17d54: a2 60        	ld	ra, 0x8(sp)
   17d56: 23 18 f4 00  	sh	a5, 0x10(s0)
   17d5a: 02 64        	ld	s0, 0x0(sp)
   17d5c: 41 01        	addi	sp, sp, 0x10
   17d5e: 82 80        	ret

0000000000017d60 <__seofread>:
   17d60: 01 45        	li	a0, 0x0
   17d62: 82 80        	ret

0000000000017d64 <__swrite>:
   17d64: 83 97 05 01  	lh	a5, 0x10(a1)
   17d68: 79 71        	addi	sp, sp, -0x30
   17d6a: 22 f0        	sd	s0, 0x20(sp)
   17d6c: 26 ec        	sd	s1, 0x18(sp)
   17d6e: 4a e8        	sd	s2, 0x10(sp)
   17d70: 4e e4        	sd	s3, 0x8(sp)
   17d72: 06 f4        	sd	ra, 0x28(sp)
   17d74: 13 f7 07 10  	andi	a4, a5, 0x100
   17d78: 2e 84        	mv	s0, a1
   17d7a: aa 84        	mv	s1, a0
   17d7c: 32 89        	mv	s2, a2
   17d7e: b6 89        	mv	s3, a3
   17d80: 1d e3        	bnez	a4, 0x17da6 <__swrite+0x42>
   17d82: 7d 77        	lui	a4, 0xfffff
   17d84: 7d 17        	addi	a4, a4, -0x1
   17d86: f9 8f        	and	a5, a5, a4
   17d88: 83 15 24 01  	lh	a1, 0x12(s0)
   17d8c: 23 18 f4 00  	sh	a5, 0x10(s0)
   17d90: 02 74        	ld	s0, 0x20(sp)
   17d92: a2 70        	ld	ra, 0x28(sp)
   17d94: ce 86        	mv	a3, s3
   17d96: 4a 86        	mv	a2, s2
   17d98: a2 69        	ld	s3, 0x8(sp)
   17d9a: 42 69        	ld	s2, 0x10(sp)
   17d9c: 26 85        	mv	a0, s1
   17d9e: e2 64        	ld	s1, 0x18(sp)
   17da0: 45 61        	addi	sp, sp, 0x30
   17da2: 6f 00 00 76  	j	0x18502 <_write_r>
   17da6: 83 95 25 01  	lh	a1, 0x12(a1)
   17daa: 89 46        	li	a3, 0x2
   17dac: 01 46        	li	a2, 0x0
   17dae: ef 00 a0 66  	jal	0x18418 <_lseek_r>
   17db2: 83 17 04 01  	lh	a5, 0x10(s0)
   17db6: f1 b7        	j	0x17d82 <__swrite+0x1e>

0000000000017db8 <__sseek>:
   17db8: 41 11        	addi	sp, sp, -0x10
   17dba: 22 e0        	sd	s0, 0x0(sp)
   17dbc: 2e 84        	mv	s0, a1
   17dbe: 83 95 25 01  	lh	a1, 0x12(a1)
   17dc2: 06 e4        	sd	ra, 0x8(sp)
   17dc4: ef 00 40 65  	jal	0x18418 <_lseek_r>
   17dc8: fd 57        	li	a5, -0x1
   17dca: 63 01 f5 02  	beq	a0, a5, 0x17dec <__sseek+0x34>
   17dce: 83 57 04 01  	lhu	a5, 0x10(s0)
   17dd2: 05 67        	lui	a4, 0x1
   17dd4: a2 60        	ld	ra, 0x8(sp)
   17dd6: d9 8f        	or	a5, a5, a4
   17dd8: 9b 97 07 01  	slliw	a5, a5, 0x10
   17ddc: 9b d7 07 41  	sraiw	a5, a5, 0x10
   17de0: 48 e8        	sd	a0, 0x90(s0)
   17de2: 23 18 f4 00  	sh	a5, 0x10(s0)
   17de6: 02 64        	ld	s0, 0x0(sp)
   17de8: 41 01        	addi	sp, sp, 0x10
   17dea: 82 80        	ret
   17dec: 83 57 04 01  	lhu	a5, 0x10(s0)
   17df0: 7d 77        	lui	a4, 0xfffff
   17df2: 7d 17        	addi	a4, a4, -0x1
   17df4: f9 8f        	and	a5, a5, a4
   17df6: 9b 97 07 01  	slliw	a5, a5, 0x10
   17dfa: 9b d7 07 41  	sraiw	a5, a5, 0x10
   17dfe: a2 60        	ld	ra, 0x8(sp)
   17e00: 23 18 f4 00  	sh	a5, 0x10(s0)
   17e04: 02 64        	ld	s0, 0x0(sp)
   17e06: 41 01        	addi	sp, sp, 0x10
   17e08: 82 80        	ret

0000000000017e0a <__sclose>:
   17e0a: 83 95 25 01  	lh	a1, 0x12(a1)
   17e0e: 1d a3        	j	0x18334 <_close_r>

0000000000017e10 <_fseeko_r>:
   17e10: 31 71        	addi	sp, sp, -0xc0
   17e12: 22 f9        	sd	s0, 0xb0(sp)
   17e14: 26 f5        	sd	s1, 0xa8(sp)
   17e16: 4a f1        	sd	s2, 0xa0(sp)
   17e18: 52 e9        	sd	s4, 0x90(sp)
   17e1a: 06 fd        	sd	ra, 0xb8(sp)
   17e1c: 56 e5        	sd	s5, 0x88(sp)
   17e1e: aa 84        	mv	s1, a0
   17e20: 2e 84        	mv	s0, a1
   17e22: 32 8a        	mv	s4, a2
   17e24: 36 89        	mv	s2, a3
   17e26: 01 c5        	beqz	a0, 0x17e2e <_fseeko_r+0x1e>
   17e28: 3c 65        	ld	a5, 0x48(a0)
   17e2a: 63 80 07 28  	beqz	a5, 0x180aa <_fseeko_r+0x29a>
   17e2e: 83 57 04 01  	lhu	a5, 0x10(s0)
   17e32: 13 07 80 10  	li	a4, 0x108
   17e36: 93 f7 87 10  	andi	a5, a5, 0x108
   17e3a: 63 8c e7 12  	beq	a5, a4, 0x17f72 <_fseeko_r+0x162>
   17e3e: 83 3a 84 04  	ld	s5, 0x48(s0)
   17e42: 63 86 0a 2c  	beqz	s5, 0x1810e <_fseeko_r+0x2fe>
   17e46: 4e ed        	sd	s3, 0x98(sp)
   17e48: 5a e1        	sd	s6, 0x80(sp)
   17e4a: 85 47        	li	a5, 0x1
   17e4c: 63 0a f9 0a  	beq	s2, a5, 0x17f00 <_fseeko_r+0xf0>
   17e50: 13 7b d9 ff  	andi	s6, s2, -0x3
   17e54: 63 0f 0b 00  	beqz	s6, 0x17e72 <_fseeko_r+0x62>
   17e58: ea 69        	ld	s3, 0x98(sp)
   17e5a: 0a 6b        	ld	s6, 0x80(sp)
   17e5c: d9 47        	li	a5, 0x16
   17e5e: 9c c0        	sw	a5, 0x0(s1)
   17e60: 7d 55        	li	a0, -0x1
   17e62: ea 70        	ld	ra, 0xb8(sp)
   17e64: 4a 74        	ld	s0, 0xb0(sp)
   17e66: aa 74        	ld	s1, 0xa8(sp)
   17e68: 0a 79        	ld	s2, 0xa0(sp)
   17e6a: 4a 6a        	ld	s4, 0x90(sp)
   17e6c: aa 6a        	ld	s5, 0x88(sp)
   17e6e: 29 61        	addi	sp, sp, 0xc0
   17e70: 82 80        	ret
   17e72: 18 6c        	ld	a4, 0x18(s0)
   17e74: 81 49        	li	s3, 0x0
   17e76: 69 c3        	beqz	a4, 0x17f38 <_fseeko_r+0x128>
   17e78: 83 17 04 01  	lh	a5, 0x10(s0)
   17e7c: 13 d7 17 00  	srli	a4, a5, 0x1
   17e80: 13 77 d7 40  	andi	a4, a4, 0x40d
   17e84: 19 ef        	bnez	a4, 0x17ea2 <_fseeko_r+0x92>
   17e86: 13 f7 07 40  	andi	a4, a5, 0x400
   17e8a: 45 ef        	bnez	a4, 0x17f42 <_fseeko_r+0x132>
   17e8c: 61 67        	lui	a4, 0x18
   17e8e: 13 07 87 db  	addi	a4, a4, -0x248
   17e92: 63 8b ea 1a  	beq	s5, a4, 0x18048 <_fseeko_r+0x238>
   17e96: 05 67        	lui	a4, 0x1
   17e98: 13 07 07 80  	addi	a4, a4, -0x800
   17e9c: d9 8f        	or	a5, a5, a4
   17e9e: 23 18 f4 00  	sh	a5, 0x10(s0)
   17ea2: a2 85        	mv	a1, s0
   17ea4: 26 85        	mv	a0, s1
   17ea6: ef f0 0f a6  	jal	0x17106 <_fflush_r>
   17eaa: 63 1e 05 24  	bnez	a0, 0x18106 <_fseeko_r+0x2f6>
   17eae: 0c 78        	ld	a1, 0x30(s0)
   17eb0: ca 86        	mv	a3, s2
   17eb2: 52 86        	mv	a2, s4
   17eb4: 26 85        	mv	a0, s1
   17eb6: 82 9a        	jalr	s5
   17eb8: fd 57        	li	a5, -0x1
   17eba: 63 06 f5 24  	beq	a0, a5, 0x18106 <_fseeko_r+0x2f6>
   17ebe: 2c 6c        	ld	a1, 0x58(s0)
   17ec0: 91 c9        	beqz	a1, 0x17ed4 <_fseeko_r+0xc4>
   17ec2: 93 07 44 07  	addi	a5, s0, 0x74
   17ec6: 63 85 f5 00  	beq	a1, a5, 0x17ed0 <_fseeko_r+0xc0>
   17eca: 26 85        	mv	a0, s1
   17ecc: ef 00 10 42  	jal	0x18aec <_free_r>
   17ed0: 23 3c 04 04  	sd	zero, 0x58(s0)
   17ed4: 83 57 04 01  	lhu	a5, 0x10(s0)
   17ed8: 14 6c        	ld	a3, 0x18(s0)
   17eda: 7d 77        	lui	a4, 0xfffff
   17edc: 13 07 f7 7d  	addi	a4, a4, 0x7df
   17ee0: f9 8f        	and	a5, a5, a4
   17ee2: 14 e0        	sd	a3, 0x0(s0)
   17ee4: 23 24 04 00  	sw	zero, 0x8(s0)
   17ee8: 23 18 f4 00  	sh	a5, 0x10(s0)
   17eec: 21 46        	li	a2, 0x8
   17eee: 81 45        	li	a1, 0x0
   17ef0: 13 05 44 0a  	addi	a0, s0, 0xa4
   17ef4: ef 00 20 6c  	jal	0x185b6 <memset>
   17ef8: ea 69        	ld	s3, 0x98(sp)
   17efa: 0a 6b        	ld	s6, 0x80(sp)
   17efc: 01 45        	li	a0, 0x0
   17efe: 95 b7        	j	0x17e62 <_fseeko_r+0x52>
   17f00: a2 85        	mv	a1, s0
   17f02: 26 85        	mv	a0, s1
   17f04: ef f0 2f a0  	jal	0x17106 <_fflush_r>
   17f08: 83 17 04 01  	lh	a5, 0x10(s0)
   17f0c: 13 97 37 03  	slli	a4, a5, 0x33
   17f10: 63 56 07 06  	bgez	a4, 0x17f7c <_fseeko_r+0x16c>
   17f14: 93 f6 47 00  	andi	a3, a5, 0x4
   17f18: 83 39 04 09  	ld	s3, 0x90(s0)
   17f1c: 18 6c        	ld	a4, 0x18(s0)
   17f1e: b5 ce        	beqz	a3, 0x17f9a <_fseeko_r+0x18a>
   17f20: 14 44        	lw	a3, 0x8(s0)
   17f22: 3c 6c        	ld	a5, 0x58(s0)
   17f24: b3 89 d9 40  	sub	s3, s3, a3
   17f28: 81 c7        	beqz	a5, 0x17f30 <_fseeko_r+0x120>
   17f2a: 3c 58        	lw	a5, 0x70(s0)
   17f2c: b3 89 f9 40  	sub	s3, s3, a5
   17f30: 4a 8b        	mv	s6, s2
   17f32: 4e 9a        	add	s4, s4, s3
   17f34: 01 49        	li	s2, 0x0
   17f36: 29 f3        	bnez	a4, 0x17e78 <_fseeko_r+0x68>
   17f38: a2 85        	mv	a1, s0
   17f3a: 26 85        	mv	a0, s1
   17f3c: ef 50 e0 25  	jal	0x1d19a <__smakebuf_r>
   17f40: 25 bf        	j	0x17e78 <_fseeko_r+0x68>
   17f42: de fc        	sd	s7, 0x78(sp)
   17f44: d2 8b        	mv	s7, s4
   17f46: 63 1c 09 12  	bnez	s2, 0x1807e <_fseeko_r+0x26e>
   17f4a: 63 1f 0b 04  	bnez	s6, 0x17fa8 <_fseeko_r+0x198>
   17f4e: 83 57 04 01  	lhu	a5, 0x10(s0)
   17f52: 13 97 37 03  	slli	a4, a5, 0x33
   17f56: 63 50 07 14  	bgez	a4, 0x18096 <_fseeko_r+0x286>
   17f5a: 48 68        	ld	a0, 0x90(s0)
   17f5c: 1c 44        	lw	a5, 0x8(s0)
   17f5e: 2c 6c        	ld	a1, 0x58(s0)
   17f60: be 86        	mv	a3, a5
   17f62: b3 09 f5 40  	sub	s3, a0, a5
   17f66: 63 85 05 14  	beqz	a1, 0x180b0 <_fseeko_r+0x2a0>
   17f6a: 38 58        	lw	a4, 0x70(s0)
   17f6c: b3 89 e9 40  	sub	s3, s3, a4
   17f70: 91 a0        	j	0x17fb4 <_fseeko_r+0x1a4>
   17f72: a2 85        	mv	a1, s0
   17f74: 26 85        	mv	a0, s1
   17f76: ef f0 0f 99  	jal	0x17106 <_fflush_r>
   17f7a: d1 b5        	j	0x17e3e <_fseeko_r+0x2e>
   17f7c: 0c 78        	ld	a1, 0x30(s0)
   17f7e: 85 46        	li	a3, 0x1
   17f80: 01 46        	li	a2, 0x0
   17f82: 26 85        	mv	a0, s1
   17f84: 82 9a        	jalr	s5
   17f86: fd 57        	li	a5, -0x1
   17f88: aa 89        	mv	s3, a0
   17f8a: 63 0e f5 16  	beq	a0, a5, 0x18106 <_fseeko_r+0x2f6>
   17f8e: 83 17 04 01  	lh	a5, 0x10(s0)
   17f92: 18 6c        	ld	a4, 0x18(s0)
   17f94: 93 f6 47 00  	andi	a3, a5, 0x4
   17f98: c1 f6        	bnez	a3, 0x17f20 <_fseeko_r+0x110>
   17f9a: a1 8b        	andi	a5, a5, 0x8
   17f9c: d1 db        	beqz	a5, 0x17f30 <_fseeko_r+0x120>
   17f9e: 1c 60        	ld	a5, 0x0(s0)
   17fa0: c1 db        	beqz	a5, 0x17f30 <_fseeko_r+0x120>
   17fa2: 99 8f        	sub	a5, a5, a4
   17fa4: be 99        	add	s3, s3, a5
   17fa6: 69 b7        	j	0x17f30 <_fseeko_r+0x120>
   17fa8: 2c 6c        	ld	a1, 0x58(s0)
   17faa: 14 44        	lw	a3, 0x8(s0)
   17fac: 63 82 05 10  	beqz	a1, 0x180b0 <_fseeko_r+0x2a0>
   17fb0: 38 58        	lw	a4, 0x70(s0)
   17fb2: b6 87        	mv	a5, a3
   17fb4: 34 74        	ld	a3, 0x68(s0)
   17fb6: 10 6c        	ld	a2, 0x18(s0)
   17fb8: ce 97        	add	a5, a5, s3
   17fba: 91 8e        	sub	a3, a3, a2
   17fbc: 95 8f        	sub	a5, a5, a3
   17fbe: 36 97        	add	a4, a4, a3
   17fc0: 63 c6 fb 00  	blt	s7, a5, 0x17fcc <_fseeko_r+0x1bc>
   17fc4: b3 86 e7 00  	add	a3, a5, a4
   17fc8: 63 ef db 0e  	bltu	s7, a3, 0x180c6 <_fseeko_r+0x2b6>
   17fcc: 83 29 84 08  	lw	s3, 0x88(s0)
   17fd0: 0c 78        	ld	a1, 0x30(s0)
   17fd2: 81 46        	li	a3, 0x0
   17fd4: bb 09 30 41  	negw	s3, s3
   17fd8: b3 f9 79 01  	and	s3, s3, s7
   17fdc: 4e 86        	mv	a2, s3
   17fde: 26 85        	mv	a0, s1
   17fe0: 82 9a        	jalr	s5
   17fe2: fd 57        	li	a5, -0x1
   17fe4: 63 01 f5 0c  	beq	a0, a5, 0x180a6 <_fseeko_r+0x296>
   17fe8: 1c 6c        	ld	a5, 0x18(s0)
   17fea: 2c 6c        	ld	a1, 0x58(s0)
   17fec: 23 24 04 00  	sw	zero, 0x8(s0)
   17ff0: 1c e0        	sd	a5, 0x0(s0)
   17ff2: 91 c9        	beqz	a1, 0x18006 <_fseeko_r+0x1f6>
   17ff4: 93 07 44 07  	addi	a5, s0, 0x74
   17ff8: 63 85 f5 00  	beq	a1, a5, 0x18002 <_fseeko_r+0x1f2>
   17ffc: 26 85        	mv	a0, s1
   17ffe: ef 00 f0 2e  	jal	0x18aec <_free_r>
   18002: 23 3c 04 04  	sd	zero, 0x58(s0)
   18006: 83 57 04 01  	lhu	a5, 0x10(s0)
   1800a: 33 8b 3b 41  	sub	s6, s7, s3
   1800e: 93 f7 f7 fd  	andi	a5, a5, -0x21
   18012: 23 18 f4 00  	sh	a5, 0x10(s0)
   18016: 63 81 3b 03  	beq	s7, s3, 0x18038 <_fseeko_r+0x228>
   1801a: a2 85        	mv	a1, s0
   1801c: 26 85        	mv	a0, s1
   1801e: ef f0 7f b2  	jal	0x17b44 <__srefill_r>
   18022: 51 e1        	bnez	a0, 0x180a6 <_fseeko_r+0x296>
   18024: 1c 44        	lw	a5, 0x8(s0)
   18026: 63 e0 67 09  	bltu	a5, s6, 0x180a6 <_fseeko_r+0x296>
   1802a: 18 60        	ld	a4, 0x0(s0)
   1802c: bb 87 67 41  	subw	a5, a5, s6
   18030: 1c c4        	sw	a5, 0x8(s0)
   18032: b3 07 67 01  	add	a5, a4, s6
   18036: 1c e0        	sd	a5, 0x0(s0)
   18038: 21 46        	li	a2, 0x8
   1803a: 81 45        	li	a1, 0x0
   1803c: 13 05 44 0a  	addi	a0, s0, 0xa4
   18040: ef 00 60 57  	jal	0x185b6 <memset>
   18044: e6 7b        	ld	s7, 0x78(sp)
   18046: 4d bd        	j	0x17ef8 <_fseeko_r+0xe8>
   18048: 83 15 24 01  	lh	a1, 0x12(s0)
   1804c: e3 c5 05 e4  	bltz	a1, 0x17e96 <_fseeko_r+0x86>
   18050: 30 00        	addi	a2, sp, 0x8
   18052: 26 85        	mv	a0, s1
   18054: ef 00 a0 38  	jal	0x183de <_fstat_r>
   18058: 25 e5        	bnez	a0, 0x180c0 <_fseeko_r+0x2b0>
   1805a: 32 47        	lw	a4, 0xc(sp)
   1805c: bd 67        	lui	a5, 0xf
   1805e: a1 66        	lui	a3, 0x8
   18060: 7d 8f        	and	a4, a4, a5
   18062: 83 17 04 01  	lh	a5, 0x10(s0)
   18066: e3 18 d7 e2  	bne	a4, a3, 0x17e96 <_fseeko_r+0x86>
   1806a: de fc        	sd	s7, 0x78(sp)
   1806c: 93 e7 07 40  	ori	a5, a5, 0x400
   18070: 13 07 00 40  	li	a4, 0x400
   18074: 23 24 e4 08  	sw	a4, 0x88(s0)
   18078: 23 18 f4 00  	sh	a5, 0x10(s0)
   1807c: e1 b5        	j	0x17f44 <_fseeko_r+0x134>
   1807e: 83 15 24 01  	lh	a1, 0x12(s0)
   18082: 30 00        	addi	a2, sp, 0x8
   18084: 26 85        	mv	a0, s1
   18086: ef 00 80 35  	jal	0x183de <_fstat_r>
   1808a: 11 ed        	bnez	a0, 0x180a6 <_fseeko_r+0x296>
   1808c: e2 6b        	ld	s7, 0x18(sp)
   1808e: d2 9b        	add	s7, s7, s4
   18090: e3 1c 0b f0  	bnez	s6, 0x17fa8 <_fseeko_r+0x198>
   18094: 6d bd        	j	0x17f4e <_fseeko_r+0x13e>
   18096: 0c 78        	ld	a1, 0x30(s0)
   18098: 85 46        	li	a3, 0x1
   1809a: 01 46        	li	a2, 0x0
   1809c: 26 85        	mv	a0, s1
   1809e: 82 9a        	jalr	s5
   180a0: fd 57        	li	a5, -0x1
   180a2: e3 1d f5 ea  	bne	a0, a5, 0x17f5c <_fseeko_r+0x14c>
   180a6: e6 7b        	ld	s7, 0x78(sp)
   180a8: ed bb        	j	0x17ea2 <_fseeko_r+0x92>
   180aa: ef f0 cf c7  	jal	0x17526 <__sinit>
   180ae: 41 b3        	j	0x17e2e <_fseeko_r+0x1e>
   180b0: 18 60        	ld	a4, 0x0(s0)
   180b2: 10 6c        	ld	a2, 0x18(s0)
   180b4: 81 45        	li	a1, 0x0
   180b6: 11 8f        	sub	a4, a4, a2
   180b8: b3 87 e9 40  	sub	a5, s3, a4
   180bc: 36 97        	add	a4, a4, a3
   180be: 09 b7        	j	0x17fc0 <_fseeko_r+0x1b0>
   180c0: 83 17 04 01  	lh	a5, 0x10(s0)
   180c4: c9 bb        	j	0x17e96 <_fseeko_r+0x86>
   180c6: bb 86 fb 40  	subw	a3, s7, a5
   180ca: b9 9f        	addw	a5, a5, a4
   180cc: 36 96        	add	a2, a2, a3
   180ce: bb 87 77 41  	subw	a5, a5, s7
   180d2: 10 e0        	sd	a2, 0x0(s0)
   180d4: 1c c4        	sw	a5, 0x8(s0)
   180d6: 91 c9        	beqz	a1, 0x180ea <_fseeko_r+0x2da>
   180d8: 93 07 44 07  	addi	a5, s0, 0x74
   180dc: 63 85 f5 00  	beq	a1, a5, 0x180e6 <_fseeko_r+0x2d6>
   180e0: 26 85        	mv	a0, s1
   180e2: ef 00 b0 20  	jal	0x18aec <_free_r>
   180e6: 23 3c 04 04  	sd	zero, 0x58(s0)
   180ea: 83 57 04 01  	lhu	a5, 0x10(s0)
   180ee: 21 46        	li	a2, 0x8
   180f0: 81 45        	li	a1, 0x0
   180f2: 93 f7 f7 fd  	andi	a5, a5, -0x21
   180f6: 23 18 f4 00  	sh	a5, 0x10(s0)
   180fa: 13 05 44 0a  	addi	a0, s0, 0xa4
   180fe: ef 00 80 4b  	jal	0x185b6 <memset>
   18102: e6 7b        	ld	s7, 0x78(sp)
   18104: d5 bb        	j	0x17ef8 <_fseeko_r+0xe8>
   18106: ea 69        	ld	s3, 0x98(sp)
   18108: 0a 6b        	ld	s6, 0x80(sp)
   1810a: 7d 55        	li	a0, -0x1
   1810c: 99 bb        	j	0x17e62 <_fseeko_r+0x52>
   1810e: f5 47        	li	a5, 0x1d
   18110: 9c c0        	sw	a5, 0x0(s1)
   18112: 7d 55        	li	a0, -0x1
   18114: b9 b3        	j	0x17e62 <_fseeko_r+0x52>

0000000000018116 <fseeko>:
   18116: aa 87        	mv	a5, a0
   18118: 03 b5 01 23  	ld	a0, 0x230(gp)
   1811c: b2 86        	mv	a3, a2
   1811e: 2e 86        	mv	a2, a1
   18120: be 85        	mv	a1, a5
   18122: 6f f0 ff ce  	j	0x17e10 <_fseeko_r>

0000000000018126 <memchr>:
   18126: 93 77 75 00  	andi	a5, a0, 0x7
   1812a: 93 f6 f5 0f  	andi	a3, a1, 0xff
   1812e: 95 c3        	beqz	a5, 0x18152 <memchr+0x2c>
   18130: 93 07 f6 ff  	addi	a5, a2, -0x1
   18134: 05 c6        	beqz	a2, 0x1815c <memchr+0x36>
   18136: 7d 56        	li	a2, -0x1
   18138: 01 a8        	j	0x18148 <memchr+0x22>
   1813a: 05 05        	addi	a0, a0, 0x1
   1813c: 13 77 75 00  	andi	a4, a0, 0x7
   18140: 11 cb        	beqz	a4, 0x18154 <memchr+0x2e>
   18142: fd 17        	addi	a5, a5, -0x1
   18144: 63 8c c7 00  	beq	a5, a2, 0x1815c <memchr+0x36>
   18148: 03 47 05 00  	lbu	a4, 0x0(a0)
   1814c: e3 17 d7 fe  	bne	a4, a3, 0x1813a <memchr+0x14>
   18150: 82 80        	ret
   18152: b2 87        	mv	a5, a2
   18154: 1d 47        	li	a4, 0x7
   18156: 63 65 f7 00  	bltu	a4, a5, 0x18160 <memchr+0x3a>
   1815a: bd e3        	bnez	a5, 0x181c0 <memchr+0x9a>
   1815c: 01 45        	li	a0, 0x0
   1815e: 82 80        	ret
   18160: 93 f5 f5 0f  	andi	a1, a1, 0xff
   18164: 37 18 10 f0  	lui	a6, 0xf0101
   18168: 13 97 85 00  	slli	a4, a1, 0x8
   1816c: b7 08 ff fe  	lui	a7, 0xfeff0
   18170: 12 08        	slli	a6, a6, 0x4
   18172: 2e 97        	add	a4, a4, a1
   18174: 93 88 f8 ef  	addi	a7, a7, -0x101
   18178: 13 08 18 10  	addi	a6, a6, 0x101
   1817c: 93 15 07 01  	slli	a1, a4, 0x10
   18180: c2 08        	slli	a7, a7, 0x10
   18182: 42 08        	slli	a6, a6, 0x10
   18184: ba 95        	add	a1, a1, a4
   18186: 93 88 f8 ef  	addi	a7, a7, -0x101
   1818a: 13 08 18 10  	addi	a6, a6, 0x101
   1818e: 13 97 05 02  	slli	a4, a1, 0x20
   18192: c2 08        	slli	a7, a7, 0x10
   18194: 3e 08        	slli	a6, a6, 0xf
   18196: ba 95        	add	a1, a1, a4
   18198: 93 88 f8 ef  	addi	a7, a7, -0x101
   1819c: 13 08 08 08  	addi	a6, a6, 0x80
   181a0: 1d 43        	li	t1, 0x7
   181a2: 29 a0        	j	0x181ac <memchr+0x86>
   181a4: e1 17        	addi	a5, a5, -0x8
   181a6: 21 05        	addi	a0, a0, 0x8
   181a8: e3 79 f3 fa  	bgeu	t1, a5, 0x1815a <memchr+0x34>
   181ac: 18 61        	ld	a4, 0x0(a0)
   181ae: 2d 8f        	xor	a4, a4, a1
   181b0: 33 06 17 01  	add	a2, a4, a7
   181b4: 13 47 f7 ff  	not	a4, a4
   181b8: 71 8f        	and	a4, a4, a2
   181ba: 33 77 07 01  	and	a4, a4, a6
   181be: 7d d3        	beqz	a4, 0x181a4 <memchr+0x7e>
   181c0: aa 97        	add	a5, a5, a0
   181c2: 21 a0        	j	0x181ca <memchr+0xa4>
   181c4: 05 05        	addi	a0, a0, 0x1
   181c6: e3 8b a7 f8  	beq	a5, a0, 0x1815c <memchr+0x36>
   181ca: 03 47 05 00  	lbu	a4, 0x0(a0)
   181ce: e3 1b d7 fe  	bne	a4, a3, 0x181c4 <memchr+0x9e>
   181d2: 82 80        	ret

00000000000181d4 <strncmp>:
   181d4: 4d c6        	beqz	a2, 0x1827e <strncmp+0xaa>
   181d6: b3 67 b5 00  	or	a5, a0, a1
   181da: 9d 8b        	andi	a5, a5, 0x7
   181dc: a5 eb        	bnez	a5, 0x1824c <strncmp+0x78>
   181de: 9d 47        	li	a5, 0x7
   181e0: 63 f6 c7 06  	bgeu	a5, a2, 0x1824c <strncmp+0x78>
   181e4: b7 16 10 f0  	lui	a3, 0xf0101
   181e8: 37 08 ff fe  	lui	a6, 0xfeff0
   181ec: 92 06        	slli	a3, a3, 0x4
   181ee: 13 08 f8 ef  	addi	a6, a6, -0x101
   181f2: 93 86 16 10  	addi	a3, a3, 0x101
   181f6: 42 08        	slli	a6, a6, 0x10
   181f8: c2 06        	slli	a3, a3, 0x10
   181fa: 13 08 f8 ef  	addi	a6, a6, -0x101
   181fe: 93 86 16 10  	addi	a3, a3, 0x101
   18202: 42 08        	slli	a6, a6, 0x10
   18204: be 06        	slli	a3, a3, 0xf
   18206: 13 08 f8 ef  	addi	a6, a6, -0x101
   1820a: 93 86 06 08  	addi	a3, a3, 0x80
   1820e: 1d 4e        	li	t3, 0x7
   18210: 01 a8        	j	0x18220 <strncmp+0x4c>
   18212: 61 16        	addi	a2, a2, -0x8
   18214: 2d c6        	beqz	a2, 0x1827e <strncmp+0xaa>
   18216: a5 e7        	bnez	a5, 0x1827e <strncmp+0xaa>
   18218: 21 05        	addi	a0, a0, 0x8
   1821a: a1 05        	addi	a1, a1, 0x8
   1821c: 63 78 ce 02  	bgeu	t3, a2, 0x1824c <strncmp+0x78>
   18220: 18 61        	ld	a4, 0x0(a0)
   18222: 83 b8 05 00  	ld	a7, 0x0(a1)
   18226: b3 07 07 01  	add	a5, a4, a6
   1822a: 13 43 f7 ff  	not	t1, a4
   1822e: b3 f7 67 00  	and	a5, a5, t1
   18232: f5 8f        	and	a5, a5, a3
   18234: e3 0f 17 fd  	beq	a4, a7, 0x18212 <strncmp+0x3e>
   18238: 03 47 05 00  	lbu	a4, 0x0(a0)
   1823c: 83 c6 05 00  	lbu	a3, 0x0(a1)
   18240: 2a 88        	mv	a6, a0
   18242: 63 07 d7 02  	beq	a4, a3, 0x18270 <strncmp+0x9c>
   18246: 3b 05 d7 40  	subw	a0, a4, a3
   1824a: 82 80        	ret
   1824c: 03 47 05 00  	lbu	a4, 0x0(a0)
   18250: 83 c6 05 00  	lbu	a3, 0x0(a1)
   18254: e3 19 d7 fe  	bne	a4, a3, 0x18246 <strncmp+0x72>
   18258: 85 47        	li	a5, 0x1
   1825a: 63 02 f6 02  	beq	a2, a5, 0x1827e <strncmp+0xaa>
   1825e: 2a 88        	mv	a6, a0
   18260: 01 a8        	j	0x18270 <strncmp+0x9c>
   18262: 03 47 05 00  	lbu	a4, 0x0(a0)
   18266: 83 c6 05 00  	lbu	a3, 0x0(a1)
   1826a: e3 1e d7 fc  	bne	a4, a3, 0x18246 <strncmp+0x72>
   1826e: 81 cb        	beqz	a5, 0x1827e <strncmp+0xaa>
   18270: 05 05        	addi	a0, a0, 0x1
   18272: b3 07 a6 40  	sub	a5, a2, a0
   18276: fd 17        	addi	a5, a5, -0x1
   18278: 85 05        	addi	a1, a1, 0x1
   1827a: c2 97        	add	a5, a5, a6
   1827c: 7d f3        	bnez	a4, 0x18262 <strncmp+0x8e>
   1827e: 01 45        	li	a0, 0x0
   18280: 82 80        	ret

0000000000018282 <_setlocale_r>:
   18282: 01 11        	addi	sp, sp, -0x20
   18284: 06 ec        	sd	ra, 0x18(sp)
   18286: 26 e4        	sd	s1, 0x8(sp)
   18288: 05 c6        	beqz	a2, 0x182b0 <_setlocale_r+0x2e>
   1828a: b7 15 02 00  	lui	a1, 0x21
   1828e: 93 85 85 32  	addi	a1, a1, 0x328
   18292: 32 85        	mv	a0, a2
   18294: 22 e8        	sd	s0, 0x10(sp)
   18296: 32 84        	mv	s0, a2
   18298: ef 00 00 5b  	jal	0x18848 <strcmp>
   1829c: b7 14 02 00  	lui	s1, 0x21
   182a0: 19 e9        	bnez	a0, 0x182b6 <_setlocale_r+0x34>
   182a2: 42 64        	ld	s0, 0x10(sp)
   182a4: 13 85 04 32  	addi	a0, s1, 0x320
   182a8: e2 60        	ld	ra, 0x18(sp)
   182aa: a2 64        	ld	s1, 0x8(sp)
   182ac: 05 61        	addi	sp, sp, 0x20
   182ae: 82 80        	ret
   182b0: b7 14 02 00  	lui	s1, 0x21
   182b4: c5 bf        	j	0x182a4 <_setlocale_r+0x22>
   182b6: 93 85 04 32  	addi	a1, s1, 0x320
   182ba: 22 85        	mv	a0, s0
   182bc: ef 00 c0 58  	jal	0x18848 <strcmp>
   182c0: 6d d1        	beqz	a0, 0x182a2 <_setlocale_r+0x20>
   182c2: b7 15 02 00  	lui	a1, 0x21
   182c6: 93 85 85 45  	addi	a1, a1, 0x458
   182ca: 22 85        	mv	a0, s0
   182cc: ef 00 c0 57  	jal	0x18848 <strcmp>
   182d0: 69 d9        	beqz	a0, 0x182a2 <_setlocale_r+0x20>
   182d2: 42 64        	ld	s0, 0x10(sp)
   182d4: 01 45        	li	a0, 0x0
   182d6: c9 bf        	j	0x182a8 <_setlocale_r+0x26>

00000000000182d8 <__locale_mb_cur_max>:
   182d8: 03 c5 01 ee  	lbu	a0, -0x120(gp)
   182dc: 82 80        	ret

00000000000182de <setlocale>:
   182de: 01 11        	addi	sp, sp, -0x20
   182e0: 06 ec        	sd	ra, 0x18(sp)
   182e2: 26 e4        	sd	s1, 0x8(sp)
   182e4: 85 c5        	beqz	a1, 0x1830c <setlocale+0x2e>
   182e6: 22 e8        	sd	s0, 0x10(sp)
   182e8: 2e 84        	mv	s0, a1
   182ea: b7 15 02 00  	lui	a1, 0x21
   182ee: 93 85 85 32  	addi	a1, a1, 0x328
   182f2: 22 85        	mv	a0, s0
   182f4: ef 00 40 55  	jal	0x18848 <strcmp>
   182f8: b7 14 02 00  	lui	s1, 0x21
   182fc: 19 e9        	bnez	a0, 0x18312 <setlocale+0x34>
   182fe: 42 64        	ld	s0, 0x10(sp)
   18300: 13 85 04 32  	addi	a0, s1, 0x320
   18304: e2 60        	ld	ra, 0x18(sp)
   18306: a2 64        	ld	s1, 0x8(sp)
   18308: 05 61        	addi	sp, sp, 0x20
   1830a: 82 80        	ret
   1830c: b7 14 02 00  	lui	s1, 0x21
   18310: c5 bf        	j	0x18300 <setlocale+0x22>
   18312: 93 85 04 32  	addi	a1, s1, 0x320
   18316: 22 85        	mv	a0, s0
   18318: ef 00 00 53  	jal	0x18848 <strcmp>
   1831c: 6d d1        	beqz	a0, 0x182fe <setlocale+0x20>
   1831e: b7 15 02 00  	lui	a1, 0x21
   18322: 93 85 85 45  	addi	a1, a1, 0x458
   18326: 22 85        	mv	a0, s0
   18328: ef 00 00 52  	jal	0x18848 <strcmp>
   1832c: 69 d9        	beqz	a0, 0x182fe <setlocale+0x20>
   1832e: 42 64        	ld	s0, 0x10(sp)
   18330: 01 45        	li	a0, 0x0
   18332: c9 bf        	j	0x18304 <setlocale+0x26>

0000000000018334 <_close_r>:
   18334: 01 11        	addi	sp, sp, -0x20
   18336: 22 e8        	sd	s0, 0x10(sp)
   18338: 26 e4        	sd	s1, 0x8(sp)
   1833a: 2a 84        	mv	s0, a0
   1833c: 2e 85        	mv	a0, a1
   1833e: 06 ec        	sd	ra, 0x18(sp)
   18340: 23 a0 01 26  	sw	zero, 0x260(gp)
   18344: ef 70 c0 49  	jal	0x1f7e0 <_close>
   18348: fd 57        	li	a5, -0x1
   1834a: 63 07 f5 00  	beq	a0, a5, 0x18358 <_close_r+0x24>
   1834e: e2 60        	ld	ra, 0x18(sp)
   18350: 42 64        	ld	s0, 0x10(sp)
   18352: a2 64        	ld	s1, 0x8(sp)
   18354: 05 61        	addi	sp, sp, 0x20
   18356: 82 80        	ret
   18358: 83 a7 01 26  	lw	a5, 0x260(gp)
   1835c: ed db        	beqz	a5, 0x1834e <_close_r+0x1a>
   1835e: e2 60        	ld	ra, 0x18(sp)
   18360: 1c c0        	sw	a5, 0x0(s0)
   18362: 42 64        	ld	s0, 0x10(sp)
   18364: a2 64        	ld	s1, 0x8(sp)
   18366: 05 61        	addi	sp, sp, 0x20
   18368: 82 80        	ret

000000000001836a <_reclaim_reent>:
   1836a: 83 b7 01 23  	ld	a5, 0x230(gp)
   1836e: 63 87 a7 06  	beq	a5, a0, 0x183dc <_reclaim_reent+0x72>
   18372: 2c 75        	ld	a1, 0x68(a0)
   18374: 79 71        	addi	sp, sp, -0x30
   18376: 26 ec        	sd	s1, 0x18(sp)
   18378: 06 f4        	sd	ra, 0x28(sp)
   1837a: aa 84        	mv	s1, a0
   1837c: 9d c9        	beqz	a1, 0x183b2 <_reclaim_reent+0x48>
   1837e: 4a e8        	sd	s2, 0x10(sp)
   18380: 4e e4        	sd	s3, 0x8(sp)
   18382: 22 f0        	sd	s0, 0x20(sp)
   18384: 01 49        	li	s2, 0x0
   18386: 93 09 00 20  	li	s3, 0x200
   1838a: b3 87 25 01  	add	a5, a1, s2
   1838e: 80 63        	ld	s0, 0x0(a5)
   18390: 01 c8        	beqz	s0, 0x183a0 <_reclaim_reent+0x36>
   18392: a2 85        	mv	a1, s0
   18394: 00 60        	ld	s0, 0x0(s0)
   18396: 26 85        	mv	a0, s1
   18398: ef 00 40 75  	jal	0x18aec <_free_r>
   1839c: 7d f8        	bnez	s0, 0x18392 <_reclaim_reent+0x28>
   1839e: ac 74        	ld	a1, 0x68(s1)
   183a0: 21 09        	addi	s2, s2, 0x8
   183a2: e3 14 39 ff  	bne	s2, s3, 0x1838a <_reclaim_reent+0x20>
   183a6: 26 85        	mv	a0, s1
   183a8: ef 00 40 74  	jal	0x18aec <_free_r>
   183ac: 02 74        	ld	s0, 0x20(sp)
   183ae: 42 69        	ld	s2, 0x10(sp)
   183b0: a2 69        	ld	s3, 0x8(sp)
   183b2: ac 68        	ld	a1, 0x50(s1)
   183b4: 81 c5        	beqz	a1, 0x183bc <_reclaim_reent+0x52>
   183b6: 26 85        	mv	a0, s1
   183b8: ef 00 40 73  	jal	0x18aec <_free_r>
   183bc: ac 7c        	ld	a1, 0x78(s1)
   183be: 81 c5        	beqz	a1, 0x183c6 <_reclaim_reent+0x5c>
   183c0: 26 85        	mv	a0, s1
   183c2: ef 00 a0 72  	jal	0x18aec <_free_r>
   183c6: bc 64        	ld	a5, 0x48(s1)
   183c8: 91 c7        	beqz	a5, 0x183d4 <_reclaim_reent+0x6a>
   183ca: a2 70        	ld	ra, 0x28(sp)
   183cc: 26 85        	mv	a0, s1
   183ce: e2 64        	ld	s1, 0x18(sp)
   183d0: 45 61        	addi	sp, sp, 0x30
   183d2: 82 87        	jr	a5
   183d4: a2 70        	ld	ra, 0x28(sp)
   183d6: e2 64        	ld	s1, 0x18(sp)
   183d8: 45 61        	addi	sp, sp, 0x30
   183da: 82 80        	ret
   183dc: 82 80        	ret

00000000000183de <_fstat_r>:
   183de: 01 11        	addi	sp, sp, -0x20
   183e0: 2e 87        	mv	a4, a1
   183e2: 22 e8        	sd	s0, 0x10(sp)
   183e4: 26 e4        	sd	s1, 0x8(sp)
   183e6: 2a 84        	mv	s0, a0
   183e8: b2 85        	mv	a1, a2
   183ea: 3a 85        	mv	a0, a4
   183ec: 06 ec        	sd	ra, 0x18(sp)
   183ee: 23 a0 01 26  	sw	zero, 0x260(gp)
   183f2: ef 70 c0 43  	jal	0x1f82e <_fstat>
   183f6: fd 57        	li	a5, -0x1
   183f8: 63 07 f5 00  	beq	a0, a5, 0x18406 <_fstat_r+0x28>
   183fc: e2 60        	ld	ra, 0x18(sp)
   183fe: 42 64        	ld	s0, 0x10(sp)
   18400: a2 64        	ld	s1, 0x8(sp)
   18402: 05 61        	addi	sp, sp, 0x20
   18404: 82 80        	ret
   18406: 83 a7 01 26  	lw	a5, 0x260(gp)
   1840a: ed db        	beqz	a5, 0x183fc <_fstat_r+0x1e>
   1840c: e2 60        	ld	ra, 0x18(sp)
   1840e: 1c c0        	sw	a5, 0x0(s0)
   18410: 42 64        	ld	s0, 0x10(sp)
   18412: a2 64        	ld	s1, 0x8(sp)
   18414: 05 61        	addi	sp, sp, 0x20
   18416: 82 80        	ret

0000000000018418 <_lseek_r>:
   18418: 01 11        	addi	sp, sp, -0x20
   1841a: 2e 87        	mv	a4, a1
   1841c: 22 e8        	sd	s0, 0x10(sp)
   1841e: 26 e4        	sd	s1, 0x8(sp)
   18420: b2 85        	mv	a1, a2
   18422: 2a 84        	mv	s0, a0
   18424: 36 86        	mv	a2, a3
   18426: 3a 85        	mv	a0, a4
   18428: 06 ec        	sd	ra, 0x18(sp)
   1842a: 23 a0 01 26  	sw	zero, 0x260(gp)
   1842e: ef 70 e0 47  	jal	0x1f8ac <_lseek>
   18432: fd 57        	li	a5, -0x1
   18434: 63 07 f5 00  	beq	a0, a5, 0x18442 <_lseek_r+0x2a>
   18438: e2 60        	ld	ra, 0x18(sp)
   1843a: 42 64        	ld	s0, 0x10(sp)
   1843c: a2 64        	ld	s1, 0x8(sp)
   1843e: 05 61        	addi	sp, sp, 0x20
   18440: 82 80        	ret
   18442: 83 a7 01 26  	lw	a5, 0x260(gp)
   18446: ed db        	beqz	a5, 0x18438 <_lseek_r+0x20>
   18448: e2 60        	ld	ra, 0x18(sp)
   1844a: 1c c0        	sw	a5, 0x0(s0)
   1844c: 42 64        	ld	s0, 0x10(sp)
   1844e: a2 64        	ld	s1, 0x8(sp)
   18450: 05 61        	addi	sp, sp, 0x20
   18452: 82 80        	ret

0000000000018454 <_open_r>:
   18454: 01 11        	addi	sp, sp, -0x20
   18456: 2e 87        	mv	a4, a1
   18458: 22 e8        	sd	s0, 0x10(sp)
   1845a: 26 e4        	sd	s1, 0x8(sp)
   1845c: b2 85        	mv	a1, a2
   1845e: 2a 84        	mv	s0, a0
   18460: 36 86        	mv	a2, a3
   18462: 3a 85        	mv	a0, a4
   18464: 06 ec        	sd	ra, 0x18(sp)
   18466: 23 a0 01 26  	sw	zero, 0x260(gp)
   1846a: ef 70 e0 46  	jal	0x1f8d8 <_open>
   1846e: fd 57        	li	a5, -0x1
   18470: 63 07 f5 00  	beq	a0, a5, 0x1847e <_open_r+0x2a>
   18474: e2 60        	ld	ra, 0x18(sp)
   18476: 42 64        	ld	s0, 0x10(sp)
   18478: a2 64        	ld	s1, 0x8(sp)
   1847a: 05 61        	addi	sp, sp, 0x20
   1847c: 82 80        	ret
   1847e: 83 a7 01 26  	lw	a5, 0x260(gp)
   18482: ed db        	beqz	a5, 0x18474 <_open_r+0x20>
   18484: e2 60        	ld	ra, 0x18(sp)
   18486: 1c c0        	sw	a5, 0x0(s0)
   18488: 42 64        	ld	s0, 0x10(sp)
   1848a: a2 64        	ld	s1, 0x8(sp)
   1848c: 05 61        	addi	sp, sp, 0x20
   1848e: 82 80        	ret

0000000000018490 <_read_r>:
   18490: 01 11        	addi	sp, sp, -0x20
   18492: 2e 87        	mv	a4, a1
   18494: 22 e8        	sd	s0, 0x10(sp)
   18496: 26 e4        	sd	s1, 0x8(sp)
   18498: b2 85        	mv	a1, a2
   1849a: 2a 84        	mv	s0, a0
   1849c: 36 86        	mv	a2, a3
   1849e: 3a 85        	mv	a0, a4
   184a0: 06 ec        	sd	ra, 0x18(sp)
   184a2: 23 a0 01 26  	sw	zero, 0x260(gp)
   184a6: ef 70 e0 45  	jal	0x1f904 <_read>
   184aa: fd 57        	li	a5, -0x1
   184ac: 63 07 f5 00  	beq	a0, a5, 0x184ba <_read_r+0x2a>
   184b0: e2 60        	ld	ra, 0x18(sp)
   184b2: 42 64        	ld	s0, 0x10(sp)
   184b4: a2 64        	ld	s1, 0x8(sp)
   184b6: 05 61        	addi	sp, sp, 0x20
   184b8: 82 80        	ret
   184ba: 83 a7 01 26  	lw	a5, 0x260(gp)
   184be: ed db        	beqz	a5, 0x184b0 <_read_r+0x20>
   184c0: e2 60        	ld	ra, 0x18(sp)
   184c2: 1c c0        	sw	a5, 0x0(s0)
   184c4: 42 64        	ld	s0, 0x10(sp)
   184c6: a2 64        	ld	s1, 0x8(sp)
   184c8: 05 61        	addi	sp, sp, 0x20
   184ca: 82 80        	ret

00000000000184cc <_sbrk_r>:
   184cc: 01 11        	addi	sp, sp, -0x20
   184ce: 22 e8        	sd	s0, 0x10(sp)
   184d0: 26 e4        	sd	s1, 0x8(sp)
   184d2: 2a 84        	mv	s0, a0
   184d4: 2e 85        	mv	a0, a1
   184d6: 06 ec        	sd	ra, 0x18(sp)
   184d8: 23 a0 01 26  	sw	zero, 0x260(gp)
   184dc: ef 70 40 45  	jal	0x1f930 <_sbrk>
   184e0: fd 57        	li	a5, -0x1
   184e2: 63 07 f5 00  	beq	a0, a5, 0x184f0 <_sbrk_r+0x24>
   184e6: e2 60        	ld	ra, 0x18(sp)
   184e8: 42 64        	ld	s0, 0x10(sp)
   184ea: a2 64        	ld	s1, 0x8(sp)
   184ec: 05 61        	addi	sp, sp, 0x20
   184ee: 82 80        	ret
   184f0: 83 a7 01 26  	lw	a5, 0x260(gp)
   184f4: ed db        	beqz	a5, 0x184e6 <_sbrk_r+0x1a>
   184f6: e2 60        	ld	ra, 0x18(sp)
   184f8: 1c c0        	sw	a5, 0x0(s0)
   184fa: 42 64        	ld	s0, 0x10(sp)
   184fc: a2 64        	ld	s1, 0x8(sp)
   184fe: 05 61        	addi	sp, sp, 0x20
   18500: 82 80        	ret

0000000000018502 <_write_r>:
   18502: 01 11        	addi	sp, sp, -0x20
   18504: 2e 87        	mv	a4, a1
   18506: 22 e8        	sd	s0, 0x10(sp)
   18508: 26 e4        	sd	s1, 0x8(sp)
   1850a: b2 85        	mv	a1, a2
   1850c: 2a 84        	mv	s0, a0
   1850e: 36 86        	mv	a2, a3
   18510: 3a 85        	mv	a0, a4
   18512: 06 ec        	sd	ra, 0x18(sp)
   18514: 23 a0 01 26  	sw	zero, 0x260(gp)
   18518: ef 70 c0 46  	jal	0x1f984 <_write>
   1851c: fd 57        	li	a5, -0x1
   1851e: 63 07 f5 00  	beq	a0, a5, 0x1852c <_write_r+0x2a>
   18522: e2 60        	ld	ra, 0x18(sp)
   18524: 42 64        	ld	s0, 0x10(sp)
   18526: a2 64        	ld	s1, 0x8(sp)
   18528: 05 61        	addi	sp, sp, 0x20
   1852a: 82 80        	ret
   1852c: 83 a7 01 26  	lw	a5, 0x260(gp)
   18530: ed db        	beqz	a5, 0x18522 <_write_r+0x20>
   18532: e2 60        	ld	ra, 0x18(sp)
   18534: 1c c0        	sw	a5, 0x0(s0)
   18536: 42 64        	ld	s0, 0x10(sp)
   18538: a2 64        	ld	s1, 0x8(sp)
   1853a: 05 61        	addi	sp, sp, 0x20
   1853c: 82 80        	ret

000000000001853e <__errno>:
   1853e: 03 b5 01 23  	ld	a0, 0x230(gp)
   18542: 82 80        	ret

0000000000018544 <__libc_init_array>:
   18544: 01 11        	addi	sp, sp, -0x20
   18546: 22 e8        	sd	s0, 0x10(sp)
   18548: b7 27 02 00  	lui	a5, 0x22
   1854c: 37 24 02 00  	lui	s0, 0x22
   18550: 4a e0        	sd	s2, 0x0(sp)
   18552: 93 87 87 48  	addi	a5, a5, 0x488
   18556: 13 07 84 48  	addi	a4, s0, 0x488
   1855a: 06 ec        	sd	ra, 0x18(sp)
   1855c: 26 e4        	sd	s1, 0x8(sp)
   1855e: 33 89 e7 40  	sub	s2, a5, a4
   18562: 63 8d e7 00  	beq	a5, a4, 0x1857c <__libc_init_array+0x38>
   18566: 13 59 39 40  	srai	s2, s2, 0x3
   1856a: 13 04 84 48  	addi	s0, s0, 0x488
   1856e: 81 44        	li	s1, 0x0
   18570: 1c 60        	ld	a5, 0x0(s0)
   18572: 85 04        	addi	s1, s1, 0x1
   18574: 21 04        	addi	s0, s0, 0x8
   18576: 82 97        	jalr	a5
   18578: e3 ec 24 ff  	bltu	s1, s2, 0x18570 <__libc_init_array+0x2c>
   1857c: 37 24 02 00  	lui	s0, 0x22
   18580: b7 27 02 00  	lui	a5, 0x22
   18584: 93 87 87 49  	addi	a5, a5, 0x498
   18588: 13 07 84 48  	addi	a4, s0, 0x488
   1858c: 33 89 e7 40  	sub	s2, a5, a4
   18590: 13 59 39 40  	srai	s2, s2, 0x3
   18594: 63 8b e7 00  	beq	a5, a4, 0x185aa <__libc_init_array+0x66>
   18598: 13 04 84 48  	addi	s0, s0, 0x488
   1859c: 81 44        	li	s1, 0x0
   1859e: 1c 60        	ld	a5, 0x0(s0)
   185a0: 85 04        	addi	s1, s1, 0x1
   185a2: 21 04        	addi	s0, s0, 0x8
   185a4: 82 97        	jalr	a5
   185a6: e3 ec 24 ff  	bltu	s1, s2, 0x1859e <__libc_init_array+0x5a>
   185aa: e2 60        	ld	ra, 0x18(sp)
   185ac: 42 64        	ld	s0, 0x10(sp)
   185ae: a2 64        	ld	s1, 0x8(sp)
   185b0: 02 69        	ld	s2, 0x0(sp)
   185b2: 05 61        	addi	sp, sp, 0x20
   185b4: 82 80        	ret

00000000000185b6 <memset>:
   185b6: 3d 43        	li	t1, 0xf
   185b8: 2a 87        	mv	a4, a0
   185ba: 63 71 c3 02  	bgeu	t1, a2, 0x185dc <memset+0x26>
   185be: 93 77 f7 00  	andi	a5, a4, 0xf
   185c2: c1 e3        	bnez	a5, 0x18642 <memset+0x8c>
   185c4: bd e1        	bnez	a1, 0x1862a <memset+0x74>
   185c6: 93 76 06 ff  	andi	a3, a2, -0x10
   185ca: 3d 8a        	andi	a2, a2, 0xf
   185cc: ba 96        	add	a3, a3, a4
   185ce: 0c e3        	sd	a1, 0x0(a4)
   185d0: 0c e7        	sd	a1, 0x8(a4)
   185d2: 41 07        	addi	a4, a4, 0x10
   185d4: e3 6d d7 fe  	bltu	a4, a3, 0x185ce <memset+0x18>
   185d8: 11 e2        	bnez	a2, 0x185dc <memset+0x26>
   185da: 82 80        	ret
   185dc: b3 06 c3 40  	sub	a3, t1, a2
   185e0: 8a 06        	slli	a3, a3, 0x2
   185e2: 97 02 00 00  	auipc	t0, 0x0
   185e6: 96 96        	add	a3, a3, t0
   185e8: 67 80 a6 00  	jr	0xa(a3)
   185ec: 23 07 b7 00  	sb	a1, 0xe(a4)
   185f0: a3 06 b7 00  	sb	a1, 0xd(a4)
   185f4: 23 06 b7 00  	sb	a1, 0xc(a4)
   185f8: a3 05 b7 00  	sb	a1, 0xb(a4)
   185fc: 23 05 b7 00  	sb	a1, 0xa(a4)
   18600: a3 04 b7 00  	sb	a1, 0x9(a4)
   18604: 23 04 b7 00  	sb	a1, 0x8(a4)
   18608: a3 03 b7 00  	sb	a1, 0x7(a4)
   1860c: 23 03 b7 00  	sb	a1, 0x6(a4)
   18610: a3 02 b7 00  	sb	a1, 0x5(a4)
   18614: 23 02 b7 00  	sb	a1, 0x4(a4)
   18618: a3 01 b7 00  	sb	a1, 0x3(a4)
   1861c: 23 01 b7 00  	sb	a1, 0x2(a4)
   18620: a3 00 b7 00  	sb	a1, 0x1(a4)
   18624: 23 00 b7 00  	sb	a1, 0x0(a4)
   18628: 82 80        	ret
   1862a: 93 f5 f5 0f  	andi	a1, a1, 0xff
   1862e: 93 96 85 00  	slli	a3, a1, 0x8
   18632: d5 8d        	or	a1, a1, a3
   18634: 93 96 05 01  	slli	a3, a1, 0x10
   18638: d5 8d        	or	a1, a1, a3
   1863a: 93 96 05 02  	slli	a3, a1, 0x20
   1863e: d5 8d        	or	a1, a1, a3
   18640: 59 b7        	j	0x185c6 <memset+0x10>
   18642: 93 96 27 00  	slli	a3, a5, 0x2
   18646: 97 02 00 00  	auipc	t0, 0x0
   1864a: 96 96        	add	a3, a3, t0
   1864c: 86 82        	mv	t0, ra
   1864e: e7 80 26 fa  	jalr	-0x5e(a3)
   18652: 96 80        	mv	ra, t0
   18654: c1 17        	addi	a5, a5, -0x10
   18656: 1d 8f        	sub	a4, a4, a5
   18658: 3e 96        	add	a2, a2, a5
   1865a: e3 71 c3 f8  	bgeu	t1, a2, 0x185dc <memset+0x26>
   1865e: 9d b7        	j	0x185c4 <memset+0xe>

0000000000018660 <memcpy>:
   18660: b3 c7 a5 00  	xor	a5, a1, a0
   18664: 9d 8b        	andi	a5, a5, 0x7
   18666: b3 08 c5 00  	add	a7, a0, a2
   1866a: b1 e7        	bnez	a5, 0x186b6 <memcpy+0x56>
   1866c: 9d 47        	li	a5, 0x7
   1866e: 63 f4 c7 04  	bgeu	a5, a2, 0x186b6 <memcpy+0x56>
   18672: 93 77 75 00  	andi	a5, a0, 0x7
   18676: 2a 87        	mv	a4, a0
   18678: b9 eb        	bnez	a5, 0x186ce <memcpy+0x6e>
   1867a: 13 f6 88 ff  	andi	a2, a7, -0x8
   1867e: b3 06 e6 40  	sub	a3, a2, a4
   18682: 93 07 00 04  	li	a5, 0x40
   18686: 63 c8 d7 06  	blt	a5, a3, 0x186f6 <memcpy+0x96>
   1868a: ae 86        	mv	a3, a1
   1868c: ba 87        	mv	a5, a4
   1868e: 63 71 c7 02  	bgeu	a4, a2, 0x186b0 <memcpy+0x50>
   18692: 03 b8 06 00  	ld	a6, 0x0(a3)
   18696: a1 07        	addi	a5, a5, 0x8
   18698: a1 06        	addi	a3, a3, 0x8
   1869a: 23 bc 07 ff  	sd	a6, -0x8(a5)
   1869e: e3 ea c7 fe  	bltu	a5, a2, 0x18692 <memcpy+0x32>
   186a2: 93 07 f6 ff  	addi	a5, a2, -0x1
   186a6: 99 8f        	sub	a5, a5, a4
   186a8: e1 9b        	andi	a5, a5, -0x8
   186aa: a1 07        	addi	a5, a5, 0x8
   186ac: 3e 97        	add	a4, a4, a5
   186ae: be 95        	add	a1, a1, a5
   186b0: 63 66 17 01  	bltu	a4, a7, 0x186bc <memcpy+0x5c>
   186b4: 82 80        	ret
   186b6: 2a 87        	mv	a4, a0
   186b8: 63 7e 15 03  	bgeu	a0, a7, 0x186f4 <memcpy+0x94>
   186bc: 83 c7 05 00  	lbu	a5, 0x0(a1)
   186c0: 05 07        	addi	a4, a4, 0x1
   186c2: 85 05        	addi	a1, a1, 0x1
   186c4: a3 0f f7 fe  	sb	a5, -0x1(a4)
   186c8: e3 9a e8 fe  	bne	a7, a4, 0x186bc <memcpy+0x5c>
   186cc: 82 80        	ret
   186ce: 83 c6 05 00  	lbu	a3, 0x0(a1)
   186d2: 05 07        	addi	a4, a4, 0x1
   186d4: 93 77 77 00  	andi	a5, a4, 0x7
   186d8: a3 0f d7 fe  	sb	a3, -0x1(a4)
   186dc: 85 05        	addi	a1, a1, 0x1
   186de: d1 df        	beqz	a5, 0x1867a <memcpy+0x1a>
   186e0: 83 c6 05 00  	lbu	a3, 0x0(a1)
   186e4: 05 07        	addi	a4, a4, 0x1
   186e6: 93 77 77 00  	andi	a5, a4, 0x7
   186ea: a3 0f d7 fe  	sb	a3, -0x1(a4)
   186ee: 85 05        	addi	a1, a1, 0x1
   186f0: f9 ff        	bnez	a5, 0x186ce <memcpy+0x6e>
   186f2: 61 b7        	j	0x1867a <memcpy+0x1a>
   186f4: 82 80        	ret
   186f6: 41 11        	addi	sp, sp, -0x10
   186f8: 22 e4        	sd	s0, 0x8(sp)
   186fa: 13 04 00 04  	li	s0, 0x40
   186fe: 83 b3 05 00  	ld	t2, 0x0(a1)
   18702: 83 b2 85 00  	ld	t0, 0x8(a1)
   18706: 83 bf 05 01  	ld	t6, 0x10(a1)
   1870a: 03 bf 85 01  	ld	t5, 0x18(a1)
   1870e: 83 be 05 02  	ld	t4, 0x20(a1)
   18712: 03 be 85 02  	ld	t3, 0x28(a1)
   18716: 03 b3 05 03  	ld	t1, 0x30(a1)
   1871a: 03 b8 85 03  	ld	a6, 0x38(a1)
   1871e: b4 61        	ld	a3, 0x40(a1)
   18720: 13 07 87 04  	addi	a4, a4, 0x48
   18724: b3 07 e6 40  	sub	a5, a2, a4
   18728: 23 3c 77 fa  	sd	t2, -0x48(a4)
   1872c: 23 30 57 fc  	sd	t0, -0x40(a4)
   18730: 23 34 f7 fd  	sd	t6, -0x38(a4)
   18734: 23 38 e7 fd  	sd	t5, -0x30(a4)
   18738: 23 3c d7 fd  	sd	t4, -0x28(a4)
   1873c: 23 30 c7 ff  	sd	t3, -0x20(a4)
   18740: 23 34 67 fe  	sd	t1, -0x18(a4)
   18744: 23 38 07 ff  	sd	a6, -0x10(a4)
   18748: 23 3c d7 fe  	sd	a3, -0x8(a4)
   1874c: 93 85 85 04  	addi	a1, a1, 0x48
   18750: e3 47 f4 fa  	blt	s0, a5, 0x186fe <memcpy+0x9e>
   18754: ae 86        	mv	a3, a1
   18756: ba 87        	mv	a5, a4
   18758: 63 71 c7 02  	bgeu	a4, a2, 0x1877a <memcpy+0x11a>
   1875c: 03 b8 06 00  	ld	a6, 0x0(a3)
   18760: a1 07        	addi	a5, a5, 0x8
   18762: a1 06        	addi	a3, a3, 0x8
   18764: 23 bc 07 ff  	sd	a6, -0x8(a5)
   18768: e3 ea c7 fe  	bltu	a5, a2, 0x1875c <memcpy+0xfc>
   1876c: 93 07 f6 ff  	addi	a5, a2, -0x1
   18770: 99 8f        	sub	a5, a5, a4
   18772: e1 9b        	andi	a5, a5, -0x8
   18774: a1 07        	addi	a5, a5, 0x8
   18776: 3e 97        	add	a4, a4, a5
   18778: be 95        	add	a1, a1, a5
   1877a: 63 65 17 01  	bltu	a4, a7, 0x18784 <memcpy+0x124>
   1877e: 22 64        	ld	s0, 0x8(sp)
   18780: 41 01        	addi	sp, sp, 0x10
   18782: 82 80        	ret
   18784: 83 c7 05 00  	lbu	a5, 0x0(a1)
   18788: 05 07        	addi	a4, a4, 0x1
   1878a: 85 05        	addi	a1, a1, 0x1
   1878c: a3 0f f7 fe  	sb	a5, -0x1(a4)
   18790: e3 87 e8 fe  	beq	a7, a4, 0x1877e <memcpy+0x11e>
   18794: 83 c7 05 00  	lbu	a5, 0x0(a1)
   18798: 05 07        	addi	a4, a4, 0x1
   1879a: 85 05        	addi	a1, a1, 0x1
   1879c: a3 0f f7 fe  	sb	a5, -0x1(a4)
   187a0: e3 92 e8 fe  	bne	a7, a4, 0x18784 <memcpy+0x124>
   187a4: e9 bf        	j	0x1877e <memcpy+0x11e>

00000000000187a6 <strlen>:
   187a6: 93 77 75 00  	andi	a5, a0, 0x7
   187aa: 2a 87        	mv	a4, a0
   187ac: b5 e3        	bnez	a5, 0x18810 <strlen+0x6a>
   187ae: b7 f6 ef 0f  	lui	a3, 0xfeff
   187b2: 92 06        	slli	a3, a3, 0x4
   187b4: 93 86 f6 ef  	addi	a3, a3, -0x101
   187b8: c2 06        	slli	a3, a3, 0x10
   187ba: 93 86 f6 ef  	addi	a3, a3, -0x101
   187be: be 06        	slli	a3, a3, 0xf
   187c0: 93 86 f6 f7  	addi	a3, a3, -0x81
   187c4: fd 55        	li	a1, -0x1
   187c6: 10 63        	ld	a2, 0x0(a4)
   187c8: 21 07        	addi	a4, a4, 0x8
   187ca: b3 77 d6 00  	and	a5, a2, a3
   187ce: b6 97        	add	a5, a5, a3
   187d0: d1 8f        	or	a5, a5, a2
   187d2: d5 8f        	or	a5, a5, a3
   187d4: e3 89 b7 fe  	beq	a5, a1, 0x187c6 <strlen+0x20>
   187d8: 83 46 87 ff  	lbu	a3, -0x8(a4)
   187dc: b3 07 a7 40  	sub	a5, a4, a0
   187e0: a9 c6        	beqz	a3, 0x1882a <strlen+0x84>
   187e2: 83 46 97 ff  	lbu	a3, -0x7(a4)
   187e6: 9d ce        	beqz	a3, 0x18824 <strlen+0x7e>
   187e8: 83 46 a7 ff  	lbu	a3, -0x6(a4)
   187ec: a9 c6        	beqz	a3, 0x18836 <strlen+0x90>
   187ee: 83 46 b7 ff  	lbu	a3, -0x5(a4)
   187f2: 9d ce        	beqz	a3, 0x18830 <strlen+0x8a>
   187f4: 83 46 c7 ff  	lbu	a3, -0x4(a4)
   187f8: b1 c2        	beqz	a3, 0x1883c <strlen+0x96>
   187fa: 83 46 d7 ff  	lbu	a3, -0x3(a4)
   187fe: b1 c2        	beqz	a3, 0x18842 <strlen+0x9c>
   18800: 03 45 e7 ff  	lbu	a0, -0x2(a4)
   18804: 33 35 a0 00  	snez	a0, a0
   18808: 3e 95        	add	a0, a0, a5
   1880a: 79 15        	addi	a0, a0, -0x2
   1880c: 82 80        	ret
   1880e: c5 d2        	beqz	a3, 0x187ae <strlen+0x8>
   18810: 83 47 07 00  	lbu	a5, 0x0(a4)
   18814: 05 07        	addi	a4, a4, 0x1
   18816: 93 76 77 00  	andi	a3, a4, 0x7
   1881a: f5 fb        	bnez	a5, 0x1880e <strlen+0x68>
   1881c: 09 8f        	sub	a4, a4, a0
   1881e: 13 05 f7 ff  	addi	a0, a4, -0x1
   18822: 82 80        	ret
   18824: 13 85 97 ff  	addi	a0, a5, -0x7
   18828: 82 80        	ret
   1882a: 13 85 87 ff  	addi	a0, a5, -0x8
   1882e: 82 80        	ret
   18830: 13 85 b7 ff  	addi	a0, a5, -0x5
   18834: 82 80        	ret
   18836: 13 85 a7 ff  	addi	a0, a5, -0x6
   1883a: 82 80        	ret
   1883c: 13 85 c7 ff  	addi	a0, a5, -0x4
   18840: 82 80        	ret
   18842: 13 85 d7 ff  	addi	a0, a5, -0x3
   18846: 82 80        	ret

0000000000018848 <strcmp>:
   18848: 33 67 b5 00  	or	a4, a0, a1
   1884c: fd 53        	li	t2, -0x1
   1884e: 1d 8b        	andi	a4, a4, 0x7
   18850: 4d eb        	bnez	a4, 0x18902 <strcmp+0xba>
   18852: 97 b7 00 00  	auipc	a5, 0xb
   18856: 83 b7 e7 84  	ld	a5, -0x7b2(a5)
   1885a: 10 61        	ld	a2, 0x0(a0)
   1885c: 94 61        	ld	a3, 0x0(a1)
   1885e: b3 72 f6 00  	and	t0, a2, a5
   18862: 33 63 f6 00  	or	t1, a2, a5
   18866: be 92        	add	t0, t0, a5
   18868: b3 e2 62 00  	or	t0, t0, t1
   1886c: 63 99 72 0a  	bne	t0, t2, 0x1891e <strcmp+0xd6>
   18870: 63 1e d6 02  	bne	a2, a3, 0x188ac <strcmp+0x64>
   18874: 10 65        	ld	a2, 0x8(a0)
   18876: 94 65        	ld	a3, 0x8(a1)
   18878: b3 72 f6 00  	and	t0, a2, a5
   1887c: 33 63 f6 00  	or	t1, a2, a5
   18880: be 92        	add	t0, t0, a5
   18882: b3 e2 62 00  	or	t0, t0, t1
   18886: 63 9a 72 08  	bne	t0, t2, 0x1891a <strcmp+0xd2>
   1888a: 63 11 d6 02  	bne	a2, a3, 0x188ac <strcmp+0x64>
   1888e: 10 69        	ld	a2, 0x10(a0)
   18890: 94 69        	ld	a3, 0x10(a1)
   18892: b3 72 f6 00  	and	t0, a2, a5
   18896: 33 63 f6 00  	or	t1, a2, a5
   1889a: be 92        	add	t0, t0, a5
   1889c: b3 e2 62 00  	or	t0, t0, t1
   188a0: 63 93 72 08  	bne	t0, t2, 0x18926 <strcmp+0xde>
   188a4: 61 05        	addi	a0, a0, 0x18
   188a6: e1 05        	addi	a1, a1, 0x18
   188a8: e3 09 d6 fa  	beq	a2, a3, 0x1885a <strcmp+0x12>
   188ac: 13 17 06 03  	slli	a4, a2, 0x30
   188b0: 93 97 06 03  	slli	a5, a3, 0x30
   188b4: 63 18 f7 02  	bne	a4, a5, 0x188e4 <strcmp+0x9c>
   188b8: 13 17 06 02  	slli	a4, a2, 0x20
   188bc: 93 97 06 02  	slli	a5, a3, 0x20
   188c0: 63 12 f7 02  	bne	a4, a5, 0x188e4 <strcmp+0x9c>
   188c4: 13 17 06 01  	slli	a4, a2, 0x10
   188c8: 93 97 06 01  	slli	a5, a3, 0x10
   188cc: 63 1c f7 00  	bne	a4, a5, 0x188e4 <strcmp+0x9c>
   188d0: 13 57 06 03  	srli	a4, a2, 0x30
   188d4: 93 d7 06 03  	srli	a5, a3, 0x30
   188d8: 33 05 f7 40  	sub	a0, a4, a5
   188dc: 93 75 f5 0f  	andi	a1, a0, 0xff
   188e0: 91 e9        	bnez	a1, 0x188f4 <strcmp+0xac>
   188e2: 82 80        	ret
   188e4: 41 93        	srli	a4, a4, 0x30
   188e6: c1 93        	srli	a5, a5, 0x30
   188e8: 33 05 f7 40  	sub	a0, a4, a5
   188ec: 93 75 f5 0f  	andi	a1, a0, 0xff
   188f0: 91 e1        	bnez	a1, 0x188f4 <strcmp+0xac>
   188f2: 82 80        	ret
   188f4: 13 77 f7 0f  	andi	a4, a4, 0xff
   188f8: 93 f7 f7 0f  	andi	a5, a5, 0xff
   188fc: 33 05 f7 40  	sub	a0, a4, a5
   18900: 82 80        	ret
   18902: 03 46 05 00  	lbu	a2, 0x0(a0)
   18906: 83 c6 05 00  	lbu	a3, 0x0(a1)
   1890a: 05 05        	addi	a0, a0, 0x1
   1890c: 85 05        	addi	a1, a1, 0x1
   1890e: 63 13 d6 00  	bne	a2, a3, 0x18914 <strcmp+0xcc>
   18912: 65 fa        	bnez	a2, 0x18902 <strcmp+0xba>
   18914: 33 05 d6 40  	sub	a0, a2, a3
   18918: 82 80        	ret
   1891a: 21 05        	addi	a0, a0, 0x8
   1891c: a1 05        	addi	a1, a1, 0x8
   1891e: e3 12 d6 fe  	bne	a2, a3, 0x18902 <strcmp+0xba>
   18922: 01 45        	li	a0, 0x0
   18924: 82 80        	ret
   18926: 41 05        	addi	a0, a0, 0x10
   18928: c1 05        	addi	a1, a1, 0x10
   1892a: e3 1c d6 fc  	bne	a2, a3, 0x18902 <strcmp+0xba>
   1892e: 01 45        	li	a0, 0x0
   18930: 82 80        	ret

0000000000018932 <nan>:
   18932: 07 b5 01 16  	fld	fa0, 0x160(gp)
   18936: 82 80        	ret

0000000000018938 <nanf>:
   18938: 07 a5 c1 1b  	flw	fa0, 0x1bc(gp)
   1893c: 82 80        	ret

000000000001893e <__call_exitprocs>:
   1893e: 5d 71        	addi	sp, sp, -0x50
   18940: 52 f0        	sd	s4, 0x20(sp)
   18942: 4a f8        	sd	s2, 0x30(sp)
   18944: 03 b9 81 26  	ld	s2, 0x268(gp)
   18948: 86 e4        	sd	ra, 0x48(sp)
   1894a: 63 0d 09 06  	beqz	s2, 0x189c4 <__call_exitprocs+0x86>
   1894e: 4e f4        	sd	s3, 0x28(sp)
   18950: 56 ec        	sd	s5, 0x18(sp)
   18952: 5a e8        	sd	s6, 0x10(sp)
   18954: 5e e4        	sd	s7, 0x8(sp)
   18956: a2 e0        	sd	s0, 0x40(sp)
   18958: 26 fc        	sd	s1, 0x38(sp)
   1895a: 62 e0        	sd	s8, 0x0(sp)
   1895c: 2a 8b        	mv	s6, a0
   1895e: ae 8b        	mv	s7, a1
   18960: fd 59        	li	s3, -0x1
   18962: 85 4a        	li	s5, 0x1
   18964: 83 24 89 00  	lw	s1, 0x8(s2)
   18968: 1b 84 f4 ff  	addiw	s0, s1, -0x1
   1896c: 63 45 04 04  	bltz	s0, 0x189b6 <__call_exitprocs+0x78>
   18970: 8e 04        	slli	s1, s1, 0x3
   18972: ca 94        	add	s1, s1, s2
   18974: 63 9d 0b 04  	bnez	s7, 0x189ce <__call_exitprocs+0x90>
   18978: 83 27 89 00  	lw	a5, 0x8(s2)
   1897c: 98 64        	ld	a4, 0x8(s1)
   1897e: fd 37        	addiw	a5, a5, -0x1
   18980: 63 82 87 08  	beq	a5, s0, 0x18a04 <__call_exitprocs+0xc6>
   18984: 23 b4 04 00  	sd	zero, 0x8(s1)
   18988: 1d c3        	beqz	a4, 0x189ae <__call_exitprocs+0x70>
   1898a: 83 27 09 31  	lw	a5, 0x310(s2)
   1898e: bb 96 8a 00  	sllw	a3, s5, s0
   18992: 03 2c 89 00  	lw	s8, 0x8(s2)
   18996: f5 8f        	and	a5, a5, a3
   18998: 81 27        	sext.w	a5, a5
   1899a: b9 e3        	bnez	a5, 0x189e0 <__call_exitprocs+0xa2>
   1899c: 02 97        	jalr	a4
   1899e: 03 27 89 00  	lw	a4, 0x8(s2)
   189a2: 83 b7 81 26  	ld	a5, 0x268(gp)
   189a6: 63 1c 87 05  	bne	a4, s8, 0x189fe <__call_exitprocs+0xc0>
   189aa: 63 9a 27 05  	bne	a5, s2, 0x189fe <__call_exitprocs+0xc0>
   189ae: 7d 34        	addiw	s0, s0, -0x1
   189b0: e1 14        	addi	s1, s1, -0x8
   189b2: e3 11 34 fd  	bne	s0, s3, 0x18974 <__call_exitprocs+0x36>
   189b6: 06 64        	ld	s0, 0x40(sp)
   189b8: e2 74        	ld	s1, 0x38(sp)
   189ba: a2 79        	ld	s3, 0x28(sp)
   189bc: e2 6a        	ld	s5, 0x18(sp)
   189be: 42 6b        	ld	s6, 0x10(sp)
   189c0: a2 6b        	ld	s7, 0x8(sp)
   189c2: 02 6c        	ld	s8, 0x0(sp)
   189c4: a6 60        	ld	ra, 0x48(sp)
   189c6: 42 79        	ld	s2, 0x30(sp)
   189c8: 02 7a        	ld	s4, 0x20(sp)
   189ca: 61 61        	addi	sp, sp, 0x50
   189cc: 82 80        	ret
   189ce: 83 b7 84 20  	ld	a5, 0x208(s1)
   189d2: e3 83 77 fb  	beq	a5, s7, 0x18978 <__call_exitprocs+0x3a>
   189d6: 7d 34        	addiw	s0, s0, -0x1
   189d8: e1 14        	addi	s1, s1, -0x8
   189da: e3 1a 34 ff  	bne	s0, s3, 0x189ce <__call_exitprocs+0x90>
   189de: e1 bf        	j	0x189b6 <__call_exitprocs+0x78>
   189e0: 83 27 49 31  	lw	a5, 0x314(s2)
   189e4: 83 b5 84 10  	ld	a1, 0x108(s1)
   189e8: f5 8f        	and	a5, a5, a3
   189ea: 81 27        	sext.w	a5, a5
   189ec: 99 ef        	bnez	a5, 0x18a0a <__call_exitprocs+0xcc>
   189ee: 5a 85        	mv	a0, s6
   189f0: 02 97        	jalr	a4
   189f2: 03 27 89 00  	lw	a4, 0x8(s2)
   189f6: 83 b7 81 26  	ld	a5, 0x268(gp)
   189fa: e3 08 87 fb  	beq	a4, s8, 0x189aa <__call_exitprocs+0x6c>
   189fe: c5 df        	beqz	a5, 0x189b6 <__call_exitprocs+0x78>
   18a00: 3e 89        	mv	s2, a5
   18a02: 8d b7        	j	0x18964 <__call_exitprocs+0x26>
   18a04: 23 24 89 00  	sw	s0, 0x8(s2)
   18a08: 41 b7        	j	0x18988 <__call_exitprocs+0x4a>
   18a0a: 2e 85        	mv	a0, a1
   18a0c: 02 97        	jalr	a4
   18a0e: 41 bf        	j	0x1899e <__call_exitprocs+0x60>

0000000000018a10 <atexit>:
   18a10: aa 85        	mv	a1, a0
   18a12: 81 46        	li	a3, 0x0
   18a14: 01 46        	li	a2, 0x0
   18a16: 01 45        	li	a0, 0x0
   18a18: 6f 40 b0 5a  	j	0x1d7c2 <__register_exitproc>

0000000000018a1c <_malloc_trim_r>:
   18a1c: 79 71        	addi	sp, sp, -0x30
   18a1e: 4e e4        	sd	s3, 0x8(sp)
   18a20: b7 29 02 00  	lui	s3, 0x22
   18a24: 22 f0        	sd	s0, 0x20(sp)
   18a26: 26 ec        	sd	s1, 0x18(sp)
   18a28: 4a e8        	sd	s2, 0x10(sp)
   18a2a: 52 e0        	sd	s4, 0x0(sp)
   18a2c: 06 f4        	sd	ra, 0x28(sp)
   18a2e: 2e 8a        	mv	s4, a1
   18a30: 2a 89        	mv	s2, a0
   18a32: 93 89 09 4a  	addi	s3, s3, 0x4a0
   18a36: ef d0 cf a9  	jal	0x15cd2 <__malloc_lock>
   18a3a: 03 b7 09 01  	ld	a4, 0x10(s3)
   18a3e: 85 67        	lui	a5, 0x1
   18a40: 93 87 f7 fd  	addi	a5, a5, -0x21
   18a44: 04 67        	ld	s1, 0x8(a4)
   18a46: 05 67        	lui	a4, 0x1
   18a48: f1 98        	andi	s1, s1, -0x4
   18a4a: 33 84 f4 00  	add	s0, s1, a5
   18a4e: 33 04 44 41  	sub	s0, s0, s4
   18a52: 31 80        	srli	s0, s0, 0xc
   18a54: 7d 14        	addi	s0, s0, -0x1
   18a56: 32 04        	slli	s0, s0, 0xc
   18a58: 63 4b e4 00  	blt	s0, a4, 0x18a6e <_malloc_trim_r+0x52>
   18a5c: 81 45        	li	a1, 0x0
   18a5e: 4a 85        	mv	a0, s2
   18a60: ef f0 df a6  	jal	0x184cc <_sbrk_r>
   18a64: 83 b7 09 01  	ld	a5, 0x10(s3)
   18a68: a6 97        	add	a5, a5, s1
   18a6a: 63 0e f5 00  	beq	a0, a5, 0x18a86 <_malloc_trim_r+0x6a>
   18a6e: 4a 85        	mv	a0, s2
   18a70: ef d0 4f a6  	jal	0x15cd4 <__malloc_unlock>
   18a74: a2 70        	ld	ra, 0x28(sp)
   18a76: 02 74        	ld	s0, 0x20(sp)
   18a78: e2 64        	ld	s1, 0x18(sp)
   18a7a: 42 69        	ld	s2, 0x10(sp)
   18a7c: a2 69        	ld	s3, 0x8(sp)
   18a7e: 02 6a        	ld	s4, 0x0(sp)
   18a80: 01 45        	li	a0, 0x0
   18a82: 45 61        	addi	sp, sp, 0x30
   18a84: 82 80        	ret
   18a86: b3 05 80 40  	neg	a1, s0
   18a8a: 4a 85        	mv	a0, s2
   18a8c: ef f0 1f a4  	jal	0x184cc <_sbrk_r>
   18a90: fd 57        	li	a5, -0x1
   18a92: 63 09 f5 02  	beq	a0, a5, 0x18ac4 <_malloc_trim_r+0xa8>
   18a96: 93 87 01 2b  	addi	a5, gp, 0x2b0
   18a9a: 98 43        	lw	a4, 0x0(a5)
   18a9c: 83 b6 09 01  	ld	a3, 0x10(s3)
   18aa0: 81 8c        	sub	s1, s1, s0
   18aa2: 93 e4 14 00  	ori	s1, s1, 0x1
   18aa6: 01 9f        	subw	a4, a4, s0
   18aa8: 4a 85        	mv	a0, s2
   18aaa: 84 e6        	sd	s1, 0x8(a3)
   18aac: 98 c3        	sw	a4, 0x0(a5)
   18aae: ef d0 6f a2  	jal	0x15cd4 <__malloc_unlock>
   18ab2: a2 70        	ld	ra, 0x28(sp)
   18ab4: 02 74        	ld	s0, 0x20(sp)
   18ab6: e2 64        	ld	s1, 0x18(sp)
   18ab8: 42 69        	ld	s2, 0x10(sp)
   18aba: a2 69        	ld	s3, 0x8(sp)
   18abc: 02 6a        	ld	s4, 0x0(sp)
   18abe: 05 45        	li	a0, 0x1
   18ac0: 45 61        	addi	sp, sp, 0x30
   18ac2: 82 80        	ret
   18ac4: 81 45        	li	a1, 0x0
   18ac6: 4a 85        	mv	a0, s2
   18ac8: ef f0 5f a0  	jal	0x184cc <_sbrk_r>
   18acc: 03 b7 09 01  	ld	a4, 0x10(s3)
   18ad0: fd 46        	li	a3, 0x1f
   18ad2: b3 07 e5 40  	sub	a5, a0, a4
   18ad6: e3 dc f6 f8  	bge	a3, a5, 0x18a6e <_malloc_trim_r+0x52>
   18ada: 83 b6 01 22  	ld	a3, 0x220(gp)
   18ade: 93 e7 17 00  	ori	a5, a5, 0x1
   18ae2: 1c e7        	sd	a5, 0x8(a4)
   18ae4: 15 8d        	sub	a0, a0, a3
   18ae6: 23 a8 a1 2a  	sw	a0, 0x2b0(gp)
   18aea: 51 b7        	j	0x18a6e <_malloc_trim_r+0x52>

0000000000018aec <_free_r>:
   18aec: 63 85 05 12  	beqz	a1, 0x18c16 <_free_r+0x12a>
   18af0: 01 11        	addi	sp, sp, -0x20
   18af2: 22 e8        	sd	s0, 0x10(sp)
   18af4: 26 e4        	sd	s1, 0x8(sp)
   18af6: 2e 84        	mv	s0, a1
   18af8: aa 84        	mv	s1, a0
   18afa: 06 ec        	sd	ra, 0x18(sp)
   18afc: ef d0 6f 9d  	jal	0x15cd2 <__malloc_lock>
   18b00: 03 35 84 ff  	ld	a0, -0x8(s0)
   18b04: 13 07 04 ff  	addi	a4, s0, -0x10
   18b08: b7 25 02 00  	lui	a1, 0x22
   18b0c: 93 77 e5 ff  	andi	a5, a0, -0x2
   18b10: 33 06 f7 00  	add	a2, a4, a5
   18b14: 93 85 05 4a  	addi	a1, a1, 0x4a0
   18b18: 14 66        	ld	a3, 0x8(a2)
   18b1a: 03 b8 05 01  	ld	a6, 0x10(a1)
   18b1e: f1 9a        	andi	a3, a3, -0x4
   18b20: 63 0e c8 12  	beq	a6, a2, 0x18c5c <_free_r+0x170>
   18b24: 14 e6        	sd	a3, 0x8(a2)
   18b26: 05 89        	andi	a0, a0, 0x1
   18b28: 33 08 d6 00  	add	a6, a2, a3
   18b2c: 49 e1        	bnez	a0, 0x18bae <_free_r+0xc2>
   18b2e: 03 33 04 ff  	ld	t1, -0x10(s0)
   18b32: 03 38 88 00  	ld	a6, 0x8(a6)
   18b36: 37 25 02 00  	lui	a0, 0x22
   18b3a: 33 07 67 40  	sub	a4, a4, t1
   18b3e: 83 38 07 01  	ld	a7, 0x10(a4)
   18b42: 13 05 05 4b  	addi	a0, a0, 0x4b0
   18b46: 9a 97        	add	a5, a5, t1
   18b48: 13 78 18 00  	andi	a6, a6, 0x1
   18b4c: 63 8b a8 0e  	beq	a7, a0, 0x18c42 <_free_r+0x156>
   18b50: 03 33 87 01  	ld	t1, 0x18(a4)
   18b54: 23 bc 68 00  	sd	t1, 0x18(a7)
   18b58: 23 38 13 01  	sd	a7, 0x10(t1)
   18b5c: 63 09 08 12  	beqz	a6, 0x18c8e <_free_r+0x1a2>
   18b60: 93 e6 17 00  	ori	a3, a5, 0x1
   18b64: 14 e7        	sd	a3, 0x8(a4)
   18b66: 1c e2        	sd	a5, 0x0(a2)
   18b68: 93 06 f0 1f  	li	a3, 0x1ff
   18b6c: 63 ee f6 04  	bltu	a3, a5, 0x18bc8 <_free_r+0xdc>
   18b70: 8d 83        	srli	a5, a5, 0x3
   18b72: 9b 86 17 00  	addiw	a3, a5, 0x1
   18b76: 9b 96 16 00  	slliw	a3, a3, 0x1
   18b7a: 8e 06        	slli	a3, a3, 0x3
   18b7c: 03 b8 85 00  	ld	a6, 0x8(a1)
   18b80: ae 96        	add	a3, a3, a1
   18b82: 88 62        	ld	a0, 0x0(a3)
   18b84: 1b d6 27 40  	sraiw	a2, a5, 0x2
   18b88: 85 47        	li	a5, 0x1
   18b8a: b3 97 c7 00  	sll	a5, a5, a2
   18b8e: b3 e7 07 01  	or	a5, a5, a6
   18b92: 13 86 06 ff  	addi	a2, a3, -0x10
   18b96: 10 ef        	sd	a2, 0x18(a4)
   18b98: 08 eb        	sd	a0, 0x10(a4)
   18b9a: 9c e5        	sd	a5, 0x8(a1)
   18b9c: 98 e2        	sd	a4, 0x0(a3)
   18b9e: 18 ed        	sd	a4, 0x18(a0)
   18ba0: 42 64        	ld	s0, 0x10(sp)
   18ba2: e2 60        	ld	ra, 0x18(sp)
   18ba4: 26 85        	mv	a0, s1
   18ba6: a2 64        	ld	s1, 0x8(sp)
   18ba8: 05 61        	addi	sp, sp, 0x20
   18baa: 6f d0 af 92  	j	0x15cd4 <__malloc_unlock>
   18bae: 03 35 88 00  	ld	a0, 0x8(a6)
   18bb2: 05 89        	andi	a0, a0, 0x1
   18bb4: 35 c1        	beqz	a0, 0x18c18 <_free_r+0x12c>
   18bb6: 93 e6 17 00  	ori	a3, a5, 0x1
   18bba: 23 3c d4 fe  	sd	a3, -0x8(s0)
   18bbe: 1c e2        	sd	a5, 0x0(a2)
   18bc0: 93 06 f0 1f  	li	a3, 0x1ff
   18bc4: e3 f6 f6 fa  	bgeu	a3, a5, 0x18b70 <_free_r+0x84>
   18bc8: 93 d6 97 00  	srli	a3, a5, 0x9
   18bcc: 11 46        	li	a2, 0x4
   18bce: 63 62 d6 0c  	bltu	a2, a3, 0x18c92 <_free_r+0x1a6>
   18bd2: 93 d6 67 00  	srli	a3, a5, 0x6
   18bd6: 1b 85 96 03  	addiw	a0, a3, 0x39
   18bda: 1b 15 15 00  	slliw	a0, a0, 0x1
   18bde: 1b 86 86 03  	addiw	a2, a3, 0x38
   18be2: 0e 05        	slli	a0, a0, 0x3
   18be4: 2e 95        	add	a0, a0, a1
   18be6: 14 61        	ld	a3, 0x0(a0)
   18be8: 41 15        	addi	a0, a0, -0x10
   18bea: 63 16 d5 00  	bne	a0, a3, 0x18bf6 <_free_r+0x10a>
   18bee: ed a0        	j	0x18cd8 <_free_r+0x1ec>
   18bf0: 94 6a        	ld	a3, 0x10(a3)
   18bf2: 63 06 d5 00  	beq	a0, a3, 0x18bfe <_free_r+0x112>
   18bf6: 90 66        	ld	a2, 0x8(a3)
   18bf8: 71 9a        	andi	a2, a2, -0x4
   18bfa: e3 eb c7 fe  	bltu	a5, a2, 0x18bf0 <_free_r+0x104>
   18bfe: 88 6e        	ld	a0, 0x18(a3)
   18c00: 08 ef        	sd	a0, 0x18(a4)
   18c02: 14 eb        	sd	a3, 0x10(a4)
   18c04: 42 64        	ld	s0, 0x10(sp)
   18c06: 18 e9        	sd	a4, 0x10(a0)
   18c08: e2 60        	ld	ra, 0x18(sp)
   18c0a: 26 85        	mv	a0, s1
   18c0c: a2 64        	ld	s1, 0x8(sp)
   18c0e: 98 ee        	sd	a4, 0x18(a3)
   18c10: 05 61        	addi	sp, sp, 0x20
   18c12: 6f d0 2f 8c  	j	0x15cd4 <__malloc_unlock>
   18c16: 82 80        	ret
   18c18: 37 25 02 00  	lui	a0, 0x22
   18c1c: b6 97        	add	a5, a5, a3
   18c1e: 13 05 05 4b  	addi	a0, a0, 0x4b0
   18c22: 14 6a        	ld	a3, 0x10(a2)
   18c24: 63 80 a6 0a  	beq	a3, a0, 0x18cc4 <_free_r+0x1d8>
   18c28: 03 38 86 01  	ld	a6, 0x18(a2)
   18c2c: 13 e5 17 00  	ori	a0, a5, 0x1
   18c30: 33 06 f7 00  	add	a2, a4, a5
   18c34: 23 bc 06 01  	sd	a6, 0x18(a3)
   18c38: 23 38 d8 00  	sd	a3, 0x10(a6)
   18c3c: 08 e7        	sd	a0, 0x8(a4)
   18c3e: 1c e2        	sd	a5, 0x0(a2)
   18c40: 25 b7        	j	0x18b68 <_free_r+0x7c>
   18c42: 63 17 08 0e  	bnez	a6, 0x18d30 <_free_r+0x244>
   18c46: 0c 6a        	ld	a1, 0x10(a2)
   18c48: 10 6e        	ld	a2, 0x18(a2)
   18c4a: be 96        	add	a3, a3, a5
   18c4c: 93 e7 16 00  	ori	a5, a3, 0x1
   18c50: 90 ed        	sd	a2, 0x18(a1)
   18c52: 0c ea        	sd	a1, 0x10(a2)
   18c54: 1c e7        	sd	a5, 0x8(a4)
   18c56: 36 97        	add	a4, a4, a3
   18c58: 14 e3        	sd	a3, 0x0(a4)
   18c5a: 99 b7        	j	0x18ba0 <_free_r+0xb4>
   18c5c: 05 89        	andi	a0, a0, 0x1
   18c5e: be 96        	add	a3, a3, a5
   18c60: 09 e9        	bnez	a0, 0x18c72 <_free_r+0x186>
   18c62: 03 35 04 ff  	ld	a0, -0x10(s0)
   18c66: 09 8f        	sub	a4, a4, a0
   18c68: 1c 6f        	ld	a5, 0x18(a4)
   18c6a: 10 6b        	ld	a2, 0x10(a4)
   18c6c: aa 96        	add	a3, a3, a0
   18c6e: 1c ee        	sd	a5, 0x18(a2)
   18c70: 90 eb        	sd	a2, 0x10(a5)
   18c72: 13 e6 16 00  	ori	a2, a3, 0x1
   18c76: 83 b7 81 22  	ld	a5, 0x228(gp)
   18c7a: 10 e7        	sd	a2, 0x8(a4)
   18c7c: 98 e9        	sd	a4, 0x10(a1)
   18c7e: e3 e1 f6 f2  	bltu	a3, a5, 0x18ba0 <_free_r+0xb4>
   18c82: 83 b5 81 24  	ld	a1, 0x248(gp)
   18c86: 26 85        	mv	a0, s1
   18c88: ef f0 5f d9  	jal	0x18a1c <_malloc_trim_r>
   18c8c: 11 bf        	j	0x18ba0 <_free_r+0xb4>
   18c8e: b6 97        	add	a5, a5, a3
   18c90: 49 bf        	j	0x18c22 <_free_r+0x136>
   18c92: 51 46        	li	a2, 0x14
   18c94: 63 70 d6 02  	bgeu	a2, a3, 0x18cb4 <_free_r+0x1c8>
   18c98: 13 06 40 05  	li	a2, 0x54
   18c9c: 63 69 d6 04  	bltu	a2, a3, 0x18cee <_free_r+0x202>
   18ca0: 93 d6 c7 00  	srli	a3, a5, 0xc
   18ca4: 1b 85 f6 06  	addiw	a0, a3, 0x6f
   18ca8: 1b 15 15 00  	slliw	a0, a0, 0x1
   18cac: 1b 86 e6 06  	addiw	a2, a3, 0x6e
   18cb0: 0e 05        	slli	a0, a0, 0x3
   18cb2: 0d bf        	j	0x18be4 <_free_r+0xf8>
   18cb4: 1b 85 c6 05  	addiw	a0, a3, 0x5c
   18cb8: 1b 15 15 00  	slliw	a0, a0, 0x1
   18cbc: 1b 86 b6 05  	addiw	a2, a3, 0x5b
   18cc0: 0e 05        	slli	a0, a0, 0x3
   18cc2: 0d b7        	j	0x18be4 <_free_r+0xf8>
   18cc4: 98 f5        	sd	a4, 0x28(a1)
   18cc6: 98 f1        	sd	a4, 0x20(a1)
   18cc8: 93 e6 17 00  	ori	a3, a5, 0x1
   18ccc: 08 ef        	sd	a0, 0x18(a4)
   18cce: 08 eb        	sd	a0, 0x10(a4)
   18cd0: 14 e7        	sd	a3, 0x8(a4)
   18cd2: 3e 97        	add	a4, a4, a5
   18cd4: 1c e3        	sd	a5, 0x0(a4)
   18cd6: e9 b5        	j	0x18ba0 <_free_r+0xb4>
   18cd8: 03 b8 85 00  	ld	a6, 0x8(a1)
   18cdc: 1b 56 26 40  	sraiw	a2, a2, 0x2
   18ce0: 85 47        	li	a5, 0x1
   18ce2: b3 97 c7 00  	sll	a5, a5, a2
   18ce6: b3 e7 07 01  	or	a5, a5, a6
   18cea: 9c e5        	sd	a5, 0x8(a1)
   18cec: 11 bf        	j	0x18c00 <_free_r+0x114>
   18cee: 13 06 40 15  	li	a2, 0x154
   18cf2: 63 6c d6 00  	bltu	a2, a3, 0x18d0a <_free_r+0x21e>
   18cf6: 93 d6 f7 00  	srli	a3, a5, 0xf
   18cfa: 1b 85 86 07  	addiw	a0, a3, 0x78
   18cfe: 1b 15 15 00  	slliw	a0, a0, 0x1
   18d02: 1b 86 76 07  	addiw	a2, a3, 0x77
   18d06: 0e 05        	slli	a0, a0, 0x3
   18d08: f1 bd        	j	0x18be4 <_free_r+0xf8>
   18d0a: 13 06 40 55  	li	a2, 0x554
   18d0e: 63 6c d6 00  	bltu	a2, a3, 0x18d26 <_free_r+0x23a>
   18d12: 93 d6 27 01  	srli	a3, a5, 0x12
   18d16: 1b 85 d6 07  	addiw	a0, a3, 0x7d
   18d1a: 1b 15 15 00  	slliw	a0, a0, 0x1
   18d1e: 1b 86 c6 07  	addiw	a2, a3, 0x7c
   18d22: 0e 05        	slli	a0, a0, 0x3
   18d24: c1 b5        	j	0x18be4 <_free_r+0xf8>
   18d26: 13 05 00 7f  	li	a0, 0x7f0
   18d2a: 13 06 e0 07  	li	a2, 0x7e
   18d2e: 5d bd        	j	0x18be4 <_free_r+0xf8>
   18d30: 93 e6 17 00  	ori	a3, a5, 0x1
   18d34: 14 e7        	sd	a3, 0x8(a4)
   18d36: 1c e2        	sd	a5, 0x0(a2)
   18d38: a5 b5        	j	0x18ba0 <_free_r+0xb4>

0000000000018d3a <rshift>:
   18d3a: 58 49        	lw	a4, 0x14(a0)
   18d3c: 13 de 55 40  	srai	t3, a1, 0x5
   18d40: 63 47 ee 00  	blt	t3, a4, 0x18d4e <rshift+0x14>
   18d44: 23 2a 05 00  	sw	zero, 0x14(a0)
   18d48: 23 2c 05 00  	sw	zero, 0x18(a0)
   18d4c: 82 80        	ret
   18d4e: 13 03 85 01  	addi	t1, a0, 0x18
   18d52: 13 18 27 00  	slli	a6, a4, 0x2
   18d56: 93 17 2e 00  	slli	a5, t3, 0x2
   18d5a: fd 89        	andi	a1, a1, 0x1f
   18d5c: 1a 98        	add	a6, a6, t1
   18d5e: 9a 97        	add	a5, a5, t1
   18d60: b9 c1        	beqz	a1, 0x18da6 <rshift+0x6c>
   18d62: 90 43        	lw	a2, 0x0(a5)
   18d64: 93 0e 00 02  	li	t4, 0x20
   18d68: 91 07        	addi	a5, a5, 0x4
   18d6a: bb 56 b6 00  	srlw	a3, a2, a1
   18d6e: bb 8e be 40  	subw	t4, t4, a1
   18d72: 63 ff 07 05  	bgeu	a5, a6, 0x18dd0 <rshift+0x96>
   18d76: 9a 88        	mv	a7, t1
   18d78: 90 43        	lw	a2, 0x0(a5)
   18d7a: 91 08        	addi	a7, a7, 0x4
   18d7c: 91 07        	addi	a5, a5, 0x4
   18d7e: 3b 16 d6 01  	sllw	a2, a2, t4
   18d82: d1 8e        	or	a3, a3, a2
   18d84: 23 ae d8 fe  	sw	a3, -0x4(a7)
   18d88: 03 a6 c7 ff  	lw	a2, -0x4(a5)
   18d8c: bb 56 b6 00  	srlw	a3, a2, a1
   18d90: e3 e4 07 ff  	bltu	a5, a6, 0x18d78 <rshift+0x3e>
   18d94: 33 07 c7 41  	sub	a4, a4, t3
   18d98: 0a 07        	slli	a4, a4, 0x2
   18d9a: 71 17        	addi	a4, a4, -0x4
   18d9c: 1a 97        	add	a4, a4, t1
   18d9e: 14 c3        	sw	a3, 0x0(a4)
   18da0: 8d c2        	beqz	a3, 0x18dc2 <rshift+0x88>
   18da2: 11 07        	addi	a4, a4, 0x4
   18da4: 39 a8        	j	0x18dc2 <rshift+0x88>
   18da6: 9a 86        	mv	a3, t1
   18da8: e3 fe 07 f9  	bgeu	a5, a6, 0x18d44 <rshift+0xa>
   18dac: 90 43        	lw	a2, 0x0(a5)
   18dae: 91 07        	addi	a5, a5, 0x4
   18db0: 91 06        	addi	a3, a3, 0x4
   18db2: 23 ae c6 fe  	sw	a2, -0x4(a3)
   18db6: e3 eb 07 ff  	bltu	a5, a6, 0x18dac <rshift+0x72>
   18dba: 33 07 c7 41  	sub	a4, a4, t3
   18dbe: 0a 07        	slli	a4, a4, 0x2
   18dc0: 1a 97        	add	a4, a4, t1
   18dc2: 33 07 67 40  	sub	a4, a4, t1
   18dc6: 09 87        	srai	a4, a4, 0x2
   18dc8: 01 27        	sext.w	a4, a4
   18dca: 58 c9        	sw	a4, 0x14(a0)
   18dcc: 35 df        	beqz	a4, 0x18d48 <rshift+0xe>
   18dce: 82 80        	ret
   18dd0: 14 cd        	sw	a3, 0x18(a0)
   18dd2: ad da        	beqz	a3, 0x18d44 <rshift+0xa>
   18dd4: 1a 87        	mv	a4, t1
   18dd6: 11 07        	addi	a4, a4, 0x4
   18dd8: ed b7        	j	0x18dc2 <rshift+0x88>

0000000000018dda <__gethex>:
   18dda: 75 71        	addi	sp, sp, -0x90
   18ddc: 66 fc        	sd	s9, 0x38(sp)
   18dde: 83 bc 05 00  	ld	s9, 0x0(a1)
   18de2: ca f8        	sd	s2, 0x70(sp)
   18de4: ce f4        	sd	s3, 0x68(sp)
   18de6: d2 f0        	sd	s4, 0x60(sp)
   18de8: 6e f4        	sd	s11, 0x28(sp)
   18dea: 06 e5        	sd	ra, 0x88(sp)
   18dec: 22 e1        	sd	s0, 0x80(sp)
   18dee: a6 fc        	sd	s1, 0x78(sp)
   18df0: d6 ec        	sd	s5, 0x58(sp)
   18df2: da e8        	sd	s6, 0x50(sp)
   18df4: de e4        	sd	s7, 0x48(sp)
   18df6: e2 e0        	sd	s8, 0x40(sp)
   18df8: 6a f8        	sd	s10, 0x30(sp)
   18dfa: 83 c8 2c 00  	lbu	a7, 0x2(s9)
   18dfe: ae 8d        	mv	s11, a1
   18e00: 36 e4        	sd	a3, 0x8(sp)
   18e02: 93 05 00 03  	li	a1, 0x30
   18e06: 3e e8        	sd	a5, 0x10(sp)
   18e08: aa 89        	mv	s3, a0
   18e0a: 32 89        	mv	s2, a2
   18e0c: 3a 8a        	mv	s4, a4
   18e0e: 63 9e b8 44  	bne	a7, a1, 0x1926a <__gethex+0x490>
   18e12: 8d 0c        	addi	s9, s9, 0x3
   18e14: 66 88        	mv	a6, s9
   18e16: 93 07 00 03  	li	a5, 0x30
   18e1a: 83 48 08 00  	lbu	a7, 0x0(a6)
   18e1e: 42 8c        	mv	s8, a6
   18e20: 05 08        	addi	a6, a6, 0x1
   18e22: e3 8c f8 fe  	beq	a7, a5, 0x18e1a <__gethex+0x40>
   18e26: bb 0c 9c 41  	subw	s9, s8, s9
   18e2a: 85 2c        	addiw	s9, s9, 0x1
   18e2c: 37 1d 02 00  	lui	s10, 0x21
   18e30: 13 0d 8d 6f  	addi	s10, s10, 0x6f8
   18e34: ea 98        	add	a7, a7, s10
   18e36: 83 c7 08 00  	lbu	a5, 0x0(a7)
   18e3a: 63 89 07 24  	beqz	a5, 0x1908c <__gethex+0x2b2>
   18e3e: 83 47 0c 00  	lbu	a5, 0x0(s8)
   18e42: 01 4b        	li	s6, 0x0
   18e44: 01 44        	li	s0, 0x0
   18e46: ea 97        	add	a5, a5, s10
   18e48: 83 c7 07 00  	lbu	a5, 0x0(a5)
   18e4c: b7 1b 02 00  	lui	s7, 0x21
   18e50: 63 89 07 34  	beqz	a5, 0x191a2 <__gethex+0x3c8>
   18e54: e2 84        	mv	s1, s8
   18e56: 83 c7 14 00  	lbu	a5, 0x1(s1)
   18e5a: 85 04        	addi	s1, s1, 0x1
   18e5c: ea 97        	add	a5, a5, s10
   18e5e: 83 c7 07 00  	lbu	a5, 0x0(a5)
   18e62: f5 fb        	bnez	a5, 0x18e56 <__gethex+0x7c>
   18e64: 05 46        	li	a2, 0x1
   18e66: 93 85 8b 2f  	addi	a1, s7, 0x2f8
   18e6a: 26 85        	mv	a0, s1
   18e6c: ef f0 8f b6  	jal	0x181d4 <strncmp>
   18e70: aa 8a        	mv	s5, a0
   18e72: 63 0a 05 14  	beqz	a0, 0x18fc6 <__gethex+0x1ec>
   18e76: 83 c7 04 00  	lbu	a5, 0x0(s1)
   18e7a: 81 4a        	li	s5, 0x0
   18e7c: 09 c4        	beqz	s0, 0x18e86 <__gethex+0xac>
   18e7e: 3b 07 94 40  	subw	a4, s0, s1
   18e82: 9b 1a 27 00  	slliw	s5, a4, 0x2
   18e86: 93 f7 f7 0d  	andi	a5, a5, 0xdf
   18e8a: 93 06 00 05  	li	a3, 0x50
   18e8e: 26 84        	mv	s0, s1
   18e90: 63 8a d7 14  	beq	a5, a3, 0x18fe4 <__gethex+0x20a>
   18e94: 23 b0 9d 00  	sd	s1, 0x0(s11)
   18e98: 63 15 0b 1c  	bnez	s6, 0x19062 <__gethex+0x288>
   18e9c: b3 07 84 41  	sub	a5, s0, s8
   18ea0: fd 37        	addiw	a5, a5, -0x1
   18ea2: 9d 46        	li	a3, 0x7
   18ea4: 81 45        	li	a1, 0x0
   18ea6: 63 d6 f6 00  	bge	a3, a5, 0x18eb2 <__gethex+0xd8>
   18eaa: 85 87        	srai	a5, a5, 0x1
   18eac: 85 25        	addiw	a1, a1, 0x1
   18eae: e3 ce f6 fe  	blt	a3, a5, 0x18eaa <__gethex+0xd0>
   18eb2: 4e 85        	mv	a0, s3
   18eb4: ef 00 20 79  	jal	0x19646 <_Balloc>
   18eb8: 2a 8b        	mv	s6, a0
   18eba: 63 0b 05 50  	beqz	a0, 0x193d0 <__gethex+0x5f6>
   18ebe: 93 04 85 01  	addi	s1, a0, 0x18
   18ec2: a6 86        	mv	a3, s1
   18ec4: 63 7c 8c 42  	bgeu	s8, s0, 0x192fc <__gethex+0x522>
   18ec8: 81 4c        	li	s9, 0x0
   18eca: 81 4d        	li	s11, 0x0
   18ecc: 13 03 e0 02  	li	t1, 0x2e
   18ed0: 13 0e 00 02  	li	t3, 0x20
   18ed4: 83 47 f4 ff  	lbu	a5, -0x1(s0)
   18ed8: 7d 14        	addi	s0, s0, -0x1
   18eda: 63 8e 67 0a  	beq	a5, t1, 0x18f96 <__gethex+0x1bc>
   18ede: 63 8d cc 0d  	beq	s9, t3, 0x18fb8 <__gethex+0x1de>
   18ee2: 66 86        	mv	a2, s9
   18ee4: 91 2c        	addiw	s9, s9, 0x4
   18ee6: 83 47 04 00  	lbu	a5, 0x0(s0)
   18eea: ea 97        	add	a5, a5, s10
   18eec: 03 c8 07 00  	lbu	a6, 0x0(a5)
   18ef0: 13 78 f8 00  	andi	a6, a6, 0xf
   18ef4: 3b 18 c8 00  	sllw	a6, a6, a2
   18ef8: 33 e8 0d 01  	or	a6, s11, a6
   18efc: 9b 0d 08 00  	sext.w	s11, a6
   18f00: e3 1a 8c fc  	bne	s8, s0, 0x18ed4 <__gethex+0xfa>
   18f04: 93 87 46 00  	addi	a5, a3, 0x4
   18f08: 85 8f        	sub	a5, a5, s1
   18f0a: 89 87        	srai	a5, a5, 0x2
   18f0c: 81 27        	sext.w	a5, a5
   18f0e: 23 a0 b6 01  	sw	s11, 0x0(a3)
   18f12: 23 2a fb 00  	sw	a5, 0x14(s6)
   18f16: 6e 85        	mv	a0, s11
   18f18: 1b 94 57 00  	slliw	s0, a5, 0x5
   18f1c: ef 00 50 17  	jal	0x19890 <__hi0bits>
   18f20: 83 2b 09 00  	lw	s7, 0x0(s2)
   18f24: bb 06 a4 40  	subw	a3, s0, a0
   18f28: 63 c8 db 1e  	blt	s7, a3, 0x19118 <__gethex+0x33e>
   18f2c: 01 4c        	li	s8, 0x0
   18f2e: 63 cd 76 2f  	blt	a3, s7, 0x19228 <__gethex+0x44e>
   18f32: 83 27 89 00  	lw	a5, 0x8(s2)
   18f36: 63 ca 57 3b  	blt	a5, s5, 0x192ea <__gethex+0x510>
   18f3a: 83 26 49 00  	lw	a3, 0x4(s2)
   18f3e: 63 df da 18  	bge	s5, a3, 0x190dc <__gethex+0x302>
   18f42: 3b 8d 56 41  	subw	s10, a3, s5
   18f46: ea 8a        	mv	s5, s10
   18f48: 63 4f 7d 21  	blt	s10, s7, 0x19166 <__gethex+0x38c>
   18f4c: 83 27 c9 00  	lw	a5, 0xc(s2)
   18f50: 09 47        	li	a4, 0x2
   18f52: 63 8d e7 2a  	beq	a5, a4, 0x1920c <__gethex+0x432>
   18f56: 0d 47        	li	a4, 0x3
   18f58: 63 8b e7 3c  	beq	a5, a4, 0x1932e <__gethex+0x554>
   18f5c: 05 47        	li	a4, 0x1
   18f5e: 63 9a e7 2a  	bne	a5, a4, 0x19212 <__gethex+0x438>
   18f62: 63 98 ab 2b  	bne	s7, s10, 0x19212 <__gethex+0x438>
   18f66: 63 8d fb 00  	beq	s7, a5, 0x18f80 <__gethex+0x1a6>
   18f6a: 9b 85 fb ff  	addiw	a1, s7, -0x1
   18f6e: 5a 85        	mv	a0, s6
   18f70: ef 10 a0 36  	jal	0x1a2da <__any_on>
   18f74: 9b 07 05 00  	sext.w	a5, a0
   18f78: 63 8d 07 28  	beqz	a5, 0x19212 <__gethex+0x438>
   18f7c: 83 26 49 00  	lw	a3, 0x4(s2)
   18f80: a2 67        	ld	a5, 0x8(sp)
   18f82: 13 04 20 06  	li	s0, 0x62
   18f86: 94 c3        	sw	a3, 0x0(a5)
   18f88: 85 47        	li	a5, 0x1
   18f8a: 23 2a fb 00  	sw	a5, 0x14(s6)
   18f8e: 9c c0        	sw	a5, 0x0(s1)
   18f90: 23 30 6a 01  	sd	s6, 0x0(s4)
   18f94: e1 a8        	j	0x1906c <__gethex+0x292>
   18f96: e3 64 84 f5  	bltu	s0, s8, 0x18ede <__gethex+0x104>
   18f9a: 05 46        	li	a2, 0x1
   18f9c: 93 85 8b 2f  	addi	a1, s7, 0x2f8
   18fa0: 22 85        	mv	a0, s0
   18fa2: 36 ec        	sd	a3, 0x18(sp)
   18fa4: ef f0 0f a3  	jal	0x181d4 <strncmp>
   18fa8: e2 66        	ld	a3, 0x18(sp)
   18faa: 13 03 e0 02  	li	t1, 0x2e
   18fae: 13 0e 00 02  	li	t3, 0x20
   18fb2: 39 d5        	beqz	a0, 0x18f00 <__gethex+0x126>
   18fb4: e3 97 cc f3  	bne	s9, t3, 0x18ee2 <__gethex+0x108>
   18fb8: 23 a0 b6 01  	sw	s11, 0x0(a3)
   18fbc: 01 46        	li	a2, 0x0
   18fbe: 91 06        	addi	a3, a3, 0x4
   18fc0: 91 4c        	li	s9, 0x4
   18fc2: 81 4d        	li	s11, 0x0
   18fc4: 0d b7        	j	0x18ee6 <__gethex+0x10c>
   18fc6: 63 0e 04 26  	beqz	s0, 0x19242 <__gethex+0x468>
   18fca: 83 c7 04 00  	lbu	a5, 0x0(s1)
   18fce: 3b 07 94 40  	subw	a4, s0, s1
   18fd2: 93 06 00 05  	li	a3, 0x50
   18fd6: 93 f7 f7 0d  	andi	a5, a5, 0xdf
   18fda: 9b 1a 27 00  	slliw	s5, a4, 0x2
   18fde: 26 84        	mv	s0, s1
   18fe0: e3 9a d7 ea  	bne	a5, a3, 0x18e94 <__gethex+0xba>
   18fe4: 83 47 14 00  	lbu	a5, 0x1(s0)
   18fe8: 93 06 b0 02  	li	a3, 0x2b
   18fec: 63 8c d7 22  	beq	a5, a3, 0x19224 <__gethex+0x44a>
   18ff0: 93 06 d0 02  	li	a3, 0x2d
   18ff4: 63 95 d7 16  	bne	a5, a3, 0x1915e <__gethex+0x384>
   18ff8: 05 45        	li	a0, 0x1
   18ffa: 83 47 24 00  	lbu	a5, 0x2(s0)
   18ffe: 93 05 24 00  	addi	a1, s0, 0x2
   19002: ea 97        	add	a5, a5, s10
   19004: 83 c6 07 00  	lbu	a3, 0x0(a5)
   19008: 61 46        	li	a2, 0x18
   1900a: a2 84        	mv	s1, s0
   1900c: 9b 87 f6 ff  	addiw	a5, a3, -0x1
   19010: 93 f7 f7 0f  	andi	a5, a5, 0xff
   19014: e3 60 f6 e8  	bltu	a2, a5, 0x18e94 <__gethex+0xba>
   19018: 83 c7 15 00  	lbu	a5, 0x1(a1)
   1901c: c1 36        	addiw	a3, a3, -0x10
   1901e: 93 84 15 00  	addi	s1, a1, 0x1
   19022: ea 97        	add	a5, a5, s10
   19024: 03 c6 07 00  	lbu	a2, 0x0(a5)
   19028: e5 48        	li	a7, 0x19
   1902a: 1d c2        	beqz	a2, 0x19050 <__gethex+0x276>
   1902c: 63 c2 c8 02  	blt	a7, a2, 0x19050 <__gethex+0x276>
   19030: 83 c5 14 00  	lbu	a1, 0x1(s1)
   19034: 9b 97 26 00  	slliw	a5, a3, 0x2
   19038: b5 9f        	addw	a5, a5, a3
   1903a: 9b 97 17 00  	slliw	a5, a5, 0x1
   1903e: b3 06 bd 00  	add	a3, s10, a1
   19042: b1 9f        	addw	a5, a5, a2
   19044: 03 c6 06 00  	lbu	a2, 0x0(a3)
   19048: 85 04        	addi	s1, s1, 0x1
   1904a: 9b 86 07 ff  	addiw	a3, a5, -0x10
   1904e: 79 fe        	bnez	a2, 0x1902c <__gethex+0x252>
   19050: 19 c1        	beqz	a0, 0x19056 <__gethex+0x27c>
   19052: bb 06 d0 40  	negw	a3, a3
   19056: 23 b0 9d 00  	sd	s1, 0x0(s11)
   1905a: bb 8a da 00  	addw	s5, s5, a3
   1905e: e3 0f 0b e2  	beqz	s6, 0x18e9c <__gethex+0xc2>
   19062: 13 b4 1c 00  	seqz	s0, s9
   19066: 33 04 80 40  	neg	s0, s0
   1906a: 19 88        	andi	s0, s0, 0x6
   1906c: aa 60        	ld	ra, 0x88(sp)
   1906e: 22 85        	mv	a0, s0
   19070: 0a 64        	ld	s0, 0x80(sp)
   19072: e6 74        	ld	s1, 0x78(sp)
   19074: 46 79        	ld	s2, 0x70(sp)
   19076: a6 79        	ld	s3, 0x68(sp)
   19078: 06 7a        	ld	s4, 0x60(sp)
   1907a: e6 6a        	ld	s5, 0x58(sp)
   1907c: 46 6b        	ld	s6, 0x50(sp)
   1907e: a6 6b        	ld	s7, 0x48(sp)
   19080: 06 6c        	ld	s8, 0x40(sp)
   19082: e2 7c        	ld	s9, 0x38(sp)
   19084: 42 7d        	ld	s10, 0x30(sp)
   19086: a2 7d        	ld	s11, 0x28(sp)
   19088: 49 61        	addi	sp, sp, 0x90
   1908a: 82 80        	ret
   1908c: b7 1b 02 00  	lui	s7, 0x21
   19090: 05 46        	li	a2, 0x1
   19092: 93 85 8b 2f  	addi	a1, s7, 0x2f8
   19096: 62 85        	mv	a0, s8
   19098: ef f0 cf 93  	jal	0x181d4 <strncmp>
   1909c: 2a 8b        	mv	s6, a0
   1909e: 63 14 05 10  	bnez	a0, 0x191a6 <__gethex+0x3cc>
   190a2: 83 47 1c 00  	lbu	a5, 0x1(s8)
   190a6: 13 04 1c 00  	addi	s0, s8, 0x1
   190aa: 33 07 fd 00  	add	a4, s10, a5
   190ae: 03 47 07 00  	lbu	a4, 0x0(a4)
   190b2: 63 0d 07 0e  	beqz	a4, 0x191ac <__gethex+0x3d2>
   190b6: 13 07 00 03  	li	a4, 0x30
   190ba: 22 8c        	mv	s8, s0
   190bc: 63 94 e7 2c  	bne	a5, a4, 0x19384 <__gethex+0x5aa>
   190c0: 83 47 1c 00  	lbu	a5, 0x1(s8)
   190c4: 05 0c        	addi	s8, s8, 0x1
   190c6: e3 8d e7 fe  	beq	a5, a4, 0x190c0 <__gethex+0x2e6>
   190ca: ea 97        	add	a5, a5, s10
   190cc: 83 c7 07 00  	lbu	a5, 0x0(a5)
   190d0: 85 4c        	li	s9, 0x1
   190d2: 13 bb 17 00  	seqz	s6, a5
   190d6: e3 9f 07 d6  	bnez	a5, 0x18e54 <__gethex+0x7a>
   190da: e1 a0        	j	0x191a2 <__gethex+0x3c8>
   190dc: 05 44        	li	s0, 0x1
   190de: 63 07 0c 02  	beqz	s8, 0x1910c <__gethex+0x332>
   190e2: 83 27 c9 00  	lw	a5, 0xc(s2)
   190e6: 89 46        	li	a3, 0x2
   190e8: 63 8b d7 0c  	beq	a5, a3, 0x191be <__gethex+0x3e4>
   190ec: 8d 46        	li	a3, 0x3
   190ee: 63 8c d7 0c  	beq	a5, a3, 0x191c6 <__gethex+0x3ec>
   190f2: 85 46        	li	a3, 0x1
   190f4: 63 9a d7 00  	bne	a5, a3, 0x19108 <__gethex+0x32e>
   190f8: 93 77 2c 00  	andi	a5, s8, 0x2
   190fc: 91 c7        	beqz	a5, 0x19108 <__gethex+0x32e>
   190fe: 9c 40        	lw	a5, 0x0(s1)
   19100: b3 67 fc 00  	or	a5, s8, a5
   19104: 85 8b        	andi	a5, a5, 0x1
   19106: f1 e3        	bnez	a5, 0x191ca <__gethex+0x3f0>
   19108: 13 64 04 01  	ori	s0, s0, 0x10
   1910c: a2 67        	ld	a5, 0x8(sp)
   1910e: 23 30 6a 01  	sd	s6, 0x0(s4)
   19112: 23 a0 57 01  	sw	s5, 0x0(a5)
   19116: 99 bf        	j	0x1906c <__gethex+0x292>
   19118: bb 8c 76 41  	subw	s9, a3, s7
   1911c: e6 85        	mv	a1, s9
   1911e: 5a 85        	mv	a0, s6
   19120: ef 10 a0 1b  	jal	0x1a2da <__any_on>
   19124: 1b 0c 05 00  	sext.w	s8, a0
   19128: 66 84        	mv	s0, s9
   1912a: 63 03 0c 02  	beqz	s8, 0x19150 <__gethex+0x376>
   1912e: 9b 86 fc ff  	addiw	a3, s9, -0x1
   19132: 9b d7 56 40  	sraiw	a5, a3, 0x5
   19136: 8a 07        	slli	a5, a5, 0x2
   19138: a6 97        	add	a5, a5, s1
   1913a: 9c 43        	lw	a5, 0x0(a5)
   1913c: 05 46        	li	a2, 0x1
   1913e: 3b 16 d6 00  	sllw	a2, a2, a3
   19142: f1 8f        	and	a5, a5, a2
   19144: 81 27        	sext.w	a5, a5
   19146: 05 4c        	li	s8, 0x1
   19148: 81 c7        	beqz	a5, 0x19150 <__gethex+0x376>
   1914a: 63 44 dc 1c  	blt	s8, a3, 0x19312 <__gethex+0x538>
   1914e: 09 4c        	li	s8, 0x2
   19150: e6 85        	mv	a1, s9
   19152: 5a 85        	mv	a0, s6
   19154: ef f0 7f be  	jal	0x18d3a <rshift>
   19158: bb 0a 54 01  	addw	s5, s0, s5
   1915c: d9 bb        	j	0x18f32 <__gethex+0x158>
   1915e: 93 05 14 00  	addi	a1, s0, 0x1
   19162: 01 45        	li	a0, 0x0
   19164: 79 bd        	j	0x19002 <__gethex+0x228>
   19166: 9b 0d fd ff  	addiw	s11, s10, -0x1
   1916a: 6e 84        	mv	s0, s11
   1916c: 63 1a 0c 18  	bnez	s8, 0x19300 <__gethex+0x526>
   19170: 63 9a 0d 18  	bnez	s11, 0x19304 <__gethex+0x52a>
   19174: 9b 57 54 40  	sraiw	a5, s0, 0x5
   19178: 8a 07        	slli	a5, a5, 0x2
   1917a: a6 97        	add	a5, a5, s1
   1917c: 9c 43        	lw	a5, 0x0(a5)
   1917e: 05 47        	li	a4, 0x1
   19180: 3b 17 b7 01  	sllw	a4, a4, s11
   19184: f9 8f        	and	a5, a5, a4
   19186: 81 27        	sext.w	a5, a5
   19188: 99 c3        	beqz	a5, 0x1918e <__gethex+0x3b4>
   1918a: 13 6c 2c 00  	ori	s8, s8, 0x2
   1918e: ea 85        	mv	a1, s10
   19190: 5a 85        	mv	a0, s6
   19192: bb 8b 5b 41  	subw	s7, s7, s5
   19196: ef f0 5f ba  	jal	0x18d3a <rshift>
   1919a: 09 44        	li	s0, 0x2
   1919c: 83 2a 49 00  	lw	s5, 0x4(s2)
   191a0: 3d bf        	j	0x190de <__gethex+0x304>
   191a2: e2 84        	mv	s1, s8
   191a4: c1 b1        	j	0x18e64 <__gethex+0x8a>
   191a6: 83 47 0c 00  	lbu	a5, 0x0(s8)
   191aa: 62 84        	mv	s0, s8
   191ac: 93 f7 f7 0d  	andi	a5, a5, 0xdf
   191b0: 13 07 00 05  	li	a4, 0x50
   191b4: 63 8a e7 16  	beq	a5, a4, 0x19328 <__gethex+0x54e>
   191b8: 23 b0 8d 00  	sd	s0, 0x0(s11)
   191bc: 5d b5        	j	0x19062 <__gethex+0x288>
   191be: 42 67        	ld	a4, 0x10(sp)
   191c0: 85 47        	li	a5, 0x1
   191c2: 99 9f        	subw	a5, a5, a4
   191c4: 3e e8        	sd	a5, 0x10(sp)
   191c6: c2 67        	ld	a5, 0x10(sp)
   191c8: a1 d3        	beqz	a5, 0x19108 <__gethex+0x32e>
   191ca: 83 2c 4b 01  	lw	s9, 0x14(s6)
   191ce: a6 87        	mv	a5, s1
   191d0: 7d 56        	li	a2, -0x1
   191d2: 13 9c 2c 00  	slli	s8, s9, 0x2
   191d6: b3 85 84 01  	add	a1, s1, s8
   191da: 31 a0        	j	0x191e6 <__gethex+0x40c>
   191dc: 91 07        	addi	a5, a5, 0x4
   191de: 23 ae 07 fe  	sw	zero, -0x4(a5)
   191e2: 63 fa b7 14  	bgeu	a5, a1, 0x19336 <__gethex+0x55c>
   191e6: 94 43        	lw	a3, 0x0(a5)
   191e8: e3 8a c6 fe  	beq	a3, a2, 0x191dc <__gethex+0x402>
   191ec: 85 26        	addiw	a3, a3, 0x1
   191ee: 94 c3        	sw	a3, 0x0(a5)
   191f0: 89 47        	li	a5, 0x2
   191f2: 63 03 f4 16  	beq	s0, a5, 0x19358 <__gethex+0x57e>
   191f6: 83 27 4b 01  	lw	a5, 0x14(s6)
   191fa: 63 c9 fc 08  	blt	s9, a5, 0x1928c <__gethex+0x4b2>
   191fe: 93 fb fb 01  	andi	s7, s7, 0x1f
   19202: 63 98 0b 06  	bnez	s7, 0x19272 <__gethex+0x498>
   19206: 13 04 10 02  	li	s0, 0x21
   1920a: 09 b7        	j	0x1910c <__gethex+0x332>
   1920c: c2 67        	ld	a5, 0x10(sp)
   1920e: e3 89 07 d6  	beqz	a5, 0x18f80 <__gethex+0x1a6>
   19212: da 85        	mv	a1, s6
   19214: 4e 85        	mv	a0, s3
   19216: ef 00 40 49  	jal	0x196aa <_Bfree>
   1921a: 13 04 00 05  	li	s0, 0x50
   1921e: 23 30 0a 00  	sd	zero, 0x0(s4)
   19222: a9 b5        	j	0x1906c <__gethex+0x292>
   19224: 01 45        	li	a0, 0x0
   19226: d1 bb        	j	0x18ffa <__gethex+0x220>
   19228: 3b 86 db 40  	subw	a2, s7, a3
   1922c: da 85        	mv	a1, s6
   1922e: 4e 85        	mv	a0, s3
   19230: 32 84        	mv	s0, a2
   19232: ef 00 70 24  	jal	0x19c78 <__lshift>
   19236: 2a 8b        	mv	s6, a0
   19238: bb 8a 8a 40  	subw	s5, s5, s0
   1923c: 93 04 85 01  	addi	s1, a0, 0x18
   19240: cd b9        	j	0x18f32 <__gethex+0x158>
   19242: 83 c7 14 00  	lbu	a5, 0x1(s1)
   19246: 13 84 14 00  	addi	s0, s1, 0x1
   1924a: a2 84        	mv	s1, s0
   1924c: b3 06 fd 00  	add	a3, s10, a5
   19250: 83 c6 06 00  	lbu	a3, 0x0(a3)
   19254: e3 89 06 c2  	beqz	a3, 0x18e86 <__gethex+0xac>
   19258: 83 c7 14 00  	lbu	a5, 0x1(s1)
   1925c: 85 04        	addi	s1, s1, 0x1
   1925e: 33 07 fd 00  	add	a4, s10, a5
   19262: 03 47 07 00  	lbu	a4, 0x0(a4)
   19266: 6d fb        	bnez	a4, 0x19258 <__gethex+0x47e>
   19268: 19 b9        	j	0x18e7e <__gethex+0xa4>
   1926a: 13 8c 2c 00  	addi	s8, s9, 0x2
   1926e: 81 4c        	li	s9, 0x0
   19270: 75 be        	j	0x18e2c <__gethex+0x52>
   19272: 26 9c        	add	s8, s8, s1
   19274: 03 25 cc ff  	lw	a0, -0x4(s8)
   19278: ef 00 80 61  	jal	0x19890 <__hi0bits>
   1927c: 93 07 00 02  	li	a5, 0x20
   19280: bb 87 77 41  	subw	a5, a5, s7
   19284: e3 51 f5 f8  	bge	a0, a5, 0x19206 <__gethex+0x42c>
   19288: 83 27 4b 01  	lw	a5, 0x14(s6)
   1928c: 63 57 f0 12  	blez	a5, 0x193ba <__gethex+0x5e0>
   19290: 83 26 8b 01  	lw	a3, 0x18(s6)
   19294: 8a 07        	slli	a5, a5, 0x2
   19296: a6 97        	add	a5, a5, s1
   19298: 13 06 cb 01  	addi	a2, s6, 0x1c
   1929c: 9b d5 16 00  	srliw	a1, a3, 0x1
   192a0: 9b d6 16 00  	srliw	a3, a3, 0x1
   192a4: 63 70 f6 12  	bgeu	a2, a5, 0x193c4 <__gethex+0x5ea>
   192a8: 0c 42        	lw	a1, 0x0(a2)
   192aa: 11 06        	addi	a2, a2, 0x4
   192ac: 1b 95 f5 01  	slliw	a0, a1, 0x1f
   192b0: c9 8e        	or	a3, a3, a0
   192b2: 23 2c d6 fe  	sw	a3, -0x8(a2)
   192b6: 1b d5 15 00  	srliw	a0, a1, 0x1
   192ba: 9b d6 15 00  	srliw	a3, a1, 0x1
   192be: e3 65 f6 fe  	bltu	a2, a5, 0x192a8 <__gethex+0x4ce>
   192c2: b3 87 67 41  	sub	a5, a5, s6
   192c6: 8d 17        	addi	a5, a5, -0x1d
   192c8: f1 9b        	andi	a5, a5, -0x4
   192ca: 91 07        	addi	a5, a5, 0x4
   192cc: a6 97        	add	a5, a5, s1
   192ce: 88 c3        	sw	a0, 0x0(a5)
   192d0: 91 c2        	beqz	a3, 0x192d4 <__gethex+0x4fa>
   192d2: 91 07        	addi	a5, a5, 0x4
   192d4: 85 8f        	sub	a5, a5, s1
   192d6: 89 87        	srai	a5, a5, 0x2
   192d8: 81 27        	sext.w	a5, a5
   192da: 23 2a fb 00  	sw	a5, 0x14(s6)
   192de: e5 c3        	beqz	a5, 0x193be <__gethex+0x5e4>
   192e0: 83 27 89 00  	lw	a5, 0x8(s2)
   192e4: 85 2a        	addiw	s5, s5, 0x1
   192e6: e3 d0 57 f3  	bge	a5, s5, 0x19206 <__gethex+0x42c>
   192ea: da 85        	mv	a1, s6
   192ec: 4e 85        	mv	a0, s3
   192ee: ef 00 c0 3b  	jal	0x196aa <_Bfree>
   192f2: 13 04 30 0a  	li	s0, 0xa3
   192f6: 23 30 0a 00  	sd	zero, 0x0(s4)
   192fa: 8d bb        	j	0x1906c <__gethex+0x292>
   192fc: 81 4d        	li	s11, 0x0
   192fe: 19 b1        	j	0x18f04 <__gethex+0x12a>
   19300: 05 4c        	li	s8, 0x1
   19302: 8d bd        	j	0x19174 <__gethex+0x39a>
   19304: ee 85        	mv	a1, s11
   19306: 5a 85        	mv	a0, s6
   19308: ef 00 30 7d  	jal	0x1a2da <__any_on>
   1930c: 1b 0c 05 00  	sext.w	s8, a0
   19310: 95 b5        	j	0x19174 <__gethex+0x39a>
   19312: 9b 85 ec ff  	addiw	a1, s9, -0x2
   19316: 5a 85        	mv	a0, s6
   19318: ef 00 30 7c  	jal	0x1a2da <__any_on>
   1931c: 9b 07 05 00  	sext.w	a5, a0
   19320: e3 87 07 e2  	beqz	a5, 0x1914e <__gethex+0x374>
   19324: 0d 4c        	li	s8, 0x3
   19326: 2d b5        	j	0x19150 <__gethex+0x376>
   19328: 81 4a        	li	s5, 0x0
   1932a: 05 4b        	li	s6, 0x1
   1932c: 65 b9        	j	0x18fe4 <__gethex+0x20a>
   1932e: c2 67        	ld	a5, 0x10(sp)
   19330: e3 81 07 ee  	beqz	a5, 0x19212 <__gethex+0x438>
   19334: b1 b1        	j	0x18f80 <__gethex+0x1a6>
   19336: 83 27 4b 01  	lw	a5, 0x14(s6)
   1933a: 83 26 cb 00  	lw	a3, 0xc(s6)
   1933e: 63 d5 d7 04  	bge	a5, a3, 0x19388 <__gethex+0x5ae>
   19342: 93 86 47 00  	addi	a3, a5, 0x4
   19346: 8a 06        	slli	a3, a3, 0x2
   19348: 85 27        	addiw	a5, a5, 0x1
   1934a: 23 2a fb 00  	sw	a5, 0x14(s6)
   1934e: b3 07 db 00  	add	a5, s6, a3
   19352: 85 46        	li	a3, 0x1
   19354: 94 c7        	sw	a3, 0x8(a5)
   19356: 69 bd        	j	0x191f0 <__gethex+0x416>
   19358: 83 27 09 00  	lw	a5, 0x0(s2)
   1935c: 13 04 20 02  	li	s0, 0x22
   19360: fd 37        	addiw	a5, a5, -0x1
   19362: e3 95 77 db  	bne	a5, s7, 0x1910c <__gethex+0x332>
   19366: 93 d7 5b 40  	srai	a5, s7, 0x5
   1936a: 8a 07        	slli	a5, a5, 0x2
   1936c: a6 97        	add	a5, a5, s1
   1936e: 9c 43        	lw	a5, 0x0(a5)
   19370: 85 46        	li	a3, 0x1
   19372: bb 96 76 01  	sllw	a3, a3, s7
   19376: f5 8f        	and	a5, a5, a3
   19378: 81 27        	sext.w	a5, a5
   1937a: e3 89 07 d8  	beqz	a5, 0x1910c <__gethex+0x332>
   1937e: 13 04 10 02  	li	s0, 0x21
   19382: 69 b3        	j	0x1910c <__gethex+0x332>
   19384: 85 4c        	li	s9, 0x1
   19386: f9 b4        	j	0x18e54 <__gethex+0x7a>
   19388: 83 25 8b 00  	lw	a1, 0x8(s6)
   1938c: 4e 85        	mv	a0, s3
   1938e: 85 25        	addiw	a1, a1, 0x1
   19390: ef 00 60 2b  	jal	0x19646 <_Balloc>
   19394: aa 84        	mv	s1, a0
   19396: 31 c9        	beqz	a0, 0x193ea <__gethex+0x610>
   19398: 03 26 4b 01  	lw	a2, 0x14(s6)
   1939c: 93 05 0b 01  	addi	a1, s6, 0x10
   193a0: 41 05        	addi	a0, a0, 0x10
   193a2: 09 06        	addi	a2, a2, 0x2
   193a4: 0a 06        	slli	a2, a2, 0x2
   193a6: ef f0 af ab  	jal	0x18660 <memcpy>
   193aa: da 85        	mv	a1, s6
   193ac: 4e 85        	mv	a0, s3
   193ae: ef 00 c0 2f  	jal	0x196aa <_Bfree>
   193b2: dc 48        	lw	a5, 0x14(s1)
   193b4: 26 8b        	mv	s6, s1
   193b6: e1 04        	addi	s1, s1, 0x18
   193b8: 69 b7        	j	0x19342 <__gethex+0x568>
   193ba: 23 2a 0b 00  	sw	zero, 0x14(s6)
   193be: 23 2c 0b 00  	sw	zero, 0x18(s6)
   193c2: 39 bf        	j	0x192e0 <__gethex+0x506>
   193c4: 23 2c bb 00  	sw	a1, 0x18(s6)
   193c8: ed da        	beqz	a3, 0x193ba <__gethex+0x5e0>
   193ca: a6 87        	mv	a5, s1
   193cc: 91 07        	addi	a5, a5, 0x4
   193ce: 19 b7        	j	0x192d4 <__gethex+0x4fa>
   193d0: b7 16 02 00  	lui	a3, 0x21
   193d4: 37 15 02 00  	lui	a0, 0x21
   193d8: 93 86 06 33  	addi	a3, a3, 0x330
   193dc: 01 46        	li	a2, 0x0
   193de: 93 05 40 0e  	li	a1, 0xe4
   193e2: 13 05 85 34  	addi	a0, a0, 0x348
   193e6: ef 40 60 45  	jal	0x1d83c <__assert_func>
   193ea: b7 16 02 00  	lui	a3, 0x21
   193ee: 37 15 02 00  	lui	a0, 0x21
   193f2: 93 86 06 33  	addi	a3, a3, 0x330
   193f6: 01 46        	li	a2, 0x0
   193f8: 93 05 40 08  	li	a1, 0x84
   193fc: 13 05 85 34  	addi	a0, a0, 0x348
   19400: ef 40 c0 43  	jal	0x1d83c <__assert_func>

0000000000019404 <__match>:
   19404: 14 61        	ld	a3, 0x0(a0)
   19406: 65 48        	li	a6, 0x19
   19408: 03 c6 05 00  	lbu	a2, 0x0(a1)
   1940c: 85 06        	addi	a3, a3, 0x1
   1940e: 85 05        	addi	a1, a1, 0x1
   19410: 05 c2        	beqz	a2, 0x19430 <__match+0x2c>
   19412: 83 c7 06 00  	lbu	a5, 0x0(a3)
   19416: 1b 87 f7 fb  	addiw	a4, a5, -0x41
   1941a: 13 77 f7 0f  	andi	a4, a4, 0xff
   1941e: 81 27        	sext.w	a5, a5
   19420: 63 64 e8 00  	bltu	a6, a4, 0x19428 <__match+0x24>
   19424: 93 87 07 02  	addi	a5, a5, 0x20
   19428: e3 80 c7 fe  	beq	a5, a2, 0x19408 <__match+0x4>
   1942c: 01 45        	li	a0, 0x0
   1942e: 82 80        	ret
   19430: 14 e1        	sd	a3, 0x0(a0)
   19432: 05 45        	li	a0, 0x1
   19434: 82 80        	ret

0000000000019436 <__hexnan>:
   19436: 79 71        	addi	sp, sp, -0x30
   19438: 22 f4        	sd	s0, 0x28(sp)
   1943a: 80 41        	lw	s0, 0x0(a1)
   1943c: 93 57 54 40  	srai	a5, s0, 0x5
   19440: 8a 07        	slli	a5, a5, 0x2
   19442: 7d 88        	andi	s0, s0, 0x1f
   19444: b2 97        	add	a5, a5, a2
   19446: 63 16 04 12  	bnez	s0, 0x19572 <__hexnan+0x13c>
   1944a: 93 88 c7 ff  	addi	a7, a5, -0x4
   1944e: be 83        	mv	t2, a5
   19450: 18 61        	ld	a4, 0x0(a0)
   19452: 23 ae 03 fe  	sw	zero, -0x4(t2)
   19456: 83 47 17 00  	lbu	a5, 0x1(a4)
   1945a: 63 83 07 14  	beqz	a5, 0x195a0 <__hexnan+0x16a>
   1945e: b7 1e 02 00  	lui	t4, 0x21
   19462: 26 f0        	sd	s1, 0x20(sp)
   19464: 46 8e        	mv	t3, a7
   19466: c6 85        	mv	a1, a7
   19468: 01 48        	li	a6, 0x0
   1946a: 01 4f        	li	t5, 0x0
   1946c: 01 43        	li	t1, 0x0
   1946e: 93 8e 8e 6f  	addi	t4, t4, 0x6f8
   19472: a1 42        	li	t0, 0x8
   19474: 93 0f 00 02  	li	t6, 0x20
   19478: 9d 44        	li	s1, 0x7
   1947a: 3d a0        	j	0x194a8 <__hexnan+0x72>
   1947c: 63 ed ff 10  	bltu	t6, a5, 0x19596 <__hexnan+0x160>
   19480: 63 50 6f 02  	bge	t5, t1, 0x194a0 <__hexnan+0x6a>
   19484: 63 f4 c5 01  	bgeu	a1, t3, 0x1948c <__hexnan+0x56>
   19488: 63 d3 04 0b  	bge	s1, a6, 0x1952e <__hexnan+0xf8>
   1948c: 21 48        	li	a6, 0x8
   1948e: 63 79 b6 00  	bgeu	a2, a1, 0x194a0 <__hexnan+0x6a>
   19492: 13 8e c5 ff  	addi	t3, a1, -0x4
   19496: 23 ae 05 fe  	sw	zero, -0x4(a1)
   1949a: 1a 8f        	mv	t5, t1
   1949c: f2 85        	mv	a1, t3
   1949e: 01 48        	li	a6, 0x0
   194a0: 83 47 27 00  	lbu	a5, 0x2(a4)
   194a4: 05 07        	addi	a4, a4, 0x1
   194a6: 85 c7        	beqz	a5, 0x194ce <__hexnan+0x98>
   194a8: b3 86 fe 00  	add	a3, t4, a5
   194ac: 83 c6 06 00  	lbu	a3, 0x0(a3)
   194b0: f1 d6        	beqz	a3, 0x1947c <__hexnan+0x46>
   194b2: 05 28        	addiw	a6, a6, 0x1
   194b4: 05 23        	addiw	t1, t1, 0x1
   194b6: 63 c4 02 07  	blt	t0, a6, 0x1951e <__hexnan+0xe8>
   194ba: 9c 41        	lw	a5, 0x0(a1)
   194bc: 9b 97 47 00  	slliw	a5, a5, 0x4
   194c0: bd 8a        	andi	a3, a3, 0xf
   194c2: d5 8f        	or	a5, a5, a3
   194c4: 9c c1        	sw	a5, 0x0(a1)
   194c6: 83 47 27 00  	lbu	a5, 0x2(a4)
   194ca: 05 07        	addi	a4, a4, 0x1
   194cc: f1 ff        	bnez	a5, 0x194a8 <__hexnan+0x72>
   194ce: 63 08 03 0c  	beqz	t1, 0x1959e <__hexnan+0x168>
   194d2: 63 f5 c5 01  	bgeu	a1, t3, 0x194dc <__hexnan+0xa6>
   194d6: 9d 47        	li	a5, 0x7
   194d8: 63 d8 07 0f  	bge	a5, a6, 0x195c8 <__hexnan+0x192>
   194dc: 63 7f b6 08  	bgeu	a2, a1, 0x1957a <__hexnan+0x144>
   194e0: 32 87        	mv	a4, a2
   194e2: ae 87        	mv	a5, a1
   194e4: 94 43        	lw	a3, 0x0(a5)
   194e6: 91 07        	addi	a5, a5, 0x4
   194e8: 11 07        	addi	a4, a4, 0x4
   194ea: 23 2e d7 fe  	sw	a3, -0x4(a4)
   194ee: e3 fb f8 fe  	bgeu	a7, a5, 0x194e4 <__hexnan+0xae>
   194f2: 93 86 15 00  	addi	a3, a1, 0x1
   194f6: 13 87 18 00  	addi	a4, a7, 0x1
   194fa: 91 47        	li	a5, 0x4
   194fc: 63 71 d7 0c  	bgeu	a4, a3, 0x195be <__hexnan+0x188>
   19500: b2 97        	add	a5, a5, a2
   19502: 91 07        	addi	a5, a5, 0x4
   19504: 23 ae 07 fe  	sw	zero, -0x4(a5)
   19508: e3 fd f8 fe  	bgeu	a7, a5, 0x19502 <__hexnan+0xcc>
   1950c: 83 a7 c3 ff  	lw	a5, -0x4(t2)
   19510: d9 ef        	bnez	a5, 0x195ae <__hexnan+0x178>
   19512: 63 0b 16 09  	beq	a2, a7, 0x195a8 <__hexnan+0x172>
   19516: 83 a7 c8 ff  	lw	a5, -0x4(a7)
   1951a: f1 18        	addi	a7, a7, -0x4
   1951c: d5 bf        	j	0x19510 <__hexnan+0xda>
   1951e: e3 71 b6 f8  	bgeu	a2, a1, 0x194a0 <__hexnan+0x6a>
   19522: 23 ae 05 fe  	sw	zero, -0x4(a1)
   19526: 81 47        	li	a5, 0x0
   19528: f1 15        	addi	a1, a1, -0x4
   1952a: 05 48        	li	a6, 0x1
   1952c: 51 bf        	j	0x194c0 <__hexnan+0x8a>
   1952e: a1 47        	li	a5, 0x8
   19530: bb 87 07 41  	subw	a5, a5, a6
   19534: 03 a8 05 00  	lw	a6, 0x0(a1)
   19538: 4e e8        	sd	s3, 0x10(sp)
   1953a: 52 e4        	sd	s4, 0x8(sp)
   1953c: 93 09 00 02  	li	s3, 0x20
   19540: 1b 9a 27 00  	slliw	s4, a5, 0x2
   19544: 4a ec        	sd	s2, 0x18(sp)
   19546: bb 89 49 41  	subw	s3, s3, s4
   1954a: ae 87        	mv	a5, a1
   1954c: d4 43        	lw	a3, 0x4(a5)
   1954e: 91 07        	addi	a5, a5, 0x4
   19550: 3b 99 36 01  	sllw	s2, a3, s3
   19554: 33 68 28 01  	or	a6, a6, s2
   19558: bb d6 46 01  	srlw	a3, a3, s4
   1955c: 23 ae 07 ff  	sw	a6, -0x4(a5)
   19560: 94 c3        	sw	a3, 0x0(a5)
   19562: 1b 88 06 00  	sext.w	a6, a3
   19566: e3 e3 c7 ff  	bltu	a5, t3, 0x1954c <__hexnan+0x116>
   1956a: 62 69        	ld	s2, 0x18(sp)
   1956c: c2 69        	ld	s3, 0x10(sp)
   1956e: 22 6a        	ld	s4, 0x8(sp)
   19570: 31 bf        	j	0x1948c <__hexnan+0x56>
   19572: 93 83 47 00  	addi	t2, a5, 0x4
   19576: be 88        	mv	a7, a5
   19578: e1 bd        	j	0x19450 <__hexnan+0x1a>
   1957a: 83 a7 c3 ff  	lw	a5, -0x4(t2)
   1957e: 49 d8        	beqz	s0, 0x19510 <__hexnan+0xda>
   19580: 93 06 00 02  	li	a3, 0x20
   19584: 81 9e        	subw	a3, a3, s0
   19586: 7d 57        	li	a4, -0x1
   19588: 3b 57 d7 00  	srlw	a4, a4, a3
   1958c: f9 8f        	and	a5, a5, a4
   1958e: 81 27        	sext.w	a5, a5
   19590: 23 ae f3 fe  	sw	a5, -0x4(t2)
   19594: b5 bf        	j	0x19510 <__hexnan+0xda>
   19596: 93 06 90 02  	li	a3, 0x29
   1959a: 63 8f d7 00  	beq	a5, a3, 0x195b8 <__hexnan+0x182>
   1959e: 82 74        	ld	s1, 0x20(sp)
   195a0: 22 74        	ld	s0, 0x28(sp)
   195a2: 11 45        	li	a0, 0x4
   195a4: 45 61        	addi	sp, sp, 0x30
   195a6: 82 80        	ret
   195a8: 85 47        	li	a5, 0x1
   195aa: 23 a0 f8 00  	sw	a5, 0x0(a7)
   195ae: 22 74        	ld	s0, 0x28(sp)
   195b0: 82 74        	ld	s1, 0x20(sp)
   195b2: 15 45        	li	a0, 0x5
   195b4: 45 61        	addi	sp, sp, 0x30
   195b6: 82 80        	ret
   195b8: 09 07        	addi	a4, a4, 0x2
   195ba: 18 e1        	sd	a4, 0x0(a0)
   195bc: 09 bf        	j	0x194ce <__hexnan+0x98>
   195be: b3 87 b8 40  	sub	a5, a7, a1
   195c2: f1 9b        	andi	a5, a5, -0x4
   195c4: 91 07        	addi	a5, a5, 0x4
   195c6: 2d bf        	j	0x19500 <__hexnan+0xca>
   195c8: a1 47        	li	a5, 0x8
   195ca: bb 87 07 41  	subw	a5, a5, a6
   195ce: 94 41        	lw	a3, 0x0(a1)
   195d0: 1b 93 27 00  	slliw	t1, a5, 0x2
   195d4: 13 08 00 02  	li	a6, 0x20
   195d8: 3b 08 68 40  	subw	a6, a6, t1
   195dc: ae 87        	mv	a5, a1
   195de: d8 43        	lw	a4, 0x4(a5)
   195e0: 91 07        	addi	a5, a5, 0x4
   195e2: 3b 15 07 01  	sllw	a0, a4, a6
   195e6: c9 8e        	or	a3, a3, a0
   195e8: 3b 57 67 00  	srlw	a4, a4, t1
   195ec: 23 ae d7 fe  	sw	a3, -0x4(a5)
   195f0: 98 c3        	sw	a4, 0x0(a5)
   195f2: 9b 06 07 00  	sext.w	a3, a4
   195f6: e3 e4 c7 ff  	bltu	a5, t3, 0x195de <__hexnan+0x1a8>
   195fa: e3 63 b6 ee  	bltu	a2, a1, 0x194e0 <__hexnan+0xaa>
   195fe: b5 bf        	j	0x1957a <__hexnan+0x144>

0000000000019600 <_mbtowc_r>:
   19600: 83 b7 81 e6  	ld	a5, -0x198(gp)
   19604: 82 87        	jr	a5

0000000000019606 <__ascii_mbtowc>:
   19606: 99 c9        	beqz	a1, 0x1961c <__ascii_mbtowc+0x16>
   19608: 1d c6        	beqz	a2, 0x19636 <__ascii_mbtowc+0x30>
   1960a: 95 ca        	beqz	a3, 0x1963e <__ascii_mbtowc+0x38>
   1960c: 83 47 06 00  	lbu	a5, 0x0(a2)
   19610: 9c c1        	sw	a5, 0x0(a1)
   19612: 03 45 06 00  	lbu	a0, 0x0(a2)
   19616: 33 35 a0 00  	snez	a0, a0
   1961a: 82 80        	ret
   1961c: 41 11        	addi	sp, sp, -0x10
   1961e: 6c 00        	addi	a1, sp, 0xc
   19620: 09 ce        	beqz	a2, 0x1963a <__ascii_mbtowc+0x34>
   19622: 85 c2        	beqz	a3, 0x19642 <__ascii_mbtowc+0x3c>
   19624: 83 47 06 00  	lbu	a5, 0x0(a2)
   19628: 9c c1        	sw	a5, 0x0(a1)
   1962a: 03 45 06 00  	lbu	a0, 0x0(a2)
   1962e: 33 35 a0 00  	snez	a0, a0
   19632: 41 01        	addi	sp, sp, 0x10
   19634: 82 80        	ret
   19636: 01 45        	li	a0, 0x0
   19638: 82 80        	ret
   1963a: 01 45        	li	a0, 0x0
   1963c: dd bf        	j	0x19632 <__ascii_mbtowc+0x2c>
   1963e: 79 55        	li	a0, -0x2
   19640: 82 80        	ret
   19642: 79 55        	li	a0, -0x2
   19644: fd b7        	j	0x19632 <__ascii_mbtowc+0x2c>

0000000000019646 <_Balloc>:
   19646: 3c 75        	ld	a5, 0x68(a0)
   19648: 01 11        	addi	sp, sp, -0x20
   1964a: 22 e8        	sd	s0, 0x10(sp)
   1964c: 26 e4        	sd	s1, 0x8(sp)
   1964e: 06 ec        	sd	ra, 0x18(sp)
   19650: aa 84        	mv	s1, a0
   19652: 2e 84        	mv	s0, a1
   19654: 99 cf        	beqz	a5, 0x19672 <_Balloc+0x2c>
   19656: 13 17 34 00  	slli	a4, s0, 0x3
   1965a: ba 97        	add	a5, a5, a4
   1965c: 88 63        	ld	a0, 0x0(a5)
   1965e: 05 c5        	beqz	a0, 0x19686 <_Balloc+0x40>
   19660: 18 61        	ld	a4, 0x0(a0)
   19662: 98 e3        	sd	a4, 0x0(a5)
   19664: 23 38 05 00  	sd	zero, 0x10(a0)
   19668: e2 60        	ld	ra, 0x18(sp)
   1966a: 42 64        	ld	s0, 0x10(sp)
   1966c: a2 64        	ld	s1, 0x8(sp)
   1966e: 05 61        	addi	sp, sp, 0x20
   19670: 82 80        	ret
   19672: 13 06 10 04  	li	a2, 0x41
   19676: a1 45        	li	a1, 0x8
   19678: ef 40 20 21  	jal	0x1d88a <_calloc_r>
   1967c: a8 f4        	sd	a0, 0x68(s1)
   1967e: aa 87        	mv	a5, a0
   19680: 79 f9        	bnez	a0, 0x19656 <_Balloc+0x10>
   19682: 01 45        	li	a0, 0x0
   19684: d5 b7        	j	0x19668 <_Balloc+0x22>
   19686: 85 47        	li	a5, 0x1
   19688: bb 97 87 00  	sllw	a5, a5, s0
   1968c: 1b 86 07 00  	sext.w	a2, a5
   19690: 1d 06        	addi	a2, a2, 0x7
   19692: 02 14        	slli	s0, s0, 0x20
   19694: 82 17        	slli	a5, a5, 0x20
   19696: 01 90        	srli	s0, s0, 0x20
   19698: 0a 06        	slli	a2, a2, 0x2
   1969a: 85 45        	li	a1, 0x1
   1969c: 26 85        	mv	a0, s1
   1969e: 5d 8c        	or	s0, s0, a5
   196a0: ef 40 a0 1e  	jal	0x1d88a <_calloc_r>
   196a4: 79 dd        	beqz	a0, 0x19682 <_Balloc+0x3c>
   196a6: 00 e5        	sd	s0, 0x8(a0)
   196a8: 75 bf        	j	0x19664 <_Balloc+0x1e>

00000000000196aa <_Bfree>:
   196aa: 81 c9        	beqz	a1, 0x196ba <_Bfree+0x10>
   196ac: 98 45        	lw	a4, 0x8(a1)
   196ae: 3c 75        	ld	a5, 0x68(a0)
   196b0: 0e 07        	slli	a4, a4, 0x3
   196b2: ba 97        	add	a5, a5, a4
   196b4: 98 63        	ld	a4, 0x0(a5)
   196b6: 98 e1        	sd	a4, 0x0(a1)
   196b8: 8c e3        	sd	a1, 0x0(a5)
   196ba: 82 80        	ret

00000000000196bc <__multadd>:
   196bc: 79 71        	addi	sp, sp, -0x30
   196be: 22 f0        	sd	s0, 0x20(sp)
   196c0: c0 49        	lw	s0, 0x14(a1)
   196c2: 41 63        	lui	t1, 0x10
   196c4: 4a e8        	sd	s2, 0x10(sp)
   196c6: 4e e4        	sd	s3, 0x8(sp)
   196c8: 06 f4        	sd	ra, 0x28(sp)
   196ca: 26 ec        	sd	s1, 0x18(sp)
   196cc: 2e 89        	mv	s2, a1
   196ce: aa 89        	mv	s3, a0
   196d0: 13 88 85 01  	addi	a6, a1, 0x18
   196d4: 81 48        	li	a7, 0x0
   196d6: 7d 13        	addi	t1, t1, -0x1
   196d8: 83 27 08 00  	lw	a5, 0x0(a6)
   196dc: 11 08        	addi	a6, a6, 0x4
   196de: 85 28        	addiw	a7, a7, 0x1
   196e0: 33 f7 67 00  	and	a4, a5, t1
   196e4: 3b 07 c7 02  	mulw	a4, a4, a2
   196e8: 9b d7 07 01  	srliw	a5, a5, 0x10
   196ec: bb 87 c7 02  	mulw	a5, a5, a2
   196f0: 35 9f        	addw	a4, a4, a3
   196f2: 9b 56 07 01  	srliw	a3, a4, 0x10
   196f6: 33 77 e3 00  	and	a4, t1, a4
   196fa: b5 9f        	addw	a5, a5, a3
   196fc: 9b 96 07 01  	slliw	a3, a5, 0x10
   19700: 35 9f        	addw	a4, a4, a3
   19702: 23 2e e8 fe  	sw	a4, -0x4(a6)
   19706: 9b d4 07 01  	srliw	s1, a5, 0x10
   1970a: 9b d6 07 01  	srliw	a3, a5, 0x10
   1970e: e3 c5 88 fc  	blt	a7, s0, 0x196d8 <__multadd+0x1c>
   19712: 89 ce        	beqz	a3, 0x1972c <__multadd+0x70>
   19714: 83 27 c9 00  	lw	a5, 0xc(s2)
   19718: 63 52 f4 02  	bge	s0, a5, 0x1973c <__multadd+0x80>
   1971c: 93 07 44 00  	addi	a5, s0, 0x4
   19720: 8a 07        	slli	a5, a5, 0x2
   19722: ca 97        	add	a5, a5, s2
   19724: 84 c7        	sw	s1, 0x8(a5)
   19726: 05 24        	addiw	s0, s0, 0x1
   19728: 23 2a 89 00  	sw	s0, 0x14(s2)
   1972c: a2 70        	ld	ra, 0x28(sp)
   1972e: 02 74        	ld	s0, 0x20(sp)
   19730: e2 64        	ld	s1, 0x18(sp)
   19732: a2 69        	ld	s3, 0x8(sp)
   19734: 4a 85        	mv	a0, s2
   19736: 42 69        	ld	s2, 0x10(sp)
   19738: 45 61        	addi	sp, sp, 0x30
   1973a: 82 80        	ret
   1973c: 83 25 89 00  	lw	a1, 0x8(s2)
   19740: 4e 85        	mv	a0, s3
   19742: 52 e0        	sd	s4, 0x0(sp)
   19744: 85 25        	addiw	a1, a1, 0x1
   19746: ef f0 1f f0  	jal	0x19646 <_Balloc>
   1974a: 2a 8a        	mv	s4, a0
   1974c: 21 c1        	beqz	a0, 0x1978c <__multadd+0xd0>
   1974e: 03 26 49 01  	lw	a2, 0x14(s2)
   19752: 93 05 09 01  	addi	a1, s2, 0x10
   19756: 41 05        	addi	a0, a0, 0x10
   19758: 09 06        	addi	a2, a2, 0x2
   1975a: 0a 06        	slli	a2, a2, 0x2
   1975c: ef e0 5f f0  	jal	0x18660 <memcpy>
   19760: 03 27 89 00  	lw	a4, 0x8(s2)
   19764: 83 b7 89 06  	ld	a5, 0x68(s3)
   19768: 0e 07        	slli	a4, a4, 0x3
   1976a: ba 97        	add	a5, a5, a4
   1976c: 98 63        	ld	a4, 0x0(a5)
   1976e: 23 30 e9 00  	sd	a4, 0x0(s2)
   19772: 23 b0 27 01  	sd	s2, 0x0(a5)
   19776: 93 07 44 00  	addi	a5, s0, 0x4
   1977a: 52 89        	mv	s2, s4
   1977c: 8a 07        	slli	a5, a5, 0x2
   1977e: ca 97        	add	a5, a5, s2
   19780: 02 6a        	ld	s4, 0x0(sp)
   19782: 05 24        	addiw	s0, s0, 0x1
   19784: 84 c7        	sw	s1, 0x8(a5)
   19786: 23 2a 89 00  	sw	s0, 0x14(s2)
   1978a: 4d b7        	j	0x1972c <__multadd+0x70>
   1978c: b7 16 02 00  	lui	a3, 0x21
   19790: 37 15 02 00  	lui	a0, 0x21
   19794: 93 86 06 33  	addi	a3, a3, 0x330
   19798: 01 46        	li	a2, 0x0
   1979a: 93 05 a0 0b  	li	a1, 0xba
   1979e: 13 05 05 3b  	addi	a0, a0, 0x3b0
   197a2: ef 40 a0 09  	jal	0x1d83c <__assert_func>

00000000000197a6 <__s2b>:
   197a6: 39 71        	addi	sp, sp, -0x40
   197a8: 22 f8        	sd	s0, 0x30(sp)
   197aa: 26 f4        	sd	s1, 0x28(sp)
   197ac: 4a f0        	sd	s2, 0x20(sp)
   197ae: 4e ec        	sd	s3, 0x18(sp)
   197b0: 52 e8        	sd	s4, 0x10(sp)
   197b2: b6 84        	mv	s1, a3
   197b4: 2e 84        	mv	s0, a1
   197b6: a1 26        	addiw	a3, a3, 0x8
   197b8: a5 45        	li	a1, 0x9
   197ba: 06 fc        	sd	ra, 0x38(sp)
   197bc: a5 47        	li	a5, 0x9
   197be: bb c6 b6 02  	divw	a3, a3, a1
   197c2: 2a 89        	mv	s2, a0
   197c4: 32 8a        	mv	s4, a2
   197c6: ba 89        	mv	s3, a4
   197c8: 63 d3 97 0a  	bge	a5, s1, 0x1986e <__s2b+0xc8>
   197cc: 85 47        	li	a5, 0x1
   197ce: 81 45        	li	a1, 0x0
   197d0: 9b 97 17 00  	slliw	a5, a5, 0x1
   197d4: 85 25        	addiw	a1, a1, 0x1
   197d6: e3 cd d7 fe  	blt	a5, a3, 0x197d0 <__s2b+0x2a>
   197da: 4a 85        	mv	a0, s2
   197dc: ef f0 bf e6  	jal	0x19646 <_Balloc>
   197e0: aa 85        	mv	a1, a0
   197e2: 41 c9        	beqz	a0, 0x19872 <__s2b+0xcc>
   197e4: 85 47        	li	a5, 0x1
   197e6: 5c c9        	sw	a5, 0x14(a0)
   197e8: 23 2c 35 01  	sw	s3, 0x18(a0)
   197ec: a5 47        	li	a5, 0x9
   197ee: 63 dd 47 07  	bge	a5, s4, 0x19868 <__s2b+0xc2>
   197f2: 93 17 0a 02  	slli	a5, s4, 0x20
   197f6: 5a e0        	sd	s6, 0x0(sp)
   197f8: 81 93        	srli	a5, a5, 0x20
   197fa: 13 0b 94 00  	addi	s6, s0, 0x9
   197fe: 56 e4        	sd	s5, 0x8(sp)
   19800: 3e 94        	add	s0, s0, a5
   19802: 9b 0a 0a 00  	sext.w	s5, s4
   19806: da 89        	mv	s3, s6
   19808: 83 c6 09 00  	lbu	a3, 0x0(s3)
   1980c: 29 46        	li	a2, 0xa
   1980e: 4a 85        	mv	a0, s2
   19810: 9b 86 06 fd  	addiw	a3, a3, -0x30
   19814: ef f0 9f ea  	jal	0x196bc <__multadd>
   19818: 85 09        	addi	s3, s3, 0x1
   1981a: aa 85        	mv	a1, a0
   1981c: e3 96 89 fe  	bne	s3, s0, 0x19808 <__s2b+0x62>
   19820: e1 3a        	addiw	s5, s5, -0x8
   19822: 82 1a        	slli	s5, s5, 0x20
   19824: 93 da 0a 02  	srli	s5, s5, 0x20
   19828: 33 04 5b 01  	add	s0, s6, s5
   1982c: a2 6a        	ld	s5, 0x8(sp)
   1982e: 02 6b        	ld	s6, 0x0(sp)
   19830: 63 53 9a 02  	bge	s4, s1, 0x19856 <__s2b+0xb0>
   19834: bb 84 44 41  	subw	s1, s1, s4
   19838: 82 14        	slli	s1, s1, 0x20
   1983a: 81 90        	srli	s1, s1, 0x20
   1983c: a2 94        	add	s1, s1, s0
   1983e: 83 46 04 00  	lbu	a3, 0x0(s0)
   19842: 29 46        	li	a2, 0xa
   19844: 4a 85        	mv	a0, s2
   19846: 9b 86 06 fd  	addiw	a3, a3, -0x30
   1984a: ef f0 3f e7  	jal	0x196bc <__multadd>
   1984e: 05 04        	addi	s0, s0, 0x1
   19850: aa 85        	mv	a1, a0
   19852: e3 16 94 fe  	bne	s0, s1, 0x1983e <__s2b+0x98>
   19856: e2 70        	ld	ra, 0x38(sp)
   19858: 42 74        	ld	s0, 0x30(sp)
   1985a: a2 74        	ld	s1, 0x28(sp)
   1985c: 02 79        	ld	s2, 0x20(sp)
   1985e: e2 69        	ld	s3, 0x18(sp)
   19860: 42 6a        	ld	s4, 0x10(sp)
   19862: 2e 85        	mv	a0, a1
   19864: 21 61        	addi	sp, sp, 0x40
   19866: 82 80        	ret
   19868: 29 04        	addi	s0, s0, 0xa
   1986a: 25 4a        	li	s4, 0x9
   1986c: d1 b7        	j	0x19830 <__s2b+0x8a>
   1986e: 81 45        	li	a1, 0x0
   19870: ad b7        	j	0x197da <__s2b+0x34>
   19872: b7 16 02 00  	lui	a3, 0x21
   19876: 37 15 02 00  	lui	a0, 0x21
   1987a: 93 86 06 33  	addi	a3, a3, 0x330
   1987e: 01 46        	li	a2, 0x0
   19880: 93 05 30 0d  	li	a1, 0xd3
   19884: 13 05 05 3b  	addi	a0, a0, 0x3b0
   19888: 56 e4        	sd	s5, 0x8(sp)
   1988a: 5a e0        	sd	s6, 0x0(sp)
   1988c: ef 30 10 7b  	jal	0x1d83c <__assert_func>

0000000000019890 <__hi0bits>:
   19890: aa 87        	mv	a5, a0
   19892: 41 67        	lui	a4, 0x10
   19894: 01 45        	li	a0, 0x0
   19896: 63 f5 e7 00  	bgeu	a5, a4, 0x198a0 <__hi0bits+0x10>
   1989a: 9b 97 07 01  	slliw	a5, a5, 0x10
   1989e: 41 45        	li	a0, 0x10
   198a0: 37 07 00 01  	lui	a4, 0x1000
   198a4: 63 f5 e7 00  	bgeu	a5, a4, 0x198ae <__hi0bits+0x1e>
   198a8: 9b 97 87 00  	slliw	a5, a5, 0x8
   198ac: 21 25        	addiw	a0, a0, 0x8
   198ae: 37 07 00 10  	lui	a4, 0x10000
   198b2: 63 f5 e7 00  	bgeu	a5, a4, 0x198bc <__hi0bits+0x2c>
   198b6: 9b 97 47 00  	slliw	a5, a5, 0x4
   198ba: 11 25        	addiw	a0, a0, 0x4
   198bc: 37 07 00 40  	lui	a4, 0x40000
   198c0: 63 e6 e7 00  	bltu	a5, a4, 0x198cc <__hi0bits+0x3c>
   198c4: 63 c0 07 02  	bltz	a5, 0x198e4 <__hi0bits+0x54>
   198c8: 05 25        	addiw	a0, a0, 0x1
   198ca: 82 80        	ret
   198cc: 93 96 27 02  	slli	a3, a5, 0x22
   198d0: 1b 97 27 00  	slliw	a4, a5, 0x2
   198d4: 63 c9 06 00  	bltz	a3, 0x198e6 <__hi0bits+0x56>
   198d8: 93 17 17 02  	slli	a5, a4, 0x21
   198dc: 63 c7 07 00  	bltz	a5, 0x198ea <__hi0bits+0x5a>
   198e0: 13 05 00 02  	li	a0, 0x20
   198e4: 82 80        	ret
   198e6: 09 25        	addiw	a0, a0, 0x2
   198e8: 82 80        	ret
   198ea: 0d 25        	addiw	a0, a0, 0x3
   198ec: 82 80        	ret

00000000000198ee <__lo0bits>:
   198ee: 1c 41        	lw	a5, 0x0(a0)
   198f0: 2a 87        	mv	a4, a0
   198f2: 93 f6 77 00  	andi	a3, a5, 0x7
   198f6: 3e 86        	mv	a2, a5
   198f8: 81 ce        	beqz	a3, 0x19910 <__lo0bits+0x22>
   198fa: 93 f6 17 00  	andi	a3, a5, 0x1
   198fe: 01 45        	li	a0, 0x0
   19900: 9d ee        	bnez	a3, 0x1993e <__lo0bits+0x50>
   19902: 09 8a        	andi	a2, a2, 0x2
   19904: 25 ce        	beqz	a2, 0x1997c <__lo0bits+0x8e>
   19906: 9b d7 17 00  	srliw	a5, a5, 0x1
   1990a: 1c c3        	sw	a5, 0x0(a4)
   1990c: 05 45        	li	a0, 0x1
   1990e: 82 80        	ret
   19910: 93 96 07 03  	slli	a3, a5, 0x30
   19914: c1 92        	srli	a3, a3, 0x30
   19916: 01 45        	li	a0, 0x0
   19918: b9 ca        	beqz	a3, 0x1996e <__lo0bits+0x80>
   1991a: 93 f6 f7 0f  	andi	a3, a5, 0xff
   1991e: a9 c2        	beqz	a3, 0x19960 <__lo0bits+0x72>
   19920: 93 f6 f7 00  	andi	a3, a5, 0xf
   19924: 9d c6        	beqz	a3, 0x19952 <__lo0bits+0x64>
   19926: 93 f6 37 00  	andi	a3, a5, 0x3
   1992a: 89 ce        	beqz	a3, 0x19944 <__lo0bits+0x56>
   1992c: 93 f6 17 00  	andi	a3, a5, 0x1
   19930: 81 ea        	bnez	a3, 0x19940 <__lo0bits+0x52>
   19932: 9b d7 17 00  	srliw	a5, a5, 0x1
   19936: 05 25        	addiw	a0, a0, 0x1
   19938: 81 e7        	bnez	a5, 0x19940 <__lo0bits+0x52>
   1993a: 13 05 00 02  	li	a0, 0x20
   1993e: 82 80        	ret
   19940: 1c c3        	sw	a5, 0x0(a4)
   19942: 82 80        	ret
   19944: 9b d7 27 00  	srliw	a5, a5, 0x2
   19948: 93 f6 17 00  	andi	a3, a5, 0x1
   1994c: 09 25        	addiw	a0, a0, 0x2
   1994e: ed fa        	bnez	a3, 0x19940 <__lo0bits+0x52>
   19950: cd b7        	j	0x19932 <__lo0bits+0x44>
   19952: 9b d7 47 00  	srliw	a5, a5, 0x4
   19956: 93 f6 37 00  	andi	a3, a5, 0x3
   1995a: 11 25        	addiw	a0, a0, 0x4
   1995c: e1 fa        	bnez	a3, 0x1992c <__lo0bits+0x3e>
   1995e: dd b7        	j	0x19944 <__lo0bits+0x56>
   19960: 9b d7 87 00  	srliw	a5, a5, 0x8
   19964: 93 f6 f7 00  	andi	a3, a5, 0xf
   19968: 21 25        	addiw	a0, a0, 0x8
   1996a: d5 fe        	bnez	a3, 0x19926 <__lo0bits+0x38>
   1996c: dd b7        	j	0x19952 <__lo0bits+0x64>
   1996e: 9b d7 07 01  	srliw	a5, a5, 0x10
   19972: 93 f6 f7 0f  	andi	a3, a5, 0xff
   19976: 41 45        	li	a0, 0x10
   19978: c5 f6        	bnez	a3, 0x19920 <__lo0bits+0x32>
   1997a: dd b7        	j	0x19960 <__lo0bits+0x72>
   1997c: 9b d7 27 00  	srliw	a5, a5, 0x2
   19980: 1c c3        	sw	a5, 0x0(a4)
   19982: 09 45        	li	a0, 0x2
   19984: 82 80        	ret

0000000000019986 <__i2b>:
   19986: 3c 75        	ld	a5, 0x68(a0)
   19988: 01 11        	addi	sp, sp, -0x20
   1998a: 22 e8        	sd	s0, 0x10(sp)
   1998c: 26 e4        	sd	s1, 0x8(sp)
   1998e: 06 ec        	sd	ra, 0x18(sp)
   19990: 2a 84        	mv	s0, a0
   19992: ae 84        	mv	s1, a1
   19994: 91 cf        	beqz	a5, 0x199b0 <__i2b+0x2a>
   19996: 88 67        	ld	a0, 0x8(a5)
   19998: 29 c1        	beqz	a0, 0x199da <__i2b+0x54>
   1999a: 18 61        	ld	a4, 0x0(a0)
   1999c: 98 e7        	sd	a4, 0x8(a5)
   1999e: e2 60        	ld	ra, 0x18(sp)
   199a0: 42 64        	ld	s0, 0x10(sp)
   199a2: 85 47        	li	a5, 0x1
   199a4: 82 17        	slli	a5, a5, 0x20
   199a6: 04 cd        	sw	s1, 0x18(a0)
   199a8: 1c e9        	sd	a5, 0x10(a0)
   199aa: a2 64        	ld	s1, 0x8(sp)
   199ac: 05 61        	addi	sp, sp, 0x20
   199ae: 82 80        	ret
   199b0: 13 06 10 04  	li	a2, 0x41
   199b4: a1 45        	li	a1, 0x8
   199b6: ef 30 50 6d  	jal	0x1d88a <_calloc_r>
   199ba: 28 f4        	sd	a0, 0x68(s0)
   199bc: aa 87        	mv	a5, a0
   199be: 61 fd        	bnez	a0, 0x19996 <__i2b+0x10>
   199c0: b7 16 02 00  	lui	a3, 0x21
   199c4: 37 15 02 00  	lui	a0, 0x21
   199c8: 93 86 06 33  	addi	a3, a3, 0x330
   199cc: 01 46        	li	a2, 0x0
   199ce: 93 05 50 14  	li	a1, 0x145
   199d2: 13 05 05 3b  	addi	a0, a0, 0x3b0
   199d6: ef 30 70 66  	jal	0x1d83c <__assert_func>
   199da: 13 06 40 02  	li	a2, 0x24
   199de: 85 45        	li	a1, 0x1
   199e0: 22 85        	mv	a0, s0
   199e2: ef 30 90 6a  	jal	0x1d88a <_calloc_r>
   199e6: 69 dd        	beqz	a0, 0x199c0 <__i2b+0x3a>
   199e8: 85 47        	li	a5, 0x1
   199ea: 86 17        	slli	a5, a5, 0x21
   199ec: 85 07        	addi	a5, a5, 0x1
   199ee: 1c e5        	sd	a5, 0x8(a0)
   199f0: 7d b7        	j	0x1999e <__i2b+0x18>

00000000000199f2 <__multiply>:
   199f2: 79 71        	addi	sp, sp, -0x30
   199f4: 4a e8        	sd	s2, 0x10(sp)
   199f6: 4e e4        	sd	s3, 0x8(sp)
   199f8: 03 29 46 01  	lw	s2, 0x14(a2)
   199fc: 83 a9 45 01  	lw	s3, 0x14(a1)
   19a00: 26 ec        	sd	s1, 0x18(sp)
   19a02: 52 e0        	sd	s4, 0x0(sp)
   19a04: 06 f4        	sd	ra, 0x28(sp)
   19a06: 22 f0        	sd	s0, 0x20(sp)
   19a08: 2e 8a        	mv	s4, a1
   19a0a: b2 84        	mv	s1, a2
   19a0c: 63 c7 29 01  	blt	s3, s2, 0x19a1a <__multiply+0x28>
   19a10: ca 87        	mv	a5, s2
   19a12: ae 84        	mv	s1, a1
   19a14: 4e 89        	mv	s2, s3
   19a16: 32 8a        	mv	s4, a2
   19a18: be 89        	mv	s3, a5
   19a1a: dc 44        	lw	a5, 0xc(s1)
   19a1c: 3b 04 39 01  	addw	s0, s2, s3
   19a20: 8c 44        	lw	a1, 0x8(s1)
   19a22: 63 d3 87 00  	bge	a5, s0, 0x19a28 <__multiply+0x36>
   19a26: 85 25        	addiw	a1, a1, 0x1
   19a28: ef f0 ff c1  	jal	0x19646 <_Balloc>
   19a2c: 63 0c 05 14  	beqz	a0, 0x19b84 <__multiply+0x192>
   19a30: 13 03 85 01  	addi	t1, a0, 0x18
   19a34: 93 18 24 00  	slli	a7, s0, 0x2
   19a38: 9a 98        	add	a7, a7, t1
   19a3a: 9a 87        	mv	a5, t1
   19a3c: 63 77 13 01  	bgeu	t1, a7, 0x19a4a <__multiply+0x58>
   19a40: 23 a0 07 00  	sw	zero, 0x0(a5)
   19a44: 91 07        	addi	a5, a5, 0x4
   19a46: e3 ed 17 ff  	bltu	a5, a7, 0x19a40 <__multiply+0x4e>
   19a4a: 13 08 8a 01  	addi	a6, s4, 0x18
   19a4e: 13 9e 29 00  	slli	t3, s3, 0x2
   19a52: 93 8e 84 01  	addi	t4, s1, 0x18
   19a56: 93 15 29 00  	slli	a1, s2, 0x2
   19a5a: 42 9e        	add	t3, t3, a6
   19a5c: f6 95        	add	a1, a1, t4
   19a5e: 63 7a c8 0f  	bgeu	a6, t3, 0x19b52 <__multiply+0x160>
   19a62: 93 87 94 01  	addi	a5, s1, 0x19
   19a66: 11 4f        	li	t5, 0x4
   19a68: 63 f7 f5 10  	bgeu	a1, a5, 0x19b76 <__multiply+0x184>
   19a6c: c1 66        	lui	a3, 0x10
   19a6e: fd 16        	addi	a3, a3, -0x1
   19a70: 09 a8        	j	0x19a82 <__multiply+0x90>
   19a72: 9b df 0f 01  	srliw	t6, t6, 0x10
   19a76: 63 9d 0f 06  	bnez	t6, 0x19af0 <__multiply+0xfe>
   19a7a: 11 08        	addi	a6, a6, 0x4
   19a7c: 11 03        	addi	t1, t1, 0x4
   19a7e: 63 7a c8 0d  	bgeu	a6, t3, 0x19b52 <__multiply+0x160>
   19a82: 83 2f 08 00  	lw	t6, 0x0(a6)
   19a86: b3 f3 df 00  	and	t2, t6, a3
   19a8a: e3 84 03 fe  	beqz	t2, 0x19a72 <__multiply+0x80>
   19a8e: 9a 82        	mv	t0, t1
   19a90: f6 8f        	mv	t6, t4
   19a92: 81 44        	li	s1, 0x0
   19a94: 83 a7 0f 00  	lw	a5, 0x0(t6)
   19a98: 03 a6 02 00  	lw	a2, 0x0(t0)
   19a9c: 91 02        	addi	t0, t0, 0x4
   19a9e: 33 f7 d7 00  	and	a4, a5, a3
   19aa2: 3b 07 77 02  	mulw	a4, a4, t2
   19aa6: 9b d7 07 01  	srliw	a5, a5, 0x10
   19aaa: 33 79 d6 00  	and	s2, a2, a3
   19aae: 1b 56 06 01  	srliw	a2, a2, 0x10
   19ab2: 91 0f        	addi	t6, t6, 0x4
   19ab4: bb 87 77 02  	mulw	a5, a5, t2
   19ab8: 3b 07 27 01  	addw	a4, a4, s2
   19abc: 25 9f        	addw	a4, a4, s1
   19abe: 9b 54 07 01  	srliw	s1, a4, 0x10
   19ac2: 75 8f        	and	a4, a4, a3
   19ac4: b1 9f        	addw	a5, a5, a2
   19ac6: a5 9f        	addw	a5, a5, s1
   19ac8: 1b 96 07 01  	slliw	a2, a5, 0x10
   19acc: 51 8f        	or	a4, a4, a2
   19ace: 23 ae e2 fe  	sw	a4, -0x4(t0)
   19ad2: 9b d4 07 01  	srliw	s1, a5, 0x10
   19ad6: 1b d7 07 01  	srliw	a4, a5, 0x10
   19ada: e3 ed bf fa  	bltu	t6, a1, 0x19a94 <__multiply+0xa2>
   19ade: b3 07 e3 01  	add	a5, t1, t5
   19ae2: 98 c3        	sw	a4, 0x0(a5)
   19ae4: 83 2f 08 00  	lw	t6, 0x0(a6)
   19ae8: 9b df 0f 01  	srliw	t6, t6, 0x10
   19aec: e3 87 0f f8  	beqz	t6, 0x19a7a <__multiply+0x88>
   19af0: 03 27 03 00  	lw	a4, 0x0(t1)
   19af4: 9a 82        	mv	t0, t1
   19af6: 76 86        	mv	a2, t4
   19af8: ba 83        	mv	t2, a4
   19afa: 81 44        	li	s1, 0x0
   19afc: 1c 42        	lw	a5, 0x0(a2)
   19afe: 9b d9 03 01  	srliw	s3, t2, 0x10
   19b02: 75 8f        	and	a4, a4, a3
   19b04: f5 8f        	and	a5, a5, a3
   19b06: bb 87 f7 03  	mulw	a5, a5, t6
   19b0a: 83 a3 42 00  	lw	t2, 0x4(t0)
   19b0e: 91 02        	addi	t0, t0, 0x4
   19b10: 11 06        	addi	a2, a2, 0x4
   19b12: 33 f9 d3 00  	and	s2, t2, a3
   19b16: a5 9f        	addw	a5, a5, s1
   19b18: bb 87 37 01  	addw	a5, a5, s3
   19b1c: 9b 94 07 01  	slliw	s1, a5, 0x10
   19b20: 45 8f        	or	a4, a4, s1
   19b22: 23 ae e2 fe  	sw	a4, -0x4(t0)
   19b26: 03 57 e6 ff  	lhu	a4, -0x2(a2)
   19b2a: 9b d7 07 01  	srliw	a5, a5, 0x10
   19b2e: 3b 07 f7 03  	mulw	a4, a4, t6
   19b32: 3b 07 27 01  	addw	a4, a4, s2
   19b36: b9 9f        	addw	a5, a5, a4
   19b38: 1b 87 07 00  	sext.w	a4, a5
   19b3c: 9b d4 07 01  	srliw	s1, a5, 0x10
   19b40: e3 6e b6 fa  	bltu	a2, a1, 0x19afc <__multiply+0x10a>
   19b44: 33 07 e3 01  	add	a4, t1, t5
   19b48: 1c c3        	sw	a5, 0x0(a4)
   19b4a: 11 08        	addi	a6, a6, 0x4
   19b4c: 11 03        	addi	t1, t1, 0x4
   19b4e: e3 6a c8 f3  	bltu	a6, t3, 0x19a82 <__multiply+0x90>
   19b52: 63 45 80 00  	bgtz	s0, 0x19b5c <__multiply+0x16a>
   19b56: 39 a0        	j	0x19b64 <__multiply+0x172>
   19b58: 7d 34        	addiw	s0, s0, -0x1
   19b5a: 09 c4        	beqz	s0, 0x19b64 <__multiply+0x172>
   19b5c: 83 a7 c8 ff  	lw	a5, -0x4(a7)
   19b60: f1 18        	addi	a7, a7, -0x4
   19b62: fd db        	beqz	a5, 0x19b58 <__multiply+0x166>
   19b64: a2 70        	ld	ra, 0x28(sp)
   19b66: 40 c9        	sw	s0, 0x14(a0)
   19b68: 02 74        	ld	s0, 0x20(sp)
   19b6a: e2 64        	ld	s1, 0x18(sp)
   19b6c: 42 69        	ld	s2, 0x10(sp)
   19b6e: a2 69        	ld	s3, 0x8(sp)
   19b70: 02 6a        	ld	s4, 0x0(sp)
   19b72: 45 61        	addi	sp, sp, 0x30
   19b74: 82 80        	ret
   19b76: b3 87 95 40  	sub	a5, a1, s1
   19b7a: 9d 17        	addi	a5, a5, -0x19
   19b7c: f1 9b        	andi	a5, a5, -0x4
   19b7e: 13 8f 47 00  	addi	t5, a5, 0x4
   19b82: ed b5        	j	0x19a6c <__multiply+0x7a>
   19b84: b7 16 02 00  	lui	a3, 0x21
   19b88: 37 15 02 00  	lui	a0, 0x21
   19b8c: 93 86 06 33  	addi	a3, a3, 0x330
   19b90: 01 46        	li	a2, 0x0
   19b92: 93 05 20 16  	li	a1, 0x162
   19b96: 13 05 05 3b  	addi	a0, a0, 0x3b0
   19b9a: ef 30 30 4a  	jal	0x1d83c <__assert_func>

0000000000019b9e <__pow5mult>:
   19b9e: 79 71        	addi	sp, sp, -0x30
   19ba0: 22 f0        	sd	s0, 0x20(sp)
   19ba2: 4a e8        	sd	s2, 0x10(sp)
   19ba4: 4e e4        	sd	s3, 0x8(sp)
   19ba6: 06 f4        	sd	ra, 0x28(sp)
   19ba8: 93 77 36 00  	andi	a5, a2, 0x3
   19bac: 32 84        	mv	s0, a2
   19bae: aa 89        	mv	s3, a0
   19bb0: 2e 89        	mv	s2, a1
   19bb2: ad eb        	bnez	a5, 0x19c24 <__pow5mult+0x86>
   19bb4: 09 84        	srai	s0, s0, 0x2
   19bb6: 31 c4        	beqz	s0, 0x19c02 <__pow5mult+0x64>
   19bb8: 26 ec        	sd	s1, 0x18(sp)
   19bba: 83 b4 09 06  	ld	s1, 0x60(s3)
   19bbe: c1 c0        	beqz	s1, 0x19c3e <__pow5mult+0xa0>
   19bc0: 93 77 14 00  	andi	a5, s0, 0x1
   19bc4: 89 eb        	bnez	a5, 0x19bd6 <__pow5mult+0x38>
   19bc6: 05 84        	srai	s0, s0, 0x1
   19bc8: 05 cc        	beqz	s0, 0x19c00 <__pow5mult+0x62>
   19bca: 88 60        	ld	a0, 0x0(s1)
   19bcc: 31 c1        	beqz	a0, 0x19c10 <__pow5mult+0x72>
   19bce: aa 84        	mv	s1, a0
   19bd0: 93 77 14 00  	andi	a5, s0, 0x1
   19bd4: ed db        	beqz	a5, 0x19bc6 <__pow5mult+0x28>
   19bd6: 26 86        	mv	a2, s1
   19bd8: ca 85        	mv	a1, s2
   19bda: 4e 85        	mv	a0, s3
   19bdc: ef f0 7f e1  	jal	0x199f2 <__multiply>
   19be0: 63 0d 09 00  	beqz	s2, 0x19bfa <__pow5mult+0x5c>
   19be4: 03 27 89 00  	lw	a4, 0x8(s2)
   19be8: 83 b7 89 06  	ld	a5, 0x68(s3)
   19bec: 0e 07        	slli	a4, a4, 0x3
   19bee: ba 97        	add	a5, a5, a4
   19bf0: 98 63        	ld	a4, 0x0(a5)
   19bf2: 23 30 e9 00  	sd	a4, 0x0(s2)
   19bf6: 23 b0 27 01  	sd	s2, 0x0(a5)
   19bfa: 05 84        	srai	s0, s0, 0x1
   19bfc: 2a 89        	mv	s2, a0
   19bfe: 71 f4        	bnez	s0, 0x19bca <__pow5mult+0x2c>
   19c00: e2 64        	ld	s1, 0x18(sp)
   19c02: a2 70        	ld	ra, 0x28(sp)
   19c04: 02 74        	ld	s0, 0x20(sp)
   19c06: a2 69        	ld	s3, 0x8(sp)
   19c08: 4a 85        	mv	a0, s2
   19c0a: 42 69        	ld	s2, 0x10(sp)
   19c0c: 45 61        	addi	sp, sp, 0x30
   19c0e: 82 80        	ret
   19c10: 26 86        	mv	a2, s1
   19c12: a6 85        	mv	a1, s1
   19c14: 4e 85        	mv	a0, s3
   19c16: ef f0 df dd  	jal	0x199f2 <__multiply>
   19c1a: 88 e0        	sd	a0, 0x0(s1)
   19c1c: 23 30 05 00  	sd	zero, 0x0(a0)
   19c20: aa 84        	mv	s1, a0
   19c22: 7d b7        	j	0x19bd0 <__pow5mult+0x32>
   19c24: fd 37        	addiw	a5, a5, -0x1
   19c26: 37 17 02 00  	lui	a4, 0x21
   19c2a: 13 07 87 7f  	addi	a4, a4, 0x7f8
   19c2e: 8a 07        	slli	a5, a5, 0x2
   19c30: ba 97        	add	a5, a5, a4
   19c32: 90 43        	lw	a2, 0x0(a5)
   19c34: 81 46        	li	a3, 0x0
   19c36: ef f0 7f a8  	jal	0x196bc <__multadd>
   19c3a: 2a 89        	mv	s2, a0
   19c3c: a5 bf        	j	0x19bb4 <__pow5mult+0x16>
   19c3e: 85 45        	li	a1, 0x1
   19c40: 4e 85        	mv	a0, s3
   19c42: ef f0 5f a0  	jal	0x19646 <_Balloc>
   19c46: aa 84        	mv	s1, a0
   19c48: 19 c9        	beqz	a0, 0x19c5e <__pow5mult+0xc0>
   19c4a: 93 07 10 27  	li	a5, 0x271
   19c4e: 1c cd        	sw	a5, 0x18(a0)
   19c50: 85 47        	li	a5, 0x1
   19c52: 5c c9        	sw	a5, 0x14(a0)
   19c54: 23 b0 a9 06  	sd	a0, 0x60(s3)
   19c58: 23 30 05 00  	sd	zero, 0x0(a0)
   19c5c: 95 b7        	j	0x19bc0 <__pow5mult+0x22>
   19c5e: b7 16 02 00  	lui	a3, 0x21
   19c62: 37 15 02 00  	lui	a0, 0x21
   19c66: 93 86 06 33  	addi	a3, a3, 0x330
   19c6a: 01 46        	li	a2, 0x0
   19c6c: 93 05 50 14  	li	a1, 0x145
   19c70: 13 05 05 3b  	addi	a0, a0, 0x3b0
   19c74: ef 30 90 3c  	jal	0x1d83c <__assert_func>

0000000000019c78 <__lshift>:
   19c78: 39 71        	addi	sp, sp, -0x40
   19c7a: 22 f8        	sd	s0, 0x30(sp)
   19c7c: c0 49        	lw	s0, 0x14(a1)
   19c7e: dc 45        	lw	a5, 0xc(a1)
   19c80: 56 e4        	sd	s5, 0x8(sp)
   19c82: 9b 5a 56 40  	sraiw	s5, a2, 0x5
   19c86: 3b 84 8a 00  	addw	s0, s5, s0
   19c8a: 26 f4        	sd	s1, 0x28(sp)
   19c8c: 4a f0        	sd	s2, 0x20(sp)
   19c8e: 4e ec        	sd	s3, 0x18(sp)
   19c90: 52 e8        	sd	s4, 0x10(sp)
   19c92: 5a e0        	sd	s6, 0x0(sp)
   19c94: 06 fc        	sd	ra, 0x38(sp)
   19c96: 1b 09 14 00  	addiw	s2, s0, 0x1
   19c9a: ae 84        	mv	s1, a1
   19c9c: 32 8a        	mv	s4, a2
   19c9e: 8c 45        	lw	a1, 0x8(a1)
   19ca0: aa 89        	mv	s3, a0
   19ca2: 13 5b 56 40  	srai	s6, a2, 0x5
   19ca6: 63 d7 27 01  	bge	a5, s2, 0x19cb4 <__lshift+0x3c>
   19caa: 9b 97 17 00  	slliw	a5, a5, 0x1
   19cae: 85 25        	addiw	a1, a1, 0x1
   19cb0: e3 cd 27 ff  	blt	a5, s2, 0x19caa <__lshift+0x32>
   19cb4: 4e 85        	mv	a0, s3
   19cb6: ef f0 1f 99  	jal	0x19646 <_Balloc>
   19cba: 71 c5        	beqz	a0, 0x19d86 <__lshift+0x10e>
   19cbc: 13 07 85 01  	addi	a4, a0, 0x18
   19cc0: 63 51 60 03  	blez	s6, 0x19ce2 <__lshift+0x6a>
   19cc4: 9b 86 6a 00  	addiw	a3, s5, 0x6
   19cc8: 8a 06        	slli	a3, a3, 0x2
   19cca: aa 96        	add	a3, a3, a0
   19ccc: ba 87        	mv	a5, a4
   19cce: 91 07        	addi	a5, a5, 0x4
   19cd0: 23 ae 07 fe  	sw	zero, -0x4(a5)
   19cd4: e3 9d d7 fe  	bne	a5, a3, 0x19cce <__lshift+0x56>
   19cd8: 93 97 0a 02  	slli	a5, s5, 0x20
   19cdc: 93 da e7 01  	srli	s5, a5, 0x1e
   19ce0: 56 97        	add	a4, a4, s5
   19ce2: 83 a8 44 01  	lw	a7, 0x14(s1)
   19ce6: 93 87 84 01  	addi	a5, s1, 0x18
   19cea: 13 76 fa 01  	andi	a2, s4, 0x1f
   19cee: 8a 08        	slli	a7, a7, 0x2
   19cf0: be 98        	add	a7, a7, a5
   19cf2: 3d ca        	beqz	a2, 0x19d68 <__lshift+0xf0>
   19cf4: 93 05 00 02  	li	a1, 0x20
   19cf8: 91 9d        	subw	a1, a1, a2
   19cfa: 3a 83        	mv	t1, a4
   19cfc: 81 46        	li	a3, 0x0
   19cfe: 03 a8 07 00  	lw	a6, 0x0(a5)
   19d02: 11 03        	addi	t1, t1, 0x4
   19d04: 91 07        	addi	a5, a5, 0x4
   19d06: 3b 18 c8 00  	sllw	a6, a6, a2
   19d0a: b3 e6 06 01  	or	a3, a3, a6
   19d0e: 23 2e d3 fe  	sw	a3, -0x4(t1)
   19d12: 03 a8 c7 ff  	lw	a6, -0x4(a5)
   19d16: bb 56 b8 00  	srlw	a3, a6, a1
   19d1a: 36 88        	mv	a6, a3
   19d1c: e3 e1 17 ff  	bltu	a5, a7, 0x19cfe <__lshift+0x86>
   19d20: 93 87 94 01  	addi	a5, s1, 0x19
   19d24: 11 46        	li	a2, 0x4
   19d26: 63 e8 f8 00  	bltu	a7, a5, 0x19d36 <__lshift+0xbe>
   19d2a: b3 87 98 40  	sub	a5, a7, s1
   19d2e: 9d 17        	addi	a5, a5, -0x19
   19d30: f1 9b        	andi	a5, a5, -0x4
   19d32: 13 86 47 00  	addi	a2, a5, 0x4
   19d36: 32 97        	add	a4, a4, a2
   19d38: 23 20 07 01  	sw	a6, 0x0(a4)
   19d3c: 91 e2        	bnez	a3, 0x19d40 <__lshift+0xc8>
   19d3e: 22 89        	mv	s2, s0
   19d40: 98 44        	lw	a4, 0x8(s1)
   19d42: 83 b7 89 06  	ld	a5, 0x68(s3)
   19d46: e2 70        	ld	ra, 0x38(sp)
   19d48: 0e 07        	slli	a4, a4, 0x3
   19d4a: ba 97        	add	a5, a5, a4
   19d4c: 98 63        	ld	a4, 0x0(a5)
   19d4e: 23 2a 25 01  	sw	s2, 0x14(a0)
   19d52: 42 74        	ld	s0, 0x30(sp)
   19d54: 98 e0        	sd	a4, 0x0(s1)
   19d56: 84 e3        	sd	s1, 0x0(a5)
   19d58: 02 79        	ld	s2, 0x20(sp)
   19d5a: a2 74        	ld	s1, 0x28(sp)
   19d5c: e2 69        	ld	s3, 0x18(sp)
   19d5e: 42 6a        	ld	s4, 0x10(sp)
   19d60: a2 6a        	ld	s5, 0x8(sp)
   19d62: 02 6b        	ld	s6, 0x0(sp)
   19d64: 21 61        	addi	sp, sp, 0x40
   19d66: 82 80        	ret
   19d68: 94 43        	lw	a3, 0x0(a5)
   19d6a: 91 07        	addi	a5, a5, 0x4
   19d6c: 11 07        	addi	a4, a4, 0x4
   19d6e: 23 2e d7 fe  	sw	a3, -0x4(a4)
   19d72: e3 f6 17 fd  	bgeu	a5, a7, 0x19d3e <__lshift+0xc6>
   19d76: 94 43        	lw	a3, 0x0(a5)
   19d78: 91 07        	addi	a5, a5, 0x4
   19d7a: 11 07        	addi	a4, a4, 0x4
   19d7c: 23 2e d7 fe  	sw	a3, -0x4(a4)
   19d80: e3 e4 17 ff  	bltu	a5, a7, 0x19d68 <__lshift+0xf0>
   19d84: 6d bf        	j	0x19d3e <__lshift+0xc6>
   19d86: b7 16 02 00  	lui	a3, 0x21
   19d8a: 37 15 02 00  	lui	a0, 0x21
   19d8e: 93 86 06 33  	addi	a3, a3, 0x330
   19d92: 01 46        	li	a2, 0x0
   19d94: 93 05 e0 1d  	li	a1, 0x1de
   19d98: 13 05 05 3b  	addi	a0, a0, 0x3b0
   19d9c: ef 30 10 2a  	jal	0x1d83c <__assert_func>

0000000000019da0 <__mcmp>:
   19da0: dc 49        	lw	a5, 0x14(a1)
   19da2: 2a 88        	mv	a6, a0
   19da4: 48 49        	lw	a0, 0x14(a0)
   19da6: 1d 9d        	subw	a0, a0, a5
   19da8: 1d e5        	bnez	a0, 0x19dd6 <__mcmp+0x36>
   19daa: 8a 07        	slli	a5, a5, 0x2
   19dac: 61 08        	addi	a6, a6, 0x18
   19dae: e1 05        	addi	a1, a1, 0x18
   19db0: 33 07 f8 00  	add	a4, a6, a5
   19db4: ae 97        	add	a5, a5, a1
   19db6: 19 a0        	j	0x19dbc <__mcmp+0x1c>
   19db8: 63 7f e8 00  	bgeu	a6, a4, 0x19dd6 <__mcmp+0x36>
   19dbc: 03 26 c7 ff  	lw	a2, -0x4(a4)
   19dc0: 83 a6 c7 ff  	lw	a3, -0x4(a5)
   19dc4: 71 17        	addi	a4, a4, -0x4
   19dc6: f1 17        	addi	a5, a5, -0x4
   19dc8: e3 08 d6 fe  	beq	a2, a3, 0x19db8 <__mcmp+0x18>
   19dcc: 05 45        	li	a0, 0x1
   19dce: 63 74 d6 00  	bgeu	a2, a3, 0x19dd6 <__mcmp+0x36>
   19dd2: 7d 55        	li	a0, -0x1
   19dd4: 82 80        	ret
   19dd6: 82 80        	ret

0000000000019dd8 <__mdiff>:
   19dd8: d8 49        	lw	a4, 0x14(a1)
   19dda: 5c 4a        	lw	a5, 0x14(a2)
   19ddc: 01 11        	addi	sp, sp, -0x20
   19dde: 22 e8        	sd	s0, 0x10(sp)
   19de0: 26 e4        	sd	s1, 0x8(sp)
   19de2: 06 ec        	sd	ra, 0x18(sp)
   19de4: 4a e0        	sd	s2, 0x0(sp)
   19de6: 1d 9f        	subw	a4, a4, a5
   19de8: 2e 84        	mv	s0, a1
   19dea: b2 84        	mv	s1, a2
   19dec: 63 10 07 14  	bnez	a4, 0x19f2c <__mdiff+0x154>
   19df0: 93 96 27 00  	slli	a3, a5, 0x2
   19df4: 13 86 85 01  	addi	a2, a1, 0x18
   19df8: 13 87 84 01  	addi	a4, s1, 0x18
   19dfc: b3 07 d6 00  	add	a5, a2, a3
   19e00: 36 97        	add	a4, a4, a3
   19e02: 19 a0        	j	0x19e08 <__mdiff+0x30>
   19e04: 63 7c f6 12  	bgeu	a2, a5, 0x19f3c <__mdiff+0x164>
   19e08: 83 a5 c7 ff  	lw	a1, -0x4(a5)
   19e0c: 83 26 c7 ff  	lw	a3, -0x4(a4)
   19e10: f1 17        	addi	a5, a5, -0x4
   19e12: 71 17        	addi	a4, a4, -0x4
   19e14: e3 88 d5 fe  	beq	a1, a3, 0x19e04 <__mdiff+0x2c>
   19e18: 05 49        	li	s2, 0x1
   19e1a: 63 e6 d5 00  	bltu	a1, a3, 0x19e26 <__mdiff+0x4e>
   19e1e: a6 87        	mv	a5, s1
   19e20: 01 49        	li	s2, 0x0
   19e22: a2 84        	mv	s1, s0
   19e24: 3e 84        	mv	s0, a5
   19e26: 8c 44        	lw	a1, 0x8(s1)
   19e28: ef f0 ff 81  	jal	0x19646 <_Balloc>
   19e2c: 63 0f 05 12  	beqz	a0, 0x19f6a <__mdiff+0x192>
   19e30: 03 a3 44 01  	lw	t1, 0x14(s1)
   19e34: 83 22 44 01  	lw	t0, 0x14(s0)
   19e38: 13 8f 84 01  	addi	t5, s1, 0x18
   19e3c: 13 1e 23 00  	slli	t3, t1, 0x2
   19e40: 13 08 84 01  	addi	a6, s0, 0x18
   19e44: 8a 02        	slli	t0, t0, 0x2
   19e46: 93 0f 85 01  	addi	t6, a0, 0x18
   19e4a: c1 68        	lui	a7, 0x10
   19e4c: 23 28 25 01  	sw	s2, 0x10(a0)
   19e50: 7a 9e        	add	t3, t3, t5
   19e52: c2 92        	add	t0, t0, a6
   19e54: fe 85        	mv	a1, t6
   19e56: fa 8e        	mv	t4, t5
   19e58: 01 46        	li	a2, 0x0
   19e5a: fd 18        	addi	a7, a7, -0x1
   19e5c: 03 a7 0e 00  	lw	a4, 0x0(t4)
   19e60: 83 26 08 00  	lw	a3, 0x0(a6)
   19e64: 91 05        	addi	a1, a1, 0x4
   19e66: b3 77 17 01  	and	a5, a4, a7
   19e6a: b3 f3 16 01  	and	t2, a3, a7
   19e6e: bb 87 77 40  	subw	a5, a5, t2
   19e72: b1 9f        	addw	a5, a5, a2
   19e74: 9b d6 06 01  	srliw	a3, a3, 0x10
   19e78: 1b 57 07 01  	srliw	a4, a4, 0x10
   19e7c: 15 9f        	subw	a4, a4, a3
   19e7e: 9b d6 07 41  	sraiw	a3, a5, 0x10
   19e82: 35 9f        	addw	a4, a4, a3
   19e84: b3 f7 f8 00  	and	a5, a7, a5
   19e88: 9b 16 07 01  	slliw	a3, a4, 0x10
   19e8c: d5 8f        	or	a5, a5, a3
   19e8e: 81 27        	sext.w	a5, a5
   19e90: 11 08        	addi	a6, a6, 0x4
   19e92: 23 ae f5 fe  	sw	a5, -0x4(a1)
   19e96: 91 0e        	addi	t4, t4, 0x4
   19e98: 1b 56 07 41  	sraiw	a2, a4, 0x10
   19e9c: e3 60 58 fc  	bltu	a6, t0, 0x19e5c <__mdiff+0x84>
   19ea0: 13 07 94 01  	addi	a4, s0, 0x19
   19ea4: 33 84 82 40  	sub	s0, t0, s0
   19ea8: 1d 14        	addi	s0, s0, -0x19
   19eaa: b3 b2 e2 00  	sltu	t0, t0, a4
   19eae: 93 c8 12 00  	xori	a7, t0, 0x1
   19eb2: 09 80        	srli	s0, s0, 0x2
   19eb4: 11 47        	li	a4, 0x4
   19eb6: 63 8f 02 06  	beqz	t0, 0x19f34 <__mdiff+0x15c>
   19eba: 3a 9f        	add	t5, t5, a4
   19ebc: b3 8e ef 00  	add	t4, t6, a4
   19ec0: 41 68        	lui	a6, 0x10
   19ec2: f6 85        	mv	a1, t4
   19ec4: fa 86        	mv	a3, t5
   19ec6: 7d 18        	addi	a6, a6, -0x1
   19ec8: 63 78 cf 09  	bgeu	t5, t3, 0x19f58 <__mdiff+0x180>
   19ecc: 9c 42        	lw	a5, 0x0(a3)
   19ece: 9b 08 06 00  	sext.w	a7, a2
   19ed2: 91 05        	addi	a1, a1, 0x4
   19ed4: 33 f7 07 01  	and	a4, a5, a6
   19ed8: 31 9f        	addw	a4, a4, a2
   19eda: 1b 57 07 41  	sraiw	a4, a4, 0x10
   19ede: 1b d6 07 01  	srliw	a2, a5, 0x10
   19ee2: 31 9f        	addw	a4, a4, a2
   19ee4: bb 87 17 01  	addw	a5, a5, a7
   19ee8: 1b 16 07 01  	slliw	a2, a4, 0x10
   19eec: b3 f7 07 01  	and	a5, a5, a6
   19ef0: d1 8f        	or	a5, a5, a2
   19ef2: 81 27        	sext.w	a5, a5
   19ef4: 91 06        	addi	a3, a3, 0x4
   19ef6: 23 ae f5 fe  	sw	a5, -0x4(a1)
   19efa: 1b 56 07 41  	sraiw	a2, a4, 0x10
   19efe: e3 e7 c6 fd  	bltu	a3, t3, 0x19ecc <__mdiff+0xf4>
   19f02: 7d 1e        	addi	t3, t3, -0x1
   19f04: 33 0e ee 41  	sub	t3, t3, t5
   19f08: 13 7e ce ff  	andi	t3, t3, -0x4
   19f0c: 33 87 ce 01  	add	a4, t4, t3
   19f10: 91 e7        	bnez	a5, 0x19f1c <__mdiff+0x144>
   19f12: 83 27 c7 ff  	lw	a5, -0x4(a4)
   19f16: 7d 33        	addiw	t1, t1, -0x1
   19f18: 71 17        	addi	a4, a4, -0x4
   19f1a: e5 df        	beqz	a5, 0x19f12 <__mdiff+0x13a>
   19f1c: e2 60        	ld	ra, 0x18(sp)
   19f1e: 42 64        	ld	s0, 0x10(sp)
   19f20: 23 2a 65 00  	sw	t1, 0x14(a0)
   19f24: a2 64        	ld	s1, 0x8(sp)
   19f26: 02 69        	ld	s2, 0x0(sp)
   19f28: 05 61        	addi	sp, sp, 0x20
   19f2a: 82 80        	ret
   19f2c: 05 49        	li	s2, 0x1
   19f2e: e3 58 07 ee  	bgez	a4, 0x19e1e <__mdiff+0x46>
   19f32: d5 bd        	j	0x19e26 <__mdiff+0x4e>
   19f34: 13 07 14 00  	addi	a4, s0, 0x1
   19f38: 0a 07        	slli	a4, a4, 0x2
   19f3a: 41 b7        	j	0x19eba <__mdiff+0xe2>
   19f3c: 81 45        	li	a1, 0x0
   19f3e: ef f0 8f f0  	jal	0x19646 <_Balloc>
   19f42: 29 c1        	beqz	a0, 0x19f84 <__mdiff+0x1ac>
   19f44: e2 60        	ld	ra, 0x18(sp)
   19f46: 42 64        	ld	s0, 0x10(sp)
   19f48: 85 47        	li	a5, 0x1
   19f4a: 5c c9        	sw	a5, 0x14(a0)
   19f4c: 23 2c 05 00  	sw	zero, 0x18(a0)
   19f50: a2 64        	ld	s1, 0x8(sp)
   19f52: 02 69        	ld	s2, 0x0(sp)
   19f54: 05 61        	addi	sp, sp, 0x20
   19f56: 82 80        	ret
   19f58: 01 47        	li	a4, 0x0
   19f5a: 63 94 08 00  	bnez	a7, 0x19f62 <__mdiff+0x18a>
   19f5e: 7e 97        	add	a4, a4, t6
   19f60: 45 bf        	j	0x19f10 <__mdiff+0x138>
   19f62: 13 17 24 00  	slli	a4, s0, 0x2
   19f66: 7e 97        	add	a4, a4, t6
   19f68: 65 b7        	j	0x19f10 <__mdiff+0x138>
   19f6a: b7 16 02 00  	lui	a3, 0x21
   19f6e: 37 15 02 00  	lui	a0, 0x21
   19f72: 93 86 06 33  	addi	a3, a3, 0x330
   19f76: 01 46        	li	a2, 0x0
   19f78: 93 05 50 24  	li	a1, 0x245
   19f7c: 13 05 05 3b  	addi	a0, a0, 0x3b0
   19f80: ef 30 d0 0b  	jal	0x1d83c <__assert_func>
   19f84: b7 16 02 00  	lui	a3, 0x21
   19f88: 37 15 02 00  	lui	a0, 0x21
   19f8c: 93 86 06 33  	addi	a3, a3, 0x330
   19f90: 01 46        	li	a2, 0x0
   19f92: 93 05 70 23  	li	a1, 0x237
   19f96: 13 05 05 3b  	addi	a0, a0, 0x3b0
   19f9a: ef 30 30 0a  	jal	0x1d83c <__assert_func>

0000000000019f9e <__ulp>:
   19f9e: 53 07 05 e2  	fmv.x.d	a4, fa0
   19fa2: b7 07 f0 7f  	lui	a5, 0x7ff00
   19fa6: 01 93        	srli	a4, a4, 0x20
   19fa8: 7d 8f        	and	a4, a4, a5
   19faa: b7 07 c0 fc  	lui	a5, 0xfcc00
   19fae: bb 86 e7 00  	addw	a3, a5, a4
   19fb2: 01 47        	li	a4, 0x0
   19fb4: 63 59 d0 00  	blez	a3, 0x19fc6 <__ulp+0x28>
   19fb8: 02 17        	slli	a4, a4, 0x20
   19fba: 82 16        	slli	a3, a3, 0x20
   19fbc: 01 93        	srli	a4, a4, 0x20
   19fbe: 55 8f        	or	a4, a4, a3
   19fc0: 53 05 07 f2  	fmv.d.x	fa0, a4
   19fc4: 82 80        	ret
   19fc6: bb 07 d0 40  	negw	a5, a3
   19fca: 1b d7 47 41  	sraiw	a4, a5, 0x14
   19fce: cd 46        	li	a3, 0x13
   19fd0: 63 ce e6 00  	blt	a3, a4, 0x19fec <__ulp+0x4e>
   19fd4: b7 06 08 00  	lui	a3, 0x80
   19fd8: bb d6 e6 40  	sraw	a3, a3, a4
   19fdc: 01 47        	li	a4, 0x0
   19fde: 02 17        	slli	a4, a4, 0x20
   19fe0: 82 16        	slli	a3, a3, 0x20
   19fe2: 01 93        	srli	a4, a4, 0x20
   19fe4: 55 8f        	or	a4, a4, a3
   19fe6: 53 05 07 f2  	fmv.d.x	fa0, a4
   19fea: 82 80        	ret
   19fec: 9b 07 c7 fe  	addiw	a5, a4, -0x14
   19ff0: f9 46        	li	a3, 0x1e
   19ff2: 05 47        	li	a4, 0x1
   19ff4: 63 c6 f6 00  	blt	a3, a5, 0x1a000 <__ulp+0x62>
   19ff8: 37 07 00 80  	lui	a4, 0x80000
   19ffc: 3b 57 f7 00  	srlw	a4, a4, a5
   1a000: 81 46        	li	a3, 0x0
   1a002: 02 17        	slli	a4, a4, 0x20
   1a004: 82 16        	slli	a3, a3, 0x20
   1a006: 01 93        	srli	a4, a4, 0x20
   1a008: 55 8f        	or	a4, a4, a3
   1a00a: 53 05 07 f2  	fmv.d.x	fa0, a4
   1a00e: 82 80        	ret

000000000001a010 <__b2d>:
   1a010: 79 71        	addi	sp, sp, -0x30
   1a012: 26 ec        	sd	s1, 0x18(sp)
   1a014: 44 49        	lw	s1, 0x14(a0)
   1a016: 22 f0        	sd	s0, 0x20(sp)
   1a018: 13 04 85 01  	addi	s0, a0, 0x18
   1a01c: 8a 04        	slli	s1, s1, 0x2
   1a01e: a2 94        	add	s1, s1, s0
   1a020: 4a e8        	sd	s2, 0x10(sp)
   1a022: 03 a9 c4 ff  	lw	s2, -0x4(s1)
   1a026: 4e e4        	sd	s3, 0x8(sp)
   1a028: 52 e0        	sd	s4, 0x0(sp)
   1a02a: 4a 85        	mv	a0, s2
   1a02c: ae 89        	mv	s3, a1
   1a02e: 06 f4        	sd	ra, 0x28(sp)
   1a030: ef f0 1f 86  	jal	0x19890 <__hi0bits>
   1a034: 93 06 00 02  	li	a3, 0x20
   1a038: bb 87 a6 40  	subw	a5, a3, a0
   1a03c: 23 a0 f9 00  	sw	a5, 0x0(s3)
   1a040: a9 47        	li	a5, 0xa
   1a042: 13 8a c4 ff  	addi	s4, s1, -0x4
   1a046: 63 d5 a7 08  	bge	a5, a0, 0x1a0d0 <__b2d+0xc0>
   1a04a: 9b 07 55 ff  	addiw	a5, a0, -0xb
   1a04e: 63 71 44 05  	bgeu	s0, s4, 0x1a090 <__b2d+0x80>
   1a052: 03 a7 84 ff  	lw	a4, -0x8(s1)
   1a056: a9 cb        	beqz	a5, 0x1a0a8 <__b2d+0x98>
   1a058: 9d 9e        	subw	a3, a3, a5
   1a05a: 3b 56 d7 00  	srlw	a2, a4, a3
   1a05e: 3b 19 f9 00  	sllw	s2, s2, a5
   1a062: 33 69 c9 00  	or	s2, s2, a2
   1a066: 37 06 f0 3f  	lui	a2, 0x3ff00
   1a06a: 33 69 c9 00  	or	s2, s2, a2
   1a06e: bb 15 f7 00  	sllw	a1, a4, a5
   1a072: 13 86 84 ff  	addi	a2, s1, -0x8
   1a076: 93 17 09 02  	slli	a5, s2, 0x20
   1a07a: 1b 87 05 00  	sext.w	a4, a1
   1a07e: 63 7a c4 02  	bgeu	s0, a2, 0x1a0b2 <__b2d+0xa2>
   1a082: 03 a7 44 ff  	lw	a4, -0xc(s1)
   1a086: 3b 57 d7 00  	srlw	a4, a4, a3
   1a08a: 4d 8f        	or	a4, a4, a1
   1a08c: 01 27        	sext.w	a4, a4
   1a08e: 15 a0        	j	0x1a0b2 <__b2d+0xa2>
   1a090: 2d 47        	li	a4, 0xb
   1a092: 63 0a e5 00  	beq	a0, a4, 0x1a0a6 <__b2d+0x96>
   1a096: 37 07 f0 3f  	lui	a4, 0x3ff00
   1a09a: bb 17 f9 00  	sllw	a5, s2, a5
   1a09e: d9 8f        	or	a5, a5, a4
   1a0a0: 82 17        	slli	a5, a5, 0x20
   1a0a2: 01 47        	li	a4, 0x0
   1a0a4: 39 a0        	j	0x1a0b2 <__b2d+0xa2>
   1a0a6: 01 47        	li	a4, 0x0
   1a0a8: b7 07 f0 3f  	lui	a5, 0x3ff00
   1a0ac: b3 67 f9 00  	or	a5, s2, a5
   1a0b0: 82 17        	slli	a5, a5, 0x20
   1a0b2: a2 70        	ld	ra, 0x28(sp)
   1a0b4: 02 74        	ld	s0, 0x20(sp)
   1a0b6: 81 93        	srli	a5, a5, 0x20
   1a0b8: 02 17        	slli	a4, a4, 0x20
   1a0ba: 01 93        	srli	a4, a4, 0x20
   1a0bc: 82 17        	slli	a5, a5, 0x20
   1a0be: d9 8f        	or	a5, a5, a4
   1a0c0: e2 64        	ld	s1, 0x18(sp)
   1a0c2: 42 69        	ld	s2, 0x10(sp)
   1a0c4: a2 69        	ld	s3, 0x8(sp)
   1a0c6: 02 6a        	ld	s4, 0x0(sp)
   1a0c8: 53 85 07 f2  	fmv.d.x	fa0, a5
   1a0cc: 45 61        	addi	sp, sp, 0x30
   1a0ce: 82 80        	ret
   1a0d0: ad 46        	li	a3, 0xb
   1a0d2: 89 9e        	subw	a3, a3, a0
   1a0d4: 37 07 f0 3f  	lui	a4, 0x3ff00
   1a0d8: bb 57 d9 00  	srlw	a5, s2, a3
   1a0dc: d9 8f        	or	a5, a5, a4
   1a0de: 82 17        	slli	a5, a5, 0x20
   1a0e0: 01 47        	li	a4, 0x0
   1a0e2: 63 76 44 01  	bgeu	s0, s4, 0x1a0ee <__b2d+0xde>
   1a0e6: 03 a7 84 ff  	lw	a4, -0x8(s1)
   1a0ea: 3b 57 d7 00  	srlw	a4, a4, a3
   1a0ee: 55 25        	addiw	a0, a0, 0x15
   1a0f0: 3b 15 a9 00  	sllw	a0, s2, a0
   1a0f4: 49 8f        	or	a4, a4, a0
   1a0f6: 01 27        	sext.w	a4, a4
   1a0f8: 6d bf        	j	0x1a0b2 <__b2d+0xa2>

000000000001a0fa <__d2b>:
   1a0fa: 39 71        	addi	sp, sp, -0x40
   1a0fc: 52 e8        	sd	s4, 0x10(sp)
   1a0fe: 2e 8a        	mv	s4, a1
   1a100: 85 45        	li	a1, 0x1
   1a102: 22 f8        	sd	s0, 0x30(sp)
   1a104: 4a f0        	sd	s2, 0x20(sp)
   1a106: 06 fc        	sd	ra, 0x38(sp)
   1a108: 26 f4        	sd	s1, 0x28(sp)
   1a10a: 4e ec        	sd	s3, 0x18(sp)
   1a10c: 53 04 05 e2  	fmv.x.d	s0, fa0
   1a110: 32 89        	mv	s2, a2
   1a112: ef f0 4f d3  	jal	0x19646 <_Balloc>
   1a116: 55 c9        	beqz	a0, 0x1a1ca <__d2b+0xd0>
   1a118: 93 57 04 42  	srai	a5, s0, 0x20
   1a11c: 9b d9 47 01  	srliw	s3, a5, 0x14
   1a120: 93 f9 f9 7f  	andi	s3, s3, 0x7ff
   1a124: b2 17        	slli	a5, a5, 0x2c
   1a126: aa 84        	mv	s1, a0
   1a128: b1 93        	srli	a5, a5, 0x2c
   1a12a: 63 85 09 00  	beqz	s3, 0x1a134 <__d2b+0x3a>
   1a12e: 37 07 10 00  	lui	a4, 0x100
   1a132: d9 8f        	or	a5, a5, a4
   1a134: 3e c6        	sw	a5, 0xc(sp)
   1a136: 01 24        	sext.w	s0, s0
   1a138: 29 e0        	bnez	s0, 0x1a17a <__d2b+0x80>
   1a13a: 68 00        	addi	a0, sp, 0xc
   1a13c: ef f0 2f fb  	jal	0x198ee <__lo0bits>
   1a140: b2 47        	lw	a5, 0xc(sp)
   1a142: 05 44        	li	s0, 0x1
   1a144: c0 c8        	sw	s0, 0x14(s1)
   1a146: 9c cc        	sw	a5, 0x18(s1)
   1a148: 1b 05 05 02  	addiw	a0, a0, 0x20
   1a14c: 63 80 09 06  	beqz	s3, 0x1a1ac <__d2b+0xb2>
   1a150: 9b 89 d9 bc  	addiw	s3, s3, -0x433
   1a154: bb 89 a9 00  	addw	s3, s3, a0
   1a158: 13 04 50 03  	li	s0, 0x35
   1a15c: 23 20 3a 01  	sw	s3, 0x0(s4)
   1a160: 3b 05 a4 40  	subw	a0, s0, a0
   1a164: e2 70        	ld	ra, 0x38(sp)
   1a166: 42 74        	ld	s0, 0x30(sp)
   1a168: 23 20 a9 00  	sw	a0, 0x0(s2)
   1a16c: e2 69        	ld	s3, 0x18(sp)
   1a16e: 02 79        	ld	s2, 0x20(sp)
   1a170: 42 6a        	ld	s4, 0x10(sp)
   1a172: 26 85        	mv	a0, s1
   1a174: a2 74        	ld	s1, 0x28(sp)
   1a176: 21 61        	addi	sp, sp, 0x40
   1a178: 82 80        	ret
   1a17a: 28 00        	addi	a0, sp, 0x8
   1a17c: 22 c4        	sw	s0, 0x8(sp)
   1a17e: ef f0 0f f7  	jal	0x198ee <__lo0bits>
   1a182: b2 47        	lw	a5, 0xc(sp)
   1a184: 22 47        	lw	a4, 0x8(sp)
   1a186: 19 c9        	beqz	a0, 0x1a19c <__d2b+0xa2>
   1a188: 93 06 00 02  	li	a3, 0x20
   1a18c: 89 9e        	subw	a3, a3, a0
   1a18e: bb 96 d7 00  	sllw	a3, a5, a3
   1a192: 55 8f        	or	a4, a4, a3
   1a194: bb d7 a7 00  	srlw	a5, a5, a0
   1a198: 01 27        	sext.w	a4, a4
   1a19a: 3e c6        	sw	a5, 0xc(sp)
   1a19c: 33 34 f0 00  	snez	s0, a5
   1a1a0: 05 04        	addi	s0, s0, 0x1
   1a1a2: 98 cc        	sw	a4, 0x18(s1)
   1a1a4: dc cc        	sw	a5, 0x1c(s1)
   1a1a6: c0 c8        	sw	s0, 0x14(s1)
   1a1a8: e3 94 09 fa  	bnez	s3, 0x1a150 <__d2b+0x56>
   1a1ac: 1b 05 e5 bc  	addiw	a0, a0, -0x432
   1a1b0: 93 17 24 00  	slli	a5, s0, 0x2
   1a1b4: 23 20 aa 00  	sw	a0, 0x0(s4)
   1a1b8: a6 97        	add	a5, a5, s1
   1a1ba: c8 4b        	lw	a0, 0x14(a5)
   1a1bc: 1b 14 54 00  	slliw	s0, s0, 0x5
   1a1c0: ef f0 0f ed  	jal	0x19890 <__hi0bits>
   1a1c4: 3b 05 a4 40  	subw	a0, s0, a0
   1a1c8: 71 bf        	j	0x1a164 <__d2b+0x6a>
   1a1ca: b7 16 02 00  	lui	a3, 0x21
   1a1ce: 37 15 02 00  	lui	a0, 0x21
   1a1d2: 93 86 06 33  	addi	a3, a3, 0x330
   1a1d6: 01 46        	li	a2, 0x0
   1a1d8: 93 05 f0 30  	li	a1, 0x30f
   1a1dc: 13 05 05 3b  	addi	a0, a0, 0x3b0
   1a1e0: ef 30 c0 65  	jal	0x1d83c <__assert_func>

000000000001a1e4 <__ratio>:
   1a1e4: 79 71        	addi	sp, sp, -0x30
   1a1e6: 26 ec        	sd	s1, 0x18(sp)
   1a1e8: ae 84        	mv	s1, a1
   1a1ea: 2c 00        	addi	a1, sp, 0x8
   1a1ec: 06 f4        	sd	ra, 0x28(sp)
   1a1ee: 22 f0        	sd	s0, 0x20(sp)
   1a1f0: 4a e8        	sd	s2, 0x10(sp)
   1a1f2: 2a 89        	mv	s2, a0
   1a1f4: ef f0 df e1  	jal	0x1a010 <__b2d>
   1a1f8: 6c 00        	addi	a1, sp, 0xc
   1a1fa: 26 85        	mv	a0, s1
   1a1fc: 53 04 05 e2  	fmv.x.d	s0, fa0
   1a200: ef f0 1f e1  	jal	0x1a010 <__b2d>
   1a204: 83 27 49 01  	lw	a5, 0x14(s2)
   1a208: d0 48        	lw	a2, 0x14(s1)
   1a20a: b2 46        	lw	a3, 0xc(sp)
   1a20c: 22 47        	lw	a4, 0x8(sp)
   1a20e: 91 9f        	subw	a5, a5, a2
   1a210: 9b 97 57 00  	slliw	a5, a5, 0x5
   1a214: 15 9f        	subw	a4, a4, a3
   1a216: bb 86 e7 00  	addw	a3, a5, a4
   1a21a: b6 87        	mv	a5, a3
   1a21c: 53 07 05 e2  	fmv.x.d	a4, fa0
   1a220: 63 59 d0 02  	blez	a3, 0x1a252 <__ratio+0x6e>
   1a224: 93 56 04 02  	srli	a3, s0, 0x20
   1a228: 9b 97 47 01  	slliw	a5, a5, 0x14
   1a22c: b5 9f        	addw	a5, a5, a3
   1a22e: fd 56        	li	a3, -0x1
   1a230: 81 92        	srli	a3, a3, 0x20
   1a232: 82 17        	slli	a5, a5, 0x20
   1a234: e1 8e        	and	a3, a3, s0
   1a236: 33 e4 f6 00  	or	s0, a3, a5
   1a23a: d3 07 04 f2  	fmv.d.x	fa5, s0
   1a23e: a2 70        	ld	ra, 0x28(sp)
   1a240: 02 74        	ld	s0, 0x20(sp)
   1a242: 53 07 07 f2  	fmv.d.x	fa4, a4
   1a246: e2 64        	ld	s1, 0x18(sp)
   1a248: 42 69        	ld	s2, 0x10(sp)
   1a24a: 53 f5 e7 1a  	fdiv.d	fa0, fa5, fa4
   1a24e: 45 61        	addi	sp, sp, 0x30
   1a250: 82 80        	ret
   1a252: 93 56 07 02  	srli	a3, a4, 0x20
   1a256: 9b 97 47 01  	slliw	a5, a5, 0x14
   1a25a: bb 87 f6 40  	subw	a5, a3, a5
   1a25e: fd 56        	li	a3, -0x1
   1a260: 81 92        	srli	a3, a3, 0x20
   1a262: 82 17        	slli	a5, a5, 0x20
   1a264: 75 8f        	and	a4, a4, a3
   1a266: 5d 8f        	or	a4, a4, a5
   1a268: c9 bf        	j	0x1a23a <__ratio+0x56>

000000000001a26a <_mprec_log10>:
   1a26a: dd 47        	li	a5, 0x17
   1a26c: 63 db a7 00  	bge	a5, a0, 0x1a282 <_mprec_log10+0x18>
   1a270: 07 b5 01 0e  	fld	fa0, 0xe0(gp)
   1a274: 87 b7 81 16  	fld	fa5, 0x168(gp)
   1a278: 7d 35        	addiw	a0, a0, -0x1
   1a27a: 53 75 f5 12  	fmul.d	fa0, fa0, fa5
   1a27e: 6d fd        	bnez	a0, 0x1a278 <_mprec_log10+0xe>
   1a280: 82 80        	ret
   1a282: b7 27 02 00  	lui	a5, 0x22
   1a286: 0e 05        	slli	a0, a0, 0x3
   1a288: 93 87 87 85  	addi	a5, a5, -0x7a8
   1a28c: aa 97        	add	a5, a5, a0
   1a28e: 88 23        	fld	fa0, 0x0(a5)
   1a290: 82 80        	ret

000000000001a292 <__copybits>:
   1a292: 54 4a        	lw	a3, 0x14(a2)
   1a294: fd 35        	addiw	a1, a1, -0x1
   1a296: 9b d5 55 40  	sraiw	a1, a1, 0x5
   1a29a: 85 25        	addiw	a1, a1, 0x1
   1a29c: 93 07 86 01  	addi	a5, a2, 0x18
   1a2a0: 8a 06        	slli	a3, a3, 0x2
   1a2a2: 8a 05        	slli	a1, a1, 0x2
   1a2a4: be 96        	add	a3, a3, a5
   1a2a6: aa 95        	add	a1, a1, a0
   1a2a8: 63 f1 d7 02  	bgeu	a5, a3, 0x1a2ca <__copybits+0x38>
   1a2ac: 2a 87        	mv	a4, a0
   1a2ae: 03 a8 07 00  	lw	a6, 0x0(a5)
   1a2b2: 91 07        	addi	a5, a5, 0x4
   1a2b4: 11 07        	addi	a4, a4, 0x4
   1a2b6: 23 2e 07 ff  	sw	a6, -0x4(a4)
   1a2ba: e3 ea d7 fe  	bltu	a5, a3, 0x1a2ae <__copybits+0x1c>
   1a2be: b3 87 c6 40  	sub	a5, a3, a2
   1a2c2: 9d 17        	addi	a5, a5, -0x19
   1a2c4: f1 9b        	andi	a5, a5, -0x4
   1a2c6: 91 07        	addi	a5, a5, 0x4
   1a2c8: 3e 95        	add	a0, a0, a5
   1a2ca: 63 77 b5 00  	bgeu	a0, a1, 0x1a2d8 <__copybits+0x46>
   1a2ce: 11 05        	addi	a0, a0, 0x4
   1a2d0: 23 2e 05 fe  	sw	zero, -0x4(a0)
   1a2d4: e3 6d b5 fe  	bltu	a0, a1, 0x1a2ce <__copybits+0x3c>
   1a2d8: 82 80        	ret

000000000001a2da <__any_on>:
   1a2da: 58 49        	lw	a4, 0x14(a0)
   1a2dc: 13 d6 55 40  	srai	a2, a1, 0x5
   1a2e0: 93 06 85 01  	addi	a3, a0, 0x18
   1a2e4: 63 5d c7 00  	bge	a4, a2, 0x1a2fe <__any_on+0x24>
   1a2e8: 0a 07        	slli	a4, a4, 0x2
   1a2ea: b3 87 e6 00  	add	a5, a3, a4
   1a2ee: 63 f8 f6 02  	bgeu	a3, a5, 0x1a31e <__any_on+0x44>
   1a2f2: 03 a7 c7 ff  	lw	a4, -0x4(a5)
   1a2f6: f1 17        	addi	a5, a5, -0x4
   1a2f8: 7d db        	beqz	a4, 0x1a2ee <__any_on+0x14>
   1a2fa: 05 45        	li	a0, 0x1
   1a2fc: 82 80        	ret
   1a2fe: 93 17 26 00  	slli	a5, a2, 0x2
   1a302: b6 97        	add	a5, a5, a3
   1a304: e3 55 e6 fe  	bge	a2, a4, 0x1a2ee <__any_on+0x14>
   1a308: fd 89        	andi	a1, a1, 0x1f
   1a30a: f5 d1        	beqz	a1, 0x1a2ee <__any_on+0x14>
   1a30c: 90 43        	lw	a2, 0x0(a5)
   1a30e: 05 45        	li	a0, 0x1
   1a310: 3b 57 b6 00  	srlw	a4, a2, a1
   1a314: 3b 17 b7 00  	sllw	a4, a4, a1
   1a318: e3 0b c7 fc  	beq	a4, a2, 0x1a2ee <__any_on+0x14>
   1a31c: 82 80        	ret
   1a31e: 01 45        	li	a0, 0x0
   1a320: 82 80        	ret

000000000001a322 <_wctomb_r>:
   1a322: 83 b7 01 e6  	ld	a5, -0x1a0(gp)
   1a326: 82 87        	jr	a5

000000000001a328 <__ascii_wctomb>:
   1a328: 9b 07 06 00  	sext.w	a5, a2
   1a32c: 91 cd        	beqz	a1, 0x1a348 <__ascii_wctomb+0x20>
   1a32e: 13 07 f0 0f  	li	a4, 0xff
   1a332: 63 66 f7 00  	bltu	a4, a5, 0x1a33e <__ascii_wctomb+0x16>
   1a336: 23 80 c5 00  	sb	a2, 0x0(a1)
   1a33a: 05 45        	li	a0, 0x1
   1a33c: 82 80        	ret
   1a33e: 93 07 a0 08  	li	a5, 0x8a
   1a342: 1c c1        	sw	a5, 0x0(a0)
   1a344: 7d 55        	li	a0, -0x1
   1a346: 82 80        	ret
   1a348: 01 45        	li	a0, 0x0
   1a34a: 82 80        	ret

000000000001a34c <_vfprintf_r>:
   1a34c: 13 01 01 db  	addi	sp, sp, -0x250
   1a350: 23 34 11 24  	sd	ra, 0x248(sp)
   1a354: 23 30 81 24  	sd	s0, 0x240(sp)
   1a358: 23 38 21 23  	sd	s2, 0x230(sp)
   1a35c: e6 ff        	sd	s9, 0x1f8(sp)
   1a35e: 2e 89        	mv	s2, a1
   1a360: b2 8c        	mv	s9, a2
   1a362: 36 f0        	sd	a3, 0x20(sp)
   1a364: 2a 84        	mv	s0, a0
   1a366: 2a e4        	sd	a0, 0x8(sp)
   1a368: ef 30 e0 25  	jal	0x1d5c6 <_localeconv_r>
   1a36c: 1c 61        	ld	a5, 0x0(a0)
   1a36e: 3e 85        	mv	a0, a5
   1a370: be ec        	sd	a5, 0x58(sp)
   1a372: ef e0 4f c3  	jal	0x187a6 <strlen>
   1a376: aa e8        	sd	a0, 0x50(sp)
   1a378: 82 e9        	sd	zero, 0xd0(sp)
   1a37a: 82 ed        	sd	zero, 0xd8(sp)
   1a37c: 09 c4        	beqz	s0, 0x1a386 <_vfprintf_r+0x3a>
   1a37e: 38 64        	ld	a4, 0x48(s0)
   1a380: 19 e3        	bnez	a4, 0x1a386 <_vfprintf_r+0x3a>
   1a382: 6f 10 e0 23  	j	0x1b5c0 <_vfprintf_r+0x1274>
   1a386: 03 17 09 01  	lh	a4, 0x10(s2)
   1a38a: 93 16 27 03  	slli	a3, a4, 0x32
   1a38e: 63 c1 06 02  	bltz	a3, 0x1a3b0 <_vfprintf_r+0x64>
   1a392: 83 26 c9 0a  	lw	a3, 0xac(s2)
   1a396: 89 65        	lui	a1, 0x2
   1a398: 79 76        	lui	a2, 0xffffe
   1a39a: 4d 8f        	or	a4, a4, a1
   1a39c: 7d 16        	addi	a2, a2, -0x1
   1a39e: 1b 17 07 01  	slliw	a4, a4, 0x10
   1a3a2: 1b 57 07 41  	sraiw	a4, a4, 0x10
   1a3a6: f1 8e        	and	a3, a3, a2
   1a3a8: 23 18 e9 00  	sh	a4, 0x10(s2)
   1a3ac: 23 26 d9 0a  	sw	a3, 0xac(s2)
   1a3b0: 93 76 87 00  	andi	a3, a4, 0x8
   1a3b4: 63 80 06 26  	beqz	a3, 0x1a614 <_vfprintf_r+0x2c8>
   1a3b8: 83 36 89 01  	ld	a3, 0x18(s2)
   1a3bc: 63 8c 06 24  	beqz	a3, 0x1a614 <_vfprintf_r+0x2c8>
   1a3c0: 69 8b        	andi	a4, a4, 0x1a
   1a3c2: a9 46        	li	a3, 0xa
   1a3c4: 63 05 d7 26  	beq	a4, a3, 0x1a62e <_vfprintf_r+0x2e2>
   1a3c8: 23 30 41 23  	sd	s4, 0x220(sp)
   1a3cc: 23 3c 51 21  	sd	s5, 0x218(sp)
   1a3d0: ea fb        	sd	s10, 0x1f0(sp)
   1a3d2: 37 27 02 00  	lui	a4, 0x22
   1a3d6: 23 3c 91 22  	sd	s1, 0x238(sp)
   1a3da: 23 34 31 23  	sd	s3, 0x228(sp)
   1a3de: 23 38 61 21  	sd	s6, 0x210(sp)
   1a3e2: 23 34 71 21  	sd	s7, 0x208(sp)
   1a3e6: 23 30 81 21  	sd	s8, 0x200(sp)
   1a3ea: ee f7        	sd	s11, 0x1e8(sp)
   1a3ec: 66 8d        	mv	s10, s9
   1a3ee: 93 07 07 92  	addi	a5, a4, -0x6e0
   1a3f2: 03 47 0d 00  	lbu	a4, 0x0(s10)
   1a3f6: 13 0a 01 16  	addi	s4, sp, 0x160
   1a3fa: b7 2a 02 00  	lui	s5, 0x22
   1a3fe: d2 f1        	sd	s4, 0xe0(sp)
   1a400: 82 f9        	sd	zero, 0xf0(sp)
   1a402: 82 d5        	sw	zero, 0xe8(sp)
   1a404: 02 fc        	sd	zero, 0x38(sp)
   1a406: 82 f0        	sd	zero, 0x60(sp)
   1a408: 82 f8        	sd	zero, 0x70(sp)
   1a40a: 02 e1        	sd	zero, 0x80(sp)
   1a40c: 02 e5        	sd	zero, 0x88(sp)
   1a40e: 82 fc        	sd	zero, 0x78(sp)
   1a410: 02 e8        	sd	zero, 0x10(sp)
   1a412: 3e f4        	sd	a5, 0x28(sp)
   1a414: 52 84        	mv	s0, s4
   1a416: 93 8a 0a a9  	addi	s5, s5, -0x570
   1a41a: 63 01 07 1a  	beqz	a4, 0x1a5bc <_vfprintf_r+0x270>
   1a41e: ea 89        	mv	s3, s10
   1a420: 93 06 50 02  	li	a3, 0x25
   1a424: 63 0d d7 2c  	beq	a4, a3, 0x1a6fe <_vfprintf_r+0x3b2>
   1a428: 03 c7 19 00  	lbu	a4, 0x1(s3)
   1a42c: 85 09        	addi	s3, s3, 0x1
   1a42e: 7d fb        	bnez	a4, 0x1a424 <_vfprintf_r+0xd8>
   1a430: bb 84 a9 41  	subw	s1, s3, s10
   1a434: 63 84 04 18  	beqz	s1, 0x1a5bc <_vfprintf_r+0x270>
   1a438: 2e 57        	lw	a4, 0xe8(sp)
   1a43a: ce 76        	ld	a3, 0xf0(sp)
   1a43c: 23 30 a4 01  	sd	s10, 0x0(s0)
   1a440: 05 27        	addiw	a4, a4, 0x1
   1a442: a6 96        	add	a3, a3, s1
   1a444: 04 e4        	sd	s1, 0x8(s0)
   1a446: b6 f9        	sd	a3, 0xf0(sp)
   1a448: ba d5        	sw	a4, 0xe8(sp)
   1a44a: 9b 06 07 00  	sext.w	a3, a4
   1a44e: 1d 47        	li	a4, 0x7
   1a450: 41 04        	addi	s0, s0, 0x10
   1a452: 63 4d d7 2a  	blt	a4, a3, 0x1a70c <_vfprintf_r+0x3c0>
   1a456: c2 67        	ld	a5, 0x10(sp)
   1a458: 03 c7 09 00  	lbu	a4, 0x0(s3)
   1a45c: a5 9f        	addw	a5, a5, s1
   1a45e: 3e e8        	sd	a5, 0x10(sp)
   1a460: 63 0e 07 14  	beqz	a4, 0x1a5bc <_vfprintf_r+0x270>
   1a464: 03 c3 19 00  	lbu	t1, 0x1(s3)
   1a468: a3 07 01 0a  	sb	zero, 0xaf(sp)
   1a46c: 85 09        	addi	s3, s3, 0x1
   1a46e: 7d 5b        	li	s6, -0x1
   1a470: 81 4b        	li	s7, 0x0
   1a472: 81 4d        	li	s11, 0x0
   1a474: 93 04 a0 05  	li	s1, 0x5a
   1a478: 85 09        	addi	s3, s3, 0x1
   1a47a: 01 23        	sext.w	t1, t1
   1a47c: 9b 07 03 fe  	addiw	a5, t1, -0x20
   1a480: 1b 87 07 00  	sext.w	a4, a5
   1a484: 63 e5 e4 04  	bltu	s1, a4, 0x1a4ce <_vfprintf_r+0x182>
   1a488: 13 97 07 02  	slli	a4, a5, 0x20
   1a48c: 93 57 e7 01  	srli	a5, a4, 0x1e
   1a490: 22 77        	ld	a4, 0x28(sp)
   1a492: ba 97        	add	a5, a5, a4
   1a494: 9c 43        	lw	a5, 0x0(a5)
   1a496: 82 87        	jr	a5
   1a498: 81 4b        	li	s7, 0x0
   1a49a: a5 46        	li	a3, 0x9
   1a49c: 03 c7 09 00  	lbu	a4, 0x0(s3)
   1a4a0: 9b 97 2b 00  	slliw	a5, s7, 0x2
   1a4a4: bb 8b 77 01  	addw	s7, a5, s7
   1a4a8: 1b 03 03 fd  	addiw	t1, t1, -0x30
   1a4ac: 9b 9b 1b 00  	slliw	s7, s7, 0x1
   1a4b0: 9b 07 07 fd  	addiw	a5, a4, -0x30
   1a4b4: bb 0b 73 01  	addw	s7, t1, s7
   1a4b8: 85 09        	addi	s3, s3, 0x1
   1a4ba: 1b 03 07 00  	sext.w	t1, a4
   1a4be: e3 ff f6 fc  	bgeu	a3, a5, 0x1a49c <_vfprintf_r+0x150>
   1a4c2: 9b 07 03 fe  	addiw	a5, t1, -0x20
   1a4c6: 1b 87 07 00  	sext.w	a4, a5
   1a4ca: e3 ff e4 fa  	bgeu	s1, a4, 0x1a488 <_vfprintf_r+0x13c>
   1a4ce: 63 07 03 0e  	beqz	t1, 0x1a5bc <_vfprintf_r+0x270>
   1a4d2: 23 0c 61 0e  	sb	t1, 0xf8(sp)
   1a4d6: a3 07 01 0a  	sb	zero, 0xaf(sp)
   1a4da: 05 4c        	li	s8, 0x1
   1a4dc: 85 46        	li	a3, 0x1
   1a4de: 13 0d 81 0f  	addi	s10, sp, 0xf8
   1a4e2: 02 ec        	sd	zero, 0x18(sp)
   1a4e4: 01 4b        	li	s6, 0x0
   1a4e6: 82 e4        	sd	zero, 0x48(sp)
   1a4e8: 82 e0        	sd	zero, 0x40(sp)
   1a4ea: 02 f8        	sd	zero, 0x30(sp)
   1a4ec: 93 f2 2d 00  	andi	t0, s11, 0x2
   1a4f0: 63 83 02 00  	beqz	t0, 0x1a4f6 <_vfprintf_r+0x1aa>
   1a4f4: 09 2c        	addiw	s8, s8, 0x2
   1a4f6: 93 fc 4d 08  	andi	s9, s11, 0x84
   1a4fa: ce 74        	ld	s1, 0xf0(sp)
   1a4fc: 63 96 0c 00  	bnez	s9, 0x1a508 <_vfprintf_r+0x1bc>
   1a500: 3b 87 8b 41  	subw	a4, s7, s8
   1a504: e3 4a e0 2e  	bgtz	a4, 0x1aff8 <_vfprintf_r+0xcac>
   1a508: 03 47 f1 0a  	lbu	a4, 0xaf(sp)
   1a50c: 0d c3        	beqz	a4, 0x1a52e <_vfprintf_r+0x1e2>
   1a50e: 2e 57        	lw	a4, 0xe8(sp)
   1a510: 13 06 f1 0a  	addi	a2, sp, 0xaf
   1a514: 10 e0        	sd	a2, 0x0(s0)
   1a516: 05 27        	addiw	a4, a4, 0x1
   1a518: 05 46        	li	a2, 0x1
   1a51a: 85 04        	addi	s1, s1, 0x1
   1a51c: 10 e4        	sd	a2, 0x8(s0)
   1a51e: ba d5        	sw	a4, 0xe8(sp)
   1a520: 1b 06 07 00  	sext.w	a2, a4
   1a524: a6 f9        	sd	s1, 0xf0(sp)
   1a526: 1d 47        	li	a4, 0x7
   1a528: 41 04        	addi	s0, s0, 0x10
   1a52a: 63 4c c7 4e  	blt	a4, a2, 0x1aa22 <_vfprintf_r+0x6d6>
   1a52e: 63 81 02 02  	beqz	t0, 0x1a550 <_vfprintf_r+0x204>
   1a532: 2e 57        	lw	a4, 0xe8(sp)
   1a534: 09 46        	li	a2, 0x2
   1a536: 89 04        	addi	s1, s1, 0x2
   1a538: 05 27        	addiw	a4, a4, 0x1
   1a53a: 1c 19        	addi	a5, sp, 0xb0
   1a53c: 10 e4        	sd	a2, 0x8(s0)
   1a53e: 1c e0        	sd	a5, 0x0(s0)
   1a540: 1b 06 07 00  	sext.w	a2, a4
   1a544: ba d5        	sw	a4, 0xe8(sp)
   1a546: a6 f9        	sd	s1, 0xf0(sp)
   1a548: 1d 47        	li	a4, 0x7
   1a54a: 41 04        	addi	s0, s0, 0x10
   1a54c: e3 46 c7 34  	blt	a4, a2, 0x1b098 <_vfprintf_r+0xd4c>
   1a550: 13 07 00 08  	li	a4, 0x80
   1a554: e3 80 ec 12  	beq	s9, a4, 0x1ae74 <_vfprintf_r+0xb28>
   1a558: 3b 0b db 40  	subw	s6, s6, a3
   1a55c: e3 40 60 1d  	bgtz	s6, 0x1af1c <_vfprintf_r+0xbd0>
   1a560: 13 f7 0d 10  	andi	a4, s11, 0x100
   1a564: e3 12 07 02  	bnez	a4, 0x1ad88 <_vfprintf_r+0xa3c>
   1a568: 2e 57        	lw	a4, 0xe8(sp)
   1a56a: b6 94        	add	s1, s1, a3
   1a56c: 23 30 a4 01  	sd	s10, 0x0(s0)
   1a570: 05 27        	addiw	a4, a4, 0x1
   1a572: 14 e4        	sd	a3, 0x8(s0)
   1a574: a6 f9        	sd	s1, 0xf0(sp)
   1a576: ba d5        	sw	a4, 0xe8(sp)
   1a578: 9d 47        	li	a5, 0x7
   1a57a: 63 c0 e7 56  	blt	a5, a4, 0x1aada <_vfprintf_r+0x78e>
   1a57e: 41 04        	addi	s0, s0, 0x10
   1a580: 13 fe 4d 00  	andi	t3, s11, 0x4
   1a584: 63 06 0e 00  	beqz	t3, 0x1a590 <_vfprintf_r+0x244>
   1a588: 3b 8b 8b 41  	subw	s6, s7, s8
   1a58c: e3 44 60 33  	bgtz	s6, 0x1b0b4 <_vfprintf_r+0xd68>
   1a590: de 87        	mv	a5, s7
   1a592: 63 d3 8b 01  	bge	s7, s8, 0x1a598 <_vfprintf_r+0x24c>
   1a596: e2 87        	mv	a5, s8
   1a598: 42 67        	ld	a4, 0x10(sp)
   1a59a: b9 9f        	addw	a5, a5, a4
   1a59c: 3e e8        	sd	a5, 0x10(sp)
   1a59e: e3 9d 04 20  	bnez	s1, 0x1afb8 <_vfprintf_r+0xc6c>
   1a5a2: e2 67        	ld	a5, 0x18(sp)
   1a5a4: 82 d5        	sw	zero, 0xe8(sp)
   1a5a6: 89 c7        	beqz	a5, 0x1a5b0 <_vfprintf_r+0x264>
   1a5a8: e2 65        	ld	a1, 0x18(sp)
   1a5aa: 22 65        	ld	a0, 0x8(sp)
   1a5ac: ef e0 0f d4  	jal	0x18aec <_free_r>
   1a5b0: 52 84        	mv	s0, s4
   1a5b2: 4e 8d        	mv	s10, s3
   1a5b4: 03 47 0d 00  	lbu	a4, 0x0(s10)
   1a5b8: e3 13 07 e6  	bnez	a4, 0x1a41e <_vfprintf_r+0xd2>
   1a5bc: ce 77        	ld	a5, 0xf0(sp)
   1a5be: 99 c3        	beqz	a5, 0x1a5c4 <_vfprintf_r+0x278>
   1a5c0: 6f 10 a0 3c  	j	0x1b98a <_vfprintf_r+0x163e>
   1a5c4: 83 57 09 01  	lhu	a5, 0x10(s2)
   1a5c8: 83 34 81 23  	ld	s1, 0x238(sp)
   1a5cc: 83 39 81 22  	ld	s3, 0x228(sp)
   1a5d0: 93 f7 07 04  	andi	a5, a5, 0x40
   1a5d4: 03 3a 01 22  	ld	s4, 0x220(sp)
   1a5d8: 83 3a 81 21  	ld	s5, 0x218(sp)
   1a5dc: 03 3b 01 21  	ld	s6, 0x210(sp)
   1a5e0: 83 3b 81 20  	ld	s7, 0x208(sp)
   1a5e4: 03 3c 01 20  	ld	s8, 0x200(sp)
   1a5e8: 5e 7d        	ld	s10, 0x1f0(sp)
   1a5ea: be 7d        	ld	s11, 0x1e8(sp)
   1a5ec: 99 c3        	beqz	a5, 0x1a5f2 <_vfprintf_r+0x2a6>
   1a5ee: 6f 10 40 6a  	j	0x1bc92 <_vfprintf_r+0x1946>
   1a5f2: 83 30 81 24  	ld	ra, 0x248(sp)
   1a5f6: 03 34 01 24  	ld	s0, 0x240(sp)
   1a5fa: 42 65        	ld	a0, 0x10(sp)
   1a5fc: 03 39 01 23  	ld	s2, 0x230(sp)
   1a600: fe 7c        	ld	s9, 0x1f8(sp)
   1a602: 13 01 01 25  	addi	sp, sp, 0x250
   1a606: 82 80        	ret
   1a608: 93 ed 0d 01  	ori	s11, s11, 0x10
   1a60c: 03 c3 09 00  	lbu	t1, 0x0(s3)
   1a610: 81 2d        	sext.w	s11, s11
   1a612: 9d b5        	j	0x1a478 <_vfprintf_r+0x12c>
   1a614: 22 65        	ld	a0, 0x8(sp)
   1a616: ca 85        	mv	a1, s2
   1a618: ef 20 10 52  	jal	0x1d338 <__swsetup_r>
   1a61c: 19 c1        	beqz	a0, 0x1a622 <_vfprintf_r+0x2d6>
   1a61e: 6f 10 40 67  	j	0x1bc92 <_vfprintf_r+0x1946>
   1a622: 03 17 09 01  	lh	a4, 0x10(s2)
   1a626: a9 46        	li	a3, 0xa
   1a628: 69 8b        	andi	a4, a4, 0x1a
   1a62a: e3 1f d7 d8  	bne	a4, a3, 0x1a3c8 <_vfprintf_r+0x7c>
   1a62e: 03 17 29 01  	lh	a4, 0x12(s2)
   1a632: e3 4b 07 d8  	bltz	a4, 0x1a3c8 <_vfprintf_r+0x7c>
   1a636: 82 76        	ld	a3, 0x20(sp)
   1a638: 22 65        	ld	a0, 0x8(sp)
   1a63a: 66 86        	mv	a2, s9
   1a63c: ca 85        	mv	a1, s2
   1a63e: ef 10 b0 08  	jal	0x1bec8 <__sbprintf>
   1a642: 2a e8        	sd	a0, 0x10(sp)
   1a644: 7d b7        	j	0x1a5f2 <_vfprintf_r+0x2a6>
   1a646: 13 ee 0d 01  	ori	t3, s11, 0x10
   1a64a: 9b 0d 0e 00  	sext.w	s11, t3
   1a64e: 82 76        	ld	a3, 0x20(sp)
   1a650: 93 f7 0d 02  	andi	a5, s11, 0x20
   1a654: 13 87 86 00  	addi	a4, a3, 0x8
   1a658: 63 88 07 4a  	beqz	a5, 0x1ab08 <_vfprintf_r+0x7bc>
   1a65c: 9c 62        	ld	a5, 0x0(a3)
   1a65e: be 84        	mv	s1, a5
   1a660: 63 c5 07 4c  	bltz	a5, 0x1ab2a <_vfprintf_r+0x7de>
   1a664: e3 4f 0b 4c  	bltz	s6, 0x1b342 <_vfprintf_r+0xff6>
   1a668: 93 fc fd f7  	andi	s9, s11, -0x81
   1a66c: 81 2c        	sext.w	s9, s9
   1a66e: 99 c0        	beqz	s1, 0x1a674 <_vfprintf_r+0x328>
   1a670: 6f 00 70 79  	j	0x1b606 <_vfprintf_r+0x12ba>
   1a674: 63 04 0b 00  	beqz	s6, 0x1a67c <_vfprintf_r+0x330>
   1a678: 6f 10 e0 6a  	j	0x1bd26 <_vfprintf_r+0x19da>
   1a67c: 81 46        	li	a3, 0x0
   1a67e: 3a f0        	sd	a4, 0x20(sp)
   1a680: e6 8d        	mv	s11, s9
   1a682: 13 0d c1 15  	addi	s10, sp, 0x15c
   1a686: 03 47 f1 0a  	lbu	a4, 0xaf(sp)
   1a68a: 5a 88        	mv	a6, s6
   1a68c: 63 53 db 00  	bge	s6, a3, 0x1a692 <_vfprintf_r+0x346>
   1a690: 36 88        	mv	a6, a3
   1a692: 02 ec        	sd	zero, 0x18(sp)
   1a694: 82 e4        	sd	zero, 0x48(sp)
   1a696: 82 e0        	sd	zero, 0x40(sp)
   1a698: 02 f8        	sd	zero, 0x30(sp)
   1a69a: 1b 0c 08 00  	sext.w	s8, a6
   1a69e: e3 07 07 e4  	beqz	a4, 0x1a4ec <_vfprintf_r+0x1a0>
   1a6a2: 05 2c        	addiw	s8, s8, 0x1
   1a6a4: a1 b5        	j	0x1a4ec <_vfprintf_r+0x1a0>
   1a6a6: 13 ee 0d 01  	ori	t3, s11, 0x10
   1a6aa: 9b 0d 0e 00  	sext.w	s11, t3
   1a6ae: 82 76        	ld	a3, 0x20(sp)
   1a6b0: 93 f7 0d 02  	andi	a5, s11, 0x20
   1a6b4: 13 87 86 00  	addi	a4, a3, 0x8
   1a6b8: 63 8b 07 42  	beqz	a5, 0x1aaee <_vfprintf_r+0x7a2>
   1a6bc: 84 62        	ld	s1, 0x0(a3)
   1a6be: 93 fc fd bf  	andi	s9, s11, -0x401
   1a6c2: 81 2c        	sext.w	s9, s9
   1a6c4: 3a f0        	sd	a4, 0x20(sp)
   1a6c6: 81 47        	li	a5, 0x0
   1a6c8: 01 47        	li	a4, 0x0
   1a6ca: a3 07 e1 0a  	sb	a4, 0xaf(sp)
   1a6ce: 63 49 0b 46  	bltz	s6, 0x1ab40 <_vfprintf_r+0x7f4>
   1a6d2: 13 fe fc f7  	andi	t3, s9, -0x81
   1a6d6: 9b 0d 0e 00  	sext.w	s11, t3
   1a6da: e3 9e 04 0e  	bnez	s1, 0x1afd6 <_vfprintf_r+0xc8a>
   1a6de: 63 12 0b 76  	bnez	s6, 0x1ae42 <_vfprintf_r+0xaf6>
   1a6e2: e3 94 07 3e  	bnez	a5, 0x1b2ca <_vfprintf_r+0xf7e>
   1a6e6: 93 f6 1c 00  	andi	a3, s9, 0x1
   1a6ea: 13 0d c1 15  	addi	s10, sp, 0x15c
   1a6ee: c1 de        	beqz	a3, 0x1a686 <_vfprintf_r+0x33a>
   1a6f0: 93 07 00 03  	li	a5, 0x30
   1a6f4: a3 0d f1 14  	sb	a5, 0x15b(sp)
   1a6f8: 13 0d b1 15  	addi	s10, sp, 0x15b
   1a6fc: 69 b7        	j	0x1a686 <_vfprintf_r+0x33a>
   1a6fe: bb 84 a9 41  	subw	s1, s3, s10
   1a702: e3 9b 04 d2  	bnez	s1, 0x1a438 <_vfprintf_r+0xec>
   1a706: 03 c7 09 00  	lbu	a4, 0x0(s3)
   1a70a: 99 bb        	j	0x1a460 <_vfprintf_r+0x114>
   1a70c: 22 65        	ld	a0, 0x8(sp)
   1a70e: 90 11        	addi	a2, sp, 0xe0
   1a710: ca 85        	mv	a1, s2
   1a712: ef 10 10 11  	jal	0x1c022 <__sprint_r>
   1a716: e3 17 05 ea  	bnez	a0, 0x1a5c4 <_vfprintf_r+0x278>
   1a71a: 52 84        	mv	s0, s4
   1a71c: 2d bb        	j	0x1a456 <_vfprintf_r+0x10a>
   1a71e: 13 f7 8d 00  	andi	a4, s11, 0x8
   1a722: e3 12 07 40  	bnez	a4, 0x1b326 <_vfprintf_r+0xfda>
   1a726: 82 77        	ld	a5, 0x20(sp)
   1a728: 1a ec        	sd	t1, 0x18(sp)
   1a72a: 88 23        	fld	fa0, 0x0(a5)
   1a72c: 13 8c 87 00  	addi	s8, a5, 0x8
   1a730: ef 60 c0 3d  	jal	0x20b0c <__extenddftf2>
   1a734: 62 63        	ld	t1, 0x18(sp)
   1a736: 2a 87        	mv	a4, a0
   1a738: 62 f0        	sd	s8, 0x20(sp)
   1a73a: 88 09        	addi	a0, sp, 0xd0
   1a73c: 1a ec        	sd	t1, 0x18(sp)
   1a73e: ba e9        	sd	a4, 0xd0(sp)
   1a740: ae ed        	sd	a1, 0xd8(sp)
   1a742: ef 30 a0 36  	jal	0x1daac <_ldcheck>
   1a746: 2a dd        	sw	a0, 0xb8(sp)
   1a748: 09 47        	li	a4, 0x2
   1a74a: 62 63        	ld	t1, 0x18(sp)
   1a74c: e3 0f e5 6a  	beq	a0, a4, 0x1b60a <_vfprintf_r+0x12be>
   1a750: 05 47        	li	a4, 0x1
   1a752: 63 14 e5 00  	bne	a0, a4, 0x1a75a <_vfprintf_r+0x40e>
   1a756: 6f 00 b0 7d  	j	0x1b730 <_vfprintf_r+0x13e4>
   1a75a: 13 07 10 06  	li	a4, 0x61
   1a75e: e3 0e e3 56  	beq	t1, a4, 0x1b4da <_vfprintf_r+0x118e>
   1a762: 13 07 10 04  	li	a4, 0x41
   1a766: 93 07 80 05  	li	a5, 0x58
   1a76a: e3 0a e3 56  	beq	t1, a4, 0x1b4de <_vfprintf_r+0x1192>
   1a76e: 7d 57        	li	a4, -0x1
   1a770: 63 14 eb 00  	bne	s6, a4, 0x1a778 <_vfprintf_r+0x42c>
   1a774: 6f 10 e0 58  	j	0x1bd02 <_vfprintf_r+0x19b6>
   1a778: 13 77 f3 fd  	andi	a4, t1, -0x21
   1a77c: 93 06 70 04  	li	a3, 0x47
   1a780: 02 ec        	sd	zero, 0x18(sp)
   1a782: 63 14 d7 00  	bne	a4, a3, 0x1a78a <_vfprintf_r+0x43e>
   1a786: 6f 10 40 58  	j	0x1bd0a <_vfprintf_r+0x19be>
   1a78a: ce 67        	ld	a5, 0xd0(sp)
   1a78c: ee 6c        	ld	s9, 0xd8(sp)
   1a78e: 13 e7 0d 10  	ori	a4, s11, 0x100
   1a792: 3e f8        	sd	a5, 0x30(sp)
   1a794: 82 f4        	sd	zero, 0x68(sp)
   1a796: 9b 04 07 00  	sext.w	s1, a4
   1a79a: 63 d4 0c 00  	bgez	s9, 0x1a7a2 <_vfprintf_r+0x456>
   1a79e: 6f 10 a0 39  	j	0x1bb38 <_vfprintf_r+0x17ec>
   1a7a2: 9b 06 f3 fb  	addiw	a3, t1, -0x41
   1a7a6: 13 07 50 02  	li	a4, 0x25
   1a7aa: 63 74 d7 00  	bgeu	a4, a3, 0x1a7b2 <_vfprintf_r+0x466>
   1a7ae: 6f 10 e0 3e  	j	0x1bb9c <_vfprintf_r+0x1850>
   1a7b2: 05 47        	li	a4, 0x1
   1a7b4: 05 4c        	li	s8, 0x1
   1a7b6: 16 17        	slli	a4, a4, 0x25
   1a7b8: b3 16 dc 00  	sll	a3, s8, a3
   1a7bc: 13 07 07 02  	addi	a4, a4, 0x20
   1a7c0: 75 8f        	and	a4, a4, a3
   1a7c2: 19 c3        	beqz	a4, 0x1a7c8 <_vfprintf_r+0x47c>
   1a7c4: 6f 10 00 29  	j	0x1ba54 <_vfprintf_r+0x1708>
   1a7c8: 05 47        	li	a4, 0x1
   1a7ca: 12 17        	slli	a4, a4, 0x24
   1a7cc: 41 07        	addi	a4, a4, 0x10
   1a7ce: 75 8f        	and	a4, a4, a3
   1a7d0: 19 c3        	beqz	a4, 0x1a7d6 <_vfprintf_r+0x48a>
   1a7d2: 6f 10 e0 4c  	j	0x1bca0 <_vfprintf_r+0x1954>
   1a7d6: 05 47        	li	a4, 0x1
   1a7d8: 02 17        	slli	a4, a4, 0x20
   1a7da: 05 07        	addi	a4, a4, 0x1
   1a7dc: f9 8e        	and	a3, a3, a4
   1a7de: 1a fc        	sd	t1, 0x38(sp)
   1a7e0: 99 e2        	bnez	a3, 0x1a7e6 <_vfprintf_r+0x49a>
   1a7e2: 6f 10 c0 1f  	j	0x1b9de <_vfprintf_r+0x1692>
   1a7e6: 42 75        	ld	a0, 0x30(sp)
   1a7e8: 30 19        	addi	a2, sp, 0xb8
   1a7ea: e6 85        	mv	a1, s9
   1a7ec: ef 20 70 72  	jal	0x1d712 <frexpl>
   1a7f0: b7 f6 ff 00  	lui	a3, 0xfff
   1a7f4: 01 46        	li	a2, 0x0
   1a7f6: 9a 16        	slli	a3, a3, 0x26
   1a7f8: ef 50 a0 3e  	jal	0x1fbe2 <__multf3>
   1a7fc: 01 46        	li	a2, 0x0
   1a7fe: 81 46        	li	a3, 0x0
   1a800: aa 8c        	mv	s9, a0
   1a802: ae 84        	mv	s1, a1
   1a804: ef 50 a0 1f  	jal	0x1f9fe <__netf2>
   1a808: 62 73        	ld	t1, 0x38(sp)
   1a80a: 11 e1        	bnez	a0, 0x1a80e <_vfprintf_r+0x4c2>
   1a80c: 62 dd        	sw	s8, 0xb8(sp)
   1a80e: 13 07 10 06  	li	a4, 0x61
   1a812: 63 14 e3 00  	bne	t1, a4, 0x1a81a <_vfprintf_r+0x4ce>
   1a816: 6f 10 60 61  	j	0x1be2c <_vfprintf_r+0x1ae0>
   1a81a: 37 17 02 00  	lui	a4, 0x21
   1a81e: 93 07 87 44  	addi	a5, a4, 0x448
   1a822: 3e f8        	sd	a5, 0x30(sp)
   1a824: 13 17 0b 02  	slli	a4, s6, 0x20
   1a828: 01 93        	srli	a4, a4, 0x20
   1a82a: 05 07        	addi	a4, a4, 0x1
   1a82c: b7 36 00 04  	lui	a3, 0x4003
   1a830: 1b 08 0b 00  	sext.w	a6, s6
   1a834: b3 07 ed 00  	add	a5, s10, a4
   1a838: 92 16        	slli	a3, a3, 0x24
   1a83a: 4e fc        	sd	s3, 0x38(sp)
   1a83c: a2 f8        	sd	s0, 0x70(sp)
   1a83e: 4a 8c        	mv	s8, s2
   1a840: 42 7b        	ld	s6, 0x30(sp)
   1a842: 9a e0        	sd	t1, 0x40(sp)
   1a844: de e4        	sd	s7, 0x48(sp)
   1a846: 42 e9        	sd	a6, 0x90(sp)
   1a848: ea 89        	mv	s3, s10
   1a84a: 3e 89        	mv	s2, a5
   1a84c: 36 84        	mv	s0, a3
   1a84e: 01 a8        	j	0x1a85e <_vfprintf_r+0x512>
   1a850: 01 46        	li	a2, 0x0
   1a852: 81 46        	li	a3, 0x0
   1a854: ef 50 a0 1a  	jal	0x1f9fe <__netf2>
   1a858: 19 e1        	bnez	a0, 0x1a85e <_vfprintf_r+0x512>
   1a85a: 6f 10 20 59  	j	0x1bdec <_vfprintf_r+0x1aa0>
   1a85e: 01 46        	li	a2, 0x0
   1a860: a2 86        	mv	a3, s0
   1a862: 66 85        	mv	a0, s9
   1a864: a6 85        	mv	a1, s1
   1a866: ef 50 c0 37  	jal	0x1fbe2 <__multf3>
   1a86a: ae 84        	mv	s1, a1
   1a86c: aa 8c        	mv	s9, a0
   1a86e: ef 60 20 1b  	jal	0x20a20 <__fixtfsi>
   1a872: 9b 0b 05 00  	sext.w	s7, a0
   1a876: ef 60 00 24  	jal	0x20ab6 <__floatsitf>
   1a87a: ae 86        	mv	a3, a1
   1a87c: 2a 86        	mv	a2, a0
   1a87e: a6 85        	mv	a1, s1
   1a880: 66 85        	mv	a0, s9
   1a882: ef 50 70 15  	jal	0x201d8 <__subtf3>
   1a886: b3 06 7b 01  	add	a3, s6, s7
   1a88a: 83 c6 06 00  	lbu	a3, 0x0(a3)
   1a88e: ce 88        	mv	a7, s3
   1a890: 85 09        	addi	s3, s3, 0x1
   1a892: a3 8f d9 fe  	sb	a3, -0x1(s3)
   1a896: aa 8c        	mv	s9, a0
   1a898: ae 84        	mv	s1, a1
   1a89a: e3 1b 39 fb  	bne	s2, s3, 0x1a850 <_vfprintf_r+0x504>
   1a89e: 06 63        	ld	t1, 0x40(sp)
   1a8a0: b7 f6 ff 01  	lui	a3, 0x1fff
   1a8a4: 96 16        	slli	a3, a3, 0x25
   1a8a6: 01 46        	li	a2, 0x0
   1a8a8: 1a e9        	sd	t1, 0x90(sp)
   1a8aa: c6 e0        	sd	a7, 0x40(sp)
   1a8ac: 5e 8b        	mv	s6, s7
   1a8ae: a6 6b        	ld	s7, 0x48(sp)
   1a8b0: b6 e4        	sd	a3, 0x48(sp)
   1a8b2: ef 50 40 1f  	jal	0x1faa6 <__gttf2>
   1a8b6: 62 89        	mv	s2, s8
   1a8b8: 46 74        	ld	s0, 0x70(sp)
   1a8ba: 4e 8c        	mv	s8, s3
   1a8bc: 86 68        	ld	a7, 0x40(sp)
   1a8be: e2 79        	ld	s3, 0x38(sp)
   1a8c0: 4a 63        	ld	t1, 0x90(sp)
   1a8c2: 63 40 a0 02  	bgtz	a0, 0x1a8e2 <_vfprintf_r+0x596>
   1a8c6: a6 66        	ld	a3, 0x48(sp)
   1a8c8: 01 46        	li	a2, 0x0
   1a8ca: 66 85        	mv	a0, s9
   1a8cc: a6 85        	mv	a1, s1
   1a8ce: 1a fc        	sd	t1, 0x38(sp)
   1a8d0: ef 50 e0 12  	jal	0x1f9fe <__netf2>
   1a8d4: 62 73        	ld	t1, 0x38(sp)
   1a8d6: 39 e5        	bnez	a0, 0x1a924 <_vfprintf_r+0x5d8>
   1a8d8: 13 7b 1b 00  	andi	s6, s6, 0x1
   1a8dc: 86 68        	ld	a7, 0x40(sp)
   1a8de: 63 03 0b 04  	beqz	s6, 0x1a924 <_vfprintf_r+0x5d8>
   1a8e2: c2 77        	ld	a5, 0x30(sp)
   1a8e4: c6 e5        	sd	a7, 0xc8(sp)
   1a8e6: 03 46 fc ff  	lbu	a2, -0x1(s8)
   1a8ea: 83 c5 f7 00  	lbu	a1, 0xf(a5)
   1a8ee: e2 86        	mv	a3, s8
   1a8f0: 63 1e b6 00  	bne	a2, a1, 0x1a90c <_vfprintf_r+0x5c0>
   1a8f4: 13 05 00 03  	li	a0, 0x30
   1a8f8: a3 8f a6 fe  	sb	a0, -0x1(a3)
   1a8fc: ae 66        	ld	a3, 0xc8(sp)
   1a8fe: 93 87 f6 ff  	addi	a5, a3, -0x1
   1a902: be e5        	sd	a5, 0xc8(sp)
   1a904: 03 c6 f6 ff  	lbu	a2, -0x1(a3)
   1a908: e3 88 c5 fe  	beq	a1, a2, 0x1a8f8 <_vfprintf_r+0x5ac>
   1a90c: 9b 05 16 00  	addiw	a1, a2, 0x1
   1a910: 13 05 90 03  	li	a0, 0x39
   1a914: 93 f5 f5 0f  	andi	a1, a1, 0xff
   1a918: 63 14 a6 00  	bne	a2, a0, 0x1a920 <_vfprintf_r+0x5d4>
   1a91c: 6f 10 a0 11  	j	0x1ba36 <_vfprintf_r+0x16ea>
   1a920: a3 8f b6 fe  	sb	a1, -0x1(a3)
   1a924: e2 86        	mv	a3, s8
   1a926: ea 57        	lw	a5, 0xb8(sp)
   1a928: 3b 87 a6 41  	subw	a4, a3, s10
   1a92c: 3a fc        	sd	a4, 0x38(sp)
   1a92e: 1b 87 f7 ff  	addiw	a4, a5, -0x1
   1a932: 3e f8        	sd	a5, 0x30(sp)
   1a934: 13 06 10 06  	li	a2, 0x61
   1a938: 3a dd        	sw	a4, 0xb8(sp)
   1a93a: 63 14 c3 00  	bne	t1, a2, 0x1a942 <_vfprintf_r+0x5f6>
   1a93e: 6f 10 c0 4f  	j	0x1be3a <_vfprintf_r+0x1aee>
   1a942: 13 06 10 04  	li	a2, 0x41
   1a946: 93 06 00 05  	li	a3, 0x50
   1a94a: 63 04 c3 00  	beq	t1, a2, 0x1a952 <_vfprintf_r+0x606>
   1a94e: 6f 10 e0 0d  	j	0x1ba2c <_vfprintf_r+0x16e0>
   1a952: 05 46        	li	a2, 0x1
   1a954: 23 00 d1 0c  	sb	a3, 0xc0(sp)
   1a958: 93 06 b0 02  	li	a3, 0x2b
   1a95c: 63 57 07 00  	bgez	a4, 0x1a96a <_vfprintf_r+0x61e>
   1a960: c2 77        	ld	a5, 0x30(sp)
   1a962: 05 47        	li	a4, 0x1
   1a964: 93 06 d0 02  	li	a3, 0x2d
   1a968: 1d 9f        	subw	a4, a4, a5
   1a96a: a3 00 d1 0c  	sb	a3, 0xc1(sp)
   1a96e: a5 46        	li	a3, 0x9
   1a970: 63 c4 e6 00  	blt	a3, a4, 0x1a978 <_vfprintf_r+0x62c>
   1a974: 6f 10 40 36  	j	0x1bcd8 <_vfprintf_r+0x198c>
   1a978: 93 08 f1 0c  	addi	a7, sp, 0xcf
   1a97c: 46 85        	mv	a0, a7
   1a97e: 29 48        	li	a6, 0xa
   1a980: 13 0f 30 06  	li	t5, 0x63
   1a984: bb 67 07 03  	remw	a5, a4, a6
   1a988: aa 86        	mv	a3, a0
   1a98a: 3a 86        	mv	a2, a4
   1a98c: 7d 15        	addi	a0, a0, -0x1
   1a98e: 9b 87 07 03  	addiw	a5, a5, 0x30
   1a992: a3 8f f6 fe  	sb	a5, -0x1(a3)
   1a996: 3b 47 07 03  	divw	a4, a4, a6
   1a99a: e3 45 cf fe  	blt	t5, a2, 0x1a984 <_vfprintf_r+0x638>
   1a99e: 9b 05 07 03  	addiw	a1, a4, 0x30
   1a9a2: a3 0f b5 fe  	sb	a1, -0x1(a0)
   1a9a6: 13 87 e6 ff  	addi	a4, a3, -0x2
   1a9aa: 63 64 17 01  	bltu	a4, a7, 0x1a9b2 <_vfprintf_r+0x666>
   1a9ae: 6f 10 c0 4c  	j	0x1be7a <_vfprintf_r+0x1b2e>
   1a9b2: 13 06 21 0c  	addi	a2, sp, 0xc2
   1a9b6: 83 47 07 00  	lbu	a5, 0x0(a4)
   1a9ba: 05 07        	addi	a4, a4, 0x1
   1a9bc: 05 06        	addi	a2, a2, 0x1
   1a9be: a3 0f f6 fe  	sb	a5, -0x1(a2)
   1a9c2: e3 1a 17 ff  	bne	a4, a7, 0x1a9b6 <_vfprintf_r+0x66a>
   1a9c6: 9c 13        	addi	a5, sp, 0x1e0
   1a9c8: b3 86 d7 40  	sub	a3, a5, a3
   1a9cc: 9b 87 36 ef  	addiw	a5, a3, -0x10d
   1a9d0: be f8        	sd	a5, 0x70(sp)
   1a9d2: 46 77        	ld	a4, 0x70(sp)
   1a9d4: e2 77        	ld	a5, 0x38(sp)
   1a9d6: 05 46        	li	a2, 0x1
   1a9d8: bb 86 e7 00  	addw	a3, a5, a4
   1a9dc: 36 87        	mv	a4, a3
   1a9de: 63 44 f6 00  	blt	a2, a5, 0x1a9e6 <_vfprintf_r+0x69a>
   1a9e2: 6f 10 60 33  	j	0x1bd18 <_vfprintf_r+0x19cc>
   1a9e6: c6 67        	ld	a5, 0x50(sp)
   1a9e8: bb 06 f7 00  	addw	a3, a4, a5
   1a9ec: 13 c8 f6 ff  	not	a6, a3
   1a9f0: 13 fe fd bf  	andi	t3, s11, -0x401
   1a9f4: 13 58 f8 43  	srai	a6, a6, 0x3f
   1a9f8: 01 2e        	sext.w	t3, t3
   1a9fa: 33 f8 06 01  	and	a6, a3, a6
   1a9fe: 93 6d 0e 10  	ori	s11, t3, 0x100
   1aa02: 1b 0c 08 00  	sext.w	s8, a6
   1aa06: 82 e4        	sd	zero, 0x48(sp)
   1aa08: 82 e0        	sd	zero, 0x40(sp)
   1aa0a: 02 f8        	sd	zero, 0x30(sp)
   1aa0c: a6 77        	ld	a5, 0x68(sp)
   1aa0e: 99 e3        	bnez	a5, 0x1aa14 <_vfprintf_r+0x6c8>
   1aa10: 6f 10 40 03  	j	0x1ba44 <_vfprintf_r+0x16f8>
   1aa14: 13 07 d0 02  	li	a4, 0x2d
   1aa18: a3 07 e1 0a  	sb	a4, 0xaf(sp)
   1aa1c: 01 4b        	li	s6, 0x0
   1aa1e: 05 2c        	addiw	s8, s8, 0x1
   1aa20: f1 b4        	j	0x1a4ec <_vfprintf_r+0x1a0>
   1aa22: 22 65        	ld	a0, 0x8(sp)
   1aa24: 90 11        	addi	a2, sp, 0xe0
   1aa26: ca 85        	mv	a1, s2
   1aa28: 36 ed        	sd	a3, 0x98(sp)
   1aa2a: 1a e9        	sd	t1, 0x90(sp)
   1aa2c: 96 f4        	sd	t0, 0x68(sp)
   1aa2e: ef 10 40 5f  	jal	0x1c022 <__sprint_r>
   1aa32: 63 1a 05 58  	bnez	a0, 0x1afc6 <_vfprintf_r+0xc7a>
   1aa36: ce 74        	ld	s1, 0xf0(sp)
   1aa38: ea 66        	ld	a3, 0x98(sp)
   1aa3a: 4a 63        	ld	t1, 0x90(sp)
   1aa3c: a6 72        	ld	t0, 0x68(sp)
   1aa3e: 52 84        	mv	s0, s4
   1aa40: fd b4        	j	0x1a52e <_vfprintf_r+0x1e2>
   1aa42: 2e 57        	lw	a4, 0xe8(sp)
   1aa44: e2 77        	ld	a5, 0x38(sp)
   1aa46: 85 46        	li	a3, 0x1
   1aa48: 1b 0b 17 00  	addiw	s6, a4, 0x1
   1aa4c: 23 30 a4 01  	sd	s10, 0x0(s0)
   1aa50: 85 04        	addi	s1, s1, 0x1
   1aa52: 5a 87        	mv	a4, s6
   1aa54: 93 0c 04 01  	addi	s9, s0, 0x10
   1aa58: 63 db f6 7c  	bge	a3, a5, 0x1b22e <_vfprintf_r+0xee2>
   1aa5c: 85 46        	li	a3, 0x1
   1aa5e: ba d5        	sw	a4, 0xe8(sp)
   1aa60: 14 e4        	sd	a3, 0x8(s0)
   1aa62: a6 f9        	sd	s1, 0xf0(sp)
   1aa64: 1d 47        	li	a4, 0x7
   1aa66: e3 41 67 2d  	blt	a4, s6, 0x1b528 <_vfprintf_r+0x11dc>
   1aa6a: c6 67        	ld	a5, 0x50(sp)
   1aa6c: e6 66        	ld	a3, 0x58(sp)
   1aa6e: 05 2b        	addiw	s6, s6, 0x1
   1aa70: be 94        	add	s1, s1, a5
   1aa72: 23 b0 dc 00  	sd	a3, 0x0(s9)
   1aa76: 23 b4 fc 00  	sd	a5, 0x8(s9)
   1aa7a: a6 f9        	sd	s1, 0xf0(sp)
   1aa7c: da d5        	sw	s6, 0xe8(sp)
   1aa7e: 1d 47        	li	a4, 0x7
   1aa80: c1 0c        	addi	s9, s9, 0x10
   1aa82: e3 4f 67 2b  	blt	a4, s6, 0x1b540 <_vfprintf_r+0x11f4>
   1aa86: e2 77        	ld	a5, 0x38(sp)
   1aa88: 4e 65        	ld	a0, 0xd0(sp)
   1aa8a: ee 65        	ld	a1, 0xd8(sp)
   1aa8c: 01 46        	li	a2, 0x0
   1aa8e: 81 46        	li	a3, 0x0
   1aa90: 1b 84 f7 ff  	addiw	s0, a5, -0x1
   1aa94: ef 40 b0 76  	jal	0x1f9fe <__netf2>
   1aa98: 63 00 05 7c  	beqz	a0, 0x1b258 <_vfprintf_r+0xf0c>
   1aa9c: 93 07 1d 00  	addi	a5, s10, 0x1
   1aaa0: 05 2b        	addiw	s6, s6, 0x1
   1aaa2: a2 94        	add	s1, s1, s0
   1aaa4: 23 b0 fc 00  	sd	a5, 0x0(s9)
   1aaa8: 23 b4 8c 00  	sd	s0, 0x8(s9)
   1aaac: a6 f9        	sd	s1, 0xf0(sp)
   1aaae: da d5        	sw	s6, 0xe8(sp)
   1aab0: 9d 47        	li	a5, 0x7
   1aab2: 63 c8 67 79  	blt	a5, s6, 0x1b242 <_vfprintf_r+0xef6>
   1aab6: c1 0c        	addi	s9, s9, 0x10
   1aab8: 46 77        	ld	a4, 0x70(sp)
   1aaba: 05 2b        	addiw	s6, s6, 0x1
   1aabc: 9c 01        	addi	a5, sp, 0xc0
   1aabe: ba 94        	add	s1, s1, a4
   1aac0: 23 b0 fc 00  	sd	a5, 0x0(s9)
   1aac4: 23 b4 ec 00  	sd	a4, 0x8(s9)
   1aac8: a6 f9        	sd	s1, 0xf0(sp)
   1aaca: 1b 07 0b 00  	sext.w	a4, s6
   1aace: da d5        	sw	s6, 0xe8(sp)
   1aad0: 9d 47        	li	a5, 0x7
   1aad2: 13 84 0c 01  	addi	s0, s9, 0x10
   1aad6: e3 d5 e7 aa  	bge	a5, a4, 0x1a580 <_vfprintf_r+0x234>
   1aada: 22 65        	ld	a0, 0x8(sp)
   1aadc: 90 11        	addi	a2, sp, 0xe0
   1aade: ca 85        	mv	a1, s2
   1aae0: ef 10 20 54  	jal	0x1c022 <__sprint_r>
   1aae4: 63 11 05 4e  	bnez	a0, 0x1afc6 <_vfprintf_r+0xc7a>
   1aae8: ce 74        	ld	s1, 0xf0(sp)
   1aaea: 52 84        	mv	s0, s4
   1aaec: 51 bc        	j	0x1a580 <_vfprintf_r+0x234>
   1aaee: 93 f7 0d 01  	andi	a5, s11, 0x10
   1aaf2: e3 96 07 02  	bnez	a5, 0x1b31e <_vfprintf_r+0xfd2>
   1aaf6: 82 76        	ld	a3, 0x20(sp)
   1aaf8: 93 f7 0d 04  	andi	a5, s11, 0x40
   1aafc: 84 42        	lw	s1, 0x0(a3)
   1aafe: e3 85 07 3e  	beqz	a5, 0x1b6e8 <_vfprintf_r+0x139c>
   1ab02: c2 14        	slli	s1, s1, 0x30
   1ab04: c1 90        	srli	s1, s1, 0x30
   1ab06: 65 be        	j	0x1a6be <_vfprintf_r+0x372>
   1ab08: 93 f7 0d 01  	andi	a5, s11, 0x10
   1ab0c: 63 9e 07 7c  	bnez	a5, 0x1b2e8 <_vfprintf_r+0xf9c>
   1ab10: 82 76        	ld	a3, 0x20(sp)
   1ab12: 93 f7 0d 04  	andi	a5, s11, 0x40
   1ab16: 84 42        	lw	s1, 0x0(a3)
   1ab18: e3 80 07 3e  	beqz	a5, 0x1b6f8 <_vfprintf_r+0x13ac>
   1ab1c: 9b 94 04 01  	slliw	s1, s1, 0x10
   1ab20: 9b d4 04 41  	sraiw	s1, s1, 0x10
   1ab24: a6 87        	mv	a5, s1
   1ab26: e3 df 07 b2  	bgez	a5, 0x1a664 <_vfprintf_r+0x318>
   1ab2a: 3a f0        	sd	a4, 0x20(sp)
   1ab2c: 13 07 d0 02  	li	a4, 0x2d
   1ab30: a3 07 e1 0a  	sb	a4, 0xaf(sp)
   1ab34: b3 04 90 40  	neg	s1, s1
   1ab38: ee 8c        	mv	s9, s11
   1ab3a: 85 47        	li	a5, 0x1
   1ab3c: e3 5b 0b b8  	bgez	s6, 0x1a6d2 <_vfprintf_r+0x386>
   1ab40: 05 47        	li	a4, 0x1
   1ab42: 63 8e e7 48  	beq	a5, a4, 0x1afde <_vfprintf_r+0xc92>
   1ab46: 09 47        	li	a4, 0x2
   1ab48: 63 84 e7 30  	beq	a5, a4, 0x1ae50 <_vfprintf_r+0xb04>
   1ab4c: f4 0a        	addi	a3, sp, 0x15c
   1ab4e: 36 8d        	mv	s10, a3
   1ab50: 13 f7 74 00  	andi	a4, s1, 0x7
   1ab54: 13 07 07 03  	addi	a4, a4, 0x30
   1ab58: a3 0f ed fe  	sb	a4, -0x1(s10)
   1ab5c: 8d 80        	srli	s1, s1, 0x3
   1ab5e: 6a 86        	mv	a2, s10
   1ab60: 7d 1d        	addi	s10, s10, -0x1
   1ab62: fd f4        	bnez	s1, 0x1ab50 <_vfprintf_r+0x804>
   1ab64: 93 f5 1c 00  	andi	a1, s9, 0x1
   1ab68: 63 81 05 30  	beqz	a1, 0x1ae6a <_vfprintf_r+0xb1e>
   1ab6c: 93 05 00 03  	li	a1, 0x30
   1ab70: 63 0d b7 2e  	beq	a4, a1, 0x1ae6a <_vfprintf_r+0xb1e>
   1ab74: 79 16        	addi	a2, a2, -0x2
   1ab76: a3 0f bd fe  	sb	a1, -0x1(s10)
   1ab7a: 91 9e        	subw	a3, a3, a2
   1ab7c: e6 8d        	mv	s11, s9
   1ab7e: 32 8d        	mv	s10, a2
   1ab80: 19 b6        	j	0x1a686 <_vfprintf_r+0x33a>
   1ab82: 82 77        	ld	a5, 0x20(sp)
   1ab84: a3 07 01 0a  	sb	zero, 0xaf(sp)
   1ab88: 03 bd 07 00  	ld	s10, 0x0(a5)
   1ab8c: 93 84 87 00  	addi	s1, a5, 0x8
   1ab90: e3 05 0d 0a  	beqz	s10, 0x1b43a <_vfprintf_r+0x10ee>
   1ab94: e3 4e 0b 2a  	bltz	s6, 0x1b650 <_vfprintf_r+0x1304>
   1ab98: 5a 86        	mv	a2, s6
   1ab9a: 81 45        	li	a1, 0x0
   1ab9c: 6a 85        	mv	a0, s10
   1ab9e: 1a f0        	sd	t1, 0x20(sp)
   1aba0: ef d0 6f d8  	jal	0x18126 <memchr>
   1aba4: 2a ec        	sd	a0, 0x18(sp)
   1aba6: 02 73        	ld	t1, 0x20(sp)
   1aba8: 19 e1        	bnez	a0, 0x1abae <_vfprintf_r+0x862>
   1abaa: 6f 00 70 7d  	j	0x1bb80 <_vfprintf_r+0x1834>
   1abae: e2 67        	ld	a5, 0x18(sp)
   1abb0: 03 47 f1 0a  	lbu	a4, 0xaf(sp)
   1abb4: 26 f0        	sd	s1, 0x20(sp)
   1abb6: bb 86 a7 41  	subw	a3, a5, s10
   1abba: 13 c8 f6 ff  	not	a6, a3
   1abbe: 13 58 f8 43  	srai	a6, a6, 0x3f
   1abc2: 02 ec        	sd	zero, 0x18(sp)
   1abc4: 82 e4        	sd	zero, 0x48(sp)
   1abc6: 82 e0        	sd	zero, 0x40(sp)
   1abc8: 02 f8        	sd	zero, 0x30(sp)
   1abca: 33 7c d8 00  	and	s8, a6, a3
   1abce: 01 4b        	li	s6, 0x0
   1abd0: e3 19 07 ac  	bnez	a4, 0x1a6a2 <_vfprintf_r+0x356>
   1abd4: 21 ba        	j	0x1a4ec <_vfprintf_r+0x1a0>
   1abd6: 02 77        	ld	a4, 0x20(sp)
   1abd8: a3 07 01 0a  	sb	zero, 0xaf(sp)
   1abdc: 05 4c        	li	s8, 0x1
   1abde: 1c 43        	lw	a5, 0x0(a4)
   1abe0: 21 07        	addi	a4, a4, 0x8
   1abe2: 3a f0        	sd	a4, 0x20(sp)
   1abe4: 23 0c f1 0e  	sb	a5, 0xf8(sp)
   1abe8: 85 46        	li	a3, 0x1
   1abea: 13 0d 81 0f  	addi	s10, sp, 0xf8
   1abee: d5 b8        	j	0x1a4e2 <_vfprintf_r+0x196>
   1abf0: 82 77        	ld	a5, 0x20(sp)
   1abf2: 83 ab 07 00  	lw	s7, 0x0(a5)
   1abf6: a1 07        	addi	a5, a5, 0x8
   1abf8: 63 d3 0b 6e  	bgez	s7, 0x1b2de <_vfprintf_r+0xf92>
   1abfc: bb 0b 70 41  	negw	s7, s7
   1ac00: 3e f0        	sd	a5, 0x20(sp)
   1ac02: 93 ed 4d 00  	ori	s11, s11, 0x4
   1ac06: 03 c3 09 00  	lbu	t1, 0x0(s3)
   1ac0a: 81 2d        	sext.w	s11, s11
   1ac0c: b5 b0        	j	0x1a478 <_vfprintf_r+0x12c>
   1ac0e: 93 07 b0 02  	li	a5, 0x2b
   1ac12: 03 c3 09 00  	lbu	t1, 0x0(s3)
   1ac16: a3 07 f1 0a  	sb	a5, 0xaf(sp)
   1ac1a: b9 b8        	j	0x1a478 <_vfprintf_r+0x12c>
   1ac1c: 93 ed 0d 08  	ori	s11, s11, 0x80
   1ac20: 03 c3 09 00  	lbu	t1, 0x0(s3)
   1ac24: 81 2d        	sext.w	s11, s11
   1ac26: 89 b8        	j	0x1a478 <_vfprintf_r+0x12c>
   1ac28: 03 c3 09 00  	lbu	t1, 0x0(s3)
   1ac2c: 93 06 a0 02  	li	a3, 0x2a
   1ac30: 13 87 19 00  	addi	a4, s3, 0x1
   1ac34: 63 14 d3 00  	bne	t1, a3, 0x1ac3c <_vfprintf_r+0x8f0>
   1ac38: 6f 10 a0 24  	j	0x1be82 <_vfprintf_r+0x1b36>
   1ac3c: 9b 07 03 fd  	addiw	a5, t1, -0x30
   1ac40: a5 45        	li	a1, 0x9
   1ac42: 81 46        	li	a3, 0x0
   1ac44: 25 46        	li	a2, 0x9
   1ac46: ba 89        	mv	s3, a4
   1ac48: 01 4b        	li	s6, 0x0
   1ac4a: e3 e9 f5 82  	bltu	a1, a5, 0x1a47c <_vfprintf_r+0x130>
   1ac4e: 03 43 07 00  	lbu	t1, 0x0(a4)
   1ac52: 1b 9b 26 00  	slliw	s6, a3, 0x2
   1ac56: 3b 0b db 00  	addw	s6, s6, a3
   1ac5a: 1b 1b 1b 00  	slliw	s6, s6, 0x1
   1ac5e: bb 86 67 01  	addw	a3, a5, s6
   1ac62: 9b 07 03 fd  	addiw	a5, t1, -0x30
   1ac66: 36 8b        	mv	s6, a3
   1ac68: 05 07        	addi	a4, a4, 0x1
   1ac6a: e3 72 f6 fe  	bgeu	a2, a5, 0x1ac4e <_vfprintf_r+0x902>
   1ac6e: 63 ce 06 72  	bltz	a3, 0x1b3aa <_vfprintf_r+0x105e>
   1ac72: ba 89        	mv	s3, a4
   1ac74: 6f f0 9f 80  	j	0x1a47c <_vfprintf_r+0x130>
   1ac78: 93 ec 0d 01  	ori	s9, s11, 0x10
   1ac7c: 81 2c        	sext.w	s9, s9
   1ac7e: 82 76        	ld	a3, 0x20(sp)
   1ac80: 93 f7 0c 02  	andi	a5, s9, 0x20
   1ac84: 13 87 86 00  	addi	a4, a3, 0x8
   1ac88: 63 82 07 62  	beqz	a5, 0x1b2ac <_vfprintf_r+0xf60>
   1ac8c: 84 62        	ld	s1, 0x0(a3)
   1ac8e: 85 47        	li	a5, 0x1
   1ac90: 3a f0        	sd	a4, 0x20(sp)
   1ac92: 1d bc        	j	0x1a6c8 <_vfprintf_r+0x37c>
   1ac94: 22 6c        	ld	s8, 0x8(sp)
   1ac96: 62 85        	mv	a0, s8
   1ac98: ef 20 f0 12  	jal	0x1d5c6 <_localeconv_r>
   1ac9c: 1c 65        	ld	a5, 0x8(a0)
   1ac9e: 3e 85        	mv	a0, a5
   1aca0: be fc        	sd	a5, 0x78(sp)
   1aca2: ef d0 5f b0  	jal	0x187a6 <strlen>
   1aca6: aa 87        	mv	a5, a0
   1aca8: 62 85        	mv	a0, s8
   1acaa: 3e e5        	sd	a5, 0x88(sp)
   1acac: 3e 8c        	mv	s8, a5
   1acae: ef 20 90 11  	jal	0x1d5c6 <_localeconv_r>
   1acb2: 1c 69        	ld	a5, 0x10(a0)
   1acb4: 03 c3 09 00  	lbu	t1, 0x0(s3)
   1acb8: 3e e1        	sd	a5, 0x80(sp)
   1acba: 63 0f 0c fa  	beqz	s8, 0x1a478 <_vfprintf_r+0x12c>
   1acbe: 63 8d 07 fa  	beqz	a5, 0x1a478 <_vfprintf_r+0x12c>
   1acc2: 83 c7 07 00  	lbu	a5, 0x0(a5)
   1acc6: 63 89 07 fa  	beqz	a5, 0x1a478 <_vfprintf_r+0x12c>
   1acca: 93 ed 0d 40  	ori	s11, s11, 0x400
   1acce: 81 2d        	sext.w	s11, s11
   1acd0: 6f f0 8f fa  	j	0x1a478 <_vfprintf_r+0x12c>
   1acd4: 93 ed 1d 00  	ori	s11, s11, 0x1
   1acd8: 03 c3 09 00  	lbu	t1, 0x0(s3)
   1acdc: 81 2d        	sext.w	s11, s11
   1acde: 6f f0 af f9  	j	0x1a478 <_vfprintf_r+0x12c>
   1ace2: 83 47 f1 0a  	lbu	a5, 0xaf(sp)
   1ace6: 03 c3 09 00  	lbu	t1, 0x0(s3)
   1acea: 63 97 07 f8  	bnez	a5, 0x1a478 <_vfprintf_r+0x12c>
   1acee: 93 07 00 02  	li	a5, 0x20
   1acf2: a3 07 f1 0a  	sb	a5, 0xaf(sp)
   1acf6: 6f f0 2f f8  	j	0x1a478 <_vfprintf_r+0x12c>
   1acfa: 93 ed 8d 00  	ori	s11, s11, 0x8
   1acfe: 03 c3 09 00  	lbu	t1, 0x0(s3)
   1ad02: 81 2d        	sext.w	s11, s11
   1ad04: 6f f0 4f f7  	j	0x1a478 <_vfprintf_r+0x12c>
   1ad08: 93 ed 0d 02  	ori	s11, s11, 0x20
   1ad0c: 03 c3 09 00  	lbu	t1, 0x0(s3)
   1ad10: 81 2d        	sext.w	s11, s11
   1ad12: 6f f0 6f f6  	j	0x1a478 <_vfprintf_r+0x12c>
   1ad16: 02 77        	ld	a4, 0x20(sp)
   1ad18: a1 67        	lui	a5, 0x8
   1ad1a: 93 87 07 83  	addi	a5, a5, -0x7d0
   1ad1e: 23 18 f1 0a  	sh	a5, 0xb0(sp)
   1ad22: 93 07 87 00  	addi	a5, a4, 0x8
   1ad26: 3e f0        	sd	a5, 0x20(sp)
   1ad28: b7 17 02 00  	lui	a5, 0x21
   1ad2c: 93 87 07 43  	addi	a5, a5, 0x430
   1ad30: 93 ec 2d 00  	ori	s9, s11, 0x2
   1ad34: be f0        	sd	a5, 0x60(sp)
   1ad36: 04 63        	ld	s1, 0x0(a4)
   1ad38: 81 2c        	sext.w	s9, s9
   1ad3a: 89 47        	li	a5, 0x2
   1ad3c: 13 03 80 07  	li	t1, 0x78
   1ad40: 61 b2        	j	0x1a6c8 <_vfprintf_r+0x37c>
   1ad42: 02 77        	ld	a4, 0x20(sp)
   1ad44: 93 f7 0d 02  	andi	a5, s11, 0x20
   1ad48: 18 63        	ld	a4, 0x0(a4)
   1ad4a: 63 8a 07 5a  	beqz	a5, 0x1b2fe <_vfprintf_r+0xfb2>
   1ad4e: c2 67        	ld	a5, 0x10(sp)
   1ad50: 1c e3        	sd	a5, 0x0(a4)
   1ad52: 82 77        	ld	a5, 0x20(sp)
   1ad54: 4e 8d        	mv	s10, s3
   1ad56: a1 07        	addi	a5, a5, 0x8
   1ad58: 3e f0        	sd	a5, 0x20(sp)
   1ad5a: a9 b8        	j	0x1a5b4 <_vfprintf_r+0x268>
   1ad5c: 03 c3 09 00  	lbu	t1, 0x0(s3)
   1ad60: 93 07 c0 06  	li	a5, 0x6c
   1ad64: 63 09 f3 6a  	beq	t1, a5, 0x1b416 <_vfprintf_r+0x10ca>
   1ad68: 93 ed 0d 01  	ori	s11, s11, 0x10
   1ad6c: 81 2d        	sext.w	s11, s11
   1ad6e: 6f f0 af f0  	j	0x1a478 <_vfprintf_r+0x12c>
   1ad72: 03 c3 09 00  	lbu	t1, 0x0(s3)
   1ad76: 93 07 80 06  	li	a5, 0x68
   1ad7a: 63 06 f3 68  	beq	t1, a5, 0x1b406 <_vfprintf_r+0x10ba>
   1ad7e: 93 ed 0d 04  	ori	s11, s11, 0x40
   1ad82: 81 2d        	sext.w	s11, s11
   1ad84: 6f f0 4f ef  	j	0x1a478 <_vfprintf_r+0x12c>
   1ad88: 13 07 50 06  	li	a4, 0x65
   1ad8c: e3 5b 67 ca  	bge	a4, t1, 0x1aa42 <_vfprintf_r+0x6f6>
   1ad90: 4e 65        	ld	a0, 0xd0(sp)
   1ad92: ee 65        	ld	a1, 0xd8(sp)
   1ad94: 01 46        	li	a2, 0x0
   1ad96: 81 46        	li	a3, 0x0
   1ad98: ef 40 70 46  	jal	0x1f9fe <__netf2>
   1ad9c: 63 1a 05 38  	bnez	a0, 0x1b130 <_vfprintf_r+0xde4>
   1ada0: ae 57        	lw	a5, 0xe8(sp)
   1ada2: 37 17 02 00  	lui	a4, 0x21
   1ada6: 13 07 87 46  	addi	a4, a4, 0x468
   1adaa: 85 27        	addiw	a5, a5, 0x1
   1adac: 18 e0        	sd	a4, 0x0(s0)
   1adae: 85 04        	addi	s1, s1, 0x1
   1adb0: 05 47        	li	a4, 0x1
   1adb2: 18 e4        	sd	a4, 0x8(s0)
   1adb4: be d5        	sw	a5, 0xe8(sp)
   1adb6: 1b 87 07 00  	sext.w	a4, a5
   1adba: a6 f9        	sd	s1, 0xf0(sp)
   1adbc: 9d 47        	li	a5, 0x7
   1adbe: 41 04        	addi	s0, s0, 0x10
   1adc0: e3 c5 e7 00  	blt	a5, a4, 0x1b5ca <_vfprintf_r+0x127e>
   1adc4: ea 57        	lw	a5, 0xb8(sp)
   1adc6: 62 77        	ld	a4, 0x38(sp)
   1adc8: 63 d6 e7 50  	bge	a5, a4, 0x1b2d4 <_vfprintf_r+0xf88>
   1adcc: 46 67        	ld	a4, 0x50(sp)
   1adce: ae 57        	lw	a5, 0xe8(sp)
   1add0: e6 66        	ld	a3, 0x58(sp)
   1add2: ba 94        	add	s1, s1, a4
   1add4: 85 27        	addiw	a5, a5, 0x1
   1add6: 18 e4        	sd	a4, 0x8(s0)
   1add8: 14 e0        	sd	a3, 0x0(s0)
   1adda: 1b 87 07 00  	sext.w	a4, a5
   1adde: be d5        	sw	a5, 0xe8(sp)
   1ade0: a6 f9        	sd	s1, 0xf0(sp)
   1ade2: 9d 47        	li	a5, 0x7
   1ade4: 41 04        	addi	s0, s0, 0x10
   1ade6: 63 c0 e7 64  	blt	a5, a4, 0x1b426 <_vfprintf_r+0x10da>
   1adea: e2 77        	ld	a5, 0x38(sp)
   1adec: 1b 8b f7 ff  	addiw	s6, a5, -0x1
   1adf0: 63 58 60 f9  	blez	s6, 0x1a580 <_vfprintf_r+0x234>
   1adf4: b7 28 02 00  	lui	a7, 0x22
   1adf8: 41 47        	li	a4, 0x10
   1adfa: ae 57        	lw	a5, 0xe8(sp)
   1adfc: 93 88 08 a9  	addi	a7, a7, -0x570
   1ae00: 63 53 67 7f  	bge	a4, s6, 0x1b5e6 <_vfprintf_r+0x129a>
   1ae04: 4e f8        	sd	s3, 0x30(sp)
   1ae06: c1 4c        	li	s9, 0x10
   1ae08: da 89        	mv	s3, s6
   1ae0a: 1d 4d        	li	s10, 0x7
   1ae0c: 46 8b        	mv	s6, a7
   1ae0e: 21 a0        	j	0x1ae16 <_vfprintf_r+0xaca>
   1ae10: c1 39        	addiw	s3, s3, -0x10
   1ae12: 63 d7 3c 7d  	bge	s9, s3, 0x1b5e0 <_vfprintf_r+0x1294>
   1ae16: 85 27        	addiw	a5, a5, 0x1
   1ae18: c1 04        	addi	s1, s1, 0x10
   1ae1a: 23 30 64 01  	sd	s6, 0x0(s0)
   1ae1e: 23 34 94 01  	sd	s9, 0x8(s0)
   1ae22: a6 f9        	sd	s1, 0xf0(sp)
   1ae24: be d5        	sw	a5, 0xe8(sp)
   1ae26: 41 04        	addi	s0, s0, 0x10
   1ae28: e3 54 fd fe  	bge	s10, a5, 0x1ae10 <_vfprintf_r+0xac4>
   1ae2c: 22 65        	ld	a0, 0x8(sp)
   1ae2e: 90 11        	addi	a2, sp, 0xe0
   1ae30: ca 85        	mv	a1, s2
   1ae32: ef 10 00 1f  	jal	0x1c022 <__sprint_r>
   1ae36: 63 18 05 18  	bnez	a0, 0x1afc6 <_vfprintf_r+0xc7a>
   1ae3a: ce 74        	ld	s1, 0xf0(sp)
   1ae3c: ae 57        	lw	a5, 0xe8(sp)
   1ae3e: 52 84        	mv	s0, s4
   1ae40: c1 bf        	j	0x1ae10 <_vfprintf_r+0xac4>
   1ae42: 05 47        	li	a4, 0x1
   1ae44: e3 8b e7 64  	beq	a5, a4, 0x1bc9a <_vfprintf_r+0x194e>
   1ae48: 09 47        	li	a4, 0x2
   1ae4a: ee 8c        	mv	s9, s11
   1ae4c: e3 90 e7 d0  	bne	a5, a4, 0x1ab4c <_vfprintf_r+0x800>
   1ae50: 06 77        	ld	a4, 0x60(sp)
   1ae52: f4 0a        	addi	a3, sp, 0x15c
   1ae54: 36 8d        	mv	s10, a3
   1ae56: 93 f7 f4 00  	andi	a5, s1, 0xf
   1ae5a: ba 97        	add	a5, a5, a4
   1ae5c: 83 c7 07 00  	lbu	a5, 0x0(a5)
   1ae60: 91 80        	srli	s1, s1, 0x4
   1ae62: 7d 1d        	addi	s10, s10, -0x1
   1ae64: 23 00 fd 00  	sb	a5, 0x0(s10)
   1ae68: fd f4        	bnez	s1, 0x1ae56 <_vfprintf_r+0xb0a>
   1ae6a: bb 86 a6 41  	subw	a3, a3, s10
   1ae6e: e6 8d        	mv	s11, s9
   1ae70: 6f f0 7f 81  	j	0x1a686 <_vfprintf_r+0x33a>
   1ae74: bb 8c 8b 41  	subw	s9, s7, s8
   1ae78: 63 50 90 ef  	blez	s9, 0x1a558 <_vfprintf_r+0x20c>
   1ae7c: b7 28 02 00  	lui	a7, 0x22
   1ae80: c1 45        	li	a1, 0x10
   1ae82: 2e 56        	lw	a2, 0xe8(sp)
   1ae84: 93 88 08 a9  	addi	a7, a7, -0x570
   1ae88: 63 df 95 05  	bge	a1, s9, 0x1aee6 <_vfprintf_r+0xb9a>
   1ae8c: a2 87        	mv	a5, s0
   1ae8e: 26 87        	mv	a4, s1
   1ae90: 66 84        	mv	s0, s9
   1ae92: 41 4f        	li	t5, 0x10
   1ae94: e2 8c        	mv	s9, s8
   1ae96: 9d 4f        	li	t6, 0x7
   1ae98: 9a f4        	sd	t1, 0x68(sp)
   1ae9a: 36 8c        	mv	s8, a3
   1ae9c: c6 84        	mv	s1, a7
   1ae9e: 21 a0        	j	0x1aea6 <_vfprintf_r+0xb5a>
   1aea0: 41 34        	addiw	s0, s0, -0x10
   1aea2: 63 5b 8f 02  	bge	t5, s0, 0x1aed8 <_vfprintf_r+0xb8c>
   1aea6: 05 26        	addiw	a2, a2, 0x1
   1aea8: 41 07        	addi	a4, a4, 0x10
   1aeaa: 84 e3        	sd	s1, 0x0(a5)
   1aeac: 23 b4 e7 01  	sd	t5, 0x8(a5)
   1aeb0: ba f9        	sd	a4, 0xf0(sp)
   1aeb2: b2 d5        	sw	a2, 0xe8(sp)
   1aeb4: c1 07        	addi	a5, a5, 0x10
   1aeb6: e3 d5 cf fe  	bge	t6, a2, 0x1aea0 <_vfprintf_r+0xb54>
   1aeba: 22 65        	ld	a0, 0x8(sp)
   1aebc: 90 11        	addi	a2, sp, 0xe0
   1aebe: ca 85        	mv	a1, s2
   1aec0: ef 10 20 16  	jal	0x1c022 <__sprint_r>
   1aec4: 63 11 05 10  	bnez	a0, 0x1afc6 <_vfprintf_r+0xc7a>
   1aec8: 41 4f        	li	t5, 0x10
   1aeca: 41 34        	addiw	s0, s0, -0x10
   1aecc: 4e 77        	ld	a4, 0xf0(sp)
   1aece: 2e 56        	lw	a2, 0xe8(sp)
   1aed0: d2 87        	mv	a5, s4
   1aed2: 9d 4f        	li	t6, 0x7
   1aed4: e3 49 8f fc  	blt	t5, s0, 0x1aea6 <_vfprintf_r+0xb5a>
   1aed8: 26 73        	ld	t1, 0x68(sp)
   1aeda: e2 86        	mv	a3, s8
   1aedc: a6 88        	mv	a7, s1
   1aede: 66 8c        	mv	s8, s9
   1aee0: ba 84        	mv	s1, a4
   1aee2: a2 8c        	mv	s9, s0
   1aee4: 3e 84        	mv	s0, a5
   1aee6: 9b 05 16 00  	addiw	a1, a2, 0x1
   1aeea: e6 94        	add	s1, s1, s9
   1aeec: 23 30 14 01  	sd	a7, 0x0(s0)
   1aef0: 23 34 94 01  	sd	s9, 0x8(s0)
   1aef4: a6 f9        	sd	s1, 0xf0(sp)
   1aef6: ae d5        	sw	a1, 0xe8(sp)
   1aef8: 1d 47        	li	a4, 0x7
   1aefa: 41 04        	addi	s0, s0, 0x10
   1aefc: 63 5e b7 e4  	bge	a4, a1, 0x1a558 <_vfprintf_r+0x20c>
   1af00: 22 65        	ld	a0, 0x8(sp)
   1af02: 90 11        	addi	a2, sp, 0xe0
   1af04: ca 85        	mv	a1, s2
   1af06: 36 e9        	sd	a3, 0x90(sp)
   1af08: 9a f4        	sd	t1, 0x68(sp)
   1af0a: ef 10 80 11  	jal	0x1c022 <__sprint_r>
   1af0e: 45 ed        	bnez	a0, 0x1afc6 <_vfprintf_r+0xc7a>
   1af10: ce 74        	ld	s1, 0xf0(sp)
   1af12: ca 66        	ld	a3, 0x90(sp)
   1af14: 26 73        	ld	t1, 0x68(sp)
   1af16: 52 84        	mv	s0, s4
   1af18: 6f f0 0f e4  	j	0x1a558 <_vfprintf_r+0x20c>
   1af1c: b7 28 02 00  	lui	a7, 0x22
   1af20: 41 47        	li	a4, 0x10
   1af22: 2e 56        	lw	a2, 0xe8(sp)
   1af24: 93 88 08 a9  	addi	a7, a7, -0x570
   1af28: 63 5d 67 05  	bge	a4, s6, 0x1af82 <_vfprintf_r+0xc36>
   1af2c: a6 85        	mv	a1, s1
   1af2e: a2 87        	mv	a5, s0
   1af30: b6 84        	mv	s1, a3
   1af32: 5a 84        	mv	s0, s6
   1af34: 41 47        	li	a4, 0x10
   1af36: 9d 4c        	li	s9, 0x7
   1af38: 9a f4        	sd	t1, 0x68(sp)
   1af3a: 56 8b        	mv	s6, s5
   1af3c: ae 86        	mv	a3, a1
   1af3e: 21 a0        	j	0x1af46 <_vfprintf_r+0xbfa>
   1af40: 41 34        	addiw	s0, s0, -0x10
   1af42: 63 59 87 02  	bge	a4, s0, 0x1af74 <_vfprintf_r+0xc28>
   1af46: 05 26        	addiw	a2, a2, 0x1
   1af48: c1 06        	addi	a3, a3, 0x10
   1af4a: 23 b0 57 01  	sd	s5, 0x0(a5)
   1af4e: 98 e7        	sd	a4, 0x8(a5)
   1af50: b6 f9        	sd	a3, 0xf0(sp)
   1af52: b2 d5        	sw	a2, 0xe8(sp)
   1af54: c1 07        	addi	a5, a5, 0x10
   1af56: e3 d5 cc fe  	bge	s9, a2, 0x1af40 <_vfprintf_r+0xbf4>
   1af5a: 22 65        	ld	a0, 0x8(sp)
   1af5c: 90 11        	addi	a2, sp, 0xe0
   1af5e: ca 85        	mv	a1, s2
   1af60: ef 10 20 0c  	jal	0x1c022 <__sprint_r>
   1af64: 2d e1        	bnez	a0, 0x1afc6 <_vfprintf_r+0xc7a>
   1af66: 41 47        	li	a4, 0x10
   1af68: 41 34        	addiw	s0, s0, -0x10
   1af6a: ce 76        	ld	a3, 0xf0(sp)
   1af6c: 2e 56        	lw	a2, 0xe8(sp)
   1af6e: d2 87        	mv	a5, s4
   1af70: e3 4b 87 fc  	blt	a4, s0, 0x1af46 <_vfprintf_r+0xbfa>
   1af74: 26 73        	ld	t1, 0x68(sp)
   1af76: 36 87        	mv	a4, a3
   1af78: da 88        	mv	a7, s6
   1af7a: a6 86        	mv	a3, s1
   1af7c: 22 8b        	mv	s6, s0
   1af7e: ba 84        	mv	s1, a4
   1af80: 3e 84        	mv	s0, a5
   1af82: 9b 05 16 00  	addiw	a1, a2, 0x1
   1af86: da 94        	add	s1, s1, s6
   1af88: 23 30 14 01  	sd	a7, 0x0(s0)
   1af8c: 23 34 64 01  	sd	s6, 0x8(s0)
   1af90: a6 f9        	sd	s1, 0xf0(sp)
   1af92: ae d5        	sw	a1, 0xe8(sp)
   1af94: 1d 47        	li	a4, 0x7
   1af96: 41 04        	addi	s0, s0, 0x10
   1af98: 63 54 b7 dc  	bge	a4, a1, 0x1a560 <_vfprintf_r+0x214>
   1af9c: 22 65        	ld	a0, 0x8(sp)
   1af9e: 90 11        	addi	a2, sp, 0xe0
   1afa0: ca 85        	mv	a1, s2
   1afa2: 36 e9        	sd	a3, 0x90(sp)
   1afa4: 9a f4        	sd	t1, 0x68(sp)
   1afa6: ef 10 c0 07  	jal	0x1c022 <__sprint_r>
   1afaa: 11 ed        	bnez	a0, 0x1afc6 <_vfprintf_r+0xc7a>
   1afac: ce 74        	ld	s1, 0xf0(sp)
   1afae: ca 66        	ld	a3, 0x90(sp)
   1afb0: 26 73        	ld	t1, 0x68(sp)
   1afb2: 52 84        	mv	s0, s4
   1afb4: 6f f0 cf da  	j	0x1a560 <_vfprintf_r+0x214>
   1afb8: 22 65        	ld	a0, 0x8(sp)
   1afba: 90 11        	addi	a2, sp, 0xe0
   1afbc: ca 85        	mv	a1, s2
   1afbe: ef 10 40 06  	jal	0x1c022 <__sprint_r>
   1afc2: 63 00 05 de  	beqz	a0, 0x1a5a2 <_vfprintf_r+0x256>
   1afc6: e2 65        	ld	a1, 0x18(sp)
   1afc8: 63 8e 05 de  	beqz	a1, 0x1a5c4 <_vfprintf_r+0x278>
   1afcc: 22 65        	ld	a0, 0x8(sp)
   1afce: ef d0 ff b1  	jal	0x18aec <_free_r>
   1afd2: 6f f0 2f df  	j	0x1a5c4 <_vfprintf_r+0x278>
   1afd6: 05 47        	li	a4, 0x1
   1afd8: ee 8c        	mv	s9, s11
   1afda: e3 96 e7 b6  	bne	a5, a4, 0x1ab46 <_vfprintf_r+0x7fa>
   1afde: a5 47        	li	a5, 0x9
   1afe0: 63 e6 97 36  	bltu	a5, s1, 0x1b34c <_vfprintf_r+0x1000>
   1afe4: 9b 84 04 03  	addiw	s1, s1, 0x30
   1afe8: a3 0d 91 14  	sb	s1, 0x15b(sp)
   1afec: e6 8d        	mv	s11, s9
   1afee: 85 46        	li	a3, 0x1
   1aff0: 13 0d b1 15  	addi	s10, sp, 0x15b
   1aff4: 6f f0 2f e9  	j	0x1a686 <_vfprintf_r+0x33a>
   1aff8: b7 28 02 00  	lui	a7, 0x22
   1affc: c1 45        	li	a1, 0x10
   1affe: 2e 56        	lw	a2, 0xe8(sp)
   1b000: 93 88 08 aa  	addi	a7, a7, -0x560
   1b004: 63 de e5 04  	bge	a1, a4, 0x1b060 <_vfprintf_r+0xd14>
   1b008: 36 ed        	sd	a3, 0x98(sp)
   1b00a: a2 87        	mv	a5, s0
   1b00c: a6 86        	mv	a3, s1
   1b00e: 41 4f        	li	t5, 0x10
   1b010: 9d 43        	li	t2, 0x7
   1b012: 96 f4        	sd	t0, 0x68(sp)
   1b014: 1a e9        	sd	t1, 0x90(sp)
   1b016: 3a 84        	mv	s0, a4
   1b018: c6 84        	mv	s1, a7
   1b01a: 21 a0        	j	0x1b022 <_vfprintf_r+0xcd6>
   1b01c: 41 34        	addiw	s0, s0, -0x10
   1b01e: 63 5a 8f 02  	bge	t5, s0, 0x1b052 <_vfprintf_r+0xd06>
   1b022: 05 26        	addiw	a2, a2, 0x1
   1b024: c1 06        	addi	a3, a3, 0x10
   1b026: 84 e3        	sd	s1, 0x0(a5)
   1b028: 23 b4 e7 01  	sd	t5, 0x8(a5)
   1b02c: b6 f9        	sd	a3, 0xf0(sp)
   1b02e: b2 d5        	sw	a2, 0xe8(sp)
   1b030: c1 07        	addi	a5, a5, 0x10
   1b032: e3 d5 c3 fe  	bge	t2, a2, 0x1b01c <_vfprintf_r+0xcd0>
   1b036: 22 65        	ld	a0, 0x8(sp)
   1b038: 90 11        	addi	a2, sp, 0xe0
   1b03a: ca 85        	mv	a1, s2
   1b03c: ef 00 70 7e  	jal	0x1c022 <__sprint_r>
   1b040: 59 f1        	bnez	a0, 0x1afc6 <_vfprintf_r+0xc7a>
   1b042: 41 4f        	li	t5, 0x10
   1b044: 41 34        	addiw	s0, s0, -0x10
   1b046: ce 76        	ld	a3, 0xf0(sp)
   1b048: 2e 56        	lw	a2, 0xe8(sp)
   1b04a: d2 87        	mv	a5, s4
   1b04c: 9d 43        	li	t2, 0x7
   1b04e: e3 4a 8f fc  	blt	t5, s0, 0x1b022 <_vfprintf_r+0xcd6>
   1b052: a6 88        	mv	a7, s1
   1b054: a6 72        	ld	t0, 0x68(sp)
   1b056: b6 84        	mv	s1, a3
   1b058: 4a 63        	ld	t1, 0x90(sp)
   1b05a: ea 66        	ld	a3, 0x98(sp)
   1b05c: 22 87        	mv	a4, s0
   1b05e: 3e 84        	mv	s0, a5
   1b060: ba 94        	add	s1, s1, a4
   1b062: 9b 05 16 00  	addiw	a1, a2, 0x1
   1b066: 18 e4        	sd	a4, 0x8(s0)
   1b068: 23 30 14 01  	sd	a7, 0x0(s0)
   1b06c: a6 f9        	sd	s1, 0xf0(sp)
   1b06e: ae d5        	sw	a1, 0xe8(sp)
   1b070: 1d 47        	li	a4, 0x7
   1b072: 41 04        	addi	s0, s0, 0x10
   1b074: 63 5a b7 c8  	bge	a4, a1, 0x1a508 <_vfprintf_r+0x1bc>
   1b078: 22 65        	ld	a0, 0x8(sp)
   1b07a: 90 11        	addi	a2, sp, 0xe0
   1b07c: ca 85        	mv	a1, s2
   1b07e: 36 ed        	sd	a3, 0x98(sp)
   1b080: 1a e9        	sd	t1, 0x90(sp)
   1b082: 96 f4        	sd	t0, 0x68(sp)
   1b084: ef 00 f0 79  	jal	0x1c022 <__sprint_r>
   1b088: 1d fd        	bnez	a0, 0x1afc6 <_vfprintf_r+0xc7a>
   1b08a: ce 74        	ld	s1, 0xf0(sp)
   1b08c: ea 66        	ld	a3, 0x98(sp)
   1b08e: 4a 63        	ld	t1, 0x90(sp)
   1b090: a6 72        	ld	t0, 0x68(sp)
   1b092: 52 84        	mv	s0, s4
   1b094: 6f f0 4f c7  	j	0x1a508 <_vfprintf_r+0x1bc>
   1b098: 22 65        	ld	a0, 0x8(sp)
   1b09a: 90 11        	addi	a2, sp, 0xe0
   1b09c: ca 85        	mv	a1, s2
   1b09e: 36 e9        	sd	a3, 0x90(sp)
   1b0a0: 9a f4        	sd	t1, 0x68(sp)
   1b0a2: ef 00 10 78  	jal	0x1c022 <__sprint_r>
   1b0a6: 05 f1        	bnez	a0, 0x1afc6 <_vfprintf_r+0xc7a>
   1b0a8: ce 74        	ld	s1, 0xf0(sp)
   1b0aa: ca 66        	ld	a3, 0x90(sp)
   1b0ac: 26 73        	ld	t1, 0x68(sp)
   1b0ae: 52 84        	mv	s0, s4
   1b0b0: 6f f0 0f ca  	j	0x1a550 <_vfprintf_r+0x204>
   1b0b4: b7 28 02 00  	lui	a7, 0x22
   1b0b8: 93 88 08 aa  	addi	a7, a7, -0x560
   1b0bc: 41 47        	li	a4, 0x10
   1b0be: ae 57        	lw	a5, 0xe8(sp)
   1b0c0: c1 4c        	li	s9, 0x10
   1b0c2: 1d 4d        	li	s10, 0x7
   1b0c4: c6 8d        	mv	s11, a7
   1b0c6: 63 46 67 01  	blt	a4, s6, 0x1b0d2 <_vfprintf_r+0xd86>
   1b0ca: 2d a8        	j	0x1b104 <_vfprintf_r+0xdb8>
   1b0cc: 41 3b        	addiw	s6, s6, -0x10
   1b0ce: 63 da 6c 03  	bge	s9, s6, 0x1b102 <_vfprintf_r+0xdb6>
   1b0d2: 85 27        	addiw	a5, a5, 0x1
   1b0d4: c1 04        	addi	s1, s1, 0x10
   1b0d6: 23 30 b4 01  	sd	s11, 0x0(s0)
   1b0da: 23 34 94 01  	sd	s9, 0x8(s0)
   1b0de: a6 f9        	sd	s1, 0xf0(sp)
   1b0e0: be d5        	sw	a5, 0xe8(sp)
   1b0e2: 41 04        	addi	s0, s0, 0x10
   1b0e4: e3 54 fd fe  	bge	s10, a5, 0x1b0cc <_vfprintf_r+0xd80>
   1b0e8: 22 65        	ld	a0, 0x8(sp)
   1b0ea: 90 11        	addi	a2, sp, 0xe0
   1b0ec: ca 85        	mv	a1, s2
   1b0ee: ef 00 50 73  	jal	0x1c022 <__sprint_r>
   1b0f2: e3 1a 05 ec  	bnez	a0, 0x1afc6 <_vfprintf_r+0xc7a>
   1b0f6: 41 3b        	addiw	s6, s6, -0x10
   1b0f8: ce 74        	ld	s1, 0xf0(sp)
   1b0fa: ae 57        	lw	a5, 0xe8(sp)
   1b0fc: 52 84        	mv	s0, s4
   1b0fe: e3 ca 6c fd  	blt	s9, s6, 0x1b0d2 <_vfprintf_r+0xd86>
   1b102: ee 88        	mv	a7, s11
   1b104: 1b 87 17 00  	addiw	a4, a5, 0x1
   1b108: da 94        	add	s1, s1, s6
   1b10a: 23 30 14 01  	sd	a7, 0x0(s0)
   1b10e: 23 34 64 01  	sd	s6, 0x8(s0)
   1b112: a6 f9        	sd	s1, 0xf0(sp)
   1b114: ba d5        	sw	a4, 0xe8(sp)
   1b116: 9d 47        	li	a5, 0x7
   1b118: 63 dc e7 c6  	bge	a5, a4, 0x1a590 <_vfprintf_r+0x244>
   1b11c: 22 65        	ld	a0, 0x8(sp)
   1b11e: 90 11        	addi	a2, sp, 0xe0
   1b120: ca 85        	mv	a1, s2
   1b122: ef 00 10 70  	jal	0x1c022 <__sprint_r>
   1b126: e3 10 05 ea  	bnez	a0, 0x1afc6 <_vfprintf_r+0xc7a>
   1b12a: ce 74        	ld	s1, 0xf0(sp)
   1b12c: 6f f0 4f c6  	j	0x1a590 <_vfprintf_r+0x244>
   1b130: 6a 57        	lw	a4, 0xb8(sp)
   1b132: 63 53 e0 42  	blez	a4, 0x1b558 <_vfprintf_r+0x120c>
   1b136: c2 77        	ld	a5, 0x30(sp)
   1b138: 62 77        	ld	a4, 0x38(sp)
   1b13a: 1b 8b 07 00  	sext.w	s6, a5
   1b13e: 63 41 f7 26  	blt	a4, a5, 0x1b3a0 <_vfprintf_r+0x1054>
   1b142: 63 50 60 03  	blez	s6, 0x1b162 <_vfprintf_r+0xe16>
   1b146: 2e 57        	lw	a4, 0xe8(sp)
   1b148: da 94        	add	s1, s1, s6
   1b14a: 23 30 a4 01  	sd	s10, 0x0(s0)
   1b14e: 9b 06 17 00  	addiw	a3, a4, 0x1
   1b152: 23 34 64 01  	sd	s6, 0x8(s0)
   1b156: a6 f9        	sd	s1, 0xf0(sp)
   1b158: b6 d5        	sw	a3, 0xe8(sp)
   1b15a: 1d 47        	li	a4, 0x7
   1b15c: 41 04        	addi	s0, s0, 0x10
   1b15e: 63 44 d7 7e  	blt	a4, a3, 0x1b946 <_vfprintf_r+0x15fa>
   1b162: 13 47 fb ff  	not	a4, s6
   1b166: c2 77        	ld	a5, 0x30(sp)
   1b168: 7d 97        	srai	a4, a4, 0x3f
   1b16a: 33 7b eb 00  	and	s6, s6, a4
   1b16e: 3b 8b 67 41  	subw	s6, a5, s6
   1b172: 63 41 60 2f  	bgtz	s6, 0x1b454 <_vfprintf_r+0x1108>
   1b176: c2 77        	ld	a5, 0x30(sp)
   1b178: 13 f7 0d 40  	andi	a4, s11, 0x400
   1b17c: 33 03 fd 00  	add	t1, s10, a5
   1b180: 63 19 07 62  	bnez	a4, 0x1b7b2 <_vfprintf_r+0x1466>
   1b184: 6a 57        	lw	a4, 0xb8(sp)
   1b186: e2 77        	ld	a5, 0x38(sp)
   1b188: 63 4c f7 30  	blt	a4, a5, 0x1b4a0 <_vfprintf_r+0x1154>
   1b18c: 93 f6 1d 00  	andi	a3, s11, 0x1
   1b190: 63 98 06 30  	bnez	a3, 0x1b4a0 <_vfprintf_r+0x1154>
   1b194: e2 76        	ld	a3, 0x38(sp)
   1b196: b3 07 dd 00  	add	a5, s10, a3
   1b19a: 33 8b 67 40  	sub	s6, a5, t1
   1b19e: 99 9e        	subw	a3, a3, a4
   1b1a0: 9b 07 0b 00  	sext.w	a5, s6
   1b1a4: 63 d3 f6 00  	bge	a3, a5, 0x1b1aa <_vfprintf_r+0xe5e>
   1b1a8: 36 8b        	mv	s6, a3
   1b1aa: 01 2b        	sext.w	s6, s6
   1b1ac: 63 50 60 03  	blez	s6, 0x1b1cc <_vfprintf_r+0xe80>
   1b1b0: ae 57        	lw	a5, 0xe8(sp)
   1b1b2: da 94        	add	s1, s1, s6
   1b1b4: 23 30 64 00  	sd	t1, 0x0(s0)
   1b1b8: 1b 87 17 00  	addiw	a4, a5, 0x1
   1b1bc: 23 34 64 01  	sd	s6, 0x8(s0)
   1b1c0: a6 f9        	sd	s1, 0xf0(sp)
   1b1c2: ba d5        	sw	a4, 0xe8(sp)
   1b1c4: 9d 47        	li	a5, 0x7
   1b1c6: 41 04        	addi	s0, s0, 0x10
   1b1c8: e3 c6 e7 20  	blt	a5, a4, 0x1bbd4 <_vfprintf_r+0x1888>
   1b1cc: 93 47 fb ff  	not	a5, s6
   1b1d0: fd 97        	srai	a5, a5, 0x3f
   1b1d2: 33 7b fb 00  	and	s6, s6, a5
   1b1d6: 3b 8b 66 41  	subw	s6, a3, s6
   1b1da: 63 53 60 bb  	blez	s6, 0x1a580 <_vfprintf_r+0x234>
   1b1de: b7 28 02 00  	lui	a7, 0x22
   1b1e2: 41 47        	li	a4, 0x10
   1b1e4: ae 57        	lw	a5, 0xe8(sp)
   1b1e6: 93 88 08 a9  	addi	a7, a7, -0x570
   1b1ea: 63 5e 67 3f  	bge	a4, s6, 0x1b5e6 <_vfprintf_r+0x129a>
   1b1ee: 4e f8        	sd	s3, 0x30(sp)
   1b1f0: c1 4c        	li	s9, 0x10
   1b1f2: ca 89        	mv	s3, s2
   1b1f4: 1d 4d        	li	s10, 0x7
   1b1f6: 5a 89        	mv	s2, s6
   1b1f8: 46 8b        	mv	s6, a7
   1b1fa: 21 a0        	j	0x1b202 <_vfprintf_r+0xeb6>
   1b1fc: 41 39        	addiw	s2, s2, -0x10
   1b1fe: e3 dc 2c 17  	bge	s9, s2, 0x1bb76 <_vfprintf_r+0x182a>
   1b202: 85 27        	addiw	a5, a5, 0x1
   1b204: c1 04        	addi	s1, s1, 0x10
   1b206: 23 30 64 01  	sd	s6, 0x0(s0)
   1b20a: 23 34 94 01  	sd	s9, 0x8(s0)
   1b20e: a6 f9        	sd	s1, 0xf0(sp)
   1b210: be d5        	sw	a5, 0xe8(sp)
   1b212: 41 04        	addi	s0, s0, 0x10
   1b214: e3 54 fd fe  	bge	s10, a5, 0x1b1fc <_vfprintf_r+0xeb0>
   1b218: 22 65        	ld	a0, 0x8(sp)
   1b21a: 90 11        	addi	a2, sp, 0xe0
   1b21c: ce 85        	mv	a1, s3
   1b21e: ef 00 50 60  	jal	0x1c022 <__sprint_r>
   1b222: e3 11 05 40  	bnez	a0, 0x1be24 <_vfprintf_r+0x1ad8>
   1b226: ce 74        	ld	s1, 0xf0(sp)
   1b228: ae 57        	lw	a5, 0xe8(sp)
   1b22a: 52 84        	mv	s0, s4
   1b22c: c1 bf        	j	0x1b1fc <_vfprintf_r+0xeb0>
   1b22e: 13 f6 1d 00  	andi	a2, s11, 0x1
   1b232: e3 15 06 82  	bnez	a2, 0x1aa5c <_vfprintf_r+0x710>
   1b236: 14 e4        	sd	a3, 0x8(s0)
   1b238: a6 f9        	sd	s1, 0xf0(sp)
   1b23a: da d5        	sw	s6, 0xe8(sp)
   1b23c: 9d 47        	li	a5, 0x7
   1b23e: e3 dd 67 87  	bge	a5, s6, 0x1aab8 <_vfprintf_r+0x76c>
   1b242: 22 65        	ld	a0, 0x8(sp)
   1b244: 90 11        	addi	a2, sp, 0xe0
   1b246: ca 85        	mv	a1, s2
   1b248: ef 00 b0 5d  	jal	0x1c022 <__sprint_r>
   1b24c: e3 1d 05 d6  	bnez	a0, 0x1afc6 <_vfprintf_r+0xc7a>
   1b250: ce 74        	ld	s1, 0xf0(sp)
   1b252: 2e 5b        	lw	s6, 0xe8(sp)
   1b254: d2 8c        	mv	s9, s4
   1b256: 8d b0        	j	0x1aab8 <_vfprintf_r+0x76c>
   1b258: 62 77        	ld	a4, 0x38(sp)
   1b25a: 85 47        	li	a5, 0x1
   1b25c: e3 de e7 84  	bge	a5, a4, 0x1aab8 <_vfprintf_r+0x76c>
   1b260: b7 28 02 00  	lui	a7, 0x22
   1b264: c5 47        	li	a5, 0x11
   1b266: 93 88 08 a9  	addi	a7, a7, -0x570
   1b26a: 63 d3 e7 46  	bge	a5, a4, 0x1b6d0 <_vfprintf_r+0x1384>
   1b26e: 4e f8        	sd	s3, 0x30(sp)
   1b270: 41 47        	li	a4, 0x10
   1b272: 1d 4d        	li	s10, 0x7
   1b274: c6 89        	mv	s3, a7
   1b276: 21 a0        	j	0x1b27e <_vfprintf_r+0xf32>
   1b278: 41 34        	addiw	s0, s0, -0x10
   1b27a: 63 59 87 44  	bge	a4, s0, 0x1b6cc <_vfprintf_r+0x1380>
   1b27e: 05 2b        	addiw	s6, s6, 0x1
   1b280: c1 04        	addi	s1, s1, 0x10
   1b282: 23 b0 3c 01  	sd	s3, 0x0(s9)
   1b286: 23 b4 ec 00  	sd	a4, 0x8(s9)
   1b28a: a6 f9        	sd	s1, 0xf0(sp)
   1b28c: da d5        	sw	s6, 0xe8(sp)
   1b28e: c1 0c        	addi	s9, s9, 0x10
   1b290: e3 54 6d ff  	bge	s10, s6, 0x1b278 <_vfprintf_r+0xf2c>
   1b294: 22 65        	ld	a0, 0x8(sp)
   1b296: 90 11        	addi	a2, sp, 0xe0
   1b298: ca 85        	mv	a1, s2
   1b29a: ef 00 90 58  	jal	0x1c022 <__sprint_r>
   1b29e: e3 14 05 d2  	bnez	a0, 0x1afc6 <_vfprintf_r+0xc7a>
   1b2a2: ce 74        	ld	s1, 0xf0(sp)
   1b2a4: 2e 5b        	lw	s6, 0xe8(sp)
   1b2a6: d2 8c        	mv	s9, s4
   1b2a8: 41 47        	li	a4, 0x10
   1b2aa: f9 b7        	j	0x1b278 <_vfprintf_r+0xf2c>
   1b2ac: 93 f7 0c 01  	andi	a5, s9, 0x10
   1b2b0: a9 e3        	bnez	a5, 0x1b2f2 <_vfprintf_r+0xfa6>
   1b2b2: 82 76        	ld	a3, 0x20(sp)
   1b2b4: 93 f7 0c 04  	andi	a5, s9, 0x40
   1b2b8: 84 42        	lw	s1, 0x0(a3)
   1b2ba: 63 8a 07 44  	beqz	a5, 0x1b70e <_vfprintf_r+0x13c2>
   1b2be: c2 14        	slli	s1, s1, 0x30
   1b2c0: c1 90        	srli	s1, s1, 0x30
   1b2c2: 3a f0        	sd	a4, 0x20(sp)
   1b2c4: 85 47        	li	a5, 0x1
   1b2c6: 6f f0 2f c0  	j	0x1a6c8 <_vfprintf_r+0x37c>
   1b2ca: 81 46        	li	a3, 0x0
   1b2cc: 13 0d c1 15  	addi	s10, sp, 0x15c
   1b2d0: 6f f0 6f bb  	j	0x1a686 <_vfprintf_r+0x33a>
   1b2d4: 93 f7 1d 00  	andi	a5, s11, 0x1
   1b2d8: 63 84 07 aa  	beqz	a5, 0x1a580 <_vfprintf_r+0x234>
   1b2dc: c5 bc        	j	0x1adcc <_vfprintf_r+0xa80>
   1b2de: 03 c3 09 00  	lbu	t1, 0x0(s3)
   1b2e2: 3e f0        	sd	a5, 0x20(sp)
   1b2e4: 6f f0 4f 99  	j	0x1a478 <_vfprintf_r+0x12c>
   1b2e8: 82 77        	ld	a5, 0x20(sp)
   1b2ea: 9c 63        	ld	a5, 0x0(a5)
   1b2ec: be 84        	mv	s1, a5
   1b2ee: 6f f0 2f b7  	j	0x1a660 <_vfprintf_r+0x314>
   1b2f2: 82 77        	ld	a5, 0x20(sp)
   1b2f4: 3a f0        	sd	a4, 0x20(sp)
   1b2f6: 84 63        	ld	s1, 0x0(a5)
   1b2f8: 85 47        	li	a5, 0x1
   1b2fa: 6f f0 ef bc  	j	0x1a6c8 <_vfprintf_r+0x37c>
   1b2fe: 93 f7 0d 01  	andi	a5, s11, 0x10
   1b302: e3 96 07 a4  	bnez	a5, 0x1ad4e <_vfprintf_r+0xa02>
   1b306: 93 f7 0d 04  	andi	a5, s11, 0x40
   1b30a: 63 9b 07 66  	bnez	a5, 0x1b980 <_vfprintf_r+0x1634>
   1b30e: 13 fe 0d 20  	andi	t3, s11, 0x200
   1b312: c2 67        	ld	a5, 0x10(sp)
   1b314: e3 0c 0e 20  	beqz	t3, 0x1bd2c <_vfprintf_r+0x19e0>
   1b318: 23 00 f7 00  	sb	a5, 0x0(a4)
   1b31c: 1d bc        	j	0x1ad52 <_vfprintf_r+0xa06>
   1b31e: 82 77        	ld	a5, 0x20(sp)
   1b320: 84 63        	ld	s1, 0x0(a5)
   1b322: 6f f0 cf b9  	j	0x1a6be <_vfprintf_r+0x372>
   1b326: 82 77        	ld	a5, 0x20(sp)
   1b328: 13 8c f7 00  	addi	s8, a5, 0xf
   1b32c: 13 7c 0c ff  	andi	s8, s8, -0x10
   1b330: 93 07 0c 01  	addi	a5, s8, 0x10
   1b334: 03 37 0c 00  	ld	a4, 0x0(s8)
   1b338: 83 35 8c 00  	ld	a1, 0x8(s8)
   1b33c: 3e f0        	sd	a5, 0x20(sp)
   1b33e: 6f f0 cf bf  	j	0x1a73a <_vfprintf_r+0x3ee>
   1b342: 3a f0        	sd	a4, 0x20(sp)
   1b344: a5 47        	li	a5, 0x9
   1b346: ee 8c        	mv	s9, s11
   1b348: e3 fe 97 c8  	bgeu	a5, s1, 0x1afe4 <_vfprintf_r+0xc98>
   1b34c: f4 0a        	addi	a3, sp, 0x15c
   1b34e: 8a 68        	ld	a7, 0x80(sp)
   1b350: 13 f7 0c 40  	andi	a4, s9, 0x400
   1b354: 01 46        	li	a2, 0x0
   1b356: b6 85        	mv	a1, a3
   1b358: a9 4d        	li	s11, 0xa
   1b35a: 25 48        	li	a6, 0x9
   1b35c: 13 0c f0 0f  	li	s8, 0xff
   1b360: 39 a0        	j	0x1b36e <_vfprintf_r+0x1022>
   1b362: b3 d7 b4 03  	divu	a5, s1, s11
   1b366: 63 76 98 02  	bgeu	a6, s1, 0x1b392 <_vfprintf_r+0x1046>
   1b36a: be 84        	mv	s1, a5
   1b36c: ea 85        	mv	a1, s10
   1b36e: 13 8d f5 ff  	addi	s10, a1, -0x1
   1b372: 05 26        	addiw	a2, a2, 0x1
   1b374: b3 f7 b4 03  	remu	a5, s1, s11
   1b378: 9b 87 07 03  	addiw	a5, a5, 0x30
   1b37c: a3 8f f5 fe  	sb	a5, -0x1(a1)
   1b380: 6d d3        	beqz	a4, 0x1b362 <_vfprintf_r+0x1016>
   1b382: 83 c7 08 00  	lbu	a5, 0x0(a7)
   1b386: e3 1e f6 fc  	bne	a2, a5, 0x1b362 <_vfprintf_r+0x1016>
   1b38a: e3 8c 87 fd  	beq	a5, s8, 0x1b362 <_vfprintf_r+0x1016>
   1b38e: 63 67 98 3e  	bltu	a6, s1, 0x1b77c <_vfprintf_r+0x1430>
   1b392: 32 fc        	sd	a2, 0x38(sp)
   1b394: 46 e1        	sd	a7, 0x80(sp)
   1b396: bb 86 a6 41  	subw	a3, a3, s10
   1b39a: e6 8d        	mv	s11, s9
   1b39c: 6f f0 af ae  	j	0x1a686 <_vfprintf_r+0x33a>
   1b3a0: 1b 0b 07 00  	sext.w	s6, a4
   1b3a4: e3 41 60 db  	bgtz	s6, 0x1b146 <_vfprintf_r+0xdfa>
   1b3a8: 6d bb        	j	0x1b162 <_vfprintf_r+0xe16>
   1b3aa: 7d 5b        	li	s6, -0x1
   1b3ac: ba 89        	mv	s3, a4
   1b3ae: 6f f0 ef 8c  	j	0x1a47c <_vfprintf_r+0x130>
   1b3b2: ee 8c        	mv	s9, s11
   1b3b4: e9 b0        	j	0x1ac7e <_vfprintf_r+0x932>
   1b3b6: b7 17 02 00  	lui	a5, 0x21
   1b3ba: 93 87 87 44  	addi	a5, a5, 0x448
   1b3be: be f0        	sd	a5, 0x60(sp)
   1b3c0: 82 76        	ld	a3, 0x20(sp)
   1b3c2: 93 f7 0d 02  	andi	a5, s11, 0x20
   1b3c6: 13 87 86 00  	addi	a4, a3, 0x8
   1b3ca: 63 89 07 14  	beqz	a5, 0x1b51c <_vfprintf_r+0x11d0>
   1b3ce: 84 62        	ld	s1, 0x0(a3)
   1b3d0: 93 f7 1d 00  	andi	a5, s11, 0x1
   1b3d4: 81 cf        	beqz	a5, 0x1b3ec <_vfprintf_r+0x10a0>
   1b3d6: 99 c8        	beqz	s1, 0x1b3ec <_vfprintf_r+0x10a0>
   1b3d8: 13 ee 2d 00  	ori	t3, s11, 0x2
   1b3dc: 93 07 00 03  	li	a5, 0x30
   1b3e0: 23 08 f1 0a  	sb	a5, 0xb0(sp)
   1b3e4: a3 08 61 0a  	sb	t1, 0xb1(sp)
   1b3e8: 9b 0d 0e 00  	sext.w	s11, t3
   1b3ec: 93 fc fd bf  	andi	s9, s11, -0x401
   1b3f0: 81 2c        	sext.w	s9, s9
   1b3f2: 3a f0        	sd	a4, 0x20(sp)
   1b3f4: 89 47        	li	a5, 0x2
   1b3f6: 6f f0 2f ad  	j	0x1a6c8 <_vfprintf_r+0x37c>
   1b3fa: b7 17 02 00  	lui	a5, 0x21
   1b3fe: 93 87 07 43  	addi	a5, a5, 0x430
   1b402: be f0        	sd	a5, 0x60(sp)
   1b404: 75 bf        	j	0x1b3c0 <_vfprintf_r+0x1074>
   1b406: 93 ed 0d 20  	ori	s11, s11, 0x200
   1b40a: 03 c3 19 00  	lbu	t1, 0x1(s3)
   1b40e: 81 2d        	sext.w	s11, s11
   1b410: 85 09        	addi	s3, s3, 0x1
   1b412: 6f f0 6f 86  	j	0x1a478 <_vfprintf_r+0x12c>
   1b416: 93 ed 0d 02  	ori	s11, s11, 0x20
   1b41a: 03 c3 19 00  	lbu	t1, 0x1(s3)
   1b41e: 81 2d        	sext.w	s11, s11
   1b420: 85 09        	addi	s3, s3, 0x1
   1b422: 6f f0 6f 85  	j	0x1a478 <_vfprintf_r+0x12c>
   1b426: 22 65        	ld	a0, 0x8(sp)
   1b428: 90 11        	addi	a2, sp, 0xe0
   1b42a: ca 85        	mv	a1, s2
   1b42c: ef 00 70 3f  	jal	0x1c022 <__sprint_r>
   1b430: e3 1b 05 b8  	bnez	a0, 0x1afc6 <_vfprintf_r+0xc7a>
   1b434: ce 74        	ld	s1, 0xf0(sp)
   1b436: 52 84        	mv	s0, s4
   1b438: 4d ba        	j	0x1adea <_vfprintf_r+0xa9e>
   1b43a: 99 47        	li	a5, 0x6
   1b43c: 9b 06 0b 00  	sext.w	a3, s6
   1b440: 63 ee 67 51  	bltu	a5, s6, 0x1b95c <_vfprintf_r+0x1610>
   1b444: b7 17 02 00  	lui	a5, 0x21
   1b448: 36 8c        	mv	s8, a3
   1b44a: 26 f0        	sd	s1, 0x20(sp)
   1b44c: 13 8d 07 46  	addi	s10, a5, 0x460
   1b450: 6f f0 2f 89  	j	0x1a4e2 <_vfprintf_r+0x196>
   1b454: b7 28 02 00  	lui	a7, 0x22
   1b458: c1 46        	li	a3, 0x10
   1b45a: 2e 57        	lw	a4, 0xe8(sp)
   1b45c: 93 88 08 a9  	addi	a7, a7, -0x570
   1b460: 63 d7 66 2f  	bge	a3, s6, 0x1b74e <_vfprintf_r+0x1402>
   1b464: c1 46        	li	a3, 0x10
   1b466: 1d 43        	li	t1, 0x7
   1b468: c6 8c        	mv	s9, a7
   1b46a: 21 a0        	j	0x1b472 <_vfprintf_r+0x1126>
   1b46c: 41 3b        	addiw	s6, s6, -0x10
   1b46e: 63 df 66 2d  	bge	a3, s6, 0x1b74c <_vfprintf_r+0x1400>
   1b472: 05 27        	addiw	a4, a4, 0x1
   1b474: c1 04        	addi	s1, s1, 0x10
   1b476: 23 30 94 01  	sd	s9, 0x0(s0)
   1b47a: 14 e4        	sd	a3, 0x8(s0)
   1b47c: a6 f9        	sd	s1, 0xf0(sp)
   1b47e: ba d5        	sw	a4, 0xe8(sp)
   1b480: 41 04        	addi	s0, s0, 0x10
   1b482: e3 55 e3 fe  	bge	t1, a4, 0x1b46c <_vfprintf_r+0x1120>
   1b486: 22 65        	ld	a0, 0x8(sp)
   1b488: 90 11        	addi	a2, sp, 0xe0
   1b48a: ca 85        	mv	a1, s2
   1b48c: ef 00 70 39  	jal	0x1c022 <__sprint_r>
   1b490: e3 1b 05 b2  	bnez	a0, 0x1afc6 <_vfprintf_r+0xc7a>
   1b494: ce 74        	ld	s1, 0xf0(sp)
   1b496: 2e 57        	lw	a4, 0xe8(sp)
   1b498: 52 84        	mv	s0, s4
   1b49a: 1d 43        	li	t1, 0x7
   1b49c: c1 46        	li	a3, 0x10
   1b49e: f9 b7        	j	0x1b46c <_vfprintf_r+0x1120>
   1b4a0: ae 56        	lw	a3, 0xe8(sp)
   1b4a2: c6 67        	ld	a5, 0x50(sp)
   1b4a4: 66 66        	ld	a2, 0x58(sp)
   1b4a6: 41 04        	addi	s0, s0, 0x10
   1b4a8: be 94        	add	s1, s1, a5
   1b4aa: 23 38 c4 fe  	sd	a2, -0x10(s0)
   1b4ae: 1b 86 16 00  	addiw	a2, a3, 0x1
   1b4b2: 23 3c f4 fe  	sd	a5, -0x8(s0)
   1b4b6: a6 f9        	sd	s1, 0xf0(sp)
   1b4b8: b2 d5        	sw	a2, 0xe8(sp)
   1b4ba: 9d 46        	li	a3, 0x7
   1b4bc: e3 dc c6 cc  	bge	a3, a2, 0x1b194 <_vfprintf_r+0xe48>
   1b4c0: 22 65        	ld	a0, 0x8(sp)
   1b4c2: 90 11        	addi	a2, sp, 0xe0
   1b4c4: ca 85        	mv	a1, s2
   1b4c6: 1a f8        	sd	t1, 0x30(sp)
   1b4c8: ef 00 b0 35  	jal	0x1c022 <__sprint_r>
   1b4cc: e3 1d 05 ae  	bnez	a0, 0x1afc6 <_vfprintf_r+0xc7a>
   1b4d0: 6a 57        	lw	a4, 0xb8(sp)
   1b4d2: ce 74        	ld	s1, 0xf0(sp)
   1b4d4: 42 73        	ld	t1, 0x30(sp)
   1b4d6: 52 84        	mv	s0, s4
   1b4d8: 75 b9        	j	0x1b194 <_vfprintf_r+0xe48>
   1b4da: 93 07 80 07  	li	a5, 0x78
   1b4de: 93 06 00 03  	li	a3, 0x30
   1b4e2: 13 e7 2d 00  	ori	a4, s11, 0x2
   1b4e6: a3 08 f1 0a  	sb	a5, 0xb1(sp)
   1b4ea: 23 08 d1 0a  	sb	a3, 0xb0(sp)
   1b4ee: 93 07 30 06  	li	a5, 0x63
   1b4f2: 01 27        	sext.w	a4, a4
   1b4f4: 63 c5 67 4d  	blt	a5, s6, 0x1b9be <_vfprintf_r+0x1672>
   1b4f8: ce 67        	ld	a5, 0xd0(sp)
   1b4fa: ee 6c        	ld	s9, 0xd8(sp)
   1b4fc: 13 ee 2d 10  	ori	t3, s11, 0x102
   1b500: 3e f8        	sd	a5, 0x30(sp)
   1b502: 9b 04 0e 00  	sext.w	s1, t3
   1b506: 63 c5 0c 62  	bltz	s9, 0x1bb30 <_vfprintf_r+0x17e4>
   1b50a: 9b 06 f3 fb  	addiw	a3, t1, -0x41
   1b50e: ba 8d        	mv	s11, a4
   1b510: 82 f4        	sd	zero, 0x68(sp)
   1b512: 02 ec        	sd	zero, 0x18(sp)
   1b514: 13 0d 81 0f  	addi	s10, sp, 0xf8
   1b518: 6f f0 af a9  	j	0x1a7b2 <_vfprintf_r+0x466>
   1b51c: 93 f7 0d 01  	andi	a5, s11, 0x10
   1b520: d9 c7        	beqz	a5, 0x1b5ae <_vfprintf_r+0x1262>
   1b522: 82 77        	ld	a5, 0x20(sp)
   1b524: 84 63        	ld	s1, 0x0(a5)
   1b526: 6d b5        	j	0x1b3d0 <_vfprintf_r+0x1084>
   1b528: 22 65        	ld	a0, 0x8(sp)
   1b52a: 90 11        	addi	a2, sp, 0xe0
   1b52c: ca 85        	mv	a1, s2
   1b52e: ef 00 50 2f  	jal	0x1c022 <__sprint_r>
   1b532: e3 1a 05 a8  	bnez	a0, 0x1afc6 <_vfprintf_r+0xc7a>
   1b536: ce 74        	ld	s1, 0xf0(sp)
   1b538: 2e 5b        	lw	s6, 0xe8(sp)
   1b53a: d2 8c        	mv	s9, s4
   1b53c: 6f f0 ef d2  	j	0x1aa6a <_vfprintf_r+0x71e>
   1b540: 22 65        	ld	a0, 0x8(sp)
   1b542: 90 11        	addi	a2, sp, 0xe0
   1b544: ca 85        	mv	a1, s2
   1b546: ef 00 d0 2d  	jal	0x1c022 <__sprint_r>
   1b54a: e3 1e 05 a6  	bnez	a0, 0x1afc6 <_vfprintf_r+0xc7a>
   1b54e: ce 74        	ld	s1, 0xf0(sp)
   1b550: 2e 5b        	lw	s6, 0xe8(sp)
   1b552: d2 8c        	mv	s9, s4
   1b554: 6f f0 2f d3  	j	0x1aa86 <_vfprintf_r+0x73a>
   1b558: ae 56        	lw	a3, 0xe8(sp)
   1b55a: 37 16 02 00  	lui	a2, 0x21
   1b55e: 13 06 86 46  	addi	a2, a2, 0x468
   1b562: 85 26        	addiw	a3, a3, 0x1
   1b564: 10 e0        	sd	a2, 0x0(s0)
   1b566: 85 04        	addi	s1, s1, 0x1
   1b568: 05 46        	li	a2, 0x1
   1b56a: 10 e4        	sd	a2, 0x8(s0)
   1b56c: b6 d5        	sw	a3, 0xe8(sp)
   1b56e: 1b 86 06 00  	sext.w	a2, a3
   1b572: a6 f9        	sd	s1, 0xf0(sp)
   1b574: 9d 46        	li	a3, 0x7
   1b576: 41 04        	addi	s0, s0, 0x10
   1b578: 63 c7 c6 3a  	blt	a3, a2, 0x1b926 <_vfprintf_r+0x15da>
   1b57c: 63 14 07 10  	bnez	a4, 0x1b684 <_vfprintf_r+0x1338>
   1b580: e2 77        	ld	a5, 0x38(sp)
   1b582: 13 f7 1d 00  	andi	a4, s11, 0x1
   1b586: 5d 8f        	or	a4, a4, a5
   1b588: 19 e3        	bnez	a4, 0x1b58e <_vfprintf_r+0x1242>
   1b58a: 6f e0 7f ff  	j	0x1a580 <_vfprintf_r+0x234>
   1b58e: 2e 57        	lw	a4, 0xe8(sp)
   1b590: c6 67        	ld	a5, 0x50(sp)
   1b592: e6 66        	ld	a3, 0x58(sp)
   1b594: 33 86 97 00  	add	a2, a5, s1
   1b598: 14 e0        	sd	a3, 0x0(s0)
   1b59a: 9b 06 17 00  	addiw	a3, a4, 0x1
   1b59e: 1c e4        	sd	a5, 0x8(s0)
   1b5a0: b2 f9        	sd	a2, 0xf0(sp)
   1b5a2: b6 d5        	sw	a3, 0xe8(sp)
   1b5a4: 1d 47        	li	a4, 0x7
   1b5a6: 63 40 d7 40  	blt	a4, a3, 0x1b9a6 <_vfprintf_r+0x165a>
   1b5aa: 41 04        	addi	s0, s0, 0x10
   1b5ac: fd a8        	j	0x1b6aa <_vfprintf_r+0x135e>
   1b5ae: 82 76        	ld	a3, 0x20(sp)
   1b5b0: 93 f7 0d 04  	andi	a5, s11, 0x40
   1b5b4: 84 42        	lw	s1, 0x0(a3)
   1b5b6: 63 86 07 16  	beqz	a5, 0x1b722 <_vfprintf_r+0x13d6>
   1b5ba: c2 14        	slli	s1, s1, 0x30
   1b5bc: c1 90        	srli	s1, s1, 0x30
   1b5be: 09 bd        	j	0x1b3d0 <_vfprintf_r+0x1084>
   1b5c0: 22 65        	ld	a0, 0x8(sp)
   1b5c2: ef b0 5f f6  	jal	0x17526 <__sinit>
   1b5c6: 6f e0 1f dc  	j	0x1a386 <_vfprintf_r+0x3a>
   1b5ca: 22 65        	ld	a0, 0x8(sp)
   1b5cc: 90 11        	addi	a2, sp, 0xe0
   1b5ce: ca 85        	mv	a1, s2
   1b5d0: ef 00 30 25  	jal	0x1c022 <__sprint_r>
   1b5d4: e3 19 05 9e  	bnez	a0, 0x1afc6 <_vfprintf_r+0xc7a>
   1b5d8: ce 74        	ld	s1, 0xf0(sp)
   1b5da: 52 84        	mv	s0, s4
   1b5dc: 6f f0 8f fe  	j	0x1adc4 <_vfprintf_r+0xa78>
   1b5e0: da 88        	mv	a7, s6
   1b5e2: 4e 8b        	mv	s6, s3
   1b5e4: c2 79        	ld	s3, 0x30(sp)
   1b5e6: 1b 87 17 00  	addiw	a4, a5, 0x1
   1b5ea: 23 30 14 01  	sd	a7, 0x0(s0)
   1b5ee: 23 34 64 01  	sd	s6, 0x8(s0)
   1b5f2: da 94        	add	s1, s1, s6
   1b5f4: a6 f9        	sd	s1, 0xf0(sp)
   1b5f6: ba d5        	sw	a4, 0xe8(sp)
   1b5f8: 9d 47        	li	a5, 0x7
   1b5fa: 63 c4 e7 00  	blt	a5, a4, 0x1b602 <_vfprintf_r+0x12b6>
   1b5fe: 6f e0 1f f8  	j	0x1a57e <_vfprintf_r+0x232>
   1b602: 6f f0 8f cd  	j	0x1aada <_vfprintf_r+0x78e>
   1b606: 3a f0        	sd	a4, 0x20(sp)
   1b608: d9 ba        	j	0x1afde <_vfprintf_r+0xc92>
   1b60a: 4e 65        	ld	a0, 0xd0(sp)
   1b60c: ee 65        	ld	a1, 0xd8(sp)
   1b60e: 01 46        	li	a2, 0x0
   1b610: 81 46        	li	a3, 0x0
   1b612: ef 40 20 53  	jal	0x1fb44 <__lttf2>
   1b616: 62 63        	ld	t1, 0x18(sp)
   1b618: 63 48 05 54  	bltz	a0, 0x1bb68 <_vfprintf_r+0x181c>
   1b61c: 03 47 f1 0a  	lbu	a4, 0xaf(sp)
   1b620: 93 07 70 04  	li	a5, 0x47
   1b624: 63 dc 67 30  	bge	a5, t1, 0x1b93c <_vfprintf_r+0x15f0>
   1b628: b7 17 02 00  	lui	a5, 0x21
   1b62c: 13 8d 87 41  	addi	s10, a5, 0x418
   1b630: 13 fe fd f7  	andi	t3, s11, -0x81
   1b634: 02 ec        	sd	zero, 0x18(sp)
   1b636: 82 e4        	sd	zero, 0x48(sp)
   1b638: 82 e0        	sd	zero, 0x40(sp)
   1b63a: 02 f8        	sd	zero, 0x30(sp)
   1b63c: 9b 0d 0e 00  	sext.w	s11, t3
   1b640: 0d 4c        	li	s8, 0x3
   1b642: 8d 46        	li	a3, 0x3
   1b644: 01 4b        	li	s6, 0x0
   1b646: 19 c3        	beqz	a4, 0x1b64c <_vfprintf_r+0x1300>
   1b648: 6f f0 af 85  	j	0x1a6a2 <_vfprintf_r+0x356>
   1b64c: 6f e0 1f ea  	j	0x1a4ec <_vfprintf_r+0x1a0>
   1b650: 6a 85        	mv	a0, s10
   1b652: 9a f4        	sd	t1, 0x68(sp)
   1b654: ef d0 2f 95  	jal	0x187a6 <strlen>
   1b658: 9b 06 05 00  	sext.w	a3, a0
   1b65c: 03 47 f1 0a  	lbu	a4, 0xaf(sp)
   1b660: 13 c8 f6 ff  	not	a6, a3
   1b664: 13 58 f8 43  	srai	a6, a6, 0x3f
   1b668: 26 f0        	sd	s1, 0x20(sp)
   1b66a: 02 ec        	sd	zero, 0x18(sp)
   1b66c: 82 e4        	sd	zero, 0x48(sp)
   1b66e: 82 e0        	sd	zero, 0x40(sp)
   1b670: 02 f8        	sd	zero, 0x30(sp)
   1b672: 26 73        	ld	t1, 0x68(sp)
   1b674: 33 7c d8 00  	and	s8, a6, a3
   1b678: 01 4b        	li	s6, 0x0
   1b67a: 19 c3        	beqz	a4, 0x1b680 <_vfprintf_r+0x1334>
   1b67c: 6f f0 6f 82  	j	0x1a6a2 <_vfprintf_r+0x356>
   1b680: 6f e0 df e6  	j	0x1a4ec <_vfprintf_r+0x1a0>
   1b684: ae 55        	lw	a1, 0xe8(sp)
   1b686: c6 67        	ld	a5, 0x50(sp)
   1b688: e6 66        	ld	a3, 0x58(sp)
   1b68a: 41 04        	addi	s0, s0, 0x10
   1b68c: 33 86 97 00  	add	a2, a5, s1
   1b690: 23 38 d4 fe  	sd	a3, -0x10(s0)
   1b694: 9b 86 15 00  	addiw	a3, a1, 0x1
   1b698: 23 3c f4 fe  	sd	a5, -0x8(s0)
   1b69c: b2 f9        	sd	a2, 0xf0(sp)
   1b69e: b6 d5        	sw	a3, 0xe8(sp)
   1b6a0: 9d 45        	li	a1, 0x7
   1b6a2: 63 c2 d5 30  	blt	a1, a3, 0x1b9a6 <_vfprintf_r+0x165a>
   1b6a6: 63 4b 07 54  	bltz	a4, 0x1bbfc <_vfprintf_r+0x18b0>
   1b6aa: e2 77        	ld	a5, 0x38(sp)
   1b6ac: 1b 87 16 00  	addiw	a4, a3, 0x1
   1b6b0: 23 30 a4 01  	sd	s10, 0x0(s0)
   1b6b4: b3 84 c7 00  	add	s1, a5, a2
   1b6b8: 1c e4        	sd	a5, 0x8(s0)
   1b6ba: a6 f9        	sd	s1, 0xf0(sp)
   1b6bc: ba d5        	sw	a4, 0xe8(sp)
   1b6be: 9d 47        	li	a5, 0x7
   1b6c0: 63 c4 e7 00  	blt	a5, a4, 0x1b6c8 <_vfprintf_r+0x137c>
   1b6c4: 6f e0 bf eb  	j	0x1a57e <_vfprintf_r+0x232>
   1b6c8: 6f f0 2f c1  	j	0x1aada <_vfprintf_r+0x78e>
   1b6cc: ce 88        	mv	a7, s3
   1b6ce: c2 79        	ld	s3, 0x30(sp)
   1b6d0: 05 2b        	addiw	s6, s6, 0x1
   1b6d2: a2 94        	add	s1, s1, s0
   1b6d4: 23 b0 1c 01  	sd	a7, 0x0(s9)
   1b6d8: 23 b4 8c 00  	sd	s0, 0x8(s9)
   1b6dc: a6 f9        	sd	s1, 0xf0(sp)
   1b6de: da d5        	sw	s6, 0xe8(sp)
   1b6e0: 9d 47        	li	a5, 0x7
   1b6e2: 63 da 67 bd  	bge	a5, s6, 0x1aab6 <_vfprintf_r+0x76a>
   1b6e6: b1 be        	j	0x1b242 <_vfprintf_r+0xef6>
   1b6e8: 93 f7 0d 20  	andi	a5, s11, 0x200
   1b6ec: 63 86 07 28  	beqz	a5, 0x1b978 <_vfprintf_r+0x162c>
   1b6f0: 93 f4 f4 0f  	andi	s1, s1, 0xff
   1b6f4: 6f e0 bf fc  	j	0x1a6be <_vfprintf_r+0x372>
   1b6f8: 93 f7 0d 20  	andi	a5, s11, 0x200
   1b6fc: 63 8b 07 26  	beqz	a5, 0x1b972 <_vfprintf_r+0x1626>
   1b700: 9b 94 84 01  	slliw	s1, s1, 0x18
   1b704: 9b d4 84 41  	sraiw	s1, s1, 0x18
   1b708: a6 87        	mv	a5, s1
   1b70a: 6f e0 7f f5  	j	0x1a660 <_vfprintf_r+0x314>
   1b70e: 93 f7 0c 20  	andi	a5, s9, 0x200
   1b712: 63 8a 07 24  	beqz	a5, 0x1b966 <_vfprintf_r+0x161a>
   1b716: 93 f4 f4 0f  	andi	s1, s1, 0xff
   1b71a: 3a f0        	sd	a4, 0x20(sp)
   1b71c: 85 47        	li	a5, 0x1
   1b71e: 6f e0 bf fa  	j	0x1a6c8 <_vfprintf_r+0x37c>
   1b722: 93 f7 0d 20  	andi	a5, s11, 0x200
   1b726: 63 8d 07 22  	beqz	a5, 0x1b960 <_vfprintf_r+0x1614>
   1b72a: 93 f4 f4 0f  	andi	s1, s1, 0xff
   1b72e: 4d b1        	j	0x1b3d0 <_vfprintf_r+0x1084>
   1b730: ee 67        	ld	a5, 0xd8(sp)
   1b732: 63 c3 07 26  	bltz	a5, 0x1b998 <_vfprintf_r+0x164c>
   1b736: 03 47 f1 0a  	lbu	a4, 0xaf(sp)
   1b73a: 93 07 70 04  	li	a5, 0x47
   1b73e: 63 ca 67 4a  	blt	a5, t1, 0x1bbf2 <_vfprintf_r+0x18a6>
   1b742: b7 17 02 00  	lui	a5, 0x21
   1b746: 13 8d 07 42  	addi	s10, a5, 0x420
   1b74a: dd b5        	j	0x1b630 <_vfprintf_r+0x12e4>
   1b74c: e6 88        	mv	a7, s9
   1b74e: 9b 06 17 00  	addiw	a3, a4, 0x1
   1b752: da 94        	add	s1, s1, s6
   1b754: 23 30 14 01  	sd	a7, 0x0(s0)
   1b758: 23 34 64 01  	sd	s6, 0x8(s0)
   1b75c: a6 f9        	sd	s1, 0xf0(sp)
   1b75e: b6 d5        	sw	a3, 0xe8(sp)
   1b760: 1d 47        	li	a4, 0x7
   1b762: 41 04        	addi	s0, s0, 0x10
   1b764: e3 59 d7 a0  	bge	a4, a3, 0x1b176 <_vfprintf_r+0xe2a>
   1b768: 22 65        	ld	a0, 0x8(sp)
   1b76a: 90 11        	addi	a2, sp, 0xe0
   1b76c: ca 85        	mv	a1, s2
   1b76e: ef 00 50 0b  	jal	0x1c022 <__sprint_r>
   1b772: e3 1a 05 84  	bnez	a0, 0x1afc6 <_vfprintf_r+0xc7a>
   1b776: ce 74        	ld	s1, 0xf0(sp)
   1b778: 52 84        	mv	s0, s4
   1b77a: f5 ba        	j	0x1b176 <_vfprintf_r+0xe2a>
   1b77c: aa 67        	ld	a5, 0x88(sp)
   1b77e: e6 75        	ld	a1, 0x78(sp)
   1b780: b6 e0        	sd	a3, 0x40(sp)
   1b782: 33 0d fd 40  	sub	s10, s10, a5
   1b786: 3e 86        	mv	a2, a5
   1b788: 6a 85        	mv	a0, s10
   1b78a: 3a fc        	sd	a4, 0x38(sp)
   1b78c: 1a f8        	sd	t1, 0x30(sp)
   1b78e: 46 ec        	sd	a7, 0x18(sp)
   1b790: ef 10 d0 59  	jal	0x1d52c <strncpy>
   1b794: e2 68        	ld	a7, 0x18(sp)
   1b796: a9 47        	li	a5, 0xa
   1b798: b3 d7 f4 02  	divu	a5, s1, a5
   1b79c: 03 c6 18 00  	lbu	a2, 0x1(a7)
   1b7a0: 42 73        	ld	t1, 0x30(sp)
   1b7a2: 62 77        	ld	a4, 0x38(sp)
   1b7a4: 33 36 c0 00  	snez	a2, a2
   1b7a8: b2 98        	add	a7, a7, a2
   1b7aa: 86 66        	ld	a3, 0x40(sp)
   1b7ac: 01 46        	li	a2, 0x0
   1b7ae: 25 48        	li	a6, 0x9
   1b7b0: 6d be        	j	0x1b36a <_vfprintf_r+0x101e>
   1b7b2: e2 77        	ld	a5, 0x38(sp)
   1b7b4: 86 6c        	ld	s9, 0x40(sp)
   1b7b6: b7 28 02 00  	lui	a7, 0x22
   1b7ba: b3 05 fd 00  	add	a1, s10, a5
   1b7be: ce f4        	sd	s3, 0x68(sp)
   1b7c0: 6e e9        	sd	s11, 0x90(sp)
   1b7c2: 5e ed        	sd	s7, 0x98(sp)
   1b7c4: a6 6d        	ld	s11, 0x48(sp)
   1b7c6: e2 e0        	sd	s8, 0x40(sp)
   1b7c8: ea e4        	sd	s10, 0x48(sp)
   1b7ca: 26 86        	mv	a2, s1
   1b7cc: aa 6b        	ld	s7, 0x88(sp)
   1b7ce: 0a 6c        	ld	s8, 0x80(sp)
   1b7d0: a2 69        	ld	s3, 0x8(sp)
   1b7d2: 9d 46        	li	a3, 0x7
   1b7d4: 41 47        	li	a4, 0x10
   1b7d6: 13 8b 08 a9  	addi	s6, a7, -0x570
   1b7da: a2 87        	mv	a5, s0
   1b7dc: 1a 8d        	mv	s10, t1
   1b7de: ae 84        	mv	s1, a1
   1b7e0: 63 5d 90 07  	blez	s9, 0x1b85a <_vfprintf_r+0x150e>
   1b7e4: 63 52 b0 11  	blez	s11, 0x1b8e8 <_vfprintf_r+0x159c>
   1b7e8: fd 3d        	addiw	s11, s11, -0x1
   1b7ea: ae 55        	lw	a1, 0xe8(sp)
   1b7ec: 66 75        	ld	a0, 0x78(sp)
   1b7ee: 5e 96        	add	a2, a2, s7
   1b7f0: 23 b4 77 01  	sd	s7, 0x8(a5)
   1b7f4: 88 e3        	sd	a0, 0x0(a5)
   1b7f6: 1b 85 15 00  	addiw	a0, a1, 0x1
   1b7fa: b2 f9        	sd	a2, 0xf0(sp)
   1b7fc: aa d5        	sw	a0, 0xe8(sp)
   1b7fe: c1 07        	addi	a5, a5, 0x10
   1b800: 63 c7 a6 0e  	blt	a3, a0, 0x1b8ee <_vfprintf_r+0x15a2>
   1b804: 83 45 0c 00  	lbu	a1, 0x0(s8)
   1b808: 33 8f a4 41  	sub	t5, s1, s10
   1b80c: 1b 05 0f 00  	sext.w	a0, t5
   1b810: 1b 88 05 00  	sext.w	a6, a1
   1b814: 63 d3 a5 00  	bge	a1, a0, 0x1b81a <_vfprintf_r+0x14ce>
   1b818: 42 8f        	mv	t5, a6
   1b81a: 1b 04 0f 00  	sext.w	s0, t5
   1b81e: 63 52 80 02  	blez	s0, 0x1b842 <_vfprintf_r+0x14f6>
   1b822: ae 55        	lw	a1, 0xe8(sp)
   1b824: 22 96        	add	a2, a2, s0
   1b826: 23 b0 a7 01  	sd	s10, 0x0(a5)
   1b82a: 1b 85 15 00  	addiw	a0, a1, 0x1
   1b82e: 80 e7        	sd	s0, 0x8(a5)
   1b830: b2 f9        	sd	a2, 0xf0(sp)
   1b832: aa d5        	sw	a0, 0xe8(sp)
   1b834: 63 c9 a6 0c  	blt	a3, a0, 0x1b906 <_vfprintf_r+0x15ba>
   1b838: 83 45 0c 00  	lbu	a1, 0x0(s8)
   1b83c: c1 07        	addi	a5, a5, 0x10
   1b83e: 1b 88 05 00  	sext.w	a6, a1
   1b842: 13 45 f4 ff  	not	a0, s0
   1b846: 7d 95        	srai	a0, a0, 0x3f
   1b848: 33 7f a4 00  	and	t5, s0, a0
   1b84c: 3b 04 e8 41  	subw	s0, a6, t5
   1b850: 63 47 80 02  	bgtz	s0, 0x1b87e <_vfprintf_r+0x1532>
   1b854: 2e 9d        	add	s10, s10, a1
   1b856: e3 47 90 f9  	bgtz	s9, 0x1b7e4 <_vfprintf_r+0x1498>
   1b85a: e3 47 b0 f9  	bgtz	s11, 0x1b7e8 <_vfprintf_r+0x149c>
   1b85e: 6a 83        	mv	t1, s10
   1b860: 3e 84        	mv	s0, a5
   1b862: 26 6d        	ld	s10, 0x48(sp)
   1b864: e2 77        	ld	a5, 0x38(sp)
   1b866: 62 e1        	sd	s8, 0x80(sp)
   1b868: a6 79        	ld	s3, 0x68(sp)
   1b86a: 33 07 fd 00  	add	a4, s10, a5
   1b86e: ca 6d        	ld	s11, 0x90(sp)
   1b870: ea 6b        	ld	s7, 0x98(sp)
   1b872: 06 6c        	ld	s8, 0x40(sp)
   1b874: b2 84        	mv	s1, a2
   1b876: e3 77 67 90  	bgeu	a4, t1, 0x1b184 <_vfprintf_r+0xe38>
   1b87a: 3a 83        	mv	t1, a4
   1b87c: 21 b2        	j	0x1b184 <_vfprintf_r+0xe38>
   1b87e: 37 2f 02 00  	lui	t5, 0x22
   1b882: ae 55        	lw	a1, 0xe8(sp)
   1b884: 13 0f 0f a9  	addi	t5, t5, -0x570
   1b888: 63 51 87 04  	bge	a4, s0, 0x1b8ca <_vfprintf_r+0x157e>
   1b88c: 5a f8        	sd	s6, 0x30(sp)
   1b88e: 21 a0        	j	0x1b896 <_vfprintf_r+0x154a>
   1b890: 41 34        	addiw	s0, s0, -0x10
   1b892: 63 5b 87 02  	bge	a4, s0, 0x1b8c8 <_vfprintf_r+0x157c>
   1b896: 85 25        	addiw	a1, a1, 0x1
   1b898: 41 06        	addi	a2, a2, 0x10
   1b89a: 23 b0 67 01  	sd	s6, 0x0(a5)
   1b89e: 98 e7        	sd	a4, 0x8(a5)
   1b8a0: b2 f9        	sd	a2, 0xf0(sp)
   1b8a2: ae d5        	sw	a1, 0xe8(sp)
   1b8a4: c1 07        	addi	a5, a5, 0x10
   1b8a6: e3 d5 b6 fe  	bge	a3, a1, 0x1b890 <_vfprintf_r+0x1544>
   1b8aa: 90 11        	addi	a2, sp, 0xe0
   1b8ac: ca 85        	mv	a1, s2
   1b8ae: 4e 85        	mv	a0, s3
   1b8b0: ef 00 20 77  	jal	0x1c022 <__sprint_r>
   1b8b4: 63 19 05 f0  	bnez	a0, 0x1afc6 <_vfprintf_r+0xc7a>
   1b8b8: 41 47        	li	a4, 0x10
   1b8ba: 41 34        	addiw	s0, s0, -0x10
   1b8bc: 4e 76        	ld	a2, 0xf0(sp)
   1b8be: ae 55        	lw	a1, 0xe8(sp)
   1b8c0: d2 87        	mv	a5, s4
   1b8c2: 9d 46        	li	a3, 0x7
   1b8c4: e3 49 87 fc  	blt	a4, s0, 0x1b896 <_vfprintf_r+0x154a>
   1b8c8: 42 7f        	ld	t5, 0x30(sp)
   1b8ca: 1b 85 15 00  	addiw	a0, a1, 0x1
   1b8ce: 22 96        	add	a2, a2, s0
   1b8d0: 23 b0 e7 01  	sd	t5, 0x0(a5)
   1b8d4: 80 e7        	sd	s0, 0x8(a5)
   1b8d6: b2 f9        	sd	a2, 0xf0(sp)
   1b8d8: aa d5        	sw	a0, 0xe8(sp)
   1b8da: 63 c8 a6 26  	blt	a3, a0, 0x1bb4a <_vfprintf_r+0x17fe>
   1b8de: 83 45 0c 00  	lbu	a1, 0x0(s8)
   1b8e2: c1 07        	addi	a5, a5, 0x10
   1b8e4: 2e 9d        	add	s10, s10, a1
   1b8e6: 85 bf        	j	0x1b856 <_vfprintf_r+0x150a>
   1b8e8: 7d 1c        	addi	s8, s8, -0x1
   1b8ea: fd 3c        	addiw	s9, s9, -0x1
   1b8ec: fd bd        	j	0x1b7ea <_vfprintf_r+0x149e>
   1b8ee: 90 11        	addi	a2, sp, 0xe0
   1b8f0: ca 85        	mv	a1, s2
   1b8f2: 4e 85        	mv	a0, s3
   1b8f4: ef 00 e0 72  	jal	0x1c022 <__sprint_r>
   1b8f8: 63 17 05 ec  	bnez	a0, 0x1afc6 <_vfprintf_r+0xc7a>
   1b8fc: 4e 76        	ld	a2, 0xf0(sp)
   1b8fe: d2 87        	mv	a5, s4
   1b900: 41 47        	li	a4, 0x10
   1b902: 9d 46        	li	a3, 0x7
   1b904: 01 b7        	j	0x1b804 <_vfprintf_r+0x14b8>
   1b906: 90 11        	addi	a2, sp, 0xe0
   1b908: ca 85        	mv	a1, s2
   1b90a: 4e 85        	mv	a0, s3
   1b90c: ef 00 60 71  	jal	0x1c022 <__sprint_r>
   1b910: 63 1b 05 ea  	bnez	a0, 0x1afc6 <_vfprintf_r+0xc7a>
   1b914: 83 45 0c 00  	lbu	a1, 0x0(s8)
   1b918: 4e 76        	ld	a2, 0xf0(sp)
   1b91a: d2 87        	mv	a5, s4
   1b91c: 1b 88 05 00  	sext.w	a6, a1
   1b920: 41 47        	li	a4, 0x10
   1b922: 9d 46        	li	a3, 0x7
   1b924: 39 bf        	j	0x1b842 <_vfprintf_r+0x14f6>
   1b926: 22 65        	ld	a0, 0x8(sp)
   1b928: 90 11        	addi	a2, sp, 0xe0
   1b92a: ca 85        	mv	a1, s2
   1b92c: ef 00 60 6f  	jal	0x1c022 <__sprint_r>
   1b930: 63 1b 05 e8  	bnez	a0, 0x1afc6 <_vfprintf_r+0xc7a>
   1b934: 6a 57        	lw	a4, 0xb8(sp)
   1b936: ce 74        	ld	s1, 0xf0(sp)
   1b938: 52 84        	mv	s0, s4
   1b93a: 89 b1        	j	0x1b57c <_vfprintf_r+0x1230>
   1b93c: b7 17 02 00  	lui	a5, 0x21
   1b940: 13 8d 07 41  	addi	s10, a5, 0x410
   1b944: f5 b1        	j	0x1b630 <_vfprintf_r+0x12e4>
   1b946: 22 65        	ld	a0, 0x8(sp)
   1b948: 90 11        	addi	a2, sp, 0xe0
   1b94a: ca 85        	mv	a1, s2
   1b94c: ef 00 60 6d  	jal	0x1c022 <__sprint_r>
   1b950: 63 1b 05 e6  	bnez	a0, 0x1afc6 <_vfprintf_r+0xc7a>
   1b954: ce 74        	ld	s1, 0xf0(sp)
   1b956: 52 84        	mv	s0, s4
   1b958: 6f f0 bf 80  	j	0x1b162 <_vfprintf_r+0xe16>
   1b95c: 99 46        	li	a3, 0x6
   1b95e: dd b4        	j	0x1b444 <_vfprintf_r+0x10f8>
   1b960: 82 14        	slli	s1, s1, 0x20
   1b962: 81 90        	srli	s1, s1, 0x20
   1b964: b5 b4        	j	0x1b3d0 <_vfprintf_r+0x1084>
   1b966: 82 14        	slli	s1, s1, 0x20
   1b968: 81 90        	srli	s1, s1, 0x20
   1b96a: 3a f0        	sd	a4, 0x20(sp)
   1b96c: 85 47        	li	a5, 0x1
   1b96e: 6f e0 bf d5  	j	0x1a6c8 <_vfprintf_r+0x37c>
   1b972: a6 87        	mv	a5, s1
   1b974: 6f e0 df ce  	j	0x1a660 <_vfprintf_r+0x314>
   1b978: 82 14        	slli	s1, s1, 0x20
   1b97a: 81 90        	srli	s1, s1, 0x20
   1b97c: 6f e0 3f d4  	j	0x1a6be <_vfprintf_r+0x372>
   1b980: c2 67        	ld	a5, 0x10(sp)
   1b982: 23 10 f7 00  	sh	a5, 0x0(a4)
   1b986: 6f f0 cf bc  	j	0x1ad52 <_vfprintf_r+0xa06>
   1b98a: 22 65        	ld	a0, 0x8(sp)
   1b98c: 90 11        	addi	a2, sp, 0xe0
   1b98e: ca 85        	mv	a1, s2
   1b990: ef 00 20 69  	jal	0x1c022 <__sprint_r>
   1b994: 6f e0 1f c3  	j	0x1a5c4 <_vfprintf_r+0x278>
   1b998: 93 07 d0 02  	li	a5, 0x2d
   1b99c: a3 07 f1 0a  	sb	a5, 0xaf(sp)
   1b9a0: 13 07 d0 02  	li	a4, 0x2d
   1b9a4: 59 bb        	j	0x1b73a <_vfprintf_r+0x13ee>
   1b9a6: 22 65        	ld	a0, 0x8(sp)
   1b9a8: 90 11        	addi	a2, sp, 0xe0
   1b9aa: ca 85        	mv	a1, s2
   1b9ac: ef 00 60 67  	jal	0x1c022 <__sprint_r>
   1b9b0: 63 1b 05 e0  	bnez	a0, 0x1afc6 <_vfprintf_r+0xc7a>
   1b9b4: 6a 57        	lw	a4, 0xb8(sp)
   1b9b6: 4e 76        	ld	a2, 0xf0(sp)
   1b9b8: ae 56        	lw	a3, 0xe8(sp)
   1b9ba: 52 84        	mv	s0, s4
   1b9bc: ed b1        	j	0x1b6a6 <_vfprintf_r+0x135a>
   1b9be: 22 65        	ld	a0, 0x8(sp)
   1b9c0: 9b 05 1b 00  	addiw	a1, s6, 0x1
   1b9c4: 3a f8        	sd	a4, 0x30(sp)
   1b9c6: 1a ec        	sd	t1, 0x18(sp)
   1b9c8: ef 90 3f d0  	jal	0x156ca <_malloc_r>
   1b9cc: 62 63        	ld	t1, 0x18(sp)
   1b9ce: 42 77        	ld	a4, 0x30(sp)
   1b9d0: 2a 8d        	mv	s10, a0
   1b9d2: 63 06 05 4c  	beqz	a0, 0x1be9e <_vfprintf_r+0x1b52>
   1b9d6: 2a ec        	sd	a0, 0x18(sp)
   1b9d8: ba 8d        	mv	s11, a4
   1b9da: 6f e0 1f db  	j	0x1a78a <_vfprintf_r+0x43e>
   1b9de: c2 75        	ld	a1, 0x30(sp)
   1b9e0: 22 65        	ld	a0, 0x8(sp)
   1b9e2: 5a 87        	mv	a4, s6
   1b9e4: 93 08 81 0c  	addi	a7, sp, 0xc8
   1b9e8: 13 08 c1 0b  	addi	a6, sp, 0xbc
   1b9ec: 3c 19        	addi	a5, sp, 0xb8
   1b9ee: 89 46        	li	a3, 0x2
   1b9f0: 66 86        	mv	a2, s9
   1b9f2: ef 10 50 74  	jal	0x1d936 <_ldtoa_r>
   1b9f6: 62 73        	ld	t1, 0x38(sp)
   1b9f8: 13 07 70 04  	li	a4, 0x47
   1b9fc: 2a 8d        	mv	s10, a0
   1b9fe: 63 18 e3 4a  	bne	t1, a4, 0x1beae <_vfprintf_r+0x1b62>
   1ba02: 13 f7 1d 00  	andi	a4, s11, 0x1
   1ba06: 63 1e 07 1a  	bnez	a4, 0x1bbc2 <_vfprintf_r+0x1876>
   1ba0a: ea 57        	lw	a5, 0xb8(sp)
   1ba0c: 3e f8        	sd	a5, 0x30(sp)
   1ba0e: ae 67        	ld	a5, 0xc8(sp)
   1ba10: bb 87 a7 41  	subw	a5, a5, s10
   1ba14: 3e fc        	sd	a5, 0x38(sp)
   1ba16: c2 77        	ld	a5, 0x30(sp)
   1ba18: 75 57        	li	a4, -0x3
   1ba1a: 63 c4 e7 00  	blt	a5, a4, 0x1ba22 <_vfprintf_r+0x16d6>
   1ba1e: 63 57 fb 0c  	bge	s6, a5, 0x1baec <_vfprintf_r+0x17a0>
   1ba22: c2 77        	ld	a5, 0x30(sp)
   1ba24: 79 33        	addiw	t1, t1, -0x2
   1ba26: 1b 87 f7 ff  	addiw	a4, a5, -0x1
   1ba2a: 3a dd        	sw	a4, 0xb8(sp)
   1ba2c: 93 76 f3 0f  	andi	a3, t1, 0xff
   1ba30: 01 46        	li	a2, 0x0
   1ba32: 6f e0 3f f2  	j	0x1a954 <_vfprintf_r+0x608>
   1ba36: c2 77        	ld	a5, 0x30(sp)
   1ba38: 83 c5 a7 00  	lbu	a1, 0xa(a5)
   1ba3c: a3 8f b6 fe  	sb	a1, -0x1(a3)
   1ba40: 6f e0 5f ee  	j	0x1a924 <_vfprintf_r+0x5d8>
   1ba44: 03 47 f1 0a  	lbu	a4, 0xaf(sp)
   1ba48: 01 4b        	li	s6, 0x0
   1ba4a: 19 c3        	beqz	a4, 0x1ba50 <_vfprintf_r+0x1704>
   1ba4c: 6f e0 7f c5  	j	0x1a6a2 <_vfprintf_r+0x356>
   1ba50: 6f e0 df a9  	j	0x1a4ec <_vfprintf_r+0x1a0>
   1ba54: 5a 87        	mv	a4, s6
   1ba56: 8d 46        	li	a3, 0x3
   1ba58: c2 75        	ld	a1, 0x30(sp)
   1ba5a: 22 65        	ld	a0, 0x8(sp)
   1ba5c: 93 08 81 0c  	addi	a7, sp, 0xc8
   1ba60: 13 08 c1 0b  	addi	a6, sp, 0xbc
   1ba64: 3c 19        	addi	a5, sp, 0xb8
   1ba66: 66 86        	mv	a2, s9
   1ba68: 9a e0        	sd	t1, 0x40(sp)
   1ba6a: 3a fc        	sd	a4, 0x38(sp)
   1ba6c: ef 10 b0 6c  	jal	0x1d936 <_ldtoa_r>
   1ba70: 62 77        	ld	a4, 0x38(sp)
   1ba72: 06 63        	ld	t1, 0x40(sp)
   1ba74: 2a 8d        	mv	s10, a0
   1ba76: 13 7c f3 fd  	andi	s8, t1, -0x21
   1ba7a: 93 06 60 04  	li	a3, 0x46
   1ba7e: 33 08 ed 00  	add	a6, s10, a4
   1ba82: 63 1a dc 00  	bne	s8, a3, 0x1ba96 <_vfprintf_r+0x174a>
   1ba86: 03 46 0d 00  	lbu	a2, 0x0(s10)
   1ba8a: 93 06 00 03  	li	a3, 0x30
   1ba8e: 63 07 d6 30  	beq	a2, a3, 0x1bd9c <_vfprintf_r+0x1a50>
   1ba92: ea 56        	lw	a3, 0xb8(sp)
   1ba94: 36 98        	add	a6, a6, a3
   1ba96: 42 75        	ld	a0, 0x30(sp)
   1ba98: 01 46        	li	a2, 0x0
   1ba9a: 81 46        	li	a3, 0x0
   1ba9c: e6 85        	mv	a1, s9
   1ba9e: c2 e0        	sd	a6, 0x40(sp)
   1baa0: 1a fc        	sd	t1, 0x38(sp)
   1baa2: ef 30 d0 75  	jal	0x1f9fe <__netf2>
   1baa6: 62 73        	ld	t1, 0x38(sp)
   1baa8: 06 68        	ld	a6, 0x40(sp)
   1baaa: 63 01 05 12  	beqz	a0, 0x1bbcc <_vfprintf_r+0x1880>
   1baae: ae 67        	ld	a5, 0xc8(sp)
   1bab0: 63 fc 07 01  	bgeu	a5, a6, 0x1bac8 <_vfprintf_r+0x177c>
   1bab4: 93 06 00 03  	li	a3, 0x30
   1bab8: 13 87 17 00  	addi	a4, a5, 0x1
   1babc: ba e5        	sd	a4, 0xc8(sp)
   1babe: 23 80 d7 00  	sb	a3, 0x0(a5)
   1bac2: ae 67        	ld	a5, 0xc8(sp)
   1bac4: e3 ea 07 ff  	bltu	a5, a6, 0x1bab8 <_vfprintf_r+0x176c>
   1bac8: 6a 57        	lw	a4, 0xb8(sp)
   1baca: 3a f8        	sd	a4, 0x30(sp)
   1bacc: bb 87 a7 41  	subw	a5, a5, s10
   1bad0: 13 07 70 04  	li	a4, 0x47
   1bad4: 3e fc        	sd	a5, 0x38(sp)
   1bad6: e3 00 ec f4  	beq	s8, a4, 0x1ba16 <_vfprintf_r+0x16ca>
   1bada: 13 07 60 04  	li	a4, 0x46
   1bade: 63 0d ec 18  	beq	s8, a4, 0x1bc78 <_vfprintf_r+0x192c>
   1bae2: c2 77        	ld	a5, 0x30(sp)
   1bae4: 1b 87 f7 ff  	addiw	a4, a5, -0x1
   1bae8: 3a dd        	sw	a4, 0xb8(sp)
   1baea: 89 b7        	j	0x1ba2c <_vfprintf_r+0x16e0>
   1baec: e2 77        	ld	a5, 0x38(sp)
   1baee: 42 77        	ld	a4, 0x30(sp)
   1baf0: 63 4d f7 14  	blt	a4, a5, 0x1bc4a <_vfprintf_r+0x18fe>
   1baf4: c2 77        	ld	a5, 0x30(sp)
   1baf6: 13 f7 1d 00  	andi	a4, s11, 0x1
   1bafa: be 86        	mv	a3, a5
   1bafc: 01 c7        	beqz	a4, 0x1bb04 <_vfprintf_r+0x17b8>
   1bafe: 46 67        	ld	a4, 0x50(sp)
   1bb00: bb 06 f7 00  	addw	a3, a4, a5
   1bb04: 13 fe 0d 40  	andi	t3, s11, 0x400
   1bb08: 63 05 0e 00  	beqz	t3, 0x1bb12 <_vfprintf_r+0x17c6>
   1bb0c: c2 77        	ld	a5, 0x30(sp)
   1bb0e: 63 42 f0 22  	bgtz	a5, 0x1bd32 <_vfprintf_r+0x19e6>
   1bb12: 13 c8 f6 ff  	not	a6, a3
   1bb16: 13 58 f8 43  	srai	a6, a6, 0x3f
   1bb1a: 33 f8 06 01  	and	a6, a3, a6
   1bb1e: 1b 0c 08 00  	sext.w	s8, a6
   1bb22: a6 8d        	mv	s11, s1
   1bb24: 13 03 70 06  	li	t1, 0x67
   1bb28: 82 e4        	sd	zero, 0x48(sp)
   1bb2a: 82 e0        	sd	zero, 0x40(sp)
   1bb2c: 6f e0 1f ee  	j	0x1aa0c <_vfprintf_r+0x6c0>
   1bb30: ba 8d        	mv	s11, a4
   1bb32: 02 ec        	sd	zero, 0x18(sp)
   1bb34: 13 0d 81 0f  	addi	s10, sp, 0xf8
   1bb38: 7d 57        	li	a4, -0x1
   1bb3a: 7e 17        	slli	a4, a4, 0x3f
   1bb3c: 93 07 d0 02  	li	a5, 0x2d
   1bb40: b3 cc ec 00  	xor	s9, s9, a4
   1bb44: be f4        	sd	a5, 0x68(sp)
   1bb46: 6f e0 df c5  	j	0x1a7a2 <_vfprintf_r+0x456>
   1bb4a: 90 11        	addi	a2, sp, 0xe0
   1bb4c: ca 85        	mv	a1, s2
   1bb4e: 4e 85        	mv	a0, s3
   1bb50: ef 00 20 4d  	jal	0x1c022 <__sprint_r>
   1bb54: 63 19 05 c6  	bnez	a0, 0x1afc6 <_vfprintf_r+0xc7a>
   1bb58: 83 45 0c 00  	lbu	a1, 0x0(s8)
   1bb5c: 4e 76        	ld	a2, 0xf0(sp)
   1bb5e: d2 87        	mv	a5, s4
   1bb60: 41 47        	li	a4, 0x10
   1bb62: 9d 46        	li	a3, 0x7
   1bb64: 2e 9d        	add	s10, s10, a1
   1bb66: c5 b9        	j	0x1b856 <_vfprintf_r+0x150a>
   1bb68: 93 07 d0 02  	li	a5, 0x2d
   1bb6c: a3 07 f1 0a  	sb	a5, 0xaf(sp)
   1bb70: 13 07 d0 02  	li	a4, 0x2d
   1bb74: 75 b4        	j	0x1b620 <_vfprintf_r+0x12d4>
   1bb76: da 88        	mv	a7, s6
   1bb78: 4a 8b        	mv	s6, s2
   1bb7a: 4e 89        	mv	s2, s3
   1bb7c: c2 79        	ld	s3, 0x30(sp)
   1bb7e: a5 b4        	j	0x1b5e6 <_vfprintf_r+0x129a>
   1bb80: 03 47 f1 0a  	lbu	a4, 0xaf(sp)
   1bb84: 26 f0        	sd	s1, 0x20(sp)
   1bb86: 82 e4        	sd	zero, 0x48(sp)
   1bb88: 82 e0        	sd	zero, 0x40(sp)
   1bb8a: 02 f8        	sd	zero, 0x30(sp)
   1bb8c: 5a 8c        	mv	s8, s6
   1bb8e: da 86        	mv	a3, s6
   1bb90: 01 4b        	li	s6, 0x0
   1bb92: 19 c3        	beqz	a4, 0x1bb98 <_vfprintf_r+0x184c>
   1bb94: 6f e0 ff b0  	j	0x1a6a2 <_vfprintf_r+0x356>
   1bb98: 6f e0 5f 95  	j	0x1a4ec <_vfprintf_r+0x1a0>
   1bb9c: c2 75        	ld	a1, 0x30(sp)
   1bb9e: 22 65        	ld	a0, 0x8(sp)
   1bba0: 5a 87        	mv	a4, s6
   1bba2: 93 08 81 0c  	addi	a7, sp, 0xc8
   1bba6: 13 08 c1 0b  	addi	a6, sp, 0xbc
   1bbaa: 3c 19        	addi	a5, sp, 0xb8
   1bbac: 89 46        	li	a3, 0x2
   1bbae: 66 86        	mv	a2, s9
   1bbb0: 1a fc        	sd	t1, 0x38(sp)
   1bbb2: ef 10 50 58  	jal	0x1d936 <_ldtoa_r>
   1bbb6: 13 f7 1d 00  	andi	a4, s11, 0x1
   1bbba: 62 73        	ld	t1, 0x38(sp)
   1bbbc: 2a 8d        	mv	s10, a0
   1bbbe: e3 06 07 e4  	beqz	a4, 0x1ba0a <_vfprintf_r+0x16be>
   1bbc2: 33 08 6d 01  	add	a6, s10, s6
   1bbc6: 13 0c 70 04  	li	s8, 0x47
   1bbca: f1 b5        	j	0x1ba96 <_vfprintf_r+0x174a>
   1bbcc: ea 57        	lw	a5, 0xb8(sp)
   1bbce: 3e f8        	sd	a5, 0x30(sp)
   1bbd0: c2 87        	mv	a5, a6
   1bbd2: ed bd        	j	0x1bacc <_vfprintf_r+0x1780>
   1bbd4: 22 65        	ld	a0, 0x8(sp)
   1bbd6: 90 11        	addi	a2, sp, 0xe0
   1bbd8: ca 85        	mv	a1, s2
   1bbda: ef 00 80 44  	jal	0x1c022 <__sprint_r>
   1bbde: 63 14 05 be  	bnez	a0, 0x1afc6 <_vfprintf_r+0xc7a>
   1bbe2: ea 56        	lw	a3, 0xb8(sp)
   1bbe4: e2 77        	ld	a5, 0x38(sp)
   1bbe6: ce 74        	ld	s1, 0xf0(sp)
   1bbe8: 52 84        	mv	s0, s4
   1bbea: bb 86 d7 40  	subw	a3, a5, a3
   1bbee: 6f f0 ef dd  	j	0x1b1cc <_vfprintf_r+0xe80>
   1bbf2: b7 17 02 00  	lui	a5, 0x21
   1bbf6: 13 8d 87 42  	addi	s10, a5, 0x428
   1bbfa: 1d bc        	j	0x1b630 <_vfprintf_r+0x12e4>
   1bbfc: b7 28 02 00  	lui	a7, 0x22
   1bc00: c1 55        	li	a1, -0x10
   1bc02: 3b 0b e0 40  	negw	s6, a4
   1bc06: 93 88 08 a9  	addi	a7, a7, -0x570
   1bc0a: 63 51 b7 0a  	bge	a4, a1, 0x1bcac <_vfprintf_r+0x1960>
   1bc0e: 4e f8        	sd	s3, 0x30(sp)
   1bc10: c1 4c        	li	s9, 0x10
   1bc12: 9d 44        	li	s1, 0x7
   1bc14: c6 89        	mv	s3, a7
   1bc16: 21 a0        	j	0x1bc1e <_vfprintf_r+0x18d2>
   1bc18: 41 3b        	addiw	s6, s6, -0x10
   1bc1a: 63 d7 6c 09  	bge	s9, s6, 0x1bca8 <_vfprintf_r+0x195c>
   1bc1e: 85 26        	addiw	a3, a3, 0x1
   1bc20: 41 06        	addi	a2, a2, 0x10
   1bc22: 23 30 34 01  	sd	s3, 0x0(s0)
   1bc26: 23 34 94 01  	sd	s9, 0x8(s0)
   1bc2a: b2 f9        	sd	a2, 0xf0(sp)
   1bc2c: b6 d5        	sw	a3, 0xe8(sp)
   1bc2e: 41 04        	addi	s0, s0, 0x10
   1bc30: e3 d4 d4 fe  	bge	s1, a3, 0x1bc18 <_vfprintf_r+0x18cc>
   1bc34: 22 65        	ld	a0, 0x8(sp)
   1bc36: 90 11        	addi	a2, sp, 0xe0
   1bc38: ca 85        	mv	a1, s2
   1bc3a: ef 00 80 3e  	jal	0x1c022 <__sprint_r>
   1bc3e: 63 14 05 b8  	bnez	a0, 0x1afc6 <_vfprintf_r+0xc7a>
   1bc42: 4e 76        	ld	a2, 0xf0(sp)
   1bc44: ae 56        	lw	a3, 0xe8(sp)
   1bc46: 52 84        	mv	s0, s4
   1bc48: c1 bf        	j	0x1bc18 <_vfprintf_r+0x18cc>
   1bc4a: c6 67        	ld	a5, 0x50(sp)
   1bc4c: 62 77        	ld	a4, 0x38(sp)
   1bc4e: 13 03 70 06  	li	t1, 0x67
   1bc52: bb 86 e7 00  	addw	a3, a5, a4
   1bc56: c2 77        	ld	a5, 0x30(sp)
   1bc58: 63 5d f0 16  	blez	a5, 0x1bdd2 <_vfprintf_r+0x1a86>
   1bc5c: 13 fe 0d 40  	andi	t3, s11, 0x400
   1bc60: 63 1b 0e 0c  	bnez	t3, 0x1bd36 <_vfprintf_r+0x19ea>
   1bc64: 13 c8 f6 ff  	not	a6, a3
   1bc68: 13 58 f8 43  	srai	a6, a6, 0x3f
   1bc6c: 33 f8 06 01  	and	a6, a3, a6
   1bc70: 1b 0c 08 00  	sext.w	s8, a6
   1bc74: a6 8d        	mv	s11, s1
   1bc76: 4d bd        	j	0x1bb28 <_vfprintf_r+0x17dc>
   1bc78: c2 77        	ld	a5, 0x30(sp)
   1bc7a: 13 f7 1d 00  	andi	a4, s11, 0x1
   1bc7e: 33 67 eb 00  	or	a4, s6, a4
   1bc82: 63 54 f0 1c  	blez	a5, 0x1be4a <_vfprintf_r+0x1afe>
   1bc86: 63 1f 07 12  	bnez	a4, 0x1bdc4 <_vfprintf_r+0x1a78>
   1bc8a: c2 76        	ld	a3, 0x30(sp)
   1bc8c: 13 03 60 06  	li	t1, 0x66
   1bc90: f1 b7        	j	0x1bc5c <_vfprintf_r+0x1910>
   1bc92: fd 57        	li	a5, -0x1
   1bc94: 3e e8        	sd	a5, 0x10(sp)
   1bc96: 6f e0 df 95  	j	0x1a5f2 <_vfprintf_r+0x2a6>
   1bc9a: ee 8c        	mv	s9, s11
   1bc9c: 6f f0 8f b4  	j	0x1afe4 <_vfprintf_r+0xc98>
   1bca0: 1b 07 1b 00  	addiw	a4, s6, 0x1
   1bca4: 89 46        	li	a3, 0x2
   1bca6: 4d bb        	j	0x1ba58 <_vfprintf_r+0x170c>
   1bca8: ce 88        	mv	a7, s3
   1bcaa: c2 79        	ld	s3, 0x30(sp)
   1bcac: 85 26        	addiw	a3, a3, 0x1
   1bcae: 5a 96        	add	a2, a2, s6
   1bcb0: 23 30 14 01  	sd	a7, 0x0(s0)
   1bcb4: 23 34 64 01  	sd	s6, 0x8(s0)
   1bcb8: b2 f9        	sd	a2, 0xf0(sp)
   1bcba: b6 d5        	sw	a3, 0xe8(sp)
   1bcbc: 1d 47        	li	a4, 0x7
   1bcbe: e3 56 d7 8e  	bge	a4, a3, 0x1b5aa <_vfprintf_r+0x125e>
   1bcc2: 22 65        	ld	a0, 0x8(sp)
   1bcc4: 90 11        	addi	a2, sp, 0xe0
   1bcc6: ca 85        	mv	a1, s2
   1bcc8: ef 00 a0 35  	jal	0x1c022 <__sprint_r>
   1bccc: 63 1d 05 ae  	bnez	a0, 0x1afc6 <_vfprintf_r+0xc7a>
   1bcd0: 4e 76        	ld	a2, 0xf0(sp)
   1bcd2: ae 56        	lw	a3, 0xe8(sp)
   1bcd4: 52 84        	mv	s0, s4
   1bcd6: d1 ba        	j	0x1b6aa <_vfprintf_r+0x135e>
   1bcd8: 93 06 21 0c  	addi	a3, sp, 0xc2
   1bcdc: 19 e6        	bnez	a2, 0x1bcea <_vfprintf_r+0x199e>
   1bcde: 93 06 00 03  	li	a3, 0x30
   1bce2: 23 01 d1 0c  	sb	a3, 0xc2(sp)
   1bce6: 93 06 31 0c  	addi	a3, sp, 0xc3
   1bcea: 9c 13        	addi	a5, sp, 0x1e0
   1bcec: 33 86 f6 40  	sub	a2, a3, a5
   1bcf0: 1b 07 07 03  	addiw	a4, a4, 0x30
   1bcf4: 9b 07 16 12  	addiw	a5, a2, 0x121
   1bcf8: 23 80 e6 00  	sb	a4, 0x0(a3)
   1bcfc: be f8        	sd	a5, 0x70(sp)
   1bcfe: 6f e0 5f cd  	j	0x1a9d2 <_vfprintf_r+0x686>
   1bd02: 02 ec        	sd	zero, 0x18(sp)
   1bd04: 19 4b        	li	s6, 0x6
   1bd06: 6f e0 5f a8  	j	0x1a78a <_vfprintf_r+0x43e>
   1bd0a: 63 04 0b 00  	beqz	s6, 0x1bd12 <_vfprintf_r+0x19c6>
   1bd0e: 6f e0 df a7  	j	0x1a78a <_vfprintf_r+0x43e>
   1bd12: 05 4b        	li	s6, 0x1
   1bd14: 6f e0 7f a7  	j	0x1a78a <_vfprintf_r+0x43e>
   1bd18: 13 f6 1d 00  	andi	a2, s11, 0x1
   1bd1c: 19 e2        	bnez	a2, 0x1bd22 <_vfprintf_r+0x19d6>
   1bd1e: 6f e0 ff cc  	j	0x1a9ec <_vfprintf_r+0x6a0>
   1bd22: 6f e0 5f cc  	j	0x1a9e6 <_vfprintf_r+0x69a>
   1bd26: 3a f0        	sd	a4, 0x20(sp)
   1bd28: 6f f0 cf ab  	j	0x1afe4 <_vfprintf_r+0xc98>
   1bd2c: 1c c3        	sw	a5, 0x0(a4)
   1bd2e: 6f f0 4f 82  	j	0x1ad52 <_vfprintf_r+0xa06>
   1bd32: 13 03 70 06  	li	t1, 0x67
   1bd36: 8a 67        	ld	a5, 0x80(sp)
   1bd38: 13 06 f0 0f  	li	a2, 0xff
   1bd3c: 03 c7 07 00  	lbu	a4, 0x0(a5)
   1bd40: 63 09 c7 16  	beq	a4, a2, 0x1beb2 <_vfprintf_r+0x1b66>
   1bd44: 3e 86        	mv	a2, a5
   1bd46: c2 77        	ld	a5, 0x30(sp)
   1bd48: 81 48        	li	a7, 0x0
   1bd4a: 01 48        	li	a6, 0x0
   1bd4c: 93 05 f0 0f  	li	a1, 0xff
   1bd50: 1b 05 07 00  	sext.w	a0, a4
   1bd54: 63 5a f7 00  	bge	a4, a5, 0x1bd68 <_vfprintf_r+0x1a1c>
   1bd58: 03 47 16 00  	lbu	a4, 0x1(a2)
   1bd5c: 89 9f        	subw	a5, a5, a0
   1bd5e: 1d cb        	beqz	a4, 0x1bd94 <_vfprintf_r+0x1a48>
   1bd60: 05 28        	addiw	a6, a6, 0x1
   1bd62: 05 06        	addi	a2, a2, 0x1
   1bd64: e3 16 b7 fe  	bne	a4, a1, 0x1bd50 <_vfprintf_r+0x1a04>
   1bd68: 32 e1        	sd	a2, 0x80(sp)
   1bd6a: c2 e0        	sd	a6, 0x40(sp)
   1bd6c: c6 e4        	sd	a7, 0x48(sp)
   1bd6e: 3e f8        	sd	a5, 0x30(sp)
   1bd70: a6 67        	ld	a5, 0x48(sp)
   1bd72: 06 67        	ld	a4, 0x40(sp)
   1bd74: a6 8d        	mv	s11, s1
   1bd76: 3d 9f        	addw	a4, a4, a5
   1bd78: aa 67        	ld	a5, 0x88(sp)
   1bd7a: 3b 07 f7 02  	mulw	a4, a4, a5
   1bd7e: 35 9f        	addw	a4, a4, a3
   1bd80: 9b 06 07 00  	sext.w	a3, a4
   1bd84: 13 c6 f6 ff  	not	a2, a3
   1bd88: 7d 96        	srai	a2, a2, 0x3f
   1bd8a: 71 8f        	and	a4, a4, a2
   1bd8c: 1b 0c 07 00  	sext.w	s8, a4
   1bd90: 6f e0 df c7  	j	0x1aa0c <_vfprintf_r+0x6c0>
   1bd94: 03 47 06 00  	lbu	a4, 0x0(a2)
   1bd98: 85 28        	addiw	a7, a7, 0x1
   1bd9a: e9 b7        	j	0x1bd64 <_vfprintf_r+0x1a18>
   1bd9c: 42 75        	ld	a0, 0x30(sp)
   1bd9e: 01 46        	li	a2, 0x0
   1bda0: 81 46        	li	a3, 0x0
   1bda2: e6 85        	mv	a1, s9
   1bda4: c2 e4        	sd	a6, 0x48(sp)
   1bda6: 9a e0        	sd	t1, 0x40(sp)
   1bda8: 3a fc        	sd	a4, 0x38(sp)
   1bdaa: ef 30 50 45  	jal	0x1f9fe <__netf2>
   1bdae: 62 77        	ld	a4, 0x38(sp)
   1bdb0: 06 63        	ld	t1, 0x40(sp)
   1bdb2: 26 68        	ld	a6, 0x48(sp)
   1bdb4: 59 e5        	bnez	a0, 0x1be42 <_vfprintf_r+0x1af6>
   1bdb6: ea 57        	lw	a5, 0xb8(sp)
   1bdb8: 3e 98        	add	a6, a6, a5
   1bdba: 3e f8        	sd	a5, 0x30(sp)
   1bdbc: bb 07 a8 41  	subw	a5, a6, s10
   1bdc0: 3e fc        	sd	a5, 0x38(sp)
   1bdc2: 21 bb        	j	0x1bada <_vfprintf_r+0x178e>
   1bdc4: 46 67        	ld	a4, 0x50(sp)
   1bdc6: 13 03 60 06  	li	t1, 0x66
   1bdca: bb 06 67 01  	addw	a3, a4, s6
   1bdce: bd 9e        	addw	a3, a3, a5
   1bdd0: 71 b5        	j	0x1bc5c <_vfprintf_r+0x1910>
   1bdd2: 3b 87 f6 40  	subw	a4, a3, a5
   1bdd6: 05 27        	addiw	a4, a4, 0x1
   1bdd8: 9b 06 07 00  	sext.w	a3, a4
   1bddc: 13 c6 f6 ff  	not	a2, a3
   1bde0: 7d 96        	srai	a2, a2, 0x3f
   1bde2: 71 8f        	and	a4, a4, a2
   1bde4: 1b 0c 07 00  	sext.w	s8, a4
   1bde8: a6 8d        	mv	s11, s1
   1bdea: 3d bb        	j	0x1bb28 <_vfprintf_r+0x17dc>
   1bdec: 4a 68        	ld	a6, 0x90(sp)
   1bdee: 62 89        	mv	s2, s8
   1bdf0: 4e 8c        	mv	s8, s3
   1bdf2: bb 06 0d 01  	addw	a3, s10, a6
   1bdf6: bb 86 86 41  	subw	a3, a3, s8
   1bdfa: 13 96 06 02  	slli	a2, a3, 0x20
   1bdfe: 06 63        	ld	t1, 0x40(sp)
   1be00: a6 6b        	ld	s7, 0x48(sp)
   1be02: 46 74        	ld	s0, 0x70(sp)
   1be04: e2 79        	ld	s3, 0x38(sp)
   1be06: 63 54 06 00  	bgez	a2, 0x1be0e <_vfprintf_r+0x1ac2>
   1be0a: 6f e0 bf b1  	j	0x1a924 <_vfprintf_r+0x5d8>
   1be0e: 85 26        	addiw	a3, a3, 0x1
   1be10: e2 96        	add	a3, a3, s8
   1be12: 13 06 00 03  	li	a2, 0x30
   1be16: 05 0c        	addi	s8, s8, 0x1
   1be18: a3 0f cc fe  	sb	a2, -0x1(s8)
   1be1c: e3 1d dc fe  	bne	s8, a3, 0x1be16 <_vfprintf_r+0x1aca>
   1be20: 6f e0 7f b0  	j	0x1a926 <_vfprintf_r+0x5da>
   1be24: e2 65        	ld	a1, 0x18(sp)
   1be26: 4e 89        	mv	s2, s3
   1be28: 6f f0 0f 9a  	j	0x1afc8 <_vfprintf_r+0xc7c>
   1be2c: 37 17 02 00  	lui	a4, 0x21
   1be30: 93 07 07 43  	addi	a5, a4, 0x430
   1be34: 3e f8        	sd	a5, 0x30(sp)
   1be36: 6f e0 ff 9e  	j	0x1a824 <_vfprintf_r+0x4d8>
   1be3a: 93 06 00 07  	li	a3, 0x70
   1be3e: 6f e0 5f b1  	j	0x1a952 <_vfprintf_r+0x606>
   1be42: 85 46        	li	a3, 0x1
   1be44: 99 9e        	subw	a3, a3, a4
   1be46: 36 dd        	sw	a3, 0xb8(sp)
   1be48: b1 b1        	j	0x1ba94 <_vfprintf_r+0x1748>
   1be4a: 19 e7        	bnez	a4, 0x1be58 <_vfprintf_r+0x1b0c>
   1be4c: a6 8d        	mv	s11, s1
   1be4e: 05 4c        	li	s8, 0x1
   1be50: 13 03 60 06  	li	t1, 0x66
   1be54: 85 46        	li	a3, 0x1
   1be56: c9 b9        	j	0x1bb28 <_vfprintf_r+0x17dc>
   1be58: c6 67        	ld	a5, 0x50(sp)
   1be5a: a6 8d        	mv	s11, s1
   1be5c: 13 03 60 06  	li	t1, 0x66
   1be60: 1b 87 17 00  	addiw	a4, a5, 0x1
   1be64: 3b 07 67 01  	addw	a4, a4, s6
   1be68: 9b 06 07 00  	sext.w	a3, a4
   1be6c: 13 c6 f6 ff  	not	a2, a3
   1be70: 7d 96        	srai	a2, a2, 0x3f
   1be72: 71 8f        	and	a4, a4, a2
   1be74: 1b 0c 07 00  	sext.w	s8, a4
   1be78: 45 b9        	j	0x1bb28 <_vfprintf_r+0x17dc>
   1be7a: 89 47        	li	a5, 0x2
   1be7c: be f8        	sd	a5, 0x70(sp)
   1be7e: 6f e0 5f b5  	j	0x1a9d2 <_vfprintf_r+0x686>
   1be82: 82 76        	ld	a3, 0x20(sp)
   1be84: 9c 42        	lw	a5, 0x0(a3)
   1be86: a1 06        	addi	a3, a3, 0x8
   1be88: 1b 8b 07 00  	sext.w	s6, a5
   1be8c: 63 d3 07 00  	bgez	a5, 0x1be92 <_vfprintf_r+0x1b46>
   1be90: 7d 5b        	li	s6, -0x1
   1be92: 03 c3 19 00  	lbu	t1, 0x1(s3)
   1be96: 36 f0        	sd	a3, 0x20(sp)
   1be98: ba 89        	mv	s3, a4
   1be9a: 6f e0 ef dd  	j	0x1a478 <_vfprintf_r+0x12c>
   1be9e: 83 57 09 01  	lhu	a5, 0x10(s2)
   1bea2: 93 e7 07 04  	ori	a5, a5, 0x40
   1bea6: 23 18 f9 00  	sh	a5, 0x10(s2)
   1beaa: 6f e0 af f1  	j	0x1a5c4 <_vfprintf_r+0x278>
   1beae: 5a 87        	mv	a4, s6
   1beb0: d9 b6        	j	0x1ba76 <_vfprintf_r+0x172a>
   1beb2: 82 e4        	sd	zero, 0x48(sp)
   1beb4: 82 e0        	sd	zero, 0x40(sp)
   1beb6: 6d bd        	j	0x1bd70 <_vfprintf_r+0x1a24>

000000000001beb8 <vfprintf>:
   1beb8: aa 87        	mv	a5, a0
   1beba: 03 b5 01 23  	ld	a0, 0x230(gp)
   1bebe: b2 86        	mv	a3, a2
   1bec0: 2e 86        	mv	a2, a1
   1bec2: be 85        	mv	a1, a5
   1bec4: 6f e0 8f c8  	j	0x1a34c <_vfprintf_r>

000000000001bec8 <__sbprintf>:
   1bec8: 13 01 01 b3  	addi	sp, sp, -0x4d0
   1becc: 03 d7 25 01  	lhu	a4, 0x12(a1)
   1bed0: 83 d7 05 01  	lhu	a5, 0x10(a1)
   1bed4: 23 30 81 4c  	sd	s0, 0x4c0(sp)
   1bed8: 2e 84        	mv	s0, a1
   1beda: c1 65        	lui	a1, 0x10
   1bedc: f5 35        	addiw	a1, a1, -0x3
   1bede: 03 2e c4 0a  	lw	t3, 0xac(s0)
   1bee2: 03 33 04 03  	ld	t1, 0x30(s0)
   1bee6: 83 38 04 04  	ld	a7, 0x40(s0)
   1beea: 1b 17 07 01  	slliw	a4, a4, 0x10
   1beee: ed 8f        	and	a5, a5, a1
   1bef0: d9 8f        	or	a5, a5, a4
   1bef2: 13 08 00 40  	li	a6, 0x400
   1bef6: 3e c8        	sw	a5, 0x10(sp)
   1bef8: 8a 85        	mv	a1, sp
   1befa: 1c 19        	addi	a5, sp, 0xb0
   1befc: 23 3c 91 4a  	sd	s1, 0x4b8(sp)
   1bf00: 23 38 21 4b  	sd	s2, 0x4b0(sp)
   1bf04: 23 34 11 4c  	sd	ra, 0x4c8(sp)
   1bf08: 2a 89        	mv	s2, a0
   1bf0a: 72 d7        	sw	t3, 0xac(sp)
   1bf0c: 1a f8        	sd	t1, 0x30(sp)
   1bf0e: c6 e0        	sd	a7, 0x40(sp)
   1bf10: 3e e0        	sd	a5, 0x0(sp)
   1bf12: 3e ec        	sd	a5, 0x18(sp)
   1bf14: 42 c6        	sw	a6, 0xc(sp)
   1bf16: 42 d0        	sw	a6, 0x20(sp)
   1bf18: 02 d4        	sw	zero, 0x28(sp)
   1bf1a: ef e0 2f c3  	jal	0x1a34c <_vfprintf_r>
   1bf1e: aa 84        	mv	s1, a0
   1bf20: 63 59 05 02  	bgez	a0, 0x1bf52 <__sbprintf+0x8a>
   1bf24: 83 57 01 01  	lhu	a5, 0x10(sp)
   1bf28: 93 f7 07 04  	andi	a5, a5, 0x40
   1bf2c: 99 c7        	beqz	a5, 0x1bf3a <__sbprintf+0x72>
   1bf2e: 83 57 04 01  	lhu	a5, 0x10(s0)
   1bf32: 93 e7 07 04  	ori	a5, a5, 0x40
   1bf36: 23 18 f4 00  	sh	a5, 0x10(s0)
   1bf3a: 83 30 81 4c  	ld	ra, 0x4c8(sp)
   1bf3e: 03 34 01 4c  	ld	s0, 0x4c0(sp)
   1bf42: 03 39 01 4b  	ld	s2, 0x4b0(sp)
   1bf46: 26 85        	mv	a0, s1
   1bf48: 83 34 81 4b  	ld	s1, 0x4b8(sp)
   1bf4c: 13 01 01 4d  	addi	sp, sp, 0x4d0
   1bf50: 82 80        	ret
   1bf52: 8a 85        	mv	a1, sp
   1bf54: 4a 85        	mv	a0, s2
   1bf56: ef b0 0f 9b  	jal	0x17106 <_fflush_r>
   1bf5a: 69 d5        	beqz	a0, 0x1bf24 <__sbprintf+0x5c>
   1bf5c: fd 54        	li	s1, -0x1
   1bf5e: d9 b7        	j	0x1bf24 <__sbprintf+0x5c>

000000000001bf60 <__sprint_r.part.0>:
   1bf60: 83 a7 c5 0a  	lw	a5, 0xac(a1)
   1bf64: 5d 71        	addi	sp, sp, -0x50
   1bf66: 56 ec        	sd	s5, 0x18(sp)
   1bf68: 86 e4        	sd	ra, 0x48(sp)
   1bf6a: 13 97 27 03  	slli	a4, a5, 0x32
   1bf6e: b2 8a        	mv	s5, a2
   1bf70: 63 5f 07 08  	bgez	a4, 0x1c00e <__sprint_r.part.0+0xae>
   1bf74: 1c 6a        	ld	a5, 0x10(a2)
   1bf76: 4a f8        	sd	s2, 0x30(sp)
   1bf78: 4e f4        	sd	s3, 0x28(sp)
   1bf7a: 52 f0        	sd	s4, 0x20(sp)
   1bf7c: 5a e8        	sd	s6, 0x10(sp)
   1bf7e: 2e 89        	mv	s2, a1
   1bf80: 03 3b 06 00  	ld	s6, 0x0(a2)
   1bf84: aa 89        	mv	s3, a0
   1bf86: 7d 5a        	li	s4, -0x1
   1bf88: ad cf        	beqz	a5, 0x1c002 <__sprint_r.part.0+0xa2>
   1bf8a: a2 e0        	sd	s0, 0x40(sp)
   1bf8c: 26 fc        	sd	s1, 0x38(sp)
   1bf8e: 5e e4        	sd	s7, 0x8(sp)
   1bf90: 83 34 8b 00  	ld	s1, 0x8(s6)
   1bf94: 03 34 0b 00  	ld	s0, 0x0(s6)
   1bf98: 89 80        	srli	s1, s1, 0x2
   1bf9a: 9b 8b 04 00  	sext.w	s7, s1
   1bf9e: 63 58 70 05  	blez	s7, 0x1bfee <__sprint_r.part.0+0x8e>
   1bfa2: fd 34        	addiw	s1, s1, -0x1
   1bfa4: 93 97 04 02  	slli	a5, s1, 0x20
   1bfa8: 93 d4 e7 01  	srli	s1, a5, 0x1e
   1bfac: 93 07 44 00  	addi	a5, s0, 0x4
   1bfb0: be 94        	add	s1, s1, a5
   1bfb2: 19 a0        	j	0x1bfb8 <__sprint_r.part.0+0x58>
   1bfb4: 63 8b 84 02  	beq	s1, s0, 0x1bfea <__sprint_r.part.0+0x8a>
   1bfb8: 0c 40        	lw	a1, 0x0(s0)
   1bfba: 4a 86        	mv	a2, s2
   1bfbc: 4e 85        	mv	a0, s3
   1bfbe: ef 10 a0 4f  	jal	0x1d4b8 <_fputwc_r>
   1bfc2: 01 25        	sext.w	a0, a0
   1bfc4: 11 04        	addi	s0, s0, 0x4
   1bfc6: e3 17 45 ff  	bne	a0, s4, 0x1bfb4 <__sprint_r.part.0+0x54>
   1bfca: 06 64        	ld	s0, 0x40(sp)
   1bfcc: e2 74        	ld	s1, 0x38(sp)
   1bfce: 42 79        	ld	s2, 0x30(sp)
   1bfd0: a2 79        	ld	s3, 0x28(sp)
   1bfd2: 02 7a        	ld	s4, 0x20(sp)
   1bfd4: 42 6b        	ld	s6, 0x10(sp)
   1bfd6: a2 6b        	ld	s7, 0x8(sp)
   1bfd8: 7d 55        	li	a0, -0x1
   1bfda: a6 60        	ld	ra, 0x48(sp)
   1bfdc: 23 b8 0a 00  	sd	zero, 0x10(s5)
   1bfe0: 23 a4 0a 00  	sw	zero, 0x8(s5)
   1bfe4: e2 6a        	ld	s5, 0x18(sp)
   1bfe6: 61 61        	addi	sp, sp, 0x50
   1bfe8: 82 80        	ret
   1bfea: 83 b7 0a 01  	ld	a5, 0x10(s5)
   1bfee: 8a 0b        	slli	s7, s7, 0x2
   1bff0: b3 87 77 41  	sub	a5, a5, s7
   1bff4: 23 b8 fa 00  	sd	a5, 0x10(s5)
   1bff8: 41 0b        	addi	s6, s6, 0x10
   1bffa: d9 fb        	bnez	a5, 0x1bf90 <__sprint_r.part.0+0x30>
   1bffc: 06 64        	ld	s0, 0x40(sp)
   1bffe: e2 74        	ld	s1, 0x38(sp)
   1c000: a2 6b        	ld	s7, 0x8(sp)
   1c002: 42 79        	ld	s2, 0x30(sp)
   1c004: a2 79        	ld	s3, 0x28(sp)
   1c006: 02 7a        	ld	s4, 0x20(sp)
   1c008: 42 6b        	ld	s6, 0x10(sp)
   1c00a: 01 45        	li	a0, 0x0
   1c00c: f9 b7        	j	0x1bfda <__sprint_r.part.0+0x7a>
   1c00e: ef 00 b0 62  	jal	0x1ce38 <__sfvwrite_r>
   1c012: a6 60        	ld	ra, 0x48(sp)
   1c014: 23 b8 0a 00  	sd	zero, 0x10(s5)
   1c018: 23 a4 0a 00  	sw	zero, 0x8(s5)
   1c01c: e2 6a        	ld	s5, 0x18(sp)
   1c01e: 61 61        	addi	sp, sp, 0x50
   1c020: 82 80        	ret

000000000001c022 <__sprint_r>:
   1c022: 18 6a        	ld	a4, 0x10(a2)
   1c024: 19 c3        	beqz	a4, 0x1c02a <__sprint_r+0x8>
   1c026: 6f f0 bf f3  	j	0x1bf60 <__sprint_r.part.0>
   1c02a: 23 24 06 00  	sw	zero, 0x8(a2)
   1c02e: 01 45        	li	a0, 0x0
   1c030: 82 80        	ret

000000000001c032 <_vfiprintf_r>:
   1c032: 05 71        	addi	sp, sp, -0x1e0
   1c034: 52 fb        	sd	s4, 0x1b0(sp)
   1c036: 56 f7        	sd	s5, 0x1a8(sp)
   1c038: 5e ef        	sd	s7, 0x198(sp)
   1c03a: 6a e3        	sd	s10, 0x180(sp)
   1c03c: 86 ef        	sd	ra, 0x1d8(sp)
   1c03e: 62 eb        	sd	s8, 0x190(sp)
   1c040: aa 8a        	mv	s5, a0
   1c042: 2e 8a        	mv	s4, a1
   1c044: 32 8d        	mv	s10, a2
   1c046: b6 8b        	mv	s7, a3
   1c048: 01 c5        	beqz	a0, 0x1c050 <_vfiprintf_r+0x1e>
   1c04a: 3c 65        	ld	a5, 0x48(a0)
   1c04c: e3 83 07 3a  	beqz	a5, 0x1cbf2 <_vfiprintf_r+0xbc0>
   1c050: 83 17 0a 01  	lh	a5, 0x10(s4)
   1c054: 93 96 27 03  	slli	a3, a5, 0x32
   1c058: 63 c1 06 02  	bltz	a3, 0x1c07a <_vfiprintf_r+0x48>
   1c05c: 83 26 ca 0a  	lw	a3, 0xac(s4)
   1c060: 89 65        	lui	a1, 0x2
   1c062: 79 76        	lui	a2, 0xffffe
   1c064: cd 8f        	or	a5, a5, a1
   1c066: 7d 16        	addi	a2, a2, -0x1
   1c068: 9b 97 07 01  	slliw	a5, a5, 0x10
   1c06c: 9b d7 07 41  	sraiw	a5, a5, 0x10
   1c070: f1 8e        	and	a3, a3, a2
   1c072: 23 18 fa 00  	sh	a5, 0x10(s4)
   1c076: 23 26 da 0a  	sw	a3, 0xac(s4)
   1c07a: 93 f6 87 00  	andi	a3, a5, 0x8
   1c07e: e1 ce        	beqz	a3, 0x1c156 <_vfiprintf_r+0x124>
   1c080: 83 36 8a 01  	ld	a3, 0x18(s4)
   1c084: e9 ca        	beqz	a3, 0x1c156 <_vfiprintf_r+0x124>
   1c086: e9 8b        	andi	a5, a5, 0x1a
   1c088: a9 46        	li	a3, 0xa
   1c08a: 63 82 d7 0e  	beq	a5, a3, 0x1c16e <_vfiprintf_r+0x13c>
   1c08e: b7 27 02 00  	lui	a5, 0x22
   1c092: 4e ff        	sd	s3, 0x1b8(sp)
   1c094: 5a f3        	sd	s6, 0x1a0(sp)
   1c096: 93 09 01 0f  	addi	s3, sp, 0xf0
   1c09a: 93 87 07 ab  	addi	a5, a5, -0x550
   1c09e: 37 2b 02 00  	lui	s6, 0x22
   1c0a2: a2 eb        	sd	s0, 0x1d0(sp)
   1c0a4: ca e3        	sd	s2, 0x1c0(sp)
   1c0a6: a6 e7        	sd	s1, 0x1c8(sp)
   1c0a8: 66 e7        	sd	s9, 0x188(sp)
   1c0aa: ee fe        	sd	s11, 0x178(sp)
   1c0ac: ce f8        	sd	s3, 0x70(sp)
   1c0ae: 02 e1        	sd	zero, 0x80(sp)
   1c0b0: 82 dc        	sw	zero, 0x78(sp)
   1c0b2: 4e 84        	mv	s0, s3
   1c0b4: 02 e8        	sd	zero, 0x10(sp)
   1c0b6: 02 fc        	sd	zero, 0x38(sp)
   1c0b8: 02 f8        	sd	zero, 0x30(sp)
   1c0ba: 82 e0        	sd	zero, 0x40(sp)
   1c0bc: 01 4c        	li	s8, 0x0
   1c0be: 3e e4        	sd	a5, 0x8(sp)
   1c0c0: 41 49        	li	s2, 0x10
   1c0c2: 13 0b 0b c2  	addi	s6, s6, -0x3e0
   1c0c6: 83 47 0d 00  	lbu	a5, 0x0(s10)
   1c0ca: f9 c3        	beqz	a5, 0x1c190 <_vfiprintf_r+0x15e>
   1c0cc: ea 84        	mv	s1, s10
   1c0ce: 13 07 50 02  	li	a4, 0x25
   1c0d2: 63 8f e7 26  	beq	a5, a4, 0x1c350 <_vfiprintf_r+0x31e>
   1c0d6: 83 c7 14 00  	lbu	a5, 0x1(s1)
   1c0da: 85 04        	addi	s1, s1, 0x1
   1c0dc: fd fb        	bnez	a5, 0x1c0d2 <_vfiprintf_r+0xa0>
   1c0de: bb 8d a4 41  	subw	s11, s1, s10
   1c0e2: 63 87 0d 0a  	beqz	s11, 0x1c190 <_vfiprintf_r+0x15e>
   1c0e6: e6 57        	lw	a5, 0x78(sp)
   1c0e8: 0a 67        	ld	a4, 0x80(sp)
   1c0ea: 23 30 a4 01  	sd	s10, 0x0(s0)
   1c0ee: 9b 86 17 00  	addiw	a3, a5, 0x1
   1c0f2: 6e 97        	add	a4, a4, s11
   1c0f4: 23 34 b4 01  	sd	s11, 0x8(s0)
   1c0f8: 3a e1        	sd	a4, 0x80(sp)
   1c0fa: b6 dc        	sw	a3, 0x78(sp)
   1c0fc: 9d 47        	li	a5, 0x7
   1c0fe: 41 04        	addi	s0, s0, 0x10
   1c100: 63 db d7 00  	bge	a5, a3, 0x1c116 <_vfiprintf_r+0xe4>
   1c104: e3 07 07 0e  	beqz	a4, 0x1c9f2 <_vfiprintf_r+0x9c0>
   1c108: 90 18        	addi	a2, sp, 0x70
   1c10a: d2 85        	mv	a1, s4
   1c10c: 56 85        	mv	a0, s5
   1c10e: ef f0 3f e5  	jal	0x1bf60 <__sprint_r.part.0>
   1c112: 51 e1        	bnez	a0, 0x1c196 <_vfiprintf_r+0x164>
   1c114: 4e 84        	mv	s0, s3
   1c116: 83 c7 04 00  	lbu	a5, 0x0(s1)
   1c11a: 3b 8c 8d 01  	addw	s8, s11, s8
   1c11e: ad cb        	beqz	a5, 0x1c190 <_vfiprintf_r+0x15e>
   1c120: 83 c7 14 00  	lbu	a5, 0x1(s1)
   1c124: 13 8d 14 00  	addi	s10, s1, 0x1
   1c128: a3 03 01 06  	sb	zero, 0x67(sp)
   1c12c: fd 54        	li	s1, -0x1
   1c12e: 81 48        	li	a7, 0x0
   1c130: 81 4c        	li	s9, 0x0
   1c132: 93 0d a0 05  	li	s11, 0x5a
   1c136: 05 0d        	addi	s10, s10, 0x1
   1c138: 81 27        	sext.w	a5, a5
   1c13a: 1b 87 07 fe  	addiw	a4, a5, -0x20
   1c13e: 9b 06 07 00  	sext.w	a3, a4
   1c142: 63 eb dd 0a  	bltu	s11, a3, 0x1c1f8 <_vfiprintf_r+0x1c6>
   1c146: 93 16 07 02  	slli	a3, a4, 0x20
   1c14a: 13 d7 e6 01  	srli	a4, a3, 0x1e
   1c14e: a2 66        	ld	a3, 0x8(sp)
   1c150: 36 97        	add	a4, a4, a3
   1c152: 18 43        	lw	a4, 0x0(a4)
   1c154: 02 87        	jr	a4
   1c156: d2 85        	mv	a1, s4
   1c158: 56 85        	mv	a0, s5
   1c15a: ef 10 e0 1d  	jal	0x1d338 <__swsetup_r>
   1c15e: e3 14 05 38  	bnez	a0, 0x1cce6 <_vfiprintf_r+0xcb4>
   1c162: 83 17 0a 01  	lh	a5, 0x10(s4)
   1c166: a9 46        	li	a3, 0xa
   1c168: e9 8b        	andi	a5, a5, 0x1a
   1c16a: e3 92 d7 f2  	bne	a5, a3, 0x1c08e <_vfiprintf_r+0x5c>
   1c16e: 83 17 2a 01  	lh	a5, 0x12(s4)
   1c172: e3 ce 07 f0  	bltz	a5, 0x1c08e <_vfiprintf_r+0x5c>
   1c176: fe 60        	ld	ra, 0x1d8(sp)
   1c178: 5a 6c        	ld	s8, 0x190(sp)
   1c17a: de 86        	mv	a3, s7
   1c17c: 6a 86        	mv	a2, s10
   1c17e: fa 6b        	ld	s7, 0x198(sp)
   1c180: 1a 6d        	ld	s10, 0x180(sp)
   1c182: d2 85        	mv	a1, s4
   1c184: 56 85        	mv	a0, s5
   1c186: 5a 7a        	ld	s4, 0x1b0(sp)
   1c188: ba 7a        	ld	s5, 0x1a8(sp)
   1c18a: 3d 61        	addi	sp, sp, 0x1e0
   1c18c: 6f 00 50 39  	j	0x1cd20 <__sbprintf>
   1c190: 8a 67        	ld	a5, 0x80(sp)
   1c192: e3 9c 07 30  	bnez	a5, 0x1ccaa <_vfiprintf_r+0xc78>
   1c196: 83 57 0a 01  	lhu	a5, 0x10(s4)
   1c19a: 5e 64        	ld	s0, 0x1d0(sp)
   1c19c: be 64        	ld	s1, 0x1c8(sp)
   1c19e: 93 f7 07 04  	andi	a5, a5, 0x40
   1c1a2: 1e 69        	ld	s2, 0x1c0(sp)
   1c1a4: fa 79        	ld	s3, 0x1b8(sp)
   1c1a6: 1a 7b        	ld	s6, 0x1a0(sp)
   1c1a8: ba 6c        	ld	s9, 0x188(sp)
   1c1aa: f6 7d        	ld	s11, 0x178(sp)
   1c1ac: e3 9d 07 32  	bnez	a5, 0x1cce6 <_vfiprintf_r+0xcb4>
   1c1b0: fe 60        	ld	ra, 0x1d8(sp)
   1c1b2: 5a 7a        	ld	s4, 0x1b0(sp)
   1c1b4: ba 7a        	ld	s5, 0x1a8(sp)
   1c1b6: fa 6b        	ld	s7, 0x198(sp)
   1c1b8: 1a 6d        	ld	s10, 0x180(sp)
   1c1ba: 62 85        	mv	a0, s8
   1c1bc: 5a 6c        	ld	s8, 0x190(sp)
   1c1be: 3d 61        	addi	sp, sp, 0x1e0
   1c1c0: 82 80        	ret
   1c1c2: 81 48        	li	a7, 0x0
   1c1c4: 25 46        	li	a2, 0x9
   1c1c6: 83 46 0d 00  	lbu	a3, 0x0(s10)
   1c1ca: 1b 97 28 00  	slliw	a4, a7, 0x2
   1c1ce: bb 08 17 01  	addw	a7, a4, a7
   1c1d2: 9b 87 07 fd  	addiw	a5, a5, -0x30
   1c1d6: 9b 98 18 00  	slliw	a7, a7, 0x1
   1c1da: 1b 87 06 fd  	addiw	a4, a3, -0x30
   1c1de: bb 88 17 01  	addw	a7, a5, a7
   1c1e2: 05 0d        	addi	s10, s10, 0x1
   1c1e4: 9b 87 06 00  	sext.w	a5, a3
   1c1e8: e3 7f e6 fc  	bgeu	a2, a4, 0x1c1c6 <_vfiprintf_r+0x194>
   1c1ec: 1b 87 07 fe  	addiw	a4, a5, -0x20
   1c1f0: 9b 06 07 00  	sext.w	a3, a4
   1c1f4: e3 f9 dd f4  	bgeu	s11, a3, 0x1c146 <_vfiprintf_r+0x114>
   1c1f8: c1 df        	beqz	a5, 0x1c190 <_vfiprintf_r+0x15e>
   1c1fa: 23 04 f1 08  	sb	a5, 0x88(sp)
   1c1fe: a3 03 01 06  	sb	zero, 0x67(sp)
   1c202: 05 43        	li	t1, 0x1
   1c204: 05 4e        	li	t3, 0x1
   1c206: 93 0d 81 08  	addi	s11, sp, 0x88
   1c20a: 81 44        	li	s1, 0x0
   1c20c: 81 4f        	li	t6, 0x0
   1c20e: e6 56        	lw	a3, 0x78(sp)
   1c210: 93 f2 4c 08  	andi	t0, s9, 0x84
   1c214: 8a 67        	ld	a5, 0x80(sp)
   1c216: 9b 85 16 00  	addiw	a1, a3, 0x1
   1c21a: 2e 86        	mv	a2, a1
   1c21c: 63 96 02 00  	bnez	t0, 0x1c228 <_vfiprintf_r+0x1f6>
   1c220: 3b 87 68 40  	subw	a4, a7, t1
   1c224: 63 4e e0 62  	bgtz	a4, 0x1c860 <_vfiprintf_r+0x82e>
   1c228: 03 47 71 06  	lbu	a4, 0x67(sp)
   1c22c: 19 cf        	beqz	a4, 0x1c24a <_vfiprintf_r+0x218>
   1c22e: 13 07 71 06  	addi	a4, sp, 0x67
   1c232: 85 07        	addi	a5, a5, 0x1
   1c234: 18 e0        	sd	a4, 0x0(s0)
   1c236: 05 47        	li	a4, 0x1
   1c238: 18 e4        	sd	a4, 0x8(s0)
   1c23a: 3e e1        	sd	a5, 0x80(sp)
   1c23c: ae dc        	sw	a1, 0x78(sp)
   1c23e: 1d 47        	li	a4, 0x7
   1c240: 63 41 b7 5a  	blt	a4, a1, 0x1c7e2 <_vfiprintf_r+0x7b0>
   1c244: ae 86        	mv	a3, a1
   1c246: 41 04        	addi	s0, s0, 0x10
   1c248: 85 25        	addiw	a1, a1, 0x1
   1c24a: 63 81 0f 04  	beqz	t6, 0x1c28c <_vfiprintf_r+0x25a>
   1c24e: b8 10        	addi	a4, sp, 0x68
   1c250: 89 07        	addi	a5, a5, 0x2
   1c252: 18 e0        	sd	a4, 0x0(s0)
   1c254: 09 47        	li	a4, 0x2
   1c256: 18 e4        	sd	a4, 0x8(s0)
   1c258: 3e e1        	sd	a5, 0x80(sp)
   1c25a: ae dc        	sw	a1, 0x78(sp)
   1c25c: 1d 47        	li	a4, 0x7
   1c25e: 63 52 b7 5c  	bge	a4, a1, 0x1c822 <_vfiprintf_r+0x7f0>
   1c262: 63 8c 07 78  	beqz	a5, 0x1c9fa <_vfiprintf_r+0x9c8>
   1c266: 90 18        	addi	a2, sp, 0x70
   1c268: d2 85        	mv	a1, s4
   1c26a: 56 85        	mv	a0, s5
   1c26c: 9a e4        	sd	t1, 0x48(sp)
   1c26e: 46 f4        	sd	a7, 0x28(sp)
   1c270: 72 f0        	sd	t3, 0x20(sp)
   1c272: 16 ec        	sd	t0, 0x18(sp)
   1c274: ef f0 df ce  	jal	0x1bf60 <__sprint_r.part.0>
   1c278: 19 fd        	bnez	a0, 0x1c196 <_vfiprintf_r+0x164>
   1c27a: e6 56        	lw	a3, 0x78(sp)
   1c27c: 8a 67        	ld	a5, 0x80(sp)
   1c27e: 26 63        	ld	t1, 0x48(sp)
   1c280: a2 78        	ld	a7, 0x28(sp)
   1c282: 02 7e        	ld	t3, 0x20(sp)
   1c284: e2 62        	ld	t0, 0x18(sp)
   1c286: 4e 84        	mv	s0, s3
   1c288: 9b 85 16 00  	addiw	a1, a3, 0x1
   1c28c: 13 07 00 08  	li	a4, 0x80
   1c290: 63 85 e2 3e  	beq	t0, a4, 0x1c67a <_vfiprintf_r+0x648>
   1c294: bb 84 c4 41  	subw	s1, s1, t3
   1c298: 63 42 90 4a  	bgtz	s1, 0x1c73c <_vfiprintf_r+0x70a>
   1c29c: f2 97        	add	a5, a5, t3
   1c29e: 23 30 b4 01  	sd	s11, 0x0(s0)
   1c2a2: 23 34 c4 01  	sd	t3, 0x8(s0)
   1c2a6: 3e e1        	sd	a5, 0x80(sp)
   1c2a8: ae dc        	sw	a1, 0x78(sp)
   1c2aa: 1d 47        	li	a4, 0x7
   1c2ac: 63 55 b7 3c  	bge	a4, a1, 0x1c676 <_vfiprintf_r+0x644>
   1c2b0: 63 8b 07 64  	beqz	a5, 0x1c906 <_vfiprintf_r+0x8d4>
   1c2b4: 90 18        	addi	a2, sp, 0x70
   1c2b6: d2 85        	mv	a1, s4
   1c2b8: 56 85        	mv	a0, s5
   1c2ba: 1a f0        	sd	t1, 0x20(sp)
   1c2bc: 46 ec        	sd	a7, 0x18(sp)
   1c2be: ef f0 3f ca  	jal	0x1bf60 <__sprint_r.part.0>
   1c2c2: e3 1a 05 ec  	bnez	a0, 0x1c196 <_vfiprintf_r+0x164>
   1c2c6: 8a 67        	ld	a5, 0x80(sp)
   1c2c8: 02 73        	ld	t1, 0x20(sp)
   1c2ca: e2 68        	ld	a7, 0x18(sp)
   1c2cc: 4e 84        	mv	s0, s3
   1c2ce: 13 f8 4c 00  	andi	a6, s9, 0x4
   1c2d2: 63 06 08 00  	beqz	a6, 0x1c2de <_vfiprintf_r+0x2ac>
   1c2d6: bb 84 68 40  	subw	s1, a7, t1
   1c2da: 63 40 90 64  	bgtz	s1, 0x1c91a <_vfiprintf_r+0x8e8>
   1c2de: 46 87        	mv	a4, a7
   1c2e0: 63 d3 68 00  	bge	a7, t1, 0x1c2e6 <_vfiprintf_r+0x2b4>
   1c2e4: 1a 87        	mv	a4, t1
   1c2e6: 3b 0c 87 01  	addw	s8, a4, s8
   1c2ea: 63 90 07 4e  	bnez	a5, 0x1c7ca <_vfiprintf_r+0x798>
   1c2ee: 82 dc        	sw	zero, 0x78(sp)
   1c2f0: 4e 84        	mv	s0, s3
   1c2f2: d1 bb        	j	0x1c0c6 <_vfiprintf_r+0x94>
   1c2f4: 93 ec 0c 01  	ori	s9, s9, 0x10
   1c2f8: 83 47 0d 00  	lbu	a5, 0x0(s10)
   1c2fc: 81 2c        	sext.w	s9, s9
   1c2fe: 25 bd        	j	0x1c136 <_vfiprintf_r+0x104>
   1c300: 13 e8 0c 01  	ori	a6, s9, 0x10
   1c304: 9b 0c 08 00  	sext.w	s9, a6
   1c308: 93 f7 0c 02  	andi	a5, s9, 0x20
   1c30c: 93 8e 8b 00  	addi	t4, s7, 0x8
   1c310: b9 c7        	beqz	a5, 0x1c35e <_vfiprintf_r+0x32c>
   1c312: 83 b7 0b 00  	ld	a5, 0x0(s7)
   1c316: be 8b        	mv	s7, a5
   1c318: 63 c3 07 06  	bltz	a5, 0x1c37e <_vfiprintf_r+0x34c>
   1c31c: 63 cd 04 06  	bltz	s1, 0x1c396 <_vfiprintf_r+0x364>
   1c320: 13 f8 fc f7  	andi	a6, s9, -0x81
   1c324: 9b 0c 08 00  	sext.w	s9, a6
   1c328: 63 97 0b 06  	bnez	s7, 0x1c396 <_vfiprintf_r+0x364>
   1c32c: e3 9b 04 18  	bnez	s1, 0x1ccc2 <_vfiprintf_r+0xc90>
   1c330: 83 47 71 06  	lbu	a5, 0x67(sp)
   1c334: 01 43        	li	t1, 0x0
   1c336: 01 4e        	li	t3, 0x0
   1c338: f6 8b        	mv	s7, t4
   1c33a: 93 0d c1 0e  	addi	s11, sp, 0xec
   1c33e: 91 c3        	beqz	a5, 0x1c342 <_vfiprintf_r+0x310>
   1c340: 05 23        	addiw	t1, t1, 0x1
   1c342: 93 ff 2c 00  	andi	t6, s9, 0x2
   1c346: e3 84 0f ec  	beqz	t6, 0x1c20e <_vfiprintf_r+0x1dc>
   1c34a: 09 23        	addiw	t1, t1, 0x2
   1c34c: 89 4f        	li	t6, 0x2
   1c34e: c1 b5        	j	0x1c20e <_vfiprintf_r+0x1dc>
   1c350: bb 8d a4 41  	subw	s11, s1, s10
   1c354: e3 99 0d d8  	bnez	s11, 0x1c0e6 <_vfiprintf_r+0xb4>
   1c358: 83 c7 04 00  	lbu	a5, 0x0(s1)
   1c35c: c9 b3        	j	0x1c11e <_vfiprintf_r+0xec>
   1c35e: 93 f7 0c 01  	andi	a5, s9, 0x10
   1c362: c5 fb        	bnez	a5, 0x1c312 <_vfiprintf_r+0x2e0>
   1c364: 93 f7 0c 04  	andi	a5, s9, 0x40
   1c368: 83 ab 0b 00  	lw	s7, 0x0(s7)
   1c36c: e3 8f 07 0c  	beqz	a5, 0x1cc4a <_vfiprintf_r+0xc18>
   1c370: 9b 9b 0b 01  	slliw	s7, s7, 0x10
   1c374: 9b db 0b 41  	sraiw	s7, s7, 0x10
   1c378: de 87        	mv	a5, s7
   1c37a: e3 d1 07 fa  	bgez	a5, 0x1c31c <_vfiprintf_r+0x2ea>
   1c37e: 93 07 d0 02  	li	a5, 0x2d
   1c382: a3 03 f1 06  	sb	a5, 0x67(sp)
   1c386: b3 0b 70 41  	neg	s7, s7
   1c38a: 63 c6 04 00  	bltz	s1, 0x1c396 <_vfiprintf_r+0x364>
   1c38e: 13 f8 fc f7  	andi	a6, s9, -0x81
   1c392: 9b 0c 08 00  	sext.w	s9, a6
   1c396: a5 47        	li	a5, 0x9
   1c398: 63 e4 77 6b  	bltu	a5, s7, 0x1ca40 <_vfiprintf_r+0xa0e>
   1c39c: 9b 87 0b 03  	addiw	a5, s7, 0x30
   1c3a0: 93 f7 f7 0f  	andi	a5, a5, 0xff
   1c3a4: f6 8b        	mv	s7, t4
   1c3a6: a3 05 f1 0e  	sb	a5, 0xeb(sp)
   1c3aa: 1b 83 04 00  	sext.w	t1, s1
   1c3ae: 63 43 90 00  	bgtz	s1, 0x1c3b4 <_vfiprintf_r+0x382>
   1c3b2: 05 43        	li	t1, 0x1
   1c3b4: 05 4e        	li	t3, 0x1
   1c3b6: 93 0d b1 0e  	addi	s11, sp, 0xeb
   1c3ba: 83 47 71 06  	lbu	a5, 0x67(sp)
   1c3be: c9 f3        	bnez	a5, 0x1c340 <_vfiprintf_r+0x30e>
   1c3c0: 49 b7        	j	0x1c342 <_vfiprintf_r+0x310>
   1c3c2: 83 bd 0b 00  	ld	s11, 0x0(s7)
   1c3c6: a3 03 01 06  	sb	zero, 0x67(sp)
   1c3ca: a1 0b        	addi	s7, s7, 0x8
   1c3cc: e3 87 0d 04  	beqz	s11, 0x1cc1a <_vfiprintf_r+0xbe8>
   1c3d0: 46 ec        	sd	a7, 0x18(sp)
   1c3d2: 63 c8 04 7a  	bltz	s1, 0x1cb82 <_vfiprintf_r+0xb50>
   1c3d6: 26 86        	mv	a2, s1
   1c3d8: 81 45        	li	a1, 0x0
   1c3da: 6e 85        	mv	a0, s11
   1c3dc: ef b0 bf d4  	jal	0x18126 <memchr>
   1c3e0: e2 68        	ld	a7, 0x18(sp)
   1c3e2: 26 8e        	mv	t3, s1
   1c3e4: 19 c1        	beqz	a0, 0x1c3ea <_vfiprintf_r+0x3b8>
   1c3e6: 3b 0e b5 41  	subw	t3, a0, s11
   1c3ea: 13 43 fe ff  	not	t1, t3
   1c3ee: 83 47 71 06  	lbu	a5, 0x67(sp)
   1c3f2: 13 53 f3 43  	srai	t1, t1, 0x3f
   1c3f6: 33 73 6e 00  	and	t1, t3, t1
   1c3fa: 01 23        	sext.w	t1, t1
   1c3fc: 81 44        	li	s1, 0x0
   1c3fe: 81 4f        	li	t6, 0x0
   1c400: a1 f3        	bnez	a5, 0x1c340 <_vfiprintf_r+0x30e>
   1c402: 31 b5        	j	0x1c20e <_vfiprintf_r+0x1dc>
   1c404: 83 a7 0b 00  	lw	a5, 0x0(s7)
   1c408: a3 03 01 06  	sb	zero, 0x67(sp)
   1c40c: a1 0b        	addi	s7, s7, 0x8
   1c40e: 23 04 f1 08  	sb	a5, 0x88(sp)
   1c412: 05 43        	li	t1, 0x1
   1c414: 05 4e        	li	t3, 0x1
   1c416: 93 0d 81 08  	addi	s11, sp, 0x88
   1c41a: c5 bb        	j	0x1c20a <_vfiprintf_r+0x1d8>
   1c41c: 83 a8 0b 00  	lw	a7, 0x0(s7)
   1c420: a1 0b        	addi	s7, s7, 0x8
   1c422: 63 df 08 08  	bgez	a7, 0x1c4c0 <_vfiprintf_r+0x48e>
   1c426: bb 08 10 41  	negw	a7, a7
   1c42a: 93 ec 4c 00  	ori	s9, s9, 0x4
   1c42e: 83 47 0d 00  	lbu	a5, 0x0(s10)
   1c432: 81 2c        	sext.w	s9, s9
   1c434: 09 b3        	j	0x1c136 <_vfiprintf_r+0x104>
   1c436: 13 07 b0 02  	li	a4, 0x2b
   1c43a: 83 47 0d 00  	lbu	a5, 0x0(s10)
   1c43e: a3 03 e1 06  	sb	a4, 0x67(sp)
   1c442: d5 b9        	j	0x1c136 <_vfiprintf_r+0x104>
   1c444: 93 ec 0c 08  	ori	s9, s9, 0x80
   1c448: 83 47 0d 00  	lbu	a5, 0x0(s10)
   1c44c: 81 2c        	sext.w	s9, s9
   1c44e: e5 b1        	j	0x1c136 <_vfiprintf_r+0x104>
   1c450: 83 47 0d 00  	lbu	a5, 0x0(s10)
   1c454: 13 06 a0 02  	li	a2, 0x2a
   1c458: 93 06 1d 00  	addi	a3, s10, 0x1
   1c45c: e3 8d c7 08  	beq	a5, a2, 0x1ccf6 <_vfiprintf_r+0xcc4>
   1c460: 1b 87 07 fd  	addiw	a4, a5, -0x30
   1c464: 25 45        	li	a0, 0x9
   1c466: 01 46        	li	a2, 0x0
   1c468: a5 45        	li	a1, 0x9
   1c46a: 36 8d        	mv	s10, a3
   1c46c: 81 44        	li	s1, 0x0
   1c46e: e3 66 e5 cc  	bltu	a0, a4, 0x1c13a <_vfiprintf_r+0x108>
   1c472: 83 c7 06 00  	lbu	a5, 0x0(a3)
   1c476: 9b 14 26 00  	slliw	s1, a2, 0x2
   1c47a: b1 9c        	addw	s1, s1, a2
   1c47c: 9b 94 14 00  	slliw	s1, s1, 0x1
   1c480: 3b 86 e4 00  	addw	a2, s1, a4
   1c484: 1b 87 07 fd  	addiw	a4, a5, -0x30
   1c488: b2 84        	mv	s1, a2
   1c48a: 85 06        	addi	a3, a3, 0x1
   1c48c: e3 f3 e5 fe  	bgeu	a1, a4, 0x1c472 <_vfiprintf_r+0x440>
   1c490: 63 4b 06 66  	bltz	a2, 0x1cb06 <_vfiprintf_r+0xad4>
   1c494: 36 8d        	mv	s10, a3
   1c496: 55 b1        	j	0x1c13a <_vfiprintf_r+0x108>
   1c498: 56 85        	mv	a0, s5
   1c49a: 46 ec        	sd	a7, 0x18(sp)
   1c49c: ef 10 a0 12  	jal	0x1d5c6 <_localeconv_r>
   1c4a0: 1c 65        	ld	a5, 0x8(a0)
   1c4a2: 3e 85        	mv	a0, a5
   1c4a4: be e0        	sd	a5, 0x40(sp)
   1c4a6: ef c0 0f b0  	jal	0x187a6 <strlen>
   1c4aa: aa 87        	mv	a5, a0
   1c4ac: 56 85        	mv	a0, s5
   1c4ae: 3e f8        	sd	a5, 0x30(sp)
   1c4b0: ef 10 60 11  	jal	0x1d5c6 <_localeconv_r>
   1c4b4: 18 69        	ld	a4, 0x10(a0)
   1c4b6: c2 77        	ld	a5, 0x30(sp)
   1c4b8: e2 68        	ld	a7, 0x18(sp)
   1c4ba: 3a fc        	sd	a4, 0x38(sp)
   1c4bc: 63 9f 07 60  	bnez	a5, 0x1cada <_vfiprintf_r+0xaa8>
   1c4c0: 83 47 0d 00  	lbu	a5, 0x0(s10)
   1c4c4: 8d b9        	j	0x1c136 <_vfiprintf_r+0x104>
   1c4c6: 93 ec 1c 00  	ori	s9, s9, 0x1
   1c4ca: 83 47 0d 00  	lbu	a5, 0x0(s10)
   1c4ce: 81 2c        	sext.w	s9, s9
   1c4d0: 9d b1        	j	0x1c136 <_vfiprintf_r+0x104>
   1c4d2: 03 47 71 06  	lbu	a4, 0x67(sp)
   1c4d6: 83 47 0d 00  	lbu	a5, 0x0(s10)
   1c4da: e3 1e 07 c4  	bnez	a4, 0x1c136 <_vfiprintf_r+0x104>
   1c4de: 13 07 00 02  	li	a4, 0x20
   1c4e2: a3 03 e1 06  	sb	a4, 0x67(sp)
   1c4e6: 81 b9        	j	0x1c136 <_vfiprintf_r+0x104>
   1c4e8: 93 e7 0c 01  	ori	a5, s9, 0x10
   1c4ec: 81 27        	sext.w	a5, a5
   1c4ee: 13 f7 07 02  	andi	a4, a5, 0x20
   1c4f2: 93 86 8b 00  	addi	a3, s7, 0x8
   1c4f6: 09 e7        	bnez	a4, 0x1c500 <_vfiprintf_r+0x4ce>
   1c4f8: 13 f7 07 01  	andi	a4, a5, 0x10
   1c4fc: 63 06 07 5c  	beqz	a4, 0x1cac8 <_vfiprintf_r+0xa96>
   1c500: 03 b7 0b 00  	ld	a4, 0x0(s7)
   1c504: 13 f8 f7 bf  	andi	a6, a5, -0x401
   1c508: a3 03 01 06  	sb	zero, 0x67(sp)
   1c50c: 9b 0c 08 00  	sext.w	s9, a6
   1c510: b6 8b        	mv	s7, a3
   1c512: 63 c5 04 08  	bltz	s1, 0x1c59c <_vfiprintf_r+0x56a>
   1c516: 93 f7 f7 b7  	andi	a5, a5, -0x481
   1c51a: 81 27        	sext.w	a5, a5
   1c51c: 63 16 07 6c  	bnez	a4, 0x1cbe8 <_vfiprintf_r+0xbb6>
   1c520: 66 8e        	mv	t3, s9
   1c522: be 8c        	mv	s9, a5
   1c524: ad e4        	bnez	s1, 0x1c58e <_vfiprintf_r+0x55c>
   1c526: 63 18 07 50  	bnez	a4, 0x1ca36 <_vfiprintf_r+0xa04>
   1c52a: 13 7e 1e 00  	andi	t3, t3, 0x1
   1c52e: 63 09 0e 56  	beqz	t3, 0x1caa0 <_vfiprintf_r+0xa6e>
   1c532: 93 07 00 03  	li	a5, 0x30
   1c536: a3 05 f1 0e  	sb	a5, 0xeb(sp)
   1c53a: 72 83        	mv	t1, t3
   1c53c: 93 0d b1 0e  	addi	s11, sp, 0xeb
   1c540: ad bd        	j	0x1c3ba <_vfiprintf_r+0x388>
   1c542: 83 47 0d 00  	lbu	a5, 0x0(s10)
   1c546: 13 07 c0 06  	li	a4, 0x6c
   1c54a: 63 80 e7 6c  	beq	a5, a4, 0x1cc0a <_vfiprintf_r+0xbd8>
   1c54e: 93 ec 0c 01  	ori	s9, s9, 0x10
   1c552: 81 2c        	sext.w	s9, s9
   1c554: cd b6        	j	0x1c136 <_vfiprintf_r+0x104>
   1c556: 13 ee 0c 01  	ori	t3, s9, 0x10
   1c55a: 01 2e        	sext.w	t3, t3
   1c55c: 93 77 0e 02  	andi	a5, t3, 0x20
   1c560: 93 8e 8b 00  	addi	t4, s7, 0x8
   1c564: 89 e7        	bnez	a5, 0x1c56e <_vfiprintf_r+0x53c>
   1c566: 93 77 0e 01  	andi	a5, t3, 0x10
   1c56a: 63 85 07 54  	beqz	a5, 0x1cab4 <_vfiprintf_r+0xa82>
   1c56e: 83 bb 0b 00  	ld	s7, 0x0(s7)
   1c572: a3 03 01 06  	sb	zero, 0x67(sp)
   1c576: f2 8c        	mv	s9, t3
   1c578: e3 cf 04 e0  	bltz	s1, 0x1c396 <_vfiprintf_r+0x364>
   1c57c: 13 78 fe f7  	andi	a6, t3, -0x81
   1c580: 9b 0c 08 00  	sext.w	s9, a6
   1c584: e3 99 0b e0  	bnez	s7, 0x1c396 <_vfiprintf_r+0x364>
   1c588: f6 8b        	mv	s7, t4
   1c58a: 05 47        	li	a4, 0x1
   1c58c: c9 dc        	beqz	s1, 0x1c526 <_vfiprintf_r+0x4f4>
   1c58e: 85 47        	li	a5, 0x1
   1c590: 63 0a f7 72  	beq	a4, a5, 0x1ccc4 <_vfiprintf_r+0xc92>
   1c594: 89 47        	li	a5, 0x2
   1c596: 63 0a f7 6c  	beq	a4, a5, 0x1cc6a <_vfiprintf_r+0xc38>
   1c59a: 01 47        	li	a4, 0x0
   1c59c: 13 0e c1 0e  	addi	t3, sp, 0xec
   1c5a0: f2 8d        	mv	s11, t3
   1c5a2: 93 77 77 00  	andi	a5, a4, 0x7
   1c5a6: 93 87 07 03  	addi	a5, a5, 0x30
   1c5aa: a3 8f fd fe  	sb	a5, -0x1(s11)
   1c5ae: 0d 83        	srli	a4, a4, 0x3
   1c5b0: ee 86        	mv	a3, s11
   1c5b2: fd 1d        	addi	s11, s11, -0x1
   1c5b4: 7d f7        	bnez	a4, 0x1c5a2 <_vfiprintf_r+0x570>
   1c5b6: 13 f7 1c 00  	andi	a4, s9, 0x1
   1c5ba: 63 0a 07 28  	beqz	a4, 0x1c84e <_vfiprintf_r+0x81c>
   1c5be: 13 07 00 03  	li	a4, 0x30
   1c5c2: 63 86 e7 28  	beq	a5, a4, 0x1c84e <_vfiprintf_r+0x81c>
   1c5c6: f9 16        	addi	a3, a3, -0x2
   1c5c8: a3 8f ed fe  	sb	a4, -0x1(s11)
   1c5cc: 3b 0e de 40  	subw	t3, t3, a3
   1c5d0: 1b 83 04 00  	sext.w	t1, s1
   1c5d4: 63 c5 c4 53  	blt	s1, t3, 0x1cafe <_vfiprintf_r+0xacc>
   1c5d8: b6 8d        	mv	s11, a3
   1c5da: c5 b3        	j	0x1c3ba <_vfiprintf_r+0x388>
   1c5dc: 83 47 0d 00  	lbu	a5, 0x0(s10)
   1c5e0: 13 07 80 06  	li	a4, 0x68
   1c5e4: 63 8b e7 60  	beq	a5, a4, 0x1cbfa <_vfiprintf_r+0xbc8>
   1c5e8: 93 ec 0c 04  	ori	s9, s9, 0x40
   1c5ec: 81 2c        	sext.w	s9, s9
   1c5ee: a1 b6        	j	0x1c136 <_vfiprintf_r+0x104>
   1c5f0: 93 ec 0c 02  	ori	s9, s9, 0x20
   1c5f4: 83 47 0d 00  	lbu	a5, 0x0(s10)
   1c5f8: 81 2c        	sext.w	s9, s9
   1c5fa: 35 be        	j	0x1c136 <_vfiprintf_r+0x104>
   1c5fc: a1 67        	lui	a5, 0x8
   1c5fe: 93 87 07 83  	addi	a5, a5, -0x7d0
   1c602: 23 14 f1 06  	sh	a5, 0x68(sp)
   1c606: b7 17 02 00  	lui	a5, 0x21
   1c60a: 13 e8 2c 00  	ori	a6, s9, 0x2
   1c60e: 93 87 07 43  	addi	a5, a5, 0x430
   1c612: 03 b7 0b 00  	ld	a4, 0x0(s7)
   1c616: 9b 0c 08 00  	sext.w	s9, a6
   1c61a: a1 0b        	addi	s7, s7, 0x8
   1c61c: 3e e8        	sd	a5, 0x10(sp)
   1c61e: a3 03 01 06  	sb	zero, 0x67(sp)
   1c622: 63 c8 04 20  	bltz	s1, 0x1c832 <_vfiprintf_r+0x800>
   1c626: 93 f7 fc f7  	andi	a5, s9, -0x81
   1c62a: 81 27        	sext.w	a5, a5
   1c62c: 63 1f 07 1e  	bnez	a4, 0x1c82a <_vfiprintf_r+0x7f8>
   1c630: 66 8e        	mv	t3, s9
   1c632: 09 47        	li	a4, 0x2
   1c634: be 8c        	mv	s9, a5
   1c636: fd b5        	j	0x1c524 <_vfiprintf_r+0x4f2>
   1c638: 93 f7 0c 02  	andi	a5, s9, 0x20
   1c63c: 03 b7 0b 00  	ld	a4, 0x0(s7)
   1c640: 85 e3        	bnez	a5, 0x1c660 <_vfiprintf_r+0x62e>
   1c642: 93 f7 0c 01  	andi	a5, s9, 0x10
   1c646: 89 ef        	bnez	a5, 0x1c660 <_vfiprintf_r+0x62e>
   1c648: 93 f7 0c 04  	andi	a5, s9, 0x40
   1c64c: 63 9d 07 62  	bnez	a5, 0x1cc86 <_vfiprintf_r+0xc54>
   1c650: 13 f8 0c 20  	andi	a6, s9, 0x200
   1c654: 63 0c 08 68  	beqz	a6, 0x1ccec <_vfiprintf_r+0xcba>
   1c658: 23 00 87 01  	sb	s8, 0x0(a4)
   1c65c: a1 0b        	addi	s7, s7, 0x8
   1c65e: a5 b4        	j	0x1c0c6 <_vfiprintf_r+0x94>
   1c660: 23 30 87 01  	sd	s8, 0x0(a4)
   1c664: a1 0b        	addi	s7, s7, 0x8
   1c666: 85 b4        	j	0x1c0c6 <_vfiprintf_r+0x94>
   1c668: 05 47        	li	a4, 0x1
   1c66a: f2 87        	mv	a5, t3
   1c66c: ee f9        	sd	s11, 0xf0(sp)
   1c66e: f2 fd        	sd	t3, 0xf8(sp)
   1c670: 72 e1        	sd	t3, 0x80(sp)
   1c672: ba dc        	sw	a4, 0x78(sp)
   1c674: 4e 84        	mv	s0, s3
   1c676: 41 04        	addi	s0, s0, 0x10
   1c678: 99 b9        	j	0x1c2ce <_vfiprintf_r+0x29c>
   1c67a: 3b 87 68 40  	subw	a4, a7, t1
   1c67e: e3 5b e0 c0  	blez	a4, 0x1c294 <_vfiprintf_r+0x262>
   1c682: 41 46        	li	a2, 0x10
   1c684: 63 5b e6 64  	bge	a2, a4, 0x1ccda <_vfiprintf_r+0xca8>
   1c688: b7 2e 02 00  	lui	t4, 0x22
   1c68c: 93 8e 0e c2  	addi	t4, t4, -0x3e0
   1c690: 26 f4        	sd	s1, 0x28(sp)
   1c692: a2 85        	mv	a1, s0
   1c694: 41 4f        	li	t5, 0x10
   1c696: 9d 4f        	li	t6, 0x7
   1c698: 72 ec        	sd	t3, 0x18(sp)
   1c69a: 46 f0        	sd	a7, 0x20(sp)
   1c69c: 9a e4        	sd	t1, 0x48(sp)
   1c69e: 3a 84        	mv	s0, a4
   1c6a0: f6 84        	mv	s1, t4
   1c6a2: 01 a8        	j	0x1c6b2 <_vfiprintf_r+0x680>
   1c6a4: 1b 86 26 00  	addiw	a2, a3, 0x2
   1c6a8: c1 05        	addi	a1, a1, 0x10
   1c6aa: aa 86        	mv	a3, a0
   1c6ac: 41 34        	addiw	s0, s0, -0x10
   1c6ae: 63 5f 8f 02  	bge	t5, s0, 0x1c6ec <_vfiprintf_r+0x6ba>
   1c6b2: 1b 85 16 00  	addiw	a0, a3, 0x1
   1c6b6: c1 07        	addi	a5, a5, 0x10
   1c6b8: 84 e1        	sd	s1, 0x0(a1)
   1c6ba: 23 b4 e5 01  	sd	t5, 0x8(a1)
   1c6be: 3e e1        	sd	a5, 0x80(sp)
   1c6c0: aa dc        	sw	a0, 0x78(sp)
   1c6c2: e3 d1 af fe  	bge	t6, a0, 0x1c6a4 <_vfiprintf_r+0x672>
   1c6c6: 63 8a 07 10  	beqz	a5, 0x1c7da <_vfiprintf_r+0x7a8>
   1c6ca: 90 18        	addi	a2, sp, 0x70
   1c6cc: d2 85        	mv	a1, s4
   1c6ce: 56 85        	mv	a0, s5
   1c6d0: ef f0 1f 89  	jal	0x1bf60 <__sprint_r.part.0>
   1c6d4: e3 11 05 ac  	bnez	a0, 0x1c196 <_vfiprintf_r+0x164>
   1c6d8: e6 56        	lw	a3, 0x78(sp)
   1c6da: 41 4f        	li	t5, 0x10
   1c6dc: 41 34        	addiw	s0, s0, -0x10
   1c6de: 8a 67        	ld	a5, 0x80(sp)
   1c6e0: ce 85        	mv	a1, s3
   1c6e2: 1b 86 16 00  	addiw	a2, a3, 0x1
   1c6e6: 9d 4f        	li	t6, 0x7
   1c6e8: e3 45 8f fc  	blt	t5, s0, 0x1c6b2 <_vfiprintf_r+0x680>
   1c6ec: a6 8e        	mv	t4, s1
   1c6ee: 62 6e        	ld	t3, 0x18(sp)
   1c6f0: 82 78        	ld	a7, 0x20(sp)
   1c6f2: 26 63        	ld	t1, 0x48(sp)
   1c6f4: a2 74        	ld	s1, 0x28(sp)
   1c6f6: 22 87        	mv	a4, s0
   1c6f8: 2e 84        	mv	s0, a1
   1c6fa: ba 97        	add	a5, a5, a4
   1c6fc: 18 e4        	sd	a4, 0x8(s0)
   1c6fe: 23 30 d4 01  	sd	t4, 0x0(s0)
   1c702: 3e e1        	sd	a5, 0x80(sp)
   1c704: b2 dc        	sw	a2, 0x78(sp)
   1c706: 1d 47        	li	a4, 0x7
   1c708: 63 50 c7 3a  	bge	a4, a2, 0x1caa8 <_vfiprintf_r+0xa76>
   1c70c: 63 81 07 56  	beqz	a5, 0x1cc6e <_vfiprintf_r+0xc3c>
   1c710: 90 18        	addi	a2, sp, 0x70
   1c712: d2 85        	mv	a1, s4
   1c714: 56 85        	mv	a0, s5
   1c716: 1a f4        	sd	t1, 0x28(sp)
   1c718: 46 f0        	sd	a7, 0x20(sp)
   1c71a: 72 ec        	sd	t3, 0x18(sp)
   1c71c: ef f0 5f 84  	jal	0x1bf60 <__sprint_r.part.0>
   1c720: e3 1b 05 a6  	bnez	a0, 0x1c196 <_vfiprintf_r+0x164>
   1c724: 62 6e        	ld	t3, 0x18(sp)
   1c726: e6 56        	lw	a3, 0x78(sp)
   1c728: 8a 67        	ld	a5, 0x80(sp)
   1c72a: bb 84 c4 41  	subw	s1, s1, t3
   1c72e: 22 73        	ld	t1, 0x28(sp)
   1c730: 82 78        	ld	a7, 0x20(sp)
   1c732: 4e 84        	mv	s0, s3
   1c734: 9b 85 16 00  	addiw	a1, a3, 0x1
   1c738: e3 52 90 b6  	blez	s1, 0x1c29c <_vfiprintf_r+0x26a>
   1c73c: b7 2e 02 00  	lui	t4, 0x22
   1c740: 93 8e 0e c2  	addi	t4, t4, -0x3e0
   1c744: 63 53 99 06  	bge	s2, s1, 0x1c7aa <_vfiprintf_r+0x778>
   1c748: 22 87        	mv	a4, s0
   1c74a: 1d 4f        	li	t5, 0x7
   1c74c: 26 84        	mv	s0, s1
   1c74e: 72 ec        	sd	t3, 0x18(sp)
   1c750: 46 f0        	sd	a7, 0x20(sp)
   1c752: 1a f4        	sd	t1, 0x28(sp)
   1c754: da 84        	mv	s1, s6
   1c756: 01 a8        	j	0x1c766 <_vfiprintf_r+0x734>
   1c758: 9b 85 26 00  	addiw	a1, a3, 0x2
   1c75c: 41 07        	addi	a4, a4, 0x10
   1c75e: aa 86        	mv	a3, a0
   1c760: 41 34        	addiw	s0, s0, -0x10
   1c762: 63 5e 89 02  	bge	s2, s0, 0x1c79e <_vfiprintf_r+0x76c>
   1c766: 1b 85 16 00  	addiw	a0, a3, 0x1
   1c76a: c1 07        	addi	a5, a5, 0x10
   1c76c: 23 30 67 01  	sd	s6, 0x0(a4)
   1c770: 23 34 27 01  	sd	s2, 0x8(a4)
   1c774: 3e e1        	sd	a5, 0x80(sp)
   1c776: aa dc        	sw	a0, 0x78(sp)
   1c778: e3 50 af fe  	bge	t5, a0, 0x1c758 <_vfiprintf_r+0x726>
   1c77c: b9 c3        	beqz	a5, 0x1c7c2 <_vfiprintf_r+0x790>
   1c77e: 90 18        	addi	a2, sp, 0x70
   1c780: d2 85        	mv	a1, s4
   1c782: 56 85        	mv	a0, s5
   1c784: ef f0 cf fd  	jal	0x1bf60 <__sprint_r.part.0>
   1c788: e3 17 05 a0  	bnez	a0, 0x1c196 <_vfiprintf_r+0x164>
   1c78c: e6 56        	lw	a3, 0x78(sp)
   1c78e: 41 34        	addiw	s0, s0, -0x10
   1c790: 8a 67        	ld	a5, 0x80(sp)
   1c792: 4e 87        	mv	a4, s3
   1c794: 9b 85 16 00  	addiw	a1, a3, 0x1
   1c798: 1d 4f        	li	t5, 0x7
   1c79a: e3 46 89 fc  	blt	s2, s0, 0x1c766 <_vfiprintf_r+0x734>
   1c79e: 62 6e        	ld	t3, 0x18(sp)
   1c7a0: 82 78        	ld	a7, 0x20(sp)
   1c7a2: 22 73        	ld	t1, 0x28(sp)
   1c7a4: a6 8e        	mv	t4, s1
   1c7a6: a2 84        	mv	s1, s0
   1c7a8: 3a 84        	mv	s0, a4
   1c7aa: a6 97        	add	a5, a5, s1
   1c7ac: 23 30 d4 01  	sd	t4, 0x0(s0)
   1c7b0: 04 e4        	sd	s1, 0x8(s0)
   1c7b2: 3e e1        	sd	a5, 0x80(sp)
   1c7b4: ae dc        	sw	a1, 0x78(sp)
   1c7b6: 1d 47        	li	a4, 0x7
   1c7b8: 63 49 b7 20  	blt	a4, a1, 0x1c9ca <_vfiprintf_r+0x998>
   1c7bc: 41 04        	addi	s0, s0, 0x10
   1c7be: 85 25        	addiw	a1, a1, 0x1
   1c7c0: f1 bc        	j	0x1c29c <_vfiprintf_r+0x26a>
   1c7c2: 85 45        	li	a1, 0x1
   1c7c4: 81 46        	li	a3, 0x0
   1c7c6: 4e 87        	mv	a4, s3
   1c7c8: 61 bf        	j	0x1c760 <_vfiprintf_r+0x72e>
   1c7ca: 90 18        	addi	a2, sp, 0x70
   1c7cc: d2 85        	mv	a1, s4
   1c7ce: 56 85        	mv	a0, s5
   1c7d0: ef f0 0f f9  	jal	0x1bf60 <__sprint_r.part.0>
   1c7d4: e3 0d 05 b0  	beqz	a0, 0x1c2ee <_vfiprintf_r+0x2bc>
   1c7d8: 7d ba        	j	0x1c196 <_vfiprintf_r+0x164>
   1c7da: 05 46        	li	a2, 0x1
   1c7dc: 81 46        	li	a3, 0x0
   1c7de: ce 85        	mv	a1, s3
   1c7e0: f1 b5        	j	0x1c6ac <_vfiprintf_r+0x67a>
   1c7e2: 85 cb        	beqz	a5, 0x1c812 <_vfiprintf_r+0x7e0>
   1c7e4: 90 18        	addi	a2, sp, 0x70
   1c7e6: d2 85        	mv	a1, s4
   1c7e8: 56 85        	mv	a0, s5
   1c7ea: 9a e8        	sd	t1, 0x50(sp)
   1c7ec: c6 e4        	sd	a7, 0x48(sp)
   1c7ee: 72 f4        	sd	t3, 0x28(sp)
   1c7f0: 16 f0        	sd	t0, 0x20(sp)
   1c7f2: 7e ec        	sd	t6, 0x18(sp)
   1c7f4: ef f0 cf f6  	jal	0x1bf60 <__sprint_r.part.0>
   1c7f8: e3 1f 05 98  	bnez	a0, 0x1c196 <_vfiprintf_r+0x164>
   1c7fc: e6 56        	lw	a3, 0x78(sp)
   1c7fe: 8a 67        	ld	a5, 0x80(sp)
   1c800: 46 63        	ld	t1, 0x50(sp)
   1c802: a6 68        	ld	a7, 0x48(sp)
   1c804: 22 7e        	ld	t3, 0x28(sp)
   1c806: 82 72        	ld	t0, 0x20(sp)
   1c808: e2 6f        	ld	t6, 0x18(sp)
   1c80a: 4e 84        	mv	s0, s3
   1c80c: 9b 85 16 00  	addiw	a1, a3, 0x1
   1c810: 2d bc        	j	0x1c24a <_vfiprintf_r+0x218>
   1c812: 63 81 0f 2e  	beqz	t6, 0x1caf4 <_vfiprintf_r+0xac2>
   1c816: bc 10        	addi	a5, sp, 0x68
   1c818: be f9        	sd	a5, 0xf0(sp)
   1c81a: 89 47        	li	a5, 0x2
   1c81c: be fd        	sd	a5, 0xf8(sp)
   1c81e: 85 45        	li	a1, 0x1
   1c820: 4e 84        	mv	s0, s3
   1c822: ae 86        	mv	a3, a1
   1c824: 41 04        	addi	s0, s0, 0x10
   1c826: 85 25        	addiw	a1, a1, 0x1
   1c828: 95 b4        	j	0x1c28c <_vfiprintf_r+0x25a>
   1c82a: be 8c        	mv	s9, a5
   1c82c: 89 47        	li	a5, 0x2
   1c82e: e3 87 07 d6  	beqz	a5, 0x1c59c <_vfiprintf_r+0x56a>
   1c832: c2 66        	ld	a3, 0x10(sp)
   1c834: 13 0e c1 0e  	addi	t3, sp, 0xec
   1c838: f2 8d        	mv	s11, t3
   1c83a: 93 77 f7 00  	andi	a5, a4, 0xf
   1c83e: b6 97        	add	a5, a5, a3
   1c840: 83 c7 07 00  	lbu	a5, 0x0(a5)
   1c844: 11 83        	srli	a4, a4, 0x4
   1c846: fd 1d        	addi	s11, s11, -0x1
   1c848: 23 80 fd 00  	sb	a5, 0x0(s11)
   1c84c: 7d f7        	bnez	a4, 0x1c83a <_vfiprintf_r+0x808>
   1c84e: 3b 0e be 41  	subw	t3, t3, s11
   1c852: 1b 83 04 00  	sext.w	t1, s1
   1c856: e3 d2 c4 b7  	bge	s1, t3, 0x1c3ba <_vfiprintf_r+0x388>
   1c85a: 1b 03 0e 00  	sext.w	t1, t3
   1c85e: b1 be        	j	0x1c3ba <_vfiprintf_r+0x388>
   1c860: 41 45        	li	a0, 0x10
   1c862: 63 5b e5 44  	bge	a0, a4, 0x1ccb8 <_vfiprintf_r+0xc86>
   1c866: b7 2e 02 00  	lui	t4, 0x22
   1c86a: 93 8e 0e c3  	addi	t4, t4, -0x3d0
   1c86e: a6 e8        	sd	s1, 0x50(sp)
   1c870: a2 85        	mv	a1, s0
   1c872: 41 4f        	li	t5, 0x10
   1c874: 9d 43        	li	t2, 0x7
   1c876: 7e ec        	sd	t6, 0x18(sp)
   1c878: 16 f0        	sd	t0, 0x20(sp)
   1c87a: 72 f4        	sd	t3, 0x28(sp)
   1c87c: c6 e4        	sd	a7, 0x48(sp)
   1c87e: 9a ec        	sd	t1, 0x58(sp)
   1c880: 3a 84        	mv	s0, a4
   1c882: f6 84        	mv	s1, t4
   1c884: 11 a8        	j	0x1c898 <_vfiprintf_r+0x866>
   1c886: 1b 86 26 00  	addiw	a2, a3, 0x2
   1c88a: c1 05        	addi	a1, a1, 0x10
   1c88c: aa 86        	mv	a3, a0
   1c88e: 41 34        	addiw	s0, s0, -0x10
   1c890: 63 50 8f 04  	bge	t5, s0, 0x1c8d0 <_vfiprintf_r+0x89e>
   1c894: 1b 86 16 00  	addiw	a2, a3, 0x1
   1c898: c1 07        	addi	a5, a5, 0x10
   1c89a: 84 e1        	sd	s1, 0x0(a1)
   1c89c: 23 b4 e5 01  	sd	t5, 0x8(a1)
   1c8a0: 3e e1        	sd	a5, 0x80(sp)
   1c8a2: 1b 05 06 00  	sext.w	a0, a2
   1c8a6: b2 dc        	sw	a2, 0x78(sp)
   1c8a8: e3 df a3 fc  	bge	t2, a0, 0x1c886 <_vfiprintf_r+0x854>
   1c8ac: a9 cb        	beqz	a5, 0x1c8fe <_vfiprintf_r+0x8cc>
   1c8ae: 90 18        	addi	a2, sp, 0x70
   1c8b0: d2 85        	mv	a1, s4
   1c8b2: 56 85        	mv	a0, s5
   1c8b4: ef f0 cf ea  	jal	0x1bf60 <__sprint_r.part.0>
   1c8b8: e3 1f 05 8c  	bnez	a0, 0x1c196 <_vfiprintf_r+0x164>
   1c8bc: e6 56        	lw	a3, 0x78(sp)
   1c8be: 41 4f        	li	t5, 0x10
   1c8c0: 41 34        	addiw	s0, s0, -0x10
   1c8c2: 8a 67        	ld	a5, 0x80(sp)
   1c8c4: ce 85        	mv	a1, s3
   1c8c6: 1b 86 16 00  	addiw	a2, a3, 0x1
   1c8ca: 9d 43        	li	t2, 0x7
   1c8cc: e3 44 8f fc  	blt	t5, s0, 0x1c894 <_vfiprintf_r+0x862>
   1c8d0: a6 8e        	mv	t4, s1
   1c8d2: e2 6f        	ld	t6, 0x18(sp)
   1c8d4: 82 72        	ld	t0, 0x20(sp)
   1c8d6: 22 7e        	ld	t3, 0x28(sp)
   1c8d8: a6 68        	ld	a7, 0x48(sp)
   1c8da: 66 63        	ld	t1, 0x58(sp)
   1c8dc: c6 64        	ld	s1, 0x50(sp)
   1c8de: 22 87        	mv	a4, s0
   1c8e0: 2e 84        	mv	s0, a1
   1c8e2: ba 97        	add	a5, a5, a4
   1c8e4: 18 e4        	sd	a4, 0x8(s0)
   1c8e6: 23 30 d4 01  	sd	t4, 0x0(s0)
   1c8ea: 3e e1        	sd	a5, 0x80(sp)
   1c8ec: b2 dc        	sw	a2, 0x78(sp)
   1c8ee: 1d 47        	li	a4, 0x7
   1c8f0: 63 49 c7 10  	blt	a4, a2, 0x1ca02 <_vfiprintf_r+0x9d0>
   1c8f4: 41 04        	addi	s0, s0, 0x10
   1c8f6: 9b 05 16 00  	addiw	a1, a2, 0x1
   1c8fa: b2 86        	mv	a3, a2
   1c8fc: 35 b2        	j	0x1c228 <_vfiprintf_r+0x1f6>
   1c8fe: 81 46        	li	a3, 0x0
   1c900: 05 46        	li	a2, 0x1
   1c902: ce 85        	mv	a1, s3
   1c904: 69 b7        	j	0x1c88e <_vfiprintf_r+0x85c>
   1c906: 82 dc        	sw	zero, 0x78(sp)
   1c908: 13 f8 4c 00  	andi	a6, s9, 0x4
   1c90c: 63 08 08 0a  	beqz	a6, 0x1c9bc <_vfiprintf_r+0x98a>
   1c910: bb 84 68 40  	subw	s1, a7, t1
   1c914: 63 54 90 0a  	blez	s1, 0x1c9bc <_vfiprintf_r+0x98a>
   1c918: 4e 84        	mv	s0, s3
   1c91a: 41 47        	li	a4, 0x10
   1c91c: e6 56        	lw	a3, 0x78(sp)
   1c91e: 63 57 97 3a  	bge	a4, s1, 0x1cccc <_vfiprintf_r+0xc9a>
   1c922: b7 2e 02 00  	lui	t4, 0x22
   1c926: 93 8e 0e c3  	addi	t4, t4, -0x3d0
   1c92a: 22 86        	mv	a2, s0
   1c92c: c1 4d        	li	s11, 0x10
   1c92e: 26 84        	mv	s0, s1
   1c930: 9d 4c        	li	s9, 0x7
   1c932: 46 ec        	sd	a7, 0x18(sp)
   1c934: 1a f0        	sd	t1, 0x20(sp)
   1c936: f6 84        	mv	s1, t4
   1c938: 01 a8        	j	0x1c948 <_vfiprintf_r+0x916>
   1c93a: 1b 87 26 00  	addiw	a4, a3, 0x2
   1c93e: 41 06        	addi	a2, a2, 0x10
   1c940: ae 86        	mv	a3, a1
   1c942: 41 34        	addiw	s0, s0, -0x10
   1c944: 63 dc 8d 02  	bge	s11, s0, 0x1c97c <_vfiprintf_r+0x94a>
   1c948: 9b 85 16 00  	addiw	a1, a3, 0x1
   1c94c: c1 07        	addi	a5, a5, 0x10
   1c94e: 04 e2        	sd	s1, 0x0(a2)
   1c950: 23 34 b6 01  	sd	s11, 0x8(a2)
   1c954: 3e e1        	sd	a5, 0x80(sp)
   1c956: ae dc        	sw	a1, 0x78(sp)
   1c958: e3 d1 bc fe  	bge	s9, a1, 0x1c93a <_vfiprintf_r+0x908>
   1c95c: a1 cf        	beqz	a5, 0x1c9b4 <_vfiprintf_r+0x982>
   1c95e: 90 18        	addi	a2, sp, 0x70
   1c960: d2 85        	mv	a1, s4
   1c962: 56 85        	mv	a0, s5
   1c964: ef f0 cf df  	jal	0x1bf60 <__sprint_r.part.0>
   1c968: e3 17 05 82  	bnez	a0, 0x1c196 <_vfiprintf_r+0x164>
   1c96c: e6 56        	lw	a3, 0x78(sp)
   1c96e: 41 34        	addiw	s0, s0, -0x10
   1c970: 8a 67        	ld	a5, 0x80(sp)
   1c972: 4e 86        	mv	a2, s3
   1c974: 1b 87 16 00  	addiw	a4, a3, 0x1
   1c978: e3 c8 8d fc  	blt	s11, s0, 0x1c948 <_vfiprintf_r+0x916>
   1c97c: e2 68        	ld	a7, 0x18(sp)
   1c97e: 02 73        	ld	t1, 0x20(sp)
   1c980: a6 8e        	mv	t4, s1
   1c982: a2 84        	mv	s1, s0
   1c984: 32 84        	mv	s0, a2
   1c986: a6 97        	add	a5, a5, s1
   1c988: 23 30 d4 01  	sd	t4, 0x0(s0)
   1c98c: 04 e4        	sd	s1, 0x8(s0)
   1c98e: 3e e1        	sd	a5, 0x80(sp)
   1c990: ba dc        	sw	a4, 0x78(sp)
   1c992: 9d 46        	li	a3, 0x7
   1c994: e3 d5 e6 94  	bge	a3, a4, 0x1c2de <_vfiprintf_r+0x2ac>
   1c998: 95 c3        	beqz	a5, 0x1c9bc <_vfiprintf_r+0x98a>
   1c99a: 90 18        	addi	a2, sp, 0x70
   1c99c: d2 85        	mv	a1, s4
   1c99e: 56 85        	mv	a0, s5
   1c9a0: 1a f0        	sd	t1, 0x20(sp)
   1c9a2: 46 ec        	sd	a7, 0x18(sp)
   1c9a4: ef f0 cf db  	jal	0x1bf60 <__sprint_r.part.0>
   1c9a8: 63 17 05 fe  	bnez	a0, 0x1c196 <_vfiprintf_r+0x164>
   1c9ac: 8a 67        	ld	a5, 0x80(sp)
   1c9ae: 02 73        	ld	t1, 0x20(sp)
   1c9b0: e2 68        	ld	a7, 0x18(sp)
   1c9b2: 35 b2        	j	0x1c2de <_vfiprintf_r+0x2ac>
   1c9b4: 05 47        	li	a4, 0x1
   1c9b6: 81 46        	li	a3, 0x0
   1c9b8: 4e 86        	mv	a2, s3
   1c9ba: 61 b7        	j	0x1c942 <_vfiprintf_r+0x910>
   1c9bc: c6 87        	mv	a5, a7
   1c9be: 63 d3 68 00  	bge	a7, t1, 0x1c9c4 <_vfiprintf_r+0x992>
   1c9c2: 9a 87        	mv	a5, t1
   1c9c4: 3b 8c 87 01  	addw	s8, a5, s8
   1c9c8: 1d b2        	j	0x1c2ee <_vfiprintf_r+0x2bc>
   1c9ca: e3 8f 07 c8  	beqz	a5, 0x1c668 <_vfiprintf_r+0x636>
   1c9ce: 90 18        	addi	a2, sp, 0x70
   1c9d0: d2 85        	mv	a1, s4
   1c9d2: 56 85        	mv	a0, s5
   1c9d4: 1a f4        	sd	t1, 0x28(sp)
   1c9d6: 46 f0        	sd	a7, 0x20(sp)
   1c9d8: 72 ec        	sd	t3, 0x18(sp)
   1c9da: ef f0 6f d8  	jal	0x1bf60 <__sprint_r.part.0>
   1c9de: 63 1c 05 fa  	bnez	a0, 0x1c196 <_vfiprintf_r+0x164>
   1c9e2: e6 55        	lw	a1, 0x78(sp)
   1c9e4: 8a 67        	ld	a5, 0x80(sp)
   1c9e6: 22 73        	ld	t1, 0x28(sp)
   1c9e8: 82 78        	ld	a7, 0x20(sp)
   1c9ea: 62 6e        	ld	t3, 0x18(sp)
   1c9ec: 4e 84        	mv	s0, s3
   1c9ee: 85 25        	addiw	a1, a1, 0x1
   1c9f0: 75 b0        	j	0x1c29c <_vfiprintf_r+0x26a>
   1c9f2: 82 dc        	sw	zero, 0x78(sp)
   1c9f4: 4e 84        	mv	s0, s3
   1c9f6: 6f f0 0f f2  	j	0x1c116 <_vfiprintf_r+0xe4>
   1c9fa: 85 45        	li	a1, 0x1
   1c9fc: 81 46        	li	a3, 0x0
   1c9fe: 4e 84        	mv	s0, s3
   1ca00: 71 b0        	j	0x1c28c <_vfiprintf_r+0x25a>
   1ca02: 63 87 07 18  	beqz	a5, 0x1cb90 <_vfiprintf_r+0xb5e>
   1ca06: 90 18        	addi	a2, sp, 0x70
   1ca08: d2 85        	mv	a1, s4
   1ca0a: 56 85        	mv	a0, s5
   1ca0c: 9a e8        	sd	t1, 0x50(sp)
   1ca0e: c6 e4        	sd	a7, 0x48(sp)
   1ca10: 72 f4        	sd	t3, 0x28(sp)
   1ca12: 16 f0        	sd	t0, 0x20(sp)
   1ca14: 7e ec        	sd	t6, 0x18(sp)
   1ca16: ef f0 af d4  	jal	0x1bf60 <__sprint_r.part.0>
   1ca1a: 63 1e 05 f6  	bnez	a0, 0x1c196 <_vfiprintf_r+0x164>
   1ca1e: e6 56        	lw	a3, 0x78(sp)
   1ca20: 8a 67        	ld	a5, 0x80(sp)
   1ca22: 46 63        	ld	t1, 0x50(sp)
   1ca24: a6 68        	ld	a7, 0x48(sp)
   1ca26: 22 7e        	ld	t3, 0x28(sp)
   1ca28: 82 72        	ld	t0, 0x20(sp)
   1ca2a: e2 6f        	ld	t6, 0x18(sp)
   1ca2c: 4e 84        	mv	s0, s3
   1ca2e: 9b 85 16 00  	addiw	a1, a3, 0x1
   1ca32: 6f f0 6f ff  	j	0x1c228 <_vfiprintf_r+0x1f6>
   1ca36: 01 43        	li	t1, 0x0
   1ca38: 01 4e        	li	t3, 0x0
   1ca3a: 93 0d c1 0e  	addi	s11, sp, 0xec
   1ca3e: b5 ba        	j	0x1c3ba <_vfiprintf_r+0x388>
   1ca40: 13 0e c1 0e  	addi	t3, sp, 0xec
   1ca44: 62 78        	ld	a6, 0x38(sp)
   1ca46: 13 ff 0c 40  	andi	t5, s9, 0x400
   1ca4a: 01 46        	li	a2, 0x0
   1ca4c: 72 87        	mv	a4, t3
   1ca4e: a9 46        	li	a3, 0xa
   1ca50: 25 43        	li	t1, 0x9
   1ca52: 93 0f f0 0f  	li	t6, 0xff
   1ca56: 39 a0        	j	0x1ca64 <_vfiprintf_r+0xa32>
   1ca58: b3 d7 db 02  	divu	a5, s7, a3
   1ca5c: 63 77 73 03  	bgeu	t1, s7, 0x1ca8a <_vfiprintf_r+0xa58>
   1ca60: be 8b        	mv	s7, a5
   1ca62: 6e 87        	mv	a4, s11
   1ca64: 93 0d f7 ff  	addi	s11, a4, -0x1
   1ca68: 05 26        	addiw	a2, a2, 0x1
   1ca6a: b3 f7 db 02  	remu	a5, s7, a3
   1ca6e: 9b 87 07 03  	addiw	a5, a5, 0x30
   1ca72: a3 0f f7 fe  	sb	a5, -0x1(a4)
   1ca76: e3 01 0f fe  	beqz	t5, 0x1ca58 <_vfiprintf_r+0xa26>
   1ca7a: 83 47 08 00  	lbu	a5, 0x0(a6)
   1ca7e: e3 9d c7 fc  	bne	a5, a2, 0x1ca58 <_vfiprintf_r+0xa26>
   1ca82: e3 8b f7 fd  	beq	a5, t6, 0x1ca58 <_vfiprintf_r+0xa26>
   1ca86: 63 61 73 13  	bltu	t1, s7, 0x1cba8 <_vfiprintf_r+0xb76>
   1ca8a: 42 fc        	sd	a6, 0x38(sp)
   1ca8c: 3b 0e be 41  	subw	t3, t3, s11
   1ca90: 1b 83 04 00  	sext.w	t1, s1
   1ca94: 63 d4 c4 01  	bge	s1, t3, 0x1ca9c <_vfiprintf_r+0xa6a>
   1ca98: 1b 03 0e 00  	sext.w	t1, t3
   1ca9c: f6 8b        	mv	s7, t4
   1ca9e: 31 ba        	j	0x1c3ba <_vfiprintf_r+0x388>
   1caa0: 01 43        	li	t1, 0x0
   1caa2: 93 0d c1 0e  	addi	s11, sp, 0xec
   1caa6: 11 ba        	j	0x1c3ba <_vfiprintf_r+0x388>
   1caa8: 41 04        	addi	s0, s0, 0x10
   1caaa: 9b 05 16 00  	addiw	a1, a2, 0x1
   1caae: b2 86        	mv	a3, a2
   1cab0: 6f f0 4f fe  	j	0x1c294 <_vfiprintf_r+0x262>
   1cab4: 93 77 0e 04  	andi	a5, t3, 0x40
   1cab8: 83 ab 0b 00  	lw	s7, 0x0(s7)
   1cabc: 63 81 07 1a  	beqz	a5, 0x1cc5e <_vfiprintf_r+0xc2c>
   1cac0: c2 1b        	slli	s7, s7, 0x30
   1cac2: 93 db 0b 03  	srli	s7, s7, 0x30
   1cac6: 75 b4        	j	0x1c572 <_vfiprintf_r+0x540>
   1cac8: 13 f6 07 04  	andi	a2, a5, 0x40
   1cacc: 03 a7 0b 00  	lw	a4, 0x0(s7)
   1cad0: 63 07 06 16  	beqz	a2, 0x1cc3e <_vfiprintf_r+0xc0c>
   1cad4: 42 17        	slli	a4, a4, 0x30
   1cad6: 41 93        	srli	a4, a4, 0x30
   1cad8: 35 b4        	j	0x1c504 <_vfiprintf_r+0x4d2>
   1cada: 83 47 0d 00  	lbu	a5, 0x0(s10)
   1cade: 63 0c 07 e4  	beqz	a4, 0x1c136 <_vfiprintf_r+0x104>
   1cae2: 03 47 07 00  	lbu	a4, 0x0(a4)
   1cae6: 63 08 07 e4  	beqz	a4, 0x1c136 <_vfiprintf_r+0x104>
   1caea: 93 ec 0c 40  	ori	s9, s9, 0x400
   1caee: 81 2c        	sext.w	s9, s9
   1caf0: 6f f0 6f e4  	j	0x1c136 <_vfiprintf_r+0x104>
   1caf4: 81 46        	li	a3, 0x0
   1caf6: 85 45        	li	a1, 0x1
   1caf8: 4e 84        	mv	s0, s3
   1cafa: 6f f0 2f f9  	j	0x1c28c <_vfiprintf_r+0x25a>
   1cafe: 1b 03 0e 00  	sext.w	t1, t3
   1cb02: b6 8d        	mv	s11, a3
   1cb04: 5d b8        	j	0x1c3ba <_vfiprintf_r+0x388>
   1cb06: fd 54        	li	s1, -0x1
   1cb08: 36 8d        	mv	s10, a3
   1cb0a: 6f f0 0f e3  	j	0x1c13a <_vfiprintf_r+0x108>
   1cb0e: 37 17 02 00  	lui	a4, 0x21
   1cb12: 13 07 87 44  	addi	a4, a4, 0x448
   1cb16: 3a e8        	sd	a4, 0x10(sp)
   1cb18: 13 f7 0c 02  	andi	a4, s9, 0x20
   1cb1c: 93 86 8b 00  	addi	a3, s7, 0x8
   1cb20: 31 ef        	bnez	a4, 0x1cb7c <_vfiprintf_r+0xb4a>
   1cb22: 13 f7 0c 01  	andi	a4, s9, 0x10
   1cb26: 39 eb        	bnez	a4, 0x1cb7c <_vfiprintf_r+0xb4a>
   1cb28: 13 f6 0c 04  	andi	a2, s9, 0x40
   1cb2c: 03 a7 0b 00  	lw	a4, 0x0(s7)
   1cb30: 63 01 06 10  	beqz	a2, 0x1cc32 <_vfiprintf_r+0xc00>
   1cb34: 42 17        	slli	a4, a4, 0x30
   1cb36: 41 93        	srli	a4, a4, 0x30
   1cb38: 13 f6 1c 00  	andi	a2, s9, 0x1
   1cb3c: 01 ce        	beqz	a2, 0x1cb54 <_vfiprintf_r+0xb22>
   1cb3e: 19 cb        	beqz	a4, 0x1cb54 <_vfiprintf_r+0xb22>
   1cb40: 13 e8 2c 00  	ori	a6, s9, 0x2
   1cb44: 13 06 00 03  	li	a2, 0x30
   1cb48: 23 04 c1 06  	sb	a2, 0x68(sp)
   1cb4c: a3 04 f1 06  	sb	a5, 0x69(sp)
   1cb50: 9b 0c 08 00  	sext.w	s9, a6
   1cb54: 13 f8 fc bf  	andi	a6, s9, -0x401
   1cb58: 9b 0c 08 00  	sext.w	s9, a6
   1cb5c: b6 8b        	mv	s7, a3
   1cb5e: c1 b4        	j	0x1c61e <_vfiprintf_r+0x5ec>
   1cb60: 66 8e        	mv	t3, s9
   1cb62: ed ba        	j	0x1c55c <_vfiprintf_r+0x52a>
   1cb64: e6 87        	mv	a5, s9
   1cb66: 61 b2        	j	0x1c4ee <_vfiprintf_r+0x4bc>
   1cb68: 37 17 02 00  	lui	a4, 0x21
   1cb6c: 13 07 07 43  	addi	a4, a4, 0x430
   1cb70: 3a e8        	sd	a4, 0x10(sp)
   1cb72: 13 f7 0c 02  	andi	a4, s9, 0x20
   1cb76: 93 86 8b 00  	addi	a3, s7, 0x8
   1cb7a: 45 d7        	beqz	a4, 0x1cb22 <_vfiprintf_r+0xaf0>
   1cb7c: 03 b7 0b 00  	ld	a4, 0x0(s7)
   1cb80: 65 bf        	j	0x1cb38 <_vfiprintf_r+0xb06>
   1cb82: 6e 85        	mv	a0, s11
   1cb84: ef b0 3f c2  	jal	0x187a6 <strlen>
   1cb88: e2 68        	ld	a7, 0x18(sp)
   1cb8a: 1b 0e 05 00  	sext.w	t3, a0
   1cb8e: b1 b8        	j	0x1c3ea <_vfiprintf_r+0x3b8>
   1cb90: 03 47 71 06  	lbu	a4, 0x67(sp)
   1cb94: 65 c7        	beqz	a4, 0x1cc7c <_vfiprintf_r+0xc4a>
   1cb96: 93 07 71 06  	addi	a5, sp, 0x67
   1cb9a: be f9        	sd	a5, 0xf0(sp)
   1cb9c: 85 47        	li	a5, 0x1
   1cb9e: be fd        	sd	a5, 0xf8(sp)
   1cba0: 85 45        	li	a1, 0x1
   1cba2: 4e 84        	mv	s0, s3
   1cba4: 6f f0 0f ea  	j	0x1c244 <_vfiprintf_r+0x212>
   1cba8: c2 77        	ld	a5, 0x30(sp)
   1cbaa: 86 65        	ld	a1, 0x40(sp)
   1cbac: f2 e4        	sd	t3, 0x48(sp)
   1cbae: b3 8d fd 40  	sub	s11, s11, a5
   1cbb2: 3e 86        	mv	a2, a5
   1cbb4: 6e 85        	mv	a0, s11
   1cbb6: 76 fc        	sd	t4, 0x38(sp)
   1cbb8: 7a f4        	sd	t5, 0x28(sp)
   1cbba: 46 f0        	sd	a7, 0x20(sp)
   1cbbc: 42 ec        	sd	a6, 0x18(sp)
   1cbbe: ef 00 f0 16  	jal	0x1d52c <strncpy>
   1cbc2: 62 68        	ld	a6, 0x18(sp)
   1cbc4: a9 47        	li	a5, 0xa
   1cbc6: b3 d7 fb 02  	divu	a5, s7, a5
   1cbca: 03 47 18 00  	lbu	a4, 0x1(a6)
   1cbce: 82 78        	ld	a7, 0x20(sp)
   1cbd0: 22 7f        	ld	t5, 0x28(sp)
   1cbd2: 33 37 e0 00  	snez	a4, a4
   1cbd6: e2 7e        	ld	t4, 0x38(sp)
   1cbd8: 26 6e        	ld	t3, 0x48(sp)
   1cbda: 3a 98        	add	a6, a6, a4
   1cbdc: 01 46        	li	a2, 0x0
   1cbde: a9 46        	li	a3, 0xa
   1cbe0: 25 43        	li	t1, 0x9
   1cbe2: 93 0f f0 0f  	li	t6, 0xff
   1cbe6: ad bd        	j	0x1ca60 <_vfiprintf_r+0xa2e>
   1cbe8: be 8c        	mv	s9, a5
   1cbea: 81 47        	li	a5, 0x0
   1cbec: e3 88 07 9a  	beqz	a5, 0x1c59c <_vfiprintf_r+0x56a>
   1cbf0: 89 b1        	j	0x1c832 <_vfiprintf_r+0x800>
   1cbf2: ef a0 5f 93  	jal	0x17526 <__sinit>
   1cbf6: 6f f0 af c5  	j	0x1c050 <_vfiprintf_r+0x1e>
   1cbfa: 93 ec 0c 20  	ori	s9, s9, 0x200
   1cbfe: 83 47 1d 00  	lbu	a5, 0x1(s10)
   1cc02: 81 2c        	sext.w	s9, s9
   1cc04: 05 0d        	addi	s10, s10, 0x1
   1cc06: 6f f0 0f d3  	j	0x1c136 <_vfiprintf_r+0x104>
   1cc0a: 93 ec 0c 02  	ori	s9, s9, 0x20
   1cc0e: 83 47 1d 00  	lbu	a5, 0x1(s10)
   1cc12: 81 2c        	sext.w	s9, s9
   1cc14: 05 0d        	addi	s10, s10, 0x1
   1cc16: 6f f0 0f d2  	j	0x1c136 <_vfiprintf_r+0x104>
   1cc1a: 99 47        	li	a5, 0x6
   1cc1c: 1b 8e 04 00  	sext.w	t3, s1
   1cc20: 63 ec 97 04  	bltu	a5, s1, 0x1cc78 <_vfiprintf_r+0xc46>
   1cc24: b7 1d 02 00  	lui	s11, 0x21
   1cc28: 72 83        	mv	t1, t3
   1cc2a: 93 8d 0d 46  	addi	s11, s11, 0x460
   1cc2e: 6f f0 cf dd  	j	0x1c20a <_vfiprintf_r+0x1d8>
   1cc32: 13 f6 0c 20  	andi	a2, s9, 0x200
   1cc36: 3d c6        	beqz	a2, 0x1cca4 <_vfiprintf_r+0xc72>
   1cc38: 13 77 f7 0f  	andi	a4, a4, 0xff
   1cc3c: f5 bd        	j	0x1cb38 <_vfiprintf_r+0xb06>
   1cc3e: 13 f6 07 20  	andi	a2, a5, 0x200
   1cc42: 31 ce        	beqz	a2, 0x1cc9e <_vfiprintf_r+0xc6c>
   1cc44: 13 77 f7 0f  	andi	a4, a4, 0xff
   1cc48: 75 b8        	j	0x1c504 <_vfiprintf_r+0x4d2>
   1cc4a: 93 f7 0c 20  	andi	a5, s9, 0x200
   1cc4e: a9 c7        	beqz	a5, 0x1cc98 <_vfiprintf_r+0xc66>
   1cc50: 9b 9b 8b 01  	slliw	s7, s7, 0x18
   1cc54: 9b db 8b 41  	sraiw	s7, s7, 0x18
   1cc58: de 87        	mv	a5, s7
   1cc5a: 6f f0 ef eb  	j	0x1c318 <_vfiprintf_r+0x2e6>
   1cc5e: 93 77 0e 20  	andi	a5, t3, 0x200
   1cc62: 9d c7        	beqz	a5, 0x1cc90 <_vfiprintf_r+0xc5e>
   1cc64: 93 fb fb 0f  	andi	s7, s7, 0xff
   1cc68: 29 b2        	j	0x1c572 <_vfiprintf_r+0x540>
   1cc6a: 01 47        	li	a4, 0x0
   1cc6c: d9 b6        	j	0x1c832 <_vfiprintf_r+0x800>
   1cc6e: 85 45        	li	a1, 0x1
   1cc70: 81 46        	li	a3, 0x0
   1cc72: 4e 84        	mv	s0, s3
   1cc74: 6f f0 0f e2  	j	0x1c294 <_vfiprintf_r+0x262>
   1cc78: 19 4e        	li	t3, 0x6
   1cc7a: 6d b7        	j	0x1cc24 <_vfiprintf_r+0xbf2>
   1cc7c: 81 46        	li	a3, 0x0
   1cc7e: 85 45        	li	a1, 0x1
   1cc80: 4e 84        	mv	s0, s3
   1cc82: 6f f0 8f dc  	j	0x1c24a <_vfiprintf_r+0x218>
   1cc86: 23 10 87 01  	sh	s8, 0x0(a4)
   1cc8a: a1 0b        	addi	s7, s7, 0x8
   1cc8c: 6f f0 af c3  	j	0x1c0c6 <_vfiprintf_r+0x94>
   1cc90: 82 1b        	slli	s7, s7, 0x20
   1cc92: 93 db 0b 02  	srli	s7, s7, 0x20
   1cc96: f1 b8        	j	0x1c572 <_vfiprintf_r+0x540>
   1cc98: de 87        	mv	a5, s7
   1cc9a: 6f f0 ef e7  	j	0x1c318 <_vfiprintf_r+0x2e6>
   1cc9e: 02 17        	slli	a4, a4, 0x20
   1cca0: 01 93        	srli	a4, a4, 0x20
   1cca2: 8d b0        	j	0x1c504 <_vfiprintf_r+0x4d2>
   1cca4: 02 17        	slli	a4, a4, 0x20
   1cca6: 01 93        	srli	a4, a4, 0x20
   1cca8: 41 bd        	j	0x1cb38 <_vfiprintf_r+0xb06>
   1ccaa: 90 18        	addi	a2, sp, 0x70
   1ccac: d2 85        	mv	a1, s4
   1ccae: 56 85        	mv	a0, s5
   1ccb0: ef f0 0f ab  	jal	0x1bf60 <__sprint_r.part.0>
   1ccb4: 6f f0 2f ce  	j	0x1c196 <_vfiprintf_r+0x164>
   1ccb8: b7 2e 02 00  	lui	t4, 0x22
   1ccbc: 93 8e 0e c3  	addi	t4, t4, -0x3d0
   1ccc0: 0d b1        	j	0x1c8e2 <_vfiprintf_r+0x8b0>
   1ccc2: f6 8b        	mv	s7, t4
   1ccc4: 93 07 00 03  	li	a5, 0x30
   1ccc8: 6f f0 ef ed  	j	0x1c3a6 <_vfiprintf_r+0x374>
   1cccc: b7 2e 02 00  	lui	t4, 0x22
   1ccd0: 1b 87 16 00  	addiw	a4, a3, 0x1
   1ccd4: 93 8e 0e c3  	addi	t4, t4, -0x3d0
   1ccd8: 7d b1        	j	0x1c986 <_vfiprintf_r+0x954>
   1ccda: b7 2e 02 00  	lui	t4, 0x22
   1ccde: 2e 86        	mv	a2, a1
   1cce0: 93 8e 0e c2  	addi	t4, t4, -0x3e0
   1cce4: 19 bc        	j	0x1c6fa <_vfiprintf_r+0x6c8>
   1cce6: 7d 5c        	li	s8, -0x1
   1cce8: 6f f0 8f cc  	j	0x1c1b0 <_vfiprintf_r+0x17e>
   1ccec: 23 20 87 01  	sw	s8, 0x0(a4)
   1ccf0: a1 0b        	addi	s7, s7, 0x8
   1ccf2: 6f f0 4f bd  	j	0x1c0c6 <_vfiprintf_r+0x94>
   1ccf6: 83 a7 0b 00  	lw	a5, 0x0(s7)
   1ccfa: a1 0b        	addi	s7, s7, 0x8
   1ccfc: 9b 84 07 00  	sext.w	s1, a5
   1cd00: 63 d3 07 00  	bgez	a5, 0x1cd06 <_vfiprintf_r+0xcd4>
   1cd04: fd 54        	li	s1, -0x1
   1cd06: 83 47 1d 00  	lbu	a5, 0x1(s10)
   1cd0a: 36 8d        	mv	s10, a3
   1cd0c: 6f f0 af c2  	j	0x1c136 <_vfiprintf_r+0x104>

000000000001cd10 <vfiprintf>:
   1cd10: aa 87        	mv	a5, a0
   1cd12: 03 b5 01 23  	ld	a0, 0x230(gp)
   1cd16: b2 86        	mv	a3, a2
   1cd18: 2e 86        	mv	a2, a1
   1cd1a: be 85        	mv	a1, a5
   1cd1c: 6f f0 6f b1  	j	0x1c032 <_vfiprintf_r>

000000000001cd20 <__sbprintf>:
   1cd20: 13 01 01 b3  	addi	sp, sp, -0x4d0
   1cd24: 03 d7 25 01  	lhu	a4, 0x12(a1)
   1cd28: 83 d7 05 01  	lhu	a5, 0x10(a1)
   1cd2c: 23 30 81 4c  	sd	s0, 0x4c0(sp)
   1cd30: 2e 84        	mv	s0, a1
   1cd32: c1 65        	lui	a1, 0x10
   1cd34: f5 35        	addiw	a1, a1, -0x3
   1cd36: 03 2e c4 0a  	lw	t3, 0xac(s0)
   1cd3a: 03 33 04 03  	ld	t1, 0x30(s0)
   1cd3e: 83 38 04 04  	ld	a7, 0x40(s0)
   1cd42: 1b 17 07 01  	slliw	a4, a4, 0x10
   1cd46: ed 8f        	and	a5, a5, a1
   1cd48: d9 8f        	or	a5, a5, a4
   1cd4a: 13 08 00 40  	li	a6, 0x400
   1cd4e: 3e c8        	sw	a5, 0x10(sp)
   1cd50: 8a 85        	mv	a1, sp
   1cd52: 1c 19        	addi	a5, sp, 0xb0
   1cd54: 23 3c 91 4a  	sd	s1, 0x4b8(sp)
   1cd58: 23 38 21 4b  	sd	s2, 0x4b0(sp)
   1cd5c: 23 34 11 4c  	sd	ra, 0x4c8(sp)
   1cd60: 2a 89        	mv	s2, a0
   1cd62: 72 d7        	sw	t3, 0xac(sp)
   1cd64: 1a f8        	sd	t1, 0x30(sp)
   1cd66: c6 e0        	sd	a7, 0x40(sp)
   1cd68: 3e e0        	sd	a5, 0x0(sp)
   1cd6a: 3e ec        	sd	a5, 0x18(sp)
   1cd6c: 42 c6        	sw	a6, 0xc(sp)
   1cd6e: 42 d0        	sw	a6, 0x20(sp)
   1cd70: 02 d4        	sw	zero, 0x28(sp)
   1cd72: ef f0 0f ac  	jal	0x1c032 <_vfiprintf_r>
   1cd76: aa 84        	mv	s1, a0
   1cd78: 63 59 05 02  	bgez	a0, 0x1cdaa <__sbprintf+0x8a>
   1cd7c: 83 57 01 01  	lhu	a5, 0x10(sp)
   1cd80: 93 f7 07 04  	andi	a5, a5, 0x40
   1cd84: 99 c7        	beqz	a5, 0x1cd92 <__sbprintf+0x72>
   1cd86: 83 57 04 01  	lhu	a5, 0x10(s0)
   1cd8a: 93 e7 07 04  	ori	a5, a5, 0x40
   1cd8e: 23 18 f4 00  	sh	a5, 0x10(s0)
   1cd92: 83 30 81 4c  	ld	ra, 0x4c8(sp)
   1cd96: 03 34 01 4c  	ld	s0, 0x4c0(sp)
   1cd9a: 03 39 01 4b  	ld	s2, 0x4b0(sp)
   1cd9e: 26 85        	mv	a0, s1
   1cda0: 83 34 81 4b  	ld	s1, 0x4b8(sp)
   1cda4: 13 01 01 4d  	addi	sp, sp, 0x4d0
   1cda8: 82 80        	ret
   1cdaa: 8a 85        	mv	a1, sp
   1cdac: 4a 85        	mv	a0, s2
   1cdae: ef a0 8f b5  	jal	0x17106 <_fflush_r>
   1cdb2: 69 d5        	beqz	a0, 0x1cd7c <__sbprintf+0x5c>
   1cdb4: fd 54        	li	s1, -0x1
   1cdb6: d9 b7        	j	0x1cd7c <__sbprintf+0x5c>

000000000001cdb8 <__sflags>:
   1cdb8: 83 c7 05 00  	lbu	a5, 0x0(a1)
   1cdbc: 13 07 20 07  	li	a4, 0x72
   1cdc0: 63 82 e7 06  	beq	a5, a4, 0x1ce24 <__sflags+0x6c>
   1cdc4: 13 07 70 07  	li	a4, 0x77
   1cdc8: 63 8a e7 00  	beq	a5, a4, 0x1cddc <__sflags+0x24>
   1cdcc: 13 07 10 06  	li	a4, 0x61
   1cdd0: 63 8e e7 04  	beq	a5, a4, 0x1ce2c <__sflags+0x74>
   1cdd4: d9 47        	li	a5, 0x16
   1cdd6: 1c c1        	sw	a5, 0x0(a0)
   1cdd8: 01 45        	li	a0, 0x0
   1cdda: 82 80        	ret
   1cddc: 13 03 00 60  	li	t1, 0x600
   1cde0: 05 47        	li	a4, 0x1
   1cde2: 21 45        	li	a0, 0x8
   1cde4: 83 c7 15 00  	lbu	a5, 0x1(a1)
   1cde8: 85 68        	lui	a7, 0x1
   1cdea: 85 05        	addi	a1, a1, 0x1
   1cdec: 93 06 b0 02  	li	a3, 0x2b
   1cdf0: 13 08 80 07  	li	a6, 0x78
   1cdf4: 93 88 08 80  	addi	a7, a7, -0x800
   1cdf8: 99 cb        	beqz	a5, 0x1ce0e <__sflags+0x56>
   1cdfa: 63 8e d7 00  	beq	a5, a3, 0x1ce16 <__sflags+0x5e>
   1cdfe: 63 94 07 01  	bne	a5, a6, 0x1ce06 <__sflags+0x4e>
   1ce02: 33 67 17 01  	or	a4, a4, a7
   1ce06: 83 c7 15 00  	lbu	a5, 0x1(a1)
   1ce0a: 85 05        	addi	a1, a1, 0x1
   1ce0c: fd f7        	bnez	a5, 0x1cdfa <__sflags+0x42>
   1ce0e: b3 67 e3 00  	or	a5, t1, a4
   1ce12: 1c c2        	sw	a5, 0x0(a2)
   1ce14: 82 80        	ret
   1ce16: 0d 99        	andi	a0, a0, -0x1d
   1ce18: 71 9b        	andi	a4, a4, -0x4
   1ce1a: 13 65 05 01  	ori	a0, a0, 0x10
   1ce1e: 13 67 27 00  	ori	a4, a4, 0x2
   1ce22: d5 b7        	j	0x1ce06 <__sflags+0x4e>
   1ce24: 01 43        	li	t1, 0x0
   1ce26: 01 47        	li	a4, 0x0
   1ce28: 11 45        	li	a0, 0x4
   1ce2a: 6d bf        	j	0x1cde4 <__sflags+0x2c>
   1ce2c: 13 03 80 20  	li	t1, 0x208
   1ce30: 05 47        	li	a4, 0x1
   1ce32: 13 05 80 10  	li	a0, 0x108
   1ce36: 7d b7        	j	0x1cde4 <__sflags+0x2c>

000000000001ce38 <__sfvwrite_r>:
   1ce38: 1c 6a        	ld	a5, 0x10(a2)
   1ce3a: 63 8b 07 1c  	beqz	a5, 0x1d010 <__sfvwrite_r+0x1d8>
   1ce3e: 03 97 05 01  	lh	a4, 0x10(a1)
   1ce42: 1d 71        	addi	sp, sp, -0x60
   1ce44: a2 e8        	sd	s0, 0x50(sp)
   1ce46: 56 f4        	sd	s5, 0x28(sp)
   1ce48: 5e ec        	sd	s7, 0x18(sp)
   1ce4a: 86 ec        	sd	ra, 0x58(sp)
   1ce4c: 93 77 87 00  	andi	a5, a4, 0x8
   1ce50: b2 8b        	mv	s7, a2
   1ce52: aa 8a        	mv	s5, a0
   1ce54: 2e 84        	mv	s0, a1
   1ce56: b5 c7        	beqz	a5, 0x1cec2 <__sfvwrite_r+0x8a>
   1ce58: 9c 6d        	ld	a5, 0x18(a1)
   1ce5a: a5 c7        	beqz	a5, 0x1cec2 <__sfvwrite_r+0x8a>
   1ce5c: a6 e4        	sd	s1, 0x48(sp)
   1ce5e: ca e0        	sd	s2, 0x40(sp)
   1ce60: 4e fc        	sd	s3, 0x38(sp)
   1ce62: 52 f8        	sd	s4, 0x30(sp)
   1ce64: 93 77 27 00  	andi	a5, a4, 0x2
   1ce68: 83 b4 0b 00  	ld	s1, 0x0(s7)
   1ce6c: a5 cf        	beqz	a5, 0x1cee4 <__sfvwrite_r+0xac>
   1ce6e: 3c 60        	ld	a5, 0x40(s0)
   1ce70: 0c 78        	ld	a1, 0x30(s0)
   1ce72: 37 0a 00 80  	lui	s4, 0x80000
   1ce76: 81 49        	li	s3, 0x0
   1ce78: 01 49        	li	s2, 0x0
   1ce7a: 13 4a 0a c0  	xori	s4, s4, -0x400
   1ce7e: 4e 86        	mv	a2, s3
   1ce80: 56 85        	mv	a0, s5
   1ce82: 63 0a 09 02  	beqz	s2, 0x1ceb6 <__sfvwrite_r+0x7e>
   1ce86: ca 86        	mv	a3, s2
   1ce88: 63 73 2a 01  	bgeu	s4, s2, 0x1ce8e <__sfvwrite_r+0x56>
   1ce8c: d2 86        	mv	a3, s4
   1ce8e: 81 26        	sext.w	a3, a3
   1ce90: 82 97        	jalr	a5
   1ce92: 63 58 a0 2e  	blez	a0, 0x1d182 <__sfvwrite_r+0x34a>
   1ce96: 83 b7 0b 01  	ld	a5, 0x10(s7)
   1ce9a: aa 99        	add	s3, s3, a0
   1ce9c: 33 09 a9 40  	sub	s2, s2, a0
   1cea0: 89 8f        	sub	a5, a5, a0
   1cea2: 23 b8 fb 00  	sd	a5, 0x10(s7)
   1cea6: 63 81 07 12  	beqz	a5, 0x1cfc8 <__sfvwrite_r+0x190>
   1ceaa: 3c 60        	ld	a5, 0x40(s0)
   1ceac: 0c 78        	ld	a1, 0x30(s0)
   1ceae: 4e 86        	mv	a2, s3
   1ceb0: 56 85        	mv	a0, s5
   1ceb2: e3 1a 09 fc  	bnez	s2, 0x1ce86 <__sfvwrite_r+0x4e>
   1ceb6: 83 b9 04 00  	ld	s3, 0x0(s1)
   1ceba: 03 b9 84 00  	ld	s2, 0x8(s1)
   1cebe: c1 04        	addi	s1, s1, 0x10
   1cec0: 7d bf        	j	0x1ce7e <__sfvwrite_r+0x46>
   1cec2: a2 85        	mv	a1, s0
   1cec4: 56 85        	mv	a0, s5
   1cec6: ef 00 20 47  	jal	0x1d338 <__swsetup_r>
   1ceca: 63 1c 05 12  	bnez	a0, 0x1d002 <__sfvwrite_r+0x1ca>
   1cece: 03 17 04 01  	lh	a4, 0x10(s0)
   1ced2: a6 e4        	sd	s1, 0x48(sp)
   1ced4: ca e0        	sd	s2, 0x40(sp)
   1ced6: 4e fc        	sd	s3, 0x38(sp)
   1ced8: 52 f8        	sd	s4, 0x30(sp)
   1ceda: 93 77 27 00  	andi	a5, a4, 0x2
   1cede: 83 b4 0b 00  	ld	s1, 0x0(s7)
   1cee2: d1 f7        	bnez	a5, 0x1ce6e <__sfvwrite_r+0x36>
   1cee4: 5a f0        	sd	s6, 0x20(sp)
   1cee6: 62 e8        	sd	s8, 0x10(sp)
   1cee8: 66 e4        	sd	s9, 0x8(sp)
   1ceea: 93 77 17 00  	andi	a5, a4, 0x1
   1ceee: ad eb        	bnez	a5, 0x1cf60 <__sfvwrite_r+0x128>
   1cef0: 03 2a c4 00  	lw	s4, 0xc(s0)
   1cef4: 1c 60        	ld	a5, 0x0(s0)
   1cef6: 37 0b 00 80  	lui	s6, 0x80000
   1cefa: 01 4c        	li	s8, 0x0
   1cefc: 01 49        	li	s2, 0x0
   1cefe: 13 4b fb ff  	not	s6, s6
   1cf02: 3e 85        	mv	a0, a5
   1cf04: 63 08 09 04  	beqz	s2, 0x1cf54 <__sfvwrite_r+0x11c>
   1cf08: 93 76 07 20  	andi	a3, a4, 0x200
   1cf0c: 63 86 06 14  	beqz	a3, 0x1d058 <__sfvwrite_r+0x220>
   1cf10: 63 75 49 1b  	bgeu	s2, s4, 0x1d0ba <__sfvwrite_r+0x282>
   1cf14: ca 8c        	mv	s9, s2
   1cf16: 4a 8a        	mv	s4, s2
   1cf18: 52 86        	mv	a2, s4
   1cf1a: e2 85        	mv	a1, s8
   1cf1c: ef 00 40 72  	jal	0x1d640 <memmove>
   1cf20: 58 44        	lw	a4, 0xc(s0)
   1cf22: 1c 60        	ld	a5, 0x0(s0)
   1cf24: ca 89        	mv	s3, s2
   1cf26: 3b 07 97 41  	subw	a4, a4, s9
   1cf2a: 3e 9a        	add	s4, s4, a5
   1cf2c: 58 c4        	sw	a4, 0xc(s0)
   1cf2e: 23 30 44 01  	sd	s4, 0x0(s0)
   1cf32: 01 49        	li	s2, 0x0
   1cf34: 83 b7 0b 01  	ld	a5, 0x10(s7)
   1cf38: 4e 9c        	add	s8, s8, s3
   1cf3a: b3 87 37 41  	sub	a5, a5, s3
   1cf3e: 23 b8 fb 00  	sd	a5, 0x10(s7)
   1cf42: c1 c3        	beqz	a5, 0x1cfc2 <__sfvwrite_r+0x18a>
   1cf44: 1c 60        	ld	a5, 0x0(s0)
   1cf46: 03 17 04 01  	lh	a4, 0x10(s0)
   1cf4a: 03 2a c4 00  	lw	s4, 0xc(s0)
   1cf4e: 3e 85        	mv	a0, a5
   1cf50: e3 1c 09 fa  	bnez	s2, 0x1cf08 <__sfvwrite_r+0xd0>
   1cf54: 03 bc 04 00  	ld	s8, 0x0(s1)
   1cf58: 03 b9 84 00  	ld	s2, 0x8(s1)
   1cf5c: c1 04        	addi	s1, s1, 0x10
   1cf5e: 55 b7        	j	0x1cf02 <__sfvwrite_r+0xca>
   1cf60: 01 4b        	li	s6, 0x0
   1cf62: 01 45        	li	a0, 0x0
   1cf64: 81 4c        	li	s9, 0x0
   1cf66: 01 4c        	li	s8, 0x0
   1cf68: 63 06 0c 0a  	beqz	s8, 0x1d014 <__sfvwrite_r+0x1dc>
   1cf6c: 45 cd        	beqz	a0, 0x1d024 <__sfvwrite_r+0x1ec>
   1cf6e: 5a 8a        	mv	s4, s6
   1cf70: 63 73 6c 01  	bgeu	s8, s6, 0x1cf76 <__sfvwrite_r+0x13e>
   1cf74: 62 8a        	mv	s4, s8
   1cf76: 08 60        	ld	a0, 0x0(s0)
   1cf78: 18 6c        	ld	a4, 0x18(s0)
   1cf7a: 5c 44        	lw	a5, 0xc(s0)
   1cf7c: 14 50        	lw	a3, 0x20(s0)
   1cf7e: 52 89        	mv	s2, s4
   1cf80: 63 76 a7 00  	bgeu	a4, a0, 0x1cf8c <__sfvwrite_r+0x154>
   1cf84: bb 89 d7 00  	addw	s3, a5, a3
   1cf88: 63 c9 49 0b  	blt	s3, s4, 0x1d03a <__sfvwrite_r+0x202>
   1cf8c: 63 43 da 1a  	blt	s4, a3, 0x1d132 <__sfvwrite_r+0x2fa>
   1cf90: 3c 60        	ld	a5, 0x40(s0)
   1cf92: 0c 78        	ld	a1, 0x30(s0)
   1cf94: 66 86        	mv	a2, s9
   1cf96: 56 85        	mv	a0, s5
   1cf98: 82 97        	jalr	a5
   1cf9a: 2a 89        	mv	s2, a0
   1cf9c: 63 56 a0 04  	blez	a0, 0x1cfe8 <__sfvwrite_r+0x1b0>
   1cfa0: 9b 07 05 00  	sext.w	a5, a0
   1cfa4: 3b 0b fb 40  	subw	s6, s6, a5
   1cfa8: 05 45        	li	a0, 0x1
   1cfaa: 63 0a 0b 02  	beqz	s6, 0x1cfde <__sfvwrite_r+0x1a6>
   1cfae: 83 b7 0b 01  	ld	a5, 0x10(s7)
   1cfb2: ca 9c        	add	s9, s9, s2
   1cfb4: 33 0c 2c 41  	sub	s8, s8, s2
   1cfb8: b3 87 27 41  	sub	a5, a5, s2
   1cfbc: 23 b8 fb 00  	sd	a5, 0x10(s7)
   1cfc0: c5 f7        	bnez	a5, 0x1cf68 <__sfvwrite_r+0x130>
   1cfc2: 02 7b        	ld	s6, 0x20(sp)
   1cfc4: 42 6c        	ld	s8, 0x10(sp)
   1cfc6: a2 6c        	ld	s9, 0x8(sp)
   1cfc8: e6 60        	ld	ra, 0x58(sp)
   1cfca: 46 64        	ld	s0, 0x50(sp)
   1cfcc: a6 64        	ld	s1, 0x48(sp)
   1cfce: 06 69        	ld	s2, 0x40(sp)
   1cfd0: e2 79        	ld	s3, 0x38(sp)
   1cfd2: 42 7a        	ld	s4, 0x30(sp)
   1cfd4: a2 7a        	ld	s5, 0x28(sp)
   1cfd6: e2 6b        	ld	s7, 0x18(sp)
   1cfd8: 01 45        	li	a0, 0x0
   1cfda: 25 61        	addi	sp, sp, 0x60
   1cfdc: 82 80        	ret
   1cfde: a2 85        	mv	a1, s0
   1cfe0: 56 85        	mv	a0, s5
   1cfe2: ef a0 4f 92  	jal	0x17106 <_fflush_r>
   1cfe6: 61 d5        	beqz	a0, 0x1cfae <__sfvwrite_r+0x176>
   1cfe8: 83 17 04 01  	lh	a5, 0x10(s0)
   1cfec: 02 7b        	ld	s6, 0x20(sp)
   1cfee: 42 6c        	ld	s8, 0x10(sp)
   1cff0: a2 6c        	ld	s9, 0x8(sp)
   1cff2: a6 64        	ld	s1, 0x48(sp)
   1cff4: 06 69        	ld	s2, 0x40(sp)
   1cff6: e2 79        	ld	s3, 0x38(sp)
   1cff8: 42 7a        	ld	s4, 0x30(sp)
   1cffa: 93 e7 07 04  	ori	a5, a5, 0x40
   1cffe: 23 18 f4 00  	sh	a5, 0x10(s0)
   1d002: e6 60        	ld	ra, 0x58(sp)
   1d004: 46 64        	ld	s0, 0x50(sp)
   1d006: a2 7a        	ld	s5, 0x28(sp)
   1d008: e2 6b        	ld	s7, 0x18(sp)
   1d00a: 7d 55        	li	a0, -0x1
   1d00c: 25 61        	addi	sp, sp, 0x60
   1d00e: 82 80        	ret
   1d010: 01 45        	li	a0, 0x0
   1d012: 82 80        	ret
   1d014: 03 bc 84 00  	ld	s8, 0x8(s1)
   1d018: a6 87        	mv	a5, s1
   1d01a: c1 04        	addi	s1, s1, 0x10
   1d01c: e3 0c 0c fe  	beqz	s8, 0x1d014 <__sfvwrite_r+0x1dc>
   1d020: 83 bc 07 00  	ld	s9, 0x0(a5)
   1d024: 62 86        	mv	a2, s8
   1d026: a9 45        	li	a1, 0xa
   1d028: 66 85        	mv	a0, s9
   1d02a: ef b0 cf 8f  	jal	0x18126 <memchr>
   1d02e: 63 07 05 14  	beqz	a0, 0x1d17c <__sfvwrite_r+0x344>
   1d032: 05 05        	addi	a0, a0, 0x1
   1d034: 3b 0b 95 41  	subw	s6, a0, s9
   1d038: 1d bf        	j	0x1cf6e <__sfvwrite_r+0x136>
   1d03a: e6 85        	mv	a1, s9
   1d03c: 4e 86        	mv	a2, s3
   1d03e: ef 00 20 60  	jal	0x1d640 <memmove>
   1d042: 1c 60        	ld	a5, 0x0(s0)
   1d044: a2 85        	mv	a1, s0
   1d046: 56 85        	mv	a0, s5
   1d048: ce 97        	add	a5, a5, s3
   1d04a: 1c e0        	sd	a5, 0x0(s0)
   1d04c: ef a0 af 8b  	jal	0x17106 <_fflush_r>
   1d050: 41 fd        	bnez	a0, 0x1cfe8 <__sfvwrite_r+0x1b0>
   1d052: ce 87        	mv	a5, s3
   1d054: 4e 89        	mv	s2, s3
   1d056: b9 b7        	j	0x1cfa4 <__sfvwrite_r+0x16c>
   1d058: 18 6c        	ld	a4, 0x18(s0)
   1d05a: 63 67 f7 02  	bltu	a4, a5, 0x1d088 <__sfvwrite_r+0x250>
   1d05e: 18 50        	lw	a4, 0x20(s0)
   1d060: 63 64 e9 02  	bltu	s2, a4, 0x1d088 <__sfvwrite_r+0x250>
   1d064: ca 86        	mv	a3, s2
   1d066: 63 73 2b 01  	bgeu	s6, s2, 0x1d06c <__sfvwrite_r+0x234>
   1d06a: da 86        	mv	a3, s6
   1d06c: 3b e7 e6 02  	remw	a4, a3, a4
   1d070: 3c 60        	ld	a5, 0x40(s0)
   1d072: 0c 78        	ld	a1, 0x30(s0)
   1d074: 62 86        	mv	a2, s8
   1d076: 56 85        	mv	a0, s5
   1d078: 99 9e        	subw	a3, a3, a4
   1d07a: 82 97        	jalr	a5
   1d07c: aa 89        	mv	s3, a0
   1d07e: e3 55 a0 f6  	blez	a0, 0x1cfe8 <__sfvwrite_r+0x1b0>
   1d082: 33 09 39 41  	sub	s2, s2, s3
   1d086: 7d b5        	j	0x1cf34 <__sfvwrite_r+0xfc>
   1d088: d2 89        	mv	s3, s4
   1d08a: 63 73 49 01  	bgeu	s2, s4, 0x1d090 <__sfvwrite_r+0x258>
   1d08e: ca 89        	mv	s3, s2
   1d090: 3e 85        	mv	a0, a5
   1d092: 4e 86        	mv	a2, s3
   1d094: e2 85        	mv	a1, s8
   1d096: ef 00 a0 5a  	jal	0x1d640 <memmove>
   1d09a: 58 44        	lw	a4, 0xc(s0)
   1d09c: 1c 60        	ld	a5, 0x0(s0)
   1d09e: bb 06 37 41  	subw	a3, a4, s3
   1d0a2: ce 97        	add	a5, a5, s3
   1d0a4: 54 c4        	sw	a3, 0xc(s0)
   1d0a6: 1c e0        	sd	a5, 0x0(s0)
   1d0a8: e9 fe        	bnez	a3, 0x1d082 <__sfvwrite_r+0x24a>
   1d0aa: a2 85        	mv	a1, s0
   1d0ac: 56 85        	mv	a0, s5
   1d0ae: ef a0 8f 85  	jal	0x17106 <_fflush_r>
   1d0b2: 1d f9        	bnez	a0, 0x1cfe8 <__sfvwrite_r+0x1b0>
   1d0b4: 33 09 39 41  	sub	s2, s2, s3
   1d0b8: b5 bd        	j	0x1cf34 <__sfvwrite_r+0xfc>
   1d0ba: 93 76 07 48  	andi	a3, a4, 0x480
   1d0be: c1 ca        	beqz	a3, 0x1d14e <__sfvwrite_r+0x316>
   1d0c0: 10 50        	lw	a2, 0x20(s0)
   1d0c2: 0c 6c        	ld	a1, 0x18(s0)
   1d0c4: 9b 16 16 00  	slliw	a3, a2, 0x1
   1d0c8: b1 9e        	addw	a3, a3, a2
   1d0ca: 8d 8f        	sub	a5, a5, a1
   1d0cc: 9b d9 f6 01  	srliw	s3, a3, 0x1f
   1d0d0: 9b 8c 07 00  	sext.w	s9, a5
   1d0d4: bb 89 d9 00  	addw	s3, s3, a3
   1d0d8: 93 86 1c 00  	addi	a3, s9, 0x1
   1d0dc: 9b d9 19 40  	sraiw	s3, s3, 0x1
   1d0e0: ca 96        	add	a3, a3, s2
   1d0e2: 63 f6 d9 00  	bgeu	s3, a3, 0x1d0ee <__sfvwrite_r+0x2b6>
   1d0e6: 9b 86 17 00  	addiw	a3, a5, 0x1
   1d0ea: bb 89 26 01  	addw	s3, a3, s2
   1d0ee: 13 77 07 40  	andi	a4, a4, 0x400
   1d0f2: 25 c3        	beqz	a4, 0x1d152 <__sfvwrite_r+0x31a>
   1d0f4: ce 85        	mv	a1, s3
   1d0f6: 56 85        	mv	a0, s5
   1d0f8: ef 80 2f dd  	jal	0x156ca <_malloc_r>
   1d0fc: 2a 8a        	mv	s4, a0
   1d0fe: 49 c5        	beqz	a0, 0x1d188 <__sfvwrite_r+0x350>
   1d100: 0c 6c        	ld	a1, 0x18(s0)
   1d102: 66 86        	mv	a2, s9
   1d104: ef b0 cf d5  	jal	0x18660 <memcpy>
   1d108: 83 57 04 01  	lhu	a5, 0x10(s0)
   1d10c: 93 f7 f7 b7  	andi	a5, a5, -0x481
   1d110: 93 e7 07 08  	ori	a5, a5, 0x80
   1d114: 23 18 f4 00  	sh	a5, 0x10(s0)
   1d118: 33 05 9a 01  	add	a0, s4, s9
   1d11c: bb 87 99 41  	subw	a5, s3, s9
   1d120: 23 3c 44 01  	sd	s4, 0x18(s0)
   1d124: 08 e0        	sd	a0, 0x0(s0)
   1d126: 23 20 34 03  	sw	s3, 0x20(s0)
   1d12a: ca 8c        	mv	s9, s2
   1d12c: 5c c4        	sw	a5, 0xc(s0)
   1d12e: 4a 8a        	mv	s4, s2
   1d130: e5 b3        	j	0x1cf18 <__sfvwrite_r+0xe0>
   1d132: 52 86        	mv	a2, s4
   1d134: e6 85        	mv	a1, s9
   1d136: ef 00 a0 50  	jal	0x1d640 <memmove>
   1d13a: 54 44        	lw	a3, 0xc(s0)
   1d13c: 18 60        	ld	a4, 0x0(s0)
   1d13e: 9b 07 0a 00  	sext.w	a5, s4
   1d142: bb 86 46 41  	subw	a3, a3, s4
   1d146: 52 97        	add	a4, a4, s4
   1d148: 54 c4        	sw	a3, 0xc(s0)
   1d14a: 18 e0        	sd	a4, 0x0(s0)
   1d14c: a1 bd        	j	0x1cfa4 <__sfvwrite_r+0x16c>
   1d14e: d2 8c        	mv	s9, s4
   1d150: e1 b3        	j	0x1cf18 <__sfvwrite_r+0xe0>
   1d152: 4e 86        	mv	a2, s3
   1d154: 56 85        	mv	a0, s5
   1d156: ef 10 f0 51  	jal	0x1ee74 <_realloc_r>
   1d15a: 2a 8a        	mv	s4, a0
   1d15c: 55 fd        	bnez	a0, 0x1d118 <__sfvwrite_r+0x2e0>
   1d15e: 0c 6c        	ld	a1, 0x18(s0)
   1d160: 56 85        	mv	a0, s5
   1d162: ef b0 bf 98  	jal	0x18aec <_free_r>
   1d166: 83 17 04 01  	lh	a5, 0x10(s0)
   1d16a: 31 47        	li	a4, 0xc
   1d16c: 02 7b        	ld	s6, 0x20(sp)
   1d16e: 42 6c        	ld	s8, 0x10(sp)
   1d170: a2 6c        	ld	s9, 0x8(sp)
   1d172: 23 a0 ea 00  	sw	a4, 0x0(s5)
   1d176: 93 f7 f7 f7  	andi	a5, a5, -0x81
   1d17a: a5 bd        	j	0x1cff2 <__sfvwrite_r+0x1ba>
   1d17c: 1b 0b 1c 00  	addiw	s6, s8, 0x1
   1d180: fd b3        	j	0x1cf6e <__sfvwrite_r+0x136>
   1d182: 83 17 04 01  	lh	a5, 0x10(s0)
   1d186: b5 b5        	j	0x1cff2 <__sfvwrite_r+0x1ba>
   1d188: 31 47        	li	a4, 0xc
   1d18a: 83 17 04 01  	lh	a5, 0x10(s0)
   1d18e: 02 7b        	ld	s6, 0x20(sp)
   1d190: 42 6c        	ld	s8, 0x10(sp)
   1d192: a2 6c        	ld	s9, 0x8(sp)
   1d194: 23 a0 ea 00  	sw	a4, 0x0(s5)
   1d198: a9 bd        	j	0x1cff2 <__sfvwrite_r+0x1ba>

000000000001d19a <__smakebuf_r>:
   1d19a: 83 97 05 01  	lh	a5, 0x10(a1)
   1d19e: 35 71        	addi	sp, sp, -0xa0
   1d1a0: 22 e9        	sd	s0, 0x90(sp)
   1d1a2: 06 ed        	sd	ra, 0x98(sp)
   1d1a4: 13 f7 27 00  	andi	a4, a5, 0x2
   1d1a8: 2e 84        	mv	s0, a1
   1d1aa: 19 cb        	beqz	a4, 0x1d1c0 <__smakebuf_r+0x26>
   1d1ac: 93 87 75 07  	addi	a5, a1, 0x77
   1d1b0: 9c e1        	sd	a5, 0x0(a1)
   1d1b2: 9c ed        	sd	a5, 0x18(a1)
   1d1b4: 85 47        	li	a5, 0x1
   1d1b6: 9c d1        	sw	a5, 0x20(a1)
   1d1b8: ea 60        	ld	ra, 0x98(sp)
   1d1ba: 4a 64        	ld	s0, 0x90(sp)
   1d1bc: 0d 61        	addi	sp, sp, 0xa0
   1d1be: 82 80        	ret
   1d1c0: 83 95 25 01  	lh	a1, 0x12(a1)
   1d1c4: 26 e5        	sd	s1, 0x88(sp)
   1d1c6: 4a e1        	sd	s2, 0x80(sp)
   1d1c8: ce fc        	sd	s3, 0x78(sp)
   1d1ca: d2 f8        	sd	s4, 0x70(sp)
   1d1cc: aa 84        	mv	s1, a0
   1d1ce: 63 c4 05 06  	bltz	a1, 0x1d236 <__smakebuf_r+0x9c>
   1d1d2: 30 00        	addi	a2, sp, 0x8
   1d1d4: ef b0 af a0  	jal	0x183de <_fstat_r>
   1d1d8: 63 4d 05 04  	bltz	a0, 0x1d232 <__smakebuf_r+0x98>
   1d1dc: 32 49        	lw	s2, 0xc(sp)
   1d1de: bd 67        	lui	a5, 0xf
   1d1e0: 85 69        	lui	s3, 0x1
   1d1e2: 33 79 f9 00  	and	s2, s2, a5
   1d1e6: 89 67        	lui	a5, 0x2
   1d1e8: 33 09 f9 40  	sub	s2, s2, a5
   1d1ec: 13 39 19 00  	seqz	s2, s2
   1d1f0: 13 0a 00 40  	li	s4, 0x400
   1d1f4: 93 89 09 80  	addi	s3, s3, -0x800
   1d1f8: d2 85        	mv	a1, s4
   1d1fa: 26 85        	mv	a0, s1
   1d1fc: ef 80 ef cc  	jal	0x156ca <_malloc_r>
   1d200: 83 17 04 01  	lh	a5, 0x10(s0)
   1d204: 39 c5        	beqz	a0, 0x1d252 <__smakebuf_r+0xb8>
   1d206: 93 e7 07 08  	ori	a5, a5, 0x80
   1d20a: 08 e0        	sd	a0, 0x0(s0)
   1d20c: 08 ec        	sd	a0, 0x18(s0)
   1d20e: 23 18 f4 00  	sh	a5, 0x10(s0)
   1d212: 23 20 44 03  	sw	s4, 0x20(s0)
   1d216: 63 15 09 06  	bnez	s2, 0x1d280 <__smakebuf_r+0xe6>
   1d21a: b3 e7 37 01  	or	a5, a5, s3
   1d21e: ea 60        	ld	ra, 0x98(sp)
   1d220: 23 18 f4 00  	sh	a5, 0x10(s0)
   1d224: 4a 64        	ld	s0, 0x90(sp)
   1d226: aa 64        	ld	s1, 0x88(sp)
   1d228: 0a 69        	ld	s2, 0x80(sp)
   1d22a: e6 79        	ld	s3, 0x78(sp)
   1d22c: 46 7a        	ld	s4, 0x70(sp)
   1d22e: 0d 61        	addi	sp, sp, 0xa0
   1d230: 82 80        	ret
   1d232: 83 17 04 01  	lh	a5, 0x10(s0)
   1d236: 93 f7 07 08  	andi	a5, a5, 0x80
   1d23a: 01 49        	li	s2, 0x0
   1d23c: 95 cf        	beqz	a5, 0x1d278 <__smakebuf_r+0xde>
   1d23e: 13 0a 00 04  	li	s4, 0x40
   1d242: d2 85        	mv	a1, s4
   1d244: 26 85        	mv	a0, s1
   1d246: ef 80 4f c8  	jal	0x156ca <_malloc_r>
   1d24a: 83 17 04 01  	lh	a5, 0x10(s0)
   1d24e: 81 49        	li	s3, 0x0
   1d250: 5d f9        	bnez	a0, 0x1d206 <__smakebuf_r+0x6c>
   1d252: 13 f7 07 20  	andi	a4, a5, 0x200
   1d256: 15 ef        	bnez	a4, 0x1d292 <__smakebuf_r+0xf8>
   1d258: f1 9b        	andi	a5, a5, -0x4
   1d25a: 93 e7 27 00  	ori	a5, a5, 0x2
   1d25e: 13 07 74 07  	addi	a4, s0, 0x77
   1d262: 23 18 f4 00  	sh	a5, 0x10(s0)
   1d266: 85 47        	li	a5, 0x1
   1d268: aa 64        	ld	s1, 0x88(sp)
   1d26a: 0a 69        	ld	s2, 0x80(sp)
   1d26c: e6 79        	ld	s3, 0x78(sp)
   1d26e: 46 7a        	ld	s4, 0x70(sp)
   1d270: 18 e0        	sd	a4, 0x0(s0)
   1d272: 18 ec        	sd	a4, 0x18(s0)
   1d274: 1c d0        	sw	a5, 0x20(s0)
   1d276: 89 b7        	j	0x1d1b8 <__smakebuf_r+0x1e>
   1d278: 13 0a 00 40  	li	s4, 0x400
   1d27c: 81 49        	li	s3, 0x0
   1d27e: ad bf        	j	0x1d1f8 <__smakebuf_r+0x5e>
   1d280: 83 15 24 01  	lh	a1, 0x12(s0)
   1d284: 26 85        	mv	a0, s1
   1d286: ef 00 c0 34  	jal	0x1d5d2 <_isatty_r>
   1d28a: 09 e9        	bnez	a0, 0x1d29c <__smakebuf_r+0x102>
   1d28c: 83 17 04 01  	lh	a5, 0x10(s0)
   1d290: 69 b7        	j	0x1d21a <__smakebuf_r+0x80>
   1d292: aa 64        	ld	s1, 0x88(sp)
   1d294: 0a 69        	ld	s2, 0x80(sp)
   1d296: e6 79        	ld	s3, 0x78(sp)
   1d298: 46 7a        	ld	s4, 0x70(sp)
   1d29a: 39 bf        	j	0x1d1b8 <__smakebuf_r+0x1e>
   1d29c: 83 57 04 01  	lhu	a5, 0x10(s0)
   1d2a0: f1 9b        	andi	a5, a5, -0x4
   1d2a2: 93 e7 17 00  	ori	a5, a5, 0x1
   1d2a6: 9b 97 07 01  	slliw	a5, a5, 0x10
   1d2aa: 9b d7 07 41  	sraiw	a5, a5, 0x10
   1d2ae: b5 b7        	j	0x1d21a <__smakebuf_r+0x80>

000000000001d2b0 <__swhatbuf_r>:
   1d2b0: 75 71        	addi	sp, sp, -0x90
   1d2b2: 22 e1        	sd	s0, 0x80(sp)
   1d2b4: 2e 84        	mv	s0, a1
   1d2b6: 83 95 25 01  	lh	a1, 0x12(a1)
   1d2ba: a6 fc        	sd	s1, 0x78(sp)
   1d2bc: ca f8        	sd	s2, 0x70(sp)
   1d2be: 06 e5        	sd	ra, 0x88(sp)
   1d2c0: b2 84        	mv	s1, a2
   1d2c2: 36 89        	mv	s2, a3
   1d2c4: 63 cc 05 02  	bltz	a1, 0x1d2fc <__swhatbuf_r+0x4c>
   1d2c8: 30 00        	addi	a2, sp, 0x8
   1d2ca: ef b0 4f 91  	jal	0x183de <_fstat_r>
   1d2ce: 63 47 05 02  	bltz	a0, 0x1d2fc <__swhatbuf_r+0x4c>
   1d2d2: b2 47        	lw	a5, 0xc(sp)
   1d2d4: 3d 67        	lui	a4, 0xf
   1d2d6: aa 60        	ld	ra, 0x88(sp)
   1d2d8: f9 8f        	and	a5, a5, a4
   1d2da: 09 67        	lui	a4, 0x2
   1d2dc: 99 8f        	sub	a5, a5, a4
   1d2de: 0a 64        	ld	s0, 0x80(sp)
   1d2e0: 93 b7 17 00  	seqz	a5, a5
   1d2e4: 23 20 f9 00  	sw	a5, 0x0(s2)
   1d2e8: 13 07 00 40  	li	a4, 0x400
   1d2ec: 98 e0        	sd	a4, 0x0(s1)
   1d2ee: 05 65        	lui	a0, 0x1
   1d2f0: e6 74        	ld	s1, 0x78(sp)
   1d2f2: 46 79        	ld	s2, 0x70(sp)
   1d2f4: 13 05 05 80  	addi	a0, a0, -0x800
   1d2f8: 49 61        	addi	sp, sp, 0x90
   1d2fa: 82 80        	ret
   1d2fc: 83 57 04 01  	lhu	a5, 0x10(s0)
   1d300: 93 f7 07 08  	andi	a5, a5, 0x80
   1d304: 91 cf        	beqz	a5, 0x1d320 <__swhatbuf_r+0x70>
   1d306: aa 60        	ld	ra, 0x88(sp)
   1d308: 0a 64        	ld	s0, 0x80(sp)
   1d30a: 81 47        	li	a5, 0x0
   1d30c: 23 20 f9 00  	sw	a5, 0x0(s2)
   1d310: 13 07 00 04  	li	a4, 0x40
   1d314: 98 e0        	sd	a4, 0x0(s1)
   1d316: 46 79        	ld	s2, 0x70(sp)
   1d318: e6 74        	ld	s1, 0x78(sp)
   1d31a: 01 45        	li	a0, 0x0
   1d31c: 49 61        	addi	sp, sp, 0x90
   1d31e: 82 80        	ret
   1d320: aa 60        	ld	ra, 0x88(sp)
   1d322: 0a 64        	ld	s0, 0x80(sp)
   1d324: 23 20 f9 00  	sw	a5, 0x0(s2)
   1d328: 13 07 00 40  	li	a4, 0x400
   1d32c: 98 e0        	sd	a4, 0x0(s1)
   1d32e: 46 79        	ld	s2, 0x70(sp)
   1d330: e6 74        	ld	s1, 0x78(sp)
   1d332: 01 45        	li	a0, 0x0
   1d334: 49 61        	addi	sp, sp, 0x90
   1d336: 82 80        	ret

000000000001d338 <__swsetup_r>:
   1d338: 83 b7 01 23  	ld	a5, 0x230(gp)
   1d33c: 01 11        	addi	sp, sp, -0x20
   1d33e: 22 e8        	sd	s0, 0x10(sp)
   1d340: 26 e4        	sd	s1, 0x8(sp)
   1d342: 06 ec        	sd	ra, 0x18(sp)
   1d344: aa 84        	mv	s1, a0
   1d346: 2e 84        	mv	s0, a1
   1d348: 99 c3        	beqz	a5, 0x1d34e <__swsetup_r+0x16>
   1d34a: b8 67        	ld	a4, 0x48(a5)
   1d34c: 5d c7        	beqz	a4, 0x1d3fa <__swsetup_r+0xc2>
   1d34e: 83 17 04 01  	lh	a5, 0x10(s0)
   1d352: 13 f7 87 00  	andi	a4, a5, 0x8
   1d356: 21 c7        	beqz	a4, 0x1d39e <__swsetup_r+0x66>
   1d358: 18 6c        	ld	a4, 0x18(s0)
   1d35a: 31 cf        	beqz	a4, 0x1d3b6 <__swsetup_r+0x7e>
   1d35c: 93 f6 17 00  	andi	a3, a5, 0x1
   1d360: 91 ce        	beqz	a3, 0x1d37c <__swsetup_r+0x44>
   1d362: 14 50        	lw	a3, 0x20(s0)
   1d364: 23 26 04 00  	sw	zero, 0xc(s0)
   1d368: 01 45        	li	a0, 0x0
   1d36a: bb 06 d0 40  	negw	a3, a3
   1d36e: 14 d4        	sw	a3, 0x28(s0)
   1d370: 11 cf        	beqz	a4, 0x1d38c <__swsetup_r+0x54>
   1d372: e2 60        	ld	ra, 0x18(sp)
   1d374: 42 64        	ld	s0, 0x10(sp)
   1d376: a2 64        	ld	s1, 0x8(sp)
   1d378: 05 61        	addi	sp, sp, 0x20
   1d37a: 82 80        	ret
   1d37c: 93 f6 27 00  	andi	a3, a5, 0x2
   1d380: 01 46        	li	a2, 0x0
   1d382: 91 e2        	bnez	a3, 0x1d386 <__swsetup_r+0x4e>
   1d384: 10 50        	lw	a2, 0x20(s0)
   1d386: 50 c4        	sw	a2, 0xc(s0)
   1d388: 01 45        	li	a0, 0x0
   1d38a: 65 f7        	bnez	a4, 0x1d372 <__swsetup_r+0x3a>
   1d38c: 13 f7 07 08  	andi	a4, a5, 0x80
   1d390: 6d d3        	beqz	a4, 0x1d372 <__swsetup_r+0x3a>
   1d392: 93 e7 07 04  	ori	a5, a5, 0x40
   1d396: 23 18 f4 00  	sh	a5, 0x10(s0)
   1d39a: 7d 55        	li	a0, -0x1
   1d39c: d9 bf        	j	0x1d372 <__swsetup_r+0x3a>
   1d39e: 13 f7 07 01  	andi	a4, a5, 0x10
   1d3a2: 25 c3        	beqz	a4, 0x1d402 <__swsetup_r+0xca>
   1d3a4: 13 f7 47 00  	andi	a4, a5, 0x4
   1d3a8: 0d e7        	bnez	a4, 0x1d3d2 <__swsetup_r+0x9a>
   1d3aa: 18 6c        	ld	a4, 0x18(s0)
   1d3ac: 93 e7 87 00  	ori	a5, a5, 0x8
   1d3b0: 23 18 f4 00  	sh	a5, 0x10(s0)
   1d3b4: 45 f7        	bnez	a4, 0x1d35c <__swsetup_r+0x24>
   1d3b6: 93 f6 07 28  	andi	a3, a5, 0x280
   1d3ba: 13 06 00 20  	li	a2, 0x200
   1d3be: e3 8f c6 f8  	beq	a3, a2, 0x1d35c <__swsetup_r+0x24>
   1d3c2: a2 85        	mv	a1, s0
   1d3c4: 26 85        	mv	a0, s1
   1d3c6: ef f0 5f dd  	jal	0x1d19a <__smakebuf_r>
   1d3ca: 83 17 04 01  	lh	a5, 0x10(s0)
   1d3ce: 18 6c        	ld	a4, 0x18(s0)
   1d3d0: 71 b7        	j	0x1d35c <__swsetup_r+0x24>
   1d3d2: 2c 6c        	ld	a1, 0x58(s0)
   1d3d4: 81 cd        	beqz	a1, 0x1d3ec <__swsetup_r+0xb4>
   1d3d6: 13 07 44 07  	addi	a4, s0, 0x74
   1d3da: 63 87 e5 00  	beq	a1, a4, 0x1d3e8 <__swsetup_r+0xb0>
   1d3de: 26 85        	mv	a0, s1
   1d3e0: ef b0 cf f0  	jal	0x18aec <_free_r>
   1d3e4: 83 17 04 01  	lh	a5, 0x10(s0)
   1d3e8: 23 3c 04 04  	sd	zero, 0x58(s0)
   1d3ec: 18 6c        	ld	a4, 0x18(s0)
   1d3ee: 93 f7 b7 fd  	andi	a5, a5, -0x25
   1d3f2: 23 24 04 00  	sw	zero, 0x8(s0)
   1d3f6: 18 e0        	sd	a4, 0x0(s0)
   1d3f8: 55 bf        	j	0x1d3ac <__swsetup_r+0x74>
   1d3fa: 3e 85        	mv	a0, a5
   1d3fc: ef a0 af 92  	jal	0x17526 <__sinit>
   1d400: b9 b7        	j	0x1d34e <__swsetup_r+0x16>
   1d402: 25 47        	li	a4, 0x9
   1d404: 98 c0        	sw	a4, 0x0(s1)
   1d406: 93 e7 07 04  	ori	a5, a5, 0x40
   1d40a: 23 18 f4 00  	sh	a5, 0x10(s0)
   1d40e: 7d 55        	li	a0, -0x1
   1d410: 8d b7        	j	0x1d372 <__swsetup_r+0x3a>

000000000001d412 <__fputwc>:
   1d412: 79 71        	addi	sp, sp, -0x30
   1d414: 22 f0        	sd	s0, 0x20(sp)
   1d416: 26 ec        	sd	s1, 0x18(sp)
   1d418: 4a e8        	sd	s2, 0x10(sp)
   1d41a: 06 f4        	sd	ra, 0x28(sp)
   1d41c: 2a 89        	mv	s2, a0
   1d41e: ae 84        	mv	s1, a1
   1d420: 32 84        	mv	s0, a2
   1d422: ef a0 7f eb  	jal	0x182d8 <__locale_mb_cur_max>
   1d426: 85 47        	li	a5, 0x1
   1d428: 63 1b f5 00  	bne	a0, a5, 0x1d43e <__fputwc+0x2c>
   1d42c: 9b 87 f4 ff  	addiw	a5, s1, -0x1
   1d430: 13 07 e0 0f  	li	a4, 0xfe
   1d434: 63 65 f7 00  	bltu	a4, a5, 0x1d43e <__fputwc+0x2c>
   1d438: 23 04 91 00  	sb	s1, 0x8(sp)
   1d43c: 21 a8        	j	0x1d454 <__fputwc+0x42>
   1d43e: 93 06 44 0a  	addi	a3, s0, 0xa4
   1d442: 26 86        	mv	a2, s1
   1d444: 2c 00        	addi	a1, sp, 0x8
   1d446: 4a 85        	mv	a0, s2
   1d448: ef 10 70 62  	jal	0x1f26e <_wcrtomb_r>
   1d44c: fd 57        	li	a5, -0x1
   1d44e: 63 0d f5 04  	beq	a0, a5, 0x1d4a8 <__fputwc+0x96>
   1d452: 0d c5        	beqz	a0, 0x1d47c <__fputwc+0x6a>
   1d454: 5c 44        	lw	a5, 0xc(s0)
   1d456: 83 45 81 00  	lbu	a1, 0x8(sp)
   1d45a: 1b 87 f7 ff  	addiw	a4, a5, -0x1
   1d45e: 58 c4        	sw	a4, 0xc(s0)
   1d460: 63 58 07 00  	bgez	a4, 0x1d470 <__fputwc+0x5e>
   1d464: 1c 54        	lw	a5, 0x28(s0)
   1d466: 63 43 f7 02  	blt	a4, a5, 0x1d48c <__fputwc+0x7a>
   1d46a: a9 47        	li	a5, 0xa
   1d46c: 63 80 f5 02  	beq	a1, a5, 0x1d48c <__fputwc+0x7a>
   1d470: 1c 60        	ld	a5, 0x0(s0)
   1d472: 13 87 17 00  	addi	a4, a5, 0x1
   1d476: 18 e0        	sd	a4, 0x0(s0)
   1d478: 23 80 b7 00  	sb	a1, 0x0(a5)
   1d47c: a2 70        	ld	ra, 0x28(sp)
   1d47e: 02 74        	ld	s0, 0x20(sp)
   1d480: 42 69        	ld	s2, 0x10(sp)
   1d482: 1b 85 04 00  	sext.w	a0, s1
   1d486: e2 64        	ld	s1, 0x18(sp)
   1d488: 45 61        	addi	sp, sp, 0x30
   1d48a: 82 80        	ret
   1d48c: 22 86        	mv	a2, s0
   1d48e: 4a 85        	mv	a0, s2
   1d490: ef 10 10 6c  	jal	0x1f350 <__swbuf_r>
   1d494: fd 57        	li	a5, -0x1
   1d496: e3 13 f5 fe  	bne	a0, a5, 0x1d47c <__fputwc+0x6a>
   1d49a: 7d 55        	li	a0, -0x1
   1d49c: a2 70        	ld	ra, 0x28(sp)
   1d49e: 02 74        	ld	s0, 0x20(sp)
   1d4a0: e2 64        	ld	s1, 0x18(sp)
   1d4a2: 42 69        	ld	s2, 0x10(sp)
   1d4a4: 45 61        	addi	sp, sp, 0x30
   1d4a6: 82 80        	ret
   1d4a8: 83 57 04 01  	lhu	a5, 0x10(s0)
   1d4ac: 7d 55        	li	a0, -0x1
   1d4ae: 93 e7 07 04  	ori	a5, a5, 0x40
   1d4b2: 23 18 f4 00  	sh	a5, 0x10(s0)
   1d4b6: dd b7        	j	0x1d49c <__fputwc+0x8a>

000000000001d4b8 <_fputwc_r>:
   1d4b8: 83 17 06 01  	lh	a5, 0x10(a2)
   1d4bc: 13 97 27 03  	slli	a4, a5, 0x32
   1d4c0: 63 4c 07 00  	bltz	a4, 0x1d4d8 <_fputwc_r+0x20>
   1d4c4: 03 27 c6 0a  	lw	a4, 0xac(a2)
   1d4c8: 89 66        	lui	a3, 0x2
   1d4ca: d5 8f        	or	a5, a5, a3
   1d4cc: 89 66        	lui	a3, 0x2
   1d4ce: 55 8f        	or	a4, a4, a3
   1d4d0: 23 18 f6 00  	sh	a5, 0x10(a2)
   1d4d4: 23 26 e6 0a  	sw	a4, 0xac(a2)
   1d4d8: 6f f0 bf f3  	j	0x1d412 <__fputwc>

000000000001d4dc <fputwc>:
   1d4dc: 01 11        	addi	sp, sp, -0x20
   1d4de: 22 e8        	sd	s0, 0x10(sp)
   1d4e0: 03 b4 01 23  	ld	s0, 0x230(gp)
   1d4e4: 06 ec        	sd	ra, 0x18(sp)
   1d4e6: 2e 86        	mv	a2, a1
   1d4e8: aa 85        	mv	a1, a0
   1d4ea: 19 c0        	beqz	s0, 0x1d4f0 <fputwc+0x14>
   1d4ec: 3c 64        	ld	a5, 0x48(s0)
   1d4ee: 9d c7        	beqz	a5, 0x1d51c <fputwc+0x40>
   1d4f0: 83 17 06 01  	lh	a5, 0x10(a2)
   1d4f4: 13 97 27 03  	slli	a4, a5, 0x32
   1d4f8: 63 4c 07 00  	bltz	a4, 0x1d510 <fputwc+0x34>
   1d4fc: 03 27 c6 0a  	lw	a4, 0xac(a2)
   1d500: 89 66        	lui	a3, 0x2
   1d502: d5 8f        	or	a5, a5, a3
   1d504: 89 66        	lui	a3, 0x2
   1d506: 55 8f        	or	a4, a4, a3
   1d508: 23 18 f6 00  	sh	a5, 0x10(a2)
   1d50c: 23 26 e6 0a  	sw	a4, 0xac(a2)
   1d510: 22 85        	mv	a0, s0
   1d512: 42 64        	ld	s0, 0x10(sp)
   1d514: e2 60        	ld	ra, 0x18(sp)
   1d516: 05 61        	addi	sp, sp, 0x20
   1d518: 6f f0 bf ef  	j	0x1d412 <__fputwc>
   1d51c: 2a e0        	sd	a0, 0x0(sp)
   1d51e: 22 85        	mv	a0, s0
   1d520: 32 e4        	sd	a2, 0x8(sp)
   1d522: ef a0 4f 80  	jal	0x17526 <__sinit>
   1d526: 22 66        	ld	a2, 0x8(sp)
   1d528: 82 65        	ld	a1, 0x0(sp)
   1d52a: d9 b7        	j	0x1d4f0 <fputwc+0x14>

000000000001d52c <strncpy>:
   1d52c: b3 e7 a5 00  	or	a5, a1, a0
   1d530: 9d 8b        	andi	a5, a5, 0x7
   1d532: 81 e7        	bnez	a5, 0x1d53a <strncpy+0xe>
   1d534: 9d 47        	li	a5, 0x7
   1d536: 63 eb c7 02  	bltu	a5, a2, 0x1d56c <strncpy+0x40>
   1d53a: 2a 87        	mv	a4, a0
   1d53c: 11 a8        	j	0x1d550 <strncpy+0x24>
   1d53e: 83 c6 f5 ff  	lbu	a3, -0x1(a1)
   1d542: 13 08 f6 ff  	addi	a6, a2, -0x1
   1d546: a3 8f d7 fe  	sb	a3, -0x1(a5)
   1d54a: 81 ca        	beqz	a3, 0x1d55a <strncpy+0x2e>
   1d54c: 3e 87        	mv	a4, a5
   1d54e: 42 86        	mv	a2, a6
   1d550: 85 05        	addi	a1, a1, 0x1
   1d552: 93 07 17 00  	addi	a5, a4, 0x1
   1d556: 65 f6        	bnez	a2, 0x1d53e <strncpy+0x12>
   1d558: 82 80        	ret
   1d55a: 32 97        	add	a4, a4, a2
   1d55c: 63 01 08 06  	beqz	a6, 0x1d5be <strncpy+0x92>
   1d560: 85 07        	addi	a5, a5, 0x1
   1d562: a3 8f 07 fe  	sb	zero, -0x1(a5)
   1d566: e3 9d e7 fe  	bne	a5, a4, 0x1d560 <strncpy+0x34>
   1d56a: 82 80        	ret
   1d56c: 37 18 10 f0  	lui	a6, 0xf0101
   1d570: b7 08 ff fe  	lui	a7, 0xfeff0
   1d574: 12 08        	slli	a6, a6, 0x4
   1d576: 93 88 f8 ef  	addi	a7, a7, -0x101
   1d57a: 13 08 18 10  	addi	a6, a6, 0x101
   1d57e: c2 08        	slli	a7, a7, 0x10
   1d580: 42 08        	slli	a6, a6, 0x10
   1d582: 93 88 f8 ef  	addi	a7, a7, -0x101
   1d586: 13 08 18 10  	addi	a6, a6, 0x101
   1d58a: c2 08        	slli	a7, a7, 0x10
   1d58c: 3e 08        	slli	a6, a6, 0xf
   1d58e: 2a 87        	mv	a4, a0
   1d590: 93 88 f8 ef  	addi	a7, a7, -0x101
   1d594: 13 08 08 08  	addi	a6, a6, 0x80
   1d598: 1d 4e        	li	t3, 0x7
   1d59a: 39 a0        	j	0x1d5a8 <strncpy+0x7c>
   1d59c: 14 e3        	sd	a3, 0x0(a4)
   1d59e: 61 16        	addi	a2, a2, -0x8
   1d5a0: 21 07        	addi	a4, a4, 0x8
   1d5a2: a1 05        	addi	a1, a1, 0x8
   1d5a4: e3 76 ce fa  	bgeu	t3, a2, 0x1d550 <strncpy+0x24>
   1d5a8: 94 61        	ld	a3, 0x0(a1)
   1d5aa: b3 87 16 01  	add	a5, a3, a7
   1d5ae: 13 c3 f6 ff  	not	t1, a3
   1d5b2: b3 f7 67 00  	and	a5, a5, t1
   1d5b6: b3 f7 07 01  	and	a5, a5, a6
   1d5ba: ed d3        	beqz	a5, 0x1d59c <strncpy+0x70>
   1d5bc: 51 bf        	j	0x1d550 <strncpy+0x24>
   1d5be: 82 80        	ret

000000000001d5c0 <__localeconv_l>:
   1d5c0: 13 05 05 10  	addi	a0, a0, 0x100
   1d5c4: 82 80        	ret

000000000001d5c6 <_localeconv_r>:
   1d5c6: 13 85 01 e8  	addi	a0, gp, -0x180
   1d5ca: 82 80        	ret

000000000001d5cc <localeconv>:
   1d5cc: 13 85 01 e8  	addi	a0, gp, -0x180
   1d5d0: 82 80        	ret

000000000001d5d2 <_isatty_r>:
   1d5d2: 01 11        	addi	sp, sp, -0x20
   1d5d4: 22 e8        	sd	s0, 0x10(sp)
   1d5d6: 26 e4        	sd	s1, 0x8(sp)
   1d5d8: 2a 84        	mv	s0, a0
   1d5da: 2e 85        	mv	a0, a1
   1d5dc: 06 ec        	sd	ra, 0x18(sp)
   1d5de: 23 a0 01 26  	sw	zero, 0x260(gp)
   1d5e2: ef 20 00 29  	jal	0x1f872 <_isatty>
   1d5e6: fd 57        	li	a5, -0x1
   1d5e8: 63 07 f5 00  	beq	a0, a5, 0x1d5f6 <_isatty_r+0x24>
   1d5ec: e2 60        	ld	ra, 0x18(sp)
   1d5ee: 42 64        	ld	s0, 0x10(sp)
   1d5f0: a2 64        	ld	s1, 0x8(sp)
   1d5f2: 05 61        	addi	sp, sp, 0x20
   1d5f4: 82 80        	ret
   1d5f6: 83 a7 01 26  	lw	a5, 0x260(gp)
   1d5fa: ed db        	beqz	a5, 0x1d5ec <_isatty_r+0x1a>
   1d5fc: e2 60        	ld	ra, 0x18(sp)
   1d5fe: 1c c0        	sw	a5, 0x0(s0)
   1d600: 42 64        	ld	s0, 0x10(sp)
   1d602: a2 64        	ld	s1, 0x8(sp)
   1d604: 05 61        	addi	sp, sp, 0x20
   1d606: 82 80        	ret

000000000001d608 <__libc_fini_array>:
   1d608: 01 11        	addi	sp, sp, -0x20
   1d60a: 22 e8        	sd	s0, 0x10(sp)
   1d60c: b7 27 02 00  	lui	a5, 0x22
   1d610: 37 24 02 00  	lui	s0, 0x22
   1d614: 93 87 87 49  	addi	a5, a5, 0x498
   1d618: 13 04 04 4a  	addi	s0, s0, 0x4a0
   1d61c: 1d 8c        	sub	s0, s0, a5
   1d61e: 26 e4        	sd	s1, 0x8(sp)
   1d620: 06 ec        	sd	ra, 0x18(sp)
   1d622: 93 54 34 40  	srai	s1, s0, 0x3
   1d626: 81 c8        	beqz	s1, 0x1d636 <__libc_fini_array+0x2e>
   1d628: 61 14        	addi	s0, s0, -0x8
   1d62a: 3e 94        	add	s0, s0, a5
   1d62c: 1c 60        	ld	a5, 0x0(s0)
   1d62e: fd 14        	addi	s1, s1, -0x1
   1d630: 61 14        	addi	s0, s0, -0x8
   1d632: 82 97        	jalr	a5
   1d634: e5 fc        	bnez	s1, 0x1d62c <__libc_fini_array+0x24>
   1d636: e2 60        	ld	ra, 0x18(sp)
   1d638: 42 64        	ld	s0, 0x10(sp)
   1d63a: a2 64        	ld	s1, 0x8(sp)
   1d63c: 05 61        	addi	sp, sp, 0x20
   1d63e: 82 80        	ret

000000000001d640 <memmove>:
   1d640: 63 f2 a5 02  	bgeu	a1, a0, 0x1d664 <memmove+0x24>
   1d644: 33 87 c5 00  	add	a4, a1, a2
   1d648: 63 7e e5 00  	bgeu	a0, a4, 0x1d664 <memmove+0x24>
   1d64c: b3 07 c5 00  	add	a5, a0, a2
   1d650: 1d ca        	beqz	a2, 0x1d686 <memmove+0x46>
   1d652: 83 46 f7 ff  	lbu	a3, -0x1(a4)
   1d656: fd 17        	addi	a5, a5, -0x1
   1d658: 7d 17        	addi	a4, a4, -0x1
   1d65a: 23 80 d7 00  	sb	a3, 0x0(a5)
   1d65e: e3 1a f5 fe  	bne	a0, a5, 0x1d652 <memmove+0x12>
   1d662: 82 80        	ret
   1d664: fd 47        	li	a5, 0x1f
   1d666: 63 e1 c7 02  	bltu	a5, a2, 0x1d688 <memmove+0x48>
   1d66a: aa 87        	mv	a5, a0
   1d66c: 93 06 f6 ff  	addi	a3, a2, -0x1
   1d670: 51 ce        	beqz	a2, 0x1d70c <memmove+0xcc>
   1d672: 85 06        	addi	a3, a3, 0x1
   1d674: be 96        	add	a3, a3, a5
   1d676: 03 c7 05 00  	lbu	a4, 0x0(a1)
   1d67a: 85 07        	addi	a5, a5, 0x1
   1d67c: 85 05        	addi	a1, a1, 0x1
   1d67e: a3 8f e7 fe  	sb	a4, -0x1(a5)
   1d682: e3 9a d7 fe  	bne	a5, a3, 0x1d676 <memmove+0x36>
   1d686: 82 80        	ret
   1d688: b3 67 b5 00  	or	a5, a0, a1
   1d68c: 9d 8b        	andi	a5, a5, 0x7
   1d68e: bd eb        	bnez	a5, 0x1d704 <memmove+0xc4>
   1d690: 93 08 06 fe  	addi	a7, a2, -0x20
   1d694: 93 f8 08 fe  	andi	a7, a7, -0x20
   1d698: 93 88 08 02  	addi	a7, a7, 0x20
   1d69c: b3 06 15 01  	add	a3, a0, a7
   1d6a0: 2e 87        	mv	a4, a1
   1d6a2: aa 87        	mv	a5, a0
   1d6a4: 03 38 07 00  	ld	a6, 0x0(a4)
   1d6a8: 13 07 07 02  	addi	a4, a4, 0x20
   1d6ac: 93 87 07 02  	addi	a5, a5, 0x20
   1d6b0: 23 b0 07 ff  	sd	a6, -0x20(a5)
   1d6b4: 03 38 87 fe  	ld	a6, -0x18(a4)
   1d6b8: 23 b4 07 ff  	sd	a6, -0x18(a5)
   1d6bc: 03 38 07 ff  	ld	a6, -0x10(a4)
   1d6c0: 23 b8 07 ff  	sd	a6, -0x10(a5)
   1d6c4: 03 38 87 ff  	ld	a6, -0x8(a4)
   1d6c8: 23 bc 07 ff  	sd	a6, -0x8(a5)
   1d6cc: e3 9c d7 fc  	bne	a5, a3, 0x1d6a4 <memmove+0x64>
   1d6d0: 13 78 86 01  	andi	a6, a2, 0x18
   1d6d4: c6 95        	add	a1, a1, a7
   1d6d6: 13 77 f6 01  	andi	a4, a2, 0x1f
   1d6da: 63 0a 08 02  	beqz	a6, 0x1d70e <memmove+0xce>
   1d6de: 13 08 87 ff  	addi	a6, a4, -0x8
   1d6e2: 13 78 88 ff  	andi	a6, a6, -0x8
   1d6e6: 21 08        	addi	a6, a6, 0x8
   1d6e8: b3 87 06 01  	add	a5, a3, a6
   1d6ec: 2e 87        	mv	a4, a1
   1d6ee: 83 38 07 00  	ld	a7, 0x0(a4)
   1d6f2: a1 06        	addi	a3, a3, 0x8
   1d6f4: 21 07        	addi	a4, a4, 0x8
   1d6f6: 23 bc 16 ff  	sd	a7, -0x8(a3)
   1d6fa: e3 9a f6 fe  	bne	a3, a5, 0x1d6ee <memmove+0xae>
   1d6fe: 1d 8a        	andi	a2, a2, 0x7
   1d700: c2 95        	add	a1, a1, a6
   1d702: ad b7        	j	0x1d66c <memmove+0x2c>
   1d704: 93 06 f6 ff  	addi	a3, a2, -0x1
   1d708: aa 87        	mv	a5, a0
   1d70a: a5 b7        	j	0x1d672 <memmove+0x32>
   1d70c: 82 80        	ret
   1d70e: 3a 86        	mv	a2, a4
   1d710: b1 bf        	j	0x1d66c <memmove+0x2c>

000000000001d712 <frexpl>:
   1d712: 39 71        	addi	sp, sp, -0x40
   1d714: 4a f0        	sd	s2, 0x20(sp)
   1d716: 21 69        	lui	s2, 0x8
   1d718: 22 f8        	sd	s0, 0x30(sp)
   1d71a: 26 f4        	sd	s1, 0x28(sp)
   1d71c: 5a e0        	sd	s6, 0x0(sp)
   1d71e: 06 fc        	sd	ra, 0x38(sp)
   1d720: 93 d4 05 03  	srli	s1, a1, 0x30
   1d724: 7d 19        	addi	s2, s2, -0x1
   1d726: b3 f4 24 01  	and	s1, s1, s2
   1d72a: 23 20 06 00  	sw	zero, 0x0(a2)
   1d72e: 2e 84        	mv	s0, a1
   1d730: 2a 8b        	mv	s6, a0
   1d732: 63 84 24 05  	beq	s1, s2, 0x1d77a <frexpl+0x68>
   1d736: 56 e4        	sd	s5, 0x8(sp)
   1d738: 81 46        	li	a3, 0x0
   1d73a: b2 8a        	mv	s5, a2
   1d73c: 01 46        	li	a2, 0x0
   1d73e: 4e ec        	sd	s3, 0x18(sp)
   1d740: 52 e8        	sd	s4, 0x10(sp)
   1d742: ae 89        	mv	s3, a1
   1d744: 2a 8a        	mv	s4, a0
   1d746: ef 20 80 2b  	jal	0x1f9fe <__netf2>
   1d74a: 25 c1        	beqz	a0, 0x1d7aa <frexpl+0x98>
   1d74c: 81 46        	li	a3, 0x0
   1d74e: 8d cc        	beqz	s1, 0x1d788 <frexpl+0x76>
   1d750: 71 77        	lui	a4, 0xffffc
   1d752: b7 17 00 f8  	lui	a5, 0xf8001
   1d756: 09 27        	addiw	a4, a4, 0x2
   1d758: 92 17        	slli	a5, a5, 0x24
   1d75a: b9 9c        	addw	s1, s1, a4
   1d75c: fd 17        	addi	a5, a5, -0x1
   1d75e: 37 f4 ff 01  	lui	s0, 0x1fff
   1d762: b3 f9 f9 00  	and	s3, s3, a5
   1d766: b5 9c        	addw	s1, s1, a3
   1d768: 16 14        	slli	s0, s0, 0x25
   1d76a: 23 a0 9a 00  	sw	s1, 0x0(s5)
   1d76e: 52 85        	mv	a0, s4
   1d770: b3 e5 89 00  	or	a1, s3, s0
   1d774: 42 6a        	ld	s4, 0x10(sp)
   1d776: e2 69        	ld	s3, 0x18(sp)
   1d778: a2 6a        	ld	s5, 0x8(sp)
   1d77a: e2 70        	ld	ra, 0x38(sp)
   1d77c: 42 74        	ld	s0, 0x30(sp)
   1d77e: a2 74        	ld	s1, 0x28(sp)
   1d780: 02 79        	ld	s2, 0x20(sp)
   1d782: 02 6b        	ld	s6, 0x0(sp)
   1d784: 21 61        	addi	sp, sp, 0x40
   1d786: 82 80        	ret
   1d788: b7 16 07 04  	lui	a3, 0x4071
   1d78c: 92 16        	slli	a3, a3, 0x24
   1d78e: 01 46        	li	a2, 0x0
   1d790: 5a 85        	mv	a0, s6
   1d792: a2 85        	mv	a1, s0
   1d794: ef 20 e0 44  	jal	0x1fbe2 <__multf3>
   1d798: 93 d4 05 03  	srli	s1, a1, 0x30
   1d79c: ae 89        	mv	s3, a1
   1d79e: 2a 8a        	mv	s4, a0
   1d7a0: b3 f4 24 01  	and	s1, s1, s2
   1d7a4: 93 06 e0 f8  	li	a3, -0x72
   1d7a8: 65 b7        	j	0x1d750 <frexpl+0x3e>
   1d7aa: e2 70        	ld	ra, 0x38(sp)
   1d7ac: a2 85        	mv	a1, s0
   1d7ae: 42 74        	ld	s0, 0x30(sp)
   1d7b0: e2 69        	ld	s3, 0x18(sp)
   1d7b2: 42 6a        	ld	s4, 0x10(sp)
   1d7b4: a2 6a        	ld	s5, 0x8(sp)
   1d7b6: a2 74        	ld	s1, 0x28(sp)
   1d7b8: 02 79        	ld	s2, 0x20(sp)
   1d7ba: 5a 85        	mv	a0, s6
   1d7bc: 02 6b        	ld	s6, 0x0(sp)
   1d7be: 21 61        	addi	sp, sp, 0x40
   1d7c0: 82 80        	ret

000000000001d7c2 <__register_exitproc>:
   1d7c2: 83 b7 81 26  	ld	a5, 0x268(gp)
   1d7c6: b1 c3        	beqz	a5, 0x1d80a <__register_exitproc+0x48>
   1d7c8: 98 47        	lw	a4, 0x8(a5)
   1d7ca: 7d 48        	li	a6, 0x1f
   1d7cc: 63 46 e8 06  	blt	a6, a4, 0x1d838 <__register_exitproc+0x76>
   1d7d0: 05 c5        	beqz	a0, 0x1d7f8 <__register_exitproc+0x36>
   1d7d2: 13 18 37 00  	slli	a6, a4, 0x3
   1d7d6: 3e 98        	add	a6, a6, a5
   1d7d8: 23 38 c8 10  	sd	a2, 0x110(a6)
   1d7dc: 83 a8 07 31  	lw	a7, 0x310(a5)
   1d7e0: 05 46        	li	a2, 0x1
   1d7e2: 3b 16 e6 00  	sllw	a2, a2, a4
   1d7e6: b3 e8 c8 00  	or	a7, a7, a2
   1d7ea: 23 a8 17 31  	sw	a7, 0x310(a5)
   1d7ee: 23 38 d8 20  	sd	a3, 0x210(a6)
   1d7f2: 89 46        	li	a3, 0x2
   1d7f4: 63 04 d5 02  	beq	a0, a3, 0x1d81c <__register_exitproc+0x5a>
   1d7f8: 93 06 27 00  	addi	a3, a4, 0x2
   1d7fc: 8e 06        	slli	a3, a3, 0x3
   1d7fe: 05 27        	addiw	a4, a4, 0x1
   1d800: 98 c7        	sw	a4, 0x8(a5)
   1d802: b6 97        	add	a5, a5, a3
   1d804: 8c e3        	sd	a1, 0x0(a5)
   1d806: 01 45        	li	a0, 0x0
   1d808: 82 80        	ret
   1d80a: b7 37 02 00  	lui	a5, 0x23
   1d80e: 13 88 07 43  	addi	a6, a5, 0x430
   1d812: 23 b4 01 27  	sd	a6, 0x268(gp)
   1d816: 93 87 07 43  	addi	a5, a5, 0x430
   1d81a: 7d b7        	j	0x1d7c8 <__register_exitproc+0x6>
   1d81c: 83 a6 47 31  	lw	a3, 0x314(a5)
   1d820: 01 45        	li	a0, 0x0
   1d822: d1 8e        	or	a3, a3, a2
   1d824: 23 aa d7 30  	sw	a3, 0x314(a5)
   1d828: 93 06 27 00  	addi	a3, a4, 0x2
   1d82c: 8e 06        	slli	a3, a3, 0x3
   1d82e: 05 27        	addiw	a4, a4, 0x1
   1d830: 98 c7        	sw	a4, 0x8(a5)
   1d832: b6 97        	add	a5, a5, a3
   1d834: 8c e3        	sd	a1, 0x0(a5)
   1d836: 82 80        	ret
   1d838: 7d 55        	li	a0, -0x1
   1d83a: 82 80        	ret

000000000001d83c <__assert_func>:
   1d83c: 03 b7 01 23  	ld	a4, 0x230(gp)
   1d840: 41 11        	addi	sp, sp, -0x10
   1d842: b6 87        	mv	a5, a3
   1d844: 32 88        	mv	a6, a2
   1d846: 06 e4        	sd	ra, 0x8(sp)
   1d848: 83 38 87 01  	ld	a7, 0x18(a4)
   1d84c: aa 86        	mv	a3, a0
   1d84e: 2e 87        	mv	a4, a1
   1d850: 3e 86        	mv	a2, a5
   1d852: 63 0f 08 00  	beqz	a6, 0x1d870 <__assert_func+0x34>
   1d856: b7 17 02 00  	lui	a5, 0x21
   1d85a: 93 87 07 47  	addi	a5, a5, 0x470
   1d85e: b7 15 02 00  	lui	a1, 0x21
   1d862: 93 85 05 48  	addi	a1, a1, 0x480
   1d866: 46 85        	mv	a0, a7
   1d868: ef 10 d0 2b  	jal	0x1f324 <fiprintf>
   1d86c: ef 10 50 3f  	jal	0x1f460 <abort>
   1d870: 37 18 02 00  	lui	a6, 0x21
   1d874: 93 07 88 45  	addi	a5, a6, 0x458
   1d878: 13 08 88 45  	addi	a6, a6, 0x458
   1d87c: cd b7        	j	0x1d85e <__assert_func+0x22>

000000000001d87e <__assert>:
   1d87e: 41 11        	addi	sp, sp, -0x10
   1d880: b2 86        	mv	a3, a2
   1d882: 01 46        	li	a2, 0x0
   1d884: 06 e4        	sd	ra, 0x8(sp)
   1d886: ef f0 7f fb  	jal	0x1d83c <__assert_func>

000000000001d88a <_calloc_r>:
   1d88a: b3 b7 c5 02  	mulhu	a5, a1, a2
   1d88e: 41 11        	addi	sp, sp, -0x10
   1d890: 06 e4        	sd	ra, 0x8(sp)
   1d892: 22 e0        	sd	s0, 0x0(sp)
   1d894: b3 85 c5 02  	mul	a1, a1, a2
   1d898: b5 ef        	bnez	a5, 0x1d914 <_calloc_r+0x8a>
   1d89a: ef 70 1f e3  	jal	0x156ca <_malloc_r>
   1d89e: 2a 84        	mv	s0, a0
   1d8a0: 35 cd        	beqz	a0, 0x1d91c <_calloc_r+0x92>
   1d8a2: 03 36 85 ff  	ld	a2, -0x8(a0)
   1d8a6: 13 07 80 04  	li	a4, 0x48
   1d8aa: 71 9a        	andi	a2, a2, -0x4
   1d8ac: 61 16        	addi	a2, a2, -0x8
   1d8ae: 63 62 c7 04  	bltu	a4, a2, 0x1d8f2 <_calloc_r+0x68>
   1d8b2: 93 06 70 02  	li	a3, 0x27
   1d8b6: aa 87        	mv	a5, a0
   1d8b8: 63 f2 c6 02  	bgeu	a3, a2, 0x1d8dc <_calloc_r+0x52>
   1d8bc: 23 30 05 00  	sd	zero, 0x0(a0)
   1d8c0: 23 34 05 00  	sd	zero, 0x8(a0)
   1d8c4: 93 07 70 03  	li	a5, 0x37
   1d8c8: 63 fd c7 02  	bgeu	a5, a2, 0x1d902 <_calloc_r+0x78>
   1d8cc: 23 38 05 00  	sd	zero, 0x10(a0)
   1d8d0: 23 3c 05 00  	sd	zero, 0x18(a0)
   1d8d4: 93 07 05 02  	addi	a5, a0, 0x20
   1d8d8: 63 08 e6 04  	beq	a2, a4, 0x1d928 <_calloc_r+0x9e>
   1d8dc: 23 b0 07 00  	sd	zero, 0x0(a5)
   1d8e0: 23 b4 07 00  	sd	zero, 0x8(a5)
   1d8e4: 23 b8 07 00  	sd	zero, 0x10(a5)
   1d8e8: a2 60        	ld	ra, 0x8(sp)
   1d8ea: 22 85        	mv	a0, s0
   1d8ec: 02 64        	ld	s0, 0x0(sp)
   1d8ee: 41 01        	addi	sp, sp, 0x10
   1d8f0: 82 80        	ret
   1d8f2: 81 45        	li	a1, 0x0
   1d8f4: ef a0 3f cc  	jal	0x185b6 <memset>
   1d8f8: a2 60        	ld	ra, 0x8(sp)
   1d8fa: 22 85        	mv	a0, s0
   1d8fc: 02 64        	ld	s0, 0x0(sp)
   1d8fe: 41 01        	addi	sp, sp, 0x10
   1d900: 82 80        	ret
   1d902: 93 07 05 01  	addi	a5, a0, 0x10
   1d906: 23 b0 07 00  	sd	zero, 0x0(a5)
   1d90a: 23 b4 07 00  	sd	zero, 0x8(a5)
   1d90e: 23 b8 07 00  	sd	zero, 0x10(a5)
   1d912: d9 bf        	j	0x1d8e8 <_calloc_r+0x5e>
   1d914: ef a0 bf c2  	jal	0x1853e <__errno>
   1d918: b1 47        	li	a5, 0xc
   1d91a: 1c c1        	sw	a5, 0x0(a0)
   1d91c: 01 44        	li	s0, 0x0
   1d91e: a2 60        	ld	ra, 0x8(sp)
   1d920: 22 85        	mv	a0, s0
   1d922: 02 64        	ld	s0, 0x0(sp)
   1d924: 41 01        	addi	sp, sp, 0x10
   1d926: 82 80        	ret
   1d928: 23 30 05 02  	sd	zero, 0x20(a0)
   1d92c: 93 07 05 03  	addi	a5, a0, 0x30
   1d930: 23 34 05 02  	sd	zero, 0x28(a0)
   1d934: 65 b7        	j	0x1d8dc <_calloc_r+0x52>

000000000001d936 <_ldtoa_r>:
   1d936: 37 23 02 00  	lui	t1, 0x22
   1d93a: 13 03 03 c4  	addi	t1, t1, -0x3c0
   1d93e: 03 3f 03 00  	ld	t5, 0x0(t1)
   1d942: 83 3e 83 00  	ld	t4, 0x8(t1)
   1d946: 03 2e 03 01  	lw	t3, 0x10(t1)
   1d94a: 03 33 05 05  	ld	t1, 0x50(a0)
   1d94e: 71 71        	addi	sp, sp, -0xb0
   1d950: 26 ed        	sd	s1, 0x98(sp)
   1d952: 4a e9        	sd	s2, 0x90(sp)
   1d954: 52 e1        	sd	s4, 0x80(sp)
   1d956: da f8        	sd	s6, 0x70(sp)
   1d958: de f4        	sd	s7, 0x68(sp)
   1d95a: e2 f0        	sd	s8, 0x60(sp)
   1d95c: e6 ec        	sd	s9, 0x58(sp)
   1d95e: ea e8        	sd	s10, 0x50(sp)
   1d960: 06 f5        	sd	ra, 0xa8(sp)
   1d962: 22 f1        	sd	s0, 0xa0(sp)
   1d964: 4e e5        	sd	s3, 0x88(sp)
   1d966: d6 fc        	sd	s5, 0x78(sp)
   1d968: ee e4        	sd	s11, 0x48(sp)
   1d96a: 7a f4        	sd	t5, 0x28(sp)
   1d96c: 76 f8        	sd	t4, 0x30(sp)
   1d96e: 72 dc        	sw	t3, 0x38(sp)
   1d970: 2a 8b        	mv	s6, a0
   1d972: 2e 89        	mv	s2, a1
   1d974: b2 84        	mv	s1, a2
   1d976: 36 8c        	mv	s8, a3
   1d978: ba 8c        	mv	s9, a4
   1d97a: be 8b        	mv	s7, a5
   1d97c: 42 8a        	mv	s4, a6
   1d97e: 46 8d        	mv	s10, a7
   1d980: 63 01 03 02  	beqz	t1, 0x1d9a2 <_ldtoa_r+0x6c>
   1d984: 3c 4d        	lw	a5, 0x58(a0)
   1d986: 05 47        	li	a4, 0x1
   1d988: 9a 85        	mv	a1, t1
   1d98a: 3b 17 f7 00  	sllw	a4, a4, a5
   1d98e: 82 17        	slli	a5, a5, 0x20
   1d990: 02 17        	slli	a4, a4, 0x20
   1d992: 81 93        	srli	a5, a5, 0x20
   1d994: d9 8f        	or	a5, a5, a4
   1d996: 23 34 f3 00  	sd	a5, 0x8(t1)
   1d99a: ef b0 1f d1  	jal	0x196aa <_Bfree>
   1d99e: 23 38 0b 04  	sd	zero, 0x50(s6)
   1d9a2: d2 57        	lw	a5, 0x34(sp)
   1d9a4: 93 a5 04 00  	slti	a1, s1, 0x0
   1d9a8: 13 94 14 00  	slli	s0, s1, 0x1
   1d9ac: 1b d7 17 40  	sraiw	a4, a5, 0x1
   1d9b0: 93 d9 04 02  	srli	s3, s1, 0x20
   1d9b4: f9 8d        	and	a1, a1, a4
   1d9b6: 05 80        	srli	s0, s0, 0x1
   1d9b8: 93 a6 04 00  	slti	a3, s1, 0x0
   1d9bc: 93 9a 14 00  	slli	s5, s1, 0x1
   1d9c0: 71 77        	lui	a4, 0xffffc
   1d9c2: 9b 99 09 01  	slliw	s3, s3, 0x10
   1d9c6: ad 8f        	xor	a5, a5, a1
   1d9c8: 93 da 1a 03  	srli	s5, s5, 0x31
   1d9cc: 1b 07 17 f9  	addiw	a4, a4, -0x6f
   1d9d0: 9b d9 09 01  	srliw	s3, s3, 0x10
   1d9d4: 23 20 da 00  	sw	a3, 0x0(s4)
   1d9d8: 4a 86        	mv	a2, s2
   1d9da: a2 86        	mv	a3, s0
   1d9dc: 4a 85        	mv	a0, s2
   1d9de: a2 85        	mv	a1, s0
   1d9e0: 3e da        	sw	a5, 0x34(sp)
   1d9e2: bb 8d ea 00  	addw	s11, s5, a4
   1d9e6: 4a ec        	sd	s2, 0x18(sp)
   1d9e8: 26 d0        	sw	s1, 0x20(sp)
   1d9ea: 4e d2        	sw	s3, 0x24(sp)
   1d9ec: ef 20 f0 7b  	jal	0x209aa <__unordtf2>
   1d9f0: 5d e9        	bnez	a0, 0x1daa6 <_ldtoa_r+0x170>
   1d9f2: 37 fa ff 07  	lui	s4, 0x7fff
   1d9f6: 12 1a        	slli	s4, s4, 0x24
   1d9f8: 7d 1a        	addi	s4, s4, -0x1
   1d9fa: 7d 56        	li	a2, -0x1
   1d9fc: d2 86        	mv	a3, s4
   1d9fe: 4a 85        	mv	a0, s2
   1da00: a2 85        	mv	a1, s0
   1da02: ef 20 90 7a  	jal	0x209aa <__unordtf2>
   1da06: 39 ed        	bnez	a0, 0x1da64 <_ldtoa_r+0x12e>
   1da08: 7d 56        	li	a2, -0x1
   1da0a: d2 86        	mv	a3, s4
   1da0c: 4a 85        	mv	a0, s2
   1da0e: a2 85        	mv	a1, s0
   1da10: ef 20 40 13  	jal	0x1fb44 <__lttf2>
   1da14: 63 58 a0 04  	blez	a0, 0x1da64 <_ldtoa_r+0x12e>
   1da18: 8d 47        	li	a5, 0x3
   1da1a: 3e ca        	sw	a5, 0x14(sp)
   1da1c: e2 87        	mv	a5, s8
   1da1e: 58 08        	addi	a4, sp, 0x14
   1da20: 6a e0        	sd	s10, 0x0(sp)
   1da22: de 88        	mv	a7, s7
   1da24: 66 88        	mv	a6, s9
   1da26: 34 08        	addi	a3, sp, 0x18
   1da28: 6e 86        	mv	a2, s11
   1da2a: 2c 10        	addi	a1, sp, 0x28
   1da2c: 5a 85        	mv	a0, s6
   1da2e: ef 00 e0 0e  	jal	0x1db1c <__gdtoa>
   1da32: 03 a7 0b 00  	lw	a4, 0x0(s7)
   1da36: e1 77        	lui	a5, 0xffff8
   1da38: 63 17 f7 00  	bne	a4, a5, 0x1da46 <_ldtoa_r+0x110>
   1da3c: b7 07 00 80  	lui	a5, 0x80000
   1da40: fd 17        	addi	a5, a5, -0x1
   1da42: 23 a0 fb 00  	sw	a5, 0x0(s7)
   1da46: aa 70        	ld	ra, 0xa8(sp)
   1da48: 0a 74        	ld	s0, 0xa0(sp)
   1da4a: ea 64        	ld	s1, 0x98(sp)
   1da4c: 4a 69        	ld	s2, 0x90(sp)
   1da4e: aa 69        	ld	s3, 0x88(sp)
   1da50: 0a 6a        	ld	s4, 0x80(sp)
   1da52: e6 7a        	ld	s5, 0x78(sp)
   1da54: 46 7b        	ld	s6, 0x70(sp)
   1da56: a6 7b        	ld	s7, 0x68(sp)
   1da58: 06 7c        	ld	s8, 0x60(sp)
   1da5a: e6 6c        	ld	s9, 0x58(sp)
   1da5c: 46 6d        	ld	s10, 0x50(sp)
   1da5e: a6 6d        	ld	s11, 0x48(sp)
   1da60: 4d 61        	addi	sp, sp, 0xb0
   1da62: 82 80        	ret
   1da64: 85 46        	li	a3, 0x1
   1da66: 01 46        	li	a2, 0x0
   1da68: c2 16        	slli	a3, a3, 0x30
   1da6a: 4a 85        	mv	a0, s2
   1da6c: a2 85        	mv	a1, s0
   1da6e: ef 20 80 03  	jal	0x1faa6 <__gttf2>
   1da72: 63 49 05 00  	bltz	a0, 0x1da84 <_ldtoa_r+0x14e>
   1da76: c1 67        	lui	a5, 0x10
   1da78: b3 e9 f9 00  	or	s3, s3, a5
   1da7c: 85 47        	li	a5, 0x1
   1da7e: 3e ca        	sw	a5, 0x14(sp)
   1da80: 4e d2        	sw	s3, 0x24(sp)
   1da82: 69 bf        	j	0x1da1c <_ldtoa_r+0xe6>
   1da84: 01 46        	li	a2, 0x0
   1da86: 81 46        	li	a3, 0x0
   1da88: 4a 85        	mv	a0, s2
   1da8a: a6 85        	mv	a1, s1
   1da8c: ef 10 30 77  	jal	0x1f9fe <__netf2>
   1da90: 19 e1        	bnez	a0, 0x1da96 <_ldtoa_r+0x160>
   1da92: 02 ca        	sw	zero, 0x14(sp)
   1da94: 61 b7        	j	0x1da1c <_ldtoa_r+0xe6>
   1da96: 71 77        	lui	a4, 0xffffc
   1da98: 1b 07 27 f9  	addiw	a4, a4, -0x6e
   1da9c: 89 47        	li	a5, 0x2
   1da9e: 3e ca        	sw	a5, 0x14(sp)
   1daa0: bb 8d ea 00  	addw	s11, s5, a4
   1daa4: a5 bf        	j	0x1da1c <_ldtoa_r+0xe6>
   1daa6: 91 47        	li	a5, 0x4
   1daa8: 3e ca        	sw	a5, 0x14(sp)
   1daaa: 8d bf        	j	0x1da1c <_ldtoa_r+0xe6>

000000000001daac <_ldcheck>:
   1daac: 79 71        	addi	sp, sp, -0x30
   1daae: 26 ec        	sd	s1, 0x18(sp)
   1dab0: 04 65        	ld	s1, 0x8(a0)
   1dab2: 4e e4        	sd	s3, 0x8(sp)
   1dab4: 83 39 05 00  	ld	s3, 0x0(a0)
   1dab8: 86 04        	slli	s1, s1, 0x1
   1daba: 85 80        	srli	s1, s1, 0x1
   1dabc: 4e 86        	mv	a2, s3
   1dabe: a6 86        	mv	a3, s1
   1dac0: 4e 85        	mv	a0, s3
   1dac2: a6 85        	mv	a1, s1
   1dac4: 06 f4        	sd	ra, 0x28(sp)
   1dac6: ef 20 50 6e  	jal	0x209aa <__unordtf2>
   1daca: 39 e1        	bnez	a0, 0x1db10 <_ldcheck+0x64>
   1dacc: 4a e8        	sd	s2, 0x10(sp)
   1dace: 37 f9 ff 07  	lui	s2, 0x7fff
   1dad2: 12 19        	slli	s2, s2, 0x24
   1dad4: 7d 19        	addi	s2, s2, -0x1
   1dad6: 7d 56        	li	a2, -0x1
   1dad8: ca 86        	mv	a3, s2
   1dada: 4e 85        	mv	a0, s3
   1dadc: a6 85        	mv	a1, s1
   1dade: 22 f0        	sd	s0, 0x20(sp)
   1dae0: 05 44        	li	s0, 0x1
   1dae2: ef 20 90 6c  	jal	0x209aa <__unordtf2>
   1dae6: 01 cd        	beqz	a0, 0x1dafe <_ldcheck+0x52>
   1dae8: a2 70        	ld	ra, 0x28(sp)
   1daea: 13 45 14 00  	xori	a0, s0, 0x1
   1daee: 02 74        	ld	s0, 0x20(sp)
   1daf0: 06 05        	slli	a0, a0, 0x1
   1daf2: 42 69        	ld	s2, 0x10(sp)
   1daf4: e2 64        	ld	s1, 0x18(sp)
   1daf6: a2 69        	ld	s3, 0x8(sp)
   1daf8: 09 89        	andi	a0, a0, 0x2
   1dafa: 45 61        	addi	sp, sp, 0x30
   1dafc: 82 80        	ret
   1dafe: 7d 56        	li	a2, -0x1
   1db00: ca 86        	mv	a3, s2
   1db02: 4e 85        	mv	a0, s3
   1db04: a6 85        	mv	a1, s1
   1db06: ef 20 e0 03  	jal	0x1fb44 <__lttf2>
   1db0a: 13 24 15 00  	slti	s0, a0, 0x1
   1db0e: e9 bf        	j	0x1dae8 <_ldcheck+0x3c>
   1db10: a2 70        	ld	ra, 0x28(sp)
   1db12: e2 64        	ld	s1, 0x18(sp)
   1db14: a2 69        	ld	s3, 0x8(sp)
   1db16: 05 45        	li	a0, 0x1
   1db18: 45 61        	addi	sp, sp, 0x30
   1db1a: 82 80        	ret

000000000001db1c <__gdtoa>:
   1db1c: 11 71        	addi	sp, sp, -0x100
   1db1e: 66 f5        	sd	s9, 0xa8(sp)
   1db20: 83 2c 07 00  	lw	s9, 0x0(a4)
   1db24: a6 f5        	sd	s1, 0xe8(sp)
   1db26: d2 e9        	sd	s4, 0xd0(sp)
   1db28: 13 f3 fc fc  	andi	t1, s9, -0x31
   1db2c: 86 fd        	sd	ra, 0xf8(sp)
   1db2e: 23 20 67 00  	sw	t1, 0x0(a4)
   1db32: 3a 8a        	mv	s4, a4
   1db34: 12 67        	ld	a4, 0x100(sp)
   1db36: 13 f3 fc 00  	andi	t1, s9, 0xf
   1db3a: 0d 4e        	li	t3, 0x3
   1db3c: 3a e4        	sd	a4, 0x8(sp)
   1db3e: 32 e8        	sd	a2, 0x10(sp)
   1db40: c6 84        	mv	s1, a7
   1db42: 63 0a c3 53  	beq	t1, t3, 0x1e076 <__gdtoa+0x55a>
   1db46: ce ed        	sd	s3, 0xd8(sp)
   1db48: 93 f9 cc 00  	andi	s3, s9, 0xc
   1db4c: 63 91 09 4c  	bnez	s3, 0x1e00e <__gdtoa+0x4f2>
   1db50: a2 f9        	sd	s0, 0xf0(sp)
   1db52: 2a 84        	mv	s0, a0
   1db54: 63 0c 03 4e  	beqz	t1, 0x1e04c <__gdtoa+0x530>
   1db58: 6a f1        	sd	s10, 0xa0(sp)
   1db5a: 03 ad 05 00  	lw	s10, 0x0(a1)
   1db5e: ca f1        	sd	s2, 0xe0(sp)
   1db60: da e1        	sd	s6, 0xc0(sp)
   1db62: 5e fd        	sd	s7, 0xb8(sp)
   1db64: 6e ed        	sd	s11, 0x98(sp)
   1db66: 62 f9        	sd	s8, 0xb0(sp)
   1db68: b6 8d        	mv	s11, a3
   1db6a: 93 06 00 02  	li	a3, 0x20
   1db6e: 2e 8b        	mv	s6, a1
   1db70: 3e 89        	mv	s2, a5
   1db72: c2 8b        	mv	s7, a6
   1db74: 81 45        	li	a1, 0x0
   1db76: 93 07 00 02  	li	a5, 0x20
   1db7a: 63 d7 a6 01  	bge	a3, s10, 0x1db88 <__gdtoa+0x6c>
   1db7e: 9b 97 17 00  	slliw	a5, a5, 0x1
   1db82: 85 25        	addiw	a1, a1, 0x1
   1db84: e3 cd a7 ff  	blt	a5, s10, 0x1db7e <__gdtoa+0x62>
   1db88: 22 85        	mv	a0, s0
   1db8a: ef b0 df ab  	jal	0x19646 <_Balloc>
   1db8e: 2a 8c        	mv	s8, a0
   1db90: 63 0f 05 6c  	beqz	a0, 0x1e26e <__gdtoa+0x752>
   1db94: 1b 05 fd ff  	addiw	a0, s10, -0x1
   1db98: 1b 55 55 40  	sraiw	a0, a0, 0x5
   1db9c: 93 15 25 00  	slli	a1, a0, 0x2
   1dba0: d6 e5        	sd	s5, 0xc8(sp)
   1dba2: ee 95        	add	a1, a1, s11
   1dba4: 93 06 8c 01  	addi	a3, s8, 0x18
   1dba8: ee 87        	mv	a5, s11
   1dbaa: 98 43        	lw	a4, 0x0(a5)
   1dbac: 91 07        	addi	a5, a5, 0x4
   1dbae: 91 06        	addi	a3, a3, 0x4
   1dbb0: 23 ae e6 fe  	sw	a4, -0x4(a3)
   1dbb4: e3 fb f5 fe  	bgeu	a1, a5, 0x1dbaa <__gdtoa+0x8e>
   1dbb8: 85 05        	addi	a1, a1, 0x1
   1dbba: 93 87 1d 00  	addi	a5, s11, 0x1
   1dbbe: 91 46        	li	a3, 0x4
   1dbc0: 63 e5 f5 00  	bltu	a1, a5, 0x1dbca <__gdtoa+0xae>
   1dbc4: 0a 05        	slli	a0, a0, 0x2
   1dbc6: 93 06 45 00  	addi	a3, a0, 0x4
   1dbca: 93 d7 26 40  	srai	a5, a3, 0x2
   1dbce: 81 27        	sext.w	a5, a5
   1dbd0: e2 96        	add	a3, a3, s8
   1dbd2: 21 a0        	j	0x1dbda <__gdtoa+0xbe>
   1dbd4: f1 16        	addi	a3, a3, -0x4
   1dbd6: 63 85 07 4e  	beqz	a5, 0x1e0c0 <__gdtoa+0x5a4>
   1dbda: d8 4a        	lw	a4, 0x14(a3)
   1dbdc: be 8a        	mv	s5, a5
   1dbde: fd 37        	addiw	a5, a5, -0x1
   1dbe0: 75 db        	beqz	a4, 0x1dbd4 <__gdtoa+0xb8>
   1dbe2: 91 07        	addi	a5, a5, 0x4
   1dbe4: 8a 07        	slli	a5, a5, 0x2
   1dbe6: e2 97        	add	a5, a5, s8
   1dbe8: 88 47        	lw	a0, 0x8(a5)
   1dbea: 23 2a 5c 01  	sw	s5, 0x14(s8)
   1dbee: 9b 9a 5a 00  	slliw	s5, s5, 0x5
   1dbf2: ef b0 ff c9  	jal	0x19890 <__hi0bits>
   1dbf6: bb 87 aa 40  	subw	a5, s5, a0
   1dbfa: 62 85        	mv	a0, s8
   1dbfc: 3e ec        	sd	a5, 0x18(sp)
   1dbfe: ef 10 a0 23  	jal	0x1ee38 <__trailz_D2A>
   1dc02: 2a c7        	sw	a0, 0x8c(sp)
   1dc04: 42 66        	ld	a2, 0x10(sp)
   1dc06: e2 67        	ld	a5, 0x18(sp)
   1dc08: 63 10 05 4e  	bnez	a0, 0x1e0e8 <__gdtoa+0x5cc>
   1dc0c: 83 26 4c 01  	lw	a3, 0x14(s8)
   1dc10: 63 83 06 42  	beqz	a3, 0x1e036 <__gdtoa+0x51a>
   1dc14: 6c 01        	addi	a1, sp, 0x8c
   1dc16: 62 85        	mv	a0, s8
   1dc18: 3e f0        	sd	a5, 0x20(sp)
   1dc1a: 32 ec        	sd	a2, 0x18(sp)
   1dc1c: ef c0 4f bf  	jal	0x1a010 <__b2d>
   1dc20: 53 05 05 e2  	fmv.x.d	a0, fa0
   1dc24: 37 03 f0 3f  	lui	t1, 0x3ff00
   1dc28: fd 56        	li	a3, -0x1
   1dc2a: 93 15 c5 00  	slli	a1, a0, 0xc
   1dc2e: b1 91        	srli	a1, a1, 0x2c
   1dc30: b3 e8 65 00  	or	a7, a1, t1
   1dc34: 81 92        	srli	a3, a3, 0x20
   1dc36: 82 18        	slli	a7, a7, 0x20
   1dc38: e9 8e        	and	a3, a3, a0
   1dc3a: b3 e6 16 01  	or	a3, a3, a7
   1dc3e: 07 b7 01 17  	fld	fa4, 0x170(gp)
   1dc42: d3 87 06 f2  	fmv.d.x	fa5, a3
   1dc46: 87 b6 81 17  	fld	fa3, 0x178(gp)
   1dc4a: 53 f7 e7 0a  	fsub.d	fa4, fa5, fa4
   1dc4e: 87 b7 01 18  	fld	fa5, 0x180(gp)
   1dc52: 62 66        	ld	a2, 0x18(sp)
   1dc54: 82 77        	ld	a5, 0x20(sp)
   1dc56: b3 ee 65 00  	or	t4, a1, t1
   1dc5a: 43 77 d7 7a  	fmadd.d	fa4, fa4, fa3, fa5
   1dc5e: bb 0a f6 00  	addw	s5, a2, a5
   1dc62: 9b 88 fa ff  	addiw	a7, s5, -0x1
   1dc66: d3 87 08 d2  	fcvt.d.w	fa5, a7
   1dc6a: 87 b6 81 18  	fld	fa3, 0x188(gp)
   1dc6e: 1b 85 08 00  	sext.w	a0, a7
   1dc72: c3 f7 d7 72  	fmadd.d	fa5, fa5, fa3, fa4
   1dc76: 63 55 05 00  	bgez	a0, 0x1dc80 <__gdtoa+0x164>
   1dc7a: 05 45        	li	a0, 0x1
   1dc7c: 3b 05 55 41  	subw	a0, a0, s5
   1dc80: 1b 03 b5 bc  	addiw	t1, a0, -0x435
   1dc84: 63 58 60 00  	blez	t1, 0x1dc94 <__gdtoa+0x178>
   1dc88: d3 06 03 d2  	fcvt.d.w	fa3, t1
   1dc8c: 07 b7 01 19  	fld	fa4, 0x190(gp)
   1dc90: c3 f7 e6 7a  	fmadd.d	fa5, fa3, fa4, fa5
   1dc94: 53 07 00 f2  	fmv.d.x	fa4, zero
   1dc98: 53 95 07 c2  	fcvt.w.d	a0, fa5, rtz
   1dc9c: 53 9e e7 a2  	flt.d	t3, fa5, fa4
   1dca0: 1b 03 05 00  	sext.w	t1, a0
   1dca4: 63 10 0e 70  	bnez	t3, 0x1e3a4 <__gdtoa+0x888>
   1dca8: 9b 95 48 01  	slliw	a1, a7, 0x14
   1dcac: bb 85 d5 01  	addw	a1, a1, t4
   1dcb0: 82 16        	slli	a3, a3, 0x20
   1dcb2: 3b 8f 17 41  	subw	t5, a5, a7
   1dcb6: 82 15        	slli	a1, a1, 0x20
   1dcb8: 81 92        	srli	a3, a3, 0x20
   1dcba: 1b 05 03 00  	sext.w	a0, t1
   1dcbe: d9 4e        	li	t4, 0x16
   1dcc0: fa 88        	mv	a7, t5
   1dcc2: cd 8e        	or	a3, a3, a1
   1dcc4: 1b 0e ff ff  	addiw	t3, t5, -0x1
   1dcc8: 63 ef ae 3e  	bltu	t4, a0, 0x1e0c6 <__gdtoa+0x5aa>
   1dccc: b7 25 02 00  	lui	a1, 0x22
   1dcd0: 93 85 85 85  	addi	a1, a1, -0x7a8
   1dcd4: 13 15 33 00  	slli	a0, t1, 0x3
   1dcd8: aa 95        	add	a1, a1, a0
   1dcda: 9c 21        	fld	fa5, 0x0(a1)
   1dcdc: 53 87 06 f2  	fmv.d.x	fa4, a3
   1dce0: d3 15 f7 a2  	flt.d	a1, fa4, fa5
   1dce4: 63 94 05 5c  	bnez	a1, 0x1e2ac <__gdtoa+0x790>
   1dce8: 82 f8        	sd	zero, 0x70(sp)
   1dcea: 02 ec        	sd	zero, 0x18(sp)
   1dcec: 63 47 e0 01  	bgtz	t5, 0x1dcfa <__gdtoa+0x1de>
   1dcf0: 85 45        	li	a1, 0x1
   1dcf2: 3b 87 e5 41  	subw	a4, a1, t5
   1dcf6: 3a ec        	sd	a4, 0x18(sp)
   1dcf8: 01 4e        	li	t3, 0x0
   1dcfa: 3b 0e c3 01  	addw	t3, t1, t3
   1dcfe: 1a fc        	sd	t1, 0x38(sp)
   1dd00: 02 f8        	sd	zero, 0x30(sp)
   1dd02: a5 45        	li	a1, 0x9
   1dd04: 63 ed 25 3f  	bltu	a1, s2, 0x1e0fe <__gdtoa+0x5e2>
   1dd08: 95 45        	li	a1, 0x5
   1dd0a: 63 c4 25 59  	blt	a1, s2, 0x1e292 <__gdtoa+0x776>
   1dd0e: 9b 8a da 3f  	addiw	s5, s5, 0x3fd
   1dd12: 11 45        	li	a0, 0x4
   1dd14: 93 ba 8a 7f  	sltiu	s5, s5, 0x7f8
   1dd18: e3 09 a9 22  	beq	s2, a0, 0x1e74a <__gdtoa+0xc2e>
   1dd1c: e3 03 b9 22  	beq	s2, a1, 0x1e742 <__gdtoa+0xc26>
   1dd20: 89 45        	li	a1, 0x2
   1dd22: e3 07 b9 22  	beq	s2, a1, 0x1e750 <__gdtoa+0xc34>
   1dd26: 8d 45        	li	a1, 0x3
   1dd28: 82 e0        	sd	zero, 0x40(sp)
   1dd2a: 63 1f b9 3c  	bne	s2, a1, 0x1e108 <__gdtoa+0x5ec>
   1dd2e: 62 77        	ld	a4, 0x38(sp)
   1dd30: bb 05 77 01  	addw	a1, a4, s7
   1dd34: 1b 87 15 00  	addiw	a4, a1, 0x1
   1dd38: 3a f4        	sd	a4, 0x28(sp)
   1dd3a: ae fc        	sd	a1, 0x78(sp)
   1dd3c: e3 58 e0 04  	blez	a4, 0x1e58c <__gdtoa+0xa70>
   1dd40: ba 88        	mv	a7, a4
   1dd42: ba 85        	mv	a1, a4
   1dd44: 22 85        	mv	a0, s0
   1dd46: b6 f4        	sd	a3, 0x68(sp)
   1dd48: be f0        	sd	a5, 0x60(sp)
   1dd4a: f2 ec        	sd	t3, 0x58(sp)
   1dd4c: 9a e8        	sd	t1, 0x50(sp)
   1dd4e: b2 e4        	sd	a2, 0x48(sp)
   1dd50: 46 c7        	sw	a7, 0x8c(sp)
   1dd52: ef 00 90 61  	jal	0x1eb6a <__rv_alloc_D2A>
   1dd56: 2a 88        	mv	a6, a0
   1dd58: 63 0a 05 34  	beqz	a0, 0x1e0ac <__gdtoa+0x590>
   1dd5c: 03 27 cb 00  	lw	a4, 0xc(s6)
   1dd60: 26 66        	ld	a2, 0x48(sp)
   1dd62: 46 63        	ld	t1, 0x50(sp)
   1dd64: 7d 37        	addiw	a4, a4, -0x1
   1dd66: 3a f0        	sd	a4, 0x20(sp)
   1dd68: 66 6e        	ld	t3, 0x58(sp)
   1dd6a: 86 77        	ld	a5, 0x60(sp)
   1dd6c: a6 76        	ld	a3, 0x68(sp)
   1dd6e: 63 03 07 3c  	beqz	a4, 0x1e134 <__gdtoa+0x618>
   1dd72: 63 4d 07 50  	bltz	a4, 0x1e28c <__gdtoa+0x770>
   1dd76: 93 fc 0c 10  	andi	s9, s9, 0x100
   1dd7a: 63 98 0c 3a  	bnez	s9, 0x1e12a <__gdtoa+0x60e>
   1dd7e: 63 46 06 00  	bltz	a2, 0x1dd8a <__gdtoa+0x26e>
   1dd82: 62 77        	ld	a4, 0x38(sp)
   1dd84: b9 45        	li	a1, 0xe
   1dd86: 63 d6 e5 52  	bge	a1, a4, 0x1e2b2 <__gdtoa+0x796>
   1dd8a: 06 67        	ld	a4, 0x40(sp)
   1dd8c: 63 0c 07 4e  	beqz	a4, 0x1e284 <__gdtoa+0x768>
   1dd90: 3b 0d fd 40  	subw	s10, s10, a5
   1dd94: 83 26 4b 00  	lw	a3, 0x4(s6)
   1dd98: 9b 05 1d 00  	addiw	a1, s10, 0x1
   1dd9c: 2e c7        	sw	a1, 0x8c(sp)
   1dd9e: 3b 0d a6 41  	subw	s10, a2, s10
   1dda2: e3 58 dd 02  	bge	s10, a3, 0x1e5d2 <__gdtoa+0xab6>
   1dda6: 9b 05 d9 ff  	addiw	a1, s2, -0x3
   1ddaa: f5 99        	andi	a1, a1, -0x3
   1ddac: 81 25        	sext.w	a1, a1
   1ddae: 63 82 05 76  	beqz	a1, 0x1e512 <__gdtoa+0x9f6>
   1ddb2: bb 06 d6 40  	subw	a3, a2, a3
   1ddb6: 9b 85 16 00  	addiw	a1, a3, 0x1
   1ddba: 2e c7        	sw	a1, 0x8c(sp)
   1ddbc: 05 46        	li	a2, 0x1
   1ddbe: ae 86        	mv	a3, a1
   1ddc0: 63 58 26 01  	bge	a2, s2, 0x1ddd0 <__gdtoa+0x2b4>
   1ddc4: 22 77        	ld	a4, 0x28(sp)
   1ddc6: 63 55 e0 00  	blez	a4, 0x1ddd0 <__gdtoa+0x2b4>
   1ddca: 22 77        	ld	a4, 0x28(sp)
   1ddcc: e3 42 b7 46  	blt	a4, a1, 0x1ea30 <__gdtoa+0xf14>
   1ddd0: 62 67        	ld	a4, 0x18(sp)
   1ddd2: 42 7d        	ld	s10, 0x30(sp)
   1ddd4: 3b 8e c6 01  	addw	t3, a3, t3
   1ddd8: ba 8c        	mv	s9, a4
   1ddda: 35 9f        	addw	a4, a4, a3
   1dddc: 3a ec        	sd	a4, 0x18(sp)
   1ddde: 85 45        	li	a1, 0x1
   1dde0: 22 85        	mv	a0, s0
   1dde2: c2 f0        	sd	a6, 0x60(sp)
   1dde4: be ec        	sd	a5, 0x58(sp)
   1dde6: f2 e8        	sd	t3, 0x50(sp)
   1dde8: 9a e4        	sd	t1, 0x48(sp)
   1ddea: ef b0 df b9  	jal	0x19986 <__i2b>
   1ddee: 26 63        	ld	t1, 0x48(sp)
   1ddf0: 46 6e        	ld	t3, 0x50(sp)
   1ddf2: e6 67        	ld	a5, 0x58(sp)
   1ddf4: 06 78        	ld	a6, 0x60(sp)
   1ddf6: aa 8a        	mv	s5, a0
   1ddf8: 63 0a 05 2a  	beqz	a0, 0x1e0ac <__gdtoa+0x590>
   1ddfc: 63 80 0c 02  	beqz	s9, 0x1de1c <__gdtoa+0x300>
   1de00: 63 5e c0 01  	blez	t3, 0x1de1c <__gdtoa+0x300>
   1de04: e6 86        	mv	a3, s9
   1de06: 63 53 9e 01  	bge	t3, s9, 0x1de0c <__gdtoa+0x2f0>
   1de0a: f2 86        	mv	a3, t3
   1de0c: 62 67        	ld	a4, 0x18(sp)
   1de0e: 36 c7        	sw	a3, 0x8c(sp)
   1de10: bb 8c dc 40  	subw	s9, s9, a3
   1de14: 15 9f        	subw	a4, a4, a3
   1de16: 3a ec        	sd	a4, 0x18(sp)
   1de18: 3b 0e de 40  	subw	t3, t3, a3
   1de1c: 42 77        	ld	a4, 0x30(sp)
   1de1e: 0d c7        	beqz	a4, 0x1de48 <__gdtoa+0x32c>
   1de20: 06 67        	ld	a4, 0x40(sp)
   1de22: 19 c3        	beqz	a4, 0x1de28 <__gdtoa+0x30c>
   1de24: e3 1d 0d 06  	bnez	s10, 0x1e69e <__gdtoa+0xb82>
   1de28: 42 76        	ld	a2, 0x30(sp)
   1de2a: e2 85        	mv	a1, s8
   1de2c: 22 85        	mv	a0, s0
   1de2e: c2 f0        	sd	a6, 0x60(sp)
   1de30: be ec        	sd	a5, 0x58(sp)
   1de32: f2 e8        	sd	t3, 0x50(sp)
   1de34: 9a e4        	sd	t1, 0x48(sp)
   1de36: ef b0 9f d6  	jal	0x19b9e <__pow5mult>
   1de3a: 26 63        	ld	t1, 0x48(sp)
   1de3c: 46 6e        	ld	t3, 0x50(sp)
   1de3e: e6 67        	ld	a5, 0x58(sp)
   1de40: 06 78        	ld	a6, 0x60(sp)
   1de42: 2a 8c        	mv	s8, a0
   1de44: 63 04 05 26  	beqz	a0, 0x1e0ac <__gdtoa+0x590>
   1de48: 85 45        	li	a1, 0x1
   1de4a: 22 85        	mv	a0, s0
   1de4c: c2 ec        	sd	a6, 0x58(sp)
   1de4e: be e8        	sd	a5, 0x50(sp)
   1de50: f2 e4        	sd	t3, 0x48(sp)
   1de52: 1a f8        	sd	t1, 0x30(sp)
   1de54: ef b0 3f b3  	jal	0x19986 <__i2b>
   1de58: 2a 8d        	mv	s10, a0
   1de5a: 63 09 05 24  	beqz	a0, 0x1e0ac <__gdtoa+0x590>
   1de5e: 42 73        	ld	t1, 0x30(sp)
   1de60: 26 6e        	ld	t3, 0x48(sp)
   1de62: c6 67        	ld	a5, 0x50(sp)
   1de64: 66 68        	ld	a6, 0x58(sp)
   1de66: 63 17 03 72  	bnez	t1, 0x1e594 <__gdtoa+0xa78>
   1de6a: 85 46        	li	a3, 0x1
   1de6c: 63 de 26 51  	bge	a3, s2, 0x1e388 <__gdtoa+0x86c>
   1de70: 7d 45        	li	a0, 0x1f
   1de72: e2 67        	ld	a5, 0x18(sp)
   1de74: bb 09 c5 41  	subw	s3, a0, t3
   1de78: f1 39        	addiw	s3, s3, -0x4
   1de7a: 93 f9 f9 01  	andi	s3, s3, 0x1f
   1de7e: 3b 86 f9 00  	addw	a2, s3, a5
   1de82: 4e c7        	sw	s3, 0x8c(sp)
   1de84: ce 87        	mv	a5, s3
   1de86: 63 4e c0 5a  	bgtz	a2, 0x1e442 <__gdtoa+0x926>
   1de8a: 3b 06 fe 00  	addw	a2, t3, a5
   1de8e: 63 44 c0 20  	bgtz	a2, 0x1e096 <__gdtoa+0x57a>
   1de92: c6 77        	ld	a5, 0x70(sp)
   1de94: 63 96 07 5c  	bnez	a5, 0x1e460 <__gdtoa+0x944>
   1de98: a2 77        	ld	a5, 0x28(sp)
   1de9a: 63 5c f0 68  	blez	a5, 0x1e532 <__gdtoa+0xa16>
   1de9e: 86 67        	ld	a5, 0x40(sp)
   1dea0: 63 8e 07 5e  	beqz	a5, 0x1e49c <__gdtoa+0x980>
   1dea4: 3b 86 99 01  	addw	a2, s3, s9
   1dea8: e3 4c c0 06  	bgtz	a2, 0x1e720 <__gdtoa+0xc04>
   1deac: 56 ec        	sd	s5, 0x18(sp)
   1deae: e3 12 03 0c  	bnez	t1, 0x1e772 <__gdtoa+0xc56>
   1deb2: 6e e8        	sd	s11, 0x10(sp)
   1deb4: a6 e0        	sd	s1, 0x40(sp)
   1deb6: a2 7d        	ld	s11, 0x28(sp)
   1deb8: e2 64        	ld	s1, 0x18(sp)
   1deba: c2 8b        	mv	s7, a6
   1debc: 85 46        	li	a3, 0x1
   1debe: 42 f8        	sd	a6, 0x30(sp)
   1dec0: 52 f4        	sd	s4, 0x28(sp)
   1dec2: 8d a8        	j	0x1df34 <__gdtoa+0x418>
   1dec4: 22 85        	mv	a0, s0
   1dec6: ef b0 4f fe  	jal	0x196aa <_Bfree>
   1deca: e3 49 0b 12  	bltz	s6, 0x1e7fc <__gdtoa+0xce0>
   1dece: 33 6b 69 01  	or	s6, s2, s6
   1ded2: 01 2b        	sext.w	s6, s6
   1ded4: 63 17 0b 00  	bnez	s6, 0x1dee2 <__gdtoa+0x3c6>
   1ded8: c2 67        	ld	a5, 0x10(sp)
   1deda: 9c 43        	lw	a5, 0x0(a5)
   1dedc: 85 8b        	andi	a5, a5, 0x1
   1dede: e3 8f 07 10  	beqz	a5, 0x1e7fc <__gdtoa+0xce0>
   1dee2: 82 77        	ld	a5, 0x20(sp)
   1dee4: 09 47        	li	a4, 0x2
   1dee6: e3 92 e7 2c  	bne	a5, a4, 0x1e9aa <__gdtoa+0xe8e>
   1deea: 23 80 4b 01  	sb	s4, 0x0(s7)
   1deee: ba 47        	lw	a5, 0x8c(sp)
   1def0: 85 0b        	addi	s7, s7, 0x1
   1def2: e3 85 b7 23  	beq	a5, s11, 0x1e91c <__gdtoa+0xe00>
   1def6: e2 85        	mv	a1, s8
   1def8: 81 46        	li	a3, 0x0
   1defa: 29 46        	li	a2, 0xa
   1defc: 22 85        	mv	a0, s0
   1defe: ef b0 ef fb  	jal	0x196bc <__multadd>
   1df02: 2a 8c        	mv	s8, a0
   1df04: 63 04 05 1a  	beqz	a0, 0x1e0ac <__gdtoa+0x590>
   1df08: 81 46        	li	a3, 0x0
   1df0a: 29 46        	li	a2, 0xa
   1df0c: d6 85        	mv	a1, s5
   1df0e: 22 85        	mv	a0, s0
   1df10: 63 80 9a 4c  	beq	s5, s1, 0x1e3d0 <__gdtoa+0x8b4>
   1df14: ef b0 8f fa  	jal	0x196bc <__multadd>
   1df18: aa 8a        	mv	s5, a0
   1df1a: 63 09 05 18  	beqz	a0, 0x1e0ac <__gdtoa+0x590>
   1df1e: a6 85        	mv	a1, s1
   1df20: 81 46        	li	a3, 0x0
   1df22: 29 46        	li	a2, 0xa
   1df24: 22 85        	mv	a0, s0
   1df26: ef b0 6f f9  	jal	0x196bc <__multadd>
   1df2a: aa 84        	mv	s1, a0
   1df2c: 63 00 05 18  	beqz	a0, 0x1e0ac <__gdtoa+0x590>
   1df30: ba 46        	lw	a3, 0x8c(sp)
   1df32: 85 26        	addiw	a3, a3, 0x1
   1df34: ea 85        	mv	a1, s10
   1df36: 62 85        	mv	a0, s8
   1df38: 36 c7        	sw	a3, 0x8c(sp)
   1df3a: ef 00 f0 4e  	jal	0x1ec28 <__quorem_D2A>
   1df3e: 1b 0a 05 03  	addiw	s4, a0, 0x30
   1df42: d6 85        	mv	a1, s5
   1df44: aa 8c        	mv	s9, a0
   1df46: 62 85        	mv	a0, s8
   1df48: ef b0 9f e5  	jal	0x19da0 <__mcmp>
   1df4c: ea 85        	mv	a1, s10
   1df4e: 2a 8b        	mv	s6, a0
   1df50: 26 86        	mv	a2, s1
   1df52: 22 85        	mv	a0, s0
   1df54: ef b0 5f e8  	jal	0x19dd8 <__mdiff>
   1df58: d2 89        	mv	s3, s4
   1df5a: aa 85        	mv	a1, a0
   1df5c: 63 08 05 14  	beqz	a0, 0x1e0ac <__gdtoa+0x590>
   1df60: 1c 49        	lw	a5, 0x10(a0)
   1df62: ad f3        	bnez	a5, 0x1dec4 <__gdtoa+0x3a8>
   1df64: 2a ec        	sd	a0, 0x18(sp)
   1df66: 62 85        	mv	a0, s8
   1df68: ef b0 9f e3  	jal	0x19da0 <__mcmp>
   1df6c: e2 65        	ld	a1, 0x18(sp)
   1df6e: aa 86        	mv	a3, a0
   1df70: 22 85        	mv	a0, s0
   1df72: 36 ec        	sd	a3, 0x18(sp)
   1df74: ef b0 6f f3  	jal	0x196aa <_Bfree>
   1df78: e2 66        	ld	a3, 0x18(sp)
   1df7a: 33 67 d9 00  	or	a4, s2, a3
   1df7e: 01 27        	sext.w	a4, a4
   1df80: e3 1e 07 38  	bnez	a4, 0x1eb1c <__gdtoa+0x1000>
   1df84: c2 67        	ld	a5, 0x10(sp)
   1df86: 9c 43        	lw	a5, 0x0(a5)
   1df88: 85 8b        	andi	a5, a5, 0x1
   1df8a: 63 9a 07 44  	bnez	a5, 0x1e3de <__gdtoa+0x8c2>
   1df8e: 82 77        	ld	a5, 0x20(sp)
   1df90: e3 82 07 2c  	beqz	a5, 0x1ea54 <__gdtoa+0xf38>
   1df94: e3 4b 60 f5  	bgtz	s6, 0x1deea <__gdtoa+0x3ce>
   1df98: 03 26 4c 01  	lw	a2, 0x14(s8)
   1df9c: 26 ec        	sd	s1, 0x18(sp)
   1df9e: 85 46        	li	a3, 0x1
   1dfa0: 52 83        	mv	t1, s4
   1dfa2: 42 78        	ld	a6, 0x30(sp)
   1dfa4: 22 7a        	ld	s4, 0x28(sp)
   1dfa6: 86 64        	ld	s1, 0x40(sp)
   1dfa8: ba 89        	mv	s3, a4
   1dfaa: e3 d6 c6 34  	bge	a3, a2, 0x1eaf6 <__gdtoa+0xfda>
   1dfae: 82 77        	ld	a5, 0x20(sp)
   1dfb0: 89 46        	li	a3, 0x2
   1dfb2: e3 85 d7 32  	beq	a5, a3, 0x1eadc <__gdtoa+0xfc0>
   1dfb6: 62 6b        	ld	s6, 0x18(sp)
   1dfb8: 9a 89        	mv	s3, t1
   1dfba: c2 8d        	mv	s11, a6
   1dfbc: 29 a8        	j	0x1dfd6 <__gdtoa+0x4ba>
   1dfbe: ef b0 ef ef  	jal	0x196bc <__multadd>
   1dfc2: ea 85        	mv	a1, s10
   1dfc4: 2a 8c        	mv	s8, a0
   1dfc6: 63 03 05 0e  	beqz	a0, 0x1e0ac <__gdtoa+0x590>
   1dfca: ef 00 f0 45  	jal	0x1ec28 <__quorem_D2A>
   1dfce: 9b 09 05 03  	addiw	s3, a0, 0x30
   1dfd2: e6 8b        	mv	s7, s9
   1dfd4: 4a 8b        	mv	s6, s2
   1dfd6: da 85        	mv	a1, s6
   1dfd8: 6a 85        	mv	a0, s10
   1dfda: ef b0 7f dc  	jal	0x19da0 <__mcmp>
   1dfde: aa 87        	mv	a5, a0
   1dfe0: 81 46        	li	a3, 0x0
   1dfe2: 29 46        	li	a2, 0xa
   1dfe4: da 85        	mv	a1, s6
   1dfe6: 22 85        	mv	a0, s0
   1dfe8: 93 8c 1b 00  	addi	s9, s7, 0x1
   1dfec: e3 5d f0 2c  	blez	a5, 0x1eac6 <__gdtoa+0xfaa>
   1dff0: a3 8f 3c ff  	sb	s3, -0x1(s9)
   1dff4: ef b0 8f ec  	jal	0x196bc <__multadd>
   1dff8: 2a 89        	mv	s2, a0
   1dffa: 81 46        	li	a3, 0x0
   1dffc: 29 46        	li	a2, 0xa
   1dffe: e2 85        	mv	a1, s8
   1e000: 22 85        	mv	a0, s0
   1e002: 63 05 09 0a  	beqz	s2, 0x1e0ac <__gdtoa+0x590>
   1e006: e3 9c 6a fb  	bne	s5, s6, 0x1dfbe <__gdtoa+0x4a2>
   1e00a: ca 8a        	mv	s5, s2
   1e00c: 4d bf        	j	0x1dfbe <__gdtoa+0x4a2>
   1e00e: 91 47        	li	a5, 0x4
   1e010: 63 16 f3 0a  	bne	t1, a5, 0x1e0bc <__gdtoa+0x5a0>
   1e014: 22 66        	ld	a2, 0x8(sp)
   1e016: ee 69        	ld	s3, 0xd8(sp)
   1e018: ee 70        	ld	ra, 0xf8(sp)
   1e01a: ae 74        	ld	s1, 0xe8(sp)
   1e01c: 4e 6a        	ld	s4, 0xd0(sp)
   1e01e: aa 7c        	ld	s9, 0xa8(sp)
   1e020: e1 77        	lui	a5, 0xffff8
   1e022: 23 a0 f8 00  	sw	a5, 0x0(a7)
   1e026: b7 15 02 00  	lui	a1, 0x21
   1e02a: 8d 46        	li	a3, 0x3
   1e02c: 93 85 05 4c  	addi	a1, a1, 0x4c0
   1e030: 11 61        	addi	sp, sp, 0x100
   1e032: 6f 00 b0 36  	j	0x1eb9c <__nrv_alloc_D2A>
   1e036: e2 85        	mv	a1, s8
   1e038: 22 85        	mv	a0, s0
   1e03a: ef b0 0f e7  	jal	0x196aa <_Bfree>
   1e03e: 0e 79        	ld	s2, 0xe0(sp)
   1e040: ae 6a        	ld	s5, 0xc8(sp)
   1e042: 0e 6b        	ld	s6, 0xc0(sp)
   1e044: ea 7b        	ld	s7, 0xb8(sp)
   1e046: 4a 7c        	ld	s8, 0xb0(sp)
   1e048: 0a 7d        	ld	s10, 0xa0(sp)
   1e04a: ea 6d        	ld	s11, 0x98(sp)
   1e04c: 22 66        	ld	a2, 0x8(sp)
   1e04e: 85 47        	li	a5, 0x1
   1e050: b7 15 02 00  	lui	a1, 0x21
   1e054: 22 85        	mv	a0, s0
   1e056: 9c c0        	sw	a5, 0x0(s1)
   1e058: 85 46        	li	a3, 0x1
   1e05a: 93 85 85 46  	addi	a1, a1, 0x468
   1e05e: ef 00 f0 33  	jal	0x1eb9c <__nrv_alloc_D2A>
   1e062: 4e 74        	ld	s0, 0xf0(sp)
   1e064: 2a 88        	mv	a6, a0
   1e066: ee 70        	ld	ra, 0xf8(sp)
   1e068: ee 69        	ld	s3, 0xd8(sp)
   1e06a: ae 74        	ld	s1, 0xe8(sp)
   1e06c: 4e 6a        	ld	s4, 0xd0(sp)
   1e06e: aa 7c        	ld	s9, 0xa8(sp)
   1e070: 42 85        	mv	a0, a6
   1e072: 11 61        	addi	sp, sp, 0x100
   1e074: 82 80        	ret
   1e076: 22 66        	ld	a2, 0x8(sp)
   1e078: ee 70        	ld	ra, 0xf8(sp)
   1e07a: ae 74        	ld	s1, 0xe8(sp)
   1e07c: 4e 6a        	ld	s4, 0xd0(sp)
   1e07e: aa 7c        	ld	s9, 0xa8(sp)
   1e080: e1 77        	lui	a5, 0xffff8
   1e082: 23 a0 f8 00  	sw	a5, 0x0(a7)
   1e086: b7 15 02 00  	lui	a1, 0x21
   1e08a: a1 46        	li	a3, 0x8
   1e08c: 93 85 05 4b  	addi	a1, a1, 0x4b0
   1e090: 11 61        	addi	sp, sp, 0x100
   1e092: 6f 00 b0 30  	j	0x1eb9c <__nrv_alloc_D2A>
   1e096: ea 85        	mv	a1, s10
   1e098: 22 85        	mv	a0, s0
   1e09a: 42 ec        	sd	a6, 0x18(sp)
   1e09c: 1a e8        	sd	t1, 0x10(sp)
   1e09e: ef b0 bf bd  	jal	0x19c78 <__lshift>
   1e0a2: 42 63        	ld	t1, 0x10(sp)
   1e0a4: 62 68        	ld	a6, 0x18(sp)
   1e0a6: 2a 8d        	mv	s10, a0
   1e0a8: e3 15 05 de  	bnez	a0, 0x1de92 <__gdtoa+0x376>
   1e0ac: 4e 74        	ld	s0, 0xf0(sp)
   1e0ae: 0e 79        	ld	s2, 0xe0(sp)
   1e0b0: ae 6a        	ld	s5, 0xc8(sp)
   1e0b2: 0e 6b        	ld	s6, 0xc0(sp)
   1e0b4: ea 7b        	ld	s7, 0xb8(sp)
   1e0b6: 4a 7c        	ld	s8, 0xb0(sp)
   1e0b8: 0a 7d        	ld	s10, 0xa0(sp)
   1e0ba: ea 6d        	ld	s11, 0x98(sp)
   1e0bc: 01 48        	li	a6, 0x0
   1e0be: 65 b7        	j	0x1e066 <__gdtoa+0x54a>
   1e0c0: 23 2a 0c 00  	sw	zero, 0x14(s8)
   1e0c4: 1d be        	j	0x1dbfa <__gdtoa+0xde>
   1e0c6: 05 47        	li	a4, 0x1
   1e0c8: ba f8        	sd	a4, 0x70(sp)
   1e0ca: 02 ec        	sd	zero, 0x18(sp)
   1e0cc: 63 44 0e 1a  	bltz	t3, 0x1e274 <__gdtoa+0x758>
   1e0d0: e3 55 03 c2  	bgez	t1, 0x1dcfa <__gdtoa+0x1de>
   1e0d4: 62 67        	ld	a4, 0x18(sp)
   1e0d6: 1a fc        	sd	t1, 0x38(sp)
   1e0d8: 3b 07 67 40  	subw	a4, a4, t1
   1e0dc: 3a ec        	sd	a4, 0x18(sp)
   1e0de: 3b 07 60 40  	negw	a4, t1
   1e0e2: 3a f8        	sd	a4, 0x30(sp)
   1e0e4: 01 43        	li	t1, 0x0
   1e0e6: 31 b9        	j	0x1dd02 <__gdtoa+0x1e6>
   1e0e8: aa 85        	mv	a1, a0
   1e0ea: 62 85        	mv	a0, s8
   1e0ec: ef 00 d0 4a  	jal	0x1ed98 <__rshift_D2A>
   1e0f0: ba 46        	lw	a3, 0x8c(sp)
   1e0f2: c2 67        	ld	a5, 0x10(sp)
   1e0f4: 3b 86 f6 00  	addw	a2, a3, a5
   1e0f8: e2 67        	ld	a5, 0x18(sp)
   1e0fa: 95 9f        	subw	a5, a5, a3
   1e0fc: 01 be        	j	0x1dc0c <__gdtoa+0xf0>
   1e0fe: 9b 8a da 3f  	addiw	s5, s5, 0x3fd
   1e102: 93 ba 8a 7f  	sltiu	s5, s5, 0x7f8
   1e106: 01 49        	li	s2, 0x0
   1e108: 07 b7 81 19  	fld	fa4, 0x198(gp)
   1e10c: d3 07 0d d2  	fcvt.d.w	fa5, s10
   1e110: 05 47        	li	a4, 0x1
   1e112: ba e0        	sd	a4, 0x40(sp)
   1e114: d3 f7 e7 12  	fmul.d	fa5, fa5, fa4
   1e118: 7d 57        	li	a4, -0x1
   1e11a: 81 4b        	li	s7, 0x0
   1e11c: ba fc        	sd	a4, 0x78(sp)
   1e11e: 3a f4        	sd	a4, 0x28(sp)
   1e120: d3 95 07 c2  	fcvt.w.d	a1, fa5, rtz
   1e124: 8d 25        	addiw	a1, a1, 0x3
   1e126: ae 88        	mv	a7, a1
   1e128: 31 b9        	j	0x1dd44 <__gdtoa+0x228>
   1e12a: 02 77        	ld	a4, 0x20(sp)
   1e12c: 8d 45        	li	a1, 0x3
   1e12e: 3b 87 e5 40  	subw	a4, a1, a4
   1e132: 3a f0        	sd	a4, 0x20(sp)
   1e134: 22 77        	ld	a4, 0x28(sp)
   1e136: 39 45        	li	a0, 0xe
   1e138: 9b 05 07 00  	sext.w	a1, a4
   1e13c: e3 61 b5 c4  	bltu	a0, a1, 0x1dd7e <__gdtoa+0x262>
   1e140: e3 8f 0a c2  	beqz	s5, 0x1dd7e <__gdtoa+0x262>
   1e144: e2 75        	ld	a1, 0x38(sp)
   1e146: 02 75        	ld	a0, 0x20(sp)
   1e148: c9 8d        	or	a1, a1, a0
   1e14a: 81 25        	sext.w	a1, a1
   1e14c: e3 99 05 c2  	bnez	a1, 0x1dd7e <__gdtoa+0x262>
   1e150: c6 75        	ld	a1, 0x70(sp)
   1e152: 02 c7        	sw	zero, 0x8c(sp)
   1e154: b6 8e        	mv	t4, a3
   1e156: 89 c9        	beqz	a1, 0x1e168 <__gdtoa+0x64c>
   1e158: 87 b7 01 0e  	fld	fa5, 0xe0(gp)
   1e15c: 53 87 06 f2  	fmv.d.x	fa4, a3
   1e160: d3 15 f7 a2  	flt.d	a1, fa4, fa5
   1e164: 63 94 05 7c  	bnez	a1, 0x1e92c <__gdtoa+0xe10>
   1e168: 07 b7 81 0e  	fld	fa4, 0xe8(gp)
   1e16c: 87 b7 81 1a  	fld	fa5, 0x1a8(gp)
   1e170: d3 86 0e f2  	fmv.d.x	fa3, t4
   1e174: b7 05 c0 fc  	lui	a1, 0xfcc00
   1e178: 22 77        	ld	a4, 0x28(sp)
   1e17a: c3 f7 e6 7a  	fmadd.d	fa5, fa3, fa4, fa5
   1e17e: 53 85 07 e2  	fmv.x.d	a0, fa5
   1e182: 13 5f 05 02  	srli	t5, a0, 0x20
   1e186: bb 85 e5 01  	addw	a1, a1, t5
   1e18a: 7d 5f        	li	t5, -0x1
   1e18c: 13 5f 0f 02  	srli	t5, t5, 0x20
   1e190: 82 15        	slli	a1, a1, 0x20
   1e192: 33 7f af 00  	and	t5, t5, a0
   1e196: 33 6f bf 00  	or	t5, t5, a1
   1e19a: 63 09 07 4c  	beqz	a4, 0x1e66c <__gdtoa+0xb50>
   1e19e: a2 7f        	ld	t6, 0x28(sp)
   1e1a0: 76 85        	mv	a0, t4
   1e1a2: 81 43        	li	t2, 0x0
   1e1a4: b7 25 02 00  	lui	a1, 0x22
   1e1a8: 9b 82 ff ff  	addiw	t0, t6, -0x1
   1e1ac: 06 67        	ld	a4, 0x40(sp)
   1e1ae: 93 85 85 85  	addi	a1, a1, -0x7a8
   1e1b2: 8e 02        	slli	t0, t0, 0x3
   1e1b4: ae 92        	add	t0, t0, a1
   1e1b6: 87 b7 02 00  	fld	fa5, 0x0(t0)
   1e1ba: 63 0b 07 6c  	beqz	a4, 0x1e890 <__gdtoa+0xd74>
   1e1be: 53 07 05 f2  	fmv.d.x	fa4, a0
   1e1c2: d3 06 05 f2  	fmv.d.x	fa3, a0
   1e1c6: d3 16 07 c2  	fcvt.w.d	a3, fa4, rtz
   1e1ca: 07 b7 81 12  	fld	fa4, 0x128(gp)
   1e1ce: 93 0c 18 00  	addi	s9, a6, 0x1
   1e1d2: 53 77 f7 1a  	fdiv.d	fa4, fa4, fa5
   1e1d6: d3 87 06 d2  	fcvt.d.w	fa5, a3
   1e1da: 9b 86 06 03  	addiw	a3, a3, 0x30
   1e1de: 23 00 d8 00  	sb	a3, 0x0(a6)
   1e1e2: d3 f7 f6 0a  	fsub.d	fa5, fa3, fa5
   1e1e6: d3 06 0f f2  	fmv.d.x	fa3, t5
   1e1ea: 53 77 d7 0a  	fsub.d	fa4, fa4, fa3
   1e1ee: d3 96 e7 a2  	flt.d	a3, fa5, fa4
   1e1f2: e3 9c 06 00  	bnez	a3, 0x1ea0a <__gdtoa+0xeee>
   1e1f6: 87 b5 01 0e  	fld	fa1, 0xe0(gp)
   1e1fa: 07 b6 81 16  	fld	fa2, 0x168(gp)
   1e1fe: 0d a8        	j	0x1e230 <__gdtoa+0x714>
   1e200: 3a 47        	lw	a4, 0x8c(sp)
   1e202: 85 0c        	addi	s9, s9, 0x1
   1e204: 05 27        	addiw	a4, a4, 0x1
   1e206: 3a c7        	sw	a4, 0x8c(sp)
   1e208: e3 5e f7 01  	bge	a4, t6, 0x1ea24 <__gdtoa+0xf08>
   1e20c: d3 f7 c7 12  	fmul.d	fa5, fa5, fa2
   1e210: 53 77 c7 12  	fmul.d	fa4, fa4, fa2
   1e214: 53 97 07 c2  	fcvt.w.d	a4, fa5, rtz
   1e218: d3 06 07 d2  	fcvt.d.w	fa3, a4
   1e21c: 1b 07 07 03  	addiw	a4, a4, 0x30
   1e220: a3 8f ec fe  	sb	a4, -0x1(s9)
   1e224: d3 f7 d7 0a  	fsub.d	fa5, fa5, fa3
   1e228: 53 97 e7 a2  	flt.d	a4, fa5, fa4
   1e22c: 63 1f 07 7c  	bnez	a4, 0x1ea0a <__gdtoa+0xeee>
   1e230: d3 f6 f5 0a  	fsub.d	fa3, fa1, fa5
   1e234: 53 97 e6 a2  	flt.d	a4, fa3, fa4
   1e238: 61 d7        	beqz	a4, 0x1e200 <__gdtoa+0x6e4>
   1e23a: 83 c6 fc ff  	lbu	a3, -0x1(s9)
   1e23e: 9b 85 13 00  	addiw	a1, t2, 0x1
   1e242: 13 06 90 03  	li	a2, 0x39
   1e246: 31 a0        	j	0x1e252 <__gdtoa+0x736>
   1e248: 63 00 f8 64  	beq	a6, a5, 0x1e888 <__gdtoa+0xd6c>
   1e24c: 83 c6 f7 ff  	lbu	a3, -0x1(a5)
   1e250: be 8c        	mv	s9, a5
   1e252: 93 87 fc ff  	addi	a5, s9, -0x1
   1e256: e3 89 c6 fe  	beq	a3, a2, 0x1e248 <__gdtoa+0x72c>
   1e25a: 85 26        	addiw	a3, a3, 0x1
   1e25c: 93 f6 f6 0f  	andi	a3, a3, 0xff
   1e260: 23 80 d7 00  	sb	a3, 0x0(a5)
   1e264: 1b 89 05 00  	sext.w	s2, a1
   1e268: 93 09 00 02  	li	s3, 0x20
   1e26c: cd a0        	j	0x1e34e <__gdtoa+0x832>
   1e26e: 4e 74        	ld	s0, 0xf0(sp)
   1e270: 0e 79        	ld	s2, 0xe0(sp)
   1e272: 81 b5        	j	0x1e0b2 <__gdtoa+0x596>
   1e274: 85 45        	li	a1, 0x1
   1e276: 3b 87 15 41  	subw	a4, a1, a7
   1e27a: 3a ec        	sd	a4, 0x18(sp)
   1e27c: 01 4e        	li	t3, 0x0
   1e27e: e3 4b 03 e4  	bltz	t1, 0x1e0d4 <__gdtoa+0x5b8>
   1e282: a5 bc        	j	0x1dcfa <__gdtoa+0x1de>
   1e284: 42 7d        	ld	s10, 0x30(sp)
   1e286: e2 6c        	ld	s9, 0x18(sp)
   1e288: 81 4a        	li	s5, 0x0
   1e28a: 8d be        	j	0x1ddfc <__gdtoa+0x2e0>
   1e28c: 09 47        	li	a4, 0x2
   1e28e: 3a f0        	sd	a4, 0x20(sp)
   1e290: dd b4        	j	0x1dd76 <__gdtoa+0x25a>
   1e292: 71 39        	addiw	s2, s2, -0x4
   1e294: 11 45        	li	a0, 0x4
   1e296: 63 00 a9 12  	beq	s2, a0, 0x1e3b6 <__gdtoa+0x89a>
   1e29a: 63 0f b9 48  	beq	s2, a1, 0x1e738 <__gdtoa+0xc1c>
   1e29e: 89 45        	li	a1, 0x2
   1e2a0: 82 e0        	sd	zero, 0x40(sp)
   1e2a2: 81 4a        	li	s5, 0x0
   1e2a4: 63 0c b9 10  	beq	s2, a1, 0x1e3bc <__gdtoa+0x8a0>
   1e2a8: 0d 49        	li	s2, 0x3
   1e2aa: 51 b4        	j	0x1dd2e <__gdtoa+0x212>
   1e2ac: 7d 33        	addiw	t1, t1, -0x1
   1e2ae: 82 f8        	sd	zero, 0x70(sp)
   1e2b0: 29 bd        	j	0x1e0ca <__gdtoa+0x5ae>
   1e2b2: b7 27 02 00  	lui	a5, 0x22
   1e2b6: 13 16 37 00  	slli	a2, a4, 0x3
   1e2ba: 93 87 87 85  	addi	a5, a5, -0x7a8
   1e2be: b2 97        	add	a5, a5, a2
   1e2c0: 98 23        	fld	fa4, 0x0(a5)
   1e2c2: 63 ca 0b 32  	bltz	s7, 0x1e5f6 <__gdtoa+0xada>
   1e2c6: d3 87 06 f2  	fmv.d.x	fa5, a3
   1e2ca: 85 47        	li	a5, 0x1
   1e2cc: 3e c7        	sw	a5, 0x8c(sp)
   1e2ce: d3 f7 e7 1a  	fdiv.d	fa5, fa5, fa4
   1e2d2: e2 77        	ld	a5, 0x38(sp)
   1e2d4: d3 86 06 f2  	fmv.d.x	fa3, a3
   1e2d8: 93 0c 18 00  	addi	s9, a6, 0x1
   1e2dc: 1b 89 17 00  	addiw	s2, a5, 0x1
   1e2e0: ca 85        	mv	a1, s2
   1e2e2: d3 97 07 c2  	fcvt.w.d	a5, fa5, rtz
   1e2e6: d3 87 07 d2  	fcvt.d.w	fa5, a5
   1e2ea: 1b 86 07 03  	addiw	a2, a5, 0x30
   1e2ee: 23 00 c8 00  	sb	a2, 0x0(a6)
   1e2f2: cb 77 f7 6a  	fnmsub.d	fa5, fa4, fa5, fa3
   1e2f6: d3 06 00 f2  	fmv.d.x	fa3, zero
   1e2fa: 81 27        	sext.w	a5, a5
   1e2fc: d3 a6 d7 a2  	feq.d	a3, fa5, fa3
   1e300: b9 e6        	bnez	a3, 0x1e34e <__gdtoa+0x832>
   1e302: 87 b5 81 16  	fld	fa1, 0x168(gp)
   1e306: 53 86 d6 22  	fmv.d	fa2, fa3
   1e30a: 22 76        	ld	a2, 0x28(sp)
   1e30c: 2d a0        	j	0x1e336 <__gdtoa+0x81a>
   1e30e: d3 f7 b7 12  	fmul.d	fa5, fa5, fa1
   1e312: 36 c7        	sw	a3, 0x8c(sp)
   1e314: 85 0c        	addi	s9, s9, 0x1
   1e316: d3 f6 e7 1a  	fdiv.d	fa3, fa5, fa4
   1e31a: d3 97 06 c2  	fcvt.w.d	a5, fa3, rtz
   1e31e: d3 86 07 d2  	fcvt.d.w	fa3, a5
   1e322: 1b 87 07 03  	addiw	a4, a5, 0x30
   1e326: a3 8f ec fe  	sb	a4, -0x1(s9)
   1e32a: cb f7 e6 7a  	fnmsub.d	fa5, fa3, fa4, fa5
   1e32e: 81 27        	sext.w	a5, a5
   1e330: 53 a7 c7 a2  	feq.d	a4, fa5, fa2
   1e334: 09 ef        	bnez	a4, 0x1e34e <__gdtoa+0x832>
   1e336: 3a 47        	lw	a4, 0x8c(sp)
   1e338: 9b 06 17 00  	addiw	a3, a4, 0x1
   1e33c: e3 19 c7 fc  	bne	a4, a2, 0x1e30e <__gdtoa+0x7f2>
   1e340: 02 77        	ld	a4, 0x20(sp)
   1e342: 63 08 07 50  	beqz	a4, 0x1e852 <__gdtoa+0xd36>
   1e346: 85 47        	li	a5, 0x1
   1e348: c1 49        	li	s3, 0x10
   1e34a: 63 08 f7 62  	beq	a4, a5, 0x1e97a <__gdtoa+0xe5e>
   1e34e: e2 85        	mv	a1, s8
   1e350: 22 85        	mv	a0, s0
   1e352: 42 e8        	sd	a6, 0x10(sp)
   1e354: ef b0 6f b5  	jal	0x196aa <_Bfree>
   1e358: a2 67        	ld	a5, 0x8(sp)
   1e35a: 23 80 0c 00  	sb	zero, 0x0(s9)
   1e35e: 23 a0 24 01  	sw	s2, 0x0(s1)
   1e362: 42 68        	ld	a6, 0x10(sp)
   1e364: 99 c3        	beqz	a5, 0x1e36a <__gdtoa+0x84e>
   1e366: 23 b0 97 01  	sd	s9, 0x0(a5)
   1e36a: 83 27 0a 00  	lw	a5, 0x0(s4)
   1e36e: 4e 74        	ld	s0, 0xf0(sp)
   1e370: 0e 79        	ld	s2, 0xe0(sp)
   1e372: b3 e7 f9 00  	or	a5, s3, a5
   1e376: ae 6a        	ld	s5, 0xc8(sp)
   1e378: 0e 6b        	ld	s6, 0xc0(sp)
   1e37a: ea 7b        	ld	s7, 0xb8(sp)
   1e37c: 4a 7c        	ld	s8, 0xb0(sp)
   1e37e: 0a 7d        	ld	s10, 0xa0(sp)
   1e380: ea 6d        	ld	s11, 0x98(sp)
   1e382: 23 20 fa 00  	sw	a5, 0x0(s4)
   1e386: c5 b1        	j	0x1e066 <__gdtoa+0x54a>
   1e388: e3 94 d7 ae  	bne	a5, a3, 0x1de70 <__gdtoa+0x354>
   1e38c: 83 27 4b 00  	lw	a5, 0x4(s6)
   1e390: 42 67        	ld	a4, 0x10(sp)
   1e392: 85 27        	addiw	a5, a5, 0x1
   1e394: e3 de e7 ac  	bge	a5, a4, 0x1de70 <__gdtoa+0x354>
   1e398: e2 67        	ld	a5, 0x18(sp)
   1e39a: 05 2e        	addiw	t3, t3, 0x1
   1e39c: 05 43        	li	t1, 0x1
   1e39e: 85 27        	addiw	a5, a5, 0x1
   1e3a0: 3e ec        	sd	a5, 0x18(sp)
   1e3a2: f9 b4        	j	0x1de70 <__gdtoa+0x354>
   1e3a4: 53 07 05 d2  	fcvt.d.w	fa4, a0
   1e3a8: d3 25 f7 a2  	feq.d	a1, fa4, fa5
   1e3ac: e3 9e 05 8e  	bnez	a1, 0x1dca8 <__gdtoa+0x18c>
   1e3b0: 1b 03 f5 ff  	addiw	t1, a0, -0x1
   1e3b4: d5 b8        	j	0x1dca8 <__gdtoa+0x18c>
   1e3b6: 05 47        	li	a4, 0x1
   1e3b8: 81 4a        	li	s5, 0x0
   1e3ba: ba e0        	sd	a4, 0x40(sp)
   1e3bc: 9b 85 0b 00  	sext.w	a1, s7
   1e3c0: 63 43 70 01  	bgtz	s7, 0x1e3c6 <__gdtoa+0x8aa>
   1e3c4: 85 45        	li	a1, 0x1
   1e3c6: ae 88        	mv	a7, a1
   1e3c8: ae fc        	sd	a1, 0x78(sp)
   1e3ca: 2e f4        	sd	a1, 0x28(sp)
   1e3cc: ae 8b        	mv	s7, a1
   1e3ce: 9d ba        	j	0x1dd44 <__gdtoa+0x228>
   1e3d0: ef b0 cf ae  	jal	0x196bc <__multadd>
   1e3d4: aa 8a        	mv	s5, a0
   1e3d6: e3 0b 05 cc  	beqz	a0, 0x1e0ac <__gdtoa+0x590>
   1e3da: aa 84        	mv	s1, a0
   1e3dc: 91 be        	j	0x1df30 <__gdtoa+0x414>
   1e3de: e3 56 0b b0  	bgez	s6, 0x1deea <__gdtoa+0x3ce>
   1e3e2: 82 77        	ld	a5, 0x20(sp)
   1e3e4: 26 ec        	sd	s1, 0x18(sp)
   1e3e6: 52 83        	mv	t1, s4
   1e3e8: 42 78        	ld	a6, 0x30(sp)
   1e3ea: 22 7a        	ld	s4, 0x28(sp)
   1e3ec: 86 64        	ld	s1, 0x40(sp)
   1e3ee: ba 89        	mv	s3, a4
   1e3f0: 63 9e 07 6e  	bnez	a5, 0x1eaec <__gdtoa+0xfd0>
   1e3f4: 03 26 4c 01  	lw	a2, 0x14(s8)
   1e3f8: 85 46        	li	a3, 0x1
   1e3fa: c1 49        	li	s3, 0x10
   1e3fc: 93 8c 1b 00  	addi	s9, s7, 0x1
   1e400: 63 db c6 68  	bge	a3, a2, 0x1ea96 <__gdtoa+0xf7a>
   1e404: 23 80 6b 00  	sb	t1, 0x0(s7)
   1e408: 56 8b        	mv	s6, s5
   1e40a: e2 6a        	ld	s5, 0x18(sp)
   1e40c: ea 85        	mv	a1, s10
   1e40e: 22 85        	mv	a0, s0
   1e410: 42 e8        	sd	a6, 0x10(sp)
   1e412: ef b0 8f a9  	jal	0x196aa <_Bfree>
   1e416: e2 77        	ld	a5, 0x38(sp)
   1e418: 42 68        	ld	a6, 0x10(sp)
   1e41a: 1b 89 17 00  	addiw	s2, a5, 0x1
   1e41e: e3 88 0a f2  	beqz	s5, 0x1e34e <__gdtoa+0x832>
   1e422: 63 09 0b 00  	beqz	s6, 0x1e434 <__gdtoa+0x918>
   1e426: 63 07 5b 01  	beq	s6, s5, 0x1e434 <__gdtoa+0x918>
   1e42a: da 85        	mv	a1, s6
   1e42c: 22 85        	mv	a0, s0
   1e42e: ef b0 cf a7  	jal	0x196aa <_Bfree>
   1e432: 42 68        	ld	a6, 0x10(sp)
   1e434: d6 85        	mv	a1, s5
   1e436: 22 85        	mv	a0, s0
   1e438: 42 e8        	sd	a6, 0x10(sp)
   1e43a: ef b0 0f a7  	jal	0x196aa <_Bfree>
   1e43e: 42 68        	ld	a6, 0x10(sp)
   1e440: 39 b7        	j	0x1e34e <__gdtoa+0x832>
   1e442: e2 85        	mv	a1, s8
   1e444: 22 85        	mv	a0, s0
   1e446: 42 f8        	sd	a6, 0x30(sp)
   1e448: 72 ec        	sd	t3, 0x18(sp)
   1e44a: 1a e8        	sd	t1, 0x10(sp)
   1e44c: ef b0 df 82  	jal	0x19c78 <__lshift>
   1e450: 2a 8c        	mv	s8, a0
   1e452: e3 0d 05 c4  	beqz	a0, 0x1e0ac <__gdtoa+0x590>
   1e456: ba 47        	lw	a5, 0x8c(sp)
   1e458: 42 78        	ld	a6, 0x30(sp)
   1e45a: 62 6e        	ld	t3, 0x18(sp)
   1e45c: 42 63        	ld	t1, 0x10(sp)
   1e45e: 35 b4        	j	0x1de8a <__gdtoa+0x36e>
   1e460: ea 85        	mv	a1, s10
   1e462: 62 85        	mv	a0, s8
   1e464: 42 ec        	sd	a6, 0x18(sp)
   1e466: 1a e8        	sd	t1, 0x10(sp)
   1e468: ef b0 9f 93  	jal	0x19da0 <__mcmp>
   1e46c: 42 63        	ld	t1, 0x10(sp)
   1e46e: 62 68        	ld	a6, 0x18(sp)
   1e470: e3 54 05 a2  	bgez	a0, 0x1de98 <__gdtoa+0x37c>
   1e474: e2 77        	ld	a5, 0x38(sp)
   1e476: e2 85        	mv	a1, s8
   1e478: 81 46        	li	a3, 0x0
   1e47a: fd 37        	addiw	a5, a5, -0x1
   1e47c: 29 46        	li	a2, 0xa
   1e47e: 22 85        	mv	a0, s0
   1e480: 3e fc        	sd	a5, 0x38(sp)
   1e482: ef b0 af a3  	jal	0x196bc <__multadd>
   1e486: 2a 8c        	mv	s8, a0
   1e488: e3 02 05 c2  	beqz	a0, 0x1e0ac <__gdtoa+0x590>
   1e48c: 86 67        	ld	a5, 0x40(sp)
   1e48e: 62 68        	ld	a6, 0x18(sp)
   1e490: 63 91 07 54  	bnez	a5, 0x1e9d2 <__gdtoa+0xeb6>
   1e494: e6 77        	ld	a5, 0x78(sp)
   1e496: 63 5a f0 14  	blez	a5, 0x1e5ea <__gdtoa+0xace>
   1e49a: 3e f4        	sd	a5, 0x28(sp)
   1e49c: 22 79        	ld	s2, 0x28(sp)
   1e49e: c2 8b        	mv	s7, a6
   1e4a0: 85 46        	li	a3, 0x1
   1e4a2: c2 89        	mv	s3, a6
   1e4a4: 01 a8        	j	0x1e4b4 <__gdtoa+0x998>
   1e4a6: ef b0 6f a1  	jal	0x196bc <__multadd>
   1e4aa: 2a 8c        	mv	s8, a0
   1e4ac: e3 00 05 c0  	beqz	a0, 0x1e0ac <__gdtoa+0x590>
   1e4b0: ba 46        	lw	a3, 0x8c(sp)
   1e4b2: 85 26        	addiw	a3, a3, 0x1
   1e4b4: ea 85        	mv	a1, s10
   1e4b6: 62 85        	mv	a0, s8
   1e4b8: 36 c7        	sw	a3, 0x8c(sp)
   1e4ba: ef 00 e0 76  	jal	0x1ec28 <__quorem_D2A>
   1e4be: 1b 03 05 03  	addiw	t1, a0, 0x30
   1e4c2: 23 80 6b 00  	sb	t1, 0x0(s7)
   1e4c6: ba 47        	lw	a5, 0x8c(sp)
   1e4c8: 81 46        	li	a3, 0x0
   1e4ca: 29 46        	li	a2, 0xa
   1e4cc: e2 85        	mv	a1, s8
   1e4ce: 22 85        	mv	a0, s0
   1e4d0: 85 0b        	addi	s7, s7, 0x1
   1e4d2: e3 ca 27 fd  	blt	a5, s2, 0x1e4a6 <__gdtoa+0x98a>
   1e4d6: 4e 88        	mv	a6, s3
   1e4d8: 01 4b        	li	s6, 0x0
   1e4da: 82 77        	ld	a5, 0x20(sp)
   1e4dc: 63 87 07 2c  	beqz	a5, 0x1e7aa <__gdtoa+0xc8e>
   1e4e0: 89 46        	li	a3, 0x2
   1e4e2: 03 26 4c 01  	lw	a2, 0x14(s8)
   1e4e6: 63 88 d7 2e  	beq	a5, a3, 0x1e7d6 <__gdtoa+0xcba>
   1e4ea: 85 46        	li	a3, 0x1
   1e4ec: 63 c9 c6 20  	blt	a3, a2, 0x1e6fe <__gdtoa+0xbe2>
   1e4f0: 83 26 8c 01  	lw	a3, 0x18(s8)
   1e4f4: 63 95 06 20  	bnez	a3, 0x1e6fe <__gdtoa+0xbe2>
   1e4f8: b3 36 d0 00  	snez	a3, a3
   1e4fc: 93 99 46 00  	slli	s3, a3, 0x4
   1e500: 13 06 00 03  	li	a2, 0x30
   1e504: 83 c7 fb ff  	lbu	a5, -0x1(s7)
   1e508: de 8c        	mv	s9, s7
   1e50a: fd 1b        	addi	s7, s7, -0x1
   1e50c: e3 8c c7 fe  	beq	a5, a2, 0x1e504 <__gdtoa+0x9e8>
   1e510: f5 bd        	j	0x1e40c <__gdtoa+0x8f0>
   1e512: 22 77        	ld	a4, 0x28(sp)
   1e514: 42 76        	ld	a2, 0x30(sp)
   1e516: 9b 06 f7 ff  	addiw	a3, a4, -0x1
   1e51a: 63 41 d6 10  	blt	a2, a3, 0x1e61c <__gdtoa+0xb00>
   1e51e: 3b 0d d6 40  	subw	s10, a2, a3
   1e522: 63 5b 07 46  	bgez	a4, 0x1e998 <__gdtoa+0xe7c>
   1e526: 62 67        	ld	a4, 0x18(sp)
   1e528: a2 76        	ld	a3, 0x28(sp)
   1e52a: 02 c7        	sw	zero, 0x8c(sp)
   1e52c: bb 0c d7 40  	subw	s9, a4, a3
   1e530: 7d b0        	j	0x1ddde <__gdtoa+0x2c2>
   1e532: 89 47        	li	a5, 0x2
   1e534: e3 d5 27 97  	bge	a5, s2, 0x1de9e <__gdtoa+0x382>
   1e538: ea 85        	mv	a1, s10
   1e53a: 81 46        	li	a3, 0x0
   1e53c: 15 46        	li	a2, 0x5
   1e53e: 22 85        	mv	a0, s0
   1e540: 42 e8        	sd	a6, 0x10(sp)
   1e542: ef b0 af 97  	jal	0x196bc <__multadd>
   1e546: aa 85        	mv	a1, a0
   1e548: e3 02 05 b6  	beqz	a0, 0x1e0ac <__gdtoa+0x590>
   1e54c: a2 77        	ld	a5, 0x28(sp)
   1e54e: 42 68        	ld	a6, 0x10(sp)
   1e550: 63 92 07 14  	bnez	a5, 0x1e694 <__gdtoa+0xb78>
   1e554: 2a e8        	sd	a0, 0x10(sp)
   1e556: 62 85        	mv	a0, s8
   1e558: 42 ec        	sd	a6, 0x18(sp)
   1e55a: ef b0 7f 84  	jal	0x19da0 <__mcmp>
   1e55e: e2 77        	ld	a5, 0x38(sp)
   1e560: c2 65        	ld	a1, 0x10(sp)
   1e562: 62 68        	ld	a6, 0x18(sp)
   1e564: 1b 89 27 00  	addiw	s2, a5, 0x2
   1e568: 63 56 a0 12  	blez	a0, 0x1e694 <__gdtoa+0xb78>
   1e56c: 93 07 10 03  	li	a5, 0x31
   1e570: 93 0c 18 00  	addi	s9, a6, 0x1
   1e574: 23 00 f8 00  	sb	a5, 0x0(a6)
   1e578: 93 09 00 02  	li	s3, 0x20
   1e57c: 22 85        	mv	a0, s0
   1e57e: 42 e8        	sd	a6, 0x10(sp)
   1e580: ef b0 af 92  	jal	0x196aa <_Bfree>
   1e584: 42 68        	ld	a6, 0x10(sp)
   1e586: e3 84 0a dc  	beqz	s5, 0x1e34e <__gdtoa+0x832>
   1e58a: 6d b5        	j	0x1e434 <__gdtoa+0x918>
   1e58c: 85 48        	li	a7, 0x1
   1e58e: 85 45        	li	a1, 0x1
   1e590: 6f f0 4f fb  	j	0x1dd44 <__gdtoa+0x228>
   1e594: aa 85        	mv	a1, a0
   1e596: 1a 86        	mv	a2, t1
   1e598: 22 85        	mv	a0, s0
   1e59a: c2 e4        	sd	a6, 0x48(sp)
   1e59c: 72 f8        	sd	t3, 0x30(sp)
   1e59e: ef b0 0f e0  	jal	0x19b9e <__pow5mult>
   1e5a2: 2a 8d        	mv	s10, a0
   1e5a4: e3 04 05 b0  	beqz	a0, 0x1e0ac <__gdtoa+0x590>
   1e5a8: 85 46        	li	a3, 0x1
   1e5aa: 42 7e        	ld	t3, 0x30(sp)
   1e5ac: 26 68        	ld	a6, 0x48(sp)
   1e5ae: 63 d3 26 1b  	bge	a3, s2, 0x1e754 <__gdtoa+0xc38>
   1e5b2: 83 27 4d 01  	lw	a5, 0x14(s10)
   1e5b6: 42 f8        	sd	a6, 0x30(sp)
   1e5b8: 72 e8        	sd	t3, 0x10(sp)
   1e5ba: fd 37        	addiw	a5, a5, -0x1
   1e5bc: 91 07        	addi	a5, a5, 0x4
   1e5be: 8a 07        	slli	a5, a5, 0x2
   1e5c0: ea 97        	add	a5, a5, s10
   1e5c2: 88 47        	lw	a0, 0x8(a5)
   1e5c4: ef b0 cf ac  	jal	0x19890 <__hi0bits>
   1e5c8: 42 78        	ld	a6, 0x30(sp)
   1e5ca: 42 6e        	ld	t3, 0x10(sp)
   1e5cc: 4e 83        	mv	t1, s3
   1e5ce: 6f f0 5f 8a  	j	0x1de72 <__gdtoa+0x356>
   1e5d2: 85 46        	li	a3, 0x1
   1e5d4: e3 cf 26 f3  	blt	a3, s2, 0x1e512 <__gdtoa+0x9f6>
   1e5d8: 62 67        	ld	a4, 0x18(sp)
   1e5da: 42 7d        	ld	s10, 0x30(sp)
   1e5dc: 3b 8e c5 01  	addw	t3, a1, t3
   1e5e0: ba 8c        	mv	s9, a4
   1e5e2: 2d 9f        	addw	a4, a4, a1
   1e5e4: 3a ec        	sd	a4, 0x18(sp)
   1e5e6: 6f f0 8f ff  	j	0x1ddde <__gdtoa+0x2c2>
   1e5ea: 89 47        	li	a5, 0x2
   1e5ec: 63 cb 27 4b  	blt	a5, s2, 0x1eaa2 <__gdtoa+0xf86>
   1e5f0: e6 77        	ld	a5, 0x78(sp)
   1e5f2: 3e f4        	sd	a5, 0x28(sp)
   1e5f4: 65 b5        	j	0x1e49c <__gdtoa+0x980>
   1e5f6: a2 77        	ld	a5, 0x28(sp)
   1e5f8: e3 47 f0 cc  	bgtz	a5, 0x1e2c6 <__gdtoa+0x7aa>
   1e5fc: d1 eb        	bnez	a5, 0x1e690 <__gdtoa+0xb74>
   1e5fe: 87 b7 01 1b  	fld	fa5, 0x1b0(gp)
   1e602: 53 77 f7 12  	fmul.d	fa4, fa4, fa5
   1e606: d3 87 06 f2  	fmv.d.x	fa5, a3
   1e60a: d3 87 e7 a2  	fle.d	a5, fa5, fa4
   1e60e: c9 e3        	bnez	a5, 0x1e690 <__gdtoa+0xb74>
   1e610: e2 77        	ld	a5, 0x38(sp)
   1e612: 81 45        	li	a1, 0x0
   1e614: 81 4a        	li	s5, 0x0
   1e616: 1b 89 27 00  	addiw	s2, a5, 0x2
   1e61a: 89 bf        	j	0x1e56c <__gdtoa+0xa50>
   1e61c: 42 77        	ld	a4, 0x30(sp)
   1e61e: e2 65        	ld	a1, 0x18(sp)
   1e620: 01 4d        	li	s10, 0x0
   1e622: 3b 86 e6 40  	subw	a2, a3, a4
   1e626: 22 77        	ld	a4, 0x28(sp)
   1e628: ae 8c        	mv	s9, a1
   1e62a: 3b 03 66 00  	addw	t1, a2, t1
   1e62e: 3a c7        	sw	a4, 0x8c(sp)
   1e630: 3b 0e c7 01  	addw	t3, a4, t3
   1e634: 2d 9f        	addw	a4, a4, a1
   1e636: 3a ec        	sd	a4, 0x18(sp)
   1e638: 36 f8        	sd	a3, 0x30(sp)
   1e63a: 6f f0 4f fa  	j	0x1ddde <__gdtoa+0x2c2>
   1e63e: 87 b7 81 0e  	fld	fa5, 0xe8(gp)
   1e642: 07 b7 81 1a  	fld	fa4, 0x1a8(gp)
   1e646: d3 86 0e f2  	fmv.d.x	fa3, t4
   1e64a: b7 06 c0 fc  	lui	a3, 0xfcc00
   1e64e: 7d 5f        	li	t5, -0x1
   1e650: c3 f7 f6 72  	fmadd.d	fa5, fa3, fa5, fa4
   1e654: 13 5f 0f 02  	srli	t5, t5, 0x20
   1e658: d3 85 07 e2  	fmv.x.d	a1, fa5
   1e65c: 13 d5 05 02  	srli	a0, a1, 0x20
   1e660: a9 9e        	addw	a3, a3, a0
   1e662: 82 16        	slli	a3, a3, 0x20
   1e664: 33 7f bf 00  	and	t5, t5, a1
   1e668: 33 6f df 00  	or	t5, t5, a3
   1e66c: 87 b7 01 1b  	fld	fa5, 0x1b0(gp)
   1e670: 53 87 0e f2  	fmv.d.x	fa4, t4
   1e674: d3 77 f7 0a  	fsub.d	fa5, fa4, fa5
   1e678: 53 07 0f f2  	fmv.d.x	fa4, t5
   1e67c: d3 16 f7 a2  	flt.d	a3, fa4, fa5
   1e680: 63 98 06 30  	bnez	a3, 0x1e990 <__gdtoa+0xe74>
   1e684: 53 17 e7 22  	fneg.d	fa4, fa4
   1e688: d3 96 e7 a2  	flt.d	a3, fa5, fa4
   1e68c: 63 8a 06 2e  	beqz	a3, 0x1e980 <__gdtoa+0xe64>
   1e690: 81 45        	li	a1, 0x0
   1e692: 81 4a        	li	s5, 0x0
   1e694: 3b 09 70 41  	negw	s2, s7
   1e698: c2 8c        	mv	s9, a6
   1e69a: c1 49        	li	s3, 0x10
   1e69c: c5 b5        	j	0x1e57c <__gdtoa+0xa60>
   1e69e: d6 85        	mv	a1, s5
   1e6a0: 6a 86        	mv	a2, s10
   1e6a2: 22 85        	mv	a0, s0
   1e6a4: c2 f0        	sd	a6, 0x60(sp)
   1e6a6: be ec        	sd	a5, 0x58(sp)
   1e6a8: f2 e8        	sd	t3, 0x50(sp)
   1e6aa: 9a e4        	sd	t1, 0x48(sp)
   1e6ac: ef b0 2f cf  	jal	0x19b9e <__pow5mult>
   1e6b0: aa 8a        	mv	s5, a0
   1e6b2: e3 0d 05 9e  	beqz	a0, 0x1e0ac <__gdtoa+0x590>
   1e6b6: aa 85        	mv	a1, a0
   1e6b8: 62 86        	mv	a2, s8
   1e6ba: 22 85        	mv	a0, s0
   1e6bc: ef b0 6f b3  	jal	0x199f2 <__multiply>
   1e6c0: aa f4        	sd	a0, 0x68(sp)
   1e6c2: e3 05 05 9e  	beqz	a0, 0x1e0ac <__gdtoa+0x590>
   1e6c6: e2 85        	mv	a1, s8
   1e6c8: 22 85        	mv	a0, s0
   1e6ca: ef a0 1f fe  	jal	0x196aa <_Bfree>
   1e6ce: c2 77        	ld	a5, 0x30(sp)
   1e6d0: a6 76        	ld	a3, 0x68(sp)
   1e6d2: 26 63        	ld	t1, 0x48(sp)
   1e6d4: 3b 87 a7 41  	subw	a4, a5, s10
   1e6d8: 3a f8        	sd	a4, 0x30(sp)
   1e6da: 46 6e        	ld	t3, 0x50(sp)
   1e6dc: e6 67        	ld	a5, 0x58(sp)
   1e6de: 06 78        	ld	a6, 0x60(sp)
   1e6e0: 36 8c        	mv	s8, a3
   1e6e2: 63 03 07 f6  	beqz	a4, 0x1de48 <__gdtoa+0x32c>
   1e6e6: 6f f0 2f f4  	j	0x1de28 <__gdtoa+0x30c>
   1e6ea: 56 8b        	mv	s6, s5
   1e6ec: e2 6a        	ld	s5, 0x18(sp)
   1e6ee: de 86        	mv	a3, s7
   1e6f0: 93 8c 1b 00  	addi	s9, s7, 0x1
   1e6f4: 13 06 90 03  	li	a2, 0x39
   1e6f8: e6 8b        	mv	s7, s9
   1e6fa: 23 80 c6 00  	sb	a2, 0x0(a3)
   1e6fe: 13 06 90 03  	li	a2, 0x39
   1e702: 19 a0        	j	0x1e708 <__gdtoa+0xbec>
   1e704: 63 02 78 0f  	beq	a6, s7, 0x1e7e8 <__gdtoa+0xccc>
   1e708: 83 c6 fb ff  	lbu	a3, -0x1(s7)
   1e70c: de 8c        	mv	s9, s7
   1e70e: fd 1b        	addi	s7, s7, -0x1
   1e710: e3 8a c6 fe  	beq	a3, a2, 0x1e704 <__gdtoa+0xbe8>
   1e714: 85 26        	addiw	a3, a3, 0x1
   1e716: 23 80 db 00  	sb	a3, 0x0(s7)
   1e71a: 93 09 00 02  	li	s3, 0x20
   1e71e: fd b1        	j	0x1e40c <__gdtoa+0x8f0>
   1e720: d6 85        	mv	a1, s5
   1e722: 22 85        	mv	a0, s0
   1e724: 42 ec        	sd	a6, 0x18(sp)
   1e726: 1a e8        	sd	t1, 0x10(sp)
   1e728: ef b0 0f d5  	jal	0x19c78 <__lshift>
   1e72c: 42 63        	ld	t1, 0x10(sp)
   1e72e: 62 68        	ld	a6, 0x18(sp)
   1e730: aa 8a        	mv	s5, a0
   1e732: 63 1d 05 f6  	bnez	a0, 0x1deac <__gdtoa+0x390>
   1e736: 9d ba        	j	0x1e0ac <__gdtoa+0x590>
   1e738: 05 47        	li	a4, 0x1
   1e73a: 81 4a        	li	s5, 0x0
   1e73c: ba e0        	sd	a4, 0x40(sp)
   1e73e: 6f f0 0f df  	j	0x1dd2e <__gdtoa+0x212>
   1e742: 05 47        	li	a4, 0x1
   1e744: ba e0        	sd	a4, 0x40(sp)
   1e746: 6f f0 8f de  	j	0x1dd2e <__gdtoa+0x212>
   1e74a: 05 47        	li	a4, 0x1
   1e74c: ba e0        	sd	a4, 0x40(sp)
   1e74e: bd b1        	j	0x1e3bc <__gdtoa+0x8a0>
   1e750: 82 e0        	sd	zero, 0x40(sp)
   1e752: ad b1        	j	0x1e3bc <__gdtoa+0x8a0>
   1e754: c6 67        	ld	a5, 0x50(sp)
   1e756: e3 9e d7 e4  	bne	a5, a3, 0x1e5b2 <__gdtoa+0xa96>
   1e75a: 83 27 4b 00  	lw	a5, 0x4(s6)
   1e75e: 42 67        	ld	a4, 0x10(sp)
   1e760: 85 27        	addiw	a5, a5, 0x1
   1e762: e3 d8 e7 e4  	bge	a5, a4, 0x1e5b2 <__gdtoa+0xa96>
   1e766: e2 67        	ld	a5, 0x18(sp)
   1e768: 05 2e        	addiw	t3, t3, 0x1
   1e76a: 85 49        	li	s3, 0x1
   1e76c: 85 27        	addiw	a5, a5, 0x1
   1e76e: 3e ec        	sd	a5, 0x18(sp)
   1e770: 89 b5        	j	0x1e5b2 <__gdtoa+0xa96>
   1e772: 83 a5 8a 00  	lw	a1, 0x8(s5)
   1e776: 22 85        	mv	a0, s0
   1e778: 42 e8        	sd	a6, 0x10(sp)
   1e77a: ef a0 df ec  	jal	0x19646 <_Balloc>
   1e77e: aa 89        	mv	s3, a0
   1e780: e3 06 05 92  	beqz	a0, 0x1e0ac <__gdtoa+0x590>
   1e784: 03 a6 4a 01  	lw	a2, 0x14(s5)
   1e788: 93 85 0a 01  	addi	a1, s5, 0x10
   1e78c: 41 05        	addi	a0, a0, 0x10
   1e78e: 09 06        	addi	a2, a2, 0x2
   1e790: 0a 06        	slli	a2, a2, 0x2
   1e792: ef 90 ff ec  	jal	0x18660 <memcpy>
   1e796: 05 46        	li	a2, 0x1
   1e798: ce 85        	mv	a1, s3
   1e79a: 22 85        	mv	a0, s0
   1e79c: ef b0 cf cd  	jal	0x19c78 <__lshift>
   1e7a0: 2a ec        	sd	a0, 0x18(sp)
   1e7a2: 42 68        	ld	a6, 0x10(sp)
   1e7a4: 63 17 05 f0  	bnez	a0, 0x1deb2 <__gdtoa+0x396>
   1e7a8: 11 b2        	j	0x1e0ac <__gdtoa+0x590>
   1e7aa: e2 85        	mv	a1, s8
   1e7ac: 05 46        	li	a2, 0x1
   1e7ae: 22 85        	mv	a0, s0
   1e7b0: 42 e8        	sd	a6, 0x10(sp)
   1e7b2: 1a ec        	sd	t1, 0x18(sp)
   1e7b4: ef b0 4f cc  	jal	0x19c78 <__lshift>
   1e7b8: 2a 8c        	mv	s8, a0
   1e7ba: e3 09 05 8e  	beqz	a0, 0x1e0ac <__gdtoa+0x590>
   1e7be: ea 85        	mv	a1, s10
   1e7c0: ef b0 0f de  	jal	0x19da0 <__mcmp>
   1e7c4: 42 68        	ld	a6, 0x10(sp)
   1e7c6: e3 4c a0 f2  	bgtz	a0, 0x1e6fe <__gdtoa+0xbe2>
   1e7ca: 11 e5        	bnez	a0, 0x1e7d6 <__gdtoa+0xcba>
   1e7cc: 62 63        	ld	t1, 0x18(sp)
   1e7ce: 13 73 13 00  	andi	t1, t1, 0x1
   1e7d2: e3 16 03 f2  	bnez	t1, 0x1e6fe <__gdtoa+0xbe2>
   1e7d6: 03 26 4c 01  	lw	a2, 0x14(s8)
   1e7da: 85 46        	li	a3, 0x1
   1e7dc: c1 49        	li	s3, 0x10
   1e7de: e3 c1 c6 d2  	blt	a3, a2, 0x1e500 <__gdtoa+0x9e4>
   1e7e2: 83 26 8c 01  	lw	a3, 0x18(s8)
   1e7e6: 09 bb        	j	0x1e4f8 <__gdtoa+0x9dc>
   1e7e8: e2 77        	ld	a5, 0x38(sp)
   1e7ea: 93 09 00 02  	li	s3, 0x20
   1e7ee: 85 27        	addiw	a5, a5, 0x1
   1e7f0: 3e fc        	sd	a5, 0x38(sp)
   1e7f2: 93 07 10 03  	li	a5, 0x31
   1e7f6: 23 00 f8 00  	sb	a5, 0x0(a6)
   1e7fa: 09 b9        	j	0x1e40c <__gdtoa+0x8f0>
   1e7fc: 82 77        	ld	a5, 0x20(sp)
   1e7fe: 26 ec        	sd	s1, 0x18(sp)
   1e800: 52 83        	mv	t1, s4
   1e802: 42 78        	ld	a6, 0x30(sp)
   1e804: 22 7a        	ld	s4, 0x28(sp)
   1e806: 86 64        	ld	s1, 0x40(sp)
   1e808: 91 cb        	beqz	a5, 0x1e81c <__gdtoa+0xd00>
   1e80a: 03 26 4c 01  	lw	a2, 0x14(s8)
   1e80e: 85 46        	li	a3, 0x1
   1e810: 63 cf c6 f8  	blt	a3, a2, 0x1dfae <__gdtoa+0x492>
   1e814: 83 26 8c 01  	lw	a3, 0x18(s8)
   1e818: 63 9b 06 f8  	bnez	a3, 0x1dfae <__gdtoa+0x492>
   1e81c: e2 85        	mv	a1, s8
   1e81e: 05 46        	li	a2, 0x1
   1e820: 22 85        	mv	a0, s0
   1e822: 42 f0        	sd	a6, 0x20(sp)
   1e824: 1a e8        	sd	t1, 0x10(sp)
   1e826: ef b0 2f c5  	jal	0x19c78 <__lshift>
   1e82a: 2a 8c        	mv	s8, a0
   1e82c: e3 00 05 88  	beqz	a0, 0x1e0ac <__gdtoa+0x590>
   1e830: ea 85        	mv	a1, s10
   1e832: ef b0 ef d6  	jal	0x19da0 <__mcmp>
   1e836: 42 63        	ld	t1, 0x10(sp)
   1e838: 02 78        	ld	a6, 0x20(sp)
   1e83a: 63 57 a0 26  	blez	a0, 0x1eaa8 <__gdtoa+0xf8c>
   1e83e: 93 06 90 03  	li	a3, 0x39
   1e842: e3 04 d3 ea  	beq	t1, a3, 0x1e6ea <__gdtoa+0xbce>
   1e846: 93 07 00 02  	li	a5, 0x20
   1e84a: 1b 83 1c 03  	addiw	t1, s9, 0x31
   1e84e: 3e f0        	sd	a5, 0x20(sp)
   1e850: 55 b6        	j	0x1e3f4 <__gdtoa+0x8d8>
   1e852: d3 f7 f7 02  	fadd.d	fa5, fa5, fa5
   1e856: 83 c6 fc ff  	lbu	a3, -0x1(s9)
   1e85a: 53 16 f7 a2  	flt.d	a2, fa4, fa5
   1e85e: e3 12 06 9e  	bnez	a2, 0x1e242 <__gdtoa+0x726>
   1e862: 53 a6 e7 a2  	feq.d	a2, fa5, fa4
   1e866: 01 c6        	beqz	a2, 0x1e86e <__gdtoa+0xd52>
   1e868: 85 8b        	andi	a5, a5, 0x1
   1e86a: e3 9c 07 9c  	bnez	a5, 0x1e242 <__gdtoa+0x726>
   1e86e: e6 87        	mv	a5, s9
   1e870: c1 49        	li	s3, 0x10
   1e872: 13 06 00 03  	li	a2, 0x30
   1e876: 03 c7 f7 ff  	lbu	a4, -0x1(a5)
   1e87a: be 8c        	mv	s9, a5
   1e87c: fd 17        	addi	a5, a5, -0x1
   1e87e: e3 0c c7 fe  	beq	a4, a2, 0x1e876 <__gdtoa+0xd5a>
   1e882: 1b 89 05 00  	sext.w	s2, a1
   1e886: e1 b4        	j	0x1e34e <__gdtoa+0x832>
   1e888: 93 06 10 03  	li	a3, 0x31
   1e88c: 85 25        	addiw	a1, a1, 0x1
   1e88e: c9 ba        	j	0x1e260 <__gdtoa+0x744>
   1e890: 53 07 0f f2  	fmv.d.x	fa4, t5
   1e894: d3 85 06 f2  	fmv.d.x	fa1, a3
   1e898: c2 8c        	mv	s9, a6
   1e89a: 53 f6 e7 12  	fmul.d	fa2, fa5, fa4
   1e89e: d3 87 06 f2  	fmv.d.x	fa5, a3
   1e8a2: 07 b7 81 16  	fld	fa4, 0x168(gp)
   1e8a6: 85 46        	li	a3, 0x1
   1e8a8: 36 c7        	sw	a3, 0x8c(sp)
   1e8aa: 01 4f        	li	t5, 0x0
   1e8ac: 29 a0        	j	0x1e8b6 <__gdtoa+0xd9a>
   1e8ae: d3 f7 e7 12  	fmul.d	fa5, fa5, fa4
   1e8b2: 2a c7        	sw	a0, 0x8c(sp)
   1e8b4: 05 4f        	li	t5, 0x1
   1e8b6: 53 97 07 c2  	fcvt.w.d	a4, fa5, rtz
   1e8ba: 85 0c        	addi	s9, s9, 0x1
   1e8bc: 9b 06 07 03  	addiw	a3, a4, 0x30
   1e8c0: 1b 05 07 00  	sext.w	a0, a4
   1e8c4: 93 f6 f6 0f  	andi	a3, a3, 0xff
   1e8c8: 11 c5        	beqz	a0, 0x1e8d4 <__gdtoa+0xdb8>
   1e8ca: d3 06 07 d2  	fcvt.d.w	fa3, a4
   1e8ce: 05 4f        	li	t5, 0x1
   1e8d0: d3 f7 d7 0a  	fsub.d	fa5, fa5, fa3
   1e8d4: a3 8f dc fe  	sb	a3, -0x1(s9)
   1e8d8: 3a 47        	lw	a4, 0x8c(sp)
   1e8da: 1b 05 17 00  	addiw	a0, a4, 0x1
   1e8de: e3 18 f7 fd  	bne	a4, t6, 0x1e8ae <__gdtoa+0xd92>
   1e8e2: 63 04 0f 00  	beqz	t5, 0x1e8ea <__gdtoa+0xdce>
   1e8e6: d3 85 f7 22  	fmv.d	fa1, fa5
   1e8ea: 87 b7 81 12  	fld	fa5, 0x128(gp)
   1e8ee: 53 77 f6 02  	fadd.d	fa4, fa2, fa5
   1e8f2: 53 15 b7 a2  	flt.d	a0, fa4, fa1
   1e8f6: 63 16 05 10  	bnez	a0, 0x1ea02 <__gdtoa+0xee6>
   1e8fa: d3 f7 c7 0a  	fsub.d	fa5, fa5, fa2
   1e8fe: d3 96 f5 a2  	flt.d	a3, fa1, fa5
   1e902: 63 9f 06 16  	bnez	a3, 0x1ea80 <__gdtoa+0xf64>
   1e906: f6 86        	mv	a3, t4
   1e908: 63 49 06 1a  	bltz	a2, 0x1eaba <__gdtoa+0xf9e>
   1e90c: 02 f0        	sd	zero, 0x20(sp)
   1e90e: 98 21        	fld	fa4, 0x0(a1)
   1e910: e3 db 0b 9a  	bgez	s7, 0x1e2c6 <__gdtoa+0x7aa>
   1e914: a2 77        	ld	a5, 0x28(sp)
   1e916: e3 98 07 9a  	bnez	a5, 0x1e2c6 <__gdtoa+0x7aa>
   1e91a: d5 b1        	j	0x1e5fe <__gdtoa+0xae2>
   1e91c: a6 87        	mv	a5, s1
   1e91e: 52 83        	mv	t1, s4
   1e920: 56 8b        	mv	s6, s5
   1e922: 42 78        	ld	a6, 0x30(sp)
   1e924: 22 7a        	ld	s4, 0x28(sp)
   1e926: 86 64        	ld	s1, 0x40(sp)
   1e928: be 8a        	mv	s5, a5
   1e92a: 45 be        	j	0x1e4da <__gdtoa+0x9be>
   1e92c: e3 09 07 d0  	beqz	a4, 0x1e63e <__gdtoa+0xb22>
   1e930: e6 7f        	ld	t6, 0x78(sp)
   1e932: 63 57 f0 05  	blez	t6, 0x1e980 <__gdtoa+0xe64>
   1e936: 87 b7 81 16  	fld	fa5, 0x168(gp)
   1e93a: b7 05 c0 fc  	lui	a1, 0xfcc00
   1e93e: d3 77 f7 12  	fmul.d	fa5, fa4, fa5
   1e942: 07 b7 01 1a  	fld	fa4, 0x1a0(gp)
   1e946: fd 53        	li	t2, -0x1
   1e948: 53 85 07 e2  	fmv.x.d	a0, fa5
   1e94c: 87 b7 81 1a  	fld	fa5, 0x1a8(gp)
   1e950: d3 06 05 f2  	fmv.d.x	fa3, a0
   1e954: aa 86        	mv	a3, a0
   1e956: c3 f7 e6 7a  	fmadd.d	fa5, fa3, fa4, fa5
   1e95a: d3 8a 07 e2  	fmv.x.d	s5, fa5
   1e95e: 13 df 0a 02  	srli	t5, s5, 0x20
   1e962: bb 85 e5 01  	addw	a1, a1, t5
   1e966: 7d 5f        	li	t5, -0x1
   1e968: 13 5f 0f 02  	srli	t5, t5, 0x20
   1e96c: 82 15        	slli	a1, a1, 0x20
   1e96e: 33 7f 5f 01  	and	t5, t5, s5
   1e972: 33 6f bf 00  	or	t5, t5, a1
   1e976: 6f f0 ff 82  	j	0x1e1a4 <__gdtoa+0x688>
   1e97a: 83 c6 fc ff  	lbu	a3, -0x1(s9)
   1e97e: d1 b0        	j	0x1e242 <__gdtoa+0x726>
   1e980: f6 86        	mv	a3, t4
   1e982: 63 4e 06 08  	bltz	a2, 0x1ea1e <__gdtoa+0xf02>
   1e986: b7 25 02 00  	lui	a1, 0x22
   1e98a: 93 85 85 85  	addi	a1, a1, -0x7a8
   1e98e: bd bf        	j	0x1e90c <__gdtoa+0xdf0>
   1e990: 09 49        	li	s2, 0x2
   1e992: 81 45        	li	a1, 0x0
   1e994: 81 4a        	li	s5, 0x0
   1e996: d9 be        	j	0x1e56c <__gdtoa+0xa50>
   1e998: e2 66        	ld	a3, 0x18(sp)
   1e99a: 3a c7        	sw	a4, 0x8c(sp)
   1e99c: 3b 0e c7 01  	addw	t3, a4, t3
   1e9a0: 35 9f        	addw	a4, a4, a3
   1e9a2: b6 8c        	mv	s9, a3
   1e9a4: 3a ec        	sd	a4, 0x18(sp)
   1e9a6: 6f f0 8f c3  	j	0x1ddde <__gdtoa+0x2c2>
   1e9aa: 52 83        	mv	t1, s4
   1e9ac: 26 ec        	sd	s1, 0x18(sp)
   1e9ae: 93 06 90 03  	li	a3, 0x39
   1e9b2: 42 78        	ld	a6, 0x30(sp)
   1e9b4: 22 7a        	ld	s4, 0x28(sp)
   1e9b6: 86 64        	ld	s1, 0x40(sp)
   1e9b8: e3 09 d3 d2  	beq	t1, a3, 0x1e6ea <__gdtoa+0xbce>
   1e9bc: 9b 87 19 00  	addiw	a5, s3, 0x1
   1e9c0: 56 8b        	mv	s6, s5
   1e9c2: 93 8c 1b 00  	addi	s9, s7, 0x1
   1e9c6: e2 6a        	ld	s5, 0x18(sp)
   1e9c8: 23 80 fb 00  	sb	a5, 0x0(s7)
   1e9cc: 93 09 00 02  	li	s3, 0x20
   1e9d0: 35 bc        	j	0x1e40c <__gdtoa+0x8f0>
   1e9d2: d6 85        	mv	a1, s5
   1e9d4: 81 46        	li	a3, 0x0
   1e9d6: 29 46        	li	a2, 0xa
   1e9d8: 22 85        	mv	a0, s0
   1e9da: ef a0 3f ce  	jal	0x196bc <__multadd>
   1e9de: aa 8a        	mv	s5, a0
   1e9e0: 63 06 05 ec  	beqz	a0, 0x1e0ac <__gdtoa+0x590>
   1e9e4: e6 77        	ld	a5, 0x78(sp)
   1e9e6: 42 63        	ld	t1, 0x10(sp)
   1e9e8: 62 68        	ld	a6, 0x18(sp)
   1e9ea: 63 55 f0 00  	blez	a5, 0x1e9f4 <__gdtoa+0xed8>
   1e9ee: 3e f4        	sd	a5, 0x28(sp)
   1e9f0: 6f f0 4f cb  	j	0x1dea4 <__gdtoa+0x388>
   1e9f4: 89 47        	li	a5, 0x2
   1e9f6: 63 c6 27 0b  	blt	a5, s2, 0x1eaa2 <__gdtoa+0xf86>
   1e9fa: e6 77        	ld	a5, 0x78(sp)
   1e9fc: 3e f4        	sd	a5, 0x28(sp)
   1e9fe: 6f f0 6f ca  	j	0x1dea4 <__gdtoa+0x388>
   1ea02: 9b 85 13 00  	addiw	a1, t2, 0x1
   1ea06: 6f f0 df 83  	j	0x1e242 <__gdtoa+0x726>
   1ea0a: 53 07 00 f2  	fmv.d.x	fa4, zero
   1ea0e: 13 89 13 00  	addi	s2, t2, 0x1
   1ea12: d3 a9 e7 a2  	feq.d	s3, fa5, fa4
   1ea16: 93 b9 19 00  	seqz	s3, s3
   1ea1a: 92 09        	slli	s3, s3, 0x4
   1ea1c: 0d ba        	j	0x1e34e <__gdtoa+0x832>
   1ea1e: 02 f0        	sd	zero, 0x20(sp)
   1ea20: 6f f0 af b6  	j	0x1dd8a <__gdtoa+0x26e>
   1ea24: f6 86        	mv	a3, t4
   1ea26: e3 53 06 ee  	bgez	a2, 0x1e90c <__gdtoa+0xdf0>
   1ea2a: 02 f0        	sd	zero, 0x20(sp)
   1ea2c: 6f f0 4f b6  	j	0x1dd90 <__gdtoa+0x274>
   1ea30: 22 77        	ld	a4, 0x28(sp)
   1ea32: 42 76        	ld	a2, 0x30(sp)
   1ea34: 9b 06 f7 ff  	addiw	a3, a4, -0x1
   1ea38: 36 8d        	mv	s10, a3
   1ea3a: e3 41 d6 be  	blt	a2, a3, 0x1e61c <__gdtoa+0xb00>
   1ea3e: e2 66        	ld	a3, 0x18(sp)
   1ea40: 3b 0e c7 01  	addw	t3, a4, t3
   1ea44: 3a c7        	sw	a4, 0x8c(sp)
   1ea46: 35 9f        	addw	a4, a4, a3
   1ea48: b6 8c        	mv	s9, a3
   1ea4a: 3b 0d a6 41  	subw	s10, a2, s10
   1ea4e: 3a ec        	sd	a4, 0x18(sp)
   1ea50: 6f f0 ef b8  	j	0x1ddde <__gdtoa+0x2c2>
   1ea54: 26 ec        	sd	s1, 0x18(sp)
   1ea56: 93 06 90 03  	li	a3, 0x39
   1ea5a: 52 83        	mv	t1, s4
   1ea5c: 42 78        	ld	a6, 0x30(sp)
   1ea5e: 22 7a        	ld	s4, 0x28(sp)
   1ea60: 86 64        	ld	s1, 0x40(sp)
   1ea62: e3 84 d9 c8  	beq	s3, a3, 0x1e6ea <__gdtoa+0xbce>
   1ea66: 63 5f 60 09  	blez	s6, 0x1eb04 <__gdtoa+0xfe8>
   1ea6a: 1b 83 1c 03  	addiw	t1, s9, 0x31
   1ea6e: 93 09 00 02  	li	s3, 0x20
   1ea72: 23 80 6b 00  	sb	t1, 0x0(s7)
   1ea76: 56 8b        	mv	s6, s5
   1ea78: 93 8c 1b 00  	addi	s9, s7, 0x1
   1ea7c: e2 6a        	ld	s5, 0x18(sp)
   1ea7e: 79 b2        	j	0x1e40c <__gdtoa+0x8f0>
   1ea80: d3 07 00 f2  	fmv.d.x	fa5, zero
   1ea84: e6 87        	mv	a5, s9
   1ea86: 9b 85 13 00  	addiw	a1, t2, 0x1
   1ea8a: d3 a9 f5 a2  	feq.d	s3, fa1, fa5
   1ea8e: 93 b9 19 00  	seqz	s3, s3
   1ea92: 92 09        	slli	s3, s3, 0x4
   1ea94: f9 bb        	j	0x1e872 <__gdtoa+0xd56>
   1ea96: 83 26 8c 01  	lw	a3, 0x18(s8)
   1ea9a: e3 95 06 96  	bnez	a3, 0x1e404 <__gdtoa+0x8e8>
   1ea9e: 82 79        	ld	s3, 0x20(sp)
   1eaa0: 95 b2        	j	0x1e404 <__gdtoa+0x8e8>
   1eaa2: e6 77        	ld	a5, 0x78(sp)
   1eaa4: 3e f4        	sd	a5, 0x28(sp)
   1eaa6: 49 bc        	j	0x1e538 <__gdtoa+0xa1c>
   1eaa8: 09 e5        	bnez	a0, 0x1eab2 <__gdtoa+0xf96>
   1eaaa: 93 76 13 00  	andi	a3, t1, 0x1
   1eaae: e3 98 06 d8  	bnez	a3, 0x1e83e <__gdtoa+0xd22>
   1eab2: 93 07 00 02  	li	a5, 0x20
   1eab6: 3e f0        	sd	a5, 0x20(sp)
   1eab8: 35 ba        	j	0x1e3f4 <__gdtoa+0x8d8>
   1eaba: 42 7d        	ld	s10, 0x30(sp)
   1eabc: e2 6c        	ld	s9, 0x18(sp)
   1eabe: 02 f0        	sd	zero, 0x20(sp)
   1eac0: 81 4a        	li	s5, 0x0
   1eac2: 6f f0 af b3  	j	0x1ddfc <__gdtoa+0x2e0>
   1eac6: 5a ec        	sd	s6, 0x18(sp)
   1eac8: 93 06 90 03  	li	a3, 0x39
   1eacc: 6e 88        	mv	a6, s11
   1eace: 63 8b d9 00  	beq	s3, a3, 0x1eae4 <__gdtoa+0xfc8>
   1ead2: 1b 83 19 00  	addiw	t1, s3, 0x1
   1ead6: 93 09 00 02  	li	s3, 0x20
   1eada: 2d b2        	j	0x1e404 <__gdtoa+0x8e8>
   1eadc: c1 49        	li	s3, 0x10
   1eade: 93 8c 1b 00  	addi	s9, s7, 0x1
   1eae2: 0d b2        	j	0x1e404 <__gdtoa+0x8e8>
   1eae4: 56 8b        	mv	s6, s5
   1eae6: de 86        	mv	a3, s7
   1eae8: e2 6a        	ld	s5, 0x18(sp)
   1eaea: 29 b1        	j	0x1e6f4 <__gdtoa+0xbd8>
   1eaec: 03 26 4c 01  	lw	a2, 0x14(s8)
   1eaf0: 85 46        	li	a3, 0x1
   1eaf2: 63 ce c6 ca  	blt	a3, a2, 0x1dfae <__gdtoa+0x492>
   1eaf6: 83 26 8c 01  	lw	a3, 0x18(s8)
   1eafa: 63 9a 06 ca  	bnez	a3, 0x1dfae <__gdtoa+0x492>
   1eafe: 93 8c 1b 00  	addi	s9, s7, 0x1
   1eb02: 09 b2        	j	0x1e404 <__gdtoa+0x8e8>
   1eb04: 03 26 4c 01  	lw	a2, 0x14(s8)
   1eb08: 85 46        	li	a3, 0x1
   1eb0a: c1 49        	li	s3, 0x10
   1eb0c: e3 c3 c6 f6  	blt	a3, a2, 0x1ea72 <__gdtoa+0xf56>
   1eb10: 83 29 8c 01  	lw	s3, 0x18(s8)
   1eb14: b3 39 30 01  	snez	s3, s3
   1eb18: 92 09        	slli	s3, s3, 0x4
   1eb1a: a1 bf        	j	0x1ea72 <__gdtoa+0xf56>
   1eb1c: 63 4e 0b 00  	bltz	s6, 0x1eb38 <__gdtoa+0x101c>
   1eb20: b3 67 69 01  	or	a5, s2, s6
   1eb24: 81 27        	sext.w	a5, a5
   1eb26: 89 e7        	bnez	a5, 0x1eb30 <__gdtoa+0x1014>
   1eb28: c2 67        	ld	a5, 0x10(sp)
   1eb2a: 9c 43        	lw	a5, 0x0(a5)
   1eb2c: 85 8b        	andi	a5, a5, 0x1
   1eb2e: 89 c7        	beqz	a5, 0x1eb38 <__gdtoa+0x101c>
   1eb30: 63 5d d0 ba  	blez	a3, 0x1deea <__gdtoa+0x3ce>
   1eb34: 6f f0 ef ba  	j	0x1dee2 <__gdtoa+0x3c6>
   1eb38: 82 77        	ld	a5, 0x20(sp)
   1eb3a: 26 ec        	sd	s1, 0x18(sp)
   1eb3c: 52 83        	mv	t1, s4
   1eb3e: 42 78        	ld	a6, 0x30(sp)
   1eb40: 22 7a        	ld	s4, 0x28(sp)
   1eb42: 86 64        	ld	s1, 0x40(sp)
   1eb44: 85 c3        	beqz	a5, 0x1eb64 <__gdtoa+0x1048>
   1eb46: 83 25 4c 01  	lw	a1, 0x14(s8)
   1eb4a: 05 46        	li	a2, 0x1
   1eb4c: 63 41 b6 c6  	blt	a2, a1, 0x1dfae <__gdtoa+0x492>
   1eb50: 03 26 8c 01  	lw	a2, 0x18(s8)
   1eb54: 63 1d 06 c4  	bnez	a2, 0x1dfae <__gdtoa+0x492>
   1eb58: e3 42 d0 cc  	bgtz	a3, 0x1e81c <__gdtoa+0xd00>
   1eb5c: 81 49        	li	s3, 0x0
   1eb5e: 93 8c 1b 00  	addi	s9, s7, 0x1
   1eb62: 4d b0        	j	0x1e404 <__gdtoa+0x8e8>
   1eb64: e3 58 d0 88  	blez	a3, 0x1e3f4 <__gdtoa+0x8d8>
   1eb68: 55 b9        	j	0x1e81c <__gdtoa+0xd00>

000000000001eb6a <__rv_alloc_D2A>:
   1eb6a: 41 11        	addi	sp, sp, -0x10
   1eb6c: 22 e0        	sd	s0, 0x0(sp)
   1eb6e: 06 e4        	sd	ra, 0x8(sp)
   1eb70: ed 47        	li	a5, 0x1b
   1eb72: 01 44        	li	s0, 0x0
   1eb74: 63 fa b7 00  	bgeu	a5, a1, 0x1eb88 <__rv_alloc_D2A+0x1e>
   1eb78: 91 47        	li	a5, 0x4
   1eb7a: 9b 97 17 00  	slliw	a5, a5, 0x1
   1eb7e: 13 87 87 01  	addi	a4, a5, 0x18
   1eb82: 05 24        	addiw	s0, s0, 0x1
   1eb84: e3 fb e5 fe  	bgeu	a1, a4, 0x1eb7a <__rv_alloc_D2A+0x10>
   1eb88: a2 85        	mv	a1, s0
   1eb8a: ef a0 df ab  	jal	0x19646 <_Balloc>
   1eb8e: 19 c1        	beqz	a0, 0x1eb94 <__rv_alloc_D2A+0x2a>
   1eb90: 00 c1        	sw	s0, 0x0(a0)
   1eb92: 11 05        	addi	a0, a0, 0x4
   1eb94: a2 60        	ld	ra, 0x8(sp)
   1eb96: 02 64        	ld	s0, 0x0(sp)
   1eb98: 41 01        	addi	sp, sp, 0x10
   1eb9a: 82 80        	ret

000000000001eb9c <__nrv_alloc_D2A>:
   1eb9c: 01 11        	addi	sp, sp, -0x20
   1eb9e: 22 e8        	sd	s0, 0x10(sp)
   1eba0: 4a e0        	sd	s2, 0x0(sp)
   1eba2: 06 ec        	sd	ra, 0x18(sp)
   1eba4: 26 e4        	sd	s1, 0x8(sp)
   1eba6: ed 47        	li	a5, 0x1b
   1eba8: 2e 84        	mv	s0, a1
   1ebaa: 32 89        	mv	s2, a2
   1ebac: 63 fb d7 04  	bgeu	a5, a3, 0x1ec02 <__nrv_alloc_D2A+0x66>
   1ebb0: 91 47        	li	a5, 0x4
   1ebb2: 81 44        	li	s1, 0x0
   1ebb4: 9b 97 17 00  	slliw	a5, a5, 0x1
   1ebb8: 13 87 87 01  	addi	a4, a5, 0x18
   1ebbc: 85 24        	addiw	s1, s1, 0x1
   1ebbe: e3 fb e6 fe  	bgeu	a3, a4, 0x1ebb4 <__nrv_alloc_D2A+0x18>
   1ebc2: a6 85        	mv	a1, s1
   1ebc4: ef a0 3f a8  	jal	0x19646 <_Balloc>
   1ebc8: aa 87        	mv	a5, a0
   1ebca: 15 cd        	beqz	a0, 0x1ec06 <__nrv_alloc_D2A+0x6a>
   1ebcc: 04 c1        	sw	s1, 0x0(a0)
   1ebce: 03 47 04 00  	lbu	a4, 0x0(s0)
   1ebd2: 11 05        	addi	a0, a0, 0x4
   1ebd4: 93 05 14 00  	addi	a1, s0, 0x1
   1ebd8: 23 82 e7 00  	sb	a4, 0x4(a5)
   1ebdc: aa 87        	mv	a5, a0
   1ebde: 01 cb        	beqz	a4, 0x1ebee <__nrv_alloc_D2A+0x52>
   1ebe0: 03 c7 05 00  	lbu	a4, 0x0(a1)
   1ebe4: 85 07        	addi	a5, a5, 0x1
   1ebe6: 85 05        	addi	a1, a1, 0x1
   1ebe8: 23 80 e7 00  	sb	a4, 0x0(a5)
   1ebec: 75 fb        	bnez	a4, 0x1ebe0 <__nrv_alloc_D2A+0x44>
   1ebee: 63 04 09 00  	beqz	s2, 0x1ebf6 <__nrv_alloc_D2A+0x5a>
   1ebf2: 23 30 f9 00  	sd	a5, 0x0(s2)
   1ebf6: e2 60        	ld	ra, 0x18(sp)
   1ebf8: 42 64        	ld	s0, 0x10(sp)
   1ebfa: a2 64        	ld	s1, 0x8(sp)
   1ebfc: 02 69        	ld	s2, 0x0(sp)
   1ebfe: 05 61        	addi	sp, sp, 0x20
   1ec00: 82 80        	ret
   1ec02: 81 44        	li	s1, 0x0
   1ec04: 7d bf        	j	0x1ebc2 <__nrv_alloc_D2A+0x26>
   1ec06: 01 45        	li	a0, 0x0
   1ec08: fd b7        	j	0x1ebf6 <__nrv_alloc_D2A+0x5a>

000000000001ec0a <__freedtoa>:
   1ec0a: 83 a7 c5 ff  	lw	a5, -0x4(a1)
   1ec0e: 85 46        	li	a3, 0x1
   1ec10: 2e 87        	mv	a4, a1
   1ec12: bb 96 f6 00  	sllw	a3, a3, a5
   1ec16: 82 17        	slli	a5, a5, 0x20
   1ec18: 82 16        	slli	a3, a3, 0x20
   1ec1a: 81 93        	srli	a5, a5, 0x20
   1ec1c: d5 8f        	or	a5, a5, a3
   1ec1e: f1 15        	addi	a1, a1, -0x4
   1ec20: 23 32 f7 00  	sd	a5, 0x4(a4)
   1ec24: 6f a0 7f a8  	j	0x196aa <_Bfree>

000000000001ec28 <__quorem_D2A>:
   1ec28: 39 71        	addi	sp, sp, -0x40
   1ec2a: 26 f4        	sd	s1, 0x28(sp)
   1ec2c: 5c 49        	lw	a5, 0x14(a0)
   1ec2e: c4 49        	lw	s1, 0x14(a1)
   1ec30: 06 fc        	sd	ra, 0x38(sp)
   1ec32: 63 ce 97 14  	blt	a5, s1, 0x1ed8e <__quorem_D2A+0x166>
   1ec36: fd 34        	addiw	s1, s1, -0x1
   1ec38: 13 93 24 00  	slli	t1, s1, 0x2
   1ec3c: 22 f8        	sd	s0, 0x30(sp)
   1ec3e: 13 84 85 01  	addi	s0, a1, 0x18
   1ec42: 4a f0        	sd	s2, 0x20(sp)
   1ec44: 4e ec        	sd	s3, 0x18(sp)
   1ec46: 33 09 64 00  	add	s2, s0, t1
   1ec4a: 93 09 85 01  	addi	s3, a0, 0x18
   1ec4e: 56 e4        	sd	s5, 0x8(sp)
   1ec50: 4e 93        	add	t1, t1, s3
   1ec52: 83 2a 09 00  	lw	s5, 0x0(s2)
   1ec56: 83 27 03 00  	lw	a5, 0x0(t1)
   1ec5a: 5a e0        	sd	s6, 0x0(sp)
   1ec5c: 1b 87 1a 00  	addiw	a4, s5, 0x1
   1ec60: 3b db e7 02  	divuw	s6, a5, a4
   1ec64: 52 e8        	sd	s4, 0x10(sp)
   1ec66: 2a 8a        	mv	s4, a0
   1ec68: da 8a        	mv	s5, s6
   1ec6a: 63 ea e7 08  	bltu	a5, a4, 0x1ecfe <__quorem_D2A+0xd6>
   1ec6e: 41 68        	lui	a6, 0x10
   1ec70: 22 85        	mv	a0, s0
   1ec72: ce 88        	mv	a7, s3
   1ec74: 01 4f        	li	t5, 0x0
   1ec76: 81 4e        	li	t4, 0x0
   1ec78: 7d 18        	addi	a6, a6, -0x1
   1ec7a: 18 41        	lw	a4, 0x0(a0)
   1ec7c: 03 a6 08 00  	lw	a2, 0x0(a7)
   1ec80: 91 08        	addi	a7, a7, 0x4
   1ec82: b3 76 07 01  	and	a3, a4, a6
   1ec86: bb 86 66 03  	mulw	a3, a3, s6
   1ec8a: 1b 57 07 01  	srliw	a4, a4, 0x10
   1ec8e: b3 77 06 01  	and	a5, a2, a6
   1ec92: 1b 5e 06 01  	srliw	t3, a2, 0x10
   1ec96: 11 05        	addi	a0, a0, 0x4
   1ec98: 3b 07 67 03  	mulw	a4, a4, s6
   1ec9c: bb 86 e6 01  	addw	a3, a3, t5
   1eca0: 33 76 d8 00  	and	a2, a6, a3
   1eca4: 91 9f        	subw	a5, a5, a2
   1eca6: bb 87 d7 41  	subw	a5, a5, t4
   1ecaa: 9b d6 06 01  	srliw	a3, a3, 0x10
   1ecae: 1b d6 07 01  	srliw	a2, a5, 0x10
   1ecb2: 05 8a        	andi	a2, a2, 0x1
   1ecb4: b3 77 f8 00  	and	a5, a6, a5
   1ecb8: 35 9f        	addw	a4, a4, a3
   1ecba: b3 76 e8 00  	and	a3, a6, a4
   1ecbe: 35 9e        	addw	a2, a2, a3
   1ecc0: bb 06 ce 40  	subw	a3, t3, a2
   1ecc4: 1b 96 06 01  	slliw	a2, a3, 0x10
   1ecc8: d1 8f        	or	a5, a5, a2
   1ecca: 9b d6 06 01  	srliw	a3, a3, 0x10
   1ecce: 23 ae f8 fe  	sw	a5, -0x4(a7)
   1ecd2: 1b 5f 07 01  	srliw	t5, a4, 0x10
   1ecd6: 93 fe 16 00  	andi	t4, a3, 0x1
   1ecda: e3 70 a9 fa  	bgeu	s2, a0, 0x1ec7a <__quorem_D2A+0x52>
   1ecde: 83 27 03 00  	lw	a5, 0x0(t1)
   1ece2: 91 ef        	bnez	a5, 0x1ecfe <__quorem_D2A+0xd6>
   1ece4: 71 13        	addi	t1, t1, -0x4
   1ece6: 63 e6 69 00  	bltu	s3, t1, 0x1ecf2 <__quorem_D2A+0xca>
   1ecea: 01 a8        	j	0x1ecfa <__quorem_D2A+0xd2>
   1ecec: fd 34        	addiw	s1, s1, -0x1
   1ecee: 63 f6 69 00  	bgeu	s3, t1, 0x1ecfa <__quorem_D2A+0xd2>
   1ecf2: 83 27 03 00  	lw	a5, 0x0(t1)
   1ecf6: 71 13        	addi	t1, t1, -0x4
   1ecf8: f5 db        	beqz	a5, 0x1ecec <__quorem_D2A+0xc4>
   1ecfa: 23 2a 9a 00  	sw	s1, 0x14(s4)
   1ecfe: 52 85        	mv	a0, s4
   1ed00: ef b0 0f 8a  	jal	0x19da0 <__mcmp>
   1ed04: 63 49 05 06  	bltz	a0, 0x1ed76 <__quorem_D2A+0x14e>
   1ed08: 41 65        	lui	a0, 0x10
   1ed0a: 4e 86        	mv	a2, s3
   1ed0c: 81 45        	li	a1, 0x0
   1ed0e: 7d 15        	addi	a0, a0, -0x1
   1ed10: 18 42        	lw	a4, 0x0(a2)
   1ed12: 14 40        	lw	a3, 0x0(s0)
   1ed14: 11 06        	addi	a2, a2, 0x4
   1ed16: b3 77 a7 00  	and	a5, a4, a0
   1ed1a: 33 f8 a6 00  	and	a6, a3, a0
   1ed1e: bb 87 07 41  	subw	a5, a5, a6
   1ed22: 8d 9f        	subw	a5, a5, a1
   1ed24: 9b d5 07 01  	srliw	a1, a5, 0x10
   1ed28: 85 89        	andi	a1, a1, 0x1
   1ed2a: 9b d6 06 01  	srliw	a3, a3, 0x10
   1ed2e: ad 9e        	addw	a3, a3, a1
   1ed30: 1b 57 07 01  	srliw	a4, a4, 0x10
   1ed34: 15 9f        	subw	a4, a4, a3
   1ed36: 9b 16 07 01  	slliw	a3, a4, 0x10
   1ed3a: e9 8f        	and	a5, a5, a0
   1ed3c: d5 8f        	or	a5, a5, a3
   1ed3e: 1b 57 07 01  	srliw	a4, a4, 0x10
   1ed42: 11 04        	addi	s0, s0, 0x4
   1ed44: 23 2e f6 fe  	sw	a5, -0x4(a2)
   1ed48: 93 75 17 00  	andi	a1, a4, 0x1
   1ed4c: e3 72 89 fc  	bgeu	s2, s0, 0x1ed10 <__quorem_D2A+0xe8>
   1ed50: 93 97 24 00  	slli	a5, s1, 0x2
   1ed54: ce 97        	add	a5, a5, s3
   1ed56: 98 43        	lw	a4, 0x0(a5)
   1ed58: 09 ef        	bnez	a4, 0x1ed72 <__quorem_D2A+0x14a>
   1ed5a: f1 17        	addi	a5, a5, -0x4
   1ed5c: 63 e6 f9 00  	bltu	s3, a5, 0x1ed68 <__quorem_D2A+0x140>
   1ed60: 39 a0        	j	0x1ed6e <__quorem_D2A+0x146>
   1ed62: fd 34        	addiw	s1, s1, -0x1
   1ed64: 63 f5 f9 00  	bgeu	s3, a5, 0x1ed6e <__quorem_D2A+0x146>
   1ed68: 98 43        	lw	a4, 0x0(a5)
   1ed6a: f1 17        	addi	a5, a5, -0x4
   1ed6c: 7d db        	beqz	a4, 0x1ed62 <__quorem_D2A+0x13a>
   1ed6e: 23 2a 9a 00  	sw	s1, 0x14(s4)
   1ed72: 1b 8b 1a 00  	addiw	s6, s5, 0x1
   1ed76: 42 74        	ld	s0, 0x30(sp)
   1ed78: e2 70        	ld	ra, 0x38(sp)
   1ed7a: 02 79        	ld	s2, 0x20(sp)
   1ed7c: e2 69        	ld	s3, 0x18(sp)
   1ed7e: 42 6a        	ld	s4, 0x10(sp)
   1ed80: a2 6a        	ld	s5, 0x8(sp)
   1ed82: a2 74        	ld	s1, 0x28(sp)
   1ed84: 1b 05 0b 00  	sext.w	a0, s6
   1ed88: 02 6b        	ld	s6, 0x0(sp)
   1ed8a: 21 61        	addi	sp, sp, 0x40
   1ed8c: 82 80        	ret
   1ed8e: e2 70        	ld	ra, 0x38(sp)
   1ed90: a2 74        	ld	s1, 0x28(sp)
   1ed92: 01 45        	li	a0, 0x0
   1ed94: 21 61        	addi	sp, sp, 0x40
   1ed96: 82 80        	ret

000000000001ed98 <__rshift_D2A>:
   1ed98: 58 49        	lw	a4, 0x14(a0)
   1ed9a: 13 de 55 40  	srai	t3, a1, 0x5
   1ed9e: 63 47 ee 00  	blt	t3, a4, 0x1edac <__rshift_D2A+0x14>
   1eda2: 23 2a 05 00  	sw	zero, 0x14(a0)
   1eda6: 23 2c 05 00  	sw	zero, 0x18(a0)
   1edaa: 82 80        	ret
   1edac: 13 03 85 01  	addi	t1, a0, 0x18
   1edb0: 13 18 27 00  	slli	a6, a4, 0x2
   1edb4: 93 17 2e 00  	slli	a5, t3, 0x2
   1edb8: fd 89        	andi	a1, a1, 0x1f
   1edba: 1a 98        	add	a6, a6, t1
   1edbc: 9a 97        	add	a5, a5, t1
   1edbe: b9 c1        	beqz	a1, 0x1ee04 <__rshift_D2A+0x6c>
   1edc0: 90 43        	lw	a2, 0x0(a5)
   1edc2: 93 0e 00 02  	li	t4, 0x20
   1edc6: 91 07        	addi	a5, a5, 0x4
   1edc8: bb 56 b6 00  	srlw	a3, a2, a1
   1edcc: bb 8e be 40  	subw	t4, t4, a1
   1edd0: 63 ff 07 05  	bgeu	a5, a6, 0x1ee2e <__rshift_D2A+0x96>
   1edd4: 9a 88        	mv	a7, t1
   1edd6: 90 43        	lw	a2, 0x0(a5)
   1edd8: 91 08        	addi	a7, a7, 0x4
   1edda: 91 07        	addi	a5, a5, 0x4
   1eddc: 3b 16 d6 01  	sllw	a2, a2, t4
   1ede0: d1 8e        	or	a3, a3, a2
   1ede2: 23 ae d8 fe  	sw	a3, -0x4(a7)
   1ede6: 03 a6 c7 ff  	lw	a2, -0x4(a5)
   1edea: bb 56 b6 00  	srlw	a3, a2, a1
   1edee: e3 e4 07 ff  	bltu	a5, a6, 0x1edd6 <__rshift_D2A+0x3e>
   1edf2: 33 07 c7 41  	sub	a4, a4, t3
   1edf6: 0a 07        	slli	a4, a4, 0x2
   1edf8: 71 17        	addi	a4, a4, -0x4
   1edfa: 1a 97        	add	a4, a4, t1
   1edfc: 14 c3        	sw	a3, 0x0(a4)
   1edfe: 8d c2        	beqz	a3, 0x1ee20 <__rshift_D2A+0x88>
   1ee00: 11 07        	addi	a4, a4, 0x4
   1ee02: 39 a8        	j	0x1ee20 <__rshift_D2A+0x88>
   1ee04: 9a 86        	mv	a3, t1
   1ee06: e3 fe 07 f9  	bgeu	a5, a6, 0x1eda2 <__rshift_D2A+0xa>
   1ee0a: 90 43        	lw	a2, 0x0(a5)
   1ee0c: 91 07        	addi	a5, a5, 0x4
   1ee0e: 91 06        	addi	a3, a3, 0x4
   1ee10: 23 ae c6 fe  	sw	a2, -0x4(a3)
   1ee14: e3 eb 07 ff  	bltu	a5, a6, 0x1ee0a <__rshift_D2A+0x72>
   1ee18: 33 07 c7 41  	sub	a4, a4, t3
   1ee1c: 0a 07        	slli	a4, a4, 0x2
   1ee1e: 1a 97        	add	a4, a4, t1
   1ee20: 33 07 67 40  	sub	a4, a4, t1
   1ee24: 09 87        	srai	a4, a4, 0x2
   1ee26: 01 27        	sext.w	a4, a4
   1ee28: 58 c9        	sw	a4, 0x14(a0)
   1ee2a: 35 df        	beqz	a4, 0x1eda6 <__rshift_D2A+0xe>
   1ee2c: 82 80        	ret
   1ee2e: 14 cd        	sw	a3, 0x18(a0)
   1ee30: ad da        	beqz	a3, 0x1eda2 <__rshift_D2A+0xa>
   1ee32: 1a 87        	mv	a4, t1
   1ee34: 11 07        	addi	a4, a4, 0x4
   1ee36: ed b7        	j	0x1ee20 <__rshift_D2A+0x88>

000000000001ee38 <__trailz_D2A>:
   1ee38: 58 49        	lw	a4, 0x14(a0)
   1ee3a: 01 11        	addi	sp, sp, -0x20
   1ee3c: 61 05        	addi	a0, a0, 0x18
   1ee3e: 0a 07        	slli	a4, a4, 0x2
   1ee40: 22 e8        	sd	s0, 0x10(sp)
   1ee42: 06 ec        	sd	ra, 0x18(sp)
   1ee44: 2a 97        	add	a4, a4, a0
   1ee46: 01 44        	li	s0, 0x0
   1ee48: 63 68 e5 00  	bltu	a0, a4, 0x1ee58 <__trailz_D2A+0x20>
   1ee4c: 39 a8        	j	0x1ee6a <__trailz_D2A+0x32>
   1ee4e: 11 05        	addi	a0, a0, 0x4
   1ee50: 1b 04 04 02  	addiw	s0, s0, 0x20
   1ee54: 63 7b e5 00  	bgeu	a0, a4, 0x1ee6a <__trailz_D2A+0x32>
   1ee58: 1c 41        	lw	a5, 0x0(a0)
   1ee5a: f5 db        	beqz	a5, 0x1ee4e <__trailz_D2A+0x16>
   1ee5c: 63 77 e5 00  	bgeu	a0, a4, 0x1ee6a <__trailz_D2A+0x32>
   1ee60: 68 00        	addi	a0, sp, 0xc
   1ee62: 3e c6        	sw	a5, 0xc(sp)
   1ee64: ef a0 bf a8  	jal	0x198ee <__lo0bits>
   1ee68: 29 9c        	addw	s0, s0, a0
   1ee6a: e2 60        	ld	ra, 0x18(sp)
   1ee6c: 22 85        	mv	a0, s0
   1ee6e: 42 64        	ld	s0, 0x10(sp)
   1ee70: 05 61        	addi	sp, sp, 0x20
   1ee72: 82 80        	ret

000000000001ee74 <_realloc_r>:
   1ee74: 5d 71        	addi	sp, sp, -0x50
   1ee76: 4a f8        	sd	s2, 0x30(sp)
   1ee78: 86 e4        	sd	ra, 0x48(sp)
   1ee7a: 32 89        	mv	s2, a2
   1ee7c: 63 84 05 16  	beqz	a1, 0x1efe4 <_realloc_r+0x170>
   1ee80: a2 e0        	sd	s0, 0x40(sp)
   1ee82: 26 fc        	sd	s1, 0x38(sp)
   1ee84: 2e 84        	mv	s0, a1
   1ee86: 4e f4        	sd	s3, 0x28(sp)
   1ee88: 52 f0        	sd	s4, 0x20(sp)
   1ee8a: 56 ec        	sd	s5, 0x18(sp)
   1ee8c: aa 89        	mv	s3, a0
   1ee8e: ef 60 5f e4  	jal	0x15cd2 <__malloc_lock>
   1ee92: 83 37 84 ff  	ld	a5, -0x8(s0)
   1ee96: 93 04 79 01  	addi	s1, s2, 0x17
   1ee9a: 13 07 e0 02  	li	a4, 0x2e
   1ee9e: 93 0a 04 ff  	addi	s5, s0, -0x10
   1eea2: 13 fa c7 ff  	andi	s4, a5, -0x4
   1eea6: 63 74 97 0c  	bgeu	a4, s1, 0x1ef6e <_realloc_r+0xfa>
   1eeaa: 37 07 00 80  	lui	a4, 0x80000
   1eeae: c1 98        	andi	s1, s1, -0x10
   1eeb0: 13 47 f7 ff  	not	a4, a4
   1eeb4: 63 61 97 0c  	bltu	a4, s1, 0x1ef76 <_realloc_r+0x102>
   1eeb8: 63 ef 24 0b  	bltu	s1, s2, 0x1ef76 <_realloc_r+0x102>
   1eebc: 63 58 9a 0c  	bge	s4, s1, 0x1ef8c <_realloc_r+0x118>
   1eec0: 37 27 02 00  	lui	a4, 0x22
   1eec4: 62 e0        	sd	s8, 0x0(sp)
   1eec6: 13 0c 07 4a  	addi	s8, a4, 0x4a0
   1eeca: 03 36 0c 01  	ld	a2, 0x10(s8)
   1eece: b3 86 4a 01  	add	a3, s5, s4
   1eed2: 98 66        	ld	a4, 0x8(a3)
   1eed4: 63 0f d6 12  	beq	a2, a3, 0x1f012 <_realloc_r+0x19e>
   1eed8: 13 76 e7 ff  	andi	a2, a4, -0x2
   1eedc: 36 96        	add	a2, a2, a3
   1eede: 10 66        	ld	a2, 0x8(a2)
   1eee0: 05 8a        	andi	a2, a2, 0x1
   1eee2: 6d e6        	bnez	a2, 0x1efcc <_realloc_r+0x158>
   1eee4: 71 9b        	andi	a4, a4, -0x4
   1eee6: 33 06 ea 00  	add	a2, s4, a4
   1eeea: 63 5b 96 08  	bge	a2, s1, 0x1ef80 <_realloc_r+0x10c>
   1eeee: 85 8b        	andi	a5, a5, 0x1
   1eef0: 8d e7        	bnez	a5, 0x1ef1a <_realloc_r+0xa6>
   1eef2: 5e e4        	sd	s7, 0x8(sp)
   1eef4: 83 3b 04 ff  	ld	s7, -0x10(s0)
   1eef8: 5a e8        	sd	s6, 0x10(sp)
   1eefa: b3 8b 7a 41  	sub	s7, s5, s7
   1eefe: 83 b7 8b 00  	ld	a5, 0x8(s7)
   1ef02: f1 9b        	andi	a5, a5, -0x4
   1ef04: 3e 97        	add	a4, a4, a5
   1ef06: 33 0b 47 01  	add	s6, a4, s4
   1ef0a: 63 55 9b 24  	bge	s6, s1, 0x1f154 <_realloc_r+0x2e0>
   1ef0e: 33 0b fa 00  	add	s6, s4, a5
   1ef12: 63 57 9b 1c  	bge	s6, s1, 0x1f0e0 <_realloc_r+0x26c>
   1ef16: 42 6b        	ld	s6, 0x10(sp)
   1ef18: a2 6b        	ld	s7, 0x8(sp)
   1ef1a: ca 85        	mv	a1, s2
   1ef1c: 4e 85        	mv	a0, s3
   1ef1e: ef 60 cf fa  	jal	0x156ca <_malloc_r>
   1ef22: 2a 89        	mv	s2, a0
   1ef24: 63 08 05 2e  	beqz	a0, 0x1f214 <_realloc_r+0x3a0>
   1ef28: 83 37 84 ff  	ld	a5, -0x8(s0)
   1ef2c: 13 07 05 ff  	addi	a4, a0, -0x10
   1ef30: f9 9b        	andi	a5, a5, -0x2
   1ef32: d6 97        	add	a5, a5, s5
   1ef34: 63 80 e7 1a  	beq	a5, a4, 0x1f0d4 <_realloc_r+0x260>
   1ef38: 13 06 8a ff  	addi	a2, s4, -0x8
   1ef3c: 93 07 80 04  	li	a5, 0x48
   1ef40: 63 e6 c7 20  	bltu	a5, a2, 0x1f14c <_realloc_r+0x2d8>
   1ef44: 13 07 70 02  	li	a4, 0x27
   1ef48: 63 69 c7 16  	bltu	a4, a2, 0x1f0ba <_realloc_r+0x246>
   1ef4c: aa 87        	mv	a5, a0
   1ef4e: 22 87        	mv	a4, s0
   1ef50: 14 63        	ld	a3, 0x0(a4)
   1ef52: 94 e3        	sd	a3, 0x0(a5)
   1ef54: 14 67        	ld	a3, 0x8(a4)
   1ef56: 94 e7        	sd	a3, 0x8(a5)
   1ef58: 18 6b        	ld	a4, 0x10(a4)
   1ef5a: 98 eb        	sd	a4, 0x10(a5)
   1ef5c: a2 85        	mv	a1, s0
   1ef5e: 4e 85        	mv	a0, s3
   1ef60: ef 90 df b8  	jal	0x18aec <_free_r>
   1ef64: 4e 85        	mv	a0, s3
   1ef66: ef 60 ff d6  	jal	0x15cd4 <__malloc_unlock>
   1ef6a: 02 6c        	ld	s8, 0x0(sp)
   1ef6c: b1 a0        	j	0x1efb8 <_realloc_r+0x144>
   1ef6e: 93 04 00 02  	li	s1, 0x20
   1ef72: e3 f5 24 f5  	bgeu	s1, s2, 0x1eebc <_realloc_r+0x48>
   1ef76: b1 47        	li	a5, 0xc
   1ef78: 23 a0 f9 00  	sw	a5, 0x0(s3)
   1ef7c: 01 49        	li	s2, 0x0
   1ef7e: 2d a8        	j	0x1efb8 <_realloc_r+0x144>
   1ef80: 9c 6e        	ld	a5, 0x18(a3)
   1ef82: 98 6a        	ld	a4, 0x10(a3)
   1ef84: 02 6c        	ld	s8, 0x0(sp)
   1ef86: 32 8a        	mv	s4, a2
   1ef88: 1c ef        	sd	a5, 0x18(a4)
   1ef8a: 98 eb        	sd	a4, 0x10(a5)
   1ef8c: 83 b7 8a 00  	ld	a5, 0x8(s5)
   1ef90: b3 06 9a 40  	sub	a3, s4, s1
   1ef94: 7d 46        	li	a2, 0x1f
   1ef96: 85 8b        	andi	a5, a5, 0x1
   1ef98: 33 87 4a 01  	add	a4, s5, s4
   1ef9c: 63 6a d6 04  	bltu	a2, a3, 0x1eff0 <_realloc_r+0x17c>
   1efa0: b3 e7 47 01  	or	a5, a5, s4
   1efa4: 23 b4 fa 00  	sd	a5, 0x8(s5)
   1efa8: 1c 67        	ld	a5, 0x8(a4)
   1efaa: 93 e7 17 00  	ori	a5, a5, 0x1
   1efae: 1c e7        	sd	a5, 0x8(a4)
   1efb0: 4e 85        	mv	a0, s3
   1efb2: ef 60 3f d2  	jal	0x15cd4 <__malloc_unlock>
   1efb6: 22 89        	mv	s2, s0
   1efb8: 06 64        	ld	s0, 0x40(sp)
   1efba: a6 60        	ld	ra, 0x48(sp)
   1efbc: e2 74        	ld	s1, 0x38(sp)
   1efbe: a2 79        	ld	s3, 0x28(sp)
   1efc0: 02 7a        	ld	s4, 0x20(sp)
   1efc2: e2 6a        	ld	s5, 0x18(sp)
   1efc4: 4a 85        	mv	a0, s2
   1efc6: 42 79        	ld	s2, 0x30(sp)
   1efc8: 61 61        	addi	sp, sp, 0x50
   1efca: 82 80        	ret
   1efcc: 85 8b        	andi	a5, a5, 0x1
   1efce: b1 f7        	bnez	a5, 0x1ef1a <_realloc_r+0xa6>
   1efd0: 5e e4        	sd	s7, 0x8(sp)
   1efd2: 83 3b 04 ff  	ld	s7, -0x10(s0)
   1efd6: 5a e8        	sd	s6, 0x10(sp)
   1efd8: b3 8b 7a 41  	sub	s7, s5, s7
   1efdc: 83 b7 8b 00  	ld	a5, 0x8(s7)
   1efe0: f1 9b        	andi	a5, a5, -0x4
   1efe2: 35 b7        	j	0x1ef0e <_realloc_r+0x9a>
   1efe4: a6 60        	ld	ra, 0x48(sp)
   1efe6: 42 79        	ld	s2, 0x30(sp)
   1efe8: b2 85        	mv	a1, a2
   1efea: 61 61        	addi	sp, sp, 0x50
   1efec: 6f 60 ef ed  	j	0x156ca <_malloc_r>
   1eff0: c5 8f        	or	a5, a5, s1
   1eff2: 23 b4 fa 00  	sd	a5, 0x8(s5)
   1eff6: b3 85 9a 00  	add	a1, s5, s1
   1effa: 93 e6 16 00  	ori	a3, a3, 0x1
   1effe: 94 e5        	sd	a3, 0x8(a1)
   1f000: 1c 67        	ld	a5, 0x8(a4)
   1f002: c1 05        	addi	a1, a1, 0x10
   1f004: 4e 85        	mv	a0, s3
   1f006: 93 e7 17 00  	ori	a5, a5, 0x1
   1f00a: 1c e7        	sd	a5, 0x8(a4)
   1f00c: ef 90 1f ae  	jal	0x18aec <_free_r>
   1f010: 45 b7        	j	0x1efb0 <_realloc_r+0x13c>
   1f012: 71 9b        	andi	a4, a4, -0x4
   1f014: b3 06 47 01  	add	a3, a4, s4
   1f018: 13 86 04 02  	addi	a2, s1, 0x20
   1f01c: 63 d3 c6 1c  	bge	a3, a2, 0x1f1e2 <_realloc_r+0x36e>
   1f020: 85 8b        	andi	a5, a5, 0x1
   1f022: e3 9c 07 ee  	bnez	a5, 0x1ef1a <_realloc_r+0xa6>
   1f026: 5e e4        	sd	s7, 0x8(sp)
   1f028: 83 3b 04 ff  	ld	s7, -0x10(s0)
   1f02c: 5a e8        	sd	s6, 0x10(sp)
   1f02e: b3 8b 7a 41  	sub	s7, s5, s7
   1f032: 83 b7 8b 00  	ld	a5, 0x8(s7)
   1f036: f1 9b        	andi	a5, a5, -0x4
   1f038: 3e 97        	add	a4, a4, a5
   1f03a: 33 0b 47 01  	add	s6, a4, s4
   1f03e: e3 48 cb ec  	blt	s6, a2, 0x1ef0e <_realloc_r+0x9a>
   1f042: 83 b7 8b 01  	ld	a5, 0x18(s7)
   1f046: 03 b7 0b 01  	ld	a4, 0x10(s7)
   1f04a: 13 06 8a ff  	addi	a2, s4, -0x8
   1f04e: 93 06 80 04  	li	a3, 0x48
   1f052: 1c ef        	sd	a5, 0x18(a4)
   1f054: 98 eb        	sd	a4, 0x10(a5)
   1f056: 13 89 0b 01  	addi	s2, s7, 0x10
   1f05a: 63 ec c6 1c  	bltu	a3, a2, 0x1f232 <_realloc_r+0x3be>
   1f05e: 13 07 70 02  	li	a4, 0x27
   1f062: ca 87        	mv	a5, s2
   1f064: 63 7f c7 00  	bgeu	a4, a2, 0x1f082 <_realloc_r+0x20e>
   1f068: 18 60        	ld	a4, 0x0(s0)
   1f06a: 93 07 70 03  	li	a5, 0x37
   1f06e: 23 b8 eb 00  	sd	a4, 0x10(s7)
   1f072: 18 64        	ld	a4, 0x8(s0)
   1f074: 23 bc eb 00  	sd	a4, 0x18(s7)
   1f078: 63 e2 c7 1c  	bltu	a5, a2, 0x1f23c <_realloc_r+0x3c8>
   1f07c: 41 04        	addi	s0, s0, 0x10
   1f07e: 93 87 0b 02  	addi	a5, s7, 0x20
   1f082: 18 60        	ld	a4, 0x0(s0)
   1f084: 98 e3        	sd	a4, 0x0(a5)
   1f086: 18 64        	ld	a4, 0x8(s0)
   1f088: 98 e7        	sd	a4, 0x8(a5)
   1f08a: 18 68        	ld	a4, 0x10(s0)
   1f08c: 98 eb        	sd	a4, 0x10(a5)
   1f08e: 33 87 9b 00  	add	a4, s7, s1
   1f092: b3 07 9b 40  	sub	a5, s6, s1
   1f096: 23 38 ec 00  	sd	a4, 0x10(s8)
   1f09a: 93 e7 17 00  	ori	a5, a5, 0x1
   1f09e: 1c e7        	sd	a5, 0x8(a4)
   1f0a0: 83 b7 8b 00  	ld	a5, 0x8(s7)
   1f0a4: 4e 85        	mv	a0, s3
   1f0a6: 85 8b        	andi	a5, a5, 0x1
   1f0a8: c5 8f        	or	a5, a5, s1
   1f0aa: 23 b4 fb 00  	sd	a5, 0x8(s7)
   1f0ae: ef 60 7f c2  	jal	0x15cd4 <__malloc_unlock>
   1f0b2: 42 6b        	ld	s6, 0x10(sp)
   1f0b4: a2 6b        	ld	s7, 0x8(sp)
   1f0b6: 02 6c        	ld	s8, 0x0(sp)
   1f0b8: 01 b7        	j	0x1efb8 <_realloc_r+0x144>
   1f0ba: 14 60        	ld	a3, 0x0(s0)
   1f0bc: 13 07 70 03  	li	a4, 0x37
   1f0c0: 14 e1        	sd	a3, 0x0(a0)
   1f0c2: 14 64        	ld	a3, 0x8(s0)
   1f0c4: 14 e5        	sd	a3, 0x8(a0)
   1f0c6: 63 63 c7 10  	bltu	a4, a2, 0x1f1cc <_realloc_r+0x358>
   1f0ca: 13 07 04 01  	addi	a4, s0, 0x10
   1f0ce: 93 07 05 01  	addi	a5, a0, 0x10
   1f0d2: bd bd        	j	0x1ef50 <_realloc_r+0xdc>
   1f0d4: 83 37 85 ff  	ld	a5, -0x8(a0)
   1f0d8: 02 6c        	ld	s8, 0x0(sp)
   1f0da: f1 9b        	andi	a5, a5, -0x4
   1f0dc: 3e 9a        	add	s4, s4, a5
   1f0de: 7d b5        	j	0x1ef8c <_realloc_r+0x118>
   1f0e0: 83 b7 8b 01  	ld	a5, 0x18(s7)
   1f0e4: 03 b7 0b 01  	ld	a4, 0x10(s7)
   1f0e8: 13 06 8a ff  	addi	a2, s4, -0x8
   1f0ec: 93 06 80 04  	li	a3, 0x48
   1f0f0: 1c ef        	sd	a5, 0x18(a4)
   1f0f2: 98 eb        	sd	a4, 0x10(a5)
   1f0f4: 13 89 0b 01  	addi	s2, s7, 0x10
   1f0f8: 63 e5 c6 0c  	bltu	a3, a2, 0x1f1c2 <_realloc_r+0x34e>
   1f0fc: 13 07 70 02  	li	a4, 0x27
   1f100: ca 87        	mv	a5, s2
   1f102: 63 78 c7 02  	bgeu	a4, a2, 0x1f132 <_realloc_r+0x2be>
   1f106: 18 60        	ld	a4, 0x0(s0)
   1f108: 93 07 70 03  	li	a5, 0x37
   1f10c: 23 b8 eb 00  	sd	a4, 0x10(s7)
   1f110: 18 64        	ld	a4, 0x8(s0)
   1f112: 23 bc eb 00  	sd	a4, 0x18(s7)
   1f116: 63 fb c7 0e  	bgeu	a5, a2, 0x1f20c <_realloc_r+0x398>
   1f11a: 1c 68        	ld	a5, 0x10(s0)
   1f11c: 23 b0 fb 02  	sd	a5, 0x20(s7)
   1f120: 1c 6c        	ld	a5, 0x18(s0)
   1f122: 23 b4 fb 02  	sd	a5, 0x28(s7)
   1f126: 63 02 d6 08  	beq	a2, a3, 0x1f1aa <_realloc_r+0x336>
   1f12a: 13 04 04 02  	addi	s0, s0, 0x20
   1f12e: 93 87 0b 03  	addi	a5, s7, 0x30
   1f132: 18 60        	ld	a4, 0x0(s0)
   1f134: 98 e3        	sd	a4, 0x0(a5)
   1f136: 18 64        	ld	a4, 0x8(s0)
   1f138: 98 e7        	sd	a4, 0x8(a5)
   1f13a: 18 68        	ld	a4, 0x10(s0)
   1f13c: 98 eb        	sd	a4, 0x10(a5)
   1f13e: 5a 8a        	mv	s4, s6
   1f140: de 8a        	mv	s5, s7
   1f142: 42 6b        	ld	s6, 0x10(sp)
   1f144: a2 6b        	ld	s7, 0x8(sp)
   1f146: 02 6c        	ld	s8, 0x0(sp)
   1f148: 4a 84        	mv	s0, s2
   1f14a: 89 b5        	j	0x1ef8c <_realloc_r+0x118>
   1f14c: a2 85        	mv	a1, s0
   1f14e: ef e0 2f cf  	jal	0x1d640 <memmove>
   1f152: 29 b5        	j	0x1ef5c <_realloc_r+0xe8>
   1f154: 9c 6e        	ld	a5, 0x18(a3)
   1f156: 98 6a        	ld	a4, 0x10(a3)
   1f158: 13 06 8a ff  	addi	a2, s4, -0x8
   1f15c: 93 06 80 04  	li	a3, 0x48
   1f160: 1c ef        	sd	a5, 0x18(a4)
   1f162: 98 eb        	sd	a4, 0x10(a5)
   1f164: 03 b7 0b 01  	ld	a4, 0x10(s7)
   1f168: 83 b7 8b 01  	ld	a5, 0x18(s7)
   1f16c: 13 89 0b 01  	addi	s2, s7, 0x10
   1f170: 1c ef        	sd	a5, 0x18(a4)
   1f172: 98 eb        	sd	a4, 0x10(a5)
   1f174: 63 e7 c6 04  	bltu	a3, a2, 0x1f1c2 <_realloc_r+0x34e>
   1f178: 13 07 70 02  	li	a4, 0x27
   1f17c: ca 87        	mv	a5, s2
   1f17e: e3 7a c7 fa  	bgeu	a4, a2, 0x1f132 <_realloc_r+0x2be>
   1f182: 18 60        	ld	a4, 0x0(s0)
   1f184: 93 07 70 03  	li	a5, 0x37
   1f188: 23 b8 eb 00  	sd	a4, 0x10(s7)
   1f18c: 18 64        	ld	a4, 0x8(s0)
   1f18e: 23 bc eb 00  	sd	a4, 0x18(s7)
   1f192: 63 fd c7 06  	bgeu	a5, a2, 0x1f20c <_realloc_r+0x398>
   1f196: 18 68        	ld	a4, 0x10(s0)
   1f198: 93 07 80 04  	li	a5, 0x48
   1f19c: 23 b0 eb 02  	sd	a4, 0x20(s7)
   1f1a0: 18 6c        	ld	a4, 0x18(s0)
   1f1a2: 23 b4 eb 02  	sd	a4, 0x28(s7)
   1f1a6: e3 12 f6 f8  	bne	a2, a5, 0x1f12a <_realloc_r+0x2b6>
   1f1aa: 18 70        	ld	a4, 0x20(s0)
   1f1ac: 93 87 0b 04  	addi	a5, s7, 0x40
   1f1b0: 13 04 04 03  	addi	s0, s0, 0x30
   1f1b4: 23 b8 eb 02  	sd	a4, 0x30(s7)
   1f1b8: 03 37 84 ff  	ld	a4, -0x8(s0)
   1f1bc: 23 bc eb 02  	sd	a4, 0x38(s7)
   1f1c0: 8d bf        	j	0x1f132 <_realloc_r+0x2be>
   1f1c2: a2 85        	mv	a1, s0
   1f1c4: 4a 85        	mv	a0, s2
   1f1c6: ef e0 af c7  	jal	0x1d640 <memmove>
   1f1ca: 95 bf        	j	0x1f13e <_realloc_r+0x2ca>
   1f1cc: 18 68        	ld	a4, 0x10(s0)
   1f1ce: 18 e9        	sd	a4, 0x10(a0)
   1f1d0: 18 6c        	ld	a4, 0x18(s0)
   1f1d2: 18 ed        	sd	a4, 0x18(a0)
   1f1d4: 63 06 f6 04  	beq	a2, a5, 0x1f220 <_realloc_r+0x3ac>
   1f1d8: 13 07 04 02  	addi	a4, s0, 0x20
   1f1dc: 93 07 05 02  	addi	a5, a0, 0x20
   1f1e0: 85 bb        	j	0x1ef50 <_realloc_r+0xdc>
   1f1e2: a6 9a        	add	s5, s5, s1
   1f1e4: b3 87 96 40  	sub	a5, a3, s1
   1f1e8: 23 38 5c 01  	sd	s5, 0x10(s8)
   1f1ec: 93 e7 17 00  	ori	a5, a5, 0x1
   1f1f0: 23 b4 fa 00  	sd	a5, 0x8(s5)
   1f1f4: 83 37 84 ff  	ld	a5, -0x8(s0)
   1f1f8: 4e 85        	mv	a0, s3
   1f1fa: 22 89        	mv	s2, s0
   1f1fc: 85 8b        	andi	a5, a5, 0x1
   1f1fe: c5 8f        	or	a5, a5, s1
   1f200: 23 3c f4 fe  	sd	a5, -0x8(s0)
   1f204: ef 60 1f ad  	jal	0x15cd4 <__malloc_unlock>
   1f208: 02 6c        	ld	s8, 0x0(sp)
   1f20a: 7d b3        	j	0x1efb8 <_realloc_r+0x144>
   1f20c: 41 04        	addi	s0, s0, 0x10
   1f20e: 93 87 0b 02  	addi	a5, s7, 0x20
   1f212: 05 b7        	j	0x1f132 <_realloc_r+0x2be>
   1f214: 4e 85        	mv	a0, s3
   1f216: ef 60 ff ab  	jal	0x15cd4 <__malloc_unlock>
   1f21a: 01 49        	li	s2, 0x0
   1f21c: 02 6c        	ld	s8, 0x0(sp)
   1f21e: 69 bb        	j	0x1efb8 <_realloc_r+0x144>
   1f220: 14 70        	ld	a3, 0x20(s0)
   1f222: 13 07 04 03  	addi	a4, s0, 0x30
   1f226: 93 07 05 03  	addi	a5, a0, 0x30
   1f22a: 14 f1        	sd	a3, 0x20(a0)
   1f22c: 14 74        	ld	a3, 0x28(s0)
   1f22e: 14 f5        	sd	a3, 0x28(a0)
   1f230: 05 b3        	j	0x1ef50 <_realloc_r+0xdc>
   1f232: a2 85        	mv	a1, s0
   1f234: 4a 85        	mv	a0, s2
   1f236: ef e0 af c0  	jal	0x1d640 <memmove>
   1f23a: 91 bd        	j	0x1f08e <_realloc_r+0x21a>
   1f23c: 1c 68        	ld	a5, 0x10(s0)
   1f23e: 23 b0 fb 02  	sd	a5, 0x20(s7)
   1f242: 1c 6c        	ld	a5, 0x18(s0)
   1f244: 23 b4 fb 02  	sd	a5, 0x28(s7)
   1f248: 63 07 d6 00  	beq	a2, a3, 0x1f256 <_realloc_r+0x3e2>
   1f24c: 13 04 04 02  	addi	s0, s0, 0x20
   1f250: 93 87 0b 03  	addi	a5, s7, 0x30
   1f254: 3d b5        	j	0x1f082 <_realloc_r+0x20e>
   1f256: 18 70        	ld	a4, 0x20(s0)
   1f258: 93 87 0b 04  	addi	a5, s7, 0x40
   1f25c: 13 04 04 03  	addi	s0, s0, 0x30
   1f260: 23 b8 eb 02  	sd	a4, 0x30(s7)
   1f264: 03 37 84 ff  	ld	a4, -0x8(s0)
   1f268: 23 bc eb 02  	sd	a4, 0x38(s7)
   1f26c: 19 bd        	j	0x1f082 <_realloc_r+0x20e>

000000000001f26e <_wcrtomb_r>:
   1f26e: 79 71        	addi	sp, sp, -0x30
   1f270: 22 f0        	sd	s0, 0x20(sp)
   1f272: 26 ec        	sd	s1, 0x18(sp)
   1f274: 06 f4        	sd	ra, 0x28(sp)
   1f276: 83 b7 01 e6  	ld	a5, -0x1a0(gp)
   1f27a: 2a 84        	mv	s0, a0
   1f27c: b6 84        	mv	s1, a3
   1f27e: 91 c9        	beqz	a1, 0x1f292 <_wcrtomb_r+0x24>
   1f280: 82 97        	jalr	a5
   1f282: fd 57        	li	a5, -0x1
   1f284: 63 0d f5 00  	beq	a0, a5, 0x1f29e <_wcrtomb_r+0x30>
   1f288: a2 70        	ld	ra, 0x28(sp)
   1f28a: 02 74        	ld	s0, 0x20(sp)
   1f28c: e2 64        	ld	s1, 0x18(sp)
   1f28e: 45 61        	addi	sp, sp, 0x30
   1f290: 82 80        	ret
   1f292: 01 46        	li	a2, 0x0
   1f294: 8a 85        	mv	a1, sp
   1f296: 82 97        	jalr	a5
   1f298: fd 57        	li	a5, -0x1
   1f29a: e3 17 f5 fe  	bne	a0, a5, 0x1f288 <_wcrtomb_r+0x1a>
   1f29e: 23 a0 04 00  	sw	zero, 0x0(s1)
   1f2a2: 93 07 a0 08  	li	a5, 0x8a
   1f2a6: a2 70        	ld	ra, 0x28(sp)
   1f2a8: 1c c0        	sw	a5, 0x0(s0)
   1f2aa: 02 74        	ld	s0, 0x20(sp)
   1f2ac: e2 64        	ld	s1, 0x18(sp)
   1f2ae: 45 61        	addi	sp, sp, 0x30
   1f2b0: 82 80        	ret

000000000001f2b2 <wcrtomb>:
   1f2b2: 79 71        	addi	sp, sp, -0x30
   1f2b4: 22 f0        	sd	s0, 0x20(sp)
   1f2b6: 26 ec        	sd	s1, 0x18(sp)
   1f2b8: 06 f4        	sd	ra, 0x28(sp)
   1f2ba: 83 b4 01 23  	ld	s1, 0x230(gp)
   1f2be: 83 b7 01 e6  	ld	a5, -0x1a0(gp)
   1f2c2: 32 84        	mv	s0, a2
   1f2c4: 11 cd        	beqz	a0, 0x1f2e0 <wcrtomb+0x2e>
   1f2c6: 2e 86        	mv	a2, a1
   1f2c8: a2 86        	mv	a3, s0
   1f2ca: aa 85        	mv	a1, a0
   1f2cc: 26 85        	mv	a0, s1
   1f2ce: 82 97        	jalr	a5
   1f2d0: fd 57        	li	a5, -0x1
   1f2d2: 63 0f f5 00  	beq	a0, a5, 0x1f2f0 <wcrtomb+0x3e>
   1f2d6: a2 70        	ld	ra, 0x28(sp)
   1f2d8: 02 74        	ld	s0, 0x20(sp)
   1f2da: e2 64        	ld	s1, 0x18(sp)
   1f2dc: 45 61        	addi	sp, sp, 0x30
   1f2de: 82 80        	ret
   1f2e0: b2 86        	mv	a3, a2
   1f2e2: 8a 85        	mv	a1, sp
   1f2e4: 01 46        	li	a2, 0x0
   1f2e6: 26 85        	mv	a0, s1
   1f2e8: 82 97        	jalr	a5
   1f2ea: fd 57        	li	a5, -0x1
   1f2ec: e3 15 f5 fe  	bne	a0, a5, 0x1f2d6 <wcrtomb+0x24>
   1f2f0: 23 20 04 00  	sw	zero, 0x0(s0)
   1f2f4: a2 70        	ld	ra, 0x28(sp)
   1f2f6: 02 74        	ld	s0, 0x20(sp)
   1f2f8: 93 07 a0 08  	li	a5, 0x8a
   1f2fc: 9c c0        	sw	a5, 0x0(s1)
   1f2fe: e2 64        	ld	s1, 0x18(sp)
   1f300: 45 61        	addi	sp, sp, 0x30
   1f302: 82 80        	ret

000000000001f304 <_fiprintf_r>:
   1f304: 5d 71        	addi	sp, sp, -0x50
   1f306: 13 03 81 02  	addi	t1, sp, 0x28
   1f30a: 36 f4        	sd	a3, 0x28(sp)
   1f30c: 9a 86        	mv	a3, t1
   1f30e: 06 ec        	sd	ra, 0x18(sp)
   1f310: 3a f8        	sd	a4, 0x30(sp)
   1f312: 3e fc        	sd	a5, 0x38(sp)
   1f314: c2 e0        	sd	a6, 0x40(sp)
   1f316: c6 e4        	sd	a7, 0x48(sp)
   1f318: 1a e4        	sd	t1, 0x8(sp)
   1f31a: ef c0 9f d1  	jal	0x1c032 <_vfiprintf_r>
   1f31e: e2 60        	ld	ra, 0x18(sp)
   1f320: 61 61        	addi	sp, sp, 0x50
   1f322: 82 80        	ret

000000000001f324 <fiprintf>:
   1f324: 2a 8e        	mv	t3, a0
   1f326: 5d 71        	addi	sp, sp, -0x50
   1f328: 03 b5 01 23  	ld	a0, 0x230(gp)
   1f32c: 13 03 01 02  	addi	t1, sp, 0x20
   1f330: 32 f0        	sd	a2, 0x20(sp)
   1f332: 36 f4        	sd	a3, 0x28(sp)
   1f334: 2e 86        	mv	a2, a1
   1f336: 9a 86        	mv	a3, t1
   1f338: f2 85        	mv	a1, t3
   1f33a: 06 ec        	sd	ra, 0x18(sp)
   1f33c: 3a f8        	sd	a4, 0x30(sp)
   1f33e: 3e fc        	sd	a5, 0x38(sp)
   1f340: c2 e0        	sd	a6, 0x40(sp)
   1f342: c6 e4        	sd	a7, 0x48(sp)
   1f344: 1a e4        	sd	t1, 0x8(sp)
   1f346: ef c0 df ce  	jal	0x1c032 <_vfiprintf_r>
   1f34a: e2 60        	ld	ra, 0x18(sp)
   1f34c: 61 61        	addi	sp, sp, 0x50
   1f34e: 82 80        	ret

000000000001f350 <__swbuf_r>:
   1f350: 79 71        	addi	sp, sp, -0x30
   1f352: 22 f0        	sd	s0, 0x20(sp)
   1f354: 26 ec        	sd	s1, 0x18(sp)
   1f356: 4a e8        	sd	s2, 0x10(sp)
   1f358: 06 f4        	sd	ra, 0x28(sp)
   1f35a: 2a 89        	mv	s2, a0
   1f35c: ae 84        	mv	s1, a1
   1f35e: 32 84        	mv	s0, a2
   1f360: 19 c1        	beqz	a0, 0x1f366 <__swbuf_r+0x16>
   1f362: 3c 65        	ld	a5, 0x48(a0)
   1f364: e5 c7        	beqz	a5, 0x1f44c <__swbuf_r+0xfc>
   1f366: 1c 54        	lw	a5, 0x28(s0)
   1f368: 03 17 04 01  	lh	a4, 0x10(s0)
   1f36c: 5c c4        	sw	a5, 0xc(s0)
   1f36e: 93 77 87 00  	andi	a5, a4, 0x8
   1f372: a9 cb        	beqz	a5, 0x1f3c4 <__swbuf_r+0x74>
   1f374: 1c 6c        	ld	a5, 0x18(s0)
   1f376: b9 c7        	beqz	a5, 0x1f3c4 <__swbuf_r+0x74>
   1f378: 4e e4        	sd	s3, 0x8(sp)
   1f37a: 93 16 27 03  	slli	a3, a4, 0x32
   1f37e: 93 f9 f4 0f  	andi	s3, s1, 0xff
   1f382: ce 84        	mv	s1, s3
   1f384: 63 d0 06 06  	bgez	a3, 0x1f3e4 <__swbuf_r+0x94>
   1f388: 18 60        	ld	a4, 0x0(s0)
   1f38a: 14 50        	lw	a3, 0x20(s0)
   1f38c: bb 07 f7 40  	subw	a5, a4, a5
   1f390: 63 db d7 06  	bge	a5, a3, 0x1f406 <__swbuf_r+0xb6>
   1f394: 54 44        	lw	a3, 0xc(s0)
   1f396: 13 06 17 00  	addi	a2, a4, 0x1
   1f39a: 10 e0        	sd	a2, 0x0(s0)
   1f39c: fd 36        	addiw	a3, a3, -0x1
   1f39e: 54 c4        	sw	a3, 0xc(s0)
   1f3a0: 23 00 37 01  	sb	s3, 0x0(a4)
   1f3a4: 18 50        	lw	a4, 0x20(s0)
   1f3a6: 85 27        	addiw	a5, a5, 0x1
   1f3a8: 63 01 f7 08  	beq	a4, a5, 0x1f42a <__swbuf_r+0xda>
   1f3ac: 83 57 04 01  	lhu	a5, 0x10(s0)
   1f3b0: 85 8b        	andi	a5, a5, 0x1
   1f3b2: c1 e7        	bnez	a5, 0x1f43a <__swbuf_r+0xea>
   1f3b4: a2 69        	ld	s3, 0x8(sp)
   1f3b6: a2 70        	ld	ra, 0x28(sp)
   1f3b8: 02 74        	ld	s0, 0x20(sp)
   1f3ba: 42 69        	ld	s2, 0x10(sp)
   1f3bc: 26 85        	mv	a0, s1
   1f3be: e2 64        	ld	s1, 0x18(sp)
   1f3c0: 45 61        	addi	sp, sp, 0x30
   1f3c2: 82 80        	ret
   1f3c4: a2 85        	mv	a1, s0
   1f3c6: 4a 85        	mv	a0, s2
   1f3c8: ef d0 1f f7  	jal	0x1d338 <__swsetup_r>
   1f3cc: 2d e5        	bnez	a0, 0x1f436 <__swbuf_r+0xe6>
   1f3ce: 03 17 04 01  	lh	a4, 0x10(s0)
   1f3d2: 4e e4        	sd	s3, 0x8(sp)
   1f3d4: 93 f9 f4 0f  	andi	s3, s1, 0xff
   1f3d8: 93 16 27 03  	slli	a3, a4, 0x32
   1f3dc: 1c 6c        	ld	a5, 0x18(s0)
   1f3de: ce 84        	mv	s1, s3
   1f3e0: e3 c4 06 fa  	bltz	a3, 0x1f388 <__swbuf_r+0x38>
   1f3e4: 83 26 c4 0a  	lw	a3, 0xac(s0)
   1f3e8: 79 76        	lui	a2, 0xffffe
   1f3ea: 89 65        	lui	a1, 0x2
   1f3ec: 4d 8f        	or	a4, a4, a1
   1f3ee: 7d 16        	addi	a2, a2, -0x1
   1f3f0: f1 8e        	and	a3, a3, a2
   1f3f2: 23 18 e4 00  	sh	a4, 0x10(s0)
   1f3f6: 18 60        	ld	a4, 0x0(s0)
   1f3f8: 23 26 d4 0a  	sw	a3, 0xac(s0)
   1f3fc: 14 50        	lw	a3, 0x20(s0)
   1f3fe: bb 07 f7 40  	subw	a5, a4, a5
   1f402: e3 c9 d7 f8  	blt	a5, a3, 0x1f394 <__swbuf_r+0x44>
   1f406: a2 85        	mv	a1, s0
   1f408: 4a 85        	mv	a0, s2
   1f40a: ef 70 df cf  	jal	0x17106 <_fflush_r>
   1f40e: 1d e1        	bnez	a0, 0x1f434 <__swbuf_r+0xe4>
   1f410: 18 60        	ld	a4, 0x0(s0)
   1f412: 54 44        	lw	a3, 0xc(s0)
   1f414: 85 47        	li	a5, 0x1
   1f416: 13 06 17 00  	addi	a2, a4, 0x1
   1f41a: fd 36        	addiw	a3, a3, -0x1
   1f41c: 10 e0        	sd	a2, 0x0(s0)
   1f41e: 54 c4        	sw	a3, 0xc(s0)
   1f420: 23 00 37 01  	sb	s3, 0x0(a4)
   1f424: 18 50        	lw	a4, 0x20(s0)
   1f426: e3 13 f7 f8  	bne	a4, a5, 0x1f3ac <__swbuf_r+0x5c>
   1f42a: a2 85        	mv	a1, s0
   1f42c: 4a 85        	mv	a0, s2
   1f42e: ef 70 9f cd  	jal	0x17106 <_fflush_r>
   1f432: 49 d1        	beqz	a0, 0x1f3b4 <__swbuf_r+0x64>
   1f434: a2 69        	ld	s3, 0x8(sp)
   1f436: fd 54        	li	s1, -0x1
   1f438: bd bf        	j	0x1f3b6 <__swbuf_r+0x66>
   1f43a: a9 47        	li	a5, 0xa
   1f43c: e3 9c f4 f6  	bne	s1, a5, 0x1f3b4 <__swbuf_r+0x64>
   1f440: a2 85        	mv	a1, s0
   1f442: 4a 85        	mv	a0, s2
   1f444: ef 70 3f cc  	jal	0x17106 <_fflush_r>
   1f448: 35 d5        	beqz	a0, 0x1f3b4 <__swbuf_r+0x64>
   1f44a: ed b7        	j	0x1f434 <__swbuf_r+0xe4>
   1f44c: ef 80 af 8d  	jal	0x17526 <__sinit>
   1f450: 19 bf        	j	0x1f366 <__swbuf_r+0x16>

000000000001f452 <__swbuf>:
   1f452: aa 87        	mv	a5, a0
   1f454: 03 b5 01 23  	ld	a0, 0x230(gp)
   1f458: 2e 86        	mv	a2, a1
   1f45a: be 85        	mv	a1, a5
   1f45c: 6f f0 5f ef  	j	0x1f350 <__swbuf_r>

000000000001f460 <abort>:
   1f460: 41 11        	addi	sp, sp, -0x10
   1f462: 19 45        	li	a0, 0x6
   1f464: 06 e4        	sd	ra, 0x8(sp)
   1f466: ef 00 c0 19  	jal	0x1f602 <raise>
   1f46a: 05 45        	li	a0, 0x1
   1f46c: ef 00 00 3a  	jal	0x1f80c <_exit>

000000000001f470 <_init_signal_r>:
   1f470: 83 37 05 15  	ld	a5, 0x150(a0)
   1f474: 99 c3        	beqz	a5, 0x1f47a <_init_signal_r+0xa>
   1f476: 01 45        	li	a0, 0x0
   1f478: 82 80        	ret
   1f47a: 41 11        	addi	sp, sp, -0x10
   1f47c: 93 05 00 10  	li	a1, 0x100
   1f480: 22 e0        	sd	s0, 0x0(sp)
   1f482: 06 e4        	sd	ra, 0x8(sp)
   1f484: 2a 84        	mv	s0, a0
   1f486: ef 60 4f a4  	jal	0x156ca <_malloc_r>
   1f48a: 23 38 a4 14  	sd	a0, 0x150(s0)
   1f48e: 09 cd        	beqz	a0, 0x1f4a8 <_init_signal_r+0x38>
   1f490: 93 07 05 10  	addi	a5, a0, 0x100
   1f494: 23 30 05 00  	sd	zero, 0x0(a0)
   1f498: 21 05        	addi	a0, a0, 0x8
   1f49a: e3 1d f5 fe  	bne	a0, a5, 0x1f494 <_init_signal_r+0x24>
   1f49e: 01 45        	li	a0, 0x0
   1f4a0: a2 60        	ld	ra, 0x8(sp)
   1f4a2: 02 64        	ld	s0, 0x0(sp)
   1f4a4: 41 01        	addi	sp, sp, 0x10
   1f4a6: 82 80        	ret
   1f4a8: 7d 55        	li	a0, -0x1
   1f4aa: dd bf        	j	0x1f4a0 <_init_signal_r+0x30>

000000000001f4ac <_signal_r>:
   1f4ac: 79 71        	addi	sp, sp, -0x30
   1f4ae: 26 ec        	sd	s1, 0x18(sp)
   1f4b0: 06 f4        	sd	ra, 0x28(sp)
   1f4b2: fd 47        	li	a5, 0x1f
   1f4b4: aa 84        	mv	s1, a0
   1f4b6: 63 e0 b7 02  	bltu	a5, a1, 0x1f4d6 <_signal_r+0x2a>
   1f4ba: 83 37 05 15  	ld	a5, 0x150(a0)
   1f4be: 22 f0        	sd	s0, 0x20(sp)
   1f4c0: 2e 84        	mv	s0, a1
   1f4c2: 91 cf        	beqz	a5, 0x1f4de <_signal_r+0x32>
   1f4c4: 0e 04        	slli	s0, s0, 0x3
   1f4c6: a2 97        	add	a5, a5, s0
   1f4c8: 02 74        	ld	s0, 0x20(sp)
   1f4ca: 88 63        	ld	a0, 0x0(a5)
   1f4cc: 90 e3        	sd	a2, 0x0(a5)
   1f4ce: a2 70        	ld	ra, 0x28(sp)
   1f4d0: e2 64        	ld	s1, 0x18(sp)
   1f4d2: 45 61        	addi	sp, sp, 0x30
   1f4d4: 82 80        	ret
   1f4d6: d9 47        	li	a5, 0x16
   1f4d8: 1c c1        	sw	a5, 0x0(a0)
   1f4da: 7d 55        	li	a0, -0x1
   1f4dc: cd bf        	j	0x1f4ce <_signal_r+0x22>
   1f4de: 93 05 00 10  	li	a1, 0x100
   1f4e2: 32 e4        	sd	a2, 0x8(sp)
   1f4e4: ef 60 6f 9e  	jal	0x156ca <_malloc_r>
   1f4e8: 23 b8 a4 14  	sd	a0, 0x150(s1)
   1f4ec: 22 66        	ld	a2, 0x8(sp)
   1f4ee: aa 87        	mv	a5, a0
   1f4f0: 2a 87        	mv	a4, a0
   1f4f2: 93 06 05 10  	addi	a3, a0, 0x100
   1f4f6: 19 c5        	beqz	a0, 0x1f504 <_signal_r+0x58>
   1f4f8: 23 30 07 00  	sd	zero, 0x0(a4)
   1f4fc: 21 07        	addi	a4, a4, 0x8
   1f4fe: e3 1d d7 fe  	bne	a4, a3, 0x1f4f8 <_signal_r+0x4c>
   1f502: c9 b7        	j	0x1f4c4 <_signal_r+0x18>
   1f504: 02 74        	ld	s0, 0x20(sp)
   1f506: 7d 55        	li	a0, -0x1
   1f508: d9 b7        	j	0x1f4ce <_signal_r+0x22>

000000000001f50a <_raise_r>:
   1f50a: 01 11        	addi	sp, sp, -0x20
   1f50c: 26 e4        	sd	s1, 0x8(sp)
   1f50e: 06 ec        	sd	ra, 0x18(sp)
   1f510: fd 47        	li	a5, 0x1f
   1f512: aa 84        	mv	s1, a0
   1f514: 63 ef b7 04  	bltu	a5, a1, 0x1f572 <_raise_r+0x68>
   1f518: 83 37 05 15  	ld	a5, 0x150(a0)
   1f51c: 22 e8        	sd	s0, 0x10(sp)
   1f51e: 2e 84        	mv	s0, a1
   1f520: 95 c7        	beqz	a5, 0x1f54c <_raise_r+0x42>
   1f522: 13 97 35 00  	slli	a4, a1, 0x3
   1f526: ba 97        	add	a5, a5, a4
   1f528: 98 63        	ld	a4, 0x0(a5)
   1f52a: 0d c3        	beqz	a4, 0x1f54c <_raise_r+0x42>
   1f52c: 85 46        	li	a3, 0x1
   1f52e: 63 09 d7 00  	beq	a4, a3, 0x1f540 <_raise_r+0x36>
   1f532: fd 56        	li	a3, -0x1
   1f534: 63 07 d7 02  	beq	a4, a3, 0x1f562 <_raise_r+0x58>
   1f538: 23 b0 07 00  	sd	zero, 0x0(a5)
   1f53c: 2e 85        	mv	a0, a1
   1f53e: 02 97        	jalr	a4
   1f540: 42 64        	ld	s0, 0x10(sp)
   1f542: 01 45        	li	a0, 0x0
   1f544: e2 60        	ld	ra, 0x18(sp)
   1f546: a2 64        	ld	s1, 0x8(sp)
   1f548: 05 61        	addi	sp, sp, 0x20
   1f54a: 82 80        	ret
   1f54c: 26 85        	mv	a0, s1
   1f54e: ef 00 00 29  	jal	0x1f7de <_getpid_r>
   1f552: 22 86        	mv	a2, s0
   1f554: 42 64        	ld	s0, 0x10(sp)
   1f556: e2 60        	ld	ra, 0x18(sp)
   1f558: aa 85        	mv	a1, a0
   1f55a: 26 85        	mv	a0, s1
   1f55c: a2 64        	ld	s1, 0x8(sp)
   1f55e: 05 61        	addi	sp, sp, 0x20
   1f560: 91 a4        	j	0x1f7a4 <_kill_r>
   1f562: 42 64        	ld	s0, 0x10(sp)
   1f564: e2 60        	ld	ra, 0x18(sp)
   1f566: d9 47        	li	a5, 0x16
   1f568: 1c c1        	sw	a5, 0x0(a0)
   1f56a: a2 64        	ld	s1, 0x8(sp)
   1f56c: 05 45        	li	a0, 0x1
   1f56e: 05 61        	addi	sp, sp, 0x20
   1f570: 82 80        	ret
   1f572: d9 47        	li	a5, 0x16
   1f574: 1c c1        	sw	a5, 0x0(a0)
   1f576: 7d 55        	li	a0, -0x1
   1f578: f1 b7        	j	0x1f544 <_raise_r+0x3a>

000000000001f57a <__sigtramp_r>:
   1f57a: fd 47        	li	a5, 0x1f
   1f57c: 63 e1 b7 08  	bltu	a5, a1, 0x1f5fe <__sigtramp_r+0x84>
   1f580: 83 37 05 15  	ld	a5, 0x150(a0)
   1f584: 01 11        	addi	sp, sp, -0x20
   1f586: 22 e8        	sd	s0, 0x10(sp)
   1f588: 26 e4        	sd	s1, 0x8(sp)
   1f58a: 06 ec        	sd	ra, 0x18(sp)
   1f58c: 2e 84        	mv	s0, a1
   1f58e: aa 84        	mv	s1, a0
   1f590: a1 c7        	beqz	a5, 0x1f5d8 <__sigtramp_r+0x5e>
   1f592: 13 17 34 00  	slli	a4, s0, 0x3
   1f596: ba 97        	add	a5, a5, a4
   1f598: 98 63        	ld	a4, 0x0(a5)
   1f59a: 0d c3        	beqz	a4, 0x1f5bc <__sigtramp_r+0x42>
   1f59c: fd 56        	li	a3, -0x1
   1f59e: 63 0b d7 02  	beq	a4, a3, 0x1f5d4 <__sigtramp_r+0x5a>
   1f5a2: 85 46        	li	a3, 0x1
   1f5a4: 63 02 d7 02  	beq	a4, a3, 0x1f5c8 <__sigtramp_r+0x4e>
   1f5a8: 22 85        	mv	a0, s0
   1f5aa: 23 b0 07 00  	sd	zero, 0x0(a5)
   1f5ae: 02 97        	jalr	a4
   1f5b0: 01 45        	li	a0, 0x0
   1f5b2: e2 60        	ld	ra, 0x18(sp)
   1f5b4: 42 64        	ld	s0, 0x10(sp)
   1f5b6: a2 64        	ld	s1, 0x8(sp)
   1f5b8: 05 61        	addi	sp, sp, 0x20
   1f5ba: 82 80        	ret
   1f5bc: e2 60        	ld	ra, 0x18(sp)
   1f5be: 42 64        	ld	s0, 0x10(sp)
   1f5c0: a2 64        	ld	s1, 0x8(sp)
   1f5c2: 05 45        	li	a0, 0x1
   1f5c4: 05 61        	addi	sp, sp, 0x20
   1f5c6: 82 80        	ret
   1f5c8: e2 60        	ld	ra, 0x18(sp)
   1f5ca: 42 64        	ld	s0, 0x10(sp)
   1f5cc: a2 64        	ld	s1, 0x8(sp)
   1f5ce: 0d 45        	li	a0, 0x3
   1f5d0: 05 61        	addi	sp, sp, 0x20
   1f5d2: 82 80        	ret
   1f5d4: 09 45        	li	a0, 0x2
   1f5d6: f1 bf        	j	0x1f5b2 <__sigtramp_r+0x38>
   1f5d8: 93 05 00 10  	li	a1, 0x100
   1f5dc: ef 60 ef 8e  	jal	0x156ca <_malloc_r>
   1f5e0: 23 b8 a4 14  	sd	a0, 0x150(s1)
   1f5e4: aa 87        	mv	a5, a0
   1f5e6: 11 c9        	beqz	a0, 0x1f5fa <__sigtramp_r+0x80>
   1f5e8: 2a 87        	mv	a4, a0
   1f5ea: 93 06 05 10  	addi	a3, a0, 0x100
   1f5ee: 23 30 07 00  	sd	zero, 0x0(a4)
   1f5f2: 21 07        	addi	a4, a4, 0x8
   1f5f4: e3 1d d7 fe  	bne	a4, a3, 0x1f5ee <__sigtramp_r+0x74>
   1f5f8: 69 bf        	j	0x1f592 <__sigtramp_r+0x18>
   1f5fa: 7d 55        	li	a0, -0x1
   1f5fc: 5d bf        	j	0x1f5b2 <__sigtramp_r+0x38>
   1f5fe: 7d 55        	li	a0, -0x1
   1f600: 82 80        	ret

000000000001f602 <raise>:
   1f602: 01 11        	addi	sp, sp, -0x20
   1f604: 26 e4        	sd	s1, 0x8(sp)
   1f606: 06 ec        	sd	ra, 0x18(sp)
   1f608: fd 47        	li	a5, 0x1f
   1f60a: 83 b4 01 23  	ld	s1, 0x230(gp)
   1f60e: 63 ee a7 04  	bltu	a5, a0, 0x1f66a <raise+0x68>
   1f612: 83 b7 04 15  	ld	a5, 0x150(s1)
   1f616: 22 e8        	sd	s0, 0x10(sp)
   1f618: 2a 84        	mv	s0, a0
   1f61a: 8d c7        	beqz	a5, 0x1f644 <raise+0x42>
   1f61c: 13 17 35 00  	slli	a4, a0, 0x3
   1f620: ba 97        	add	a5, a5, a4
   1f622: 98 63        	ld	a4, 0x0(a5)
   1f624: 05 c3        	beqz	a4, 0x1f644 <raise+0x42>
   1f626: 85 46        	li	a3, 0x1
   1f628: 63 08 d7 00  	beq	a4, a3, 0x1f638 <raise+0x36>
   1f62c: fd 56        	li	a3, -0x1
   1f62e: 63 06 d7 02  	beq	a4, a3, 0x1f65a <raise+0x58>
   1f632: 23 b0 07 00  	sd	zero, 0x0(a5)
   1f636: 02 97        	jalr	a4
   1f638: 42 64        	ld	s0, 0x10(sp)
   1f63a: 01 45        	li	a0, 0x0
   1f63c: e2 60        	ld	ra, 0x18(sp)
   1f63e: a2 64        	ld	s1, 0x8(sp)
   1f640: 05 61        	addi	sp, sp, 0x20
   1f642: 82 80        	ret
   1f644: 26 85        	mv	a0, s1
   1f646: ef 00 80 19  	jal	0x1f7de <_getpid_r>
   1f64a: 22 86        	mv	a2, s0
   1f64c: 42 64        	ld	s0, 0x10(sp)
   1f64e: e2 60        	ld	ra, 0x18(sp)
   1f650: aa 85        	mv	a1, a0
   1f652: 26 85        	mv	a0, s1
   1f654: a2 64        	ld	s1, 0x8(sp)
   1f656: 05 61        	addi	sp, sp, 0x20
   1f658: b1 a2        	j	0x1f7a4 <_kill_r>
   1f65a: 42 64        	ld	s0, 0x10(sp)
   1f65c: e2 60        	ld	ra, 0x18(sp)
   1f65e: d9 47        	li	a5, 0x16
   1f660: 9c c0        	sw	a5, 0x0(s1)
   1f662: 05 45        	li	a0, 0x1
   1f664: a2 64        	ld	s1, 0x8(sp)
   1f666: 05 61        	addi	sp, sp, 0x20
   1f668: 82 80        	ret
   1f66a: d9 47        	li	a5, 0x16
   1f66c: 9c c0        	sw	a5, 0x0(s1)
   1f66e: 7d 55        	li	a0, -0x1
   1f670: f1 b7        	j	0x1f63c <raise+0x3a>

000000000001f672 <signal>:
   1f672: 01 11        	addi	sp, sp, -0x20
   1f674: 4a e0        	sd	s2, 0x0(sp)
   1f676: 06 ec        	sd	ra, 0x18(sp)
   1f678: fd 47        	li	a5, 0x1f
   1f67a: 03 b9 01 23  	ld	s2, 0x230(gp)
   1f67e: 63 e4 a7 02  	bltu	a5, a0, 0x1f6a6 <signal+0x34>
   1f682: 22 e8        	sd	s0, 0x10(sp)
   1f684: 2a 84        	mv	s0, a0
   1f686: 03 35 09 15  	ld	a0, 0x150(s2)
   1f68a: 26 e4        	sd	s1, 0x8(sp)
   1f68c: ae 84        	mv	s1, a1
   1f68e: 0d c1        	beqz	a0, 0x1f6b0 <signal+0x3e>
   1f690: 0e 04        	slli	s0, s0, 0x3
   1f692: b3 07 85 00  	add	a5, a0, s0
   1f696: 88 63        	ld	a0, 0x0(a5)
   1f698: 42 64        	ld	s0, 0x10(sp)
   1f69a: 84 e3        	sd	s1, 0x0(a5)
   1f69c: a2 64        	ld	s1, 0x8(sp)
   1f69e: e2 60        	ld	ra, 0x18(sp)
   1f6a0: 02 69        	ld	s2, 0x0(sp)
   1f6a2: 05 61        	addi	sp, sp, 0x20
   1f6a4: 82 80        	ret
   1f6a6: d9 47        	li	a5, 0x16
   1f6a8: 23 20 f9 00  	sw	a5, 0x0(s2)
   1f6ac: 7d 55        	li	a0, -0x1
   1f6ae: c5 bf        	j	0x1f69e <signal+0x2c>
   1f6b0: 93 05 00 10  	li	a1, 0x100
   1f6b4: 4a 85        	mv	a0, s2
   1f6b6: ef 60 4f 81  	jal	0x156ca <_malloc_r>
   1f6ba: 23 38 a9 14  	sd	a0, 0x150(s2)
   1f6be: aa 87        	mv	a5, a0
   1f6c0: 13 07 05 10  	addi	a4, a0, 0x100
   1f6c4: 19 c5        	beqz	a0, 0x1f6d2 <signal+0x60>
   1f6c6: 23 b0 07 00  	sd	zero, 0x0(a5)
   1f6ca: a1 07        	addi	a5, a5, 0x8
   1f6cc: e3 1d f7 fe  	bne	a4, a5, 0x1f6c6 <signal+0x54>
   1f6d0: c1 b7        	j	0x1f690 <signal+0x1e>
   1f6d2: 42 64        	ld	s0, 0x10(sp)
   1f6d4: a2 64        	ld	s1, 0x8(sp)
   1f6d6: 7d 55        	li	a0, -0x1
   1f6d8: d9 b7        	j	0x1f69e <signal+0x2c>

000000000001f6da <_init_signal>:
   1f6da: 41 11        	addi	sp, sp, -0x10
   1f6dc: 22 e0        	sd	s0, 0x0(sp)
   1f6de: 03 b4 01 23  	ld	s0, 0x230(gp)
   1f6e2: 06 e4        	sd	ra, 0x8(sp)
   1f6e4: 83 37 04 15  	ld	a5, 0x150(s0)
   1f6e8: 91 c7        	beqz	a5, 0x1f6f4 <_init_signal+0x1a>
   1f6ea: 01 45        	li	a0, 0x0
   1f6ec: a2 60        	ld	ra, 0x8(sp)
   1f6ee: 02 64        	ld	s0, 0x0(sp)
   1f6f0: 41 01        	addi	sp, sp, 0x10
   1f6f2: 82 80        	ret
   1f6f4: 93 05 00 10  	li	a1, 0x100
   1f6f8: 22 85        	mv	a0, s0
   1f6fa: ef 50 1f fd  	jal	0x156ca <_malloc_r>
   1f6fe: 23 38 a4 14  	sd	a0, 0x150(s0)
   1f702: 09 c9        	beqz	a0, 0x1f714 <_init_signal+0x3a>
   1f704: 93 07 05 10  	addi	a5, a0, 0x100
   1f708: 23 30 05 00  	sd	zero, 0x0(a0)
   1f70c: 21 05        	addi	a0, a0, 0x8
   1f70e: e3 1d f5 fe  	bne	a0, a5, 0x1f708 <_init_signal+0x2e>
   1f712: e1 bf        	j	0x1f6ea <_init_signal+0x10>
   1f714: 7d 55        	li	a0, -0x1
   1f716: d9 bf        	j	0x1f6ec <_init_signal+0x12>

000000000001f718 <__sigtramp>:
   1f718: 01 11        	addi	sp, sp, -0x20
   1f71a: 26 e4        	sd	s1, 0x8(sp)
   1f71c: 06 ec        	sd	ra, 0x18(sp)
   1f71e: fd 47        	li	a5, 0x1f
   1f720: 83 b4 01 23  	ld	s1, 0x230(gp)
   1f724: 63 ee a7 06  	bltu	a5, a0, 0x1f7a0 <__sigtramp+0x88>
   1f728: 83 b7 04 15  	ld	a5, 0x150(s1)
   1f72c: 22 e8        	sd	s0, 0x10(sp)
   1f72e: 2a 84        	mv	s0, a0
   1f730: a9 c7        	beqz	a5, 0x1f77a <__sigtramp+0x62>
   1f732: 13 17 34 00  	slli	a4, s0, 0x3
   1f736: ba 97        	add	a5, a5, a4
   1f738: 98 63        	ld	a4, 0x0(a5)
   1f73a: 0d c3        	beqz	a4, 0x1f75c <__sigtramp+0x44>
   1f73c: fd 56        	li	a3, -0x1
   1f73e: 63 0b d7 02  	beq	a4, a3, 0x1f774 <__sigtramp+0x5c>
   1f742: 85 46        	li	a3, 0x1
   1f744: 63 02 d7 02  	beq	a4, a3, 0x1f768 <__sigtramp+0x50>
   1f748: 22 85        	mv	a0, s0
   1f74a: 23 b0 07 00  	sd	zero, 0x0(a5)
   1f74e: 02 97        	jalr	a4
   1f750: 42 64        	ld	s0, 0x10(sp)
   1f752: 01 45        	li	a0, 0x0
   1f754: e2 60        	ld	ra, 0x18(sp)
   1f756: a2 64        	ld	s1, 0x8(sp)
   1f758: 05 61        	addi	sp, sp, 0x20
   1f75a: 82 80        	ret
   1f75c: 42 64        	ld	s0, 0x10(sp)
   1f75e: e2 60        	ld	ra, 0x18(sp)
   1f760: a2 64        	ld	s1, 0x8(sp)
   1f762: 05 45        	li	a0, 0x1
   1f764: 05 61        	addi	sp, sp, 0x20
   1f766: 82 80        	ret
   1f768: 42 64        	ld	s0, 0x10(sp)
   1f76a: e2 60        	ld	ra, 0x18(sp)
   1f76c: a2 64        	ld	s1, 0x8(sp)
   1f76e: 0d 45        	li	a0, 0x3
   1f770: 05 61        	addi	sp, sp, 0x20
   1f772: 82 80        	ret
   1f774: 42 64        	ld	s0, 0x10(sp)
   1f776: 09 45        	li	a0, 0x2
   1f778: f1 bf        	j	0x1f754 <__sigtramp+0x3c>
   1f77a: 93 05 00 10  	li	a1, 0x100
   1f77e: 26 85        	mv	a0, s1
   1f780: ef 50 bf f4  	jal	0x156ca <_malloc_r>
   1f784: 23 b8 a4 14  	sd	a0, 0x150(s1)
   1f788: aa 87        	mv	a5, a0
   1f78a: 11 c9        	beqz	a0, 0x1f79e <__sigtramp+0x86>
   1f78c: 2a 87        	mv	a4, a0
   1f78e: 93 06 05 10  	addi	a3, a0, 0x100
   1f792: 23 30 07 00  	sd	zero, 0x0(a4)
   1f796: 21 07        	addi	a4, a4, 0x8
   1f798: e3 9d e6 fe  	bne	a3, a4, 0x1f792 <__sigtramp+0x7a>
   1f79c: 59 bf        	j	0x1f732 <__sigtramp+0x1a>
   1f79e: 42 64        	ld	s0, 0x10(sp)
   1f7a0: 7d 55        	li	a0, -0x1
   1f7a2: 4d bf        	j	0x1f754 <__sigtramp+0x3c>

000000000001f7a4 <_kill_r>:
   1f7a4: 01 11        	addi	sp, sp, -0x20
   1f7a6: 2e 87        	mv	a4, a1
   1f7a8: 22 e8        	sd	s0, 0x10(sp)
   1f7aa: 26 e4        	sd	s1, 0x8(sp)
   1f7ac: 2a 84        	mv	s0, a0
   1f7ae: b2 85        	mv	a1, a2
   1f7b0: 3a 85        	mv	a0, a4
   1f7b2: 06 ec        	sd	ra, 0x18(sp)
   1f7b4: 23 a0 01 26  	sw	zero, 0x260(gp)
   1f7b8: ef 00 00 0e  	jal	0x1f898 <_kill>
   1f7bc: fd 57        	li	a5, -0x1
   1f7be: 63 07 f5 00  	beq	a0, a5, 0x1f7cc <_kill_r+0x28>
   1f7c2: e2 60        	ld	ra, 0x18(sp)
   1f7c4: 42 64        	ld	s0, 0x10(sp)
   1f7c6: a2 64        	ld	s1, 0x8(sp)
   1f7c8: 05 61        	addi	sp, sp, 0x20
   1f7ca: 82 80        	ret
   1f7cc: 83 a7 01 26  	lw	a5, 0x260(gp)
   1f7d0: ed db        	beqz	a5, 0x1f7c2 <_kill_r+0x1e>
   1f7d2: e2 60        	ld	ra, 0x18(sp)
   1f7d4: 1c c0        	sw	a5, 0x0(s0)
   1f7d6: 42 64        	ld	s0, 0x10(sp)
   1f7d8: a2 64        	ld	s1, 0x8(sp)
   1f7da: 05 61        	addi	sp, sp, 0x20
   1f7dc: 82 80        	ret

000000000001f7de <_getpid_r>:
   1f7de: 41 a8        	j	0x1f86e <_getpid>

000000000001f7e0 <_close>:
   1f7e0: 41 11        	addi	sp, sp, -0x10
   1f7e2: 06 e4        	sd	ra, 0x8(sp)
   1f7e4: 22 e0        	sd	s0, 0x0(sp)
   1f7e6: 93 08 90 03  	li	a7, 0x39
   1f7ea: 73 00 00 00  	ecall
   1f7ee: 2a 84        	mv	s0, a0
   1f7f0: 63 47 05 00  	bltz	a0, 0x1f7fe <_close+0x1e>
   1f7f4: 01 25        	sext.w	a0, a0
   1f7f6: a2 60        	ld	ra, 0x8(sp)
   1f7f8: 02 64        	ld	s0, 0x0(sp)
   1f7fa: 41 01        	addi	sp, sp, 0x10
   1f7fc: 82 80        	ret
   1f7fe: ef 80 1f d4  	jal	0x1853e <__errno>
   1f802: 3b 04 80 40  	negw	s0, s0
   1f806: 00 c1        	sw	s0, 0x0(a0)
   1f808: 7d 55        	li	a0, -0x1
   1f80a: f5 b7        	j	0x1f7f6 <_close+0x16>

000000000001f80c <_exit>:
   1f80c: 93 08 d0 05  	li	a7, 0x5d
   1f810: 73 00 00 00  	ecall
   1f814: 63 43 05 00  	bltz	a0, 0x1f81a <_exit+0xe>
   1f818: 01 a0        	j	0x1f818 <_exit+0xc>
   1f81a: 41 11        	addi	sp, sp, -0x10
   1f81c: 22 e0        	sd	s0, 0x0(sp)
   1f81e: 2a 84        	mv	s0, a0
   1f820: 06 e4        	sd	ra, 0x8(sp)
   1f822: 3b 04 80 40  	negw	s0, s0
   1f826: ef 80 9f d1  	jal	0x1853e <__errno>
   1f82a: 00 c1        	sw	s0, 0x0(a0)
   1f82c: 01 a0        	j	0x1f82c <_exit+0x20>

000000000001f82e <_fstat>:
   1f82e: 35 71        	addi	sp, sp, -0xa0
   1f830: 26 e5        	sd	s1, 0x88(sp)
   1f832: 06 ed        	sd	ra, 0x98(sp)
   1f834: ae 84        	mv	s1, a1
   1f836: 22 e9        	sd	s0, 0x90(sp)
   1f838: 93 08 00 05  	li	a7, 0x50
   1f83c: 8a 85        	mv	a1, sp
   1f83e: 73 00 00 00  	ecall
   1f842: 2a 84        	mv	s0, a0
   1f844: 63 4e 05 00  	bltz	a0, 0x1f860 <_fstat+0x32>
   1f848: 1b 04 05 00  	sext.w	s0, a0
   1f84c: 26 85        	mv	a0, s1
   1f84e: 8a 85        	mv	a1, sp
   1f850: ef 00 00 16  	jal	0x1f9b0 <_conv_stat>
   1f854: ea 60        	ld	ra, 0x98(sp)
   1f856: 22 85        	mv	a0, s0
   1f858: 4a 64        	ld	s0, 0x90(sp)
   1f85a: aa 64        	ld	s1, 0x88(sp)
   1f85c: 0d 61        	addi	sp, sp, 0xa0
   1f85e: 82 80        	ret
   1f860: 3b 04 80 40  	negw	s0, s0
   1f864: ef 80 bf cd  	jal	0x1853e <__errno>
   1f868: 00 c1        	sw	s0, 0x0(a0)
   1f86a: 7d 54        	li	s0, -0x1
   1f86c: c5 b7        	j	0x1f84c <_fstat+0x1e>

000000000001f86e <_getpid>:
   1f86e: 05 45        	li	a0, 0x1
   1f870: 82 80        	ret

000000000001f872 <_isatty>:
   1f872: 19 71        	addi	sp, sp, -0x80
   1f874: 2c 00        	addi	a1, sp, 0x8
   1f876: 86 fc        	sd	ra, 0x78(sp)
   1f878: ef f0 7f fb  	jal	0x1f82e <_fstat>
   1f87c: fd 57        	li	a5, -0x1
   1f87e: 63 09 f5 00  	beq	a0, a5, 0x1f890 <_isatty+0x1e>
   1f882: 32 45        	lw	a0, 0xc(sp)
   1f884: e6 70        	ld	ra, 0x78(sp)
   1f886: 1b 55 d5 40  	sraiw	a0, a0, 0xd
   1f88a: 05 89        	andi	a0, a0, 0x1
   1f88c: 09 61        	addi	sp, sp, 0x80
   1f88e: 82 80        	ret
   1f890: e6 70        	ld	ra, 0x78(sp)
   1f892: 01 45        	li	a0, 0x0
   1f894: 09 61        	addi	sp, sp, 0x80
   1f896: 82 80        	ret

000000000001f898 <_kill>:
   1f898: 41 11        	addi	sp, sp, -0x10
   1f89a: 06 e4        	sd	ra, 0x8(sp)
   1f89c: ef 80 3f ca  	jal	0x1853e <__errno>
   1f8a0: a2 60        	ld	ra, 0x8(sp)
   1f8a2: d9 47        	li	a5, 0x16
   1f8a4: 1c c1        	sw	a5, 0x0(a0)
   1f8a6: 7d 55        	li	a0, -0x1
   1f8a8: 41 01        	addi	sp, sp, 0x10
   1f8aa: 82 80        	ret

000000000001f8ac <_lseek>:
   1f8ac: 41 11        	addi	sp, sp, -0x10
   1f8ae: 06 e4        	sd	ra, 0x8(sp)
   1f8b0: 22 e0        	sd	s0, 0x0(sp)
   1f8b2: 93 08 e0 03  	li	a7, 0x3e
   1f8b6: 73 00 00 00  	ecall
   1f8ba: 2a 84        	mv	s0, a0
   1f8bc: 63 47 05 00  	bltz	a0, 0x1f8ca <_lseek+0x1e>
   1f8c0: a2 60        	ld	ra, 0x8(sp)
   1f8c2: 22 85        	mv	a0, s0
   1f8c4: 02 64        	ld	s0, 0x0(sp)
   1f8c6: 41 01        	addi	sp, sp, 0x10
   1f8c8: 82 80        	ret
   1f8ca: 3b 04 80 40  	negw	s0, s0
   1f8ce: ef 80 1f c7  	jal	0x1853e <__errno>
   1f8d2: 00 c1        	sw	s0, 0x0(a0)
   1f8d4: 7d 54        	li	s0, -0x1
   1f8d6: ed b7        	j	0x1f8c0 <_lseek+0x14>

000000000001f8d8 <_open>:
   1f8d8: 41 11        	addi	sp, sp, -0x10
   1f8da: 06 e4        	sd	ra, 0x8(sp)
   1f8dc: 22 e0        	sd	s0, 0x0(sp)
   1f8de: 93 08 00 40  	li	a7, 0x400
   1f8e2: 73 00 00 00  	ecall
   1f8e6: 2a 84        	mv	s0, a0
   1f8e8: 63 47 05 00  	bltz	a0, 0x1f8f6 <_open+0x1e>
   1f8ec: 01 25        	sext.w	a0, a0
   1f8ee: a2 60        	ld	ra, 0x8(sp)
   1f8f0: 02 64        	ld	s0, 0x0(sp)
   1f8f2: 41 01        	addi	sp, sp, 0x10
   1f8f4: 82 80        	ret
   1f8f6: ef 80 9f c4  	jal	0x1853e <__errno>
   1f8fa: 3b 04 80 40  	negw	s0, s0
   1f8fe: 00 c1        	sw	s0, 0x0(a0)
   1f900: 7d 55        	li	a0, -0x1
   1f902: f5 b7        	j	0x1f8ee <_open+0x16>

000000000001f904 <_read>:
   1f904: 41 11        	addi	sp, sp, -0x10
   1f906: 06 e4        	sd	ra, 0x8(sp)
   1f908: 22 e0        	sd	s0, 0x0(sp)
   1f90a: 93 08 f0 03  	li	a7, 0x3f
   1f90e: 73 00 00 00  	ecall
   1f912: 2a 84        	mv	s0, a0
   1f914: 63 47 05 00  	bltz	a0, 0x1f922 <_read+0x1e>
   1f918: a2 60        	ld	ra, 0x8(sp)
   1f91a: 22 85        	mv	a0, s0
   1f91c: 02 64        	ld	s0, 0x0(sp)
   1f91e: 41 01        	addi	sp, sp, 0x10
   1f920: 82 80        	ret
   1f922: 3b 04 80 40  	negw	s0, s0
   1f926: ef 80 9f c1  	jal	0x1853e <__errno>
   1f92a: 00 c1        	sw	s0, 0x0(a0)
   1f92c: 7d 54        	li	s0, -0x1
   1f92e: ed b7        	j	0x1f918 <_read+0x14>

000000000001f930 <_sbrk>:
   1f930: 03 b7 01 27  	ld	a4, 0x270(gp)
   1f934: 41 11        	addi	sp, sp, -0x10
   1f936: 06 e4        	sd	ra, 0x8(sp)
   1f938: aa 87        	mv	a5, a0
   1f93a: 01 ef        	bnez	a4, 0x1f952 <_sbrk+0x22>
   1f93c: 93 08 60 0d  	li	a7, 0xd6
   1f940: 01 45        	li	a0, 0x0
   1f942: 73 00 00 00  	ecall
   1f946: 7d 56        	li	a2, -0x1
   1f948: 2a 87        	mv	a4, a0
   1f94a: 63 05 c5 02  	beq	a0, a2, 0x1f974 <_sbrk+0x44>
   1f94e: 23 b8 a1 26  	sd	a0, 0x270(gp)
   1f952: 93 08 60 0d  	li	a7, 0xd6
   1f956: 33 85 e7 00  	add	a0, a5, a4
   1f95a: 73 00 00 00  	ecall
   1f95e: 03 b7 01 27  	ld	a4, 0x270(gp)
   1f962: ba 97        	add	a5, a5, a4
   1f964: 63 18 f5 00  	bne	a0, a5, 0x1f974 <_sbrk+0x44>
   1f968: a2 60        	ld	ra, 0x8(sp)
   1f96a: 23 b8 a1 26  	sd	a0, 0x270(gp)
   1f96e: 3a 85        	mv	a0, a4
   1f970: 41 01        	addi	sp, sp, 0x10
   1f972: 82 80        	ret
   1f974: ef 80 bf bc  	jal	0x1853e <__errno>
   1f978: a2 60        	ld	ra, 0x8(sp)
   1f97a: b1 47        	li	a5, 0xc
   1f97c: 1c c1        	sw	a5, 0x0(a0)
   1f97e: 7d 55        	li	a0, -0x1
   1f980: 41 01        	addi	sp, sp, 0x10
   1f982: 82 80        	ret

000000000001f984 <_write>:
   1f984: 41 11        	addi	sp, sp, -0x10
   1f986: 06 e4        	sd	ra, 0x8(sp)
   1f988: 22 e0        	sd	s0, 0x0(sp)
   1f98a: 93 08 00 04  	li	a7, 0x40
   1f98e: 73 00 00 00  	ecall
   1f992: 2a 84        	mv	s0, a0
   1f994: 63 47 05 00  	bltz	a0, 0x1f9a2 <_write+0x1e>
   1f998: a2 60        	ld	ra, 0x8(sp)
   1f99a: 22 85        	mv	a0, s0
   1f99c: 02 64        	ld	s0, 0x0(sp)
   1f99e: 41 01        	addi	sp, sp, 0x10
   1f9a0: 82 80        	ret
   1f9a2: 3b 04 80 40  	negw	s0, s0
   1f9a6: ef 80 9f b9  	jal	0x1853e <__errno>
   1f9aa: 00 c1        	sw	s0, 0x0(a0)
   1f9ac: 7d 54        	li	s0, -0x1
   1f9ae: ed b7        	j	0x1f998 <_write+0x14>

000000000001f9b0 <_conv_stat>:
   1f9b0: 03 d7 85 01  	lhu	a4, 0x18(a1)
   1f9b4: 83 d7 45 01  	lhu	a5, 0x14(a1)
   1f9b8: d0 4d        	lw	a2, 0x1c(a1)
   1f9ba: 94 71        	ld	a3, 0x20(a1)
   1f9bc: 03 b3 05 00  	ld	t1, 0x0(a1)
   1f9c0: 83 b8 85 00  	ld	a7, 0x8(a1)
   1f9c4: 03 a8 05 01  	lw	a6, 0x10(a1)
   1f9c8: 1b 17 07 01  	slliw	a4, a4, 0x10
   1f9cc: d9 8f        	or	a5, a5, a4
   1f9ce: 23 16 c5 00  	sh	a2, 0xc(a0)
   1f9d2: 23 17 d5 00  	sh	a3, 0xe(a0)
   1f9d6: 23 10 65 00  	sh	t1, 0x0(a0)
   1f9da: 23 11 15 01  	sh	a7, 0x2(a0)
   1f9de: 23 22 05 01  	sw	a6, 0x4(a0)
   1f9e2: 1c c5        	sw	a5, 0x8(a0)
   1f9e4: 98 79        	ld	a4, 0x30(a1)
   1f9e6: bc 65        	ld	a5, 0x48(a1)
   1f9e8: b0 61        	ld	a2, 0x40(a1)
   1f9ea: 94 5d        	lw	a3, 0x38(a1)
   1f9ec: 18 e9        	sd	a4, 0x10(a0)
   1f9ee: 1c ed        	sd	a5, 0x18(a0)
   1f9f0: b8 6d        	ld	a4, 0x58(a1)
   1f9f2: bc 75        	ld	a5, 0x68(a1)
   1f9f4: 30 e9        	sd	a2, 0x50(a0)
   1f9f6: 34 e5        	sd	a3, 0x48(a0)
   1f9f8: 18 f5        	sd	a4, 0x28(a0)
   1f9fa: 1c fd        	sd	a5, 0x38(a0)
   1f9fc: 82 80        	ret

000000000001f9fe <__netf2>:
   1f9fe: 2a 88        	mv	a6, a0
   1fa00: f3 27 20 00  	frrm	a5
   1fa04: 21 65        	lui	a0, 0x8
   1fa06: 13 d7 05 03  	srli	a4, a1, 0x30
   1fa0a: 7d 15        	addi	a0, a0, -0x1
   1fa0c: 7d 5e        	li	t3, -0x1
   1fa0e: 93 58 0e 01  	srli	a7, t3, 0x10
   1fa12: 13 d3 06 03  	srli	t1, a3, 0x30
   1fa16: 69 8f        	and	a4, a4, a0
   1fa18: b3 f7 15 01  	and	a5, a1, a7
   1fa1c: 33 73 a3 00  	and	t1, t1, a0
   1fa20: b3 f8 16 01  	and	a7, a3, a7
   1fa24: fd 91        	srli	a1, a1, 0x3f
   1fa26: fd 92        	srli	a3, a3, 0x3f
   1fa28: 63 18 a7 00  	bne	a4, a0, 0x1fa38 <__netf2+0x3a>
   1fa2c: 33 e5 07 01  	or	a0, a5, a6
   1fa30: 05 e9        	bnez	a0, 0x1fa60 <__netf2+0x62>
   1fa32: 63 16 e3 04  	bne	t1, a4, 0x1fa7e <__netf2+0x80>
   1fa36: 19 a0        	j	0x1fa3c <__netf2+0x3e>
   1fa38: 63 15 a3 04  	bne	t1, a0, 0x1fa82 <__netf2+0x84>
   1fa3c: 33 e5 c8 00  	or	a0, a7, a2
   1fa40: 29 c1        	beqz	a0, 0x1fa82 <__netf2+0x84>
   1fa42: a1 66        	lui	a3, 0x8
   1fa44: fd 16        	addi	a3, a3, -0x1
   1fa46: 63 18 d7 02  	bne	a4, a3, 0x1fa76 <__netf2+0x78>
   1fa4a: 33 e8 07 01  	or	a6, a5, a6
   1fa4e: 63 00 08 02  	beqz	a6, 0x1fa6e <__netf2+0x70>
   1fa52: 7d 57        	li	a4, -0x1
   1fa54: 45 83        	srli	a4, a4, 0x11
   1fa56: 63 6c f7 00  	bltu	a4, a5, 0x1fa6e <__netf2+0x70>
   1fa5a: 73 60 18 00  	csrsi	fflags, 0x10
   1fa5e: 05 a0        	j	0x1fa7e <__netf2+0x80>
   1fa60: 13 5e 1e 01  	srli	t3, t3, 0x11
   1fa64: e3 7b fe fe  	bgeu	t3, a5, 0x1fa5a <__netf2+0x5c>
   1fa68: 05 45        	li	a0, 0x1
   1fa6a: 63 1d e3 02  	bne	t1, a4, 0x1faa4 <__netf2+0xa6>
   1fa6e: 33 e6 c8 00  	or	a2, a7, a2
   1fa72: 05 45        	li	a0, 0x1
   1fa74: 05 ca        	beqz	a2, 0x1faa4 <__netf2+0xa6>
   1fa76: fd 57        	li	a5, -0x1
   1fa78: c5 83        	srli	a5, a5, 0x11
   1fa7a: e3 f0 17 ff  	bgeu	a5, a7, 0x1fa5a <__netf2+0x5c>
   1fa7e: 05 45        	li	a0, 0x1
   1fa80: 82 80        	ret
   1fa82: 05 45        	li	a0, 0x1
   1fa84: 63 10 67 02  	bne	a4, t1, 0x1faa4 <__netf2+0xa6>
   1fa88: 63 9e 17 01  	bne	a5, a7, 0x1faa4 <__netf2+0xa6>
   1fa8c: 63 1c c8 00  	bne	a6, a2, 0x1faa4 <__netf2+0xa6>
   1fa90: 63 88 d5 00  	beq	a1, a3, 0x1faa0 <__netf2+0xa2>
   1fa94: 01 eb        	bnez	a4, 0x1faa4 <__netf2+0xa6>
   1fa96: b3 e7 07 01  	or	a5, a5, a6
   1fa9a: 33 35 f0 00  	snez	a0, a5
   1fa9e: 82 80        	ret
   1faa0: 01 45        	li	a0, 0x0
   1faa2: 82 80        	ret
   1faa4: 82 80        	ret

000000000001faa6 <__gttf2>:
   1faa6: aa 88        	mv	a7, a0
   1faa8: f3 27 20 00  	frrm	a5
   1faac: 21 63        	lui	t1, 0x8
   1faae: 13 d8 05 03  	srli	a6, a1, 0x30
   1fab2: 7d 13        	addi	t1, t1, -0x1
   1fab4: 7d 57        	li	a4, -0x1
   1fab6: 41 83        	srli	a4, a4, 0x10
   1fab8: 93 d7 06 03  	srli	a5, a3, 0x30
   1fabc: 33 78 68 00  	and	a6, a6, t1
   1fac0: 33 fe e5 00  	and	t3, a1, a4
   1fac4: 33 f5 67 00  	and	a0, a5, t1
   1fac8: 75 8f        	and	a4, a4, a3
   1faca: fd 91        	srli	a1, a1, 0x3f
   1facc: fd 92        	srli	a3, a3, 0x3f
   1face: 63 15 68 00  	bne	a6, t1, 0x1fad8 <__gttf2+0x32>
   1fad2: b3 67 1e 01  	or	a5, t3, a7
   1fad6: b1 eb        	bnez	a5, 0x1fb2a <__gttf2+0x84>
   1fad8: 63 15 65 00  	bne	a0, t1, 0x1fae2 <__gttf2+0x3c>
   1fadc: b3 67 c7 00  	or	a5, a4, a2
   1fae0: a9 e7        	bnez	a5, 0x1fb2a <__gttf2+0x84>
   1fae2: 81 47        	li	a5, 0x0
   1fae4: 63 16 08 00  	bnez	a6, 0x1faf0 <__gttf2+0x4a>
   1fae8: b3 67 1e 01  	or	a5, t3, a7
   1faec: 93 b7 17 00  	seqz	a5, a5
   1faf0: 29 e1        	bnez	a0, 0x1fb32 <__gttf2+0x8c>
   1faf2: 33 63 c7 00  	or	t1, a4, a2
   1faf6: 99 c7        	beqz	a5, 0x1fb04 <__gttf2+0x5e>
   1faf8: 63 0a 03 00  	beqz	t1, 0x1fb0c <__gttf2+0x66>
   1fafc: 05 45        	li	a0, 0x1
   1fafe: 99 e6        	bnez	a3, 0x1fb0c <__gttf2+0x66>
   1fb00: 7d 55        	li	a0, -0x1
   1fb02: 82 80        	ret
   1fb04: 63 18 03 02  	bnez	t1, 0x1fb34 <__gttf2+0x8e>
   1fb08: 7d 55        	li	a0, -0x1
   1fb0a: 9d c9        	beqz	a1, 0x1fb40 <__gttf2+0x9a>
   1fb0c: 82 80        	ret
   1fb0e: e3 47 a8 fe  	blt	a6, a0, 0x1fafc <__gttf2+0x56>
   1fb12: e3 6b c7 ff  	bltu	a4, t3, 0x1fb08 <__gttf2+0x62>
   1fb16: 63 17 ee 00  	bne	t3, a4, 0x1fb24 <__gttf2+0x7e>
   1fb1a: e3 67 16 ff  	bltu	a2, a7, 0x1fb08 <__gttf2+0x62>
   1fb1e: 01 45        	li	a0, 0x0
   1fb20: e3 f6 c8 fe  	bgeu	a7, a2, 0x1fb0c <__gttf2+0x66>
   1fb24: 05 45        	li	a0, 0x1
   1fb26: fd f1        	bnez	a1, 0x1fb0c <__gttf2+0x66>
   1fb28: e1 bf        	j	0x1fb00 <__gttf2+0x5a>
   1fb2a: 73 60 18 00  	csrsi	fflags, 0x10
   1fb2e: 79 55        	li	a0, -0x2
   1fb30: 82 80        	ret
   1fb32: e9 f7        	bnez	a5, 0x1fafc <__gttf2+0x56>
   1fb34: e3 9a b6 fc  	bne	a3, a1, 0x1fb08 <__gttf2+0x62>
   1fb38: e3 5b 05 fd  	bge	a0, a6, 0x1fb0e <__gttf2+0x68>
   1fb3c: 7d 55        	li	a0, -0x1
   1fb3e: f9 f6        	bnez	a3, 0x1fb0c <__gttf2+0x66>
   1fb40: 05 45        	li	a0, 0x1
   1fb42: 82 80        	ret

000000000001fb44 <__lttf2>:
   1fb44: aa 88        	mv	a7, a0
   1fb46: f3 27 20 00  	frrm	a5
   1fb4a: 21 63        	lui	t1, 0x8
   1fb4c: 13 d8 05 03  	srli	a6, a1, 0x30
   1fb50: 7d 13        	addi	t1, t1, -0x1
   1fb52: 7d 57        	li	a4, -0x1
   1fb54: 41 83        	srli	a4, a4, 0x10
   1fb56: 93 d7 06 03  	srli	a5, a3, 0x30
   1fb5a: 33 78 68 00  	and	a6, a6, t1
   1fb5e: 33 fe e5 00  	and	t3, a1, a4
   1fb62: 33 f5 67 00  	and	a0, a5, t1
   1fb66: 75 8f        	and	a4, a4, a3
   1fb68: fd 91        	srli	a1, a1, 0x3f
   1fb6a: fd 92        	srli	a3, a3, 0x3f
   1fb6c: 63 15 68 00  	bne	a6, t1, 0x1fb76 <__lttf2+0x32>
   1fb70: b3 67 1e 01  	or	a5, t3, a7
   1fb74: b1 eb        	bnez	a5, 0x1fbc8 <__lttf2+0x84>
   1fb76: 63 15 65 00  	bne	a0, t1, 0x1fb80 <__lttf2+0x3c>
   1fb7a: b3 67 c7 00  	or	a5, a4, a2
   1fb7e: a9 e7        	bnez	a5, 0x1fbc8 <__lttf2+0x84>
   1fb80: 81 47        	li	a5, 0x0
   1fb82: 63 16 08 00  	bnez	a6, 0x1fb8e <__lttf2+0x4a>
   1fb86: b3 67 1e 01  	or	a5, t3, a7
   1fb8a: 93 b7 17 00  	seqz	a5, a5
   1fb8e: 29 e1        	bnez	a0, 0x1fbd0 <__lttf2+0x8c>
   1fb90: 33 63 c7 00  	or	t1, a4, a2
   1fb94: 99 c7        	beqz	a5, 0x1fba2 <__lttf2+0x5e>
   1fb96: 63 0a 03 00  	beqz	t1, 0x1fbaa <__lttf2+0x66>
   1fb9a: 05 45        	li	a0, 0x1
   1fb9c: 99 e6        	bnez	a3, 0x1fbaa <__lttf2+0x66>
   1fb9e: 7d 55        	li	a0, -0x1
   1fba0: 82 80        	ret
   1fba2: 63 18 03 02  	bnez	t1, 0x1fbd2 <__lttf2+0x8e>
   1fba6: 7d 55        	li	a0, -0x1
   1fba8: 9d c9        	beqz	a1, 0x1fbde <__lttf2+0x9a>
   1fbaa: 82 80        	ret
   1fbac: e3 47 a8 fe  	blt	a6, a0, 0x1fb9a <__lttf2+0x56>
   1fbb0: e3 6b c7 ff  	bltu	a4, t3, 0x1fba6 <__lttf2+0x62>
   1fbb4: 63 17 ee 00  	bne	t3, a4, 0x1fbc2 <__lttf2+0x7e>
   1fbb8: e3 67 16 ff  	bltu	a2, a7, 0x1fba6 <__lttf2+0x62>
   1fbbc: 01 45        	li	a0, 0x0
   1fbbe: e3 f6 c8 fe  	bgeu	a7, a2, 0x1fbaa <__lttf2+0x66>
   1fbc2: 05 45        	li	a0, 0x1
   1fbc4: fd f1        	bnez	a1, 0x1fbaa <__lttf2+0x66>
   1fbc6: e1 bf        	j	0x1fb9e <__lttf2+0x5a>
   1fbc8: 73 60 18 00  	csrsi	fflags, 0x10
   1fbcc: 09 45        	li	a0, 0x2
   1fbce: 82 80        	ret
   1fbd0: e9 f7        	bnez	a5, 0x1fb9a <__lttf2+0x56>
   1fbd2: e3 9a b6 fc  	bne	a3, a1, 0x1fba6 <__lttf2+0x62>
   1fbd6: e3 5b 05 fd  	bge	a0, a6, 0x1fbac <__lttf2+0x68>
   1fbda: 7d 55        	li	a0, -0x1
   1fbdc: f9 f6        	bnez	a3, 0x1fbaa <__lttf2+0x66>
   1fbde: 05 45        	li	a0, 0x1
   1fbe0: 82 80        	ret

000000000001fbe2 <__multf3>:
   1fbe2: 1d 71        	addi	sp, sp, -0x60
   1fbe4: a2 e8        	sd	s0, 0x50(sp)
   1fbe6: 56 f4        	sd	s5, 0x28(sp)
   1fbe8: 62 e8        	sd	s8, 0x10(sp)
   1fbea: 86 ec        	sd	ra, 0x58(sp)
   1fbec: a6 e4        	sd	s1, 0x48(sp)
   1fbee: ca e0        	sd	s2, 0x40(sp)
   1fbf0: 4e fc        	sd	s3, 0x38(sp)
   1fbf2: 52 f8        	sd	s4, 0x30(sp)
   1fbf4: 5a f0        	sd	s6, 0x20(sp)
   1fbf6: 5e ec        	sd	s7, 0x18(sp)
   1fbf8: 66 e4        	sd	s9, 0x8(sp)
   1fbfa: 2a 84        	mv	s0, a0
   1fbfc: 32 8c        	mv	s8, a2
   1fbfe: b6 8a        	mv	s5, a3
   1fc00: f3 29 20 00  	frrm	s3
   1fc04: 21 67        	lui	a4, 0x8
   1fc06: 93 d7 05 03  	srli	a5, a1, 0x30
   1fc0a: 7d 17        	addi	a4, a4, -0x1
   1fc0c: 93 94 05 01  	slli	s1, a1, 0x10
   1fc10: f9 8f        	and	a5, a5, a4
   1fc12: 81 29        	sext.w	s3, s3
   1fc14: c1 80        	srli	s1, s1, 0x10
   1fc16: 13 db f5 03  	srli	s6, a1, 0x3f
   1fc1a: 85 c7        	beqz	a5, 0x1fc42 <__multf3+0x60>
   1fc1c: 1b 8a 07 00  	sext.w	s4, a5
   1fc20: 63 8f e7 06  	beq	a5, a4, 0x1fc9e <__multf3+0xbc>
   1fc24: 8e 04        	slli	s1, s1, 0x3
   1fc26: 13 57 d5 03  	srli	a4, a0, 0x3d
   1fc2a: 45 8f        	or	a4, a4, s1
   1fc2c: 71 7a        	lui	s4, 0xffffc
   1fc2e: 85 44        	li	s1, 0x1
   1fc30: ce 14        	slli	s1, s1, 0x33
   1fc32: 05 0a        	addi	s4, s4, 0x1
   1fc34: d9 8c        	or	s1, s1, a4
   1fc36: 93 1b 35 00  	slli	s7, a0, 0x3
   1fc3a: 3e 9a        	add	s4, s4, a5
   1fc3c: 81 4c        	li	s9, 0x0
   1fc3e: 01 49        	li	s2, 0x0
   1fc40: 95 a8        	j	0x1fcb4 <__multf3+0xd2>
   1fc42: b3 6b 95 00  	or	s7, a0, s1
   1fc46: 63 82 0b 28  	beqz	s7, 0x1feca <__multf3+0x2e8>
   1fc4a: 9d c8        	beqz	s1, 0x1fc80 <__multf3+0x9e>
   1fc4c: 26 85        	mv	a0, s1
   1fc4e: ef 10 00 0c  	jal	0x20d0e <__clzdi2>
   1fc52: 01 25        	sext.w	a0, a0
   1fc54: 93 07 15 ff  	addi	a5, a0, -0xf
   1fc58: 13 07 d0 03  	li	a4, 0x3d
   1fc5c: 9b 86 37 00  	addiw	a3, a5, 0x3
   1fc60: bb 07 f7 40  	subw	a5, a4, a5
   1fc64: b3 94 d4 00  	sll	s1, s1, a3
   1fc68: b3 57 f4 00  	srl	a5, s0, a5
   1fc6c: c5 8f        	or	a5, a5, s1
   1fc6e: b3 14 d4 00  	sll	s1, s0, a3
   1fc72: 71 7a        	lui	s4, 0xffffc
   1fc74: 45 0a        	addi	s4, s4, 0x11
   1fc76: a6 8b        	mv	s7, s1
   1fc78: 33 0a aa 40  	sub	s4, s4, a0
   1fc7c: be 84        	mv	s1, a5
   1fc7e: 7d bf        	j	0x1fc3c <__multf3+0x5a>
   1fc80: ef 10 e0 08  	jal	0x20d0e <__clzdi2>
   1fc84: 1b 05 05 04  	addiw	a0, a0, 0x40
   1fc88: 93 07 15 ff  	addi	a5, a0, -0xf
   1fc8c: 13 07 c0 03  	li	a4, 0x3c
   1fc90: e3 54 f7 fc  	bge	a4, a5, 0x1fc58 <__multf3+0x76>
   1fc94: 9b 87 37 fc  	addiw	a5, a5, -0x3d
   1fc98: b3 17 f4 00  	sll	a5, s0, a5
   1fc9c: d9 bf        	j	0x1fc72 <__multf3+0x90>
   1fc9e: b3 6b 95 00  	or	s7, a0, s1
   1fca2: 63 88 0b 22  	beqz	s7, 0x1fed2 <__multf3+0x2f0>
   1fca6: 05 49        	li	s2, 0x1
   1fca8: 3e 19        	slli	s2, s2, 0x2f
   1fcaa: 33 b9 24 01  	sltu	s2, s1, s2
   1fcae: 12 09        	slli	s2, s2, 0x4
   1fcb0: aa 8b        	mv	s7, a0
   1fcb2: 8d 4c        	li	s9, 0x3
   1fcb4: 21 66        	lui	a2, 0x8
   1fcb6: 13 d7 0a 03  	srli	a4, s5, 0x30
   1fcba: fd 56        	li	a3, -0x1
   1fcbc: 7d 16        	addi	a2, a2, -0x1
   1fcbe: 13 d4 06 01  	srli	s0, a3, 0x10
   1fcc2: 71 8f        	and	a4, a4, a2
   1fcc4: 33 f4 8a 00  	and	s0, s5, s0
   1fcc8: 62 85        	mv	a0, s8
   1fcca: 93 da fa 03  	srli	s5, s5, 0x3f
   1fcce: 63 05 07 20  	beqz	a4, 0x1fed8 <__multf3+0x2f6>
   1fcd2: 9b 07 07 00  	sext.w	a5, a4
   1fcd6: 63 0e c7 24  	beq	a4, a2, 0x1ff32 <__multf3+0x350>
   1fcda: 0e 04        	slli	s0, s0, 0x3
   1fcdc: 93 57 dc 03  	srli	a5, s8, 0x3d
   1fce0: c1 8f        	or	a5, a5, s0
   1fce2: 05 44        	li	s0, 0x1
   1fce4: 4e 14        	slli	s0, s0, 0x33
   1fce6: 5d 8c        	or	s0, s0, a5
   1fce8: f1 77        	lui	a5, 0xffffc
   1fcea: 85 07        	addi	a5, a5, 0x1
   1fcec: 13 15 3c 00  	slli	a0, s8, 0x3
   1fcf0: ba 97        	add	a5, a5, a4
   1fcf2: 01 47        	li	a4, 0x0
   1fcf4: b3 86 47 01  	add	a3, a5, s4
   1fcf8: 93 97 2c 00  	slli	a5, s9, 0x2
   1fcfc: d9 8f        	or	a5, a5, a4
   1fcfe: 29 46        	li	a2, 0xa
   1fd00: 93 88 16 00  	addi	a7, a3, 0x1
   1fd04: 63 4f f6 2a  	blt	a2, a5, 0x1ffc2 <__multf3+0x3e0>
   1fd08: 89 45        	li	a1, 0x2
   1fd0a: 33 46 5b 01  	xor	a2, s6, s5
   1fd0e: 63 c4 f5 24  	blt	a1, a5, 0x1ff56 <__multf3+0x374>
   1fd12: fd 17        	addi	a5, a5, -0x1
   1fd14: 85 45        	li	a1, 0x1
   1fd16: 63 ff f5 24  	bgeu	a1, a5, 0x1ff74 <__multf3+0x392>
   1fd1a: fd 57        	li	a5, -0x1
   1fd1c: 81 93        	srli	a5, a5, 0x20
   1fd1e: 13 d7 0b 02  	srli	a4, s7, 0x20
   1fd22: 93 55 05 02  	srli	a1, a0, 0x20
   1fd26: b3 8f 74 01  	add	t6, s1, s7
   1fd2a: 33 0f 85 00  	add	t5, a0, s0
   1fd2e: b3 fb fb 00  	and	s7, s7, a5
   1fd32: e9 8f        	and	a5, a5, a0
   1fd34: b3 3e af 00  	sltu	t4, t5, a0
   1fd38: 33 85 77 03  	mul	a0, a5, s7
   1fd3c: 33 be 9f 00  	sltu	t3, t6, s1
   1fd40: b3 07 f7 02  	mul	a5, a4, a5
   1fd44: 13 58 05 02  	srli	a6, a0, 0x20
   1fd48: 33 07 b7 02  	mul	a4, a4, a1
   1fd4c: b3 85 75 03  	mul	a1, a1, s7
   1fd50: be 95        	add	a1, a1, a5
   1fd52: 2e 98        	add	a6, a6, a1
   1fd54: 63 75 f8 00  	bgeu	a6, a5, 0x1fd5e <__multf3+0x17c>
   1fd58: 85 47        	li	a5, 0x1
   1fd5a: 82 17        	slli	a5, a5, 0x20
   1fd5c: 3e 97        	add	a4, a4, a5
   1fd5e: fd 57        	li	a5, -0x1
   1fd60: 81 93        	srli	a5, a5, 0x20
   1fd62: 13 53 08 02  	srli	t1, a6, 0x20
   1fd66: 33 78 f8 00  	and	a6, a6, a5
   1fd6a: 7d 8d        	and	a0, a0, a5
   1fd6c: 02 18        	slli	a6, a6, 0x20
   1fd6e: 93 d3 0f 02  	srli	t2, t6, 0x20
   1fd72: 3a 93        	add	t1, t1, a4
   1fd74: 2a 98        	add	a6, a6, a0
   1fd76: 13 57 0f 02  	srli	a4, t5, 0x20
   1fd7a: 33 f5 ff 00  	and	a0, t6, a5
   1fd7e: b3 77 ff 00  	and	a5, t5, a5
   1fd82: b3 85 a7 02  	mul	a1, a5, a0
   1fd86: b3 87 f3 02  	mul	a5, t2, a5
   1fd8a: 93 d2 05 02  	srli	t0, a1, 0x20
   1fd8e: b3 83 e3 02  	mul	t2, t2, a4
   1fd92: 33 07 a7 02  	mul	a4, a4, a0
   1fd96: 3e 97        	add	a4, a4, a5
   1fd98: ba 92        	add	t0, t0, a4
   1fd9a: 63 f5 f2 00  	bgeu	t0, a5, 0x1fda4 <__multf3+0x1c2>
   1fd9e: 85 47        	li	a5, 0x1
   1fda0: 82 17        	slli	a5, a5, 0x20
   1fda2: be 93        	add	t2, t2, a5
   1fda4: fd 57        	li	a5, -0x1
   1fda6: 81 93        	srli	a5, a5, 0x20
   1fda8: 13 d7 02 02  	srli	a4, t0, 0x20
   1fdac: b3 f2 f2 00  	and	t0, t0, a5
   1fdb0: fd 8d        	and	a1, a1, a5
   1fdb2: 82 12        	slli	t0, t0, 0x20
   1fdb4: 13 55 04 02  	srli	a0, s0, 0x20
   1fdb8: ae 92        	add	t0, t0, a1
   1fdba: 93 d5 04 02  	srli	a1, s1, 0x20
   1fdbe: fd 8c        	and	s1, s1, a5
   1fdc0: e1 8f        	and	a5, a5, s0
   1fdc2: 33 8a f4 02  	mul	s4, s1, a5
   1fdc6: 33 84 a5 02  	mul	s0, a1, a0
   1fdca: b3 87 f5 02  	mul	a5, a1, a5
   1fdce: 33 05 95 02  	mul	a0, a0, s1
   1fdd2: b3 05 f5 00  	add	a1, a0, a5
   1fdd6: 13 55 0a 02  	srli	a0, s4, 0x20
   1fdda: 2e 95        	add	a0, a0, a1
   1fddc: 63 75 f5 00  	bgeu	a0, a5, 0x1fde6 <__multf3+0x204>
   1fde0: 85 47        	li	a5, 0x1
   1fde2: 82 17        	slli	a5, a5, 0x20
   1fde4: 3e 94        	add	s0, s0, a5
   1fde6: 93 55 05 02  	srli	a1, a0, 0x20
   1fdea: a2 95        	add	a1, a1, s0
   1fdec: 7d 54        	li	s0, -0x1
   1fdee: 01 90        	srli	s0, s0, 0x20
   1fdf0: b3 77 85 00  	and	a5, a0, s0
   1fdf4: 82 17        	slli	a5, a5, 0x20
   1fdf6: 33 7a 8a 00  	and	s4, s4, s0
   1fdfa: d2 97        	add	a5, a5, s4
   1fdfc: 01 45        	li	a0, 0x0
   1fdfe: 63 83 0e 00  	beqz	t4, 0x1fe04 <__multf3+0x222>
   1fe02: 7e 85        	mv	a0, t6
   1fe04: 81 4f        	li	t6, 0x0
   1fe06: 63 03 0e 00  	beqz	t3, 0x1fe0c <__multf3+0x22a>
   1fe0a: fa 8f        	mv	t6, t5
   1fe0c: 33 84 62 00  	add	s0, t0, t1
   1fe10: 33 3f 54 00  	sltu	t5, s0, t0
   1fe14: 7a 97        	add	a4, a4, t5
   1fe16: 1e 97        	add	a4, a4, t2
   1fe18: 33 7e de 01  	and	t3, t3, t4
   1fe1c: 33 3f e7 01  	sltu	t5, a4, t5
   1fe20: 3a 95        	add	a0, a0, a4
   1fe22: 72 9f        	add	t5, t5, t3
   1fe24: 33 37 e5 00  	sltu	a4, a0, a4
   1fe28: 7e 95        	add	a0, a0, t6
   1fe2a: 7a 97        	add	a4, a4, t5
   1fe2c: b3 3f f5 01  	sltu	t6, a0, t6
   1fe30: 33 0e 04 41  	sub	t3, s0, a6
   1fe34: b3 3e c4 01  	sltu	t4, s0, t3
   1fe38: ba 9f        	add	t6, t6, a4
   1fe3a: 33 07 65 40  	sub	a4, a0, t1
   1fe3e: 33 3f e5 00  	sltu	t5, a0, a4
   1fe42: 33 07 d7 41  	sub	a4, a4, t4
   1fe46: 81 4e        	li	t4, 0x0
   1fe48: 63 76 c4 01  	bgeu	s0, t3, 0x1fe54 <__multf3+0x272>
   1fe4c: 33 03 a3 40  	sub	t1, t1, a0
   1fe50: 93 3e 13 00  	seqz	t4, t1
   1fe54: ae 9f        	add	t6, t6, a1
   1fe56: 33 03 fe 40  	sub	t1, t3, a5
   1fe5a: b3 05 b7 40  	sub	a1, a4, a1
   1fe5e: 33 35 b7 00  	sltu	a0, a4, a1
   1fe62: 33 37 6e 00  	sltu	a4, t3, t1
   1fe66: 33 ef ee 01  	or	t5, t4, t5
   1fe6a: 33 87 e7 40  	sub	a4, a5, a4
   1fe6e: 81 4e        	li	t4, 0x0
   1fe70: 63 74 6e 00  	bgeu	t3, t1, 0x1fe78 <__multf3+0x296>
   1fe74: 93 be 15 00  	seqz	t4, a1
   1fe78: ba 95        	add	a1, a1, a4
   1fe7a: 33 b7 f5 00  	sltu	a4, a1, a5
   1fe7e: 7e 97        	add	a4, a4, t6
   1fe80: b3 ee ae 00  	or	t4, t4, a0
   1fe84: 33 07 e7 41  	sub	a4, a4, t5
   1fe88: 13 15 d3 00  	slli	a0, t1, 0xd
   1fe8c: 33 07 d7 41  	sub	a4, a4, t4
   1fe90: 33 65 05 01  	or	a0, a0, a6
   1fe94: 36 07        	slli	a4, a4, 0xd
   1fe96: 33 35 a0 00  	snez	a0, a0
   1fe9a: 13 53 33 03  	srli	t1, t1, 0x33
   1fe9e: 13 d4 35 03  	srli	s0, a1, 0x33
   1fea2: 33 65 65 00  	or	a0, a0, t1
   1fea6: b6 05        	slli	a1, a1, 0xd
   1fea8: 93 17 b7 00  	slli	a5, a4, 0xb
   1feac: 59 8c        	or	s0, s0, a4
   1feae: 4d 8d        	or	a0, a0, a1
   1feb0: 63 db 07 00  	bgez	a5, 0x1fec6 <__multf3+0x2e4>
   1feb4: 93 57 15 00  	srli	a5, a0, 0x1
   1feb8: 05 89        	andi	a0, a0, 0x1
   1feba: c9 8f        	or	a5, a5, a0
   1febc: 13 15 f4 03  	slli	a0, s0, 0x3f
   1fec0: 5d 8d        	or	a0, a0, a5
   1fec2: 05 80        	srli	s0, s0, 0x1
   1fec4: c6 86        	mv	a3, a7
   1fec6: b6 88        	mv	a7, a3
   1fec8: 7d a8        	j	0x1ff86 <__multf3+0x3a4>
   1feca: 81 44        	li	s1, 0x0
   1fecc: 01 4a        	li	s4, 0x0
   1fece: 85 4c        	li	s9, 0x1
   1fed0: bd b3        	j	0x1fc3e <__multf3+0x5c>
   1fed2: 81 44        	li	s1, 0x0
   1fed4: 89 4c        	li	s9, 0x2
   1fed6: a5 b3        	j	0x1fc3e <__multf3+0x5c>
   1fed8: b3 67 8c 00  	or	a5, s8, s0
   1fedc: a5 c7        	beqz	a5, 0x1ff44 <__multf3+0x362>
   1fede: 1d c8        	beqz	s0, 0x1ff14 <__multf3+0x332>
   1fee0: 22 85        	mv	a0, s0
   1fee2: ef 00 d0 62  	jal	0x20d0e <__clzdi2>
   1fee6: 01 25        	sext.w	a0, a0
   1fee8: 93 07 15 ff  	addi	a5, a0, -0xf
   1feec: 13 07 d0 03  	li	a4, 0x3d
   1fef0: 9b 86 37 00  	addiw	a3, a5, 0x3
   1fef4: bb 07 f7 40  	subw	a5, a4, a5
   1fef8: 33 14 d4 00  	sll	s0, s0, a3
   1fefc: b3 57 fc 00  	srl	a5, s8, a5
   1ff00: 33 e7 87 00  	or	a4, a5, s0
   1ff04: 33 14 dc 00  	sll	s0, s8, a3
   1ff08: f1 77        	lui	a5, 0xffffc
   1ff0a: c5 07        	addi	a5, a5, 0x11
   1ff0c: 89 8f        	sub	a5, a5, a0
   1ff0e: 22 85        	mv	a0, s0
   1ff10: 3a 84        	mv	s0, a4
   1ff12: c5 b3        	j	0x1fcf2 <__multf3+0x110>
   1ff14: ef 00 b0 5f  	jal	0x20d0e <__clzdi2>
   1ff18: 1b 05 05 04  	addiw	a0, a0, 0x40
   1ff1c: 93 07 15 ff  	addi	a5, a0, -0xf
   1ff20: 13 07 c0 03  	li	a4, 0x3c
   1ff24: e3 54 f7 fc  	bge	a4, a5, 0x1feec <__multf3+0x30a>
   1ff28: 9b 87 37 fc  	addiw	a5, a5, -0x3d
   1ff2c: 33 17 fc 00  	sll	a4, s8, a5
   1ff30: e1 bf        	j	0x1ff08 <__multf3+0x326>
   1ff32: 33 67 8c 00  	or	a4, s8, s0
   1ff36: 01 cf        	beqz	a4, 0x1ff4e <__multf3+0x36c>
   1ff38: c5 82        	srli	a3, a3, 0x11
   1ff3a: 0d 47        	li	a4, 0x3
   1ff3c: e3 ec 86 da  	bltu	a3, s0, 0x1fcf4 <__multf3+0x112>
   1ff40: 41 49        	li	s2, 0x10
   1ff42: 4d bb        	j	0x1fcf4 <__multf3+0x112>
   1ff44: 01 44        	li	s0, 0x0
   1ff46: 01 45        	li	a0, 0x0
   1ff48: 81 47        	li	a5, 0x0
   1ff4a: 05 47        	li	a4, 0x1
   1ff4c: 65 b3        	j	0x1fcf4 <__multf3+0x112>
   1ff4e: 01 44        	li	s0, 0x0
   1ff50: 01 45        	li	a0, 0x0
   1ff52: 09 47        	li	a4, 0x2
   1ff54: 45 b3        	j	0x1fcf4 <__multf3+0x112>
   1ff56: 85 45        	li	a1, 0x1
   1ff58: b3 97 f5 00  	sll	a5, a1, a5
   1ff5c: 93 f5 07 53  	andi	a1, a5, 0x530
   1ff60: a5 e9        	bnez	a1, 0x1ffd0 <__multf3+0x3ee>
   1ff62: 93 f5 07 24  	andi	a1, a5, 0x240
   1ff66: 63 99 05 24  	bnez	a1, 0x201b8 <__multf3+0x5d6>
   1ff6a: 93 f7 87 08  	andi	a5, a5, 0x88
   1ff6e: e3 86 07 da  	beqz	a5, 0x1fd1a <__multf3+0x138>
   1ff72: 56 86        	mv	a2, s5
   1ff74: 89 47        	li	a5, 0x2
   1ff76: 63 09 f7 24  	beq	a4, a5, 0x201c8 <__multf3+0x5e6>
   1ff7a: 8d 47        	li	a5, 0x3
   1ff7c: 63 0f f7 22  	beq	a4, a5, 0x201ba <__multf3+0x5d8>
   1ff80: 85 47        	li	a5, 0x1
   1ff82: 63 08 f7 24  	beq	a4, a5, 0x201d2 <__multf3+0x5f0>
   1ff86: 11 67        	lui	a4, 0x4
   1ff88: 7d 17        	addi	a4, a4, -0x1
   1ff8a: 46 97        	add	a4, a4, a7
   1ff8c: 63 5f e0 0c  	blez	a4, 0x2006a <__multf3+0x488>
   1ff90: 93 77 75 00  	andi	a5, a0, 0x7
   1ff94: b9 c7        	beqz	a5, 0x1ffe2 <__multf3+0x400>
   1ff96: 89 47        	li	a5, 0x2
   1ff98: 13 69 19 00  	ori	s2, s2, 0x1
   1ff9c: 63 82 f9 04  	beq	s3, a5, 0x1ffe0 <__multf3+0x3fe>
   1ffa0: 8d 47        	li	a5, 0x3
   1ffa2: 63 8b f9 02  	beq	s3, a5, 0x1ffd8 <__multf3+0x3f6>
   1ffa6: 63 9e 09 02  	bnez	s3, 0x1ffe2 <__multf3+0x400>
   1ffaa: 93 77 f5 00  	andi	a5, a0, 0xf
   1ffae: 91 46        	li	a3, 0x4
   1ffb0: 63 89 d7 02  	beq	a5, a3, 0x1ffe2 <__multf3+0x400>
   1ffb4: 93 07 45 00  	addi	a5, a0, 0x4
   1ffb8: b3 b6 a7 00  	sltu	a3, a5, a0
   1ffbc: 36 94        	add	s0, s0, a3
   1ffbe: 3e 85        	mv	a0, a5
   1ffc0: 0d a0        	j	0x1ffe2 <__multf3+0x400>
   1ffc2: bd 46        	li	a3, 0xf
   1ffc4: 63 8b d7 1e  	beq	a5, a3, 0x201ba <__multf3+0x5d8>
   1ffc8: ad 46        	li	a3, 0xb
   1ffca: 5a 86        	mv	a2, s6
   1ffcc: e3 83 d7 fa  	beq	a5, a3, 0x1ff72 <__multf3+0x390>
   1ffd0: 26 84        	mv	s0, s1
   1ffd2: 5e 85        	mv	a0, s7
   1ffd4: 66 87        	mv	a4, s9
   1ffd6: 79 bf        	j	0x1ff74 <__multf3+0x392>
   1ffd8: 09 e6        	bnez	a2, 0x1ffe2 <__multf3+0x400>
   1ffda: 93 07 85 00  	addi	a5, a0, 0x8
   1ffde: e9 bf        	j	0x1ffb8 <__multf3+0x3d6>
   1ffe0: 6d fe        	bnez	a2, 0x1ffda <__multf3+0x3f8>
   1ffe2: 93 17 b4 00  	slli	a5, s0, 0xb
   1ffe6: 63 d8 07 00  	bgez	a5, 0x1fff6 <__multf3+0x414>
   1ffea: fd 57        	li	a5, -0x1
   1ffec: d2 17        	slli	a5, a5, 0x34
   1ffee: fd 17        	addi	a5, a5, -0x1
   1fff0: 11 67        	lui	a4, 0x4
   1fff2: 7d 8c        	and	s0, s0, a5
   1fff4: 46 97        	add	a4, a4, a7
   1fff6: a1 67        	lui	a5, 0x8
   1fff8: f9 17        	addi	a5, a5, -0x2
   1fffa: a1 66        	lui	a3, 0x8
   1fffc: 63 c2 e7 04  	blt	a5, a4, 0x20040 <__multf3+0x45e>
   20000: 93 57 35 00  	srli	a5, a0, 0x3
   20004: 13 15 d4 03  	slli	a0, s0, 0x3d
   20008: 5d 8d        	or	a0, a0, a5
   2000a: 93 57 34 00  	srli	a5, s0, 0x3
   2000e: 1b 16 f6 00  	slliw	a2, a2, 0xf
   20012: 93 95 07 01  	slli	a1, a5, 0x10
   20016: 51 8f        	or	a4, a4, a2
   20018: 42 17        	slli	a4, a4, 0x30
   2001a: c1 81        	srli	a1, a1, 0x10
   2001c: d9 8d        	or	a1, a1, a4
   2001e: 63 04 09 00  	beqz	s2, 0x20026 <__multf3+0x444>
   20022: 73 20 19 00  	csrs	fflags, s2
   20026: e6 60        	ld	ra, 0x58(sp)
   20028: 46 64        	ld	s0, 0x50(sp)
   2002a: a6 64        	ld	s1, 0x48(sp)
   2002c: 06 69        	ld	s2, 0x40(sp)
   2002e: e2 79        	ld	s3, 0x38(sp)
   20030: 42 7a        	ld	s4, 0x30(sp)
   20032: a2 7a        	ld	s5, 0x28(sp)
   20034: 02 7b        	ld	s6, 0x20(sp)
   20036: e2 6b        	ld	s7, 0x18(sp)
   20038: 42 6c        	ld	s8, 0x10(sp)
   2003a: a2 6c        	ld	s9, 0x8(sp)
   2003c: 25 61        	addi	sp, sp, 0x60
   2003e: 82 80        	ret
   20040: 09 47        	li	a4, 0x2
   20042: 63 82 e9 02  	beq	s3, a4, 0x20066 <__multf3+0x484>
   20046: 0d 47        	li	a4, 0x3
   20048: 63 88 e9 00  	beq	s3, a4, 0x20058 <__multf3+0x476>
   2004c: 63 97 09 00  	bnez	s3, 0x2005a <__multf3+0x478>
   20050: 01 45        	li	a0, 0x0
   20052: 13 87 f6 ff  	addi	a4, a3, -0x1
   20056: 21 a0        	j	0x2005e <__multf3+0x47c>
   20058: 65 de        	beqz	a2, 0x20050 <__multf3+0x46e>
   2005a: 7d 55        	li	a0, -0x1
   2005c: 3e 87        	mv	a4, a5
   2005e: 13 69 59 00  	ori	s2, s2, 0x5
   20062: aa 87        	mv	a5, a0
   20064: 6d b7        	j	0x2000e <__multf3+0x42c>
   20066: 6d f6        	bnez	a2, 0x20050 <__multf3+0x46e>
   20068: cd bf        	j	0x2005a <__multf3+0x478>
   2006a: 85 46        	li	a3, 0x1
   2006c: 21 e7        	bnez	a4, 0x200b4 <__multf3+0x4d2>
   2006e: 93 76 75 00  	andi	a3, a0, 0x7
   20072: a2 87        	mv	a5, s0
   20074: 9d ca        	beqz	a3, 0x200aa <__multf3+0x4c8>
   20076: 89 46        	li	a3, 0x2
   20078: 13 69 19 00  	ori	s2, s2, 0x1
   2007c: 63 86 d9 02  	beq	s3, a3, 0x200a8 <__multf3+0x4c6>
   20080: 8d 46        	li	a3, 0x3
   20082: 63 8f d9 00  	beq	s3, a3, 0x200a0 <__multf3+0x4be>
   20086: 63 92 09 02  	bnez	s3, 0x200aa <__multf3+0x4c8>
   2008a: 93 76 f5 00  	andi	a3, a0, 0xf
   2008e: 91 45        	li	a1, 0x4
   20090: 63 8d b6 00  	beq	a3, a1, 0x200aa <__multf3+0x4c8>
   20094: 93 37 c5 ff  	sltiu	a5, a0, -0x4
   20098: 93 c7 17 00  	xori	a5, a5, 0x1
   2009c: a2 97        	add	a5, a5, s0
   2009e: 31 a0        	j	0x200aa <__multf3+0x4c8>
   200a0: 09 e6        	bnez	a2, 0x200aa <__multf3+0x4c8>
   200a2: 93 37 85 ff  	sltiu	a5, a0, -0x8
   200a6: cd bf        	j	0x20098 <__multf3+0x4b6>
   200a8: 6d fe        	bnez	a2, 0x200a2 <__multf3+0x4c0>
   200aa: 93 d6 47 03  	srli	a3, a5, 0x34
   200ae: 93 c6 16 00  	xori	a3, a3, 0x1
   200b2: 85 8a        	andi	a3, a3, 0x1
   200b4: 05 48        	li	a6, 0x1
   200b6: 33 08 e8 40  	sub	a6, a6, a4
   200ba: 93 07 40 07  	li	a5, 0x74
   200be: 63 c2 07 0d  	blt	a5, a6, 0x20182 <__multf3+0x5a0>
   200c2: 13 07 f0 03  	li	a4, 0x3f
   200c6: 9b 07 08 00  	sext.w	a5, a6
   200ca: 63 4b 07 05  	blt	a4, a6, 0x20120 <__multf3+0x53e>
   200ce: 93 05 00 04  	li	a1, 0x40
   200d2: 9d 9d        	subw	a1, a1, a5
   200d4: 33 17 b4 00  	sll	a4, s0, a1
   200d8: 33 58 f5 00  	srl	a6, a0, a5
   200dc: b3 15 b5 00  	sll	a1, a0, a1
   200e0: 33 67 07 01  	or	a4, a4, a6
   200e4: b3 35 b0 00  	snez	a1, a1
   200e8: 4d 8f        	or	a4, a4, a1
   200ea: b3 57 f4 00  	srl	a5, s0, a5
   200ee: 93 75 77 00  	andi	a1, a4, 0x7
   200f2: a5 c1        	beqz	a1, 0x20152 <__multf3+0x570>
   200f4: 89 45        	li	a1, 0x2
   200f6: 13 69 19 00  	ori	s2, s2, 0x1
   200fa: 63 8b b9 04  	beq	s3, a1, 0x20150 <__multf3+0x56e>
   200fe: 8d 45        	li	a1, 0x3
   20100: 63 84 b9 04  	beq	s3, a1, 0x20148 <__multf3+0x566>
   20104: 63 97 09 04  	bnez	s3, 0x20152 <__multf3+0x570>
   20108: 93 75 f7 00  	andi	a1, a4, 0xf
   2010c: 11 45        	li	a0, 0x4
   2010e: 63 82 a5 04  	beq	a1, a0, 0x20152 <__multf3+0x570>
   20112: 93 05 47 00  	addi	a1, a4, 0x4
   20116: 33 b5 e5 00  	sltu	a0, a1, a4
   2011a: aa 97        	add	a5, a5, a0
   2011c: 2e 87        	mv	a4, a1
   2011e: 15 a8        	j	0x20152 <__multf3+0x570>
   20120: 1b 87 07 fc  	addiw	a4, a5, -0x40
   20124: 93 08 00 04  	li	a7, 0x40
   20128: 33 57 e4 00  	srl	a4, s0, a4
   2012c: 81 45        	li	a1, 0x0
   2012e: 63 07 18 01  	beq	a6, a7, 0x2013c <__multf3+0x55a>
   20132: 93 05 00 08  	li	a1, 0x80
   20136: 9d 9d        	subw	a1, a1, a5
   20138: b3 15 b4 00  	sll	a1, s0, a1
   2013c: c9 8d        	or	a1, a1, a0
   2013e: b3 35 b0 00  	snez	a1, a1
   20142: 4d 8f        	or	a4, a4, a1
   20144: 81 47        	li	a5, 0x0
   20146: 65 b7        	j	0x200ee <__multf3+0x50c>
   20148: 09 e6        	bnez	a2, 0x20152 <__multf3+0x570>
   2014a: 93 05 87 00  	addi	a1, a4, 0x8
   2014e: e1 b7        	j	0x20116 <__multf3+0x534>
   20150: 6d fe        	bnez	a2, 0x2014a <__multf3+0x568>
   20152: 93 95 c7 00  	slli	a1, a5, 0xc
   20156: 63 df 05 00  	bgez	a1, 0x20174 <__multf3+0x592>
   2015a: 13 69 19 00  	ori	s2, s2, 0x1
   2015e: 81 47        	li	a5, 0x0
   20160: 01 45        	li	a0, 0x0
   20162: 05 47        	li	a4, 0x1
   20164: e3 85 06 ea  	beqz	a3, 0x2000e <__multf3+0x42c>
   20168: 93 76 19 00  	andi	a3, s2, 0x1
   2016c: 86 06        	slli	a3, a3, 0x1
   2016e: 33 e9 26 01  	or	s2, a3, s2
   20172: 71 bd        	j	0x2000e <__multf3+0x42c>
   20174: 0d 83        	srli	a4, a4, 0x3
   20176: 13 95 d7 03  	slli	a0, a5, 0x3d
   2017a: 59 8d        	or	a0, a0, a4
   2017c: 8d 83        	srli	a5, a5, 0x3
   2017e: 01 47        	li	a4, 0x0
   20180: d5 b7        	j	0x20164 <__multf3+0x582>
   20182: 41 8d        	or	a0, a0, s0
   20184: 11 cd        	beqz	a0, 0x201a0 <__multf3+0x5be>
   20186: 89 47        	li	a5, 0x2
   20188: 13 69 19 00  	ori	s2, s2, 0x1
   2018c: 63 83 f9 02  	beq	s3, a5, 0x201b2 <__multf3+0x5d0>
   20190: 8d 47        	li	a5, 0x3
   20192: 63 8c f9 00  	beq	s3, a5, 0x201aa <__multf3+0x5c8>
   20196: 05 45        	li	a0, 0x1
   20198: 63 93 09 00  	bnez	s3, 0x2019e <__multf3+0x5bc>
   2019c: 15 45        	li	a0, 0x5
   2019e: 0d 81        	srli	a0, a0, 0x3
   201a0: 13 69 29 00  	ori	s2, s2, 0x2
   201a4: 81 47        	li	a5, 0x0
   201a6: 01 47        	li	a4, 0x0
   201a8: 9d b5        	j	0x2000e <__multf3+0x42c>
   201aa: 25 45        	li	a0, 0x9
   201ac: 6d da        	beqz	a2, 0x2019e <__multf3+0x5bc>
   201ae: 05 45        	li	a0, 0x1
   201b0: fd b7        	j	0x2019e <__multf3+0x5bc>
   201b2: 25 45        	li	a0, 0x9
   201b4: 6d f6        	bnez	a2, 0x2019e <__multf3+0x5bc>
   201b6: e5 bf        	j	0x201ae <__multf3+0x5cc>
   201b8: 41 49        	li	s2, 0x10
   201ba: 85 47        	li	a5, 0x1
   201bc: 21 67        	lui	a4, 0x8
   201be: be 17        	slli	a5, a5, 0x2f
   201c0: 01 45        	li	a0, 0x0
   201c2: 7d 17        	addi	a4, a4, -0x1
   201c4: 01 46        	li	a2, 0x0
   201c6: a1 b5        	j	0x2000e <__multf3+0x42c>
   201c8: 21 67        	lui	a4, 0x8
   201ca: 81 47        	li	a5, 0x0
   201cc: 01 45        	li	a0, 0x0
   201ce: 7d 17        	addi	a4, a4, -0x1
   201d0: 3d bd        	j	0x2000e <__multf3+0x42c>
   201d2: 81 47        	li	a5, 0x0
   201d4: 01 45        	li	a0, 0x0
   201d6: c1 bf        	j	0x201a6 <__multf3+0x5c4>

00000000000201d8 <__subtf3>:
   201d8: 79 71        	addi	sp, sp, -0x30
   201da: 06 f4        	sd	ra, 0x28(sp)
   201dc: 22 f0        	sd	s0, 0x20(sp)
   201de: 26 ec        	sd	s1, 0x18(sp)
   201e0: 4a e8        	sd	s2, 0x10(sp)
   201e2: 4e e4        	sd	s3, 0x8(sp)
   201e4: 52 e0        	sd	s4, 0x0(sp)
   201e6: f3 24 20 00  	frrm	s1
   201ea: 7d 57        	li	a4, -0x1
   201ec: 41 83        	srli	a4, a4, 0x10
   201ee: 13 d8 05 03  	srli	a6, a1, 0x30
   201f2: 13 d9 f5 03  	srli	s2, a1, 0x3f
   201f6: f9 8d        	and	a1, a1, a4
   201f8: 8e 05        	slli	a1, a1, 0x3
   201fa: 93 58 d5 03  	srli	a7, a0, 0x3d
   201fe: a1 67        	lui	a5, 0x8
   20200: fd 17        	addi	a5, a5, -0x1
   20202: 13 d3 06 03  	srli	t1, a3, 0x30
   20206: b3 e8 b8 00  	or	a7, a7, a1
   2020a: 93 d5 f6 03  	srli	a1, a3, 0x3f
   2020e: f9 8e        	and	a3, a3, a4
   20210: 33 78 f8 00  	and	a6, a6, a5
   20214: 13 57 d6 03  	srli	a4, a2, 0x3d
   20218: 8e 06        	slli	a3, a3, 0x3
   2021a: 33 73 f3 00  	and	t1, t1, a5
   2021e: 81 24        	sext.w	s1, s1
   20220: c2 89        	mv	s3, a6
   20222: 0e 05        	slli	a0, a0, 0x3
   20224: 55 8f        	or	a4, a4, a3
   20226: 0e 06        	slli	a2, a2, 0x3
   20228: 63 15 f3 00  	bne	t1, a5, 0x20232 <__subtf3+0x5a>
   2022c: b3 67 c7 00  	or	a5, a4, a2
   20230: 99 e3        	bnez	a5, 0x20236 <__subtf3+0x5e>
   20232: 93 c5 15 00  	xori	a1, a1, 0x1
   20236: bb 06 68 40  	subw	a3, a6, t1
   2023a: 21 6e        	lui	t3, 0x8
   2023c: 9b 87 06 00  	sext.w	a5, a3
   20240: 7d 1e        	addi	t3, t3, -0x1
   20242: 63 97 25 2b  	bne	a1, s2, 0x204f0 <__subtf3+0x318>
   20246: 63 58 f0 0e  	blez	a5, 0x20336 <__subtf3+0x15e>
   2024a: 63 19 03 06  	bnez	t1, 0x202bc <__subtf3+0xe4>
   2024e: b3 67 c7 00  	or	a5, a4, a2
   20252: 91 e7        	bnez	a5, 0x2025e <__subtf3+0x86>
   20254: 63 07 c8 05  	beq	a6, t3, 0x202a2 <__subtf3+0xca>
   20258: 46 87        	mv	a4, a7
   2025a: 2a 86        	mv	a2, a0
   2025c: f9 ab        	j	0x2083a <__subtf3+0x662>
   2025e: 9b 87 f6 ff  	addiw	a5, a3, -0x1
   20262: 95 ef        	bnez	a5, 0x2029e <__subtf3+0xc6>
   20264: 2a 96        	add	a2, a2, a0
   20266: 46 97        	add	a4, a4, a7
   20268: 33 35 a6 00  	sltu	a0, a2, a0
   2026c: 2a 97        	add	a4, a4, a0
   2026e: 93 16 c7 00  	slli	a3, a4, 0xc
   20272: 81 47        	li	a5, 0x0
   20274: 63 d4 06 0e  	bgez	a3, 0x2035c <__subtf3+0x184>
   20278: a1 66        	lui	a3, 0x8
   2027a: 85 09        	addi	s3, s3, 0x1
   2027c: fd 16        	addi	a3, a3, -0x1
   2027e: 63 85 d9 24  	beq	s3, a3, 0x204c8 <__subtf3+0x2f0>
   20282: fd 56        	li	a3, -0x1
   20284: ce 16        	slli	a3, a3, 0x33
   20286: fd 16        	addi	a3, a3, -0x1
   20288: f9 8e        	and	a3, a3, a4
   2028a: 13 57 16 00  	srli	a4, a2, 0x1
   2028e: 05 8a        	andi	a2, a2, 0x1
   20290: 51 8f        	or	a4, a4, a2
   20292: 13 96 f6 03  	slli	a2, a3, 0x3f
   20296: 59 8e        	or	a2, a2, a4
   20298: 13 d7 16 00  	srli	a4, a3, 0x1
   2029c: c1 a0        	j	0x2035c <__subtf3+0x184>
   2029e: 63 14 c8 03  	bne	a6, t3, 0x202c6 <__subtf3+0xee>
   202a2: 33 e6 a8 00  	or	a2, a7, a0
   202a6: 63 0c 06 6c  	beqz	a2, 0x2097e <__subtf3+0x7a6>
   202aa: 93 d7 28 03  	srli	a5, a7, 0x32
   202ae: 93 c7 17 00  	xori	a5, a5, 0x1
   202b2: 85 8b        	andi	a5, a5, 0x1
   202b4: 92 07        	slli	a5, a5, 0x4
   202b6: 46 87        	mv	a4, a7
   202b8: 2a 86        	mv	a2, a0
   202ba: 4d a0        	j	0x2035c <__subtf3+0x184>
   202bc: e3 03 c8 ff  	beq	a6, t3, 0x202a2 <__subtf3+0xca>
   202c0: 85 46        	li	a3, 0x1
   202c2: ce 16        	slli	a3, a3, 0x33
   202c4: 55 8f        	or	a4, a4, a3
   202c6: 93 06 40 07  	li	a3, 0x74
   202ca: 63 c1 f6 06  	blt	a3, a5, 0x2032c <__subtf3+0x154>
   202ce: 93 06 f0 03  	li	a3, 0x3f
   202d2: 63 c9 f6 02  	blt	a3, a5, 0x20304 <__subtf3+0x12c>
   202d6: 93 05 00 04  	li	a1, 0x40
   202da: 9d 9d        	subw	a1, a1, a5
   202dc: b3 16 b7 00  	sll	a3, a4, a1
   202e0: 33 58 f6 00  	srl	a6, a2, a5
   202e4: b3 15 b6 00  	sll	a1, a2, a1
   202e8: b3 e6 06 01  	or	a3, a3, a6
   202ec: b3 35 b0 00  	snez	a1, a1
   202f0: cd 8e        	or	a3, a3, a1
   202f2: 33 57 f7 00  	srl	a4, a4, a5
   202f6: 36 95        	add	a0, a0, a3
   202f8: 46 97        	add	a4, a4, a7
   202fa: b3 36 d5 00  	sltu	a3, a0, a3
   202fe: 2a 86        	mv	a2, a0
   20300: 36 97        	add	a4, a4, a3
   20302: b5 b7        	j	0x2026e <__subtf3+0x96>
   20304: 9b 86 07 fc  	addiw	a3, a5, -0x40
   20308: 13 08 00 04  	li	a6, 0x40
   2030c: b3 56 d7 00  	srl	a3, a4, a3
   20310: 81 45        	li	a1, 0x0
   20312: 63 87 07 01  	beq	a5, a6, 0x20320 <__subtf3+0x148>
   20316: 93 05 00 08  	li	a1, 0x80
   2031a: 9d 9d        	subw	a1, a1, a5
   2031c: b3 15 b7 00  	sll	a1, a4, a1
   20320: d1 8d        	or	a1, a1, a2
   20322: b3 35 b0 00  	snez	a1, a1
   20326: cd 8e        	or	a3, a3, a1
   20328: 01 47        	li	a4, 0x0
   2032a: f1 b7        	j	0x202f6 <__subtf3+0x11e>
   2032c: b3 66 c7 00  	or	a3, a4, a2
   20330: b3 36 d0 00  	snez	a3, a3
   20334: d5 bf        	j	0x20328 <__subtf3+0x150>
   20336: e9 c7        	beqz	a5, 0x20400 <__subtf3+0x228>
   20338: 63 12 08 08  	bnez	a6, 0x203bc <__subtf3+0x1e4>
   2033c: b3 e7 a8 00  	or	a5, a7, a0
   20340: 95 e3        	bnez	a5, 0x20364 <__subtf3+0x18c>
   20342: 63 1c c3 63  	bne	t1, t3, 0x2097a <__subtf3+0x7a2>
   20346: b3 67 c7 00  	or	a5, a4, a2
   2034a: 63 86 07 62  	beqz	a5, 0x20976 <__subtf3+0x79e>
   2034e: 93 57 27 03  	srli	a5, a4, 0x32
   20352: 93 c7 17 00  	xori	a5, a5, 0x1
   20356: 85 8b        	andi	a5, a5, 0x1
   20358: 92 07        	slli	a5, a5, 0x4
   2035a: 9a 89        	mv	s3, t1
   2035c: ba 88        	mv	a7, a4
   2035e: 32 85        	mv	a0, a2
   20360: 01 47        	li	a4, 0x0
   20362: 31 ab        	j	0x2087e <__subtf3+0x6a6>
   20364: 93 c7 f6 ff  	not	a5, a3
   20368: 81 27        	sext.w	a5, a5
   2036a: 81 eb        	bnez	a5, 0x2037a <__subtf3+0x1a2>
   2036c: 2a 96        	add	a2, a2, a0
   2036e: 46 97        	add	a4, a4, a7
   20370: 33 35 a6 00  	sltu	a0, a2, a0
   20374: 2a 97        	add	a4, a4, a0
   20376: 9a 89        	mv	s3, t1
   20378: dd bd        	j	0x2026e <__subtf3+0x96>
   2037a: e3 06 c3 fd  	beq	t1, t3, 0x20346 <__subtf3+0x16e>
   2037e: 93 06 40 07  	li	a3, 0x74
   20382: 63 ca f6 06  	blt	a3, a5, 0x203f6 <__subtf3+0x21e>
   20386: 93 06 f0 03  	li	a3, 0x3f
   2038a: 63 c2 f6 04  	blt	a3, a5, 0x203ce <__subtf3+0x1f6>
   2038e: 93 05 00 04  	li	a1, 0x40
   20392: 9d 9d        	subw	a1, a1, a5
   20394: b3 96 b8 00  	sll	a3, a7, a1
   20398: 33 58 f5 00  	srl	a6, a0, a5
   2039c: b3 15 b5 00  	sll	a1, a0, a1
   203a0: b3 e6 06 01  	or	a3, a3, a6
   203a4: b3 35 b0 00  	snez	a1, a1
   203a8: cd 8e        	or	a3, a3, a1
   203aa: b3 d7 f8 00  	srl	a5, a7, a5
   203ae: 36 96        	add	a2, a2, a3
   203b0: ba 97        	add	a5, a5, a4
   203b2: b3 36 d6 00  	sltu	a3, a2, a3
   203b6: 33 87 d7 00  	add	a4, a5, a3
   203ba: 75 bf        	j	0x20376 <__subtf3+0x19e>
   203bc: e3 05 c3 f9  	beq	t1, t3, 0x20346 <__subtf3+0x16e>
   203c0: bb 07 d0 40  	negw	a5, a3
   203c4: 85 46        	li	a3, 0x1
   203c6: ce 16        	slli	a3, a3, 0x33
   203c8: b3 e8 d8 00  	or	a7, a7, a3
   203cc: 4d bf        	j	0x2037e <__subtf3+0x1a6>
   203ce: 9b 86 07 fc  	addiw	a3, a5, -0x40
   203d2: 13 08 00 04  	li	a6, 0x40
   203d6: b3 d6 d8 00  	srl	a3, a7, a3
   203da: 81 45        	li	a1, 0x0
   203dc: 63 87 07 01  	beq	a5, a6, 0x203ea <__subtf3+0x212>
   203e0: 93 05 00 08  	li	a1, 0x80
   203e4: 9d 9d        	subw	a1, a1, a5
   203e6: b3 95 b8 00  	sll	a1, a7, a1
   203ea: c9 8d        	or	a1, a1, a0
   203ec: b3 35 b0 00  	snez	a1, a1
   203f0: cd 8e        	or	a3, a3, a1
   203f2: 81 47        	li	a5, 0x0
   203f4: 6d bf        	j	0x203ae <__subtf3+0x1d6>
   203f6: b3 e6 a8 00  	or	a3, a7, a0
   203fa: b3 36 d0 00  	snez	a3, a3
   203fe: d5 bf        	j	0x203f2 <__subtf3+0x21a>
   20400: 93 06 18 00  	addi	a3, a6, 0x1
   20404: 93 9e 16 03  	slli	t4, a3, 0x31
   20408: a1 65        	lui	a1, 0x8
   2040a: 93 de 2e 03  	srli	t4, t4, 0x32
   2040e: f9 15        	addi	a1, a1, -0x2
   20410: 63 9d 0e 06  	bnez	t4, 0x2048a <__subtf3+0x2b2>
   20414: b3 e6 a8 00  	or	a3, a7, a0
   20418: 63 19 08 02  	bnez	a6, 0x2044a <__subtf3+0x272>
   2041c: 63 88 06 56  	beqz	a3, 0x2098c <__subtf3+0x7b4>
   20420: b3 66 c7 00  	or	a3, a4, a2
   20424: 63 88 06 56  	beqz	a3, 0x20994 <__subtf3+0x7bc>
   20428: 2a 96        	add	a2, a2, a0
   2042a: 46 97        	add	a4, a4, a7
   2042c: 33 35 a6 00  	sltu	a0, a2, a0
   20430: b3 08 a7 00  	add	a7, a4, a0
   20434: 13 97 c8 00  	slli	a4, a7, 0xc
   20438: 63 5b 07 26  	bgez	a4, 0x206ae <__subtf3+0x4d6>
   2043c: 7d 57        	li	a4, -0x1
   2043e: 4e 17        	slli	a4, a4, 0x33
   20440: 7d 17        	addi	a4, a4, -0x1
   20442: 33 f7 e8 00  	and	a4, a7, a4
   20446: 85 49        	li	s3, 0x1
   20448: 11 bf        	j	0x2035c <__subtf3+0x184>
   2044a: 63 15 c8 03  	bne	a6, t3, 0x20474 <__subtf3+0x29c>
   2044e: 63 8b 06 54  	beqz	a3, 0x209a4 <__subtf3+0x7cc>
   20452: 93 d7 28 03  	srli	a5, a7, 0x32
   20456: 93 c7 17 00  	xori	a5, a5, 0x1
   2045a: 85 8b        	andi	a5, a5, 0x1
   2045c: 92 07        	slli	a5, a5, 0x4
   2045e: 63 1e 03 01  	bne	t1, a6, 0x2047a <__subtf3+0x2a2>
   20462: b3 65 c7 00  	or	a1, a4, a2
   20466: 89 c9        	beqz	a1, 0x20478 <__subtf3+0x2a0>
   20468: 93 15 d7 00  	slli	a1, a4, 0xd
   2046c: 63 c6 05 00  	bltz	a1, 0x20478 <__subtf3+0x2a0>
   20470: c1 47        	li	a5, 0x10
   20472: 19 a0        	j	0x20478 <__subtf3+0x2a0>
   20474: e3 07 c3 ff  	beq	t1, t3, 0x20462 <__subtf3+0x28a>
   20478: 91 c6        	beqz	a3, 0x20484 <__subtf3+0x2ac>
   2047a: 51 8f        	or	a4, a4, a2
   2047c: 63 1e 07 2c  	bnez	a4, 0x20758 <__subtf3+0x580>
   20480: 46 87        	mv	a4, a7
   20482: 2a 86        	mv	a2, a0
   20484: a1 69        	lui	s3, 0x8
   20486: fd 19        	addi	s3, s3, -0x1
   20488: d1 bd        	j	0x2035c <__subtf3+0x184>
   2048a: 63 8e c6 01  	beq	a3, t3, 0x204a6 <__subtf3+0x2ce>
   2048e: 2a 96        	add	a2, a2, a0
   20490: 33 35 a6 00  	sltu	a0, a2, a0
   20494: 46 97        	add	a4, a4, a7
   20496: 2a 97        	add	a4, a4, a0
   20498: 93 15 f7 03  	slli	a1, a4, 0x3f
   2049c: 05 82        	srli	a2, a2, 0x1
   2049e: 4d 8e        	or	a2, a2, a1
   204a0: 05 83        	srli	a4, a4, 0x1
   204a2: b6 89        	mv	s3, a3
   204a4: 65 bd        	j	0x2035c <__subtf3+0x184>
   204a6: 99 cc        	beqz	s1, 0x204c4 <__subtf3+0x2ec>
   204a8: 8d 47        	li	a5, 0x3
   204aa: 63 98 f4 00  	bne	s1, a5, 0x204ba <__subtf3+0x2e2>
   204ae: 63 0b 09 00  	beqz	s2, 0x204c4 <__subtf3+0x2ec>
   204b2: 7d 57        	li	a4, -0x1
   204b4: 7d 56        	li	a2, -0x1
   204b6: ae 89        	mv	s3, a1
   204b8: 15 a8        	j	0x204ec <__subtf3+0x314>
   204ba: 89 47        	li	a5, 0x2
   204bc: e3 9b f4 fe  	bne	s1, a5, 0x204b2 <__subtf3+0x2da>
   204c0: e3 09 09 fe  	beqz	s2, 0x204b2 <__subtf3+0x2da>
   204c4: b6 89        	mv	s3, a3
   204c6: 0d a0        	j	0x204e8 <__subtf3+0x310>
   204c8: 85 c0        	beqz	s1, 0x204e8 <__subtf3+0x310>
   204ca: 8d 47        	li	a5, 0x3
   204cc: 63 99 f4 00  	bne	s1, a5, 0x204de <__subtf3+0x306>
   204d0: 63 0c 09 00  	beqz	s2, 0x204e8 <__subtf3+0x310>
   204d4: a1 69        	lui	s3, 0x8
   204d6: 7d 57        	li	a4, -0x1
   204d8: 7d 56        	li	a2, -0x1
   204da: f9 19        	addi	s3, s3, -0x2
   204dc: 01 a8        	j	0x204ec <__subtf3+0x314>
   204de: 89 47        	li	a5, 0x2
   204e0: e3 9a f4 fe  	bne	s1, a5, 0x204d4 <__subtf3+0x2fc>
   204e4: e3 08 09 fe  	beqz	s2, 0x204d4 <__subtf3+0x2fc>
   204e8: 01 47        	li	a4, 0x0
   204ea: 01 46        	li	a2, 0x0
   204ec: 95 47        	li	a5, 0x5
   204ee: bd b5        	j	0x2035c <__subtf3+0x184>
   204f0: 63 58 f0 0a  	blez	a5, 0x205a0 <__subtf3+0x3c8>
   204f4: 63 17 03 06  	bnez	t1, 0x20562 <__subtf3+0x38a>
   204f8: b3 67 c7 00  	or	a5, a4, a2
   204fc: e3 8c 07 d4  	beqz	a5, 0x20254 <__subtf3+0x7c>
   20500: 9b 87 f6 ff  	addiw	a5, a3, -0x1
   20504: 8d e3        	bnez	a5, 0x20526 <__subtf3+0x34e>
   20506: 33 06 c5 40  	sub	a2, a0, a2
   2050a: 33 87 e8 40  	sub	a4, a7, a4
   2050e: 33 35 c5 00  	sltu	a0, a0, a2
   20512: 09 8f        	sub	a4, a4, a0
   20514: 93 17 c7 00  	slli	a5, a4, 0xc
   20518: 63 d1 07 32  	bgez	a5, 0x2083a <__subtf3+0x662>
   2051c: 13 14 d7 00  	slli	s0, a4, 0xd
   20520: 35 80        	srli	s0, s0, 0xd
   20522: 32 8a        	mv	s4, a2
   20524: 9d a4        	j	0x2078a <__subtf3+0x5b2>
   20526: e3 0e c8 d7  	beq	a6, t3, 0x202a2 <__subtf3+0xca>
   2052a: 93 06 40 07  	li	a3, 0x74
   2052e: 63 c4 f6 06  	blt	a3, a5, 0x20596 <__subtf3+0x3be>
   20532: 93 06 f0 03  	li	a3, 0x3f
   20536: 63 cc f6 02  	blt	a3, a5, 0x2056e <__subtf3+0x396>
   2053a: 93 05 00 04  	li	a1, 0x40
   2053e: 9d 9d        	subw	a1, a1, a5
   20540: b3 16 b7 00  	sll	a3, a4, a1
   20544: 33 58 f6 00  	srl	a6, a2, a5
   20548: b3 15 b6 00  	sll	a1, a2, a1
   2054c: b3 e6 06 01  	or	a3, a3, a6
   20550: b3 35 b0 00  	snez	a1, a1
   20554: cd 8e        	or	a3, a3, a1
   20556: 33 57 f7 00  	srl	a4, a4, a5
   2055a: b3 06 d5 40  	sub	a3, a0, a3
   2055e: 36 86        	mv	a2, a3
   20560: 6d b7        	j	0x2050a <__subtf3+0x332>
   20562: e3 00 c8 d5  	beq	a6, t3, 0x202a2 <__subtf3+0xca>
   20566: 85 46        	li	a3, 0x1
   20568: ce 16        	slli	a3, a3, 0x33
   2056a: 55 8f        	or	a4, a4, a3
   2056c: 7d bf        	j	0x2052a <__subtf3+0x352>
   2056e: 9b 86 07 fc  	addiw	a3, a5, -0x40
   20572: 13 08 00 04  	li	a6, 0x40
   20576: b3 56 d7 00  	srl	a3, a4, a3
   2057a: 81 45        	li	a1, 0x0
   2057c: 63 87 07 01  	beq	a5, a6, 0x2058a <__subtf3+0x3b2>
   20580: 93 05 00 08  	li	a1, 0x80
   20584: 9d 9d        	subw	a1, a1, a5
   20586: b3 15 b7 00  	sll	a1, a4, a1
   2058a: d1 8d        	or	a1, a1, a2
   2058c: b3 35 b0 00  	snez	a1, a1
   20590: cd 8e        	or	a3, a3, a1
   20592: 01 47        	li	a4, 0x0
   20594: d9 b7        	j	0x2055a <__subtf3+0x382>
   20596: b3 66 c7 00  	or	a3, a4, a2
   2059a: b3 36 d0 00  	snez	a3, a3
   2059e: d5 bf        	j	0x20592 <__subtf3+0x3ba>
   205a0: f9 cf        	beqz	a5, 0x2067e <__subtf3+0x4a6>
   205a2: 63 19 08 08  	bnez	a6, 0x20634 <__subtf3+0x45c>
   205a6: b3 e7 a8 00  	or	a5, a7, a0
   205aa: 85 e3        	bnez	a5, 0x205ca <__subtf3+0x3f2>
   205ac: 63 1d c3 3d  	bne	t1, t3, 0x20986 <__subtf3+0x7ae>
   205b0: b3 67 c7 00  	or	a5, a4, a2
   205b4: 63 87 07 3c  	beqz	a5, 0x20982 <__subtf3+0x7aa>
   205b8: 93 57 27 03  	srli	a5, a4, 0x32
   205bc: 93 c7 17 00  	xori	a5, a5, 0x1
   205c0: 85 8b        	andi	a5, a5, 0x1
   205c2: 92 07        	slli	a5, a5, 0x4
   205c4: 9a 89        	mv	s3, t1
   205c6: 2e 89        	mv	s2, a1
   205c8: 51 bb        	j	0x2035c <__subtf3+0x184>
   205ca: 93 c7 f6 ff  	not	a5, a3
   205ce: 81 27        	sext.w	a5, a5
   205d0: 81 ef        	bnez	a5, 0x205e8 <__subtf3+0x410>
   205d2: 33 05 a6 40  	sub	a0, a2, a0
   205d6: b3 37 a6 00  	sltu	a5, a2, a0
   205da: 33 07 17 41  	sub	a4, a4, a7
   205de: 2a 86        	mv	a2, a0
   205e0: 1d 8f        	sub	a4, a4, a5
   205e2: 9a 89        	mv	s3, t1
   205e4: 2e 89        	mv	s2, a1
   205e6: 3d b7        	j	0x20514 <__subtf3+0x33c>
   205e8: e3 04 c3 fd  	beq	t1, t3, 0x205b0 <__subtf3+0x3d8>
   205ec: 93 06 40 07  	li	a3, 0x74
   205f0: 63 c2 f6 08  	blt	a3, a5, 0x20674 <__subtf3+0x49c>
   205f4: 93 06 f0 03  	li	a3, 0x3f
   205f8: 63 c7 f6 04  	blt	a3, a5, 0x20646 <__subtf3+0x46e>
   205fc: 13 08 00 04  	li	a6, 0x40
   20600: 3b 08 f8 40  	subw	a6, a6, a5
   20604: b3 96 08 01  	sll	a3, a7, a6
   20608: 33 5e f5 00  	srl	t3, a0, a5
   2060c: 33 18 05 01  	sll	a6, a0, a6
   20610: b3 e6 c6 01  	or	a3, a3, t3
   20614: 33 38 00 01  	snez	a6, a6
   20618: b3 e6 06 01  	or	a3, a3, a6
   2061c: b3 d7 f8 00  	srl	a5, a7, a5
   20620: b3 06 d6 40  	sub	a3, a2, a3
   20624: 33 35 d6 00  	sltu	a0, a2, a3
   20628: b3 07 f7 40  	sub	a5, a4, a5
   2062c: 36 86        	mv	a2, a3
   2062e: 33 87 a7 40  	sub	a4, a5, a0
   20632: 45 bf        	j	0x205e2 <__subtf3+0x40a>
   20634: e3 0e c3 f7  	beq	t1, t3, 0x205b0 <__subtf3+0x3d8>
   20638: bb 07 d0 40  	negw	a5, a3
   2063c: 85 46        	li	a3, 0x1
   2063e: ce 16        	slli	a3, a3, 0x33
   20640: b3 e8 d8 00  	or	a7, a7, a3
   20644: 65 b7        	j	0x205ec <__subtf3+0x414>
   20646: 9b 86 07 fc  	addiw	a3, a5, -0x40
   2064a: 13 0e 00 04  	li	t3, 0x40
   2064e: b3 d6 d8 00  	srl	a3, a7, a3
   20652: 01 48        	li	a6, 0x0
   20654: 63 88 c7 01  	beq	a5, t3, 0x20664 <__subtf3+0x48c>
   20658: 13 08 00 08  	li	a6, 0x80
   2065c: 3b 08 f8 40  	subw	a6, a6, a5
   20660: 33 98 08 01  	sll	a6, a7, a6
   20664: 33 68 a8 00  	or	a6, a6, a0
   20668: 33 38 00 01  	snez	a6, a6
   2066c: b3 e6 06 01  	or	a3, a3, a6
   20670: 81 47        	li	a5, 0x0
   20672: 7d b7        	j	0x20620 <__subtf3+0x448>
   20674: b3 e6 a8 00  	or	a3, a7, a0
   20678: b3 36 d0 00  	snez	a3, a3
   2067c: d5 bf        	j	0x20670 <__subtf3+0x498>
   2067e: 93 06 18 00  	addi	a3, a6, 0x1
   20682: 93 9e 16 03  	slli	t4, a3, 0x31
   20686: 93 de 2e 03  	srli	t4, t4, 0x32
   2068a: 63 9c 0e 0c  	bnez	t4, 0x20762 <__subtf3+0x58a>
   2068e: b3 66 c7 00  	or	a3, a4, a2
   20692: b3 ee a8 00  	or	t4, a7, a0
   20696: 63 17 08 06  	bnez	a6, 0x20704 <__subtf3+0x52c>
   2069a: 63 92 0e 02  	bnez	t4, 0x206be <__subtf3+0x4e6>
   2069e: 63 99 06 2e  	bnez	a3, 0x20990 <__subtf3+0x7b8>
   206a2: 13 89 e4 ff  	addi	s2, s1, -0x2
   206a6: 13 39 19 00  	seqz	s2, s2
   206aa: 81 48        	li	a7, 0x0
   206ac: 01 46        	li	a2, 0x0
   206ae: 33 e5 c8 00  	or	a0, a7, a2
   206b2: 63 16 05 18  	bnez	a0, 0x2083e <__subtf3+0x666>
   206b6: 81 48        	li	a7, 0x0
   206b8: 81 49        	li	s3, 0x0
   206ba: 81 47        	li	a5, 0x0
   206bc: 0d a4        	j	0x208de <__subtf3+0x706>
   206be: 63 8b 06 2c  	beqz	a3, 0x20994 <__subtf3+0x7bc>
   206c2: b3 06 c5 40  	sub	a3, a0, a2
   206c6: 33 38 d5 00  	sltu	a6, a0, a3
   206ca: b3 87 e8 40  	sub	a5, a7, a4
   206ce: b3 87 07 41  	sub	a5, a5, a6
   206d2: 13 98 c7 00  	slli	a6, a5, 0xc
   206d6: 63 5d 08 00  	bgez	a6, 0x206f0 <__subtf3+0x518>
   206da: 33 05 a6 40  	sub	a0, a2, a0
   206de: b3 37 a6 00  	sltu	a5, a2, a0
   206e2: 33 07 17 41  	sub	a4, a4, a7
   206e6: 2a 86        	mv	a2, a0
   206e8: b3 08 f7 40  	sub	a7, a4, a5
   206ec: 2e 89        	mv	s2, a1
   206ee: c1 b7        	j	0x206ae <__subtf3+0x4d6>
   206f0: 33 e6 f6 00  	or	a2, a3, a5
   206f4: 63 12 06 2a  	bnez	a2, 0x20998 <__subtf3+0x7c0>
   206f8: 13 89 e4 ff  	addi	s2, s1, -0x2
   206fc: 13 39 19 00  	seqz	s2, s2
   20700: 81 48        	li	a7, 0x0
   20702: 75 b7        	j	0x206ae <__subtf3+0x4d6>
   20704: 63 19 c8 03  	bne	a6, t3, 0x20736 <__subtf3+0x55e>
   20708: 63 8b 0e 28  	beqz	t4, 0x2099e <__subtf3+0x7c6>
   2070c: 93 d7 28 03  	srli	a5, a7, 0x32
   20710: 93 c7 17 00  	xori	a5, a5, 0x1
   20714: 85 8b        	andi	a5, a5, 0x1
   20716: 92 07        	slli	a5, a5, 0x4
   20718: 63 1e 03 03  	bne	t1, a6, 0x20754 <__subtf3+0x57c>
   2071c: 99 ce        	beqz	a3, 0x2073a <__subtf3+0x562>
   2071e: 05 48        	li	a6, 0x1
   20720: 13 13 d7 00  	slli	t1, a4, 0xd
   20724: 4a 18        	slli	a6, a6, 0x32
   20726: 63 4a 03 00  	bltz	t1, 0x2073a <__subtf3+0x562>
   2072a: 2e 89        	mv	s2, a1
   2072c: 63 80 0e 02  	beqz	t4, 0x2074c <__subtf3+0x574>
   20730: 01 49        	li	s2, 0x0
   20732: 42 87        	mv	a4, a6
   20734: 19 a8        	j	0x2074a <__subtf3+0x572>
   20736: e3 03 c3 ff  	beq	t1, t3, 0x2071c <__subtf3+0x544>
   2073a: 63 9d 0e 00  	bnez	t4, 0x20754 <__subtf3+0x57c>
   2073e: 2e 89        	mv	s2, a1
   20740: e3 92 06 d4  	bnez	a3, 0x20484 <__subtf3+0x2ac>
   20744: 05 47        	li	a4, 0x1
   20746: 01 49        	li	s2, 0x0
   20748: 4a 17        	slli	a4, a4, 0x32
   2074a: 01 46        	li	a2, 0x0
   2074c: a1 69        	lui	s3, 0x8
   2074e: fd 19        	addi	s3, s3, -0x1
   20750: c1 47        	li	a5, 0x10
   20752: 29 b1        	j	0x2035c <__subtf3+0x184>
   20754: e3 86 06 d2  	beqz	a3, 0x20480 <__subtf3+0x2a8>
   20758: 05 47        	li	a4, 0x1
   2075a: 01 49        	li	s2, 0x0
   2075c: 4a 17        	slli	a4, a4, 0x32
   2075e: 01 46        	li	a2, 0x0
   20760: 15 b3        	j	0x20484 <__subtf3+0x2ac>
   20762: b3 07 c5 40  	sub	a5, a0, a2
   20766: b3 36 f5 00  	sltu	a3, a0, a5
   2076a: 33 84 e8 40  	sub	s0, a7, a4
   2076e: 15 8c        	sub	s0, s0, a3
   20770: 93 16 c4 00  	slli	a3, s0, 0xc
   20774: 3e 8a        	mv	s4, a5
   20776: 63 d5 06 06  	bgez	a3, 0x207e0 <__subtf3+0x608>
   2077a: 33 0a a6 40  	sub	s4, a2, a0
   2077e: 33 04 17 41  	sub	s0, a4, a7
   20782: 33 36 46 01  	sltu	a2, a2, s4
   20786: 11 8c        	sub	s0, s0, a2
   20788: 2e 89        	mv	s2, a1
   2078a: 39 cc        	beqz	s0, 0x207e8 <__subtf3+0x610>
   2078c: 22 85        	mv	a0, s0
   2078e: ef 00 00 58  	jal	0x20d0e <__clzdi2>
   20792: 1b 06 45 ff  	addiw	a2, a0, -0xc
   20796: 13 07 00 04  	li	a4, 0x40
   2079a: 11 9f        	subw	a4, a4, a2
   2079c: 33 14 c4 00  	sll	s0, s0, a2
   207a0: 33 57 ea 00  	srl	a4, s4, a4
   207a4: 41 8f        	or	a4, a4, s0
   207a6: 33 14 ca 00  	sll	s0, s4, a2
   207aa: 63 41 36 09  	blt	a2, s3, 0x2082c <__subtf3+0x654>
   207ae: 3b 06 36 41  	subw	a2, a2, s3
   207b2: 9b 08 16 00  	addiw	a7, a2, 0x1
   207b6: 93 07 f0 03  	li	a5, 0x3f
   207ba: 63 c5 17 05  	blt	a5, a7, 0x20804 <__subtf3+0x62c>
   207be: 93 07 00 04  	li	a5, 0x40
   207c2: bb 87 17 41  	subw	a5, a5, a7
   207c6: 33 16 f7 00  	sll	a2, a4, a5
   207ca: b3 56 14 01  	srl	a3, s0, a7
   207ce: b3 17 f4 00  	sll	a5, s0, a5
   207d2: 55 8e        	or	a2, a2, a3
   207d4: b3 37 f0 00  	snez	a5, a5
   207d8: 5d 8e        	or	a2, a2, a5
   207da: b3 58 17 01  	srl	a7, a4, a7
   207de: c1 bd        	j	0x206ae <__subtf3+0x4d6>
   207e0: 33 e6 87 00  	or	a2, a5, s0
   207e4: 5d f2        	bnez	a2, 0x2078a <__subtf3+0x5b2>
   207e6: 09 bf        	j	0x206f8 <__subtf3+0x520>
   207e8: 52 85        	mv	a0, s4
   207ea: ef 00 40 52  	jal	0x20d0e <__clzdi2>
   207ee: 1b 06 45 03  	addiw	a2, a0, 0x34
   207f2: 93 07 f0 03  	li	a5, 0x3f
   207f6: e3 d0 c7 fa  	bge	a5, a2, 0x20796 <__subtf3+0x5be>
   207fa: 1b 07 45 ff  	addiw	a4, a0, -0xc
   207fe: 33 17 ea 00  	sll	a4, s4, a4
   20802: 65 b7        	j	0x207aa <__subtf3+0x5d2>
   20804: 1b 06 16 fc  	addiw	a2, a2, -0x3f
   20808: 93 05 00 04  	li	a1, 0x40
   2080c: 33 56 c7 00  	srl	a2, a4, a2
   20810: 81 47        	li	a5, 0x0
   20812: 63 88 b8 00  	beq	a7, a1, 0x20822 <__subtf3+0x64a>
   20816: 93 07 00 08  	li	a5, 0x80
   2081a: bb 87 17 41  	subw	a5, a5, a7
   2081e: b3 17 f7 00  	sll	a5, a4, a5
   20822: c1 8f        	or	a5, a5, s0
   20824: b3 37 f0 00  	snez	a5, a5
   20828: 5d 8e        	or	a2, a2, a5
   2082a: d9 bd        	j	0x20700 <__subtf3+0x528>
   2082c: fd 57        	li	a5, -0x1
   2082e: ce 17        	slli	a5, a5, 0x33
   20830: fd 17        	addi	a5, a5, -0x1
   20832: b3 89 c9 40  	sub	s3, s3, a2
   20836: 7d 8f        	and	a4, a4, a5
   20838: 22 86        	mv	a2, s0
   2083a: 81 47        	li	a5, 0x0
   2083c: 05 b6        	j	0x2035c <__subtf3+0x184>
   2083e: 93 16 16 00  	slli	a3, a2, 0x1
   20842: 93 57 f6 03  	srli	a5, a2, 0x3f
   20846: 13 97 18 00  	slli	a4, a7, 0x1
   2084a: 93 f5 76 00  	andi	a1, a3, 0x7
   2084e: 3e 97        	add	a4, a4, a5
   20850: 81 47        	li	a5, 0x0
   20852: 85 c1        	beqz	a1, 0x20872 <__subtf3+0x69a>
   20854: 89 47        	li	a5, 0x2
   20856: 63 84 f4 06  	beq	s1, a5, 0x208be <__subtf3+0x6e6>
   2085a: 8d 47        	li	a5, 0x3
   2085c: 63 88 f4 04  	beq	s1, a5, 0x208ac <__subtf3+0x6d4>
   20860: 85 47        	li	a5, 0x1
   20862: 81 e8        	bnez	s1, 0x20872 <__subtf3+0x69a>
   20864: 93 f5 f6 00  	andi	a1, a3, 0xf
   20868: 11 45        	li	a0, 0x4
   2086a: 93 b6 c6 ff  	sltiu	a3, a3, -0x4
   2086e: 63 94 a5 04  	bne	a1, a0, 0x208b6 <__subtf3+0x6de>
   20872: 51 93        	srli	a4, a4, 0x34
   20874: 13 47 17 00  	xori	a4, a4, 0x1
   20878: 05 8b        	andi	a4, a4, 0x1
   2087a: 32 85        	mv	a0, a2
   2087c: 81 49        	li	s3, 0x0
   2087e: 93 76 76 00  	andi	a3, a2, 0x7
   20882: a9 ca        	beqz	a3, 0x208d4 <__subtf3+0x6fc>
   20884: 89 46        	li	a3, 0x2
   20886: 93 e7 17 00  	ori	a5, a5, 0x1
   2088a: 63 83 d4 04  	beq	s1, a3, 0x208d0 <__subtf3+0x6f8>
   2088e: 8d 46        	li	a3, 0x3
   20890: 63 8b d4 02  	beq	s1, a3, 0x208c6 <__subtf3+0x6ee>
   20894: a1 e0        	bnez	s1, 0x208d4 <__subtf3+0x6fc>
   20896: 93 76 f6 00  	andi	a3, a2, 0xf
   2089a: 91 45        	li	a1, 0x4
   2089c: 63 8c b6 02  	beq	a3, a1, 0x208d4 <__subtf3+0x6fc>
   208a0: 13 05 46 00  	addi	a0, a2, 0x4
   208a4: 33 36 c5 00  	sltu	a2, a0, a2
   208a8: b2 98        	add	a7, a7, a2
   208aa: 2d a0        	j	0x208d4 <__subtf3+0x6fc>
   208ac: 85 47        	li	a5, 0x1
   208ae: e3 12 09 fc  	bnez	s2, 0x20872 <__subtf3+0x69a>
   208b2: 93 b6 86 ff  	sltiu	a3, a3, -0x8
   208b6: 93 c6 16 00  	xori	a3, a3, 0x1
   208ba: 36 97        	add	a4, a4, a3
   208bc: 5d bf        	j	0x20872 <__subtf3+0x69a>
   208be: 85 47        	li	a5, 0x1
   208c0: e3 09 09 fa  	beqz	s2, 0x20872 <__subtf3+0x69a>
   208c4: fd b7        	j	0x208b2 <__subtf3+0x6da>
   208c6: 63 17 09 00  	bnez	s2, 0x208d4 <__subtf3+0x6fc>
   208ca: 13 05 86 00  	addi	a0, a2, 0x8
   208ce: d9 bf        	j	0x208a4 <__subtf3+0x6cc>
   208d0: e3 1d 09 fe  	bnez	s2, 0x208ca <__subtf3+0x6f2>
   208d4: 09 c7        	beqz	a4, 0x208de <__subtf3+0x706>
   208d6: 13 f7 17 00  	andi	a4, a5, 0x1
   208da: 06 07        	slli	a4, a4, 0x1
   208dc: d9 8f        	or	a5, a5, a4
   208de: 13 97 c8 00  	slli	a4, a7, 0xc
   208e2: 63 5c 07 00  	bgez	a4, 0x208fa <__subtf3+0x722>
   208e6: 21 67        	lui	a4, 0x8
   208e8: 85 09        	addi	s3, s3, 0x1
   208ea: 7d 17        	addi	a4, a4, -0x1
   208ec: 63 81 e9 06  	beq	s3, a4, 0x2094e <__subtf3+0x776>
   208f0: 7d 57        	li	a4, -0x1
   208f2: 4e 17        	slli	a4, a4, 0x33
   208f4: 7d 17        	addi	a4, a4, -0x1
   208f6: b3 f8 e8 00  	and	a7, a7, a4
   208fa: 13 97 d8 03  	slli	a4, a7, 0x3d
   208fe: 0d 81        	srli	a0, a0, 0x3
   20900: 59 8d        	or	a0, a0, a4
   20902: 21 67        	lui	a4, 0x8
   20904: 7d 17        	addi	a4, a4, -0x1
   20906: 93 d8 38 00  	srli	a7, a7, 0x3
   2090a: 63 9a e9 00  	bne	s3, a4, 0x2091e <__subtf3+0x746>
   2090e: 33 65 15 01  	or	a0, a0, a7
   20912: 81 48        	li	a7, 0x0
   20914: 09 c5        	beqz	a0, 0x2091e <__subtf3+0x746>
   20916: 85 48        	li	a7, 0x1
   20918: be 18        	slli	a7, a7, 0x2f
   2091a: 01 45        	li	a0, 0x0
   2091c: 01 49        	li	s2, 0x0
   2091e: c6 19        	slli	s3, s3, 0x31
   20920: 1b 19 f9 00  	slliw	s2, s2, 0xf
   20924: 93 d9 19 03  	srli	s3, s3, 0x31
   20928: 93 95 08 01  	slli	a1, a7, 0x10
   2092c: b3 e9 29 01  	or	s3, s3, s2
   20930: c2 19        	slli	s3, s3, 0x30
   20932: c1 81        	srli	a1, a1, 0x10
   20934: b3 e5 35 01  	or	a1, a1, s3
   20938: 99 c3        	beqz	a5, 0x2093e <__subtf3+0x766>
   2093a: 73 a0 17 00  	csrs	fflags, a5
   2093e: a2 70        	ld	ra, 0x28(sp)
   20940: 02 74        	ld	s0, 0x20(sp)
   20942: e2 64        	ld	s1, 0x18(sp)
   20944: 42 69        	ld	s2, 0x10(sp)
   20946: a2 69        	ld	s3, 0x8(sp)
   20948: 02 6a        	ld	s4, 0x0(sp)
   2094a: 45 61        	addi	sp, sp, 0x30
   2094c: 82 80        	ret
   2094e: 01 45        	li	a0, 0x0
   20950: 99 cc        	beqz	s1, 0x2096e <__subtf3+0x796>
   20952: 0d 47        	li	a4, 0x3
   20954: 63 98 e4 00  	bne	s1, a4, 0x20964 <__subtf3+0x78c>
   20958: 63 0b 09 00  	beqz	s2, 0x2096e <__subtf3+0x796>
   2095c: a1 69        	lui	s3, 0x8
   2095e: 7d 55        	li	a0, -0x1
   20960: f9 19        	addi	s3, s3, -0x2
   20962: 31 a0        	j	0x2096e <__subtf3+0x796>
   20964: 09 47        	li	a4, 0x2
   20966: e3 9b e4 fe  	bne	s1, a4, 0x2095c <__subtf3+0x784>
   2096a: e3 09 09 fe  	beqz	s2, 0x2095c <__subtf3+0x784>
   2096e: 93 e7 57 00  	ori	a5, a5, 0x5
   20972: aa 88        	mv	a7, a0
   20974: 59 b7        	j	0x208fa <__subtf3+0x722>
   20976: 01 47        	li	a4, 0x0
   20978: 01 46        	li	a2, 0x0
   2097a: 9a 89        	mv	s3, t1
   2097c: 7d bd        	j	0x2083a <__subtf3+0x662>
   2097e: 01 47        	li	a4, 0x0
   20980: 6d bd        	j	0x2083a <__subtf3+0x662>
   20982: 01 47        	li	a4, 0x0
   20984: 01 46        	li	a2, 0x0
   20986: 9a 89        	mv	s3, t1
   20988: 2e 89        	mv	s2, a1
   2098a: 45 bd        	j	0x2083a <__subtf3+0x662>
   2098c: ba 88        	mv	a7, a4
   2098e: 05 b3        	j	0x206ae <__subtf3+0x4d6>
   20990: ba 88        	mv	a7, a4
   20992: a9 bb        	j	0x206ec <__subtf3+0x514>
   20994: 2a 86        	mv	a2, a0
   20996: 21 bb        	j	0x206ae <__subtf3+0x4d6>
   20998: be 88        	mv	a7, a5
   2099a: 36 86        	mv	a2, a3
   2099c: 09 bb        	j	0x206ae <__subtf3+0x4d6>
   2099e: e3 10 03 db  	bne	t1, a6, 0x2073e <__subtf3+0x566>
   209a2: ad bb        	j	0x2071c <__subtf3+0x544>
   209a4: e3 1c 03 9b  	bne	t1, a6, 0x2035c <__subtf3+0x184>
   209a8: 6d bc        	j	0x20462 <__subtf3+0x28a>

00000000000209aa <__unordtf2>:
   209aa: 2a 87        	mv	a4, a0
   209ac: f3 27 20 00  	frrm	a5
   209b0: 7d 55        	li	a0, -0x1
   209b2: 93 57 05 01  	srli	a5, a0, 0x10
   209b6: 21 68        	lui	a6, 0x8
   209b8: b3 f8 f5 00  	and	a7, a1, a5
   209bc: 7d 18        	addi	a6, a6, -0x1
   209be: c1 91        	srli	a1, a1, 0x30
   209c0: f5 8f        	and	a5, a5, a3
   209c2: b3 f5 05 01  	and	a1, a1, a6
   209c6: c1 92        	srli	a3, a3, 0x30
   209c8: b3 f6 06 01  	and	a3, a3, a6
   209cc: 63 96 05 01  	bne	a1, a6, 0x209d8 <__unordtf2+0x2e>
   209d0: 33 63 17 01  	or	t1, a4, a7
   209d4: 63 13 03 02  	bnez	t1, 0x209fa <__unordtf2+0x50>
   209d8: 01 45        	li	a0, 0x0
   209da: 63 92 06 05  	bne	a3, a6, 0x20a1e <__unordtf2+0x74>
   209de: 33 68 f6 00  	or	a6, a2, a5
   209e2: 63 0e 08 02  	beqz	a6, 0x20a1e <__unordtf2+0x74>
   209e6: 63 93 d5 02  	bne	a1, a3, 0x20a0c <__unordtf2+0x62>
   209ea: 33 67 17 01  	or	a4, a4, a7
   209ee: 01 cf        	beqz	a4, 0x20a06 <__unordtf2+0x5c>
   209f0: 7d 57        	li	a4, -0x1
   209f2: 45 83        	srli	a4, a4, 0x11
   209f4: 63 71 17 03  	bgeu	a4, a7, 0x20a16 <__unordtf2+0x6c>
   209f8: 39 a0        	j	0x20a06 <__unordtf2+0x5c>
   209fa: 45 81        	srli	a0, a0, 0x11
   209fc: 63 7d 15 01  	bgeu	a0, a7, 0x20a16 <__unordtf2+0x6c>
   20a00: 05 45        	li	a0, 0x1
   20a02: 63 9e b6 00  	bne	a3, a1, 0x20a1e <__unordtf2+0x74>
   20a06: 5d 8e        	or	a2, a2, a5
   20a08: 05 45        	li	a0, 0x1
   20a0a: 11 ca        	beqz	a2, 0x20a1e <__unordtf2+0x74>
   20a0c: 7d 57        	li	a4, -0x1
   20a0e: 45 83        	srli	a4, a4, 0x11
   20a10: 05 45        	li	a0, 0x1
   20a12: 63 66 f7 00  	bltu	a4, a5, 0x20a1e <__unordtf2+0x74>
   20a16: 73 60 18 00  	csrsi	fflags, 0x10
   20a1a: 05 45        	li	a0, 0x1
   20a1c: 82 80        	ret
   20a1e: 82 80        	ret

0000000000020a20 <__fixtfsi>:
   20a20: f3 27 20 00  	frrm	a5
   20a24: 11 67        	lui	a4, 0x4
   20a26: 93 96 15 00  	slli	a3, a1, 0x1
   20a2a: 93 97 05 01  	slli	a5, a1, 0x10
   20a2e: c5 92        	srli	a3, a3, 0x31
   20a30: 79 17        	addi	a4, a4, -0x2
   20a32: c1 83        	srli	a5, a5, 0x10
   20a34: fd 91        	srli	a1, a1, 0x3f
   20a36: 63 47 d7 00  	blt	a4, a3, 0x20a44 <__fixtfsi+0x24>
   20a3a: b1 ee        	bnez	a3, 0x20a96 <__fixtfsi+0x76>
   20a3c: c9 8f        	or	a5, a5, a0
   20a3e: 01 45        	li	a0, 0x0
   20a40: a9 eb        	bnez	a5, 0x20a92 <__fixtfsi+0x72>
   20a42: 82 80        	ret
   20a44: 11 67        	lui	a4, 0x4
   20a46: 75 07        	addi	a4, a4, 0x1d
   20a48: 63 50 d7 02  	bge	a4, a3, 0x20a68 <__fixtfsi+0x48>
   20a4c: b9 c5        	beqz	a1, 0x20a9a <__fixtfsi+0x7a>
   20a4e: 11 67        	lui	a4, 0x4
   20a50: 79 07        	addi	a4, a4, 0x1e
   20a52: 63 9c e6 04  	bne	a3, a4, 0x20aaa <__fixtfsi+0x8a>
   20a56: 13 d7 17 01  	srli	a4, a5, 0x11
   20a5a: 21 eb        	bnez	a4, 0x20aaa <__fixtfsi+0x8a>
   20a5c: be 17        	slli	a5, a5, 0x2f
   20a5e: 5d 8d        	or	a0, a0, a5
   20a60: 21 e9        	bnez	a0, 0x20ab0 <__fixtfsi+0x90>
   20a62: 37 05 00 80  	lui	a0, 0x80000
   20a66: 82 80        	ret
   20a68: 05 47        	li	a4, 0x1
   20a6a: 42 17        	slli	a4, a4, 0x30
   20a6c: d9 8f        	or	a5, a5, a4
   20a6e: 11 66        	lui	a2, 0x4
   20a70: 71 77        	lui	a4, 0xffffc
   20a72: 45 27        	addiw	a4, a4, 0x11
   20a74: 1b 06 f6 02  	addiw	a2, a2, 0x2f
   20a78: 35 9f        	addw	a4, a4, a3
   20a7a: 15 9e        	subw	a2, a2, a3
   20a7c: 33 97 e7 00  	sll	a4, a5, a4
   20a80: b3 d7 c7 00  	srl	a5, a5, a2
   20a84: 49 8f        	or	a4, a4, a0
   20a86: 1b 85 07 00  	sext.w	a0, a5
   20a8a: 99 c1        	beqz	a1, 0x20a90 <__fixtfsi+0x70>
   20a8c: 3b 05 a0 40  	negw	a0, a0
   20a90: 01 cf        	beqz	a4, 0x20aa8 <__fixtfsi+0x88>
   20a92: 85 47        	li	a5, 0x1
   20a94: 01 a8        	j	0x20aa4 <__fixtfsi+0x84>
   20a96: 01 45        	li	a0, 0x0
   20a98: ed bf        	j	0x20a92 <__fixtfsi+0x72>
   20a9a: 37 05 00 80  	lui	a0, 0x80000
   20a9e: 13 45 f5 ff  	not	a0, a0
   20aa2: c1 47        	li	a5, 0x10
   20aa4: 73 a0 17 00  	csrs	fflags, a5
   20aa8: 82 80        	ret
   20aaa: 37 05 00 80  	lui	a0, 0x80000
   20aae: d5 bf        	j	0x20aa2 <__fixtfsi+0x82>
   20ab0: 37 05 00 80  	lui	a0, 0x80000
   20ab4: f9 bf        	j	0x20a92 <__fixtfsi+0x72>

0000000000020ab6 <__floatsitf>:
   20ab6: 01 11        	addi	sp, sp, -0x20
   20ab8: 06 ec        	sd	ra, 0x18(sp)
   20aba: 22 e8        	sd	s0, 0x10(sp)
   20abc: 26 e4        	sd	s1, 0x8(sp)
   20abe: 39 c1        	beqz	a0, 0x20b04 <__floatsitf+0x4e>
   20ac0: 9b 07 05 00  	sext.w	a5, a0
   20ac4: 93 54 f5 03  	srli	s1, a0, 0x3f
   20ac8: 63 54 05 00  	bgez	a0, 0x20ad0 <__floatsitf+0x1a>
   20acc: bb 07 f0 40  	negw	a5, a5
   20ad0: 13 94 07 02  	slli	s0, a5, 0x20
   20ad4: 01 90        	srli	s0, s0, 0x20
   20ad6: 22 85        	mv	a0, s0
   20ad8: ef 00 60 23  	jal	0x20d0e <__clzdi2>
   20adc: 91 65        	lui	a1, 0x4
   20ade: 9b 85 e5 03  	addiw	a1, a1, 0x3e
   20ae2: 89 9d        	subw	a1, a1, a0
   20ae4: 45 35        	addiw	a0, a0, -0xf
   20ae6: b3 17 a4 00  	sll	a5, s0, a0
   20aea: e2 60        	ld	ra, 0x18(sp)
   20aec: 42 64        	ld	s0, 0x10(sp)
   20aee: 9b 94 f4 00  	slliw	s1, s1, 0xf
   20af2: c5 8d        	or	a1, a1, s1
   20af4: c2 07        	slli	a5, a5, 0x10
   20af6: c2 15        	slli	a1, a1, 0x30
   20af8: c1 83        	srli	a5, a5, 0x10
   20afa: a2 64        	ld	s1, 0x8(sp)
   20afc: 01 45        	li	a0, 0x0
   20afe: dd 8d        	or	a1, a1, a5
   20b00: 05 61        	addi	sp, sp, 0x20
   20b02: 82 80        	ret
   20b04: 81 47        	li	a5, 0x0
   20b06: 81 45        	li	a1, 0x0
   20b08: 81 44        	li	s1, 0x0
   20b0a: c5 b7        	j	0x20aea <__floatsitf+0x34>

0000000000020b0c <__extenddftf2>:
   20b0c: 01 11        	addi	sp, sp, -0x20
   20b0e: d3 07 05 e2  	fmv.x.d	a5, fa0
   20b12: 06 ec        	sd	ra, 0x18(sp)
   20b14: 22 e8        	sd	s0, 0x10(sp)
   20b16: 26 e4        	sd	s1, 0x8(sp)
   20b18: 73 27 20 00  	frrm	a4
   20b1c: 13 d5 47 03  	srli	a0, a5, 0x34
   20b20: 13 75 f5 7f  	andi	a0, a0, 0x7ff
   20b24: 13 94 c7 00  	slli	s0, a5, 0xc
   20b28: 93 d4 f7 03  	srli	s1, a5, 0x3f
   20b2c: 93 07 15 00  	addi	a5, a0, 0x1
   20b30: 93 f7 e7 7f  	andi	a5, a5, 0x7fe
   20b34: 31 80        	srli	s0, s0, 0xc
   20b36: 91 cb        	beqz	a5, 0x20b4a <__extenddftf2+0x3e>
   20b38: 91 67        	lui	a5, 0x4
   20b3a: 93 87 07 c0  	addi	a5, a5, -0x400
   20b3e: 93 55 44 00  	srli	a1, s0, 0x4
   20b42: 3e 95        	add	a0, a0, a5
   20b44: 72 14        	slli	s0, s0, 0x3c
   20b46: 81 47        	li	a5, 0x0
   20b48: b1 a8        	j	0x20ba4 <__extenddftf2+0x98>
   20b4a: 1d ed        	bnez	a0, 0x20b88 <__extenddftf2+0x7c>
   20b4c: 81 45        	li	a1, 0x0
   20b4e: 65 dc        	beqz	s0, 0x20b46 <__extenddftf2+0x3a>
   20b50: 22 85        	mv	a0, s0
   20b52: ef 00 c0 1b  	jal	0x20d0e <__clzdi2>
   20b56: 1b 07 05 00  	sext.w	a4, a0
   20b5a: b9 47        	li	a5, 0xe
   20b5c: 63 c0 e7 02  	blt	a5, a4, 0x20b7c <__extenddftf2+0x70>
   20b60: bd 45        	li	a1, 0xf
   20b62: 89 9d        	subw	a1, a1, a0
   20b64: 9b 07 15 03  	addiw	a5, a0, 0x31
   20b68: b3 55 b4 00  	srl	a1, s0, a1
   20b6c: 33 14 f4 00  	sll	s0, s0, a5
   20b70: 91 67        	lui	a5, 0x4
   20b72: 9b 87 c7 c0  	addiw	a5, a5, -0x3f4
   20b76: 3b 85 a7 40  	subw	a0, a5, a0
   20b7a: f1 b7        	j	0x20b46 <__extenddftf2+0x3a>
   20b7c: 9b 05 15 ff  	addiw	a1, a0, -0xf
   20b80: b3 15 b4 00  	sll	a1, s0, a1
   20b84: 01 44        	li	s0, 0x0
   20b86: ed b7        	j	0x20b70 <__extenddftf2+0x64>
   20b88: 15 cc        	beqz	s0, 0x20bc4 <__extenddftf2+0xb8>
   20b8a: 85 47        	li	a5, 0x1
   20b8c: ce 17        	slli	a5, a5, 0x33
   20b8e: 05 47        	li	a4, 0x1
   20b90: b3 37 f4 00  	sltu	a5, s0, a5
   20b94: 93 55 44 00  	srli	a1, s0, 0x4
   20b98: 3e 17        	slli	a4, a4, 0x2f
   20b9a: 21 65        	lui	a0, 0x8
   20b9c: 92 07        	slli	a5, a5, 0x4
   20b9e: 72 14        	slli	s0, s0, 0x3c
   20ba0: d9 8d        	or	a1, a1, a4
   20ba2: 7d 15        	addi	a0, a0, -0x1
   20ba4: 9b 94 f4 00  	slliw	s1, s1, 0xf
   20ba8: c2 05        	slli	a1, a1, 0x10
   20baa: 45 8d        	or	a0, a0, s1
   20bac: 42 15        	slli	a0, a0, 0x30
   20bae: c1 81        	srli	a1, a1, 0x10
   20bb0: c9 8d        	or	a1, a1, a0
   20bb2: 99 c3        	beqz	a5, 0x20bb8 <__extenddftf2+0xac>
   20bb4: 73 60 18 00  	csrsi	fflags, 0x10
   20bb8: e2 60        	ld	ra, 0x18(sp)
   20bba: 22 85        	mv	a0, s0
   20bbc: 42 64        	ld	s0, 0x10(sp)
   20bbe: a2 64        	ld	s1, 0x8(sp)
   20bc0: 05 61        	addi	sp, sp, 0x20
   20bc2: 82 80        	ret
   20bc4: 21 65        	lui	a0, 0x8
   20bc6: 81 45        	li	a1, 0x0
   20bc8: 7d 15        	addi	a0, a0, -0x1
   20bca: b5 bf        	j	0x20b46 <__extenddftf2+0x3a>

0000000000020bcc <__riscv_save_12>:
   20bcc: 59 71        	addi	sp, sp, -0x70
   20bce: 01 43        	li	t1, 0x0
   20bd0: 6e e4        	sd	s11, 0x8(sp)
   20bd2: 19 a0        	j	0x20bd8 <__riscv_save_11+0x4>

0000000000020bd4 <__riscv_save_11>:
   20bd4: 59 71        	addi	sp, sp, -0x70
   20bd6: 05 43        	li	t1, 0x1
   20bd8: 6a e8        	sd	s10, 0x10(sp)
   20bda: 66 ec        	sd	s9, 0x18(sp)
   20bdc: 19 a0        	j	0x20be2 <__riscv_save_9+0x4>

0000000000020bde <__riscv_save_9>:
   20bde: 59 71        	addi	sp, sp, -0x70
   20be0: 09 43        	li	t1, 0x2
   20be2: 62 f0        	sd	s8, 0x20(sp)
   20be4: 5e f4        	sd	s7, 0x28(sp)
   20be6: 19 a0        	j	0x20bec <__riscv_save_7+0x4>

0000000000020be8 <__riscv_save_7>:
   20be8: 59 71        	addi	sp, sp, -0x70
   20bea: 0d 43        	li	t1, 0x3
   20bec: 5a f8        	sd	s6, 0x30(sp)
   20bee: 56 fc        	sd	s5, 0x38(sp)
   20bf0: 19 a0        	j	0x20bf6 <__riscv_save_5+0x4>

0000000000020bf2 <__riscv_save_5>:
   20bf2: 59 71        	addi	sp, sp, -0x70
   20bf4: 11 43        	li	t1, 0x4
   20bf6: d2 e0        	sd	s4, 0x40(sp)
   20bf8: ce e4        	sd	s3, 0x48(sp)
   20bfa: 19 a0        	j	0x20c00 <__riscv_save_3+0x4>

0000000000020bfc <__riscv_save_3>:
   20bfc: 59 71        	addi	sp, sp, -0x70
   20bfe: 15 43        	li	t1, 0x5
   20c00: ca e8        	sd	s2, 0x50(sp)
   20c02: a6 ec        	sd	s1, 0x58(sp)
   20c04: a2 f0        	sd	s0, 0x60(sp)
   20c06: 86 f4        	sd	ra, 0x68(sp)
   20c08: 12 03        	slli	t1, t1, 0x4
   20c0a: 1a 91        	add	sp, sp, t1
   20c0c: 82 82        	jr	t0

0000000000020c0e <__riscv_save_1>:
   20c0e: 41 11        	addi	sp, sp, -0x10
   20c10: 22 e0        	sd	s0, 0x0(sp)
   20c12: 06 e4        	sd	ra, 0x8(sp)
   20c14: 82 82        	jr	t0

0000000000020c16 <__riscv_restore_12>:
   20c16: a2 6d        	ld	s11, 0x8(sp)
   20c18: 41 01        	addi	sp, sp, 0x10

0000000000020c1a <__riscv_restore_11>:
   20c1a: 02 6d        	ld	s10, 0x0(sp)
   20c1c: a2 6c        	ld	s9, 0x8(sp)
   20c1e: 41 01        	addi	sp, sp, 0x10

0000000000020c20 <__riscv_restore_9>:
   20c20: 02 6c        	ld	s8, 0x0(sp)
   20c22: a2 6b        	ld	s7, 0x8(sp)
   20c24: 41 01        	addi	sp, sp, 0x10

0000000000020c26 <__riscv_restore_7>:
   20c26: 02 6b        	ld	s6, 0x0(sp)
   20c28: a2 6a        	ld	s5, 0x8(sp)
   20c2a: 41 01        	addi	sp, sp, 0x10

0000000000020c2c <__riscv_restore_5>:
   20c2c: 02 6a        	ld	s4, 0x0(sp)
   20c2e: a2 69        	ld	s3, 0x8(sp)
   20c30: 41 01        	addi	sp, sp, 0x10

0000000000020c32 <__riscv_restore_3>:
   20c32: 02 69        	ld	s2, 0x0(sp)
   20c34: a2 64        	ld	s1, 0x8(sp)
   20c36: 41 01        	addi	sp, sp, 0x10

0000000000020c38 <__riscv_restore_1>:
   20c38: 02 64        	ld	s0, 0x0(sp)
   20c3a: a2 60        	ld	ra, 0x8(sp)
   20c3c: 41 01        	addi	sp, sp, 0x10
   20c3e: 82 80        	ret

0000000000020c40 <__muldi3>:
   20c40: 2a 86        	mv	a2, a0
   20c42: 01 45        	li	a0, 0x0
   20c44: 93 f6 15 00  	andi	a3, a1, 0x1
   20c48: 91 c2        	beqz	a3, 0x20c4c <__muldi3+0xc>
   20c4a: 32 95        	add	a0, a0, a2
   20c4c: 85 81        	srli	a1, a1, 0x1
   20c4e: 06 06        	slli	a2, a2, 0x1
   20c50: f5 f9        	bnez	a1, 0x20c44 <__muldi3+0x4>
   20c52: 82 80        	ret
   20c54: 00 00        	unimp
   20c56: 00 00        	unimp

0000000000020c58 <__udivsi3>:
   20c58: 02 15        	slli	a0, a0, 0x20
   20c5a: 82 15        	slli	a1, a1, 0x20
   20c5c: 86 82        	mv	t0, ra
   20c5e: ef 00 a0 02  	jal	0x20c88 <__udivdi3>
   20c62: 01 25        	sext.w	a0, a0
   20c64: 82 82        	jr	t0

0000000000020c66 <__umodsi3>:
   20c66: 02 15        	slli	a0, a0, 0x20
   20c68: 82 15        	slli	a1, a1, 0x20
   20c6a: 01 91        	srli	a0, a0, 0x20
   20c6c: 81 91        	srli	a1, a1, 0x20
   20c6e: 86 82        	mv	t0, ra
   20c70: ef 00 80 01  	jal	0x20c88 <__udivdi3>
   20c74: 1b 85 05 00  	sext.w	a0, a1
   20c78: 82 82        	jr	t0

0000000000020c7a <__divsi3>:
   20c7a: fd 52        	li	t0, -0x1
   20c7c: 63 84 55 08  	beq	a1, t0, 0x20d04 <__modsi3+0x28>

0000000000020c80 <__divdi3>:
   20c80: 63 4f 05 02  	bltz	a0, 0x20cbe <__umoddi3+0xa>
   20c84: 63 c4 05 04  	bltz	a1, 0x20ccc <__umoddi3+0x18>

0000000000020c88 <__udivdi3>:
   20c88: 2e 86        	mv	a2, a1
   20c8a: aa 85        	mv	a1, a0
   20c8c: 7d 55        	li	a0, -0x1
   20c8e: 15 c2        	beqz	a2, 0x20cb2 <__udivdi3+0x2a>
   20c90: 85 46        	li	a3, 0x1
   20c92: 63 78 b6 00  	bgeu	a2, a1, 0x20ca2 <__udivdi3+0x1a>
   20c96: 63 56 c0 00  	blez	a2, 0x20ca2 <__udivdi3+0x1a>
   20c9a: 06 06        	slli	a2, a2, 0x1
   20c9c: 86 06        	slli	a3, a3, 0x1
   20c9e: e3 6c b6 fe  	bltu	a2, a1, 0x20c96 <__udivdi3+0xe>
   20ca2: 01 45        	li	a0, 0x0
   20ca4: 63 e4 c5 00  	bltu	a1, a2, 0x20cac <__udivdi3+0x24>
   20ca8: 91 8d        	sub	a1, a1, a2
   20caa: 55 8d        	or	a0, a0, a3
   20cac: 85 82        	srli	a3, a3, 0x1
   20cae: 05 82        	srli	a2, a2, 0x1
   20cb0: f5 fa        	bnez	a3, 0x20ca4 <__udivdi3+0x1c>
   20cb2: 82 80        	ret

0000000000020cb4 <__umoddi3>:
   20cb4: 86 82        	mv	t0, ra
   20cb6: ef f0 3f fd  	jal	0x20c88 <__udivdi3>
   20cba: 2e 85        	mv	a0, a1
   20cbc: 82 82        	jr	t0
   20cbe: 33 05 a0 40  	neg	a0, a0
   20cc2: 63 47 b0 00  	bgtz	a1, 0x20cd0 <__umoddi3+0x1c>
   20cc6: b3 05 b0 40  	neg	a1, a1
   20cca: 7d bf        	j	0x20c88 <__udivdi3>
   20ccc: b3 05 b0 40  	neg	a1, a1
   20cd0: 86 82        	mv	t0, ra
   20cd2: ef f0 7f fb  	jal	0x20c88 <__udivdi3>
   20cd6: 33 05 a0 40  	neg	a0, a0
   20cda: 82 82        	jr	t0

0000000000020cdc <__modsi3>:
   20cdc: 86 82        	mv	t0, ra
   20cde: 63 c8 05 00  	bltz	a1, 0x20cee <__modsi3+0x12>
   20ce2: 63 4a 05 00  	bltz	a0, 0x20cf6 <__modsi3+0x1a>
   20ce6: ef f0 3f fa  	jal	0x20c88 <__udivdi3>
   20cea: 2e 85        	mv	a0, a1
   20cec: 82 82        	jr	t0
   20cee: b3 05 b0 40  	neg	a1, a1
   20cf2: e3 5a 05 fe  	bgez	a0, 0x20ce6 <__modsi3+0xa>
   20cf6: 33 05 a0 40  	neg	a0, a0
   20cfa: ef f0 ff f8  	jal	0x20c88 <__udivdi3>
   20cfe: 33 05 b0 40  	neg	a0, a1
   20d02: 82 82        	jr	t0
   20d04: fe 02        	slli	t0, t0, 0x1f
   20d06: e3 1d 55 f6  	bne	a0, t0, 0x20c80 <__divdi3>
   20d0a: 82 80        	ret
   20d0c: 00 00        	unimp

0000000000020d0e <__clzdi2>:
   20d0e: 93 57 85 03  	srli	a5, a0, 0x38
   20d12: 8d eb        	bnez	a5, 0x20d44 <__clzdi2+0x36>
   20d14: 93 07 80 03  	li	a5, 0x38
   20d18: e1 17        	addi	a5, a5, -0x8
   20d1a: 91 c7        	beqz	a5, 0x20d26 <__clzdi2+0x18>
   20d1c: 33 57 f5 00  	srl	a4, a0, a5
   20d20: 13 77 f7 0f  	andi	a4, a4, 0xff
   20d24: 75 db        	beqz	a4, 0x20d18 <__clzdi2+0xa>
   20d26: 37 27 02 00  	lui	a4, 0x22
   20d2a: 93 06 00 04  	li	a3, 0x40
   20d2e: 9d 8e        	sub	a3, a3, a5
   20d30: 33 55 f5 00  	srl	a0, a0, a5
   20d34: 93 07 87 c5  	addi	a5, a4, -0x3a8
   20d38: aa 97        	add	a5, a5, a0
   20d3a: 03 c5 07 00  	lbu	a0, 0x0(a5)
   20d3e: 3b 85 a6 40  	subw	a0, a3, a0
   20d42: 82 80        	ret
   20d44: 93 07 80 03  	li	a5, 0x38
   20d48: f9 bf        	j	0x20d26 <__clzdi2+0x18>
