
dynamic_Zce_susan:	file format elf64-littleriscv

Disassembly of section .text:

0000000000010120 <exit>:
   10120: 41 11        	addi	sp, sp, -0x10
   10122: 81 45        	li	a1, 0x0
   10124: 22 e0        	sd	s0, 0x0(sp)
   10126: 06 e4        	sd	ra, 0x8(sp)
   10128: 2a 84        	mv	s0, a0
   1012a: ef 60 10 7b  	jal	0x170da <__call_exitprocs>
   1012e: 83 b7 01 25  	ld	a5, 0x250(gp)
   10132: 91 c3        	beqz	a5, 0x10136 <exit+0x16>
   10134: 82 97        	jalr	a5
   10136: 22 85        	mv	a0, s0
   10138: ef d0 10 67  	jal	0x1dfa8 <_exit>

000000000001013c <register_fini>:
   1013c: 93 07 00 00  	li	a5, 0x0
   10140: 91 c7        	beqz	a5, 0x1014c <register_fini+0x10>
   10142: 71 65        	lui	a0, 0x1c
   10144: 13 05 45 da  	addi	a0, a0, -0x25c
   10148: 6f 70 40 06  	j	0x171ac <atexit>
   1014c: 82 80        	ret

000000000001014e <_start>:
   1014e: 97 21 01 00  	auipc	gp, 0x12
   10152: 93 81 a1 14  	addi	gp, gp, 0x14a
   10156: 13 85 81 23  	addi	a0, gp, 0x238
   1015a: 17 36 01 00  	auipc	a2, 0x13
   1015e: 13 06 e6 93  	addi	a2, a2, -0x6c2
   10162: 09 8e        	sub	a2, a2, a0
   10164: 81 45        	li	a1, 0x0
   10166: ef 60 d0 3e  	jal	0x16d52 <memset>
   1016a: 17 75 00 00  	auipc	a0, 0x7
   1016e: 13 05 25 04  	addi	a0, a0, 0x42
   10172: 19 c5        	beqz	a0, 0x10180 <_start+0x32>
   10174: 17 c5 00 00  	auipc	a0, 0xc
   10178: 13 05 05 c3  	addi	a0, a0, -0x3d0
   1017c: ef 70 00 03  	jal	0x171ac <atexit>
   10180: ef 60 10 36  	jal	0x16ce0 <__libc_init_array>
   10184: 02 45        	lw	a0, 0x0(sp)
   10186: 2c 00        	addi	a1, sp, 0x8
   10188: 01 46        	li	a2, 0x0
   1018a: ef 30 00 61  	jal	0x1379a <main>
   1018e: 49 bf        	j	0x10120 <exit>

0000000000010190 <__do_global_dtors_aux>:
   10190: 41 11        	addi	sp, sp, -0x10
   10192: 22 e0        	sd	s0, 0x0(sp)
   10194: 83 c7 81 27  	lbu	a5, 0x278(gp)
   10198: 06 e4        	sd	ra, 0x8(sp)
   1019a: 99 ef        	bnez	a5, 0x101b8 <__do_global_dtors_aux+0x28>
   1019c: 93 07 00 00  	li	a5, 0x0
   101a0: 89 cb        	beqz	a5, 0x101b2 <__do_global_dtors_aux+0x22>
   101a2: 37 15 02 00  	lui	a0, 0x21
   101a6: 13 05 05 48  	addi	a0, a0, 0x480
   101aa: 97 00 00 00  	auipc	ra, 0x0
   101ae: e7 00 00 00  	jalr	zero
   101b2: 85 47        	li	a5, 0x1
   101b4: 23 8c f1 26  	sb	a5, 0x278(gp)
   101b8: a2 60        	ld	ra, 0x8(sp)
   101ba: 02 64        	ld	s0, 0x0(sp)
   101bc: 41 01        	addi	sp, sp, 0x10
   101be: 82 80        	ret

00000000000101c0 <frame_dummy>:
   101c0: 93 07 00 00  	li	a5, 0x0
   101c4: 99 cb        	beqz	a5, 0x101da <frame_dummy+0x1a>
   101c6: 37 15 02 00  	lui	a0, 0x21
   101ca: 93 85 01 28  	addi	a1, gp, 0x280
   101ce: 13 05 05 48  	addi	a0, a0, 0x480
   101d2: 17 03 00 00  	auipc	t1, 0x0
   101d6: 67 00 00 00  	jr	zero
   101da: 82 80        	ret

00000000000101dc <usage>:
   101dc: 42 b8        	cm.push	{ra}, -16
   101de: 37 f5 01 00  	lui	a0, 0x1f
   101e2: 13 05 85 60  	addi	a0, a0, 0x608
   101e6: ef 60 80 0d  	jal	0x162be <puts>
   101ea: 37 f5 01 00  	lui	a0, 0x1f
   101ee: 13 05 35 63  	addi	a0, a0, 0x633
   101f2: ef 60 c0 0c  	jal	0x162be <puts>
   101f6: 37 f5 01 00  	lui	a0, 0x1f
   101fa: 13 05 15 65  	addi	a0, a0, 0x651
   101fe: ef 60 00 0c  	jal	0x162be <puts>
   10202: 37 f5 01 00  	lui	a0, 0x1f
   10206: 13 05 15 66  	addi	a0, a0, 0x661
   1020a: ef 60 40 0b  	jal	0x162be <puts>
   1020e: 37 f5 01 00  	lui	a0, 0x1f
   10212: 13 05 45 67  	addi	a0, a0, 0x674
   10216: ef 60 80 0a  	jal	0x162be <puts>
   1021a: 37 f5 01 00  	lui	a0, 0x1f
   1021e: 13 05 65 6b  	addi	a0, a0, 0x6b6
   10222: ef 60 c0 09  	jal	0x162be <puts>
   10226: 37 f5 01 00  	lui	a0, 0x1f
   1022a: 13 05 15 6f  	addi	a0, a0, 0x6f1
   1022e: ef 60 00 09  	jal	0x162be <puts>
   10232: 37 f5 01 00  	lui	a0, 0x1f
   10236: 13 05 b5 75  	addi	a0, a0, 0x75b
   1023a: ef 60 40 08  	jal	0x162be <puts>
   1023e: 37 f5 01 00  	lui	a0, 0x1f
   10242: 13 05 b5 78  	addi	a0, a0, 0x78b
   10246: ef 60 80 07  	jal	0x162be <puts>
   1024a: 37 f5 01 00  	lui	a0, 0x1f
   1024e: 13 05 95 7d  	addi	a0, a0, 0x7d9
   10252: ef 60 c0 06  	jal	0x162be <puts>
   10256: 37 05 02 00  	lui	a0, 0x20
   1025a: 13 05 75 84  	addi	a0, a0, -0x7b9
   1025e: ef 60 00 06  	jal	0x162be <puts>
   10262: 37 05 02 00  	lui	a0, 0x20
   10266: 13 05 25 8b  	addi	a0, a0, -0x74e
   1026a: ef 60 40 05  	jal	0x162be <puts>
   1026e: 37 05 02 00  	lui	a0, 0x20
   10272: 13 05 c5 90  	addi	a0, a0, -0x6f4
   10276: ef 60 80 04  	jal	0x162be <puts>
   1027a: 01 45        	li	a0, 0x0
   1027c: ef f0 5f ea  	jal	0x10120 <exit>

0000000000010280 <getint>:
   10280: ae b8        	cm.push	{ra, s0-s5}, -112
   10282: 89 65        	lui	a1, 0x2
   10284: 9b 85 05 6f  	addiw	a1, a1, 0x6f0
   10288: 33 01 b1 40  	sub	sp, sp, a1
   1028c: aa 89        	mv	s3, a0
   1028e: ef 50 30 71  	jal	0x161a0 <getc>
   10292: aa 84        	mv	s1, a0
   10294: 13 04 30 02  	li	s0, 0x23
   10298: 09 65        	lui	a0, 0x2
   1029a: 1b 09 85 32  	addiw	s2, a0, 0x328
   1029e: 7d 5a        	li	s4, -0x1
   102a0: a5 4a        	li	s5, 0x9
   102a2: 63 89 84 00  	beq	s1, s0, 0x102b4 <getint+0x34>
   102a6: 63 8a 44 05  	beq	s1, s4, 0x102fa <getint+0x7a>
   102aa: 1b 85 04 fd  	addiw	a0, s1, -0x30
   102ae: 63 e8 aa 00  	bltu	s5, a0, 0x102be <getint+0x3e>
   102b2: 29 a8        	j	0x102cc <getint+0x4c>
   102b4: 08 08        	addi	a0, sp, 0x10
   102b6: ca 85        	mv	a1, s2
   102b8: 4e 86        	mv	a2, s3
   102ba: ef 50 e0 7c  	jal	0x15a88 <fgets>
   102be: 4e 85        	mv	a0, s3
   102c0: ef 50 10 6e  	jal	0x161a0 <getc>
   102c4: aa 84        	mv	s1, a0
   102c6: e3 10 85 fe  	bne	a0, s0, 0x102a6 <getint+0x26>
   102ca: ed b7        	j	0x102b4 <getint+0x34>
   102cc: 01 44        	li	s0, 0x0
   102ce: 55 59        	li	s2, -0xb
   102d0: a9 45        	li	a1, 0xa
   102d2: 22 85        	mv	a0, s0
   102d4: ef f0 40 09  	jal	0x1f368 <__muldi3>
   102d8: 26 95        	add	a0, a0, s1
   102da: 1b 04 05 fd  	addiw	s0, a0, -0x30
   102de: 4e 85        	mv	a0, s3
   102e0: ef 50 10 6c  	jal	0x161a0 <getc>
   102e4: aa 84        	mv	s1, a0
   102e6: 1b 05 65 fc  	addiw	a0, a0, -0x3a
   102ea: e3 63 a9 fe  	bltu	s2, a0, 0x102d0 <getint+0x50>
   102ee: 22 85        	mv	a0, s0
   102f0: 89 65        	lui	a1, 0x2
   102f2: 9b 85 05 6f  	addiw	a1, a1, 0x6f0
   102f6: 2e 91        	add	sp, sp, a1
   102f8: ae be        	cm.popret	{ra, s0-s5}, 112
   102fa: 03 b5 01 23  	ld	a0, 0x230(gp)
   102fe: 08 6d        	ld	a0, 0x18(a0)
   10300: b7 f5 01 00  	lui	a1, 0x1f
   10304: 93 85 45 4c  	addi	a1, a1, 0x4c4
   10308: 37 f6 01 00  	lui	a2, 0x1f
   1030c: 13 06 e6 4d  	addi	a2, a2, 0x4de
   10310: ef 50 d0 2c  	jal	0x15ddc <fprintf>
   10314: 01 45        	li	a0, 0x0
   10316: ef f0 bf e0  	jal	0x10120 <exit>

000000000001031a <get_image>:
   1031a: a2 b8        	cm.push	{ra, s0-s5}, -64
   1031c: 36 8a        	mv	s4, a3
   1031e: b2 8a        	mv	s5, a2
   10320: 2e ad        	cm.mvsa01	s2, s3
   10322: 37 f5 01 00  	lui	a0, 0x1f
   10326: 93 05 15 4e  	addi	a1, a0, 0x4e1
   1032a: 4a 85        	mv	a0, s2
   1032c: ef 50 30 28  	jal	0x15dae <fopen>
   10330: 35 c5        	beqz	a0, 0x1039c <get_image+0x82>
   10332: aa 84        	mv	s1, a0
   10334: ef 50 c0 63  	jal	0x15970 <fgetc>
   10338: 2a 84        	mv	s0, a0
   1033a: 26 85        	mv	a0, s1
   1033c: ef 50 40 63  	jal	0x15970 <fgetc>
   10340: 61 9c        	andi	s0, s0, 0xff
   10342: 93 05 00 05  	li	a1, 0x50
   10346: 63 13 b4 06  	bne	s0, a1, 0x103ac <get_image+0x92>
   1034a: 61 9d        	andi	a0, a0, 0xff
   1034c: 93 05 50 03  	li	a1, 0x35
   10350: 63 1e b5 04  	bne	a0, a1, 0x103ac <get_image+0x92>
   10354: 26 85        	mv	a0, s1
   10356: ef f0 bf f2  	jal	0x10280 <getint>
   1035a: 23 a0 aa 00  	sw	a0, 0x0(s5)
   1035e: 26 85        	mv	a0, s1
   10360: ef f0 1f f2  	jal	0x10280 <getint>
   10364: 23 20 aa 00  	sw	a0, 0x0(s4)
   10368: 26 85        	mv	a0, s1
   1036a: ef f0 7f f1  	jal	0x10280 <getint>
   1036e: 83 a5 0a 00  	lw	a1, 0x0(s5)
   10372: 03 25 0a 00  	lw	a0, 0x0(s4)
   10376: ef e0 30 7f  	jal	0x1f368 <__muldi3>
   1037a: 1b 04 05 00  	sext.w	s0, a0
   1037e: 22 85        	mv	a0, s0
   10380: ef 30 70 2d  	jal	0x13e56 <malloc>
   10384: 23 b0 a9 00  	sd	a0, 0x0(s3)
   10388: 85 45        	li	a1, 0x1
   1038a: 22 86        	mv	a2, s0
   1038c: a6 86        	mv	a3, s1
   1038e: ef 50 d0 42  	jal	0x15fba <fread>
   10392: 0d c5        	beqz	a0, 0x103bc <get_image+0xa2>
   10394: 26 85        	mv	a0, s1
   10396: a2 ba        	cm.pop	{ra, s0-s5}, 64
   10398: 6f 50 c0 36  	j	0x15704 <fclose>
   1039c: 03 b5 01 23  	ld	a0, 0x230(gp)
   103a0: 08 6d        	ld	a0, 0x18(a0)
   103a2: b7 f5 01 00  	lui	a1, 0x1f
   103a6: 93 85 35 4e  	addi	a1, a1, 0x4e3
   103aa: 05 a0        	j	0x103ca <get_image+0xb0>
   103ac: 03 b5 01 23  	ld	a0, 0x230(gp)
   103b0: 08 6d        	ld	a0, 0x18(a0)
   103b2: b7 f5 01 00  	lui	a1, 0x1f
   103b6: 93 85 a5 4f  	addi	a1, a1, 0x4fa
   103ba: 01 a8        	j	0x103ca <get_image+0xb0>
   103bc: 03 b5 01 23  	ld	a0, 0x230(gp)
   103c0: 08 6d        	ld	a0, 0x18(a0)
   103c2: b7 f5 01 00  	lui	a1, 0x1f
   103c6: 93 85 55 52  	addi	a1, a1, 0x525
   103ca: 4a 86        	mv	a2, s2
   103cc: ef 50 10 21  	jal	0x15ddc <fprintf>
   103d0: 01 45        	li	a0, 0x0
   103d2: ef f0 ff d4  	jal	0x10120 <exit>

00000000000103d6 <put_image>:
   103d6: a2 b8        	cm.push	{ra, s0-s5}, -64
   103d8: 36 8a        	mv	s4, a3
   103da: 32 84        	mv	s0, a2
   103dc: 2e ad        	cm.mvsa01	s2, s3
   103de: 37 f5 01 00  	lui	a0, 0x1f
   103e2: 93 05 e5 53  	addi	a1, a0, 0x53e
   103e6: 4a 85        	mv	a0, s2
   103e8: ef 50 70 1c  	jal	0x15dae <fopen>
   103ec: 31 cd        	beqz	a0, 0x10448 <put_image+0x72>
   103ee: aa 84        	mv	s1, a0
   103f0: 37 f5 01 00  	lui	a0, 0x1f
   103f4: 13 05 75 55  	addi	a0, a0, 0x557
   103f8: 8d 45        	li	a1, 0x3
   103fa: 05 46        	li	a2, 0x1
   103fc: 85 4a        	li	s5, 0x1
   103fe: a6 86        	mv	a3, s1
   10400: ef 50 b0 4d  	jal	0x160da <fwrite>
   10404: 37 f5 01 00  	lui	a0, 0x1f
   10408: 93 05 b5 55  	addi	a1, a0, 0x55b
   1040c: 26 85        	mv	a0, s1
   1040e: 22 86        	mv	a2, s0
   10410: d2 86        	mv	a3, s4
   10412: ef 50 b0 1c  	jal	0x15ddc <fprintf>
   10416: 37 f5 01 00  	lui	a0, 0x1f
   1041a: 13 05 25 56  	addi	a0, a0, 0x562
   1041e: 91 45        	li	a1, 0x4
   10420: 05 46        	li	a2, 0x1
   10422: a6 86        	mv	a3, s1
   10424: ef 50 70 4b  	jal	0x160da <fwrite>
   10428: 62 ae        	cm.mva01s	s4, s0
   1042a: ef e0 f0 73  	jal	0x1f368 <__muldi3>
   1042e: 9b 05 05 00  	sext.w	a1, a0
   10432: 05 46        	li	a2, 0x1
   10434: 4e 85        	mv	a0, s3
   10436: a6 86        	mv	a3, s1
   10438: ef 50 30 4a  	jal	0x160da <fwrite>
   1043c: 63 1e 55 01  	bne	a0, s5, 0x10458 <put_image+0x82>
   10440: 26 85        	mv	a0, s1
   10442: a2 ba        	cm.pop	{ra, s0-s5}, 64
   10444: 6f 50 00 2c  	j	0x15704 <fclose>
   10448: 03 b5 01 23  	ld	a0, 0x230(gp)
   1044c: 08 6d        	ld	a0, 0x18(a0)
   1044e: b7 f5 01 00  	lui	a1, 0x1f
   10452: 93 85 05 54  	addi	a1, a1, 0x540
   10456: 01 a8        	j	0x10466 <put_image+0x90>
   10458: 03 b5 01 23  	ld	a0, 0x230(gp)
   1045c: 08 6d        	ld	a0, 0x18(a0)
   1045e: b7 f5 01 00  	lui	a1, 0x1f
   10462: 93 85 75 56  	addi	a1, a1, 0x567
   10466: 4a 86        	mv	a2, s2
   10468: ef 50 50 17  	jal	0x15ddc <fprintf>
   1046c: 01 45        	li	a0, 0x0
   1046e: ef f0 3f cb  	jal	0x10120 <exit>

0000000000010472 <int_to_uchar>:
   10472: 63 5d c0 04  	blez	a2, 0x104cc <int_to_uchar+0x5a>
   10476: 92 b8        	cm.push	{ra, s0-s4}, -48
   10478: a2 ad        	cm.mvsa01	s3, s0
   1047a: 14 41        	lw	a3, 0x0(a0)
   1047c: 13 15 26 00  	slli	a0, a2, 0x2
   10480: 4e 95        	add	a0, a0, s3
   10482: ce 85        	mv	a1, s3
   10484: b6 87        	mv	a5, a3
   10486: 84 41        	lw	s1, 0x0(a1)
   10488: 26 87        	mv	a4, s1
   1048a: 63 c3 97 00  	blt	a5, s1, 0x10490 <int_to_uchar+0x1e>
   1048e: 3e 87        	mv	a4, a5
   10490: 63 c3 d4 00  	blt	s1, a3, 0x10496 <int_to_uchar+0x24>
   10494: b6 84        	mv	s1, a3
   10496: 91 05        	addi	a1, a1, 0x4
   10498: a6 86        	mv	a3, s1
   1049a: ba 87        	mv	a5, a4
   1049c: e3 95 a5 fe  	bne	a1, a0, 0x10486 <int_to_uchar+0x14>
   104a0: 63 55 c0 02  	blez	a2, 0x104ca <int_to_uchar+0x58>
   104a4: 3b 09 97 40  	subw	s2, a4, s1
   104a8: 33 0a c4 00  	add	s4, s0, a2
   104ac: 03 a5 09 00  	lw	a0, 0x0(s3)
   104b0: 05 9d        	subw	a0, a0, s1
   104b2: 93 15 85 00  	slli	a1, a0, 0x8
   104b6: 3b 85 a5 40  	subw	a0, a1, a0
   104ba: ca 85        	mv	a1, s2
   104bc: ef e0 d0 6e  	jal	0x1f3a8 <__divdi3>
   104c0: 08 88        	sb	a0, 0x0(s0)
   104c2: 05 04        	addi	s0, s0, 0x1
   104c4: 91 09        	addi	s3, s3, 0x4
   104c6: e3 13 44 ff  	bne	s0, s4, 0x104ac <int_to_uchar+0x3a>
   104ca: 92 ba        	cm.pop	{ra, s0-s4}, 48
   104cc: 01 45        	li	a0, 0x0
   104ce: 82 80        	ret

00000000000104d0 <setup_brightness_lut>:
   104d0: aa b8        	cm.push	{ra, s0-s5}, -96
   104d2: 27 3c 81 00  	fsd	fs0, 0x18(sp)
   104d6: 27 38 91 00  	fsd	fs1, 0x10(sp)
   104da: 27 34 21 01  	fsd	fs2, 0x8(sp)
   104de: b2 89        	mv	s3, a2
   104e0: aa ae        	cm.mvsa01	s5, s2
   104e2: 13 05 40 20  	li	a0, 0x204
   104e6: ef 30 10 17  	jal	0x13e56 <malloc>
   104ea: 13 05 25 10  	addi	a0, a0, 0x102
   104ee: 23 b0 aa 00  	sd	a0, 0x0(s5)
   104f2: 53 74 09 d0  	fcvt.s.w	fs0, s2
   104f6: 13 04 00 f0  	li	s0, -0x100
   104fa: 37 05 80 3f  	lui	a0, 0x3f800
   104fe: d3 04 05 f0  	fmv.w.x	fs1, a0
   10502: 07 b9 81 1c  	fld	fs2, 0x1c8(gp)
   10506: 19 49        	li	s2, 0x6
   10508: 13 0a 10 10  	li	s4, 0x101
   1050c: 93 04 00 f0  	li	s1, -0x100
   10510: d3 77 04 d0  	fcvt.s.w	fa5, s0
   10514: d3 f7 87 18  	fdiv.s	fa5, fa5, fs0
   10518: d3 f7 f7 10  	fmul.s	fa5, fa5, fa5
   1051c: 63 85 29 01  	beq	s3, s2, 0x10526 <setup_brightness_lut+0x56>
   10520: 53 87 94 20  	fmv.s	fa4, fs1
   10524: 19 a0        	j	0x1052a <setup_brightness_lut+0x5a>
   10526: 53 f7 f7 10  	fmul.s	fa4, fa5, fa5
   1052a: d3 97 f7 20  	fneg.s	fa5, fa5
   1052e: d3 77 f7 10  	fmul.s	fa5, fa4, fa5
   10532: 53 85 07 42  	fcvt.d.s	fa0, fa5
   10536: ef 30 00 55  	jal	0x13a86 <exp>
   1053a: 03 b5 0a 00  	ld	a0, 0x0(s5)
   1053e: d3 77 25 13  	fmul.d	fa5, fa0, fs2
   10542: d3 f7 17 40  	fcvt.s.d	fa5, fa5
   10546: d3 95 37 c0  	fcvt.lu.s	a1, fa5, rtz
   1054a: 26 95        	add	a0, a0, s1
   1054c: 0c 89        	sb	a1, 0x0(a0)
   1054e: 85 04        	addi	s1, s1, 0x1
   10550: 05 04        	addi	s0, s0, 0x1
   10552: e3 9f 44 fb  	bne	s1, s4, 0x10510 <setup_brightness_lut+0x40>
   10556: 07 34 81 01  	fld	fs0, 0x18(sp)
   1055a: 87 34 01 01  	fld	fs1, 0x10(sp)
   1055e: 07 39 81 00  	fld	fs2, 0x8(sp)
   10562: aa be        	cm.popret	{ra, s0-s5}, 96

0000000000010564 <susan_principle>:
   10564: f2 b8        	cm.push	{ra, s0-s11}, -112
   10566: be 8a        	mv	s5, a5
   10568: 3a 89        	mv	s2, a4
   1056a: b6 8b        	mv	s7, a3
   1056c: b2 89        	mv	s3, a2
   1056e: 32 af        	cm.mvsa01	s6, s4
   10570: 3e 85        	mv	a0, a5
   10572: ba 85        	mv	a1, a4
   10574: ef e0 50 5f  	jal	0x1f368 <__muldi3>
   10578: 01 25        	sext.w	a0, a0
   1057a: 13 16 25 00  	slli	a2, a0, 0x2
   1057e: 52 85        	mv	a0, s4
   10580: 81 45        	li	a1, 0x0
   10582: ef 60 00 7d  	jal	0x16d52 <memset>
   10586: 9d 48        	li	a7, 0x7
   10588: 63 c7 1a 27  	blt	s5, a7, 0x107f6 <susan_principle+0x292>
   1058c: f5 3a        	addiw	s5, s5, -0x3
   1058e: 1b 05 d9 ff  	addiw	a0, s2, -0x3
   10592: 9b 05 b9 ff  	addiw	a1, s2, -0x5
   10596: 1b 06 a9 ff  	addiw	a2, s2, -0x6
   1059a: 93 16 05 02  	slli	a3, a0, 0x20
   1059e: 81 92        	srli	a3, a3, 0x20
   105a0: 31 0a        	addi	s4, s4, 0xc
   105a2: 93 12 19 00  	slli	t0, s2, 0x1
   105a6: ca 92        	add	t0, t0, s2
   105a8: 13 08 3b 00  	addi	a6, s6, 0x3
   105ac: 93 83 d6 ff  	addi	t2, a3, -0x3
   105b0: 93 16 15 00  	slli	a3, a0, 0x1
   105b4: 13 97 15 00  	slli	a4, a1, 0x1
   105b8: ba 96        	add	a3, a3, a4
   105ba: 93 14 16 00  	slli	s1, a2, 0x1
   105be: b3 87 64 01  	add	a5, s1, s6
   105c2: be 96        	add	a3, a3, a5
   105c4: 93 8e e6 01  	addi	t4, a3, 0x1e
   105c8: 33 0f ab 00  	add	t5, s6, a0
   105cc: b3 06 b5 00  	add	a3, a0, a1
   105d0: b3 0f db 00  	add	t6, s6, a3
   105d4: 5a 96        	add	a2, a2, s6
   105d6: 36 96        	add	a2, a2, a3
   105d8: 13 0c 46 01  	addi	s8, a2, 0x14
   105dc: aa 94        	add	s1, s1, a0
   105de: da 95        	add	a1, a1, s6
   105e0: 33 85 b4 00  	add	a0, s1, a1
   105e4: 93 0c a5 01  	addi	s9, a0, 0x1a
   105e8: 5a 97        	add	a4, a4, s6
   105ea: b3 85 e4 00  	add	a1, s1, a4
   105ee: 13 8d a5 01  	addi	s10, a1, 0x1a
   105f2: 0d 43        	li	t1, 0x3
   105f4: 63 46 19 1f  	blt	s2, a7, 0x107e0 <susan_principle+0x27c>
   105f8: 01 45        	li	a0, 0x0
   105fa: 13 97 02 02  	slli	a4, t0, 0x20
   105fe: 13 5e 07 02  	srli	t3, a4, 0x20
   10602: 79 83        	srli	a4, a4, 0x1e
   10604: b3 0d ea 00  	add	s11, s4, a4
   10608: 42 9e        	add	t3, t3, a6
   1060a: b3 06 ab 00  	add	a3, s6, a0
   1060e: 33 07 ae 00  	add	a4, t3, a0
   10612: 18 83        	lbu	a4, 0x0(a4)
   10614: a0 82        	lbu	s0, 0x2(a3)
   10616: f0 82        	lbu	a2, 0x3(a3)
   10618: 4e 97        	add	a4, a4, s3
   1061a: 33 04 87 40  	sub	s0, a4, s0
   1061e: 00 80        	lbu	s0, 0x0(s0)
   10620: 33 06 c7 40  	sub	a2, a4, a2
   10624: 83 c6 46 00  	lbu	a3, 0x4(a3)
   10628: b3 07 af 00  	add	a5, t5, a0
   1062c: 83 c5 47 00  	lbu	a1, 0x4(a5)
   10630: 10 82        	lbu	a2, 0x0(a2)
   10632: b3 06 d7 40  	sub	a3, a4, a3
   10636: 94 82        	lbu	a3, 0x0(a3)
   10638: b3 05 b7 40  	sub	a1, a4, a1
   1063c: 8c 81        	lbu	a1, 0x0(a1)
   1063e: 83 c4 57 00  	lbu	s1, 0x5(a5)
   10642: 22 96        	add	a2, a2, s0
   10644: b6 95        	add	a1, a1, a3
   10646: 83 c6 67 00  	lbu	a3, 0x6(a5)
   1064a: 33 04 97 40  	sub	s0, a4, s1
   1064e: 83 c4 77 00  	lbu	s1, 0x7(a5)
   10652: 00 80        	lbu	s0, 0x0(s0)
   10654: b3 06 d7 40  	sub	a3, a4, a3
   10658: 94 82        	lbu	a3, 0x0(a3)
   1065a: b3 04 97 40  	sub	s1, a4, s1
   1065e: 84 80        	lbu	s1, 0x0(s1)
   10660: b2 95        	add	a1, a1, a2
   10662: a2 96        	add	a3, a3, s0
   10664: 03 c6 87 00  	lbu	a2, 0x8(a5)
   10668: a6 96        	add	a3, a3, s1
   1066a: b3 87 af 00  	add	a5, t6, a0
   1066e: 03 c4 87 00  	lbu	s0, 0x8(a5)
   10672: 33 06 c7 40  	sub	a2, a4, a2
   10676: 83 c4 97 00  	lbu	s1, 0x9(a5)
   1067a: 10 82        	lbu	a2, 0x0(a2)
   1067c: 33 04 87 40  	sub	s0, a4, s0
   10680: 00 80        	lbu	s0, 0x0(s0)
   10682: b3 04 97 40  	sub	s1, a4, s1
   10686: 84 80        	lbu	s1, 0x0(s1)
   10688: b3 80 d5 00  	add	ra, a1, a3
   1068c: 83 c6 a7 00  	lbu	a3, 0xa(a5)
   10690: 22 96        	add	a2, a2, s0
   10692: 26 96        	add	a2, a2, s1
   10694: 03 c4 b7 00  	lbu	s0, 0xb(a5)
   10698: b3 06 d7 40  	sub	a3, a4, a3
   1069c: 83 c4 c7 00  	lbu	s1, 0xc(a5)
   106a0: 94 82        	lbu	a3, 0x0(a3)
   106a2: 33 04 87 40  	sub	s0, a4, s0
   106a6: 00 80        	lbu	s0, 0x0(s0)
   106a8: b3 04 97 40  	sub	s1, a4, s1
   106ac: 84 80        	lbu	s1, 0x0(s1)
   106ae: 83 c5 d7 00  	lbu	a1, 0xd(a5)
   106b2: 36 96        	add	a2, a2, a3
   106b4: b2 90        	add	ra, ra, a2
   106b6: 26 94        	add	s0, s0, s1
   106b8: b3 05 b7 40  	sub	a1, a4, a1
   106bc: 83 c6 e7 00  	lbu	a3, 0xe(a5)
   106c0: b3 07 ac 00  	add	a5, s8, a0
   106c4: 83 c4 a7 ff  	lbu	s1, -0x6(a5)
   106c8: 8c 81        	lbu	a1, 0x0(a1)
   106ca: b3 06 d7 40  	sub	a3, a4, a3
   106ce: 94 82        	lbu	a3, 0x0(a3)
   106d0: b3 04 97 40  	sub	s1, a4, s1
   106d4: 84 80        	lbu	s1, 0x0(s1)
   106d6: a2 95        	add	a1, a1, s0
   106d8: 03 c4 b7 ff  	lbu	s0, -0x5(a5)
   106dc: b6 95        	add	a1, a1, a3
   106de: a6 95        	add	a1, a1, s1
   106e0: 83 c6 c7 ff  	lbu	a3, -0x4(a5)
   106e4: 33 04 87 40  	sub	s0, a4, s0
   106e8: 83 c4 e7 ff  	lbu	s1, -0x2(a5)
   106ec: 00 80        	lbu	s0, 0x0(s0)
   106ee: b3 06 d7 40  	sub	a3, a4, a3
   106f2: 94 82        	lbu	a3, 0x0(a3)
   106f4: b3 04 97 40  	sub	s1, a4, s1
   106f8: 84 80        	lbu	s1, 0x0(s1)
   106fa: 03 c6 f7 ff  	lbu	a2, -0x1(a5)
   106fe: 86 95        	add	a1, a1, ra
   10700: a2 96        	add	a3, a3, s0
   10702: a6 96        	add	a3, a3, s1
   10704: 33 06 c7 40  	sub	a2, a4, a2
   10708: 10 82        	lbu	a2, 0x0(a2)
   1070a: 9c 83        	lbu	a5, 0x0(a5)
   1070c: 33 84 ac 00  	add	s0, s9, a0
   10710: 83 44 a4 ff  	lbu	s1, -0x6(s0)
   10714: 36 96        	add	a2, a2, a3
   10716: b3 06 f7 40  	sub	a3, a4, a5
   1071a: 94 82        	lbu	a3, 0x0(a3)
   1071c: b3 07 97 40  	sub	a5, a4, s1
   10720: 9c 83        	lbu	a5, 0x0(a5)
   10722: 83 44 b4 ff  	lbu	s1, -0x5(s0)
   10726: 36 96        	add	a2, a2, a3
   10728: 83 46 c4 ff  	lbu	a3, -0x4(s0)
   1072c: 3e 96        	add	a2, a2, a5
   1072e: b3 07 97 40  	sub	a5, a4, s1
   10732: 9c 83        	lbu	a5, 0x0(a5)
   10734: b3 06 d7 40  	sub	a3, a4, a3
   10738: 94 82        	lbu	a3, 0x0(a3)
   1073a: 83 44 d4 ff  	lbu	s1, -0x3(s0)
   1073e: b3 80 c5 00  	add	ra, a1, a2
   10742: 03 46 e4 ff  	lbu	a2, -0x2(s0)
   10746: be 96        	add	a3, a3, a5
   10748: b3 07 97 40  	sub	a5, a4, s1
   1074c: 9c 83        	lbu	a5, 0x0(a5)
   1074e: 33 06 c7 40  	sub	a2, a4, a2
   10752: 10 82        	lbu	a2, 0x0(a2)
   10754: 83 44 f4 ff  	lbu	s1, -0x1(s0)
   10758: be 96        	add	a3, a3, a5
   1075a: 1c 80        	lbu	a5, 0x0(s0)
   1075c: 36 96        	add	a2, a2, a3
   1075e: b3 06 97 40  	sub	a3, a4, s1
   10762: 94 82        	lbu	a3, 0x0(a3)
   10764: b3 07 f7 40  	sub	a5, a4, a5
   10768: 9c 83        	lbu	a5, 0x0(a5)
   1076a: 33 04 ad 00  	add	s0, s10, a0
   1076e: 04 80        	lbu	s1, 0x0(s0)
   10770: 36 96        	add	a2, a2, a3
   10772: 3e 96        	add	a2, a2, a5
   10774: 54 80        	lbu	a3, 0x1(s0)
   10776: b3 07 97 40  	sub	a5, a4, s1
   1077a: 9c 83        	lbu	a5, 0x0(a5)
   1077c: 24 80        	lbu	s1, 0x2(s0)
   1077e: b3 06 d7 40  	sub	a3, a4, a3
   10782: 6c 80        	lbu	a1, 0x3(s0)
   10784: 94 82        	lbu	a3, 0x0(a3)
   10786: b3 04 97 40  	sub	s1, a4, s1
   1078a: 84 80        	lbu	s1, 0x0(s1)
   1078c: b3 05 b7 40  	sub	a1, a4, a1
   10790: 8c 81        	lbu	a1, 0x0(a1)
   10792: 3e 96        	add	a2, a2, a5
   10794: 06 96        	add	a2, a2, ra
   10796: a6 96        	add	a3, a3, s1
   10798: b6 95        	add	a1, a1, a3
   1079a: 83 46 44 00  	lbu	a3, 0x4(s0)
   1079e: b3 87 ae 00  	add	a5, t4, a0
   107a2: 80 83        	lbu	s0, 0x0(a5)
   107a4: c4 83        	lbu	s1, 0x1(a5)
   107a6: bc 83        	lbu	a5, 0x2(a5)
   107a8: b3 06 d7 40  	sub	a3, a4, a3
   107ac: 33 04 87 40  	sub	s0, a4, s0
   107b0: b3 04 97 40  	sub	s1, a4, s1
   107b4: 1d 8f        	sub	a4, a4, a5
   107b6: 94 82        	lbu	a3, 0x0(a3)
   107b8: 1c 80        	lbu	a5, 0x0(s0)
   107ba: 80 80        	lbu	s0, 0x0(s1)
   107bc: 18 83        	lbu	a4, 0x0(a4)
   107be: b6 95        	add	a1, a1, a3
   107c0: be 95        	add	a1, a1, a5
   107c2: a2 95        	add	a1, a1, s0
   107c4: ba 95        	add	a1, a1, a4
   107c6: b2 95        	add	a1, a1, a2
   107c8: 1b 87 45 06  	addiw	a4, a1, 0x64
   107cc: 63 c6 eb 00  	blt	s7, a4, 0x107d8 <susan_principle+0x274>
   107d0: bb 85 eb 40  	subw	a1, s7, a4
   107d4: 23 a0 bd 00  	sw	a1, 0x0(s11)
   107d8: 05 05        	addi	a0, a0, 0x1
   107da: 91 0d        	addi	s11, s11, 0x4
   107dc: e3 97 a3 e2  	bne	t2, a0, 0x1060a <susan_principle+0xa6>
   107e0: 05 03        	addi	t1, t1, 0x1
   107e2: ca 92        	add	t0, t0, s2
   107e4: 4a 9b        	add	s6, s6, s2
   107e6: ca 9e        	add	t4, t4, s2
   107e8: 4a 9f        	add	t5, t5, s2
   107ea: ca 9f        	add	t6, t6, s2
   107ec: 4a 9c        	add	s8, s8, s2
   107ee: ca 9c        	add	s9, s9, s2
   107f0: 4a 9d        	add	s10, s10, s2
   107f2: e3 11 53 e1  	bne	t1, s5, 0x105f4 <susan_principle+0x90>
   107f6: f2 bc        	cm.popretz	{ra, s0-s11}, 112

00000000000107f8 <susan_principle_small>:
   107f8: b2 b8        	cm.push	{ra, s0-s6}, -64
   107fa: 3e 8a        	mv	s4, a5
   107fc: 3a 89        	mv	s2, a4
   107fe: b2 8a        	mv	s5, a2
   10800: 2e af        	cm.mvsa01	s6, s3
   10802: 3e 85        	mv	a0, a5
   10804: ba 85        	mv	a1, a4
   10806: ef e0 30 36  	jal	0x1f368 <__muldi3>
   1080a: 01 25        	sext.w	a0, a0
   1080c: 13 16 25 00  	slli	a2, a0, 0x2
   10810: 4e 85        	mv	a0, s3
   10812: 81 45        	li	a1, 0x0
   10814: ef 60 e0 53  	jal	0x16d52 <memset>
   10818: 0d 48        	li	a6, 0x3
   1081a: 63 4b 0a 0d  	blt	s4, a6, 0x108f0 <susan_principle_small+0xf8>
   1081e: 7d 3a        	addiw	s4, s4, -0x1
   10820: 13 05 f9 ff  	addi	a0, s2, -0x1
   10824: 9b 05 e9 ff  	addiw	a1, s2, -0x2
   10828: 02 15        	slli	a0, a0, 0x20
   1082a: 01 91        	srli	a0, a0, 0x20
   1082c: 91 09        	addi	s3, s3, 0x4
   1082e: 93 08 1b 00  	addi	a7, s6, 0x1
   10832: 13 0e f5 ff  	addi	t3, a0, -0x1
   10836: b3 86 65 01  	add	a3, a1, s6
   1083a: 93 8e 26 00  	addi	t4, a3, 0x2
   1083e: 86 05        	slli	a1, a1, 0x1
   10840: 33 0f bb 00  	add	t5, s6, a1
   10844: 05 43        	li	t1, 0x1
   10846: 93 03 a0 2d  	li	t2, 0x2da
   1084a: ca 82        	mv	t0, s2
   1084c: 63 4b 09 09  	blt	s2, a6, 0x108e2 <susan_principle_small+0xea>
   10850: 81 45        	li	a1, 0x0
   10852: 13 95 02 02  	slli	a0, t0, 0x20
   10856: 93 54 05 02  	srli	s1, a0, 0x20
   1085a: 79 81        	srli	a0, a0, 0x1e
   1085c: b3 87 a9 00  	add	a5, s3, a0
   10860: b3 8f 98 00  	add	t6, a7, s1
   10864: 33 04 bb 00  	add	s0, s6, a1
   10868: 33 85 bf 00  	add	a0, t6, a1
   1086c: 08 81        	lbu	a0, 0x0(a0)
   1086e: 04 80        	lbu	s1, 0x0(s0)
   10870: 54 80        	lbu	a3, 0x1(s0)
   10872: 33 87 aa 00  	add	a4, s5, a0
   10876: 33 05 97 40  	sub	a0, a4, s1
   1087a: 08 81        	lbu	a0, 0x0(a0)
   1087c: b3 06 d7 40  	sub	a3, a4, a3
   10880: 24 80        	lbu	s1, 0x2(s0)
   10882: 33 84 be 00  	add	s0, t4, a1
   10886: 10 80        	lbu	a2, 0x0(s0)
   10888: 94 82        	lbu	a3, 0x0(a3)
   1088a: b3 04 97 40  	sub	s1, a4, s1
   1088e: 84 80        	lbu	s1, 0x0(s1)
   10890: 33 06 c7 40  	sub	a2, a4, a2
   10894: 10 82        	lbu	a2, 0x0(a2)
   10896: 36 95        	add	a0, a0, a3
   10898: 26 96        	add	a2, a2, s1
   1089a: 34 80        	lbu	a3, 0x2(s0)
   1089c: 32 95        	add	a0, a0, a2
   1089e: 33 06 bf 00  	add	a2, t5, a1
   108a2: 03 44 46 00  	lbu	s0, 0x4(a2)
   108a6: b3 06 d7 40  	sub	a3, a4, a3
   108aa: 94 82        	lbu	a3, 0x0(a3)
   108ac: 83 44 56 00  	lbu	s1, 0x5(a2)
   108b0: 33 04 87 40  	sub	s0, a4, s0
   108b4: 03 46 66 00  	lbu	a2, 0x6(a2)
   108b8: 00 80        	lbu	s0, 0x0(s0)
   108ba: b3 04 97 40  	sub	s1, a4, s1
   108be: 84 80        	lbu	s1, 0x0(s1)
   108c0: 11 8f        	sub	a4, a4, a2
   108c2: 10 83        	lbu	a2, 0x0(a4)
   108c4: a2 96        	add	a3, a3, s0
   108c6: a6 96        	add	a3, a3, s1
   108c8: 36 95        	add	a0, a0, a3
   108ca: 32 95        	add	a0, a0, a2
   108cc: 9b 04 45 06  	addiw	s1, a0, 0x64
   108d0: 63 e5 93 00  	bltu	t2, s1, 0x108da <susan_principle_small+0xe2>
   108d4: 3b 85 93 40  	subw	a0, t2, s1
   108d8: 88 c3        	sw	a0, 0x0(a5)
   108da: 85 05        	addi	a1, a1, 0x1
   108dc: 91 07        	addi	a5, a5, 0x4
   108de: e3 13 be f8  	bne	t3, a1, 0x10864 <susan_principle_small+0x6c>
   108e2: 05 03        	addi	t1, t1, 0x1
   108e4: ca 92        	add	t0, t0, s2
   108e6: 4a 9b        	add	s6, s6, s2
   108e8: ca 9e        	add	t4, t4, s2
   108ea: 4a 9f        	add	t5, t5, s2
   108ec: e3 10 43 f7  	bne	t1, s4, 0x1084c <susan_principle_small+0x54>
   108f0: b2 bc        	cm.popretz	{ra, s0-s6}, 64

00000000000108f2 <median>:
   108f2: 9a b8        	cm.push	{ra, s0-s4}, -80
   108f4: 36 8a        	mv	s4, a3
   108f6: 32 89        	mv	s2, a2
   108f8: a6 ad        	cm.mvsa01	s3, s1
   108fa: 13 85 f5 ff  	addi	a0, a1, -0x1
   108fe: b6 85        	mv	a1, a3
   10900: ef e0 90 26  	jal	0x1f368 <__muldi3>
   10904: 3b 05 25 01  	addw	a0, a0, s2
   10908: 4e 95        	add	a0, a0, s3
   1090a: 83 45 f5 ff  	lbu	a1, -0x1(a0)
   1090e: 10 81        	lbu	a2, 0x0(a0)
   10910: 48 81        	lbu	a0, 0x1(a0)
   10912: 2e c0        	sw	a1, 0x0(sp)
   10914: 40 00        	addi	s0, sp, 0x4
   10916: 32 c2        	sw	a2, 0x4(sp)
   10918: 2a c4        	sw	a0, 0x8(sp)
   1091a: 66 ae        	cm.mva01s	s4, s1
   1091c: ef e0 d0 24  	jal	0x1f368 <__muldi3>
   10920: 3b 05 25 01  	addw	a0, a0, s2
   10924: 4e 95        	add	a0, a0, s3
   10926: 83 45 f5 ff  	lbu	a1, -0x1(a0)
   1092a: 48 81        	lbu	a0, 0x1(a0)
   1092c: 2e c6        	sw	a1, 0xc(sp)
   1092e: 2a c8        	sw	a0, 0x10(sp)
   10930: 13 85 14 00  	addi	a0, s1, 0x1
   10934: d2 85        	mv	a1, s4
   10936: ef e0 30 23  	jal	0x1f368 <__muldi3>
   1093a: 3b 05 25 01  	addw	a0, a0, s2
   1093e: 4e 95        	add	a0, a0, s3
   10940: 83 45 f5 ff  	lbu	a1, -0x1(a0)
   10944: 10 81        	lbu	a2, 0x0(a0)
   10946: 54 81        	lbu	a3, 0x1(a0)
   10948: 01 45        	li	a0, 0x0
   1094a: 2e ca        	sw	a1, 0x14(sp)
   1094c: 32 cc        	sw	a2, 0x18(sp)
   1094e: 36 ce        	sw	a3, 0x1c(sp)
   10950: 9d 45        	li	a1, 0x7
   10952: 93 46 75 00  	xori	a3, a0, 0x7
   10956: 8d c2        	beqz	a3, 0x10978 <median+0x86>
   10958: 02 46        	lw	a2, 0x0(sp)
   1095a: 82 16        	slli	a3, a3, 0x20
   1095c: f9 82        	srli	a3, a3, 0x1e
   1095e: a2 96        	add	a3, a3, s0
   10960: 22 87        	mv	a4, s0
   10962: 1c 43        	lw	a5, 0x0(a4)
   10964: 63 d6 c7 00  	bge	a5, a2, 0x10970 <median+0x7e>
   10968: 23 2e f7 fe  	sw	a5, -0x4(a4)
   1096c: 10 c3        	sw	a2, 0x0(a4)
   1096e: 11 a0        	j	0x10972 <median+0x80>
   10970: 3e 86        	mv	a2, a5
   10972: 11 07        	addi	a4, a4, 0x4
   10974: e3 17 d7 fe  	bne	a4, a3, 0x10962 <median+0x70>
   10978: 05 25        	addiw	a0, a0, 0x1
   1097a: e3 1c b5 fc  	bne	a0, a1, 0x10952 <median+0x60>
   1097e: 32 45        	lw	a0, 0xc(sp)
   10980: c2 45        	lw	a1, 0x10(sp)
   10982: 2e 95        	add	a0, a0, a1
   10984: 9b 55 f5 01  	srliw	a1, a0, 0x1f
   10988: 2e 95        	add	a0, a0, a1
   1098a: 5e 15        	slli	a0, a0, 0x37
   1098c: 61 91        	srli	a0, a0, 0x38
   1098e: 9a be        	cm.popret	{ra, s0-s4}, 80

0000000000010990 <enlarge>:
   10990: f6 b8        	cm.push	{ra, s0-s11}, -128
   10992: b6 89        	mv	s3, a3
   10994: 94 42        	lw	a3, 0x0(a3)
   10996: 3a 8b        	mv	s6, a4
   10998: 32 8a        	mv	s4, a2
   1099a: 2e 8c        	mv	s8, a1
   1099c: 2a 89        	mv	s2, a0
   1099e: b3 8c e5 00  	add	s9, a1, a4
   109a2: 63 51 d0 04  	blez	a3, 0x109e4 <enlarge+0x54>
   109a6: 01 44        	li	s0, 0x0
   109a8: 1b 1d 1b 00  	slliw	s10, s6, 0x1
   109ac: 83 2a 0a 00  	lw	s5, 0x0(s4)
   109b0: b3 05 8b 00  	add	a1, s6, s0
   109b4: 33 85 aa 01  	add	a0, s5, s10
   109b8: ef e0 10 1b  	jal	0x1f368 <__muldi3>
   109bc: 83 34 09 00  	ld	s1, 0x0(s2)
   109c0: 01 25        	sext.w	a0, a0
   109c2: b3 8b ac 00  	add	s7, s9, a0
   109c6: e2 ae        	cm.mva01s	s5, s0
   109c8: ef e0 10 1a  	jal	0x1f368 <__muldi3>
   109cc: 01 25        	sext.w	a0, a0
   109ce: b3 85 a4 00  	add	a1, s1, a0
   109d2: 5e 85        	mv	a0, s7
   109d4: 56 86        	mv	a2, s5
   109d6: ef 60 60 42  	jal	0x16dfc <memcpy>
   109da: 03 a5 09 00  	lw	a0, 0x0(s3)
   109de: 05 24        	addiw	s0, s0, 0x1
   109e0: e3 46 a4 fc  	blt	s0, a0, 0x109ac <enlarge+0x1c>
   109e4: 63 5b 60 0f  	blez	s6, 0x10ada <enlarge+0x14a>
   109e8: 81 4a        	li	s5, 0x0
   109ea: 66 e0        	sd	s9, 0x0(sp)
   109ec: 9b 1d 1b 00  	slliw	s11, s6, 0x1
   109f0: 7d 54        	li	s0, -0x1
   109f2: 4a e4        	sd	s2, 0x8(sp)
   109f4: 82 6c        	ld	s9, 0x0(sp)
   109f6: 03 2d 0a 00  	lw	s10, 0x0(s4)
   109fa: b3 05 8b 00  	add	a1, s6, s0
   109fe: 33 05 bd 01  	add	a0, s10, s11
   10a02: ef e0 70 16  	jal	0x1f368 <__muldi3>
   10a06: 83 34 09 00  	ld	s1, 0x0(s2)
   10a0a: 01 25        	sext.w	a0, a0
   10a0c: b3 8b ac 00  	add	s7, s9, a0
   10a10: 6a 85        	mv	a0, s10
   10a12: d6 85        	mv	a1, s5
   10a14: ef e0 50 15  	jal	0x1f368 <__muldi3>
   10a18: 01 25        	sext.w	a0, a0
   10a1a: b3 85 a4 00  	add	a1, s1, a0
   10a1e: 5e 85        	mv	a0, s7
   10a20: 6a 86        	mv	a2, s10
   10a22: ef 60 a0 3d  	jal	0x16dfc <memcpy>
   10a26: 83 a4 09 00  	lw	s1, 0x0(s3)
   10a2a: 03 2d 0a 00  	lw	s10, 0x0(s4)
   10a2e: 33 05 5b 01  	add	a0, s6, s5
   10a32: 26 95        	add	a0, a0, s1
   10a34: b3 05 bd 01  	add	a1, s10, s11
   10a38: ef e0 10 13  	jal	0x1f368 <__muldi3>
   10a3c: a2 65        	ld	a1, 0x8(sp)
   10a3e: 03 b9 05 00  	ld	s2, 0x0(a1)
   10a42: 01 25        	sext.w	a0, a0
   10a44: b3 8b ac 00  	add	s7, s9, a0
   10a48: 33 05 94 00  	add	a0, s0, s1
   10a4c: ea 85        	mv	a1, s10
   10a4e: ef e0 b0 11  	jal	0x1f368 <__muldi3>
   10a52: 01 25        	sext.w	a0, a0
   10a54: b3 05 a9 00  	add	a1, s2, a0
   10a58: 22 69        	ld	s2, 0x8(sp)
   10a5a: 5e 85        	mv	a0, s7
   10a5c: 6a 86        	mv	a2, s10
   10a5e: ef 60 e0 39  	jal	0x16dfc <memcpy>
   10a62: 85 2a        	addiw	s5, s5, 0x1
   10a64: 7d 34        	addiw	s0, s0, -0x1
   10a66: e3 18 5b f9  	bne	s6, s5, 0x109f6 <enlarge+0x66>
   10a6a: 63 58 60 07  	blez	s6, 0x10ada <enlarge+0x14a>
   10a6e: 03 a5 09 00  	lw	a0, 0x0(s3)
   10a72: 81 4b        	li	s7, 0x0
   10a74: bb 0a b0 41  	negw	s5, s11
   10a78: 63 dc aa 04  	bge	s5, a0, 0x10ad0 <enlarge+0x140>
   10a7c: 01 44        	li	s0, 0x0
   10a7e: 13 c9 fb ff  	not	s2, s7
   10a82: 03 25 0a 00  	lw	a0, 0x0(s4)
   10a86: 6e 95        	add	a0, a0, s11
   10a88: a2 85        	mv	a1, s0
   10a8a: ef e0 f0 0d  	jal	0x1f368 <__muldi3>
   10a8e: 5a 95        	add	a0, a0, s6
   10a90: bb 05 75 01  	addw	a1, a0, s7
   10a94: e2 95        	add	a1, a1, s8
   10a96: 8c 81        	lbu	a1, 0x0(a1)
   10a98: 3b 05 25 01  	addw	a0, a0, s2
   10a9c: 62 95        	add	a0, a0, s8
   10a9e: 0c 89        	sb	a1, 0x0(a0)
   10aa0: 83 24 0a 00  	lw	s1, 0x0(s4)
   10aa4: 33 85 b4 01  	add	a0, s1, s11
   10aa8: a2 85        	mv	a1, s0
   10aaa: ef e0 f0 0b  	jal	0x1f368 <__muldi3>
   10aae: da 94        	add	s1, s1, s6
   10ab0: 26 95        	add	a0, a0, s1
   10ab2: bb 05 25 01  	addw	a1, a0, s2
   10ab6: e2 95        	add	a1, a1, s8
   10ab8: 8c 81        	lbu	a1, 0x0(a1)
   10aba: 3b 05 75 01  	addw	a0, a0, s7
   10abe: 62 95        	add	a0, a0, s8
   10ac0: 0c 89        	sb	a1, 0x0(a0)
   10ac2: 03 a5 09 00  	lw	a0, 0x0(s3)
   10ac6: 05 24        	addiw	s0, s0, 0x1
   10ac8: bb 05 b5 01  	addw	a1, a0, s11
   10acc: e3 4b b4 fa  	blt	s0, a1, 0x10a82 <enlarge+0xf2>
   10ad0: 85 2b        	addiw	s7, s7, 0x1
   10ad2: e3 93 6b fb  	bne	s7, s6, 0x10a78 <enlarge+0xe8>
   10ad6: 22 69        	ld	s2, 0x8(sp)
   10ad8: 19 a0        	j	0x10ade <enlarge+0x14e>
   10ada: 93 1d 1b 00  	slli	s11, s6, 0x1
   10ade: 03 25 0a 00  	lw	a0, 0x0(s4)
   10ae2: 6e 95        	add	a0, a0, s11
   10ae4: 23 20 aa 00  	sw	a0, 0x0(s4)
   10ae8: 03 a5 09 00  	lw	a0, 0x0(s3)
   10aec: 6e 95        	add	a0, a0, s11
   10aee: 23 a0 a9 00  	sw	a0, 0x0(s3)
   10af2: 23 30 89 01  	sd	s8, 0x0(s2)
   10af6: f6 bc        	cm.popretz	{ra, s0-s11}, 128

0000000000010af8 <susan_smoothing>:
   10af8: fe b8        	cm.push	{ra, s0-s11}, -160
   10afa: 1d 71        	addi	sp, sp, -0x60
   10afc: 27 34 81 08  	fsd	fs0, 0x88(sp)
   10b00: 27 30 91 08  	fsd	fs1, 0x80(sp)
   10b04: ba ec        	sd	a4, 0x58(sp)
   10b06: aa 84        	mv	s1, a0
   10b08: 53 74 15 40  	fcvt.s.d	fs0, fa0
   10b0c: 07 b7 01 1d  	fld	fa4, 0x1d0(gp)
   10b10: ae f4        	sd	a1, 0x68(sp)
   10b12: ae fc        	sd	a1, 0x78(sp)
   10b14: b2 da        	sw	a2, 0x74(sp)
   10b16: d3 07 04 42  	fcvt.d.s	fa5, fs0
   10b1a: 53 f7 e7 12  	fmul.d	fa4, fa5, fa4
   10b1e: 53 1b 07 c2  	fcvt.w.d	s6, fa4, rtz
   10b22: 1b 0d 1b 00  	addiw	s10, s6, 0x1
   10b26: b6 d8        	sw	a3, 0x70(sp)
   10b28: ea 8a        	mv	s5, s10
   10b2a: 91 c0        	beqz	s1, 0x10b2e <susan_smoothing+0x36>
   10b2c: 85 4a        	li	s5, 0x1
   10b2e: 37 05 70 41  	lui	a0, 0x41700
   10b32: 53 07 05 f0  	fmv.w.x	fa4, a0
   10b36: 53 15 87 a0  	flt.s	a0, fa4, fs0
   10b3a: 63 1e 05 36  	bnez	a0, 0x10eb6 <susan_smoothing+0x3be>
   10b3e: 9b 9b 1a 00  	slliw	s7, s5, 0x1
   10b42: 63 df cb 38  	bge	s7, a2, 0x10ee0 <susan_smoothing+0x3e8>
   10b46: 63 dd db 38  	bge	s7, a3, 0x10ee0 <susan_smoothing+0x3e8>
   10b4a: 33 85 cb 00  	add	a0, s7, a2
   10b4e: b3 85 db 00  	add	a1, s7, a3
   10b52: ef e0 70 01  	jal	0x1f368 <__muldi3>
   10b56: 01 25        	sext.w	a0, a0
   10b58: ef 30 e0 2f  	jal	0x13e56 <malloc>
   10b5c: aa 85        	mv	a1, a0
   10b5e: a8 18        	addi	a0, sp, 0x78
   10b60: d0 18        	addi	a2, sp, 0x74
   10b62: 94 18        	addi	a3, sp, 0x70
   10b64: 56 87        	mv	a4, s5
   10b66: ef f0 bf e2  	jal	0x10990 <enlarge>
   10b6a: 63 80 04 1c  	beqz	s1, 0x10d2a <susan_smoothing+0x232>
   10b6e: 46 55        	lw	a0, 0x70(sp)
   10b70: 0d 46        	li	a2, 0x3
   10b72: 63 4c c5 32  	blt	a0, a2, 0x10eaa <susan_smoothing+0x3b2>
   10b76: 56 5b        	lw	s6, 0x74(sp)
   10b78: 02 e8        	sd	zero, 0x10(sp)
   10b7a: 05 49        	li	s2, 0x1
   10b7c: 63 4e cb 18  	blt	s6, a2, 0x10d18 <susan_smoothing+0x220>
   10b80: 05 44        	li	s0, 0x1
   10b82: 99 4a        	li	s5, 0x6
   10b84: 4a e4        	sd	s2, 0x8(sp)
   10b86: a2 f0        	sd	s0, 0x60(sp)
   10b88: 66 7c        	ld	s8, 0x78(sp)
   10b8a: 42 65        	ld	a0, 0x10(sp)
   10b8c: da 85        	mv	a1, s6
   10b8e: ef e0 a0 7d  	jal	0x1f368 <__muldi3>
   10b92: 1b 04 05 00  	sext.w	s0, a0
   10b96: 33 05 54 01  	add	a0, s0, s5
   10b9a: b3 04 ac 00  	add	s1, s8, a0
   10b9e: 7a ad        	cm.mva01s	s2, s6
   10ba0: ef e0 80 7c  	jal	0x1f368 <__muldi3>
   10ba4: 01 25        	sext.w	a0, a0
   10ba6: 56 95        	add	a0, a0, s5
   10ba8: 62 95        	add	a0, a0, s8
   10baa: 83 48 b5 ff  	lbu	a7, -0x5(a0)
   10bae: 83 c5 a4 ff  	lbu	a1, -0x6(s1)
   10bb2: 03 c3 b4 ff  	lbu	t1, -0x5(s1)
   10bb6: 66 66        	ld	a2, 0x58(sp)
   10bb8: 46 96        	add	a2, a2, a7
   10bba: 33 05 b6 40  	sub	a0, a2, a1
   10bbe: 08 81        	lbu	a0, 0x0(a0)
   10bc0: b3 06 66 40  	sub	a3, a2, t1
   10bc4: 4a 88        	mv	a6, s2
   10bc6: 03 c9 06 00  	lbu	s2, 0x0(a3)
   10bca: 83 c3 c4 ff  	lbu	t2, -0x4(s1)
   10bce: 9b 06 eb ff  	addiw	a3, s6, -0x2
   10bd2: 33 07 d4 00  	add	a4, s0, a3
   10bd6: 56 97        	add	a4, a4, s5
   10bd8: 62 97        	add	a4, a4, s8
   10bda: 83 4e c7 ff  	lbu	t4, -0x4(a4)
   10bde: b3 07 76 40  	sub	a5, a2, t2
   10be2: 83 42 d7 ff  	lbu	t0, -0x3(a4)
   10be6: 03 ca 07 00  	lbu	s4, 0x0(a5)
   10bea: b3 07 d6 41  	sub	a5, a2, t4
   10bee: 83 cd 07 00  	lbu	s11, 0x0(a5)
   10bf2: b3 07 56 40  	sub	a5, a2, t0
   10bf6: 83 cc 07 00  	lbu	s9, 0x0(a5)
   10bfa: 03 4e e7 ff  	lbu	t3, -0x2(a4)
   10bfe: 86 06        	slli	a3, a3, 0x1
   10c00: a2 96        	add	a3, a3, s0
   10c02: d6 96        	add	a3, a3, s5
   10c04: e2 96        	add	a3, a3, s8
   10c06: 83 c4 e6 ff  	lbu	s1, -0x2(a3)
   10c0a: 33 07 c6 41  	sub	a4, a2, t3
   10c0e: 83 4b 07 00  	lbu	s7, 0x0(a4)
   10c12: 03 c4 f6 ff  	lbu	s0, -0x1(a3)
   10c16: 33 07 96 40  	sub	a4, a2, s1
   10c1a: 9c 82        	lbu	a5, 0x0(a3)
   10c1c: 83 49 07 00  	lbu	s3, 0x0(a4)
   10c20: b3 06 86 40  	sub	a3, a2, s0
   10c24: 03 cd 06 00  	lbu	s10, 0x0(a3)
   10c28: 1d 8e        	sub	a2, a2, a5
   10c2a: 18 82        	lbu	a4, 0x0(a2)
   10c2c: 33 06 25 01  	add	a2, a0, s2
   10c30: b3 06 ba 01  	add	a3, s4, s11
   10c34: 36 96        	add	a2, a2, a3
   10c36: b3 86 7c 01  	add	a3, s9, s7
   10c3a: ce 96        	add	a3, a3, s3
   10c3c: 36 96        	add	a2, a2, a3
   10c3e: b3 06 ed 00  	add	a3, s10, a4
   10c42: 36 96        	add	a2, a2, a3
   10c44: 1b 06 c6 f9  	addiw	a2, a2, -0x64
   10c48: 59 ca        	beqz	a2, 0x10cde <susan_smoothing+0x1e6>
   10c4a: c6 e0        	sd	a7, 0x40(sp)
   10c4c: b2 e8        	sd	a2, 0x50(sp)
   10c4e: 3e fc        	sd	a5, 0x38(sp)
   10c50: 72 ec        	sd	t3, 0x18(sp)
   10c52: 16 8b        	mv	s6, t0
   10c54: 22 f4        	sd	s0, 0x28(sp)
   10c56: 1a 84        	mv	s0, t1
   10c58: 1e 8c        	mv	s8, t2
   10c5a: 26 f0        	sd	s1, 0x20(sp)
   10c5c: f6 84        	mv	s1, t4
   10c5e: 3a f8        	sd	a4, 0x30(sp)
   10c60: ef e0 80 70  	jal	0x1f368 <__muldi3>
   10c64: aa e4        	sd	a0, 0x48(sp)
   10c66: 62 ad        	cm.mva01s	s2, s0
   10c68: ef e0 00 70  	jal	0x1f368 <__muldi3>
   10c6c: 2a 89        	mv	s2, a0
   10c6e: 52 85        	mv	a0, s4
   10c70: e2 85        	mv	a1, s8
   10c72: ef e0 60 6f  	jal	0x1f368 <__muldi3>
   10c76: 2a 8a        	mv	s4, a0
   10c78: 6e 85        	mv	a0, s11
   10c7a: a6 85        	mv	a1, s1
   10c7c: ef e0 c0 6e  	jal	0x1f368 <__muldi3>
   10c80: aa 8d        	mv	s11, a0
   10c82: 66 85        	mv	a0, s9
   10c84: da 85        	mv	a1, s6
   10c86: ef e0 20 6e  	jal	0x1f368 <__muldi3>
   10c8a: 2a 8b        	mv	s6, a0
   10c8c: 5e 85        	mv	a0, s7
   10c8e: e2 65        	ld	a1, 0x18(sp)
   10c90: ef e0 80 6d  	jal	0x1f368 <__muldi3>
   10c94: aa 8b        	mv	s7, a0
   10c96: 4e 85        	mv	a0, s3
   10c98: 82 75        	ld	a1, 0x20(sp)
   10c9a: ef e0 e0 6c  	jal	0x1f368 <__muldi3>
   10c9e: aa 89        	mv	s3, a0
   10ca0: 6a 85        	mv	a0, s10
   10ca2: a2 75        	ld	a1, 0x28(sp)
   10ca4: ef e0 40 6c  	jal	0x1f368 <__muldi3>
   10ca8: aa 84        	mv	s1, a0
   10caa: 42 75        	ld	a0, 0x30(sp)
   10cac: e2 75        	ld	a1, 0x38(sp)
   10cae: ef e0 a0 6b  	jal	0x1f368 <__muldi3>
   10cb2: 2a 84        	mv	s0, a0
   10cb4: 93 05 c0 f9  	li	a1, -0x64
   10cb8: 06 65        	ld	a0, 0x40(sp)
   10cba: ef e0 e0 6a  	jal	0x1f368 <__muldi3>
   10cbe: a6 65        	ld	a1, 0x48(sp)
   10cc0: 2e 95        	add	a0, a0, a1
   10cc2: 52 99        	add	s2, s2, s4
   10cc4: 4a 95        	add	a0, a0, s2
   10cc6: 6e 9b        	add	s6, s6, s11
   10cc8: 5e 9b        	add	s6, s6, s7
   10cca: 5a 95        	add	a0, a0, s6
   10ccc: ce 94        	add	s1, s1, s3
   10cce: 26 94        	add	s0, s0, s1
   10cd0: 21 9d        	addw	a0, a0, s0
   10cd2: c6 65        	ld	a1, 0x50(sp)
   10cd4: ef e0 40 6d  	jal	0x1f3a8 <__divdi3>
   10cd8: 22 69        	ld	s2, 0x8(sp)
   10cda: 06 74        	ld	s0, 0x60(sp)
   10cdc: 09 a8        	j	0x10cee <susan_smoothing+0x1f6>
   10cde: 62 85        	mv	a0, s8
   10ce0: c2 85        	mv	a1, a6
   10ce2: 06 74        	ld	s0, 0x60(sp)
   10ce4: 22 86        	mv	a2, s0
   10ce6: da 86        	mv	a3, s6
   10ce8: 42 89        	mv	s2, a6
   10cea: ef f0 9f c0  	jal	0x108f2 <median>
   10cee: a6 75        	ld	a1, 0x68(sp)
   10cf0: d6 95        	add	a1, a1, s5
   10cf2: 23 8d a5 fe  	sb	a0, -0x6(a1)
   10cf6: 56 5b        	lw	s6, 0x74(sp)
   10cf8: 1b 05 fb ff  	addiw	a0, s6, -0x1
   10cfc: 93 85 1a 00  	addi	a1, s5, 0x1
   10d00: 13 86 ca ff  	addi	a2, s5, -0x4
   10d04: 05 24        	addiw	s0, s0, 0x1
   10d06: ae 8a        	mv	s5, a1
   10d08: e3 4f a6 e6  	blt	a2, a0, 0x10b86 <susan_smoothing+0x8e>
   10d0c: 46 55        	lw	a0, 0x70(sp)
   10d0e: 26 76        	ld	a2, 0x68(sp)
   10d10: b2 95        	add	a1, a1, a2
   10d12: e9 15        	addi	a1, a1, -0x6
   10d14: ae f4        	sd	a1, 0x68(sp)
   10d16: 0d 46        	li	a2, 0x3
   10d18: 05 29        	addiw	s2, s2, 0x1
   10d1a: 9b 05 f5 ff  	addiw	a1, a0, -0x1
   10d1e: c2 66        	ld	a3, 0x10(sp)
   10d20: 85 26        	addiw	a3, a3, 0x1
   10d22: 36 e8        	sd	a3, 0x10(sp)
   10d24: e3 4c b9 e4  	blt	s2, a1, 0x10b7c <susan_smoothing+0x84>
   10d28: 49 a2        	j	0x10eaa <susan_smoothing+0x3b2>
   10d2a: d6 59        	lw	s3, 0x74(sp)
   10d2c: 13 85 1b 00  	addi	a0, s7, 0x1
   10d30: aa 85        	mv	a1, a0
   10d32: ef e0 60 63  	jal	0x1f368 <__muldi3>
   10d36: 01 25        	sext.w	a0, a0
   10d38: ef 30 e0 11  	jal	0x13e56 <malloc>
   10d3c: 93 4d fb ff  	not	s11, s6
   10d40: 2a f8        	sd	a0, 0x30(sp)
   10d42: 63 4e bd 05  	blt	s10, s11, 0x10d9e <susan_smoothing+0x2a6>
   10d46: d3 17 84 20  	fneg.s	fa5, fs0
   10d4a: 87 b4 81 1d  	fld	fs1, 0x1d8(gp)
   10d4e: 53 f4 87 10  	fmul.s	fs0, fa5, fs0
   10d52: bb 0c 50 41  	negw	s9, s5
   10d56: 05 4c        	li	s8, 0x1
   10d58: 42 74        	ld	s0, 0x30(sp)
   10d5a: 6e 85        	mv	a0, s11
   10d5c: 2a 89        	mv	s2, a0
   10d5e: aa 85        	mv	a1, a0
   10d60: ef e0 80 60  	jal	0x1f368 <__muldi3>
   10d64: 2a 8a        	mv	s4, a0
   10d66: ee 84        	mv	s1, s11
   10d68: e6 ac        	cm.mva01s	s1, s1
   10d6a: ef e0 e0 5f  	jal	0x1f368 <__muldi3>
   10d6e: 52 95        	add	a0, a0, s4
   10d70: d3 77 05 d0  	fcvt.s.w	fa5, a0
   10d74: d3 f7 87 18  	fdiv.s	fa5, fa5, fs0
   10d78: 53 85 07 42  	fcvt.d.s	fa0, fa5
   10d7c: ef 20 b0 50  	jal	0x13a86 <exp>
   10d80: d3 77 95 12  	fmul.d	fa5, fa0, fs1
   10d84: 53 95 07 c2  	fcvt.w.d	a0, fa5, rtz
   10d88: 08 88        	sb	a0, 0x0(s0)
   10d8a: 85 24        	addiw	s1, s1, 0x1
   10d8c: 3b 85 9c 00  	addw	a0, s9, s1
   10d90: 05 04        	addi	s0, s0, 0x1
   10d92: e3 1b 85 fd  	bne	a0, s8, 0x10d68 <susan_smoothing+0x270>
   10d96: 1b 05 19 00  	addiw	a0, s2, 0x1
   10d9a: e3 11 59 fd  	bne	s2, s5, 0x10d5c <susan_smoothing+0x264>
   10d9e: 46 55        	lw	a0, 0x70(sp)
   10da0: bb 05 55 41  	subw	a1, a0, s5
   10da4: 63 d3 ba 10  	bge	s5, a1, 0x10eaa <susan_smoothing+0x3b2>
   10da8: f9 75        	lui	a1, 0xffffe
   10daa: 1b 8a 05 8f  	addiw	s4, a1, -0x710
   10dae: bb 05 50 41  	negw	a1, s5
   10db2: 2e e8        	sd	a1, 0x10(sp)
   10db4: d6 54        	lw	s1, 0x74(sp)
   10db6: 13 cc fb ff  	not	s8, s7
   10dba: 4e 9c        	add	s8, s8, s3
   10dbc: 56 9b        	add	s6, s6, s5
   10dbe: 05 0b        	addi	s6, s6, 0x1
   10dc0: 02 1b        	slli	s6, s6, 0x20
   10dc2: 13 59 0b 02  	srli	s2, s6, 0x20
   10dc6: 05 09        	addi	s2, s2, 0x1
   10dc8: d6 89        	mv	s3, s5
   10dca: 6a f4        	sd	s10, 0x28(sp)
   10dcc: 6e f0        	sd	s11, 0x20(sp)
   10dce: 52 ec        	sd	s4, 0x18(sp)
   10dd0: bb 85 54 41  	subw	a1, s1, s5
   10dd4: 63 d6 ba 0c  	bge	s5, a1, 0x10ea0 <susan_smoothing+0x3a8>
   10dd8: 3b 85 59 41  	subw	a0, s3, s5
   10ddc: 2a fc        	sd	a0, 0x38(sp)
   10dde: 56 84        	mv	s0, s5
   10de0: ce e0        	sd	s3, 0x40(sp)
   10de2: 66 7b        	ld	s6, 0x78(sp)
   10de4: ee ac        	cm.mva01s	s1, s3
   10de6: ef e0 20 58  	jal	0x1f368 <__muldi3>
   10dea: 01 25        	sext.w	a0, a0
   10dec: 22 95        	add	a0, a0, s0
   10dee: 5a 95        	add	a0, a0, s6
   10df0: 08 81        	lbu	a0, 0x0(a0)
   10df2: 63 55 bd 01  	bge	s10, s11, 0x10dfc <susan_smoothing+0x304>
   10df6: 81 4b        	li	s7, 0x0
   10df8: d2 84        	mv	s1, s4
   10dfa: b5 a0        	j	0x10e66 <susan_smoothing+0x36e>
   10dfc: e6 6c        	ld	s9, 0x58(sp)
   10dfe: aa f0        	sd	a0, 0x60(sp)
   10e00: aa 9c        	add	s9, s9, a0
   10e02: a6 e8        	sd	s1, 0x50(sp)
   10e04: 26 85        	mv	a0, s1
   10e06: e2 75        	ld	a1, 0x38(sp)
   10e08: ef e0 00 56  	jal	0x1f368 <__muldi3>
   10e0c: 81 4b        	li	s7, 0x0
   10e0e: da 89        	mv	s3, s6
   10e10: 01 4b        	li	s6, 0x0
   10e12: 01 25        	sext.w	a0, a0
   10e14: 22 95        	add	a0, a0, s0
   10e16: c2 65        	ld	a1, 0x10(sp)
   10e18: 2e 95        	add	a0, a0, a1
   10e1a: ce e4        	sd	s3, 0x48(sp)
   10e1c: aa 99        	add	s3, s3, a0
   10e1e: 42 7d        	ld	s10, 0x30(sp)
   10e20: 6e 85        	mv	a0, s11
   10e22: 2a 8a        	mv	s4, a0
   10e24: b3 8d 29 01  	add	s11, s3, s2
   10e28: 83 c4 09 00  	lbu	s1, 0x0(s3)
   10e2c: 83 45 0d 00  	lbu	a1, 0x0(s10)
   10e30: 33 85 9c 40  	sub	a0, s9, s1
   10e34: 08 81        	lbu	a0, 0x0(a0)
   10e36: 85 09        	addi	s3, s3, 0x1
   10e38: 05 0d        	addi	s10, s10, 0x1
   10e3a: ef e0 e0 52  	jal	0x1f368 <__muldi3>
   10e3e: 2a 9b        	add	s6, s6, a0
   10e40: a6 85        	mv	a1, s1
   10e42: ef e0 60 52  	jal	0x1f368 <__muldi3>
   10e46: aa 9b        	add	s7, s7, a0
   10e48: e3 90 b9 ff  	bne	s3, s11, 0x10e28 <susan_smoothing+0x330>
   10e4c: e2 99        	add	s3, s3, s8
   10e4e: 1b 05 1a 00  	addiw	a0, s4, 0x1
   10e52: e3 18 5a fd  	bne	s4, s5, 0x10e22 <susan_smoothing+0x32a>
   10e56: 62 6a        	ld	s4, 0x18(sp)
   10e58: bb 04 4b 01  	addw	s1, s6, s4
   10e5c: 22 7d        	ld	s10, 0x28(sp)
   10e5e: 82 7d        	ld	s11, 0x20(sp)
   10e60: 86 69        	ld	s3, 0x40(sp)
   10e62: 06 75        	ld	a0, 0x60(sp)
   10e64: 85 c4        	beqz	s1, 0x10e8c <susan_smoothing+0x394>
   10e66: d2 85        	mv	a1, s4
   10e68: ef e0 00 50  	jal	0x1f368 <__muldi3>
   10e6c: 3b 85 ab 00  	addw	a0, s7, a0
   10e70: a6 85        	mv	a1, s1
   10e72: ef e0 60 53  	jal	0x1f3a8 <__divdi3>
   10e76: a6 75        	ld	a1, 0x68(sp)
   10e78: 88 89        	sb	a0, 0x0(a1)
   10e7a: d6 54        	lw	s1, 0x74(sp)
   10e7c: 85 05        	addi	a1, a1, 0x1
   10e7e: 05 04        	addi	s0, s0, 0x1
   10e80: 3b 85 54 41  	subw	a0, s1, s5
   10e84: ae f4        	sd	a1, 0x68(sp)
   10e86: e3 4e a4 f4  	blt	s0, a0, 0x10de2 <susan_smoothing+0x2ea>
   10e8a: 09 a8        	j	0x10e9c <susan_smoothing+0x3a4>
   10e8c: 1b 06 04 00  	sext.w	a2, s0
   10e90: 26 65        	ld	a0, 0x48(sp)
   10e92: ce 85        	mv	a1, s3
   10e94: c6 66        	ld	a3, 0x50(sp)
   10e96: ef f0 df a5  	jal	0x108f2 <median>
   10e9a: f1 bf        	j	0x10e76 <susan_smoothing+0x37e>
   10e9c: 46 55        	lw	a0, 0x70(sp)
   10e9e: ae f4        	sd	a1, 0x68(sp)
   10ea0: 85 29        	addiw	s3, s3, 0x1
   10ea2: bb 05 55 41  	subw	a1, a0, s5
   10ea6: e3 c5 b9 f2  	blt	s3, a1, 0x10dd0 <susan_smoothing+0x2d8>
   10eaa: 07 34 81 08  	fld	fs0, 0x88(sp)
   10eae: 87 34 01 08  	fld	fs1, 0x80(sp)
   10eb2: 25 61        	addi	sp, sp, 0x60
   10eb4: fe be        	cm.popret	{ra, s0-s11}, 160
   10eb6: 37 f5 01 00  	lui	a0, 0x1f
   10eba: 13 05 e5 57  	addi	a0, a0, 0x57e
   10ebe: d3 85 07 e2  	fmv.x.d	a1, fa5
   10ec2: ef 50 e0 34  	jal	0x16210 <printf>
   10ec6: 37 05 02 00  	lui	a0, 0x20
   10eca: 13 05 85 95  	addi	a0, a0, -0x6a8
   10ece: ef 50 00 3f  	jal	0x162be <puts>
   10ed2: 37 05 02 00  	lui	a0, 0x20
   10ed6: 13 05 45 99  	addi	a0, a0, -0x66c
   10eda: ef 50 40 3e  	jal	0x162be <puts>
   10ede: 01 a8        	j	0x10eee <susan_smoothing+0x3f6>
   10ee0: 37 f5 01 00  	lui	a0, 0x1f
   10ee4: 13 05 45 5b  	addi	a0, a0, 0x5b4
   10ee8: d6 85        	mv	a1, s5
   10eea: ef 50 60 32  	jal	0x16210 <printf>
   10eee: 01 45        	li	a0, 0x0
   10ef0: ef f0 0f a3  	jal	0x10120 <exit>

0000000000010ef4 <edge_draw>:
   10ef4: 82 b8        	cm.push	{ra, s0-s3}, -48
   10ef6: ba 89        	mv	s3, a4
   10ef8: 32 89        	mv	s2, a2
   10efa: a2 ac        	cm.mvsa01	s1, s0
   10efc: 36 85        	mv	a0, a3
   10efe: b2 85        	mv	a1, a2
   10f00: ef e0 80 46  	jal	0x1f368 <__muldi3>
   10f04: 1b 08 05 00  	sext.w	a6, a0
   10f08: 63 95 09 06  	bnez	s3, 0x10f72 <edge_draw+0x7e>
   10f0c: 63 55 00 09  	blez	a6, 0x10f96 <edge_draw+0xa2>
   10f10: 81 46        	li	a3, 0x0
   10f12: b3 88 24 41  	sub	a7, s1, s2
   10f16: 1b 05 e9 ff  	addiw	a0, s2, -0x2
   10f1a: 93 12 15 00  	slli	t0, a0, 0x1
   10f1e: 33 86 24 41  	sub	a2, s1, s2
   10f22: b2 92        	add	t0, t0, a2
   10f24: 33 06 99 40  	sub	a2, s2, s1
   10f28: 11 8d        	sub	a0, a0, a2
   10f2a: 13 07 15 00  	addi	a4, a0, 0x1
   10f2e: 13 05 f8 ff  	addi	a0, a6, -0x1
   10f32: 02 15        	slli	a0, a0, 0x20
   10f34: 01 91        	srli	a0, a0, 0x20
   10f36: 93 07 15 00  	addi	a5, a0, 0x1
   10f3a: 1d 45        	li	a0, 0x7
   10f3c: 13 06 f0 0f  	li	a2, 0xff
   10f40: b3 05 d4 00  	add	a1, s0, a3
   10f44: 8c 81        	lbu	a1, 0x0(a1)
   10f46: 63 63 b5 02  	bltu	a0, a1, 0x10f6c <edge_draw+0x78>
   10f4a: b3 85 d8 00  	add	a1, a7, a3
   10f4e: a3 8f c5 fe  	sb	a2, -0x1(a1)
   10f52: 90 89        	sb	a2, 0x0(a1)
   10f54: d0 89        	sb	a2, 0x1(a1)
   10f56: b3 05 d7 00  	add	a1, a4, a3
   10f5a: 90 89        	sb	a2, 0x0(a1)
   10f5c: b0 89        	sb	a2, 0x2(a1)
   10f5e: b3 85 d2 00  	add	a1, t0, a3
   10f62: f0 89        	sb	a2, 0x3(a1)
   10f64: 23 82 c5 00  	sb	a2, 0x4(a1)
   10f68: a3 82 c5 00  	sb	a2, 0x5(a1)
   10f6c: 85 06        	addi	a3, a3, 0x1
   10f6e: e3 99 f6 fc  	bne	a3, a5, 0x10f40 <edge_draw+0x4c>
   10f72: 63 52 00 03  	blez	a6, 0x10f96 <edge_draw+0xa2>
   10f76: 7d 18        	addi	a6, a6, -0x1
   10f78: 02 18        	slli	a6, a6, 0x20
   10f7a: 13 55 08 02  	srli	a0, a6, 0x20
   10f7e: 22 95        	add	a0, a0, s0
   10f80: 05 05        	addi	a0, a0, 0x1
   10f82: 9d 45        	li	a1, 0x7
   10f84: 10 80        	lbu	a2, 0x0(s0)
   10f86: 63 e4 c5 00  	bltu	a1, a2, 0x10f8e <edge_draw+0x9a>
   10f8a: 23 80 04 00  	sb	zero, 0x0(s1)
   10f8e: 05 04        	addi	s0, s0, 0x1
   10f90: 85 04        	addi	s1, s1, 0x1
   10f92: e3 19 a4 fe  	bne	s0, a0, 0x10f84 <edge_draw+0x90>
   10f96: 82 bc        	cm.popretz	{ra, s0-s3}, 48

0000000000010f98 <susan_thin>:
   10f98: 25 47        	li	a4, 0x9
   10f9a: 63 c3 e6 6c  	blt	a3, a4, 0x11660 <susan_thin+0x6c8>
   10f9e: fe b8        	cm.push	{ra, s0-s11}, -160
   10fa0: 59 71        	addi	sp, sp, -0x70
   10fa2: 27 3c 81 08  	fsd	fs0, 0x98(sp)
   10fa6: b2 8c        	mv	s9, a2
   10fa8: 3e ae        	cm.mvsa01	s4, s7
   10faa: f1 36        	addiw	a3, a3, -0x4
   10fac: 36 e4        	sd	a3, 0x8(sp)
   10fae: 9b 09 c6 ff  	addiw	s3, a2, -0x4
   10fb2: 13 85 f5 ff  	addi	a0, a1, -0x1
   10fb6: 2a e0        	sd	a0, 0x0(sp)
   10fb8: 91 4a        	li	s5, 0x4
   10fba: 1d 4c        	li	s8, 0x7
   10fbc: 07 b4 01 1e  	fld	fs0, 0x1e0(gp)
   10fc0: ae ec        	sd	a1, 0x58(sp)
   10fc2: d2 e4        	sd	s4, 0x48(sp)
   10fc4: ce e8        	sd	s3, 0x50(sp)
   10fc6: 25 45        	li	a0, 0x9
   10fc8: 63 c4 ac 68  	blt	s9, a0, 0x11650 <susan_thin+0x6b8>
   10fcc: 11 4d        	li	s10, 0x4
   10fce: 56 85        	mv	a0, s5
   10fd0: e6 85        	mv	a1, s9
   10fd2: ef e0 60 39  	jal	0x1f368 <__muldi3>
   10fd6: bb 04 a5 01  	addw	s1, a0, s10
   10fda: 33 84 9b 00  	add	s0, s7, s1
   10fde: 03 49 04 00  	lbu	s2, 0x0(s0)
   10fe2: 63 61 2c 65  	bltu	s8, s2, 0x11624 <susan_thin+0x68c>
   10fe6: 13 95 24 00  	slli	a0, s1, 0x2
   10fea: 52 95        	add	a0, a0, s4
   10fec: 08 41        	lw	a0, 0x0(a0)
   10fee: aa f0        	sd	a0, 0x60(sp)
   10ff0: d6 f4        	sd	s5, 0x68(sp)
   10ff2: fd 3a        	addiw	s5, s5, -0x1
   10ff4: 56 85        	mv	a0, s5
   10ff6: e6 85        	mv	a1, s9
   10ff8: ef e0 00 37  	jal	0x1f368 <__muldi3>
   10ffc: 9b 05 05 00  	sext.w	a1, a0
   11000: 33 86 ab 01  	add	a2, s7, s10
   11004: b2 95        	add	a1, a1, a2
   11006: 03 c6 f5 ff  	lbu	a2, -0x1(a1)
   1100a: 94 81        	lbu	a3, 0x0(a1)
   1100c: 13 87 f5 ff  	addi	a4, a1, -0x1
   11010: 13 36 86 00  	sltiu	a2, a2, 0x8
   11014: 93 b6 86 00  	sltiu	a3, a3, 0x8
   11018: cc 81        	lbu	a1, 0x1(a1)
   1101a: 66 97        	add	a4, a4, s9
   1101c: 1c 83        	lbu	a5, 0x0(a4)
   1101e: 36 96        	add	a2, a2, a3
   11020: 93 b5 85 00  	sltiu	a1, a1, 0x8
   11024: b2 95        	add	a1, a1, a2
   11026: 13 b6 87 00  	sltiu	a2, a5, 0x8
   1102a: 34 83        	lbu	a3, 0x2(a4)
   1102c: b2 95        	add	a1, a1, a2
   1102e: 66 97        	add	a4, a4, s9
   11030: 10 83        	lbu	a2, 0x0(a4)
   11032: 93 b6 86 00  	sltiu	a3, a3, 0x8
   11036: 5c 83        	lbu	a5, 0x1(a4)
   11038: b6 95        	add	a1, a1, a3
   1103a: 13 36 86 00  	sltiu	a2, a2, 0x8
   1103e: 34 83        	lbu	a3, 0x2(a4)
   11040: 13 b7 87 00  	sltiu	a4, a5, 0x8
   11044: 3a 96        	add	a2, a2, a4
   11046: b2 95        	add	a1, a1, a2
   11048: 13 b6 86 00  	sltiu	a2, a3, 0x8
   1104c: 3b 8c c5 00  	addw	s8, a1, a2
   11050: 85 45        	li	a1, 0x1
   11052: 63 08 bc 00  	beq	s8, a1, 0x11062 <susan_thin+0xca>
   11056: 63 19 0c 42  	bnez	s8, 0x11488 <susan_thin+0x4f0>
   1105a: 13 05 40 06  	li	a0, 0x64
   1105e: 08 88        	sb	a0, 0x0(s0)
   11060: d1 a0        	j	0x11124 <susan_thin+0x18c>
   11062: d6 e0        	sd	s5, 0x40(sp)
   11064: 95 45        	li	a1, 0x5
   11066: 63 ef 25 0b  	bltu	a1, s2, 0x11124 <susan_thin+0x18c>
   1106a: 3b 04 a5 01  	addw	s0, a0, s10
   1106e: 9b 09 f4 ff  	addiw	s3, s0, -0x1
   11072: 13 95 29 00  	slli	a0, s3, 0x2
   11076: 52 95        	add	a0, a0, s4
   11078: 0c 41        	lw	a1, 0x0(a0)
   1107a: 13 15 24 00  	slli	a0, s0, 0x2
   1107e: 52 95        	add	a0, a0, s4
   11080: 08 41        	lw	a0, 0x0(a0)
   11082: 2e f4        	sd	a1, 0x28(sp)
   11084: ae da        	sw	a1, 0x74(sp)
   11086: 2a ec        	sd	a0, 0x18(sp)
   11088: aa dc        	sw	a0, 0x78(sp)
   1108a: 1b 05 14 00  	addiw	a0, s0, 0x1
   1108e: 2a f8        	sd	a0, 0x30(sp)
   11090: 0a 05        	slli	a0, a0, 0x2
   11092: 52 95        	add	a0, a0, s4
   11094: 83 2a 05 00  	lw	s5, 0x0(a0)
   11098: 1b 85 f4 ff  	addiw	a0, s1, -0x1
   1109c: 2a f0        	sd	a0, 0x20(sp)
   1109e: 0a 05        	slli	a0, a0, 0x2
   110a0: 52 95        	add	a0, a0, s4
   110a2: 0c 41        	lw	a1, 0x0(a0)
   110a4: 1b 85 14 00  	addiw	a0, s1, 0x1
   110a8: 2a e8        	sd	a0, 0x10(sp)
   110aa: 0a 05        	slli	a0, a0, 0x2
   110ac: 52 95        	add	a0, a0, s4
   110ae: 04 41        	lw	s1, 0x0(a0)
   110b0: d6 de        	sw	s5, 0x7c(sp)
   110b2: 2e fc        	sd	a1, 0x38(sp)
   110b4: 2e c1        	sw	a1, 0x80(sp)
   110b6: 02 c3        	sw	zero, 0x84(sp)
   110b8: 26 c5        	sw	s1, 0x88(sp)
   110ba: 26 75        	ld	a0, 0x68(sp)
   110bc: 05 05        	addi	a0, a0, 0x1
   110be: e6 85        	mv	a1, s9
   110c0: ef e0 80 2a  	jal	0x1f368 <__muldi3>
   110c4: bb 06 a5 01  	addw	a3, a0, s10
   110c8: 9b 87 f6 ff  	addiw	a5, a3, -0x1
   110cc: 13 95 27 00  	slli	a0, a5, 0x2
   110d0: 52 95        	add	a0, a0, s4
   110d2: 03 28 05 00  	lw	a6, 0x0(a0)
   110d6: 93 95 26 00  	slli	a1, a3, 0x2
   110da: d2 95        	add	a1, a1, s4
   110dc: 8c 41        	lw	a1, 0x0(a1)
   110de: 1b 87 16 00  	addiw	a4, a3, 0x1
   110e2: 13 16 27 00  	slli	a2, a4, 0x2
   110e6: 52 96        	add	a2, a2, s4
   110e8: 10 42        	lw	a2, 0x0(a2)
   110ea: de 99        	add	s3, s3, s7
   110ec: 03 c5 09 00  	lbu	a0, 0x0(s3)
   110f0: 42 c7        	sw	a6, 0x8c(sp)
   110f2: 2e c9        	sw	a1, 0x90(sp)
   110f4: 32 cb        	sw	a2, 0x94(sp)
   110f6: 9d 48        	li	a7, 0x7
   110f8: 63 e9 a8 02  	bltu	a7, a0, 0x1112a <susan_thin+0x192>
   110fc: 82 da        	sw	zero, 0x74(sp)
   110fe: 82 dc        	sw	zero, 0x78(sp)
   11100: 02 c1        	sw	zero, 0x80(sp)
   11102: 13 95 1a 00  	slli	a0, s5, 0x1
   11106: aa de        	sw	a0, 0x7c(sp)
   11108: 06 08        	slli	a6, a6, 0x1
   1110a: 42 c7        	sw	a6, 0x8c(sp)
   1110c: 13 95 14 00  	slli	a0, s1, 0x1
   11110: 26 95        	add	a0, a0, s1
   11112: 2a c5        	sw	a0, 0x88(sp)
   11114: 13 95 15 00  	slli	a0, a1, 0x1
   11118: 2e 95        	add	a0, a0, a1
   1111a: 2a c9        	sw	a0, 0x90(sp)
   1111c: 0a 06        	slli	a2, a2, 0x2
   1111e: 32 cb        	sw	a2, 0x94(sp)
   11120: c6 69        	ld	s3, 0x50(sp)
   11122: 8d aa        	j	0x11294 <susan_thin+0x2fc>
   11124: 1d 4c        	li	s8, 0x7
   11126: a6 7a        	ld	s5, 0x68(sp)
   11128: f5 a9        	j	0x11624 <susan_thin+0x68c>
   1112a: 5e 8a        	mv	s4, s7
   1112c: 26 83        	mv	t1, s1
   1112e: 5e 94        	add	s0, s0, s7
   11130: 08 80        	lbu	a0, 0x0(s0)
   11132: c6 69        	ld	s3, 0x50(sp)
   11134: 63 e6 a8 02  	bltu	a7, a0, 0x11160 <susan_thin+0x1c8>
   11138: 82 dc        	sw	zero, 0x78(sp)
   1113a: 82 da        	sw	zero, 0x74(sp)
   1113c: 82 de        	sw	zero, 0x7c(sp)
   1113e: 62 75        	ld	a0, 0x38(sp)
   11140: 06 05        	slli	a0, a0, 0x1
   11142: 2a c1        	sw	a0, 0x80(sp)
   11144: 13 15 13 00  	slli	a0, t1, 0x1
   11148: 2a c5        	sw	a0, 0x88(sp)
   1114a: 13 15 18 00  	slli	a0, a6, 0x1
   1114e: 42 95        	add	a0, a0, a6
   11150: 2a c7        	sw	a0, 0x8c(sp)
   11152: 13 15 16 00  	slli	a0, a2, 0x1
   11156: 32 95        	add	a0, a0, a2
   11158: 2a cb        	sw	a0, 0x94(sp)
   1115a: 8a 05        	slli	a1, a1, 0x2
   1115c: 2e c9        	sw	a1, 0x90(sp)
   1115e: 1d aa        	j	0x11294 <susan_thin+0x2fc>
   11160: c2 7b        	ld	s7, 0x30(sp)
   11162: d2 9b        	add	s7, s7, s4
   11164: 03 c5 0b 00  	lbu	a0, 0x0(s7)
   11168: 63 e6 a8 02  	bltu	a7, a0, 0x11194 <susan_thin+0x1fc>
   1116c: 82 de        	sw	zero, 0x7c(sp)
   1116e: 82 dc        	sw	zero, 0x78(sp)
   11170: 02 c5        	sw	zero, 0x88(sp)
   11172: 22 75        	ld	a0, 0x28(sp)
   11174: 06 05        	slli	a0, a0, 0x1
   11176: aa da        	sw	a0, 0x74(sp)
   11178: 06 06        	slli	a2, a2, 0x1
   1117a: 32 cb        	sw	a2, 0x94(sp)
   1117c: 62 76        	ld	a2, 0x38(sp)
   1117e: 13 15 16 00  	slli	a0, a2, 0x1
   11182: 32 95        	add	a0, a0, a2
   11184: 2a c1        	sw	a0, 0x80(sp)
   11186: 13 95 15 00  	slli	a0, a1, 0x1
   1118a: 2e 95        	add	a0, a0, a1
   1118c: 2a c9        	sw	a0, 0x90(sp)
   1118e: 0a 08        	slli	a6, a6, 0x2
   11190: 42 c7        	sw	a6, 0x8c(sp)
   11192: 09 a2        	j	0x11294 <susan_thin+0x2fc>
   11194: d6 82        	mv	t0, s5
   11196: 02 75        	ld	a0, 0x20(sp)
   11198: 52 95        	add	a0, a0, s4
   1119a: 08 81        	lbu	a0, 0x0(a0)
   1119c: 63 e6 a8 02  	bltu	a7, a0, 0x111c8 <susan_thin+0x230>
   111a0: 02 c1        	sw	zero, 0x80(sp)
   111a2: 82 da        	sw	zero, 0x74(sp)
   111a4: 02 c7        	sw	zero, 0x8c(sp)
   111a6: 62 65        	ld	a0, 0x18(sp)
   111a8: 06 05        	slli	a0, a0, 0x1
   111aa: aa dc        	sw	a0, 0x78(sp)
   111ac: 86 05        	slli	a1, a1, 0x1
   111ae: 2e c9        	sw	a1, 0x90(sp)
   111b0: 13 95 12 00  	slli	a0, t0, 0x1
   111b4: 16 95        	add	a0, a0, t0
   111b6: aa de        	sw	a0, 0x7c(sp)
   111b8: 13 15 16 00  	slli	a0, a2, 0x1
   111bc: 32 95        	add	a0, a0, a2
   111be: 2a cb        	sw	a0, 0x94(sp)
   111c0: 13 15 23 00  	slli	a0, t1, 0x2
   111c4: 2a c5        	sw	a0, 0x88(sp)
   111c6: f9 a0        	j	0x11294 <susan_thin+0x2fc>
   111c8: c2 64        	ld	s1, 0x10(sp)
   111ca: d2 94        	add	s1, s1, s4
   111cc: 88 80        	lbu	a0, 0x0(s1)
   111ce: 63 e7 a8 02  	bltu	a7, a0, 0x111fc <susan_thin+0x264>
   111d2: 02 c5        	sw	zero, 0x88(sp)
   111d4: 82 de        	sw	zero, 0x7c(sp)
   111d6: 02 cb        	sw	zero, 0x94(sp)
   111d8: 62 65        	ld	a0, 0x18(sp)
   111da: 06 05        	slli	a0, a0, 0x1
   111dc: aa dc        	sw	a0, 0x78(sp)
   111de: 86 05        	slli	a1, a1, 0x1
   111e0: 2e c9        	sw	a1, 0x90(sp)
   111e2: a2 7a        	ld	s5, 0x28(sp)
   111e4: 13 95 1a 00  	slli	a0, s5, 0x1
   111e8: 56 95        	add	a0, a0, s5
   111ea: aa da        	sw	a0, 0x74(sp)
   111ec: 13 15 18 00  	slli	a0, a6, 0x1
   111f0: 42 95        	add	a0, a0, a6
   111f2: 2a c7        	sw	a0, 0x8c(sp)
   111f4: 62 75        	ld	a0, 0x38(sp)
   111f6: 0a 05        	slli	a0, a0, 0x2
   111f8: 2a c1        	sw	a0, 0x80(sp)
   111fa: 69 a8        	j	0x11294 <susan_thin+0x2fc>
   111fc: d2 97        	add	a5, a5, s4
   111fe: 88 83        	lbu	a0, 0x0(a5)
   11200: 63 e7 a8 02  	bltu	a7, a0, 0x1122e <susan_thin+0x296>
   11204: 02 c7        	sw	zero, 0x8c(sp)
   11206: 02 c1        	sw	zero, 0x80(sp)
   11208: 02 c9        	sw	zero, 0x90(sp)
   1120a: 22 75        	ld	a0, 0x28(sp)
   1120c: 06 05        	slli	a0, a0, 0x1
   1120e: aa da        	sw	a0, 0x74(sp)
   11210: 06 06        	slli	a2, a2, 0x1
   11212: 32 cb        	sw	a2, 0x94(sp)
   11214: e2 65        	ld	a1, 0x18(sp)
   11216: 13 95 15 00  	slli	a0, a1, 0x1
   1121a: 2e 95        	add	a0, a0, a1
   1121c: aa dc        	sw	a0, 0x78(sp)
   1121e: 13 15 13 00  	slli	a0, t1, 0x1
   11222: 1a 95        	add	a0, a0, t1
   11224: 2a c5        	sw	a0, 0x88(sp)
   11226: 13 95 22 00  	slli	a0, t0, 0x2
   1122a: aa de        	sw	a0, 0x7c(sp)
   1122c: a5 a0        	j	0x11294 <susan_thin+0x2fc>
   1122e: d2 96        	add	a3, a3, s4
   11230: 88 82        	lbu	a0, 0x0(a3)
   11232: 63 e8 a8 02  	bltu	a7, a0, 0x11262 <susan_thin+0x2ca>
   11236: 02 c9        	sw	zero, 0x90(sp)
   11238: 02 c7        	sw	zero, 0x8c(sp)
   1123a: 02 cb        	sw	zero, 0x94(sp)
   1123c: 62 75        	ld	a0, 0x38(sp)
   1123e: 06 05        	slli	a0, a0, 0x1
   11240: 2a c1        	sw	a0, 0x80(sp)
   11242: 13 15 13 00  	slli	a0, t1, 0x1
   11246: 2a c5        	sw	a0, 0x88(sp)
   11248: a2 7a        	ld	s5, 0x28(sp)
   1124a: 13 95 1a 00  	slli	a0, s5, 0x1
   1124e: 56 95        	add	a0, a0, s5
   11250: aa da        	sw	a0, 0x74(sp)
   11252: 13 95 12 00  	slli	a0, t0, 0x1
   11256: 16 95        	add	a0, a0, t0
   11258: aa de        	sw	a0, 0x7c(sp)
   1125a: 62 65        	ld	a0, 0x18(sp)
   1125c: 0a 05        	slli	a0, a0, 0x2
   1125e: aa dc        	sw	a0, 0x78(sp)
   11260: 15 a8        	j	0x11294 <susan_thin+0x2fc>
   11262: 52 97        	add	a4, a4, s4
   11264: 08 83        	lbu	a0, 0x0(a4)
   11266: 63 e7 a8 02  	bltu	a7, a0, 0x11294 <susan_thin+0x2fc>
   1126a: 02 cb        	sw	zero, 0x94(sp)
   1126c: 02 c5        	sw	zero, 0x88(sp)
   1126e: 02 c9        	sw	zero, 0x90(sp)
   11270: 06 08        	slli	a6, a6, 0x1
   11272: 42 c7        	sw	a6, 0x8c(sp)
   11274: 13 95 12 00  	slli	a0, t0, 0x1
   11278: aa de        	sw	a0, 0x7c(sp)
   1127a: e2 65        	ld	a1, 0x18(sp)
   1127c: 13 95 15 00  	slli	a0, a1, 0x1
   11280: 2e 95        	add	a0, a0, a1
   11282: aa dc        	sw	a0, 0x78(sp)
   11284: e2 75        	ld	a1, 0x38(sp)
   11286: 13 95 15 00  	slli	a0, a1, 0x1
   1128a: 2e 95        	add	a0, a0, a1
   1128c: 2a c1        	sw	a0, 0x80(sp)
   1128e: 22 75        	ld	a0, 0x28(sp)
   11290: 0a 05        	slli	a0, a0, 0x2
   11292: aa da        	sw	a0, 0x74(sp)
   11294: 81 44        	li	s1, 0x0
   11296: 81 4b        	li	s7, 0x0
   11298: c0 18        	addi	s0, sp, 0x74
   1129a: 26 6a        	ld	s4, 0x48(sp)
   1129c: b1 45        	li	a1, 0xc
   1129e: 26 85        	mv	a0, s1
   112a0: ef e0 80 0c  	jal	0x1f368 <__muldi3>
   112a4: 81 45        	li	a1, 0x0
   112a6: d0 18        	addi	a2, sp, 0x74
   112a8: 32 95        	add	a0, a0, a2
   112aa: 31 05        	addi	a0, a0, 0xc
   112ac: 22 86        	mv	a2, s0
   112ae: da 86        	mv	a3, s6
   112b0: 6e 87        	mv	a4, s11
   112b2: de 87        	mv	a5, s7
   112b4: 83 2b 06 00  	lw	s7, 0x0(a2)
   112b8: a6 8d        	mv	s11, s1
   112ba: 2e 8b        	mv	s6, a1
   112bc: 63 c5 77 01  	blt	a5, s7, 0x112c6 <susan_thin+0x32e>
   112c0: be 8b        	mv	s7, a5
   112c2: ba 8d        	mv	s11, a4
   112c4: 36 8b        	mv	s6, a3
   112c6: 11 06        	addi	a2, a2, 0x4
   112c8: 85 05        	addi	a1, a1, 0x1
   112ca: da 86        	mv	a3, s6
   112cc: 6e 87        	mv	a4, s11
   112ce: de 87        	mv	a5, s7
   112d0: e3 12 a6 fe  	bne	a2, a0, 0x112b4 <susan_thin+0x31c>
   112d4: 85 04        	addi	s1, s1, 0x1
   112d6: 31 04        	addi	s0, s0, 0xc
   112d8: 0d 45        	li	a0, 0x3
   112da: e3 91 a4 fc  	bne	s1, a0, 0x1129c <susan_thin+0x304>
   112de: 63 54 70 1b  	blez	s7, 0x11486 <susan_thin+0x4ee>
   112e2: 11 44        	li	s0, 0x4
   112e4: 89 44        	li	s1, 0x2
   112e6: 63 64 89 00  	bltu	s2, s0, 0x112ee <susan_thin+0x356>
   112ea: 13 04 19 00  	addi	s0, s2, 0x1
   112ee: 86 6a        	ld	s5, 0x40(sp)
   112f0: 33 85 ba 01  	add	a0, s5, s11
   112f4: e6 85        	mv	a1, s9
   112f6: ef e0 20 07  	jal	0x1f368 <__muldi3>
   112fa: b3 05 ab 01  	add	a1, s6, s10
   112fe: 2d 9d        	addw	a0, a0, a1
   11300: 02 66        	ld	a2, 0x0(sp)
   11302: 32 95        	add	a0, a0, a2
   11304: 13 96 1d 00  	slli	a2, s11, 0x1
   11308: 3b 06 66 01  	addw	a2, a2, s6
   1130c: 00 89        	sb	s0, 0x0(a0)
   1130e: e6 6b        	ld	s7, 0x58(sp)
   11310: 63 cd c4 16  	blt	s1, a2, 0x1148a <susan_thin+0x4f2>
   11314: bb 8a ba 01  	addw	s5, s5, s11
   11318: 11 45        	li	a0, 0x4
   1131a: 63 43 55 01  	blt	a0, s5, 0x11320 <susan_thin+0x388>
   1131e: 91 4a        	li	s5, 0x4
   11320: 1b 8d e5 ff  	addiw	s10, a1, -0x2
   11324: 63 43 a5 01  	blt	a0, s10, 0x1132a <susan_thin+0x392>
   11328: 11 4d        	li	s10, 0x4
   1132a: 63 13 9c 16  	bne	s8, s1, 0x11490 <susan_thin+0x4f8>
   1132e: 13 85 fa ff  	addi	a0, s5, -0x1
   11332: e6 85        	mv	a1, s9
   11334: ef e0 40 03  	jal	0x1f368 <__muldi3>
   11338: 3b 09 a5 01  	addw	s2, a0, s10
   1133c: ca f4        	sd	s2, 0x68(sp)
   1133e: 5e 99        	add	s2, s2, s7
   11340: 83 49 f9 ff  	lbu	s3, -0x1(s2)
   11344: 09 4a        	li	s4, 0x2
   11346: 83 44 19 00  	lbu	s1, 0x1(s2)
   1134a: 5e 84        	mv	s0, s7
   1134c: 93 bb 89 00  	sltiu	s7, s3, 0x8
   11350: 13 bc 84 00  	sltiu	s8, s1, 0x8
   11354: 13 85 1a 00  	addi	a0, s5, 0x1
   11358: e6 85        	mv	a1, s9
   1135a: ef e0 e0 00  	jal	0x1f368 <__muldi3>
   1135e: 3b 07 a5 01  	addw	a4, a0, s10
   11362: 3a 94        	add	s0, s0, a4
   11364: 03 45 f4 ff  	lbu	a0, -0x1(s0)
   11368: 4c 80        	lbu	a1, 0x1(s0)
   1136a: 13 35 85 00  	sltiu	a0, a0, 0x8
   1136e: 93 b5 85 00  	sltiu	a1, a1, 0x8
   11372: 33 06 7c 01  	add	a2, s8, s7
   11376: b3 06 b5 00  	add	a3, a0, a1
   1137a: 36 96        	add	a2, a2, a3
   1137c: 63 16 46 03  	bne	a2, s4, 0x113a8 <susan_thin+0x410>
   11380: b3 e5 75 01  	or	a1, a1, s7
   11384: 33 65 85 01  	or	a0, a0, s8
   11388: 6d 8d        	and	a0, a0, a1
   1138a: 19 cd        	beqz	a0, 0x113a8 <susan_thin+0x410>
   1138c: 13 b5 84 00  	sltiu	a0, s1, 0x8
   11390: 93 44 15 00  	xori	s1, a0, 0x1
   11394: 9d 45        	li	a1, 0x7
   11396: ba e0        	sd	a4, 0x40(sp)
   11398: 63 e0 35 1d  	bltu	a1, s3, 0x11558 <susan_thin+0x5c0>
   1139c: 62 89        	mv	s2, s8
   1139e: 33 0c 90 40  	neg	s8, s1
   113a2: 33 04 a0 40  	neg	s0, a0
   113a6: 65 aa        	j	0x1155e <susan_thin+0x5c6>
   113a8: 03 45 09 00  	lbu	a0, 0x0(s2)
   113ac: 13 3c 85 00  	sltiu	s8, a0, 0x8
   113b0: 56 85        	mv	a0, s5
   113b2: e6 85        	mv	a1, s9
   113b4: ef d0 50 7b  	jal	0x1f368 <__muldi3>
   113b8: bb 04 a5 01  	addw	s1, a0, s10
   113bc: 66 65        	ld	a0, 0x58(sp)
   113be: aa 94        	add	s1, s1, a0
   113c0: c8 80        	lbu	a0, 0x1(s1)
   113c2: 0c 80        	lbu	a1, 0x0(s0)
   113c4: 03 c6 f4 ff  	lbu	a2, -0x1(s1)
   113c8: 93 3b 85 00  	sltiu	s7, a0, 0x8
   113cc: 13 ba 85 00  	sltiu	s4, a1, 0x8
   113d0: 93 39 86 00  	sltiu	s3, a2, 0x8
   113d4: 33 85 8b 01  	add	a0, s7, s8
   113d8: b3 05 3a 01  	add	a1, s4, s3
   113dc: 2e 95        	add	a0, a0, a1
   113de: 89 45        	li	a1, 0x2
   113e0: 63 11 b5 0a  	bne	a0, a1, 0x11482 <susan_thin+0x4ea>
   113e4: 33 e5 79 01  	or	a0, s3, s7
   113e8: b3 65 8a 01  	or	a1, s4, s8
   113ec: 6d 8d        	and	a0, a0, a1
   113ee: 51 c9        	beqz	a0, 0x11482 <susan_thin+0x4ea>
   113f0: 13 85 ea ff  	addi	a0, s5, -0x2
   113f4: e6 85        	mv	a1, s9
   113f6: ef d0 30 77  	jal	0x1f368 <__muldi3>
   113fa: 3b 05 a5 01  	addw	a0, a0, s10
   113fe: e6 65        	ld	a1, 0x58(sp)
   11400: 2e 95        	add	a0, a0, a1
   11402: 83 45 f5 ff  	lbu	a1, -0x1(a0)
   11406: 48 81        	lbu	a0, 0x1(a0)
   11408: 93 b5 85 00  	sltiu	a1, a1, 0x8
   1140c: 13 35 85 00  	sltiu	a0, a0, 0x8
   11410: 03 46 e9 ff  	lbu	a2, -0x2(s2)
   11414: b2 f4        	sd	a2, 0x68(sp)
   11416: 03 46 e4 ff  	lbu	a2, -0x2(s0)
   1141a: b2 f0        	sd	a2, 0x60(sp)
   1141c: 03 49 29 00  	lbu	s2, 0x2(s2)
   11420: 30 80        	lbu	a2, 0x2(s0)
   11422: b2 e0        	sd	a2, 0x40(sp)
   11424: 4d 8d        	or	a0, a0, a1
   11426: 33 74 ac 00  	and	s0, s8, a0
   1142a: 13 85 2a 00  	addi	a0, s5, 0x2
   1142e: e6 85        	mv	a1, s9
   11430: ef d0 90 73  	jal	0x1f368 <__muldi3>
   11434: 63 1e 04 1e  	bnez	s0, 0x11630 <susan_thin+0x698>
   11438: a6 75        	ld	a1, 0x68(sp)
   1143a: 93 b5 85 00  	sltiu	a1, a1, 0x8
   1143e: 06 76        	ld	a2, 0x60(sp)
   11440: 13 36 86 00  	sltiu	a2, a2, 0x8
   11444: d1 8d        	or	a1, a1, a2
   11446: b3 f5 b9 00  	and	a1, s3, a1
   1144a: 63 93 05 1e  	bnez	a1, 0x11630 <susan_thin+0x698>
   1144e: 93 35 89 00  	sltiu	a1, s2, 0x8
   11452: 06 66        	ld	a2, 0x40(sp)
   11454: 13 36 86 00  	sltiu	a2, a2, 0x8
   11458: d1 8d        	or	a1, a1, a2
   1145a: b3 f5 bb 00  	and	a1, s7, a1
   1145e: 63 99 05 1c  	bnez	a1, 0x11630 <susan_thin+0x698>
   11462: 3b 05 a5 01  	addw	a0, a0, s10
   11466: e6 65        	ld	a1, 0x58(sp)
   11468: 2e 95        	add	a0, a0, a1
   1146a: 83 45 f5 ff  	lbu	a1, -0x1(a0)
   1146e: 48 81        	lbu	a0, 0x1(a0)
   11470: 93 b5 85 00  	sltiu	a1, a1, 0x8
   11474: 13 35 85 00  	sltiu	a0, a0, 0x8
   11478: 4d 8d        	or	a0, a0, a1
   1147a: 33 75 aa 00  	and	a0, s4, a0
   1147e: 63 19 05 1a  	bnez	a0, 0x11630 <susan_thin+0x698>
   11482: e6 6b        	ld	s7, 0x58(sp)
   11484: 69 aa        	j	0x1161e <susan_thin+0x686>
   11486: e6 6b        	ld	s7, 0x58(sp)
   11488: 89 44        	li	s1, 0x2
   1148a: a6 7a        	ld	s5, 0x68(sp)
   1148c: e3 01 9c ea  	beq	s8, s1, 0x1132e <susan_thin+0x396>
   11490: 0d 45        	li	a0, 0x3
   11492: 63 48 ac 18  	blt	s8, a0, 0x11622 <susan_thin+0x68a>
   11496: 13 85 fa ff  	addi	a0, s5, -0x1
   1149a: e6 85        	mv	a1, s9
   1149c: ef d0 d0 6c  	jal	0x1f368 <__muldi3>
   114a0: 09 4c        	li	s8, 0x2
   114a2: bb 04 a5 01  	addw	s1, a0, s10
   114a6: de 94        	add	s1, s1, s7
   114a8: 88 80        	lbu	a0, 0x0(s1)
   114aa: 93 39 85 00  	sltiu	s3, a0, 0x8
   114ae: 56 85        	mv	a0, s5
   114b0: e6 85        	mv	a1, s9
   114b2: ef d0 70 6b  	jal	0x1f368 <__muldi3>
   114b6: 3b 09 a5 01  	addw	s2, a0, s10
   114ba: 5e 99        	add	s2, s2, s7
   114bc: 03 45 19 00  	lbu	a0, 0x1(s2)
   114c0: 13 34 85 00  	sltiu	s0, a0, 0x8
   114c4: 13 85 1a 00  	addi	a0, s5, 0x1
   114c8: e6 85        	mv	a1, s9
   114ca: ef d0 f0 69  	jal	0x1f368 <__muldi3>
   114ce: 3b 06 a5 01  	addw	a2, a0, s10
   114d2: 5e 96        	add	a2, a2, s7
   114d4: 08 82        	lbu	a0, 0x0(a2)
   114d6: 83 45 f9 ff  	lbu	a1, -0x1(s2)
   114da: 13 35 85 00  	sltiu	a0, a0, 0x8
   114de: 93 b5 85 00  	sltiu	a1, a1, 0x8
   114e2: b3 06 34 01  	add	a3, s0, s3
   114e6: 33 07 b5 00  	add	a4, a0, a1
   114ea: ba 96        	add	a3, a3, a4
   114ec: 63 ea 86 13  	bltu	a3, s8, 0x11620 <susan_thin+0x688>
   114f0: 83 c6 f4 ff  	lbu	a3, -0x1(s1)
   114f4: d8 80        	lbu	a4, 0x1(s1)
   114f6: 83 47 f6 ff  	lbu	a5, -0x1(a2)
   114fa: 50 82        	lbu	a2, 0x1(a2)
   114fc: 93 b6 86 00  	sltiu	a3, a3, 0x8
   11500: 13 37 87 00  	sltiu	a4, a4, 0x8
   11504: 93 b7 87 00  	sltiu	a5, a5, 0x8
   11508: 13 36 86 00  	sltiu	a2, a2, 0x8
   1150c: b3 e6 d9 00  	or	a3, s3, a3
   11510: 41 8f        	or	a4, a4, s0
   11512: 49 8e        	or	a2, a2, a0
   11514: cd 8f        	or	a5, a5, a1
   11516: b3 74 37 01  	and	s1, a4, s3
   1151a: 71 8c        	and	s0, s0, a2
   1151c: 7d 8d        	and	a0, a0, a5
   1151e: f5 8d        	and	a1, a1, a3
   11520: ba 96        	add	a3, a3, a4
   11522: a6 95        	add	a1, a1, s1
   11524: 3e 96        	add	a2, a2, a5
   11526: 36 96        	add	a2, a2, a3
   11528: 22 95        	add	a0, a0, s0
   1152a: 2e 95        	add	a0, a0, a1
   1152c: 09 8e        	sub	a2, a2, a0
   1152e: 1d 4c        	li	s8, 0x7
   11530: 05 45        	li	a0, 0x1
   11532: 63 4d c5 0e  	blt	a0, a2, 0x1162c <susan_thin+0x694>
   11536: 81 2a        	sext.w	s5, s5
   11538: 15 45        	li	a0, 0x5
   1153a: 93 05 40 06  	li	a1, 0x64
   1153e: 23 00 b9 00  	sb	a1, 0x0(s2)
   11542: c6 69        	ld	s3, 0x50(sp)
   11544: 63 43 55 01  	blt	a0, s5, 0x1154a <susan_thin+0x5b2>
   11548: 95 4a        	li	s5, 0x5
   1154a: 19 45        	li	a0, 0x6
   1154c: 63 43 a5 01  	blt	a0, s10, 0x11552 <susan_thin+0x5ba>
   11550: 19 4d        	li	s10, 0x6
   11552: fd 1a        	addi	s5, s5, -0x1
   11554: 79 1d        	addi	s10, s10, -0x2
   11556: f9 a0        	j	0x11624 <susan_thin+0x68c>
   11558: 26 84        	mv	s0, s1
   1155a: 26 89        	mv	s2, s1
   1155c: e2 84        	mv	s1, s8
   1155e: e6 6b        	ld	s7, 0x58(sp)
   11560: 21 4a        	li	s4, 0x8
   11562: 33 05 54 01  	add	a0, s0, s5
   11566: e6 85        	mv	a1, s9
   11568: ef d0 10 60  	jal	0x1f368 <__muldi3>
   1156c: b3 05 ac 01  	add	a1, s8, s10
   11570: bb 89 a5 00  	addw	s3, a1, a0
   11574: 13 95 29 00  	slli	a0, s3, 0x2
   11578: a6 65        	ld	a1, 0x48(sp)
   1157a: 2e 95        	add	a0, a0, a1
   1157c: 08 41        	lw	a0, 0x0(a0)
   1157e: d3 77 05 d0  	fcvt.s.w	fa5, a0
   11582: 06 75        	ld	a0, 0x60(sp)
   11584: 53 77 05 d0  	fcvt.s.w	fa4, a0
   11588: d3 f7 e7 18  	fdiv.s	fa5, fa5, fa4
   1158c: d3 87 07 42  	fcvt.d.s	fa5, fa5
   11590: 53 15 f4 a2  	flt.d	a0, fs0, fa5
   11594: 49 c5        	beqz	a0, 0x1161e <susan_thin+0x686>
   11596: 63 0d 09 02  	beqz	s2, 0x115d0 <susan_thin+0x638>
   1159a: 13 15 14 00  	slli	a0, s0, 0x1
   1159e: 56 95        	add	a0, a0, s5
   115a0: e6 85        	mv	a1, s9
   115a2: ef d0 70 5c  	jal	0x1f368 <__muldi3>
   115a6: 3b 05 a5 01  	addw	a0, a0, s10
   115aa: 5e 95        	add	a0, a0, s7
   115ac: 0c 81        	lbu	a1, 0x0(a0)
   115ae: 63 e1 45 03  	bltu	a1, s4, 0x115d0 <susan_thin+0x638>
   115b2: 83 45 f5 ff  	lbu	a1, -0x1(a0)
   115b6: 63 ed 45 01  	bltu	a1, s4, 0x115d0 <susan_thin+0x638>
   115ba: 48 81        	lbu	a0, 0x1(a0)
   115bc: 63 6a 45 01  	bltu	a0, s4, 0x115d0 <susan_thin+0x638>
   115c0: 56 85        	mv	a0, s5
   115c2: e6 85        	mv	a1, s9
   115c4: ef d0 50 5a  	jal	0x1f368 <__muldi3>
   115c8: 3b 05 a5 01  	addw	a0, a0, s10
   115cc: 26 6a        	ld	s4, 0x48(sp)
   115ce: 3d a8        	j	0x1160c <susan_thin+0x674>
   115d0: b9 c4        	beqz	s1, 0x1161e <susan_thin+0x686>
   115d2: 56 85        	mv	a0, s5
   115d4: e6 85        	mv	a1, s9
   115d6: ef d0 30 59  	jal	0x1f368 <__muldi3>
   115da: 3b 05 a5 01  	addw	a0, a0, s10
   115de: 06 0c        	slli	s8, s8, 0x1
   115e0: bb 05 85 01  	addw	a1, a0, s8
   115e4: de 95        	add	a1, a1, s7
   115e6: 8c 81        	lbu	a1, 0x0(a1)
   115e8: 63 eb 45 03  	bltu	a1, s4, 0x1161e <susan_thin+0x686>
   115ec: 86 65        	ld	a1, 0x40(sp)
   115ee: bb 05 bc 00  	addw	a1, s8, a1
   115f2: de 95        	add	a1, a1, s7
   115f4: 8c 81        	lbu	a1, 0x0(a1)
   115f6: 21 46        	li	a2, 0x8
   115f8: 63 e3 c5 02  	bltu	a1, a2, 0x1161e <susan_thin+0x686>
   115fc: a6 75        	ld	a1, 0x68(sp)
   115fe: bb 05 bc 00  	addw	a1, s8, a1
   11602: de 95        	add	a1, a1, s7
   11604: 8c 81        	lbu	a1, 0x0(a1)
   11606: 26 6a        	ld	s4, 0x48(sp)
   11608: 63 ec c5 00  	bltu	a1, a2, 0x11620 <susan_thin+0x688>
   1160c: 5e 95        	add	a0, a0, s7
   1160e: 93 05 40 06  	li	a1, 0x64
   11612: 0c 89        	sb	a1, 0x0(a0)
   11614: de 99        	add	s3, s3, s7
   11616: 0d 45        	li	a0, 0x3
   11618: 23 80 a9 00  	sb	a0, 0x0(s3)
   1161c: 11 a0        	j	0x11620 <susan_thin+0x688>
   1161e: 26 6a        	ld	s4, 0x48(sp)
   11620: c6 69        	ld	s3, 0x50(sp)
   11622: 1d 4c        	li	s8, 0x7
   11624: 05 2d        	addiw	s10, s10, 0x1
   11626: e3 44 3d 9b  	blt	s10, s3, 0x10fce <susan_thin+0x36>
   1162a: 1d a0        	j	0x11650 <susan_thin+0x6b8>
   1162c: c6 69        	ld	s3, 0x50(sp)
   1162e: dd bf        	j	0x11624 <susan_thin+0x68c>
   11630: 81 2a        	sext.w	s5, s5
   11632: 15 45        	li	a0, 0x5
   11634: 93 05 40 06  	li	a1, 0x64
   11638: 8c 88        	sb	a1, 0x0(s1)
   1163a: 1d 4c        	li	s8, 0x7
   1163c: 63 43 55 01  	blt	a0, s5, 0x11642 <susan_thin+0x6aa>
   11640: 95 4a        	li	s5, 0x5
   11642: 19 45        	li	a0, 0x6
   11644: e6 6b        	ld	s7, 0x58(sp)
   11646: 26 6a        	ld	s4, 0x48(sp)
   11648: c6 69        	ld	s3, 0x50(sp)
   1164a: e3 53 a5 f1  	bge	a0, s10, 0x11550 <susan_thin+0x5b8>
   1164e: 11 b7        	j	0x11552 <susan_thin+0x5ba>
   11650: 85 2a        	addiw	s5, s5, 0x1
   11652: 22 65        	ld	a0, 0x8(sp)
   11654: e3 c9 aa 96  	blt	s5, a0, 0x10fc6 <susan_thin+0x2e>
   11658: 07 34 81 09  	fld	fs0, 0x98(sp)
   1165c: 65 61        	addi	sp, sp, 0x70
   1165e: fe ba        	cm.pop	{ra, s0-s11}, 160
   11660: 01 45        	li	a0, 0x0
   11662: 82 80        	ret

0000000000011664 <susan_edges>:
   11664: fe b8        	cm.push	{ra, s0-s11}, -160
   11666: 29 71        	addi	sp, sp, -0x140
   11668: 27 34 81 16  	fsd	fs0, 0x168(sp)
   1166c: 27 30 91 16  	fsd	fs1, 0x160(sp)
   11670: 27 3c 21 15  	fsd	fs2, 0x158(sp)
   11674: 27 38 31 15  	fsd	fs3, 0x150(sp)
   11678: 27 34 41 15  	fsd	fs4, 0x148(sp)
   1167c: c2 84        	mv	s1, a6
   1167e: be 8a        	mv	s5, a5
   11680: ba e2        	sd	a4, 0x140(sp)
   11682: 36 fe        	sd	a3, 0x138(sp)
   11684: 32 89        	mv	s2, a2
   11686: 22 af        	cm.mvsa01	s6, s0
   11688: 42 85        	mv	a0, a6
   1168a: be 85        	mv	a1, a5
   1168c: ef d0 d0 4d  	jal	0x1f368 <__muldi3>
   11690: 01 25        	sext.w	a0, a0
   11692: 13 16 25 00  	slli	a2, a0, 0x2
   11696: 22 ea        	sd	s0, 0x110(sp)
   11698: 22 85        	mv	a0, s0
   1169a: 81 45        	li	a1, 0x0
   1169c: ef 50 60 6b  	jal	0x16d52 <memset>
   116a0: 9d 4f        	li	t6, 0x7
   116a2: e3 cb f4 2f  	blt	s1, t6, 0x12198 <susan_edges+0xb34>
   116a6: 4a f6        	sd	s2, 0x128(sp)
   116a8: 26 f2        	sd	s1, 0x120(sp)
   116aa: 9b 89 d4 ff  	addiw	s3, s1, -0x3
   116ae: 1b 87 da ff  	addiw	a4, s5, -0x3
   116b2: 9b 86 ba ff  	addiw	a3, s5, -0x5
   116b6: 1b 86 aa ff  	addiw	a2, s5, -0x6
   116ba: 13 15 07 02  	slli	a0, a4, 0x20
   116be: 01 91        	srli	a0, a0, 0x20
   116c0: 52 6e        	ld	t3, 0x110(sp)
   116c2: 31 0e        	addi	t3, t3, 0xc
   116c4: 13 9a 1a 00  	slli	s4, s5, 0x1
   116c8: 56 9a        	add	s4, s4, s5
   116ca: 13 0f 3b 00  	addi	t5, s6, 0x3
   116ce: 13 0c d5 ff  	addi	s8, a0, -0x3
   116d2: b3 0c eb 00  	add	s9, s6, a4
   116d6: 33 05 d7 00  	add	a0, a4, a3
   116da: b3 0d ab 00  	add	s11, s6, a0
   116de: b3 05 66 01  	add	a1, a2, s6
   116e2: 2e 95        	add	a0, a0, a1
   116e4: 93 00 05 01  	addi	ra, a0, 0x10
   116e8: 32 ee        	sd	a2, 0x118(sp)
   116ea: 06 06        	slli	a2, a2, 0x1
   116ec: 33 05 e6 00  	add	a0, a2, a4
   116f0: b3 85 66 01  	add	a1, a3, s6
   116f4: aa 95        	add	a1, a1, a0
   116f6: 93 88 45 01  	addi	a7, a1, 0x14
   116fa: ba fd        	sd	a4, 0xf8(sp)
   116fc: 93 15 17 00  	slli	a1, a4, 0x1
   11700: 36 e2        	sd	a3, 0x100(sp)
   11702: 86 06        	slli	a3, a3, 0x1
   11704: ae f5        	sd	a1, 0xe8(sp)
   11706: b6 95        	add	a1, a1, a3
   11708: b2 f9        	sd	a2, 0xf0(sp)
   1170a: 5a 96        	add	a2, a2, s6
   1170c: b2 95        	add	a1, a1, a2
   1170e: 93 82 e5 01  	addi	t0, a1, 0x1e
   11712: b6 f1        	sd	a3, 0xe0(sp)
   11714: b3 85 66 01  	add	a1, a3, s6
   11718: 2e 95        	add	a0, a0, a1
   1171a: 93 03 a5 01  	addi	t2, a0, 0x1a
   1171e: 8d 4b        	li	s7, 0x3
   11720: 5a fa        	sd	s6, 0x130(sp)
   11722: 5a 89        	mv	s2, s6
   11724: 56 f5        	sd	s5, 0xa8(sp)
   11726: 63 c4 fa 1f  	blt	s5, t6, 0x1190e <susan_edges+0x2aa>
   1172a: 01 43        	li	t1, 0x0
   1172c: 93 15 0a 02  	slli	a1, s4, 0x20
   11730: 13 dd 05 02  	srli	s10, a1, 0x20
   11734: f9 81        	srli	a1, a1, 0x1e
   11736: b3 0e be 00  	add	t4, t3, a1
   1173a: 7a 9d        	add	s10, s10, t5
   1173c: 33 05 69 00  	add	a0, s2, t1
   11740: b3 05 6d 00  	add	a1, s10, t1
   11744: 8c 81        	lbu	a1, 0x0(a1)
   11746: 83 4a 25 00  	lbu	s5, 0x2(a0)
   1174a: 03 48 35 00  	lbu	a6, 0x3(a0)
   1174e: 72 7b        	ld	s6, 0x138(sp)
   11750: 2e 9b        	add	s6, s6, a1
   11752: 33 04 5b 41  	sub	s0, s6, s5
   11756: 00 80        	lbu	s0, 0x0(s0)
   11758: 33 07 0b 41  	sub	a4, s6, a6
   1175c: 03 45 45 00  	lbu	a0, 0x4(a0)
   11760: b3 86 6c 00  	add	a3, s9, t1
   11764: 83 c7 46 00  	lbu	a5, 0x4(a3)
   11768: 18 83        	lbu	a4, 0x0(a4)
   1176a: 33 05 ab 40  	sub	a0, s6, a0
   1176e: 08 81        	lbu	a0, 0x0(a0)
   11770: b3 07 fb 40  	sub	a5, s6, a5
   11774: 9c 83        	lbu	a5, 0x0(a5)
   11776: 83 c5 56 00  	lbu	a1, 0x5(a3)
   1177a: 22 97        	add	a4, a4, s0
   1177c: 3e 95        	add	a0, a0, a5
   1177e: 83 c7 66 00  	lbu	a5, 0x6(a3)
   11782: b3 05 bb 40  	sub	a1, s6, a1
   11786: 03 c4 76 00  	lbu	s0, 0x7(a3)
   1178a: 90 81        	lbu	a2, 0x0(a1)
   1178c: b3 07 fb 40  	sub	a5, s6, a5
   11790: 9c 83        	lbu	a5, 0x0(a5)
   11792: b3 05 8b 40  	sub	a1, s6, s0
   11796: 8c 81        	lbu	a1, 0x0(a1)
   11798: 3a 95        	add	a0, a0, a4
   1179a: 3e 96        	add	a2, a2, a5
   1179c: 83 c6 86 00  	lbu	a3, 0x8(a3)
   117a0: b2 95        	add	a1, a1, a2
   117a2: 33 86 6d 00  	add	a2, s11, t1
   117a6: 03 47 86 00  	lbu	a4, 0x8(a2)
   117aa: b3 06 db 40  	sub	a3, s6, a3
   117ae: 83 47 96 00  	lbu	a5, 0x9(a2)
   117b2: 94 82        	lbu	a3, 0x0(a3)
   117b4: 33 07 eb 40  	sub	a4, s6, a4
   117b8: 18 83        	lbu	a4, 0x0(a4)
   117ba: b3 07 fb 40  	sub	a5, s6, a5
   117be: 9c 83        	lbu	a5, 0x0(a5)
   117c0: 2e 95        	add	a0, a0, a1
   117c2: 83 45 a6 00  	lbu	a1, 0xa(a2)
   117c6: ba 96        	add	a3, a3, a4
   117c8: be 96        	add	a3, a3, a5
   117ca: 03 47 b6 00  	lbu	a4, 0xb(a2)
   117ce: b3 05 bb 40  	sub	a1, s6, a1
   117d2: 83 47 c6 00  	lbu	a5, 0xc(a2)
   117d6: 8c 81        	lbu	a1, 0x0(a1)
   117d8: 33 07 eb 40  	sub	a4, s6, a4
   117dc: 18 83        	lbu	a4, 0x0(a4)
   117de: b3 07 fb 40  	sub	a5, s6, a5
   117e2: 9c 83        	lbu	a5, 0x0(a5)
   117e4: 03 44 d6 00  	lbu	s0, 0xd(a2)
   117e8: b6 95        	add	a1, a1, a3
   117ea: 2e 95        	add	a0, a0, a1
   117ec: 3e 97        	add	a4, a4, a5
   117ee: b3 05 8b 40  	sub	a1, s6, s0
   117f2: 03 46 e6 00  	lbu	a2, 0xe(a2)
   117f6: b3 86 60 00  	add	a3, ra, t1
   117fa: 83 c7 e6 ff  	lbu	a5, -0x2(a3)
   117fe: 8c 81        	lbu	a1, 0x0(a1)
   11800: 33 06 cb 40  	sub	a2, s6, a2
   11804: 10 82        	lbu	a2, 0x0(a2)
   11806: b3 07 fb 40  	sub	a5, s6, a5
   1180a: 9c 83        	lbu	a5, 0x0(a5)
   1180c: ba 95        	add	a1, a1, a4
   1180e: 03 c7 f6 ff  	lbu	a4, -0x1(a3)
   11812: b2 95        	add	a1, a1, a2
   11814: be 95        	add	a1, a1, a5
   11816: 90 82        	lbu	a2, 0x0(a3)
   11818: 33 07 eb 40  	sub	a4, s6, a4
   1181c: bc 82        	lbu	a5, 0x2(a3)
   1181e: 18 83        	lbu	a4, 0x0(a4)
   11820: 33 06 cb 40  	sub	a2, s6, a2
   11824: 10 82        	lbu	a2, 0x0(a2)
   11826: b3 07 fb 40  	sub	a5, s6, a5
   1182a: 9c 83        	lbu	a5, 0x0(a5)
   1182c: e0 82        	lbu	s0, 0x3(a3)
   1182e: 2e 95        	add	a0, a0, a1
   11830: 3a 96        	add	a2, a2, a4
   11832: 3e 96        	add	a2, a2, a5
   11834: b3 05 8b 40  	sub	a1, s6, s0
   11838: 8c 81        	lbu	a1, 0x0(a1)
   1183a: 83 c6 46 00  	lbu	a3, 0x4(a3)
   1183e: 33 87 68 00  	add	a4, a7, t1
   11842: 1c 83        	lbu	a5, 0x0(a4)
   11844: b2 95        	add	a1, a1, a2
   11846: 33 06 db 40  	sub	a2, s6, a3
   1184a: 10 82        	lbu	a2, 0x0(a2)
   1184c: b3 06 fb 40  	sub	a3, s6, a5
   11850: 94 82        	lbu	a3, 0x0(a3)
   11852: 5c 83        	lbu	a5, 0x1(a4)
   11854: b2 95        	add	a1, a1, a2
   11856: 30 83        	lbu	a2, 0x2(a4)
   11858: b6 95        	add	a1, a1, a3
   1185a: b3 06 fb 40  	sub	a3, s6, a5
   1185e: 94 82        	lbu	a3, 0x0(a3)
   11860: 33 06 cb 40  	sub	a2, s6, a2
   11864: 10 82        	lbu	a2, 0x0(a2)
   11866: 7c 83        	lbu	a5, 0x3(a4)
   11868: 2e 95        	add	a0, a0, a1
   1186a: 83 45 47 00  	lbu	a1, 0x4(a4)
   1186e: 36 96        	add	a2, a2, a3
   11870: b3 06 fb 40  	sub	a3, s6, a5
   11874: 94 82        	lbu	a3, 0x0(a3)
   11876: b3 05 bb 40  	sub	a1, s6, a1
   1187a: 8c 81        	lbu	a1, 0x0(a1)
   1187c: 83 47 57 00  	lbu	a5, 0x5(a4)
   11880: 36 96        	add	a2, a2, a3
   11882: 83 46 67 00  	lbu	a3, 0x6(a4)
   11886: b2 95        	add	a1, a1, a2
   11888: 33 06 fb 40  	sub	a2, s6, a5
   1188c: 10 82        	lbu	a2, 0x0(a2)
   1188e: b3 06 db 40  	sub	a3, s6, a3
   11892: 94 82        	lbu	a3, 0x0(a3)
   11894: 33 87 63 00  	add	a4, t2, t1
   11898: 1c 83        	lbu	a5, 0x0(a4)
   1189a: b2 95        	add	a1, a1, a2
   1189c: b6 95        	add	a1, a1, a3
   1189e: 50 83        	lbu	a2, 0x1(a4)
   118a0: b3 06 fb 40  	sub	a3, s6, a5
   118a4: 94 82        	lbu	a3, 0x0(a3)
   118a6: 3c 83        	lbu	a5, 0x2(a4)
   118a8: 33 06 cb 40  	sub	a2, s6, a2
   118ac: 60 83        	lbu	s0, 0x3(a4)
   118ae: 10 82        	lbu	a2, 0x0(a2)
   118b0: b3 07 fb 40  	sub	a5, s6, a5
   118b4: 9c 83        	lbu	a5, 0x0(a5)
   118b6: b3 04 8b 40  	sub	s1, s6, s0
   118ba: 84 80        	lbu	s1, 0x0(s1)
   118bc: b6 95        	add	a1, a1, a3
   118be: 2e 95        	add	a0, a0, a1
   118c0: 3e 96        	add	a2, a2, a5
   118c2: 26 96        	add	a2, a2, s1
   118c4: 83 45 47 00  	lbu	a1, 0x4(a4)
   118c8: b3 86 62 00  	add	a3, t0, t1
   118cc: 98 82        	lbu	a4, 0x0(a3)
   118ce: dc 82        	lbu	a5, 0x1(a3)
   118d0: b4 82        	lbu	a3, 0x2(a3)
   118d2: b3 05 bb 40  	sub	a1, s6, a1
   118d6: 33 07 eb 40  	sub	a4, s6, a4
   118da: b3 07 fb 40  	sub	a5, s6, a5
   118de: b3 06 db 40  	sub	a3, s6, a3
   118e2: 8c 81        	lbu	a1, 0x0(a1)
   118e4: 18 83        	lbu	a4, 0x0(a4)
   118e6: 9c 83        	lbu	a5, 0x0(a5)
   118e8: 94 82        	lbu	a3, 0x0(a3)
   118ea: b2 95        	add	a1, a1, a2
   118ec: ba 95        	add	a1, a1, a4
   118ee: be 95        	add	a1, a1, a5
   118f0: b6 95        	add	a1, a1, a3
   118f2: 2e 95        	add	a0, a0, a1
   118f4: 9b 05 45 06  	addiw	a1, a0, 0x64
   118f8: 16 65        	ld	a0, 0x140(sp)
   118fa: 63 46 b5 00  	blt	a0, a1, 0x11906 <susan_edges+0x2a2>
   118fe: 16 65        	ld	a0, 0x140(sp)
   11900: 0d 9d        	subw	a0, a0, a1
   11902: 23 a0 ae 00  	sw	a0, 0x0(t4)
   11906: 05 03        	addi	t1, t1, 0x1
   11908: 91 0e        	addi	t4, t4, 0x4
   1190a: e3 19 6c e2  	bne	s8, t1, 0x1173c <susan_edges+0xd8>
   1190e: 85 0b        	addi	s7, s7, 0x1
   11910: aa 7a        	ld	s5, 0xa8(sp)
   11912: 56 9a        	add	s4, s4, s5
   11914: 56 99        	add	s2, s2, s5
   11916: d6 9c        	add	s9, s9, s5
   11918: d6 9d        	add	s11, s11, s5
   1191a: d6 90        	add	ra, ra, s5
   1191c: d6 98        	add	a7, a7, s5
   1191e: d6 92        	add	t0, t0, s5
   11920: d6 93        	add	t2, t2, s5
   11922: e3 92 3b e1  	bne	s7, s3, 0x11726 <susan_edges+0xc2>
   11926: 25 45        	li	a0, 0x9
   11928: 52 73        	ld	t1, 0x130(sp)
   1192a: b2 75        	ld	a1, 0x128(sp)
   1192c: 12 76        	ld	a2, 0x120(sp)
   1192e: e3 45 a6 06  	blt	a2, a0, 0x12198 <susan_edges+0xb34>
   11932: 1b 05 c6 ff  	addiw	a0, a2, -0x4
   11936: 2a f0        	sd	a0, 0x20(sp)
   11938: 13 85 ca ff  	addi	a0, s5, -0x4
   1193c: 02 15        	slli	a0, a0, 0x20
   1193e: 01 91        	srli	a0, a0, 0x20
   11940: 91 05        	addi	a1, a1, 0x4
   11942: 2e ec        	sd	a1, 0x18(sp)
   11944: 93 95 2a 00  	slli	a1, s5, 0x2
   11948: 2e fc        	sd	a1, 0x38(sp)
   1194a: 93 05 43 00  	addi	a1, t1, 0x4
   1194e: 2e e8        	sd	a1, 0x10(sp)
   11950: d2 65        	ld	a1, 0x110(sp)
   11952: c1 05        	addi	a1, a1, 0x10
   11954: 2e e4        	sd	a1, 0x8(sp)
   11956: 71 15        	addi	a0, a0, -0x4
   11958: 2a e6        	sd	a0, 0x108(sp)
   1195a: ce 75        	ld	a1, 0xf0(sp)
   1195c: 8e 72        	ld	t0, 0xe0(sp)
   1195e: ae 92        	add	t0, t0, a1
   11960: 2e 78        	ld	a6, 0xe8(sp)
   11962: 16 98        	add	a6, a6, t0
   11964: 33 85 6a 00  	add	a0, s5, t1
   11968: 42 95        	add	a0, a0, a6
   1196a: 7d 05        	addi	a0, a0, 0x1f
   1196c: 2a f1        	sd	a0, 0xa0(sp)
   1196e: 33 05 53 01  	add	a0, t1, s5
   11972: 2a ed        	sd	a0, 0x98(sp)
   11974: 6e 7e        	ld	t3, 0xf8(sp)
   11976: 56 9e        	add	t3, t3, s5
   11978: f2 92        	add	t0, t0, t3
   1197a: 9a 92        	add	t0, t0, t1
   1197c: ed 02        	addi	t0, t0, 0x1b
   1197e: 16 e9        	sd	t0, 0x90(sp)
   11980: 33 05 c3 01  	add	a0, t1, t3
   11984: 2a e5        	sd	a0, 0x88(sp)
   11986: 92 63        	ld	t2, 0x100(sp)
   11988: f2 93        	add	t2, t2, t3
   1198a: 33 05 73 00  	add	a0, t1, t2
   1198e: 2a e1        	sd	a0, 0x80(sp)
   11990: f2 68        	ld	a7, 0x118(sp)
   11992: 9a 98        	add	a7, a7, t1
   11994: 9e 98        	add	a7, a7, t2
   11996: c1 08        	addi	a7, a7, 0x10
   11998: c6 fc        	sd	a7, 0x78(sp)
   1199a: 2e 93        	add	t1, t1, a1
   1199c: 1e 93        	add	t1, t1, t2
   1199e: 55 03        	addi	t1, t1, 0x15
   119a0: 9a f8        	sd	t1, 0x70(sp)
   119a2: 11 49        	li	s2, 0x4
   119a4: 07 b4 81 1e  	fld	fs0, 0x1e8(gp)
   119a8: 87 a4 01 1f  	flw	fs1, 0x1f0(gp)
   119ac: 53 09 00 f0  	fmv.w.x	fs2, zero
   119b0: 37 05 00 3f  	lui	a0, 0x3f000
   119b4: d3 09 05 f0  	fmv.w.x	fs3, a0
   119b8: 37 05 00 40  	lui	a0, 0x40000
   119bc: 53 0a 05 f0  	fmv.w.x	fs4, a0
   119c0: 91 45        	li	a1, 0x4
   119c2: 2e f8        	sd	a1, 0x30(sp)
   119c4: 25 45        	li	a0, 0x9
   119c6: 63 cb aa 78  	blt	s5, a0, 0x1215c <susan_edges+0xaf8>
   119ca: 81 49        	li	s3, 0x0
   119cc: 62 75        	ld	a0, 0x38(sp)
   119ce: 02 15        	slli	a0, a0, 0x20
   119d0: 93 55 05 02  	srli	a1, a0, 0x20
   119d4: 62 66        	ld	a2, 0x18(sp)
   119d6: 2e 96        	add	a2, a2, a1
   119d8: 32 f4        	sd	a2, 0x28(sp)
   119da: 42 66        	ld	a2, 0x10(sp)
   119dc: b2 95        	add	a1, a1, a2
   119de: ae f0        	sd	a1, 0x60(sp)
   119e0: 79 81        	srli	a0, a0, 0x1e
   119e2: a2 65        	ld	a1, 0x8(sp)
   119e4: 33 84 a5 00  	add	s0, a1, a0
   119e8: 91 44        	li	s1, 0x4
   119ea: ca f4        	sd	s2, 0x68(sp)
   119ec: 0c 40        	lw	a1, 0x0(s0)
   119ee: 63 5b b0 74  	blez	a1, 0x12144 <susan_edges+0xae0>
   119f2: 26 f6        	sd	s1, 0x128(sp)
   119f4: 22 fa        	sd	s0, 0x130(sp)
   119f6: 06 75        	ld	a0, 0x60(sp)
   119f8: 4e 95        	add	a0, a0, s3
   119fa: 03 49 05 00  	lbu	s2, 0x0(a0)
   119fe: 16 65        	ld	a0, 0x140(sp)
   11a00: 2e f2        	sd	a1, 0x120(sp)
   11a02: bb 05 b5 40  	subw	a1, a0, a1
   11a06: 72 75        	ld	a0, 0x138(sp)
   11a08: 2a 99        	add	s2, s2, a0
   11a0a: ea 6b        	ld	s7, 0x98(sp)
   11a0c: ce 9b        	add	s7, s7, s3
   11a0e: 2a 6d        	ld	s10, 0x88(sp)
   11a10: 4e 9d        	add	s10, s10, s3
   11a12: 0a 6a        	ld	s4, 0x80(sp)
   11a14: 4e 9a        	add	s4, s4, s3
   11a16: 66 75        	ld	a0, 0x78(sp)
   11a18: 4e 95        	add	a0, a0, s3
   11a1a: 2a ee        	sd	a0, 0x118(sp)
   11a1c: c6 7a        	ld	s5, 0x70(sp)
   11a1e: ce 9a        	add	s5, s5, s3
   11a20: 4a 6c        	ld	s8, 0x90(sp)
   11a22: 4e 9c        	add	s8, s8, s3
   11a24: 0a 75        	ld	a0, 0xa0(sp)
   11a26: 33 0e 35 01  	add	t3, a0, s3
   11a2a: 13 05 90 25  	li	a0, 0x259
   11a2e: 63 ce a5 2c  	blt	a1, a0, 0x11d0a <susan_edges+0x6a6>
   11a32: ae fd        	sd	a1, 0xf8(sp)
   11a34: 03 c5 3b 00  	lbu	a0, 0x3(s7)
   11a38: 83 c5 4b 00  	lbu	a1, 0x4(s7)
   11a3c: 33 05 a9 40  	sub	a0, s2, a0
   11a40: 83 4f 05 00  	lbu	t6, 0x0(a0)
   11a44: 33 05 b9 40  	sub	a0, s2, a1
   11a48: 08 81        	lbu	a0, 0x0(a0)
   11a4a: de f1        	sd	s7, 0xe0(sp)
   11a4c: 83 c5 5b 00  	lbu	a1, 0x5(s7)
   11a50: 03 46 5d 00  	lbu	a2, 0x5(s10)
   11a54: 7e 95        	add	a0, a0, t6
   11a56: aa f9        	sd	a0, 0xf0(sp)
   11a58: 33 05 b9 40  	sub	a0, s2, a1
   11a5c: 83 45 6d 00  	lbu	a1, 0x6(s10)
   11a60: 33 06 c9 40  	sub	a2, s2, a2
   11a64: 03 48 06 00  	lbu	a6, 0x0(a2)
   11a68: 03 46 7d 00  	lbu	a2, 0x7(s10)
   11a6c: b3 05 b9 40  	sub	a1, s2, a1
   11a70: 83 46 8d 00  	lbu	a3, 0x8(s10)
   11a74: 83 c8 05 00  	lbu	a7, 0x0(a1)
   11a78: b3 05 c9 40  	sub	a1, s2, a2
   11a7c: 8c 81        	lbu	a1, 0x0(a1)
   11a7e: 33 06 d9 40  	sub	a2, s2, a3
   11a82: 03 43 06 00  	lbu	t1, 0x0(a2)
   11a86: 08 81        	lbu	a0, 0x0(a0)
   11a88: aa ed        	sd	a0, 0xd8(sp)
   11a8a: 33 85 08 01  	add	a0, a7, a6
   11a8e: 03 46 9d 00  	lbu	a2, 0x9(s10)
   11a92: 9a 95        	add	a1, a1, t1
   11a94: 2e 95        	add	a0, a0, a1
   11a96: aa f5        	sd	a0, 0xe8(sp)
   11a98: 03 45 9a 00  	lbu	a0, 0x9(s4)
   11a9c: b3 05 c9 40  	sub	a1, s2, a2
   11aa0: 83 cb 05 00  	lbu	s7, 0x0(a1)
   11aa4: 83 45 aa 00  	lbu	a1, 0xa(s4)
   11aa8: 33 05 a9 40  	sub	a0, s2, a0
   11aac: 83 4e 05 00  	lbu	t4, 0x0(a0)
   11ab0: 76 f9        	sd	t4, 0xb0(sp)
   11ab2: 03 45 ba 00  	lbu	a0, 0xb(s4)
   11ab6: b3 05 b9 40  	sub	a1, s2, a1
   11aba: 8c 81        	lbu	a1, 0x0(a1)
   11abc: ae e1        	sd	a1, 0xc0(sp)
   11abe: 83 45 da 00  	lbu	a1, 0xd(s4)
   11ac2: 33 05 a9 40  	sub	a0, s2, a0
   11ac6: 08 81        	lbu	a0, 0x0(a0)
   11ac8: aa e9        	sd	a0, 0xd0(sp)
   11aca: 03 45 ea 00  	lbu	a0, 0xe(s4)
   11ace: b3 05 b9 40  	sub	a1, s2, a1
   11ad2: 8c 81        	lbu	a1, 0x0(a1)
   11ad4: ae e5        	sd	a1, 0xc8(sp)
   11ad6: 83 45 fa 00  	lbu	a1, 0xf(s4)
   11ada: 33 05 a9 40  	sub	a0, s2, a0
   11ade: 83 43 05 00  	lbu	t2, 0x0(a0)
   11ae2: 9e ec        	sd	t2, 0x58(sp)
   11ae4: 72 67        	ld	a4, 0x118(sp)
   11ae6: 03 45 f7 ff  	lbu	a0, -0x1(a4)
   11aea: b3 05 b9 40  	sub	a1, s2, a1
   11aee: 9c 81        	lbu	a5, 0x0(a1)
   11af0: 3e fd        	sd	a5, 0xb8(sp)
   11af2: 0c 83        	lbu	a1, 0x0(a4)
   11af4: 33 05 a9 40  	sub	a0, s2, a0
   11af8: 83 4d 05 00  	lbu	s11, 0x0(a0)
   11afc: 50 83        	lbu	a2, 0x1(a4)
   11afe: b3 05 b9 40  	sub	a1, s2, a1
   11b02: 03 cf 05 00  	lbu	t5, 0x0(a1)
   11b06: 74 83        	lbu	a3, 0x3(a4)
   11b08: 33 06 c9 40  	sub	a2, s2, a2
   11b0c: 83 4c 06 00  	lbu	s9, 0x0(a2)
   11b10: 03 44 47 00  	lbu	s0, 0x4(a4)
   11b14: 33 06 d9 40  	sub	a2, s2, a3
   11b18: 83 42 06 00  	lbu	t0, 0x0(a2)
   11b1c: 83 44 57 00  	lbu	s1, 0x5(a4)
   11b20: b3 06 89 40  	sub	a3, s2, s0
   11b24: 98 82        	lbu	a4, 0x0(a3)
   11b26: 03 c4 0a 00  	lbu	s0, 0x0(s5)
   11b2a: b3 04 99 40  	sub	s1, s2, s1
   11b2e: 94 80        	lbu	a3, 0x0(s1)
   11b30: 83 c4 1a 00  	lbu	s1, 0x1(s5)
   11b34: 33 04 89 40  	sub	s0, s2, s0
   11b38: 03 c5 6a 00  	lbu	a0, 0x6(s5)
   11b3c: 00 80        	lbu	s0, 0x0(s0)
   11b3e: b3 05 99 40  	sub	a1, s2, s1
   11b42: 03 c6 2a 00  	lbu	a2, 0x2(s5)
   11b46: 33 05 a9 40  	sub	a0, s2, a0
   11b4a: 83 40 05 00  	lbu	ra, 0x0(a0)
   11b4e: f6 9d        	add	s11, s11, t4
   11b50: be 96        	add	a3, a3, a5
   11b52: a2 9d        	add	s11, s11, s0
   11b54: 86 96        	add	a3, a3, ra
   11b56: 3b 85 b6 41  	subw	a0, a3, s11
   11b5a: 93 16 15 00  	slli	a3, a0, 0x1
   11b5e: aa 96        	add	a3, a3, a0
   11b60: 33 85 7b 00  	add	a0, s7, t2
   11b64: 2a 97        	add	a4, a4, a0
   11b66: 03 cb 4a 00  	lbu	s6, 0x4(s5)
   11b6a: 83 ce 05 00  	lbu	t4, 0x0(a1)
   11b6e: b3 05 c9 40  	sub	a1, s2, a2
   11b72: 83 cd 05 00  	lbu	s11, 0x0(a1)
   11b76: b3 05 69 41  	sub	a1, s2, s6
   11b7a: 8e 63        	ld	t2, 0xc0(sp)
   11b7c: 1e 98        	add	a6, a6, t2
   11b7e: b3 07 df 01  	add	a5, t5, t4
   11b82: c2 97        	add	a5, a5, a6
   11b84: 03 46 0c 00  	lbu	a2, 0x0(s8)
   11b88: 03 c8 05 00  	lbu	a6, 0x0(a1)
   11b8c: 1d 9f        	subw	a4, a4, a5
   11b8e: 83 c7 5a 00  	lbu	a5, 0x5(s5)
   11b92: 33 06 c9 40  	sub	a2, s2, a2
   11b96: 10 82        	lbu	a2, 0x0(a2)
   11b98: fe 98        	add	a7, a7, t6
   11b9a: 83 45 1c 00  	lbu	a1, 0x1(s8)
   11b9e: b3 07 f9 40  	sub	a5, s2, a5
   11ba2: 03 cb 07 00  	lbu	s6, 0x0(a5)
   11ba6: 93 1f 16 00  	slli	t6, a2, 0x1
   11baa: b3 05 b9 40  	sub	a1, s2, a1
   11bae: 8c 81        	lbu	a1, 0x0(a1)
   11bb0: 4e 65        	ld	a0, 0xd0(sp)
   11bb2: aa 9c        	add	s9, s9, a0
   11bb4: e6 98        	add	a7, a7, s9
   11bb6: 03 46 4c 00  	lbu	a2, 0x4(s8)
   11bba: ee 6c        	ld	s9, 0xd8(sp)
   11bbc: 66 93        	add	t1, t1, s9
   11bbe: 2e 6f        	ld	t5, 0xc8(sp)
   11bc0: fa 92        	add	t0, t0, t5
   11bc2: 9a 92        	add	t0, t0, t1
   11bc4: b3 84 fd 01  	add	s1, s11, t6
   11bc8: a6 98        	add	a7, a7, s1
   11bca: 83 44 3c 00  	lbu	s1, 0x3(s8)
   11bce: 33 06 c9 40  	sub	a2, s2, a2
   11bd2: 03 43 06 00  	lbu	t1, 0x0(a2)
   11bd6: c2 92        	add	t0, t0, a6
   11bd8: ae 98        	add	a7, a7, a1
   11bda: bb 87 12 41  	subw	a5, t0, a7
   11bde: 03 46 0e 00  	lbu	a2, 0x0(t3)
   11be2: b3 04 99 40  	sub	s1, s2, s1
   11be6: 84 80        	lbu	s1, 0x0(s1)
   11be8: 06 03        	slli	t1, t1, 0x1
   11bea: 33 06 c9 40  	sub	a2, s2, a2
   11bee: 10 82        	lbu	a2, 0x0(a2)
   11bf0: be 96        	add	a3, a3, a5
   11bf2: 83 47 1e 00  	lbu	a5, 0x1(t3)
   11bf6: 5a 97        	add	a4, a4, s6
   11bf8: 06 07        	slli	a4, a4, 0x1
   11bfa: 26 97        	add	a4, a4, s1
   11bfc: ba 96        	add	a3, a3, a4
   11bfe: 72 e2        	sd	t3, 0x100(sp)
   11c00: 03 47 2e 00  	lbu	a4, 0x2(t3)
   11c04: bb 86 66 00  	addw	a3, a3, t1
   11c08: b3 88 c6 40  	sub	a7, a3, a2
   11c0c: 33 06 96 41  	sub	a2, a2, s9
   11c10: e2 ed        	sd	s8, 0xd8(sp)
   11c12: 83 46 2c 00  	lbu	a3, 0x2(s8)
   11c16: b3 07 f9 40  	sub	a5, s2, a5
   11c1a: 9c 83        	lbu	a5, 0x0(a5)
   11c1c: 33 07 e9 40  	sub	a4, s2, a4
   11c20: 83 4c 07 00  	lbu	s9, 0x0(a4)
   11c24: 4e 77        	ld	a4, 0xf0(sp)
   11c26: 19 8e        	sub	a2, a2, a4
   11c28: 03 47 ca 00  	lbu	a4, 0xc(s4)
   11c2c: b3 06 d9 40  	sub	a3, s2, a3
   11c30: 94 82        	lbu	a3, 0x0(a3)
   11c32: e6 97        	add	a5, a5, s9
   11c34: 3e 96        	add	a2, a2, a5
   11c36: 9b 17 16 00  	slliw	a5, a2, 0x1
   11c3a: b2 97        	add	a5, a5, a2
   11c3c: bb 85 75 41  	subw	a1, a1, s7
   11c40: b6 95        	add	a1, a1, a3
   11c42: 33 06 e9 40  	sub	a2, s2, a4
   11c46: 10 82        	lbu	a2, 0x0(a2)
   11c48: ae 76        	ld	a3, 0xe8(sp)
   11c4a: 95 9d        	subw	a1, a1, a3
   11c4c: a6 95        	add	a1, a1, s1
   11c4e: ca 76        	ld	a3, 0xb0(sp)
   11c50: 9e 96        	add	a3, a3, t2
   11c52: 2a 96        	add	a2, a2, a0
   11c54: 03 c7 3a 00  	lbu	a4, 0x3(s5)
   11c58: 36 96        	add	a2, a2, a3
   11c5a: 66 65        	ld	a0, 0x58(sp)
   11c5c: 2a 9f        	add	t5, t5, a0
   11c5e: 6a 7e        	ld	t3, 0xb8(sp)
   11c60: 7a 9e        	add	t3, t3, t5
   11c62: b3 06 e9 40  	sub	a3, s2, a4
   11c66: 94 82        	lbu	a3, 0x0(a3)
   11c68: 72 96        	add	a2, a2, t3
   11c6a: 33 05 d4 01  	add	a0, s0, t4
   11c6e: 6e 95        	add	a0, a0, s11
   11c70: 36 95        	add	a0, a0, a3
   11c72: 11 9d        	subw	a0, a0, a2
   11c74: 5a 98        	add	a6, a6, s6
   11c76: 46 8b        	mv	s6, a7
   11c78: 06 98        	add	a6, a6, ra
   11c7a: 7e 98        	add	a6, a6, t6
   11c7c: 1a 98        	add	a6, a6, t1
   11c7e: bb 0d 05 01  	addw	s11, a0, a6
   11c82: 33 85 98 01  	add	a0, a7, s9
   11c86: 9b 95 15 00  	slliw	a1, a1, 0x1
   11c8a: ae 9d        	add	s11, s11, a1
   11c8c: be f9        	sd	a5, 0xf0(sp)
   11c8e: 33 84 fd 00  	add	s0, s11, a5
   11c92: aa 85        	mv	a1, a0
   11c94: ef d0 40 6d  	jal	0x1f368 <__muldi3>
   11c98: aa 84        	mv	s1, a0
   11c9a: 62 ac        	cm.mva01s	s0, s0
   11c9c: ef d0 c0 6c  	jal	0x1f368 <__muldi3>
   11ca0: 26 95        	add	a0, a0, s1
   11ca2: d3 77 05 d0  	fcvt.s.w	fa5, a0
   11ca6: 53 f5 07 58  	fsqrt.s	fa0, fa5
   11caa: 53 25 a5 a0  	feq.s	a0, fa0, fa0
   11cae: 63 02 05 4a  	beqz	a0, 0x12152 <susan_edges+0xaee>
   11cb2: d3 07 05 42  	fcvt.d.s	fa5, fa0
   11cb6: 6e 75        	ld	a0, 0xf8(sp)
   11cb8: 53 77 05 d0  	fcvt.s.w	fa4, a0
   11cbc: 53 07 07 42  	fcvt.d.s	fa4, fa4
   11cc0: 53 77 87 12  	fmul.d	fa4, fa4, fs0
   11cc4: 53 15 f7 a2  	flt.d	a0, fa4, fa5
   11cc8: 12 6e        	ld	t3, 0x100(sp)
   11cca: 8e 7b        	ld	s7, 0xe0(sp)
   11ccc: 6e 6c        	ld	s8, 0xd8(sp)
   11cce: 15 cd        	beqz	a0, 0x11d0a <susan_edges+0x6a6>
   11cd0: 3b 05 9b 01  	addw	a0, s6, s9
   11cd4: d3 87 94 20  	fmv.s	fa5, fs1
   11cd8: b2 74        	ld	s1, 0x128(sp)
   11cda: 09 c9        	beqz	a0, 0x11cec <susan_edges+0x688>
   11cdc: ce 75        	ld	a1, 0xf0(sp)
   11cde: ae 9d        	add	s11, s11, a1
   11ce0: d3 f7 0d d0  	fcvt.s.w	fa5, s11
   11ce4: 53 77 05 d0  	fcvt.s.w	fa4, a0
   11ce8: d3 f7 e7 18  	fdiv.s	fa5, fa5, fa4
   11cec: 53 95 27 a1  	flt.s	a0, fa5, fs2
   11cf0: aa 7a        	ld	s5, 0xa8(sp)
   11cf2: 26 79        	ld	s2, 0x68(sp)
   11cf4: 52 74        	ld	s0, 0x130(sp)
   11cf6: 92 7b        	ld	s7, 0x120(sp)
   11cf8: 19 c1        	beqz	a0, 0x11cfe <susan_edges+0x69a>
   11cfa: d3 97 f7 20  	fneg.s	fa5, fa5
   11cfe: d3 95 37 a1  	flt.s	a1, fa5, fs3
   11d02: 63 82 05 34  	beqz	a1, 0x12046 <susan_edges+0x9e2>
   11d06: 01 4a        	li	s4, 0x0
   11d08: 7d ae        	j	0x120c6 <susan_edges+0xa62>
   11d0a: 03 c5 3b 00  	lbu	a0, 0x3(s7)
   11d0e: 83 c5 4b 00  	lbu	a1, 0x4(s7)
   11d12: 33 05 a9 40  	sub	a0, s2, a0
   11d16: 83 40 05 00  	lbu	ra, 0x0(a0)
   11d1a: 03 45 5d 00  	lbu	a0, 0x5(s10)
   11d1e: b3 05 b9 40  	sub	a1, s2, a1
   11d22: 03 c6 5b 00  	lbu	a2, 0x5(s7)
   11d26: 8c 81        	lbu	a1, 0x0(a1)
   11d28: 2e e2        	sd	a1, 0x100(sp)
   11d2a: 33 05 a9 40  	sub	a0, s2, a0
   11d2e: 08 81        	lbu	a0, 0x0(a0)
   11d30: b3 05 c9 40  	sub	a1, s2, a2
   11d34: 03 46 6d 00  	lbu	a2, 0x6(s10)
   11d38: 83 ce 05 00  	lbu	t4, 0x0(a1)
   11d3c: 93 18 25 00  	slli	a7, a0, 0x2
   11d40: 03 45 7d 00  	lbu	a0, 0x7(s10)
   11d44: b3 05 c9 40  	sub	a1, s2, a2
   11d48: 8c 81        	lbu	a1, 0x0(a1)
   11d4a: 03 46 9d 00  	lbu	a2, 0x9(s10)
   11d4e: 33 05 a9 40  	sub	a0, s2, a0
   11d52: 83 46 8d 00  	lbu	a3, 0x8(s10)
   11d56: 03 48 05 00  	lbu	a6, 0x0(a0)
   11d5a: 33 05 c9 40  	sub	a0, s2, a2
   11d5e: 83 43 05 00  	lbu	t2, 0x0(a0)
   11d62: 33 05 d9 40  	sub	a0, s2, a3
   11d66: 03 46 9a 00  	lbu	a2, 0x9(s4)
   11d6a: 04 81        	lbu	s1, 0x0(a0)
   11d6c: 8a 03        	slli	t2, t2, 0x2
   11d6e: 03 45 aa 00  	lbu	a0, 0xa(s4)
   11d72: 33 06 c9 40  	sub	a2, s2, a2
   11d76: 03 4f 06 00  	lbu	t5, 0x0(a2)
   11d7a: 03 46 ba 00  	lbu	a2, 0xb(s4)
   11d7e: 33 05 a9 40  	sub	a0, s2, a0
   11d82: 08 81        	lbu	a0, 0x0(a0)
   11d84: aa fd        	sd	a0, 0xf8(sp)
   11d86: 03 45 ca 00  	lbu	a0, 0xc(s4)
   11d8a: 33 06 c9 40  	sub	a2, s2, a2
   11d8e: 83 42 06 00  	lbu	t0, 0x0(a2)
   11d92: 03 46 da 00  	lbu	a2, 0xd(s4)
   11d96: 33 05 a9 40  	sub	a0, s2, a0
   11d9a: 08 81        	lbu	a0, 0x0(a0)
   11d9c: aa f9        	sd	a0, 0xf0(sp)
   11d9e: 03 45 ea 00  	lbu	a0, 0xe(s4)
   11da2: 33 06 c9 40  	sub	a2, s2, a2
   11da6: 83 4b 06 00  	lbu	s7, 0x0(a2)
   11daa: 03 46 fa 00  	lbu	a2, 0xf(s4)
   11dae: 33 05 a9 40  	sub	a0, s2, a0
   11db2: 03 4a 05 00  	lbu	s4, 0x0(a0)
   11db6: 03 c5 0a 00  	lbu	a0, 0x0(s5)
   11dba: 33 06 c9 40  	sub	a2, s2, a2
   11dbe: 83 4f 06 00  	lbu	t6, 0x0(a2)
   11dc2: 03 c6 1a 00  	lbu	a2, 0x1(s5)
   11dc6: 33 05 a9 40  	sub	a0, s2, a0
   11dca: 83 4d 05 00  	lbu	s11, 0x0(a0)
   11dce: 03 c5 2a 00  	lbu	a0, 0x2(s5)
   11dd2: 33 06 c9 40  	sub	a2, s2, a2
   11dd6: 03 4d 06 00  	lbu	s10, 0x0(a2)
   11dda: 03 c6 3a 00  	lbu	a2, 0x3(s5)
   11dde: 33 05 a9 40  	sub	a0, s2, a0
   11de2: 83 4c 05 00  	lbu	s9, 0x0(a0)
   11de6: 03 45 1c 00  	lbu	a0, 0x1(s8)
   11dea: b3 06 c9 40  	sub	a3, s2, a2
   11dee: 83 c7 4a 00  	lbu	a5, 0x4(s5)
   11df2: 03 46 2c 00  	lbu	a2, 0x2(s8)
   11df6: 33 05 a9 40  	sub	a0, s2, a0
   11dfa: 03 44 3c 00  	lbu	s0, 0x3(s8)
   11dfe: 18 81        	lbu	a4, 0x0(a0)
   11e00: 33 05 c9 40  	sub	a0, s2, a2
   11e04: 03 4b 05 00  	lbu	s6, 0x0(a0)
   11e08: 33 06 89 40  	sub	a2, s2, s0
   11e0c: 08 82        	lbu	a0, 0x0(a2)
   11e0e: 03 46 0e 00  	lbu	a2, 0x0(t3)
   11e12: ae f5        	sd	a1, 0xe8(sp)
   11e14: c2 95        	add	a1, a1, a6
   11e16: a6 f1        	sd	s1, 0xe0(sp)
   11e18: 3a fd        	sd	a4, 0xb8(sp)
   11e1a: 33 84 e4 00  	add	s0, s1, a4
   11e1e: 2e 94        	add	s0, s0, a1
   11e20: 83 45 1e 00  	lbu	a1, 0x1(t3)
   11e24: 33 06 c9 40  	sub	a2, s2, a2
   11e28: 83 44 2e 00  	lbu	s1, 0x2(t3)
   11e2c: 03 48 06 00  	lbu	a6, 0x0(a2)
   11e30: b3 05 b9 40  	sub	a1, s2, a1
   11e34: 98 81        	lbu	a4, 0x0(a1)
   11e36: b3 05 99 40  	sub	a1, s2, s1
   11e3a: 03 c3 05 00  	lbu	t1, 0x0(a1)
   11e3e: 2a f9        	sd	a0, 0xb0(sp)
   11e40: 5a 95        	add	a0, a0, s6
   11e42: 22 95        	add	a0, a0, s0
   11e44: 86 ed        	sd	ra, 0xd8(sp)
   11e46: 92 65        	ld	a1, 0x100(sp)
   11e48: ae 90        	add	ra, ra, a1
   11e4a: f6 e9        	sd	t4, 0xd0(sp)
   11e4c: 33 84 0e 01  	add	s0, t4, a6
   11e50: 06 94        	add	s0, s0, ra
   11e52: 1a 97        	add	a4, a4, t1
   11e54: 22 97        	add	a4, a4, s0
   11e56: 13 14 37 00  	slli	s0, a4, 0x3
   11e5a: 22 97        	add	a4, a4, s0
   11e5c: c6 e1        	sd	a7, 0xc0(sp)
   11e5e: 9e e5        	sd	t2, 0xc8(sp)
   11e60: 33 86 13 01  	add	a2, t2, a7
   11e64: 96 83        	mv	t2, t0
   11e66: ee 72        	ld	t0, 0xf8(sp)
   11e68: fa 88        	mv	a7, t5
   11e6a: 33 04 5f 00  	add	s0, t5, t0
   11e6e: 66 8f        	mv	t5, s9
   11e70: 1e 94        	add	s0, s0, t2
   11e72: 22 96        	add	a2, a2, s0
   11e74: 03 c4 5a 00  	lbu	s0, 0x5(s5)
   11e78: 84 82        	lbu	s1, 0x0(a3)
   11e7a: b3 06 f9 40  	sub	a3, s2, a5
   11e7e: 83 c0 06 00  	lbu	ra, 0x0(a3)
   11e82: b3 07 89 40  	sub	a5, s2, s0
   11e86: 5e e2        	sd	s7, 0x100(sp)
   11e88: 4e 7b        	ld	s6, 0xf0(sp)
   11e8a: 5e 9b        	add	s6, s6, s7
   11e8c: 52 9b        	add	s6, s6, s4
   11e8e: 7e 9b        	add	s6, s6, t6
   11e90: 32 9b        	add	s6, s6, a2
   11e92: 33 86 ad 01  	add	a2, s11, s10
   11e96: 66 96        	add	a2, a2, s9
   11e98: 26 96        	add	a2, a2, s1
   11e9a: 83 45 0c 00  	lbu	a1, 0x0(s8)
   11e9e: 03 ce 07 00  	lbu	t3, 0x0(a5)
   11ea2: 03 44 4c 00  	lbu	s0, 0x4(s8)
   11ea6: 83 c4 6a 00  	lbu	s1, 0x6(s5)
   11eaa: b3 05 b9 40  	sub	a1, s2, a1
   11eae: 94 81        	lbu	a3, 0x0(a1)
   11eb0: 33 04 89 40  	sub	s0, s2, s0
   11eb4: 0c 80        	lbu	a1, 0x0(s0)
   11eb6: 33 04 99 40  	sub	s0, s2, s1
   11eba: 83 4e 04 00  	lbu	t4, 0x0(s0)
   11ebe: 13 9c 26 00  	slli	s8, a3, 0x2
   11ec2: 93 9a 25 00  	slli	s5, a1, 0x2
   11ec6: 0a 05        	slli	a0, a0, 0x2
   11ec8: 06 96        	add	a2, a2, ra
   11eca: 5a 96        	add	a2, a2, s6
   11ecc: b3 06 de 01  	add	a3, t3, t4
   11ed0: e2 96        	add	a3, a3, s8
   11ed2: d6 96        	add	a3, a3, s5
   11ed4: 36 95        	add	a0, a0, a3
   11ed6: 32 95        	add	a0, a0, a2
   11ed8: bb 0c e5 00  	addw	s9, a0, a4
   11edc: 63 89 0c 0c  	beqz	s9, 0x11fae <susan_edges+0x94a>
   11ee0: 72 64        	ld	s0, 0x118(sp)
   11ee2: 03 46 f4 ff  	lbu	a2, -0x1(s0)
   11ee6: 14 80        	lbu	a3, 0x0(s0)
   11ee8: 33 0b c9 40  	sub	s6, s2, a2
   11eec: b3 06 d9 40  	sub	a3, s2, a3
   11ef0: 58 80        	lbu	a4, 0x1(s0)
   11ef2: 94 82        	lbu	a3, 0x0(a3)
   11ef4: 6c 80        	lbu	a1, 0x3(s0)
   11ef6: 83 47 44 00  	lbu	a5, 0x4(s0)
   11efa: 33 07 e9 40  	sub	a4, s2, a4
   11efe: 83 44 54 00  	lbu	s1, 0x5(s0)
   11f02: b3 05 b9 40  	sub	a1, s2, a1
   11f06: b3 07 f9 40  	sub	a5, s2, a5
   11f0a: 9c 83        	lbu	a5, 0x0(a5)
   11f0c: b3 04 99 40  	sub	s1, s2, s1
   11f10: 52 ee        	sd	s4, 0x118(sp)
   11f12: 33 04 5a 00  	add	s0, s4, t0
   11f16: ea f9        	sd	s10, 0xf0(sp)
   11f18: 33 06 cd 01  	add	a2, s10, t3
   11f1c: 22 96        	add	a2, a2, s0
   11f1e: 03 44 0b 00  	lbu	s0, 0x0(s6)
   11f22: 84 80        	lbu	s1, 0x0(s1)
   11f24: be 96        	add	a3, a3, a5
   11f26: 36 96        	add	a2, a2, a3
   11f28: 46 8b        	mv	s6, a7
   11f2a: fe e4        	sd	t6, 0x48(sp)
   11f2c: b3 86 1f 01  	add	a3, t6, a7
   11f30: ee e8        	sd	s11, 0x50(sp)
   11f32: b3 87 dd 01  	add	a5, s11, t4
   11f36: be 96        	add	a3, a3, a5
   11f38: 18 83        	lbu	a4, 0x0(a4)
   11f3a: 83 cf 05 00  	lbu	t6, 0x0(a1)
   11f3e: 26 94        	add	s0, s0, s1
   11f40: a2 96        	add	a3, a3, s0
   11f42: 93 97 36 00  	slli	a5, a3, 0x3
   11f46: 33 89 d7 00  	add	s2, a5, a3
   11f4a: ee 68        	ld	a7, 0xd8(sp)
   11f4c: 4e 6a        	ld	s4, 0xd0(sp)
   11f4e: b3 07 1a 01  	add	a5, s4, a7
   11f52: 0e 6d        	ld	s10, 0xc0(sp)
   11f54: ea 97        	add	a5, a5, s10
   11f56: 8e 7d        	ld	s11, 0xe0(sp)
   11f58: ae 7b        	ld	s7, 0xe8(sp)
   11f5a: 33 84 bb 01  	add	s0, s7, s11
   11f5e: ae 66        	ld	a3, 0xc8(sp)
   11f60: 36 94        	add	s0, s0, a3
   11f62: a2 97        	add	a5, a5, s0
   11f64: 12 64        	ld	s0, 0x100(sp)
   11f66: 1e 94        	add	s0, s0, t2
   11f68: fa ec        	sd	t5, 0x58(sp)
   11f6a: 7a 94        	add	s0, s0, t5
   11f6c: 06 94        	add	s0, s0, ra
   11f6e: b3 85 87 00  	add	a1, a5, s0
   11f72: ea 74        	ld	s1, 0xb8(sp)
   11f74: 33 04 9c 00  	add	s0, s8, s1
   11f78: ca 77        	ld	a5, 0xb0(sp)
   11f7a: 3e 94        	add	s0, s0, a5
   11f7c: 56 94        	add	s0, s0, s5
   11f7e: 33 85 85 00  	add	a0, a1, s0
   11f82: 9a e0        	sd	t1, 0x40(sp)
   11f84: 33 04 68 00  	add	s0, a6, t1
   11f88: 22 97        	add	a4, a4, s0
   11f8a: b3 05 f7 01  	add	a1, a4, t6
   11f8e: 0a 06        	slli	a2, a2, 0x2
   11f90: b2 95        	add	a1, a1, a2
   11f92: aa 95        	add	a1, a1, a0
   11f94: ca 95        	add	a1, a1, s2
   11f96: d3 f7 05 d0  	fcvt.s.w	fa5, a1
   11f9a: 53 f7 0c d0  	fcvt.s.w	fa4, s9
   11f9e: d3 f7 e7 18  	fdiv.s	fa5, fa5, fa4
   11fa2: 53 95 37 a1  	flt.s	a0, fa5, fs3
   11fa6: 59 c5        	beqz	a0, 0x12034 <susan_edges+0x9d0>
   11fa8: 01 4b        	li	s6, 0x0
   11faa: 05 4a        	li	s4, 0x1
   11fac: 19 a0        	j	0x11fb2 <susan_edges+0x94e>
   11fae: 01 4a        	li	s4, 0x0
   11fb0: 05 4b        	li	s6, 0x1
   11fb2: 26 79        	ld	s2, 0x68(sp)
   11fb4: b2 74        	ld	s1, 0x128(sp)
   11fb6: b3 05 69 01  	add	a1, s2, s6
   11fba: aa 7a        	ld	s5, 0xa8(sp)
   11fbc: 56 85        	mv	a0, s5
   11fbe: ef d0 a0 3a  	jal	0x1f368 <__muldi3>
   11fc2: b3 85 44 01  	add	a1, s1, s4
   11fc6: 2d 9d        	addw	a0, a0, a1
   11fc8: 0a 05        	slli	a0, a0, 0x2
   11fca: d2 65        	ld	a1, 0x110(sp)
   11fcc: 2e 95        	add	a0, a0, a1
   11fce: 08 41        	lw	a0, 0x0(a0)
   11fd0: 52 74        	ld	s0, 0x130(sp)
   11fd2: 92 7b        	ld	s7, 0x120(sp)
   11fd4: 63 58 75 17  	bge	a0, s7, 0x12144 <susan_edges+0xae0>
   11fd8: b3 05 69 41  	sub	a1, s2, s6
   11fdc: 56 85        	mv	a0, s5
   11fde: ef d0 a0 38  	jal	0x1f368 <__muldi3>
   11fe2: bb 85 44 41  	subw	a1, s1, s4
   11fe6: 2d 9d        	addw	a0, a0, a1
   11fe8: 0a 05        	slli	a0, a0, 0x2
   11fea: d2 65        	ld	a1, 0x110(sp)
   11fec: 2e 95        	add	a0, a0, a1
   11fee: 08 41        	lw	a0, 0x0(a0)
   11ff0: 63 ca ab 14  	blt	s7, a0, 0x12144 <susan_edges+0xae0>
   11ff4: 06 0b        	slli	s6, s6, 0x1
   11ff6: 06 0a        	slli	s4, s4, 0x1
   11ff8: b3 05 69 01  	add	a1, s2, s6
   11ffc: 56 85        	mv	a0, s5
   11ffe: ef d0 a0 36  	jal	0x1f368 <__muldi3>
   12002: b3 85 44 01  	add	a1, s1, s4
   12006: 2d 9d        	addw	a0, a0, a1
   12008: 0a 05        	slli	a0, a0, 0x2
   1200a: d2 65        	ld	a1, 0x110(sp)
   1200c: 2e 95        	add	a0, a0, a1
   1200e: 08 41        	lw	a0, 0x0(a0)
   12010: 63 5a 75 13  	bge	a0, s7, 0x12144 <susan_edges+0xae0>
   12014: b3 05 69 41  	sub	a1, s2, s6
   12018: 56 85        	mv	a0, s5
   1201a: ef d0 e0 34  	jal	0x1f368 <__muldi3>
   1201e: bb 85 44 41  	subw	a1, s1, s4
   12022: 2d 9d        	addw	a0, a0, a1
   12024: 0a 05        	slli	a0, a0, 0x2
   12026: d2 65        	ld	a1, 0x110(sp)
   12028: 2e 95        	add	a0, a0, a1
   1202a: 0c 41        	lw	a1, 0x0(a0)
   1202c: 09 45        	li	a0, 0x2
   1202e: 63 d8 bb 10  	bge	s7, a1, 0x1213e <susan_edges+0xada>
   12032: 09 aa        	j	0x12144 <susan_edges+0xae0>
   12034: 26 84        	mv	s0, s1
   12036: 53 15 fa a0  	flt.s	a0, fs4, fa5
   1203a: 26 79        	ld	s2, 0x68(sp)
   1203c: b2 74        	ld	s1, 0x128(sp)
   1203e: 11 c9        	beqz	a0, 0x12052 <susan_edges+0x9ee>
   12040: 01 4a        	li	s4, 0x0
   12042: 05 4b        	li	s6, 0x1
   12044: 8d bf        	j	0x11fb6 <susan_edges+0x952>
   12046: d3 15 fa a0  	flt.s	a1, fs4, fa5
   1204a: b5 c9        	beqz	a1, 0x120be <susan_edges+0xa5a>
   1204c: 01 4b        	li	s6, 0x0
   1204e: 05 4a        	li	s4, 0x1
   12050: a5 a8        	j	0x120c8 <susan_edges+0xa64>
   12052: 6a 86        	mv	a2, s10
   12054: c6 8f        	mv	t6, a7
   12056: d2 85        	mv	a1, s4
   12058: 6e 8a        	mv	s4, s11
   1205a: 5a 8f        	mv	t5, s6
   1205c: b3 8f 68 01  	add	t6, a7, s6
   12060: a6 68        	ld	a7, 0x48(sp)
   12062: ae 98        	add	a7, a7, a1
   12064: fe 9e        	add	t4, t4, t6
   12066: 16 8f        	mv	t5, t0
   12068: c6 62        	ld	t0, 0x50(sp)
   1206a: c2 92        	add	t0, t0, a6
   1206c: 96 98        	add	a7, a7, t0
   1206e: 3b 85 1e 41  	subw	a0, t4, a7
   12072: 86 65        	ld	a1, 0x40(sp)
   12074: 2e 95        	add	a0, a0, a1
   12076: 93 15 15 00  	slli	a1, a0, 0x1
   1207a: 2e 95        	add	a0, a0, a1
   1207c: 5e 9f        	add	t5, t5, s7
   1207e: f2 65        	ld	a1, 0x118(sp)
   12080: 33 8a bd 00  	add	s4, s11, a1
   12084: 7a 9e        	add	t3, t3, t5
   12086: 4e 78        	ld	a6, 0xf0(sp)
   12088: 22 98        	add	a6, a6, s0
   1208a: 52 98        	add	a6, a6, s4
   1208c: bb 05 0e 41  	subw	a1, t3, a6
   12090: be 95        	add	a1, a1, a5
   12092: 86 05        	slli	a1, a1, 0x1
   12094: 33 06 7d 00  	add	a2, s10, t2
   12098: 92 6b        	ld	s7, 0x100(sp)
   1209a: b6 9b        	add	s7, s7, a3
   1209c: 06 96        	add	a2, a2, ra
   1209e: e6 66        	ld	a3, 0x58(sp)
   120a0: 36 9c        	add	s8, s8, a3
   120a2: e2 9b        	add	s7, s7, s8
   120a4: 3b 06 76 41  	subw	a2, a2, s7
   120a8: 56 96        	add	a2, a2, s5
   120aa: b2 95        	add	a1, a1, a2
   120ac: 2d 9d        	addw	a0, a0, a1
   120ae: 33 25 a0 00  	sgtz	a0, a0
   120b2: 33 05 a0 40  	neg	a0, a0
   120b6: 13 6b 15 00  	ori	s6, a0, 0x1
   120ba: 05 4a        	li	s4, 0x1
   120bc: ed bd        	j	0x11fb6 <susan_edges+0x952>
   120be: 33 05 a0 40  	neg	a0, a0
   120c2: 13 6a 15 00  	ori	s4, a0, 0x1
   120c6: 05 4b        	li	s6, 0x1
   120c8: b3 05 49 01  	add	a1, s2, s4
   120cc: 56 85        	mv	a0, s5
   120ce: ef d0 a0 29  	jal	0x1f368 <__muldi3>
   120d2: b3 85 64 01  	add	a1, s1, s6
   120d6: 2d 9d        	addw	a0, a0, a1
   120d8: 0a 05        	slli	a0, a0, 0x2
   120da: d2 65        	ld	a1, 0x110(sp)
   120dc: 2e 95        	add	a0, a0, a1
   120de: 08 41        	lw	a0, 0x0(a0)
   120e0: 63 52 75 07  	bge	a0, s7, 0x12144 <susan_edges+0xae0>
   120e4: b3 05 49 41  	sub	a1, s2, s4
   120e8: 56 85        	mv	a0, s5
   120ea: ef d0 e0 27  	jal	0x1f368 <__muldi3>
   120ee: bb 85 64 41  	subw	a1, s1, s6
   120f2: 2d 9d        	addw	a0, a0, a1
   120f4: 0a 05        	slli	a0, a0, 0x2
   120f6: d2 65        	ld	a1, 0x110(sp)
   120f8: 2e 95        	add	a0, a0, a1
   120fa: 08 41        	lw	a0, 0x0(a0)
   120fc: 63 c4 ab 04  	blt	s7, a0, 0x12144 <susan_edges+0xae0>
   12100: 06 0a        	slli	s4, s4, 0x1
   12102: 06 0b        	slli	s6, s6, 0x1
   12104: b3 05 49 01  	add	a1, s2, s4
   12108: 56 85        	mv	a0, s5
   1210a: ef d0 e0 25  	jal	0x1f368 <__muldi3>
   1210e: b3 85 64 01  	add	a1, s1, s6
   12112: 2d 9d        	addw	a0, a0, a1
   12114: 0a 05        	slli	a0, a0, 0x2
   12116: d2 65        	ld	a1, 0x110(sp)
   12118: 2e 95        	add	a0, a0, a1
   1211a: 08 41        	lw	a0, 0x0(a0)
   1211c: 63 54 75 03  	bge	a0, s7, 0x12144 <susan_edges+0xae0>
   12120: b3 05 49 41  	sub	a1, s2, s4
   12124: 56 85        	mv	a0, s5
   12126: ef d0 20 24  	jal	0x1f368 <__muldi3>
   1212a: bb 85 64 41  	subw	a1, s1, s6
   1212e: 2d 9d        	addw	a0, a0, a1
   12130: 0a 05        	slli	a0, a0, 0x2
   12132: d2 65        	ld	a1, 0x110(sp)
   12134: 2e 95        	add	a0, a0, a1
   12136: 0c 41        	lw	a1, 0x0(a0)
   12138: 05 45        	li	a0, 0x1
   1213a: 63 c5 bb 00  	blt	s7, a1, 0x12144 <susan_edges+0xae0>
   1213e: a2 75        	ld	a1, 0x28(sp)
   12140: ce 95        	add	a1, a1, s3
   12142: 88 89        	sb	a0, 0x0(a1)
   12144: 85 09        	addi	s3, s3, 0x1
   12146: 11 04        	addi	s0, s0, 0x4
   12148: 85 04        	addi	s1, s1, 0x1
   1214a: 32 65        	ld	a0, 0x108(sp)
   1214c: e3 10 35 8b  	bne	a0, s3, 0x119ec <susan_edges+0x388>
   12150: 31 a0        	j	0x1215c <susan_edges+0xaf8>
   12152: 53 85 f7 20  	fmv.s	fa0, fa5
   12156: ef 10 d0 19  	jal	0x13af2 <sqrtf>
   1215a: a1 be        	j	0x11cb2 <susan_edges+0x64e>
   1215c: c2 75        	ld	a1, 0x30(sp)
   1215e: 85 05        	addi	a1, a1, 0x1
   12160: 62 75        	ld	a0, 0x38(sp)
   12162: 56 95        	add	a0, a0, s5
   12164: 2a fc        	sd	a0, 0x38(sp)
   12166: 05 29        	addiw	s2, s2, 0x1
   12168: 0a 75        	ld	a0, 0xa0(sp)
   1216a: 56 95        	add	a0, a0, s5
   1216c: 2a f1        	sd	a0, 0xa0(sp)
   1216e: 6a 65        	ld	a0, 0x98(sp)
   12170: 56 95        	add	a0, a0, s5
   12172: 2a ed        	sd	a0, 0x98(sp)
   12174: 4a 65        	ld	a0, 0x90(sp)
   12176: 56 95        	add	a0, a0, s5
   12178: 2a e9        	sd	a0, 0x90(sp)
   1217a: 2a 65        	ld	a0, 0x88(sp)
   1217c: 56 95        	add	a0, a0, s5
   1217e: 2a e5        	sd	a0, 0x88(sp)
   12180: 0a 65        	ld	a0, 0x80(sp)
   12182: 56 95        	add	a0, a0, s5
   12184: 2a e1        	sd	a0, 0x80(sp)
   12186: 66 75        	ld	a0, 0x78(sp)
   12188: 56 95        	add	a0, a0, s5
   1218a: aa fc        	sd	a0, 0x78(sp)
   1218c: 46 75        	ld	a0, 0x70(sp)
   1218e: 56 95        	add	a0, a0, s5
   12190: aa f8        	sd	a0, 0x70(sp)
   12192: 02 75        	ld	a0, 0x20(sp)
   12194: e3 97 a5 82  	bne	a1, a0, 0x119c2 <susan_edges+0x35e>
   12198: 07 34 81 16  	fld	fs0, 0x168(sp)
   1219c: 87 34 01 16  	fld	fs1, 0x160(sp)
   121a0: 07 39 81 15  	fld	fs2, 0x158(sp)
   121a4: 87 39 01 15  	fld	fs3, 0x150(sp)
   121a8: 07 3a 81 14  	fld	fs4, 0x148(sp)
   121ac: 31 61        	addi	sp, sp, 0x140
   121ae: fe bc        	cm.popretz	{ra, s0-s11}, 160

00000000000121b0 <susan_edges_small>:
   121b0: fe b8        	cm.push	{ra, s0-s11}, -160
   121b2: 59 71        	addi	sp, sp, -0x70
   121b4: 27 3c 81 08  	fsd	fs0, 0x98(sp)
   121b8: 27 38 91 08  	fsd	fs1, 0x90(sp)
   121bc: 27 34 21 09  	fsd	fs2, 0x88(sp)
   121c0: 27 30 31 09  	fsd	fs3, 0x80(sp)
   121c4: 27 3c 41 07  	fsd	fs4, 0x78(sp)
   121c8: c2 8a        	mv	s5, a6
   121ca: 3e 84        	mv	s0, a5
   121cc: b6 8d        	mv	s11, a3
   121ce: 32 8a        	mv	s4, a2
   121d0: a6 ad        	cm.mvsa01	s3, s1
   121d2: 42 85        	mv	a0, a6
   121d4: be 85        	mv	a1, a5
   121d6: ef d0 20 19  	jal	0x1f368 <__muldi3>
   121da: 01 25        	sext.w	a0, a0
   121dc: 13 16 25 00  	slli	a2, a0, 0x2
   121e0: a6 f0        	sd	s1, 0x60(sp)
   121e2: 26 85        	mv	a0, s1
   121e4: 81 45        	li	a1, 0x0
   121e6: ef 40 d0 36  	jal	0x16d52 <memset>
   121ea: 8d 42        	li	t0, 0x3
   121ec: 63 c8 5a 3c  	blt	s5, t0, 0x125bc <susan_edges_small+0x40c>
   121f0: 1b 8e fa ff  	addiw	t3, s5, -0x1
   121f4: 13 05 f4 ff  	addi	a0, s0, -0x1
   121f8: 9b 08 e4 ff  	addiw	a7, s0, -0x2
   121fc: 02 15        	slli	a0, a0, 0x20
   121fe: 01 91        	srli	a0, a0, 0x20
   12200: 06 73        	ld	t1, 0x60(sp)
   12202: 11 03        	addi	t1, t1, 0x4
   12204: 93 83 19 00  	addi	t2, s3, 0x1
   12208: 13 09 f5 ff  	addi	s2, a0, -0x1
   1220c: 13 98 18 00  	slli	a6, a7, 0x1
   12210: 22 85        	mv	a0, s0
   12212: 33 8b 09 01  	add	s6, s3, a6
   12216: 33 84 38 01  	add	s0, a7, s3
   1221a: 93 0b 24 00  	addi	s7, s0, 0x2
   1221e: 05 4f        	li	t5, 0x1
   12220: 93 0f a0 2d  	li	t6, 0x2da
   12224: 4e 8c        	mv	s8, s3
   12226: aa 8e        	mv	t4, a0
   12228: aa ec        	sd	a0, 0x58(sp)
   1222a: 63 4a 55 08  	blt	a0, t0, 0x122be <susan_edges_small+0x10e>
   1222e: 81 46        	li	a3, 0x0
   12230: 13 95 0e 02  	slli	a0, t4, 0x20
   12234: 93 55 05 02  	srli	a1, a0, 0x20
   12238: 79 81        	srli	a0, a0, 0x1e
   1223a: b3 07 a3 00  	add	a5, t1, a0
   1223e: b3 8c b3 00  	add	s9, t2, a1
   12242: b3 05 dc 00  	add	a1, s8, a3
   12246: 33 85 dc 00  	add	a0, s9, a3
   1224a: 08 81        	lbu	a0, 0x0(a0)
   1224c: 90 81        	lbu	a2, 0x0(a1)
   1224e: c0 81        	lbu	s0, 0x1(a1)
   12250: 6e 95        	add	a0, a0, s11
   12252: 33 06 c5 40  	sub	a2, a0, a2
   12256: 10 82        	lbu	a2, 0x0(a2)
   12258: 33 04 85 40  	sub	s0, a0, s0
   1225c: ac 81        	lbu	a1, 0x2(a1)
   1225e: 33 87 db 00  	add	a4, s7, a3
   12262: 04 83        	lbu	s1, 0x0(a4)
   12264: 00 80        	lbu	s0, 0x0(s0)
   12266: b3 05 b5 40  	sub	a1, a0, a1
   1226a: 8c 81        	lbu	a1, 0x0(a1)
   1226c: b3 04 95 40  	sub	s1, a0, s1
   12270: 84 80        	lbu	s1, 0x0(s1)
   12272: 22 96        	add	a2, a2, s0
   12274: a6 95        	add	a1, a1, s1
   12276: 38 83        	lbu	a4, 0x2(a4)
   12278: b2 95        	add	a1, a1, a2
   1227a: 33 06 db 00  	add	a2, s6, a3
   1227e: 03 44 46 00  	lbu	s0, 0x4(a2)
   12282: 33 07 e5 40  	sub	a4, a0, a4
   12286: 18 83        	lbu	a4, 0x0(a4)
   12288: 83 44 56 00  	lbu	s1, 0x5(a2)
   1228c: 33 04 85 40  	sub	s0, a0, s0
   12290: 03 46 66 00  	lbu	a2, 0x6(a2)
   12294: 00 80        	lbu	s0, 0x0(s0)
   12296: b3 04 95 40  	sub	s1, a0, s1
   1229a: 84 80        	lbu	s1, 0x0(s1)
   1229c: 11 8d        	sub	a0, a0, a2
   1229e: 08 81        	lbu	a0, 0x0(a0)
   122a0: 22 97        	add	a4, a4, s0
   122a2: 26 97        	add	a4, a4, s1
   122a4: ba 95        	add	a1, a1, a4
   122a6: 2e 95        	add	a0, a0, a1
   122a8: 9b 05 45 06  	addiw	a1, a0, 0x64
   122ac: 63 e5 bf 00  	bltu	t6, a1, 0x122b6 <susan_edges_small+0x106>
   122b0: 3b 85 bf 40  	subw	a0, t6, a1
   122b4: 88 c3        	sw	a0, 0x0(a5)
   122b6: 85 06        	addi	a3, a3, 0x1
   122b8: 91 07        	addi	a5, a5, 0x4
   122ba: e3 14 d9 f8  	bne	s2, a3, 0x12242 <susan_edges_small+0x92>
   122be: 05 0f        	addi	t5, t5, 0x1
   122c0: 66 65        	ld	a0, 0x58(sp)
   122c2: aa 9e        	add	t4, t4, a0
   122c4: 2a 9b        	add	s6, s6, a0
   122c6: 2a 9c        	add	s8, s8, a0
   122c8: aa 9b        	add	s7, s7, a0
   122ca: e3 10 cf f7  	bne	t5, t3, 0x1222a <susan_edges_small+0x7a>
   122ce: 95 45        	li	a1, 0x5
   122d0: 63 c6 ba 2e  	blt	s5, a1, 0x125bc <susan_edges_small+0x40c>
   122d4: 2a 8b        	mv	s6, a0
   122d6: f9 3a        	addiw	s5, s5, -0x2
   122d8: 56 ec        	sd	s5, 0x18(sp)
   122da: 13 95 08 02  	slli	a0, a7, 0x20
   122de: 01 91        	srli	a0, a0, 0x20
   122e0: 09 0a        	addi	s4, s4, 0x2
   122e2: 52 e8        	sd	s4, 0x10(sp)
   122e4: 93 15 1b 00  	slli	a1, s6, 0x1
   122e8: 2e f4        	sd	a1, 0x28(sp)
   122ea: 93 85 29 00  	addi	a1, s3, 0x2
   122ee: 2e e4        	sd	a1, 0x8(sp)
   122f0: 86 75        	ld	a1, 0x60(sp)
   122f2: a1 05        	addi	a1, a1, 0x8
   122f4: 2e e0        	sd	a1, 0x0(sp)
   122f6: 79 15        	addi	a0, a0, -0x2
   122f8: aa f4        	sd	a0, 0x68(sp)
   122fa: 5a 98        	add	a6, a6, s6
   122fc: 4e 98        	add	a6, a6, s3
   122fe: 15 08        	addi	a6, a6, 0x5
   12300: c2 e8        	sd	a6, 0x50(sp)
   12302: da 98        	add	a7, a7, s6
   12304: ce 98        	add	a7, a7, s3
   12306: 95 08        	addi	a7, a7, 0x5
   12308: c6 e4        	sd	a7, 0x48(sp)
   1230a: da 99        	add	s3, s3, s6
   1230c: ce e0        	sd	s3, 0x40(sp)
   1230e: 09 45        	li	a0, 0x2
   12310: aa f8        	sd	a0, 0x70(sp)
   12312: 07 b4 81 1f  	fld	fs0, 0x1f8(gp)
   12316: 87 a4 01 20  	flw	fs1, 0x200(gp)
   1231a: 53 09 00 f0  	fmv.w.x	fs2, zero
   1231e: 37 05 00 3f  	lui	a0, 0x3f000
   12322: d3 09 05 f0  	fmv.w.x	fs3, a0
   12326: 37 05 00 40  	lui	a0, 0x40000
   1232a: 53 0a 05 f0  	fmv.w.x	fs4, a0
   1232e: 89 45        	li	a1, 0x2
   12330: 2e f0        	sd	a1, 0x20(sp)
   12332: 15 45        	li	a0, 0x5
   12334: 63 40 ab 26  	blt	s6, a0, 0x12594 <susan_edges_small+0x3e4>
   12338: 81 4c        	li	s9, 0x0
   1233a: 22 75        	ld	a0, 0x28(sp)
   1233c: 02 15        	slli	a0, a0, 0x20
   1233e: 93 55 05 02  	srli	a1, a0, 0x20
   12342: 42 66        	ld	a2, 0x10(sp)
   12344: 2e 96        	add	a2, a2, a1
   12346: 32 f8        	sd	a2, 0x30(sp)
   12348: 22 66        	ld	a2, 0x8(sp)
   1234a: b2 95        	add	a1, a1, a2
   1234c: 2e fc        	sd	a1, 0x38(sp)
   1234e: 79 81        	srli	a0, a0, 0x1e
   12350: 02 69        	ld	s2, 0x0(sp)
   12352: 2a 99        	add	s2, s2, a0
   12354: 09 4a        	li	s4, 0x2
   12356: 03 2d 09 00  	lw	s10, 0x0(s2)
   1235a: 63 51 a0 23  	blez	s10, 0x1257c <susan_edges_small+0x3cc>
   1235e: 62 75        	ld	a0, 0x38(sp)
   12360: 66 95        	add	a0, a0, s9
   12362: 83 4b 05 00  	lbu	s7, 0x0(a0)
   12366: ee 9b        	add	s7, s7, s11
   12368: 06 6b        	ld	s6, 0x40(sp)
   1236a: 66 9b        	add	s6, s6, s9
   1236c: 26 6c        	ld	s8, 0x48(sp)
   1236e: 66 9c        	add	s8, s8, s9
   12370: c6 6a        	ld	s5, 0x50(sp)
   12372: e6 9a        	add	s5, s5, s9
   12374: 13 05 f0 1d  	li	a0, 0x1df
   12378: 63 69 a5 0d  	bltu	a0, s10, 0x1244a <susan_edges_small+0x29a>
   1237c: 03 45 1b 00  	lbu	a0, 0x1(s6)
   12380: 83 45 2b 00  	lbu	a1, 0x2(s6)
   12384: 33 85 ab 40  	sub	a0, s7, a0
   12388: 03 48 05 00  	lbu	a6, 0x0(a0)
   1238c: 03 46 3b 00  	lbu	a2, 0x3(s6)
   12390: b3 85 bb 40  	sub	a1, s7, a1
   12394: 8c 81        	lbu	a1, 0x0(a1)
   12396: 83 46 ec ff  	lbu	a3, -0x2(s8)
   1239a: 33 86 cb 40  	sub	a2, s7, a2
   1239e: 03 c7 0a 00  	lbu	a4, 0x0(s5)
   123a2: 10 82        	lbu	a2, 0x0(a2)
   123a4: b3 86 db 40  	sub	a3, s7, a3
   123a8: 83 47 0c 00  	lbu	a5, 0x0(s8)
   123ac: 33 87 eb 40  	sub	a4, s7, a4
   123b0: 04 83        	lbu	s1, 0x0(a4)
   123b2: 94 82        	lbu	a3, 0x0(a3)
   123b4: b3 87 fb 40  	sub	a5, s7, a5
   123b8: c2 95        	add	a1, a1, a6
   123ba: 33 87 c4 40  	sub	a4, s1, a2
   123be: 03 c4 1a 00  	lbu	s0, 0x1(s5)
   123c2: 0d 8f        	sub	a4, a4, a1
   123c4: 83 c5 2a 00  	lbu	a1, 0x2(s5)
   123c8: 9c 83        	lbu	a5, 0x0(a5)
   123ca: 33 84 8b 40  	sub	s0, s7, s0
   123ce: 08 80        	lbu	a0, 0x0(s0)
   123d0: b3 85 bb 40  	sub	a1, s7, a1
   123d4: 8c 81        	lbu	a1, 0x0(a1)
   123d6: c2 96        	add	a3, a3, a6
   123d8: 3e 96        	add	a2, a2, a5
   123da: a6 96        	add	a3, a3, s1
   123dc: 2e 96        	add	a2, a2, a1
   123de: 33 04 d6 40  	sub	s0, a2, a3
   123e2: 2e 95        	add	a0, a0, a1
   123e4: b3 09 a7 00  	add	s3, a4, a0
   123e8: 62 ac        	cm.mva01s	s0, s0
   123ea: ef c0 f0 77  	jal	0x1f368 <__muldi3>
   123ee: aa 84        	mv	s1, a0
   123f0: ee ad        	cm.mva01s	s3, s3
   123f2: ef c0 70 77  	jal	0x1f368 <__muldi3>
   123f6: 26 95        	add	a0, a0, s1
   123f8: d3 77 05 d0  	fcvt.s.w	fa5, a0
   123fc: 53 f5 07 58  	fsqrt.s	fa0, fa5
   12400: 53 25 a5 a0  	feq.s	a0, fa0, fa0
   12404: 63 03 05 18  	beqz	a0, 0x1258a <susan_edges_small+0x3da>
   12408: 13 05 a0 2d  	li	a0, 0x2da
   1240c: 3b 05 a5 41  	subw	a0, a0, s10
   12410: d3 07 05 42  	fcvt.d.s	fa5, fa0
   12414: 53 07 05 d2  	fcvt.d.w	fa4, a0
   12418: 53 77 87 12  	fmul.d	fa4, fa4, fs0
   1241c: 53 15 f7 a2  	flt.d	a0, fa4, fa5
   12420: 0d c5        	beqz	a0, 0x1244a <susan_edges_small+0x29a>
   12422: d3 87 94 20  	fmv.s	fa5, fs1
   12426: 19 c4        	beqz	s0, 0x12434 <susan_edges_small+0x284>
   12428: d3 f7 09 d0  	fcvt.s.w	fa5, s3
   1242c: 53 77 04 d0  	fcvt.s.w	fa4, s0
   12430: d3 f7 e7 18  	fdiv.s	fa5, fa5, fa4
   12434: 53 95 27 a1  	flt.s	a0, fa5, fs2
   12438: 66 6b        	ld	s6, 0x58(sp)
   1243a: 19 c1        	beqz	a0, 0x12440 <susan_edges_small+0x290>
   1243c: d3 97 f7 20  	fneg.s	fa5, fa5
   12440: d3 95 37 a1  	flt.s	a1, fa5, fs3
   12444: d9 c9        	beqz	a1, 0x124da <susan_edges_small+0x32a>
   12446: 81 44        	li	s1, 0x0
   12448: cd a8        	j	0x1253a <susan_edges_small+0x38a>
   1244a: 03 45 1b 00  	lbu	a0, 0x1(s6)
   1244e: 83 45 2b 00  	lbu	a1, 0x2(s6)
   12452: 33 85 ab 40  	sub	a0, s7, a0
   12456: 08 81        	lbu	a0, 0x0(a0)
   12458: 03 46 3b 00  	lbu	a2, 0x3(s6)
   1245c: b3 85 bb 40  	sub	a1, s7, a1
   12460: 94 81        	lbu	a3, 0x0(a1)
   12462: 83 c5 0a 00  	lbu	a1, 0x0(s5)
   12466: 33 86 cb 40  	sub	a2, s7, a2
   1246a: 04 82        	lbu	s1, 0x0(a2)
   1246c: 03 c7 1a 00  	lbu	a4, 0x1(s5)
   12470: b3 85 bb 40  	sub	a1, s7, a1
   12474: 83 c7 2a 00  	lbu	a5, 0x2(s5)
   12478: 90 81        	lbu	a2, 0x0(a1)
   1247a: b3 85 eb 40  	sub	a1, s7, a4
   1247e: 80 81        	lbu	s0, 0x0(a1)
   12480: b3 85 fb 40  	sub	a1, s7, a5
   12484: 8c 81        	lbu	a1, 0x0(a1)
   12486: 26 96        	add	a2, a2, s1
   12488: 33 07 a6 00  	add	a4, a2, a0
   1248c: a2 96        	add	a3, a3, s0
   1248e: ae 96        	add	a3, a3, a1
   12490: ba 96        	add	a3, a3, a4
   12492: 95 ca        	beqz	a3, 0x124c6 <susan_edges_small+0x316>
   12494: 83 47 ec ff  	lbu	a5, -0x2(s8)
   12498: 83 44 0c 00  	lbu	s1, 0x0(s8)
   1249c: b3 87 fb 40  	sub	a5, s7, a5
   124a0: 9c 83        	lbu	a5, 0x0(a5)
   124a2: b3 84 9b 40  	sub	s1, s7, s1
   124a6: 84 80        	lbu	s1, 0x0(s1)
   124a8: 2e 97        	add	a4, a4, a1
   124aa: a6 97        	add	a5, a5, s1
   124ac: 3e 97        	add	a4, a4, a5
   124ae: d3 77 07 d0  	fcvt.s.w	fa5, a4
   124b2: 53 f7 06 d0  	fcvt.s.w	fa4, a3
   124b6: d3 f7 e7 18  	fdiv.s	fa5, fa5, fa4
   124ba: d3 96 37 a1  	flt.s	a3, fa5, fs3
   124be: 66 6b        	ld	s6, 0x58(sp)
   124c0: 99 c6        	beqz	a3, 0x124ce <susan_edges_small+0x31e>
   124c2: 81 44        	li	s1, 0x0
   124c4: 05 a8        	j	0x124f4 <susan_edges_small+0x344>
   124c6: 01 44        	li	s0, 0x0
   124c8: 85 44        	li	s1, 0x1
   124ca: 66 6b        	ld	s6, 0x58(sp)
   124cc: 2d a0        	j	0x124f6 <susan_edges_small+0x346>
   124ce: d3 16 fa a0  	flt.s	a3, fs4, fa5
   124d2: 91 ca        	beqz	a3, 0x124e6 <susan_edges_small+0x336>
   124d4: 01 44        	li	s0, 0x0
   124d6: 85 44        	li	s1, 0x1
   124d8: 39 a8        	j	0x124f6 <susan_edges_small+0x346>
   124da: d3 15 fa a0  	flt.s	a1, fs4, fa5
   124de: b1 c9        	beqz	a1, 0x12532 <susan_edges_small+0x382>
   124e0: 01 44        	li	s0, 0x0
   124e2: 85 44        	li	s1, 0x1
   124e4: a1 a8        	j	0x1253c <susan_edges_small+0x38c>
   124e6: 2e 95        	add	a0, a0, a1
   124e8: 33 35 a6 00  	sltu	a0, a2, a0
   124ec: 33 05 a0 40  	neg	a0, a0
   124f0: 93 64 15 00  	ori	s1, a0, 0x1
   124f4: 05 44        	li	s0, 0x1
   124f6: c6 75        	ld	a1, 0x70(sp)
   124f8: a6 95        	add	a1, a1, s1
   124fa: 5a 85        	mv	a0, s6
   124fc: ef c0 d0 66  	jal	0x1f368 <__muldi3>
   12500: b3 05 8a 00  	add	a1, s4, s0
   12504: 2d 9d        	addw	a0, a0, a1
   12506: 0a 05        	slli	a0, a0, 0x2
   12508: 86 75        	ld	a1, 0x60(sp)
   1250a: 2e 95        	add	a0, a0, a1
   1250c: 08 41        	lw	a0, 0x0(a0)
   1250e: 63 57 a5 07  	bge	a0, s10, 0x1257c <susan_edges_small+0x3cc>
   12512: c6 75        	ld	a1, 0x70(sp)
   12514: 85 8d        	sub	a1, a1, s1
   12516: 5a 85        	mv	a0, s6
   12518: ef c0 10 65  	jal	0x1f368 <__muldi3>
   1251c: bb 05 8a 40  	subw	a1, s4, s0
   12520: 2d 9d        	addw	a0, a0, a1
   12522: 0a 05        	slli	a0, a0, 0x2
   12524: 86 75        	ld	a1, 0x60(sp)
   12526: 2e 95        	add	a0, a0, a1
   12528: 0c 41        	lw	a1, 0x0(a0)
   1252a: 09 45        	li	a0, 0x2
   1252c: 63 55 bd 04  	bge	s10, a1, 0x12576 <susan_edges_small+0x3c6>
   12530: b1 a0        	j	0x1257c <susan_edges_small+0x3cc>
   12532: 33 05 a0 40  	neg	a0, a0
   12536: 93 64 15 00  	ori	s1, a0, 0x1
   1253a: 05 44        	li	s0, 0x1
   1253c: c6 75        	ld	a1, 0x70(sp)
   1253e: a6 95        	add	a1, a1, s1
   12540: 5a 85        	mv	a0, s6
   12542: ef c0 70 62  	jal	0x1f368 <__muldi3>
   12546: b3 05 8a 00  	add	a1, s4, s0
   1254a: 2d 9d        	addw	a0, a0, a1
   1254c: 0a 05        	slli	a0, a0, 0x2
   1254e: 86 75        	ld	a1, 0x60(sp)
   12550: 2e 95        	add	a0, a0, a1
   12552: 08 41        	lw	a0, 0x0(a0)
   12554: 63 54 a5 03  	bge	a0, s10, 0x1257c <susan_edges_small+0x3cc>
   12558: c6 75        	ld	a1, 0x70(sp)
   1255a: 85 8d        	sub	a1, a1, s1
   1255c: 5a 85        	mv	a0, s6
   1255e: ef c0 b0 60  	jal	0x1f368 <__muldi3>
   12562: bb 05 8a 40  	subw	a1, s4, s0
   12566: 2d 9d        	addw	a0, a0, a1
   12568: 0a 05        	slli	a0, a0, 0x2
   1256a: 86 75        	ld	a1, 0x60(sp)
   1256c: 2e 95        	add	a0, a0, a1
   1256e: 0c 41        	lw	a1, 0x0(a0)
   12570: 05 45        	li	a0, 0x1
   12572: 63 45 bd 00  	blt	s10, a1, 0x1257c <susan_edges_small+0x3cc>
   12576: c2 75        	ld	a1, 0x30(sp)
   12578: e6 95        	add	a1, a1, s9
   1257a: 88 89        	sb	a0, 0x0(a1)
   1257c: 85 0c        	addi	s9, s9, 0x1
   1257e: 11 09        	addi	s2, s2, 0x4
   12580: 05 0a        	addi	s4, s4, 0x1
   12582: 26 75        	ld	a0, 0x68(sp)
   12584: e3 19 95 dd  	bne	a0, s9, 0x12356 <susan_edges_small+0x1a6>
   12588: 31 a0        	j	0x12594 <susan_edges_small+0x3e4>
   1258a: 53 85 f7 20  	fmv.s	fa0, fa5
   1258e: ef 10 40 56  	jal	0x13af2 <sqrtf>
   12592: 9d bd        	j	0x12408 <susan_edges_small+0x258>
   12594: 82 75        	ld	a1, 0x20(sp)
   12596: 85 05        	addi	a1, a1, 0x1
   12598: 22 75        	ld	a0, 0x28(sp)
   1259a: 5a 95        	add	a0, a0, s6
   1259c: 2a f4        	sd	a0, 0x28(sp)
   1259e: 46 75        	ld	a0, 0x70(sp)
   125a0: 05 25        	addiw	a0, a0, 0x1
   125a2: aa f8        	sd	a0, 0x70(sp)
   125a4: 46 65        	ld	a0, 0x50(sp)
   125a6: 5a 95        	add	a0, a0, s6
   125a8: aa e8        	sd	a0, 0x50(sp)
   125aa: 26 65        	ld	a0, 0x48(sp)
   125ac: 5a 95        	add	a0, a0, s6
   125ae: aa e4        	sd	a0, 0x48(sp)
   125b0: 06 65        	ld	a0, 0x40(sp)
   125b2: 5a 95        	add	a0, a0, s6
   125b4: aa e0        	sd	a0, 0x40(sp)
   125b6: 62 65        	ld	a0, 0x18(sp)
   125b8: e3 9c a5 d6  	bne	a1, a0, 0x12330 <susan_edges_small+0x180>
   125bc: 07 34 81 09  	fld	fs0, 0x98(sp)
   125c0: 87 34 01 09  	fld	fs1, 0x90(sp)
   125c4: 07 39 81 08  	fld	fs2, 0x88(sp)
   125c8: 87 39 01 08  	fld	fs3, 0x80(sp)
   125cc: 07 3a 81 07  	fld	fs4, 0x78(sp)
   125d0: 65 61        	addi	sp, sp, 0x70
   125d2: fe bc        	cm.popretz	{ra, s0-s11}, 160

00000000000125d4 <corner_draw>:
   125d4: b2 b8        	cm.push	{ra, s0-s6}, -64
   125d6: 2e 84        	mv	s0, a1
   125d8: 8c 45        	lw	a1, 0x8(a1)
   125da: 1d 4a        	li	s4, 0x7
   125dc: 63 83 45 07  	beq	a1, s4, 0x12642 <corner_draw+0x6e>
   125e0: 36 89        	mv	s2, a3
   125e2: 32 8b        	mv	s6, a2
   125e4: aa 89        	mv	s3, a0
   125e6: 9b 0a e6 ff  	addiw	s5, a2, -0x2
   125ea: 93 04 f0 0f  	li	s1, 0xff
   125ee: 48 40        	lw	a0, 0x4(s0)
   125f0: 63 0c 09 00  	beqz	s2, 0x12608 <corner_draw+0x34>
   125f4: da 85        	mv	a1, s6
   125f6: ef c0 30 57  	jal	0x1f368 <__muldi3>
   125fa: 0c 40        	lw	a1, 0x0(s0)
   125fc: 01 25        	sext.w	a0, a0
   125fe: ce 95        	add	a1, a1, s3
   12600: 2e 95        	add	a0, a0, a1
   12602: 23 00 05 00  	sb	zero, 0x0(a0)
   12606: 15 a8        	j	0x1263a <corner_draw+0x66>
   12608: 7d 15        	addi	a0, a0, -0x1
   1260a: da 85        	mv	a1, s6
   1260c: ef c0 d0 55  	jal	0x1f368 <__muldi3>
   12610: 0c 40        	lw	a1, 0x0(s0)
   12612: 01 25        	sext.w	a0, a0
   12614: ce 95        	add	a1, a1, s3
   12616: 2e 95        	add	a0, a0, a1
   12618: a3 0f 95 fe  	sb	s1, -0x1(a0)
   1261c: 93 05 15 00  	addi	a1, a0, 0x1
   12620: 04 89        	sb	s1, 0x0(a0)
   12622: 44 89        	sb	s1, 0x1(a0)
   12624: d6 95        	add	a1, a1, s5
   12626: 84 89        	sb	s1, 0x0(a1)
   12628: 13 85 25 00  	addi	a0, a1, 0x2
   1262c: a3 80 05 00  	sb	zero, 0x1(a1)
   12630: a4 89        	sb	s1, 0x2(a1)
   12632: 56 95        	add	a0, a0, s5
   12634: 04 89        	sb	s1, 0x0(a0)
   12636: 44 89        	sb	s1, 0x1(a0)
   12638: 24 89        	sb	s1, 0x2(a0)
   1263a: 08 50        	lw	a0, 0x20(s0)
   1263c: 61 04        	addi	s0, s0, 0x18
   1263e: e3 18 45 fb  	bne	a0, s4, 0x125ee <corner_draw+0x1a>
   12642: b2 bc        	cm.popretz	{ra, s0-s6}, 64

0000000000012644 <susan_corners>:
   12644: fe b8        	cm.push	{ra, s0-s11}, -160
   12646: 09 71        	addi	sp, sp, -0x180
   12648: 27 34 81 1a  	fsd	fs0, 0x1a8(sp)
   1264c: 27 30 91 1a  	fsd	fs1, 0x1a0(sp)
   12650: 27 3c 21 19  	fsd	fs2, 0x198(sp)
   12654: 27 38 31 19  	fsd	fs3, 0x190(sp)
   12658: 27 34 41 19  	fsd	fs4, 0x188(sp)
   1265c: 42 84        	mv	s0, a6
   1265e: be 84        	mv	s1, a5
   12660: 3a 89        	mv	s2, a4
   12662: b6 ee        	sd	a3, 0x158(sp)
   12664: b2 ea        	sd	a2, 0x150(sp)
   12666: 36 af        	cm.mvsa01	s6, s5
   12668: 42 85        	mv	a0, a6
   1266a: be 85        	mv	a1, a5
   1266c: ef c0 d0 4f  	jal	0x1f368 <__muldi3>
   12670: 01 25        	sext.w	a0, a0
   12672: 93 19 25 00  	slli	s3, a0, 0x2
   12676: 56 85        	mv	a0, s5
   12678: 81 45        	li	a1, 0x0
   1267a: 4e 86        	mv	a2, s3
   1267c: ef 40 60 6d  	jal	0x16d52 <memset>
   12680: 4e 85        	mv	a0, s3
   12682: ef 10 40 7d  	jal	0x13e56 <malloc>
   12686: 2a 8a        	mv	s4, a0
   12688: 4e 85        	mv	a0, s3
   1268a: ef 10 c0 7c  	jal	0x13e56 <malloc>
   1268e: ad 45        	li	a1, 0xb
   12690: aa 89        	mv	s3, a0
   12692: 01 45        	li	a0, 0x0
   12694: e3 4a b4 12  	blt	s0, a1, 0x12fc8 <susan_corners+0x984>
   12698: 4a ed        	sd	s2, 0x98(sp)
   1269a: 22 e1        	sd	s0, 0x80(sp)
   1269c: 1b 05 b4 ff  	addiw	a0, s0, -0x5
   126a0: aa f9        	sd	a0, 0xf0(sp)
   126a2: 1b 85 b4 ff  	addiw	a0, s1, -0x5
   126a6: 9b 85 d4 ff  	addiw	a1, s1, -0x3
   126aa: 1b 86 a4 ff  	addiw	a2, s1, -0x6
   126ae: 93 16 05 02  	slli	a3, a0, 0x20
   126b2: b6 f8        	sd	a3, 0x70(sp)
   126b4: 81 92        	srli	a3, a3, 0x20
   126b6: 4e e5        	sd	s3, 0x88(sp)
   126b8: 13 84 49 01  	addi	s0, s3, 0x14
   126bc: a2 ed        	sd	s0, 0xd8(sp)
   126be: 13 97 24 00  	slli	a4, s1, 0x2
   126c2: 26 97        	add	a4, a4, s1
   126c4: 3a f2        	sd	a4, 0x120(sp)
   126c6: 52 e9        	sd	s4, 0x90(sp)
   126c8: 51 0a        	addi	s4, s4, 0x14
   126ca: d2 e9        	sd	s4, 0xd0(sp)
   126cc: d6 fc        	sd	s5, 0x78(sp)
   126ce: d1 0a        	addi	s5, s5, 0x14
   126d0: d6 e1        	sd	s5, 0xc0(sp)
   126d2: 13 07 5b 00  	addi	a4, s6, 0x5
   126d6: ba e5        	sd	a4, 0xc8(sp)
   126d8: ed 16        	addi	a3, a3, -0x5
   126da: b6 e6        	sd	a3, 0x148(sp)
   126dc: 93 96 14 00  	slli	a3, s1, 0x1
   126e0: 33 07 db 00  	add	a4, s6, a3
   126e4: 3a e3        	sd	a4, 0x180(sp)
   126e6: 33 87 b6 00  	add	a4, a3, a1
   126ea: b3 07 eb 00  	add	a5, s6, a4
   126ee: be fe        	sd	a5, 0x178(sp)
   126f0: 2a 97        	add	a4, a4, a0
   126f2: b3 07 eb 00  	add	a5, s6, a4
   126f6: be fa        	sd	a5, 0x170(sp)
   126f8: b3 07 66 01  	add	a5, a2, s6
   126fc: 3e 97        	add	a4, a4, a5
   126fe: 45 07        	addi	a4, a4, 0x11
   12700: ba f6        	sd	a4, 0x168(sp)
   12702: 06 06        	slli	a2, a2, 0x1
   12704: 36 96        	add	a2, a2, a3
   12706: b3 86 a5 00  	add	a3, a1, a0
   1270a: da 96        	add	a3, a3, s6
   1270c: b2 96        	add	a3, a3, a2
   1270e: d9 06        	addi	a3, a3, 0x16
   12710: 36 f6        	sd	a3, 0x128(sp)
   12712: 06 05        	slli	a0, a0, 0x1
   12714: 32 95        	add	a0, a0, a2
   12716: 33 86 65 01  	add	a2, a1, s6
   1271a: 2a 96        	add	a2, a2, a0
   1271c: 71 06        	addi	a2, a2, 0x1c
   1271e: 86 05        	slli	a1, a1, 0x1
   12720: da f0        	sd	s6, 0x60(sp)
   12722: da 95        	add	a1, a1, s6
   12724: 2e 95        	add	a0, a0, a1
   12726: 93 05 05 02  	addi	a1, a0, 0x20
   1272a: 95 46        	li	a3, 0x5
   1272c: 53 04 00 f0  	fmv.w.x	fs0, zero
   12730: 87 b4 81 20  	fld	fs1, 0x208(gp)
   12734: 07 b9 01 21  	fld	fs2, 0x210(gp)
   12738: 37 05 40 40  	lui	a0, 0x40400
   1273c: d3 09 05 f0  	fmv.w.x	fs3, a0
   12740: 15 47        	li	a4, 0x5
   12742: a6 f5        	sd	s1, 0xe8(sp)
   12744: ba fd        	sd	a4, 0xf8(sp)
   12746: 36 e6        	sd	a3, 0x108(sp)
   12748: 2e ea        	sd	a1, 0x110(sp)
   1274a: 32 ee        	sd	a2, 0x118(sp)
   1274c: 2d 45        	li	a0, 0xb
   1274e: 63 ca a4 58  	blt	s1, a0, 0x12ce2 <susan_corners+0x69e>
   12752: 81 4a        	li	s5, 0x0
   12754: 12 75        	ld	a0, 0x120(sp)
   12756: 02 15        	slli	a0, a0, 0x20
   12758: 93 55 05 02  	srli	a1, a0, 0x20
   1275c: 79 81        	srli	a0, a0, 0x1e
   1275e: 6e 6d        	ld	s10, 0xd8(sp)
   12760: 2a 9d        	add	s10, s10, a0
   12762: ce 6b        	ld	s7, 0xd0(sp)
   12764: aa 9b        	add	s7, s7, a0
   12766: 0e 69        	ld	s2, 0xc0(sp)
   12768: 2a 99        	add	s2, s2, a0
   1276a: 2e 65        	ld	a0, 0xc8(sp)
   1276c: 2e 95        	add	a0, a0, a1
   1276e: aa f2        	sd	a0, 0x160(sp)
   12770: 95 44        	li	s1, 0x5
   12772: 95 49        	li	s3, 0x5
   12774: 1a 65        	ld	a0, 0x180(sp)
   12776: 56 95        	add	a0, a0, s5
   12778: 96 75        	ld	a1, 0x160(sp)
   1277a: d6 95        	add	a1, a1, s5
   1277c: 83 cd 05 00  	lbu	s11, 0x0(a1)
   12780: 83 45 45 00  	lbu	a1, 0x4(a0)
   12784: 03 46 55 00  	lbu	a2, 0x5(a0)
   12788: d6 66        	ld	a3, 0x150(sp)
   1278a: b6 9d        	add	s11, s11, a3
   1278c: b3 85 bd 40  	sub	a1, s11, a1
   12790: 94 81        	lbu	a3, 0x0(a1)
   12792: b3 85 cd 40  	sub	a1, s11, a2
   12796: 8c 81        	lbu	a1, 0x0(a1)
   12798: 03 45 65 00  	lbu	a0, 0x6(a0)
   1279c: b6 e2        	sd	a3, 0x140(sp)
   1279e: b6 95        	add	a1, a1, a3
   127a0: 76 76        	ld	a2, 0x178(sp)
   127a2: 56 96        	add	a2, a2, s5
   127a4: 83 46 66 00  	lbu	a3, 0x6(a2)
   127a8: 33 85 ad 40  	sub	a0, s11, a0
   127ac: 1c 81        	lbu	a5, 0x0(a0)
   127ae: 03 45 76 00  	lbu	a0, 0x7(a2)
   127b2: b3 86 dd 40  	sub	a3, s11, a3
   127b6: 03 47 86 00  	lbu	a4, 0x8(a2)
   127ba: 03 cf 06 00  	lbu	t5, 0x0(a3)
   127be: 33 85 ad 40  	sub	a0, s11, a0
   127c2: 83 4e 05 00  	lbu	t4, 0x0(a0)
   127c6: 33 85 ed 40  	sub	a0, s11, a4
   127ca: 83 42 05 00  	lbu	t0, 0x0(a0)
   127ce: 3e fa        	sd	a5, 0x130(sp)
   127d0: b3 86 f5 00  	add	a3, a1, a5
   127d4: 03 45 96 00  	lbu	a0, 0x9(a2)
   127d8: b3 05 df 01  	add	a1, t5, t4
   127dc: 96 95        	add	a1, a1, t0
   127de: 36 fe        	sd	a3, 0x138(sp)
   127e0: b6 95        	add	a1, a1, a3
   127e2: 33 85 ad 40  	sub	a0, s11, a0
   127e6: 03 46 a6 00  	lbu	a2, 0xa(a2)
   127ea: 03 4b 05 00  	lbu	s6, 0x0(a0)
   127ee: 56 75        	ld	a0, 0x170(sp)
   127f0: 56 95        	add	a0, a0, s5
   127f2: 83 46 a5 00  	lbu	a3, 0xa(a0)
   127f6: 33 86 cd 40  	sub	a2, s11, a2
   127fa: 03 47 b5 00  	lbu	a4, 0xb(a0)
   127fe: 03 4e 06 00  	lbu	t3, 0x0(a2)
   12802: 33 86 dd 40  	sub	a2, s11, a3
   12806: 03 43 06 00  	lbu	t1, 0x0(a2)
   1280a: 33 86 ed 40  	sub	a2, s11, a4
   1280e: 83 43 06 00  	lbu	t2, 0x0(a2)
   12812: 33 06 cb 01  	add	a2, s6, t3
   12816: 1a 96        	add	a2, a2, t1
   12818: 83 46 c5 00  	lbu	a3, 0xc(a0)
   1281c: 1e 96        	add	a2, a2, t2
   1281e: b2 95        	add	a1, a1, a2
   12820: 03 46 d5 00  	lbu	a2, 0xd(a0)
   12824: b3 86 dd 40  	sub	a3, s11, a3
   12828: 83 c0 06 00  	lbu	ra, 0x0(a3)
   1282c: 83 46 e5 00  	lbu	a3, 0xe(a0)
   12830: 33 86 cd 40  	sub	a2, s11, a2
   12834: 83 47 f5 00  	lbu	a5, 0xf(a0)
   12838: 03 4a 06 00  	lbu	s4, 0x0(a2)
   1283c: 33 86 dd 40  	sub	a2, s11, a3
   12840: 03 48 06 00  	lbu	a6, 0x0(a2)
   12844: 33 86 fd 40  	sub	a2, s11, a5
   12848: 83 48 06 00  	lbu	a7, 0x0(a2)
   1284c: 33 86 40 01  	add	a2, ra, s4
   12850: 42 96        	add	a2, a2, a6
   12852: 03 45 05 01  	lbu	a0, 0x10(a0)
   12856: b3 06 16 01  	add	a3, a2, a7
   1285a: 36 76        	ld	a2, 0x168(sp)
   1285c: 56 96        	add	a2, a2, s5
   1285e: 03 47 f6 ff  	lbu	a4, -0x1(a2)
   12862: 33 85 ad 40  	sub	a0, s11, a0
   12866: 08 81        	lbu	a0, 0x0(a0)
   12868: 1c 82        	lbu	a5, 0x0(a2)
   1286a: 33 87 ed 40  	sub	a4, s11, a4
   1286e: 40 82        	lbu	s0, 0x1(a2)
   12870: 83 4c 07 00  	lbu	s9, 0x0(a4)
   12874: 33 87 fd 40  	sub	a4, s11, a5
   12878: 83 4f 07 00  	lbu	t6, 0x0(a4)
   1287c: 33 87 8d 40  	sub	a4, s11, s0
   12880: 03 4c 07 00  	lbu	s8, 0x0(a4)
   12884: aa 96        	add	a3, a3, a0
   12886: b6 95        	add	a1, a1, a3
   12888: b3 86 fc 01  	add	a3, s9, t6
   1288c: e2 96        	add	a3, a3, s8
   1288e: b6 95        	add	a1, a1, a3
   12890: 9b 86 45 06  	addiw	a3, a1, 0x64
   12894: f6 67        	ld	a5, 0x158(sp)
   12896: 63 dd f6 42  	bge	a3, a5, 0x12cd0 <susan_corners+0x68c>
   1289a: 6c 82        	lbu	a1, 0x3(a2)
   1289c: b3 85 bd 40  	sub	a1, s11, a1
   128a0: 8c 81        	lbu	a1, 0x0(a1)
   128a2: ad 9e        	addw	a3, a3, a1
   128a4: 63 f6 f6 42  	bgeu	a3, a5, 0x12cd0 <susan_corners+0x68c>
   128a8: 03 47 46 00  	lbu	a4, 0x4(a2)
   128ac: 33 87 ed 40  	sub	a4, s11, a4
   128b0: 18 83        	lbu	a4, 0x0(a4)
   128b2: b9 9e        	addw	a3, a3, a4
   128b4: 63 fe f6 40  	bgeu	a3, a5, 0x12cd0 <susan_corners+0x68c>
   128b8: 03 46 56 00  	lbu	a2, 0x5(a2)
   128bc: 33 86 cd 40  	sub	a2, s11, a2
   128c0: 10 82        	lbu	a2, 0x0(a2)
   128c2: 32 e2        	sd	a2, 0x100(sp)
   128c4: 35 9e        	addw	a2, a2, a3
   128c6: 63 75 f6 40  	bgeu	a2, a5, 0x12cd0 <susan_corners+0x68c>
   128ca: 3a 84        	mv	s0, a4
   128cc: b2 76        	ld	a3, 0x128(sp)
   128ce: d6 96        	add	a3, a3, s5
   128d0: 36 87        	mv	a4, a3
   128d2: 94 82        	lbu	a3, 0x0(a3)
   128d4: b3 86 dd 40  	sub	a3, s11, a3
   128d8: 94 82        	lbu	a3, 0x0(a3)
   128da: b6 f1        	sd	a3, 0xe0(sp)
   128dc: 35 9e        	addw	a2, a2, a3
   128de: 63 79 f6 3e  	bgeu	a2, a5, 0x12cd0 <susan_corners+0x68c>
   128e2: 54 83        	lbu	a3, 0x1(a4)
   128e4: b3 86 dd 40  	sub	a3, s11, a3
   128e8: 94 82        	lbu	a3, 0x0(a3)
   128ea: 36 fd        	sd	a3, 0xb8(sp)
   128ec: 35 9e        	addw	a2, a2, a3
   128ee: 63 71 f6 3e  	bgeu	a2, a5, 0x12cd0 <susan_corners+0x68c>
   128f2: 34 83        	lbu	a3, 0x2(a4)
   128f4: b3 86 dd 40  	sub	a3, s11, a3
   128f8: 94 82        	lbu	a3, 0x0(a3)
   128fa: 36 f9        	sd	a3, 0xb0(sp)
   128fc: 35 9e        	addw	a2, a2, a3
   128fe: 63 79 f6 3c  	bgeu	a2, a5, 0x12cd0 <susan_corners+0x68c>
   12902: 74 83        	lbu	a3, 0x3(a4)
   12904: b3 86 dd 40  	sub	a3, s11, a3
   12908: 94 82        	lbu	a3, 0x0(a3)
   1290a: 36 f5        	sd	a3, 0xa8(sp)
   1290c: 35 9e        	addw	a2, a2, a3
   1290e: 63 71 f6 3c  	bgeu	a2, a5, 0x12cd0 <susan_corners+0x68c>
   12912: 83 46 47 00  	lbu	a3, 0x4(a4)
   12916: b3 86 dd 40  	sub	a3, s11, a3
   1291a: 94 82        	lbu	a3, 0x0(a3)
   1291c: 36 f1        	sd	a3, 0xa0(sp)
   1291e: 35 9e        	addw	a2, a2, a3
   12920: 63 78 f6 3a  	bgeu	a2, a5, 0x12cd0 <susan_corners+0x68c>
   12924: 83 46 57 00  	lbu	a3, 0x5(a4)
   12928: b3 86 dd 40  	sub	a3, s11, a3
   1292c: 94 82        	lbu	a3, 0x0(a3)
   1292e: b6 f4        	sd	a3, 0x68(sp)
   12930: 35 9e        	addw	a2, a2, a3
   12932: 63 7f f6 38  	bgeu	a2, a5, 0x12cd0 <susan_corners+0x68c>
   12936: 83 46 67 00  	lbu	a3, 0x6(a4)
   1293a: b3 86 dd 40  	sub	a3, s11, a3
   1293e: 94 82        	lbu	a3, 0x0(a3)
   12940: b6 ec        	sd	a3, 0x58(sp)
   12942: 35 9e        	addw	a2, a2, a3
   12944: 63 76 f6 38  	bgeu	a2, a5, 0x12cd0 <susan_corners+0x68c>
   12948: f2 66        	ld	a3, 0x118(sp)
   1294a: 33 87 56 01  	add	a4, a3, s5
   1294e: 14 83        	lbu	a3, 0x0(a4)
   12950: b3 86 dd 40  	sub	a3, s11, a3
   12954: 94 82        	lbu	a3, 0x0(a3)
   12956: b6 e8        	sd	a3, 0x50(sp)
   12958: 35 9e        	addw	a2, a2, a3
   1295a: 63 7b f6 36  	bgeu	a2, a5, 0x12cd0 <susan_corners+0x68c>
   1295e: 54 83        	lbu	a3, 0x1(a4)
   12960: b3 86 dd 40  	sub	a3, s11, a3
   12964: 94 82        	lbu	a3, 0x0(a3)
   12966: b6 e4        	sd	a3, 0x48(sp)
   12968: 35 9e        	addw	a2, a2, a3
   1296a: 63 73 f6 36  	bgeu	a2, a5, 0x12cd0 <susan_corners+0x68c>
   1296e: 34 83        	lbu	a3, 0x2(a4)
   12970: b3 86 dd 40  	sub	a3, s11, a3
   12974: 94 82        	lbu	a3, 0x0(a3)
   12976: b6 e0        	sd	a3, 0x40(sp)
   12978: 35 9e        	addw	a2, a2, a3
   1297a: 63 7b f6 34  	bgeu	a2, a5, 0x12cd0 <susan_corners+0x68c>
   1297e: 74 83        	lbu	a3, 0x3(a4)
   12980: b3 86 dd 40  	sub	a3, s11, a3
   12984: 94 82        	lbu	a3, 0x0(a3)
   12986: 36 fc        	sd	a3, 0x38(sp)
   12988: 35 9e        	addw	a2, a2, a3
   1298a: 63 73 f6 34  	bgeu	a2, a5, 0x12cd0 <susan_corners+0x68c>
   1298e: 83 46 47 00  	lbu	a3, 0x4(a4)
   12992: b3 86 dd 40  	sub	a3, s11, a3
   12996: 94 82        	lbu	a3, 0x0(a3)
   12998: 36 f8        	sd	a3, 0x30(sp)
   1299a: 35 9e        	addw	a2, a2, a3
   1299c: 63 7a f6 32  	bgeu	a2, a5, 0x12cd0 <susan_corners+0x68c>
   129a0: d2 66        	ld	a3, 0x110(sp)
   129a2: 33 87 56 01  	add	a4, a3, s5
   129a6: 14 83        	lbu	a3, 0x0(a4)
   129a8: b3 86 dd 40  	sub	a3, s11, a3
   129ac: 94 82        	lbu	a3, 0x0(a3)
   129ae: 36 f4        	sd	a3, 0x28(sp)
   129b0: 35 9e        	addw	a2, a2, a3
   129b2: 63 7f f6 30  	bgeu	a2, a5, 0x12cd0 <susan_corners+0x68c>
   129b6: 54 83        	lbu	a3, 0x1(a4)
   129b8: b3 86 dd 40  	sub	a3, s11, a3
   129bc: 94 82        	lbu	a3, 0x0(a3)
   129be: 36 f0        	sd	a3, 0x20(sp)
   129c0: 35 9e        	addw	a2, a2, a3
   129c2: 63 77 f6 30  	bgeu	a2, a5, 0x12cd0 <susan_corners+0x68c>
   129c6: 34 83        	lbu	a3, 0x2(a4)
   129c8: b3 86 dd 40  	sub	a3, s11, a3
   129cc: 94 82        	lbu	a3, 0x0(a3)
   129ce: 36 e8        	sd	a3, 0x10(sp)
   129d0: b1 9e        	addw	a3, a3, a2
   129d2: 63 ff f6 2e  	bgeu	a3, a5, 0x12cd0 <susan_corners+0x68c>
   129d6: da 92        	add	t0, t0, s6
   129d8: 33 86 ee 01  	add	a2, t4, t5
   129dc: 16 96        	add	a2, a2, t0
   129de: 32 e4        	sd	a2, 0x8(sp)
   129e0: 9a 9c        	add	s9, s9, t1
   129e2: 36 ec        	sd	a3, 0x18(sp)
   129e4: 92 66        	ld	a3, 0x100(sp)
   129e6: aa 96        	add	a3, a3, a0
   129e8: 0e 76        	ld	a2, 0xe0(sp)
   129ea: b2 9c        	add	s9, s9, a2
   129ec: 66 66        	ld	a2, 0x58(sp)
   129ee: b2 96        	add	a3, a3, a2
   129f0: bb 86 96 41  	subw	a3, a3, s9
   129f4: ea 7c        	ld	s9, 0xb8(sp)
   129f6: 13 97 16 00  	slli	a4, a3, 0x1
   129fa: ba 96        	add	a3, a3, a4
   129fc: 33 07 1e 01  	add	a4, t3, a7
   12a00: 22 97        	add	a4, a4, s0
   12a02: 1e 9f        	add	t5, t5, t2
   12a04: e6 9f        	add	t6, t6, s9
   12a06: 7e 9f        	add	t5, t5, t6
   12a08: 3b 07 e7 41  	subw	a4, a4, t5
   12a0c: 96 67        	ld	a5, 0x140(sp)
   12a0e: be 9e        	add	t4, t4, a5
   12a10: d2 77        	ld	a5, 0x130(sp)
   12a12: 3e 9b        	add	s6, s6, a5
   12a14: 06 9c        	add	s8, s8, ra
   12a16: e2 9e        	add	t4, t4, s8
   12a18: c2 95        	add	a1, a1, a6
   12a1a: da 95        	add	a1, a1, s6
   12a1c: 4a 7c        	ld	s8, 0xb0(sp)
   12a1e: e2 9e        	add	t4, t4, s8
   12a20: 0a 7f        	ld	t5, 0xa0(sp)
   12a22: fa 95        	add	a1, a1, t5
   12a24: bb 85 d5 41  	subw	a1, a1, t4
   12a28: c6 6e        	ld	t4, 0x50(sp)
   12a2a: 86 0e        	slli	t4, t4, 0x1
   12a2c: 26 74        	ld	s0, 0x68(sp)
   12a2e: 22 97        	add	a4, a4, s0
   12a30: 06 07        	slli	a4, a4, 0x1
   12a32: ba 95        	add	a1, a1, a4
   12a34: 26 66        	ld	a2, 0x48(sp)
   12a36: 33 87 ce 00  	add	a4, t4, a2
   12a3a: 99 9e        	subw	a3, a3, a4
   12a3c: c2 7f        	ld	t6, 0x30(sp)
   12a3e: 86 0f        	slli	t6, t6, 0x1
   12a40: b6 95        	add	a1, a1, a3
   12a42: 62 77        	ld	a4, 0x38(sp)
   12a44: b3 06 f7 01  	add	a3, a4, t6
   12a48: a2 77        	ld	a5, 0x28(sp)
   12a4a: 9d 9e        	subw	a3, a3, a5
   12a4c: 42 6b        	ld	s6, 0x10(sp)
   12a4e: da 96        	add	a3, a3, s6
   12a50: bb 82 d5 00  	addw	t0, a1, a3
   12a54: f2 75        	ld	a1, 0x138(sp)
   12a56: bb 85 b7 40  	subw	a1, a5, a1
   12a5a: 82 76        	ld	a3, 0x20(sp)
   12a5c: da 96        	add	a3, a3, s6
   12a5e: 16 8b        	mv	s6, t0
   12a60: b6 95        	add	a1, a1, a3
   12a62: 93 96 15 00  	slli	a3, a1, 0x1
   12a66: b6 95        	add	a1, a1, a3
   12a68: bb 06 c6 41  	subw	a3, a2, t3
   12a6c: 06 66        	ld	a2, 0x40(sp)
   12a6e: b2 96        	add	a3, a3, a2
   12a70: 22 66        	ld	a2, 0x8(sp)
   12a72: 91 9e        	subw	a3, a3, a2
   12a74: ba 96        	add	a3, a3, a4
   12a76: 1e 93        	add	t1, t1, t2
   12a78: 06 9a        	add	s4, s4, ra
   12a7a: 52 93        	add	t1, t1, s4
   12a7c: 46 98        	add	a6, a6, a7
   12a7e: 42 95        	add	a0, a0, a6
   12a80: 1a 95        	add	a0, a0, t1
   12a82: 0e 76        	ld	a2, 0xe0(sp)
   12a84: 66 96        	add	a2, a2, s9
   12a86: 62 96        	add	a2, a2, s8
   12a88: aa 77        	ld	a5, 0xa8(sp)
   12a8a: 3e 96        	add	a2, a2, a5
   12a8c: 09 9e        	subw	a2, a2, a0
   12a8e: 33 05 8f 00  	add	a0, t5, s0
   12a92: 66 67        	ld	a4, 0x58(sp)
   12a94: 3a 95        	add	a0, a0, a4
   12a96: 76 95        	add	a0, a0, t4
   12a98: 32 95        	add	a0, a0, a2
   12a9a: 86 06        	slli	a3, a3, 0x1
   12a9c: 36 95        	add	a0, a0, a3
   12a9e: 7e 95        	add	a0, a0, t6
   12aa0: 3b 04 b5 00  	addw	s0, a0, a1
   12aa4: 16 85        	mv	a0, t0
   12aa6: 96 85        	mv	a1, t0
   12aa8: ef c0 10 0c  	jal	0x1f368 <__muldi3>
   12aac: 2a 8c        	mv	s8, a0
   12aae: 62 ac        	cm.mva01s	s0, s0
   12ab0: ef c0 90 0b  	jal	0x1f368 <__muldi3>
   12ab4: aa 8c        	mv	s9, a0
   12ab6: 3b 0a 85 01  	addw	s4, a0, s8
   12aba: 62 65        	ld	a0, 0x18(sp)
   12abc: e2 65        	ld	a1, 0x18(sp)
   12abe: ef c0 b0 0a  	jal	0x1f368 <__muldi3>
   12ac2: 1b 55 15 00  	srliw	a0, a0, 0x1
   12ac6: 63 75 45 21  	bgeu	a0, s4, 0x12cd0 <susan_corners+0x68c>
   12aca: 1b 05 0c 00  	sext.w	a0, s8
   12ace: 9b 85 0c 00  	sext.w	a1, s9
   12ad2: da e2        	sd	s6, 0x140(sp)
   12ad4: 22 fe        	sd	s0, 0x138(sp)
   12ad6: 63 fc a5 0c  	bgeu	a1, a0, 0x12bae <susan_corners+0x56a>
   12ada: d3 77 04 d0  	fcvt.s.w	fa5, s0
   12ade: 1b 55 fb 41  	sraiw	a0, s6, 0x1f
   12ae2: b3 45 ab 00  	xor	a1, s6, a0
   12ae6: 89 9d        	subw	a1, a1, a0
   12ae8: 53 f7 05 d0  	fcvt.s.w	fa4, a1
   12aec: 53 fa e7 18  	fdiv.s	fs4, fa5, fa4
   12af0: 13 95 05 03  	slli	a0, a1, 0x30
   12af4: 41 95        	srai	a0, a0, 0x30
   12af6: 93 15 0b 03  	slli	a1, s6, 0x30
   12afa: c1 95        	srai	a1, a1, 0x30
   12afc: ef c0 d0 0a  	jal	0x1f3a8 <__divdi3>
   12b00: d3 15 8a a0  	flt.s	a1, fs4, fs0
   12b04: d3 07 29 23  	fmv.d	fa5, fs2
   12b08: 2e 7c        	ld	s8, 0xe8(sp)
   12b0a: 86 7c        	ld	s9, 0x60(sp)
   12b0c: 99 e1        	bnez	a1, 0x12b12 <susan_corners+0x4ce>
   12b0e: d3 87 94 22  	fmv.d	fa5, fs1
   12b12: 42 15        	slli	a0, a0, 0x30
   12b14: 13 5a 05 43  	srai	s4, a0, 0x30
   12b18: 53 07 0a 42  	fcvt.d.s	fa4, fs4
   12b1c: d3 f7 e7 02  	fadd.d	fa5, fa5, fa4
   12b20: d3 95 07 c2  	fcvt.w.d	a1, fa5, rtz
   12b24: 32 65        	ld	a0, 0x108(sp)
   12b26: aa 95        	add	a1, a1, a0
   12b28: 62 85        	mv	a0, s8
   12b2a: ef c0 f0 03  	jal	0x1f368 <__muldi3>
   12b2e: b3 85 44 01  	add	a1, s1, s4
   12b32: 2d 9d        	addw	a0, a0, a1
   12b34: 66 95        	add	a0, a0, s9
   12b36: 08 81        	lbu	a0, 0x0(a0)
   12b38: 33 85 ad 40  	sub	a0, s11, a0
   12b3c: 00 81        	lbu	s0, 0x0(a0)
   12b3e: d3 77 4a 01  	fadd.s	fa5, fs4, fs4
   12b42: 53 95 87 a0  	flt.s	a0, fa5, fs0
   12b46: 53 07 29 23  	fmv.d	fa4, fs2
   12b4a: 19 e1        	bnez	a0, 0x12b50 <susan_corners+0x50c>
   12b4c: 53 87 94 22  	fmv.d	fa4, fs1
   12b50: d3 87 07 42  	fcvt.d.s	fa5, fa5
   12b54: d3 77 f7 02  	fadd.d	fa5, fa4, fa5
   12b58: d3 95 07 c2  	fcvt.w.d	a1, fa5, rtz
   12b5c: 13 1b 1a 00  	slli	s6, s4, 0x1
   12b60: 32 65        	ld	a0, 0x108(sp)
   12b62: aa 95        	add	a1, a1, a0
   12b64: 62 85        	mv	a0, s8
   12b66: ef c0 30 00  	jal	0x1f368 <__muldi3>
   12b6a: b3 85 64 01  	add	a1, s1, s6
   12b6e: 2d 9d        	addw	a0, a0, a1
   12b70: 66 95        	add	a0, a0, s9
   12b72: 08 81        	lbu	a0, 0x0(a0)
   12b74: 33 85 ad 40  	sub	a0, s11, a0
   12b78: 08 81        	lbu	a0, 0x0(a0)
   12b7a: d3 77 3a 11  	fmul.s	fa5, fs4, fs3
   12b7e: d3 95 87 a0  	flt.s	a1, fa5, fs0
   12b82: 53 07 29 23  	fmv.d	fa4, fs2
   12b86: 99 e1        	bnez	a1, 0x12b8c <susan_corners+0x548>
   12b88: 53 87 94 22  	fmv.d	fa4, fs1
   12b8c: 2a 94        	add	s0, s0, a0
   12b8e: d3 87 07 42  	fcvt.d.s	fa5, fa5
   12b92: d3 77 f7 02  	fadd.d	fa5, fa4, fa5
   12b96: 53 95 07 c2  	fcvt.w.d	a0, fa5, rtz
   12b9a: ee 75        	ld	a1, 0xf8(sp)
   12b9c: 2e 95        	add	a0, a0, a1
   12b9e: e2 85        	mv	a1, s8
   12ba0: ef c0 80 7c  	jal	0x1f368 <__muldi3>
   12ba4: 5a 9a        	add	s4, s4, s6
   12ba6: 4e 9a        	add	s4, s4, s3
   12ba8: 3b 05 45 01  	addw	a0, a0, s4
   12bac: d9 a8        	j	0x12c82 <susan_corners+0x63e>
   12bae: d3 77 0b d0  	fcvt.s.w	fa5, s6
   12bb2: 1b 55 f4 41  	sraiw	a0, s0, 0x1f
   12bb6: b3 45 a4 00  	xor	a1, s0, a0
   12bba: 89 9d        	subw	a1, a1, a0
   12bbc: 53 f7 05 d0  	fcvt.s.w	fa4, a1
   12bc0: 53 fa e7 18  	fdiv.s	fs4, fa5, fa4
   12bc4: 13 95 05 03  	slli	a0, a1, 0x30
   12bc8: 41 95        	srai	a0, a0, 0x30
   12bca: 93 15 04 03  	slli	a1, s0, 0x30
   12bce: c1 95        	srai	a1, a1, 0x30
   12bd0: ef c0 80 7d  	jal	0x1f3a8 <__divdi3>
   12bd4: d3 15 8a a0  	flt.s	a1, fs4, fs0
   12bd8: d3 07 29 23  	fmv.d	fa5, fs2
   12bdc: 2e 76        	ld	a2, 0xe8(sp)
   12bde: 86 7c        	ld	s9, 0x60(sp)
   12be0: 99 e1        	bnez	a1, 0x12be6 <susan_corners+0x5a2>
   12be2: d3 87 94 22  	fmv.d	fa5, fs1
   12be6: 42 15        	slli	a0, a0, 0x30
   12be8: 13 5a 05 43  	srai	s4, a0, 0x30
   12bec: 53 07 0a 42  	fcvt.d.s	fa4, fs4
   12bf0: d3 f7 e7 02  	fadd.d	fa5, fa5, fa4
   12bf4: 53 94 07 c2  	fcvt.w.d	s0, fa5, rtz
   12bf8: b2 65        	ld	a1, 0x108(sp)
   12bfa: d2 95        	add	a1, a1, s4
   12bfc: 32 85        	mv	a0, a2
   12bfe: ef c0 a0 76  	jal	0x1f368 <__muldi3>
   12c02: 26 94        	add	s0, s0, s1
   12c04: 21 9d        	addw	a0, a0, s0
   12c06: 66 95        	add	a0, a0, s9
   12c08: 08 81        	lbu	a0, 0x0(a0)
   12c0a: 33 85 ad 40  	sub	a0, s11, a0
   12c0e: 03 4c 05 00  	lbu	s8, 0x0(a0)
   12c12: d3 77 4a 01  	fadd.s	fa5, fs4, fs4
   12c16: 53 95 87 a0  	flt.s	a0, fa5, fs0
   12c1a: 53 07 29 23  	fmv.d	fa4, fs2
   12c1e: 19 e1        	bnez	a0, 0x12c24 <susan_corners+0x5e0>
   12c20: 53 87 94 22  	fmv.d	fa4, fs1
   12c24: 13 1b 1a 00  	slli	s6, s4, 0x1
   12c28: d3 87 07 42  	fcvt.d.s	fa5, fa5
   12c2c: d3 77 f7 02  	fadd.d	fa5, fa4, fa5
   12c30: 53 94 07 c2  	fcvt.w.d	s0, fa5, rtz
   12c34: b2 65        	ld	a1, 0x108(sp)
   12c36: da 95        	add	a1, a1, s6
   12c38: 2e 75        	ld	a0, 0xe8(sp)
   12c3a: ef c0 e0 72  	jal	0x1f368 <__muldi3>
   12c3e: 26 94        	add	s0, s0, s1
   12c40: 21 9d        	addw	a0, a0, s0
   12c42: 66 95        	add	a0, a0, s9
   12c44: 08 81        	lbu	a0, 0x0(a0)
   12c46: 33 85 ad 40  	sub	a0, s11, a0
   12c4a: 08 81        	lbu	a0, 0x0(a0)
   12c4c: d3 77 3a 11  	fmul.s	fa5, fs4, fs3
   12c50: d3 95 87 a0  	flt.s	a1, fa5, fs0
   12c54: 53 07 29 23  	fmv.d	fa4, fs2
   12c58: 99 e1        	bnez	a1, 0x12c5e <susan_corners+0x61a>
   12c5a: 53 87 94 22  	fmv.d	fa4, fs1
   12c5e: 33 04 85 01  	add	s0, a0, s8
   12c62: b3 05 4b 01  	add	a1, s6, s4
   12c66: d3 87 07 42  	fcvt.d.s	fa5, fa5
   12c6a: d3 77 f7 02  	fadd.d	fa5, fa4, fa5
   12c6e: 53 9a 07 c2  	fcvt.w.d	s4, fa5, rtz
   12c72: 32 65        	ld	a0, 0x108(sp)
   12c74: aa 95        	add	a1, a1, a0
   12c76: 2e 75        	ld	a0, 0xe8(sp)
   12c78: ef c0 00 6f  	jal	0x1f368 <__muldi3>
   12c7c: 26 9a        	add	s4, s4, s1
   12c7e: 3b 05 aa 00  	addw	a0, s4, a0
   12c82: 66 95        	add	a0, a0, s9
   12c84: 08 81        	lbu	a0, 0x0(a0)
   12c86: 33 85 ad 40  	sub	a0, s11, a0
   12c8a: 08 81        	lbu	a0, 0x0(a0)
   12c8c: b3 06 a4 00  	add	a3, s0, a0
   12c90: f6 65        	ld	a1, 0x158(sp)
   12c92: 13 06 30 12  	li	a2, 0x123
   12c96: 62 64        	ld	s0, 0x18(sp)
   12c98: 16 65        	ld	a0, 0x140(sp)
   12c9a: 72 7a        	ld	s4, 0x138(sp)
   12c9c: 63 ea c6 02  	bltu	a3, a2, 0x12cd0 <susan_corners+0x68c>
   12ca0: 81 9d        	subw	a1, a1, s0
   12ca2: 23 20 b9 00  	sw	a1, 0x0(s2)
   12ca6: 93 05 30 03  	li	a1, 0x33
   12caa: ef c0 e0 6b  	jal	0x1f368 <__muldi3>
   12cae: 01 25        	sext.w	a0, a0
   12cb0: a2 85        	mv	a1, s0
   12cb2: ef c0 60 6f  	jal	0x1f3a8 <__divdi3>
   12cb6: 23 a0 ab 00  	sw	a0, 0x0(s7)
   12cba: 93 05 30 03  	li	a1, 0x33
   12cbe: 52 85        	mv	a0, s4
   12cc0: ef c0 80 6a  	jal	0x1f368 <__muldi3>
   12cc4: 01 25        	sext.w	a0, a0
   12cc6: a2 85        	mv	a1, s0
   12cc8: ef c0 00 6e  	jal	0x1f3a8 <__divdi3>
   12ccc: 23 20 ad 00  	sw	a0, 0x0(s10)
   12cd0: 85 09        	addi	s3, s3, 0x1
   12cd2: 85 04        	addi	s1, s1, 0x1
   12cd4: 11 0d        	addi	s10, s10, 0x4
   12cd6: 91 0b        	addi	s7, s7, 0x4
   12cd8: 85 0a        	addi	s5, s5, 0x1
   12cda: 11 09        	addi	s2, s2, 0x4
   12cdc: 36 65        	ld	a0, 0x148(sp)
   12cde: e3 1b 55 a9  	bne	a0, s5, 0x12774 <susan_corners+0x130>
   12ce2: 6e 77        	ld	a4, 0xf8(sp)
   12ce4: 05 07        	addi	a4, a4, 0x1
   12ce6: b2 66        	ld	a3, 0x108(sp)
   12ce8: 85 26        	addiw	a3, a3, 0x1
   12cea: ae 74        	ld	s1, 0xe8(sp)
   12cec: 12 75        	ld	a0, 0x120(sp)
   12cee: 26 95        	add	a0, a0, s1
   12cf0: 2a f2        	sd	a0, 0x120(sp)
   12cf2: 1a 65        	ld	a0, 0x180(sp)
   12cf4: 26 95        	add	a0, a0, s1
   12cf6: 2a e3        	sd	a0, 0x180(sp)
   12cf8: 76 75        	ld	a0, 0x178(sp)
   12cfa: 26 95        	add	a0, a0, s1
   12cfc: aa fe        	sd	a0, 0x178(sp)
   12cfe: 56 75        	ld	a0, 0x170(sp)
   12d00: 26 95        	add	a0, a0, s1
   12d02: aa fa        	sd	a0, 0x170(sp)
   12d04: 36 75        	ld	a0, 0x168(sp)
   12d06: 26 95        	add	a0, a0, s1
   12d08: aa f6        	sd	a0, 0x168(sp)
   12d0a: 32 75        	ld	a0, 0x128(sp)
   12d0c: 26 95        	add	a0, a0, s1
   12d0e: 2a f6        	sd	a0, 0x128(sp)
   12d10: 72 66        	ld	a2, 0x118(sp)
   12d12: 26 96        	add	a2, a2, s1
   12d14: d2 65        	ld	a1, 0x110(sp)
   12d16: a6 95        	add	a1, a1, s1
   12d18: 4e 75        	ld	a0, 0xf0(sp)
   12d1a: e3 15 a7 a2  	bne	a4, a0, 0x12744 <susan_corners+0x100>
   12d1e: 2d 45        	li	a0, 0xb
   12d20: 8a 65        	ld	a1, 0x80(sp)
   12d22: 63 cf a5 28  	blt	a1, a0, 0x12fc0 <susan_corners+0x97c>
   12d26: 82 e2        	sd	zero, 0x140(sp)
   12d28: 46 75        	ld	a0, 0x70(sp)
   12d2a: 93 5c e5 01  	srli	s9, a0, 0x1e
   12d2e: b1 1c        	addi	s9, s9, -0x14
   12d30: 66 75        	ld	a0, 0x78(sp)
   12d32: 93 05 05 02  	addi	a1, a0, 0x20
   12d36: ae fe        	sd	a1, 0x178(sp)
   12d38: 93 95 24 00  	slli	a1, s1, 0x2
   12d3c: ae f6        	sd	a1, 0x168(sp)
   12d3e: 41 05        	addi	a0, a0, 0x10
   12d40: aa fa        	sd	a0, 0x170(sp)
   12d42: 95 4b        	li	s7, 0x5
   12d44: a9 45        	li	a1, 0xa
   12d46: 11 65        	lui	a0, 0x4
   12d48: 1b 05 85 a9  	addiw	a0, a0, -0x568
   12d4c: 2a fe        	sd	a0, 0x138(sp)
   12d4e: 63 de 95 24  	bge	a1, s1, 0x12faa <susan_corners+0x966>
   12d52: e6 af        	cm.mva01s	s7, s1
   12d54: ef c0 40 61  	jal	0x1f368 <__muldi3>
   12d58: 2a 84        	mv	s0, a0
   12d5a: 13 89 db ff  	addi	s2, s7, -0x3
   12d5e: 13 8d eb ff  	addi	s10, s7, -0x2
   12d62: 93 8d fb ff  	addi	s11, s7, -0x1
   12d66: 93 8a 1b 00  	addi	s5, s7, 0x1
   12d6a: 13 85 2b 00  	addi	a0, s7, 0x2
   12d6e: 2a e3        	sd	a0, 0x180(sp)
   12d70: 13 8c 3b 00  	addi	s8, s7, 0x3
   12d74: b6 79        	ld	s3, 0x168(sp)
   12d76: fe ad        	cm.mva01s	s3, s7
   12d78: ef c0 00 5f  	jal	0x1f368 <__muldi3>
   12d7c: f6 74        	ld	s1, 0x178(sp)
   12d7e: 33 8b a4 00  	add	s6, s1, a0
   12d82: ce 65        	ld	a1, 0xd0(sp)
   12d84: aa 95        	add	a1, a1, a0
   12d86: ae ee        	sd	a1, 0x158(sp)
   12d88: ee 65        	ld	a1, 0xd8(sp)
   12d8a: 2e 95        	add	a0, a0, a1
   12d8c: aa ea        	sd	a0, 0x150(sp)
   12d8e: 4e 85        	mv	a0, s3
   12d90: e2 85        	mv	a1, s8
   12d92: ef c0 60 5d  	jal	0x1f368 <__muldi3>
   12d96: 56 7a        	ld	s4, 0x170(sp)
   12d98: 52 95        	add	a0, a0, s4
   12d9a: aa e6        	sd	a0, 0x148(sp)
   12d9c: 2e 65        	ld	a0, 0xc8(sp)
   12d9e: 2a 94        	add	s0, s0, a0
   12da0: ea ad        	cm.mva01s	s3, s2
   12da2: ef c0 60 5c  	jal	0x1f368 <__muldi3>
   12da6: 33 89 a4 00  	add	s2, s1, a0
   12daa: 4e 85        	mv	a0, s3
   12dac: ea 85        	mv	a1, s10
   12dae: ef c0 a0 5b  	jal	0x1f368 <__muldi3>
   12db2: 33 8d a4 00  	add	s10, s1, a0
   12db6: 4e 85        	mv	a0, s3
   12db8: ee 85        	mv	a1, s11
   12dba: ef c0 e0 5a  	jal	0x1f368 <__muldi3>
   12dbe: 26 95        	add	a0, a0, s1
   12dc0: aa f2        	sd	a0, 0x160(sp)
   12dc2: f6 ad        	cm.mva01s	s3, s5
   12dc4: 56 8c        	mv	s8, s5
   12dc6: ef c0 20 5a  	jal	0x1f368 <__muldi3>
   12dca: b3 8a a4 00  	add	s5, s1, a0
   12dce: 4e 85        	mv	a0, s3
   12dd0: 9a 65        	ld	a1, 0x180(sp)
   12dd2: ef c0 60 59  	jal	0x1f368 <__muldi3>
   12dd6: 81 44        	li	s1, 0x0
   12dd8: 2a 9a        	add	s4, s4, a0
   12dda: 95 4d        	li	s11, 0x5
   12ddc: b3 05 9b 00  	add	a1, s6, s1
   12de0: 03 a5 45 ff  	lw	a0, -0xc(a1)
   12de4: 63 5b a0 1a  	blez	a0, 0x12f9a <susan_corners+0x956>
   12de8: 33 06 99 00  	add	a2, s2, s1
   12dec: 83 26 86 fe  	lw	a3, -0x18(a2)
   12df0: 63 d5 a6 1a  	bge	a3, a0, 0x12f9a <susan_corners+0x956>
   12df4: 83 26 c6 fe  	lw	a3, -0x14(a2)
   12df8: 63 d1 a6 1a  	bge	a3, a0, 0x12f9a <susan_corners+0x956>
   12dfc: 83 26 06 ff  	lw	a3, -0x10(a2)
   12e00: 63 dd a6 18  	bge	a3, a0, 0x12f9a <susan_corners+0x956>
   12e04: 83 26 46 ff  	lw	a3, -0xc(a2)
   12e08: 63 d9 a6 18  	bge	a3, a0, 0x12f9a <susan_corners+0x956>
   12e0c: 83 26 86 ff  	lw	a3, -0x8(a2)
   12e10: 63 d5 a6 18  	bge	a3, a0, 0x12f9a <susan_corners+0x956>
   12e14: 83 26 c6 ff  	lw	a3, -0x4(a2)
   12e18: 63 d1 a6 18  	bge	a3, a0, 0x12f9a <susan_corners+0x956>
   12e1c: 10 42        	lw	a2, 0x0(a2)
   12e1e: 63 5e a6 16  	bge	a2, a0, 0x12f9a <susan_corners+0x956>
   12e22: 33 06 9d 00  	add	a2, s10, s1
   12e26: 83 26 86 fe  	lw	a3, -0x18(a2)
   12e2a: 63 d8 a6 16  	bge	a3, a0, 0x12f9a <susan_corners+0x956>
   12e2e: 83 26 c6 fe  	lw	a3, -0x14(a2)
   12e32: 63 d4 a6 16  	bge	a3, a0, 0x12f9a <susan_corners+0x956>
   12e36: 83 26 06 ff  	lw	a3, -0x10(a2)
   12e3a: 63 d0 a6 16  	bge	a3, a0, 0x12f9a <susan_corners+0x956>
   12e3e: 83 26 46 ff  	lw	a3, -0xc(a2)
   12e42: 63 dc a6 14  	bge	a3, a0, 0x12f9a <susan_corners+0x956>
   12e46: 83 26 86 ff  	lw	a3, -0x8(a2)
   12e4a: 63 d8 a6 14  	bge	a3, a0, 0x12f9a <susan_corners+0x956>
   12e4e: 83 26 c6 ff  	lw	a3, -0x4(a2)
   12e52: 63 d4 a6 14  	bge	a3, a0, 0x12f9a <susan_corners+0x956>
   12e56: 10 42        	lw	a2, 0x0(a2)
   12e58: 63 51 a6 14  	bge	a2, a0, 0x12f9a <susan_corners+0x956>
   12e5c: 16 76        	ld	a2, 0x160(sp)
   12e5e: 26 96        	add	a2, a2, s1
   12e60: 83 26 86 fe  	lw	a3, -0x18(a2)
   12e64: 63 db a6 12  	bge	a3, a0, 0x12f9a <susan_corners+0x956>
   12e68: 83 26 c6 fe  	lw	a3, -0x14(a2)
   12e6c: 63 d7 a6 12  	bge	a3, a0, 0x12f9a <susan_corners+0x956>
   12e70: 83 26 06 ff  	lw	a3, -0x10(a2)
   12e74: 63 d3 a6 12  	bge	a3, a0, 0x12f9a <susan_corners+0x956>
   12e78: 83 26 46 ff  	lw	a3, -0xc(a2)
   12e7c: 63 df a6 10  	bge	a3, a0, 0x12f9a <susan_corners+0x956>
   12e80: 83 26 86 ff  	lw	a3, -0x8(a2)
   12e84: 63 db a6 10  	bge	a3, a0, 0x12f9a <susan_corners+0x956>
   12e88: 83 26 c6 ff  	lw	a3, -0x4(a2)
   12e8c: 63 d7 a6 10  	bge	a3, a0, 0x12f9a <susan_corners+0x956>
   12e90: 10 42        	lw	a2, 0x0(a2)
   12e92: 63 54 a6 10  	bge	a2, a0, 0x12f9a <susan_corners+0x956>
   12e96: 03 a6 85 fe  	lw	a2, -0x18(a1)
   12e9a: 63 50 a6 10  	bge	a2, a0, 0x12f9a <susan_corners+0x956>
   12e9e: 03 a6 c5 fe  	lw	a2, -0x14(a1)
   12ea2: 63 5c a6 0e  	bge	a2, a0, 0x12f9a <susan_corners+0x956>
   12ea6: 03 a6 05 ff  	lw	a2, -0x10(a1)
   12eaa: 63 58 a6 0e  	bge	a2, a0, 0x12f9a <susan_corners+0x956>
   12eae: 03 a6 85 ff  	lw	a2, -0x8(a1)
   12eb2: 63 44 c5 0e  	blt	a0, a2, 0x12f9a <susan_corners+0x956>
   12eb6: 03 a6 c5 ff  	lw	a2, -0x4(a1)
   12eba: 63 40 c5 0e  	blt	a0, a2, 0x12f9a <susan_corners+0x956>
   12ebe: 8c 41        	lw	a1, 0x0(a1)
   12ec0: 63 4d b5 0c  	blt	a0, a1, 0x12f9a <susan_corners+0x956>
   12ec4: b3 85 9a 00  	add	a1, s5, s1
   12ec8: 03 a6 85 fe  	lw	a2, -0x18(a1)
   12ecc: 63 47 c5 0c  	blt	a0, a2, 0x12f9a <susan_corners+0x956>
   12ed0: 03 a6 c5 fe  	lw	a2, -0x14(a1)
   12ed4: 63 43 c5 0c  	blt	a0, a2, 0x12f9a <susan_corners+0x956>
   12ed8: 03 a6 05 ff  	lw	a2, -0x10(a1)
   12edc: 63 4f c5 0a  	blt	a0, a2, 0x12f9a <susan_corners+0x956>
   12ee0: 03 a6 45 ff  	lw	a2, -0xc(a1)
   12ee4: 63 4b c5 0a  	blt	a0, a2, 0x12f9a <susan_corners+0x956>
   12ee8: 03 a6 85 ff  	lw	a2, -0x8(a1)
   12eec: 63 47 c5 0a  	blt	a0, a2, 0x12f9a <susan_corners+0x956>
   12ef0: 03 a6 c5 ff  	lw	a2, -0x4(a1)
   12ef4: 63 43 c5 0a  	blt	a0, a2, 0x12f9a <susan_corners+0x956>
   12ef8: 8c 41        	lw	a1, 0x0(a1)
   12efa: 63 40 b5 0a  	blt	a0, a1, 0x12f9a <susan_corners+0x956>
   12efe: b3 05 9a 00  	add	a1, s4, s1
   12f02: 03 a6 85 ff  	lw	a2, -0x8(a1)
   12f06: 63 4a c5 08  	blt	a0, a2, 0x12f9a <susan_corners+0x956>
   12f0a: 03 a6 c5 ff  	lw	a2, -0x4(a1)
   12f0e: 63 46 c5 08  	blt	a0, a2, 0x12f9a <susan_corners+0x956>
   12f12: 90 41        	lw	a2, 0x0(a1)
   12f14: 63 43 c5 08  	blt	a0, a2, 0x12f9a <susan_corners+0x956>
   12f18: d0 41        	lw	a2, 0x4(a1)
   12f1a: 63 40 c5 08  	blt	a0, a2, 0x12f9a <susan_corners+0x956>
   12f1e: 90 45        	lw	a2, 0x8(a1)
   12f20: 63 4d c5 06  	blt	a0, a2, 0x12f9a <susan_corners+0x956>
   12f24: d0 45        	lw	a2, 0xc(a1)
   12f26: 63 4a c5 06  	blt	a0, a2, 0x12f9a <susan_corners+0x956>
   12f2a: 8c 49        	lw	a1, 0x10(a1)
   12f2c: 63 47 b5 06  	blt	a0, a1, 0x12f9a <susan_corners+0x956>
   12f30: b6 65        	ld	a1, 0x148(sp)
   12f32: a6 95        	add	a1, a1, s1
   12f34: 03 a6 85 ff  	lw	a2, -0x8(a1)
   12f38: 63 41 c5 06  	blt	a0, a2, 0x12f9a <susan_corners+0x956>
   12f3c: 03 a6 c5 ff  	lw	a2, -0x4(a1)
   12f40: 63 4d c5 04  	blt	a0, a2, 0x12f9a <susan_corners+0x956>
   12f44: 90 41        	lw	a2, 0x0(a1)
   12f46: 63 4a c5 04  	blt	a0, a2, 0x12f9a <susan_corners+0x956>
   12f4a: d0 41        	lw	a2, 0x4(a1)
   12f4c: 63 47 c5 04  	blt	a0, a2, 0x12f9a <susan_corners+0x956>
   12f50: 90 45        	lw	a2, 0x8(a1)
   12f52: 63 44 c5 04  	blt	a0, a2, 0x12f9a <susan_corners+0x956>
   12f56: d0 45        	lw	a2, 0xc(a1)
   12f58: 63 41 c5 04  	blt	a0, a2, 0x12f9a <susan_corners+0x956>
   12f5c: 8c 49        	lw	a1, 0x10(a1)
   12f5e: 63 4e b5 02  	blt	a0, a1, 0x12f9a <susan_corners+0x956>
   12f62: e1 45        	li	a1, 0x18
   12f64: 96 69        	ld	s3, 0x140(sp)
   12f66: 4e 85        	mv	a0, s3
   12f68: ef c0 00 40  	jal	0x1f368 <__muldi3>
   12f6c: f6 65        	ld	a1, 0x158(sp)
   12f6e: a6 95        	add	a1, a1, s1
   12f70: 8c 41        	lw	a1, 0x0(a1)
   12f72: 6a 66        	ld	a2, 0x98(sp)
   12f74: 32 95        	add	a0, a0, a2
   12f76: 4c c5        	sw	a1, 0xc(a0)
   12f78: d6 65        	ld	a1, 0x150(sp)
   12f7a: a6 95        	add	a1, a1, s1
   12f7c: 8c 41        	lw	a1, 0x0(a1)
   12f7e: 23 24 05 00  	sw	zero, 0x8(a0)
   12f82: 23 20 b5 01  	sw	s11, 0x0(a0)
   12f86: 23 22 75 01  	sw	s7, 0x4(a0)
   12f8a: 0c c9        	sw	a1, 0x10(a0)
   12f8c: 0c 80        	lbu	a1, 0x0(s0)
   12f8e: 85 29        	addiw	s3, s3, 0x1
   12f90: 4c c9        	sw	a1, 0x14(a0)
   12f92: ce e2        	sd	s3, 0x140(sp)
   12f94: 72 75        	ld	a0, 0x138(sp)
   12f96: 63 81 a9 06  	beq	s3, a0, 0x12ff8 <susan_corners+0x9b4>
   12f9a: 91 04        	addi	s1, s1, 0x4
   12f9c: 05 04        	addi	s0, s0, 0x1
   12f9e: 85 0d        	addi	s11, s11, 0x1
   12fa0: e3 9e 9c e2  	bne	s9, s1, 0x12ddc <susan_corners+0x798>
   12fa4: ae 74        	ld	s1, 0xe8(sp)
   12fa6: a9 45        	li	a1, 0xa
   12fa8: 19 a0        	j	0x12fae <susan_corners+0x96a>
   12faa: 13 8c 1b 00  	addi	s8, s7, 0x1
   12fae: e2 8b        	mv	s7, s8
   12fb0: 4e 75        	ld	a0, 0xf0(sp)
   12fb2: e3 1e ac d8  	bne	s8, a0, 0x12d4e <susan_corners+0x70a>
   12fb6: 6a 69        	ld	s2, 0x98(sp)
   12fb8: 4a 6a        	ld	s4, 0x90(sp)
   12fba: aa 69        	ld	s3, 0x88(sp)
   12fbc: 16 65        	ld	a0, 0x140(sp)
   12fbe: 29 a0        	j	0x12fc8 <susan_corners+0x984>
   12fc0: 01 45        	li	a0, 0x0
   12fc2: 6a 69        	ld	s2, 0x98(sp)
   12fc4: 4a 6a        	ld	s4, 0x90(sp)
   12fc6: aa 69        	ld	s3, 0x88(sp)
   12fc8: e1 45        	li	a1, 0x18
   12fca: ef c0 e0 39  	jal	0x1f368 <__muldi3>
   12fce: 4a 95        	add	a0, a0, s2
   12fd0: 9d 45        	li	a1, 0x7
   12fd2: 0c c5        	sw	a1, 0x8(a0)
   12fd4: 52 85        	mv	a0, s4
   12fd6: ef 00 90 68  	jal	0x13e5e <free>
   12fda: 4e 85        	mv	a0, s3
   12fdc: 07 34 81 1a  	fld	fs0, 0x1a8(sp)
   12fe0: 87 34 01 1a  	fld	fs1, 0x1a0(sp)
   12fe4: 07 39 81 19  	fld	fs2, 0x198(sp)
   12fe8: 87 39 01 19  	fld	fs3, 0x190(sp)
   12fec: 07 3a 81 18  	fld	fs4, 0x188(sp)
   12ff0: 19 61        	addi	sp, sp, 0x180
   12ff2: fe ba        	cm.pop	{ra, s0-s11}, 160
   12ff4: 6f 00 b0 66  	j	0x13e5e <free>
   12ff8: 03 b5 01 23  	ld	a0, 0x230(gp)
   12ffc: 14 6d        	ld	a3, 0x18(a0)
   12ffe: 37 f5 01 00  	lui	a0, 0x1f
   13002: 13 05 55 5f  	addi	a0, a0, 0x5f5
   13006: c9 45        	li	a1, 0x12
   13008: 05 46        	li	a2, 0x1
   1300a: ef 30 00 0d  	jal	0x160da <fwrite>
   1300e: 05 45        	li	a0, 0x1
   13010: ef d0 0f 91  	jal	0x10120 <exit>

0000000000013014 <susan_corners_quick>:
   13014: fe b8        	cm.push	{ra, s0-s11}, -160
   13016: 59 71        	addi	sp, sp, -0x70
   13018: 42 8b        	mv	s6, a6
   1301a: be 84        	mv	s1, a5
   1301c: ba 89        	mv	s3, a4
   1301e: b6 8a        	mv	s5, a3
   13020: 32 89        	mv	s2, a2
   13022: a2 af        	cm.mvsa01	s7, s0
   13024: 42 85        	mv	a0, a6
   13026: be 85        	mv	a1, a5
   13028: ef c0 00 34  	jal	0x1f368 <__muldi3>
   1302c: 01 25        	sext.w	a0, a0
   1302e: 13 16 25 00  	slli	a2, a0, 0x2
   13032: 22 85        	mv	a0, s0
   13034: 81 45        	li	a1, 0x0
   13036: ef 30 d0 51  	jal	0x16d52 <memset>
   1303a: 3d 43        	li	t1, 0xf
   1303c: 01 45        	li	a0, 0x0
   1303e: 63 48 6b 72  	blt	s6, t1, 0x1376e <susan_corners_quick+0x75a>
   13042: ce f0        	sd	s3, 0x60(sp)
   13044: 1b 05 9b ff  	addiw	a0, s6, -0x7
   13048: 2a ed        	sd	a0, 0x98(sp)
   1304a: 13 88 94 ff  	addi	a6, s1, -0x7
   1304e: 9b 85 d4 ff  	addiw	a1, s1, -0x3
   13052: 1b 86 b4 ff  	addiw	a2, s1, -0x5
   13056: 9b 86 a4 ff  	addiw	a3, s1, -0x6
   1305a: 02 18        	slli	a6, a6, 0x20
   1305c: 42 e1        	sd	a6, 0x80(sp)
   1305e: 93 59 08 02  	srli	s3, a6, 0x20
   13062: 22 e5        	sd	s0, 0x88(sp)
   13064: 13 08 c4 01  	addi	a6, s0, 0x1c
   13068: 13 95 34 00  	slli	a0, s1, 0x3
   1306c: bb 03 95 40  	subw	t2, a0, s1
   13070: 93 82 7b 00  	addi	t0, s7, 0x7
   13074: e5 19        	addi	s3, s3, -0x7
   13076: 13 97 24 00  	slli	a4, s1, 0x2
   1307a: 33 8d eb 00  	add	s10, s7, a4
   1307e: 33 05 b7 00  	add	a0, a4, a1
   13082: b3 8d ab 00  	add	s11, s7, a0
   13086: 32 95        	add	a0, a0, a2
   13088: b3 80 ab 00  	add	ra, s7, a0
   1308c: b3 87 76 01  	add	a5, a3, s7
   13090: 3e 95        	add	a0, a0, a5
   13092: 13 0c 25 01  	addi	s8, a0, 0x12
   13096: 86 06        	slli	a3, a3, 0x1
   13098: ba e8        	sd	a4, 0x50(sp)
   1309a: ba 96        	add	a3, a3, a4
   1309c: b3 87 c5 00  	add	a5, a1, a2
   130a0: de 97        	add	a5, a5, s7
   130a2: b6 97        	add	a5, a5, a3
   130a4: 13 8f 87 01  	addi	t5, a5, 0x18
   130a8: 06 06        	slli	a2, a2, 0x1
   130aa: 36 96        	add	a2, a2, a3
   130ac: b3 86 75 01  	add	a3, a1, s7
   130b0: b2 96        	add	a3, a3, a2
   130b2: 13 8e e6 01  	addi	t3, a3, 0x1e
   130b6: 86 05        	slli	a1, a1, 0x1
   130b8: de 95        	add	a1, a1, s7
   130ba: b2 95        	add	a1, a1, a2
   130bc: 93 8e 25 02  	addi	t4, a1, 0x22
   130c0: 9d 4f        	li	t6, 0x7
   130c2: 26 e9        	sd	s1, 0x90(sp)
   130c4: 63 c2 64 24  	blt	s1, t1, 0x13308 <susan_corners_quick+0x2f4>
   130c8: 81 46        	li	a3, 0x0
   130ca: 93 95 03 02  	slli	a1, t2, 0x20
   130ce: 13 da 05 02  	srli	s4, a1, 0x20
   130d2: f9 81        	srli	a1, a1, 0x1e
   130d4: b3 08 b8 00  	add	a7, a6, a1
   130d8: 16 9a        	add	s4, s4, t0
   130da: b3 05 dd 00  	add	a1, s10, a3
   130de: 33 06 da 00  	add	a2, s4, a3
   130e2: 1c 82        	lbu	a5, 0x0(a2)
   130e4: 03 c6 65 00  	lbu	a2, 0x6(a1)
   130e8: 03 c7 75 00  	lbu	a4, 0x7(a1)
   130ec: ca 97        	add	a5, a5, s2
   130ee: 33 86 c7 40  	sub	a2, a5, a2
   130f2: 10 82        	lbu	a2, 0x0(a2)
   130f4: 33 87 e7 40  	sub	a4, a5, a4
   130f8: 18 83        	lbu	a4, 0x0(a4)
   130fa: 83 c5 85 00  	lbu	a1, 0x8(a1)
   130fe: b3 0c e6 00  	add	s9, a2, a4
   13102: 33 87 dd 00  	add	a4, s11, a3
   13106: 03 45 87 00  	lbu	a0, 0x8(a4)
   1310a: b3 85 b7 40  	sub	a1, a5, a1
   1310e: 8c 81        	lbu	a1, 0x0(a1)
   13110: 03 44 97 00  	lbu	s0, 0x9(a4)
   13114: 33 85 a7 40  	sub	a0, a5, a0
   13118: 08 81        	lbu	a0, 0x0(a0)
   1311a: 83 44 a7 00  	lbu	s1, 0xa(a4)
   1311e: 33 84 87 40  	sub	s0, a5, s0
   13122: 03 46 b7 00  	lbu	a2, 0xb(a4)
   13126: 00 80        	lbu	s0, 0x0(s0)
   13128: b3 84 97 40  	sub	s1, a5, s1
   1312c: 84 80        	lbu	s1, 0x0(s1)
   1312e: 33 86 c7 40  	sub	a2, a5, a2
   13132: 10 82        	lbu	a2, 0x0(a2)
   13134: 2e 95        	add	a0, a0, a1
   13136: 66 95        	add	a0, a0, s9
   13138: 26 94        	add	s0, s0, s1
   1313a: 22 96        	add	a2, a2, s0
   1313c: 83 45 c7 00  	lbu	a1, 0xc(a4)
   13140: 32 95        	add	a0, a0, a2
   13142: 33 86 d0 00  	add	a2, ra, a3
   13146: 03 47 c6 00  	lbu	a4, 0xc(a2)
   1314a: b3 85 b7 40  	sub	a1, a5, a1
   1314e: 8c 81        	lbu	a1, 0x0(a1)
   13150: 03 44 d6 00  	lbu	s0, 0xd(a2)
   13154: 33 87 e7 40  	sub	a4, a5, a4
   13158: 83 44 e6 00  	lbu	s1, 0xe(a2)
   1315c: 18 83        	lbu	a4, 0x0(a4)
   1315e: 33 84 87 40  	sub	s0, a5, s0
   13162: 00 80        	lbu	s0, 0x0(s0)
   13164: b3 84 97 40  	sub	s1, a5, s1
   13168: 84 80        	lbu	s1, 0x0(s1)
   1316a: ba 95        	add	a1, a1, a4
   1316c: 03 47 f6 00  	lbu	a4, 0xf(a2)
   13170: a2 95        	add	a1, a1, s0
   13172: a6 95        	add	a1, a1, s1
   13174: 03 44 06 01  	lbu	s0, 0x10(a2)
   13178: 33 87 e7 40  	sub	a4, a5, a4
   1317c: 83 44 16 01  	lbu	s1, 0x11(a2)
   13180: 18 83        	lbu	a4, 0x0(a4)
   13182: 33 84 87 40  	sub	s0, a5, s0
   13186: 00 80        	lbu	s0, 0x0(s0)
   13188: b3 84 97 40  	sub	s1, a5, s1
   1318c: 84 80        	lbu	s1, 0x0(s1)
   1318e: b3 0c b5 00  	add	s9, a0, a1
   13192: 22 97        	add	a4, a4, s0
   13194: 03 46 26 01  	lbu	a2, 0x12(a2)
   13198: 26 97        	add	a4, a4, s1
   1319a: b3 05 dc 00  	add	a1, s8, a3
   1319e: 80 81        	lbu	s0, 0x0(a1)
   131a0: 33 86 c7 40  	sub	a2, a5, a2
   131a4: 10 82        	lbu	a2, 0x0(a2)
   131a6: c4 81        	lbu	s1, 0x1(a1)
   131a8: 33 84 87 40  	sub	s0, a5, s0
   131ac: a8 81        	lbu	a0, 0x2(a1)
   131ae: 00 80        	lbu	s0, 0x0(s0)
   131b0: b3 84 97 40  	sub	s1, a5, s1
   131b4: 84 80        	lbu	s1, 0x0(s1)
   131b6: 33 85 a7 40  	sub	a0, a5, a0
   131ba: 08 81        	lbu	a0, 0x0(a0)
   131bc: 3a 96        	add	a2, a2, a4
   131be: 22 96        	add	a2, a2, s0
   131c0: 66 96        	add	a2, a2, s9
   131c2: 26 95        	add	a0, a0, s1
   131c4: 32 95        	add	a0, a0, a2
   131c6: 1b 06 45 06  	addiw	a2, a0, 0x64
   131ca: 63 5b 56 13  	bge	a2, s5, 0x13300 <susan_corners_quick+0x2ec>
   131ce: 03 c5 45 00  	lbu	a0, 0x4(a1)
   131d2: 33 85 a7 40  	sub	a0, a5, a0
   131d6: 08 81        	lbu	a0, 0x0(a0)
   131d8: 29 9e        	addw	a2, a2, a0
   131da: 63 73 56 13  	bgeu	a2, s5, 0x13300 <susan_corners_quick+0x2ec>
   131de: 03 c5 55 00  	lbu	a0, 0x5(a1)
   131e2: 33 85 a7 40  	sub	a0, a5, a0
   131e6: 08 81        	lbu	a0, 0x0(a0)
   131e8: 29 9e        	addw	a2, a2, a0
   131ea: 63 7b 56 11  	bgeu	a2, s5, 0x13300 <susan_corners_quick+0x2ec>
   131ee: 03 c5 65 00  	lbu	a0, 0x6(a1)
   131f2: 33 85 a7 40  	sub	a0, a5, a0
   131f6: 0c 81        	lbu	a1, 0x0(a0)
   131f8: b1 9d        	addw	a1, a1, a2
   131fa: 63 f3 55 11  	bgeu	a1, s5, 0x13300 <susan_corners_quick+0x2ec>
   131fe: b3 0c df 00  	add	s9, t5, a3
   13202: 03 c5 0c 00  	lbu	a0, 0x0(s9)
   13206: 33 85 a7 40  	sub	a0, a5, a0
   1320a: 08 81        	lbu	a0, 0x0(a0)
   1320c: a9 9d        	addw	a1, a1, a0
   1320e: 63 f9 55 0f  	bgeu	a1, s5, 0x13300 <susan_corners_quick+0x2ec>
   13212: 03 c5 1c 00  	lbu	a0, 0x1(s9)
   13216: 33 85 a7 40  	sub	a0, a5, a0
   1321a: 08 81        	lbu	a0, 0x0(a0)
   1321c: a9 9d        	addw	a1, a1, a0
   1321e: 63 f1 55 0f  	bgeu	a1, s5, 0x13300 <susan_corners_quick+0x2ec>
   13222: 03 c5 2c 00  	lbu	a0, 0x2(s9)
   13226: 33 85 a7 40  	sub	a0, a5, a0
   1322a: 08 81        	lbu	a0, 0x0(a0)
   1322c: a9 9d        	addw	a1, a1, a0
   1322e: 63 f9 55 0d  	bgeu	a1, s5, 0x13300 <susan_corners_quick+0x2ec>
   13232: 03 c5 3c 00  	lbu	a0, 0x3(s9)
   13236: 33 85 a7 40  	sub	a0, a5, a0
   1323a: 08 81        	lbu	a0, 0x0(a0)
   1323c: a9 9d        	addw	a1, a1, a0
   1323e: 63 f1 55 0d  	bgeu	a1, s5, 0x13300 <susan_corners_quick+0x2ec>
   13242: 03 c5 4c 00  	lbu	a0, 0x4(s9)
   13246: 33 85 a7 40  	sub	a0, a5, a0
   1324a: 08 81        	lbu	a0, 0x0(a0)
   1324c: a9 9d        	addw	a1, a1, a0
   1324e: 63 f9 55 0b  	bgeu	a1, s5, 0x13300 <susan_corners_quick+0x2ec>
   13252: 03 c5 5c 00  	lbu	a0, 0x5(s9)
   13256: 33 85 a7 40  	sub	a0, a5, a0
   1325a: 08 81        	lbu	a0, 0x0(a0)
   1325c: a9 9d        	addw	a1, a1, a0
   1325e: 63 f1 55 0b  	bgeu	a1, s5, 0x13300 <susan_corners_quick+0x2ec>
   13262: 03 c5 6c 00  	lbu	a0, 0x6(s9)
   13266: 33 85 a7 40  	sub	a0, a5, a0
   1326a: 08 81        	lbu	a0, 0x0(a0)
   1326c: a9 9d        	addw	a1, a1, a0
   1326e: 63 f9 55 09  	bgeu	a1, s5, 0x13300 <susan_corners_quick+0x2ec>
   13272: b3 0c de 00  	add	s9, t3, a3
   13276: 03 c5 0c 00  	lbu	a0, 0x0(s9)
   1327a: 33 85 a7 40  	sub	a0, a5, a0
   1327e: 08 81        	lbu	a0, 0x0(a0)
   13280: a9 9d        	addw	a1, a1, a0
   13282: 63 ff 55 07  	bgeu	a1, s5, 0x13300 <susan_corners_quick+0x2ec>
   13286: 03 c5 1c 00  	lbu	a0, 0x1(s9)
   1328a: 33 85 a7 40  	sub	a0, a5, a0
   1328e: 08 81        	lbu	a0, 0x0(a0)
   13290: a9 9d        	addw	a1, a1, a0
   13292: 63 f7 55 07  	bgeu	a1, s5, 0x13300 <susan_corners_quick+0x2ec>
   13296: 03 c5 2c 00  	lbu	a0, 0x2(s9)
   1329a: 33 85 a7 40  	sub	a0, a5, a0
   1329e: 08 81        	lbu	a0, 0x0(a0)
   132a0: a9 9d        	addw	a1, a1, a0
   132a2: 63 ff 55 05  	bgeu	a1, s5, 0x13300 <susan_corners_quick+0x2ec>
   132a6: 03 c5 3c 00  	lbu	a0, 0x3(s9)
   132aa: 33 85 a7 40  	sub	a0, a5, a0
   132ae: 08 81        	lbu	a0, 0x0(a0)
   132b0: a9 9d        	addw	a1, a1, a0
   132b2: 63 f7 55 05  	bgeu	a1, s5, 0x13300 <susan_corners_quick+0x2ec>
   132b6: 03 c5 4c 00  	lbu	a0, 0x4(s9)
   132ba: 33 85 a7 40  	sub	a0, a5, a0
   132be: 08 81        	lbu	a0, 0x0(a0)
   132c0: a9 9d        	addw	a1, a1, a0
   132c2: 63 ff 55 03  	bgeu	a1, s5, 0x13300 <susan_corners_quick+0x2ec>
   132c6: b3 8c de 00  	add	s9, t4, a3
   132ca: 03 c5 0c 00  	lbu	a0, 0x0(s9)
   132ce: 33 85 a7 40  	sub	a0, a5, a0
   132d2: 08 81        	lbu	a0, 0x0(a0)
   132d4: a9 9d        	addw	a1, a1, a0
   132d6: 63 f5 55 03  	bgeu	a1, s5, 0x13300 <susan_corners_quick+0x2ec>
   132da: 03 c5 1c 00  	lbu	a0, 0x1(s9)
   132de: 33 85 a7 40  	sub	a0, a5, a0
   132e2: 08 81        	lbu	a0, 0x0(a0)
   132e4: a9 9d        	addw	a1, a1, a0
   132e6: 63 fd 55 01  	bgeu	a1, s5, 0x13300 <susan_corners_quick+0x2ec>
   132ea: 03 c5 2c 00  	lbu	a0, 0x2(s9)
   132ee: 89 8f        	sub	a5, a5, a0
   132f0: 88 83        	lbu	a0, 0x0(a5)
   132f2: a9 9d        	addw	a1, a1, a0
   132f4: 63 f6 55 01  	bgeu	a1, s5, 0x13300 <susan_corners_quick+0x2ec>
   132f8: 3b 85 ba 40  	subw	a0, s5, a1
   132fc: 23 a0 a8 00  	sw	a0, 0x0(a7)
   13300: 85 06        	addi	a3, a3, 0x1
   13302: 91 08        	addi	a7, a7, 0x4
   13304: e3 9b d9 dc  	bne	s3, a3, 0x130da <susan_corners_quick+0xc6>
   13308: 85 0f        	addi	t6, t6, 0x1
   1330a: ca 64        	ld	s1, 0x90(sp)
   1330c: a6 93        	add	t2, t2, s1
   1330e: 26 9d        	add	s10, s10, s1
   13310: a6 9d        	add	s11, s11, s1
   13312: a6 90        	add	ra, ra, s1
   13314: 26 9c        	add	s8, s8, s1
   13316: 26 9f        	add	t5, t5, s1
   13318: 26 9e        	add	t3, t3, s1
   1331a: a6 9e        	add	t4, t4, s1
   1331c: 6a 65        	ld	a0, 0x98(sp)
   1331e: e3 93 af da  	bne	t6, a0, 0x130c4 <susan_corners_quick+0xb0>
   13322: 3d 45        	li	a0, 0xf
   13324: 63 43 ab 44  	blt	s6, a0, 0x1376a <susan_corners_quick+0x756>
   13328: 02 ec        	sd	zero, 0x18(sp)
   1332a: 0a 65        	ld	a0, 0x80(sp)
   1332c: 13 5b e5 01  	srli	s6, a0, 0x1e
   13330: 11 1b        	addi	s6, s6, -0x1c
   13332: a5 0b        	addi	s7, s7, 0x9
   13334: de e4        	sd	s7, 0x48(sp)
   13336: aa 65        	ld	a1, 0x88(sp)
   13338: 13 85 85 02  	addi	a0, a1, 0x28
   1333c: aa e0        	sd	a0, 0x40(sp)
   1333e: 13 85 45 01  	addi	a0, a1, 0x14
   13342: 2a fc        	sd	a0, 0x38(sp)
   13344: 1d 44        	li	s0, 0x7
   13346: b9 45        	li	a1, 0xe
   13348: 11 65        	lui	a0, 0x4
   1334a: 1b 05 85 a9  	addiw	a0, a0, -0x568
   1334e: 2a e8        	sd	a0, 0x10(sp)
   13350: 86 79        	ld	s3, 0x60(sp)
   13352: 63 df 95 3e  	bge	a1, s1, 0x13750 <susan_corners_quick+0x73c>
   13356: 66 ac        	cm.mva01s	s0, s1
   13358: ef c0 00 01  	jal	0x1f368 <__muldi3>
   1335c: 2a 8d        	mv	s10, a0
   1335e: 13 05 d4 ff  	addi	a0, s0, -0x3
   13362: 2a e1        	sd	a0, 0x80(sp)
   13364: 93 0d e4 ff  	addi	s11, s0, -0x2
   13368: 6e 85        	mv	a0, s11
   1336a: a6 85        	mv	a1, s1
   1336c: ef b0 d0 7f  	jal	0x1f368 <__muldi3>
   13370: aa 8c        	mv	s9, a0
   13372: 13 09 f4 ff  	addi	s2, s0, -0x1
   13376: 66 ad        	cm.mva01s	s2, s1
   13378: ef b0 10 7f  	jal	0x1f368 <__muldi3>
   1337c: aa f4        	sd	a0, 0x68(sp)
   1337e: 93 0b 14 00  	addi	s7, s0, 0x1
   13382: e6 af        	cm.mva01s	s7, s1
   13384: ef b0 50 7e  	jal	0x1f368 <__muldi3>
   13388: 2a e5        	sd	a0, 0x88(sp)
   1338a: 13 05 24 00  	addi	a0, s0, 0x2
   1338e: aa fc        	sd	a0, 0x78(sp)
   13390: a6 85        	mv	a1, s1
   13392: ef b0 70 7d  	jal	0x1f368 <__muldi3>
   13396: aa f8        	sd	a0, 0x70(sp)
   13398: 93 0a 34 00  	addi	s5, s0, 0x3
   1339c: 26 6a        	ld	s4, 0x48(sp)
   1339e: 52 9d        	add	s10, s10, s4
   133a0: c6 64        	ld	s1, 0x50(sp)
   133a2: e2 ac        	cm.mva01s	s1, s0
   133a4: 22 f4        	sd	s0, 0x28(sp)
   133a6: ef b0 30 7c  	jal	0x1f368 <__muldi3>
   133aa: 86 69        	ld	s3, 0x40(sp)
   133ac: 33 8c a9 00  	add	s8, s3, a0
   133b0: d2 9c        	add	s9, s9, s4
   133b2: 26 85        	mv	a0, s1
   133b4: ee 85        	mv	a1, s11
   133b6: ef b0 30 7b  	jal	0x1f368 <__muldi3>
   133ba: 62 74        	ld	s0, 0x38(sp)
   133bc: 22 95        	add	a0, a0, s0
   133be: aa ec        	sd	a0, 0x58(sp)
   133c0: f6 ac        	cm.mva01s	s1, s5
   133c2: ef b0 70 7a  	jal	0x1f368 <__muldi3>
   133c6: 22 95        	add	a0, a0, s0
   133c8: 2a f0        	sd	a0, 0x20(sp)
   133ca: a6 7d        	ld	s11, 0x68(sp)
   133cc: d2 9d        	add	s11, s11, s4
   133ce: ea ac        	cm.mva01s	s1, s2
   133d0: ef b0 90 79  	jal	0x1f368 <__muldi3>
   133d4: 22 95        	add	a0, a0, s0
   133d6: aa f4        	sd	a0, 0x68(sp)
   133d8: 2a 69        	ld	s2, 0x88(sp)
   133da: 52 99        	add	s2, s2, s4
   133dc: fe ac        	cm.mva01s	s1, s7
   133de: 5e e5        	sd	s7, 0x88(sp)
   133e0: ef b0 90 78  	jal	0x1f368 <__muldi3>
   133e4: 4e 95        	add	a0, a0, s3
   133e6: 2a f8        	sd	a0, 0x30(sp)
   133e8: 46 75        	ld	a0, 0x70(sp)
   133ea: 2a 9a        	add	s4, s4, a0
   133ec: 26 85        	mv	a0, s1
   133ee: e6 75        	ld	a1, 0x78(sp)
   133f0: ef b0 90 77  	jal	0x1f368 <__muldi3>
   133f4: aa 99        	add	s3, s3, a0
   133f6: 26 85        	mv	a0, s1
   133f8: 8a 65        	ld	a1, 0x80(sp)
   133fa: ef b0 f0 76  	jal	0x1f368 <__muldi3>
   133fe: 81 44        	li	s1, 0x0
   13400: b3 0a a4 00  	add	s5, s0, a0
   13404: 9d 4b        	li	s7, 0x7
   13406: b3 05 9c 00  	add	a1, s8, s1
   1340a: 03 a5 45 ff  	lw	a0, -0xc(a1)
   1340e: 63 55 a0 16  	blez	a0, 0x13578 <susan_corners_quick+0x564>
   13412: 33 86 9a 00  	add	a2, s5, s1
   13416: 83 26 c6 ff  	lw	a3, -0x4(a2)
   1341a: 63 df a6 14  	bge	a3, a0, 0x13578 <susan_corners_quick+0x564>
   1341e: 14 42        	lw	a3, 0x0(a2)
   13420: 63 dc a6 14  	bge	a3, a0, 0x13578 <susan_corners_quick+0x564>
   13424: 54 42        	lw	a3, 0x4(a2)
   13426: 63 d9 a6 14  	bge	a3, a0, 0x13578 <susan_corners_quick+0x564>
   1342a: 14 46        	lw	a3, 0x8(a2)
   1342c: 63 d6 a6 14  	bge	a3, a0, 0x13578 <susan_corners_quick+0x564>
   13430: 54 46        	lw	a3, 0xc(a2)
   13432: 63 d3 a6 14  	bge	a3, a0, 0x13578 <susan_corners_quick+0x564>
   13436: 14 4a        	lw	a3, 0x10(a2)
   13438: 63 d0 a6 14  	bge	a3, a0, 0x13578 <susan_corners_quick+0x564>
   1343c: 50 4a        	lw	a2, 0x14(a2)
   1343e: 63 5d a6 12  	bge	a2, a0, 0x13578 <susan_corners_quick+0x564>
   13442: 66 66        	ld	a2, 0x58(sp)
   13444: 26 96        	add	a2, a2, s1
   13446: 83 26 c6 ff  	lw	a3, -0x4(a2)
   1344a: 63 d7 a6 12  	bge	a3, a0, 0x13578 <susan_corners_quick+0x564>
   1344e: 14 42        	lw	a3, 0x0(a2)
   13450: 63 d4 a6 12  	bge	a3, a0, 0x13578 <susan_corners_quick+0x564>
   13454: 54 42        	lw	a3, 0x4(a2)
   13456: 63 d1 a6 12  	bge	a3, a0, 0x13578 <susan_corners_quick+0x564>
   1345a: 14 46        	lw	a3, 0x8(a2)
   1345c: 63 de a6 10  	bge	a3, a0, 0x13578 <susan_corners_quick+0x564>
   13460: 54 46        	lw	a3, 0xc(a2)
   13462: 63 db a6 10  	bge	a3, a0, 0x13578 <susan_corners_quick+0x564>
   13466: 14 4a        	lw	a3, 0x10(a2)
   13468: 63 d8 a6 10  	bge	a3, a0, 0x13578 <susan_corners_quick+0x564>
   1346c: 50 4a        	lw	a2, 0x14(a2)
   1346e: 63 55 a6 10  	bge	a2, a0, 0x13578 <susan_corners_quick+0x564>
   13472: 26 76        	ld	a2, 0x68(sp)
   13474: 26 96        	add	a2, a2, s1
   13476: 83 26 c6 ff  	lw	a3, -0x4(a2)
   1347a: 63 df a6 0e  	bge	a3, a0, 0x13578 <susan_corners_quick+0x564>
   1347e: 14 42        	lw	a3, 0x0(a2)
   13480: 63 dc a6 0e  	bge	a3, a0, 0x13578 <susan_corners_quick+0x564>
   13484: 54 42        	lw	a3, 0x4(a2)
   13486: 63 d9 a6 0e  	bge	a3, a0, 0x13578 <susan_corners_quick+0x564>
   1348a: 14 46        	lw	a3, 0x8(a2)
   1348c: 63 d6 a6 0e  	bge	a3, a0, 0x13578 <susan_corners_quick+0x564>
   13490: 54 46        	lw	a3, 0xc(a2)
   13492: 63 d3 a6 0e  	bge	a3, a0, 0x13578 <susan_corners_quick+0x564>
   13496: 14 4a        	lw	a3, 0x10(a2)
   13498: 63 d0 a6 0e  	bge	a3, a0, 0x13578 <susan_corners_quick+0x564>
   1349c: 4e 84        	mv	s0, s3
   1349e: 50 4a        	lw	a2, 0x14(a2)
   134a0: 63 5b a6 0c  	bge	a2, a0, 0x13576 <susan_corners_quick+0x562>
   134a4: 03 a6 85 fe  	lw	a2, -0x18(a1)
   134a8: 63 57 a6 0c  	bge	a2, a0, 0x13576 <susan_corners_quick+0x562>
   134ac: 03 a6 c5 fe  	lw	a2, -0x14(a1)
   134b0: 63 53 a6 0c  	bge	a2, a0, 0x13576 <susan_corners_quick+0x562>
   134b4: 03 a6 05 ff  	lw	a2, -0x10(a1)
   134b8: 63 5f a6 0a  	bge	a2, a0, 0x13576 <susan_corners_quick+0x562>
   134bc: 03 a6 85 ff  	lw	a2, -0x8(a1)
   134c0: 63 4b c5 0a  	blt	a0, a2, 0x13576 <susan_corners_quick+0x562>
   134c4: 03 a6 c5 ff  	lw	a2, -0x4(a1)
   134c8: 63 47 c5 0a  	blt	a0, a2, 0x13576 <susan_corners_quick+0x562>
   134cc: 8c 41        	lw	a1, 0x0(a1)
   134ce: 63 44 b5 0a  	blt	a0, a1, 0x13576 <susan_corners_quick+0x562>
   134d2: c2 75        	ld	a1, 0x30(sp)
   134d4: a6 95        	add	a1, a1, s1
   134d6: 03 a6 85 fe  	lw	a2, -0x18(a1)
   134da: 63 4e c5 08  	blt	a0, a2, 0x13576 <susan_corners_quick+0x562>
   134de: 03 a6 c5 fe  	lw	a2, -0x14(a1)
   134e2: 63 4a c5 08  	blt	a0, a2, 0x13576 <susan_corners_quick+0x562>
   134e6: 03 a6 05 ff  	lw	a2, -0x10(a1)
   134ea: 63 46 c5 08  	blt	a0, a2, 0x13576 <susan_corners_quick+0x562>
   134ee: 03 a6 45 ff  	lw	a2, -0xc(a1)
   134f2: 63 42 c5 08  	blt	a0, a2, 0x13576 <susan_corners_quick+0x562>
   134f6: 03 a6 85 ff  	lw	a2, -0x8(a1)
   134fa: 63 4e c5 06  	blt	a0, a2, 0x13576 <susan_corners_quick+0x562>
   134fe: 03 a6 c5 ff  	lw	a2, -0x4(a1)
   13502: 63 4a c5 06  	blt	a0, a2, 0x13576 <susan_corners_quick+0x562>
   13506: 8c 41        	lw	a1, 0x0(a1)
   13508: 63 47 b5 06  	blt	a0, a1, 0x13576 <susan_corners_quick+0x562>
   1350c: b3 05 94 00  	add	a1, s0, s1
   13510: 03 a6 85 fe  	lw	a2, -0x18(a1)
   13514: 63 41 c5 06  	blt	a0, a2, 0x13576 <susan_corners_quick+0x562>
   13518: 03 a6 c5 fe  	lw	a2, -0x14(a1)
   1351c: 63 4d c5 04  	blt	a0, a2, 0x13576 <susan_corners_quick+0x562>
   13520: 03 a6 05 ff  	lw	a2, -0x10(a1)
   13524: 63 49 c5 04  	blt	a0, a2, 0x13576 <susan_corners_quick+0x562>
   13528: 03 a6 45 ff  	lw	a2, -0xc(a1)
   1352c: 63 45 c5 04  	blt	a0, a2, 0x13576 <susan_corners_quick+0x562>
   13530: 03 a6 85 ff  	lw	a2, -0x8(a1)
   13534: 63 41 c5 04  	blt	a0, a2, 0x13576 <susan_corners_quick+0x562>
   13538: 03 a6 c5 ff  	lw	a2, -0x4(a1)
   1353c: 63 4d c5 02  	blt	a0, a2, 0x13576 <susan_corners_quick+0x562>
   13540: 8c 41        	lw	a1, 0x0(a1)
   13542: 63 4a b5 02  	blt	a0, a1, 0x13576 <susan_corners_quick+0x562>
   13546: 82 75        	ld	a1, 0x20(sp)
   13548: a6 95        	add	a1, a1, s1
   1354a: 03 a6 c5 ff  	lw	a2, -0x4(a1)
   1354e: 63 44 c5 02  	blt	a0, a2, 0x13576 <susan_corners_quick+0x562>
   13552: 90 41        	lw	a2, 0x0(a1)
   13554: 63 41 c5 02  	blt	a0, a2, 0x13576 <susan_corners_quick+0x562>
   13558: d0 41        	lw	a2, 0x4(a1)
   1355a: 63 4e c5 00  	blt	a0, a2, 0x13576 <susan_corners_quick+0x562>
   1355e: 90 45        	lw	a2, 0x8(a1)
   13560: 63 4b c5 00  	blt	a0, a2, 0x13576 <susan_corners_quick+0x562>
   13564: d0 45        	lw	a2, 0xc(a1)
   13566: 63 48 c5 00  	blt	a0, a2, 0x13576 <susan_corners_quick+0x562>
   1356a: 90 49        	lw	a2, 0x10(a1)
   1356c: 63 45 c5 00  	blt	a0, a2, 0x13576 <susan_corners_quick+0x562>
   13570: cc 49        	lw	a1, 0x14(a1)
   13572: 63 5d b5 00  	bge	a0, a1, 0x1358c <susan_corners_quick+0x578>
   13576: a2 89        	mv	s3, s0
   13578: 91 04        	addi	s1, s1, 0x4
   1357a: 05 0d        	addi	s10, s10, 0x1
   1357c: 85 0c        	addi	s9, s9, 0x1
   1357e: 85 0d        	addi	s11, s11, 0x1
   13580: 05 09        	addi	s2, s2, 0x1
   13582: 05 0a        	addi	s4, s4, 0x1
   13584: 85 0b        	addi	s7, s7, 0x1
   13586: e3 10 9b e8  	bne	s6, s1, 0x13406 <susan_corners_quick+0x3f2>
   1358a: f1 a2        	j	0x13756 <susan_corners_quick+0x742>
   1358c: e1 45        	li	a1, 0x18
   1358e: 62 65        	ld	a0, 0x18(sp)
   13590: ef b0 90 5d  	jal	0x1f368 <__muldi3>
   13594: 86 75        	ld	a1, 0x60(sp)
   13596: aa 95        	add	a1, a1, a0
   13598: 23 a4 05 00  	sw	zero, 0x8(a1)
   1359c: 23 a0 75 01  	sw	s7, 0x0(a1)
   135a0: 22 75        	ld	a0, 0x28(sp)
   135a2: c8 c1        	sw	a0, 0x4(a1)
   135a4: ae 89        	mv	s3, a1
   135a6: 2e e1        	sd	a1, 0x80(sp)
   135a8: 03 c5 cc ff  	lbu	a0, -0x4(s9)
   135ac: 83 c5 dc ff  	lbu	a1, -0x3(s9)
   135b0: 2e 95        	add	a0, a0, a1
   135b2: 83 c5 ec ff  	lbu	a1, -0x2(s9)
   135b6: 03 c6 fc ff  	lbu	a2, -0x1(s9)
   135ba: 83 c6 0c 00  	lbu	a3, 0x0(s9)
   135be: 03 c7 cd ff  	lbu	a4, -0x4(s11)
   135c2: 83 c7 dd ff  	lbu	a5, -0x3(s11)
   135c6: b2 95        	add	a1, a1, a2
   135c8: 2e 95        	add	a0, a0, a1
   135ca: ba 96        	add	a3, a3, a4
   135cc: be 96        	add	a3, a3, a5
   135ce: 83 c5 ed ff  	lbu	a1, -0x2(s11)
   135d2: 03 c6 fd ff  	lbu	a2, -0x1(s11)
   135d6: 03 c7 0d 00  	lbu	a4, 0x0(s11)
   135da: 83 47 cd ff  	lbu	a5, -0x4(s10)
   135de: 36 95        	add	a0, a0, a3
   135e0: b2 95        	add	a1, a1, a2
   135e2: ba 95        	add	a1, a1, a4
   135e4: be 95        	add	a1, a1, a5
   135e6: 2e 95        	add	a0, a0, a1
   135e8: 83 45 dd ff  	lbu	a1, -0x3(s10)
   135ec: 03 46 ed ff  	lbu	a2, -0x2(s10)
   135f0: 83 46 fd ff  	lbu	a3, -0x1(s10)
   135f4: 03 47 0d 00  	lbu	a4, 0x0(s10)
   135f8: 83 47 c9 ff  	lbu	a5, -0x4(s2)
   135fc: b2 95        	add	a1, a1, a2
   135fe: b6 95        	add	a1, a1, a3
   13600: ba 95        	add	a1, a1, a4
   13602: be 95        	add	a1, a1, a5
   13604: 2e 95        	add	a0, a0, a1
   13606: 83 45 d9 ff  	lbu	a1, -0x3(s2)
   1360a: 03 46 e9 ff  	lbu	a2, -0x2(s2)
   1360e: 83 46 f9 ff  	lbu	a3, -0x1(s2)
   13612: 03 47 09 00  	lbu	a4, 0x0(s2)
   13616: 83 47 ca ff  	lbu	a5, -0x4(s4)
   1361a: b2 95        	add	a1, a1, a2
   1361c: b6 95        	add	a1, a1, a3
   1361e: ba 95        	add	a1, a1, a4
   13620: be 95        	add	a1, a1, a5
   13622: 03 46 da ff  	lbu	a2, -0x3(s4)
   13626: 83 46 ea ff  	lbu	a3, -0x2(s4)
   1362a: 03 47 fa ff  	lbu	a4, -0x1(s4)
   1362e: 83 47 0a 00  	lbu	a5, 0x0(s4)
   13632: b2 95        	add	a1, a1, a2
   13634: 2e 95        	add	a0, a0, a1
   13636: ba 96        	add	a3, a3, a4
   13638: be 96        	add	a3, a3, a5
   1363a: 36 95        	add	a0, a0, a3
   1363c: 42 15        	slli	a0, a0, 0x30
   1363e: 41 91        	srli	a0, a0, 0x30
   13640: e5 45        	li	a1, 0x19
   13642: ef b0 f0 56  	jal	0x1f3b0 <__udivdi3>
   13646: 23 aa a9 00  	sw	a0, 0x14(s3)
   1364a: 83 c3 0c 00  	lbu	t2, 0x0(s9)
   1364e: 03 c5 0d 00  	lbu	a0, 0x0(s11)
   13652: aa fc        	sd	a0, 0x78(sp)
   13654: 03 46 0d 00  	lbu	a2, 0x0(s10)
   13658: 83 45 09 00  	lbu	a1, 0x0(s2)
   1365c: ae f8        	sd	a1, 0x70(sp)
   1365e: 03 4e 0a 00  	lbu	t3, 0x0(s4)
   13662: 03 cf cc ff  	lbu	t5, -0x4(s9)
   13666: 03 c7 cd ff  	lbu	a4, -0x4(s11)
   1366a: 3a e4        	sd	a4, 0x8(sp)
   1366c: 83 46 cd ff  	lbu	a3, -0x4(s10)
   13670: 03 43 c9 ff  	lbu	t1, -0x4(s2)
   13674: 83 4f ca ff  	lbu	t6, -0x4(s4)
   13678: 1e 95        	add	a0, a0, t2
   1367a: 2e 96        	add	a2, a2, a1
   1367c: 32 95        	add	a0, a0, a2
   1367e: 72 95        	add	a0, a0, t3
   13680: 33 06 ef 00  	add	a2, t5, a4
   13684: 9a 96        	add	a3, a3, t1
   13686: 36 96        	add	a2, a2, a3
   13688: 7e 96        	add	a2, a2, t6
   1368a: 3b 08 c5 40  	subw	a6, a0, a2
   1368e: 03 c7 fc ff  	lbu	a4, -0x1(s9)
   13692: 83 ce fd ff  	lbu	t4, -0x1(s11)
   13696: 83 48 fd ff  	lbu	a7, -0x1(s10)
   1369a: 83 49 f9 ff  	lbu	s3, -0x1(s2)
   1369e: 83 47 fa ff  	lbu	a5, -0x1(s4)
   136a2: 83 c5 dc ff  	lbu	a1, -0x3(s9)
   136a6: 83 c0 dd ff  	lbu	ra, -0x3(s11)
   136aa: 83 46 dd ff  	lbu	a3, -0x3(s10)
   136ae: 83 42 d9 ff  	lbu	t0, -0x3(s2)
   136b2: 03 45 da ff  	lbu	a0, -0x3(s4)
   136b6: 06 08        	slli	a6, a6, 0x1
   136b8: 33 86 ee 00  	add	a2, t4, a4
   136bc: 46 96        	add	a2, a2, a7
   136be: 4e 96        	add	a2, a2, s3
   136c0: b3 08 f6 00  	add	a7, a2, a5
   136c4: 33 86 15 00  	add	a2, a1, ra
   136c8: 96 96        	add	a3, a3, t0
   136ca: 36 96        	add	a2, a2, a3
   136cc: 2a 96        	add	a2, a2, a0
   136ce: 3b 86 c8 40  	subw	a2, a7, a2
   136d2: 32 98        	add	a6, a6, a2
   136d4: 83 46 ea ff  	lbu	a3, -0x2(s4)
   136d8: 03 c6 ec ff  	lbu	a2, -0x2(s9)
   136dc: fa 93        	add	t2, t2, t5
   136de: 7e 9e        	add	t3, t3, t6
   136e0: f2 97        	add	a5, a5, t3
   136e2: ba 95        	add	a1, a1, a4
   136e4: 9e 95        	add	a1, a1, t2
   136e6: 8d 9f        	subw	a5, a5, a1
   136e8: 36 95        	add	a0, a0, a3
   136ea: 11 9d        	subw	a0, a0, a2
   136ec: 3e 95        	add	a0, a0, a5
   136ee: 83 45 e9 ff  	lbu	a1, -0x2(s2)
   136f2: 03 c6 ed ff  	lbu	a2, -0x2(s11)
   136f6: 06 05        	slli	a0, a0, 0x1
   136f8: e6 76        	ld	a3, 0x78(sp)
   136fa: 22 67        	ld	a4, 0x8(sp)
   136fc: ba 96        	add	a3, a3, a4
   136fe: 46 77        	ld	a4, 0x70(sp)
   13700: 3a 93        	add	t1, t1, a4
   13702: 4e 93        	add	t1, t1, s3
   13704: 86 9e        	add	t4, t4, ra
   13706: f6 96        	add	a3, a3, t4
   13708: bb 06 d3 40  	subw	a3, t1, a3
   1370c: 96 95        	add	a1, a1, t0
   1370e: 91 9d        	subw	a1, a1, a2
   13710: b6 95        	add	a1, a1, a3
   13712: 2e 95        	add	a0, a0, a1
   13714: aa fc        	sd	a0, 0x78(sp)
   13716: 13 15 08 03  	slli	a0, a6, 0x30
   1371a: 41 95        	srai	a0, a0, 0x30
   1371c: bd 45        	li	a1, 0xf
   1371e: ef b0 b0 48  	jal	0x1f3a8 <__divdi3>
   13722: 42 15        	slli	a0, a0, 0x30
   13724: 41 95        	srai	a0, a0, 0x30
   13726: 8a 69        	ld	s3, 0x80(sp)
   13728: 23 a6 a9 00  	sw	a0, 0xc(s3)
   1372c: 66 75        	ld	a0, 0x78(sp)
   1372e: 42 15        	slli	a0, a0, 0x30
   13730: 41 95        	srai	a0, a0, 0x30
   13732: bd 45        	li	a1, 0xf
   13734: ef b0 50 47  	jal	0x1f3a8 <__divdi3>
   13738: 42 15        	slli	a0, a0, 0x30
   1373a: 41 95        	srai	a0, a0, 0x30
   1373c: e2 65        	ld	a1, 0x18(sp)
   1373e: 85 25        	addiw	a1, a1, 0x1
   13740: 23 a8 a9 00  	sw	a0, 0x10(s3)
   13744: 2e ec        	sd	a1, 0x18(sp)
   13746: 42 65        	ld	a0, 0x10(sp)
   13748: a2 89        	mv	s3, s0
   1374a: e3 97 a5 e2  	bne	a1, a0, 0x13578 <susan_corners_quick+0x564>
   1374e: 05 a8        	j	0x1377e <susan_corners_quick+0x76a>
   13750: 13 06 14 00  	addi	a2, s0, 0x1
   13754: 29 a0        	j	0x1375e <susan_corners_quick+0x74a>
   13756: ca 64        	ld	s1, 0x90(sp)
   13758: b9 45        	li	a1, 0xe
   1375a: 2a 66        	ld	a2, 0x88(sp)
   1375c: 86 79        	ld	s3, 0x60(sp)
   1375e: 32 84        	mv	s0, a2
   13760: 6a 65        	ld	a0, 0x98(sp)
   13762: e3 18 a6 be  	bne	a2, a0, 0x13352 <susan_corners_quick+0x33e>
   13766: 62 65        	ld	a0, 0x18(sp)
   13768: 19 a0        	j	0x1376e <susan_corners_quick+0x75a>
   1376a: 01 45        	li	a0, 0x0
   1376c: 86 79        	ld	s3, 0x60(sp)
   1376e: e1 45        	li	a1, 0x18
   13770: ef b0 90 3f  	jal	0x1f368 <__muldi3>
   13774: 4e 95        	add	a0, a0, s3
   13776: 9d 45        	li	a1, 0x7
   13778: 0c c5        	sw	a1, 0x8(a0)
   1377a: 65 61        	addi	sp, sp, 0x70
   1377c: fe bc        	cm.popretz	{ra, s0-s11}, 160
   1377e: 03 b5 01 23  	ld	a0, 0x230(gp)
   13782: 14 6d        	ld	a3, 0x18(a0)
   13784: 37 f5 01 00  	lui	a0, 0x1f
   13788: 13 05 55 5f  	addi	a0, a0, 0x5f5
   1378c: c9 45        	li	a1, 0x12
   1378e: 05 46        	li	a2, 0x1
   13790: ef 20 b0 14  	jal	0x160da <fwrite>
   13794: 05 45        	li	a0, 0x1
   13796: ef c0 bf 98  	jal	0x10120 <exit>

000000000001379a <main>:
   1379a: fe b8        	cm.push	{ra, s0-s11}, -160
   1379c: 37 86 05 00  	lui	a2, 0x58
   137a0: 1b 06 06 e5  	addiw	a2, a2, -0x1b0
   137a4: 33 01 c1 40  	sub	sp, sp, a2
   137a8: 37 86 05 00  	lui	a2, 0x58
   137ac: 0a 96        	add	a2, a2, sp
   137ae: 27 3c 86 e6  	fsd	fs0, -0x188(a2)
   137b2: 37 86 05 00  	lui	a2, 0x58
   137b6: 0a 96        	add	a2, a2, sp
   137b8: 27 38 96 e6  	fsd	fs1, -0x190(a2)
   137bc: 09 46        	li	a2, 0x2
   137be: 63 54 a6 2a  	bge	a2, a0, 0x13a66 <main+0x2cc>
   137c2: 2e 8d        	mv	s10, a1
   137c4: aa 84        	mv	s1, a0
   137c6: 88 65        	ld	a0, 0x8(a1)
   137c8: b7 85 05 00  	lui	a1, 0x58
   137cc: 9b 85 85 e6  	addiw	a1, a1, -0x198
   137d0: 8a 95        	add	a1, a1, sp
   137d2: 37 86 05 00  	lui	a2, 0x58
   137d6: 1b 06 c6 e5  	addiw	a2, a2, -0x1a4
   137da: 0a 96        	add	a2, a2, sp
   137dc: b7 86 05 00  	lui	a3, 0x58
   137e0: 9b 86 86 e5  	addiw	a3, a3, -0x1a8
   137e4: 8a 96        	add	a3, a3, sp
   137e6: ef c0 5f b3  	jal	0x1031a <get_image>
   137ea: 0d 44        	li	s0, 0x3
   137ec: 63 9c 84 00  	bne	s1, s0, 0x13804 <main+0x6a>
   137f0: 07 b4 81 21  	fld	fs0, 0x218(gp)
   137f4: 81 4c        	li	s9, 0x0
   137f6: 01 49        	li	s2, 0x0
   137f8: 81 49        	li	s3, 0x0
   137fa: 81 4d        	li	s11, 0x0
   137fc: 81 4a        	li	s5, 0x0
   137fe: 51 4a        	li	s4, 0x14
   13800: 05 4c        	li	s8, 0x1
   13802: 6d a8        	j	0x138bc <main+0x122>
   13804: 81 4a        	li	s5, 0x0
   13806: 01 4b        	li	s6, 0x0
   13808: 02 e8        	sd	zero, 0x10(sp)
   1380a: 81 49        	li	s3, 0x0
   1380c: 81 4c        	li	s9, 0x0
   1380e: 51 4a        	li	s4, 0x14
   13810: 85 4d        	li	s11, 0x1
   13812: 37 05 80 40  	lui	a0, 0x40800
   13816: d3 04 05 f0  	fmv.w.x	fs1, a0
   1381a: 93 0b d0 02  	li	s7, 0x2d
   1381e: 49 4c        	li	s8, 0x12
   13820: 37 f5 01 00  	lui	a0, 0x1f
   13824: 13 09 85 47  	addi	s2, a0, 0x478
   13828: 53 04 00 f0  	fmv.w.x	fs0, zero
   1382c: 13 15 34 00  	slli	a0, s0, 0x3
   13830: 6a 95        	add	a0, a0, s10
   13832: 08 61        	ld	a0, 0x0(a0)
   13834: 0c 81        	lbu	a1, 0x0(a0)
   13836: 63 98 75 23  	bne	a1, s7, 0x13a66 <main+0x2cc>
   1383a: 48 81        	lbu	a0, 0x1(a0)
   1383c: 93 05 e5 f9  	addi	a1, a0, -0x62
   13840: 63 69 bc 00  	bltu	s8, a1, 0x13852 <main+0xb8>
   13844: 8a 05        	slli	a1, a1, 0x2
   13846: ca 95        	add	a1, a1, s2
   13848: 88 41        	lw	a0, 0x0(a1)
   1384a: 02 85        	jr	a0
   1384c: 05 45        	li	a0, 0x1
   1384e: 2a e8        	sd	a0, 0x10(sp)
   13850: a1 a8        	j	0x138a8 <main+0x10e>
   13852: 93 05 30 03  	li	a1, 0x33
   13856: 63 00 b5 04  	beq	a0, a1, 0x13896 <main+0xfc>
   1385a: b9 a0        	j	0x138a8 <main+0x10e>
   1385c: 05 24        	addiw	s0, s0, 0x1
   1385e: 63 56 94 20  	bge	s0, s1, 0x13a6a <main+0x2d0>
   13862: 13 15 34 00  	slli	a0, s0, 0x3
   13866: 6a 95        	add	a0, a0, s10
   13868: 08 61        	ld	a0, 0x0(a0)
   1386a: ef 00 40 5c  	jal	0x13e2e <atoi>
   1386e: 2a 8a        	mv	s4, a0
   13870: 25 a8        	j	0x138a8 <main+0x10e>
   13872: 81 4d        	li	s11, 0x0
   13874: 15 a8        	j	0x138a8 <main+0x10e>
   13876: 05 4b        	li	s6, 0x1
   13878: 05 a8        	j	0x138a8 <main+0x10e>
   1387a: 05 24        	addiw	s0, s0, 0x1
   1387c: 63 5c 94 1e  	bge	s0, s1, 0x13a74 <main+0x2da>
   13880: 13 15 34 00  	slli	a0, s0, 0x3
   13884: 6a 95        	add	a0, a0, s10
   13886: 08 61        	ld	a0, 0x0(a0)
   13888: ef 00 00 5a  	jal	0x13e28 <atof>
   1388c: d3 74 15 40  	fcvt.s.d	fs1, fa0
   13890: 53 95 84 a0  	flt.s	a0, fs1, fs0
   13894: 11 c9        	beqz	a0, 0x138a8 <main+0x10e>
   13896: 85 49        	li	s3, 0x1
   13898: 01 a8        	j	0x138a8 <main+0x10e>
   1389a: 85 4a        	li	s5, 0x1
   1389c: 31 a0        	j	0x138a8 <main+0x10e>
   1389e: 89 4a        	li	s5, 0x2
   138a0: 21 a0        	j	0x138a8 <main+0x10e>
   138a2: 85 4c        	li	s9, 0x1
   138a4: 11 a0        	j	0x138a8 <main+0x10e>
   138a6: 81 4a        	li	s5, 0x0
   138a8: 05 24        	addiw	s0, s0, 0x1
   138aa: e3 41 94 f8  	blt	s0, s1, 0x1382c <main+0x92>
   138ae: 13 3c 1b 00  	seqz	s8, s6
   138b2: 13 b9 1d 00  	seqz	s2, s11
   138b6: 53 84 04 42  	fcvt.d.s	fs0, fs1
   138ba: c2 6d        	ld	s11, 0x10(sp)
   138bc: 13 c5 1c 00  	xori	a0, s9, 0x1
   138c0: 33 65 55 01  	or	a0, a0, s5
   138c4: 11 e1        	bnez	a0, 0x138c8 <main+0x12e>
   138c6: 85 4a        	li	s5, 0x1
   138c8: 09 45        	li	a0, 0x2
   138ca: b7 85 05 00  	lui	a1, 0x58
   138ce: 9b 85 85 e5  	addiw	a1, a1, -0x1a8
   138d2: 33 04 b1 00  	add	s0, sp, a1
   138d6: 63 89 aa 04  	beq	s5, a0, 0x13928 <main+0x18e>
   138da: 05 45        	li	a0, 0x1
   138dc: 63 9b aa 08  	bne	s5, a0, 0x13972 <main+0x1d8>
   138e0: 03 2b 44 00  	lw	s6, 0x4(s0)
   138e4: 83 2a 04 00  	lw	s5, 0x0(s0)
   138e8: fa ae        	cm.mva01s	s5, s6
   138ea: ef b0 f0 27  	jal	0x1f368 <__muldi3>
   138ee: 1b 0c 05 00  	sext.w	s8, a0
   138f2: 13 15 2c 00  	slli	a0, s8, 0x2
   138f6: ef 00 00 56  	jal	0x13e56 <malloc>
   138fa: aa 8b        	mv	s7, a0
   138fc: 37 85 05 00  	lui	a0, 0x58
   13900: 1b 05 05 e6  	addiw	a0, a0, -0x1a0
   13904: 0a 95        	add	a0, a0, sp
   13906: 19 46        	li	a2, 0x6
   13908: d2 85        	mv	a1, s4
   1390a: ef c0 7f bc  	jal	0x104d0 <setup_brightness_lut>
   1390e: 63 89 0c 08  	beqz	s9, 0x139a0 <main+0x206>
   13912: 04 68        	ld	s1, 0x10(s0)
   13914: 10 64        	ld	a2, 0x8(s0)
   13916: 63 80 09 0e  	beqz	s3, 0x139f6 <main+0x25c>
   1391a: fe ac        	cm.mva01s	s1, s7
   1391c: 81 46        	li	a3, 0x0
   1391e: 5a 87        	mv	a4, s6
   13920: d6 87        	mv	a5, s5
   13922: ef c0 7f ed  	jal	0x107f8 <susan_principle_small>
   13926: c5 a0        	j	0x13a06 <main+0x26c>
   13928: 03 2b 44 00  	lw	s6, 0x4(s0)
   1392c: 83 2a 04 00  	lw	s5, 0x0(s0)
   13930: fa ae        	cm.mva01s	s5, s6
   13932: ef b0 70 23  	jal	0x1f368 <__muldi3>
   13936: 9b 0b 05 00  	sext.w	s7, a0
   1393a: 13 95 2b 00  	slli	a0, s7, 0x2
   1393e: ef 00 80 51  	jal	0x13e56 <malloc>
   13942: aa 89        	mv	s3, a0
   13944: 37 85 05 00  	lui	a0, 0x58
   13948: 1b 05 05 e6  	addiw	a0, a0, -0x1a0
   1394c: 0a 95        	add	a0, a0, sp
   1394e: 19 46        	li	a2, 0x6
   13950: d2 85        	mv	a1, s4
   13952: ef c0 ff b7  	jal	0x104d0 <setup_brightness_lut>
   13956: 04 68        	ld	s1, 0x10(s0)
   13958: 10 64        	ld	a2, 0x8(s0)
   1395a: 93 06 a0 73  	li	a3, 0x73a
   1395e: 63 83 0c 08  	beqz	s9, 0x139e4 <main+0x24a>
   13962: ee ac        	cm.mva01s	s1, s3
   13964: 5a 87        	mv	a4, s6
   13966: d6 87        	mv	a5, s5
   13968: ef c0 df bf  	jal	0x10564 <susan_principle>
   1396c: e6 ad        	cm.mva01s	s3, s1
   1396e: 5e 86        	mv	a2, s7
   13970: 69 a8        	j	0x13a0a <main+0x270>
   13972: 37 85 05 00  	lui	a0, 0x58
   13976: 1b 05 05 e6  	addiw	a0, a0, -0x1a0
   1397a: 0a 95        	add	a0, a0, sp
   1397c: 09 46        	li	a2, 0x2
   1397e: d2 85        	mv	a1, s4
   13980: ef c0 1f b5  	jal	0x104d0 <setup_brightness_lut>
   13984: 04 68        	ld	s1, 0x10(s0)
   13986: 03 2b 44 00  	lw	s6, 0x4(s0)
   1398a: 83 2a 04 00  	lw	s5, 0x0(s0)
   1398e: 18 64        	ld	a4, 0x8(s0)
   13990: e6 ad        	cm.mva01s	s3, s1
   13992: 53 05 84 22  	fmv.d	fa0, fs0
   13996: 5a 86        	mv	a2, s6
   13998: d6 86        	mv	a3, s5
   1399a: ef d0 ef 95  	jal	0x10af8 <susan_smoothing>
   1399e: 49 a0        	j	0x13a20 <main+0x286>
   139a0: 62 85        	mv	a0, s8
   139a2: ef 00 40 4b  	jal	0x13e56 <malloc>
   139a6: 2a 8a        	mv	s4, a0
   139a8: 93 05 40 06  	li	a1, 0x64
   139ac: 62 86        	mv	a2, s8
   139ae: ef 30 40 3a  	jal	0x16d52 <memset>
   139b2: 04 68        	ld	s1, 0x10(s0)
   139b4: 14 64        	ld	a3, 0x8(s0)
   139b6: 63 8c 09 08  	beqz	s3, 0x13a4e <main+0x2b4>
   139ba: fe ac        	cm.mva01s	s1, s7
   139bc: 52 86        	mv	a2, s4
   139be: 01 47        	li	a4, 0x0
   139c0: da 87        	mv	a5, s6
   139c2: 56 88        	mv	a6, s5
   139c4: ef e0 cf fe  	jal	0x121b0 <susan_edges_small>
   139c8: 63 17 09 00  	bnez	s2, 0x139d6 <main+0x23c>
   139cc: f2 af        	cm.mva01s	s7, s4
   139ce: 5a 86        	mv	a2, s6
   139d0: d6 86        	mv	a3, s5
   139d2: ef d0 6f dc  	jal	0x10f98 <susan_thin>
   139d6: f2 ac        	cm.mva01s	s1, s4
   139d8: 5a 86        	mv	a2, s6
   139da: d6 86        	mv	a3, s5
   139dc: 6e 87        	mv	a4, s11
   139de: ef d0 6f d1  	jal	0x10ef4 <edge_draw>
   139e2: 3d a8        	j	0x13a20 <main+0x286>
   139e4: 38 08        	addi	a4, sp, 0x18
   139e6: ee ac        	cm.mva01s	s1, s3
   139e8: da 87        	mv	a5, s6
   139ea: 56 88        	mv	a6, s5
   139ec: 63 02 0c 02  	beqz	s8, 0x13a10 <main+0x276>
   139f0: ef e0 5f c5  	jal	0x12644 <susan_corners>
   139f4: 05 a0        	j	0x13a14 <main+0x27a>
   139f6: 05 65        	lui	a0, 0x1
   139f8: 9b 06 a5 a5  	addiw	a3, a0, -0x5a6
   139fc: fe ac        	cm.mva01s	s1, s7
   139fe: 5a 87        	mv	a4, s6
   13a00: d6 87        	mv	a5, s5
   13a02: ef c0 3f b6  	jal	0x10564 <susan_principle>
   13a06: e6 af        	cm.mva01s	s7, s1
   13a08: 62 86        	mv	a2, s8
   13a0a: ef c0 9f a6  	jal	0x10472 <int_to_uchar>
   13a0e: 09 a8        	j	0x13a20 <main+0x286>
   13a10: ef f0 4f e0  	jal	0x13014 <susan_corners_quick>
   13a14: 2c 08        	addi	a1, sp, 0x18
   13a16: 26 85        	mv	a0, s1
   13a18: 5a 86        	mv	a2, s6
   13a1a: ee 86        	mv	a3, s11
   13a1c: ef e0 9f bb  	jal	0x125d4 <corner_draw>
   13a20: 03 35 0d 01  	ld	a0, 0x10(s10)
   13a24: a6 85        	mv	a1, s1
   13a26: 5a 86        	mv	a2, s6
   13a28: d6 86        	mv	a3, s5
   13a2a: ef c0 df 9a  	jal	0x103d6 <put_image>
   13a2e: b7 85 05 00  	lui	a1, 0x58
   13a32: 8a 95        	add	a1, a1, sp
   13a34: 07 b4 85 e7  	fld	fs0, -0x188(a1)
   13a38: b7 85 05 00  	lui	a1, 0x58
   13a3c: 8a 95        	add	a1, a1, sp
   13a3e: 87 b4 05 e7  	fld	fs1, -0x190(a1)
   13a42: b7 85 05 00  	lui	a1, 0x58
   13a46: 9b 85 05 e5  	addiw	a1, a1, -0x1b0
   13a4a: 2e 91        	add	sp, sp, a1
   13a4c: fe bc        	cm.popretz	{ra, s0-s11}, 160
   13a4e: 05 65        	lui	a0, 0x1
   13a50: 1b 07 a5 a5  	addiw	a4, a0, -0x5a6
   13a54: fe ac        	cm.mva01s	s1, s7
   13a56: 52 86        	mv	a2, s4
   13a58: da 87        	mv	a5, s6
   13a5a: 56 88        	mv	a6, s5
   13a5c: ef d0 9f c0  	jal	0x11664 <susan_edges>
   13a60: e3 06 09 f6  	beqz	s2, 0x139cc <main+0x232>
   13a64: 8d bf        	j	0x139d6 <main+0x23c>
   13a66: ef c0 6f f7  	jal	0x101dc <usage>
   13a6a: 37 05 02 00  	lui	a0, 0x20
   13a6e: 13 05 b5 9b  	addi	a0, a0, -0x645
   13a72: 29 a0        	j	0x13a7c <main+0x2e2>
   13a74: 37 05 02 00  	lui	a0, 0x20
   13a78: 13 05 45 9d  	addi	a0, a0, -0x62c
   13a7c: ef 20 30 04  	jal	0x162be <puts>
   13a80: 01 45        	li	a0, 0x0
   13a82: ef c0 ef e9  	jal	0x10120 <exit>

0000000000013a86 <exp>:
   13a86: 01 11        	addi	sp, sp, -0x20
   13a88: 22 a4        	fsd	fs0, 0x8(sp)
   13a8a: 53 04 a5 22  	fmv.d	fs0, fa0
   13a8e: 26 a0        	cm.jt	0x9
   13a90: 06 ec        	sd	ra, 0x18(sp)
   13a92: ef 00 60 0b  	jal	0x13b48 <__ieee754_exp>
   13a96: d3 04 a5 22  	fmv.d	fs1, fa0
   13a9a: 53 05 84 22  	fmv.d	fa0, fs0
   13a9e: ef 00 c0 09  	jal	0x13b3a <finite>
   13aa2: 19 c9        	beqz	a0, 0x13ab8 <exp+0x32>
   13aa4: 87 b7 81 08  	fld	fa5, 0x88(gp)
   13aa8: d3 97 87 a2  	flt.d	a5, fa5, fs0
   13aac: 89 ef        	bnez	a5, 0x13ac6 <exp+0x40>
   13aae: 87 b7 01 09  	fld	fa5, 0x90(gp)
   13ab2: d3 17 f4 a2  	flt.d	a5, fs0, fa5
   13ab6: 95 e7        	bnez	a5, 0x13ae2 <exp+0x5c>
   13ab8: e2 60        	ld	ra, 0x18(sp)
   13aba: 53 85 94 22  	fmv.d	fa0, fs1
   13abe: 22 24        	fld	fs0, 0x8(sp)
   13ac0: 82 24        	fld	fs1, 0x0(sp)
   13ac2: 05 61        	addi	sp, sp, 0x20
   13ac4: 82 80        	ret
   13ac6: ef 30 40 21  	jal	0x16cda <__errno>
   13aca: 87 b4 01 08  	fld	fs1, 0x80(gp)
   13ace: e2 60        	ld	ra, 0x18(sp)
   13ad0: 93 07 20 02  	li	a5, 0x22
   13ad4: 1c c1        	sw	a5, 0x0(a0)
   13ad6: 53 85 94 22  	fmv.d	fa0, fs1
   13ada: 22 24        	fld	fs0, 0x8(sp)
   13adc: 82 24        	fld	fs1, 0x0(sp)
   13ade: 05 61        	addi	sp, sp, 0x20
   13ae0: 82 80        	ret
   13ae2: ef 30 80 1f  	jal	0x16cda <__errno>
   13ae6: 93 07 20 02  	li	a5, 0x22
   13aea: d3 04 00 f2  	fmv.d.x	fs1, zero
   13aee: 1c c1        	sw	a5, 0x0(a0)
   13af0: e1 b7        	j	0x13ab8 <exp+0x32>

0000000000013af2 <sqrtf>:
   13af2: 01 11        	addi	sp, sp, -0x20
   13af4: 22 a4        	fsd	fs0, 0x8(sp)
   13af6: 53 04 a5 20  	fmv.s	fs0, fa0
   13afa: 06 ec        	sd	ra, 0x18(sp)
   13afc: ef 00 80 03  	jal	0x13b34 <__ieee754_sqrtf>
   13b00: d3 27 84 a0  	feq.s	a5, fs0, fs0
   13b04: 81 cb        	beqz	a5, 0x13b14 <sqrtf+0x22>
   13b06: 26 a0        	cm.jt	0x9
   13b08: d3 04 00 f0  	fmv.w.x	fs1, zero
   13b0c: d3 17 94 a0  	flt.s	a5, fs0, fs1
   13b10: 91 e7        	bnez	a5, 0x13b1c <sqrtf+0x2a>
   13b12: 82 24        	fld	fs1, 0x0(sp)
   13b14: e2 60        	ld	ra, 0x18(sp)
   13b16: 22 24        	fld	fs0, 0x8(sp)
   13b18: 05 61        	addi	sp, sp, 0x20
   13b1a: 82 80        	ret
   13b1c: ef 30 e0 1b  	jal	0x16cda <__errno>
   13b20: e2 60        	ld	ra, 0x18(sp)
   13b22: 93 07 10 02  	li	a5, 0x21
   13b26: 1c c1        	sw	a5, 0x0(a0)
   13b28: 53 f5 94 18  	fdiv.s	fa0, fs1, fs1
   13b2c: 22 24        	fld	fs0, 0x8(sp)
   13b2e: 82 24        	fld	fs1, 0x0(sp)
   13b30: 05 61        	addi	sp, sp, 0x20
   13b32: 82 80        	ret

0000000000013b34 <__ieee754_sqrtf>:
   13b34: 53 75 05 58  	fsqrt.s	fa0, fa0
   13b38: 82 80        	ret

0000000000013b3a <finite>:
   13b3a: 53 15 05 e2  	fclass.d	a0, fa0
   13b3e: 13 75 15 38  	andi	a0, a0, 0x381
   13b42: 13 35 15 00  	seqz	a0, a0
   13b46: 82 80        	ret

0000000000013b48 <__ieee754_exp>:
   13b48: d3 07 05 e2  	fmv.x.d	a5, fa0
   13b4c: 37 36 86 40  	lui	a2, 0x40863
   13b50: 13 06 16 e4  	addi	a2, a2, -0x1bf
   13b54: 93 d6 07 42  	srai	a3, a5, 0x20
   13b58: 13 97 16 02  	slli	a4, a3, 0x21
   13b5c: 13 d5 f7 03  	srli	a0, a5, 0x3f
   13b60: 05 93        	srli	a4, a4, 0x21
   13b62: aa 85        	mv	a1, a0
   13b64: 63 74 e6 02  	bgeu	a2, a4, 0x13b8c <__ieee754_exp+0x44>
   13b68: 37 06 f0 7f  	lui	a2, 0x7ff00
   13b6c: 63 69 c7 08  	bltu	a4, a2, 0x13bfe <__ieee754_exp+0xb6>
   13b70: 13 97 c6 02  	slli	a4, a3, 0x2c
   13b74: 31 93        	srli	a4, a4, 0x2c
   13b76: 5d 8f        	or	a4, a4, a5
   13b78: 01 27        	sext.w	a4, a4
   13b7a: 63 11 07 1a  	bnez	a4, 0x13d1c <__ieee754_exp+0x1d4>
   13b7e: 13 07 00 00  	li	a4, 0x0
   13b82: 63 11 05 14  	bnez	a0, 0x13cc4 <__ieee754_exp+0x17c>
   13b86: 53 07 05 e2  	fmv.x.d	a4, fa0
   13b8a: 2d aa        	j	0x13cc4 <__ieee754_exp+0x17c>
   13b8c: b7 36 d6 3f  	lui	a3, 0x3fd63
   13b90: 93 86 26 e4  	addi	a3, a3, -0x1be
   13b94: 63 ea e6 14  	bltu	a3, a4, 0x13ce8 <__ieee754_exp+0x1a0>
   13b98: b7 06 f0 3d  	lui	a3, 0x3df00
   13b9c: 63 67 d7 12  	bltu	a4, a3, 0x13cca <__ieee754_exp+0x182>
   13ba0: d3 87 07 f2  	fmv.d.x	fa5, a5
   13ba4: 07 b7 01 0b  	fld	fa4, 0xb0(gp)
   13ba8: d3 f7 f7 12  	fmul.d	fa5, fa5, fa5
   13bac: 87 b6 81 0b  	fld	fa3, 0xb8(gp)
   13bb0: 43 f7 e7 6a  	fmadd.d	fa4, fa5, fa4, fa3
   13bb4: 87 b6 01 0c  	fld	fa3, 0xc0(gp)
   13bb8: 43 f7 e7 6a  	fmadd.d	fa4, fa5, fa4, fa3
   13bbc: 87 b6 81 0c  	fld	fa3, 0xc8(gp)
   13bc0: 43 f7 e7 6a  	fmadd.d	fa4, fa5, fa4, fa3
   13bc4: 87 b6 01 0d  	fld	fa3, 0xd0(gp)
   13bc8: 43 f7 e7 6a  	fmadd.d	fa4, fa5, fa4, fa3
   13bcc: d3 86 07 f2  	fmv.d.x	fa3, a5
   13bd0: cb f7 e7 6a  	fnmsub.d	fa5, fa5, fa4, fa3
   13bd4: d3 f6 f6 12  	fmul.d	fa3, fa3, fa5
   13bd8: 07 b7 01 0e  	fld	fa4, 0xe0(gp)
   13bdc: 07 b6 81 0e  	fld	fa2, 0xe8(gp)
   13be0: d3 f7 c7 0a  	fsub.d	fa5, fa5, fa2
   13be4: d3 f6 f6 1a  	fdiv.d	fa3, fa3, fa5
   13be8: d3 87 07 f2  	fmv.d.x	fa5, a5
   13bec: d3 f6 f6 0a  	fsub.d	fa3, fa3, fa5
   13bf0: d3 77 d7 0a  	fsub.d	fa5, fa4, fa3
   13bf4: 53 87 07 e2  	fmv.x.d	a4, fa5
   13bf8: 53 05 07 f2  	fmv.d.x	fa0, a4
   13bfc: 82 80        	ret
   13bfe: 87 b7 81 08  	fld	fa5, 0x88(gp)
   13c02: 53 97 a7 a2  	flt.d	a4, fa5, fa0
   13c06: 63 12 07 12  	bnez	a4, 0x13d2a <__ieee754_exp+0x1e2>
   13c0a: 87 b7 01 09  	fld	fa5, 0x90(gp)
   13c0e: 53 17 f5 a2  	flt.d	a4, fa0, fa5
   13c12: 63 13 07 14  	bnez	a4, 0x13d58 <__ieee754_exp+0x210>
   13c16: 37 07 02 00  	lui	a4, 0x20
   13c1a: 8e 05        	slli	a1, a1, 0x3
   13c1c: 13 07 07 a1  	addi	a4, a4, -0x5f0
   13c20: 2e 97        	add	a4, a4, a1
   13c22: 18 23        	fld	fa4, 0x0(a4)
   13c24: d3 86 07 f2  	fmv.d.x	fa3, a5
   13c28: 87 b7 81 09  	fld	fa5, 0x98(gp)
   13c2c: c3 f7 f6 72  	fmadd.d	fa5, fa3, fa5, fa4
   13c30: 07 b6 01 0a  	fld	fa2, 0xa0(gp)
   13c34: 53 97 07 c2  	fcvt.w.d	a4, fa5, rtz
   13c38: 87 b7 81 0a  	fld	fa5, 0xa8(gp)
   13c3c: 53 07 07 d2  	fcvt.d.w	fa4, a4
   13c40: 01 27        	sext.w	a4, a4
   13c42: 4b 76 c7 6a  	fnmsub.d	fa2, fa4, fa2, fa3
   13c46: 53 77 f7 12  	fmul.d	fa4, fa4, fa5
   13c4a: d3 77 e6 0a  	fsub.d	fa5, fa2, fa4
   13c4e: d3 f6 f7 12  	fmul.d	fa3, fa5, fa5
   13c52: d3 87 07 e2  	fmv.x.d	a5, fa5
   13c56: 87 b7 01 0b  	fld	fa5, 0xb0(gp)
   13c5a: 87 b5 81 0b  	fld	fa1, 0xb8(gp)
   13c5e: c3 f7 f6 5a  	fmadd.d	fa5, fa3, fa5, fa1
   13c62: 87 b5 01 0c  	fld	fa1, 0xc0(gp)
   13c66: c3 f7 d7 5a  	fmadd.d	fa5, fa5, fa3, fa1
   13c6a: 87 b5 81 0c  	fld	fa1, 0xc8(gp)
   13c6e: c3 f7 d7 5a  	fmadd.d	fa5, fa5, fa3, fa1
   13c72: 87 b5 01 0d  	fld	fa1, 0xd0(gp)
   13c76: c3 f7 d7 5a  	fmadd.d	fa5, fa5, fa3, fa1
   13c7a: d3 85 07 f2  	fmv.d.x	fa1, a5
   13c7e: cb f7 d7 5a  	fnmsub.d	fa5, fa5, fa3, fa1
   13c82: d3 f6 f5 12  	fmul.d	fa3, fa1, fa5
   13c86: 79 cb        	beqz	a4, 0x13d5c <__ieee754_exp+0x214>
   13c88: 87 b5 81 0e  	fld	fa1, 0xe8(gp)
   13c8c: 93 07 30 c0  	li	a5, -0x3fd
   13c90: d3 f7 f5 0a  	fsub.d	fa5, fa1, fa5
   13c94: d3 f6 f6 1a  	fdiv.d	fa3, fa3, fa5
   13c98: 87 b7 01 0e  	fld	fa5, 0xe0(gp)
   13c9c: 53 77 d7 0a  	fsub.d	fa4, fa4, fa3
   13ca0: 53 77 c7 0a  	fsub.d	fa4, fa4, fa2
   13ca4: d3 f7 e7 0a  	fsub.d	fa5, fa5, fa4
   13ca8: d3 86 07 e2  	fmv.x.d	a3, fa5
   13cac: 13 d6 06 42  	srai	a2, a3, 0x20
   13cb0: 63 4f f7 06  	blt	a4, a5, 0x13d2e <__ieee754_exp+0x1e6>
   13cb4: 1b 17 47 01  	slliw	a4, a4, 0x14
   13cb8: fd 57        	li	a5, -0x1
   13cba: 31 9f        	addw	a4, a4, a2
   13cbc: 81 93        	srli	a5, a5, 0x20
   13cbe: 02 17        	slli	a4, a4, 0x20
   13cc0: f5 8f        	and	a5, a5, a3
   13cc2: 5d 8f        	or	a4, a4, a5
   13cc4: 53 05 07 f2  	fmv.d.x	fa0, a4
   13cc8: 82 80        	ret
   13cca: 07 b7 81 0d  	fld	fa4, 0xd8(gp)
   13cce: 87 b7 01 0e  	fld	fa5, 0xe0(gp)
   13cd2: 53 77 e5 02  	fadd.d	fa4, fa0, fa4
   13cd6: d3 96 e7 a2  	flt.d	a3, fa5, fa4
   13cda: e3 83 06 ec  	beqz	a3, 0x13ba0 <__ieee754_exp+0x58>
   13cde: d3 77 f5 02  	fadd.d	fa5, fa0, fa5
   13ce2: 53 87 07 e2  	fmv.x.d	a4, fa5
   13ce6: f9 bf        	j	0x13cc4 <__ieee754_exp+0x17c>
   13ce8: b7 a6 f0 3f  	lui	a3, 0x3ff0a
   13cec: 93 86 16 2b  	addi	a3, a3, 0x2b1
   13cf0: e3 e3 e6 f2  	bltu	a3, a4, 0x13c16 <__ieee754_exp+0xce>
   13cf4: 37 07 02 00  	lui	a4, 0x20
   13cf8: 93 15 35 00  	slli	a1, a0, 0x3
   13cfc: 13 07 07 a0  	addi	a4, a4, -0x600
   13d00: 2e 97        	add	a4, a4, a1
   13d02: 10 23        	fld	fa2, 0x0(a4)
   13d04: b7 06 02 00  	lui	a3, 0x20
   13d08: 93 86 06 9f  	addi	a3, a3, -0x610
   13d0c: ae 96        	add	a3, a3, a1
   13d0e: 13 47 15 00  	xori	a4, a0, 0x1
   13d12: 53 76 c5 0a  	fsub.d	fa2, fa0, fa2
   13d16: 98 22        	fld	fa4, 0x0(a3)
   13d18: 09 9f        	subw	a4, a4, a0
   13d1a: 05 bf        	j	0x13c4a <__ieee754_exp+0x102>
   13d1c: d3 77 a5 02  	fadd.d	fa5, fa0, fa0
   13d20: 53 87 07 e2  	fmv.x.d	a4, fa5
   13d24: 53 05 07 f2  	fmv.d.x	fa0, a4
   13d28: 82 80        	ret
   13d2a: 01 45        	li	a0, 0x0
   13d2c: b5 a8        	j	0x13da8 <__math_oflow>
   13d2e: 9b 07 87 3e  	addiw	a5, a4, 0x3e8
   13d32: 9b 97 47 01  	slliw	a5, a5, 0x14
   13d36: 7d 57        	li	a4, -0x1
   13d38: b1 9f        	addw	a5, a5, a2
   13d3a: 01 93        	srli	a4, a4, 0x20
   13d3c: 75 8f        	and	a4, a4, a3
   13d3e: 82 17        	slli	a5, a5, 0x20
   13d40: d9 8f        	or	a5, a5, a4
   13d42: 87 b7 01 0f  	fld	fa5, 0xf0(gp)
   13d46: 53 87 07 f2  	fmv.d.x	fa4, a5
   13d4a: d3 f7 e7 12  	fmul.d	fa5, fa5, fa4
   13d4e: 53 87 07 e2  	fmv.x.d	a4, fa5
   13d52: 53 05 07 f2  	fmv.d.x	fa0, a4
   13d56: 82 80        	ret
   13d58: 01 45        	li	a0, 0x0
   13d5a: 89 a0        	j	0x13d9c <__math_uflow>
   13d5c: b5 bd        	j	0x13bd8 <__ieee754_exp+0x90>

0000000000013d5e <with_errno>:
   13d5e: 01 11        	addi	sp, sp, -0x20
   13d60: 22 e8        	sd	s0, 0x10(sp)
   13d62: 22 a4        	fsd	fs0, 0x8(sp)
   13d64: 06 ec        	sd	ra, 0x18(sp)
   13d66: 53 04 a5 22  	fmv.d	fs0, fa0
   13d6a: 2a 84        	mv	s0, a0
   13d6c: ef 20 f0 76  	jal	0x16cda <__errno>
   13d70: e2 60        	ld	ra, 0x18(sp)
   13d72: 00 c1        	sw	s0, 0x0(a0)
   13d74: 42 64        	ld	s0, 0x10(sp)
   13d76: 53 05 84 22  	fmv.d	fa0, fs0
   13d7a: 22 24        	fld	fs0, 0x8(sp)
   13d7c: 05 61        	addi	sp, sp, 0x20
   13d7e: 82 80        	ret

0000000000013d80 <xflow>:
   13d80: d3 07 a5 22  	fmv.d	fa5, fa0
   13d84: 41 11        	addi	sp, sp, -0x10
   13d86: 19 c1        	beqz	a0, 0x13d8c <xflow+0xc>
   13d88: d3 17 a5 22  	fneg.d	fa5, fa0
   13d8c: 3e a4        	fsd	fa5, 0x8(sp)
   13d8e: a2 27        	fld	fa5, 0x8(sp)
   13d90: 13 05 20 02  	li	a0, 0x22
   13d94: 53 75 f5 12  	fmul.d	fa0, fa0, fa5
   13d98: 41 01        	addi	sp, sp, 0x10
   13d9a: d1 b7        	j	0x13d5e <with_errno>

0000000000013d9c <__math_uflow>:
   13d9c: 07 b5 81 0f  	fld	fa0, 0xf8(gp)
   13da0: c5 b7        	j	0x13d80 <xflow>

0000000000013da2 <__math_may_uflow>:
   13da2: 07 b5 01 10  	fld	fa0, 0x100(gp)
   13da6: e9 bf        	j	0x13d80 <xflow>

0000000000013da8 <__math_oflow>:
   13da8: 07 b5 81 10  	fld	fa0, 0x108(gp)
   13dac: d1 bf        	j	0x13d80 <xflow>

0000000000013dae <__math_divzero>:
   13dae: 41 11        	addi	sp, sp, -0x10
   13db0: 09 cd        	beqz	a0, 0x13dca <__math_divzero+0x1c>
   13db2: 87 b7 01 11  	fld	fa5, 0x110(gp)
   13db6: 13 05 20 02  	li	a0, 0x22
   13dba: 3e a4        	fsd	fa5, 0x8(sp)
   13dbc: 22 25        	fld	fa0, 0x8(sp)
   13dbe: d3 07 00 f2  	fmv.d.x	fa5, zero
   13dc2: 41 01        	addi	sp, sp, 0x10
   13dc4: 53 75 f5 1a  	fdiv.d	fa0, fa0, fa5
   13dc8: 59 bf        	j	0x13d5e <with_errno>
   13dca: 87 b7 01 0e  	fld	fa5, 0xe0(gp)
   13dce: 13 05 20 02  	li	a0, 0x22
   13dd2: 3e a4        	fsd	fa5, 0x8(sp)
   13dd4: 22 25        	fld	fa0, 0x8(sp)
   13dd6: d3 07 00 f2  	fmv.d.x	fa5, zero
   13dda: 41 01        	addi	sp, sp, 0x10
   13ddc: 53 75 f5 1a  	fdiv.d	fa0, fa0, fa5
   13de0: bd bf        	j	0x13d5e <with_errno>

0000000000013de2 <__math_invalid>:
   13de2: d3 77 a5 0a  	fsub.d	fa5, fa0, fa0
   13de6: d3 27 a5 a2  	feq.d	a5, fa0, fa0
   13dea: 53 f5 f7 1a  	fdiv.d	fa0, fa5, fa5
   13dee: 81 c7        	beqz	a5, 0x13df6 <__math_invalid+0x14>
   13df0: 13 05 10 02  	li	a0, 0x21
   13df4: ad b7        	j	0x13d5e <with_errno>
   13df6: 82 80        	ret

0000000000013df8 <__math_check_uflow>:
   13df8: d3 07 00 f2  	fmv.d.x	fa5, zero
   13dfc: d3 27 f5 a2  	feq.d	a5, fa0, fa5
   13e00: 91 e3        	bnez	a5, 0x13e04 <__math_check_uflow+0xc>
   13e02: 82 80        	ret
   13e04: 13 05 20 02  	li	a0, 0x22
   13e08: 99 bf        	j	0x13d5e <with_errno>

0000000000013e0a <__math_check_oflow>:
   13e0a: d3 27 a5 22  	fabs.d	fa5, fa0
   13e0e: 73 27 10 00  	frflags	a4
   13e12: 07 b7 81 11  	fld	fa4, 0x118(gp)
   13e16: d3 17 f7 a2  	flt.d	a5, fa4, fa5
   13e1a: 73 10 17 00  	fsflags	a4
   13e1e: 91 e3        	bnez	a5, 0x13e22 <__math_check_oflow+0x18>
   13e20: 82 80        	ret
   13e22: 13 05 20 02  	li	a0, 0x22
   13e26: 25 bf        	j	0x13d5e <with_errno>

0000000000013e28 <atof>:
   13e28: 81 45        	li	a1, 0x0
   13e2a: 6f 10 60 54  	j	0x15370 <strtod>

0000000000013e2e <atoi>:
   13e2e: 41 11        	addi	sp, sp, -0x10
   13e30: 29 46        	li	a2, 0xa
   13e32: 81 45        	li	a1, 0x0
   13e34: 06 e4        	sd	ra, 0x8(sp)
   13e36: ef 10 70 01  	jal	0x1564c <strtol>
   13e3a: a2 60        	ld	ra, 0x8(sp)
   13e3c: 01 25        	sext.w	a0, a0
   13e3e: 41 01        	addi	sp, sp, 0x10
   13e40: 82 80        	ret

0000000000013e42 <_atoi_r>:
   13e42: 41 11        	addi	sp, sp, -0x10
   13e44: a9 46        	li	a3, 0xa
   13e46: 01 46        	li	a2, 0x0
   13e48: 06 e4        	sd	ra, 0x8(sp)
   13e4a: ef 10 e0 7e  	jal	0x15638 <_strtol_r>
   13e4e: a2 60        	ld	ra, 0x8(sp)
   13e50: 01 25        	sext.w	a0, a0
   13e52: 41 01        	addi	sp, sp, 0x10
   13e54: 82 80        	ret

0000000000013e56 <malloc>:
   13e56: aa 85        	mv	a1, a0
   13e58: 03 b5 01 23  	ld	a0, 0x230(gp)
   13e5c: 31 a0        	j	0x13e68 <_malloc_r>

0000000000013e5e <free>:
   13e5e: aa 85        	mv	a1, a0
   13e60: 03 b5 01 23  	ld	a0, 0x230(gp)
   13e64: 6f 30 40 42  	j	0x17288 <_free_r>

0000000000013e68 <_malloc_r>:
   13e68: 1d 71        	addi	sp, sp, -0x60
   13e6a: a6 e4        	sd	s1, 0x48(sp)
   13e6c: ca e0        	sd	s2, 0x40(sp)
   13e6e: 86 ec        	sd	ra, 0x58(sp)
   13e70: a2 e8        	sd	s0, 0x50(sp)
   13e72: 4e fc        	sd	s3, 0x38(sp)
   13e74: 93 84 75 01  	addi	s1, a1, 0x17
   13e78: 93 07 e0 02  	li	a5, 0x2e
   13e7c: 2a 89        	mv	s2, a0
   13e7e: 63 ee 97 04  	bltu	a5, s1, 0x13eda <_malloc_r+0x72>
   13e82: 93 07 00 02  	li	a5, 0x20
   13e86: 63 ec b7 18  	bltu	a5, a1, 0x1401e <_malloc_r+0x1b6>
   13e8a: ef 00 60 5e  	jal	0x14470 <__malloc_lock>
   13e8e: 93 07 00 05  	li	a5, 0x50
   13e92: 91 45        	li	a1, 0x4
   13e94: 93 04 00 02  	li	s1, 0x20
   13e98: b7 19 02 00  	lui	s3, 0x21
   13e9c: 93 89 09 7f  	addi	s3, s3, 0x7f0
   13ea0: ce 97        	add	a5, a5, s3
   13ea2: 80 67        	ld	s0, 0x8(a5)
   13ea4: 13 87 07 ff  	addi	a4, a5, -0x10
   13ea8: 63 0f e4 26  	beq	s0, a4, 0x14126 <_malloc_r+0x2be>
   13eac: 1c 64        	ld	a5, 0x8(s0)
   13eae: 14 6c        	ld	a3, 0x18(s0)
   13eb0: 10 68        	ld	a2, 0x10(s0)
   13eb2: f1 9b        	andi	a5, a5, -0x4
   13eb4: a2 97        	add	a5, a5, s0
   13eb6: 98 67        	ld	a4, 0x8(a5)
   13eb8: 14 ee        	sd	a3, 0x18(a2)
   13eba: 90 ea        	sd	a2, 0x10(a3)
   13ebc: 13 67 17 00  	ori	a4, a4, 0x1
   13ec0: 4a 85        	mv	a0, s2
   13ec2: 98 e7        	sd	a4, 0x8(a5)
   13ec4: ef 00 e0 5a  	jal	0x14472 <__malloc_unlock>
   13ec8: 13 05 04 01  	addi	a0, s0, 0x10
   13ecc: e6 60        	ld	ra, 0x58(sp)
   13ece: 46 64        	ld	s0, 0x50(sp)
   13ed0: a6 64        	ld	s1, 0x48(sp)
   13ed2: 06 69        	ld	s2, 0x40(sp)
   13ed4: e2 79        	ld	s3, 0x38(sp)
   13ed6: 25 61        	addi	sp, sp, 0x60
   13ed8: 82 80        	ret
   13eda: b7 07 00 80  	lui	a5, 0x80000
   13ede: c1 98        	andi	s1, s1, -0x10
   13ee0: 93 c7 f7 ff  	not	a5, a5
   13ee4: 63 ed 97 12  	bltu	a5, s1, 0x1401e <_malloc_r+0x1b6>
   13ee8: 63 eb b4 12  	bltu	s1, a1, 0x1401e <_malloc_r+0x1b6>
   13eec: ef 00 40 58  	jal	0x14470 <__malloc_lock>
   13ef0: 93 07 70 1f  	li	a5, 0x1f7
   13ef4: 63 f4 97 32  	bgeu	a5, s1, 0x1421c <_malloc_r+0x3b4>
   13ef8: 93 d7 94 00  	srli	a5, s1, 0x9
   13efc: 63 86 07 12  	beqz	a5, 0x14028 <_malloc_r+0x1c0>
   13f00: 11 47        	li	a4, 0x4
   13f02: 63 69 f7 26  	bltu	a4, a5, 0x14174 <_malloc_r+0x30c>
   13f06: 93 d7 64 00  	srli	a5, s1, 0x6
   13f0a: 9b 85 97 03  	addiw	a1, a5, 0x39
   13f0e: 1b 96 15 00  	slliw	a2, a1, 0x1
   13f12: 1b 88 87 03  	addiw	a6, a5, 0x38
   13f16: 0e 06        	slli	a2, a2, 0x3
   13f18: b7 19 02 00  	lui	s3, 0x21
   13f1c: 93 89 09 7f  	addi	s3, s3, 0x7f0
   13f20: 4e 96        	add	a2, a2, s3
   13f22: 00 66        	ld	s0, 0x8(a2)
   13f24: 41 16        	addi	a2, a2, -0x10
   13f26: 63 01 86 02  	beq	a2, s0, 0x13f48 <_malloc_r+0xe0>
   13f2a: 7d 45        	li	a0, 0x1f
   13f2c: 39 a0        	j	0x13f3a <_malloc_r+0xd2>
   13f2e: 14 6c        	ld	a3, 0x18(s0)
   13f30: 63 59 07 1e  	bgez	a4, 0x14122 <_malloc_r+0x2ba>
   13f34: 63 0a d6 00  	beq	a2, a3, 0x13f48 <_malloc_r+0xe0>
   13f38: 36 84        	mv	s0, a3
   13f3a: 1c 64        	ld	a5, 0x8(s0)
   13f3c: f1 9b        	andi	a5, a5, -0x4
   13f3e: 33 87 97 40  	sub	a4, a5, s1
   13f42: e3 56 e5 fe  	bge	a0, a4, 0x13f2e <_malloc_r+0xc6>
   13f46: c2 85        	mv	a1, a6
   13f48: 03 b4 09 02  	ld	s0, 0x20(s3)
   13f4c: 37 28 02 00  	lui	a6, 0x22
   13f50: 13 08 08 80  	addi	a6, a6, -0x800
   13f54: 63 04 04 1d  	beq	s0, a6, 0x1411c <_malloc_r+0x2b4>
   13f58: 1c 64        	ld	a5, 0x8(s0)
   13f5a: fd 46        	li	a3, 0x1f
   13f5c: f1 9b        	andi	a5, a5, -0x4
   13f5e: 33 87 97 40  	sub	a4, a5, s1
   13f62: 63 c6 e6 28  	blt	a3, a4, 0x141ee <_malloc_r+0x386>
   13f66: 23 b4 09 03  	sd	a6, 0x28(s3)
   13f6a: 23 b0 09 03  	sd	a6, 0x20(s3)
   13f6e: 63 55 07 26  	bgez	a4, 0x141d8 <_malloc_r+0x370>
   13f72: 13 07 f0 1f  	li	a4, 0x1ff
   13f76: 03 b5 89 00  	ld	a0, 0x8(s3)
   13f7a: 63 6b f7 1a  	bltu	a4, a5, 0x14130 <_malloc_r+0x2c8>
   13f7e: 8d 83        	srli	a5, a5, 0x3
   13f80: 1b 87 17 00  	addiw	a4, a5, 0x1
   13f84: 1b 17 17 00  	slliw	a4, a4, 0x1
   13f88: 0e 07        	slli	a4, a4, 0x3
   13f8a: 4e 97        	add	a4, a4, s3
   13f8c: 10 63        	ld	a2, 0x0(a4)
   13f8e: 9b d7 27 40  	sraiw	a5, a5, 0x2
   13f92: 85 46        	li	a3, 0x1
   13f94: b3 97 f6 00  	sll	a5, a3, a5
   13f98: 5d 8d        	or	a0, a0, a5
   13f9a: 93 07 07 ff  	addi	a5, a4, -0x10
   13f9e: 1c ec        	sd	a5, 0x18(s0)
   13fa0: 10 e8        	sd	a2, 0x10(s0)
   13fa2: 23 b4 a9 00  	sd	a0, 0x8(s3)
   13fa6: 00 e3        	sd	s0, 0x0(a4)
   13fa8: 00 ee        	sd	s0, 0x18(a2)
   13faa: 9b d7 25 40  	sraiw	a5, a1, 0x2
   13fae: 05 46        	li	a2, 0x1
   13fb0: 33 16 f6 00  	sll	a2, a2, a5
   13fb4: 63 61 c5 08  	bltu	a0, a2, 0x14036 <_malloc_r+0x1ce>
   13fb8: b3 77 a6 00  	and	a5, a2, a0
   13fbc: 81 ef        	bnez	a5, 0x13fd4 <_malloc_r+0x16c>
   13fbe: 06 06        	slli	a2, a2, 0x1
   13fc0: f1 99        	andi	a1, a1, -0x4
   13fc2: b3 77 a6 00  	and	a5, a2, a0
   13fc6: 91 25        	addiw	a1, a1, 0x4
   13fc8: 91 e7        	bnez	a5, 0x13fd4 <_malloc_r+0x16c>
   13fca: 06 06        	slli	a2, a2, 0x1
   13fcc: b3 77 a6 00  	and	a5, a2, a0
   13fd0: 91 25        	addiw	a1, a1, 0x4
   13fd2: e5 df        	beqz	a5, 0x13fca <_malloc_r+0x162>
   13fd4: fd 48        	li	a7, 0x1f
   13fd6: 1b 83 15 00  	addiw	t1, a1, 0x1
   13fda: 1b 13 13 00  	slliw	t1, t1, 0x1
   13fde: 0e 03        	slli	t1, t1, 0x3
   13fe0: 41 13        	addi	t1, t1, -0x10
   13fe2: 4e 93        	add	t1, t1, s3
   13fe4: 1a 85        	mv	a0, t1
   13fe6: 1c 6d        	ld	a5, 0x18(a0)
   13fe8: 2e 8e        	mv	t3, a1
   13fea: 63 06 f5 1a  	beq	a0, a5, 0x14196 <_malloc_r+0x32e>
   13fee: 98 67        	ld	a4, 0x8(a5)
   13ff0: 3e 84        	mv	s0, a5
   13ff2: 9c 6f        	ld	a5, 0x18(a5)
   13ff4: 71 9b        	andi	a4, a4, -0x4
   13ff6: b3 06 97 40  	sub	a3, a4, s1
   13ffa: 63 c5 d8 1a  	blt	a7, a3, 0x141a4 <_malloc_r+0x33c>
   13ffe: e3 c6 06 fe  	bltz	a3, 0x13fea <_malloc_r+0x182>
   14002: 22 97        	add	a4, a4, s0
   14004: 14 67        	ld	a3, 0x8(a4)
   14006: 10 68        	ld	a2, 0x10(s0)
   14008: 4a 85        	mv	a0, s2
   1400a: 93 e6 16 00  	ori	a3, a3, 0x1
   1400e: 14 e7        	sd	a3, 0x8(a4)
   14010: 1c ee        	sd	a5, 0x18(a2)
   14012: 90 eb        	sd	a2, 0x10(a5)
   14014: ef 00 e0 45  	jal	0x14472 <__malloc_unlock>
   14018: 13 05 04 01  	addi	a0, s0, 0x10
   1401c: 45 bd        	j	0x13ecc <_malloc_r+0x64>
   1401e: b1 47        	li	a5, 0xc
   14020: 23 20 f9 00  	sw	a5, 0x0(s2)
   14024: 01 45        	li	a0, 0x0
   14026: 5d b5        	j	0x13ecc <_malloc_r+0x64>
   14028: 13 06 00 40  	li	a2, 0x400
   1402c: 93 05 00 04  	li	a1, 0x40
   14030: 13 08 f0 03  	li	a6, 0x3f
   14034: d5 b5        	j	0x13f18 <_malloc_r+0xb0>
   14036: 03 b4 09 01  	ld	s0, 0x10(s3)
   1403a: 56 f4        	sd	s5, 0x28(sp)
   1403c: 1c 64        	ld	a5, 0x8(s0)
   1403e: 93 fa c7 ff  	andi	s5, a5, -0x4
   14042: 63 e7 9a 00  	bltu	s5, s1, 0x14050 <_malloc_r+0x1e8>
   14046: 33 87 9a 40  	sub	a4, s5, s1
   1404a: fd 47        	li	a5, 0x1f
   1404c: 63 c2 e7 0a  	blt	a5, a4, 0x140f0 <_malloc_r+0x288>
   14050: 66 e4        	sd	s9, 0x8(sp)
   14052: 52 f8        	sd	s4, 0x30(sp)
   14054: 03 b7 01 22  	ld	a4, 0x220(gp)
   14058: 03 ba 81 24  	ld	s4, 0x248(gp)
   1405c: 62 e8        	sd	s8, 0x10(sp)
   1405e: 5a f0        	sd	s6, 0x20(sp)
   14060: fd 57        	li	a5, -0x1
   14062: 33 0c 54 01  	add	s8, s0, s5
   14066: 26 9a        	add	s4, s4, s1
   14068: 63 08 f7 2e  	beq	a4, a5, 0x14358 <_malloc_r+0x4f0>
   1406c: 85 67        	lui	a5, 0x1
   1406e: fd 07        	addi	a5, a5, 0x1f
   14070: 3e 9a        	add	s4, s4, a5
   14072: fd 77        	lui	a5, 0xfffff
   14074: 33 7a fa 00  	and	s4, s4, a5
   14078: d2 85        	mv	a1, s4
   1407a: 4a 85        	mv	a0, s2
   1407c: ef 20 d0 3e  	jal	0x16c68 <_sbrk_r>
   14080: fd 57        	li	a5, -0x1
   14082: 2a 8b        	mv	s6, a0
   14084: 63 00 f5 36  	beq	a0, a5, 0x143e4 <_malloc_r+0x57c>
   14088: 5e ec        	sd	s7, 0x18(sp)
   1408a: 63 6c 85 1b  	bltu	a0, s8, 0x14242 <_malloc_r+0x3da>
   1408e: 93 8b 01 2b  	addi	s7, gp, 0x2b0
   14092: 83 a7 0b 00  	lw	a5, 0x0(s7)
   14096: 3b 87 47 01  	addw	a4, a5, s4
   1409a: 23 a0 eb 00  	sw	a4, 0x0(s7)
   1409e: ba 86        	mv	a3, a4
   140a0: 63 17 ac 20  	bne	s8, a0, 0x142ae <_malloc_r+0x446>
   140a4: 93 17 45 03  	slli	a5, a0, 0x34
   140a8: 63 93 07 20  	bnez	a5, 0x142ae <_malloc_r+0x446>
   140ac: 03 bb 09 01  	ld	s6, 0x10(s3)
   140b0: b3 87 4a 01  	add	a5, s5, s4
   140b4: 93 e7 17 00  	ori	a5, a5, 0x1
   140b8: 23 34 fb 00  	sd	a5, 0x8(s6)
   140bc: 03 b6 01 24  	ld	a2, 0x240(gp)
   140c0: 63 74 e6 00  	bgeu	a2, a4, 0x140c8 <_malloc_r+0x260>
   140c4: 23 b0 e1 24  	sd	a4, 0x240(gp)
   140c8: 03 b6 81 23  	ld	a2, 0x238(gp)
   140cc: 63 74 e6 00  	bgeu	a2, a4, 0x140d4 <_malloc_r+0x26c>
   140d0: 23 bc e1 22  	sd	a4, 0x238(gp)
   140d4: e2 6b        	ld	s7, 0x18(sp)
   140d6: 5a 84        	mv	s0, s6
   140d8: f1 9b        	andi	a5, a5, -0x4
   140da: 33 87 97 40  	sub	a4, a5, s1
   140de: 63 ed 97 2a  	bltu	a5, s1, 0x14398 <_malloc_r+0x530>
   140e2: fd 47        	li	a5, 0x1f
   140e4: 63 da e7 2a  	bge	a5, a4, 0x14398 <_malloc_r+0x530>
   140e8: 42 7a        	ld	s4, 0x30(sp)
   140ea: 02 7b        	ld	s6, 0x20(sp)
   140ec: 42 6c        	ld	s8, 0x10(sp)
   140ee: a2 6c        	ld	s9, 0x8(sp)
   140f0: 93 e7 14 00  	ori	a5, s1, 0x1
   140f4: 1c e4        	sd	a5, 0x8(s0)
   140f6: a2 94        	add	s1, s1, s0
   140f8: 23 b8 99 00  	sd	s1, 0x10(s3)
   140fc: 13 67 17 00  	ori	a4, a4, 0x1
   14100: 4a 85        	mv	a0, s2
   14102: 98 e4        	sd	a4, 0x8(s1)
   14104: ef 00 e0 36  	jal	0x14472 <__malloc_unlock>
   14108: e6 60        	ld	ra, 0x58(sp)
   1410a: 13 05 04 01  	addi	a0, s0, 0x10
   1410e: 46 64        	ld	s0, 0x50(sp)
   14110: a2 7a        	ld	s5, 0x28(sp)
   14112: a6 64        	ld	s1, 0x48(sp)
   14114: 06 69        	ld	s2, 0x40(sp)
   14116: e2 79        	ld	s3, 0x38(sp)
   14118: 25 61        	addi	sp, sp, 0x60
   1411a: 82 80        	ret
   1411c: 03 b5 89 00  	ld	a0, 0x8(s3)
   14120: 69 b5        	j	0x13faa <_malloc_r+0x142>
   14122: 10 68        	ld	a2, 0x10(s0)
   14124: 41 bb        	j	0x13eb4 <_malloc_r+0x4c>
   14126: 80 6f        	ld	s0, 0x18(a5)
   14128: 89 25        	addiw	a1, a1, 0x2
   1412a: e3 8f 87 e0  	beq	a5, s0, 0x13f48 <_malloc_r+0xe0>
   1412e: bd bb        	j	0x13eac <_malloc_r+0x44>
   14130: 13 d7 97 00  	srli	a4, a5, 0x9
   14134: 91 46        	li	a3, 0x4
   14136: 63 fc e6 0e  	bgeu	a3, a4, 0x1422e <_malloc_r+0x3c6>
   1413a: d1 46        	li	a3, 0x14
   1413c: 63 e8 e6 26  	bltu	a3, a4, 0x143ac <_malloc_r+0x544>
   14140: 1b 06 c7 05  	addiw	a2, a4, 0x5c
   14144: 1b 16 16 00  	slliw	a2, a2, 0x1
   14148: 9b 06 b7 05  	addiw	a3, a4, 0x5b
   1414c: 0e 06        	slli	a2, a2, 0x3
   1414e: 4e 96        	add	a2, a2, s3
   14150: 18 62        	ld	a4, 0x0(a2)
   14152: 41 16        	addi	a2, a2, -0x10
   14154: 63 16 e6 00  	bne	a2, a4, 0x14160 <_malloc_r+0x2f8>
   14158: 19 a4        	j	0x1435e <_malloc_r+0x4f6>
   1415a: 18 6b        	ld	a4, 0x10(a4)
   1415c: 63 06 e6 00  	beq	a2, a4, 0x14168 <_malloc_r+0x300>
   14160: 14 67        	ld	a3, 0x8(a4)
   14162: f1 9a        	andi	a3, a3, -0x4
   14164: e3 eb d7 fe  	bltu	a5, a3, 0x1415a <_malloc_r+0x2f2>
   14168: 10 6f        	ld	a2, 0x18(a4)
   1416a: 10 ec        	sd	a2, 0x18(s0)
   1416c: 18 e8        	sd	a4, 0x10(s0)
   1416e: 00 ea        	sd	s0, 0x10(a2)
   14170: 00 ef        	sd	s0, 0x18(a4)
   14172: 25 bd        	j	0x13faa <_malloc_r+0x142>
   14174: 51 47        	li	a4, 0x14
   14176: 63 7d f7 0c  	bgeu	a4, a5, 0x14250 <_malloc_r+0x3e8>
   1417a: 13 07 40 05  	li	a4, 0x54
   1417e: 63 65 f7 24  	bltu	a4, a5, 0x143c8 <_malloc_r+0x560>
   14182: 93 d7 c4 00  	srli	a5, s1, 0xc
   14186: 9b 85 f7 06  	addiw	a1, a5, 0x6f
   1418a: 1b 96 15 00  	slliw	a2, a1, 0x1
   1418e: 1b 88 e7 06  	addiw	a6, a5, 0x6e
   14192: 0e 06        	slli	a2, a2, 0x3
   14194: 51 b3        	j	0x13f18 <_malloc_r+0xb0>
   14196: 05 2e        	addiw	t3, t3, 0x1
   14198: 93 77 3e 00  	andi	a5, t3, 0x3
   1419c: 41 05        	addi	a0, a0, 0x10
   1419e: f1 c7        	beqz	a5, 0x1426a <_malloc_r+0x402>
   141a0: 1c 6d        	ld	a5, 0x18(a0)
   141a2: a1 b5        	j	0x13fea <_malloc_r+0x182>
   141a4: 10 68        	ld	a2, 0x10(s0)
   141a6: 93 e5 14 00  	ori	a1, s1, 0x1
   141aa: 0c e4        	sd	a1, 0x8(s0)
   141ac: 1c ee        	sd	a5, 0x18(a2)
   141ae: 90 eb        	sd	a2, 0x10(a5)
   141b0: a2 94        	add	s1, s1, s0
   141b2: 23 b4 99 02  	sd	s1, 0x28(s3)
   141b6: 23 b0 99 02  	sd	s1, 0x20(s3)
   141ba: 93 e7 16 00  	ori	a5, a3, 0x1
   141be: 23 bc 04 01  	sd	a6, 0x18(s1)
   141c2: 23 b8 04 01  	sd	a6, 0x10(s1)
   141c6: 9c e4        	sd	a5, 0x8(s1)
   141c8: 22 97        	add	a4, a4, s0
   141ca: 4a 85        	mv	a0, s2
   141cc: 14 e3        	sd	a3, 0x0(a4)
   141ce: ef 00 40 2a  	jal	0x14472 <__malloc_unlock>
   141d2: 13 05 04 01  	addi	a0, s0, 0x10
   141d6: dd b9        	j	0x13ecc <_malloc_r+0x64>
   141d8: a2 97        	add	a5, a5, s0
   141da: 98 67        	ld	a4, 0x8(a5)
   141dc: 4a 85        	mv	a0, s2
   141de: 13 67 17 00  	ori	a4, a4, 0x1
   141e2: 98 e7        	sd	a4, 0x8(a5)
   141e4: ef 00 e0 28  	jal	0x14472 <__malloc_unlock>
   141e8: 13 05 04 01  	addi	a0, s0, 0x10
   141ec: c5 b1        	j	0x13ecc <_malloc_r+0x64>
   141ee: 93 e6 14 00  	ori	a3, s1, 0x1
   141f2: 14 e4        	sd	a3, 0x8(s0)
   141f4: a2 94        	add	s1, s1, s0
   141f6: 23 b4 99 02  	sd	s1, 0x28(s3)
   141fa: 23 b0 99 02  	sd	s1, 0x20(s3)
   141fe: 93 66 17 00  	ori	a3, a4, 0x1
   14202: 23 bc 04 01  	sd	a6, 0x18(s1)
   14206: 23 b8 04 01  	sd	a6, 0x10(s1)
   1420a: 94 e4        	sd	a3, 0x8(s1)
   1420c: a2 97        	add	a5, a5, s0
   1420e: 4a 85        	mv	a0, s2
   14210: 98 e3        	sd	a4, 0x0(a5)
   14212: ef 00 00 26  	jal	0x14472 <__malloc_unlock>
   14216: 13 05 04 01  	addi	a0, s0, 0x10
   1421a: 4d b9        	j	0x13ecc <_malloc_r+0x64>
   1421c: 93 d5 34 00  	srli	a1, s1, 0x3
   14220: 9b 87 15 00  	addiw	a5, a1, 0x1
   14224: 9b 97 17 00  	slliw	a5, a5, 0x1
   14228: 81 25        	sext.w	a1, a1
   1422a: 8e 07        	slli	a5, a5, 0x3
   1422c: b5 b1        	j	0x13e98 <_malloc_r+0x30>
   1422e: 13 d7 67 00  	srli	a4, a5, 0x6
   14232: 1b 06 97 03  	addiw	a2, a4, 0x39
   14236: 1b 16 16 00  	slliw	a2, a2, 0x1
   1423a: 9b 06 87 03  	addiw	a3, a4, 0x38
   1423e: 0e 06        	slli	a2, a2, 0x3
   14240: 39 b7        	j	0x1414e <_malloc_r+0x2e6>
   14242: 63 0e 34 05  	beq	s0, s3, 0x1429e <_malloc_r+0x436>
   14246: 03 b4 09 01  	ld	s0, 0x10(s3)
   1424a: e2 6b        	ld	s7, 0x18(sp)
   1424c: 1c 64        	ld	a5, 0x8(s0)
   1424e: 69 b5        	j	0x140d8 <_malloc_r+0x270>
   14250: 9b 85 c7 05  	addiw	a1, a5, 0x5c
   14254: 1b 96 15 00  	slliw	a2, a1, 0x1
   14258: 1b 88 b7 05  	addiw	a6, a5, 0x5b
   1425c: 0e 06        	slli	a2, a2, 0x3
   1425e: 6d b9        	j	0x13f18 <_malloc_r+0xb0>
   14260: 83 37 03 01  	ld	a5, 0x10(t1)
   14264: fd 35        	addiw	a1, a1, -0x1
   14266: 63 92 67 20  	bne	a5, t1, 0x1446a <_malloc_r+0x602>
   1426a: 93 f7 35 00  	andi	a5, a1, 0x3
   1426e: 41 13        	addi	t1, t1, -0x10
   14270: e5 fb        	bnez	a5, 0x14260 <_malloc_r+0x3f8>
   14272: 03 b7 89 00  	ld	a4, 0x8(s3)
   14276: 93 47 f6 ff  	not	a5, a2
   1427a: f9 8f        	and	a5, a5, a4
   1427c: 23 b4 f9 00  	sd	a5, 0x8(s3)
   14280: 06 06        	slli	a2, a2, 0x1
   14282: e3 ea c7 da  	bltu	a5, a2, 0x14036 <_malloc_r+0x1ce>
   14286: e3 08 06 da  	beqz	a2, 0x14036 <_malloc_r+0x1ce>
   1428a: 33 77 f6 00  	and	a4, a2, a5
   1428e: 11 e7        	bnez	a4, 0x1429a <_malloc_r+0x432>
   14290: 06 06        	slli	a2, a2, 0x1
   14292: 33 77 f6 00  	and	a4, a2, a5
   14296: 11 2e        	addiw	t3, t3, 0x4
   14298: 65 df        	beqz	a4, 0x14290 <_malloc_r+0x428>
   1429a: f2 85        	mv	a1, t3
   1429c: 2d bb        	j	0x13fd6 <_malloc_r+0x16e>
   1429e: 93 8b 01 2b  	addi	s7, gp, 0x2b0
   142a2: 83 a7 0b 00  	lw	a5, 0x0(s7)
   142a6: bb 86 47 01  	addw	a3, a5, s4
   142aa: 23 a0 db 00  	sw	a3, 0x0(s7)
   142ae: 03 b7 01 22  	ld	a4, 0x220(gp)
   142b2: fd 57        	li	a5, -0x1
   142b4: 63 0c f7 12  	beq	a4, a5, 0x143ec <_malloc_r+0x584>
   142b8: b3 07 8b 41  	sub	a5, s6, s8
   142bc: b5 9f        	addw	a5, a5, a3
   142be: 23 a0 fb 00  	sw	a5, 0x0(s7)
   142c2: 93 7c fb 00  	andi	s9, s6, 0xf
   142c6: 63 85 0c 0a  	beqz	s9, 0x14370 <_malloc_r+0x508>
   142ca: 33 0b 9b 41  	sub	s6, s6, s9
   142ce: 05 67        	lui	a4, 0x1
   142d0: 41 07        	addi	a4, a4, 0x10
   142d2: 41 0b        	addi	s6, s6, 0x10
   142d4: 33 0c 97 41  	sub	s8, a4, s9
   142d8: 5a 9a        	add	s4, s4, s6
   142da: 33 0c 4c 41  	sub	s8, s8, s4
   142de: 52 1c        	slli	s8, s8, 0x34
   142e0: 13 5c 4c 03  	srli	s8, s8, 0x34
   142e4: e2 85        	mv	a1, s8
   142e6: 4a 85        	mv	a0, s2
   142e8: ef 20 10 18  	jal	0x16c68 <_sbrk_r>
   142ec: fd 57        	li	a5, -0x1
   142ee: 63 0e f5 12  	beq	a0, a5, 0x1442a <_malloc_r+0x5c2>
   142f2: 33 05 65 41  	sub	a0, a0, s6
   142f6: 9b 06 0c 00  	sext.w	a3, s8
   142fa: 33 0a 85 01  	add	s4, a0, s8
   142fe: 03 a7 0b 00  	lw	a4, 0x0(s7)
   14302: 23 b8 69 01  	sd	s6, 0x10(s3)
   14306: 93 67 1a 00  	ori	a5, s4, 0x1
   1430a: 35 9f        	addw	a4, a4, a3
   1430c: 23 a0 eb 00  	sw	a4, 0x0(s7)
   14310: 23 34 fb 00  	sd	a5, 0x8(s6)
   14314: e3 04 34 db  	beq	s0, s3, 0x140bc <_malloc_r+0x254>
   14318: 7d 46        	li	a2, 0x1f
   1431a: 63 7b 56 07  	bgeu	a2, s5, 0x14390 <_malloc_r+0x528>
   1431e: 14 64        	ld	a3, 0x8(s0)
   14320: 93 87 8a fe  	addi	a5, s5, -0x18
   14324: c1 9b        	andi	a5, a5, -0x10
   14326: 85 8a        	andi	a3, a3, 0x1
   14328: dd 8e        	or	a3, a3, a5
   1432a: 14 e4        	sd	a3, 0x8(s0)
   1432c: a5 45        	li	a1, 0x9
   1432e: b3 06 f4 00  	add	a3, s0, a5
   14332: 8c e6        	sd	a1, 0x8(a3)
   14334: 8c ea        	sd	a1, 0x10(a3)
   14336: 63 65 f6 00  	bltu	a2, a5, 0x14340 <_malloc_r+0x4d8>
   1433a: 83 37 8b 00  	ld	a5, 0x8(s6)
   1433e: bd bb        	j	0x140bc <_malloc_r+0x254>
   14340: 93 05 04 01  	addi	a1, s0, 0x10
   14344: 4a 85        	mv	a0, s2
   14346: ef 20 30 74  	jal	0x17288 <_free_r>
   1434a: 03 bb 09 01  	ld	s6, 0x10(s3)
   1434e: 03 a7 0b 00  	lw	a4, 0x0(s7)
   14352: 83 37 8b 00  	ld	a5, 0x8(s6)
   14356: 9d b3        	j	0x140bc <_malloc_r+0x254>
   14358: 13 0a 0a 02  	addi	s4, s4, 0x20
   1435c: 31 bb        	j	0x14078 <_malloc_r+0x210>
   1435e: 9b d6 26 40  	sraiw	a3, a3, 0x2
   14362: 85 47        	li	a5, 0x1
   14364: b3 97 d7 00  	sll	a5, a5, a3
   14368: 5d 8d        	or	a0, a0, a5
   1436a: 23 b4 a9 00  	sd	a0, 0x8(s3)
   1436e: f5 bb        	j	0x1416a <_malloc_r+0x302>
   14370: 33 0c 4b 01  	add	s8, s6, s4
   14374: 33 0c 80 41  	neg	s8, s8
   14378: 52 1c        	slli	s8, s8, 0x34
   1437a: 13 5c 4c 03  	srli	s8, s8, 0x34
   1437e: e2 85        	mv	a1, s8
   14380: 4a 85        	mv	a0, s2
   14382: ef 20 70 0e  	jal	0x16c68 <_sbrk_r>
   14386: fd 57        	li	a5, -0x1
   14388: 81 46        	li	a3, 0x0
   1438a: e3 14 f5 f6  	bne	a0, a5, 0x142f2 <_malloc_r+0x48a>
   1438e: 85 bf        	j	0x142fe <_malloc_r+0x496>
   14390: e2 6b        	ld	s7, 0x18(sp)
   14392: 85 47        	li	a5, 0x1
   14394: 23 34 fb 00  	sd	a5, 0x8(s6)
   14398: 4a 85        	mv	a0, s2
   1439a: ef 00 80 0d  	jal	0x14472 <__malloc_unlock>
   1439e: 01 45        	li	a0, 0x0
   143a0: 42 7a        	ld	s4, 0x30(sp)
   143a2: a2 7a        	ld	s5, 0x28(sp)
   143a4: 02 7b        	ld	s6, 0x20(sp)
   143a6: 42 6c        	ld	s8, 0x10(sp)
   143a8: a2 6c        	ld	s9, 0x8(sp)
   143aa: 0d b6        	j	0x13ecc <_malloc_r+0x64>
   143ac: 93 06 40 05  	li	a3, 0x54
   143b0: 63 e1 e6 04  	bltu	a3, a4, 0x143f2 <_malloc_r+0x58a>
   143b4: 13 d7 c7 00  	srli	a4, a5, 0xc
   143b8: 1b 06 f7 06  	addiw	a2, a4, 0x6f
   143bc: 1b 16 16 00  	slliw	a2, a2, 0x1
   143c0: 9b 06 e7 06  	addiw	a3, a4, 0x6e
   143c4: 0e 06        	slli	a2, a2, 0x3
   143c6: 61 b3        	j	0x1414e <_malloc_r+0x2e6>
   143c8: 13 07 40 15  	li	a4, 0x154
   143cc: 63 61 f7 04  	bltu	a4, a5, 0x1440e <_malloc_r+0x5a6>
   143d0: 93 d7 f4 00  	srli	a5, s1, 0xf
   143d4: 9b 85 87 07  	addiw	a1, a5, 0x78
   143d8: 1b 96 15 00  	slliw	a2, a1, 0x1
   143dc: 1b 88 77 07  	addiw	a6, a5, 0x77
   143e0: 0e 06        	slli	a2, a2, 0x3
   143e2: 1d be        	j	0x13f18 <_malloc_r+0xb0>
   143e4: 03 b4 09 01  	ld	s0, 0x10(s3)
   143e8: 1c 64        	ld	a5, 0x8(s0)
   143ea: fd b1        	j	0x140d8 <_malloc_r+0x270>
   143ec: 23 b0 61 23  	sd	s6, 0x220(gp)
   143f0: c9 bd        	j	0x142c2 <_malloc_r+0x45a>
   143f2: 93 06 40 15  	li	a3, 0x154
   143f6: 63 e0 e6 04  	bltu	a3, a4, 0x14436 <_malloc_r+0x5ce>
   143fa: 13 d7 f7 00  	srli	a4, a5, 0xf
   143fe: 1b 06 87 07  	addiw	a2, a4, 0x78
   14402: 1b 16 16 00  	slliw	a2, a2, 0x1
   14406: 9b 06 77 07  	addiw	a3, a4, 0x77
   1440a: 0e 06        	slli	a2, a2, 0x3
   1440c: 89 b3        	j	0x1414e <_malloc_r+0x2e6>
   1440e: 13 07 40 55  	li	a4, 0x554
   14412: 63 60 f7 04  	bltu	a4, a5, 0x14452 <_malloc_r+0x5ea>
   14416: 93 d7 24 01  	srli	a5, s1, 0x12
   1441a: 9b 85 d7 07  	addiw	a1, a5, 0x7d
   1441e: 1b 96 15 00  	slliw	a2, a1, 0x1
   14422: 1b 88 c7 07  	addiw	a6, a5, 0x7c
   14426: 0e 06        	slli	a2, a2, 0x3
   14428: c5 bc        	j	0x13f18 <_malloc_r+0xb0>
   1442a: c1 1c        	addi	s9, s9, -0x10
   1442c: 66 9a        	add	s4, s4, s9
   1442e: 33 0a 6a 41  	sub	s4, s4, s6
   14432: 81 46        	li	a3, 0x0
   14434: e9 b5        	j	0x142fe <_malloc_r+0x496>
   14436: 93 06 40 55  	li	a3, 0x554
   1443a: 63 e3 e6 02  	bltu	a3, a4, 0x14460 <_malloc_r+0x5f8>
   1443e: 13 d7 27 01  	srli	a4, a5, 0x12
   14442: 1b 06 d7 07  	addiw	a2, a4, 0x7d
   14446: 1b 16 16 00  	slliw	a2, a2, 0x1
   1444a: 9b 06 c7 07  	addiw	a3, a4, 0x7c
   1444e: 0e 06        	slli	a2, a2, 0x3
   14450: fd b9        	j	0x1414e <_malloc_r+0x2e6>
   14452: 13 06 00 7f  	li	a2, 0x7f0
   14456: 93 05 f0 07  	li	a1, 0x7f
   1445a: 13 08 e0 07  	li	a6, 0x7e
   1445e: 6d bc        	j	0x13f18 <_malloc_r+0xb0>
   14460: 13 06 00 7f  	li	a2, 0x7f0
   14464: 93 06 e0 07  	li	a3, 0x7e
   14468: dd b1        	j	0x1414e <_malloc_r+0x2e6>
   1446a: 83 b7 89 00  	ld	a5, 0x8(s3)
   1446e: 09 bd        	j	0x14280 <_malloc_r+0x418>

0000000000014470 <__malloc_lock>:
   14470: 82 80        	ret

0000000000014472 <__malloc_unlock>:
   14472: 82 80        	ret

0000000000014474 <sulp>:
   14474: 53 05 05 f2  	fmv.d.x	fa0, a0
   14478: 01 11        	addi	sp, sp, -0x20
   1447a: 26 e4        	sd	s1, 0x8(sp)
   1447c: ae 84        	mv	s1, a1
   1447e: 22 e8        	sd	s0, 0x10(sp)
   14480: 06 ec        	sd	ra, 0x18(sp)
   14482: 2a 84        	mv	s0, a0
   14484: ef 40 60 2b  	jal	0x1873a <__ulp>
   14488: 85 c4        	beqz	s1, 0x144b0 <sulp+0x3c>
   1448a: 51 90        	srli	s0, s0, 0x34
   1448c: 13 74 f4 7f  	andi	s0, s0, 0x7ff
   14490: 93 07 b0 06  	li	a5, 0x6b
   14494: 3b 87 87 40  	subw	a4, a5, s0
   14498: 63 5c e0 00  	blez	a4, 0x144b0 <sulp+0x3c>
   1449c: 9b 17 47 01  	slliw	a5, a4, 0x14
   144a0: 37 07 f0 3f  	lui	a4, 0x3ff00
   144a4: b9 9f        	addw	a5, a5, a4
   144a6: 82 17        	slli	a5, a5, 0x20
   144a8: d3 87 07 f2  	fmv.d.x	fa5, a5
   144ac: 53 75 f5 12  	fmul.d	fa0, fa0, fa5
   144b0: e2 60        	ld	ra, 0x18(sp)
   144b2: 42 64        	ld	s0, 0x10(sp)
   144b4: a2 64        	ld	s1, 0x8(sp)
   144b6: 05 61        	addi	sp, sp, 0x20
   144b8: 82 80        	ret

00000000000144ba <_strtod_l>:
   144ba: 11 71        	addi	sp, sp, -0x100
   144bc: a2 f9        	sd	s0, 0xf0(sp)
   144be: a6 f5        	sd	s1, 0xe8(sp)
   144c0: d2 e9        	sd	s4, 0xd0(sp)
   144c2: 2a 84        	mv	s0, a0
   144c4: 86 fd        	sd	ra, 0xf8(sp)
   144c6: d6 e5        	sd	s5, 0xc8(sp)
   144c8: 5e fd        	sd	s7, 0xb8(sp)
   144ca: 6e ed        	sd	s11, 0x98(sp)
   144cc: 2e 8a        	mv	s4, a1
   144ce: b2 84        	mv	s1, a2
   144d0: 82 e8        	sd	zero, 0x50(sp)
   144d2: 2e 87        	mv	a4, a1
   144d4: 13 05 d0 02  	li	a0, 0x2d
   144d8: ba e4        	sd	a4, 0x48(sp)
   144da: 83 47 07 00  	lbu	a5, 0x0(a4)
   144de: ba 8a        	mv	s5, a4
   144e0: 63 6b f5 00  	bltu	a0, a5, 0x144f6 <_strtod_l+0x3c>
   144e4: b7 05 02 00  	lui	a1, 0x20
   144e8: 13 96 27 00  	slli	a2, a5, 0x2
   144ec: 93 85 c5 be  	addi	a1, a1, -0x414
   144f0: 2e 96        	add	a2, a2, a1
   144f2: 10 42        	lw	a2, 0x0(a2)
   144f4: 02 86        	jr	a2
   144f6: ca f1        	sd	s2, 0xe0(sp)
   144f8: 66 f5        	sd	s9, 0xa8(sp)
   144fa: 81 4b        	li	s7, 0x0
   144fc: 13 07 00 03  	li	a4, 0x30
   14500: 81 4c        	li	s9, 0x0
   14502: 63 8f e7 12  	beq	a5, a4, 0x14640 <_strtod_l+0x186>
   14506: ce ed        	sd	s3, 0xd8(sp)
   14508: da e1        	sd	s6, 0xc0(sp)
   1450a: 62 f9        	sd	s8, 0xb0(sp)
   1450c: 13 07 f0 02  	li	a4, 0x2f
   14510: 9b 89 07 00  	sext.w	s3, a5
   14514: e3 78 f7 26  	bgeu	a4, a5, 0x14f84 <_strtod_l+0xaca>
   14518: 56 85        	mv	a0, s5
   1451a: 01 4c        	li	s8, 0x0
   1451c: 01 4b        	li	s6, 0x0
   1451e: 01 49        	li	s2, 0x0
   14520: 13 07 90 03  	li	a4, 0x39
   14524: a1 45        	li	a1, 0x8
   14526: 93 06 f0 02  	li	a3, 0x2f
   1452a: 63 44 37 0b  	blt	a4, s3, 0x145d2 <_strtod_l+0x118>
   1452e: 63 c8 25 09  	blt	a1, s2, 0x145be <_strtod_l+0x104>
   14532: 1b 16 2b 00  	slliw	a2, s6, 0x2
   14536: 3b 06 66 01  	addw	a2, a2, s6
   1453a: 1b 16 16 00  	slliw	a2, a2, 0x1
   1453e: 3d 9e        	addw	a2, a2, a5
   14540: 1b 0b 06 fd  	addiw	s6, a2, -0x30
   14544: 05 05        	addi	a0, a0, 0x1
   14546: aa e4        	sd	a0, 0x48(sp)
   14548: 83 47 05 00  	lbu	a5, 0x0(a0)
   1454c: 05 29        	addiw	s2, s2, 0x1
   1454e: 9b 89 07 00  	sext.w	s3, a5
   14552: e3 cc f6 fc  	blt	a3, a5, 0x1452a <_strtod_l+0x70>
   14556: b7 05 02 00  	lui	a1, 0x20
   1455a: 05 46        	li	a2, 0x1
   1455c: 93 85 05 a2  	addi	a1, a1, -0x5e0
   14560: ef 20 00 41  	jal	0x16970 <strncmp>
   14564: 63 16 05 10  	bnez	a0, 0x14670 <_strtod_l+0x1b6>
   14568: a6 67        	ld	a5, 0x48(sp)
   1456a: 4a 86        	mv	a2, s2
   1456c: 01 48        	li	a6, 0x0
   1456e: 13 87 17 00  	addi	a4, a5, 0x1
   14572: ba e4        	sd	a4, 0x48(sp)
   14574: 83 c9 17 00  	lbu	s3, 0x1(a5)
   14578: 9b 87 09 fd  	addiw	a5, s3, -0x30
   1457c: 25 47        	li	a4, 0x9
   1457e: be 86        	mv	a3, a5
   14580: 63 61 f7 62  	bltu	a4, a5, 0x14ba2 <_strtod_l+0x6e8>
   14584: 05 25        	addiw	a0, a0, 0x1
   14586: a6 68        	ld	a7, 0x48(sp)
   14588: aa 8e        	mv	t4, a0
   1458a: e3 95 07 1a  	bnez	a5, 0x14f34 <_strtod_l+0xa7a>
   1458e: 93 87 18 00  	addi	a5, a7, 0x1
   14592: be e4        	sd	a5, 0x48(sp)
   14594: 83 c9 18 00  	lbu	s3, 0x1(a7)
   14598: c5 b7        	j	0x14578 <_strtod_l+0xbe>
   1459a: 05 07        	addi	a4, a4, 0x1
   1459c: 35 bf        	j	0x144d8 <_strtod_l+0x1e>
   1459e: 93 0d 00 00  	li	s11, 0x0
   145a2: 99 c0        	beqz	s1, 0x145a8 <_strtod_l+0xee>
   145a4: 23 b0 44 01  	sd	s4, 0x0(s1)
   145a8: ee 70        	ld	ra, 0xf8(sp)
   145aa: 4e 74        	ld	s0, 0xf0(sp)
   145ac: 53 85 0d f2  	fmv.d.x	fa0, s11
   145b0: ae 74        	ld	s1, 0xe8(sp)
   145b2: 4e 6a        	ld	s4, 0xd0(sp)
   145b4: ae 6a        	ld	s5, 0xc8(sp)
   145b6: ea 7b        	ld	s7, 0xb8(sp)
   145b8: ea 6d        	ld	s11, 0x98(sp)
   145ba: 11 61        	addi	sp, sp, 0x100
   145bc: 82 80        	ret
   145be: 1b 16 2c 00  	slliw	a2, s8, 0x2
   145c2: 3b 06 86 01  	addw	a2, a2, s8
   145c6: 1b 16 16 00  	slliw	a2, a2, 0x1
   145ca: b1 9f        	addw	a5, a5, a2
   145cc: 1b 8c 07 fd  	addiw	s8, a5, -0x30
   145d0: 95 bf        	j	0x14544 <_strtod_l+0x8a>
   145d2: b7 05 02 00  	lui	a1, 0x20
   145d6: 05 46        	li	a2, 0x1
   145d8: 93 85 05 a2  	addi	a1, a1, -0x5e0
   145dc: ef 20 40 39  	jal	0x16970 <strncmp>
   145e0: 41 e9        	bnez	a0, 0x14670 <_strtod_l+0x1b6>
   145e2: a6 66        	ld	a3, 0x48(sp)
   145e4: b6 87        	mv	a5, a3
   145e6: 85 06        	addi	a3, a3, 0x1
   145e8: b6 e4        	sd	a3, 0x48(sp)
   145ea: 83 c9 17 00  	lbu	s3, 0x1(a5)
   145ee: e3 13 09 2e  	bnez	s2, 0x150d4 <_strtod_l+0xc1a>
   145f2: 93 07 00 03  	li	a5, 0x30
   145f6: e3 97 f9 2c  	bne	s3, a5, 0x150c4 <_strtod_l+0xc0a>
   145fa: b6 87        	mv	a5, a3
   145fc: 13 07 00 03  	li	a4, 0x30
   14600: 3e 85        	mv	a0, a5
   14602: 85 07        	addi	a5, a5, 0x1
   14604: be e4        	sd	a5, 0x48(sp)
   14606: 83 c9 07 00  	lbu	s3, 0x0(a5)
   1460a: e3 8b e9 fe  	beq	s3, a4, 0x14600 <_strtod_l+0x146>
   1460e: 15 9d        	subw	a0, a0, a3
   14610: 05 25        	addiw	a0, a0, 0x1
   14612: 9b 87 f9 fc  	addiw	a5, s3, -0x31
   14616: 21 47        	li	a4, 0x8
   14618: 63 62 f7 58  	bltu	a4, a5, 0x14b9c <_strtod_l+0x6e2>
   1461c: a6 68        	ld	a7, 0x48(sp)
   1461e: 9b 87 09 fd  	addiw	a5, s3, -0x30
   14622: 1b 08 15 00  	addiw	a6, a0, 0x1
   14626: c6 8a        	mv	s5, a7
   14628: 05 49        	li	s2, 0x1
   1462a: 01 46        	li	a2, 0x0
   1462c: 1b 17 2b 00  	slliw	a4, s6, 0x2
   14630: 3b 07 67 01  	addw	a4, a4, s6
   14634: 1b 17 17 00  	slliw	a4, a4, 0x1
   14638: 3b 0b f7 00  	addw	s6, a4, a5
   1463c: 01 45        	li	a0, 0x0
   1463e: 81 bf        	j	0x1458e <_strtod_l+0xd4>
   14640: 83 c7 1a 00  	lbu	a5, 0x1(s5)
   14644: 13 06 80 05  	li	a2, 0x58
   14648: 13 89 1a 00  	addi	s2, s5, 0x1
   1464c: 93 f7 f7 0d  	andi	a5, a5, 0xdf
   14650: e3 86 c7 04  	beq	a5, a2, 0x14e9c <_strtod_l+0x9e2>
   14654: ca e4        	sd	s2, 0x48(sp)
   14656: 83 47 09 00  	lbu	a5, 0x0(s2)
   1465a: ca 8a        	mv	s5, s2
   1465c: 05 09        	addi	s2, s2, 0x1
   1465e: e3 8b e7 fe  	beq	a5, a4, 0x14654 <_strtod_l+0x19a>
   14662: 63 86 07 7c  	beqz	a5, 0x14e2e <_strtod_l+0x974>
   14666: ce ed        	sd	s3, 0xd8(sp)
   14668: da e1        	sd	s6, 0xc0(sp)
   1466a: 62 f9        	sd	s8, 0xb0(sp)
   1466c: 85 4c        	li	s9, 0x1
   1466e: 79 bd        	j	0x1450c <_strtod_l+0x52>
   14670: 4a 86        	mv	a2, s2
   14672: 01 45        	li	a0, 0x0
   14674: 01 48        	li	a6, 0x0
   14676: 01 43        	li	t1, 0x0
   14678: 93 f7 f9 fd  	andi	a5, s3, -0x21
   1467c: 13 07 50 04  	li	a4, 0x45
   14680: 81 48        	li	a7, 0x0
   14682: 63 82 e7 08  	beq	a5, a4, 0x14706 <_strtod_l+0x24c>
   14686: 63 17 09 14  	bnez	s2, 0x147d4 <_strtod_l+0x31a>
   1468a: 33 e5 ac 00  	or	a0, s9, a0
   1468e: 01 25        	sext.w	a0, a0
   14690: 63 19 05 78  	bnez	a0, 0x14e22 <_strtod_l+0x968>
   14694: 63 18 03 12  	bnez	t1, 0x147c4 <_strtod_l+0x30a>
   14698: 93 07 90 06  	li	a5, 0x69
   1469c: 63 8f f9 60  	beq	s3, a5, 0x14cba <_strtod_l+0x800>
   146a0: 63 ce 37 11  	blt	a5, s3, 0x147bc <_strtod_l+0x302>
   146a4: 93 07 90 04  	li	a5, 0x49
   146a8: 63 89 f9 60  	beq	s3, a5, 0x14cba <_strtod_l+0x800>
   146ac: 93 07 e0 04  	li	a5, 0x4e
   146b0: 63 9a f9 10  	bne	s3, a5, 0x147c4 <_strtod_l+0x30a>
   146b4: b7 05 02 00  	lui	a1, 0x20
   146b8: 93 85 85 a3  	addi	a1, a1, -0x5c8
   146bc: a8 00        	addi	a0, sp, 0x48
   146be: ef 30 20 4e  	jal	0x17ba0 <__match>
   146c2: 63 01 05 10  	beqz	a0, 0x147c4 <_strtod_l+0x30a>
   146c6: 26 67        	ld	a4, 0x48(sp)
   146c8: 93 07 80 02  	li	a5, 0x28
   146cc: 03 47 07 00  	lbu	a4, 0x0(a4)
   146d0: e3 0a f7 2e  	beq	a4, a5, 0x151c4 <_strtod_l+0xd0a>
   146d4: 37 05 02 00  	lui	a0, 0x20
   146d8: 13 05 05 b8  	addi	a0, a0, -0x480
   146dc: ef 20 30 1f  	jal	0x170ce <nan>
   146e0: d3 0d 05 e2  	fmv.x.d	s11, fa0
   146e4: ee 69        	ld	s3, 0xd8(sp)
   146e6: 0e 6b        	ld	s6, 0xc0(sp)
   146e8: 4a 7c        	ld	s8, 0xb0(sp)
   146ea: 99 c0        	beqz	s1, 0x146f0 <_strtod_l+0x236>
   146ec: a6 67        	ld	a5, 0x48(sp)
   146ee: 9c e0        	sd	a5, 0x0(s1)
   146f0: e3 84 0b 0c  	beqz	s7, 0x14fb8 <_strtod_l+0xafe>
   146f4: d3 87 0d f2  	fmv.d.x	fa5, s11
   146f8: 0e 79        	ld	s2, 0xe0(sp)
   146fa: aa 7c        	ld	s9, 0xa8(sp)
   146fc: d3 97 f7 22  	fneg.d	fa5, fa5
   14700: d3 8d 07 e2  	fmv.x.d	s11, fa5
   14704: 55 b5        	j	0x145a8 <_strtod_l+0xee>
   14706: b3 67 a9 00  	or	a5, s2, a0
   1470a: b3 e7 fc 00  	or	a5, s9, a5
   1470e: 81 27        	sext.w	a5, a5
   14710: d5 cb        	beqz	a5, 0x147c4 <_strtod_l+0x30a>
   14712: 26 6a        	ld	s4, 0x48(sp)
   14714: 93 07 b0 02  	li	a5, 0x2b
   14718: 13 07 1a 00  	addi	a4, s4, 0x1
   1471c: ba e4        	sd	a4, 0x48(sp)
   1471e: 83 49 1a 00  	lbu	s3, 0x1(s4)
   14722: 63 8b f9 76  	beq	s3, a5, 0x14e98 <_strtod_l+0x9de>
   14726: 93 07 d0 02  	li	a5, 0x2d
   1472a: 63 9e f9 46  	bne	s3, a5, 0x14ba6 <_strtod_l+0x6ec>
   1472e: 05 4e        	li	t3, 0x1
   14730: 93 07 2a 00  	addi	a5, s4, 0x2
   14734: be e4        	sd	a5, 0x48(sp)
   14736: 83 49 2a 00  	lbu	s3, 0x2(s4)
   1473a: 1b 87 09 fd  	addiw	a4, s3, -0x30
   1473e: a5 47        	li	a5, 0x9
   14740: ba 85        	mv	a1, a4
   14742: 63 ec e7 6a  	bltu	a5, a4, 0x14dfa <_strtod_l+0x940>
   14746: 13 07 00 03  	li	a4, 0x30
   1474a: a6 67        	ld	a5, 0x48(sp)
   1474c: 63 97 e9 02  	bne	s3, a4, 0x1477a <_strtod_l+0x2c0>
   14750: 93 86 17 00  	addi	a3, a5, 0x1
   14754: 93 05 00 03  	li	a1, 0x30
   14758: b6 e4        	sd	a3, 0x48(sp)
   1475a: 03 c7 06 00  	lbu	a4, 0x0(a3)
   1475e: b6 87        	mv	a5, a3
   14760: 85 06        	addi	a3, a3, 0x1
   14762: 9b 09 07 00  	sext.w	s3, a4
   14766: e3 09 b7 fe  	beq	a4, a1, 0x14758 <_strtod_l+0x29e>
   1476a: 1b 07 f7 fc  	addiw	a4, a4, -0x31
   1476e: a1 46        	li	a3, 0x8
   14770: 81 48        	li	a7, 0x0
   14772: e3 ea e6 f0  	bltu	a3, a4, 0x14686 <_strtod_l+0x1cc>
   14776: 9b 85 09 fd  	addiw	a1, s3, -0x30
   1477a: 93 86 17 00  	addi	a3, a5, 0x1
   1477e: b6 e4        	sd	a3, 0x48(sp)
   14780: 83 c9 17 00  	lbu	s3, 0x1(a5)
   14784: 13 07 f0 02  	li	a4, 0x2f
   14788: b6 88        	mv	a7, a3
   1478a: 93 0e 90 03  	li	t4, 0x39
   1478e: 13 0f f0 02  	li	t5, 0x2f
   14792: 63 52 37 63  	bge	a4, s3, 0x14db6 <_strtod_l+0x8fc>
   14796: 63 c9 3e 61  	blt	t4, s3, 0x14da8 <_strtod_l+0x8ee>
   1479a: 1b 97 25 00  	slliw	a4, a1, 0x2
   1479e: 2d 9f        	addw	a4, a4, a1
   147a0: 85 06        	addi	a3, a3, 0x1
   147a2: 1b 17 17 00  	slliw	a4, a4, 0x1
   147a6: b6 e4        	sd	a3, 0x48(sp)
   147a8: 3b 07 37 01  	addw	a4, a4, s3
   147ac: 83 c9 18 00  	lbu	s3, 0x1(a7)
   147b0: 9b 05 07 fd  	addiw	a1, a4, -0x30
   147b4: 63 5a 3f 5f  	bge	t5, s3, 0x14da8 <_strtod_l+0x8ee>
   147b8: b6 88        	mv	a7, a3
   147ba: f1 bf        	j	0x14796 <_strtod_l+0x2dc>
   147bc: 93 07 e0 06  	li	a5, 0x6e
   147c0: e3 8a f9 ee  	beq	s3, a5, 0x146b4 <_strtod_l+0x1fa>
   147c4: 0e 79        	ld	s2, 0xe0(sp)
   147c6: ee 69        	ld	s3, 0xd8(sp)
   147c8: 0e 6b        	ld	s6, 0xc0(sp)
   147ca: 4a 7c        	ld	s8, 0xb0(sp)
   147cc: aa 7c        	ld	s9, 0xa8(sp)
   147ce: 93 0d 00 00  	li	s11, 0x0
   147d2: c1 bb        	j	0x145a2 <_strtod_l+0xe8>
   147d4: 6a f1        	sd	s10, 0xa0(sp)
   147d6: bb 89 08 41  	subw	s3, a7, a6
   147da: 1b 8d 09 00  	sext.w	s10, s3
   147de: 11 e2        	bnez	a2, 0x147e2 <_strtod_l+0x328>
   147e0: 4a 86        	mv	a2, s2
   147e2: 41 47        	li	a4, 0x10
   147e4: ca 87        	mv	a5, s2
   147e6: 63 53 27 01  	bge	a4, s2, 0x147ec <_strtod_l+0x332>
   147ea: c1 47        	li	a5, 0x10
   147ec: d3 07 1b d2  	fcvt.d.wu	fa5, s6
   147f0: a5 46        	li	a3, 0x9
   147f2: 1b 87 07 00  	sext.w	a4, a5
   147f6: d3 85 07 e2  	fmv.x.d	a1, fa5
   147fa: 2e 8a        	mv	s4, a1
   147fc: 63 d5 26 03  	bge	a3, s2, 0x14826 <_strtod_l+0x36c>
   14800: dd 37        	addiw	a5, a5, -0x9
   14802: b7 06 02 00  	lui	a3, 0x20
   14806: 8e 07        	slli	a5, a5, 0x3
   14808: 93 86 06 f8  	addi	a3, a3, -0x80
   1480c: b6 97        	add	a5, a5, a3
   1480e: 98 23        	fld	fa4, 0x0(a5)
   14810: d3 07 1c d2  	fcvt.d.wu	fa5, s8
   14814: d3 86 05 f2  	fmv.d.x	fa3, a1
   14818: bd 47        	li	a5, 0xf
   1481a: c3 f7 e6 7a  	fmadd.d	fa5, fa3, fa4, fa5
   1481e: 53 8a 07 e2  	fmv.x.d	s4, fa5
   14822: 63 cd 27 05  	blt	a5, s2, 0x1487c <_strtod_l+0x3c2>
   14826: d2 8d        	mv	s11, s4
   14828: 63 05 0d 04  	beqz	s10, 0x14872 <_strtod_l+0x3b8>
   1482c: 63 56 a0 45  	blez	s10, 0x14c78 <_strtod_l+0x7be>
   14830: d9 47        	li	a5, 0x16
   14832: 63 d7 a7 79  	bge	a5, s10, 0x14fc0 <_strtod_l+0xb06>
   14836: 93 07 50 02  	li	a5, 0x25
   1483a: bb 87 27 41  	subw	a5, a5, s2
   1483e: 63 cf a7 03  	blt	a5, s10, 0x1487c <_strtod_l+0x3c2>
   14842: bd 47        	li	a5, 0xf
   14844: bb 86 27 41  	subw	a3, a5, s2
   14848: 37 07 02 00  	lui	a4, 0x20
   1484c: b6 87        	mv	a5, a3
   1484e: 13 07 07 f8  	addi	a4, a4, -0x80
   14852: 8e 06        	slli	a3, a3, 0x3
   14854: ba 96        	add	a3, a3, a4
   14856: 53 07 0a f2  	fmv.d.x	fa4, s4
   1485a: 9c 22        	fld	fa5, 0x0(a3)
   1485c: bb 87 f9 40  	subw	a5, s3, a5
   14860: 8e 07        	slli	a5, a5, 0x3
   14862: d3 f7 e7 12  	fmul.d	fa5, fa5, fa4
   14866: 3e 97        	add	a4, a4, a5
   14868: 18 23        	fld	fa4, 0x0(a4)
   1486a: d3 f7 e7 12  	fmul.d	fa5, fa5, fa4
   1486e: d3 8d 07 e2  	fmv.x.d	s11, fa5
   14872: ee 69        	ld	s3, 0xd8(sp)
   14874: 0e 6b        	ld	s6, 0xc0(sp)
   14876: 4a 7c        	ld	s8, 0xb0(sp)
   14878: 0a 7d        	ld	s10, 0xa0(sp)
   1487a: 85 bd        	j	0x146ea <_strtod_l+0x230>
   1487c: 3b 07 e9 40  	subw	a4, s2, a4
   14880: bb 07 37 01  	addw	a5, a4, s3
   14884: 63 54 f0 32  	blez	a5, 0x14bac <_strtod_l+0x6f2>
   14888: 13 f7 f7 00  	andi	a4, a5, 0xf
   1488c: 11 cf        	beqz	a4, 0x148a8 <_strtod_l+0x3ee>
   1488e: b7 06 02 00  	lui	a3, 0x20
   14892: 0e 07        	slli	a4, a4, 0x3
   14894: 93 86 06 f8  	addi	a3, a3, -0x80
   14898: 36 97        	add	a4, a4, a3
   1489a: 53 07 0a f2  	fmv.d.x	fa4, s4
   1489e: 1c 23        	fld	fa5, 0x0(a4)
   148a0: d3 f7 e7 12  	fmul.d	fa5, fa5, fa4
   148a4: 53 8a 07 e2  	fmv.x.d	s4, fa5
   148a8: c1 9b        	andi	a5, a5, -0x10
   148aa: c9 cf        	beqz	a5, 0x14944 <_strtod_l+0x48a>
   148ac: 13 07 40 13  	li	a4, 0x134
   148b0: 63 46 f7 74  	blt	a4, a5, 0x14ffc <_strtod_l+0xb42>
   148b4: 91 87        	srai	a5, a5, 0x4
   148b6: 05 47        	li	a4, 0x1
   148b8: e3 57 f7 1a  	bge	a4, a5, 0x15266 <_strtod_l+0xdac>
   148bc: 37 07 02 00  	lui	a4, 0x20
   148c0: 93 0e 87 f5  	addi	t4, a4, -0xa8
   148c4: 52 85        	mv	a0, s4
   148c6: 13 07 87 f5  	addi	a4, a4, -0xa8
   148ca: 01 4e        	li	t3, 0x0
   148cc: 81 46        	li	a3, 0x0
   148ce: 05 43        	li	t1, 0x1
   148d0: 93 f5 17 00  	andi	a1, a5, 0x1
   148d4: 89 c9        	beqz	a1, 0x148e6 <_strtod_l+0x42c>
   148d6: 53 07 05 f2  	fmv.d.x	fa4, a0
   148da: 1c 23        	fld	fa5, 0x0(a4)
   148dc: 05 4e        	li	t3, 0x1
   148de: d3 77 f7 12  	fmul.d	fa5, fa4, fa5
   148e2: 53 85 07 e2  	fmv.x.d	a0, fa5
   148e6: 85 87        	srai	a5, a5, 0x1
   148e8: 85 26        	addiw	a3, a3, 0x1
   148ea: 21 07        	addi	a4, a4, 0x8
   148ec: e3 92 67 fe  	bne	a5, t1, 0x148d0 <_strtod_l+0x416>
   148f0: 63 03 0e 00  	beqz	t3, 0x148f6 <_strtod_l+0x43c>
   148f4: 2a 8a        	mv	s4, a0
   148f6: 13 57 0a 02  	srli	a4, s4, 0x20
   148fa: b7 07 b0 fc  	lui	a5, 0xfcb00
   148fe: b9 9f        	addw	a5, a5, a4
   14900: 7d 57        	li	a4, -0x1
   14902: 01 93        	srli	a4, a4, 0x20
   14904: 8e 06        	slli	a3, a3, 0x3
   14906: 82 17        	slli	a5, a5, 0x20
   14908: 33 7a ea 00  	and	s4, s4, a4
   1490c: b6 9e        	add	t4, t4, a3
   1490e: 33 6a fa 00  	or	s4, s4, a5
   14912: 87 b7 0e 00  	fld	fa5, 0x0(t4)
   14916: 53 07 0a f2  	fmv.d.x	fa4, s4
   1491a: b7 06 f0 7f  	lui	a3, 0x7ff00
   1491e: 37 05 a0 7c  	lui	a0, 0x7ca00
   14922: d3 f7 e7 12  	fmul.d	fa5, fa5, fa4
   14926: d3 87 07 e2  	fmv.x.d	a5, fa5
   1492a: 93 d5 07 42  	srai	a1, a5, 0x20
   1492e: ed 8e        	and	a3, a3, a1
   14930: 63 66 d5 6c  	bltu	a0, a3, 0x14ffc <_strtod_l+0xb42>
   14934: 37 05 90 7c  	lui	a0, 0x7c900
   14938: e3 7c d5 06  	bgeu	a0, a3, 0x151b0 <_strtod_l+0xcf6>
   1493c: 13 0a f0 7f  	li	s4, 0x7ff
   14940: 52 1a        	slli	s4, s4, 0x34
   14942: 7d 1a        	addi	s4, s4, -0x1
   14944: 81 4c        	li	s9, 0x0
   14946: 5a 87        	mv	a4, s6
   14948: ca 86        	mv	a3, s2
   1494a: d6 85        	mv	a1, s5
   1494c: 22 85        	mv	a0, s0
   1494e: 42 e8        	sd	a6, 0x10(sp)
   14950: 46 e4        	sd	a7, 0x8(sp)
   14952: ef 30 00 5f  	jal	0x17f42 <__s2b>
   14956: 2a 8c        	mv	s8, a0
   14958: 63 02 05 6a  	beqz	a0, 0x14ffc <_strtod_l+0xb42>
   1495c: 42 68        	ld	a6, 0x10(sp)
   1495e: 13 47 fd ff  	not	a4, s10
   14962: a2 68        	ld	a7, 0x8(sp)
   14964: 9b 57 f7 01  	srliw	a5, a4, 0x1f
   14968: 93 b7 17 00  	seqz	a5, a5
   1496c: bb 07 f0 40  	negw	a5, a5
   14970: bb 08 18 41  	subw	a7, a6, a7
   14974: b3 f8 f8 00  	and	a7, a7, a5
   14978: 26 a1        	cm.jalt	0x49
   1497a: 87 b4 81 0e  	fld	fs1, 0xe8(gp)
   1497e: ca bc        	cm.popretz	{ra, s0-s7}, 112
   14980: 07 b9 81 12  	fld	fs2, 0x128(gp)
   14984: ce b8        	cm.push	{ra, s0-s7}, -128
   14986: 7d 97        	srai	a4, a4, 0x3f
   14988: 87 b9 01 0e  	fld	fs3, 0xe0(gp)
   1498c: d2 b4        	fsd	fs4, 0x68(sp)
   1498e: b3 f9 e9 00  	and	s3, s3, a4
   14992: 07 ba 01 13  	fld	fs4, 0x130(gp)
   14996: 9b 87 08 00  	sext.w	a5, a7
   1499a: 3e e8        	sd	a5, 0x10(sp)
   1499c: 9b 87 09 00  	sext.w	a5, s3
   149a0: 22 a5        	fsd	fs0, 0x88(sp)
   149a2: 3e ec        	sd	a5, 0x18(sp)
   149a4: 81 4a        	li	s5, 0x0
   149a6: 01 49        	li	s2, 0x0
   149a8: 83 25 8c 00  	lw	a1, 0x8(s8)
   149ac: 22 85        	mv	a0, s0
   149ae: ef 30 40 43  	jal	0x17de2 <_Balloc>
   149b2: aa 89        	mv	s3, a0
   149b4: 63 0e 05 3c  	beqz	a0, 0x14d90 <_strtod_l+0x8d6>
   149b8: 03 26 4c 01  	lw	a2, 0x14(s8)
   149bc: 93 05 0c 01  	addi	a1, s8, 0x10
   149c0: 41 05        	addi	a0, a0, 0x10
   149c2: 09 06        	addi	a2, a2, 0x2
   149c4: 0a 06        	slli	a2, a2, 0x2
   149c6: ef 20 60 43  	jal	0x16dfc <memcpy>
   149ca: 53 05 0a f2  	fmv.d.x	fa0, s4
   149ce: b0 08        	addi	a2, sp, 0x58
   149d0: cc 00        	addi	a1, sp, 0x44
   149d2: 22 85        	mv	a0, s0
   149d4: 52 e4        	sd	s4, 0x8(sp)
   149d6: ef 30 10 6c  	jal	0x18896 <__d2b>
   149da: aa e8        	sd	a0, 0x50(sp)
   149dc: 63 0f 05 34  	beqz	a0, 0x14d3a <_strtod_l+0x880>
   149e0: 85 45        	li	a1, 0x1
   149e2: 22 85        	mv	a0, s0
   149e4: ef 30 e0 73  	jal	0x18122 <__i2b>
   149e8: 2a 89        	mv	s2, a0
   149ea: 63 03 05 3a  	beqz	a0, 0x14d90 <_strtod_l+0x8d6>
   149ee: 96 47        	lw	a5, 0x44(sp)
   149f0: 63 c0 07 40  	bltz	a5, 0x14df0 <_strtod_l+0x936>
   149f4: 42 67        	ld	a4, 0x10(sp)
   149f6: 62 66        	ld	a2, 0x18(sp)
   149f8: 3b 8b e7 00  	addw	s6, a5, a4
   149fc: 66 47        	lw	a4, 0x58(sp)
   149fe: bb 87 97 41  	subw	a5, a5, s9
   14a02: 93 05 60 03  	li	a1, 0x36
   14a06: b9 9f        	addw	a5, a5, a4
   14a08: 1b 88 f7 ff  	addiw	a6, a5, -0x1
   14a0c: 3b 87 e5 40  	subw	a4, a1, a4
   14a10: 13 05 20 c0  	li	a0, -0x3fe
   14a14: c2 87        	mv	a5, a6
   14a16: ba 85        	mv	a1, a4
   14a18: 63 5d a8 3a  	bge	a6, a0, 0x14dd2 <_strtod_l+0x918>
   14a1c: 13 07 20 c0  	li	a4, -0x3fe
   14a20: 3b 05 07 41  	subw	a0, a4, a6
   14a24: 7d 48        	li	a6, 0x1f
   14a26: 3b 87 a5 40  	subw	a4, a1, a0
   14a2a: 63 4c a8 3c  	blt	a6, a0, 0x14e02 <_strtod_l+0x948>
   14a2e: 85 47        	li	a5, 0x1
   14a30: bb 97 a7 00  	sllw	a5, a5, a0
   14a34: 3e f0        	sd	a5, 0x20(sp)
   14a36: 02 f4        	sd	zero, 0x28(sp)
   14a38: 39 9e        	addw	a2, a2, a4
   14a3a: bb 85 cc 00  	addw	a1, s9, a2
   14a3e: 3b 08 eb 00  	addw	a6, s6, a4
   14a42: 42 87        	mv	a4, a6
   14a44: 2e 86        	mv	a2, a1
   14a46: ae 8d        	mv	s11, a1
   14a48: da 87        	mv	a5, s6
   14a4a: 63 53 68 01  	bge	a6, s6, 0x14a50 <_strtod_l+0x596>
   14a4e: c2 87        	mv	a5, a6
   14a50: 1b 85 07 00  	sext.w	a0, a5
   14a54: 63 d3 a5 00  	bge	a1, a0, 0x14a5a <_strtod_l+0x5a0>
   14a58: b2 87        	mv	a5, a2
   14a5a: 9b 85 07 00  	sext.w	a1, a5
   14a5e: 63 58 b0 00  	blez	a1, 0x14a6e <_strtod_l+0x5b4>
   14a62: 3b 08 f7 40  	subw	a6, a4, a5
   14a66: bb 0d f6 40  	subw	s11, a2, a5
   14a6a: 3b 0b fb 40  	subw	s6, s6, a5
   14a6e: 42 66        	ld	a2, 0x10(sp)
   14a70: 63 42 c0 28  	bgtz	a2, 0x14cf4 <_strtod_l+0x83a>
   14a74: 63 4b 00 2b  	bgtz	a6, 0x14d2a <_strtod_l+0x870>
   14a78: 63 4e a0 31  	bgtz	s10, 0x14d94 <_strtod_l+0x8da>
   14a7c: 63 42 b0 31  	bgtz	s11, 0x14d80 <_strtod_l+0x8c6>
   14a80: 63 5a 60 01  	blez	s6, 0x14a94 <_strtod_l+0x5da>
   14a84: ca 85        	mv	a1, s2
   14a86: 5a 86        	mv	a2, s6
   14a88: 22 85        	mv	a0, s0
   14a8a: ef 30 b0 18  	jal	0x18414 <__lshift>
   14a8e: 2a 89        	mv	s2, a0
   14a90: 63 00 05 30  	beqz	a0, 0x14d90 <_strtod_l+0x8d6>
   14a94: c6 65        	ld	a1, 0x50(sp)
   14a96: 4e 86        	mv	a2, s3
   14a98: 22 85        	mv	a0, s0
   14a9a: ef 30 b0 2d  	jal	0x18574 <__mdiff>
   14a9e: aa 8a        	mv	s5, a0
   14aa0: 63 08 05 2e  	beqz	a0, 0x14d90 <_strtod_l+0x8d6>
   14aa4: 83 2d 05 01  	lw	s11, 0x10(a0)
   14aa8: ca 85        	mv	a1, s2
   14aaa: 23 28 05 00  	sw	zero, 0x10(a0)
   14aae: ef 30 f0 28  	jal	0x1853c <__mcmp>
   14ab2: 63 4c 05 68  	bltz	a0, 0x1514a <_strtod_l+0xc90>
   14ab6: 63 07 05 62  	beqz	a0, 0x150e4 <_strtod_l+0xc2a>
   14aba: ca 85        	mv	a1, s2
   14abc: 56 85        	mv	a0, s5
   14abe: ef 30 30 6c  	jal	0x18980 <__ratio>
   14ac2: d3 07 95 a2  	fle.d	a5, fa0, fs1
   14ac6: 63 8a 07 30  	beqz	a5, 0x14dda <_strtod_l+0x920>
   14aca: 63 97 0d 34  	bnez	s11, 0x14e18 <_strtod_l+0x95e>
   14ace: 22 67        	ld	a4, 0x8(sp)
   14ad0: fd 57        	li	a5, -0x1
   14ad2: b1 83        	srli	a5, a5, 0xc
   14ad4: f9 8f        	and	a5, a5, a4
   14ad6: 63 83 07 42  	beqz	a5, 0x14efc <_strtod_l+0xa42>
   14ada: 85 47        	li	a5, 0x1
   14adc: 63 02 f7 74  	beq	a4, a5, 0x15220 <_strtod_l+0xd66>
   14ae0: 03 b6 01 11  	ld	a2, 0x110(gp)
   14ae4: 07 b4 01 0e  	fld	fs0, 0xe0(gp)
   14ae8: 93 55 0a 42  	srai	a1, s4, 0x20
   14aec: b7 06 f0 7f  	lui	a3, 0x7ff00
   14af0: 33 f7 d5 00  	and	a4, a1, a3
   14af4: 01 27        	sext.w	a4, a4
   14af6: 37 05 e0 7f  	lui	a0, 0x7fe00
   14afa: b2 87        	mv	a5, a2
   14afc: 63 0c a7 32  	beq	a4, a0, 0x14e34 <_strtod_l+0x97a>
   14b00: 63 83 0c 04  	beqz	s9, 0x14b46 <_strtod_l+0x68c>
   14b04: b7 06 a0 06  	lui	a3, 0x6a00
   14b08: 63 ef e6 02  	bltu	a3, a4, 0x14b46 <_strtod_l+0x68c>
   14b0c: d3 06 44 a3  	fle.d	a3, fs0, fs4
   14b10: 8d c2        	beqz	a3, 0x14b32 <_strtod_l+0x678>
   14b12: d3 17 14 c2  	fcvt.wu.d	a5, fs0, rtz
   14b16: 9b 86 07 00  	sext.w	a3, a5
   14b1a: 91 e2        	bnez	a3, 0x14b1e <_strtod_l+0x664>
   14b1c: 85 47        	li	a5, 0x1
   14b1e: 53 84 17 d2  	fcvt.d.wu	fs0, a5
   14b22: d3 07 04 e2  	fmv.x.d	a5, fs0
   14b26: 63 96 0d 00  	bnez	s11, 0x14b32 <_strtod_l+0x678>
   14b2a: d3 17 84 22  	fneg.d	fa5, fs0
   14b2e: d3 87 07 e2  	fmv.x.d	a5, fa5
   14b32: 13 d6 07 02  	srli	a2, a5, 0x20
   14b36: b7 06 b0 06  	lui	a3, 0x6b00
   14b3a: b1 9e        	addw	a3, a3, a2
   14b3c: 99 9e        	subw	a3, a3, a4
   14b3e: 82 17        	slli	a5, a5, 0x20
   14b40: 82 16        	slli	a3, a3, 0x20
   14b42: 81 93        	srli	a5, a5, 0x20
   14b44: d5 8f        	or	a5, a5, a3
   14b46: 22 6a        	ld	s4, 0x8(sp)
   14b48: 3e f4        	sd	a5, 0x28(sp)
   14b4a: 3a f0        	sd	a4, 0x20(sp)
   14b4c: 53 05 0a f2  	fmv.d.x	fa0, s4
   14b50: ef 30 b0 3e  	jal	0x1873a <__ulp>
   14b54: a2 77        	ld	a5, 0x28(sp)
   14b56: 53 07 0a f2  	fmv.d.x	fa4, s4
   14b5a: 02 77        	ld	a4, 0x20(sp)
   14b5c: d3 87 07 f2  	fmv.d.x	fa5, a5
   14b60: c3 77 f5 72  	fmadd.d	fa5, fa0, fa5, fa4
   14b64: d3 87 07 e2  	fmv.x.d	a5, fa5
   14b68: 3e 8a        	mv	s4, a5
   14b6a: 81 97        	srai	a5, a5, 0x20
   14b6c: 63 97 0c 00  	bnez	s9, 0x14b7a <_strtod_l+0x6c0>
   14b70: b7 06 f0 7f  	lui	a3, 0x7ff00
   14b74: f5 8f        	and	a5, a5, a3
   14b76: 63 0f f7 34  	beq	a4, a5, 0x14ed4 <_strtod_l+0xa1a>
   14b7a: c6 65        	ld	a1, 0x50(sp)
   14b7c: 22 85        	mv	a0, s0
   14b7e: ef 30 80 2c  	jal	0x17e46 <_Bfree>
   14b82: ce 85        	mv	a1, s3
   14b84: 22 85        	mv	a0, s0
   14b86: ef 30 00 2c  	jal	0x17e46 <_Bfree>
   14b8a: ca 85        	mv	a1, s2
   14b8c: 22 85        	mv	a0, s0
   14b8e: ef 30 80 2b  	jal	0x17e46 <_Bfree>
   14b92: d6 85        	mv	a1, s5
   14b94: 22 85        	mv	a0, s0
   14b96: ef 30 00 2b  	jal	0x17e46 <_Bfree>
   14b9a: 39 b5        	j	0x149a8 <_strtod_l+0x4ee>
   14b9c: 01 46        	li	a2, 0x0
   14b9e: 01 48        	li	a6, 0x0
   14ba0: 01 49        	li	s2, 0x0
   14ba2: 05 43        	li	t1, 0x1
   14ba4: d1 bc        	j	0x14678 <_strtod_l+0x1be>
   14ba6: 81 29        	sext.w	s3, s3
   14ba8: 01 4e        	li	t3, 0x0
   14baa: 41 be        	j	0x1473a <_strtod_l+0x280>
   14bac: e3 8c 07 d8  	beqz	a5, 0x14944 <_strtod_l+0x48a>
   14bb0: bb 07 f0 40  	negw	a5, a5
   14bb4: 13 f7 f7 00  	andi	a4, a5, 0xf
   14bb8: 11 cf        	beqz	a4, 0x14bd4 <_strtod_l+0x71a>
   14bba: b7 06 02 00  	lui	a3, 0x20
   14bbe: 0e 07        	slli	a4, a4, 0x3
   14bc0: 93 86 06 f8  	addi	a3, a3, -0x80
   14bc4: 36 97        	add	a4, a4, a3
   14bc6: 53 07 0a f2  	fmv.d.x	fa4, s4
   14bca: 1c 23        	fld	fa5, 0x0(a4)
   14bcc: d3 77 f7 1a  	fdiv.d	fa5, fa4, fa5
   14bd0: 53 8a 07 e2  	fmv.x.d	s4, fa5
   14bd4: 9b d7 47 40  	sraiw	a5, a5, 0x4
   14bd8: e3 86 07 d6  	beqz	a5, 0x14944 <_strtod_l+0x48a>
   14bdc: 7d 47        	li	a4, 0x1f
   14bde: 63 43 f7 08  	blt	a4, a5, 0x14c64 <_strtod_l+0x7aa>
   14be2: 93 fc 07 01  	andi	s9, a5, 0x10
   14be6: 63 84 0c 00  	beqz	s9, 0x14bee <_strtod_l+0x734>
   14bea: 93 0c a0 06  	li	s9, 0x6a
   14bee: 37 07 02 00  	lui	a4, 0x20
   14bf2: d2 85        	mv	a1, s4
   14bf4: 13 07 07 cf  	addi	a4, a4, -0x310
   14bf8: 01 45        	li	a0, 0x0
   14bfa: 93 f6 17 00  	andi	a3, a5, 0x1
   14bfe: 89 ca        	beqz	a3, 0x14c10 <_strtod_l+0x756>
   14c00: 53 87 05 f2  	fmv.d.x	fa4, a1
   14c04: 1c 23        	fld	fa5, 0x0(a4)
   14c06: 05 45        	li	a0, 0x1
   14c08: d3 77 f7 12  	fmul.d	fa5, fa4, fa5
   14c0c: d3 85 07 e2  	fmv.x.d	a1, fa5
   14c10: 85 87        	srai	a5, a5, 0x1
   14c12: 21 07        	addi	a4, a4, 0x8
   14c14: fd f3        	bnez	a5, 0x14bfa <_strtod_l+0x740>
   14c16: 11 c1        	beqz	a0, 0x14c1a <_strtod_l+0x760>
   14c18: 2e 8a        	mv	s4, a1
   14c1a: 63 8d 0c 02  	beqz	s9, 0x14c54 <_strtod_l+0x79a>
   14c1e: 93 56 4a 03  	srli	a3, s4, 0x34
   14c22: 93 f6 f6 7f  	andi	a3, a3, 0x7ff
   14c26: 13 07 b0 06  	li	a4, 0x6b
   14c2a: 15 9f        	subw	a4, a4, a3
   14c2c: 93 57 0a 42  	srai	a5, s4, 0x20
   14c30: 63 50 e0 02  	blez	a4, 0x14c50 <_strtod_l+0x796>
   14c34: fd 45        	li	a1, 0x1f
   14c36: 63 df e5 62  	bge	a1, a4, 0x15274 <_strtod_l+0xdba>
   14c3a: fd 55        	li	a1, -0x1
   14c3c: 82 15        	slli	a1, a1, 0x20
   14c3e: 13 05 40 03  	li	a0, 0x34
   14c42: 33 7a ba 00  	and	s4, s4, a1
   14c46: 63 51 e5 6c  	bge	a0, a4, 0x15308 <_strtod_l+0xe4e>
   14c4a: 13 0a 70 03  	li	s4, 0x37
   14c4e: 52 1a        	slli	s4, s4, 0x34
   14c50: 93 0c a0 06  	li	s9, 0x6a
   14c54: d3 07 00 f2  	fmv.d.x	fa5, zero
   14c58: 53 07 0a f2  	fmv.d.x	fa4, s4
   14c5c: d3 27 f7 a2  	feq.d	a5, fa4, fa5
   14c60: e3 83 07 ce  	beqz	a5, 0x14946 <_strtod_l+0x48c>
   14c64: 93 0d 00 00  	li	s11, 0x0
   14c68: 93 07 20 02  	li	a5, 0x22
   14c6c: ee 69        	ld	s3, 0xd8(sp)
   14c6e: 0e 6b        	ld	s6, 0xc0(sp)
   14c70: 4a 7c        	ld	s8, 0xb0(sp)
   14c72: 0a 7d        	ld	s10, 0xa0(sp)
   14c74: 1c c0        	sw	a5, 0x0(s0)
   14c76: 95 bc        	j	0x146ea <_strtod_l+0x230>
   14c78: a9 57        	li	a5, -0x16
   14c7a: e3 41 fd c0  	blt	s10, a5, 0x1487c <_strtod_l+0x3c2>
   14c7e: 3b 07 18 41  	subw	a4, a6, a7
   14c82: b7 07 02 00  	lui	a5, 0x20
   14c86: 0e 07        	slli	a4, a4, 0x3
   14c88: 93 87 07 f8  	addi	a5, a5, -0x80
   14c8c: ba 97        	add	a5, a5, a4
   14c8e: 9c 23        	fld	fa5, 0x0(a5)
   14c90: 53 07 0a f2  	fmv.d.x	fa4, s4
   14c94: d3 77 f7 1a  	fdiv.d	fa5, fa4, fa5
   14c98: d3 8d 07 e2  	fmv.x.d	s11, fa5
   14c9c: d9 be        	j	0x14872 <_strtod_l+0x3b8>
   14c9e: 81 4b        	li	s7, 0x0
   14ca0: 93 0a 17 00  	addi	s5, a4, 0x1
   14ca4: d6 e4        	sd	s5, 0x48(sp)
   14ca6: 83 47 17 00  	lbu	a5, 0x1(a4)
   14caa: e3 8a 07 8e  	beqz	a5, 0x1459e <_strtod_l+0xe4>
   14cae: ca f1        	sd	s2, 0xe0(sp)
   14cb0: 66 f5        	sd	s9, 0xa8(sp)
   14cb2: 6f f0 bf 84  	j	0x144fc <_strtod_l+0x42>
   14cb6: 85 4b        	li	s7, 0x1
   14cb8: e5 b7        	j	0x14ca0 <_strtod_l+0x7e6>
   14cba: b7 05 02 00  	lui	a1, 0x20
   14cbe: 93 85 85 a2  	addi	a1, a1, -0x5d8
   14cc2: a8 00        	addi	a0, sp, 0x48
   14cc4: ef 20 d0 6d  	jal	0x17ba0 <__match>
   14cc8: e3 0e 05 ae  	beqz	a0, 0x147c4 <_strtod_l+0x30a>
   14ccc: a6 67        	ld	a5, 0x48(sp)
   14cce: b7 05 02 00  	lui	a1, 0x20
   14cd2: 93 85 05 a3  	addi	a1, a1, -0x5d0
   14cd6: fd 17        	addi	a5, a5, -0x1
   14cd8: a8 00        	addi	a0, sp, 0x48
   14cda: be e4        	sd	a5, 0x48(sp)
   14cdc: ef 20 50 6c  	jal	0x17ba0 <__match>
   14ce0: 01 e5        	bnez	a0, 0x14ce8 <_strtod_l+0x82e>
   14ce2: a6 67        	ld	a5, 0x48(sp)
   14ce4: 85 07        	addi	a5, a5, 0x1
   14ce6: be e4        	sd	a5, 0x48(sp)
   14ce8: 83 bd 01 08  	ld	s11, 0x80(gp)
   14cec: ee 69        	ld	s3, 0xd8(sp)
   14cee: 0e 6b        	ld	s6, 0xc0(sp)
   14cf0: 4a 7c        	ld	s8, 0xb0(sp)
   14cf2: e5 ba        	j	0x146ea <_strtod_l+0x230>
   14cf4: ca 85        	mv	a1, s2
   14cf6: 22 85        	mv	a0, s0
   14cf8: 42 f8        	sd	a6, 0x30(sp)
   14cfa: ef 30 00 64  	jal	0x1833a <__pow5mult>
   14cfe: 42 78        	ld	a6, 0x30(sp)
   14d00: 2a 89        	mv	s2, a0
   14d02: 59 c5        	beqz	a0, 0x14d90 <_strtod_l+0x8d6>
   14d04: 46 66        	ld	a2, 0x50(sp)
   14d06: aa 85        	mv	a1, a0
   14d08: 22 85        	mv	a0, s0
   14d0a: 42 f8        	sd	a6, 0x30(sp)
   14d0c: ef 30 20 48  	jal	0x1818e <__multiply>
   14d10: 42 78        	ld	a6, 0x30(sp)
   14d12: 3d cd        	beqz	a0, 0x14d90 <_strtod_l+0x8d6>
   14d14: c6 65        	ld	a1, 0x50(sp)
   14d16: 2a fc        	sd	a0, 0x38(sp)
   14d18: 22 85        	mv	a0, s0
   14d1a: 42 f8        	sd	a6, 0x30(sp)
   14d1c: ef 30 a0 12  	jal	0x17e46 <_Bfree>
   14d20: e2 77        	ld	a5, 0x38(sp)
   14d22: 42 78        	ld	a6, 0x30(sp)
   14d24: be e8        	sd	a5, 0x50(sp)
   14d26: e3 59 00 d5  	blez	a6, 0x14a78 <_strtod_l+0x5be>
   14d2a: c6 65        	ld	a1, 0x50(sp)
   14d2c: 42 86        	mv	a2, a6
   14d2e: 22 85        	mv	a0, s0
   14d30: ef 30 40 6e  	jal	0x18414 <__lshift>
   14d34: aa e8        	sd	a0, 0x50(sp)
   14d36: e3 11 05 d4  	bnez	a0, 0x14a78 <_strtod_l+0x5be>
   14d3a: 83 bd 01 08  	ld	s11, 0x80(gp)
   14d3e: 93 07 20 02  	li	a5, 0x22
   14d42: 1c c0        	sw	a5, 0x0(s0)
   14d44: aa 85        	mv	a1, a0
   14d46: 22 85        	mv	a0, s0
   14d48: ef 30 e0 0f  	jal	0x17e46 <_Bfree>
   14d4c: ce 85        	mv	a1, s3
   14d4e: 22 85        	mv	a0, s0
   14d50: ef 30 60 0f  	jal	0x17e46 <_Bfree>
   14d54: ca 85        	mv	a1, s2
   14d56: 22 85        	mv	a0, s0
   14d58: ef 30 e0 0e  	jal	0x17e46 <_Bfree>
   14d5c: e2 85        	mv	a1, s8
   14d5e: 22 85        	mv	a0, s0
   14d60: ef 30 60 0e  	jal	0x17e46 <_Bfree>
   14d64: d6 85        	mv	a1, s5
   14d66: 22 85        	mv	a0, s0
   14d68: ef 30 e0 0d  	jal	0x17e46 <_Bfree>
   14d6c: ee 69        	ld	s3, 0xd8(sp)
   14d6e: 0e 6b        	ld	s6, 0xc0(sp)
   14d70: 4a 7c        	ld	s8, 0xb0(sp)
   14d72: 0a 7d        	ld	s10, 0xa0(sp)
   14d74: 2a 24        	fld	fs0, 0x88(sp)
   14d76: 8a 24        	fld	fs1, 0x80(sp)
   14d78: 66 39        	fld	fs2, 0x78(sp)
   14d7a: c6 39        	fld	fs3, 0x70(sp)
   14d7c: 26 3a        	fld	fs4, 0x68(sp)
   14d7e: b5 b2        	j	0x146ea <_strtod_l+0x230>
   14d80: ce 85        	mv	a1, s3
   14d82: 6e 86        	mv	a2, s11
   14d84: 22 85        	mv	a0, s0
   14d86: ef 30 e0 68  	jal	0x18414 <__lshift>
   14d8a: aa 89        	mv	s3, a0
   14d8c: e3 1a 05 ce  	bnez	a0, 0x14a80 <_strtod_l+0x5c6>
   14d90: 46 65        	ld	a0, 0x50(sp)
   14d92: 65 b7        	j	0x14d3a <_strtod_l+0x880>
   14d94: 62 66        	ld	a2, 0x18(sp)
   14d96: ce 85        	mv	a1, s3
   14d98: 22 85        	mv	a0, s0
   14d9a: ef 30 00 5a  	jal	0x1833a <__pow5mult>
   14d9e: aa 89        	mv	s3, a0
   14da0: 65 d9        	beqz	a0, 0x14d90 <_strtod_l+0x8d6>
   14da2: e3 5f b0 cd  	blez	s11, 0x14a80 <_strtod_l+0x5c6>
   14da6: e9 bf        	j	0x14d80 <_strtod_l+0x8c6>
   14da8: 9d 8e        	sub	a3, a3, a5
   14daa: 95 68        	lui	a7, 0x5
   14dac: a1 47        	li	a5, 0x8
   14dae: 93 88 f8 e1  	addi	a7, a7, -0x1e1
   14db2: 63 cb d7 00  	blt	a5, a3, 0x14dc8 <_strtod_l+0x90e>
   14db6: 95 67        	lui	a5, 0x5
   14db8: 93 87 f7 e1  	addi	a5, a5, -0x1e1
   14dbc: 9b 88 05 00  	sext.w	a7, a1
   14dc0: 63 d4 b7 00  	bge	a5, a1, 0x14dc8 <_strtod_l+0x90e>
   14dc4: 9b 88 07 00  	sext.w	a7, a5
   14dc8: e3 0f 0e 8a  	beqz	t3, 0x14686 <_strtod_l+0x1cc>
   14dcc: bb 08 10 41  	negw	a7, a7
   14dd0: 5d b8        	j	0x14686 <_strtod_l+0x1cc>
   14dd2: 85 47        	li	a5, 0x1
   14dd4: 02 f4        	sd	zero, 0x28(sp)
   14dd6: 3e f0        	sd	a5, 0x20(sp)
   14dd8: 85 b1        	j	0x14a38 <_strtod_l+0x57e>
   14dda: 53 74 25 13  	fmul.d	fs0, fa0, fs2
   14dde: 53 06 04 e2  	fmv.x.d	a2, fs0
   14de2: e3 93 0d d0  	bnez	s11, 0x14ae8 <_strtod_l+0x62e>
   14de6: d3 17 84 22  	fneg.d	fa5, fs0
   14dea: 53 86 07 e2  	fmv.x.d	a2, fa5
   14dee: ed b9        	j	0x14ae8 <_strtod_l+0x62e>
   14df0: 62 67        	ld	a4, 0x18(sp)
   14df2: 42 6b        	ld	s6, 0x10(sp)
   14df4: 3b 06 f7 40  	subw	a2, a4, a5
   14df8: 11 b1        	j	0x149fc <_strtod_l+0x542>
   14dfa: d2 e4        	sd	s4, 0x48(sp)
   14dfc: 81 48        	li	a7, 0x0
   14dfe: 6f f0 9f 88  	j	0x14686 <_strtod_l+0x1cc>
   14e02: 93 05 20 be  	li	a1, -0x41e
   14e06: bb 87 f5 40  	subw	a5, a1, a5
   14e0a: 85 45        	li	a1, 0x1
   14e0c: bb 97 f5 00  	sllw	a5, a1, a5
   14e10: 3e f4        	sd	a5, 0x28(sp)
   14e12: 85 47        	li	a5, 0x1
   14e14: 3e f0        	sd	a5, 0x20(sp)
   14e16: 0d b1        	j	0x14a38 <_strtod_l+0x57e>
   14e18: 53 86 09 e2  	fmv.x.d	a2, fs3
   14e1c: 53 84 39 23  	fmv.d	fs0, fs3
   14e20: e1 b1        	j	0x14ae8 <_strtod_l+0x62e>
   14e22: ee 69        	ld	s3, 0xd8(sp)
   14e24: 0e 6b        	ld	s6, 0xc0(sp)
   14e26: 4a 7c        	ld	s8, 0xb0(sp)
   14e28: 93 0d 00 00  	li	s11, 0x0
   14e2c: 7d b8        	j	0x146ea <_strtod_l+0x230>
   14e2e: 93 0d 00 00  	li	s11, 0x0
   14e32: 65 b8        	j	0x146ea <_strtod_l+0x230>
   14e34: 3a f4        	sd	a4, 0x28(sp)
   14e36: b7 07 b0 fc  	lui	a5, 0xfcb00
   14e3a: 7d 57        	li	a4, -0x1
   14e3c: ad 9f        	addw	a5, a5, a1
   14e3e: 93 55 07 02  	srli	a1, a4, 0x20
   14e42: 82 17        	slli	a5, a5, 0x20
   14e44: 33 7a ba 00  	and	s4, s4, a1
   14e48: 33 6a fa 00  	or	s4, s4, a5
   14e4c: 53 05 0a f2  	fmv.d.x	fa0, s4
   14e50: 3a 8b        	mv	s6, a4
   14e52: 32 f0        	sd	a2, 0x20(sp)
   14e54: ef 30 70 0e  	jal	0x1873a <__ulp>
   14e58: 02 76        	ld	a2, 0x20(sp)
   14e5a: 53 07 0a f2  	fmv.d.x	fa4, s4
   14e5e: b7 06 f0 7f  	lui	a3, 0x7ff00
   14e62: d3 07 06 f2  	fmv.d.x	fa5, a2
   14e66: 37 08 a0 7c  	lui	a6, 0x7ca00
   14e6a: 22 77        	ld	a4, 0x28(sp)
   14e6c: c3 77 f5 72  	fmadd.d	fa5, fa0, fa5, fa4
   14e70: 93 55 0b 02  	srli	a1, s6, 0x20
   14e74: 53 86 07 e2  	fmv.x.d	a2, fa5
   14e78: 13 55 06 42  	srai	a0, a2, 0x20
   14e7c: b3 77 d5 00  	and	a5, a0, a3
   14e80: 81 27        	sext.w	a5, a5
   14e82: 63 ef 07 11  	bltu	a5, a6, 0x14fa0 <_strtod_l+0xae6>
   14e86: 13 0a f0 7f  	li	s4, 0x7ff
   14e8a: a2 67        	ld	a5, 0x8(sp)
   14e8c: 52 1a        	slli	s4, s4, 0x34
   14e8e: 7d 1a        	addi	s4, s4, -0x1
   14e90: e3 15 fa ce  	bne	s4, a5, 0x14b7a <_strtod_l+0x6c0>
   14e94: 46 65        	ld	a0, 0x50(sp)
   14e96: 55 b5        	j	0x14d3a <_strtod_l+0x880>
   14e98: 01 4e        	li	t3, 0x0
   14e9a: 59 b8        	j	0x14730 <_strtod_l+0x276>
   14e9c: 37 06 02 00  	lui	a2, 0x20
   14ea0: 36 88        	mv	a6, a3
   14ea2: de 87        	mv	a5, s7
   14ea4: 98 08        	addi	a4, sp, 0x50
   14ea6: d4 00        	addi	a3, sp, 0x44
   14ea8: 13 06 86 cd  	addi	a2, a2, -0x328
   14eac: ac 00        	addi	a1, sp, 0x48
   14eae: 22 85        	mv	a0, s0
   14eb0: ce ed        	sd	s3, 0xd8(sp)
   14eb2: ef 20 40 6c  	jal	0x17576 <__gethex>
   14eb6: 13 7a f5 00  	andi	s4, a0, 0xf
   14eba: aa 89        	mv	s3, a0
   14ebc: 93 0d 00 00  	li	s11, 0x0
   14ec0: 63 09 0a 0e  	beqz	s4, 0x14fb2 <_strtod_l+0xaf8>
   14ec4: 99 47        	li	a5, 0x6
   14ec6: 63 1e fa 12  	bne	s4, a5, 0x15002 <_strtod_l+0xb48>
   14eca: ee 69        	ld	s3, 0xd8(sp)
   14ecc: ca e4        	sd	s2, 0x48(sp)
   14ece: 81 4b        	li	s7, 0x0
   14ed0: 6f f0 bf 81  	j	0x146ea <_strtod_l+0x230>
   14ed4: d3 17 24 c2  	fcvt.l.d	a5, fs0, rtz
   14ed8: d3 f7 27 d2  	fcvt.d.l	fa5, a5
   14edc: 53 75 f4 0a  	fsub.d	fa0, fs0, fa5
   14ee0: 63 9d 0d 02  	bnez	s11, 0x14f1a <_strtod_l+0xa60>
   14ee4: 93 17 ca 00  	slli	a5, s4, 0xc
   14ee8: 8d eb        	bnez	a5, 0x14f1a <_strtod_l+0xa60>
   14eea: 87 b7 81 14  	fld	fa5, 0x148(gp)
   14eee: d3 17 f5 a2  	flt.d	a5, fa0, fa5
   14ef2: e3 84 07 c8  	beqz	a5, 0x14b7a <_strtod_l+0x6c0>
   14ef6: d2 8d        	mv	s11, s4
   14ef8: 46 65        	ld	a0, 0x50(sp)
   14efa: a9 b5        	j	0x14d44 <_strtod_l+0x88a>
   14efc: 87 b7 01 0e  	fld	fa5, 0xe0(gp)
   14f00: d3 17 f5 a2  	flt.d	a5, fa0, fa5
   14f04: 63 93 07 1c  	bnez	a5, 0x150ca <_strtod_l+0xc10>
   14f08: 87 b7 81 12  	fld	fa5, 0x128(gp)
   14f0c: 53 74 f5 12  	fmul.d	fs0, fa0, fa5
   14f10: d3 17 84 22  	fneg.d	fa5, fs0
   14f14: 53 86 07 e2  	fmv.x.d	a2, fa5
   14f18: c1 be        	j	0x14ae8 <_strtod_l+0x62e>
   14f1a: 87 b7 81 13  	fld	fa5, 0x138(gp)
   14f1e: d3 17 f5 a2  	flt.d	a5, fa0, fa5
   14f22: f1 fb        	bnez	a5, 0x14ef6 <_strtod_l+0xa3c>
   14f24: 87 b7 01 14  	fld	fa5, 0x140(gp)
   14f28: d3 97 a7 a2  	flt.d	a5, fa5, fa0
   14f2c: e3 87 07 c4  	beqz	a5, 0x14b7a <_strtod_l+0x6c0>
   14f30: d2 8d        	mv	s11, s4
   14f32: d9 b7        	j	0x14ef8 <_strtod_l+0xa3e>
   14f34: 05 47        	li	a4, 0x1
   14f36: 1b 0e 19 00  	addiw	t3, s2, 0x1
   14f3a: 63 54 a7 02  	bge	a4, a0, 0x14f62 <_strtod_l+0xaa8>
   14f3e: 3b 0e a9 00  	addw	t3, s2, a0
   14f42: 1b 05 fe ff  	addiw	a0, t3, -0x1
   14f46: a1 45        	li	a1, 0x8
   14f48: 41 43        	li	t1, 0x10
   14f4a: 4a 87        	mv	a4, s2
   14f4c: 05 29        	addiw	s2, s2, 0x1
   14f4e: 63 c2 e5 02  	blt	a1, a4, 0x14f72 <_strtod_l+0xab8>
   14f52: 1b 17 2b 00  	slliw	a4, s6, 0x2
   14f56: 3b 07 67 01  	addw	a4, a4, s6
   14f5a: 1b 1b 17 00  	slliw	s6, a4, 0x1
   14f5e: e3 16 25 ff  	bne	a0, s2, 0x14f4a <_strtod_l+0xa90>
   14f62: 21 47        	li	a4, 0x8
   14f64: 3b 88 0e 01  	addw	a6, t4, a6
   14f68: 63 4b 27 07  	blt	a4, s2, 0x14fde <_strtod_l+0xb24>
   14f6c: 72 89        	mv	s2, t3
   14f6e: 6f f0 ef eb  	j	0x1462c <_strtod_l+0x172>
   14f72: e3 46 23 ff  	blt	t1, s2, 0x14f5e <_strtod_l+0xaa4>
   14f76: 1b 17 2c 00  	slliw	a4, s8, 0x2
   14f7a: 3b 07 87 01  	addw	a4, a4, s8
   14f7e: 1b 1c 17 00  	slliw	s8, a4, 0x1
   14f82: f1 bf        	j	0x14f5e <_strtod_l+0xaa4>
   14f84: b7 05 02 00  	lui	a1, 0x20
   14f88: 05 46        	li	a2, 0x1
   14f8a: 93 85 05 a2  	addi	a1, a1, -0x5e0
   14f8e: 56 85        	mv	a0, s5
   14f90: ef 10 10 1e  	jal	0x16970 <strncmp>
   14f94: 63 0e 05 10  	beqz	a0, 0x150b0 <_strtod_l+0xbf6>
   14f98: 01 45        	li	a0, 0x0
   14f9a: 01 43        	li	t1, 0x0
   14f9c: 6f f0 ef ee  	j	0x1468a <_strtod_l+0x1d0>
   14fa0: b7 07 50 03  	lui	a5, 0x3500
   14fa4: a9 9f        	addw	a5, a5, a0
   14fa6: 13 9a 07 02  	slli	s4, a5, 0x20
   14faa: f1 8d        	and	a1, a1, a2
   14fac: 33 ea 45 01  	or	s4, a1, s4
   14fb0: 75 be        	j	0x14b6c <_strtod_l+0x6b2>
   14fb2: ee 69        	ld	s3, 0xd8(sp)
   14fb4: 6f f0 6f f3  	j	0x146ea <_strtod_l+0x230>
   14fb8: 0e 79        	ld	s2, 0xe0(sp)
   14fba: aa 7c        	ld	s9, 0xa8(sp)
   14fbc: 6f f0 cf de  	j	0x145a8 <_strtod_l+0xee>
   14fc0: b7 07 02 00  	lui	a5, 0x20
   14fc4: 0e 0d        	slli	s10, s10, 0x3
   14fc6: 93 87 07 f8  	addi	a5, a5, -0x80
   14fca: ea 97        	add	a5, a5, s10
   14fcc: 9c 23        	fld	fa5, 0x0(a5)
   14fce: 53 07 0a f2  	fmv.d.x	fa4, s4
   14fd2: d3 f7 e7 12  	fmul.d	fa5, fa5, fa4
   14fd6: d3 8d 07 e2  	fmv.x.d	s11, fa5
   14fda: 6f f0 9f 89  	j	0x14872 <_strtod_l+0x3b8>
   14fde: c1 47        	li	a5, 0x10
   14fe0: 63 ce c7 0f  	blt	a5, t3, 0x150dc <_strtod_l+0xc22>
   14fe4: 9b 17 2c 00  	slliw	a5, s8, 0x2
   14fe8: bb 87 87 01  	addw	a5, a5, s8
   14fec: 9b 97 17 00  	slliw	a5, a5, 0x1
   14ff0: 3b 8c d7 00  	addw	s8, a5, a3
   14ff4: 72 89        	mv	s2, t3
   14ff6: 01 45        	li	a0, 0x0
   14ff8: 6f f0 6f d9  	j	0x1458e <_strtod_l+0xd4>
   14ffc: 83 bd 01 08  	ld	s11, 0x80(gp)
   15000: a5 b1        	j	0x14c68 <_strtod_l+0x7ae>
   15002: 46 66        	ld	a2, 0x50(sp)
   15004: 11 ca        	beqz	a2, 0x15018 <_strtod_l+0xb5e>
   15006: 93 05 50 03  	li	a1, 0x35
   1500a: a8 08        	addi	a0, sp, 0x58
   1500c: ef 30 30 22  	jal	0x18a2e <__copybits>
   15010: c6 65        	ld	a1, 0x50(sp)
   15012: 22 85        	mv	a0, s0
   15014: ef 20 30 63  	jal	0x17e46 <_Bfree>
   15018: 95 47        	li	a5, 0x5
   1501a: 96 46        	lw	a3, 0x44(sp)
   1501c: 63 e5 47 33  	bltu	a5, s4, 0x15346 <_strtod_l+0xe8c>
   15020: 37 07 02 00  	lui	a4, 0x20
   15024: 93 17 2a 00  	slli	a5, s4, 0x2
   15028: 13 07 47 ca  	addi	a4, a4, -0x35c
   1502c: ba 97        	add	a5, a5, a4
   1502e: 9c 43        	lw	a5, 0x0(a5)
   15030: 82 87        	jr	a5
   15032: f6 47        	lw	a5, 0x5c(sp)
   15034: 37 06 f0 ff  	lui	a2, 0xfff00
   15038: 7d 16        	addi	a2, a2, -0x1
   1503a: 1b 87 36 43  	addiw	a4, a3, 0x433
   1503e: 1b 17 47 01  	slliw	a4, a4, 0x14
   15042: 03 6a 81 05  	lwu	s4, 0x58(sp)
   15046: f1 8f        	and	a5, a5, a2
   15048: d9 8f        	or	a5, a5, a4
   1504a: 13 97 07 02  	slli	a4, a5, 0x20
   1504e: 33 6a ea 00  	or	s4, s4, a4
   15052: 81 27        	sext.w	a5, a5
   15054: 93 f9 09 10  	andi	s3, s3, 0x100
   15058: 63 8c 09 00  	beqz	s3, 0x15070 <_strtod_l+0xbb6>
   1505c: 37 07 00 80  	lui	a4, 0x80000
   15060: d9 8f        	or	a5, a5, a4
   15062: 02 1a        	slli	s4, s4, 0x20
   15064: 13 97 07 02  	slli	a4, a5, 0x20
   15068: 13 5a 0a 02  	srli	s4, s4, 0x20
   1506c: 33 6a ea 00  	or	s4, s4, a4
   15070: 13 d7 47 01  	srli	a4, a5, 0x14
   15074: 13 77 f7 7f  	andi	a4, a4, 0x7ff
   15078: d2 8d        	mv	s11, s4
   1507a: 05 ff        	bnez	a4, 0x14fb2 <_strtod_l+0xaf8>
   1507c: ef 10 f0 45  	jal	0x16cda <__errno>
   15080: 93 07 20 02  	li	a5, 0x22
   15084: ee 69        	ld	s3, 0xd8(sp)
   15086: 1c c1        	sw	a5, 0x0(a0)
   15088: 6f f0 2f e6  	j	0x146ea <_strtod_l+0x230>
   1508c: 7d 5a        	li	s4, -0x1
   1508e: 13 5a 1a 00  	srli	s4, s4, 0x1
   15092: 93 f9 09 10  	andi	s3, s3, 0x100
   15096: 63 9c 09 18  	bnez	s3, 0x1522e <_strtod_l+0xd74>
   1509a: ee 69        	ld	s3, 0xd8(sp)
   1509c: d2 8d        	mv	s11, s4
   1509e: 6f f0 cf e4  	j	0x146ea <_strtod_l+0x230>
   150a2: 13 0a f0 7f  	li	s4, 0x7ff
   150a6: 52 1a        	slli	s4, s4, 0x34
   150a8: ed b7        	j	0x15092 <_strtod_l+0xbd8>
   150aa: 66 6a        	ld	s4, 0x58(sp)
   150ac: f6 47        	lw	a5, 0x5c(sp)
   150ae: 5d b7        	j	0x15054 <_strtod_l+0xb9a>
   150b0: a6 66        	ld	a3, 0x48(sp)
   150b2: 01 4b        	li	s6, 0x0
   150b4: 01 4c        	li	s8, 0x0
   150b6: b6 87        	mv	a5, a3
   150b8: 85 06        	addi	a3, a3, 0x1
   150ba: b6 e4        	sd	a3, 0x48(sp)
   150bc: 83 c9 17 00  	lbu	s3, 0x1(a5)
   150c0: 6f f0 2f d3  	j	0x145f2 <_strtod_l+0x138>
   150c4: 01 45        	li	a0, 0x0
   150c6: 6f f0 cf d4  	j	0x14612 <_strtod_l+0x158>
   150ca: 03 b6 01 12  	ld	a2, 0x120(gp)
   150ce: 07 b4 81 12  	fld	fs0, 0x128(gp)
   150d2: 19 bc        	j	0x14ae8 <_strtod_l+0x62e>
   150d4: 4a 86        	mv	a2, s2
   150d6: 01 48        	li	a6, 0x0
   150d8: 6f f0 0f ca  	j	0x14578 <_strtod_l+0xbe>
   150dc: 72 89        	mv	s2, t3
   150de: 01 45        	li	a0, 0x0
   150e0: 6f f0 ef ca  	j	0x1458e <_strtod_l+0xd4>
   150e4: 63 89 0d 10  	beqz	s11, 0x151f6 <_strtod_l+0xd3c>
   150e8: 93 57 0a 42  	srai	a5, s4, 0x20
   150ec: 13 c7 f7 ff  	not	a4, a5
   150f0: 93 16 c7 02  	slli	a3, a4, 0x2c
   150f4: 63 85 06 1c  	beqz	a3, 0x152be <_strtod_l+0xe04>
   150f8: 22 77        	ld	a4, 0x28(sp)
   150fa: 63 1e 07 1a  	bnez	a4, 0x152b6 <_strtod_l+0xdfc>
   150fe: 82 77        	ld	a5, 0x20(sp)
   15100: b3 77 fa 00  	and	a5, s4, a5
   15104: 81 27        	sext.w	a5, a5
   15106: 91 cb        	beqz	a5, 0x1511a <_strtod_l+0xc60>
   15108: 52 85        	mv	a0, s4
   1510a: e6 85        	mv	a1, s9
   1510c: ef f0 8f b6  	jal	0x14474 <sulp>
   15110: a2 27        	fld	fa5, 0x8(sp)
   15112: d3 f7 a7 02  	fadd.d	fa5, fa5, fa0
   15116: 53 8a 07 e2  	fmv.x.d	s4, fa5
   1511a: d2 8d        	mv	s11, s4
   1511c: e3 8e 0c dc  	beqz	s9, 0x14ef8 <_strtod_l+0xa3e>
   15120: 87 b7 01 15  	fld	fa5, 0x150(gp)
   15124: 53 07 0a f2  	fmv.d.x	fa4, s4
   15128: 46 65        	ld	a0, 0x50(sp)
   1512a: d3 77 f7 12  	fmul.d	fa5, fa4, fa5
   1512e: d3 8d 07 e2  	fmv.x.d	s11, fa5
   15132: 93 d7 0d 02  	srli	a5, s11, 0x20
   15136: 13 d7 47 01  	srli	a4, a5, 0x14
   1513a: 13 77 f7 7f  	andi	a4, a4, 0x7ff
   1513e: e3 13 07 c0  	bnez	a4, 0x14d44 <_strtod_l+0x88a>
   15142: 93 07 20 02  	li	a5, 0x22
   15146: 1c c0        	sw	a5, 0x0(s0)
   15148: f5 be        	j	0x14d44 <_strtod_l+0x88a>
   1514a: e3 98 0d fc  	bnez	s11, 0x1511a <_strtod_l+0xc60>
   1514e: a2 67        	ld	a5, 0x8(sp)
   15150: b2 07        	slli	a5, a5, 0xc
   15152: e1 f7        	bnez	a5, 0x1511a <_strtod_l+0xc60>
   15154: 13 5d 0a 02  	srli	s10, s4, 0x20
   15158: 37 0b f0 7f  	lui	s6, 0x7ff00
   1515c: 33 7b 6d 01  	and	s6, s10, s6
   15160: b7 07 b0 06  	lui	a5, 0x6b00
   15164: e3 fb 67 fb  	bgeu	a5, s6, 0x1511a <_strtod_l+0xc60>
   15168: 83 a7 8a 01  	lw	a5, 0x18(s5)
   1516c: 91 e7        	bnez	a5, 0x15178 <_strtod_l+0xcbe>
   1516e: 03 a7 4a 01  	lw	a4, 0x14(s5)
   15172: 85 47        	li	a5, 0x1
   15174: e3 d3 e7 fa  	bge	a5, a4, 0x1511a <_strtod_l+0xc60>
   15178: d6 85        	mv	a1, s5
   1517a: 05 46        	li	a2, 0x1
   1517c: 22 85        	mv	a0, s0
   1517e: ef 30 60 29  	jal	0x18414 <__lshift>
   15182: ca 85        	mv	a1, s2
   15184: aa 8a        	mv	s5, a0
   15186: ef 30 60 3b  	jal	0x1853c <__mcmp>
   1518a: e3 58 a0 f8  	blez	a0, 0x1511a <_strtod_l+0xc60>
   1518e: 63 80 0c 10  	beqz	s9, 0x1528e <_strtod_l+0xdd4>
   15192: b7 07 f0 ff  	lui	a5, 0xfff00
   15196: 37 07 10 00  	lui	a4, 0x100
   1519a: bb 87 67 01  	addw	a5, a5, s6
   1519e: 7d 17        	addi	a4, a4, -0x1
   151a0: d9 8f        	or	a5, a5, a4
   151a2: 7d 5a        	li	s4, -0x1
   151a4: 82 17        	slli	a5, a5, 0x20
   151a6: 13 5a 0a 02  	srli	s4, s4, 0x20
   151aa: 33 6a fa 00  	or	s4, s4, a5
   151ae: 8d bf        	j	0x15120 <_strtod_l+0xc66>
   151b0: 37 0a 50 03  	lui	s4, 0x3500
   151b4: 3b 0a ba 00  	addw	s4, s4, a1
   151b8: 02 1a        	slli	s4, s4, 0x20
   151ba: 7d 8f        	and	a4, a4, a5
   151bc: 33 6a 47 01  	or	s4, a4, s4
   151c0: 6f f0 4f f8  	j	0x14944 <_strtod_l+0x48a>
   151c4: b7 05 02 00  	lui	a1, 0x20
   151c8: b0 08        	addi	a2, sp, 0x58
   151ca: 93 85 05 cc  	addi	a1, a1, -0x340
   151ce: a8 00        	addi	a0, sp, 0x48
   151d0: ef 20 30 20  	jal	0x17bd2 <__hexnan>
   151d4: 95 47        	li	a5, 0x5
   151d6: 63 1f f5 ce  	bne	a0, a5, 0x146d4 <_strtod_l+0x21a>
   151da: f6 47        	lw	a5, 0x5c(sp)
   151dc: 83 6d 81 05  	lwu	s11, 0x58(sp)
   151e0: 37 07 f0 7f  	lui	a4, 0x7ff00
   151e4: d9 8f        	or	a5, a5, a4
   151e6: 82 17        	slli	a5, a5, 0x20
   151e8: ee 69        	ld	s3, 0xd8(sp)
   151ea: 0e 6b        	ld	s6, 0xc0(sp)
   151ec: 4a 7c        	ld	s8, 0xb0(sp)
   151ee: b3 ed fd 00  	or	s11, s11, a5
   151f2: 6f f0 8f cf  	j	0x146ea <_strtod_l+0x230>
   151f6: a2 67        	ld	a5, 0x8(sp)
   151f8: b2 07        	slli	a5, a5, 0xc
   151fa: 8d ef        	bnez	a5, 0x15234 <_strtod_l+0xd7a>
   151fc: 13 5d 0a 02  	srli	s10, s4, 0x20
   15200: 13 5b 0a 42  	srai	s6, s4, 0x20
   15204: 63 85 0c 08  	beqz	s9, 0x1528e <_strtod_l+0xdd4>
   15208: b7 07 f0 7f  	lui	a5, 0x7ff00
   1520c: 33 7b fb 00  	and	s6, s6, a5
   15210: b7 07 b0 06  	lui	a5, 0x6b00
   15214: e3 ef 67 f7  	bltu	a5, s6, 0x15192 <_strtod_l+0xcd8>
   15218: b7 07 70 03  	lui	a5, 0x3700
   1521c: e3 e2 67 f1  	bltu	a5, s6, 0x15120 <_strtod_l+0xc66>
   15220: 93 07 20 02  	li	a5, 0x22
   15224: 46 65        	ld	a0, 0x50(sp)
   15226: 93 0d 00 00  	li	s11, 0x0
   1522a: 1c c0        	sw	a5, 0x0(s0)
   1522c: 21 be        	j	0x14d44 <_strtod_l+0x88a>
   1522e: 93 57 0a 42  	srai	a5, s4, 0x20
   15232: 2d b5        	j	0x1505c <_strtod_l+0xba2>
   15234: 22 77        	ld	a4, 0x28(sp)
   15236: 71 c3        	beqz	a4, 0x152fa <_strtod_l+0xe40>
   15238: 93 57 0a 02  	srli	a5, s4, 0x20
   1523c: f9 8f        	and	a5, a5, a4
   1523e: e3 8e 07 ec  	beqz	a5, 0x1511a <_strtod_l+0xc60>
   15242: e6 85        	mv	a1, s9
   15244: 52 85        	mv	a0, s4
   15246: ef f0 ef a2  	jal	0x14474 <sulp>
   1524a: a2 27        	fld	fa5, 0x8(sp)
   1524c: d3 f7 a7 0a  	fsub.d	fa5, fa5, fa0
   15250: d3 87 07 e2  	fmv.x.d	a5, fa5
   15254: d3 07 00 f2  	fmv.d.x	fa5, zero
   15258: 53 87 07 f2  	fmv.d.x	fa4, a5
   1525c: 53 27 f7 a2  	feq.d	a4, fa4, fa5
   15260: 61 f3        	bnez	a4, 0x15220 <_strtod_l+0xd66>
   15262: 3e 8a        	mv	s4, a5
   15264: 5d bd        	j	0x1511a <_strtod_l+0xc60>
   15266: b7 0e 02 00  	lui	t4, 0x20
   1526a: 81 46        	li	a3, 0x0
   1526c: 93 8e 8e f5  	addi	t4, t4, -0xa8
   15270: 6f f0 6f e8  	j	0x148f6 <_strtod_l+0x43c>
   15274: fd 57        	li	a5, -0x1
   15276: bb 97 e7 00  	sllw	a5, a5, a4
   1527a: b3 77 fa 00  	and	a5, s4, a5
   1527e: 82 17        	slli	a5, a5, 0x20
   15280: 13 5a 0a 02  	srli	s4, s4, 0x20
   15284: 81 93        	srli	a5, a5, 0x20
   15286: 02 1a        	slli	s4, s4, 0x20
   15288: 33 6a fa 00  	or	s4, s4, a5
   1528c: d1 b2        	j	0x14c50 <_strtod_l+0x796>
   1528e: b7 07 f0 7f  	lui	a5, 0x7ff00
   15292: 33 7d fd 00  	and	s10, s10, a5
   15296: 37 07 10 00  	lui	a4, 0x100
   1529a: b7 07 f0 ff  	lui	a5, 0xfff00
   1529e: bb 87 a7 01  	addw	a5, a5, s10
   152a2: 7d 17        	addi	a4, a4, -0x1
   152a4: d9 8f        	or	a5, a5, a4
   152a6: fd 5d        	li	s11, -0x1
   152a8: 82 17        	slli	a5, a5, 0x20
   152aa: 93 dd 0d 02  	srli	s11, s11, 0x20
   152ae: 46 65        	ld	a0, 0x50(sp)
   152b0: b3 ed fd 00  	or	s11, s11, a5
   152b4: 41 bc        	j	0x14d44 <_strtod_l+0x88a>
   152b6: f9 8f        	and	a5, a5, a4
   152b8: e3 98 07 e4  	bnez	a5, 0x15108 <_strtod_l+0xc4e>
   152bc: b9 bd        	j	0x1511a <_strtod_l+0xc60>
   152be: 9b 06 0a 00  	sext.w	a3, s4
   152c2: 7d 56        	li	a2, -0x1
   152c4: 63 82 0c 02  	beqz	s9, 0x152e8 <_strtod_l+0xe2e>
   152c8: 37 07 f0 7f  	lui	a4, 0x7ff00
   152cc: 7d 8f        	and	a4, a4, a5
   152ce: b7 05 a0 06  	lui	a1, 0x6a00
   152d2: 63 eb e5 00  	bltu	a1, a4, 0x152e8 <_strtod_l+0xe2e>
   152d6: 13 06 b0 06  	li	a2, 0x6b
   152da: 1b 57 47 01  	srliw	a4, a4, 0x14
   152de: 3b 07 e6 40  	subw	a4, a2, a4
   152e2: 7d 56        	li	a2, -0x1
   152e4: 3b 16 e6 00  	sllw	a2, a2, a4
   152e8: 63 8f c6 02  	beq	a3, a2, 0x15326 <_strtod_l+0xe6c>
   152ec: 22 77        	ld	a4, 0x28(sp)
   152ee: 61 f7        	bnez	a4, 0x152b6 <_strtod_l+0xdfc>
   152f0: 82 77        	ld	a5, 0x20(sp)
   152f2: fd 8e        	and	a3, a3, a5
   152f4: e3 83 06 e2  	beqz	a3, 0x1511a <_strtod_l+0xc60>
   152f8: 01 bd        	j	0x15108 <_strtod_l+0xc4e>
   152fa: 82 77        	ld	a5, 0x20(sp)
   152fc: b3 77 fa 00  	and	a5, s4, a5
   15300: 81 27        	sext.w	a5, a5
   15302: e3 8c 07 e0  	beqz	a5, 0x1511a <_strtod_l+0xc60>
   15306: 35 bf        	j	0x15242 <_strtod_l+0xd88>
   15308: 13 07 b0 04  	li	a4, 0x4b
   1530c: bb 06 d7 40  	subw	a3, a4, a3
   15310: 7d 57        	li	a4, -0x1
   15312: 3b 17 d7 00  	sllw	a4, a4, a3
   15316: f9 8f        	and	a5, a5, a4
   15318: 02 1a        	slli	s4, s4, 0x20
   1531a: 82 17        	slli	a5, a5, 0x20
   1531c: 13 5a 0a 02  	srli	s4, s4, 0x20
   15320: 33 6a fa 00  	or	s4, s4, a5
   15324: 35 b2        	j	0x14c50 <_strtod_l+0x796>
   15326: 13 07 f0 7f  	li	a4, 0x7ff
   1532a: a2 66        	ld	a3, 0x8(sp)
   1532c: 52 17        	slli	a4, a4, 0x34
   1532e: 7d 17        	addi	a4, a4, -0x1
   15330: e3 00 d7 a6  	beq	a4, a3, 0x14d90 <_strtod_l+0x8d6>
   15334: 37 07 f0 7f  	lui	a4, 0x7ff00
   15338: f9 8f        	and	a5, a5, a4
   1533a: 37 0a 10 00  	lui	s4, 0x100
   1533e: 3b 0a fa 00  	addw	s4, s4, a5
   15342: 02 1a        	slli	s4, s4, 0x20
   15344: d9 bb        	j	0x1511a <_strtod_l+0xc60>
   15346: 93 f9 09 10  	andi	s3, s3, 0x100
   1534a: 93 0d 00 00  	li	s11, 0x0
   1534e: e3 87 09 d2  	beqz	s3, 0x1507c <_strtod_l+0xbc2>
   15352: fd 5d        	li	s11, -0x1
   15354: fe 1d        	slli	s11, s11, 0x3f
   15356: 1d b3        	j	0x1507c <_strtod_l+0xbc2>

0000000000015358 <_strtod_r>:
   15358: 93 86 01 d8  	addi	a3, gp, -0x280
   1535c: 6f f0 ef 95  	j	0x144ba <_strtod_l>

0000000000015360 <strtod_l>:
   15360: aa 87        	mv	a5, a0
   15362: 03 b5 01 23  	ld	a0, 0x230(gp)
   15366: b2 86        	mv	a3, a2
   15368: 2e 86        	mv	a2, a1
   1536a: be 85        	mv	a1, a5
   1536c: 6f f0 ef 94  	j	0x144ba <_strtod_l>

0000000000015370 <strtod>:
   15370: aa 87        	mv	a5, a0
   15372: 03 b5 01 23  	ld	a0, 0x230(gp)
   15376: 2e 86        	mv	a2, a1
   15378: 93 86 01 d8  	addi	a3, gp, -0x280
   1537c: be 85        	mv	a1, a5
   1537e: 6f f0 cf 93  	j	0x144ba <_strtod_l>

0000000000015382 <strtof_l>:
   15382: 41 11        	addi	sp, sp, -0x10
   15384: 22 e0        	sd	s0, 0x0(sp)
   15386: aa 87        	mv	a5, a0
   15388: 03 b5 01 23  	ld	a0, 0x230(gp)
   1538c: b2 86        	mv	a3, a2
   1538e: 2e 86        	mv	a2, a1
   15390: be 85        	mv	a1, a5
   15392: 06 e4        	sd	ra, 0x8(sp)
   15394: ef f0 6f 92  	jal	0x144ba <_strtod_l>
   15398: 53 27 a5 a2  	feq.d	a4, fa0, fa0
   1539c: d3 07 05 e2  	fmv.x.d	a5, fa0
   153a0: 21 c7        	beqz	a4, 0x153e8 <strtof_l+0x66>
   153a2: 53 75 15 40  	fcvt.s.d	fa0, fa0
   153a6: d3 27 a5 20  	fabs.s	fa5, fa0
   153aa: f3 26 10 00  	frflags	a3
   153ae: 07 a7 81 1b  	flw	fa4, 0x1b8(gp)
   153b2: 53 17 f7 a0  	flt.s	a4, fa4, fa5
   153b6: 73 90 16 00  	fsflags	a3
   153ba: 1d c3        	beqz	a4, 0x153e0 <strtof_l+0x5e>
   153bc: d3 87 07 f2  	fmv.d.x	fa5, a5
   153c0: d3 a7 f7 22  	fabs.d	fa5, fa5
   153c4: 73 27 10 00  	frflags	a4
   153c8: 07 b7 81 11  	fld	fa4, 0x118(gp)
   153cc: d3 17 f7 a2  	flt.d	a5, fa4, fa5
   153d0: 73 10 17 00  	fsflags	a4
   153d4: 91 e7        	bnez	a5, 0x153e0 <strtof_l+0x5e>
   153d6: 83 b7 01 23  	ld	a5, 0x230(gp)
   153da: 13 07 20 02  	li	a4, 0x22
   153de: 98 c3        	sw	a4, 0x0(a5)
   153e0: a2 60        	ld	ra, 0x8(sp)
   153e2: 02 64        	ld	s0, 0x0(sp)
   153e4: 41 01        	addi	sp, sp, 0x10
   153e6: 82 80        	ret
   153e8: 37 05 02 00  	lui	a0, 0x20
   153ec: 13 05 05 b8  	addi	a0, a0, -0x480
   153f0: 63 d7 07 00  	bgez	a5, 0x153fe <strtof_l+0x7c>
   153f4: ef 10 10 4e  	jal	0x170d4 <nanf>
   153f8: 53 15 a5 20  	fneg.s	fa0, fa0
   153fc: d5 b7        	j	0x153e0 <strtof_l+0x5e>
   153fe: 02 64        	ld	s0, 0x0(sp)
   15400: a2 60        	ld	ra, 0x8(sp)
   15402: 41 01        	addi	sp, sp, 0x10
   15404: 6f 10 10 4d  	j	0x170d4 <nanf>

0000000000015408 <strtof>:
   15408: 41 11        	addi	sp, sp, -0x10
   1540a: 22 e0        	sd	s0, 0x0(sp)
   1540c: aa 87        	mv	a5, a0
   1540e: 03 b5 01 23  	ld	a0, 0x230(gp)
   15412: 2e 86        	mv	a2, a1
   15414: 93 86 01 d8  	addi	a3, gp, -0x280
   15418: be 85        	mv	a1, a5
   1541a: 06 e4        	sd	ra, 0x8(sp)
   1541c: ef f0 ef 89  	jal	0x144ba <_strtod_l>
   15420: 53 27 a5 a2  	feq.d	a4, fa0, fa0
   15424: d3 07 05 e2  	fmv.x.d	a5, fa0
   15428: 3d c7        	beqz	a4, 0x15496 <strtof+0x8e>
   1542a: d3 77 15 40  	fcvt.s.d	fa5, fa0
   1542e: 53 87 07 e0  	fmv.x.w	a4, fa5
   15432: d3 a7 f7 20  	fabs.s	fa5, fa5
   15436: 73 26 10 00  	frflags	a2
   1543a: 07 a7 81 1b  	flw	fa4, 0x1b8(gp)
   1543e: d3 16 f7 a0  	flt.s	a3, fa4, fa5
   15442: 73 10 16 00  	fsflags	a2
   15446: 9d c6        	beqz	a3, 0x15474 <strtof+0x6c>
   15448: 73 26 10 00  	frflags	a2
   1544c: 07 b7 81 11  	fld	fa4, 0x118(gp)
   15450: d3 27 a5 22  	fabs.d	fa5, fa0
   15454: d3 16 f7 a2  	flt.d	a3, fa4, fa5
   15458: 73 10 16 00  	fsflags	a2
   1545c: 81 ee        	bnez	a3, 0x15474 <strtof+0x6c>
   1545e: 83 b7 01 23  	ld	a5, 0x230(gp)
   15462: 93 06 20 02  	li	a3, 0x22
   15466: 94 c3        	sw	a3, 0x0(a5)
   15468: a2 60        	ld	ra, 0x8(sp)
   1546a: 02 64        	ld	s0, 0x0(sp)
   1546c: 53 05 07 f0  	fmv.w.x	fa0, a4
   15470: 41 01        	addi	sp, sp, 0x10
   15472: 82 80        	ret
   15474: 93 56 77 01  	srli	a3, a4, 0x17
   15478: 93 f6 f6 0f  	andi	a3, a3, 0xff
   1547c: f5 f6        	bnez	a3, 0x15468 <strtof+0x60>
   1547e: 81 93        	srli	a5, a5, 0x20
   15480: 93 d6 47 01  	srli	a3, a5, 0x14
   15484: 93 f6 f6 7f  	andi	a3, a3, 0x7ff
   15488: f9 fa        	bnez	a3, 0x1545e <strtof+0x56>
   1548a: a2 60        	ld	ra, 0x8(sp)
   1548c: 02 64        	ld	s0, 0x0(sp)
   1548e: 53 05 07 f0  	fmv.w.x	fa0, a4
   15492: 41 01        	addi	sp, sp, 0x10
   15494: 82 80        	ret
   15496: 37 05 02 00  	lui	a0, 0x20
   1549a: 13 05 05 b8  	addi	a0, a0, -0x480
   1549e: 63 d9 07 00  	bgez	a5, 0x154b0 <strtof+0xa8>
   154a2: ef 10 30 43  	jal	0x170d4 <nanf>
   154a6: d3 17 a5 20  	fneg.s	fa5, fa0
   154aa: 53 87 07 e0  	fmv.x.w	a4, fa5
   154ae: 6d bf        	j	0x15468 <strtof+0x60>
   154b0: 02 64        	ld	s0, 0x0(sp)
   154b2: a2 60        	ld	ra, 0x8(sp)
   154b4: 41 01        	addi	sp, sp, 0x10
   154b6: 6f 10 f0 41  	j	0x170d4 <nanf>

00000000000154ba <_strtol_l.isra.0>:
   154ba: 01 11        	addi	sp, sp, -0x20
   154bc: 06 ec        	sd	ra, 0x18(sp)
   154be: 93 07 40 02  	li	a5, 0x24
   154c2: 63 ec d7 0c  	bltu	a5, a3, 0x1559a <_strtol_l.isra.0+0xe0>
   154c6: 85 47        	li	a5, 0x1
   154c8: 63 89 f6 0c  	beq	a3, a5, 0x1559a <_strtol_l.isra.0+0xe0>
   154cc: 37 08 02 00  	lui	a6, 0x20
   154d0: 22 e8        	sd	s0, 0x10(sp)
   154d2: 26 e4        	sd	s1, 0x8(sp)
   154d4: 4a e0        	sd	s2, 0x0(sp)
   154d6: ae 88        	mv	a7, a1
   154d8: 13 08 98 d1  	addi	a6, a6, -0x2e7
   154dc: 03 c7 08 00  	lbu	a4, 0x0(a7)
   154e0: 46 83        	mv	t1, a7
   154e2: 85 08        	addi	a7, a7, 0x1
   154e4: b3 07 e8 00  	add	a5, a6, a4
   154e8: 83 c7 07 00  	lbu	a5, 0x0(a5)
   154ec: a1 8b        	andi	a5, a5, 0x8
   154ee: fd f7        	bnez	a5, 0x154dc <_strtol_l.isra.0+0x22>
   154f0: 13 08 d0 02  	li	a6, 0x2d
   154f4: 9b 07 07 00  	sext.w	a5, a4
   154f8: 63 0b 07 11  	beq	a4, a6, 0x1560e <_strtol_l.isra.0+0x154>
   154fc: 13 07 b0 02  	li	a4, 0x2b
   15500: 63 85 e7 0a  	beq	a5, a4, 0x155aa <_strtol_l.isra.0+0xf0>
   15504: fd 54        	li	s1, -0x1
   15506: 85 80        	srli	s1, s1, 0x1
   15508: 01 49        	li	s2, 0x0
   1550a: c5 ea        	bnez	a3, 0x155ba <_strtol_l.isra.0+0x100>
   1550c: 13 07 00 03  	li	a4, 0x30
   15510: 63 87 e7 10  	beq	a5, a4, 0x1561e <_strtol_l.isra.0+0x164>
   15514: a9 43        	li	t2, 0xa
   15516: a9 46        	li	a3, 0xa
   15518: 33 f4 74 02  	remu	s0, s1, t2
   1551c: a5 4e        	li	t4, 0x9
   1551e: 1b 87 07 fd  	addiw	a4, a5, -0x30
   15522: 01 4e        	li	t3, 0x0
   15524: 01 48        	li	a6, 0x0
   15526: e5 42        	li	t0, 0x19
   15528: 7d 5f        	li	t5, -0x1
   1552a: 1b 83 07 00  	sext.w	t1, a5
   1552e: b3 df 74 02  	divu	t6, s1, t2
   15532: 01 24        	sext.w	s0, s0
   15534: 63 e9 ee 02  	bltu	t4, a4, 0x15566 <_strtol_l.isra.0+0xac>
   15538: ba 87        	mv	a5, a4
   1553a: 63 de d7 02  	bge	a5, a3, 0x15576 <_strtol_l.isra.0+0xbc>
   1553e: 63 0b ee 01  	beq	t3, t5, 0x15554 <_strtol_l.isra.0+0x9a>
   15542: 7d 5e        	li	t3, -0x1
   15544: 63 e8 0f 01  	bltu	t6, a6, 0x15554 <_strtol_l.isra.0+0x9a>
   15548: 63 87 0f 0b  	beq	t6, a6, 0x155f6 <_strtol_l.isra.0+0x13c>
   1554c: 05 4e        	li	t3, 0x1
   1554e: 33 08 78 02  	mul	a6, a6, t2
   15552: 3e 98        	add	a6, a6, a5
   15554: 83 c7 08 00  	lbu	a5, 0x0(a7)
   15558: 85 08        	addi	a7, a7, 0x1
   1555a: 1b 87 07 fd  	addiw	a4, a5, -0x30
   1555e: 1b 83 07 00  	sext.w	t1, a5
   15562: e3 fb ee fc  	bgeu	t4, a4, 0x15538 <_strtol_l.isra.0+0x7e>
   15566: 1b 07 f3 fb  	addiw	a4, t1, -0x41
   1556a: 63 ef e2 06  	bltu	t0, a4, 0x155e8 <_strtol_l.isra.0+0x12e>
   1556e: 9b 87 97 fc  	addiw	a5, a5, -0x37
   15572: e3 c6 d7 fc  	blt	a5, a3, 0x1553e <_strtol_l.isra.0+0x84>
   15576: fd 57        	li	a5, -0x1
   15578: 63 02 fe 08  	beq	t3, a5, 0x155fc <_strtol_l.isra.0+0x142>
   1557c: 63 04 09 00  	beqz	s2, 0x15584 <_strtol_l.isra.0+0xca>
   15580: 33 08 00 41  	neg	a6, a6
   15584: 01 c6        	beqz	a2, 0x1558c <_strtol_l.isra.0+0xd2>
   15586: 63 17 0e 0a  	bnez	t3, 0x15634 <_strtol_l.isra.0+0x17a>
   1558a: 0c e2        	sd	a1, 0x0(a2)
   1558c: 42 64        	ld	s0, 0x10(sp)
   1558e: e2 60        	ld	ra, 0x18(sp)
   15590: a2 64        	ld	s1, 0x8(sp)
   15592: 02 69        	ld	s2, 0x0(sp)
   15594: 42 85        	mv	a0, a6
   15596: 05 61        	addi	sp, sp, 0x20
   15598: 82 80        	ret
   1559a: ef 10 00 74  	jal	0x16cda <__errno>
   1559e: e2 60        	ld	ra, 0x18(sp)
   155a0: d9 47        	li	a5, 0x16
   155a2: 1c c1        	sw	a5, 0x0(a0)
   155a4: 01 45        	li	a0, 0x0
   155a6: 05 61        	addi	sp, sp, 0x20
   155a8: 82 80        	ret
   155aa: fd 54        	li	s1, -0x1
   155ac: 83 c7 08 00  	lbu	a5, 0x0(a7)
   155b0: 85 80        	srli	s1, s1, 0x1
   155b2: 93 08 23 00  	addi	a7, t1, 0x2
   155b6: 01 49        	li	s2, 0x0
   155b8: b1 da        	beqz	a3, 0x1550c <_strtol_l.isra.0+0x52>
   155ba: 41 47        	li	a4, 0x10
   155bc: b6 83        	mv	t2, a3
   155be: e3 9d e6 f4  	bne	a3, a4, 0x15518 <_strtol_l.isra.0+0x5e>
   155c2: 13 07 00 03  	li	a4, 0x30
   155c6: c1 43        	li	t2, 0x10
   155c8: e3 98 e7 f4  	bne	a5, a4, 0x15518 <_strtol_l.isra.0+0x5e>
   155cc: 03 c7 08 00  	lbu	a4, 0x0(a7)
   155d0: 13 08 80 05  	li	a6, 0x58
   155d4: 13 77 f7 0d  	andi	a4, a4, 0xdf
   155d8: e3 10 07 f5  	bne	a4, a6, 0x15518 <_strtol_l.isra.0+0x5e>
   155dc: 83 c7 18 00  	lbu	a5, 0x1(a7)
   155e0: c1 43        	li	t2, 0x10
   155e2: 89 08        	addi	a7, a7, 0x2
   155e4: c1 46        	li	a3, 0x10
   155e6: 0d bf        	j	0x15518 <_strtol_l.isra.0+0x5e>
   155e8: 1b 03 f3 f9  	addiw	t1, t1, -0x61
   155ec: e3 e5 62 f8  	bltu	t0, t1, 0x15576 <_strtol_l.isra.0+0xbc>
   155f0: 9b 87 97 fa  	addiw	a5, a5, -0x57
   155f4: 99 b7        	j	0x1553a <_strtol_l.isra.0+0x80>
   155f6: e3 4f f4 f4  	blt	s0, a5, 0x15554 <_strtol_l.isra.0+0x9a>
   155fa: 89 bf        	j	0x1554c <_strtol_l.isra.0+0x92>
   155fc: 93 07 20 02  	li	a5, 0x22
   15600: 1c c1        	sw	a5, 0x0(a0)
   15602: 26 88        	mv	a6, s1
   15604: 41 d6        	beqz	a2, 0x1558c <_strtol_l.isra.0+0xd2>
   15606: 93 85 f8 ff  	addi	a1, a7, -0x1
   1560a: 26 88        	mv	a6, s1
   1560c: bd bf        	j	0x1558a <_strtol_l.isra.0+0xd0>
   1560e: fd 54        	li	s1, -0x1
   15610: 83 c7 08 00  	lbu	a5, 0x0(a7)
   15614: fe 14        	slli	s1, s1, 0x3f
   15616: 93 08 23 00  	addi	a7, t1, 0x2
   1561a: 05 49        	li	s2, 0x1
   1561c: fd b5        	j	0x1550a <_strtol_l.isra.0+0x50>
   1561e: 03 c7 08 00  	lbu	a4, 0x0(a7)
   15622: 13 08 80 05  	li	a6, 0x58
   15626: a1 43        	li	t2, 0x8
   15628: 13 77 f7 0d  	andi	a4, a4, 0xdf
   1562c: a1 46        	li	a3, 0x8
   1562e: e3 15 07 ef  	bne	a4, a6, 0x15518 <_strtol_l.isra.0+0x5e>
   15632: 6d b7        	j	0x155dc <_strtol_l.isra.0+0x122>
   15634: c2 84        	mv	s1, a6
   15636: c1 bf        	j	0x15606 <_strtol_l.isra.0+0x14c>

0000000000015638 <_strtol_r>:
   15638: 6f f0 3f e8  	j	0x154ba <_strtol_l.isra.0>

000000000001563c <strtol_l>:
   1563c: aa 87        	mv	a5, a0
   1563e: 03 b5 01 23  	ld	a0, 0x230(gp)
   15642: b2 86        	mv	a3, a2
   15644: 2e 86        	mv	a2, a1
   15646: be 85        	mv	a1, a5
   15648: 6f f0 3f e7  	j	0x154ba <_strtol_l.isra.0>

000000000001564c <strtol>:
   1564c: aa 87        	mv	a5, a0
   1564e: 03 b5 01 23  	ld	a0, 0x230(gp)
   15652: b2 86        	mv	a3, a2
   15654: 2e 86        	mv	a2, a1
   15656: be 85        	mv	a1, a5
   15658: 6f f0 3f e6  	j	0x154ba <_strtol_l.isra.0>

000000000001565c <_fclose_r>:
   1565c: 01 11        	addi	sp, sp, -0x20
   1565e: 06 ec        	sd	ra, 0x18(sp)
   15660: 4a e0        	sd	s2, 0x0(sp)
   15662: 89 cd        	beqz	a1, 0x1567c <_fclose_r+0x20>
   15664: 22 e8        	sd	s0, 0x10(sp)
   15666: 26 e4        	sd	s1, 0x8(sp)
   15668: 2e 84        	mv	s0, a1
   1566a: aa 84        	mv	s1, a0
   1566c: 19 c1        	beqz	a0, 0x15672 <_fclose_r+0x16>
   1566e: 3c 65        	ld	a5, 0x48(a0)
   15670: d9 c7        	beqz	a5, 0x156fe <_fclose_r+0xa2>
   15672: 83 17 04 01  	lh	a5, 0x10(s0)
   15676: 89 eb        	bnez	a5, 0x15688 <_fclose_r+0x2c>
   15678: 42 64        	ld	s0, 0x10(sp)
   1567a: a2 64        	ld	s1, 0x8(sp)
   1567c: e2 60        	ld	ra, 0x18(sp)
   1567e: 01 49        	li	s2, 0x0
   15680: 4a 85        	mv	a0, s2
   15682: 02 69        	ld	s2, 0x0(sp)
   15684: 05 61        	addi	sp, sp, 0x20
   15686: 82 80        	ret
   15688: a2 85        	mv	a1, s0
   1568a: 26 85        	mv	a0, s1
   1568c: ef 00 00 08  	jal	0x1570c <__sflush_r>
   15690: 3c 68        	ld	a5, 0x50(s0)
   15692: 2a 89        	mv	s2, a0
   15694: 91 c7        	beqz	a5, 0x156a0 <_fclose_r+0x44>
   15696: 0c 78        	ld	a1, 0x30(s0)
   15698: 26 85        	mv	a0, s1
   1569a: 82 97        	jalr	a5
   1569c: 63 46 05 04  	bltz	a0, 0x156e8 <_fclose_r+0x8c>
   156a0: 83 57 04 01  	lhu	a5, 0x10(s0)
   156a4: 93 f7 07 08  	andi	a5, a5, 0x80
   156a8: b1 e7        	bnez	a5, 0x156f4 <_fclose_r+0x98>
   156aa: 2c 6c        	ld	a1, 0x58(s0)
   156ac: 91 c9        	beqz	a1, 0x156c0 <_fclose_r+0x64>
   156ae: 93 07 44 07  	addi	a5, s0, 0x74
   156b2: 63 85 f5 00  	beq	a1, a5, 0x156bc <_fclose_r+0x60>
   156b6: 26 85        	mv	a0, s1
   156b8: ef 10 10 3d  	jal	0x17288 <_free_r>
   156bc: 23 3c 04 04  	sd	zero, 0x58(s0)
   156c0: 2c 7c        	ld	a1, 0x78(s0)
   156c2: 91 c5        	beqz	a1, 0x156ce <_fclose_r+0x72>
   156c4: 26 85        	mv	a0, s1
   156c6: ef 10 30 3c  	jal	0x17288 <_free_r>
   156ca: 23 3c 04 06  	sd	zero, 0x78(s0)
   156ce: ef 00 c0 60  	jal	0x15cda <__sfp_lock_acquire>
   156d2: 23 18 04 00  	sh	zero, 0x10(s0)
   156d6: ef 00 60 60  	jal	0x15cdc <__sfp_lock_release>
   156da: e2 60        	ld	ra, 0x18(sp)
   156dc: 42 64        	ld	s0, 0x10(sp)
   156de: a2 64        	ld	s1, 0x8(sp)
   156e0: 4a 85        	mv	a0, s2
   156e2: 02 69        	ld	s2, 0x0(sp)
   156e4: 05 61        	addi	sp, sp, 0x20
   156e6: 82 80        	ret
   156e8: 83 57 04 01  	lhu	a5, 0x10(s0)
   156ec: 7d 59        	li	s2, -0x1
   156ee: 93 f7 07 08  	andi	a5, a5, 0x80
   156f2: c5 df        	beqz	a5, 0x156aa <_fclose_r+0x4e>
   156f4: 0c 6c        	ld	a1, 0x18(s0)
   156f6: 26 85        	mv	a0, s1
   156f8: ef 10 10 39  	jal	0x17288 <_free_r>
   156fc: 7d b7        	j	0x156aa <_fclose_r+0x4e>
   156fe: ef 00 40 5c  	jal	0x15cc2 <__sinit>
   15702: 85 bf        	j	0x15672 <_fclose_r+0x16>

0000000000015704 <fclose>:
   15704: aa 85        	mv	a1, a0
   15706: 03 b5 01 23  	ld	a0, 0x230(gp)
   1570a: 89 bf        	j	0x1565c <_fclose_r>

000000000001570c <__sflush_r>:
   1570c: 03 97 05 01  	lh	a4, 0x10(a1)
   15710: 79 71        	addi	sp, sp, -0x30
   15712: 22 f0        	sd	s0, 0x20(sp)
   15714: 4e e4        	sd	s3, 0x8(sp)
   15716: 06 f4        	sd	ra, 0x28(sp)
   15718: 93 77 87 00  	andi	a5, a4, 0x8
   1571c: 2e 84        	mv	s0, a1
   1571e: aa 89        	mv	s3, a0
   15720: f1 e7        	bnez	a5, 0x157ec <__sflush_r+0xe0>
   15722: 85 67        	lui	a5, 0x1
   15724: 93 87 07 80  	addi	a5, a5, -0x800
   15728: 94 45        	lw	a3, 0x8(a1)
   1572a: d9 8f        	or	a5, a5, a4
   1572c: 23 98 f5 00  	sh	a5, 0x10(a1)
   15730: 63 57 d0 10  	blez	a3, 0x1583e <__sflush_r+0x132>
   15734: 03 38 84 04  	ld	a6, 0x48(s0)
   15738: 63 04 08 0a  	beqz	a6, 0x157e0 <__sflush_r+0xd4>
   1573c: 26 ec        	sd	s1, 0x18(sp)
   1573e: 93 16 37 03  	slli	a3, a4, 0x33
   15742: 83 a4 09 00  	lw	s1, 0x0(s3)
   15746: 23 a0 09 00  	sw	zero, 0x0(s3)
   1574a: 0c 78        	ld	a1, 0x30(s0)
   1574c: 63 c0 06 10  	bltz	a3, 0x1584c <__sflush_r+0x140>
   15750: 01 46        	li	a2, 0x0
   15752: 85 46        	li	a3, 0x1
   15754: 4e 85        	mv	a0, s3
   15756: 02 98        	jalr	a6
   15758: fd 57        	li	a5, -0x1
   1575a: 2a 86        	mv	a2, a0
   1575c: 63 01 f5 12  	beq	a0, a5, 0x1587e <__sflush_r+0x172>
   15760: 83 17 04 01  	lh	a5, 0x10(s0)
   15764: 03 38 84 04  	ld	a6, 0x48(s0)
   15768: 0c 78        	ld	a1, 0x30(s0)
   1576a: 91 8b        	andi	a5, a5, 0x4
   1576c: 99 c7        	beqz	a5, 0x1577a <__sflush_r+0x6e>
   1576e: 18 44        	lw	a4, 0x8(s0)
   15770: 3c 6c        	ld	a5, 0x58(s0)
   15772: 19 8e        	sub	a2, a2, a4
   15774: 99 c3        	beqz	a5, 0x1577a <__sflush_r+0x6e>
   15776: 3c 58        	lw	a5, 0x70(s0)
   15778: 1d 8e        	sub	a2, a2, a5
   1577a: 81 46        	li	a3, 0x0
   1577c: 4e 85        	mv	a0, s3
   1577e: 02 98        	jalr	a6
   15780: fd 57        	li	a5, -0x1
   15782: 63 17 f5 0c  	bne	a0, a5, 0x15850 <__sflush_r+0x144>
   15786: 83 a6 09 00  	lw	a3, 0x0(s3)
   1578a: f5 47        	li	a5, 0x1d
   1578c: 03 17 04 01  	lh	a4, 0x10(s0)
   15790: 1b 86 06 00  	sext.w	a2, a3
   15794: 63 e1 d7 10  	bltu	a5, a3, 0x15896 <__sflush_r+0x18a>
   15798: b7 07 40 20  	lui	a5, 0x20400
   1579c: 85 07        	addi	a5, a5, 0x1
   1579e: b3 d7 c7 00  	srl	a5, a5, a2
   157a2: 85 8b        	andi	a5, a5, 0x1
   157a4: ed cb        	beqz	a5, 0x15896 <__sflush_r+0x18a>
   157a6: 10 6c        	ld	a2, 0x18(s0)
   157a8: fd 77        	lui	a5, 0xfffff
   157aa: 93 87 f7 7f  	addi	a5, a5, 0x7ff
   157ae: f9 8f        	and	a5, a5, a4
   157b0: 23 18 f4 00  	sh	a5, 0x10(s0)
   157b4: 23 24 04 00  	sw	zero, 0x8(s0)
   157b8: 10 e0        	sd	a2, 0x0(s0)
   157ba: 93 17 37 03  	slli	a5, a4, 0x33
   157be: 63 d3 07 00  	bgez	a5, 0x157c4 <__sflush_r+0xb8>
   157c2: dd c6        	beqz	a3, 0x15870 <__sflush_r+0x164>
   157c4: 2c 6c        	ld	a1, 0x58(s0)
   157c6: 23 a0 99 00  	sw	s1, 0x0(s3)
   157ca: c5 c9        	beqz	a1, 0x1587a <__sflush_r+0x16e>
   157cc: 93 07 44 07  	addi	a5, s0, 0x74
   157d0: 63 85 f5 00  	beq	a1, a5, 0x157da <__sflush_r+0xce>
   157d4: 4e 85        	mv	a0, s3
   157d6: ef 10 30 2b  	jal	0x17288 <_free_r>
   157da: e2 64        	ld	s1, 0x18(sp)
   157dc: 23 3c 04 04  	sd	zero, 0x58(s0)
   157e0: 01 45        	li	a0, 0x0
   157e2: a2 70        	ld	ra, 0x28(sp)
   157e4: 02 74        	ld	s0, 0x20(sp)
   157e6: a2 69        	ld	s3, 0x8(sp)
   157e8: 45 61        	addi	sp, sp, 0x30
   157ea: 82 80        	ret
   157ec: 4a e8        	sd	s2, 0x10(sp)
   157ee: 03 b9 85 01  	ld	s2, 0x18(a1)
   157f2: 63 0b 09 04  	beqz	s2, 0x15848 <__sflush_r+0x13c>
   157f6: 26 ec        	sd	s1, 0x18(sp)
   157f8: 84 61        	ld	s1, 0x0(a1)
   157fa: 0d 8b        	andi	a4, a4, 0x3
   157fc: 23 b0 25 01  	sd	s2, 0x0(a1)
   15800: bb 84 24 41  	subw	s1, s1, s2
   15804: 81 47        	li	a5, 0x0
   15806: 11 e3        	bnez	a4, 0x1580a <__sflush_r+0xfe>
   15808: 9c 51        	lw	a5, 0x20(a1)
   1580a: 5c c4        	sw	a5, 0xc(s0)
   1580c: 63 46 90 00  	bgtz	s1, 0x15818 <__sflush_r+0x10c>
   15810: 1d a8        	j	0x15846 <__sflush_r+0x13a>
   15812: 2a 99        	add	s2, s2, a0
   15814: 63 59 90 02  	blez	s1, 0x15846 <__sflush_r+0x13a>
   15818: 3c 60        	ld	a5, 0x40(s0)
   1581a: 0c 78        	ld	a1, 0x30(s0)
   1581c: a6 86        	mv	a3, s1
   1581e: 4a 86        	mv	a2, s2
   15820: 4e 85        	mv	a0, s3
   15822: 82 97        	jalr	a5
   15824: 89 9c        	subw	s1, s1, a0
   15826: e3 46 a0 fe  	bgtz	a0, 0x15812 <__sflush_r+0x106>
   1582a: 03 17 04 01  	lh	a4, 0x10(s0)
   1582e: 42 69        	ld	s2, 0x10(sp)
   15830: 13 67 07 04  	ori	a4, a4, 0x40
   15834: e2 64        	ld	s1, 0x18(sp)
   15836: 23 18 e4 00  	sh	a4, 0x10(s0)
   1583a: 7d 55        	li	a0, -0x1
   1583c: 5d b7        	j	0x157e2 <__sflush_r+0xd6>
   1583e: b4 59        	lw	a3, 0x70(a1)
   15840: e3 4a d0 ee  	bgtz	a3, 0x15734 <__sflush_r+0x28>
   15844: 71 bf        	j	0x157e0 <__sflush_r+0xd4>
   15846: e2 64        	ld	s1, 0x18(sp)
   15848: 42 69        	ld	s2, 0x10(sp)
   1584a: 59 bf        	j	0x157e0 <__sflush_r+0xd4>
   1584c: 50 68        	ld	a2, 0x90(s0)
   1584e: 31 bf        	j	0x1576a <__sflush_r+0x5e>
   15850: 03 17 04 01  	lh	a4, 0x10(s0)
   15854: 14 6c        	ld	a3, 0x18(s0)
   15856: fd 77        	lui	a5, 0xfffff
   15858: 93 87 f7 7f  	addi	a5, a5, 0x7ff
   1585c: f9 8f        	and	a5, a5, a4
   1585e: 23 18 f4 00  	sh	a5, 0x10(s0)
   15862: 23 24 04 00  	sw	zero, 0x8(s0)
   15866: 14 e0        	sd	a3, 0x0(s0)
   15868: 93 17 37 03  	slli	a5, a4, 0x33
   1586c: e3 dc 07 f4  	bgez	a5, 0x157c4 <__sflush_r+0xb8>
   15870: 2c 6c        	ld	a1, 0x58(s0)
   15872: 48 e8        	sd	a0, 0x90(s0)
   15874: 23 a0 99 00  	sw	s1, 0x0(s3)
   15878: b1 f9        	bnez	a1, 0x157cc <__sflush_r+0xc0>
   1587a: e2 64        	ld	s1, 0x18(sp)
   1587c: 95 b7        	j	0x157e0 <__sflush_r+0xd4>
   1587e: 83 a7 09 00  	lw	a5, 0x0(s3)
   15882: e3 8f 07 ec  	beqz	a5, 0x15760 <__sflush_r+0x54>
   15886: 75 47        	li	a4, 0x1d
   15888: 63 8a e7 00  	beq	a5, a4, 0x1589c <__sflush_r+0x190>
   1588c: 59 47        	li	a4, 0x16
   1588e: 63 87 e7 00  	beq	a5, a4, 0x1589c <__sflush_r+0x190>
   15892: 03 17 04 01  	lh	a4, 0x10(s0)
   15896: 13 67 07 04  	ori	a4, a4, 0x40
   1589a: 69 bf        	j	0x15834 <__sflush_r+0x128>
   1589c: 23 a0 99 00  	sw	s1, 0x0(s3)
   158a0: e2 64        	ld	s1, 0x18(sp)
   158a2: 3d bf        	j	0x157e0 <__sflush_r+0xd4>

00000000000158a4 <_fflush_r>:
   158a4: 01 11        	addi	sp, sp, -0x20
   158a6: 22 e8        	sd	s0, 0x10(sp)
   158a8: 06 ec        	sd	ra, 0x18(sp)
   158aa: 2a 84        	mv	s0, a0
   158ac: 19 c1        	beqz	a0, 0x158b2 <_fflush_r+0xe>
   158ae: 3c 65        	ld	a5, 0x48(a0)
   158b0: 99 cf        	beqz	a5, 0x158ce <_fflush_r+0x2a>
   158b2: 83 97 05 01  	lh	a5, 0x10(a1)
   158b6: 91 e7        	bnez	a5, 0x158c2 <_fflush_r+0x1e>
   158b8: e2 60        	ld	ra, 0x18(sp)
   158ba: 42 64        	ld	s0, 0x10(sp)
   158bc: 01 45        	li	a0, 0x0
   158be: 05 61        	addi	sp, sp, 0x20
   158c0: 82 80        	ret
   158c2: 22 85        	mv	a0, s0
   158c4: 42 64        	ld	s0, 0x10(sp)
   158c6: e2 60        	ld	ra, 0x18(sp)
   158c8: 05 61        	addi	sp, sp, 0x20
   158ca: 6f f0 3f e4  	j	0x1570c <__sflush_r>
   158ce: 2e e4        	sd	a1, 0x8(sp)
   158d0: ef 00 20 3f  	jal	0x15cc2 <__sinit>
   158d4: a2 65        	ld	a1, 0x8(sp)
   158d6: f1 bf        	j	0x158b2 <_fflush_r+0xe>

00000000000158d8 <fflush>:
   158d8: 0d cd        	beqz	a0, 0x15912 <fflush+0x3a>
   158da: aa 85        	mv	a1, a0
   158dc: 03 b5 01 23  	ld	a0, 0x230(gp)
   158e0: 19 c1        	beqz	a0, 0x158e6 <fflush+0xe>
   158e2: 3c 65        	ld	a5, 0x48(a0)
   158e4: 81 cb        	beqz	a5, 0x158f4 <fflush+0x1c>
   158e6: 83 97 05 01  	lh	a5, 0x10(a1)
   158ea: 99 e3        	bnez	a5, 0x158f0 <fflush+0x18>
   158ec: 01 45        	li	a0, 0x0
   158ee: 82 80        	ret
   158f0: 6f f0 df e1  	j	0x1570c <__sflush_r>
   158f4: 01 11        	addi	sp, sp, -0x20
   158f6: 2e e4        	sd	a1, 0x8(sp)
   158f8: 2a e0        	sd	a0, 0x0(sp)
   158fa: 06 ec        	sd	ra, 0x18(sp)
   158fc: ef 00 60 3c  	jal	0x15cc2 <__sinit>
   15900: a2 65        	ld	a1, 0x8(sp)
   15902: 02 65        	ld	a0, 0x0(sp)
   15904: 83 97 05 01  	lh	a5, 0x10(a1)
   15908: 89 ef        	bnez	a5, 0x15922 <fflush+0x4a>
   1590a: e2 60        	ld	ra, 0x18(sp)
   1590c: 01 45        	li	a0, 0x0
   1590e: 05 61        	addi	sp, sp, 0x20
   15910: 82 80        	ret
   15912: d9 65        	lui	a1, 0x16
   15914: 13 86 81 d6  	addi	a2, gp, -0x298
   15918: 93 85 45 8a  	addi	a1, a1, -0x75c
   1591c: 13 85 81 f2  	addi	a0, gp, -0xd8
   15920: 75 ad        	j	0x15fdc <_fwalk_sglue>
   15922: e2 60        	ld	ra, 0x18(sp)
   15924: 05 61        	addi	sp, sp, 0x20
   15926: 6f f0 7f de  	j	0x1570c <__sflush_r>

000000000001592a <_fgetc_r>:
   1592a: 01 11        	addi	sp, sp, -0x20
   1592c: 22 e8        	sd	s0, 0x10(sp)
   1592e: 06 ec        	sd	ra, 0x18(sp)
   15930: 2a 84        	mv	s0, a0
   15932: 19 c1        	beqz	a0, 0x15938 <_fgetc_r+0xe>
   15934: 3c 65        	ld	a5, 0x48(a0)
   15936: 85 cb        	beqz	a5, 0x15966 <_fgetc_r+0x3c>
   15938: 9c 45        	lw	a5, 0x8(a1)
   1593a: fd 37        	addiw	a5, a5, -0x1
   1593c: 9c c5        	sw	a5, 0x8(a1)
   1593e: 13 97 07 02  	slli	a4, a5, 0x20
   15942: 63 4c 07 00  	bltz	a4, 0x1595a <_fgetc_r+0x30>
   15946: 9c 61        	ld	a5, 0x0(a1)
   15948: e2 60        	ld	ra, 0x18(sp)
   1594a: 42 64        	ld	s0, 0x10(sp)
   1594c: 13 87 17 00  	addi	a4, a5, 0x1
   15950: 98 e1        	sd	a4, 0x0(a1)
   15952: 03 c5 07 00  	lbu	a0, 0x0(a5)
   15956: 05 61        	addi	sp, sp, 0x20
   15958: 82 80        	ret
   1595a: 22 85        	mv	a0, s0
   1595c: 42 64        	ld	s0, 0x10(sp)
   1595e: e2 60        	ld	ra, 0x18(sp)
   15960: 05 61        	addi	sp, sp, 0x20
   15962: 6f 00 b0 2d  	j	0x1643c <__srget_r>
   15966: 2e e4        	sd	a1, 0x8(sp)
   15968: ef 00 a0 35  	jal	0x15cc2 <__sinit>
   1596c: a2 65        	ld	a1, 0x8(sp)
   1596e: e9 b7        	j	0x15938 <_fgetc_r+0xe>

0000000000015970 <fgetc>:
   15970: 01 11        	addi	sp, sp, -0x20
   15972: 26 e4        	sd	s1, 0x8(sp)
   15974: 83 b4 01 23  	ld	s1, 0x230(gp)
   15978: 22 e8        	sd	s0, 0x10(sp)
   1597a: 06 ec        	sd	ra, 0x18(sp)
   1597c: 2a 84        	mv	s0, a0
   1597e: 99 c0        	beqz	s1, 0x15984 <fgetc+0x14>
   15980: bc 64        	ld	a5, 0x48(s1)
   15982: 9d cb        	beqz	a5, 0x159b8 <fgetc+0x48>
   15984: 1c 44        	lw	a5, 0x8(s0)
   15986: fd 37        	addiw	a5, a5, -0x1
   15988: 1c c4        	sw	a5, 0x8(s0)
   1598a: 13 97 07 02  	slli	a4, a5, 0x20
   1598e: 63 4d 07 00  	bltz	a4, 0x159a8 <fgetc+0x38>
   15992: 1c 60        	ld	a5, 0x0(s0)
   15994: e2 60        	ld	ra, 0x18(sp)
   15996: a2 64        	ld	s1, 0x8(sp)
   15998: 13 87 17 00  	addi	a4, a5, 0x1
   1599c: 18 e0        	sd	a4, 0x0(s0)
   1599e: 42 64        	ld	s0, 0x10(sp)
   159a0: 03 c5 07 00  	lbu	a0, 0x0(a5)
   159a4: 05 61        	addi	sp, sp, 0x20
   159a6: 82 80        	ret
   159a8: a2 85        	mv	a1, s0
   159aa: 42 64        	ld	s0, 0x10(sp)
   159ac: e2 60        	ld	ra, 0x18(sp)
   159ae: 26 85        	mv	a0, s1
   159b0: a2 64        	ld	s1, 0x8(sp)
   159b2: 05 61        	addi	sp, sp, 0x20
   159b4: 6f 00 90 28  	j	0x1643c <__srget_r>
   159b8: 26 85        	mv	a0, s1
   159ba: ef 00 80 30  	jal	0x15cc2 <__sinit>
   159be: d9 b7        	j	0x15984 <fgetc+0x14>

00000000000159c0 <_fgets_r>:
   159c0: 85 47        	li	a5, 0x1
   159c2: 63 d1 c7 0c  	bge	a5, a2, 0x15a84 <_fgets_r+0xc4>
   159c6: 1d 71        	addi	sp, sp, -0x60
   159c8: a2 e8        	sd	s0, 0x50(sp)
   159ca: 4e fc        	sd	s3, 0x38(sp)
   159cc: 52 f8        	sd	s4, 0x30(sp)
   159ce: 86 ec        	sd	ra, 0x58(sp)
   159d0: a6 e4        	sd	s1, 0x48(sp)
   159d2: ca e0        	sd	s2, 0x40(sp)
   159d4: 56 f4        	sd	s5, 0x28(sp)
   159d6: 5a f0        	sd	s6, 0x20(sp)
   159d8: 5e ec        	sd	s7, 0x18(sp)
   159da: 2a 8a        	mv	s4, a0
   159dc: ae 89        	mv	s3, a1
   159de: 36 84        	mv	s0, a3
   159e0: 19 c1        	beqz	a0, 0x159e6 <_fgets_r+0x26>
   159e2: 3c 65        	ld	a5, 0x48(a0)
   159e4: d9 cb        	beqz	a5, 0x15a7a <_fgets_r+0xba>
   159e6: 1b 09 f6 ff  	addiw	s2, a2, -0x1
   159ea: ce 8a        	mv	s5, s3
   159ec: 29 a8        	j	0x15a06 <_fgets_r+0x46>
   159ee: 1c 60        	ld	a5, 0x0(s0)
   159f0: 05 9f        	subw	a4, a4, s1
   159f2: 18 c4        	sw	a4, 0x8(s0)
   159f4: a6 97        	add	a5, a5, s1
   159f6: 1c e0        	sd	a5, 0x0(s0)
   159f8: 3b 09 79 41  	subw	s2, s2, s7
   159fc: ef 10 00 40  	jal	0x16dfc <memcpy>
   15a00: a6 9a        	add	s5, s5, s1
   15a02: 63 07 09 06  	beqz	s2, 0x15a70 <_fgets_r+0xb0>
   15a06: 1c 44        	lw	a5, 0x8(s0)
   15a08: a2 85        	mv	a1, s0
   15a0a: 52 85        	mv	a0, s4
   15a0c: 89 e7        	bnez	a5, 0x15a16 <_fgets_r+0x56>
   15a0e: ef 00 30 0d  	jal	0x162e0 <__srefill_r>
   15a12: 29 ed        	bnez	a0, 0x15a6c <_fgets_r+0xac>
   15a14: 1c 44        	lw	a5, 0x8(s0)
   15a16: 03 3b 04 00  	ld	s6, 0x0(s0)
   15a1a: a9 45        	li	a1, 0xa
   15a1c: ca 84        	mv	s1, s2
   15a1e: 63 f3 27 01  	bgeu	a5, s2, 0x15a24 <_fgets_r+0x64>
   15a22: be 84        	mv	s1, a5
   15a24: 26 86        	mv	a2, s1
   15a26: 5a 85        	mv	a0, s6
   15a28: ef 00 b0 69  	jal	0x168c2 <memchr>
   15a2c: aa 87        	mv	a5, a0
   15a2e: 18 44        	lw	a4, 0x8(s0)
   15a30: 26 86        	mv	a2, s1
   15a32: da 85        	mv	a1, s6
   15a34: 56 85        	mv	a0, s5
   15a36: 9b 8b 04 00  	sext.w	s7, s1
   15a3a: d5 db        	beqz	a5, 0x159ee <_fgets_r+0x2e>
   15a3c: 85 07        	addi	a5, a5, 0x1
   15a3e: b3 84 67 41  	sub	s1, a5, s6
   15a42: 05 9f        	subw	a4, a4, s1
   15a44: 26 86        	mv	a2, s1
   15a46: 18 c4        	sw	a4, 0x8(s0)
   15a48: 1c e0        	sd	a5, 0x0(s0)
   15a4a: d6 94        	add	s1, s1, s5
   15a4c: ef 10 00 3b  	jal	0x16dfc <memcpy>
   15a50: 23 80 04 00  	sb	zero, 0x0(s1)
   15a54: 4e 85        	mv	a0, s3
   15a56: e6 60        	ld	ra, 0x58(sp)
   15a58: 46 64        	ld	s0, 0x50(sp)
   15a5a: a6 64        	ld	s1, 0x48(sp)
   15a5c: 06 69        	ld	s2, 0x40(sp)
   15a5e: e2 79        	ld	s3, 0x38(sp)
   15a60: 42 7a        	ld	s4, 0x30(sp)
   15a62: a2 7a        	ld	s5, 0x28(sp)
   15a64: 02 7b        	ld	s6, 0x20(sp)
   15a66: e2 6b        	ld	s7, 0x18(sp)
   15a68: 25 61        	addi	sp, sp, 0x60
   15a6a: 82 80        	ret
   15a6c: 63 85 3a 01  	beq	s5, s3, 0x15a76 <_fgets_r+0xb6>
   15a70: 23 80 0a 00  	sb	zero, 0x0(s5)
   15a74: c5 b7        	j	0x15a54 <_fgets_r+0x94>
   15a76: 01 45        	li	a0, 0x0
   15a78: f9 bf        	j	0x15a56 <_fgets_r+0x96>
   15a7a: 32 e4        	sd	a2, 0x8(sp)
   15a7c: ef 00 60 24  	jal	0x15cc2 <__sinit>
   15a80: 22 66        	ld	a2, 0x8(sp)
   15a82: 95 b7        	j	0x159e6 <_fgets_r+0x26>
   15a84: 01 45        	li	a0, 0x0
   15a86: 82 80        	ret

0000000000015a88 <fgets>:
   15a88: aa 87        	mv	a5, a0
   15a8a: 03 b5 01 23  	ld	a0, 0x230(gp)
   15a8e: b2 86        	mv	a3, a2
   15a90: 2e 86        	mv	a2, a1
   15a92: be 85        	mv	a1, a5
   15a94: 35 b7        	j	0x159c0 <_fgets_r>

0000000000015a96 <__fp_lock>:
   15a96: 01 45        	li	a0, 0x0
   15a98: 82 80        	ret

0000000000015a9a <stdio_exit_handler>:
   15a9a: d5 65        	lui	a1, 0x15
   15a9c: 13 86 81 d6  	addi	a2, gp, -0x298
   15aa0: 93 85 c5 65  	addi	a1, a1, 0x65c
   15aa4: 13 85 81 f2  	addi	a0, gp, -0xd8
   15aa8: 15 ab        	j	0x15fdc <_fwalk_sglue>

0000000000015aaa <cleanup_stdio>:
   15aaa: 0c 65        	ld	a1, 0x8(a0)
   15aac: 41 11        	addi	sp, sp, -0x10
   15aae: 22 e0        	sd	s0, 0x0(sp)
   15ab0: 06 e4        	sd	ra, 0x8(sp)
   15ab2: 93 87 81 2d  	addi	a5, gp, 0x2d8
   15ab6: 2a 84        	mv	s0, a0
   15ab8: 63 84 f5 00  	beq	a1, a5, 0x15ac0 <cleanup_stdio+0x16>
   15abc: ef f0 1f ba  	jal	0x1565c <_fclose_r>
   15ac0: 0c 68        	ld	a1, 0x10(s0)
   15ac2: 93 87 81 38  	addi	a5, gp, 0x388
   15ac6: 63 85 f5 00  	beq	a1, a5, 0x15ad0 <cleanup_stdio+0x26>
   15aca: 22 85        	mv	a0, s0
   15acc: ef f0 1f b9  	jal	0x1565c <_fclose_r>
   15ad0: 0c 6c        	ld	a1, 0x18(s0)
   15ad2: 93 87 81 43  	addi	a5, gp, 0x438
   15ad6: 63 88 f5 00  	beq	a1, a5, 0x15ae6 <cleanup_stdio+0x3c>
   15ada: 22 85        	mv	a0, s0
   15adc: 02 64        	ld	s0, 0x0(sp)
   15ade: a2 60        	ld	ra, 0x8(sp)
   15ae0: 41 01        	addi	sp, sp, 0x10
   15ae2: 6f f0 bf b7  	j	0x1565c <_fclose_r>
   15ae6: a2 60        	ld	ra, 0x8(sp)
   15ae8: 02 64        	ld	s0, 0x0(sp)
   15aea: 41 01        	addi	sp, sp, 0x10
   15aec: 82 80        	ret

0000000000015aee <__fp_unlock>:
   15aee: 01 45        	li	a0, 0x0
   15af0: 82 80        	ret

0000000000015af2 <global_stdio_init.part.0>:
   15af2: 79 71        	addi	sp, sp, -0x30
   15af4: d9 67        	lui	a5, 0x16
   15af6: 22 f0        	sd	s0, 0x20(sp)
   15af8: 93 87 a7 a9  	addi	a5, a5, -0x566
   15afc: 13 84 81 2d  	addi	s0, gp, 0x2d8
   15b00: 06 f4        	sd	ra, 0x28(sp)
   15b02: 26 ec        	sd	s1, 0x18(sp)
   15b04: 4a e8        	sd	s2, 0x10(sp)
   15b06: 4e e4        	sd	s3, 0x8(sp)
   15b08: 52 e0        	sd	s4, 0x0(sp)
   15b0a: 23 b8 f1 24  	sd	a5, 0x250(gp)
   15b0e: 21 46        	li	a2, 0x8
   15b10: 91 47        	li	a5, 0x4
   15b12: 81 45        	li	a1, 0x0
   15b14: 13 85 c1 37  	addi	a0, gp, 0x37c
   15b18: 1c c8        	sw	a5, 0x10(s0)
   15b1a: 23 30 04 00  	sd	zero, 0x0(s0)
   15b1e: 23 34 04 00  	sd	zero, 0x8(s0)
   15b22: 23 26 04 0a  	sw	zero, 0xac(s0)
   15b26: 23 3c 04 00  	sd	zero, 0x18(s0)
   15b2a: 23 20 04 02  	sw	zero, 0x20(s0)
   15b2e: 23 24 04 02  	sw	zero, 0x28(s0)
   15b32: ef 10 00 22  	jal	0x16d52 <memset>
   15b36: c1 67        	lui	a5, 0x10
   15b38: 59 6a        	lui	s4, 0x16
   15b3a: d9 69        	lui	s3, 0x16
   15b3c: 59 69        	lui	s2, 0x16
   15b3e: d9 64        	lui	s1, 0x16
   15b40: 13 0a 4a 4c  	addi	s4, s4, 0x4c4
   15b44: 93 89 09 50  	addi	s3, s3, 0x500
   15b48: 13 09 49 55  	addi	s2, s2, 0x554
   15b4c: 93 84 64 5a  	addi	s1, s1, 0x5a6
   15b50: a5 07        	addi	a5, a5, 0x9
   15b52: 21 46        	li	a2, 0x8
   15b54: 81 45        	li	a1, 0x0
   15b56: 13 85 c1 42  	addi	a0, gp, 0x42c
   15b5a: 23 3c 44 03  	sd	s4, 0x38(s0)
   15b5e: 23 30 34 05  	sd	s3, 0x40(s0)
   15b62: 23 34 24 05  	sd	s2, 0x48(s0)
   15b66: 24 e8        	sd	s1, 0x50(s0)
   15b68: 23 20 f4 0c  	sw	a5, 0xc0(s0)
   15b6c: 00 f8        	sd	s0, 0x30(s0)
   15b6e: 23 38 04 0a  	sd	zero, 0xb0(s0)
   15b72: 23 3c 04 0a  	sd	zero, 0xb8(s0)
   15b76: 23 2e 04 14  	sw	zero, 0x15c(s0)
   15b7a: 23 34 04 0c  	sd	zero, 0xc8(s0)
   15b7e: 23 28 04 0c  	sw	zero, 0xd0(s0)
   15b82: 23 2c 04 0c  	sw	zero, 0xd8(s0)
   15b86: ef 10 c0 1c  	jal	0x16d52 <memset>
   15b8a: b7 07 02 00  	lui	a5, 0x20
   15b8e: c9 07        	addi	a5, a5, 0x12
   15b90: 13 87 81 38  	addi	a4, gp, 0x388
   15b94: 21 46        	li	a2, 0x8
   15b96: 81 45        	li	a1, 0x0
   15b98: 13 85 c1 4d  	addi	a0, gp, 0x4dc
   15b9c: 23 34 44 0f  	sd	s4, 0xe8(s0)
   15ba0: 23 38 34 0f  	sd	s3, 0xf0(s0)
   15ba4: 23 3c 24 0f  	sd	s2, 0xf8(s0)
   15ba8: 23 30 94 10  	sd	s1, 0x100(s0)
   15bac: 23 28 f4 16  	sw	a5, 0x170(s0)
   15bb0: 78 f0        	sd	a4, 0xe0(s0)
   15bb2: 23 30 04 16  	sd	zero, 0x160(s0)
   15bb6: 23 34 04 16  	sd	zero, 0x168(s0)
   15bba: 23 26 04 20  	sw	zero, 0x20c(s0)
   15bbe: 23 3c 04 16  	sd	zero, 0x178(s0)
   15bc2: 23 20 04 18  	sw	zero, 0x180(s0)
   15bc6: 23 24 04 18  	sw	zero, 0x188(s0)
   15bca: ef 10 80 18  	jal	0x16d52 <memset>
   15bce: 93 87 81 43  	addi	a5, gp, 0x438
   15bd2: 23 3c 44 19  	sd	s4, 0x198(s0)
   15bd6: 23 30 34 1b  	sd	s3, 0x1a0(s0)
   15bda: 23 34 24 1b  	sd	s2, 0x1a8(s0)
   15bde: 23 38 94 1a  	sd	s1, 0x1b0(s0)
   15be2: a2 70        	ld	ra, 0x28(sp)
   15be4: 23 38 f4 18  	sd	a5, 0x190(s0)
   15be8: 02 74        	ld	s0, 0x20(sp)
   15bea: e2 64        	ld	s1, 0x18(sp)
   15bec: 42 69        	ld	s2, 0x10(sp)
   15bee: a2 69        	ld	s3, 0x8(sp)
   15bf0: 02 6a        	ld	s4, 0x0(sp)
   15bf2: 45 61        	addi	sp, sp, 0x30
   15bf4: 82 80        	ret

0000000000015bf6 <__sfp>:
   15bf6: 83 b7 01 25  	ld	a5, 0x250(gp)
   15bfa: 79 71        	addi	sp, sp, -0x30
   15bfc: 4a e8        	sd	s2, 0x10(sp)
   15bfe: 06 f4        	sd	ra, 0x28(sp)
   15c00: 22 f0        	sd	s0, 0x20(sp)
   15c02: 26 ec        	sd	s1, 0x18(sp)
   15c04: 4e e4        	sd	s3, 0x8(sp)
   15c06: 2a 89        	mv	s2, a0
   15c08: c5 c7        	beqz	a5, 0x15cb0 <__sfp+0xba>
   15c0a: 93 84 81 d6  	addi	s1, gp, -0x298
   15c0e: 93 09 00 0b  	li	s3, 0xb0
   15c12: 98 44        	lw	a4, 0x8(s1)
   15c14: 80 68        	ld	s0, 0x10(s1)
   15c16: 63 54 e0 06  	blez	a4, 0x15c7e <__sfp+0x88>
   15c1a: 02 17        	slli	a4, a4, 0x20
   15c1c: 01 93        	srli	a4, a4, 0x20
   15c1e: 33 07 37 03  	mul	a4, a4, s3
   15c22: 22 97        	add	a4, a4, s0
   15c24: 29 a0        	j	0x15c2e <__sfp+0x38>
   15c26: 13 04 04 0b  	addi	s0, s0, 0xb0
   15c2a: 63 0a 87 04  	beq	a4, s0, 0x15c7e <__sfp+0x88>
   15c2e: 83 17 04 01  	lh	a5, 0x10(s0)
   15c32: f5 fb        	bnez	a5, 0x15c26 <__sfp+0x30>
   15c34: c1 77        	lui	a5, 0xffff0
   15c36: 85 07        	addi	a5, a5, 0x1
   15c38: 1c c8        	sw	a5, 0x10(s0)
   15c3a: 23 26 04 0a  	sw	zero, 0xac(s0)
   15c3e: 23 30 04 00  	sd	zero, 0x0(s0)
   15c42: 23 34 04 00  	sd	zero, 0x8(s0)
   15c46: 23 3c 04 00  	sd	zero, 0x18(s0)
   15c4a: 23 20 04 02  	sw	zero, 0x20(s0)
   15c4e: 23 24 04 02  	sw	zero, 0x28(s0)
   15c52: 21 46        	li	a2, 0x8
   15c54: 81 45        	li	a1, 0x0
   15c56: 13 05 44 0a  	addi	a0, s0, 0xa4
   15c5a: ef 10 80 0f  	jal	0x16d52 <memset>
   15c5e: 23 3c 04 04  	sd	zero, 0x58(s0)
   15c62: 23 20 04 06  	sw	zero, 0x60(s0)
   15c66: 23 3c 04 06  	sd	zero, 0x78(s0)
   15c6a: 23 20 04 08  	sw	zero, 0x80(s0)
   15c6e: a2 70        	ld	ra, 0x28(sp)
   15c70: 22 85        	mv	a0, s0
   15c72: 02 74        	ld	s0, 0x20(sp)
   15c74: e2 64        	ld	s1, 0x18(sp)
   15c76: 42 69        	ld	s2, 0x10(sp)
   15c78: a2 69        	ld	s3, 0x8(sp)
   15c7a: 45 61        	addi	sp, sp, 0x30
   15c7c: 82 80        	ret
   15c7e: 80 60        	ld	s0, 0x0(s1)
   15c80: 19 c0        	beqz	s0, 0x15c86 <__sfp+0x90>
   15c82: a2 84        	mv	s1, s0
   15c84: 79 b7        	j	0x15c12 <__sfp+0x1c>
   15c86: 93 05 80 2d  	li	a1, 0x2d8
   15c8a: 4a 85        	mv	a0, s2
   15c8c: ef e0 cf 9d  	jal	0x13e68 <_malloc_r>
   15c90: 2a 84        	mv	s0, a0
   15c92: 15 c1        	beqz	a0, 0x15cb6 <__sfp+0xc0>
   15c94: 61 05        	addi	a0, a0, 0x18
   15c96: 91 47        	li	a5, 0x4
   15c98: 23 30 04 00  	sd	zero, 0x0(s0)
   15c9c: 1c c4        	sw	a5, 0x8(s0)
   15c9e: 08 e8        	sd	a0, 0x10(s0)
   15ca0: 13 06 00 2c  	li	a2, 0x2c0
   15ca4: 81 45        	li	a1, 0x0
   15ca6: ef 10 c0 0a  	jal	0x16d52 <memset>
   15caa: 80 e0        	sd	s0, 0x0(s1)
   15cac: a2 84        	mv	s1, s0
   15cae: 95 b7        	j	0x15c12 <__sfp+0x1c>
   15cb0: ef f0 3f e4  	jal	0x15af2 <global_stdio_init.part.0>
   15cb4: 99 bf        	j	0x15c0a <__sfp+0x14>
   15cb6: 23 b0 04 00  	sd	zero, 0x0(s1)
   15cba: b1 47        	li	a5, 0xc
   15cbc: 23 20 f9 00  	sw	a5, 0x0(s2)
   15cc0: 7d b7        	j	0x15c6e <__sfp+0x78>

0000000000015cc2 <__sinit>:
   15cc2: 3c 65        	ld	a5, 0x48(a0)
   15cc4: 91 c3        	beqz	a5, 0x15cc8 <__sinit+0x6>
   15cc6: 82 80        	ret
   15cc8: 03 b7 01 25  	ld	a4, 0x250(gp)
   15ccc: d9 67        	lui	a5, 0x16
   15cce: 93 87 a7 aa  	addi	a5, a5, -0x556
   15cd2: 3c e5        	sd	a5, 0x48(a0)
   15cd4: 6d fb        	bnez	a4, 0x15cc6 <__sinit+0x4>
   15cd6: 6f f0 df e1  	j	0x15af2 <global_stdio_init.part.0>

0000000000015cda <__sfp_lock_acquire>:
   15cda: 82 80        	ret

0000000000015cdc <__sfp_lock_release>:
   15cdc: 82 80        	ret

0000000000015cde <__fp_lock_all>:
   15cde: d9 65        	lui	a1, 0x16
   15ce0: 13 86 81 d6  	addi	a2, gp, -0x298
   15ce4: 93 85 65 a9  	addi	a1, a1, -0x56a
   15ce8: 01 45        	li	a0, 0x0
   15cea: cd ac        	j	0x15fdc <_fwalk_sglue>

0000000000015cec <__fp_unlock_all>:
   15cec: d9 65        	lui	a1, 0x16
   15cee: 13 86 81 d6  	addi	a2, gp, -0x298
   15cf2: 93 85 e5 ae  	addi	a1, a1, -0x512
   15cf6: 01 45        	li	a0, 0x0
   15cf8: d5 a4        	j	0x15fdc <_fwalk_sglue>

0000000000015cfa <_fopen_r>:
   15cfa: 39 71        	addi	sp, sp, -0x40
   15cfc: 32 87        	mv	a4, a2
   15cfe: 4e ec        	sd	s3, 0x18(sp)
   15d00: 70 00        	addi	a2, sp, 0xc
   15d02: ae 89        	mv	s3, a1
   15d04: ba 85        	mv	a1, a4
   15d06: 4a f0        	sd	s2, 0x20(sp)
   15d08: 06 fc        	sd	ra, 0x38(sp)
   15d0a: 22 f8        	sd	s0, 0x30(sp)
   15d0c: 2a 89        	mv	s2, a0
   15d0e: ef 50 70 04  	jal	0x1b554 <__sflags>
   15d12: 59 c1        	beqz	a0, 0x15d98 <_fopen_r+0x9e>
   15d14: 26 f4        	sd	s1, 0x28(sp)
   15d16: aa 84        	mv	s1, a0
   15d18: 4a 85        	mv	a0, s2
   15d1a: ef f0 df ed  	jal	0x15bf6 <__sfp>
   15d1e: 2a 84        	mv	s0, a0
   15d20: 3d c9        	beqz	a0, 0x15d96 <_fopen_r+0x9c>
   15d22: 32 46        	lw	a2, 0xc(sp)
   15d24: 93 06 60 1b  	li	a3, 0x1b6
   15d28: ce 85        	mv	a1, s3
   15d2a: 4a 85        	mv	a0, s2
   15d2c: ef 00 50 6c  	jal	0x16bf0 <_open_r>
   15d30: 63 46 05 06  	bltz	a0, 0x15d9c <_fopen_r+0xa2>
   15d34: 93 97 04 03  	slli	a5, s1, 0x30
   15d38: 1b 15 05 01  	slliw	a0, a0, 0x10
   15d3c: c1 93        	srli	a5, a5, 0x30
   15d3e: c9 8f        	or	a5, a5, a0
   15d40: 1c c8        	sw	a5, 0x10(s0)
   15d42: d9 67        	lui	a5, 0x16
   15d44: 93 87 47 4c  	addi	a5, a5, 0x4c4
   15d48: 1c fc        	sd	a5, 0x38(s0)
   15d4a: d9 67        	lui	a5, 0x16
   15d4c: 93 87 07 50  	addi	a5, a5, 0x500
   15d50: 3c e0        	sd	a5, 0x40(s0)
   15d52: d9 67        	lui	a5, 0x16
   15d54: 93 87 47 55  	addi	a5, a5, 0x554
   15d58: 3c e4        	sd	a5, 0x48(s0)
   15d5a: d9 67        	lui	a5, 0x16
   15d5c: 93 87 67 5a  	addi	a5, a5, 0x5a6
   15d60: 00 f8        	sd	s0, 0x30(s0)
   15d62: 3c e8        	sd	a5, 0x50(s0)
   15d64: 93 f4 04 10  	andi	s1, s1, 0x100
   15d68: 89 e8        	bnez	s1, 0x15d7a <_fopen_r+0x80>
   15d6a: a2 74        	ld	s1, 0x28(sp)
   15d6c: e2 70        	ld	ra, 0x38(sp)
   15d6e: 22 85        	mv	a0, s0
   15d70: 42 74        	ld	s0, 0x30(sp)
   15d72: 02 79        	ld	s2, 0x20(sp)
   15d74: e2 69        	ld	s3, 0x18(sp)
   15d76: 21 61        	addi	sp, sp, 0x40
   15d78: 82 80        	ret
   15d7a: a2 85        	mv	a1, s0
   15d7c: 4a 85        	mv	a0, s2
   15d7e: 89 46        	li	a3, 0x2
   15d80: 01 46        	li	a2, 0x0
   15d82: ef 00 a0 24  	jal	0x15fcc <_fseek_r>
   15d86: e2 70        	ld	ra, 0x38(sp)
   15d88: 22 85        	mv	a0, s0
   15d8a: 42 74        	ld	s0, 0x30(sp)
   15d8c: a2 74        	ld	s1, 0x28(sp)
   15d8e: 02 79        	ld	s2, 0x20(sp)
   15d90: e2 69        	ld	s3, 0x18(sp)
   15d92: 21 61        	addi	sp, sp, 0x40
   15d94: 82 80        	ret
   15d96: a2 74        	ld	s1, 0x28(sp)
   15d98: 01 44        	li	s0, 0x0
   15d9a: c9 bf        	j	0x15d6c <_fopen_r+0x72>
   15d9c: ef f0 ff f3  	jal	0x15cda <__sfp_lock_acquire>
   15da0: 23 18 04 00  	sh	zero, 0x10(s0)
   15da4: ef f0 9f f3  	jal	0x15cdc <__sfp_lock_release>
   15da8: 01 44        	li	s0, 0x0
   15daa: a2 74        	ld	s1, 0x28(sp)
   15dac: c1 b7        	j	0x15d6c <_fopen_r+0x72>

0000000000015dae <fopen>:
   15dae: aa 87        	mv	a5, a0
   15db0: 03 b5 01 23  	ld	a0, 0x230(gp)
   15db4: 2e 86        	mv	a2, a1
   15db6: be 85        	mv	a1, a5
   15db8: 6f f0 3f f4  	j	0x15cfa <_fopen_r>

0000000000015dbc <_fprintf_r>:
   15dbc: 5d 71        	addi	sp, sp, -0x50
   15dbe: 13 03 81 02  	addi	t1, sp, 0x28
   15dc2: 36 f4        	sd	a3, 0x28(sp)
   15dc4: 9a 86        	mv	a3, t1
   15dc6: 06 ec        	sd	ra, 0x18(sp)
   15dc8: 3a f8        	sd	a4, 0x30(sp)
   15dca: 3e fc        	sd	a5, 0x38(sp)
   15dcc: c2 e0        	sd	a6, 0x40(sp)
   15dce: c6 e4        	sd	a7, 0x48(sp)
   15dd0: 1a e4        	sd	t1, 0x8(sp)
   15dd2: ef 20 70 51  	jal	0x18ae8 <_vfprintf_r>
   15dd6: e2 60        	ld	ra, 0x18(sp)
   15dd8: 61 61        	addi	sp, sp, 0x50
   15dda: 82 80        	ret

0000000000015ddc <fprintf>:
   15ddc: 2a 8e        	mv	t3, a0
   15dde: 5d 71        	addi	sp, sp, -0x50
   15de0: 03 b5 01 23  	ld	a0, 0x230(gp)
   15de4: 13 03 01 02  	addi	t1, sp, 0x20
   15de8: 32 f0        	sd	a2, 0x20(sp)
   15dea: 36 f4        	sd	a3, 0x28(sp)
   15dec: 2e 86        	mv	a2, a1
   15dee: 9a 86        	mv	a3, t1
   15df0: f2 85        	mv	a1, t3
   15df2: 06 ec        	sd	ra, 0x18(sp)
   15df4: 3a f8        	sd	a4, 0x30(sp)
   15df6: 3e fc        	sd	a5, 0x38(sp)
   15df8: c2 e0        	sd	a6, 0x40(sp)
   15dfa: c6 e4        	sd	a7, 0x48(sp)
   15dfc: 1a e4        	sd	t1, 0x8(sp)
   15dfe: ef 20 b0 4e  	jal	0x18ae8 <_vfprintf_r>
   15e02: e2 60        	ld	ra, 0x18(sp)
   15e04: 61 61        	addi	sp, sp, 0x50
   15e06: 82 80        	ret

0000000000015e08 <_fread_r>:
   15e08: 1d 71        	addi	sp, sp, -0x60
   15e0a: 5a f0        	sd	s6, 0x20(sp)
   15e0c: 33 8b c6 02  	mul	s6, a3, a2
   15e10: 86 ec        	sd	ra, 0x58(sp)
   15e12: 63 09 0b 0a  	beqz	s6, 0x15ec4 <_fread_r+0xbc>
   15e16: a2 e8        	sd	s0, 0x50(sp)
   15e18: ca e0        	sd	s2, 0x40(sp)
   15e1a: 52 f8        	sd	s4, 0x30(sp)
   15e1c: 56 f4        	sd	s5, 0x28(sp)
   15e1e: 5e ec        	sd	s7, 0x18(sp)
   15e20: a6 e4        	sd	s1, 0x48(sp)
   15e22: 4e fc        	sd	s3, 0x38(sp)
   15e24: b2 8a        	mv	s5, a2
   15e26: b6 8b        	mv	s7, a3
   15e28: 2a 8a        	mv	s4, a0
   15e2a: 2e 89        	mv	s2, a1
   15e2c: 3a 84        	mv	s0, a4
   15e2e: 01 c5        	beqz	a0, 0x15e36 <_fread_r+0x2e>
   15e30: 3c 65        	ld	a5, 0x48(a0)
   15e32: 63 8b 07 16  	beqz	a5, 0x15fa8 <_fread_r+0x1a0>
   15e36: 83 17 04 01  	lh	a5, 0x10(s0)
   15e3a: 13 97 27 03  	slli	a4, a5, 0x32
   15e3e: 63 41 07 02  	bltz	a4, 0x15e60 <_fread_r+0x58>
   15e42: 03 27 c4 0a  	lw	a4, 0xac(s0)
   15e46: 09 66        	lui	a2, 0x2
   15e48: f9 76        	lui	a3, 0xffffe
   15e4a: d1 8f        	or	a5, a5, a2
   15e4c: fd 16        	addi	a3, a3, -0x1
   15e4e: 9b 97 07 01  	slliw	a5, a5, 0x10
   15e52: 9b d7 07 41  	sraiw	a5, a5, 0x10
   15e56: 75 8f        	and	a4, a4, a3
   15e58: 23 18 f4 00  	sh	a5, 0x10(s0)
   15e5c: 23 26 e4 0a  	sw	a4, 0xac(s0)
   15e60: 04 44        	lw	s1, 0x8(s0)
   15e62: 26 86        	mv	a2, s1
   15e64: 63 c5 04 06  	bltz	s1, 0x15ece <_fread_r+0xc6>
   15e68: 89 8b        	andi	a5, a5, 0x2
   15e6a: 0c 60        	ld	a1, 0x0(s0)
   15e6c: da 89        	mv	s3, s6
   15e6e: a5 eb        	bnez	a5, 0x15ede <_fread_r+0xd6>
   15e70: 62 e8        	sd	s8, 0x10(sp)
   15e72: 15 a0        	j	0x15e96 <_fread_r+0x8e>
   15e74: ef 00 90 78  	jal	0x16dfc <memcpy>
   15e78: 1c 60        	ld	a5, 0x0(s0)
   15e7a: a2 85        	mv	a1, s0
   15e7c: 52 85        	mv	a0, s4
   15e7e: a6 97        	add	a5, a5, s1
   15e80: 1c e0        	sd	a5, 0x0(s0)
   15e82: 26 99        	add	s2, s2, s1
   15e84: 33 8c 99 40  	sub	s8, s3, s1
   15e88: ef 00 80 45  	jal	0x162e0 <__srefill_r>
   15e8c: 63 1a 05 0e  	bnez	a0, 0x15f80 <_fread_r+0x178>
   15e90: 04 44        	lw	s1, 0x8(s0)
   15e92: 0c 60        	ld	a1, 0x0(s0)
   15e94: e2 89        	mv	s3, s8
   15e96: 26 86        	mv	a2, s1
   15e98: 4a 85        	mv	a0, s2
   15e9a: e3 ed 34 fd  	bltu	s1, s3, 0x15e74 <_fread_r+0x6c>
   15e9e: 4e 86        	mv	a2, s3
   15ea0: ef 00 d0 75  	jal	0x16dfc <memcpy>
   15ea4: 18 44        	lw	a4, 0x8(s0)
   15ea6: 1c 60        	ld	a5, 0x0(s0)
   15ea8: 42 6c        	ld	s8, 0x10(sp)
   15eaa: 3b 07 37 41  	subw	a4, a4, s3
   15eae: ce 97        	add	a5, a5, s3
   15eb0: 18 c4        	sw	a4, 0x8(s0)
   15eb2: 1c e0        	sd	a5, 0x0(s0)
   15eb4: 5e 8b        	mv	s6, s7
   15eb6: 46 64        	ld	s0, 0x50(sp)
   15eb8: a6 64        	ld	s1, 0x48(sp)
   15eba: 06 69        	ld	s2, 0x40(sp)
   15ebc: e2 79        	ld	s3, 0x38(sp)
   15ebe: 42 7a        	ld	s4, 0x30(sp)
   15ec0: a2 7a        	ld	s5, 0x28(sp)
   15ec2: e2 6b        	ld	s7, 0x18(sp)
   15ec4: e6 60        	ld	ra, 0x58(sp)
   15ec6: 5a 85        	mv	a0, s6
   15ec8: 02 7b        	ld	s6, 0x20(sp)
   15eca: 25 61        	addi	sp, sp, 0x60
   15ecc: 82 80        	ret
   15ece: 23 24 04 00  	sw	zero, 0x8(s0)
   15ed2: 89 8b        	andi	a5, a5, 0x2
   15ed4: 0c 60        	ld	a1, 0x0(s0)
   15ed6: 01 46        	li	a2, 0x0
   15ed8: 81 44        	li	s1, 0x0
   15eda: da 89        	mv	s3, s6
   15edc: d1 db        	beqz	a5, 0x15e70 <_fread_r+0x68>
   15ede: b2 84        	mv	s1, a2
   15ee0: 63 62 cb 0c  	bltu	s6, a2, 0x15fa4 <_fread_r+0x19c>
   15ee4: 26 86        	mv	a2, s1
   15ee6: 4a 85        	mv	a0, s2
   15ee8: ef 00 50 71  	jal	0x16dfc <memcpy>
   15eec: 18 60        	ld	a4, 0x0(s0)
   15eee: 1c 44        	lw	a5, 0x8(s0)
   15ef0: 2c 6c        	ld	a1, 0x58(s0)
   15ef2: 26 97        	add	a4, a4, s1
   15ef4: 85 9f        	subw	a5, a5, s1
   15ef6: 18 e0        	sd	a4, 0x0(s0)
   15ef8: 1c c4        	sw	a5, 0x8(s0)
   15efa: b3 09 9b 40  	sub	s3, s6, s1
   15efe: c5 c9        	beqz	a1, 0x15fae <_fread_r+0x1a6>
   15f00: e3 8a 09 fa  	beqz	s3, 0x15eb4 <_fread_r+0xac>
   15f04: 62 e8        	sd	s8, 0x10(sp)
   15f06: 66 e4        	sd	s9, 0x8(sp)
   15f08: 93 07 44 07  	addi	a5, s0, 0x74
   15f0c: 63 85 f5 00  	beq	a1, a5, 0x15f16 <_fread_r+0x10e>
   15f10: 52 85        	mv	a0, s4
   15f12: ef 10 60 37  	jal	0x17288 <_free_r>
   15f16: 23 3c 04 04  	sd	zero, 0x58(s0)
   15f1a: ca 94        	add	s1, s1, s2
   15f1c: 11 a0        	j	0x15f20 <_fread_r+0x118>
   15f1e: ba 89        	mv	s3, a4
   15f20: a2 85        	mv	a1, s0
   15f22: 52 85        	mv	a0, s4
   15f24: 63 88 09 08  	beqz	s3, 0x15fb4 <_fread_r+0x1ac>
   15f28: 83 3c 84 01  	ld	s9, 0x18(s0)
   15f2c: 03 39 04 00  	ld	s2, 0x0(s0)
   15f30: 03 2c 04 02  	lw	s8, 0x20(s0)
   15f34: 04 ec        	sd	s1, 0x18(s0)
   15f36: 04 e0        	sd	s1, 0x0(s0)
   15f38: 23 20 34 03  	sw	s3, 0x20(s0)
   15f3c: ef 00 40 3a  	jal	0x162e0 <__srefill_r>
   15f40: 1c 44        	lw	a5, 0x8(s0)
   15f42: 23 3c 94 01  	sd	s9, 0x18(s0)
   15f46: 23 20 84 03  	sw	s8, 0x20(s0)
   15f4a: 23 30 24 01  	sd	s2, 0x0(s0)
   15f4e: 23 24 04 00  	sw	zero, 0x8(s0)
   15f52: 33 87 f9 40  	sub	a4, s3, a5
   15f56: be 94        	add	s1, s1, a5
   15f58: 79 d1        	beqz	a0, 0x15f1e <_fread_r+0x116>
   15f5a: da 97        	add	a5, a5, s6
   15f5c: b3 87 37 41  	sub	a5, a5, s3
   15f60: 33 db 57 03  	divu	s6, a5, s5
   15f64: 46 64        	ld	s0, 0x50(sp)
   15f66: e6 60        	ld	ra, 0x58(sp)
   15f68: a6 64        	ld	s1, 0x48(sp)
   15f6a: 06 69        	ld	s2, 0x40(sp)
   15f6c: e2 79        	ld	s3, 0x38(sp)
   15f6e: 42 7a        	ld	s4, 0x30(sp)
   15f70: a2 7a        	ld	s5, 0x28(sp)
   15f72: e2 6b        	ld	s7, 0x18(sp)
   15f74: 42 6c        	ld	s8, 0x10(sp)
   15f76: a2 6c        	ld	s9, 0x8(sp)
   15f78: 5a 85        	mv	a0, s6
   15f7a: 02 7b        	ld	s6, 0x20(sp)
   15f7c: 25 61        	addi	sp, sp, 0x60
   15f7e: 82 80        	ret
   15f80: da 94        	add	s1, s1, s6
   15f82: b3 84 34 41  	sub	s1, s1, s3
   15f86: 33 db 54 03  	divu	s6, s1, s5
   15f8a: 46 64        	ld	s0, 0x50(sp)
   15f8c: e6 60        	ld	ra, 0x58(sp)
   15f8e: a6 64        	ld	s1, 0x48(sp)
   15f90: 06 69        	ld	s2, 0x40(sp)
   15f92: e2 79        	ld	s3, 0x38(sp)
   15f94: 42 7a        	ld	s4, 0x30(sp)
   15f96: a2 7a        	ld	s5, 0x28(sp)
   15f98: e2 6b        	ld	s7, 0x18(sp)
   15f9a: 42 6c        	ld	s8, 0x10(sp)
   15f9c: 5a 85        	mv	a0, s6
   15f9e: 02 7b        	ld	s6, 0x20(sp)
   15fa0: 25 61        	addi	sp, sp, 0x60
   15fa2: 82 80        	ret
   15fa4: da 84        	mv	s1, s6
   15fa6: 3d bf        	j	0x15ee4 <_fread_r+0xdc>
   15fa8: ef f0 bf d1  	jal	0x15cc2 <__sinit>
   15fac: 69 b5        	j	0x15e36 <_fread_r+0x2e>
   15fae: 62 e8        	sd	s8, 0x10(sp)
   15fb0: 66 e4        	sd	s9, 0x8(sp)
   15fb2: a5 b7        	j	0x15f1a <_fread_r+0x112>
   15fb4: 42 6c        	ld	s8, 0x10(sp)
   15fb6: a2 6c        	ld	s9, 0x8(sp)
   15fb8: f5 bd        	j	0x15eb4 <_fread_r+0xac>

0000000000015fba <fread>:
   15fba: aa 87        	mv	a5, a0
   15fbc: 03 b5 01 23  	ld	a0, 0x230(gp)
   15fc0: 36 87        	mv	a4, a3
   15fc2: b2 86        	mv	a3, a2
   15fc4: 2e 86        	mv	a2, a1
   15fc6: be 85        	mv	a1, a5
   15fc8: 6f f0 1f e4  	j	0x15e08 <_fread_r>

0000000000015fcc <_fseek_r>:
   15fcc: c5 a3        	j	0x165ac <_fseeko_r>

0000000000015fce <fseek>:
   15fce: aa 87        	mv	a5, a0
   15fd0: 03 b5 01 23  	ld	a0, 0x230(gp)
   15fd4: b2 86        	mv	a3, a2
   15fd6: 2e 86        	mv	a2, a1
   15fd8: be 85        	mv	a1, a5
   15fda: c9 ab        	j	0x165ac <_fseeko_r>

0000000000015fdc <_fwalk_sglue>:
   15fdc: 5d 71        	addi	sp, sp, -0x50
   15fde: 4a f8        	sd	s2, 0x30(sp)
   15fe0: 4e f4        	sd	s3, 0x28(sp)
   15fe2: 52 f0        	sd	s4, 0x20(sp)
   15fe4: 56 ec        	sd	s5, 0x18(sp)
   15fe6: 5a e8        	sd	s6, 0x10(sp)
   15fe8: 5e e4        	sd	s7, 0x8(sp)
   15fea: 62 e0        	sd	s8, 0x0(sp)
   15fec: 86 e4        	sd	ra, 0x48(sp)
   15fee: a2 e0        	sd	s0, 0x40(sp)
   15ff0: 26 fc        	sd	s1, 0x38(sp)
   15ff2: 2a 8a        	mv	s4, a0
   15ff4: 2e 8b        	mv	s6, a1
   15ff6: b2 89        	mv	s3, a2
   15ff8: 01 49        	li	s2, 0x0
   15ffa: 93 0b 00 0b  	li	s7, 0xb0
   15ffe: 05 4c        	li	s8, 0x1
   16000: fd 5a        	li	s5, -0x1
   16002: 83 a4 89 00  	lw	s1, 0x8(s3)
   16006: 03 b4 09 01  	ld	s0, 0x10(s3)
   1600a: 63 59 90 02  	blez	s1, 0x1603c <_fwalk_sglue+0x60>
   1600e: 82 14        	slli	s1, s1, 0x20
   16010: 81 90        	srli	s1, s1, 0x20
   16012: b3 84 74 03  	mul	s1, s1, s7
   16016: a2 94        	add	s1, s1, s0
   16018: 83 57 04 01  	lhu	a5, 0x10(s0)
   1601c: 63 7c fc 00  	bgeu	s8, a5, 0x16034 <_fwalk_sglue+0x58>
   16020: 83 17 24 01  	lh	a5, 0x12(s0)
   16024: a2 85        	mv	a1, s0
   16026: 52 85        	mv	a0, s4
   16028: 63 86 57 01  	beq	a5, s5, 0x16034 <_fwalk_sglue+0x58>
   1602c: 02 9b        	jalr	s6
   1602e: 33 69 25 01  	or	s2, a0, s2
   16032: 01 29        	sext.w	s2, s2
   16034: 13 04 04 0b  	addi	s0, s0, 0xb0
   16038: e3 10 94 fe  	bne	s0, s1, 0x16018 <_fwalk_sglue+0x3c>
   1603c: 83 b9 09 00  	ld	s3, 0x0(s3)
   16040: e3 91 09 fc  	bnez	s3, 0x16002 <_fwalk_sglue+0x26>
   16044: a6 60        	ld	ra, 0x48(sp)
   16046: 06 64        	ld	s0, 0x40(sp)
   16048: e2 74        	ld	s1, 0x38(sp)
   1604a: a2 79        	ld	s3, 0x28(sp)
   1604c: 02 7a        	ld	s4, 0x20(sp)
   1604e: e2 6a        	ld	s5, 0x18(sp)
   16050: 42 6b        	ld	s6, 0x10(sp)
   16052: a2 6b        	ld	s7, 0x8(sp)
   16054: 02 6c        	ld	s8, 0x0(sp)
   16056: 4a 85        	mv	a0, s2
   16058: 42 79        	ld	s2, 0x30(sp)
   1605a: 61 61        	addi	sp, sp, 0x50
   1605c: 82 80        	ret

000000000001605e <_fwrite_r>:
   1605e: 59 71        	addi	sp, sp, -0x70
   16060: ca e8        	sd	s2, 0x50(sp)
   16062: 33 89 c6 02  	mul	s2, a3, a2
   16066: 3c 08        	addi	a5, sp, 0x18
   16068: 3e f4        	sd	a5, 0x28(sp)
   1606a: 85 47        	li	a5, 0x1
   1606c: a2 f0        	sd	s0, 0x60(sp)
   1606e: a6 ec        	sd	s1, 0x58(sp)
   16070: ce e4        	sd	s3, 0x48(sp)
   16072: 2e ec        	sd	a1, 0x18(sp)
   16074: 86 f4        	sd	ra, 0x68(sp)
   16076: 3e d8        	sw	a5, 0x30(sp)
   16078: 4a f0        	sd	s2, 0x20(sp)
   1607a: 4a fc        	sd	s2, 0x38(sp)
   1607c: b2 89        	mv	s3, a2
   1607e: 36 84        	mv	s0, a3
   16080: aa 84        	mv	s1, a0
   16082: ba 85        	mv	a1, a4
   16084: 19 c1        	beqz	a0, 0x1608a <_fwrite_r+0x2c>
   16086: 3c 65        	ld	a5, 0x48(a0)
   16088: a1 c7        	beqz	a5, 0x160d0 <_fwrite_r+0x72>
   1608a: 83 97 05 01  	lh	a5, 0x10(a1)
   1608e: 13 97 27 03  	slli	a4, a5, 0x32
   16092: 63 4d 07 00  	bltz	a4, 0x160ac <_fwrite_r+0x4e>
   16096: 03 a7 c5 0a  	lw	a4, 0xac(a1)
   1609a: f9 76        	lui	a3, 0xffffe
   1609c: fd 16        	addi	a3, a3, -0x1
   1609e: 09 66        	lui	a2, 0x2
   160a0: d1 8f        	or	a5, a5, a2
   160a2: 75 8f        	and	a4, a4, a3
   160a4: 23 98 f5 00  	sh	a5, 0x10(a1)
   160a8: 23 a6 e5 0a  	sw	a4, 0xac(a1)
   160ac: 30 10        	addi	a2, sp, 0x28
   160ae: 26 85        	mv	a0, s1
   160b0: ef 50 40 52  	jal	0x1b5d4 <__sfvwrite_r>
   160b4: 11 c5        	beqz	a0, 0x160c0 <_fwrite_r+0x62>
   160b6: e2 77        	ld	a5, 0x38(sp)
   160b8: 33 09 f9 40  	sub	s2, s2, a5
   160bc: 33 54 39 03  	divu	s0, s2, s3
   160c0: a6 70        	ld	ra, 0x68(sp)
   160c2: 22 85        	mv	a0, s0
   160c4: 06 74        	ld	s0, 0x60(sp)
   160c6: e6 64        	ld	s1, 0x58(sp)
   160c8: 46 69        	ld	s2, 0x50(sp)
   160ca: a6 69        	ld	s3, 0x48(sp)
   160cc: 65 61        	addi	sp, sp, 0x70
   160ce: 82 80        	ret
   160d0: 3a e4        	sd	a4, 0x8(sp)
   160d2: ef f0 1f bf  	jal	0x15cc2 <__sinit>
   160d6: a2 65        	ld	a1, 0x8(sp)
   160d8: 4d bf        	j	0x1608a <_fwrite_r+0x2c>

00000000000160da <fwrite>:
   160da: 59 71        	addi	sp, sp, -0x70
   160dc: a6 ec        	sd	s1, 0x58(sp)
   160de: b3 84 c5 02  	mul	s1, a1, a2
   160e2: ce e4        	sd	s3, 0x48(sp)
   160e4: 83 b9 01 23  	ld	s3, 0x230(gp)
   160e8: 3c 08        	addi	a5, sp, 0x18
   160ea: 3e f4        	sd	a5, 0x28(sp)
   160ec: 85 47        	li	a5, 0x1
   160ee: a2 f0        	sd	s0, 0x60(sp)
   160f0: ca e8        	sd	s2, 0x50(sp)
   160f2: 86 f4        	sd	ra, 0x68(sp)
   160f4: 2a ec        	sd	a0, 0x18(sp)
   160f6: 3e d8        	sw	a5, 0x30(sp)
   160f8: 26 f0        	sd	s1, 0x20(sp)
   160fa: 26 fc        	sd	s1, 0x38(sp)
   160fc: 2e 89        	mv	s2, a1
   160fe: 32 84        	mv	s0, a2
   16100: b6 85        	mv	a1, a3
   16102: 63 85 09 00  	beqz	s3, 0x1610c <fwrite+0x32>
   16106: 83 b7 89 04  	ld	a5, 0x48(s3)
   1610a: b9 c3        	beqz	a5, 0x16150 <fwrite+0x76>
   1610c: 83 97 05 01  	lh	a5, 0x10(a1)
   16110: 13 97 27 03  	slli	a4, a5, 0x32
   16114: 63 4d 07 00  	bltz	a4, 0x1612e <fwrite+0x54>
   16118: 03 a7 c5 0a  	lw	a4, 0xac(a1)
   1611c: f9 76        	lui	a3, 0xffffe
   1611e: fd 16        	addi	a3, a3, -0x1
   16120: 09 66        	lui	a2, 0x2
   16122: d1 8f        	or	a5, a5, a2
   16124: 75 8f        	and	a4, a4, a3
   16126: 23 98 f5 00  	sh	a5, 0x10(a1)
   1612a: 23 a6 e5 0a  	sw	a4, 0xac(a1)
   1612e: 30 10        	addi	a2, sp, 0x28
   16130: 4e 85        	mv	a0, s3
   16132: ef 50 20 4a  	jal	0x1b5d4 <__sfvwrite_r>
   16136: 09 c5        	beqz	a0, 0x16140 <fwrite+0x66>
   16138: e2 77        	ld	a5, 0x38(sp)
   1613a: 9d 8c        	sub	s1, s1, a5
   1613c: 33 d4 24 03  	divu	s0, s1, s2
   16140: a6 70        	ld	ra, 0x68(sp)
   16142: 22 85        	mv	a0, s0
   16144: 06 74        	ld	s0, 0x60(sp)
   16146: e6 64        	ld	s1, 0x58(sp)
   16148: 46 69        	ld	s2, 0x50(sp)
   1614a: a6 69        	ld	s3, 0x48(sp)
   1614c: 65 61        	addi	sp, sp, 0x70
   1614e: 82 80        	ret
   16150: 4e 85        	mv	a0, s3
   16152: 36 e4        	sd	a3, 0x8(sp)
   16154: ef f0 ff b6  	jal	0x15cc2 <__sinit>
   16158: a2 65        	ld	a1, 0x8(sp)
   1615a: 4d bf        	j	0x1610c <fwrite+0x32>

000000000001615c <_getc_r>:
   1615c: 01 11        	addi	sp, sp, -0x20
   1615e: 22 e8        	sd	s0, 0x10(sp)
   16160: 06 ec        	sd	ra, 0x18(sp)
   16162: 2a 84        	mv	s0, a0
   16164: 19 c1        	beqz	a0, 0x1616a <_getc_r+0xe>
   16166: 3c 65        	ld	a5, 0x48(a0)
   16168: 9d c7        	beqz	a5, 0x16196 <_getc_r+0x3a>
   1616a: 9c 45        	lw	a5, 0x8(a1)
   1616c: fd 37        	addiw	a5, a5, -0x1
   1616e: 9c c5        	sw	a5, 0x8(a1)
   16170: 13 97 07 02  	slli	a4, a5, 0x20
   16174: 63 4c 07 00  	bltz	a4, 0x1618c <_getc_r+0x30>
   16178: 9c 61        	ld	a5, 0x0(a1)
   1617a: e2 60        	ld	ra, 0x18(sp)
   1617c: 42 64        	ld	s0, 0x10(sp)
   1617e: 13 87 17 00  	addi	a4, a5, 0x1
   16182: 98 e1        	sd	a4, 0x0(a1)
   16184: 03 c5 07 00  	lbu	a0, 0x0(a5)
   16188: 05 61        	addi	sp, sp, 0x20
   1618a: 82 80        	ret
   1618c: 22 85        	mv	a0, s0
   1618e: 42 64        	ld	s0, 0x10(sp)
   16190: e2 60        	ld	ra, 0x18(sp)
   16192: 05 61        	addi	sp, sp, 0x20
   16194: 65 a4        	j	0x1643c <__srget_r>
   16196: 2e e4        	sd	a1, 0x8(sp)
   16198: ef f0 bf b2  	jal	0x15cc2 <__sinit>
   1619c: a2 65        	ld	a1, 0x8(sp)
   1619e: f1 b7        	j	0x1616a <_getc_r+0xe>

00000000000161a0 <getc>:
   161a0: 01 11        	addi	sp, sp, -0x20
   161a2: 26 e4        	sd	s1, 0x8(sp)
   161a4: 83 b4 01 23  	ld	s1, 0x230(gp)
   161a8: 22 e8        	sd	s0, 0x10(sp)
   161aa: 06 ec        	sd	ra, 0x18(sp)
   161ac: 2a 84        	mv	s0, a0
   161ae: 99 c0        	beqz	s1, 0x161b4 <getc+0x14>
   161b0: bc 64        	ld	a5, 0x48(s1)
   161b2: 95 cb        	beqz	a5, 0x161e6 <getc+0x46>
   161b4: 1c 44        	lw	a5, 0x8(s0)
   161b6: fd 37        	addiw	a5, a5, -0x1
   161b8: 1c c4        	sw	a5, 0x8(s0)
   161ba: 13 97 07 02  	slli	a4, a5, 0x20
   161be: 63 4d 07 00  	bltz	a4, 0x161d8 <getc+0x38>
   161c2: 1c 60        	ld	a5, 0x0(s0)
   161c4: e2 60        	ld	ra, 0x18(sp)
   161c6: a2 64        	ld	s1, 0x8(sp)
   161c8: 13 87 17 00  	addi	a4, a5, 0x1
   161cc: 18 e0        	sd	a4, 0x0(s0)
   161ce: 42 64        	ld	s0, 0x10(sp)
   161d0: 03 c5 07 00  	lbu	a0, 0x0(a5)
   161d4: 05 61        	addi	sp, sp, 0x20
   161d6: 82 80        	ret
   161d8: a2 85        	mv	a1, s0
   161da: 42 64        	ld	s0, 0x10(sp)
   161dc: e2 60        	ld	ra, 0x18(sp)
   161de: 26 85        	mv	a0, s1
   161e0: a2 64        	ld	s1, 0x8(sp)
   161e2: 05 61        	addi	sp, sp, 0x20
   161e4: a1 ac        	j	0x1643c <__srget_r>
   161e6: 26 85        	mv	a0, s1
   161e8: ef f0 bf ad  	jal	0x15cc2 <__sinit>
   161ec: e1 b7        	j	0x161b4 <getc+0x14>

00000000000161ee <_printf_r>:
   161ee: 5d 71        	addi	sp, sp, -0x50
   161f0: 32 f0        	sd	a2, 0x20(sp)
   161f2: 36 f4        	sd	a3, 0x28(sp)
   161f4: 3a f8        	sd	a4, 0x30(sp)
   161f6: 3e fc        	sd	a5, 0x38(sp)
   161f8: c2 e0        	sd	a6, 0x40(sp)
   161fa: c6 e4        	sd	a7, 0x48(sp)
   161fc: 2e 86        	mv	a2, a1
   161fe: 0c 69        	ld	a1, 0x10(a0)
   16200: 14 10        	addi	a3, sp, 0x20
   16202: 06 ec        	sd	ra, 0x18(sp)
   16204: 36 e4        	sd	a3, 0x8(sp)
   16206: ef 20 30 0e  	jal	0x18ae8 <_vfprintf_r>
   1620a: e2 60        	ld	ra, 0x18(sp)
   1620c: 61 61        	addi	sp, sp, 0x50
   1620e: 82 80        	ret

0000000000016210 <printf>:
   16210: 03 b3 01 23  	ld	t1, 0x230(gp)
   16214: 1d 71        	addi	sp, sp, -0x60
   16216: 32 f8        	sd	a2, 0x30(sp)
   16218: 36 fc        	sd	a3, 0x38(sp)
   1621a: 2e f4        	sd	a1, 0x28(sp)
   1621c: ba e0        	sd	a4, 0x40(sp)
   1621e: be e4        	sd	a5, 0x48(sp)
   16220: c2 e8        	sd	a6, 0x50(sp)
   16222: c6 ec        	sd	a7, 0x58(sp)
   16224: 83 35 03 01  	ld	a1, 0x10(t1)
   16228: 34 10        	addi	a3, sp, 0x28
   1622a: 2a 86        	mv	a2, a0
   1622c: 1a 85        	mv	a0, t1
   1622e: 06 ec        	sd	ra, 0x18(sp)
   16230: 36 e4        	sd	a3, 0x8(sp)
   16232: ef 20 70 0b  	jal	0x18ae8 <_vfprintf_r>
   16236: e2 60        	ld	ra, 0x18(sp)
   16238: 25 61        	addi	sp, sp, 0x60
   1623a: 82 80        	ret

000000000001623c <_puts_r>:
   1623c: 59 71        	addi	sp, sp, -0x70
   1623e: a2 f0        	sd	s0, 0x60(sp)
   16240: 2a 84        	mv	s0, a0
   16242: 2e 85        	mv	a0, a1
   16244: a6 ec        	sd	s1, 0x58(sp)
   16246: 86 f4        	sd	ra, 0x68(sp)
   16248: ae 84        	mv	s1, a1
   1624a: ef 00 90 4f  	jal	0x16f42 <strlen>
   1624e: b7 07 02 00  	lui	a5, 0x20
   16252: 93 87 07 a4  	addi	a5, a5, -0x5c0
   16256: be e0        	sd	a5, 0x40(sp)
   16258: 85 47        	li	a5, 0x1
   1625a: be e4        	sd	a5, 0x48(sp)
   1625c: 38 64        	ld	a4, 0x48(s0)
   1625e: 1c 18        	addi	a5, sp, 0x30
   16260: 93 06 15 00  	addi	a3, a0, 0x1
   16264: 3e ec        	sd	a5, 0x18(sp)
   16266: 89 47        	li	a5, 0x2
   16268: 26 f8        	sd	s1, 0x30(sp)
   1626a: 2a fc        	sd	a0, 0x38(sp)
   1626c: 36 f4        	sd	a3, 0x28(sp)
   1626e: 3e d0        	sw	a5, 0x20(sp)
   16270: 0c 68        	ld	a1, 0x10(s0)
   16272: 15 cf        	beqz	a4, 0x162ae <_puts_r+0x72>
   16274: 83 97 05 01  	lh	a5, 0x10(a1)
   16278: 13 97 27 03  	slli	a4, a5, 0x32
   1627c: 63 4d 07 00  	bltz	a4, 0x16296 <_puts_r+0x5a>
   16280: 03 a7 c5 0a  	lw	a4, 0xac(a1)
   16284: f9 76        	lui	a3, 0xffffe
   16286: fd 16        	addi	a3, a3, -0x1
   16288: 09 66        	lui	a2, 0x2
   1628a: d1 8f        	or	a5, a5, a2
   1628c: 75 8f        	and	a4, a4, a3
   1628e: 23 98 f5 00  	sh	a5, 0x10(a1)
   16292: 23 a6 e5 0a  	sw	a4, 0xac(a1)
   16296: 30 08        	addi	a2, sp, 0x18
   16298: 22 85        	mv	a0, s0
   1629a: ef 50 a0 33  	jal	0x1b5d4 <__sfvwrite_r>
   1629e: a9 47        	li	a5, 0xa
   162a0: 09 ed        	bnez	a0, 0x162ba <_puts_r+0x7e>
   162a2: a6 70        	ld	ra, 0x68(sp)
   162a4: 06 74        	ld	s0, 0x60(sp)
   162a6: e6 64        	ld	s1, 0x58(sp)
   162a8: 3e 85        	mv	a0, a5
   162aa: 65 61        	addi	sp, sp, 0x70
   162ac: 82 80        	ret
   162ae: 22 85        	mv	a0, s0
   162b0: 2e e4        	sd	a1, 0x8(sp)
   162b2: ef f0 1f a1  	jal	0x15cc2 <__sinit>
   162b6: a2 65        	ld	a1, 0x8(sp)
   162b8: 75 bf        	j	0x16274 <_puts_r+0x38>
   162ba: fd 57        	li	a5, -0x1
   162bc: dd b7        	j	0x162a2 <_puts_r+0x66>

00000000000162be <puts>:
   162be: aa 85        	mv	a1, a0
   162c0: 03 b5 01 23  	ld	a0, 0x230(gp)
   162c4: 6f f0 9f f7  	j	0x1623c <_puts_r>

00000000000162c8 <lflush>:
   162c8: 83 d7 05 01  	lhu	a5, 0x10(a1)
   162cc: 25 47        	li	a4, 0x9
   162ce: a5 8b        	andi	a5, a5, 0x9
   162d0: 63 84 e7 00  	beq	a5, a4, 0x162d8 <lflush+0x10>
   162d4: 01 45        	li	a0, 0x0
   162d6: 82 80        	ret
   162d8: 03 b5 01 23  	ld	a0, 0x230(gp)
   162dc: 6f f0 8f dc  	j	0x158a4 <_fflush_r>

00000000000162e0 <__srefill_r>:
   162e0: 01 11        	addi	sp, sp, -0x20
   162e2: 22 e8        	sd	s0, 0x10(sp)
   162e4: 26 e4        	sd	s1, 0x8(sp)
   162e6: 06 ec        	sd	ra, 0x18(sp)
   162e8: aa 84        	mv	s1, a0
   162ea: 2e 84        	mv	s0, a1
   162ec: 01 c5        	beqz	a0, 0x162f4 <__srefill_r+0x14>
   162ee: 3c 65        	ld	a5, 0x48(a0)
   162f0: 63 88 07 10  	beqz	a5, 0x16400 <__srefill_r+0x120>
   162f4: 83 17 04 01  	lh	a5, 0x10(s0)
   162f8: 13 97 27 03  	slli	a4, a5, 0x32
   162fc: 63 41 07 02  	bltz	a4, 0x1631e <__srefill_r+0x3e>
   16300: 03 27 c4 0a  	lw	a4, 0xac(s0)
   16304: 09 66        	lui	a2, 0x2
   16306: f9 76        	lui	a3, 0xffffe
   16308: d1 8f        	or	a5, a5, a2
   1630a: fd 16        	addi	a3, a3, -0x1
   1630c: 9b 97 07 01  	slliw	a5, a5, 0x10
   16310: 9b d7 07 41  	sraiw	a5, a5, 0x10
   16314: 75 8f        	and	a4, a4, a3
   16316: 23 18 f4 00  	sh	a5, 0x10(s0)
   1631a: 23 26 e4 0a  	sw	a4, 0xac(s0)
   1631e: 23 24 04 00  	sw	zero, 0x8(s0)
   16322: 13 f7 07 02  	andi	a4, a5, 0x20
   16326: 63 18 07 0e  	bnez	a4, 0x16416 <__srefill_r+0x136>
   1632a: 13 f7 47 00  	andi	a4, a5, 0x4
   1632e: 31 e7        	bnez	a4, 0x1637a <__srefill_r+0x9a>
   16330: 13 f7 07 01  	andi	a4, a5, 0x10
   16334: 63 03 07 0e  	beqz	a4, 0x1641a <__srefill_r+0x13a>
   16338: 13 f7 87 00  	andi	a4, a5, 0x8
   1633c: 45 e7        	bnez	a4, 0x163e4 <__srefill_r+0x104>
   1633e: 4a e0        	sd	s2, 0x0(sp)
   16340: 93 e7 47 00  	ori	a5, a5, 0x4
   16344: 23 18 f4 00  	sh	a5, 0x10(s0)
   16348: 1c 6c        	ld	a5, 0x18(s0)
   1634a: a9 cb        	beqz	a5, 0x1639c <__srefill_r+0xbc>
   1634c: 03 19 04 01  	lh	s2, 0x10(s0)
   16350: 93 77 39 00  	andi	a5, s2, 0x3
   16354: a9 ef        	bnez	a5, 0x163ae <__srefill_r+0xce>
   16356: 10 6c        	ld	a2, 0x18(s0)
   16358: 1c 7c        	ld	a5, 0x38(s0)
   1635a: 14 50        	lw	a3, 0x20(s0)
   1635c: 0c 78        	ld	a1, 0x30(s0)
   1635e: 10 e0        	sd	a2, 0x0(s0)
   16360: 26 85        	mv	a0, s1
   16362: 82 97        	jalr	a5
   16364: 01 25        	sext.w	a0, a0
   16366: 08 c4        	sw	a0, 0x8(s0)
   16368: 63 5f a0 08  	blez	a0, 0x16406 <__srefill_r+0x126>
   1636c: 02 69        	ld	s2, 0x0(sp)
   1636e: 01 45        	li	a0, 0x0
   16370: e2 60        	ld	ra, 0x18(sp)
   16372: 42 64        	ld	s0, 0x10(sp)
   16374: a2 64        	ld	s1, 0x8(sp)
   16376: 05 61        	addi	sp, sp, 0x20
   16378: 82 80        	ret
   1637a: 2c 6c        	ld	a1, 0x58(s0)
   1637c: 89 cd        	beqz	a1, 0x16396 <__srefill_r+0xb6>
   1637e: 93 07 44 07  	addi	a5, s0, 0x74
   16382: 63 85 f5 00  	beq	a1, a5, 0x1638c <__srefill_r+0xac>
   16386: 26 85        	mv	a0, s1
   16388: ef 00 10 70  	jal	0x17288 <_free_r>
   1638c: 3c 58        	lw	a5, 0x70(s0)
   1638e: 23 3c 04 04  	sd	zero, 0x58(s0)
   16392: 1c c4        	sw	a5, 0x8(s0)
   16394: a9 e7        	bnez	a5, 0x163de <__srefill_r+0xfe>
   16396: 1c 6c        	ld	a5, 0x18(s0)
   16398: 4a e0        	sd	s2, 0x0(sp)
   1639a: cd fb        	bnez	a5, 0x1634c <__srefill_r+0x6c>
   1639c: a2 85        	mv	a1, s0
   1639e: 26 85        	mv	a0, s1
   163a0: ef 50 60 59  	jal	0x1b936 <__smakebuf_r>
   163a4: 03 19 04 01  	lh	s2, 0x10(s0)
   163a8: 93 77 39 00  	andi	a5, s2, 0x3
   163ac: cd d7        	beqz	a5, 0x16356 <__srefill_r+0x76>
   163ae: 85 47        	li	a5, 0x1
   163b0: d9 65        	lui	a1, 0x16
   163b2: 23 18 f4 00  	sh	a5, 0x10(s0)
   163b6: 13 86 81 d6  	addi	a2, gp, -0x298
   163ba: 93 85 85 2c  	addi	a1, a1, 0x2c8
   163be: 13 85 81 f2  	addi	a0, gp, -0xd8
   163c2: ef f0 bf c1  	jal	0x15fdc <_fwalk_sglue>
   163c6: a5 47        	li	a5, 0x9
   163c8: 23 18 24 01  	sh	s2, 0x10(s0)
   163cc: 13 79 99 00  	andi	s2, s2, 0x9
   163d0: e3 13 f9 f8  	bne	s2, a5, 0x16356 <__srefill_r+0x76>
   163d4: a2 85        	mv	a1, s0
   163d6: 26 85        	mv	a0, s1
   163d8: ef f0 4f b3  	jal	0x1570c <__sflush_r>
   163dc: ad bf        	j	0x16356 <__srefill_r+0x76>
   163de: 3c 74        	ld	a5, 0x68(s0)
   163e0: 1c e0        	sd	a5, 0x0(s0)
   163e2: 71 b7        	j	0x1636e <__srefill_r+0x8e>
   163e4: a2 85        	mv	a1, s0
   163e6: 26 85        	mv	a0, s1
   163e8: ef f0 cf cb  	jal	0x158a4 <_fflush_r>
   163ec: 0d e5        	bnez	a0, 0x16416 <__srefill_r+0x136>
   163ee: 83 17 04 01  	lh	a5, 0x10(s0)
   163f2: 4a e0        	sd	s2, 0x0(sp)
   163f4: 23 26 04 00  	sw	zero, 0xc(s0)
   163f8: 23 24 04 02  	sw	zero, 0x28(s0)
   163fc: dd 9b        	andi	a5, a5, -0x9
   163fe: 89 b7        	j	0x16340 <__srefill_r+0x60>
   16400: ef f0 3f 8c  	jal	0x15cc2 <__sinit>
   16404: c5 bd        	j	0x162f4 <__srefill_r+0x14>
   16406: 83 17 04 01  	lh	a5, 0x10(s0)
   1640a: 05 e1        	bnez	a0, 0x1642a <__srefill_r+0x14a>
   1640c: 02 69        	ld	s2, 0x0(sp)
   1640e: 93 e7 07 02  	ori	a5, a5, 0x20
   16412: 23 18 f4 00  	sh	a5, 0x10(s0)
   16416: 7d 55        	li	a0, -0x1
   16418: a1 bf        	j	0x16370 <__srefill_r+0x90>
   1641a: 25 47        	li	a4, 0x9
   1641c: 98 c0        	sw	a4, 0x0(s1)
   1641e: 93 e7 07 04  	ori	a5, a5, 0x40
   16422: 23 18 f4 00  	sh	a5, 0x10(s0)
   16426: 7d 55        	li	a0, -0x1
   16428: a1 b7        	j	0x16370 <__srefill_r+0x90>
   1642a: 93 e7 07 04  	ori	a5, a5, 0x40
   1642e: 02 69        	ld	s2, 0x0(sp)
   16430: 23 24 04 00  	sw	zero, 0x8(s0)
   16434: 23 18 f4 00  	sh	a5, 0x10(s0)
   16438: 7d 55        	li	a0, -0x1
   1643a: 1d bf        	j	0x16370 <__srefill_r+0x90>

000000000001643c <__srget_r>:
   1643c: 01 11        	addi	sp, sp, -0x20
   1643e: 22 e8        	sd	s0, 0x10(sp)
   16440: 26 e4        	sd	s1, 0x8(sp)
   16442: 06 ec        	sd	ra, 0x18(sp)
   16444: aa 84        	mv	s1, a0
   16446: 2e 84        	mv	s0, a1
   16448: 19 c1        	beqz	a0, 0x1644e <__srget_r+0x12>
   1644a: 3c 65        	ld	a5, 0x48(a0)
   1644c: 85 c7        	beqz	a5, 0x16474 <__srget_r+0x38>
   1644e: a2 85        	mv	a1, s0
   16450: 26 85        	mv	a0, s1
   16452: ef f0 ff e8  	jal	0x162e0 <__srefill_r>
   16456: 15 e1        	bnez	a0, 0x1647a <__srget_r+0x3e>
   16458: 18 60        	ld	a4, 0x0(s0)
   1645a: 1c 44        	lw	a5, 0x8(s0)
   1645c: 93 06 17 00  	addi	a3, a4, 0x1
   16460: fd 37        	addiw	a5, a5, -0x1
   16462: 1c c4        	sw	a5, 0x8(s0)
   16464: 14 e0        	sd	a3, 0x0(s0)
   16466: 03 45 07 00  	lbu	a0, 0x0(a4)
   1646a: e2 60        	ld	ra, 0x18(sp)
   1646c: 42 64        	ld	s0, 0x10(sp)
   1646e: a2 64        	ld	s1, 0x8(sp)
   16470: 05 61        	addi	sp, sp, 0x20
   16472: 82 80        	ret
   16474: ef f0 ff 84  	jal	0x15cc2 <__sinit>
   16478: d9 bf        	j	0x1644e <__srget_r+0x12>
   1647a: 7d 55        	li	a0, -0x1
   1647c: fd b7        	j	0x1646a <__srget_r+0x2e>

000000000001647e <__srget>:
   1647e: 01 11        	addi	sp, sp, -0x20
   16480: 26 e4        	sd	s1, 0x8(sp)
   16482: 83 b4 01 23  	ld	s1, 0x230(gp)
   16486: 22 e8        	sd	s0, 0x10(sp)
   16488: 06 ec        	sd	ra, 0x18(sp)
   1648a: 2a 84        	mv	s0, a0
   1648c: 99 c0        	beqz	s1, 0x16492 <__srget+0x14>
   1648e: bc 64        	ld	a5, 0x48(s1)
   16490: 85 c7        	beqz	a5, 0x164b8 <__srget+0x3a>
   16492: a2 85        	mv	a1, s0
   16494: 26 85        	mv	a0, s1
   16496: ef f0 bf e4  	jal	0x162e0 <__srefill_r>
   1649a: 1d e1        	bnez	a0, 0x164c0 <__srget+0x42>
   1649c: 18 60        	ld	a4, 0x0(s0)
   1649e: 1c 44        	lw	a5, 0x8(s0)
   164a0: 93 06 17 00  	addi	a3, a4, 0x1
   164a4: fd 37        	addiw	a5, a5, -0x1
   164a6: 1c c4        	sw	a5, 0x8(s0)
   164a8: 14 e0        	sd	a3, 0x0(s0)
   164aa: 03 45 07 00  	lbu	a0, 0x0(a4)
   164ae: e2 60        	ld	ra, 0x18(sp)
   164b0: 42 64        	ld	s0, 0x10(sp)
   164b2: a2 64        	ld	s1, 0x8(sp)
   164b4: 05 61        	addi	sp, sp, 0x20
   164b6: 82 80        	ret
   164b8: 26 85        	mv	a0, s1
   164ba: ef f0 9f 80  	jal	0x15cc2 <__sinit>
   164be: d1 bf        	j	0x16492 <__srget+0x14>
   164c0: 7d 55        	li	a0, -0x1
   164c2: f5 b7        	j	0x164ae <__srget+0x30>

00000000000164c4 <__sread>:
   164c4: 41 11        	addi	sp, sp, -0x10
   164c6: 22 e0        	sd	s0, 0x0(sp)
   164c8: 2e 84        	mv	s0, a1
   164ca: 83 95 25 01  	lh	a1, 0x12(a1)
   164ce: 06 e4        	sd	ra, 0x8(sp)
   164d0: ef 00 c0 75  	jal	0x16c2c <_read_r>
   164d4: 63 49 05 00  	bltz	a0, 0x164e6 <__sread+0x22>
   164d8: 5c 68        	ld	a5, 0x90(s0)
   164da: a2 60        	ld	ra, 0x8(sp)
   164dc: aa 97        	add	a5, a5, a0
   164de: 5c e8        	sd	a5, 0x90(s0)
   164e0: 02 64        	ld	s0, 0x0(sp)
   164e2: 41 01        	addi	sp, sp, 0x10
   164e4: 82 80        	ret
   164e6: 83 57 04 01  	lhu	a5, 0x10(s0)
   164ea: 7d 77        	lui	a4, 0xfffff
   164ec: 7d 17        	addi	a4, a4, -0x1
   164ee: f9 8f        	and	a5, a5, a4
   164f0: a2 60        	ld	ra, 0x8(sp)
   164f2: 23 18 f4 00  	sh	a5, 0x10(s0)
   164f6: 02 64        	ld	s0, 0x0(sp)
   164f8: 41 01        	addi	sp, sp, 0x10
   164fa: 82 80        	ret

00000000000164fc <__seofread>:
   164fc: 01 45        	li	a0, 0x0
   164fe: 82 80        	ret

0000000000016500 <__swrite>:
   16500: 83 97 05 01  	lh	a5, 0x10(a1)
   16504: 79 71        	addi	sp, sp, -0x30
   16506: 22 f0        	sd	s0, 0x20(sp)
   16508: 26 ec        	sd	s1, 0x18(sp)
   1650a: 4a e8        	sd	s2, 0x10(sp)
   1650c: 4e e4        	sd	s3, 0x8(sp)
   1650e: 06 f4        	sd	ra, 0x28(sp)
   16510: 13 f7 07 10  	andi	a4, a5, 0x100
   16514: 2e 84        	mv	s0, a1
   16516: aa 84        	mv	s1, a0
   16518: 32 89        	mv	s2, a2
   1651a: b6 89        	mv	s3, a3
   1651c: 1d e3        	bnez	a4, 0x16542 <__swrite+0x42>
   1651e: 7d 77        	lui	a4, 0xfffff
   16520: 7d 17        	addi	a4, a4, -0x1
   16522: f9 8f        	and	a5, a5, a4
   16524: 83 15 24 01  	lh	a1, 0x12(s0)
   16528: 23 18 f4 00  	sh	a5, 0x10(s0)
   1652c: 02 74        	ld	s0, 0x20(sp)
   1652e: a2 70        	ld	ra, 0x28(sp)
   16530: ce 86        	mv	a3, s3
   16532: 4a 86        	mv	a2, s2
   16534: a2 69        	ld	s3, 0x8(sp)
   16536: 42 69        	ld	s2, 0x10(sp)
   16538: 26 85        	mv	a0, s1
   1653a: e2 64        	ld	s1, 0x18(sp)
   1653c: 45 61        	addi	sp, sp, 0x30
   1653e: 6f 00 00 76  	j	0x16c9e <_write_r>
   16542: 83 95 25 01  	lh	a1, 0x12(a1)
   16546: 89 46        	li	a3, 0x2
   16548: 01 46        	li	a2, 0x0
   1654a: ef 00 a0 66  	jal	0x16bb4 <_lseek_r>
   1654e: 83 17 04 01  	lh	a5, 0x10(s0)
   16552: f1 b7        	j	0x1651e <__swrite+0x1e>

0000000000016554 <__sseek>:
   16554: 41 11        	addi	sp, sp, -0x10
   16556: 22 e0        	sd	s0, 0x0(sp)
   16558: 2e 84        	mv	s0, a1
   1655a: 83 95 25 01  	lh	a1, 0x12(a1)
   1655e: 06 e4        	sd	ra, 0x8(sp)
   16560: ef 00 40 65  	jal	0x16bb4 <_lseek_r>
   16564: fd 57        	li	a5, -0x1
   16566: 63 01 f5 02  	beq	a0, a5, 0x16588 <__sseek+0x34>
   1656a: 83 57 04 01  	lhu	a5, 0x10(s0)
   1656e: 05 67        	lui	a4, 0x1
   16570: a2 60        	ld	ra, 0x8(sp)
   16572: d9 8f        	or	a5, a5, a4
   16574: 9b 97 07 01  	slliw	a5, a5, 0x10
   16578: 9b d7 07 41  	sraiw	a5, a5, 0x10
   1657c: 48 e8        	sd	a0, 0x90(s0)
   1657e: 23 18 f4 00  	sh	a5, 0x10(s0)
   16582: 02 64        	ld	s0, 0x0(sp)
   16584: 41 01        	addi	sp, sp, 0x10
   16586: 82 80        	ret
   16588: 83 57 04 01  	lhu	a5, 0x10(s0)
   1658c: 7d 77        	lui	a4, 0xfffff
   1658e: 7d 17        	addi	a4, a4, -0x1
   16590: f9 8f        	and	a5, a5, a4
   16592: 9b 97 07 01  	slliw	a5, a5, 0x10
   16596: 9b d7 07 41  	sraiw	a5, a5, 0x10
   1659a: a2 60        	ld	ra, 0x8(sp)
   1659c: 23 18 f4 00  	sh	a5, 0x10(s0)
   165a0: 02 64        	ld	s0, 0x0(sp)
   165a2: 41 01        	addi	sp, sp, 0x10
   165a4: 82 80        	ret

00000000000165a6 <__sclose>:
   165a6: 83 95 25 01  	lh	a1, 0x12(a1)
   165aa: 1d a3        	j	0x16ad0 <_close_r>

00000000000165ac <_fseeko_r>:
   165ac: 31 71        	addi	sp, sp, -0xc0
   165ae: 22 f9        	sd	s0, 0xb0(sp)
   165b0: 26 f5        	sd	s1, 0xa8(sp)
   165b2: 4a f1        	sd	s2, 0xa0(sp)
   165b4: 52 e9        	sd	s4, 0x90(sp)
   165b6: 06 fd        	sd	ra, 0xb8(sp)
   165b8: 56 e5        	sd	s5, 0x88(sp)
   165ba: aa 84        	mv	s1, a0
   165bc: 2e 84        	mv	s0, a1
   165be: 32 8a        	mv	s4, a2
   165c0: 36 89        	mv	s2, a3
   165c2: 01 c5        	beqz	a0, 0x165ca <_fseeko_r+0x1e>
   165c4: 3c 65        	ld	a5, 0x48(a0)
   165c6: 63 80 07 28  	beqz	a5, 0x16846 <_fseeko_r+0x29a>
   165ca: 83 57 04 01  	lhu	a5, 0x10(s0)
   165ce: 13 07 80 10  	li	a4, 0x108
   165d2: 93 f7 87 10  	andi	a5, a5, 0x108
   165d6: 63 8c e7 12  	beq	a5, a4, 0x1670e <_fseeko_r+0x162>
   165da: 83 3a 84 04  	ld	s5, 0x48(s0)
   165de: 63 86 0a 2c  	beqz	s5, 0x168aa <_fseeko_r+0x2fe>
   165e2: 4e ed        	sd	s3, 0x98(sp)
   165e4: 5a e1        	sd	s6, 0x80(sp)
   165e6: 85 47        	li	a5, 0x1
   165e8: 63 0a f9 0a  	beq	s2, a5, 0x1669c <_fseeko_r+0xf0>
   165ec: 13 7b d9 ff  	andi	s6, s2, -0x3
   165f0: 63 0f 0b 00  	beqz	s6, 0x1660e <_fseeko_r+0x62>
   165f4: ea 69        	ld	s3, 0x98(sp)
   165f6: 0a 6b        	ld	s6, 0x80(sp)
   165f8: d9 47        	li	a5, 0x16
   165fa: 9c c0        	sw	a5, 0x0(s1)
   165fc: 7d 55        	li	a0, -0x1
   165fe: ea 70        	ld	ra, 0xb8(sp)
   16600: 4a 74        	ld	s0, 0xb0(sp)
   16602: aa 74        	ld	s1, 0xa8(sp)
   16604: 0a 79        	ld	s2, 0xa0(sp)
   16606: 4a 6a        	ld	s4, 0x90(sp)
   16608: aa 6a        	ld	s5, 0x88(sp)
   1660a: 29 61        	addi	sp, sp, 0xc0
   1660c: 82 80        	ret
   1660e: 18 6c        	ld	a4, 0x18(s0)
   16610: 81 49        	li	s3, 0x0
   16612: 69 c3        	beqz	a4, 0x166d4 <_fseeko_r+0x128>
   16614: 83 17 04 01  	lh	a5, 0x10(s0)
   16618: 13 d7 17 00  	srli	a4, a5, 0x1
   1661c: 13 77 d7 40  	andi	a4, a4, 0x40d
   16620: 19 ef        	bnez	a4, 0x1663e <_fseeko_r+0x92>
   16622: 13 f7 07 40  	andi	a4, a5, 0x400
   16626: 45 ef        	bnez	a4, 0x166de <_fseeko_r+0x132>
   16628: 59 67        	lui	a4, 0x16
   1662a: 13 07 47 55  	addi	a4, a4, 0x554
   1662e: 63 8b ea 1a  	beq	s5, a4, 0x167e4 <_fseeko_r+0x238>
   16632: 05 67        	lui	a4, 0x1
   16634: 13 07 07 80  	addi	a4, a4, -0x800
   16638: d9 8f        	or	a5, a5, a4
   1663a: 23 18 f4 00  	sh	a5, 0x10(s0)
   1663e: a2 85        	mv	a1, s0
   16640: 26 85        	mv	a0, s1
   16642: ef f0 2f a6  	jal	0x158a4 <_fflush_r>
   16646: 63 1e 05 24  	bnez	a0, 0x168a2 <_fseeko_r+0x2f6>
   1664a: 0c 78        	ld	a1, 0x30(s0)
   1664c: ca 86        	mv	a3, s2
   1664e: 52 86        	mv	a2, s4
   16650: 26 85        	mv	a0, s1
   16652: 82 9a        	jalr	s5
   16654: fd 57        	li	a5, -0x1
   16656: 63 06 f5 24  	beq	a0, a5, 0x168a2 <_fseeko_r+0x2f6>
   1665a: 2c 6c        	ld	a1, 0x58(s0)
   1665c: 91 c9        	beqz	a1, 0x16670 <_fseeko_r+0xc4>
   1665e: 93 07 44 07  	addi	a5, s0, 0x74
   16662: 63 85 f5 00  	beq	a1, a5, 0x1666c <_fseeko_r+0xc0>
   16666: 26 85        	mv	a0, s1
   16668: ef 00 10 42  	jal	0x17288 <_free_r>
   1666c: 23 3c 04 04  	sd	zero, 0x58(s0)
   16670: 83 57 04 01  	lhu	a5, 0x10(s0)
   16674: 14 6c        	ld	a3, 0x18(s0)
   16676: 7d 77        	lui	a4, 0xfffff
   16678: 13 07 f7 7d  	addi	a4, a4, 0x7df
   1667c: f9 8f        	and	a5, a5, a4
   1667e: 14 e0        	sd	a3, 0x0(s0)
   16680: 23 24 04 00  	sw	zero, 0x8(s0)
   16684: 23 18 f4 00  	sh	a5, 0x10(s0)
   16688: 21 46        	li	a2, 0x8
   1668a: 81 45        	li	a1, 0x0
   1668c: 13 05 44 0a  	addi	a0, s0, 0xa4
   16690: ef 00 20 6c  	jal	0x16d52 <memset>
   16694: ea 69        	ld	s3, 0x98(sp)
   16696: 0a 6b        	ld	s6, 0x80(sp)
   16698: 01 45        	li	a0, 0x0
   1669a: 95 b7        	j	0x165fe <_fseeko_r+0x52>
   1669c: a2 85        	mv	a1, s0
   1669e: 26 85        	mv	a0, s1
   166a0: ef f0 4f a0  	jal	0x158a4 <_fflush_r>
   166a4: 83 17 04 01  	lh	a5, 0x10(s0)
   166a8: 13 97 37 03  	slli	a4, a5, 0x33
   166ac: 63 56 07 06  	bgez	a4, 0x16718 <_fseeko_r+0x16c>
   166b0: 93 f6 47 00  	andi	a3, a5, 0x4
   166b4: 83 39 04 09  	ld	s3, 0x90(s0)
   166b8: 18 6c        	ld	a4, 0x18(s0)
   166ba: b5 ce        	beqz	a3, 0x16736 <_fseeko_r+0x18a>
   166bc: 14 44        	lw	a3, 0x8(s0)
   166be: 3c 6c        	ld	a5, 0x58(s0)
   166c0: b3 89 d9 40  	sub	s3, s3, a3
   166c4: 81 c7        	beqz	a5, 0x166cc <_fseeko_r+0x120>
   166c6: 3c 58        	lw	a5, 0x70(s0)
   166c8: b3 89 f9 40  	sub	s3, s3, a5
   166cc: 4a 8b        	mv	s6, s2
   166ce: 4e 9a        	add	s4, s4, s3
   166d0: 01 49        	li	s2, 0x0
   166d2: 29 f3        	bnez	a4, 0x16614 <_fseeko_r+0x68>
   166d4: a2 85        	mv	a1, s0
   166d6: 26 85        	mv	a0, s1
   166d8: ef 50 e0 25  	jal	0x1b936 <__smakebuf_r>
   166dc: 25 bf        	j	0x16614 <_fseeko_r+0x68>
   166de: de fc        	sd	s7, 0x78(sp)
   166e0: d2 8b        	mv	s7, s4
   166e2: 63 1c 09 12  	bnez	s2, 0x1681a <_fseeko_r+0x26e>
   166e6: 63 1f 0b 04  	bnez	s6, 0x16744 <_fseeko_r+0x198>
   166ea: 83 57 04 01  	lhu	a5, 0x10(s0)
   166ee: 13 97 37 03  	slli	a4, a5, 0x33
   166f2: 63 50 07 14  	bgez	a4, 0x16832 <_fseeko_r+0x286>
   166f6: 48 68        	ld	a0, 0x90(s0)
   166f8: 1c 44        	lw	a5, 0x8(s0)
   166fa: 2c 6c        	ld	a1, 0x58(s0)
   166fc: be 86        	mv	a3, a5
   166fe: b3 09 f5 40  	sub	s3, a0, a5
   16702: 63 85 05 14  	beqz	a1, 0x1684c <_fseeko_r+0x2a0>
   16706: 38 58        	lw	a4, 0x70(s0)
   16708: b3 89 e9 40  	sub	s3, s3, a4
   1670c: 91 a0        	j	0x16750 <_fseeko_r+0x1a4>
   1670e: a2 85        	mv	a1, s0
   16710: 26 85        	mv	a0, s1
   16712: ef f0 2f 99  	jal	0x158a4 <_fflush_r>
   16716: d1 b5        	j	0x165da <_fseeko_r+0x2e>
   16718: 0c 78        	ld	a1, 0x30(s0)
   1671a: 85 46        	li	a3, 0x1
   1671c: 01 46        	li	a2, 0x0
   1671e: 26 85        	mv	a0, s1
   16720: 82 9a        	jalr	s5
   16722: fd 57        	li	a5, -0x1
   16724: aa 89        	mv	s3, a0
   16726: 63 0e f5 16  	beq	a0, a5, 0x168a2 <_fseeko_r+0x2f6>
   1672a: 83 17 04 01  	lh	a5, 0x10(s0)
   1672e: 18 6c        	ld	a4, 0x18(s0)
   16730: 93 f6 47 00  	andi	a3, a5, 0x4
   16734: c1 f6        	bnez	a3, 0x166bc <_fseeko_r+0x110>
   16736: a1 8b        	andi	a5, a5, 0x8
   16738: d1 db        	beqz	a5, 0x166cc <_fseeko_r+0x120>
   1673a: 1c 60        	ld	a5, 0x0(s0)
   1673c: c1 db        	beqz	a5, 0x166cc <_fseeko_r+0x120>
   1673e: 99 8f        	sub	a5, a5, a4
   16740: be 99        	add	s3, s3, a5
   16742: 69 b7        	j	0x166cc <_fseeko_r+0x120>
   16744: 2c 6c        	ld	a1, 0x58(s0)
   16746: 14 44        	lw	a3, 0x8(s0)
   16748: 63 82 05 10  	beqz	a1, 0x1684c <_fseeko_r+0x2a0>
   1674c: 38 58        	lw	a4, 0x70(s0)
   1674e: b6 87        	mv	a5, a3
   16750: 34 74        	ld	a3, 0x68(s0)
   16752: 10 6c        	ld	a2, 0x18(s0)
   16754: ce 97        	add	a5, a5, s3
   16756: 91 8e        	sub	a3, a3, a2
   16758: 95 8f        	sub	a5, a5, a3
   1675a: 36 97        	add	a4, a4, a3
   1675c: 63 c6 fb 00  	blt	s7, a5, 0x16768 <_fseeko_r+0x1bc>
   16760: b3 86 e7 00  	add	a3, a5, a4
   16764: 63 ef db 0e  	bltu	s7, a3, 0x16862 <_fseeko_r+0x2b6>
   16768: 83 29 84 08  	lw	s3, 0x88(s0)
   1676c: 0c 78        	ld	a1, 0x30(s0)
   1676e: 81 46        	li	a3, 0x0
   16770: bb 09 30 41  	negw	s3, s3
   16774: b3 f9 79 01  	and	s3, s3, s7
   16778: 4e 86        	mv	a2, s3
   1677a: 26 85        	mv	a0, s1
   1677c: 82 9a        	jalr	s5
   1677e: fd 57        	li	a5, -0x1
   16780: 63 01 f5 0c  	beq	a0, a5, 0x16842 <_fseeko_r+0x296>
   16784: 1c 6c        	ld	a5, 0x18(s0)
   16786: 2c 6c        	ld	a1, 0x58(s0)
   16788: 23 24 04 00  	sw	zero, 0x8(s0)
   1678c: 1c e0        	sd	a5, 0x0(s0)
   1678e: 91 c9        	beqz	a1, 0x167a2 <_fseeko_r+0x1f6>
   16790: 93 07 44 07  	addi	a5, s0, 0x74
   16794: 63 85 f5 00  	beq	a1, a5, 0x1679e <_fseeko_r+0x1f2>
   16798: 26 85        	mv	a0, s1
   1679a: ef 00 f0 2e  	jal	0x17288 <_free_r>
   1679e: 23 3c 04 04  	sd	zero, 0x58(s0)
   167a2: 83 57 04 01  	lhu	a5, 0x10(s0)
   167a6: 33 8b 3b 41  	sub	s6, s7, s3
   167aa: 93 f7 f7 fd  	andi	a5, a5, -0x21
   167ae: 23 18 f4 00  	sh	a5, 0x10(s0)
   167b2: 63 81 3b 03  	beq	s7, s3, 0x167d4 <_fseeko_r+0x228>
   167b6: a2 85        	mv	a1, s0
   167b8: 26 85        	mv	a0, s1
   167ba: ef f0 7f b2  	jal	0x162e0 <__srefill_r>
   167be: 51 e1        	bnez	a0, 0x16842 <_fseeko_r+0x296>
   167c0: 1c 44        	lw	a5, 0x8(s0)
   167c2: 63 e0 67 09  	bltu	a5, s6, 0x16842 <_fseeko_r+0x296>
   167c6: 18 60        	ld	a4, 0x0(s0)
   167c8: bb 87 67 41  	subw	a5, a5, s6
   167cc: 1c c4        	sw	a5, 0x8(s0)
   167ce: b3 07 67 01  	add	a5, a4, s6
   167d2: 1c e0        	sd	a5, 0x0(s0)
   167d4: 21 46        	li	a2, 0x8
   167d6: 81 45        	li	a1, 0x0
   167d8: 13 05 44 0a  	addi	a0, s0, 0xa4
   167dc: ef 00 60 57  	jal	0x16d52 <memset>
   167e0: e6 7b        	ld	s7, 0x78(sp)
   167e2: 4d bd        	j	0x16694 <_fseeko_r+0xe8>
   167e4: 83 15 24 01  	lh	a1, 0x12(s0)
   167e8: e3 c5 05 e4  	bltz	a1, 0x16632 <_fseeko_r+0x86>
   167ec: 30 00        	addi	a2, sp, 0x8
   167ee: 26 85        	mv	a0, s1
   167f0: ef 00 a0 38  	jal	0x16b7a <_fstat_r>
   167f4: 25 e5        	bnez	a0, 0x1685c <_fseeko_r+0x2b0>
   167f6: 32 47        	lw	a4, 0xc(sp)
   167f8: bd 67        	lui	a5, 0xf
   167fa: a1 66        	lui	a3, 0x8
   167fc: 7d 8f        	and	a4, a4, a5
   167fe: 83 17 04 01  	lh	a5, 0x10(s0)
   16802: e3 18 d7 e2  	bne	a4, a3, 0x16632 <_fseeko_r+0x86>
   16806: de fc        	sd	s7, 0x78(sp)
   16808: 93 e7 07 40  	ori	a5, a5, 0x400
   1680c: 13 07 00 40  	li	a4, 0x400
   16810: 23 24 e4 08  	sw	a4, 0x88(s0)
   16814: 23 18 f4 00  	sh	a5, 0x10(s0)
   16818: e1 b5        	j	0x166e0 <_fseeko_r+0x134>
   1681a: 83 15 24 01  	lh	a1, 0x12(s0)
   1681e: 30 00        	addi	a2, sp, 0x8
   16820: 26 85        	mv	a0, s1
   16822: ef 00 80 35  	jal	0x16b7a <_fstat_r>
   16826: 11 ed        	bnez	a0, 0x16842 <_fseeko_r+0x296>
   16828: e2 6b        	ld	s7, 0x18(sp)
   1682a: d2 9b        	add	s7, s7, s4
   1682c: e3 1c 0b f0  	bnez	s6, 0x16744 <_fseeko_r+0x198>
   16830: 6d bd        	j	0x166ea <_fseeko_r+0x13e>
   16832: 0c 78        	ld	a1, 0x30(s0)
   16834: 85 46        	li	a3, 0x1
   16836: 01 46        	li	a2, 0x0
   16838: 26 85        	mv	a0, s1
   1683a: 82 9a        	jalr	s5
   1683c: fd 57        	li	a5, -0x1
   1683e: e3 1d f5 ea  	bne	a0, a5, 0x166f8 <_fseeko_r+0x14c>
   16842: e6 7b        	ld	s7, 0x78(sp)
   16844: ed bb        	j	0x1663e <_fseeko_r+0x92>
   16846: ef f0 cf c7  	jal	0x15cc2 <__sinit>
   1684a: 41 b3        	j	0x165ca <_fseeko_r+0x1e>
   1684c: 18 60        	ld	a4, 0x0(s0)
   1684e: 10 6c        	ld	a2, 0x18(s0)
   16850: 81 45        	li	a1, 0x0
   16852: 11 8f        	sub	a4, a4, a2
   16854: b3 87 e9 40  	sub	a5, s3, a4
   16858: 36 97        	add	a4, a4, a3
   1685a: 09 b7        	j	0x1675c <_fseeko_r+0x1b0>
   1685c: 83 17 04 01  	lh	a5, 0x10(s0)
   16860: c9 bb        	j	0x16632 <_fseeko_r+0x86>
   16862: bb 86 fb 40  	subw	a3, s7, a5
   16866: b9 9f        	addw	a5, a5, a4
   16868: 36 96        	add	a2, a2, a3
   1686a: bb 87 77 41  	subw	a5, a5, s7
   1686e: 10 e0        	sd	a2, 0x0(s0)
   16870: 1c c4        	sw	a5, 0x8(s0)
   16872: 91 c9        	beqz	a1, 0x16886 <_fseeko_r+0x2da>
   16874: 93 07 44 07  	addi	a5, s0, 0x74
   16878: 63 85 f5 00  	beq	a1, a5, 0x16882 <_fseeko_r+0x2d6>
   1687c: 26 85        	mv	a0, s1
   1687e: ef 00 b0 20  	jal	0x17288 <_free_r>
   16882: 23 3c 04 04  	sd	zero, 0x58(s0)
   16886: 83 57 04 01  	lhu	a5, 0x10(s0)
   1688a: 21 46        	li	a2, 0x8
   1688c: 81 45        	li	a1, 0x0
   1688e: 93 f7 f7 fd  	andi	a5, a5, -0x21
   16892: 23 18 f4 00  	sh	a5, 0x10(s0)
   16896: 13 05 44 0a  	addi	a0, s0, 0xa4
   1689a: ef 00 80 4b  	jal	0x16d52 <memset>
   1689e: e6 7b        	ld	s7, 0x78(sp)
   168a0: d5 bb        	j	0x16694 <_fseeko_r+0xe8>
   168a2: ea 69        	ld	s3, 0x98(sp)
   168a4: 0a 6b        	ld	s6, 0x80(sp)
   168a6: 7d 55        	li	a0, -0x1
   168a8: 99 bb        	j	0x165fe <_fseeko_r+0x52>
   168aa: f5 47        	li	a5, 0x1d
   168ac: 9c c0        	sw	a5, 0x0(s1)
   168ae: 7d 55        	li	a0, -0x1
   168b0: b9 b3        	j	0x165fe <_fseeko_r+0x52>

00000000000168b2 <fseeko>:
   168b2: aa 87        	mv	a5, a0
   168b4: 03 b5 01 23  	ld	a0, 0x230(gp)
   168b8: b2 86        	mv	a3, a2
   168ba: 2e 86        	mv	a2, a1
   168bc: be 85        	mv	a1, a5
   168be: 6f f0 ff ce  	j	0x165ac <_fseeko_r>

00000000000168c2 <memchr>:
   168c2: 93 77 75 00  	andi	a5, a0, 0x7
   168c6: 93 f6 f5 0f  	andi	a3, a1, 0xff
   168ca: 95 c3        	beqz	a5, 0x168ee <memchr+0x2c>
   168cc: 93 07 f6 ff  	addi	a5, a2, -0x1
   168d0: 05 c6        	beqz	a2, 0x168f8 <memchr+0x36>
   168d2: 7d 56        	li	a2, -0x1
   168d4: 01 a8        	j	0x168e4 <memchr+0x22>
   168d6: 05 05        	addi	a0, a0, 0x1
   168d8: 13 77 75 00  	andi	a4, a0, 0x7
   168dc: 11 cb        	beqz	a4, 0x168f0 <memchr+0x2e>
   168de: fd 17        	addi	a5, a5, -0x1
   168e0: 63 8c c7 00  	beq	a5, a2, 0x168f8 <memchr+0x36>
   168e4: 03 47 05 00  	lbu	a4, 0x0(a0)
   168e8: e3 17 d7 fe  	bne	a4, a3, 0x168d6 <memchr+0x14>
   168ec: 82 80        	ret
   168ee: b2 87        	mv	a5, a2
   168f0: 1d 47        	li	a4, 0x7
   168f2: 63 65 f7 00  	bltu	a4, a5, 0x168fc <memchr+0x3a>
   168f6: bd e3        	bnez	a5, 0x1695c <memchr+0x9a>
   168f8: 01 45        	li	a0, 0x0
   168fa: 82 80        	ret
   168fc: 93 f5 f5 0f  	andi	a1, a1, 0xff
   16900: 37 18 10 f0  	lui	a6, 0xf0101
   16904: 13 97 85 00  	slli	a4, a1, 0x8
   16908: b7 08 ff fe  	lui	a7, 0xfeff0
   1690c: 12 08        	slli	a6, a6, 0x4
   1690e: 2e 97        	add	a4, a4, a1
   16910: 93 88 f8 ef  	addi	a7, a7, -0x101
   16914: 13 08 18 10  	addi	a6, a6, 0x101
   16918: 93 15 07 01  	slli	a1, a4, 0x10
   1691c: c2 08        	slli	a7, a7, 0x10
   1691e: 42 08        	slli	a6, a6, 0x10
   16920: ba 95        	add	a1, a1, a4
   16922: 93 88 f8 ef  	addi	a7, a7, -0x101
   16926: 13 08 18 10  	addi	a6, a6, 0x101
   1692a: 13 97 05 02  	slli	a4, a1, 0x20
   1692e: c2 08        	slli	a7, a7, 0x10
   16930: 3e 08        	slli	a6, a6, 0xf
   16932: ba 95        	add	a1, a1, a4
   16934: 93 88 f8 ef  	addi	a7, a7, -0x101
   16938: 13 08 08 08  	addi	a6, a6, 0x80
   1693c: 1d 43        	li	t1, 0x7
   1693e: 29 a0        	j	0x16948 <memchr+0x86>
   16940: e1 17        	addi	a5, a5, -0x8
   16942: 21 05        	addi	a0, a0, 0x8
   16944: e3 79 f3 fa  	bgeu	t1, a5, 0x168f6 <memchr+0x34>
   16948: 18 61        	ld	a4, 0x0(a0)
   1694a: 2d 8f        	xor	a4, a4, a1
   1694c: 33 06 17 01  	add	a2, a4, a7
   16950: 13 47 f7 ff  	not	a4, a4
   16954: 71 8f        	and	a4, a4, a2
   16956: 33 77 07 01  	and	a4, a4, a6
   1695a: 7d d3        	beqz	a4, 0x16940 <memchr+0x7e>
   1695c: aa 97        	add	a5, a5, a0
   1695e: 21 a0        	j	0x16966 <memchr+0xa4>
   16960: 05 05        	addi	a0, a0, 0x1
   16962: e3 8b a7 f8  	beq	a5, a0, 0x168f8 <memchr+0x36>
   16966: 03 47 05 00  	lbu	a4, 0x0(a0)
   1696a: e3 1b d7 fe  	bne	a4, a3, 0x16960 <memchr+0x9e>
   1696e: 82 80        	ret

0000000000016970 <strncmp>:
   16970: 4d c6        	beqz	a2, 0x16a1a <strncmp+0xaa>
   16972: b3 67 b5 00  	or	a5, a0, a1
   16976: 9d 8b        	andi	a5, a5, 0x7
   16978: a5 eb        	bnez	a5, 0x169e8 <strncmp+0x78>
   1697a: 9d 47        	li	a5, 0x7
   1697c: 63 f6 c7 06  	bgeu	a5, a2, 0x169e8 <strncmp+0x78>
   16980: b7 16 10 f0  	lui	a3, 0xf0101
   16984: 37 08 ff fe  	lui	a6, 0xfeff0
   16988: 92 06        	slli	a3, a3, 0x4
   1698a: 13 08 f8 ef  	addi	a6, a6, -0x101
   1698e: 93 86 16 10  	addi	a3, a3, 0x101
   16992: 42 08        	slli	a6, a6, 0x10
   16994: c2 06        	slli	a3, a3, 0x10
   16996: 13 08 f8 ef  	addi	a6, a6, -0x101
   1699a: 93 86 16 10  	addi	a3, a3, 0x101
   1699e: 42 08        	slli	a6, a6, 0x10
   169a0: be 06        	slli	a3, a3, 0xf
   169a2: 13 08 f8 ef  	addi	a6, a6, -0x101
   169a6: 93 86 06 08  	addi	a3, a3, 0x80
   169aa: 1d 4e        	li	t3, 0x7
   169ac: 01 a8        	j	0x169bc <strncmp+0x4c>
   169ae: 61 16        	addi	a2, a2, -0x8
   169b0: 2d c6        	beqz	a2, 0x16a1a <strncmp+0xaa>
   169b2: a5 e7        	bnez	a5, 0x16a1a <strncmp+0xaa>
   169b4: 21 05        	addi	a0, a0, 0x8
   169b6: a1 05        	addi	a1, a1, 0x8
   169b8: 63 78 ce 02  	bgeu	t3, a2, 0x169e8 <strncmp+0x78>
   169bc: 18 61        	ld	a4, 0x0(a0)
   169be: 83 b8 05 00  	ld	a7, 0x0(a1)
   169c2: b3 07 07 01  	add	a5, a4, a6
   169c6: 13 43 f7 ff  	not	t1, a4
   169ca: b3 f7 67 00  	and	a5, a5, t1
   169ce: f5 8f        	and	a5, a5, a3
   169d0: e3 0f 17 fd  	beq	a4, a7, 0x169ae <strncmp+0x3e>
   169d4: 03 47 05 00  	lbu	a4, 0x0(a0)
   169d8: 83 c6 05 00  	lbu	a3, 0x0(a1)
   169dc: 2a 88        	mv	a6, a0
   169de: 63 07 d7 02  	beq	a4, a3, 0x16a0c <strncmp+0x9c>
   169e2: 3b 05 d7 40  	subw	a0, a4, a3
   169e6: 82 80        	ret
   169e8: 03 47 05 00  	lbu	a4, 0x0(a0)
   169ec: 83 c6 05 00  	lbu	a3, 0x0(a1)
   169f0: e3 19 d7 fe  	bne	a4, a3, 0x169e2 <strncmp+0x72>
   169f4: 85 47        	li	a5, 0x1
   169f6: 63 02 f6 02  	beq	a2, a5, 0x16a1a <strncmp+0xaa>
   169fa: 2a 88        	mv	a6, a0
   169fc: 01 a8        	j	0x16a0c <strncmp+0x9c>
   169fe: 03 47 05 00  	lbu	a4, 0x0(a0)
   16a02: 83 c6 05 00  	lbu	a3, 0x0(a1)
   16a06: e3 1e d7 fc  	bne	a4, a3, 0x169e2 <strncmp+0x72>
   16a0a: 81 cb        	beqz	a5, 0x16a1a <strncmp+0xaa>
   16a0c: 05 05        	addi	a0, a0, 0x1
   16a0e: b3 07 a6 40  	sub	a5, a2, a0
   16a12: fd 17        	addi	a5, a5, -0x1
   16a14: 85 05        	addi	a1, a1, 0x1
   16a16: c2 97        	add	a5, a5, a6
   16a18: 7d f3        	bnez	a4, 0x169fe <strncmp+0x8e>
   16a1a: 01 45        	li	a0, 0x0
   16a1c: 82 80        	ret

0000000000016a1e <_setlocale_r>:
   16a1e: 01 11        	addi	sp, sp, -0x20
   16a20: 06 ec        	sd	ra, 0x18(sp)
   16a22: 26 e4        	sd	s1, 0x8(sp)
   16a24: 05 c6        	beqz	a2, 0x16a4c <_setlocale_r+0x2e>
   16a26: b7 05 02 00  	lui	a1, 0x20
   16a2a: 93 85 05 a5  	addi	a1, a1, -0x5b0
   16a2e: 32 85        	mv	a0, a2
   16a30: 22 e8        	sd	s0, 0x10(sp)
   16a32: 32 84        	mv	s0, a2
   16a34: ef 00 00 5b  	jal	0x16fe4 <strcmp>
   16a38: b7 04 02 00  	lui	s1, 0x20
   16a3c: 19 e9        	bnez	a0, 0x16a52 <_setlocale_r+0x34>
   16a3e: 42 64        	ld	s0, 0x10(sp)
   16a40: 13 85 84 a4  	addi	a0, s1, -0x5b8
   16a44: e2 60        	ld	ra, 0x18(sp)
   16a46: a2 64        	ld	s1, 0x8(sp)
   16a48: 05 61        	addi	sp, sp, 0x20
   16a4a: 82 80        	ret
   16a4c: b7 04 02 00  	lui	s1, 0x20
   16a50: c5 bf        	j	0x16a40 <_setlocale_r+0x22>
   16a52: 93 85 84 a4  	addi	a1, s1, -0x5b8
   16a56: 22 85        	mv	a0, s0
   16a58: ef 00 c0 58  	jal	0x16fe4 <strcmp>
   16a5c: 6d d1        	beqz	a0, 0x16a3e <_setlocale_r+0x20>
   16a5e: b7 05 02 00  	lui	a1, 0x20
   16a62: 93 85 05 b8  	addi	a1, a1, -0x480
   16a66: 22 85        	mv	a0, s0
   16a68: ef 00 c0 57  	jal	0x16fe4 <strcmp>
   16a6c: 69 d9        	beqz	a0, 0x16a3e <_setlocale_r+0x20>
   16a6e: 42 64        	ld	s0, 0x10(sp)
   16a70: 01 45        	li	a0, 0x0
   16a72: c9 bf        	j	0x16a44 <_setlocale_r+0x26>

0000000000016a74 <__locale_mb_cur_max>:
   16a74: 03 c5 01 ee  	lbu	a0, -0x120(gp)
   16a78: 82 80        	ret

0000000000016a7a <setlocale>:
   16a7a: 01 11        	addi	sp, sp, -0x20
   16a7c: 06 ec        	sd	ra, 0x18(sp)
   16a7e: 26 e4        	sd	s1, 0x8(sp)
   16a80: 85 c5        	beqz	a1, 0x16aa8 <setlocale+0x2e>
   16a82: 22 e8        	sd	s0, 0x10(sp)
   16a84: 2e 84        	mv	s0, a1
   16a86: b7 05 02 00  	lui	a1, 0x20
   16a8a: 93 85 05 a5  	addi	a1, a1, -0x5b0
   16a8e: 22 85        	mv	a0, s0
   16a90: ef 00 40 55  	jal	0x16fe4 <strcmp>
   16a94: b7 04 02 00  	lui	s1, 0x20
   16a98: 19 e9        	bnez	a0, 0x16aae <setlocale+0x34>
   16a9a: 42 64        	ld	s0, 0x10(sp)
   16a9c: 13 85 84 a4  	addi	a0, s1, -0x5b8
   16aa0: e2 60        	ld	ra, 0x18(sp)
   16aa2: a2 64        	ld	s1, 0x8(sp)
   16aa4: 05 61        	addi	sp, sp, 0x20
   16aa6: 82 80        	ret
   16aa8: b7 04 02 00  	lui	s1, 0x20
   16aac: c5 bf        	j	0x16a9c <setlocale+0x22>
   16aae: 93 85 84 a4  	addi	a1, s1, -0x5b8
   16ab2: 22 85        	mv	a0, s0
   16ab4: ef 00 00 53  	jal	0x16fe4 <strcmp>
   16ab8: 6d d1        	beqz	a0, 0x16a9a <setlocale+0x20>
   16aba: b7 05 02 00  	lui	a1, 0x20
   16abe: 93 85 05 b8  	addi	a1, a1, -0x480
   16ac2: 22 85        	mv	a0, s0
   16ac4: ef 00 00 52  	jal	0x16fe4 <strcmp>
   16ac8: 69 d9        	beqz	a0, 0x16a9a <setlocale+0x20>
   16aca: 42 64        	ld	s0, 0x10(sp)
   16acc: 01 45        	li	a0, 0x0
   16ace: c9 bf        	j	0x16aa0 <setlocale+0x26>

0000000000016ad0 <_close_r>:
   16ad0: 01 11        	addi	sp, sp, -0x20
   16ad2: 22 e8        	sd	s0, 0x10(sp)
   16ad4: 26 e4        	sd	s1, 0x8(sp)
   16ad6: 2a 84        	mv	s0, a0
   16ad8: 2e 85        	mv	a0, a1
   16ada: 06 ec        	sd	ra, 0x18(sp)
   16adc: 23 a0 01 26  	sw	zero, 0x260(gp)
   16ae0: ef 70 c0 49  	jal	0x1df7c <_close>
   16ae4: fd 57        	li	a5, -0x1
   16ae6: 63 07 f5 00  	beq	a0, a5, 0x16af4 <_close_r+0x24>
   16aea: e2 60        	ld	ra, 0x18(sp)
   16aec: 42 64        	ld	s0, 0x10(sp)
   16aee: a2 64        	ld	s1, 0x8(sp)
   16af0: 05 61        	addi	sp, sp, 0x20
   16af2: 82 80        	ret
   16af4: 83 a7 01 26  	lw	a5, 0x260(gp)
   16af8: ed db        	beqz	a5, 0x16aea <_close_r+0x1a>
   16afa: e2 60        	ld	ra, 0x18(sp)
   16afc: 1c c0        	sw	a5, 0x0(s0)
   16afe: 42 64        	ld	s0, 0x10(sp)
   16b00: a2 64        	ld	s1, 0x8(sp)
   16b02: 05 61        	addi	sp, sp, 0x20
   16b04: 82 80        	ret

0000000000016b06 <_reclaim_reent>:
   16b06: 83 b7 01 23  	ld	a5, 0x230(gp)
   16b0a: 63 87 a7 06  	beq	a5, a0, 0x16b78 <_reclaim_reent+0x72>
   16b0e: 2c 75        	ld	a1, 0x68(a0)
   16b10: 79 71        	addi	sp, sp, -0x30
   16b12: 26 ec        	sd	s1, 0x18(sp)
   16b14: 06 f4        	sd	ra, 0x28(sp)
   16b16: aa 84        	mv	s1, a0
   16b18: 9d c9        	beqz	a1, 0x16b4e <_reclaim_reent+0x48>
   16b1a: 4a e8        	sd	s2, 0x10(sp)
   16b1c: 4e e4        	sd	s3, 0x8(sp)
   16b1e: 22 f0        	sd	s0, 0x20(sp)
   16b20: 01 49        	li	s2, 0x0
   16b22: 93 09 00 20  	li	s3, 0x200
   16b26: b3 87 25 01  	add	a5, a1, s2
   16b2a: 80 63        	ld	s0, 0x0(a5)
   16b2c: 01 c8        	beqz	s0, 0x16b3c <_reclaim_reent+0x36>
   16b2e: a2 85        	mv	a1, s0
   16b30: 00 60        	ld	s0, 0x0(s0)
   16b32: 26 85        	mv	a0, s1
   16b34: ef 00 40 75  	jal	0x17288 <_free_r>
   16b38: 7d f8        	bnez	s0, 0x16b2e <_reclaim_reent+0x28>
   16b3a: ac 74        	ld	a1, 0x68(s1)
   16b3c: 21 09        	addi	s2, s2, 0x8
   16b3e: e3 14 39 ff  	bne	s2, s3, 0x16b26 <_reclaim_reent+0x20>
   16b42: 26 85        	mv	a0, s1
   16b44: ef 00 40 74  	jal	0x17288 <_free_r>
   16b48: 02 74        	ld	s0, 0x20(sp)
   16b4a: 42 69        	ld	s2, 0x10(sp)
   16b4c: a2 69        	ld	s3, 0x8(sp)
   16b4e: ac 68        	ld	a1, 0x50(s1)
   16b50: 81 c5        	beqz	a1, 0x16b58 <_reclaim_reent+0x52>
   16b52: 26 85        	mv	a0, s1
   16b54: ef 00 40 73  	jal	0x17288 <_free_r>
   16b58: ac 7c        	ld	a1, 0x78(s1)
   16b5a: 81 c5        	beqz	a1, 0x16b62 <_reclaim_reent+0x5c>
   16b5c: 26 85        	mv	a0, s1
   16b5e: ef 00 a0 72  	jal	0x17288 <_free_r>
   16b62: bc 64        	ld	a5, 0x48(s1)
   16b64: 91 c7        	beqz	a5, 0x16b70 <_reclaim_reent+0x6a>
   16b66: a2 70        	ld	ra, 0x28(sp)
   16b68: 26 85        	mv	a0, s1
   16b6a: e2 64        	ld	s1, 0x18(sp)
   16b6c: 45 61        	addi	sp, sp, 0x30
   16b6e: 82 87        	jr	a5
   16b70: a2 70        	ld	ra, 0x28(sp)
   16b72: e2 64        	ld	s1, 0x18(sp)
   16b74: 45 61        	addi	sp, sp, 0x30
   16b76: 82 80        	ret
   16b78: 82 80        	ret

0000000000016b7a <_fstat_r>:
   16b7a: 01 11        	addi	sp, sp, -0x20
   16b7c: 2e 87        	mv	a4, a1
   16b7e: 22 e8        	sd	s0, 0x10(sp)
   16b80: 26 e4        	sd	s1, 0x8(sp)
   16b82: 2a 84        	mv	s0, a0
   16b84: b2 85        	mv	a1, a2
   16b86: 3a 85        	mv	a0, a4
   16b88: 06 ec        	sd	ra, 0x18(sp)
   16b8a: 23 a0 01 26  	sw	zero, 0x260(gp)
   16b8e: ef 70 c0 43  	jal	0x1dfca <_fstat>
   16b92: fd 57        	li	a5, -0x1
   16b94: 63 07 f5 00  	beq	a0, a5, 0x16ba2 <_fstat_r+0x28>
   16b98: e2 60        	ld	ra, 0x18(sp)
   16b9a: 42 64        	ld	s0, 0x10(sp)
   16b9c: a2 64        	ld	s1, 0x8(sp)
   16b9e: 05 61        	addi	sp, sp, 0x20
   16ba0: 82 80        	ret
   16ba2: 83 a7 01 26  	lw	a5, 0x260(gp)
   16ba6: ed db        	beqz	a5, 0x16b98 <_fstat_r+0x1e>
   16ba8: e2 60        	ld	ra, 0x18(sp)
   16baa: 1c c0        	sw	a5, 0x0(s0)
   16bac: 42 64        	ld	s0, 0x10(sp)
   16bae: a2 64        	ld	s1, 0x8(sp)
   16bb0: 05 61        	addi	sp, sp, 0x20
   16bb2: 82 80        	ret

0000000000016bb4 <_lseek_r>:
   16bb4: 01 11        	addi	sp, sp, -0x20
   16bb6: 2e 87        	mv	a4, a1
   16bb8: 22 e8        	sd	s0, 0x10(sp)
   16bba: 26 e4        	sd	s1, 0x8(sp)
   16bbc: b2 85        	mv	a1, a2
   16bbe: 2a 84        	mv	s0, a0
   16bc0: 36 86        	mv	a2, a3
   16bc2: 3a 85        	mv	a0, a4
   16bc4: 06 ec        	sd	ra, 0x18(sp)
   16bc6: 23 a0 01 26  	sw	zero, 0x260(gp)
   16bca: ef 70 e0 47  	jal	0x1e048 <_lseek>
   16bce: fd 57        	li	a5, -0x1
   16bd0: 63 07 f5 00  	beq	a0, a5, 0x16bde <_lseek_r+0x2a>
   16bd4: e2 60        	ld	ra, 0x18(sp)
   16bd6: 42 64        	ld	s0, 0x10(sp)
   16bd8: a2 64        	ld	s1, 0x8(sp)
   16bda: 05 61        	addi	sp, sp, 0x20
   16bdc: 82 80        	ret
   16bde: 83 a7 01 26  	lw	a5, 0x260(gp)
   16be2: ed db        	beqz	a5, 0x16bd4 <_lseek_r+0x20>
   16be4: e2 60        	ld	ra, 0x18(sp)
   16be6: 1c c0        	sw	a5, 0x0(s0)
   16be8: 42 64        	ld	s0, 0x10(sp)
   16bea: a2 64        	ld	s1, 0x8(sp)
   16bec: 05 61        	addi	sp, sp, 0x20
   16bee: 82 80        	ret

0000000000016bf0 <_open_r>:
   16bf0: 01 11        	addi	sp, sp, -0x20
   16bf2: 2e 87        	mv	a4, a1
   16bf4: 22 e8        	sd	s0, 0x10(sp)
   16bf6: 26 e4        	sd	s1, 0x8(sp)
   16bf8: b2 85        	mv	a1, a2
   16bfa: 2a 84        	mv	s0, a0
   16bfc: 36 86        	mv	a2, a3
   16bfe: 3a 85        	mv	a0, a4
   16c00: 06 ec        	sd	ra, 0x18(sp)
   16c02: 23 a0 01 26  	sw	zero, 0x260(gp)
   16c06: ef 70 e0 46  	jal	0x1e074 <_open>
   16c0a: fd 57        	li	a5, -0x1
   16c0c: 63 07 f5 00  	beq	a0, a5, 0x16c1a <_open_r+0x2a>
   16c10: e2 60        	ld	ra, 0x18(sp)
   16c12: 42 64        	ld	s0, 0x10(sp)
   16c14: a2 64        	ld	s1, 0x8(sp)
   16c16: 05 61        	addi	sp, sp, 0x20
   16c18: 82 80        	ret
   16c1a: 83 a7 01 26  	lw	a5, 0x260(gp)
   16c1e: ed db        	beqz	a5, 0x16c10 <_open_r+0x20>
   16c20: e2 60        	ld	ra, 0x18(sp)
   16c22: 1c c0        	sw	a5, 0x0(s0)
   16c24: 42 64        	ld	s0, 0x10(sp)
   16c26: a2 64        	ld	s1, 0x8(sp)
   16c28: 05 61        	addi	sp, sp, 0x20
   16c2a: 82 80        	ret

0000000000016c2c <_read_r>:
   16c2c: 01 11        	addi	sp, sp, -0x20
   16c2e: 2e 87        	mv	a4, a1
   16c30: 22 e8        	sd	s0, 0x10(sp)
   16c32: 26 e4        	sd	s1, 0x8(sp)
   16c34: b2 85        	mv	a1, a2
   16c36: 2a 84        	mv	s0, a0
   16c38: 36 86        	mv	a2, a3
   16c3a: 3a 85        	mv	a0, a4
   16c3c: 06 ec        	sd	ra, 0x18(sp)
   16c3e: 23 a0 01 26  	sw	zero, 0x260(gp)
   16c42: ef 70 e0 45  	jal	0x1e0a0 <_read>
   16c46: fd 57        	li	a5, -0x1
   16c48: 63 07 f5 00  	beq	a0, a5, 0x16c56 <_read_r+0x2a>
   16c4c: e2 60        	ld	ra, 0x18(sp)
   16c4e: 42 64        	ld	s0, 0x10(sp)
   16c50: a2 64        	ld	s1, 0x8(sp)
   16c52: 05 61        	addi	sp, sp, 0x20
   16c54: 82 80        	ret
   16c56: 83 a7 01 26  	lw	a5, 0x260(gp)
   16c5a: ed db        	beqz	a5, 0x16c4c <_read_r+0x20>
   16c5c: e2 60        	ld	ra, 0x18(sp)
   16c5e: 1c c0        	sw	a5, 0x0(s0)
   16c60: 42 64        	ld	s0, 0x10(sp)
   16c62: a2 64        	ld	s1, 0x8(sp)
   16c64: 05 61        	addi	sp, sp, 0x20
   16c66: 82 80        	ret

0000000000016c68 <_sbrk_r>:
   16c68: 01 11        	addi	sp, sp, -0x20
   16c6a: 22 e8        	sd	s0, 0x10(sp)
   16c6c: 26 e4        	sd	s1, 0x8(sp)
   16c6e: 2a 84        	mv	s0, a0
   16c70: 2e 85        	mv	a0, a1
   16c72: 06 ec        	sd	ra, 0x18(sp)
   16c74: 23 a0 01 26  	sw	zero, 0x260(gp)
   16c78: ef 70 40 45  	jal	0x1e0cc <_sbrk>
   16c7c: fd 57        	li	a5, -0x1
   16c7e: 63 07 f5 00  	beq	a0, a5, 0x16c8c <_sbrk_r+0x24>
   16c82: e2 60        	ld	ra, 0x18(sp)
   16c84: 42 64        	ld	s0, 0x10(sp)
   16c86: a2 64        	ld	s1, 0x8(sp)
   16c88: 05 61        	addi	sp, sp, 0x20
   16c8a: 82 80        	ret
   16c8c: 83 a7 01 26  	lw	a5, 0x260(gp)
   16c90: ed db        	beqz	a5, 0x16c82 <_sbrk_r+0x1a>
   16c92: e2 60        	ld	ra, 0x18(sp)
   16c94: 1c c0        	sw	a5, 0x0(s0)
   16c96: 42 64        	ld	s0, 0x10(sp)
   16c98: a2 64        	ld	s1, 0x8(sp)
   16c9a: 05 61        	addi	sp, sp, 0x20
   16c9c: 82 80        	ret

0000000000016c9e <_write_r>:
   16c9e: 01 11        	addi	sp, sp, -0x20
   16ca0: 2e 87        	mv	a4, a1
   16ca2: 22 e8        	sd	s0, 0x10(sp)
   16ca4: 26 e4        	sd	s1, 0x8(sp)
   16ca6: b2 85        	mv	a1, a2
   16ca8: 2a 84        	mv	s0, a0
   16caa: 36 86        	mv	a2, a3
   16cac: 3a 85        	mv	a0, a4
   16cae: 06 ec        	sd	ra, 0x18(sp)
   16cb0: 23 a0 01 26  	sw	zero, 0x260(gp)
   16cb4: ef 70 c0 46  	jal	0x1e120 <_write>
   16cb8: fd 57        	li	a5, -0x1
   16cba: 63 07 f5 00  	beq	a0, a5, 0x16cc8 <_write_r+0x2a>
   16cbe: e2 60        	ld	ra, 0x18(sp)
   16cc0: 42 64        	ld	s0, 0x10(sp)
   16cc2: a2 64        	ld	s1, 0x8(sp)
   16cc4: 05 61        	addi	sp, sp, 0x20
   16cc6: 82 80        	ret
   16cc8: 83 a7 01 26  	lw	a5, 0x260(gp)
   16ccc: ed db        	beqz	a5, 0x16cbe <_write_r+0x20>
   16cce: e2 60        	ld	ra, 0x18(sp)
   16cd0: 1c c0        	sw	a5, 0x0(s0)
   16cd2: 42 64        	ld	s0, 0x10(sp)
   16cd4: a2 64        	ld	s1, 0x8(sp)
   16cd6: 05 61        	addi	sp, sp, 0x20
   16cd8: 82 80        	ret

0000000000016cda <__errno>:
   16cda: 03 b5 01 23  	ld	a0, 0x230(gp)
   16cde: 82 80        	ret

0000000000016ce0 <__libc_init_array>:
   16ce0: 01 11        	addi	sp, sp, -0x20
   16ce2: 22 e8        	sd	s0, 0x10(sp)
   16ce4: b7 17 02 00  	lui	a5, 0x21
   16ce8: 37 14 02 00  	lui	s0, 0x21
   16cec: 4a e0        	sd	s2, 0x0(sp)
   16cee: 93 87 47 7d  	addi	a5, a5, 0x7d4
   16cf2: 13 07 44 7d  	addi	a4, s0, 0x7d4
   16cf6: 06 ec        	sd	ra, 0x18(sp)
   16cf8: 26 e4        	sd	s1, 0x8(sp)
   16cfa: 33 89 e7 40  	sub	s2, a5, a4
   16cfe: 63 8d e7 00  	beq	a5, a4, 0x16d18 <__libc_init_array+0x38>
   16d02: 13 59 39 40  	srai	s2, s2, 0x3
   16d06: 13 04 44 7d  	addi	s0, s0, 0x7d4
   16d0a: 81 44        	li	s1, 0x0
   16d0c: 1c 60        	ld	a5, 0x0(s0)
   16d0e: 85 04        	addi	s1, s1, 0x1
   16d10: 21 04        	addi	s0, s0, 0x8
   16d12: 82 97        	jalr	a5
   16d14: e3 ec 24 ff  	bltu	s1, s2, 0x16d0c <__libc_init_array+0x2c>
   16d18: 37 14 02 00  	lui	s0, 0x21
   16d1c: b7 17 02 00  	lui	a5, 0x21
   16d20: 93 87 87 7e  	addi	a5, a5, 0x7e8
   16d24: 13 07 84 7d  	addi	a4, s0, 0x7d8
   16d28: 33 89 e7 40  	sub	s2, a5, a4
   16d2c: 13 59 39 40  	srai	s2, s2, 0x3
   16d30: 63 8b e7 00  	beq	a5, a4, 0x16d46 <__libc_init_array+0x66>
   16d34: 13 04 84 7d  	addi	s0, s0, 0x7d8
   16d38: 81 44        	li	s1, 0x0
   16d3a: 1c 60        	ld	a5, 0x0(s0)
   16d3c: 85 04        	addi	s1, s1, 0x1
   16d3e: 21 04        	addi	s0, s0, 0x8
   16d40: 82 97        	jalr	a5
   16d42: e3 ec 24 ff  	bltu	s1, s2, 0x16d3a <__libc_init_array+0x5a>
   16d46: e2 60        	ld	ra, 0x18(sp)
   16d48: 42 64        	ld	s0, 0x10(sp)
   16d4a: a2 64        	ld	s1, 0x8(sp)
   16d4c: 02 69        	ld	s2, 0x0(sp)
   16d4e: 05 61        	addi	sp, sp, 0x20
   16d50: 82 80        	ret

0000000000016d52 <memset>:
   16d52: 3d 43        	li	t1, 0xf
   16d54: 2a 87        	mv	a4, a0
   16d56: 63 71 c3 02  	bgeu	t1, a2, 0x16d78 <memset+0x26>
   16d5a: 93 77 f7 00  	andi	a5, a4, 0xf
   16d5e: c1 e3        	bnez	a5, 0x16dde <memset+0x8c>
   16d60: bd e1        	bnez	a1, 0x16dc6 <memset+0x74>
   16d62: 93 76 06 ff  	andi	a3, a2, -0x10
   16d66: 3d 8a        	andi	a2, a2, 0xf
   16d68: ba 96        	add	a3, a3, a4
   16d6a: 0c e3        	sd	a1, 0x0(a4)
   16d6c: 0c e7        	sd	a1, 0x8(a4)
   16d6e: 41 07        	addi	a4, a4, 0x10
   16d70: e3 6d d7 fe  	bltu	a4, a3, 0x16d6a <memset+0x18>
   16d74: 11 e2        	bnez	a2, 0x16d78 <memset+0x26>
   16d76: 82 80        	ret
   16d78: b3 06 c3 40  	sub	a3, t1, a2
   16d7c: 8a 06        	slli	a3, a3, 0x2
   16d7e: 97 02 00 00  	auipc	t0, 0x0
   16d82: 96 96        	add	a3, a3, t0
   16d84: 67 80 a6 00  	jr	0xa(a3)
   16d88: 23 07 b7 00  	sb	a1, 0xe(a4)
   16d8c: a3 06 b7 00  	sb	a1, 0xd(a4)
   16d90: 23 06 b7 00  	sb	a1, 0xc(a4)
   16d94: a3 05 b7 00  	sb	a1, 0xb(a4)
   16d98: 23 05 b7 00  	sb	a1, 0xa(a4)
   16d9c: a3 04 b7 00  	sb	a1, 0x9(a4)
   16da0: 23 04 b7 00  	sb	a1, 0x8(a4)
   16da4: a3 03 b7 00  	sb	a1, 0x7(a4)
   16da8: 23 03 b7 00  	sb	a1, 0x6(a4)
   16dac: a3 02 b7 00  	sb	a1, 0x5(a4)
   16db0: 23 02 b7 00  	sb	a1, 0x4(a4)
   16db4: a3 01 b7 00  	sb	a1, 0x3(a4)
   16db8: 23 01 b7 00  	sb	a1, 0x2(a4)
   16dbc: a3 00 b7 00  	sb	a1, 0x1(a4)
   16dc0: 23 00 b7 00  	sb	a1, 0x0(a4)
   16dc4: 82 80        	ret
   16dc6: 93 f5 f5 0f  	andi	a1, a1, 0xff
   16dca: 93 96 85 00  	slli	a3, a1, 0x8
   16dce: d5 8d        	or	a1, a1, a3
   16dd0: 93 96 05 01  	slli	a3, a1, 0x10
   16dd4: d5 8d        	or	a1, a1, a3
   16dd6: 93 96 05 02  	slli	a3, a1, 0x20
   16dda: d5 8d        	or	a1, a1, a3
   16ddc: 59 b7        	j	0x16d62 <memset+0x10>
   16dde: 93 96 27 00  	slli	a3, a5, 0x2
   16de2: 97 02 00 00  	auipc	t0, 0x0
   16de6: 96 96        	add	a3, a3, t0
   16de8: 86 82        	mv	t0, ra
   16dea: e7 80 26 fa  	jalr	-0x5e(a3)
   16dee: 96 80        	mv	ra, t0
   16df0: c1 17        	addi	a5, a5, -0x10
   16df2: 1d 8f        	sub	a4, a4, a5
   16df4: 3e 96        	add	a2, a2, a5
   16df6: e3 71 c3 f8  	bgeu	t1, a2, 0x16d78 <memset+0x26>
   16dfa: 9d b7        	j	0x16d60 <memset+0xe>

0000000000016dfc <memcpy>:
   16dfc: b3 c7 a5 00  	xor	a5, a1, a0
   16e00: 9d 8b        	andi	a5, a5, 0x7
   16e02: b3 08 c5 00  	add	a7, a0, a2
   16e06: b1 e7        	bnez	a5, 0x16e52 <memcpy+0x56>
   16e08: 9d 47        	li	a5, 0x7
   16e0a: 63 f4 c7 04  	bgeu	a5, a2, 0x16e52 <memcpy+0x56>
   16e0e: 93 77 75 00  	andi	a5, a0, 0x7
   16e12: 2a 87        	mv	a4, a0
   16e14: b9 eb        	bnez	a5, 0x16e6a <memcpy+0x6e>
   16e16: 13 f6 88 ff  	andi	a2, a7, -0x8
   16e1a: b3 06 e6 40  	sub	a3, a2, a4
   16e1e: 93 07 00 04  	li	a5, 0x40
   16e22: 63 c8 d7 06  	blt	a5, a3, 0x16e92 <memcpy+0x96>
   16e26: ae 86        	mv	a3, a1
   16e28: ba 87        	mv	a5, a4
   16e2a: 63 71 c7 02  	bgeu	a4, a2, 0x16e4c <memcpy+0x50>
   16e2e: 03 b8 06 00  	ld	a6, 0x0(a3)
   16e32: a1 07        	addi	a5, a5, 0x8
   16e34: a1 06        	addi	a3, a3, 0x8
   16e36: 23 bc 07 ff  	sd	a6, -0x8(a5)
   16e3a: e3 ea c7 fe  	bltu	a5, a2, 0x16e2e <memcpy+0x32>
   16e3e: 93 07 f6 ff  	addi	a5, a2, -0x1
   16e42: 99 8f        	sub	a5, a5, a4
   16e44: e1 9b        	andi	a5, a5, -0x8
   16e46: a1 07        	addi	a5, a5, 0x8
   16e48: 3e 97        	add	a4, a4, a5
   16e4a: be 95        	add	a1, a1, a5
   16e4c: 63 66 17 01  	bltu	a4, a7, 0x16e58 <memcpy+0x5c>
   16e50: 82 80        	ret
   16e52: 2a 87        	mv	a4, a0
   16e54: 63 7e 15 03  	bgeu	a0, a7, 0x16e90 <memcpy+0x94>
   16e58: 83 c7 05 00  	lbu	a5, 0x0(a1)
   16e5c: 05 07        	addi	a4, a4, 0x1
   16e5e: 85 05        	addi	a1, a1, 0x1
   16e60: a3 0f f7 fe  	sb	a5, -0x1(a4)
   16e64: e3 9a e8 fe  	bne	a7, a4, 0x16e58 <memcpy+0x5c>
   16e68: 82 80        	ret
   16e6a: 83 c6 05 00  	lbu	a3, 0x0(a1)
   16e6e: 05 07        	addi	a4, a4, 0x1
   16e70: 93 77 77 00  	andi	a5, a4, 0x7
   16e74: a3 0f d7 fe  	sb	a3, -0x1(a4)
   16e78: 85 05        	addi	a1, a1, 0x1
   16e7a: d1 df        	beqz	a5, 0x16e16 <memcpy+0x1a>
   16e7c: 83 c6 05 00  	lbu	a3, 0x0(a1)
   16e80: 05 07        	addi	a4, a4, 0x1
   16e82: 93 77 77 00  	andi	a5, a4, 0x7
   16e86: a3 0f d7 fe  	sb	a3, -0x1(a4)
   16e8a: 85 05        	addi	a1, a1, 0x1
   16e8c: f9 ff        	bnez	a5, 0x16e6a <memcpy+0x6e>
   16e8e: 61 b7        	j	0x16e16 <memcpy+0x1a>
   16e90: 82 80        	ret
   16e92: 41 11        	addi	sp, sp, -0x10
   16e94: 22 e4        	sd	s0, 0x8(sp)
   16e96: 13 04 00 04  	li	s0, 0x40
   16e9a: 83 b3 05 00  	ld	t2, 0x0(a1)
   16e9e: 83 b2 85 00  	ld	t0, 0x8(a1)
   16ea2: 83 bf 05 01  	ld	t6, 0x10(a1)
   16ea6: 03 bf 85 01  	ld	t5, 0x18(a1)
   16eaa: 83 be 05 02  	ld	t4, 0x20(a1)
   16eae: 03 be 85 02  	ld	t3, 0x28(a1)
   16eb2: 03 b3 05 03  	ld	t1, 0x30(a1)
   16eb6: 03 b8 85 03  	ld	a6, 0x38(a1)
   16eba: b4 61        	ld	a3, 0x40(a1)
   16ebc: 13 07 87 04  	addi	a4, a4, 0x48
   16ec0: b3 07 e6 40  	sub	a5, a2, a4
   16ec4: 23 3c 77 fa  	sd	t2, -0x48(a4)
   16ec8: 23 30 57 fc  	sd	t0, -0x40(a4)
   16ecc: 23 34 f7 fd  	sd	t6, -0x38(a4)
   16ed0: 23 38 e7 fd  	sd	t5, -0x30(a4)
   16ed4: 23 3c d7 fd  	sd	t4, -0x28(a4)
   16ed8: 23 30 c7 ff  	sd	t3, -0x20(a4)
   16edc: 23 34 67 fe  	sd	t1, -0x18(a4)
   16ee0: 23 38 07 ff  	sd	a6, -0x10(a4)
   16ee4: 23 3c d7 fe  	sd	a3, -0x8(a4)
   16ee8: 93 85 85 04  	addi	a1, a1, 0x48
   16eec: e3 47 f4 fa  	blt	s0, a5, 0x16e9a <memcpy+0x9e>
   16ef0: ae 86        	mv	a3, a1
   16ef2: ba 87        	mv	a5, a4
   16ef4: 63 71 c7 02  	bgeu	a4, a2, 0x16f16 <memcpy+0x11a>
   16ef8: 03 b8 06 00  	ld	a6, 0x0(a3)
   16efc: a1 07        	addi	a5, a5, 0x8
   16efe: a1 06        	addi	a3, a3, 0x8
   16f00: 23 bc 07 ff  	sd	a6, -0x8(a5)
   16f04: e3 ea c7 fe  	bltu	a5, a2, 0x16ef8 <memcpy+0xfc>
   16f08: 93 07 f6 ff  	addi	a5, a2, -0x1
   16f0c: 99 8f        	sub	a5, a5, a4
   16f0e: e1 9b        	andi	a5, a5, -0x8
   16f10: a1 07        	addi	a5, a5, 0x8
   16f12: 3e 97        	add	a4, a4, a5
   16f14: be 95        	add	a1, a1, a5
   16f16: 63 65 17 01  	bltu	a4, a7, 0x16f20 <memcpy+0x124>
   16f1a: 22 64        	ld	s0, 0x8(sp)
   16f1c: 41 01        	addi	sp, sp, 0x10
   16f1e: 82 80        	ret
   16f20: 83 c7 05 00  	lbu	a5, 0x0(a1)
   16f24: 05 07        	addi	a4, a4, 0x1
   16f26: 85 05        	addi	a1, a1, 0x1
   16f28: a3 0f f7 fe  	sb	a5, -0x1(a4)
   16f2c: e3 87 e8 fe  	beq	a7, a4, 0x16f1a <memcpy+0x11e>
   16f30: 83 c7 05 00  	lbu	a5, 0x0(a1)
   16f34: 05 07        	addi	a4, a4, 0x1
   16f36: 85 05        	addi	a1, a1, 0x1
   16f38: a3 0f f7 fe  	sb	a5, -0x1(a4)
   16f3c: e3 92 e8 fe  	bne	a7, a4, 0x16f20 <memcpy+0x124>
   16f40: e9 bf        	j	0x16f1a <memcpy+0x11e>

0000000000016f42 <strlen>:
   16f42: 93 77 75 00  	andi	a5, a0, 0x7
   16f46: 2a 87        	mv	a4, a0
   16f48: b5 e3        	bnez	a5, 0x16fac <strlen+0x6a>
   16f4a: b7 f6 ef 0f  	lui	a3, 0xfeff
   16f4e: 92 06        	slli	a3, a3, 0x4
   16f50: 93 86 f6 ef  	addi	a3, a3, -0x101
   16f54: c2 06        	slli	a3, a3, 0x10
   16f56: 93 86 f6 ef  	addi	a3, a3, -0x101
   16f5a: be 06        	slli	a3, a3, 0xf
   16f5c: 93 86 f6 f7  	addi	a3, a3, -0x81
   16f60: fd 55        	li	a1, -0x1
   16f62: 10 63        	ld	a2, 0x0(a4)
   16f64: 21 07        	addi	a4, a4, 0x8
   16f66: b3 77 d6 00  	and	a5, a2, a3
   16f6a: b6 97        	add	a5, a5, a3
   16f6c: d1 8f        	or	a5, a5, a2
   16f6e: d5 8f        	or	a5, a5, a3
   16f70: e3 89 b7 fe  	beq	a5, a1, 0x16f62 <strlen+0x20>
   16f74: 83 46 87 ff  	lbu	a3, -0x8(a4)
   16f78: b3 07 a7 40  	sub	a5, a4, a0
   16f7c: a9 c6        	beqz	a3, 0x16fc6 <strlen+0x84>
   16f7e: 83 46 97 ff  	lbu	a3, -0x7(a4)
   16f82: 9d ce        	beqz	a3, 0x16fc0 <strlen+0x7e>
   16f84: 83 46 a7 ff  	lbu	a3, -0x6(a4)
   16f88: a9 c6        	beqz	a3, 0x16fd2 <strlen+0x90>
   16f8a: 83 46 b7 ff  	lbu	a3, -0x5(a4)
   16f8e: 9d ce        	beqz	a3, 0x16fcc <strlen+0x8a>
   16f90: 83 46 c7 ff  	lbu	a3, -0x4(a4)
   16f94: b1 c2        	beqz	a3, 0x16fd8 <strlen+0x96>
   16f96: 83 46 d7 ff  	lbu	a3, -0x3(a4)
   16f9a: b1 c2        	beqz	a3, 0x16fde <strlen+0x9c>
   16f9c: 03 45 e7 ff  	lbu	a0, -0x2(a4)
   16fa0: 33 35 a0 00  	snez	a0, a0
   16fa4: 3e 95        	add	a0, a0, a5
   16fa6: 79 15        	addi	a0, a0, -0x2
   16fa8: 82 80        	ret
   16faa: c5 d2        	beqz	a3, 0x16f4a <strlen+0x8>
   16fac: 83 47 07 00  	lbu	a5, 0x0(a4)
   16fb0: 05 07        	addi	a4, a4, 0x1
   16fb2: 93 76 77 00  	andi	a3, a4, 0x7
   16fb6: f5 fb        	bnez	a5, 0x16faa <strlen+0x68>
   16fb8: 09 8f        	sub	a4, a4, a0
   16fba: 13 05 f7 ff  	addi	a0, a4, -0x1
   16fbe: 82 80        	ret
   16fc0: 13 85 97 ff  	addi	a0, a5, -0x7
   16fc4: 82 80        	ret
   16fc6: 13 85 87 ff  	addi	a0, a5, -0x8
   16fca: 82 80        	ret
   16fcc: 13 85 b7 ff  	addi	a0, a5, -0x5
   16fd0: 82 80        	ret
   16fd2: 13 85 a7 ff  	addi	a0, a5, -0x6
   16fd6: 82 80        	ret
   16fd8: 13 85 c7 ff  	addi	a0, a5, -0x4
   16fdc: 82 80        	ret
   16fde: 13 85 d7 ff  	addi	a0, a5, -0x3
   16fe2: 82 80        	ret

0000000000016fe4 <strcmp>:
   16fe4: 33 67 b5 00  	or	a4, a0, a1
   16fe8: fd 53        	li	t2, -0x1
   16fea: 1d 8b        	andi	a4, a4, 0x7
   16fec: 4d eb        	bnez	a4, 0x1709e <strcmp+0xba>
   16fee: 97 b7 00 00  	auipc	a5, 0xb
   16ff2: 83 b7 27 40  	ld	a5, 0x402(a5)
   16ff6: 10 61        	ld	a2, 0x0(a0)
   16ff8: 94 61        	ld	a3, 0x0(a1)
   16ffa: b3 72 f6 00  	and	t0, a2, a5
   16ffe: 33 63 f6 00  	or	t1, a2, a5
   17002: be 92        	add	t0, t0, a5
   17004: b3 e2 62 00  	or	t0, t0, t1
   17008: 63 99 72 0a  	bne	t0, t2, 0x170ba <strcmp+0xd6>
   1700c: 63 1e d6 02  	bne	a2, a3, 0x17048 <strcmp+0x64>
   17010: 10 65        	ld	a2, 0x8(a0)
   17012: 94 65        	ld	a3, 0x8(a1)
   17014: b3 72 f6 00  	and	t0, a2, a5
   17018: 33 63 f6 00  	or	t1, a2, a5
   1701c: be 92        	add	t0, t0, a5
   1701e: b3 e2 62 00  	or	t0, t0, t1
   17022: 63 9a 72 08  	bne	t0, t2, 0x170b6 <strcmp+0xd2>
   17026: 63 11 d6 02  	bne	a2, a3, 0x17048 <strcmp+0x64>
   1702a: 10 69        	ld	a2, 0x10(a0)
   1702c: 94 69        	ld	a3, 0x10(a1)
   1702e: b3 72 f6 00  	and	t0, a2, a5
   17032: 33 63 f6 00  	or	t1, a2, a5
   17036: be 92        	add	t0, t0, a5
   17038: b3 e2 62 00  	or	t0, t0, t1
   1703c: 63 93 72 08  	bne	t0, t2, 0x170c2 <strcmp+0xde>
   17040: 61 05        	addi	a0, a0, 0x18
   17042: e1 05        	addi	a1, a1, 0x18
   17044: e3 09 d6 fa  	beq	a2, a3, 0x16ff6 <strcmp+0x12>
   17048: 13 17 06 03  	slli	a4, a2, 0x30
   1704c: 93 97 06 03  	slli	a5, a3, 0x30
   17050: 63 18 f7 02  	bne	a4, a5, 0x17080 <strcmp+0x9c>
   17054: 13 17 06 02  	slli	a4, a2, 0x20
   17058: 93 97 06 02  	slli	a5, a3, 0x20
   1705c: 63 12 f7 02  	bne	a4, a5, 0x17080 <strcmp+0x9c>
   17060: 13 17 06 01  	slli	a4, a2, 0x10
   17064: 93 97 06 01  	slli	a5, a3, 0x10
   17068: 63 1c f7 00  	bne	a4, a5, 0x17080 <strcmp+0x9c>
   1706c: 13 57 06 03  	srli	a4, a2, 0x30
   17070: 93 d7 06 03  	srli	a5, a3, 0x30
   17074: 33 05 f7 40  	sub	a0, a4, a5
   17078: 93 75 f5 0f  	andi	a1, a0, 0xff
   1707c: 91 e9        	bnez	a1, 0x17090 <strcmp+0xac>
   1707e: 82 80        	ret
   17080: 41 93        	srli	a4, a4, 0x30
   17082: c1 93        	srli	a5, a5, 0x30
   17084: 33 05 f7 40  	sub	a0, a4, a5
   17088: 93 75 f5 0f  	andi	a1, a0, 0xff
   1708c: 91 e1        	bnez	a1, 0x17090 <strcmp+0xac>
   1708e: 82 80        	ret
   17090: 13 77 f7 0f  	andi	a4, a4, 0xff
   17094: 93 f7 f7 0f  	andi	a5, a5, 0xff
   17098: 33 05 f7 40  	sub	a0, a4, a5
   1709c: 82 80        	ret
   1709e: 03 46 05 00  	lbu	a2, 0x0(a0)
   170a2: 83 c6 05 00  	lbu	a3, 0x0(a1)
   170a6: 05 05        	addi	a0, a0, 0x1
   170a8: 85 05        	addi	a1, a1, 0x1
   170aa: 63 13 d6 00  	bne	a2, a3, 0x170b0 <strcmp+0xcc>
   170ae: 65 fa        	bnez	a2, 0x1709e <strcmp+0xba>
   170b0: 33 05 d6 40  	sub	a0, a2, a3
   170b4: 82 80        	ret
   170b6: 21 05        	addi	a0, a0, 0x8
   170b8: a1 05        	addi	a1, a1, 0x8
   170ba: e3 12 d6 fe  	bne	a2, a3, 0x1709e <strcmp+0xba>
   170be: 01 45        	li	a0, 0x0
   170c0: 82 80        	ret
   170c2: 41 05        	addi	a0, a0, 0x10
   170c4: c1 05        	addi	a1, a1, 0x10
   170c6: e3 1c d6 fc  	bne	a2, a3, 0x1709e <strcmp+0xba>
   170ca: 01 45        	li	a0, 0x0
   170cc: 82 80        	ret

00000000000170ce <nan>:
   170ce: 07 b5 01 16  	fld	fa0, 0x160(gp)
   170d2: 82 80        	ret

00000000000170d4 <nanf>:
   170d4: 07 a5 c1 1b  	flw	fa0, 0x1bc(gp)
   170d8: 82 80        	ret

00000000000170da <__call_exitprocs>:
   170da: 5d 71        	addi	sp, sp, -0x50
   170dc: 52 f0        	sd	s4, 0x20(sp)
   170de: 4a f8        	sd	s2, 0x30(sp)
   170e0: 03 b9 81 26  	ld	s2, 0x268(gp)
   170e4: 86 e4        	sd	ra, 0x48(sp)
   170e6: 63 0d 09 06  	beqz	s2, 0x17160 <__call_exitprocs+0x86>
   170ea: 4e f4        	sd	s3, 0x28(sp)
   170ec: 56 ec        	sd	s5, 0x18(sp)
   170ee: 5a e8        	sd	s6, 0x10(sp)
   170f0: 5e e4        	sd	s7, 0x8(sp)
   170f2: a2 e0        	sd	s0, 0x40(sp)
   170f4: 26 fc        	sd	s1, 0x38(sp)
   170f6: 62 e0        	sd	s8, 0x0(sp)
   170f8: 2a 8b        	mv	s6, a0
   170fa: ae 8b        	mv	s7, a1
   170fc: fd 59        	li	s3, -0x1
   170fe: 85 4a        	li	s5, 0x1
   17100: 83 24 89 00  	lw	s1, 0x8(s2)
   17104: 1b 84 f4 ff  	addiw	s0, s1, -0x1
   17108: 63 45 04 04  	bltz	s0, 0x17152 <__call_exitprocs+0x78>
   1710c: 8e 04        	slli	s1, s1, 0x3
   1710e: ca 94        	add	s1, s1, s2
   17110: 63 9d 0b 04  	bnez	s7, 0x1716a <__call_exitprocs+0x90>
   17114: 83 27 89 00  	lw	a5, 0x8(s2)
   17118: 98 64        	ld	a4, 0x8(s1)
   1711a: fd 37        	addiw	a5, a5, -0x1
   1711c: 63 82 87 08  	beq	a5, s0, 0x171a0 <__call_exitprocs+0xc6>
   17120: 23 b4 04 00  	sd	zero, 0x8(s1)
   17124: 1d c3        	beqz	a4, 0x1714a <__call_exitprocs+0x70>
   17126: 83 27 09 31  	lw	a5, 0x310(s2)
   1712a: bb 96 8a 00  	sllw	a3, s5, s0
   1712e: 03 2c 89 00  	lw	s8, 0x8(s2)
   17132: f5 8f        	and	a5, a5, a3
   17134: 81 27        	sext.w	a5, a5
   17136: b9 e3        	bnez	a5, 0x1717c <__call_exitprocs+0xa2>
   17138: 02 97        	jalr	a4
   1713a: 03 27 89 00  	lw	a4, 0x8(s2)
   1713e: 83 b7 81 26  	ld	a5, 0x268(gp)
   17142: 63 1c 87 05  	bne	a4, s8, 0x1719a <__call_exitprocs+0xc0>
   17146: 63 9a 27 05  	bne	a5, s2, 0x1719a <__call_exitprocs+0xc0>
   1714a: 7d 34        	addiw	s0, s0, -0x1
   1714c: e1 14        	addi	s1, s1, -0x8
   1714e: e3 11 34 fd  	bne	s0, s3, 0x17110 <__call_exitprocs+0x36>
   17152: 06 64        	ld	s0, 0x40(sp)
   17154: e2 74        	ld	s1, 0x38(sp)
   17156: a2 79        	ld	s3, 0x28(sp)
   17158: e2 6a        	ld	s5, 0x18(sp)
   1715a: 42 6b        	ld	s6, 0x10(sp)
   1715c: a2 6b        	ld	s7, 0x8(sp)
   1715e: 02 6c        	ld	s8, 0x0(sp)
   17160: a6 60        	ld	ra, 0x48(sp)
   17162: 42 79        	ld	s2, 0x30(sp)
   17164: 02 7a        	ld	s4, 0x20(sp)
   17166: 61 61        	addi	sp, sp, 0x50
   17168: 82 80        	ret
   1716a: 83 b7 84 20  	ld	a5, 0x208(s1)
   1716e: e3 83 77 fb  	beq	a5, s7, 0x17114 <__call_exitprocs+0x3a>
   17172: 7d 34        	addiw	s0, s0, -0x1
   17174: e1 14        	addi	s1, s1, -0x8
   17176: e3 1a 34 ff  	bne	s0, s3, 0x1716a <__call_exitprocs+0x90>
   1717a: e1 bf        	j	0x17152 <__call_exitprocs+0x78>
   1717c: 83 27 49 31  	lw	a5, 0x314(s2)
   17180: 83 b5 84 10  	ld	a1, 0x108(s1)
   17184: f5 8f        	and	a5, a5, a3
   17186: 81 27        	sext.w	a5, a5
   17188: 99 ef        	bnez	a5, 0x171a6 <__call_exitprocs+0xcc>
   1718a: 5a 85        	mv	a0, s6
   1718c: 02 97        	jalr	a4
   1718e: 03 27 89 00  	lw	a4, 0x8(s2)
   17192: 83 b7 81 26  	ld	a5, 0x268(gp)
   17196: e3 08 87 fb  	beq	a4, s8, 0x17146 <__call_exitprocs+0x6c>
   1719a: c5 df        	beqz	a5, 0x17152 <__call_exitprocs+0x78>
   1719c: 3e 89        	mv	s2, a5
   1719e: 8d b7        	j	0x17100 <__call_exitprocs+0x26>
   171a0: 23 24 89 00  	sw	s0, 0x8(s2)
   171a4: 41 b7        	j	0x17124 <__call_exitprocs+0x4a>
   171a6: 2e 85        	mv	a0, a1
   171a8: 02 97        	jalr	a4
   171aa: 41 bf        	j	0x1713a <__call_exitprocs+0x60>

00000000000171ac <atexit>:
   171ac: aa 85        	mv	a1, a0
   171ae: 81 46        	li	a3, 0x0
   171b0: 01 46        	li	a2, 0x0
   171b2: 01 45        	li	a0, 0x0
   171b4: 6f 40 b0 5a  	j	0x1bf5e <__register_exitproc>

00000000000171b8 <_malloc_trim_r>:
   171b8: 79 71        	addi	sp, sp, -0x30
   171ba: 4e e4        	sd	s3, 0x8(sp)
   171bc: b7 19 02 00  	lui	s3, 0x21
   171c0: 22 f0        	sd	s0, 0x20(sp)
   171c2: 26 ec        	sd	s1, 0x18(sp)
   171c4: 4a e8        	sd	s2, 0x10(sp)
   171c6: 52 e0        	sd	s4, 0x0(sp)
   171c8: 06 f4        	sd	ra, 0x28(sp)
   171ca: 2e 8a        	mv	s4, a1
   171cc: 2a 89        	mv	s2, a0
   171ce: 93 89 09 7f  	addi	s3, s3, 0x7f0
   171d2: ef d0 ef a9  	jal	0x14470 <__malloc_lock>
   171d6: 03 b7 09 01  	ld	a4, 0x10(s3)
   171da: 85 67        	lui	a5, 0x1
   171dc: 93 87 f7 fd  	addi	a5, a5, -0x21
   171e0: 04 67        	ld	s1, 0x8(a4)
   171e2: 05 67        	lui	a4, 0x1
   171e4: f1 98        	andi	s1, s1, -0x4
   171e6: 33 84 f4 00  	add	s0, s1, a5
   171ea: 33 04 44 41  	sub	s0, s0, s4
   171ee: 31 80        	srli	s0, s0, 0xc
   171f0: 7d 14        	addi	s0, s0, -0x1
   171f2: 32 04        	slli	s0, s0, 0xc
   171f4: 63 4b e4 00  	blt	s0, a4, 0x1720a <_malloc_trim_r+0x52>
   171f8: 81 45        	li	a1, 0x0
   171fa: 4a 85        	mv	a0, s2
   171fc: ef f0 df a6  	jal	0x16c68 <_sbrk_r>
   17200: 83 b7 09 01  	ld	a5, 0x10(s3)
   17204: a6 97        	add	a5, a5, s1
   17206: 63 0e f5 00  	beq	a0, a5, 0x17222 <_malloc_trim_r+0x6a>
   1720a: 4a 85        	mv	a0, s2
   1720c: ef d0 6f a6  	jal	0x14472 <__malloc_unlock>
   17210: a2 70        	ld	ra, 0x28(sp)
   17212: 02 74        	ld	s0, 0x20(sp)
   17214: e2 64        	ld	s1, 0x18(sp)
   17216: 42 69        	ld	s2, 0x10(sp)
   17218: a2 69        	ld	s3, 0x8(sp)
   1721a: 02 6a        	ld	s4, 0x0(sp)
   1721c: 01 45        	li	a0, 0x0
   1721e: 45 61        	addi	sp, sp, 0x30
   17220: 82 80        	ret
   17222: b3 05 80 40  	neg	a1, s0
   17226: 4a 85        	mv	a0, s2
   17228: ef f0 1f a4  	jal	0x16c68 <_sbrk_r>
   1722c: fd 57        	li	a5, -0x1
   1722e: 63 09 f5 02  	beq	a0, a5, 0x17260 <_malloc_trim_r+0xa8>
   17232: 93 87 01 2b  	addi	a5, gp, 0x2b0
   17236: 98 43        	lw	a4, 0x0(a5)
   17238: 83 b6 09 01  	ld	a3, 0x10(s3)
   1723c: 81 8c        	sub	s1, s1, s0
   1723e: 93 e4 14 00  	ori	s1, s1, 0x1
   17242: 01 9f        	subw	a4, a4, s0
   17244: 4a 85        	mv	a0, s2
   17246: 84 e6        	sd	s1, 0x8(a3)
   17248: 98 c3        	sw	a4, 0x0(a5)
   1724a: ef d0 8f a2  	jal	0x14472 <__malloc_unlock>
   1724e: a2 70        	ld	ra, 0x28(sp)
   17250: 02 74        	ld	s0, 0x20(sp)
   17252: e2 64        	ld	s1, 0x18(sp)
   17254: 42 69        	ld	s2, 0x10(sp)
   17256: a2 69        	ld	s3, 0x8(sp)
   17258: 02 6a        	ld	s4, 0x0(sp)
   1725a: 05 45        	li	a0, 0x1
   1725c: 45 61        	addi	sp, sp, 0x30
   1725e: 82 80        	ret
   17260: 81 45        	li	a1, 0x0
   17262: 4a 85        	mv	a0, s2
   17264: ef f0 5f a0  	jal	0x16c68 <_sbrk_r>
   17268: 03 b7 09 01  	ld	a4, 0x10(s3)
   1726c: fd 46        	li	a3, 0x1f
   1726e: b3 07 e5 40  	sub	a5, a0, a4
   17272: e3 dc f6 f8  	bge	a3, a5, 0x1720a <_malloc_trim_r+0x52>
   17276: 83 b6 01 22  	ld	a3, 0x220(gp)
   1727a: 93 e7 17 00  	ori	a5, a5, 0x1
   1727e: 1c e7        	sd	a5, 0x8(a4)
   17280: 15 8d        	sub	a0, a0, a3
   17282: 23 a8 a1 2a  	sw	a0, 0x2b0(gp)
   17286: 51 b7        	j	0x1720a <_malloc_trim_r+0x52>

0000000000017288 <_free_r>:
   17288: 63 85 05 12  	beqz	a1, 0x173b2 <_free_r+0x12a>
   1728c: 01 11        	addi	sp, sp, -0x20
   1728e: 22 e8        	sd	s0, 0x10(sp)
   17290: 26 e4        	sd	s1, 0x8(sp)
   17292: 2e 84        	mv	s0, a1
   17294: aa 84        	mv	s1, a0
   17296: 06 ec        	sd	ra, 0x18(sp)
   17298: ef d0 8f 9d  	jal	0x14470 <__malloc_lock>
   1729c: 03 35 84 ff  	ld	a0, -0x8(s0)
   172a0: 13 07 04 ff  	addi	a4, s0, -0x10
   172a4: b7 15 02 00  	lui	a1, 0x21
   172a8: 93 77 e5 ff  	andi	a5, a0, -0x2
   172ac: 33 06 f7 00  	add	a2, a4, a5
   172b0: 93 85 05 7f  	addi	a1, a1, 0x7f0
   172b4: 14 66        	ld	a3, 0x8(a2)
   172b6: 03 b8 05 01  	ld	a6, 0x10(a1)
   172ba: f1 9a        	andi	a3, a3, -0x4
   172bc: 63 0e c8 12  	beq	a6, a2, 0x173f8 <_free_r+0x170>
   172c0: 14 e6        	sd	a3, 0x8(a2)
   172c2: 05 89        	andi	a0, a0, 0x1
   172c4: 33 08 d6 00  	add	a6, a2, a3
   172c8: 49 e1        	bnez	a0, 0x1734a <_free_r+0xc2>
   172ca: 03 33 04 ff  	ld	t1, -0x10(s0)
   172ce: 03 38 88 00  	ld	a6, 0x8(a6)
   172d2: 37 25 02 00  	lui	a0, 0x22
   172d6: 33 07 67 40  	sub	a4, a4, t1
   172da: 83 38 07 01  	ld	a7, 0x10(a4)
   172de: 13 05 05 80  	addi	a0, a0, -0x800
   172e2: 9a 97        	add	a5, a5, t1
   172e4: 13 78 18 00  	andi	a6, a6, 0x1
   172e8: 63 8b a8 0e  	beq	a7, a0, 0x173de <_free_r+0x156>
   172ec: 03 33 87 01  	ld	t1, 0x18(a4)
   172f0: 23 bc 68 00  	sd	t1, 0x18(a7)
   172f4: 23 38 13 01  	sd	a7, 0x10(t1)
   172f8: 63 09 08 12  	beqz	a6, 0x1742a <_free_r+0x1a2>
   172fc: 93 e6 17 00  	ori	a3, a5, 0x1
   17300: 14 e7        	sd	a3, 0x8(a4)
   17302: 1c e2        	sd	a5, 0x0(a2)
   17304: 93 06 f0 1f  	li	a3, 0x1ff
   17308: 63 ee f6 04  	bltu	a3, a5, 0x17364 <_free_r+0xdc>
   1730c: 8d 83        	srli	a5, a5, 0x3
   1730e: 9b 86 17 00  	addiw	a3, a5, 0x1
   17312: 9b 96 16 00  	slliw	a3, a3, 0x1
   17316: 8e 06        	slli	a3, a3, 0x3
   17318: 03 b8 85 00  	ld	a6, 0x8(a1)
   1731c: ae 96        	add	a3, a3, a1
   1731e: 88 62        	ld	a0, 0x0(a3)
   17320: 1b d6 27 40  	sraiw	a2, a5, 0x2
   17324: 85 47        	li	a5, 0x1
   17326: b3 97 c7 00  	sll	a5, a5, a2
   1732a: b3 e7 07 01  	or	a5, a5, a6
   1732e: 13 86 06 ff  	addi	a2, a3, -0x10
   17332: 10 ef        	sd	a2, 0x18(a4)
   17334: 08 eb        	sd	a0, 0x10(a4)
   17336: 9c e5        	sd	a5, 0x8(a1)
   17338: 98 e2        	sd	a4, 0x0(a3)
   1733a: 18 ed        	sd	a4, 0x18(a0)
   1733c: 42 64        	ld	s0, 0x10(sp)
   1733e: e2 60        	ld	ra, 0x18(sp)
   17340: 26 85        	mv	a0, s1
   17342: a2 64        	ld	s1, 0x8(sp)
   17344: 05 61        	addi	sp, sp, 0x20
   17346: 6f d0 cf 92  	j	0x14472 <__malloc_unlock>
   1734a: 03 35 88 00  	ld	a0, 0x8(a6)
   1734e: 05 89        	andi	a0, a0, 0x1
   17350: 35 c1        	beqz	a0, 0x173b4 <_free_r+0x12c>
   17352: 93 e6 17 00  	ori	a3, a5, 0x1
   17356: 23 3c d4 fe  	sd	a3, -0x8(s0)
   1735a: 1c e2        	sd	a5, 0x0(a2)
   1735c: 93 06 f0 1f  	li	a3, 0x1ff
   17360: e3 f6 f6 fa  	bgeu	a3, a5, 0x1730c <_free_r+0x84>
   17364: 93 d6 97 00  	srli	a3, a5, 0x9
   17368: 11 46        	li	a2, 0x4
   1736a: 63 62 d6 0c  	bltu	a2, a3, 0x1742e <_free_r+0x1a6>
   1736e: 93 d6 67 00  	srli	a3, a5, 0x6
   17372: 1b 85 96 03  	addiw	a0, a3, 0x39
   17376: 1b 15 15 00  	slliw	a0, a0, 0x1
   1737a: 1b 86 86 03  	addiw	a2, a3, 0x38
   1737e: 0e 05        	slli	a0, a0, 0x3
   17380: 2e 95        	add	a0, a0, a1
   17382: 14 61        	ld	a3, 0x0(a0)
   17384: 41 15        	addi	a0, a0, -0x10
   17386: 63 16 d5 00  	bne	a0, a3, 0x17392 <_free_r+0x10a>
   1738a: ed a0        	j	0x17474 <_free_r+0x1ec>
   1738c: 94 6a        	ld	a3, 0x10(a3)
   1738e: 63 06 d5 00  	beq	a0, a3, 0x1739a <_free_r+0x112>
   17392: 90 66        	ld	a2, 0x8(a3)
   17394: 71 9a        	andi	a2, a2, -0x4
   17396: e3 eb c7 fe  	bltu	a5, a2, 0x1738c <_free_r+0x104>
   1739a: 88 6e        	ld	a0, 0x18(a3)
   1739c: 08 ef        	sd	a0, 0x18(a4)
   1739e: 14 eb        	sd	a3, 0x10(a4)
   173a0: 42 64        	ld	s0, 0x10(sp)
   173a2: 18 e9        	sd	a4, 0x10(a0)
   173a4: e2 60        	ld	ra, 0x18(sp)
   173a6: 26 85        	mv	a0, s1
   173a8: a2 64        	ld	s1, 0x8(sp)
   173aa: 98 ee        	sd	a4, 0x18(a3)
   173ac: 05 61        	addi	sp, sp, 0x20
   173ae: 6f d0 4f 8c  	j	0x14472 <__malloc_unlock>
   173b2: 82 80        	ret
   173b4: 37 25 02 00  	lui	a0, 0x22
   173b8: b6 97        	add	a5, a5, a3
   173ba: 13 05 05 80  	addi	a0, a0, -0x800
   173be: 14 6a        	ld	a3, 0x10(a2)
   173c0: 63 80 a6 0a  	beq	a3, a0, 0x17460 <_free_r+0x1d8>
   173c4: 03 38 86 01  	ld	a6, 0x18(a2)
   173c8: 13 e5 17 00  	ori	a0, a5, 0x1
   173cc: 33 06 f7 00  	add	a2, a4, a5
   173d0: 23 bc 06 01  	sd	a6, 0x18(a3)
   173d4: 23 38 d8 00  	sd	a3, 0x10(a6)
   173d8: 08 e7        	sd	a0, 0x8(a4)
   173da: 1c e2        	sd	a5, 0x0(a2)
   173dc: 25 b7        	j	0x17304 <_free_r+0x7c>
   173de: 63 17 08 0e  	bnez	a6, 0x174cc <_free_r+0x244>
   173e2: 0c 6a        	ld	a1, 0x10(a2)
   173e4: 10 6e        	ld	a2, 0x18(a2)
   173e6: be 96        	add	a3, a3, a5
   173e8: 93 e7 16 00  	ori	a5, a3, 0x1
   173ec: 90 ed        	sd	a2, 0x18(a1)
   173ee: 0c ea        	sd	a1, 0x10(a2)
   173f0: 1c e7        	sd	a5, 0x8(a4)
   173f2: 36 97        	add	a4, a4, a3
   173f4: 14 e3        	sd	a3, 0x0(a4)
   173f6: 99 b7        	j	0x1733c <_free_r+0xb4>
   173f8: 05 89        	andi	a0, a0, 0x1
   173fa: be 96        	add	a3, a3, a5
   173fc: 09 e9        	bnez	a0, 0x1740e <_free_r+0x186>
   173fe: 03 35 04 ff  	ld	a0, -0x10(s0)
   17402: 09 8f        	sub	a4, a4, a0
   17404: 1c 6f        	ld	a5, 0x18(a4)
   17406: 10 6b        	ld	a2, 0x10(a4)
   17408: aa 96        	add	a3, a3, a0
   1740a: 1c ee        	sd	a5, 0x18(a2)
   1740c: 90 eb        	sd	a2, 0x10(a5)
   1740e: 13 e6 16 00  	ori	a2, a3, 0x1
   17412: 83 b7 81 22  	ld	a5, 0x228(gp)
   17416: 10 e7        	sd	a2, 0x8(a4)
   17418: 98 e9        	sd	a4, 0x10(a1)
   1741a: e3 e1 f6 f2  	bltu	a3, a5, 0x1733c <_free_r+0xb4>
   1741e: 83 b5 81 24  	ld	a1, 0x248(gp)
   17422: 26 85        	mv	a0, s1
   17424: ef f0 5f d9  	jal	0x171b8 <_malloc_trim_r>
   17428: 11 bf        	j	0x1733c <_free_r+0xb4>
   1742a: b6 97        	add	a5, a5, a3
   1742c: 49 bf        	j	0x173be <_free_r+0x136>
   1742e: 51 46        	li	a2, 0x14
   17430: 63 70 d6 02  	bgeu	a2, a3, 0x17450 <_free_r+0x1c8>
   17434: 13 06 40 05  	li	a2, 0x54
   17438: 63 69 d6 04  	bltu	a2, a3, 0x1748a <_free_r+0x202>
   1743c: 93 d6 c7 00  	srli	a3, a5, 0xc
   17440: 1b 85 f6 06  	addiw	a0, a3, 0x6f
   17444: 1b 15 15 00  	slliw	a0, a0, 0x1
   17448: 1b 86 e6 06  	addiw	a2, a3, 0x6e
   1744c: 0e 05        	slli	a0, a0, 0x3
   1744e: 0d bf        	j	0x17380 <_free_r+0xf8>
   17450: 1b 85 c6 05  	addiw	a0, a3, 0x5c
   17454: 1b 15 15 00  	slliw	a0, a0, 0x1
   17458: 1b 86 b6 05  	addiw	a2, a3, 0x5b
   1745c: 0e 05        	slli	a0, a0, 0x3
   1745e: 0d b7        	j	0x17380 <_free_r+0xf8>
   17460: 98 f5        	sd	a4, 0x28(a1)
   17462: 98 f1        	sd	a4, 0x20(a1)
   17464: 93 e6 17 00  	ori	a3, a5, 0x1
   17468: 08 ef        	sd	a0, 0x18(a4)
   1746a: 08 eb        	sd	a0, 0x10(a4)
   1746c: 14 e7        	sd	a3, 0x8(a4)
   1746e: 3e 97        	add	a4, a4, a5
   17470: 1c e3        	sd	a5, 0x0(a4)
   17472: e9 b5        	j	0x1733c <_free_r+0xb4>
   17474: 03 b8 85 00  	ld	a6, 0x8(a1)
   17478: 1b 56 26 40  	sraiw	a2, a2, 0x2
   1747c: 85 47        	li	a5, 0x1
   1747e: b3 97 c7 00  	sll	a5, a5, a2
   17482: b3 e7 07 01  	or	a5, a5, a6
   17486: 9c e5        	sd	a5, 0x8(a1)
   17488: 11 bf        	j	0x1739c <_free_r+0x114>
   1748a: 13 06 40 15  	li	a2, 0x154
   1748e: 63 6c d6 00  	bltu	a2, a3, 0x174a6 <_free_r+0x21e>
   17492: 93 d6 f7 00  	srli	a3, a5, 0xf
   17496: 1b 85 86 07  	addiw	a0, a3, 0x78
   1749a: 1b 15 15 00  	slliw	a0, a0, 0x1
   1749e: 1b 86 76 07  	addiw	a2, a3, 0x77
   174a2: 0e 05        	slli	a0, a0, 0x3
   174a4: f1 bd        	j	0x17380 <_free_r+0xf8>
   174a6: 13 06 40 55  	li	a2, 0x554
   174aa: 63 6c d6 00  	bltu	a2, a3, 0x174c2 <_free_r+0x23a>
   174ae: 93 d6 27 01  	srli	a3, a5, 0x12
   174b2: 1b 85 d6 07  	addiw	a0, a3, 0x7d
   174b6: 1b 15 15 00  	slliw	a0, a0, 0x1
   174ba: 1b 86 c6 07  	addiw	a2, a3, 0x7c
   174be: 0e 05        	slli	a0, a0, 0x3
   174c0: c1 b5        	j	0x17380 <_free_r+0xf8>
   174c2: 13 05 00 7f  	li	a0, 0x7f0
   174c6: 13 06 e0 07  	li	a2, 0x7e
   174ca: 5d bd        	j	0x17380 <_free_r+0xf8>
   174cc: 93 e6 17 00  	ori	a3, a5, 0x1
   174d0: 14 e7        	sd	a3, 0x8(a4)
   174d2: 1c e2        	sd	a5, 0x0(a2)
   174d4: a5 b5        	j	0x1733c <_free_r+0xb4>

00000000000174d6 <rshift>:
   174d6: 58 49        	lw	a4, 0x14(a0)
   174d8: 13 de 55 40  	srai	t3, a1, 0x5
   174dc: 63 47 ee 00  	blt	t3, a4, 0x174ea <rshift+0x14>
   174e0: 23 2a 05 00  	sw	zero, 0x14(a0)
   174e4: 23 2c 05 00  	sw	zero, 0x18(a0)
   174e8: 82 80        	ret
   174ea: 13 03 85 01  	addi	t1, a0, 0x18
   174ee: 13 18 27 00  	slli	a6, a4, 0x2
   174f2: 93 17 2e 00  	slli	a5, t3, 0x2
   174f6: fd 89        	andi	a1, a1, 0x1f
   174f8: 1a 98        	add	a6, a6, t1
   174fa: 9a 97        	add	a5, a5, t1
   174fc: b9 c1        	beqz	a1, 0x17542 <rshift+0x6c>
   174fe: 90 43        	lw	a2, 0x0(a5)
   17500: 93 0e 00 02  	li	t4, 0x20
   17504: 91 07        	addi	a5, a5, 0x4
   17506: bb 56 b6 00  	srlw	a3, a2, a1
   1750a: bb 8e be 40  	subw	t4, t4, a1
   1750e: 63 ff 07 05  	bgeu	a5, a6, 0x1756c <rshift+0x96>
   17512: 9a 88        	mv	a7, t1
   17514: 90 43        	lw	a2, 0x0(a5)
   17516: 91 08        	addi	a7, a7, 0x4
   17518: 91 07        	addi	a5, a5, 0x4
   1751a: 3b 16 d6 01  	sllw	a2, a2, t4
   1751e: d1 8e        	or	a3, a3, a2
   17520: 23 ae d8 fe  	sw	a3, -0x4(a7)
   17524: 03 a6 c7 ff  	lw	a2, -0x4(a5)
   17528: bb 56 b6 00  	srlw	a3, a2, a1
   1752c: e3 e4 07 ff  	bltu	a5, a6, 0x17514 <rshift+0x3e>
   17530: 33 07 c7 41  	sub	a4, a4, t3
   17534: 0a 07        	slli	a4, a4, 0x2
   17536: 71 17        	addi	a4, a4, -0x4
   17538: 1a 97        	add	a4, a4, t1
   1753a: 14 c3        	sw	a3, 0x0(a4)
   1753c: 8d c2        	beqz	a3, 0x1755e <rshift+0x88>
   1753e: 11 07        	addi	a4, a4, 0x4
   17540: 39 a8        	j	0x1755e <rshift+0x88>
   17542: 9a 86        	mv	a3, t1
   17544: e3 fe 07 f9  	bgeu	a5, a6, 0x174e0 <rshift+0xa>
   17548: 90 43        	lw	a2, 0x0(a5)
   1754a: 91 07        	addi	a5, a5, 0x4
   1754c: 91 06        	addi	a3, a3, 0x4
   1754e: 23 ae c6 fe  	sw	a2, -0x4(a3)
   17552: e3 eb 07 ff  	bltu	a5, a6, 0x17548 <rshift+0x72>
   17556: 33 07 c7 41  	sub	a4, a4, t3
   1755a: 0a 07        	slli	a4, a4, 0x2
   1755c: 1a 97        	add	a4, a4, t1
   1755e: 33 07 67 40  	sub	a4, a4, t1
   17562: 09 87        	srai	a4, a4, 0x2
   17564: 01 27        	sext.w	a4, a4
   17566: 58 c9        	sw	a4, 0x14(a0)
   17568: 35 df        	beqz	a4, 0x174e4 <rshift+0xe>
   1756a: 82 80        	ret
   1756c: 14 cd        	sw	a3, 0x18(a0)
   1756e: ad da        	beqz	a3, 0x174e0 <rshift+0xa>
   17570: 1a 87        	mv	a4, t1
   17572: 11 07        	addi	a4, a4, 0x4
   17574: ed b7        	j	0x1755e <rshift+0x88>

0000000000017576 <__gethex>:
   17576: 75 71        	addi	sp, sp, -0x90
   17578: 66 fc        	sd	s9, 0x38(sp)
   1757a: 83 bc 05 00  	ld	s9, 0x0(a1)
   1757e: ca f8        	sd	s2, 0x70(sp)
   17580: ce f4        	sd	s3, 0x68(sp)
   17582: d2 f0        	sd	s4, 0x60(sp)
   17584: 6e f4        	sd	s11, 0x28(sp)
   17586: 06 e5        	sd	ra, 0x88(sp)
   17588: 22 e1        	sd	s0, 0x80(sp)
   1758a: a6 fc        	sd	s1, 0x78(sp)
   1758c: d6 ec        	sd	s5, 0x58(sp)
   1758e: da e8        	sd	s6, 0x50(sp)
   17590: de e4        	sd	s7, 0x48(sp)
   17592: e2 e0        	sd	s8, 0x40(sp)
   17594: 6a f8        	sd	s10, 0x30(sp)
   17596: 83 c8 2c 00  	lbu	a7, 0x2(s9)
   1759a: ae 8d        	mv	s11, a1
   1759c: 36 e4        	sd	a3, 0x8(sp)
   1759e: 93 05 00 03  	li	a1, 0x30
   175a2: 3e e8        	sd	a5, 0x10(sp)
   175a4: aa 89        	mv	s3, a0
   175a6: 32 89        	mv	s2, a2
   175a8: 3a 8a        	mv	s4, a4
   175aa: 63 9e b8 44  	bne	a7, a1, 0x17a06 <__gethex+0x490>
   175ae: 8d 0c        	addi	s9, s9, 0x3
   175b0: 66 88        	mv	a6, s9
   175b2: 93 07 00 03  	li	a5, 0x30
   175b6: 83 48 08 00  	lbu	a7, 0x0(a6)
   175ba: 42 8c        	mv	s8, a6
   175bc: 05 08        	addi	a6, a6, 0x1
   175be: e3 8c f8 fe  	beq	a7, a5, 0x175b6 <__gethex+0x40>
   175c2: bb 0c 9c 41  	subw	s9, s8, s9
   175c6: 85 2c        	addiw	s9, s9, 0x1
   175c8: 37 0d 02 00  	lui	s10, 0x20
   175cc: 13 0d 0d e2  	addi	s10, s10, -0x1e0
   175d0: ea 98        	add	a7, a7, s10
   175d2: 83 c7 08 00  	lbu	a5, 0x0(a7)
   175d6: 63 89 07 24  	beqz	a5, 0x17828 <__gethex+0x2b2>
   175da: 83 47 0c 00  	lbu	a5, 0x0(s8)
   175de: 01 4b        	li	s6, 0x0
   175e0: 01 44        	li	s0, 0x0
   175e2: ea 97        	add	a5, a5, s10
   175e4: 83 c7 07 00  	lbu	a5, 0x0(a5)
   175e8: b7 0b 02 00  	lui	s7, 0x20
   175ec: 63 89 07 34  	beqz	a5, 0x1793e <__gethex+0x3c8>
   175f0: e2 84        	mv	s1, s8
   175f2: 83 c7 14 00  	lbu	a5, 0x1(s1)
   175f6: 85 04        	addi	s1, s1, 0x1
   175f8: ea 97        	add	a5, a5, s10
   175fa: 83 c7 07 00  	lbu	a5, 0x0(a5)
   175fe: f5 fb        	bnez	a5, 0x175f2 <__gethex+0x7c>
   17600: 05 46        	li	a2, 0x1
   17602: 93 85 0b a2  	addi	a1, s7, -0x5e0
   17606: 26 85        	mv	a0, s1
   17608: ef f0 8f b6  	jal	0x16970 <strncmp>
   1760c: aa 8a        	mv	s5, a0
   1760e: 63 0a 05 14  	beqz	a0, 0x17762 <__gethex+0x1ec>
   17612: 83 c7 04 00  	lbu	a5, 0x0(s1)
   17616: 81 4a        	li	s5, 0x0
   17618: 09 c4        	beqz	s0, 0x17622 <__gethex+0xac>
   1761a: 3b 07 94 40  	subw	a4, s0, s1
   1761e: 9b 1a 27 00  	slliw	s5, a4, 0x2
   17622: 93 f7 f7 0d  	andi	a5, a5, 0xdf
   17626: 93 06 00 05  	li	a3, 0x50
   1762a: 26 84        	mv	s0, s1
   1762c: 63 8a d7 14  	beq	a5, a3, 0x17780 <__gethex+0x20a>
   17630: 23 b0 9d 00  	sd	s1, 0x0(s11)
   17634: 63 15 0b 1c  	bnez	s6, 0x177fe <__gethex+0x288>
   17638: b3 07 84 41  	sub	a5, s0, s8
   1763c: fd 37        	addiw	a5, a5, -0x1
   1763e: 9d 46        	li	a3, 0x7
   17640: 81 45        	li	a1, 0x0
   17642: 63 d6 f6 00  	bge	a3, a5, 0x1764e <__gethex+0xd8>
   17646: 85 87        	srai	a5, a5, 0x1
   17648: 85 25        	addiw	a1, a1, 0x1
   1764a: e3 ce f6 fe  	blt	a3, a5, 0x17646 <__gethex+0xd0>
   1764e: 4e 85        	mv	a0, s3
   17650: ef 00 20 79  	jal	0x17de2 <_Balloc>
   17654: 2a 8b        	mv	s6, a0
   17656: 63 0b 05 50  	beqz	a0, 0x17b6c <__gethex+0x5f6>
   1765a: 93 04 85 01  	addi	s1, a0, 0x18
   1765e: a6 86        	mv	a3, s1
   17660: 63 7c 8c 42  	bgeu	s8, s0, 0x17a98 <__gethex+0x522>
   17664: 81 4c        	li	s9, 0x0
   17666: 81 4d        	li	s11, 0x0
   17668: 13 03 e0 02  	li	t1, 0x2e
   1766c: 13 0e 00 02  	li	t3, 0x20
   17670: 83 47 f4 ff  	lbu	a5, -0x1(s0)
   17674: 7d 14        	addi	s0, s0, -0x1
   17676: 63 8e 67 0a  	beq	a5, t1, 0x17732 <__gethex+0x1bc>
   1767a: 63 8d cc 0d  	beq	s9, t3, 0x17754 <__gethex+0x1de>
   1767e: 66 86        	mv	a2, s9
   17680: 91 2c        	addiw	s9, s9, 0x4
   17682: 83 47 04 00  	lbu	a5, 0x0(s0)
   17686: ea 97        	add	a5, a5, s10
   17688: 03 c8 07 00  	lbu	a6, 0x0(a5)
   1768c: 13 78 f8 00  	andi	a6, a6, 0xf
   17690: 3b 18 c8 00  	sllw	a6, a6, a2
   17694: 33 e8 0d 01  	or	a6, s11, a6
   17698: 9b 0d 08 00  	sext.w	s11, a6
   1769c: e3 1a 8c fc  	bne	s8, s0, 0x17670 <__gethex+0xfa>
   176a0: 93 87 46 00  	addi	a5, a3, 0x4
   176a4: 85 8f        	sub	a5, a5, s1
   176a6: 89 87        	srai	a5, a5, 0x2
   176a8: 81 27        	sext.w	a5, a5
   176aa: 23 a0 b6 01  	sw	s11, 0x0(a3)
   176ae: 23 2a fb 00  	sw	a5, 0x14(s6)
   176b2: 6e 85        	mv	a0, s11
   176b4: 1b 94 57 00  	slliw	s0, a5, 0x5
   176b8: ef 00 50 17  	jal	0x1802c <__hi0bits>
   176bc: 83 2b 09 00  	lw	s7, 0x0(s2)
   176c0: bb 06 a4 40  	subw	a3, s0, a0
   176c4: 63 c8 db 1e  	blt	s7, a3, 0x178b4 <__gethex+0x33e>
   176c8: 01 4c        	li	s8, 0x0
   176ca: 63 cd 76 2f  	blt	a3, s7, 0x179c4 <__gethex+0x44e>
   176ce: 83 27 89 00  	lw	a5, 0x8(s2)
   176d2: 63 ca 57 3b  	blt	a5, s5, 0x17a86 <__gethex+0x510>
   176d6: 83 26 49 00  	lw	a3, 0x4(s2)
   176da: 63 df da 18  	bge	s5, a3, 0x17878 <__gethex+0x302>
   176de: 3b 8d 56 41  	subw	s10, a3, s5
   176e2: ea 8a        	mv	s5, s10
   176e4: 63 4f 7d 21  	blt	s10, s7, 0x17902 <__gethex+0x38c>
   176e8: 83 27 c9 00  	lw	a5, 0xc(s2)
   176ec: 09 47        	li	a4, 0x2
   176ee: 63 8d e7 2a  	beq	a5, a4, 0x179a8 <__gethex+0x432>
   176f2: 0d 47        	li	a4, 0x3
   176f4: 63 8b e7 3c  	beq	a5, a4, 0x17aca <__gethex+0x554>
   176f8: 05 47        	li	a4, 0x1
   176fa: 63 9a e7 2a  	bne	a5, a4, 0x179ae <__gethex+0x438>
   176fe: 63 98 ab 2b  	bne	s7, s10, 0x179ae <__gethex+0x438>
   17702: 63 8d fb 00  	beq	s7, a5, 0x1771c <__gethex+0x1a6>
   17706: 9b 85 fb ff  	addiw	a1, s7, -0x1
   1770a: 5a 85        	mv	a0, s6
   1770c: ef 10 a0 36  	jal	0x18a76 <__any_on>
   17710: 9b 07 05 00  	sext.w	a5, a0
   17714: 63 8d 07 28  	beqz	a5, 0x179ae <__gethex+0x438>
   17718: 83 26 49 00  	lw	a3, 0x4(s2)
   1771c: a2 67        	ld	a5, 0x8(sp)
   1771e: 13 04 20 06  	li	s0, 0x62
   17722: 94 c3        	sw	a3, 0x0(a5)
   17724: 85 47        	li	a5, 0x1
   17726: 23 2a fb 00  	sw	a5, 0x14(s6)
   1772a: 9c c0        	sw	a5, 0x0(s1)
   1772c: 23 30 6a 01  	sd	s6, 0x0(s4)
   17730: e1 a8        	j	0x17808 <__gethex+0x292>
   17732: e3 64 84 f5  	bltu	s0, s8, 0x1767a <__gethex+0x104>
   17736: 05 46        	li	a2, 0x1
   17738: 93 85 0b a2  	addi	a1, s7, -0x5e0
   1773c: 22 85        	mv	a0, s0
   1773e: 36 ec        	sd	a3, 0x18(sp)
   17740: ef f0 0f a3  	jal	0x16970 <strncmp>
   17744: e2 66        	ld	a3, 0x18(sp)
   17746: 13 03 e0 02  	li	t1, 0x2e
   1774a: 13 0e 00 02  	li	t3, 0x20
   1774e: 39 d5        	beqz	a0, 0x1769c <__gethex+0x126>
   17750: e3 97 cc f3  	bne	s9, t3, 0x1767e <__gethex+0x108>
   17754: 23 a0 b6 01  	sw	s11, 0x0(a3)
   17758: 01 46        	li	a2, 0x0
   1775a: 91 06        	addi	a3, a3, 0x4
   1775c: 91 4c        	li	s9, 0x4
   1775e: 81 4d        	li	s11, 0x0
   17760: 0d b7        	j	0x17682 <__gethex+0x10c>
   17762: 63 0e 04 26  	beqz	s0, 0x179de <__gethex+0x468>
   17766: 83 c7 04 00  	lbu	a5, 0x0(s1)
   1776a: 3b 07 94 40  	subw	a4, s0, s1
   1776e: 93 06 00 05  	li	a3, 0x50
   17772: 93 f7 f7 0d  	andi	a5, a5, 0xdf
   17776: 9b 1a 27 00  	slliw	s5, a4, 0x2
   1777a: 26 84        	mv	s0, s1
   1777c: e3 9a d7 ea  	bne	a5, a3, 0x17630 <__gethex+0xba>
   17780: 83 47 14 00  	lbu	a5, 0x1(s0)
   17784: 93 06 b0 02  	li	a3, 0x2b
   17788: 63 8c d7 22  	beq	a5, a3, 0x179c0 <__gethex+0x44a>
   1778c: 93 06 d0 02  	li	a3, 0x2d
   17790: 63 95 d7 16  	bne	a5, a3, 0x178fa <__gethex+0x384>
   17794: 05 45        	li	a0, 0x1
   17796: 83 47 24 00  	lbu	a5, 0x2(s0)
   1779a: 93 05 24 00  	addi	a1, s0, 0x2
   1779e: ea 97        	add	a5, a5, s10
   177a0: 83 c6 07 00  	lbu	a3, 0x0(a5)
   177a4: 61 46        	li	a2, 0x18
   177a6: a2 84        	mv	s1, s0
   177a8: 9b 87 f6 ff  	addiw	a5, a3, -0x1
   177ac: 93 f7 f7 0f  	andi	a5, a5, 0xff
   177b0: e3 60 f6 e8  	bltu	a2, a5, 0x17630 <__gethex+0xba>
   177b4: 83 c7 15 00  	lbu	a5, 0x1(a1)
   177b8: c1 36        	addiw	a3, a3, -0x10
   177ba: 93 84 15 00  	addi	s1, a1, 0x1
   177be: ea 97        	add	a5, a5, s10
   177c0: 03 c6 07 00  	lbu	a2, 0x0(a5)
   177c4: e5 48        	li	a7, 0x19
   177c6: 1d c2        	beqz	a2, 0x177ec <__gethex+0x276>
   177c8: 63 c2 c8 02  	blt	a7, a2, 0x177ec <__gethex+0x276>
   177cc: 83 c5 14 00  	lbu	a1, 0x1(s1)
   177d0: 9b 97 26 00  	slliw	a5, a3, 0x2
   177d4: b5 9f        	addw	a5, a5, a3
   177d6: 9b 97 17 00  	slliw	a5, a5, 0x1
   177da: b3 06 bd 00  	add	a3, s10, a1
   177de: b1 9f        	addw	a5, a5, a2
   177e0: 03 c6 06 00  	lbu	a2, 0x0(a3)
   177e4: 85 04        	addi	s1, s1, 0x1
   177e6: 9b 86 07 ff  	addiw	a3, a5, -0x10
   177ea: 79 fe        	bnez	a2, 0x177c8 <__gethex+0x252>
   177ec: 19 c1        	beqz	a0, 0x177f2 <__gethex+0x27c>
   177ee: bb 06 d0 40  	negw	a3, a3
   177f2: 23 b0 9d 00  	sd	s1, 0x0(s11)
   177f6: bb 8a da 00  	addw	s5, s5, a3
   177fa: e3 0f 0b e2  	beqz	s6, 0x17638 <__gethex+0xc2>
   177fe: 13 b4 1c 00  	seqz	s0, s9
   17802: 33 04 80 40  	neg	s0, s0
   17806: 19 88        	andi	s0, s0, 0x6
   17808: aa 60        	ld	ra, 0x88(sp)
   1780a: 22 85        	mv	a0, s0
   1780c: 0a 64        	ld	s0, 0x80(sp)
   1780e: e6 74        	ld	s1, 0x78(sp)
   17810: 46 79        	ld	s2, 0x70(sp)
   17812: a6 79        	ld	s3, 0x68(sp)
   17814: 06 7a        	ld	s4, 0x60(sp)
   17816: e6 6a        	ld	s5, 0x58(sp)
   17818: 46 6b        	ld	s6, 0x50(sp)
   1781a: a6 6b        	ld	s7, 0x48(sp)
   1781c: 06 6c        	ld	s8, 0x40(sp)
   1781e: e2 7c        	ld	s9, 0x38(sp)
   17820: 42 7d        	ld	s10, 0x30(sp)
   17822: a2 7d        	ld	s11, 0x28(sp)
   17824: 49 61        	addi	sp, sp, 0x90
   17826: 82 80        	ret
   17828: b7 0b 02 00  	lui	s7, 0x20
   1782c: 05 46        	li	a2, 0x1
   1782e: 93 85 0b a2  	addi	a1, s7, -0x5e0
   17832: 62 85        	mv	a0, s8
   17834: ef f0 cf 93  	jal	0x16970 <strncmp>
   17838: 2a 8b        	mv	s6, a0
   1783a: 63 14 05 10  	bnez	a0, 0x17942 <__gethex+0x3cc>
   1783e: 83 47 1c 00  	lbu	a5, 0x1(s8)
   17842: 13 04 1c 00  	addi	s0, s8, 0x1
   17846: 33 07 fd 00  	add	a4, s10, a5
   1784a: 03 47 07 00  	lbu	a4, 0x0(a4)
   1784e: 63 0d 07 0e  	beqz	a4, 0x17948 <__gethex+0x3d2>
   17852: 13 07 00 03  	li	a4, 0x30
   17856: 22 8c        	mv	s8, s0
   17858: 63 94 e7 2c  	bne	a5, a4, 0x17b20 <__gethex+0x5aa>
   1785c: 83 47 1c 00  	lbu	a5, 0x1(s8)
   17860: 05 0c        	addi	s8, s8, 0x1
   17862: e3 8d e7 fe  	beq	a5, a4, 0x1785c <__gethex+0x2e6>
   17866: ea 97        	add	a5, a5, s10
   17868: 83 c7 07 00  	lbu	a5, 0x0(a5)
   1786c: 85 4c        	li	s9, 0x1
   1786e: 13 bb 17 00  	seqz	s6, a5
   17872: e3 9f 07 d6  	bnez	a5, 0x175f0 <__gethex+0x7a>
   17876: e1 a0        	j	0x1793e <__gethex+0x3c8>
   17878: 05 44        	li	s0, 0x1
   1787a: 63 07 0c 02  	beqz	s8, 0x178a8 <__gethex+0x332>
   1787e: 83 27 c9 00  	lw	a5, 0xc(s2)
   17882: 89 46        	li	a3, 0x2
   17884: 63 8b d7 0c  	beq	a5, a3, 0x1795a <__gethex+0x3e4>
   17888: 8d 46        	li	a3, 0x3
   1788a: 63 8c d7 0c  	beq	a5, a3, 0x17962 <__gethex+0x3ec>
   1788e: 85 46        	li	a3, 0x1
   17890: 63 9a d7 00  	bne	a5, a3, 0x178a4 <__gethex+0x32e>
   17894: 93 77 2c 00  	andi	a5, s8, 0x2
   17898: 91 c7        	beqz	a5, 0x178a4 <__gethex+0x32e>
   1789a: 9c 40        	lw	a5, 0x0(s1)
   1789c: b3 67 fc 00  	or	a5, s8, a5
   178a0: 85 8b        	andi	a5, a5, 0x1
   178a2: f1 e3        	bnez	a5, 0x17966 <__gethex+0x3f0>
   178a4: 13 64 04 01  	ori	s0, s0, 0x10
   178a8: a2 67        	ld	a5, 0x8(sp)
   178aa: 23 30 6a 01  	sd	s6, 0x0(s4)
   178ae: 23 a0 57 01  	sw	s5, 0x0(a5)
   178b2: 99 bf        	j	0x17808 <__gethex+0x292>
   178b4: bb 8c 76 41  	subw	s9, a3, s7
   178b8: e6 85        	mv	a1, s9
   178ba: 5a 85        	mv	a0, s6
   178bc: ef 10 a0 1b  	jal	0x18a76 <__any_on>
   178c0: 1b 0c 05 00  	sext.w	s8, a0
   178c4: 66 84        	mv	s0, s9
   178c6: 63 03 0c 02  	beqz	s8, 0x178ec <__gethex+0x376>
   178ca: 9b 86 fc ff  	addiw	a3, s9, -0x1
   178ce: 9b d7 56 40  	sraiw	a5, a3, 0x5
   178d2: 8a 07        	slli	a5, a5, 0x2
   178d4: a6 97        	add	a5, a5, s1
   178d6: 9c 43        	lw	a5, 0x0(a5)
   178d8: 05 46        	li	a2, 0x1
   178da: 3b 16 d6 00  	sllw	a2, a2, a3
   178de: f1 8f        	and	a5, a5, a2
   178e0: 81 27        	sext.w	a5, a5
   178e2: 05 4c        	li	s8, 0x1
   178e4: 81 c7        	beqz	a5, 0x178ec <__gethex+0x376>
   178e6: 63 44 dc 1c  	blt	s8, a3, 0x17aae <__gethex+0x538>
   178ea: 09 4c        	li	s8, 0x2
   178ec: e6 85        	mv	a1, s9
   178ee: 5a 85        	mv	a0, s6
   178f0: ef f0 7f be  	jal	0x174d6 <rshift>
   178f4: bb 0a 54 01  	addw	s5, s0, s5
   178f8: d9 bb        	j	0x176ce <__gethex+0x158>
   178fa: 93 05 14 00  	addi	a1, s0, 0x1
   178fe: 01 45        	li	a0, 0x0
   17900: 79 bd        	j	0x1779e <__gethex+0x228>
   17902: 9b 0d fd ff  	addiw	s11, s10, -0x1
   17906: 6e 84        	mv	s0, s11
   17908: 63 1a 0c 18  	bnez	s8, 0x17a9c <__gethex+0x526>
   1790c: 63 9a 0d 18  	bnez	s11, 0x17aa0 <__gethex+0x52a>
   17910: 9b 57 54 40  	sraiw	a5, s0, 0x5
   17914: 8a 07        	slli	a5, a5, 0x2
   17916: a6 97        	add	a5, a5, s1
   17918: 9c 43        	lw	a5, 0x0(a5)
   1791a: 05 47        	li	a4, 0x1
   1791c: 3b 17 b7 01  	sllw	a4, a4, s11
   17920: f9 8f        	and	a5, a5, a4
   17922: 81 27        	sext.w	a5, a5
   17924: 99 c3        	beqz	a5, 0x1792a <__gethex+0x3b4>
   17926: 13 6c 2c 00  	ori	s8, s8, 0x2
   1792a: ea 85        	mv	a1, s10
   1792c: 5a 85        	mv	a0, s6
   1792e: bb 8b 5b 41  	subw	s7, s7, s5
   17932: ef f0 5f ba  	jal	0x174d6 <rshift>
   17936: 09 44        	li	s0, 0x2
   17938: 83 2a 49 00  	lw	s5, 0x4(s2)
   1793c: 3d bf        	j	0x1787a <__gethex+0x304>
   1793e: e2 84        	mv	s1, s8
   17940: c1 b1        	j	0x17600 <__gethex+0x8a>
   17942: 83 47 0c 00  	lbu	a5, 0x0(s8)
   17946: 62 84        	mv	s0, s8
   17948: 93 f7 f7 0d  	andi	a5, a5, 0xdf
   1794c: 13 07 00 05  	li	a4, 0x50
   17950: 63 8a e7 16  	beq	a5, a4, 0x17ac4 <__gethex+0x54e>
   17954: 23 b0 8d 00  	sd	s0, 0x0(s11)
   17958: 5d b5        	j	0x177fe <__gethex+0x288>
   1795a: 42 67        	ld	a4, 0x10(sp)
   1795c: 85 47        	li	a5, 0x1
   1795e: 99 9f        	subw	a5, a5, a4
   17960: 3e e8        	sd	a5, 0x10(sp)
   17962: c2 67        	ld	a5, 0x10(sp)
   17964: a1 d3        	beqz	a5, 0x178a4 <__gethex+0x32e>
   17966: 83 2c 4b 01  	lw	s9, 0x14(s6)
   1796a: a6 87        	mv	a5, s1
   1796c: 7d 56        	li	a2, -0x1
   1796e: 13 9c 2c 00  	slli	s8, s9, 0x2
   17972: b3 85 84 01  	add	a1, s1, s8
   17976: 31 a0        	j	0x17982 <__gethex+0x40c>
   17978: 91 07        	addi	a5, a5, 0x4
   1797a: 23 ae 07 fe  	sw	zero, -0x4(a5)
   1797e: 63 fa b7 14  	bgeu	a5, a1, 0x17ad2 <__gethex+0x55c>
   17982: 94 43        	lw	a3, 0x0(a5)
   17984: e3 8a c6 fe  	beq	a3, a2, 0x17978 <__gethex+0x402>
   17988: 85 26        	addiw	a3, a3, 0x1
   1798a: 94 c3        	sw	a3, 0x0(a5)
   1798c: 89 47        	li	a5, 0x2
   1798e: 63 03 f4 16  	beq	s0, a5, 0x17af4 <__gethex+0x57e>
   17992: 83 27 4b 01  	lw	a5, 0x14(s6)
   17996: 63 c9 fc 08  	blt	s9, a5, 0x17a28 <__gethex+0x4b2>
   1799a: 93 fb fb 01  	andi	s7, s7, 0x1f
   1799e: 63 98 0b 06  	bnez	s7, 0x17a0e <__gethex+0x498>
   179a2: 13 04 10 02  	li	s0, 0x21
   179a6: 09 b7        	j	0x178a8 <__gethex+0x332>
   179a8: c2 67        	ld	a5, 0x10(sp)
   179aa: e3 89 07 d6  	beqz	a5, 0x1771c <__gethex+0x1a6>
   179ae: da 85        	mv	a1, s6
   179b0: 4e 85        	mv	a0, s3
   179b2: ef 00 40 49  	jal	0x17e46 <_Bfree>
   179b6: 13 04 00 05  	li	s0, 0x50
   179ba: 23 30 0a 00  	sd	zero, 0x0(s4)
   179be: a9 b5        	j	0x17808 <__gethex+0x292>
   179c0: 01 45        	li	a0, 0x0
   179c2: d1 bb        	j	0x17796 <__gethex+0x220>
   179c4: 3b 86 db 40  	subw	a2, s7, a3
   179c8: da 85        	mv	a1, s6
   179ca: 4e 85        	mv	a0, s3
   179cc: 32 84        	mv	s0, a2
   179ce: ef 00 70 24  	jal	0x18414 <__lshift>
   179d2: 2a 8b        	mv	s6, a0
   179d4: bb 8a 8a 40  	subw	s5, s5, s0
   179d8: 93 04 85 01  	addi	s1, a0, 0x18
   179dc: cd b9        	j	0x176ce <__gethex+0x158>
   179de: 83 c7 14 00  	lbu	a5, 0x1(s1)
   179e2: 13 84 14 00  	addi	s0, s1, 0x1
   179e6: a2 84        	mv	s1, s0
   179e8: b3 06 fd 00  	add	a3, s10, a5
   179ec: 83 c6 06 00  	lbu	a3, 0x0(a3)
   179f0: e3 89 06 c2  	beqz	a3, 0x17622 <__gethex+0xac>
   179f4: 83 c7 14 00  	lbu	a5, 0x1(s1)
   179f8: 85 04        	addi	s1, s1, 0x1
   179fa: 33 07 fd 00  	add	a4, s10, a5
   179fe: 03 47 07 00  	lbu	a4, 0x0(a4)
   17a02: 6d fb        	bnez	a4, 0x179f4 <__gethex+0x47e>
   17a04: 19 b9        	j	0x1761a <__gethex+0xa4>
   17a06: 13 8c 2c 00  	addi	s8, s9, 0x2
   17a0a: 81 4c        	li	s9, 0x0
   17a0c: 75 be        	j	0x175c8 <__gethex+0x52>
   17a0e: 26 9c        	add	s8, s8, s1
   17a10: 03 25 cc ff  	lw	a0, -0x4(s8)
   17a14: ef 00 80 61  	jal	0x1802c <__hi0bits>
   17a18: 93 07 00 02  	li	a5, 0x20
   17a1c: bb 87 77 41  	subw	a5, a5, s7
   17a20: e3 51 f5 f8  	bge	a0, a5, 0x179a2 <__gethex+0x42c>
   17a24: 83 27 4b 01  	lw	a5, 0x14(s6)
   17a28: 63 57 f0 12  	blez	a5, 0x17b56 <__gethex+0x5e0>
   17a2c: 83 26 8b 01  	lw	a3, 0x18(s6)
   17a30: 8a 07        	slli	a5, a5, 0x2
   17a32: a6 97        	add	a5, a5, s1
   17a34: 13 06 cb 01  	addi	a2, s6, 0x1c
   17a38: 9b d5 16 00  	srliw	a1, a3, 0x1
   17a3c: 9b d6 16 00  	srliw	a3, a3, 0x1
   17a40: 63 70 f6 12  	bgeu	a2, a5, 0x17b60 <__gethex+0x5ea>
   17a44: 0c 42        	lw	a1, 0x0(a2)
   17a46: 11 06        	addi	a2, a2, 0x4
   17a48: 1b 95 f5 01  	slliw	a0, a1, 0x1f
   17a4c: c9 8e        	or	a3, a3, a0
   17a4e: 23 2c d6 fe  	sw	a3, -0x8(a2)
   17a52: 1b d5 15 00  	srliw	a0, a1, 0x1
   17a56: 9b d6 15 00  	srliw	a3, a1, 0x1
   17a5a: e3 65 f6 fe  	bltu	a2, a5, 0x17a44 <__gethex+0x4ce>
   17a5e: b3 87 67 41  	sub	a5, a5, s6
   17a62: 8d 17        	addi	a5, a5, -0x1d
   17a64: f1 9b        	andi	a5, a5, -0x4
   17a66: 91 07        	addi	a5, a5, 0x4
   17a68: a6 97        	add	a5, a5, s1
   17a6a: 88 c3        	sw	a0, 0x0(a5)
   17a6c: 91 c2        	beqz	a3, 0x17a70 <__gethex+0x4fa>
   17a6e: 91 07        	addi	a5, a5, 0x4
   17a70: 85 8f        	sub	a5, a5, s1
   17a72: 89 87        	srai	a5, a5, 0x2
   17a74: 81 27        	sext.w	a5, a5
   17a76: 23 2a fb 00  	sw	a5, 0x14(s6)
   17a7a: e5 c3        	beqz	a5, 0x17b5a <__gethex+0x5e4>
   17a7c: 83 27 89 00  	lw	a5, 0x8(s2)
   17a80: 85 2a        	addiw	s5, s5, 0x1
   17a82: e3 d0 57 f3  	bge	a5, s5, 0x179a2 <__gethex+0x42c>
   17a86: da 85        	mv	a1, s6
   17a88: 4e 85        	mv	a0, s3
   17a8a: ef 00 c0 3b  	jal	0x17e46 <_Bfree>
   17a8e: 13 04 30 0a  	li	s0, 0xa3
   17a92: 23 30 0a 00  	sd	zero, 0x0(s4)
   17a96: 8d bb        	j	0x17808 <__gethex+0x292>
   17a98: 81 4d        	li	s11, 0x0
   17a9a: 19 b1        	j	0x176a0 <__gethex+0x12a>
   17a9c: 05 4c        	li	s8, 0x1
   17a9e: 8d bd        	j	0x17910 <__gethex+0x39a>
   17aa0: ee 85        	mv	a1, s11
   17aa2: 5a 85        	mv	a0, s6
   17aa4: ef 00 30 7d  	jal	0x18a76 <__any_on>
   17aa8: 1b 0c 05 00  	sext.w	s8, a0
   17aac: 95 b5        	j	0x17910 <__gethex+0x39a>
   17aae: 9b 85 ec ff  	addiw	a1, s9, -0x2
   17ab2: 5a 85        	mv	a0, s6
   17ab4: ef 00 30 7c  	jal	0x18a76 <__any_on>
   17ab8: 9b 07 05 00  	sext.w	a5, a0
   17abc: e3 87 07 e2  	beqz	a5, 0x178ea <__gethex+0x374>
   17ac0: 0d 4c        	li	s8, 0x3
   17ac2: 2d b5        	j	0x178ec <__gethex+0x376>
   17ac4: 81 4a        	li	s5, 0x0
   17ac6: 05 4b        	li	s6, 0x1
   17ac8: 65 b9        	j	0x17780 <__gethex+0x20a>
   17aca: c2 67        	ld	a5, 0x10(sp)
   17acc: e3 81 07 ee  	beqz	a5, 0x179ae <__gethex+0x438>
   17ad0: b1 b1        	j	0x1771c <__gethex+0x1a6>
   17ad2: 83 27 4b 01  	lw	a5, 0x14(s6)
   17ad6: 83 26 cb 00  	lw	a3, 0xc(s6)
   17ada: 63 d5 d7 04  	bge	a5, a3, 0x17b24 <__gethex+0x5ae>
   17ade: 93 86 47 00  	addi	a3, a5, 0x4
   17ae2: 8a 06        	slli	a3, a3, 0x2
   17ae4: 85 27        	addiw	a5, a5, 0x1
   17ae6: 23 2a fb 00  	sw	a5, 0x14(s6)
   17aea: b3 07 db 00  	add	a5, s6, a3
   17aee: 85 46        	li	a3, 0x1
   17af0: 94 c7        	sw	a3, 0x8(a5)
   17af2: 69 bd        	j	0x1798c <__gethex+0x416>
   17af4: 83 27 09 00  	lw	a5, 0x0(s2)
   17af8: 13 04 20 02  	li	s0, 0x22
   17afc: fd 37        	addiw	a5, a5, -0x1
   17afe: e3 95 77 db  	bne	a5, s7, 0x178a8 <__gethex+0x332>
   17b02: 93 d7 5b 40  	srai	a5, s7, 0x5
   17b06: 8a 07        	slli	a5, a5, 0x2
   17b08: a6 97        	add	a5, a5, s1
   17b0a: 9c 43        	lw	a5, 0x0(a5)
   17b0c: 85 46        	li	a3, 0x1
   17b0e: bb 96 76 01  	sllw	a3, a3, s7
   17b12: f5 8f        	and	a5, a5, a3
   17b14: 81 27        	sext.w	a5, a5
   17b16: e3 89 07 d8  	beqz	a5, 0x178a8 <__gethex+0x332>
   17b1a: 13 04 10 02  	li	s0, 0x21
   17b1e: 69 b3        	j	0x178a8 <__gethex+0x332>
   17b20: 85 4c        	li	s9, 0x1
   17b22: f9 b4        	j	0x175f0 <__gethex+0x7a>
   17b24: 83 25 8b 00  	lw	a1, 0x8(s6)
   17b28: 4e 85        	mv	a0, s3
   17b2a: 85 25        	addiw	a1, a1, 0x1
   17b2c: ef 00 60 2b  	jal	0x17de2 <_Balloc>
   17b30: aa 84        	mv	s1, a0
   17b32: 31 c9        	beqz	a0, 0x17b86 <__gethex+0x610>
   17b34: 03 26 4b 01  	lw	a2, 0x14(s6)
   17b38: 93 05 0b 01  	addi	a1, s6, 0x10
   17b3c: 41 05        	addi	a0, a0, 0x10
   17b3e: 09 06        	addi	a2, a2, 0x2
   17b40: 0a 06        	slli	a2, a2, 0x2
   17b42: ef f0 af ab  	jal	0x16dfc <memcpy>
   17b46: da 85        	mv	a1, s6
   17b48: 4e 85        	mv	a0, s3
   17b4a: ef 00 c0 2f  	jal	0x17e46 <_Bfree>
   17b4e: dc 48        	lw	a5, 0x14(s1)
   17b50: 26 8b        	mv	s6, s1
   17b52: e1 04        	addi	s1, s1, 0x18
   17b54: 69 b7        	j	0x17ade <__gethex+0x568>
   17b56: 23 2a 0b 00  	sw	zero, 0x14(s6)
   17b5a: 23 2c 0b 00  	sw	zero, 0x18(s6)
   17b5e: 39 bf        	j	0x17a7c <__gethex+0x506>
   17b60: 23 2c bb 00  	sw	a1, 0x18(s6)
   17b64: ed da        	beqz	a3, 0x17b56 <__gethex+0x5e0>
   17b66: a6 87        	mv	a5, s1
   17b68: 91 07        	addi	a5, a5, 0x4
   17b6a: 19 b7        	j	0x17a70 <__gethex+0x4fa>
   17b6c: b7 06 02 00  	lui	a3, 0x20
   17b70: 37 05 02 00  	lui	a0, 0x20
   17b74: 93 86 86 a5  	addi	a3, a3, -0x5a8
   17b78: 01 46        	li	a2, 0x0
   17b7a: 93 05 40 0e  	li	a1, 0xe4
   17b7e: 13 05 05 a7  	addi	a0, a0, -0x590
   17b82: ef 40 60 45  	jal	0x1bfd8 <__assert_func>
   17b86: b7 06 02 00  	lui	a3, 0x20
   17b8a: 37 05 02 00  	lui	a0, 0x20
   17b8e: 93 86 86 a5  	addi	a3, a3, -0x5a8
   17b92: 01 46        	li	a2, 0x0
   17b94: 93 05 40 08  	li	a1, 0x84
   17b98: 13 05 05 a7  	addi	a0, a0, -0x590
   17b9c: ef 40 c0 43  	jal	0x1bfd8 <__assert_func>

0000000000017ba0 <__match>:
   17ba0: 14 61        	ld	a3, 0x0(a0)
   17ba2: 65 48        	li	a6, 0x19
   17ba4: 03 c6 05 00  	lbu	a2, 0x0(a1)
   17ba8: 85 06        	addi	a3, a3, 0x1
   17baa: 85 05        	addi	a1, a1, 0x1
   17bac: 05 c2        	beqz	a2, 0x17bcc <__match+0x2c>
   17bae: 83 c7 06 00  	lbu	a5, 0x0(a3)
   17bb2: 1b 87 f7 fb  	addiw	a4, a5, -0x41
   17bb6: 13 77 f7 0f  	andi	a4, a4, 0xff
   17bba: 81 27        	sext.w	a5, a5
   17bbc: 63 64 e8 00  	bltu	a6, a4, 0x17bc4 <__match+0x24>
   17bc0: 93 87 07 02  	addi	a5, a5, 0x20
   17bc4: e3 80 c7 fe  	beq	a5, a2, 0x17ba4 <__match+0x4>
   17bc8: 01 45        	li	a0, 0x0
   17bca: 82 80        	ret
   17bcc: 14 e1        	sd	a3, 0x0(a0)
   17bce: 05 45        	li	a0, 0x1
   17bd0: 82 80        	ret

0000000000017bd2 <__hexnan>:
   17bd2: 79 71        	addi	sp, sp, -0x30
   17bd4: 22 f4        	sd	s0, 0x28(sp)
   17bd6: 80 41        	lw	s0, 0x0(a1)
   17bd8: 93 57 54 40  	srai	a5, s0, 0x5
   17bdc: 8a 07        	slli	a5, a5, 0x2
   17bde: 7d 88        	andi	s0, s0, 0x1f
   17be0: b2 97        	add	a5, a5, a2
   17be2: 63 16 04 12  	bnez	s0, 0x17d0e <__hexnan+0x13c>
   17be6: 93 88 c7 ff  	addi	a7, a5, -0x4
   17bea: be 83        	mv	t2, a5
   17bec: 18 61        	ld	a4, 0x0(a0)
   17bee: 23 ae 03 fe  	sw	zero, -0x4(t2)
   17bf2: 83 47 17 00  	lbu	a5, 0x1(a4)
   17bf6: 63 83 07 14  	beqz	a5, 0x17d3c <__hexnan+0x16a>
   17bfa: b7 0e 02 00  	lui	t4, 0x20
   17bfe: 26 f0        	sd	s1, 0x20(sp)
   17c00: 46 8e        	mv	t3, a7
   17c02: c6 85        	mv	a1, a7
   17c04: 01 48        	li	a6, 0x0
   17c06: 01 4f        	li	t5, 0x0
   17c08: 01 43        	li	t1, 0x0
   17c0a: 93 8e 0e e2  	addi	t4, t4, -0x1e0
   17c0e: a1 42        	li	t0, 0x8
   17c10: 93 0f 00 02  	li	t6, 0x20
   17c14: 9d 44        	li	s1, 0x7
   17c16: 3d a0        	j	0x17c44 <__hexnan+0x72>
   17c18: 63 ed ff 10  	bltu	t6, a5, 0x17d32 <__hexnan+0x160>
   17c1c: 63 50 6f 02  	bge	t5, t1, 0x17c3c <__hexnan+0x6a>
   17c20: 63 f4 c5 01  	bgeu	a1, t3, 0x17c28 <__hexnan+0x56>
   17c24: 63 d3 04 0b  	bge	s1, a6, 0x17cca <__hexnan+0xf8>
   17c28: 21 48        	li	a6, 0x8
   17c2a: 63 79 b6 00  	bgeu	a2, a1, 0x17c3c <__hexnan+0x6a>
   17c2e: 13 8e c5 ff  	addi	t3, a1, -0x4
   17c32: 23 ae 05 fe  	sw	zero, -0x4(a1)
   17c36: 1a 8f        	mv	t5, t1
   17c38: f2 85        	mv	a1, t3
   17c3a: 01 48        	li	a6, 0x0
   17c3c: 83 47 27 00  	lbu	a5, 0x2(a4)
   17c40: 05 07        	addi	a4, a4, 0x1
   17c42: 85 c7        	beqz	a5, 0x17c6a <__hexnan+0x98>
   17c44: b3 86 fe 00  	add	a3, t4, a5
   17c48: 83 c6 06 00  	lbu	a3, 0x0(a3)
   17c4c: f1 d6        	beqz	a3, 0x17c18 <__hexnan+0x46>
   17c4e: 05 28        	addiw	a6, a6, 0x1
   17c50: 05 23        	addiw	t1, t1, 0x1
   17c52: 63 c4 02 07  	blt	t0, a6, 0x17cba <__hexnan+0xe8>
   17c56: 9c 41        	lw	a5, 0x0(a1)
   17c58: 9b 97 47 00  	slliw	a5, a5, 0x4
   17c5c: bd 8a        	andi	a3, a3, 0xf
   17c5e: d5 8f        	or	a5, a5, a3
   17c60: 9c c1        	sw	a5, 0x0(a1)
   17c62: 83 47 27 00  	lbu	a5, 0x2(a4)
   17c66: 05 07        	addi	a4, a4, 0x1
   17c68: f1 ff        	bnez	a5, 0x17c44 <__hexnan+0x72>
   17c6a: 63 08 03 0c  	beqz	t1, 0x17d3a <__hexnan+0x168>
   17c6e: 63 f5 c5 01  	bgeu	a1, t3, 0x17c78 <__hexnan+0xa6>
   17c72: 9d 47        	li	a5, 0x7
   17c74: 63 d8 07 0f  	bge	a5, a6, 0x17d64 <__hexnan+0x192>
   17c78: 63 7f b6 08  	bgeu	a2, a1, 0x17d16 <__hexnan+0x144>
   17c7c: 32 87        	mv	a4, a2
   17c7e: ae 87        	mv	a5, a1
   17c80: 94 43        	lw	a3, 0x0(a5)
   17c82: 91 07        	addi	a5, a5, 0x4
   17c84: 11 07        	addi	a4, a4, 0x4
   17c86: 23 2e d7 fe  	sw	a3, -0x4(a4)
   17c8a: e3 fb f8 fe  	bgeu	a7, a5, 0x17c80 <__hexnan+0xae>
   17c8e: 93 86 15 00  	addi	a3, a1, 0x1
   17c92: 13 87 18 00  	addi	a4, a7, 0x1
   17c96: 91 47        	li	a5, 0x4
   17c98: 63 71 d7 0c  	bgeu	a4, a3, 0x17d5a <__hexnan+0x188>
   17c9c: b2 97        	add	a5, a5, a2
   17c9e: 91 07        	addi	a5, a5, 0x4
   17ca0: 23 ae 07 fe  	sw	zero, -0x4(a5)
   17ca4: e3 fd f8 fe  	bgeu	a7, a5, 0x17c9e <__hexnan+0xcc>
   17ca8: 83 a7 c3 ff  	lw	a5, -0x4(t2)
   17cac: d9 ef        	bnez	a5, 0x17d4a <__hexnan+0x178>
   17cae: 63 0b 16 09  	beq	a2, a7, 0x17d44 <__hexnan+0x172>
   17cb2: 83 a7 c8 ff  	lw	a5, -0x4(a7)
   17cb6: f1 18        	addi	a7, a7, -0x4
   17cb8: d5 bf        	j	0x17cac <__hexnan+0xda>
   17cba: e3 71 b6 f8  	bgeu	a2, a1, 0x17c3c <__hexnan+0x6a>
   17cbe: 23 ae 05 fe  	sw	zero, -0x4(a1)
   17cc2: 81 47        	li	a5, 0x0
   17cc4: f1 15        	addi	a1, a1, -0x4
   17cc6: 05 48        	li	a6, 0x1
   17cc8: 51 bf        	j	0x17c5c <__hexnan+0x8a>
   17cca: a1 47        	li	a5, 0x8
   17ccc: bb 87 07 41  	subw	a5, a5, a6
   17cd0: 03 a8 05 00  	lw	a6, 0x0(a1)
   17cd4: 4e e8        	sd	s3, 0x10(sp)
   17cd6: 52 e4        	sd	s4, 0x8(sp)
   17cd8: 93 09 00 02  	li	s3, 0x20
   17cdc: 1b 9a 27 00  	slliw	s4, a5, 0x2
   17ce0: 4a ec        	sd	s2, 0x18(sp)
   17ce2: bb 89 49 41  	subw	s3, s3, s4
   17ce6: ae 87        	mv	a5, a1
   17ce8: d4 43        	lw	a3, 0x4(a5)
   17cea: 91 07        	addi	a5, a5, 0x4
   17cec: 3b 99 36 01  	sllw	s2, a3, s3
   17cf0: 33 68 28 01  	or	a6, a6, s2
   17cf4: bb d6 46 01  	srlw	a3, a3, s4
   17cf8: 23 ae 07 ff  	sw	a6, -0x4(a5)
   17cfc: 94 c3        	sw	a3, 0x0(a5)
   17cfe: 1b 88 06 00  	sext.w	a6, a3
   17d02: e3 e3 c7 ff  	bltu	a5, t3, 0x17ce8 <__hexnan+0x116>
   17d06: 62 69        	ld	s2, 0x18(sp)
   17d08: c2 69        	ld	s3, 0x10(sp)
   17d0a: 22 6a        	ld	s4, 0x8(sp)
   17d0c: 31 bf        	j	0x17c28 <__hexnan+0x56>
   17d0e: 93 83 47 00  	addi	t2, a5, 0x4
   17d12: be 88        	mv	a7, a5
   17d14: e1 bd        	j	0x17bec <__hexnan+0x1a>
   17d16: 83 a7 c3 ff  	lw	a5, -0x4(t2)
   17d1a: 49 d8        	beqz	s0, 0x17cac <__hexnan+0xda>
   17d1c: 93 06 00 02  	li	a3, 0x20
   17d20: 81 9e        	subw	a3, a3, s0
   17d22: 7d 57        	li	a4, -0x1
   17d24: 3b 57 d7 00  	srlw	a4, a4, a3
   17d28: f9 8f        	and	a5, a5, a4
   17d2a: 81 27        	sext.w	a5, a5
   17d2c: 23 ae f3 fe  	sw	a5, -0x4(t2)
   17d30: b5 bf        	j	0x17cac <__hexnan+0xda>
   17d32: 93 06 90 02  	li	a3, 0x29
   17d36: 63 8f d7 00  	beq	a5, a3, 0x17d54 <__hexnan+0x182>
   17d3a: 82 74        	ld	s1, 0x20(sp)
   17d3c: 22 74        	ld	s0, 0x28(sp)
   17d3e: 11 45        	li	a0, 0x4
   17d40: 45 61        	addi	sp, sp, 0x30
   17d42: 82 80        	ret
   17d44: 85 47        	li	a5, 0x1
   17d46: 23 a0 f8 00  	sw	a5, 0x0(a7)
   17d4a: 22 74        	ld	s0, 0x28(sp)
   17d4c: 82 74        	ld	s1, 0x20(sp)
   17d4e: 15 45        	li	a0, 0x5
   17d50: 45 61        	addi	sp, sp, 0x30
   17d52: 82 80        	ret
   17d54: 09 07        	addi	a4, a4, 0x2
   17d56: 18 e1        	sd	a4, 0x0(a0)
   17d58: 09 bf        	j	0x17c6a <__hexnan+0x98>
   17d5a: b3 87 b8 40  	sub	a5, a7, a1
   17d5e: f1 9b        	andi	a5, a5, -0x4
   17d60: 91 07        	addi	a5, a5, 0x4
   17d62: 2d bf        	j	0x17c9c <__hexnan+0xca>
   17d64: a1 47        	li	a5, 0x8
   17d66: bb 87 07 41  	subw	a5, a5, a6
   17d6a: 94 41        	lw	a3, 0x0(a1)
   17d6c: 1b 93 27 00  	slliw	t1, a5, 0x2
   17d70: 13 08 00 02  	li	a6, 0x20
   17d74: 3b 08 68 40  	subw	a6, a6, t1
   17d78: ae 87        	mv	a5, a1
   17d7a: d8 43        	lw	a4, 0x4(a5)
   17d7c: 91 07        	addi	a5, a5, 0x4
   17d7e: 3b 15 07 01  	sllw	a0, a4, a6
   17d82: c9 8e        	or	a3, a3, a0
   17d84: 3b 57 67 00  	srlw	a4, a4, t1
   17d88: 23 ae d7 fe  	sw	a3, -0x4(a5)
   17d8c: 98 c3        	sw	a4, 0x0(a5)
   17d8e: 9b 06 07 00  	sext.w	a3, a4
   17d92: e3 e4 c7 ff  	bltu	a5, t3, 0x17d7a <__hexnan+0x1a8>
   17d96: e3 63 b6 ee  	bltu	a2, a1, 0x17c7c <__hexnan+0xaa>
   17d9a: b5 bf        	j	0x17d16 <__hexnan+0x144>

0000000000017d9c <_mbtowc_r>:
   17d9c: 83 b7 81 e6  	ld	a5, -0x198(gp)
   17da0: 82 87        	jr	a5

0000000000017da2 <__ascii_mbtowc>:
   17da2: 99 c9        	beqz	a1, 0x17db8 <__ascii_mbtowc+0x16>
   17da4: 1d c6        	beqz	a2, 0x17dd2 <__ascii_mbtowc+0x30>
   17da6: 95 ca        	beqz	a3, 0x17dda <__ascii_mbtowc+0x38>
   17da8: 83 47 06 00  	lbu	a5, 0x0(a2)
   17dac: 9c c1        	sw	a5, 0x0(a1)
   17dae: 03 45 06 00  	lbu	a0, 0x0(a2)
   17db2: 33 35 a0 00  	snez	a0, a0
   17db6: 82 80        	ret
   17db8: 41 11        	addi	sp, sp, -0x10
   17dba: 6c 00        	addi	a1, sp, 0xc
   17dbc: 09 ce        	beqz	a2, 0x17dd6 <__ascii_mbtowc+0x34>
   17dbe: 85 c2        	beqz	a3, 0x17dde <__ascii_mbtowc+0x3c>
   17dc0: 83 47 06 00  	lbu	a5, 0x0(a2)
   17dc4: 9c c1        	sw	a5, 0x0(a1)
   17dc6: 03 45 06 00  	lbu	a0, 0x0(a2)
   17dca: 33 35 a0 00  	snez	a0, a0
   17dce: 41 01        	addi	sp, sp, 0x10
   17dd0: 82 80        	ret
   17dd2: 01 45        	li	a0, 0x0
   17dd4: 82 80        	ret
   17dd6: 01 45        	li	a0, 0x0
   17dd8: dd bf        	j	0x17dce <__ascii_mbtowc+0x2c>
   17dda: 79 55        	li	a0, -0x2
   17ddc: 82 80        	ret
   17dde: 79 55        	li	a0, -0x2
   17de0: fd b7        	j	0x17dce <__ascii_mbtowc+0x2c>

0000000000017de2 <_Balloc>:
   17de2: 3c 75        	ld	a5, 0x68(a0)
   17de4: 01 11        	addi	sp, sp, -0x20
   17de6: 22 e8        	sd	s0, 0x10(sp)
   17de8: 26 e4        	sd	s1, 0x8(sp)
   17dea: 06 ec        	sd	ra, 0x18(sp)
   17dec: aa 84        	mv	s1, a0
   17dee: 2e 84        	mv	s0, a1
   17df0: 99 cf        	beqz	a5, 0x17e0e <_Balloc+0x2c>
   17df2: 13 17 34 00  	slli	a4, s0, 0x3
   17df6: ba 97        	add	a5, a5, a4
   17df8: 88 63        	ld	a0, 0x0(a5)
   17dfa: 05 c5        	beqz	a0, 0x17e22 <_Balloc+0x40>
   17dfc: 18 61        	ld	a4, 0x0(a0)
   17dfe: 98 e3        	sd	a4, 0x0(a5)
   17e00: 23 38 05 00  	sd	zero, 0x10(a0)
   17e04: e2 60        	ld	ra, 0x18(sp)
   17e06: 42 64        	ld	s0, 0x10(sp)
   17e08: a2 64        	ld	s1, 0x8(sp)
   17e0a: 05 61        	addi	sp, sp, 0x20
   17e0c: 82 80        	ret
   17e0e: 13 06 10 04  	li	a2, 0x41
   17e12: a1 45        	li	a1, 0x8
   17e14: ef 40 20 21  	jal	0x1c026 <_calloc_r>
   17e18: a8 f4        	sd	a0, 0x68(s1)
   17e1a: aa 87        	mv	a5, a0
   17e1c: 79 f9        	bnez	a0, 0x17df2 <_Balloc+0x10>
   17e1e: 01 45        	li	a0, 0x0
   17e20: d5 b7        	j	0x17e04 <_Balloc+0x22>
   17e22: 85 47        	li	a5, 0x1
   17e24: bb 97 87 00  	sllw	a5, a5, s0
   17e28: 1b 86 07 00  	sext.w	a2, a5
   17e2c: 1d 06        	addi	a2, a2, 0x7
   17e2e: 02 14        	slli	s0, s0, 0x20
   17e30: 82 17        	slli	a5, a5, 0x20
   17e32: 01 90        	srli	s0, s0, 0x20
   17e34: 0a 06        	slli	a2, a2, 0x2
   17e36: 85 45        	li	a1, 0x1
   17e38: 26 85        	mv	a0, s1
   17e3a: 5d 8c        	or	s0, s0, a5
   17e3c: ef 40 a0 1e  	jal	0x1c026 <_calloc_r>
   17e40: 79 dd        	beqz	a0, 0x17e1e <_Balloc+0x3c>
   17e42: 00 e5        	sd	s0, 0x8(a0)
   17e44: 75 bf        	j	0x17e00 <_Balloc+0x1e>

0000000000017e46 <_Bfree>:
   17e46: 81 c9        	beqz	a1, 0x17e56 <_Bfree+0x10>
   17e48: 98 45        	lw	a4, 0x8(a1)
   17e4a: 3c 75        	ld	a5, 0x68(a0)
   17e4c: 0e 07        	slli	a4, a4, 0x3
   17e4e: ba 97        	add	a5, a5, a4
   17e50: 98 63        	ld	a4, 0x0(a5)
   17e52: 98 e1        	sd	a4, 0x0(a1)
   17e54: 8c e3        	sd	a1, 0x0(a5)
   17e56: 82 80        	ret

0000000000017e58 <__multadd>:
   17e58: 79 71        	addi	sp, sp, -0x30
   17e5a: 22 f0        	sd	s0, 0x20(sp)
   17e5c: c0 49        	lw	s0, 0x14(a1)
   17e5e: 41 63        	lui	t1, 0x10
   17e60: 4a e8        	sd	s2, 0x10(sp)
   17e62: 4e e4        	sd	s3, 0x8(sp)
   17e64: 06 f4        	sd	ra, 0x28(sp)
   17e66: 26 ec        	sd	s1, 0x18(sp)
   17e68: 2e 89        	mv	s2, a1
   17e6a: aa 89        	mv	s3, a0
   17e6c: 13 88 85 01  	addi	a6, a1, 0x18
   17e70: 81 48        	li	a7, 0x0
   17e72: 7d 13        	addi	t1, t1, -0x1
   17e74: 83 27 08 00  	lw	a5, 0x0(a6)
   17e78: 11 08        	addi	a6, a6, 0x4
   17e7a: 85 28        	addiw	a7, a7, 0x1
   17e7c: 33 f7 67 00  	and	a4, a5, t1
   17e80: 3b 07 c7 02  	mulw	a4, a4, a2
   17e84: 9b d7 07 01  	srliw	a5, a5, 0x10
   17e88: bb 87 c7 02  	mulw	a5, a5, a2
   17e8c: 35 9f        	addw	a4, a4, a3
   17e8e: 9b 56 07 01  	srliw	a3, a4, 0x10
   17e92: 33 77 e3 00  	and	a4, t1, a4
   17e96: b5 9f        	addw	a5, a5, a3
   17e98: 9b 96 07 01  	slliw	a3, a5, 0x10
   17e9c: 35 9f        	addw	a4, a4, a3
   17e9e: 23 2e e8 fe  	sw	a4, -0x4(a6)
   17ea2: 9b d4 07 01  	srliw	s1, a5, 0x10
   17ea6: 9b d6 07 01  	srliw	a3, a5, 0x10
   17eaa: e3 c5 88 fc  	blt	a7, s0, 0x17e74 <__multadd+0x1c>
   17eae: 89 ce        	beqz	a3, 0x17ec8 <__multadd+0x70>
   17eb0: 83 27 c9 00  	lw	a5, 0xc(s2)
   17eb4: 63 52 f4 02  	bge	s0, a5, 0x17ed8 <__multadd+0x80>
   17eb8: 93 07 44 00  	addi	a5, s0, 0x4
   17ebc: 8a 07        	slli	a5, a5, 0x2
   17ebe: ca 97        	add	a5, a5, s2
   17ec0: 84 c7        	sw	s1, 0x8(a5)
   17ec2: 05 24        	addiw	s0, s0, 0x1
   17ec4: 23 2a 89 00  	sw	s0, 0x14(s2)
   17ec8: a2 70        	ld	ra, 0x28(sp)
   17eca: 02 74        	ld	s0, 0x20(sp)
   17ecc: e2 64        	ld	s1, 0x18(sp)
   17ece: a2 69        	ld	s3, 0x8(sp)
   17ed0: 4a 85        	mv	a0, s2
   17ed2: 42 69        	ld	s2, 0x10(sp)
   17ed4: 45 61        	addi	sp, sp, 0x30
   17ed6: 82 80        	ret
   17ed8: 83 25 89 00  	lw	a1, 0x8(s2)
   17edc: 4e 85        	mv	a0, s3
   17ede: 52 e0        	sd	s4, 0x0(sp)
   17ee0: 85 25        	addiw	a1, a1, 0x1
   17ee2: ef f0 1f f0  	jal	0x17de2 <_Balloc>
   17ee6: 2a 8a        	mv	s4, a0
   17ee8: 21 c1        	beqz	a0, 0x17f28 <__multadd+0xd0>
   17eea: 03 26 49 01  	lw	a2, 0x14(s2)
   17eee: 93 05 09 01  	addi	a1, s2, 0x10
   17ef2: 41 05        	addi	a0, a0, 0x10
   17ef4: 09 06        	addi	a2, a2, 0x2
   17ef6: 0a 06        	slli	a2, a2, 0x2
   17ef8: ef e0 5f f0  	jal	0x16dfc <memcpy>
   17efc: 03 27 89 00  	lw	a4, 0x8(s2)
   17f00: 83 b7 89 06  	ld	a5, 0x68(s3)
   17f04: 0e 07        	slli	a4, a4, 0x3
   17f06: ba 97        	add	a5, a5, a4
   17f08: 98 63        	ld	a4, 0x0(a5)
   17f0a: 23 30 e9 00  	sd	a4, 0x0(s2)
   17f0e: 23 b0 27 01  	sd	s2, 0x0(a5)
   17f12: 93 07 44 00  	addi	a5, s0, 0x4
   17f16: 52 89        	mv	s2, s4
   17f18: 8a 07        	slli	a5, a5, 0x2
   17f1a: ca 97        	add	a5, a5, s2
   17f1c: 02 6a        	ld	s4, 0x0(sp)
   17f1e: 05 24        	addiw	s0, s0, 0x1
   17f20: 84 c7        	sw	s1, 0x8(a5)
   17f22: 23 2a 89 00  	sw	s0, 0x14(s2)
   17f26: 4d b7        	j	0x17ec8 <__multadd+0x70>
   17f28: b7 06 02 00  	lui	a3, 0x20
   17f2c: 37 05 02 00  	lui	a0, 0x20
   17f30: 93 86 86 a5  	addi	a3, a3, -0x5a8
   17f34: 01 46        	li	a2, 0x0
   17f36: 93 05 a0 0b  	li	a1, 0xba
   17f3a: 13 05 85 ad  	addi	a0, a0, -0x528
   17f3e: ef 40 a0 09  	jal	0x1bfd8 <__assert_func>

0000000000017f42 <__s2b>:
   17f42: 39 71        	addi	sp, sp, -0x40
   17f44: 22 f8        	sd	s0, 0x30(sp)
   17f46: 26 f4        	sd	s1, 0x28(sp)
   17f48: 4a f0        	sd	s2, 0x20(sp)
   17f4a: 4e ec        	sd	s3, 0x18(sp)
   17f4c: 52 e8        	sd	s4, 0x10(sp)
   17f4e: b6 84        	mv	s1, a3
   17f50: 2e 84        	mv	s0, a1
   17f52: a1 26        	addiw	a3, a3, 0x8
   17f54: a5 45        	li	a1, 0x9
   17f56: 06 fc        	sd	ra, 0x38(sp)
   17f58: a5 47        	li	a5, 0x9
   17f5a: bb c6 b6 02  	divw	a3, a3, a1
   17f5e: 2a 89        	mv	s2, a0
   17f60: 32 8a        	mv	s4, a2
   17f62: ba 89        	mv	s3, a4
   17f64: 63 d3 97 0a  	bge	a5, s1, 0x1800a <__s2b+0xc8>
   17f68: 85 47        	li	a5, 0x1
   17f6a: 81 45        	li	a1, 0x0
   17f6c: 9b 97 17 00  	slliw	a5, a5, 0x1
   17f70: 85 25        	addiw	a1, a1, 0x1
   17f72: e3 cd d7 fe  	blt	a5, a3, 0x17f6c <__s2b+0x2a>
   17f76: 4a 85        	mv	a0, s2
   17f78: ef f0 bf e6  	jal	0x17de2 <_Balloc>
   17f7c: aa 85        	mv	a1, a0
   17f7e: 41 c9        	beqz	a0, 0x1800e <__s2b+0xcc>
   17f80: 85 47        	li	a5, 0x1
   17f82: 5c c9        	sw	a5, 0x14(a0)
   17f84: 23 2c 35 01  	sw	s3, 0x18(a0)
   17f88: a5 47        	li	a5, 0x9
   17f8a: 63 dd 47 07  	bge	a5, s4, 0x18004 <__s2b+0xc2>
   17f8e: 93 17 0a 02  	slli	a5, s4, 0x20
   17f92: 5a e0        	sd	s6, 0x0(sp)
   17f94: 81 93        	srli	a5, a5, 0x20
   17f96: 13 0b 94 00  	addi	s6, s0, 0x9
   17f9a: 56 e4        	sd	s5, 0x8(sp)
   17f9c: 3e 94        	add	s0, s0, a5
   17f9e: 9b 0a 0a 00  	sext.w	s5, s4
   17fa2: da 89        	mv	s3, s6
   17fa4: 83 c6 09 00  	lbu	a3, 0x0(s3)
   17fa8: 29 46        	li	a2, 0xa
   17faa: 4a 85        	mv	a0, s2
   17fac: 9b 86 06 fd  	addiw	a3, a3, -0x30
   17fb0: ef f0 9f ea  	jal	0x17e58 <__multadd>
   17fb4: 85 09        	addi	s3, s3, 0x1
   17fb6: aa 85        	mv	a1, a0
   17fb8: e3 96 89 fe  	bne	s3, s0, 0x17fa4 <__s2b+0x62>
   17fbc: e1 3a        	addiw	s5, s5, -0x8
   17fbe: 82 1a        	slli	s5, s5, 0x20
   17fc0: 93 da 0a 02  	srli	s5, s5, 0x20
   17fc4: 33 04 5b 01  	add	s0, s6, s5
   17fc8: a2 6a        	ld	s5, 0x8(sp)
   17fca: 02 6b        	ld	s6, 0x0(sp)
   17fcc: 63 53 9a 02  	bge	s4, s1, 0x17ff2 <__s2b+0xb0>
   17fd0: bb 84 44 41  	subw	s1, s1, s4
   17fd4: 82 14        	slli	s1, s1, 0x20
   17fd6: 81 90        	srli	s1, s1, 0x20
   17fd8: a2 94        	add	s1, s1, s0
   17fda: 83 46 04 00  	lbu	a3, 0x0(s0)
   17fde: 29 46        	li	a2, 0xa
   17fe0: 4a 85        	mv	a0, s2
   17fe2: 9b 86 06 fd  	addiw	a3, a3, -0x30
   17fe6: ef f0 3f e7  	jal	0x17e58 <__multadd>
   17fea: 05 04        	addi	s0, s0, 0x1
   17fec: aa 85        	mv	a1, a0
   17fee: e3 16 94 fe  	bne	s0, s1, 0x17fda <__s2b+0x98>
   17ff2: e2 70        	ld	ra, 0x38(sp)
   17ff4: 42 74        	ld	s0, 0x30(sp)
   17ff6: a2 74        	ld	s1, 0x28(sp)
   17ff8: 02 79        	ld	s2, 0x20(sp)
   17ffa: e2 69        	ld	s3, 0x18(sp)
   17ffc: 42 6a        	ld	s4, 0x10(sp)
   17ffe: 2e 85        	mv	a0, a1
   18000: 21 61        	addi	sp, sp, 0x40
   18002: 82 80        	ret
   18004: 29 04        	addi	s0, s0, 0xa
   18006: 25 4a        	li	s4, 0x9
   18008: d1 b7        	j	0x17fcc <__s2b+0x8a>
   1800a: 81 45        	li	a1, 0x0
   1800c: ad b7        	j	0x17f76 <__s2b+0x34>
   1800e: b7 06 02 00  	lui	a3, 0x20
   18012: 37 05 02 00  	lui	a0, 0x20
   18016: 93 86 86 a5  	addi	a3, a3, -0x5a8
   1801a: 01 46        	li	a2, 0x0
   1801c: 93 05 30 0d  	li	a1, 0xd3
   18020: 13 05 85 ad  	addi	a0, a0, -0x528
   18024: 56 e4        	sd	s5, 0x8(sp)
   18026: 5a e0        	sd	s6, 0x0(sp)
   18028: ef 30 10 7b  	jal	0x1bfd8 <__assert_func>

000000000001802c <__hi0bits>:
   1802c: aa 87        	mv	a5, a0
   1802e: 41 67        	lui	a4, 0x10
   18030: 01 45        	li	a0, 0x0
   18032: 63 f5 e7 00  	bgeu	a5, a4, 0x1803c <__hi0bits+0x10>
   18036: 9b 97 07 01  	slliw	a5, a5, 0x10
   1803a: 41 45        	li	a0, 0x10
   1803c: 37 07 00 01  	lui	a4, 0x1000
   18040: 63 f5 e7 00  	bgeu	a5, a4, 0x1804a <__hi0bits+0x1e>
   18044: 9b 97 87 00  	slliw	a5, a5, 0x8
   18048: 21 25        	addiw	a0, a0, 0x8
   1804a: 37 07 00 10  	lui	a4, 0x10000
   1804e: 63 f5 e7 00  	bgeu	a5, a4, 0x18058 <__hi0bits+0x2c>
   18052: 9b 97 47 00  	slliw	a5, a5, 0x4
   18056: 11 25        	addiw	a0, a0, 0x4
   18058: 37 07 00 40  	lui	a4, 0x40000
   1805c: 63 e6 e7 00  	bltu	a5, a4, 0x18068 <__hi0bits+0x3c>
   18060: 63 c0 07 02  	bltz	a5, 0x18080 <__hi0bits+0x54>
   18064: 05 25        	addiw	a0, a0, 0x1
   18066: 82 80        	ret
   18068: 93 96 27 02  	slli	a3, a5, 0x22
   1806c: 1b 97 27 00  	slliw	a4, a5, 0x2
   18070: 63 c9 06 00  	bltz	a3, 0x18082 <__hi0bits+0x56>
   18074: 93 17 17 02  	slli	a5, a4, 0x21
   18078: 63 c7 07 00  	bltz	a5, 0x18086 <__hi0bits+0x5a>
   1807c: 13 05 00 02  	li	a0, 0x20
   18080: 82 80        	ret
   18082: 09 25        	addiw	a0, a0, 0x2
   18084: 82 80        	ret
   18086: 0d 25        	addiw	a0, a0, 0x3
   18088: 82 80        	ret

000000000001808a <__lo0bits>:
   1808a: 1c 41        	lw	a5, 0x0(a0)
   1808c: 2a 87        	mv	a4, a0
   1808e: 93 f6 77 00  	andi	a3, a5, 0x7
   18092: 3e 86        	mv	a2, a5
   18094: 81 ce        	beqz	a3, 0x180ac <__lo0bits+0x22>
   18096: 93 f6 17 00  	andi	a3, a5, 0x1
   1809a: 01 45        	li	a0, 0x0
   1809c: 9d ee        	bnez	a3, 0x180da <__lo0bits+0x50>
   1809e: 09 8a        	andi	a2, a2, 0x2
   180a0: 25 ce        	beqz	a2, 0x18118 <__lo0bits+0x8e>
   180a2: 9b d7 17 00  	srliw	a5, a5, 0x1
   180a6: 1c c3        	sw	a5, 0x0(a4)
   180a8: 05 45        	li	a0, 0x1
   180aa: 82 80        	ret
   180ac: 93 96 07 03  	slli	a3, a5, 0x30
   180b0: c1 92        	srli	a3, a3, 0x30
   180b2: 01 45        	li	a0, 0x0
   180b4: b9 ca        	beqz	a3, 0x1810a <__lo0bits+0x80>
   180b6: 93 f6 f7 0f  	andi	a3, a5, 0xff
   180ba: a9 c2        	beqz	a3, 0x180fc <__lo0bits+0x72>
   180bc: 93 f6 f7 00  	andi	a3, a5, 0xf
   180c0: 9d c6        	beqz	a3, 0x180ee <__lo0bits+0x64>
   180c2: 93 f6 37 00  	andi	a3, a5, 0x3
   180c6: 89 ce        	beqz	a3, 0x180e0 <__lo0bits+0x56>
   180c8: 93 f6 17 00  	andi	a3, a5, 0x1
   180cc: 81 ea        	bnez	a3, 0x180dc <__lo0bits+0x52>
   180ce: 9b d7 17 00  	srliw	a5, a5, 0x1
   180d2: 05 25        	addiw	a0, a0, 0x1
   180d4: 81 e7        	bnez	a5, 0x180dc <__lo0bits+0x52>
   180d6: 13 05 00 02  	li	a0, 0x20
   180da: 82 80        	ret
   180dc: 1c c3        	sw	a5, 0x0(a4)
   180de: 82 80        	ret
   180e0: 9b d7 27 00  	srliw	a5, a5, 0x2
   180e4: 93 f6 17 00  	andi	a3, a5, 0x1
   180e8: 09 25        	addiw	a0, a0, 0x2
   180ea: ed fa        	bnez	a3, 0x180dc <__lo0bits+0x52>
   180ec: cd b7        	j	0x180ce <__lo0bits+0x44>
   180ee: 9b d7 47 00  	srliw	a5, a5, 0x4
   180f2: 93 f6 37 00  	andi	a3, a5, 0x3
   180f6: 11 25        	addiw	a0, a0, 0x4
   180f8: e1 fa        	bnez	a3, 0x180c8 <__lo0bits+0x3e>
   180fa: dd b7        	j	0x180e0 <__lo0bits+0x56>
   180fc: 9b d7 87 00  	srliw	a5, a5, 0x8
   18100: 93 f6 f7 00  	andi	a3, a5, 0xf
   18104: 21 25        	addiw	a0, a0, 0x8
   18106: d5 fe        	bnez	a3, 0x180c2 <__lo0bits+0x38>
   18108: dd b7        	j	0x180ee <__lo0bits+0x64>
   1810a: 9b d7 07 01  	srliw	a5, a5, 0x10
   1810e: 93 f6 f7 0f  	andi	a3, a5, 0xff
   18112: 41 45        	li	a0, 0x10
   18114: c5 f6        	bnez	a3, 0x180bc <__lo0bits+0x32>
   18116: dd b7        	j	0x180fc <__lo0bits+0x72>
   18118: 9b d7 27 00  	srliw	a5, a5, 0x2
   1811c: 1c c3        	sw	a5, 0x0(a4)
   1811e: 09 45        	li	a0, 0x2
   18120: 82 80        	ret

0000000000018122 <__i2b>:
   18122: 3c 75        	ld	a5, 0x68(a0)
   18124: 01 11        	addi	sp, sp, -0x20
   18126: 22 e8        	sd	s0, 0x10(sp)
   18128: 26 e4        	sd	s1, 0x8(sp)
   1812a: 06 ec        	sd	ra, 0x18(sp)
   1812c: 2a 84        	mv	s0, a0
   1812e: ae 84        	mv	s1, a1
   18130: 91 cf        	beqz	a5, 0x1814c <__i2b+0x2a>
   18132: 88 67        	ld	a0, 0x8(a5)
   18134: 29 c1        	beqz	a0, 0x18176 <__i2b+0x54>
   18136: 18 61        	ld	a4, 0x0(a0)
   18138: 98 e7        	sd	a4, 0x8(a5)
   1813a: e2 60        	ld	ra, 0x18(sp)
   1813c: 42 64        	ld	s0, 0x10(sp)
   1813e: 85 47        	li	a5, 0x1
   18140: 82 17        	slli	a5, a5, 0x20
   18142: 04 cd        	sw	s1, 0x18(a0)
   18144: 1c e9        	sd	a5, 0x10(a0)
   18146: a2 64        	ld	s1, 0x8(sp)
   18148: 05 61        	addi	sp, sp, 0x20
   1814a: 82 80        	ret
   1814c: 13 06 10 04  	li	a2, 0x41
   18150: a1 45        	li	a1, 0x8
   18152: ef 30 50 6d  	jal	0x1c026 <_calloc_r>
   18156: 28 f4        	sd	a0, 0x68(s0)
   18158: aa 87        	mv	a5, a0
   1815a: 61 fd        	bnez	a0, 0x18132 <__i2b+0x10>
   1815c: b7 06 02 00  	lui	a3, 0x20
   18160: 37 05 02 00  	lui	a0, 0x20
   18164: 93 86 86 a5  	addi	a3, a3, -0x5a8
   18168: 01 46        	li	a2, 0x0
   1816a: 93 05 50 14  	li	a1, 0x145
   1816e: 13 05 85 ad  	addi	a0, a0, -0x528
   18172: ef 30 70 66  	jal	0x1bfd8 <__assert_func>
   18176: 13 06 40 02  	li	a2, 0x24
   1817a: 85 45        	li	a1, 0x1
   1817c: 22 85        	mv	a0, s0
   1817e: ef 30 90 6a  	jal	0x1c026 <_calloc_r>
   18182: 69 dd        	beqz	a0, 0x1815c <__i2b+0x3a>
   18184: 85 47        	li	a5, 0x1
   18186: 86 17        	slli	a5, a5, 0x21
   18188: 85 07        	addi	a5, a5, 0x1
   1818a: 1c e5        	sd	a5, 0x8(a0)
   1818c: 7d b7        	j	0x1813a <__i2b+0x18>

000000000001818e <__multiply>:
   1818e: 79 71        	addi	sp, sp, -0x30
   18190: 4a e8        	sd	s2, 0x10(sp)
   18192: 4e e4        	sd	s3, 0x8(sp)
   18194: 03 29 46 01  	lw	s2, 0x14(a2)
   18198: 83 a9 45 01  	lw	s3, 0x14(a1)
   1819c: 26 ec        	sd	s1, 0x18(sp)
   1819e: 52 e0        	sd	s4, 0x0(sp)
   181a0: 06 f4        	sd	ra, 0x28(sp)
   181a2: 22 f0        	sd	s0, 0x20(sp)
   181a4: 2e 8a        	mv	s4, a1
   181a6: b2 84        	mv	s1, a2
   181a8: 63 c7 29 01  	blt	s3, s2, 0x181b6 <__multiply+0x28>
   181ac: ca 87        	mv	a5, s2
   181ae: ae 84        	mv	s1, a1
   181b0: 4e 89        	mv	s2, s3
   181b2: 32 8a        	mv	s4, a2
   181b4: be 89        	mv	s3, a5
   181b6: dc 44        	lw	a5, 0xc(s1)
   181b8: 3b 04 39 01  	addw	s0, s2, s3
   181bc: 8c 44        	lw	a1, 0x8(s1)
   181be: 63 d3 87 00  	bge	a5, s0, 0x181c4 <__multiply+0x36>
   181c2: 85 25        	addiw	a1, a1, 0x1
   181c4: ef f0 ff c1  	jal	0x17de2 <_Balloc>
   181c8: 63 0c 05 14  	beqz	a0, 0x18320 <__multiply+0x192>
   181cc: 13 03 85 01  	addi	t1, a0, 0x18
   181d0: 93 18 24 00  	slli	a7, s0, 0x2
   181d4: 9a 98        	add	a7, a7, t1
   181d6: 9a 87        	mv	a5, t1
   181d8: 63 77 13 01  	bgeu	t1, a7, 0x181e6 <__multiply+0x58>
   181dc: 23 a0 07 00  	sw	zero, 0x0(a5)
   181e0: 91 07        	addi	a5, a5, 0x4
   181e2: e3 ed 17 ff  	bltu	a5, a7, 0x181dc <__multiply+0x4e>
   181e6: 13 08 8a 01  	addi	a6, s4, 0x18
   181ea: 13 9e 29 00  	slli	t3, s3, 0x2
   181ee: 93 8e 84 01  	addi	t4, s1, 0x18
   181f2: 93 15 29 00  	slli	a1, s2, 0x2
   181f6: 42 9e        	add	t3, t3, a6
   181f8: f6 95        	add	a1, a1, t4
   181fa: 63 7a c8 0f  	bgeu	a6, t3, 0x182ee <__multiply+0x160>
   181fe: 93 87 94 01  	addi	a5, s1, 0x19
   18202: 11 4f        	li	t5, 0x4
   18204: 63 f7 f5 10  	bgeu	a1, a5, 0x18312 <__multiply+0x184>
   18208: c1 66        	lui	a3, 0x10
   1820a: fd 16        	addi	a3, a3, -0x1
   1820c: 09 a8        	j	0x1821e <__multiply+0x90>
   1820e: 9b df 0f 01  	srliw	t6, t6, 0x10
   18212: 63 9d 0f 06  	bnez	t6, 0x1828c <__multiply+0xfe>
   18216: 11 08        	addi	a6, a6, 0x4
   18218: 11 03        	addi	t1, t1, 0x4
   1821a: 63 7a c8 0d  	bgeu	a6, t3, 0x182ee <__multiply+0x160>
   1821e: 83 2f 08 00  	lw	t6, 0x0(a6)
   18222: b3 f3 df 00  	and	t2, t6, a3
   18226: e3 84 03 fe  	beqz	t2, 0x1820e <__multiply+0x80>
   1822a: 9a 82        	mv	t0, t1
   1822c: f6 8f        	mv	t6, t4
   1822e: 81 44        	li	s1, 0x0
   18230: 83 a7 0f 00  	lw	a5, 0x0(t6)
   18234: 03 a6 02 00  	lw	a2, 0x0(t0)
   18238: 91 02        	addi	t0, t0, 0x4
   1823a: 33 f7 d7 00  	and	a4, a5, a3
   1823e: 3b 07 77 02  	mulw	a4, a4, t2
   18242: 9b d7 07 01  	srliw	a5, a5, 0x10
   18246: 33 79 d6 00  	and	s2, a2, a3
   1824a: 1b 56 06 01  	srliw	a2, a2, 0x10
   1824e: 91 0f        	addi	t6, t6, 0x4
   18250: bb 87 77 02  	mulw	a5, a5, t2
   18254: 3b 07 27 01  	addw	a4, a4, s2
   18258: 25 9f        	addw	a4, a4, s1
   1825a: 9b 54 07 01  	srliw	s1, a4, 0x10
   1825e: 75 8f        	and	a4, a4, a3
   18260: b1 9f        	addw	a5, a5, a2
   18262: a5 9f        	addw	a5, a5, s1
   18264: 1b 96 07 01  	slliw	a2, a5, 0x10
   18268: 51 8f        	or	a4, a4, a2
   1826a: 23 ae e2 fe  	sw	a4, -0x4(t0)
   1826e: 9b d4 07 01  	srliw	s1, a5, 0x10
   18272: 1b d7 07 01  	srliw	a4, a5, 0x10
   18276: e3 ed bf fa  	bltu	t6, a1, 0x18230 <__multiply+0xa2>
   1827a: b3 07 e3 01  	add	a5, t1, t5
   1827e: 98 c3        	sw	a4, 0x0(a5)
   18280: 83 2f 08 00  	lw	t6, 0x0(a6)
   18284: 9b df 0f 01  	srliw	t6, t6, 0x10
   18288: e3 87 0f f8  	beqz	t6, 0x18216 <__multiply+0x88>
   1828c: 03 27 03 00  	lw	a4, 0x0(t1)
   18290: 9a 82        	mv	t0, t1
   18292: 76 86        	mv	a2, t4
   18294: ba 83        	mv	t2, a4
   18296: 81 44        	li	s1, 0x0
   18298: 1c 42        	lw	a5, 0x0(a2)
   1829a: 9b d9 03 01  	srliw	s3, t2, 0x10
   1829e: 75 8f        	and	a4, a4, a3
   182a0: f5 8f        	and	a5, a5, a3
   182a2: bb 87 f7 03  	mulw	a5, a5, t6
   182a6: 83 a3 42 00  	lw	t2, 0x4(t0)
   182aa: 91 02        	addi	t0, t0, 0x4
   182ac: 11 06        	addi	a2, a2, 0x4
   182ae: 33 f9 d3 00  	and	s2, t2, a3
   182b2: a5 9f        	addw	a5, a5, s1
   182b4: bb 87 37 01  	addw	a5, a5, s3
   182b8: 9b 94 07 01  	slliw	s1, a5, 0x10
   182bc: 45 8f        	or	a4, a4, s1
   182be: 23 ae e2 fe  	sw	a4, -0x4(t0)
   182c2: 03 57 e6 ff  	lhu	a4, -0x2(a2)
   182c6: 9b d7 07 01  	srliw	a5, a5, 0x10
   182ca: 3b 07 f7 03  	mulw	a4, a4, t6
   182ce: 3b 07 27 01  	addw	a4, a4, s2
   182d2: b9 9f        	addw	a5, a5, a4
   182d4: 1b 87 07 00  	sext.w	a4, a5
   182d8: 9b d4 07 01  	srliw	s1, a5, 0x10
   182dc: e3 6e b6 fa  	bltu	a2, a1, 0x18298 <__multiply+0x10a>
   182e0: 33 07 e3 01  	add	a4, t1, t5
   182e4: 1c c3        	sw	a5, 0x0(a4)
   182e6: 11 08        	addi	a6, a6, 0x4
   182e8: 11 03        	addi	t1, t1, 0x4
   182ea: e3 6a c8 f3  	bltu	a6, t3, 0x1821e <__multiply+0x90>
   182ee: 63 45 80 00  	bgtz	s0, 0x182f8 <__multiply+0x16a>
   182f2: 39 a0        	j	0x18300 <__multiply+0x172>
   182f4: 7d 34        	addiw	s0, s0, -0x1
   182f6: 09 c4        	beqz	s0, 0x18300 <__multiply+0x172>
   182f8: 83 a7 c8 ff  	lw	a5, -0x4(a7)
   182fc: f1 18        	addi	a7, a7, -0x4
   182fe: fd db        	beqz	a5, 0x182f4 <__multiply+0x166>
   18300: a2 70        	ld	ra, 0x28(sp)
   18302: 40 c9        	sw	s0, 0x14(a0)
   18304: 02 74        	ld	s0, 0x20(sp)
   18306: e2 64        	ld	s1, 0x18(sp)
   18308: 42 69        	ld	s2, 0x10(sp)
   1830a: a2 69        	ld	s3, 0x8(sp)
   1830c: 02 6a        	ld	s4, 0x0(sp)
   1830e: 45 61        	addi	sp, sp, 0x30
   18310: 82 80        	ret
   18312: b3 87 95 40  	sub	a5, a1, s1
   18316: 9d 17        	addi	a5, a5, -0x19
   18318: f1 9b        	andi	a5, a5, -0x4
   1831a: 13 8f 47 00  	addi	t5, a5, 0x4
   1831e: ed b5        	j	0x18208 <__multiply+0x7a>
   18320: b7 06 02 00  	lui	a3, 0x20
   18324: 37 05 02 00  	lui	a0, 0x20
   18328: 93 86 86 a5  	addi	a3, a3, -0x5a8
   1832c: 01 46        	li	a2, 0x0
   1832e: 93 05 20 16  	li	a1, 0x162
   18332: 13 05 85 ad  	addi	a0, a0, -0x528
   18336: ef 30 30 4a  	jal	0x1bfd8 <__assert_func>

000000000001833a <__pow5mult>:
   1833a: 79 71        	addi	sp, sp, -0x30
   1833c: 22 f0        	sd	s0, 0x20(sp)
   1833e: 4a e8        	sd	s2, 0x10(sp)
   18340: 4e e4        	sd	s3, 0x8(sp)
   18342: 06 f4        	sd	ra, 0x28(sp)
   18344: 93 77 36 00  	andi	a5, a2, 0x3
   18348: 32 84        	mv	s0, a2
   1834a: aa 89        	mv	s3, a0
   1834c: 2e 89        	mv	s2, a1
   1834e: ad eb        	bnez	a5, 0x183c0 <__pow5mult+0x86>
   18350: 09 84        	srai	s0, s0, 0x2
   18352: 31 c4        	beqz	s0, 0x1839e <__pow5mult+0x64>
   18354: 26 ec        	sd	s1, 0x18(sp)
   18356: 83 b4 09 06  	ld	s1, 0x60(s3)
   1835a: c1 c0        	beqz	s1, 0x183da <__pow5mult+0xa0>
   1835c: 93 77 14 00  	andi	a5, s0, 0x1
   18360: 89 eb        	bnez	a5, 0x18372 <__pow5mult+0x38>
   18362: 05 84        	srai	s0, s0, 0x1
   18364: 05 cc        	beqz	s0, 0x1839c <__pow5mult+0x62>
   18366: 88 60        	ld	a0, 0x0(s1)
   18368: 31 c1        	beqz	a0, 0x183ac <__pow5mult+0x72>
   1836a: aa 84        	mv	s1, a0
   1836c: 93 77 14 00  	andi	a5, s0, 0x1
   18370: ed db        	beqz	a5, 0x18362 <__pow5mult+0x28>
   18372: 26 86        	mv	a2, s1
   18374: ca 85        	mv	a1, s2
   18376: 4e 85        	mv	a0, s3
   18378: ef f0 7f e1  	jal	0x1818e <__multiply>
   1837c: 63 0d 09 00  	beqz	s2, 0x18396 <__pow5mult+0x5c>
   18380: 03 27 89 00  	lw	a4, 0x8(s2)
   18384: 83 b7 89 06  	ld	a5, 0x68(s3)
   18388: 0e 07        	slli	a4, a4, 0x3
   1838a: ba 97        	add	a5, a5, a4
   1838c: 98 63        	ld	a4, 0x0(a5)
   1838e: 23 30 e9 00  	sd	a4, 0x0(s2)
   18392: 23 b0 27 01  	sd	s2, 0x0(a5)
   18396: 05 84        	srai	s0, s0, 0x1
   18398: 2a 89        	mv	s2, a0
   1839a: 71 f4        	bnez	s0, 0x18366 <__pow5mult+0x2c>
   1839c: e2 64        	ld	s1, 0x18(sp)
   1839e: a2 70        	ld	ra, 0x28(sp)
   183a0: 02 74        	ld	s0, 0x20(sp)
   183a2: a2 69        	ld	s3, 0x8(sp)
   183a4: 4a 85        	mv	a0, s2
   183a6: 42 69        	ld	s2, 0x10(sp)
   183a8: 45 61        	addi	sp, sp, 0x30
   183aa: 82 80        	ret
   183ac: 26 86        	mv	a2, s1
   183ae: a6 85        	mv	a1, s1
   183b0: 4e 85        	mv	a0, s3
   183b2: ef f0 df dd  	jal	0x1818e <__multiply>
   183b6: 88 e0        	sd	a0, 0x0(s1)
   183b8: 23 30 05 00  	sd	zero, 0x0(a0)
   183bc: aa 84        	mv	s1, a0
   183be: 7d b7        	j	0x1836c <__pow5mult+0x32>
   183c0: fd 37        	addiw	a5, a5, -0x1
   183c2: 37 07 02 00  	lui	a4, 0x20
   183c6: 13 07 07 f2  	addi	a4, a4, -0xe0
   183ca: 8a 07        	slli	a5, a5, 0x2
   183cc: ba 97        	add	a5, a5, a4
   183ce: 90 43        	lw	a2, 0x0(a5)
   183d0: 81 46        	li	a3, 0x0
   183d2: ef f0 7f a8  	jal	0x17e58 <__multadd>
   183d6: 2a 89        	mv	s2, a0
   183d8: a5 bf        	j	0x18350 <__pow5mult+0x16>
   183da: 85 45        	li	a1, 0x1
   183dc: 4e 85        	mv	a0, s3
   183de: ef f0 5f a0  	jal	0x17de2 <_Balloc>
   183e2: aa 84        	mv	s1, a0
   183e4: 19 c9        	beqz	a0, 0x183fa <__pow5mult+0xc0>
   183e6: 93 07 10 27  	li	a5, 0x271
   183ea: 1c cd        	sw	a5, 0x18(a0)
   183ec: 85 47        	li	a5, 0x1
   183ee: 5c c9        	sw	a5, 0x14(a0)
   183f0: 23 b0 a9 06  	sd	a0, 0x60(s3)
   183f4: 23 30 05 00  	sd	zero, 0x0(a0)
   183f8: 95 b7        	j	0x1835c <__pow5mult+0x22>
   183fa: b7 06 02 00  	lui	a3, 0x20
   183fe: 37 05 02 00  	lui	a0, 0x20
   18402: 93 86 86 a5  	addi	a3, a3, -0x5a8
   18406: 01 46        	li	a2, 0x0
   18408: 93 05 50 14  	li	a1, 0x145
   1840c: 13 05 85 ad  	addi	a0, a0, -0x528
   18410: ef 30 90 3c  	jal	0x1bfd8 <__assert_func>

0000000000018414 <__lshift>:
   18414: 39 71        	addi	sp, sp, -0x40
   18416: 22 f8        	sd	s0, 0x30(sp)
   18418: c0 49        	lw	s0, 0x14(a1)
   1841a: dc 45        	lw	a5, 0xc(a1)
   1841c: 56 e4        	sd	s5, 0x8(sp)
   1841e: 9b 5a 56 40  	sraiw	s5, a2, 0x5
   18422: 3b 84 8a 00  	addw	s0, s5, s0
   18426: 26 f4        	sd	s1, 0x28(sp)
   18428: 4a f0        	sd	s2, 0x20(sp)
   1842a: 4e ec        	sd	s3, 0x18(sp)
   1842c: 52 e8        	sd	s4, 0x10(sp)
   1842e: 5a e0        	sd	s6, 0x0(sp)
   18430: 06 fc        	sd	ra, 0x38(sp)
   18432: 1b 09 14 00  	addiw	s2, s0, 0x1
   18436: ae 84        	mv	s1, a1
   18438: 32 8a        	mv	s4, a2
   1843a: 8c 45        	lw	a1, 0x8(a1)
   1843c: aa 89        	mv	s3, a0
   1843e: 13 5b 56 40  	srai	s6, a2, 0x5
   18442: 63 d7 27 01  	bge	a5, s2, 0x18450 <__lshift+0x3c>
   18446: 9b 97 17 00  	slliw	a5, a5, 0x1
   1844a: 85 25        	addiw	a1, a1, 0x1
   1844c: e3 cd 27 ff  	blt	a5, s2, 0x18446 <__lshift+0x32>
   18450: 4e 85        	mv	a0, s3
   18452: ef f0 1f 99  	jal	0x17de2 <_Balloc>
   18456: 71 c5        	beqz	a0, 0x18522 <__lshift+0x10e>
   18458: 13 07 85 01  	addi	a4, a0, 0x18
   1845c: 63 51 60 03  	blez	s6, 0x1847e <__lshift+0x6a>
   18460: 9b 86 6a 00  	addiw	a3, s5, 0x6
   18464: 8a 06        	slli	a3, a3, 0x2
   18466: aa 96        	add	a3, a3, a0
   18468: ba 87        	mv	a5, a4
   1846a: 91 07        	addi	a5, a5, 0x4
   1846c: 23 ae 07 fe  	sw	zero, -0x4(a5)
   18470: e3 9d d7 fe  	bne	a5, a3, 0x1846a <__lshift+0x56>
   18474: 93 97 0a 02  	slli	a5, s5, 0x20
   18478: 93 da e7 01  	srli	s5, a5, 0x1e
   1847c: 56 97        	add	a4, a4, s5
   1847e: 83 a8 44 01  	lw	a7, 0x14(s1)
   18482: 93 87 84 01  	addi	a5, s1, 0x18
   18486: 13 76 fa 01  	andi	a2, s4, 0x1f
   1848a: 8a 08        	slli	a7, a7, 0x2
   1848c: be 98        	add	a7, a7, a5
   1848e: 3d ca        	beqz	a2, 0x18504 <__lshift+0xf0>
   18490: 93 05 00 02  	li	a1, 0x20
   18494: 91 9d        	subw	a1, a1, a2
   18496: 3a 83        	mv	t1, a4
   18498: 81 46        	li	a3, 0x0
   1849a: 03 a8 07 00  	lw	a6, 0x0(a5)
   1849e: 11 03        	addi	t1, t1, 0x4
   184a0: 91 07        	addi	a5, a5, 0x4
   184a2: 3b 18 c8 00  	sllw	a6, a6, a2
   184a6: b3 e6 06 01  	or	a3, a3, a6
   184aa: 23 2e d3 fe  	sw	a3, -0x4(t1)
   184ae: 03 a8 c7 ff  	lw	a6, -0x4(a5)
   184b2: bb 56 b8 00  	srlw	a3, a6, a1
   184b6: 36 88        	mv	a6, a3
   184b8: e3 e1 17 ff  	bltu	a5, a7, 0x1849a <__lshift+0x86>
   184bc: 93 87 94 01  	addi	a5, s1, 0x19
   184c0: 11 46        	li	a2, 0x4
   184c2: 63 e8 f8 00  	bltu	a7, a5, 0x184d2 <__lshift+0xbe>
   184c6: b3 87 98 40  	sub	a5, a7, s1
   184ca: 9d 17        	addi	a5, a5, -0x19
   184cc: f1 9b        	andi	a5, a5, -0x4
   184ce: 13 86 47 00  	addi	a2, a5, 0x4
   184d2: 32 97        	add	a4, a4, a2
   184d4: 23 20 07 01  	sw	a6, 0x0(a4)
   184d8: 91 e2        	bnez	a3, 0x184dc <__lshift+0xc8>
   184da: 22 89        	mv	s2, s0
   184dc: 98 44        	lw	a4, 0x8(s1)
   184de: 83 b7 89 06  	ld	a5, 0x68(s3)
   184e2: e2 70        	ld	ra, 0x38(sp)
   184e4: 0e 07        	slli	a4, a4, 0x3
   184e6: ba 97        	add	a5, a5, a4
   184e8: 98 63        	ld	a4, 0x0(a5)
   184ea: 23 2a 25 01  	sw	s2, 0x14(a0)
   184ee: 42 74        	ld	s0, 0x30(sp)
   184f0: 98 e0        	sd	a4, 0x0(s1)
   184f2: 84 e3        	sd	s1, 0x0(a5)
   184f4: 02 79        	ld	s2, 0x20(sp)
   184f6: a2 74        	ld	s1, 0x28(sp)
   184f8: e2 69        	ld	s3, 0x18(sp)
   184fa: 42 6a        	ld	s4, 0x10(sp)
   184fc: a2 6a        	ld	s5, 0x8(sp)
   184fe: 02 6b        	ld	s6, 0x0(sp)
   18500: 21 61        	addi	sp, sp, 0x40
   18502: 82 80        	ret
   18504: 94 43        	lw	a3, 0x0(a5)
   18506: 91 07        	addi	a5, a5, 0x4
   18508: 11 07        	addi	a4, a4, 0x4
   1850a: 23 2e d7 fe  	sw	a3, -0x4(a4)
   1850e: e3 f6 17 fd  	bgeu	a5, a7, 0x184da <__lshift+0xc6>
   18512: 94 43        	lw	a3, 0x0(a5)
   18514: 91 07        	addi	a5, a5, 0x4
   18516: 11 07        	addi	a4, a4, 0x4
   18518: 23 2e d7 fe  	sw	a3, -0x4(a4)
   1851c: e3 e4 17 ff  	bltu	a5, a7, 0x18504 <__lshift+0xf0>
   18520: 6d bf        	j	0x184da <__lshift+0xc6>
   18522: b7 06 02 00  	lui	a3, 0x20
   18526: 37 05 02 00  	lui	a0, 0x20
   1852a: 93 86 86 a5  	addi	a3, a3, -0x5a8
   1852e: 01 46        	li	a2, 0x0
   18530: 93 05 e0 1d  	li	a1, 0x1de
   18534: 13 05 85 ad  	addi	a0, a0, -0x528
   18538: ef 30 10 2a  	jal	0x1bfd8 <__assert_func>

000000000001853c <__mcmp>:
   1853c: dc 49        	lw	a5, 0x14(a1)
   1853e: 2a 88        	mv	a6, a0
   18540: 48 49        	lw	a0, 0x14(a0)
   18542: 1d 9d        	subw	a0, a0, a5
   18544: 1d e5        	bnez	a0, 0x18572 <__mcmp+0x36>
   18546: 8a 07        	slli	a5, a5, 0x2
   18548: 61 08        	addi	a6, a6, 0x18
   1854a: e1 05        	addi	a1, a1, 0x18
   1854c: 33 07 f8 00  	add	a4, a6, a5
   18550: ae 97        	add	a5, a5, a1
   18552: 19 a0        	j	0x18558 <__mcmp+0x1c>
   18554: 63 7f e8 00  	bgeu	a6, a4, 0x18572 <__mcmp+0x36>
   18558: 03 26 c7 ff  	lw	a2, -0x4(a4)
   1855c: 83 a6 c7 ff  	lw	a3, -0x4(a5)
   18560: 71 17        	addi	a4, a4, -0x4
   18562: f1 17        	addi	a5, a5, -0x4
   18564: e3 08 d6 fe  	beq	a2, a3, 0x18554 <__mcmp+0x18>
   18568: 05 45        	li	a0, 0x1
   1856a: 63 74 d6 00  	bgeu	a2, a3, 0x18572 <__mcmp+0x36>
   1856e: 7d 55        	li	a0, -0x1
   18570: 82 80        	ret
   18572: 82 80        	ret

0000000000018574 <__mdiff>:
   18574: d8 49        	lw	a4, 0x14(a1)
   18576: 5c 4a        	lw	a5, 0x14(a2)
   18578: 01 11        	addi	sp, sp, -0x20
   1857a: 22 e8        	sd	s0, 0x10(sp)
   1857c: 26 e4        	sd	s1, 0x8(sp)
   1857e: 06 ec        	sd	ra, 0x18(sp)
   18580: 4a e0        	sd	s2, 0x0(sp)
   18582: 1d 9f        	subw	a4, a4, a5
   18584: 2e 84        	mv	s0, a1
   18586: b2 84        	mv	s1, a2
   18588: 63 10 07 14  	bnez	a4, 0x186c8 <__mdiff+0x154>
   1858c: 93 96 27 00  	slli	a3, a5, 0x2
   18590: 13 86 85 01  	addi	a2, a1, 0x18
   18594: 13 87 84 01  	addi	a4, s1, 0x18
   18598: b3 07 d6 00  	add	a5, a2, a3
   1859c: 36 97        	add	a4, a4, a3
   1859e: 19 a0        	j	0x185a4 <__mdiff+0x30>
   185a0: 63 7c f6 12  	bgeu	a2, a5, 0x186d8 <__mdiff+0x164>
   185a4: 83 a5 c7 ff  	lw	a1, -0x4(a5)
   185a8: 83 26 c7 ff  	lw	a3, -0x4(a4)
   185ac: f1 17        	addi	a5, a5, -0x4
   185ae: 71 17        	addi	a4, a4, -0x4
   185b0: e3 88 d5 fe  	beq	a1, a3, 0x185a0 <__mdiff+0x2c>
   185b4: 05 49        	li	s2, 0x1
   185b6: 63 e6 d5 00  	bltu	a1, a3, 0x185c2 <__mdiff+0x4e>
   185ba: a6 87        	mv	a5, s1
   185bc: 01 49        	li	s2, 0x0
   185be: a2 84        	mv	s1, s0
   185c0: 3e 84        	mv	s0, a5
   185c2: 8c 44        	lw	a1, 0x8(s1)
   185c4: ef f0 ff 81  	jal	0x17de2 <_Balloc>
   185c8: 63 0f 05 12  	beqz	a0, 0x18706 <__mdiff+0x192>
   185cc: 03 a3 44 01  	lw	t1, 0x14(s1)
   185d0: 83 22 44 01  	lw	t0, 0x14(s0)
   185d4: 13 8f 84 01  	addi	t5, s1, 0x18
   185d8: 13 1e 23 00  	slli	t3, t1, 0x2
   185dc: 13 08 84 01  	addi	a6, s0, 0x18
   185e0: 8a 02        	slli	t0, t0, 0x2
   185e2: 93 0f 85 01  	addi	t6, a0, 0x18
   185e6: c1 68        	lui	a7, 0x10
   185e8: 23 28 25 01  	sw	s2, 0x10(a0)
   185ec: 7a 9e        	add	t3, t3, t5
   185ee: c2 92        	add	t0, t0, a6
   185f0: fe 85        	mv	a1, t6
   185f2: fa 8e        	mv	t4, t5
   185f4: 01 46        	li	a2, 0x0
   185f6: fd 18        	addi	a7, a7, -0x1
   185f8: 03 a7 0e 00  	lw	a4, 0x0(t4)
   185fc: 83 26 08 00  	lw	a3, 0x0(a6)
   18600: 91 05        	addi	a1, a1, 0x4
   18602: b3 77 17 01  	and	a5, a4, a7
   18606: b3 f3 16 01  	and	t2, a3, a7
   1860a: bb 87 77 40  	subw	a5, a5, t2
   1860e: b1 9f        	addw	a5, a5, a2
   18610: 9b d6 06 01  	srliw	a3, a3, 0x10
   18614: 1b 57 07 01  	srliw	a4, a4, 0x10
   18618: 15 9f        	subw	a4, a4, a3
   1861a: 9b d6 07 41  	sraiw	a3, a5, 0x10
   1861e: 35 9f        	addw	a4, a4, a3
   18620: b3 f7 f8 00  	and	a5, a7, a5
   18624: 9b 16 07 01  	slliw	a3, a4, 0x10
   18628: d5 8f        	or	a5, a5, a3
   1862a: 81 27        	sext.w	a5, a5
   1862c: 11 08        	addi	a6, a6, 0x4
   1862e: 23 ae f5 fe  	sw	a5, -0x4(a1)
   18632: 91 0e        	addi	t4, t4, 0x4
   18634: 1b 56 07 41  	sraiw	a2, a4, 0x10
   18638: e3 60 58 fc  	bltu	a6, t0, 0x185f8 <__mdiff+0x84>
   1863c: 13 07 94 01  	addi	a4, s0, 0x19
   18640: 33 84 82 40  	sub	s0, t0, s0
   18644: 1d 14        	addi	s0, s0, -0x19
   18646: b3 b2 e2 00  	sltu	t0, t0, a4
   1864a: 93 c8 12 00  	xori	a7, t0, 0x1
   1864e: 09 80        	srli	s0, s0, 0x2
   18650: 11 47        	li	a4, 0x4
   18652: 63 8f 02 06  	beqz	t0, 0x186d0 <__mdiff+0x15c>
   18656: 3a 9f        	add	t5, t5, a4
   18658: b3 8e ef 00  	add	t4, t6, a4
   1865c: 41 68        	lui	a6, 0x10
   1865e: f6 85        	mv	a1, t4
   18660: fa 86        	mv	a3, t5
   18662: 7d 18        	addi	a6, a6, -0x1
   18664: 63 78 cf 09  	bgeu	t5, t3, 0x186f4 <__mdiff+0x180>
   18668: 9c 42        	lw	a5, 0x0(a3)
   1866a: 9b 08 06 00  	sext.w	a7, a2
   1866e: 91 05        	addi	a1, a1, 0x4
   18670: 33 f7 07 01  	and	a4, a5, a6
   18674: 31 9f        	addw	a4, a4, a2
   18676: 1b 57 07 41  	sraiw	a4, a4, 0x10
   1867a: 1b d6 07 01  	srliw	a2, a5, 0x10
   1867e: 31 9f        	addw	a4, a4, a2
   18680: bb 87 17 01  	addw	a5, a5, a7
   18684: 1b 16 07 01  	slliw	a2, a4, 0x10
   18688: b3 f7 07 01  	and	a5, a5, a6
   1868c: d1 8f        	or	a5, a5, a2
   1868e: 81 27        	sext.w	a5, a5
   18690: 91 06        	addi	a3, a3, 0x4
   18692: 23 ae f5 fe  	sw	a5, -0x4(a1)
   18696: 1b 56 07 41  	sraiw	a2, a4, 0x10
   1869a: e3 e7 c6 fd  	bltu	a3, t3, 0x18668 <__mdiff+0xf4>
   1869e: 7d 1e        	addi	t3, t3, -0x1
   186a0: 33 0e ee 41  	sub	t3, t3, t5
   186a4: 13 7e ce ff  	andi	t3, t3, -0x4
   186a8: 33 87 ce 01  	add	a4, t4, t3
   186ac: 91 e7        	bnez	a5, 0x186b8 <__mdiff+0x144>
   186ae: 83 27 c7 ff  	lw	a5, -0x4(a4)
   186b2: 7d 33        	addiw	t1, t1, -0x1
   186b4: 71 17        	addi	a4, a4, -0x4
   186b6: e5 df        	beqz	a5, 0x186ae <__mdiff+0x13a>
   186b8: e2 60        	ld	ra, 0x18(sp)
   186ba: 42 64        	ld	s0, 0x10(sp)
   186bc: 23 2a 65 00  	sw	t1, 0x14(a0)
   186c0: a2 64        	ld	s1, 0x8(sp)
   186c2: 02 69        	ld	s2, 0x0(sp)
   186c4: 05 61        	addi	sp, sp, 0x20
   186c6: 82 80        	ret
   186c8: 05 49        	li	s2, 0x1
   186ca: e3 58 07 ee  	bgez	a4, 0x185ba <__mdiff+0x46>
   186ce: d5 bd        	j	0x185c2 <__mdiff+0x4e>
   186d0: 13 07 14 00  	addi	a4, s0, 0x1
   186d4: 0a 07        	slli	a4, a4, 0x2
   186d6: 41 b7        	j	0x18656 <__mdiff+0xe2>
   186d8: 81 45        	li	a1, 0x0
   186da: ef f0 8f f0  	jal	0x17de2 <_Balloc>
   186de: 29 c1        	beqz	a0, 0x18720 <__mdiff+0x1ac>
   186e0: e2 60        	ld	ra, 0x18(sp)
   186e2: 42 64        	ld	s0, 0x10(sp)
   186e4: 85 47        	li	a5, 0x1
   186e6: 5c c9        	sw	a5, 0x14(a0)
   186e8: 23 2c 05 00  	sw	zero, 0x18(a0)
   186ec: a2 64        	ld	s1, 0x8(sp)
   186ee: 02 69        	ld	s2, 0x0(sp)
   186f0: 05 61        	addi	sp, sp, 0x20
   186f2: 82 80        	ret
   186f4: 01 47        	li	a4, 0x0
   186f6: 63 94 08 00  	bnez	a7, 0x186fe <__mdiff+0x18a>
   186fa: 7e 97        	add	a4, a4, t6
   186fc: 45 bf        	j	0x186ac <__mdiff+0x138>
   186fe: 13 17 24 00  	slli	a4, s0, 0x2
   18702: 7e 97        	add	a4, a4, t6
   18704: 65 b7        	j	0x186ac <__mdiff+0x138>
   18706: b7 06 02 00  	lui	a3, 0x20
   1870a: 37 05 02 00  	lui	a0, 0x20
   1870e: 93 86 86 a5  	addi	a3, a3, -0x5a8
   18712: 01 46        	li	a2, 0x0
   18714: 93 05 50 24  	li	a1, 0x245
   18718: 13 05 85 ad  	addi	a0, a0, -0x528
   1871c: ef 30 d0 0b  	jal	0x1bfd8 <__assert_func>
   18720: b7 06 02 00  	lui	a3, 0x20
   18724: 37 05 02 00  	lui	a0, 0x20
   18728: 93 86 86 a5  	addi	a3, a3, -0x5a8
   1872c: 01 46        	li	a2, 0x0
   1872e: 93 05 70 23  	li	a1, 0x237
   18732: 13 05 85 ad  	addi	a0, a0, -0x528
   18736: ef 30 30 0a  	jal	0x1bfd8 <__assert_func>

000000000001873a <__ulp>:
   1873a: 53 07 05 e2  	fmv.x.d	a4, fa0
   1873e: b7 07 f0 7f  	lui	a5, 0x7ff00
   18742: 01 93        	srli	a4, a4, 0x20
   18744: 7d 8f        	and	a4, a4, a5
   18746: b7 07 c0 fc  	lui	a5, 0xfcc00
   1874a: bb 86 e7 00  	addw	a3, a5, a4
   1874e: 01 47        	li	a4, 0x0
   18750: 63 59 d0 00  	blez	a3, 0x18762 <__ulp+0x28>
   18754: 02 17        	slli	a4, a4, 0x20
   18756: 82 16        	slli	a3, a3, 0x20
   18758: 01 93        	srli	a4, a4, 0x20
   1875a: 55 8f        	or	a4, a4, a3
   1875c: 53 05 07 f2  	fmv.d.x	fa0, a4
   18760: 82 80        	ret
   18762: bb 07 d0 40  	negw	a5, a3
   18766: 1b d7 47 41  	sraiw	a4, a5, 0x14
   1876a: cd 46        	li	a3, 0x13
   1876c: 63 ce e6 00  	blt	a3, a4, 0x18788 <__ulp+0x4e>
   18770: b7 06 08 00  	lui	a3, 0x80
   18774: bb d6 e6 40  	sraw	a3, a3, a4
   18778: 01 47        	li	a4, 0x0
   1877a: 02 17        	slli	a4, a4, 0x20
   1877c: 82 16        	slli	a3, a3, 0x20
   1877e: 01 93        	srli	a4, a4, 0x20
   18780: 55 8f        	or	a4, a4, a3
   18782: 53 05 07 f2  	fmv.d.x	fa0, a4
   18786: 82 80        	ret
   18788: 9b 07 c7 fe  	addiw	a5, a4, -0x14
   1878c: f9 46        	li	a3, 0x1e
   1878e: 05 47        	li	a4, 0x1
   18790: 63 c6 f6 00  	blt	a3, a5, 0x1879c <__ulp+0x62>
   18794: 37 07 00 80  	lui	a4, 0x80000
   18798: 3b 57 f7 00  	srlw	a4, a4, a5
   1879c: 81 46        	li	a3, 0x0
   1879e: 02 17        	slli	a4, a4, 0x20
   187a0: 82 16        	slli	a3, a3, 0x20
   187a2: 01 93        	srli	a4, a4, 0x20
   187a4: 55 8f        	or	a4, a4, a3
   187a6: 53 05 07 f2  	fmv.d.x	fa0, a4
   187aa: 82 80        	ret

00000000000187ac <__b2d>:
   187ac: 79 71        	addi	sp, sp, -0x30
   187ae: 26 ec        	sd	s1, 0x18(sp)
   187b0: 44 49        	lw	s1, 0x14(a0)
   187b2: 22 f0        	sd	s0, 0x20(sp)
   187b4: 13 04 85 01  	addi	s0, a0, 0x18
   187b8: 8a 04        	slli	s1, s1, 0x2
   187ba: a2 94        	add	s1, s1, s0
   187bc: 4a e8        	sd	s2, 0x10(sp)
   187be: 03 a9 c4 ff  	lw	s2, -0x4(s1)
   187c2: 4e e4        	sd	s3, 0x8(sp)
   187c4: 52 e0        	sd	s4, 0x0(sp)
   187c6: 4a 85        	mv	a0, s2
   187c8: ae 89        	mv	s3, a1
   187ca: 06 f4        	sd	ra, 0x28(sp)
   187cc: ef f0 1f 86  	jal	0x1802c <__hi0bits>
   187d0: 93 06 00 02  	li	a3, 0x20
   187d4: bb 87 a6 40  	subw	a5, a3, a0
   187d8: 23 a0 f9 00  	sw	a5, 0x0(s3)
   187dc: a9 47        	li	a5, 0xa
   187de: 13 8a c4 ff  	addi	s4, s1, -0x4
   187e2: 63 d5 a7 08  	bge	a5, a0, 0x1886c <__b2d+0xc0>
   187e6: 9b 07 55 ff  	addiw	a5, a0, -0xb
   187ea: 63 71 44 05  	bgeu	s0, s4, 0x1882c <__b2d+0x80>
   187ee: 03 a7 84 ff  	lw	a4, -0x8(s1)
   187f2: a9 cb        	beqz	a5, 0x18844 <__b2d+0x98>
   187f4: 9d 9e        	subw	a3, a3, a5
   187f6: 3b 56 d7 00  	srlw	a2, a4, a3
   187fa: 3b 19 f9 00  	sllw	s2, s2, a5
   187fe: 33 69 c9 00  	or	s2, s2, a2
   18802: 37 06 f0 3f  	lui	a2, 0x3ff00
   18806: 33 69 c9 00  	or	s2, s2, a2
   1880a: bb 15 f7 00  	sllw	a1, a4, a5
   1880e: 13 86 84 ff  	addi	a2, s1, -0x8
   18812: 93 17 09 02  	slli	a5, s2, 0x20
   18816: 1b 87 05 00  	sext.w	a4, a1
   1881a: 63 7a c4 02  	bgeu	s0, a2, 0x1884e <__b2d+0xa2>
   1881e: 03 a7 44 ff  	lw	a4, -0xc(s1)
   18822: 3b 57 d7 00  	srlw	a4, a4, a3
   18826: 4d 8f        	or	a4, a4, a1
   18828: 01 27        	sext.w	a4, a4
   1882a: 15 a0        	j	0x1884e <__b2d+0xa2>
   1882c: 2d 47        	li	a4, 0xb
   1882e: 63 0a e5 00  	beq	a0, a4, 0x18842 <__b2d+0x96>
   18832: 37 07 f0 3f  	lui	a4, 0x3ff00
   18836: bb 17 f9 00  	sllw	a5, s2, a5
   1883a: d9 8f        	or	a5, a5, a4
   1883c: 82 17        	slli	a5, a5, 0x20
   1883e: 01 47        	li	a4, 0x0
   18840: 39 a0        	j	0x1884e <__b2d+0xa2>
   18842: 01 47        	li	a4, 0x0
   18844: b7 07 f0 3f  	lui	a5, 0x3ff00
   18848: b3 67 f9 00  	or	a5, s2, a5
   1884c: 82 17        	slli	a5, a5, 0x20
   1884e: a2 70        	ld	ra, 0x28(sp)
   18850: 02 74        	ld	s0, 0x20(sp)
   18852: 81 93        	srli	a5, a5, 0x20
   18854: 02 17        	slli	a4, a4, 0x20
   18856: 01 93        	srli	a4, a4, 0x20
   18858: 82 17        	slli	a5, a5, 0x20
   1885a: d9 8f        	or	a5, a5, a4
   1885c: e2 64        	ld	s1, 0x18(sp)
   1885e: 42 69        	ld	s2, 0x10(sp)
   18860: a2 69        	ld	s3, 0x8(sp)
   18862: 02 6a        	ld	s4, 0x0(sp)
   18864: 53 85 07 f2  	fmv.d.x	fa0, a5
   18868: 45 61        	addi	sp, sp, 0x30
   1886a: 82 80        	ret
   1886c: ad 46        	li	a3, 0xb
   1886e: 89 9e        	subw	a3, a3, a0
   18870: 37 07 f0 3f  	lui	a4, 0x3ff00
   18874: bb 57 d9 00  	srlw	a5, s2, a3
   18878: d9 8f        	or	a5, a5, a4
   1887a: 82 17        	slli	a5, a5, 0x20
   1887c: 01 47        	li	a4, 0x0
   1887e: 63 76 44 01  	bgeu	s0, s4, 0x1888a <__b2d+0xde>
   18882: 03 a7 84 ff  	lw	a4, -0x8(s1)
   18886: 3b 57 d7 00  	srlw	a4, a4, a3
   1888a: 55 25        	addiw	a0, a0, 0x15
   1888c: 3b 15 a9 00  	sllw	a0, s2, a0
   18890: 49 8f        	or	a4, a4, a0
   18892: 01 27        	sext.w	a4, a4
   18894: 6d bf        	j	0x1884e <__b2d+0xa2>

0000000000018896 <__d2b>:
   18896: 39 71        	addi	sp, sp, -0x40
   18898: 52 e8        	sd	s4, 0x10(sp)
   1889a: 2e 8a        	mv	s4, a1
   1889c: 85 45        	li	a1, 0x1
   1889e: 22 f8        	sd	s0, 0x30(sp)
   188a0: 4a f0        	sd	s2, 0x20(sp)
   188a2: 06 fc        	sd	ra, 0x38(sp)
   188a4: 26 f4        	sd	s1, 0x28(sp)
   188a6: 4e ec        	sd	s3, 0x18(sp)
   188a8: 53 04 05 e2  	fmv.x.d	s0, fa0
   188ac: 32 89        	mv	s2, a2
   188ae: ef f0 4f d3  	jal	0x17de2 <_Balloc>
   188b2: 55 c9        	beqz	a0, 0x18966 <__d2b+0xd0>
   188b4: 93 57 04 42  	srai	a5, s0, 0x20
   188b8: 9b d9 47 01  	srliw	s3, a5, 0x14
   188bc: 93 f9 f9 7f  	andi	s3, s3, 0x7ff
   188c0: b2 17        	slli	a5, a5, 0x2c
   188c2: aa 84        	mv	s1, a0
   188c4: b1 93        	srli	a5, a5, 0x2c
   188c6: 63 85 09 00  	beqz	s3, 0x188d0 <__d2b+0x3a>
   188ca: 37 07 10 00  	lui	a4, 0x100
   188ce: d9 8f        	or	a5, a5, a4
   188d0: 3e c6        	sw	a5, 0xc(sp)
   188d2: 01 24        	sext.w	s0, s0
   188d4: 29 e0        	bnez	s0, 0x18916 <__d2b+0x80>
   188d6: 68 00        	addi	a0, sp, 0xc
   188d8: ef f0 2f fb  	jal	0x1808a <__lo0bits>
   188dc: b2 47        	lw	a5, 0xc(sp)
   188de: 05 44        	li	s0, 0x1
   188e0: c0 c8        	sw	s0, 0x14(s1)
   188e2: 9c cc        	sw	a5, 0x18(s1)
   188e4: 1b 05 05 02  	addiw	a0, a0, 0x20
   188e8: 63 80 09 06  	beqz	s3, 0x18948 <__d2b+0xb2>
   188ec: 9b 89 d9 bc  	addiw	s3, s3, -0x433
   188f0: bb 89 a9 00  	addw	s3, s3, a0
   188f4: 13 04 50 03  	li	s0, 0x35
   188f8: 23 20 3a 01  	sw	s3, 0x0(s4)
   188fc: 3b 05 a4 40  	subw	a0, s0, a0
   18900: e2 70        	ld	ra, 0x38(sp)
   18902: 42 74        	ld	s0, 0x30(sp)
   18904: 23 20 a9 00  	sw	a0, 0x0(s2)
   18908: e2 69        	ld	s3, 0x18(sp)
   1890a: 02 79        	ld	s2, 0x20(sp)
   1890c: 42 6a        	ld	s4, 0x10(sp)
   1890e: 26 85        	mv	a0, s1
   18910: a2 74        	ld	s1, 0x28(sp)
   18912: 21 61        	addi	sp, sp, 0x40
   18914: 82 80        	ret
   18916: 28 00        	addi	a0, sp, 0x8
   18918: 22 c4        	sw	s0, 0x8(sp)
   1891a: ef f0 0f f7  	jal	0x1808a <__lo0bits>
   1891e: b2 47        	lw	a5, 0xc(sp)
   18920: 22 47        	lw	a4, 0x8(sp)
   18922: 19 c9        	beqz	a0, 0x18938 <__d2b+0xa2>
   18924: 93 06 00 02  	li	a3, 0x20
   18928: 89 9e        	subw	a3, a3, a0
   1892a: bb 96 d7 00  	sllw	a3, a5, a3
   1892e: 55 8f        	or	a4, a4, a3
   18930: bb d7 a7 00  	srlw	a5, a5, a0
   18934: 01 27        	sext.w	a4, a4
   18936: 3e c6        	sw	a5, 0xc(sp)
   18938: 33 34 f0 00  	snez	s0, a5
   1893c: 05 04        	addi	s0, s0, 0x1
   1893e: 98 cc        	sw	a4, 0x18(s1)
   18940: dc cc        	sw	a5, 0x1c(s1)
   18942: c0 c8        	sw	s0, 0x14(s1)
   18944: e3 94 09 fa  	bnez	s3, 0x188ec <__d2b+0x56>
   18948: 1b 05 e5 bc  	addiw	a0, a0, -0x432
   1894c: 93 17 24 00  	slli	a5, s0, 0x2
   18950: 23 20 aa 00  	sw	a0, 0x0(s4)
   18954: a6 97        	add	a5, a5, s1
   18956: c8 4b        	lw	a0, 0x14(a5)
   18958: 1b 14 54 00  	slliw	s0, s0, 0x5
   1895c: ef f0 0f ed  	jal	0x1802c <__hi0bits>
   18960: 3b 05 a4 40  	subw	a0, s0, a0
   18964: 71 bf        	j	0x18900 <__d2b+0x6a>
   18966: b7 06 02 00  	lui	a3, 0x20
   1896a: 37 05 02 00  	lui	a0, 0x20
   1896e: 93 86 86 a5  	addi	a3, a3, -0x5a8
   18972: 01 46        	li	a2, 0x0
   18974: 93 05 f0 30  	li	a1, 0x30f
   18978: 13 05 85 ad  	addi	a0, a0, -0x528
   1897c: ef 30 c0 65  	jal	0x1bfd8 <__assert_func>

0000000000018980 <__ratio>:
   18980: 79 71        	addi	sp, sp, -0x30
   18982: 26 ec        	sd	s1, 0x18(sp)
   18984: ae 84        	mv	s1, a1
   18986: 2c 00        	addi	a1, sp, 0x8
   18988: 06 f4        	sd	ra, 0x28(sp)
   1898a: 22 f0        	sd	s0, 0x20(sp)
   1898c: 4a e8        	sd	s2, 0x10(sp)
   1898e: 2a 89        	mv	s2, a0
   18990: ef f0 df e1  	jal	0x187ac <__b2d>
   18994: 6c 00        	addi	a1, sp, 0xc
   18996: 26 85        	mv	a0, s1
   18998: 53 04 05 e2  	fmv.x.d	s0, fa0
   1899c: ef f0 1f e1  	jal	0x187ac <__b2d>
   189a0: 83 27 49 01  	lw	a5, 0x14(s2)
   189a4: d0 48        	lw	a2, 0x14(s1)
   189a6: b2 46        	lw	a3, 0xc(sp)
   189a8: 22 47        	lw	a4, 0x8(sp)
   189aa: 91 9f        	subw	a5, a5, a2
   189ac: 9b 97 57 00  	slliw	a5, a5, 0x5
   189b0: 15 9f        	subw	a4, a4, a3
   189b2: bb 86 e7 00  	addw	a3, a5, a4
   189b6: b6 87        	mv	a5, a3
   189b8: 53 07 05 e2  	fmv.x.d	a4, fa0
   189bc: 63 59 d0 02  	blez	a3, 0x189ee <__ratio+0x6e>
   189c0: 93 56 04 02  	srli	a3, s0, 0x20
   189c4: 9b 97 47 01  	slliw	a5, a5, 0x14
   189c8: b5 9f        	addw	a5, a5, a3
   189ca: fd 56        	li	a3, -0x1
   189cc: 81 92        	srli	a3, a3, 0x20
   189ce: 82 17        	slli	a5, a5, 0x20
   189d0: e1 8e        	and	a3, a3, s0
   189d2: 33 e4 f6 00  	or	s0, a3, a5
   189d6: d3 07 04 f2  	fmv.d.x	fa5, s0
   189da: a2 70        	ld	ra, 0x28(sp)
   189dc: 02 74        	ld	s0, 0x20(sp)
   189de: 53 07 07 f2  	fmv.d.x	fa4, a4
   189e2: e2 64        	ld	s1, 0x18(sp)
   189e4: 42 69        	ld	s2, 0x10(sp)
   189e6: 53 f5 e7 1a  	fdiv.d	fa0, fa5, fa4
   189ea: 45 61        	addi	sp, sp, 0x30
   189ec: 82 80        	ret
   189ee: 93 56 07 02  	srli	a3, a4, 0x20
   189f2: 9b 97 47 01  	slliw	a5, a5, 0x14
   189f6: bb 87 f6 40  	subw	a5, a3, a5
   189fa: fd 56        	li	a3, -0x1
   189fc: 81 92        	srli	a3, a3, 0x20
   189fe: 82 17        	slli	a5, a5, 0x20
   18a00: 75 8f        	and	a4, a4, a3
   18a02: 5d 8f        	or	a4, a4, a5
   18a04: c9 bf        	j	0x189d6 <__ratio+0x56>

0000000000018a06 <_mprec_log10>:
   18a06: dd 47        	li	a5, 0x17
   18a08: 63 db a7 00  	bge	a5, a0, 0x18a1e <_mprec_log10+0x18>
   18a0c: 07 b5 01 0e  	fld	fa0, 0xe0(gp)
   18a10: 87 b7 81 16  	fld	fa5, 0x168(gp)
   18a14: 7d 35        	addiw	a0, a0, -0x1
   18a16: 53 75 f5 12  	fmul.d	fa0, fa0, fa5
   18a1a: 6d fd        	bnez	a0, 0x18a14 <_mprec_log10+0xe>
   18a1c: 82 80        	ret
   18a1e: b7 07 02 00  	lui	a5, 0x20
   18a22: 0e 05        	slli	a0, a0, 0x3
   18a24: 93 87 07 f8  	addi	a5, a5, -0x80
   18a28: aa 97        	add	a5, a5, a0
   18a2a: 88 23        	fld	fa0, 0x0(a5)
   18a2c: 82 80        	ret

0000000000018a2e <__copybits>:
   18a2e: 54 4a        	lw	a3, 0x14(a2)
   18a30: fd 35        	addiw	a1, a1, -0x1
   18a32: 9b d5 55 40  	sraiw	a1, a1, 0x5
   18a36: 85 25        	addiw	a1, a1, 0x1
   18a38: 93 07 86 01  	addi	a5, a2, 0x18
   18a3c: 8a 06        	slli	a3, a3, 0x2
   18a3e: 8a 05        	slli	a1, a1, 0x2
   18a40: be 96        	add	a3, a3, a5
   18a42: aa 95        	add	a1, a1, a0
   18a44: 63 f1 d7 02  	bgeu	a5, a3, 0x18a66 <__copybits+0x38>
   18a48: 2a 87        	mv	a4, a0
   18a4a: 03 a8 07 00  	lw	a6, 0x0(a5)
   18a4e: 91 07        	addi	a5, a5, 0x4
   18a50: 11 07        	addi	a4, a4, 0x4
   18a52: 23 2e 07 ff  	sw	a6, -0x4(a4)
   18a56: e3 ea d7 fe  	bltu	a5, a3, 0x18a4a <__copybits+0x1c>
   18a5a: b3 87 c6 40  	sub	a5, a3, a2
   18a5e: 9d 17        	addi	a5, a5, -0x19
   18a60: f1 9b        	andi	a5, a5, -0x4
   18a62: 91 07        	addi	a5, a5, 0x4
   18a64: 3e 95        	add	a0, a0, a5
   18a66: 63 77 b5 00  	bgeu	a0, a1, 0x18a74 <__copybits+0x46>
   18a6a: 11 05        	addi	a0, a0, 0x4
   18a6c: 23 2e 05 fe  	sw	zero, -0x4(a0)
   18a70: e3 6d b5 fe  	bltu	a0, a1, 0x18a6a <__copybits+0x3c>
   18a74: 82 80        	ret

0000000000018a76 <__any_on>:
   18a76: 58 49        	lw	a4, 0x14(a0)
   18a78: 13 d6 55 40  	srai	a2, a1, 0x5
   18a7c: 93 06 85 01  	addi	a3, a0, 0x18
   18a80: 63 5d c7 00  	bge	a4, a2, 0x18a9a <__any_on+0x24>
   18a84: 0a 07        	slli	a4, a4, 0x2
   18a86: b3 87 e6 00  	add	a5, a3, a4
   18a8a: 63 f8 f6 02  	bgeu	a3, a5, 0x18aba <__any_on+0x44>
   18a8e: 03 a7 c7 ff  	lw	a4, -0x4(a5)
   18a92: f1 17        	addi	a5, a5, -0x4
   18a94: 7d db        	beqz	a4, 0x18a8a <__any_on+0x14>
   18a96: 05 45        	li	a0, 0x1
   18a98: 82 80        	ret
   18a9a: 93 17 26 00  	slli	a5, a2, 0x2
   18a9e: b6 97        	add	a5, a5, a3
   18aa0: e3 55 e6 fe  	bge	a2, a4, 0x18a8a <__any_on+0x14>
   18aa4: fd 89        	andi	a1, a1, 0x1f
   18aa6: f5 d1        	beqz	a1, 0x18a8a <__any_on+0x14>
   18aa8: 90 43        	lw	a2, 0x0(a5)
   18aaa: 05 45        	li	a0, 0x1
   18aac: 3b 57 b6 00  	srlw	a4, a2, a1
   18ab0: 3b 17 b7 00  	sllw	a4, a4, a1
   18ab4: e3 0b c7 fc  	beq	a4, a2, 0x18a8a <__any_on+0x14>
   18ab8: 82 80        	ret
   18aba: 01 45        	li	a0, 0x0
   18abc: 82 80        	ret

0000000000018abe <_wctomb_r>:
   18abe: 83 b7 01 e6  	ld	a5, -0x1a0(gp)
   18ac2: 82 87        	jr	a5

0000000000018ac4 <__ascii_wctomb>:
   18ac4: 9b 07 06 00  	sext.w	a5, a2
   18ac8: 91 cd        	beqz	a1, 0x18ae4 <__ascii_wctomb+0x20>
   18aca: 13 07 f0 0f  	li	a4, 0xff
   18ace: 63 66 f7 00  	bltu	a4, a5, 0x18ada <__ascii_wctomb+0x16>
   18ad2: 23 80 c5 00  	sb	a2, 0x0(a1)
   18ad6: 05 45        	li	a0, 0x1
   18ad8: 82 80        	ret
   18ada: 93 07 a0 08  	li	a5, 0x8a
   18ade: 1c c1        	sw	a5, 0x0(a0)
   18ae0: 7d 55        	li	a0, -0x1
   18ae2: 82 80        	ret
   18ae4: 01 45        	li	a0, 0x0
   18ae6: 82 80        	ret

0000000000018ae8 <_vfprintf_r>:
   18ae8: 13 01 01 db  	addi	sp, sp, -0x250
   18aec: 23 34 11 24  	sd	ra, 0x248(sp)
   18af0: 23 30 81 24  	sd	s0, 0x240(sp)
   18af4: 23 38 21 23  	sd	s2, 0x230(sp)
   18af8: e6 ff        	sd	s9, 0x1f8(sp)
   18afa: 2e 89        	mv	s2, a1
   18afc: b2 8c        	mv	s9, a2
   18afe: 36 f0        	sd	a3, 0x20(sp)
   18b00: 2a 84        	mv	s0, a0
   18b02: 2a e4        	sd	a0, 0x8(sp)
   18b04: ef 30 e0 25  	jal	0x1bd62 <_localeconv_r>
   18b08: 1c 61        	ld	a5, 0x0(a0)
   18b0a: 3e 85        	mv	a0, a5
   18b0c: be ec        	sd	a5, 0x58(sp)
   18b0e: ef e0 4f c3  	jal	0x16f42 <strlen>
   18b12: aa e8        	sd	a0, 0x50(sp)
   18b14: 82 e9        	sd	zero, 0xd0(sp)
   18b16: 82 ed        	sd	zero, 0xd8(sp)
   18b18: 09 c4        	beqz	s0, 0x18b22 <_vfprintf_r+0x3a>
   18b1a: 38 64        	ld	a4, 0x48(s0)
   18b1c: 19 e3        	bnez	a4, 0x18b22 <_vfprintf_r+0x3a>
   18b1e: 6f 10 e0 23  	j	0x19d5c <_vfprintf_r+0x1274>
   18b22: 03 17 09 01  	lh	a4, 0x10(s2)
   18b26: 93 16 27 03  	slli	a3, a4, 0x32
   18b2a: 63 c1 06 02  	bltz	a3, 0x18b4c <_vfprintf_r+0x64>
   18b2e: 83 26 c9 0a  	lw	a3, 0xac(s2)
   18b32: 89 65        	lui	a1, 0x2
   18b34: 79 76        	lui	a2, 0xffffe
   18b36: 4d 8f        	or	a4, a4, a1
   18b38: 7d 16        	addi	a2, a2, -0x1
   18b3a: 1b 17 07 01  	slliw	a4, a4, 0x10
   18b3e: 1b 57 07 41  	sraiw	a4, a4, 0x10
   18b42: f1 8e        	and	a3, a3, a2
   18b44: 23 18 e9 00  	sh	a4, 0x10(s2)
   18b48: 23 26 d9 0a  	sw	a3, 0xac(s2)
   18b4c: 93 76 87 00  	andi	a3, a4, 0x8
   18b50: 63 80 06 26  	beqz	a3, 0x18db0 <_vfprintf_r+0x2c8>
   18b54: 83 36 89 01  	ld	a3, 0x18(s2)
   18b58: 63 8c 06 24  	beqz	a3, 0x18db0 <_vfprintf_r+0x2c8>
   18b5c: 69 8b        	andi	a4, a4, 0x1a
   18b5e: a9 46        	li	a3, 0xa
   18b60: 63 05 d7 26  	beq	a4, a3, 0x18dca <_vfprintf_r+0x2e2>
   18b64: 23 30 41 23  	sd	s4, 0x220(sp)
   18b68: 23 3c 51 21  	sd	s5, 0x218(sp)
   18b6c: ea fb        	sd	s10, 0x1f0(sp)
   18b6e: 37 07 02 00  	lui	a4, 0x20
   18b72: 23 3c 91 22  	sd	s1, 0x238(sp)
   18b76: 23 34 31 23  	sd	s3, 0x228(sp)
   18b7a: 23 38 61 21  	sd	s6, 0x210(sp)
   18b7e: 23 34 71 21  	sd	s7, 0x208(sp)
   18b82: 23 30 81 21  	sd	s8, 0x200(sp)
   18b86: ee f7        	sd	s11, 0x1e8(sp)
   18b88: 66 8d        	mv	s10, s9
   18b8a: 93 07 87 04  	addi	a5, a4, 0x48
   18b8e: 03 47 0d 00  	lbu	a4, 0x0(s10)
   18b92: 13 0a 01 16  	addi	s4, sp, 0x160
   18b96: b7 0a 02 00  	lui	s5, 0x20
   18b9a: d2 f1        	sd	s4, 0xe0(sp)
   18b9c: 82 f9        	sd	zero, 0xf0(sp)
   18b9e: 82 d5        	sw	zero, 0xe8(sp)
   18ba0: 02 fc        	sd	zero, 0x38(sp)
   18ba2: 82 f0        	sd	zero, 0x60(sp)
   18ba4: 82 f8        	sd	zero, 0x70(sp)
   18ba6: 02 e1        	sd	zero, 0x80(sp)
   18ba8: 02 e5        	sd	zero, 0x88(sp)
   18baa: 82 fc        	sd	zero, 0x78(sp)
   18bac: 02 e8        	sd	zero, 0x10(sp)
   18bae: 3e f4        	sd	a5, 0x28(sp)
   18bb0: 52 84        	mv	s0, s4
   18bb2: 93 8a 8a 1b  	addi	s5, s5, 0x1b8
   18bb6: 63 01 07 1a  	beqz	a4, 0x18d58 <_vfprintf_r+0x270>
   18bba: ea 89        	mv	s3, s10
   18bbc: 93 06 50 02  	li	a3, 0x25
   18bc0: 63 0d d7 2c  	beq	a4, a3, 0x18e9a <_vfprintf_r+0x3b2>
   18bc4: 03 c7 19 00  	lbu	a4, 0x1(s3)
   18bc8: 85 09        	addi	s3, s3, 0x1
   18bca: 7d fb        	bnez	a4, 0x18bc0 <_vfprintf_r+0xd8>
   18bcc: bb 84 a9 41  	subw	s1, s3, s10
   18bd0: 63 84 04 18  	beqz	s1, 0x18d58 <_vfprintf_r+0x270>
   18bd4: 2e 57        	lw	a4, 0xe8(sp)
   18bd6: ce 76        	ld	a3, 0xf0(sp)
   18bd8: 23 30 a4 01  	sd	s10, 0x0(s0)
   18bdc: 05 27        	addiw	a4, a4, 0x1
   18bde: a6 96        	add	a3, a3, s1
   18be0: 04 e4        	sd	s1, 0x8(s0)
   18be2: b6 f9        	sd	a3, 0xf0(sp)
   18be4: ba d5        	sw	a4, 0xe8(sp)
   18be6: 9b 06 07 00  	sext.w	a3, a4
   18bea: 1d 47        	li	a4, 0x7
   18bec: 41 04        	addi	s0, s0, 0x10
   18bee: 63 4d d7 2a  	blt	a4, a3, 0x18ea8 <_vfprintf_r+0x3c0>
   18bf2: c2 67        	ld	a5, 0x10(sp)
   18bf4: 03 c7 09 00  	lbu	a4, 0x0(s3)
   18bf8: a5 9f        	addw	a5, a5, s1
   18bfa: 3e e8        	sd	a5, 0x10(sp)
   18bfc: 63 0e 07 14  	beqz	a4, 0x18d58 <_vfprintf_r+0x270>
   18c00: 03 c3 19 00  	lbu	t1, 0x1(s3)
   18c04: a3 07 01 0a  	sb	zero, 0xaf(sp)
   18c08: 85 09        	addi	s3, s3, 0x1
   18c0a: 7d 5b        	li	s6, -0x1
   18c0c: 81 4b        	li	s7, 0x0
   18c0e: 81 4d        	li	s11, 0x0
   18c10: 93 04 a0 05  	li	s1, 0x5a
   18c14: 85 09        	addi	s3, s3, 0x1
   18c16: 01 23        	sext.w	t1, t1
   18c18: 9b 07 03 fe  	addiw	a5, t1, -0x20
   18c1c: 1b 87 07 00  	sext.w	a4, a5
   18c20: 63 e5 e4 04  	bltu	s1, a4, 0x18c6a <_vfprintf_r+0x182>
   18c24: 13 97 07 02  	slli	a4, a5, 0x20
   18c28: 93 57 e7 01  	srli	a5, a4, 0x1e
   18c2c: 22 77        	ld	a4, 0x28(sp)
   18c2e: ba 97        	add	a5, a5, a4
   18c30: 9c 43        	lw	a5, 0x0(a5)
   18c32: 82 87        	jr	a5
   18c34: 81 4b        	li	s7, 0x0
   18c36: a5 46        	li	a3, 0x9
   18c38: 03 c7 09 00  	lbu	a4, 0x0(s3)
   18c3c: 9b 97 2b 00  	slliw	a5, s7, 0x2
   18c40: bb 8b 77 01  	addw	s7, a5, s7
   18c44: 1b 03 03 fd  	addiw	t1, t1, -0x30
   18c48: 9b 9b 1b 00  	slliw	s7, s7, 0x1
   18c4c: 9b 07 07 fd  	addiw	a5, a4, -0x30
   18c50: bb 0b 73 01  	addw	s7, t1, s7
   18c54: 85 09        	addi	s3, s3, 0x1
   18c56: 1b 03 07 00  	sext.w	t1, a4
   18c5a: e3 ff f6 fc  	bgeu	a3, a5, 0x18c38 <_vfprintf_r+0x150>
   18c5e: 9b 07 03 fe  	addiw	a5, t1, -0x20
   18c62: 1b 87 07 00  	sext.w	a4, a5
   18c66: e3 ff e4 fa  	bgeu	s1, a4, 0x18c24 <_vfprintf_r+0x13c>
   18c6a: 63 07 03 0e  	beqz	t1, 0x18d58 <_vfprintf_r+0x270>
   18c6e: 23 0c 61 0e  	sb	t1, 0xf8(sp)
   18c72: a3 07 01 0a  	sb	zero, 0xaf(sp)
   18c76: 05 4c        	li	s8, 0x1
   18c78: 85 46        	li	a3, 0x1
   18c7a: 13 0d 81 0f  	addi	s10, sp, 0xf8
   18c7e: 02 ec        	sd	zero, 0x18(sp)
   18c80: 01 4b        	li	s6, 0x0
   18c82: 82 e4        	sd	zero, 0x48(sp)
   18c84: 82 e0        	sd	zero, 0x40(sp)
   18c86: 02 f8        	sd	zero, 0x30(sp)
   18c88: 93 f2 2d 00  	andi	t0, s11, 0x2
   18c8c: 63 83 02 00  	beqz	t0, 0x18c92 <_vfprintf_r+0x1aa>
   18c90: 09 2c        	addiw	s8, s8, 0x2
   18c92: 93 fc 4d 08  	andi	s9, s11, 0x84
   18c96: ce 74        	ld	s1, 0xf0(sp)
   18c98: 63 96 0c 00  	bnez	s9, 0x18ca4 <_vfprintf_r+0x1bc>
   18c9c: 3b 87 8b 41  	subw	a4, s7, s8
   18ca0: e3 4a e0 2e  	bgtz	a4, 0x19794 <_vfprintf_r+0xcac>
   18ca4: 03 47 f1 0a  	lbu	a4, 0xaf(sp)
   18ca8: 0d c3        	beqz	a4, 0x18cca <_vfprintf_r+0x1e2>
   18caa: 2e 57        	lw	a4, 0xe8(sp)
   18cac: 13 06 f1 0a  	addi	a2, sp, 0xaf
   18cb0: 10 e0        	sd	a2, 0x0(s0)
   18cb2: 05 27        	addiw	a4, a4, 0x1
   18cb4: 05 46        	li	a2, 0x1
   18cb6: 85 04        	addi	s1, s1, 0x1
   18cb8: 10 e4        	sd	a2, 0x8(s0)
   18cba: ba d5        	sw	a4, 0xe8(sp)
   18cbc: 1b 06 07 00  	sext.w	a2, a4
   18cc0: a6 f9        	sd	s1, 0xf0(sp)
   18cc2: 1d 47        	li	a4, 0x7
   18cc4: 41 04        	addi	s0, s0, 0x10
   18cc6: 63 4c c7 4e  	blt	a4, a2, 0x191be <_vfprintf_r+0x6d6>
   18cca: 63 81 02 02  	beqz	t0, 0x18cec <_vfprintf_r+0x204>
   18cce: 2e 57        	lw	a4, 0xe8(sp)
   18cd0: 09 46        	li	a2, 0x2
   18cd2: 89 04        	addi	s1, s1, 0x2
   18cd4: 05 27        	addiw	a4, a4, 0x1
   18cd6: 1c 19        	addi	a5, sp, 0xb0
   18cd8: 10 e4        	sd	a2, 0x8(s0)
   18cda: 1c e0        	sd	a5, 0x0(s0)
   18cdc: 1b 06 07 00  	sext.w	a2, a4
   18ce0: ba d5        	sw	a4, 0xe8(sp)
   18ce2: a6 f9        	sd	s1, 0xf0(sp)
   18ce4: 1d 47        	li	a4, 0x7
   18ce6: 41 04        	addi	s0, s0, 0x10
   18ce8: e3 46 c7 34  	blt	a4, a2, 0x19834 <_vfprintf_r+0xd4c>
   18cec: 13 07 00 08  	li	a4, 0x80
   18cf0: e3 80 ec 12  	beq	s9, a4, 0x19610 <_vfprintf_r+0xb28>
   18cf4: 3b 0b db 40  	subw	s6, s6, a3
   18cf8: e3 40 60 1d  	bgtz	s6, 0x196b8 <_vfprintf_r+0xbd0>
   18cfc: 13 f7 0d 10  	andi	a4, s11, 0x100
   18d00: e3 12 07 02  	bnez	a4, 0x19524 <_vfprintf_r+0xa3c>
   18d04: 2e 57        	lw	a4, 0xe8(sp)
   18d06: b6 94        	add	s1, s1, a3
   18d08: 23 30 a4 01  	sd	s10, 0x0(s0)
   18d0c: 05 27        	addiw	a4, a4, 0x1
   18d0e: 14 e4        	sd	a3, 0x8(s0)
   18d10: a6 f9        	sd	s1, 0xf0(sp)
   18d12: ba d5        	sw	a4, 0xe8(sp)
   18d14: 9d 47        	li	a5, 0x7
   18d16: 63 c0 e7 56  	blt	a5, a4, 0x19276 <_vfprintf_r+0x78e>
   18d1a: 41 04        	addi	s0, s0, 0x10
   18d1c: 13 fe 4d 00  	andi	t3, s11, 0x4
   18d20: 63 06 0e 00  	beqz	t3, 0x18d2c <_vfprintf_r+0x244>
   18d24: 3b 8b 8b 41  	subw	s6, s7, s8
   18d28: e3 44 60 33  	bgtz	s6, 0x19850 <_vfprintf_r+0xd68>
   18d2c: de 87        	mv	a5, s7
   18d2e: 63 d3 8b 01  	bge	s7, s8, 0x18d34 <_vfprintf_r+0x24c>
   18d32: e2 87        	mv	a5, s8
   18d34: 42 67        	ld	a4, 0x10(sp)
   18d36: b9 9f        	addw	a5, a5, a4
   18d38: 3e e8        	sd	a5, 0x10(sp)
   18d3a: e3 9d 04 20  	bnez	s1, 0x19754 <_vfprintf_r+0xc6c>
   18d3e: e2 67        	ld	a5, 0x18(sp)
   18d40: 82 d5        	sw	zero, 0xe8(sp)
   18d42: 89 c7        	beqz	a5, 0x18d4c <_vfprintf_r+0x264>
   18d44: e2 65        	ld	a1, 0x18(sp)
   18d46: 22 65        	ld	a0, 0x8(sp)
   18d48: ef e0 0f d4  	jal	0x17288 <_free_r>
   18d4c: 52 84        	mv	s0, s4
   18d4e: 4e 8d        	mv	s10, s3
   18d50: 03 47 0d 00  	lbu	a4, 0x0(s10)
   18d54: e3 13 07 e6  	bnez	a4, 0x18bba <_vfprintf_r+0xd2>
   18d58: ce 77        	ld	a5, 0xf0(sp)
   18d5a: 99 c3        	beqz	a5, 0x18d60 <_vfprintf_r+0x278>
   18d5c: 6f 10 a0 3c  	j	0x1a126 <_vfprintf_r+0x163e>
   18d60: 83 57 09 01  	lhu	a5, 0x10(s2)
   18d64: 83 34 81 23  	ld	s1, 0x238(sp)
   18d68: 83 39 81 22  	ld	s3, 0x228(sp)
   18d6c: 93 f7 07 04  	andi	a5, a5, 0x40
   18d70: 03 3a 01 22  	ld	s4, 0x220(sp)
   18d74: 83 3a 81 21  	ld	s5, 0x218(sp)
   18d78: 03 3b 01 21  	ld	s6, 0x210(sp)
   18d7c: 83 3b 81 20  	ld	s7, 0x208(sp)
   18d80: 03 3c 01 20  	ld	s8, 0x200(sp)
   18d84: 5e 7d        	ld	s10, 0x1f0(sp)
   18d86: be 7d        	ld	s11, 0x1e8(sp)
   18d88: 99 c3        	beqz	a5, 0x18d8e <_vfprintf_r+0x2a6>
   18d8a: 6f 10 40 6a  	j	0x1a42e <_vfprintf_r+0x1946>
   18d8e: 83 30 81 24  	ld	ra, 0x248(sp)
   18d92: 03 34 01 24  	ld	s0, 0x240(sp)
   18d96: 42 65        	ld	a0, 0x10(sp)
   18d98: 03 39 01 23  	ld	s2, 0x230(sp)
   18d9c: fe 7c        	ld	s9, 0x1f8(sp)
   18d9e: 13 01 01 25  	addi	sp, sp, 0x250
   18da2: 82 80        	ret
   18da4: 93 ed 0d 01  	ori	s11, s11, 0x10
   18da8: 03 c3 09 00  	lbu	t1, 0x0(s3)
   18dac: 81 2d        	sext.w	s11, s11
   18dae: 9d b5        	j	0x18c14 <_vfprintf_r+0x12c>
   18db0: 22 65        	ld	a0, 0x8(sp)
   18db2: ca 85        	mv	a1, s2
   18db4: ef 20 10 52  	jal	0x1bad4 <__swsetup_r>
   18db8: 19 c1        	beqz	a0, 0x18dbe <_vfprintf_r+0x2d6>
   18dba: 6f 10 40 67  	j	0x1a42e <_vfprintf_r+0x1946>
   18dbe: 03 17 09 01  	lh	a4, 0x10(s2)
   18dc2: a9 46        	li	a3, 0xa
   18dc4: 69 8b        	andi	a4, a4, 0x1a
   18dc6: e3 1f d7 d8  	bne	a4, a3, 0x18b64 <_vfprintf_r+0x7c>
   18dca: 03 17 29 01  	lh	a4, 0x12(s2)
   18dce: e3 4b 07 d8  	bltz	a4, 0x18b64 <_vfprintf_r+0x7c>
   18dd2: 82 76        	ld	a3, 0x20(sp)
   18dd4: 22 65        	ld	a0, 0x8(sp)
   18dd6: 66 86        	mv	a2, s9
   18dd8: ca 85        	mv	a1, s2
   18dda: ef 10 b0 08  	jal	0x1a664 <__sbprintf>
   18dde: 2a e8        	sd	a0, 0x10(sp)
   18de0: 7d b7        	j	0x18d8e <_vfprintf_r+0x2a6>
   18de2: 13 ee 0d 01  	ori	t3, s11, 0x10
   18de6: 9b 0d 0e 00  	sext.w	s11, t3
   18dea: 82 76        	ld	a3, 0x20(sp)
   18dec: 93 f7 0d 02  	andi	a5, s11, 0x20
   18df0: 13 87 86 00  	addi	a4, a3, 0x8
   18df4: 63 88 07 4a  	beqz	a5, 0x192a4 <_vfprintf_r+0x7bc>
   18df8: 9c 62        	ld	a5, 0x0(a3)
   18dfa: be 84        	mv	s1, a5
   18dfc: 63 c5 07 4c  	bltz	a5, 0x192c6 <_vfprintf_r+0x7de>
   18e00: e3 4f 0b 4c  	bltz	s6, 0x19ade <_vfprintf_r+0xff6>
   18e04: 93 fc fd f7  	andi	s9, s11, -0x81
   18e08: 81 2c        	sext.w	s9, s9
   18e0a: 99 c0        	beqz	s1, 0x18e10 <_vfprintf_r+0x328>
   18e0c: 6f 00 70 79  	j	0x19da2 <_vfprintf_r+0x12ba>
   18e10: 63 04 0b 00  	beqz	s6, 0x18e18 <_vfprintf_r+0x330>
   18e14: 6f 10 e0 6a  	j	0x1a4c2 <_vfprintf_r+0x19da>
   18e18: 81 46        	li	a3, 0x0
   18e1a: 3a f0        	sd	a4, 0x20(sp)
   18e1c: e6 8d        	mv	s11, s9
   18e1e: 13 0d c1 15  	addi	s10, sp, 0x15c
   18e22: 03 47 f1 0a  	lbu	a4, 0xaf(sp)
   18e26: 5a 88        	mv	a6, s6
   18e28: 63 53 db 00  	bge	s6, a3, 0x18e2e <_vfprintf_r+0x346>
   18e2c: 36 88        	mv	a6, a3
   18e2e: 02 ec        	sd	zero, 0x18(sp)
   18e30: 82 e4        	sd	zero, 0x48(sp)
   18e32: 82 e0        	sd	zero, 0x40(sp)
   18e34: 02 f8        	sd	zero, 0x30(sp)
   18e36: 1b 0c 08 00  	sext.w	s8, a6
   18e3a: e3 07 07 e4  	beqz	a4, 0x18c88 <_vfprintf_r+0x1a0>
   18e3e: 05 2c        	addiw	s8, s8, 0x1
   18e40: a1 b5        	j	0x18c88 <_vfprintf_r+0x1a0>
   18e42: 13 ee 0d 01  	ori	t3, s11, 0x10
   18e46: 9b 0d 0e 00  	sext.w	s11, t3
   18e4a: 82 76        	ld	a3, 0x20(sp)
   18e4c: 93 f7 0d 02  	andi	a5, s11, 0x20
   18e50: 13 87 86 00  	addi	a4, a3, 0x8
   18e54: 63 8b 07 42  	beqz	a5, 0x1928a <_vfprintf_r+0x7a2>
   18e58: 84 62        	ld	s1, 0x0(a3)
   18e5a: 93 fc fd bf  	andi	s9, s11, -0x401
   18e5e: 81 2c        	sext.w	s9, s9
   18e60: 3a f0        	sd	a4, 0x20(sp)
   18e62: 81 47        	li	a5, 0x0
   18e64: 01 47        	li	a4, 0x0
   18e66: a3 07 e1 0a  	sb	a4, 0xaf(sp)
   18e6a: 63 49 0b 46  	bltz	s6, 0x192dc <_vfprintf_r+0x7f4>
   18e6e: 13 fe fc f7  	andi	t3, s9, -0x81
   18e72: 9b 0d 0e 00  	sext.w	s11, t3
   18e76: e3 9e 04 0e  	bnez	s1, 0x19772 <_vfprintf_r+0xc8a>
   18e7a: 63 12 0b 76  	bnez	s6, 0x195de <_vfprintf_r+0xaf6>
   18e7e: e3 94 07 3e  	bnez	a5, 0x19a66 <_vfprintf_r+0xf7e>
   18e82: 93 f6 1c 00  	andi	a3, s9, 0x1
   18e86: 13 0d c1 15  	addi	s10, sp, 0x15c
   18e8a: c1 de        	beqz	a3, 0x18e22 <_vfprintf_r+0x33a>
   18e8c: 93 07 00 03  	li	a5, 0x30
   18e90: a3 0d f1 14  	sb	a5, 0x15b(sp)
   18e94: 13 0d b1 15  	addi	s10, sp, 0x15b
   18e98: 69 b7        	j	0x18e22 <_vfprintf_r+0x33a>
   18e9a: bb 84 a9 41  	subw	s1, s3, s10
   18e9e: e3 9b 04 d2  	bnez	s1, 0x18bd4 <_vfprintf_r+0xec>
   18ea2: 03 c7 09 00  	lbu	a4, 0x0(s3)
   18ea6: 99 bb        	j	0x18bfc <_vfprintf_r+0x114>
   18ea8: 22 65        	ld	a0, 0x8(sp)
   18eaa: 90 11        	addi	a2, sp, 0xe0
   18eac: ca 85        	mv	a1, s2
   18eae: ef 10 10 11  	jal	0x1a7be <__sprint_r>
   18eb2: e3 17 05 ea  	bnez	a0, 0x18d60 <_vfprintf_r+0x278>
   18eb6: 52 84        	mv	s0, s4
   18eb8: 2d bb        	j	0x18bf2 <_vfprintf_r+0x10a>
   18eba: 13 f7 8d 00  	andi	a4, s11, 0x8
   18ebe: e3 12 07 40  	bnez	a4, 0x19ac2 <_vfprintf_r+0xfda>
   18ec2: 82 77        	ld	a5, 0x20(sp)
   18ec4: 1a ec        	sd	t1, 0x18(sp)
   18ec6: 88 23        	fld	fa0, 0x0(a5)
   18ec8: 13 8c 87 00  	addi	s8, a5, 0x8
   18ecc: ef 60 c0 3d  	jal	0x1f2a8 <__extenddftf2>
   18ed0: 62 63        	ld	t1, 0x18(sp)
   18ed2: 2a 87        	mv	a4, a0
   18ed4: 62 f0        	sd	s8, 0x20(sp)
   18ed6: 88 09        	addi	a0, sp, 0xd0
   18ed8: 1a ec        	sd	t1, 0x18(sp)
   18eda: ba e9        	sd	a4, 0xd0(sp)
   18edc: ae ed        	sd	a1, 0xd8(sp)
   18ede: ef 30 a0 36  	jal	0x1c248 <_ldcheck>
   18ee2: 2a dd        	sw	a0, 0xb8(sp)
   18ee4: 09 47        	li	a4, 0x2
   18ee6: 62 63        	ld	t1, 0x18(sp)
   18ee8: e3 0f e5 6a  	beq	a0, a4, 0x19da6 <_vfprintf_r+0x12be>
   18eec: 05 47        	li	a4, 0x1
   18eee: 63 14 e5 00  	bne	a0, a4, 0x18ef6 <_vfprintf_r+0x40e>
   18ef2: 6f 00 b0 7d  	j	0x19ecc <_vfprintf_r+0x13e4>
   18ef6: 13 07 10 06  	li	a4, 0x61
   18efa: e3 0e e3 56  	beq	t1, a4, 0x19c76 <_vfprintf_r+0x118e>
   18efe: 13 07 10 04  	li	a4, 0x41
   18f02: 93 07 80 05  	li	a5, 0x58
   18f06: e3 0a e3 56  	beq	t1, a4, 0x19c7a <_vfprintf_r+0x1192>
   18f0a: 7d 57        	li	a4, -0x1
   18f0c: 63 14 eb 00  	bne	s6, a4, 0x18f14 <_vfprintf_r+0x42c>
   18f10: 6f 10 e0 58  	j	0x1a49e <_vfprintf_r+0x19b6>
   18f14: 13 77 f3 fd  	andi	a4, t1, -0x21
   18f18: 93 06 70 04  	li	a3, 0x47
   18f1c: 02 ec        	sd	zero, 0x18(sp)
   18f1e: 63 14 d7 00  	bne	a4, a3, 0x18f26 <_vfprintf_r+0x43e>
   18f22: 6f 10 40 58  	j	0x1a4a6 <_vfprintf_r+0x19be>
   18f26: ce 67        	ld	a5, 0xd0(sp)
   18f28: ee 6c        	ld	s9, 0xd8(sp)
   18f2a: 13 e7 0d 10  	ori	a4, s11, 0x100
   18f2e: 3e f8        	sd	a5, 0x30(sp)
   18f30: 82 f4        	sd	zero, 0x68(sp)
   18f32: 9b 04 07 00  	sext.w	s1, a4
   18f36: 63 d4 0c 00  	bgez	s9, 0x18f3e <_vfprintf_r+0x456>
   18f3a: 6f 10 a0 39  	j	0x1a2d4 <_vfprintf_r+0x17ec>
   18f3e: 9b 06 f3 fb  	addiw	a3, t1, -0x41
   18f42: 13 07 50 02  	li	a4, 0x25
   18f46: 63 74 d7 00  	bgeu	a4, a3, 0x18f4e <_vfprintf_r+0x466>
   18f4a: 6f 10 e0 3e  	j	0x1a338 <_vfprintf_r+0x1850>
   18f4e: 05 47        	li	a4, 0x1
   18f50: 05 4c        	li	s8, 0x1
   18f52: 16 17        	slli	a4, a4, 0x25
   18f54: b3 16 dc 00  	sll	a3, s8, a3
   18f58: 13 07 07 02  	addi	a4, a4, 0x20
   18f5c: 75 8f        	and	a4, a4, a3
   18f5e: 19 c3        	beqz	a4, 0x18f64 <_vfprintf_r+0x47c>
   18f60: 6f 10 00 29  	j	0x1a1f0 <_vfprintf_r+0x1708>
   18f64: 05 47        	li	a4, 0x1
   18f66: 12 17        	slli	a4, a4, 0x24
   18f68: 41 07        	addi	a4, a4, 0x10
   18f6a: 75 8f        	and	a4, a4, a3
   18f6c: 19 c3        	beqz	a4, 0x18f72 <_vfprintf_r+0x48a>
   18f6e: 6f 10 e0 4c  	j	0x1a43c <_vfprintf_r+0x1954>
   18f72: 05 47        	li	a4, 0x1
   18f74: 02 17        	slli	a4, a4, 0x20
   18f76: 05 07        	addi	a4, a4, 0x1
   18f78: f9 8e        	and	a3, a3, a4
   18f7a: 1a fc        	sd	t1, 0x38(sp)
   18f7c: 99 e2        	bnez	a3, 0x18f82 <_vfprintf_r+0x49a>
   18f7e: 6f 10 c0 1f  	j	0x1a17a <_vfprintf_r+0x1692>
   18f82: 42 75        	ld	a0, 0x30(sp)
   18f84: 30 19        	addi	a2, sp, 0xb8
   18f86: e6 85        	mv	a1, s9
   18f88: ef 20 70 72  	jal	0x1beae <frexpl>
   18f8c: b7 f6 ff 00  	lui	a3, 0xfff
   18f90: 01 46        	li	a2, 0x0
   18f92: 9a 16        	slli	a3, a3, 0x26
   18f94: ef 50 a0 3e  	jal	0x1e37e <__multf3>
   18f98: 01 46        	li	a2, 0x0
   18f9a: 81 46        	li	a3, 0x0
   18f9c: aa 8c        	mv	s9, a0
   18f9e: ae 84        	mv	s1, a1
   18fa0: ef 50 a0 1f  	jal	0x1e19a <__netf2>
   18fa4: 62 73        	ld	t1, 0x38(sp)
   18fa6: 11 e1        	bnez	a0, 0x18faa <_vfprintf_r+0x4c2>
   18fa8: 62 dd        	sw	s8, 0xb8(sp)
   18faa: 13 07 10 06  	li	a4, 0x61
   18fae: 63 14 e3 00  	bne	t1, a4, 0x18fb6 <_vfprintf_r+0x4ce>
   18fb2: 6f 10 60 61  	j	0x1a5c8 <_vfprintf_r+0x1ae0>
   18fb6: 37 07 02 00  	lui	a4, 0x20
   18fba: 93 07 07 b7  	addi	a5, a4, -0x490
   18fbe: 3e f8        	sd	a5, 0x30(sp)
   18fc0: 13 17 0b 02  	slli	a4, s6, 0x20
   18fc4: 01 93        	srli	a4, a4, 0x20
   18fc6: 05 07        	addi	a4, a4, 0x1
   18fc8: b7 36 00 04  	lui	a3, 0x4003
   18fcc: 1b 08 0b 00  	sext.w	a6, s6
   18fd0: b3 07 ed 00  	add	a5, s10, a4
   18fd4: 92 16        	slli	a3, a3, 0x24
   18fd6: 4e fc        	sd	s3, 0x38(sp)
   18fd8: a2 f8        	sd	s0, 0x70(sp)
   18fda: 4a 8c        	mv	s8, s2
   18fdc: 42 7b        	ld	s6, 0x30(sp)
   18fde: 9a e0        	sd	t1, 0x40(sp)
   18fe0: de e4        	sd	s7, 0x48(sp)
   18fe2: 42 e9        	sd	a6, 0x90(sp)
   18fe4: ea 89        	mv	s3, s10
   18fe6: 3e 89        	mv	s2, a5
   18fe8: 36 84        	mv	s0, a3
   18fea: 01 a8        	j	0x18ffa <_vfprintf_r+0x512>
   18fec: 01 46        	li	a2, 0x0
   18fee: 81 46        	li	a3, 0x0
   18ff0: ef 50 a0 1a  	jal	0x1e19a <__netf2>
   18ff4: 19 e1        	bnez	a0, 0x18ffa <_vfprintf_r+0x512>
   18ff6: 6f 10 20 59  	j	0x1a588 <_vfprintf_r+0x1aa0>
   18ffa: 01 46        	li	a2, 0x0
   18ffc: a2 86        	mv	a3, s0
   18ffe: 66 85        	mv	a0, s9
   19000: a6 85        	mv	a1, s1
   19002: ef 50 c0 37  	jal	0x1e37e <__multf3>
   19006: ae 84        	mv	s1, a1
   19008: aa 8c        	mv	s9, a0
   1900a: ef 60 20 1b  	jal	0x1f1bc <__fixtfsi>
   1900e: 9b 0b 05 00  	sext.w	s7, a0
   19012: ef 60 00 24  	jal	0x1f252 <__floatsitf>
   19016: ae 86        	mv	a3, a1
   19018: 2a 86        	mv	a2, a0
   1901a: a6 85        	mv	a1, s1
   1901c: 66 85        	mv	a0, s9
   1901e: ef 50 70 15  	jal	0x1e974 <__subtf3>
   19022: b3 06 7b 01  	add	a3, s6, s7
   19026: 83 c6 06 00  	lbu	a3, 0x0(a3)
   1902a: ce 88        	mv	a7, s3
   1902c: 85 09        	addi	s3, s3, 0x1
   1902e: a3 8f d9 fe  	sb	a3, -0x1(s3)
   19032: aa 8c        	mv	s9, a0
   19034: ae 84        	mv	s1, a1
   19036: e3 1b 39 fb  	bne	s2, s3, 0x18fec <_vfprintf_r+0x504>
   1903a: 06 63        	ld	t1, 0x40(sp)
   1903c: b7 f6 ff 01  	lui	a3, 0x1fff
   19040: 96 16        	slli	a3, a3, 0x25
   19042: 01 46        	li	a2, 0x0
   19044: 1a e9        	sd	t1, 0x90(sp)
   19046: c6 e0        	sd	a7, 0x40(sp)
   19048: 5e 8b        	mv	s6, s7
   1904a: a6 6b        	ld	s7, 0x48(sp)
   1904c: b6 e4        	sd	a3, 0x48(sp)
   1904e: ef 50 40 1f  	jal	0x1e242 <__gttf2>
   19052: 62 89        	mv	s2, s8
   19054: 46 74        	ld	s0, 0x70(sp)
   19056: 4e 8c        	mv	s8, s3
   19058: 86 68        	ld	a7, 0x40(sp)
   1905a: e2 79        	ld	s3, 0x38(sp)
   1905c: 4a 63        	ld	t1, 0x90(sp)
   1905e: 63 40 a0 02  	bgtz	a0, 0x1907e <_vfprintf_r+0x596>
   19062: a6 66        	ld	a3, 0x48(sp)
   19064: 01 46        	li	a2, 0x0
   19066: 66 85        	mv	a0, s9
   19068: a6 85        	mv	a1, s1
   1906a: 1a fc        	sd	t1, 0x38(sp)
   1906c: ef 50 e0 12  	jal	0x1e19a <__netf2>
   19070: 62 73        	ld	t1, 0x38(sp)
   19072: 39 e5        	bnez	a0, 0x190c0 <_vfprintf_r+0x5d8>
   19074: 13 7b 1b 00  	andi	s6, s6, 0x1
   19078: 86 68        	ld	a7, 0x40(sp)
   1907a: 63 03 0b 04  	beqz	s6, 0x190c0 <_vfprintf_r+0x5d8>
   1907e: c2 77        	ld	a5, 0x30(sp)
   19080: c6 e5        	sd	a7, 0xc8(sp)
   19082: 03 46 fc ff  	lbu	a2, -0x1(s8)
   19086: 83 c5 f7 00  	lbu	a1, 0xf(a5)
   1908a: e2 86        	mv	a3, s8
   1908c: 63 1e b6 00  	bne	a2, a1, 0x190a8 <_vfprintf_r+0x5c0>
   19090: 13 05 00 03  	li	a0, 0x30
   19094: a3 8f a6 fe  	sb	a0, -0x1(a3)
   19098: ae 66        	ld	a3, 0xc8(sp)
   1909a: 93 87 f6 ff  	addi	a5, a3, -0x1
   1909e: be e5        	sd	a5, 0xc8(sp)
   190a0: 03 c6 f6 ff  	lbu	a2, -0x1(a3)
   190a4: e3 88 c5 fe  	beq	a1, a2, 0x19094 <_vfprintf_r+0x5ac>
   190a8: 9b 05 16 00  	addiw	a1, a2, 0x1
   190ac: 13 05 90 03  	li	a0, 0x39
   190b0: 93 f5 f5 0f  	andi	a1, a1, 0xff
   190b4: 63 14 a6 00  	bne	a2, a0, 0x190bc <_vfprintf_r+0x5d4>
   190b8: 6f 10 a0 11  	j	0x1a1d2 <_vfprintf_r+0x16ea>
   190bc: a3 8f b6 fe  	sb	a1, -0x1(a3)
   190c0: e2 86        	mv	a3, s8
   190c2: ea 57        	lw	a5, 0xb8(sp)
   190c4: 3b 87 a6 41  	subw	a4, a3, s10
   190c8: 3a fc        	sd	a4, 0x38(sp)
   190ca: 1b 87 f7 ff  	addiw	a4, a5, -0x1
   190ce: 3e f8        	sd	a5, 0x30(sp)
   190d0: 13 06 10 06  	li	a2, 0x61
   190d4: 3a dd        	sw	a4, 0xb8(sp)
   190d6: 63 14 c3 00  	bne	t1, a2, 0x190de <_vfprintf_r+0x5f6>
   190da: 6f 10 c0 4f  	j	0x1a5d6 <_vfprintf_r+0x1aee>
   190de: 13 06 10 04  	li	a2, 0x41
   190e2: 93 06 00 05  	li	a3, 0x50
   190e6: 63 04 c3 00  	beq	t1, a2, 0x190ee <_vfprintf_r+0x606>
   190ea: 6f 10 e0 0d  	j	0x1a1c8 <_vfprintf_r+0x16e0>
   190ee: 05 46        	li	a2, 0x1
   190f0: 23 00 d1 0c  	sb	a3, 0xc0(sp)
   190f4: 93 06 b0 02  	li	a3, 0x2b
   190f8: 63 57 07 00  	bgez	a4, 0x19106 <_vfprintf_r+0x61e>
   190fc: c2 77        	ld	a5, 0x30(sp)
   190fe: 05 47        	li	a4, 0x1
   19100: 93 06 d0 02  	li	a3, 0x2d
   19104: 1d 9f        	subw	a4, a4, a5
   19106: a3 00 d1 0c  	sb	a3, 0xc1(sp)
   1910a: a5 46        	li	a3, 0x9
   1910c: 63 c4 e6 00  	blt	a3, a4, 0x19114 <_vfprintf_r+0x62c>
   19110: 6f 10 40 36  	j	0x1a474 <_vfprintf_r+0x198c>
   19114: 93 08 f1 0c  	addi	a7, sp, 0xcf
   19118: 46 85        	mv	a0, a7
   1911a: 29 48        	li	a6, 0xa
   1911c: 13 0f 30 06  	li	t5, 0x63
   19120: bb 67 07 03  	remw	a5, a4, a6
   19124: aa 86        	mv	a3, a0
   19126: 3a 86        	mv	a2, a4
   19128: 7d 15        	addi	a0, a0, -0x1
   1912a: 9b 87 07 03  	addiw	a5, a5, 0x30
   1912e: a3 8f f6 fe  	sb	a5, -0x1(a3)
   19132: 3b 47 07 03  	divw	a4, a4, a6
   19136: e3 45 cf fe  	blt	t5, a2, 0x19120 <_vfprintf_r+0x638>
   1913a: 9b 05 07 03  	addiw	a1, a4, 0x30
   1913e: a3 0f b5 fe  	sb	a1, -0x1(a0)
   19142: 13 87 e6 ff  	addi	a4, a3, -0x2
   19146: 63 64 17 01  	bltu	a4, a7, 0x1914e <_vfprintf_r+0x666>
   1914a: 6f 10 c0 4c  	j	0x1a616 <_vfprintf_r+0x1b2e>
   1914e: 13 06 21 0c  	addi	a2, sp, 0xc2
   19152: 83 47 07 00  	lbu	a5, 0x0(a4)
   19156: 05 07        	addi	a4, a4, 0x1
   19158: 05 06        	addi	a2, a2, 0x1
   1915a: a3 0f f6 fe  	sb	a5, -0x1(a2)
   1915e: e3 1a 17 ff  	bne	a4, a7, 0x19152 <_vfprintf_r+0x66a>
   19162: 9c 13        	addi	a5, sp, 0x1e0
   19164: b3 86 d7 40  	sub	a3, a5, a3
   19168: 9b 87 36 ef  	addiw	a5, a3, -0x10d
   1916c: be f8        	sd	a5, 0x70(sp)
   1916e: 46 77        	ld	a4, 0x70(sp)
   19170: e2 77        	ld	a5, 0x38(sp)
   19172: 05 46        	li	a2, 0x1
   19174: bb 86 e7 00  	addw	a3, a5, a4
   19178: 36 87        	mv	a4, a3
   1917a: 63 44 f6 00  	blt	a2, a5, 0x19182 <_vfprintf_r+0x69a>
   1917e: 6f 10 60 33  	j	0x1a4b4 <_vfprintf_r+0x19cc>
   19182: c6 67        	ld	a5, 0x50(sp)
   19184: bb 06 f7 00  	addw	a3, a4, a5
   19188: 13 c8 f6 ff  	not	a6, a3
   1918c: 13 fe fd bf  	andi	t3, s11, -0x401
   19190: 13 58 f8 43  	srai	a6, a6, 0x3f
   19194: 01 2e        	sext.w	t3, t3
   19196: 33 f8 06 01  	and	a6, a3, a6
   1919a: 93 6d 0e 10  	ori	s11, t3, 0x100
   1919e: 1b 0c 08 00  	sext.w	s8, a6
   191a2: 82 e4        	sd	zero, 0x48(sp)
   191a4: 82 e0        	sd	zero, 0x40(sp)
   191a6: 02 f8        	sd	zero, 0x30(sp)
   191a8: a6 77        	ld	a5, 0x68(sp)
   191aa: 99 e3        	bnez	a5, 0x191b0 <_vfprintf_r+0x6c8>
   191ac: 6f 10 40 03  	j	0x1a1e0 <_vfprintf_r+0x16f8>
   191b0: 13 07 d0 02  	li	a4, 0x2d
   191b4: a3 07 e1 0a  	sb	a4, 0xaf(sp)
   191b8: 01 4b        	li	s6, 0x0
   191ba: 05 2c        	addiw	s8, s8, 0x1
   191bc: f1 b4        	j	0x18c88 <_vfprintf_r+0x1a0>
   191be: 22 65        	ld	a0, 0x8(sp)
   191c0: 90 11        	addi	a2, sp, 0xe0
   191c2: ca 85        	mv	a1, s2
   191c4: 36 ed        	sd	a3, 0x98(sp)
   191c6: 1a e9        	sd	t1, 0x90(sp)
   191c8: 96 f4        	sd	t0, 0x68(sp)
   191ca: ef 10 40 5f  	jal	0x1a7be <__sprint_r>
   191ce: 63 1a 05 58  	bnez	a0, 0x19762 <_vfprintf_r+0xc7a>
   191d2: ce 74        	ld	s1, 0xf0(sp)
   191d4: ea 66        	ld	a3, 0x98(sp)
   191d6: 4a 63        	ld	t1, 0x90(sp)
   191d8: a6 72        	ld	t0, 0x68(sp)
   191da: 52 84        	mv	s0, s4
   191dc: fd b4        	j	0x18cca <_vfprintf_r+0x1e2>
   191de: 2e 57        	lw	a4, 0xe8(sp)
   191e0: e2 77        	ld	a5, 0x38(sp)
   191e2: 85 46        	li	a3, 0x1
   191e4: 1b 0b 17 00  	addiw	s6, a4, 0x1
   191e8: 23 30 a4 01  	sd	s10, 0x0(s0)
   191ec: 85 04        	addi	s1, s1, 0x1
   191ee: 5a 87        	mv	a4, s6
   191f0: 93 0c 04 01  	addi	s9, s0, 0x10
   191f4: 63 db f6 7c  	bge	a3, a5, 0x199ca <_vfprintf_r+0xee2>
   191f8: 85 46        	li	a3, 0x1
   191fa: ba d5        	sw	a4, 0xe8(sp)
   191fc: 14 e4        	sd	a3, 0x8(s0)
   191fe: a6 f9        	sd	s1, 0xf0(sp)
   19200: 1d 47        	li	a4, 0x7
   19202: e3 41 67 2d  	blt	a4, s6, 0x19cc4 <_vfprintf_r+0x11dc>
   19206: c6 67        	ld	a5, 0x50(sp)
   19208: e6 66        	ld	a3, 0x58(sp)
   1920a: 05 2b        	addiw	s6, s6, 0x1
   1920c: be 94        	add	s1, s1, a5
   1920e: 23 b0 dc 00  	sd	a3, 0x0(s9)
   19212: 23 b4 fc 00  	sd	a5, 0x8(s9)
   19216: a6 f9        	sd	s1, 0xf0(sp)
   19218: da d5        	sw	s6, 0xe8(sp)
   1921a: 1d 47        	li	a4, 0x7
   1921c: c1 0c        	addi	s9, s9, 0x10
   1921e: e3 4f 67 2b  	blt	a4, s6, 0x19cdc <_vfprintf_r+0x11f4>
   19222: e2 77        	ld	a5, 0x38(sp)
   19224: 4e 65        	ld	a0, 0xd0(sp)
   19226: ee 65        	ld	a1, 0xd8(sp)
   19228: 01 46        	li	a2, 0x0
   1922a: 81 46        	li	a3, 0x0
   1922c: 1b 84 f7 ff  	addiw	s0, a5, -0x1
   19230: ef 40 b0 76  	jal	0x1e19a <__netf2>
   19234: 63 00 05 7c  	beqz	a0, 0x199f4 <_vfprintf_r+0xf0c>
   19238: 93 07 1d 00  	addi	a5, s10, 0x1
   1923c: 05 2b        	addiw	s6, s6, 0x1
   1923e: a2 94        	add	s1, s1, s0
   19240: 23 b0 fc 00  	sd	a5, 0x0(s9)
   19244: 23 b4 8c 00  	sd	s0, 0x8(s9)
   19248: a6 f9        	sd	s1, 0xf0(sp)
   1924a: da d5        	sw	s6, 0xe8(sp)
   1924c: 9d 47        	li	a5, 0x7
   1924e: 63 c8 67 79  	blt	a5, s6, 0x199de <_vfprintf_r+0xef6>
   19252: c1 0c        	addi	s9, s9, 0x10
   19254: 46 77        	ld	a4, 0x70(sp)
   19256: 05 2b        	addiw	s6, s6, 0x1
   19258: 9c 01        	addi	a5, sp, 0xc0
   1925a: ba 94        	add	s1, s1, a4
   1925c: 23 b0 fc 00  	sd	a5, 0x0(s9)
   19260: 23 b4 ec 00  	sd	a4, 0x8(s9)
   19264: a6 f9        	sd	s1, 0xf0(sp)
   19266: 1b 07 0b 00  	sext.w	a4, s6
   1926a: da d5        	sw	s6, 0xe8(sp)
   1926c: 9d 47        	li	a5, 0x7
   1926e: 13 84 0c 01  	addi	s0, s9, 0x10
   19272: e3 d5 e7 aa  	bge	a5, a4, 0x18d1c <_vfprintf_r+0x234>
   19276: 22 65        	ld	a0, 0x8(sp)
   19278: 90 11        	addi	a2, sp, 0xe0
   1927a: ca 85        	mv	a1, s2
   1927c: ef 10 20 54  	jal	0x1a7be <__sprint_r>
   19280: 63 11 05 4e  	bnez	a0, 0x19762 <_vfprintf_r+0xc7a>
   19284: ce 74        	ld	s1, 0xf0(sp)
   19286: 52 84        	mv	s0, s4
   19288: 51 bc        	j	0x18d1c <_vfprintf_r+0x234>
   1928a: 93 f7 0d 01  	andi	a5, s11, 0x10
   1928e: e3 96 07 02  	bnez	a5, 0x19aba <_vfprintf_r+0xfd2>
   19292: 82 76        	ld	a3, 0x20(sp)
   19294: 93 f7 0d 04  	andi	a5, s11, 0x40
   19298: 84 42        	lw	s1, 0x0(a3)
   1929a: e3 85 07 3e  	beqz	a5, 0x19e84 <_vfprintf_r+0x139c>
   1929e: c2 14        	slli	s1, s1, 0x30
   192a0: c1 90        	srli	s1, s1, 0x30
   192a2: 65 be        	j	0x18e5a <_vfprintf_r+0x372>
   192a4: 93 f7 0d 01  	andi	a5, s11, 0x10
   192a8: 63 9e 07 7c  	bnez	a5, 0x19a84 <_vfprintf_r+0xf9c>
   192ac: 82 76        	ld	a3, 0x20(sp)
   192ae: 93 f7 0d 04  	andi	a5, s11, 0x40
   192b2: 84 42        	lw	s1, 0x0(a3)
   192b4: e3 80 07 3e  	beqz	a5, 0x19e94 <_vfprintf_r+0x13ac>
   192b8: 9b 94 04 01  	slliw	s1, s1, 0x10
   192bc: 9b d4 04 41  	sraiw	s1, s1, 0x10
   192c0: a6 87        	mv	a5, s1
   192c2: e3 df 07 b2  	bgez	a5, 0x18e00 <_vfprintf_r+0x318>
   192c6: 3a f0        	sd	a4, 0x20(sp)
   192c8: 13 07 d0 02  	li	a4, 0x2d
   192cc: a3 07 e1 0a  	sb	a4, 0xaf(sp)
   192d0: b3 04 90 40  	neg	s1, s1
   192d4: ee 8c        	mv	s9, s11
   192d6: 85 47        	li	a5, 0x1
   192d8: e3 5b 0b b8  	bgez	s6, 0x18e6e <_vfprintf_r+0x386>
   192dc: 05 47        	li	a4, 0x1
   192de: 63 8e e7 48  	beq	a5, a4, 0x1977a <_vfprintf_r+0xc92>
   192e2: 09 47        	li	a4, 0x2
   192e4: 63 84 e7 30  	beq	a5, a4, 0x195ec <_vfprintf_r+0xb04>
   192e8: f4 0a        	addi	a3, sp, 0x15c
   192ea: 36 8d        	mv	s10, a3
   192ec: 13 f7 74 00  	andi	a4, s1, 0x7
   192f0: 13 07 07 03  	addi	a4, a4, 0x30
   192f4: a3 0f ed fe  	sb	a4, -0x1(s10)
   192f8: 8d 80        	srli	s1, s1, 0x3
   192fa: 6a 86        	mv	a2, s10
   192fc: 7d 1d        	addi	s10, s10, -0x1
   192fe: fd f4        	bnez	s1, 0x192ec <_vfprintf_r+0x804>
   19300: 93 f5 1c 00  	andi	a1, s9, 0x1
   19304: 63 81 05 30  	beqz	a1, 0x19606 <_vfprintf_r+0xb1e>
   19308: 93 05 00 03  	li	a1, 0x30
   1930c: 63 0d b7 2e  	beq	a4, a1, 0x19606 <_vfprintf_r+0xb1e>
   19310: 79 16        	addi	a2, a2, -0x2
   19312: a3 0f bd fe  	sb	a1, -0x1(s10)
   19316: 91 9e        	subw	a3, a3, a2
   19318: e6 8d        	mv	s11, s9
   1931a: 32 8d        	mv	s10, a2
   1931c: 19 b6        	j	0x18e22 <_vfprintf_r+0x33a>
   1931e: 82 77        	ld	a5, 0x20(sp)
   19320: a3 07 01 0a  	sb	zero, 0xaf(sp)
   19324: 03 bd 07 00  	ld	s10, 0x0(a5)
   19328: 93 84 87 00  	addi	s1, a5, 0x8
   1932c: e3 05 0d 0a  	beqz	s10, 0x19bd6 <_vfprintf_r+0x10ee>
   19330: e3 4e 0b 2a  	bltz	s6, 0x19dec <_vfprintf_r+0x1304>
   19334: 5a 86        	mv	a2, s6
   19336: 81 45        	li	a1, 0x0
   19338: 6a 85        	mv	a0, s10
   1933a: 1a f0        	sd	t1, 0x20(sp)
   1933c: ef d0 6f d8  	jal	0x168c2 <memchr>
   19340: 2a ec        	sd	a0, 0x18(sp)
   19342: 02 73        	ld	t1, 0x20(sp)
   19344: 19 e1        	bnez	a0, 0x1934a <_vfprintf_r+0x862>
   19346: 6f 00 70 7d  	j	0x1a31c <_vfprintf_r+0x1834>
   1934a: e2 67        	ld	a5, 0x18(sp)
   1934c: 03 47 f1 0a  	lbu	a4, 0xaf(sp)
   19350: 26 f0        	sd	s1, 0x20(sp)
   19352: bb 86 a7 41  	subw	a3, a5, s10
   19356: 13 c8 f6 ff  	not	a6, a3
   1935a: 13 58 f8 43  	srai	a6, a6, 0x3f
   1935e: 02 ec        	sd	zero, 0x18(sp)
   19360: 82 e4        	sd	zero, 0x48(sp)
   19362: 82 e0        	sd	zero, 0x40(sp)
   19364: 02 f8        	sd	zero, 0x30(sp)
   19366: 33 7c d8 00  	and	s8, a6, a3
   1936a: 01 4b        	li	s6, 0x0
   1936c: e3 19 07 ac  	bnez	a4, 0x18e3e <_vfprintf_r+0x356>
   19370: 21 ba        	j	0x18c88 <_vfprintf_r+0x1a0>
   19372: 02 77        	ld	a4, 0x20(sp)
   19374: a3 07 01 0a  	sb	zero, 0xaf(sp)
   19378: 05 4c        	li	s8, 0x1
   1937a: 1c 43        	lw	a5, 0x0(a4)
   1937c: 21 07        	addi	a4, a4, 0x8
   1937e: 3a f0        	sd	a4, 0x20(sp)
   19380: 23 0c f1 0e  	sb	a5, 0xf8(sp)
   19384: 85 46        	li	a3, 0x1
   19386: 13 0d 81 0f  	addi	s10, sp, 0xf8
   1938a: d5 b8        	j	0x18c7e <_vfprintf_r+0x196>
   1938c: 82 77        	ld	a5, 0x20(sp)
   1938e: 83 ab 07 00  	lw	s7, 0x0(a5)
   19392: a1 07        	addi	a5, a5, 0x8
   19394: 63 d3 0b 6e  	bgez	s7, 0x19a7a <_vfprintf_r+0xf92>
   19398: bb 0b 70 41  	negw	s7, s7
   1939c: 3e f0        	sd	a5, 0x20(sp)
   1939e: 93 ed 4d 00  	ori	s11, s11, 0x4
   193a2: 03 c3 09 00  	lbu	t1, 0x0(s3)
   193a6: 81 2d        	sext.w	s11, s11
   193a8: b5 b0        	j	0x18c14 <_vfprintf_r+0x12c>
   193aa: 93 07 b0 02  	li	a5, 0x2b
   193ae: 03 c3 09 00  	lbu	t1, 0x0(s3)
   193b2: a3 07 f1 0a  	sb	a5, 0xaf(sp)
   193b6: b9 b8        	j	0x18c14 <_vfprintf_r+0x12c>
   193b8: 93 ed 0d 08  	ori	s11, s11, 0x80
   193bc: 03 c3 09 00  	lbu	t1, 0x0(s3)
   193c0: 81 2d        	sext.w	s11, s11
   193c2: 89 b8        	j	0x18c14 <_vfprintf_r+0x12c>
   193c4: 03 c3 09 00  	lbu	t1, 0x0(s3)
   193c8: 93 06 a0 02  	li	a3, 0x2a
   193cc: 13 87 19 00  	addi	a4, s3, 0x1
   193d0: 63 14 d3 00  	bne	t1, a3, 0x193d8 <_vfprintf_r+0x8f0>
   193d4: 6f 10 a0 24  	j	0x1a61e <_vfprintf_r+0x1b36>
   193d8: 9b 07 03 fd  	addiw	a5, t1, -0x30
   193dc: a5 45        	li	a1, 0x9
   193de: 81 46        	li	a3, 0x0
   193e0: 25 46        	li	a2, 0x9
   193e2: ba 89        	mv	s3, a4
   193e4: 01 4b        	li	s6, 0x0
   193e6: e3 e9 f5 82  	bltu	a1, a5, 0x18c18 <_vfprintf_r+0x130>
   193ea: 03 43 07 00  	lbu	t1, 0x0(a4)
   193ee: 1b 9b 26 00  	slliw	s6, a3, 0x2
   193f2: 3b 0b db 00  	addw	s6, s6, a3
   193f6: 1b 1b 1b 00  	slliw	s6, s6, 0x1
   193fa: bb 86 67 01  	addw	a3, a5, s6
   193fe: 9b 07 03 fd  	addiw	a5, t1, -0x30
   19402: 36 8b        	mv	s6, a3
   19404: 05 07        	addi	a4, a4, 0x1
   19406: e3 72 f6 fe  	bgeu	a2, a5, 0x193ea <_vfprintf_r+0x902>
   1940a: 63 ce 06 72  	bltz	a3, 0x19b46 <_vfprintf_r+0x105e>
   1940e: ba 89        	mv	s3, a4
   19410: 6f f0 9f 80  	j	0x18c18 <_vfprintf_r+0x130>
   19414: 93 ec 0d 01  	ori	s9, s11, 0x10
   19418: 81 2c        	sext.w	s9, s9
   1941a: 82 76        	ld	a3, 0x20(sp)
   1941c: 93 f7 0c 02  	andi	a5, s9, 0x20
   19420: 13 87 86 00  	addi	a4, a3, 0x8
   19424: 63 82 07 62  	beqz	a5, 0x19a48 <_vfprintf_r+0xf60>
   19428: 84 62        	ld	s1, 0x0(a3)
   1942a: 85 47        	li	a5, 0x1
   1942c: 3a f0        	sd	a4, 0x20(sp)
   1942e: 1d bc        	j	0x18e64 <_vfprintf_r+0x37c>
   19430: 22 6c        	ld	s8, 0x8(sp)
   19432: 62 85        	mv	a0, s8
   19434: ef 20 f0 12  	jal	0x1bd62 <_localeconv_r>
   19438: 1c 65        	ld	a5, 0x8(a0)
   1943a: 3e 85        	mv	a0, a5
   1943c: be fc        	sd	a5, 0x78(sp)
   1943e: ef d0 5f b0  	jal	0x16f42 <strlen>
   19442: aa 87        	mv	a5, a0
   19444: 62 85        	mv	a0, s8
   19446: 3e e5        	sd	a5, 0x88(sp)
   19448: 3e 8c        	mv	s8, a5
   1944a: ef 20 90 11  	jal	0x1bd62 <_localeconv_r>
   1944e: 1c 69        	ld	a5, 0x10(a0)
   19450: 03 c3 09 00  	lbu	t1, 0x0(s3)
   19454: 3e e1        	sd	a5, 0x80(sp)
   19456: 63 0f 0c fa  	beqz	s8, 0x18c14 <_vfprintf_r+0x12c>
   1945a: 63 8d 07 fa  	beqz	a5, 0x18c14 <_vfprintf_r+0x12c>
   1945e: 83 c7 07 00  	lbu	a5, 0x0(a5)
   19462: 63 89 07 fa  	beqz	a5, 0x18c14 <_vfprintf_r+0x12c>
   19466: 93 ed 0d 40  	ori	s11, s11, 0x400
   1946a: 81 2d        	sext.w	s11, s11
   1946c: 6f f0 8f fa  	j	0x18c14 <_vfprintf_r+0x12c>
   19470: 93 ed 1d 00  	ori	s11, s11, 0x1
   19474: 03 c3 09 00  	lbu	t1, 0x0(s3)
   19478: 81 2d        	sext.w	s11, s11
   1947a: 6f f0 af f9  	j	0x18c14 <_vfprintf_r+0x12c>
   1947e: 83 47 f1 0a  	lbu	a5, 0xaf(sp)
   19482: 03 c3 09 00  	lbu	t1, 0x0(s3)
   19486: 63 97 07 f8  	bnez	a5, 0x18c14 <_vfprintf_r+0x12c>
   1948a: 93 07 00 02  	li	a5, 0x20
   1948e: a3 07 f1 0a  	sb	a5, 0xaf(sp)
   19492: 6f f0 2f f8  	j	0x18c14 <_vfprintf_r+0x12c>
   19496: 93 ed 8d 00  	ori	s11, s11, 0x8
   1949a: 03 c3 09 00  	lbu	t1, 0x0(s3)
   1949e: 81 2d        	sext.w	s11, s11
   194a0: 6f f0 4f f7  	j	0x18c14 <_vfprintf_r+0x12c>
   194a4: 93 ed 0d 02  	ori	s11, s11, 0x20
   194a8: 03 c3 09 00  	lbu	t1, 0x0(s3)
   194ac: 81 2d        	sext.w	s11, s11
   194ae: 6f f0 6f f6  	j	0x18c14 <_vfprintf_r+0x12c>
   194b2: 02 77        	ld	a4, 0x20(sp)
   194b4: a1 67        	lui	a5, 0x8
   194b6: 93 87 07 83  	addi	a5, a5, -0x7d0
   194ba: 23 18 f1 0a  	sh	a5, 0xb0(sp)
   194be: 93 07 87 00  	addi	a5, a4, 0x8
   194c2: 3e f0        	sd	a5, 0x20(sp)
   194c4: b7 07 02 00  	lui	a5, 0x20
   194c8: 93 87 87 b5  	addi	a5, a5, -0x4a8
   194cc: 93 ec 2d 00  	ori	s9, s11, 0x2
   194d0: be f0        	sd	a5, 0x60(sp)
   194d2: 04 63        	ld	s1, 0x0(a4)
   194d4: 81 2c        	sext.w	s9, s9
   194d6: 89 47        	li	a5, 0x2
   194d8: 13 03 80 07  	li	t1, 0x78
   194dc: 61 b2        	j	0x18e64 <_vfprintf_r+0x37c>
   194de: 02 77        	ld	a4, 0x20(sp)
   194e0: 93 f7 0d 02  	andi	a5, s11, 0x20
   194e4: 18 63        	ld	a4, 0x0(a4)
   194e6: 63 8a 07 5a  	beqz	a5, 0x19a9a <_vfprintf_r+0xfb2>
   194ea: c2 67        	ld	a5, 0x10(sp)
   194ec: 1c e3        	sd	a5, 0x0(a4)
   194ee: 82 77        	ld	a5, 0x20(sp)
   194f0: 4e 8d        	mv	s10, s3
   194f2: a1 07        	addi	a5, a5, 0x8
   194f4: 3e f0        	sd	a5, 0x20(sp)
   194f6: a9 b8        	j	0x18d50 <_vfprintf_r+0x268>
   194f8: 03 c3 09 00  	lbu	t1, 0x0(s3)
   194fc: 93 07 c0 06  	li	a5, 0x6c
   19500: 63 09 f3 6a  	beq	t1, a5, 0x19bb2 <_vfprintf_r+0x10ca>
   19504: 93 ed 0d 01  	ori	s11, s11, 0x10
   19508: 81 2d        	sext.w	s11, s11
   1950a: 6f f0 af f0  	j	0x18c14 <_vfprintf_r+0x12c>
   1950e: 03 c3 09 00  	lbu	t1, 0x0(s3)
   19512: 93 07 80 06  	li	a5, 0x68
   19516: 63 06 f3 68  	beq	t1, a5, 0x19ba2 <_vfprintf_r+0x10ba>
   1951a: 93 ed 0d 04  	ori	s11, s11, 0x40
   1951e: 81 2d        	sext.w	s11, s11
   19520: 6f f0 4f ef  	j	0x18c14 <_vfprintf_r+0x12c>
   19524: 13 07 50 06  	li	a4, 0x65
   19528: e3 5b 67 ca  	bge	a4, t1, 0x191de <_vfprintf_r+0x6f6>
   1952c: 4e 65        	ld	a0, 0xd0(sp)
   1952e: ee 65        	ld	a1, 0xd8(sp)
   19530: 01 46        	li	a2, 0x0
   19532: 81 46        	li	a3, 0x0
   19534: ef 40 70 46  	jal	0x1e19a <__netf2>
   19538: 63 1a 05 38  	bnez	a0, 0x198cc <_vfprintf_r+0xde4>
   1953c: ae 57        	lw	a5, 0xe8(sp)
   1953e: 37 07 02 00  	lui	a4, 0x20
   19542: 13 07 07 b9  	addi	a4, a4, -0x470
   19546: 85 27        	addiw	a5, a5, 0x1
   19548: 18 e0        	sd	a4, 0x0(s0)
   1954a: 85 04        	addi	s1, s1, 0x1
   1954c: 05 47        	li	a4, 0x1
   1954e: 18 e4        	sd	a4, 0x8(s0)
   19550: be d5        	sw	a5, 0xe8(sp)
   19552: 1b 87 07 00  	sext.w	a4, a5
   19556: a6 f9        	sd	s1, 0xf0(sp)
   19558: 9d 47        	li	a5, 0x7
   1955a: 41 04        	addi	s0, s0, 0x10
   1955c: e3 c5 e7 00  	blt	a5, a4, 0x19d66 <_vfprintf_r+0x127e>
   19560: ea 57        	lw	a5, 0xb8(sp)
   19562: 62 77        	ld	a4, 0x38(sp)
   19564: 63 d6 e7 50  	bge	a5, a4, 0x19a70 <_vfprintf_r+0xf88>
   19568: 46 67        	ld	a4, 0x50(sp)
   1956a: ae 57        	lw	a5, 0xe8(sp)
   1956c: e6 66        	ld	a3, 0x58(sp)
   1956e: ba 94        	add	s1, s1, a4
   19570: 85 27        	addiw	a5, a5, 0x1
   19572: 18 e4        	sd	a4, 0x8(s0)
   19574: 14 e0        	sd	a3, 0x0(s0)
   19576: 1b 87 07 00  	sext.w	a4, a5
   1957a: be d5        	sw	a5, 0xe8(sp)
   1957c: a6 f9        	sd	s1, 0xf0(sp)
   1957e: 9d 47        	li	a5, 0x7
   19580: 41 04        	addi	s0, s0, 0x10
   19582: 63 c0 e7 64  	blt	a5, a4, 0x19bc2 <_vfprintf_r+0x10da>
   19586: e2 77        	ld	a5, 0x38(sp)
   19588: 1b 8b f7 ff  	addiw	s6, a5, -0x1
   1958c: 63 58 60 f9  	blez	s6, 0x18d1c <_vfprintf_r+0x234>
   19590: b7 08 02 00  	lui	a7, 0x20
   19594: 41 47        	li	a4, 0x10
   19596: ae 57        	lw	a5, 0xe8(sp)
   19598: 93 88 88 1b  	addi	a7, a7, 0x1b8
   1959c: 63 53 67 7f  	bge	a4, s6, 0x19d82 <_vfprintf_r+0x129a>
   195a0: 4e f8        	sd	s3, 0x30(sp)
   195a2: c1 4c        	li	s9, 0x10
   195a4: da 89        	mv	s3, s6
   195a6: 1d 4d        	li	s10, 0x7
   195a8: 46 8b        	mv	s6, a7
   195aa: 21 a0        	j	0x195b2 <_vfprintf_r+0xaca>
   195ac: c1 39        	addiw	s3, s3, -0x10
   195ae: 63 d7 3c 7d  	bge	s9, s3, 0x19d7c <_vfprintf_r+0x1294>
   195b2: 85 27        	addiw	a5, a5, 0x1
   195b4: c1 04        	addi	s1, s1, 0x10
   195b6: 23 30 64 01  	sd	s6, 0x0(s0)
   195ba: 23 34 94 01  	sd	s9, 0x8(s0)
   195be: a6 f9        	sd	s1, 0xf0(sp)
   195c0: be d5        	sw	a5, 0xe8(sp)
   195c2: 41 04        	addi	s0, s0, 0x10
   195c4: e3 54 fd fe  	bge	s10, a5, 0x195ac <_vfprintf_r+0xac4>
   195c8: 22 65        	ld	a0, 0x8(sp)
   195ca: 90 11        	addi	a2, sp, 0xe0
   195cc: ca 85        	mv	a1, s2
   195ce: ef 10 00 1f  	jal	0x1a7be <__sprint_r>
   195d2: 63 18 05 18  	bnez	a0, 0x19762 <_vfprintf_r+0xc7a>
   195d6: ce 74        	ld	s1, 0xf0(sp)
   195d8: ae 57        	lw	a5, 0xe8(sp)
   195da: 52 84        	mv	s0, s4
   195dc: c1 bf        	j	0x195ac <_vfprintf_r+0xac4>
   195de: 05 47        	li	a4, 0x1
   195e0: e3 8b e7 64  	beq	a5, a4, 0x1a436 <_vfprintf_r+0x194e>
   195e4: 09 47        	li	a4, 0x2
   195e6: ee 8c        	mv	s9, s11
   195e8: e3 90 e7 d0  	bne	a5, a4, 0x192e8 <_vfprintf_r+0x800>
   195ec: 06 77        	ld	a4, 0x60(sp)
   195ee: f4 0a        	addi	a3, sp, 0x15c
   195f0: 36 8d        	mv	s10, a3
   195f2: 93 f7 f4 00  	andi	a5, s1, 0xf
   195f6: ba 97        	add	a5, a5, a4
   195f8: 83 c7 07 00  	lbu	a5, 0x0(a5)
   195fc: 91 80        	srli	s1, s1, 0x4
   195fe: 7d 1d        	addi	s10, s10, -0x1
   19600: 23 00 fd 00  	sb	a5, 0x0(s10)
   19604: fd f4        	bnez	s1, 0x195f2 <_vfprintf_r+0xb0a>
   19606: bb 86 a6 41  	subw	a3, a3, s10
   1960a: e6 8d        	mv	s11, s9
   1960c: 6f f0 7f 81  	j	0x18e22 <_vfprintf_r+0x33a>
   19610: bb 8c 8b 41  	subw	s9, s7, s8
   19614: 63 50 90 ef  	blez	s9, 0x18cf4 <_vfprintf_r+0x20c>
   19618: b7 08 02 00  	lui	a7, 0x20
   1961c: c1 45        	li	a1, 0x10
   1961e: 2e 56        	lw	a2, 0xe8(sp)
   19620: 93 88 88 1b  	addi	a7, a7, 0x1b8
   19624: 63 df 95 05  	bge	a1, s9, 0x19682 <_vfprintf_r+0xb9a>
   19628: a2 87        	mv	a5, s0
   1962a: 26 87        	mv	a4, s1
   1962c: 66 84        	mv	s0, s9
   1962e: 41 4f        	li	t5, 0x10
   19630: e2 8c        	mv	s9, s8
   19632: 9d 4f        	li	t6, 0x7
   19634: 9a f4        	sd	t1, 0x68(sp)
   19636: 36 8c        	mv	s8, a3
   19638: c6 84        	mv	s1, a7
   1963a: 21 a0        	j	0x19642 <_vfprintf_r+0xb5a>
   1963c: 41 34        	addiw	s0, s0, -0x10
   1963e: 63 5b 8f 02  	bge	t5, s0, 0x19674 <_vfprintf_r+0xb8c>
   19642: 05 26        	addiw	a2, a2, 0x1
   19644: 41 07        	addi	a4, a4, 0x10
   19646: 84 e3        	sd	s1, 0x0(a5)
   19648: 23 b4 e7 01  	sd	t5, 0x8(a5)
   1964c: ba f9        	sd	a4, 0xf0(sp)
   1964e: b2 d5        	sw	a2, 0xe8(sp)
   19650: c1 07        	addi	a5, a5, 0x10
   19652: e3 d5 cf fe  	bge	t6, a2, 0x1963c <_vfprintf_r+0xb54>
   19656: 22 65        	ld	a0, 0x8(sp)
   19658: 90 11        	addi	a2, sp, 0xe0
   1965a: ca 85        	mv	a1, s2
   1965c: ef 10 20 16  	jal	0x1a7be <__sprint_r>
   19660: 63 11 05 10  	bnez	a0, 0x19762 <_vfprintf_r+0xc7a>
   19664: 41 4f        	li	t5, 0x10
   19666: 41 34        	addiw	s0, s0, -0x10
   19668: 4e 77        	ld	a4, 0xf0(sp)
   1966a: 2e 56        	lw	a2, 0xe8(sp)
   1966c: d2 87        	mv	a5, s4
   1966e: 9d 4f        	li	t6, 0x7
   19670: e3 49 8f fc  	blt	t5, s0, 0x19642 <_vfprintf_r+0xb5a>
   19674: 26 73        	ld	t1, 0x68(sp)
   19676: e2 86        	mv	a3, s8
   19678: a6 88        	mv	a7, s1
   1967a: 66 8c        	mv	s8, s9
   1967c: ba 84        	mv	s1, a4
   1967e: a2 8c        	mv	s9, s0
   19680: 3e 84        	mv	s0, a5
   19682: 9b 05 16 00  	addiw	a1, a2, 0x1
   19686: e6 94        	add	s1, s1, s9
   19688: 23 30 14 01  	sd	a7, 0x0(s0)
   1968c: 23 34 94 01  	sd	s9, 0x8(s0)
   19690: a6 f9        	sd	s1, 0xf0(sp)
   19692: ae d5        	sw	a1, 0xe8(sp)
   19694: 1d 47        	li	a4, 0x7
   19696: 41 04        	addi	s0, s0, 0x10
   19698: 63 5e b7 e4  	bge	a4, a1, 0x18cf4 <_vfprintf_r+0x20c>
   1969c: 22 65        	ld	a0, 0x8(sp)
   1969e: 90 11        	addi	a2, sp, 0xe0
   196a0: ca 85        	mv	a1, s2
   196a2: 36 e9        	sd	a3, 0x90(sp)
   196a4: 9a f4        	sd	t1, 0x68(sp)
   196a6: ef 10 80 11  	jal	0x1a7be <__sprint_r>
   196aa: 45 ed        	bnez	a0, 0x19762 <_vfprintf_r+0xc7a>
   196ac: ce 74        	ld	s1, 0xf0(sp)
   196ae: ca 66        	ld	a3, 0x90(sp)
   196b0: 26 73        	ld	t1, 0x68(sp)
   196b2: 52 84        	mv	s0, s4
   196b4: 6f f0 0f e4  	j	0x18cf4 <_vfprintf_r+0x20c>
   196b8: b7 08 02 00  	lui	a7, 0x20
   196bc: 41 47        	li	a4, 0x10
   196be: 2e 56        	lw	a2, 0xe8(sp)
   196c0: 93 88 88 1b  	addi	a7, a7, 0x1b8
   196c4: 63 5d 67 05  	bge	a4, s6, 0x1971e <_vfprintf_r+0xc36>
   196c8: a6 85        	mv	a1, s1
   196ca: a2 87        	mv	a5, s0
   196cc: b6 84        	mv	s1, a3
   196ce: 5a 84        	mv	s0, s6
   196d0: 41 47        	li	a4, 0x10
   196d2: 9d 4c        	li	s9, 0x7
   196d4: 9a f4        	sd	t1, 0x68(sp)
   196d6: 56 8b        	mv	s6, s5
   196d8: ae 86        	mv	a3, a1
   196da: 21 a0        	j	0x196e2 <_vfprintf_r+0xbfa>
   196dc: 41 34        	addiw	s0, s0, -0x10
   196de: 63 59 87 02  	bge	a4, s0, 0x19710 <_vfprintf_r+0xc28>
   196e2: 05 26        	addiw	a2, a2, 0x1
   196e4: c1 06        	addi	a3, a3, 0x10
   196e6: 23 b0 57 01  	sd	s5, 0x0(a5)
   196ea: 98 e7        	sd	a4, 0x8(a5)
   196ec: b6 f9        	sd	a3, 0xf0(sp)
   196ee: b2 d5        	sw	a2, 0xe8(sp)
   196f0: c1 07        	addi	a5, a5, 0x10
   196f2: e3 d5 cc fe  	bge	s9, a2, 0x196dc <_vfprintf_r+0xbf4>
   196f6: 22 65        	ld	a0, 0x8(sp)
   196f8: 90 11        	addi	a2, sp, 0xe0
   196fa: ca 85        	mv	a1, s2
   196fc: ef 10 20 0c  	jal	0x1a7be <__sprint_r>
   19700: 2d e1        	bnez	a0, 0x19762 <_vfprintf_r+0xc7a>
   19702: 41 47        	li	a4, 0x10
   19704: 41 34        	addiw	s0, s0, -0x10
   19706: ce 76        	ld	a3, 0xf0(sp)
   19708: 2e 56        	lw	a2, 0xe8(sp)
   1970a: d2 87        	mv	a5, s4
   1970c: e3 4b 87 fc  	blt	a4, s0, 0x196e2 <_vfprintf_r+0xbfa>
   19710: 26 73        	ld	t1, 0x68(sp)
   19712: 36 87        	mv	a4, a3
   19714: da 88        	mv	a7, s6
   19716: a6 86        	mv	a3, s1
   19718: 22 8b        	mv	s6, s0
   1971a: ba 84        	mv	s1, a4
   1971c: 3e 84        	mv	s0, a5
   1971e: 9b 05 16 00  	addiw	a1, a2, 0x1
   19722: da 94        	add	s1, s1, s6
   19724: 23 30 14 01  	sd	a7, 0x0(s0)
   19728: 23 34 64 01  	sd	s6, 0x8(s0)
   1972c: a6 f9        	sd	s1, 0xf0(sp)
   1972e: ae d5        	sw	a1, 0xe8(sp)
   19730: 1d 47        	li	a4, 0x7
   19732: 41 04        	addi	s0, s0, 0x10
   19734: 63 54 b7 dc  	bge	a4, a1, 0x18cfc <_vfprintf_r+0x214>
   19738: 22 65        	ld	a0, 0x8(sp)
   1973a: 90 11        	addi	a2, sp, 0xe0
   1973c: ca 85        	mv	a1, s2
   1973e: 36 e9        	sd	a3, 0x90(sp)
   19740: 9a f4        	sd	t1, 0x68(sp)
   19742: ef 10 c0 07  	jal	0x1a7be <__sprint_r>
   19746: 11 ed        	bnez	a0, 0x19762 <_vfprintf_r+0xc7a>
   19748: ce 74        	ld	s1, 0xf0(sp)
   1974a: ca 66        	ld	a3, 0x90(sp)
   1974c: 26 73        	ld	t1, 0x68(sp)
   1974e: 52 84        	mv	s0, s4
   19750: 6f f0 cf da  	j	0x18cfc <_vfprintf_r+0x214>
   19754: 22 65        	ld	a0, 0x8(sp)
   19756: 90 11        	addi	a2, sp, 0xe0
   19758: ca 85        	mv	a1, s2
   1975a: ef 10 40 06  	jal	0x1a7be <__sprint_r>
   1975e: 63 00 05 de  	beqz	a0, 0x18d3e <_vfprintf_r+0x256>
   19762: e2 65        	ld	a1, 0x18(sp)
   19764: 63 8e 05 de  	beqz	a1, 0x18d60 <_vfprintf_r+0x278>
   19768: 22 65        	ld	a0, 0x8(sp)
   1976a: ef d0 ff b1  	jal	0x17288 <_free_r>
   1976e: 6f f0 2f df  	j	0x18d60 <_vfprintf_r+0x278>
   19772: 05 47        	li	a4, 0x1
   19774: ee 8c        	mv	s9, s11
   19776: e3 96 e7 b6  	bne	a5, a4, 0x192e2 <_vfprintf_r+0x7fa>
   1977a: a5 47        	li	a5, 0x9
   1977c: 63 e6 97 36  	bltu	a5, s1, 0x19ae8 <_vfprintf_r+0x1000>
   19780: 9b 84 04 03  	addiw	s1, s1, 0x30
   19784: a3 0d 91 14  	sb	s1, 0x15b(sp)
   19788: e6 8d        	mv	s11, s9
   1978a: 85 46        	li	a3, 0x1
   1978c: 13 0d b1 15  	addi	s10, sp, 0x15b
   19790: 6f f0 2f e9  	j	0x18e22 <_vfprintf_r+0x33a>
   19794: b7 08 02 00  	lui	a7, 0x20
   19798: c1 45        	li	a1, 0x10
   1979a: 2e 56        	lw	a2, 0xe8(sp)
   1979c: 93 88 88 1c  	addi	a7, a7, 0x1c8
   197a0: 63 de e5 04  	bge	a1, a4, 0x197fc <_vfprintf_r+0xd14>
   197a4: 36 ed        	sd	a3, 0x98(sp)
   197a6: a2 87        	mv	a5, s0
   197a8: a6 86        	mv	a3, s1
   197aa: 41 4f        	li	t5, 0x10
   197ac: 9d 43        	li	t2, 0x7
   197ae: 96 f4        	sd	t0, 0x68(sp)
   197b0: 1a e9        	sd	t1, 0x90(sp)
   197b2: 3a 84        	mv	s0, a4
   197b4: c6 84        	mv	s1, a7
   197b6: 21 a0        	j	0x197be <_vfprintf_r+0xcd6>
   197b8: 41 34        	addiw	s0, s0, -0x10
   197ba: 63 5a 8f 02  	bge	t5, s0, 0x197ee <_vfprintf_r+0xd06>
   197be: 05 26        	addiw	a2, a2, 0x1
   197c0: c1 06        	addi	a3, a3, 0x10
   197c2: 84 e3        	sd	s1, 0x0(a5)
   197c4: 23 b4 e7 01  	sd	t5, 0x8(a5)
   197c8: b6 f9        	sd	a3, 0xf0(sp)
   197ca: b2 d5        	sw	a2, 0xe8(sp)
   197cc: c1 07        	addi	a5, a5, 0x10
   197ce: e3 d5 c3 fe  	bge	t2, a2, 0x197b8 <_vfprintf_r+0xcd0>
   197d2: 22 65        	ld	a0, 0x8(sp)
   197d4: 90 11        	addi	a2, sp, 0xe0
   197d6: ca 85        	mv	a1, s2
   197d8: ef 00 70 7e  	jal	0x1a7be <__sprint_r>
   197dc: 59 f1        	bnez	a0, 0x19762 <_vfprintf_r+0xc7a>
   197de: 41 4f        	li	t5, 0x10
   197e0: 41 34        	addiw	s0, s0, -0x10
   197e2: ce 76        	ld	a3, 0xf0(sp)
   197e4: 2e 56        	lw	a2, 0xe8(sp)
   197e6: d2 87        	mv	a5, s4
   197e8: 9d 43        	li	t2, 0x7
   197ea: e3 4a 8f fc  	blt	t5, s0, 0x197be <_vfprintf_r+0xcd6>
   197ee: a6 88        	mv	a7, s1
   197f0: a6 72        	ld	t0, 0x68(sp)
   197f2: b6 84        	mv	s1, a3
   197f4: 4a 63        	ld	t1, 0x90(sp)
   197f6: ea 66        	ld	a3, 0x98(sp)
   197f8: 22 87        	mv	a4, s0
   197fa: 3e 84        	mv	s0, a5
   197fc: ba 94        	add	s1, s1, a4
   197fe: 9b 05 16 00  	addiw	a1, a2, 0x1
   19802: 18 e4        	sd	a4, 0x8(s0)
   19804: 23 30 14 01  	sd	a7, 0x0(s0)
   19808: a6 f9        	sd	s1, 0xf0(sp)
   1980a: ae d5        	sw	a1, 0xe8(sp)
   1980c: 1d 47        	li	a4, 0x7
   1980e: 41 04        	addi	s0, s0, 0x10
   19810: 63 5a b7 c8  	bge	a4, a1, 0x18ca4 <_vfprintf_r+0x1bc>
   19814: 22 65        	ld	a0, 0x8(sp)
   19816: 90 11        	addi	a2, sp, 0xe0
   19818: ca 85        	mv	a1, s2
   1981a: 36 ed        	sd	a3, 0x98(sp)
   1981c: 1a e9        	sd	t1, 0x90(sp)
   1981e: 96 f4        	sd	t0, 0x68(sp)
   19820: ef 00 f0 79  	jal	0x1a7be <__sprint_r>
   19824: 1d fd        	bnez	a0, 0x19762 <_vfprintf_r+0xc7a>
   19826: ce 74        	ld	s1, 0xf0(sp)
   19828: ea 66        	ld	a3, 0x98(sp)
   1982a: 4a 63        	ld	t1, 0x90(sp)
   1982c: a6 72        	ld	t0, 0x68(sp)
   1982e: 52 84        	mv	s0, s4
   19830: 6f f0 4f c7  	j	0x18ca4 <_vfprintf_r+0x1bc>
   19834: 22 65        	ld	a0, 0x8(sp)
   19836: 90 11        	addi	a2, sp, 0xe0
   19838: ca 85        	mv	a1, s2
   1983a: 36 e9        	sd	a3, 0x90(sp)
   1983c: 9a f4        	sd	t1, 0x68(sp)
   1983e: ef 00 10 78  	jal	0x1a7be <__sprint_r>
   19842: 05 f1        	bnez	a0, 0x19762 <_vfprintf_r+0xc7a>
   19844: ce 74        	ld	s1, 0xf0(sp)
   19846: ca 66        	ld	a3, 0x90(sp)
   19848: 26 73        	ld	t1, 0x68(sp)
   1984a: 52 84        	mv	s0, s4
   1984c: 6f f0 0f ca  	j	0x18cec <_vfprintf_r+0x204>
   19850: b7 08 02 00  	lui	a7, 0x20
   19854: 93 88 88 1c  	addi	a7, a7, 0x1c8
   19858: 41 47        	li	a4, 0x10
   1985a: ae 57        	lw	a5, 0xe8(sp)
   1985c: c1 4c        	li	s9, 0x10
   1985e: 1d 4d        	li	s10, 0x7
   19860: c6 8d        	mv	s11, a7
   19862: 63 46 67 01  	blt	a4, s6, 0x1986e <_vfprintf_r+0xd86>
   19866: 2d a8        	j	0x198a0 <_vfprintf_r+0xdb8>
   19868: 41 3b        	addiw	s6, s6, -0x10
   1986a: 63 da 6c 03  	bge	s9, s6, 0x1989e <_vfprintf_r+0xdb6>
   1986e: 85 27        	addiw	a5, a5, 0x1
   19870: c1 04        	addi	s1, s1, 0x10
   19872: 23 30 b4 01  	sd	s11, 0x0(s0)
   19876: 23 34 94 01  	sd	s9, 0x8(s0)
   1987a: a6 f9        	sd	s1, 0xf0(sp)
   1987c: be d5        	sw	a5, 0xe8(sp)
   1987e: 41 04        	addi	s0, s0, 0x10
   19880: e3 54 fd fe  	bge	s10, a5, 0x19868 <_vfprintf_r+0xd80>
   19884: 22 65        	ld	a0, 0x8(sp)
   19886: 90 11        	addi	a2, sp, 0xe0
   19888: ca 85        	mv	a1, s2
   1988a: ef 00 50 73  	jal	0x1a7be <__sprint_r>
   1988e: e3 1a 05 ec  	bnez	a0, 0x19762 <_vfprintf_r+0xc7a>
   19892: 41 3b        	addiw	s6, s6, -0x10
   19894: ce 74        	ld	s1, 0xf0(sp)
   19896: ae 57        	lw	a5, 0xe8(sp)
   19898: 52 84        	mv	s0, s4
   1989a: e3 ca 6c fd  	blt	s9, s6, 0x1986e <_vfprintf_r+0xd86>
   1989e: ee 88        	mv	a7, s11
   198a0: 1b 87 17 00  	addiw	a4, a5, 0x1
   198a4: da 94        	add	s1, s1, s6
   198a6: 23 30 14 01  	sd	a7, 0x0(s0)
   198aa: 23 34 64 01  	sd	s6, 0x8(s0)
   198ae: a6 f9        	sd	s1, 0xf0(sp)
   198b0: ba d5        	sw	a4, 0xe8(sp)
   198b2: 9d 47        	li	a5, 0x7
   198b4: 63 dc e7 c6  	bge	a5, a4, 0x18d2c <_vfprintf_r+0x244>
   198b8: 22 65        	ld	a0, 0x8(sp)
   198ba: 90 11        	addi	a2, sp, 0xe0
   198bc: ca 85        	mv	a1, s2
   198be: ef 00 10 70  	jal	0x1a7be <__sprint_r>
   198c2: e3 10 05 ea  	bnez	a0, 0x19762 <_vfprintf_r+0xc7a>
   198c6: ce 74        	ld	s1, 0xf0(sp)
   198c8: 6f f0 4f c6  	j	0x18d2c <_vfprintf_r+0x244>
   198cc: 6a 57        	lw	a4, 0xb8(sp)
   198ce: 63 53 e0 42  	blez	a4, 0x19cf4 <_vfprintf_r+0x120c>
   198d2: c2 77        	ld	a5, 0x30(sp)
   198d4: 62 77        	ld	a4, 0x38(sp)
   198d6: 1b 8b 07 00  	sext.w	s6, a5
   198da: 63 41 f7 26  	blt	a4, a5, 0x19b3c <_vfprintf_r+0x1054>
   198de: 63 50 60 03  	blez	s6, 0x198fe <_vfprintf_r+0xe16>
   198e2: 2e 57        	lw	a4, 0xe8(sp)
   198e4: da 94        	add	s1, s1, s6
   198e6: 23 30 a4 01  	sd	s10, 0x0(s0)
   198ea: 9b 06 17 00  	addiw	a3, a4, 0x1
   198ee: 23 34 64 01  	sd	s6, 0x8(s0)
   198f2: a6 f9        	sd	s1, 0xf0(sp)
   198f4: b6 d5        	sw	a3, 0xe8(sp)
   198f6: 1d 47        	li	a4, 0x7
   198f8: 41 04        	addi	s0, s0, 0x10
   198fa: 63 44 d7 7e  	blt	a4, a3, 0x1a0e2 <_vfprintf_r+0x15fa>
   198fe: 13 47 fb ff  	not	a4, s6
   19902: c2 77        	ld	a5, 0x30(sp)
   19904: 7d 97        	srai	a4, a4, 0x3f
   19906: 33 7b eb 00  	and	s6, s6, a4
   1990a: 3b 8b 67 41  	subw	s6, a5, s6
   1990e: 63 41 60 2f  	bgtz	s6, 0x19bf0 <_vfprintf_r+0x1108>
   19912: c2 77        	ld	a5, 0x30(sp)
   19914: 13 f7 0d 40  	andi	a4, s11, 0x400
   19918: 33 03 fd 00  	add	t1, s10, a5
   1991c: 63 19 07 62  	bnez	a4, 0x19f4e <_vfprintf_r+0x1466>
   19920: 6a 57        	lw	a4, 0xb8(sp)
   19922: e2 77        	ld	a5, 0x38(sp)
   19924: 63 4c f7 30  	blt	a4, a5, 0x19c3c <_vfprintf_r+0x1154>
   19928: 93 f6 1d 00  	andi	a3, s11, 0x1
   1992c: 63 98 06 30  	bnez	a3, 0x19c3c <_vfprintf_r+0x1154>
   19930: e2 76        	ld	a3, 0x38(sp)
   19932: b3 07 dd 00  	add	a5, s10, a3
   19936: 33 8b 67 40  	sub	s6, a5, t1
   1993a: 99 9e        	subw	a3, a3, a4
   1993c: 9b 07 0b 00  	sext.w	a5, s6
   19940: 63 d3 f6 00  	bge	a3, a5, 0x19946 <_vfprintf_r+0xe5e>
   19944: 36 8b        	mv	s6, a3
   19946: 01 2b        	sext.w	s6, s6
   19948: 63 50 60 03  	blez	s6, 0x19968 <_vfprintf_r+0xe80>
   1994c: ae 57        	lw	a5, 0xe8(sp)
   1994e: da 94        	add	s1, s1, s6
   19950: 23 30 64 00  	sd	t1, 0x0(s0)
   19954: 1b 87 17 00  	addiw	a4, a5, 0x1
   19958: 23 34 64 01  	sd	s6, 0x8(s0)
   1995c: a6 f9        	sd	s1, 0xf0(sp)
   1995e: ba d5        	sw	a4, 0xe8(sp)
   19960: 9d 47        	li	a5, 0x7
   19962: 41 04        	addi	s0, s0, 0x10
   19964: e3 c6 e7 20  	blt	a5, a4, 0x1a370 <_vfprintf_r+0x1888>
   19968: 93 47 fb ff  	not	a5, s6
   1996c: fd 97        	srai	a5, a5, 0x3f
   1996e: 33 7b fb 00  	and	s6, s6, a5
   19972: 3b 8b 66 41  	subw	s6, a3, s6
   19976: 63 53 60 bb  	blez	s6, 0x18d1c <_vfprintf_r+0x234>
   1997a: b7 08 02 00  	lui	a7, 0x20
   1997e: 41 47        	li	a4, 0x10
   19980: ae 57        	lw	a5, 0xe8(sp)
   19982: 93 88 88 1b  	addi	a7, a7, 0x1b8
   19986: 63 5e 67 3f  	bge	a4, s6, 0x19d82 <_vfprintf_r+0x129a>
   1998a: 4e f8        	sd	s3, 0x30(sp)
   1998c: c1 4c        	li	s9, 0x10
   1998e: ca 89        	mv	s3, s2
   19990: 1d 4d        	li	s10, 0x7
   19992: 5a 89        	mv	s2, s6
   19994: 46 8b        	mv	s6, a7
   19996: 21 a0        	j	0x1999e <_vfprintf_r+0xeb6>
   19998: 41 39        	addiw	s2, s2, -0x10
   1999a: e3 dc 2c 17  	bge	s9, s2, 0x1a312 <_vfprintf_r+0x182a>
   1999e: 85 27        	addiw	a5, a5, 0x1
   199a0: c1 04        	addi	s1, s1, 0x10
   199a2: 23 30 64 01  	sd	s6, 0x0(s0)
   199a6: 23 34 94 01  	sd	s9, 0x8(s0)
   199aa: a6 f9        	sd	s1, 0xf0(sp)
   199ac: be d5        	sw	a5, 0xe8(sp)
   199ae: 41 04        	addi	s0, s0, 0x10
   199b0: e3 54 fd fe  	bge	s10, a5, 0x19998 <_vfprintf_r+0xeb0>
   199b4: 22 65        	ld	a0, 0x8(sp)
   199b6: 90 11        	addi	a2, sp, 0xe0
   199b8: ce 85        	mv	a1, s3
   199ba: ef 00 50 60  	jal	0x1a7be <__sprint_r>
   199be: e3 11 05 40  	bnez	a0, 0x1a5c0 <_vfprintf_r+0x1ad8>
   199c2: ce 74        	ld	s1, 0xf0(sp)
   199c4: ae 57        	lw	a5, 0xe8(sp)
   199c6: 52 84        	mv	s0, s4
   199c8: c1 bf        	j	0x19998 <_vfprintf_r+0xeb0>
   199ca: 13 f6 1d 00  	andi	a2, s11, 0x1
   199ce: e3 15 06 82  	bnez	a2, 0x191f8 <_vfprintf_r+0x710>
   199d2: 14 e4        	sd	a3, 0x8(s0)
   199d4: a6 f9        	sd	s1, 0xf0(sp)
   199d6: da d5        	sw	s6, 0xe8(sp)
   199d8: 9d 47        	li	a5, 0x7
   199da: e3 dd 67 87  	bge	a5, s6, 0x19254 <_vfprintf_r+0x76c>
   199de: 22 65        	ld	a0, 0x8(sp)
   199e0: 90 11        	addi	a2, sp, 0xe0
   199e2: ca 85        	mv	a1, s2
   199e4: ef 00 b0 5d  	jal	0x1a7be <__sprint_r>
   199e8: e3 1d 05 d6  	bnez	a0, 0x19762 <_vfprintf_r+0xc7a>
   199ec: ce 74        	ld	s1, 0xf0(sp)
   199ee: 2e 5b        	lw	s6, 0xe8(sp)
   199f0: d2 8c        	mv	s9, s4
   199f2: 8d b0        	j	0x19254 <_vfprintf_r+0x76c>
   199f4: 62 77        	ld	a4, 0x38(sp)
   199f6: 85 47        	li	a5, 0x1
   199f8: e3 de e7 84  	bge	a5, a4, 0x19254 <_vfprintf_r+0x76c>
   199fc: b7 08 02 00  	lui	a7, 0x20
   19a00: c5 47        	li	a5, 0x11
   19a02: 93 88 88 1b  	addi	a7, a7, 0x1b8
   19a06: 63 d3 e7 46  	bge	a5, a4, 0x19e6c <_vfprintf_r+0x1384>
   19a0a: 4e f8        	sd	s3, 0x30(sp)
   19a0c: 41 47        	li	a4, 0x10
   19a0e: 1d 4d        	li	s10, 0x7
   19a10: c6 89        	mv	s3, a7
   19a12: 21 a0        	j	0x19a1a <_vfprintf_r+0xf32>
   19a14: 41 34        	addiw	s0, s0, -0x10
   19a16: 63 59 87 44  	bge	a4, s0, 0x19e68 <_vfprintf_r+0x1380>
   19a1a: 05 2b        	addiw	s6, s6, 0x1
   19a1c: c1 04        	addi	s1, s1, 0x10
   19a1e: 23 b0 3c 01  	sd	s3, 0x0(s9)
   19a22: 23 b4 ec 00  	sd	a4, 0x8(s9)
   19a26: a6 f9        	sd	s1, 0xf0(sp)
   19a28: da d5        	sw	s6, 0xe8(sp)
   19a2a: c1 0c        	addi	s9, s9, 0x10
   19a2c: e3 54 6d ff  	bge	s10, s6, 0x19a14 <_vfprintf_r+0xf2c>
   19a30: 22 65        	ld	a0, 0x8(sp)
   19a32: 90 11        	addi	a2, sp, 0xe0
   19a34: ca 85        	mv	a1, s2
   19a36: ef 00 90 58  	jal	0x1a7be <__sprint_r>
   19a3a: e3 14 05 d2  	bnez	a0, 0x19762 <_vfprintf_r+0xc7a>
   19a3e: ce 74        	ld	s1, 0xf0(sp)
   19a40: 2e 5b        	lw	s6, 0xe8(sp)
   19a42: d2 8c        	mv	s9, s4
   19a44: 41 47        	li	a4, 0x10
   19a46: f9 b7        	j	0x19a14 <_vfprintf_r+0xf2c>
   19a48: 93 f7 0c 01  	andi	a5, s9, 0x10
   19a4c: a9 e3        	bnez	a5, 0x19a8e <_vfprintf_r+0xfa6>
   19a4e: 82 76        	ld	a3, 0x20(sp)
   19a50: 93 f7 0c 04  	andi	a5, s9, 0x40
   19a54: 84 42        	lw	s1, 0x0(a3)
   19a56: 63 8a 07 44  	beqz	a5, 0x19eaa <_vfprintf_r+0x13c2>
   19a5a: c2 14        	slli	s1, s1, 0x30
   19a5c: c1 90        	srli	s1, s1, 0x30
   19a5e: 3a f0        	sd	a4, 0x20(sp)
   19a60: 85 47        	li	a5, 0x1
   19a62: 6f f0 2f c0  	j	0x18e64 <_vfprintf_r+0x37c>
   19a66: 81 46        	li	a3, 0x0
   19a68: 13 0d c1 15  	addi	s10, sp, 0x15c
   19a6c: 6f f0 6f bb  	j	0x18e22 <_vfprintf_r+0x33a>
   19a70: 93 f7 1d 00  	andi	a5, s11, 0x1
   19a74: 63 84 07 aa  	beqz	a5, 0x18d1c <_vfprintf_r+0x234>
   19a78: c5 bc        	j	0x19568 <_vfprintf_r+0xa80>
   19a7a: 03 c3 09 00  	lbu	t1, 0x0(s3)
   19a7e: 3e f0        	sd	a5, 0x20(sp)
   19a80: 6f f0 4f 99  	j	0x18c14 <_vfprintf_r+0x12c>
   19a84: 82 77        	ld	a5, 0x20(sp)
   19a86: 9c 63        	ld	a5, 0x0(a5)
   19a88: be 84        	mv	s1, a5
   19a8a: 6f f0 2f b7  	j	0x18dfc <_vfprintf_r+0x314>
   19a8e: 82 77        	ld	a5, 0x20(sp)
   19a90: 3a f0        	sd	a4, 0x20(sp)
   19a92: 84 63        	ld	s1, 0x0(a5)
   19a94: 85 47        	li	a5, 0x1
   19a96: 6f f0 ef bc  	j	0x18e64 <_vfprintf_r+0x37c>
   19a9a: 93 f7 0d 01  	andi	a5, s11, 0x10
   19a9e: e3 96 07 a4  	bnez	a5, 0x194ea <_vfprintf_r+0xa02>
   19aa2: 93 f7 0d 04  	andi	a5, s11, 0x40
   19aa6: 63 9b 07 66  	bnez	a5, 0x1a11c <_vfprintf_r+0x1634>
   19aaa: 13 fe 0d 20  	andi	t3, s11, 0x200
   19aae: c2 67        	ld	a5, 0x10(sp)
   19ab0: e3 0c 0e 20  	beqz	t3, 0x1a4c8 <_vfprintf_r+0x19e0>
   19ab4: 23 00 f7 00  	sb	a5, 0x0(a4)
   19ab8: 1d bc        	j	0x194ee <_vfprintf_r+0xa06>
   19aba: 82 77        	ld	a5, 0x20(sp)
   19abc: 84 63        	ld	s1, 0x0(a5)
   19abe: 6f f0 cf b9  	j	0x18e5a <_vfprintf_r+0x372>
   19ac2: 82 77        	ld	a5, 0x20(sp)
   19ac4: 13 8c f7 00  	addi	s8, a5, 0xf
   19ac8: 13 7c 0c ff  	andi	s8, s8, -0x10
   19acc: 93 07 0c 01  	addi	a5, s8, 0x10
   19ad0: 03 37 0c 00  	ld	a4, 0x0(s8)
   19ad4: 83 35 8c 00  	ld	a1, 0x8(s8)
   19ad8: 3e f0        	sd	a5, 0x20(sp)
   19ada: 6f f0 cf bf  	j	0x18ed6 <_vfprintf_r+0x3ee>
   19ade: 3a f0        	sd	a4, 0x20(sp)
   19ae0: a5 47        	li	a5, 0x9
   19ae2: ee 8c        	mv	s9, s11
   19ae4: e3 fe 97 c8  	bgeu	a5, s1, 0x19780 <_vfprintf_r+0xc98>
   19ae8: f4 0a        	addi	a3, sp, 0x15c
   19aea: 8a 68        	ld	a7, 0x80(sp)
   19aec: 13 f7 0c 40  	andi	a4, s9, 0x400
   19af0: 01 46        	li	a2, 0x0
   19af2: b6 85        	mv	a1, a3
   19af4: a9 4d        	li	s11, 0xa
   19af6: 25 48        	li	a6, 0x9
   19af8: 13 0c f0 0f  	li	s8, 0xff
   19afc: 39 a0        	j	0x19b0a <_vfprintf_r+0x1022>
   19afe: b3 d7 b4 03  	divu	a5, s1, s11
   19b02: 63 76 98 02  	bgeu	a6, s1, 0x19b2e <_vfprintf_r+0x1046>
   19b06: be 84        	mv	s1, a5
   19b08: ea 85        	mv	a1, s10
   19b0a: 13 8d f5 ff  	addi	s10, a1, -0x1
   19b0e: 05 26        	addiw	a2, a2, 0x1
   19b10: b3 f7 b4 03  	remu	a5, s1, s11
   19b14: 9b 87 07 03  	addiw	a5, a5, 0x30
   19b18: a3 8f f5 fe  	sb	a5, -0x1(a1)
   19b1c: 6d d3        	beqz	a4, 0x19afe <_vfprintf_r+0x1016>
   19b1e: 83 c7 08 00  	lbu	a5, 0x0(a7)
   19b22: e3 1e f6 fc  	bne	a2, a5, 0x19afe <_vfprintf_r+0x1016>
   19b26: e3 8c 87 fd  	beq	a5, s8, 0x19afe <_vfprintf_r+0x1016>
   19b2a: 63 67 98 3e  	bltu	a6, s1, 0x19f18 <_vfprintf_r+0x1430>
   19b2e: 32 fc        	sd	a2, 0x38(sp)
   19b30: 46 e1        	sd	a7, 0x80(sp)
   19b32: bb 86 a6 41  	subw	a3, a3, s10
   19b36: e6 8d        	mv	s11, s9
   19b38: 6f f0 af ae  	j	0x18e22 <_vfprintf_r+0x33a>
   19b3c: 1b 0b 07 00  	sext.w	s6, a4
   19b40: e3 41 60 db  	bgtz	s6, 0x198e2 <_vfprintf_r+0xdfa>
   19b44: 6d bb        	j	0x198fe <_vfprintf_r+0xe16>
   19b46: 7d 5b        	li	s6, -0x1
   19b48: ba 89        	mv	s3, a4
   19b4a: 6f f0 ef 8c  	j	0x18c18 <_vfprintf_r+0x130>
   19b4e: ee 8c        	mv	s9, s11
   19b50: e9 b0        	j	0x1941a <_vfprintf_r+0x932>
   19b52: b7 07 02 00  	lui	a5, 0x20
   19b56: 93 87 07 b7  	addi	a5, a5, -0x490
   19b5a: be f0        	sd	a5, 0x60(sp)
   19b5c: 82 76        	ld	a3, 0x20(sp)
   19b5e: 93 f7 0d 02  	andi	a5, s11, 0x20
   19b62: 13 87 86 00  	addi	a4, a3, 0x8
   19b66: 63 89 07 14  	beqz	a5, 0x19cb8 <_vfprintf_r+0x11d0>
   19b6a: 84 62        	ld	s1, 0x0(a3)
   19b6c: 93 f7 1d 00  	andi	a5, s11, 0x1
   19b70: 81 cf        	beqz	a5, 0x19b88 <_vfprintf_r+0x10a0>
   19b72: 99 c8        	beqz	s1, 0x19b88 <_vfprintf_r+0x10a0>
   19b74: 13 ee 2d 00  	ori	t3, s11, 0x2
   19b78: 93 07 00 03  	li	a5, 0x30
   19b7c: 23 08 f1 0a  	sb	a5, 0xb0(sp)
   19b80: a3 08 61 0a  	sb	t1, 0xb1(sp)
   19b84: 9b 0d 0e 00  	sext.w	s11, t3
   19b88: 93 fc fd bf  	andi	s9, s11, -0x401
   19b8c: 81 2c        	sext.w	s9, s9
   19b8e: 3a f0        	sd	a4, 0x20(sp)
   19b90: 89 47        	li	a5, 0x2
   19b92: 6f f0 2f ad  	j	0x18e64 <_vfprintf_r+0x37c>
   19b96: b7 07 02 00  	lui	a5, 0x20
   19b9a: 93 87 87 b5  	addi	a5, a5, -0x4a8
   19b9e: be f0        	sd	a5, 0x60(sp)
   19ba0: 75 bf        	j	0x19b5c <_vfprintf_r+0x1074>
   19ba2: 93 ed 0d 20  	ori	s11, s11, 0x200
   19ba6: 03 c3 19 00  	lbu	t1, 0x1(s3)
   19baa: 81 2d        	sext.w	s11, s11
   19bac: 85 09        	addi	s3, s3, 0x1
   19bae: 6f f0 6f 86  	j	0x18c14 <_vfprintf_r+0x12c>
   19bb2: 93 ed 0d 02  	ori	s11, s11, 0x20
   19bb6: 03 c3 19 00  	lbu	t1, 0x1(s3)
   19bba: 81 2d        	sext.w	s11, s11
   19bbc: 85 09        	addi	s3, s3, 0x1
   19bbe: 6f f0 6f 85  	j	0x18c14 <_vfprintf_r+0x12c>
   19bc2: 22 65        	ld	a0, 0x8(sp)
   19bc4: 90 11        	addi	a2, sp, 0xe0
   19bc6: ca 85        	mv	a1, s2
   19bc8: ef 00 70 3f  	jal	0x1a7be <__sprint_r>
   19bcc: e3 1b 05 b8  	bnez	a0, 0x19762 <_vfprintf_r+0xc7a>
   19bd0: ce 74        	ld	s1, 0xf0(sp)
   19bd2: 52 84        	mv	s0, s4
   19bd4: 4d ba        	j	0x19586 <_vfprintf_r+0xa9e>
   19bd6: 99 47        	li	a5, 0x6
   19bd8: 9b 06 0b 00  	sext.w	a3, s6
   19bdc: 63 ee 67 51  	bltu	a5, s6, 0x1a0f8 <_vfprintf_r+0x1610>
   19be0: b7 07 02 00  	lui	a5, 0x20
   19be4: 36 8c        	mv	s8, a3
   19be6: 26 f0        	sd	s1, 0x20(sp)
   19be8: 13 8d 87 b8  	addi	s10, a5, -0x478
   19bec: 6f f0 2f 89  	j	0x18c7e <_vfprintf_r+0x196>
   19bf0: b7 08 02 00  	lui	a7, 0x20
   19bf4: c1 46        	li	a3, 0x10
   19bf6: 2e 57        	lw	a4, 0xe8(sp)
   19bf8: 93 88 88 1b  	addi	a7, a7, 0x1b8
   19bfc: 63 d7 66 2f  	bge	a3, s6, 0x19eea <_vfprintf_r+0x1402>
   19c00: c1 46        	li	a3, 0x10
   19c02: 1d 43        	li	t1, 0x7
   19c04: c6 8c        	mv	s9, a7
   19c06: 21 a0        	j	0x19c0e <_vfprintf_r+0x1126>
   19c08: 41 3b        	addiw	s6, s6, -0x10
   19c0a: 63 df 66 2d  	bge	a3, s6, 0x19ee8 <_vfprintf_r+0x1400>
   19c0e: 05 27        	addiw	a4, a4, 0x1
   19c10: c1 04        	addi	s1, s1, 0x10
   19c12: 23 30 94 01  	sd	s9, 0x0(s0)
   19c16: 14 e4        	sd	a3, 0x8(s0)
   19c18: a6 f9        	sd	s1, 0xf0(sp)
   19c1a: ba d5        	sw	a4, 0xe8(sp)
   19c1c: 41 04        	addi	s0, s0, 0x10
   19c1e: e3 55 e3 fe  	bge	t1, a4, 0x19c08 <_vfprintf_r+0x1120>
   19c22: 22 65        	ld	a0, 0x8(sp)
   19c24: 90 11        	addi	a2, sp, 0xe0
   19c26: ca 85        	mv	a1, s2
   19c28: ef 00 70 39  	jal	0x1a7be <__sprint_r>
   19c2c: e3 1b 05 b2  	bnez	a0, 0x19762 <_vfprintf_r+0xc7a>
   19c30: ce 74        	ld	s1, 0xf0(sp)
   19c32: 2e 57        	lw	a4, 0xe8(sp)
   19c34: 52 84        	mv	s0, s4
   19c36: 1d 43        	li	t1, 0x7
   19c38: c1 46        	li	a3, 0x10
   19c3a: f9 b7        	j	0x19c08 <_vfprintf_r+0x1120>
   19c3c: ae 56        	lw	a3, 0xe8(sp)
   19c3e: c6 67        	ld	a5, 0x50(sp)
   19c40: 66 66        	ld	a2, 0x58(sp)
   19c42: 41 04        	addi	s0, s0, 0x10
   19c44: be 94        	add	s1, s1, a5
   19c46: 23 38 c4 fe  	sd	a2, -0x10(s0)
   19c4a: 1b 86 16 00  	addiw	a2, a3, 0x1
   19c4e: 23 3c f4 fe  	sd	a5, -0x8(s0)
   19c52: a6 f9        	sd	s1, 0xf0(sp)
   19c54: b2 d5        	sw	a2, 0xe8(sp)
   19c56: 9d 46        	li	a3, 0x7
   19c58: e3 dc c6 cc  	bge	a3, a2, 0x19930 <_vfprintf_r+0xe48>
   19c5c: 22 65        	ld	a0, 0x8(sp)
   19c5e: 90 11        	addi	a2, sp, 0xe0
   19c60: ca 85        	mv	a1, s2
   19c62: 1a f8        	sd	t1, 0x30(sp)
   19c64: ef 00 b0 35  	jal	0x1a7be <__sprint_r>
   19c68: e3 1d 05 ae  	bnez	a0, 0x19762 <_vfprintf_r+0xc7a>
   19c6c: 6a 57        	lw	a4, 0xb8(sp)
   19c6e: ce 74        	ld	s1, 0xf0(sp)
   19c70: 42 73        	ld	t1, 0x30(sp)
   19c72: 52 84        	mv	s0, s4
   19c74: 75 b9        	j	0x19930 <_vfprintf_r+0xe48>
   19c76: 93 07 80 07  	li	a5, 0x78
   19c7a: 93 06 00 03  	li	a3, 0x30
   19c7e: 13 e7 2d 00  	ori	a4, s11, 0x2
   19c82: a3 08 f1 0a  	sb	a5, 0xb1(sp)
   19c86: 23 08 d1 0a  	sb	a3, 0xb0(sp)
   19c8a: 93 07 30 06  	li	a5, 0x63
   19c8e: 01 27        	sext.w	a4, a4
   19c90: 63 c5 67 4d  	blt	a5, s6, 0x1a15a <_vfprintf_r+0x1672>
   19c94: ce 67        	ld	a5, 0xd0(sp)
   19c96: ee 6c        	ld	s9, 0xd8(sp)
   19c98: 13 ee 2d 10  	ori	t3, s11, 0x102
   19c9c: 3e f8        	sd	a5, 0x30(sp)
   19c9e: 9b 04 0e 00  	sext.w	s1, t3
   19ca2: 63 c5 0c 62  	bltz	s9, 0x1a2cc <_vfprintf_r+0x17e4>
   19ca6: 9b 06 f3 fb  	addiw	a3, t1, -0x41
   19caa: ba 8d        	mv	s11, a4
   19cac: 82 f4        	sd	zero, 0x68(sp)
   19cae: 02 ec        	sd	zero, 0x18(sp)
   19cb0: 13 0d 81 0f  	addi	s10, sp, 0xf8
   19cb4: 6f f0 af a9  	j	0x18f4e <_vfprintf_r+0x466>
   19cb8: 93 f7 0d 01  	andi	a5, s11, 0x10
   19cbc: d9 c7        	beqz	a5, 0x19d4a <_vfprintf_r+0x1262>
   19cbe: 82 77        	ld	a5, 0x20(sp)
   19cc0: 84 63        	ld	s1, 0x0(a5)
   19cc2: 6d b5        	j	0x19b6c <_vfprintf_r+0x1084>
   19cc4: 22 65        	ld	a0, 0x8(sp)
   19cc6: 90 11        	addi	a2, sp, 0xe0
   19cc8: ca 85        	mv	a1, s2
   19cca: ef 00 50 2f  	jal	0x1a7be <__sprint_r>
   19cce: e3 1a 05 a8  	bnez	a0, 0x19762 <_vfprintf_r+0xc7a>
   19cd2: ce 74        	ld	s1, 0xf0(sp)
   19cd4: 2e 5b        	lw	s6, 0xe8(sp)
   19cd6: d2 8c        	mv	s9, s4
   19cd8: 6f f0 ef d2  	j	0x19206 <_vfprintf_r+0x71e>
   19cdc: 22 65        	ld	a0, 0x8(sp)
   19cde: 90 11        	addi	a2, sp, 0xe0
   19ce0: ca 85        	mv	a1, s2
   19ce2: ef 00 d0 2d  	jal	0x1a7be <__sprint_r>
   19ce6: e3 1e 05 a6  	bnez	a0, 0x19762 <_vfprintf_r+0xc7a>
   19cea: ce 74        	ld	s1, 0xf0(sp)
   19cec: 2e 5b        	lw	s6, 0xe8(sp)
   19cee: d2 8c        	mv	s9, s4
   19cf0: 6f f0 2f d3  	j	0x19222 <_vfprintf_r+0x73a>
   19cf4: ae 56        	lw	a3, 0xe8(sp)
   19cf6: 37 06 02 00  	lui	a2, 0x20
   19cfa: 13 06 06 b9  	addi	a2, a2, -0x470
   19cfe: 85 26        	addiw	a3, a3, 0x1
   19d00: 10 e0        	sd	a2, 0x0(s0)
   19d02: 85 04        	addi	s1, s1, 0x1
   19d04: 05 46        	li	a2, 0x1
   19d06: 10 e4        	sd	a2, 0x8(s0)
   19d08: b6 d5        	sw	a3, 0xe8(sp)
   19d0a: 1b 86 06 00  	sext.w	a2, a3
   19d0e: a6 f9        	sd	s1, 0xf0(sp)
   19d10: 9d 46        	li	a3, 0x7
   19d12: 41 04        	addi	s0, s0, 0x10
   19d14: 63 c7 c6 3a  	blt	a3, a2, 0x1a0c2 <_vfprintf_r+0x15da>
   19d18: 63 14 07 10  	bnez	a4, 0x19e20 <_vfprintf_r+0x1338>
   19d1c: e2 77        	ld	a5, 0x38(sp)
   19d1e: 13 f7 1d 00  	andi	a4, s11, 0x1
   19d22: 5d 8f        	or	a4, a4, a5
   19d24: 19 e3        	bnez	a4, 0x19d2a <_vfprintf_r+0x1242>
   19d26: 6f e0 7f ff  	j	0x18d1c <_vfprintf_r+0x234>
   19d2a: 2e 57        	lw	a4, 0xe8(sp)
   19d2c: c6 67        	ld	a5, 0x50(sp)
   19d2e: e6 66        	ld	a3, 0x58(sp)
   19d30: 33 86 97 00  	add	a2, a5, s1
   19d34: 14 e0        	sd	a3, 0x0(s0)
   19d36: 9b 06 17 00  	addiw	a3, a4, 0x1
   19d3a: 1c e4        	sd	a5, 0x8(s0)
   19d3c: b2 f9        	sd	a2, 0xf0(sp)
   19d3e: b6 d5        	sw	a3, 0xe8(sp)
   19d40: 1d 47        	li	a4, 0x7
   19d42: 63 40 d7 40  	blt	a4, a3, 0x1a142 <_vfprintf_r+0x165a>
   19d46: 41 04        	addi	s0, s0, 0x10
   19d48: fd a8        	j	0x19e46 <_vfprintf_r+0x135e>
   19d4a: 82 76        	ld	a3, 0x20(sp)
   19d4c: 93 f7 0d 04  	andi	a5, s11, 0x40
   19d50: 84 42        	lw	s1, 0x0(a3)
   19d52: 63 86 07 16  	beqz	a5, 0x19ebe <_vfprintf_r+0x13d6>
   19d56: c2 14        	slli	s1, s1, 0x30
   19d58: c1 90        	srli	s1, s1, 0x30
   19d5a: 09 bd        	j	0x19b6c <_vfprintf_r+0x1084>
   19d5c: 22 65        	ld	a0, 0x8(sp)
   19d5e: ef b0 5f f6  	jal	0x15cc2 <__sinit>
   19d62: 6f e0 1f dc  	j	0x18b22 <_vfprintf_r+0x3a>
   19d66: 22 65        	ld	a0, 0x8(sp)
   19d68: 90 11        	addi	a2, sp, 0xe0
   19d6a: ca 85        	mv	a1, s2
   19d6c: ef 00 30 25  	jal	0x1a7be <__sprint_r>
   19d70: e3 19 05 9e  	bnez	a0, 0x19762 <_vfprintf_r+0xc7a>
   19d74: ce 74        	ld	s1, 0xf0(sp)
   19d76: 52 84        	mv	s0, s4
   19d78: 6f f0 8f fe  	j	0x19560 <_vfprintf_r+0xa78>
   19d7c: da 88        	mv	a7, s6
   19d7e: 4e 8b        	mv	s6, s3
   19d80: c2 79        	ld	s3, 0x30(sp)
   19d82: 1b 87 17 00  	addiw	a4, a5, 0x1
   19d86: 23 30 14 01  	sd	a7, 0x0(s0)
   19d8a: 23 34 64 01  	sd	s6, 0x8(s0)
   19d8e: da 94        	add	s1, s1, s6
   19d90: a6 f9        	sd	s1, 0xf0(sp)
   19d92: ba d5        	sw	a4, 0xe8(sp)
   19d94: 9d 47        	li	a5, 0x7
   19d96: 63 c4 e7 00  	blt	a5, a4, 0x19d9e <_vfprintf_r+0x12b6>
   19d9a: 6f e0 1f f8  	j	0x18d1a <_vfprintf_r+0x232>
   19d9e: 6f f0 8f cd  	j	0x19276 <_vfprintf_r+0x78e>
   19da2: 3a f0        	sd	a4, 0x20(sp)
   19da4: d9 ba        	j	0x1977a <_vfprintf_r+0xc92>
   19da6: 4e 65        	ld	a0, 0xd0(sp)
   19da8: ee 65        	ld	a1, 0xd8(sp)
   19daa: 01 46        	li	a2, 0x0
   19dac: 81 46        	li	a3, 0x0
   19dae: ef 40 20 53  	jal	0x1e2e0 <__lttf2>
   19db2: 62 63        	ld	t1, 0x18(sp)
   19db4: 63 48 05 54  	bltz	a0, 0x1a304 <_vfprintf_r+0x181c>
   19db8: 03 47 f1 0a  	lbu	a4, 0xaf(sp)
   19dbc: 93 07 70 04  	li	a5, 0x47
   19dc0: 63 dc 67 30  	bge	a5, t1, 0x1a0d8 <_vfprintf_r+0x15f0>
   19dc4: b7 07 02 00  	lui	a5, 0x20
   19dc8: 13 8d 07 b4  	addi	s10, a5, -0x4c0
   19dcc: 13 fe fd f7  	andi	t3, s11, -0x81
   19dd0: 02 ec        	sd	zero, 0x18(sp)
   19dd2: 82 e4        	sd	zero, 0x48(sp)
   19dd4: 82 e0        	sd	zero, 0x40(sp)
   19dd6: 02 f8        	sd	zero, 0x30(sp)
   19dd8: 9b 0d 0e 00  	sext.w	s11, t3
   19ddc: 0d 4c        	li	s8, 0x3
   19dde: 8d 46        	li	a3, 0x3
   19de0: 01 4b        	li	s6, 0x0
   19de2: 19 c3        	beqz	a4, 0x19de8 <_vfprintf_r+0x1300>
   19de4: 6f f0 af 85  	j	0x18e3e <_vfprintf_r+0x356>
   19de8: 6f e0 1f ea  	j	0x18c88 <_vfprintf_r+0x1a0>
   19dec: 6a 85        	mv	a0, s10
   19dee: 9a f4        	sd	t1, 0x68(sp)
   19df0: ef d0 2f 95  	jal	0x16f42 <strlen>
   19df4: 9b 06 05 00  	sext.w	a3, a0
   19df8: 03 47 f1 0a  	lbu	a4, 0xaf(sp)
   19dfc: 13 c8 f6 ff  	not	a6, a3
   19e00: 13 58 f8 43  	srai	a6, a6, 0x3f
   19e04: 26 f0        	sd	s1, 0x20(sp)
   19e06: 02 ec        	sd	zero, 0x18(sp)
   19e08: 82 e4        	sd	zero, 0x48(sp)
   19e0a: 82 e0        	sd	zero, 0x40(sp)
   19e0c: 02 f8        	sd	zero, 0x30(sp)
   19e0e: 26 73        	ld	t1, 0x68(sp)
   19e10: 33 7c d8 00  	and	s8, a6, a3
   19e14: 01 4b        	li	s6, 0x0
   19e16: 19 c3        	beqz	a4, 0x19e1c <_vfprintf_r+0x1334>
   19e18: 6f f0 6f 82  	j	0x18e3e <_vfprintf_r+0x356>
   19e1c: 6f e0 df e6  	j	0x18c88 <_vfprintf_r+0x1a0>
   19e20: ae 55        	lw	a1, 0xe8(sp)
   19e22: c6 67        	ld	a5, 0x50(sp)
   19e24: e6 66        	ld	a3, 0x58(sp)
   19e26: 41 04        	addi	s0, s0, 0x10
   19e28: 33 86 97 00  	add	a2, a5, s1
   19e2c: 23 38 d4 fe  	sd	a3, -0x10(s0)
   19e30: 9b 86 15 00  	addiw	a3, a1, 0x1
   19e34: 23 3c f4 fe  	sd	a5, -0x8(s0)
   19e38: b2 f9        	sd	a2, 0xf0(sp)
   19e3a: b6 d5        	sw	a3, 0xe8(sp)
   19e3c: 9d 45        	li	a1, 0x7
   19e3e: 63 c2 d5 30  	blt	a1, a3, 0x1a142 <_vfprintf_r+0x165a>
   19e42: 63 4b 07 54  	bltz	a4, 0x1a398 <_vfprintf_r+0x18b0>
   19e46: e2 77        	ld	a5, 0x38(sp)
   19e48: 1b 87 16 00  	addiw	a4, a3, 0x1
   19e4c: 23 30 a4 01  	sd	s10, 0x0(s0)
   19e50: b3 84 c7 00  	add	s1, a5, a2
   19e54: 1c e4        	sd	a5, 0x8(s0)
   19e56: a6 f9        	sd	s1, 0xf0(sp)
   19e58: ba d5        	sw	a4, 0xe8(sp)
   19e5a: 9d 47        	li	a5, 0x7
   19e5c: 63 c4 e7 00  	blt	a5, a4, 0x19e64 <_vfprintf_r+0x137c>
   19e60: 6f e0 bf eb  	j	0x18d1a <_vfprintf_r+0x232>
   19e64: 6f f0 2f c1  	j	0x19276 <_vfprintf_r+0x78e>
   19e68: ce 88        	mv	a7, s3
   19e6a: c2 79        	ld	s3, 0x30(sp)
   19e6c: 05 2b        	addiw	s6, s6, 0x1
   19e6e: a2 94        	add	s1, s1, s0
   19e70: 23 b0 1c 01  	sd	a7, 0x0(s9)
   19e74: 23 b4 8c 00  	sd	s0, 0x8(s9)
   19e78: a6 f9        	sd	s1, 0xf0(sp)
   19e7a: da d5        	sw	s6, 0xe8(sp)
   19e7c: 9d 47        	li	a5, 0x7
   19e7e: 63 da 67 bd  	bge	a5, s6, 0x19252 <_vfprintf_r+0x76a>
   19e82: b1 be        	j	0x199de <_vfprintf_r+0xef6>
   19e84: 93 f7 0d 20  	andi	a5, s11, 0x200
   19e88: 63 86 07 28  	beqz	a5, 0x1a114 <_vfprintf_r+0x162c>
   19e8c: 93 f4 f4 0f  	andi	s1, s1, 0xff
   19e90: 6f e0 bf fc  	j	0x18e5a <_vfprintf_r+0x372>
   19e94: 93 f7 0d 20  	andi	a5, s11, 0x200
   19e98: 63 8b 07 26  	beqz	a5, 0x1a10e <_vfprintf_r+0x1626>
   19e9c: 9b 94 84 01  	slliw	s1, s1, 0x18
   19ea0: 9b d4 84 41  	sraiw	s1, s1, 0x18
   19ea4: a6 87        	mv	a5, s1
   19ea6: 6f e0 7f f5  	j	0x18dfc <_vfprintf_r+0x314>
   19eaa: 93 f7 0c 20  	andi	a5, s9, 0x200
   19eae: 63 8a 07 24  	beqz	a5, 0x1a102 <_vfprintf_r+0x161a>
   19eb2: 93 f4 f4 0f  	andi	s1, s1, 0xff
   19eb6: 3a f0        	sd	a4, 0x20(sp)
   19eb8: 85 47        	li	a5, 0x1
   19eba: 6f e0 bf fa  	j	0x18e64 <_vfprintf_r+0x37c>
   19ebe: 93 f7 0d 20  	andi	a5, s11, 0x200
   19ec2: 63 8d 07 22  	beqz	a5, 0x1a0fc <_vfprintf_r+0x1614>
   19ec6: 93 f4 f4 0f  	andi	s1, s1, 0xff
   19eca: 4d b1        	j	0x19b6c <_vfprintf_r+0x1084>
   19ecc: ee 67        	ld	a5, 0xd8(sp)
   19ece: 63 c3 07 26  	bltz	a5, 0x1a134 <_vfprintf_r+0x164c>
   19ed2: 03 47 f1 0a  	lbu	a4, 0xaf(sp)
   19ed6: 93 07 70 04  	li	a5, 0x47
   19eda: 63 ca 67 4a  	blt	a5, t1, 0x1a38e <_vfprintf_r+0x18a6>
   19ede: b7 07 02 00  	lui	a5, 0x20
   19ee2: 13 8d 87 b4  	addi	s10, a5, -0x4b8
   19ee6: dd b5        	j	0x19dcc <_vfprintf_r+0x12e4>
   19ee8: e6 88        	mv	a7, s9
   19eea: 9b 06 17 00  	addiw	a3, a4, 0x1
   19eee: da 94        	add	s1, s1, s6
   19ef0: 23 30 14 01  	sd	a7, 0x0(s0)
   19ef4: 23 34 64 01  	sd	s6, 0x8(s0)
   19ef8: a6 f9        	sd	s1, 0xf0(sp)
   19efa: b6 d5        	sw	a3, 0xe8(sp)
   19efc: 1d 47        	li	a4, 0x7
   19efe: 41 04        	addi	s0, s0, 0x10
   19f00: e3 59 d7 a0  	bge	a4, a3, 0x19912 <_vfprintf_r+0xe2a>
   19f04: 22 65        	ld	a0, 0x8(sp)
   19f06: 90 11        	addi	a2, sp, 0xe0
   19f08: ca 85        	mv	a1, s2
   19f0a: ef 00 50 0b  	jal	0x1a7be <__sprint_r>
   19f0e: e3 1a 05 84  	bnez	a0, 0x19762 <_vfprintf_r+0xc7a>
   19f12: ce 74        	ld	s1, 0xf0(sp)
   19f14: 52 84        	mv	s0, s4
   19f16: f5 ba        	j	0x19912 <_vfprintf_r+0xe2a>
   19f18: aa 67        	ld	a5, 0x88(sp)
   19f1a: e6 75        	ld	a1, 0x78(sp)
   19f1c: b6 e0        	sd	a3, 0x40(sp)
   19f1e: 33 0d fd 40  	sub	s10, s10, a5
   19f22: 3e 86        	mv	a2, a5
   19f24: 6a 85        	mv	a0, s10
   19f26: 3a fc        	sd	a4, 0x38(sp)
   19f28: 1a f8        	sd	t1, 0x30(sp)
   19f2a: 46 ec        	sd	a7, 0x18(sp)
   19f2c: ef 10 d0 59  	jal	0x1bcc8 <strncpy>
   19f30: e2 68        	ld	a7, 0x18(sp)
   19f32: a9 47        	li	a5, 0xa
   19f34: b3 d7 f4 02  	divu	a5, s1, a5
   19f38: 03 c6 18 00  	lbu	a2, 0x1(a7)
   19f3c: 42 73        	ld	t1, 0x30(sp)
   19f3e: 62 77        	ld	a4, 0x38(sp)
   19f40: 33 36 c0 00  	snez	a2, a2
   19f44: b2 98        	add	a7, a7, a2
   19f46: 86 66        	ld	a3, 0x40(sp)
   19f48: 01 46        	li	a2, 0x0
   19f4a: 25 48        	li	a6, 0x9
   19f4c: 6d be        	j	0x19b06 <_vfprintf_r+0x101e>
   19f4e: e2 77        	ld	a5, 0x38(sp)
   19f50: 86 6c        	ld	s9, 0x40(sp)
   19f52: b7 08 02 00  	lui	a7, 0x20
   19f56: b3 05 fd 00  	add	a1, s10, a5
   19f5a: ce f4        	sd	s3, 0x68(sp)
   19f5c: 6e e9        	sd	s11, 0x90(sp)
   19f5e: 5e ed        	sd	s7, 0x98(sp)
   19f60: a6 6d        	ld	s11, 0x48(sp)
   19f62: e2 e0        	sd	s8, 0x40(sp)
   19f64: ea e4        	sd	s10, 0x48(sp)
   19f66: 26 86        	mv	a2, s1
   19f68: aa 6b        	ld	s7, 0x88(sp)
   19f6a: 0a 6c        	ld	s8, 0x80(sp)
   19f6c: a2 69        	ld	s3, 0x8(sp)
   19f6e: 9d 46        	li	a3, 0x7
   19f70: 41 47        	li	a4, 0x10
   19f72: 13 8b 88 1b  	addi	s6, a7, 0x1b8
   19f76: a2 87        	mv	a5, s0
   19f78: 1a 8d        	mv	s10, t1
   19f7a: ae 84        	mv	s1, a1
   19f7c: 63 5d 90 07  	blez	s9, 0x19ff6 <_vfprintf_r+0x150e>
   19f80: 63 52 b0 11  	blez	s11, 0x1a084 <_vfprintf_r+0x159c>
   19f84: fd 3d        	addiw	s11, s11, -0x1
   19f86: ae 55        	lw	a1, 0xe8(sp)
   19f88: 66 75        	ld	a0, 0x78(sp)
   19f8a: 5e 96        	add	a2, a2, s7
   19f8c: 23 b4 77 01  	sd	s7, 0x8(a5)
   19f90: 88 e3        	sd	a0, 0x0(a5)
   19f92: 1b 85 15 00  	addiw	a0, a1, 0x1
   19f96: b2 f9        	sd	a2, 0xf0(sp)
   19f98: aa d5        	sw	a0, 0xe8(sp)
   19f9a: c1 07        	addi	a5, a5, 0x10
   19f9c: 63 c7 a6 0e  	blt	a3, a0, 0x1a08a <_vfprintf_r+0x15a2>
   19fa0: 83 45 0c 00  	lbu	a1, 0x0(s8)
   19fa4: 33 8f a4 41  	sub	t5, s1, s10
   19fa8: 1b 05 0f 00  	sext.w	a0, t5
   19fac: 1b 88 05 00  	sext.w	a6, a1
   19fb0: 63 d3 a5 00  	bge	a1, a0, 0x19fb6 <_vfprintf_r+0x14ce>
   19fb4: 42 8f        	mv	t5, a6
   19fb6: 1b 04 0f 00  	sext.w	s0, t5
   19fba: 63 52 80 02  	blez	s0, 0x19fde <_vfprintf_r+0x14f6>
   19fbe: ae 55        	lw	a1, 0xe8(sp)
   19fc0: 22 96        	add	a2, a2, s0
   19fc2: 23 b0 a7 01  	sd	s10, 0x0(a5)
   19fc6: 1b 85 15 00  	addiw	a0, a1, 0x1
   19fca: 80 e7        	sd	s0, 0x8(a5)
   19fcc: b2 f9        	sd	a2, 0xf0(sp)
   19fce: aa d5        	sw	a0, 0xe8(sp)
   19fd0: 63 c9 a6 0c  	blt	a3, a0, 0x1a0a2 <_vfprintf_r+0x15ba>
   19fd4: 83 45 0c 00  	lbu	a1, 0x0(s8)
   19fd8: c1 07        	addi	a5, a5, 0x10
   19fda: 1b 88 05 00  	sext.w	a6, a1
   19fde: 13 45 f4 ff  	not	a0, s0
   19fe2: 7d 95        	srai	a0, a0, 0x3f
   19fe4: 33 7f a4 00  	and	t5, s0, a0
   19fe8: 3b 04 e8 41  	subw	s0, a6, t5
   19fec: 63 47 80 02  	bgtz	s0, 0x1a01a <_vfprintf_r+0x1532>
   19ff0: 2e 9d        	add	s10, s10, a1
   19ff2: e3 47 90 f9  	bgtz	s9, 0x19f80 <_vfprintf_r+0x1498>
   19ff6: e3 47 b0 f9  	bgtz	s11, 0x19f84 <_vfprintf_r+0x149c>
   19ffa: 6a 83        	mv	t1, s10
   19ffc: 3e 84        	mv	s0, a5
   19ffe: 26 6d        	ld	s10, 0x48(sp)
   1a000: e2 77        	ld	a5, 0x38(sp)
   1a002: 62 e1        	sd	s8, 0x80(sp)
   1a004: a6 79        	ld	s3, 0x68(sp)
   1a006: 33 07 fd 00  	add	a4, s10, a5
   1a00a: ca 6d        	ld	s11, 0x90(sp)
   1a00c: ea 6b        	ld	s7, 0x98(sp)
   1a00e: 06 6c        	ld	s8, 0x40(sp)
   1a010: b2 84        	mv	s1, a2
   1a012: e3 77 67 90  	bgeu	a4, t1, 0x19920 <_vfprintf_r+0xe38>
   1a016: 3a 83        	mv	t1, a4
   1a018: 21 b2        	j	0x19920 <_vfprintf_r+0xe38>
   1a01a: 37 0f 02 00  	lui	t5, 0x20
   1a01e: ae 55        	lw	a1, 0xe8(sp)
   1a020: 13 0f 8f 1b  	addi	t5, t5, 0x1b8
   1a024: 63 51 87 04  	bge	a4, s0, 0x1a066 <_vfprintf_r+0x157e>
   1a028: 5a f8        	sd	s6, 0x30(sp)
   1a02a: 21 a0        	j	0x1a032 <_vfprintf_r+0x154a>
   1a02c: 41 34        	addiw	s0, s0, -0x10
   1a02e: 63 5b 87 02  	bge	a4, s0, 0x1a064 <_vfprintf_r+0x157c>
   1a032: 85 25        	addiw	a1, a1, 0x1
   1a034: 41 06        	addi	a2, a2, 0x10
   1a036: 23 b0 67 01  	sd	s6, 0x0(a5)
   1a03a: 98 e7        	sd	a4, 0x8(a5)
   1a03c: b2 f9        	sd	a2, 0xf0(sp)
   1a03e: ae d5        	sw	a1, 0xe8(sp)
   1a040: c1 07        	addi	a5, a5, 0x10
   1a042: e3 d5 b6 fe  	bge	a3, a1, 0x1a02c <_vfprintf_r+0x1544>
   1a046: 90 11        	addi	a2, sp, 0xe0
   1a048: ca 85        	mv	a1, s2
   1a04a: 4e 85        	mv	a0, s3
   1a04c: ef 00 20 77  	jal	0x1a7be <__sprint_r>
   1a050: 63 19 05 f0  	bnez	a0, 0x19762 <_vfprintf_r+0xc7a>
   1a054: 41 47        	li	a4, 0x10
   1a056: 41 34        	addiw	s0, s0, -0x10
   1a058: 4e 76        	ld	a2, 0xf0(sp)
   1a05a: ae 55        	lw	a1, 0xe8(sp)
   1a05c: d2 87        	mv	a5, s4
   1a05e: 9d 46        	li	a3, 0x7
   1a060: e3 49 87 fc  	blt	a4, s0, 0x1a032 <_vfprintf_r+0x154a>
   1a064: 42 7f        	ld	t5, 0x30(sp)
   1a066: 1b 85 15 00  	addiw	a0, a1, 0x1
   1a06a: 22 96        	add	a2, a2, s0
   1a06c: 23 b0 e7 01  	sd	t5, 0x0(a5)
   1a070: 80 e7        	sd	s0, 0x8(a5)
   1a072: b2 f9        	sd	a2, 0xf0(sp)
   1a074: aa d5        	sw	a0, 0xe8(sp)
   1a076: 63 c8 a6 26  	blt	a3, a0, 0x1a2e6 <_vfprintf_r+0x17fe>
   1a07a: 83 45 0c 00  	lbu	a1, 0x0(s8)
   1a07e: c1 07        	addi	a5, a5, 0x10
   1a080: 2e 9d        	add	s10, s10, a1
   1a082: 85 bf        	j	0x19ff2 <_vfprintf_r+0x150a>
   1a084: 7d 1c        	addi	s8, s8, -0x1
   1a086: fd 3c        	addiw	s9, s9, -0x1
   1a088: fd bd        	j	0x19f86 <_vfprintf_r+0x149e>
   1a08a: 90 11        	addi	a2, sp, 0xe0
   1a08c: ca 85        	mv	a1, s2
   1a08e: 4e 85        	mv	a0, s3
   1a090: ef 00 e0 72  	jal	0x1a7be <__sprint_r>
   1a094: 63 17 05 ec  	bnez	a0, 0x19762 <_vfprintf_r+0xc7a>
   1a098: 4e 76        	ld	a2, 0xf0(sp)
   1a09a: d2 87        	mv	a5, s4
   1a09c: 41 47        	li	a4, 0x10
   1a09e: 9d 46        	li	a3, 0x7
   1a0a0: 01 b7        	j	0x19fa0 <_vfprintf_r+0x14b8>
   1a0a2: 90 11        	addi	a2, sp, 0xe0
   1a0a4: ca 85        	mv	a1, s2
   1a0a6: 4e 85        	mv	a0, s3
   1a0a8: ef 00 60 71  	jal	0x1a7be <__sprint_r>
   1a0ac: 63 1b 05 ea  	bnez	a0, 0x19762 <_vfprintf_r+0xc7a>
   1a0b0: 83 45 0c 00  	lbu	a1, 0x0(s8)
   1a0b4: 4e 76        	ld	a2, 0xf0(sp)
   1a0b6: d2 87        	mv	a5, s4
   1a0b8: 1b 88 05 00  	sext.w	a6, a1
   1a0bc: 41 47        	li	a4, 0x10
   1a0be: 9d 46        	li	a3, 0x7
   1a0c0: 39 bf        	j	0x19fde <_vfprintf_r+0x14f6>
   1a0c2: 22 65        	ld	a0, 0x8(sp)
   1a0c4: 90 11        	addi	a2, sp, 0xe0
   1a0c6: ca 85        	mv	a1, s2
   1a0c8: ef 00 60 6f  	jal	0x1a7be <__sprint_r>
   1a0cc: 63 1b 05 e8  	bnez	a0, 0x19762 <_vfprintf_r+0xc7a>
   1a0d0: 6a 57        	lw	a4, 0xb8(sp)
   1a0d2: ce 74        	ld	s1, 0xf0(sp)
   1a0d4: 52 84        	mv	s0, s4
   1a0d6: 89 b1        	j	0x19d18 <_vfprintf_r+0x1230>
   1a0d8: b7 07 02 00  	lui	a5, 0x20
   1a0dc: 13 8d 87 b3  	addi	s10, a5, -0x4c8
   1a0e0: f5 b1        	j	0x19dcc <_vfprintf_r+0x12e4>
   1a0e2: 22 65        	ld	a0, 0x8(sp)
   1a0e4: 90 11        	addi	a2, sp, 0xe0
   1a0e6: ca 85        	mv	a1, s2
   1a0e8: ef 00 60 6d  	jal	0x1a7be <__sprint_r>
   1a0ec: 63 1b 05 e6  	bnez	a0, 0x19762 <_vfprintf_r+0xc7a>
   1a0f0: ce 74        	ld	s1, 0xf0(sp)
   1a0f2: 52 84        	mv	s0, s4
   1a0f4: 6f f0 bf 80  	j	0x198fe <_vfprintf_r+0xe16>
   1a0f8: 99 46        	li	a3, 0x6
   1a0fa: dd b4        	j	0x19be0 <_vfprintf_r+0x10f8>
   1a0fc: 82 14        	slli	s1, s1, 0x20
   1a0fe: 81 90        	srli	s1, s1, 0x20
   1a100: b5 b4        	j	0x19b6c <_vfprintf_r+0x1084>
   1a102: 82 14        	slli	s1, s1, 0x20
   1a104: 81 90        	srli	s1, s1, 0x20
   1a106: 3a f0        	sd	a4, 0x20(sp)
   1a108: 85 47        	li	a5, 0x1
   1a10a: 6f e0 bf d5  	j	0x18e64 <_vfprintf_r+0x37c>
   1a10e: a6 87        	mv	a5, s1
   1a110: 6f e0 df ce  	j	0x18dfc <_vfprintf_r+0x314>
   1a114: 82 14        	slli	s1, s1, 0x20
   1a116: 81 90        	srli	s1, s1, 0x20
   1a118: 6f e0 3f d4  	j	0x18e5a <_vfprintf_r+0x372>
   1a11c: c2 67        	ld	a5, 0x10(sp)
   1a11e: 23 10 f7 00  	sh	a5, 0x0(a4)
   1a122: 6f f0 cf bc  	j	0x194ee <_vfprintf_r+0xa06>
   1a126: 22 65        	ld	a0, 0x8(sp)
   1a128: 90 11        	addi	a2, sp, 0xe0
   1a12a: ca 85        	mv	a1, s2
   1a12c: ef 00 20 69  	jal	0x1a7be <__sprint_r>
   1a130: 6f e0 1f c3  	j	0x18d60 <_vfprintf_r+0x278>
   1a134: 93 07 d0 02  	li	a5, 0x2d
   1a138: a3 07 f1 0a  	sb	a5, 0xaf(sp)
   1a13c: 13 07 d0 02  	li	a4, 0x2d
   1a140: 59 bb        	j	0x19ed6 <_vfprintf_r+0x13ee>
   1a142: 22 65        	ld	a0, 0x8(sp)
   1a144: 90 11        	addi	a2, sp, 0xe0
   1a146: ca 85        	mv	a1, s2
   1a148: ef 00 60 67  	jal	0x1a7be <__sprint_r>
   1a14c: 63 1b 05 e0  	bnez	a0, 0x19762 <_vfprintf_r+0xc7a>
   1a150: 6a 57        	lw	a4, 0xb8(sp)
   1a152: 4e 76        	ld	a2, 0xf0(sp)
   1a154: ae 56        	lw	a3, 0xe8(sp)
   1a156: 52 84        	mv	s0, s4
   1a158: ed b1        	j	0x19e42 <_vfprintf_r+0x135a>
   1a15a: 22 65        	ld	a0, 0x8(sp)
   1a15c: 9b 05 1b 00  	addiw	a1, s6, 0x1
   1a160: 3a f8        	sd	a4, 0x30(sp)
   1a162: 1a ec        	sd	t1, 0x18(sp)
   1a164: ef 90 5f d0  	jal	0x13e68 <_malloc_r>
   1a168: 62 63        	ld	t1, 0x18(sp)
   1a16a: 42 77        	ld	a4, 0x30(sp)
   1a16c: 2a 8d        	mv	s10, a0
   1a16e: 63 06 05 4c  	beqz	a0, 0x1a63a <_vfprintf_r+0x1b52>
   1a172: 2a ec        	sd	a0, 0x18(sp)
   1a174: ba 8d        	mv	s11, a4
   1a176: 6f e0 1f db  	j	0x18f26 <_vfprintf_r+0x43e>
   1a17a: c2 75        	ld	a1, 0x30(sp)
   1a17c: 22 65        	ld	a0, 0x8(sp)
   1a17e: 5a 87        	mv	a4, s6
   1a180: 93 08 81 0c  	addi	a7, sp, 0xc8
   1a184: 13 08 c1 0b  	addi	a6, sp, 0xbc
   1a188: 3c 19        	addi	a5, sp, 0xb8
   1a18a: 89 46        	li	a3, 0x2
   1a18c: 66 86        	mv	a2, s9
   1a18e: ef 10 50 74  	jal	0x1c0d2 <_ldtoa_r>
   1a192: 62 73        	ld	t1, 0x38(sp)
   1a194: 13 07 70 04  	li	a4, 0x47
   1a198: 2a 8d        	mv	s10, a0
   1a19a: 63 18 e3 4a  	bne	t1, a4, 0x1a64a <_vfprintf_r+0x1b62>
   1a19e: 13 f7 1d 00  	andi	a4, s11, 0x1
   1a1a2: 63 1e 07 1a  	bnez	a4, 0x1a35e <_vfprintf_r+0x1876>
   1a1a6: ea 57        	lw	a5, 0xb8(sp)
   1a1a8: 3e f8        	sd	a5, 0x30(sp)
   1a1aa: ae 67        	ld	a5, 0xc8(sp)
   1a1ac: bb 87 a7 41  	subw	a5, a5, s10
   1a1b0: 3e fc        	sd	a5, 0x38(sp)
   1a1b2: c2 77        	ld	a5, 0x30(sp)
   1a1b4: 75 57        	li	a4, -0x3
   1a1b6: 63 c4 e7 00  	blt	a5, a4, 0x1a1be <_vfprintf_r+0x16d6>
   1a1ba: 63 57 fb 0c  	bge	s6, a5, 0x1a288 <_vfprintf_r+0x17a0>
   1a1be: c2 77        	ld	a5, 0x30(sp)
   1a1c0: 79 33        	addiw	t1, t1, -0x2
   1a1c2: 1b 87 f7 ff  	addiw	a4, a5, -0x1
   1a1c6: 3a dd        	sw	a4, 0xb8(sp)
   1a1c8: 93 76 f3 0f  	andi	a3, t1, 0xff
   1a1cc: 01 46        	li	a2, 0x0
   1a1ce: 6f e0 3f f2  	j	0x190f0 <_vfprintf_r+0x608>
   1a1d2: c2 77        	ld	a5, 0x30(sp)
   1a1d4: 83 c5 a7 00  	lbu	a1, 0xa(a5)
   1a1d8: a3 8f b6 fe  	sb	a1, -0x1(a3)
   1a1dc: 6f e0 5f ee  	j	0x190c0 <_vfprintf_r+0x5d8>
   1a1e0: 03 47 f1 0a  	lbu	a4, 0xaf(sp)
   1a1e4: 01 4b        	li	s6, 0x0
   1a1e6: 19 c3        	beqz	a4, 0x1a1ec <_vfprintf_r+0x1704>
   1a1e8: 6f e0 7f c5  	j	0x18e3e <_vfprintf_r+0x356>
   1a1ec: 6f e0 df a9  	j	0x18c88 <_vfprintf_r+0x1a0>
   1a1f0: 5a 87        	mv	a4, s6
   1a1f2: 8d 46        	li	a3, 0x3
   1a1f4: c2 75        	ld	a1, 0x30(sp)
   1a1f6: 22 65        	ld	a0, 0x8(sp)
   1a1f8: 93 08 81 0c  	addi	a7, sp, 0xc8
   1a1fc: 13 08 c1 0b  	addi	a6, sp, 0xbc
   1a200: 3c 19        	addi	a5, sp, 0xb8
   1a202: 66 86        	mv	a2, s9
   1a204: 9a e0        	sd	t1, 0x40(sp)
   1a206: 3a fc        	sd	a4, 0x38(sp)
   1a208: ef 10 b0 6c  	jal	0x1c0d2 <_ldtoa_r>
   1a20c: 62 77        	ld	a4, 0x38(sp)
   1a20e: 06 63        	ld	t1, 0x40(sp)
   1a210: 2a 8d        	mv	s10, a0
   1a212: 13 7c f3 fd  	andi	s8, t1, -0x21
   1a216: 93 06 60 04  	li	a3, 0x46
   1a21a: 33 08 ed 00  	add	a6, s10, a4
   1a21e: 63 1a dc 00  	bne	s8, a3, 0x1a232 <_vfprintf_r+0x174a>
   1a222: 03 46 0d 00  	lbu	a2, 0x0(s10)
   1a226: 93 06 00 03  	li	a3, 0x30
   1a22a: 63 07 d6 30  	beq	a2, a3, 0x1a538 <_vfprintf_r+0x1a50>
   1a22e: ea 56        	lw	a3, 0xb8(sp)
   1a230: 36 98        	add	a6, a6, a3
   1a232: 42 75        	ld	a0, 0x30(sp)
   1a234: 01 46        	li	a2, 0x0
   1a236: 81 46        	li	a3, 0x0
   1a238: e6 85        	mv	a1, s9
   1a23a: c2 e0        	sd	a6, 0x40(sp)
   1a23c: 1a fc        	sd	t1, 0x38(sp)
   1a23e: ef 30 d0 75  	jal	0x1e19a <__netf2>
   1a242: 62 73        	ld	t1, 0x38(sp)
   1a244: 06 68        	ld	a6, 0x40(sp)
   1a246: 63 01 05 12  	beqz	a0, 0x1a368 <_vfprintf_r+0x1880>
   1a24a: ae 67        	ld	a5, 0xc8(sp)
   1a24c: 63 fc 07 01  	bgeu	a5, a6, 0x1a264 <_vfprintf_r+0x177c>
   1a250: 93 06 00 03  	li	a3, 0x30
   1a254: 13 87 17 00  	addi	a4, a5, 0x1
   1a258: ba e5        	sd	a4, 0xc8(sp)
   1a25a: 23 80 d7 00  	sb	a3, 0x0(a5)
   1a25e: ae 67        	ld	a5, 0xc8(sp)
   1a260: e3 ea 07 ff  	bltu	a5, a6, 0x1a254 <_vfprintf_r+0x176c>
   1a264: 6a 57        	lw	a4, 0xb8(sp)
   1a266: 3a f8        	sd	a4, 0x30(sp)
   1a268: bb 87 a7 41  	subw	a5, a5, s10
   1a26c: 13 07 70 04  	li	a4, 0x47
   1a270: 3e fc        	sd	a5, 0x38(sp)
   1a272: e3 00 ec f4  	beq	s8, a4, 0x1a1b2 <_vfprintf_r+0x16ca>
   1a276: 13 07 60 04  	li	a4, 0x46
   1a27a: 63 0d ec 18  	beq	s8, a4, 0x1a414 <_vfprintf_r+0x192c>
   1a27e: c2 77        	ld	a5, 0x30(sp)
   1a280: 1b 87 f7 ff  	addiw	a4, a5, -0x1
   1a284: 3a dd        	sw	a4, 0xb8(sp)
   1a286: 89 b7        	j	0x1a1c8 <_vfprintf_r+0x16e0>
   1a288: e2 77        	ld	a5, 0x38(sp)
   1a28a: 42 77        	ld	a4, 0x30(sp)
   1a28c: 63 4d f7 14  	blt	a4, a5, 0x1a3e6 <_vfprintf_r+0x18fe>
   1a290: c2 77        	ld	a5, 0x30(sp)
   1a292: 13 f7 1d 00  	andi	a4, s11, 0x1
   1a296: be 86        	mv	a3, a5
   1a298: 01 c7        	beqz	a4, 0x1a2a0 <_vfprintf_r+0x17b8>
   1a29a: 46 67        	ld	a4, 0x50(sp)
   1a29c: bb 06 f7 00  	addw	a3, a4, a5
   1a2a0: 13 fe 0d 40  	andi	t3, s11, 0x400
   1a2a4: 63 05 0e 00  	beqz	t3, 0x1a2ae <_vfprintf_r+0x17c6>
   1a2a8: c2 77        	ld	a5, 0x30(sp)
   1a2aa: 63 42 f0 22  	bgtz	a5, 0x1a4ce <_vfprintf_r+0x19e6>
   1a2ae: 13 c8 f6 ff  	not	a6, a3
   1a2b2: 13 58 f8 43  	srai	a6, a6, 0x3f
   1a2b6: 33 f8 06 01  	and	a6, a3, a6
   1a2ba: 1b 0c 08 00  	sext.w	s8, a6
   1a2be: a6 8d        	mv	s11, s1
   1a2c0: 13 03 70 06  	li	t1, 0x67
   1a2c4: 82 e4        	sd	zero, 0x48(sp)
   1a2c6: 82 e0        	sd	zero, 0x40(sp)
   1a2c8: 6f e0 1f ee  	j	0x191a8 <_vfprintf_r+0x6c0>
   1a2cc: ba 8d        	mv	s11, a4
   1a2ce: 02 ec        	sd	zero, 0x18(sp)
   1a2d0: 13 0d 81 0f  	addi	s10, sp, 0xf8
   1a2d4: 7d 57        	li	a4, -0x1
   1a2d6: 7e 17        	slli	a4, a4, 0x3f
   1a2d8: 93 07 d0 02  	li	a5, 0x2d
   1a2dc: b3 cc ec 00  	xor	s9, s9, a4
   1a2e0: be f4        	sd	a5, 0x68(sp)
   1a2e2: 6f e0 df c5  	j	0x18f3e <_vfprintf_r+0x456>
   1a2e6: 90 11        	addi	a2, sp, 0xe0
   1a2e8: ca 85        	mv	a1, s2
   1a2ea: 4e 85        	mv	a0, s3
   1a2ec: ef 00 20 4d  	jal	0x1a7be <__sprint_r>
   1a2f0: 63 19 05 c6  	bnez	a0, 0x19762 <_vfprintf_r+0xc7a>
   1a2f4: 83 45 0c 00  	lbu	a1, 0x0(s8)
   1a2f8: 4e 76        	ld	a2, 0xf0(sp)
   1a2fa: d2 87        	mv	a5, s4
   1a2fc: 41 47        	li	a4, 0x10
   1a2fe: 9d 46        	li	a3, 0x7
   1a300: 2e 9d        	add	s10, s10, a1
   1a302: c5 b9        	j	0x19ff2 <_vfprintf_r+0x150a>
   1a304: 93 07 d0 02  	li	a5, 0x2d
   1a308: a3 07 f1 0a  	sb	a5, 0xaf(sp)
   1a30c: 13 07 d0 02  	li	a4, 0x2d
   1a310: 75 b4        	j	0x19dbc <_vfprintf_r+0x12d4>
   1a312: da 88        	mv	a7, s6
   1a314: 4a 8b        	mv	s6, s2
   1a316: 4e 89        	mv	s2, s3
   1a318: c2 79        	ld	s3, 0x30(sp)
   1a31a: a5 b4        	j	0x19d82 <_vfprintf_r+0x129a>
   1a31c: 03 47 f1 0a  	lbu	a4, 0xaf(sp)
   1a320: 26 f0        	sd	s1, 0x20(sp)
   1a322: 82 e4        	sd	zero, 0x48(sp)
   1a324: 82 e0        	sd	zero, 0x40(sp)
   1a326: 02 f8        	sd	zero, 0x30(sp)
   1a328: 5a 8c        	mv	s8, s6
   1a32a: da 86        	mv	a3, s6
   1a32c: 01 4b        	li	s6, 0x0
   1a32e: 19 c3        	beqz	a4, 0x1a334 <_vfprintf_r+0x184c>
   1a330: 6f e0 ff b0  	j	0x18e3e <_vfprintf_r+0x356>
   1a334: 6f e0 5f 95  	j	0x18c88 <_vfprintf_r+0x1a0>
   1a338: c2 75        	ld	a1, 0x30(sp)
   1a33a: 22 65        	ld	a0, 0x8(sp)
   1a33c: 5a 87        	mv	a4, s6
   1a33e: 93 08 81 0c  	addi	a7, sp, 0xc8
   1a342: 13 08 c1 0b  	addi	a6, sp, 0xbc
   1a346: 3c 19        	addi	a5, sp, 0xb8
   1a348: 89 46        	li	a3, 0x2
   1a34a: 66 86        	mv	a2, s9
   1a34c: 1a fc        	sd	t1, 0x38(sp)
   1a34e: ef 10 50 58  	jal	0x1c0d2 <_ldtoa_r>
   1a352: 13 f7 1d 00  	andi	a4, s11, 0x1
   1a356: 62 73        	ld	t1, 0x38(sp)
   1a358: 2a 8d        	mv	s10, a0
   1a35a: e3 06 07 e4  	beqz	a4, 0x1a1a6 <_vfprintf_r+0x16be>
   1a35e: 33 08 6d 01  	add	a6, s10, s6
   1a362: 13 0c 70 04  	li	s8, 0x47
   1a366: f1 b5        	j	0x1a232 <_vfprintf_r+0x174a>
   1a368: ea 57        	lw	a5, 0xb8(sp)
   1a36a: 3e f8        	sd	a5, 0x30(sp)
   1a36c: c2 87        	mv	a5, a6
   1a36e: ed bd        	j	0x1a268 <_vfprintf_r+0x1780>
   1a370: 22 65        	ld	a0, 0x8(sp)
   1a372: 90 11        	addi	a2, sp, 0xe0
   1a374: ca 85        	mv	a1, s2
   1a376: ef 00 80 44  	jal	0x1a7be <__sprint_r>
   1a37a: 63 14 05 be  	bnez	a0, 0x19762 <_vfprintf_r+0xc7a>
   1a37e: ea 56        	lw	a3, 0xb8(sp)
   1a380: e2 77        	ld	a5, 0x38(sp)
   1a382: ce 74        	ld	s1, 0xf0(sp)
   1a384: 52 84        	mv	s0, s4
   1a386: bb 86 d7 40  	subw	a3, a5, a3
   1a38a: 6f f0 ef dd  	j	0x19968 <_vfprintf_r+0xe80>
   1a38e: b7 07 02 00  	lui	a5, 0x20
   1a392: 13 8d 07 b5  	addi	s10, a5, -0x4b0
   1a396: 1d bc        	j	0x19dcc <_vfprintf_r+0x12e4>
   1a398: b7 08 02 00  	lui	a7, 0x20
   1a39c: c1 55        	li	a1, -0x10
   1a39e: 3b 0b e0 40  	negw	s6, a4
   1a3a2: 93 88 88 1b  	addi	a7, a7, 0x1b8
   1a3a6: 63 51 b7 0a  	bge	a4, a1, 0x1a448 <_vfprintf_r+0x1960>
   1a3aa: 4e f8        	sd	s3, 0x30(sp)
   1a3ac: c1 4c        	li	s9, 0x10
   1a3ae: 9d 44        	li	s1, 0x7
   1a3b0: c6 89        	mv	s3, a7
   1a3b2: 21 a0        	j	0x1a3ba <_vfprintf_r+0x18d2>
   1a3b4: 41 3b        	addiw	s6, s6, -0x10
   1a3b6: 63 d7 6c 09  	bge	s9, s6, 0x1a444 <_vfprintf_r+0x195c>
   1a3ba: 85 26        	addiw	a3, a3, 0x1
   1a3bc: 41 06        	addi	a2, a2, 0x10
   1a3be: 23 30 34 01  	sd	s3, 0x0(s0)
   1a3c2: 23 34 94 01  	sd	s9, 0x8(s0)
   1a3c6: b2 f9        	sd	a2, 0xf0(sp)
   1a3c8: b6 d5        	sw	a3, 0xe8(sp)
   1a3ca: 41 04        	addi	s0, s0, 0x10
   1a3cc: e3 d4 d4 fe  	bge	s1, a3, 0x1a3b4 <_vfprintf_r+0x18cc>
   1a3d0: 22 65        	ld	a0, 0x8(sp)
   1a3d2: 90 11        	addi	a2, sp, 0xe0
   1a3d4: ca 85        	mv	a1, s2
   1a3d6: ef 00 80 3e  	jal	0x1a7be <__sprint_r>
   1a3da: 63 14 05 b8  	bnez	a0, 0x19762 <_vfprintf_r+0xc7a>
   1a3de: 4e 76        	ld	a2, 0xf0(sp)
   1a3e0: ae 56        	lw	a3, 0xe8(sp)
   1a3e2: 52 84        	mv	s0, s4
   1a3e4: c1 bf        	j	0x1a3b4 <_vfprintf_r+0x18cc>
   1a3e6: c6 67        	ld	a5, 0x50(sp)
   1a3e8: 62 77        	ld	a4, 0x38(sp)
   1a3ea: 13 03 70 06  	li	t1, 0x67
   1a3ee: bb 86 e7 00  	addw	a3, a5, a4
   1a3f2: c2 77        	ld	a5, 0x30(sp)
   1a3f4: 63 5d f0 16  	blez	a5, 0x1a56e <_vfprintf_r+0x1a86>
   1a3f8: 13 fe 0d 40  	andi	t3, s11, 0x400
   1a3fc: 63 1b 0e 0c  	bnez	t3, 0x1a4d2 <_vfprintf_r+0x19ea>
   1a400: 13 c8 f6 ff  	not	a6, a3
   1a404: 13 58 f8 43  	srai	a6, a6, 0x3f
   1a408: 33 f8 06 01  	and	a6, a3, a6
   1a40c: 1b 0c 08 00  	sext.w	s8, a6
   1a410: a6 8d        	mv	s11, s1
   1a412: 4d bd        	j	0x1a2c4 <_vfprintf_r+0x17dc>
   1a414: c2 77        	ld	a5, 0x30(sp)
   1a416: 13 f7 1d 00  	andi	a4, s11, 0x1
   1a41a: 33 67 eb 00  	or	a4, s6, a4
   1a41e: 63 54 f0 1c  	blez	a5, 0x1a5e6 <_vfprintf_r+0x1afe>
   1a422: 63 1f 07 12  	bnez	a4, 0x1a560 <_vfprintf_r+0x1a78>
   1a426: c2 76        	ld	a3, 0x30(sp)
   1a428: 13 03 60 06  	li	t1, 0x66
   1a42c: f1 b7        	j	0x1a3f8 <_vfprintf_r+0x1910>
   1a42e: fd 57        	li	a5, -0x1
   1a430: 3e e8        	sd	a5, 0x10(sp)
   1a432: 6f e0 df 95  	j	0x18d8e <_vfprintf_r+0x2a6>
   1a436: ee 8c        	mv	s9, s11
   1a438: 6f f0 8f b4  	j	0x19780 <_vfprintf_r+0xc98>
   1a43c: 1b 07 1b 00  	addiw	a4, s6, 0x1
   1a440: 89 46        	li	a3, 0x2
   1a442: 4d bb        	j	0x1a1f4 <_vfprintf_r+0x170c>
   1a444: ce 88        	mv	a7, s3
   1a446: c2 79        	ld	s3, 0x30(sp)
   1a448: 85 26        	addiw	a3, a3, 0x1
   1a44a: 5a 96        	add	a2, a2, s6
   1a44c: 23 30 14 01  	sd	a7, 0x0(s0)
   1a450: 23 34 64 01  	sd	s6, 0x8(s0)
   1a454: b2 f9        	sd	a2, 0xf0(sp)
   1a456: b6 d5        	sw	a3, 0xe8(sp)
   1a458: 1d 47        	li	a4, 0x7
   1a45a: e3 56 d7 8e  	bge	a4, a3, 0x19d46 <_vfprintf_r+0x125e>
   1a45e: 22 65        	ld	a0, 0x8(sp)
   1a460: 90 11        	addi	a2, sp, 0xe0
   1a462: ca 85        	mv	a1, s2
   1a464: ef 00 a0 35  	jal	0x1a7be <__sprint_r>
   1a468: 63 1d 05 ae  	bnez	a0, 0x19762 <_vfprintf_r+0xc7a>
   1a46c: 4e 76        	ld	a2, 0xf0(sp)
   1a46e: ae 56        	lw	a3, 0xe8(sp)
   1a470: 52 84        	mv	s0, s4
   1a472: d1 ba        	j	0x19e46 <_vfprintf_r+0x135e>
   1a474: 93 06 21 0c  	addi	a3, sp, 0xc2
   1a478: 19 e6        	bnez	a2, 0x1a486 <_vfprintf_r+0x199e>
   1a47a: 93 06 00 03  	li	a3, 0x30
   1a47e: 23 01 d1 0c  	sb	a3, 0xc2(sp)
   1a482: 93 06 31 0c  	addi	a3, sp, 0xc3
   1a486: 9c 13        	addi	a5, sp, 0x1e0
   1a488: 33 86 f6 40  	sub	a2, a3, a5
   1a48c: 1b 07 07 03  	addiw	a4, a4, 0x30
   1a490: 9b 07 16 12  	addiw	a5, a2, 0x121
   1a494: 23 80 e6 00  	sb	a4, 0x0(a3)
   1a498: be f8        	sd	a5, 0x70(sp)
   1a49a: 6f e0 5f cd  	j	0x1916e <_vfprintf_r+0x686>
   1a49e: 02 ec        	sd	zero, 0x18(sp)
   1a4a0: 19 4b        	li	s6, 0x6
   1a4a2: 6f e0 5f a8  	j	0x18f26 <_vfprintf_r+0x43e>
   1a4a6: 63 04 0b 00  	beqz	s6, 0x1a4ae <_vfprintf_r+0x19c6>
   1a4aa: 6f e0 df a7  	j	0x18f26 <_vfprintf_r+0x43e>
   1a4ae: 05 4b        	li	s6, 0x1
   1a4b0: 6f e0 7f a7  	j	0x18f26 <_vfprintf_r+0x43e>
   1a4b4: 13 f6 1d 00  	andi	a2, s11, 0x1
   1a4b8: 19 e2        	bnez	a2, 0x1a4be <_vfprintf_r+0x19d6>
   1a4ba: 6f e0 ff cc  	j	0x19188 <_vfprintf_r+0x6a0>
   1a4be: 6f e0 5f cc  	j	0x19182 <_vfprintf_r+0x69a>
   1a4c2: 3a f0        	sd	a4, 0x20(sp)
   1a4c4: 6f f0 cf ab  	j	0x19780 <_vfprintf_r+0xc98>
   1a4c8: 1c c3        	sw	a5, 0x0(a4)
   1a4ca: 6f f0 4f 82  	j	0x194ee <_vfprintf_r+0xa06>
   1a4ce: 13 03 70 06  	li	t1, 0x67
   1a4d2: 8a 67        	ld	a5, 0x80(sp)
   1a4d4: 13 06 f0 0f  	li	a2, 0xff
   1a4d8: 03 c7 07 00  	lbu	a4, 0x0(a5)
   1a4dc: 63 09 c7 16  	beq	a4, a2, 0x1a64e <_vfprintf_r+0x1b66>
   1a4e0: 3e 86        	mv	a2, a5
   1a4e2: c2 77        	ld	a5, 0x30(sp)
   1a4e4: 81 48        	li	a7, 0x0
   1a4e6: 01 48        	li	a6, 0x0
   1a4e8: 93 05 f0 0f  	li	a1, 0xff
   1a4ec: 1b 05 07 00  	sext.w	a0, a4
   1a4f0: 63 5a f7 00  	bge	a4, a5, 0x1a504 <_vfprintf_r+0x1a1c>
   1a4f4: 03 47 16 00  	lbu	a4, 0x1(a2)
   1a4f8: 89 9f        	subw	a5, a5, a0
   1a4fa: 1d cb        	beqz	a4, 0x1a530 <_vfprintf_r+0x1a48>
   1a4fc: 05 28        	addiw	a6, a6, 0x1
   1a4fe: 05 06        	addi	a2, a2, 0x1
   1a500: e3 16 b7 fe  	bne	a4, a1, 0x1a4ec <_vfprintf_r+0x1a04>
   1a504: 32 e1        	sd	a2, 0x80(sp)
   1a506: c2 e0        	sd	a6, 0x40(sp)
   1a508: c6 e4        	sd	a7, 0x48(sp)
   1a50a: 3e f8        	sd	a5, 0x30(sp)
   1a50c: a6 67        	ld	a5, 0x48(sp)
   1a50e: 06 67        	ld	a4, 0x40(sp)
   1a510: a6 8d        	mv	s11, s1
   1a512: 3d 9f        	addw	a4, a4, a5
   1a514: aa 67        	ld	a5, 0x88(sp)
   1a516: 3b 07 f7 02  	mulw	a4, a4, a5
   1a51a: 35 9f        	addw	a4, a4, a3
   1a51c: 9b 06 07 00  	sext.w	a3, a4
   1a520: 13 c6 f6 ff  	not	a2, a3
   1a524: 7d 96        	srai	a2, a2, 0x3f
   1a526: 71 8f        	and	a4, a4, a2
   1a528: 1b 0c 07 00  	sext.w	s8, a4
   1a52c: 6f e0 df c7  	j	0x191a8 <_vfprintf_r+0x6c0>
   1a530: 03 47 06 00  	lbu	a4, 0x0(a2)
   1a534: 85 28        	addiw	a7, a7, 0x1
   1a536: e9 b7        	j	0x1a500 <_vfprintf_r+0x1a18>
   1a538: 42 75        	ld	a0, 0x30(sp)
   1a53a: 01 46        	li	a2, 0x0
   1a53c: 81 46        	li	a3, 0x0
   1a53e: e6 85        	mv	a1, s9
   1a540: c2 e4        	sd	a6, 0x48(sp)
   1a542: 9a e0        	sd	t1, 0x40(sp)
   1a544: 3a fc        	sd	a4, 0x38(sp)
   1a546: ef 30 50 45  	jal	0x1e19a <__netf2>
   1a54a: 62 77        	ld	a4, 0x38(sp)
   1a54c: 06 63        	ld	t1, 0x40(sp)
   1a54e: 26 68        	ld	a6, 0x48(sp)
   1a550: 59 e5        	bnez	a0, 0x1a5de <_vfprintf_r+0x1af6>
   1a552: ea 57        	lw	a5, 0xb8(sp)
   1a554: 3e 98        	add	a6, a6, a5
   1a556: 3e f8        	sd	a5, 0x30(sp)
   1a558: bb 07 a8 41  	subw	a5, a6, s10
   1a55c: 3e fc        	sd	a5, 0x38(sp)
   1a55e: 21 bb        	j	0x1a276 <_vfprintf_r+0x178e>
   1a560: 46 67        	ld	a4, 0x50(sp)
   1a562: 13 03 60 06  	li	t1, 0x66
   1a566: bb 06 67 01  	addw	a3, a4, s6
   1a56a: bd 9e        	addw	a3, a3, a5
   1a56c: 71 b5        	j	0x1a3f8 <_vfprintf_r+0x1910>
   1a56e: 3b 87 f6 40  	subw	a4, a3, a5
   1a572: 05 27        	addiw	a4, a4, 0x1
   1a574: 9b 06 07 00  	sext.w	a3, a4
   1a578: 13 c6 f6 ff  	not	a2, a3
   1a57c: 7d 96        	srai	a2, a2, 0x3f
   1a57e: 71 8f        	and	a4, a4, a2
   1a580: 1b 0c 07 00  	sext.w	s8, a4
   1a584: a6 8d        	mv	s11, s1
   1a586: 3d bb        	j	0x1a2c4 <_vfprintf_r+0x17dc>
   1a588: 4a 68        	ld	a6, 0x90(sp)
   1a58a: 62 89        	mv	s2, s8
   1a58c: 4e 8c        	mv	s8, s3
   1a58e: bb 06 0d 01  	addw	a3, s10, a6
   1a592: bb 86 86 41  	subw	a3, a3, s8
   1a596: 13 96 06 02  	slli	a2, a3, 0x20
   1a59a: 06 63        	ld	t1, 0x40(sp)
   1a59c: a6 6b        	ld	s7, 0x48(sp)
   1a59e: 46 74        	ld	s0, 0x70(sp)
   1a5a0: e2 79        	ld	s3, 0x38(sp)
   1a5a2: 63 54 06 00  	bgez	a2, 0x1a5aa <_vfprintf_r+0x1ac2>
   1a5a6: 6f e0 bf b1  	j	0x190c0 <_vfprintf_r+0x5d8>
   1a5aa: 85 26        	addiw	a3, a3, 0x1
   1a5ac: e2 96        	add	a3, a3, s8
   1a5ae: 13 06 00 03  	li	a2, 0x30
   1a5b2: 05 0c        	addi	s8, s8, 0x1
   1a5b4: a3 0f cc fe  	sb	a2, -0x1(s8)
   1a5b8: e3 1d dc fe  	bne	s8, a3, 0x1a5b2 <_vfprintf_r+0x1aca>
   1a5bc: 6f e0 7f b0  	j	0x190c2 <_vfprintf_r+0x5da>
   1a5c0: e2 65        	ld	a1, 0x18(sp)
   1a5c2: 4e 89        	mv	s2, s3
   1a5c4: 6f f0 0f 9a  	j	0x19764 <_vfprintf_r+0xc7c>
   1a5c8: 37 07 02 00  	lui	a4, 0x20
   1a5cc: 93 07 87 b5  	addi	a5, a4, -0x4a8
   1a5d0: 3e f8        	sd	a5, 0x30(sp)
   1a5d2: 6f e0 ff 9e  	j	0x18fc0 <_vfprintf_r+0x4d8>
   1a5d6: 93 06 00 07  	li	a3, 0x70
   1a5da: 6f e0 5f b1  	j	0x190ee <_vfprintf_r+0x606>
   1a5de: 85 46        	li	a3, 0x1
   1a5e0: 99 9e        	subw	a3, a3, a4
   1a5e2: 36 dd        	sw	a3, 0xb8(sp)
   1a5e4: b1 b1        	j	0x1a230 <_vfprintf_r+0x1748>
   1a5e6: 19 e7        	bnez	a4, 0x1a5f4 <_vfprintf_r+0x1b0c>
   1a5e8: a6 8d        	mv	s11, s1
   1a5ea: 05 4c        	li	s8, 0x1
   1a5ec: 13 03 60 06  	li	t1, 0x66
   1a5f0: 85 46        	li	a3, 0x1
   1a5f2: c9 b9        	j	0x1a2c4 <_vfprintf_r+0x17dc>
   1a5f4: c6 67        	ld	a5, 0x50(sp)
   1a5f6: a6 8d        	mv	s11, s1
   1a5f8: 13 03 60 06  	li	t1, 0x66
   1a5fc: 1b 87 17 00  	addiw	a4, a5, 0x1
   1a600: 3b 07 67 01  	addw	a4, a4, s6
   1a604: 9b 06 07 00  	sext.w	a3, a4
   1a608: 13 c6 f6 ff  	not	a2, a3
   1a60c: 7d 96        	srai	a2, a2, 0x3f
   1a60e: 71 8f        	and	a4, a4, a2
   1a610: 1b 0c 07 00  	sext.w	s8, a4
   1a614: 45 b9        	j	0x1a2c4 <_vfprintf_r+0x17dc>
   1a616: 89 47        	li	a5, 0x2
   1a618: be f8        	sd	a5, 0x70(sp)
   1a61a: 6f e0 5f b5  	j	0x1916e <_vfprintf_r+0x686>
   1a61e: 82 76        	ld	a3, 0x20(sp)
   1a620: 9c 42        	lw	a5, 0x0(a3)
   1a622: a1 06        	addi	a3, a3, 0x8
   1a624: 1b 8b 07 00  	sext.w	s6, a5
   1a628: 63 d3 07 00  	bgez	a5, 0x1a62e <_vfprintf_r+0x1b46>
   1a62c: 7d 5b        	li	s6, -0x1
   1a62e: 03 c3 19 00  	lbu	t1, 0x1(s3)
   1a632: 36 f0        	sd	a3, 0x20(sp)
   1a634: ba 89        	mv	s3, a4
   1a636: 6f e0 ef dd  	j	0x18c14 <_vfprintf_r+0x12c>
   1a63a: 83 57 09 01  	lhu	a5, 0x10(s2)
   1a63e: 93 e7 07 04  	ori	a5, a5, 0x40
   1a642: 23 18 f9 00  	sh	a5, 0x10(s2)
   1a646: 6f e0 af f1  	j	0x18d60 <_vfprintf_r+0x278>
   1a64a: 5a 87        	mv	a4, s6
   1a64c: d9 b6        	j	0x1a212 <_vfprintf_r+0x172a>
   1a64e: 82 e4        	sd	zero, 0x48(sp)
   1a650: 82 e0        	sd	zero, 0x40(sp)
   1a652: 6d bd        	j	0x1a50c <_vfprintf_r+0x1a24>

000000000001a654 <vfprintf>:
   1a654: aa 87        	mv	a5, a0
   1a656: 03 b5 01 23  	ld	a0, 0x230(gp)
   1a65a: b2 86        	mv	a3, a2
   1a65c: 2e 86        	mv	a2, a1
   1a65e: be 85        	mv	a1, a5
   1a660: 6f e0 8f c8  	j	0x18ae8 <_vfprintf_r>

000000000001a664 <__sbprintf>:
   1a664: 13 01 01 b3  	addi	sp, sp, -0x4d0
   1a668: 03 d7 25 01  	lhu	a4, 0x12(a1)
   1a66c: 83 d7 05 01  	lhu	a5, 0x10(a1)
   1a670: 23 30 81 4c  	sd	s0, 0x4c0(sp)
   1a674: 2e 84        	mv	s0, a1
   1a676: c1 65        	lui	a1, 0x10
   1a678: f5 35        	addiw	a1, a1, -0x3
   1a67a: 03 2e c4 0a  	lw	t3, 0xac(s0)
   1a67e: 03 33 04 03  	ld	t1, 0x30(s0)
   1a682: 83 38 04 04  	ld	a7, 0x40(s0)
   1a686: 1b 17 07 01  	slliw	a4, a4, 0x10
   1a68a: ed 8f        	and	a5, a5, a1
   1a68c: d9 8f        	or	a5, a5, a4
   1a68e: 13 08 00 40  	li	a6, 0x400
   1a692: 3e c8        	sw	a5, 0x10(sp)
   1a694: 8a 85        	mv	a1, sp
   1a696: 1c 19        	addi	a5, sp, 0xb0
   1a698: 23 3c 91 4a  	sd	s1, 0x4b8(sp)
   1a69c: 23 38 21 4b  	sd	s2, 0x4b0(sp)
   1a6a0: 23 34 11 4c  	sd	ra, 0x4c8(sp)
   1a6a4: 2a 89        	mv	s2, a0
   1a6a6: 72 d7        	sw	t3, 0xac(sp)
   1a6a8: 1a f8        	sd	t1, 0x30(sp)
   1a6aa: c6 e0        	sd	a7, 0x40(sp)
   1a6ac: 3e e0        	sd	a5, 0x0(sp)
   1a6ae: 3e ec        	sd	a5, 0x18(sp)
   1a6b0: 42 c6        	sw	a6, 0xc(sp)
   1a6b2: 42 d0        	sw	a6, 0x20(sp)
   1a6b4: 02 d4        	sw	zero, 0x28(sp)
   1a6b6: ef e0 2f c3  	jal	0x18ae8 <_vfprintf_r>
   1a6ba: aa 84        	mv	s1, a0
   1a6bc: 63 59 05 02  	bgez	a0, 0x1a6ee <__sbprintf+0x8a>
   1a6c0: 83 57 01 01  	lhu	a5, 0x10(sp)
   1a6c4: 93 f7 07 04  	andi	a5, a5, 0x40
   1a6c8: 99 c7        	beqz	a5, 0x1a6d6 <__sbprintf+0x72>
   1a6ca: 83 57 04 01  	lhu	a5, 0x10(s0)
   1a6ce: 93 e7 07 04  	ori	a5, a5, 0x40
   1a6d2: 23 18 f4 00  	sh	a5, 0x10(s0)
   1a6d6: 83 30 81 4c  	ld	ra, 0x4c8(sp)
   1a6da: 03 34 01 4c  	ld	s0, 0x4c0(sp)
   1a6de: 03 39 01 4b  	ld	s2, 0x4b0(sp)
   1a6e2: 26 85        	mv	a0, s1
   1a6e4: 83 34 81 4b  	ld	s1, 0x4b8(sp)
   1a6e8: 13 01 01 4d  	addi	sp, sp, 0x4d0
   1a6ec: 82 80        	ret
   1a6ee: 8a 85        	mv	a1, sp
   1a6f0: 4a 85        	mv	a0, s2
   1a6f2: ef b0 2f 9b  	jal	0x158a4 <_fflush_r>
   1a6f6: 69 d5        	beqz	a0, 0x1a6c0 <__sbprintf+0x5c>
   1a6f8: fd 54        	li	s1, -0x1
   1a6fa: d9 b7        	j	0x1a6c0 <__sbprintf+0x5c>

000000000001a6fc <__sprint_r.part.0>:
   1a6fc: 83 a7 c5 0a  	lw	a5, 0xac(a1)
   1a700: 5d 71        	addi	sp, sp, -0x50
   1a702: 56 ec        	sd	s5, 0x18(sp)
   1a704: 86 e4        	sd	ra, 0x48(sp)
   1a706: 13 97 27 03  	slli	a4, a5, 0x32
   1a70a: b2 8a        	mv	s5, a2
   1a70c: 63 5f 07 08  	bgez	a4, 0x1a7aa <__sprint_r.part.0+0xae>
   1a710: 1c 6a        	ld	a5, 0x10(a2)
   1a712: 4a f8        	sd	s2, 0x30(sp)
   1a714: 4e f4        	sd	s3, 0x28(sp)
   1a716: 52 f0        	sd	s4, 0x20(sp)
   1a718: 5a e8        	sd	s6, 0x10(sp)
   1a71a: 2e 89        	mv	s2, a1
   1a71c: 03 3b 06 00  	ld	s6, 0x0(a2)
   1a720: aa 89        	mv	s3, a0
   1a722: 7d 5a        	li	s4, -0x1
   1a724: ad cf        	beqz	a5, 0x1a79e <__sprint_r.part.0+0xa2>
   1a726: a2 e0        	sd	s0, 0x40(sp)
   1a728: 26 fc        	sd	s1, 0x38(sp)
   1a72a: 5e e4        	sd	s7, 0x8(sp)
   1a72c: 83 34 8b 00  	ld	s1, 0x8(s6)
   1a730: 03 34 0b 00  	ld	s0, 0x0(s6)
   1a734: 89 80        	srli	s1, s1, 0x2
   1a736: 9b 8b 04 00  	sext.w	s7, s1
   1a73a: 63 58 70 05  	blez	s7, 0x1a78a <__sprint_r.part.0+0x8e>
   1a73e: fd 34        	addiw	s1, s1, -0x1
   1a740: 93 97 04 02  	slli	a5, s1, 0x20
   1a744: 93 d4 e7 01  	srli	s1, a5, 0x1e
   1a748: 93 07 44 00  	addi	a5, s0, 0x4
   1a74c: be 94        	add	s1, s1, a5
   1a74e: 19 a0        	j	0x1a754 <__sprint_r.part.0+0x58>
   1a750: 63 8b 84 02  	beq	s1, s0, 0x1a786 <__sprint_r.part.0+0x8a>
   1a754: 0c 40        	lw	a1, 0x0(s0)
   1a756: 4a 86        	mv	a2, s2
   1a758: 4e 85        	mv	a0, s3
   1a75a: ef 10 a0 4f  	jal	0x1bc54 <_fputwc_r>
   1a75e: 01 25        	sext.w	a0, a0
   1a760: 11 04        	addi	s0, s0, 0x4
   1a762: e3 17 45 ff  	bne	a0, s4, 0x1a750 <__sprint_r.part.0+0x54>
   1a766: 06 64        	ld	s0, 0x40(sp)
   1a768: e2 74        	ld	s1, 0x38(sp)
   1a76a: 42 79        	ld	s2, 0x30(sp)
   1a76c: a2 79        	ld	s3, 0x28(sp)
   1a76e: 02 7a        	ld	s4, 0x20(sp)
   1a770: 42 6b        	ld	s6, 0x10(sp)
   1a772: a2 6b        	ld	s7, 0x8(sp)
   1a774: 7d 55        	li	a0, -0x1
   1a776: a6 60        	ld	ra, 0x48(sp)
   1a778: 23 b8 0a 00  	sd	zero, 0x10(s5)
   1a77c: 23 a4 0a 00  	sw	zero, 0x8(s5)
   1a780: e2 6a        	ld	s5, 0x18(sp)
   1a782: 61 61        	addi	sp, sp, 0x50
   1a784: 82 80        	ret
   1a786: 83 b7 0a 01  	ld	a5, 0x10(s5)
   1a78a: 8a 0b        	slli	s7, s7, 0x2
   1a78c: b3 87 77 41  	sub	a5, a5, s7
   1a790: 23 b8 fa 00  	sd	a5, 0x10(s5)
   1a794: 41 0b        	addi	s6, s6, 0x10
   1a796: d9 fb        	bnez	a5, 0x1a72c <__sprint_r.part.0+0x30>
   1a798: 06 64        	ld	s0, 0x40(sp)
   1a79a: e2 74        	ld	s1, 0x38(sp)
   1a79c: a2 6b        	ld	s7, 0x8(sp)
   1a79e: 42 79        	ld	s2, 0x30(sp)
   1a7a0: a2 79        	ld	s3, 0x28(sp)
   1a7a2: 02 7a        	ld	s4, 0x20(sp)
   1a7a4: 42 6b        	ld	s6, 0x10(sp)
   1a7a6: 01 45        	li	a0, 0x0
   1a7a8: f9 b7        	j	0x1a776 <__sprint_r.part.0+0x7a>
   1a7aa: ef 00 b0 62  	jal	0x1b5d4 <__sfvwrite_r>
   1a7ae: a6 60        	ld	ra, 0x48(sp)
   1a7b0: 23 b8 0a 00  	sd	zero, 0x10(s5)
   1a7b4: 23 a4 0a 00  	sw	zero, 0x8(s5)
   1a7b8: e2 6a        	ld	s5, 0x18(sp)
   1a7ba: 61 61        	addi	sp, sp, 0x50
   1a7bc: 82 80        	ret

000000000001a7be <__sprint_r>:
   1a7be: 18 6a        	ld	a4, 0x10(a2)
   1a7c0: 19 c3        	beqz	a4, 0x1a7c6 <__sprint_r+0x8>
   1a7c2: 6f f0 bf f3  	j	0x1a6fc <__sprint_r.part.0>
   1a7c6: 23 24 06 00  	sw	zero, 0x8(a2)
   1a7ca: 01 45        	li	a0, 0x0
   1a7cc: 82 80        	ret

000000000001a7ce <_vfiprintf_r>:
   1a7ce: 05 71        	addi	sp, sp, -0x1e0
   1a7d0: 52 fb        	sd	s4, 0x1b0(sp)
   1a7d2: 56 f7        	sd	s5, 0x1a8(sp)
   1a7d4: 5e ef        	sd	s7, 0x198(sp)
   1a7d6: 6a e3        	sd	s10, 0x180(sp)
   1a7d8: 86 ef        	sd	ra, 0x1d8(sp)
   1a7da: 62 eb        	sd	s8, 0x190(sp)
   1a7dc: aa 8a        	mv	s5, a0
   1a7de: 2e 8a        	mv	s4, a1
   1a7e0: 32 8d        	mv	s10, a2
   1a7e2: b6 8b        	mv	s7, a3
   1a7e4: 01 c5        	beqz	a0, 0x1a7ec <_vfiprintf_r+0x1e>
   1a7e6: 3c 65        	ld	a5, 0x48(a0)
   1a7e8: e3 83 07 3a  	beqz	a5, 0x1b38e <_vfiprintf_r+0xbc0>
   1a7ec: 83 17 0a 01  	lh	a5, 0x10(s4)
   1a7f0: 93 96 27 03  	slli	a3, a5, 0x32
   1a7f4: 63 c1 06 02  	bltz	a3, 0x1a816 <_vfiprintf_r+0x48>
   1a7f8: 83 26 ca 0a  	lw	a3, 0xac(s4)
   1a7fc: 89 65        	lui	a1, 0x2
   1a7fe: 79 76        	lui	a2, 0xffffe
   1a800: cd 8f        	or	a5, a5, a1
   1a802: 7d 16        	addi	a2, a2, -0x1
   1a804: 9b 97 07 01  	slliw	a5, a5, 0x10
   1a808: 9b d7 07 41  	sraiw	a5, a5, 0x10
   1a80c: f1 8e        	and	a3, a3, a2
   1a80e: 23 18 fa 00  	sh	a5, 0x10(s4)
   1a812: 23 26 da 0a  	sw	a3, 0xac(s4)
   1a816: 93 f6 87 00  	andi	a3, a5, 0x8
   1a81a: e1 ce        	beqz	a3, 0x1a8f2 <_vfiprintf_r+0x124>
   1a81c: 83 36 8a 01  	ld	a3, 0x18(s4)
   1a820: e9 ca        	beqz	a3, 0x1a8f2 <_vfiprintf_r+0x124>
   1a822: e9 8b        	andi	a5, a5, 0x1a
   1a824: a9 46        	li	a3, 0xa
   1a826: 63 82 d7 0e  	beq	a5, a3, 0x1a90a <_vfiprintf_r+0x13c>
   1a82a: b7 07 02 00  	lui	a5, 0x20
   1a82e: 4e ff        	sd	s3, 0x1b8(sp)
   1a830: 5a f3        	sd	s6, 0x1a0(sp)
   1a832: 93 09 01 0f  	addi	s3, sp, 0xf0
   1a836: 93 87 87 1d  	addi	a5, a5, 0x1d8
   1a83a: 37 0b 02 00  	lui	s6, 0x20
   1a83e: a2 eb        	sd	s0, 0x1d0(sp)
   1a840: ca e3        	sd	s2, 0x1c0(sp)
   1a842: a6 e7        	sd	s1, 0x1c8(sp)
   1a844: 66 e7        	sd	s9, 0x188(sp)
   1a846: ee fe        	sd	s11, 0x178(sp)
   1a848: ce f8        	sd	s3, 0x70(sp)
   1a84a: 02 e1        	sd	zero, 0x80(sp)
   1a84c: 82 dc        	sw	zero, 0x78(sp)
   1a84e: 4e 84        	mv	s0, s3
   1a850: 02 e8        	sd	zero, 0x10(sp)
   1a852: 02 fc        	sd	zero, 0x38(sp)
   1a854: 02 f8        	sd	zero, 0x30(sp)
   1a856: 82 e0        	sd	zero, 0x40(sp)
   1a858: 01 4c        	li	s8, 0x0
   1a85a: 3e e4        	sd	a5, 0x8(sp)
   1a85c: 41 49        	li	s2, 0x10
   1a85e: 13 0b 8b 34  	addi	s6, s6, 0x348
   1a862: 83 47 0d 00  	lbu	a5, 0x0(s10)
   1a866: f9 c3        	beqz	a5, 0x1a92c <_vfiprintf_r+0x15e>
   1a868: ea 84        	mv	s1, s10
   1a86a: 13 07 50 02  	li	a4, 0x25
   1a86e: 63 8f e7 26  	beq	a5, a4, 0x1aaec <_vfiprintf_r+0x31e>
   1a872: 83 c7 14 00  	lbu	a5, 0x1(s1)
   1a876: 85 04        	addi	s1, s1, 0x1
   1a878: fd fb        	bnez	a5, 0x1a86e <_vfiprintf_r+0xa0>
   1a87a: bb 8d a4 41  	subw	s11, s1, s10
   1a87e: 63 87 0d 0a  	beqz	s11, 0x1a92c <_vfiprintf_r+0x15e>
   1a882: e6 57        	lw	a5, 0x78(sp)
   1a884: 0a 67        	ld	a4, 0x80(sp)
   1a886: 23 30 a4 01  	sd	s10, 0x0(s0)
   1a88a: 9b 86 17 00  	addiw	a3, a5, 0x1
   1a88e: 6e 97        	add	a4, a4, s11
   1a890: 23 34 b4 01  	sd	s11, 0x8(s0)
   1a894: 3a e1        	sd	a4, 0x80(sp)
   1a896: b6 dc        	sw	a3, 0x78(sp)
   1a898: 9d 47        	li	a5, 0x7
   1a89a: 41 04        	addi	s0, s0, 0x10
   1a89c: 63 db d7 00  	bge	a5, a3, 0x1a8b2 <_vfiprintf_r+0xe4>
   1a8a0: e3 07 07 0e  	beqz	a4, 0x1b18e <_vfiprintf_r+0x9c0>
   1a8a4: 90 18        	addi	a2, sp, 0x70
   1a8a6: d2 85        	mv	a1, s4
   1a8a8: 56 85        	mv	a0, s5
   1a8aa: ef f0 3f e5  	jal	0x1a6fc <__sprint_r.part.0>
   1a8ae: 51 e1        	bnez	a0, 0x1a932 <_vfiprintf_r+0x164>
   1a8b0: 4e 84        	mv	s0, s3
   1a8b2: 83 c7 04 00  	lbu	a5, 0x0(s1)
   1a8b6: 3b 8c 8d 01  	addw	s8, s11, s8
   1a8ba: ad cb        	beqz	a5, 0x1a92c <_vfiprintf_r+0x15e>
   1a8bc: 83 c7 14 00  	lbu	a5, 0x1(s1)
   1a8c0: 13 8d 14 00  	addi	s10, s1, 0x1
   1a8c4: a3 03 01 06  	sb	zero, 0x67(sp)
   1a8c8: fd 54        	li	s1, -0x1
   1a8ca: 81 48        	li	a7, 0x0
   1a8cc: 81 4c        	li	s9, 0x0
   1a8ce: 93 0d a0 05  	li	s11, 0x5a
   1a8d2: 05 0d        	addi	s10, s10, 0x1
   1a8d4: 81 27        	sext.w	a5, a5
   1a8d6: 1b 87 07 fe  	addiw	a4, a5, -0x20
   1a8da: 9b 06 07 00  	sext.w	a3, a4
   1a8de: 63 eb dd 0a  	bltu	s11, a3, 0x1a994 <_vfiprintf_r+0x1c6>
   1a8e2: 93 16 07 02  	slli	a3, a4, 0x20
   1a8e6: 13 d7 e6 01  	srli	a4, a3, 0x1e
   1a8ea: a2 66        	ld	a3, 0x8(sp)
   1a8ec: 36 97        	add	a4, a4, a3
   1a8ee: 18 43        	lw	a4, 0x0(a4)
   1a8f0: 02 87        	jr	a4
   1a8f2: d2 85        	mv	a1, s4
   1a8f4: 56 85        	mv	a0, s5
   1a8f6: ef 10 e0 1d  	jal	0x1bad4 <__swsetup_r>
   1a8fa: e3 14 05 38  	bnez	a0, 0x1b482 <_vfiprintf_r+0xcb4>
   1a8fe: 83 17 0a 01  	lh	a5, 0x10(s4)
   1a902: a9 46        	li	a3, 0xa
   1a904: e9 8b        	andi	a5, a5, 0x1a
   1a906: e3 92 d7 f2  	bne	a5, a3, 0x1a82a <_vfiprintf_r+0x5c>
   1a90a: 83 17 2a 01  	lh	a5, 0x12(s4)
   1a90e: e3 ce 07 f0  	bltz	a5, 0x1a82a <_vfiprintf_r+0x5c>
   1a912: fe 60        	ld	ra, 0x1d8(sp)
   1a914: 5a 6c        	ld	s8, 0x190(sp)
   1a916: de 86        	mv	a3, s7
   1a918: 6a 86        	mv	a2, s10
   1a91a: fa 6b        	ld	s7, 0x198(sp)
   1a91c: 1a 6d        	ld	s10, 0x180(sp)
   1a91e: d2 85        	mv	a1, s4
   1a920: 56 85        	mv	a0, s5
   1a922: 5a 7a        	ld	s4, 0x1b0(sp)
   1a924: ba 7a        	ld	s5, 0x1a8(sp)
   1a926: 3d 61        	addi	sp, sp, 0x1e0
   1a928: 6f 00 50 39  	j	0x1b4bc <__sbprintf>
   1a92c: 8a 67        	ld	a5, 0x80(sp)
   1a92e: e3 9c 07 30  	bnez	a5, 0x1b446 <_vfiprintf_r+0xc78>
   1a932: 83 57 0a 01  	lhu	a5, 0x10(s4)
   1a936: 5e 64        	ld	s0, 0x1d0(sp)
   1a938: be 64        	ld	s1, 0x1c8(sp)
   1a93a: 93 f7 07 04  	andi	a5, a5, 0x40
   1a93e: 1e 69        	ld	s2, 0x1c0(sp)
   1a940: fa 79        	ld	s3, 0x1b8(sp)
   1a942: 1a 7b        	ld	s6, 0x1a0(sp)
   1a944: ba 6c        	ld	s9, 0x188(sp)
   1a946: f6 7d        	ld	s11, 0x178(sp)
   1a948: e3 9d 07 32  	bnez	a5, 0x1b482 <_vfiprintf_r+0xcb4>
   1a94c: fe 60        	ld	ra, 0x1d8(sp)
   1a94e: 5a 7a        	ld	s4, 0x1b0(sp)
   1a950: ba 7a        	ld	s5, 0x1a8(sp)
   1a952: fa 6b        	ld	s7, 0x198(sp)
   1a954: 1a 6d        	ld	s10, 0x180(sp)
   1a956: 62 85        	mv	a0, s8
   1a958: 5a 6c        	ld	s8, 0x190(sp)
   1a95a: 3d 61        	addi	sp, sp, 0x1e0
   1a95c: 82 80        	ret
   1a95e: 81 48        	li	a7, 0x0
   1a960: 25 46        	li	a2, 0x9
   1a962: 83 46 0d 00  	lbu	a3, 0x0(s10)
   1a966: 1b 97 28 00  	slliw	a4, a7, 0x2
   1a96a: bb 08 17 01  	addw	a7, a4, a7
   1a96e: 9b 87 07 fd  	addiw	a5, a5, -0x30
   1a972: 9b 98 18 00  	slliw	a7, a7, 0x1
   1a976: 1b 87 06 fd  	addiw	a4, a3, -0x30
   1a97a: bb 88 17 01  	addw	a7, a5, a7
   1a97e: 05 0d        	addi	s10, s10, 0x1
   1a980: 9b 87 06 00  	sext.w	a5, a3
   1a984: e3 7f e6 fc  	bgeu	a2, a4, 0x1a962 <_vfiprintf_r+0x194>
   1a988: 1b 87 07 fe  	addiw	a4, a5, -0x20
   1a98c: 9b 06 07 00  	sext.w	a3, a4
   1a990: e3 f9 dd f4  	bgeu	s11, a3, 0x1a8e2 <_vfiprintf_r+0x114>
   1a994: c1 df        	beqz	a5, 0x1a92c <_vfiprintf_r+0x15e>
   1a996: 23 04 f1 08  	sb	a5, 0x88(sp)
   1a99a: a3 03 01 06  	sb	zero, 0x67(sp)
   1a99e: 05 43        	li	t1, 0x1
   1a9a0: 05 4e        	li	t3, 0x1
   1a9a2: 93 0d 81 08  	addi	s11, sp, 0x88
   1a9a6: 81 44        	li	s1, 0x0
   1a9a8: 81 4f        	li	t6, 0x0
   1a9aa: e6 56        	lw	a3, 0x78(sp)
   1a9ac: 93 f2 4c 08  	andi	t0, s9, 0x84
   1a9b0: 8a 67        	ld	a5, 0x80(sp)
   1a9b2: 9b 85 16 00  	addiw	a1, a3, 0x1
   1a9b6: 2e 86        	mv	a2, a1
   1a9b8: 63 96 02 00  	bnez	t0, 0x1a9c4 <_vfiprintf_r+0x1f6>
   1a9bc: 3b 87 68 40  	subw	a4, a7, t1
   1a9c0: 63 4e e0 62  	bgtz	a4, 0x1affc <_vfiprintf_r+0x82e>
   1a9c4: 03 47 71 06  	lbu	a4, 0x67(sp)
   1a9c8: 19 cf        	beqz	a4, 0x1a9e6 <_vfiprintf_r+0x218>
   1a9ca: 13 07 71 06  	addi	a4, sp, 0x67
   1a9ce: 85 07        	addi	a5, a5, 0x1
   1a9d0: 18 e0        	sd	a4, 0x0(s0)
   1a9d2: 05 47        	li	a4, 0x1
   1a9d4: 18 e4        	sd	a4, 0x8(s0)
   1a9d6: 3e e1        	sd	a5, 0x80(sp)
   1a9d8: ae dc        	sw	a1, 0x78(sp)
   1a9da: 1d 47        	li	a4, 0x7
   1a9dc: 63 41 b7 5a  	blt	a4, a1, 0x1af7e <_vfiprintf_r+0x7b0>
   1a9e0: ae 86        	mv	a3, a1
   1a9e2: 41 04        	addi	s0, s0, 0x10
   1a9e4: 85 25        	addiw	a1, a1, 0x1
   1a9e6: 63 81 0f 04  	beqz	t6, 0x1aa28 <_vfiprintf_r+0x25a>
   1a9ea: b8 10        	addi	a4, sp, 0x68
   1a9ec: 89 07        	addi	a5, a5, 0x2
   1a9ee: 18 e0        	sd	a4, 0x0(s0)
   1a9f0: 09 47        	li	a4, 0x2
   1a9f2: 18 e4        	sd	a4, 0x8(s0)
   1a9f4: 3e e1        	sd	a5, 0x80(sp)
   1a9f6: ae dc        	sw	a1, 0x78(sp)
   1a9f8: 1d 47        	li	a4, 0x7
   1a9fa: 63 52 b7 5c  	bge	a4, a1, 0x1afbe <_vfiprintf_r+0x7f0>
   1a9fe: 63 8c 07 78  	beqz	a5, 0x1b196 <_vfiprintf_r+0x9c8>
   1aa02: 90 18        	addi	a2, sp, 0x70
   1aa04: d2 85        	mv	a1, s4
   1aa06: 56 85        	mv	a0, s5
   1aa08: 9a e4        	sd	t1, 0x48(sp)
   1aa0a: 46 f4        	sd	a7, 0x28(sp)
   1aa0c: 72 f0        	sd	t3, 0x20(sp)
   1aa0e: 16 ec        	sd	t0, 0x18(sp)
   1aa10: ef f0 df ce  	jal	0x1a6fc <__sprint_r.part.0>
   1aa14: 19 fd        	bnez	a0, 0x1a932 <_vfiprintf_r+0x164>
   1aa16: e6 56        	lw	a3, 0x78(sp)
   1aa18: 8a 67        	ld	a5, 0x80(sp)
   1aa1a: 26 63        	ld	t1, 0x48(sp)
   1aa1c: a2 78        	ld	a7, 0x28(sp)
   1aa1e: 02 7e        	ld	t3, 0x20(sp)
   1aa20: e2 62        	ld	t0, 0x18(sp)
   1aa22: 4e 84        	mv	s0, s3
   1aa24: 9b 85 16 00  	addiw	a1, a3, 0x1
   1aa28: 13 07 00 08  	li	a4, 0x80
   1aa2c: 63 85 e2 3e  	beq	t0, a4, 0x1ae16 <_vfiprintf_r+0x648>
   1aa30: bb 84 c4 41  	subw	s1, s1, t3
   1aa34: 63 42 90 4a  	bgtz	s1, 0x1aed8 <_vfiprintf_r+0x70a>
   1aa38: f2 97        	add	a5, a5, t3
   1aa3a: 23 30 b4 01  	sd	s11, 0x0(s0)
   1aa3e: 23 34 c4 01  	sd	t3, 0x8(s0)
   1aa42: 3e e1        	sd	a5, 0x80(sp)
   1aa44: ae dc        	sw	a1, 0x78(sp)
   1aa46: 1d 47        	li	a4, 0x7
   1aa48: 63 55 b7 3c  	bge	a4, a1, 0x1ae12 <_vfiprintf_r+0x644>
   1aa4c: 63 8b 07 64  	beqz	a5, 0x1b0a2 <_vfiprintf_r+0x8d4>
   1aa50: 90 18        	addi	a2, sp, 0x70
   1aa52: d2 85        	mv	a1, s4
   1aa54: 56 85        	mv	a0, s5
   1aa56: 1a f0        	sd	t1, 0x20(sp)
   1aa58: 46 ec        	sd	a7, 0x18(sp)
   1aa5a: ef f0 3f ca  	jal	0x1a6fc <__sprint_r.part.0>
   1aa5e: e3 1a 05 ec  	bnez	a0, 0x1a932 <_vfiprintf_r+0x164>
   1aa62: 8a 67        	ld	a5, 0x80(sp)
   1aa64: 02 73        	ld	t1, 0x20(sp)
   1aa66: e2 68        	ld	a7, 0x18(sp)
   1aa68: 4e 84        	mv	s0, s3
   1aa6a: 13 f8 4c 00  	andi	a6, s9, 0x4
   1aa6e: 63 06 08 00  	beqz	a6, 0x1aa7a <_vfiprintf_r+0x2ac>
   1aa72: bb 84 68 40  	subw	s1, a7, t1
   1aa76: 63 40 90 64  	bgtz	s1, 0x1b0b6 <_vfiprintf_r+0x8e8>
   1aa7a: 46 87        	mv	a4, a7
   1aa7c: 63 d3 68 00  	bge	a7, t1, 0x1aa82 <_vfiprintf_r+0x2b4>
   1aa80: 1a 87        	mv	a4, t1
   1aa82: 3b 0c 87 01  	addw	s8, a4, s8
   1aa86: 63 90 07 4e  	bnez	a5, 0x1af66 <_vfiprintf_r+0x798>
   1aa8a: 82 dc        	sw	zero, 0x78(sp)
   1aa8c: 4e 84        	mv	s0, s3
   1aa8e: d1 bb        	j	0x1a862 <_vfiprintf_r+0x94>
   1aa90: 93 ec 0c 01  	ori	s9, s9, 0x10
   1aa94: 83 47 0d 00  	lbu	a5, 0x0(s10)
   1aa98: 81 2c        	sext.w	s9, s9
   1aa9a: 25 bd        	j	0x1a8d2 <_vfiprintf_r+0x104>
   1aa9c: 13 e8 0c 01  	ori	a6, s9, 0x10
   1aaa0: 9b 0c 08 00  	sext.w	s9, a6
   1aaa4: 93 f7 0c 02  	andi	a5, s9, 0x20
   1aaa8: 93 8e 8b 00  	addi	t4, s7, 0x8
   1aaac: b9 c7        	beqz	a5, 0x1aafa <_vfiprintf_r+0x32c>
   1aaae: 83 b7 0b 00  	ld	a5, 0x0(s7)
   1aab2: be 8b        	mv	s7, a5
   1aab4: 63 c3 07 06  	bltz	a5, 0x1ab1a <_vfiprintf_r+0x34c>
   1aab8: 63 cd 04 06  	bltz	s1, 0x1ab32 <_vfiprintf_r+0x364>
   1aabc: 13 f8 fc f7  	andi	a6, s9, -0x81
   1aac0: 9b 0c 08 00  	sext.w	s9, a6
   1aac4: 63 97 0b 06  	bnez	s7, 0x1ab32 <_vfiprintf_r+0x364>
   1aac8: e3 9b 04 18  	bnez	s1, 0x1b45e <_vfiprintf_r+0xc90>
   1aacc: 83 47 71 06  	lbu	a5, 0x67(sp)
   1aad0: 01 43        	li	t1, 0x0
   1aad2: 01 4e        	li	t3, 0x0
   1aad4: f6 8b        	mv	s7, t4
   1aad6: 93 0d c1 0e  	addi	s11, sp, 0xec
   1aada: 91 c3        	beqz	a5, 0x1aade <_vfiprintf_r+0x310>
   1aadc: 05 23        	addiw	t1, t1, 0x1
   1aade: 93 ff 2c 00  	andi	t6, s9, 0x2
   1aae2: e3 84 0f ec  	beqz	t6, 0x1a9aa <_vfiprintf_r+0x1dc>
   1aae6: 09 23        	addiw	t1, t1, 0x2
   1aae8: 89 4f        	li	t6, 0x2
   1aaea: c1 b5        	j	0x1a9aa <_vfiprintf_r+0x1dc>
   1aaec: bb 8d a4 41  	subw	s11, s1, s10
   1aaf0: e3 99 0d d8  	bnez	s11, 0x1a882 <_vfiprintf_r+0xb4>
   1aaf4: 83 c7 04 00  	lbu	a5, 0x0(s1)
   1aaf8: c9 b3        	j	0x1a8ba <_vfiprintf_r+0xec>
   1aafa: 93 f7 0c 01  	andi	a5, s9, 0x10
   1aafe: c5 fb        	bnez	a5, 0x1aaae <_vfiprintf_r+0x2e0>
   1ab00: 93 f7 0c 04  	andi	a5, s9, 0x40
   1ab04: 83 ab 0b 00  	lw	s7, 0x0(s7)
   1ab08: e3 8f 07 0c  	beqz	a5, 0x1b3e6 <_vfiprintf_r+0xc18>
   1ab0c: 9b 9b 0b 01  	slliw	s7, s7, 0x10
   1ab10: 9b db 0b 41  	sraiw	s7, s7, 0x10
   1ab14: de 87        	mv	a5, s7
   1ab16: e3 d1 07 fa  	bgez	a5, 0x1aab8 <_vfiprintf_r+0x2ea>
   1ab1a: 93 07 d0 02  	li	a5, 0x2d
   1ab1e: a3 03 f1 06  	sb	a5, 0x67(sp)
   1ab22: b3 0b 70 41  	neg	s7, s7
   1ab26: 63 c6 04 00  	bltz	s1, 0x1ab32 <_vfiprintf_r+0x364>
   1ab2a: 13 f8 fc f7  	andi	a6, s9, -0x81
   1ab2e: 9b 0c 08 00  	sext.w	s9, a6
   1ab32: a5 47        	li	a5, 0x9
   1ab34: 63 e4 77 6b  	bltu	a5, s7, 0x1b1dc <_vfiprintf_r+0xa0e>
   1ab38: 9b 87 0b 03  	addiw	a5, s7, 0x30
   1ab3c: 93 f7 f7 0f  	andi	a5, a5, 0xff
   1ab40: f6 8b        	mv	s7, t4
   1ab42: a3 05 f1 0e  	sb	a5, 0xeb(sp)
   1ab46: 1b 83 04 00  	sext.w	t1, s1
   1ab4a: 63 43 90 00  	bgtz	s1, 0x1ab50 <_vfiprintf_r+0x382>
   1ab4e: 05 43        	li	t1, 0x1
   1ab50: 05 4e        	li	t3, 0x1
   1ab52: 93 0d b1 0e  	addi	s11, sp, 0xeb
   1ab56: 83 47 71 06  	lbu	a5, 0x67(sp)
   1ab5a: c9 f3        	bnez	a5, 0x1aadc <_vfiprintf_r+0x30e>
   1ab5c: 49 b7        	j	0x1aade <_vfiprintf_r+0x310>
   1ab5e: 83 bd 0b 00  	ld	s11, 0x0(s7)
   1ab62: a3 03 01 06  	sb	zero, 0x67(sp)
   1ab66: a1 0b        	addi	s7, s7, 0x8
   1ab68: e3 87 0d 04  	beqz	s11, 0x1b3b6 <_vfiprintf_r+0xbe8>
   1ab6c: 46 ec        	sd	a7, 0x18(sp)
   1ab6e: 63 c8 04 7a  	bltz	s1, 0x1b31e <_vfiprintf_r+0xb50>
   1ab72: 26 86        	mv	a2, s1
   1ab74: 81 45        	li	a1, 0x0
   1ab76: 6e 85        	mv	a0, s11
   1ab78: ef b0 bf d4  	jal	0x168c2 <memchr>
   1ab7c: e2 68        	ld	a7, 0x18(sp)
   1ab7e: 26 8e        	mv	t3, s1
   1ab80: 19 c1        	beqz	a0, 0x1ab86 <_vfiprintf_r+0x3b8>
   1ab82: 3b 0e b5 41  	subw	t3, a0, s11
   1ab86: 13 43 fe ff  	not	t1, t3
   1ab8a: 83 47 71 06  	lbu	a5, 0x67(sp)
   1ab8e: 13 53 f3 43  	srai	t1, t1, 0x3f
   1ab92: 33 73 6e 00  	and	t1, t3, t1
   1ab96: 01 23        	sext.w	t1, t1
   1ab98: 81 44        	li	s1, 0x0
   1ab9a: 81 4f        	li	t6, 0x0
   1ab9c: a1 f3        	bnez	a5, 0x1aadc <_vfiprintf_r+0x30e>
   1ab9e: 31 b5        	j	0x1a9aa <_vfiprintf_r+0x1dc>
   1aba0: 83 a7 0b 00  	lw	a5, 0x0(s7)
   1aba4: a3 03 01 06  	sb	zero, 0x67(sp)
   1aba8: a1 0b        	addi	s7, s7, 0x8
   1abaa: 23 04 f1 08  	sb	a5, 0x88(sp)
   1abae: 05 43        	li	t1, 0x1
   1abb0: 05 4e        	li	t3, 0x1
   1abb2: 93 0d 81 08  	addi	s11, sp, 0x88
   1abb6: c5 bb        	j	0x1a9a6 <_vfiprintf_r+0x1d8>
   1abb8: 83 a8 0b 00  	lw	a7, 0x0(s7)
   1abbc: a1 0b        	addi	s7, s7, 0x8
   1abbe: 63 df 08 08  	bgez	a7, 0x1ac5c <_vfiprintf_r+0x48e>
   1abc2: bb 08 10 41  	negw	a7, a7
   1abc6: 93 ec 4c 00  	ori	s9, s9, 0x4
   1abca: 83 47 0d 00  	lbu	a5, 0x0(s10)
   1abce: 81 2c        	sext.w	s9, s9
   1abd0: 09 b3        	j	0x1a8d2 <_vfiprintf_r+0x104>
   1abd2: 13 07 b0 02  	li	a4, 0x2b
   1abd6: 83 47 0d 00  	lbu	a5, 0x0(s10)
   1abda: a3 03 e1 06  	sb	a4, 0x67(sp)
   1abde: d5 b9        	j	0x1a8d2 <_vfiprintf_r+0x104>
   1abe0: 93 ec 0c 08  	ori	s9, s9, 0x80
   1abe4: 83 47 0d 00  	lbu	a5, 0x0(s10)
   1abe8: 81 2c        	sext.w	s9, s9
   1abea: e5 b1        	j	0x1a8d2 <_vfiprintf_r+0x104>
   1abec: 83 47 0d 00  	lbu	a5, 0x0(s10)
   1abf0: 13 06 a0 02  	li	a2, 0x2a
   1abf4: 93 06 1d 00  	addi	a3, s10, 0x1
   1abf8: e3 8d c7 08  	beq	a5, a2, 0x1b492 <_vfiprintf_r+0xcc4>
   1abfc: 1b 87 07 fd  	addiw	a4, a5, -0x30
   1ac00: 25 45        	li	a0, 0x9
   1ac02: 01 46        	li	a2, 0x0
   1ac04: a5 45        	li	a1, 0x9
   1ac06: 36 8d        	mv	s10, a3
   1ac08: 81 44        	li	s1, 0x0
   1ac0a: e3 66 e5 cc  	bltu	a0, a4, 0x1a8d6 <_vfiprintf_r+0x108>
   1ac0e: 83 c7 06 00  	lbu	a5, 0x0(a3)
   1ac12: 9b 14 26 00  	slliw	s1, a2, 0x2
   1ac16: b1 9c        	addw	s1, s1, a2
   1ac18: 9b 94 14 00  	slliw	s1, s1, 0x1
   1ac1c: 3b 86 e4 00  	addw	a2, s1, a4
   1ac20: 1b 87 07 fd  	addiw	a4, a5, -0x30
   1ac24: b2 84        	mv	s1, a2
   1ac26: 85 06        	addi	a3, a3, 0x1
   1ac28: e3 f3 e5 fe  	bgeu	a1, a4, 0x1ac0e <_vfiprintf_r+0x440>
   1ac2c: 63 4b 06 66  	bltz	a2, 0x1b2a2 <_vfiprintf_r+0xad4>
   1ac30: 36 8d        	mv	s10, a3
   1ac32: 55 b1        	j	0x1a8d6 <_vfiprintf_r+0x108>
   1ac34: 56 85        	mv	a0, s5
   1ac36: 46 ec        	sd	a7, 0x18(sp)
   1ac38: ef 10 a0 12  	jal	0x1bd62 <_localeconv_r>
   1ac3c: 1c 65        	ld	a5, 0x8(a0)
   1ac3e: 3e 85        	mv	a0, a5
   1ac40: be e0        	sd	a5, 0x40(sp)
   1ac42: ef c0 0f b0  	jal	0x16f42 <strlen>
   1ac46: aa 87        	mv	a5, a0
   1ac48: 56 85        	mv	a0, s5
   1ac4a: 3e f8        	sd	a5, 0x30(sp)
   1ac4c: ef 10 60 11  	jal	0x1bd62 <_localeconv_r>
   1ac50: 18 69        	ld	a4, 0x10(a0)
   1ac52: c2 77        	ld	a5, 0x30(sp)
   1ac54: e2 68        	ld	a7, 0x18(sp)
   1ac56: 3a fc        	sd	a4, 0x38(sp)
   1ac58: 63 9f 07 60  	bnez	a5, 0x1b276 <_vfiprintf_r+0xaa8>
   1ac5c: 83 47 0d 00  	lbu	a5, 0x0(s10)
   1ac60: 8d b9        	j	0x1a8d2 <_vfiprintf_r+0x104>
   1ac62: 93 ec 1c 00  	ori	s9, s9, 0x1
   1ac66: 83 47 0d 00  	lbu	a5, 0x0(s10)
   1ac6a: 81 2c        	sext.w	s9, s9
   1ac6c: 9d b1        	j	0x1a8d2 <_vfiprintf_r+0x104>
   1ac6e: 03 47 71 06  	lbu	a4, 0x67(sp)
   1ac72: 83 47 0d 00  	lbu	a5, 0x0(s10)
   1ac76: e3 1e 07 c4  	bnez	a4, 0x1a8d2 <_vfiprintf_r+0x104>
   1ac7a: 13 07 00 02  	li	a4, 0x20
   1ac7e: a3 03 e1 06  	sb	a4, 0x67(sp)
   1ac82: 81 b9        	j	0x1a8d2 <_vfiprintf_r+0x104>
   1ac84: 93 e7 0c 01  	ori	a5, s9, 0x10
   1ac88: 81 27        	sext.w	a5, a5
   1ac8a: 13 f7 07 02  	andi	a4, a5, 0x20
   1ac8e: 93 86 8b 00  	addi	a3, s7, 0x8
   1ac92: 09 e7        	bnez	a4, 0x1ac9c <_vfiprintf_r+0x4ce>
   1ac94: 13 f7 07 01  	andi	a4, a5, 0x10
   1ac98: 63 06 07 5c  	beqz	a4, 0x1b264 <_vfiprintf_r+0xa96>
   1ac9c: 03 b7 0b 00  	ld	a4, 0x0(s7)
   1aca0: 13 f8 f7 bf  	andi	a6, a5, -0x401
   1aca4: a3 03 01 06  	sb	zero, 0x67(sp)
   1aca8: 9b 0c 08 00  	sext.w	s9, a6
   1acac: b6 8b        	mv	s7, a3
   1acae: 63 c5 04 08  	bltz	s1, 0x1ad38 <_vfiprintf_r+0x56a>
   1acb2: 93 f7 f7 b7  	andi	a5, a5, -0x481
   1acb6: 81 27        	sext.w	a5, a5
   1acb8: 63 16 07 6c  	bnez	a4, 0x1b384 <_vfiprintf_r+0xbb6>
   1acbc: 66 8e        	mv	t3, s9
   1acbe: be 8c        	mv	s9, a5
   1acc0: ad e4        	bnez	s1, 0x1ad2a <_vfiprintf_r+0x55c>
   1acc2: 63 18 07 50  	bnez	a4, 0x1b1d2 <_vfiprintf_r+0xa04>
   1acc6: 13 7e 1e 00  	andi	t3, t3, 0x1
   1acca: 63 09 0e 56  	beqz	t3, 0x1b23c <_vfiprintf_r+0xa6e>
   1acce: 93 07 00 03  	li	a5, 0x30
   1acd2: a3 05 f1 0e  	sb	a5, 0xeb(sp)
   1acd6: 72 83        	mv	t1, t3
   1acd8: 93 0d b1 0e  	addi	s11, sp, 0xeb
   1acdc: ad bd        	j	0x1ab56 <_vfiprintf_r+0x388>
   1acde: 83 47 0d 00  	lbu	a5, 0x0(s10)
   1ace2: 13 07 c0 06  	li	a4, 0x6c
   1ace6: 63 80 e7 6c  	beq	a5, a4, 0x1b3a6 <_vfiprintf_r+0xbd8>
   1acea: 93 ec 0c 01  	ori	s9, s9, 0x10
   1acee: 81 2c        	sext.w	s9, s9
   1acf0: cd b6        	j	0x1a8d2 <_vfiprintf_r+0x104>
   1acf2: 13 ee 0c 01  	ori	t3, s9, 0x10
   1acf6: 01 2e        	sext.w	t3, t3
   1acf8: 93 77 0e 02  	andi	a5, t3, 0x20
   1acfc: 93 8e 8b 00  	addi	t4, s7, 0x8
   1ad00: 89 e7        	bnez	a5, 0x1ad0a <_vfiprintf_r+0x53c>
   1ad02: 93 77 0e 01  	andi	a5, t3, 0x10
   1ad06: 63 85 07 54  	beqz	a5, 0x1b250 <_vfiprintf_r+0xa82>
   1ad0a: 83 bb 0b 00  	ld	s7, 0x0(s7)
   1ad0e: a3 03 01 06  	sb	zero, 0x67(sp)
   1ad12: f2 8c        	mv	s9, t3
   1ad14: e3 cf 04 e0  	bltz	s1, 0x1ab32 <_vfiprintf_r+0x364>
   1ad18: 13 78 fe f7  	andi	a6, t3, -0x81
   1ad1c: 9b 0c 08 00  	sext.w	s9, a6
   1ad20: e3 99 0b e0  	bnez	s7, 0x1ab32 <_vfiprintf_r+0x364>
   1ad24: f6 8b        	mv	s7, t4
   1ad26: 05 47        	li	a4, 0x1
   1ad28: c9 dc        	beqz	s1, 0x1acc2 <_vfiprintf_r+0x4f4>
   1ad2a: 85 47        	li	a5, 0x1
   1ad2c: 63 0a f7 72  	beq	a4, a5, 0x1b460 <_vfiprintf_r+0xc92>
   1ad30: 89 47        	li	a5, 0x2
   1ad32: 63 0a f7 6c  	beq	a4, a5, 0x1b406 <_vfiprintf_r+0xc38>
   1ad36: 01 47        	li	a4, 0x0
   1ad38: 13 0e c1 0e  	addi	t3, sp, 0xec
   1ad3c: f2 8d        	mv	s11, t3
   1ad3e: 93 77 77 00  	andi	a5, a4, 0x7
   1ad42: 93 87 07 03  	addi	a5, a5, 0x30
   1ad46: a3 8f fd fe  	sb	a5, -0x1(s11)
   1ad4a: 0d 83        	srli	a4, a4, 0x3
   1ad4c: ee 86        	mv	a3, s11
   1ad4e: fd 1d        	addi	s11, s11, -0x1
   1ad50: 7d f7        	bnez	a4, 0x1ad3e <_vfiprintf_r+0x570>
   1ad52: 13 f7 1c 00  	andi	a4, s9, 0x1
   1ad56: 63 0a 07 28  	beqz	a4, 0x1afea <_vfiprintf_r+0x81c>
   1ad5a: 13 07 00 03  	li	a4, 0x30
   1ad5e: 63 86 e7 28  	beq	a5, a4, 0x1afea <_vfiprintf_r+0x81c>
   1ad62: f9 16        	addi	a3, a3, -0x2
   1ad64: a3 8f ed fe  	sb	a4, -0x1(s11)
   1ad68: 3b 0e de 40  	subw	t3, t3, a3
   1ad6c: 1b 83 04 00  	sext.w	t1, s1
   1ad70: 63 c5 c4 53  	blt	s1, t3, 0x1b29a <_vfiprintf_r+0xacc>
   1ad74: b6 8d        	mv	s11, a3
   1ad76: c5 b3        	j	0x1ab56 <_vfiprintf_r+0x388>
   1ad78: 83 47 0d 00  	lbu	a5, 0x0(s10)
   1ad7c: 13 07 80 06  	li	a4, 0x68
   1ad80: 63 8b e7 60  	beq	a5, a4, 0x1b396 <_vfiprintf_r+0xbc8>
   1ad84: 93 ec 0c 04  	ori	s9, s9, 0x40
   1ad88: 81 2c        	sext.w	s9, s9
   1ad8a: a1 b6        	j	0x1a8d2 <_vfiprintf_r+0x104>
   1ad8c: 93 ec 0c 02  	ori	s9, s9, 0x20
   1ad90: 83 47 0d 00  	lbu	a5, 0x0(s10)
   1ad94: 81 2c        	sext.w	s9, s9
   1ad96: 35 be        	j	0x1a8d2 <_vfiprintf_r+0x104>
   1ad98: a1 67        	lui	a5, 0x8
   1ad9a: 93 87 07 83  	addi	a5, a5, -0x7d0
   1ad9e: 23 14 f1 06  	sh	a5, 0x68(sp)
   1ada2: b7 07 02 00  	lui	a5, 0x20
   1ada6: 13 e8 2c 00  	ori	a6, s9, 0x2
   1adaa: 93 87 87 b5  	addi	a5, a5, -0x4a8
   1adae: 03 b7 0b 00  	ld	a4, 0x0(s7)
   1adb2: 9b 0c 08 00  	sext.w	s9, a6
   1adb6: a1 0b        	addi	s7, s7, 0x8
   1adb8: 3e e8        	sd	a5, 0x10(sp)
   1adba: a3 03 01 06  	sb	zero, 0x67(sp)
   1adbe: 63 c8 04 20  	bltz	s1, 0x1afce <_vfiprintf_r+0x800>
   1adc2: 93 f7 fc f7  	andi	a5, s9, -0x81
   1adc6: 81 27        	sext.w	a5, a5
   1adc8: 63 1f 07 1e  	bnez	a4, 0x1afc6 <_vfiprintf_r+0x7f8>
   1adcc: 66 8e        	mv	t3, s9
   1adce: 09 47        	li	a4, 0x2
   1add0: be 8c        	mv	s9, a5
   1add2: fd b5        	j	0x1acc0 <_vfiprintf_r+0x4f2>
   1add4: 93 f7 0c 02  	andi	a5, s9, 0x20
   1add8: 03 b7 0b 00  	ld	a4, 0x0(s7)
   1addc: 85 e3        	bnez	a5, 0x1adfc <_vfiprintf_r+0x62e>
   1adde: 93 f7 0c 01  	andi	a5, s9, 0x10
   1ade2: 89 ef        	bnez	a5, 0x1adfc <_vfiprintf_r+0x62e>
   1ade4: 93 f7 0c 04  	andi	a5, s9, 0x40
   1ade8: 63 9d 07 62  	bnez	a5, 0x1b422 <_vfiprintf_r+0xc54>
   1adec: 13 f8 0c 20  	andi	a6, s9, 0x200
   1adf0: 63 0c 08 68  	beqz	a6, 0x1b488 <_vfiprintf_r+0xcba>
   1adf4: 23 00 87 01  	sb	s8, 0x0(a4)
   1adf8: a1 0b        	addi	s7, s7, 0x8
   1adfa: a5 b4        	j	0x1a862 <_vfiprintf_r+0x94>
   1adfc: 23 30 87 01  	sd	s8, 0x0(a4)
   1ae00: a1 0b        	addi	s7, s7, 0x8
   1ae02: 85 b4        	j	0x1a862 <_vfiprintf_r+0x94>
   1ae04: 05 47        	li	a4, 0x1
   1ae06: f2 87        	mv	a5, t3
   1ae08: ee f9        	sd	s11, 0xf0(sp)
   1ae0a: f2 fd        	sd	t3, 0xf8(sp)
   1ae0c: 72 e1        	sd	t3, 0x80(sp)
   1ae0e: ba dc        	sw	a4, 0x78(sp)
   1ae10: 4e 84        	mv	s0, s3
   1ae12: 41 04        	addi	s0, s0, 0x10
   1ae14: 99 b9        	j	0x1aa6a <_vfiprintf_r+0x29c>
   1ae16: 3b 87 68 40  	subw	a4, a7, t1
   1ae1a: e3 5b e0 c0  	blez	a4, 0x1aa30 <_vfiprintf_r+0x262>
   1ae1e: 41 46        	li	a2, 0x10
   1ae20: 63 5b e6 64  	bge	a2, a4, 0x1b476 <_vfiprintf_r+0xca8>
   1ae24: b7 0e 02 00  	lui	t4, 0x20
   1ae28: 93 8e 8e 34  	addi	t4, t4, 0x348
   1ae2c: 26 f4        	sd	s1, 0x28(sp)
   1ae2e: a2 85        	mv	a1, s0
   1ae30: 41 4f        	li	t5, 0x10
   1ae32: 9d 4f        	li	t6, 0x7
   1ae34: 72 ec        	sd	t3, 0x18(sp)
   1ae36: 46 f0        	sd	a7, 0x20(sp)
   1ae38: 9a e4        	sd	t1, 0x48(sp)
   1ae3a: 3a 84        	mv	s0, a4
   1ae3c: f6 84        	mv	s1, t4
   1ae3e: 01 a8        	j	0x1ae4e <_vfiprintf_r+0x680>
   1ae40: 1b 86 26 00  	addiw	a2, a3, 0x2
   1ae44: c1 05        	addi	a1, a1, 0x10
   1ae46: aa 86        	mv	a3, a0
   1ae48: 41 34        	addiw	s0, s0, -0x10
   1ae4a: 63 5f 8f 02  	bge	t5, s0, 0x1ae88 <_vfiprintf_r+0x6ba>
   1ae4e: 1b 85 16 00  	addiw	a0, a3, 0x1
   1ae52: c1 07        	addi	a5, a5, 0x10
   1ae54: 84 e1        	sd	s1, 0x0(a1)
   1ae56: 23 b4 e5 01  	sd	t5, 0x8(a1)
   1ae5a: 3e e1        	sd	a5, 0x80(sp)
   1ae5c: aa dc        	sw	a0, 0x78(sp)
   1ae5e: e3 d1 af fe  	bge	t6, a0, 0x1ae40 <_vfiprintf_r+0x672>
   1ae62: 63 8a 07 10  	beqz	a5, 0x1af76 <_vfiprintf_r+0x7a8>
   1ae66: 90 18        	addi	a2, sp, 0x70
   1ae68: d2 85        	mv	a1, s4
   1ae6a: 56 85        	mv	a0, s5
   1ae6c: ef f0 1f 89  	jal	0x1a6fc <__sprint_r.part.0>
   1ae70: e3 11 05 ac  	bnez	a0, 0x1a932 <_vfiprintf_r+0x164>
   1ae74: e6 56        	lw	a3, 0x78(sp)
   1ae76: 41 4f        	li	t5, 0x10
   1ae78: 41 34        	addiw	s0, s0, -0x10
   1ae7a: 8a 67        	ld	a5, 0x80(sp)
   1ae7c: ce 85        	mv	a1, s3
   1ae7e: 1b 86 16 00  	addiw	a2, a3, 0x1
   1ae82: 9d 4f        	li	t6, 0x7
   1ae84: e3 45 8f fc  	blt	t5, s0, 0x1ae4e <_vfiprintf_r+0x680>
   1ae88: a6 8e        	mv	t4, s1
   1ae8a: 62 6e        	ld	t3, 0x18(sp)
   1ae8c: 82 78        	ld	a7, 0x20(sp)
   1ae8e: 26 63        	ld	t1, 0x48(sp)
   1ae90: a2 74        	ld	s1, 0x28(sp)
   1ae92: 22 87        	mv	a4, s0
   1ae94: 2e 84        	mv	s0, a1
   1ae96: ba 97        	add	a5, a5, a4
   1ae98: 18 e4        	sd	a4, 0x8(s0)
   1ae9a: 23 30 d4 01  	sd	t4, 0x0(s0)
   1ae9e: 3e e1        	sd	a5, 0x80(sp)
   1aea0: b2 dc        	sw	a2, 0x78(sp)
   1aea2: 1d 47        	li	a4, 0x7
   1aea4: 63 50 c7 3a  	bge	a4, a2, 0x1b244 <_vfiprintf_r+0xa76>
   1aea8: 63 81 07 56  	beqz	a5, 0x1b40a <_vfiprintf_r+0xc3c>
   1aeac: 90 18        	addi	a2, sp, 0x70
   1aeae: d2 85        	mv	a1, s4
   1aeb0: 56 85        	mv	a0, s5
   1aeb2: 1a f4        	sd	t1, 0x28(sp)
   1aeb4: 46 f0        	sd	a7, 0x20(sp)
   1aeb6: 72 ec        	sd	t3, 0x18(sp)
   1aeb8: ef f0 5f 84  	jal	0x1a6fc <__sprint_r.part.0>
   1aebc: e3 1b 05 a6  	bnez	a0, 0x1a932 <_vfiprintf_r+0x164>
   1aec0: 62 6e        	ld	t3, 0x18(sp)
   1aec2: e6 56        	lw	a3, 0x78(sp)
   1aec4: 8a 67        	ld	a5, 0x80(sp)
   1aec6: bb 84 c4 41  	subw	s1, s1, t3
   1aeca: 22 73        	ld	t1, 0x28(sp)
   1aecc: 82 78        	ld	a7, 0x20(sp)
   1aece: 4e 84        	mv	s0, s3
   1aed0: 9b 85 16 00  	addiw	a1, a3, 0x1
   1aed4: e3 52 90 b6  	blez	s1, 0x1aa38 <_vfiprintf_r+0x26a>
   1aed8: b7 0e 02 00  	lui	t4, 0x20
   1aedc: 93 8e 8e 34  	addi	t4, t4, 0x348
   1aee0: 63 53 99 06  	bge	s2, s1, 0x1af46 <_vfiprintf_r+0x778>
   1aee4: 22 87        	mv	a4, s0
   1aee6: 1d 4f        	li	t5, 0x7
   1aee8: 26 84        	mv	s0, s1
   1aeea: 72 ec        	sd	t3, 0x18(sp)
   1aeec: 46 f0        	sd	a7, 0x20(sp)
   1aeee: 1a f4        	sd	t1, 0x28(sp)
   1aef0: da 84        	mv	s1, s6
   1aef2: 01 a8        	j	0x1af02 <_vfiprintf_r+0x734>
   1aef4: 9b 85 26 00  	addiw	a1, a3, 0x2
   1aef8: 41 07        	addi	a4, a4, 0x10
   1aefa: aa 86        	mv	a3, a0
   1aefc: 41 34        	addiw	s0, s0, -0x10
   1aefe: 63 5e 89 02  	bge	s2, s0, 0x1af3a <_vfiprintf_r+0x76c>
   1af02: 1b 85 16 00  	addiw	a0, a3, 0x1
   1af06: c1 07        	addi	a5, a5, 0x10
   1af08: 23 30 67 01  	sd	s6, 0x0(a4)
   1af0c: 23 34 27 01  	sd	s2, 0x8(a4)
   1af10: 3e e1        	sd	a5, 0x80(sp)
   1af12: aa dc        	sw	a0, 0x78(sp)
   1af14: e3 50 af fe  	bge	t5, a0, 0x1aef4 <_vfiprintf_r+0x726>
   1af18: b9 c3        	beqz	a5, 0x1af5e <_vfiprintf_r+0x790>
   1af1a: 90 18        	addi	a2, sp, 0x70
   1af1c: d2 85        	mv	a1, s4
   1af1e: 56 85        	mv	a0, s5
   1af20: ef f0 cf fd  	jal	0x1a6fc <__sprint_r.part.0>
   1af24: e3 17 05 a0  	bnez	a0, 0x1a932 <_vfiprintf_r+0x164>
   1af28: e6 56        	lw	a3, 0x78(sp)
   1af2a: 41 34        	addiw	s0, s0, -0x10
   1af2c: 8a 67        	ld	a5, 0x80(sp)
   1af2e: 4e 87        	mv	a4, s3
   1af30: 9b 85 16 00  	addiw	a1, a3, 0x1
   1af34: 1d 4f        	li	t5, 0x7
   1af36: e3 46 89 fc  	blt	s2, s0, 0x1af02 <_vfiprintf_r+0x734>
   1af3a: 62 6e        	ld	t3, 0x18(sp)
   1af3c: 82 78        	ld	a7, 0x20(sp)
   1af3e: 22 73        	ld	t1, 0x28(sp)
   1af40: a6 8e        	mv	t4, s1
   1af42: a2 84        	mv	s1, s0
   1af44: 3a 84        	mv	s0, a4
   1af46: a6 97        	add	a5, a5, s1
   1af48: 23 30 d4 01  	sd	t4, 0x0(s0)
   1af4c: 04 e4        	sd	s1, 0x8(s0)
   1af4e: 3e e1        	sd	a5, 0x80(sp)
   1af50: ae dc        	sw	a1, 0x78(sp)
   1af52: 1d 47        	li	a4, 0x7
   1af54: 63 49 b7 20  	blt	a4, a1, 0x1b166 <_vfiprintf_r+0x998>
   1af58: 41 04        	addi	s0, s0, 0x10
   1af5a: 85 25        	addiw	a1, a1, 0x1
   1af5c: f1 bc        	j	0x1aa38 <_vfiprintf_r+0x26a>
   1af5e: 85 45        	li	a1, 0x1
   1af60: 81 46        	li	a3, 0x0
   1af62: 4e 87        	mv	a4, s3
   1af64: 61 bf        	j	0x1aefc <_vfiprintf_r+0x72e>
   1af66: 90 18        	addi	a2, sp, 0x70
   1af68: d2 85        	mv	a1, s4
   1af6a: 56 85        	mv	a0, s5
   1af6c: ef f0 0f f9  	jal	0x1a6fc <__sprint_r.part.0>
   1af70: e3 0d 05 b0  	beqz	a0, 0x1aa8a <_vfiprintf_r+0x2bc>
   1af74: 7d ba        	j	0x1a932 <_vfiprintf_r+0x164>
   1af76: 05 46        	li	a2, 0x1
   1af78: 81 46        	li	a3, 0x0
   1af7a: ce 85        	mv	a1, s3
   1af7c: f1 b5        	j	0x1ae48 <_vfiprintf_r+0x67a>
   1af7e: 85 cb        	beqz	a5, 0x1afae <_vfiprintf_r+0x7e0>
   1af80: 90 18        	addi	a2, sp, 0x70
   1af82: d2 85        	mv	a1, s4
   1af84: 56 85        	mv	a0, s5
   1af86: 9a e8        	sd	t1, 0x50(sp)
   1af88: c6 e4        	sd	a7, 0x48(sp)
   1af8a: 72 f4        	sd	t3, 0x28(sp)
   1af8c: 16 f0        	sd	t0, 0x20(sp)
   1af8e: 7e ec        	sd	t6, 0x18(sp)
   1af90: ef f0 cf f6  	jal	0x1a6fc <__sprint_r.part.0>
   1af94: e3 1f 05 98  	bnez	a0, 0x1a932 <_vfiprintf_r+0x164>
   1af98: e6 56        	lw	a3, 0x78(sp)
   1af9a: 8a 67        	ld	a5, 0x80(sp)
   1af9c: 46 63        	ld	t1, 0x50(sp)
   1af9e: a6 68        	ld	a7, 0x48(sp)
   1afa0: 22 7e        	ld	t3, 0x28(sp)
   1afa2: 82 72        	ld	t0, 0x20(sp)
   1afa4: e2 6f        	ld	t6, 0x18(sp)
   1afa6: 4e 84        	mv	s0, s3
   1afa8: 9b 85 16 00  	addiw	a1, a3, 0x1
   1afac: 2d bc        	j	0x1a9e6 <_vfiprintf_r+0x218>
   1afae: 63 81 0f 2e  	beqz	t6, 0x1b290 <_vfiprintf_r+0xac2>
   1afb2: bc 10        	addi	a5, sp, 0x68
   1afb4: be f9        	sd	a5, 0xf0(sp)
   1afb6: 89 47        	li	a5, 0x2
   1afb8: be fd        	sd	a5, 0xf8(sp)
   1afba: 85 45        	li	a1, 0x1
   1afbc: 4e 84        	mv	s0, s3
   1afbe: ae 86        	mv	a3, a1
   1afc0: 41 04        	addi	s0, s0, 0x10
   1afc2: 85 25        	addiw	a1, a1, 0x1
   1afc4: 95 b4        	j	0x1aa28 <_vfiprintf_r+0x25a>
   1afc6: be 8c        	mv	s9, a5
   1afc8: 89 47        	li	a5, 0x2
   1afca: e3 87 07 d6  	beqz	a5, 0x1ad38 <_vfiprintf_r+0x56a>
   1afce: c2 66        	ld	a3, 0x10(sp)
   1afd0: 13 0e c1 0e  	addi	t3, sp, 0xec
   1afd4: f2 8d        	mv	s11, t3
   1afd6: 93 77 f7 00  	andi	a5, a4, 0xf
   1afda: b6 97        	add	a5, a5, a3
   1afdc: 83 c7 07 00  	lbu	a5, 0x0(a5)
   1afe0: 11 83        	srli	a4, a4, 0x4
   1afe2: fd 1d        	addi	s11, s11, -0x1
   1afe4: 23 80 fd 00  	sb	a5, 0x0(s11)
   1afe8: 7d f7        	bnez	a4, 0x1afd6 <_vfiprintf_r+0x808>
   1afea: 3b 0e be 41  	subw	t3, t3, s11
   1afee: 1b 83 04 00  	sext.w	t1, s1
   1aff2: e3 d2 c4 b7  	bge	s1, t3, 0x1ab56 <_vfiprintf_r+0x388>
   1aff6: 1b 03 0e 00  	sext.w	t1, t3
   1affa: b1 be        	j	0x1ab56 <_vfiprintf_r+0x388>
   1affc: 41 45        	li	a0, 0x10
   1affe: 63 5b e5 44  	bge	a0, a4, 0x1b454 <_vfiprintf_r+0xc86>
   1b002: b7 0e 02 00  	lui	t4, 0x20
   1b006: 93 8e 8e 35  	addi	t4, t4, 0x358
   1b00a: a6 e8        	sd	s1, 0x50(sp)
   1b00c: a2 85        	mv	a1, s0
   1b00e: 41 4f        	li	t5, 0x10
   1b010: 9d 43        	li	t2, 0x7
   1b012: 7e ec        	sd	t6, 0x18(sp)
   1b014: 16 f0        	sd	t0, 0x20(sp)
   1b016: 72 f4        	sd	t3, 0x28(sp)
   1b018: c6 e4        	sd	a7, 0x48(sp)
   1b01a: 9a ec        	sd	t1, 0x58(sp)
   1b01c: 3a 84        	mv	s0, a4
   1b01e: f6 84        	mv	s1, t4
   1b020: 11 a8        	j	0x1b034 <_vfiprintf_r+0x866>
   1b022: 1b 86 26 00  	addiw	a2, a3, 0x2
   1b026: c1 05        	addi	a1, a1, 0x10
   1b028: aa 86        	mv	a3, a0
   1b02a: 41 34        	addiw	s0, s0, -0x10
   1b02c: 63 50 8f 04  	bge	t5, s0, 0x1b06c <_vfiprintf_r+0x89e>
   1b030: 1b 86 16 00  	addiw	a2, a3, 0x1
   1b034: c1 07        	addi	a5, a5, 0x10
   1b036: 84 e1        	sd	s1, 0x0(a1)
   1b038: 23 b4 e5 01  	sd	t5, 0x8(a1)
   1b03c: 3e e1        	sd	a5, 0x80(sp)
   1b03e: 1b 05 06 00  	sext.w	a0, a2
   1b042: b2 dc        	sw	a2, 0x78(sp)
   1b044: e3 df a3 fc  	bge	t2, a0, 0x1b022 <_vfiprintf_r+0x854>
   1b048: a9 cb        	beqz	a5, 0x1b09a <_vfiprintf_r+0x8cc>
   1b04a: 90 18        	addi	a2, sp, 0x70
   1b04c: d2 85        	mv	a1, s4
   1b04e: 56 85        	mv	a0, s5
   1b050: ef f0 cf ea  	jal	0x1a6fc <__sprint_r.part.0>
   1b054: e3 1f 05 8c  	bnez	a0, 0x1a932 <_vfiprintf_r+0x164>
   1b058: e6 56        	lw	a3, 0x78(sp)
   1b05a: 41 4f        	li	t5, 0x10
   1b05c: 41 34        	addiw	s0, s0, -0x10
   1b05e: 8a 67        	ld	a5, 0x80(sp)
   1b060: ce 85        	mv	a1, s3
   1b062: 1b 86 16 00  	addiw	a2, a3, 0x1
   1b066: 9d 43        	li	t2, 0x7
   1b068: e3 44 8f fc  	blt	t5, s0, 0x1b030 <_vfiprintf_r+0x862>
   1b06c: a6 8e        	mv	t4, s1
   1b06e: e2 6f        	ld	t6, 0x18(sp)
   1b070: 82 72        	ld	t0, 0x20(sp)
   1b072: 22 7e        	ld	t3, 0x28(sp)
   1b074: a6 68        	ld	a7, 0x48(sp)
   1b076: 66 63        	ld	t1, 0x58(sp)
   1b078: c6 64        	ld	s1, 0x50(sp)
   1b07a: 22 87        	mv	a4, s0
   1b07c: 2e 84        	mv	s0, a1
   1b07e: ba 97        	add	a5, a5, a4
   1b080: 18 e4        	sd	a4, 0x8(s0)
   1b082: 23 30 d4 01  	sd	t4, 0x0(s0)
   1b086: 3e e1        	sd	a5, 0x80(sp)
   1b088: b2 dc        	sw	a2, 0x78(sp)
   1b08a: 1d 47        	li	a4, 0x7
   1b08c: 63 49 c7 10  	blt	a4, a2, 0x1b19e <_vfiprintf_r+0x9d0>
   1b090: 41 04        	addi	s0, s0, 0x10
   1b092: 9b 05 16 00  	addiw	a1, a2, 0x1
   1b096: b2 86        	mv	a3, a2
   1b098: 35 b2        	j	0x1a9c4 <_vfiprintf_r+0x1f6>
   1b09a: 81 46        	li	a3, 0x0
   1b09c: 05 46        	li	a2, 0x1
   1b09e: ce 85        	mv	a1, s3
   1b0a0: 69 b7        	j	0x1b02a <_vfiprintf_r+0x85c>
   1b0a2: 82 dc        	sw	zero, 0x78(sp)
   1b0a4: 13 f8 4c 00  	andi	a6, s9, 0x4
   1b0a8: 63 08 08 0a  	beqz	a6, 0x1b158 <_vfiprintf_r+0x98a>
   1b0ac: bb 84 68 40  	subw	s1, a7, t1
   1b0b0: 63 54 90 0a  	blez	s1, 0x1b158 <_vfiprintf_r+0x98a>
   1b0b4: 4e 84        	mv	s0, s3
   1b0b6: 41 47        	li	a4, 0x10
   1b0b8: e6 56        	lw	a3, 0x78(sp)
   1b0ba: 63 57 97 3a  	bge	a4, s1, 0x1b468 <_vfiprintf_r+0xc9a>
   1b0be: b7 0e 02 00  	lui	t4, 0x20
   1b0c2: 93 8e 8e 35  	addi	t4, t4, 0x358
   1b0c6: 22 86        	mv	a2, s0
   1b0c8: c1 4d        	li	s11, 0x10
   1b0ca: 26 84        	mv	s0, s1
   1b0cc: 9d 4c        	li	s9, 0x7
   1b0ce: 46 ec        	sd	a7, 0x18(sp)
   1b0d0: 1a f0        	sd	t1, 0x20(sp)
   1b0d2: f6 84        	mv	s1, t4
   1b0d4: 01 a8        	j	0x1b0e4 <_vfiprintf_r+0x916>
   1b0d6: 1b 87 26 00  	addiw	a4, a3, 0x2
   1b0da: 41 06        	addi	a2, a2, 0x10
   1b0dc: ae 86        	mv	a3, a1
   1b0de: 41 34        	addiw	s0, s0, -0x10
   1b0e0: 63 dc 8d 02  	bge	s11, s0, 0x1b118 <_vfiprintf_r+0x94a>
   1b0e4: 9b 85 16 00  	addiw	a1, a3, 0x1
   1b0e8: c1 07        	addi	a5, a5, 0x10
   1b0ea: 04 e2        	sd	s1, 0x0(a2)
   1b0ec: 23 34 b6 01  	sd	s11, 0x8(a2)
   1b0f0: 3e e1        	sd	a5, 0x80(sp)
   1b0f2: ae dc        	sw	a1, 0x78(sp)
   1b0f4: e3 d1 bc fe  	bge	s9, a1, 0x1b0d6 <_vfiprintf_r+0x908>
   1b0f8: a1 cf        	beqz	a5, 0x1b150 <_vfiprintf_r+0x982>
   1b0fa: 90 18        	addi	a2, sp, 0x70
   1b0fc: d2 85        	mv	a1, s4
   1b0fe: 56 85        	mv	a0, s5
   1b100: ef f0 cf df  	jal	0x1a6fc <__sprint_r.part.0>
   1b104: e3 17 05 82  	bnez	a0, 0x1a932 <_vfiprintf_r+0x164>
   1b108: e6 56        	lw	a3, 0x78(sp)
   1b10a: 41 34        	addiw	s0, s0, -0x10
   1b10c: 8a 67        	ld	a5, 0x80(sp)
   1b10e: 4e 86        	mv	a2, s3
   1b110: 1b 87 16 00  	addiw	a4, a3, 0x1
   1b114: e3 c8 8d fc  	blt	s11, s0, 0x1b0e4 <_vfiprintf_r+0x916>
   1b118: e2 68        	ld	a7, 0x18(sp)
   1b11a: 02 73        	ld	t1, 0x20(sp)
   1b11c: a6 8e        	mv	t4, s1
   1b11e: a2 84        	mv	s1, s0
   1b120: 32 84        	mv	s0, a2
   1b122: a6 97        	add	a5, a5, s1
   1b124: 23 30 d4 01  	sd	t4, 0x0(s0)
   1b128: 04 e4        	sd	s1, 0x8(s0)
   1b12a: 3e e1        	sd	a5, 0x80(sp)
   1b12c: ba dc        	sw	a4, 0x78(sp)
   1b12e: 9d 46        	li	a3, 0x7
   1b130: e3 d5 e6 94  	bge	a3, a4, 0x1aa7a <_vfiprintf_r+0x2ac>
   1b134: 95 c3        	beqz	a5, 0x1b158 <_vfiprintf_r+0x98a>
   1b136: 90 18        	addi	a2, sp, 0x70
   1b138: d2 85        	mv	a1, s4
   1b13a: 56 85        	mv	a0, s5
   1b13c: 1a f0        	sd	t1, 0x20(sp)
   1b13e: 46 ec        	sd	a7, 0x18(sp)
   1b140: ef f0 cf db  	jal	0x1a6fc <__sprint_r.part.0>
   1b144: 63 17 05 fe  	bnez	a0, 0x1a932 <_vfiprintf_r+0x164>
   1b148: 8a 67        	ld	a5, 0x80(sp)
   1b14a: 02 73        	ld	t1, 0x20(sp)
   1b14c: e2 68        	ld	a7, 0x18(sp)
   1b14e: 35 b2        	j	0x1aa7a <_vfiprintf_r+0x2ac>
   1b150: 05 47        	li	a4, 0x1
   1b152: 81 46        	li	a3, 0x0
   1b154: 4e 86        	mv	a2, s3
   1b156: 61 b7        	j	0x1b0de <_vfiprintf_r+0x910>
   1b158: c6 87        	mv	a5, a7
   1b15a: 63 d3 68 00  	bge	a7, t1, 0x1b160 <_vfiprintf_r+0x992>
   1b15e: 9a 87        	mv	a5, t1
   1b160: 3b 8c 87 01  	addw	s8, a5, s8
   1b164: 1d b2        	j	0x1aa8a <_vfiprintf_r+0x2bc>
   1b166: e3 8f 07 c8  	beqz	a5, 0x1ae04 <_vfiprintf_r+0x636>
   1b16a: 90 18        	addi	a2, sp, 0x70
   1b16c: d2 85        	mv	a1, s4
   1b16e: 56 85        	mv	a0, s5
   1b170: 1a f4        	sd	t1, 0x28(sp)
   1b172: 46 f0        	sd	a7, 0x20(sp)
   1b174: 72 ec        	sd	t3, 0x18(sp)
   1b176: ef f0 6f d8  	jal	0x1a6fc <__sprint_r.part.0>
   1b17a: 63 1c 05 fa  	bnez	a0, 0x1a932 <_vfiprintf_r+0x164>
   1b17e: e6 55        	lw	a1, 0x78(sp)
   1b180: 8a 67        	ld	a5, 0x80(sp)
   1b182: 22 73        	ld	t1, 0x28(sp)
   1b184: 82 78        	ld	a7, 0x20(sp)
   1b186: 62 6e        	ld	t3, 0x18(sp)
   1b188: 4e 84        	mv	s0, s3
   1b18a: 85 25        	addiw	a1, a1, 0x1
   1b18c: 75 b0        	j	0x1aa38 <_vfiprintf_r+0x26a>
   1b18e: 82 dc        	sw	zero, 0x78(sp)
   1b190: 4e 84        	mv	s0, s3
   1b192: 6f f0 0f f2  	j	0x1a8b2 <_vfiprintf_r+0xe4>
   1b196: 85 45        	li	a1, 0x1
   1b198: 81 46        	li	a3, 0x0
   1b19a: 4e 84        	mv	s0, s3
   1b19c: 71 b0        	j	0x1aa28 <_vfiprintf_r+0x25a>
   1b19e: 63 87 07 18  	beqz	a5, 0x1b32c <_vfiprintf_r+0xb5e>
   1b1a2: 90 18        	addi	a2, sp, 0x70
   1b1a4: d2 85        	mv	a1, s4
   1b1a6: 56 85        	mv	a0, s5
   1b1a8: 9a e8        	sd	t1, 0x50(sp)
   1b1aa: c6 e4        	sd	a7, 0x48(sp)
   1b1ac: 72 f4        	sd	t3, 0x28(sp)
   1b1ae: 16 f0        	sd	t0, 0x20(sp)
   1b1b0: 7e ec        	sd	t6, 0x18(sp)
   1b1b2: ef f0 af d4  	jal	0x1a6fc <__sprint_r.part.0>
   1b1b6: 63 1e 05 f6  	bnez	a0, 0x1a932 <_vfiprintf_r+0x164>
   1b1ba: e6 56        	lw	a3, 0x78(sp)
   1b1bc: 8a 67        	ld	a5, 0x80(sp)
   1b1be: 46 63        	ld	t1, 0x50(sp)
   1b1c0: a6 68        	ld	a7, 0x48(sp)
   1b1c2: 22 7e        	ld	t3, 0x28(sp)
   1b1c4: 82 72        	ld	t0, 0x20(sp)
   1b1c6: e2 6f        	ld	t6, 0x18(sp)
   1b1c8: 4e 84        	mv	s0, s3
   1b1ca: 9b 85 16 00  	addiw	a1, a3, 0x1
   1b1ce: 6f f0 6f ff  	j	0x1a9c4 <_vfiprintf_r+0x1f6>
   1b1d2: 01 43        	li	t1, 0x0
   1b1d4: 01 4e        	li	t3, 0x0
   1b1d6: 93 0d c1 0e  	addi	s11, sp, 0xec
   1b1da: b5 ba        	j	0x1ab56 <_vfiprintf_r+0x388>
   1b1dc: 13 0e c1 0e  	addi	t3, sp, 0xec
   1b1e0: 62 78        	ld	a6, 0x38(sp)
   1b1e2: 13 ff 0c 40  	andi	t5, s9, 0x400
   1b1e6: 01 46        	li	a2, 0x0
   1b1e8: 72 87        	mv	a4, t3
   1b1ea: a9 46        	li	a3, 0xa
   1b1ec: 25 43        	li	t1, 0x9
   1b1ee: 93 0f f0 0f  	li	t6, 0xff
   1b1f2: 39 a0        	j	0x1b200 <_vfiprintf_r+0xa32>
   1b1f4: b3 d7 db 02  	divu	a5, s7, a3
   1b1f8: 63 77 73 03  	bgeu	t1, s7, 0x1b226 <_vfiprintf_r+0xa58>
   1b1fc: be 8b        	mv	s7, a5
   1b1fe: 6e 87        	mv	a4, s11
   1b200: 93 0d f7 ff  	addi	s11, a4, -0x1
   1b204: 05 26        	addiw	a2, a2, 0x1
   1b206: b3 f7 db 02  	remu	a5, s7, a3
   1b20a: 9b 87 07 03  	addiw	a5, a5, 0x30
   1b20e: a3 0f f7 fe  	sb	a5, -0x1(a4)
   1b212: e3 01 0f fe  	beqz	t5, 0x1b1f4 <_vfiprintf_r+0xa26>
   1b216: 83 47 08 00  	lbu	a5, 0x0(a6)
   1b21a: e3 9d c7 fc  	bne	a5, a2, 0x1b1f4 <_vfiprintf_r+0xa26>
   1b21e: e3 8b f7 fd  	beq	a5, t6, 0x1b1f4 <_vfiprintf_r+0xa26>
   1b222: 63 61 73 13  	bltu	t1, s7, 0x1b344 <_vfiprintf_r+0xb76>
   1b226: 42 fc        	sd	a6, 0x38(sp)
   1b228: 3b 0e be 41  	subw	t3, t3, s11
   1b22c: 1b 83 04 00  	sext.w	t1, s1
   1b230: 63 d4 c4 01  	bge	s1, t3, 0x1b238 <_vfiprintf_r+0xa6a>
   1b234: 1b 03 0e 00  	sext.w	t1, t3
   1b238: f6 8b        	mv	s7, t4
   1b23a: 31 ba        	j	0x1ab56 <_vfiprintf_r+0x388>
   1b23c: 01 43        	li	t1, 0x0
   1b23e: 93 0d c1 0e  	addi	s11, sp, 0xec
   1b242: 11 ba        	j	0x1ab56 <_vfiprintf_r+0x388>
   1b244: 41 04        	addi	s0, s0, 0x10
   1b246: 9b 05 16 00  	addiw	a1, a2, 0x1
   1b24a: b2 86        	mv	a3, a2
   1b24c: 6f f0 4f fe  	j	0x1aa30 <_vfiprintf_r+0x262>
   1b250: 93 77 0e 04  	andi	a5, t3, 0x40
   1b254: 83 ab 0b 00  	lw	s7, 0x0(s7)
   1b258: 63 81 07 1a  	beqz	a5, 0x1b3fa <_vfiprintf_r+0xc2c>
   1b25c: c2 1b        	slli	s7, s7, 0x30
   1b25e: 93 db 0b 03  	srli	s7, s7, 0x30
   1b262: 75 b4        	j	0x1ad0e <_vfiprintf_r+0x540>
   1b264: 13 f6 07 04  	andi	a2, a5, 0x40
   1b268: 03 a7 0b 00  	lw	a4, 0x0(s7)
   1b26c: 63 07 06 16  	beqz	a2, 0x1b3da <_vfiprintf_r+0xc0c>
   1b270: 42 17        	slli	a4, a4, 0x30
   1b272: 41 93        	srli	a4, a4, 0x30
   1b274: 35 b4        	j	0x1aca0 <_vfiprintf_r+0x4d2>
   1b276: 83 47 0d 00  	lbu	a5, 0x0(s10)
   1b27a: 63 0c 07 e4  	beqz	a4, 0x1a8d2 <_vfiprintf_r+0x104>
   1b27e: 03 47 07 00  	lbu	a4, 0x0(a4)
   1b282: 63 08 07 e4  	beqz	a4, 0x1a8d2 <_vfiprintf_r+0x104>
   1b286: 93 ec 0c 40  	ori	s9, s9, 0x400
   1b28a: 81 2c        	sext.w	s9, s9
   1b28c: 6f f0 6f e4  	j	0x1a8d2 <_vfiprintf_r+0x104>
   1b290: 81 46        	li	a3, 0x0
   1b292: 85 45        	li	a1, 0x1
   1b294: 4e 84        	mv	s0, s3
   1b296: 6f f0 2f f9  	j	0x1aa28 <_vfiprintf_r+0x25a>
   1b29a: 1b 03 0e 00  	sext.w	t1, t3
   1b29e: b6 8d        	mv	s11, a3
   1b2a0: 5d b8        	j	0x1ab56 <_vfiprintf_r+0x388>
   1b2a2: fd 54        	li	s1, -0x1
   1b2a4: 36 8d        	mv	s10, a3
   1b2a6: 6f f0 0f e3  	j	0x1a8d6 <_vfiprintf_r+0x108>
   1b2aa: 37 07 02 00  	lui	a4, 0x20
   1b2ae: 13 07 07 b7  	addi	a4, a4, -0x490
   1b2b2: 3a e8        	sd	a4, 0x10(sp)
   1b2b4: 13 f7 0c 02  	andi	a4, s9, 0x20
   1b2b8: 93 86 8b 00  	addi	a3, s7, 0x8
   1b2bc: 31 ef        	bnez	a4, 0x1b318 <_vfiprintf_r+0xb4a>
   1b2be: 13 f7 0c 01  	andi	a4, s9, 0x10
   1b2c2: 39 eb        	bnez	a4, 0x1b318 <_vfiprintf_r+0xb4a>
   1b2c4: 13 f6 0c 04  	andi	a2, s9, 0x40
   1b2c8: 03 a7 0b 00  	lw	a4, 0x0(s7)
   1b2cc: 63 01 06 10  	beqz	a2, 0x1b3ce <_vfiprintf_r+0xc00>
   1b2d0: 42 17        	slli	a4, a4, 0x30
   1b2d2: 41 93        	srli	a4, a4, 0x30
   1b2d4: 13 f6 1c 00  	andi	a2, s9, 0x1
   1b2d8: 01 ce        	beqz	a2, 0x1b2f0 <_vfiprintf_r+0xb22>
   1b2da: 19 cb        	beqz	a4, 0x1b2f0 <_vfiprintf_r+0xb22>
   1b2dc: 13 e8 2c 00  	ori	a6, s9, 0x2
   1b2e0: 13 06 00 03  	li	a2, 0x30
   1b2e4: 23 04 c1 06  	sb	a2, 0x68(sp)
   1b2e8: a3 04 f1 06  	sb	a5, 0x69(sp)
   1b2ec: 9b 0c 08 00  	sext.w	s9, a6
   1b2f0: 13 f8 fc bf  	andi	a6, s9, -0x401
   1b2f4: 9b 0c 08 00  	sext.w	s9, a6
   1b2f8: b6 8b        	mv	s7, a3
   1b2fa: c1 b4        	j	0x1adba <_vfiprintf_r+0x5ec>
   1b2fc: 66 8e        	mv	t3, s9
   1b2fe: ed ba        	j	0x1acf8 <_vfiprintf_r+0x52a>
   1b300: e6 87        	mv	a5, s9
   1b302: 61 b2        	j	0x1ac8a <_vfiprintf_r+0x4bc>
   1b304: 37 07 02 00  	lui	a4, 0x20
   1b308: 13 07 87 b5  	addi	a4, a4, -0x4a8
   1b30c: 3a e8        	sd	a4, 0x10(sp)
   1b30e: 13 f7 0c 02  	andi	a4, s9, 0x20
   1b312: 93 86 8b 00  	addi	a3, s7, 0x8
   1b316: 45 d7        	beqz	a4, 0x1b2be <_vfiprintf_r+0xaf0>
   1b318: 03 b7 0b 00  	ld	a4, 0x0(s7)
   1b31c: 65 bf        	j	0x1b2d4 <_vfiprintf_r+0xb06>
   1b31e: 6e 85        	mv	a0, s11
   1b320: ef b0 3f c2  	jal	0x16f42 <strlen>
   1b324: e2 68        	ld	a7, 0x18(sp)
   1b326: 1b 0e 05 00  	sext.w	t3, a0
   1b32a: b1 b8        	j	0x1ab86 <_vfiprintf_r+0x3b8>
   1b32c: 03 47 71 06  	lbu	a4, 0x67(sp)
   1b330: 65 c7        	beqz	a4, 0x1b418 <_vfiprintf_r+0xc4a>
   1b332: 93 07 71 06  	addi	a5, sp, 0x67
   1b336: be f9        	sd	a5, 0xf0(sp)
   1b338: 85 47        	li	a5, 0x1
   1b33a: be fd        	sd	a5, 0xf8(sp)
   1b33c: 85 45        	li	a1, 0x1
   1b33e: 4e 84        	mv	s0, s3
   1b340: 6f f0 0f ea  	j	0x1a9e0 <_vfiprintf_r+0x212>
   1b344: c2 77        	ld	a5, 0x30(sp)
   1b346: 86 65        	ld	a1, 0x40(sp)
   1b348: f2 e4        	sd	t3, 0x48(sp)
   1b34a: b3 8d fd 40  	sub	s11, s11, a5
   1b34e: 3e 86        	mv	a2, a5
   1b350: 6e 85        	mv	a0, s11
   1b352: 76 fc        	sd	t4, 0x38(sp)
   1b354: 7a f4        	sd	t5, 0x28(sp)
   1b356: 46 f0        	sd	a7, 0x20(sp)
   1b358: 42 ec        	sd	a6, 0x18(sp)
   1b35a: ef 00 f0 16  	jal	0x1bcc8 <strncpy>
   1b35e: 62 68        	ld	a6, 0x18(sp)
   1b360: a9 47        	li	a5, 0xa
   1b362: b3 d7 fb 02  	divu	a5, s7, a5
   1b366: 03 47 18 00  	lbu	a4, 0x1(a6)
   1b36a: 82 78        	ld	a7, 0x20(sp)
   1b36c: 22 7f        	ld	t5, 0x28(sp)
   1b36e: 33 37 e0 00  	snez	a4, a4
   1b372: e2 7e        	ld	t4, 0x38(sp)
   1b374: 26 6e        	ld	t3, 0x48(sp)
   1b376: 3a 98        	add	a6, a6, a4
   1b378: 01 46        	li	a2, 0x0
   1b37a: a9 46        	li	a3, 0xa
   1b37c: 25 43        	li	t1, 0x9
   1b37e: 93 0f f0 0f  	li	t6, 0xff
   1b382: ad bd        	j	0x1b1fc <_vfiprintf_r+0xa2e>
   1b384: be 8c        	mv	s9, a5
   1b386: 81 47        	li	a5, 0x0
   1b388: e3 88 07 9a  	beqz	a5, 0x1ad38 <_vfiprintf_r+0x56a>
   1b38c: 89 b1        	j	0x1afce <_vfiprintf_r+0x800>
   1b38e: ef a0 5f 93  	jal	0x15cc2 <__sinit>
   1b392: 6f f0 af c5  	j	0x1a7ec <_vfiprintf_r+0x1e>
   1b396: 93 ec 0c 20  	ori	s9, s9, 0x200
   1b39a: 83 47 1d 00  	lbu	a5, 0x1(s10)
   1b39e: 81 2c        	sext.w	s9, s9
   1b3a0: 05 0d        	addi	s10, s10, 0x1
   1b3a2: 6f f0 0f d3  	j	0x1a8d2 <_vfiprintf_r+0x104>
   1b3a6: 93 ec 0c 02  	ori	s9, s9, 0x20
   1b3aa: 83 47 1d 00  	lbu	a5, 0x1(s10)
   1b3ae: 81 2c        	sext.w	s9, s9
   1b3b0: 05 0d        	addi	s10, s10, 0x1
   1b3b2: 6f f0 0f d2  	j	0x1a8d2 <_vfiprintf_r+0x104>
   1b3b6: 99 47        	li	a5, 0x6
   1b3b8: 1b 8e 04 00  	sext.w	t3, s1
   1b3bc: 63 ec 97 04  	bltu	a5, s1, 0x1b414 <_vfiprintf_r+0xc46>
   1b3c0: b7 0d 02 00  	lui	s11, 0x20
   1b3c4: 72 83        	mv	t1, t3
   1b3c6: 93 8d 8d b8  	addi	s11, s11, -0x478
   1b3ca: 6f f0 cf dd  	j	0x1a9a6 <_vfiprintf_r+0x1d8>
   1b3ce: 13 f6 0c 20  	andi	a2, s9, 0x200
   1b3d2: 3d c6        	beqz	a2, 0x1b440 <_vfiprintf_r+0xc72>
   1b3d4: 13 77 f7 0f  	andi	a4, a4, 0xff
   1b3d8: f5 bd        	j	0x1b2d4 <_vfiprintf_r+0xb06>
   1b3da: 13 f6 07 20  	andi	a2, a5, 0x200
   1b3de: 31 ce        	beqz	a2, 0x1b43a <_vfiprintf_r+0xc6c>
   1b3e0: 13 77 f7 0f  	andi	a4, a4, 0xff
   1b3e4: 75 b8        	j	0x1aca0 <_vfiprintf_r+0x4d2>
   1b3e6: 93 f7 0c 20  	andi	a5, s9, 0x200
   1b3ea: a9 c7        	beqz	a5, 0x1b434 <_vfiprintf_r+0xc66>
   1b3ec: 9b 9b 8b 01  	slliw	s7, s7, 0x18
   1b3f0: 9b db 8b 41  	sraiw	s7, s7, 0x18
   1b3f4: de 87        	mv	a5, s7
   1b3f6: 6f f0 ef eb  	j	0x1aab4 <_vfiprintf_r+0x2e6>
   1b3fa: 93 77 0e 20  	andi	a5, t3, 0x200
   1b3fe: 9d c7        	beqz	a5, 0x1b42c <_vfiprintf_r+0xc5e>
   1b400: 93 fb fb 0f  	andi	s7, s7, 0xff
   1b404: 29 b2        	j	0x1ad0e <_vfiprintf_r+0x540>
   1b406: 01 47        	li	a4, 0x0
   1b408: d9 b6        	j	0x1afce <_vfiprintf_r+0x800>
   1b40a: 85 45        	li	a1, 0x1
   1b40c: 81 46        	li	a3, 0x0
   1b40e: 4e 84        	mv	s0, s3
   1b410: 6f f0 0f e2  	j	0x1aa30 <_vfiprintf_r+0x262>
   1b414: 19 4e        	li	t3, 0x6
   1b416: 6d b7        	j	0x1b3c0 <_vfiprintf_r+0xbf2>
   1b418: 81 46        	li	a3, 0x0
   1b41a: 85 45        	li	a1, 0x1
   1b41c: 4e 84        	mv	s0, s3
   1b41e: 6f f0 8f dc  	j	0x1a9e6 <_vfiprintf_r+0x218>
   1b422: 23 10 87 01  	sh	s8, 0x0(a4)
   1b426: a1 0b        	addi	s7, s7, 0x8
   1b428: 6f f0 af c3  	j	0x1a862 <_vfiprintf_r+0x94>
   1b42c: 82 1b        	slli	s7, s7, 0x20
   1b42e: 93 db 0b 02  	srli	s7, s7, 0x20
   1b432: f1 b8        	j	0x1ad0e <_vfiprintf_r+0x540>
   1b434: de 87        	mv	a5, s7
   1b436: 6f f0 ef e7  	j	0x1aab4 <_vfiprintf_r+0x2e6>
   1b43a: 02 17        	slli	a4, a4, 0x20
   1b43c: 01 93        	srli	a4, a4, 0x20
   1b43e: 8d b0        	j	0x1aca0 <_vfiprintf_r+0x4d2>
   1b440: 02 17        	slli	a4, a4, 0x20
   1b442: 01 93        	srli	a4, a4, 0x20
   1b444: 41 bd        	j	0x1b2d4 <_vfiprintf_r+0xb06>
   1b446: 90 18        	addi	a2, sp, 0x70
   1b448: d2 85        	mv	a1, s4
   1b44a: 56 85        	mv	a0, s5
   1b44c: ef f0 0f ab  	jal	0x1a6fc <__sprint_r.part.0>
   1b450: 6f f0 2f ce  	j	0x1a932 <_vfiprintf_r+0x164>
   1b454: b7 0e 02 00  	lui	t4, 0x20
   1b458: 93 8e 8e 35  	addi	t4, t4, 0x358
   1b45c: 0d b1        	j	0x1b07e <_vfiprintf_r+0x8b0>
   1b45e: f6 8b        	mv	s7, t4
   1b460: 93 07 00 03  	li	a5, 0x30
   1b464: 6f f0 ef ed  	j	0x1ab42 <_vfiprintf_r+0x374>
   1b468: b7 0e 02 00  	lui	t4, 0x20
   1b46c: 1b 87 16 00  	addiw	a4, a3, 0x1
   1b470: 93 8e 8e 35  	addi	t4, t4, 0x358
   1b474: 7d b1        	j	0x1b122 <_vfiprintf_r+0x954>
   1b476: b7 0e 02 00  	lui	t4, 0x20
   1b47a: 2e 86        	mv	a2, a1
   1b47c: 93 8e 8e 34  	addi	t4, t4, 0x348
   1b480: 19 bc        	j	0x1ae96 <_vfiprintf_r+0x6c8>
   1b482: 7d 5c        	li	s8, -0x1
   1b484: 6f f0 8f cc  	j	0x1a94c <_vfiprintf_r+0x17e>
   1b488: 23 20 87 01  	sw	s8, 0x0(a4)
   1b48c: a1 0b        	addi	s7, s7, 0x8
   1b48e: 6f f0 4f bd  	j	0x1a862 <_vfiprintf_r+0x94>
   1b492: 83 a7 0b 00  	lw	a5, 0x0(s7)
   1b496: a1 0b        	addi	s7, s7, 0x8
   1b498: 9b 84 07 00  	sext.w	s1, a5
   1b49c: 63 d3 07 00  	bgez	a5, 0x1b4a2 <_vfiprintf_r+0xcd4>
   1b4a0: fd 54        	li	s1, -0x1
   1b4a2: 83 47 1d 00  	lbu	a5, 0x1(s10)
   1b4a6: 36 8d        	mv	s10, a3
   1b4a8: 6f f0 af c2  	j	0x1a8d2 <_vfiprintf_r+0x104>

000000000001b4ac <vfiprintf>:
   1b4ac: aa 87        	mv	a5, a0
   1b4ae: 03 b5 01 23  	ld	a0, 0x230(gp)
   1b4b2: b2 86        	mv	a3, a2
   1b4b4: 2e 86        	mv	a2, a1
   1b4b6: be 85        	mv	a1, a5
   1b4b8: 6f f0 6f b1  	j	0x1a7ce <_vfiprintf_r>

000000000001b4bc <__sbprintf>:
   1b4bc: 13 01 01 b3  	addi	sp, sp, -0x4d0
   1b4c0: 03 d7 25 01  	lhu	a4, 0x12(a1)
   1b4c4: 83 d7 05 01  	lhu	a5, 0x10(a1)
   1b4c8: 23 30 81 4c  	sd	s0, 0x4c0(sp)
   1b4cc: 2e 84        	mv	s0, a1
   1b4ce: c1 65        	lui	a1, 0x10
   1b4d0: f5 35        	addiw	a1, a1, -0x3
   1b4d2: 03 2e c4 0a  	lw	t3, 0xac(s0)
   1b4d6: 03 33 04 03  	ld	t1, 0x30(s0)
   1b4da: 83 38 04 04  	ld	a7, 0x40(s0)
   1b4de: 1b 17 07 01  	slliw	a4, a4, 0x10
   1b4e2: ed 8f        	and	a5, a5, a1
   1b4e4: d9 8f        	or	a5, a5, a4
   1b4e6: 13 08 00 40  	li	a6, 0x400
   1b4ea: 3e c8        	sw	a5, 0x10(sp)
   1b4ec: 8a 85        	mv	a1, sp
   1b4ee: 1c 19        	addi	a5, sp, 0xb0
   1b4f0: 23 3c 91 4a  	sd	s1, 0x4b8(sp)
   1b4f4: 23 38 21 4b  	sd	s2, 0x4b0(sp)
   1b4f8: 23 34 11 4c  	sd	ra, 0x4c8(sp)
   1b4fc: 2a 89        	mv	s2, a0
   1b4fe: 72 d7        	sw	t3, 0xac(sp)
   1b500: 1a f8        	sd	t1, 0x30(sp)
   1b502: c6 e0        	sd	a7, 0x40(sp)
   1b504: 3e e0        	sd	a5, 0x0(sp)
   1b506: 3e ec        	sd	a5, 0x18(sp)
   1b508: 42 c6        	sw	a6, 0xc(sp)
   1b50a: 42 d0        	sw	a6, 0x20(sp)
   1b50c: 02 d4        	sw	zero, 0x28(sp)
   1b50e: ef f0 0f ac  	jal	0x1a7ce <_vfiprintf_r>
   1b512: aa 84        	mv	s1, a0
   1b514: 63 59 05 02  	bgez	a0, 0x1b546 <__sbprintf+0x8a>
   1b518: 83 57 01 01  	lhu	a5, 0x10(sp)
   1b51c: 93 f7 07 04  	andi	a5, a5, 0x40
   1b520: 99 c7        	beqz	a5, 0x1b52e <__sbprintf+0x72>
   1b522: 83 57 04 01  	lhu	a5, 0x10(s0)
   1b526: 93 e7 07 04  	ori	a5, a5, 0x40
   1b52a: 23 18 f4 00  	sh	a5, 0x10(s0)
   1b52e: 83 30 81 4c  	ld	ra, 0x4c8(sp)
   1b532: 03 34 01 4c  	ld	s0, 0x4c0(sp)
   1b536: 03 39 01 4b  	ld	s2, 0x4b0(sp)
   1b53a: 26 85        	mv	a0, s1
   1b53c: 83 34 81 4b  	ld	s1, 0x4b8(sp)
   1b540: 13 01 01 4d  	addi	sp, sp, 0x4d0
   1b544: 82 80        	ret
   1b546: 8a 85        	mv	a1, sp
   1b548: 4a 85        	mv	a0, s2
   1b54a: ef a0 af b5  	jal	0x158a4 <_fflush_r>
   1b54e: 69 d5        	beqz	a0, 0x1b518 <__sbprintf+0x5c>
   1b550: fd 54        	li	s1, -0x1
   1b552: d9 b7        	j	0x1b518 <__sbprintf+0x5c>

000000000001b554 <__sflags>:
   1b554: 83 c7 05 00  	lbu	a5, 0x0(a1)
   1b558: 13 07 20 07  	li	a4, 0x72
   1b55c: 63 82 e7 06  	beq	a5, a4, 0x1b5c0 <__sflags+0x6c>
   1b560: 13 07 70 07  	li	a4, 0x77
   1b564: 63 8a e7 00  	beq	a5, a4, 0x1b578 <__sflags+0x24>
   1b568: 13 07 10 06  	li	a4, 0x61
   1b56c: 63 8e e7 04  	beq	a5, a4, 0x1b5c8 <__sflags+0x74>
   1b570: d9 47        	li	a5, 0x16
   1b572: 1c c1        	sw	a5, 0x0(a0)
   1b574: 01 45        	li	a0, 0x0
   1b576: 82 80        	ret
   1b578: 13 03 00 60  	li	t1, 0x600
   1b57c: 05 47        	li	a4, 0x1
   1b57e: 21 45        	li	a0, 0x8
   1b580: 83 c7 15 00  	lbu	a5, 0x1(a1)
   1b584: 85 68        	lui	a7, 0x1
   1b586: 85 05        	addi	a1, a1, 0x1
   1b588: 93 06 b0 02  	li	a3, 0x2b
   1b58c: 13 08 80 07  	li	a6, 0x78
   1b590: 93 88 08 80  	addi	a7, a7, -0x800
   1b594: 99 cb        	beqz	a5, 0x1b5aa <__sflags+0x56>
   1b596: 63 8e d7 00  	beq	a5, a3, 0x1b5b2 <__sflags+0x5e>
   1b59a: 63 94 07 01  	bne	a5, a6, 0x1b5a2 <__sflags+0x4e>
   1b59e: 33 67 17 01  	or	a4, a4, a7
   1b5a2: 83 c7 15 00  	lbu	a5, 0x1(a1)
   1b5a6: 85 05        	addi	a1, a1, 0x1
   1b5a8: fd f7        	bnez	a5, 0x1b596 <__sflags+0x42>
   1b5aa: b3 67 e3 00  	or	a5, t1, a4
   1b5ae: 1c c2        	sw	a5, 0x0(a2)
   1b5b0: 82 80        	ret
   1b5b2: 0d 99        	andi	a0, a0, -0x1d
   1b5b4: 71 9b        	andi	a4, a4, -0x4
   1b5b6: 13 65 05 01  	ori	a0, a0, 0x10
   1b5ba: 13 67 27 00  	ori	a4, a4, 0x2
   1b5be: d5 b7        	j	0x1b5a2 <__sflags+0x4e>
   1b5c0: 01 43        	li	t1, 0x0
   1b5c2: 01 47        	li	a4, 0x0
   1b5c4: 11 45        	li	a0, 0x4
   1b5c6: 6d bf        	j	0x1b580 <__sflags+0x2c>
   1b5c8: 13 03 80 20  	li	t1, 0x208
   1b5cc: 05 47        	li	a4, 0x1
   1b5ce: 13 05 80 10  	li	a0, 0x108
   1b5d2: 7d b7        	j	0x1b580 <__sflags+0x2c>

000000000001b5d4 <__sfvwrite_r>:
   1b5d4: 1c 6a        	ld	a5, 0x10(a2)
   1b5d6: 63 8b 07 1c  	beqz	a5, 0x1b7ac <__sfvwrite_r+0x1d8>
   1b5da: 03 97 05 01  	lh	a4, 0x10(a1)
   1b5de: 1d 71        	addi	sp, sp, -0x60
   1b5e0: a2 e8        	sd	s0, 0x50(sp)
   1b5e2: 56 f4        	sd	s5, 0x28(sp)
   1b5e4: 5e ec        	sd	s7, 0x18(sp)
   1b5e6: 86 ec        	sd	ra, 0x58(sp)
   1b5e8: 93 77 87 00  	andi	a5, a4, 0x8
   1b5ec: b2 8b        	mv	s7, a2
   1b5ee: aa 8a        	mv	s5, a0
   1b5f0: 2e 84        	mv	s0, a1
   1b5f2: b5 c7        	beqz	a5, 0x1b65e <__sfvwrite_r+0x8a>
   1b5f4: 9c 6d        	ld	a5, 0x18(a1)
   1b5f6: a5 c7        	beqz	a5, 0x1b65e <__sfvwrite_r+0x8a>
   1b5f8: a6 e4        	sd	s1, 0x48(sp)
   1b5fa: ca e0        	sd	s2, 0x40(sp)
   1b5fc: 4e fc        	sd	s3, 0x38(sp)
   1b5fe: 52 f8        	sd	s4, 0x30(sp)
   1b600: 93 77 27 00  	andi	a5, a4, 0x2
   1b604: 83 b4 0b 00  	ld	s1, 0x0(s7)
   1b608: a5 cf        	beqz	a5, 0x1b680 <__sfvwrite_r+0xac>
   1b60a: 3c 60        	ld	a5, 0x40(s0)
   1b60c: 0c 78        	ld	a1, 0x30(s0)
   1b60e: 37 0a 00 80  	lui	s4, 0x80000
   1b612: 81 49        	li	s3, 0x0
   1b614: 01 49        	li	s2, 0x0
   1b616: 13 4a 0a c0  	xori	s4, s4, -0x400
   1b61a: 4e 86        	mv	a2, s3
   1b61c: 56 85        	mv	a0, s5
   1b61e: 63 0a 09 02  	beqz	s2, 0x1b652 <__sfvwrite_r+0x7e>
   1b622: ca 86        	mv	a3, s2
   1b624: 63 73 2a 01  	bgeu	s4, s2, 0x1b62a <__sfvwrite_r+0x56>
   1b628: d2 86        	mv	a3, s4
   1b62a: 81 26        	sext.w	a3, a3
   1b62c: 82 97        	jalr	a5
   1b62e: 63 58 a0 2e  	blez	a0, 0x1b91e <__sfvwrite_r+0x34a>
   1b632: 83 b7 0b 01  	ld	a5, 0x10(s7)
   1b636: aa 99        	add	s3, s3, a0
   1b638: 33 09 a9 40  	sub	s2, s2, a0
   1b63c: 89 8f        	sub	a5, a5, a0
   1b63e: 23 b8 fb 00  	sd	a5, 0x10(s7)
   1b642: 63 81 07 12  	beqz	a5, 0x1b764 <__sfvwrite_r+0x190>
   1b646: 3c 60        	ld	a5, 0x40(s0)
   1b648: 0c 78        	ld	a1, 0x30(s0)
   1b64a: 4e 86        	mv	a2, s3
   1b64c: 56 85        	mv	a0, s5
   1b64e: e3 1a 09 fc  	bnez	s2, 0x1b622 <__sfvwrite_r+0x4e>
   1b652: 83 b9 04 00  	ld	s3, 0x0(s1)
   1b656: 03 b9 84 00  	ld	s2, 0x8(s1)
   1b65a: c1 04        	addi	s1, s1, 0x10
   1b65c: 7d bf        	j	0x1b61a <__sfvwrite_r+0x46>
   1b65e: a2 85        	mv	a1, s0
   1b660: 56 85        	mv	a0, s5
   1b662: ef 00 20 47  	jal	0x1bad4 <__swsetup_r>
   1b666: 63 1c 05 12  	bnez	a0, 0x1b79e <__sfvwrite_r+0x1ca>
   1b66a: 03 17 04 01  	lh	a4, 0x10(s0)
   1b66e: a6 e4        	sd	s1, 0x48(sp)
   1b670: ca e0        	sd	s2, 0x40(sp)
   1b672: 4e fc        	sd	s3, 0x38(sp)
   1b674: 52 f8        	sd	s4, 0x30(sp)
   1b676: 93 77 27 00  	andi	a5, a4, 0x2
   1b67a: 83 b4 0b 00  	ld	s1, 0x0(s7)
   1b67e: d1 f7        	bnez	a5, 0x1b60a <__sfvwrite_r+0x36>
   1b680: 5a f0        	sd	s6, 0x20(sp)
   1b682: 62 e8        	sd	s8, 0x10(sp)
   1b684: 66 e4        	sd	s9, 0x8(sp)
   1b686: 93 77 17 00  	andi	a5, a4, 0x1
   1b68a: ad eb        	bnez	a5, 0x1b6fc <__sfvwrite_r+0x128>
   1b68c: 03 2a c4 00  	lw	s4, 0xc(s0)
   1b690: 1c 60        	ld	a5, 0x0(s0)
   1b692: 37 0b 00 80  	lui	s6, 0x80000
   1b696: 01 4c        	li	s8, 0x0
   1b698: 01 49        	li	s2, 0x0
   1b69a: 13 4b fb ff  	not	s6, s6
   1b69e: 3e 85        	mv	a0, a5
   1b6a0: 63 08 09 04  	beqz	s2, 0x1b6f0 <__sfvwrite_r+0x11c>
   1b6a4: 93 76 07 20  	andi	a3, a4, 0x200
   1b6a8: 63 86 06 14  	beqz	a3, 0x1b7f4 <__sfvwrite_r+0x220>
   1b6ac: 63 75 49 1b  	bgeu	s2, s4, 0x1b856 <__sfvwrite_r+0x282>
   1b6b0: ca 8c        	mv	s9, s2
   1b6b2: 4a 8a        	mv	s4, s2
   1b6b4: 52 86        	mv	a2, s4
   1b6b6: e2 85        	mv	a1, s8
   1b6b8: ef 00 40 72  	jal	0x1bddc <memmove>
   1b6bc: 58 44        	lw	a4, 0xc(s0)
   1b6be: 1c 60        	ld	a5, 0x0(s0)
   1b6c0: ca 89        	mv	s3, s2
   1b6c2: 3b 07 97 41  	subw	a4, a4, s9
   1b6c6: 3e 9a        	add	s4, s4, a5
   1b6c8: 58 c4        	sw	a4, 0xc(s0)
   1b6ca: 23 30 44 01  	sd	s4, 0x0(s0)
   1b6ce: 01 49        	li	s2, 0x0
   1b6d0: 83 b7 0b 01  	ld	a5, 0x10(s7)
   1b6d4: 4e 9c        	add	s8, s8, s3
   1b6d6: b3 87 37 41  	sub	a5, a5, s3
   1b6da: 23 b8 fb 00  	sd	a5, 0x10(s7)
   1b6de: c1 c3        	beqz	a5, 0x1b75e <__sfvwrite_r+0x18a>
   1b6e0: 1c 60        	ld	a5, 0x0(s0)
   1b6e2: 03 17 04 01  	lh	a4, 0x10(s0)
   1b6e6: 03 2a c4 00  	lw	s4, 0xc(s0)
   1b6ea: 3e 85        	mv	a0, a5
   1b6ec: e3 1c 09 fa  	bnez	s2, 0x1b6a4 <__sfvwrite_r+0xd0>
   1b6f0: 03 bc 04 00  	ld	s8, 0x0(s1)
   1b6f4: 03 b9 84 00  	ld	s2, 0x8(s1)
   1b6f8: c1 04        	addi	s1, s1, 0x10
   1b6fa: 55 b7        	j	0x1b69e <__sfvwrite_r+0xca>
   1b6fc: 01 4b        	li	s6, 0x0
   1b6fe: 01 45        	li	a0, 0x0
   1b700: 81 4c        	li	s9, 0x0
   1b702: 01 4c        	li	s8, 0x0
   1b704: 63 06 0c 0a  	beqz	s8, 0x1b7b0 <__sfvwrite_r+0x1dc>
   1b708: 45 cd        	beqz	a0, 0x1b7c0 <__sfvwrite_r+0x1ec>
   1b70a: 5a 8a        	mv	s4, s6
   1b70c: 63 73 6c 01  	bgeu	s8, s6, 0x1b712 <__sfvwrite_r+0x13e>
   1b710: 62 8a        	mv	s4, s8
   1b712: 08 60        	ld	a0, 0x0(s0)
   1b714: 18 6c        	ld	a4, 0x18(s0)
   1b716: 5c 44        	lw	a5, 0xc(s0)
   1b718: 14 50        	lw	a3, 0x20(s0)
   1b71a: 52 89        	mv	s2, s4
   1b71c: 63 76 a7 00  	bgeu	a4, a0, 0x1b728 <__sfvwrite_r+0x154>
   1b720: bb 89 d7 00  	addw	s3, a5, a3
   1b724: 63 c9 49 0b  	blt	s3, s4, 0x1b7d6 <__sfvwrite_r+0x202>
   1b728: 63 43 da 1a  	blt	s4, a3, 0x1b8ce <__sfvwrite_r+0x2fa>
   1b72c: 3c 60        	ld	a5, 0x40(s0)
   1b72e: 0c 78        	ld	a1, 0x30(s0)
   1b730: 66 86        	mv	a2, s9
   1b732: 56 85        	mv	a0, s5
   1b734: 82 97        	jalr	a5
   1b736: 2a 89        	mv	s2, a0
   1b738: 63 56 a0 04  	blez	a0, 0x1b784 <__sfvwrite_r+0x1b0>
   1b73c: 9b 07 05 00  	sext.w	a5, a0
   1b740: 3b 0b fb 40  	subw	s6, s6, a5
   1b744: 05 45        	li	a0, 0x1
   1b746: 63 0a 0b 02  	beqz	s6, 0x1b77a <__sfvwrite_r+0x1a6>
   1b74a: 83 b7 0b 01  	ld	a5, 0x10(s7)
   1b74e: ca 9c        	add	s9, s9, s2
   1b750: 33 0c 2c 41  	sub	s8, s8, s2
   1b754: b3 87 27 41  	sub	a5, a5, s2
   1b758: 23 b8 fb 00  	sd	a5, 0x10(s7)
   1b75c: c5 f7        	bnez	a5, 0x1b704 <__sfvwrite_r+0x130>
   1b75e: 02 7b        	ld	s6, 0x20(sp)
   1b760: 42 6c        	ld	s8, 0x10(sp)
   1b762: a2 6c        	ld	s9, 0x8(sp)
   1b764: e6 60        	ld	ra, 0x58(sp)
   1b766: 46 64        	ld	s0, 0x50(sp)
   1b768: a6 64        	ld	s1, 0x48(sp)
   1b76a: 06 69        	ld	s2, 0x40(sp)
   1b76c: e2 79        	ld	s3, 0x38(sp)
   1b76e: 42 7a        	ld	s4, 0x30(sp)
   1b770: a2 7a        	ld	s5, 0x28(sp)
   1b772: e2 6b        	ld	s7, 0x18(sp)
   1b774: 01 45        	li	a0, 0x0
   1b776: 25 61        	addi	sp, sp, 0x60
   1b778: 82 80        	ret
   1b77a: a2 85        	mv	a1, s0
   1b77c: 56 85        	mv	a0, s5
   1b77e: ef a0 6f 92  	jal	0x158a4 <_fflush_r>
   1b782: 61 d5        	beqz	a0, 0x1b74a <__sfvwrite_r+0x176>
   1b784: 83 17 04 01  	lh	a5, 0x10(s0)
   1b788: 02 7b        	ld	s6, 0x20(sp)
   1b78a: 42 6c        	ld	s8, 0x10(sp)
   1b78c: a2 6c        	ld	s9, 0x8(sp)
   1b78e: a6 64        	ld	s1, 0x48(sp)
   1b790: 06 69        	ld	s2, 0x40(sp)
   1b792: e2 79        	ld	s3, 0x38(sp)
   1b794: 42 7a        	ld	s4, 0x30(sp)
   1b796: 93 e7 07 04  	ori	a5, a5, 0x40
   1b79a: 23 18 f4 00  	sh	a5, 0x10(s0)
   1b79e: e6 60        	ld	ra, 0x58(sp)
   1b7a0: 46 64        	ld	s0, 0x50(sp)
   1b7a2: a2 7a        	ld	s5, 0x28(sp)
   1b7a4: e2 6b        	ld	s7, 0x18(sp)
   1b7a6: 7d 55        	li	a0, -0x1
   1b7a8: 25 61        	addi	sp, sp, 0x60
   1b7aa: 82 80        	ret
   1b7ac: 01 45        	li	a0, 0x0
   1b7ae: 82 80        	ret
   1b7b0: 03 bc 84 00  	ld	s8, 0x8(s1)
   1b7b4: a6 87        	mv	a5, s1
   1b7b6: c1 04        	addi	s1, s1, 0x10
   1b7b8: e3 0c 0c fe  	beqz	s8, 0x1b7b0 <__sfvwrite_r+0x1dc>
   1b7bc: 83 bc 07 00  	ld	s9, 0x0(a5)
   1b7c0: 62 86        	mv	a2, s8
   1b7c2: a9 45        	li	a1, 0xa
   1b7c4: 66 85        	mv	a0, s9
   1b7c6: ef b0 cf 8f  	jal	0x168c2 <memchr>
   1b7ca: 63 07 05 14  	beqz	a0, 0x1b918 <__sfvwrite_r+0x344>
   1b7ce: 05 05        	addi	a0, a0, 0x1
   1b7d0: 3b 0b 95 41  	subw	s6, a0, s9
   1b7d4: 1d bf        	j	0x1b70a <__sfvwrite_r+0x136>
   1b7d6: e6 85        	mv	a1, s9
   1b7d8: 4e 86        	mv	a2, s3
   1b7da: ef 00 20 60  	jal	0x1bddc <memmove>
   1b7de: 1c 60        	ld	a5, 0x0(s0)
   1b7e0: a2 85        	mv	a1, s0
   1b7e2: 56 85        	mv	a0, s5
   1b7e4: ce 97        	add	a5, a5, s3
   1b7e6: 1c e0        	sd	a5, 0x0(s0)
   1b7e8: ef a0 cf 8b  	jal	0x158a4 <_fflush_r>
   1b7ec: 41 fd        	bnez	a0, 0x1b784 <__sfvwrite_r+0x1b0>
   1b7ee: ce 87        	mv	a5, s3
   1b7f0: 4e 89        	mv	s2, s3
   1b7f2: b9 b7        	j	0x1b740 <__sfvwrite_r+0x16c>
   1b7f4: 18 6c        	ld	a4, 0x18(s0)
   1b7f6: 63 67 f7 02  	bltu	a4, a5, 0x1b824 <__sfvwrite_r+0x250>
   1b7fa: 18 50        	lw	a4, 0x20(s0)
   1b7fc: 63 64 e9 02  	bltu	s2, a4, 0x1b824 <__sfvwrite_r+0x250>
   1b800: ca 86        	mv	a3, s2
   1b802: 63 73 2b 01  	bgeu	s6, s2, 0x1b808 <__sfvwrite_r+0x234>
   1b806: da 86        	mv	a3, s6
   1b808: 3b e7 e6 02  	remw	a4, a3, a4
   1b80c: 3c 60        	ld	a5, 0x40(s0)
   1b80e: 0c 78        	ld	a1, 0x30(s0)
   1b810: 62 86        	mv	a2, s8
   1b812: 56 85        	mv	a0, s5
   1b814: 99 9e        	subw	a3, a3, a4
   1b816: 82 97        	jalr	a5
   1b818: aa 89        	mv	s3, a0
   1b81a: e3 55 a0 f6  	blez	a0, 0x1b784 <__sfvwrite_r+0x1b0>
   1b81e: 33 09 39 41  	sub	s2, s2, s3
   1b822: 7d b5        	j	0x1b6d0 <__sfvwrite_r+0xfc>
   1b824: d2 89        	mv	s3, s4
   1b826: 63 73 49 01  	bgeu	s2, s4, 0x1b82c <__sfvwrite_r+0x258>
   1b82a: ca 89        	mv	s3, s2
   1b82c: 3e 85        	mv	a0, a5
   1b82e: 4e 86        	mv	a2, s3
   1b830: e2 85        	mv	a1, s8
   1b832: ef 00 a0 5a  	jal	0x1bddc <memmove>
   1b836: 58 44        	lw	a4, 0xc(s0)
   1b838: 1c 60        	ld	a5, 0x0(s0)
   1b83a: bb 06 37 41  	subw	a3, a4, s3
   1b83e: ce 97        	add	a5, a5, s3
   1b840: 54 c4        	sw	a3, 0xc(s0)
   1b842: 1c e0        	sd	a5, 0x0(s0)
   1b844: e9 fe        	bnez	a3, 0x1b81e <__sfvwrite_r+0x24a>
   1b846: a2 85        	mv	a1, s0
   1b848: 56 85        	mv	a0, s5
   1b84a: ef a0 af 85  	jal	0x158a4 <_fflush_r>
   1b84e: 1d f9        	bnez	a0, 0x1b784 <__sfvwrite_r+0x1b0>
   1b850: 33 09 39 41  	sub	s2, s2, s3
   1b854: b5 bd        	j	0x1b6d0 <__sfvwrite_r+0xfc>
   1b856: 93 76 07 48  	andi	a3, a4, 0x480
   1b85a: c1 ca        	beqz	a3, 0x1b8ea <__sfvwrite_r+0x316>
   1b85c: 10 50        	lw	a2, 0x20(s0)
   1b85e: 0c 6c        	ld	a1, 0x18(s0)
   1b860: 9b 16 16 00  	slliw	a3, a2, 0x1
   1b864: b1 9e        	addw	a3, a3, a2
   1b866: 8d 8f        	sub	a5, a5, a1
   1b868: 9b d9 f6 01  	srliw	s3, a3, 0x1f
   1b86c: 9b 8c 07 00  	sext.w	s9, a5
   1b870: bb 89 d9 00  	addw	s3, s3, a3
   1b874: 93 86 1c 00  	addi	a3, s9, 0x1
   1b878: 9b d9 19 40  	sraiw	s3, s3, 0x1
   1b87c: ca 96        	add	a3, a3, s2
   1b87e: 63 f6 d9 00  	bgeu	s3, a3, 0x1b88a <__sfvwrite_r+0x2b6>
   1b882: 9b 86 17 00  	addiw	a3, a5, 0x1
   1b886: bb 89 26 01  	addw	s3, a3, s2
   1b88a: 13 77 07 40  	andi	a4, a4, 0x400
   1b88e: 25 c3        	beqz	a4, 0x1b8ee <__sfvwrite_r+0x31a>
   1b890: ce 85        	mv	a1, s3
   1b892: 56 85        	mv	a0, s5
   1b894: ef 80 4f dd  	jal	0x13e68 <_malloc_r>
   1b898: 2a 8a        	mv	s4, a0
   1b89a: 49 c5        	beqz	a0, 0x1b924 <__sfvwrite_r+0x350>
   1b89c: 0c 6c        	ld	a1, 0x18(s0)
   1b89e: 66 86        	mv	a2, s9
   1b8a0: ef b0 cf d5  	jal	0x16dfc <memcpy>
   1b8a4: 83 57 04 01  	lhu	a5, 0x10(s0)
   1b8a8: 93 f7 f7 b7  	andi	a5, a5, -0x481
   1b8ac: 93 e7 07 08  	ori	a5, a5, 0x80
   1b8b0: 23 18 f4 00  	sh	a5, 0x10(s0)
   1b8b4: 33 05 9a 01  	add	a0, s4, s9
   1b8b8: bb 87 99 41  	subw	a5, s3, s9
   1b8bc: 23 3c 44 01  	sd	s4, 0x18(s0)
   1b8c0: 08 e0        	sd	a0, 0x0(s0)
   1b8c2: 23 20 34 03  	sw	s3, 0x20(s0)
   1b8c6: ca 8c        	mv	s9, s2
   1b8c8: 5c c4        	sw	a5, 0xc(s0)
   1b8ca: 4a 8a        	mv	s4, s2
   1b8cc: e5 b3        	j	0x1b6b4 <__sfvwrite_r+0xe0>
   1b8ce: 52 86        	mv	a2, s4
   1b8d0: e6 85        	mv	a1, s9
   1b8d2: ef 00 a0 50  	jal	0x1bddc <memmove>
   1b8d6: 54 44        	lw	a3, 0xc(s0)
   1b8d8: 18 60        	ld	a4, 0x0(s0)
   1b8da: 9b 07 0a 00  	sext.w	a5, s4
   1b8de: bb 86 46 41  	subw	a3, a3, s4
   1b8e2: 52 97        	add	a4, a4, s4
   1b8e4: 54 c4        	sw	a3, 0xc(s0)
   1b8e6: 18 e0        	sd	a4, 0x0(s0)
   1b8e8: a1 bd        	j	0x1b740 <__sfvwrite_r+0x16c>
   1b8ea: d2 8c        	mv	s9, s4
   1b8ec: e1 b3        	j	0x1b6b4 <__sfvwrite_r+0xe0>
   1b8ee: 4e 86        	mv	a2, s3
   1b8f0: 56 85        	mv	a0, s5
   1b8f2: ef 10 f0 51  	jal	0x1d610 <_realloc_r>
   1b8f6: 2a 8a        	mv	s4, a0
   1b8f8: 55 fd        	bnez	a0, 0x1b8b4 <__sfvwrite_r+0x2e0>
   1b8fa: 0c 6c        	ld	a1, 0x18(s0)
   1b8fc: 56 85        	mv	a0, s5
   1b8fe: ef b0 bf 98  	jal	0x17288 <_free_r>
   1b902: 83 17 04 01  	lh	a5, 0x10(s0)
   1b906: 31 47        	li	a4, 0xc
   1b908: 02 7b        	ld	s6, 0x20(sp)
   1b90a: 42 6c        	ld	s8, 0x10(sp)
   1b90c: a2 6c        	ld	s9, 0x8(sp)
   1b90e: 23 a0 ea 00  	sw	a4, 0x0(s5)
   1b912: 93 f7 f7 f7  	andi	a5, a5, -0x81
   1b916: a5 bd        	j	0x1b78e <__sfvwrite_r+0x1ba>
   1b918: 1b 0b 1c 00  	addiw	s6, s8, 0x1
   1b91c: fd b3        	j	0x1b70a <__sfvwrite_r+0x136>
   1b91e: 83 17 04 01  	lh	a5, 0x10(s0)
   1b922: b5 b5        	j	0x1b78e <__sfvwrite_r+0x1ba>
   1b924: 31 47        	li	a4, 0xc
   1b926: 83 17 04 01  	lh	a5, 0x10(s0)
   1b92a: 02 7b        	ld	s6, 0x20(sp)
   1b92c: 42 6c        	ld	s8, 0x10(sp)
   1b92e: a2 6c        	ld	s9, 0x8(sp)
   1b930: 23 a0 ea 00  	sw	a4, 0x0(s5)
   1b934: a9 bd        	j	0x1b78e <__sfvwrite_r+0x1ba>

000000000001b936 <__smakebuf_r>:
   1b936: 83 97 05 01  	lh	a5, 0x10(a1)
   1b93a: 35 71        	addi	sp, sp, -0xa0
   1b93c: 22 e9        	sd	s0, 0x90(sp)
   1b93e: 06 ed        	sd	ra, 0x98(sp)
   1b940: 13 f7 27 00  	andi	a4, a5, 0x2
   1b944: 2e 84        	mv	s0, a1
   1b946: 19 cb        	beqz	a4, 0x1b95c <__smakebuf_r+0x26>
   1b948: 93 87 75 07  	addi	a5, a1, 0x77
   1b94c: 9c e1        	sd	a5, 0x0(a1)
   1b94e: 9c ed        	sd	a5, 0x18(a1)
   1b950: 85 47        	li	a5, 0x1
   1b952: 9c d1        	sw	a5, 0x20(a1)
   1b954: ea 60        	ld	ra, 0x98(sp)
   1b956: 4a 64        	ld	s0, 0x90(sp)
   1b958: 0d 61        	addi	sp, sp, 0xa0
   1b95a: 82 80        	ret
   1b95c: 83 95 25 01  	lh	a1, 0x12(a1)
   1b960: 26 e5        	sd	s1, 0x88(sp)
   1b962: 4a e1        	sd	s2, 0x80(sp)
   1b964: ce fc        	sd	s3, 0x78(sp)
   1b966: d2 f8        	sd	s4, 0x70(sp)
   1b968: aa 84        	mv	s1, a0
   1b96a: 63 c4 05 06  	bltz	a1, 0x1b9d2 <__smakebuf_r+0x9c>
   1b96e: 30 00        	addi	a2, sp, 0x8
   1b970: ef b0 af a0  	jal	0x16b7a <_fstat_r>
   1b974: 63 4d 05 04  	bltz	a0, 0x1b9ce <__smakebuf_r+0x98>
   1b978: 32 49        	lw	s2, 0xc(sp)
   1b97a: bd 67        	lui	a5, 0xf
   1b97c: 85 69        	lui	s3, 0x1
   1b97e: 33 79 f9 00  	and	s2, s2, a5
   1b982: 89 67        	lui	a5, 0x2
   1b984: 33 09 f9 40  	sub	s2, s2, a5
   1b988: 13 39 19 00  	seqz	s2, s2
   1b98c: 13 0a 00 40  	li	s4, 0x400
   1b990: 93 89 09 80  	addi	s3, s3, -0x800
   1b994: d2 85        	mv	a1, s4
   1b996: 26 85        	mv	a0, s1
   1b998: ef 80 0f cd  	jal	0x13e68 <_malloc_r>
   1b99c: 83 17 04 01  	lh	a5, 0x10(s0)
   1b9a0: 39 c5        	beqz	a0, 0x1b9ee <__smakebuf_r+0xb8>
   1b9a2: 93 e7 07 08  	ori	a5, a5, 0x80
   1b9a6: 08 e0        	sd	a0, 0x0(s0)
   1b9a8: 08 ec        	sd	a0, 0x18(s0)
   1b9aa: 23 18 f4 00  	sh	a5, 0x10(s0)
   1b9ae: 23 20 44 03  	sw	s4, 0x20(s0)
   1b9b2: 63 15 09 06  	bnez	s2, 0x1ba1c <__smakebuf_r+0xe6>
   1b9b6: b3 e7 37 01  	or	a5, a5, s3
   1b9ba: ea 60        	ld	ra, 0x98(sp)
   1b9bc: 23 18 f4 00  	sh	a5, 0x10(s0)
   1b9c0: 4a 64        	ld	s0, 0x90(sp)
   1b9c2: aa 64        	ld	s1, 0x88(sp)
   1b9c4: 0a 69        	ld	s2, 0x80(sp)
   1b9c6: e6 79        	ld	s3, 0x78(sp)
   1b9c8: 46 7a        	ld	s4, 0x70(sp)
   1b9ca: 0d 61        	addi	sp, sp, 0xa0
   1b9cc: 82 80        	ret
   1b9ce: 83 17 04 01  	lh	a5, 0x10(s0)
   1b9d2: 93 f7 07 08  	andi	a5, a5, 0x80
   1b9d6: 01 49        	li	s2, 0x0
   1b9d8: 95 cf        	beqz	a5, 0x1ba14 <__smakebuf_r+0xde>
   1b9da: 13 0a 00 04  	li	s4, 0x40
   1b9de: d2 85        	mv	a1, s4
   1b9e0: 26 85        	mv	a0, s1
   1b9e2: ef 80 6f c8  	jal	0x13e68 <_malloc_r>
   1b9e6: 83 17 04 01  	lh	a5, 0x10(s0)
   1b9ea: 81 49        	li	s3, 0x0
   1b9ec: 5d f9        	bnez	a0, 0x1b9a2 <__smakebuf_r+0x6c>
   1b9ee: 13 f7 07 20  	andi	a4, a5, 0x200
   1b9f2: 15 ef        	bnez	a4, 0x1ba2e <__smakebuf_r+0xf8>
   1b9f4: f1 9b        	andi	a5, a5, -0x4
   1b9f6: 93 e7 27 00  	ori	a5, a5, 0x2
   1b9fa: 13 07 74 07  	addi	a4, s0, 0x77
   1b9fe: 23 18 f4 00  	sh	a5, 0x10(s0)
   1ba02: 85 47        	li	a5, 0x1
   1ba04: aa 64        	ld	s1, 0x88(sp)
   1ba06: 0a 69        	ld	s2, 0x80(sp)
   1ba08: e6 79        	ld	s3, 0x78(sp)
   1ba0a: 46 7a        	ld	s4, 0x70(sp)
   1ba0c: 18 e0        	sd	a4, 0x0(s0)
   1ba0e: 18 ec        	sd	a4, 0x18(s0)
   1ba10: 1c d0        	sw	a5, 0x20(s0)
   1ba12: 89 b7        	j	0x1b954 <__smakebuf_r+0x1e>
   1ba14: 13 0a 00 40  	li	s4, 0x400
   1ba18: 81 49        	li	s3, 0x0
   1ba1a: ad bf        	j	0x1b994 <__smakebuf_r+0x5e>
   1ba1c: 83 15 24 01  	lh	a1, 0x12(s0)
   1ba20: 26 85        	mv	a0, s1
   1ba22: ef 00 c0 34  	jal	0x1bd6e <_isatty_r>
   1ba26: 09 e9        	bnez	a0, 0x1ba38 <__smakebuf_r+0x102>
   1ba28: 83 17 04 01  	lh	a5, 0x10(s0)
   1ba2c: 69 b7        	j	0x1b9b6 <__smakebuf_r+0x80>
   1ba2e: aa 64        	ld	s1, 0x88(sp)
   1ba30: 0a 69        	ld	s2, 0x80(sp)
   1ba32: e6 79        	ld	s3, 0x78(sp)
   1ba34: 46 7a        	ld	s4, 0x70(sp)
   1ba36: 39 bf        	j	0x1b954 <__smakebuf_r+0x1e>
   1ba38: 83 57 04 01  	lhu	a5, 0x10(s0)
   1ba3c: f1 9b        	andi	a5, a5, -0x4
   1ba3e: 93 e7 17 00  	ori	a5, a5, 0x1
   1ba42: 9b 97 07 01  	slliw	a5, a5, 0x10
   1ba46: 9b d7 07 41  	sraiw	a5, a5, 0x10
   1ba4a: b5 b7        	j	0x1b9b6 <__smakebuf_r+0x80>

000000000001ba4c <__swhatbuf_r>:
   1ba4c: 75 71        	addi	sp, sp, -0x90
   1ba4e: 22 e1        	sd	s0, 0x80(sp)
   1ba50: 2e 84        	mv	s0, a1
   1ba52: 83 95 25 01  	lh	a1, 0x12(a1)
   1ba56: a6 fc        	sd	s1, 0x78(sp)
   1ba58: ca f8        	sd	s2, 0x70(sp)
   1ba5a: 06 e5        	sd	ra, 0x88(sp)
   1ba5c: b2 84        	mv	s1, a2
   1ba5e: 36 89        	mv	s2, a3
   1ba60: 63 cc 05 02  	bltz	a1, 0x1ba98 <__swhatbuf_r+0x4c>
   1ba64: 30 00        	addi	a2, sp, 0x8
   1ba66: ef b0 4f 91  	jal	0x16b7a <_fstat_r>
   1ba6a: 63 47 05 02  	bltz	a0, 0x1ba98 <__swhatbuf_r+0x4c>
   1ba6e: b2 47        	lw	a5, 0xc(sp)
   1ba70: 3d 67        	lui	a4, 0xf
   1ba72: aa 60        	ld	ra, 0x88(sp)
   1ba74: f9 8f        	and	a5, a5, a4
   1ba76: 09 67        	lui	a4, 0x2
   1ba78: 99 8f        	sub	a5, a5, a4
   1ba7a: 0a 64        	ld	s0, 0x80(sp)
   1ba7c: 93 b7 17 00  	seqz	a5, a5
   1ba80: 23 20 f9 00  	sw	a5, 0x0(s2)
   1ba84: 13 07 00 40  	li	a4, 0x400
   1ba88: 98 e0        	sd	a4, 0x0(s1)
   1ba8a: 05 65        	lui	a0, 0x1
   1ba8c: e6 74        	ld	s1, 0x78(sp)
   1ba8e: 46 79        	ld	s2, 0x70(sp)
   1ba90: 13 05 05 80  	addi	a0, a0, -0x800
   1ba94: 49 61        	addi	sp, sp, 0x90
   1ba96: 82 80        	ret
   1ba98: 83 57 04 01  	lhu	a5, 0x10(s0)
   1ba9c: 93 f7 07 08  	andi	a5, a5, 0x80
   1baa0: 91 cf        	beqz	a5, 0x1babc <__swhatbuf_r+0x70>
   1baa2: aa 60        	ld	ra, 0x88(sp)
   1baa4: 0a 64        	ld	s0, 0x80(sp)
   1baa6: 81 47        	li	a5, 0x0
   1baa8: 23 20 f9 00  	sw	a5, 0x0(s2)
   1baac: 13 07 00 04  	li	a4, 0x40
   1bab0: 98 e0        	sd	a4, 0x0(s1)
   1bab2: 46 79        	ld	s2, 0x70(sp)
   1bab4: e6 74        	ld	s1, 0x78(sp)
   1bab6: 01 45        	li	a0, 0x0
   1bab8: 49 61        	addi	sp, sp, 0x90
   1baba: 82 80        	ret
   1babc: aa 60        	ld	ra, 0x88(sp)
   1babe: 0a 64        	ld	s0, 0x80(sp)
   1bac0: 23 20 f9 00  	sw	a5, 0x0(s2)
   1bac4: 13 07 00 40  	li	a4, 0x400
   1bac8: 98 e0        	sd	a4, 0x0(s1)
   1baca: 46 79        	ld	s2, 0x70(sp)
   1bacc: e6 74        	ld	s1, 0x78(sp)
   1bace: 01 45        	li	a0, 0x0
   1bad0: 49 61        	addi	sp, sp, 0x90
   1bad2: 82 80        	ret

000000000001bad4 <__swsetup_r>:
   1bad4: 83 b7 01 23  	ld	a5, 0x230(gp)
   1bad8: 01 11        	addi	sp, sp, -0x20
   1bada: 22 e8        	sd	s0, 0x10(sp)
   1badc: 26 e4        	sd	s1, 0x8(sp)
   1bade: 06 ec        	sd	ra, 0x18(sp)
   1bae0: aa 84        	mv	s1, a0
   1bae2: 2e 84        	mv	s0, a1
   1bae4: 99 c3        	beqz	a5, 0x1baea <__swsetup_r+0x16>
   1bae6: b8 67        	ld	a4, 0x48(a5)
   1bae8: 5d c7        	beqz	a4, 0x1bb96 <__swsetup_r+0xc2>
   1baea: 83 17 04 01  	lh	a5, 0x10(s0)
   1baee: 13 f7 87 00  	andi	a4, a5, 0x8
   1baf2: 21 c7        	beqz	a4, 0x1bb3a <__swsetup_r+0x66>
   1baf4: 18 6c        	ld	a4, 0x18(s0)
   1baf6: 31 cf        	beqz	a4, 0x1bb52 <__swsetup_r+0x7e>
   1baf8: 93 f6 17 00  	andi	a3, a5, 0x1
   1bafc: 91 ce        	beqz	a3, 0x1bb18 <__swsetup_r+0x44>
   1bafe: 14 50        	lw	a3, 0x20(s0)
   1bb00: 23 26 04 00  	sw	zero, 0xc(s0)
   1bb04: 01 45        	li	a0, 0x0
   1bb06: bb 06 d0 40  	negw	a3, a3
   1bb0a: 14 d4        	sw	a3, 0x28(s0)
   1bb0c: 11 cf        	beqz	a4, 0x1bb28 <__swsetup_r+0x54>
   1bb0e: e2 60        	ld	ra, 0x18(sp)
   1bb10: 42 64        	ld	s0, 0x10(sp)
   1bb12: a2 64        	ld	s1, 0x8(sp)
   1bb14: 05 61        	addi	sp, sp, 0x20
   1bb16: 82 80        	ret
   1bb18: 93 f6 27 00  	andi	a3, a5, 0x2
   1bb1c: 01 46        	li	a2, 0x0
   1bb1e: 91 e2        	bnez	a3, 0x1bb22 <__swsetup_r+0x4e>
   1bb20: 10 50        	lw	a2, 0x20(s0)
   1bb22: 50 c4        	sw	a2, 0xc(s0)
   1bb24: 01 45        	li	a0, 0x0
   1bb26: 65 f7        	bnez	a4, 0x1bb0e <__swsetup_r+0x3a>
   1bb28: 13 f7 07 08  	andi	a4, a5, 0x80
   1bb2c: 6d d3        	beqz	a4, 0x1bb0e <__swsetup_r+0x3a>
   1bb2e: 93 e7 07 04  	ori	a5, a5, 0x40
   1bb32: 23 18 f4 00  	sh	a5, 0x10(s0)
   1bb36: 7d 55        	li	a0, -0x1
   1bb38: d9 bf        	j	0x1bb0e <__swsetup_r+0x3a>
   1bb3a: 13 f7 07 01  	andi	a4, a5, 0x10
   1bb3e: 25 c3        	beqz	a4, 0x1bb9e <__swsetup_r+0xca>
   1bb40: 13 f7 47 00  	andi	a4, a5, 0x4
   1bb44: 0d e7        	bnez	a4, 0x1bb6e <__swsetup_r+0x9a>
   1bb46: 18 6c        	ld	a4, 0x18(s0)
   1bb48: 93 e7 87 00  	ori	a5, a5, 0x8
   1bb4c: 23 18 f4 00  	sh	a5, 0x10(s0)
   1bb50: 45 f7        	bnez	a4, 0x1baf8 <__swsetup_r+0x24>
   1bb52: 93 f6 07 28  	andi	a3, a5, 0x280
   1bb56: 13 06 00 20  	li	a2, 0x200
   1bb5a: e3 8f c6 f8  	beq	a3, a2, 0x1baf8 <__swsetup_r+0x24>
   1bb5e: a2 85        	mv	a1, s0
   1bb60: 26 85        	mv	a0, s1
   1bb62: ef f0 5f dd  	jal	0x1b936 <__smakebuf_r>
   1bb66: 83 17 04 01  	lh	a5, 0x10(s0)
   1bb6a: 18 6c        	ld	a4, 0x18(s0)
   1bb6c: 71 b7        	j	0x1baf8 <__swsetup_r+0x24>
   1bb6e: 2c 6c        	ld	a1, 0x58(s0)
   1bb70: 81 cd        	beqz	a1, 0x1bb88 <__swsetup_r+0xb4>
   1bb72: 13 07 44 07  	addi	a4, s0, 0x74
   1bb76: 63 87 e5 00  	beq	a1, a4, 0x1bb84 <__swsetup_r+0xb0>
   1bb7a: 26 85        	mv	a0, s1
   1bb7c: ef b0 cf f0  	jal	0x17288 <_free_r>
   1bb80: 83 17 04 01  	lh	a5, 0x10(s0)
   1bb84: 23 3c 04 04  	sd	zero, 0x58(s0)
   1bb88: 18 6c        	ld	a4, 0x18(s0)
   1bb8a: 93 f7 b7 fd  	andi	a5, a5, -0x25
   1bb8e: 23 24 04 00  	sw	zero, 0x8(s0)
   1bb92: 18 e0        	sd	a4, 0x0(s0)
   1bb94: 55 bf        	j	0x1bb48 <__swsetup_r+0x74>
   1bb96: 3e 85        	mv	a0, a5
   1bb98: ef a0 af 92  	jal	0x15cc2 <__sinit>
   1bb9c: b9 b7        	j	0x1baea <__swsetup_r+0x16>
   1bb9e: 25 47        	li	a4, 0x9
   1bba0: 98 c0        	sw	a4, 0x0(s1)
   1bba2: 93 e7 07 04  	ori	a5, a5, 0x40
   1bba6: 23 18 f4 00  	sh	a5, 0x10(s0)
   1bbaa: 7d 55        	li	a0, -0x1
   1bbac: 8d b7        	j	0x1bb0e <__swsetup_r+0x3a>

000000000001bbae <__fputwc>:
   1bbae: 79 71        	addi	sp, sp, -0x30
   1bbb0: 22 f0        	sd	s0, 0x20(sp)
   1bbb2: 26 ec        	sd	s1, 0x18(sp)
   1bbb4: 4a e8        	sd	s2, 0x10(sp)
   1bbb6: 06 f4        	sd	ra, 0x28(sp)
   1bbb8: 2a 89        	mv	s2, a0
   1bbba: ae 84        	mv	s1, a1
   1bbbc: 32 84        	mv	s0, a2
   1bbbe: ef a0 7f eb  	jal	0x16a74 <__locale_mb_cur_max>
   1bbc2: 85 47        	li	a5, 0x1
   1bbc4: 63 1b f5 00  	bne	a0, a5, 0x1bbda <__fputwc+0x2c>
   1bbc8: 9b 87 f4 ff  	addiw	a5, s1, -0x1
   1bbcc: 13 07 e0 0f  	li	a4, 0xfe
   1bbd0: 63 65 f7 00  	bltu	a4, a5, 0x1bbda <__fputwc+0x2c>
   1bbd4: 23 04 91 00  	sb	s1, 0x8(sp)
   1bbd8: 21 a8        	j	0x1bbf0 <__fputwc+0x42>
   1bbda: 93 06 44 0a  	addi	a3, s0, 0xa4
   1bbde: 26 86        	mv	a2, s1
   1bbe0: 2c 00        	addi	a1, sp, 0x8
   1bbe2: 4a 85        	mv	a0, s2
   1bbe4: ef 10 70 62  	jal	0x1da0a <_wcrtomb_r>
   1bbe8: fd 57        	li	a5, -0x1
   1bbea: 63 0d f5 04  	beq	a0, a5, 0x1bc44 <__fputwc+0x96>
   1bbee: 0d c5        	beqz	a0, 0x1bc18 <__fputwc+0x6a>
   1bbf0: 5c 44        	lw	a5, 0xc(s0)
   1bbf2: 83 45 81 00  	lbu	a1, 0x8(sp)
   1bbf6: 1b 87 f7 ff  	addiw	a4, a5, -0x1
   1bbfa: 58 c4        	sw	a4, 0xc(s0)
   1bbfc: 63 58 07 00  	bgez	a4, 0x1bc0c <__fputwc+0x5e>
   1bc00: 1c 54        	lw	a5, 0x28(s0)
   1bc02: 63 43 f7 02  	blt	a4, a5, 0x1bc28 <__fputwc+0x7a>
   1bc06: a9 47        	li	a5, 0xa
   1bc08: 63 80 f5 02  	beq	a1, a5, 0x1bc28 <__fputwc+0x7a>
   1bc0c: 1c 60        	ld	a5, 0x0(s0)
   1bc0e: 13 87 17 00  	addi	a4, a5, 0x1
   1bc12: 18 e0        	sd	a4, 0x0(s0)
   1bc14: 23 80 b7 00  	sb	a1, 0x0(a5)
   1bc18: a2 70        	ld	ra, 0x28(sp)
   1bc1a: 02 74        	ld	s0, 0x20(sp)
   1bc1c: 42 69        	ld	s2, 0x10(sp)
   1bc1e: 1b 85 04 00  	sext.w	a0, s1
   1bc22: e2 64        	ld	s1, 0x18(sp)
   1bc24: 45 61        	addi	sp, sp, 0x30
   1bc26: 82 80        	ret
   1bc28: 22 86        	mv	a2, s0
   1bc2a: 4a 85        	mv	a0, s2
   1bc2c: ef 10 10 6c  	jal	0x1daec <__swbuf_r>
   1bc30: fd 57        	li	a5, -0x1
   1bc32: e3 13 f5 fe  	bne	a0, a5, 0x1bc18 <__fputwc+0x6a>
   1bc36: 7d 55        	li	a0, -0x1
   1bc38: a2 70        	ld	ra, 0x28(sp)
   1bc3a: 02 74        	ld	s0, 0x20(sp)
   1bc3c: e2 64        	ld	s1, 0x18(sp)
   1bc3e: 42 69        	ld	s2, 0x10(sp)
   1bc40: 45 61        	addi	sp, sp, 0x30
   1bc42: 82 80        	ret
   1bc44: 83 57 04 01  	lhu	a5, 0x10(s0)
   1bc48: 7d 55        	li	a0, -0x1
   1bc4a: 93 e7 07 04  	ori	a5, a5, 0x40
   1bc4e: 23 18 f4 00  	sh	a5, 0x10(s0)
   1bc52: dd b7        	j	0x1bc38 <__fputwc+0x8a>

000000000001bc54 <_fputwc_r>:
   1bc54: 83 17 06 01  	lh	a5, 0x10(a2)
   1bc58: 13 97 27 03  	slli	a4, a5, 0x32
   1bc5c: 63 4c 07 00  	bltz	a4, 0x1bc74 <_fputwc_r+0x20>
   1bc60: 03 27 c6 0a  	lw	a4, 0xac(a2)
   1bc64: 89 66        	lui	a3, 0x2
   1bc66: d5 8f        	or	a5, a5, a3
   1bc68: 89 66        	lui	a3, 0x2
   1bc6a: 55 8f        	or	a4, a4, a3
   1bc6c: 23 18 f6 00  	sh	a5, 0x10(a2)
   1bc70: 23 26 e6 0a  	sw	a4, 0xac(a2)
   1bc74: 6f f0 bf f3  	j	0x1bbae <__fputwc>

000000000001bc78 <fputwc>:
   1bc78: 01 11        	addi	sp, sp, -0x20
   1bc7a: 22 e8        	sd	s0, 0x10(sp)
   1bc7c: 03 b4 01 23  	ld	s0, 0x230(gp)
   1bc80: 06 ec        	sd	ra, 0x18(sp)
   1bc82: 2e 86        	mv	a2, a1
   1bc84: aa 85        	mv	a1, a0
   1bc86: 19 c0        	beqz	s0, 0x1bc8c <fputwc+0x14>
   1bc88: 3c 64        	ld	a5, 0x48(s0)
   1bc8a: 9d c7        	beqz	a5, 0x1bcb8 <fputwc+0x40>
   1bc8c: 83 17 06 01  	lh	a5, 0x10(a2)
   1bc90: 13 97 27 03  	slli	a4, a5, 0x32
   1bc94: 63 4c 07 00  	bltz	a4, 0x1bcac <fputwc+0x34>
   1bc98: 03 27 c6 0a  	lw	a4, 0xac(a2)
   1bc9c: 89 66        	lui	a3, 0x2
   1bc9e: d5 8f        	or	a5, a5, a3
   1bca0: 89 66        	lui	a3, 0x2
   1bca2: 55 8f        	or	a4, a4, a3
   1bca4: 23 18 f6 00  	sh	a5, 0x10(a2)
   1bca8: 23 26 e6 0a  	sw	a4, 0xac(a2)
   1bcac: 22 85        	mv	a0, s0
   1bcae: 42 64        	ld	s0, 0x10(sp)
   1bcb0: e2 60        	ld	ra, 0x18(sp)
   1bcb2: 05 61        	addi	sp, sp, 0x20
   1bcb4: 6f f0 bf ef  	j	0x1bbae <__fputwc>
   1bcb8: 2a e0        	sd	a0, 0x0(sp)
   1bcba: 22 85        	mv	a0, s0
   1bcbc: 32 e4        	sd	a2, 0x8(sp)
   1bcbe: ef a0 4f 80  	jal	0x15cc2 <__sinit>
   1bcc2: 22 66        	ld	a2, 0x8(sp)
   1bcc4: 82 65        	ld	a1, 0x0(sp)
   1bcc6: d9 b7        	j	0x1bc8c <fputwc+0x14>

000000000001bcc8 <strncpy>:
   1bcc8: b3 e7 a5 00  	or	a5, a1, a0
   1bccc: 9d 8b        	andi	a5, a5, 0x7
   1bcce: 81 e7        	bnez	a5, 0x1bcd6 <strncpy+0xe>
   1bcd0: 9d 47        	li	a5, 0x7
   1bcd2: 63 eb c7 02  	bltu	a5, a2, 0x1bd08 <strncpy+0x40>
   1bcd6: 2a 87        	mv	a4, a0
   1bcd8: 11 a8        	j	0x1bcec <strncpy+0x24>
   1bcda: 83 c6 f5 ff  	lbu	a3, -0x1(a1)
   1bcde: 13 08 f6 ff  	addi	a6, a2, -0x1
   1bce2: a3 8f d7 fe  	sb	a3, -0x1(a5)
   1bce6: 81 ca        	beqz	a3, 0x1bcf6 <strncpy+0x2e>
   1bce8: 3e 87        	mv	a4, a5
   1bcea: 42 86        	mv	a2, a6
   1bcec: 85 05        	addi	a1, a1, 0x1
   1bcee: 93 07 17 00  	addi	a5, a4, 0x1
   1bcf2: 65 f6        	bnez	a2, 0x1bcda <strncpy+0x12>
   1bcf4: 82 80        	ret
   1bcf6: 32 97        	add	a4, a4, a2
   1bcf8: 63 01 08 06  	beqz	a6, 0x1bd5a <strncpy+0x92>
   1bcfc: 85 07        	addi	a5, a5, 0x1
   1bcfe: a3 8f 07 fe  	sb	zero, -0x1(a5)
   1bd02: e3 9d e7 fe  	bne	a5, a4, 0x1bcfc <strncpy+0x34>
   1bd06: 82 80        	ret
   1bd08: 37 18 10 f0  	lui	a6, 0xf0101
   1bd0c: b7 08 ff fe  	lui	a7, 0xfeff0
   1bd10: 12 08        	slli	a6, a6, 0x4
   1bd12: 93 88 f8 ef  	addi	a7, a7, -0x101
   1bd16: 13 08 18 10  	addi	a6, a6, 0x101
   1bd1a: c2 08        	slli	a7, a7, 0x10
   1bd1c: 42 08        	slli	a6, a6, 0x10
   1bd1e: 93 88 f8 ef  	addi	a7, a7, -0x101
   1bd22: 13 08 18 10  	addi	a6, a6, 0x101
   1bd26: c2 08        	slli	a7, a7, 0x10
   1bd28: 3e 08        	slli	a6, a6, 0xf
   1bd2a: 2a 87        	mv	a4, a0
   1bd2c: 93 88 f8 ef  	addi	a7, a7, -0x101
   1bd30: 13 08 08 08  	addi	a6, a6, 0x80
   1bd34: 1d 4e        	li	t3, 0x7
   1bd36: 39 a0        	j	0x1bd44 <strncpy+0x7c>
   1bd38: 14 e3        	sd	a3, 0x0(a4)
   1bd3a: 61 16        	addi	a2, a2, -0x8
   1bd3c: 21 07        	addi	a4, a4, 0x8
   1bd3e: a1 05        	addi	a1, a1, 0x8
   1bd40: e3 76 ce fa  	bgeu	t3, a2, 0x1bcec <strncpy+0x24>
   1bd44: 94 61        	ld	a3, 0x0(a1)
   1bd46: b3 87 16 01  	add	a5, a3, a7
   1bd4a: 13 c3 f6 ff  	not	t1, a3
   1bd4e: b3 f7 67 00  	and	a5, a5, t1
   1bd52: b3 f7 07 01  	and	a5, a5, a6
   1bd56: ed d3        	beqz	a5, 0x1bd38 <strncpy+0x70>
   1bd58: 51 bf        	j	0x1bcec <strncpy+0x24>
   1bd5a: 82 80        	ret

000000000001bd5c <__localeconv_l>:
   1bd5c: 13 05 05 10  	addi	a0, a0, 0x100
   1bd60: 82 80        	ret

000000000001bd62 <_localeconv_r>:
   1bd62: 13 85 01 e8  	addi	a0, gp, -0x180
   1bd66: 82 80        	ret

000000000001bd68 <localeconv>:
   1bd68: 13 85 01 e8  	addi	a0, gp, -0x180
   1bd6c: 82 80        	ret

000000000001bd6e <_isatty_r>:
   1bd6e: 01 11        	addi	sp, sp, -0x20
   1bd70: 22 e8        	sd	s0, 0x10(sp)
   1bd72: 26 e4        	sd	s1, 0x8(sp)
   1bd74: 2a 84        	mv	s0, a0
   1bd76: 2e 85        	mv	a0, a1
   1bd78: 06 ec        	sd	ra, 0x18(sp)
   1bd7a: 23 a0 01 26  	sw	zero, 0x260(gp)
   1bd7e: ef 20 00 29  	jal	0x1e00e <_isatty>
   1bd82: fd 57        	li	a5, -0x1
   1bd84: 63 07 f5 00  	beq	a0, a5, 0x1bd92 <_isatty_r+0x24>
   1bd88: e2 60        	ld	ra, 0x18(sp)
   1bd8a: 42 64        	ld	s0, 0x10(sp)
   1bd8c: a2 64        	ld	s1, 0x8(sp)
   1bd8e: 05 61        	addi	sp, sp, 0x20
   1bd90: 82 80        	ret
   1bd92: 83 a7 01 26  	lw	a5, 0x260(gp)
   1bd96: ed db        	beqz	a5, 0x1bd88 <_isatty_r+0x1a>
   1bd98: e2 60        	ld	ra, 0x18(sp)
   1bd9a: 1c c0        	sw	a5, 0x0(s0)
   1bd9c: 42 64        	ld	s0, 0x10(sp)
   1bd9e: a2 64        	ld	s1, 0x8(sp)
   1bda0: 05 61        	addi	sp, sp, 0x20
   1bda2: 82 80        	ret

000000000001bda4 <__libc_fini_array>:
   1bda4: 01 11        	addi	sp, sp, -0x20
   1bda6: 22 e8        	sd	s0, 0x10(sp)
   1bda8: b7 17 02 00  	lui	a5, 0x21
   1bdac: 37 14 02 00  	lui	s0, 0x21
   1bdb0: 93 87 87 7e  	addi	a5, a5, 0x7e8
   1bdb4: 13 04 04 7f  	addi	s0, s0, 0x7f0
   1bdb8: 1d 8c        	sub	s0, s0, a5
   1bdba: 26 e4        	sd	s1, 0x8(sp)
   1bdbc: 06 ec        	sd	ra, 0x18(sp)
   1bdbe: 93 54 34 40  	srai	s1, s0, 0x3
   1bdc2: 81 c8        	beqz	s1, 0x1bdd2 <__libc_fini_array+0x2e>
   1bdc4: 61 14        	addi	s0, s0, -0x8
   1bdc6: 3e 94        	add	s0, s0, a5
   1bdc8: 1c 60        	ld	a5, 0x0(s0)
   1bdca: fd 14        	addi	s1, s1, -0x1
   1bdcc: 61 14        	addi	s0, s0, -0x8
   1bdce: 82 97        	jalr	a5
   1bdd0: e5 fc        	bnez	s1, 0x1bdc8 <__libc_fini_array+0x24>
   1bdd2: e2 60        	ld	ra, 0x18(sp)
   1bdd4: 42 64        	ld	s0, 0x10(sp)
   1bdd6: a2 64        	ld	s1, 0x8(sp)
   1bdd8: 05 61        	addi	sp, sp, 0x20
   1bdda: 82 80        	ret

000000000001bddc <memmove>:
   1bddc: 63 f2 a5 02  	bgeu	a1, a0, 0x1be00 <memmove+0x24>
   1bde0: 33 87 c5 00  	add	a4, a1, a2
   1bde4: 63 7e e5 00  	bgeu	a0, a4, 0x1be00 <memmove+0x24>
   1bde8: b3 07 c5 00  	add	a5, a0, a2
   1bdec: 1d ca        	beqz	a2, 0x1be22 <memmove+0x46>
   1bdee: 83 46 f7 ff  	lbu	a3, -0x1(a4)
   1bdf2: fd 17        	addi	a5, a5, -0x1
   1bdf4: 7d 17        	addi	a4, a4, -0x1
   1bdf6: 23 80 d7 00  	sb	a3, 0x0(a5)
   1bdfa: e3 1a f5 fe  	bne	a0, a5, 0x1bdee <memmove+0x12>
   1bdfe: 82 80        	ret
   1be00: fd 47        	li	a5, 0x1f
   1be02: 63 e1 c7 02  	bltu	a5, a2, 0x1be24 <memmove+0x48>
   1be06: aa 87        	mv	a5, a0
   1be08: 93 06 f6 ff  	addi	a3, a2, -0x1
   1be0c: 51 ce        	beqz	a2, 0x1bea8 <memmove+0xcc>
   1be0e: 85 06        	addi	a3, a3, 0x1
   1be10: be 96        	add	a3, a3, a5
   1be12: 03 c7 05 00  	lbu	a4, 0x0(a1)
   1be16: 85 07        	addi	a5, a5, 0x1
   1be18: 85 05        	addi	a1, a1, 0x1
   1be1a: a3 8f e7 fe  	sb	a4, -0x1(a5)
   1be1e: e3 9a d7 fe  	bne	a5, a3, 0x1be12 <memmove+0x36>
   1be22: 82 80        	ret
   1be24: b3 67 b5 00  	or	a5, a0, a1
   1be28: 9d 8b        	andi	a5, a5, 0x7
   1be2a: bd eb        	bnez	a5, 0x1bea0 <memmove+0xc4>
   1be2c: 93 08 06 fe  	addi	a7, a2, -0x20
   1be30: 93 f8 08 fe  	andi	a7, a7, -0x20
   1be34: 93 88 08 02  	addi	a7, a7, 0x20
   1be38: b3 06 15 01  	add	a3, a0, a7
   1be3c: 2e 87        	mv	a4, a1
   1be3e: aa 87        	mv	a5, a0
   1be40: 03 38 07 00  	ld	a6, 0x0(a4)
   1be44: 13 07 07 02  	addi	a4, a4, 0x20
   1be48: 93 87 07 02  	addi	a5, a5, 0x20
   1be4c: 23 b0 07 ff  	sd	a6, -0x20(a5)
   1be50: 03 38 87 fe  	ld	a6, -0x18(a4)
   1be54: 23 b4 07 ff  	sd	a6, -0x18(a5)
   1be58: 03 38 07 ff  	ld	a6, -0x10(a4)
   1be5c: 23 b8 07 ff  	sd	a6, -0x10(a5)
   1be60: 03 38 87 ff  	ld	a6, -0x8(a4)
   1be64: 23 bc 07 ff  	sd	a6, -0x8(a5)
   1be68: e3 9c d7 fc  	bne	a5, a3, 0x1be40 <memmove+0x64>
   1be6c: 13 78 86 01  	andi	a6, a2, 0x18
   1be70: c6 95        	add	a1, a1, a7
   1be72: 13 77 f6 01  	andi	a4, a2, 0x1f
   1be76: 63 0a 08 02  	beqz	a6, 0x1beaa <memmove+0xce>
   1be7a: 13 08 87 ff  	addi	a6, a4, -0x8
   1be7e: 13 78 88 ff  	andi	a6, a6, -0x8
   1be82: 21 08        	addi	a6, a6, 0x8
   1be84: b3 87 06 01  	add	a5, a3, a6
   1be88: 2e 87        	mv	a4, a1
   1be8a: 83 38 07 00  	ld	a7, 0x0(a4)
   1be8e: a1 06        	addi	a3, a3, 0x8
   1be90: 21 07        	addi	a4, a4, 0x8
   1be92: 23 bc 16 ff  	sd	a7, -0x8(a3)
   1be96: e3 9a f6 fe  	bne	a3, a5, 0x1be8a <memmove+0xae>
   1be9a: 1d 8a        	andi	a2, a2, 0x7
   1be9c: c2 95        	add	a1, a1, a6
   1be9e: ad b7        	j	0x1be08 <memmove+0x2c>
   1bea0: 93 06 f6 ff  	addi	a3, a2, -0x1
   1bea4: aa 87        	mv	a5, a0
   1bea6: a5 b7        	j	0x1be0e <memmove+0x32>
   1bea8: 82 80        	ret
   1beaa: 3a 86        	mv	a2, a4
   1beac: b1 bf        	j	0x1be08 <memmove+0x2c>

000000000001beae <frexpl>:
   1beae: 39 71        	addi	sp, sp, -0x40
   1beb0: 4a f0        	sd	s2, 0x20(sp)
   1beb2: 21 69        	lui	s2, 0x8
   1beb4: 22 f8        	sd	s0, 0x30(sp)
   1beb6: 26 f4        	sd	s1, 0x28(sp)
   1beb8: 5a e0        	sd	s6, 0x0(sp)
   1beba: 06 fc        	sd	ra, 0x38(sp)
   1bebc: 93 d4 05 03  	srli	s1, a1, 0x30
   1bec0: 7d 19        	addi	s2, s2, -0x1
   1bec2: b3 f4 24 01  	and	s1, s1, s2
   1bec6: 23 20 06 00  	sw	zero, 0x0(a2)
   1beca: 2e 84        	mv	s0, a1
   1becc: 2a 8b        	mv	s6, a0
   1bece: 63 84 24 05  	beq	s1, s2, 0x1bf16 <frexpl+0x68>
   1bed2: 56 e4        	sd	s5, 0x8(sp)
   1bed4: 81 46        	li	a3, 0x0
   1bed6: b2 8a        	mv	s5, a2
   1bed8: 01 46        	li	a2, 0x0
   1beda: 4e ec        	sd	s3, 0x18(sp)
   1bedc: 52 e8        	sd	s4, 0x10(sp)
   1bede: ae 89        	mv	s3, a1
   1bee0: 2a 8a        	mv	s4, a0
   1bee2: ef 20 80 2b  	jal	0x1e19a <__netf2>
   1bee6: 25 c1        	beqz	a0, 0x1bf46 <frexpl+0x98>
   1bee8: 81 46        	li	a3, 0x0
   1beea: 8d cc        	beqz	s1, 0x1bf24 <frexpl+0x76>
   1beec: 71 77        	lui	a4, 0xffffc
   1beee: b7 17 00 f8  	lui	a5, 0xf8001
   1bef2: 09 27        	addiw	a4, a4, 0x2
   1bef4: 92 17        	slli	a5, a5, 0x24
   1bef6: b9 9c        	addw	s1, s1, a4
   1bef8: fd 17        	addi	a5, a5, -0x1
   1befa: 37 f4 ff 01  	lui	s0, 0x1fff
   1befe: b3 f9 f9 00  	and	s3, s3, a5
   1bf02: b5 9c        	addw	s1, s1, a3
   1bf04: 16 14        	slli	s0, s0, 0x25
   1bf06: 23 a0 9a 00  	sw	s1, 0x0(s5)
   1bf0a: 52 85        	mv	a0, s4
   1bf0c: b3 e5 89 00  	or	a1, s3, s0
   1bf10: 42 6a        	ld	s4, 0x10(sp)
   1bf12: e2 69        	ld	s3, 0x18(sp)
   1bf14: a2 6a        	ld	s5, 0x8(sp)
   1bf16: e2 70        	ld	ra, 0x38(sp)
   1bf18: 42 74        	ld	s0, 0x30(sp)
   1bf1a: a2 74        	ld	s1, 0x28(sp)
   1bf1c: 02 79        	ld	s2, 0x20(sp)
   1bf1e: 02 6b        	ld	s6, 0x0(sp)
   1bf20: 21 61        	addi	sp, sp, 0x40
   1bf22: 82 80        	ret
   1bf24: b7 16 07 04  	lui	a3, 0x4071
   1bf28: 92 16        	slli	a3, a3, 0x24
   1bf2a: 01 46        	li	a2, 0x0
   1bf2c: 5a 85        	mv	a0, s6
   1bf2e: a2 85        	mv	a1, s0
   1bf30: ef 20 e0 44  	jal	0x1e37e <__multf3>
   1bf34: 93 d4 05 03  	srli	s1, a1, 0x30
   1bf38: ae 89        	mv	s3, a1
   1bf3a: 2a 8a        	mv	s4, a0
   1bf3c: b3 f4 24 01  	and	s1, s1, s2
   1bf40: 93 06 e0 f8  	li	a3, -0x72
   1bf44: 65 b7        	j	0x1beec <frexpl+0x3e>
   1bf46: e2 70        	ld	ra, 0x38(sp)
   1bf48: a2 85        	mv	a1, s0
   1bf4a: 42 74        	ld	s0, 0x30(sp)
   1bf4c: e2 69        	ld	s3, 0x18(sp)
   1bf4e: 42 6a        	ld	s4, 0x10(sp)
   1bf50: a2 6a        	ld	s5, 0x8(sp)
   1bf52: a2 74        	ld	s1, 0x28(sp)
   1bf54: 02 79        	ld	s2, 0x20(sp)
   1bf56: 5a 85        	mv	a0, s6
   1bf58: 02 6b        	ld	s6, 0x0(sp)
   1bf5a: 21 61        	addi	sp, sp, 0x40
   1bf5c: 82 80        	ret

000000000001bf5e <__register_exitproc>:
   1bf5e: 83 b7 81 26  	ld	a5, 0x268(gp)
   1bf62: b1 c3        	beqz	a5, 0x1bfa6 <__register_exitproc+0x48>
   1bf64: 98 47        	lw	a4, 0x8(a5)
   1bf66: 7d 48        	li	a6, 0x1f
   1bf68: 63 46 e8 06  	blt	a6, a4, 0x1bfd4 <__register_exitproc+0x76>
   1bf6c: 05 c5        	beqz	a0, 0x1bf94 <__register_exitproc+0x36>
   1bf6e: 13 18 37 00  	slli	a6, a4, 0x3
   1bf72: 3e 98        	add	a6, a6, a5
   1bf74: 23 38 c8 10  	sd	a2, 0x110(a6)
   1bf78: 83 a8 07 31  	lw	a7, 0x310(a5)
   1bf7c: 05 46        	li	a2, 0x1
   1bf7e: 3b 16 e6 00  	sllw	a2, a2, a4
   1bf82: b3 e8 c8 00  	or	a7, a7, a2
   1bf86: 23 a8 17 31  	sw	a7, 0x310(a5)
   1bf8a: 23 38 d8 20  	sd	a3, 0x210(a6)
   1bf8e: 89 46        	li	a3, 0x2
   1bf90: 63 04 d5 02  	beq	a0, a3, 0x1bfb8 <__register_exitproc+0x5a>
   1bf94: 93 06 27 00  	addi	a3, a4, 0x2
   1bf98: 8e 06        	slli	a3, a3, 0x3
   1bf9a: 05 27        	addiw	a4, a4, 0x1
   1bf9c: 98 c7        	sw	a4, 0x8(a5)
   1bf9e: b6 97        	add	a5, a5, a3
   1bfa0: 8c e3        	sd	a1, 0x0(a5)
   1bfa2: 01 45        	li	a0, 0x0
   1bfa4: 82 80        	ret
   1bfa6: b7 27 02 00  	lui	a5, 0x22
   1bfaa: 13 88 07 78  	addi	a6, a5, 0x780
   1bfae: 23 b4 01 27  	sd	a6, 0x268(gp)
   1bfb2: 93 87 07 78  	addi	a5, a5, 0x780
   1bfb6: 7d b7        	j	0x1bf64 <__register_exitproc+0x6>
   1bfb8: 83 a6 47 31  	lw	a3, 0x314(a5)
   1bfbc: 01 45        	li	a0, 0x0
   1bfbe: d1 8e        	or	a3, a3, a2
   1bfc0: 23 aa d7 30  	sw	a3, 0x314(a5)
   1bfc4: 93 06 27 00  	addi	a3, a4, 0x2
   1bfc8: 8e 06        	slli	a3, a3, 0x3
   1bfca: 05 27        	addiw	a4, a4, 0x1
   1bfcc: 98 c7        	sw	a4, 0x8(a5)
   1bfce: b6 97        	add	a5, a5, a3
   1bfd0: 8c e3        	sd	a1, 0x0(a5)
   1bfd2: 82 80        	ret
   1bfd4: 7d 55        	li	a0, -0x1
   1bfd6: 82 80        	ret

000000000001bfd8 <__assert_func>:
   1bfd8: 03 b7 01 23  	ld	a4, 0x230(gp)
   1bfdc: 41 11        	addi	sp, sp, -0x10
   1bfde: b6 87        	mv	a5, a3
   1bfe0: 32 88        	mv	a6, a2
   1bfe2: 06 e4        	sd	ra, 0x8(sp)
   1bfe4: 83 38 87 01  	ld	a7, 0x18(a4)
   1bfe8: aa 86        	mv	a3, a0
   1bfea: 2e 87        	mv	a4, a1
   1bfec: 3e 86        	mv	a2, a5
   1bfee: 63 0f 08 00  	beqz	a6, 0x1c00c <__assert_func+0x34>
   1bff2: b7 07 02 00  	lui	a5, 0x20
   1bff6: 93 87 87 b9  	addi	a5, a5, -0x468
   1bffa: b7 05 02 00  	lui	a1, 0x20
   1bffe: 93 85 85 ba  	addi	a1, a1, -0x458
   1c002: 46 85        	mv	a0, a7
   1c004: ef 10 d0 2b  	jal	0x1dac0 <fiprintf>
   1c008: ef 10 50 3f  	jal	0x1dbfc <abort>
   1c00c: 37 08 02 00  	lui	a6, 0x20
   1c010: 93 07 08 b8  	addi	a5, a6, -0x480
   1c014: 13 08 08 b8  	addi	a6, a6, -0x480
   1c018: cd b7        	j	0x1bffa <__assert_func+0x22>

000000000001c01a <__assert>:
   1c01a: 41 11        	addi	sp, sp, -0x10
   1c01c: b2 86        	mv	a3, a2
   1c01e: 01 46        	li	a2, 0x0
   1c020: 06 e4        	sd	ra, 0x8(sp)
   1c022: ef f0 7f fb  	jal	0x1bfd8 <__assert_func>

000000000001c026 <_calloc_r>:
   1c026: b3 b7 c5 02  	mulhu	a5, a1, a2
   1c02a: 41 11        	addi	sp, sp, -0x10
   1c02c: 06 e4        	sd	ra, 0x8(sp)
   1c02e: 22 e0        	sd	s0, 0x0(sp)
   1c030: b3 85 c5 02  	mul	a1, a1, a2
   1c034: b5 ef        	bnez	a5, 0x1c0b0 <_calloc_r+0x8a>
   1c036: ef 70 3f e3  	jal	0x13e68 <_malloc_r>
   1c03a: 2a 84        	mv	s0, a0
   1c03c: 35 cd        	beqz	a0, 0x1c0b8 <_calloc_r+0x92>
   1c03e: 03 36 85 ff  	ld	a2, -0x8(a0)
   1c042: 13 07 80 04  	li	a4, 0x48
   1c046: 71 9a        	andi	a2, a2, -0x4
   1c048: 61 16        	addi	a2, a2, -0x8
   1c04a: 63 62 c7 04  	bltu	a4, a2, 0x1c08e <_calloc_r+0x68>
   1c04e: 93 06 70 02  	li	a3, 0x27
   1c052: aa 87        	mv	a5, a0
   1c054: 63 f2 c6 02  	bgeu	a3, a2, 0x1c078 <_calloc_r+0x52>
   1c058: 23 30 05 00  	sd	zero, 0x0(a0)
   1c05c: 23 34 05 00  	sd	zero, 0x8(a0)
   1c060: 93 07 70 03  	li	a5, 0x37
   1c064: 63 fd c7 02  	bgeu	a5, a2, 0x1c09e <_calloc_r+0x78>
   1c068: 23 38 05 00  	sd	zero, 0x10(a0)
   1c06c: 23 3c 05 00  	sd	zero, 0x18(a0)
   1c070: 93 07 05 02  	addi	a5, a0, 0x20
   1c074: 63 08 e6 04  	beq	a2, a4, 0x1c0c4 <_calloc_r+0x9e>
   1c078: 23 b0 07 00  	sd	zero, 0x0(a5)
   1c07c: 23 b4 07 00  	sd	zero, 0x8(a5)
   1c080: 23 b8 07 00  	sd	zero, 0x10(a5)
   1c084: a2 60        	ld	ra, 0x8(sp)
   1c086: 22 85        	mv	a0, s0
   1c088: 02 64        	ld	s0, 0x0(sp)
   1c08a: 41 01        	addi	sp, sp, 0x10
   1c08c: 82 80        	ret
   1c08e: 81 45        	li	a1, 0x0
   1c090: ef a0 3f cc  	jal	0x16d52 <memset>
   1c094: a2 60        	ld	ra, 0x8(sp)
   1c096: 22 85        	mv	a0, s0
   1c098: 02 64        	ld	s0, 0x0(sp)
   1c09a: 41 01        	addi	sp, sp, 0x10
   1c09c: 82 80        	ret
   1c09e: 93 07 05 01  	addi	a5, a0, 0x10
   1c0a2: 23 b0 07 00  	sd	zero, 0x0(a5)
   1c0a6: 23 b4 07 00  	sd	zero, 0x8(a5)
   1c0aa: 23 b8 07 00  	sd	zero, 0x10(a5)
   1c0ae: d9 bf        	j	0x1c084 <_calloc_r+0x5e>
   1c0b0: ef a0 bf c2  	jal	0x16cda <__errno>
   1c0b4: b1 47        	li	a5, 0xc
   1c0b6: 1c c1        	sw	a5, 0x0(a0)
   1c0b8: 01 44        	li	s0, 0x0
   1c0ba: a2 60        	ld	ra, 0x8(sp)
   1c0bc: 22 85        	mv	a0, s0
   1c0be: 02 64        	ld	s0, 0x0(sp)
   1c0c0: 41 01        	addi	sp, sp, 0x10
   1c0c2: 82 80        	ret
   1c0c4: 23 30 05 02  	sd	zero, 0x20(a0)
   1c0c8: 93 07 05 03  	addi	a5, a0, 0x30
   1c0cc: 23 34 05 02  	sd	zero, 0x28(a0)
   1c0d0: 65 b7        	j	0x1c078 <_calloc_r+0x52>

000000000001c0d2 <_ldtoa_r>:
   1c0d2: 37 03 02 00  	lui	t1, 0x20
   1c0d6: 13 03 83 36  	addi	t1, t1, 0x368
   1c0da: 03 3f 03 00  	ld	t5, 0x0(t1)
   1c0de: 83 3e 83 00  	ld	t4, 0x8(t1)
   1c0e2: 03 2e 03 01  	lw	t3, 0x10(t1)
   1c0e6: 03 33 05 05  	ld	t1, 0x50(a0)
   1c0ea: 71 71        	addi	sp, sp, -0xb0
   1c0ec: 26 ed        	sd	s1, 0x98(sp)
   1c0ee: 4a e9        	sd	s2, 0x90(sp)
   1c0f0: 52 e1        	sd	s4, 0x80(sp)
   1c0f2: da f8        	sd	s6, 0x70(sp)
   1c0f4: de f4        	sd	s7, 0x68(sp)
   1c0f6: e2 f0        	sd	s8, 0x60(sp)
   1c0f8: e6 ec        	sd	s9, 0x58(sp)
   1c0fa: ea e8        	sd	s10, 0x50(sp)
   1c0fc: 06 f5        	sd	ra, 0xa8(sp)
   1c0fe: 22 f1        	sd	s0, 0xa0(sp)
   1c100: 4e e5        	sd	s3, 0x88(sp)
   1c102: d6 fc        	sd	s5, 0x78(sp)
   1c104: ee e4        	sd	s11, 0x48(sp)
   1c106: 7a f4        	sd	t5, 0x28(sp)
   1c108: 76 f8        	sd	t4, 0x30(sp)
   1c10a: 72 dc        	sw	t3, 0x38(sp)
   1c10c: 2a 8b        	mv	s6, a0
   1c10e: 2e 89        	mv	s2, a1
   1c110: b2 84        	mv	s1, a2
   1c112: 36 8c        	mv	s8, a3
   1c114: ba 8c        	mv	s9, a4
   1c116: be 8b        	mv	s7, a5
   1c118: 42 8a        	mv	s4, a6
   1c11a: 46 8d        	mv	s10, a7
   1c11c: 63 01 03 02  	beqz	t1, 0x1c13e <_ldtoa_r+0x6c>
   1c120: 3c 4d        	lw	a5, 0x58(a0)
   1c122: 05 47        	li	a4, 0x1
   1c124: 9a 85        	mv	a1, t1
   1c126: 3b 17 f7 00  	sllw	a4, a4, a5
   1c12a: 82 17        	slli	a5, a5, 0x20
   1c12c: 02 17        	slli	a4, a4, 0x20
   1c12e: 81 93        	srli	a5, a5, 0x20
   1c130: d9 8f        	or	a5, a5, a4
   1c132: 23 34 f3 00  	sd	a5, 0x8(t1)
   1c136: ef b0 1f d1  	jal	0x17e46 <_Bfree>
   1c13a: 23 38 0b 04  	sd	zero, 0x50(s6)
   1c13e: d2 57        	lw	a5, 0x34(sp)
   1c140: 93 a5 04 00  	slti	a1, s1, 0x0
   1c144: 13 94 14 00  	slli	s0, s1, 0x1
   1c148: 1b d7 17 40  	sraiw	a4, a5, 0x1
   1c14c: 93 d9 04 02  	srli	s3, s1, 0x20
   1c150: f9 8d        	and	a1, a1, a4
   1c152: 05 80        	srli	s0, s0, 0x1
   1c154: 93 a6 04 00  	slti	a3, s1, 0x0
   1c158: 93 9a 14 00  	slli	s5, s1, 0x1
   1c15c: 71 77        	lui	a4, 0xffffc
   1c15e: 9b 99 09 01  	slliw	s3, s3, 0x10
   1c162: ad 8f        	xor	a5, a5, a1
   1c164: 93 da 1a 03  	srli	s5, s5, 0x31
   1c168: 1b 07 17 f9  	addiw	a4, a4, -0x6f
   1c16c: 9b d9 09 01  	srliw	s3, s3, 0x10
   1c170: 23 20 da 00  	sw	a3, 0x0(s4)
   1c174: 4a 86        	mv	a2, s2
   1c176: a2 86        	mv	a3, s0
   1c178: 4a 85        	mv	a0, s2
   1c17a: a2 85        	mv	a1, s0
   1c17c: 3e da        	sw	a5, 0x34(sp)
   1c17e: bb 8d ea 00  	addw	s11, s5, a4
   1c182: 4a ec        	sd	s2, 0x18(sp)
   1c184: 26 d0        	sw	s1, 0x20(sp)
   1c186: 4e d2        	sw	s3, 0x24(sp)
   1c188: ef 20 f0 7b  	jal	0x1f146 <__unordtf2>
   1c18c: 5d e9        	bnez	a0, 0x1c242 <_ldtoa_r+0x170>
   1c18e: 37 fa ff 07  	lui	s4, 0x7fff
   1c192: 12 1a        	slli	s4, s4, 0x24
   1c194: 7d 1a        	addi	s4, s4, -0x1
   1c196: 7d 56        	li	a2, -0x1
   1c198: d2 86        	mv	a3, s4
   1c19a: 4a 85        	mv	a0, s2
   1c19c: a2 85        	mv	a1, s0
   1c19e: ef 20 90 7a  	jal	0x1f146 <__unordtf2>
   1c1a2: 39 ed        	bnez	a0, 0x1c200 <_ldtoa_r+0x12e>
   1c1a4: 7d 56        	li	a2, -0x1
   1c1a6: d2 86        	mv	a3, s4
   1c1a8: 4a 85        	mv	a0, s2
   1c1aa: a2 85        	mv	a1, s0
   1c1ac: ef 20 40 13  	jal	0x1e2e0 <__lttf2>
   1c1b0: 63 58 a0 04  	blez	a0, 0x1c200 <_ldtoa_r+0x12e>
   1c1b4: 8d 47        	li	a5, 0x3
   1c1b6: 3e ca        	sw	a5, 0x14(sp)
   1c1b8: e2 87        	mv	a5, s8
   1c1ba: 58 08        	addi	a4, sp, 0x14
   1c1bc: 6a e0        	sd	s10, 0x0(sp)
   1c1be: de 88        	mv	a7, s7
   1c1c0: 66 88        	mv	a6, s9
   1c1c2: 34 08        	addi	a3, sp, 0x18
   1c1c4: 6e 86        	mv	a2, s11
   1c1c6: 2c 10        	addi	a1, sp, 0x28
   1c1c8: 5a 85        	mv	a0, s6
   1c1ca: ef 00 e0 0e  	jal	0x1c2b8 <__gdtoa>
   1c1ce: 03 a7 0b 00  	lw	a4, 0x0(s7)
   1c1d2: e1 77        	lui	a5, 0xffff8
   1c1d4: 63 17 f7 00  	bne	a4, a5, 0x1c1e2 <_ldtoa_r+0x110>
   1c1d8: b7 07 00 80  	lui	a5, 0x80000
   1c1dc: fd 17        	addi	a5, a5, -0x1
   1c1de: 23 a0 fb 00  	sw	a5, 0x0(s7)
   1c1e2: aa 70        	ld	ra, 0xa8(sp)
   1c1e4: 0a 74        	ld	s0, 0xa0(sp)
   1c1e6: ea 64        	ld	s1, 0x98(sp)
   1c1e8: 4a 69        	ld	s2, 0x90(sp)
   1c1ea: aa 69        	ld	s3, 0x88(sp)
   1c1ec: 0a 6a        	ld	s4, 0x80(sp)
   1c1ee: e6 7a        	ld	s5, 0x78(sp)
   1c1f0: 46 7b        	ld	s6, 0x70(sp)
   1c1f2: a6 7b        	ld	s7, 0x68(sp)
   1c1f4: 06 7c        	ld	s8, 0x60(sp)
   1c1f6: e6 6c        	ld	s9, 0x58(sp)
   1c1f8: 46 6d        	ld	s10, 0x50(sp)
   1c1fa: a6 6d        	ld	s11, 0x48(sp)
   1c1fc: 4d 61        	addi	sp, sp, 0xb0
   1c1fe: 82 80        	ret
   1c200: 85 46        	li	a3, 0x1
   1c202: 01 46        	li	a2, 0x0
   1c204: c2 16        	slli	a3, a3, 0x30
   1c206: 4a 85        	mv	a0, s2
   1c208: a2 85        	mv	a1, s0
   1c20a: ef 20 80 03  	jal	0x1e242 <__gttf2>
   1c20e: 63 49 05 00  	bltz	a0, 0x1c220 <_ldtoa_r+0x14e>
   1c212: c1 67        	lui	a5, 0x10
   1c214: b3 e9 f9 00  	or	s3, s3, a5
   1c218: 85 47        	li	a5, 0x1
   1c21a: 3e ca        	sw	a5, 0x14(sp)
   1c21c: 4e d2        	sw	s3, 0x24(sp)
   1c21e: 69 bf        	j	0x1c1b8 <_ldtoa_r+0xe6>
   1c220: 01 46        	li	a2, 0x0
   1c222: 81 46        	li	a3, 0x0
   1c224: 4a 85        	mv	a0, s2
   1c226: a6 85        	mv	a1, s1
   1c228: ef 10 30 77  	jal	0x1e19a <__netf2>
   1c22c: 19 e1        	bnez	a0, 0x1c232 <_ldtoa_r+0x160>
   1c22e: 02 ca        	sw	zero, 0x14(sp)
   1c230: 61 b7        	j	0x1c1b8 <_ldtoa_r+0xe6>
   1c232: 71 77        	lui	a4, 0xffffc
   1c234: 1b 07 27 f9  	addiw	a4, a4, -0x6e
   1c238: 89 47        	li	a5, 0x2
   1c23a: 3e ca        	sw	a5, 0x14(sp)
   1c23c: bb 8d ea 00  	addw	s11, s5, a4
   1c240: a5 bf        	j	0x1c1b8 <_ldtoa_r+0xe6>
   1c242: 91 47        	li	a5, 0x4
   1c244: 3e ca        	sw	a5, 0x14(sp)
   1c246: 8d bf        	j	0x1c1b8 <_ldtoa_r+0xe6>

000000000001c248 <_ldcheck>:
   1c248: 79 71        	addi	sp, sp, -0x30
   1c24a: 26 ec        	sd	s1, 0x18(sp)
   1c24c: 04 65        	ld	s1, 0x8(a0)
   1c24e: 4e e4        	sd	s3, 0x8(sp)
   1c250: 83 39 05 00  	ld	s3, 0x0(a0)
   1c254: 86 04        	slli	s1, s1, 0x1
   1c256: 85 80        	srli	s1, s1, 0x1
   1c258: 4e 86        	mv	a2, s3
   1c25a: a6 86        	mv	a3, s1
   1c25c: 4e 85        	mv	a0, s3
   1c25e: a6 85        	mv	a1, s1
   1c260: 06 f4        	sd	ra, 0x28(sp)
   1c262: ef 20 50 6e  	jal	0x1f146 <__unordtf2>
   1c266: 39 e1        	bnez	a0, 0x1c2ac <_ldcheck+0x64>
   1c268: 4a e8        	sd	s2, 0x10(sp)
   1c26a: 37 f9 ff 07  	lui	s2, 0x7fff
   1c26e: 12 19        	slli	s2, s2, 0x24
   1c270: 7d 19        	addi	s2, s2, -0x1
   1c272: 7d 56        	li	a2, -0x1
   1c274: ca 86        	mv	a3, s2
   1c276: 4e 85        	mv	a0, s3
   1c278: a6 85        	mv	a1, s1
   1c27a: 22 f0        	sd	s0, 0x20(sp)
   1c27c: 05 44        	li	s0, 0x1
   1c27e: ef 20 90 6c  	jal	0x1f146 <__unordtf2>
   1c282: 01 cd        	beqz	a0, 0x1c29a <_ldcheck+0x52>
   1c284: a2 70        	ld	ra, 0x28(sp)
   1c286: 13 45 14 00  	xori	a0, s0, 0x1
   1c28a: 02 74        	ld	s0, 0x20(sp)
   1c28c: 06 05        	slli	a0, a0, 0x1
   1c28e: 42 69        	ld	s2, 0x10(sp)
   1c290: e2 64        	ld	s1, 0x18(sp)
   1c292: a2 69        	ld	s3, 0x8(sp)
   1c294: 09 89        	andi	a0, a0, 0x2
   1c296: 45 61        	addi	sp, sp, 0x30
   1c298: 82 80        	ret
   1c29a: 7d 56        	li	a2, -0x1
   1c29c: ca 86        	mv	a3, s2
   1c29e: 4e 85        	mv	a0, s3
   1c2a0: a6 85        	mv	a1, s1
   1c2a2: ef 20 e0 03  	jal	0x1e2e0 <__lttf2>
   1c2a6: 13 24 15 00  	slti	s0, a0, 0x1
   1c2aa: e9 bf        	j	0x1c284 <_ldcheck+0x3c>
   1c2ac: a2 70        	ld	ra, 0x28(sp)
   1c2ae: e2 64        	ld	s1, 0x18(sp)
   1c2b0: a2 69        	ld	s3, 0x8(sp)
   1c2b2: 05 45        	li	a0, 0x1
   1c2b4: 45 61        	addi	sp, sp, 0x30
   1c2b6: 82 80        	ret

000000000001c2b8 <__gdtoa>:
   1c2b8: 11 71        	addi	sp, sp, -0x100
   1c2ba: 66 f5        	sd	s9, 0xa8(sp)
   1c2bc: 83 2c 07 00  	lw	s9, 0x0(a4)
   1c2c0: a6 f5        	sd	s1, 0xe8(sp)
   1c2c2: d2 e9        	sd	s4, 0xd0(sp)
   1c2c4: 13 f3 fc fc  	andi	t1, s9, -0x31
   1c2c8: 86 fd        	sd	ra, 0xf8(sp)
   1c2ca: 23 20 67 00  	sw	t1, 0x0(a4)
   1c2ce: 3a 8a        	mv	s4, a4
   1c2d0: 12 67        	ld	a4, 0x100(sp)
   1c2d2: 13 f3 fc 00  	andi	t1, s9, 0xf
   1c2d6: 0d 4e        	li	t3, 0x3
   1c2d8: 3a e4        	sd	a4, 0x8(sp)
   1c2da: 32 e8        	sd	a2, 0x10(sp)
   1c2dc: c6 84        	mv	s1, a7
   1c2de: 63 0a c3 53  	beq	t1, t3, 0x1c812 <__gdtoa+0x55a>
   1c2e2: ce ed        	sd	s3, 0xd8(sp)
   1c2e4: 93 f9 cc 00  	andi	s3, s9, 0xc
   1c2e8: 63 91 09 4c  	bnez	s3, 0x1c7aa <__gdtoa+0x4f2>
   1c2ec: a2 f9        	sd	s0, 0xf0(sp)
   1c2ee: 2a 84        	mv	s0, a0
   1c2f0: 63 0c 03 4e  	beqz	t1, 0x1c7e8 <__gdtoa+0x530>
   1c2f4: 6a f1        	sd	s10, 0xa0(sp)
   1c2f6: 03 ad 05 00  	lw	s10, 0x0(a1)
   1c2fa: ca f1        	sd	s2, 0xe0(sp)
   1c2fc: da e1        	sd	s6, 0xc0(sp)
   1c2fe: 5e fd        	sd	s7, 0xb8(sp)
   1c300: 6e ed        	sd	s11, 0x98(sp)
   1c302: 62 f9        	sd	s8, 0xb0(sp)
   1c304: b6 8d        	mv	s11, a3
   1c306: 93 06 00 02  	li	a3, 0x20
   1c30a: 2e 8b        	mv	s6, a1
   1c30c: 3e 89        	mv	s2, a5
   1c30e: c2 8b        	mv	s7, a6
   1c310: 81 45        	li	a1, 0x0
   1c312: 93 07 00 02  	li	a5, 0x20
   1c316: 63 d7 a6 01  	bge	a3, s10, 0x1c324 <__gdtoa+0x6c>
   1c31a: 9b 97 17 00  	slliw	a5, a5, 0x1
   1c31e: 85 25        	addiw	a1, a1, 0x1
   1c320: e3 cd a7 ff  	blt	a5, s10, 0x1c31a <__gdtoa+0x62>
   1c324: 22 85        	mv	a0, s0
   1c326: ef b0 df ab  	jal	0x17de2 <_Balloc>
   1c32a: 2a 8c        	mv	s8, a0
   1c32c: 63 0f 05 6c  	beqz	a0, 0x1ca0a <__gdtoa+0x752>
   1c330: 1b 05 fd ff  	addiw	a0, s10, -0x1
   1c334: 1b 55 55 40  	sraiw	a0, a0, 0x5
   1c338: 93 15 25 00  	slli	a1, a0, 0x2
   1c33c: d6 e5        	sd	s5, 0xc8(sp)
   1c33e: ee 95        	add	a1, a1, s11
   1c340: 93 06 8c 01  	addi	a3, s8, 0x18
   1c344: ee 87        	mv	a5, s11
   1c346: 98 43        	lw	a4, 0x0(a5)
   1c348: 91 07        	addi	a5, a5, 0x4
   1c34a: 91 06        	addi	a3, a3, 0x4
   1c34c: 23 ae e6 fe  	sw	a4, -0x4(a3)
   1c350: e3 fb f5 fe  	bgeu	a1, a5, 0x1c346 <__gdtoa+0x8e>
   1c354: 85 05        	addi	a1, a1, 0x1
   1c356: 93 87 1d 00  	addi	a5, s11, 0x1
   1c35a: 91 46        	li	a3, 0x4
   1c35c: 63 e5 f5 00  	bltu	a1, a5, 0x1c366 <__gdtoa+0xae>
   1c360: 0a 05        	slli	a0, a0, 0x2
   1c362: 93 06 45 00  	addi	a3, a0, 0x4
   1c366: 93 d7 26 40  	srai	a5, a3, 0x2
   1c36a: 81 27        	sext.w	a5, a5
   1c36c: e2 96        	add	a3, a3, s8
   1c36e: 21 a0        	j	0x1c376 <__gdtoa+0xbe>
   1c370: f1 16        	addi	a3, a3, -0x4
   1c372: 63 85 07 4e  	beqz	a5, 0x1c85c <__gdtoa+0x5a4>
   1c376: d8 4a        	lw	a4, 0x14(a3)
   1c378: be 8a        	mv	s5, a5
   1c37a: fd 37        	addiw	a5, a5, -0x1
   1c37c: 75 db        	beqz	a4, 0x1c370 <__gdtoa+0xb8>
   1c37e: 91 07        	addi	a5, a5, 0x4
   1c380: 8a 07        	slli	a5, a5, 0x2
   1c382: e2 97        	add	a5, a5, s8
   1c384: 88 47        	lw	a0, 0x8(a5)
   1c386: 23 2a 5c 01  	sw	s5, 0x14(s8)
   1c38a: 9b 9a 5a 00  	slliw	s5, s5, 0x5
   1c38e: ef b0 ff c9  	jal	0x1802c <__hi0bits>
   1c392: bb 87 aa 40  	subw	a5, s5, a0
   1c396: 62 85        	mv	a0, s8
   1c398: 3e ec        	sd	a5, 0x18(sp)
   1c39a: ef 10 a0 23  	jal	0x1d5d4 <__trailz_D2A>
   1c39e: 2a c7        	sw	a0, 0x8c(sp)
   1c3a0: 42 66        	ld	a2, 0x10(sp)
   1c3a2: e2 67        	ld	a5, 0x18(sp)
   1c3a4: 63 10 05 4e  	bnez	a0, 0x1c884 <__gdtoa+0x5cc>
   1c3a8: 83 26 4c 01  	lw	a3, 0x14(s8)
   1c3ac: 63 83 06 42  	beqz	a3, 0x1c7d2 <__gdtoa+0x51a>
   1c3b0: 6c 01        	addi	a1, sp, 0x8c
   1c3b2: 62 85        	mv	a0, s8
   1c3b4: 3e f0        	sd	a5, 0x20(sp)
   1c3b6: 32 ec        	sd	a2, 0x18(sp)
   1c3b8: ef c0 4f bf  	jal	0x187ac <__b2d>
   1c3bc: 53 05 05 e2  	fmv.x.d	a0, fa0
   1c3c0: 37 03 f0 3f  	lui	t1, 0x3ff00
   1c3c4: fd 56        	li	a3, -0x1
   1c3c6: 93 15 c5 00  	slli	a1, a0, 0xc
   1c3ca: b1 91        	srli	a1, a1, 0x2c
   1c3cc: b3 e8 65 00  	or	a7, a1, t1
   1c3d0: 81 92        	srli	a3, a3, 0x20
   1c3d2: 82 18        	slli	a7, a7, 0x20
   1c3d4: e9 8e        	and	a3, a3, a0
   1c3d6: b3 e6 16 01  	or	a3, a3, a7
   1c3da: 07 b7 01 17  	fld	fa4, 0x170(gp)
   1c3de: d3 87 06 f2  	fmv.d.x	fa5, a3
   1c3e2: 87 b6 81 17  	fld	fa3, 0x178(gp)
   1c3e6: 53 f7 e7 0a  	fsub.d	fa4, fa5, fa4
   1c3ea: 87 b7 01 18  	fld	fa5, 0x180(gp)
   1c3ee: 62 66        	ld	a2, 0x18(sp)
   1c3f0: 82 77        	ld	a5, 0x20(sp)
   1c3f2: b3 ee 65 00  	or	t4, a1, t1
   1c3f6: 43 77 d7 7a  	fmadd.d	fa4, fa4, fa3, fa5
   1c3fa: bb 0a f6 00  	addw	s5, a2, a5
   1c3fe: 9b 88 fa ff  	addiw	a7, s5, -0x1
   1c402: d3 87 08 d2  	fcvt.d.w	fa5, a7
   1c406: 87 b6 81 18  	fld	fa3, 0x188(gp)
   1c40a: 1b 85 08 00  	sext.w	a0, a7
   1c40e: c3 f7 d7 72  	fmadd.d	fa5, fa5, fa3, fa4
   1c412: 63 55 05 00  	bgez	a0, 0x1c41c <__gdtoa+0x164>
   1c416: 05 45        	li	a0, 0x1
   1c418: 3b 05 55 41  	subw	a0, a0, s5
   1c41c: 1b 03 b5 bc  	addiw	t1, a0, -0x435
   1c420: 63 58 60 00  	blez	t1, 0x1c430 <__gdtoa+0x178>
   1c424: d3 06 03 d2  	fcvt.d.w	fa3, t1
   1c428: 07 b7 01 19  	fld	fa4, 0x190(gp)
   1c42c: c3 f7 e6 7a  	fmadd.d	fa5, fa3, fa4, fa5
   1c430: 53 07 00 f2  	fmv.d.x	fa4, zero
   1c434: 53 95 07 c2  	fcvt.w.d	a0, fa5, rtz
   1c438: 53 9e e7 a2  	flt.d	t3, fa5, fa4
   1c43c: 1b 03 05 00  	sext.w	t1, a0
   1c440: 63 10 0e 70  	bnez	t3, 0x1cb40 <__gdtoa+0x888>
   1c444: 9b 95 48 01  	slliw	a1, a7, 0x14
   1c448: bb 85 d5 01  	addw	a1, a1, t4
   1c44c: 82 16        	slli	a3, a3, 0x20
   1c44e: 3b 8f 17 41  	subw	t5, a5, a7
   1c452: 82 15        	slli	a1, a1, 0x20
   1c454: 81 92        	srli	a3, a3, 0x20
   1c456: 1b 05 03 00  	sext.w	a0, t1
   1c45a: d9 4e        	li	t4, 0x16
   1c45c: fa 88        	mv	a7, t5
   1c45e: cd 8e        	or	a3, a3, a1
   1c460: 1b 0e ff ff  	addiw	t3, t5, -0x1
   1c464: 63 ef ae 3e  	bltu	t4, a0, 0x1c862 <__gdtoa+0x5aa>
   1c468: b7 05 02 00  	lui	a1, 0x20
   1c46c: 93 85 05 f8  	addi	a1, a1, -0x80
   1c470: 13 15 33 00  	slli	a0, t1, 0x3
   1c474: aa 95        	add	a1, a1, a0
   1c476: 9c 21        	fld	fa5, 0x0(a1)
   1c478: 53 87 06 f2  	fmv.d.x	fa4, a3
   1c47c: d3 15 f7 a2  	flt.d	a1, fa4, fa5
   1c480: 63 94 05 5c  	bnez	a1, 0x1ca48 <__gdtoa+0x790>
   1c484: 82 f8        	sd	zero, 0x70(sp)
   1c486: 02 ec        	sd	zero, 0x18(sp)
   1c488: 63 47 e0 01  	bgtz	t5, 0x1c496 <__gdtoa+0x1de>
   1c48c: 85 45        	li	a1, 0x1
   1c48e: 3b 87 e5 41  	subw	a4, a1, t5
   1c492: 3a ec        	sd	a4, 0x18(sp)
   1c494: 01 4e        	li	t3, 0x0
   1c496: 3b 0e c3 01  	addw	t3, t1, t3
   1c49a: 1a fc        	sd	t1, 0x38(sp)
   1c49c: 02 f8        	sd	zero, 0x30(sp)
   1c49e: a5 45        	li	a1, 0x9
   1c4a0: 63 ed 25 3f  	bltu	a1, s2, 0x1c89a <__gdtoa+0x5e2>
   1c4a4: 95 45        	li	a1, 0x5
   1c4a6: 63 c4 25 59  	blt	a1, s2, 0x1ca2e <__gdtoa+0x776>
   1c4aa: 9b 8a da 3f  	addiw	s5, s5, 0x3fd
   1c4ae: 11 45        	li	a0, 0x4
   1c4b0: 93 ba 8a 7f  	sltiu	s5, s5, 0x7f8
   1c4b4: e3 09 a9 22  	beq	s2, a0, 0x1cee6 <__gdtoa+0xc2e>
   1c4b8: e3 03 b9 22  	beq	s2, a1, 0x1cede <__gdtoa+0xc26>
   1c4bc: 89 45        	li	a1, 0x2
   1c4be: e3 07 b9 22  	beq	s2, a1, 0x1ceec <__gdtoa+0xc34>
   1c4c2: 8d 45        	li	a1, 0x3
   1c4c4: 82 e0        	sd	zero, 0x40(sp)
   1c4c6: 63 1f b9 3c  	bne	s2, a1, 0x1c8a4 <__gdtoa+0x5ec>
   1c4ca: 62 77        	ld	a4, 0x38(sp)
   1c4cc: bb 05 77 01  	addw	a1, a4, s7
   1c4d0: 1b 87 15 00  	addiw	a4, a1, 0x1
   1c4d4: 3a f4        	sd	a4, 0x28(sp)
   1c4d6: ae fc        	sd	a1, 0x78(sp)
   1c4d8: e3 58 e0 04  	blez	a4, 0x1cd28 <__gdtoa+0xa70>
   1c4dc: ba 88        	mv	a7, a4
   1c4de: ba 85        	mv	a1, a4
   1c4e0: 22 85        	mv	a0, s0
   1c4e2: b6 f4        	sd	a3, 0x68(sp)
   1c4e4: be f0        	sd	a5, 0x60(sp)
   1c4e6: f2 ec        	sd	t3, 0x58(sp)
   1c4e8: 9a e8        	sd	t1, 0x50(sp)
   1c4ea: b2 e4        	sd	a2, 0x48(sp)
   1c4ec: 46 c7        	sw	a7, 0x8c(sp)
   1c4ee: ef 00 90 61  	jal	0x1d306 <__rv_alloc_D2A>
   1c4f2: 2a 88        	mv	a6, a0
   1c4f4: 63 0a 05 34  	beqz	a0, 0x1c848 <__gdtoa+0x590>
   1c4f8: 03 27 cb 00  	lw	a4, 0xc(s6)
   1c4fc: 26 66        	ld	a2, 0x48(sp)
   1c4fe: 46 63        	ld	t1, 0x50(sp)
   1c500: 7d 37        	addiw	a4, a4, -0x1
   1c502: 3a f0        	sd	a4, 0x20(sp)
   1c504: 66 6e        	ld	t3, 0x58(sp)
   1c506: 86 77        	ld	a5, 0x60(sp)
   1c508: a6 76        	ld	a3, 0x68(sp)
   1c50a: 63 03 07 3c  	beqz	a4, 0x1c8d0 <__gdtoa+0x618>
   1c50e: 63 4d 07 50  	bltz	a4, 0x1ca28 <__gdtoa+0x770>
   1c512: 93 fc 0c 10  	andi	s9, s9, 0x100
   1c516: 63 98 0c 3a  	bnez	s9, 0x1c8c6 <__gdtoa+0x60e>
   1c51a: 63 46 06 00  	bltz	a2, 0x1c526 <__gdtoa+0x26e>
   1c51e: 62 77        	ld	a4, 0x38(sp)
   1c520: b9 45        	li	a1, 0xe
   1c522: 63 d6 e5 52  	bge	a1, a4, 0x1ca4e <__gdtoa+0x796>
   1c526: 06 67        	ld	a4, 0x40(sp)
   1c528: 63 0c 07 4e  	beqz	a4, 0x1ca20 <__gdtoa+0x768>
   1c52c: 3b 0d fd 40  	subw	s10, s10, a5
   1c530: 83 26 4b 00  	lw	a3, 0x4(s6)
   1c534: 9b 05 1d 00  	addiw	a1, s10, 0x1
   1c538: 2e c7        	sw	a1, 0x8c(sp)
   1c53a: 3b 0d a6 41  	subw	s10, a2, s10
   1c53e: e3 58 dd 02  	bge	s10, a3, 0x1cd6e <__gdtoa+0xab6>
   1c542: 9b 05 d9 ff  	addiw	a1, s2, -0x3
   1c546: f5 99        	andi	a1, a1, -0x3
   1c548: 81 25        	sext.w	a1, a1
   1c54a: 63 82 05 76  	beqz	a1, 0x1ccae <__gdtoa+0x9f6>
   1c54e: bb 06 d6 40  	subw	a3, a2, a3
   1c552: 9b 85 16 00  	addiw	a1, a3, 0x1
   1c556: 2e c7        	sw	a1, 0x8c(sp)
   1c558: 05 46        	li	a2, 0x1
   1c55a: ae 86        	mv	a3, a1
   1c55c: 63 58 26 01  	bge	a2, s2, 0x1c56c <__gdtoa+0x2b4>
   1c560: 22 77        	ld	a4, 0x28(sp)
   1c562: 63 55 e0 00  	blez	a4, 0x1c56c <__gdtoa+0x2b4>
   1c566: 22 77        	ld	a4, 0x28(sp)
   1c568: e3 42 b7 46  	blt	a4, a1, 0x1d1cc <__gdtoa+0xf14>
   1c56c: 62 67        	ld	a4, 0x18(sp)
   1c56e: 42 7d        	ld	s10, 0x30(sp)
   1c570: 3b 8e c6 01  	addw	t3, a3, t3
   1c574: ba 8c        	mv	s9, a4
   1c576: 35 9f        	addw	a4, a4, a3
   1c578: 3a ec        	sd	a4, 0x18(sp)
   1c57a: 85 45        	li	a1, 0x1
   1c57c: 22 85        	mv	a0, s0
   1c57e: c2 f0        	sd	a6, 0x60(sp)
   1c580: be ec        	sd	a5, 0x58(sp)
   1c582: f2 e8        	sd	t3, 0x50(sp)
   1c584: 9a e4        	sd	t1, 0x48(sp)
   1c586: ef b0 df b9  	jal	0x18122 <__i2b>
   1c58a: 26 63        	ld	t1, 0x48(sp)
   1c58c: 46 6e        	ld	t3, 0x50(sp)
   1c58e: e6 67        	ld	a5, 0x58(sp)
   1c590: 06 78        	ld	a6, 0x60(sp)
   1c592: aa 8a        	mv	s5, a0
   1c594: 63 0a 05 2a  	beqz	a0, 0x1c848 <__gdtoa+0x590>
   1c598: 63 80 0c 02  	beqz	s9, 0x1c5b8 <__gdtoa+0x300>
   1c59c: 63 5e c0 01  	blez	t3, 0x1c5b8 <__gdtoa+0x300>
   1c5a0: e6 86        	mv	a3, s9
   1c5a2: 63 53 9e 01  	bge	t3, s9, 0x1c5a8 <__gdtoa+0x2f0>
   1c5a6: f2 86        	mv	a3, t3
   1c5a8: 62 67        	ld	a4, 0x18(sp)
   1c5aa: 36 c7        	sw	a3, 0x8c(sp)
   1c5ac: bb 8c dc 40  	subw	s9, s9, a3
   1c5b0: 15 9f        	subw	a4, a4, a3
   1c5b2: 3a ec        	sd	a4, 0x18(sp)
   1c5b4: 3b 0e de 40  	subw	t3, t3, a3
   1c5b8: 42 77        	ld	a4, 0x30(sp)
   1c5ba: 0d c7        	beqz	a4, 0x1c5e4 <__gdtoa+0x32c>
   1c5bc: 06 67        	ld	a4, 0x40(sp)
   1c5be: 19 c3        	beqz	a4, 0x1c5c4 <__gdtoa+0x30c>
   1c5c0: e3 1d 0d 06  	bnez	s10, 0x1ce3a <__gdtoa+0xb82>
   1c5c4: 42 76        	ld	a2, 0x30(sp)
   1c5c6: e2 85        	mv	a1, s8
   1c5c8: 22 85        	mv	a0, s0
   1c5ca: c2 f0        	sd	a6, 0x60(sp)
   1c5cc: be ec        	sd	a5, 0x58(sp)
   1c5ce: f2 e8        	sd	t3, 0x50(sp)
   1c5d0: 9a e4        	sd	t1, 0x48(sp)
   1c5d2: ef b0 9f d6  	jal	0x1833a <__pow5mult>
   1c5d6: 26 63        	ld	t1, 0x48(sp)
   1c5d8: 46 6e        	ld	t3, 0x50(sp)
   1c5da: e6 67        	ld	a5, 0x58(sp)
   1c5dc: 06 78        	ld	a6, 0x60(sp)
   1c5de: 2a 8c        	mv	s8, a0
   1c5e0: 63 04 05 26  	beqz	a0, 0x1c848 <__gdtoa+0x590>
   1c5e4: 85 45        	li	a1, 0x1
   1c5e6: 22 85        	mv	a0, s0
   1c5e8: c2 ec        	sd	a6, 0x58(sp)
   1c5ea: be e8        	sd	a5, 0x50(sp)
   1c5ec: f2 e4        	sd	t3, 0x48(sp)
   1c5ee: 1a f8        	sd	t1, 0x30(sp)
   1c5f0: ef b0 3f b3  	jal	0x18122 <__i2b>
   1c5f4: 2a 8d        	mv	s10, a0
   1c5f6: 63 09 05 24  	beqz	a0, 0x1c848 <__gdtoa+0x590>
   1c5fa: 42 73        	ld	t1, 0x30(sp)
   1c5fc: 26 6e        	ld	t3, 0x48(sp)
   1c5fe: c6 67        	ld	a5, 0x50(sp)
   1c600: 66 68        	ld	a6, 0x58(sp)
   1c602: 63 17 03 72  	bnez	t1, 0x1cd30 <__gdtoa+0xa78>
   1c606: 85 46        	li	a3, 0x1
   1c608: 63 de 26 51  	bge	a3, s2, 0x1cb24 <__gdtoa+0x86c>
   1c60c: 7d 45        	li	a0, 0x1f
   1c60e: e2 67        	ld	a5, 0x18(sp)
   1c610: bb 09 c5 41  	subw	s3, a0, t3
   1c614: f1 39        	addiw	s3, s3, -0x4
   1c616: 93 f9 f9 01  	andi	s3, s3, 0x1f
   1c61a: 3b 86 f9 00  	addw	a2, s3, a5
   1c61e: 4e c7        	sw	s3, 0x8c(sp)
   1c620: ce 87        	mv	a5, s3
   1c622: 63 4e c0 5a  	bgtz	a2, 0x1cbde <__gdtoa+0x926>
   1c626: 3b 06 fe 00  	addw	a2, t3, a5
   1c62a: 63 44 c0 20  	bgtz	a2, 0x1c832 <__gdtoa+0x57a>
   1c62e: c6 77        	ld	a5, 0x70(sp)
   1c630: 63 96 07 5c  	bnez	a5, 0x1cbfc <__gdtoa+0x944>
   1c634: a2 77        	ld	a5, 0x28(sp)
   1c636: 63 5c f0 68  	blez	a5, 0x1ccce <__gdtoa+0xa16>
   1c63a: 86 67        	ld	a5, 0x40(sp)
   1c63c: 63 8e 07 5e  	beqz	a5, 0x1cc38 <__gdtoa+0x980>
   1c640: 3b 86 99 01  	addw	a2, s3, s9
   1c644: e3 4c c0 06  	bgtz	a2, 0x1cebc <__gdtoa+0xc04>
   1c648: 56 ec        	sd	s5, 0x18(sp)
   1c64a: e3 12 03 0c  	bnez	t1, 0x1cf0e <__gdtoa+0xc56>
   1c64e: 6e e8        	sd	s11, 0x10(sp)
   1c650: a6 e0        	sd	s1, 0x40(sp)
   1c652: a2 7d        	ld	s11, 0x28(sp)
   1c654: e2 64        	ld	s1, 0x18(sp)
   1c656: c2 8b        	mv	s7, a6
   1c658: 85 46        	li	a3, 0x1
   1c65a: 42 f8        	sd	a6, 0x30(sp)
   1c65c: 52 f4        	sd	s4, 0x28(sp)
   1c65e: 8d a8        	j	0x1c6d0 <__gdtoa+0x418>
   1c660: 22 85        	mv	a0, s0
   1c662: ef b0 4f fe  	jal	0x17e46 <_Bfree>
   1c666: e3 49 0b 12  	bltz	s6, 0x1cf98 <__gdtoa+0xce0>
   1c66a: 33 6b 69 01  	or	s6, s2, s6
   1c66e: 01 2b        	sext.w	s6, s6
   1c670: 63 17 0b 00  	bnez	s6, 0x1c67e <__gdtoa+0x3c6>
   1c674: c2 67        	ld	a5, 0x10(sp)
   1c676: 9c 43        	lw	a5, 0x0(a5)
   1c678: 85 8b        	andi	a5, a5, 0x1
   1c67a: e3 8f 07 10  	beqz	a5, 0x1cf98 <__gdtoa+0xce0>
   1c67e: 82 77        	ld	a5, 0x20(sp)
   1c680: 09 47        	li	a4, 0x2
   1c682: e3 92 e7 2c  	bne	a5, a4, 0x1d146 <__gdtoa+0xe8e>
   1c686: 23 80 4b 01  	sb	s4, 0x0(s7)
   1c68a: ba 47        	lw	a5, 0x8c(sp)
   1c68c: 85 0b        	addi	s7, s7, 0x1
   1c68e: e3 85 b7 23  	beq	a5, s11, 0x1d0b8 <__gdtoa+0xe00>
   1c692: e2 85        	mv	a1, s8
   1c694: 81 46        	li	a3, 0x0
   1c696: 29 46        	li	a2, 0xa
   1c698: 22 85        	mv	a0, s0
   1c69a: ef b0 ef fb  	jal	0x17e58 <__multadd>
   1c69e: 2a 8c        	mv	s8, a0
   1c6a0: 63 04 05 1a  	beqz	a0, 0x1c848 <__gdtoa+0x590>
   1c6a4: 81 46        	li	a3, 0x0
   1c6a6: 29 46        	li	a2, 0xa
   1c6a8: d6 85        	mv	a1, s5
   1c6aa: 22 85        	mv	a0, s0
   1c6ac: 63 80 9a 4c  	beq	s5, s1, 0x1cb6c <__gdtoa+0x8b4>
   1c6b0: ef b0 8f fa  	jal	0x17e58 <__multadd>
   1c6b4: aa 8a        	mv	s5, a0
   1c6b6: 63 09 05 18  	beqz	a0, 0x1c848 <__gdtoa+0x590>
   1c6ba: a6 85        	mv	a1, s1
   1c6bc: 81 46        	li	a3, 0x0
   1c6be: 29 46        	li	a2, 0xa
   1c6c0: 22 85        	mv	a0, s0
   1c6c2: ef b0 6f f9  	jal	0x17e58 <__multadd>
   1c6c6: aa 84        	mv	s1, a0
   1c6c8: 63 00 05 18  	beqz	a0, 0x1c848 <__gdtoa+0x590>
   1c6cc: ba 46        	lw	a3, 0x8c(sp)
   1c6ce: 85 26        	addiw	a3, a3, 0x1
   1c6d0: ea 85        	mv	a1, s10
   1c6d2: 62 85        	mv	a0, s8
   1c6d4: 36 c7        	sw	a3, 0x8c(sp)
   1c6d6: ef 00 f0 4e  	jal	0x1d3c4 <__quorem_D2A>
   1c6da: 1b 0a 05 03  	addiw	s4, a0, 0x30
   1c6de: d6 85        	mv	a1, s5
   1c6e0: aa 8c        	mv	s9, a0
   1c6e2: 62 85        	mv	a0, s8
   1c6e4: ef b0 9f e5  	jal	0x1853c <__mcmp>
   1c6e8: ea 85        	mv	a1, s10
   1c6ea: 2a 8b        	mv	s6, a0
   1c6ec: 26 86        	mv	a2, s1
   1c6ee: 22 85        	mv	a0, s0
   1c6f0: ef b0 5f e8  	jal	0x18574 <__mdiff>
   1c6f4: d2 89        	mv	s3, s4
   1c6f6: aa 85        	mv	a1, a0
   1c6f8: 63 08 05 14  	beqz	a0, 0x1c848 <__gdtoa+0x590>
   1c6fc: 1c 49        	lw	a5, 0x10(a0)
   1c6fe: ad f3        	bnez	a5, 0x1c660 <__gdtoa+0x3a8>
   1c700: 2a ec        	sd	a0, 0x18(sp)
   1c702: 62 85        	mv	a0, s8
   1c704: ef b0 9f e3  	jal	0x1853c <__mcmp>
   1c708: e2 65        	ld	a1, 0x18(sp)
   1c70a: aa 86        	mv	a3, a0
   1c70c: 22 85        	mv	a0, s0
   1c70e: 36 ec        	sd	a3, 0x18(sp)
   1c710: ef b0 6f f3  	jal	0x17e46 <_Bfree>
   1c714: e2 66        	ld	a3, 0x18(sp)
   1c716: 33 67 d9 00  	or	a4, s2, a3
   1c71a: 01 27        	sext.w	a4, a4
   1c71c: e3 1e 07 38  	bnez	a4, 0x1d2b8 <__gdtoa+0x1000>
   1c720: c2 67        	ld	a5, 0x10(sp)
   1c722: 9c 43        	lw	a5, 0x0(a5)
   1c724: 85 8b        	andi	a5, a5, 0x1
   1c726: 63 9a 07 44  	bnez	a5, 0x1cb7a <__gdtoa+0x8c2>
   1c72a: 82 77        	ld	a5, 0x20(sp)
   1c72c: e3 82 07 2c  	beqz	a5, 0x1d1f0 <__gdtoa+0xf38>
   1c730: e3 4b 60 f5  	bgtz	s6, 0x1c686 <__gdtoa+0x3ce>
   1c734: 03 26 4c 01  	lw	a2, 0x14(s8)
   1c738: 26 ec        	sd	s1, 0x18(sp)
   1c73a: 85 46        	li	a3, 0x1
   1c73c: 52 83        	mv	t1, s4
   1c73e: 42 78        	ld	a6, 0x30(sp)
   1c740: 22 7a        	ld	s4, 0x28(sp)
   1c742: 86 64        	ld	s1, 0x40(sp)
   1c744: ba 89        	mv	s3, a4
   1c746: e3 d6 c6 34  	bge	a3, a2, 0x1d292 <__gdtoa+0xfda>
   1c74a: 82 77        	ld	a5, 0x20(sp)
   1c74c: 89 46        	li	a3, 0x2
   1c74e: e3 85 d7 32  	beq	a5, a3, 0x1d278 <__gdtoa+0xfc0>
   1c752: 62 6b        	ld	s6, 0x18(sp)
   1c754: 9a 89        	mv	s3, t1
   1c756: c2 8d        	mv	s11, a6
   1c758: 29 a8        	j	0x1c772 <__gdtoa+0x4ba>
   1c75a: ef b0 ef ef  	jal	0x17e58 <__multadd>
   1c75e: ea 85        	mv	a1, s10
   1c760: 2a 8c        	mv	s8, a0
   1c762: 63 03 05 0e  	beqz	a0, 0x1c848 <__gdtoa+0x590>
   1c766: ef 00 f0 45  	jal	0x1d3c4 <__quorem_D2A>
   1c76a: 9b 09 05 03  	addiw	s3, a0, 0x30
   1c76e: e6 8b        	mv	s7, s9
   1c770: 4a 8b        	mv	s6, s2
   1c772: da 85        	mv	a1, s6
   1c774: 6a 85        	mv	a0, s10
   1c776: ef b0 7f dc  	jal	0x1853c <__mcmp>
   1c77a: aa 87        	mv	a5, a0
   1c77c: 81 46        	li	a3, 0x0
   1c77e: 29 46        	li	a2, 0xa
   1c780: da 85        	mv	a1, s6
   1c782: 22 85        	mv	a0, s0
   1c784: 93 8c 1b 00  	addi	s9, s7, 0x1
   1c788: e3 5d f0 2c  	blez	a5, 0x1d262 <__gdtoa+0xfaa>
   1c78c: a3 8f 3c ff  	sb	s3, -0x1(s9)
   1c790: ef b0 8f ec  	jal	0x17e58 <__multadd>
   1c794: 2a 89        	mv	s2, a0
   1c796: 81 46        	li	a3, 0x0
   1c798: 29 46        	li	a2, 0xa
   1c79a: e2 85        	mv	a1, s8
   1c79c: 22 85        	mv	a0, s0
   1c79e: 63 05 09 0a  	beqz	s2, 0x1c848 <__gdtoa+0x590>
   1c7a2: e3 9c 6a fb  	bne	s5, s6, 0x1c75a <__gdtoa+0x4a2>
   1c7a6: ca 8a        	mv	s5, s2
   1c7a8: 4d bf        	j	0x1c75a <__gdtoa+0x4a2>
   1c7aa: 91 47        	li	a5, 0x4
   1c7ac: 63 16 f3 0a  	bne	t1, a5, 0x1c858 <__gdtoa+0x5a0>
   1c7b0: 22 66        	ld	a2, 0x8(sp)
   1c7b2: ee 69        	ld	s3, 0xd8(sp)
   1c7b4: ee 70        	ld	ra, 0xf8(sp)
   1c7b6: ae 74        	ld	s1, 0xe8(sp)
   1c7b8: 4e 6a        	ld	s4, 0xd0(sp)
   1c7ba: aa 7c        	ld	s9, 0xa8(sp)
   1c7bc: e1 77        	lui	a5, 0xffff8
   1c7be: 23 a0 f8 00  	sw	a5, 0x0(a7)
   1c7c2: b7 05 02 00  	lui	a1, 0x20
   1c7c6: 8d 46        	li	a3, 0x3
   1c7c8: 93 85 85 be  	addi	a1, a1, -0x418
   1c7cc: 11 61        	addi	sp, sp, 0x100
   1c7ce: 6f 00 b0 36  	j	0x1d338 <__nrv_alloc_D2A>
   1c7d2: e2 85        	mv	a1, s8
   1c7d4: 22 85        	mv	a0, s0
   1c7d6: ef b0 0f e7  	jal	0x17e46 <_Bfree>
   1c7da: 0e 79        	ld	s2, 0xe0(sp)
   1c7dc: ae 6a        	ld	s5, 0xc8(sp)
   1c7de: 0e 6b        	ld	s6, 0xc0(sp)
   1c7e0: ea 7b        	ld	s7, 0xb8(sp)
   1c7e2: 4a 7c        	ld	s8, 0xb0(sp)
   1c7e4: 0a 7d        	ld	s10, 0xa0(sp)
   1c7e6: ea 6d        	ld	s11, 0x98(sp)
   1c7e8: 22 66        	ld	a2, 0x8(sp)
   1c7ea: 85 47        	li	a5, 0x1
   1c7ec: b7 05 02 00  	lui	a1, 0x20
   1c7f0: 22 85        	mv	a0, s0
   1c7f2: 9c c0        	sw	a5, 0x0(s1)
   1c7f4: 85 46        	li	a3, 0x1
   1c7f6: 93 85 05 b9  	addi	a1, a1, -0x470
   1c7fa: ef 00 f0 33  	jal	0x1d338 <__nrv_alloc_D2A>
   1c7fe: 4e 74        	ld	s0, 0xf0(sp)
   1c800: 2a 88        	mv	a6, a0
   1c802: ee 70        	ld	ra, 0xf8(sp)
   1c804: ee 69        	ld	s3, 0xd8(sp)
   1c806: ae 74        	ld	s1, 0xe8(sp)
   1c808: 4e 6a        	ld	s4, 0xd0(sp)
   1c80a: aa 7c        	ld	s9, 0xa8(sp)
   1c80c: 42 85        	mv	a0, a6
   1c80e: 11 61        	addi	sp, sp, 0x100
   1c810: 82 80        	ret
   1c812: 22 66        	ld	a2, 0x8(sp)
   1c814: ee 70        	ld	ra, 0xf8(sp)
   1c816: ae 74        	ld	s1, 0xe8(sp)
   1c818: 4e 6a        	ld	s4, 0xd0(sp)
   1c81a: aa 7c        	ld	s9, 0xa8(sp)
   1c81c: e1 77        	lui	a5, 0xffff8
   1c81e: 23 a0 f8 00  	sw	a5, 0x0(a7)
   1c822: b7 05 02 00  	lui	a1, 0x20
   1c826: a1 46        	li	a3, 0x8
   1c828: 93 85 85 bd  	addi	a1, a1, -0x428
   1c82c: 11 61        	addi	sp, sp, 0x100
   1c82e: 6f 00 b0 30  	j	0x1d338 <__nrv_alloc_D2A>
   1c832: ea 85        	mv	a1, s10
   1c834: 22 85        	mv	a0, s0
   1c836: 42 ec        	sd	a6, 0x18(sp)
   1c838: 1a e8        	sd	t1, 0x10(sp)
   1c83a: ef b0 bf bd  	jal	0x18414 <__lshift>
   1c83e: 42 63        	ld	t1, 0x10(sp)
   1c840: 62 68        	ld	a6, 0x18(sp)
   1c842: 2a 8d        	mv	s10, a0
   1c844: e3 15 05 de  	bnez	a0, 0x1c62e <__gdtoa+0x376>
   1c848: 4e 74        	ld	s0, 0xf0(sp)
   1c84a: 0e 79        	ld	s2, 0xe0(sp)
   1c84c: ae 6a        	ld	s5, 0xc8(sp)
   1c84e: 0e 6b        	ld	s6, 0xc0(sp)
   1c850: ea 7b        	ld	s7, 0xb8(sp)
   1c852: 4a 7c        	ld	s8, 0xb0(sp)
   1c854: 0a 7d        	ld	s10, 0xa0(sp)
   1c856: ea 6d        	ld	s11, 0x98(sp)
   1c858: 01 48        	li	a6, 0x0
   1c85a: 65 b7        	j	0x1c802 <__gdtoa+0x54a>
   1c85c: 23 2a 0c 00  	sw	zero, 0x14(s8)
   1c860: 1d be        	j	0x1c396 <__gdtoa+0xde>
   1c862: 05 47        	li	a4, 0x1
   1c864: ba f8        	sd	a4, 0x70(sp)
   1c866: 02 ec        	sd	zero, 0x18(sp)
   1c868: 63 44 0e 1a  	bltz	t3, 0x1ca10 <__gdtoa+0x758>
   1c86c: e3 55 03 c2  	bgez	t1, 0x1c496 <__gdtoa+0x1de>
   1c870: 62 67        	ld	a4, 0x18(sp)
   1c872: 1a fc        	sd	t1, 0x38(sp)
   1c874: 3b 07 67 40  	subw	a4, a4, t1
   1c878: 3a ec        	sd	a4, 0x18(sp)
   1c87a: 3b 07 60 40  	negw	a4, t1
   1c87e: 3a f8        	sd	a4, 0x30(sp)
   1c880: 01 43        	li	t1, 0x0
   1c882: 31 b9        	j	0x1c49e <__gdtoa+0x1e6>
   1c884: aa 85        	mv	a1, a0
   1c886: 62 85        	mv	a0, s8
   1c888: ef 00 d0 4a  	jal	0x1d534 <__rshift_D2A>
   1c88c: ba 46        	lw	a3, 0x8c(sp)
   1c88e: c2 67        	ld	a5, 0x10(sp)
   1c890: 3b 86 f6 00  	addw	a2, a3, a5
   1c894: e2 67        	ld	a5, 0x18(sp)
   1c896: 95 9f        	subw	a5, a5, a3
   1c898: 01 be        	j	0x1c3a8 <__gdtoa+0xf0>
   1c89a: 9b 8a da 3f  	addiw	s5, s5, 0x3fd
   1c89e: 93 ba 8a 7f  	sltiu	s5, s5, 0x7f8
   1c8a2: 01 49        	li	s2, 0x0
   1c8a4: 07 b7 81 19  	fld	fa4, 0x198(gp)
   1c8a8: d3 07 0d d2  	fcvt.d.w	fa5, s10
   1c8ac: 05 47        	li	a4, 0x1
   1c8ae: ba e0        	sd	a4, 0x40(sp)
   1c8b0: d3 f7 e7 12  	fmul.d	fa5, fa5, fa4
   1c8b4: 7d 57        	li	a4, -0x1
   1c8b6: 81 4b        	li	s7, 0x0
   1c8b8: ba fc        	sd	a4, 0x78(sp)
   1c8ba: 3a f4        	sd	a4, 0x28(sp)
   1c8bc: d3 95 07 c2  	fcvt.w.d	a1, fa5, rtz
   1c8c0: 8d 25        	addiw	a1, a1, 0x3
   1c8c2: ae 88        	mv	a7, a1
   1c8c4: 31 b9        	j	0x1c4e0 <__gdtoa+0x228>
   1c8c6: 02 77        	ld	a4, 0x20(sp)
   1c8c8: 8d 45        	li	a1, 0x3
   1c8ca: 3b 87 e5 40  	subw	a4, a1, a4
   1c8ce: 3a f0        	sd	a4, 0x20(sp)
   1c8d0: 22 77        	ld	a4, 0x28(sp)
   1c8d2: 39 45        	li	a0, 0xe
   1c8d4: 9b 05 07 00  	sext.w	a1, a4
   1c8d8: e3 61 b5 c4  	bltu	a0, a1, 0x1c51a <__gdtoa+0x262>
   1c8dc: e3 8f 0a c2  	beqz	s5, 0x1c51a <__gdtoa+0x262>
   1c8e0: e2 75        	ld	a1, 0x38(sp)
   1c8e2: 02 75        	ld	a0, 0x20(sp)
   1c8e4: c9 8d        	or	a1, a1, a0
   1c8e6: 81 25        	sext.w	a1, a1
   1c8e8: e3 99 05 c2  	bnez	a1, 0x1c51a <__gdtoa+0x262>
   1c8ec: c6 75        	ld	a1, 0x70(sp)
   1c8ee: 02 c7        	sw	zero, 0x8c(sp)
   1c8f0: b6 8e        	mv	t4, a3
   1c8f2: 89 c9        	beqz	a1, 0x1c904 <__gdtoa+0x64c>
   1c8f4: 87 b7 01 0e  	fld	fa5, 0xe0(gp)
   1c8f8: 53 87 06 f2  	fmv.d.x	fa4, a3
   1c8fc: d3 15 f7 a2  	flt.d	a1, fa4, fa5
   1c900: 63 94 05 7c  	bnez	a1, 0x1d0c8 <__gdtoa+0xe10>
   1c904: 07 b7 81 0e  	fld	fa4, 0xe8(gp)
   1c908: 87 b7 81 1a  	fld	fa5, 0x1a8(gp)
   1c90c: d3 86 0e f2  	fmv.d.x	fa3, t4
   1c910: b7 05 c0 fc  	lui	a1, 0xfcc00
   1c914: 22 77        	ld	a4, 0x28(sp)
   1c916: c3 f7 e6 7a  	fmadd.d	fa5, fa3, fa4, fa5
   1c91a: 53 85 07 e2  	fmv.x.d	a0, fa5
   1c91e: 13 5f 05 02  	srli	t5, a0, 0x20
   1c922: bb 85 e5 01  	addw	a1, a1, t5
   1c926: 7d 5f        	li	t5, -0x1
   1c928: 13 5f 0f 02  	srli	t5, t5, 0x20
   1c92c: 82 15        	slli	a1, a1, 0x20
   1c92e: 33 7f af 00  	and	t5, t5, a0
   1c932: 33 6f bf 00  	or	t5, t5, a1
   1c936: 63 09 07 4c  	beqz	a4, 0x1ce08 <__gdtoa+0xb50>
   1c93a: a2 7f        	ld	t6, 0x28(sp)
   1c93c: 76 85        	mv	a0, t4
   1c93e: 81 43        	li	t2, 0x0
   1c940: b7 05 02 00  	lui	a1, 0x20
   1c944: 9b 82 ff ff  	addiw	t0, t6, -0x1
   1c948: 06 67        	ld	a4, 0x40(sp)
   1c94a: 93 85 05 f8  	addi	a1, a1, -0x80
   1c94e: 8e 02        	slli	t0, t0, 0x3
   1c950: ae 92        	add	t0, t0, a1
   1c952: 87 b7 02 00  	fld	fa5, 0x0(t0)
   1c956: 63 0b 07 6c  	beqz	a4, 0x1d02c <__gdtoa+0xd74>
   1c95a: 53 07 05 f2  	fmv.d.x	fa4, a0
   1c95e: d3 06 05 f2  	fmv.d.x	fa3, a0
   1c962: d3 16 07 c2  	fcvt.w.d	a3, fa4, rtz
   1c966: 07 b7 81 12  	fld	fa4, 0x128(gp)
   1c96a: 93 0c 18 00  	addi	s9, a6, 0x1
   1c96e: 53 77 f7 1a  	fdiv.d	fa4, fa4, fa5
   1c972: d3 87 06 d2  	fcvt.d.w	fa5, a3
   1c976: 9b 86 06 03  	addiw	a3, a3, 0x30
   1c97a: 23 00 d8 00  	sb	a3, 0x0(a6)
   1c97e: d3 f7 f6 0a  	fsub.d	fa5, fa3, fa5
   1c982: d3 06 0f f2  	fmv.d.x	fa3, t5
   1c986: 53 77 d7 0a  	fsub.d	fa4, fa4, fa3
   1c98a: d3 96 e7 a2  	flt.d	a3, fa5, fa4
   1c98e: e3 9c 06 00  	bnez	a3, 0x1d1a6 <__gdtoa+0xeee>
   1c992: 87 b5 01 0e  	fld	fa1, 0xe0(gp)
   1c996: 07 b6 81 16  	fld	fa2, 0x168(gp)
   1c99a: 0d a8        	j	0x1c9cc <__gdtoa+0x714>
   1c99c: 3a 47        	lw	a4, 0x8c(sp)
   1c99e: 85 0c        	addi	s9, s9, 0x1
   1c9a0: 05 27        	addiw	a4, a4, 0x1
   1c9a2: 3a c7        	sw	a4, 0x8c(sp)
   1c9a4: e3 5e f7 01  	bge	a4, t6, 0x1d1c0 <__gdtoa+0xf08>
   1c9a8: d3 f7 c7 12  	fmul.d	fa5, fa5, fa2
   1c9ac: 53 77 c7 12  	fmul.d	fa4, fa4, fa2
   1c9b0: 53 97 07 c2  	fcvt.w.d	a4, fa5, rtz
   1c9b4: d3 06 07 d2  	fcvt.d.w	fa3, a4
   1c9b8: 1b 07 07 03  	addiw	a4, a4, 0x30
   1c9bc: a3 8f ec fe  	sb	a4, -0x1(s9)
   1c9c0: d3 f7 d7 0a  	fsub.d	fa5, fa5, fa3
   1c9c4: 53 97 e7 a2  	flt.d	a4, fa5, fa4
   1c9c8: 63 1f 07 7c  	bnez	a4, 0x1d1a6 <__gdtoa+0xeee>
   1c9cc: d3 f6 f5 0a  	fsub.d	fa3, fa1, fa5
   1c9d0: 53 97 e6 a2  	flt.d	a4, fa3, fa4
   1c9d4: 61 d7        	beqz	a4, 0x1c99c <__gdtoa+0x6e4>
   1c9d6: 83 c6 fc ff  	lbu	a3, -0x1(s9)
   1c9da: 9b 85 13 00  	addiw	a1, t2, 0x1
   1c9de: 13 06 90 03  	li	a2, 0x39
   1c9e2: 31 a0        	j	0x1c9ee <__gdtoa+0x736>
   1c9e4: 63 00 f8 64  	beq	a6, a5, 0x1d024 <__gdtoa+0xd6c>
   1c9e8: 83 c6 f7 ff  	lbu	a3, -0x1(a5)
   1c9ec: be 8c        	mv	s9, a5
   1c9ee: 93 87 fc ff  	addi	a5, s9, -0x1
   1c9f2: e3 89 c6 fe  	beq	a3, a2, 0x1c9e4 <__gdtoa+0x72c>
   1c9f6: 85 26        	addiw	a3, a3, 0x1
   1c9f8: 93 f6 f6 0f  	andi	a3, a3, 0xff
   1c9fc: 23 80 d7 00  	sb	a3, 0x0(a5)
   1ca00: 1b 89 05 00  	sext.w	s2, a1
   1ca04: 93 09 00 02  	li	s3, 0x20
   1ca08: cd a0        	j	0x1caea <__gdtoa+0x832>
   1ca0a: 4e 74        	ld	s0, 0xf0(sp)
   1ca0c: 0e 79        	ld	s2, 0xe0(sp)
   1ca0e: 81 b5        	j	0x1c84e <__gdtoa+0x596>
   1ca10: 85 45        	li	a1, 0x1
   1ca12: 3b 87 15 41  	subw	a4, a1, a7
   1ca16: 3a ec        	sd	a4, 0x18(sp)
   1ca18: 01 4e        	li	t3, 0x0
   1ca1a: e3 4b 03 e4  	bltz	t1, 0x1c870 <__gdtoa+0x5b8>
   1ca1e: a5 bc        	j	0x1c496 <__gdtoa+0x1de>
   1ca20: 42 7d        	ld	s10, 0x30(sp)
   1ca22: e2 6c        	ld	s9, 0x18(sp)
   1ca24: 81 4a        	li	s5, 0x0
   1ca26: 8d be        	j	0x1c598 <__gdtoa+0x2e0>
   1ca28: 09 47        	li	a4, 0x2
   1ca2a: 3a f0        	sd	a4, 0x20(sp)
   1ca2c: dd b4        	j	0x1c512 <__gdtoa+0x25a>
   1ca2e: 71 39        	addiw	s2, s2, -0x4
   1ca30: 11 45        	li	a0, 0x4
   1ca32: 63 00 a9 12  	beq	s2, a0, 0x1cb52 <__gdtoa+0x89a>
   1ca36: 63 0f b9 48  	beq	s2, a1, 0x1ced4 <__gdtoa+0xc1c>
   1ca3a: 89 45        	li	a1, 0x2
   1ca3c: 82 e0        	sd	zero, 0x40(sp)
   1ca3e: 81 4a        	li	s5, 0x0
   1ca40: 63 0c b9 10  	beq	s2, a1, 0x1cb58 <__gdtoa+0x8a0>
   1ca44: 0d 49        	li	s2, 0x3
   1ca46: 51 b4        	j	0x1c4ca <__gdtoa+0x212>
   1ca48: 7d 33        	addiw	t1, t1, -0x1
   1ca4a: 82 f8        	sd	zero, 0x70(sp)
   1ca4c: 29 bd        	j	0x1c866 <__gdtoa+0x5ae>
   1ca4e: b7 07 02 00  	lui	a5, 0x20
   1ca52: 13 16 37 00  	slli	a2, a4, 0x3
   1ca56: 93 87 07 f8  	addi	a5, a5, -0x80
   1ca5a: b2 97        	add	a5, a5, a2
   1ca5c: 98 23        	fld	fa4, 0x0(a5)
   1ca5e: 63 ca 0b 32  	bltz	s7, 0x1cd92 <__gdtoa+0xada>
   1ca62: d3 87 06 f2  	fmv.d.x	fa5, a3
   1ca66: 85 47        	li	a5, 0x1
   1ca68: 3e c7        	sw	a5, 0x8c(sp)
   1ca6a: d3 f7 e7 1a  	fdiv.d	fa5, fa5, fa4
   1ca6e: e2 77        	ld	a5, 0x38(sp)
   1ca70: d3 86 06 f2  	fmv.d.x	fa3, a3
   1ca74: 93 0c 18 00  	addi	s9, a6, 0x1
   1ca78: 1b 89 17 00  	addiw	s2, a5, 0x1
   1ca7c: ca 85        	mv	a1, s2
   1ca7e: d3 97 07 c2  	fcvt.w.d	a5, fa5, rtz
   1ca82: d3 87 07 d2  	fcvt.d.w	fa5, a5
   1ca86: 1b 86 07 03  	addiw	a2, a5, 0x30
   1ca8a: 23 00 c8 00  	sb	a2, 0x0(a6)
   1ca8e: cb 77 f7 6a  	fnmsub.d	fa5, fa4, fa5, fa3
   1ca92: d3 06 00 f2  	fmv.d.x	fa3, zero
   1ca96: 81 27        	sext.w	a5, a5
   1ca98: d3 a6 d7 a2  	feq.d	a3, fa5, fa3
   1ca9c: b9 e6        	bnez	a3, 0x1caea <__gdtoa+0x832>
   1ca9e: 87 b5 81 16  	fld	fa1, 0x168(gp)
   1caa2: 53 86 d6 22  	fmv.d	fa2, fa3
   1caa6: 22 76        	ld	a2, 0x28(sp)
   1caa8: 2d a0        	j	0x1cad2 <__gdtoa+0x81a>
   1caaa: d3 f7 b7 12  	fmul.d	fa5, fa5, fa1
   1caae: 36 c7        	sw	a3, 0x8c(sp)
   1cab0: 85 0c        	addi	s9, s9, 0x1
   1cab2: d3 f6 e7 1a  	fdiv.d	fa3, fa5, fa4
   1cab6: d3 97 06 c2  	fcvt.w.d	a5, fa3, rtz
   1caba: d3 86 07 d2  	fcvt.d.w	fa3, a5
   1cabe: 1b 87 07 03  	addiw	a4, a5, 0x30
   1cac2: a3 8f ec fe  	sb	a4, -0x1(s9)
   1cac6: cb f7 e6 7a  	fnmsub.d	fa5, fa3, fa4, fa5
   1caca: 81 27        	sext.w	a5, a5
   1cacc: 53 a7 c7 a2  	feq.d	a4, fa5, fa2
   1cad0: 09 ef        	bnez	a4, 0x1caea <__gdtoa+0x832>
   1cad2: 3a 47        	lw	a4, 0x8c(sp)
   1cad4: 9b 06 17 00  	addiw	a3, a4, 0x1
   1cad8: e3 19 c7 fc  	bne	a4, a2, 0x1caaa <__gdtoa+0x7f2>
   1cadc: 02 77        	ld	a4, 0x20(sp)
   1cade: 63 08 07 50  	beqz	a4, 0x1cfee <__gdtoa+0xd36>
   1cae2: 85 47        	li	a5, 0x1
   1cae4: c1 49        	li	s3, 0x10
   1cae6: 63 08 f7 62  	beq	a4, a5, 0x1d116 <__gdtoa+0xe5e>
   1caea: e2 85        	mv	a1, s8
   1caec: 22 85        	mv	a0, s0
   1caee: 42 e8        	sd	a6, 0x10(sp)
   1caf0: ef b0 6f b5  	jal	0x17e46 <_Bfree>
   1caf4: a2 67        	ld	a5, 0x8(sp)
   1caf6: 23 80 0c 00  	sb	zero, 0x0(s9)
   1cafa: 23 a0 24 01  	sw	s2, 0x0(s1)
   1cafe: 42 68        	ld	a6, 0x10(sp)
   1cb00: 99 c3        	beqz	a5, 0x1cb06 <__gdtoa+0x84e>
   1cb02: 23 b0 97 01  	sd	s9, 0x0(a5)
   1cb06: 83 27 0a 00  	lw	a5, 0x0(s4)
   1cb0a: 4e 74        	ld	s0, 0xf0(sp)
   1cb0c: 0e 79        	ld	s2, 0xe0(sp)
   1cb0e: b3 e7 f9 00  	or	a5, s3, a5
   1cb12: ae 6a        	ld	s5, 0xc8(sp)
   1cb14: 0e 6b        	ld	s6, 0xc0(sp)
   1cb16: ea 7b        	ld	s7, 0xb8(sp)
   1cb18: 4a 7c        	ld	s8, 0xb0(sp)
   1cb1a: 0a 7d        	ld	s10, 0xa0(sp)
   1cb1c: ea 6d        	ld	s11, 0x98(sp)
   1cb1e: 23 20 fa 00  	sw	a5, 0x0(s4)
   1cb22: c5 b1        	j	0x1c802 <__gdtoa+0x54a>
   1cb24: e3 94 d7 ae  	bne	a5, a3, 0x1c60c <__gdtoa+0x354>
   1cb28: 83 27 4b 00  	lw	a5, 0x4(s6)
   1cb2c: 42 67        	ld	a4, 0x10(sp)
   1cb2e: 85 27        	addiw	a5, a5, 0x1
   1cb30: e3 de e7 ac  	bge	a5, a4, 0x1c60c <__gdtoa+0x354>
   1cb34: e2 67        	ld	a5, 0x18(sp)
   1cb36: 05 2e        	addiw	t3, t3, 0x1
   1cb38: 05 43        	li	t1, 0x1
   1cb3a: 85 27        	addiw	a5, a5, 0x1
   1cb3c: 3e ec        	sd	a5, 0x18(sp)
   1cb3e: f9 b4        	j	0x1c60c <__gdtoa+0x354>
   1cb40: 53 07 05 d2  	fcvt.d.w	fa4, a0
   1cb44: d3 25 f7 a2  	feq.d	a1, fa4, fa5
   1cb48: e3 9e 05 8e  	bnez	a1, 0x1c444 <__gdtoa+0x18c>
   1cb4c: 1b 03 f5 ff  	addiw	t1, a0, -0x1
   1cb50: d5 b8        	j	0x1c444 <__gdtoa+0x18c>
   1cb52: 05 47        	li	a4, 0x1
   1cb54: 81 4a        	li	s5, 0x0
   1cb56: ba e0        	sd	a4, 0x40(sp)
   1cb58: 9b 85 0b 00  	sext.w	a1, s7
   1cb5c: 63 43 70 01  	bgtz	s7, 0x1cb62 <__gdtoa+0x8aa>
   1cb60: 85 45        	li	a1, 0x1
   1cb62: ae 88        	mv	a7, a1
   1cb64: ae fc        	sd	a1, 0x78(sp)
   1cb66: 2e f4        	sd	a1, 0x28(sp)
   1cb68: ae 8b        	mv	s7, a1
   1cb6a: 9d ba        	j	0x1c4e0 <__gdtoa+0x228>
   1cb6c: ef b0 cf ae  	jal	0x17e58 <__multadd>
   1cb70: aa 8a        	mv	s5, a0
   1cb72: e3 0b 05 cc  	beqz	a0, 0x1c848 <__gdtoa+0x590>
   1cb76: aa 84        	mv	s1, a0
   1cb78: 91 be        	j	0x1c6cc <__gdtoa+0x414>
   1cb7a: e3 56 0b b0  	bgez	s6, 0x1c686 <__gdtoa+0x3ce>
   1cb7e: 82 77        	ld	a5, 0x20(sp)
   1cb80: 26 ec        	sd	s1, 0x18(sp)
   1cb82: 52 83        	mv	t1, s4
   1cb84: 42 78        	ld	a6, 0x30(sp)
   1cb86: 22 7a        	ld	s4, 0x28(sp)
   1cb88: 86 64        	ld	s1, 0x40(sp)
   1cb8a: ba 89        	mv	s3, a4
   1cb8c: 63 9e 07 6e  	bnez	a5, 0x1d288 <__gdtoa+0xfd0>
   1cb90: 03 26 4c 01  	lw	a2, 0x14(s8)
   1cb94: 85 46        	li	a3, 0x1
   1cb96: c1 49        	li	s3, 0x10
   1cb98: 93 8c 1b 00  	addi	s9, s7, 0x1
   1cb9c: 63 db c6 68  	bge	a3, a2, 0x1d232 <__gdtoa+0xf7a>
   1cba0: 23 80 6b 00  	sb	t1, 0x0(s7)
   1cba4: 56 8b        	mv	s6, s5
   1cba6: e2 6a        	ld	s5, 0x18(sp)
   1cba8: ea 85        	mv	a1, s10
   1cbaa: 22 85        	mv	a0, s0
   1cbac: 42 e8        	sd	a6, 0x10(sp)
   1cbae: ef b0 8f a9  	jal	0x17e46 <_Bfree>
   1cbb2: e2 77        	ld	a5, 0x38(sp)
   1cbb4: 42 68        	ld	a6, 0x10(sp)
   1cbb6: 1b 89 17 00  	addiw	s2, a5, 0x1
   1cbba: e3 88 0a f2  	beqz	s5, 0x1caea <__gdtoa+0x832>
   1cbbe: 63 09 0b 00  	beqz	s6, 0x1cbd0 <__gdtoa+0x918>
   1cbc2: 63 07 5b 01  	beq	s6, s5, 0x1cbd0 <__gdtoa+0x918>
   1cbc6: da 85        	mv	a1, s6
   1cbc8: 22 85        	mv	a0, s0
   1cbca: ef b0 cf a7  	jal	0x17e46 <_Bfree>
   1cbce: 42 68        	ld	a6, 0x10(sp)
   1cbd0: d6 85        	mv	a1, s5
   1cbd2: 22 85        	mv	a0, s0
   1cbd4: 42 e8        	sd	a6, 0x10(sp)
   1cbd6: ef b0 0f a7  	jal	0x17e46 <_Bfree>
   1cbda: 42 68        	ld	a6, 0x10(sp)
   1cbdc: 39 b7        	j	0x1caea <__gdtoa+0x832>
   1cbde: e2 85        	mv	a1, s8
   1cbe0: 22 85        	mv	a0, s0
   1cbe2: 42 f8        	sd	a6, 0x30(sp)
   1cbe4: 72 ec        	sd	t3, 0x18(sp)
   1cbe6: 1a e8        	sd	t1, 0x10(sp)
   1cbe8: ef b0 df 82  	jal	0x18414 <__lshift>
   1cbec: 2a 8c        	mv	s8, a0
   1cbee: e3 0d 05 c4  	beqz	a0, 0x1c848 <__gdtoa+0x590>
   1cbf2: ba 47        	lw	a5, 0x8c(sp)
   1cbf4: 42 78        	ld	a6, 0x30(sp)
   1cbf6: 62 6e        	ld	t3, 0x18(sp)
   1cbf8: 42 63        	ld	t1, 0x10(sp)
   1cbfa: 35 b4        	j	0x1c626 <__gdtoa+0x36e>
   1cbfc: ea 85        	mv	a1, s10
   1cbfe: 62 85        	mv	a0, s8
   1cc00: 42 ec        	sd	a6, 0x18(sp)
   1cc02: 1a e8        	sd	t1, 0x10(sp)
   1cc04: ef b0 9f 93  	jal	0x1853c <__mcmp>
   1cc08: 42 63        	ld	t1, 0x10(sp)
   1cc0a: 62 68        	ld	a6, 0x18(sp)
   1cc0c: e3 54 05 a2  	bgez	a0, 0x1c634 <__gdtoa+0x37c>
   1cc10: e2 77        	ld	a5, 0x38(sp)
   1cc12: e2 85        	mv	a1, s8
   1cc14: 81 46        	li	a3, 0x0
   1cc16: fd 37        	addiw	a5, a5, -0x1
   1cc18: 29 46        	li	a2, 0xa
   1cc1a: 22 85        	mv	a0, s0
   1cc1c: 3e fc        	sd	a5, 0x38(sp)
   1cc1e: ef b0 af a3  	jal	0x17e58 <__multadd>
   1cc22: 2a 8c        	mv	s8, a0
   1cc24: e3 02 05 c2  	beqz	a0, 0x1c848 <__gdtoa+0x590>
   1cc28: 86 67        	ld	a5, 0x40(sp)
   1cc2a: 62 68        	ld	a6, 0x18(sp)
   1cc2c: 63 91 07 54  	bnez	a5, 0x1d16e <__gdtoa+0xeb6>
   1cc30: e6 77        	ld	a5, 0x78(sp)
   1cc32: 63 5a f0 14  	blez	a5, 0x1cd86 <__gdtoa+0xace>
   1cc36: 3e f4        	sd	a5, 0x28(sp)
   1cc38: 22 79        	ld	s2, 0x28(sp)
   1cc3a: c2 8b        	mv	s7, a6
   1cc3c: 85 46        	li	a3, 0x1
   1cc3e: c2 89        	mv	s3, a6
   1cc40: 01 a8        	j	0x1cc50 <__gdtoa+0x998>
   1cc42: ef b0 6f a1  	jal	0x17e58 <__multadd>
   1cc46: 2a 8c        	mv	s8, a0
   1cc48: e3 00 05 c0  	beqz	a0, 0x1c848 <__gdtoa+0x590>
   1cc4c: ba 46        	lw	a3, 0x8c(sp)
   1cc4e: 85 26        	addiw	a3, a3, 0x1
   1cc50: ea 85        	mv	a1, s10
   1cc52: 62 85        	mv	a0, s8
   1cc54: 36 c7        	sw	a3, 0x8c(sp)
   1cc56: ef 00 e0 76  	jal	0x1d3c4 <__quorem_D2A>
   1cc5a: 1b 03 05 03  	addiw	t1, a0, 0x30
   1cc5e: 23 80 6b 00  	sb	t1, 0x0(s7)
   1cc62: ba 47        	lw	a5, 0x8c(sp)
   1cc64: 81 46        	li	a3, 0x0
   1cc66: 29 46        	li	a2, 0xa
   1cc68: e2 85        	mv	a1, s8
   1cc6a: 22 85        	mv	a0, s0
   1cc6c: 85 0b        	addi	s7, s7, 0x1
   1cc6e: e3 ca 27 fd  	blt	a5, s2, 0x1cc42 <__gdtoa+0x98a>
   1cc72: 4e 88        	mv	a6, s3
   1cc74: 01 4b        	li	s6, 0x0
   1cc76: 82 77        	ld	a5, 0x20(sp)
   1cc78: 63 87 07 2c  	beqz	a5, 0x1cf46 <__gdtoa+0xc8e>
   1cc7c: 89 46        	li	a3, 0x2
   1cc7e: 03 26 4c 01  	lw	a2, 0x14(s8)
   1cc82: 63 88 d7 2e  	beq	a5, a3, 0x1cf72 <__gdtoa+0xcba>
   1cc86: 85 46        	li	a3, 0x1
   1cc88: 63 c9 c6 20  	blt	a3, a2, 0x1ce9a <__gdtoa+0xbe2>
   1cc8c: 83 26 8c 01  	lw	a3, 0x18(s8)
   1cc90: 63 95 06 20  	bnez	a3, 0x1ce9a <__gdtoa+0xbe2>
   1cc94: b3 36 d0 00  	snez	a3, a3
   1cc98: 93 99 46 00  	slli	s3, a3, 0x4
   1cc9c: 13 06 00 03  	li	a2, 0x30
   1cca0: 83 c7 fb ff  	lbu	a5, -0x1(s7)
   1cca4: de 8c        	mv	s9, s7
   1cca6: fd 1b        	addi	s7, s7, -0x1
   1cca8: e3 8c c7 fe  	beq	a5, a2, 0x1cca0 <__gdtoa+0x9e8>
   1ccac: f5 bd        	j	0x1cba8 <__gdtoa+0x8f0>
   1ccae: 22 77        	ld	a4, 0x28(sp)
   1ccb0: 42 76        	ld	a2, 0x30(sp)
   1ccb2: 9b 06 f7 ff  	addiw	a3, a4, -0x1
   1ccb6: 63 41 d6 10  	blt	a2, a3, 0x1cdb8 <__gdtoa+0xb00>
   1ccba: 3b 0d d6 40  	subw	s10, a2, a3
   1ccbe: 63 5b 07 46  	bgez	a4, 0x1d134 <__gdtoa+0xe7c>
   1ccc2: 62 67        	ld	a4, 0x18(sp)
   1ccc4: a2 76        	ld	a3, 0x28(sp)
   1ccc6: 02 c7        	sw	zero, 0x8c(sp)
   1ccc8: bb 0c d7 40  	subw	s9, a4, a3
   1cccc: 7d b0        	j	0x1c57a <__gdtoa+0x2c2>
   1ccce: 89 47        	li	a5, 0x2
   1ccd0: e3 d5 27 97  	bge	a5, s2, 0x1c63a <__gdtoa+0x382>
   1ccd4: ea 85        	mv	a1, s10
   1ccd6: 81 46        	li	a3, 0x0
   1ccd8: 15 46        	li	a2, 0x5
   1ccda: 22 85        	mv	a0, s0
   1ccdc: 42 e8        	sd	a6, 0x10(sp)
   1ccde: ef b0 af 97  	jal	0x17e58 <__multadd>
   1cce2: aa 85        	mv	a1, a0
   1cce4: e3 02 05 b6  	beqz	a0, 0x1c848 <__gdtoa+0x590>
   1cce8: a2 77        	ld	a5, 0x28(sp)
   1ccea: 42 68        	ld	a6, 0x10(sp)
   1ccec: 63 92 07 14  	bnez	a5, 0x1ce30 <__gdtoa+0xb78>
   1ccf0: 2a e8        	sd	a0, 0x10(sp)
   1ccf2: 62 85        	mv	a0, s8
   1ccf4: 42 ec        	sd	a6, 0x18(sp)
   1ccf6: ef b0 7f 84  	jal	0x1853c <__mcmp>
   1ccfa: e2 77        	ld	a5, 0x38(sp)
   1ccfc: c2 65        	ld	a1, 0x10(sp)
   1ccfe: 62 68        	ld	a6, 0x18(sp)
   1cd00: 1b 89 27 00  	addiw	s2, a5, 0x2
   1cd04: 63 56 a0 12  	blez	a0, 0x1ce30 <__gdtoa+0xb78>
   1cd08: 93 07 10 03  	li	a5, 0x31
   1cd0c: 93 0c 18 00  	addi	s9, a6, 0x1
   1cd10: 23 00 f8 00  	sb	a5, 0x0(a6)
   1cd14: 93 09 00 02  	li	s3, 0x20
   1cd18: 22 85        	mv	a0, s0
   1cd1a: 42 e8        	sd	a6, 0x10(sp)
   1cd1c: ef b0 af 92  	jal	0x17e46 <_Bfree>
   1cd20: 42 68        	ld	a6, 0x10(sp)
   1cd22: e3 84 0a dc  	beqz	s5, 0x1caea <__gdtoa+0x832>
   1cd26: 6d b5        	j	0x1cbd0 <__gdtoa+0x918>
   1cd28: 85 48        	li	a7, 0x1
   1cd2a: 85 45        	li	a1, 0x1
   1cd2c: 6f f0 4f fb  	j	0x1c4e0 <__gdtoa+0x228>
   1cd30: aa 85        	mv	a1, a0
   1cd32: 1a 86        	mv	a2, t1
   1cd34: 22 85        	mv	a0, s0
   1cd36: c2 e4        	sd	a6, 0x48(sp)
   1cd38: 72 f8        	sd	t3, 0x30(sp)
   1cd3a: ef b0 0f e0  	jal	0x1833a <__pow5mult>
   1cd3e: 2a 8d        	mv	s10, a0
   1cd40: e3 04 05 b0  	beqz	a0, 0x1c848 <__gdtoa+0x590>
   1cd44: 85 46        	li	a3, 0x1
   1cd46: 42 7e        	ld	t3, 0x30(sp)
   1cd48: 26 68        	ld	a6, 0x48(sp)
   1cd4a: 63 d3 26 1b  	bge	a3, s2, 0x1cef0 <__gdtoa+0xc38>
   1cd4e: 83 27 4d 01  	lw	a5, 0x14(s10)
   1cd52: 42 f8        	sd	a6, 0x30(sp)
   1cd54: 72 e8        	sd	t3, 0x10(sp)
   1cd56: fd 37        	addiw	a5, a5, -0x1
   1cd58: 91 07        	addi	a5, a5, 0x4
   1cd5a: 8a 07        	slli	a5, a5, 0x2
   1cd5c: ea 97        	add	a5, a5, s10
   1cd5e: 88 47        	lw	a0, 0x8(a5)
   1cd60: ef b0 cf ac  	jal	0x1802c <__hi0bits>
   1cd64: 42 78        	ld	a6, 0x30(sp)
   1cd66: 42 6e        	ld	t3, 0x10(sp)
   1cd68: 4e 83        	mv	t1, s3
   1cd6a: 6f f0 5f 8a  	j	0x1c60e <__gdtoa+0x356>
   1cd6e: 85 46        	li	a3, 0x1
   1cd70: e3 cf 26 f3  	blt	a3, s2, 0x1ccae <__gdtoa+0x9f6>
   1cd74: 62 67        	ld	a4, 0x18(sp)
   1cd76: 42 7d        	ld	s10, 0x30(sp)
   1cd78: 3b 8e c5 01  	addw	t3, a1, t3
   1cd7c: ba 8c        	mv	s9, a4
   1cd7e: 2d 9f        	addw	a4, a4, a1
   1cd80: 3a ec        	sd	a4, 0x18(sp)
   1cd82: 6f f0 8f ff  	j	0x1c57a <__gdtoa+0x2c2>
   1cd86: 89 47        	li	a5, 0x2
   1cd88: 63 cb 27 4b  	blt	a5, s2, 0x1d23e <__gdtoa+0xf86>
   1cd8c: e6 77        	ld	a5, 0x78(sp)
   1cd8e: 3e f4        	sd	a5, 0x28(sp)
   1cd90: 65 b5        	j	0x1cc38 <__gdtoa+0x980>
   1cd92: a2 77        	ld	a5, 0x28(sp)
   1cd94: e3 47 f0 cc  	bgtz	a5, 0x1ca62 <__gdtoa+0x7aa>
   1cd98: d1 eb        	bnez	a5, 0x1ce2c <__gdtoa+0xb74>
   1cd9a: 87 b7 01 1b  	fld	fa5, 0x1b0(gp)
   1cd9e: 53 77 f7 12  	fmul.d	fa4, fa4, fa5
   1cda2: d3 87 06 f2  	fmv.d.x	fa5, a3
   1cda6: d3 87 e7 a2  	fle.d	a5, fa5, fa4
   1cdaa: c9 e3        	bnez	a5, 0x1ce2c <__gdtoa+0xb74>
   1cdac: e2 77        	ld	a5, 0x38(sp)
   1cdae: 81 45        	li	a1, 0x0
   1cdb0: 81 4a        	li	s5, 0x0
   1cdb2: 1b 89 27 00  	addiw	s2, a5, 0x2
   1cdb6: 89 bf        	j	0x1cd08 <__gdtoa+0xa50>
   1cdb8: 42 77        	ld	a4, 0x30(sp)
   1cdba: e2 65        	ld	a1, 0x18(sp)
   1cdbc: 01 4d        	li	s10, 0x0
   1cdbe: 3b 86 e6 40  	subw	a2, a3, a4
   1cdc2: 22 77        	ld	a4, 0x28(sp)
   1cdc4: ae 8c        	mv	s9, a1
   1cdc6: 3b 03 66 00  	addw	t1, a2, t1
   1cdca: 3a c7        	sw	a4, 0x8c(sp)
   1cdcc: 3b 0e c7 01  	addw	t3, a4, t3
   1cdd0: 2d 9f        	addw	a4, a4, a1
   1cdd2: 3a ec        	sd	a4, 0x18(sp)
   1cdd4: 36 f8        	sd	a3, 0x30(sp)
   1cdd6: 6f f0 4f fa  	j	0x1c57a <__gdtoa+0x2c2>
   1cdda: 87 b7 81 0e  	fld	fa5, 0xe8(gp)
   1cdde: 07 b7 81 1a  	fld	fa4, 0x1a8(gp)
   1cde2: d3 86 0e f2  	fmv.d.x	fa3, t4
   1cde6: b7 06 c0 fc  	lui	a3, 0xfcc00
   1cdea: 7d 5f        	li	t5, -0x1
   1cdec: c3 f7 f6 72  	fmadd.d	fa5, fa3, fa5, fa4
   1cdf0: 13 5f 0f 02  	srli	t5, t5, 0x20
   1cdf4: d3 85 07 e2  	fmv.x.d	a1, fa5
   1cdf8: 13 d5 05 02  	srli	a0, a1, 0x20
   1cdfc: a9 9e        	addw	a3, a3, a0
   1cdfe: 82 16        	slli	a3, a3, 0x20
   1ce00: 33 7f bf 00  	and	t5, t5, a1
   1ce04: 33 6f df 00  	or	t5, t5, a3
   1ce08: 87 b7 01 1b  	fld	fa5, 0x1b0(gp)
   1ce0c: 53 87 0e f2  	fmv.d.x	fa4, t4
   1ce10: d3 77 f7 0a  	fsub.d	fa5, fa4, fa5
   1ce14: 53 07 0f f2  	fmv.d.x	fa4, t5
   1ce18: d3 16 f7 a2  	flt.d	a3, fa4, fa5
   1ce1c: 63 98 06 30  	bnez	a3, 0x1d12c <__gdtoa+0xe74>
   1ce20: 53 17 e7 22  	fneg.d	fa4, fa4
   1ce24: d3 96 e7 a2  	flt.d	a3, fa5, fa4
   1ce28: 63 8a 06 2e  	beqz	a3, 0x1d11c <__gdtoa+0xe64>
   1ce2c: 81 45        	li	a1, 0x0
   1ce2e: 81 4a        	li	s5, 0x0
   1ce30: 3b 09 70 41  	negw	s2, s7
   1ce34: c2 8c        	mv	s9, a6
   1ce36: c1 49        	li	s3, 0x10
   1ce38: c5 b5        	j	0x1cd18 <__gdtoa+0xa60>
   1ce3a: d6 85        	mv	a1, s5
   1ce3c: 6a 86        	mv	a2, s10
   1ce3e: 22 85        	mv	a0, s0
   1ce40: c2 f0        	sd	a6, 0x60(sp)
   1ce42: be ec        	sd	a5, 0x58(sp)
   1ce44: f2 e8        	sd	t3, 0x50(sp)
   1ce46: 9a e4        	sd	t1, 0x48(sp)
   1ce48: ef b0 2f cf  	jal	0x1833a <__pow5mult>
   1ce4c: aa 8a        	mv	s5, a0
   1ce4e: e3 0d 05 9e  	beqz	a0, 0x1c848 <__gdtoa+0x590>
   1ce52: aa 85        	mv	a1, a0
   1ce54: 62 86        	mv	a2, s8
   1ce56: 22 85        	mv	a0, s0
   1ce58: ef b0 6f b3  	jal	0x1818e <__multiply>
   1ce5c: aa f4        	sd	a0, 0x68(sp)
   1ce5e: e3 05 05 9e  	beqz	a0, 0x1c848 <__gdtoa+0x590>
   1ce62: e2 85        	mv	a1, s8
   1ce64: 22 85        	mv	a0, s0
   1ce66: ef a0 1f fe  	jal	0x17e46 <_Bfree>
   1ce6a: c2 77        	ld	a5, 0x30(sp)
   1ce6c: a6 76        	ld	a3, 0x68(sp)
   1ce6e: 26 63        	ld	t1, 0x48(sp)
   1ce70: 3b 87 a7 41  	subw	a4, a5, s10
   1ce74: 3a f8        	sd	a4, 0x30(sp)
   1ce76: 46 6e        	ld	t3, 0x50(sp)
   1ce78: e6 67        	ld	a5, 0x58(sp)
   1ce7a: 06 78        	ld	a6, 0x60(sp)
   1ce7c: 36 8c        	mv	s8, a3
   1ce7e: 63 03 07 f6  	beqz	a4, 0x1c5e4 <__gdtoa+0x32c>
   1ce82: 6f f0 2f f4  	j	0x1c5c4 <__gdtoa+0x30c>
   1ce86: 56 8b        	mv	s6, s5
   1ce88: e2 6a        	ld	s5, 0x18(sp)
   1ce8a: de 86        	mv	a3, s7
   1ce8c: 93 8c 1b 00  	addi	s9, s7, 0x1
   1ce90: 13 06 90 03  	li	a2, 0x39
   1ce94: e6 8b        	mv	s7, s9
   1ce96: 23 80 c6 00  	sb	a2, 0x0(a3)
   1ce9a: 13 06 90 03  	li	a2, 0x39
   1ce9e: 19 a0        	j	0x1cea4 <__gdtoa+0xbec>
   1cea0: 63 02 78 0f  	beq	a6, s7, 0x1cf84 <__gdtoa+0xccc>
   1cea4: 83 c6 fb ff  	lbu	a3, -0x1(s7)
   1cea8: de 8c        	mv	s9, s7
   1ceaa: fd 1b        	addi	s7, s7, -0x1
   1ceac: e3 8a c6 fe  	beq	a3, a2, 0x1cea0 <__gdtoa+0xbe8>
   1ceb0: 85 26        	addiw	a3, a3, 0x1
   1ceb2: 23 80 db 00  	sb	a3, 0x0(s7)
   1ceb6: 93 09 00 02  	li	s3, 0x20
   1ceba: fd b1        	j	0x1cba8 <__gdtoa+0x8f0>
   1cebc: d6 85        	mv	a1, s5
   1cebe: 22 85        	mv	a0, s0
   1cec0: 42 ec        	sd	a6, 0x18(sp)
   1cec2: 1a e8        	sd	t1, 0x10(sp)
   1cec4: ef b0 0f d5  	jal	0x18414 <__lshift>
   1cec8: 42 63        	ld	t1, 0x10(sp)
   1ceca: 62 68        	ld	a6, 0x18(sp)
   1cecc: aa 8a        	mv	s5, a0
   1cece: 63 1d 05 f6  	bnez	a0, 0x1c648 <__gdtoa+0x390>
   1ced2: 9d ba        	j	0x1c848 <__gdtoa+0x590>
   1ced4: 05 47        	li	a4, 0x1
   1ced6: 81 4a        	li	s5, 0x0
   1ced8: ba e0        	sd	a4, 0x40(sp)
   1ceda: 6f f0 0f df  	j	0x1c4ca <__gdtoa+0x212>
   1cede: 05 47        	li	a4, 0x1
   1cee0: ba e0        	sd	a4, 0x40(sp)
   1cee2: 6f f0 8f de  	j	0x1c4ca <__gdtoa+0x212>
   1cee6: 05 47        	li	a4, 0x1
   1cee8: ba e0        	sd	a4, 0x40(sp)
   1ceea: bd b1        	j	0x1cb58 <__gdtoa+0x8a0>
   1ceec: 82 e0        	sd	zero, 0x40(sp)
   1ceee: ad b1        	j	0x1cb58 <__gdtoa+0x8a0>
   1cef0: c6 67        	ld	a5, 0x50(sp)
   1cef2: e3 9e d7 e4  	bne	a5, a3, 0x1cd4e <__gdtoa+0xa96>
   1cef6: 83 27 4b 00  	lw	a5, 0x4(s6)
   1cefa: 42 67        	ld	a4, 0x10(sp)
   1cefc: 85 27        	addiw	a5, a5, 0x1
   1cefe: e3 d8 e7 e4  	bge	a5, a4, 0x1cd4e <__gdtoa+0xa96>
   1cf02: e2 67        	ld	a5, 0x18(sp)
   1cf04: 05 2e        	addiw	t3, t3, 0x1
   1cf06: 85 49        	li	s3, 0x1
   1cf08: 85 27        	addiw	a5, a5, 0x1
   1cf0a: 3e ec        	sd	a5, 0x18(sp)
   1cf0c: 89 b5        	j	0x1cd4e <__gdtoa+0xa96>
   1cf0e: 83 a5 8a 00  	lw	a1, 0x8(s5)
   1cf12: 22 85        	mv	a0, s0
   1cf14: 42 e8        	sd	a6, 0x10(sp)
   1cf16: ef a0 df ec  	jal	0x17de2 <_Balloc>
   1cf1a: aa 89        	mv	s3, a0
   1cf1c: e3 06 05 92  	beqz	a0, 0x1c848 <__gdtoa+0x590>
   1cf20: 03 a6 4a 01  	lw	a2, 0x14(s5)
   1cf24: 93 85 0a 01  	addi	a1, s5, 0x10
   1cf28: 41 05        	addi	a0, a0, 0x10
   1cf2a: 09 06        	addi	a2, a2, 0x2
   1cf2c: 0a 06        	slli	a2, a2, 0x2
   1cf2e: ef 90 ff ec  	jal	0x16dfc <memcpy>
   1cf32: 05 46        	li	a2, 0x1
   1cf34: ce 85        	mv	a1, s3
   1cf36: 22 85        	mv	a0, s0
   1cf38: ef b0 cf cd  	jal	0x18414 <__lshift>
   1cf3c: 2a ec        	sd	a0, 0x18(sp)
   1cf3e: 42 68        	ld	a6, 0x10(sp)
   1cf40: 63 17 05 f0  	bnez	a0, 0x1c64e <__gdtoa+0x396>
   1cf44: 11 b2        	j	0x1c848 <__gdtoa+0x590>
   1cf46: e2 85        	mv	a1, s8
   1cf48: 05 46        	li	a2, 0x1
   1cf4a: 22 85        	mv	a0, s0
   1cf4c: 42 e8        	sd	a6, 0x10(sp)
   1cf4e: 1a ec        	sd	t1, 0x18(sp)
   1cf50: ef b0 4f cc  	jal	0x18414 <__lshift>
   1cf54: 2a 8c        	mv	s8, a0
   1cf56: e3 09 05 8e  	beqz	a0, 0x1c848 <__gdtoa+0x590>
   1cf5a: ea 85        	mv	a1, s10
   1cf5c: ef b0 0f de  	jal	0x1853c <__mcmp>
   1cf60: 42 68        	ld	a6, 0x10(sp)
   1cf62: e3 4c a0 f2  	bgtz	a0, 0x1ce9a <__gdtoa+0xbe2>
   1cf66: 11 e5        	bnez	a0, 0x1cf72 <__gdtoa+0xcba>
   1cf68: 62 63        	ld	t1, 0x18(sp)
   1cf6a: 13 73 13 00  	andi	t1, t1, 0x1
   1cf6e: e3 16 03 f2  	bnez	t1, 0x1ce9a <__gdtoa+0xbe2>
   1cf72: 03 26 4c 01  	lw	a2, 0x14(s8)
   1cf76: 85 46        	li	a3, 0x1
   1cf78: c1 49        	li	s3, 0x10
   1cf7a: e3 c1 c6 d2  	blt	a3, a2, 0x1cc9c <__gdtoa+0x9e4>
   1cf7e: 83 26 8c 01  	lw	a3, 0x18(s8)
   1cf82: 09 bb        	j	0x1cc94 <__gdtoa+0x9dc>
   1cf84: e2 77        	ld	a5, 0x38(sp)
   1cf86: 93 09 00 02  	li	s3, 0x20
   1cf8a: 85 27        	addiw	a5, a5, 0x1
   1cf8c: 3e fc        	sd	a5, 0x38(sp)
   1cf8e: 93 07 10 03  	li	a5, 0x31
   1cf92: 23 00 f8 00  	sb	a5, 0x0(a6)
   1cf96: 09 b9        	j	0x1cba8 <__gdtoa+0x8f0>
   1cf98: 82 77        	ld	a5, 0x20(sp)
   1cf9a: 26 ec        	sd	s1, 0x18(sp)
   1cf9c: 52 83        	mv	t1, s4
   1cf9e: 42 78        	ld	a6, 0x30(sp)
   1cfa0: 22 7a        	ld	s4, 0x28(sp)
   1cfa2: 86 64        	ld	s1, 0x40(sp)
   1cfa4: 91 cb        	beqz	a5, 0x1cfb8 <__gdtoa+0xd00>
   1cfa6: 03 26 4c 01  	lw	a2, 0x14(s8)
   1cfaa: 85 46        	li	a3, 0x1
   1cfac: 63 cf c6 f8  	blt	a3, a2, 0x1c74a <__gdtoa+0x492>
   1cfb0: 83 26 8c 01  	lw	a3, 0x18(s8)
   1cfb4: 63 9b 06 f8  	bnez	a3, 0x1c74a <__gdtoa+0x492>
   1cfb8: e2 85        	mv	a1, s8
   1cfba: 05 46        	li	a2, 0x1
   1cfbc: 22 85        	mv	a0, s0
   1cfbe: 42 f0        	sd	a6, 0x20(sp)
   1cfc0: 1a e8        	sd	t1, 0x10(sp)
   1cfc2: ef b0 2f c5  	jal	0x18414 <__lshift>
   1cfc6: 2a 8c        	mv	s8, a0
   1cfc8: e3 00 05 88  	beqz	a0, 0x1c848 <__gdtoa+0x590>
   1cfcc: ea 85        	mv	a1, s10
   1cfce: ef b0 ef d6  	jal	0x1853c <__mcmp>
   1cfd2: 42 63        	ld	t1, 0x10(sp)
   1cfd4: 02 78        	ld	a6, 0x20(sp)
   1cfd6: 63 57 a0 26  	blez	a0, 0x1d244 <__gdtoa+0xf8c>
   1cfda: 93 06 90 03  	li	a3, 0x39
   1cfde: e3 04 d3 ea  	beq	t1, a3, 0x1ce86 <__gdtoa+0xbce>
   1cfe2: 93 07 00 02  	li	a5, 0x20
   1cfe6: 1b 83 1c 03  	addiw	t1, s9, 0x31
   1cfea: 3e f0        	sd	a5, 0x20(sp)
   1cfec: 55 b6        	j	0x1cb90 <__gdtoa+0x8d8>
   1cfee: d3 f7 f7 02  	fadd.d	fa5, fa5, fa5
   1cff2: 83 c6 fc ff  	lbu	a3, -0x1(s9)
   1cff6: 53 16 f7 a2  	flt.d	a2, fa4, fa5
   1cffa: e3 12 06 9e  	bnez	a2, 0x1c9de <__gdtoa+0x726>
   1cffe: 53 a6 e7 a2  	feq.d	a2, fa5, fa4
   1d002: 01 c6        	beqz	a2, 0x1d00a <__gdtoa+0xd52>
   1d004: 85 8b        	andi	a5, a5, 0x1
   1d006: e3 9c 07 9c  	bnez	a5, 0x1c9de <__gdtoa+0x726>
   1d00a: e6 87        	mv	a5, s9
   1d00c: c1 49        	li	s3, 0x10
   1d00e: 13 06 00 03  	li	a2, 0x30
   1d012: 03 c7 f7 ff  	lbu	a4, -0x1(a5)
   1d016: be 8c        	mv	s9, a5
   1d018: fd 17        	addi	a5, a5, -0x1
   1d01a: e3 0c c7 fe  	beq	a4, a2, 0x1d012 <__gdtoa+0xd5a>
   1d01e: 1b 89 05 00  	sext.w	s2, a1
   1d022: e1 b4        	j	0x1caea <__gdtoa+0x832>
   1d024: 93 06 10 03  	li	a3, 0x31
   1d028: 85 25        	addiw	a1, a1, 0x1
   1d02a: c9 ba        	j	0x1c9fc <__gdtoa+0x744>
   1d02c: 53 07 0f f2  	fmv.d.x	fa4, t5
   1d030: d3 85 06 f2  	fmv.d.x	fa1, a3
   1d034: c2 8c        	mv	s9, a6
   1d036: 53 f6 e7 12  	fmul.d	fa2, fa5, fa4
   1d03a: d3 87 06 f2  	fmv.d.x	fa5, a3
   1d03e: 07 b7 81 16  	fld	fa4, 0x168(gp)
   1d042: 85 46        	li	a3, 0x1
   1d044: 36 c7        	sw	a3, 0x8c(sp)
   1d046: 01 4f        	li	t5, 0x0
   1d048: 29 a0        	j	0x1d052 <__gdtoa+0xd9a>
   1d04a: d3 f7 e7 12  	fmul.d	fa5, fa5, fa4
   1d04e: 2a c7        	sw	a0, 0x8c(sp)
   1d050: 05 4f        	li	t5, 0x1
   1d052: 53 97 07 c2  	fcvt.w.d	a4, fa5, rtz
   1d056: 85 0c        	addi	s9, s9, 0x1
   1d058: 9b 06 07 03  	addiw	a3, a4, 0x30
   1d05c: 1b 05 07 00  	sext.w	a0, a4
   1d060: 93 f6 f6 0f  	andi	a3, a3, 0xff
   1d064: 11 c5        	beqz	a0, 0x1d070 <__gdtoa+0xdb8>
   1d066: d3 06 07 d2  	fcvt.d.w	fa3, a4
   1d06a: 05 4f        	li	t5, 0x1
   1d06c: d3 f7 d7 0a  	fsub.d	fa5, fa5, fa3
   1d070: a3 8f dc fe  	sb	a3, -0x1(s9)
   1d074: 3a 47        	lw	a4, 0x8c(sp)
   1d076: 1b 05 17 00  	addiw	a0, a4, 0x1
   1d07a: e3 18 f7 fd  	bne	a4, t6, 0x1d04a <__gdtoa+0xd92>
   1d07e: 63 04 0f 00  	beqz	t5, 0x1d086 <__gdtoa+0xdce>
   1d082: d3 85 f7 22  	fmv.d	fa1, fa5
   1d086: 87 b7 81 12  	fld	fa5, 0x128(gp)
   1d08a: 53 77 f6 02  	fadd.d	fa4, fa2, fa5
   1d08e: 53 15 b7 a2  	flt.d	a0, fa4, fa1
   1d092: 63 16 05 10  	bnez	a0, 0x1d19e <__gdtoa+0xee6>
   1d096: d3 f7 c7 0a  	fsub.d	fa5, fa5, fa2
   1d09a: d3 96 f5 a2  	flt.d	a3, fa1, fa5
   1d09e: 63 9f 06 16  	bnez	a3, 0x1d21c <__gdtoa+0xf64>
   1d0a2: f6 86        	mv	a3, t4
   1d0a4: 63 49 06 1a  	bltz	a2, 0x1d256 <__gdtoa+0xf9e>
   1d0a8: 02 f0        	sd	zero, 0x20(sp)
   1d0aa: 98 21        	fld	fa4, 0x0(a1)
   1d0ac: e3 db 0b 9a  	bgez	s7, 0x1ca62 <__gdtoa+0x7aa>
   1d0b0: a2 77        	ld	a5, 0x28(sp)
   1d0b2: e3 98 07 9a  	bnez	a5, 0x1ca62 <__gdtoa+0x7aa>
   1d0b6: d5 b1        	j	0x1cd9a <__gdtoa+0xae2>
   1d0b8: a6 87        	mv	a5, s1
   1d0ba: 52 83        	mv	t1, s4
   1d0bc: 56 8b        	mv	s6, s5
   1d0be: 42 78        	ld	a6, 0x30(sp)
   1d0c0: 22 7a        	ld	s4, 0x28(sp)
   1d0c2: 86 64        	ld	s1, 0x40(sp)
   1d0c4: be 8a        	mv	s5, a5
   1d0c6: 45 be        	j	0x1cc76 <__gdtoa+0x9be>
   1d0c8: e3 09 07 d0  	beqz	a4, 0x1cdda <__gdtoa+0xb22>
   1d0cc: e6 7f        	ld	t6, 0x78(sp)
   1d0ce: 63 57 f0 05  	blez	t6, 0x1d11c <__gdtoa+0xe64>
   1d0d2: 87 b7 81 16  	fld	fa5, 0x168(gp)
   1d0d6: b7 05 c0 fc  	lui	a1, 0xfcc00
   1d0da: d3 77 f7 12  	fmul.d	fa5, fa4, fa5
   1d0de: 07 b7 01 1a  	fld	fa4, 0x1a0(gp)
   1d0e2: fd 53        	li	t2, -0x1
   1d0e4: 53 85 07 e2  	fmv.x.d	a0, fa5
   1d0e8: 87 b7 81 1a  	fld	fa5, 0x1a8(gp)
   1d0ec: d3 06 05 f2  	fmv.d.x	fa3, a0
   1d0f0: aa 86        	mv	a3, a0
   1d0f2: c3 f7 e6 7a  	fmadd.d	fa5, fa3, fa4, fa5
   1d0f6: d3 8a 07 e2  	fmv.x.d	s5, fa5
   1d0fa: 13 df 0a 02  	srli	t5, s5, 0x20
   1d0fe: bb 85 e5 01  	addw	a1, a1, t5
   1d102: 7d 5f        	li	t5, -0x1
   1d104: 13 5f 0f 02  	srli	t5, t5, 0x20
   1d108: 82 15        	slli	a1, a1, 0x20
   1d10a: 33 7f 5f 01  	and	t5, t5, s5
   1d10e: 33 6f bf 00  	or	t5, t5, a1
   1d112: 6f f0 ff 82  	j	0x1c940 <__gdtoa+0x688>
   1d116: 83 c6 fc ff  	lbu	a3, -0x1(s9)
   1d11a: d1 b0        	j	0x1c9de <__gdtoa+0x726>
   1d11c: f6 86        	mv	a3, t4
   1d11e: 63 4e 06 08  	bltz	a2, 0x1d1ba <__gdtoa+0xf02>
   1d122: b7 05 02 00  	lui	a1, 0x20
   1d126: 93 85 05 f8  	addi	a1, a1, -0x80
   1d12a: bd bf        	j	0x1d0a8 <__gdtoa+0xdf0>
   1d12c: 09 49        	li	s2, 0x2
   1d12e: 81 45        	li	a1, 0x0
   1d130: 81 4a        	li	s5, 0x0
   1d132: d9 be        	j	0x1cd08 <__gdtoa+0xa50>
   1d134: e2 66        	ld	a3, 0x18(sp)
   1d136: 3a c7        	sw	a4, 0x8c(sp)
   1d138: 3b 0e c7 01  	addw	t3, a4, t3
   1d13c: 35 9f        	addw	a4, a4, a3
   1d13e: b6 8c        	mv	s9, a3
   1d140: 3a ec        	sd	a4, 0x18(sp)
   1d142: 6f f0 8f c3  	j	0x1c57a <__gdtoa+0x2c2>
   1d146: 52 83        	mv	t1, s4
   1d148: 26 ec        	sd	s1, 0x18(sp)
   1d14a: 93 06 90 03  	li	a3, 0x39
   1d14e: 42 78        	ld	a6, 0x30(sp)
   1d150: 22 7a        	ld	s4, 0x28(sp)
   1d152: 86 64        	ld	s1, 0x40(sp)
   1d154: e3 09 d3 d2  	beq	t1, a3, 0x1ce86 <__gdtoa+0xbce>
   1d158: 9b 87 19 00  	addiw	a5, s3, 0x1
   1d15c: 56 8b        	mv	s6, s5
   1d15e: 93 8c 1b 00  	addi	s9, s7, 0x1
   1d162: e2 6a        	ld	s5, 0x18(sp)
   1d164: 23 80 fb 00  	sb	a5, 0x0(s7)
   1d168: 93 09 00 02  	li	s3, 0x20
   1d16c: 35 bc        	j	0x1cba8 <__gdtoa+0x8f0>
   1d16e: d6 85        	mv	a1, s5
   1d170: 81 46        	li	a3, 0x0
   1d172: 29 46        	li	a2, 0xa
   1d174: 22 85        	mv	a0, s0
   1d176: ef a0 3f ce  	jal	0x17e58 <__multadd>
   1d17a: aa 8a        	mv	s5, a0
   1d17c: 63 06 05 ec  	beqz	a0, 0x1c848 <__gdtoa+0x590>
   1d180: e6 77        	ld	a5, 0x78(sp)
   1d182: 42 63        	ld	t1, 0x10(sp)
   1d184: 62 68        	ld	a6, 0x18(sp)
   1d186: 63 55 f0 00  	blez	a5, 0x1d190 <__gdtoa+0xed8>
   1d18a: 3e f4        	sd	a5, 0x28(sp)
   1d18c: 6f f0 4f cb  	j	0x1c640 <__gdtoa+0x388>
   1d190: 89 47        	li	a5, 0x2
   1d192: 63 c6 27 0b  	blt	a5, s2, 0x1d23e <__gdtoa+0xf86>
   1d196: e6 77        	ld	a5, 0x78(sp)
   1d198: 3e f4        	sd	a5, 0x28(sp)
   1d19a: 6f f0 6f ca  	j	0x1c640 <__gdtoa+0x388>
   1d19e: 9b 85 13 00  	addiw	a1, t2, 0x1
   1d1a2: 6f f0 df 83  	j	0x1c9de <__gdtoa+0x726>
   1d1a6: 53 07 00 f2  	fmv.d.x	fa4, zero
   1d1aa: 13 89 13 00  	addi	s2, t2, 0x1
   1d1ae: d3 a9 e7 a2  	feq.d	s3, fa5, fa4
   1d1b2: 93 b9 19 00  	seqz	s3, s3
   1d1b6: 92 09        	slli	s3, s3, 0x4
   1d1b8: 0d ba        	j	0x1caea <__gdtoa+0x832>
   1d1ba: 02 f0        	sd	zero, 0x20(sp)
   1d1bc: 6f f0 af b6  	j	0x1c526 <__gdtoa+0x26e>
   1d1c0: f6 86        	mv	a3, t4
   1d1c2: e3 53 06 ee  	bgez	a2, 0x1d0a8 <__gdtoa+0xdf0>
   1d1c6: 02 f0        	sd	zero, 0x20(sp)
   1d1c8: 6f f0 4f b6  	j	0x1c52c <__gdtoa+0x274>
   1d1cc: 22 77        	ld	a4, 0x28(sp)
   1d1ce: 42 76        	ld	a2, 0x30(sp)
   1d1d0: 9b 06 f7 ff  	addiw	a3, a4, -0x1
   1d1d4: 36 8d        	mv	s10, a3
   1d1d6: e3 41 d6 be  	blt	a2, a3, 0x1cdb8 <__gdtoa+0xb00>
   1d1da: e2 66        	ld	a3, 0x18(sp)
   1d1dc: 3b 0e c7 01  	addw	t3, a4, t3
   1d1e0: 3a c7        	sw	a4, 0x8c(sp)
   1d1e2: 35 9f        	addw	a4, a4, a3
   1d1e4: b6 8c        	mv	s9, a3
   1d1e6: 3b 0d a6 41  	subw	s10, a2, s10
   1d1ea: 3a ec        	sd	a4, 0x18(sp)
   1d1ec: 6f f0 ef b8  	j	0x1c57a <__gdtoa+0x2c2>
   1d1f0: 26 ec        	sd	s1, 0x18(sp)
   1d1f2: 93 06 90 03  	li	a3, 0x39
   1d1f6: 52 83        	mv	t1, s4
   1d1f8: 42 78        	ld	a6, 0x30(sp)
   1d1fa: 22 7a        	ld	s4, 0x28(sp)
   1d1fc: 86 64        	ld	s1, 0x40(sp)
   1d1fe: e3 84 d9 c8  	beq	s3, a3, 0x1ce86 <__gdtoa+0xbce>
   1d202: 63 5f 60 09  	blez	s6, 0x1d2a0 <__gdtoa+0xfe8>
   1d206: 1b 83 1c 03  	addiw	t1, s9, 0x31
   1d20a: 93 09 00 02  	li	s3, 0x20
   1d20e: 23 80 6b 00  	sb	t1, 0x0(s7)
   1d212: 56 8b        	mv	s6, s5
   1d214: 93 8c 1b 00  	addi	s9, s7, 0x1
   1d218: e2 6a        	ld	s5, 0x18(sp)
   1d21a: 79 b2        	j	0x1cba8 <__gdtoa+0x8f0>
   1d21c: d3 07 00 f2  	fmv.d.x	fa5, zero
   1d220: e6 87        	mv	a5, s9
   1d222: 9b 85 13 00  	addiw	a1, t2, 0x1
   1d226: d3 a9 f5 a2  	feq.d	s3, fa1, fa5
   1d22a: 93 b9 19 00  	seqz	s3, s3
   1d22e: 92 09        	slli	s3, s3, 0x4
   1d230: f9 bb        	j	0x1d00e <__gdtoa+0xd56>
   1d232: 83 26 8c 01  	lw	a3, 0x18(s8)
   1d236: e3 95 06 96  	bnez	a3, 0x1cba0 <__gdtoa+0x8e8>
   1d23a: 82 79        	ld	s3, 0x20(sp)
   1d23c: 95 b2        	j	0x1cba0 <__gdtoa+0x8e8>
   1d23e: e6 77        	ld	a5, 0x78(sp)
   1d240: 3e f4        	sd	a5, 0x28(sp)
   1d242: 49 bc        	j	0x1ccd4 <__gdtoa+0xa1c>
   1d244: 09 e5        	bnez	a0, 0x1d24e <__gdtoa+0xf96>
   1d246: 93 76 13 00  	andi	a3, t1, 0x1
   1d24a: e3 98 06 d8  	bnez	a3, 0x1cfda <__gdtoa+0xd22>
   1d24e: 93 07 00 02  	li	a5, 0x20
   1d252: 3e f0        	sd	a5, 0x20(sp)
   1d254: 35 ba        	j	0x1cb90 <__gdtoa+0x8d8>
   1d256: 42 7d        	ld	s10, 0x30(sp)
   1d258: e2 6c        	ld	s9, 0x18(sp)
   1d25a: 02 f0        	sd	zero, 0x20(sp)
   1d25c: 81 4a        	li	s5, 0x0
   1d25e: 6f f0 af b3  	j	0x1c598 <__gdtoa+0x2e0>
   1d262: 5a ec        	sd	s6, 0x18(sp)
   1d264: 93 06 90 03  	li	a3, 0x39
   1d268: 6e 88        	mv	a6, s11
   1d26a: 63 8b d9 00  	beq	s3, a3, 0x1d280 <__gdtoa+0xfc8>
   1d26e: 1b 83 19 00  	addiw	t1, s3, 0x1
   1d272: 93 09 00 02  	li	s3, 0x20
   1d276: 2d b2        	j	0x1cba0 <__gdtoa+0x8e8>
   1d278: c1 49        	li	s3, 0x10
   1d27a: 93 8c 1b 00  	addi	s9, s7, 0x1
   1d27e: 0d b2        	j	0x1cba0 <__gdtoa+0x8e8>
   1d280: 56 8b        	mv	s6, s5
   1d282: de 86        	mv	a3, s7
   1d284: e2 6a        	ld	s5, 0x18(sp)
   1d286: 29 b1        	j	0x1ce90 <__gdtoa+0xbd8>
   1d288: 03 26 4c 01  	lw	a2, 0x14(s8)
   1d28c: 85 46        	li	a3, 0x1
   1d28e: 63 ce c6 ca  	blt	a3, a2, 0x1c74a <__gdtoa+0x492>
   1d292: 83 26 8c 01  	lw	a3, 0x18(s8)
   1d296: 63 9a 06 ca  	bnez	a3, 0x1c74a <__gdtoa+0x492>
   1d29a: 93 8c 1b 00  	addi	s9, s7, 0x1
   1d29e: 09 b2        	j	0x1cba0 <__gdtoa+0x8e8>
   1d2a0: 03 26 4c 01  	lw	a2, 0x14(s8)
   1d2a4: 85 46        	li	a3, 0x1
   1d2a6: c1 49        	li	s3, 0x10
   1d2a8: e3 c3 c6 f6  	blt	a3, a2, 0x1d20e <__gdtoa+0xf56>
   1d2ac: 83 29 8c 01  	lw	s3, 0x18(s8)
   1d2b0: b3 39 30 01  	snez	s3, s3
   1d2b4: 92 09        	slli	s3, s3, 0x4
   1d2b6: a1 bf        	j	0x1d20e <__gdtoa+0xf56>
   1d2b8: 63 4e 0b 00  	bltz	s6, 0x1d2d4 <__gdtoa+0x101c>
   1d2bc: b3 67 69 01  	or	a5, s2, s6
   1d2c0: 81 27        	sext.w	a5, a5
   1d2c2: 89 e7        	bnez	a5, 0x1d2cc <__gdtoa+0x1014>
   1d2c4: c2 67        	ld	a5, 0x10(sp)
   1d2c6: 9c 43        	lw	a5, 0x0(a5)
   1d2c8: 85 8b        	andi	a5, a5, 0x1
   1d2ca: 89 c7        	beqz	a5, 0x1d2d4 <__gdtoa+0x101c>
   1d2cc: 63 5d d0 ba  	blez	a3, 0x1c686 <__gdtoa+0x3ce>
   1d2d0: 6f f0 ef ba  	j	0x1c67e <__gdtoa+0x3c6>
   1d2d4: 82 77        	ld	a5, 0x20(sp)
   1d2d6: 26 ec        	sd	s1, 0x18(sp)
   1d2d8: 52 83        	mv	t1, s4
   1d2da: 42 78        	ld	a6, 0x30(sp)
   1d2dc: 22 7a        	ld	s4, 0x28(sp)
   1d2de: 86 64        	ld	s1, 0x40(sp)
   1d2e0: 85 c3        	beqz	a5, 0x1d300 <__gdtoa+0x1048>
   1d2e2: 83 25 4c 01  	lw	a1, 0x14(s8)
   1d2e6: 05 46        	li	a2, 0x1
   1d2e8: 63 41 b6 c6  	blt	a2, a1, 0x1c74a <__gdtoa+0x492>
   1d2ec: 03 26 8c 01  	lw	a2, 0x18(s8)
   1d2f0: 63 1d 06 c4  	bnez	a2, 0x1c74a <__gdtoa+0x492>
   1d2f4: e3 42 d0 cc  	bgtz	a3, 0x1cfb8 <__gdtoa+0xd00>
   1d2f8: 81 49        	li	s3, 0x0
   1d2fa: 93 8c 1b 00  	addi	s9, s7, 0x1
   1d2fe: 4d b0        	j	0x1cba0 <__gdtoa+0x8e8>
   1d300: e3 58 d0 88  	blez	a3, 0x1cb90 <__gdtoa+0x8d8>
   1d304: 55 b9        	j	0x1cfb8 <__gdtoa+0xd00>

000000000001d306 <__rv_alloc_D2A>:
   1d306: 41 11        	addi	sp, sp, -0x10
   1d308: 22 e0        	sd	s0, 0x0(sp)
   1d30a: 06 e4        	sd	ra, 0x8(sp)
   1d30c: ed 47        	li	a5, 0x1b
   1d30e: 01 44        	li	s0, 0x0
   1d310: 63 fa b7 00  	bgeu	a5, a1, 0x1d324 <__rv_alloc_D2A+0x1e>
   1d314: 91 47        	li	a5, 0x4
   1d316: 9b 97 17 00  	slliw	a5, a5, 0x1
   1d31a: 13 87 87 01  	addi	a4, a5, 0x18
   1d31e: 05 24        	addiw	s0, s0, 0x1
   1d320: e3 fb e5 fe  	bgeu	a1, a4, 0x1d316 <__rv_alloc_D2A+0x10>
   1d324: a2 85        	mv	a1, s0
   1d326: ef a0 df ab  	jal	0x17de2 <_Balloc>
   1d32a: 19 c1        	beqz	a0, 0x1d330 <__rv_alloc_D2A+0x2a>
   1d32c: 00 c1        	sw	s0, 0x0(a0)
   1d32e: 11 05        	addi	a0, a0, 0x4
   1d330: a2 60        	ld	ra, 0x8(sp)
   1d332: 02 64        	ld	s0, 0x0(sp)
   1d334: 41 01        	addi	sp, sp, 0x10
   1d336: 82 80        	ret

000000000001d338 <__nrv_alloc_D2A>:
   1d338: 01 11        	addi	sp, sp, -0x20
   1d33a: 22 e8        	sd	s0, 0x10(sp)
   1d33c: 4a e0        	sd	s2, 0x0(sp)
   1d33e: 06 ec        	sd	ra, 0x18(sp)
   1d340: 26 e4        	sd	s1, 0x8(sp)
   1d342: ed 47        	li	a5, 0x1b
   1d344: 2e 84        	mv	s0, a1
   1d346: 32 89        	mv	s2, a2
   1d348: 63 fb d7 04  	bgeu	a5, a3, 0x1d39e <__nrv_alloc_D2A+0x66>
   1d34c: 91 47        	li	a5, 0x4
   1d34e: 81 44        	li	s1, 0x0
   1d350: 9b 97 17 00  	slliw	a5, a5, 0x1
   1d354: 13 87 87 01  	addi	a4, a5, 0x18
   1d358: 85 24        	addiw	s1, s1, 0x1
   1d35a: e3 fb e6 fe  	bgeu	a3, a4, 0x1d350 <__nrv_alloc_D2A+0x18>
   1d35e: a6 85        	mv	a1, s1
   1d360: ef a0 3f a8  	jal	0x17de2 <_Balloc>
   1d364: aa 87        	mv	a5, a0
   1d366: 15 cd        	beqz	a0, 0x1d3a2 <__nrv_alloc_D2A+0x6a>
   1d368: 04 c1        	sw	s1, 0x0(a0)
   1d36a: 03 47 04 00  	lbu	a4, 0x0(s0)
   1d36e: 11 05        	addi	a0, a0, 0x4
   1d370: 93 05 14 00  	addi	a1, s0, 0x1
   1d374: 23 82 e7 00  	sb	a4, 0x4(a5)
   1d378: aa 87        	mv	a5, a0
   1d37a: 01 cb        	beqz	a4, 0x1d38a <__nrv_alloc_D2A+0x52>
   1d37c: 03 c7 05 00  	lbu	a4, 0x0(a1)
   1d380: 85 07        	addi	a5, a5, 0x1
   1d382: 85 05        	addi	a1, a1, 0x1
   1d384: 23 80 e7 00  	sb	a4, 0x0(a5)
   1d388: 75 fb        	bnez	a4, 0x1d37c <__nrv_alloc_D2A+0x44>
   1d38a: 63 04 09 00  	beqz	s2, 0x1d392 <__nrv_alloc_D2A+0x5a>
   1d38e: 23 30 f9 00  	sd	a5, 0x0(s2)
   1d392: e2 60        	ld	ra, 0x18(sp)
   1d394: 42 64        	ld	s0, 0x10(sp)
   1d396: a2 64        	ld	s1, 0x8(sp)
   1d398: 02 69        	ld	s2, 0x0(sp)
   1d39a: 05 61        	addi	sp, sp, 0x20
   1d39c: 82 80        	ret
   1d39e: 81 44        	li	s1, 0x0
   1d3a0: 7d bf        	j	0x1d35e <__nrv_alloc_D2A+0x26>
   1d3a2: 01 45        	li	a0, 0x0
   1d3a4: fd b7        	j	0x1d392 <__nrv_alloc_D2A+0x5a>

000000000001d3a6 <__freedtoa>:
   1d3a6: 83 a7 c5 ff  	lw	a5, -0x4(a1)
   1d3aa: 85 46        	li	a3, 0x1
   1d3ac: 2e 87        	mv	a4, a1
   1d3ae: bb 96 f6 00  	sllw	a3, a3, a5
   1d3b2: 82 17        	slli	a5, a5, 0x20
   1d3b4: 82 16        	slli	a3, a3, 0x20
   1d3b6: 81 93        	srli	a5, a5, 0x20
   1d3b8: d5 8f        	or	a5, a5, a3
   1d3ba: f1 15        	addi	a1, a1, -0x4
   1d3bc: 23 32 f7 00  	sd	a5, 0x4(a4)
   1d3c0: 6f a0 7f a8  	j	0x17e46 <_Bfree>

000000000001d3c4 <__quorem_D2A>:
   1d3c4: 39 71        	addi	sp, sp, -0x40
   1d3c6: 26 f4        	sd	s1, 0x28(sp)
   1d3c8: 5c 49        	lw	a5, 0x14(a0)
   1d3ca: c4 49        	lw	s1, 0x14(a1)
   1d3cc: 06 fc        	sd	ra, 0x38(sp)
   1d3ce: 63 ce 97 14  	blt	a5, s1, 0x1d52a <__quorem_D2A+0x166>
   1d3d2: fd 34        	addiw	s1, s1, -0x1
   1d3d4: 13 93 24 00  	slli	t1, s1, 0x2
   1d3d8: 22 f8        	sd	s0, 0x30(sp)
   1d3da: 13 84 85 01  	addi	s0, a1, 0x18
   1d3de: 4a f0        	sd	s2, 0x20(sp)
   1d3e0: 4e ec        	sd	s3, 0x18(sp)
   1d3e2: 33 09 64 00  	add	s2, s0, t1
   1d3e6: 93 09 85 01  	addi	s3, a0, 0x18
   1d3ea: 56 e4        	sd	s5, 0x8(sp)
   1d3ec: 4e 93        	add	t1, t1, s3
   1d3ee: 83 2a 09 00  	lw	s5, 0x0(s2)
   1d3f2: 83 27 03 00  	lw	a5, 0x0(t1)
   1d3f6: 5a e0        	sd	s6, 0x0(sp)
   1d3f8: 1b 87 1a 00  	addiw	a4, s5, 0x1
   1d3fc: 3b db e7 02  	divuw	s6, a5, a4
   1d400: 52 e8        	sd	s4, 0x10(sp)
   1d402: 2a 8a        	mv	s4, a0
   1d404: da 8a        	mv	s5, s6
   1d406: 63 ea e7 08  	bltu	a5, a4, 0x1d49a <__quorem_D2A+0xd6>
   1d40a: 41 68        	lui	a6, 0x10
   1d40c: 22 85        	mv	a0, s0
   1d40e: ce 88        	mv	a7, s3
   1d410: 01 4f        	li	t5, 0x0
   1d412: 81 4e        	li	t4, 0x0
   1d414: 7d 18        	addi	a6, a6, -0x1
   1d416: 18 41        	lw	a4, 0x0(a0)
   1d418: 03 a6 08 00  	lw	a2, 0x0(a7)
   1d41c: 91 08        	addi	a7, a7, 0x4
   1d41e: b3 76 07 01  	and	a3, a4, a6
   1d422: bb 86 66 03  	mulw	a3, a3, s6
   1d426: 1b 57 07 01  	srliw	a4, a4, 0x10
   1d42a: b3 77 06 01  	and	a5, a2, a6
   1d42e: 1b 5e 06 01  	srliw	t3, a2, 0x10
   1d432: 11 05        	addi	a0, a0, 0x4
   1d434: 3b 07 67 03  	mulw	a4, a4, s6
   1d438: bb 86 e6 01  	addw	a3, a3, t5
   1d43c: 33 76 d8 00  	and	a2, a6, a3
   1d440: 91 9f        	subw	a5, a5, a2
   1d442: bb 87 d7 41  	subw	a5, a5, t4
   1d446: 9b d6 06 01  	srliw	a3, a3, 0x10
   1d44a: 1b d6 07 01  	srliw	a2, a5, 0x10
   1d44e: 05 8a        	andi	a2, a2, 0x1
   1d450: b3 77 f8 00  	and	a5, a6, a5
   1d454: 35 9f        	addw	a4, a4, a3
   1d456: b3 76 e8 00  	and	a3, a6, a4
   1d45a: 35 9e        	addw	a2, a2, a3
   1d45c: bb 06 ce 40  	subw	a3, t3, a2
   1d460: 1b 96 06 01  	slliw	a2, a3, 0x10
   1d464: d1 8f        	or	a5, a5, a2
   1d466: 9b d6 06 01  	srliw	a3, a3, 0x10
   1d46a: 23 ae f8 fe  	sw	a5, -0x4(a7)
   1d46e: 1b 5f 07 01  	srliw	t5, a4, 0x10
   1d472: 93 fe 16 00  	andi	t4, a3, 0x1
   1d476: e3 70 a9 fa  	bgeu	s2, a0, 0x1d416 <__quorem_D2A+0x52>
   1d47a: 83 27 03 00  	lw	a5, 0x0(t1)
   1d47e: 91 ef        	bnez	a5, 0x1d49a <__quorem_D2A+0xd6>
   1d480: 71 13        	addi	t1, t1, -0x4
   1d482: 63 e6 69 00  	bltu	s3, t1, 0x1d48e <__quorem_D2A+0xca>
   1d486: 01 a8        	j	0x1d496 <__quorem_D2A+0xd2>
   1d488: fd 34        	addiw	s1, s1, -0x1
   1d48a: 63 f6 69 00  	bgeu	s3, t1, 0x1d496 <__quorem_D2A+0xd2>
   1d48e: 83 27 03 00  	lw	a5, 0x0(t1)
   1d492: 71 13        	addi	t1, t1, -0x4
   1d494: f5 db        	beqz	a5, 0x1d488 <__quorem_D2A+0xc4>
   1d496: 23 2a 9a 00  	sw	s1, 0x14(s4)
   1d49a: 52 85        	mv	a0, s4
   1d49c: ef b0 0f 8a  	jal	0x1853c <__mcmp>
   1d4a0: 63 49 05 06  	bltz	a0, 0x1d512 <__quorem_D2A+0x14e>
   1d4a4: 41 65        	lui	a0, 0x10
   1d4a6: 4e 86        	mv	a2, s3
   1d4a8: 81 45        	li	a1, 0x0
   1d4aa: 7d 15        	addi	a0, a0, -0x1
   1d4ac: 18 42        	lw	a4, 0x0(a2)
   1d4ae: 14 40        	lw	a3, 0x0(s0)
   1d4b0: 11 06        	addi	a2, a2, 0x4
   1d4b2: b3 77 a7 00  	and	a5, a4, a0
   1d4b6: 33 f8 a6 00  	and	a6, a3, a0
   1d4ba: bb 87 07 41  	subw	a5, a5, a6
   1d4be: 8d 9f        	subw	a5, a5, a1
   1d4c0: 9b d5 07 01  	srliw	a1, a5, 0x10
   1d4c4: 85 89        	andi	a1, a1, 0x1
   1d4c6: 9b d6 06 01  	srliw	a3, a3, 0x10
   1d4ca: ad 9e        	addw	a3, a3, a1
   1d4cc: 1b 57 07 01  	srliw	a4, a4, 0x10
   1d4d0: 15 9f        	subw	a4, a4, a3
   1d4d2: 9b 16 07 01  	slliw	a3, a4, 0x10
   1d4d6: e9 8f        	and	a5, a5, a0
   1d4d8: d5 8f        	or	a5, a5, a3
   1d4da: 1b 57 07 01  	srliw	a4, a4, 0x10
   1d4de: 11 04        	addi	s0, s0, 0x4
   1d4e0: 23 2e f6 fe  	sw	a5, -0x4(a2)
   1d4e4: 93 75 17 00  	andi	a1, a4, 0x1
   1d4e8: e3 72 89 fc  	bgeu	s2, s0, 0x1d4ac <__quorem_D2A+0xe8>
   1d4ec: 93 97 24 00  	slli	a5, s1, 0x2
   1d4f0: ce 97        	add	a5, a5, s3
   1d4f2: 98 43        	lw	a4, 0x0(a5)
   1d4f4: 09 ef        	bnez	a4, 0x1d50e <__quorem_D2A+0x14a>
   1d4f6: f1 17        	addi	a5, a5, -0x4
   1d4f8: 63 e6 f9 00  	bltu	s3, a5, 0x1d504 <__quorem_D2A+0x140>
   1d4fc: 39 a0        	j	0x1d50a <__quorem_D2A+0x146>
   1d4fe: fd 34        	addiw	s1, s1, -0x1
   1d500: 63 f5 f9 00  	bgeu	s3, a5, 0x1d50a <__quorem_D2A+0x146>
   1d504: 98 43        	lw	a4, 0x0(a5)
   1d506: f1 17        	addi	a5, a5, -0x4
   1d508: 7d db        	beqz	a4, 0x1d4fe <__quorem_D2A+0x13a>
   1d50a: 23 2a 9a 00  	sw	s1, 0x14(s4)
   1d50e: 1b 8b 1a 00  	addiw	s6, s5, 0x1
   1d512: 42 74        	ld	s0, 0x30(sp)
   1d514: e2 70        	ld	ra, 0x38(sp)
   1d516: 02 79        	ld	s2, 0x20(sp)
   1d518: e2 69        	ld	s3, 0x18(sp)
   1d51a: 42 6a        	ld	s4, 0x10(sp)
   1d51c: a2 6a        	ld	s5, 0x8(sp)
   1d51e: a2 74        	ld	s1, 0x28(sp)
   1d520: 1b 05 0b 00  	sext.w	a0, s6
   1d524: 02 6b        	ld	s6, 0x0(sp)
   1d526: 21 61        	addi	sp, sp, 0x40
   1d528: 82 80        	ret
   1d52a: e2 70        	ld	ra, 0x38(sp)
   1d52c: a2 74        	ld	s1, 0x28(sp)
   1d52e: 01 45        	li	a0, 0x0
   1d530: 21 61        	addi	sp, sp, 0x40
   1d532: 82 80        	ret

000000000001d534 <__rshift_D2A>:
   1d534: 58 49        	lw	a4, 0x14(a0)
   1d536: 13 de 55 40  	srai	t3, a1, 0x5
   1d53a: 63 47 ee 00  	blt	t3, a4, 0x1d548 <__rshift_D2A+0x14>
   1d53e: 23 2a 05 00  	sw	zero, 0x14(a0)
   1d542: 23 2c 05 00  	sw	zero, 0x18(a0)
   1d546: 82 80        	ret
   1d548: 13 03 85 01  	addi	t1, a0, 0x18
   1d54c: 13 18 27 00  	slli	a6, a4, 0x2
   1d550: 93 17 2e 00  	slli	a5, t3, 0x2
   1d554: fd 89        	andi	a1, a1, 0x1f
   1d556: 1a 98        	add	a6, a6, t1
   1d558: 9a 97        	add	a5, a5, t1
   1d55a: b9 c1        	beqz	a1, 0x1d5a0 <__rshift_D2A+0x6c>
   1d55c: 90 43        	lw	a2, 0x0(a5)
   1d55e: 93 0e 00 02  	li	t4, 0x20
   1d562: 91 07        	addi	a5, a5, 0x4
   1d564: bb 56 b6 00  	srlw	a3, a2, a1
   1d568: bb 8e be 40  	subw	t4, t4, a1
   1d56c: 63 ff 07 05  	bgeu	a5, a6, 0x1d5ca <__rshift_D2A+0x96>
   1d570: 9a 88        	mv	a7, t1
   1d572: 90 43        	lw	a2, 0x0(a5)
   1d574: 91 08        	addi	a7, a7, 0x4
   1d576: 91 07        	addi	a5, a5, 0x4
   1d578: 3b 16 d6 01  	sllw	a2, a2, t4
   1d57c: d1 8e        	or	a3, a3, a2
   1d57e: 23 ae d8 fe  	sw	a3, -0x4(a7)
   1d582: 03 a6 c7 ff  	lw	a2, -0x4(a5)
   1d586: bb 56 b6 00  	srlw	a3, a2, a1
   1d58a: e3 e4 07 ff  	bltu	a5, a6, 0x1d572 <__rshift_D2A+0x3e>
   1d58e: 33 07 c7 41  	sub	a4, a4, t3
   1d592: 0a 07        	slli	a4, a4, 0x2
   1d594: 71 17        	addi	a4, a4, -0x4
   1d596: 1a 97        	add	a4, a4, t1
   1d598: 14 c3        	sw	a3, 0x0(a4)
   1d59a: 8d c2        	beqz	a3, 0x1d5bc <__rshift_D2A+0x88>
   1d59c: 11 07        	addi	a4, a4, 0x4
   1d59e: 39 a8        	j	0x1d5bc <__rshift_D2A+0x88>
   1d5a0: 9a 86        	mv	a3, t1
   1d5a2: e3 fe 07 f9  	bgeu	a5, a6, 0x1d53e <__rshift_D2A+0xa>
   1d5a6: 90 43        	lw	a2, 0x0(a5)
   1d5a8: 91 07        	addi	a5, a5, 0x4
   1d5aa: 91 06        	addi	a3, a3, 0x4
   1d5ac: 23 ae c6 fe  	sw	a2, -0x4(a3)
   1d5b0: e3 eb 07 ff  	bltu	a5, a6, 0x1d5a6 <__rshift_D2A+0x72>
   1d5b4: 33 07 c7 41  	sub	a4, a4, t3
   1d5b8: 0a 07        	slli	a4, a4, 0x2
   1d5ba: 1a 97        	add	a4, a4, t1
   1d5bc: 33 07 67 40  	sub	a4, a4, t1
   1d5c0: 09 87        	srai	a4, a4, 0x2
   1d5c2: 01 27        	sext.w	a4, a4
   1d5c4: 58 c9        	sw	a4, 0x14(a0)
   1d5c6: 35 df        	beqz	a4, 0x1d542 <__rshift_D2A+0xe>
   1d5c8: 82 80        	ret
   1d5ca: 14 cd        	sw	a3, 0x18(a0)
   1d5cc: ad da        	beqz	a3, 0x1d53e <__rshift_D2A+0xa>
   1d5ce: 1a 87        	mv	a4, t1
   1d5d0: 11 07        	addi	a4, a4, 0x4
   1d5d2: ed b7        	j	0x1d5bc <__rshift_D2A+0x88>

000000000001d5d4 <__trailz_D2A>:
   1d5d4: 58 49        	lw	a4, 0x14(a0)
   1d5d6: 01 11        	addi	sp, sp, -0x20
   1d5d8: 61 05        	addi	a0, a0, 0x18
   1d5da: 0a 07        	slli	a4, a4, 0x2
   1d5dc: 22 e8        	sd	s0, 0x10(sp)
   1d5de: 06 ec        	sd	ra, 0x18(sp)
   1d5e0: 2a 97        	add	a4, a4, a0
   1d5e2: 01 44        	li	s0, 0x0
   1d5e4: 63 68 e5 00  	bltu	a0, a4, 0x1d5f4 <__trailz_D2A+0x20>
   1d5e8: 39 a8        	j	0x1d606 <__trailz_D2A+0x32>
   1d5ea: 11 05        	addi	a0, a0, 0x4
   1d5ec: 1b 04 04 02  	addiw	s0, s0, 0x20
   1d5f0: 63 7b e5 00  	bgeu	a0, a4, 0x1d606 <__trailz_D2A+0x32>
   1d5f4: 1c 41        	lw	a5, 0x0(a0)
   1d5f6: f5 db        	beqz	a5, 0x1d5ea <__trailz_D2A+0x16>
   1d5f8: 63 77 e5 00  	bgeu	a0, a4, 0x1d606 <__trailz_D2A+0x32>
   1d5fc: 68 00        	addi	a0, sp, 0xc
   1d5fe: 3e c6        	sw	a5, 0xc(sp)
   1d600: ef a0 bf a8  	jal	0x1808a <__lo0bits>
   1d604: 29 9c        	addw	s0, s0, a0
   1d606: e2 60        	ld	ra, 0x18(sp)
   1d608: 22 85        	mv	a0, s0
   1d60a: 42 64        	ld	s0, 0x10(sp)
   1d60c: 05 61        	addi	sp, sp, 0x20
   1d60e: 82 80        	ret

000000000001d610 <_realloc_r>:
   1d610: 5d 71        	addi	sp, sp, -0x50
   1d612: 4a f8        	sd	s2, 0x30(sp)
   1d614: 86 e4        	sd	ra, 0x48(sp)
   1d616: 32 89        	mv	s2, a2
   1d618: 63 84 05 16  	beqz	a1, 0x1d780 <_realloc_r+0x170>
   1d61c: a2 e0        	sd	s0, 0x40(sp)
   1d61e: 26 fc        	sd	s1, 0x38(sp)
   1d620: 2e 84        	mv	s0, a1
   1d622: 4e f4        	sd	s3, 0x28(sp)
   1d624: 52 f0        	sd	s4, 0x20(sp)
   1d626: 56 ec        	sd	s5, 0x18(sp)
   1d628: aa 89        	mv	s3, a0
   1d62a: ef 60 7f e4  	jal	0x14470 <__malloc_lock>
   1d62e: 83 37 84 ff  	ld	a5, -0x8(s0)
   1d632: 93 04 79 01  	addi	s1, s2, 0x17
   1d636: 13 07 e0 02  	li	a4, 0x2e
   1d63a: 93 0a 04 ff  	addi	s5, s0, -0x10
   1d63e: 13 fa c7 ff  	andi	s4, a5, -0x4
   1d642: 63 74 97 0c  	bgeu	a4, s1, 0x1d70a <_realloc_r+0xfa>
   1d646: 37 07 00 80  	lui	a4, 0x80000
   1d64a: c1 98        	andi	s1, s1, -0x10
   1d64c: 13 47 f7 ff  	not	a4, a4
   1d650: 63 61 97 0c  	bltu	a4, s1, 0x1d712 <_realloc_r+0x102>
   1d654: 63 ef 24 0b  	bltu	s1, s2, 0x1d712 <_realloc_r+0x102>
   1d658: 63 58 9a 0c  	bge	s4, s1, 0x1d728 <_realloc_r+0x118>
   1d65c: 37 17 02 00  	lui	a4, 0x21
   1d660: 62 e0        	sd	s8, 0x0(sp)
   1d662: 13 0c 07 7f  	addi	s8, a4, 0x7f0
   1d666: 03 36 0c 01  	ld	a2, 0x10(s8)
   1d66a: b3 86 4a 01  	add	a3, s5, s4
   1d66e: 98 66        	ld	a4, 0x8(a3)
   1d670: 63 0f d6 12  	beq	a2, a3, 0x1d7ae <_realloc_r+0x19e>
   1d674: 13 76 e7 ff  	andi	a2, a4, -0x2
   1d678: 36 96        	add	a2, a2, a3
   1d67a: 10 66        	ld	a2, 0x8(a2)
   1d67c: 05 8a        	andi	a2, a2, 0x1
   1d67e: 6d e6        	bnez	a2, 0x1d768 <_realloc_r+0x158>
   1d680: 71 9b        	andi	a4, a4, -0x4
   1d682: 33 06 ea 00  	add	a2, s4, a4
   1d686: 63 5b 96 08  	bge	a2, s1, 0x1d71c <_realloc_r+0x10c>
   1d68a: 85 8b        	andi	a5, a5, 0x1
   1d68c: 8d e7        	bnez	a5, 0x1d6b6 <_realloc_r+0xa6>
   1d68e: 5e e4        	sd	s7, 0x8(sp)
   1d690: 83 3b 04 ff  	ld	s7, -0x10(s0)
   1d694: 5a e8        	sd	s6, 0x10(sp)
   1d696: b3 8b 7a 41  	sub	s7, s5, s7
   1d69a: 83 b7 8b 00  	ld	a5, 0x8(s7)
   1d69e: f1 9b        	andi	a5, a5, -0x4
   1d6a0: 3e 97        	add	a4, a4, a5
   1d6a2: 33 0b 47 01  	add	s6, a4, s4
   1d6a6: 63 55 9b 24  	bge	s6, s1, 0x1d8f0 <_realloc_r+0x2e0>
   1d6aa: 33 0b fa 00  	add	s6, s4, a5
   1d6ae: 63 57 9b 1c  	bge	s6, s1, 0x1d87c <_realloc_r+0x26c>
   1d6b2: 42 6b        	ld	s6, 0x10(sp)
   1d6b4: a2 6b        	ld	s7, 0x8(sp)
   1d6b6: ca 85        	mv	a1, s2
   1d6b8: 4e 85        	mv	a0, s3
   1d6ba: ef 60 ef fa  	jal	0x13e68 <_malloc_r>
   1d6be: 2a 89        	mv	s2, a0
   1d6c0: 63 08 05 2e  	beqz	a0, 0x1d9b0 <_realloc_r+0x3a0>
   1d6c4: 83 37 84 ff  	ld	a5, -0x8(s0)
   1d6c8: 13 07 05 ff  	addi	a4, a0, -0x10
   1d6cc: f9 9b        	andi	a5, a5, -0x2
   1d6ce: d6 97        	add	a5, a5, s5
   1d6d0: 63 80 e7 1a  	beq	a5, a4, 0x1d870 <_realloc_r+0x260>
   1d6d4: 13 06 8a ff  	addi	a2, s4, -0x8
   1d6d8: 93 07 80 04  	li	a5, 0x48
   1d6dc: 63 e6 c7 20  	bltu	a5, a2, 0x1d8e8 <_realloc_r+0x2d8>
   1d6e0: 13 07 70 02  	li	a4, 0x27
   1d6e4: 63 69 c7 16  	bltu	a4, a2, 0x1d856 <_realloc_r+0x246>
   1d6e8: aa 87        	mv	a5, a0
   1d6ea: 22 87        	mv	a4, s0
   1d6ec: 14 63        	ld	a3, 0x0(a4)
   1d6ee: 94 e3        	sd	a3, 0x0(a5)
   1d6f0: 14 67        	ld	a3, 0x8(a4)
   1d6f2: 94 e7        	sd	a3, 0x8(a5)
   1d6f4: 18 6b        	ld	a4, 0x10(a4)
   1d6f6: 98 eb        	sd	a4, 0x10(a5)
   1d6f8: a2 85        	mv	a1, s0
   1d6fa: 4e 85        	mv	a0, s3
   1d6fc: ef 90 df b8  	jal	0x17288 <_free_r>
   1d700: 4e 85        	mv	a0, s3
   1d702: ef 60 1f d7  	jal	0x14472 <__malloc_unlock>
   1d706: 02 6c        	ld	s8, 0x0(sp)
   1d708: b1 a0        	j	0x1d754 <_realloc_r+0x144>
   1d70a: 93 04 00 02  	li	s1, 0x20
   1d70e: e3 f5 24 f5  	bgeu	s1, s2, 0x1d658 <_realloc_r+0x48>
   1d712: b1 47        	li	a5, 0xc
   1d714: 23 a0 f9 00  	sw	a5, 0x0(s3)
   1d718: 01 49        	li	s2, 0x0
   1d71a: 2d a8        	j	0x1d754 <_realloc_r+0x144>
   1d71c: 9c 6e        	ld	a5, 0x18(a3)
   1d71e: 98 6a        	ld	a4, 0x10(a3)
   1d720: 02 6c        	ld	s8, 0x0(sp)
   1d722: 32 8a        	mv	s4, a2
   1d724: 1c ef        	sd	a5, 0x18(a4)
   1d726: 98 eb        	sd	a4, 0x10(a5)
   1d728: 83 b7 8a 00  	ld	a5, 0x8(s5)
   1d72c: b3 06 9a 40  	sub	a3, s4, s1
   1d730: 7d 46        	li	a2, 0x1f
   1d732: 85 8b        	andi	a5, a5, 0x1
   1d734: 33 87 4a 01  	add	a4, s5, s4
   1d738: 63 6a d6 04  	bltu	a2, a3, 0x1d78c <_realloc_r+0x17c>
   1d73c: b3 e7 47 01  	or	a5, a5, s4
   1d740: 23 b4 fa 00  	sd	a5, 0x8(s5)
   1d744: 1c 67        	ld	a5, 0x8(a4)
   1d746: 93 e7 17 00  	ori	a5, a5, 0x1
   1d74a: 1c e7        	sd	a5, 0x8(a4)
   1d74c: 4e 85        	mv	a0, s3
   1d74e: ef 60 5f d2  	jal	0x14472 <__malloc_unlock>
   1d752: 22 89        	mv	s2, s0
   1d754: 06 64        	ld	s0, 0x40(sp)
   1d756: a6 60        	ld	ra, 0x48(sp)
   1d758: e2 74        	ld	s1, 0x38(sp)
   1d75a: a2 79        	ld	s3, 0x28(sp)
   1d75c: 02 7a        	ld	s4, 0x20(sp)
   1d75e: e2 6a        	ld	s5, 0x18(sp)
   1d760: 4a 85        	mv	a0, s2
   1d762: 42 79        	ld	s2, 0x30(sp)
   1d764: 61 61        	addi	sp, sp, 0x50
   1d766: 82 80        	ret
   1d768: 85 8b        	andi	a5, a5, 0x1
   1d76a: b1 f7        	bnez	a5, 0x1d6b6 <_realloc_r+0xa6>
   1d76c: 5e e4        	sd	s7, 0x8(sp)
   1d76e: 83 3b 04 ff  	ld	s7, -0x10(s0)
   1d772: 5a e8        	sd	s6, 0x10(sp)
   1d774: b3 8b 7a 41  	sub	s7, s5, s7
   1d778: 83 b7 8b 00  	ld	a5, 0x8(s7)
   1d77c: f1 9b        	andi	a5, a5, -0x4
   1d77e: 35 b7        	j	0x1d6aa <_realloc_r+0x9a>
   1d780: a6 60        	ld	ra, 0x48(sp)
   1d782: 42 79        	ld	s2, 0x30(sp)
   1d784: b2 85        	mv	a1, a2
   1d786: 61 61        	addi	sp, sp, 0x50
   1d788: 6f 60 0f ee  	j	0x13e68 <_malloc_r>
   1d78c: c5 8f        	or	a5, a5, s1
   1d78e: 23 b4 fa 00  	sd	a5, 0x8(s5)
   1d792: b3 85 9a 00  	add	a1, s5, s1
   1d796: 93 e6 16 00  	ori	a3, a3, 0x1
   1d79a: 94 e5        	sd	a3, 0x8(a1)
   1d79c: 1c 67        	ld	a5, 0x8(a4)
   1d79e: c1 05        	addi	a1, a1, 0x10
   1d7a0: 4e 85        	mv	a0, s3
   1d7a2: 93 e7 17 00  	ori	a5, a5, 0x1
   1d7a6: 1c e7        	sd	a5, 0x8(a4)
   1d7a8: ef 90 1f ae  	jal	0x17288 <_free_r>
   1d7ac: 45 b7        	j	0x1d74c <_realloc_r+0x13c>
   1d7ae: 71 9b        	andi	a4, a4, -0x4
   1d7b0: b3 06 47 01  	add	a3, a4, s4
   1d7b4: 13 86 04 02  	addi	a2, s1, 0x20
   1d7b8: 63 d3 c6 1c  	bge	a3, a2, 0x1d97e <_realloc_r+0x36e>
   1d7bc: 85 8b        	andi	a5, a5, 0x1
   1d7be: e3 9c 07 ee  	bnez	a5, 0x1d6b6 <_realloc_r+0xa6>
   1d7c2: 5e e4        	sd	s7, 0x8(sp)
   1d7c4: 83 3b 04 ff  	ld	s7, -0x10(s0)
   1d7c8: 5a e8        	sd	s6, 0x10(sp)
   1d7ca: b3 8b 7a 41  	sub	s7, s5, s7
   1d7ce: 83 b7 8b 00  	ld	a5, 0x8(s7)
   1d7d2: f1 9b        	andi	a5, a5, -0x4
   1d7d4: 3e 97        	add	a4, a4, a5
   1d7d6: 33 0b 47 01  	add	s6, a4, s4
   1d7da: e3 48 cb ec  	blt	s6, a2, 0x1d6aa <_realloc_r+0x9a>
   1d7de: 83 b7 8b 01  	ld	a5, 0x18(s7)
   1d7e2: 03 b7 0b 01  	ld	a4, 0x10(s7)
   1d7e6: 13 06 8a ff  	addi	a2, s4, -0x8
   1d7ea: 93 06 80 04  	li	a3, 0x48
   1d7ee: 1c ef        	sd	a5, 0x18(a4)
   1d7f0: 98 eb        	sd	a4, 0x10(a5)
   1d7f2: 13 89 0b 01  	addi	s2, s7, 0x10
   1d7f6: 63 ec c6 1c  	bltu	a3, a2, 0x1d9ce <_realloc_r+0x3be>
   1d7fa: 13 07 70 02  	li	a4, 0x27
   1d7fe: ca 87        	mv	a5, s2
   1d800: 63 7f c7 00  	bgeu	a4, a2, 0x1d81e <_realloc_r+0x20e>
   1d804: 18 60        	ld	a4, 0x0(s0)
   1d806: 93 07 70 03  	li	a5, 0x37
   1d80a: 23 b8 eb 00  	sd	a4, 0x10(s7)
   1d80e: 18 64        	ld	a4, 0x8(s0)
   1d810: 23 bc eb 00  	sd	a4, 0x18(s7)
   1d814: 63 e2 c7 1c  	bltu	a5, a2, 0x1d9d8 <_realloc_r+0x3c8>
   1d818: 41 04        	addi	s0, s0, 0x10
   1d81a: 93 87 0b 02  	addi	a5, s7, 0x20
   1d81e: 18 60        	ld	a4, 0x0(s0)
   1d820: 98 e3        	sd	a4, 0x0(a5)
   1d822: 18 64        	ld	a4, 0x8(s0)
   1d824: 98 e7        	sd	a4, 0x8(a5)
   1d826: 18 68        	ld	a4, 0x10(s0)
   1d828: 98 eb        	sd	a4, 0x10(a5)
   1d82a: 33 87 9b 00  	add	a4, s7, s1
   1d82e: b3 07 9b 40  	sub	a5, s6, s1
   1d832: 23 38 ec 00  	sd	a4, 0x10(s8)
   1d836: 93 e7 17 00  	ori	a5, a5, 0x1
   1d83a: 1c e7        	sd	a5, 0x8(a4)
   1d83c: 83 b7 8b 00  	ld	a5, 0x8(s7)
   1d840: 4e 85        	mv	a0, s3
   1d842: 85 8b        	andi	a5, a5, 0x1
   1d844: c5 8f        	or	a5, a5, s1
   1d846: 23 b4 fb 00  	sd	a5, 0x8(s7)
   1d84a: ef 60 9f c2  	jal	0x14472 <__malloc_unlock>
   1d84e: 42 6b        	ld	s6, 0x10(sp)
   1d850: a2 6b        	ld	s7, 0x8(sp)
   1d852: 02 6c        	ld	s8, 0x0(sp)
   1d854: 01 b7        	j	0x1d754 <_realloc_r+0x144>
   1d856: 14 60        	ld	a3, 0x0(s0)
   1d858: 13 07 70 03  	li	a4, 0x37
   1d85c: 14 e1        	sd	a3, 0x0(a0)
   1d85e: 14 64        	ld	a3, 0x8(s0)
   1d860: 14 e5        	sd	a3, 0x8(a0)
   1d862: 63 63 c7 10  	bltu	a4, a2, 0x1d968 <_realloc_r+0x358>
   1d866: 13 07 04 01  	addi	a4, s0, 0x10
   1d86a: 93 07 05 01  	addi	a5, a0, 0x10
   1d86e: bd bd        	j	0x1d6ec <_realloc_r+0xdc>
   1d870: 83 37 85 ff  	ld	a5, -0x8(a0)
   1d874: 02 6c        	ld	s8, 0x0(sp)
   1d876: f1 9b        	andi	a5, a5, -0x4
   1d878: 3e 9a        	add	s4, s4, a5
   1d87a: 7d b5        	j	0x1d728 <_realloc_r+0x118>
   1d87c: 83 b7 8b 01  	ld	a5, 0x18(s7)
   1d880: 03 b7 0b 01  	ld	a4, 0x10(s7)
   1d884: 13 06 8a ff  	addi	a2, s4, -0x8
   1d888: 93 06 80 04  	li	a3, 0x48
   1d88c: 1c ef        	sd	a5, 0x18(a4)
   1d88e: 98 eb        	sd	a4, 0x10(a5)
   1d890: 13 89 0b 01  	addi	s2, s7, 0x10
   1d894: 63 e5 c6 0c  	bltu	a3, a2, 0x1d95e <_realloc_r+0x34e>
   1d898: 13 07 70 02  	li	a4, 0x27
   1d89c: ca 87        	mv	a5, s2
   1d89e: 63 78 c7 02  	bgeu	a4, a2, 0x1d8ce <_realloc_r+0x2be>
   1d8a2: 18 60        	ld	a4, 0x0(s0)
   1d8a4: 93 07 70 03  	li	a5, 0x37
   1d8a8: 23 b8 eb 00  	sd	a4, 0x10(s7)
   1d8ac: 18 64        	ld	a4, 0x8(s0)
   1d8ae: 23 bc eb 00  	sd	a4, 0x18(s7)
   1d8b2: 63 fb c7 0e  	bgeu	a5, a2, 0x1d9a8 <_realloc_r+0x398>
   1d8b6: 1c 68        	ld	a5, 0x10(s0)
   1d8b8: 23 b0 fb 02  	sd	a5, 0x20(s7)
   1d8bc: 1c 6c        	ld	a5, 0x18(s0)
   1d8be: 23 b4 fb 02  	sd	a5, 0x28(s7)
   1d8c2: 63 02 d6 08  	beq	a2, a3, 0x1d946 <_realloc_r+0x336>
   1d8c6: 13 04 04 02  	addi	s0, s0, 0x20
   1d8ca: 93 87 0b 03  	addi	a5, s7, 0x30
   1d8ce: 18 60        	ld	a4, 0x0(s0)
   1d8d0: 98 e3        	sd	a4, 0x0(a5)
   1d8d2: 18 64        	ld	a4, 0x8(s0)
   1d8d4: 98 e7        	sd	a4, 0x8(a5)
   1d8d6: 18 68        	ld	a4, 0x10(s0)
   1d8d8: 98 eb        	sd	a4, 0x10(a5)
   1d8da: 5a 8a        	mv	s4, s6
   1d8dc: de 8a        	mv	s5, s7
   1d8de: 42 6b        	ld	s6, 0x10(sp)
   1d8e0: a2 6b        	ld	s7, 0x8(sp)
   1d8e2: 02 6c        	ld	s8, 0x0(sp)
   1d8e4: 4a 84        	mv	s0, s2
   1d8e6: 89 b5        	j	0x1d728 <_realloc_r+0x118>
   1d8e8: a2 85        	mv	a1, s0
   1d8ea: ef e0 2f cf  	jal	0x1bddc <memmove>
   1d8ee: 29 b5        	j	0x1d6f8 <_realloc_r+0xe8>
   1d8f0: 9c 6e        	ld	a5, 0x18(a3)
   1d8f2: 98 6a        	ld	a4, 0x10(a3)
   1d8f4: 13 06 8a ff  	addi	a2, s4, -0x8
   1d8f8: 93 06 80 04  	li	a3, 0x48
   1d8fc: 1c ef        	sd	a5, 0x18(a4)
   1d8fe: 98 eb        	sd	a4, 0x10(a5)
   1d900: 03 b7 0b 01  	ld	a4, 0x10(s7)
   1d904: 83 b7 8b 01  	ld	a5, 0x18(s7)
   1d908: 13 89 0b 01  	addi	s2, s7, 0x10
   1d90c: 1c ef        	sd	a5, 0x18(a4)
   1d90e: 98 eb        	sd	a4, 0x10(a5)
   1d910: 63 e7 c6 04  	bltu	a3, a2, 0x1d95e <_realloc_r+0x34e>
   1d914: 13 07 70 02  	li	a4, 0x27
   1d918: ca 87        	mv	a5, s2
   1d91a: e3 7a c7 fa  	bgeu	a4, a2, 0x1d8ce <_realloc_r+0x2be>
   1d91e: 18 60        	ld	a4, 0x0(s0)
   1d920: 93 07 70 03  	li	a5, 0x37
   1d924: 23 b8 eb 00  	sd	a4, 0x10(s7)
   1d928: 18 64        	ld	a4, 0x8(s0)
   1d92a: 23 bc eb 00  	sd	a4, 0x18(s7)
   1d92e: 63 fd c7 06  	bgeu	a5, a2, 0x1d9a8 <_realloc_r+0x398>
   1d932: 18 68        	ld	a4, 0x10(s0)
   1d934: 93 07 80 04  	li	a5, 0x48
   1d938: 23 b0 eb 02  	sd	a4, 0x20(s7)
   1d93c: 18 6c        	ld	a4, 0x18(s0)
   1d93e: 23 b4 eb 02  	sd	a4, 0x28(s7)
   1d942: e3 12 f6 f8  	bne	a2, a5, 0x1d8c6 <_realloc_r+0x2b6>
   1d946: 18 70        	ld	a4, 0x20(s0)
   1d948: 93 87 0b 04  	addi	a5, s7, 0x40
   1d94c: 13 04 04 03  	addi	s0, s0, 0x30
   1d950: 23 b8 eb 02  	sd	a4, 0x30(s7)
   1d954: 03 37 84 ff  	ld	a4, -0x8(s0)
   1d958: 23 bc eb 02  	sd	a4, 0x38(s7)
   1d95c: 8d bf        	j	0x1d8ce <_realloc_r+0x2be>
   1d95e: a2 85        	mv	a1, s0
   1d960: 4a 85        	mv	a0, s2
   1d962: ef e0 af c7  	jal	0x1bddc <memmove>
   1d966: 95 bf        	j	0x1d8da <_realloc_r+0x2ca>
   1d968: 18 68        	ld	a4, 0x10(s0)
   1d96a: 18 e9        	sd	a4, 0x10(a0)
   1d96c: 18 6c        	ld	a4, 0x18(s0)
   1d96e: 18 ed        	sd	a4, 0x18(a0)
   1d970: 63 06 f6 04  	beq	a2, a5, 0x1d9bc <_realloc_r+0x3ac>
   1d974: 13 07 04 02  	addi	a4, s0, 0x20
   1d978: 93 07 05 02  	addi	a5, a0, 0x20
   1d97c: 85 bb        	j	0x1d6ec <_realloc_r+0xdc>
   1d97e: a6 9a        	add	s5, s5, s1
   1d980: b3 87 96 40  	sub	a5, a3, s1
   1d984: 23 38 5c 01  	sd	s5, 0x10(s8)
   1d988: 93 e7 17 00  	ori	a5, a5, 0x1
   1d98c: 23 b4 fa 00  	sd	a5, 0x8(s5)
   1d990: 83 37 84 ff  	ld	a5, -0x8(s0)
   1d994: 4e 85        	mv	a0, s3
   1d996: 22 89        	mv	s2, s0
   1d998: 85 8b        	andi	a5, a5, 0x1
   1d99a: c5 8f        	or	a5, a5, s1
   1d99c: 23 3c f4 fe  	sd	a5, -0x8(s0)
   1d9a0: ef 60 3f ad  	jal	0x14472 <__malloc_unlock>
   1d9a4: 02 6c        	ld	s8, 0x0(sp)
   1d9a6: 7d b3        	j	0x1d754 <_realloc_r+0x144>
   1d9a8: 41 04        	addi	s0, s0, 0x10
   1d9aa: 93 87 0b 02  	addi	a5, s7, 0x20
   1d9ae: 05 b7        	j	0x1d8ce <_realloc_r+0x2be>
   1d9b0: 4e 85        	mv	a0, s3
   1d9b2: ef 60 1f ac  	jal	0x14472 <__malloc_unlock>
   1d9b6: 01 49        	li	s2, 0x0
   1d9b8: 02 6c        	ld	s8, 0x0(sp)
   1d9ba: 69 bb        	j	0x1d754 <_realloc_r+0x144>
   1d9bc: 14 70        	ld	a3, 0x20(s0)
   1d9be: 13 07 04 03  	addi	a4, s0, 0x30
   1d9c2: 93 07 05 03  	addi	a5, a0, 0x30
   1d9c6: 14 f1        	sd	a3, 0x20(a0)
   1d9c8: 14 74        	ld	a3, 0x28(s0)
   1d9ca: 14 f5        	sd	a3, 0x28(a0)
   1d9cc: 05 b3        	j	0x1d6ec <_realloc_r+0xdc>
   1d9ce: a2 85        	mv	a1, s0
   1d9d0: 4a 85        	mv	a0, s2
   1d9d2: ef e0 af c0  	jal	0x1bddc <memmove>
   1d9d6: 91 bd        	j	0x1d82a <_realloc_r+0x21a>
   1d9d8: 1c 68        	ld	a5, 0x10(s0)
   1d9da: 23 b0 fb 02  	sd	a5, 0x20(s7)
   1d9de: 1c 6c        	ld	a5, 0x18(s0)
   1d9e0: 23 b4 fb 02  	sd	a5, 0x28(s7)
   1d9e4: 63 07 d6 00  	beq	a2, a3, 0x1d9f2 <_realloc_r+0x3e2>
   1d9e8: 13 04 04 02  	addi	s0, s0, 0x20
   1d9ec: 93 87 0b 03  	addi	a5, s7, 0x30
   1d9f0: 3d b5        	j	0x1d81e <_realloc_r+0x20e>
   1d9f2: 18 70        	ld	a4, 0x20(s0)
   1d9f4: 93 87 0b 04  	addi	a5, s7, 0x40
   1d9f8: 13 04 04 03  	addi	s0, s0, 0x30
   1d9fc: 23 b8 eb 02  	sd	a4, 0x30(s7)
   1da00: 03 37 84 ff  	ld	a4, -0x8(s0)
   1da04: 23 bc eb 02  	sd	a4, 0x38(s7)
   1da08: 19 bd        	j	0x1d81e <_realloc_r+0x20e>

000000000001da0a <_wcrtomb_r>:
   1da0a: 79 71        	addi	sp, sp, -0x30
   1da0c: 22 f0        	sd	s0, 0x20(sp)
   1da0e: 26 ec        	sd	s1, 0x18(sp)
   1da10: 06 f4        	sd	ra, 0x28(sp)
   1da12: 83 b7 01 e6  	ld	a5, -0x1a0(gp)
   1da16: 2a 84        	mv	s0, a0
   1da18: b6 84        	mv	s1, a3
   1da1a: 91 c9        	beqz	a1, 0x1da2e <_wcrtomb_r+0x24>
   1da1c: 82 97        	jalr	a5
   1da1e: fd 57        	li	a5, -0x1
   1da20: 63 0d f5 00  	beq	a0, a5, 0x1da3a <_wcrtomb_r+0x30>
   1da24: a2 70        	ld	ra, 0x28(sp)
   1da26: 02 74        	ld	s0, 0x20(sp)
   1da28: e2 64        	ld	s1, 0x18(sp)
   1da2a: 45 61        	addi	sp, sp, 0x30
   1da2c: 82 80        	ret
   1da2e: 01 46        	li	a2, 0x0
   1da30: 8a 85        	mv	a1, sp
   1da32: 82 97        	jalr	a5
   1da34: fd 57        	li	a5, -0x1
   1da36: e3 17 f5 fe  	bne	a0, a5, 0x1da24 <_wcrtomb_r+0x1a>
   1da3a: 23 a0 04 00  	sw	zero, 0x0(s1)
   1da3e: 93 07 a0 08  	li	a5, 0x8a
   1da42: a2 70        	ld	ra, 0x28(sp)
   1da44: 1c c0        	sw	a5, 0x0(s0)
   1da46: 02 74        	ld	s0, 0x20(sp)
   1da48: e2 64        	ld	s1, 0x18(sp)
   1da4a: 45 61        	addi	sp, sp, 0x30
   1da4c: 82 80        	ret

000000000001da4e <wcrtomb>:
   1da4e: 79 71        	addi	sp, sp, -0x30
   1da50: 22 f0        	sd	s0, 0x20(sp)
   1da52: 26 ec        	sd	s1, 0x18(sp)
   1da54: 06 f4        	sd	ra, 0x28(sp)
   1da56: 83 b4 01 23  	ld	s1, 0x230(gp)
   1da5a: 83 b7 01 e6  	ld	a5, -0x1a0(gp)
   1da5e: 32 84        	mv	s0, a2
   1da60: 11 cd        	beqz	a0, 0x1da7c <wcrtomb+0x2e>
   1da62: 2e 86        	mv	a2, a1
   1da64: a2 86        	mv	a3, s0
   1da66: aa 85        	mv	a1, a0
   1da68: 26 85        	mv	a0, s1
   1da6a: 82 97        	jalr	a5
   1da6c: fd 57        	li	a5, -0x1
   1da6e: 63 0f f5 00  	beq	a0, a5, 0x1da8c <wcrtomb+0x3e>
   1da72: a2 70        	ld	ra, 0x28(sp)
   1da74: 02 74        	ld	s0, 0x20(sp)
   1da76: e2 64        	ld	s1, 0x18(sp)
   1da78: 45 61        	addi	sp, sp, 0x30
   1da7a: 82 80        	ret
   1da7c: b2 86        	mv	a3, a2
   1da7e: 8a 85        	mv	a1, sp
   1da80: 01 46        	li	a2, 0x0
   1da82: 26 85        	mv	a0, s1
   1da84: 82 97        	jalr	a5
   1da86: fd 57        	li	a5, -0x1
   1da88: e3 15 f5 fe  	bne	a0, a5, 0x1da72 <wcrtomb+0x24>
   1da8c: 23 20 04 00  	sw	zero, 0x0(s0)
   1da90: a2 70        	ld	ra, 0x28(sp)
   1da92: 02 74        	ld	s0, 0x20(sp)
   1da94: 93 07 a0 08  	li	a5, 0x8a
   1da98: 9c c0        	sw	a5, 0x0(s1)
   1da9a: e2 64        	ld	s1, 0x18(sp)
   1da9c: 45 61        	addi	sp, sp, 0x30
   1da9e: 82 80        	ret

000000000001daa0 <_fiprintf_r>:
   1daa0: 5d 71        	addi	sp, sp, -0x50
   1daa2: 13 03 81 02  	addi	t1, sp, 0x28
   1daa6: 36 f4        	sd	a3, 0x28(sp)
   1daa8: 9a 86        	mv	a3, t1
   1daaa: 06 ec        	sd	ra, 0x18(sp)
   1daac: 3a f8        	sd	a4, 0x30(sp)
   1daae: 3e fc        	sd	a5, 0x38(sp)
   1dab0: c2 e0        	sd	a6, 0x40(sp)
   1dab2: c6 e4        	sd	a7, 0x48(sp)
   1dab4: 1a e4        	sd	t1, 0x8(sp)
   1dab6: ef c0 9f d1  	jal	0x1a7ce <_vfiprintf_r>
   1daba: e2 60        	ld	ra, 0x18(sp)
   1dabc: 61 61        	addi	sp, sp, 0x50
   1dabe: 82 80        	ret

000000000001dac0 <fiprintf>:
   1dac0: 2a 8e        	mv	t3, a0
   1dac2: 5d 71        	addi	sp, sp, -0x50
   1dac4: 03 b5 01 23  	ld	a0, 0x230(gp)
   1dac8: 13 03 01 02  	addi	t1, sp, 0x20
   1dacc: 32 f0        	sd	a2, 0x20(sp)
   1dace: 36 f4        	sd	a3, 0x28(sp)
   1dad0: 2e 86        	mv	a2, a1
   1dad2: 9a 86        	mv	a3, t1
   1dad4: f2 85        	mv	a1, t3
   1dad6: 06 ec        	sd	ra, 0x18(sp)
   1dad8: 3a f8        	sd	a4, 0x30(sp)
   1dada: 3e fc        	sd	a5, 0x38(sp)
   1dadc: c2 e0        	sd	a6, 0x40(sp)
   1dade: c6 e4        	sd	a7, 0x48(sp)
   1dae0: 1a e4        	sd	t1, 0x8(sp)
   1dae2: ef c0 df ce  	jal	0x1a7ce <_vfiprintf_r>
   1dae6: e2 60        	ld	ra, 0x18(sp)
   1dae8: 61 61        	addi	sp, sp, 0x50
   1daea: 82 80        	ret

000000000001daec <__swbuf_r>:
   1daec: 79 71        	addi	sp, sp, -0x30
   1daee: 22 f0        	sd	s0, 0x20(sp)
   1daf0: 26 ec        	sd	s1, 0x18(sp)
   1daf2: 4a e8        	sd	s2, 0x10(sp)
   1daf4: 06 f4        	sd	ra, 0x28(sp)
   1daf6: 2a 89        	mv	s2, a0
   1daf8: ae 84        	mv	s1, a1
   1dafa: 32 84        	mv	s0, a2
   1dafc: 19 c1        	beqz	a0, 0x1db02 <__swbuf_r+0x16>
   1dafe: 3c 65        	ld	a5, 0x48(a0)
   1db00: e5 c7        	beqz	a5, 0x1dbe8 <__swbuf_r+0xfc>
   1db02: 1c 54        	lw	a5, 0x28(s0)
   1db04: 03 17 04 01  	lh	a4, 0x10(s0)
   1db08: 5c c4        	sw	a5, 0xc(s0)
   1db0a: 93 77 87 00  	andi	a5, a4, 0x8
   1db0e: a9 cb        	beqz	a5, 0x1db60 <__swbuf_r+0x74>
   1db10: 1c 6c        	ld	a5, 0x18(s0)
   1db12: b9 c7        	beqz	a5, 0x1db60 <__swbuf_r+0x74>
   1db14: 4e e4        	sd	s3, 0x8(sp)
   1db16: 93 16 27 03  	slli	a3, a4, 0x32
   1db1a: 93 f9 f4 0f  	andi	s3, s1, 0xff
   1db1e: ce 84        	mv	s1, s3
   1db20: 63 d0 06 06  	bgez	a3, 0x1db80 <__swbuf_r+0x94>
   1db24: 18 60        	ld	a4, 0x0(s0)
   1db26: 14 50        	lw	a3, 0x20(s0)
   1db28: bb 07 f7 40  	subw	a5, a4, a5
   1db2c: 63 db d7 06  	bge	a5, a3, 0x1dba2 <__swbuf_r+0xb6>
   1db30: 54 44        	lw	a3, 0xc(s0)
   1db32: 13 06 17 00  	addi	a2, a4, 0x1
   1db36: 10 e0        	sd	a2, 0x0(s0)
   1db38: fd 36        	addiw	a3, a3, -0x1
   1db3a: 54 c4        	sw	a3, 0xc(s0)
   1db3c: 23 00 37 01  	sb	s3, 0x0(a4)
   1db40: 18 50        	lw	a4, 0x20(s0)
   1db42: 85 27        	addiw	a5, a5, 0x1
   1db44: 63 01 f7 08  	beq	a4, a5, 0x1dbc6 <__swbuf_r+0xda>
   1db48: 83 57 04 01  	lhu	a5, 0x10(s0)
   1db4c: 85 8b        	andi	a5, a5, 0x1
   1db4e: c1 e7        	bnez	a5, 0x1dbd6 <__swbuf_r+0xea>
   1db50: a2 69        	ld	s3, 0x8(sp)
   1db52: a2 70        	ld	ra, 0x28(sp)
   1db54: 02 74        	ld	s0, 0x20(sp)
   1db56: 42 69        	ld	s2, 0x10(sp)
   1db58: 26 85        	mv	a0, s1
   1db5a: e2 64        	ld	s1, 0x18(sp)
   1db5c: 45 61        	addi	sp, sp, 0x30
   1db5e: 82 80        	ret
   1db60: a2 85        	mv	a1, s0
   1db62: 4a 85        	mv	a0, s2
   1db64: ef d0 1f f7  	jal	0x1bad4 <__swsetup_r>
   1db68: 2d e5        	bnez	a0, 0x1dbd2 <__swbuf_r+0xe6>
   1db6a: 03 17 04 01  	lh	a4, 0x10(s0)
   1db6e: 4e e4        	sd	s3, 0x8(sp)
   1db70: 93 f9 f4 0f  	andi	s3, s1, 0xff
   1db74: 93 16 27 03  	slli	a3, a4, 0x32
   1db78: 1c 6c        	ld	a5, 0x18(s0)
   1db7a: ce 84        	mv	s1, s3
   1db7c: e3 c4 06 fa  	bltz	a3, 0x1db24 <__swbuf_r+0x38>
   1db80: 83 26 c4 0a  	lw	a3, 0xac(s0)
   1db84: 79 76        	lui	a2, 0xffffe
   1db86: 89 65        	lui	a1, 0x2
   1db88: 4d 8f        	or	a4, a4, a1
   1db8a: 7d 16        	addi	a2, a2, -0x1
   1db8c: f1 8e        	and	a3, a3, a2
   1db8e: 23 18 e4 00  	sh	a4, 0x10(s0)
   1db92: 18 60        	ld	a4, 0x0(s0)
   1db94: 23 26 d4 0a  	sw	a3, 0xac(s0)
   1db98: 14 50        	lw	a3, 0x20(s0)
   1db9a: bb 07 f7 40  	subw	a5, a4, a5
   1db9e: e3 c9 d7 f8  	blt	a5, a3, 0x1db30 <__swbuf_r+0x44>
   1dba2: a2 85        	mv	a1, s0
   1dba4: 4a 85        	mv	a0, s2
   1dba6: ef 70 ff cf  	jal	0x158a4 <_fflush_r>
   1dbaa: 1d e1        	bnez	a0, 0x1dbd0 <__swbuf_r+0xe4>
   1dbac: 18 60        	ld	a4, 0x0(s0)
   1dbae: 54 44        	lw	a3, 0xc(s0)
   1dbb0: 85 47        	li	a5, 0x1
   1dbb2: 13 06 17 00  	addi	a2, a4, 0x1
   1dbb6: fd 36        	addiw	a3, a3, -0x1
   1dbb8: 10 e0        	sd	a2, 0x0(s0)
   1dbba: 54 c4        	sw	a3, 0xc(s0)
   1dbbc: 23 00 37 01  	sb	s3, 0x0(a4)
   1dbc0: 18 50        	lw	a4, 0x20(s0)
   1dbc2: e3 13 f7 f8  	bne	a4, a5, 0x1db48 <__swbuf_r+0x5c>
   1dbc6: a2 85        	mv	a1, s0
   1dbc8: 4a 85        	mv	a0, s2
   1dbca: ef 70 bf cd  	jal	0x158a4 <_fflush_r>
   1dbce: 49 d1        	beqz	a0, 0x1db50 <__swbuf_r+0x64>
   1dbd0: a2 69        	ld	s3, 0x8(sp)
   1dbd2: fd 54        	li	s1, -0x1
   1dbd4: bd bf        	j	0x1db52 <__swbuf_r+0x66>
   1dbd6: a9 47        	li	a5, 0xa
   1dbd8: e3 9c f4 f6  	bne	s1, a5, 0x1db50 <__swbuf_r+0x64>
   1dbdc: a2 85        	mv	a1, s0
   1dbde: 4a 85        	mv	a0, s2
   1dbe0: ef 70 5f cc  	jal	0x158a4 <_fflush_r>
   1dbe4: 35 d5        	beqz	a0, 0x1db50 <__swbuf_r+0x64>
   1dbe6: ed b7        	j	0x1dbd0 <__swbuf_r+0xe4>
   1dbe8: ef 80 af 8d  	jal	0x15cc2 <__sinit>
   1dbec: 19 bf        	j	0x1db02 <__swbuf_r+0x16>

000000000001dbee <__swbuf>:
   1dbee: aa 87        	mv	a5, a0
   1dbf0: 03 b5 01 23  	ld	a0, 0x230(gp)
   1dbf4: 2e 86        	mv	a2, a1
   1dbf6: be 85        	mv	a1, a5
   1dbf8: 6f f0 5f ef  	j	0x1daec <__swbuf_r>

000000000001dbfc <abort>:
   1dbfc: 41 11        	addi	sp, sp, -0x10
   1dbfe: 19 45        	li	a0, 0x6
   1dc00: 06 e4        	sd	ra, 0x8(sp)
   1dc02: ef 00 c0 19  	jal	0x1dd9e <raise>
   1dc06: 05 45        	li	a0, 0x1
   1dc08: ef 00 00 3a  	jal	0x1dfa8 <_exit>

000000000001dc0c <_init_signal_r>:
   1dc0c: 83 37 05 15  	ld	a5, 0x150(a0)
   1dc10: 99 c3        	beqz	a5, 0x1dc16 <_init_signal_r+0xa>
   1dc12: 01 45        	li	a0, 0x0
   1dc14: 82 80        	ret
   1dc16: 41 11        	addi	sp, sp, -0x10
   1dc18: 93 05 00 10  	li	a1, 0x100
   1dc1c: 22 e0        	sd	s0, 0x0(sp)
   1dc1e: 06 e4        	sd	ra, 0x8(sp)
   1dc20: 2a 84        	mv	s0, a0
   1dc22: ef 60 6f a4  	jal	0x13e68 <_malloc_r>
   1dc26: 23 38 a4 14  	sd	a0, 0x150(s0)
   1dc2a: 09 cd        	beqz	a0, 0x1dc44 <_init_signal_r+0x38>
   1dc2c: 93 07 05 10  	addi	a5, a0, 0x100
   1dc30: 23 30 05 00  	sd	zero, 0x0(a0)
   1dc34: 21 05        	addi	a0, a0, 0x8
   1dc36: e3 1d f5 fe  	bne	a0, a5, 0x1dc30 <_init_signal_r+0x24>
   1dc3a: 01 45        	li	a0, 0x0
   1dc3c: a2 60        	ld	ra, 0x8(sp)
   1dc3e: 02 64        	ld	s0, 0x0(sp)
   1dc40: 41 01        	addi	sp, sp, 0x10
   1dc42: 82 80        	ret
   1dc44: 7d 55        	li	a0, -0x1
   1dc46: dd bf        	j	0x1dc3c <_init_signal_r+0x30>

000000000001dc48 <_signal_r>:
   1dc48: 79 71        	addi	sp, sp, -0x30
   1dc4a: 26 ec        	sd	s1, 0x18(sp)
   1dc4c: 06 f4        	sd	ra, 0x28(sp)
   1dc4e: fd 47        	li	a5, 0x1f
   1dc50: aa 84        	mv	s1, a0
   1dc52: 63 e0 b7 02  	bltu	a5, a1, 0x1dc72 <_signal_r+0x2a>
   1dc56: 83 37 05 15  	ld	a5, 0x150(a0)
   1dc5a: 22 f0        	sd	s0, 0x20(sp)
   1dc5c: 2e 84        	mv	s0, a1
   1dc5e: 91 cf        	beqz	a5, 0x1dc7a <_signal_r+0x32>
   1dc60: 0e 04        	slli	s0, s0, 0x3
   1dc62: a2 97        	add	a5, a5, s0
   1dc64: 02 74        	ld	s0, 0x20(sp)
   1dc66: 88 63        	ld	a0, 0x0(a5)
   1dc68: 90 e3        	sd	a2, 0x0(a5)
   1dc6a: a2 70        	ld	ra, 0x28(sp)
   1dc6c: e2 64        	ld	s1, 0x18(sp)
   1dc6e: 45 61        	addi	sp, sp, 0x30
   1dc70: 82 80        	ret
   1dc72: d9 47        	li	a5, 0x16
   1dc74: 1c c1        	sw	a5, 0x0(a0)
   1dc76: 7d 55        	li	a0, -0x1
   1dc78: cd bf        	j	0x1dc6a <_signal_r+0x22>
   1dc7a: 93 05 00 10  	li	a1, 0x100
   1dc7e: 32 e4        	sd	a2, 0x8(sp)
   1dc80: ef 60 8f 9e  	jal	0x13e68 <_malloc_r>
   1dc84: 23 b8 a4 14  	sd	a0, 0x150(s1)
   1dc88: 22 66        	ld	a2, 0x8(sp)
   1dc8a: aa 87        	mv	a5, a0
   1dc8c: 2a 87        	mv	a4, a0
   1dc8e: 93 06 05 10  	addi	a3, a0, 0x100
   1dc92: 19 c5        	beqz	a0, 0x1dca0 <_signal_r+0x58>
   1dc94: 23 30 07 00  	sd	zero, 0x0(a4)
   1dc98: 21 07        	addi	a4, a4, 0x8
   1dc9a: e3 1d d7 fe  	bne	a4, a3, 0x1dc94 <_signal_r+0x4c>
   1dc9e: c9 b7        	j	0x1dc60 <_signal_r+0x18>
   1dca0: 02 74        	ld	s0, 0x20(sp)
   1dca2: 7d 55        	li	a0, -0x1
   1dca4: d9 b7        	j	0x1dc6a <_signal_r+0x22>

000000000001dca6 <_raise_r>:
   1dca6: 01 11        	addi	sp, sp, -0x20
   1dca8: 26 e4        	sd	s1, 0x8(sp)
   1dcaa: 06 ec        	sd	ra, 0x18(sp)
   1dcac: fd 47        	li	a5, 0x1f
   1dcae: aa 84        	mv	s1, a0
   1dcb0: 63 ef b7 04  	bltu	a5, a1, 0x1dd0e <_raise_r+0x68>
   1dcb4: 83 37 05 15  	ld	a5, 0x150(a0)
   1dcb8: 22 e8        	sd	s0, 0x10(sp)
   1dcba: 2e 84        	mv	s0, a1
   1dcbc: 95 c7        	beqz	a5, 0x1dce8 <_raise_r+0x42>
   1dcbe: 13 97 35 00  	slli	a4, a1, 0x3
   1dcc2: ba 97        	add	a5, a5, a4
   1dcc4: 98 63        	ld	a4, 0x0(a5)
   1dcc6: 0d c3        	beqz	a4, 0x1dce8 <_raise_r+0x42>
   1dcc8: 85 46        	li	a3, 0x1
   1dcca: 63 09 d7 00  	beq	a4, a3, 0x1dcdc <_raise_r+0x36>
   1dcce: fd 56        	li	a3, -0x1
   1dcd0: 63 07 d7 02  	beq	a4, a3, 0x1dcfe <_raise_r+0x58>
   1dcd4: 23 b0 07 00  	sd	zero, 0x0(a5)
   1dcd8: 2e 85        	mv	a0, a1
   1dcda: 02 97        	jalr	a4
   1dcdc: 42 64        	ld	s0, 0x10(sp)
   1dcde: 01 45        	li	a0, 0x0
   1dce0: e2 60        	ld	ra, 0x18(sp)
   1dce2: a2 64        	ld	s1, 0x8(sp)
   1dce4: 05 61        	addi	sp, sp, 0x20
   1dce6: 82 80        	ret
   1dce8: 26 85        	mv	a0, s1
   1dcea: ef 00 00 29  	jal	0x1df7a <_getpid_r>
   1dcee: 22 86        	mv	a2, s0
   1dcf0: 42 64        	ld	s0, 0x10(sp)
   1dcf2: e2 60        	ld	ra, 0x18(sp)
   1dcf4: aa 85        	mv	a1, a0
   1dcf6: 26 85        	mv	a0, s1
   1dcf8: a2 64        	ld	s1, 0x8(sp)
   1dcfa: 05 61        	addi	sp, sp, 0x20
   1dcfc: 91 a4        	j	0x1df40 <_kill_r>
   1dcfe: 42 64        	ld	s0, 0x10(sp)
   1dd00: e2 60        	ld	ra, 0x18(sp)
   1dd02: d9 47        	li	a5, 0x16
   1dd04: 1c c1        	sw	a5, 0x0(a0)
   1dd06: a2 64        	ld	s1, 0x8(sp)
   1dd08: 05 45        	li	a0, 0x1
   1dd0a: 05 61        	addi	sp, sp, 0x20
   1dd0c: 82 80        	ret
   1dd0e: d9 47        	li	a5, 0x16
   1dd10: 1c c1        	sw	a5, 0x0(a0)
   1dd12: 7d 55        	li	a0, -0x1
   1dd14: f1 b7        	j	0x1dce0 <_raise_r+0x3a>

000000000001dd16 <__sigtramp_r>:
   1dd16: fd 47        	li	a5, 0x1f
   1dd18: 63 e1 b7 08  	bltu	a5, a1, 0x1dd9a <__sigtramp_r+0x84>
   1dd1c: 83 37 05 15  	ld	a5, 0x150(a0)
   1dd20: 01 11        	addi	sp, sp, -0x20
   1dd22: 22 e8        	sd	s0, 0x10(sp)
   1dd24: 26 e4        	sd	s1, 0x8(sp)
   1dd26: 06 ec        	sd	ra, 0x18(sp)
   1dd28: 2e 84        	mv	s0, a1
   1dd2a: aa 84        	mv	s1, a0
   1dd2c: a1 c7        	beqz	a5, 0x1dd74 <__sigtramp_r+0x5e>
   1dd2e: 13 17 34 00  	slli	a4, s0, 0x3
   1dd32: ba 97        	add	a5, a5, a4
   1dd34: 98 63        	ld	a4, 0x0(a5)
   1dd36: 0d c3        	beqz	a4, 0x1dd58 <__sigtramp_r+0x42>
   1dd38: fd 56        	li	a3, -0x1
   1dd3a: 63 0b d7 02  	beq	a4, a3, 0x1dd70 <__sigtramp_r+0x5a>
   1dd3e: 85 46        	li	a3, 0x1
   1dd40: 63 02 d7 02  	beq	a4, a3, 0x1dd64 <__sigtramp_r+0x4e>
   1dd44: 22 85        	mv	a0, s0
   1dd46: 23 b0 07 00  	sd	zero, 0x0(a5)
   1dd4a: 02 97        	jalr	a4
   1dd4c: 01 45        	li	a0, 0x0
   1dd4e: e2 60        	ld	ra, 0x18(sp)
   1dd50: 42 64        	ld	s0, 0x10(sp)
   1dd52: a2 64        	ld	s1, 0x8(sp)
   1dd54: 05 61        	addi	sp, sp, 0x20
   1dd56: 82 80        	ret
   1dd58: e2 60        	ld	ra, 0x18(sp)
   1dd5a: 42 64        	ld	s0, 0x10(sp)
   1dd5c: a2 64        	ld	s1, 0x8(sp)
   1dd5e: 05 45        	li	a0, 0x1
   1dd60: 05 61        	addi	sp, sp, 0x20
   1dd62: 82 80        	ret
   1dd64: e2 60        	ld	ra, 0x18(sp)
   1dd66: 42 64        	ld	s0, 0x10(sp)
   1dd68: a2 64        	ld	s1, 0x8(sp)
   1dd6a: 0d 45        	li	a0, 0x3
   1dd6c: 05 61        	addi	sp, sp, 0x20
   1dd6e: 82 80        	ret
   1dd70: 09 45        	li	a0, 0x2
   1dd72: f1 bf        	j	0x1dd4e <__sigtramp_r+0x38>
   1dd74: 93 05 00 10  	li	a1, 0x100
   1dd78: ef 60 0f 8f  	jal	0x13e68 <_malloc_r>
   1dd7c: 23 b8 a4 14  	sd	a0, 0x150(s1)
   1dd80: aa 87        	mv	a5, a0
   1dd82: 11 c9        	beqz	a0, 0x1dd96 <__sigtramp_r+0x80>
   1dd84: 2a 87        	mv	a4, a0
   1dd86: 93 06 05 10  	addi	a3, a0, 0x100
   1dd8a: 23 30 07 00  	sd	zero, 0x0(a4)
   1dd8e: 21 07        	addi	a4, a4, 0x8
   1dd90: e3 1d d7 fe  	bne	a4, a3, 0x1dd8a <__sigtramp_r+0x74>
   1dd94: 69 bf        	j	0x1dd2e <__sigtramp_r+0x18>
   1dd96: 7d 55        	li	a0, -0x1
   1dd98: 5d bf        	j	0x1dd4e <__sigtramp_r+0x38>
   1dd9a: 7d 55        	li	a0, -0x1
   1dd9c: 82 80        	ret

000000000001dd9e <raise>:
   1dd9e: 01 11        	addi	sp, sp, -0x20
   1dda0: 26 e4        	sd	s1, 0x8(sp)
   1dda2: 06 ec        	sd	ra, 0x18(sp)
   1dda4: fd 47        	li	a5, 0x1f
   1dda6: 83 b4 01 23  	ld	s1, 0x230(gp)
   1ddaa: 63 ee a7 04  	bltu	a5, a0, 0x1de06 <raise+0x68>
   1ddae: 83 b7 04 15  	ld	a5, 0x150(s1)
   1ddb2: 22 e8        	sd	s0, 0x10(sp)
   1ddb4: 2a 84        	mv	s0, a0
   1ddb6: 8d c7        	beqz	a5, 0x1dde0 <raise+0x42>
   1ddb8: 13 17 35 00  	slli	a4, a0, 0x3
   1ddbc: ba 97        	add	a5, a5, a4
   1ddbe: 98 63        	ld	a4, 0x0(a5)
   1ddc0: 05 c3        	beqz	a4, 0x1dde0 <raise+0x42>
   1ddc2: 85 46        	li	a3, 0x1
   1ddc4: 63 08 d7 00  	beq	a4, a3, 0x1ddd4 <raise+0x36>
   1ddc8: fd 56        	li	a3, -0x1
   1ddca: 63 06 d7 02  	beq	a4, a3, 0x1ddf6 <raise+0x58>
   1ddce: 23 b0 07 00  	sd	zero, 0x0(a5)
   1ddd2: 02 97        	jalr	a4
   1ddd4: 42 64        	ld	s0, 0x10(sp)
   1ddd6: 01 45        	li	a0, 0x0
   1ddd8: e2 60        	ld	ra, 0x18(sp)
   1ddda: a2 64        	ld	s1, 0x8(sp)
   1dddc: 05 61        	addi	sp, sp, 0x20
   1ddde: 82 80        	ret
   1dde0: 26 85        	mv	a0, s1
   1dde2: ef 00 80 19  	jal	0x1df7a <_getpid_r>
   1dde6: 22 86        	mv	a2, s0
   1dde8: 42 64        	ld	s0, 0x10(sp)
   1ddea: e2 60        	ld	ra, 0x18(sp)
   1ddec: aa 85        	mv	a1, a0
   1ddee: 26 85        	mv	a0, s1
   1ddf0: a2 64        	ld	s1, 0x8(sp)
   1ddf2: 05 61        	addi	sp, sp, 0x20
   1ddf4: b1 a2        	j	0x1df40 <_kill_r>
   1ddf6: 42 64        	ld	s0, 0x10(sp)
   1ddf8: e2 60        	ld	ra, 0x18(sp)
   1ddfa: d9 47        	li	a5, 0x16
   1ddfc: 9c c0        	sw	a5, 0x0(s1)
   1ddfe: 05 45        	li	a0, 0x1
   1de00: a2 64        	ld	s1, 0x8(sp)
   1de02: 05 61        	addi	sp, sp, 0x20
   1de04: 82 80        	ret
   1de06: d9 47        	li	a5, 0x16
   1de08: 9c c0        	sw	a5, 0x0(s1)
   1de0a: 7d 55        	li	a0, -0x1
   1de0c: f1 b7        	j	0x1ddd8 <raise+0x3a>

000000000001de0e <signal>:
   1de0e: 01 11        	addi	sp, sp, -0x20
   1de10: 4a e0        	sd	s2, 0x0(sp)
   1de12: 06 ec        	sd	ra, 0x18(sp)
   1de14: fd 47        	li	a5, 0x1f
   1de16: 03 b9 01 23  	ld	s2, 0x230(gp)
   1de1a: 63 e4 a7 02  	bltu	a5, a0, 0x1de42 <signal+0x34>
   1de1e: 22 e8        	sd	s0, 0x10(sp)
   1de20: 2a 84        	mv	s0, a0
   1de22: 03 35 09 15  	ld	a0, 0x150(s2)
   1de26: 26 e4        	sd	s1, 0x8(sp)
   1de28: ae 84        	mv	s1, a1
   1de2a: 0d c1        	beqz	a0, 0x1de4c <signal+0x3e>
   1de2c: 0e 04        	slli	s0, s0, 0x3
   1de2e: b3 07 85 00  	add	a5, a0, s0
   1de32: 88 63        	ld	a0, 0x0(a5)
   1de34: 42 64        	ld	s0, 0x10(sp)
   1de36: 84 e3        	sd	s1, 0x0(a5)
   1de38: a2 64        	ld	s1, 0x8(sp)
   1de3a: e2 60        	ld	ra, 0x18(sp)
   1de3c: 02 69        	ld	s2, 0x0(sp)
   1de3e: 05 61        	addi	sp, sp, 0x20
   1de40: 82 80        	ret
   1de42: d9 47        	li	a5, 0x16
   1de44: 23 20 f9 00  	sw	a5, 0x0(s2)
   1de48: 7d 55        	li	a0, -0x1
   1de4a: c5 bf        	j	0x1de3a <signal+0x2c>
   1de4c: 93 05 00 10  	li	a1, 0x100
   1de50: 4a 85        	mv	a0, s2
   1de52: ef 60 6f 81  	jal	0x13e68 <_malloc_r>
   1de56: 23 38 a9 14  	sd	a0, 0x150(s2)
   1de5a: aa 87        	mv	a5, a0
   1de5c: 13 07 05 10  	addi	a4, a0, 0x100
   1de60: 19 c5        	beqz	a0, 0x1de6e <signal+0x60>
   1de62: 23 b0 07 00  	sd	zero, 0x0(a5)
   1de66: a1 07        	addi	a5, a5, 0x8
   1de68: e3 1d f7 fe  	bne	a4, a5, 0x1de62 <signal+0x54>
   1de6c: c1 b7        	j	0x1de2c <signal+0x1e>
   1de6e: 42 64        	ld	s0, 0x10(sp)
   1de70: a2 64        	ld	s1, 0x8(sp)
   1de72: 7d 55        	li	a0, -0x1
   1de74: d9 b7        	j	0x1de3a <signal+0x2c>

000000000001de76 <_init_signal>:
   1de76: 41 11        	addi	sp, sp, -0x10
   1de78: 22 e0        	sd	s0, 0x0(sp)
   1de7a: 03 b4 01 23  	ld	s0, 0x230(gp)
   1de7e: 06 e4        	sd	ra, 0x8(sp)
   1de80: 83 37 04 15  	ld	a5, 0x150(s0)
   1de84: 91 c7        	beqz	a5, 0x1de90 <_init_signal+0x1a>
   1de86: 01 45        	li	a0, 0x0
   1de88: a2 60        	ld	ra, 0x8(sp)
   1de8a: 02 64        	ld	s0, 0x0(sp)
   1de8c: 41 01        	addi	sp, sp, 0x10
   1de8e: 82 80        	ret
   1de90: 93 05 00 10  	li	a1, 0x100
   1de94: 22 85        	mv	a0, s0
   1de96: ef 50 3f fd  	jal	0x13e68 <_malloc_r>
   1de9a: 23 38 a4 14  	sd	a0, 0x150(s0)
   1de9e: 09 c9        	beqz	a0, 0x1deb0 <_init_signal+0x3a>
   1dea0: 93 07 05 10  	addi	a5, a0, 0x100
   1dea4: 23 30 05 00  	sd	zero, 0x0(a0)
   1dea8: 21 05        	addi	a0, a0, 0x8
   1deaa: e3 1d f5 fe  	bne	a0, a5, 0x1dea4 <_init_signal+0x2e>
   1deae: e1 bf        	j	0x1de86 <_init_signal+0x10>
   1deb0: 7d 55        	li	a0, -0x1
   1deb2: d9 bf        	j	0x1de88 <_init_signal+0x12>

000000000001deb4 <__sigtramp>:
   1deb4: 01 11        	addi	sp, sp, -0x20
   1deb6: 26 e4        	sd	s1, 0x8(sp)
   1deb8: 06 ec        	sd	ra, 0x18(sp)
   1deba: fd 47        	li	a5, 0x1f
   1debc: 83 b4 01 23  	ld	s1, 0x230(gp)
   1dec0: 63 ee a7 06  	bltu	a5, a0, 0x1df3c <__sigtramp+0x88>
   1dec4: 83 b7 04 15  	ld	a5, 0x150(s1)
   1dec8: 22 e8        	sd	s0, 0x10(sp)
   1deca: 2a 84        	mv	s0, a0
   1decc: a9 c7        	beqz	a5, 0x1df16 <__sigtramp+0x62>
   1dece: 13 17 34 00  	slli	a4, s0, 0x3
   1ded2: ba 97        	add	a5, a5, a4
   1ded4: 98 63        	ld	a4, 0x0(a5)
   1ded6: 0d c3        	beqz	a4, 0x1def8 <__sigtramp+0x44>
   1ded8: fd 56        	li	a3, -0x1
   1deda: 63 0b d7 02  	beq	a4, a3, 0x1df10 <__sigtramp+0x5c>
   1dede: 85 46        	li	a3, 0x1
   1dee0: 63 02 d7 02  	beq	a4, a3, 0x1df04 <__sigtramp+0x50>
   1dee4: 22 85        	mv	a0, s0
   1dee6: 23 b0 07 00  	sd	zero, 0x0(a5)
   1deea: 02 97        	jalr	a4
   1deec: 42 64        	ld	s0, 0x10(sp)
   1deee: 01 45        	li	a0, 0x0
   1def0: e2 60        	ld	ra, 0x18(sp)
   1def2: a2 64        	ld	s1, 0x8(sp)
   1def4: 05 61        	addi	sp, sp, 0x20
   1def6: 82 80        	ret
   1def8: 42 64        	ld	s0, 0x10(sp)
   1defa: e2 60        	ld	ra, 0x18(sp)
   1defc: a2 64        	ld	s1, 0x8(sp)
   1defe: 05 45        	li	a0, 0x1
   1df00: 05 61        	addi	sp, sp, 0x20
   1df02: 82 80        	ret
   1df04: 42 64        	ld	s0, 0x10(sp)
   1df06: e2 60        	ld	ra, 0x18(sp)
   1df08: a2 64        	ld	s1, 0x8(sp)
   1df0a: 0d 45        	li	a0, 0x3
   1df0c: 05 61        	addi	sp, sp, 0x20
   1df0e: 82 80        	ret
   1df10: 42 64        	ld	s0, 0x10(sp)
   1df12: 09 45        	li	a0, 0x2
   1df14: f1 bf        	j	0x1def0 <__sigtramp+0x3c>
   1df16: 93 05 00 10  	li	a1, 0x100
   1df1a: 26 85        	mv	a0, s1
   1df1c: ef 50 df f4  	jal	0x13e68 <_malloc_r>
   1df20: 23 b8 a4 14  	sd	a0, 0x150(s1)
   1df24: aa 87        	mv	a5, a0
   1df26: 11 c9        	beqz	a0, 0x1df3a <__sigtramp+0x86>
   1df28: 2a 87        	mv	a4, a0
   1df2a: 93 06 05 10  	addi	a3, a0, 0x100
   1df2e: 23 30 07 00  	sd	zero, 0x0(a4)
   1df32: 21 07        	addi	a4, a4, 0x8
   1df34: e3 9d e6 fe  	bne	a3, a4, 0x1df2e <__sigtramp+0x7a>
   1df38: 59 bf        	j	0x1dece <__sigtramp+0x1a>
   1df3a: 42 64        	ld	s0, 0x10(sp)
   1df3c: 7d 55        	li	a0, -0x1
   1df3e: 4d bf        	j	0x1def0 <__sigtramp+0x3c>

000000000001df40 <_kill_r>:
   1df40: 01 11        	addi	sp, sp, -0x20
   1df42: 2e 87        	mv	a4, a1
   1df44: 22 e8        	sd	s0, 0x10(sp)
   1df46: 26 e4        	sd	s1, 0x8(sp)
   1df48: 2a 84        	mv	s0, a0
   1df4a: b2 85        	mv	a1, a2
   1df4c: 3a 85        	mv	a0, a4
   1df4e: 06 ec        	sd	ra, 0x18(sp)
   1df50: 23 a0 01 26  	sw	zero, 0x260(gp)
   1df54: ef 00 00 0e  	jal	0x1e034 <_kill>
   1df58: fd 57        	li	a5, -0x1
   1df5a: 63 07 f5 00  	beq	a0, a5, 0x1df68 <_kill_r+0x28>
   1df5e: e2 60        	ld	ra, 0x18(sp)
   1df60: 42 64        	ld	s0, 0x10(sp)
   1df62: a2 64        	ld	s1, 0x8(sp)
   1df64: 05 61        	addi	sp, sp, 0x20
   1df66: 82 80        	ret
   1df68: 83 a7 01 26  	lw	a5, 0x260(gp)
   1df6c: ed db        	beqz	a5, 0x1df5e <_kill_r+0x1e>
   1df6e: e2 60        	ld	ra, 0x18(sp)
   1df70: 1c c0        	sw	a5, 0x0(s0)
   1df72: 42 64        	ld	s0, 0x10(sp)
   1df74: a2 64        	ld	s1, 0x8(sp)
   1df76: 05 61        	addi	sp, sp, 0x20
   1df78: 82 80        	ret

000000000001df7a <_getpid_r>:
   1df7a: 41 a8        	j	0x1e00a <_getpid>

000000000001df7c <_close>:
   1df7c: 41 11        	addi	sp, sp, -0x10
   1df7e: 06 e4        	sd	ra, 0x8(sp)
   1df80: 22 e0        	sd	s0, 0x0(sp)
   1df82: 93 08 90 03  	li	a7, 0x39
   1df86: 73 00 00 00  	ecall
   1df8a: 2a 84        	mv	s0, a0
   1df8c: 63 47 05 00  	bltz	a0, 0x1df9a <_close+0x1e>
   1df90: 01 25        	sext.w	a0, a0
   1df92: a2 60        	ld	ra, 0x8(sp)
   1df94: 02 64        	ld	s0, 0x0(sp)
   1df96: 41 01        	addi	sp, sp, 0x10
   1df98: 82 80        	ret
   1df9a: ef 80 1f d4  	jal	0x16cda <__errno>
   1df9e: 3b 04 80 40  	negw	s0, s0
   1dfa2: 00 c1        	sw	s0, 0x0(a0)
   1dfa4: 7d 55        	li	a0, -0x1
   1dfa6: f5 b7        	j	0x1df92 <_close+0x16>

000000000001dfa8 <_exit>:
   1dfa8: 93 08 d0 05  	li	a7, 0x5d
   1dfac: 73 00 00 00  	ecall
   1dfb0: 63 43 05 00  	bltz	a0, 0x1dfb6 <_exit+0xe>
   1dfb4: 01 a0        	j	0x1dfb4 <_exit+0xc>
   1dfb6: 41 11        	addi	sp, sp, -0x10
   1dfb8: 22 e0        	sd	s0, 0x0(sp)
   1dfba: 2a 84        	mv	s0, a0
   1dfbc: 06 e4        	sd	ra, 0x8(sp)
   1dfbe: 3b 04 80 40  	negw	s0, s0
   1dfc2: ef 80 9f d1  	jal	0x16cda <__errno>
   1dfc6: 00 c1        	sw	s0, 0x0(a0)
   1dfc8: 01 a0        	j	0x1dfc8 <_exit+0x20>

000000000001dfca <_fstat>:
   1dfca: 35 71        	addi	sp, sp, -0xa0
   1dfcc: 26 e5        	sd	s1, 0x88(sp)
   1dfce: 06 ed        	sd	ra, 0x98(sp)
   1dfd0: ae 84        	mv	s1, a1
   1dfd2: 22 e9        	sd	s0, 0x90(sp)
   1dfd4: 93 08 00 05  	li	a7, 0x50
   1dfd8: 8a 85        	mv	a1, sp
   1dfda: 73 00 00 00  	ecall
   1dfde: 2a 84        	mv	s0, a0
   1dfe0: 63 4e 05 00  	bltz	a0, 0x1dffc <_fstat+0x32>
   1dfe4: 1b 04 05 00  	sext.w	s0, a0
   1dfe8: 26 85        	mv	a0, s1
   1dfea: 8a 85        	mv	a1, sp
   1dfec: ef 00 00 16  	jal	0x1e14c <_conv_stat>
   1dff0: ea 60        	ld	ra, 0x98(sp)
   1dff2: 22 85        	mv	a0, s0
   1dff4: 4a 64        	ld	s0, 0x90(sp)
   1dff6: aa 64        	ld	s1, 0x88(sp)
   1dff8: 0d 61        	addi	sp, sp, 0xa0
   1dffa: 82 80        	ret
   1dffc: 3b 04 80 40  	negw	s0, s0
   1e000: ef 80 bf cd  	jal	0x16cda <__errno>
   1e004: 00 c1        	sw	s0, 0x0(a0)
   1e006: 7d 54        	li	s0, -0x1
   1e008: c5 b7        	j	0x1dfe8 <_fstat+0x1e>

000000000001e00a <_getpid>:
   1e00a: 05 45        	li	a0, 0x1
   1e00c: 82 80        	ret

000000000001e00e <_isatty>:
   1e00e: 19 71        	addi	sp, sp, -0x80
   1e010: 2c 00        	addi	a1, sp, 0x8
   1e012: 86 fc        	sd	ra, 0x78(sp)
   1e014: ef f0 7f fb  	jal	0x1dfca <_fstat>
   1e018: fd 57        	li	a5, -0x1
   1e01a: 63 09 f5 00  	beq	a0, a5, 0x1e02c <_isatty+0x1e>
   1e01e: 32 45        	lw	a0, 0xc(sp)
   1e020: e6 70        	ld	ra, 0x78(sp)
   1e022: 1b 55 d5 40  	sraiw	a0, a0, 0xd
   1e026: 05 89        	andi	a0, a0, 0x1
   1e028: 09 61        	addi	sp, sp, 0x80
   1e02a: 82 80        	ret
   1e02c: e6 70        	ld	ra, 0x78(sp)
   1e02e: 01 45        	li	a0, 0x0
   1e030: 09 61        	addi	sp, sp, 0x80
   1e032: 82 80        	ret

000000000001e034 <_kill>:
   1e034: 41 11        	addi	sp, sp, -0x10
   1e036: 06 e4        	sd	ra, 0x8(sp)
   1e038: ef 80 3f ca  	jal	0x16cda <__errno>
   1e03c: a2 60        	ld	ra, 0x8(sp)
   1e03e: d9 47        	li	a5, 0x16
   1e040: 1c c1        	sw	a5, 0x0(a0)
   1e042: 7d 55        	li	a0, -0x1
   1e044: 41 01        	addi	sp, sp, 0x10
   1e046: 82 80        	ret

000000000001e048 <_lseek>:
   1e048: 41 11        	addi	sp, sp, -0x10
   1e04a: 06 e4        	sd	ra, 0x8(sp)
   1e04c: 22 e0        	sd	s0, 0x0(sp)
   1e04e: 93 08 e0 03  	li	a7, 0x3e
   1e052: 73 00 00 00  	ecall
   1e056: 2a 84        	mv	s0, a0
   1e058: 63 47 05 00  	bltz	a0, 0x1e066 <_lseek+0x1e>
   1e05c: a2 60        	ld	ra, 0x8(sp)
   1e05e: 22 85        	mv	a0, s0
   1e060: 02 64        	ld	s0, 0x0(sp)
   1e062: 41 01        	addi	sp, sp, 0x10
   1e064: 82 80        	ret
   1e066: 3b 04 80 40  	negw	s0, s0
   1e06a: ef 80 1f c7  	jal	0x16cda <__errno>
   1e06e: 00 c1        	sw	s0, 0x0(a0)
   1e070: 7d 54        	li	s0, -0x1
   1e072: ed b7        	j	0x1e05c <_lseek+0x14>

000000000001e074 <_open>:
   1e074: 41 11        	addi	sp, sp, -0x10
   1e076: 06 e4        	sd	ra, 0x8(sp)
   1e078: 22 e0        	sd	s0, 0x0(sp)
   1e07a: 93 08 00 40  	li	a7, 0x400
   1e07e: 73 00 00 00  	ecall
   1e082: 2a 84        	mv	s0, a0
   1e084: 63 47 05 00  	bltz	a0, 0x1e092 <_open+0x1e>
   1e088: 01 25        	sext.w	a0, a0
   1e08a: a2 60        	ld	ra, 0x8(sp)
   1e08c: 02 64        	ld	s0, 0x0(sp)
   1e08e: 41 01        	addi	sp, sp, 0x10
   1e090: 82 80        	ret
   1e092: ef 80 9f c4  	jal	0x16cda <__errno>
   1e096: 3b 04 80 40  	negw	s0, s0
   1e09a: 00 c1        	sw	s0, 0x0(a0)
   1e09c: 7d 55        	li	a0, -0x1
   1e09e: f5 b7        	j	0x1e08a <_open+0x16>

000000000001e0a0 <_read>:
   1e0a0: 41 11        	addi	sp, sp, -0x10
   1e0a2: 06 e4        	sd	ra, 0x8(sp)
   1e0a4: 22 e0        	sd	s0, 0x0(sp)
   1e0a6: 93 08 f0 03  	li	a7, 0x3f
   1e0aa: 73 00 00 00  	ecall
   1e0ae: 2a 84        	mv	s0, a0
   1e0b0: 63 47 05 00  	bltz	a0, 0x1e0be <_read+0x1e>
   1e0b4: a2 60        	ld	ra, 0x8(sp)
   1e0b6: 22 85        	mv	a0, s0
   1e0b8: 02 64        	ld	s0, 0x0(sp)
   1e0ba: 41 01        	addi	sp, sp, 0x10
   1e0bc: 82 80        	ret
   1e0be: 3b 04 80 40  	negw	s0, s0
   1e0c2: ef 80 9f c1  	jal	0x16cda <__errno>
   1e0c6: 00 c1        	sw	s0, 0x0(a0)
   1e0c8: 7d 54        	li	s0, -0x1
   1e0ca: ed b7        	j	0x1e0b4 <_read+0x14>

000000000001e0cc <_sbrk>:
   1e0cc: 03 b7 01 27  	ld	a4, 0x270(gp)
   1e0d0: 41 11        	addi	sp, sp, -0x10
   1e0d2: 06 e4        	sd	ra, 0x8(sp)
   1e0d4: aa 87        	mv	a5, a0
   1e0d6: 01 ef        	bnez	a4, 0x1e0ee <_sbrk+0x22>
   1e0d8: 93 08 60 0d  	li	a7, 0xd6
   1e0dc: 01 45        	li	a0, 0x0
   1e0de: 73 00 00 00  	ecall
   1e0e2: 7d 56        	li	a2, -0x1
   1e0e4: 2a 87        	mv	a4, a0
   1e0e6: 63 05 c5 02  	beq	a0, a2, 0x1e110 <_sbrk+0x44>
   1e0ea: 23 b8 a1 26  	sd	a0, 0x270(gp)
   1e0ee: 93 08 60 0d  	li	a7, 0xd6
   1e0f2: 33 85 e7 00  	add	a0, a5, a4
   1e0f6: 73 00 00 00  	ecall
   1e0fa: 03 b7 01 27  	ld	a4, 0x270(gp)
   1e0fe: ba 97        	add	a5, a5, a4
   1e100: 63 18 f5 00  	bne	a0, a5, 0x1e110 <_sbrk+0x44>
   1e104: a2 60        	ld	ra, 0x8(sp)
   1e106: 23 b8 a1 26  	sd	a0, 0x270(gp)
   1e10a: 3a 85        	mv	a0, a4
   1e10c: 41 01        	addi	sp, sp, 0x10
   1e10e: 82 80        	ret
   1e110: ef 80 bf bc  	jal	0x16cda <__errno>
   1e114: a2 60        	ld	ra, 0x8(sp)
   1e116: b1 47        	li	a5, 0xc
   1e118: 1c c1        	sw	a5, 0x0(a0)
   1e11a: 7d 55        	li	a0, -0x1
   1e11c: 41 01        	addi	sp, sp, 0x10
   1e11e: 82 80        	ret

000000000001e120 <_write>:
   1e120: 41 11        	addi	sp, sp, -0x10
   1e122: 06 e4        	sd	ra, 0x8(sp)
   1e124: 22 e0        	sd	s0, 0x0(sp)
   1e126: 93 08 00 04  	li	a7, 0x40
   1e12a: 73 00 00 00  	ecall
   1e12e: 2a 84        	mv	s0, a0
   1e130: 63 47 05 00  	bltz	a0, 0x1e13e <_write+0x1e>
   1e134: a2 60        	ld	ra, 0x8(sp)
   1e136: 22 85        	mv	a0, s0
   1e138: 02 64        	ld	s0, 0x0(sp)
   1e13a: 41 01        	addi	sp, sp, 0x10
   1e13c: 82 80        	ret
   1e13e: 3b 04 80 40  	negw	s0, s0
   1e142: ef 80 9f b9  	jal	0x16cda <__errno>
   1e146: 00 c1        	sw	s0, 0x0(a0)
   1e148: 7d 54        	li	s0, -0x1
   1e14a: ed b7        	j	0x1e134 <_write+0x14>

000000000001e14c <_conv_stat>:
   1e14c: 03 d7 85 01  	lhu	a4, 0x18(a1)
   1e150: 83 d7 45 01  	lhu	a5, 0x14(a1)
   1e154: d0 4d        	lw	a2, 0x1c(a1)
   1e156: 94 71        	ld	a3, 0x20(a1)
   1e158: 03 b3 05 00  	ld	t1, 0x0(a1)
   1e15c: 83 b8 85 00  	ld	a7, 0x8(a1)
   1e160: 03 a8 05 01  	lw	a6, 0x10(a1)
   1e164: 1b 17 07 01  	slliw	a4, a4, 0x10
   1e168: d9 8f        	or	a5, a5, a4
   1e16a: 23 16 c5 00  	sh	a2, 0xc(a0)
   1e16e: 23 17 d5 00  	sh	a3, 0xe(a0)
   1e172: 23 10 65 00  	sh	t1, 0x0(a0)
   1e176: 23 11 15 01  	sh	a7, 0x2(a0)
   1e17a: 23 22 05 01  	sw	a6, 0x4(a0)
   1e17e: 1c c5        	sw	a5, 0x8(a0)
   1e180: 98 79        	ld	a4, 0x30(a1)
   1e182: bc 65        	ld	a5, 0x48(a1)
   1e184: b0 61        	ld	a2, 0x40(a1)
   1e186: 94 5d        	lw	a3, 0x38(a1)
   1e188: 18 e9        	sd	a4, 0x10(a0)
   1e18a: 1c ed        	sd	a5, 0x18(a0)
   1e18c: b8 6d        	ld	a4, 0x58(a1)
   1e18e: bc 75        	ld	a5, 0x68(a1)
   1e190: 30 e9        	sd	a2, 0x50(a0)
   1e192: 34 e5        	sd	a3, 0x48(a0)
   1e194: 18 f5        	sd	a4, 0x28(a0)
   1e196: 1c fd        	sd	a5, 0x38(a0)
   1e198: 82 80        	ret

000000000001e19a <__netf2>:
   1e19a: 2a 88        	mv	a6, a0
   1e19c: f3 27 20 00  	frrm	a5
   1e1a0: 21 65        	lui	a0, 0x8
   1e1a2: 13 d7 05 03  	srli	a4, a1, 0x30
   1e1a6: 7d 15        	addi	a0, a0, -0x1
   1e1a8: 7d 5e        	li	t3, -0x1
   1e1aa: 93 58 0e 01  	srli	a7, t3, 0x10
   1e1ae: 13 d3 06 03  	srli	t1, a3, 0x30
   1e1b2: 69 8f        	and	a4, a4, a0
   1e1b4: b3 f7 15 01  	and	a5, a1, a7
   1e1b8: 33 73 a3 00  	and	t1, t1, a0
   1e1bc: b3 f8 16 01  	and	a7, a3, a7
   1e1c0: fd 91        	srli	a1, a1, 0x3f
   1e1c2: fd 92        	srli	a3, a3, 0x3f
   1e1c4: 63 18 a7 00  	bne	a4, a0, 0x1e1d4 <__netf2+0x3a>
   1e1c8: 33 e5 07 01  	or	a0, a5, a6
   1e1cc: 05 e9        	bnez	a0, 0x1e1fc <__netf2+0x62>
   1e1ce: 63 16 e3 04  	bne	t1, a4, 0x1e21a <__netf2+0x80>
   1e1d2: 19 a0        	j	0x1e1d8 <__netf2+0x3e>
   1e1d4: 63 15 a3 04  	bne	t1, a0, 0x1e21e <__netf2+0x84>
   1e1d8: 33 e5 c8 00  	or	a0, a7, a2
   1e1dc: 29 c1        	beqz	a0, 0x1e21e <__netf2+0x84>
   1e1de: a1 66        	lui	a3, 0x8
   1e1e0: fd 16        	addi	a3, a3, -0x1
   1e1e2: 63 18 d7 02  	bne	a4, a3, 0x1e212 <__netf2+0x78>
   1e1e6: 33 e8 07 01  	or	a6, a5, a6
   1e1ea: 63 00 08 02  	beqz	a6, 0x1e20a <__netf2+0x70>
   1e1ee: 7d 57        	li	a4, -0x1
   1e1f0: 45 83        	srli	a4, a4, 0x11
   1e1f2: 63 6c f7 00  	bltu	a4, a5, 0x1e20a <__netf2+0x70>
   1e1f6: 73 60 18 00  	csrsi	fflags, 0x10
   1e1fa: 05 a0        	j	0x1e21a <__netf2+0x80>
   1e1fc: 13 5e 1e 01  	srli	t3, t3, 0x11
   1e200: e3 7b fe fe  	bgeu	t3, a5, 0x1e1f6 <__netf2+0x5c>
   1e204: 05 45        	li	a0, 0x1
   1e206: 63 1d e3 02  	bne	t1, a4, 0x1e240 <__netf2+0xa6>
   1e20a: 33 e6 c8 00  	or	a2, a7, a2
   1e20e: 05 45        	li	a0, 0x1
   1e210: 05 ca        	beqz	a2, 0x1e240 <__netf2+0xa6>
   1e212: fd 57        	li	a5, -0x1
   1e214: c5 83        	srli	a5, a5, 0x11
   1e216: e3 f0 17 ff  	bgeu	a5, a7, 0x1e1f6 <__netf2+0x5c>
   1e21a: 05 45        	li	a0, 0x1
   1e21c: 82 80        	ret
   1e21e: 05 45        	li	a0, 0x1
   1e220: 63 10 67 02  	bne	a4, t1, 0x1e240 <__netf2+0xa6>
   1e224: 63 9e 17 01  	bne	a5, a7, 0x1e240 <__netf2+0xa6>
   1e228: 63 1c c8 00  	bne	a6, a2, 0x1e240 <__netf2+0xa6>
   1e22c: 63 88 d5 00  	beq	a1, a3, 0x1e23c <__netf2+0xa2>
   1e230: 01 eb        	bnez	a4, 0x1e240 <__netf2+0xa6>
   1e232: b3 e7 07 01  	or	a5, a5, a6
   1e236: 33 35 f0 00  	snez	a0, a5
   1e23a: 82 80        	ret
   1e23c: 01 45        	li	a0, 0x0
   1e23e: 82 80        	ret
   1e240: 82 80        	ret

000000000001e242 <__gttf2>:
   1e242: aa 88        	mv	a7, a0
   1e244: f3 27 20 00  	frrm	a5
   1e248: 21 63        	lui	t1, 0x8
   1e24a: 13 d8 05 03  	srli	a6, a1, 0x30
   1e24e: 7d 13        	addi	t1, t1, -0x1
   1e250: 7d 57        	li	a4, -0x1
   1e252: 41 83        	srli	a4, a4, 0x10
   1e254: 93 d7 06 03  	srli	a5, a3, 0x30
   1e258: 33 78 68 00  	and	a6, a6, t1
   1e25c: 33 fe e5 00  	and	t3, a1, a4
   1e260: 33 f5 67 00  	and	a0, a5, t1
   1e264: 75 8f        	and	a4, a4, a3
   1e266: fd 91        	srli	a1, a1, 0x3f
   1e268: fd 92        	srli	a3, a3, 0x3f
   1e26a: 63 15 68 00  	bne	a6, t1, 0x1e274 <__gttf2+0x32>
   1e26e: b3 67 1e 01  	or	a5, t3, a7
   1e272: b1 eb        	bnez	a5, 0x1e2c6 <__gttf2+0x84>
   1e274: 63 15 65 00  	bne	a0, t1, 0x1e27e <__gttf2+0x3c>
   1e278: b3 67 c7 00  	or	a5, a4, a2
   1e27c: a9 e7        	bnez	a5, 0x1e2c6 <__gttf2+0x84>
   1e27e: 81 47        	li	a5, 0x0
   1e280: 63 16 08 00  	bnez	a6, 0x1e28c <__gttf2+0x4a>
   1e284: b3 67 1e 01  	or	a5, t3, a7
   1e288: 93 b7 17 00  	seqz	a5, a5
   1e28c: 29 e1        	bnez	a0, 0x1e2ce <__gttf2+0x8c>
   1e28e: 33 63 c7 00  	or	t1, a4, a2
   1e292: 99 c7        	beqz	a5, 0x1e2a0 <__gttf2+0x5e>
   1e294: 63 0a 03 00  	beqz	t1, 0x1e2a8 <__gttf2+0x66>
   1e298: 05 45        	li	a0, 0x1
   1e29a: 99 e6        	bnez	a3, 0x1e2a8 <__gttf2+0x66>
   1e29c: 7d 55        	li	a0, -0x1
   1e29e: 82 80        	ret
   1e2a0: 63 18 03 02  	bnez	t1, 0x1e2d0 <__gttf2+0x8e>
   1e2a4: 7d 55        	li	a0, -0x1
   1e2a6: 9d c9        	beqz	a1, 0x1e2dc <__gttf2+0x9a>
   1e2a8: 82 80        	ret
   1e2aa: e3 47 a8 fe  	blt	a6, a0, 0x1e298 <__gttf2+0x56>
   1e2ae: e3 6b c7 ff  	bltu	a4, t3, 0x1e2a4 <__gttf2+0x62>
   1e2b2: 63 17 ee 00  	bne	t3, a4, 0x1e2c0 <__gttf2+0x7e>
   1e2b6: e3 67 16 ff  	bltu	a2, a7, 0x1e2a4 <__gttf2+0x62>
   1e2ba: 01 45        	li	a0, 0x0
   1e2bc: e3 f6 c8 fe  	bgeu	a7, a2, 0x1e2a8 <__gttf2+0x66>
   1e2c0: 05 45        	li	a0, 0x1
   1e2c2: fd f1        	bnez	a1, 0x1e2a8 <__gttf2+0x66>
   1e2c4: e1 bf        	j	0x1e29c <__gttf2+0x5a>
   1e2c6: 73 60 18 00  	csrsi	fflags, 0x10
   1e2ca: 79 55        	li	a0, -0x2
   1e2cc: 82 80        	ret
   1e2ce: e9 f7        	bnez	a5, 0x1e298 <__gttf2+0x56>
   1e2d0: e3 9a b6 fc  	bne	a3, a1, 0x1e2a4 <__gttf2+0x62>
   1e2d4: e3 5b 05 fd  	bge	a0, a6, 0x1e2aa <__gttf2+0x68>
   1e2d8: 7d 55        	li	a0, -0x1
   1e2da: f9 f6        	bnez	a3, 0x1e2a8 <__gttf2+0x66>
   1e2dc: 05 45        	li	a0, 0x1
   1e2de: 82 80        	ret

000000000001e2e0 <__lttf2>:
   1e2e0: aa 88        	mv	a7, a0
   1e2e2: f3 27 20 00  	frrm	a5
   1e2e6: 21 63        	lui	t1, 0x8
   1e2e8: 13 d8 05 03  	srli	a6, a1, 0x30
   1e2ec: 7d 13        	addi	t1, t1, -0x1
   1e2ee: 7d 57        	li	a4, -0x1
   1e2f0: 41 83        	srli	a4, a4, 0x10
   1e2f2: 93 d7 06 03  	srli	a5, a3, 0x30
   1e2f6: 33 78 68 00  	and	a6, a6, t1
   1e2fa: 33 fe e5 00  	and	t3, a1, a4
   1e2fe: 33 f5 67 00  	and	a0, a5, t1
   1e302: 75 8f        	and	a4, a4, a3
   1e304: fd 91        	srli	a1, a1, 0x3f
   1e306: fd 92        	srli	a3, a3, 0x3f
   1e308: 63 15 68 00  	bne	a6, t1, 0x1e312 <__lttf2+0x32>
   1e30c: b3 67 1e 01  	or	a5, t3, a7
   1e310: b1 eb        	bnez	a5, 0x1e364 <__lttf2+0x84>
   1e312: 63 15 65 00  	bne	a0, t1, 0x1e31c <__lttf2+0x3c>
   1e316: b3 67 c7 00  	or	a5, a4, a2
   1e31a: a9 e7        	bnez	a5, 0x1e364 <__lttf2+0x84>
   1e31c: 81 47        	li	a5, 0x0
   1e31e: 63 16 08 00  	bnez	a6, 0x1e32a <__lttf2+0x4a>
   1e322: b3 67 1e 01  	or	a5, t3, a7
   1e326: 93 b7 17 00  	seqz	a5, a5
   1e32a: 29 e1        	bnez	a0, 0x1e36c <__lttf2+0x8c>
   1e32c: 33 63 c7 00  	or	t1, a4, a2
   1e330: 99 c7        	beqz	a5, 0x1e33e <__lttf2+0x5e>
   1e332: 63 0a 03 00  	beqz	t1, 0x1e346 <__lttf2+0x66>
   1e336: 05 45        	li	a0, 0x1
   1e338: 99 e6        	bnez	a3, 0x1e346 <__lttf2+0x66>
   1e33a: 7d 55        	li	a0, -0x1
   1e33c: 82 80        	ret
   1e33e: 63 18 03 02  	bnez	t1, 0x1e36e <__lttf2+0x8e>
   1e342: 7d 55        	li	a0, -0x1
   1e344: 9d c9        	beqz	a1, 0x1e37a <__lttf2+0x9a>
   1e346: 82 80        	ret
   1e348: e3 47 a8 fe  	blt	a6, a0, 0x1e336 <__lttf2+0x56>
   1e34c: e3 6b c7 ff  	bltu	a4, t3, 0x1e342 <__lttf2+0x62>
   1e350: 63 17 ee 00  	bne	t3, a4, 0x1e35e <__lttf2+0x7e>
   1e354: e3 67 16 ff  	bltu	a2, a7, 0x1e342 <__lttf2+0x62>
   1e358: 01 45        	li	a0, 0x0
   1e35a: e3 f6 c8 fe  	bgeu	a7, a2, 0x1e346 <__lttf2+0x66>
   1e35e: 05 45        	li	a0, 0x1
   1e360: fd f1        	bnez	a1, 0x1e346 <__lttf2+0x66>
   1e362: e1 bf        	j	0x1e33a <__lttf2+0x5a>
   1e364: 73 60 18 00  	csrsi	fflags, 0x10
   1e368: 09 45        	li	a0, 0x2
   1e36a: 82 80        	ret
   1e36c: e9 f7        	bnez	a5, 0x1e336 <__lttf2+0x56>
   1e36e: e3 9a b6 fc  	bne	a3, a1, 0x1e342 <__lttf2+0x62>
   1e372: e3 5b 05 fd  	bge	a0, a6, 0x1e348 <__lttf2+0x68>
   1e376: 7d 55        	li	a0, -0x1
   1e378: f9 f6        	bnez	a3, 0x1e346 <__lttf2+0x66>
   1e37a: 05 45        	li	a0, 0x1
   1e37c: 82 80        	ret

000000000001e37e <__multf3>:
   1e37e: 1d 71        	addi	sp, sp, -0x60
   1e380: a2 e8        	sd	s0, 0x50(sp)
   1e382: 56 f4        	sd	s5, 0x28(sp)
   1e384: 62 e8        	sd	s8, 0x10(sp)
   1e386: 86 ec        	sd	ra, 0x58(sp)
   1e388: a6 e4        	sd	s1, 0x48(sp)
   1e38a: ca e0        	sd	s2, 0x40(sp)
   1e38c: 4e fc        	sd	s3, 0x38(sp)
   1e38e: 52 f8        	sd	s4, 0x30(sp)
   1e390: 5a f0        	sd	s6, 0x20(sp)
   1e392: 5e ec        	sd	s7, 0x18(sp)
   1e394: 66 e4        	sd	s9, 0x8(sp)
   1e396: 2a 84        	mv	s0, a0
   1e398: 32 8c        	mv	s8, a2
   1e39a: b6 8a        	mv	s5, a3
   1e39c: f3 29 20 00  	frrm	s3
   1e3a0: 21 67        	lui	a4, 0x8
   1e3a2: 93 d7 05 03  	srli	a5, a1, 0x30
   1e3a6: 7d 17        	addi	a4, a4, -0x1
   1e3a8: 93 94 05 01  	slli	s1, a1, 0x10
   1e3ac: f9 8f        	and	a5, a5, a4
   1e3ae: 81 29        	sext.w	s3, s3
   1e3b0: c1 80        	srli	s1, s1, 0x10
   1e3b2: 13 db f5 03  	srli	s6, a1, 0x3f
   1e3b6: 85 c7        	beqz	a5, 0x1e3de <__multf3+0x60>
   1e3b8: 1b 8a 07 00  	sext.w	s4, a5
   1e3bc: 63 8f e7 06  	beq	a5, a4, 0x1e43a <__multf3+0xbc>
   1e3c0: 8e 04        	slli	s1, s1, 0x3
   1e3c2: 13 57 d5 03  	srli	a4, a0, 0x3d
   1e3c6: 45 8f        	or	a4, a4, s1
   1e3c8: 71 7a        	lui	s4, 0xffffc
   1e3ca: 85 44        	li	s1, 0x1
   1e3cc: ce 14        	slli	s1, s1, 0x33
   1e3ce: 05 0a        	addi	s4, s4, 0x1
   1e3d0: d9 8c        	or	s1, s1, a4
   1e3d2: 93 1b 35 00  	slli	s7, a0, 0x3
   1e3d6: 3e 9a        	add	s4, s4, a5
   1e3d8: 81 4c        	li	s9, 0x0
   1e3da: 01 49        	li	s2, 0x0
   1e3dc: 95 a8        	j	0x1e450 <__multf3+0xd2>
   1e3de: b3 6b 95 00  	or	s7, a0, s1
   1e3e2: 63 82 0b 28  	beqz	s7, 0x1e666 <__multf3+0x2e8>
   1e3e6: 9d c8        	beqz	s1, 0x1e41c <__multf3+0x9e>
   1e3e8: 26 85        	mv	a0, s1
   1e3ea: ef 10 c0 04  	jal	0x1f436 <__clzdi2>
   1e3ee: 01 25        	sext.w	a0, a0
   1e3f0: 93 07 15 ff  	addi	a5, a0, -0xf
   1e3f4: 13 07 d0 03  	li	a4, 0x3d
   1e3f8: 9b 86 37 00  	addiw	a3, a5, 0x3
   1e3fc: bb 07 f7 40  	subw	a5, a4, a5
   1e400: b3 94 d4 00  	sll	s1, s1, a3
   1e404: b3 57 f4 00  	srl	a5, s0, a5
   1e408: c5 8f        	or	a5, a5, s1
   1e40a: b3 14 d4 00  	sll	s1, s0, a3
   1e40e: 71 7a        	lui	s4, 0xffffc
   1e410: 45 0a        	addi	s4, s4, 0x11
   1e412: a6 8b        	mv	s7, s1
   1e414: 33 0a aa 40  	sub	s4, s4, a0
   1e418: be 84        	mv	s1, a5
   1e41a: 7d bf        	j	0x1e3d8 <__multf3+0x5a>
   1e41c: ef 10 a0 01  	jal	0x1f436 <__clzdi2>
   1e420: 1b 05 05 04  	addiw	a0, a0, 0x40
   1e424: 93 07 15 ff  	addi	a5, a0, -0xf
   1e428: 13 07 c0 03  	li	a4, 0x3c
   1e42c: e3 54 f7 fc  	bge	a4, a5, 0x1e3f4 <__multf3+0x76>
   1e430: 9b 87 37 fc  	addiw	a5, a5, -0x3d
   1e434: b3 17 f4 00  	sll	a5, s0, a5
   1e438: d9 bf        	j	0x1e40e <__multf3+0x90>
   1e43a: b3 6b 95 00  	or	s7, a0, s1
   1e43e: 63 88 0b 22  	beqz	s7, 0x1e66e <__multf3+0x2f0>
   1e442: 05 49        	li	s2, 0x1
   1e444: 3e 19        	slli	s2, s2, 0x2f
   1e446: 33 b9 24 01  	sltu	s2, s1, s2
   1e44a: 12 09        	slli	s2, s2, 0x4
   1e44c: aa 8b        	mv	s7, a0
   1e44e: 8d 4c        	li	s9, 0x3
   1e450: 21 66        	lui	a2, 0x8
   1e452: 13 d7 0a 03  	srli	a4, s5, 0x30
   1e456: fd 56        	li	a3, -0x1
   1e458: 7d 16        	addi	a2, a2, -0x1
   1e45a: 13 d4 06 01  	srli	s0, a3, 0x10
   1e45e: 71 8f        	and	a4, a4, a2
   1e460: 33 f4 8a 00  	and	s0, s5, s0
   1e464: 62 85        	mv	a0, s8
   1e466: 93 da fa 03  	srli	s5, s5, 0x3f
   1e46a: 63 05 07 20  	beqz	a4, 0x1e674 <__multf3+0x2f6>
   1e46e: 9b 07 07 00  	sext.w	a5, a4
   1e472: 63 0e c7 24  	beq	a4, a2, 0x1e6ce <__multf3+0x350>
   1e476: 0e 04        	slli	s0, s0, 0x3
   1e478: 93 57 dc 03  	srli	a5, s8, 0x3d
   1e47c: c1 8f        	or	a5, a5, s0
   1e47e: 05 44        	li	s0, 0x1
   1e480: 4e 14        	slli	s0, s0, 0x33
   1e482: 5d 8c        	or	s0, s0, a5
   1e484: f1 77        	lui	a5, 0xffffc
   1e486: 85 07        	addi	a5, a5, 0x1
   1e488: 13 15 3c 00  	slli	a0, s8, 0x3
   1e48c: ba 97        	add	a5, a5, a4
   1e48e: 01 47        	li	a4, 0x0
   1e490: b3 86 47 01  	add	a3, a5, s4
   1e494: 93 97 2c 00  	slli	a5, s9, 0x2
   1e498: d9 8f        	or	a5, a5, a4
   1e49a: 29 46        	li	a2, 0xa
   1e49c: 93 88 16 00  	addi	a7, a3, 0x1
   1e4a0: 63 4f f6 2a  	blt	a2, a5, 0x1e75e <__multf3+0x3e0>
   1e4a4: 89 45        	li	a1, 0x2
   1e4a6: 33 46 5b 01  	xor	a2, s6, s5
   1e4aa: 63 c4 f5 24  	blt	a1, a5, 0x1e6f2 <__multf3+0x374>
   1e4ae: fd 17        	addi	a5, a5, -0x1
   1e4b0: 85 45        	li	a1, 0x1
   1e4b2: 63 ff f5 24  	bgeu	a1, a5, 0x1e710 <__multf3+0x392>
   1e4b6: fd 57        	li	a5, -0x1
   1e4b8: 81 93        	srli	a5, a5, 0x20
   1e4ba: 13 d7 0b 02  	srli	a4, s7, 0x20
   1e4be: 93 55 05 02  	srli	a1, a0, 0x20
   1e4c2: b3 8f 74 01  	add	t6, s1, s7
   1e4c6: 33 0f 85 00  	add	t5, a0, s0
   1e4ca: b3 fb fb 00  	and	s7, s7, a5
   1e4ce: e9 8f        	and	a5, a5, a0
   1e4d0: b3 3e af 00  	sltu	t4, t5, a0
   1e4d4: 33 85 77 03  	mul	a0, a5, s7
   1e4d8: 33 be 9f 00  	sltu	t3, t6, s1
   1e4dc: b3 07 f7 02  	mul	a5, a4, a5
   1e4e0: 13 58 05 02  	srli	a6, a0, 0x20
   1e4e4: 33 07 b7 02  	mul	a4, a4, a1
   1e4e8: b3 85 75 03  	mul	a1, a1, s7
   1e4ec: be 95        	add	a1, a1, a5
   1e4ee: 2e 98        	add	a6, a6, a1
   1e4f0: 63 75 f8 00  	bgeu	a6, a5, 0x1e4fa <__multf3+0x17c>
   1e4f4: 85 47        	li	a5, 0x1
   1e4f6: 82 17        	slli	a5, a5, 0x20
   1e4f8: 3e 97        	add	a4, a4, a5
   1e4fa: fd 57        	li	a5, -0x1
   1e4fc: 81 93        	srli	a5, a5, 0x20
   1e4fe: 13 53 08 02  	srli	t1, a6, 0x20
   1e502: 33 78 f8 00  	and	a6, a6, a5
   1e506: 7d 8d        	and	a0, a0, a5
   1e508: 02 18        	slli	a6, a6, 0x20
   1e50a: 93 d3 0f 02  	srli	t2, t6, 0x20
   1e50e: 3a 93        	add	t1, t1, a4
   1e510: 2a 98        	add	a6, a6, a0
   1e512: 13 57 0f 02  	srli	a4, t5, 0x20
   1e516: 33 f5 ff 00  	and	a0, t6, a5
   1e51a: b3 77 ff 00  	and	a5, t5, a5
   1e51e: b3 85 a7 02  	mul	a1, a5, a0
   1e522: b3 87 f3 02  	mul	a5, t2, a5
   1e526: 93 d2 05 02  	srli	t0, a1, 0x20
   1e52a: b3 83 e3 02  	mul	t2, t2, a4
   1e52e: 33 07 a7 02  	mul	a4, a4, a0
   1e532: 3e 97        	add	a4, a4, a5
   1e534: ba 92        	add	t0, t0, a4
   1e536: 63 f5 f2 00  	bgeu	t0, a5, 0x1e540 <__multf3+0x1c2>
   1e53a: 85 47        	li	a5, 0x1
   1e53c: 82 17        	slli	a5, a5, 0x20
   1e53e: be 93        	add	t2, t2, a5
   1e540: fd 57        	li	a5, -0x1
   1e542: 81 93        	srli	a5, a5, 0x20
   1e544: 13 d7 02 02  	srli	a4, t0, 0x20
   1e548: b3 f2 f2 00  	and	t0, t0, a5
   1e54c: fd 8d        	and	a1, a1, a5
   1e54e: 82 12        	slli	t0, t0, 0x20
   1e550: 13 55 04 02  	srli	a0, s0, 0x20
   1e554: ae 92        	add	t0, t0, a1
   1e556: 93 d5 04 02  	srli	a1, s1, 0x20
   1e55a: fd 8c        	and	s1, s1, a5
   1e55c: e1 8f        	and	a5, a5, s0
   1e55e: 33 8a f4 02  	mul	s4, s1, a5
   1e562: 33 84 a5 02  	mul	s0, a1, a0
   1e566: b3 87 f5 02  	mul	a5, a1, a5
   1e56a: 33 05 95 02  	mul	a0, a0, s1
   1e56e: b3 05 f5 00  	add	a1, a0, a5
   1e572: 13 55 0a 02  	srli	a0, s4, 0x20
   1e576: 2e 95        	add	a0, a0, a1
   1e578: 63 75 f5 00  	bgeu	a0, a5, 0x1e582 <__multf3+0x204>
   1e57c: 85 47        	li	a5, 0x1
   1e57e: 82 17        	slli	a5, a5, 0x20
   1e580: 3e 94        	add	s0, s0, a5
   1e582: 93 55 05 02  	srli	a1, a0, 0x20
   1e586: a2 95        	add	a1, a1, s0
   1e588: 7d 54        	li	s0, -0x1
   1e58a: 01 90        	srli	s0, s0, 0x20
   1e58c: b3 77 85 00  	and	a5, a0, s0
   1e590: 82 17        	slli	a5, a5, 0x20
   1e592: 33 7a 8a 00  	and	s4, s4, s0
   1e596: d2 97        	add	a5, a5, s4
   1e598: 01 45        	li	a0, 0x0
   1e59a: 63 83 0e 00  	beqz	t4, 0x1e5a0 <__multf3+0x222>
   1e59e: 7e 85        	mv	a0, t6
   1e5a0: 81 4f        	li	t6, 0x0
   1e5a2: 63 03 0e 00  	beqz	t3, 0x1e5a8 <__multf3+0x22a>
   1e5a6: fa 8f        	mv	t6, t5
   1e5a8: 33 84 62 00  	add	s0, t0, t1
   1e5ac: 33 3f 54 00  	sltu	t5, s0, t0
   1e5b0: 7a 97        	add	a4, a4, t5
   1e5b2: 1e 97        	add	a4, a4, t2
   1e5b4: 33 7e de 01  	and	t3, t3, t4
   1e5b8: 33 3f e7 01  	sltu	t5, a4, t5
   1e5bc: 3a 95        	add	a0, a0, a4
   1e5be: 72 9f        	add	t5, t5, t3
   1e5c0: 33 37 e5 00  	sltu	a4, a0, a4
   1e5c4: 7e 95        	add	a0, a0, t6
   1e5c6: 7a 97        	add	a4, a4, t5
   1e5c8: b3 3f f5 01  	sltu	t6, a0, t6
   1e5cc: 33 0e 04 41  	sub	t3, s0, a6
   1e5d0: b3 3e c4 01  	sltu	t4, s0, t3
   1e5d4: ba 9f        	add	t6, t6, a4
   1e5d6: 33 07 65 40  	sub	a4, a0, t1
   1e5da: 33 3f e5 00  	sltu	t5, a0, a4
   1e5de: 33 07 d7 41  	sub	a4, a4, t4
   1e5e2: 81 4e        	li	t4, 0x0
   1e5e4: 63 76 c4 01  	bgeu	s0, t3, 0x1e5f0 <__multf3+0x272>
   1e5e8: 33 03 a3 40  	sub	t1, t1, a0
   1e5ec: 93 3e 13 00  	seqz	t4, t1
   1e5f0: ae 9f        	add	t6, t6, a1
   1e5f2: 33 03 fe 40  	sub	t1, t3, a5
   1e5f6: b3 05 b7 40  	sub	a1, a4, a1
   1e5fa: 33 35 b7 00  	sltu	a0, a4, a1
   1e5fe: 33 37 6e 00  	sltu	a4, t3, t1
   1e602: 33 ef ee 01  	or	t5, t4, t5
   1e606: 33 87 e7 40  	sub	a4, a5, a4
   1e60a: 81 4e        	li	t4, 0x0
   1e60c: 63 74 6e 00  	bgeu	t3, t1, 0x1e614 <__multf3+0x296>
   1e610: 93 be 15 00  	seqz	t4, a1
   1e614: ba 95        	add	a1, a1, a4
   1e616: 33 b7 f5 00  	sltu	a4, a1, a5
   1e61a: 7e 97        	add	a4, a4, t6
   1e61c: b3 ee ae 00  	or	t4, t4, a0
   1e620: 33 07 e7 41  	sub	a4, a4, t5
   1e624: 13 15 d3 00  	slli	a0, t1, 0xd
   1e628: 33 07 d7 41  	sub	a4, a4, t4
   1e62c: 33 65 05 01  	or	a0, a0, a6
   1e630: 36 07        	slli	a4, a4, 0xd
   1e632: 33 35 a0 00  	snez	a0, a0
   1e636: 13 53 33 03  	srli	t1, t1, 0x33
   1e63a: 13 d4 35 03  	srli	s0, a1, 0x33
   1e63e: 33 65 65 00  	or	a0, a0, t1
   1e642: b6 05        	slli	a1, a1, 0xd
   1e644: 93 17 b7 00  	slli	a5, a4, 0xb
   1e648: 59 8c        	or	s0, s0, a4
   1e64a: 4d 8d        	or	a0, a0, a1
   1e64c: 63 db 07 00  	bgez	a5, 0x1e662 <__multf3+0x2e4>
   1e650: 93 57 15 00  	srli	a5, a0, 0x1
   1e654: 05 89        	andi	a0, a0, 0x1
   1e656: c9 8f        	or	a5, a5, a0
   1e658: 13 15 f4 03  	slli	a0, s0, 0x3f
   1e65c: 5d 8d        	or	a0, a0, a5
   1e65e: 05 80        	srli	s0, s0, 0x1
   1e660: c6 86        	mv	a3, a7
   1e662: b6 88        	mv	a7, a3
   1e664: 7d a8        	j	0x1e722 <__multf3+0x3a4>
   1e666: 81 44        	li	s1, 0x0
   1e668: 01 4a        	li	s4, 0x0
   1e66a: 85 4c        	li	s9, 0x1
   1e66c: bd b3        	j	0x1e3da <__multf3+0x5c>
   1e66e: 81 44        	li	s1, 0x0
   1e670: 89 4c        	li	s9, 0x2
   1e672: a5 b3        	j	0x1e3da <__multf3+0x5c>
   1e674: b3 67 8c 00  	or	a5, s8, s0
   1e678: a5 c7        	beqz	a5, 0x1e6e0 <__multf3+0x362>
   1e67a: 1d c8        	beqz	s0, 0x1e6b0 <__multf3+0x332>
   1e67c: 22 85        	mv	a0, s0
   1e67e: ef 00 90 5b  	jal	0x1f436 <__clzdi2>
   1e682: 01 25        	sext.w	a0, a0
   1e684: 93 07 15 ff  	addi	a5, a0, -0xf
   1e688: 13 07 d0 03  	li	a4, 0x3d
   1e68c: 9b 86 37 00  	addiw	a3, a5, 0x3
   1e690: bb 07 f7 40  	subw	a5, a4, a5
   1e694: 33 14 d4 00  	sll	s0, s0, a3
   1e698: b3 57 fc 00  	srl	a5, s8, a5
   1e69c: 33 e7 87 00  	or	a4, a5, s0
   1e6a0: 33 14 dc 00  	sll	s0, s8, a3
   1e6a4: f1 77        	lui	a5, 0xffffc
   1e6a6: c5 07        	addi	a5, a5, 0x11
   1e6a8: 89 8f        	sub	a5, a5, a0
   1e6aa: 22 85        	mv	a0, s0
   1e6ac: 3a 84        	mv	s0, a4
   1e6ae: c5 b3        	j	0x1e48e <__multf3+0x110>
   1e6b0: ef 00 70 58  	jal	0x1f436 <__clzdi2>
   1e6b4: 1b 05 05 04  	addiw	a0, a0, 0x40
   1e6b8: 93 07 15 ff  	addi	a5, a0, -0xf
   1e6bc: 13 07 c0 03  	li	a4, 0x3c
   1e6c0: e3 54 f7 fc  	bge	a4, a5, 0x1e688 <__multf3+0x30a>
   1e6c4: 9b 87 37 fc  	addiw	a5, a5, -0x3d
   1e6c8: 33 17 fc 00  	sll	a4, s8, a5
   1e6cc: e1 bf        	j	0x1e6a4 <__multf3+0x326>
   1e6ce: 33 67 8c 00  	or	a4, s8, s0
   1e6d2: 01 cf        	beqz	a4, 0x1e6ea <__multf3+0x36c>
   1e6d4: c5 82        	srli	a3, a3, 0x11
   1e6d6: 0d 47        	li	a4, 0x3
   1e6d8: e3 ec 86 da  	bltu	a3, s0, 0x1e490 <__multf3+0x112>
   1e6dc: 41 49        	li	s2, 0x10
   1e6de: 4d bb        	j	0x1e490 <__multf3+0x112>
   1e6e0: 01 44        	li	s0, 0x0
   1e6e2: 01 45        	li	a0, 0x0
   1e6e4: 81 47        	li	a5, 0x0
   1e6e6: 05 47        	li	a4, 0x1
   1e6e8: 65 b3        	j	0x1e490 <__multf3+0x112>
   1e6ea: 01 44        	li	s0, 0x0
   1e6ec: 01 45        	li	a0, 0x0
   1e6ee: 09 47        	li	a4, 0x2
   1e6f0: 45 b3        	j	0x1e490 <__multf3+0x112>
   1e6f2: 85 45        	li	a1, 0x1
   1e6f4: b3 97 f5 00  	sll	a5, a1, a5
   1e6f8: 93 f5 07 53  	andi	a1, a5, 0x530
   1e6fc: a5 e9        	bnez	a1, 0x1e76c <__multf3+0x3ee>
   1e6fe: 93 f5 07 24  	andi	a1, a5, 0x240
   1e702: 63 99 05 24  	bnez	a1, 0x1e954 <__multf3+0x5d6>
   1e706: 93 f7 87 08  	andi	a5, a5, 0x88
   1e70a: e3 86 07 da  	beqz	a5, 0x1e4b6 <__multf3+0x138>
   1e70e: 56 86        	mv	a2, s5
   1e710: 89 47        	li	a5, 0x2
   1e712: 63 09 f7 24  	beq	a4, a5, 0x1e964 <__multf3+0x5e6>
   1e716: 8d 47        	li	a5, 0x3
   1e718: 63 0f f7 22  	beq	a4, a5, 0x1e956 <__multf3+0x5d8>
   1e71c: 85 47        	li	a5, 0x1
   1e71e: 63 08 f7 24  	beq	a4, a5, 0x1e96e <__multf3+0x5f0>
   1e722: 11 67        	lui	a4, 0x4
   1e724: 7d 17        	addi	a4, a4, -0x1
   1e726: 46 97        	add	a4, a4, a7
   1e728: 63 5f e0 0c  	blez	a4, 0x1e806 <__multf3+0x488>
   1e72c: 93 77 75 00  	andi	a5, a0, 0x7
   1e730: b9 c7        	beqz	a5, 0x1e77e <__multf3+0x400>
   1e732: 89 47        	li	a5, 0x2
   1e734: 13 69 19 00  	ori	s2, s2, 0x1
   1e738: 63 82 f9 04  	beq	s3, a5, 0x1e77c <__multf3+0x3fe>
   1e73c: 8d 47        	li	a5, 0x3
   1e73e: 63 8b f9 02  	beq	s3, a5, 0x1e774 <__multf3+0x3f6>
   1e742: 63 9e 09 02  	bnez	s3, 0x1e77e <__multf3+0x400>
   1e746: 93 77 f5 00  	andi	a5, a0, 0xf
   1e74a: 91 46        	li	a3, 0x4
   1e74c: 63 89 d7 02  	beq	a5, a3, 0x1e77e <__multf3+0x400>
   1e750: 93 07 45 00  	addi	a5, a0, 0x4
   1e754: b3 b6 a7 00  	sltu	a3, a5, a0
   1e758: 36 94        	add	s0, s0, a3
   1e75a: 3e 85        	mv	a0, a5
   1e75c: 0d a0        	j	0x1e77e <__multf3+0x400>
   1e75e: bd 46        	li	a3, 0xf
   1e760: 63 8b d7 1e  	beq	a5, a3, 0x1e956 <__multf3+0x5d8>
   1e764: ad 46        	li	a3, 0xb
   1e766: 5a 86        	mv	a2, s6
   1e768: e3 83 d7 fa  	beq	a5, a3, 0x1e70e <__multf3+0x390>
   1e76c: 26 84        	mv	s0, s1
   1e76e: 5e 85        	mv	a0, s7
   1e770: 66 87        	mv	a4, s9
   1e772: 79 bf        	j	0x1e710 <__multf3+0x392>
   1e774: 09 e6        	bnez	a2, 0x1e77e <__multf3+0x400>
   1e776: 93 07 85 00  	addi	a5, a0, 0x8
   1e77a: e9 bf        	j	0x1e754 <__multf3+0x3d6>
   1e77c: 6d fe        	bnez	a2, 0x1e776 <__multf3+0x3f8>
   1e77e: 93 17 b4 00  	slli	a5, s0, 0xb
   1e782: 63 d8 07 00  	bgez	a5, 0x1e792 <__multf3+0x414>
   1e786: fd 57        	li	a5, -0x1
   1e788: d2 17        	slli	a5, a5, 0x34
   1e78a: fd 17        	addi	a5, a5, -0x1
   1e78c: 11 67        	lui	a4, 0x4
   1e78e: 7d 8c        	and	s0, s0, a5
   1e790: 46 97        	add	a4, a4, a7
   1e792: a1 67        	lui	a5, 0x8
   1e794: f9 17        	addi	a5, a5, -0x2
   1e796: a1 66        	lui	a3, 0x8
   1e798: 63 c2 e7 04  	blt	a5, a4, 0x1e7dc <__multf3+0x45e>
   1e79c: 93 57 35 00  	srli	a5, a0, 0x3
   1e7a0: 13 15 d4 03  	slli	a0, s0, 0x3d
   1e7a4: 5d 8d        	or	a0, a0, a5
   1e7a6: 93 57 34 00  	srli	a5, s0, 0x3
   1e7aa: 1b 16 f6 00  	slliw	a2, a2, 0xf
   1e7ae: 93 95 07 01  	slli	a1, a5, 0x10
   1e7b2: 51 8f        	or	a4, a4, a2
   1e7b4: 42 17        	slli	a4, a4, 0x30
   1e7b6: c1 81        	srli	a1, a1, 0x10
   1e7b8: d9 8d        	or	a1, a1, a4
   1e7ba: 63 04 09 00  	beqz	s2, 0x1e7c2 <__multf3+0x444>
   1e7be: 73 20 19 00  	csrs	fflags, s2
   1e7c2: e6 60        	ld	ra, 0x58(sp)
   1e7c4: 46 64        	ld	s0, 0x50(sp)
   1e7c6: a6 64        	ld	s1, 0x48(sp)
   1e7c8: 06 69        	ld	s2, 0x40(sp)
   1e7ca: e2 79        	ld	s3, 0x38(sp)
   1e7cc: 42 7a        	ld	s4, 0x30(sp)
   1e7ce: a2 7a        	ld	s5, 0x28(sp)
   1e7d0: 02 7b        	ld	s6, 0x20(sp)
   1e7d2: e2 6b        	ld	s7, 0x18(sp)
   1e7d4: 42 6c        	ld	s8, 0x10(sp)
   1e7d6: a2 6c        	ld	s9, 0x8(sp)
   1e7d8: 25 61        	addi	sp, sp, 0x60
   1e7da: 82 80        	ret
   1e7dc: 09 47        	li	a4, 0x2
   1e7de: 63 82 e9 02  	beq	s3, a4, 0x1e802 <__multf3+0x484>
   1e7e2: 0d 47        	li	a4, 0x3
   1e7e4: 63 88 e9 00  	beq	s3, a4, 0x1e7f4 <__multf3+0x476>
   1e7e8: 63 97 09 00  	bnez	s3, 0x1e7f6 <__multf3+0x478>
   1e7ec: 01 45        	li	a0, 0x0
   1e7ee: 13 87 f6 ff  	addi	a4, a3, -0x1
   1e7f2: 21 a0        	j	0x1e7fa <__multf3+0x47c>
   1e7f4: 65 de        	beqz	a2, 0x1e7ec <__multf3+0x46e>
   1e7f6: 7d 55        	li	a0, -0x1
   1e7f8: 3e 87        	mv	a4, a5
   1e7fa: 13 69 59 00  	ori	s2, s2, 0x5
   1e7fe: aa 87        	mv	a5, a0
   1e800: 6d b7        	j	0x1e7aa <__multf3+0x42c>
   1e802: 6d f6        	bnez	a2, 0x1e7ec <__multf3+0x46e>
   1e804: cd bf        	j	0x1e7f6 <__multf3+0x478>
   1e806: 85 46        	li	a3, 0x1
   1e808: 21 e7        	bnez	a4, 0x1e850 <__multf3+0x4d2>
   1e80a: 93 76 75 00  	andi	a3, a0, 0x7
   1e80e: a2 87        	mv	a5, s0
   1e810: 9d ca        	beqz	a3, 0x1e846 <__multf3+0x4c8>
   1e812: 89 46        	li	a3, 0x2
   1e814: 13 69 19 00  	ori	s2, s2, 0x1
   1e818: 63 86 d9 02  	beq	s3, a3, 0x1e844 <__multf3+0x4c6>
   1e81c: 8d 46        	li	a3, 0x3
   1e81e: 63 8f d9 00  	beq	s3, a3, 0x1e83c <__multf3+0x4be>
   1e822: 63 92 09 02  	bnez	s3, 0x1e846 <__multf3+0x4c8>
   1e826: 93 76 f5 00  	andi	a3, a0, 0xf
   1e82a: 91 45        	li	a1, 0x4
   1e82c: 63 8d b6 00  	beq	a3, a1, 0x1e846 <__multf3+0x4c8>
   1e830: 93 37 c5 ff  	sltiu	a5, a0, -0x4
   1e834: 93 c7 17 00  	xori	a5, a5, 0x1
   1e838: a2 97        	add	a5, a5, s0
   1e83a: 31 a0        	j	0x1e846 <__multf3+0x4c8>
   1e83c: 09 e6        	bnez	a2, 0x1e846 <__multf3+0x4c8>
   1e83e: 93 37 85 ff  	sltiu	a5, a0, -0x8
   1e842: cd bf        	j	0x1e834 <__multf3+0x4b6>
   1e844: 6d fe        	bnez	a2, 0x1e83e <__multf3+0x4c0>
   1e846: 93 d6 47 03  	srli	a3, a5, 0x34
   1e84a: 93 c6 16 00  	xori	a3, a3, 0x1
   1e84e: 85 8a        	andi	a3, a3, 0x1
   1e850: 05 48        	li	a6, 0x1
   1e852: 33 08 e8 40  	sub	a6, a6, a4
   1e856: 93 07 40 07  	li	a5, 0x74
   1e85a: 63 c2 07 0d  	blt	a5, a6, 0x1e91e <__multf3+0x5a0>
   1e85e: 13 07 f0 03  	li	a4, 0x3f
   1e862: 9b 07 08 00  	sext.w	a5, a6
   1e866: 63 4b 07 05  	blt	a4, a6, 0x1e8bc <__multf3+0x53e>
   1e86a: 93 05 00 04  	li	a1, 0x40
   1e86e: 9d 9d        	subw	a1, a1, a5
   1e870: 33 17 b4 00  	sll	a4, s0, a1
   1e874: 33 58 f5 00  	srl	a6, a0, a5
   1e878: b3 15 b5 00  	sll	a1, a0, a1
   1e87c: 33 67 07 01  	or	a4, a4, a6
   1e880: b3 35 b0 00  	snez	a1, a1
   1e884: 4d 8f        	or	a4, a4, a1
   1e886: b3 57 f4 00  	srl	a5, s0, a5
   1e88a: 93 75 77 00  	andi	a1, a4, 0x7
   1e88e: a5 c1        	beqz	a1, 0x1e8ee <__multf3+0x570>
   1e890: 89 45        	li	a1, 0x2
   1e892: 13 69 19 00  	ori	s2, s2, 0x1
   1e896: 63 8b b9 04  	beq	s3, a1, 0x1e8ec <__multf3+0x56e>
   1e89a: 8d 45        	li	a1, 0x3
   1e89c: 63 84 b9 04  	beq	s3, a1, 0x1e8e4 <__multf3+0x566>
   1e8a0: 63 97 09 04  	bnez	s3, 0x1e8ee <__multf3+0x570>
   1e8a4: 93 75 f7 00  	andi	a1, a4, 0xf
   1e8a8: 11 45        	li	a0, 0x4
   1e8aa: 63 82 a5 04  	beq	a1, a0, 0x1e8ee <__multf3+0x570>
   1e8ae: 93 05 47 00  	addi	a1, a4, 0x4
   1e8b2: 33 b5 e5 00  	sltu	a0, a1, a4
   1e8b6: aa 97        	add	a5, a5, a0
   1e8b8: 2e 87        	mv	a4, a1
   1e8ba: 15 a8        	j	0x1e8ee <__multf3+0x570>
   1e8bc: 1b 87 07 fc  	addiw	a4, a5, -0x40
   1e8c0: 93 08 00 04  	li	a7, 0x40
   1e8c4: 33 57 e4 00  	srl	a4, s0, a4
   1e8c8: 81 45        	li	a1, 0x0
   1e8ca: 63 07 18 01  	beq	a6, a7, 0x1e8d8 <__multf3+0x55a>
   1e8ce: 93 05 00 08  	li	a1, 0x80
   1e8d2: 9d 9d        	subw	a1, a1, a5
   1e8d4: b3 15 b4 00  	sll	a1, s0, a1
   1e8d8: c9 8d        	or	a1, a1, a0
   1e8da: b3 35 b0 00  	snez	a1, a1
   1e8de: 4d 8f        	or	a4, a4, a1
   1e8e0: 81 47        	li	a5, 0x0
   1e8e2: 65 b7        	j	0x1e88a <__multf3+0x50c>
   1e8e4: 09 e6        	bnez	a2, 0x1e8ee <__multf3+0x570>
   1e8e6: 93 05 87 00  	addi	a1, a4, 0x8
   1e8ea: e1 b7        	j	0x1e8b2 <__multf3+0x534>
   1e8ec: 6d fe        	bnez	a2, 0x1e8e6 <__multf3+0x568>
   1e8ee: 93 95 c7 00  	slli	a1, a5, 0xc
   1e8f2: 63 df 05 00  	bgez	a1, 0x1e910 <__multf3+0x592>
   1e8f6: 13 69 19 00  	ori	s2, s2, 0x1
   1e8fa: 81 47        	li	a5, 0x0
   1e8fc: 01 45        	li	a0, 0x0
   1e8fe: 05 47        	li	a4, 0x1
   1e900: e3 85 06 ea  	beqz	a3, 0x1e7aa <__multf3+0x42c>
   1e904: 93 76 19 00  	andi	a3, s2, 0x1
   1e908: 86 06        	slli	a3, a3, 0x1
   1e90a: 33 e9 26 01  	or	s2, a3, s2
   1e90e: 71 bd        	j	0x1e7aa <__multf3+0x42c>
   1e910: 0d 83        	srli	a4, a4, 0x3
   1e912: 13 95 d7 03  	slli	a0, a5, 0x3d
   1e916: 59 8d        	or	a0, a0, a4
   1e918: 8d 83        	srli	a5, a5, 0x3
   1e91a: 01 47        	li	a4, 0x0
   1e91c: d5 b7        	j	0x1e900 <__multf3+0x582>
   1e91e: 41 8d        	or	a0, a0, s0
   1e920: 11 cd        	beqz	a0, 0x1e93c <__multf3+0x5be>
   1e922: 89 47        	li	a5, 0x2
   1e924: 13 69 19 00  	ori	s2, s2, 0x1
   1e928: 63 83 f9 02  	beq	s3, a5, 0x1e94e <__multf3+0x5d0>
   1e92c: 8d 47        	li	a5, 0x3
   1e92e: 63 8c f9 00  	beq	s3, a5, 0x1e946 <__multf3+0x5c8>
   1e932: 05 45        	li	a0, 0x1
   1e934: 63 93 09 00  	bnez	s3, 0x1e93a <__multf3+0x5bc>
   1e938: 15 45        	li	a0, 0x5
   1e93a: 0d 81        	srli	a0, a0, 0x3
   1e93c: 13 69 29 00  	ori	s2, s2, 0x2
   1e940: 81 47        	li	a5, 0x0
   1e942: 01 47        	li	a4, 0x0
   1e944: 9d b5        	j	0x1e7aa <__multf3+0x42c>
   1e946: 25 45        	li	a0, 0x9
   1e948: 6d da        	beqz	a2, 0x1e93a <__multf3+0x5bc>
   1e94a: 05 45        	li	a0, 0x1
   1e94c: fd b7        	j	0x1e93a <__multf3+0x5bc>
   1e94e: 25 45        	li	a0, 0x9
   1e950: 6d f6        	bnez	a2, 0x1e93a <__multf3+0x5bc>
   1e952: e5 bf        	j	0x1e94a <__multf3+0x5cc>
   1e954: 41 49        	li	s2, 0x10
   1e956: 85 47        	li	a5, 0x1
   1e958: 21 67        	lui	a4, 0x8
   1e95a: be 17        	slli	a5, a5, 0x2f
   1e95c: 01 45        	li	a0, 0x0
   1e95e: 7d 17        	addi	a4, a4, -0x1
   1e960: 01 46        	li	a2, 0x0
   1e962: a1 b5        	j	0x1e7aa <__multf3+0x42c>
   1e964: 21 67        	lui	a4, 0x8
   1e966: 81 47        	li	a5, 0x0
   1e968: 01 45        	li	a0, 0x0
   1e96a: 7d 17        	addi	a4, a4, -0x1
   1e96c: 3d bd        	j	0x1e7aa <__multf3+0x42c>
   1e96e: 81 47        	li	a5, 0x0
   1e970: 01 45        	li	a0, 0x0
   1e972: c1 bf        	j	0x1e942 <__multf3+0x5c4>

000000000001e974 <__subtf3>:
   1e974: 79 71        	addi	sp, sp, -0x30
   1e976: 06 f4        	sd	ra, 0x28(sp)
   1e978: 22 f0        	sd	s0, 0x20(sp)
   1e97a: 26 ec        	sd	s1, 0x18(sp)
   1e97c: 4a e8        	sd	s2, 0x10(sp)
   1e97e: 4e e4        	sd	s3, 0x8(sp)
   1e980: 52 e0        	sd	s4, 0x0(sp)
   1e982: f3 24 20 00  	frrm	s1
   1e986: 7d 57        	li	a4, -0x1
   1e988: 41 83        	srli	a4, a4, 0x10
   1e98a: 13 d8 05 03  	srli	a6, a1, 0x30
   1e98e: 13 d9 f5 03  	srli	s2, a1, 0x3f
   1e992: f9 8d        	and	a1, a1, a4
   1e994: 8e 05        	slli	a1, a1, 0x3
   1e996: 93 58 d5 03  	srli	a7, a0, 0x3d
   1e99a: a1 67        	lui	a5, 0x8
   1e99c: fd 17        	addi	a5, a5, -0x1
   1e99e: 13 d3 06 03  	srli	t1, a3, 0x30
   1e9a2: b3 e8 b8 00  	or	a7, a7, a1
   1e9a6: 93 d5 f6 03  	srli	a1, a3, 0x3f
   1e9aa: f9 8e        	and	a3, a3, a4
   1e9ac: 33 78 f8 00  	and	a6, a6, a5
   1e9b0: 13 57 d6 03  	srli	a4, a2, 0x3d
   1e9b4: 8e 06        	slli	a3, a3, 0x3
   1e9b6: 33 73 f3 00  	and	t1, t1, a5
   1e9ba: 81 24        	sext.w	s1, s1
   1e9bc: c2 89        	mv	s3, a6
   1e9be: 0e 05        	slli	a0, a0, 0x3
   1e9c0: 55 8f        	or	a4, a4, a3
   1e9c2: 0e 06        	slli	a2, a2, 0x3
   1e9c4: 63 15 f3 00  	bne	t1, a5, 0x1e9ce <__subtf3+0x5a>
   1e9c8: b3 67 c7 00  	or	a5, a4, a2
   1e9cc: 99 e3        	bnez	a5, 0x1e9d2 <__subtf3+0x5e>
   1e9ce: 93 c5 15 00  	xori	a1, a1, 0x1
   1e9d2: bb 06 68 40  	subw	a3, a6, t1
   1e9d6: 21 6e        	lui	t3, 0x8
   1e9d8: 9b 87 06 00  	sext.w	a5, a3
   1e9dc: 7d 1e        	addi	t3, t3, -0x1
   1e9de: 63 97 25 2b  	bne	a1, s2, 0x1ec8c <__subtf3+0x318>
   1e9e2: 63 58 f0 0e  	blez	a5, 0x1ead2 <__subtf3+0x15e>
   1e9e6: 63 19 03 06  	bnez	t1, 0x1ea58 <__subtf3+0xe4>
   1e9ea: b3 67 c7 00  	or	a5, a4, a2
   1e9ee: 91 e7        	bnez	a5, 0x1e9fa <__subtf3+0x86>
   1e9f0: 63 07 c8 05  	beq	a6, t3, 0x1ea3e <__subtf3+0xca>
   1e9f4: 46 87        	mv	a4, a7
   1e9f6: 2a 86        	mv	a2, a0
   1e9f8: f9 ab        	j	0x1efd6 <__subtf3+0x662>
   1e9fa: 9b 87 f6 ff  	addiw	a5, a3, -0x1
   1e9fe: 95 ef        	bnez	a5, 0x1ea3a <__subtf3+0xc6>
   1ea00: 2a 96        	add	a2, a2, a0
   1ea02: 46 97        	add	a4, a4, a7
   1ea04: 33 35 a6 00  	sltu	a0, a2, a0
   1ea08: 2a 97        	add	a4, a4, a0
   1ea0a: 93 16 c7 00  	slli	a3, a4, 0xc
   1ea0e: 81 47        	li	a5, 0x0
   1ea10: 63 d4 06 0e  	bgez	a3, 0x1eaf8 <__subtf3+0x184>
   1ea14: a1 66        	lui	a3, 0x8
   1ea16: 85 09        	addi	s3, s3, 0x1
   1ea18: fd 16        	addi	a3, a3, -0x1
   1ea1a: 63 85 d9 24  	beq	s3, a3, 0x1ec64 <__subtf3+0x2f0>
   1ea1e: fd 56        	li	a3, -0x1
   1ea20: ce 16        	slli	a3, a3, 0x33
   1ea22: fd 16        	addi	a3, a3, -0x1
   1ea24: f9 8e        	and	a3, a3, a4
   1ea26: 13 57 16 00  	srli	a4, a2, 0x1
   1ea2a: 05 8a        	andi	a2, a2, 0x1
   1ea2c: 51 8f        	or	a4, a4, a2
   1ea2e: 13 96 f6 03  	slli	a2, a3, 0x3f
   1ea32: 59 8e        	or	a2, a2, a4
   1ea34: 13 d7 16 00  	srli	a4, a3, 0x1
   1ea38: c1 a0        	j	0x1eaf8 <__subtf3+0x184>
   1ea3a: 63 14 c8 03  	bne	a6, t3, 0x1ea62 <__subtf3+0xee>
   1ea3e: 33 e6 a8 00  	or	a2, a7, a0
   1ea42: 63 0c 06 6c  	beqz	a2, 0x1f11a <__subtf3+0x7a6>
   1ea46: 93 d7 28 03  	srli	a5, a7, 0x32
   1ea4a: 93 c7 17 00  	xori	a5, a5, 0x1
   1ea4e: 85 8b        	andi	a5, a5, 0x1
   1ea50: 92 07        	slli	a5, a5, 0x4
   1ea52: 46 87        	mv	a4, a7
   1ea54: 2a 86        	mv	a2, a0
   1ea56: 4d a0        	j	0x1eaf8 <__subtf3+0x184>
   1ea58: e3 03 c8 ff  	beq	a6, t3, 0x1ea3e <__subtf3+0xca>
   1ea5c: 85 46        	li	a3, 0x1
   1ea5e: ce 16        	slli	a3, a3, 0x33
   1ea60: 55 8f        	or	a4, a4, a3
   1ea62: 93 06 40 07  	li	a3, 0x74
   1ea66: 63 c1 f6 06  	blt	a3, a5, 0x1eac8 <__subtf3+0x154>
   1ea6a: 93 06 f0 03  	li	a3, 0x3f
   1ea6e: 63 c9 f6 02  	blt	a3, a5, 0x1eaa0 <__subtf3+0x12c>
   1ea72: 93 05 00 04  	li	a1, 0x40
   1ea76: 9d 9d        	subw	a1, a1, a5
   1ea78: b3 16 b7 00  	sll	a3, a4, a1
   1ea7c: 33 58 f6 00  	srl	a6, a2, a5
   1ea80: b3 15 b6 00  	sll	a1, a2, a1
   1ea84: b3 e6 06 01  	or	a3, a3, a6
   1ea88: b3 35 b0 00  	snez	a1, a1
   1ea8c: cd 8e        	or	a3, a3, a1
   1ea8e: 33 57 f7 00  	srl	a4, a4, a5
   1ea92: 36 95        	add	a0, a0, a3
   1ea94: 46 97        	add	a4, a4, a7
   1ea96: b3 36 d5 00  	sltu	a3, a0, a3
   1ea9a: 2a 86        	mv	a2, a0
   1ea9c: 36 97        	add	a4, a4, a3
   1ea9e: b5 b7        	j	0x1ea0a <__subtf3+0x96>
   1eaa0: 9b 86 07 fc  	addiw	a3, a5, -0x40
   1eaa4: 13 08 00 04  	li	a6, 0x40
   1eaa8: b3 56 d7 00  	srl	a3, a4, a3
   1eaac: 81 45        	li	a1, 0x0
   1eaae: 63 87 07 01  	beq	a5, a6, 0x1eabc <__subtf3+0x148>
   1eab2: 93 05 00 08  	li	a1, 0x80
   1eab6: 9d 9d        	subw	a1, a1, a5
   1eab8: b3 15 b7 00  	sll	a1, a4, a1
   1eabc: d1 8d        	or	a1, a1, a2
   1eabe: b3 35 b0 00  	snez	a1, a1
   1eac2: cd 8e        	or	a3, a3, a1
   1eac4: 01 47        	li	a4, 0x0
   1eac6: f1 b7        	j	0x1ea92 <__subtf3+0x11e>
   1eac8: b3 66 c7 00  	or	a3, a4, a2
   1eacc: b3 36 d0 00  	snez	a3, a3
   1ead0: d5 bf        	j	0x1eac4 <__subtf3+0x150>
   1ead2: e9 c7        	beqz	a5, 0x1eb9c <__subtf3+0x228>
   1ead4: 63 12 08 08  	bnez	a6, 0x1eb58 <__subtf3+0x1e4>
   1ead8: b3 e7 a8 00  	or	a5, a7, a0
   1eadc: 95 e3        	bnez	a5, 0x1eb00 <__subtf3+0x18c>
   1eade: 63 1c c3 63  	bne	t1, t3, 0x1f116 <__subtf3+0x7a2>
   1eae2: b3 67 c7 00  	or	a5, a4, a2
   1eae6: 63 86 07 62  	beqz	a5, 0x1f112 <__subtf3+0x79e>
   1eaea: 93 57 27 03  	srli	a5, a4, 0x32
   1eaee: 93 c7 17 00  	xori	a5, a5, 0x1
   1eaf2: 85 8b        	andi	a5, a5, 0x1
   1eaf4: 92 07        	slli	a5, a5, 0x4
   1eaf6: 9a 89        	mv	s3, t1
   1eaf8: ba 88        	mv	a7, a4
   1eafa: 32 85        	mv	a0, a2
   1eafc: 01 47        	li	a4, 0x0
   1eafe: 31 ab        	j	0x1f01a <__subtf3+0x6a6>
   1eb00: 93 c7 f6 ff  	not	a5, a3
   1eb04: 81 27        	sext.w	a5, a5
   1eb06: 81 eb        	bnez	a5, 0x1eb16 <__subtf3+0x1a2>
   1eb08: 2a 96        	add	a2, a2, a0
   1eb0a: 46 97        	add	a4, a4, a7
   1eb0c: 33 35 a6 00  	sltu	a0, a2, a0
   1eb10: 2a 97        	add	a4, a4, a0
   1eb12: 9a 89        	mv	s3, t1
   1eb14: dd bd        	j	0x1ea0a <__subtf3+0x96>
   1eb16: e3 06 c3 fd  	beq	t1, t3, 0x1eae2 <__subtf3+0x16e>
   1eb1a: 93 06 40 07  	li	a3, 0x74
   1eb1e: 63 ca f6 06  	blt	a3, a5, 0x1eb92 <__subtf3+0x21e>
   1eb22: 93 06 f0 03  	li	a3, 0x3f
   1eb26: 63 c2 f6 04  	blt	a3, a5, 0x1eb6a <__subtf3+0x1f6>
   1eb2a: 93 05 00 04  	li	a1, 0x40
   1eb2e: 9d 9d        	subw	a1, a1, a5
   1eb30: b3 96 b8 00  	sll	a3, a7, a1
   1eb34: 33 58 f5 00  	srl	a6, a0, a5
   1eb38: b3 15 b5 00  	sll	a1, a0, a1
   1eb3c: b3 e6 06 01  	or	a3, a3, a6
   1eb40: b3 35 b0 00  	snez	a1, a1
   1eb44: cd 8e        	or	a3, a3, a1
   1eb46: b3 d7 f8 00  	srl	a5, a7, a5
   1eb4a: 36 96        	add	a2, a2, a3
   1eb4c: ba 97        	add	a5, a5, a4
   1eb4e: b3 36 d6 00  	sltu	a3, a2, a3
   1eb52: 33 87 d7 00  	add	a4, a5, a3
   1eb56: 75 bf        	j	0x1eb12 <__subtf3+0x19e>
   1eb58: e3 05 c3 f9  	beq	t1, t3, 0x1eae2 <__subtf3+0x16e>
   1eb5c: bb 07 d0 40  	negw	a5, a3
   1eb60: 85 46        	li	a3, 0x1
   1eb62: ce 16        	slli	a3, a3, 0x33
   1eb64: b3 e8 d8 00  	or	a7, a7, a3
   1eb68: 4d bf        	j	0x1eb1a <__subtf3+0x1a6>
   1eb6a: 9b 86 07 fc  	addiw	a3, a5, -0x40
   1eb6e: 13 08 00 04  	li	a6, 0x40
   1eb72: b3 d6 d8 00  	srl	a3, a7, a3
   1eb76: 81 45        	li	a1, 0x0
   1eb78: 63 87 07 01  	beq	a5, a6, 0x1eb86 <__subtf3+0x212>
   1eb7c: 93 05 00 08  	li	a1, 0x80
   1eb80: 9d 9d        	subw	a1, a1, a5
   1eb82: b3 95 b8 00  	sll	a1, a7, a1
   1eb86: c9 8d        	or	a1, a1, a0
   1eb88: b3 35 b0 00  	snez	a1, a1
   1eb8c: cd 8e        	or	a3, a3, a1
   1eb8e: 81 47        	li	a5, 0x0
   1eb90: 6d bf        	j	0x1eb4a <__subtf3+0x1d6>
   1eb92: b3 e6 a8 00  	or	a3, a7, a0
   1eb96: b3 36 d0 00  	snez	a3, a3
   1eb9a: d5 bf        	j	0x1eb8e <__subtf3+0x21a>
   1eb9c: 93 06 18 00  	addi	a3, a6, 0x1
   1eba0: 93 9e 16 03  	slli	t4, a3, 0x31
   1eba4: a1 65        	lui	a1, 0x8
   1eba6: 93 de 2e 03  	srli	t4, t4, 0x32
   1ebaa: f9 15        	addi	a1, a1, -0x2
   1ebac: 63 9d 0e 06  	bnez	t4, 0x1ec26 <__subtf3+0x2b2>
   1ebb0: b3 e6 a8 00  	or	a3, a7, a0
   1ebb4: 63 19 08 02  	bnez	a6, 0x1ebe6 <__subtf3+0x272>
   1ebb8: 63 88 06 56  	beqz	a3, 0x1f128 <__subtf3+0x7b4>
   1ebbc: b3 66 c7 00  	or	a3, a4, a2
   1ebc0: 63 88 06 56  	beqz	a3, 0x1f130 <__subtf3+0x7bc>
   1ebc4: 2a 96        	add	a2, a2, a0
   1ebc6: 46 97        	add	a4, a4, a7
   1ebc8: 33 35 a6 00  	sltu	a0, a2, a0
   1ebcc: b3 08 a7 00  	add	a7, a4, a0
   1ebd0: 13 97 c8 00  	slli	a4, a7, 0xc
   1ebd4: 63 5b 07 26  	bgez	a4, 0x1ee4a <__subtf3+0x4d6>
   1ebd8: 7d 57        	li	a4, -0x1
   1ebda: 4e 17        	slli	a4, a4, 0x33
   1ebdc: 7d 17        	addi	a4, a4, -0x1
   1ebde: 33 f7 e8 00  	and	a4, a7, a4
   1ebe2: 85 49        	li	s3, 0x1
   1ebe4: 11 bf        	j	0x1eaf8 <__subtf3+0x184>
   1ebe6: 63 15 c8 03  	bne	a6, t3, 0x1ec10 <__subtf3+0x29c>
   1ebea: 63 8b 06 54  	beqz	a3, 0x1f140 <__subtf3+0x7cc>
   1ebee: 93 d7 28 03  	srli	a5, a7, 0x32
   1ebf2: 93 c7 17 00  	xori	a5, a5, 0x1
   1ebf6: 85 8b        	andi	a5, a5, 0x1
   1ebf8: 92 07        	slli	a5, a5, 0x4
   1ebfa: 63 1e 03 01  	bne	t1, a6, 0x1ec16 <__subtf3+0x2a2>
   1ebfe: b3 65 c7 00  	or	a1, a4, a2
   1ec02: 89 c9        	beqz	a1, 0x1ec14 <__subtf3+0x2a0>
   1ec04: 93 15 d7 00  	slli	a1, a4, 0xd
   1ec08: 63 c6 05 00  	bltz	a1, 0x1ec14 <__subtf3+0x2a0>
   1ec0c: c1 47        	li	a5, 0x10
   1ec0e: 19 a0        	j	0x1ec14 <__subtf3+0x2a0>
   1ec10: e3 07 c3 ff  	beq	t1, t3, 0x1ebfe <__subtf3+0x28a>
   1ec14: 91 c6        	beqz	a3, 0x1ec20 <__subtf3+0x2ac>
   1ec16: 51 8f        	or	a4, a4, a2
   1ec18: 63 1e 07 2c  	bnez	a4, 0x1eef4 <__subtf3+0x580>
   1ec1c: 46 87        	mv	a4, a7
   1ec1e: 2a 86        	mv	a2, a0
   1ec20: a1 69        	lui	s3, 0x8
   1ec22: fd 19        	addi	s3, s3, -0x1
   1ec24: d1 bd        	j	0x1eaf8 <__subtf3+0x184>
   1ec26: 63 8e c6 01  	beq	a3, t3, 0x1ec42 <__subtf3+0x2ce>
   1ec2a: 2a 96        	add	a2, a2, a0
   1ec2c: 33 35 a6 00  	sltu	a0, a2, a0
   1ec30: 46 97        	add	a4, a4, a7
   1ec32: 2a 97        	add	a4, a4, a0
   1ec34: 93 15 f7 03  	slli	a1, a4, 0x3f
   1ec38: 05 82        	srli	a2, a2, 0x1
   1ec3a: 4d 8e        	or	a2, a2, a1
   1ec3c: 05 83        	srli	a4, a4, 0x1
   1ec3e: b6 89        	mv	s3, a3
   1ec40: 65 bd        	j	0x1eaf8 <__subtf3+0x184>
   1ec42: 99 cc        	beqz	s1, 0x1ec60 <__subtf3+0x2ec>
   1ec44: 8d 47        	li	a5, 0x3
   1ec46: 63 98 f4 00  	bne	s1, a5, 0x1ec56 <__subtf3+0x2e2>
   1ec4a: 63 0b 09 00  	beqz	s2, 0x1ec60 <__subtf3+0x2ec>
   1ec4e: 7d 57        	li	a4, -0x1
   1ec50: 7d 56        	li	a2, -0x1
   1ec52: ae 89        	mv	s3, a1
   1ec54: 15 a8        	j	0x1ec88 <__subtf3+0x314>
   1ec56: 89 47        	li	a5, 0x2
   1ec58: e3 9b f4 fe  	bne	s1, a5, 0x1ec4e <__subtf3+0x2da>
   1ec5c: e3 09 09 fe  	beqz	s2, 0x1ec4e <__subtf3+0x2da>
   1ec60: b6 89        	mv	s3, a3
   1ec62: 0d a0        	j	0x1ec84 <__subtf3+0x310>
   1ec64: 85 c0        	beqz	s1, 0x1ec84 <__subtf3+0x310>
   1ec66: 8d 47        	li	a5, 0x3
   1ec68: 63 99 f4 00  	bne	s1, a5, 0x1ec7a <__subtf3+0x306>
   1ec6c: 63 0c 09 00  	beqz	s2, 0x1ec84 <__subtf3+0x310>
   1ec70: a1 69        	lui	s3, 0x8
   1ec72: 7d 57        	li	a4, -0x1
   1ec74: 7d 56        	li	a2, -0x1
   1ec76: f9 19        	addi	s3, s3, -0x2
   1ec78: 01 a8        	j	0x1ec88 <__subtf3+0x314>
   1ec7a: 89 47        	li	a5, 0x2
   1ec7c: e3 9a f4 fe  	bne	s1, a5, 0x1ec70 <__subtf3+0x2fc>
   1ec80: e3 08 09 fe  	beqz	s2, 0x1ec70 <__subtf3+0x2fc>
   1ec84: 01 47        	li	a4, 0x0
   1ec86: 01 46        	li	a2, 0x0
   1ec88: 95 47        	li	a5, 0x5
   1ec8a: bd b5        	j	0x1eaf8 <__subtf3+0x184>
   1ec8c: 63 58 f0 0a  	blez	a5, 0x1ed3c <__subtf3+0x3c8>
   1ec90: 63 17 03 06  	bnez	t1, 0x1ecfe <__subtf3+0x38a>
   1ec94: b3 67 c7 00  	or	a5, a4, a2
   1ec98: e3 8c 07 d4  	beqz	a5, 0x1e9f0 <__subtf3+0x7c>
   1ec9c: 9b 87 f6 ff  	addiw	a5, a3, -0x1
   1eca0: 8d e3        	bnez	a5, 0x1ecc2 <__subtf3+0x34e>
   1eca2: 33 06 c5 40  	sub	a2, a0, a2
   1eca6: 33 87 e8 40  	sub	a4, a7, a4
   1ecaa: 33 35 c5 00  	sltu	a0, a0, a2
   1ecae: 09 8f        	sub	a4, a4, a0
   1ecb0: 93 17 c7 00  	slli	a5, a4, 0xc
   1ecb4: 63 d1 07 32  	bgez	a5, 0x1efd6 <__subtf3+0x662>
   1ecb8: 13 14 d7 00  	slli	s0, a4, 0xd
   1ecbc: 35 80        	srli	s0, s0, 0xd
   1ecbe: 32 8a        	mv	s4, a2
   1ecc0: 9d a4        	j	0x1ef26 <__subtf3+0x5b2>
   1ecc2: e3 0e c8 d7  	beq	a6, t3, 0x1ea3e <__subtf3+0xca>
   1ecc6: 93 06 40 07  	li	a3, 0x74
   1ecca: 63 c4 f6 06  	blt	a3, a5, 0x1ed32 <__subtf3+0x3be>
   1ecce: 93 06 f0 03  	li	a3, 0x3f
   1ecd2: 63 cc f6 02  	blt	a3, a5, 0x1ed0a <__subtf3+0x396>
   1ecd6: 93 05 00 04  	li	a1, 0x40
   1ecda: 9d 9d        	subw	a1, a1, a5
   1ecdc: b3 16 b7 00  	sll	a3, a4, a1
   1ece0: 33 58 f6 00  	srl	a6, a2, a5
   1ece4: b3 15 b6 00  	sll	a1, a2, a1
   1ece8: b3 e6 06 01  	or	a3, a3, a6
   1ecec: b3 35 b0 00  	snez	a1, a1
   1ecf0: cd 8e        	or	a3, a3, a1
   1ecf2: 33 57 f7 00  	srl	a4, a4, a5
   1ecf6: b3 06 d5 40  	sub	a3, a0, a3
   1ecfa: 36 86        	mv	a2, a3
   1ecfc: 6d b7        	j	0x1eca6 <__subtf3+0x332>
   1ecfe: e3 00 c8 d5  	beq	a6, t3, 0x1ea3e <__subtf3+0xca>
   1ed02: 85 46        	li	a3, 0x1
   1ed04: ce 16        	slli	a3, a3, 0x33
   1ed06: 55 8f        	or	a4, a4, a3
   1ed08: 7d bf        	j	0x1ecc6 <__subtf3+0x352>
   1ed0a: 9b 86 07 fc  	addiw	a3, a5, -0x40
   1ed0e: 13 08 00 04  	li	a6, 0x40
   1ed12: b3 56 d7 00  	srl	a3, a4, a3
   1ed16: 81 45        	li	a1, 0x0
   1ed18: 63 87 07 01  	beq	a5, a6, 0x1ed26 <__subtf3+0x3b2>
   1ed1c: 93 05 00 08  	li	a1, 0x80
   1ed20: 9d 9d        	subw	a1, a1, a5
   1ed22: b3 15 b7 00  	sll	a1, a4, a1
   1ed26: d1 8d        	or	a1, a1, a2
   1ed28: b3 35 b0 00  	snez	a1, a1
   1ed2c: cd 8e        	or	a3, a3, a1
   1ed2e: 01 47        	li	a4, 0x0
   1ed30: d9 b7        	j	0x1ecf6 <__subtf3+0x382>
   1ed32: b3 66 c7 00  	or	a3, a4, a2
   1ed36: b3 36 d0 00  	snez	a3, a3
   1ed3a: d5 bf        	j	0x1ed2e <__subtf3+0x3ba>
   1ed3c: f9 cf        	beqz	a5, 0x1ee1a <__subtf3+0x4a6>
   1ed3e: 63 19 08 08  	bnez	a6, 0x1edd0 <__subtf3+0x45c>
   1ed42: b3 e7 a8 00  	or	a5, a7, a0
   1ed46: 85 e3        	bnez	a5, 0x1ed66 <__subtf3+0x3f2>
   1ed48: 63 1d c3 3d  	bne	t1, t3, 0x1f122 <__subtf3+0x7ae>
   1ed4c: b3 67 c7 00  	or	a5, a4, a2
   1ed50: 63 87 07 3c  	beqz	a5, 0x1f11e <__subtf3+0x7aa>
   1ed54: 93 57 27 03  	srli	a5, a4, 0x32
   1ed58: 93 c7 17 00  	xori	a5, a5, 0x1
   1ed5c: 85 8b        	andi	a5, a5, 0x1
   1ed5e: 92 07        	slli	a5, a5, 0x4
   1ed60: 9a 89        	mv	s3, t1
   1ed62: 2e 89        	mv	s2, a1
   1ed64: 51 bb        	j	0x1eaf8 <__subtf3+0x184>
   1ed66: 93 c7 f6 ff  	not	a5, a3
   1ed6a: 81 27        	sext.w	a5, a5
   1ed6c: 81 ef        	bnez	a5, 0x1ed84 <__subtf3+0x410>
   1ed6e: 33 05 a6 40  	sub	a0, a2, a0
   1ed72: b3 37 a6 00  	sltu	a5, a2, a0
   1ed76: 33 07 17 41  	sub	a4, a4, a7
   1ed7a: 2a 86        	mv	a2, a0
   1ed7c: 1d 8f        	sub	a4, a4, a5
   1ed7e: 9a 89        	mv	s3, t1
   1ed80: 2e 89        	mv	s2, a1
   1ed82: 3d b7        	j	0x1ecb0 <__subtf3+0x33c>
   1ed84: e3 04 c3 fd  	beq	t1, t3, 0x1ed4c <__subtf3+0x3d8>
   1ed88: 93 06 40 07  	li	a3, 0x74
   1ed8c: 63 c2 f6 08  	blt	a3, a5, 0x1ee10 <__subtf3+0x49c>
   1ed90: 93 06 f0 03  	li	a3, 0x3f
   1ed94: 63 c7 f6 04  	blt	a3, a5, 0x1ede2 <__subtf3+0x46e>
   1ed98: 13 08 00 04  	li	a6, 0x40
   1ed9c: 3b 08 f8 40  	subw	a6, a6, a5
   1eda0: b3 96 08 01  	sll	a3, a7, a6
   1eda4: 33 5e f5 00  	srl	t3, a0, a5
   1eda8: 33 18 05 01  	sll	a6, a0, a6
   1edac: b3 e6 c6 01  	or	a3, a3, t3
   1edb0: 33 38 00 01  	snez	a6, a6
   1edb4: b3 e6 06 01  	or	a3, a3, a6
   1edb8: b3 d7 f8 00  	srl	a5, a7, a5
   1edbc: b3 06 d6 40  	sub	a3, a2, a3
   1edc0: 33 35 d6 00  	sltu	a0, a2, a3
   1edc4: b3 07 f7 40  	sub	a5, a4, a5
   1edc8: 36 86        	mv	a2, a3
   1edca: 33 87 a7 40  	sub	a4, a5, a0
   1edce: 45 bf        	j	0x1ed7e <__subtf3+0x40a>
   1edd0: e3 0e c3 f7  	beq	t1, t3, 0x1ed4c <__subtf3+0x3d8>
   1edd4: bb 07 d0 40  	negw	a5, a3
   1edd8: 85 46        	li	a3, 0x1
   1edda: ce 16        	slli	a3, a3, 0x33
   1eddc: b3 e8 d8 00  	or	a7, a7, a3
   1ede0: 65 b7        	j	0x1ed88 <__subtf3+0x414>
   1ede2: 9b 86 07 fc  	addiw	a3, a5, -0x40
   1ede6: 13 0e 00 04  	li	t3, 0x40
   1edea: b3 d6 d8 00  	srl	a3, a7, a3
   1edee: 01 48        	li	a6, 0x0
   1edf0: 63 88 c7 01  	beq	a5, t3, 0x1ee00 <__subtf3+0x48c>
   1edf4: 13 08 00 08  	li	a6, 0x80
   1edf8: 3b 08 f8 40  	subw	a6, a6, a5
   1edfc: 33 98 08 01  	sll	a6, a7, a6
   1ee00: 33 68 a8 00  	or	a6, a6, a0
   1ee04: 33 38 00 01  	snez	a6, a6
   1ee08: b3 e6 06 01  	or	a3, a3, a6
   1ee0c: 81 47        	li	a5, 0x0
   1ee0e: 7d b7        	j	0x1edbc <__subtf3+0x448>
   1ee10: b3 e6 a8 00  	or	a3, a7, a0
   1ee14: b3 36 d0 00  	snez	a3, a3
   1ee18: d5 bf        	j	0x1ee0c <__subtf3+0x498>
   1ee1a: 93 06 18 00  	addi	a3, a6, 0x1
   1ee1e: 93 9e 16 03  	slli	t4, a3, 0x31
   1ee22: 93 de 2e 03  	srli	t4, t4, 0x32
   1ee26: 63 9c 0e 0c  	bnez	t4, 0x1eefe <__subtf3+0x58a>
   1ee2a: b3 66 c7 00  	or	a3, a4, a2
   1ee2e: b3 ee a8 00  	or	t4, a7, a0
   1ee32: 63 17 08 06  	bnez	a6, 0x1eea0 <__subtf3+0x52c>
   1ee36: 63 92 0e 02  	bnez	t4, 0x1ee5a <__subtf3+0x4e6>
   1ee3a: 63 99 06 2e  	bnez	a3, 0x1f12c <__subtf3+0x7b8>
   1ee3e: 13 89 e4 ff  	addi	s2, s1, -0x2
   1ee42: 13 39 19 00  	seqz	s2, s2
   1ee46: 81 48        	li	a7, 0x0
   1ee48: 01 46        	li	a2, 0x0
   1ee4a: 33 e5 c8 00  	or	a0, a7, a2
   1ee4e: 63 16 05 18  	bnez	a0, 0x1efda <__subtf3+0x666>
   1ee52: 81 48        	li	a7, 0x0
   1ee54: 81 49        	li	s3, 0x0
   1ee56: 81 47        	li	a5, 0x0
   1ee58: 0d a4        	j	0x1f07a <__subtf3+0x706>
   1ee5a: 63 8b 06 2c  	beqz	a3, 0x1f130 <__subtf3+0x7bc>
   1ee5e: b3 06 c5 40  	sub	a3, a0, a2
   1ee62: 33 38 d5 00  	sltu	a6, a0, a3
   1ee66: b3 87 e8 40  	sub	a5, a7, a4
   1ee6a: b3 87 07 41  	sub	a5, a5, a6
   1ee6e: 13 98 c7 00  	slli	a6, a5, 0xc
   1ee72: 63 5d 08 00  	bgez	a6, 0x1ee8c <__subtf3+0x518>
   1ee76: 33 05 a6 40  	sub	a0, a2, a0
   1ee7a: b3 37 a6 00  	sltu	a5, a2, a0
   1ee7e: 33 07 17 41  	sub	a4, a4, a7
   1ee82: 2a 86        	mv	a2, a0
   1ee84: b3 08 f7 40  	sub	a7, a4, a5
   1ee88: 2e 89        	mv	s2, a1
   1ee8a: c1 b7        	j	0x1ee4a <__subtf3+0x4d6>
   1ee8c: 33 e6 f6 00  	or	a2, a3, a5
   1ee90: 63 12 06 2a  	bnez	a2, 0x1f134 <__subtf3+0x7c0>
   1ee94: 13 89 e4 ff  	addi	s2, s1, -0x2
   1ee98: 13 39 19 00  	seqz	s2, s2
   1ee9c: 81 48        	li	a7, 0x0
   1ee9e: 75 b7        	j	0x1ee4a <__subtf3+0x4d6>
   1eea0: 63 19 c8 03  	bne	a6, t3, 0x1eed2 <__subtf3+0x55e>
   1eea4: 63 8b 0e 28  	beqz	t4, 0x1f13a <__subtf3+0x7c6>
   1eea8: 93 d7 28 03  	srli	a5, a7, 0x32
   1eeac: 93 c7 17 00  	xori	a5, a5, 0x1
   1eeb0: 85 8b        	andi	a5, a5, 0x1
   1eeb2: 92 07        	slli	a5, a5, 0x4
   1eeb4: 63 1e 03 03  	bne	t1, a6, 0x1eef0 <__subtf3+0x57c>
   1eeb8: 99 ce        	beqz	a3, 0x1eed6 <__subtf3+0x562>
   1eeba: 05 48        	li	a6, 0x1
   1eebc: 13 13 d7 00  	slli	t1, a4, 0xd
   1eec0: 4a 18        	slli	a6, a6, 0x32
   1eec2: 63 4a 03 00  	bltz	t1, 0x1eed6 <__subtf3+0x562>
   1eec6: 2e 89        	mv	s2, a1
   1eec8: 63 80 0e 02  	beqz	t4, 0x1eee8 <__subtf3+0x574>
   1eecc: 01 49        	li	s2, 0x0
   1eece: 42 87        	mv	a4, a6
   1eed0: 19 a8        	j	0x1eee6 <__subtf3+0x572>
   1eed2: e3 03 c3 ff  	beq	t1, t3, 0x1eeb8 <__subtf3+0x544>
   1eed6: 63 9d 0e 00  	bnez	t4, 0x1eef0 <__subtf3+0x57c>
   1eeda: 2e 89        	mv	s2, a1
   1eedc: e3 92 06 d4  	bnez	a3, 0x1ec20 <__subtf3+0x2ac>
   1eee0: 05 47        	li	a4, 0x1
   1eee2: 01 49        	li	s2, 0x0
   1eee4: 4a 17        	slli	a4, a4, 0x32
   1eee6: 01 46        	li	a2, 0x0
   1eee8: a1 69        	lui	s3, 0x8
   1eeea: fd 19        	addi	s3, s3, -0x1
   1eeec: c1 47        	li	a5, 0x10
   1eeee: 29 b1        	j	0x1eaf8 <__subtf3+0x184>
   1eef0: e3 86 06 d2  	beqz	a3, 0x1ec1c <__subtf3+0x2a8>
   1eef4: 05 47        	li	a4, 0x1
   1eef6: 01 49        	li	s2, 0x0
   1eef8: 4a 17        	slli	a4, a4, 0x32
   1eefa: 01 46        	li	a2, 0x0
   1eefc: 15 b3        	j	0x1ec20 <__subtf3+0x2ac>
   1eefe: b3 07 c5 40  	sub	a5, a0, a2
   1ef02: b3 36 f5 00  	sltu	a3, a0, a5
   1ef06: 33 84 e8 40  	sub	s0, a7, a4
   1ef0a: 15 8c        	sub	s0, s0, a3
   1ef0c: 93 16 c4 00  	slli	a3, s0, 0xc
   1ef10: 3e 8a        	mv	s4, a5
   1ef12: 63 d5 06 06  	bgez	a3, 0x1ef7c <__subtf3+0x608>
   1ef16: 33 0a a6 40  	sub	s4, a2, a0
   1ef1a: 33 04 17 41  	sub	s0, a4, a7
   1ef1e: 33 36 46 01  	sltu	a2, a2, s4
   1ef22: 11 8c        	sub	s0, s0, a2
   1ef24: 2e 89        	mv	s2, a1
   1ef26: 39 cc        	beqz	s0, 0x1ef84 <__subtf3+0x610>
   1ef28: 22 85        	mv	a0, s0
   1ef2a: ef 00 c0 50  	jal	0x1f436 <__clzdi2>
   1ef2e: 1b 06 45 ff  	addiw	a2, a0, -0xc
   1ef32: 13 07 00 04  	li	a4, 0x40
   1ef36: 11 9f        	subw	a4, a4, a2
   1ef38: 33 14 c4 00  	sll	s0, s0, a2
   1ef3c: 33 57 ea 00  	srl	a4, s4, a4
   1ef40: 41 8f        	or	a4, a4, s0
   1ef42: 33 14 ca 00  	sll	s0, s4, a2
   1ef46: 63 41 36 09  	blt	a2, s3, 0x1efc8 <__subtf3+0x654>
   1ef4a: 3b 06 36 41  	subw	a2, a2, s3
   1ef4e: 9b 08 16 00  	addiw	a7, a2, 0x1
   1ef52: 93 07 f0 03  	li	a5, 0x3f
   1ef56: 63 c5 17 05  	blt	a5, a7, 0x1efa0 <__subtf3+0x62c>
   1ef5a: 93 07 00 04  	li	a5, 0x40
   1ef5e: bb 87 17 41  	subw	a5, a5, a7
   1ef62: 33 16 f7 00  	sll	a2, a4, a5
   1ef66: b3 56 14 01  	srl	a3, s0, a7
   1ef6a: b3 17 f4 00  	sll	a5, s0, a5
   1ef6e: 55 8e        	or	a2, a2, a3
   1ef70: b3 37 f0 00  	snez	a5, a5
   1ef74: 5d 8e        	or	a2, a2, a5
   1ef76: b3 58 17 01  	srl	a7, a4, a7
   1ef7a: c1 bd        	j	0x1ee4a <__subtf3+0x4d6>
   1ef7c: 33 e6 87 00  	or	a2, a5, s0
   1ef80: 5d f2        	bnez	a2, 0x1ef26 <__subtf3+0x5b2>
   1ef82: 09 bf        	j	0x1ee94 <__subtf3+0x520>
   1ef84: 52 85        	mv	a0, s4
   1ef86: ef 00 00 4b  	jal	0x1f436 <__clzdi2>
   1ef8a: 1b 06 45 03  	addiw	a2, a0, 0x34
   1ef8e: 93 07 f0 03  	li	a5, 0x3f
   1ef92: e3 d0 c7 fa  	bge	a5, a2, 0x1ef32 <__subtf3+0x5be>
   1ef96: 1b 07 45 ff  	addiw	a4, a0, -0xc
   1ef9a: 33 17 ea 00  	sll	a4, s4, a4
   1ef9e: 65 b7        	j	0x1ef46 <__subtf3+0x5d2>
   1efa0: 1b 06 16 fc  	addiw	a2, a2, -0x3f
   1efa4: 93 05 00 04  	li	a1, 0x40
   1efa8: 33 56 c7 00  	srl	a2, a4, a2
   1efac: 81 47        	li	a5, 0x0
   1efae: 63 88 b8 00  	beq	a7, a1, 0x1efbe <__subtf3+0x64a>
   1efb2: 93 07 00 08  	li	a5, 0x80
   1efb6: bb 87 17 41  	subw	a5, a5, a7
   1efba: b3 17 f7 00  	sll	a5, a4, a5
   1efbe: c1 8f        	or	a5, a5, s0
   1efc0: b3 37 f0 00  	snez	a5, a5
   1efc4: 5d 8e        	or	a2, a2, a5
   1efc6: d9 bd        	j	0x1ee9c <__subtf3+0x528>
   1efc8: fd 57        	li	a5, -0x1
   1efca: ce 17        	slli	a5, a5, 0x33
   1efcc: fd 17        	addi	a5, a5, -0x1
   1efce: b3 89 c9 40  	sub	s3, s3, a2
   1efd2: 7d 8f        	and	a4, a4, a5
   1efd4: 22 86        	mv	a2, s0
   1efd6: 81 47        	li	a5, 0x0
   1efd8: 05 b6        	j	0x1eaf8 <__subtf3+0x184>
   1efda: 93 16 16 00  	slli	a3, a2, 0x1
   1efde: 93 57 f6 03  	srli	a5, a2, 0x3f
   1efe2: 13 97 18 00  	slli	a4, a7, 0x1
   1efe6: 93 f5 76 00  	andi	a1, a3, 0x7
   1efea: 3e 97        	add	a4, a4, a5
   1efec: 81 47        	li	a5, 0x0
   1efee: 85 c1        	beqz	a1, 0x1f00e <__subtf3+0x69a>
   1eff0: 89 47        	li	a5, 0x2
   1eff2: 63 84 f4 06  	beq	s1, a5, 0x1f05a <__subtf3+0x6e6>
   1eff6: 8d 47        	li	a5, 0x3
   1eff8: 63 88 f4 04  	beq	s1, a5, 0x1f048 <__subtf3+0x6d4>
   1effc: 85 47        	li	a5, 0x1
   1effe: 81 e8        	bnez	s1, 0x1f00e <__subtf3+0x69a>
   1f000: 93 f5 f6 00  	andi	a1, a3, 0xf
   1f004: 11 45        	li	a0, 0x4
   1f006: 93 b6 c6 ff  	sltiu	a3, a3, -0x4
   1f00a: 63 94 a5 04  	bne	a1, a0, 0x1f052 <__subtf3+0x6de>
   1f00e: 51 93        	srli	a4, a4, 0x34
   1f010: 13 47 17 00  	xori	a4, a4, 0x1
   1f014: 05 8b        	andi	a4, a4, 0x1
   1f016: 32 85        	mv	a0, a2
   1f018: 81 49        	li	s3, 0x0
   1f01a: 93 76 76 00  	andi	a3, a2, 0x7
   1f01e: a9 ca        	beqz	a3, 0x1f070 <__subtf3+0x6fc>
   1f020: 89 46        	li	a3, 0x2
   1f022: 93 e7 17 00  	ori	a5, a5, 0x1
   1f026: 63 83 d4 04  	beq	s1, a3, 0x1f06c <__subtf3+0x6f8>
   1f02a: 8d 46        	li	a3, 0x3
   1f02c: 63 8b d4 02  	beq	s1, a3, 0x1f062 <__subtf3+0x6ee>
   1f030: a1 e0        	bnez	s1, 0x1f070 <__subtf3+0x6fc>
   1f032: 93 76 f6 00  	andi	a3, a2, 0xf
   1f036: 91 45        	li	a1, 0x4
   1f038: 63 8c b6 02  	beq	a3, a1, 0x1f070 <__subtf3+0x6fc>
   1f03c: 13 05 46 00  	addi	a0, a2, 0x4
   1f040: 33 36 c5 00  	sltu	a2, a0, a2
   1f044: b2 98        	add	a7, a7, a2
   1f046: 2d a0        	j	0x1f070 <__subtf3+0x6fc>
   1f048: 85 47        	li	a5, 0x1
   1f04a: e3 12 09 fc  	bnez	s2, 0x1f00e <__subtf3+0x69a>
   1f04e: 93 b6 86 ff  	sltiu	a3, a3, -0x8
   1f052: 93 c6 16 00  	xori	a3, a3, 0x1
   1f056: 36 97        	add	a4, a4, a3
   1f058: 5d bf        	j	0x1f00e <__subtf3+0x69a>
   1f05a: 85 47        	li	a5, 0x1
   1f05c: e3 09 09 fa  	beqz	s2, 0x1f00e <__subtf3+0x69a>
   1f060: fd b7        	j	0x1f04e <__subtf3+0x6da>
   1f062: 63 17 09 00  	bnez	s2, 0x1f070 <__subtf3+0x6fc>
   1f066: 13 05 86 00  	addi	a0, a2, 0x8
   1f06a: d9 bf        	j	0x1f040 <__subtf3+0x6cc>
   1f06c: e3 1d 09 fe  	bnez	s2, 0x1f066 <__subtf3+0x6f2>
   1f070: 09 c7        	beqz	a4, 0x1f07a <__subtf3+0x706>
   1f072: 13 f7 17 00  	andi	a4, a5, 0x1
   1f076: 06 07        	slli	a4, a4, 0x1
   1f078: d9 8f        	or	a5, a5, a4
   1f07a: 13 97 c8 00  	slli	a4, a7, 0xc
   1f07e: 63 5c 07 00  	bgez	a4, 0x1f096 <__subtf3+0x722>
   1f082: 21 67        	lui	a4, 0x8
   1f084: 85 09        	addi	s3, s3, 0x1
   1f086: 7d 17        	addi	a4, a4, -0x1
   1f088: 63 81 e9 06  	beq	s3, a4, 0x1f0ea <__subtf3+0x776>
   1f08c: 7d 57        	li	a4, -0x1
   1f08e: 4e 17        	slli	a4, a4, 0x33
   1f090: 7d 17        	addi	a4, a4, -0x1
   1f092: b3 f8 e8 00  	and	a7, a7, a4
   1f096: 13 97 d8 03  	slli	a4, a7, 0x3d
   1f09a: 0d 81        	srli	a0, a0, 0x3
   1f09c: 59 8d        	or	a0, a0, a4
   1f09e: 21 67        	lui	a4, 0x8
   1f0a0: 7d 17        	addi	a4, a4, -0x1
   1f0a2: 93 d8 38 00  	srli	a7, a7, 0x3
   1f0a6: 63 9a e9 00  	bne	s3, a4, 0x1f0ba <__subtf3+0x746>
   1f0aa: 33 65 15 01  	or	a0, a0, a7
   1f0ae: 81 48        	li	a7, 0x0
   1f0b0: 09 c5        	beqz	a0, 0x1f0ba <__subtf3+0x746>
   1f0b2: 85 48        	li	a7, 0x1
   1f0b4: be 18        	slli	a7, a7, 0x2f
   1f0b6: 01 45        	li	a0, 0x0
   1f0b8: 01 49        	li	s2, 0x0
   1f0ba: c6 19        	slli	s3, s3, 0x31
   1f0bc: 1b 19 f9 00  	slliw	s2, s2, 0xf
   1f0c0: 93 d9 19 03  	srli	s3, s3, 0x31
   1f0c4: 93 95 08 01  	slli	a1, a7, 0x10
   1f0c8: b3 e9 29 01  	or	s3, s3, s2
   1f0cc: c2 19        	slli	s3, s3, 0x30
   1f0ce: c1 81        	srli	a1, a1, 0x10
   1f0d0: b3 e5 35 01  	or	a1, a1, s3
   1f0d4: 99 c3        	beqz	a5, 0x1f0da <__subtf3+0x766>
   1f0d6: 73 a0 17 00  	csrs	fflags, a5
   1f0da: a2 70        	ld	ra, 0x28(sp)
   1f0dc: 02 74        	ld	s0, 0x20(sp)
   1f0de: e2 64        	ld	s1, 0x18(sp)
   1f0e0: 42 69        	ld	s2, 0x10(sp)
   1f0e2: a2 69        	ld	s3, 0x8(sp)
   1f0e4: 02 6a        	ld	s4, 0x0(sp)
   1f0e6: 45 61        	addi	sp, sp, 0x30
   1f0e8: 82 80        	ret
   1f0ea: 01 45        	li	a0, 0x0
   1f0ec: 99 cc        	beqz	s1, 0x1f10a <__subtf3+0x796>
   1f0ee: 0d 47        	li	a4, 0x3
   1f0f0: 63 98 e4 00  	bne	s1, a4, 0x1f100 <__subtf3+0x78c>
   1f0f4: 63 0b 09 00  	beqz	s2, 0x1f10a <__subtf3+0x796>
   1f0f8: a1 69        	lui	s3, 0x8
   1f0fa: 7d 55        	li	a0, -0x1
   1f0fc: f9 19        	addi	s3, s3, -0x2
   1f0fe: 31 a0        	j	0x1f10a <__subtf3+0x796>
   1f100: 09 47        	li	a4, 0x2
   1f102: e3 9b e4 fe  	bne	s1, a4, 0x1f0f8 <__subtf3+0x784>
   1f106: e3 09 09 fe  	beqz	s2, 0x1f0f8 <__subtf3+0x784>
   1f10a: 93 e7 57 00  	ori	a5, a5, 0x5
   1f10e: aa 88        	mv	a7, a0
   1f110: 59 b7        	j	0x1f096 <__subtf3+0x722>
   1f112: 01 47        	li	a4, 0x0
   1f114: 01 46        	li	a2, 0x0
   1f116: 9a 89        	mv	s3, t1
   1f118: 7d bd        	j	0x1efd6 <__subtf3+0x662>
   1f11a: 01 47        	li	a4, 0x0
   1f11c: 6d bd        	j	0x1efd6 <__subtf3+0x662>
   1f11e: 01 47        	li	a4, 0x0
   1f120: 01 46        	li	a2, 0x0
   1f122: 9a 89        	mv	s3, t1
   1f124: 2e 89        	mv	s2, a1
   1f126: 45 bd        	j	0x1efd6 <__subtf3+0x662>
   1f128: ba 88        	mv	a7, a4
   1f12a: 05 b3        	j	0x1ee4a <__subtf3+0x4d6>
   1f12c: ba 88        	mv	a7, a4
   1f12e: a9 bb        	j	0x1ee88 <__subtf3+0x514>
   1f130: 2a 86        	mv	a2, a0
   1f132: 21 bb        	j	0x1ee4a <__subtf3+0x4d6>
   1f134: be 88        	mv	a7, a5
   1f136: 36 86        	mv	a2, a3
   1f138: 09 bb        	j	0x1ee4a <__subtf3+0x4d6>
   1f13a: e3 10 03 db  	bne	t1, a6, 0x1eeda <__subtf3+0x566>
   1f13e: ad bb        	j	0x1eeb8 <__subtf3+0x544>
   1f140: e3 1c 03 9b  	bne	t1, a6, 0x1eaf8 <__subtf3+0x184>
   1f144: 6d bc        	j	0x1ebfe <__subtf3+0x28a>

000000000001f146 <__unordtf2>:
   1f146: 2a 87        	mv	a4, a0
   1f148: f3 27 20 00  	frrm	a5
   1f14c: 7d 55        	li	a0, -0x1
   1f14e: 93 57 05 01  	srli	a5, a0, 0x10
   1f152: 21 68        	lui	a6, 0x8
   1f154: b3 f8 f5 00  	and	a7, a1, a5
   1f158: 7d 18        	addi	a6, a6, -0x1
   1f15a: c1 91        	srli	a1, a1, 0x30
   1f15c: f5 8f        	and	a5, a5, a3
   1f15e: b3 f5 05 01  	and	a1, a1, a6
   1f162: c1 92        	srli	a3, a3, 0x30
   1f164: b3 f6 06 01  	and	a3, a3, a6
   1f168: 63 96 05 01  	bne	a1, a6, 0x1f174 <__unordtf2+0x2e>
   1f16c: 33 63 17 01  	or	t1, a4, a7
   1f170: 63 13 03 02  	bnez	t1, 0x1f196 <__unordtf2+0x50>
   1f174: 01 45        	li	a0, 0x0
   1f176: 63 92 06 05  	bne	a3, a6, 0x1f1ba <__unordtf2+0x74>
   1f17a: 33 68 f6 00  	or	a6, a2, a5
   1f17e: 63 0e 08 02  	beqz	a6, 0x1f1ba <__unordtf2+0x74>
   1f182: 63 93 d5 02  	bne	a1, a3, 0x1f1a8 <__unordtf2+0x62>
   1f186: 33 67 17 01  	or	a4, a4, a7
   1f18a: 01 cf        	beqz	a4, 0x1f1a2 <__unordtf2+0x5c>
   1f18c: 7d 57        	li	a4, -0x1
   1f18e: 45 83        	srli	a4, a4, 0x11
   1f190: 63 71 17 03  	bgeu	a4, a7, 0x1f1b2 <__unordtf2+0x6c>
   1f194: 39 a0        	j	0x1f1a2 <__unordtf2+0x5c>
   1f196: 45 81        	srli	a0, a0, 0x11
   1f198: 63 7d 15 01  	bgeu	a0, a7, 0x1f1b2 <__unordtf2+0x6c>
   1f19c: 05 45        	li	a0, 0x1
   1f19e: 63 9e b6 00  	bne	a3, a1, 0x1f1ba <__unordtf2+0x74>
   1f1a2: 5d 8e        	or	a2, a2, a5
   1f1a4: 05 45        	li	a0, 0x1
   1f1a6: 11 ca        	beqz	a2, 0x1f1ba <__unordtf2+0x74>
   1f1a8: 7d 57        	li	a4, -0x1
   1f1aa: 45 83        	srli	a4, a4, 0x11
   1f1ac: 05 45        	li	a0, 0x1
   1f1ae: 63 66 f7 00  	bltu	a4, a5, 0x1f1ba <__unordtf2+0x74>
   1f1b2: 73 60 18 00  	csrsi	fflags, 0x10
   1f1b6: 05 45        	li	a0, 0x1
   1f1b8: 82 80        	ret
   1f1ba: 82 80        	ret

000000000001f1bc <__fixtfsi>:
   1f1bc: f3 27 20 00  	frrm	a5
   1f1c0: 11 67        	lui	a4, 0x4
   1f1c2: 93 96 15 00  	slli	a3, a1, 0x1
   1f1c6: 93 97 05 01  	slli	a5, a1, 0x10
   1f1ca: c5 92        	srli	a3, a3, 0x31
   1f1cc: 79 17        	addi	a4, a4, -0x2
   1f1ce: c1 83        	srli	a5, a5, 0x10
   1f1d0: fd 91        	srli	a1, a1, 0x3f
   1f1d2: 63 47 d7 00  	blt	a4, a3, 0x1f1e0 <__fixtfsi+0x24>
   1f1d6: b1 ee        	bnez	a3, 0x1f232 <__fixtfsi+0x76>
   1f1d8: c9 8f        	or	a5, a5, a0
   1f1da: 01 45        	li	a0, 0x0
   1f1dc: a9 eb        	bnez	a5, 0x1f22e <__fixtfsi+0x72>
   1f1de: 82 80        	ret
   1f1e0: 11 67        	lui	a4, 0x4
   1f1e2: 75 07        	addi	a4, a4, 0x1d
   1f1e4: 63 50 d7 02  	bge	a4, a3, 0x1f204 <__fixtfsi+0x48>
   1f1e8: b9 c5        	beqz	a1, 0x1f236 <__fixtfsi+0x7a>
   1f1ea: 11 67        	lui	a4, 0x4
   1f1ec: 79 07        	addi	a4, a4, 0x1e
   1f1ee: 63 9c e6 04  	bne	a3, a4, 0x1f246 <__fixtfsi+0x8a>
   1f1f2: 13 d7 17 01  	srli	a4, a5, 0x11
   1f1f6: 21 eb        	bnez	a4, 0x1f246 <__fixtfsi+0x8a>
   1f1f8: be 17        	slli	a5, a5, 0x2f
   1f1fa: 5d 8d        	or	a0, a0, a5
   1f1fc: 21 e9        	bnez	a0, 0x1f24c <__fixtfsi+0x90>
   1f1fe: 37 05 00 80  	lui	a0, 0x80000
   1f202: 82 80        	ret
   1f204: 05 47        	li	a4, 0x1
   1f206: 42 17        	slli	a4, a4, 0x30
   1f208: d9 8f        	or	a5, a5, a4
   1f20a: 11 66        	lui	a2, 0x4
   1f20c: 71 77        	lui	a4, 0xffffc
   1f20e: 45 27        	addiw	a4, a4, 0x11
   1f210: 1b 06 f6 02  	addiw	a2, a2, 0x2f
   1f214: 35 9f        	addw	a4, a4, a3
   1f216: 15 9e        	subw	a2, a2, a3
   1f218: 33 97 e7 00  	sll	a4, a5, a4
   1f21c: b3 d7 c7 00  	srl	a5, a5, a2
   1f220: 49 8f        	or	a4, a4, a0
   1f222: 1b 85 07 00  	sext.w	a0, a5
   1f226: 99 c1        	beqz	a1, 0x1f22c <__fixtfsi+0x70>
   1f228: 3b 05 a0 40  	negw	a0, a0
   1f22c: 01 cf        	beqz	a4, 0x1f244 <__fixtfsi+0x88>
   1f22e: 85 47        	li	a5, 0x1
   1f230: 01 a8        	j	0x1f240 <__fixtfsi+0x84>
   1f232: 01 45        	li	a0, 0x0
   1f234: ed bf        	j	0x1f22e <__fixtfsi+0x72>
   1f236: 37 05 00 80  	lui	a0, 0x80000
   1f23a: 13 45 f5 ff  	not	a0, a0
   1f23e: c1 47        	li	a5, 0x10
   1f240: 73 a0 17 00  	csrs	fflags, a5
   1f244: 82 80        	ret
   1f246: 37 05 00 80  	lui	a0, 0x80000
   1f24a: d5 bf        	j	0x1f23e <__fixtfsi+0x82>
   1f24c: 37 05 00 80  	lui	a0, 0x80000
   1f250: f9 bf        	j	0x1f22e <__fixtfsi+0x72>

000000000001f252 <__floatsitf>:
   1f252: 01 11        	addi	sp, sp, -0x20
   1f254: 06 ec        	sd	ra, 0x18(sp)
   1f256: 22 e8        	sd	s0, 0x10(sp)
   1f258: 26 e4        	sd	s1, 0x8(sp)
   1f25a: 39 c1        	beqz	a0, 0x1f2a0 <__floatsitf+0x4e>
   1f25c: 9b 07 05 00  	sext.w	a5, a0
   1f260: 93 54 f5 03  	srli	s1, a0, 0x3f
   1f264: 63 54 05 00  	bgez	a0, 0x1f26c <__floatsitf+0x1a>
   1f268: bb 07 f0 40  	negw	a5, a5
   1f26c: 13 94 07 02  	slli	s0, a5, 0x20
   1f270: 01 90        	srli	s0, s0, 0x20
   1f272: 22 85        	mv	a0, s0
   1f274: ef 00 20 1c  	jal	0x1f436 <__clzdi2>
   1f278: 91 65        	lui	a1, 0x4
   1f27a: 9b 85 e5 03  	addiw	a1, a1, 0x3e
   1f27e: 89 9d        	subw	a1, a1, a0
   1f280: 45 35        	addiw	a0, a0, -0xf
   1f282: b3 17 a4 00  	sll	a5, s0, a0
   1f286: e2 60        	ld	ra, 0x18(sp)
   1f288: 42 64        	ld	s0, 0x10(sp)
   1f28a: 9b 94 f4 00  	slliw	s1, s1, 0xf
   1f28e: c5 8d        	or	a1, a1, s1
   1f290: c2 07        	slli	a5, a5, 0x10
   1f292: c2 15        	slli	a1, a1, 0x30
   1f294: c1 83        	srli	a5, a5, 0x10
   1f296: a2 64        	ld	s1, 0x8(sp)
   1f298: 01 45        	li	a0, 0x0
   1f29a: dd 8d        	or	a1, a1, a5
   1f29c: 05 61        	addi	sp, sp, 0x20
   1f29e: 82 80        	ret
   1f2a0: 81 47        	li	a5, 0x0
   1f2a2: 81 45        	li	a1, 0x0
   1f2a4: 81 44        	li	s1, 0x0
   1f2a6: c5 b7        	j	0x1f286 <__floatsitf+0x34>

000000000001f2a8 <__extenddftf2>:
   1f2a8: 01 11        	addi	sp, sp, -0x20
   1f2aa: d3 07 05 e2  	fmv.x.d	a5, fa0
   1f2ae: 06 ec        	sd	ra, 0x18(sp)
   1f2b0: 22 e8        	sd	s0, 0x10(sp)
   1f2b2: 26 e4        	sd	s1, 0x8(sp)
   1f2b4: 73 27 20 00  	frrm	a4
   1f2b8: 13 d5 47 03  	srli	a0, a5, 0x34
   1f2bc: 13 75 f5 7f  	andi	a0, a0, 0x7ff
   1f2c0: 13 94 c7 00  	slli	s0, a5, 0xc
   1f2c4: 93 d4 f7 03  	srli	s1, a5, 0x3f
   1f2c8: 93 07 15 00  	addi	a5, a0, 0x1
   1f2cc: 93 f7 e7 7f  	andi	a5, a5, 0x7fe
   1f2d0: 31 80        	srli	s0, s0, 0xc
   1f2d2: 91 cb        	beqz	a5, 0x1f2e6 <__extenddftf2+0x3e>
   1f2d4: 91 67        	lui	a5, 0x4
   1f2d6: 93 87 07 c0  	addi	a5, a5, -0x400
   1f2da: 93 55 44 00  	srli	a1, s0, 0x4
   1f2de: 3e 95        	add	a0, a0, a5
   1f2e0: 72 14        	slli	s0, s0, 0x3c
   1f2e2: 81 47        	li	a5, 0x0
   1f2e4: b1 a8        	j	0x1f340 <__extenddftf2+0x98>
   1f2e6: 1d ed        	bnez	a0, 0x1f324 <__extenddftf2+0x7c>
   1f2e8: 81 45        	li	a1, 0x0
   1f2ea: 65 dc        	beqz	s0, 0x1f2e2 <__extenddftf2+0x3a>
   1f2ec: 22 85        	mv	a0, s0
   1f2ee: ef 00 80 14  	jal	0x1f436 <__clzdi2>
   1f2f2: 1b 07 05 00  	sext.w	a4, a0
   1f2f6: b9 47        	li	a5, 0xe
   1f2f8: 63 c0 e7 02  	blt	a5, a4, 0x1f318 <__extenddftf2+0x70>
   1f2fc: bd 45        	li	a1, 0xf
   1f2fe: 89 9d        	subw	a1, a1, a0
   1f300: 9b 07 15 03  	addiw	a5, a0, 0x31
   1f304: b3 55 b4 00  	srl	a1, s0, a1
   1f308: 33 14 f4 00  	sll	s0, s0, a5
   1f30c: 91 67        	lui	a5, 0x4
   1f30e: 9b 87 c7 c0  	addiw	a5, a5, -0x3f4
   1f312: 3b 85 a7 40  	subw	a0, a5, a0
   1f316: f1 b7        	j	0x1f2e2 <__extenddftf2+0x3a>
   1f318: 9b 05 15 ff  	addiw	a1, a0, -0xf
   1f31c: b3 15 b4 00  	sll	a1, s0, a1
   1f320: 01 44        	li	s0, 0x0
   1f322: ed b7        	j	0x1f30c <__extenddftf2+0x64>
   1f324: 15 cc        	beqz	s0, 0x1f360 <__extenddftf2+0xb8>
   1f326: 85 47        	li	a5, 0x1
   1f328: ce 17        	slli	a5, a5, 0x33
   1f32a: 05 47        	li	a4, 0x1
   1f32c: b3 37 f4 00  	sltu	a5, s0, a5
   1f330: 93 55 44 00  	srli	a1, s0, 0x4
   1f334: 3e 17        	slli	a4, a4, 0x2f
   1f336: 21 65        	lui	a0, 0x8
   1f338: 92 07        	slli	a5, a5, 0x4
   1f33a: 72 14        	slli	s0, s0, 0x3c
   1f33c: d9 8d        	or	a1, a1, a4
   1f33e: 7d 15        	addi	a0, a0, -0x1
   1f340: 9b 94 f4 00  	slliw	s1, s1, 0xf
   1f344: c2 05        	slli	a1, a1, 0x10
   1f346: 45 8d        	or	a0, a0, s1
   1f348: 42 15        	slli	a0, a0, 0x30
   1f34a: c1 81        	srli	a1, a1, 0x10
   1f34c: c9 8d        	or	a1, a1, a0
   1f34e: 99 c3        	beqz	a5, 0x1f354 <__extenddftf2+0xac>
   1f350: 73 60 18 00  	csrsi	fflags, 0x10
   1f354: e2 60        	ld	ra, 0x18(sp)
   1f356: 22 85        	mv	a0, s0
   1f358: 42 64        	ld	s0, 0x10(sp)
   1f35a: a2 64        	ld	s1, 0x8(sp)
   1f35c: 05 61        	addi	sp, sp, 0x20
   1f35e: 82 80        	ret
   1f360: 21 65        	lui	a0, 0x8
   1f362: 81 45        	li	a1, 0x0
   1f364: 7d 15        	addi	a0, a0, -0x1
   1f366: b5 bf        	j	0x1f2e2 <__extenddftf2+0x3a>

000000000001f368 <__muldi3>:
   1f368: 2a 86        	mv	a2, a0
   1f36a: 01 45        	li	a0, 0x0
   1f36c: 93 f6 15 00  	andi	a3, a1, 0x1
   1f370: 91 c2        	beqz	a3, 0x1f374 <__muldi3+0xc>
   1f372: 32 95        	add	a0, a0, a2
   1f374: 85 81        	srli	a1, a1, 0x1
   1f376: 06 06        	slli	a2, a2, 0x1
   1f378: f5 f9        	bnez	a1, 0x1f36c <__muldi3+0x4>
   1f37a: 82 80        	ret
   1f37c: 00 00        	unimp
   1f37e: 00 00        	unimp

000000000001f380 <__udivsi3>:
   1f380: 02 15        	slli	a0, a0, 0x20
   1f382: 82 15        	slli	a1, a1, 0x20
   1f384: 86 82        	mv	t0, ra
   1f386: ef 00 a0 02  	jal	0x1f3b0 <__udivdi3>
   1f38a: 01 25        	sext.w	a0, a0
   1f38c: 82 82        	jr	t0

000000000001f38e <__umodsi3>:
   1f38e: 02 15        	slli	a0, a0, 0x20
   1f390: 82 15        	slli	a1, a1, 0x20
   1f392: 01 91        	srli	a0, a0, 0x20
   1f394: 81 91        	srli	a1, a1, 0x20
   1f396: 86 82        	mv	t0, ra
   1f398: ef 00 80 01  	jal	0x1f3b0 <__udivdi3>
   1f39c: 1b 85 05 00  	sext.w	a0, a1
   1f3a0: 82 82        	jr	t0

000000000001f3a2 <__divsi3>:
   1f3a2: fd 52        	li	t0, -0x1
   1f3a4: 63 84 55 08  	beq	a1, t0, 0x1f42c <__modsi3+0x28>

000000000001f3a8 <__divdi3>:
   1f3a8: 63 4f 05 02  	bltz	a0, 0x1f3e6 <__umoddi3+0xa>
   1f3ac: 63 c4 05 04  	bltz	a1, 0x1f3f4 <__umoddi3+0x18>

000000000001f3b0 <__udivdi3>:
   1f3b0: 2e 86        	mv	a2, a1
   1f3b2: aa 85        	mv	a1, a0
   1f3b4: 7d 55        	li	a0, -0x1
   1f3b6: 15 c2        	beqz	a2, 0x1f3da <__udivdi3+0x2a>
   1f3b8: 85 46        	li	a3, 0x1
   1f3ba: 63 78 b6 00  	bgeu	a2, a1, 0x1f3ca <__udivdi3+0x1a>
   1f3be: 63 56 c0 00  	blez	a2, 0x1f3ca <__udivdi3+0x1a>
   1f3c2: 06 06        	slli	a2, a2, 0x1
   1f3c4: 86 06        	slli	a3, a3, 0x1
   1f3c6: e3 6c b6 fe  	bltu	a2, a1, 0x1f3be <__udivdi3+0xe>
   1f3ca: 01 45        	li	a0, 0x0
   1f3cc: 63 e4 c5 00  	bltu	a1, a2, 0x1f3d4 <__udivdi3+0x24>
   1f3d0: 91 8d        	sub	a1, a1, a2
   1f3d2: 55 8d        	or	a0, a0, a3
   1f3d4: 85 82        	srli	a3, a3, 0x1
   1f3d6: 05 82        	srli	a2, a2, 0x1
   1f3d8: f5 fa        	bnez	a3, 0x1f3cc <__udivdi3+0x1c>
   1f3da: 82 80        	ret

000000000001f3dc <__umoddi3>:
   1f3dc: 86 82        	mv	t0, ra
   1f3de: ef f0 3f fd  	jal	0x1f3b0 <__udivdi3>
   1f3e2: 2e 85        	mv	a0, a1
   1f3e4: 82 82        	jr	t0
   1f3e6: 33 05 a0 40  	neg	a0, a0
   1f3ea: 63 47 b0 00  	bgtz	a1, 0x1f3f8 <__umoddi3+0x1c>
   1f3ee: b3 05 b0 40  	neg	a1, a1
   1f3f2: 7d bf        	j	0x1f3b0 <__udivdi3>
   1f3f4: b3 05 b0 40  	neg	a1, a1
   1f3f8: 86 82        	mv	t0, ra
   1f3fa: ef f0 7f fb  	jal	0x1f3b0 <__udivdi3>
   1f3fe: 33 05 a0 40  	neg	a0, a0
   1f402: 82 82        	jr	t0

000000000001f404 <__modsi3>:
   1f404: 86 82        	mv	t0, ra
   1f406: 63 c8 05 00  	bltz	a1, 0x1f416 <__modsi3+0x12>
   1f40a: 63 4a 05 00  	bltz	a0, 0x1f41e <__modsi3+0x1a>
   1f40e: ef f0 3f fa  	jal	0x1f3b0 <__udivdi3>
   1f412: 2e 85        	mv	a0, a1
   1f414: 82 82        	jr	t0
   1f416: b3 05 b0 40  	neg	a1, a1
   1f41a: e3 5a 05 fe  	bgez	a0, 0x1f40e <__modsi3+0xa>
   1f41e: 33 05 a0 40  	neg	a0, a0
   1f422: ef f0 ff f8  	jal	0x1f3b0 <__udivdi3>
   1f426: 33 05 b0 40  	neg	a0, a1
   1f42a: 82 82        	jr	t0
   1f42c: fe 02        	slli	t0, t0, 0x1f
   1f42e: e3 1d 55 f6  	bne	a0, t0, 0x1f3a8 <__divdi3>
   1f432: 82 80        	ret
   1f434: 00 00        	unimp

000000000001f436 <__clzdi2>:
   1f436: 93 57 85 03  	srli	a5, a0, 0x38
   1f43a: 8d eb        	bnez	a5, 0x1f46c <__clzdi2+0x36>
   1f43c: 93 07 80 03  	li	a5, 0x38
   1f440: e1 17        	addi	a5, a5, -0x8
   1f442: 91 c7        	beqz	a5, 0x1f44e <__clzdi2+0x18>
   1f444: 33 57 f5 00  	srl	a4, a0, a5
   1f448: 13 77 f7 0f  	andi	a4, a4, 0xff
   1f44c: 75 db        	beqz	a4, 0x1f440 <__clzdi2+0xa>
   1f44e: 37 07 02 00  	lui	a4, 0x20
   1f452: 93 06 00 04  	li	a3, 0x40
   1f456: 9d 8e        	sub	a3, a3, a5
   1f458: 33 55 f5 00  	srl	a0, a0, a5
   1f45c: 93 07 07 38  	addi	a5, a4, 0x380
   1f460: aa 97        	add	a5, a5, a0
   1f462: 03 c5 07 00  	lbu	a0, 0x0(a5)
   1f466: 3b 85 a6 40  	subw	a0, a3, a0
   1f46a: 82 80        	ret
   1f46c: 93 07 80 03  	li	a5, 0x38
   1f470: f9 bf        	j	0x1f44e <__clzdi2+0x18>
