
dynamic_baseISA_rijndael:	file format elf64-littleriscv

Disassembly of section .text:

0000000000010120 <exit>:
   10120: 41 11        	c.addi	sp, -0x10
   10122: 81 45        	c.li	a1, 0x0
   10124: 22 e0        	c.sdsp	s0, 0x0(sp)
   10126: 06 e4        	c.sdsp	ra, 0x8(sp)
   10128: 2a 84        	c.mv	s0, a0
   1012a: ef 40 30 1e  	jal	ra, 0x14b0c <__call_exitprocs>
   1012e: 83 b7 81 23  	ld	a5, 0x238(gp)
   10132: 91 c3        	c.beqz	a5, 0x10136 <exit+0x16>
   10134: 82 97        	c.jalr	a5
   10136: 22 85        	c.mv	a0, s0
   10138: ef b0 30 06  	jal	ra, 0x1b99a <_exit>

000000000001013c <register_fini>:
   1013c: 93 07 00 00  	addi	a5, zero, 0x0
   10140: 91 c7        	c.beqz	a5, 0x1014c <register_fini+0x10>
   10142: 65 65        	c.lui	a0, 0x19
   10144: 13 05 c5 95  	addi	a0, a0, -0x6a4
   10148: 6f 40 70 29  	jal	zero, 0x14bde <atexit>
   1014c: 82 80        	c.jr	ra

000000000001014e <_start>:
   1014e: 97 91 01 00  	auipc	gp, 0x19
   10152: 93 81 a1 4f  	addi	gp, gp, 0x4fa
   10156: 13 85 81 21  	addi	a0, gp, 0x218
   1015a: 17 a6 01 00  	auipc	a2, 0x1a
   1015e: 13 06 e6 ce  	addi	a2, a2, -0x312
   10162: 09 8e        	c.sub	a2, a0
   10164: 81 45        	c.li	a1, 0x0
   10166: ef 40 40 71  	jal	ra, 0x1487a <memset>
   1016a: 17 55 00 00  	auipc	a0, 0x5
   1016e: 13 05 45 a7  	addi	a0, a0, -0x58c
   10172: 19 c5        	c.beqz	a0, 0x10180 <_start+0x32>
   10174: 17 85 00 00  	auipc	a0, 0x8
   10178: 13 05 85 7e  	addi	a0, a0, 0x7e8
   1017c: ef 40 30 26  	jal	ra, 0x14bde <atexit>
   10180: ef 40 80 68  	jal	ra, 0x14808 <__libc_init_array>
   10184: 02 45        	c.lwsp	a0, 0x0(sp)
   10186: 2c 00        	c.addi4spn	a1, sp, 0x8
   10188: 01 46        	c.li	a2, 0x0
   1018a: ef 30 a0 1a  	jal	ra, 0x13334 <main>
   1018e: 49 bf        	c.j	0x10120 <exit>

0000000000010190 <__do_global_dtors_aux>:
   10190: 41 11        	c.addi	sp, -0x10
   10192: 22 e0        	c.sdsp	s0, 0x0(sp)
   10194: 83 c7 81 27  	lbu	a5, 0x278(gp)
   10198: 06 e4        	c.sdsp	ra, 0x8(sp)
   1019a: 99 ef        	c.bnez	a5, 0x101b8 <__do_global_dtors_aux+0x28>
   1019c: 93 07 00 00  	addi	a5, zero, 0x0
   101a0: 89 cb        	c.beqz	a5, 0x101b2 <__do_global_dtors_aux+0x22>
   101a2: 37 95 02 00  	lui	a0, 0x29
   101a6: 13 05 05 a3  	addi	a0, a0, -0x5d0
   101aa: 97 00 00 00  	auipc	ra, 0x0
   101ae: e7 00 00 00  	jalr	ra, 0x0(zero)
   101b2: 85 47        	c.li	a5, 0x1
   101b4: 23 8c f1 26  	sb	a5, 0x278(gp)
   101b8: a2 60        	c.ldsp	ra, 0x8(sp)
   101ba: 02 64        	c.ldsp	s0, 0x0(sp)
   101bc: 41 01        	c.addi	sp, 0x10
   101be: 82 80        	c.jr	ra

00000000000101c0 <frame_dummy>:
   101c0: 93 07 00 00  	addi	a5, zero, 0x0
   101c4: 99 cb        	c.beqz	a5, 0x101da <frame_dummy+0x1a>
   101c6: 37 95 02 00  	lui	a0, 0x29
   101ca: 93 85 01 28  	addi	a1, gp, 0x280
   101ce: 13 05 05 a3  	addi	a0, a0, -0x5d0
   101d2: 17 03 00 00  	auipc	t1, 0x0
   101d6: 67 00 00 00  	jalr	zero, 0x0(zero)
   101da: 82 80        	c.jr	ra

00000000000101dc <set_key>:
   101dc: ef c2 f0 3a  	jal	t0, 0x1cd8a <__riscv_save_3>
   101e0: 13 f7 75 00  	andi	a4, a1, 0x7
   101e4: 63 10 07 04  	bne	a4, zero, 0x10224 <set_key+0x48>
   101e8: 13 87 f5 fd  	addi	a4, a1, -0x21
   101ec: 93 07 f0 fe  	addi	a5, zero, -0x11
   101f0: 63 6a f7 02  	bltu	a4, a5, 0x10224 <set_key+0x48>
   101f4: 13 76 36 00  	andi	a2, a2, 0x3
   101f8: 63 08 06 02  	beq	a2, zero, 0x10228 <set_key+0x4c>
   101fc: 03 c7 06 41  	lbu	a4, 0x410(a3)
   10200: 13 77 c7 0f  	andi	a4, a4, 0xfc
   10204: 33 67 c7 00  	or	a4, a4, a2
   10208: 23 88 e6 40  	sb	a4, 0x410(a3)
   1020c: 93 d7 25 00  	srli	a5, a1, 0x2
   10210: 13 07 30 01  	addi	a4, zero, 0x13
   10214: 23 b0 f6 00  	sd	a5, 0x0(a3)
   10218: 63 68 b7 02  	bltu	a4, a1, 0x10248 <set_key+0x6c>
   1021c: 13 07 a0 00  	addi	a4, zero, 0xa
   10220: 6f 00 c0 02  	jal	zero, 0x1024c <set_key+0x70>
   10224: 63 8c 05 00  	beq	a1, zero, 0x1023c <set_key+0x60>
   10228: 83 c5 06 41  	lbu	a1, 0x410(a3)
   1022c: 13 05 00 00  	addi	a0, zero, 0x0
   10230: 93 f5 c5 0f  	andi	a1, a1, 0xfc
   10234: 23 88 b6 40  	sb	a1, 0x410(a3)
   10238: 6f 00 40 56  	jal	zero, 0x1079c <set_key+0x5c0>
   1023c: 03 95 06 00  	lh	a0, 0x0(a3)
   10240: 13 15 25 00  	slli	a0, a0, 0x2
   10244: 6f 00 80 55  	jal	zero, 0x1079c <set_key+0x5c0>
   10248: 13 87 67 00  	addi	a4, a5, 0x6
   1024c: 23 b4 e6 00  	sd	a4, 0x8(a3)
   10250: 83 35 05 00  	ld	a1, 0x0(a0)
   10254: 23 b8 b6 00  	sd	a1, 0x10(a3)
   10258: 03 38 45 00  	ld	a6, 0x4(a0)
   1025c: 23 bc 06 01  	sd	a6, 0x18(a3)
   10260: 03 38 85 00  	ld	a6, 0x8(a0)
   10264: 23 b0 06 03  	sd	a6, 0x20(a3)
   10268: 03 38 c5 00  	ld	a6, 0xc(a0)
   1026c: 93 88 06 01  	addi	a7, a3, 0x10
   10270: 23 b4 06 03  	sd	a6, 0x28(a3)
   10274: 13 17 57 00  	slli	a4, a4, 0x5
   10278: 33 87 e8 00  	add	a4, a7, a4
   1027c: 13 98 37 00  	slli	a6, a5, 0x3
   10280: 33 07 07 41  	sub	a4, a4, a6
   10284: 13 08 80 00  	addi	a6, zero, 0x8
   10288: 13 07 07 02  	addi	a4, a4, 0x20
   1028c: 63 8a 07 1b  	beq	a5, a6, 0x10440 <set_key+0x264>
   10290: 13 08 60 00  	addi	a6, zero, 0x6
   10294: 63 84 07 0d  	beq	a5, a6, 0x1035c <set_key+0x180>
   10298: 13 05 40 00  	addi	a0, zero, 0x4
   1029c: 63 90 a7 30  	bne	a5, a0, 0x1059c <set_key+0x3c0>
   102a0: 37 d5 01 00  	lui	a0, 0x1d
   102a4: 13 05 85 02  	addi	a0, a0, 0x28
   102a8: 13 88 86 02  	addi	a6, a3, 0x28
   102ac: b7 17 02 00  	lui	a5, 0x21
   102b0: 93 87 07 11  	addi	a5, a5, 0x110
   102b4: b7 18 00 00  	lui	a7, 0x1
   102b8: b7 22 00 00  	lui	t0, 0x2
   102bc: 03 33 08 00  	ld	t1, 0x0(a6)
   102c0: 93 53 53 00  	srli	t2, t1, 0x5
   102c4: 93 f3 83 7f  	andi	t2, t2, 0x7f8
   102c8: b3 83 77 00  	add	t2, a5, t2
   102cc: 83 b3 03 00  	ld	t2, 0x0(t2)
   102d0: 13 5e d3 00  	srli	t3, t1, 0xd
   102d4: 13 7e 8e 7f  	andi	t3, t3, 0x7f8
   102d8: 33 8e c7 01  	add	t3, a5, t3
   102dc: 13 0e fe 7f  	addi	t3, t3, 0x7ff
   102e0: 03 3e 1e 00  	ld	t3, 0x1(t3)
   102e4: 9b 5e 83 01  	srliw	t4, t1, 0x18
   102e8: 93 9e 3e 00  	slli	t4, t4, 0x3
   102ec: 33 8f 17 01  	add	t5, a5, a7
   102f0: b3 0e df 01  	add	t4, t5, t4
   102f4: 83 be 0e 00  	ld	t4, 0x0(t4)
   102f8: 13 7f f3 0f  	andi	t5, t1, 0xff
   102fc: 13 1f 3f 00  	slli	t5, t5, 0x3
   10300: b3 8f 57 00  	add	t6, a5, t0
   10304: 33 8f ef 01  	add	t5, t6, t5
   10308: 03 3f 0f 80  	ld	t5, -0x800(t5)
   1030c: 83 3f 05 00  	ld	t6, 0x0(a0)
   10310: b3 c5 b3 00  	xor	a1, t2, a1
   10314: b3 c5 c5 01  	xor	a1, a1, t3
   10318: b3 c3 ee 01  	xor	t2, t4, t5
   1031c: b3 c3 f3 01  	xor	t2, t2, t6
   10320: b3 c5 75 00  	xor	a1, a1, t2
   10324: 83 33 08 ff  	ld	t2, -0x10(a6)
   10328: 13 0e 88 00  	addi	t3, a6, 0x8
   1032c: 83 3e 88 ff  	ld	t4, -0x8(a6)
   10330: 23 34 b8 00  	sd	a1, 0x8(a6)
   10334: b3 c3 b3 00  	xor	t2, t2, a1
   10338: 23 38 78 00  	sd	t2, 0x10(a6)
   1033c: b3 c3 7e 00  	xor	t2, t4, t2
   10340: 23 3c 78 00  	sd	t2, 0x18(a6)
   10344: 33 c3 63 00  	xor	t1, t2, t1
   10348: 23 30 68 02  	sd	t1, 0x20(a6)
   1034c: 13 08 08 02  	addi	a6, a6, 0x20
   10350: 13 05 85 00  	addi	a0, a0, 0x8
   10354: e3 64 ee f6  	bltu	t3, a4, 0x102bc <set_key+0xe0>
   10358: 6f 00 40 24  	jal	zero, 0x1059c <set_key+0x3c0>
   1035c: 83 37 05 01  	ld	a5, 0x10(a0)
   10360: 23 b8 f6 02  	sd	a5, 0x30(a3)
   10364: 03 35 45 01  	ld	a0, 0x14(a0)
   10368: 23 bc a6 02  	sd	a0, 0x38(a3)
   1036c: 37 d5 01 00  	lui	a0, 0x1d
   10370: 13 05 85 02  	addi	a0, a0, 0x28
   10374: 13 88 86 03  	addi	a6, a3, 0x38
   10378: b7 17 02 00  	lui	a5, 0x21
   1037c: 93 87 07 11  	addi	a5, a5, 0x110
   10380: b7 18 00 00  	lui	a7, 0x1
   10384: b7 22 00 00  	lui	t0, 0x2
   10388: 03 33 08 00  	ld	t1, 0x0(a6)
   1038c: 93 53 53 00  	srli	t2, t1, 0x5
   10390: 93 f3 83 7f  	andi	t2, t2, 0x7f8
   10394: b3 83 77 00  	add	t2, a5, t2
   10398: 83 b3 03 00  	ld	t2, 0x0(t2)
   1039c: 13 5e d3 00  	srli	t3, t1, 0xd
   103a0: 13 7e 8e 7f  	andi	t3, t3, 0x7f8
   103a4: 33 8e c7 01  	add	t3, a5, t3
   103a8: 13 0e fe 7f  	addi	t3, t3, 0x7ff
   103ac: 03 3e 1e 00  	ld	t3, 0x1(t3)
   103b0: 9b 5e 83 01  	srliw	t4, t1, 0x18
   103b4: 93 9e 3e 00  	slli	t4, t4, 0x3
   103b8: 33 8f 17 01  	add	t5, a5, a7
   103bc: b3 0e df 01  	add	t4, t5, t4
   103c0: 83 be 0e 00  	ld	t4, 0x0(t4)
   103c4: 13 7f f3 0f  	andi	t5, t1, 0xff
   103c8: 13 1f 3f 00  	slli	t5, t5, 0x3
   103cc: b3 8f 57 00  	add	t6, a5, t0
   103d0: 33 8f ef 01  	add	t5, t6, t5
   103d4: 03 3f 0f 80  	ld	t5, -0x800(t5)
   103d8: 83 3f 05 00  	ld	t6, 0x0(a0)
   103dc: b3 c5 b3 00  	xor	a1, t2, a1
   103e0: b3 c5 c5 01  	xor	a1, a1, t3
   103e4: b3 c3 ee 01  	xor	t2, t4, t5
   103e8: b3 c3 f3 01  	xor	t2, t2, t6
   103ec: b3 c5 75 00  	xor	a1, a1, t2
   103f0: 83 33 08 fe  	ld	t2, -0x20(a6)
   103f4: 13 0e 88 00  	addi	t3, a6, 0x8
   103f8: 23 34 b8 00  	sd	a1, 0x8(a6)
   103fc: 83 3e 88 fe  	ld	t4, -0x18(a6)
   10400: b3 c3 b3 00  	xor	t2, t2, a1
   10404: 23 38 78 00  	sd	t2, 0x10(a6)
   10408: 03 3f 08 ff  	ld	t5, -0x10(a6)
   1040c: b3 c3 7e 00  	xor	t2, t4, t2
   10410: 83 3e 88 ff  	ld	t4, -0x8(a6)
   10414: 23 3c 78 00  	sd	t2, 0x18(a6)
   10418: b3 43 7f 00  	xor	t2, t5, t2
   1041c: 23 30 78 02  	sd	t2, 0x20(a6)
   10420: b3 c3 7e 00  	xor	t2, t4, t2
   10424: 23 34 78 02  	sd	t2, 0x28(a6)
   10428: 33 c3 63 00  	xor	t1, t2, t1
   1042c: 23 38 68 02  	sd	t1, 0x30(a6)
   10430: 13 08 08 03  	addi	a6, a6, 0x30
   10434: 13 05 85 00  	addi	a0, a0, 0x8
   10438: e3 68 ee f4  	bltu	t3, a4, 0x10388 <set_key+0x1ac>
   1043c: 6f 00 00 16  	jal	zero, 0x1059c <set_key+0x3c0>
   10440: 83 37 05 01  	ld	a5, 0x10(a0)
   10444: 23 b8 f6 02  	sd	a5, 0x30(a3)
   10448: 83 37 45 01  	ld	a5, 0x14(a0)
   1044c: 23 bc f6 02  	sd	a5, 0x38(a3)
   10450: 83 37 85 01  	ld	a5, 0x18(a0)
   10454: 23 b0 f6 04  	sd	a5, 0x40(a3)
   10458: 03 35 c5 01  	ld	a0, 0x1c(a0)
   1045c: 23 b4 a6 04  	sd	a0, 0x48(a3)
   10460: 37 d5 01 00  	lui	a0, 0x1d
   10464: 13 05 85 02  	addi	a0, a0, 0x28
   10468: 13 88 86 04  	addi	a6, a3, 0x48
   1046c: b7 17 02 00  	lui	a5, 0x21
   10470: 93 87 07 11  	addi	a5, a5, 0x110
   10474: 93 88 f7 7f  	addi	a7, a5, 0x7ff
   10478: 93 88 18 00  	addi	a7, a7, 0x1
   1047c: b7 12 00 00  	lui	t0, 0x1
   10480: b3 82 57 00  	add	t0, a5, t0
   10484: 13 03 30 00  	addi	t1, zero, 0x3
   10488: 13 13 b3 00  	slli	t1, t1, 0xb
   1048c: 33 83 67 00  	add	t1, a5, t1
   10490: 83 33 08 00  	ld	t2, 0x0(a6)
   10494: 13 de 53 00  	srli	t3, t2, 0x5
   10498: 13 7e 8e 7f  	andi	t3, t3, 0x7f8
   1049c: 33 8e c7 01  	add	t3, a5, t3
   104a0: 03 3e 0e 00  	ld	t3, 0x0(t3)
   104a4: 93 de d3 00  	srli	t4, t2, 0xd
   104a8: 93 fe 8e 7f  	andi	t4, t4, 0x7f8
   104ac: b3 8e d8 01  	add	t4, a7, t4
   104b0: 83 be 0e 00  	ld	t4, 0x0(t4)
   104b4: 1b df 83 01  	srliw	t5, t2, 0x18
   104b8: 13 1f 3f 00  	slli	t5, t5, 0x3
   104bc: 33 8f e2 01  	add	t5, t0, t5
   104c0: 03 3f 0f 00  	ld	t5, 0x0(t5)
   104c4: 93 ff f3 0f  	andi	t6, t2, 0xff
   104c8: 93 9f 3f 00  	slli	t6, t6, 0x3
   104cc: b3 0f f3 01  	add	t6, t1, t6
   104d0: 83 bf 0f 00  	ld	t6, 0x0(t6)
   104d4: 03 34 05 00  	ld	s0, 0x0(a0)
   104d8: b3 45 be 00  	xor	a1, t3, a1
   104dc: 33 ce ee 01  	xor	t3, t4, t5
   104e0: b3 c5 c5 01  	xor	a1, a1, t3
   104e4: 33 ce 8f 00  	xor	t3, t6, s0
   104e8: b3 c5 c5 01  	xor	a1, a1, t3
   104ec: 03 3e 08 fd  	ld	t3, -0x30(a6)
   104f0: 93 0e 88 00  	addi	t4, a6, 0x8
   104f4: 23 34 b8 00  	sd	a1, 0x8(a6)
   104f8: 03 3f 88 fd  	ld	t5, -0x28(a6)
   104fc: 33 4e be 00  	xor	t3, t3, a1
   10500: 83 3f 08 fe  	ld	t6, -0x20(a6)
   10504: 23 38 c8 01  	sd	t3, 0x10(a6)
   10508: 33 4e cf 01  	xor	t3, t5, t3
   1050c: 23 3c c8 01  	sd	t3, 0x18(a6)
   10510: 33 ce cf 01  	xor	t3, t6, t3
   10514: 23 30 c8 03  	sd	t3, 0x20(a6)
   10518: 03 3f 88 fe  	ld	t5, -0x18(a6)
   1051c: 93 7f fe 0f  	andi	t6, t3, 0xff
   10520: 93 9f 3f 00  	slli	t6, t6, 0x3
   10524: b3 8f f7 01  	add	t6, a5, t6
   10528: 83 bf 0f 00  	ld	t6, 0x0(t6)
   1052c: 13 54 5e 00  	srli	s0, t3, 0x5
   10530: 13 74 84 7f  	andi	s0, s0, 0x7f8
   10534: 33 84 88 00  	add	s0, a7, s0
   10538: 03 34 04 00  	ld	s0, 0x0(s0)
   1053c: 93 54 de 00  	srli	s1, t3, 0xd
   10540: 93 f4 84 7f  	andi	s1, s1, 0x7f8
   10544: b3 84 92 00  	add	s1, t0, s1
   10548: 83 b4 04 00  	ld	s1, 0x0(s1)
   1054c: 1b 5e 8e 01  	srliw	t3, t3, 0x18
   10550: 13 1e 3e 00  	slli	t3, t3, 0x3
   10554: 33 0e c3 01  	add	t3, t1, t3
   10558: 03 3e 0e 00  	ld	t3, 0x0(t3)
   1055c: 33 cf ef 01  	xor	t5, t6, t5
   10560: 33 44 94 00  	xor	s0, s0, s1
   10564: 33 4f 8f 00  	xor	t5, t5, s0
   10568: 83 3f 08 ff  	ld	t6, -0x10(a6)
   1056c: 33 4e cf 01  	xor	t3, t5, t3
   10570: 03 3f 88 ff  	ld	t5, -0x8(a6)
   10574: 23 34 c8 03  	sd	t3, 0x28(a6)
   10578: 33 ce cf 01  	xor	t3, t6, t3
   1057c: 23 38 c8 03  	sd	t3, 0x30(a6)
   10580: 33 4e cf 01  	xor	t3, t5, t3
   10584: 23 3c c8 03  	sd	t3, 0x38(a6)
   10588: b3 43 7e 00  	xor	t2, t3, t2
   1058c: 23 30 78 04  	sd	t2, 0x40(a6)
   10590: 13 08 08 04  	addi	a6, a6, 0x40
   10594: 13 05 85 00  	addi	a0, a0, 0x8
   10598: e3 ec ee ee  	bltu	t4, a4, 0x10490 <set_key+0x2b4>
   1059c: 13 05 10 00  	addi	a0, zero, 0x1
   105a0: 63 0e a6 1e  	beq	a2, a0, 0x1079c <set_key+0x5c0>
   105a4: 83 b5 86 00  	ld	a1, 0x8(a3)
   105a8: 93 95 55 00  	slli	a1, a1, 0x5
   105ac: 03 b6 06 01  	ld	a2, 0x10(a3)
   105b0: 33 87 b6 00  	add	a4, a3, a1
   105b4: 83 b5 86 01  	ld	a1, 0x18(a3)
   105b8: 83 b7 86 02  	ld	a5, 0x28(a3)
   105bc: 23 38 c7 20  	sd	a2, 0x210(a4)
   105c0: 03 b6 06 02  	ld	a2, 0x20(a3)
   105c4: 23 3c b7 20  	sd	a1, 0x218(a4)
   105c8: 23 34 f7 22  	sd	a5, 0x228(a4)
   105cc: 83 b7 86 00  	ld	a5, 0x8(a3)
   105d0: 23 30 c7 22  	sd	a2, 0x220(a4)
   105d4: 93 85 06 03  	addi	a1, a3, 0x30
   105d8: 13 08 20 00  	addi	a6, zero, 0x2
   105dc: 13 06 07 1f  	addi	a2, a4, 0x1f0
   105e0: 63 ec 07 19  	bltu	a5, a6, 0x10778 <set_key+0x59c>
   105e4: 13 07 10 00  	addi	a4, zero, 0x1
   105e8: b7 57 02 00  	lui	a5, 0x25
   105ec: 93 87 07 11  	addi	a5, a5, 0x110
   105f0: 13 88 f7 7f  	addi	a6, a5, 0x7ff
   105f4: 13 08 18 00  	addi	a6, a6, 0x1
   105f8: b7 18 00 00  	lui	a7, 0x1
   105fc: b3 88 17 01  	add	a7, a5, a7
   10600: 93 02 30 00  	addi	t0, zero, 0x3
   10604: 93 92 b2 00  	slli	t0, t0, 0xb
   10608: b3 82 57 00  	add	t0, a5, t0
   1060c: 03 b3 05 00  	ld	t1, 0x0(a1)
   10610: 93 73 f3 0f  	andi	t2, t1, 0xff
   10614: 93 93 33 00  	slli	t2, t2, 0x3
   10618: b3 83 77 00  	add	t2, a5, t2
   1061c: 83 b3 03 00  	ld	t2, 0x0(t2)
   10620: 13 5e 53 00  	srli	t3, t1, 0x5
   10624: 13 7e 8e 7f  	andi	t3, t3, 0x7f8
   10628: 33 0e c8 01  	add	t3, a6, t3
   1062c: 03 3e 0e 00  	ld	t3, 0x0(t3)
   10630: 93 5e d3 00  	srli	t4, t1, 0xd
   10634: 93 fe 8e 7f  	andi	t4, t4, 0x7f8
   10638: b3 8e d8 01  	add	t4, a7, t4
   1063c: 83 be 0e 00  	ld	t4, 0x0(t4)
   10640: 1b 53 83 01  	srliw	t1, t1, 0x18
   10644: 13 13 33 00  	slli	t1, t1, 0x3
   10648: 33 83 62 00  	add	t1, t0, t1
   1064c: 03 33 03 00  	ld	t1, 0x0(t1)
   10650: b3 43 7e 00  	xor	t2, t3, t2
   10654: 33 c3 6e 00  	xor	t1, t4, t1
   10658: 33 c3 63 00  	xor	t1, t2, t1
   1065c: 23 30 66 00  	sd	t1, 0x0(a2)
   10660: 03 b3 85 00  	ld	t1, 0x8(a1)
   10664: 93 73 f3 0f  	andi	t2, t1, 0xff
   10668: 93 93 33 00  	slli	t2, t2, 0x3
   1066c: b3 83 77 00  	add	t2, a5, t2
   10670: 83 b3 03 00  	ld	t2, 0x0(t2)
   10674: 13 5e 53 00  	srli	t3, t1, 0x5
   10678: 13 7e 8e 7f  	andi	t3, t3, 0x7f8
   1067c: 33 0e c8 01  	add	t3, a6, t3
   10680: 03 3e 0e 00  	ld	t3, 0x0(t3)
   10684: 93 5e d3 00  	srli	t4, t1, 0xd
   10688: 93 fe 8e 7f  	andi	t4, t4, 0x7f8
   1068c: b3 8e d8 01  	add	t4, a7, t4
   10690: 83 be 0e 00  	ld	t4, 0x0(t4)
   10694: 1b 53 83 01  	srliw	t1, t1, 0x18
   10698: 13 13 33 00  	slli	t1, t1, 0x3
   1069c: 33 83 62 00  	add	t1, t0, t1
   106a0: 03 33 03 00  	ld	t1, 0x0(t1)
   106a4: b3 43 7e 00  	xor	t2, t3, t2
   106a8: 33 c3 6e 00  	xor	t1, t4, t1
   106ac: 33 c3 63 00  	xor	t1, t2, t1
   106b0: 23 34 66 00  	sd	t1, 0x8(a2)
   106b4: 03 b3 05 01  	ld	t1, 0x10(a1)
   106b8: 93 73 f3 0f  	andi	t2, t1, 0xff
   106bc: 93 93 33 00  	slli	t2, t2, 0x3
   106c0: b3 83 77 00  	add	t2, a5, t2
   106c4: 83 b3 03 00  	ld	t2, 0x0(t2)
   106c8: 13 5e 53 00  	srli	t3, t1, 0x5
   106cc: 13 7e 8e 7f  	andi	t3, t3, 0x7f8
   106d0: 33 0e c8 01  	add	t3, a6, t3
   106d4: 03 3e 0e 00  	ld	t3, 0x0(t3)
   106d8: 93 5e d3 00  	srli	t4, t1, 0xd
   106dc: 93 fe 8e 7f  	andi	t4, t4, 0x7f8
   106e0: b3 8e d8 01  	add	t4, a7, t4
   106e4: 83 be 0e 00  	ld	t4, 0x0(t4)
   106e8: 1b 53 83 01  	srliw	t1, t1, 0x18
   106ec: 13 13 33 00  	slli	t1, t1, 0x3
   106f0: 33 83 62 00  	add	t1, t0, t1
   106f4: 03 33 03 00  	ld	t1, 0x0(t1)
   106f8: b3 43 7e 00  	xor	t2, t3, t2
   106fc: 33 c3 6e 00  	xor	t1, t4, t1
   10700: 33 c3 63 00  	xor	t1, t2, t1
   10704: 23 38 66 00  	sd	t1, 0x10(a2)
   10708: 03 b3 85 01  	ld	t1, 0x18(a1)
   1070c: 93 73 f3 0f  	andi	t2, t1, 0xff
   10710: 93 93 33 00  	slli	t2, t2, 0x3
   10714: b3 83 77 00  	add	t2, a5, t2
   10718: 83 b3 03 00  	ld	t2, 0x0(t2)
   1071c: 13 5e 53 00  	srli	t3, t1, 0x5
   10720: 13 7e 8e 7f  	andi	t3, t3, 0x7f8
   10724: 33 0e c8 01  	add	t3, a6, t3
   10728: 03 3e 0e 00  	ld	t3, 0x0(t3)
   1072c: 93 5e d3 00  	srli	t4, t1, 0xd
   10730: 93 fe 8e 7f  	andi	t4, t4, 0x7f8
   10734: b3 8e d8 01  	add	t4, a7, t4
   10738: 83 be 0e 00  	ld	t4, 0x0(t4)
   1073c: 1b 53 83 01  	srliw	t1, t1, 0x18
   10740: 13 13 33 00  	slli	t1, t1, 0x3
   10744: 33 83 62 00  	add	t1, t0, t1
   10748: 03 33 03 00  	ld	t1, 0x0(t1)
   1074c: b3 43 7e 00  	xor	t2, t3, t2
   10750: 33 c3 6e 00  	xor	t1, t4, t1
   10754: 33 c3 63 00  	xor	t1, t2, t1
   10758: 23 3c 66 00  	sd	t1, 0x18(a2)
   1075c: 03 b3 86 00  	ld	t1, 0x8(a3)
   10760: 93 85 05 02  	addi	a1, a1, 0x20
   10764: 13 07 17 00  	addi	a4, a4, 0x1
   10768: 13 06 06 fe  	addi	a2, a2, -0x20
   1076c: e3 60 67 ea  	bltu	a4, t1, 0x1060c <set_key+0x430>
   10770: 93 06 06 02  	addi	a3, a2, 0x20
   10774: 6f 00 80 00  	jal	zero, 0x1077c <set_key+0x5a0>
   10778: 93 06 07 21  	addi	a3, a4, 0x210
   1077c: 03 b7 05 00  	ld	a4, 0x0(a1)
   10780: 23 30 e6 00  	sd	a4, 0x0(a2)
   10784: 03 b6 85 00  	ld	a2, 0x8(a1)
   10788: 23 b4 c6 fe  	sd	a2, -0x18(a3)
   1078c: 03 b6 05 01  	ld	a2, 0x10(a1)
   10790: 23 b8 c6 fe  	sd	a2, -0x10(a3)
   10794: 83 b5 85 01  	ld	a1, 0x18(a1)
   10798: 23 bc b6 fe  	sd	a1, -0x8(a3)
   1079c: 13 15 05 03  	slli	a0, a0, 0x30
   107a0: 13 55 05 43  	srai	a0, a0, 0x30
   107a4: 6f c0 c0 61  	jal	zero, 0x1cdc0 <__riscv_restore_3>

00000000000107a8 <encrypt>:
   107a8: 83 46 06 41  	lbu	a3, 0x410(a2)
   107ac: 93 f6 16 00  	andi	a3, a3, 0x1
   107b0: 63 96 06 00  	bne	a3, zero, 0x107bc <encrypt+0x14>
   107b4: 13 05 00 00  	addi	a0, zero, 0x0
   107b8: 67 80 00 00  	jalr	zero, 0x0(ra)
   107bc: ef c2 40 5c  	jal	t0, 0x1cd80 <__riscv_save_5>
   107c0: 83 36 05 00  	ld	a3, 0x0(a0)
   107c4: 03 37 06 01  	ld	a4, 0x10(a2)
   107c8: 33 43 d7 00  	xor	t1, a4, a3
   107cc: 83 36 45 00  	ld	a3, 0x4(a0)
   107d0: 03 37 86 01  	ld	a4, 0x18(a2)
   107d4: 83 37 85 00  	ld	a5, 0x8(a0)
   107d8: 03 38 06 02  	ld	a6, 0x20(a2)
   107dc: 03 35 c5 00  	ld	a0, 0xc(a0)
   107e0: 83 38 86 02  	ld	a7, 0x28(a2)
   107e4: b3 43 d7 00  	xor	t2, a4, a3
   107e8: 83 36 86 00  	ld	a3, 0x8(a2)
   107ec: 33 4e f8 00  	xor	t3, a6, a5
   107f0: b3 ce a8 00  	xor	t4, a7, a0
   107f4: 13 07 a0 00  	addi	a4, zero, 0xa
   107f8: 13 05 06 03  	addi	a0, a2, 0x30
   107fc: 63 84 e6 5a  	beq	a3, a4, 0x10da4 <encrypt+0x5fc>
   10800: 13 07 c0 00  	addi	a4, zero, 0xc
   10804: 63 8c e6 2c  	beq	a3, a4, 0x10adc <encrypt+0x334>
   10808: 13 05 e0 00  	addi	a0, zero, 0xe
   1080c: 63 84 a6 00  	beq	a3, a0, 0x10814 <encrypt+0x6c>
   10810: 6f 10 00 2f  	jal	zero, 0x11b00 <encrypt+0x1358>
   10814: 03 38 06 03  	ld	a6, 0x30(a2)
   10818: 93 76 f3 0f  	andi	a3, t1, 0xff
   1081c: 37 d5 01 00  	lui	a0, 0x1d
   10820: 13 05 05 11  	addi	a0, a0, 0x110
   10824: 93 96 36 00  	slli	a3, a3, 0x3
   10828: b3 06 d5 00  	add	a3, a0, a3
   1082c: 83 b8 06 00  	ld	a7, 0x0(a3)
   10830: 93 d6 53 00  	srli	a3, t2, 0x5
   10834: 13 f7 86 7f  	andi	a4, a3, 0x7f8
   10838: 93 06 f5 7f  	addi	a3, a0, 0x7ff
   1083c: 93 86 16 00  	addi	a3, a3, 0x1
   10840: 33 87 e6 00  	add	a4, a3, a4
   10844: 83 32 07 00  	ld	t0, 0x0(a4)
   10848: 37 17 00 00  	lui	a4, 0x1
   1084c: 33 07 e5 00  	add	a4, a0, a4
   10850: 93 57 de 00  	srli	a5, t3, 0xd
   10854: 93 f7 87 7f  	andi	a5, a5, 0x7f8
   10858: b3 07 f7 00  	add	a5, a4, a5
   1085c: 03 bf 07 00  	ld	t5, 0x0(a5)
   10860: 93 07 30 00  	addi	a5, zero, 0x3
   10864: 93 97 b7 00  	slli	a5, a5, 0xb
   10868: b3 07 f5 00  	add	a5, a0, a5
   1086c: 9b df 8e 01  	srliw	t6, t4, 0x18
   10870: 93 9f 3f 00  	slli	t6, t6, 0x3
   10874: b3 8f f7 01  	add	t6, a5, t6
   10878: 83 bf 0f 00  	ld	t6, 0x0(t6)
   1087c: 33 c8 08 01  	xor	a6, a7, a6
   10880: b3 c8 e2 01  	xor	a7, t0, t5
   10884: 33 48 18 01  	xor	a6, a6, a7
   10888: 33 48 f8 01  	xor	a6, a6, t6
   1088c: 83 38 86 03  	ld	a7, 0x38(a2)
   10890: 93 f2 f3 0f  	andi	t0, t2, 0xff
   10894: 93 92 32 00  	slli	t0, t0, 0x3
   10898: b3 02 55 00  	add	t0, a0, t0
   1089c: 83 b2 02 00  	ld	t0, 0x0(t0)
   108a0: 13 5f 5e 00  	srli	t5, t3, 0x5
   108a4: 13 7f 8f 7f  	andi	t5, t5, 0x7f8
   108a8: 33 8f e6 01  	add	t5, a3, t5
   108ac: 03 3f 0f 00  	ld	t5, 0x0(t5)
   108b0: 93 df de 00  	srli	t6, t4, 0xd
   108b4: 93 ff 8f 7f  	andi	t6, t6, 0x7f8
   108b8: b3 0f f7 01  	add	t6, a4, t6
   108bc: 83 bf 0f 00  	ld	t6, 0x0(t6)
   108c0: 1b 54 83 01  	srliw	s0, t1, 0x18
   108c4: 13 14 34 00  	slli	s0, s0, 0x3
   108c8: 33 84 87 00  	add	s0, a5, s0
   108cc: 03 34 04 00  	ld	s0, 0x0(s0)
   108d0: b3 c8 12 01  	xor	a7, t0, a7
   108d4: b3 42 ff 01  	xor	t0, t5, t6
   108d8: b3 c8 58 00  	xor	a7, a7, t0
   108dc: b3 c8 88 00  	xor	a7, a7, s0
   108e0: 83 32 06 04  	ld	t0, 0x40(a2)
   108e4: 13 7f fe 0f  	andi	t5, t3, 0xff
   108e8: 13 1f 3f 00  	slli	t5, t5, 0x3
   108ec: 33 0f e5 01  	add	t5, a0, t5
   108f0: 03 3f 0f 00  	ld	t5, 0x0(t5)
   108f4: 93 df 5e 00  	srli	t6, t4, 0x5
   108f8: 93 ff 8f 7f  	andi	t6, t6, 0x7f8
   108fc: b3 8f f6 01  	add	t6, a3, t6
   10900: 83 bf 0f 00  	ld	t6, 0x0(t6)
   10904: 13 54 d3 00  	srli	s0, t1, 0xd
   10908: 13 74 84 7f  	andi	s0, s0, 0x7f8
   1090c: 33 04 87 00  	add	s0, a4, s0
   10910: 03 34 04 00  	ld	s0, 0x0(s0)
   10914: 9b d4 83 01  	srliw	s1, t2, 0x18
   10918: 93 94 34 00  	slli	s1, s1, 0x3
   1091c: b3 84 97 00  	add	s1, a5, s1
   10920: 83 b4 04 00  	ld	s1, 0x0(s1)
   10924: b3 42 5f 00  	xor	t0, t5, t0
   10928: 33 cf 8f 00  	xor	t5, t6, s0
   1092c: b3 c2 e2 01  	xor	t0, t0, t5
   10930: b3 c2 92 00  	xor	t0, t0, s1
   10934: 03 3f 86 04  	ld	t5, 0x48(a2)
   10938: 93 fe fe 0f  	andi	t4, t4, 0xff
   1093c: 93 9e 3e 00  	slli	t4, t4, 0x3
   10940: b3 0e d5 01  	add	t4, a0, t4
   10944: 83 be 0e 00  	ld	t4, 0x0(t4)
   10948: 13 53 53 00  	srli	t1, t1, 0x5
   1094c: 13 73 83 7f  	andi	t1, t1, 0x7f8
   10950: 33 83 66 00  	add	t1, a3, t1
   10954: 03 33 03 00  	ld	t1, 0x0(t1)
   10958: 93 d3 d3 00  	srli	t2, t2, 0xd
   1095c: 93 f3 83 7f  	andi	t2, t2, 0x7f8
   10960: b3 03 77 00  	add	t2, a4, t2
   10964: 83 b3 03 00  	ld	t2, 0x0(t2)
   10968: 1b 5e 8e 01  	srliw	t3, t3, 0x18
   1096c: 13 1e 3e 00  	slli	t3, t3, 0x3
   10970: 33 8e c7 01  	add	t3, a5, t3
   10974: 03 3e 0e 00  	ld	t3, 0x0(t3)
   10978: b3 ce ee 01  	xor	t4, t4, t5
   1097c: 33 43 73 00  	xor	t1, t1, t2
   10980: 33 c3 6e 00  	xor	t1, t4, t1
   10984: b3 4e c3 01  	xor	t4, t1, t3
   10988: 03 33 06 05  	ld	t1, 0x50(a2)
   1098c: 93 73 f8 0f  	andi	t2, a6, 0xff
   10990: 93 93 33 00  	slli	t2, t2, 0x3
   10994: b3 03 75 00  	add	t2, a0, t2
   10998: 83 b3 03 00  	ld	t2, 0x0(t2)
   1099c: 13 de 58 00  	srli	t3, a7, 0x5
   109a0: 13 7e 8e 7f  	andi	t3, t3, 0x7f8
   109a4: 33 8e c6 01  	add	t3, a3, t3
   109a8: 03 3e 0e 00  	ld	t3, 0x0(t3)
   109ac: 13 df d2 00  	srli	t5, t0, 0xd
   109b0: 13 7f 8f 7f  	andi	t5, t5, 0x7f8
   109b4: 33 0f e7 01  	add	t5, a4, t5
   109b8: 03 3f 0f 00  	ld	t5, 0x0(t5)
   109bc: 9b df 8e 01  	srliw	t6, t4, 0x18
   109c0: 93 9f 3f 00  	slli	t6, t6, 0x3
   109c4: b3 8f f7 01  	add	t6, a5, t6
   109c8: 83 bf 0f 00  	ld	t6, 0x0(t6)
   109cc: 33 c3 63 00  	xor	t1, t2, t1
   109d0: b3 43 ee 01  	xor	t2, t3, t5
   109d4: 33 43 73 00  	xor	t1, t1, t2
   109d8: 33 43 f3 01  	xor	t1, t1, t6
   109dc: 83 33 86 05  	ld	t2, 0x58(a2)
   109e0: 13 fe f8 0f  	andi	t3, a7, 0xff
   109e4: 13 1e 3e 00  	slli	t3, t3, 0x3
   109e8: 33 0e c5 01  	add	t3, a0, t3
   109ec: 03 3e 0e 00  	ld	t3, 0x0(t3)
   109f0: 13 df 52 00  	srli	t5, t0, 0x5
   109f4: 13 7f 8f 7f  	andi	t5, t5, 0x7f8
   109f8: 33 8f e6 01  	add	t5, a3, t5
   109fc: 03 3f 0f 00  	ld	t5, 0x0(t5)
   10a00: 93 df de 00  	srli	t6, t4, 0xd
   10a04: 93 ff 8f 7f  	andi	t6, t6, 0x7f8
   10a08: b3 0f f7 01  	add	t6, a4, t6
   10a0c: 83 bf 0f 00  	ld	t6, 0x0(t6)
   10a10: 1b 54 88 01  	srliw	s0, a6, 0x18
   10a14: 13 14 34 00  	slli	s0, s0, 0x3
   10a18: 33 84 87 00  	add	s0, a5, s0
   10a1c: 03 34 04 00  	ld	s0, 0x0(s0)
   10a20: b3 43 7e 00  	xor	t2, t3, t2
   10a24: 33 4e ff 01  	xor	t3, t5, t6
   10a28: b3 c3 c3 01  	xor	t2, t2, t3
   10a2c: b3 c3 83 00  	xor	t2, t2, s0
   10a30: 03 3e 06 06  	ld	t3, 0x60(a2)
   10a34: 13 ff f2 0f  	andi	t5, t0, 0xff
   10a38: 13 1f 3f 00  	slli	t5, t5, 0x3
   10a3c: 33 0f e5 01  	add	t5, a0, t5
   10a40: 03 3f 0f 00  	ld	t5, 0x0(t5)
   10a44: 93 df 5e 00  	srli	t6, t4, 0x5
   10a48: 93 ff 8f 7f  	andi	t6, t6, 0x7f8
   10a4c: b3 8f f6 01  	add	t6, a3, t6
   10a50: 83 bf 0f 00  	ld	t6, 0x0(t6)
   10a54: 13 54 d8 00  	srli	s0, a6, 0xd
   10a58: 13 74 84 7f  	andi	s0, s0, 0x7f8
   10a5c: 33 04 87 00  	add	s0, a4, s0
   10a60: 03 34 04 00  	ld	s0, 0x0(s0)
   10a64: 9b d4 88 01  	srliw	s1, a7, 0x18
   10a68: 93 94 34 00  	slli	s1, s1, 0x3
   10a6c: b3 84 97 00  	add	s1, a5, s1
   10a70: 83 b4 04 00  	ld	s1, 0x0(s1)
   10a74: 33 4e cf 01  	xor	t3, t5, t3
   10a78: 33 cf 8f 00  	xor	t5, t6, s0
   10a7c: 33 4e ee 01  	xor	t3, t3, t5
   10a80: 33 4e 9e 00  	xor	t3, t3, s1
   10a84: 03 3f 86 06  	ld	t5, 0x68(a2)
   10a88: 93 fe fe 0f  	andi	t4, t4, 0xff
   10a8c: 93 9e 3e 00  	slli	t4, t4, 0x3
   10a90: 33 05 d5 01  	add	a0, a0, t4
   10a94: 03 35 05 00  	ld	a0, 0x0(a0)
   10a98: 13 58 58 00  	srli	a6, a6, 0x5
   10a9c: 13 78 88 7f  	andi	a6, a6, 0x7f8
   10aa0: b3 86 06 01  	add	a3, a3, a6
   10aa4: 83 b6 06 00  	ld	a3, 0x0(a3)
   10aa8: 13 d8 d8 00  	srli	a6, a7, 0xd
   10aac: 13 78 88 7f  	andi	a6, a6, 0x7f8
   10ab0: 33 07 07 01  	add	a4, a4, a6
   10ab4: 03 37 07 00  	ld	a4, 0x0(a4)
   10ab8: 1b d8 82 01  	srliw	a6, t0, 0x18
   10abc: 13 18 38 00  	slli	a6, a6, 0x3
   10ac0: b3 87 07 01  	add	a5, a5, a6
   10ac4: 83 b7 07 00  	ld	a5, 0x0(a5)
   10ac8: 33 45 e5 01  	xor	a0, a0, t5
   10acc: b3 c6 e6 00  	xor	a3, a3, a4
   10ad0: 33 45 d5 00  	xor	a0, a0, a3
   10ad4: b3 4e f5 00  	xor	t4, a0, a5
   10ad8: 13 05 06 07  	addi	a0, a2, 0x70
   10adc: 03 38 05 00  	ld	a6, 0x0(a0)
   10ae0: 93 76 f3 0f  	andi	a3, t1, 0xff
   10ae4: 37 d6 01 00  	lui	a2, 0x1d
   10ae8: 13 06 06 11  	addi	a2, a2, 0x110
   10aec: 93 96 36 00  	slli	a3, a3, 0x3
   10af0: b3 06 d6 00  	add	a3, a2, a3
   10af4: 83 b8 06 00  	ld	a7, 0x0(a3)
   10af8: 93 d6 53 00  	srli	a3, t2, 0x5
   10afc: 13 f7 86 7f  	andi	a4, a3, 0x7f8
   10b00: 93 06 f6 7f  	addi	a3, a2, 0x7ff
   10b04: 93 86 16 00  	addi	a3, a3, 0x1
   10b08: 33 87 e6 00  	add	a4, a3, a4
   10b0c: 83 32 07 00  	ld	t0, 0x0(a4)
   10b10: 37 17 00 00  	lui	a4, 0x1
   10b14: 33 07 e6 00  	add	a4, a2, a4
   10b18: 93 57 de 00  	srli	a5, t3, 0xd
   10b1c: 93 f7 87 7f  	andi	a5, a5, 0x7f8
   10b20: b3 07 f7 00  	add	a5, a4, a5
   10b24: 03 bf 07 00  	ld	t5, 0x0(a5)
   10b28: 93 07 30 00  	addi	a5, zero, 0x3
   10b2c: 93 97 b7 00  	slli	a5, a5, 0xb
   10b30: b3 07 f6 00  	add	a5, a2, a5
   10b34: 9b df 8e 01  	srliw	t6, t4, 0x18
   10b38: 93 9f 3f 00  	slli	t6, t6, 0x3
   10b3c: b3 8f f7 01  	add	t6, a5, t6
   10b40: 83 bf 0f 00  	ld	t6, 0x0(t6)
   10b44: 33 c8 08 01  	xor	a6, a7, a6
   10b48: b3 c8 e2 01  	xor	a7, t0, t5
   10b4c: 33 48 18 01  	xor	a6, a6, a7
   10b50: 33 48 f8 01  	xor	a6, a6, t6
   10b54: 83 38 85 00  	ld	a7, 0x8(a0)
   10b58: 93 f2 f3 0f  	andi	t0, t2, 0xff
   10b5c: 93 92 32 00  	slli	t0, t0, 0x3
   10b60: b3 02 56 00  	add	t0, a2, t0
   10b64: 83 b2 02 00  	ld	t0, 0x0(t0)
   10b68: 13 5f 5e 00  	srli	t5, t3, 0x5
   10b6c: 13 7f 8f 7f  	andi	t5, t5, 0x7f8
   10b70: 33 8f e6 01  	add	t5, a3, t5
   10b74: 03 3f 0f 00  	ld	t5, 0x0(t5)
   10b78: 93 df de 00  	srli	t6, t4, 0xd
   10b7c: 93 ff 8f 7f  	andi	t6, t6, 0x7f8
   10b80: b3 0f f7 01  	add	t6, a4, t6
   10b84: 83 bf 0f 00  	ld	t6, 0x0(t6)
   10b88: 1b 54 83 01  	srliw	s0, t1, 0x18
   10b8c: 13 14 34 00  	slli	s0, s0, 0x3
   10b90: 33 84 87 00  	add	s0, a5, s0
   10b94: 03 34 04 00  	ld	s0, 0x0(s0)
   10b98: b3 c8 12 01  	xor	a7, t0, a7
   10b9c: b3 42 ff 01  	xor	t0, t5, t6
   10ba0: b3 c8 58 00  	xor	a7, a7, t0
   10ba4: b3 c8 88 00  	xor	a7, a7, s0
   10ba8: 83 32 05 01  	ld	t0, 0x10(a0)
   10bac: 13 7f fe 0f  	andi	t5, t3, 0xff
   10bb0: 13 1f 3f 00  	slli	t5, t5, 0x3
   10bb4: 33 0f e6 01  	add	t5, a2, t5
   10bb8: 03 3f 0f 00  	ld	t5, 0x0(t5)
   10bbc: 93 df 5e 00  	srli	t6, t4, 0x5
   10bc0: 93 ff 8f 7f  	andi	t6, t6, 0x7f8
   10bc4: b3 8f f6 01  	add	t6, a3, t6
   10bc8: 83 bf 0f 00  	ld	t6, 0x0(t6)
   10bcc: 13 54 d3 00  	srli	s0, t1, 0xd
   10bd0: 13 74 84 7f  	andi	s0, s0, 0x7f8
   10bd4: 33 04 87 00  	add	s0, a4, s0
   10bd8: 03 34 04 00  	ld	s0, 0x0(s0)
   10bdc: 9b d4 83 01  	srliw	s1, t2, 0x18
   10be0: 93 94 34 00  	slli	s1, s1, 0x3
   10be4: b3 84 97 00  	add	s1, a5, s1
   10be8: 83 b4 04 00  	ld	s1, 0x0(s1)
   10bec: b3 42 5f 00  	xor	t0, t5, t0
   10bf0: 33 cf 8f 00  	xor	t5, t6, s0
   10bf4: b3 c2 e2 01  	xor	t0, t0, t5
   10bf8: b3 c2 92 00  	xor	t0, t0, s1
   10bfc: 03 3f 85 01  	ld	t5, 0x18(a0)
   10c00: 93 fe fe 0f  	andi	t4, t4, 0xff
   10c04: 93 9e 3e 00  	slli	t4, t4, 0x3
   10c08: b3 0e d6 01  	add	t4, a2, t4
   10c0c: 83 be 0e 00  	ld	t4, 0x0(t4)
   10c10: 13 53 53 00  	srli	t1, t1, 0x5
   10c14: 13 73 83 7f  	andi	t1, t1, 0x7f8
   10c18: 33 83 66 00  	add	t1, a3, t1
   10c1c: 03 33 03 00  	ld	t1, 0x0(t1)
   10c20: 93 d3 d3 00  	srli	t2, t2, 0xd
   10c24: 93 f3 83 7f  	andi	t2, t2, 0x7f8
   10c28: b3 03 77 00  	add	t2, a4, t2
   10c2c: 83 b3 03 00  	ld	t2, 0x0(t2)
   10c30: 1b 5e 8e 01  	srliw	t3, t3, 0x18
   10c34: 13 1e 3e 00  	slli	t3, t3, 0x3
   10c38: 33 8e c7 01  	add	t3, a5, t3
   10c3c: 03 3e 0e 00  	ld	t3, 0x0(t3)
   10c40: b3 ce ee 01  	xor	t4, t4, t5
   10c44: 33 43 73 00  	xor	t1, t1, t2
   10c48: 33 c3 6e 00  	xor	t1, t4, t1
   10c4c: b3 4e c3 01  	xor	t4, t1, t3
   10c50: 03 33 05 02  	ld	t1, 0x20(a0)
   10c54: 93 73 f8 0f  	andi	t2, a6, 0xff
   10c58: 93 93 33 00  	slli	t2, t2, 0x3
   10c5c: b3 03 76 00  	add	t2, a2, t2
   10c60: 83 b3 03 00  	ld	t2, 0x0(t2)
   10c64: 13 de 58 00  	srli	t3, a7, 0x5
   10c68: 13 7e 8e 7f  	andi	t3, t3, 0x7f8
   10c6c: 33 8e c6 01  	add	t3, a3, t3
   10c70: 03 3e 0e 00  	ld	t3, 0x0(t3)
   10c74: 13 df d2 00  	srli	t5, t0, 0xd
   10c78: 13 7f 8f 7f  	andi	t5, t5, 0x7f8
   10c7c: 33 0f e7 01  	add	t5, a4, t5
   10c80: 03 3f 0f 00  	ld	t5, 0x0(t5)
   10c84: 9b df 8e 01  	srliw	t6, t4, 0x18
   10c88: 93 9f 3f 00  	slli	t6, t6, 0x3
   10c8c: b3 8f f7 01  	add	t6, a5, t6
   10c90: 83 bf 0f 00  	ld	t6, 0x0(t6)
   10c94: 33 c3 63 00  	xor	t1, t2, t1
   10c98: b3 43 ee 01  	xor	t2, t3, t5
   10c9c: 33 43 73 00  	xor	t1, t1, t2
   10ca0: 33 43 f3 01  	xor	t1, t1, t6
   10ca4: 83 33 85 02  	ld	t2, 0x28(a0)
   10ca8: 13 fe f8 0f  	andi	t3, a7, 0xff
   10cac: 13 1e 3e 00  	slli	t3, t3, 0x3
   10cb0: 33 0e c6 01  	add	t3, a2, t3
   10cb4: 03 3e 0e 00  	ld	t3, 0x0(t3)
   10cb8: 13 df 52 00  	srli	t5, t0, 0x5
   10cbc: 13 7f 8f 7f  	andi	t5, t5, 0x7f8
   10cc0: 33 8f e6 01  	add	t5, a3, t5
   10cc4: 03 3f 0f 00  	ld	t5, 0x0(t5)
   10cc8: 93 df de 00  	srli	t6, t4, 0xd
   10ccc: 93 ff 8f 7f  	andi	t6, t6, 0x7f8
   10cd0: b3 0f f7 01  	add	t6, a4, t6
   10cd4: 83 bf 0f 00  	ld	t6, 0x0(t6)
   10cd8: 1b 54 88 01  	srliw	s0, a6, 0x18
   10cdc: 13 14 34 00  	slli	s0, s0, 0x3
   10ce0: 33 84 87 00  	add	s0, a5, s0
   10ce4: 03 34 04 00  	ld	s0, 0x0(s0)
   10ce8: b3 43 7e 00  	xor	t2, t3, t2
   10cec: 33 4e ff 01  	xor	t3, t5, t6
   10cf0: b3 c3 c3 01  	xor	t2, t2, t3
   10cf4: b3 c3 83 00  	xor	t2, t2, s0
   10cf8: 03 3e 05 03  	ld	t3, 0x30(a0)
   10cfc: 13 ff f2 0f  	andi	t5, t0, 0xff
   10d00: 13 1f 3f 00  	slli	t5, t5, 0x3
   10d04: 33 0f e6 01  	add	t5, a2, t5
   10d08: 03 3f 0f 00  	ld	t5, 0x0(t5)
   10d0c: 93 df 5e 00  	srli	t6, t4, 0x5
   10d10: 93 ff 8f 7f  	andi	t6, t6, 0x7f8
   10d14: b3 8f f6 01  	add	t6, a3, t6
   10d18: 83 bf 0f 00  	ld	t6, 0x0(t6)
   10d1c: 13 54 d8 00  	srli	s0, a6, 0xd
   10d20: 13 74 84 7f  	andi	s0, s0, 0x7f8
   10d24: 33 04 87 00  	add	s0, a4, s0
   10d28: 03 34 04 00  	ld	s0, 0x0(s0)
   10d2c: 9b d4 88 01  	srliw	s1, a7, 0x18
   10d30: 93 94 34 00  	slli	s1, s1, 0x3
   10d34: b3 84 97 00  	add	s1, a5, s1
   10d38: 83 b4 04 00  	ld	s1, 0x0(s1)
   10d3c: 33 4e cf 01  	xor	t3, t5, t3
   10d40: 33 cf 8f 00  	xor	t5, t6, s0
   10d44: 33 4e ee 01  	xor	t3, t3, t5
   10d48: 33 4e 9e 00  	xor	t3, t3, s1
   10d4c: 03 3f 85 03  	ld	t5, 0x38(a0)
   10d50: 93 fe fe 0f  	andi	t4, t4, 0xff
   10d54: 93 9e 3e 00  	slli	t4, t4, 0x3
   10d58: 33 06 d6 01  	add	a2, a2, t4
   10d5c: 03 36 06 00  	ld	a2, 0x0(a2)
   10d60: 13 58 58 00  	srli	a6, a6, 0x5
   10d64: 13 78 88 7f  	andi	a6, a6, 0x7f8
   10d68: b3 86 06 01  	add	a3, a3, a6
   10d6c: 83 b6 06 00  	ld	a3, 0x0(a3)
   10d70: 13 d8 d8 00  	srli	a6, a7, 0xd
   10d74: 13 78 88 7f  	andi	a6, a6, 0x7f8
   10d78: 33 07 07 01  	add	a4, a4, a6
   10d7c: 03 37 07 00  	ld	a4, 0x0(a4)
   10d80: 1b d8 82 01  	srliw	a6, t0, 0x18
   10d84: 13 18 38 00  	slli	a6, a6, 0x3
   10d88: b3 87 07 01  	add	a5, a5, a6
   10d8c: 83 b7 07 00  	ld	a5, 0x0(a5)
   10d90: 33 46 e6 01  	xor	a2, a2, t5
   10d94: b3 c6 e6 00  	xor	a3, a3, a4
   10d98: 33 46 d6 00  	xor	a2, a2, a3
   10d9c: b3 4e f6 00  	xor	t4, a2, a5
   10da0: 13 05 05 04  	addi	a0, a0, 0x40
   10da4: 03 3f 05 00  	ld	t5, 0x0(a0)
   10da8: 13 76 f3 0f  	andi	a2, t1, 0xff
   10dac: b7 d6 01 00  	lui	a3, 0x1d
   10db0: 93 87 06 11  	addi	a5, a3, 0x110
   10db4: 13 16 36 00  	slli	a2, a2, 0x3
   10db8: 33 86 c7 00  	add	a2, a5, a2
   10dbc: 83 3f 06 00  	ld	t6, 0x0(a2)
   10dc0: 13 06 10 00  	addi	a2, zero, 0x1
   10dc4: 13 16 b6 00  	slli	a2, a2, 0xb
   10dc8: 33 88 c7 00  	add	a6, a5, a2
   10dcc: 93 d6 53 00  	srli	a3, t2, 0x5
   10dd0: 93 f6 86 7f  	andi	a3, a3, 0x7f8
   10dd4: b3 06 d8 00  	add	a3, a6, a3
   10dd8: 03 b4 06 00  	ld	s0, 0x0(a3)
   10ddc: b7 16 00 00  	lui	a3, 0x1
   10de0: b3 88 d7 00  	add	a7, a5, a3
   10de4: 13 57 de 00  	srli	a4, t3, 0xd
   10de8: 13 77 87 7f  	andi	a4, a4, 0x7f8
   10dec: 33 87 e8 00  	add	a4, a7, a4
   10df0: 83 34 07 00  	ld	s1, 0x0(a4)
   10df4: 13 07 30 00  	addi	a4, zero, 0x3
   10df8: 13 17 b7 00  	slli	a4, a4, 0xb
   10dfc: b3 82 e7 00  	add	t0, a5, a4
   10e00: 1b d9 8e 01  	srliw	s2, t4, 0x18
   10e04: 13 19 39 00  	slli	s2, s2, 0x3
   10e08: 33 89 22 01  	add	s2, t0, s2
   10e0c: 03 39 09 00  	ld	s2, 0x0(s2)
   10e10: 33 cf ef 01  	xor	t5, t6, t5
   10e14: 33 44 94 00  	xor	s0, s0, s1
   10e18: 33 4f 8f 00  	xor	t5, t5, s0
   10e1c: 33 4f 2f 01  	xor	t5, t5, s2
   10e20: 83 3f 85 00  	ld	t6, 0x8(a0)
   10e24: 13 f4 f3 0f  	andi	s0, t2, 0xff
   10e28: 13 14 34 00  	slli	s0, s0, 0x3
   10e2c: 33 84 87 00  	add	s0, a5, s0
   10e30: 03 34 04 00  	ld	s0, 0x0(s0)
   10e34: 93 54 5e 00  	srli	s1, t3, 0x5
   10e38: 93 f4 84 7f  	andi	s1, s1, 0x7f8
   10e3c: b3 04 98 00  	add	s1, a6, s1
   10e40: 83 b4 04 00  	ld	s1, 0x0(s1)
   10e44: 13 d9 de 00  	srli	s2, t4, 0xd
   10e48: 13 79 89 7f  	andi	s2, s2, 0x7f8
   10e4c: 33 89 28 01  	add	s2, a7, s2
   10e50: 03 39 09 00  	ld	s2, 0x0(s2)
   10e54: 9b 59 83 01  	srliw	s3, t1, 0x18
   10e58: 93 99 39 00  	slli	s3, s3, 0x3
   10e5c: b3 89 32 01  	add	s3, t0, s3
   10e60: 83 b9 09 00  	ld	s3, 0x0(s3)
   10e64: b3 4f f4 01  	xor	t6, s0, t6
   10e68: 33 c4 24 01  	xor	s0, s1, s2
   10e6c: b3 cf 8f 00  	xor	t6, t6, s0
   10e70: b3 cf 3f 01  	xor	t6, t6, s3
   10e74: 03 34 05 01  	ld	s0, 0x10(a0)
   10e78: 93 74 fe 0f  	andi	s1, t3, 0xff
   10e7c: 93 94 34 00  	slli	s1, s1, 0x3
   10e80: b3 84 97 00  	add	s1, a5, s1
   10e84: 83 b4 04 00  	ld	s1, 0x0(s1)
   10e88: 13 d9 5e 00  	srli	s2, t4, 0x5
   10e8c: 13 79 89 7f  	andi	s2, s2, 0x7f8
   10e90: 33 09 28 01  	add	s2, a6, s2
   10e94: 03 39 09 00  	ld	s2, 0x0(s2)
   10e98: 93 59 d3 00  	srli	s3, t1, 0xd
   10e9c: 93 f9 89 7f  	andi	s3, s3, 0x7f8
   10ea0: b3 89 38 01  	add	s3, a7, s3
   10ea4: 83 b9 09 00  	ld	s3, 0x0(s3)
   10ea8: 1b da 83 01  	srliw	s4, t2, 0x18
   10eac: 13 1a 3a 00  	slli	s4, s4, 0x3
   10eb0: 33 8a 42 01  	add	s4, t0, s4
   10eb4: 03 3a 0a 00  	ld	s4, 0x0(s4)
   10eb8: 33 c4 84 00  	xor	s0, s1, s0
   10ebc: b3 44 39 01  	xor	s1, s2, s3
   10ec0: 33 44 94 00  	xor	s0, s0, s1
   10ec4: 33 44 44 01  	xor	s0, s0, s4
   10ec8: 83 34 85 01  	ld	s1, 0x18(a0)
   10ecc: 93 fe fe 0f  	andi	t4, t4, 0xff
   10ed0: 93 9e 3e 00  	slli	t4, t4, 0x3
   10ed4: b3 8e d7 01  	add	t4, a5, t4
   10ed8: 83 be 0e 00  	ld	t4, 0x0(t4)
   10edc: 13 53 53 00  	srli	t1, t1, 0x5
   10ee0: 13 73 83 7f  	andi	t1, t1, 0x7f8
   10ee4: 33 03 68 00  	add	t1, a6, t1
   10ee8: 03 33 03 00  	ld	t1, 0x0(t1)
   10eec: 93 d3 d3 00  	srli	t2, t2, 0xd
   10ef0: 93 f3 83 7f  	andi	t2, t2, 0x7f8
   10ef4: b3 83 78 00  	add	t2, a7, t2
   10ef8: 83 b3 03 00  	ld	t2, 0x0(t2)
   10efc: 1b 5e 8e 01  	srliw	t3, t3, 0x18
   10f00: 13 1e 3e 00  	slli	t3, t3, 0x3
   10f04: 33 8e c2 01  	add	t3, t0, t3
   10f08: 03 3e 0e 00  	ld	t3, 0x0(t3)
   10f0c: b3 ce 9e 00  	xor	t4, t4, s1
   10f10: 33 43 73 00  	xor	t1, t1, t2
   10f14: 33 c3 6e 00  	xor	t1, t4, t1
   10f18: b3 43 c3 01  	xor	t2, t1, t3
   10f1c: 03 33 05 02  	ld	t1, 0x20(a0)
   10f20: 13 7e ff 0f  	andi	t3, t5, 0xff
   10f24: 13 1e 3e 00  	slli	t3, t3, 0x3
   10f28: 33 8e c7 01  	add	t3, a5, t3
   10f2c: 03 3e 0e 00  	ld	t3, 0x0(t3)
   10f30: 93 de 5f 00  	srli	t4, t6, 0x5
   10f34: 93 fe 8e 7f  	andi	t4, t4, 0x7f8
   10f38: b3 0e d8 01  	add	t4, a6, t4
   10f3c: 83 be 0e 00  	ld	t4, 0x0(t4)
   10f40: 93 54 d4 00  	srli	s1, s0, 0xd
   10f44: 93 f4 84 7f  	andi	s1, s1, 0x7f8
   10f48: b3 84 98 00  	add	s1, a7, s1
   10f4c: 83 b4 04 00  	ld	s1, 0x0(s1)
   10f50: 1b d9 83 01  	srliw	s2, t2, 0x18
   10f54: 13 19 39 00  	slli	s2, s2, 0x3
   10f58: 33 89 22 01  	add	s2, t0, s2
   10f5c: 03 39 09 00  	ld	s2, 0x0(s2)
   10f60: 33 43 6e 00  	xor	t1, t3, t1
   10f64: 33 ce 9e 00  	xor	t3, t4, s1
   10f68: 33 43 c3 01  	xor	t1, t1, t3
   10f6c: 33 43 23 01  	xor	t1, t1, s2
   10f70: 03 3e 85 02  	ld	t3, 0x28(a0)
   10f74: 93 fe ff 0f  	andi	t4, t6, 0xff
   10f78: 93 9e 3e 00  	slli	t4, t4, 0x3
   10f7c: b3 8e d7 01  	add	t4, a5, t4
   10f80: 83 be 0e 00  	ld	t4, 0x0(t4)
   10f84: 93 54 54 00  	srli	s1, s0, 0x5
   10f88: 93 f4 84 7f  	andi	s1, s1, 0x7f8
   10f8c: b3 04 98 00  	add	s1, a6, s1
   10f90: 83 b4 04 00  	ld	s1, 0x0(s1)
   10f94: 13 d9 d3 00  	srli	s2, t2, 0xd
   10f98: 13 79 89 7f  	andi	s2, s2, 0x7f8
   10f9c: 33 89 28 01  	add	s2, a7, s2
   10fa0: 03 39 09 00  	ld	s2, 0x0(s2)
   10fa4: 9b 59 8f 01  	srliw	s3, t5, 0x18
   10fa8: 93 99 39 00  	slli	s3, s3, 0x3
   10fac: b3 89 32 01  	add	s3, t0, s3
   10fb0: 83 b9 09 00  	ld	s3, 0x0(s3)
   10fb4: 33 ce ce 01  	xor	t3, t4, t3
   10fb8: b3 ce 24 01  	xor	t4, s1, s2
   10fbc: 33 4e de 01  	xor	t3, t3, t4
   10fc0: 33 4e 3e 01  	xor	t3, t3, s3
   10fc4: 83 3e 05 03  	ld	t4, 0x30(a0)
   10fc8: 93 74 f4 0f  	andi	s1, s0, 0xff
   10fcc: 93 94 34 00  	slli	s1, s1, 0x3
   10fd0: b3 84 97 00  	add	s1, a5, s1
   10fd4: 83 b4 04 00  	ld	s1, 0x0(s1)
   10fd8: 13 d9 53 00  	srli	s2, t2, 0x5
   10fdc: 13 79 89 7f  	andi	s2, s2, 0x7f8
   10fe0: 33 09 28 01  	add	s2, a6, s2
   10fe4: 03 39 09 00  	ld	s2, 0x0(s2)
   10fe8: 93 59 df 00  	srli	s3, t5, 0xd
   10fec: 93 f9 89 7f  	andi	s3, s3, 0x7f8
   10ff0: b3 89 38 01  	add	s3, a7, s3
   10ff4: 83 b9 09 00  	ld	s3, 0x0(s3)
   10ff8: 1b da 8f 01  	srliw	s4, t6, 0x18
   10ffc: 13 1a 3a 00  	slli	s4, s4, 0x3
   11000: 33 8a 42 01  	add	s4, t0, s4
   11004: 03 3a 0a 00  	ld	s4, 0x0(s4)
   11008: b3 ce d4 01  	xor	t4, s1, t4
   1100c: b3 44 39 01  	xor	s1, s2, s3
   11010: b3 ce 9e 00  	xor	t4, t4, s1
   11014: b3 c4 4e 01  	xor	s1, t4, s4
   11018: 83 3e 85 03  	ld	t4, 0x38(a0)
   1101c: 93 f3 f3 0f  	andi	t2, t2, 0xff
   11020: 93 93 33 00  	slli	t2, t2, 0x3
   11024: b3 83 77 00  	add	t2, a5, t2
   11028: 83 b3 03 00  	ld	t2, 0x0(t2)
   1102c: 13 5f 5f 00  	srli	t5, t5, 0x5
   11030: 13 7f 8f 7f  	andi	t5, t5, 0x7f8
   11034: 33 0f e8 01  	add	t5, a6, t5
   11038: 03 3f 0f 00  	ld	t5, 0x0(t5)
   1103c: 93 df df 00  	srli	t6, t6, 0xd
   11040: 93 ff 8f 7f  	andi	t6, t6, 0x7f8
   11044: b3 8f f8 01  	add	t6, a7, t6
   11048: 83 bf 0f 00  	ld	t6, 0x0(t6)
   1104c: 1b 54 84 01  	srliw	s0, s0, 0x18
   11050: 13 14 34 00  	slli	s0, s0, 0x3
   11054: 33 84 82 00  	add	s0, t0, s0
   11058: 03 34 04 00  	ld	s0, 0x0(s0)
   1105c: b3 c3 d3 01  	xor	t2, t2, t4
   11060: b3 4e ff 01  	xor	t4, t5, t6
   11064: b3 c3 d3 01  	xor	t2, t2, t4
   11068: b3 cf 83 00  	xor	t6, t2, s0
   1106c: 83 33 05 04  	ld	t2, 0x40(a0)
   11070: 93 7e f3 0f  	andi	t4, t1, 0xff
   11074: 93 9e 3e 00  	slli	t4, t4, 0x3
   11078: b3 8e d7 01  	add	t4, a5, t4
   1107c: 83 be 0e 00  	ld	t4, 0x0(t4)
   11080: 13 5f 5e 00  	srli	t5, t3, 0x5
   11084: 13 7f 8f 7f  	andi	t5, t5, 0x7f8
   11088: 33 0f e8 01  	add	t5, a6, t5
   1108c: 03 3f 0f 00  	ld	t5, 0x0(t5)
   11090: 13 d4 d4 00  	srli	s0, s1, 0xd
   11094: 13 74 84 7f  	andi	s0, s0, 0x7f8
   11098: 33 84 88 00  	add	s0, a7, s0
   1109c: 03 34 04 00  	ld	s0, 0x0(s0)
   110a0: 1b d9 8f 01  	srliw	s2, t6, 0x18
   110a4: 13 19 39 00  	slli	s2, s2, 0x3
   110a8: 33 89 22 01  	add	s2, t0, s2
   110ac: 03 39 09 00  	ld	s2, 0x0(s2)
   110b0: b3 c3 7e 00  	xor	t2, t4, t2
   110b4: b3 4e 8f 00  	xor	t4, t5, s0
   110b8: b3 c3 d3 01  	xor	t2, t2, t4
   110bc: b3 c3 23 01  	xor	t2, t2, s2
   110c0: 83 3e 85 04  	ld	t4, 0x48(a0)
   110c4: 13 7f fe 0f  	andi	t5, t3, 0xff
   110c8: 13 1f 3f 00  	slli	t5, t5, 0x3
   110cc: 33 8f e7 01  	add	t5, a5, t5
   110d0: 03 3f 0f 00  	ld	t5, 0x0(t5)
   110d4: 13 d4 54 00  	srli	s0, s1, 0x5
   110d8: 13 74 84 7f  	andi	s0, s0, 0x7f8
   110dc: 33 04 88 00  	add	s0, a6, s0
   110e0: 03 34 04 00  	ld	s0, 0x0(s0)
   110e4: 13 d9 df 00  	srli	s2, t6, 0xd
   110e8: 13 79 89 7f  	andi	s2, s2, 0x7f8
   110ec: 33 89 28 01  	add	s2, a7, s2
   110f0: 03 39 09 00  	ld	s2, 0x0(s2)
   110f4: 9b 59 83 01  	srliw	s3, t1, 0x18
   110f8: 93 99 39 00  	slli	s3, s3, 0x3
   110fc: b3 89 32 01  	add	s3, t0, s3
   11100: 83 b9 09 00  	ld	s3, 0x0(s3)
   11104: b3 4e df 01  	xor	t4, t5, t4
   11108: 33 4f 24 01  	xor	t5, s0, s2
   1110c: b3 ce ee 01  	xor	t4, t4, t5
   11110: b3 ce 3e 01  	xor	t4, t4, s3
   11114: 03 3f 05 05  	ld	t5, 0x50(a0)
   11118: 13 f4 f4 0f  	andi	s0, s1, 0xff
   1111c: 13 14 34 00  	slli	s0, s0, 0x3
   11120: 33 84 87 00  	add	s0, a5, s0
   11124: 03 34 04 00  	ld	s0, 0x0(s0)
   11128: 13 d9 5f 00  	srli	s2, t6, 0x5
   1112c: 13 79 89 7f  	andi	s2, s2, 0x7f8
   11130: 33 09 28 01  	add	s2, a6, s2
   11134: 03 39 09 00  	ld	s2, 0x0(s2)
   11138: 93 59 d3 00  	srli	s3, t1, 0xd
   1113c: 93 f9 89 7f  	andi	s3, s3, 0x7f8
   11140: b3 89 38 01  	add	s3, a7, s3
   11144: 83 b9 09 00  	ld	s3, 0x0(s3)
   11148: 1b 5a 8e 01  	srliw	s4, t3, 0x18
   1114c: 13 1a 3a 00  	slli	s4, s4, 0x3
   11150: 33 8a 42 01  	add	s4, t0, s4
   11154: 03 3a 0a 00  	ld	s4, 0x0(s4)
   11158: 33 4f e4 01  	xor	t5, s0, t5
   1115c: 33 44 39 01  	xor	s0, s2, s3
   11160: 33 4f 8f 00  	xor	t5, t5, s0
   11164: 33 4f 4f 01  	xor	t5, t5, s4
   11168: 03 34 85 05  	ld	s0, 0x58(a0)
   1116c: 93 ff ff 0f  	andi	t6, t6, 0xff
   11170: 93 9f 3f 00  	slli	t6, t6, 0x3
   11174: b3 8f f7 01  	add	t6, a5, t6
   11178: 83 bf 0f 00  	ld	t6, 0x0(t6)
   1117c: 13 53 53 00  	srli	t1, t1, 0x5
   11180: 13 73 83 7f  	andi	t1, t1, 0x7f8
   11184: 33 03 68 00  	add	t1, a6, t1
   11188: 03 33 03 00  	ld	t1, 0x0(t1)
   1118c: 13 5e de 00  	srli	t3, t3, 0xd
   11190: 13 7e 8e 7f  	andi	t3, t3, 0x7f8
   11194: 33 8e c8 01  	add	t3, a7, t3
   11198: 03 3e 0e 00  	ld	t3, 0x0(t3)
   1119c: 9b d4 84 01  	srliw	s1, s1, 0x18
   111a0: 93 94 34 00  	slli	s1, s1, 0x3
   111a4: b3 84 92 00  	add	s1, t0, s1
   111a8: 83 b4 04 00  	ld	s1, 0x0(s1)
   111ac: b3 cf 8f 00  	xor	t6, t6, s0
   111b0: 33 43 c3 01  	xor	t1, t1, t3
   111b4: 33 c4 6f 00  	xor	s0, t6, t1
   111b8: 33 44 94 00  	xor	s0, s0, s1
   111bc: 03 33 05 06  	ld	t1, 0x60(a0)
   111c0: 13 fe f3 0f  	andi	t3, t2, 0xff
   111c4: 13 1e 3e 00  	slli	t3, t3, 0x3
   111c8: 33 8e c7 01  	add	t3, a5, t3
   111cc: 03 3e 0e 00  	ld	t3, 0x0(t3)
   111d0: 93 df 5e 00  	srli	t6, t4, 0x5
   111d4: 93 ff 8f 7f  	andi	t6, t6, 0x7f8
   111d8: b3 0f f8 01  	add	t6, a6, t6
   111dc: 83 bf 0f 00  	ld	t6, 0x0(t6)
   111e0: 93 54 df 00  	srli	s1, t5, 0xd
   111e4: 93 f4 84 7f  	andi	s1, s1, 0x7f8
   111e8: b3 84 98 00  	add	s1, a7, s1
   111ec: 83 b4 04 00  	ld	s1, 0x0(s1)
   111f0: 1b 59 84 01  	srliw	s2, s0, 0x18
   111f4: 13 19 39 00  	slli	s2, s2, 0x3
   111f8: 33 89 22 01  	add	s2, t0, s2
   111fc: 03 39 09 00  	ld	s2, 0x0(s2)
   11200: 33 43 6e 00  	xor	t1, t3, t1
   11204: 33 ce 9f 00  	xor	t3, t6, s1
   11208: 33 43 c3 01  	xor	t1, t1, t3
   1120c: 33 43 23 01  	xor	t1, t1, s2
   11210: 03 3e 85 06  	ld	t3, 0x68(a0)
   11214: 93 ff fe 0f  	andi	t6, t4, 0xff
   11218: 93 9f 3f 00  	slli	t6, t6, 0x3
   1121c: b3 8f f7 01  	add	t6, a5, t6
   11220: 83 bf 0f 00  	ld	t6, 0x0(t6)
   11224: 93 54 5f 00  	srli	s1, t5, 0x5
   11228: 93 f4 84 7f  	andi	s1, s1, 0x7f8
   1122c: b3 04 98 00  	add	s1, a6, s1
   11230: 83 b4 04 00  	ld	s1, 0x0(s1)
   11234: 13 59 d4 00  	srli	s2, s0, 0xd
   11238: 13 79 89 7f  	andi	s2, s2, 0x7f8
   1123c: 33 89 28 01  	add	s2, a7, s2
   11240: 03 39 09 00  	ld	s2, 0x0(s2)
   11244: 9b d9 83 01  	srliw	s3, t2, 0x18
   11248: 93 99 39 00  	slli	s3, s3, 0x3
   1124c: b3 89 32 01  	add	s3, t0, s3
   11250: 83 b9 09 00  	ld	s3, 0x0(s3)
   11254: 33 ce cf 01  	xor	t3, t6, t3
   11258: b3 cf 24 01  	xor	t6, s1, s2
   1125c: 33 4e fe 01  	xor	t3, t3, t6
   11260: 33 4e 3e 01  	xor	t3, t3, s3
   11264: 83 3f 05 07  	ld	t6, 0x70(a0)
   11268: 93 74 ff 0f  	andi	s1, t5, 0xff
   1126c: 93 94 34 00  	slli	s1, s1, 0x3
   11270: b3 84 97 00  	add	s1, a5, s1
   11274: 83 b4 04 00  	ld	s1, 0x0(s1)
   11278: 13 59 54 00  	srli	s2, s0, 0x5
   1127c: 13 79 89 7f  	andi	s2, s2, 0x7f8
   11280: 33 09 28 01  	add	s2, a6, s2
   11284: 03 39 09 00  	ld	s2, 0x0(s2)
   11288: 93 d9 d3 00  	srli	s3, t2, 0xd
   1128c: 93 f9 89 7f  	andi	s3, s3, 0x7f8
   11290: b3 89 38 01  	add	s3, a7, s3
   11294: 83 b9 09 00  	ld	s3, 0x0(s3)
   11298: 1b da 8e 01  	srliw	s4, t4, 0x18
   1129c: 13 1a 3a 00  	slli	s4, s4, 0x3
   112a0: 33 8a 42 01  	add	s4, t0, s4
   112a4: 03 3a 0a 00  	ld	s4, 0x0(s4)
   112a8: b3 cf f4 01  	xor	t6, s1, t6
   112ac: b3 44 39 01  	xor	s1, s2, s3
   112b0: b3 cf 9f 00  	xor	t6, t6, s1
   112b4: b3 cf 4f 01  	xor	t6, t6, s4
   112b8: 83 34 85 07  	ld	s1, 0x78(a0)
   112bc: 13 74 f4 0f  	andi	s0, s0, 0xff
   112c0: 13 14 34 00  	slli	s0, s0, 0x3
   112c4: 33 84 87 00  	add	s0, a5, s0
   112c8: 03 34 04 00  	ld	s0, 0x0(s0)
   112cc: 93 d3 53 00  	srli	t2, t2, 0x5
   112d0: 93 f3 83 7f  	andi	t2, t2, 0x7f8
   112d4: b3 03 78 00  	add	t2, a6, t2
   112d8: 83 b3 03 00  	ld	t2, 0x0(t2)
   112dc: 93 de de 00  	srli	t4, t4, 0xd
   112e0: 93 fe 8e 7f  	andi	t4, t4, 0x7f8
   112e4: b3 8e d8 01  	add	t4, a7, t4
   112e8: 83 be 0e 00  	ld	t4, 0x0(t4)
   112ec: 1b 5f 8f 01  	srliw	t5, t5, 0x18
   112f0: 13 1f 3f 00  	slli	t5, t5, 0x3
   112f4: 33 8f e2 01  	add	t5, t0, t5
   112f8: 03 3f 0f 00  	ld	t5, 0x0(t5)
   112fc: 33 44 94 00  	xor	s0, s0, s1
   11300: b3 c3 d3 01  	xor	t2, t2, t4
   11304: b3 43 74 00  	xor	t2, s0, t2
   11308: 33 c4 e3 01  	xor	s0, t2, t5
   1130c: 83 33 05 08  	ld	t2, 0x80(a0)
   11310: 93 7e f3 0f  	andi	t4, t1, 0xff
   11314: 93 9e 3e 00  	slli	t4, t4, 0x3
   11318: b3 8e d7 01  	add	t4, a5, t4
   1131c: 83 be 0e 00  	ld	t4, 0x0(t4)
   11320: 13 5f 5e 00  	srli	t5, t3, 0x5
   11324: 13 7f 8f 7f  	andi	t5, t5, 0x7f8
   11328: 33 0f e8 01  	add	t5, a6, t5
   1132c: 03 3f 0f 00  	ld	t5, 0x0(t5)
   11330: 93 d4 df 00  	srli	s1, t6, 0xd
   11334: 93 f4 84 7f  	andi	s1, s1, 0x7f8
   11338: b3 84 98 00  	add	s1, a7, s1
   1133c: 83 b4 04 00  	ld	s1, 0x0(s1)
   11340: 1b 59 84 01  	srliw	s2, s0, 0x18
   11344: 13 19 39 00  	slli	s2, s2, 0x3
   11348: 33 89 22 01  	add	s2, t0, s2
   1134c: 03 39 09 00  	ld	s2, 0x0(s2)
   11350: b3 c3 7e 00  	xor	t2, t4, t2
   11354: b3 4e 9f 00  	xor	t4, t5, s1
   11358: b3 c3 d3 01  	xor	t2, t2, t4
   1135c: b3 c3 23 01  	xor	t2, t2, s2
   11360: 83 3e 85 08  	ld	t4, 0x88(a0)
   11364: 13 7f fe 0f  	andi	t5, t3, 0xff
   11368: 13 1f 3f 00  	slli	t5, t5, 0x3
   1136c: 33 8f e7 01  	add	t5, a5, t5
   11370: 03 3f 0f 00  	ld	t5, 0x0(t5)
   11374: 93 d4 5f 00  	srli	s1, t6, 0x5
   11378: 93 f4 84 7f  	andi	s1, s1, 0x7f8
   1137c: b3 04 98 00  	add	s1, a6, s1
   11380: 83 b4 04 00  	ld	s1, 0x0(s1)
   11384: 13 59 d4 00  	srli	s2, s0, 0xd
   11388: 13 79 89 7f  	andi	s2, s2, 0x7f8
   1138c: 33 89 28 01  	add	s2, a7, s2
   11390: 03 39 09 00  	ld	s2, 0x0(s2)
   11394: 9b 59 83 01  	srliw	s3, t1, 0x18
   11398: 93 99 39 00  	slli	s3, s3, 0x3
   1139c: b3 89 32 01  	add	s3, t0, s3
   113a0: 83 b9 09 00  	ld	s3, 0x0(s3)
   113a4: b3 4e df 01  	xor	t4, t5, t4
   113a8: 33 cf 24 01  	xor	t5, s1, s2
   113ac: b3 ce ee 01  	xor	t4, t4, t5
   113b0: b3 ce 3e 01  	xor	t4, t4, s3
   113b4: 03 3f 05 09  	ld	t5, 0x90(a0)
   113b8: 93 f4 ff 0f  	andi	s1, t6, 0xff
   113bc: 93 94 34 00  	slli	s1, s1, 0x3
   113c0: b3 84 97 00  	add	s1, a5, s1
   113c4: 83 b4 04 00  	ld	s1, 0x0(s1)
   113c8: 13 59 54 00  	srli	s2, s0, 0x5
   113cc: 13 79 89 7f  	andi	s2, s2, 0x7f8
   113d0: 33 09 28 01  	add	s2, a6, s2
   113d4: 03 39 09 00  	ld	s2, 0x0(s2)
   113d8: 93 59 d3 00  	srli	s3, t1, 0xd
   113dc: 93 f9 89 7f  	andi	s3, s3, 0x7f8
   113e0: b3 89 38 01  	add	s3, a7, s3
   113e4: 83 b9 09 00  	ld	s3, 0x0(s3)
   113e8: 1b 5a 8e 01  	srliw	s4, t3, 0x18
   113ec: 13 1a 3a 00  	slli	s4, s4, 0x3
   113f0: 33 8a 42 01  	add	s4, t0, s4
   113f4: 03 3a 0a 00  	ld	s4, 0x0(s4)
   113f8: 33 cf e4 01  	xor	t5, s1, t5
   113fc: b3 44 39 01  	xor	s1, s2, s3
   11400: 33 4f 9f 00  	xor	t5, t5, s1
   11404: 33 4f 4f 01  	xor	t5, t5, s4
   11408: 83 34 85 09  	ld	s1, 0x98(a0)
   1140c: 13 74 f4 0f  	andi	s0, s0, 0xff
   11410: 13 14 34 00  	slli	s0, s0, 0x3
   11414: 33 84 87 00  	add	s0, a5, s0
   11418: 03 34 04 00  	ld	s0, 0x0(s0)
   1141c: 13 53 53 00  	srli	t1, t1, 0x5
   11420: 13 73 83 7f  	andi	t1, t1, 0x7f8
   11424: 33 03 68 00  	add	t1, a6, t1
   11428: 03 33 03 00  	ld	t1, 0x0(t1)
   1142c: 13 5e de 00  	srli	t3, t3, 0xd
   11430: 13 7e 8e 7f  	andi	t3, t3, 0x7f8
   11434: 33 8e c8 01  	add	t3, a7, t3
   11438: 03 3e 0e 00  	ld	t3, 0x0(t3)
   1143c: 9b df 8f 01  	srliw	t6, t6, 0x18
   11440: 93 9f 3f 00  	slli	t6, t6, 0x3
   11444: b3 8f f2 01  	add	t6, t0, t6
   11448: 83 bf 0f 00  	ld	t6, 0x0(t6)
   1144c: 33 44 94 00  	xor	s0, s0, s1
   11450: 33 43 c3 01  	xor	t1, t1, t3
   11454: 33 43 64 00  	xor	t1, s0, t1
   11458: 33 44 f3 01  	xor	s0, t1, t6
   1145c: 03 33 05 0a  	ld	t1, 0xa0(a0)
   11460: 13 fe f3 0f  	andi	t3, t2, 0xff
   11464: 13 1e 3e 00  	slli	t3, t3, 0x3
   11468: 33 8e c7 01  	add	t3, a5, t3
   1146c: 03 3e 0e 00  	ld	t3, 0x0(t3)
   11470: 93 df 5e 00  	srli	t6, t4, 0x5
   11474: 93 ff 8f 7f  	andi	t6, t6, 0x7f8
   11478: b3 0f f8 01  	add	t6, a6, t6
   1147c: 83 bf 0f 00  	ld	t6, 0x0(t6)
   11480: 93 54 df 00  	srli	s1, t5, 0xd
   11484: 93 f4 84 7f  	andi	s1, s1, 0x7f8
   11488: b3 84 98 00  	add	s1, a7, s1
   1148c: 83 b4 04 00  	ld	s1, 0x0(s1)
   11490: 1b 59 84 01  	srliw	s2, s0, 0x18
   11494: 13 19 39 00  	slli	s2, s2, 0x3
   11498: 33 89 22 01  	add	s2, t0, s2
   1149c: 03 39 09 00  	ld	s2, 0x0(s2)
   114a0: 33 43 6e 00  	xor	t1, t3, t1
   114a4: 33 ce 9f 00  	xor	t3, t6, s1
   114a8: 33 43 c3 01  	xor	t1, t1, t3
   114ac: 33 43 23 01  	xor	t1, t1, s2
   114b0: 03 3e 85 0a  	ld	t3, 0xa8(a0)
   114b4: 93 ff fe 0f  	andi	t6, t4, 0xff
   114b8: 93 9f 3f 00  	slli	t6, t6, 0x3
   114bc: b3 8f f7 01  	add	t6, a5, t6
   114c0: 83 bf 0f 00  	ld	t6, 0x0(t6)
   114c4: 93 54 5f 00  	srli	s1, t5, 0x5
   114c8: 93 f4 84 7f  	andi	s1, s1, 0x7f8
   114cc: b3 04 98 00  	add	s1, a6, s1
   114d0: 83 b4 04 00  	ld	s1, 0x0(s1)
   114d4: 13 59 d4 00  	srli	s2, s0, 0xd
   114d8: 13 79 89 7f  	andi	s2, s2, 0x7f8
   114dc: 33 89 28 01  	add	s2, a7, s2
   114e0: 03 39 09 00  	ld	s2, 0x0(s2)
   114e4: 9b d9 83 01  	srliw	s3, t2, 0x18
   114e8: 93 99 39 00  	slli	s3, s3, 0x3
   114ec: b3 89 32 01  	add	s3, t0, s3
   114f0: 83 b9 09 00  	ld	s3, 0x0(s3)
   114f4: 33 ce cf 01  	xor	t3, t6, t3
   114f8: b3 cf 24 01  	xor	t6, s1, s2
   114fc: 33 4e fe 01  	xor	t3, t3, t6
   11500: 33 4e 3e 01  	xor	t3, t3, s3
   11504: 83 3f 05 0b  	ld	t6, 0xb0(a0)
   11508: 93 74 ff 0f  	andi	s1, t5, 0xff
   1150c: 93 94 34 00  	slli	s1, s1, 0x3
   11510: b3 84 97 00  	add	s1, a5, s1
   11514: 83 b4 04 00  	ld	s1, 0x0(s1)
   11518: 13 59 54 00  	srli	s2, s0, 0x5
   1151c: 13 79 89 7f  	andi	s2, s2, 0x7f8
   11520: 33 09 28 01  	add	s2, a6, s2
   11524: 03 39 09 00  	ld	s2, 0x0(s2)
   11528: 93 d9 d3 00  	srli	s3, t2, 0xd
   1152c: 93 f9 89 7f  	andi	s3, s3, 0x7f8
   11530: b3 89 38 01  	add	s3, a7, s3
   11534: 83 b9 09 00  	ld	s3, 0x0(s3)
   11538: 1b da 8e 01  	srliw	s4, t4, 0x18
   1153c: 13 1a 3a 00  	slli	s4, s4, 0x3
   11540: 33 8a 42 01  	add	s4, t0, s4
   11544: 03 3a 0a 00  	ld	s4, 0x0(s4)
   11548: b3 cf f4 01  	xor	t6, s1, t6
   1154c: b3 44 39 01  	xor	s1, s2, s3
   11550: b3 cf 9f 00  	xor	t6, t6, s1
   11554: b3 cf 4f 01  	xor	t6, t6, s4
   11558: 83 34 85 0b  	ld	s1, 0xb8(a0)
   1155c: 13 74 f4 0f  	andi	s0, s0, 0xff
   11560: 13 14 34 00  	slli	s0, s0, 0x3
   11564: 33 84 87 00  	add	s0, a5, s0
   11568: 03 34 04 00  	ld	s0, 0x0(s0)
   1156c: 93 d3 53 00  	srli	t2, t2, 0x5
   11570: 93 f3 83 7f  	andi	t2, t2, 0x7f8
   11574: b3 03 78 00  	add	t2, a6, t2
   11578: 83 b3 03 00  	ld	t2, 0x0(t2)
   1157c: 93 de de 00  	srli	t4, t4, 0xd
   11580: 93 fe 8e 7f  	andi	t4, t4, 0x7f8
   11584: b3 8e d8 01  	add	t4, a7, t4
   11588: 83 be 0e 00  	ld	t4, 0x0(t4)
   1158c: 1b 5f 8f 01  	srliw	t5, t5, 0x18
   11590: 13 1f 3f 00  	slli	t5, t5, 0x3
   11594: 33 8f e2 01  	add	t5, t0, t5
   11598: 03 3f 0f 00  	ld	t5, 0x0(t5)
   1159c: 33 44 94 00  	xor	s0, s0, s1
   115a0: b3 c3 d3 01  	xor	t2, t2, t4
   115a4: b3 43 74 00  	xor	t2, s0, t2
   115a8: 33 c4 e3 01  	xor	s0, t2, t5
   115ac: 83 33 05 0c  	ld	t2, 0xc0(a0)
   115b0: 93 7e f3 0f  	andi	t4, t1, 0xff
   115b4: 93 9e 3e 00  	slli	t4, t4, 0x3
   115b8: b3 8e d7 01  	add	t4, a5, t4
   115bc: 83 be 0e 00  	ld	t4, 0x0(t4)
   115c0: 13 5f 5e 00  	srli	t5, t3, 0x5
   115c4: 13 7f 8f 7f  	andi	t5, t5, 0x7f8
   115c8: 33 0f e8 01  	add	t5, a6, t5
   115cc: 03 3f 0f 00  	ld	t5, 0x0(t5)
   115d0: 93 d4 df 00  	srli	s1, t6, 0xd
   115d4: 93 f4 84 7f  	andi	s1, s1, 0x7f8
   115d8: b3 84 98 00  	add	s1, a7, s1
   115dc: 83 b4 04 00  	ld	s1, 0x0(s1)
   115e0: 1b 59 84 01  	srliw	s2, s0, 0x18
   115e4: 13 19 39 00  	slli	s2, s2, 0x3
   115e8: 33 89 22 01  	add	s2, t0, s2
   115ec: 03 39 09 00  	ld	s2, 0x0(s2)
   115f0: b3 c3 7e 00  	xor	t2, t4, t2
   115f4: b3 4e 9f 00  	xor	t4, t5, s1
   115f8: b3 c3 d3 01  	xor	t2, t2, t4
   115fc: b3 c3 23 01  	xor	t2, t2, s2
   11600: 83 3e 85 0c  	ld	t4, 0xc8(a0)
   11604: 13 7f fe 0f  	andi	t5, t3, 0xff
   11608: 13 1f 3f 00  	slli	t5, t5, 0x3
   1160c: 33 8f e7 01  	add	t5, a5, t5
   11610: 03 3f 0f 00  	ld	t5, 0x0(t5)
   11614: 93 d4 5f 00  	srli	s1, t6, 0x5
   11618: 93 f4 84 7f  	andi	s1, s1, 0x7f8
   1161c: b3 04 98 00  	add	s1, a6, s1
   11620: 83 b4 04 00  	ld	s1, 0x0(s1)
   11624: 13 59 d4 00  	srli	s2, s0, 0xd
   11628: 13 79 89 7f  	andi	s2, s2, 0x7f8
   1162c: 33 89 28 01  	add	s2, a7, s2
   11630: 03 39 09 00  	ld	s2, 0x0(s2)
   11634: 9b 59 83 01  	srliw	s3, t1, 0x18
   11638: 93 99 39 00  	slli	s3, s3, 0x3
   1163c: b3 89 32 01  	add	s3, t0, s3
   11640: 83 b9 09 00  	ld	s3, 0x0(s3)
   11644: b3 4e df 01  	xor	t4, t5, t4
   11648: 33 cf 24 01  	xor	t5, s1, s2
   1164c: b3 ce ee 01  	xor	t4, t4, t5
   11650: b3 ce 3e 01  	xor	t4, t4, s3
   11654: 03 3f 05 0d  	ld	t5, 0xd0(a0)
   11658: 93 f4 ff 0f  	andi	s1, t6, 0xff
   1165c: 93 94 34 00  	slli	s1, s1, 0x3
   11660: b3 84 97 00  	add	s1, a5, s1
   11664: 83 b4 04 00  	ld	s1, 0x0(s1)
   11668: 13 59 54 00  	srli	s2, s0, 0x5
   1166c: 13 79 89 7f  	andi	s2, s2, 0x7f8
   11670: 33 09 28 01  	add	s2, a6, s2
   11674: 03 39 09 00  	ld	s2, 0x0(s2)
   11678: 93 59 d3 00  	srli	s3, t1, 0xd
   1167c: 93 f9 89 7f  	andi	s3, s3, 0x7f8
   11680: b3 89 38 01  	add	s3, a7, s3
   11684: 83 b9 09 00  	ld	s3, 0x0(s3)
   11688: 1b 5a 8e 01  	srliw	s4, t3, 0x18
   1168c: 13 1a 3a 00  	slli	s4, s4, 0x3
   11690: 33 8a 42 01  	add	s4, t0, s4
   11694: 03 3a 0a 00  	ld	s4, 0x0(s4)
   11698: 33 cf e4 01  	xor	t5, s1, t5
   1169c: b3 44 39 01  	xor	s1, s2, s3
   116a0: 33 4f 9f 00  	xor	t5, t5, s1
   116a4: 33 4f 4f 01  	xor	t5, t5, s4
   116a8: 83 34 85 0d  	ld	s1, 0xd8(a0)
   116ac: 13 74 f4 0f  	andi	s0, s0, 0xff
   116b0: 13 14 34 00  	slli	s0, s0, 0x3
   116b4: 33 84 87 00  	add	s0, a5, s0
   116b8: 03 34 04 00  	ld	s0, 0x0(s0)
   116bc: 13 53 53 00  	srli	t1, t1, 0x5
   116c0: 13 73 83 7f  	andi	t1, t1, 0x7f8
   116c4: 33 03 68 00  	add	t1, a6, t1
   116c8: 03 33 03 00  	ld	t1, 0x0(t1)
   116cc: 13 5e de 00  	srli	t3, t3, 0xd
   116d0: 13 7e 8e 7f  	andi	t3, t3, 0x7f8
   116d4: 33 8e c8 01  	add	t3, a7, t3
   116d8: 03 3e 0e 00  	ld	t3, 0x0(t3)
   116dc: 9b df 8f 01  	srliw	t6, t6, 0x18
   116e0: 93 9f 3f 00  	slli	t6, t6, 0x3
   116e4: b3 8f f2 01  	add	t6, t0, t6
   116e8: 83 bf 0f 00  	ld	t6, 0x0(t6)
   116ec: 33 44 94 00  	xor	s0, s0, s1
   116f0: 33 43 c3 01  	xor	t1, t1, t3
   116f4: 33 43 64 00  	xor	t1, s0, t1
   116f8: b3 4f f3 01  	xor	t6, t1, t6
   116fc: 03 33 05 0e  	ld	t1, 0xe0(a0)
   11700: 13 fe f3 0f  	andi	t3, t2, 0xff
   11704: 13 1e 3e 00  	slli	t3, t3, 0x3
   11708: 33 8e c7 01  	add	t3, a5, t3
   1170c: 03 3e 0e 00  	ld	t3, 0x0(t3)
   11710: 13 d4 5e 00  	srli	s0, t4, 0x5
   11714: 13 74 84 7f  	andi	s0, s0, 0x7f8
   11718: 33 04 88 00  	add	s0, a6, s0
   1171c: 03 34 04 00  	ld	s0, 0x0(s0)
   11720: 93 54 df 00  	srli	s1, t5, 0xd
   11724: 93 f4 84 7f  	andi	s1, s1, 0x7f8
   11728: b3 84 98 00  	add	s1, a7, s1
   1172c: 83 b4 04 00  	ld	s1, 0x0(s1)
   11730: 1b d9 8f 01  	srliw	s2, t6, 0x18
   11734: 13 19 39 00  	slli	s2, s2, 0x3
   11738: 33 89 22 01  	add	s2, t0, s2
   1173c: 03 39 09 00  	ld	s2, 0x0(s2)
   11740: 33 43 6e 00  	xor	t1, t3, t1
   11744: 33 44 94 00  	xor	s0, s0, s1
   11748: 33 43 83 00  	xor	t1, t1, s0
   1174c: 33 43 23 01  	xor	t1, t1, s2
   11750: 03 3e 85 0e  	ld	t3, 0xe8(a0)
   11754: 13 f4 fe 0f  	andi	s0, t4, 0xff
   11758: 13 14 34 00  	slli	s0, s0, 0x3
   1175c: 33 84 87 00  	add	s0, a5, s0
   11760: 03 34 04 00  	ld	s0, 0x0(s0)
   11764: 93 54 5f 00  	srli	s1, t5, 0x5
   11768: 93 f4 84 7f  	andi	s1, s1, 0x7f8
   1176c: b3 04 98 00  	add	s1, a6, s1
   11770: 83 b4 04 00  	ld	s1, 0x0(s1)
   11774: 13 d9 df 00  	srli	s2, t6, 0xd
   11778: 13 79 89 7f  	andi	s2, s2, 0x7f8
   1177c: 33 89 28 01  	add	s2, a7, s2
   11780: 03 39 09 00  	ld	s2, 0x0(s2)
   11784: 9b d9 83 01  	srliw	s3, t2, 0x18
   11788: 93 99 39 00  	slli	s3, s3, 0x3
   1178c: b3 89 32 01  	add	s3, t0, s3
   11790: 83 b9 09 00  	ld	s3, 0x0(s3)
   11794: 33 4e c4 01  	xor	t3, s0, t3
   11798: 33 c4 24 01  	xor	s0, s1, s2
   1179c: 33 4e 8e 00  	xor	t3, t3, s0
   117a0: 33 4e 3e 01  	xor	t3, t3, s3
   117a4: 03 34 05 0f  	ld	s0, 0xf0(a0)
   117a8: 93 74 ff 0f  	andi	s1, t5, 0xff
   117ac: 93 94 34 00  	slli	s1, s1, 0x3
   117b0: b3 84 97 00  	add	s1, a5, s1
   117b4: 83 b4 04 00  	ld	s1, 0x0(s1)
   117b8: 13 d9 5f 00  	srli	s2, t6, 0x5
   117bc: 13 79 89 7f  	andi	s2, s2, 0x7f8
   117c0: 33 09 28 01  	add	s2, a6, s2
   117c4: 03 39 09 00  	ld	s2, 0x0(s2)
   117c8: 93 d9 d3 00  	srli	s3, t2, 0xd
   117cc: 93 f9 89 7f  	andi	s3, s3, 0x7f8
   117d0: b3 89 38 01  	add	s3, a7, s3
   117d4: 83 b9 09 00  	ld	s3, 0x0(s3)
   117d8: 1b da 8e 01  	srliw	s4, t4, 0x18
   117dc: 13 1a 3a 00  	slli	s4, s4, 0x3
   117e0: 33 8a 42 01  	add	s4, t0, s4
   117e4: 03 3a 0a 00  	ld	s4, 0x0(s4)
   117e8: 33 c4 84 00  	xor	s0, s1, s0
   117ec: b3 44 39 01  	xor	s1, s2, s3
   117f0: 33 44 94 00  	xor	s0, s0, s1
   117f4: 33 44 44 01  	xor	s0, s0, s4
   117f8: 83 34 85 0f  	ld	s1, 0xf8(a0)
   117fc: 93 ff ff 0f  	andi	t6, t6, 0xff
   11800: 93 9f 3f 00  	slli	t6, t6, 0x3
   11804: b3 8f f7 01  	add	t6, a5, t6
   11808: 83 bf 0f 00  	ld	t6, 0x0(t6)
   1180c: 93 d3 53 00  	srli	t2, t2, 0x5
   11810: 93 f3 83 7f  	andi	t2, t2, 0x7f8
   11814: b3 03 78 00  	add	t2, a6, t2
   11818: 83 b3 03 00  	ld	t2, 0x0(t2)
   1181c: 93 de de 00  	srli	t4, t4, 0xd
   11820: 93 fe 8e 7f  	andi	t4, t4, 0x7f8
   11824: b3 8e d8 01  	add	t4, a7, t4
   11828: 83 be 0e 00  	ld	t4, 0x0(t4)
   1182c: 1b 5f 8f 01  	srliw	t5, t5, 0x18
   11830: 13 1f 3f 00  	slli	t5, t5, 0x3
   11834: 33 8f e2 01  	add	t5, t0, t5
   11838: 03 3f 0f 00  	ld	t5, 0x0(t5)
   1183c: b3 cf 9f 00  	xor	t6, t6, s1
   11840: b3 c3 d3 01  	xor	t2, t2, t4
   11844: b3 c3 7f 00  	xor	t2, t6, t2
   11848: b3 c3 e3 01  	xor	t2, t2, t5
   1184c: 83 3e 05 10  	ld	t4, 0x100(a0)
   11850: 13 7f f3 0f  	andi	t5, t1, 0xff
   11854: 13 1f 3f 00  	slli	t5, t5, 0x3
   11858: 33 8f e7 01  	add	t5, a5, t5
   1185c: 03 3f 0f 00  	ld	t5, 0x0(t5)
   11860: 93 5f 5e 00  	srli	t6, t3, 0x5
   11864: 93 ff 8f 7f  	andi	t6, t6, 0x7f8
   11868: b3 0f f8 01  	add	t6, a6, t6
   1186c: 83 bf 0f 00  	ld	t6, 0x0(t6)
   11870: 93 54 d4 00  	srli	s1, s0, 0xd
   11874: 93 f4 84 7f  	andi	s1, s1, 0x7f8
   11878: b3 84 98 00  	add	s1, a7, s1
   1187c: 83 b4 04 00  	ld	s1, 0x0(s1)
   11880: 1b d9 83 01  	srliw	s2, t2, 0x18
   11884: 13 19 39 00  	slli	s2, s2, 0x3
   11888: 33 89 22 01  	add	s2, t0, s2
   1188c: 03 39 09 00  	ld	s2, 0x0(s2)
   11890: b3 4e df 01  	xor	t4, t5, t4
   11894: 33 cf 9f 00  	xor	t5, t6, s1
   11898: b3 ce ee 01  	xor	t4, t4, t5
   1189c: b3 ce 2e 01  	xor	t4, t4, s2
   118a0: 03 3f 85 10  	ld	t5, 0x108(a0)
   118a4: 93 7f fe 0f  	andi	t6, t3, 0xff
   118a8: 93 9f 3f 00  	slli	t6, t6, 0x3
   118ac: b3 8f f7 01  	add	t6, a5, t6
   118b0: 83 bf 0f 00  	ld	t6, 0x0(t6)
   118b4: 93 54 54 00  	srli	s1, s0, 0x5
   118b8: 93 f4 84 7f  	andi	s1, s1, 0x7f8
   118bc: b3 04 98 00  	add	s1, a6, s1
   118c0: 83 b4 04 00  	ld	s1, 0x0(s1)
   118c4: 13 d9 d3 00  	srli	s2, t2, 0xd
   118c8: 13 79 89 7f  	andi	s2, s2, 0x7f8
   118cc: 33 89 28 01  	add	s2, a7, s2
   118d0: 03 39 09 00  	ld	s2, 0x0(s2)
   118d4: 9b 59 83 01  	srliw	s3, t1, 0x18
   118d8: 93 99 39 00  	slli	s3, s3, 0x3
   118dc: b3 89 32 01  	add	s3, t0, s3
   118e0: 83 b9 09 00  	ld	s3, 0x0(s3)
   118e4: 33 cf ef 01  	xor	t5, t6, t5
   118e8: b3 cf 24 01  	xor	t6, s1, s2
   118ec: 33 4f ff 01  	xor	t5, t5, t6
   118f0: 33 4f 3f 01  	xor	t5, t5, s3
   118f4: 83 3f 05 11  	ld	t6, 0x110(a0)
   118f8: 93 74 f4 0f  	andi	s1, s0, 0xff
   118fc: 93 94 34 00  	slli	s1, s1, 0x3
   11900: b3 84 97 00  	add	s1, a5, s1
   11904: 83 b4 04 00  	ld	s1, 0x0(s1)
   11908: 13 d9 53 00  	srli	s2, t2, 0x5
   1190c: 13 79 89 7f  	andi	s2, s2, 0x7f8
   11910: 33 09 28 01  	add	s2, a6, s2
   11914: 03 39 09 00  	ld	s2, 0x0(s2)
   11918: 93 59 d3 00  	srli	s3, t1, 0xd
   1191c: 93 f9 89 7f  	andi	s3, s3, 0x7f8
   11920: b3 89 38 01  	add	s3, a7, s3
   11924: 83 b9 09 00  	ld	s3, 0x0(s3)
   11928: 1b 5a 8e 01  	srliw	s4, t3, 0x18
   1192c: 13 1a 3a 00  	slli	s4, s4, 0x3
   11930: 33 8a 42 01  	add	s4, t0, s4
   11934: 03 3a 0a 00  	ld	s4, 0x0(s4)
   11938: b3 cf f4 01  	xor	t6, s1, t6
   1193c: b3 44 39 01  	xor	s1, s2, s3
   11940: b3 cf 9f 00  	xor	t6, t6, s1
   11944: b3 cf 4f 01  	xor	t6, t6, s4
   11948: 83 34 85 11  	ld	s1, 0x118(a0)
   1194c: 93 f3 f3 0f  	andi	t2, t2, 0xff
   11950: 93 93 33 00  	slli	t2, t2, 0x3
   11954: b3 87 77 00  	add	a5, a5, t2
   11958: 83 b7 07 00  	ld	a5, 0x0(a5)
   1195c: 13 53 53 00  	srli	t1, t1, 0x5
   11960: 13 73 83 7f  	andi	t1, t1, 0x7f8
   11964: 33 08 68 00  	add	a6, a6, t1
   11968: 03 38 08 00  	ld	a6, 0x0(a6)
   1196c: 13 53 de 00  	srli	t1, t3, 0xd
   11970: 13 73 83 7f  	andi	t1, t1, 0x7f8
   11974: b3 88 68 00  	add	a7, a7, t1
   11978: 83 b8 08 00  	ld	a7, 0x0(a7)
   1197c: 1b 53 84 01  	srliw	t1, s0, 0x18
   11980: 13 13 33 00  	slli	t1, t1, 0x3
   11984: b3 82 62 00  	add	t0, t0, t1
   11988: 83 b2 02 00  	ld	t0, 0x0(t0)
   1198c: b3 c7 97 00  	xor	a5, a5, s1
   11990: 33 48 18 01  	xor	a6, a6, a7
   11994: b3 c7 07 01  	xor	a5, a5, a6
   11998: b3 c7 57 00  	xor	a5, a5, t0
   1199c: 83 38 05 12  	ld	a7, 0x120(a0)
   119a0: 13 f8 fe 0f  	andi	a6, t4, 0xff
   119a4: 93 12 38 00  	slli	t0, a6, 0x3
   119a8: 37 18 02 00  	lui	a6, 0x21
   119ac: 13 08 08 11  	addi	a6, a6, 0x110
   119b0: b3 02 58 00  	add	t0, a6, t0
   119b4: 83 b2 02 00  	ld	t0, 0x0(t0)
   119b8: 13 53 5f 00  	srli	t1, t5, 0x5
   119bc: 13 73 83 7f  	andi	t1, t1, 0x7f8
   119c0: 33 06 c8 00  	add	a2, a6, a2
   119c4: 33 03 66 00  	add	t1, a2, t1
   119c8: 03 33 03 00  	ld	t1, 0x0(t1)
   119cc: 93 d3 df 00  	srli	t2, t6, 0xd
   119d0: 93 f3 83 7f  	andi	t2, t2, 0x7f8
   119d4: b3 06 d8 00  	add	a3, a6, a3
   119d8: b3 83 76 00  	add	t2, a3, t2
   119dc: 83 b3 03 00  	ld	t2, 0x0(t2)
   119e0: 1b de 87 01  	srliw	t3, a5, 0x18
   119e4: 13 1e 3e 00  	slli	t3, t3, 0x3
   119e8: 33 07 e8 00  	add	a4, a6, a4
   119ec: 33 0e c7 01  	add	t3, a4, t3
   119f0: 03 3e 0e 00  	ld	t3, 0x0(t3)
   119f4: b3 c8 12 01  	xor	a7, t0, a7
   119f8: b3 42 73 00  	xor	t0, t1, t2
   119fc: b3 c8 58 00  	xor	a7, a7, t0
   11a00: 33 c3 c8 01  	xor	t1, a7, t3
   11a04: 83 38 85 12  	ld	a7, 0x128(a0)
   11a08: 93 72 ff 0f  	andi	t0, t5, 0xff
   11a0c: 93 92 32 00  	slli	t0, t0, 0x3
   11a10: b3 02 58 00  	add	t0, a6, t0
   11a14: 83 b2 02 00  	ld	t0, 0x0(t0)
   11a18: 93 d3 5f 00  	srli	t2, t6, 0x5
   11a1c: 93 f3 83 7f  	andi	t2, t2, 0x7f8
   11a20: b3 03 76 00  	add	t2, a2, t2
   11a24: 83 b3 03 00  	ld	t2, 0x0(t2)
   11a28: 13 de d7 00  	srli	t3, a5, 0xd
   11a2c: 13 7e 8e 7f  	andi	t3, t3, 0x7f8
   11a30: 33 8e c6 01  	add	t3, a3, t3
   11a34: 03 3e 0e 00  	ld	t3, 0x0(t3)
   11a38: 1b d4 8e 01  	srliw	s0, t4, 0x18
   11a3c: 13 14 34 00  	slli	s0, s0, 0x3
   11a40: 33 04 87 00  	add	s0, a4, s0
   11a44: 03 34 04 00  	ld	s0, 0x0(s0)
   11a48: b3 c8 12 01  	xor	a7, t0, a7
   11a4c: b3 c2 c3 01  	xor	t0, t2, t3
   11a50: b3 c8 58 00  	xor	a7, a7, t0
   11a54: b3 c3 88 00  	xor	t2, a7, s0
   11a58: 83 38 05 13  	ld	a7, 0x130(a0)
   11a5c: 93 f2 ff 0f  	andi	t0, t6, 0xff
   11a60: 93 92 32 00  	slli	t0, t0, 0x3
   11a64: b3 02 58 00  	add	t0, a6, t0
   11a68: 83 b2 02 00  	ld	t0, 0x0(t0)
   11a6c: 13 de 57 00  	srli	t3, a5, 0x5
   11a70: 13 7e 8e 7f  	andi	t3, t3, 0x7f8
   11a74: 33 0e c6 01  	add	t3, a2, t3
   11a78: 03 3e 0e 00  	ld	t3, 0x0(t3)
   11a7c: 13 d4 de 00  	srli	s0, t4, 0xd
   11a80: 13 74 84 7f  	andi	s0, s0, 0x7f8
   11a84: 33 84 86 00  	add	s0, a3, s0
   11a88: 03 34 04 00  	ld	s0, 0x0(s0)
   11a8c: 9b 54 8f 01  	srliw	s1, t5, 0x18
   11a90: 93 94 34 00  	slli	s1, s1, 0x3
   11a94: b3 04 97 00  	add	s1, a4, s1
   11a98: 83 b4 04 00  	ld	s1, 0x0(s1)
   11a9c: b3 c8 12 01  	xor	a7, t0, a7
   11aa0: b3 42 8e 00  	xor	t0, t3, s0
   11aa4: b3 c8 58 00  	xor	a7, a7, t0
   11aa8: 33 ce 98 00  	xor	t3, a7, s1
   11aac: 03 35 85 13  	ld	a0, 0x138(a0)
   11ab0: 93 f7 f7 0f  	andi	a5, a5, 0xff
   11ab4: 93 97 37 00  	slli	a5, a5, 0x3
   11ab8: b3 07 f8 00  	add	a5, a6, a5
   11abc: 83 b7 07 00  	ld	a5, 0x0(a5)
   11ac0: 13 d8 5e 00  	srli	a6, t4, 0x5
   11ac4: 13 78 88 7f  	andi	a6, a6, 0x7f8
   11ac8: 33 06 06 01  	add	a2, a2, a6
   11acc: 03 36 06 00  	ld	a2, 0x0(a2)
   11ad0: 13 58 df 00  	srli	a6, t5, 0xd
   11ad4: 13 78 88 7f  	andi	a6, a6, 0x7f8
   11ad8: b3 86 06 01  	add	a3, a3, a6
   11adc: 83 b6 06 00  	ld	a3, 0x0(a3)
   11ae0: 1b d8 8f 01  	srliw	a6, t6, 0x18
   11ae4: 13 18 38 00  	slli	a6, a6, 0x3
   11ae8: 33 07 07 01  	add	a4, a4, a6
   11aec: 03 37 07 00  	ld	a4, 0x0(a4)
   11af0: 33 c5 a7 00  	xor	a0, a5, a0
   11af4: 33 46 d6 00  	xor	a2, a2, a3
   11af8: 33 45 c5 00  	xor	a0, a0, a2
   11afc: b3 4e e5 00  	xor	t4, a0, a4
   11b00: 23 b0 65 00  	sd	t1, 0x0(a1)
   11b04: 23 b2 75 00  	sd	t2, 0x4(a1)
   11b08: 23 b4 c5 01  	sd	t3, 0x8(a1)
   11b0c: 23 b6 d5 01  	sd	t4, 0xc(a1)
   11b10: 13 05 10 00  	addi	a0, zero, 0x1
   11b14: 6f b0 60 2a  	jal	zero, 0x1cdba <__riscv_restore_5>
   11b18: 67 80 00 00  	jalr	zero, 0x0(ra)

0000000000011b1c <decrypt>:
   11b1c: 83 46 06 41  	lbu	a3, 0x410(a2)
   11b20: 93 f6 26 00  	andi	a3, a3, 0x2
   11b24: 63 96 06 00  	bne	a3, zero, 0x11b30 <decrypt+0x14>
   11b28: 13 05 00 00  	addi	a0, zero, 0x0
   11b2c: 67 80 00 00  	jalr	zero, 0x0(ra)
   11b30: ef b2 00 25  	jal	t0, 0x1cd80 <__riscv_save_5>
   11b34: 83 36 05 00  	ld	a3, 0x0(a0)
   11b38: 03 37 06 21  	ld	a4, 0x210(a2)
   11b3c: 33 43 d7 00  	xor	t1, a4, a3
   11b40: 83 36 45 00  	ld	a3, 0x4(a0)
   11b44: 03 37 86 21  	ld	a4, 0x218(a2)
   11b48: 83 37 85 00  	ld	a5, 0x8(a0)
   11b4c: 03 38 06 22  	ld	a6, 0x220(a2)
   11b50: 03 35 c5 00  	ld	a0, 0xc(a0)
   11b54: 83 38 86 22  	ld	a7, 0x228(a2)
   11b58: b3 43 d7 00  	xor	t2, a4, a3
   11b5c: 83 36 86 00  	ld	a3, 0x8(a2)
   11b60: 33 4e f8 00  	xor	t3, a6, a5
   11b64: b3 ce a8 00  	xor	t4, a7, a0
   11b68: 13 07 a0 00  	addi	a4, zero, 0xa
   11b6c: 13 05 06 23  	addi	a0, a2, 0x230
   11b70: 63 84 e6 5a  	beq	a3, a4, 0x12118 <decrypt+0x5fc>
   11b74: 13 07 c0 00  	addi	a4, zero, 0xc
   11b78: 63 8c e6 2c  	beq	a3, a4, 0x11e50 <decrypt+0x334>
   11b7c: 13 05 e0 00  	addi	a0, zero, 0xe
   11b80: 63 84 a6 00  	beq	a3, a0, 0x11b88 <decrypt+0x6c>
   11b84: 6f 10 00 2f  	jal	zero, 0x12e74 <decrypt+0x1358>
   11b88: 03 38 06 23  	ld	a6, 0x230(a2)
   11b8c: 93 76 f3 0f  	andi	a3, t1, 0xff
   11b90: 37 f5 01 00  	lui	a0, 0x1f
   11b94: 13 05 05 11  	addi	a0, a0, 0x110
   11b98: 93 96 36 00  	slli	a3, a3, 0x3
   11b9c: b3 06 d5 00  	add	a3, a0, a3
   11ba0: 83 b8 06 00  	ld	a7, 0x0(a3)
   11ba4: 93 d6 5e 00  	srli	a3, t4, 0x5
   11ba8: 13 f7 86 7f  	andi	a4, a3, 0x7f8
   11bac: 93 06 f5 7f  	addi	a3, a0, 0x7ff
   11bb0: 93 86 16 00  	addi	a3, a3, 0x1
   11bb4: 33 87 e6 00  	add	a4, a3, a4
   11bb8: 83 32 07 00  	ld	t0, 0x0(a4)
   11bbc: 37 17 00 00  	lui	a4, 0x1
   11bc0: 33 07 e5 00  	add	a4, a0, a4
   11bc4: 93 57 de 00  	srli	a5, t3, 0xd
   11bc8: 93 f7 87 7f  	andi	a5, a5, 0x7f8
   11bcc: b3 07 f7 00  	add	a5, a4, a5
   11bd0: 03 bf 07 00  	ld	t5, 0x0(a5)
   11bd4: 93 07 30 00  	addi	a5, zero, 0x3
   11bd8: 93 97 b7 00  	slli	a5, a5, 0xb
   11bdc: b3 07 f5 00  	add	a5, a0, a5
   11be0: 9b df 83 01  	srliw	t6, t2, 0x18
   11be4: 93 9f 3f 00  	slli	t6, t6, 0x3
   11be8: b3 8f f7 01  	add	t6, a5, t6
   11bec: 83 bf 0f 00  	ld	t6, 0x0(t6)
   11bf0: 33 c8 08 01  	xor	a6, a7, a6
   11bf4: b3 c8 e2 01  	xor	a7, t0, t5
   11bf8: 33 48 18 01  	xor	a6, a6, a7
   11bfc: 33 48 f8 01  	xor	a6, a6, t6
   11c00: 83 38 86 23  	ld	a7, 0x238(a2)
   11c04: 93 f2 f3 0f  	andi	t0, t2, 0xff
   11c08: 93 92 32 00  	slli	t0, t0, 0x3
   11c0c: b3 02 55 00  	add	t0, a0, t0
   11c10: 83 b2 02 00  	ld	t0, 0x0(t0)
   11c14: 13 5f 53 00  	srli	t5, t1, 0x5
   11c18: 13 7f 8f 7f  	andi	t5, t5, 0x7f8
   11c1c: 33 8f e6 01  	add	t5, a3, t5
   11c20: 03 3f 0f 00  	ld	t5, 0x0(t5)
   11c24: 93 df de 00  	srli	t6, t4, 0xd
   11c28: 93 ff 8f 7f  	andi	t6, t6, 0x7f8
   11c2c: b3 0f f7 01  	add	t6, a4, t6
   11c30: 83 bf 0f 00  	ld	t6, 0x0(t6)
   11c34: 1b 54 8e 01  	srliw	s0, t3, 0x18
   11c38: 13 14 34 00  	slli	s0, s0, 0x3
   11c3c: 33 84 87 00  	add	s0, a5, s0
   11c40: 03 34 04 00  	ld	s0, 0x0(s0)
   11c44: b3 c8 12 01  	xor	a7, t0, a7
   11c48: b3 42 ff 01  	xor	t0, t5, t6
   11c4c: b3 c8 58 00  	xor	a7, a7, t0
   11c50: b3 c8 88 00  	xor	a7, a7, s0
   11c54: 83 32 06 24  	ld	t0, 0x240(a2)
   11c58: 13 7f fe 0f  	andi	t5, t3, 0xff
   11c5c: 13 1f 3f 00  	slli	t5, t5, 0x3
   11c60: 33 0f e5 01  	add	t5, a0, t5
   11c64: 03 3f 0f 00  	ld	t5, 0x0(t5)
   11c68: 93 df 53 00  	srli	t6, t2, 0x5
   11c6c: 93 ff 8f 7f  	andi	t6, t6, 0x7f8
   11c70: b3 8f f6 01  	add	t6, a3, t6
   11c74: 83 bf 0f 00  	ld	t6, 0x0(t6)
   11c78: 13 54 d3 00  	srli	s0, t1, 0xd
   11c7c: 13 74 84 7f  	andi	s0, s0, 0x7f8
   11c80: 33 04 87 00  	add	s0, a4, s0
   11c84: 03 34 04 00  	ld	s0, 0x0(s0)
   11c88: 9b d4 8e 01  	srliw	s1, t4, 0x18
   11c8c: 93 94 34 00  	slli	s1, s1, 0x3
   11c90: b3 84 97 00  	add	s1, a5, s1
   11c94: 83 b4 04 00  	ld	s1, 0x0(s1)
   11c98: b3 42 5f 00  	xor	t0, t5, t0
   11c9c: 33 cf 8f 00  	xor	t5, t6, s0
   11ca0: b3 c2 e2 01  	xor	t0, t0, t5
   11ca4: b3 c2 92 00  	xor	t0, t0, s1
   11ca8: 03 3f 86 24  	ld	t5, 0x248(a2)
   11cac: 93 fe fe 0f  	andi	t4, t4, 0xff
   11cb0: 93 9e 3e 00  	slli	t4, t4, 0x3
   11cb4: b3 0e d5 01  	add	t4, a0, t4
   11cb8: 83 be 0e 00  	ld	t4, 0x0(t4)
   11cbc: 13 5e 5e 00  	srli	t3, t3, 0x5
   11cc0: 13 7e 8e 7f  	andi	t3, t3, 0x7f8
   11cc4: 33 8e c6 01  	add	t3, a3, t3
   11cc8: 03 3e 0e 00  	ld	t3, 0x0(t3)
   11ccc: 93 d3 d3 00  	srli	t2, t2, 0xd
   11cd0: 93 f3 83 7f  	andi	t2, t2, 0x7f8
   11cd4: b3 03 77 00  	add	t2, a4, t2
   11cd8: 83 b3 03 00  	ld	t2, 0x0(t2)
   11cdc: 1b 53 83 01  	srliw	t1, t1, 0x18
   11ce0: 13 13 33 00  	slli	t1, t1, 0x3
   11ce4: 33 83 67 00  	add	t1, a5, t1
   11ce8: 03 33 03 00  	ld	t1, 0x0(t1)
   11cec: b3 ce ee 01  	xor	t4, t4, t5
   11cf0: b3 43 7e 00  	xor	t2, t3, t2
   11cf4: b3 c3 7e 00  	xor	t2, t4, t2
   11cf8: b3 ce 63 00  	xor	t4, t2, t1
   11cfc: 03 33 06 25  	ld	t1, 0x250(a2)
   11d00: 93 73 f8 0f  	andi	t2, a6, 0xff
   11d04: 93 93 33 00  	slli	t2, t2, 0x3
   11d08: b3 03 75 00  	add	t2, a0, t2
   11d0c: 83 b3 03 00  	ld	t2, 0x0(t2)
   11d10: 13 de 5e 00  	srli	t3, t4, 0x5
   11d14: 13 7e 8e 7f  	andi	t3, t3, 0x7f8
   11d18: 33 8e c6 01  	add	t3, a3, t3
   11d1c: 03 3e 0e 00  	ld	t3, 0x0(t3)
   11d20: 13 df d2 00  	srli	t5, t0, 0xd
   11d24: 13 7f 8f 7f  	andi	t5, t5, 0x7f8
   11d28: 33 0f e7 01  	add	t5, a4, t5
   11d2c: 03 3f 0f 00  	ld	t5, 0x0(t5)
   11d30: 9b df 88 01  	srliw	t6, a7, 0x18
   11d34: 93 9f 3f 00  	slli	t6, t6, 0x3
   11d38: b3 8f f7 01  	add	t6, a5, t6
   11d3c: 83 bf 0f 00  	ld	t6, 0x0(t6)
   11d40: 33 c3 63 00  	xor	t1, t2, t1
   11d44: b3 43 ee 01  	xor	t2, t3, t5
   11d48: 33 43 73 00  	xor	t1, t1, t2
   11d4c: 33 43 f3 01  	xor	t1, t1, t6
   11d50: 83 33 86 25  	ld	t2, 0x258(a2)
   11d54: 13 fe f8 0f  	andi	t3, a7, 0xff
   11d58: 13 1e 3e 00  	slli	t3, t3, 0x3
   11d5c: 33 0e c5 01  	add	t3, a0, t3
   11d60: 03 3e 0e 00  	ld	t3, 0x0(t3)
   11d64: 13 5f 58 00  	srli	t5, a6, 0x5
   11d68: 13 7f 8f 7f  	andi	t5, t5, 0x7f8
   11d6c: 33 8f e6 01  	add	t5, a3, t5
   11d70: 03 3f 0f 00  	ld	t5, 0x0(t5)
   11d74: 93 df de 00  	srli	t6, t4, 0xd
   11d78: 93 ff 8f 7f  	andi	t6, t6, 0x7f8
   11d7c: b3 0f f7 01  	add	t6, a4, t6
   11d80: 83 bf 0f 00  	ld	t6, 0x0(t6)
   11d84: 1b d4 82 01  	srliw	s0, t0, 0x18
   11d88: 13 14 34 00  	slli	s0, s0, 0x3
   11d8c: 33 84 87 00  	add	s0, a5, s0
   11d90: 03 34 04 00  	ld	s0, 0x0(s0)
   11d94: b3 43 7e 00  	xor	t2, t3, t2
   11d98: 33 4e ff 01  	xor	t3, t5, t6
   11d9c: b3 c3 c3 01  	xor	t2, t2, t3
   11da0: b3 c3 83 00  	xor	t2, t2, s0
   11da4: 03 3e 06 26  	ld	t3, 0x260(a2)
   11da8: 13 ff f2 0f  	andi	t5, t0, 0xff
   11dac: 13 1f 3f 00  	slli	t5, t5, 0x3
   11db0: 33 0f e5 01  	add	t5, a0, t5
   11db4: 03 3f 0f 00  	ld	t5, 0x0(t5)
   11db8: 93 df 58 00  	srli	t6, a7, 0x5
   11dbc: 93 ff 8f 7f  	andi	t6, t6, 0x7f8
   11dc0: b3 8f f6 01  	add	t6, a3, t6
   11dc4: 83 bf 0f 00  	ld	t6, 0x0(t6)
   11dc8: 13 54 d8 00  	srli	s0, a6, 0xd
   11dcc: 13 74 84 7f  	andi	s0, s0, 0x7f8
   11dd0: 33 04 87 00  	add	s0, a4, s0
   11dd4: 03 34 04 00  	ld	s0, 0x0(s0)
   11dd8: 9b d4 8e 01  	srliw	s1, t4, 0x18
   11ddc: 93 94 34 00  	slli	s1, s1, 0x3
   11de0: b3 84 97 00  	add	s1, a5, s1
   11de4: 83 b4 04 00  	ld	s1, 0x0(s1)
   11de8: 33 4e cf 01  	xor	t3, t5, t3
   11dec: 33 cf 8f 00  	xor	t5, t6, s0
   11df0: 33 4e ee 01  	xor	t3, t3, t5
   11df4: 33 4e 9e 00  	xor	t3, t3, s1
   11df8: 03 3f 86 26  	ld	t5, 0x268(a2)
   11dfc: 93 fe fe 0f  	andi	t4, t4, 0xff
   11e00: 93 9e 3e 00  	slli	t4, t4, 0x3
   11e04: 33 05 d5 01  	add	a0, a0, t4
   11e08: 03 35 05 00  	ld	a0, 0x0(a0)
   11e0c: 93 d2 52 00  	srli	t0, t0, 0x5
   11e10: 93 f2 82 7f  	andi	t0, t0, 0x7f8
   11e14: b3 86 56 00  	add	a3, a3, t0
   11e18: 83 b6 06 00  	ld	a3, 0x0(a3)
   11e1c: 93 d8 d8 00  	srli	a7, a7, 0xd
   11e20: 93 f8 88 7f  	andi	a7, a7, 0x7f8
   11e24: 33 07 17 01  	add	a4, a4, a7
   11e28: 03 37 07 00  	ld	a4, 0x0(a4)
   11e2c: 1b 58 88 01  	srliw	a6, a6, 0x18
   11e30: 13 18 38 00  	slli	a6, a6, 0x3
   11e34: b3 87 07 01  	add	a5, a5, a6
   11e38: 83 b7 07 00  	ld	a5, 0x0(a5)
   11e3c: 33 45 e5 01  	xor	a0, a0, t5
   11e40: b3 c6 e6 00  	xor	a3, a3, a4
   11e44: 33 45 d5 00  	xor	a0, a0, a3
   11e48: b3 4e f5 00  	xor	t4, a0, a5
   11e4c: 13 05 06 27  	addi	a0, a2, 0x270
   11e50: 03 38 05 00  	ld	a6, 0x0(a0)
   11e54: 93 76 f3 0f  	andi	a3, t1, 0xff
   11e58: 37 f6 01 00  	lui	a2, 0x1f
   11e5c: 13 06 06 11  	addi	a2, a2, 0x110
   11e60: 93 96 36 00  	slli	a3, a3, 0x3
   11e64: b3 06 d6 00  	add	a3, a2, a3
   11e68: 83 b8 06 00  	ld	a7, 0x0(a3)
   11e6c: 93 d6 5e 00  	srli	a3, t4, 0x5
   11e70: 13 f7 86 7f  	andi	a4, a3, 0x7f8
   11e74: 93 06 f6 7f  	addi	a3, a2, 0x7ff
   11e78: 93 86 16 00  	addi	a3, a3, 0x1
   11e7c: 33 87 e6 00  	add	a4, a3, a4
   11e80: 83 32 07 00  	ld	t0, 0x0(a4)
   11e84: 37 17 00 00  	lui	a4, 0x1
   11e88: 33 07 e6 00  	add	a4, a2, a4
   11e8c: 93 57 de 00  	srli	a5, t3, 0xd
   11e90: 93 f7 87 7f  	andi	a5, a5, 0x7f8
   11e94: b3 07 f7 00  	add	a5, a4, a5
   11e98: 03 bf 07 00  	ld	t5, 0x0(a5)
   11e9c: 93 07 30 00  	addi	a5, zero, 0x3
   11ea0: 93 97 b7 00  	slli	a5, a5, 0xb
   11ea4: b3 07 f6 00  	add	a5, a2, a5
   11ea8: 9b df 83 01  	srliw	t6, t2, 0x18
   11eac: 93 9f 3f 00  	slli	t6, t6, 0x3
   11eb0: b3 8f f7 01  	add	t6, a5, t6
   11eb4: 83 bf 0f 00  	ld	t6, 0x0(t6)
   11eb8: 33 c8 08 01  	xor	a6, a7, a6
   11ebc: b3 c8 e2 01  	xor	a7, t0, t5
   11ec0: 33 48 18 01  	xor	a6, a6, a7
   11ec4: 33 48 f8 01  	xor	a6, a6, t6
   11ec8: 83 38 85 00  	ld	a7, 0x8(a0)
   11ecc: 93 f2 f3 0f  	andi	t0, t2, 0xff
   11ed0: 93 92 32 00  	slli	t0, t0, 0x3
   11ed4: b3 02 56 00  	add	t0, a2, t0
   11ed8: 83 b2 02 00  	ld	t0, 0x0(t0)
   11edc: 13 5f 53 00  	srli	t5, t1, 0x5
   11ee0: 13 7f 8f 7f  	andi	t5, t5, 0x7f8
   11ee4: 33 8f e6 01  	add	t5, a3, t5
   11ee8: 03 3f 0f 00  	ld	t5, 0x0(t5)
   11eec: 93 df de 00  	srli	t6, t4, 0xd
   11ef0: 93 ff 8f 7f  	andi	t6, t6, 0x7f8
   11ef4: b3 0f f7 01  	add	t6, a4, t6
   11ef8: 83 bf 0f 00  	ld	t6, 0x0(t6)
   11efc: 1b 54 8e 01  	srliw	s0, t3, 0x18
   11f00: 13 14 34 00  	slli	s0, s0, 0x3
   11f04: 33 84 87 00  	add	s0, a5, s0
   11f08: 03 34 04 00  	ld	s0, 0x0(s0)
   11f0c: b3 c8 12 01  	xor	a7, t0, a7
   11f10: b3 42 ff 01  	xor	t0, t5, t6
   11f14: b3 c8 58 00  	xor	a7, a7, t0
   11f18: b3 c8 88 00  	xor	a7, a7, s0
   11f1c: 83 32 05 01  	ld	t0, 0x10(a0)
   11f20: 13 7f fe 0f  	andi	t5, t3, 0xff
   11f24: 13 1f 3f 00  	slli	t5, t5, 0x3
   11f28: 33 0f e6 01  	add	t5, a2, t5
   11f2c: 03 3f 0f 00  	ld	t5, 0x0(t5)
   11f30: 93 df 53 00  	srli	t6, t2, 0x5
   11f34: 93 ff 8f 7f  	andi	t6, t6, 0x7f8
   11f38: b3 8f f6 01  	add	t6, a3, t6
   11f3c: 83 bf 0f 00  	ld	t6, 0x0(t6)
   11f40: 13 54 d3 00  	srli	s0, t1, 0xd
   11f44: 13 74 84 7f  	andi	s0, s0, 0x7f8
   11f48: 33 04 87 00  	add	s0, a4, s0
   11f4c: 03 34 04 00  	ld	s0, 0x0(s0)
   11f50: 9b d4 8e 01  	srliw	s1, t4, 0x18
   11f54: 93 94 34 00  	slli	s1, s1, 0x3
   11f58: b3 84 97 00  	add	s1, a5, s1
   11f5c: 83 b4 04 00  	ld	s1, 0x0(s1)
   11f60: b3 42 5f 00  	xor	t0, t5, t0
   11f64: 33 cf 8f 00  	xor	t5, t6, s0
   11f68: b3 c2 e2 01  	xor	t0, t0, t5
   11f6c: b3 c2 92 00  	xor	t0, t0, s1
   11f70: 03 3f 85 01  	ld	t5, 0x18(a0)
   11f74: 93 fe fe 0f  	andi	t4, t4, 0xff
   11f78: 93 9e 3e 00  	slli	t4, t4, 0x3
   11f7c: b3 0e d6 01  	add	t4, a2, t4
   11f80: 83 be 0e 00  	ld	t4, 0x0(t4)
   11f84: 13 5e 5e 00  	srli	t3, t3, 0x5
   11f88: 13 7e 8e 7f  	andi	t3, t3, 0x7f8
   11f8c: 33 8e c6 01  	add	t3, a3, t3
   11f90: 03 3e 0e 00  	ld	t3, 0x0(t3)
   11f94: 93 d3 d3 00  	srli	t2, t2, 0xd
   11f98: 93 f3 83 7f  	andi	t2, t2, 0x7f8
   11f9c: b3 03 77 00  	add	t2, a4, t2
   11fa0: 83 b3 03 00  	ld	t2, 0x0(t2)
   11fa4: 1b 53 83 01  	srliw	t1, t1, 0x18
   11fa8: 13 13 33 00  	slli	t1, t1, 0x3
   11fac: 33 83 67 00  	add	t1, a5, t1
   11fb0: 03 33 03 00  	ld	t1, 0x0(t1)
   11fb4: b3 ce ee 01  	xor	t4, t4, t5
   11fb8: b3 43 7e 00  	xor	t2, t3, t2
   11fbc: b3 c3 7e 00  	xor	t2, t4, t2
   11fc0: b3 ce 63 00  	xor	t4, t2, t1
   11fc4: 03 33 05 02  	ld	t1, 0x20(a0)
   11fc8: 93 73 f8 0f  	andi	t2, a6, 0xff
   11fcc: 93 93 33 00  	slli	t2, t2, 0x3
   11fd0: b3 03 76 00  	add	t2, a2, t2
   11fd4: 83 b3 03 00  	ld	t2, 0x0(t2)
   11fd8: 13 de 5e 00  	srli	t3, t4, 0x5
   11fdc: 13 7e 8e 7f  	andi	t3, t3, 0x7f8
   11fe0: 33 8e c6 01  	add	t3, a3, t3
   11fe4: 03 3e 0e 00  	ld	t3, 0x0(t3)
   11fe8: 13 df d2 00  	srli	t5, t0, 0xd
   11fec: 13 7f 8f 7f  	andi	t5, t5, 0x7f8
   11ff0: 33 0f e7 01  	add	t5, a4, t5
   11ff4: 03 3f 0f 00  	ld	t5, 0x0(t5)
   11ff8: 9b df 88 01  	srliw	t6, a7, 0x18
   11ffc: 93 9f 3f 00  	slli	t6, t6, 0x3
   12000: b3 8f f7 01  	add	t6, a5, t6
   12004: 83 bf 0f 00  	ld	t6, 0x0(t6)
   12008: 33 c3 63 00  	xor	t1, t2, t1
   1200c: b3 43 ee 01  	xor	t2, t3, t5
   12010: 33 43 73 00  	xor	t1, t1, t2
   12014: 33 43 f3 01  	xor	t1, t1, t6
   12018: 83 33 85 02  	ld	t2, 0x28(a0)
   1201c: 13 fe f8 0f  	andi	t3, a7, 0xff
   12020: 13 1e 3e 00  	slli	t3, t3, 0x3
   12024: 33 0e c6 01  	add	t3, a2, t3
   12028: 03 3e 0e 00  	ld	t3, 0x0(t3)
   1202c: 13 5f 58 00  	srli	t5, a6, 0x5
   12030: 13 7f 8f 7f  	andi	t5, t5, 0x7f8
   12034: 33 8f e6 01  	add	t5, a3, t5
   12038: 03 3f 0f 00  	ld	t5, 0x0(t5)
   1203c: 93 df de 00  	srli	t6, t4, 0xd
   12040: 93 ff 8f 7f  	andi	t6, t6, 0x7f8
   12044: b3 0f f7 01  	add	t6, a4, t6
   12048: 83 bf 0f 00  	ld	t6, 0x0(t6)
   1204c: 1b d4 82 01  	srliw	s0, t0, 0x18
   12050: 13 14 34 00  	slli	s0, s0, 0x3
   12054: 33 84 87 00  	add	s0, a5, s0
   12058: 03 34 04 00  	ld	s0, 0x0(s0)
   1205c: b3 43 7e 00  	xor	t2, t3, t2
   12060: 33 4e ff 01  	xor	t3, t5, t6
   12064: b3 c3 c3 01  	xor	t2, t2, t3
   12068: b3 c3 83 00  	xor	t2, t2, s0
   1206c: 03 3e 05 03  	ld	t3, 0x30(a0)
   12070: 13 ff f2 0f  	andi	t5, t0, 0xff
   12074: 13 1f 3f 00  	slli	t5, t5, 0x3
   12078: 33 0f e6 01  	add	t5, a2, t5
   1207c: 03 3f 0f 00  	ld	t5, 0x0(t5)
   12080: 93 df 58 00  	srli	t6, a7, 0x5
   12084: 93 ff 8f 7f  	andi	t6, t6, 0x7f8
   12088: b3 8f f6 01  	add	t6, a3, t6
   1208c: 83 bf 0f 00  	ld	t6, 0x0(t6)
   12090: 13 54 d8 00  	srli	s0, a6, 0xd
   12094: 13 74 84 7f  	andi	s0, s0, 0x7f8
   12098: 33 04 87 00  	add	s0, a4, s0
   1209c: 03 34 04 00  	ld	s0, 0x0(s0)
   120a0: 9b d4 8e 01  	srliw	s1, t4, 0x18
   120a4: 93 94 34 00  	slli	s1, s1, 0x3
   120a8: b3 84 97 00  	add	s1, a5, s1
   120ac: 83 b4 04 00  	ld	s1, 0x0(s1)
   120b0: 33 4e cf 01  	xor	t3, t5, t3
   120b4: 33 cf 8f 00  	xor	t5, t6, s0
   120b8: 33 4e ee 01  	xor	t3, t3, t5
   120bc: 33 4e 9e 00  	xor	t3, t3, s1
   120c0: 03 3f 85 03  	ld	t5, 0x38(a0)
   120c4: 93 fe fe 0f  	andi	t4, t4, 0xff
   120c8: 93 9e 3e 00  	slli	t4, t4, 0x3
   120cc: 33 06 d6 01  	add	a2, a2, t4
   120d0: 03 36 06 00  	ld	a2, 0x0(a2)
   120d4: 93 d2 52 00  	srli	t0, t0, 0x5
   120d8: 93 f2 82 7f  	andi	t0, t0, 0x7f8
   120dc: b3 86 56 00  	add	a3, a3, t0
   120e0: 83 b6 06 00  	ld	a3, 0x0(a3)
   120e4: 93 d8 d8 00  	srli	a7, a7, 0xd
   120e8: 93 f8 88 7f  	andi	a7, a7, 0x7f8
   120ec: 33 07 17 01  	add	a4, a4, a7
   120f0: 03 37 07 00  	ld	a4, 0x0(a4)
   120f4: 1b 58 88 01  	srliw	a6, a6, 0x18
   120f8: 13 18 38 00  	slli	a6, a6, 0x3
   120fc: b3 87 07 01  	add	a5, a5, a6
   12100: 83 b7 07 00  	ld	a5, 0x0(a5)
   12104: 33 46 e6 01  	xor	a2, a2, t5
   12108: b3 c6 e6 00  	xor	a3, a3, a4
   1210c: 33 46 d6 00  	xor	a2, a2, a3
   12110: b3 4e f6 00  	xor	t4, a2, a5
   12114: 13 05 05 04  	addi	a0, a0, 0x40
   12118: 03 3f 05 00  	ld	t5, 0x0(a0)
   1211c: 13 76 f3 0f  	andi	a2, t1, 0xff
   12120: b7 f6 01 00  	lui	a3, 0x1f
   12124: 93 87 06 11  	addi	a5, a3, 0x110
   12128: 13 16 36 00  	slli	a2, a2, 0x3
   1212c: 33 86 c7 00  	add	a2, a5, a2
   12130: 83 3f 06 00  	ld	t6, 0x0(a2)
   12134: 13 06 10 00  	addi	a2, zero, 0x1
   12138: 13 16 b6 00  	slli	a2, a2, 0xb
   1213c: 33 88 c7 00  	add	a6, a5, a2
   12140: 93 d6 5e 00  	srli	a3, t4, 0x5
   12144: 93 f6 86 7f  	andi	a3, a3, 0x7f8
   12148: b3 06 d8 00  	add	a3, a6, a3
   1214c: 03 b4 06 00  	ld	s0, 0x0(a3)
   12150: b7 16 00 00  	lui	a3, 0x1
   12154: b3 88 d7 00  	add	a7, a5, a3
   12158: 13 57 de 00  	srli	a4, t3, 0xd
   1215c: 13 77 87 7f  	andi	a4, a4, 0x7f8
   12160: 33 87 e8 00  	add	a4, a7, a4
   12164: 83 34 07 00  	ld	s1, 0x0(a4)
   12168: 13 07 30 00  	addi	a4, zero, 0x3
   1216c: 13 17 b7 00  	slli	a4, a4, 0xb
   12170: b3 82 e7 00  	add	t0, a5, a4
   12174: 1b d9 83 01  	srliw	s2, t2, 0x18
   12178: 13 19 39 00  	slli	s2, s2, 0x3
   1217c: 33 89 22 01  	add	s2, t0, s2
   12180: 03 39 09 00  	ld	s2, 0x0(s2)
   12184: 33 cf ef 01  	xor	t5, t6, t5
   12188: 33 44 94 00  	xor	s0, s0, s1
   1218c: 33 4f 8f 00  	xor	t5, t5, s0
   12190: 33 4f 2f 01  	xor	t5, t5, s2
   12194: 83 3f 85 00  	ld	t6, 0x8(a0)
   12198: 13 f4 f3 0f  	andi	s0, t2, 0xff
   1219c: 13 14 34 00  	slli	s0, s0, 0x3
   121a0: 33 84 87 00  	add	s0, a5, s0
   121a4: 03 34 04 00  	ld	s0, 0x0(s0)
   121a8: 93 54 53 00  	srli	s1, t1, 0x5
   121ac: 93 f4 84 7f  	andi	s1, s1, 0x7f8
   121b0: b3 04 98 00  	add	s1, a6, s1
   121b4: 83 b4 04 00  	ld	s1, 0x0(s1)
   121b8: 13 d9 de 00  	srli	s2, t4, 0xd
   121bc: 13 79 89 7f  	andi	s2, s2, 0x7f8
   121c0: 33 89 28 01  	add	s2, a7, s2
   121c4: 03 39 09 00  	ld	s2, 0x0(s2)
   121c8: 9b 59 8e 01  	srliw	s3, t3, 0x18
   121cc: 93 99 39 00  	slli	s3, s3, 0x3
   121d0: b3 89 32 01  	add	s3, t0, s3
   121d4: 83 b9 09 00  	ld	s3, 0x0(s3)
   121d8: b3 4f f4 01  	xor	t6, s0, t6
   121dc: 33 c4 24 01  	xor	s0, s1, s2
   121e0: b3 cf 8f 00  	xor	t6, t6, s0
   121e4: b3 cf 3f 01  	xor	t6, t6, s3
   121e8: 03 34 05 01  	ld	s0, 0x10(a0)
   121ec: 93 74 fe 0f  	andi	s1, t3, 0xff
   121f0: 93 94 34 00  	slli	s1, s1, 0x3
   121f4: b3 84 97 00  	add	s1, a5, s1
   121f8: 83 b4 04 00  	ld	s1, 0x0(s1)
   121fc: 13 d9 53 00  	srli	s2, t2, 0x5
   12200: 13 79 89 7f  	andi	s2, s2, 0x7f8
   12204: 33 09 28 01  	add	s2, a6, s2
   12208: 03 39 09 00  	ld	s2, 0x0(s2)
   1220c: 93 59 d3 00  	srli	s3, t1, 0xd
   12210: 93 f9 89 7f  	andi	s3, s3, 0x7f8
   12214: b3 89 38 01  	add	s3, a7, s3
   12218: 83 b9 09 00  	ld	s3, 0x0(s3)
   1221c: 1b da 8e 01  	srliw	s4, t4, 0x18
   12220: 13 1a 3a 00  	slli	s4, s4, 0x3
   12224: 33 8a 42 01  	add	s4, t0, s4
   12228: 03 3a 0a 00  	ld	s4, 0x0(s4)
   1222c: 33 c4 84 00  	xor	s0, s1, s0
   12230: b3 44 39 01  	xor	s1, s2, s3
   12234: 33 44 94 00  	xor	s0, s0, s1
   12238: 33 44 44 01  	xor	s0, s0, s4
   1223c: 83 34 85 01  	ld	s1, 0x18(a0)
   12240: 93 fe fe 0f  	andi	t4, t4, 0xff
   12244: 93 9e 3e 00  	slli	t4, t4, 0x3
   12248: b3 8e d7 01  	add	t4, a5, t4
   1224c: 83 be 0e 00  	ld	t4, 0x0(t4)
   12250: 13 5e 5e 00  	srli	t3, t3, 0x5
   12254: 13 7e 8e 7f  	andi	t3, t3, 0x7f8
   12258: 33 0e c8 01  	add	t3, a6, t3
   1225c: 03 3e 0e 00  	ld	t3, 0x0(t3)
   12260: 93 d3 d3 00  	srli	t2, t2, 0xd
   12264: 93 f3 83 7f  	andi	t2, t2, 0x7f8
   12268: b3 83 78 00  	add	t2, a7, t2
   1226c: 83 b3 03 00  	ld	t2, 0x0(t2)
   12270: 1b 53 83 01  	srliw	t1, t1, 0x18
   12274: 13 13 33 00  	slli	t1, t1, 0x3
   12278: 33 83 62 00  	add	t1, t0, t1
   1227c: 03 33 03 00  	ld	t1, 0x0(t1)
   12280: b3 ce 9e 00  	xor	t4, t4, s1
   12284: b3 43 7e 00  	xor	t2, t3, t2
   12288: b3 c3 7e 00  	xor	t2, t4, t2
   1228c: b3 c3 63 00  	xor	t2, t2, t1
   12290: 03 33 05 02  	ld	t1, 0x20(a0)
   12294: 13 7e ff 0f  	andi	t3, t5, 0xff
   12298: 13 1e 3e 00  	slli	t3, t3, 0x3
   1229c: 33 8e c7 01  	add	t3, a5, t3
   122a0: 03 3e 0e 00  	ld	t3, 0x0(t3)
   122a4: 93 de 53 00  	srli	t4, t2, 0x5
   122a8: 93 fe 8e 7f  	andi	t4, t4, 0x7f8
   122ac: b3 0e d8 01  	add	t4, a6, t4
   122b0: 83 be 0e 00  	ld	t4, 0x0(t4)
   122b4: 93 54 d4 00  	srli	s1, s0, 0xd
   122b8: 93 f4 84 7f  	andi	s1, s1, 0x7f8
   122bc: b3 84 98 00  	add	s1, a7, s1
   122c0: 83 b4 04 00  	ld	s1, 0x0(s1)
   122c4: 1b d9 8f 01  	srliw	s2, t6, 0x18
   122c8: 13 19 39 00  	slli	s2, s2, 0x3
   122cc: 33 89 22 01  	add	s2, t0, s2
   122d0: 03 39 09 00  	ld	s2, 0x0(s2)
   122d4: 33 43 6e 00  	xor	t1, t3, t1
   122d8: 33 ce 9e 00  	xor	t3, t4, s1
   122dc: 33 43 c3 01  	xor	t1, t1, t3
   122e0: 33 43 23 01  	xor	t1, t1, s2
   122e4: 03 3e 85 02  	ld	t3, 0x28(a0)
   122e8: 93 fe ff 0f  	andi	t4, t6, 0xff
   122ec: 93 9e 3e 00  	slli	t4, t4, 0x3
   122f0: b3 8e d7 01  	add	t4, a5, t4
   122f4: 83 be 0e 00  	ld	t4, 0x0(t4)
   122f8: 93 54 5f 00  	srli	s1, t5, 0x5
   122fc: 93 f4 84 7f  	andi	s1, s1, 0x7f8
   12300: b3 04 98 00  	add	s1, a6, s1
   12304: 83 b4 04 00  	ld	s1, 0x0(s1)
   12308: 13 d9 d3 00  	srli	s2, t2, 0xd
   1230c: 13 79 89 7f  	andi	s2, s2, 0x7f8
   12310: 33 89 28 01  	add	s2, a7, s2
   12314: 03 39 09 00  	ld	s2, 0x0(s2)
   12318: 9b 59 84 01  	srliw	s3, s0, 0x18
   1231c: 93 99 39 00  	slli	s3, s3, 0x3
   12320: b3 89 32 01  	add	s3, t0, s3
   12324: 83 b9 09 00  	ld	s3, 0x0(s3)
   12328: 33 ce ce 01  	xor	t3, t4, t3
   1232c: b3 ce 24 01  	xor	t4, s1, s2
   12330: 33 4e de 01  	xor	t3, t3, t4
   12334: 33 4e 3e 01  	xor	t3, t3, s3
   12338: 83 3e 05 03  	ld	t4, 0x30(a0)
   1233c: 93 74 f4 0f  	andi	s1, s0, 0xff
   12340: 93 94 34 00  	slli	s1, s1, 0x3
   12344: b3 84 97 00  	add	s1, a5, s1
   12348: 83 b4 04 00  	ld	s1, 0x0(s1)
   1234c: 13 d9 5f 00  	srli	s2, t6, 0x5
   12350: 13 79 89 7f  	andi	s2, s2, 0x7f8
   12354: 33 09 28 01  	add	s2, a6, s2
   12358: 03 39 09 00  	ld	s2, 0x0(s2)
   1235c: 93 59 df 00  	srli	s3, t5, 0xd
   12360: 93 f9 89 7f  	andi	s3, s3, 0x7f8
   12364: b3 89 38 01  	add	s3, a7, s3
   12368: 83 b9 09 00  	ld	s3, 0x0(s3)
   1236c: 1b da 83 01  	srliw	s4, t2, 0x18
   12370: 13 1a 3a 00  	slli	s4, s4, 0x3
   12374: 33 8a 42 01  	add	s4, t0, s4
   12378: 03 3a 0a 00  	ld	s4, 0x0(s4)
   1237c: b3 ce d4 01  	xor	t4, s1, t4
   12380: b3 44 39 01  	xor	s1, s2, s3
   12384: b3 ce 9e 00  	xor	t4, t4, s1
   12388: b3 c4 4e 01  	xor	s1, t4, s4
   1238c: 83 3e 85 03  	ld	t4, 0x38(a0)
   12390: 93 f3 f3 0f  	andi	t2, t2, 0xff
   12394: 93 93 33 00  	slli	t2, t2, 0x3
   12398: b3 83 77 00  	add	t2, a5, t2
   1239c: 83 b3 03 00  	ld	t2, 0x0(t2)
   123a0: 13 54 54 00  	srli	s0, s0, 0x5
   123a4: 13 74 84 7f  	andi	s0, s0, 0x7f8
   123a8: 33 04 88 00  	add	s0, a6, s0
   123ac: 03 34 04 00  	ld	s0, 0x0(s0)
   123b0: 93 df df 00  	srli	t6, t6, 0xd
   123b4: 93 ff 8f 7f  	andi	t6, t6, 0x7f8
   123b8: b3 8f f8 01  	add	t6, a7, t6
   123bc: 83 bf 0f 00  	ld	t6, 0x0(t6)
   123c0: 1b 5f 8f 01  	srliw	t5, t5, 0x18
   123c4: 13 1f 3f 00  	slli	t5, t5, 0x3
   123c8: 33 8f e2 01  	add	t5, t0, t5
   123cc: 03 3f 0f 00  	ld	t5, 0x0(t5)
   123d0: b3 c3 d3 01  	xor	t2, t2, t4
   123d4: b3 4e f4 01  	xor	t4, s0, t6
   123d8: b3 c3 d3 01  	xor	t2, t2, t4
   123dc: b3 cf e3 01  	xor	t6, t2, t5
   123e0: 83 33 05 04  	ld	t2, 0x40(a0)
   123e4: 93 7e f3 0f  	andi	t4, t1, 0xff
   123e8: 93 9e 3e 00  	slli	t4, t4, 0x3
   123ec: b3 8e d7 01  	add	t4, a5, t4
   123f0: 83 be 0e 00  	ld	t4, 0x0(t4)
   123f4: 13 df 5f 00  	srli	t5, t6, 0x5
   123f8: 13 7f 8f 7f  	andi	t5, t5, 0x7f8
   123fc: 33 0f e8 01  	add	t5, a6, t5
   12400: 03 3f 0f 00  	ld	t5, 0x0(t5)
   12404: 13 d4 d4 00  	srli	s0, s1, 0xd
   12408: 13 74 84 7f  	andi	s0, s0, 0x7f8
   1240c: 33 84 88 00  	add	s0, a7, s0
   12410: 03 34 04 00  	ld	s0, 0x0(s0)
   12414: 1b 59 8e 01  	srliw	s2, t3, 0x18
   12418: 13 19 39 00  	slli	s2, s2, 0x3
   1241c: 33 89 22 01  	add	s2, t0, s2
   12420: 03 39 09 00  	ld	s2, 0x0(s2)
   12424: b3 c3 7e 00  	xor	t2, t4, t2
   12428: b3 4e 8f 00  	xor	t4, t5, s0
   1242c: b3 c3 d3 01  	xor	t2, t2, t4
   12430: b3 c3 23 01  	xor	t2, t2, s2
   12434: 83 3e 85 04  	ld	t4, 0x48(a0)
   12438: 13 7f fe 0f  	andi	t5, t3, 0xff
   1243c: 13 1f 3f 00  	slli	t5, t5, 0x3
   12440: 33 8f e7 01  	add	t5, a5, t5
   12444: 03 3f 0f 00  	ld	t5, 0x0(t5)
   12448: 13 54 53 00  	srli	s0, t1, 0x5
   1244c: 13 74 84 7f  	andi	s0, s0, 0x7f8
   12450: 33 04 88 00  	add	s0, a6, s0
   12454: 03 34 04 00  	ld	s0, 0x0(s0)
   12458: 13 d9 df 00  	srli	s2, t6, 0xd
   1245c: 13 79 89 7f  	andi	s2, s2, 0x7f8
   12460: 33 89 28 01  	add	s2, a7, s2
   12464: 03 39 09 00  	ld	s2, 0x0(s2)
   12468: 9b d9 84 01  	srliw	s3, s1, 0x18
   1246c: 93 99 39 00  	slli	s3, s3, 0x3
   12470: b3 89 32 01  	add	s3, t0, s3
   12474: 83 b9 09 00  	ld	s3, 0x0(s3)
   12478: b3 4e df 01  	xor	t4, t5, t4
   1247c: 33 4f 24 01  	xor	t5, s0, s2
   12480: b3 ce ee 01  	xor	t4, t4, t5
   12484: b3 ce 3e 01  	xor	t4, t4, s3
   12488: 03 3f 05 05  	ld	t5, 0x50(a0)
   1248c: 13 f4 f4 0f  	andi	s0, s1, 0xff
   12490: 13 14 34 00  	slli	s0, s0, 0x3
   12494: 33 84 87 00  	add	s0, a5, s0
   12498: 03 34 04 00  	ld	s0, 0x0(s0)
   1249c: 13 59 5e 00  	srli	s2, t3, 0x5
   124a0: 13 79 89 7f  	andi	s2, s2, 0x7f8
   124a4: 33 09 28 01  	add	s2, a6, s2
   124a8: 03 39 09 00  	ld	s2, 0x0(s2)
   124ac: 93 59 d3 00  	srli	s3, t1, 0xd
   124b0: 93 f9 89 7f  	andi	s3, s3, 0x7f8
   124b4: b3 89 38 01  	add	s3, a7, s3
   124b8: 83 b9 09 00  	ld	s3, 0x0(s3)
   124bc: 1b da 8f 01  	srliw	s4, t6, 0x18
   124c0: 13 1a 3a 00  	slli	s4, s4, 0x3
   124c4: 33 8a 42 01  	add	s4, t0, s4
   124c8: 03 3a 0a 00  	ld	s4, 0x0(s4)
   124cc: 33 4f e4 01  	xor	t5, s0, t5
   124d0: 33 44 39 01  	xor	s0, s2, s3
   124d4: 33 4f 8f 00  	xor	t5, t5, s0
   124d8: 33 4f 4f 01  	xor	t5, t5, s4
   124dc: 03 34 85 05  	ld	s0, 0x58(a0)
   124e0: 93 ff ff 0f  	andi	t6, t6, 0xff
   124e4: 93 9f 3f 00  	slli	t6, t6, 0x3
   124e8: b3 8f f7 01  	add	t6, a5, t6
   124ec: 83 bf 0f 00  	ld	t6, 0x0(t6)
   124f0: 93 d4 54 00  	srli	s1, s1, 0x5
   124f4: 93 f4 84 7f  	andi	s1, s1, 0x7f8
   124f8: b3 04 98 00  	add	s1, a6, s1
   124fc: 83 b4 04 00  	ld	s1, 0x0(s1)
   12500: 13 5e de 00  	srli	t3, t3, 0xd
   12504: 13 7e 8e 7f  	andi	t3, t3, 0x7f8
   12508: 33 8e c8 01  	add	t3, a7, t3
   1250c: 03 3e 0e 00  	ld	t3, 0x0(t3)
   12510: 1b 53 83 01  	srliw	t1, t1, 0x18
   12514: 13 13 33 00  	slli	t1, t1, 0x3
   12518: 33 83 62 00  	add	t1, t0, t1
   1251c: 03 33 03 00  	ld	t1, 0x0(t1)
   12520: b3 cf 8f 00  	xor	t6, t6, s0
   12524: 33 ce c4 01  	xor	t3, s1, t3
   12528: 33 ce cf 01  	xor	t3, t6, t3
   1252c: 33 44 6e 00  	xor	s0, t3, t1
   12530: 03 33 05 06  	ld	t1, 0x60(a0)
   12534: 13 fe f3 0f  	andi	t3, t2, 0xff
   12538: 13 1e 3e 00  	slli	t3, t3, 0x3
   1253c: 33 8e c7 01  	add	t3, a5, t3
   12540: 03 3e 0e 00  	ld	t3, 0x0(t3)
   12544: 93 5f 54 00  	srli	t6, s0, 0x5
   12548: 93 ff 8f 7f  	andi	t6, t6, 0x7f8
   1254c: b3 0f f8 01  	add	t6, a6, t6
   12550: 83 bf 0f 00  	ld	t6, 0x0(t6)
   12554: 93 54 df 00  	srli	s1, t5, 0xd
   12558: 93 f4 84 7f  	andi	s1, s1, 0x7f8
   1255c: b3 84 98 00  	add	s1, a7, s1
   12560: 83 b4 04 00  	ld	s1, 0x0(s1)
   12564: 1b d9 8e 01  	srliw	s2, t4, 0x18
   12568: 13 19 39 00  	slli	s2, s2, 0x3
   1256c: 33 89 22 01  	add	s2, t0, s2
   12570: 03 39 09 00  	ld	s2, 0x0(s2)
   12574: 33 43 6e 00  	xor	t1, t3, t1
   12578: 33 ce 9f 00  	xor	t3, t6, s1
   1257c: 33 43 c3 01  	xor	t1, t1, t3
   12580: 33 43 23 01  	xor	t1, t1, s2
   12584: 03 3e 85 06  	ld	t3, 0x68(a0)
   12588: 93 ff fe 0f  	andi	t6, t4, 0xff
   1258c: 93 9f 3f 00  	slli	t6, t6, 0x3
   12590: b3 8f f7 01  	add	t6, a5, t6
   12594: 83 bf 0f 00  	ld	t6, 0x0(t6)
   12598: 93 d4 53 00  	srli	s1, t2, 0x5
   1259c: 93 f4 84 7f  	andi	s1, s1, 0x7f8
   125a0: b3 04 98 00  	add	s1, a6, s1
   125a4: 83 b4 04 00  	ld	s1, 0x0(s1)
   125a8: 13 59 d4 00  	srli	s2, s0, 0xd
   125ac: 13 79 89 7f  	andi	s2, s2, 0x7f8
   125b0: 33 89 28 01  	add	s2, a7, s2
   125b4: 03 39 09 00  	ld	s2, 0x0(s2)
   125b8: 9b 59 8f 01  	srliw	s3, t5, 0x18
   125bc: 93 99 39 00  	slli	s3, s3, 0x3
   125c0: b3 89 32 01  	add	s3, t0, s3
   125c4: 83 b9 09 00  	ld	s3, 0x0(s3)
   125c8: 33 ce cf 01  	xor	t3, t6, t3
   125cc: b3 cf 24 01  	xor	t6, s1, s2
   125d0: 33 4e fe 01  	xor	t3, t3, t6
   125d4: 33 4e 3e 01  	xor	t3, t3, s3
   125d8: 83 3f 05 07  	ld	t6, 0x70(a0)
   125dc: 93 74 ff 0f  	andi	s1, t5, 0xff
   125e0: 93 94 34 00  	slli	s1, s1, 0x3
   125e4: b3 84 97 00  	add	s1, a5, s1
   125e8: 83 b4 04 00  	ld	s1, 0x0(s1)
   125ec: 13 d9 5e 00  	srli	s2, t4, 0x5
   125f0: 13 79 89 7f  	andi	s2, s2, 0x7f8
   125f4: 33 09 28 01  	add	s2, a6, s2
   125f8: 03 39 09 00  	ld	s2, 0x0(s2)
   125fc: 93 d9 d3 00  	srli	s3, t2, 0xd
   12600: 93 f9 89 7f  	andi	s3, s3, 0x7f8
   12604: b3 89 38 01  	add	s3, a7, s3
   12608: 83 b9 09 00  	ld	s3, 0x0(s3)
   1260c: 1b 5a 84 01  	srliw	s4, s0, 0x18
   12610: 13 1a 3a 00  	slli	s4, s4, 0x3
   12614: 33 8a 42 01  	add	s4, t0, s4
   12618: 03 3a 0a 00  	ld	s4, 0x0(s4)
   1261c: b3 cf f4 01  	xor	t6, s1, t6
   12620: b3 44 39 01  	xor	s1, s2, s3
   12624: b3 cf 9f 00  	xor	t6, t6, s1
   12628: b3 cf 4f 01  	xor	t6, t6, s4
   1262c: 83 34 85 07  	ld	s1, 0x78(a0)
   12630: 13 74 f4 0f  	andi	s0, s0, 0xff
   12634: 13 14 34 00  	slli	s0, s0, 0x3
   12638: 33 84 87 00  	add	s0, a5, s0
   1263c: 03 34 04 00  	ld	s0, 0x0(s0)
   12640: 13 5f 5f 00  	srli	t5, t5, 0x5
   12644: 13 7f 8f 7f  	andi	t5, t5, 0x7f8
   12648: 33 0f e8 01  	add	t5, a6, t5
   1264c: 03 3f 0f 00  	ld	t5, 0x0(t5)
   12650: 93 de de 00  	srli	t4, t4, 0xd
   12654: 93 fe 8e 7f  	andi	t4, t4, 0x7f8
   12658: b3 8e d8 01  	add	t4, a7, t4
   1265c: 83 be 0e 00  	ld	t4, 0x0(t4)
   12660: 9b d3 83 01  	srliw	t2, t2, 0x18
   12664: 93 93 33 00  	slli	t2, t2, 0x3
   12668: b3 83 72 00  	add	t2, t0, t2
   1266c: 83 b3 03 00  	ld	t2, 0x0(t2)
   12670: 33 44 94 00  	xor	s0, s0, s1
   12674: b3 4e df 01  	xor	t4, t5, t4
   12678: b3 4e d4 01  	xor	t4, s0, t4
   1267c: 33 c4 7e 00  	xor	s0, t4, t2
   12680: 83 33 05 08  	ld	t2, 0x80(a0)
   12684: 93 7e f3 0f  	andi	t4, t1, 0xff
   12688: 93 9e 3e 00  	slli	t4, t4, 0x3
   1268c: b3 8e d7 01  	add	t4, a5, t4
   12690: 83 be 0e 00  	ld	t4, 0x0(t4)
   12694: 13 5f 54 00  	srli	t5, s0, 0x5
   12698: 13 7f 8f 7f  	andi	t5, t5, 0x7f8
   1269c: 33 0f e8 01  	add	t5, a6, t5
   126a0: 03 3f 0f 00  	ld	t5, 0x0(t5)
   126a4: 93 d4 df 00  	srli	s1, t6, 0xd
   126a8: 93 f4 84 7f  	andi	s1, s1, 0x7f8
   126ac: b3 84 98 00  	add	s1, a7, s1
   126b0: 83 b4 04 00  	ld	s1, 0x0(s1)
   126b4: 1b 59 8e 01  	srliw	s2, t3, 0x18
   126b8: 13 19 39 00  	slli	s2, s2, 0x3
   126bc: 33 89 22 01  	add	s2, t0, s2
   126c0: 03 39 09 00  	ld	s2, 0x0(s2)
   126c4: b3 c3 7e 00  	xor	t2, t4, t2
   126c8: b3 4e 9f 00  	xor	t4, t5, s1
   126cc: b3 c3 d3 01  	xor	t2, t2, t4
   126d0: b3 c3 23 01  	xor	t2, t2, s2
   126d4: 83 3e 85 08  	ld	t4, 0x88(a0)
   126d8: 13 7f fe 0f  	andi	t5, t3, 0xff
   126dc: 13 1f 3f 00  	slli	t5, t5, 0x3
   126e0: 33 8f e7 01  	add	t5, a5, t5
   126e4: 03 3f 0f 00  	ld	t5, 0x0(t5)
   126e8: 93 54 53 00  	srli	s1, t1, 0x5
   126ec: 93 f4 84 7f  	andi	s1, s1, 0x7f8
   126f0: b3 04 98 00  	add	s1, a6, s1
   126f4: 83 b4 04 00  	ld	s1, 0x0(s1)
   126f8: 13 59 d4 00  	srli	s2, s0, 0xd
   126fc: 13 79 89 7f  	andi	s2, s2, 0x7f8
   12700: 33 89 28 01  	add	s2, a7, s2
   12704: 03 39 09 00  	ld	s2, 0x0(s2)
   12708: 9b d9 8f 01  	srliw	s3, t6, 0x18
   1270c: 93 99 39 00  	slli	s3, s3, 0x3
   12710: b3 89 32 01  	add	s3, t0, s3
   12714: 83 b9 09 00  	ld	s3, 0x0(s3)
   12718: b3 4e df 01  	xor	t4, t5, t4
   1271c: 33 cf 24 01  	xor	t5, s1, s2
   12720: b3 ce ee 01  	xor	t4, t4, t5
   12724: b3 ce 3e 01  	xor	t4, t4, s3
   12728: 03 3f 05 09  	ld	t5, 0x90(a0)
   1272c: 93 f4 ff 0f  	andi	s1, t6, 0xff
   12730: 93 94 34 00  	slli	s1, s1, 0x3
   12734: b3 84 97 00  	add	s1, a5, s1
   12738: 83 b4 04 00  	ld	s1, 0x0(s1)
   1273c: 13 59 5e 00  	srli	s2, t3, 0x5
   12740: 13 79 89 7f  	andi	s2, s2, 0x7f8
   12744: 33 09 28 01  	add	s2, a6, s2
   12748: 03 39 09 00  	ld	s2, 0x0(s2)
   1274c: 93 59 d3 00  	srli	s3, t1, 0xd
   12750: 93 f9 89 7f  	andi	s3, s3, 0x7f8
   12754: b3 89 38 01  	add	s3, a7, s3
   12758: 83 b9 09 00  	ld	s3, 0x0(s3)
   1275c: 1b 5a 84 01  	srliw	s4, s0, 0x18
   12760: 13 1a 3a 00  	slli	s4, s4, 0x3
   12764: 33 8a 42 01  	add	s4, t0, s4
   12768: 03 3a 0a 00  	ld	s4, 0x0(s4)
   1276c: 33 cf e4 01  	xor	t5, s1, t5
   12770: b3 44 39 01  	xor	s1, s2, s3
   12774: 33 4f 9f 00  	xor	t5, t5, s1
   12778: 33 4f 4f 01  	xor	t5, t5, s4
   1277c: 83 34 85 09  	ld	s1, 0x98(a0)
   12780: 13 74 f4 0f  	andi	s0, s0, 0xff
   12784: 13 14 34 00  	slli	s0, s0, 0x3
   12788: 33 84 87 00  	add	s0, a5, s0
   1278c: 03 34 04 00  	ld	s0, 0x0(s0)
   12790: 93 df 5f 00  	srli	t6, t6, 0x5
   12794: 93 ff 8f 7f  	andi	t6, t6, 0x7f8
   12798: b3 0f f8 01  	add	t6, a6, t6
   1279c: 83 bf 0f 00  	ld	t6, 0x0(t6)
   127a0: 13 5e de 00  	srli	t3, t3, 0xd
   127a4: 13 7e 8e 7f  	andi	t3, t3, 0x7f8
   127a8: 33 8e c8 01  	add	t3, a7, t3
   127ac: 03 3e 0e 00  	ld	t3, 0x0(t3)
   127b0: 1b 53 83 01  	srliw	t1, t1, 0x18
   127b4: 13 13 33 00  	slli	t1, t1, 0x3
   127b8: 33 83 62 00  	add	t1, t0, t1
   127bc: 03 33 03 00  	ld	t1, 0x0(t1)
   127c0: 33 44 94 00  	xor	s0, s0, s1
   127c4: 33 ce cf 01  	xor	t3, t6, t3
   127c8: 33 4e c4 01  	xor	t3, s0, t3
   127cc: 33 44 6e 00  	xor	s0, t3, t1
   127d0: 03 33 05 0a  	ld	t1, 0xa0(a0)
   127d4: 13 fe f3 0f  	andi	t3, t2, 0xff
   127d8: 13 1e 3e 00  	slli	t3, t3, 0x3
   127dc: 33 8e c7 01  	add	t3, a5, t3
   127e0: 03 3e 0e 00  	ld	t3, 0x0(t3)
   127e4: 93 5f 54 00  	srli	t6, s0, 0x5
   127e8: 93 ff 8f 7f  	andi	t6, t6, 0x7f8
   127ec: b3 0f f8 01  	add	t6, a6, t6
   127f0: 83 bf 0f 00  	ld	t6, 0x0(t6)
   127f4: 93 54 df 00  	srli	s1, t5, 0xd
   127f8: 93 f4 84 7f  	andi	s1, s1, 0x7f8
   127fc: b3 84 98 00  	add	s1, a7, s1
   12800: 83 b4 04 00  	ld	s1, 0x0(s1)
   12804: 1b d9 8e 01  	srliw	s2, t4, 0x18
   12808: 13 19 39 00  	slli	s2, s2, 0x3
   1280c: 33 89 22 01  	add	s2, t0, s2
   12810: 03 39 09 00  	ld	s2, 0x0(s2)
   12814: 33 43 6e 00  	xor	t1, t3, t1
   12818: 33 ce 9f 00  	xor	t3, t6, s1
   1281c: 33 43 c3 01  	xor	t1, t1, t3
   12820: 33 43 23 01  	xor	t1, t1, s2
   12824: 03 3e 85 0a  	ld	t3, 0xa8(a0)
   12828: 93 ff fe 0f  	andi	t6, t4, 0xff
   1282c: 93 9f 3f 00  	slli	t6, t6, 0x3
   12830: b3 8f f7 01  	add	t6, a5, t6
   12834: 83 bf 0f 00  	ld	t6, 0x0(t6)
   12838: 93 d4 53 00  	srli	s1, t2, 0x5
   1283c: 93 f4 84 7f  	andi	s1, s1, 0x7f8
   12840: b3 04 98 00  	add	s1, a6, s1
   12844: 83 b4 04 00  	ld	s1, 0x0(s1)
   12848: 13 59 d4 00  	srli	s2, s0, 0xd
   1284c: 13 79 89 7f  	andi	s2, s2, 0x7f8
   12850: 33 89 28 01  	add	s2, a7, s2
   12854: 03 39 09 00  	ld	s2, 0x0(s2)
   12858: 9b 59 8f 01  	srliw	s3, t5, 0x18
   1285c: 93 99 39 00  	slli	s3, s3, 0x3
   12860: b3 89 32 01  	add	s3, t0, s3
   12864: 83 b9 09 00  	ld	s3, 0x0(s3)
   12868: 33 ce cf 01  	xor	t3, t6, t3
   1286c: b3 cf 24 01  	xor	t6, s1, s2
   12870: 33 4e fe 01  	xor	t3, t3, t6
   12874: 33 4e 3e 01  	xor	t3, t3, s3
   12878: 83 3f 05 0b  	ld	t6, 0xb0(a0)
   1287c: 93 74 ff 0f  	andi	s1, t5, 0xff
   12880: 93 94 34 00  	slli	s1, s1, 0x3
   12884: b3 84 97 00  	add	s1, a5, s1
   12888: 83 b4 04 00  	ld	s1, 0x0(s1)
   1288c: 13 d9 5e 00  	srli	s2, t4, 0x5
   12890: 13 79 89 7f  	andi	s2, s2, 0x7f8
   12894: 33 09 28 01  	add	s2, a6, s2
   12898: 03 39 09 00  	ld	s2, 0x0(s2)
   1289c: 93 d9 d3 00  	srli	s3, t2, 0xd
   128a0: 93 f9 89 7f  	andi	s3, s3, 0x7f8
   128a4: b3 89 38 01  	add	s3, a7, s3
   128a8: 83 b9 09 00  	ld	s3, 0x0(s3)
   128ac: 1b 5a 84 01  	srliw	s4, s0, 0x18
   128b0: 13 1a 3a 00  	slli	s4, s4, 0x3
   128b4: 33 8a 42 01  	add	s4, t0, s4
   128b8: 03 3a 0a 00  	ld	s4, 0x0(s4)
   128bc: b3 cf f4 01  	xor	t6, s1, t6
   128c0: b3 44 39 01  	xor	s1, s2, s3
   128c4: b3 cf 9f 00  	xor	t6, t6, s1
   128c8: b3 cf 4f 01  	xor	t6, t6, s4
   128cc: 83 34 85 0b  	ld	s1, 0xb8(a0)
   128d0: 13 74 f4 0f  	andi	s0, s0, 0xff
   128d4: 13 14 34 00  	slli	s0, s0, 0x3
   128d8: 33 84 87 00  	add	s0, a5, s0
   128dc: 03 34 04 00  	ld	s0, 0x0(s0)
   128e0: 13 5f 5f 00  	srli	t5, t5, 0x5
   128e4: 13 7f 8f 7f  	andi	t5, t5, 0x7f8
   128e8: 33 0f e8 01  	add	t5, a6, t5
   128ec: 03 3f 0f 00  	ld	t5, 0x0(t5)
   128f0: 93 de de 00  	srli	t4, t4, 0xd
   128f4: 93 fe 8e 7f  	andi	t4, t4, 0x7f8
   128f8: b3 8e d8 01  	add	t4, a7, t4
   128fc: 83 be 0e 00  	ld	t4, 0x0(t4)
   12900: 9b d3 83 01  	srliw	t2, t2, 0x18
   12904: 93 93 33 00  	slli	t2, t2, 0x3
   12908: b3 83 72 00  	add	t2, t0, t2
   1290c: 83 b3 03 00  	ld	t2, 0x0(t2)
   12910: 33 44 94 00  	xor	s0, s0, s1
   12914: b3 4e df 01  	xor	t4, t5, t4
   12918: b3 4e d4 01  	xor	t4, s0, t4
   1291c: 33 c4 7e 00  	xor	s0, t4, t2
   12920: 83 33 05 0c  	ld	t2, 0xc0(a0)
   12924: 93 7e f3 0f  	andi	t4, t1, 0xff
   12928: 93 9e 3e 00  	slli	t4, t4, 0x3
   1292c: b3 8e d7 01  	add	t4, a5, t4
   12930: 83 be 0e 00  	ld	t4, 0x0(t4)
   12934: 13 5f 54 00  	srli	t5, s0, 0x5
   12938: 13 7f 8f 7f  	andi	t5, t5, 0x7f8
   1293c: 33 0f e8 01  	add	t5, a6, t5
   12940: 03 3f 0f 00  	ld	t5, 0x0(t5)
   12944: 93 d4 df 00  	srli	s1, t6, 0xd
   12948: 93 f4 84 7f  	andi	s1, s1, 0x7f8
   1294c: b3 84 98 00  	add	s1, a7, s1
   12950: 83 b4 04 00  	ld	s1, 0x0(s1)
   12954: 1b 59 8e 01  	srliw	s2, t3, 0x18
   12958: 13 19 39 00  	slli	s2, s2, 0x3
   1295c: 33 89 22 01  	add	s2, t0, s2
   12960: 03 39 09 00  	ld	s2, 0x0(s2)
   12964: b3 c3 7e 00  	xor	t2, t4, t2
   12968: b3 4e 9f 00  	xor	t4, t5, s1
   1296c: b3 c3 d3 01  	xor	t2, t2, t4
   12970: b3 c3 23 01  	xor	t2, t2, s2
   12974: 83 3e 85 0c  	ld	t4, 0xc8(a0)
   12978: 13 7f fe 0f  	andi	t5, t3, 0xff
   1297c: 13 1f 3f 00  	slli	t5, t5, 0x3
   12980: 33 8f e7 01  	add	t5, a5, t5
   12984: 03 3f 0f 00  	ld	t5, 0x0(t5)
   12988: 93 54 53 00  	srli	s1, t1, 0x5
   1298c: 93 f4 84 7f  	andi	s1, s1, 0x7f8
   12990: b3 04 98 00  	add	s1, a6, s1
   12994: 83 b4 04 00  	ld	s1, 0x0(s1)
   12998: 13 59 d4 00  	srli	s2, s0, 0xd
   1299c: 13 79 89 7f  	andi	s2, s2, 0x7f8
   129a0: 33 89 28 01  	add	s2, a7, s2
   129a4: 03 39 09 00  	ld	s2, 0x0(s2)
   129a8: 9b d9 8f 01  	srliw	s3, t6, 0x18
   129ac: 93 99 39 00  	slli	s3, s3, 0x3
   129b0: b3 89 32 01  	add	s3, t0, s3
   129b4: 83 b9 09 00  	ld	s3, 0x0(s3)
   129b8: b3 4e df 01  	xor	t4, t5, t4
   129bc: 33 cf 24 01  	xor	t5, s1, s2
   129c0: b3 ce ee 01  	xor	t4, t4, t5
   129c4: b3 ce 3e 01  	xor	t4, t4, s3
   129c8: 03 3f 05 0d  	ld	t5, 0xd0(a0)
   129cc: 93 f4 ff 0f  	andi	s1, t6, 0xff
   129d0: 93 94 34 00  	slli	s1, s1, 0x3
   129d4: b3 84 97 00  	add	s1, a5, s1
   129d8: 83 b4 04 00  	ld	s1, 0x0(s1)
   129dc: 13 59 5e 00  	srli	s2, t3, 0x5
   129e0: 13 79 89 7f  	andi	s2, s2, 0x7f8
   129e4: 33 09 28 01  	add	s2, a6, s2
   129e8: 03 39 09 00  	ld	s2, 0x0(s2)
   129ec: 93 59 d3 00  	srli	s3, t1, 0xd
   129f0: 93 f9 89 7f  	andi	s3, s3, 0x7f8
   129f4: b3 89 38 01  	add	s3, a7, s3
   129f8: 83 b9 09 00  	ld	s3, 0x0(s3)
   129fc: 1b 5a 84 01  	srliw	s4, s0, 0x18
   12a00: 13 1a 3a 00  	slli	s4, s4, 0x3
   12a04: 33 8a 42 01  	add	s4, t0, s4
   12a08: 03 3a 0a 00  	ld	s4, 0x0(s4)
   12a0c: 33 cf e4 01  	xor	t5, s1, t5
   12a10: b3 44 39 01  	xor	s1, s2, s3
   12a14: 33 4f 9f 00  	xor	t5, t5, s1
   12a18: 33 4f 4f 01  	xor	t5, t5, s4
   12a1c: 83 34 85 0d  	ld	s1, 0xd8(a0)
   12a20: 13 74 f4 0f  	andi	s0, s0, 0xff
   12a24: 13 14 34 00  	slli	s0, s0, 0x3
   12a28: 33 84 87 00  	add	s0, a5, s0
   12a2c: 03 34 04 00  	ld	s0, 0x0(s0)
   12a30: 93 df 5f 00  	srli	t6, t6, 0x5
   12a34: 93 ff 8f 7f  	andi	t6, t6, 0x7f8
   12a38: b3 0f f8 01  	add	t6, a6, t6
   12a3c: 83 bf 0f 00  	ld	t6, 0x0(t6)
   12a40: 13 5e de 00  	srli	t3, t3, 0xd
   12a44: 13 7e 8e 7f  	andi	t3, t3, 0x7f8
   12a48: 33 8e c8 01  	add	t3, a7, t3
   12a4c: 03 3e 0e 00  	ld	t3, 0x0(t3)
   12a50: 1b 53 83 01  	srliw	t1, t1, 0x18
   12a54: 13 13 33 00  	slli	t1, t1, 0x3
   12a58: 33 83 62 00  	add	t1, t0, t1
   12a5c: 03 33 03 00  	ld	t1, 0x0(t1)
   12a60: 33 44 94 00  	xor	s0, s0, s1
   12a64: 33 ce cf 01  	xor	t3, t6, t3
   12a68: 33 4e c4 01  	xor	t3, s0, t3
   12a6c: b3 4f 6e 00  	xor	t6, t3, t1
   12a70: 03 33 05 0e  	ld	t1, 0xe0(a0)
   12a74: 13 fe f3 0f  	andi	t3, t2, 0xff
   12a78: 13 1e 3e 00  	slli	t3, t3, 0x3
   12a7c: 33 8e c7 01  	add	t3, a5, t3
   12a80: 03 3e 0e 00  	ld	t3, 0x0(t3)
   12a84: 13 d4 5f 00  	srli	s0, t6, 0x5
   12a88: 13 74 84 7f  	andi	s0, s0, 0x7f8
   12a8c: 33 04 88 00  	add	s0, a6, s0
   12a90: 03 34 04 00  	ld	s0, 0x0(s0)
   12a94: 93 54 df 00  	srli	s1, t5, 0xd
   12a98: 93 f4 84 7f  	andi	s1, s1, 0x7f8
   12a9c: b3 84 98 00  	add	s1, a7, s1
   12aa0: 83 b4 04 00  	ld	s1, 0x0(s1)
   12aa4: 1b d9 8e 01  	srliw	s2, t4, 0x18
   12aa8: 13 19 39 00  	slli	s2, s2, 0x3
   12aac: 33 89 22 01  	add	s2, t0, s2
   12ab0: 03 39 09 00  	ld	s2, 0x0(s2)
   12ab4: 33 43 6e 00  	xor	t1, t3, t1
   12ab8: 33 44 94 00  	xor	s0, s0, s1
   12abc: 33 43 83 00  	xor	t1, t1, s0
   12ac0: 33 43 23 01  	xor	t1, t1, s2
   12ac4: 03 3e 85 0e  	ld	t3, 0xe8(a0)
   12ac8: 13 f4 fe 0f  	andi	s0, t4, 0xff
   12acc: 13 14 34 00  	slli	s0, s0, 0x3
   12ad0: 33 84 87 00  	add	s0, a5, s0
   12ad4: 03 34 04 00  	ld	s0, 0x0(s0)
   12ad8: 93 d4 53 00  	srli	s1, t2, 0x5
   12adc: 93 f4 84 7f  	andi	s1, s1, 0x7f8
   12ae0: b3 04 98 00  	add	s1, a6, s1
   12ae4: 83 b4 04 00  	ld	s1, 0x0(s1)
   12ae8: 13 d9 df 00  	srli	s2, t6, 0xd
   12aec: 13 79 89 7f  	andi	s2, s2, 0x7f8
   12af0: 33 89 28 01  	add	s2, a7, s2
   12af4: 03 39 09 00  	ld	s2, 0x0(s2)
   12af8: 9b 59 8f 01  	srliw	s3, t5, 0x18
   12afc: 93 99 39 00  	slli	s3, s3, 0x3
   12b00: b3 89 32 01  	add	s3, t0, s3
   12b04: 83 b9 09 00  	ld	s3, 0x0(s3)
   12b08: 33 4e c4 01  	xor	t3, s0, t3
   12b0c: 33 c4 24 01  	xor	s0, s1, s2
   12b10: 33 4e 8e 00  	xor	t3, t3, s0
   12b14: 33 4e 3e 01  	xor	t3, t3, s3
   12b18: 03 34 05 0f  	ld	s0, 0xf0(a0)
   12b1c: 93 74 ff 0f  	andi	s1, t5, 0xff
   12b20: 93 94 34 00  	slli	s1, s1, 0x3
   12b24: b3 84 97 00  	add	s1, a5, s1
   12b28: 83 b4 04 00  	ld	s1, 0x0(s1)
   12b2c: 13 d9 5e 00  	srli	s2, t4, 0x5
   12b30: 13 79 89 7f  	andi	s2, s2, 0x7f8
   12b34: 33 09 28 01  	add	s2, a6, s2
   12b38: 03 39 09 00  	ld	s2, 0x0(s2)
   12b3c: 93 d9 d3 00  	srli	s3, t2, 0xd
   12b40: 93 f9 89 7f  	andi	s3, s3, 0x7f8
   12b44: b3 89 38 01  	add	s3, a7, s3
   12b48: 83 b9 09 00  	ld	s3, 0x0(s3)
   12b4c: 1b da 8f 01  	srliw	s4, t6, 0x18
   12b50: 13 1a 3a 00  	slli	s4, s4, 0x3
   12b54: 33 8a 42 01  	add	s4, t0, s4
   12b58: 03 3a 0a 00  	ld	s4, 0x0(s4)
   12b5c: 33 c4 84 00  	xor	s0, s1, s0
   12b60: b3 44 39 01  	xor	s1, s2, s3
   12b64: 33 44 94 00  	xor	s0, s0, s1
   12b68: 33 44 44 01  	xor	s0, s0, s4
   12b6c: 83 34 85 0f  	ld	s1, 0xf8(a0)
   12b70: 93 ff ff 0f  	andi	t6, t6, 0xff
   12b74: 93 9f 3f 00  	slli	t6, t6, 0x3
   12b78: b3 8f f7 01  	add	t6, a5, t6
   12b7c: 83 bf 0f 00  	ld	t6, 0x0(t6)
   12b80: 13 5f 5f 00  	srli	t5, t5, 0x5
   12b84: 13 7f 8f 7f  	andi	t5, t5, 0x7f8
   12b88: 33 0f e8 01  	add	t5, a6, t5
   12b8c: 03 3f 0f 00  	ld	t5, 0x0(t5)
   12b90: 93 de de 00  	srli	t4, t4, 0xd
   12b94: 93 fe 8e 7f  	andi	t4, t4, 0x7f8
   12b98: b3 8e d8 01  	add	t4, a7, t4
   12b9c: 83 be 0e 00  	ld	t4, 0x0(t4)
   12ba0: 9b d3 83 01  	srliw	t2, t2, 0x18
   12ba4: 93 93 33 00  	slli	t2, t2, 0x3
   12ba8: b3 83 72 00  	add	t2, t0, t2
   12bac: 83 b3 03 00  	ld	t2, 0x0(t2)
   12bb0: b3 cf 9f 00  	xor	t6, t6, s1
   12bb4: b3 4e df 01  	xor	t4, t5, t4
   12bb8: b3 ce df 01  	xor	t4, t6, t4
   12bbc: b3 c3 7e 00  	xor	t2, t4, t2
   12bc0: 83 3e 05 10  	ld	t4, 0x100(a0)
   12bc4: 13 7f f3 0f  	andi	t5, t1, 0xff
   12bc8: 13 1f 3f 00  	slli	t5, t5, 0x3
   12bcc: 33 8f e7 01  	add	t5, a5, t5
   12bd0: 03 3f 0f 00  	ld	t5, 0x0(t5)
   12bd4: 93 df 53 00  	srli	t6, t2, 0x5
   12bd8: 93 ff 8f 7f  	andi	t6, t6, 0x7f8
   12bdc: b3 0f f8 01  	add	t6, a6, t6
   12be0: 83 bf 0f 00  	ld	t6, 0x0(t6)
   12be4: 93 54 d4 00  	srli	s1, s0, 0xd
   12be8: 93 f4 84 7f  	andi	s1, s1, 0x7f8
   12bec: b3 84 98 00  	add	s1, a7, s1
   12bf0: 83 b4 04 00  	ld	s1, 0x0(s1)
   12bf4: 1b 59 8e 01  	srliw	s2, t3, 0x18
   12bf8: 13 19 39 00  	slli	s2, s2, 0x3
   12bfc: 33 89 22 01  	add	s2, t0, s2
   12c00: 03 39 09 00  	ld	s2, 0x0(s2)
   12c04: b3 4e df 01  	xor	t4, t5, t4
   12c08: 33 cf 9f 00  	xor	t5, t6, s1
   12c0c: b3 ce ee 01  	xor	t4, t4, t5
   12c10: b3 ce 2e 01  	xor	t4, t4, s2
   12c14: 03 3f 85 10  	ld	t5, 0x108(a0)
   12c18: 93 7f fe 0f  	andi	t6, t3, 0xff
   12c1c: 93 9f 3f 00  	slli	t6, t6, 0x3
   12c20: b3 8f f7 01  	add	t6, a5, t6
   12c24: 83 bf 0f 00  	ld	t6, 0x0(t6)
   12c28: 93 54 53 00  	srli	s1, t1, 0x5
   12c2c: 93 f4 84 7f  	andi	s1, s1, 0x7f8
   12c30: b3 04 98 00  	add	s1, a6, s1
   12c34: 83 b4 04 00  	ld	s1, 0x0(s1)
   12c38: 13 d9 d3 00  	srli	s2, t2, 0xd
   12c3c: 13 79 89 7f  	andi	s2, s2, 0x7f8
   12c40: 33 89 28 01  	add	s2, a7, s2
   12c44: 03 39 09 00  	ld	s2, 0x0(s2)
   12c48: 9b 59 84 01  	srliw	s3, s0, 0x18
   12c4c: 93 99 39 00  	slli	s3, s3, 0x3
   12c50: b3 89 32 01  	add	s3, t0, s3
   12c54: 83 b9 09 00  	ld	s3, 0x0(s3)
   12c58: 33 cf ef 01  	xor	t5, t6, t5
   12c5c: b3 cf 24 01  	xor	t6, s1, s2
   12c60: 33 4f ff 01  	xor	t5, t5, t6
   12c64: 33 4f 3f 01  	xor	t5, t5, s3
   12c68: 83 3f 05 11  	ld	t6, 0x110(a0)
   12c6c: 93 74 f4 0f  	andi	s1, s0, 0xff
   12c70: 93 94 34 00  	slli	s1, s1, 0x3
   12c74: b3 84 97 00  	add	s1, a5, s1
   12c78: 83 b4 04 00  	ld	s1, 0x0(s1)
   12c7c: 13 59 5e 00  	srli	s2, t3, 0x5
   12c80: 13 79 89 7f  	andi	s2, s2, 0x7f8
   12c84: 33 09 28 01  	add	s2, a6, s2
   12c88: 03 39 09 00  	ld	s2, 0x0(s2)
   12c8c: 93 59 d3 00  	srli	s3, t1, 0xd
   12c90: 93 f9 89 7f  	andi	s3, s3, 0x7f8
   12c94: b3 89 38 01  	add	s3, a7, s3
   12c98: 83 b9 09 00  	ld	s3, 0x0(s3)
   12c9c: 1b da 83 01  	srliw	s4, t2, 0x18
   12ca0: 13 1a 3a 00  	slli	s4, s4, 0x3
   12ca4: 33 8a 42 01  	add	s4, t0, s4
   12ca8: 03 3a 0a 00  	ld	s4, 0x0(s4)
   12cac: b3 cf f4 01  	xor	t6, s1, t6
   12cb0: b3 44 39 01  	xor	s1, s2, s3
   12cb4: b3 cf 9f 00  	xor	t6, t6, s1
   12cb8: b3 cf 4f 01  	xor	t6, t6, s4
   12cbc: 83 34 85 11  	ld	s1, 0x118(a0)
   12cc0: 93 f3 f3 0f  	andi	t2, t2, 0xff
   12cc4: 93 93 33 00  	slli	t2, t2, 0x3
   12cc8: b3 87 77 00  	add	a5, a5, t2
   12ccc: 83 b7 07 00  	ld	a5, 0x0(a5)
   12cd0: 13 54 54 00  	srli	s0, s0, 0x5
   12cd4: 93 73 84 7f  	andi	t2, s0, 0x7f8
   12cd8: 33 08 78 00  	add	a6, a6, t2
   12cdc: 03 38 08 00  	ld	a6, 0x0(a6)
   12ce0: 93 53 de 00  	srli	t2, t3, 0xd
   12ce4: 93 f3 83 7f  	andi	t2, t2, 0x7f8
   12ce8: b3 88 78 00  	add	a7, a7, t2
   12cec: 83 b8 08 00  	ld	a7, 0x0(a7)
   12cf0: 1b 53 83 01  	srliw	t1, t1, 0x18
   12cf4: 13 13 33 00  	slli	t1, t1, 0x3
   12cf8: b3 82 62 00  	add	t0, t0, t1
   12cfc: 83 b2 02 00  	ld	t0, 0x0(t0)
   12d00: b3 c7 97 00  	xor	a5, a5, s1
   12d04: 33 48 18 01  	xor	a6, a6, a7
   12d08: b3 c7 07 01  	xor	a5, a5, a6
   12d0c: b3 c7 57 00  	xor	a5, a5, t0
   12d10: 83 38 05 12  	ld	a7, 0x120(a0)
   12d14: 13 f8 fe 0f  	andi	a6, t4, 0xff
   12d18: 93 12 38 00  	slli	t0, a6, 0x3
   12d1c: 37 38 02 00  	lui	a6, 0x23
   12d20: 13 08 08 11  	addi	a6, a6, 0x110
   12d24: b3 02 58 00  	add	t0, a6, t0
   12d28: 83 b2 02 00  	ld	t0, 0x0(t0)
   12d2c: 13 d3 57 00  	srli	t1, a5, 0x5
   12d30: 13 73 83 7f  	andi	t1, t1, 0x7f8
   12d34: 33 06 c8 00  	add	a2, a6, a2
   12d38: 33 03 66 00  	add	t1, a2, t1
   12d3c: 03 33 03 00  	ld	t1, 0x0(t1)
   12d40: 93 d3 df 00  	srli	t2, t6, 0xd
   12d44: 93 f3 83 7f  	andi	t2, t2, 0x7f8
   12d48: b3 06 d8 00  	add	a3, a6, a3
   12d4c: b3 83 76 00  	add	t2, a3, t2
   12d50: 83 b3 03 00  	ld	t2, 0x0(t2)
   12d54: 1b 5e 8f 01  	srliw	t3, t5, 0x18
   12d58: 13 1e 3e 00  	slli	t3, t3, 0x3
   12d5c: 33 07 e8 00  	add	a4, a6, a4
   12d60: 33 0e c7 01  	add	t3, a4, t3
   12d64: 03 3e 0e 00  	ld	t3, 0x0(t3)
   12d68: b3 c8 12 01  	xor	a7, t0, a7
   12d6c: b3 42 73 00  	xor	t0, t1, t2
   12d70: b3 c8 58 00  	xor	a7, a7, t0
   12d74: 33 c3 c8 01  	xor	t1, a7, t3
   12d78: 83 38 85 12  	ld	a7, 0x128(a0)
   12d7c: 93 72 ff 0f  	andi	t0, t5, 0xff
   12d80: 93 92 32 00  	slli	t0, t0, 0x3
   12d84: b3 02 58 00  	add	t0, a6, t0
   12d88: 83 b2 02 00  	ld	t0, 0x0(t0)
   12d8c: 93 d3 5e 00  	srli	t2, t4, 0x5
   12d90: 93 f3 83 7f  	andi	t2, t2, 0x7f8
   12d94: b3 03 76 00  	add	t2, a2, t2
   12d98: 83 b3 03 00  	ld	t2, 0x0(t2)
   12d9c: 13 de d7 00  	srli	t3, a5, 0xd
   12da0: 13 7e 8e 7f  	andi	t3, t3, 0x7f8
   12da4: 33 8e c6 01  	add	t3, a3, t3
   12da8: 03 3e 0e 00  	ld	t3, 0x0(t3)
   12dac: 1b d4 8f 01  	srliw	s0, t6, 0x18
   12db0: 13 14 34 00  	slli	s0, s0, 0x3
   12db4: 33 04 87 00  	add	s0, a4, s0
   12db8: 03 34 04 00  	ld	s0, 0x0(s0)
   12dbc: b3 c8 12 01  	xor	a7, t0, a7
   12dc0: b3 c2 c3 01  	xor	t0, t2, t3
   12dc4: b3 c8 58 00  	xor	a7, a7, t0
   12dc8: b3 c3 88 00  	xor	t2, a7, s0
   12dcc: 83 38 05 13  	ld	a7, 0x130(a0)
   12dd0: 93 f2 ff 0f  	andi	t0, t6, 0xff
   12dd4: 93 92 32 00  	slli	t0, t0, 0x3
   12dd8: b3 02 58 00  	add	t0, a6, t0
   12ddc: 83 b2 02 00  	ld	t0, 0x0(t0)
   12de0: 13 5e 5f 00  	srli	t3, t5, 0x5
   12de4: 13 7e 8e 7f  	andi	t3, t3, 0x7f8
   12de8: 33 0e c6 01  	add	t3, a2, t3
   12dec: 03 3e 0e 00  	ld	t3, 0x0(t3)
   12df0: 13 d4 de 00  	srli	s0, t4, 0xd
   12df4: 13 74 84 7f  	andi	s0, s0, 0x7f8
   12df8: 33 84 86 00  	add	s0, a3, s0
   12dfc: 03 34 04 00  	ld	s0, 0x0(s0)
   12e00: 9b d4 87 01  	srliw	s1, a5, 0x18
   12e04: 93 94 34 00  	slli	s1, s1, 0x3
   12e08: b3 04 97 00  	add	s1, a4, s1
   12e0c: 83 b4 04 00  	ld	s1, 0x0(s1)
   12e10: b3 c8 12 01  	xor	a7, t0, a7
   12e14: b3 42 8e 00  	xor	t0, t3, s0
   12e18: b3 c8 58 00  	xor	a7, a7, t0
   12e1c: 33 ce 98 00  	xor	t3, a7, s1
   12e20: 03 35 85 13  	ld	a0, 0x138(a0)
   12e24: 93 f7 f7 0f  	andi	a5, a5, 0xff
   12e28: 93 97 37 00  	slli	a5, a5, 0x3
   12e2c: b3 07 f8 00  	add	a5, a6, a5
   12e30: 83 b7 07 00  	ld	a5, 0x0(a5)
   12e34: 13 d8 5f 00  	srli	a6, t6, 0x5
   12e38: 13 78 88 7f  	andi	a6, a6, 0x7f8
   12e3c: 33 06 06 01  	add	a2, a2, a6
   12e40: 03 36 06 00  	ld	a2, 0x0(a2)
   12e44: 13 58 df 00  	srli	a6, t5, 0xd
   12e48: 13 78 88 7f  	andi	a6, a6, 0x7f8
   12e4c: b3 86 06 01  	add	a3, a3, a6
   12e50: 83 b6 06 00  	ld	a3, 0x0(a3)
   12e54: 1b d8 8e 01  	srliw	a6, t4, 0x18
   12e58: 13 18 38 00  	slli	a6, a6, 0x3
   12e5c: 33 07 07 01  	add	a4, a4, a6
   12e60: 03 37 07 00  	ld	a4, 0x0(a4)
   12e64: 33 c5 a7 00  	xor	a0, a5, a0
   12e68: 33 46 d6 00  	xor	a2, a2, a3
   12e6c: 33 45 c5 00  	xor	a0, a0, a2
   12e70: b3 4e e5 00  	xor	t4, a0, a4
   12e74: 23 b0 65 00  	sd	t1, 0x0(a1)
   12e78: 23 b2 75 00  	sd	t2, 0x4(a1)
   12e7c: 23 b4 c5 01  	sd	t3, 0x8(a1)
   12e80: 23 b6 d5 01  	sd	t4, 0xc(a1)
   12e84: 13 05 10 00  	addi	a0, zero, 0x1
   12e88: 6f 90 30 73  	jal	zero, 0x1cdba <__riscv_restore_5>
   12e8c: 67 80 00 00  	jalr	zero, 0x0(ra)

0000000000012e90 <fillrand>:
   12e90: ef 92 b0 6c  	jal	t0, 0x1cd5a <__riscv_save_12>
   12e94: 83 c6 81 22  	lbu	a3, 0x228(gp)
   12e98: 13 04 05 00  	addi	s0, a0, 0x0
   12e9c: 63 8a 06 00  	beq	a3, zero, 0x12eb0 <fillrand+0x20>
   12ea0: 03 bc 81 21  	ld	s8, 0x218(gp)
   12ea4: 03 ba 01 22  	ld	s4, 0x220(gp)
   12ea8: 63 46 b0 02  	blt	zero, a1, 0x12ed4 <fillrand+0x44>
   12eac: 6f 90 90 6f  	jal	zero, 0x1cda4 <__riscv_restore_12>
   12eb0: 13 05 10 00  	addi	a0, zero, 0x1
   12eb4: 23 84 a1 22  	sb	a0, 0x228(gp)
   12eb8: 37 f6 00 00  	lui	a2, 0xf
   12ebc: 1b 0c 36 af  	addiw	s8, a2, -0x50d
   12ec0: 23 bc 81 21  	sd	s8, 0x218(gp)
   12ec4: 37 36 00 00  	lui	a2, 0x3
   12ec8: 1b 0a e6 5f  	addiw	s4, a2, 0x5fe
   12ecc: 23 b0 41 23  	sd	s4, 0x220(gp)
   12ed0: e3 5e b0 fc  	bge	zero, a1, 0x12eac <fillrand+0x1c>
   12ed4: b7 0a 01 00  	lui	s5, 0x10
   12ed8: 9b 8a fa ff  	addiw	s5, s5, -0x1
   12edc: 03 b6 81 1f  	ld	a2, 0x1f8(gp)
   12ee0: 33 0b b4 00  	add	s6, s0, a1
   12ee4: 93 0b 40 00  	addi	s7, zero, 0x4
   12ee8: 37 95 00 00  	lui	a0, 0x9
   12eec: 9b 04 95 06  	addiw	s1, a0, 0x69
   12ef0: 37 45 00 00  	lui	a0, 0x4
   12ef4: 1b 09 05 65  	addiw	s2, a0, 0x650
   12ef8: 93 8d 01 23  	addi	s11, gp, 0x230
   12efc: 63 16 76 05  	bne	a2, s7, 0x12f48 <fillrand+0xb8>
   12f00: 33 75 5c 01  	and	a0, s8, s5
   12f04: 93 85 04 00  	addi	a1, s1, 0x0
   12f08: ef 90 90 6c  	jal	ra, 0x1cdd0 <__muldi3>
   12f0c: 93 59 0c 01  	srli	s3, s8, 0x10
   12f10: 33 0c 35 01  	add	s8, a0, s3
   12f14: 23 bc 81 21  	sd	s8, 0x218(gp)
   12f18: 93 19 0c 01  	slli	s3, s8, 0x10
   12f1c: 33 75 5a 01  	and	a0, s4, s5
   12f20: 93 05 09 00  	addi	a1, s2, 0x0
   12f24: ef 90 d0 6a  	jal	ra, 0x1cdd0 <__muldi3>
   12f28: 13 06 00 00  	addi	a2, zero, 0x0
   12f2c: 93 55 0a 01  	srli	a1, s4, 0x10
   12f30: 33 05 b5 00  	add	a0, a0, a1
   12f34: 23 b0 a1 22  	sd	a0, 0x220(gp)
   12f38: b3 09 35 01  	add	s3, a0, s3
   12f3c: 23 b8 31 23  	sd	s3, 0x230(gp)
   12f40: 13 0a 05 00  	addi	s4, a0, 0x0
   12f44: 6f 00 c0 00  	jal	zero, 0x12f50 <fillrand+0xc0>
   12f48: 33 85 cd 00  	add	a0, s11, a2
   12f4c: 03 45 05 00  	lbu	a0, 0x0(a0)
   12f50: 23 00 a4 00  	sb	a0, 0x0(s0)
   12f54: 13 04 14 00  	addi	s0, s0, 0x1
   12f58: 13 06 16 00  	addi	a2, a2, 0x1
   12f5c: e3 10 64 fb  	bne	s0, s6, 0x12efc <fillrand+0x6c>
   12f60: 23 bc c1 1e  	sd	a2, 0x1f8(gp)
   12f64: 6f 90 10 64  	jal	zero, 0x1cda4 <__riscv_restore_12>

0000000000012f68 <encfile>:
   12f68: ef 92 b0 5f  	jal	t0, 0x1cd62 <__riscv_save_11>
   12f6c: 13 01 01 fd  	addi	sp, sp, -0x30
   12f70: 13 84 06 00  	addi	s0, a3, 0x0
   12f74: 13 09 06 00  	addi	s2, a2, 0x0
   12f78: 93 84 05 00  	addi	s1, a1, 0x0
   12f7c: 93 09 05 00  	addi	s3, a0, 0x0
   12f80: 13 05 01 01  	addi	a0, sp, 0x10
   12f84: 93 05 00 01  	addi	a1, zero, 0x10
   12f88: 13 0a 00 01  	addi	s4, zero, 0x10
   12f8c: ef f0 5f f0  	jal	ra, 0x12e90 <fillrand>
   12f90: 13 06 20 00  	addi	a2, zero, 0x2
   12f94: 13 85 09 00  	addi	a0, s3, 0x0
   12f98: 93 05 00 00  	addi	a1, zero, 0x0
   12f9c: ef 00 50 60  	jal	ra, 0x13da0 <fseek>
   12fa0: 93 05 81 00  	addi	a1, sp, 0x8
   12fa4: 13 85 09 00  	addi	a0, s3, 0x0
   12fa8: ef 00 b0 0d  	jal	ra, 0x13882 <fgetpos>
   12fac: 13 85 09 00  	addi	a0, s3, 0x0
   12fb0: 93 05 00 00  	addi	a1, zero, 0x0
   12fb4: 13 06 00 00  	addi	a2, zero, 0x0
   12fb8: ef 00 90 5e  	jal	ra, 0x13da0 <fseek>
   12fbc: 13 05 01 01  	addi	a0, sp, 0x10
   12fc0: 93 05 10 00  	addi	a1, zero, 0x1
   12fc4: 13 06 00 01  	addi	a2, zero, 0x10
   12fc8: 13 0c 10 00  	addi	s8, zero, 0x1
   12fcc: 93 86 04 00  	addi	a3, s1, 0x0
   12fd0: ef 00 b0 6e  	jal	ra, 0x13eba <fwrite>
   12fd4: 13 05 01 02  	addi	a0, sp, 0x20
   12fd8: 93 05 10 00  	addi	a1, zero, 0x1
   12fdc: 93 0a 01 02  	addi	s5, sp, 0x20
   12fe0: ef f0 1f eb  	jal	ra, 0x12e90 <fillrand>
   12fe4: 03 45 81 00  	lbu	a0, 0x8(sp)
   12fe8: 83 45 01 02  	lbu	a1, 0x20(sp)
   12fec: 03 c6 09 01  	lbu	a2, 0x10(s3)
   12ff0: 13 75 f5 00  	andi	a0, a0, 0xf
   12ff4: 93 f5 05 0f  	andi	a1, a1, 0xf0
   12ff8: 33 65 b5 00  	or	a0, a0, a1
   12ffc: 93 75 06 02  	andi	a1, a2, 0x20
   13000: 23 00 a1 02  	sb	a0, 0x20(sp)
   13004: 63 94 05 0c  	bne	a1, zero, 0x130cc <encfile+0x164>
   13008: 13 05 11 02  	addi	a0, sp, 0x21
   1300c: 13 0c 10 00  	addi	s8, zero, 0x1
   13010: 93 05 10 00  	addi	a1, zero, 0x1
   13014: 13 06 f0 00  	addi	a2, zero, 0xf
   13018: 13 0b f0 00  	addi	s6, zero, 0xf
   1301c: 93 86 09 00  	addi	a3, s3, 0x0
   13020: ef 00 f0 56  	jal	ra, 0x13d8e <fread>
   13024: 63 6c 65 09  	bltu	a0, s6, 0x130bc <encfile+0x154>
   13028: 13 0c 00 00  	addi	s8, zero, 0x0
   1302c: 13 0b 01 01  	addi	s6, sp, 0x10
   13030: 93 0b 01 02  	addi	s7, sp, 0x20
   13034: 93 0c 00 01  	addi	s9, zero, 0x10
   13038: 33 05 8b 01  	add	a0, s6, s8
   1303c: 03 45 05 00  	lbu	a0, 0x0(a0)
   13040: b3 85 8b 01  	add	a1, s7, s8
   13044: 03 c6 05 00  	lbu	a2, 0x0(a1)
   13048: 33 45 a6 00  	xor	a0, a2, a0
   1304c: 13 0c 1c 00  	addi	s8, s8, 0x1
   13050: 23 80 a5 00  	sb	a0, 0x0(a1)
   13054: e3 12 9c ff  	bne	s8, s9, 0x13038 <encfile+0xd0>
   13058: 13 05 01 02  	addi	a0, sp, 0x20
   1305c: 93 05 01 01  	addi	a1, sp, 0x10
   13060: 13 06 09 00  	addi	a2, s2, 0x0
   13064: ef d0 4f f4  	jal	ra, 0x107a8 <encrypt>
   13068: 13 05 01 01  	addi	a0, sp, 0x10
   1306c: 93 05 10 00  	addi	a1, zero, 0x1
   13070: 13 06 00 01  	addi	a2, zero, 0x10
   13074: 93 86 04 00  	addi	a3, s1, 0x0
   13078: ef 00 30 64  	jal	ra, 0x13eba <fwrite>
   1307c: 63 18 95 03  	bne	a0, s9, 0x130ac <encfile+0x144>
   13080: 03 c5 09 01  	lbu	a0, 0x10(s3)
   13084: 13 75 05 02  	andi	a0, a0, 0x20
   13088: 63 16 05 02  	bne	a0, zero, 0x130b4 <encfile+0x14c>
   1308c: 13 05 01 02  	addi	a0, sp, 0x20
   13090: 93 05 10 00  	addi	a1, zero, 0x1
   13094: 13 06 00 01  	addi	a2, zero, 0x10
   13098: 93 86 09 00  	addi	a3, s3, 0x0
   1309c: ef 00 30 4f  	jal	ra, 0x13d8e <fread>
   130a0: 13 0c 00 00  	addi	s8, zero, 0x0
   130a4: e3 7a 95 f9  	bgeu	a0, s9, 0x13038 <encfile+0xd0>
   130a8: 6f 00 40 01  	jal	zero, 0x130bc <encfile+0x154>
   130ac: 93 04 90 ff  	addi	s1, zero, -0x7
   130b0: 6f 00 c0 08  	jal	zero, 0x1313c <encfile+0x1d4>
   130b4: 13 0c 00 00  	addi	s8, zero, 0x0
   130b8: 13 05 00 01  	addi	a0, zero, 0x10
   130bc: 33 0c 85 01  	add	s8, a0, s8
   130c0: 63 0a 0c 06  	beq	s8, zero, 0x13134 <encfile+0x1cc>
   130c4: 13 05 f0 00  	addi	a0, zero, 0xf
   130c8: 63 6a 85 01  	bltu	a0, s8, 0x130dc <encfile+0x174>
   130cc: 33 85 8a 01  	add	a0, s5, s8
   130d0: 33 06 8a 41  	sub	a2, s4, s8
   130d4: 93 05 00 00  	addi	a1, zero, 0x0
   130d8: ef 10 20 7a  	jal	ra, 0x1487a <memset>
   130dc: 13 05 01 02  	addi	a0, sp, 0x20
   130e0: 93 05 01 01  	addi	a1, sp, 0x10
   130e4: 13 06 01 03  	addi	a2, sp, 0x30
   130e8: 83 c6 05 00  	lbu	a3, 0x0(a1)
   130ec: 03 47 05 00  	lbu	a4, 0x0(a0)
   130f0: b3 46 d7 00  	xor	a3, a4, a3
   130f4: 23 00 d5 00  	sb	a3, 0x0(a0)
   130f8: 13 05 15 00  	addi	a0, a0, 0x1
   130fc: 93 85 15 00  	addi	a1, a1, 0x1
   13100: e3 14 c5 fe  	bne	a0, a2, 0x130e8 <encfile+0x180>
   13104: 13 05 01 02  	addi	a0, sp, 0x20
   13108: 93 05 01 01  	addi	a1, sp, 0x10
   1310c: 13 06 09 00  	addi	a2, s2, 0x0
   13110: ef d0 8f e9  	jal	ra, 0x107a8 <encrypt>
   13114: 13 05 01 01  	addi	a0, sp, 0x10
   13118: 93 05 10 00  	addi	a1, zero, 0x1
   1311c: 13 06 00 01  	addi	a2, zero, 0x10
   13120: 13 09 00 01  	addi	s2, zero, 0x10
   13124: 93 86 04 00  	addi	a3, s1, 0x0
   13128: ef 00 30 59  	jal	ra, 0x13eba <fwrite>
   1312c: 93 04 80 ff  	addi	s1, zero, -0x8
   13130: 63 16 25 01  	bne	a0, s2, 0x1313c <encfile+0x1d4>
   13134: 93 04 00 00  	addi	s1, zero, 0x0
   13138: 6f 00 40 01  	jal	zero, 0x1314c <encfile+0x1e4>
   1313c: 37 75 02 00  	lui	a0, 0x27
   13140: 13 05 05 11  	addi	a0, a0, 0x110
   13144: 93 05 04 00  	addi	a1, s0, 0x0
   13148: ef 00 70 61  	jal	ra, 0x13f5e <printf>
   1314c: 13 85 04 00  	addi	a0, s1, 0x0
   13150: 13 01 01 03  	addi	sp, sp, 0x30
   13154: 6f 90 50 45  	jal	zero, 0x1cda8 <__riscv_restore_11>

0000000000013158 <decfile>:
   13158: ef 92 b0 40  	jal	t0, 0x1cd62 <__riscv_save_11>
   1315c: 13 01 01 fd  	addi	sp, sp, -0x30
   13160: 13 04 07 00  	addi	s0, a4, 0x0
   13164: 13 8a 06 00  	addi	s4, a3, 0x0
   13168: 13 09 06 00  	addi	s2, a2, 0x0
   1316c: 93 84 05 00  	addi	s1, a1, 0x0
   13170: 93 09 05 00  	addi	s3, a0, 0x0
   13174: 13 05 01 02  	addi	a0, sp, 0x20
   13178: 93 05 10 00  	addi	a1, zero, 0x1
   1317c: 13 06 00 01  	addi	a2, zero, 0x10
   13180: 93 0a 00 01  	addi	s5, zero, 0x10
   13184: 93 86 09 00  	addi	a3, s3, 0x0
   13188: ef 00 70 40  	jal	ra, 0x13d8e <fread>
   1318c: 63 10 55 05  	bne	a0, s5, 0x131cc <decfile+0x74>
   13190: 13 05 f0 ff  	addi	a0, zero, -0x1
   13194: 93 5b 05 02  	srli	s7, a0, 0x20
   13198: 13 05 01 01  	addi	a0, sp, 0x10
   1319c: 93 05 10 00  	addi	a1, zero, 0x1
   131a0: 13 06 00 01  	addi	a2, zero, 0x10
   131a4: 93 86 09 00  	addi	a3, s3, 0x0
   131a8: ef 00 70 3e  	jal	ra, 0x13d8e <fread>
   131ac: 93 85 0b ff  	addi	a1, s7, -0x10
   131b0: 33 75 b5 00  	and	a0, a0, a1
   131b4: 63 0a 05 02  	beq	a0, zero, 0x131e8 <decfile+0x90>
   131b8: 37 75 02 00  	lui	a0, 0x27
   131bc: 13 05 55 15  	addi	a0, a0, 0x155
   131c0: ef 00 f0 59  	jal	ra, 0x13f5e <printf>
   131c4: 13 05 60 ff  	addi	a0, zero, -0xa
   131c8: 6f 00 80 01  	jal	zero, 0x131e0 <decfile+0x88>
   131cc: 37 75 02 00  	lui	a0, 0x27
   131d0: 13 05 25 13  	addi	a0, a0, 0x132
   131d4: 93 05 0a 00  	addi	a1, s4, 0x0
   131d8: ef 00 70 58  	jal	ra, 0x13f5e <printf>
   131dc: 13 05 90 00  	addi	a0, zero, 0x9
   131e0: 13 01 01 03  	addi	sp, sp, 0x30
   131e4: 6f 90 50 3c  	jal	zero, 0x1cda8 <__riscv_restore_11>
   131e8: 13 05 01 01  	addi	a0, sp, 0x10
   131ec: 93 05 01 00  	addi	a1, sp, 0x0
   131f0: 13 0a 01 00  	addi	s4, sp, 0x0
   131f4: 13 06 09 00  	addi	a2, s2, 0x0
   131f8: ef e0 5f 92  	jal	ra, 0x11b1c <decrypt>
   131fc: 13 05 01 02  	addi	a0, sp, 0x20
   13200: 13 0c 01 01  	addi	s8, sp, 0x10
   13204: 83 45 05 00  	lbu	a1, 0x0(a0)
   13208: 03 46 0a 00  	lbu	a2, 0x0(s4)
   1320c: b3 45 b6 00  	xor	a1, a2, a1
   13210: 23 00 ba 00  	sb	a1, 0x0(s4)
   13214: 13 0a 1a 00  	addi	s4, s4, 0x1
   13218: 13 05 15 00  	addi	a0, a0, 0x1
   1321c: e3 14 8a ff  	bne	s4, s8, 0x13204 <decfile+0xac>
   13220: 83 4c 01 00  	lbu	s9, 0x0(sp)
   13224: 13 0a 01 02  	addi	s4, sp, 0x20
   13228: 13 05 01 02  	addi	a0, sp, 0x20
   1322c: 93 05 10 00  	addi	a1, zero, 0x1
   13230: 13 06 00 01  	addi	a2, zero, 0x10
   13234: 93 0a 00 01  	addi	s5, zero, 0x10
   13238: 93 86 09 00  	addi	a3, s3, 0x0
   1323c: ef 00 30 35  	jal	ra, 0x13d8e <fread>
   13240: 33 7d 75 01  	and	s10, a0, s7
   13244: 63 12 5d 09  	bne	s10, s5, 0x132c8 <decfile+0x170>
   13248: 13 05 01 01  	addi	a0, sp, 0x10
   1324c: 13 0b f0 00  	addi	s6, zero, 0xf
   13250: 93 0a 05 00  	addi	s5, a0, 0x0
   13254: 33 05 6c 41  	sub	a0, s8, s6
   13258: 93 05 10 00  	addi	a1, zero, 0x1
   1325c: 13 06 0b 00  	addi	a2, s6, 0x0
   13260: 93 86 04 00  	addi	a3, s1, 0x0
   13264: ef 00 70 45  	jal	ra, 0x13eba <fwrite>
   13268: 63 1e 65 09  	bne	a0, s6, 0x13304 <decfile+0x1ac>
   1326c: 93 05 01 00  	addi	a1, sp, 0x0
   13270: 13 0b 01 00  	addi	s6, sp, 0x0
   13274: 13 05 0a 00  	addi	a0, s4, 0x0
   13278: 13 06 09 00  	addi	a2, s2, 0x0
   1327c: ef e0 1f 8a  	jal	ra, 0x11b1c <decrypt>
   13280: 13 85 0a 00  	addi	a0, s5, 0x0
   13284: 83 45 05 00  	lbu	a1, 0x0(a0)
   13288: 03 46 0b 00  	lbu	a2, 0x0(s6)
   1328c: b3 45 b6 00  	xor	a1, a2, a1
   13290: 23 00 bb 00  	sb	a1, 0x0(s6)
   13294: 13 0b 1b 00  	addi	s6, s6, 0x1
   13298: 13 05 15 00  	addi	a0, a0, 0x1
   1329c: e3 14 8b ff  	bne	s6, s8, 0x13284 <decfile+0x12c>
   132a0: 93 05 10 00  	addi	a1, zero, 0x1
   132a4: 13 06 00 01  	addi	a2, zero, 0x10
   132a8: 13 0b 00 01  	addi	s6, zero, 0x10
   132ac: 13 85 0a 00  	addi	a0, s5, 0x0
   132b0: 93 86 09 00  	addi	a3, s3, 0x0
   132b4: ef 00 b0 2d  	jal	ra, 0x13d8e <fread>
   132b8: b3 75 75 01  	and	a1, a0, s7
   132bc: 13 05 0a 00  	addi	a0, s4, 0x0
   132c0: 13 8a 0a 00  	addi	s4, s5, 0x0
   132c4: e3 86 65 f9  	beq	a1, s6, 0x13250 <decfile+0xf8>
   132c8: 13 f9 fc 00  	andi	s2, s9, 0xf
   132cc: 13 0d 0d ff  	addi	s10, s10, -0x10
   132d0: 13 35 1d 00  	sltiu	a0, s10, 0x1
   132d4: 33 09 25 01  	add	s2, a0, s2
   132d8: 63 02 09 02  	beq	s2, zero, 0x132fc <decfile+0x1a4>
   132dc: 33 35 a0 01  	sltu	a0, zero, s10
   132e0: 93 05 01 00  	addi	a1, sp, 0x0
   132e4: 33 85 a5 00  	add	a0, a1, a0
   132e8: 93 05 10 00  	addi	a1, zero, 0x1
   132ec: 13 06 09 00  	addi	a2, s2, 0x0
   132f0: 93 86 04 00  	addi	a3, s1, 0x0
   132f4: ef 00 70 3c  	jal	ra, 0x13eba <fwrite>
   132f8: 63 12 25 03  	bne	a0, s2, 0x1331c <decfile+0x1c4>
   132fc: 13 05 00 00  	addi	a0, zero, 0x0
   13300: 6f f0 1f ee  	jal	zero, 0x131e0 <decfile+0x88>
   13304: 37 75 02 00  	lui	a0, 0x27
   13308: 13 05 05 11  	addi	a0, a0, 0x110
   1330c: 93 05 04 00  	addi	a1, s0, 0x0
   13310: ef 00 f0 44  	jal	ra, 0x13f5e <printf>
   13314: 13 05 50 ff  	addi	a0, zero, -0xb
   13318: 6f f0 9f ec  	jal	zero, 0x131e0 <decfile+0x88>
   1331c: 37 75 02 00  	lui	a0, 0x27
   13320: 13 05 05 11  	addi	a0, a0, 0x110
   13324: 93 05 04 00  	addi	a1, s0, 0x0
   13328: ef 00 70 43  	jal	ra, 0x13f5e <printf>
   1332c: 13 05 40 ff  	addi	a0, zero, -0xc
   13330: 6f f0 1f eb  	jal	zero, 0x131e0 <decfile+0x88>

0000000000013334 <main>:
   13334: ef 92 d0 24  	jal	t0, 0x1cd80 <__riscv_save_5>
   13338: 13 01 01 bc  	addi	sp, sp, -0x440
   1333c: 13 06 50 00  	addi	a2, zero, 0x5
   13340: 63 1c c5 0e  	bne	a0, a2, 0x13438 <main+0x104>
   13344: 13 84 05 00  	addi	s0, a1, 0x0
   13348: 03 b5 85 01  	ld	a0, 0x18(a1)
   1334c: 83 45 05 00  	lbu	a1, 0x0(a0)
   13350: 37 75 02 00  	lui	a0, 0x27
   13354: 13 05 85 27  	addi	a0, a0, 0x278
   13358: 33 06 b5 00  	add	a2, a0, a1
   1335c: 03 46 16 00  	lbu	a2, 0x1(a2)
   13360: 13 76 36 00  	andi	a2, a2, 0x3
   13364: 13 06 e6 ff  	addi	a2, a2, -0x2
   13368: 33 36 c0 00  	sltu	a2, zero, a2
   1336c: 13 06 f6 ff  	addi	a2, a2, -0x1
   13370: 13 76 06 fe  	andi	a2, a2, -0x20
   13374: b3 85 c5 00  	add	a1, a1, a2
   13378: 93 f5 e5 ff  	andi	a1, a1, -0x2
   1337c: 13 06 40 04  	addi	a2, zero, 0x44
   13380: 63 9c c5 0a  	bne	a1, a2, 0x13438 <main+0x104>
   13384: 93 09 00 00  	addi	s3, zero, 0x0
   13388: 13 06 00 00  	addi	a2, zero, 0x0
   1338c: 83 35 04 02  	ld	a1, 0x20(s0)
   13390: 93 06 a0 00  	addi	a3, zero, 0xa
   13394: 13 07 00 04  	addi	a4, zero, 0x40
   13398: 93 07 01 42  	addi	a5, sp, 0x420
   1339c: 13 08 60 00  	addi	a6, zero, 0x6
   133a0: 83 c8 05 00  	lbu	a7, 0x0(a1)
   133a4: 63 84 08 0c  	beq	a7, zero, 0x1346c <main+0x138>
   133a8: b3 02 15 01  	add	t0, a0, a7
   133ac: 83 c2 12 00  	lbu	t0, 0x1(t0)
   133b0: 93 f2 32 00  	andi	t0, t0, 0x3
   133b4: 93 82 e2 ff  	addi	t0, t0, -0x2
   133b8: b3 32 50 00  	sltu	t0, zero, t0
   133bc: 93 82 f2 ff  	addi	t0, t0, -0x1
   133c0: 93 f2 02 fe  	andi	t0, t0, -0x20
   133c4: b3 88 58 00  	add	a7, a7, t0
   133c8: 93 82 08 fd  	addi	t0, a7, -0x30
   133cc: 13 f3 f2 0f  	andi	t1, t0, 0xff
   133d0: 93 02 00 fd  	addi	t0, zero, -0x30
   133d4: 63 6a d3 00  	bltu	t1, a3, 0x133e8 <main+0xb4>
   133d8: 93 82 f8 fb  	addi	t0, a7, -0x41
   133dc: 13 f3 f2 0f  	andi	t1, t0, 0xff
   133e0: 93 02 90 fc  	addi	t0, zero, -0x37
   133e4: 63 78 03 07  	bgeu	t1, a6, 0x13454 <main+0x120>
   133e8: 93 f8 f8 0f  	andi	a7, a7, 0xff
   133ec: 13 16 46 00  	slli	a2, a2, 0x4
   133f0: 33 06 56 00  	add	a2, a2, t0
   133f4: 33 06 16 01  	add	a2, a2, a7
   133f8: 93 f2 19 00  	andi	t0, s3, 0x1
   133fc: 9b 88 19 00  	addiw	a7, s3, 0x1
   13400: 63 88 02 00  	beq	t0, zero, 0x13410 <main+0xdc>
   13404: 9b d2 18 00  	srliw	t0, a7, 0x1
   13408: b3 82 f2 00  	add	t0, t0, a5
   1340c: a3 8f c2 fe  	sb	a2, -0x1(t0)
   13410: 93 85 15 00  	addi	a1, a1, 0x1
   13414: 93 89 08 00  	addi	s3, a7, 0x0
   13418: e3 94 e8 f8  	bne	a7, a4, 0x133a0 <main+0x6c>
   1341c: 03 c5 05 00  	lbu	a0, 0x0(a1)
   13420: 63 04 05 04  	beq	a0, zero, 0x13468 <main+0x134>
   13424: 37 75 02 00  	lui	a0, 0x27
   13428: 13 05 e5 1f  	addi	a0, a0, 0x1fe
   1342c: ef 00 10 3e  	jal	ra, 0x1400c <puts>
   13430: 13 04 d0 ff  	addi	s0, zero, -0x3
   13434: 6f 00 40 01  	jal	zero, 0x13448 <main+0x114>
   13438: 37 75 02 00  	lui	a0, 0x27
   1343c: 13 05 c5 23  	addi	a0, a0, 0x23c
   13440: ef 00 d0 3c  	jal	ra, 0x1400c <puts>
   13444: 13 04 f0 ff  	addi	s0, zero, -0x1
   13448: 13 05 04 00  	addi	a0, s0, 0x0
   1344c: 13 01 01 44  	addi	sp, sp, 0x440
   13450: 6f 90 b0 16  	jal	zero, 0x1cdba <__riscv_restore_5>
   13454: 37 75 02 00  	lui	a0, 0x27
   13458: 13 05 85 21  	addi	a0, a0, 0x218
   1345c: ef 00 10 3b  	jal	ra, 0x1400c <puts>
   13460: 13 04 e0 ff  	addi	s0, zero, -0x2
   13464: 6f f0 5f fe  	jal	zero, 0x13448 <main+0x114>
   13468: 93 09 00 04  	addi	s3, zero, 0x40
   1346c: 13 05 00 02  	addi	a0, zero, 0x20
   13470: 63 e0 a9 0a  	bltu	s3, a0, 0x13510 <main+0x1dc>
   13474: 13 f5 f9 00  	andi	a0, s3, 0xf
   13478: 63 1c 05 08  	bne	a0, zero, 0x13510 <main+0x1dc>
   1347c: 03 35 84 00  	ld	a0, 0x8(s0)
   13480: b7 75 02 00  	lui	a1, 0x27
   13484: 93 85 05 17  	addi	a1, a1, 0x170
   13488: ef 00 80 74  	jal	ra, 0x13bd0 <fopen>
   1348c: 63 0c 05 08  	beq	a0, zero, 0x13524 <main+0x1f0>
   13490: 93 04 05 00  	addi	s1, a0, 0x0
   13494: 03 35 04 01  	ld	a0, 0x10(s0)
   13498: b7 75 02 00  	lui	a1, 0x27
   1349c: 93 85 b5 19  	addi	a1, a1, 0x19b
   134a0: ef 00 00 73  	jal	ra, 0x13bd0 <fopen>
   134a4: 63 0c 05 08  	beq	a0, zero, 0x1353c <main+0x208>
   134a8: 13 09 05 00  	addi	s2, a0, 0x0
   134ac: 03 35 84 01  	ld	a0, 0x18(s0)
   134b0: 03 45 05 00  	lbu	a0, 0x0(a0)
   134b4: b7 75 02 00  	lui	a1, 0x27
   134b8: 93 85 85 27  	addi	a1, a1, 0x278
   134bc: b3 85 a5 00  	add	a1, a1, a0
   134c0: 83 c5 15 00  	lbu	a1, 0x1(a1)
   134c4: 93 f5 35 00  	andi	a1, a1, 0x3
   134c8: 93 85 e5 ff  	addi	a1, a1, -0x2
   134cc: b3 35 b0 00  	sltu	a1, zero, a1
   134d0: 93 85 f5 ff  	addi	a1, a1, -0x1
   134d4: 93 f5 05 fe  	andi	a1, a1, -0x20
   134d8: 33 05 b5 00  	add	a0, a0, a1
   134dc: 13 06 50 04  	addi	a2, zero, 0x45
   134e0: 9b d5 19 00  	srliw	a1, s3, 0x1
   134e4: 63 18 c5 06  	bne	a0, a2, 0x13554 <main+0x220>
   134e8: 13 05 01 42  	addi	a0, sp, 0x420
   134ec: 13 06 10 00  	addi	a2, zero, 0x1
   134f0: 93 06 81 00  	addi	a3, sp, 0x8
   134f4: ef c0 9f ce  	jal	ra, 0x101dc <set_key>
   134f8: 83 36 84 00  	ld	a3, 0x8(s0)
   134fc: 13 06 81 00  	addi	a2, sp, 0x8
   13500: 13 85 04 00  	addi	a0, s1, 0x0
   13504: 93 05 09 00  	addi	a1, s2, 0x0
   13508: ef f0 1f a6  	jal	ra, 0x12f68 <encfile>
   1350c: 6f 00 00 07  	jal	zero, 0x1357c <main+0x248>
   13510: 37 75 02 00  	lui	a0, 0x27
   13514: 13 05 75 1c  	addi	a0, a0, 0x1c7
   13518: ef 00 50 2f  	jal	ra, 0x1400c <puts>
   1351c: 13 04 c0 ff  	addi	s0, zero, -0x4
   13520: 6f f0 9f f2  	jal	zero, 0x13448 <main+0x114>
   13524: 83 35 84 00  	ld	a1, 0x8(s0)
   13528: 37 75 02 00  	lui	a0, 0x27
   1352c: 13 05 35 17  	addi	a0, a0, 0x173
   13530: ef 00 f0 22  	jal	ra, 0x13f5e <printf>
   13534: 13 04 b0 ff  	addi	s0, zero, -0x5
   13538: 6f f0 1f f1  	jal	zero, 0x13448 <main+0x114>
   1353c: 83 35 84 00  	ld	a1, 0x8(s0)
   13540: 37 75 02 00  	lui	a0, 0x27
   13544: 13 05 e5 19  	addi	a0, a0, 0x19e
   13548: ef 00 70 21  	jal	ra, 0x13f5e <printf>
   1354c: 13 04 a0 ff  	addi	s0, zero, -0x6
   13550: 6f 00 80 03  	jal	zero, 0x13588 <main+0x254>
   13554: 13 05 01 42  	addi	a0, sp, 0x420
   13558: 13 06 20 00  	addi	a2, zero, 0x2
   1355c: 93 06 81 00  	addi	a3, sp, 0x8
   13560: ef c0 df c7  	jal	ra, 0x101dc <set_key>
   13564: 83 36 84 00  	ld	a3, 0x8(s0)
   13568: 03 37 04 01  	ld	a4, 0x10(s0)
   1356c: 13 06 81 00  	addi	a2, sp, 0x8
   13570: 13 85 04 00  	addi	a0, s1, 0x0
   13574: 93 05 09 00  	addi	a1, s2, 0x0
   13578: ef f0 1f be  	jal	ra, 0x13158 <decfile>
   1357c: 13 04 05 00  	addi	s0, a0, 0x0
   13580: 13 05 09 00  	addi	a0, s2, 0x0
   13584: ef 00 80 0b  	jal	ra, 0x1363c <fclose>
   13588: 13 85 04 00  	addi	a0, s1, 0x0
   1358c: ef 00 00 0b  	jal	ra, 0x1363c <fclose>
   13590: 6f f0 9f eb  	jal	zero, 0x13448 <main+0x114>

0000000000013594 <_fclose_r>:
   13594: 01 11        	c.addi	sp, -0x20
   13596: 06 ec        	c.sdsp	ra, 0x18(sp)
   13598: 4a e0        	c.sdsp	s2, 0x0(sp)
   1359a: 89 cd        	c.beqz	a1, 0x135b4 <_fclose_r+0x20>
   1359c: 22 e8        	c.sdsp	s0, 0x10(sp)
   1359e: 26 e4        	c.sdsp	s1, 0x8(sp)
   135a0: 2e 84        	c.mv	s0, a1
   135a2: aa 84        	c.mv	s1, a0
   135a4: 19 c1        	c.beqz	a0, 0x135aa <_fclose_r+0x16>
   135a6: 3c 65        	c.ld	a5, 0x48(a0)
   135a8: d9 c7        	c.beqz	a5, 0x13636 <_fclose_r+0xa2>
   135aa: 83 17 04 01  	lh	a5, 0x10(s0)
   135ae: 89 eb        	c.bnez	a5, 0x135c0 <_fclose_r+0x2c>
   135b0: 42 64        	c.ldsp	s0, 0x10(sp)
   135b2: a2 64        	c.ldsp	s1, 0x8(sp)
   135b4: e2 60        	c.ldsp	ra, 0x18(sp)
   135b6: 01 49        	c.li	s2, 0x0
   135b8: 4a 85        	c.mv	a0, s2
   135ba: 02 69        	c.ldsp	s2, 0x0(sp)
   135bc: 05 61        	c.addi16sp	sp, 0x20
   135be: 82 80        	c.jr	ra
   135c0: a2 85        	c.mv	a1, s0
   135c2: 26 85        	c.mv	a0, s1
   135c4: ef 00 00 08  	jal	ra, 0x13644 <__sflush_r>
   135c8: 3c 68        	c.ld	a5, 0x50(s0)
   135ca: 2a 89        	c.mv	s2, a0
   135cc: 91 c7        	c.beqz	a5, 0x135d8 <_fclose_r+0x44>
   135ce: 0c 78        	c.ld	a1, 0x30(s0)
   135d0: 26 85        	c.mv	a0, s1
   135d2: 82 97        	c.jalr	a5
   135d4: 63 46 05 04  	blt	a0, zero, 0x13620 <_fclose_r+0x8c>
   135d8: 83 57 04 01  	lhu	a5, 0x10(s0)
   135dc: 93 f7 07 08  	andi	a5, a5, 0x80
   135e0: b1 e7        	c.bnez	a5, 0x1362c <_fclose_r+0x98>
   135e2: 2c 6c        	c.ld	a1, 0x58(s0)
   135e4: 91 c9        	c.beqz	a1, 0x135f8 <_fclose_r+0x64>
   135e6: 93 07 44 07  	addi	a5, s0, 0x74
   135ea: 63 85 f5 00  	beq	a1, a5, 0x135f4 <_fclose_r+0x60>
   135ee: 26 85        	c.mv	a0, s1
   135f0: ef 10 a0 6c  	jal	ra, 0x14cba <_free_r>
   135f4: 23 3c 04 04  	sd	zero, 0x58(s0)
   135f8: 2c 7c        	c.ld	a1, 0x78(s0)
   135fa: 91 c5        	c.beqz	a1, 0x13606 <_fclose_r+0x72>
   135fc: 26 85        	c.mv	a0, s1
   135fe: ef 10 c0 6b  	jal	ra, 0x14cba <_free_r>
   13602: 23 3c 04 06  	sd	zero, 0x78(s0)
   13606: ef 00 e0 4e  	jal	ra, 0x13af4 <__sfp_lock_acquire>
   1360a: 23 18 04 00  	sh	zero, 0x10(s0)
   1360e: ef 00 80 4e  	jal	ra, 0x13af6 <__sfp_lock_release>
   13612: e2 60        	c.ldsp	ra, 0x18(sp)
   13614: 42 64        	c.ldsp	s0, 0x10(sp)
   13616: a2 64        	c.ldsp	s1, 0x8(sp)
   13618: 4a 85        	c.mv	a0, s2
   1361a: 02 69        	c.ldsp	s2, 0x0(sp)
   1361c: 05 61        	c.addi16sp	sp, 0x20
   1361e: 82 80        	c.jr	ra
   13620: 83 57 04 01  	lhu	a5, 0x10(s0)
   13624: 7d 59        	c.li	s2, -0x1
   13626: 93 f7 07 08  	andi	a5, a5, 0x80
   1362a: c5 df        	c.beqz	a5, 0x135e2 <_fclose_r+0x4e>
   1362c: 0c 6c        	c.ld	a1, 0x18(s0)
   1362e: 26 85        	c.mv	a0, s1
   13630: ef 10 a0 68  	jal	ra, 0x14cba <_free_r>
   13634: 7d b7        	c.j	0x135e2 <_fclose_r+0x4e>
   13636: ef 00 80 4a  	jal	ra, 0x13ade <__sinit>
   1363a: 85 bf        	c.j	0x135aa <_fclose_r+0x16>

000000000001363c <fclose>:
   1363c: aa 85        	c.mv	a1, a0
   1363e: 03 b5 01 20  	ld	a0, 0x200(gp)
   13642: 89 bf        	c.j	0x13594 <_fclose_r>

0000000000013644 <__sflush_r>:
   13644: 03 97 05 01  	lh	a4, 0x10(a1)
   13648: 79 71        	c.addi16sp	sp, -0x30
   1364a: 22 f0        	c.sdsp	s0, 0x20(sp)
   1364c: 4e e4        	c.sdsp	s3, 0x8(sp)
   1364e: 06 f4        	c.sdsp	ra, 0x28(sp)
   13650: 93 77 87 00  	andi	a5, a4, 0x8
   13654: 2e 84        	c.mv	s0, a1
   13656: aa 89        	c.mv	s3, a0
   13658: f1 e7        	c.bnez	a5, 0x13724 <__sflush_r+0xe0>
   1365a: 85 67        	c.lui	a5, 0x1
   1365c: 93 87 07 80  	addi	a5, a5, -0x800
   13660: 94 45        	c.lw	a3, 0x8(a1)
   13662: d9 8f        	c.or	a5, a4
   13664: 23 98 f5 00  	sh	a5, 0x10(a1)
   13668: 63 57 d0 10  	bge	zero, a3, 0x13776 <__sflush_r+0x132>
   1366c: 03 38 84 04  	ld	a6, 0x48(s0)
   13670: 63 04 08 0a  	beq	a6, zero, 0x13718 <__sflush_r+0xd4>
   13674: 26 ec        	c.sdsp	s1, 0x18(sp)
   13676: 93 16 37 03  	slli	a3, a4, 0x33
   1367a: 83 a4 09 00  	lw	s1, 0x0(s3)
   1367e: 23 a0 09 00  	sw	zero, 0x0(s3)
   13682: 0c 78        	c.ld	a1, 0x30(s0)
   13684: 63 c0 06 10  	blt	a3, zero, 0x13784 <__sflush_r+0x140>
   13688: 01 46        	c.li	a2, 0x0
   1368a: 85 46        	c.li	a3, 0x1
   1368c: 4e 85        	c.mv	a0, s3
   1368e: 02 98        	c.jalr	a6
   13690: fd 57        	c.li	a5, -0x1
   13692: 2a 86        	c.mv	a2, a0
   13694: 63 01 f5 12  	beq	a0, a5, 0x137b6 <__sflush_r+0x172>
   13698: 83 17 04 01  	lh	a5, 0x10(s0)
   1369c: 03 38 84 04  	ld	a6, 0x48(s0)
   136a0: 0c 78        	c.ld	a1, 0x30(s0)
   136a2: 91 8b        	c.andi	a5, 0x4
   136a4: 99 c7        	c.beqz	a5, 0x136b2 <__sflush_r+0x6e>
   136a6: 18 44        	c.lw	a4, 0x8(s0)
   136a8: 3c 6c        	c.ld	a5, 0x58(s0)
   136aa: 19 8e        	c.sub	a2, a4
   136ac: 99 c3        	c.beqz	a5, 0x136b2 <__sflush_r+0x6e>
   136ae: 3c 58        	c.lw	a5, 0x70(s0)
   136b0: 1d 8e        	c.sub	a2, a5
   136b2: 81 46        	c.li	a3, 0x0
   136b4: 4e 85        	c.mv	a0, s3
   136b6: 02 98        	c.jalr	a6
   136b8: fd 57        	c.li	a5, -0x1
   136ba: 63 17 f5 0c  	bne	a0, a5, 0x13788 <__sflush_r+0x144>
   136be: 83 a6 09 00  	lw	a3, 0x0(s3)
   136c2: f5 47        	c.li	a5, 0x1d
   136c4: 03 17 04 01  	lh	a4, 0x10(s0)
   136c8: 1b 86 06 00  	addiw	a2, a3, 0x0
   136cc: 63 e1 d7 10  	bltu	a5, a3, 0x137ce <__sflush_r+0x18a>
   136d0: b7 07 40 20  	lui	a5, 0x20400
   136d4: 85 07        	c.addi	a5, 0x1
   136d6: b3 d7 c7 00  	srl	a5, a5, a2
   136da: 85 8b        	c.andi	a5, 0x1
   136dc: ed cb        	c.beqz	a5, 0x137ce <__sflush_r+0x18a>
   136de: 10 6c        	c.ld	a2, 0x18(s0)
   136e0: fd 77        	c.lui	a5, 0xfffff
   136e2: 93 87 f7 7f  	addi	a5, a5, 0x7ff
   136e6: f9 8f        	c.and	a5, a4
   136e8: 23 18 f4 00  	sh	a5, 0x10(s0)
   136ec: 23 24 04 00  	sw	zero, 0x8(s0)
   136f0: 10 e0        	c.sd	a2, 0x0(s0)
   136f2: 93 17 37 03  	slli	a5, a4, 0x33
   136f6: 63 d3 07 00  	bge	a5, zero, 0x136fc <__sflush_r+0xb8>
   136fa: dd c6        	c.beqz	a3, 0x137a8 <__sflush_r+0x164>
   136fc: 2c 6c        	c.ld	a1, 0x58(s0)
   136fe: 23 a0 99 00  	sw	s1, 0x0(s3)
   13702: c5 c9        	c.beqz	a1, 0x137b2 <__sflush_r+0x16e>
   13704: 93 07 44 07  	addi	a5, s0, 0x74
   13708: 63 85 f5 00  	beq	a1, a5, 0x13712 <__sflush_r+0xce>
   1370c: 4e 85        	c.mv	a0, s3
   1370e: ef 10 c0 5a  	jal	ra, 0x14cba <_free_r>
   13712: e2 64        	c.ldsp	s1, 0x18(sp)
   13714: 23 3c 04 04  	sd	zero, 0x58(s0)
   13718: 01 45        	c.li	a0, 0x0
   1371a: a2 70        	c.ldsp	ra, 0x28(sp)
   1371c: 02 74        	c.ldsp	s0, 0x20(sp)
   1371e: a2 69        	c.ldsp	s3, 0x8(sp)
   13720: 45 61        	c.addi16sp	sp, 0x30
   13722: 82 80        	c.jr	ra
   13724: 4a e8        	c.sdsp	s2, 0x10(sp)
   13726: 03 b9 85 01  	ld	s2, 0x18(a1)
   1372a: 63 0b 09 04  	beq	s2, zero, 0x13780 <__sflush_r+0x13c>
   1372e: 26 ec        	c.sdsp	s1, 0x18(sp)
   13730: 84 61        	c.ld	s1, 0x0(a1)
   13732: 0d 8b        	c.andi	a4, 0x3
   13734: 23 b0 25 01  	sd	s2, 0x0(a1)
   13738: bb 84 24 41  	subw	s1, s1, s2
   1373c: 81 47        	c.li	a5, 0x0
   1373e: 11 e3        	c.bnez	a4, 0x13742 <__sflush_r+0xfe>
   13740: 9c 51        	c.lw	a5, 0x20(a1)
   13742: 5c c4        	c.sw	a5, 0xc(s0)
   13744: 63 46 90 00  	blt	zero, s1, 0x13750 <__sflush_r+0x10c>
   13748: 1d a8        	c.j	0x1377e <__sflush_r+0x13a>
   1374a: 2a 99        	c.add	s2, a0
   1374c: 63 59 90 02  	bge	zero, s1, 0x1377e <__sflush_r+0x13a>
   13750: 3c 60        	c.ld	a5, 0x40(s0)
   13752: 0c 78        	c.ld	a1, 0x30(s0)
   13754: a6 86        	c.mv	a3, s1
   13756: 4a 86        	c.mv	a2, s2
   13758: 4e 85        	c.mv	a0, s3
   1375a: 82 97        	c.jalr	a5
   1375c: 89 9c        	c.subw	s1, a0
   1375e: e3 46 a0 fe  	blt	zero, a0, 0x1374a <__sflush_r+0x106>
   13762: 03 17 04 01  	lh	a4, 0x10(s0)
   13766: 42 69        	c.ldsp	s2, 0x10(sp)
   13768: 13 67 07 04  	ori	a4, a4, 0x40
   1376c: e2 64        	c.ldsp	s1, 0x18(sp)
   1376e: 23 18 e4 00  	sh	a4, 0x10(s0)
   13772: 7d 55        	c.li	a0, -0x1
   13774: 5d b7        	c.j	0x1371a <__sflush_r+0xd6>
   13776: b4 59        	c.lw	a3, 0x70(a1)
   13778: e3 4a d0 ee  	blt	zero, a3, 0x1366c <__sflush_r+0x28>
   1377c: 71 bf        	c.j	0x13718 <__sflush_r+0xd4>
   1377e: e2 64        	c.ldsp	s1, 0x18(sp)
   13780: 42 69        	c.ldsp	s2, 0x10(sp)
   13782: 59 bf        	c.j	0x13718 <__sflush_r+0xd4>
   13784: 50 68        	c.ld	a2, 0x90(s0)
   13786: 31 bf        	c.j	0x136a2 <__sflush_r+0x5e>
   13788: 03 17 04 01  	lh	a4, 0x10(s0)
   1378c: 14 6c        	c.ld	a3, 0x18(s0)
   1378e: fd 77        	c.lui	a5, 0xfffff
   13790: 93 87 f7 7f  	addi	a5, a5, 0x7ff
   13794: f9 8f        	c.and	a5, a4
   13796: 23 18 f4 00  	sh	a5, 0x10(s0)
   1379a: 23 24 04 00  	sw	zero, 0x8(s0)
   1379e: 14 e0        	c.sd	a3, 0x0(s0)
   137a0: 93 17 37 03  	slli	a5, a4, 0x33
   137a4: e3 dc 07 f4  	bge	a5, zero, 0x136fc <__sflush_r+0xb8>
   137a8: 2c 6c        	c.ld	a1, 0x58(s0)
   137aa: 48 e8        	c.sd	a0, 0x90(s0)
   137ac: 23 a0 99 00  	sw	s1, 0x0(s3)
   137b0: b1 f9        	c.bnez	a1, 0x13704 <__sflush_r+0xc0>
   137b2: e2 64        	c.ldsp	s1, 0x18(sp)
   137b4: 95 b7        	c.j	0x13718 <__sflush_r+0xd4>
   137b6: 83 a7 09 00  	lw	a5, 0x0(s3)
   137ba: e3 8f 07 ec  	beq	a5, zero, 0x13698 <__sflush_r+0x54>
   137be: 75 47        	c.li	a4, 0x1d
   137c0: 63 8a e7 00  	beq	a5, a4, 0x137d4 <__sflush_r+0x190>
   137c4: 59 47        	c.li	a4, 0x16
   137c6: 63 87 e7 00  	beq	a5, a4, 0x137d4 <__sflush_r+0x190>
   137ca: 03 17 04 01  	lh	a4, 0x10(s0)
   137ce: 13 67 07 04  	ori	a4, a4, 0x40
   137d2: 69 bf        	c.j	0x1376c <__sflush_r+0x128>
   137d4: 23 a0 99 00  	sw	s1, 0x0(s3)
   137d8: e2 64        	c.ldsp	s1, 0x18(sp)
   137da: 3d bf        	c.j	0x13718 <__sflush_r+0xd4>

00000000000137dc <_fflush_r>:
   137dc: 01 11        	c.addi	sp, -0x20
   137de: 22 e8        	c.sdsp	s0, 0x10(sp)
   137e0: 06 ec        	c.sdsp	ra, 0x18(sp)
   137e2: 2a 84        	c.mv	s0, a0
   137e4: 19 c1        	c.beqz	a0, 0x137ea <_fflush_r+0xe>
   137e6: 3c 65        	c.ld	a5, 0x48(a0)
   137e8: 91 cf        	c.beqz	a5, 0x13804 <_fflush_r+0x28>
   137ea: 83 97 05 01  	lh	a5, 0x10(a1)
   137ee: 91 e7        	c.bnez	a5, 0x137fa <_fflush_r+0x1e>
   137f0: e2 60        	c.ldsp	ra, 0x18(sp)
   137f2: 42 64        	c.ldsp	s0, 0x10(sp)
   137f4: 01 45        	c.li	a0, 0x0
   137f6: 05 61        	c.addi16sp	sp, 0x20
   137f8: 82 80        	c.jr	ra
   137fa: 22 85        	c.mv	a0, s0
   137fc: 42 64        	c.ldsp	s0, 0x10(sp)
   137fe: e2 60        	c.ldsp	ra, 0x18(sp)
   13800: 05 61        	c.addi16sp	sp, 0x20
   13802: 89 b5        	c.j	0x13644 <__sflush_r>
   13804: 2e e4        	c.sdsp	a1, 0x8(sp)
   13806: ef 00 80 2d  	jal	ra, 0x13ade <__sinit>
   1380a: a2 65        	c.ldsp	a1, 0x8(sp)
   1380c: f9 bf        	c.j	0x137ea <_fflush_r+0xe>

000000000001380e <fflush>:
   1380e: 05 cd        	c.beqz	a0, 0x13846 <fflush+0x38>
   13810: aa 85        	c.mv	a1, a0
   13812: 03 b5 01 20  	ld	a0, 0x200(gp)
   13816: 19 c1        	c.beqz	a0, 0x1381c <fflush+0xe>
   13818: 3c 65        	c.ld	a5, 0x48(a0)
   1381a: 99 c7        	c.beqz	a5, 0x13828 <fflush+0x1a>
   1381c: 83 97 05 01  	lh	a5, 0x10(a1)
   13820: 99 e3        	c.bnez	a5, 0x13826 <fflush+0x18>
   13822: 01 45        	c.li	a0, 0x0
   13824: 82 80        	c.jr	ra
   13826: 39 bd        	c.j	0x13644 <__sflush_r>
   13828: 01 11        	c.addi	sp, -0x20
   1382a: 2e e4        	c.sdsp	a1, 0x8(sp)
   1382c: 2a e0        	c.sdsp	a0, 0x0(sp)
   1382e: 06 ec        	c.sdsp	ra, 0x18(sp)
   13830: ef 00 e0 2a  	jal	ra, 0x13ade <__sinit>
   13834: a2 65        	c.ldsp	a1, 0x8(sp)
   13836: 02 65        	c.ldsp	a0, 0x0(sp)
   13838: 83 97 05 01  	lh	a5, 0x10(a1)
   1383c: 8d e3        	c.bnez	a5, 0x1385e <fflush+0x50>
   1383e: e2 60        	c.ldsp	ra, 0x18(sp)
   13840: 01 45        	c.li	a0, 0x0
   13842: 05 61        	c.addi16sp	sp, 0x20
   13844: 82 80        	c.jr	ra
   13846: 37 96 02 00  	lui	a2, 0x29
   1384a: cd 65        	c.lui	a1, 0x13
   1384c: 37 95 02 00  	lui	a0, 0x29
   13850: 13 06 06 ca  	addi	a2, a2, -0x360
   13854: 93 85 c5 7d  	addi	a1, a1, 0x7dc
   13858: 13 05 85 cb  	addi	a0, a0, -0x348
   1385c: 85 a3        	c.j	0x13dbc <_fwalk_sglue>
   1385e: e2 60        	c.ldsp	ra, 0x18(sp)
   13860: 05 61        	c.addi16sp	sp, 0x20
   13862: cd b3        	c.j	0x13644 <__sflush_r>

0000000000013864 <_fgetpos_r>:
   13864: 41 11        	c.addi	sp, -0x10
   13866: 22 e0        	c.sdsp	s0, 0x0(sp)
   13868: 06 e4        	c.sdsp	ra, 0x8(sp)
   1386a: 32 84        	c.mv	s0, a2
   1386c: ef 00 20 54  	jal	ra, 0x13dae <_ftell_r>
   13870: 08 e0        	c.sd	a0, 0x0(s0)
   13872: a2 60        	c.ldsp	ra, 0x8(sp)
   13874: 02 64        	c.ldsp	s0, 0x0(sp)
   13876: 93 07 15 00  	addi	a5, a0, 0x1
   1387a: 13 b5 17 00  	sltiu	a0, a5, 0x1
   1387e: 41 01        	c.addi	sp, 0x10
   13880: 82 80        	c.jr	ra

0000000000013882 <fgetpos>:
   13882: aa 87        	c.mv	a5, a0
   13884: 03 b5 01 20  	ld	a0, 0x200(gp)
   13888: 41 11        	c.addi	sp, -0x10
   1388a: 22 e0        	c.sdsp	s0, 0x0(sp)
   1388c: 2e 84        	c.mv	s0, a1
   1388e: be 85        	c.mv	a1, a5
   13890: 06 e4        	c.sdsp	ra, 0x8(sp)
   13892: ef 00 c0 51  	jal	ra, 0x13dae <_ftell_r>
   13896: 08 e0        	c.sd	a0, 0x0(s0)
   13898: a2 60        	c.ldsp	ra, 0x8(sp)
   1389a: 02 64        	c.ldsp	s0, 0x0(sp)
   1389c: 93 07 15 00  	addi	a5, a0, 0x1
   138a0: 13 b5 17 00  	sltiu	a0, a5, 0x1
   138a4: 41 01        	c.addi	sp, 0x10
   138a6: 82 80        	c.jr	ra

00000000000138a8 <__fp_lock>:
   138a8: 01 45        	c.li	a0, 0x0
   138aa: 82 80        	c.jr	ra

00000000000138ac <stdio_exit_handler>:
   138ac: 37 96 02 00  	lui	a2, 0x29
   138b0: cd 65        	c.lui	a1, 0x13
   138b2: 37 95 02 00  	lui	a0, 0x29
   138b6: 13 06 06 ca  	addi	a2, a2, -0x360
   138ba: 93 85 45 59  	addi	a1, a1, 0x594
   138be: 13 05 85 cb  	addi	a0, a0, -0x348
   138c2: ed a9        	c.j	0x13dbc <_fwalk_sglue>

00000000000138c4 <cleanup_stdio>:
   138c4: 0c 65        	c.ld	a1, 0x8(a0)
   138c6: 41 11        	c.addi	sp, -0x10
   138c8: 22 e0        	c.sdsp	s0, 0x0(sp)
   138ca: 06 e4        	c.sdsp	ra, 0x8(sp)
   138cc: 93 87 01 2b  	addi	a5, gp, 0x2b0
   138d0: 2a 84        	c.mv	s0, a0
   138d2: 63 84 f5 00  	beq	a1, a5, 0x138da <cleanup_stdio+0x16>
   138d6: ef f0 ff cb  	jal	ra, 0x13594 <_fclose_r>
   138da: 0c 68        	c.ld	a1, 0x10(s0)
   138dc: 93 87 01 36  	addi	a5, gp, 0x360
   138e0: 63 85 f5 00  	beq	a1, a5, 0x138ea <cleanup_stdio+0x26>
   138e4: 22 85        	c.mv	a0, s0
   138e6: ef f0 ff ca  	jal	ra, 0x13594 <_fclose_r>
   138ea: 0c 6c        	c.ld	a1, 0x18(s0)
   138ec: 93 87 01 41  	addi	a5, gp, 0x410
   138f0: 63 87 f5 00  	beq	a1, a5, 0x138fe <cleanup_stdio+0x3a>
   138f4: 22 85        	c.mv	a0, s0
   138f6: 02 64        	c.ldsp	s0, 0x0(sp)
   138f8: a2 60        	c.ldsp	ra, 0x8(sp)
   138fa: 41 01        	c.addi	sp, 0x10
   138fc: 61 b9        	c.j	0x13594 <_fclose_r>
   138fe: a2 60        	c.ldsp	ra, 0x8(sp)
   13900: 02 64        	c.ldsp	s0, 0x0(sp)
   13902: 41 01        	c.addi	sp, 0x10
   13904: 82 80        	c.jr	ra

0000000000013906 <__fp_unlock>:
   13906: 01 45        	c.li	a0, 0x0
   13908: 82 80        	c.jr	ra

000000000001390a <global_stdio_init.part.0>:
   1390a: 79 71        	c.addi16sp	sp, -0x30
   1390c: d1 67        	c.lui	a5, 0x14
   1390e: 22 f0        	c.sdsp	s0, 0x20(sp)
   13910: 93 87 c7 8a  	addi	a5, a5, -0x754
   13914: 13 84 01 2b  	addi	s0, gp, 0x2b0
   13918: 06 f4        	c.sdsp	ra, 0x28(sp)
   1391a: 26 ec        	c.sdsp	s1, 0x18(sp)
   1391c: 4a e8        	c.sdsp	s2, 0x10(sp)
   1391e: 4e e4        	c.sdsp	s3, 0x8(sp)
   13920: 52 e0        	c.sdsp	s4, 0x0(sp)
   13922: 23 bc f1 22  	sd	a5, 0x238(gp)
   13926: 21 46        	c.li	a2, 0x8
   13928: 91 47        	c.li	a5, 0x4
   1392a: 81 45        	c.li	a1, 0x0
   1392c: 13 85 41 35  	addi	a0, gp, 0x354
   13930: 1c c8        	c.sw	a5, 0x10(s0)
   13932: 23 30 04 00  	sd	zero, 0x0(s0)
   13936: 23 34 04 00  	sd	zero, 0x8(s0)
   1393a: 23 26 04 0a  	sw	zero, 0xac(s0)
   1393e: 23 3c 04 00  	sd	zero, 0x18(s0)
   13942: 23 20 04 02  	sw	zero, 0x20(s0)
   13946: 23 24 04 02  	sw	zero, 0x28(s0)
   1394a: ef 00 10 73  	jal	ra, 0x1487a <memset>
   1394e: c1 67        	c.lui	a5, 0x10
   13950: 51 6a        	c.lui	s4, 0x14
   13952: d1 69        	c.lui	s3, 0x14
   13954: 51 69        	c.lui	s2, 0x14
   13956: d1 64        	c.lui	s1, 0x14
   13958: 13 0a 0a 19  	addi	s4, s4, 0x190
   1395c: 93 89 c9 1c  	addi	s3, s3, 0x1cc
   13960: 13 09 e9 21  	addi	s2, s2, 0x21e
   13964: 93 84 04 27  	addi	s1, s1, 0x270
   13968: a5 07        	c.addi	a5, 0x9
   1396a: 21 46        	c.li	a2, 0x8
   1396c: 81 45        	c.li	a1, 0x0
   1396e: 13 85 41 40  	addi	a0, gp, 0x404
   13972: 23 3c 44 03  	sd	s4, 0x38(s0)
   13976: 23 30 34 05  	sd	s3, 0x40(s0)
   1397a: 23 34 24 05  	sd	s2, 0x48(s0)
   1397e: 24 e8        	c.sd	s1, 0x50(s0)
   13980: 23 20 f4 0c  	sw	a5, 0xc0(s0)
   13984: 00 f8        	c.sd	s0, 0x30(s0)
   13986: 23 38 04 0a  	sd	zero, 0xb0(s0)
   1398a: 23 3c 04 0a  	sd	zero, 0xb8(s0)
   1398e: 23 2e 04 14  	sw	zero, 0x15c(s0)
   13992: 23 34 04 0c  	sd	zero, 0xc8(s0)
   13996: 23 28 04 0c  	sw	zero, 0xd0(s0)
   1399a: 23 2c 04 0c  	sw	zero, 0xd8(s0)
   1399e: ef 00 d0 6d  	jal	ra, 0x1487a <memset>
   139a2: b7 07 02 00  	lui	a5, 0x20
   139a6: c9 07        	c.addi	a5, 0x12
   139a8: 13 87 01 36  	addi	a4, gp, 0x360
   139ac: 21 46        	c.li	a2, 0x8
   139ae: 81 45        	c.li	a1, 0x0
   139b0: 13 85 41 4b  	addi	a0, gp, 0x4b4
   139b4: 23 34 44 0f  	sd	s4, 0xe8(s0)
   139b8: 23 38 34 0f  	sd	s3, 0xf0(s0)
   139bc: 23 3c 24 0f  	sd	s2, 0xf8(s0)
   139c0: 23 30 94 10  	sd	s1, 0x100(s0)
   139c4: 23 28 f4 16  	sw	a5, 0x170(s0)
   139c8: 78 f0        	c.sd	a4, 0xe0(s0)
   139ca: 23 30 04 16  	sd	zero, 0x160(s0)
   139ce: 23 34 04 16  	sd	zero, 0x168(s0)
   139d2: 23 26 04 20  	sw	zero, 0x20c(s0)
   139d6: 23 3c 04 16  	sd	zero, 0x178(s0)
   139da: 23 20 04 18  	sw	zero, 0x180(s0)
   139de: 23 24 04 18  	sw	zero, 0x188(s0)
   139e2: ef 00 90 69  	jal	ra, 0x1487a <memset>
   139e6: 93 87 01 41  	addi	a5, gp, 0x410
   139ea: 23 3c 44 19  	sd	s4, 0x198(s0)
   139ee: 23 30 34 1b  	sd	s3, 0x1a0(s0)
   139f2: 23 34 24 1b  	sd	s2, 0x1a8(s0)
   139f6: 23 38 94 1a  	sd	s1, 0x1b0(s0)
   139fa: a2 70        	c.ldsp	ra, 0x28(sp)
   139fc: 23 38 f4 18  	sd	a5, 0x190(s0)
   13a00: 02 74        	c.ldsp	s0, 0x20(sp)
   13a02: e2 64        	c.ldsp	s1, 0x18(sp)
   13a04: 42 69        	c.ldsp	s2, 0x10(sp)
   13a06: a2 69        	c.ldsp	s3, 0x8(sp)
   13a08: 02 6a        	c.ldsp	s4, 0x0(sp)
   13a0a: 45 61        	c.addi16sp	sp, 0x30
   13a0c: 82 80        	c.jr	ra

0000000000013a0e <__sfp>:
   13a0e: 83 b7 81 23  	ld	a5, 0x238(gp)
   13a12: 79 71        	c.addi16sp	sp, -0x30
   13a14: 4a e8        	c.sdsp	s2, 0x10(sp)
   13a16: 06 f4        	c.sdsp	ra, 0x28(sp)
   13a18: 22 f0        	c.sdsp	s0, 0x20(sp)
   13a1a: 26 ec        	c.sdsp	s1, 0x18(sp)
   13a1c: 4e e4        	c.sdsp	s3, 0x8(sp)
   13a1e: 2a 89        	c.mv	s2, a0
   13a20: d5 c7        	c.beqz	a5, 0x13acc <__sfp+0xbe>
   13a22: b7 94 02 00  	lui	s1, 0x29
   13a26: 93 84 04 ca  	addi	s1, s1, -0x360
   13a2a: 93 09 00 0b  	addi	s3, zero, 0xb0
   13a2e: 98 44        	c.lw	a4, 0x8(s1)
   13a30: 80 68        	c.ld	s0, 0x10(s1)
   13a32: 63 54 e0 06  	bge	zero, a4, 0x13a9a <__sfp+0x8c>
   13a36: 02 17        	c.slli	a4, 0x20
   13a38: 01 93        	c.srli	a4, 0x20
   13a3a: 33 07 37 03  	mul	a4, a4, s3
   13a3e: 22 97        	c.add	a4, s0
   13a40: 29 a0        	c.j	0x13a4a <__sfp+0x3c>
   13a42: 13 04 04 0b  	addi	s0, s0, 0xb0
   13a46: 63 0a 87 04  	beq	a4, s0, 0x13a9a <__sfp+0x8c>
   13a4a: 83 17 04 01  	lh	a5, 0x10(s0)
   13a4e: f5 fb        	c.bnez	a5, 0x13a42 <__sfp+0x34>
   13a50: c1 77        	c.lui	a5, 0xffff0
   13a52: 85 07        	c.addi	a5, 0x1
   13a54: 1c c8        	c.sw	a5, 0x10(s0)
   13a56: 23 26 04 0a  	sw	zero, 0xac(s0)
   13a5a: 23 30 04 00  	sd	zero, 0x0(s0)
   13a5e: 23 34 04 00  	sd	zero, 0x8(s0)
   13a62: 23 3c 04 00  	sd	zero, 0x18(s0)
   13a66: 23 20 04 02  	sw	zero, 0x20(s0)
   13a6a: 23 24 04 02  	sw	zero, 0x28(s0)
   13a6e: 21 46        	c.li	a2, 0x8
   13a70: 81 45        	c.li	a1, 0x0
   13a72: 13 05 44 0a  	addi	a0, s0, 0xa4
   13a76: ef 00 50 60  	jal	ra, 0x1487a <memset>
   13a7a: 23 3c 04 04  	sd	zero, 0x58(s0)
   13a7e: 23 20 04 06  	sw	zero, 0x60(s0)
   13a82: 23 3c 04 06  	sd	zero, 0x78(s0)
   13a86: 23 20 04 08  	sw	zero, 0x80(s0)
   13a8a: a2 70        	c.ldsp	ra, 0x28(sp)
   13a8c: 22 85        	c.mv	a0, s0
   13a8e: 02 74        	c.ldsp	s0, 0x20(sp)
   13a90: e2 64        	c.ldsp	s1, 0x18(sp)
   13a92: 42 69        	c.ldsp	s2, 0x10(sp)
   13a94: a2 69        	c.ldsp	s3, 0x8(sp)
   13a96: 45 61        	c.addi16sp	sp, 0x30
   13a98: 82 80        	c.jr	ra
   13a9a: 80 60        	c.ld	s0, 0x0(s1)
   13a9c: 19 c0        	c.beqz	s0, 0x13aa2 <__sfp+0x94>
   13a9e: a2 84        	c.mv	s1, s0
   13aa0: 79 b7        	c.j	0x13a2e <__sfp+0x20>
   13aa2: 93 05 80 2d  	addi	a1, zero, 0x2d8
   13aa6: 4a 85        	c.mv	a0, s2
   13aa8: ef 10 c0 45  	jal	ra, 0x14f04 <_malloc_r>
   13aac: 2a 84        	c.mv	s0, a0
   13aae: 15 c1        	c.beqz	a0, 0x13ad2 <__sfp+0xc4>
   13ab0: 61 05        	c.addi	a0, 0x18
   13ab2: 91 47        	c.li	a5, 0x4
   13ab4: 23 30 04 00  	sd	zero, 0x0(s0)
   13ab8: 1c c4        	c.sw	a5, 0x8(s0)
   13aba: 08 e8        	c.sd	a0, 0x10(s0)
   13abc: 13 06 00 2c  	addi	a2, zero, 0x2c0
   13ac0: 81 45        	c.li	a1, 0x0
   13ac2: ef 00 90 5b  	jal	ra, 0x1487a <memset>
   13ac6: 80 e0        	c.sd	s0, 0x0(s1)
   13ac8: a2 84        	c.mv	s1, s0
   13aca: 95 b7        	c.j	0x13a2e <__sfp+0x20>
   13acc: ef f0 ff e3  	jal	ra, 0x1390a <global_stdio_init.part.0>
   13ad0: 89 bf        	c.j	0x13a22 <__sfp+0x14>
   13ad2: 23 b0 04 00  	sd	zero, 0x0(s1)
   13ad6: b1 47        	c.li	a5, 0xc
   13ad8: 23 20 f9 00  	sw	a5, 0x0(s2)
   13adc: 7d b7        	c.j	0x13a8a <__sfp+0x7c>

0000000000013ade <__sinit>:
   13ade: 3c 65        	c.ld	a5, 0x48(a0)
   13ae0: 91 c3        	c.beqz	a5, 0x13ae4 <__sinit+0x6>
   13ae2: 82 80        	c.jr	ra
   13ae4: 03 b7 81 23  	ld	a4, 0x238(gp)
   13ae8: d1 67        	c.lui	a5, 0x14
   13aea: 93 87 47 8c  	addi	a5, a5, -0x73c
   13aee: 3c e5        	c.sd	a5, 0x48(a0)
   13af0: 6d fb        	c.bnez	a4, 0x13ae2 <__sinit+0x4>
   13af2: 21 bd        	c.j	0x1390a <global_stdio_init.part.0>

0000000000013af4 <__sfp_lock_acquire>:
   13af4: 82 80        	c.jr	ra

0000000000013af6 <__sfp_lock_release>:
   13af6: 82 80        	c.jr	ra

0000000000013af8 <__fp_lock_all>:
   13af8: 37 96 02 00  	lui	a2, 0x29
   13afc: d1 65        	c.lui	a1, 0x14
   13afe: 13 06 06 ca  	addi	a2, a2, -0x360
   13b02: 93 85 85 8a  	addi	a1, a1, -0x758
   13b06: 01 45        	c.li	a0, 0x0
   13b08: 55 ac        	c.j	0x13dbc <_fwalk_sglue>

0000000000013b0a <__fp_unlock_all>:
   13b0a: 37 96 02 00  	lui	a2, 0x29
   13b0e: d1 65        	c.lui	a1, 0x14
   13b10: 13 06 06 ca  	addi	a2, a2, -0x360
   13b14: 93 85 65 90  	addi	a1, a1, -0x6fa
   13b18: 01 45        	c.li	a0, 0x0
   13b1a: 4d a4        	c.j	0x13dbc <_fwalk_sglue>

0000000000013b1c <_fopen_r>:
   13b1c: 39 71        	c.addi16sp	sp, -0x40
   13b1e: 32 87        	c.mv	a4, a2
   13b20: 4e ec        	c.sdsp	s3, 0x18(sp)
   13b22: 70 00        	c.addi4spn	a2, sp, 0xc
   13b24: ae 89        	c.mv	s3, a1
   13b26: ba 85        	c.mv	a1, a4
   13b28: 4a f0        	c.sdsp	s2, 0x20(sp)
   13b2a: 06 fc        	c.sdsp	ra, 0x38(sp)
   13b2c: 22 f8        	c.sdsp	s0, 0x30(sp)
   13b2e: 2a 89        	c.mv	s2, a0
   13b30: ef 40 a0 44  	jal	ra, 0x17f7a <__sflags>
   13b34: 59 c1        	c.beqz	a0, 0x13bba <_fopen_r+0x9e>
   13b36: 26 f4        	c.sdsp	s1, 0x28(sp)
   13b38: aa 84        	c.mv	s1, a0
   13b3a: 4a 85        	c.mv	a0, s2
   13b3c: ef f0 3f ed  	jal	ra, 0x13a0e <__sfp>
   13b40: 2a 84        	c.mv	s0, a0
   13b42: 3d c9        	c.beqz	a0, 0x13bb8 <_fopen_r+0x9c>
   13b44: 32 46        	c.lwsp	a2, 0xc(sp)
   13b46: 93 06 60 1b  	addi	a3, zero, 0x1b6
   13b4a: ce 85        	c.mv	a1, s3
   13b4c: 4a 85        	c.mv	a0, s2
   13b4e: ef 00 70 40  	jal	ra, 0x14754 <_open_r>
   13b52: 63 46 05 06  	blt	a0, zero, 0x13bbe <_fopen_r+0xa2>
   13b56: 93 97 04 03  	slli	a5, s1, 0x30
   13b5a: 1b 15 05 01  	slliw	a0, a0, 0x10
   13b5e: c1 93        	c.srli	a5, 0x30
   13b60: c9 8f        	c.or	a5, a0
   13b62: 1c c8        	c.sw	a5, 0x10(s0)
   13b64: d1 67        	c.lui	a5, 0x14
   13b66: 93 87 07 19  	addi	a5, a5, 0x190
   13b6a: 1c fc        	c.sd	a5, 0x38(s0)
   13b6c: d1 67        	c.lui	a5, 0x14
   13b6e: 93 87 c7 1c  	addi	a5, a5, 0x1cc
   13b72: 3c e0        	c.sd	a5, 0x40(s0)
   13b74: d1 67        	c.lui	a5, 0x14
   13b76: 93 87 e7 21  	addi	a5, a5, 0x21e
   13b7a: 3c e4        	c.sd	a5, 0x48(s0)
   13b7c: d1 67        	c.lui	a5, 0x14
   13b7e: 93 87 07 27  	addi	a5, a5, 0x270
   13b82: 00 f8        	c.sd	s0, 0x30(s0)
   13b84: 3c e8        	c.sd	a5, 0x50(s0)
   13b86: 93 f4 04 10  	andi	s1, s1, 0x100
   13b8a: 89 e8        	c.bnez	s1, 0x13b9c <_fopen_r+0x80>
   13b8c: a2 74        	c.ldsp	s1, 0x28(sp)
   13b8e: e2 70        	c.ldsp	ra, 0x38(sp)
   13b90: 22 85        	c.mv	a0, s0
   13b92: 42 74        	c.ldsp	s0, 0x30(sp)
   13b94: 02 79        	c.ldsp	s2, 0x20(sp)
   13b96: e2 69        	c.ldsp	s3, 0x18(sp)
   13b98: 21 61        	c.addi16sp	sp, 0x40
   13b9a: 82 80        	c.jr	ra
   13b9c: a2 85        	c.mv	a1, s0
   13b9e: 4a 85        	c.mv	a0, s2
   13ba0: 89 46        	c.li	a3, 0x2
   13ba2: 01 46        	c.li	a2, 0x0
   13ba4: ef 00 a0 1f  	jal	ra, 0x13d9e <_fseek_r>
   13ba8: e2 70        	c.ldsp	ra, 0x38(sp)
   13baa: 22 85        	c.mv	a0, s0
   13bac: 42 74        	c.ldsp	s0, 0x30(sp)
   13bae: a2 74        	c.ldsp	s1, 0x28(sp)
   13bb0: 02 79        	c.ldsp	s2, 0x20(sp)
   13bb2: e2 69        	c.ldsp	s3, 0x18(sp)
   13bb4: 21 61        	c.addi16sp	sp, 0x40
   13bb6: 82 80        	c.jr	ra
   13bb8: a2 74        	c.ldsp	s1, 0x28(sp)
   13bba: 01 44        	c.li	s0, 0x0
   13bbc: c9 bf        	c.j	0x13b8e <_fopen_r+0x72>
   13bbe: ef f0 7f f3  	jal	ra, 0x13af4 <__sfp_lock_acquire>
   13bc2: 23 18 04 00  	sh	zero, 0x10(s0)
   13bc6: ef f0 1f f3  	jal	ra, 0x13af6 <__sfp_lock_release>
   13bca: 01 44        	c.li	s0, 0x0
   13bcc: a2 74        	c.ldsp	s1, 0x28(sp)
   13bce: c1 b7        	c.j	0x13b8e <_fopen_r+0x72>

0000000000013bd0 <fopen>:
   13bd0: aa 87        	c.mv	a5, a0
   13bd2: 03 b5 01 20  	ld	a0, 0x200(gp)
   13bd6: 2e 86        	c.mv	a2, a1
   13bd8: be 85        	c.mv	a1, a5
   13bda: 89 b7        	c.j	0x13b1c <_fopen_r>

0000000000013bdc <_fread_r>:
   13bdc: 1d 71        	c.addi16sp	sp, -0x60
   13bde: 5a f0        	c.sdsp	s6, 0x20(sp)
   13be0: 33 8b c6 02  	mul	s6, a3, a2
   13be4: 86 ec        	c.sdsp	ra, 0x58(sp)
   13be6: 63 09 0b 0a  	beq	s6, zero, 0x13c98 <_fread_r+0xbc>
   13bea: a2 e8        	c.sdsp	s0, 0x50(sp)
   13bec: ca e0        	c.sdsp	s2, 0x40(sp)
   13bee: 52 f8        	c.sdsp	s4, 0x30(sp)
   13bf0: 56 f4        	c.sdsp	s5, 0x28(sp)
   13bf2: 5e ec        	c.sdsp	s7, 0x18(sp)
   13bf4: a6 e4        	c.sdsp	s1, 0x48(sp)
   13bf6: 4e fc        	c.sdsp	s3, 0x38(sp)
   13bf8: b2 8a        	c.mv	s5, a2
   13bfa: b6 8b        	c.mv	s7, a3
   13bfc: 2a 8a        	c.mv	s4, a0
   13bfe: 2e 89        	c.mv	s2, a1
   13c00: 3a 84        	c.mv	s0, a4
   13c02: 01 c5        	c.beqz	a0, 0x13c0a <_fread_r+0x2e>
   13c04: 3c 65        	c.ld	a5, 0x48(a0)
   13c06: 63 8b 07 16  	beq	a5, zero, 0x13d7c <_fread_r+0x1a0>
   13c0a: 83 17 04 01  	lh	a5, 0x10(s0)
   13c0e: 13 97 27 03  	slli	a4, a5, 0x32
   13c12: 63 41 07 02  	blt	a4, zero, 0x13c34 <_fread_r+0x58>
   13c16: 03 27 c4 0a  	lw	a4, 0xac(s0)
   13c1a: 09 66        	c.lui	a2, 0x2
   13c1c: f9 76        	c.lui	a3, 0xffffe
   13c1e: d1 8f        	c.or	a5, a2
   13c20: fd 16        	c.addi	a3, -0x1
   13c22: 9b 97 07 01  	slliw	a5, a5, 0x10
   13c26: 9b d7 07 41  	sraiw	a5, a5, 0x10
   13c2a: 75 8f        	c.and	a4, a3
   13c2c: 23 18 f4 00  	sh	a5, 0x10(s0)
   13c30: 23 26 e4 0a  	sw	a4, 0xac(s0)
   13c34: 04 44        	c.lw	s1, 0x8(s0)
   13c36: 26 86        	c.mv	a2, s1
   13c38: 63 c5 04 06  	blt	s1, zero, 0x13ca2 <_fread_r+0xc6>
   13c3c: 89 8b        	c.andi	a5, 0x2
   13c3e: 0c 60        	c.ld	a1, 0x0(s0)
   13c40: da 89        	c.mv	s3, s6
   13c42: a5 eb        	c.bnez	a5, 0x13cb2 <_fread_r+0xd6>
   13c44: 62 e8        	c.sdsp	s8, 0x10(sp)
   13c46: 15 a0        	c.j	0x13c6a <_fread_r+0x8e>
   13c48: ef 00 d0 4d  	jal	ra, 0x14924 <memcpy>
   13c4c: 1c 60        	c.ld	a5, 0x0(s0)
   13c4e: a2 85        	c.mv	a1, s0
   13c50: 52 85        	c.mv	a0, s4
   13c52: a6 97        	c.add	a5, s1
   13c54: 1c e0        	c.sd	a5, 0x0(s0)
   13c56: 26 99        	c.add	s2, s1
   13c58: 33 8c 99 40  	sub	s8, s3, s1
   13c5c: ef 00 00 3d  	jal	ra, 0x1402c <__srefill_r>
   13c60: 63 1a 05 0e  	bne	a0, zero, 0x13d54 <_fread_r+0x178>
   13c64: 04 44        	c.lw	s1, 0x8(s0)
   13c66: 0c 60        	c.ld	a1, 0x0(s0)
   13c68: e2 89        	c.mv	s3, s8
   13c6a: 26 86        	c.mv	a2, s1
   13c6c: 4a 85        	c.mv	a0, s2
   13c6e: e3 ed 34 fd  	bltu	s1, s3, 0x13c48 <_fread_r+0x6c>
   13c72: 4e 86        	c.mv	a2, s3
   13c74: ef 00 10 4b  	jal	ra, 0x14924 <memcpy>
   13c78: 18 44        	c.lw	a4, 0x8(s0)
   13c7a: 1c 60        	c.ld	a5, 0x0(s0)
   13c7c: 42 6c        	c.ldsp	s8, 0x10(sp)
   13c7e: 3b 07 37 41  	subw	a4, a4, s3
   13c82: ce 97        	c.add	a5, s3
   13c84: 18 c4        	c.sw	a4, 0x8(s0)
   13c86: 1c e0        	c.sd	a5, 0x0(s0)
   13c88: 5e 8b        	c.mv	s6, s7
   13c8a: 46 64        	c.ldsp	s0, 0x50(sp)
   13c8c: a6 64        	c.ldsp	s1, 0x48(sp)
   13c8e: 06 69        	c.ldsp	s2, 0x40(sp)
   13c90: e2 79        	c.ldsp	s3, 0x38(sp)
   13c92: 42 7a        	c.ldsp	s4, 0x30(sp)
   13c94: a2 7a        	c.ldsp	s5, 0x28(sp)
   13c96: e2 6b        	c.ldsp	s7, 0x18(sp)
   13c98: e6 60        	c.ldsp	ra, 0x58(sp)
   13c9a: 5a 85        	c.mv	a0, s6
   13c9c: 02 7b        	c.ldsp	s6, 0x20(sp)
   13c9e: 25 61        	c.addi16sp	sp, 0x60
   13ca0: 82 80        	c.jr	ra
   13ca2: 23 24 04 00  	sw	zero, 0x8(s0)
   13ca6: 89 8b        	c.andi	a5, 0x2
   13ca8: 0c 60        	c.ld	a1, 0x0(s0)
   13caa: 01 46        	c.li	a2, 0x0
   13cac: 81 44        	c.li	s1, 0x0
   13cae: da 89        	c.mv	s3, s6
   13cb0: d1 db        	c.beqz	a5, 0x13c44 <_fread_r+0x68>
   13cb2: b2 84        	c.mv	s1, a2
   13cb4: 63 62 cb 0c  	bltu	s6, a2, 0x13d78 <_fread_r+0x19c>
   13cb8: 26 86        	c.mv	a2, s1
   13cba: 4a 85        	c.mv	a0, s2
   13cbc: ef 00 90 46  	jal	ra, 0x14924 <memcpy>
   13cc0: 18 60        	c.ld	a4, 0x0(s0)
   13cc2: 1c 44        	c.lw	a5, 0x8(s0)
   13cc4: 2c 6c        	c.ld	a1, 0x58(s0)
   13cc6: 26 97        	c.add	a4, s1
   13cc8: 85 9f        	c.subw	a5, s1
   13cca: 18 e0        	c.sd	a4, 0x0(s0)
   13ccc: 1c c4        	c.sw	a5, 0x8(s0)
   13cce: b3 09 9b 40  	sub	s3, s6, s1
   13cd2: c5 c9        	c.beqz	a1, 0x13d82 <_fread_r+0x1a6>
   13cd4: e3 8a 09 fa  	beq	s3, zero, 0x13c88 <_fread_r+0xac>
   13cd8: 62 e8        	c.sdsp	s8, 0x10(sp)
   13cda: 66 e4        	c.sdsp	s9, 0x8(sp)
   13cdc: 93 07 44 07  	addi	a5, s0, 0x74
   13ce0: 63 85 f5 00  	beq	a1, a5, 0x13cea <_fread_r+0x10e>
   13ce4: 52 85        	c.mv	a0, s4
   13ce6: ef 00 50 7d  	jal	ra, 0x14cba <_free_r>
   13cea: 23 3c 04 04  	sd	zero, 0x58(s0)
   13cee: ca 94        	c.add	s1, s2
   13cf0: 11 a0        	c.j	0x13cf4 <_fread_r+0x118>
   13cf2: ba 89        	c.mv	s3, a4
   13cf4: a2 85        	c.mv	a1, s0
   13cf6: 52 85        	c.mv	a0, s4
   13cf8: 63 88 09 08  	beq	s3, zero, 0x13d88 <_fread_r+0x1ac>
   13cfc: 83 3c 84 01  	ld	s9, 0x18(s0)
   13d00: 03 39 04 00  	ld	s2, 0x0(s0)
   13d04: 03 2c 04 02  	lw	s8, 0x20(s0)
   13d08: 04 ec        	c.sd	s1, 0x18(s0)
   13d0a: 04 e0        	c.sd	s1, 0x0(s0)
   13d0c: 23 20 34 03  	sw	s3, 0x20(s0)
   13d10: ef 00 c0 31  	jal	ra, 0x1402c <__srefill_r>
   13d14: 1c 44        	c.lw	a5, 0x8(s0)
   13d16: 23 3c 94 01  	sd	s9, 0x18(s0)
   13d1a: 23 20 84 03  	sw	s8, 0x20(s0)
   13d1e: 23 30 24 01  	sd	s2, 0x0(s0)
   13d22: 23 24 04 00  	sw	zero, 0x8(s0)
   13d26: 33 87 f9 40  	sub	a4, s3, a5
   13d2a: be 94        	c.add	s1, a5
   13d2c: 79 d1        	c.beqz	a0, 0x13cf2 <_fread_r+0x116>
   13d2e: da 97        	c.add	a5, s6
   13d30: b3 87 37 41  	sub	a5, a5, s3
   13d34: 33 db 57 03  	divu	s6, a5, s5
   13d38: 46 64        	c.ldsp	s0, 0x50(sp)
   13d3a: e6 60        	c.ldsp	ra, 0x58(sp)
   13d3c: a6 64        	c.ldsp	s1, 0x48(sp)
   13d3e: 06 69        	c.ldsp	s2, 0x40(sp)
   13d40: e2 79        	c.ldsp	s3, 0x38(sp)
   13d42: 42 7a        	c.ldsp	s4, 0x30(sp)
   13d44: a2 7a        	c.ldsp	s5, 0x28(sp)
   13d46: e2 6b        	c.ldsp	s7, 0x18(sp)
   13d48: 42 6c        	c.ldsp	s8, 0x10(sp)
   13d4a: a2 6c        	c.ldsp	s9, 0x8(sp)
   13d4c: 5a 85        	c.mv	a0, s6
   13d4e: 02 7b        	c.ldsp	s6, 0x20(sp)
   13d50: 25 61        	c.addi16sp	sp, 0x60
   13d52: 82 80        	c.jr	ra
   13d54: da 94        	c.add	s1, s6
   13d56: b3 84 34 41  	sub	s1, s1, s3
   13d5a: 33 db 54 03  	divu	s6, s1, s5
   13d5e: 46 64        	c.ldsp	s0, 0x50(sp)
   13d60: e6 60        	c.ldsp	ra, 0x58(sp)
   13d62: a6 64        	c.ldsp	s1, 0x48(sp)
   13d64: 06 69        	c.ldsp	s2, 0x40(sp)
   13d66: e2 79        	c.ldsp	s3, 0x38(sp)
   13d68: 42 7a        	c.ldsp	s4, 0x30(sp)
   13d6a: a2 7a        	c.ldsp	s5, 0x28(sp)
   13d6c: e2 6b        	c.ldsp	s7, 0x18(sp)
   13d6e: 42 6c        	c.ldsp	s8, 0x10(sp)
   13d70: 5a 85        	c.mv	a0, s6
   13d72: 02 7b        	c.ldsp	s6, 0x20(sp)
   13d74: 25 61        	c.addi16sp	sp, 0x60
   13d76: 82 80        	c.jr	ra
   13d78: da 84        	c.mv	s1, s6
   13d7a: 3d bf        	c.j	0x13cb8 <_fread_r+0xdc>
   13d7c: ef f0 3f d6  	jal	ra, 0x13ade <__sinit>
   13d80: 69 b5        	c.j	0x13c0a <_fread_r+0x2e>
   13d82: 62 e8        	c.sdsp	s8, 0x10(sp)
   13d84: 66 e4        	c.sdsp	s9, 0x8(sp)
   13d86: a5 b7        	c.j	0x13cee <_fread_r+0x112>
   13d88: 42 6c        	c.ldsp	s8, 0x10(sp)
   13d8a: a2 6c        	c.ldsp	s9, 0x8(sp)
   13d8c: f5 bd        	c.j	0x13c88 <_fread_r+0xac>

0000000000013d8e <fread>:
   13d8e: aa 87        	c.mv	a5, a0
   13d90: 03 b5 01 20  	ld	a0, 0x200(gp)
   13d94: 36 87        	c.mv	a4, a3
   13d96: b2 86        	c.mv	a3, a2
   13d98: 2e 86        	c.mv	a2, a1
   13d9a: be 85        	c.mv	a1, a5
   13d9c: 81 b5        	c.j	0x13bdc <_fread_r>

0000000000013d9e <_fseek_r>:
   13d9e: e1 a9        	c.j	0x14276 <_fseeko_r>

0000000000013da0 <fseek>:
   13da0: aa 87        	c.mv	a5, a0
   13da2: 03 b5 01 20  	ld	a0, 0x200(gp)
   13da6: b2 86        	c.mv	a3, a2
   13da8: 2e 86        	c.mv	a2, a1
   13daa: be 85        	c.mv	a1, a5
   13dac: e9 a1        	c.j	0x14276 <_fseeko_r>

0000000000013dae <_ftell_r>:
   13dae: 6f 00 c0 7d  	jal	zero, 0x1458a <_ftello_r>

0000000000013db2 <ftell>:
   13db2: aa 85        	c.mv	a1, a0
   13db4: 03 b5 01 20  	ld	a0, 0x200(gp)
   13db8: 6f 00 20 7d  	jal	zero, 0x1458a <_ftello_r>

0000000000013dbc <_fwalk_sglue>:
   13dbc: 5d 71        	c.addi16sp	sp, -0x50
   13dbe: 4a f8        	c.sdsp	s2, 0x30(sp)
   13dc0: 4e f4        	c.sdsp	s3, 0x28(sp)
   13dc2: 52 f0        	c.sdsp	s4, 0x20(sp)
   13dc4: 56 ec        	c.sdsp	s5, 0x18(sp)
   13dc6: 5a e8        	c.sdsp	s6, 0x10(sp)
   13dc8: 5e e4        	c.sdsp	s7, 0x8(sp)
   13dca: 62 e0        	c.sdsp	s8, 0x0(sp)
   13dcc: 86 e4        	c.sdsp	ra, 0x48(sp)
   13dce: a2 e0        	c.sdsp	s0, 0x40(sp)
   13dd0: 26 fc        	c.sdsp	s1, 0x38(sp)
   13dd2: 2a 8a        	c.mv	s4, a0
   13dd4: 2e 8b        	c.mv	s6, a1
   13dd6: b2 89        	c.mv	s3, a2
   13dd8: 01 49        	c.li	s2, 0x0
   13dda: 93 0b 00 0b  	addi	s7, zero, 0xb0
   13dde: 05 4c        	c.li	s8, 0x1
   13de0: fd 5a        	c.li	s5, -0x1
   13de2: 83 a4 89 00  	lw	s1, 0x8(s3)
   13de6: 03 b4 09 01  	ld	s0, 0x10(s3)
   13dea: 63 59 90 02  	bge	zero, s1, 0x13e1c <_fwalk_sglue+0x60>
   13dee: 82 14        	c.slli	s1, 0x20
   13df0: 81 90        	c.srli	s1, 0x20
   13df2: b3 84 74 03  	mul	s1, s1, s7
   13df6: a2 94        	c.add	s1, s0
   13df8: 83 57 04 01  	lhu	a5, 0x10(s0)
   13dfc: 63 7c fc 00  	bgeu	s8, a5, 0x13e14 <_fwalk_sglue+0x58>
   13e00: 83 17 24 01  	lh	a5, 0x12(s0)
   13e04: a2 85        	c.mv	a1, s0
   13e06: 52 85        	c.mv	a0, s4
   13e08: 63 86 57 01  	beq	a5, s5, 0x13e14 <_fwalk_sglue+0x58>
   13e0c: 02 9b        	c.jalr	s6
   13e0e: 33 69 25 01  	or	s2, a0, s2
   13e12: 01 29        	c.addiw	s2, 0x0
   13e14: 13 04 04 0b  	addi	s0, s0, 0xb0
   13e18: e3 10 94 fe  	bne	s0, s1, 0x13df8 <_fwalk_sglue+0x3c>
   13e1c: 83 b9 09 00  	ld	s3, 0x0(s3)
   13e20: e3 91 09 fc  	bne	s3, zero, 0x13de2 <_fwalk_sglue+0x26>
   13e24: a6 60        	c.ldsp	ra, 0x48(sp)
   13e26: 06 64        	c.ldsp	s0, 0x40(sp)
   13e28: e2 74        	c.ldsp	s1, 0x38(sp)
   13e2a: a2 79        	c.ldsp	s3, 0x28(sp)
   13e2c: 02 7a        	c.ldsp	s4, 0x20(sp)
   13e2e: e2 6a        	c.ldsp	s5, 0x18(sp)
   13e30: 42 6b        	c.ldsp	s6, 0x10(sp)
   13e32: a2 6b        	c.ldsp	s7, 0x8(sp)
   13e34: 02 6c        	c.ldsp	s8, 0x0(sp)
   13e36: 4a 85        	c.mv	a0, s2
   13e38: 42 79        	c.ldsp	s2, 0x30(sp)
   13e3a: 61 61        	c.addi16sp	sp, 0x50
   13e3c: 82 80        	c.jr	ra

0000000000013e3e <_fwrite_r>:
   13e3e: 59 71        	c.addi16sp	sp, -0x70
   13e40: ca e8        	c.sdsp	s2, 0x50(sp)
   13e42: 33 89 c6 02  	mul	s2, a3, a2
   13e46: 3c 08        	c.addi4spn	a5, sp, 0x18
   13e48: 3e f4        	c.sdsp	a5, 0x28(sp)
   13e4a: 85 47        	c.li	a5, 0x1
   13e4c: a2 f0        	c.sdsp	s0, 0x60(sp)
   13e4e: a6 ec        	c.sdsp	s1, 0x58(sp)
   13e50: ce e4        	c.sdsp	s3, 0x48(sp)
   13e52: 2e ec        	c.sdsp	a1, 0x18(sp)
   13e54: 86 f4        	c.sdsp	ra, 0x68(sp)
   13e56: 3e d8        	c.swsp	a5, 0x30(sp)
   13e58: 4a f0        	c.sdsp	s2, 0x20(sp)
   13e5a: 4a fc        	c.sdsp	s2, 0x38(sp)
   13e5c: b2 89        	c.mv	s3, a2
   13e5e: 36 84        	c.mv	s0, a3
   13e60: aa 84        	c.mv	s1, a0
   13e62: ba 85        	c.mv	a1, a4
   13e64: 19 c1        	c.beqz	a0, 0x13e6a <_fwrite_r+0x2c>
   13e66: 3c 65        	c.ld	a5, 0x48(a0)
   13e68: a1 c7        	c.beqz	a5, 0x13eb0 <_fwrite_r+0x72>
   13e6a: 83 97 05 01  	lh	a5, 0x10(a1)
   13e6e: 13 97 27 03  	slli	a4, a5, 0x32
   13e72: 63 4d 07 00  	blt	a4, zero, 0x13e8c <_fwrite_r+0x4e>
   13e76: 03 a7 c5 0a  	lw	a4, 0xac(a1)
   13e7a: f9 76        	c.lui	a3, 0xffffe
   13e7c: fd 16        	c.addi	a3, -0x1
   13e7e: 09 66        	c.lui	a2, 0x2
   13e80: d1 8f        	c.or	a5, a2
   13e82: 75 8f        	c.and	a4, a3
   13e84: 23 98 f5 00  	sh	a5, 0x10(a1)
   13e88: 23 a6 e5 0a  	sw	a4, 0xac(a1)
   13e8c: 30 10        	c.addi4spn	a2, sp, 0x28
   13e8e: 26 85        	c.mv	a0, s1
   13e90: ef 40 a0 16  	jal	ra, 0x17ffa <__sfvwrite_r>
   13e94: 11 c5        	c.beqz	a0, 0x13ea0 <_fwrite_r+0x62>
   13e96: e2 77        	c.ldsp	a5, 0x38(sp)
   13e98: 33 09 f9 40  	sub	s2, s2, a5
   13e9c: 33 54 39 03  	divu	s0, s2, s3
   13ea0: a6 70        	c.ldsp	ra, 0x68(sp)
   13ea2: 22 85        	c.mv	a0, s0
   13ea4: 06 74        	c.ldsp	s0, 0x60(sp)
   13ea6: e6 64        	c.ldsp	s1, 0x58(sp)
   13ea8: 46 69        	c.ldsp	s2, 0x50(sp)
   13eaa: a6 69        	c.ldsp	s3, 0x48(sp)
   13eac: 65 61        	c.addi16sp	sp, 0x70
   13eae: 82 80        	c.jr	ra
   13eb0: 3a e4        	c.sdsp	a4, 0x8(sp)
   13eb2: ef f0 df c2  	jal	ra, 0x13ade <__sinit>
   13eb6: a2 65        	c.ldsp	a1, 0x8(sp)
   13eb8: 4d bf        	c.j	0x13e6a <_fwrite_r+0x2c>

0000000000013eba <fwrite>:
   13eba: 59 71        	c.addi16sp	sp, -0x70
   13ebc: a6 ec        	c.sdsp	s1, 0x58(sp)
   13ebe: b3 84 c5 02  	mul	s1, a1, a2
   13ec2: ce e4        	c.sdsp	s3, 0x48(sp)
   13ec4: 83 b9 01 20  	ld	s3, 0x200(gp)
   13ec8: 3c 08        	c.addi4spn	a5, sp, 0x18
   13eca: 3e f4        	c.sdsp	a5, 0x28(sp)
   13ecc: 85 47        	c.li	a5, 0x1
   13ece: a2 f0        	c.sdsp	s0, 0x60(sp)
   13ed0: ca e8        	c.sdsp	s2, 0x50(sp)
   13ed2: 86 f4        	c.sdsp	ra, 0x68(sp)
   13ed4: 2a ec        	c.sdsp	a0, 0x18(sp)
   13ed6: 3e d8        	c.swsp	a5, 0x30(sp)
   13ed8: 26 f0        	c.sdsp	s1, 0x20(sp)
   13eda: 26 fc        	c.sdsp	s1, 0x38(sp)
   13edc: 2e 89        	c.mv	s2, a1
   13ede: 32 84        	c.mv	s0, a2
   13ee0: b6 85        	c.mv	a1, a3
   13ee2: 63 85 09 00  	beq	s3, zero, 0x13eec <fwrite+0x32>
   13ee6: 83 b7 89 04  	ld	a5, 0x48(s3)
   13eea: b9 c3        	c.beqz	a5, 0x13f30 <fwrite+0x76>
   13eec: 83 97 05 01  	lh	a5, 0x10(a1)
   13ef0: 13 97 27 03  	slli	a4, a5, 0x32
   13ef4: 63 4d 07 00  	blt	a4, zero, 0x13f0e <fwrite+0x54>
   13ef8: 03 a7 c5 0a  	lw	a4, 0xac(a1)
   13efc: f9 76        	c.lui	a3, 0xffffe
   13efe: fd 16        	c.addi	a3, -0x1
   13f00: 09 66        	c.lui	a2, 0x2
   13f02: d1 8f        	c.or	a5, a2
   13f04: 75 8f        	c.and	a4, a3
   13f06: 23 98 f5 00  	sh	a5, 0x10(a1)
   13f0a: 23 a6 e5 0a  	sw	a4, 0xac(a1)
   13f0e: 30 10        	c.addi4spn	a2, sp, 0x28
   13f10: 4e 85        	c.mv	a0, s3
   13f12: ef 40 80 0e  	jal	ra, 0x17ffa <__sfvwrite_r>
   13f16: 09 c5        	c.beqz	a0, 0x13f20 <fwrite+0x66>
   13f18: e2 77        	c.ldsp	a5, 0x38(sp)
   13f1a: 9d 8c        	c.sub	s1, a5
   13f1c: 33 d4 24 03  	divu	s0, s1, s2
   13f20: a6 70        	c.ldsp	ra, 0x68(sp)
   13f22: 22 85        	c.mv	a0, s0
   13f24: 06 74        	c.ldsp	s0, 0x60(sp)
   13f26: e6 64        	c.ldsp	s1, 0x58(sp)
   13f28: 46 69        	c.ldsp	s2, 0x50(sp)
   13f2a: a6 69        	c.ldsp	s3, 0x48(sp)
   13f2c: 65 61        	c.addi16sp	sp, 0x70
   13f2e: 82 80        	c.jr	ra
   13f30: 4e 85        	c.mv	a0, s3
   13f32: 36 e4        	c.sdsp	a3, 0x8(sp)
   13f34: ef f0 bf ba  	jal	ra, 0x13ade <__sinit>
   13f38: a2 65        	c.ldsp	a1, 0x8(sp)
   13f3a: 4d bf        	c.j	0x13eec <fwrite+0x32>

0000000000013f3c <_printf_r>:
   13f3c: 5d 71        	c.addi16sp	sp, -0x50
   13f3e: 32 f0        	c.sdsp	a2, 0x20(sp)
   13f40: 36 f4        	c.sdsp	a3, 0x28(sp)
   13f42: 3a f8        	c.sdsp	a4, 0x30(sp)
   13f44: 3e fc        	c.sdsp	a5, 0x38(sp)
   13f46: c2 e0        	c.sdsp	a6, 0x40(sp)
   13f48: c6 e4        	c.sdsp	a7, 0x48(sp)
   13f4a: 2e 86        	c.mv	a2, a1
   13f4c: 0c 69        	c.ld	a1, 0x10(a0)
   13f4e: 14 10        	c.addi4spn	a3, sp, 0x20
   13f50: 06 ec        	c.sdsp	ra, 0x18(sp)
   13f52: 36 e4        	c.sdsp	a3, 0x8(sp)
   13f54: ef 10 c0 5b  	jal	ra, 0x15510 <_vfprintf_r>
   13f58: e2 60        	c.ldsp	ra, 0x18(sp)
   13f5a: 61 61        	c.addi16sp	sp, 0x50
   13f5c: 82 80        	c.jr	ra

0000000000013f5e <printf>:
   13f5e: 03 b3 01 20  	ld	t1, 0x200(gp)
   13f62: 1d 71        	c.addi16sp	sp, -0x60
   13f64: 32 f8        	c.sdsp	a2, 0x30(sp)
   13f66: 36 fc        	c.sdsp	a3, 0x38(sp)
   13f68: 2e f4        	c.sdsp	a1, 0x28(sp)
   13f6a: ba e0        	c.sdsp	a4, 0x40(sp)
   13f6c: be e4        	c.sdsp	a5, 0x48(sp)
   13f6e: c2 e8        	c.sdsp	a6, 0x50(sp)
   13f70: c6 ec        	c.sdsp	a7, 0x58(sp)
   13f72: 83 35 03 01  	ld	a1, 0x10(t1)
   13f76: 34 10        	c.addi4spn	a3, sp, 0x28
   13f78: 2a 86        	c.mv	a2, a0
   13f7a: 1a 85        	c.mv	a0, t1
   13f7c: 06 ec        	c.sdsp	ra, 0x18(sp)
   13f7e: 36 e4        	c.sdsp	a3, 0x8(sp)
   13f80: ef 10 00 59  	jal	ra, 0x15510 <_vfprintf_r>
   13f84: e2 60        	c.ldsp	ra, 0x18(sp)
   13f86: 25 61        	c.addi16sp	sp, 0x60
   13f88: 82 80        	c.jr	ra

0000000000013f8a <_puts_r>:
   13f8a: 59 71        	c.addi16sp	sp, -0x70
   13f8c: a2 f0        	c.sdsp	s0, 0x60(sp)
   13f8e: 2a 84        	c.mv	s0, a0
   13f90: 2e 85        	c.mv	a0, a1
   13f92: a6 ec        	c.sdsp	s1, 0x58(sp)
   13f94: 86 f4        	c.sdsp	ra, 0x68(sp)
   13f96: ae 84        	c.mv	s1, a1
   13f98: ef 00 30 2d  	jal	ra, 0x14a6a <strlen>
   13f9c: b7 77 02 00  	lui	a5, 0x27
   13fa0: 93 87 07 38  	addi	a5, a5, 0x380
   13fa4: be e0        	c.sdsp	a5, 0x40(sp)
   13fa6: 85 47        	c.li	a5, 0x1
   13fa8: be e4        	c.sdsp	a5, 0x48(sp)
   13faa: 38 64        	c.ld	a4, 0x48(s0)
   13fac: 1c 18        	c.addi4spn	a5, sp, 0x30
   13fae: 93 06 15 00  	addi	a3, a0, 0x1
   13fb2: 3e ec        	c.sdsp	a5, 0x18(sp)
   13fb4: 89 47        	c.li	a5, 0x2
   13fb6: 26 f8        	c.sdsp	s1, 0x30(sp)
   13fb8: 2a fc        	c.sdsp	a0, 0x38(sp)
   13fba: 36 f4        	c.sdsp	a3, 0x28(sp)
   13fbc: 3e d0        	c.swsp	a5, 0x20(sp)
   13fbe: 0c 68        	c.ld	a1, 0x10(s0)
   13fc0: 15 cf        	c.beqz	a4, 0x13ffc <_puts_r+0x72>
   13fc2: 83 97 05 01  	lh	a5, 0x10(a1)
   13fc6: 13 97 27 03  	slli	a4, a5, 0x32
   13fca: 63 4d 07 00  	blt	a4, zero, 0x13fe4 <_puts_r+0x5a>
   13fce: 03 a7 c5 0a  	lw	a4, 0xac(a1)
   13fd2: f9 76        	c.lui	a3, 0xffffe
   13fd4: fd 16        	c.addi	a3, -0x1
   13fd6: 09 66        	c.lui	a2, 0x2
   13fd8: d1 8f        	c.or	a5, a2
   13fda: 75 8f        	c.and	a4, a3
   13fdc: 23 98 f5 00  	sh	a5, 0x10(a1)
   13fe0: 23 a6 e5 0a  	sw	a4, 0xac(a1)
   13fe4: 30 08        	c.addi4spn	a2, sp, 0x18
   13fe6: 22 85        	c.mv	a0, s0
   13fe8: ef 40 20 01  	jal	ra, 0x17ffa <__sfvwrite_r>
   13fec: a9 47        	c.li	a5, 0xa
   13fee: 09 ed        	c.bnez	a0, 0x14008 <_puts_r+0x7e>
   13ff0: a6 70        	c.ldsp	ra, 0x68(sp)
   13ff2: 06 74        	c.ldsp	s0, 0x60(sp)
   13ff4: e6 64        	c.ldsp	s1, 0x58(sp)
   13ff6: 3e 85        	c.mv	a0, a5
   13ff8: 65 61        	c.addi16sp	sp, 0x70
   13ffa: 82 80        	c.jr	ra
   13ffc: 22 85        	c.mv	a0, s0
   13ffe: 2e e4        	c.sdsp	a1, 0x8(sp)
   14000: ef f0 ff ad  	jal	ra, 0x13ade <__sinit>
   14004: a2 65        	c.ldsp	a1, 0x8(sp)
   14006: 75 bf        	c.j	0x13fc2 <_puts_r+0x38>
   14008: fd 57        	c.li	a5, -0x1
   1400a: dd b7        	c.j	0x13ff0 <_puts_r+0x66>

000000000001400c <puts>:
   1400c: aa 85        	c.mv	a1, a0
   1400e: 03 b5 01 20  	ld	a0, 0x200(gp)
   14012: a5 bf        	c.j	0x13f8a <_puts_r>

0000000000014014 <lflush>:
   14014: 83 d7 05 01  	lhu	a5, 0x10(a1)
   14018: 25 47        	c.li	a4, 0x9
   1401a: a5 8b        	c.andi	a5, 0x9
   1401c: 63 84 e7 00  	beq	a5, a4, 0x14024 <lflush+0x10>
   14020: 01 45        	c.li	a0, 0x0
   14022: 82 80        	c.jr	ra
   14024: 03 b5 01 20  	ld	a0, 0x200(gp)
   14028: 6f f0 4f fb  	jal	zero, 0x137dc <_fflush_r>

000000000001402c <__srefill_r>:
   1402c: 01 11        	c.addi	sp, -0x20
   1402e: 22 e8        	c.sdsp	s0, 0x10(sp)
   14030: 26 e4        	c.sdsp	s1, 0x8(sp)
   14032: 06 ec        	c.sdsp	ra, 0x18(sp)
   14034: aa 84        	c.mv	s1, a0
   14036: 2e 84        	c.mv	s0, a1
   14038: 01 c5        	c.beqz	a0, 0x14040 <__srefill_r+0x14>
   1403a: 3c 65        	c.ld	a5, 0x48(a0)
   1403c: 63 8c 07 10  	beq	a5, zero, 0x14154 <__srefill_r+0x128>
   14040: 83 17 04 01  	lh	a5, 0x10(s0)
   14044: 13 97 27 03  	slli	a4, a5, 0x32
   14048: 63 41 07 02  	blt	a4, zero, 0x1406a <__srefill_r+0x3e>
   1404c: 03 27 c4 0a  	lw	a4, 0xac(s0)
   14050: 09 66        	c.lui	a2, 0x2
   14052: f9 76        	c.lui	a3, 0xffffe
   14054: d1 8f        	c.or	a5, a2
   14056: fd 16        	c.addi	a3, -0x1
   14058: 9b 97 07 01  	slliw	a5, a5, 0x10
   1405c: 9b d7 07 41  	sraiw	a5, a5, 0x10
   14060: 75 8f        	c.and	a4, a3
   14062: 23 18 f4 00  	sh	a5, 0x10(s0)
   14066: 23 26 e4 0a  	sw	a4, 0xac(s0)
   1406a: 23 24 04 00  	sw	zero, 0x8(s0)
   1406e: 13 f7 07 02  	andi	a4, a5, 0x20
   14072: 63 1c 07 0e  	bne	a4, zero, 0x1416a <__srefill_r+0x13e>
   14076: 13 f7 47 00  	andi	a4, a5, 0x4
   1407a: 31 e7        	c.bnez	a4, 0x140c6 <__srefill_r+0x9a>
   1407c: 13 f7 07 01  	andi	a4, a5, 0x10
   14080: 63 07 07 0e  	beq	a4, zero, 0x1416e <__srefill_r+0x142>
   14084: 13 f7 87 00  	andi	a4, a5, 0x8
   14088: 45 eb        	c.bnez	a4, 0x14138 <__srefill_r+0x10c>
   1408a: 4a e0        	c.sdsp	s2, 0x0(sp)
   1408c: 93 e7 47 00  	ori	a5, a5, 0x4
   14090: 23 18 f4 00  	sh	a5, 0x10(s0)
   14094: 1c 6c        	c.ld	a5, 0x18(s0)
   14096: a9 cb        	c.beqz	a5, 0x140e8 <__srefill_r+0xbc>
   14098: 03 19 04 01  	lh	s2, 0x10(s0)
   1409c: 93 77 39 00  	andi	a5, s2, 0x3
   140a0: a9 ef        	c.bnez	a5, 0x140fa <__srefill_r+0xce>
   140a2: 10 6c        	c.ld	a2, 0x18(s0)
   140a4: 1c 7c        	c.ld	a5, 0x38(s0)
   140a6: 14 50        	c.lw	a3, 0x20(s0)
   140a8: 0c 78        	c.ld	a1, 0x30(s0)
   140aa: 10 e0        	c.sd	a2, 0x0(s0)
   140ac: 26 85        	c.mv	a0, s1
   140ae: 82 97        	c.jalr	a5
   140b0: 01 25        	c.addiw	a0, 0x0
   140b2: 08 c4        	c.sw	a0, 0x8(s0)
   140b4: 63 53 a0 0a  	bge	zero, a0, 0x1415a <__srefill_r+0x12e>
   140b8: 02 69        	c.ldsp	s2, 0x0(sp)
   140ba: 01 45        	c.li	a0, 0x0
   140bc: e2 60        	c.ldsp	ra, 0x18(sp)
   140be: 42 64        	c.ldsp	s0, 0x10(sp)
   140c0: a2 64        	c.ldsp	s1, 0x8(sp)
   140c2: 05 61        	c.addi16sp	sp, 0x20
   140c4: 82 80        	c.jr	ra
   140c6: 2c 6c        	c.ld	a1, 0x58(s0)
   140c8: 89 cd        	c.beqz	a1, 0x140e2 <__srefill_r+0xb6>
   140ca: 93 07 44 07  	addi	a5, s0, 0x74
   140ce: 63 85 f5 00  	beq	a1, a5, 0x140d8 <__srefill_r+0xac>
   140d2: 26 85        	c.mv	a0, s1
   140d4: ef 00 70 3e  	jal	ra, 0x14cba <_free_r>
   140d8: 3c 58        	c.lw	a5, 0x70(s0)
   140da: 23 3c 04 04  	sd	zero, 0x58(s0)
   140de: 1c c4        	c.sw	a5, 0x8(s0)
   140e0: a9 eb        	c.bnez	a5, 0x14132 <__srefill_r+0x106>
   140e2: 1c 6c        	c.ld	a5, 0x18(s0)
   140e4: 4a e0        	c.sdsp	s2, 0x0(sp)
   140e6: cd fb        	c.bnez	a5, 0x14098 <__srefill_r+0x6c>
   140e8: a2 85        	c.mv	a1, s0
   140ea: 26 85        	c.mv	a0, s1
   140ec: ef 40 00 27  	jal	ra, 0x1835c <__smakebuf_r>
   140f0: 03 19 04 01  	lh	s2, 0x10(s0)
   140f4: 93 77 39 00  	andi	a5, s2, 0x3
   140f8: cd d7        	c.beqz	a5, 0x140a2 <__srefill_r+0x76>
   140fa: 85 47        	c.li	a5, 0x1
   140fc: 37 96 02 00  	lui	a2, 0x29
   14100: d1 65        	c.lui	a1, 0x14
   14102: 37 95 02 00  	lui	a0, 0x29
   14106: 23 18 f4 00  	sh	a5, 0x10(s0)
   1410a: 13 06 06 ca  	addi	a2, a2, -0x360
   1410e: 93 85 45 01  	addi	a1, a1, 0x14
   14112: 13 05 85 cb  	addi	a0, a0, -0x348
   14116: ef f0 7f ca  	jal	ra, 0x13dbc <_fwalk_sglue>
   1411a: a5 47        	c.li	a5, 0x9
   1411c: 23 18 24 01  	sh	s2, 0x10(s0)
   14120: 13 79 99 00  	andi	s2, s2, 0x9
   14124: e3 1f f9 f6  	bne	s2, a5, 0x140a2 <__srefill_r+0x76>
   14128: a2 85        	c.mv	a1, s0
   1412a: 26 85        	c.mv	a0, s1
   1412c: ef f0 8f d1  	jal	ra, 0x13644 <__sflush_r>
   14130: 8d bf        	c.j	0x140a2 <__srefill_r+0x76>
   14132: 3c 74        	c.ld	a5, 0x68(s0)
   14134: 1c e0        	c.sd	a5, 0x0(s0)
   14136: 51 b7        	c.j	0x140ba <__srefill_r+0x8e>
   14138: a2 85        	c.mv	a1, s0
   1413a: 26 85        	c.mv	a0, s1
   1413c: ef f0 0f ea  	jal	ra, 0x137dc <_fflush_r>
   14140: 0d e5        	c.bnez	a0, 0x1416a <__srefill_r+0x13e>
   14142: 83 17 04 01  	lh	a5, 0x10(s0)
   14146: 4a e0        	c.sdsp	s2, 0x0(sp)
   14148: 23 26 04 00  	sw	zero, 0xc(s0)
   1414c: 23 24 04 02  	sw	zero, 0x28(s0)
   14150: dd 9b        	c.andi	a5, -0x9
   14152: 2d bf        	c.j	0x1408c <__srefill_r+0x60>
   14154: ef f0 bf 98  	jal	ra, 0x13ade <__sinit>
   14158: e5 b5        	c.j	0x14040 <__srefill_r+0x14>
   1415a: 83 17 04 01  	lh	a5, 0x10(s0)
   1415e: 05 e1        	c.bnez	a0, 0x1417e <__srefill_r+0x152>
   14160: 02 69        	c.ldsp	s2, 0x0(sp)
   14162: 93 e7 07 02  	ori	a5, a5, 0x20
   14166: 23 18 f4 00  	sh	a5, 0x10(s0)
   1416a: 7d 55        	c.li	a0, -0x1
   1416c: 81 bf        	c.j	0x140bc <__srefill_r+0x90>
   1416e: 25 47        	c.li	a4, 0x9
   14170: 98 c0        	c.sw	a4, 0x0(s1)
   14172: 93 e7 07 04  	ori	a5, a5, 0x40
   14176: 23 18 f4 00  	sh	a5, 0x10(s0)
   1417a: 7d 55        	c.li	a0, -0x1
   1417c: 81 b7        	c.j	0x140bc <__srefill_r+0x90>
   1417e: 93 e7 07 04  	ori	a5, a5, 0x40
   14182: 02 69        	c.ldsp	s2, 0x0(sp)
   14184: 23 24 04 00  	sw	zero, 0x8(s0)
   14188: 23 18 f4 00  	sh	a5, 0x10(s0)
   1418c: 7d 55        	c.li	a0, -0x1
   1418e: 3d b7        	c.j	0x140bc <__srefill_r+0x90>

0000000000014190 <__sread>:
   14190: 41 11        	c.addi	sp, -0x10
   14192: 22 e0        	c.sdsp	s0, 0x0(sp)
   14194: 2e 84        	c.mv	s0, a1
   14196: 83 95 25 01  	lh	a1, 0x12(a1)
   1419a: 06 e4        	c.sdsp	ra, 0x8(sp)
   1419c: ef 00 40 5f  	jal	ra, 0x14790 <_read_r>
   141a0: 63 49 05 00  	blt	a0, zero, 0x141b2 <__sread+0x22>
   141a4: 5c 68        	c.ld	a5, 0x90(s0)
   141a6: a2 60        	c.ldsp	ra, 0x8(sp)
   141a8: aa 97        	c.add	a5, a0
   141aa: 5c e8        	c.sd	a5, 0x90(s0)
   141ac: 02 64        	c.ldsp	s0, 0x0(sp)
   141ae: 41 01        	c.addi	sp, 0x10
   141b0: 82 80        	c.jr	ra
   141b2: 83 57 04 01  	lhu	a5, 0x10(s0)
   141b6: 7d 77        	c.lui	a4, 0xfffff
   141b8: 7d 17        	c.addi	a4, -0x1
   141ba: f9 8f        	c.and	a5, a4
   141bc: a2 60        	c.ldsp	ra, 0x8(sp)
   141be: 23 18 f4 00  	sh	a5, 0x10(s0)
   141c2: 02 64        	c.ldsp	s0, 0x0(sp)
   141c4: 41 01        	c.addi	sp, 0x10
   141c6: 82 80        	c.jr	ra

00000000000141c8 <__seofread>:
   141c8: 01 45        	c.li	a0, 0x0
   141ca: 82 80        	c.jr	ra

00000000000141cc <__swrite>:
   141cc: 83 97 05 01  	lh	a5, 0x10(a1)
   141d0: 79 71        	c.addi16sp	sp, -0x30
   141d2: 22 f0        	c.sdsp	s0, 0x20(sp)
   141d4: 26 ec        	c.sdsp	s1, 0x18(sp)
   141d6: 4a e8        	c.sdsp	s2, 0x10(sp)
   141d8: 4e e4        	c.sdsp	s3, 0x8(sp)
   141da: 06 f4        	c.sdsp	ra, 0x28(sp)
   141dc: 13 f7 07 10  	andi	a4, a5, 0x100
   141e0: 2e 84        	c.mv	s0, a1
   141e2: aa 84        	c.mv	s1, a0
   141e4: 32 89        	c.mv	s2, a2
   141e6: b6 89        	c.mv	s3, a3
   141e8: 15 e3        	c.bnez	a4, 0x1420c <__swrite+0x40>
   141ea: 7d 77        	c.lui	a4, 0xfffff
   141ec: 7d 17        	c.addi	a4, -0x1
   141ee: f9 8f        	c.and	a5, a4
   141f0: 83 15 24 01  	lh	a1, 0x12(s0)
   141f4: 23 18 f4 00  	sh	a5, 0x10(s0)
   141f8: 02 74        	c.ldsp	s0, 0x20(sp)
   141fa: a2 70        	c.ldsp	ra, 0x28(sp)
   141fc: ce 86        	c.mv	a3, s3
   141fe: 4a 86        	c.mv	a2, s2
   14200: a2 69        	c.ldsp	s3, 0x8(sp)
   14202: 42 69        	c.ldsp	s2, 0x10(sp)
   14204: 26 85        	c.mv	a0, s1
   14206: e2 64        	c.ldsp	s1, 0x18(sp)
   14208: 45 61        	c.addi16sp	sp, 0x30
   1420a: c9 a3        	c.j	0x147cc <_write_r>
   1420c: 83 95 25 01  	lh	a1, 0x12(a1)
   14210: 89 46        	c.li	a3, 0x2
   14212: 01 46        	c.li	a2, 0x0
   14214: ef 00 40 50  	jal	ra, 0x14718 <_lseek_r>
   14218: 83 17 04 01  	lh	a5, 0x10(s0)
   1421c: f9 b7        	c.j	0x141ea <__swrite+0x1e>

000000000001421e <__sseek>:
   1421e: 41 11        	c.addi	sp, -0x10
   14220: 22 e0        	c.sdsp	s0, 0x0(sp)
   14222: 2e 84        	c.mv	s0, a1
   14224: 83 95 25 01  	lh	a1, 0x12(a1)
   14228: 06 e4        	c.sdsp	ra, 0x8(sp)
   1422a: ef 00 e0 4e  	jal	ra, 0x14718 <_lseek_r>
   1422e: fd 57        	c.li	a5, -0x1
   14230: 63 01 f5 02  	beq	a0, a5, 0x14252 <__sseek+0x34>
   14234: 83 57 04 01  	lhu	a5, 0x10(s0)
   14238: 05 67        	c.lui	a4, 0x1
   1423a: a2 60        	c.ldsp	ra, 0x8(sp)
   1423c: d9 8f        	c.or	a5, a4
   1423e: 9b 97 07 01  	slliw	a5, a5, 0x10
   14242: 9b d7 07 41  	sraiw	a5, a5, 0x10
   14246: 48 e8        	c.sd	a0, 0x90(s0)
   14248: 23 18 f4 00  	sh	a5, 0x10(s0)
   1424c: 02 64        	c.ldsp	s0, 0x0(sp)
   1424e: 41 01        	c.addi	sp, 0x10
   14250: 82 80        	c.jr	ra
   14252: 83 57 04 01  	lhu	a5, 0x10(s0)
   14256: 7d 77        	c.lui	a4, 0xfffff
   14258: 7d 17        	c.addi	a4, -0x1
   1425a: f9 8f        	c.and	a5, a4
   1425c: 9b 97 07 01  	slliw	a5, a5, 0x10
   14260: 9b d7 07 41  	sraiw	a5, a5, 0x10
   14264: a2 60        	c.ldsp	ra, 0x8(sp)
   14266: 23 18 f4 00  	sh	a5, 0x10(s0)
   1426a: 02 64        	c.ldsp	s0, 0x0(sp)
   1426c: 41 01        	c.addi	sp, 0x10
   1426e: 82 80        	c.jr	ra

0000000000014270 <__sclose>:
   14270: 83 95 25 01  	lh	a1, 0x12(a1)
   14274: c1 a6        	c.j	0x14634 <_close_r>

0000000000014276 <_fseeko_r>:
   14276: 31 71        	c.addi16sp	sp, -0xc0
   14278: 22 f9        	c.sdsp	s0, 0xb0(sp)
   1427a: 26 f5        	c.sdsp	s1, 0xa8(sp)
   1427c: 4a f1        	c.sdsp	s2, 0xa0(sp)
   1427e: 52 e9        	c.sdsp	s4, 0x90(sp)
   14280: 06 fd        	c.sdsp	ra, 0xb8(sp)
   14282: 56 e5        	c.sdsp	s5, 0x88(sp)
   14284: aa 84        	c.mv	s1, a0
   14286: 2e 84        	c.mv	s0, a1
   14288: 32 8a        	c.mv	s4, a2
   1428a: 36 89        	c.mv	s2, a3
   1428c: 01 c5        	c.beqz	a0, 0x14294 <_fseeko_r+0x1e>
   1428e: 3c 65        	c.ld	a5, 0x48(a0)
   14290: 63 80 07 28  	beq	a5, zero, 0x14510 <_fseeko_r+0x29a>
   14294: 83 57 04 01  	lhu	a5, 0x10(s0)
   14298: 13 07 80 10  	addi	a4, zero, 0x108
   1429c: 93 f7 87 10  	andi	a5, a5, 0x108
   142a0: 63 8c e7 12  	beq	a5, a4, 0x143d8 <_fseeko_r+0x162>
   142a4: 83 3a 84 04  	ld	s5, 0x48(s0)
   142a8: 63 86 0a 2c  	beq	s5, zero, 0x14574 <_fseeko_r+0x2fe>
   142ac: 4e ed        	c.sdsp	s3, 0x98(sp)
   142ae: 5a e1        	c.sdsp	s6, 0x80(sp)
   142b0: 85 47        	c.li	a5, 0x1
   142b2: 63 0a f9 0a  	beq	s2, a5, 0x14366 <_fseeko_r+0xf0>
   142b6: 13 7b d9 ff  	andi	s6, s2, -0x3
   142ba: 63 0f 0b 00  	beq	s6, zero, 0x142d8 <_fseeko_r+0x62>
   142be: ea 69        	c.ldsp	s3, 0x98(sp)
   142c0: 0a 6b        	c.ldsp	s6, 0x80(sp)
   142c2: d9 47        	c.li	a5, 0x16
   142c4: 9c c0        	c.sw	a5, 0x0(s1)
   142c6: 7d 55        	c.li	a0, -0x1
   142c8: ea 70        	c.ldsp	ra, 0xb8(sp)
   142ca: 4a 74        	c.ldsp	s0, 0xb0(sp)
   142cc: aa 74        	c.ldsp	s1, 0xa8(sp)
   142ce: 0a 79        	c.ldsp	s2, 0xa0(sp)
   142d0: 4a 6a        	c.ldsp	s4, 0x90(sp)
   142d2: aa 6a        	c.ldsp	s5, 0x88(sp)
   142d4: 29 61        	c.addi16sp	sp, 0xc0
   142d6: 82 80        	c.jr	ra
   142d8: 18 6c        	c.ld	a4, 0x18(s0)
   142da: 81 49        	c.li	s3, 0x0
   142dc: 69 c3        	c.beqz	a4, 0x1439e <_fseeko_r+0x128>
   142de: 83 17 04 01  	lh	a5, 0x10(s0)
   142e2: 13 d7 17 00  	srli	a4, a5, 0x1
   142e6: 13 77 d7 40  	andi	a4, a4, 0x40d
   142ea: 19 ef        	c.bnez	a4, 0x14308 <_fseeko_r+0x92>
   142ec: 13 f7 07 40  	andi	a4, a5, 0x400
   142f0: 45 ef        	c.bnez	a4, 0x143a8 <_fseeko_r+0x132>
   142f2: 51 67        	c.lui	a4, 0x14
   142f4: 13 07 e7 21  	addi	a4, a4, 0x21e
   142f8: 63 8b ea 1a  	beq	s5, a4, 0x144ae <_fseeko_r+0x238>
   142fc: 05 67        	c.lui	a4, 0x1
   142fe: 13 07 07 80  	addi	a4, a4, -0x800
   14302: d9 8f        	c.or	a5, a4
   14304: 23 18 f4 00  	sh	a5, 0x10(s0)
   14308: a2 85        	c.mv	a1, s0
   1430a: 26 85        	c.mv	a0, s1
   1430c: ef f0 0f cd  	jal	ra, 0x137dc <_fflush_r>
   14310: 63 1e 05 24  	bne	a0, zero, 0x1456c <_fseeko_r+0x2f6>
   14314: 0c 78        	c.ld	a1, 0x30(s0)
   14316: ca 86        	c.mv	a3, s2
   14318: 52 86        	c.mv	a2, s4
   1431a: 26 85        	c.mv	a0, s1
   1431c: 82 9a        	c.jalr	s5
   1431e: fd 57        	c.li	a5, -0x1
   14320: 63 06 f5 24  	beq	a0, a5, 0x1456c <_fseeko_r+0x2f6>
   14324: 2c 6c        	c.ld	a1, 0x58(s0)
   14326: 91 c9        	c.beqz	a1, 0x1433a <_fseeko_r+0xc4>
   14328: 93 07 44 07  	addi	a5, s0, 0x74
   1432c: 63 85 f5 00  	beq	a1, a5, 0x14336 <_fseeko_r+0xc0>
   14330: 26 85        	c.mv	a0, s1
   14332: ef 00 90 18  	jal	ra, 0x14cba <_free_r>
   14336: 23 3c 04 04  	sd	zero, 0x58(s0)
   1433a: 83 57 04 01  	lhu	a5, 0x10(s0)
   1433e: 14 6c        	c.ld	a3, 0x18(s0)
   14340: 7d 77        	c.lui	a4, 0xfffff
   14342: 13 07 f7 7d  	addi	a4, a4, 0x7df
   14346: f9 8f        	c.and	a5, a4
   14348: 14 e0        	c.sd	a3, 0x0(s0)
   1434a: 23 24 04 00  	sw	zero, 0x8(s0)
   1434e: 23 18 f4 00  	sh	a5, 0x10(s0)
   14352: 21 46        	c.li	a2, 0x8
   14354: 81 45        	c.li	a1, 0x0
   14356: 13 05 44 0a  	addi	a0, s0, 0xa4
   1435a: ef 00 00 52  	jal	ra, 0x1487a <memset>
   1435e: ea 69        	c.ldsp	s3, 0x98(sp)
   14360: 0a 6b        	c.ldsp	s6, 0x80(sp)
   14362: 01 45        	c.li	a0, 0x0
   14364: 95 b7        	c.j	0x142c8 <_fseeko_r+0x52>
   14366: a2 85        	c.mv	a1, s0
   14368: 26 85        	c.mv	a0, s1
   1436a: ef f0 2f c7  	jal	ra, 0x137dc <_fflush_r>
   1436e: 83 17 04 01  	lh	a5, 0x10(s0)
   14372: 13 97 37 03  	slli	a4, a5, 0x33
   14376: 63 56 07 06  	bge	a4, zero, 0x143e2 <_fseeko_r+0x16c>
   1437a: 93 f6 47 00  	andi	a3, a5, 0x4
   1437e: 83 39 04 09  	ld	s3, 0x90(s0)
   14382: 18 6c        	c.ld	a4, 0x18(s0)
   14384: b5 ce        	c.beqz	a3, 0x14400 <_fseeko_r+0x18a>
   14386: 14 44        	c.lw	a3, 0x8(s0)
   14388: 3c 6c        	c.ld	a5, 0x58(s0)
   1438a: b3 89 d9 40  	sub	s3, s3, a3
   1438e: 81 c7        	c.beqz	a5, 0x14396 <_fseeko_r+0x120>
   14390: 3c 58        	c.lw	a5, 0x70(s0)
   14392: b3 89 f9 40  	sub	s3, s3, a5
   14396: 4a 8b        	c.mv	s6, s2
   14398: 4e 9a        	c.add	s4, s3
   1439a: 01 49        	c.li	s2, 0x0
   1439c: 29 f3        	c.bnez	a4, 0x142de <_fseeko_r+0x68>
   1439e: a2 85        	c.mv	a1, s0
   143a0: 26 85        	c.mv	a0, s1
   143a2: ef 30 b0 7b  	jal	ra, 0x1835c <__smakebuf_r>
   143a6: 25 bf        	c.j	0x142de <_fseeko_r+0x68>
   143a8: de fc        	c.sdsp	s7, 0x78(sp)
   143aa: d2 8b        	c.mv	s7, s4
   143ac: 63 1c 09 12  	bne	s2, zero, 0x144e4 <_fseeko_r+0x26e>
   143b0: 63 1f 0b 04  	bne	s6, zero, 0x1440e <_fseeko_r+0x198>
   143b4: 83 57 04 01  	lhu	a5, 0x10(s0)
   143b8: 13 97 37 03  	slli	a4, a5, 0x33
   143bc: 63 50 07 14  	bge	a4, zero, 0x144fc <_fseeko_r+0x286>
   143c0: 48 68        	c.ld	a0, 0x90(s0)
   143c2: 1c 44        	c.lw	a5, 0x8(s0)
   143c4: 2c 6c        	c.ld	a1, 0x58(s0)
   143c6: be 86        	c.mv	a3, a5
   143c8: b3 09 f5 40  	sub	s3, a0, a5
   143cc: 63 85 05 14  	beq	a1, zero, 0x14516 <_fseeko_r+0x2a0>
   143d0: 38 58        	c.lw	a4, 0x70(s0)
   143d2: b3 89 e9 40  	sub	s3, s3, a4
   143d6: 91 a0        	c.j	0x1441a <_fseeko_r+0x1a4>
   143d8: a2 85        	c.mv	a1, s0
   143da: 26 85        	c.mv	a0, s1
   143dc: ef f0 0f c0  	jal	ra, 0x137dc <_fflush_r>
   143e0: d1 b5        	c.j	0x142a4 <_fseeko_r+0x2e>
   143e2: 0c 78        	c.ld	a1, 0x30(s0)
   143e4: 85 46        	c.li	a3, 0x1
   143e6: 01 46        	c.li	a2, 0x0
   143e8: 26 85        	c.mv	a0, s1
   143ea: 82 9a        	c.jalr	s5
   143ec: fd 57        	c.li	a5, -0x1
   143ee: aa 89        	c.mv	s3, a0
   143f0: 63 0e f5 16  	beq	a0, a5, 0x1456c <_fseeko_r+0x2f6>
   143f4: 83 17 04 01  	lh	a5, 0x10(s0)
   143f8: 18 6c        	c.ld	a4, 0x18(s0)
   143fa: 93 f6 47 00  	andi	a3, a5, 0x4
   143fe: c1 f6        	c.bnez	a3, 0x14386 <_fseeko_r+0x110>
   14400: a1 8b        	c.andi	a5, 0x8
   14402: d1 db        	c.beqz	a5, 0x14396 <_fseeko_r+0x120>
   14404: 1c 60        	c.ld	a5, 0x0(s0)
   14406: c1 db        	c.beqz	a5, 0x14396 <_fseeko_r+0x120>
   14408: 99 8f        	c.sub	a5, a4
   1440a: be 99        	c.add	s3, a5
   1440c: 69 b7        	c.j	0x14396 <_fseeko_r+0x120>
   1440e: 2c 6c        	c.ld	a1, 0x58(s0)
   14410: 14 44        	c.lw	a3, 0x8(s0)
   14412: 63 82 05 10  	beq	a1, zero, 0x14516 <_fseeko_r+0x2a0>
   14416: 38 58        	c.lw	a4, 0x70(s0)
   14418: b6 87        	c.mv	a5, a3
   1441a: 34 74        	c.ld	a3, 0x68(s0)
   1441c: 10 6c        	c.ld	a2, 0x18(s0)
   1441e: ce 97        	c.add	a5, s3
   14420: 91 8e        	c.sub	a3, a2
   14422: 95 8f        	c.sub	a5, a3
   14424: 36 97        	c.add	a4, a3
   14426: 63 c6 fb 00  	blt	s7, a5, 0x14432 <_fseeko_r+0x1bc>
   1442a: b3 86 e7 00  	add	a3, a5, a4
   1442e: 63 ef db 0e  	bltu	s7, a3, 0x1452c <_fseeko_r+0x2b6>
   14432: 83 29 84 08  	lw	s3, 0x88(s0)
   14436: 0c 78        	c.ld	a1, 0x30(s0)
   14438: 81 46        	c.li	a3, 0x0
   1443a: bb 09 30 41  	subw	s3, zero, s3
   1443e: b3 f9 79 01  	and	s3, s3, s7
   14442: 4e 86        	c.mv	a2, s3
   14444: 26 85        	c.mv	a0, s1
   14446: 82 9a        	c.jalr	s5
   14448: fd 57        	c.li	a5, -0x1
   1444a: 63 01 f5 0c  	beq	a0, a5, 0x1450c <_fseeko_r+0x296>
   1444e: 1c 6c        	c.ld	a5, 0x18(s0)
   14450: 2c 6c        	c.ld	a1, 0x58(s0)
   14452: 23 24 04 00  	sw	zero, 0x8(s0)
   14456: 1c e0        	c.sd	a5, 0x0(s0)
   14458: 91 c9        	c.beqz	a1, 0x1446c <_fseeko_r+0x1f6>
   1445a: 93 07 44 07  	addi	a5, s0, 0x74
   1445e: 63 85 f5 00  	beq	a1, a5, 0x14468 <_fseeko_r+0x1f2>
   14462: 26 85        	c.mv	a0, s1
   14464: ef 00 70 05  	jal	ra, 0x14cba <_free_r>
   14468: 23 3c 04 04  	sd	zero, 0x58(s0)
   1446c: 83 57 04 01  	lhu	a5, 0x10(s0)
   14470: 33 8b 3b 41  	sub	s6, s7, s3
   14474: 93 f7 f7 fd  	andi	a5, a5, -0x21
   14478: 23 18 f4 00  	sh	a5, 0x10(s0)
   1447c: 63 81 3b 03  	beq	s7, s3, 0x1449e <_fseeko_r+0x228>
   14480: a2 85        	c.mv	a1, s0
   14482: 26 85        	c.mv	a0, s1
   14484: ef f0 9f ba  	jal	ra, 0x1402c <__srefill_r>
   14488: 51 e1        	c.bnez	a0, 0x1450c <_fseeko_r+0x296>
   1448a: 1c 44        	c.lw	a5, 0x8(s0)
   1448c: 63 e0 67 09  	bltu	a5, s6, 0x1450c <_fseeko_r+0x296>
   14490: 18 60        	c.ld	a4, 0x0(s0)
   14492: bb 87 67 41  	subw	a5, a5, s6
   14496: 1c c4        	c.sw	a5, 0x8(s0)
   14498: b3 07 67 01  	add	a5, a4, s6
   1449c: 1c e0        	c.sd	a5, 0x0(s0)
   1449e: 21 46        	c.li	a2, 0x8
   144a0: 81 45        	c.li	a1, 0x0
   144a2: 13 05 44 0a  	addi	a0, s0, 0xa4
   144a6: ef 00 40 3d  	jal	ra, 0x1487a <memset>
   144aa: e6 7b        	c.ldsp	s7, 0x78(sp)
   144ac: 4d bd        	c.j	0x1435e <_fseeko_r+0xe8>
   144ae: 83 15 24 01  	lh	a1, 0x12(s0)
   144b2: e3 c5 05 e4  	blt	a1, zero, 0x142fc <_fseeko_r+0x86>
   144b6: 30 00        	c.addi4spn	a2, sp, 0x8
   144b8: 26 85        	c.mv	a0, s1
   144ba: ef 00 40 22  	jal	ra, 0x146de <_fstat_r>
   144be: 25 e5        	c.bnez	a0, 0x14526 <_fseeko_r+0x2b0>
   144c0: 32 47        	c.lwsp	a4, 0xc(sp)
   144c2: bd 67        	c.lui	a5, 0xf
   144c4: a1 66        	c.lui	a3, 0x8
   144c6: 7d 8f        	c.and	a4, a5
   144c8: 83 17 04 01  	lh	a5, 0x10(s0)
   144cc: e3 18 d7 e2  	bne	a4, a3, 0x142fc <_fseeko_r+0x86>
   144d0: de fc        	c.sdsp	s7, 0x78(sp)
   144d2: 93 e7 07 40  	ori	a5, a5, 0x400
   144d6: 13 07 00 40  	addi	a4, zero, 0x400
   144da: 23 24 e4 08  	sw	a4, 0x88(s0)
   144de: 23 18 f4 00  	sh	a5, 0x10(s0)
   144e2: e1 b5        	c.j	0x143aa <_fseeko_r+0x134>
   144e4: 83 15 24 01  	lh	a1, 0x12(s0)
   144e8: 30 00        	c.addi4spn	a2, sp, 0x8
   144ea: 26 85        	c.mv	a0, s1
   144ec: ef 00 20 1f  	jal	ra, 0x146de <_fstat_r>
   144f0: 11 ed        	c.bnez	a0, 0x1450c <_fseeko_r+0x296>
   144f2: e2 6b        	c.ldsp	s7, 0x18(sp)
   144f4: d2 9b        	c.add	s7, s4
   144f6: e3 1c 0b f0  	bne	s6, zero, 0x1440e <_fseeko_r+0x198>
   144fa: 6d bd        	c.j	0x143b4 <_fseeko_r+0x13e>
   144fc: 0c 78        	c.ld	a1, 0x30(s0)
   144fe: 85 46        	c.li	a3, 0x1
   14500: 01 46        	c.li	a2, 0x0
   14502: 26 85        	c.mv	a0, s1
   14504: 82 9a        	c.jalr	s5
   14506: fd 57        	c.li	a5, -0x1
   14508: e3 1d f5 ea  	bne	a0, a5, 0x143c2 <_fseeko_r+0x14c>
   1450c: e6 7b        	c.ldsp	s7, 0x78(sp)
   1450e: ed bb        	c.j	0x14308 <_fseeko_r+0x92>
   14510: ef f0 ef dc  	jal	ra, 0x13ade <__sinit>
   14514: 41 b3        	c.j	0x14294 <_fseeko_r+0x1e>
   14516: 18 60        	c.ld	a4, 0x0(s0)
   14518: 10 6c        	c.ld	a2, 0x18(s0)
   1451a: 81 45        	c.li	a1, 0x0
   1451c: 11 8f        	c.sub	a4, a2
   1451e: b3 87 e9 40  	sub	a5, s3, a4
   14522: 36 97        	c.add	a4, a3
   14524: 09 b7        	c.j	0x14426 <_fseeko_r+0x1b0>
   14526: 83 17 04 01  	lh	a5, 0x10(s0)
   1452a: c9 bb        	c.j	0x142fc <_fseeko_r+0x86>
   1452c: bb 86 fb 40  	subw	a3, s7, a5
   14530: b9 9f        	c.addw	a5, a4
   14532: 36 96        	c.add	a2, a3
   14534: bb 87 77 41  	subw	a5, a5, s7
   14538: 10 e0        	c.sd	a2, 0x0(s0)
   1453a: 1c c4        	c.sw	a5, 0x8(s0)
   1453c: 91 c9        	c.beqz	a1, 0x14550 <_fseeko_r+0x2da>
   1453e: 93 07 44 07  	addi	a5, s0, 0x74
   14542: 63 85 f5 00  	beq	a1, a5, 0x1454c <_fseeko_r+0x2d6>
   14546: 26 85        	c.mv	a0, s1
   14548: ef 00 20 77  	jal	ra, 0x14cba <_free_r>
   1454c: 23 3c 04 04  	sd	zero, 0x58(s0)
   14550: 83 57 04 01  	lhu	a5, 0x10(s0)
   14554: 21 46        	c.li	a2, 0x8
   14556: 81 45        	c.li	a1, 0x0
   14558: 93 f7 f7 fd  	andi	a5, a5, -0x21
   1455c: 23 18 f4 00  	sh	a5, 0x10(s0)
   14560: 13 05 44 0a  	addi	a0, s0, 0xa4
   14564: ef 00 60 31  	jal	ra, 0x1487a <memset>
   14568: e6 7b        	c.ldsp	s7, 0x78(sp)
   1456a: d5 bb        	c.j	0x1435e <_fseeko_r+0xe8>
   1456c: ea 69        	c.ldsp	s3, 0x98(sp)
   1456e: 0a 6b        	c.ldsp	s6, 0x80(sp)
   14570: 7d 55        	c.li	a0, -0x1
   14572: 99 bb        	c.j	0x142c8 <_fseeko_r+0x52>
   14574: f5 47        	c.li	a5, 0x1d
   14576: 9c c0        	c.sw	a5, 0x0(s1)
   14578: 7d 55        	c.li	a0, -0x1
   1457a: b9 b3        	c.j	0x142c8 <_fseeko_r+0x52>

000000000001457c <fseeko>:
   1457c: aa 87        	c.mv	a5, a0
   1457e: 03 b5 01 20  	ld	a0, 0x200(gp)
   14582: b2 86        	c.mv	a3, a2
   14584: 2e 86        	c.mv	a2, a1
   14586: be 85        	c.mv	a1, a5
   14588: fd b1        	c.j	0x14276 <_fseeko_r>

000000000001458a <_ftello_r>:
   1458a: 01 11        	c.addi	sp, -0x20
   1458c: 22 e8        	c.sdsp	s0, 0x10(sp)
   1458e: 26 e4        	c.sdsp	s1, 0x8(sp)
   14590: 06 ec        	c.sdsp	ra, 0x18(sp)
   14592: aa 84        	c.mv	s1, a0
   14594: 2e 84        	c.mv	s0, a1
   14596: 19 c1        	c.beqz	a0, 0x1459c <_ftello_r+0x12>
   14598: 3c 65        	c.ld	a5, 0x48(a0)
   1459a: d1 c3        	c.beqz	a5, 0x1461e <_ftello_r+0x94>
   1459c: 38 64        	c.ld	a4, 0x48(s0)
   1459e: 59 c3        	c.beqz	a4, 0x14624 <_ftello_r+0x9a>
   145a0: 83 17 04 01  	lh	a5, 0x10(s0)
   145a4: a1 46        	c.li	a3, 0x8
   145a6: 13 f6 c7 00  	andi	a2, a5, 0xc
   145aa: 63 0e d6 04  	beq	a2, a3, 0x14606 <_ftello_r+0x7c>
   145ae: 93 96 37 03  	slli	a3, a5, 0x33
   145b2: 63 ca 06 02  	blt	a3, zero, 0x145e6 <_ftello_r+0x5c>
   145b6: 0c 78        	c.ld	a1, 0x30(s0)
   145b8: 85 46        	c.li	a3, 0x1
   145ba: 01 46        	c.li	a2, 0x0
   145bc: 26 85        	c.mv	a0, s1
   145be: 02 97        	c.jalr	a4
   145c0: fd 57        	c.li	a5, -0x1
   145c2: 63 03 f5 06  	beq	a0, a5, 0x14628 <_ftello_r+0x9e>
   145c6: 83 17 04 01  	lh	a5, 0x10(s0)
   145ca: 13 f7 47 00  	andi	a4, a5, 0x4
   145ce: 05 c3        	c.beqz	a4, 0x145ee <_ftello_r+0x64>
   145d0: 18 44        	c.lw	a4, 0x8(s0)
   145d2: 3c 6c        	c.ld	a5, 0x58(s0)
   145d4: 19 8d        	c.sub	a0, a4
   145d6: 99 c3        	c.beqz	a5, 0x145dc <_ftello_r+0x52>
   145d8: 3c 58        	c.lw	a5, 0x70(s0)
   145da: 1d 8d        	c.sub	a0, a5
   145dc: e2 60        	c.ldsp	ra, 0x18(sp)
   145de: 42 64        	c.ldsp	s0, 0x10(sp)
   145e0: a2 64        	c.ldsp	s1, 0x8(sp)
   145e2: 05 61        	c.addi16sp	sp, 0x20
   145e4: 82 80        	c.jr	ra
   145e6: 13 f7 47 00  	andi	a4, a5, 0x4
   145ea: 48 68        	c.ld	a0, 0x90(s0)
   145ec: 75 f3        	c.bnez	a4, 0x145d0 <_ftello_r+0x46>
   145ee: a1 8b        	c.andi	a5, 0x8
   145f0: f5 d7        	c.beqz	a5, 0x145dc <_ftello_r+0x52>
   145f2: 1c 60        	c.ld	a5, 0x0(s0)
   145f4: e5 d7        	c.beqz	a5, 0x145dc <_ftello_r+0x52>
   145f6: 18 6c        	c.ld	a4, 0x18(s0)
   145f8: e2 60        	c.ldsp	ra, 0x18(sp)
   145fa: 42 64        	c.ldsp	s0, 0x10(sp)
   145fc: 99 8f        	c.sub	a5, a4
   145fe: a2 64        	c.ldsp	s1, 0x8(sp)
   14600: 3e 95        	c.add	a0, a5
   14602: 05 61        	c.addi16sp	sp, 0x20
   14604: 82 80        	c.jr	ra
   14606: 14 60        	c.ld	a3, 0x0(s0)
   14608: dd d2        	c.beqz	a3, 0x145ae <_ftello_r+0x24>
   1460a: 10 6c        	c.ld	a2, 0x18(s0)
   1460c: 91 8e        	c.sub	a3, a2
   1460e: e3 50 d0 fa  	bge	zero, a3, 0x145ae <_ftello_r+0x24>
   14612: 93 f6 07 10  	andi	a3, a5, 0x100
   14616: c1 de        	c.beqz	a3, 0x145ae <_ftello_r+0x24>
   14618: 0c 78        	c.ld	a1, 0x30(s0)
   1461a: 89 46        	c.li	a3, 0x2
   1461c: 79 bf        	c.j	0x145ba <_ftello_r+0x30>
   1461e: ef f0 0f cc  	jal	ra, 0x13ade <__sinit>
   14622: ad bf        	c.j	0x1459c <_ftello_r+0x12>
   14624: f5 47        	c.li	a5, 0x1d
   14626: 9c c0        	c.sw	a5, 0x0(s1)
   14628: 7d 55        	c.li	a0, -0x1
   1462a: 4d bf        	c.j	0x145dc <_ftello_r+0x52>

000000000001462c <ftello>:
   1462c: aa 85        	c.mv	a1, a0
   1462e: 03 b5 01 20  	ld	a0, 0x200(gp)
   14632: a1 bf        	c.j	0x1458a <_ftello_r>

0000000000014634 <_close_r>:
   14634: 01 11        	c.addi	sp, -0x20
   14636: 22 e8        	c.sdsp	s0, 0x10(sp)
   14638: 26 e4        	c.sdsp	s1, 0x8(sp)
   1463a: 2a 84        	c.mv	s0, a0
   1463c: 2e 85        	c.mv	a0, a1
   1463e: 06 ec        	c.sdsp	ra, 0x18(sp)
   14640: 23 a0 01 24  	sw	zero, 0x240(gp)
   14644: ef 70 a0 32  	jal	ra, 0x1b96e <_close>
   14648: fd 57        	c.li	a5, -0x1
   1464a: 63 07 f5 00  	beq	a0, a5, 0x14658 <_close_r+0x24>
   1464e: e2 60        	c.ldsp	ra, 0x18(sp)
   14650: 42 64        	c.ldsp	s0, 0x10(sp)
   14652: a2 64        	c.ldsp	s1, 0x8(sp)
   14654: 05 61        	c.addi16sp	sp, 0x20
   14656: 82 80        	c.jr	ra
   14658: 83 a7 01 24  	lw	a5, 0x240(gp)
   1465c: ed db        	c.beqz	a5, 0x1464e <_close_r+0x1a>
   1465e: e2 60        	c.ldsp	ra, 0x18(sp)
   14660: 1c c0        	c.sw	a5, 0x0(s0)
   14662: 42 64        	c.ldsp	s0, 0x10(sp)
   14664: a2 64        	c.ldsp	s1, 0x8(sp)
   14666: 05 61        	c.addi16sp	sp, 0x20
   14668: 82 80        	c.jr	ra

000000000001466a <_reclaim_reent>:
   1466a: 83 b7 01 20  	ld	a5, 0x200(gp)
   1466e: 63 87 a7 06  	beq	a5, a0, 0x146dc <_reclaim_reent+0x72>
   14672: 2c 75        	c.ld	a1, 0x68(a0)
   14674: 79 71        	c.addi16sp	sp, -0x30
   14676: 26 ec        	c.sdsp	s1, 0x18(sp)
   14678: 06 f4        	c.sdsp	ra, 0x28(sp)
   1467a: aa 84        	c.mv	s1, a0
   1467c: 9d c9        	c.beqz	a1, 0x146b2 <_reclaim_reent+0x48>
   1467e: 4a e8        	c.sdsp	s2, 0x10(sp)
   14680: 4e e4        	c.sdsp	s3, 0x8(sp)
   14682: 22 f0        	c.sdsp	s0, 0x20(sp)
   14684: 01 49        	c.li	s2, 0x0
   14686: 93 09 00 20  	addi	s3, zero, 0x200
   1468a: b3 87 25 01  	add	a5, a1, s2
   1468e: 80 63        	c.ld	s0, 0x0(a5)
   14690: 01 c8        	c.beqz	s0, 0x146a0 <_reclaim_reent+0x36>
   14692: a2 85        	c.mv	a1, s0
   14694: 00 60        	c.ld	s0, 0x0(s0)
   14696: 26 85        	c.mv	a0, s1
   14698: ef 00 20 62  	jal	ra, 0x14cba <_free_r>
   1469c: 7d f8        	c.bnez	s0, 0x14692 <_reclaim_reent+0x28>
   1469e: ac 74        	c.ld	a1, 0x68(s1)
   146a0: 21 09        	c.addi	s2, 0x8
   146a2: e3 14 39 ff  	bne	s2, s3, 0x1468a <_reclaim_reent+0x20>
   146a6: 26 85        	c.mv	a0, s1
   146a8: ef 00 20 61  	jal	ra, 0x14cba <_free_r>
   146ac: 02 74        	c.ldsp	s0, 0x20(sp)
   146ae: 42 69        	c.ldsp	s2, 0x10(sp)
   146b0: a2 69        	c.ldsp	s3, 0x8(sp)
   146b2: ac 68        	c.ld	a1, 0x50(s1)
   146b4: 81 c5        	c.beqz	a1, 0x146bc <_reclaim_reent+0x52>
   146b6: 26 85        	c.mv	a0, s1
   146b8: ef 00 20 60  	jal	ra, 0x14cba <_free_r>
   146bc: ac 7c        	c.ld	a1, 0x78(s1)
   146be: 81 c5        	c.beqz	a1, 0x146c6 <_reclaim_reent+0x5c>
   146c0: 26 85        	c.mv	a0, s1
   146c2: ef 00 80 5f  	jal	ra, 0x14cba <_free_r>
   146c6: bc 64        	c.ld	a5, 0x48(s1)
   146c8: 91 c7        	c.beqz	a5, 0x146d4 <_reclaim_reent+0x6a>
   146ca: a2 70        	c.ldsp	ra, 0x28(sp)
   146cc: 26 85        	c.mv	a0, s1
   146ce: e2 64        	c.ldsp	s1, 0x18(sp)
   146d0: 45 61        	c.addi16sp	sp, 0x30
   146d2: 82 87        	c.jr	a5
   146d4: a2 70        	c.ldsp	ra, 0x28(sp)
   146d6: e2 64        	c.ldsp	s1, 0x18(sp)
   146d8: 45 61        	c.addi16sp	sp, 0x30
   146da: 82 80        	c.jr	ra
   146dc: 82 80        	c.jr	ra

00000000000146de <_fstat_r>:
   146de: 01 11        	c.addi	sp, -0x20
   146e0: 2e 87        	c.mv	a4, a1
   146e2: 22 e8        	c.sdsp	s0, 0x10(sp)
   146e4: 26 e4        	c.sdsp	s1, 0x8(sp)
   146e6: 2a 84        	c.mv	s0, a0
   146e8: b2 85        	c.mv	a1, a2
   146ea: 3a 85        	c.mv	a0, a4
   146ec: 06 ec        	c.sdsp	ra, 0x18(sp)
   146ee: 23 a0 01 24  	sw	zero, 0x240(gp)
   146f2: ef 70 a0 2c  	jal	ra, 0x1b9bc <_fstat>
   146f6: fd 57        	c.li	a5, -0x1
   146f8: 63 07 f5 00  	beq	a0, a5, 0x14706 <_fstat_r+0x28>
   146fc: e2 60        	c.ldsp	ra, 0x18(sp)
   146fe: 42 64        	c.ldsp	s0, 0x10(sp)
   14700: a2 64        	c.ldsp	s1, 0x8(sp)
   14702: 05 61        	c.addi16sp	sp, 0x20
   14704: 82 80        	c.jr	ra
   14706: 83 a7 01 24  	lw	a5, 0x240(gp)
   1470a: ed db        	c.beqz	a5, 0x146fc <_fstat_r+0x1e>
   1470c: e2 60        	c.ldsp	ra, 0x18(sp)
   1470e: 1c c0        	c.sw	a5, 0x0(s0)
   14710: 42 64        	c.ldsp	s0, 0x10(sp)
   14712: a2 64        	c.ldsp	s1, 0x8(sp)
   14714: 05 61        	c.addi16sp	sp, 0x20
   14716: 82 80        	c.jr	ra

0000000000014718 <_lseek_r>:
   14718: 01 11        	c.addi	sp, -0x20
   1471a: 2e 87        	c.mv	a4, a1
   1471c: 22 e8        	c.sdsp	s0, 0x10(sp)
   1471e: 26 e4        	c.sdsp	s1, 0x8(sp)
   14720: b2 85        	c.mv	a1, a2
   14722: 2a 84        	c.mv	s0, a0
   14724: 36 86        	c.mv	a2, a3
   14726: 3a 85        	c.mv	a0, a4
   14728: 06 ec        	c.sdsp	ra, 0x18(sp)
   1472a: 23 a0 01 24  	sw	zero, 0x240(gp)
   1472e: ef 70 c0 30  	jal	ra, 0x1ba3a <_lseek>
   14732: fd 57        	c.li	a5, -0x1
   14734: 63 07 f5 00  	beq	a0, a5, 0x14742 <_lseek_r+0x2a>
   14738: e2 60        	c.ldsp	ra, 0x18(sp)
   1473a: 42 64        	c.ldsp	s0, 0x10(sp)
   1473c: a2 64        	c.ldsp	s1, 0x8(sp)
   1473e: 05 61        	c.addi16sp	sp, 0x20
   14740: 82 80        	c.jr	ra
   14742: 83 a7 01 24  	lw	a5, 0x240(gp)
   14746: ed db        	c.beqz	a5, 0x14738 <_lseek_r+0x20>
   14748: e2 60        	c.ldsp	ra, 0x18(sp)
   1474a: 1c c0        	c.sw	a5, 0x0(s0)
   1474c: 42 64        	c.ldsp	s0, 0x10(sp)
   1474e: a2 64        	c.ldsp	s1, 0x8(sp)
   14750: 05 61        	c.addi16sp	sp, 0x20
   14752: 82 80        	c.jr	ra

0000000000014754 <_open_r>:
   14754: 01 11        	c.addi	sp, -0x20
   14756: 2e 87        	c.mv	a4, a1
   14758: 22 e8        	c.sdsp	s0, 0x10(sp)
   1475a: 26 e4        	c.sdsp	s1, 0x8(sp)
   1475c: b2 85        	c.mv	a1, a2
   1475e: 2a 84        	c.mv	s0, a0
   14760: 36 86        	c.mv	a2, a3
   14762: 3a 85        	c.mv	a0, a4
   14764: 06 ec        	c.sdsp	ra, 0x18(sp)
   14766: 23 a0 01 24  	sw	zero, 0x240(gp)
   1476a: ef 70 c0 2f  	jal	ra, 0x1ba66 <_open>
   1476e: fd 57        	c.li	a5, -0x1
   14770: 63 07 f5 00  	beq	a0, a5, 0x1477e <_open_r+0x2a>
   14774: e2 60        	c.ldsp	ra, 0x18(sp)
   14776: 42 64        	c.ldsp	s0, 0x10(sp)
   14778: a2 64        	c.ldsp	s1, 0x8(sp)
   1477a: 05 61        	c.addi16sp	sp, 0x20
   1477c: 82 80        	c.jr	ra
   1477e: 83 a7 01 24  	lw	a5, 0x240(gp)
   14782: ed db        	c.beqz	a5, 0x14774 <_open_r+0x20>
   14784: e2 60        	c.ldsp	ra, 0x18(sp)
   14786: 1c c0        	c.sw	a5, 0x0(s0)
   14788: 42 64        	c.ldsp	s0, 0x10(sp)
   1478a: a2 64        	c.ldsp	s1, 0x8(sp)
   1478c: 05 61        	c.addi16sp	sp, 0x20
   1478e: 82 80        	c.jr	ra

0000000000014790 <_read_r>:
   14790: 01 11        	c.addi	sp, -0x20
   14792: 2e 87        	c.mv	a4, a1
   14794: 22 e8        	c.sdsp	s0, 0x10(sp)
   14796: 26 e4        	c.sdsp	s1, 0x8(sp)
   14798: b2 85        	c.mv	a1, a2
   1479a: 2a 84        	c.mv	s0, a0
   1479c: 36 86        	c.mv	a2, a3
   1479e: 3a 85        	c.mv	a0, a4
   147a0: 06 ec        	c.sdsp	ra, 0x18(sp)
   147a2: 23 a0 01 24  	sw	zero, 0x240(gp)
   147a6: ef 70 c0 2e  	jal	ra, 0x1ba92 <_read>
   147aa: fd 57        	c.li	a5, -0x1
   147ac: 63 07 f5 00  	beq	a0, a5, 0x147ba <_read_r+0x2a>
   147b0: e2 60        	c.ldsp	ra, 0x18(sp)
   147b2: 42 64        	c.ldsp	s0, 0x10(sp)
   147b4: a2 64        	c.ldsp	s1, 0x8(sp)
   147b6: 05 61        	c.addi16sp	sp, 0x20
   147b8: 82 80        	c.jr	ra
   147ba: 83 a7 01 24  	lw	a5, 0x240(gp)
   147be: ed db        	c.beqz	a5, 0x147b0 <_read_r+0x20>
   147c0: e2 60        	c.ldsp	ra, 0x18(sp)
   147c2: 1c c0        	c.sw	a5, 0x0(s0)
   147c4: 42 64        	c.ldsp	s0, 0x10(sp)
   147c6: a2 64        	c.ldsp	s1, 0x8(sp)
   147c8: 05 61        	c.addi16sp	sp, 0x20
   147ca: 82 80        	c.jr	ra

00000000000147cc <_write_r>:
   147cc: 01 11        	c.addi	sp, -0x20
   147ce: 2e 87        	c.mv	a4, a1
   147d0: 22 e8        	c.sdsp	s0, 0x10(sp)
   147d2: 26 e4        	c.sdsp	s1, 0x8(sp)
   147d4: b2 85        	c.mv	a1, a2
   147d6: 2a 84        	c.mv	s0, a0
   147d8: 36 86        	c.mv	a2, a3
   147da: 3a 85        	c.mv	a0, a4
   147dc: 06 ec        	c.sdsp	ra, 0x18(sp)
   147de: 23 a0 01 24  	sw	zero, 0x240(gp)
   147e2: ef 70 00 33  	jal	ra, 0x1bb12 <_write>
   147e6: fd 57        	c.li	a5, -0x1
   147e8: 63 07 f5 00  	beq	a0, a5, 0x147f6 <_write_r+0x2a>
   147ec: e2 60        	c.ldsp	ra, 0x18(sp)
   147ee: 42 64        	c.ldsp	s0, 0x10(sp)
   147f0: a2 64        	c.ldsp	s1, 0x8(sp)
   147f2: 05 61        	c.addi16sp	sp, 0x20
   147f4: 82 80        	c.jr	ra
   147f6: 83 a7 01 24  	lw	a5, 0x240(gp)
   147fa: ed db        	c.beqz	a5, 0x147ec <_write_r+0x20>
   147fc: e2 60        	c.ldsp	ra, 0x18(sp)
   147fe: 1c c0        	c.sw	a5, 0x0(s0)
   14800: 42 64        	c.ldsp	s0, 0x10(sp)
   14802: a2 64        	c.ldsp	s1, 0x8(sp)
   14804: 05 61        	c.addi16sp	sp, 0x20
   14806: 82 80        	c.jr	ra

0000000000014808 <__libc_init_array>:
   14808: 01 11        	c.addi	sp, -0x20
   1480a: 22 e8        	c.sdsp	s0, 0x10(sp)
   1480c: b7 97 02 00  	lui	a5, 0x29
   14810: 37 94 02 00  	lui	s0, 0x29
   14814: 4a e0        	c.sdsp	s2, 0x0(sp)
   14816: 93 87 87 c8  	addi	a5, a5, -0x378
   1481a: 13 07 84 c8  	addi	a4, s0, -0x378
   1481e: 06 ec        	c.sdsp	ra, 0x18(sp)
   14820: 26 e4        	c.sdsp	s1, 0x8(sp)
   14822: 33 89 e7 40  	sub	s2, a5, a4
   14826: 63 8d e7 00  	beq	a5, a4, 0x14840 <__libc_init_array+0x38>
   1482a: 13 59 39 40  	srai	s2, s2, 0x3
   1482e: 13 04 84 c8  	addi	s0, s0, -0x378
   14832: 81 44        	c.li	s1, 0x0
   14834: 1c 60        	c.ld	a5, 0x0(s0)
   14836: 85 04        	c.addi	s1, 0x1
   14838: 21 04        	c.addi	s0, 0x8
   1483a: 82 97        	c.jalr	a5
   1483c: e3 ec 24 ff  	bltu	s1, s2, 0x14834 <__libc_init_array+0x2c>
   14840: 37 94 02 00  	lui	s0, 0x29
   14844: b7 97 02 00  	lui	a5, 0x29
   14848: 93 87 87 c9  	addi	a5, a5, -0x368
   1484c: 13 07 84 c8  	addi	a4, s0, -0x378
   14850: 33 89 e7 40  	sub	s2, a5, a4
   14854: 13 59 39 40  	srai	s2, s2, 0x3
   14858: 63 8b e7 00  	beq	a5, a4, 0x1486e <__libc_init_array+0x66>
   1485c: 13 04 84 c8  	addi	s0, s0, -0x378
   14860: 81 44        	c.li	s1, 0x0
   14862: 1c 60        	c.ld	a5, 0x0(s0)
   14864: 85 04        	c.addi	s1, 0x1
   14866: 21 04        	c.addi	s0, 0x8
   14868: 82 97        	c.jalr	a5
   1486a: e3 ec 24 ff  	bltu	s1, s2, 0x14862 <__libc_init_array+0x5a>
   1486e: e2 60        	c.ldsp	ra, 0x18(sp)
   14870: 42 64        	c.ldsp	s0, 0x10(sp)
   14872: a2 64        	c.ldsp	s1, 0x8(sp)
   14874: 02 69        	c.ldsp	s2, 0x0(sp)
   14876: 05 61        	c.addi16sp	sp, 0x20
   14878: 82 80        	c.jr	ra

000000000001487a <memset>:
   1487a: 3d 43        	c.li	t1, 0xf
   1487c: 2a 87        	c.mv	a4, a0
   1487e: 63 71 c3 02  	bgeu	t1, a2, 0x148a0 <memset+0x26>
   14882: 93 77 f7 00  	andi	a5, a4, 0xf
   14886: c1 e3        	c.bnez	a5, 0x14906 <memset+0x8c>
   14888: bd e1        	c.bnez	a1, 0x148ee <memset+0x74>
   1488a: 93 76 06 ff  	andi	a3, a2, -0x10
   1488e: 3d 8a        	c.andi	a2, 0xf
   14890: ba 96        	c.add	a3, a4
   14892: 0c e3        	c.sd	a1, 0x0(a4)
   14894: 0c e7        	c.sd	a1, 0x8(a4)
   14896: 41 07        	c.addi	a4, 0x10
   14898: e3 6d d7 fe  	bltu	a4, a3, 0x14892 <memset+0x18>
   1489c: 11 e2        	c.bnez	a2, 0x148a0 <memset+0x26>
   1489e: 82 80        	c.jr	ra
   148a0: b3 06 c3 40  	sub	a3, t1, a2
   148a4: 8a 06        	c.slli	a3, 0x2
   148a6: 97 02 00 00  	auipc	t0, 0x0
   148aa: 96 96        	c.add	a3, t0
   148ac: 67 80 a6 00  	jalr	zero, 0xa(a3)
   148b0: 23 07 b7 00  	sb	a1, 0xe(a4)
   148b4: a3 06 b7 00  	sb	a1, 0xd(a4)
   148b8: 23 06 b7 00  	sb	a1, 0xc(a4)
   148bc: a3 05 b7 00  	sb	a1, 0xb(a4)
   148c0: 23 05 b7 00  	sb	a1, 0xa(a4)
   148c4: a3 04 b7 00  	sb	a1, 0x9(a4)
   148c8: 23 04 b7 00  	sb	a1, 0x8(a4)
   148cc: a3 03 b7 00  	sb	a1, 0x7(a4)
   148d0: 23 03 b7 00  	sb	a1, 0x6(a4)
   148d4: a3 02 b7 00  	sb	a1, 0x5(a4)
   148d8: 23 02 b7 00  	sb	a1, 0x4(a4)
   148dc: a3 01 b7 00  	sb	a1, 0x3(a4)
   148e0: 23 01 b7 00  	sb	a1, 0x2(a4)
   148e4: a3 00 b7 00  	sb	a1, 0x1(a4)
   148e8: 23 00 b7 00  	sb	a1, 0x0(a4)
   148ec: 82 80        	c.jr	ra
   148ee: 93 f5 f5 0f  	andi	a1, a1, 0xff
   148f2: 93 96 85 00  	slli	a3, a1, 0x8
   148f6: d5 8d        	c.or	a1, a3
   148f8: 93 96 05 01  	slli	a3, a1, 0x10
   148fc: d5 8d        	c.or	a1, a3
   148fe: 93 96 05 02  	slli	a3, a1, 0x20
   14902: d5 8d        	c.or	a1, a3
   14904: 59 b7        	c.j	0x1488a <memset+0x10>
   14906: 93 96 27 00  	slli	a3, a5, 0x2
   1490a: 97 02 00 00  	auipc	t0, 0x0
   1490e: 96 96        	c.add	a3, t0
   14910: 86 82        	c.mv	t0, ra
   14912: e7 80 26 fa  	jalr	ra, -0x5e(a3)
   14916: 96 80        	c.mv	ra, t0
   14918: c1 17        	c.addi	a5, -0x10
   1491a: 1d 8f        	c.sub	a4, a5
   1491c: 3e 96        	c.add	a2, a5
   1491e: e3 71 c3 f8  	bgeu	t1, a2, 0x148a0 <memset+0x26>
   14922: 9d b7        	c.j	0x14888 <memset+0xe>

0000000000014924 <memcpy>:
   14924: b3 c7 a5 00  	xor	a5, a1, a0
   14928: 9d 8b        	c.andi	a5, 0x7
   1492a: b3 08 c5 00  	add	a7, a0, a2
   1492e: b1 e7        	c.bnez	a5, 0x1497a <memcpy+0x56>
   14930: 9d 47        	c.li	a5, 0x7
   14932: 63 f4 c7 04  	bgeu	a5, a2, 0x1497a <memcpy+0x56>
   14936: 93 77 75 00  	andi	a5, a0, 0x7
   1493a: 2a 87        	c.mv	a4, a0
   1493c: b9 eb        	c.bnez	a5, 0x14992 <memcpy+0x6e>
   1493e: 13 f6 88 ff  	andi	a2, a7, -0x8
   14942: b3 06 e6 40  	sub	a3, a2, a4
   14946: 93 07 00 04  	addi	a5, zero, 0x40
   1494a: 63 c8 d7 06  	blt	a5, a3, 0x149ba <memcpy+0x96>
   1494e: ae 86        	c.mv	a3, a1
   14950: ba 87        	c.mv	a5, a4
   14952: 63 71 c7 02  	bgeu	a4, a2, 0x14974 <memcpy+0x50>
   14956: 03 b8 06 00  	ld	a6, 0x0(a3)
   1495a: a1 07        	c.addi	a5, 0x8
   1495c: a1 06        	c.addi	a3, 0x8
   1495e: 23 bc 07 ff  	sd	a6, -0x8(a5)
   14962: e3 ea c7 fe  	bltu	a5, a2, 0x14956 <memcpy+0x32>
   14966: 93 07 f6 ff  	addi	a5, a2, -0x1
   1496a: 99 8f        	c.sub	a5, a4
   1496c: e1 9b        	c.andi	a5, -0x8
   1496e: a1 07        	c.addi	a5, 0x8
   14970: 3e 97        	c.add	a4, a5
   14972: be 95        	c.add	a1, a5
   14974: 63 66 17 01  	bltu	a4, a7, 0x14980 <memcpy+0x5c>
   14978: 82 80        	c.jr	ra
   1497a: 2a 87        	c.mv	a4, a0
   1497c: 63 7e 15 03  	bgeu	a0, a7, 0x149b8 <memcpy+0x94>
   14980: 83 c7 05 00  	lbu	a5, 0x0(a1)
   14984: 05 07        	c.addi	a4, 0x1
   14986: 85 05        	c.addi	a1, 0x1
   14988: a3 0f f7 fe  	sb	a5, -0x1(a4)
   1498c: e3 9a e8 fe  	bne	a7, a4, 0x14980 <memcpy+0x5c>
   14990: 82 80        	c.jr	ra
   14992: 83 c6 05 00  	lbu	a3, 0x0(a1)
   14996: 05 07        	c.addi	a4, 0x1
   14998: 93 77 77 00  	andi	a5, a4, 0x7
   1499c: a3 0f d7 fe  	sb	a3, -0x1(a4)
   149a0: 85 05        	c.addi	a1, 0x1
   149a2: d1 df        	c.beqz	a5, 0x1493e <memcpy+0x1a>
   149a4: 83 c6 05 00  	lbu	a3, 0x0(a1)
   149a8: 05 07        	c.addi	a4, 0x1
   149aa: 93 77 77 00  	andi	a5, a4, 0x7
   149ae: a3 0f d7 fe  	sb	a3, -0x1(a4)
   149b2: 85 05        	c.addi	a1, 0x1
   149b4: f9 ff        	c.bnez	a5, 0x14992 <memcpy+0x6e>
   149b6: 61 b7        	c.j	0x1493e <memcpy+0x1a>
   149b8: 82 80        	c.jr	ra
   149ba: 41 11        	c.addi	sp, -0x10
   149bc: 22 e4        	c.sdsp	s0, 0x8(sp)
   149be: 13 04 00 04  	addi	s0, zero, 0x40
   149c2: 83 b3 05 00  	ld	t2, 0x0(a1)
   149c6: 83 b2 85 00  	ld	t0, 0x8(a1)
   149ca: 83 bf 05 01  	ld	t6, 0x10(a1)
   149ce: 03 bf 85 01  	ld	t5, 0x18(a1)
   149d2: 83 be 05 02  	ld	t4, 0x20(a1)
   149d6: 03 be 85 02  	ld	t3, 0x28(a1)
   149da: 03 b3 05 03  	ld	t1, 0x30(a1)
   149de: 03 b8 85 03  	ld	a6, 0x38(a1)
   149e2: b4 61        	c.ld	a3, 0x40(a1)
   149e4: 13 07 87 04  	addi	a4, a4, 0x48
   149e8: b3 07 e6 40  	sub	a5, a2, a4
   149ec: 23 3c 77 fa  	sd	t2, -0x48(a4)
   149f0: 23 30 57 fc  	sd	t0, -0x40(a4)
   149f4: 23 34 f7 fd  	sd	t6, -0x38(a4)
   149f8: 23 38 e7 fd  	sd	t5, -0x30(a4)
   149fc: 23 3c d7 fd  	sd	t4, -0x28(a4)
   14a00: 23 30 c7 ff  	sd	t3, -0x20(a4)
   14a04: 23 34 67 fe  	sd	t1, -0x18(a4)
   14a08: 23 38 07 ff  	sd	a6, -0x10(a4)
   14a0c: 23 3c d7 fe  	sd	a3, -0x8(a4)
   14a10: 93 85 85 04  	addi	a1, a1, 0x48
   14a14: e3 47 f4 fa  	blt	s0, a5, 0x149c2 <memcpy+0x9e>
   14a18: ae 86        	c.mv	a3, a1
   14a1a: ba 87        	c.mv	a5, a4
   14a1c: 63 71 c7 02  	bgeu	a4, a2, 0x14a3e <memcpy+0x11a>
   14a20: 03 b8 06 00  	ld	a6, 0x0(a3)
   14a24: a1 07        	c.addi	a5, 0x8
   14a26: a1 06        	c.addi	a3, 0x8
   14a28: 23 bc 07 ff  	sd	a6, -0x8(a5)
   14a2c: e3 ea c7 fe  	bltu	a5, a2, 0x14a20 <memcpy+0xfc>
   14a30: 93 07 f6 ff  	addi	a5, a2, -0x1
   14a34: 99 8f        	c.sub	a5, a4
   14a36: e1 9b        	c.andi	a5, -0x8
   14a38: a1 07        	c.addi	a5, 0x8
   14a3a: 3e 97        	c.add	a4, a5
   14a3c: be 95        	c.add	a1, a5
   14a3e: 63 65 17 01  	bltu	a4, a7, 0x14a48 <memcpy+0x124>
   14a42: 22 64        	c.ldsp	s0, 0x8(sp)
   14a44: 41 01        	c.addi	sp, 0x10
   14a46: 82 80        	c.jr	ra
   14a48: 83 c7 05 00  	lbu	a5, 0x0(a1)
   14a4c: 05 07        	c.addi	a4, 0x1
   14a4e: 85 05        	c.addi	a1, 0x1
   14a50: a3 0f f7 fe  	sb	a5, -0x1(a4)
   14a54: e3 87 e8 fe  	beq	a7, a4, 0x14a42 <memcpy+0x11e>
   14a58: 83 c7 05 00  	lbu	a5, 0x0(a1)
   14a5c: 05 07        	c.addi	a4, 0x1
   14a5e: 85 05        	c.addi	a1, 0x1
   14a60: a3 0f f7 fe  	sb	a5, -0x1(a4)
   14a64: e3 92 e8 fe  	bne	a7, a4, 0x14a48 <memcpy+0x124>
   14a68: e9 bf        	c.j	0x14a42 <memcpy+0x11e>

0000000000014a6a <strlen>:
   14a6a: 93 77 75 00  	andi	a5, a0, 0x7
   14a6e: 2a 87        	c.mv	a4, a0
   14a70: b5 e3        	c.bnez	a5, 0x14ad4 <strlen+0x6a>
   14a72: b7 f6 ef 0f  	lui	a3, 0xfeff
   14a76: 92 06        	c.slli	a3, 0x4
   14a78: 93 86 f6 ef  	addi	a3, a3, -0x101
   14a7c: c2 06        	c.slli	a3, 0x10
   14a7e: 93 86 f6 ef  	addi	a3, a3, -0x101
   14a82: be 06        	c.slli	a3, 0xf
   14a84: 93 86 f6 f7  	addi	a3, a3, -0x81
   14a88: fd 55        	c.li	a1, -0x1
   14a8a: 10 63        	c.ld	a2, 0x0(a4)
   14a8c: 21 07        	c.addi	a4, 0x8
   14a8e: b3 77 d6 00  	and	a5, a2, a3
   14a92: b6 97        	c.add	a5, a3
   14a94: d1 8f        	c.or	a5, a2
   14a96: d5 8f        	c.or	a5, a3
   14a98: e3 89 b7 fe  	beq	a5, a1, 0x14a8a <strlen+0x20>
   14a9c: 83 46 87 ff  	lbu	a3, -0x8(a4)
   14aa0: b3 07 a7 40  	sub	a5, a4, a0
   14aa4: a9 c6        	c.beqz	a3, 0x14aee <strlen+0x84>
   14aa6: 83 46 97 ff  	lbu	a3, -0x7(a4)
   14aaa: 9d ce        	c.beqz	a3, 0x14ae8 <strlen+0x7e>
   14aac: 83 46 a7 ff  	lbu	a3, -0x6(a4)
   14ab0: a9 c6        	c.beqz	a3, 0x14afa <strlen+0x90>
   14ab2: 83 46 b7 ff  	lbu	a3, -0x5(a4)
   14ab6: 9d ce        	c.beqz	a3, 0x14af4 <strlen+0x8a>
   14ab8: 83 46 c7 ff  	lbu	a3, -0x4(a4)
   14abc: b1 c2        	c.beqz	a3, 0x14b00 <strlen+0x96>
   14abe: 83 46 d7 ff  	lbu	a3, -0x3(a4)
   14ac2: b1 c2        	c.beqz	a3, 0x14b06 <strlen+0x9c>
   14ac4: 03 45 e7 ff  	lbu	a0, -0x2(a4)
   14ac8: 33 35 a0 00  	sltu	a0, zero, a0
   14acc: 3e 95        	c.add	a0, a5
   14ace: 79 15        	c.addi	a0, -0x2
   14ad0: 82 80        	c.jr	ra
   14ad2: c5 d2        	c.beqz	a3, 0x14a72 <strlen+0x8>
   14ad4: 83 47 07 00  	lbu	a5, 0x0(a4)
   14ad8: 05 07        	c.addi	a4, 0x1
   14ada: 93 76 77 00  	andi	a3, a4, 0x7
   14ade: f5 fb        	c.bnez	a5, 0x14ad2 <strlen+0x68>
   14ae0: 09 8f        	c.sub	a4, a0
   14ae2: 13 05 f7 ff  	addi	a0, a4, -0x1
   14ae6: 82 80        	c.jr	ra
   14ae8: 13 85 97 ff  	addi	a0, a5, -0x7
   14aec: 82 80        	c.jr	ra
   14aee: 13 85 87 ff  	addi	a0, a5, -0x8
   14af2: 82 80        	c.jr	ra
   14af4: 13 85 b7 ff  	addi	a0, a5, -0x5
   14af8: 82 80        	c.jr	ra
   14afa: 13 85 a7 ff  	addi	a0, a5, -0x6
   14afe: 82 80        	c.jr	ra
   14b00: 13 85 c7 ff  	addi	a0, a5, -0x4
   14b04: 82 80        	c.jr	ra
   14b06: 13 85 d7 ff  	addi	a0, a5, -0x3
   14b0a: 82 80        	c.jr	ra

0000000000014b0c <__call_exitprocs>:
   14b0c: 5d 71        	c.addi16sp	sp, -0x50
   14b0e: 52 f0        	c.sdsp	s4, 0x20(sp)
   14b10: 4a f8        	c.sdsp	s2, 0x30(sp)
   14b12: 03 b9 81 24  	ld	s2, 0x248(gp)
   14b16: 86 e4        	c.sdsp	ra, 0x48(sp)
   14b18: 63 0d 09 06  	beq	s2, zero, 0x14b92 <__call_exitprocs+0x86>
   14b1c: 4e f4        	c.sdsp	s3, 0x28(sp)
   14b1e: 56 ec        	c.sdsp	s5, 0x18(sp)
   14b20: 5a e8        	c.sdsp	s6, 0x10(sp)
   14b22: 5e e4        	c.sdsp	s7, 0x8(sp)
   14b24: a2 e0        	c.sdsp	s0, 0x40(sp)
   14b26: 26 fc        	c.sdsp	s1, 0x38(sp)
   14b28: 62 e0        	c.sdsp	s8, 0x0(sp)
   14b2a: 2a 8b        	c.mv	s6, a0
   14b2c: ae 8b        	c.mv	s7, a1
   14b2e: fd 59        	c.li	s3, -0x1
   14b30: 85 4a        	c.li	s5, 0x1
   14b32: 83 24 89 00  	lw	s1, 0x8(s2)
   14b36: 1b 84 f4 ff  	addiw	s0, s1, -0x1
   14b3a: 63 45 04 04  	blt	s0, zero, 0x14b84 <__call_exitprocs+0x78>
   14b3e: 8e 04        	c.slli	s1, 0x3
   14b40: ca 94        	c.add	s1, s2
   14b42: 63 9d 0b 04  	bne	s7, zero, 0x14b9c <__call_exitprocs+0x90>
   14b46: 83 27 89 00  	lw	a5, 0x8(s2)
   14b4a: 98 64        	c.ld	a4, 0x8(s1)
   14b4c: fd 37        	c.addiw	a5, -0x1
   14b4e: 63 82 87 08  	beq	a5, s0, 0x14bd2 <__call_exitprocs+0xc6>
   14b52: 23 b4 04 00  	sd	zero, 0x8(s1)
   14b56: 1d c3        	c.beqz	a4, 0x14b7c <__call_exitprocs+0x70>
   14b58: 83 27 09 31  	lw	a5, 0x310(s2)
   14b5c: bb 96 8a 00  	sllw	a3, s5, s0
   14b60: 03 2c 89 00  	lw	s8, 0x8(s2)
   14b64: f5 8f        	c.and	a5, a3
   14b66: 81 27        	c.addiw	a5, 0x0
   14b68: b9 e3        	c.bnez	a5, 0x14bae <__call_exitprocs+0xa2>
   14b6a: 02 97        	c.jalr	a4
   14b6c: 03 27 89 00  	lw	a4, 0x8(s2)
   14b70: 83 b7 81 24  	ld	a5, 0x248(gp)
   14b74: 63 1c 87 05  	bne	a4, s8, 0x14bcc <__call_exitprocs+0xc0>
   14b78: 63 9a 27 05  	bne	a5, s2, 0x14bcc <__call_exitprocs+0xc0>
   14b7c: 7d 34        	c.addiw	s0, -0x1
   14b7e: e1 14        	c.addi	s1, -0x8
   14b80: e3 11 34 fd  	bne	s0, s3, 0x14b42 <__call_exitprocs+0x36>
   14b84: 06 64        	c.ldsp	s0, 0x40(sp)
   14b86: e2 74        	c.ldsp	s1, 0x38(sp)
   14b88: a2 79        	c.ldsp	s3, 0x28(sp)
   14b8a: e2 6a        	c.ldsp	s5, 0x18(sp)
   14b8c: 42 6b        	c.ldsp	s6, 0x10(sp)
   14b8e: a2 6b        	c.ldsp	s7, 0x8(sp)
   14b90: 02 6c        	c.ldsp	s8, 0x0(sp)
   14b92: a6 60        	c.ldsp	ra, 0x48(sp)
   14b94: 42 79        	c.ldsp	s2, 0x30(sp)
   14b96: 02 7a        	c.ldsp	s4, 0x20(sp)
   14b98: 61 61        	c.addi16sp	sp, 0x50
   14b9a: 82 80        	c.jr	ra
   14b9c: 83 b7 84 20  	ld	a5, 0x208(s1)
   14ba0: e3 83 77 fb  	beq	a5, s7, 0x14b46 <__call_exitprocs+0x3a>
   14ba4: 7d 34        	c.addiw	s0, -0x1
   14ba6: e1 14        	c.addi	s1, -0x8
   14ba8: e3 1a 34 ff  	bne	s0, s3, 0x14b9c <__call_exitprocs+0x90>
   14bac: e1 bf        	c.j	0x14b84 <__call_exitprocs+0x78>
   14bae: 83 27 49 31  	lw	a5, 0x314(s2)
   14bb2: 83 b5 84 10  	ld	a1, 0x108(s1)
   14bb6: f5 8f        	c.and	a5, a3
   14bb8: 81 27        	c.addiw	a5, 0x0
   14bba: 99 ef        	c.bnez	a5, 0x14bd8 <__call_exitprocs+0xcc>
   14bbc: 5a 85        	c.mv	a0, s6
   14bbe: 02 97        	c.jalr	a4
   14bc0: 03 27 89 00  	lw	a4, 0x8(s2)
   14bc4: 83 b7 81 24  	ld	a5, 0x248(gp)
   14bc8: e3 08 87 fb  	beq	a4, s8, 0x14b78 <__call_exitprocs+0x6c>
   14bcc: c5 df        	c.beqz	a5, 0x14b84 <__call_exitprocs+0x78>
   14bce: 3e 89        	c.mv	s2, a5
   14bd0: 8d b7        	c.j	0x14b32 <__call_exitprocs+0x26>
   14bd2: 23 24 89 00  	sw	s0, 0x8(s2)
   14bd6: 41 b7        	c.j	0x14b56 <__call_exitprocs+0x4a>
   14bd8: 2e 85        	c.mv	a0, a1
   14bda: 02 97        	c.jalr	a4
   14bdc: 41 bf        	c.j	0x14b6c <__call_exitprocs+0x60>

0000000000014bde <atexit>:
   14bde: aa 85        	c.mv	a1, a0
   14be0: 81 46        	c.li	a3, 0x0
   14be2: 01 46        	c.li	a2, 0x0
   14be4: 01 45        	c.li	a0, 0x0
   14be6: 6f 40 a0 01  	jal	zero, 0x18c00 <__register_exitproc>

0000000000014bea <_malloc_trim_r>:
   14bea: 79 71        	c.addi16sp	sp, -0x30
   14bec: 4e e4        	c.sdsp	s3, 0x8(sp)
   14bee: b7 99 02 00  	lui	s3, 0x29
   14bf2: 22 f0        	c.sdsp	s0, 0x20(sp)
   14bf4: 26 ec        	c.sdsp	s1, 0x18(sp)
   14bf6: 4a e8        	c.sdsp	s2, 0x10(sp)
   14bf8: 52 e0        	c.sdsp	s4, 0x0(sp)
   14bfa: 06 f4        	c.sdsp	ra, 0x28(sp)
   14bfc: 2e 8a        	c.mv	s4, a1
   14bfe: 2a 89        	c.mv	s2, a0
   14c00: 93 89 09 e1  	addi	s3, s3, -0x1f0
   14c04: ef 00 90 10  	jal	ra, 0x1550c <__malloc_lock>
   14c08: 03 b7 09 01  	ld	a4, 0x10(s3)
   14c0c: 85 67        	c.lui	a5, 0x1
   14c0e: 93 87 f7 fd  	addi	a5, a5, -0x21
   14c12: 04 67        	c.ld	s1, 0x8(a4)
   14c14: 05 67        	c.lui	a4, 0x1
   14c16: f1 98        	c.andi	s1, -0x4
   14c18: 33 84 f4 00  	add	s0, s1, a5
   14c1c: 33 04 44 41  	sub	s0, s0, s4
   14c20: 31 80        	c.srli	s0, 0xc
   14c22: 7d 14        	c.addi	s0, -0x1
   14c24: 32 04        	c.slli	s0, 0xc
   14c26: 63 4b e4 00  	blt	s0, a4, 0x14c3c <_malloc_trim_r+0x52>
   14c2a: 81 45        	c.li	a1, 0x0
   14c2c: 4a 85        	c.mv	a0, s2
   14c2e: ef 30 90 4f  	jal	ra, 0x18926 <_sbrk_r>
   14c32: 83 b7 09 01  	ld	a5, 0x10(s3)
   14c36: a6 97        	c.add	a5, s1
   14c38: 63 0e f5 00  	beq	a0, a5, 0x14c54 <_malloc_trim_r+0x6a>
   14c3c: 4a 85        	c.mv	a0, s2
   14c3e: ef 00 10 0d  	jal	ra, 0x1550e <__malloc_unlock>
   14c42: a2 70        	c.ldsp	ra, 0x28(sp)
   14c44: 02 74        	c.ldsp	s0, 0x20(sp)
   14c46: e2 64        	c.ldsp	s1, 0x18(sp)
   14c48: 42 69        	c.ldsp	s2, 0x10(sp)
   14c4a: a2 69        	c.ldsp	s3, 0x8(sp)
   14c4c: 02 6a        	c.ldsp	s4, 0x0(sp)
   14c4e: 01 45        	c.li	a0, 0x0
   14c50: 45 61        	c.addi16sp	sp, 0x30
   14c52: 82 80        	c.jr	ra
   14c54: b3 05 80 40  	sub	a1, zero, s0
   14c58: 4a 85        	c.mv	a0, s2
   14c5a: ef 30 d0 4c  	jal	ra, 0x18926 <_sbrk_r>
   14c5e: fd 57        	c.li	a5, -0x1
   14c60: 63 09 f5 02  	beq	a0, a5, 0x14c92 <_malloc_trim_r+0xa8>
   14c64: 93 87 01 4c  	addi	a5, gp, 0x4c0
   14c68: 98 43        	c.lw	a4, 0x0(a5)
   14c6a: 83 b6 09 01  	ld	a3, 0x10(s3)
   14c6e: 81 8c        	c.sub	s1, s0
   14c70: 93 e4 14 00  	ori	s1, s1, 0x1
   14c74: 01 9f        	c.subw	a4, s0
   14c76: 4a 85        	c.mv	a0, s2
   14c78: 84 e6        	c.sd	s1, 0x8(a3)
   14c7a: 98 c3        	c.sw	a4, 0x0(a5)
   14c7c: ef 00 30 09  	jal	ra, 0x1550e <__malloc_unlock>
   14c80: a2 70        	c.ldsp	ra, 0x28(sp)
   14c82: 02 74        	c.ldsp	s0, 0x20(sp)
   14c84: e2 64        	c.ldsp	s1, 0x18(sp)
   14c86: 42 69        	c.ldsp	s2, 0x10(sp)
   14c88: a2 69        	c.ldsp	s3, 0x8(sp)
   14c8a: 02 6a        	c.ldsp	s4, 0x0(sp)
   14c8c: 05 45        	c.li	a0, 0x1
   14c8e: 45 61        	c.addi16sp	sp, 0x30
   14c90: 82 80        	c.jr	ra
   14c92: 81 45        	c.li	a1, 0x0
   14c94: 4a 85        	c.mv	a0, s2
   14c96: ef 30 10 49  	jal	ra, 0x18926 <_sbrk_r>
   14c9a: 03 b7 09 01  	ld	a4, 0x10(s3)
   14c9e: fd 46        	c.li	a3, 0x1f
   14ca0: b3 07 e5 40  	sub	a5, a0, a4
   14ca4: e3 dc f6 f8  	bge	a3, a5, 0x14c3c <_malloc_trim_r+0x52>
   14ca8: 83 b6 81 20  	ld	a3, 0x208(gp)
   14cac: 93 e7 17 00  	ori	a5, a5, 0x1
   14cb0: 1c e7        	c.sd	a5, 0x8(a4)
   14cb2: 15 8d        	c.sub	a0, a3
   14cb4: 23 a0 a1 4c  	sw	a0, 0x4c0(gp)
   14cb8: 51 b7        	c.j	0x14c3c <_malloc_trim_r+0x52>

0000000000014cba <_free_r>:
   14cba: 63 83 05 12  	beq	a1, zero, 0x14de0 <_free_r+0x126>
   14cbe: 01 11        	c.addi	sp, -0x20
   14cc0: 22 e8        	c.sdsp	s0, 0x10(sp)
   14cc2: 26 e4        	c.sdsp	s1, 0x8(sp)
   14cc4: 2e 84        	c.mv	s0, a1
   14cc6: aa 84        	c.mv	s1, a0
   14cc8: 06 ec        	c.sdsp	ra, 0x18(sp)
   14cca: ef 00 30 04  	jal	ra, 0x1550c <__malloc_lock>
   14cce: 03 35 84 ff  	ld	a0, -0x8(s0)
   14cd2: 13 07 04 ff  	addi	a4, s0, -0x10
   14cd6: b7 95 02 00  	lui	a1, 0x29
   14cda: 93 77 e5 ff  	andi	a5, a0, -0x2
   14cde: 33 06 f7 00  	add	a2, a4, a5
   14ce2: 93 85 05 e1  	addi	a1, a1, -0x1f0
   14ce6: 14 66        	c.ld	a3, 0x8(a2)
   14ce8: 03 b8 05 01  	ld	a6, 0x10(a1)
   14cec: f1 9a        	c.andi	a3, -0x4
   14cee: 63 0c c8 12  	beq	a6, a2, 0x14e26 <_free_r+0x16c>
   14cf2: 14 e6        	c.sd	a3, 0x8(a2)
   14cf4: 05 89        	c.andi	a0, 0x1
   14cf6: 33 08 d6 00  	add	a6, a2, a3
   14cfa: 41 e1        	c.bnez	a0, 0x14d7a <_free_r+0xc0>
   14cfc: 03 33 04 ff  	ld	t1, -0x10(s0)
   14d00: 03 38 88 00  	ld	a6, 0x8(a6)
   14d04: 37 95 02 00  	lui	a0, 0x29
   14d08: 33 07 67 40  	sub	a4, a4, t1
   14d0c: 83 38 07 01  	ld	a7, 0x10(a4)
   14d10: 13 05 05 e2  	addi	a0, a0, -0x1e0
   14d14: 9a 97        	c.add	a5, t1
   14d16: 13 78 18 00  	andi	a6, a6, 0x1
   14d1a: 63 89 a8 0e  	beq	a7, a0, 0x14e0c <_free_r+0x152>
   14d1e: 03 33 87 01  	ld	t1, 0x18(a4)
   14d22: 23 bc 68 00  	sd	t1, 0x18(a7)
   14d26: 23 38 13 01  	sd	a7, 0x10(t1)
   14d2a: 63 07 08 12  	beq	a6, zero, 0x14e58 <_free_r+0x19e>
   14d2e: 93 e6 17 00  	ori	a3, a5, 0x1
   14d32: 14 e7        	c.sd	a3, 0x8(a4)
   14d34: 1c e2        	c.sd	a5, 0x0(a2)
   14d36: 93 06 f0 1f  	addi	a3, zero, 0x1ff
   14d3a: 63 ed f6 04  	bltu	a3, a5, 0x14d94 <_free_r+0xda>
   14d3e: 8d 83        	c.srli	a5, 0x3
   14d40: 9b 86 17 00  	addiw	a3, a5, 0x1
   14d44: 9b 96 16 00  	slliw	a3, a3, 0x1
   14d48: 8e 06        	c.slli	a3, 0x3
   14d4a: 03 b8 85 00  	ld	a6, 0x8(a1)
   14d4e: ae 96        	c.add	a3, a1
   14d50: 88 62        	c.ld	a0, 0x0(a3)
   14d52: 1b d6 27 40  	sraiw	a2, a5, 0x2
   14d56: 85 47        	c.li	a5, 0x1
   14d58: b3 97 c7 00  	sll	a5, a5, a2
   14d5c: b3 e7 07 01  	or	a5, a5, a6
   14d60: 13 86 06 ff  	addi	a2, a3, -0x10
   14d64: 10 ef        	c.sd	a2, 0x18(a4)
   14d66: 08 eb        	c.sd	a0, 0x10(a4)
   14d68: 9c e5        	c.sd	a5, 0x8(a1)
   14d6a: 98 e2        	c.sd	a4, 0x0(a3)
   14d6c: 18 ed        	c.sd	a4, 0x18(a0)
   14d6e: 42 64        	c.ldsp	s0, 0x10(sp)
   14d70: e2 60        	c.ldsp	ra, 0x18(sp)
   14d72: 26 85        	c.mv	a0, s1
   14d74: a2 64        	c.ldsp	s1, 0x8(sp)
   14d76: 05 61        	c.addi16sp	sp, 0x20
   14d78: 59 af        	c.j	0x1550e <__malloc_unlock>
   14d7a: 03 35 88 00  	ld	a0, 0x8(a6)
   14d7e: 05 89        	c.andi	a0, 0x1
   14d80: 2d c1        	c.beqz	a0, 0x14de2 <_free_r+0x128>
   14d82: 93 e6 17 00  	ori	a3, a5, 0x1
   14d86: 23 3c d4 fe  	sd	a3, -0x8(s0)
   14d8a: 1c e2        	c.sd	a5, 0x0(a2)
   14d8c: 93 06 f0 1f  	addi	a3, zero, 0x1ff
   14d90: e3 f7 f6 fa  	bgeu	a3, a5, 0x14d3e <_free_r+0x84>
   14d94: 93 d6 97 00  	srli	a3, a5, 0x9
   14d98: 11 46        	c.li	a2, 0x4
   14d9a: 63 61 d6 0c  	bltu	a2, a3, 0x14e5c <_free_r+0x1a2>
   14d9e: 93 d6 67 00  	srli	a3, a5, 0x6
   14da2: 1b 85 96 03  	addiw	a0, a3, 0x39
   14da6: 1b 15 15 00  	slliw	a0, a0, 0x1
   14daa: 1b 86 86 03  	addiw	a2, a3, 0x38
   14dae: 0e 05        	c.slli	a0, 0x3
   14db0: 2e 95        	c.add	a0, a1
   14db2: 14 61        	c.ld	a3, 0x0(a0)
   14db4: 41 15        	c.addi	a0, -0x10
   14db6: 63 16 d5 00  	bne	a0, a3, 0x14dc2 <_free_r+0x108>
   14dba: e5 a0        	c.j	0x14ea2 <_free_r+0x1e8>
   14dbc: 94 6a        	c.ld	a3, 0x10(a3)
   14dbe: 63 06 d5 00  	beq	a0, a3, 0x14dca <_free_r+0x110>
   14dc2: 90 66        	c.ld	a2, 0x8(a3)
   14dc4: 71 9a        	c.andi	a2, -0x4
   14dc6: e3 eb c7 fe  	bltu	a5, a2, 0x14dbc <_free_r+0x102>
   14dca: 88 6e        	c.ld	a0, 0x18(a3)
   14dcc: 08 ef        	c.sd	a0, 0x18(a4)
   14dce: 14 eb        	c.sd	a3, 0x10(a4)
   14dd0: 42 64        	c.ldsp	s0, 0x10(sp)
   14dd2: 18 e9        	c.sd	a4, 0x10(a0)
   14dd4: e2 60        	c.ldsp	ra, 0x18(sp)
   14dd6: 26 85        	c.mv	a0, s1
   14dd8: a2 64        	c.ldsp	s1, 0x8(sp)
   14dda: 98 ee        	c.sd	a4, 0x18(a3)
   14ddc: 05 61        	c.addi16sp	sp, 0x20
   14dde: 05 af        	c.j	0x1550e <__malloc_unlock>
   14de0: 82 80        	c.jr	ra
   14de2: 37 95 02 00  	lui	a0, 0x29
   14de6: b6 97        	c.add	a5, a3
   14de8: 13 05 05 e2  	addi	a0, a0, -0x1e0
   14dec: 14 6a        	c.ld	a3, 0x10(a2)
   14dee: 63 80 a6 0a  	beq	a3, a0, 0x14e8e <_free_r+0x1d4>
   14df2: 03 38 86 01  	ld	a6, 0x18(a2)
   14df6: 13 e5 17 00  	ori	a0, a5, 0x1
   14dfa: 33 06 f7 00  	add	a2, a4, a5
   14dfe: 23 bc 06 01  	sd	a6, 0x18(a3)
   14e02: 23 38 d8 00  	sd	a3, 0x10(a6)
   14e06: 08 e7        	c.sd	a0, 0x8(a4)
   14e08: 1c e2        	c.sd	a5, 0x0(a2)
   14e0a: 35 b7        	c.j	0x14d36 <_free_r+0x7c>
   14e0c: 63 17 08 0e  	bne	a6, zero, 0x14efa <_free_r+0x240>
   14e10: 0c 6a        	c.ld	a1, 0x10(a2)
   14e12: 10 6e        	c.ld	a2, 0x18(a2)
   14e14: be 96        	c.add	a3, a5
   14e16: 93 e7 16 00  	ori	a5, a3, 0x1
   14e1a: 90 ed        	c.sd	a2, 0x18(a1)
   14e1c: 0c ea        	c.sd	a1, 0x10(a2)
   14e1e: 1c e7        	c.sd	a5, 0x8(a4)
   14e20: 36 97        	c.add	a4, a3
   14e22: 14 e3        	c.sd	a3, 0x0(a4)
   14e24: a9 b7        	c.j	0x14d6e <_free_r+0xb4>
   14e26: 05 89        	c.andi	a0, 0x1
   14e28: be 96        	c.add	a3, a5
   14e2a: 09 e9        	c.bnez	a0, 0x14e3c <_free_r+0x182>
   14e2c: 03 35 04 ff  	ld	a0, -0x10(s0)
   14e30: 09 8f        	c.sub	a4, a0
   14e32: 1c 6f        	c.ld	a5, 0x18(a4)
   14e34: 10 6b        	c.ld	a2, 0x10(a4)
   14e36: aa 96        	c.add	a3, a0
   14e38: 1c ee        	c.sd	a5, 0x18(a2)
   14e3a: 90 eb        	c.sd	a2, 0x10(a5)
   14e3c: 13 e6 16 00  	ori	a2, a3, 0x1
   14e40: 83 b7 01 21  	ld	a5, 0x210(gp)
   14e44: 10 e7        	c.sd	a2, 0x8(a4)
   14e46: 98 e9        	c.sd	a4, 0x10(a1)
   14e48: e3 e3 f6 f2  	bltu	a3, a5, 0x14d6e <_free_r+0xb4>
   14e4c: 83 b5 01 26  	ld	a1, 0x260(gp)
   14e50: 26 85        	c.mv	a0, s1
   14e52: ef f0 9f d9  	jal	ra, 0x14bea <_malloc_trim_r>
   14e56: 21 bf        	c.j	0x14d6e <_free_r+0xb4>
   14e58: b6 97        	c.add	a5, a3
   14e5a: 49 bf        	c.j	0x14dec <_free_r+0x132>
   14e5c: 51 46        	c.li	a2, 0x14
   14e5e: 63 70 d6 02  	bgeu	a2, a3, 0x14e7e <_free_r+0x1c4>
   14e62: 13 06 40 05  	addi	a2, zero, 0x54
   14e66: 63 69 d6 04  	bltu	a2, a3, 0x14eb8 <_free_r+0x1fe>
   14e6a: 93 d6 c7 00  	srli	a3, a5, 0xc
   14e6e: 1b 85 f6 06  	addiw	a0, a3, 0x6f
   14e72: 1b 15 15 00  	slliw	a0, a0, 0x1
   14e76: 1b 86 e6 06  	addiw	a2, a3, 0x6e
   14e7a: 0e 05        	c.slli	a0, 0x3
   14e7c: 15 bf        	c.j	0x14db0 <_free_r+0xf6>
   14e7e: 1b 85 c6 05  	addiw	a0, a3, 0x5c
   14e82: 1b 15 15 00  	slliw	a0, a0, 0x1
   14e86: 1b 86 b6 05  	addiw	a2, a3, 0x5b
   14e8a: 0e 05        	c.slli	a0, 0x3
   14e8c: 15 b7        	c.j	0x14db0 <_free_r+0xf6>
   14e8e: 98 f5        	c.sd	a4, 0x28(a1)
   14e90: 98 f1        	c.sd	a4, 0x20(a1)
   14e92: 93 e6 17 00  	ori	a3, a5, 0x1
   14e96: 08 ef        	c.sd	a0, 0x18(a4)
   14e98: 08 eb        	c.sd	a0, 0x10(a4)
   14e9a: 14 e7        	c.sd	a3, 0x8(a4)
   14e9c: 3e 97        	c.add	a4, a5
   14e9e: 1c e3        	c.sd	a5, 0x0(a4)
   14ea0: f9 b5        	c.j	0x14d6e <_free_r+0xb4>
   14ea2: 03 b8 85 00  	ld	a6, 0x8(a1)
   14ea6: 1b 56 26 40  	sraiw	a2, a2, 0x2
   14eaa: 85 47        	c.li	a5, 0x1
   14eac: b3 97 c7 00  	sll	a5, a5, a2
   14eb0: b3 e7 07 01  	or	a5, a5, a6
   14eb4: 9c e5        	c.sd	a5, 0x8(a1)
   14eb6: 19 bf        	c.j	0x14dcc <_free_r+0x112>
   14eb8: 13 06 40 15  	addi	a2, zero, 0x154
   14ebc: 63 6c d6 00  	bltu	a2, a3, 0x14ed4 <_free_r+0x21a>
   14ec0: 93 d6 f7 00  	srli	a3, a5, 0xf
   14ec4: 1b 85 86 07  	addiw	a0, a3, 0x78
   14ec8: 1b 15 15 00  	slliw	a0, a0, 0x1
   14ecc: 1b 86 76 07  	addiw	a2, a3, 0x77
   14ed0: 0e 05        	c.slli	a0, 0x3
   14ed2: f9 bd        	c.j	0x14db0 <_free_r+0xf6>
   14ed4: 13 06 40 55  	addi	a2, zero, 0x554
   14ed8: 63 6c d6 00  	bltu	a2, a3, 0x14ef0 <_free_r+0x236>
   14edc: 93 d6 27 01  	srli	a3, a5, 0x12
   14ee0: 1b 85 d6 07  	addiw	a0, a3, 0x7d
   14ee4: 1b 15 15 00  	slliw	a0, a0, 0x1
   14ee8: 1b 86 c6 07  	addiw	a2, a3, 0x7c
   14eec: 0e 05        	c.slli	a0, 0x3
   14eee: c9 b5        	c.j	0x14db0 <_free_r+0xf6>
   14ef0: 13 05 00 7f  	addi	a0, zero, 0x7f0
   14ef4: 13 06 e0 07  	addi	a2, zero, 0x7e
   14ef8: 65 bd        	c.j	0x14db0 <_free_r+0xf6>
   14efa: 93 e6 17 00  	ori	a3, a5, 0x1
   14efe: 14 e7        	c.sd	a3, 0x8(a4)
   14f00: 1c e2        	c.sd	a5, 0x0(a2)
   14f02: b5 b5        	c.j	0x14d6e <_free_r+0xb4>

0000000000014f04 <_malloc_r>:
   14f04: 1d 71        	c.addi16sp	sp, -0x60
   14f06: a6 e4        	c.sdsp	s1, 0x48(sp)
   14f08: ca e0        	c.sdsp	s2, 0x40(sp)
   14f0a: 86 ec        	c.sdsp	ra, 0x58(sp)
   14f0c: a2 e8        	c.sdsp	s0, 0x50(sp)
   14f0e: 4e fc        	c.sdsp	s3, 0x38(sp)
   14f10: 93 84 75 01  	addi	s1, a1, 0x17
   14f14: 93 07 e0 02  	addi	a5, zero, 0x2e
   14f18: 2a 89        	c.mv	s2, a0
   14f1a: 63 ee 97 04  	bltu	a5, s1, 0x14f76 <_malloc_r+0x72>
   14f1e: 93 07 00 02  	addi	a5, zero, 0x20
   14f22: 63 ec b7 18  	bltu	a5, a1, 0x150ba <_malloc_r+0x1b6>
   14f26: ef 00 60 5e  	jal	ra, 0x1550c <__malloc_lock>
   14f2a: 93 07 00 05  	addi	a5, zero, 0x50
   14f2e: 91 45        	c.li	a1, 0x4
   14f30: 93 04 00 02  	addi	s1, zero, 0x20
   14f34: b7 99 02 00  	lui	s3, 0x29
   14f38: 93 89 09 e1  	addi	s3, s3, -0x1f0
   14f3c: ce 97        	c.add	a5, s3
   14f3e: 80 67        	c.ld	s0, 0x8(a5)
   14f40: 13 87 07 ff  	addi	a4, a5, -0x10
   14f44: 63 0f e4 26  	beq	s0, a4, 0x151c2 <_malloc_r+0x2be>
   14f48: 1c 64        	c.ld	a5, 0x8(s0)
   14f4a: 14 6c        	c.ld	a3, 0x18(s0)
   14f4c: 10 68        	c.ld	a2, 0x10(s0)
   14f4e: f1 9b        	c.andi	a5, -0x4
   14f50: a2 97        	c.add	a5, s0
   14f52: 98 67        	c.ld	a4, 0x8(a5)
   14f54: 14 ee        	c.sd	a3, 0x18(a2)
   14f56: 90 ea        	c.sd	a2, 0x10(a3)
   14f58: 13 67 17 00  	ori	a4, a4, 0x1
   14f5c: 4a 85        	c.mv	a0, s2
   14f5e: 98 e7        	c.sd	a4, 0x8(a5)
   14f60: ef 00 e0 5a  	jal	ra, 0x1550e <__malloc_unlock>
   14f64: 13 05 04 01  	addi	a0, s0, 0x10
   14f68: e6 60        	c.ldsp	ra, 0x58(sp)
   14f6a: 46 64        	c.ldsp	s0, 0x50(sp)
   14f6c: a6 64        	c.ldsp	s1, 0x48(sp)
   14f6e: 06 69        	c.ldsp	s2, 0x40(sp)
   14f70: e2 79        	c.ldsp	s3, 0x38(sp)
   14f72: 25 61        	c.addi16sp	sp, 0x60
   14f74: 82 80        	c.jr	ra
   14f76: b7 07 00 80  	lui	a5, 0x80000
   14f7a: c1 98        	c.andi	s1, -0x10
   14f7c: 93 c7 f7 ff  	xori	a5, a5, -0x1
   14f80: 63 ed 97 12  	bltu	a5, s1, 0x150ba <_malloc_r+0x1b6>
   14f84: 63 eb b4 12  	bltu	s1, a1, 0x150ba <_malloc_r+0x1b6>
   14f88: ef 00 40 58  	jal	ra, 0x1550c <__malloc_lock>
   14f8c: 93 07 70 1f  	addi	a5, zero, 0x1f7
   14f90: 63 f4 97 32  	bgeu	a5, s1, 0x152b8 <_malloc_r+0x3b4>
   14f94: 93 d7 94 00  	srli	a5, s1, 0x9
   14f98: 63 86 07 12  	beq	a5, zero, 0x150c4 <_malloc_r+0x1c0>
   14f9c: 11 47        	c.li	a4, 0x4
   14f9e: 63 69 f7 26  	bltu	a4, a5, 0x15210 <_malloc_r+0x30c>
   14fa2: 93 d7 64 00  	srli	a5, s1, 0x6
   14fa6: 9b 85 97 03  	addiw	a1, a5, 0x39
   14faa: 1b 96 15 00  	slliw	a2, a1, 0x1
   14fae: 1b 88 87 03  	addiw	a6, a5, 0x38
   14fb2: 0e 06        	c.slli	a2, 0x3
   14fb4: b7 99 02 00  	lui	s3, 0x29
   14fb8: 93 89 09 e1  	addi	s3, s3, -0x1f0
   14fbc: 4e 96        	c.add	a2, s3
   14fbe: 00 66        	c.ld	s0, 0x8(a2)
   14fc0: 41 16        	c.addi	a2, -0x10
   14fc2: 63 01 86 02  	beq	a2, s0, 0x14fe4 <_malloc_r+0xe0>
   14fc6: 7d 45        	c.li	a0, 0x1f
   14fc8: 39 a0        	c.j	0x14fd6 <_malloc_r+0xd2>
   14fca: 14 6c        	c.ld	a3, 0x18(s0)
   14fcc: 63 59 07 1e  	bge	a4, zero, 0x151be <_malloc_r+0x2ba>
   14fd0: 63 0a d6 00  	beq	a2, a3, 0x14fe4 <_malloc_r+0xe0>
   14fd4: 36 84        	c.mv	s0, a3
   14fd6: 1c 64        	c.ld	a5, 0x8(s0)
   14fd8: f1 9b        	c.andi	a5, -0x4
   14fda: 33 87 97 40  	sub	a4, a5, s1
   14fde: e3 56 e5 fe  	bge	a0, a4, 0x14fca <_malloc_r+0xc6>
   14fe2: c2 85        	c.mv	a1, a6
   14fe4: 03 b4 09 02  	ld	s0, 0x20(s3)
   14fe8: 37 98 02 00  	lui	a6, 0x29
   14fec: 13 08 08 e2  	addi	a6, a6, -0x1e0
   14ff0: 63 04 04 1d  	beq	s0, a6, 0x151b8 <_malloc_r+0x2b4>
   14ff4: 1c 64        	c.ld	a5, 0x8(s0)
   14ff6: fd 46        	c.li	a3, 0x1f
   14ff8: f1 9b        	c.andi	a5, -0x4
   14ffa: 33 87 97 40  	sub	a4, a5, s1
   14ffe: 63 c6 e6 28  	blt	a3, a4, 0x1528a <_malloc_r+0x386>
   15002: 23 b4 09 03  	sd	a6, 0x28(s3)
   15006: 23 b0 09 03  	sd	a6, 0x20(s3)
   1500a: 63 55 07 26  	bge	a4, zero, 0x15274 <_malloc_r+0x370>
   1500e: 13 07 f0 1f  	addi	a4, zero, 0x1ff
   15012: 03 b5 89 00  	ld	a0, 0x8(s3)
   15016: 63 6b f7 1a  	bltu	a4, a5, 0x151cc <_malloc_r+0x2c8>
   1501a: 8d 83        	c.srli	a5, 0x3
   1501c: 1b 87 17 00  	addiw	a4, a5, 0x1
   15020: 1b 17 17 00  	slliw	a4, a4, 0x1
   15024: 0e 07        	c.slli	a4, 0x3
   15026: 4e 97        	c.add	a4, s3
   15028: 10 63        	c.ld	a2, 0x0(a4)
   1502a: 9b d7 27 40  	sraiw	a5, a5, 0x2
   1502e: 85 46        	c.li	a3, 0x1
   15030: b3 97 f6 00  	sll	a5, a3, a5
   15034: 5d 8d        	c.or	a0, a5
   15036: 93 07 07 ff  	addi	a5, a4, -0x10
   1503a: 1c ec        	c.sd	a5, 0x18(s0)
   1503c: 10 e8        	c.sd	a2, 0x10(s0)
   1503e: 23 b4 a9 00  	sd	a0, 0x8(s3)
   15042: 00 e3        	c.sd	s0, 0x0(a4)
   15044: 00 ee        	c.sd	s0, 0x18(a2)
   15046: 9b d7 25 40  	sraiw	a5, a1, 0x2
   1504a: 05 46        	c.li	a2, 0x1
   1504c: 33 16 f6 00  	sll	a2, a2, a5
   15050: 63 61 c5 08  	bltu	a0, a2, 0x150d2 <_malloc_r+0x1ce>
   15054: b3 77 a6 00  	and	a5, a2, a0
   15058: 81 ef        	c.bnez	a5, 0x15070 <_malloc_r+0x16c>
   1505a: 06 06        	c.slli	a2, 0x1
   1505c: f1 99        	c.andi	a1, -0x4
   1505e: b3 77 a6 00  	and	a5, a2, a0
   15062: 91 25        	c.addiw	a1, 0x4
   15064: 91 e7        	c.bnez	a5, 0x15070 <_malloc_r+0x16c>
   15066: 06 06        	c.slli	a2, 0x1
   15068: b3 77 a6 00  	and	a5, a2, a0
   1506c: 91 25        	c.addiw	a1, 0x4
   1506e: e5 df        	c.beqz	a5, 0x15066 <_malloc_r+0x162>
   15070: fd 48        	c.li	a7, 0x1f
   15072: 1b 83 15 00  	addiw	t1, a1, 0x1
   15076: 1b 13 13 00  	slliw	t1, t1, 0x1
   1507a: 0e 03        	c.slli	t1, 0x3
   1507c: 41 13        	c.addi	t1, -0x10
   1507e: 4e 93        	c.add	t1, s3
   15080: 1a 85        	c.mv	a0, t1
   15082: 1c 6d        	c.ld	a5, 0x18(a0)
   15084: 2e 8e        	c.mv	t3, a1
   15086: 63 06 f5 1a  	beq	a0, a5, 0x15232 <_malloc_r+0x32e>
   1508a: 98 67        	c.ld	a4, 0x8(a5)
   1508c: 3e 84        	c.mv	s0, a5
   1508e: 9c 6f        	c.ld	a5, 0x18(a5)
   15090: 71 9b        	c.andi	a4, -0x4
   15092: b3 06 97 40  	sub	a3, a4, s1
   15096: 63 c5 d8 1a  	blt	a7, a3, 0x15240 <_malloc_r+0x33c>
   1509a: e3 c6 06 fe  	blt	a3, zero, 0x15086 <_malloc_r+0x182>
   1509e: 22 97        	c.add	a4, s0
   150a0: 14 67        	c.ld	a3, 0x8(a4)
   150a2: 10 68        	c.ld	a2, 0x10(s0)
   150a4: 4a 85        	c.mv	a0, s2
   150a6: 93 e6 16 00  	ori	a3, a3, 0x1
   150aa: 14 e7        	c.sd	a3, 0x8(a4)
   150ac: 1c ee        	c.sd	a5, 0x18(a2)
   150ae: 90 eb        	c.sd	a2, 0x10(a5)
   150b0: ef 00 e0 45  	jal	ra, 0x1550e <__malloc_unlock>
   150b4: 13 05 04 01  	addi	a0, s0, 0x10
   150b8: 45 bd        	c.j	0x14f68 <_malloc_r+0x64>
   150ba: b1 47        	c.li	a5, 0xc
   150bc: 23 20 f9 00  	sw	a5, 0x0(s2)
   150c0: 01 45        	c.li	a0, 0x0
   150c2: 5d b5        	c.j	0x14f68 <_malloc_r+0x64>
   150c4: 13 06 00 40  	addi	a2, zero, 0x400
   150c8: 93 05 00 04  	addi	a1, zero, 0x40
   150cc: 13 08 f0 03  	addi	a6, zero, 0x3f
   150d0: d5 b5        	c.j	0x14fb4 <_malloc_r+0xb0>
   150d2: 03 b4 09 01  	ld	s0, 0x10(s3)
   150d6: 56 f4        	c.sdsp	s5, 0x28(sp)
   150d8: 1c 64        	c.ld	a5, 0x8(s0)
   150da: 93 fa c7 ff  	andi	s5, a5, -0x4
   150de: 63 e7 9a 00  	bltu	s5, s1, 0x150ec <_malloc_r+0x1e8>
   150e2: 33 87 9a 40  	sub	a4, s5, s1
   150e6: fd 47        	c.li	a5, 0x1f
   150e8: 63 c2 e7 0a  	blt	a5, a4, 0x1518c <_malloc_r+0x288>
   150ec: 66 e4        	c.sdsp	s9, 0x8(sp)
   150ee: 52 f8        	c.sdsp	s4, 0x30(sp)
   150f0: 03 b7 81 20  	ld	a4, 0x208(gp)
   150f4: 03 ba 01 26  	ld	s4, 0x260(gp)
   150f8: 62 e8        	c.sdsp	s8, 0x10(sp)
   150fa: 5a f0        	c.sdsp	s6, 0x20(sp)
   150fc: fd 57        	c.li	a5, -0x1
   150fe: 33 0c 54 01  	add	s8, s0, s5
   15102: 26 9a        	c.add	s4, s1
   15104: 63 08 f7 2e  	beq	a4, a5, 0x153f4 <_malloc_r+0x4f0>
   15108: 85 67        	c.lui	a5, 0x1
   1510a: fd 07        	c.addi	a5, 0x1f
   1510c: 3e 9a        	c.add	s4, a5
   1510e: fd 77        	c.lui	a5, 0xfffff
   15110: 33 7a fa 00  	and	s4, s4, a5
   15114: d2 85        	c.mv	a1, s4
   15116: 4a 85        	c.mv	a0, s2
   15118: ef 30 f0 00  	jal	ra, 0x18926 <_sbrk_r>
   1511c: fd 57        	c.li	a5, -0x1
   1511e: 2a 8b        	c.mv	s6, a0
   15120: 63 00 f5 36  	beq	a0, a5, 0x15480 <_malloc_r+0x57c>
   15124: 5e ec        	c.sdsp	s7, 0x18(sp)
   15126: 63 6c 85 1b  	bltu	a0, s8, 0x152de <_malloc_r+0x3da>
   1512a: 93 8b 01 4c  	addi	s7, gp, 0x4c0
   1512e: 83 a7 0b 00  	lw	a5, 0x0(s7)
   15132: 3b 87 47 01  	addw	a4, a5, s4
   15136: 23 a0 eb 00  	sw	a4, 0x0(s7)
   1513a: ba 86        	c.mv	a3, a4
   1513c: 63 17 ac 20  	bne	s8, a0, 0x1534a <_malloc_r+0x446>
   15140: 93 17 45 03  	slli	a5, a0, 0x34
   15144: 63 93 07 20  	bne	a5, zero, 0x1534a <_malloc_r+0x446>
   15148: 03 bb 09 01  	ld	s6, 0x10(s3)
   1514c: b3 87 4a 01  	add	a5, s5, s4
   15150: 93 e7 17 00  	ori	a5, a5, 0x1
   15154: 23 34 fb 00  	sd	a5, 0x8(s6)
   15158: 03 b6 81 25  	ld	a2, 0x258(gp)
   1515c: 63 74 e6 00  	bgeu	a2, a4, 0x15164 <_malloc_r+0x260>
   15160: 23 bc e1 24  	sd	a4, 0x258(gp)
   15164: 03 b6 01 25  	ld	a2, 0x250(gp)
   15168: 63 74 e6 00  	bgeu	a2, a4, 0x15170 <_malloc_r+0x26c>
   1516c: 23 b8 e1 24  	sd	a4, 0x250(gp)
   15170: e2 6b        	c.ldsp	s7, 0x18(sp)
   15172: 5a 84        	c.mv	s0, s6
   15174: f1 9b        	c.andi	a5, -0x4
   15176: 33 87 97 40  	sub	a4, a5, s1
   1517a: 63 ed 97 2a  	bltu	a5, s1, 0x15434 <_malloc_r+0x530>
   1517e: fd 47        	c.li	a5, 0x1f
   15180: 63 da e7 2a  	bge	a5, a4, 0x15434 <_malloc_r+0x530>
   15184: 42 7a        	c.ldsp	s4, 0x30(sp)
   15186: 02 7b        	c.ldsp	s6, 0x20(sp)
   15188: 42 6c        	c.ldsp	s8, 0x10(sp)
   1518a: a2 6c        	c.ldsp	s9, 0x8(sp)
   1518c: 93 e7 14 00  	ori	a5, s1, 0x1
   15190: 1c e4        	c.sd	a5, 0x8(s0)
   15192: a2 94        	c.add	s1, s0
   15194: 23 b8 99 00  	sd	s1, 0x10(s3)
   15198: 13 67 17 00  	ori	a4, a4, 0x1
   1519c: 4a 85        	c.mv	a0, s2
   1519e: 98 e4        	c.sd	a4, 0x8(s1)
   151a0: ef 00 e0 36  	jal	ra, 0x1550e <__malloc_unlock>
   151a4: e6 60        	c.ldsp	ra, 0x58(sp)
   151a6: 13 05 04 01  	addi	a0, s0, 0x10
   151aa: 46 64        	c.ldsp	s0, 0x50(sp)
   151ac: a2 7a        	c.ldsp	s5, 0x28(sp)
   151ae: a6 64        	c.ldsp	s1, 0x48(sp)
   151b0: 06 69        	c.ldsp	s2, 0x40(sp)
   151b2: e2 79        	c.ldsp	s3, 0x38(sp)
   151b4: 25 61        	c.addi16sp	sp, 0x60
   151b6: 82 80        	c.jr	ra
   151b8: 03 b5 89 00  	ld	a0, 0x8(s3)
   151bc: 69 b5        	c.j	0x15046 <_malloc_r+0x142>
   151be: 10 68        	c.ld	a2, 0x10(s0)
   151c0: 41 bb        	c.j	0x14f50 <_malloc_r+0x4c>
   151c2: 80 6f        	c.ld	s0, 0x18(a5)
   151c4: 89 25        	c.addiw	a1, 0x2
   151c6: e3 8f 87 e0  	beq	a5, s0, 0x14fe4 <_malloc_r+0xe0>
   151ca: bd bb        	c.j	0x14f48 <_malloc_r+0x44>
   151cc: 13 d7 97 00  	srli	a4, a5, 0x9
   151d0: 91 46        	c.li	a3, 0x4
   151d2: 63 fc e6 0e  	bgeu	a3, a4, 0x152ca <_malloc_r+0x3c6>
   151d6: d1 46        	c.li	a3, 0x14
   151d8: 63 e8 e6 26  	bltu	a3, a4, 0x15448 <_malloc_r+0x544>
   151dc: 1b 06 c7 05  	addiw	a2, a4, 0x5c
   151e0: 1b 16 16 00  	slliw	a2, a2, 0x1
   151e4: 9b 06 b7 05  	addiw	a3, a4, 0x5b
   151e8: 0e 06        	c.slli	a2, 0x3
   151ea: 4e 96        	c.add	a2, s3
   151ec: 18 62        	c.ld	a4, 0x0(a2)
   151ee: 41 16        	c.addi	a2, -0x10
   151f0: 63 16 e6 00  	bne	a2, a4, 0x151fc <_malloc_r+0x2f8>
   151f4: 19 a4        	c.j	0x153fa <_malloc_r+0x4f6>
   151f6: 18 6b        	c.ld	a4, 0x10(a4)
   151f8: 63 06 e6 00  	beq	a2, a4, 0x15204 <_malloc_r+0x300>
   151fc: 14 67        	c.ld	a3, 0x8(a4)
   151fe: f1 9a        	c.andi	a3, -0x4
   15200: e3 eb d7 fe  	bltu	a5, a3, 0x151f6 <_malloc_r+0x2f2>
   15204: 10 6f        	c.ld	a2, 0x18(a4)
   15206: 10 ec        	c.sd	a2, 0x18(s0)
   15208: 18 e8        	c.sd	a4, 0x10(s0)
   1520a: 00 ea        	c.sd	s0, 0x10(a2)
   1520c: 00 ef        	c.sd	s0, 0x18(a4)
   1520e: 25 bd        	c.j	0x15046 <_malloc_r+0x142>
   15210: 51 47        	c.li	a4, 0x14
   15212: 63 7d f7 0c  	bgeu	a4, a5, 0x152ec <_malloc_r+0x3e8>
   15216: 13 07 40 05  	addi	a4, zero, 0x54
   1521a: 63 65 f7 24  	bltu	a4, a5, 0x15464 <_malloc_r+0x560>
   1521e: 93 d7 c4 00  	srli	a5, s1, 0xc
   15222: 9b 85 f7 06  	addiw	a1, a5, 0x6f
   15226: 1b 96 15 00  	slliw	a2, a1, 0x1
   1522a: 1b 88 e7 06  	addiw	a6, a5, 0x6e
   1522e: 0e 06        	c.slli	a2, 0x3
   15230: 51 b3        	c.j	0x14fb4 <_malloc_r+0xb0>
   15232: 05 2e        	c.addiw	t3, 0x1
   15234: 93 77 3e 00  	andi	a5, t3, 0x3
   15238: 41 05        	c.addi	a0, 0x10
   1523a: f1 c7        	c.beqz	a5, 0x15306 <_malloc_r+0x402>
   1523c: 1c 6d        	c.ld	a5, 0x18(a0)
   1523e: a1 b5        	c.j	0x15086 <_malloc_r+0x182>
   15240: 10 68        	c.ld	a2, 0x10(s0)
   15242: 93 e5 14 00  	ori	a1, s1, 0x1
   15246: 0c e4        	c.sd	a1, 0x8(s0)
   15248: 1c ee        	c.sd	a5, 0x18(a2)
   1524a: 90 eb        	c.sd	a2, 0x10(a5)
   1524c: a2 94        	c.add	s1, s0
   1524e: 23 b4 99 02  	sd	s1, 0x28(s3)
   15252: 23 b0 99 02  	sd	s1, 0x20(s3)
   15256: 93 e7 16 00  	ori	a5, a3, 0x1
   1525a: 23 bc 04 01  	sd	a6, 0x18(s1)
   1525e: 23 b8 04 01  	sd	a6, 0x10(s1)
   15262: 9c e4        	c.sd	a5, 0x8(s1)
   15264: 22 97        	c.add	a4, s0
   15266: 4a 85        	c.mv	a0, s2
   15268: 14 e3        	c.sd	a3, 0x0(a4)
   1526a: ef 00 40 2a  	jal	ra, 0x1550e <__malloc_unlock>
   1526e: 13 05 04 01  	addi	a0, s0, 0x10
   15272: dd b9        	c.j	0x14f68 <_malloc_r+0x64>
   15274: a2 97        	c.add	a5, s0
   15276: 98 67        	c.ld	a4, 0x8(a5)
   15278: 4a 85        	c.mv	a0, s2
   1527a: 13 67 17 00  	ori	a4, a4, 0x1
   1527e: 98 e7        	c.sd	a4, 0x8(a5)
   15280: ef 00 e0 28  	jal	ra, 0x1550e <__malloc_unlock>
   15284: 13 05 04 01  	addi	a0, s0, 0x10
   15288: c5 b1        	c.j	0x14f68 <_malloc_r+0x64>
   1528a: 93 e6 14 00  	ori	a3, s1, 0x1
   1528e: 14 e4        	c.sd	a3, 0x8(s0)
   15290: a2 94        	c.add	s1, s0
   15292: 23 b4 99 02  	sd	s1, 0x28(s3)
   15296: 23 b0 99 02  	sd	s1, 0x20(s3)
   1529a: 93 66 17 00  	ori	a3, a4, 0x1
   1529e: 23 bc 04 01  	sd	a6, 0x18(s1)
   152a2: 23 b8 04 01  	sd	a6, 0x10(s1)
   152a6: 94 e4        	c.sd	a3, 0x8(s1)
   152a8: a2 97        	c.add	a5, s0
   152aa: 4a 85        	c.mv	a0, s2
   152ac: 98 e3        	c.sd	a4, 0x0(a5)
   152ae: ef 00 00 26  	jal	ra, 0x1550e <__malloc_unlock>
   152b2: 13 05 04 01  	addi	a0, s0, 0x10
   152b6: 4d b9        	c.j	0x14f68 <_malloc_r+0x64>
   152b8: 93 d5 34 00  	srli	a1, s1, 0x3
   152bc: 9b 87 15 00  	addiw	a5, a1, 0x1
   152c0: 9b 97 17 00  	slliw	a5, a5, 0x1
   152c4: 81 25        	c.addiw	a1, 0x0
   152c6: 8e 07        	c.slli	a5, 0x3
   152c8: b5 b1        	c.j	0x14f34 <_malloc_r+0x30>
   152ca: 13 d7 67 00  	srli	a4, a5, 0x6
   152ce: 1b 06 97 03  	addiw	a2, a4, 0x39
   152d2: 1b 16 16 00  	slliw	a2, a2, 0x1
   152d6: 9b 06 87 03  	addiw	a3, a4, 0x38
   152da: 0e 06        	c.slli	a2, 0x3
   152dc: 39 b7        	c.j	0x151ea <_malloc_r+0x2e6>
   152de: 63 0e 34 05  	beq	s0, s3, 0x1533a <_malloc_r+0x436>
   152e2: 03 b4 09 01  	ld	s0, 0x10(s3)
   152e6: e2 6b        	c.ldsp	s7, 0x18(sp)
   152e8: 1c 64        	c.ld	a5, 0x8(s0)
   152ea: 69 b5        	c.j	0x15174 <_malloc_r+0x270>
   152ec: 9b 85 c7 05  	addiw	a1, a5, 0x5c
   152f0: 1b 96 15 00  	slliw	a2, a1, 0x1
   152f4: 1b 88 b7 05  	addiw	a6, a5, 0x5b
   152f8: 0e 06        	c.slli	a2, 0x3
   152fa: 6d b9        	c.j	0x14fb4 <_malloc_r+0xb0>
   152fc: 83 37 03 01  	ld	a5, 0x10(t1)
   15300: fd 35        	c.addiw	a1, -0x1
   15302: 63 92 67 20  	bne	a5, t1, 0x15506 <_malloc_r+0x602>
   15306: 93 f7 35 00  	andi	a5, a1, 0x3
   1530a: 41 13        	c.addi	t1, -0x10
   1530c: e5 fb        	c.bnez	a5, 0x152fc <_malloc_r+0x3f8>
   1530e: 03 b7 89 00  	ld	a4, 0x8(s3)
   15312: 93 47 f6 ff  	xori	a5, a2, -0x1
   15316: f9 8f        	c.and	a5, a4
   15318: 23 b4 f9 00  	sd	a5, 0x8(s3)
   1531c: 06 06        	c.slli	a2, 0x1
   1531e: e3 ea c7 da  	bltu	a5, a2, 0x150d2 <_malloc_r+0x1ce>
   15322: e3 08 06 da  	beq	a2, zero, 0x150d2 <_malloc_r+0x1ce>
   15326: 33 77 f6 00  	and	a4, a2, a5
   1532a: 11 e7        	c.bnez	a4, 0x15336 <_malloc_r+0x432>
   1532c: 06 06        	c.slli	a2, 0x1
   1532e: 33 77 f6 00  	and	a4, a2, a5
   15332: 11 2e        	c.addiw	t3, 0x4
   15334: 65 df        	c.beqz	a4, 0x1532c <_malloc_r+0x428>
   15336: f2 85        	c.mv	a1, t3
   15338: 2d bb        	c.j	0x15072 <_malloc_r+0x16e>
   1533a: 93 8b 01 4c  	addi	s7, gp, 0x4c0
   1533e: 83 a7 0b 00  	lw	a5, 0x0(s7)
   15342: bb 86 47 01  	addw	a3, a5, s4
   15346: 23 a0 db 00  	sw	a3, 0x0(s7)
   1534a: 03 b7 81 20  	ld	a4, 0x208(gp)
   1534e: fd 57        	c.li	a5, -0x1
   15350: 63 0c f7 12  	beq	a4, a5, 0x15488 <_malloc_r+0x584>
   15354: b3 07 8b 41  	sub	a5, s6, s8
   15358: b5 9f        	c.addw	a5, a3
   1535a: 23 a0 fb 00  	sw	a5, 0x0(s7)
   1535e: 93 7c fb 00  	andi	s9, s6, 0xf
   15362: 63 85 0c 0a  	beq	s9, zero, 0x1540c <_malloc_r+0x508>
   15366: 33 0b 9b 41  	sub	s6, s6, s9
   1536a: 05 67        	c.lui	a4, 0x1
   1536c: 41 07        	c.addi	a4, 0x10
   1536e: 41 0b        	c.addi	s6, 0x10
   15370: 33 0c 97 41  	sub	s8, a4, s9
   15374: 5a 9a        	c.add	s4, s6
   15376: 33 0c 4c 41  	sub	s8, s8, s4
   1537a: 52 1c        	c.slli	s8, 0x34
   1537c: 13 5c 4c 03  	srli	s8, s8, 0x34
   15380: e2 85        	c.mv	a1, s8
   15382: 4a 85        	c.mv	a0, s2
   15384: ef 30 20 5a  	jal	ra, 0x18926 <_sbrk_r>
   15388: fd 57        	c.li	a5, -0x1
   1538a: 63 0e f5 12  	beq	a0, a5, 0x154c6 <_malloc_r+0x5c2>
   1538e: 33 05 65 41  	sub	a0, a0, s6
   15392: 9b 06 0c 00  	addiw	a3, s8, 0x0
   15396: 33 0a 85 01  	add	s4, a0, s8
   1539a: 03 a7 0b 00  	lw	a4, 0x0(s7)
   1539e: 23 b8 69 01  	sd	s6, 0x10(s3)
   153a2: 93 67 1a 00  	ori	a5, s4, 0x1
   153a6: 35 9f        	c.addw	a4, a3
   153a8: 23 a0 eb 00  	sw	a4, 0x0(s7)
   153ac: 23 34 fb 00  	sd	a5, 0x8(s6)
   153b0: e3 04 34 db  	beq	s0, s3, 0x15158 <_malloc_r+0x254>
   153b4: 7d 46        	c.li	a2, 0x1f
   153b6: 63 7b 56 07  	bgeu	a2, s5, 0x1542c <_malloc_r+0x528>
   153ba: 14 64        	c.ld	a3, 0x8(s0)
   153bc: 93 87 8a fe  	addi	a5, s5, -0x18
   153c0: c1 9b        	c.andi	a5, -0x10
   153c2: 85 8a        	c.andi	a3, 0x1
   153c4: dd 8e        	c.or	a3, a5
   153c6: 14 e4        	c.sd	a3, 0x8(s0)
   153c8: a5 45        	c.li	a1, 0x9
   153ca: b3 06 f4 00  	add	a3, s0, a5
   153ce: 8c e6        	c.sd	a1, 0x8(a3)
   153d0: 8c ea        	c.sd	a1, 0x10(a3)
   153d2: 63 65 f6 00  	bltu	a2, a5, 0x153dc <_malloc_r+0x4d8>
   153d6: 83 37 8b 00  	ld	a5, 0x8(s6)
   153da: bd bb        	c.j	0x15158 <_malloc_r+0x254>
   153dc: 93 05 04 01  	addi	a1, s0, 0x10
   153e0: 4a 85        	c.mv	a0, s2
   153e2: ef f0 9f 8d  	jal	ra, 0x14cba <_free_r>
   153e6: 03 bb 09 01  	ld	s6, 0x10(s3)
   153ea: 03 a7 0b 00  	lw	a4, 0x0(s7)
   153ee: 83 37 8b 00  	ld	a5, 0x8(s6)
   153f2: 9d b3        	c.j	0x15158 <_malloc_r+0x254>
   153f4: 13 0a 0a 02  	addi	s4, s4, 0x20
   153f8: 31 bb        	c.j	0x15114 <_malloc_r+0x210>
   153fa: 9b d6 26 40  	sraiw	a3, a3, 0x2
   153fe: 85 47        	c.li	a5, 0x1
   15400: b3 97 d7 00  	sll	a5, a5, a3
   15404: 5d 8d        	c.or	a0, a5
   15406: 23 b4 a9 00  	sd	a0, 0x8(s3)
   1540a: f5 bb        	c.j	0x15206 <_malloc_r+0x302>
   1540c: 33 0c 4b 01  	add	s8, s6, s4
   15410: 33 0c 80 41  	sub	s8, zero, s8
   15414: 52 1c        	c.slli	s8, 0x34
   15416: 13 5c 4c 03  	srli	s8, s8, 0x34
   1541a: e2 85        	c.mv	a1, s8
   1541c: 4a 85        	c.mv	a0, s2
   1541e: ef 30 80 50  	jal	ra, 0x18926 <_sbrk_r>
   15422: fd 57        	c.li	a5, -0x1
   15424: 81 46        	c.li	a3, 0x0
   15426: e3 14 f5 f6  	bne	a0, a5, 0x1538e <_malloc_r+0x48a>
   1542a: 85 bf        	c.j	0x1539a <_malloc_r+0x496>
   1542c: e2 6b        	c.ldsp	s7, 0x18(sp)
   1542e: 85 47        	c.li	a5, 0x1
   15430: 23 34 fb 00  	sd	a5, 0x8(s6)
   15434: 4a 85        	c.mv	a0, s2
   15436: ef 00 80 0d  	jal	ra, 0x1550e <__malloc_unlock>
   1543a: 01 45        	c.li	a0, 0x0
   1543c: 42 7a        	c.ldsp	s4, 0x30(sp)
   1543e: a2 7a        	c.ldsp	s5, 0x28(sp)
   15440: 02 7b        	c.ldsp	s6, 0x20(sp)
   15442: 42 6c        	c.ldsp	s8, 0x10(sp)
   15444: a2 6c        	c.ldsp	s9, 0x8(sp)
   15446: 0d b6        	c.j	0x14f68 <_malloc_r+0x64>
   15448: 93 06 40 05  	addi	a3, zero, 0x54
   1544c: 63 e1 e6 04  	bltu	a3, a4, 0x1548e <_malloc_r+0x58a>
   15450: 13 d7 c7 00  	srli	a4, a5, 0xc
   15454: 1b 06 f7 06  	addiw	a2, a4, 0x6f
   15458: 1b 16 16 00  	slliw	a2, a2, 0x1
   1545c: 9b 06 e7 06  	addiw	a3, a4, 0x6e
   15460: 0e 06        	c.slli	a2, 0x3
   15462: 61 b3        	c.j	0x151ea <_malloc_r+0x2e6>
   15464: 13 07 40 15  	addi	a4, zero, 0x154
   15468: 63 61 f7 04  	bltu	a4, a5, 0x154aa <_malloc_r+0x5a6>
   1546c: 93 d7 f4 00  	srli	a5, s1, 0xf
   15470: 9b 85 87 07  	addiw	a1, a5, 0x78
   15474: 1b 96 15 00  	slliw	a2, a1, 0x1
   15478: 1b 88 77 07  	addiw	a6, a5, 0x77
   1547c: 0e 06        	c.slli	a2, 0x3
   1547e: 1d be        	c.j	0x14fb4 <_malloc_r+0xb0>
   15480: 03 b4 09 01  	ld	s0, 0x10(s3)
   15484: 1c 64        	c.ld	a5, 0x8(s0)
   15486: fd b1        	c.j	0x15174 <_malloc_r+0x270>
   15488: 23 b4 61 21  	sd	s6, 0x208(gp)
   1548c: c9 bd        	c.j	0x1535e <_malloc_r+0x45a>
   1548e: 93 06 40 15  	addi	a3, zero, 0x154
   15492: 63 e0 e6 04  	bltu	a3, a4, 0x154d2 <_malloc_r+0x5ce>
   15496: 13 d7 f7 00  	srli	a4, a5, 0xf
   1549a: 1b 06 87 07  	addiw	a2, a4, 0x78
   1549e: 1b 16 16 00  	slliw	a2, a2, 0x1
   154a2: 9b 06 77 07  	addiw	a3, a4, 0x77
   154a6: 0e 06        	c.slli	a2, 0x3
   154a8: 89 b3        	c.j	0x151ea <_malloc_r+0x2e6>
   154aa: 13 07 40 55  	addi	a4, zero, 0x554
   154ae: 63 60 f7 04  	bltu	a4, a5, 0x154ee <_malloc_r+0x5ea>
   154b2: 93 d7 24 01  	srli	a5, s1, 0x12
   154b6: 9b 85 d7 07  	addiw	a1, a5, 0x7d
   154ba: 1b 96 15 00  	slliw	a2, a1, 0x1
   154be: 1b 88 c7 07  	addiw	a6, a5, 0x7c
   154c2: 0e 06        	c.slli	a2, 0x3
   154c4: c5 bc        	c.j	0x14fb4 <_malloc_r+0xb0>
   154c6: c1 1c        	c.addi	s9, -0x10
   154c8: 66 9a        	c.add	s4, s9
   154ca: 33 0a 6a 41  	sub	s4, s4, s6
   154ce: 81 46        	c.li	a3, 0x0
   154d0: e9 b5        	c.j	0x1539a <_malloc_r+0x496>
   154d2: 93 06 40 55  	addi	a3, zero, 0x554
   154d6: 63 e3 e6 02  	bltu	a3, a4, 0x154fc <_malloc_r+0x5f8>
   154da: 13 d7 27 01  	srli	a4, a5, 0x12
   154de: 1b 06 d7 07  	addiw	a2, a4, 0x7d
   154e2: 1b 16 16 00  	slliw	a2, a2, 0x1
   154e6: 9b 06 c7 07  	addiw	a3, a4, 0x7c
   154ea: 0e 06        	c.slli	a2, 0x3
   154ec: fd b9        	c.j	0x151ea <_malloc_r+0x2e6>
   154ee: 13 06 00 7f  	addi	a2, zero, 0x7f0
   154f2: 93 05 f0 07  	addi	a1, zero, 0x7f
   154f6: 13 08 e0 07  	addi	a6, zero, 0x7e
   154fa: 6d bc        	c.j	0x14fb4 <_malloc_r+0xb0>
   154fc: 13 06 00 7f  	addi	a2, zero, 0x7f0
   15500: 93 06 e0 07  	addi	a3, zero, 0x7e
   15504: dd b1        	c.j	0x151ea <_malloc_r+0x2e6>
   15506: 83 b7 89 00  	ld	a5, 0x8(s3)
   1550a: 09 bd        	c.j	0x1531c <_malloc_r+0x418>

000000000001550c <__malloc_lock>:
   1550c: 82 80        	c.jr	ra

000000000001550e <__malloc_unlock>:
   1550e: 82 80        	c.jr	ra

0000000000015510 <_vfprintf_r>:
   15510: 13 01 01 db  	addi	sp, sp, -0x250
   15514: 23 34 11 24  	sd	ra, 0x248(sp)
   15518: 23 30 81 24  	sd	s0, 0x240(sp)
   1551c: 23 38 21 23  	sd	s2, 0x230(sp)
   15520: e6 ff        	c.sdsp	s9, 0x1f8(sp)
   15522: 2e 89        	c.mv	s2, a1
   15524: b2 8c        	c.mv	s9, a2
   15526: 36 f0        	c.sdsp	a3, 0x20(sp)
   15528: 2a 84        	c.mv	s0, a0
   1552a: 2a e4        	c.sdsp	a0, 0x8(sp)
   1552c: ef 30 80 3b  	jal	ra, 0x188e4 <_localeconv_r>
   15530: 1c 61        	c.ld	a5, 0x0(a0)
   15532: 3e 85        	c.mv	a0, a5
   15534: be ec        	c.sdsp	a5, 0x58(sp)
   15536: ef f0 4f d3  	jal	ra, 0x14a6a <strlen>
   1553a: aa e8        	c.sdsp	a0, 0x50(sp)
   1553c: 82 e9        	c.sdsp	zero, 0xd0(sp)
   1553e: 82 ed        	c.sdsp	zero, 0xd8(sp)
   15540: 09 c4        	c.beqz	s0, 0x1554a <_vfprintf_r+0x3a>
   15542: 38 64        	c.ld	a4, 0x48(s0)
   15544: 19 e3        	c.bnez	a4, 0x1554a <_vfprintf_r+0x3a>
   15546: 6f 10 e0 23  	jal	zero, 0x16784 <_vfprintf_r+0x1274>
   1554a: 03 17 09 01  	lh	a4, 0x10(s2)
   1554e: 93 16 27 03  	slli	a3, a4, 0x32
   15552: 63 c1 06 02  	blt	a3, zero, 0x15574 <_vfprintf_r+0x64>
   15556: 83 26 c9 0a  	lw	a3, 0xac(s2)
   1555a: 89 65        	c.lui	a1, 0x2
   1555c: 79 76        	c.lui	a2, 0xffffe
   1555e: 4d 8f        	c.or	a4, a1
   15560: 7d 16        	c.addi	a2, -0x1
   15562: 1b 17 07 01  	slliw	a4, a4, 0x10
   15566: 1b 57 07 41  	sraiw	a4, a4, 0x10
   1556a: f1 8e        	c.and	a3, a2
   1556c: 23 18 e9 00  	sh	a4, 0x10(s2)
   15570: 23 26 d9 0a  	sw	a3, 0xac(s2)
   15574: 93 76 87 00  	andi	a3, a4, 0x8
   15578: 63 80 06 26  	beq	a3, zero, 0x157d8 <_vfprintf_r+0x2c8>
   1557c: 83 36 89 01  	ld	a3, 0x18(s2)
   15580: 63 8c 06 24  	beq	a3, zero, 0x157d8 <_vfprintf_r+0x2c8>
   15584: 69 8b        	c.andi	a4, 0x1a
   15586: a9 46        	c.li	a3, 0xa
   15588: 63 05 d7 26  	beq	a4, a3, 0x157f2 <_vfprintf_r+0x2e2>
   1558c: 23 30 41 23  	sd	s4, 0x220(sp)
   15590: 23 3c 51 21  	sd	s5, 0x218(sp)
   15594: ea fb        	c.sdsp	s10, 0x1f0(sp)
   15596: 37 77 02 00  	lui	a4, 0x27
   1559a: 23 3c 91 22  	sd	s1, 0x238(sp)
   1559e: 23 34 31 23  	sd	s3, 0x228(sp)
   155a2: 23 38 61 21  	sd	s6, 0x210(sp)
   155a6: 23 34 71 21  	sd	s7, 0x208(sp)
   155aa: 23 30 81 21  	sd	s8, 0x200(sp)
   155ae: ee f7        	c.sdsp	s11, 0x1e8(sp)
   155b0: 66 8d        	c.mv	s10, s9
   155b2: 93 07 07 4d  	addi	a5, a4, 0x4d0
   155b6: 03 47 0d 00  	lbu	a4, 0x0(s10)
   155ba: 13 0a 01 16  	addi	s4, sp, 0x160
   155be: b7 7a 02 00  	lui	s5, 0x27
   155c2: d2 f1        	c.sdsp	s4, 0xe0(sp)
   155c4: 82 f9        	c.sdsp	zero, 0xf0(sp)
   155c6: 82 d5        	c.swsp	zero, 0xe8(sp)
   155c8: 02 fc        	c.sdsp	zero, 0x38(sp)
   155ca: 82 f0        	c.sdsp	zero, 0x60(sp)
   155cc: 82 f8        	c.sdsp	zero, 0x70(sp)
   155ce: 02 e1        	c.sdsp	zero, 0x80(sp)
   155d0: 02 e5        	c.sdsp	zero, 0x88(sp)
   155d2: 82 fc        	c.sdsp	zero, 0x78(sp)
   155d4: 02 e8        	c.sdsp	zero, 0x10(sp)
   155d6: 3e f4        	c.sdsp	a5, 0x28(sp)
   155d8: 52 84        	c.mv	s0, s4
   155da: 93 8a 0a 64  	addi	s5, s5, 0x640
   155de: 63 01 07 1a  	beq	a4, zero, 0x15780 <_vfprintf_r+0x270>
   155e2: ea 89        	c.mv	s3, s10
   155e4: 93 06 50 02  	addi	a3, zero, 0x25
   155e8: 63 0d d7 2c  	beq	a4, a3, 0x158c2 <_vfprintf_r+0x3b2>
   155ec: 03 c7 19 00  	lbu	a4, 0x1(s3)
   155f0: 85 09        	c.addi	s3, 0x1
   155f2: 7d fb        	c.bnez	a4, 0x155e8 <_vfprintf_r+0xd8>
   155f4: bb 84 a9 41  	subw	s1, s3, s10
   155f8: 63 84 04 18  	beq	s1, zero, 0x15780 <_vfprintf_r+0x270>
   155fc: 2e 57        	c.lwsp	a4, 0xe8(sp)
   155fe: ce 76        	c.ldsp	a3, 0xf0(sp)
   15600: 23 30 a4 01  	sd	s10, 0x0(s0)
   15604: 05 27        	c.addiw	a4, 0x1
   15606: a6 96        	c.add	a3, s1
   15608: 04 e4        	c.sd	s1, 0x8(s0)
   1560a: b6 f9        	c.sdsp	a3, 0xf0(sp)
   1560c: ba d5        	c.swsp	a4, 0xe8(sp)
   1560e: 9b 06 07 00  	addiw	a3, a4, 0x0
   15612: 1d 47        	c.li	a4, 0x7
   15614: 41 04        	c.addi	s0, 0x10
   15616: 63 4d d7 2a  	blt	a4, a3, 0x158d0 <_vfprintf_r+0x3c0>
   1561a: c2 67        	c.ldsp	a5, 0x10(sp)
   1561c: 03 c7 09 00  	lbu	a4, 0x0(s3)
   15620: a5 9f        	c.addw	a5, s1
   15622: 3e e8        	c.sdsp	a5, 0x10(sp)
   15624: 63 0e 07 14  	beq	a4, zero, 0x15780 <_vfprintf_r+0x270>
   15628: 03 c3 19 00  	lbu	t1, 0x1(s3)
   1562c: a3 07 01 0a  	sb	zero, 0xaf(sp)
   15630: 85 09        	c.addi	s3, 0x1
   15632: 7d 5b        	c.li	s6, -0x1
   15634: 81 4b        	c.li	s7, 0x0
   15636: 81 4d        	c.li	s11, 0x0
   15638: 93 04 a0 05  	addi	s1, zero, 0x5a
   1563c: 85 09        	c.addi	s3, 0x1
   1563e: 01 23        	c.addiw	t1, 0x0
   15640: 9b 07 03 fe  	addiw	a5, t1, -0x20
   15644: 1b 87 07 00  	addiw	a4, a5, 0x0
   15648: 63 e5 e4 04  	bltu	s1, a4, 0x15692 <_vfprintf_r+0x182>
   1564c: 13 97 07 02  	slli	a4, a5, 0x20
   15650: 93 57 e7 01  	srli	a5, a4, 0x1e
   15654: 22 77        	c.ldsp	a4, 0x28(sp)
   15656: ba 97        	c.add	a5, a4
   15658: 9c 43        	c.lw	a5, 0x0(a5)
   1565a: 82 87        	c.jr	a5
   1565c: 81 4b        	c.li	s7, 0x0
   1565e: a5 46        	c.li	a3, 0x9
   15660: 03 c7 09 00  	lbu	a4, 0x0(s3)
   15664: 9b 97 2b 00  	slliw	a5, s7, 0x2
   15668: bb 8b 77 01  	addw	s7, a5, s7
   1566c: 1b 03 03 fd  	addiw	t1, t1, -0x30
   15670: 9b 9b 1b 00  	slliw	s7, s7, 0x1
   15674: 9b 07 07 fd  	addiw	a5, a4, -0x30
   15678: bb 0b 73 01  	addw	s7, t1, s7
   1567c: 85 09        	c.addi	s3, 0x1
   1567e: 1b 03 07 00  	addiw	t1, a4, 0x0
   15682: e3 ff f6 fc  	bgeu	a3, a5, 0x15660 <_vfprintf_r+0x150>
   15686: 9b 07 03 fe  	addiw	a5, t1, -0x20
   1568a: 1b 87 07 00  	addiw	a4, a5, 0x0
   1568e: e3 ff e4 fa  	bgeu	s1, a4, 0x1564c <_vfprintf_r+0x13c>
   15692: 63 07 03 0e  	beq	t1, zero, 0x15780 <_vfprintf_r+0x270>
   15696: 23 0c 61 0e  	sb	t1, 0xf8(sp)
   1569a: a3 07 01 0a  	sb	zero, 0xaf(sp)
   1569e: 05 4c        	c.li	s8, 0x1
   156a0: 85 46        	c.li	a3, 0x1
   156a2: 13 0d 81 0f  	addi	s10, sp, 0xf8
   156a6: 02 ec        	c.sdsp	zero, 0x18(sp)
   156a8: 01 4b        	c.li	s6, 0x0
   156aa: 82 e4        	c.sdsp	zero, 0x48(sp)
   156ac: 82 e0        	c.sdsp	zero, 0x40(sp)
   156ae: 02 f8        	c.sdsp	zero, 0x30(sp)
   156b0: 93 f2 2d 00  	andi	t0, s11, 0x2
   156b4: 63 83 02 00  	beq	t0, zero, 0x156ba <_vfprintf_r+0x1aa>
   156b8: 09 2c        	c.addiw	s8, 0x2
   156ba: 93 fc 4d 08  	andi	s9, s11, 0x84
   156be: ce 74        	c.ldsp	s1, 0xf0(sp)
   156c0: 63 96 0c 00  	bne	s9, zero, 0x156cc <_vfprintf_r+0x1bc>
   156c4: 3b 87 8b 41  	subw	a4, s7, s8
   156c8: e3 4a e0 2e  	blt	zero, a4, 0x161bc <_vfprintf_r+0xcac>
   156cc: 03 47 f1 0a  	lbu	a4, 0xaf(sp)
   156d0: 0d c3        	c.beqz	a4, 0x156f2 <_vfprintf_r+0x1e2>
   156d2: 2e 57        	c.lwsp	a4, 0xe8(sp)
   156d4: 13 06 f1 0a  	addi	a2, sp, 0xaf
   156d8: 10 e0        	c.sd	a2, 0x0(s0)
   156da: 05 27        	c.addiw	a4, 0x1
   156dc: 05 46        	c.li	a2, 0x1
   156de: 85 04        	c.addi	s1, 0x1
   156e0: 10 e4        	c.sd	a2, 0x8(s0)
   156e2: ba d5        	c.swsp	a4, 0xe8(sp)
   156e4: 1b 06 07 00  	addiw	a2, a4, 0x0
   156e8: a6 f9        	c.sdsp	s1, 0xf0(sp)
   156ea: 1d 47        	c.li	a4, 0x7
   156ec: 41 04        	c.addi	s0, 0x10
   156ee: 63 4c c7 4e  	blt	a4, a2, 0x15be6 <_vfprintf_r+0x6d6>
   156f2: 63 81 02 02  	beq	t0, zero, 0x15714 <_vfprintf_r+0x204>
   156f6: 2e 57        	c.lwsp	a4, 0xe8(sp)
   156f8: 09 46        	c.li	a2, 0x2
   156fa: 89 04        	c.addi	s1, 0x2
   156fc: 05 27        	c.addiw	a4, 0x1
   156fe: 1c 19        	c.addi4spn	a5, sp, 0xb0
   15700: 10 e4        	c.sd	a2, 0x8(s0)
   15702: 1c e0        	c.sd	a5, 0x0(s0)
   15704: 1b 06 07 00  	addiw	a2, a4, 0x0
   15708: ba d5        	c.swsp	a4, 0xe8(sp)
   1570a: a6 f9        	c.sdsp	s1, 0xf0(sp)
   1570c: 1d 47        	c.li	a4, 0x7
   1570e: 41 04        	c.addi	s0, 0x10
   15710: e3 46 c7 34  	blt	a4, a2, 0x1625c <_vfprintf_r+0xd4c>
   15714: 13 07 00 08  	addi	a4, zero, 0x80
   15718: e3 80 ec 12  	beq	s9, a4, 0x16038 <_vfprintf_r+0xb28>
   1571c: 3b 0b db 40  	subw	s6, s6, a3
   15720: e3 40 60 1d  	blt	zero, s6, 0x160e0 <_vfprintf_r+0xbd0>
   15724: 13 f7 0d 10  	andi	a4, s11, 0x100
   15728: e3 12 07 02  	bne	a4, zero, 0x15f4c <_vfprintf_r+0xa3c>
   1572c: 2e 57        	c.lwsp	a4, 0xe8(sp)
   1572e: b6 94        	c.add	s1, a3
   15730: 23 30 a4 01  	sd	s10, 0x0(s0)
   15734: 05 27        	c.addiw	a4, 0x1
   15736: 14 e4        	c.sd	a3, 0x8(s0)
   15738: a6 f9        	c.sdsp	s1, 0xf0(sp)
   1573a: ba d5        	c.swsp	a4, 0xe8(sp)
   1573c: 9d 47        	c.li	a5, 0x7
   1573e: 63 c0 e7 56  	blt	a5, a4, 0x15c9e <_vfprintf_r+0x78e>
   15742: 41 04        	c.addi	s0, 0x10
   15744: 13 fe 4d 00  	andi	t3, s11, 0x4
   15748: 63 06 0e 00  	beq	t3, zero, 0x15754 <_vfprintf_r+0x244>
   1574c: 3b 8b 8b 41  	subw	s6, s7, s8
   15750: e3 44 60 33  	blt	zero, s6, 0x16278 <_vfprintf_r+0xd68>
   15754: de 87        	c.mv	a5, s7
   15756: 63 d3 8b 01  	bge	s7, s8, 0x1575c <_vfprintf_r+0x24c>
   1575a: e2 87        	c.mv	a5, s8
   1575c: 42 67        	c.ldsp	a4, 0x10(sp)
   1575e: b9 9f        	c.addw	a5, a4
   15760: 3e e8        	c.sdsp	a5, 0x10(sp)
   15762: e3 9d 04 20  	bne	s1, zero, 0x1617c <_vfprintf_r+0xc6c>
   15766: e2 67        	c.ldsp	a5, 0x18(sp)
   15768: 82 d5        	c.swsp	zero, 0xe8(sp)
   1576a: 89 c7        	c.beqz	a5, 0x15774 <_vfprintf_r+0x264>
   1576c: e2 65        	c.ldsp	a1, 0x18(sp)
   1576e: 22 65        	c.ldsp	a0, 0x8(sp)
   15770: ef f0 af d4  	jal	ra, 0x14cba <_free_r>
   15774: 52 84        	c.mv	s0, s4
   15776: 4e 8d        	c.mv	s10, s3
   15778: 03 47 0d 00  	lbu	a4, 0x0(s10)
   1577c: e3 13 07 e6  	bne	a4, zero, 0x155e2 <_vfprintf_r+0xd2>
   15780: ce 77        	c.ldsp	a5, 0xf0(sp)
   15782: 99 c3        	c.beqz	a5, 0x15788 <_vfprintf_r+0x278>
   15784: 6f 10 a0 3c  	jal	zero, 0x16b4e <_vfprintf_r+0x163e>
   15788: 83 57 09 01  	lhu	a5, 0x10(s2)
   1578c: 83 34 81 23  	ld	s1, 0x238(sp)
   15790: 83 39 81 22  	ld	s3, 0x228(sp)
   15794: 93 f7 07 04  	andi	a5, a5, 0x40
   15798: 03 3a 01 22  	ld	s4, 0x220(sp)
   1579c: 83 3a 81 21  	ld	s5, 0x218(sp)
   157a0: 03 3b 01 21  	ld	s6, 0x210(sp)
   157a4: 83 3b 81 20  	ld	s7, 0x208(sp)
   157a8: 03 3c 01 20  	ld	s8, 0x200(sp)
   157ac: 5e 7d        	c.ldsp	s10, 0x1f0(sp)
   157ae: be 7d        	c.ldsp	s11, 0x1e8(sp)
   157b0: 99 c3        	c.beqz	a5, 0x157b6 <_vfprintf_r+0x2a6>
   157b2: 6f 10 40 6a  	jal	zero, 0x16e56 <_vfprintf_r+0x1946>
   157b6: 83 30 81 24  	ld	ra, 0x248(sp)
   157ba: 03 34 01 24  	ld	s0, 0x240(sp)
   157be: 42 65        	c.ldsp	a0, 0x10(sp)
   157c0: 03 39 01 23  	ld	s2, 0x230(sp)
   157c4: fe 7c        	c.ldsp	s9, 0x1f8(sp)
   157c6: 13 01 01 25  	addi	sp, sp, 0x250
   157ca: 82 80        	c.jr	ra
   157cc: 93 ed 0d 01  	ori	s11, s11, 0x10
   157d0: 03 c3 09 00  	lbu	t1, 0x0(s3)
   157d4: 81 2d        	c.addiw	s11, 0x0
   157d6: 9d b5        	c.j	0x1563c <_vfprintf_r+0x12c>
   157d8: 22 65        	c.ldsp	a0, 0x8(sp)
   157da: ca 85        	c.mv	a1, s2
   157dc: ef 20 f0 51  	jal	ra, 0x184fa <__swsetup_r>
   157e0: 19 c1        	c.beqz	a0, 0x157e6 <_vfprintf_r+0x2d6>
   157e2: 6f 10 40 67  	jal	zero, 0x16e56 <_vfprintf_r+0x1946>
   157e6: 03 17 09 01  	lh	a4, 0x10(s2)
   157ea: a9 46        	c.li	a3, 0xa
   157ec: 69 8b        	c.andi	a4, 0x1a
   157ee: e3 1f d7 d8  	bne	a4, a3, 0x1558c <_vfprintf_r+0x7c>
   157f2: 03 17 29 01  	lh	a4, 0x12(s2)
   157f6: e3 4b 07 d8  	blt	a4, zero, 0x1558c <_vfprintf_r+0x7c>
   157fa: 82 76        	c.ldsp	a3, 0x20(sp)
   157fc: 22 65        	c.ldsp	a0, 0x8(sp)
   157fe: 66 86        	c.mv	a2, s9
   15800: ca 85        	c.mv	a1, s2
   15802: ef 10 b0 08  	jal	ra, 0x1708c <__sbprintf>
   15806: 2a e8        	c.sdsp	a0, 0x10(sp)
   15808: 7d b7        	c.j	0x157b6 <_vfprintf_r+0x2a6>
   1580a: 13 ee 0d 01  	ori	t3, s11, 0x10
   1580e: 9b 0d 0e 00  	addiw	s11, t3, 0x0
   15812: 82 76        	c.ldsp	a3, 0x20(sp)
   15814: 93 f7 0d 02  	andi	a5, s11, 0x20
   15818: 13 87 86 00  	addi	a4, a3, 0x8
   1581c: 63 88 07 4a  	beq	a5, zero, 0x15ccc <_vfprintf_r+0x7bc>
   15820: 9c 62        	c.ld	a5, 0x0(a3)
   15822: be 84        	c.mv	s1, a5
   15824: 63 c5 07 4c  	blt	a5, zero, 0x15cee <_vfprintf_r+0x7de>
   15828: e3 4f 0b 4c  	blt	s6, zero, 0x16506 <_vfprintf_r+0xff6>
   1582c: 93 fc fd f7  	andi	s9, s11, -0x81
   15830: 81 2c        	c.addiw	s9, 0x0
   15832: 99 c0        	c.beqz	s1, 0x15838 <_vfprintf_r+0x328>
   15834: 6f 00 70 79  	jal	zero, 0x167ca <_vfprintf_r+0x12ba>
   15838: 63 04 0b 00  	beq	s6, zero, 0x15840 <_vfprintf_r+0x330>
   1583c: 6f 10 e0 6a  	jal	zero, 0x16eea <_vfprintf_r+0x19da>
   15840: 81 46        	c.li	a3, 0x0
   15842: 3a f0        	c.sdsp	a4, 0x20(sp)
   15844: e6 8d        	c.mv	s11, s9
   15846: 13 0d c1 15  	addi	s10, sp, 0x15c
   1584a: 03 47 f1 0a  	lbu	a4, 0xaf(sp)
   1584e: 5a 88        	c.mv	a6, s6
   15850: 63 53 db 00  	bge	s6, a3, 0x15856 <_vfprintf_r+0x346>
   15854: 36 88        	c.mv	a6, a3
   15856: 02 ec        	c.sdsp	zero, 0x18(sp)
   15858: 82 e4        	c.sdsp	zero, 0x48(sp)
   1585a: 82 e0        	c.sdsp	zero, 0x40(sp)
   1585c: 02 f8        	c.sdsp	zero, 0x30(sp)
   1585e: 1b 0c 08 00  	addiw	s8, a6, 0x0
   15862: e3 07 07 e4  	beq	a4, zero, 0x156b0 <_vfprintf_r+0x1a0>
   15866: 05 2c        	c.addiw	s8, 0x1
   15868: a1 b5        	c.j	0x156b0 <_vfprintf_r+0x1a0>
   1586a: 13 ee 0d 01  	ori	t3, s11, 0x10
   1586e: 9b 0d 0e 00  	addiw	s11, t3, 0x0
   15872: 82 76        	c.ldsp	a3, 0x20(sp)
   15874: 93 f7 0d 02  	andi	a5, s11, 0x20
   15878: 13 87 86 00  	addi	a4, a3, 0x8
   1587c: 63 8b 07 42  	beq	a5, zero, 0x15cb2 <_vfprintf_r+0x7a2>
   15880: 84 62        	c.ld	s1, 0x0(a3)
   15882: 93 fc fd bf  	andi	s9, s11, -0x401
   15886: 81 2c        	c.addiw	s9, 0x0
   15888: 3a f0        	c.sdsp	a4, 0x20(sp)
   1588a: 81 47        	c.li	a5, 0x0
   1588c: 01 47        	c.li	a4, 0x0
   1588e: a3 07 e1 0a  	sb	a4, 0xaf(sp)
   15892: 63 49 0b 46  	blt	s6, zero, 0x15d04 <_vfprintf_r+0x7f4>
   15896: 13 fe fc f7  	andi	t3, s9, -0x81
   1589a: 9b 0d 0e 00  	addiw	s11, t3, 0x0
   1589e: e3 9e 04 0e  	bne	s1, zero, 0x1619a <_vfprintf_r+0xc8a>
   158a2: 63 12 0b 76  	bne	s6, zero, 0x16006 <_vfprintf_r+0xaf6>
   158a6: e3 94 07 3e  	bne	a5, zero, 0x1648e <_vfprintf_r+0xf7e>
   158aa: 93 f6 1c 00  	andi	a3, s9, 0x1
   158ae: 13 0d c1 15  	addi	s10, sp, 0x15c
   158b2: c1 de        	c.beqz	a3, 0x1584a <_vfprintf_r+0x33a>
   158b4: 93 07 00 03  	addi	a5, zero, 0x30
   158b8: a3 0d f1 14  	sb	a5, 0x15b(sp)
   158bc: 13 0d b1 15  	addi	s10, sp, 0x15b
   158c0: 69 b7        	c.j	0x1584a <_vfprintf_r+0x33a>
   158c2: bb 84 a9 41  	subw	s1, s3, s10
   158c6: e3 9b 04 d2  	bne	s1, zero, 0x155fc <_vfprintf_r+0xec>
   158ca: 03 c7 09 00  	lbu	a4, 0x0(s3)
   158ce: 99 bb        	c.j	0x15624 <_vfprintf_r+0x114>
   158d0: 22 65        	c.ldsp	a0, 0x8(sp)
   158d2: 90 11        	c.addi4spn	a2, sp, 0xe0
   158d4: ca 85        	c.mv	a1, s2
   158d6: ef 10 10 11  	jal	ra, 0x171e6 <__sprint_r>
   158da: e3 17 05 ea  	bne	a0, zero, 0x15788 <_vfprintf_r+0x278>
   158de: 52 84        	c.mv	s0, s4
   158e0: 2d bb        	c.j	0x1561a <_vfprintf_r+0x10a>
   158e2: 13 f7 8d 00  	andi	a4, s11, 0x8
   158e6: e3 12 07 40  	bne	a4, zero, 0x164ea <_vfprintf_r+0xfda>
   158ea: 82 77        	c.ldsp	a5, 0x20(sp)
   158ec: 1a ec        	c.sdsp	t1, 0x18(sp)
   158ee: 88 23        	c.fld	fa0, 0x0(a5)
   158f0: 13 8c 87 00  	addi	s8, a5, 0x8
   158f4: ef 70 60 3a  	jal	ra, 0x1cc9a <__extenddftf2>
   158f8: 62 63        	c.ldsp	t1, 0x18(sp)
   158fa: 2a 87        	c.mv	a4, a0
   158fc: 62 f0        	c.sdsp	s8, 0x20(sp)
   158fe: 88 09        	c.addi4spn	a0, sp, 0xd0
   15900: 1a ec        	c.sdsp	t1, 0x18(sp)
   15902: ba e9        	c.sdsp	a4, 0xd0(sp)
   15904: ae ed        	c.sdsp	a1, 0xd8(sp)
   15906: ef 30 a0 4e  	jal	ra, 0x18df0 <_ldcheck>
   1590a: 2a dd        	c.swsp	a0, 0xb8(sp)
   1590c: 09 47        	c.li	a4, 0x2
   1590e: 62 63        	c.ldsp	t1, 0x18(sp)
   15910: e3 0f e5 6a  	beq	a0, a4, 0x167ce <_vfprintf_r+0x12be>
   15914: 05 47        	c.li	a4, 0x1
   15916: 63 14 e5 00  	bne	a0, a4, 0x1591e <_vfprintf_r+0x40e>
   1591a: 6f 00 b0 7d  	jal	zero, 0x168f4 <_vfprintf_r+0x13e4>
   1591e: 13 07 10 06  	addi	a4, zero, 0x61
   15922: e3 0e e3 56  	beq	t1, a4, 0x1669e <_vfprintf_r+0x118e>
   15926: 13 07 10 04  	addi	a4, zero, 0x41
   1592a: 93 07 80 05  	addi	a5, zero, 0x58
   1592e: e3 0a e3 56  	beq	t1, a4, 0x166a2 <_vfprintf_r+0x1192>
   15932: 7d 57        	c.li	a4, -0x1
   15934: 63 14 eb 00  	bne	s6, a4, 0x1593c <_vfprintf_r+0x42c>
   15938: 6f 10 e0 58  	jal	zero, 0x16ec6 <_vfprintf_r+0x19b6>
   1593c: 13 77 f3 fd  	andi	a4, t1, -0x21
   15940: 93 06 70 04  	addi	a3, zero, 0x47
   15944: 02 ec        	c.sdsp	zero, 0x18(sp)
   15946: 63 14 d7 00  	bne	a4, a3, 0x1594e <_vfprintf_r+0x43e>
   1594a: 6f 10 40 58  	jal	zero, 0x16ece <_vfprintf_r+0x19be>
   1594e: ce 67        	c.ldsp	a5, 0xd0(sp)
   15950: ee 6c        	c.ldsp	s9, 0xd8(sp)
   15952: 13 e7 0d 10  	ori	a4, s11, 0x100
   15956: 3e f8        	c.sdsp	a5, 0x30(sp)
   15958: 82 f4        	c.sdsp	zero, 0x68(sp)
   1595a: 9b 04 07 00  	addiw	s1, a4, 0x0
   1595e: 63 d4 0c 00  	bge	s9, zero, 0x15966 <_vfprintf_r+0x456>
   15962: 6f 10 a0 39  	jal	zero, 0x16cfc <_vfprintf_r+0x17ec>
   15966: 9b 06 f3 fb  	addiw	a3, t1, -0x41
   1596a: 13 07 50 02  	addi	a4, zero, 0x25
   1596e: 63 74 d7 00  	bgeu	a4, a3, 0x15976 <_vfprintf_r+0x466>
   15972: 6f 10 e0 3e  	jal	zero, 0x16d60 <_vfprintf_r+0x1850>
   15976: 05 47        	c.li	a4, 0x1
   15978: 05 4c        	c.li	s8, 0x1
   1597a: 16 17        	c.slli	a4, 0x25
   1597c: b3 16 dc 00  	sll	a3, s8, a3
   15980: 13 07 07 02  	addi	a4, a4, 0x20
   15984: 75 8f        	c.and	a4, a3
   15986: 19 c3        	c.beqz	a4, 0x1598c <_vfprintf_r+0x47c>
   15988: 6f 10 00 29  	jal	zero, 0x16c18 <_vfprintf_r+0x1708>
   1598c: 05 47        	c.li	a4, 0x1
   1598e: 12 17        	c.slli	a4, 0x24
   15990: 41 07        	c.addi	a4, 0x10
   15992: 75 8f        	c.and	a4, a3
   15994: 19 c3        	c.beqz	a4, 0x1599a <_vfprintf_r+0x48a>
   15996: 6f 10 e0 4c  	jal	zero, 0x16e64 <_vfprintf_r+0x1954>
   1599a: 05 47        	c.li	a4, 0x1
   1599c: 02 17        	c.slli	a4, 0x20
   1599e: 05 07        	c.addi	a4, 0x1
   159a0: f9 8e        	c.and	a3, a4
   159a2: 1a fc        	c.sdsp	t1, 0x38(sp)
   159a4: 99 e2        	c.bnez	a3, 0x159aa <_vfprintf_r+0x49a>
   159a6: 6f 10 c0 1f  	jal	zero, 0x16ba2 <_vfprintf_r+0x1692>
   159aa: 42 75        	c.ldsp	a0, 0x30(sp)
   159ac: 30 19        	c.addi4spn	a2, sp, 0xb8
   159ae: e6 85        	c.mv	a1, s9
   159b0: ef 30 00 1a  	jal	ra, 0x18b50 <frexpl>
   159b4: b7 f6 ff 00  	lui	a3, 0xfff
   159b8: 01 46        	c.li	a2, 0x0
   159ba: 9a 16        	c.slli	a3, 0x26
   159bc: ef 60 40 3b  	jal	ra, 0x1bd70 <__multf3>
   159c0: 01 46        	c.li	a2, 0x0
   159c2: 81 46        	c.li	a3, 0x0
   159c4: aa 8c        	c.mv	s9, a0
   159c6: ae 84        	c.mv	s1, a1
   159c8: ef 60 40 1c  	jal	ra, 0x1bb8c <__netf2>
   159cc: 62 73        	c.ldsp	t1, 0x38(sp)
   159ce: 11 e1        	c.bnez	a0, 0x159d2 <_vfprintf_r+0x4c2>
   159d0: 62 dd        	c.swsp	s8, 0xb8(sp)
   159d2: 13 07 10 06  	addi	a4, zero, 0x61
   159d6: 63 14 e3 00  	bne	t1, a4, 0x159de <_vfprintf_r+0x4ce>
   159da: 6f 10 60 61  	jal	zero, 0x16ff0 <_vfprintf_r+0x1ae0>
   159de: 37 77 02 00  	lui	a4, 0x27
   159e2: 93 07 07 3c  	addi	a5, a4, 0x3c0
   159e6: 3e f8        	c.sdsp	a5, 0x30(sp)
   159e8: 13 17 0b 02  	slli	a4, s6, 0x20
   159ec: 01 93        	c.srli	a4, 0x20
   159ee: 05 07        	c.addi	a4, 0x1
   159f0: b7 36 00 04  	lui	a3, 0x4003
   159f4: 1b 08 0b 00  	addiw	a6, s6, 0x0
   159f8: b3 07 ed 00  	add	a5, s10, a4
   159fc: 92 16        	c.slli	a3, 0x24
   159fe: 4e fc        	c.sdsp	s3, 0x38(sp)
   15a00: a2 f8        	c.sdsp	s0, 0x70(sp)
   15a02: 4a 8c        	c.mv	s8, s2
   15a04: 42 7b        	c.ldsp	s6, 0x30(sp)
   15a06: 9a e0        	c.sdsp	t1, 0x40(sp)
   15a08: de e4        	c.sdsp	s7, 0x48(sp)
   15a0a: 42 e9        	c.sdsp	a6, 0x90(sp)
   15a0c: ea 89        	c.mv	s3, s10
   15a0e: 3e 89        	c.mv	s2, a5
   15a10: 36 84        	c.mv	s0, a3
   15a12: 01 a8        	c.j	0x15a22 <_vfprintf_r+0x512>
   15a14: 01 46        	c.li	a2, 0x0
   15a16: 81 46        	c.li	a3, 0x0
   15a18: ef 60 40 17  	jal	ra, 0x1bb8c <__netf2>
   15a1c: 19 e1        	c.bnez	a0, 0x15a22 <_vfprintf_r+0x512>
   15a1e: 6f 10 20 59  	jal	zero, 0x16fb0 <_vfprintf_r+0x1aa0>
   15a22: 01 46        	c.li	a2, 0x0
   15a24: a2 86        	c.mv	a3, s0
   15a26: 66 85        	c.mv	a0, s9
   15a28: a6 85        	c.mv	a1, s1
   15a2a: ef 60 60 34  	jal	ra, 0x1bd70 <__multf3>
   15a2e: ae 84        	c.mv	s1, a1
   15a30: aa 8c        	c.mv	s9, a0
   15a32: ef 70 c0 17  	jal	ra, 0x1cbae <__fixtfsi>
   15a36: 9b 0b 05 00  	addiw	s7, a0, 0x0
   15a3a: ef 70 a0 20  	jal	ra, 0x1cc44 <__floatsitf>
   15a3e: ae 86        	c.mv	a3, a1
   15a40: 2a 86        	c.mv	a2, a0
   15a42: a6 85        	c.mv	a1, s1
   15a44: 66 85        	c.mv	a0, s9
   15a46: ef 60 10 12  	jal	ra, 0x1c366 <__subtf3>
   15a4a: b3 06 7b 01  	add	a3, s6, s7
   15a4e: 83 c6 06 00  	lbu	a3, 0x0(a3)
   15a52: ce 88        	c.mv	a7, s3
   15a54: 85 09        	c.addi	s3, 0x1
   15a56: a3 8f d9 fe  	sb	a3, -0x1(s3)
   15a5a: aa 8c        	c.mv	s9, a0
   15a5c: ae 84        	c.mv	s1, a1
   15a5e: e3 1b 39 fb  	bne	s2, s3, 0x15a14 <_vfprintf_r+0x504>
   15a62: 06 63        	c.ldsp	t1, 0x40(sp)
   15a64: b7 f6 ff 01  	lui	a3, 0x1fff
   15a68: 96 16        	c.slli	a3, 0x25
   15a6a: 01 46        	c.li	a2, 0x0
   15a6c: 1a e9        	c.sdsp	t1, 0x90(sp)
   15a6e: c6 e0        	c.sdsp	a7, 0x40(sp)
   15a70: 5e 8b        	c.mv	s6, s7
   15a72: a6 6b        	c.ldsp	s7, 0x48(sp)
   15a74: b6 e4        	c.sdsp	a3, 0x48(sp)
   15a76: ef 60 e0 1b  	jal	ra, 0x1bc34 <__gttf2>
   15a7a: 62 89        	c.mv	s2, s8
   15a7c: 46 74        	c.ldsp	s0, 0x70(sp)
   15a7e: 4e 8c        	c.mv	s8, s3
   15a80: 86 68        	c.ldsp	a7, 0x40(sp)
   15a82: e2 79        	c.ldsp	s3, 0x38(sp)
   15a84: 4a 63        	c.ldsp	t1, 0x90(sp)
   15a86: 63 40 a0 02  	blt	zero, a0, 0x15aa6 <_vfprintf_r+0x596>
   15a8a: a6 66        	c.ldsp	a3, 0x48(sp)
   15a8c: 01 46        	c.li	a2, 0x0
   15a8e: 66 85        	c.mv	a0, s9
   15a90: a6 85        	c.mv	a1, s1
   15a92: 1a fc        	c.sdsp	t1, 0x38(sp)
   15a94: ef 60 80 0f  	jal	ra, 0x1bb8c <__netf2>
   15a98: 62 73        	c.ldsp	t1, 0x38(sp)
   15a9a: 39 e5        	c.bnez	a0, 0x15ae8 <_vfprintf_r+0x5d8>
   15a9c: 13 7b 1b 00  	andi	s6, s6, 0x1
   15aa0: 86 68        	c.ldsp	a7, 0x40(sp)
   15aa2: 63 03 0b 04  	beq	s6, zero, 0x15ae8 <_vfprintf_r+0x5d8>
   15aa6: c2 77        	c.ldsp	a5, 0x30(sp)
   15aa8: c6 e5        	c.sdsp	a7, 0xc8(sp)
   15aaa: 03 46 fc ff  	lbu	a2, -0x1(s8)
   15aae: 83 c5 f7 00  	lbu	a1, 0xf(a5)
   15ab2: e2 86        	c.mv	a3, s8
   15ab4: 63 1e b6 00  	bne	a2, a1, 0x15ad0 <_vfprintf_r+0x5c0>
   15ab8: 13 05 00 03  	addi	a0, zero, 0x30
   15abc: a3 8f a6 fe  	sb	a0, -0x1(a3)
   15ac0: ae 66        	c.ldsp	a3, 0xc8(sp)
   15ac2: 93 87 f6 ff  	addi	a5, a3, -0x1
   15ac6: be e5        	c.sdsp	a5, 0xc8(sp)
   15ac8: 03 c6 f6 ff  	lbu	a2, -0x1(a3)
   15acc: e3 88 c5 fe  	beq	a1, a2, 0x15abc <_vfprintf_r+0x5ac>
   15ad0: 9b 05 16 00  	addiw	a1, a2, 0x1
   15ad4: 13 05 90 03  	addi	a0, zero, 0x39
   15ad8: 93 f5 f5 0f  	andi	a1, a1, 0xff
   15adc: 63 14 a6 00  	bne	a2, a0, 0x15ae4 <_vfprintf_r+0x5d4>
   15ae0: 6f 10 a0 11  	jal	zero, 0x16bfa <_vfprintf_r+0x16ea>
   15ae4: a3 8f b6 fe  	sb	a1, -0x1(a3)
   15ae8: e2 86        	c.mv	a3, s8
   15aea: ea 57        	c.lwsp	a5, 0xb8(sp)
   15aec: 3b 87 a6 41  	subw	a4, a3, s10
   15af0: 3a fc        	c.sdsp	a4, 0x38(sp)
   15af2: 1b 87 f7 ff  	addiw	a4, a5, -0x1
   15af6: 3e f8        	c.sdsp	a5, 0x30(sp)
   15af8: 13 06 10 06  	addi	a2, zero, 0x61
   15afc: 3a dd        	c.swsp	a4, 0xb8(sp)
   15afe: 63 14 c3 00  	bne	t1, a2, 0x15b06 <_vfprintf_r+0x5f6>
   15b02: 6f 10 c0 4f  	jal	zero, 0x16ffe <_vfprintf_r+0x1aee>
   15b06: 13 06 10 04  	addi	a2, zero, 0x41
   15b0a: 93 06 00 05  	addi	a3, zero, 0x50
   15b0e: 63 04 c3 00  	beq	t1, a2, 0x15b16 <_vfprintf_r+0x606>
   15b12: 6f 10 e0 0d  	jal	zero, 0x16bf0 <_vfprintf_r+0x16e0>
   15b16: 05 46        	c.li	a2, 0x1
   15b18: 23 00 d1 0c  	sb	a3, 0xc0(sp)
   15b1c: 93 06 b0 02  	addi	a3, zero, 0x2b
   15b20: 63 57 07 00  	bge	a4, zero, 0x15b2e <_vfprintf_r+0x61e>
   15b24: c2 77        	c.ldsp	a5, 0x30(sp)
   15b26: 05 47        	c.li	a4, 0x1
   15b28: 93 06 d0 02  	addi	a3, zero, 0x2d
   15b2c: 1d 9f        	c.subw	a4, a5
   15b2e: a3 00 d1 0c  	sb	a3, 0xc1(sp)
   15b32: a5 46        	c.li	a3, 0x9
   15b34: 63 c4 e6 00  	blt	a3, a4, 0x15b3c <_vfprintf_r+0x62c>
   15b38: 6f 10 40 36  	jal	zero, 0x16e9c <_vfprintf_r+0x198c>
   15b3c: 93 08 f1 0c  	addi	a7, sp, 0xcf
   15b40: 46 85        	c.mv	a0, a7
   15b42: 29 48        	c.li	a6, 0xa
   15b44: 13 0f 30 06  	addi	t5, zero, 0x63
   15b48: bb 67 07 03  	remw	a5, a4, a6
   15b4c: aa 86        	c.mv	a3, a0
   15b4e: 3a 86        	c.mv	a2, a4
   15b50: 7d 15        	c.addi	a0, -0x1
   15b52: 9b 87 07 03  	addiw	a5, a5, 0x30
   15b56: a3 8f f6 fe  	sb	a5, -0x1(a3)
   15b5a: 3b 47 07 03  	divw	a4, a4, a6
   15b5e: e3 45 cf fe  	blt	t5, a2, 0x15b48 <_vfprintf_r+0x638>
   15b62: 9b 05 07 03  	addiw	a1, a4, 0x30
   15b66: a3 0f b5 fe  	sb	a1, -0x1(a0)
   15b6a: 13 87 e6 ff  	addi	a4, a3, -0x2
   15b6e: 63 64 17 01  	bltu	a4, a7, 0x15b76 <_vfprintf_r+0x666>
   15b72: 6f 10 c0 4c  	jal	zero, 0x1703e <_vfprintf_r+0x1b2e>
   15b76: 13 06 21 0c  	addi	a2, sp, 0xc2
   15b7a: 83 47 07 00  	lbu	a5, 0x0(a4)
   15b7e: 05 07        	c.addi	a4, 0x1
   15b80: 05 06        	c.addi	a2, 0x1
   15b82: a3 0f f6 fe  	sb	a5, -0x1(a2)
   15b86: e3 1a 17 ff  	bne	a4, a7, 0x15b7a <_vfprintf_r+0x66a>
   15b8a: 9c 13        	c.addi4spn	a5, sp, 0x1e0
   15b8c: b3 86 d7 40  	sub	a3, a5, a3
   15b90: 9b 87 36 ef  	addiw	a5, a3, -0x10d
   15b94: be f8        	c.sdsp	a5, 0x70(sp)
   15b96: 46 77        	c.ldsp	a4, 0x70(sp)
   15b98: e2 77        	c.ldsp	a5, 0x38(sp)
   15b9a: 05 46        	c.li	a2, 0x1
   15b9c: bb 86 e7 00  	addw	a3, a5, a4
   15ba0: 36 87        	c.mv	a4, a3
   15ba2: 63 44 f6 00  	blt	a2, a5, 0x15baa <_vfprintf_r+0x69a>
   15ba6: 6f 10 60 33  	jal	zero, 0x16edc <_vfprintf_r+0x19cc>
   15baa: c6 67        	c.ldsp	a5, 0x50(sp)
   15bac: bb 06 f7 00  	addw	a3, a4, a5
   15bb0: 13 c8 f6 ff  	xori	a6, a3, -0x1
   15bb4: 13 fe fd bf  	andi	t3, s11, -0x401
   15bb8: 13 58 f8 43  	srai	a6, a6, 0x3f
   15bbc: 01 2e        	c.addiw	t3, 0x0
   15bbe: 33 f8 06 01  	and	a6, a3, a6
   15bc2: 93 6d 0e 10  	ori	s11, t3, 0x100
   15bc6: 1b 0c 08 00  	addiw	s8, a6, 0x0
   15bca: 82 e4        	c.sdsp	zero, 0x48(sp)
   15bcc: 82 e0        	c.sdsp	zero, 0x40(sp)
   15bce: 02 f8        	c.sdsp	zero, 0x30(sp)
   15bd0: a6 77        	c.ldsp	a5, 0x68(sp)
   15bd2: 99 e3        	c.bnez	a5, 0x15bd8 <_vfprintf_r+0x6c8>
   15bd4: 6f 10 40 03  	jal	zero, 0x16c08 <_vfprintf_r+0x16f8>
   15bd8: 13 07 d0 02  	addi	a4, zero, 0x2d
   15bdc: a3 07 e1 0a  	sb	a4, 0xaf(sp)
   15be0: 01 4b        	c.li	s6, 0x0
   15be2: 05 2c        	c.addiw	s8, 0x1
   15be4: f1 b4        	c.j	0x156b0 <_vfprintf_r+0x1a0>
   15be6: 22 65        	c.ldsp	a0, 0x8(sp)
   15be8: 90 11        	c.addi4spn	a2, sp, 0xe0
   15bea: ca 85        	c.mv	a1, s2
   15bec: 36 ed        	c.sdsp	a3, 0x98(sp)
   15bee: 1a e9        	c.sdsp	t1, 0x90(sp)
   15bf0: 96 f4        	c.sdsp	t0, 0x68(sp)
   15bf2: ef 10 40 5f  	jal	ra, 0x171e6 <__sprint_r>
   15bf6: 63 1a 05 58  	bne	a0, zero, 0x1618a <_vfprintf_r+0xc7a>
   15bfa: ce 74        	c.ldsp	s1, 0xf0(sp)
   15bfc: ea 66        	c.ldsp	a3, 0x98(sp)
   15bfe: 4a 63        	c.ldsp	t1, 0x90(sp)
   15c00: a6 72        	c.ldsp	t0, 0x68(sp)
   15c02: 52 84        	c.mv	s0, s4
   15c04: fd b4        	c.j	0x156f2 <_vfprintf_r+0x1e2>
   15c06: 2e 57        	c.lwsp	a4, 0xe8(sp)
   15c08: e2 77        	c.ldsp	a5, 0x38(sp)
   15c0a: 85 46        	c.li	a3, 0x1
   15c0c: 1b 0b 17 00  	addiw	s6, a4, 0x1
   15c10: 23 30 a4 01  	sd	s10, 0x0(s0)
   15c14: 85 04        	c.addi	s1, 0x1
   15c16: 5a 87        	c.mv	a4, s6
   15c18: 93 0c 04 01  	addi	s9, s0, 0x10
   15c1c: 63 db f6 7c  	bge	a3, a5, 0x163f2 <_vfprintf_r+0xee2>
   15c20: 85 46        	c.li	a3, 0x1
   15c22: ba d5        	c.swsp	a4, 0xe8(sp)
   15c24: 14 e4        	c.sd	a3, 0x8(s0)
   15c26: a6 f9        	c.sdsp	s1, 0xf0(sp)
   15c28: 1d 47        	c.li	a4, 0x7
   15c2a: e3 41 67 2d  	blt	a4, s6, 0x166ec <_vfprintf_r+0x11dc>
   15c2e: c6 67        	c.ldsp	a5, 0x50(sp)
   15c30: e6 66        	c.ldsp	a3, 0x58(sp)
   15c32: 05 2b        	c.addiw	s6, 0x1
   15c34: be 94        	c.add	s1, a5
   15c36: 23 b0 dc 00  	sd	a3, 0x0(s9)
   15c3a: 23 b4 fc 00  	sd	a5, 0x8(s9)
   15c3e: a6 f9        	c.sdsp	s1, 0xf0(sp)
   15c40: da d5        	c.swsp	s6, 0xe8(sp)
   15c42: 1d 47        	c.li	a4, 0x7
   15c44: c1 0c        	c.addi	s9, 0x10
   15c46: e3 4f 67 2b  	blt	a4, s6, 0x16704 <_vfprintf_r+0x11f4>
   15c4a: e2 77        	c.ldsp	a5, 0x38(sp)
   15c4c: 4e 65        	c.ldsp	a0, 0xd0(sp)
   15c4e: ee 65        	c.ldsp	a1, 0xd8(sp)
   15c50: 01 46        	c.li	a2, 0x0
   15c52: 81 46        	c.li	a3, 0x0
   15c54: 1b 84 f7 ff  	addiw	s0, a5, -0x1
   15c58: ef 50 50 73  	jal	ra, 0x1bb8c <__netf2>
   15c5c: 63 00 05 7c  	beq	a0, zero, 0x1641c <_vfprintf_r+0xf0c>
   15c60: 93 07 1d 00  	addi	a5, s10, 0x1
   15c64: 05 2b        	c.addiw	s6, 0x1
   15c66: a2 94        	c.add	s1, s0
   15c68: 23 b0 fc 00  	sd	a5, 0x0(s9)
   15c6c: 23 b4 8c 00  	sd	s0, 0x8(s9)
   15c70: a6 f9        	c.sdsp	s1, 0xf0(sp)
   15c72: da d5        	c.swsp	s6, 0xe8(sp)
   15c74: 9d 47        	c.li	a5, 0x7
   15c76: 63 c8 67 79  	blt	a5, s6, 0x16406 <_vfprintf_r+0xef6>
   15c7a: c1 0c        	c.addi	s9, 0x10
   15c7c: 46 77        	c.ldsp	a4, 0x70(sp)
   15c7e: 05 2b        	c.addiw	s6, 0x1
   15c80: 9c 01        	c.addi4spn	a5, sp, 0xc0
   15c82: ba 94        	c.add	s1, a4
   15c84: 23 b0 fc 00  	sd	a5, 0x0(s9)
   15c88: 23 b4 ec 00  	sd	a4, 0x8(s9)
   15c8c: a6 f9        	c.sdsp	s1, 0xf0(sp)
   15c8e: 1b 07 0b 00  	addiw	a4, s6, 0x0
   15c92: da d5        	c.swsp	s6, 0xe8(sp)
   15c94: 9d 47        	c.li	a5, 0x7
   15c96: 13 84 0c 01  	addi	s0, s9, 0x10
   15c9a: e3 d5 e7 aa  	bge	a5, a4, 0x15744 <_vfprintf_r+0x234>
   15c9e: 22 65        	c.ldsp	a0, 0x8(sp)
   15ca0: 90 11        	c.addi4spn	a2, sp, 0xe0
   15ca2: ca 85        	c.mv	a1, s2
   15ca4: ef 10 20 54  	jal	ra, 0x171e6 <__sprint_r>
   15ca8: 63 11 05 4e  	bne	a0, zero, 0x1618a <_vfprintf_r+0xc7a>
   15cac: ce 74        	c.ldsp	s1, 0xf0(sp)
   15cae: 52 84        	c.mv	s0, s4
   15cb0: 51 bc        	c.j	0x15744 <_vfprintf_r+0x234>
   15cb2: 93 f7 0d 01  	andi	a5, s11, 0x10
   15cb6: e3 96 07 02  	bne	a5, zero, 0x164e2 <_vfprintf_r+0xfd2>
   15cba: 82 76        	c.ldsp	a3, 0x20(sp)
   15cbc: 93 f7 0d 04  	andi	a5, s11, 0x40
   15cc0: 84 42        	c.lw	s1, 0x0(a3)
   15cc2: e3 85 07 3e  	beq	a5, zero, 0x168ac <_vfprintf_r+0x139c>
   15cc6: c2 14        	c.slli	s1, 0x30
   15cc8: c1 90        	c.srli	s1, 0x30
   15cca: 65 be        	c.j	0x15882 <_vfprintf_r+0x372>
   15ccc: 93 f7 0d 01  	andi	a5, s11, 0x10
   15cd0: 63 9e 07 7c  	bne	a5, zero, 0x164ac <_vfprintf_r+0xf9c>
   15cd4: 82 76        	c.ldsp	a3, 0x20(sp)
   15cd6: 93 f7 0d 04  	andi	a5, s11, 0x40
   15cda: 84 42        	c.lw	s1, 0x0(a3)
   15cdc: e3 80 07 3e  	beq	a5, zero, 0x168bc <_vfprintf_r+0x13ac>
   15ce0: 9b 94 04 01  	slliw	s1, s1, 0x10
   15ce4: 9b d4 04 41  	sraiw	s1, s1, 0x10
   15ce8: a6 87        	c.mv	a5, s1
   15cea: e3 df 07 b2  	bge	a5, zero, 0x15828 <_vfprintf_r+0x318>
   15cee: 3a f0        	c.sdsp	a4, 0x20(sp)
   15cf0: 13 07 d0 02  	addi	a4, zero, 0x2d
   15cf4: a3 07 e1 0a  	sb	a4, 0xaf(sp)
   15cf8: b3 04 90 40  	sub	s1, zero, s1
   15cfc: ee 8c        	c.mv	s9, s11
   15cfe: 85 47        	c.li	a5, 0x1
   15d00: e3 5b 0b b8  	bge	s6, zero, 0x15896 <_vfprintf_r+0x386>
   15d04: 05 47        	c.li	a4, 0x1
   15d06: 63 8e e7 48  	beq	a5, a4, 0x161a2 <_vfprintf_r+0xc92>
   15d0a: 09 47        	c.li	a4, 0x2
   15d0c: 63 84 e7 30  	beq	a5, a4, 0x16014 <_vfprintf_r+0xb04>
   15d10: f4 0a        	c.addi4spn	a3, sp, 0x15c
   15d12: 36 8d        	c.mv	s10, a3
   15d14: 13 f7 74 00  	andi	a4, s1, 0x7
   15d18: 13 07 07 03  	addi	a4, a4, 0x30
   15d1c: a3 0f ed fe  	sb	a4, -0x1(s10)
   15d20: 8d 80        	c.srli	s1, 0x3
   15d22: 6a 86        	c.mv	a2, s10
   15d24: 7d 1d        	c.addi	s10, -0x1
   15d26: fd f4        	c.bnez	s1, 0x15d14 <_vfprintf_r+0x804>
   15d28: 93 f5 1c 00  	andi	a1, s9, 0x1
   15d2c: 63 81 05 30  	beq	a1, zero, 0x1602e <_vfprintf_r+0xb1e>
   15d30: 93 05 00 03  	addi	a1, zero, 0x30
   15d34: 63 0d b7 2e  	beq	a4, a1, 0x1602e <_vfprintf_r+0xb1e>
   15d38: 79 16        	c.addi	a2, -0x2
   15d3a: a3 0f bd fe  	sb	a1, -0x1(s10)
   15d3e: 91 9e        	c.subw	a3, a2
   15d40: e6 8d        	c.mv	s11, s9
   15d42: 32 8d        	c.mv	s10, a2
   15d44: 19 b6        	c.j	0x1584a <_vfprintf_r+0x33a>
   15d46: 82 77        	c.ldsp	a5, 0x20(sp)
   15d48: a3 07 01 0a  	sb	zero, 0xaf(sp)
   15d4c: 03 bd 07 00  	ld	s10, 0x0(a5)
   15d50: 93 84 87 00  	addi	s1, a5, 0x8
   15d54: e3 05 0d 0a  	beq	s10, zero, 0x165fe <_vfprintf_r+0x10ee>
   15d58: e3 4e 0b 2a  	blt	s6, zero, 0x16814 <_vfprintf_r+0x1304>
   15d5c: 5a 86        	c.mv	a2, s6
   15d5e: 81 45        	c.li	a1, 0x0
   15d60: 6a 85        	c.mv	a0, s10
   15d62: 1a f0        	c.sdsp	t1, 0x20(sp)
   15d64: ef 20 70 18  	jal	ra, 0x186ea <memchr>
   15d68: 2a ec        	c.sdsp	a0, 0x18(sp)
   15d6a: 02 73        	c.ldsp	t1, 0x20(sp)
   15d6c: 19 e1        	c.bnez	a0, 0x15d72 <_vfprintf_r+0x862>
   15d6e: 6f 00 70 7d  	jal	zero, 0x16d44 <_vfprintf_r+0x1834>
   15d72: e2 67        	c.ldsp	a5, 0x18(sp)
   15d74: 03 47 f1 0a  	lbu	a4, 0xaf(sp)
   15d78: 26 f0        	c.sdsp	s1, 0x20(sp)
   15d7a: bb 86 a7 41  	subw	a3, a5, s10
   15d7e: 13 c8 f6 ff  	xori	a6, a3, -0x1
   15d82: 13 58 f8 43  	srai	a6, a6, 0x3f
   15d86: 02 ec        	c.sdsp	zero, 0x18(sp)
   15d88: 82 e4        	c.sdsp	zero, 0x48(sp)
   15d8a: 82 e0        	c.sdsp	zero, 0x40(sp)
   15d8c: 02 f8        	c.sdsp	zero, 0x30(sp)
   15d8e: 33 7c d8 00  	and	s8, a6, a3
   15d92: 01 4b        	c.li	s6, 0x0
   15d94: e3 19 07 ac  	bne	a4, zero, 0x15866 <_vfprintf_r+0x356>
   15d98: 21 ba        	c.j	0x156b0 <_vfprintf_r+0x1a0>
   15d9a: 02 77        	c.ldsp	a4, 0x20(sp)
   15d9c: a3 07 01 0a  	sb	zero, 0xaf(sp)
   15da0: 05 4c        	c.li	s8, 0x1
   15da2: 1c 43        	c.lw	a5, 0x0(a4)
   15da4: 21 07        	c.addi	a4, 0x8
   15da6: 3a f0        	c.sdsp	a4, 0x20(sp)
   15da8: 23 0c f1 0e  	sb	a5, 0xf8(sp)
   15dac: 85 46        	c.li	a3, 0x1
   15dae: 13 0d 81 0f  	addi	s10, sp, 0xf8
   15db2: d5 b8        	c.j	0x156a6 <_vfprintf_r+0x196>
   15db4: 82 77        	c.ldsp	a5, 0x20(sp)
   15db6: 83 ab 07 00  	lw	s7, 0x0(a5)
   15dba: a1 07        	c.addi	a5, 0x8
   15dbc: 63 d3 0b 6e  	bge	s7, zero, 0x164a2 <_vfprintf_r+0xf92>
   15dc0: bb 0b 70 41  	subw	s7, zero, s7
   15dc4: 3e f0        	c.sdsp	a5, 0x20(sp)
   15dc6: 93 ed 4d 00  	ori	s11, s11, 0x4
   15dca: 03 c3 09 00  	lbu	t1, 0x0(s3)
   15dce: 81 2d        	c.addiw	s11, 0x0
   15dd0: b5 b0        	c.j	0x1563c <_vfprintf_r+0x12c>
   15dd2: 93 07 b0 02  	addi	a5, zero, 0x2b
   15dd6: 03 c3 09 00  	lbu	t1, 0x0(s3)
   15dda: a3 07 f1 0a  	sb	a5, 0xaf(sp)
   15dde: b9 b8        	c.j	0x1563c <_vfprintf_r+0x12c>
   15de0: 93 ed 0d 08  	ori	s11, s11, 0x80
   15de4: 03 c3 09 00  	lbu	t1, 0x0(s3)
   15de8: 81 2d        	c.addiw	s11, 0x0
   15dea: 89 b8        	c.j	0x1563c <_vfprintf_r+0x12c>
   15dec: 03 c3 09 00  	lbu	t1, 0x0(s3)
   15df0: 93 06 a0 02  	addi	a3, zero, 0x2a
   15df4: 13 87 19 00  	addi	a4, s3, 0x1
   15df8: 63 14 d3 00  	bne	t1, a3, 0x15e00 <_vfprintf_r+0x8f0>
   15dfc: 6f 10 a0 24  	jal	zero, 0x17046 <_vfprintf_r+0x1b36>
   15e00: 9b 07 03 fd  	addiw	a5, t1, -0x30
   15e04: a5 45        	c.li	a1, 0x9
   15e06: 81 46        	c.li	a3, 0x0
   15e08: 25 46        	c.li	a2, 0x9
   15e0a: ba 89        	c.mv	s3, a4
   15e0c: 01 4b        	c.li	s6, 0x0
   15e0e: e3 e9 f5 82  	bltu	a1, a5, 0x15640 <_vfprintf_r+0x130>
   15e12: 03 43 07 00  	lbu	t1, 0x0(a4)
   15e16: 1b 9b 26 00  	slliw	s6, a3, 0x2
   15e1a: 3b 0b db 00  	addw	s6, s6, a3
   15e1e: 1b 1b 1b 00  	slliw	s6, s6, 0x1
   15e22: bb 86 67 01  	addw	a3, a5, s6
   15e26: 9b 07 03 fd  	addiw	a5, t1, -0x30
   15e2a: 36 8b        	c.mv	s6, a3
   15e2c: 05 07        	c.addi	a4, 0x1
   15e2e: e3 72 f6 fe  	bgeu	a2, a5, 0x15e12 <_vfprintf_r+0x902>
   15e32: 63 ce 06 72  	blt	a3, zero, 0x1656e <_vfprintf_r+0x105e>
   15e36: ba 89        	c.mv	s3, a4
   15e38: 6f f0 9f 80  	jal	zero, 0x15640 <_vfprintf_r+0x130>
   15e3c: 93 ec 0d 01  	ori	s9, s11, 0x10
   15e40: 81 2c        	c.addiw	s9, 0x0
   15e42: 82 76        	c.ldsp	a3, 0x20(sp)
   15e44: 93 f7 0c 02  	andi	a5, s9, 0x20
   15e48: 13 87 86 00  	addi	a4, a3, 0x8
   15e4c: 63 82 07 62  	beq	a5, zero, 0x16470 <_vfprintf_r+0xf60>
   15e50: 84 62        	c.ld	s1, 0x0(a3)
   15e52: 85 47        	c.li	a5, 0x1
   15e54: 3a f0        	c.sdsp	a4, 0x20(sp)
   15e56: 1d bc        	c.j	0x1588c <_vfprintf_r+0x37c>
   15e58: 22 6c        	c.ldsp	s8, 0x8(sp)
   15e5a: 62 85        	c.mv	a0, s8
   15e5c: ef 20 90 28  	jal	ra, 0x188e4 <_localeconv_r>
   15e60: 1c 65        	c.ld	a5, 0x8(a0)
   15e62: 3e 85        	c.mv	a0, a5
   15e64: be fc        	c.sdsp	a5, 0x78(sp)
   15e66: ef e0 5f c0  	jal	ra, 0x14a6a <strlen>
   15e6a: aa 87        	c.mv	a5, a0
   15e6c: 62 85        	c.mv	a0, s8
   15e6e: 3e e5        	c.sdsp	a5, 0x88(sp)
   15e70: 3e 8c        	c.mv	s8, a5
   15e72: ef 20 30 27  	jal	ra, 0x188e4 <_localeconv_r>
   15e76: 1c 69        	c.ld	a5, 0x10(a0)
   15e78: 03 c3 09 00  	lbu	t1, 0x0(s3)
   15e7c: 3e e1        	c.sdsp	a5, 0x80(sp)
   15e7e: 63 0f 0c fa  	beq	s8, zero, 0x1563c <_vfprintf_r+0x12c>
   15e82: 63 8d 07 fa  	beq	a5, zero, 0x1563c <_vfprintf_r+0x12c>
   15e86: 83 c7 07 00  	lbu	a5, 0x0(a5)
   15e8a: 63 89 07 fa  	beq	a5, zero, 0x1563c <_vfprintf_r+0x12c>
   15e8e: 93 ed 0d 40  	ori	s11, s11, 0x400
   15e92: 81 2d        	c.addiw	s11, 0x0
   15e94: 6f f0 8f fa  	jal	zero, 0x1563c <_vfprintf_r+0x12c>
   15e98: 93 ed 1d 00  	ori	s11, s11, 0x1
   15e9c: 03 c3 09 00  	lbu	t1, 0x0(s3)
   15ea0: 81 2d        	c.addiw	s11, 0x0
   15ea2: 6f f0 af f9  	jal	zero, 0x1563c <_vfprintf_r+0x12c>
   15ea6: 83 47 f1 0a  	lbu	a5, 0xaf(sp)
   15eaa: 03 c3 09 00  	lbu	t1, 0x0(s3)
   15eae: 63 97 07 f8  	bne	a5, zero, 0x1563c <_vfprintf_r+0x12c>
   15eb2: 93 07 00 02  	addi	a5, zero, 0x20
   15eb6: a3 07 f1 0a  	sb	a5, 0xaf(sp)
   15eba: 6f f0 2f f8  	jal	zero, 0x1563c <_vfprintf_r+0x12c>
   15ebe: 93 ed 8d 00  	ori	s11, s11, 0x8
   15ec2: 03 c3 09 00  	lbu	t1, 0x0(s3)
   15ec6: 81 2d        	c.addiw	s11, 0x0
   15ec8: 6f f0 4f f7  	jal	zero, 0x1563c <_vfprintf_r+0x12c>
   15ecc: 93 ed 0d 02  	ori	s11, s11, 0x20
   15ed0: 03 c3 09 00  	lbu	t1, 0x0(s3)
   15ed4: 81 2d        	c.addiw	s11, 0x0
   15ed6: 6f f0 6f f6  	jal	zero, 0x1563c <_vfprintf_r+0x12c>
   15eda: 02 77        	c.ldsp	a4, 0x20(sp)
   15edc: a1 67        	c.lui	a5, 0x8
   15ede: 93 87 07 83  	addi	a5, a5, -0x7d0
   15ee2: 23 18 f1 0a  	sh	a5, 0xb0(sp)
   15ee6: 93 07 87 00  	addi	a5, a4, 0x8
   15eea: 3e f0        	c.sdsp	a5, 0x20(sp)
   15eec: b7 77 02 00  	lui	a5, 0x27
   15ef0: 93 87 87 3a  	addi	a5, a5, 0x3a8
   15ef4: 93 ec 2d 00  	ori	s9, s11, 0x2
   15ef8: be f0        	c.sdsp	a5, 0x60(sp)
   15efa: 04 63        	c.ld	s1, 0x0(a4)
   15efc: 81 2c        	c.addiw	s9, 0x0
   15efe: 89 47        	c.li	a5, 0x2
   15f00: 13 03 80 07  	addi	t1, zero, 0x78
   15f04: 61 b2        	c.j	0x1588c <_vfprintf_r+0x37c>
   15f06: 02 77        	c.ldsp	a4, 0x20(sp)
   15f08: 93 f7 0d 02  	andi	a5, s11, 0x20
   15f0c: 18 63        	c.ld	a4, 0x0(a4)
   15f0e: 63 8a 07 5a  	beq	a5, zero, 0x164c2 <_vfprintf_r+0xfb2>
   15f12: c2 67        	c.ldsp	a5, 0x10(sp)
   15f14: 1c e3        	c.sd	a5, 0x0(a4)
   15f16: 82 77        	c.ldsp	a5, 0x20(sp)
   15f18: 4e 8d        	c.mv	s10, s3
   15f1a: a1 07        	c.addi	a5, 0x8
   15f1c: 3e f0        	c.sdsp	a5, 0x20(sp)
   15f1e: a9 b8        	c.j	0x15778 <_vfprintf_r+0x268>
   15f20: 03 c3 09 00  	lbu	t1, 0x0(s3)
   15f24: 93 07 c0 06  	addi	a5, zero, 0x6c
   15f28: 63 09 f3 6a  	beq	t1, a5, 0x165da <_vfprintf_r+0x10ca>
   15f2c: 93 ed 0d 01  	ori	s11, s11, 0x10
   15f30: 81 2d        	c.addiw	s11, 0x0
   15f32: 6f f0 af f0  	jal	zero, 0x1563c <_vfprintf_r+0x12c>
   15f36: 03 c3 09 00  	lbu	t1, 0x0(s3)
   15f3a: 93 07 80 06  	addi	a5, zero, 0x68
   15f3e: 63 06 f3 68  	beq	t1, a5, 0x165ca <_vfprintf_r+0x10ba>
   15f42: 93 ed 0d 04  	ori	s11, s11, 0x40
   15f46: 81 2d        	c.addiw	s11, 0x0
   15f48: 6f f0 4f ef  	jal	zero, 0x1563c <_vfprintf_r+0x12c>
   15f4c: 13 07 50 06  	addi	a4, zero, 0x65
   15f50: e3 5b 67 ca  	bge	a4, t1, 0x15c06 <_vfprintf_r+0x6f6>
   15f54: 4e 65        	c.ldsp	a0, 0xd0(sp)
   15f56: ee 65        	c.ldsp	a1, 0xd8(sp)
   15f58: 01 46        	c.li	a2, 0x0
   15f5a: 81 46        	c.li	a3, 0x0
   15f5c: ef 50 10 43  	jal	ra, 0x1bb8c <__netf2>
   15f60: 63 1a 05 38  	bne	a0, zero, 0x162f4 <_vfprintf_r+0xde4>
   15f64: ae 57        	c.lwsp	a5, 0xe8(sp)
   15f66: 37 77 02 00  	lui	a4, 0x27
   15f6a: 13 07 07 3e  	addi	a4, a4, 0x3e0
   15f6e: 85 27        	c.addiw	a5, 0x1
   15f70: 18 e0        	c.sd	a4, 0x0(s0)
   15f72: 85 04        	c.addi	s1, 0x1
   15f74: 05 47        	c.li	a4, 0x1
   15f76: 18 e4        	c.sd	a4, 0x8(s0)
   15f78: be d5        	c.swsp	a5, 0xe8(sp)
   15f7a: 1b 87 07 00  	addiw	a4, a5, 0x0
   15f7e: a6 f9        	c.sdsp	s1, 0xf0(sp)
   15f80: 9d 47        	c.li	a5, 0x7
   15f82: 41 04        	c.addi	s0, 0x10
   15f84: e3 c5 e7 00  	blt	a5, a4, 0x1678e <_vfprintf_r+0x127e>
   15f88: ea 57        	c.lwsp	a5, 0xb8(sp)
   15f8a: 62 77        	c.ldsp	a4, 0x38(sp)
   15f8c: 63 d6 e7 50  	bge	a5, a4, 0x16498 <_vfprintf_r+0xf88>
   15f90: 46 67        	c.ldsp	a4, 0x50(sp)
   15f92: ae 57        	c.lwsp	a5, 0xe8(sp)
   15f94: e6 66        	c.ldsp	a3, 0x58(sp)
   15f96: ba 94        	c.add	s1, a4
   15f98: 85 27        	c.addiw	a5, 0x1
   15f9a: 18 e4        	c.sd	a4, 0x8(s0)
   15f9c: 14 e0        	c.sd	a3, 0x0(s0)
   15f9e: 1b 87 07 00  	addiw	a4, a5, 0x0
   15fa2: be d5        	c.swsp	a5, 0xe8(sp)
   15fa4: a6 f9        	c.sdsp	s1, 0xf0(sp)
   15fa6: 9d 47        	c.li	a5, 0x7
   15fa8: 41 04        	c.addi	s0, 0x10
   15faa: 63 c0 e7 64  	blt	a5, a4, 0x165ea <_vfprintf_r+0x10da>
   15fae: e2 77        	c.ldsp	a5, 0x38(sp)
   15fb0: 1b 8b f7 ff  	addiw	s6, a5, -0x1
   15fb4: 63 58 60 f9  	bge	zero, s6, 0x15744 <_vfprintf_r+0x234>
   15fb8: b7 78 02 00  	lui	a7, 0x27
   15fbc: 41 47        	c.li	a4, 0x10
   15fbe: ae 57        	c.lwsp	a5, 0xe8(sp)
   15fc0: 93 88 08 64  	addi	a7, a7, 0x640
   15fc4: 63 53 67 7f  	bge	a4, s6, 0x167aa <_vfprintf_r+0x129a>
   15fc8: 4e f8        	c.sdsp	s3, 0x30(sp)
   15fca: c1 4c        	c.li	s9, 0x10
   15fcc: da 89        	c.mv	s3, s6
   15fce: 1d 4d        	c.li	s10, 0x7
   15fd0: 46 8b        	c.mv	s6, a7
   15fd2: 21 a0        	c.j	0x15fda <_vfprintf_r+0xaca>
   15fd4: c1 39        	c.addiw	s3, -0x10
   15fd6: 63 d7 3c 7d  	bge	s9, s3, 0x167a4 <_vfprintf_r+0x1294>
   15fda: 85 27        	c.addiw	a5, 0x1
   15fdc: c1 04        	c.addi	s1, 0x10
   15fde: 23 30 64 01  	sd	s6, 0x0(s0)
   15fe2: 23 34 94 01  	sd	s9, 0x8(s0)
   15fe6: a6 f9        	c.sdsp	s1, 0xf0(sp)
   15fe8: be d5        	c.swsp	a5, 0xe8(sp)
   15fea: 41 04        	c.addi	s0, 0x10
   15fec: e3 54 fd fe  	bge	s10, a5, 0x15fd4 <_vfprintf_r+0xac4>
   15ff0: 22 65        	c.ldsp	a0, 0x8(sp)
   15ff2: 90 11        	c.addi4spn	a2, sp, 0xe0
   15ff4: ca 85        	c.mv	a1, s2
   15ff6: ef 10 00 1f  	jal	ra, 0x171e6 <__sprint_r>
   15ffa: 63 18 05 18  	bne	a0, zero, 0x1618a <_vfprintf_r+0xc7a>
   15ffe: ce 74        	c.ldsp	s1, 0xf0(sp)
   16000: ae 57        	c.lwsp	a5, 0xe8(sp)
   16002: 52 84        	c.mv	s0, s4
   16004: c1 bf        	c.j	0x15fd4 <_vfprintf_r+0xac4>
   16006: 05 47        	c.li	a4, 0x1
   16008: e3 8b e7 64  	beq	a5, a4, 0x16e5e <_vfprintf_r+0x194e>
   1600c: 09 47        	c.li	a4, 0x2
   1600e: ee 8c        	c.mv	s9, s11
   16010: e3 90 e7 d0  	bne	a5, a4, 0x15d10 <_vfprintf_r+0x800>
   16014: 06 77        	c.ldsp	a4, 0x60(sp)
   16016: f4 0a        	c.addi4spn	a3, sp, 0x15c
   16018: 36 8d        	c.mv	s10, a3
   1601a: 93 f7 f4 00  	andi	a5, s1, 0xf
   1601e: ba 97        	c.add	a5, a4
   16020: 83 c7 07 00  	lbu	a5, 0x0(a5)
   16024: 91 80        	c.srli	s1, 0x4
   16026: 7d 1d        	c.addi	s10, -0x1
   16028: 23 00 fd 00  	sb	a5, 0x0(s10)
   1602c: fd f4        	c.bnez	s1, 0x1601a <_vfprintf_r+0xb0a>
   1602e: bb 86 a6 41  	subw	a3, a3, s10
   16032: e6 8d        	c.mv	s11, s9
   16034: 6f f0 7f 81  	jal	zero, 0x1584a <_vfprintf_r+0x33a>
   16038: bb 8c 8b 41  	subw	s9, s7, s8
   1603c: 63 50 90 ef  	bge	zero, s9, 0x1571c <_vfprintf_r+0x20c>
   16040: b7 78 02 00  	lui	a7, 0x27
   16044: c1 45        	c.li	a1, 0x10
   16046: 2e 56        	c.lwsp	a2, 0xe8(sp)
   16048: 93 88 08 64  	addi	a7, a7, 0x640
   1604c: 63 df 95 05  	bge	a1, s9, 0x160aa <_vfprintf_r+0xb9a>
   16050: a2 87        	c.mv	a5, s0
   16052: 26 87        	c.mv	a4, s1
   16054: 66 84        	c.mv	s0, s9
   16056: 41 4f        	c.li	t5, 0x10
   16058: e2 8c        	c.mv	s9, s8
   1605a: 9d 4f        	c.li	t6, 0x7
   1605c: 9a f4        	c.sdsp	t1, 0x68(sp)
   1605e: 36 8c        	c.mv	s8, a3
   16060: c6 84        	c.mv	s1, a7
   16062: 21 a0        	c.j	0x1606a <_vfprintf_r+0xb5a>
   16064: 41 34        	c.addiw	s0, -0x10
   16066: 63 5b 8f 02  	bge	t5, s0, 0x1609c <_vfprintf_r+0xb8c>
   1606a: 05 26        	c.addiw	a2, 0x1
   1606c: 41 07        	c.addi	a4, 0x10
   1606e: 84 e3        	c.sd	s1, 0x0(a5)
   16070: 23 b4 e7 01  	sd	t5, 0x8(a5)
   16074: ba f9        	c.sdsp	a4, 0xf0(sp)
   16076: b2 d5        	c.swsp	a2, 0xe8(sp)
   16078: c1 07        	c.addi	a5, 0x10
   1607a: e3 d5 cf fe  	bge	t6, a2, 0x16064 <_vfprintf_r+0xb54>
   1607e: 22 65        	c.ldsp	a0, 0x8(sp)
   16080: 90 11        	c.addi4spn	a2, sp, 0xe0
   16082: ca 85        	c.mv	a1, s2
   16084: ef 10 20 16  	jal	ra, 0x171e6 <__sprint_r>
   16088: 63 11 05 10  	bne	a0, zero, 0x1618a <_vfprintf_r+0xc7a>
   1608c: 41 4f        	c.li	t5, 0x10
   1608e: 41 34        	c.addiw	s0, -0x10
   16090: 4e 77        	c.ldsp	a4, 0xf0(sp)
   16092: 2e 56        	c.lwsp	a2, 0xe8(sp)
   16094: d2 87        	c.mv	a5, s4
   16096: 9d 4f        	c.li	t6, 0x7
   16098: e3 49 8f fc  	blt	t5, s0, 0x1606a <_vfprintf_r+0xb5a>
   1609c: 26 73        	c.ldsp	t1, 0x68(sp)
   1609e: e2 86        	c.mv	a3, s8
   160a0: a6 88        	c.mv	a7, s1
   160a2: 66 8c        	c.mv	s8, s9
   160a4: ba 84        	c.mv	s1, a4
   160a6: a2 8c        	c.mv	s9, s0
   160a8: 3e 84        	c.mv	s0, a5
   160aa: 9b 05 16 00  	addiw	a1, a2, 0x1
   160ae: e6 94        	c.add	s1, s9
   160b0: 23 30 14 01  	sd	a7, 0x0(s0)
   160b4: 23 34 94 01  	sd	s9, 0x8(s0)
   160b8: a6 f9        	c.sdsp	s1, 0xf0(sp)
   160ba: ae d5        	c.swsp	a1, 0xe8(sp)
   160bc: 1d 47        	c.li	a4, 0x7
   160be: 41 04        	c.addi	s0, 0x10
   160c0: 63 5e b7 e4  	bge	a4, a1, 0x1571c <_vfprintf_r+0x20c>
   160c4: 22 65        	c.ldsp	a0, 0x8(sp)
   160c6: 90 11        	c.addi4spn	a2, sp, 0xe0
   160c8: ca 85        	c.mv	a1, s2
   160ca: 36 e9        	c.sdsp	a3, 0x90(sp)
   160cc: 9a f4        	c.sdsp	t1, 0x68(sp)
   160ce: ef 10 80 11  	jal	ra, 0x171e6 <__sprint_r>
   160d2: 45 ed        	c.bnez	a0, 0x1618a <_vfprintf_r+0xc7a>
   160d4: ce 74        	c.ldsp	s1, 0xf0(sp)
   160d6: ca 66        	c.ldsp	a3, 0x90(sp)
   160d8: 26 73        	c.ldsp	t1, 0x68(sp)
   160da: 52 84        	c.mv	s0, s4
   160dc: 6f f0 0f e4  	jal	zero, 0x1571c <_vfprintf_r+0x20c>
   160e0: b7 78 02 00  	lui	a7, 0x27
   160e4: 41 47        	c.li	a4, 0x10
   160e6: 2e 56        	c.lwsp	a2, 0xe8(sp)
   160e8: 93 88 08 64  	addi	a7, a7, 0x640
   160ec: 63 5d 67 05  	bge	a4, s6, 0x16146 <_vfprintf_r+0xc36>
   160f0: a6 85        	c.mv	a1, s1
   160f2: a2 87        	c.mv	a5, s0
   160f4: b6 84        	c.mv	s1, a3
   160f6: 5a 84        	c.mv	s0, s6
   160f8: 41 47        	c.li	a4, 0x10
   160fa: 9d 4c        	c.li	s9, 0x7
   160fc: 9a f4        	c.sdsp	t1, 0x68(sp)
   160fe: 56 8b        	c.mv	s6, s5
   16100: ae 86        	c.mv	a3, a1
   16102: 21 a0        	c.j	0x1610a <_vfprintf_r+0xbfa>
   16104: 41 34        	c.addiw	s0, -0x10
   16106: 63 59 87 02  	bge	a4, s0, 0x16138 <_vfprintf_r+0xc28>
   1610a: 05 26        	c.addiw	a2, 0x1
   1610c: c1 06        	c.addi	a3, 0x10
   1610e: 23 b0 57 01  	sd	s5, 0x0(a5)
   16112: 98 e7        	c.sd	a4, 0x8(a5)
   16114: b6 f9        	c.sdsp	a3, 0xf0(sp)
   16116: b2 d5        	c.swsp	a2, 0xe8(sp)
   16118: c1 07        	c.addi	a5, 0x10
   1611a: e3 d5 cc fe  	bge	s9, a2, 0x16104 <_vfprintf_r+0xbf4>
   1611e: 22 65        	c.ldsp	a0, 0x8(sp)
   16120: 90 11        	c.addi4spn	a2, sp, 0xe0
   16122: ca 85        	c.mv	a1, s2
   16124: ef 10 20 0c  	jal	ra, 0x171e6 <__sprint_r>
   16128: 2d e1        	c.bnez	a0, 0x1618a <_vfprintf_r+0xc7a>
   1612a: 41 47        	c.li	a4, 0x10
   1612c: 41 34        	c.addiw	s0, -0x10
   1612e: ce 76        	c.ldsp	a3, 0xf0(sp)
   16130: 2e 56        	c.lwsp	a2, 0xe8(sp)
   16132: d2 87        	c.mv	a5, s4
   16134: e3 4b 87 fc  	blt	a4, s0, 0x1610a <_vfprintf_r+0xbfa>
   16138: 26 73        	c.ldsp	t1, 0x68(sp)
   1613a: 36 87        	c.mv	a4, a3
   1613c: da 88        	c.mv	a7, s6
   1613e: a6 86        	c.mv	a3, s1
   16140: 22 8b        	c.mv	s6, s0
   16142: ba 84        	c.mv	s1, a4
   16144: 3e 84        	c.mv	s0, a5
   16146: 9b 05 16 00  	addiw	a1, a2, 0x1
   1614a: da 94        	c.add	s1, s6
   1614c: 23 30 14 01  	sd	a7, 0x0(s0)
   16150: 23 34 64 01  	sd	s6, 0x8(s0)
   16154: a6 f9        	c.sdsp	s1, 0xf0(sp)
   16156: ae d5        	c.swsp	a1, 0xe8(sp)
   16158: 1d 47        	c.li	a4, 0x7
   1615a: 41 04        	c.addi	s0, 0x10
   1615c: 63 54 b7 dc  	bge	a4, a1, 0x15724 <_vfprintf_r+0x214>
   16160: 22 65        	c.ldsp	a0, 0x8(sp)
   16162: 90 11        	c.addi4spn	a2, sp, 0xe0
   16164: ca 85        	c.mv	a1, s2
   16166: 36 e9        	c.sdsp	a3, 0x90(sp)
   16168: 9a f4        	c.sdsp	t1, 0x68(sp)
   1616a: ef 10 c0 07  	jal	ra, 0x171e6 <__sprint_r>
   1616e: 11 ed        	c.bnez	a0, 0x1618a <_vfprintf_r+0xc7a>
   16170: ce 74        	c.ldsp	s1, 0xf0(sp)
   16172: ca 66        	c.ldsp	a3, 0x90(sp)
   16174: 26 73        	c.ldsp	t1, 0x68(sp)
   16176: 52 84        	c.mv	s0, s4
   16178: 6f f0 cf da  	jal	zero, 0x15724 <_vfprintf_r+0x214>
   1617c: 22 65        	c.ldsp	a0, 0x8(sp)
   1617e: 90 11        	c.addi4spn	a2, sp, 0xe0
   16180: ca 85        	c.mv	a1, s2
   16182: ef 10 40 06  	jal	ra, 0x171e6 <__sprint_r>
   16186: 63 00 05 de  	beq	a0, zero, 0x15766 <_vfprintf_r+0x256>
   1618a: e2 65        	c.ldsp	a1, 0x18(sp)
   1618c: 63 8e 05 de  	beq	a1, zero, 0x15788 <_vfprintf_r+0x278>
   16190: 22 65        	c.ldsp	a0, 0x8(sp)
   16192: ef e0 9f b2  	jal	ra, 0x14cba <_free_r>
   16196: 6f f0 2f df  	jal	zero, 0x15788 <_vfprintf_r+0x278>
   1619a: 05 47        	c.li	a4, 0x1
   1619c: ee 8c        	c.mv	s9, s11
   1619e: e3 96 e7 b6  	bne	a5, a4, 0x15d0a <_vfprintf_r+0x7fa>
   161a2: a5 47        	c.li	a5, 0x9
   161a4: 63 e6 97 36  	bltu	a5, s1, 0x16510 <_vfprintf_r+0x1000>
   161a8: 9b 84 04 03  	addiw	s1, s1, 0x30
   161ac: a3 0d 91 14  	sb	s1, 0x15b(sp)
   161b0: e6 8d        	c.mv	s11, s9
   161b2: 85 46        	c.li	a3, 0x1
   161b4: 13 0d b1 15  	addi	s10, sp, 0x15b
   161b8: 6f f0 2f e9  	jal	zero, 0x1584a <_vfprintf_r+0x33a>
   161bc: b7 78 02 00  	lui	a7, 0x27
   161c0: c1 45        	c.li	a1, 0x10
   161c2: 2e 56        	c.lwsp	a2, 0xe8(sp)
   161c4: 93 88 08 65  	addi	a7, a7, 0x650
   161c8: 63 de e5 04  	bge	a1, a4, 0x16224 <_vfprintf_r+0xd14>
   161cc: 36 ed        	c.sdsp	a3, 0x98(sp)
   161ce: a2 87        	c.mv	a5, s0
   161d0: a6 86        	c.mv	a3, s1
   161d2: 41 4f        	c.li	t5, 0x10
   161d4: 9d 43        	c.li	t2, 0x7
   161d6: 96 f4        	c.sdsp	t0, 0x68(sp)
   161d8: 1a e9        	c.sdsp	t1, 0x90(sp)
   161da: 3a 84        	c.mv	s0, a4
   161dc: c6 84        	c.mv	s1, a7
   161de: 21 a0        	c.j	0x161e6 <_vfprintf_r+0xcd6>
   161e0: 41 34        	c.addiw	s0, -0x10
   161e2: 63 5a 8f 02  	bge	t5, s0, 0x16216 <_vfprintf_r+0xd06>
   161e6: 05 26        	c.addiw	a2, 0x1
   161e8: c1 06        	c.addi	a3, 0x10
   161ea: 84 e3        	c.sd	s1, 0x0(a5)
   161ec: 23 b4 e7 01  	sd	t5, 0x8(a5)
   161f0: b6 f9        	c.sdsp	a3, 0xf0(sp)
   161f2: b2 d5        	c.swsp	a2, 0xe8(sp)
   161f4: c1 07        	c.addi	a5, 0x10
   161f6: e3 d5 c3 fe  	bge	t2, a2, 0x161e0 <_vfprintf_r+0xcd0>
   161fa: 22 65        	c.ldsp	a0, 0x8(sp)
   161fc: 90 11        	c.addi4spn	a2, sp, 0xe0
   161fe: ca 85        	c.mv	a1, s2
   16200: ef 00 70 7e  	jal	ra, 0x171e6 <__sprint_r>
   16204: 59 f1        	c.bnez	a0, 0x1618a <_vfprintf_r+0xc7a>
   16206: 41 4f        	c.li	t5, 0x10
   16208: 41 34        	c.addiw	s0, -0x10
   1620a: ce 76        	c.ldsp	a3, 0xf0(sp)
   1620c: 2e 56        	c.lwsp	a2, 0xe8(sp)
   1620e: d2 87        	c.mv	a5, s4
   16210: 9d 43        	c.li	t2, 0x7
   16212: e3 4a 8f fc  	blt	t5, s0, 0x161e6 <_vfprintf_r+0xcd6>
   16216: a6 88        	c.mv	a7, s1
   16218: a6 72        	c.ldsp	t0, 0x68(sp)
   1621a: b6 84        	c.mv	s1, a3
   1621c: 4a 63        	c.ldsp	t1, 0x90(sp)
   1621e: ea 66        	c.ldsp	a3, 0x98(sp)
   16220: 22 87        	c.mv	a4, s0
   16222: 3e 84        	c.mv	s0, a5
   16224: ba 94        	c.add	s1, a4
   16226: 9b 05 16 00  	addiw	a1, a2, 0x1
   1622a: 18 e4        	c.sd	a4, 0x8(s0)
   1622c: 23 30 14 01  	sd	a7, 0x0(s0)
   16230: a6 f9        	c.sdsp	s1, 0xf0(sp)
   16232: ae d5        	c.swsp	a1, 0xe8(sp)
   16234: 1d 47        	c.li	a4, 0x7
   16236: 41 04        	c.addi	s0, 0x10
   16238: 63 5a b7 c8  	bge	a4, a1, 0x156cc <_vfprintf_r+0x1bc>
   1623c: 22 65        	c.ldsp	a0, 0x8(sp)
   1623e: 90 11        	c.addi4spn	a2, sp, 0xe0
   16240: ca 85        	c.mv	a1, s2
   16242: 36 ed        	c.sdsp	a3, 0x98(sp)
   16244: 1a e9        	c.sdsp	t1, 0x90(sp)
   16246: 96 f4        	c.sdsp	t0, 0x68(sp)
   16248: ef 00 f0 79  	jal	ra, 0x171e6 <__sprint_r>
   1624c: 1d fd        	c.bnez	a0, 0x1618a <_vfprintf_r+0xc7a>
   1624e: ce 74        	c.ldsp	s1, 0xf0(sp)
   16250: ea 66        	c.ldsp	a3, 0x98(sp)
   16252: 4a 63        	c.ldsp	t1, 0x90(sp)
   16254: a6 72        	c.ldsp	t0, 0x68(sp)
   16256: 52 84        	c.mv	s0, s4
   16258: 6f f0 4f c7  	jal	zero, 0x156cc <_vfprintf_r+0x1bc>
   1625c: 22 65        	c.ldsp	a0, 0x8(sp)
   1625e: 90 11        	c.addi4spn	a2, sp, 0xe0
   16260: ca 85        	c.mv	a1, s2
   16262: 36 e9        	c.sdsp	a3, 0x90(sp)
   16264: 9a f4        	c.sdsp	t1, 0x68(sp)
   16266: ef 00 10 78  	jal	ra, 0x171e6 <__sprint_r>
   1626a: 05 f1        	c.bnez	a0, 0x1618a <_vfprintf_r+0xc7a>
   1626c: ce 74        	c.ldsp	s1, 0xf0(sp)
   1626e: ca 66        	c.ldsp	a3, 0x90(sp)
   16270: 26 73        	c.ldsp	t1, 0x68(sp)
   16272: 52 84        	c.mv	s0, s4
   16274: 6f f0 0f ca  	jal	zero, 0x15714 <_vfprintf_r+0x204>
   16278: b7 78 02 00  	lui	a7, 0x27
   1627c: 93 88 08 65  	addi	a7, a7, 0x650
   16280: 41 47        	c.li	a4, 0x10
   16282: ae 57        	c.lwsp	a5, 0xe8(sp)
   16284: c1 4c        	c.li	s9, 0x10
   16286: 1d 4d        	c.li	s10, 0x7
   16288: c6 8d        	c.mv	s11, a7
   1628a: 63 46 67 01  	blt	a4, s6, 0x16296 <_vfprintf_r+0xd86>
   1628e: 2d a8        	c.j	0x162c8 <_vfprintf_r+0xdb8>
   16290: 41 3b        	c.addiw	s6, -0x10
   16292: 63 da 6c 03  	bge	s9, s6, 0x162c6 <_vfprintf_r+0xdb6>
   16296: 85 27        	c.addiw	a5, 0x1
   16298: c1 04        	c.addi	s1, 0x10
   1629a: 23 30 b4 01  	sd	s11, 0x0(s0)
   1629e: 23 34 94 01  	sd	s9, 0x8(s0)
   162a2: a6 f9        	c.sdsp	s1, 0xf0(sp)
   162a4: be d5        	c.swsp	a5, 0xe8(sp)
   162a6: 41 04        	c.addi	s0, 0x10
   162a8: e3 54 fd fe  	bge	s10, a5, 0x16290 <_vfprintf_r+0xd80>
   162ac: 22 65        	c.ldsp	a0, 0x8(sp)
   162ae: 90 11        	c.addi4spn	a2, sp, 0xe0
   162b0: ca 85        	c.mv	a1, s2
   162b2: ef 00 50 73  	jal	ra, 0x171e6 <__sprint_r>
   162b6: e3 1a 05 ec  	bne	a0, zero, 0x1618a <_vfprintf_r+0xc7a>
   162ba: 41 3b        	c.addiw	s6, -0x10
   162bc: ce 74        	c.ldsp	s1, 0xf0(sp)
   162be: ae 57        	c.lwsp	a5, 0xe8(sp)
   162c0: 52 84        	c.mv	s0, s4
   162c2: e3 ca 6c fd  	blt	s9, s6, 0x16296 <_vfprintf_r+0xd86>
   162c6: ee 88        	c.mv	a7, s11
   162c8: 1b 87 17 00  	addiw	a4, a5, 0x1
   162cc: da 94        	c.add	s1, s6
   162ce: 23 30 14 01  	sd	a7, 0x0(s0)
   162d2: 23 34 64 01  	sd	s6, 0x8(s0)
   162d6: a6 f9        	c.sdsp	s1, 0xf0(sp)
   162d8: ba d5        	c.swsp	a4, 0xe8(sp)
   162da: 9d 47        	c.li	a5, 0x7
   162dc: 63 dc e7 c6  	bge	a5, a4, 0x15754 <_vfprintf_r+0x244>
   162e0: 22 65        	c.ldsp	a0, 0x8(sp)
   162e2: 90 11        	c.addi4spn	a2, sp, 0xe0
   162e4: ca 85        	c.mv	a1, s2
   162e6: ef 00 10 70  	jal	ra, 0x171e6 <__sprint_r>
   162ea: e3 10 05 ea  	bne	a0, zero, 0x1618a <_vfprintf_r+0xc7a>
   162ee: ce 74        	c.ldsp	s1, 0xf0(sp)
   162f0: 6f f0 4f c6  	jal	zero, 0x15754 <_vfprintf_r+0x244>
   162f4: 6a 57        	c.lwsp	a4, 0xb8(sp)
   162f6: 63 53 e0 42  	bge	zero, a4, 0x1671c <_vfprintf_r+0x120c>
   162fa: c2 77        	c.ldsp	a5, 0x30(sp)
   162fc: 62 77        	c.ldsp	a4, 0x38(sp)
   162fe: 1b 8b 07 00  	addiw	s6, a5, 0x0
   16302: 63 41 f7 26  	blt	a4, a5, 0x16564 <_vfprintf_r+0x1054>
   16306: 63 50 60 03  	bge	zero, s6, 0x16326 <_vfprintf_r+0xe16>
   1630a: 2e 57        	c.lwsp	a4, 0xe8(sp)
   1630c: da 94        	c.add	s1, s6
   1630e: 23 30 a4 01  	sd	s10, 0x0(s0)
   16312: 9b 06 17 00  	addiw	a3, a4, 0x1
   16316: 23 34 64 01  	sd	s6, 0x8(s0)
   1631a: a6 f9        	c.sdsp	s1, 0xf0(sp)
   1631c: b6 d5        	c.swsp	a3, 0xe8(sp)
   1631e: 1d 47        	c.li	a4, 0x7
   16320: 41 04        	c.addi	s0, 0x10
   16322: 63 44 d7 7e  	blt	a4, a3, 0x16b0a <_vfprintf_r+0x15fa>
   16326: 13 47 fb ff  	xori	a4, s6, -0x1
   1632a: c2 77        	c.ldsp	a5, 0x30(sp)
   1632c: 7d 97        	c.srai	a4, 0x3f
   1632e: 33 7b eb 00  	and	s6, s6, a4
   16332: 3b 8b 67 41  	subw	s6, a5, s6
   16336: 63 41 60 2f  	blt	zero, s6, 0x16618 <_vfprintf_r+0x1108>
   1633a: c2 77        	c.ldsp	a5, 0x30(sp)
   1633c: 13 f7 0d 40  	andi	a4, s11, 0x400
   16340: 33 03 fd 00  	add	t1, s10, a5
   16344: 63 19 07 62  	bne	a4, zero, 0x16976 <_vfprintf_r+0x1466>
   16348: 6a 57        	c.lwsp	a4, 0xb8(sp)
   1634a: e2 77        	c.ldsp	a5, 0x38(sp)
   1634c: 63 4c f7 30  	blt	a4, a5, 0x16664 <_vfprintf_r+0x1154>
   16350: 93 f6 1d 00  	andi	a3, s11, 0x1
   16354: 63 98 06 30  	bne	a3, zero, 0x16664 <_vfprintf_r+0x1154>
   16358: e2 76        	c.ldsp	a3, 0x38(sp)
   1635a: b3 07 dd 00  	add	a5, s10, a3
   1635e: 33 8b 67 40  	sub	s6, a5, t1
   16362: 99 9e        	c.subw	a3, a4
   16364: 9b 07 0b 00  	addiw	a5, s6, 0x0
   16368: 63 d3 f6 00  	bge	a3, a5, 0x1636e <_vfprintf_r+0xe5e>
   1636c: 36 8b        	c.mv	s6, a3
   1636e: 01 2b        	c.addiw	s6, 0x0
   16370: 63 50 60 03  	bge	zero, s6, 0x16390 <_vfprintf_r+0xe80>
   16374: ae 57        	c.lwsp	a5, 0xe8(sp)
   16376: da 94        	c.add	s1, s6
   16378: 23 30 64 00  	sd	t1, 0x0(s0)
   1637c: 1b 87 17 00  	addiw	a4, a5, 0x1
   16380: 23 34 64 01  	sd	s6, 0x8(s0)
   16384: a6 f9        	c.sdsp	s1, 0xf0(sp)
   16386: ba d5        	c.swsp	a4, 0xe8(sp)
   16388: 9d 47        	c.li	a5, 0x7
   1638a: 41 04        	c.addi	s0, 0x10
   1638c: e3 c6 e7 20  	blt	a5, a4, 0x16d98 <_vfprintf_r+0x1888>
   16390: 93 47 fb ff  	xori	a5, s6, -0x1
   16394: fd 97        	c.srai	a5, 0x3f
   16396: 33 7b fb 00  	and	s6, s6, a5
   1639a: 3b 8b 66 41  	subw	s6, a3, s6
   1639e: 63 53 60 bb  	bge	zero, s6, 0x15744 <_vfprintf_r+0x234>
   163a2: b7 78 02 00  	lui	a7, 0x27
   163a6: 41 47        	c.li	a4, 0x10
   163a8: ae 57        	c.lwsp	a5, 0xe8(sp)
   163aa: 93 88 08 64  	addi	a7, a7, 0x640
   163ae: 63 5e 67 3f  	bge	a4, s6, 0x167aa <_vfprintf_r+0x129a>
   163b2: 4e f8        	c.sdsp	s3, 0x30(sp)
   163b4: c1 4c        	c.li	s9, 0x10
   163b6: ca 89        	c.mv	s3, s2
   163b8: 1d 4d        	c.li	s10, 0x7
   163ba: 5a 89        	c.mv	s2, s6
   163bc: 46 8b        	c.mv	s6, a7
   163be: 21 a0        	c.j	0x163c6 <_vfprintf_r+0xeb6>
   163c0: 41 39        	c.addiw	s2, -0x10
   163c2: e3 dc 2c 17  	bge	s9, s2, 0x16d3a <_vfprintf_r+0x182a>
   163c6: 85 27        	c.addiw	a5, 0x1
   163c8: c1 04        	c.addi	s1, 0x10
   163ca: 23 30 64 01  	sd	s6, 0x0(s0)
   163ce: 23 34 94 01  	sd	s9, 0x8(s0)
   163d2: a6 f9        	c.sdsp	s1, 0xf0(sp)
   163d4: be d5        	c.swsp	a5, 0xe8(sp)
   163d6: 41 04        	c.addi	s0, 0x10
   163d8: e3 54 fd fe  	bge	s10, a5, 0x163c0 <_vfprintf_r+0xeb0>
   163dc: 22 65        	c.ldsp	a0, 0x8(sp)
   163de: 90 11        	c.addi4spn	a2, sp, 0xe0
   163e0: ce 85        	c.mv	a1, s3
   163e2: ef 00 50 60  	jal	ra, 0x171e6 <__sprint_r>
   163e6: e3 11 05 40  	bne	a0, zero, 0x16fe8 <_vfprintf_r+0x1ad8>
   163ea: ce 74        	c.ldsp	s1, 0xf0(sp)
   163ec: ae 57        	c.lwsp	a5, 0xe8(sp)
   163ee: 52 84        	c.mv	s0, s4
   163f0: c1 bf        	c.j	0x163c0 <_vfprintf_r+0xeb0>
   163f2: 13 f6 1d 00  	andi	a2, s11, 0x1
   163f6: e3 15 06 82  	bne	a2, zero, 0x15c20 <_vfprintf_r+0x710>
   163fa: 14 e4        	c.sd	a3, 0x8(s0)
   163fc: a6 f9        	c.sdsp	s1, 0xf0(sp)
   163fe: da d5        	c.swsp	s6, 0xe8(sp)
   16400: 9d 47        	c.li	a5, 0x7
   16402: e3 dd 67 87  	bge	a5, s6, 0x15c7c <_vfprintf_r+0x76c>
   16406: 22 65        	c.ldsp	a0, 0x8(sp)
   16408: 90 11        	c.addi4spn	a2, sp, 0xe0
   1640a: ca 85        	c.mv	a1, s2
   1640c: ef 00 b0 5d  	jal	ra, 0x171e6 <__sprint_r>
   16410: e3 1d 05 d6  	bne	a0, zero, 0x1618a <_vfprintf_r+0xc7a>
   16414: ce 74        	c.ldsp	s1, 0xf0(sp)
   16416: 2e 5b        	c.lwsp	s6, 0xe8(sp)
   16418: d2 8c        	c.mv	s9, s4
   1641a: 8d b0        	c.j	0x15c7c <_vfprintf_r+0x76c>
   1641c: 62 77        	c.ldsp	a4, 0x38(sp)
   1641e: 85 47        	c.li	a5, 0x1
   16420: e3 de e7 84  	bge	a5, a4, 0x15c7c <_vfprintf_r+0x76c>
   16424: b7 78 02 00  	lui	a7, 0x27
   16428: c5 47        	c.li	a5, 0x11
   1642a: 93 88 08 64  	addi	a7, a7, 0x640
   1642e: 63 d3 e7 46  	bge	a5, a4, 0x16894 <_vfprintf_r+0x1384>
   16432: 4e f8        	c.sdsp	s3, 0x30(sp)
   16434: 41 47        	c.li	a4, 0x10
   16436: 1d 4d        	c.li	s10, 0x7
   16438: c6 89        	c.mv	s3, a7
   1643a: 21 a0        	c.j	0x16442 <_vfprintf_r+0xf32>
   1643c: 41 34        	c.addiw	s0, -0x10
   1643e: 63 59 87 44  	bge	a4, s0, 0x16890 <_vfprintf_r+0x1380>
   16442: 05 2b        	c.addiw	s6, 0x1
   16444: c1 04        	c.addi	s1, 0x10
   16446: 23 b0 3c 01  	sd	s3, 0x0(s9)
   1644a: 23 b4 ec 00  	sd	a4, 0x8(s9)
   1644e: a6 f9        	c.sdsp	s1, 0xf0(sp)
   16450: da d5        	c.swsp	s6, 0xe8(sp)
   16452: c1 0c        	c.addi	s9, 0x10
   16454: e3 54 6d ff  	bge	s10, s6, 0x1643c <_vfprintf_r+0xf2c>
   16458: 22 65        	c.ldsp	a0, 0x8(sp)
   1645a: 90 11        	c.addi4spn	a2, sp, 0xe0
   1645c: ca 85        	c.mv	a1, s2
   1645e: ef 00 90 58  	jal	ra, 0x171e6 <__sprint_r>
   16462: e3 14 05 d2  	bne	a0, zero, 0x1618a <_vfprintf_r+0xc7a>
   16466: ce 74        	c.ldsp	s1, 0xf0(sp)
   16468: 2e 5b        	c.lwsp	s6, 0xe8(sp)
   1646a: d2 8c        	c.mv	s9, s4
   1646c: 41 47        	c.li	a4, 0x10
   1646e: f9 b7        	c.j	0x1643c <_vfprintf_r+0xf2c>
   16470: 93 f7 0c 01  	andi	a5, s9, 0x10
   16474: a9 e3        	c.bnez	a5, 0x164b6 <_vfprintf_r+0xfa6>
   16476: 82 76        	c.ldsp	a3, 0x20(sp)
   16478: 93 f7 0c 04  	andi	a5, s9, 0x40
   1647c: 84 42        	c.lw	s1, 0x0(a3)
   1647e: 63 8a 07 44  	beq	a5, zero, 0x168d2 <_vfprintf_r+0x13c2>
   16482: c2 14        	c.slli	s1, 0x30
   16484: c1 90        	c.srli	s1, 0x30
   16486: 3a f0        	c.sdsp	a4, 0x20(sp)
   16488: 85 47        	c.li	a5, 0x1
   1648a: 6f f0 2f c0  	jal	zero, 0x1588c <_vfprintf_r+0x37c>
   1648e: 81 46        	c.li	a3, 0x0
   16490: 13 0d c1 15  	addi	s10, sp, 0x15c
   16494: 6f f0 6f bb  	jal	zero, 0x1584a <_vfprintf_r+0x33a>
   16498: 93 f7 1d 00  	andi	a5, s11, 0x1
   1649c: 63 84 07 aa  	beq	a5, zero, 0x15744 <_vfprintf_r+0x234>
   164a0: c5 bc        	c.j	0x15f90 <_vfprintf_r+0xa80>
   164a2: 03 c3 09 00  	lbu	t1, 0x0(s3)
   164a6: 3e f0        	c.sdsp	a5, 0x20(sp)
   164a8: 6f f0 4f 99  	jal	zero, 0x1563c <_vfprintf_r+0x12c>
   164ac: 82 77        	c.ldsp	a5, 0x20(sp)
   164ae: 9c 63        	c.ld	a5, 0x0(a5)
   164b0: be 84        	c.mv	s1, a5
   164b2: 6f f0 2f b7  	jal	zero, 0x15824 <_vfprintf_r+0x314>
   164b6: 82 77        	c.ldsp	a5, 0x20(sp)
   164b8: 3a f0        	c.sdsp	a4, 0x20(sp)
   164ba: 84 63        	c.ld	s1, 0x0(a5)
   164bc: 85 47        	c.li	a5, 0x1
   164be: 6f f0 ef bc  	jal	zero, 0x1588c <_vfprintf_r+0x37c>
   164c2: 93 f7 0d 01  	andi	a5, s11, 0x10
   164c6: e3 96 07 a4  	bne	a5, zero, 0x15f12 <_vfprintf_r+0xa02>
   164ca: 93 f7 0d 04  	andi	a5, s11, 0x40
   164ce: 63 9b 07 66  	bne	a5, zero, 0x16b44 <_vfprintf_r+0x1634>
   164d2: 13 fe 0d 20  	andi	t3, s11, 0x200
   164d6: c2 67        	c.ldsp	a5, 0x10(sp)
   164d8: e3 0c 0e 20  	beq	t3, zero, 0x16ef0 <_vfprintf_r+0x19e0>
   164dc: 23 00 f7 00  	sb	a5, 0x0(a4)
   164e0: 1d bc        	c.j	0x15f16 <_vfprintf_r+0xa06>
   164e2: 82 77        	c.ldsp	a5, 0x20(sp)
   164e4: 84 63        	c.ld	s1, 0x0(a5)
   164e6: 6f f0 cf b9  	jal	zero, 0x15882 <_vfprintf_r+0x372>
   164ea: 82 77        	c.ldsp	a5, 0x20(sp)
   164ec: 13 8c f7 00  	addi	s8, a5, 0xf
   164f0: 13 7c 0c ff  	andi	s8, s8, -0x10
   164f4: 93 07 0c 01  	addi	a5, s8, 0x10
   164f8: 03 37 0c 00  	ld	a4, 0x0(s8)
   164fc: 83 35 8c 00  	ld	a1, 0x8(s8)
   16500: 3e f0        	c.sdsp	a5, 0x20(sp)
   16502: 6f f0 cf bf  	jal	zero, 0x158fe <_vfprintf_r+0x3ee>
   16506: 3a f0        	c.sdsp	a4, 0x20(sp)
   16508: a5 47        	c.li	a5, 0x9
   1650a: ee 8c        	c.mv	s9, s11
   1650c: e3 fe 97 c8  	bgeu	a5, s1, 0x161a8 <_vfprintf_r+0xc98>
   16510: f4 0a        	c.addi4spn	a3, sp, 0x15c
   16512: 8a 68        	c.ldsp	a7, 0x80(sp)
   16514: 13 f7 0c 40  	andi	a4, s9, 0x400
   16518: 01 46        	c.li	a2, 0x0
   1651a: b6 85        	c.mv	a1, a3
   1651c: a9 4d        	c.li	s11, 0xa
   1651e: 25 48        	c.li	a6, 0x9
   16520: 13 0c f0 0f  	addi	s8, zero, 0xff
   16524: 39 a0        	c.j	0x16532 <_vfprintf_r+0x1022>
   16526: b3 d7 b4 03  	divu	a5, s1, s11
   1652a: 63 76 98 02  	bgeu	a6, s1, 0x16556 <_vfprintf_r+0x1046>
   1652e: be 84        	c.mv	s1, a5
   16530: ea 85        	c.mv	a1, s10
   16532: 13 8d f5 ff  	addi	s10, a1, -0x1
   16536: 05 26        	c.addiw	a2, 0x1
   16538: b3 f7 b4 03  	remu	a5, s1, s11
   1653c: 9b 87 07 03  	addiw	a5, a5, 0x30
   16540: a3 8f f5 fe  	sb	a5, -0x1(a1)
   16544: 6d d3        	c.beqz	a4, 0x16526 <_vfprintf_r+0x1016>
   16546: 83 c7 08 00  	lbu	a5, 0x0(a7)
   1654a: e3 1e f6 fc  	bne	a2, a5, 0x16526 <_vfprintf_r+0x1016>
   1654e: e3 8c 87 fd  	beq	a5, s8, 0x16526 <_vfprintf_r+0x1016>
   16552: 63 67 98 3e  	bltu	a6, s1, 0x16940 <_vfprintf_r+0x1430>
   16556: 32 fc        	c.sdsp	a2, 0x38(sp)
   16558: 46 e1        	c.sdsp	a7, 0x80(sp)
   1655a: bb 86 a6 41  	subw	a3, a3, s10
   1655e: e6 8d        	c.mv	s11, s9
   16560: 6f f0 af ae  	jal	zero, 0x1584a <_vfprintf_r+0x33a>
   16564: 1b 0b 07 00  	addiw	s6, a4, 0x0
   16568: e3 41 60 db  	blt	zero, s6, 0x1630a <_vfprintf_r+0xdfa>
   1656c: 6d bb        	c.j	0x16326 <_vfprintf_r+0xe16>
   1656e: 7d 5b        	c.li	s6, -0x1
   16570: ba 89        	c.mv	s3, a4
   16572: 6f f0 ef 8c  	jal	zero, 0x15640 <_vfprintf_r+0x130>
   16576: ee 8c        	c.mv	s9, s11
   16578: e9 b0        	c.j	0x15e42 <_vfprintf_r+0x932>
   1657a: b7 77 02 00  	lui	a5, 0x27
   1657e: 93 87 07 3c  	addi	a5, a5, 0x3c0
   16582: be f0        	c.sdsp	a5, 0x60(sp)
   16584: 82 76        	c.ldsp	a3, 0x20(sp)
   16586: 93 f7 0d 02  	andi	a5, s11, 0x20
   1658a: 13 87 86 00  	addi	a4, a3, 0x8
   1658e: 63 89 07 14  	beq	a5, zero, 0x166e0 <_vfprintf_r+0x11d0>
   16592: 84 62        	c.ld	s1, 0x0(a3)
   16594: 93 f7 1d 00  	andi	a5, s11, 0x1
   16598: 81 cf        	c.beqz	a5, 0x165b0 <_vfprintf_r+0x10a0>
   1659a: 99 c8        	c.beqz	s1, 0x165b0 <_vfprintf_r+0x10a0>
   1659c: 13 ee 2d 00  	ori	t3, s11, 0x2
   165a0: 93 07 00 03  	addi	a5, zero, 0x30
   165a4: 23 08 f1 0a  	sb	a5, 0xb0(sp)
   165a8: a3 08 61 0a  	sb	t1, 0xb1(sp)
   165ac: 9b 0d 0e 00  	addiw	s11, t3, 0x0
   165b0: 93 fc fd bf  	andi	s9, s11, -0x401
   165b4: 81 2c        	c.addiw	s9, 0x0
   165b6: 3a f0        	c.sdsp	a4, 0x20(sp)
   165b8: 89 47        	c.li	a5, 0x2
   165ba: 6f f0 2f ad  	jal	zero, 0x1588c <_vfprintf_r+0x37c>
   165be: b7 77 02 00  	lui	a5, 0x27
   165c2: 93 87 87 3a  	addi	a5, a5, 0x3a8
   165c6: be f0        	c.sdsp	a5, 0x60(sp)
   165c8: 75 bf        	c.j	0x16584 <_vfprintf_r+0x1074>
   165ca: 93 ed 0d 20  	ori	s11, s11, 0x200
   165ce: 03 c3 19 00  	lbu	t1, 0x1(s3)
   165d2: 81 2d        	c.addiw	s11, 0x0
   165d4: 85 09        	c.addi	s3, 0x1
   165d6: 6f f0 6f 86  	jal	zero, 0x1563c <_vfprintf_r+0x12c>
   165da: 93 ed 0d 02  	ori	s11, s11, 0x20
   165de: 03 c3 19 00  	lbu	t1, 0x1(s3)
   165e2: 81 2d        	c.addiw	s11, 0x0
   165e4: 85 09        	c.addi	s3, 0x1
   165e6: 6f f0 6f 85  	jal	zero, 0x1563c <_vfprintf_r+0x12c>
   165ea: 22 65        	c.ldsp	a0, 0x8(sp)
   165ec: 90 11        	c.addi4spn	a2, sp, 0xe0
   165ee: ca 85        	c.mv	a1, s2
   165f0: ef 00 70 3f  	jal	ra, 0x171e6 <__sprint_r>
   165f4: e3 1b 05 b8  	bne	a0, zero, 0x1618a <_vfprintf_r+0xc7a>
   165f8: ce 74        	c.ldsp	s1, 0xf0(sp)
   165fa: 52 84        	c.mv	s0, s4
   165fc: 4d ba        	c.j	0x15fae <_vfprintf_r+0xa9e>
   165fe: 99 47        	c.li	a5, 0x6
   16600: 9b 06 0b 00  	addiw	a3, s6, 0x0
   16604: 63 ee 67 51  	bltu	a5, s6, 0x16b20 <_vfprintf_r+0x1610>
   16608: b7 77 02 00  	lui	a5, 0x27
   1660c: 36 8c        	c.mv	s8, a3
   1660e: 26 f0        	c.sdsp	s1, 0x20(sp)
   16610: 13 8d 87 3d  	addi	s10, a5, 0x3d8
   16614: 6f f0 2f 89  	jal	zero, 0x156a6 <_vfprintf_r+0x196>
   16618: b7 78 02 00  	lui	a7, 0x27
   1661c: c1 46        	c.li	a3, 0x10
   1661e: 2e 57        	c.lwsp	a4, 0xe8(sp)
   16620: 93 88 08 64  	addi	a7, a7, 0x640
   16624: 63 d7 66 2f  	bge	a3, s6, 0x16912 <_vfprintf_r+0x1402>
   16628: c1 46        	c.li	a3, 0x10
   1662a: 1d 43        	c.li	t1, 0x7
   1662c: c6 8c        	c.mv	s9, a7
   1662e: 21 a0        	c.j	0x16636 <_vfprintf_r+0x1126>
   16630: 41 3b        	c.addiw	s6, -0x10
   16632: 63 df 66 2d  	bge	a3, s6, 0x16910 <_vfprintf_r+0x1400>
   16636: 05 27        	c.addiw	a4, 0x1
   16638: c1 04        	c.addi	s1, 0x10
   1663a: 23 30 94 01  	sd	s9, 0x0(s0)
   1663e: 14 e4        	c.sd	a3, 0x8(s0)
   16640: a6 f9        	c.sdsp	s1, 0xf0(sp)
   16642: ba d5        	c.swsp	a4, 0xe8(sp)
   16644: 41 04        	c.addi	s0, 0x10
   16646: e3 55 e3 fe  	bge	t1, a4, 0x16630 <_vfprintf_r+0x1120>
   1664a: 22 65        	c.ldsp	a0, 0x8(sp)
   1664c: 90 11        	c.addi4spn	a2, sp, 0xe0
   1664e: ca 85        	c.mv	a1, s2
   16650: ef 00 70 39  	jal	ra, 0x171e6 <__sprint_r>
   16654: e3 1b 05 b2  	bne	a0, zero, 0x1618a <_vfprintf_r+0xc7a>
   16658: ce 74        	c.ldsp	s1, 0xf0(sp)
   1665a: 2e 57        	c.lwsp	a4, 0xe8(sp)
   1665c: 52 84        	c.mv	s0, s4
   1665e: 1d 43        	c.li	t1, 0x7
   16660: c1 46        	c.li	a3, 0x10
   16662: f9 b7        	c.j	0x16630 <_vfprintf_r+0x1120>
   16664: ae 56        	c.lwsp	a3, 0xe8(sp)
   16666: c6 67        	c.ldsp	a5, 0x50(sp)
   16668: 66 66        	c.ldsp	a2, 0x58(sp)
   1666a: 41 04        	c.addi	s0, 0x10
   1666c: be 94        	c.add	s1, a5
   1666e: 23 38 c4 fe  	sd	a2, -0x10(s0)
   16672: 1b 86 16 00  	addiw	a2, a3, 0x1
   16676: 23 3c f4 fe  	sd	a5, -0x8(s0)
   1667a: a6 f9        	c.sdsp	s1, 0xf0(sp)
   1667c: b2 d5        	c.swsp	a2, 0xe8(sp)
   1667e: 9d 46        	c.li	a3, 0x7
   16680: e3 dc c6 cc  	bge	a3, a2, 0x16358 <_vfprintf_r+0xe48>
   16684: 22 65        	c.ldsp	a0, 0x8(sp)
   16686: 90 11        	c.addi4spn	a2, sp, 0xe0
   16688: ca 85        	c.mv	a1, s2
   1668a: 1a f8        	c.sdsp	t1, 0x30(sp)
   1668c: ef 00 b0 35  	jal	ra, 0x171e6 <__sprint_r>
   16690: e3 1d 05 ae  	bne	a0, zero, 0x1618a <_vfprintf_r+0xc7a>
   16694: 6a 57        	c.lwsp	a4, 0xb8(sp)
   16696: ce 74        	c.ldsp	s1, 0xf0(sp)
   16698: 42 73        	c.ldsp	t1, 0x30(sp)
   1669a: 52 84        	c.mv	s0, s4
   1669c: 75 b9        	c.j	0x16358 <_vfprintf_r+0xe48>
   1669e: 93 07 80 07  	addi	a5, zero, 0x78
   166a2: 93 06 00 03  	addi	a3, zero, 0x30
   166a6: 13 e7 2d 00  	ori	a4, s11, 0x2
   166aa: a3 08 f1 0a  	sb	a5, 0xb1(sp)
   166ae: 23 08 d1 0a  	sb	a3, 0xb0(sp)
   166b2: 93 07 30 06  	addi	a5, zero, 0x63
   166b6: 01 27        	c.addiw	a4, 0x0
   166b8: 63 c5 67 4d  	blt	a5, s6, 0x16b82 <_vfprintf_r+0x1672>
   166bc: ce 67        	c.ldsp	a5, 0xd0(sp)
   166be: ee 6c        	c.ldsp	s9, 0xd8(sp)
   166c0: 13 ee 2d 10  	ori	t3, s11, 0x102
   166c4: 3e f8        	c.sdsp	a5, 0x30(sp)
   166c6: 9b 04 0e 00  	addiw	s1, t3, 0x0
   166ca: 63 c5 0c 62  	blt	s9, zero, 0x16cf4 <_vfprintf_r+0x17e4>
   166ce: 9b 06 f3 fb  	addiw	a3, t1, -0x41
   166d2: ba 8d        	c.mv	s11, a4
   166d4: 82 f4        	c.sdsp	zero, 0x68(sp)
   166d6: 02 ec        	c.sdsp	zero, 0x18(sp)
   166d8: 13 0d 81 0f  	addi	s10, sp, 0xf8
   166dc: 6f f0 af a9  	jal	zero, 0x15976 <_vfprintf_r+0x466>
   166e0: 93 f7 0d 01  	andi	a5, s11, 0x10
   166e4: d9 c7        	c.beqz	a5, 0x16772 <_vfprintf_r+0x1262>
   166e6: 82 77        	c.ldsp	a5, 0x20(sp)
   166e8: 84 63        	c.ld	s1, 0x0(a5)
   166ea: 6d b5        	c.j	0x16594 <_vfprintf_r+0x1084>
   166ec: 22 65        	c.ldsp	a0, 0x8(sp)
   166ee: 90 11        	c.addi4spn	a2, sp, 0xe0
   166f0: ca 85        	c.mv	a1, s2
   166f2: ef 00 50 2f  	jal	ra, 0x171e6 <__sprint_r>
   166f6: e3 1a 05 a8  	bne	a0, zero, 0x1618a <_vfprintf_r+0xc7a>
   166fa: ce 74        	c.ldsp	s1, 0xf0(sp)
   166fc: 2e 5b        	c.lwsp	s6, 0xe8(sp)
   166fe: d2 8c        	c.mv	s9, s4
   16700: 6f f0 ef d2  	jal	zero, 0x15c2e <_vfprintf_r+0x71e>
   16704: 22 65        	c.ldsp	a0, 0x8(sp)
   16706: 90 11        	c.addi4spn	a2, sp, 0xe0
   16708: ca 85        	c.mv	a1, s2
   1670a: ef 00 d0 2d  	jal	ra, 0x171e6 <__sprint_r>
   1670e: e3 1e 05 a6  	bne	a0, zero, 0x1618a <_vfprintf_r+0xc7a>
   16712: ce 74        	c.ldsp	s1, 0xf0(sp)
   16714: 2e 5b        	c.lwsp	s6, 0xe8(sp)
   16716: d2 8c        	c.mv	s9, s4
   16718: 6f f0 2f d3  	jal	zero, 0x15c4a <_vfprintf_r+0x73a>
   1671c: ae 56        	c.lwsp	a3, 0xe8(sp)
   1671e: 37 76 02 00  	lui	a2, 0x27
   16722: 13 06 06 3e  	addi	a2, a2, 0x3e0
   16726: 85 26        	c.addiw	a3, 0x1
   16728: 10 e0        	c.sd	a2, 0x0(s0)
   1672a: 85 04        	c.addi	s1, 0x1
   1672c: 05 46        	c.li	a2, 0x1
   1672e: 10 e4        	c.sd	a2, 0x8(s0)
   16730: b6 d5        	c.swsp	a3, 0xe8(sp)
   16732: 1b 86 06 00  	addiw	a2, a3, 0x0
   16736: a6 f9        	c.sdsp	s1, 0xf0(sp)
   16738: 9d 46        	c.li	a3, 0x7
   1673a: 41 04        	c.addi	s0, 0x10
   1673c: 63 c7 c6 3a  	blt	a3, a2, 0x16aea <_vfprintf_r+0x15da>
   16740: 63 14 07 10  	bne	a4, zero, 0x16848 <_vfprintf_r+0x1338>
   16744: e2 77        	c.ldsp	a5, 0x38(sp)
   16746: 13 f7 1d 00  	andi	a4, s11, 0x1
   1674a: 5d 8f        	c.or	a4, a5
   1674c: 19 e3        	c.bnez	a4, 0x16752 <_vfprintf_r+0x1242>
   1674e: 6f e0 7f ff  	jal	zero, 0x15744 <_vfprintf_r+0x234>
   16752: 2e 57        	c.lwsp	a4, 0xe8(sp)
   16754: c6 67        	c.ldsp	a5, 0x50(sp)
   16756: e6 66        	c.ldsp	a3, 0x58(sp)
   16758: 33 86 97 00  	add	a2, a5, s1
   1675c: 14 e0        	c.sd	a3, 0x0(s0)
   1675e: 9b 06 17 00  	addiw	a3, a4, 0x1
   16762: 1c e4        	c.sd	a5, 0x8(s0)
   16764: b2 f9        	c.sdsp	a2, 0xf0(sp)
   16766: b6 d5        	c.swsp	a3, 0xe8(sp)
   16768: 1d 47        	c.li	a4, 0x7
   1676a: 63 40 d7 40  	blt	a4, a3, 0x16b6a <_vfprintf_r+0x165a>
   1676e: 41 04        	c.addi	s0, 0x10
   16770: fd a8        	c.j	0x1686e <_vfprintf_r+0x135e>
   16772: 82 76        	c.ldsp	a3, 0x20(sp)
   16774: 93 f7 0d 04  	andi	a5, s11, 0x40
   16778: 84 42        	c.lw	s1, 0x0(a3)
   1677a: 63 86 07 16  	beq	a5, zero, 0x168e6 <_vfprintf_r+0x13d6>
   1677e: c2 14        	c.slli	s1, 0x30
   16780: c1 90        	c.srli	s1, 0x30
   16782: 09 bd        	c.j	0x16594 <_vfprintf_r+0x1084>
   16784: 22 65        	c.ldsp	a0, 0x8(sp)
   16786: ef d0 8f b5  	jal	ra, 0x13ade <__sinit>
   1678a: 6f e0 1f dc  	jal	zero, 0x1554a <_vfprintf_r+0x3a>
   1678e: 22 65        	c.ldsp	a0, 0x8(sp)
   16790: 90 11        	c.addi4spn	a2, sp, 0xe0
   16792: ca 85        	c.mv	a1, s2
   16794: ef 00 30 25  	jal	ra, 0x171e6 <__sprint_r>
   16798: e3 19 05 9e  	bne	a0, zero, 0x1618a <_vfprintf_r+0xc7a>
   1679c: ce 74        	c.ldsp	s1, 0xf0(sp)
   1679e: 52 84        	c.mv	s0, s4
   167a0: 6f f0 8f fe  	jal	zero, 0x15f88 <_vfprintf_r+0xa78>
   167a4: da 88        	c.mv	a7, s6
   167a6: 4e 8b        	c.mv	s6, s3
   167a8: c2 79        	c.ldsp	s3, 0x30(sp)
   167aa: 1b 87 17 00  	addiw	a4, a5, 0x1
   167ae: 23 30 14 01  	sd	a7, 0x0(s0)
   167b2: 23 34 64 01  	sd	s6, 0x8(s0)
   167b6: da 94        	c.add	s1, s6
   167b8: a6 f9        	c.sdsp	s1, 0xf0(sp)
   167ba: ba d5        	c.swsp	a4, 0xe8(sp)
   167bc: 9d 47        	c.li	a5, 0x7
   167be: 63 c4 e7 00  	blt	a5, a4, 0x167c6 <_vfprintf_r+0x12b6>
   167c2: 6f e0 1f f8  	jal	zero, 0x15742 <_vfprintf_r+0x232>
   167c6: 6f f0 8f cd  	jal	zero, 0x15c9e <_vfprintf_r+0x78e>
   167ca: 3a f0        	c.sdsp	a4, 0x20(sp)
   167cc: d9 ba        	c.j	0x161a2 <_vfprintf_r+0xc92>
   167ce: 4e 65        	c.ldsp	a0, 0xd0(sp)
   167d0: ee 65        	c.ldsp	a1, 0xd8(sp)
   167d2: 01 46        	c.li	a2, 0x0
   167d4: 81 46        	c.li	a3, 0x0
   167d6: ef 50 c0 4f  	jal	ra, 0x1bcd2 <__lttf2>
   167da: 62 63        	c.ldsp	t1, 0x18(sp)
   167dc: 63 48 05 54  	blt	a0, zero, 0x16d2c <_vfprintf_r+0x181c>
   167e0: 03 47 f1 0a  	lbu	a4, 0xaf(sp)
   167e4: 93 07 70 04  	addi	a5, zero, 0x47
   167e8: 63 dc 67 30  	bge	a5, t1, 0x16b00 <_vfprintf_r+0x15f0>
   167ec: b7 77 02 00  	lui	a5, 0x27
   167f0: 13 8d 07 39  	addi	s10, a5, 0x390
   167f4: 13 fe fd f7  	andi	t3, s11, -0x81
   167f8: 02 ec        	c.sdsp	zero, 0x18(sp)
   167fa: 82 e4        	c.sdsp	zero, 0x48(sp)
   167fc: 82 e0        	c.sdsp	zero, 0x40(sp)
   167fe: 02 f8        	c.sdsp	zero, 0x30(sp)
   16800: 9b 0d 0e 00  	addiw	s11, t3, 0x0
   16804: 0d 4c        	c.li	s8, 0x3
   16806: 8d 46        	c.li	a3, 0x3
   16808: 01 4b        	c.li	s6, 0x0
   1680a: 19 c3        	c.beqz	a4, 0x16810 <_vfprintf_r+0x1300>
   1680c: 6f f0 af 85  	jal	zero, 0x15866 <_vfprintf_r+0x356>
   16810: 6f e0 1f ea  	jal	zero, 0x156b0 <_vfprintf_r+0x1a0>
   16814: 6a 85        	c.mv	a0, s10
   16816: 9a f4        	c.sdsp	t1, 0x68(sp)
   16818: ef e0 2f a5  	jal	ra, 0x14a6a <strlen>
   1681c: 9b 06 05 00  	addiw	a3, a0, 0x0
   16820: 03 47 f1 0a  	lbu	a4, 0xaf(sp)
   16824: 13 c8 f6 ff  	xori	a6, a3, -0x1
   16828: 13 58 f8 43  	srai	a6, a6, 0x3f
   1682c: 26 f0        	c.sdsp	s1, 0x20(sp)
   1682e: 02 ec        	c.sdsp	zero, 0x18(sp)
   16830: 82 e4        	c.sdsp	zero, 0x48(sp)
   16832: 82 e0        	c.sdsp	zero, 0x40(sp)
   16834: 02 f8        	c.sdsp	zero, 0x30(sp)
   16836: 26 73        	c.ldsp	t1, 0x68(sp)
   16838: 33 7c d8 00  	and	s8, a6, a3
   1683c: 01 4b        	c.li	s6, 0x0
   1683e: 19 c3        	c.beqz	a4, 0x16844 <_vfprintf_r+0x1334>
   16840: 6f f0 6f 82  	jal	zero, 0x15866 <_vfprintf_r+0x356>
   16844: 6f e0 df e6  	jal	zero, 0x156b0 <_vfprintf_r+0x1a0>
   16848: ae 55        	c.lwsp	a1, 0xe8(sp)
   1684a: c6 67        	c.ldsp	a5, 0x50(sp)
   1684c: e6 66        	c.ldsp	a3, 0x58(sp)
   1684e: 41 04        	c.addi	s0, 0x10
   16850: 33 86 97 00  	add	a2, a5, s1
   16854: 23 38 d4 fe  	sd	a3, -0x10(s0)
   16858: 9b 86 15 00  	addiw	a3, a1, 0x1
   1685c: 23 3c f4 fe  	sd	a5, -0x8(s0)
   16860: b2 f9        	c.sdsp	a2, 0xf0(sp)
   16862: b6 d5        	c.swsp	a3, 0xe8(sp)
   16864: 9d 45        	c.li	a1, 0x7
   16866: 63 c2 d5 30  	blt	a1, a3, 0x16b6a <_vfprintf_r+0x165a>
   1686a: 63 4b 07 54  	blt	a4, zero, 0x16dc0 <_vfprintf_r+0x18b0>
   1686e: e2 77        	c.ldsp	a5, 0x38(sp)
   16870: 1b 87 16 00  	addiw	a4, a3, 0x1
   16874: 23 30 a4 01  	sd	s10, 0x0(s0)
   16878: b3 84 c7 00  	add	s1, a5, a2
   1687c: 1c e4        	c.sd	a5, 0x8(s0)
   1687e: a6 f9        	c.sdsp	s1, 0xf0(sp)
   16880: ba d5        	c.swsp	a4, 0xe8(sp)
   16882: 9d 47        	c.li	a5, 0x7
   16884: 63 c4 e7 00  	blt	a5, a4, 0x1688c <_vfprintf_r+0x137c>
   16888: 6f e0 bf eb  	jal	zero, 0x15742 <_vfprintf_r+0x232>
   1688c: 6f f0 2f c1  	jal	zero, 0x15c9e <_vfprintf_r+0x78e>
   16890: ce 88        	c.mv	a7, s3
   16892: c2 79        	c.ldsp	s3, 0x30(sp)
   16894: 05 2b        	c.addiw	s6, 0x1
   16896: a2 94        	c.add	s1, s0
   16898: 23 b0 1c 01  	sd	a7, 0x0(s9)
   1689c: 23 b4 8c 00  	sd	s0, 0x8(s9)
   168a0: a6 f9        	c.sdsp	s1, 0xf0(sp)
   168a2: da d5        	c.swsp	s6, 0xe8(sp)
   168a4: 9d 47        	c.li	a5, 0x7
   168a6: 63 da 67 bd  	bge	a5, s6, 0x15c7a <_vfprintf_r+0x76a>
   168aa: b1 be        	c.j	0x16406 <_vfprintf_r+0xef6>
   168ac: 93 f7 0d 20  	andi	a5, s11, 0x200
   168b0: 63 86 07 28  	beq	a5, zero, 0x16b3c <_vfprintf_r+0x162c>
   168b4: 93 f4 f4 0f  	andi	s1, s1, 0xff
   168b8: 6f e0 bf fc  	jal	zero, 0x15882 <_vfprintf_r+0x372>
   168bc: 93 f7 0d 20  	andi	a5, s11, 0x200
   168c0: 63 8b 07 26  	beq	a5, zero, 0x16b36 <_vfprintf_r+0x1626>
   168c4: 9b 94 84 01  	slliw	s1, s1, 0x18
   168c8: 9b d4 84 41  	sraiw	s1, s1, 0x18
   168cc: a6 87        	c.mv	a5, s1
   168ce: 6f e0 7f f5  	jal	zero, 0x15824 <_vfprintf_r+0x314>
   168d2: 93 f7 0c 20  	andi	a5, s9, 0x200
   168d6: 63 8a 07 24  	beq	a5, zero, 0x16b2a <_vfprintf_r+0x161a>
   168da: 93 f4 f4 0f  	andi	s1, s1, 0xff
   168de: 3a f0        	c.sdsp	a4, 0x20(sp)
   168e0: 85 47        	c.li	a5, 0x1
   168e2: 6f e0 bf fa  	jal	zero, 0x1588c <_vfprintf_r+0x37c>
   168e6: 93 f7 0d 20  	andi	a5, s11, 0x200
   168ea: 63 8d 07 22  	beq	a5, zero, 0x16b24 <_vfprintf_r+0x1614>
   168ee: 93 f4 f4 0f  	andi	s1, s1, 0xff
   168f2: 4d b1        	c.j	0x16594 <_vfprintf_r+0x1084>
   168f4: ee 67        	c.ldsp	a5, 0xd8(sp)
   168f6: 63 c3 07 26  	blt	a5, zero, 0x16b5c <_vfprintf_r+0x164c>
   168fa: 03 47 f1 0a  	lbu	a4, 0xaf(sp)
   168fe: 93 07 70 04  	addi	a5, zero, 0x47
   16902: 63 ca 67 4a  	blt	a5, t1, 0x16db6 <_vfprintf_r+0x18a6>
   16906: b7 77 02 00  	lui	a5, 0x27
   1690a: 13 8d 87 39  	addi	s10, a5, 0x398
   1690e: dd b5        	c.j	0x167f4 <_vfprintf_r+0x12e4>
   16910: e6 88        	c.mv	a7, s9
   16912: 9b 06 17 00  	addiw	a3, a4, 0x1
   16916: da 94        	c.add	s1, s6
   16918: 23 30 14 01  	sd	a7, 0x0(s0)
   1691c: 23 34 64 01  	sd	s6, 0x8(s0)
   16920: a6 f9        	c.sdsp	s1, 0xf0(sp)
   16922: b6 d5        	c.swsp	a3, 0xe8(sp)
   16924: 1d 47        	c.li	a4, 0x7
   16926: 41 04        	c.addi	s0, 0x10
   16928: e3 59 d7 a0  	bge	a4, a3, 0x1633a <_vfprintf_r+0xe2a>
   1692c: 22 65        	c.ldsp	a0, 0x8(sp)
   1692e: 90 11        	c.addi4spn	a2, sp, 0xe0
   16930: ca 85        	c.mv	a1, s2
   16932: ef 00 50 0b  	jal	ra, 0x171e6 <__sprint_r>
   16936: e3 1a 05 84  	bne	a0, zero, 0x1618a <_vfprintf_r+0xc7a>
   1693a: ce 74        	c.ldsp	s1, 0xf0(sp)
   1693c: 52 84        	c.mv	s0, s4
   1693e: f5 ba        	c.j	0x1633a <_vfprintf_r+0xe2a>
   16940: aa 67        	c.ldsp	a5, 0x88(sp)
   16942: e6 75        	c.ldsp	a1, 0x78(sp)
   16944: b6 e0        	c.sdsp	a3, 0x40(sp)
   16946: 33 0d fd 40  	sub	s10, s10, a5
   1694a: 3e 86        	c.mv	a2, a5
   1694c: 6a 85        	c.mv	a0, s10
   1694e: 3a fc        	c.sdsp	a4, 0x38(sp)
   16950: 1a f8        	c.sdsp	t1, 0x30(sp)
   16952: 46 ec        	c.sdsp	a7, 0x18(sp)
   16954: ef 10 50 64  	jal	ra, 0x18798 <strncpy>
   16958: e2 68        	c.ldsp	a7, 0x18(sp)
   1695a: a9 47        	c.li	a5, 0xa
   1695c: b3 d7 f4 02  	divu	a5, s1, a5
   16960: 03 c6 18 00  	lbu	a2, 0x1(a7)
   16964: 42 73        	c.ldsp	t1, 0x30(sp)
   16966: 62 77        	c.ldsp	a4, 0x38(sp)
   16968: 33 36 c0 00  	sltu	a2, zero, a2
   1696c: b2 98        	c.add	a7, a2
   1696e: 86 66        	c.ldsp	a3, 0x40(sp)
   16970: 01 46        	c.li	a2, 0x0
   16972: 25 48        	c.li	a6, 0x9
   16974: 6d be        	c.j	0x1652e <_vfprintf_r+0x101e>
   16976: e2 77        	c.ldsp	a5, 0x38(sp)
   16978: 86 6c        	c.ldsp	s9, 0x40(sp)
   1697a: b7 78 02 00  	lui	a7, 0x27
   1697e: b3 05 fd 00  	add	a1, s10, a5
   16982: ce f4        	c.sdsp	s3, 0x68(sp)
   16984: 6e e9        	c.sdsp	s11, 0x90(sp)
   16986: 5e ed        	c.sdsp	s7, 0x98(sp)
   16988: a6 6d        	c.ldsp	s11, 0x48(sp)
   1698a: e2 e0        	c.sdsp	s8, 0x40(sp)
   1698c: ea e4        	c.sdsp	s10, 0x48(sp)
   1698e: 26 86        	c.mv	a2, s1
   16990: aa 6b        	c.ldsp	s7, 0x88(sp)
   16992: 0a 6c        	c.ldsp	s8, 0x80(sp)
   16994: a2 69        	c.ldsp	s3, 0x8(sp)
   16996: 9d 46        	c.li	a3, 0x7
   16998: 41 47        	c.li	a4, 0x10
   1699a: 13 8b 08 64  	addi	s6, a7, 0x640
   1699e: a2 87        	c.mv	a5, s0
   169a0: 1a 8d        	c.mv	s10, t1
   169a2: ae 84        	c.mv	s1, a1
   169a4: 63 5d 90 07  	bge	zero, s9, 0x16a1e <_vfprintf_r+0x150e>
   169a8: 63 52 b0 11  	bge	zero, s11, 0x16aac <_vfprintf_r+0x159c>
   169ac: fd 3d        	c.addiw	s11, -0x1
   169ae: ae 55        	c.lwsp	a1, 0xe8(sp)
   169b0: 66 75        	c.ldsp	a0, 0x78(sp)
   169b2: 5e 96        	c.add	a2, s7
   169b4: 23 b4 77 01  	sd	s7, 0x8(a5)
   169b8: 88 e3        	c.sd	a0, 0x0(a5)
   169ba: 1b 85 15 00  	addiw	a0, a1, 0x1
   169be: b2 f9        	c.sdsp	a2, 0xf0(sp)
   169c0: aa d5        	c.swsp	a0, 0xe8(sp)
   169c2: c1 07        	c.addi	a5, 0x10
   169c4: 63 c7 a6 0e  	blt	a3, a0, 0x16ab2 <_vfprintf_r+0x15a2>
   169c8: 83 45 0c 00  	lbu	a1, 0x0(s8)
   169cc: 33 8f a4 41  	sub	t5, s1, s10
   169d0: 1b 05 0f 00  	addiw	a0, t5, 0x0
   169d4: 1b 88 05 00  	addiw	a6, a1, 0x0
   169d8: 63 d3 a5 00  	bge	a1, a0, 0x169de <_vfprintf_r+0x14ce>
   169dc: 42 8f        	c.mv	t5, a6
   169de: 1b 04 0f 00  	addiw	s0, t5, 0x0
   169e2: 63 52 80 02  	bge	zero, s0, 0x16a06 <_vfprintf_r+0x14f6>
   169e6: ae 55        	c.lwsp	a1, 0xe8(sp)
   169e8: 22 96        	c.add	a2, s0
   169ea: 23 b0 a7 01  	sd	s10, 0x0(a5)
   169ee: 1b 85 15 00  	addiw	a0, a1, 0x1
   169f2: 80 e7        	c.sd	s0, 0x8(a5)
   169f4: b2 f9        	c.sdsp	a2, 0xf0(sp)
   169f6: aa d5        	c.swsp	a0, 0xe8(sp)
   169f8: 63 c9 a6 0c  	blt	a3, a0, 0x16aca <_vfprintf_r+0x15ba>
   169fc: 83 45 0c 00  	lbu	a1, 0x0(s8)
   16a00: c1 07        	c.addi	a5, 0x10
   16a02: 1b 88 05 00  	addiw	a6, a1, 0x0
   16a06: 13 45 f4 ff  	xori	a0, s0, -0x1
   16a0a: 7d 95        	c.srai	a0, 0x3f
   16a0c: 33 7f a4 00  	and	t5, s0, a0
   16a10: 3b 04 e8 41  	subw	s0, a6, t5
   16a14: 63 47 80 02  	blt	zero, s0, 0x16a42 <_vfprintf_r+0x1532>
   16a18: 2e 9d        	c.add	s10, a1
   16a1a: e3 47 90 f9  	blt	zero, s9, 0x169a8 <_vfprintf_r+0x1498>
   16a1e: e3 47 b0 f9  	blt	zero, s11, 0x169ac <_vfprintf_r+0x149c>
   16a22: 6a 83        	c.mv	t1, s10
   16a24: 3e 84        	c.mv	s0, a5
   16a26: 26 6d        	c.ldsp	s10, 0x48(sp)
   16a28: e2 77        	c.ldsp	a5, 0x38(sp)
   16a2a: 62 e1        	c.sdsp	s8, 0x80(sp)
   16a2c: a6 79        	c.ldsp	s3, 0x68(sp)
   16a2e: 33 07 fd 00  	add	a4, s10, a5
   16a32: ca 6d        	c.ldsp	s11, 0x90(sp)
   16a34: ea 6b        	c.ldsp	s7, 0x98(sp)
   16a36: 06 6c        	c.ldsp	s8, 0x40(sp)
   16a38: b2 84        	c.mv	s1, a2
   16a3a: e3 77 67 90  	bgeu	a4, t1, 0x16348 <_vfprintf_r+0xe38>
   16a3e: 3a 83        	c.mv	t1, a4
   16a40: 21 b2        	c.j	0x16348 <_vfprintf_r+0xe38>
   16a42: 37 7f 02 00  	lui	t5, 0x27
   16a46: ae 55        	c.lwsp	a1, 0xe8(sp)
   16a48: 13 0f 0f 64  	addi	t5, t5, 0x640
   16a4c: 63 51 87 04  	bge	a4, s0, 0x16a8e <_vfprintf_r+0x157e>
   16a50: 5a f8        	c.sdsp	s6, 0x30(sp)
   16a52: 21 a0        	c.j	0x16a5a <_vfprintf_r+0x154a>
   16a54: 41 34        	c.addiw	s0, -0x10
   16a56: 63 5b 87 02  	bge	a4, s0, 0x16a8c <_vfprintf_r+0x157c>
   16a5a: 85 25        	c.addiw	a1, 0x1
   16a5c: 41 06        	c.addi	a2, 0x10
   16a5e: 23 b0 67 01  	sd	s6, 0x0(a5)
   16a62: 98 e7        	c.sd	a4, 0x8(a5)
   16a64: b2 f9        	c.sdsp	a2, 0xf0(sp)
   16a66: ae d5        	c.swsp	a1, 0xe8(sp)
   16a68: c1 07        	c.addi	a5, 0x10
   16a6a: e3 d5 b6 fe  	bge	a3, a1, 0x16a54 <_vfprintf_r+0x1544>
   16a6e: 90 11        	c.addi4spn	a2, sp, 0xe0
   16a70: ca 85        	c.mv	a1, s2
   16a72: 4e 85        	c.mv	a0, s3
   16a74: ef 00 20 77  	jal	ra, 0x171e6 <__sprint_r>
   16a78: 63 19 05 f0  	bne	a0, zero, 0x1618a <_vfprintf_r+0xc7a>
   16a7c: 41 47        	c.li	a4, 0x10
   16a7e: 41 34        	c.addiw	s0, -0x10
   16a80: 4e 76        	c.ldsp	a2, 0xf0(sp)
   16a82: ae 55        	c.lwsp	a1, 0xe8(sp)
   16a84: d2 87        	c.mv	a5, s4
   16a86: 9d 46        	c.li	a3, 0x7
   16a88: e3 49 87 fc  	blt	a4, s0, 0x16a5a <_vfprintf_r+0x154a>
   16a8c: 42 7f        	c.ldsp	t5, 0x30(sp)
   16a8e: 1b 85 15 00  	addiw	a0, a1, 0x1
   16a92: 22 96        	c.add	a2, s0
   16a94: 23 b0 e7 01  	sd	t5, 0x0(a5)
   16a98: 80 e7        	c.sd	s0, 0x8(a5)
   16a9a: b2 f9        	c.sdsp	a2, 0xf0(sp)
   16a9c: aa d5        	c.swsp	a0, 0xe8(sp)
   16a9e: 63 c8 a6 26  	blt	a3, a0, 0x16d0e <_vfprintf_r+0x17fe>
   16aa2: 83 45 0c 00  	lbu	a1, 0x0(s8)
   16aa6: c1 07        	c.addi	a5, 0x10
   16aa8: 2e 9d        	c.add	s10, a1
   16aaa: 85 bf        	c.j	0x16a1a <_vfprintf_r+0x150a>
   16aac: 7d 1c        	c.addi	s8, -0x1
   16aae: fd 3c        	c.addiw	s9, -0x1
   16ab0: fd bd        	c.j	0x169ae <_vfprintf_r+0x149e>
   16ab2: 90 11        	c.addi4spn	a2, sp, 0xe0
   16ab4: ca 85        	c.mv	a1, s2
   16ab6: 4e 85        	c.mv	a0, s3
   16ab8: ef 00 e0 72  	jal	ra, 0x171e6 <__sprint_r>
   16abc: 63 17 05 ec  	bne	a0, zero, 0x1618a <_vfprintf_r+0xc7a>
   16ac0: 4e 76        	c.ldsp	a2, 0xf0(sp)
   16ac2: d2 87        	c.mv	a5, s4
   16ac4: 41 47        	c.li	a4, 0x10
   16ac6: 9d 46        	c.li	a3, 0x7
   16ac8: 01 b7        	c.j	0x169c8 <_vfprintf_r+0x14b8>
   16aca: 90 11        	c.addi4spn	a2, sp, 0xe0
   16acc: ca 85        	c.mv	a1, s2
   16ace: 4e 85        	c.mv	a0, s3
   16ad0: ef 00 60 71  	jal	ra, 0x171e6 <__sprint_r>
   16ad4: 63 1b 05 ea  	bne	a0, zero, 0x1618a <_vfprintf_r+0xc7a>
   16ad8: 83 45 0c 00  	lbu	a1, 0x0(s8)
   16adc: 4e 76        	c.ldsp	a2, 0xf0(sp)
   16ade: d2 87        	c.mv	a5, s4
   16ae0: 1b 88 05 00  	addiw	a6, a1, 0x0
   16ae4: 41 47        	c.li	a4, 0x10
   16ae6: 9d 46        	c.li	a3, 0x7
   16ae8: 39 bf        	c.j	0x16a06 <_vfprintf_r+0x14f6>
   16aea: 22 65        	c.ldsp	a0, 0x8(sp)
   16aec: 90 11        	c.addi4spn	a2, sp, 0xe0
   16aee: ca 85        	c.mv	a1, s2
   16af0: ef 00 60 6f  	jal	ra, 0x171e6 <__sprint_r>
   16af4: 63 1b 05 e8  	bne	a0, zero, 0x1618a <_vfprintf_r+0xc7a>
   16af8: 6a 57        	c.lwsp	a4, 0xb8(sp)
   16afa: ce 74        	c.ldsp	s1, 0xf0(sp)
   16afc: 52 84        	c.mv	s0, s4
   16afe: 89 b1        	c.j	0x16740 <_vfprintf_r+0x1230>
   16b00: b7 77 02 00  	lui	a5, 0x27
   16b04: 13 8d 87 38  	addi	s10, a5, 0x388
   16b08: f5 b1        	c.j	0x167f4 <_vfprintf_r+0x12e4>
   16b0a: 22 65        	c.ldsp	a0, 0x8(sp)
   16b0c: 90 11        	c.addi4spn	a2, sp, 0xe0
   16b0e: ca 85        	c.mv	a1, s2
   16b10: ef 00 60 6d  	jal	ra, 0x171e6 <__sprint_r>
   16b14: 63 1b 05 e6  	bne	a0, zero, 0x1618a <_vfprintf_r+0xc7a>
   16b18: ce 74        	c.ldsp	s1, 0xf0(sp)
   16b1a: 52 84        	c.mv	s0, s4
   16b1c: 6f f0 bf 80  	jal	zero, 0x16326 <_vfprintf_r+0xe16>
   16b20: 99 46        	c.li	a3, 0x6
   16b22: dd b4        	c.j	0x16608 <_vfprintf_r+0x10f8>
   16b24: 82 14        	c.slli	s1, 0x20
   16b26: 81 90        	c.srli	s1, 0x20
   16b28: b5 b4        	c.j	0x16594 <_vfprintf_r+0x1084>
   16b2a: 82 14        	c.slli	s1, 0x20
   16b2c: 81 90        	c.srli	s1, 0x20
   16b2e: 3a f0        	c.sdsp	a4, 0x20(sp)
   16b30: 85 47        	c.li	a5, 0x1
   16b32: 6f e0 bf d5  	jal	zero, 0x1588c <_vfprintf_r+0x37c>
   16b36: a6 87        	c.mv	a5, s1
   16b38: 6f e0 df ce  	jal	zero, 0x15824 <_vfprintf_r+0x314>
   16b3c: 82 14        	c.slli	s1, 0x20
   16b3e: 81 90        	c.srli	s1, 0x20
   16b40: 6f e0 3f d4  	jal	zero, 0x15882 <_vfprintf_r+0x372>
   16b44: c2 67        	c.ldsp	a5, 0x10(sp)
   16b46: 23 10 f7 00  	sh	a5, 0x0(a4)
   16b4a: 6f f0 cf bc  	jal	zero, 0x15f16 <_vfprintf_r+0xa06>
   16b4e: 22 65        	c.ldsp	a0, 0x8(sp)
   16b50: 90 11        	c.addi4spn	a2, sp, 0xe0
   16b52: ca 85        	c.mv	a1, s2
   16b54: ef 00 20 69  	jal	ra, 0x171e6 <__sprint_r>
   16b58: 6f e0 1f c3  	jal	zero, 0x15788 <_vfprintf_r+0x278>
   16b5c: 93 07 d0 02  	addi	a5, zero, 0x2d
   16b60: a3 07 f1 0a  	sb	a5, 0xaf(sp)
   16b64: 13 07 d0 02  	addi	a4, zero, 0x2d
   16b68: 59 bb        	c.j	0x168fe <_vfprintf_r+0x13ee>
   16b6a: 22 65        	c.ldsp	a0, 0x8(sp)
   16b6c: 90 11        	c.addi4spn	a2, sp, 0xe0
   16b6e: ca 85        	c.mv	a1, s2
   16b70: ef 00 60 67  	jal	ra, 0x171e6 <__sprint_r>
   16b74: 63 1b 05 e0  	bne	a0, zero, 0x1618a <_vfprintf_r+0xc7a>
   16b78: 6a 57        	c.lwsp	a4, 0xb8(sp)
   16b7a: 4e 76        	c.ldsp	a2, 0xf0(sp)
   16b7c: ae 56        	c.lwsp	a3, 0xe8(sp)
   16b7e: 52 84        	c.mv	s0, s4
   16b80: ed b1        	c.j	0x1686a <_vfprintf_r+0x135a>
   16b82: 22 65        	c.ldsp	a0, 0x8(sp)
   16b84: 9b 05 1b 00  	addiw	a1, s6, 0x1
   16b88: 3a f8        	c.sdsp	a4, 0x30(sp)
   16b8a: 1a ec        	c.sdsp	t1, 0x18(sp)
   16b8c: ef e0 8f b7  	jal	ra, 0x14f04 <_malloc_r>
   16b90: 62 63        	c.ldsp	t1, 0x18(sp)
   16b92: 42 77        	c.ldsp	a4, 0x30(sp)
   16b94: 2a 8d        	c.mv	s10, a0
   16b96: 63 06 05 4c  	beq	a0, zero, 0x17062 <_vfprintf_r+0x1b52>
   16b9a: 2a ec        	c.sdsp	a0, 0x18(sp)
   16b9c: ba 8d        	c.mv	s11, a4
   16b9e: 6f e0 1f db  	jal	zero, 0x1594e <_vfprintf_r+0x43e>
   16ba2: c2 75        	c.ldsp	a1, 0x30(sp)
   16ba4: 22 65        	c.ldsp	a0, 0x8(sp)
   16ba6: 5a 87        	c.mv	a4, s6
   16ba8: 93 08 81 0c  	addi	a7, sp, 0xc8
   16bac: 13 08 c1 0b  	addi	a6, sp, 0xbc
   16bb0: 3c 19        	c.addi4spn	a5, sp, 0xb8
   16bb2: 89 46        	c.li	a3, 0x2
   16bb4: 66 86        	c.mv	a2, s9
   16bb6: ef 20 40 0c  	jal	ra, 0x18c7a <_ldtoa_r>
   16bba: 62 73        	c.ldsp	t1, 0x38(sp)
   16bbc: 13 07 70 04  	addi	a4, zero, 0x47
   16bc0: 2a 8d        	c.mv	s10, a0
   16bc2: 63 18 e3 4a  	bne	t1, a4, 0x17072 <_vfprintf_r+0x1b62>
   16bc6: 13 f7 1d 00  	andi	a4, s11, 0x1
   16bca: 63 1e 07 1a  	bne	a4, zero, 0x16d86 <_vfprintf_r+0x1876>
   16bce: ea 57        	c.lwsp	a5, 0xb8(sp)
   16bd0: 3e f8        	c.sdsp	a5, 0x30(sp)
   16bd2: ae 67        	c.ldsp	a5, 0xc8(sp)
   16bd4: bb 87 a7 41  	subw	a5, a5, s10
   16bd8: 3e fc        	c.sdsp	a5, 0x38(sp)
   16bda: c2 77        	c.ldsp	a5, 0x30(sp)
   16bdc: 75 57        	c.li	a4, -0x3
   16bde: 63 c4 e7 00  	blt	a5, a4, 0x16be6 <_vfprintf_r+0x16d6>
   16be2: 63 57 fb 0c  	bge	s6, a5, 0x16cb0 <_vfprintf_r+0x17a0>
   16be6: c2 77        	c.ldsp	a5, 0x30(sp)
   16be8: 79 33        	c.addiw	t1, -0x2
   16bea: 1b 87 f7 ff  	addiw	a4, a5, -0x1
   16bee: 3a dd        	c.swsp	a4, 0xb8(sp)
   16bf0: 93 76 f3 0f  	andi	a3, t1, 0xff
   16bf4: 01 46        	c.li	a2, 0x0
   16bf6: 6f e0 3f f2  	jal	zero, 0x15b18 <_vfprintf_r+0x608>
   16bfa: c2 77        	c.ldsp	a5, 0x30(sp)
   16bfc: 83 c5 a7 00  	lbu	a1, 0xa(a5)
   16c00: a3 8f b6 fe  	sb	a1, -0x1(a3)
   16c04: 6f e0 5f ee  	jal	zero, 0x15ae8 <_vfprintf_r+0x5d8>
   16c08: 03 47 f1 0a  	lbu	a4, 0xaf(sp)
   16c0c: 01 4b        	c.li	s6, 0x0
   16c0e: 19 c3        	c.beqz	a4, 0x16c14 <_vfprintf_r+0x1704>
   16c10: 6f e0 7f c5  	jal	zero, 0x15866 <_vfprintf_r+0x356>
   16c14: 6f e0 df a9  	jal	zero, 0x156b0 <_vfprintf_r+0x1a0>
   16c18: 5a 87        	c.mv	a4, s6
   16c1a: 8d 46        	c.li	a3, 0x3
   16c1c: c2 75        	c.ldsp	a1, 0x30(sp)
   16c1e: 22 65        	c.ldsp	a0, 0x8(sp)
   16c20: 93 08 81 0c  	addi	a7, sp, 0xc8
   16c24: 13 08 c1 0b  	addi	a6, sp, 0xbc
   16c28: 3c 19        	c.addi4spn	a5, sp, 0xb8
   16c2a: 66 86        	c.mv	a2, s9
   16c2c: 9a e0        	c.sdsp	t1, 0x40(sp)
   16c2e: 3a fc        	c.sdsp	a4, 0x38(sp)
   16c30: ef 20 a0 04  	jal	ra, 0x18c7a <_ldtoa_r>
   16c34: 62 77        	c.ldsp	a4, 0x38(sp)
   16c36: 06 63        	c.ldsp	t1, 0x40(sp)
   16c38: 2a 8d        	c.mv	s10, a0
   16c3a: 13 7c f3 fd  	andi	s8, t1, -0x21
   16c3e: 93 06 60 04  	addi	a3, zero, 0x46
   16c42: 33 08 ed 00  	add	a6, s10, a4
   16c46: 63 1a dc 00  	bne	s8, a3, 0x16c5a <_vfprintf_r+0x174a>
   16c4a: 03 46 0d 00  	lbu	a2, 0x0(s10)
   16c4e: 93 06 00 03  	addi	a3, zero, 0x30
   16c52: 63 07 d6 30  	beq	a2, a3, 0x16f60 <_vfprintf_r+0x1a50>
   16c56: ea 56        	c.lwsp	a3, 0xb8(sp)
   16c58: 36 98        	c.add	a6, a3
   16c5a: 42 75        	c.ldsp	a0, 0x30(sp)
   16c5c: 01 46        	c.li	a2, 0x0
   16c5e: 81 46        	c.li	a3, 0x0
   16c60: e6 85        	c.mv	a1, s9
   16c62: c2 e0        	c.sdsp	a6, 0x40(sp)
   16c64: 1a fc        	c.sdsp	t1, 0x38(sp)
   16c66: ef 40 70 72  	jal	ra, 0x1bb8c <__netf2>
   16c6a: 62 73        	c.ldsp	t1, 0x38(sp)
   16c6c: 06 68        	c.ldsp	a6, 0x40(sp)
   16c6e: 63 01 05 12  	beq	a0, zero, 0x16d90 <_vfprintf_r+0x1880>
   16c72: ae 67        	c.ldsp	a5, 0xc8(sp)
   16c74: 63 fc 07 01  	bgeu	a5, a6, 0x16c8c <_vfprintf_r+0x177c>
   16c78: 93 06 00 03  	addi	a3, zero, 0x30
   16c7c: 13 87 17 00  	addi	a4, a5, 0x1
   16c80: ba e5        	c.sdsp	a4, 0xc8(sp)
   16c82: 23 80 d7 00  	sb	a3, 0x0(a5)
   16c86: ae 67        	c.ldsp	a5, 0xc8(sp)
   16c88: e3 ea 07 ff  	bltu	a5, a6, 0x16c7c <_vfprintf_r+0x176c>
   16c8c: 6a 57        	c.lwsp	a4, 0xb8(sp)
   16c8e: 3a f8        	c.sdsp	a4, 0x30(sp)
   16c90: bb 87 a7 41  	subw	a5, a5, s10
   16c94: 13 07 70 04  	addi	a4, zero, 0x47
   16c98: 3e fc        	c.sdsp	a5, 0x38(sp)
   16c9a: e3 00 ec f4  	beq	s8, a4, 0x16bda <_vfprintf_r+0x16ca>
   16c9e: 13 07 60 04  	addi	a4, zero, 0x46
   16ca2: 63 0d ec 18  	beq	s8, a4, 0x16e3c <_vfprintf_r+0x192c>
   16ca6: c2 77        	c.ldsp	a5, 0x30(sp)
   16ca8: 1b 87 f7 ff  	addiw	a4, a5, -0x1
   16cac: 3a dd        	c.swsp	a4, 0xb8(sp)
   16cae: 89 b7        	c.j	0x16bf0 <_vfprintf_r+0x16e0>
   16cb0: e2 77        	c.ldsp	a5, 0x38(sp)
   16cb2: 42 77        	c.ldsp	a4, 0x30(sp)
   16cb4: 63 4d f7 14  	blt	a4, a5, 0x16e0e <_vfprintf_r+0x18fe>
   16cb8: c2 77        	c.ldsp	a5, 0x30(sp)
   16cba: 13 f7 1d 00  	andi	a4, s11, 0x1
   16cbe: be 86        	c.mv	a3, a5
   16cc0: 01 c7        	c.beqz	a4, 0x16cc8 <_vfprintf_r+0x17b8>
   16cc2: 46 67        	c.ldsp	a4, 0x50(sp)
   16cc4: bb 06 f7 00  	addw	a3, a4, a5
   16cc8: 13 fe 0d 40  	andi	t3, s11, 0x400
   16ccc: 63 05 0e 00  	beq	t3, zero, 0x16cd6 <_vfprintf_r+0x17c6>
   16cd0: c2 77        	c.ldsp	a5, 0x30(sp)
   16cd2: 63 42 f0 22  	blt	zero, a5, 0x16ef6 <_vfprintf_r+0x19e6>
   16cd6: 13 c8 f6 ff  	xori	a6, a3, -0x1
   16cda: 13 58 f8 43  	srai	a6, a6, 0x3f
   16cde: 33 f8 06 01  	and	a6, a3, a6
   16ce2: 1b 0c 08 00  	addiw	s8, a6, 0x0
   16ce6: a6 8d        	c.mv	s11, s1
   16ce8: 13 03 70 06  	addi	t1, zero, 0x67
   16cec: 82 e4        	c.sdsp	zero, 0x48(sp)
   16cee: 82 e0        	c.sdsp	zero, 0x40(sp)
   16cf0: 6f e0 1f ee  	jal	zero, 0x15bd0 <_vfprintf_r+0x6c0>
   16cf4: ba 8d        	c.mv	s11, a4
   16cf6: 02 ec        	c.sdsp	zero, 0x18(sp)
   16cf8: 13 0d 81 0f  	addi	s10, sp, 0xf8
   16cfc: 7d 57        	c.li	a4, -0x1
   16cfe: 7e 17        	c.slli	a4, 0x3f
   16d00: 93 07 d0 02  	addi	a5, zero, 0x2d
   16d04: b3 cc ec 00  	xor	s9, s9, a4
   16d08: be f4        	c.sdsp	a5, 0x68(sp)
   16d0a: 6f e0 df c5  	jal	zero, 0x15966 <_vfprintf_r+0x456>
   16d0e: 90 11        	c.addi4spn	a2, sp, 0xe0
   16d10: ca 85        	c.mv	a1, s2
   16d12: 4e 85        	c.mv	a0, s3
   16d14: ef 00 20 4d  	jal	ra, 0x171e6 <__sprint_r>
   16d18: 63 19 05 c6  	bne	a0, zero, 0x1618a <_vfprintf_r+0xc7a>
   16d1c: 83 45 0c 00  	lbu	a1, 0x0(s8)
   16d20: 4e 76        	c.ldsp	a2, 0xf0(sp)
   16d22: d2 87        	c.mv	a5, s4
   16d24: 41 47        	c.li	a4, 0x10
   16d26: 9d 46        	c.li	a3, 0x7
   16d28: 2e 9d        	c.add	s10, a1
   16d2a: c5 b9        	c.j	0x16a1a <_vfprintf_r+0x150a>
   16d2c: 93 07 d0 02  	addi	a5, zero, 0x2d
   16d30: a3 07 f1 0a  	sb	a5, 0xaf(sp)
   16d34: 13 07 d0 02  	addi	a4, zero, 0x2d
   16d38: 75 b4        	c.j	0x167e4 <_vfprintf_r+0x12d4>
   16d3a: da 88        	c.mv	a7, s6
   16d3c: 4a 8b        	c.mv	s6, s2
   16d3e: 4e 89        	c.mv	s2, s3
   16d40: c2 79        	c.ldsp	s3, 0x30(sp)
   16d42: a5 b4        	c.j	0x167aa <_vfprintf_r+0x129a>
   16d44: 03 47 f1 0a  	lbu	a4, 0xaf(sp)
   16d48: 26 f0        	c.sdsp	s1, 0x20(sp)
   16d4a: 82 e4        	c.sdsp	zero, 0x48(sp)
   16d4c: 82 e0        	c.sdsp	zero, 0x40(sp)
   16d4e: 02 f8        	c.sdsp	zero, 0x30(sp)
   16d50: 5a 8c        	c.mv	s8, s6
   16d52: da 86        	c.mv	a3, s6
   16d54: 01 4b        	c.li	s6, 0x0
   16d56: 19 c3        	c.beqz	a4, 0x16d5c <_vfprintf_r+0x184c>
   16d58: 6f e0 ff b0  	jal	zero, 0x15866 <_vfprintf_r+0x356>
   16d5c: 6f e0 5f 95  	jal	zero, 0x156b0 <_vfprintf_r+0x1a0>
   16d60: c2 75        	c.ldsp	a1, 0x30(sp)
   16d62: 22 65        	c.ldsp	a0, 0x8(sp)
   16d64: 5a 87        	c.mv	a4, s6
   16d66: 93 08 81 0c  	addi	a7, sp, 0xc8
   16d6a: 13 08 c1 0b  	addi	a6, sp, 0xbc
   16d6e: 3c 19        	c.addi4spn	a5, sp, 0xb8
   16d70: 89 46        	c.li	a3, 0x2
   16d72: 66 86        	c.mv	a2, s9
   16d74: 1a fc        	c.sdsp	t1, 0x38(sp)
   16d76: ef 10 50 70  	jal	ra, 0x18c7a <_ldtoa_r>
   16d7a: 13 f7 1d 00  	andi	a4, s11, 0x1
   16d7e: 62 73        	c.ldsp	t1, 0x38(sp)
   16d80: 2a 8d        	c.mv	s10, a0
   16d82: e3 06 07 e4  	beq	a4, zero, 0x16bce <_vfprintf_r+0x16be>
   16d86: 33 08 6d 01  	add	a6, s10, s6
   16d8a: 13 0c 70 04  	addi	s8, zero, 0x47
   16d8e: f1 b5        	c.j	0x16c5a <_vfprintf_r+0x174a>
   16d90: ea 57        	c.lwsp	a5, 0xb8(sp)
   16d92: 3e f8        	c.sdsp	a5, 0x30(sp)
   16d94: c2 87        	c.mv	a5, a6
   16d96: ed bd        	c.j	0x16c90 <_vfprintf_r+0x1780>
   16d98: 22 65        	c.ldsp	a0, 0x8(sp)
   16d9a: 90 11        	c.addi4spn	a2, sp, 0xe0
   16d9c: ca 85        	c.mv	a1, s2
   16d9e: ef 00 80 44  	jal	ra, 0x171e6 <__sprint_r>
   16da2: 63 14 05 be  	bne	a0, zero, 0x1618a <_vfprintf_r+0xc7a>
   16da6: ea 56        	c.lwsp	a3, 0xb8(sp)
   16da8: e2 77        	c.ldsp	a5, 0x38(sp)
   16daa: ce 74        	c.ldsp	s1, 0xf0(sp)
   16dac: 52 84        	c.mv	s0, s4
   16dae: bb 86 d7 40  	subw	a3, a5, a3
   16db2: 6f f0 ef dd  	jal	zero, 0x16390 <_vfprintf_r+0xe80>
   16db6: b7 77 02 00  	lui	a5, 0x27
   16dba: 13 8d 07 3a  	addi	s10, a5, 0x3a0
   16dbe: 1d bc        	c.j	0x167f4 <_vfprintf_r+0x12e4>
   16dc0: b7 78 02 00  	lui	a7, 0x27
   16dc4: c1 55        	c.li	a1, -0x10
   16dc6: 3b 0b e0 40  	subw	s6, zero, a4
   16dca: 93 88 08 64  	addi	a7, a7, 0x640
   16dce: 63 51 b7 0a  	bge	a4, a1, 0x16e70 <_vfprintf_r+0x1960>
   16dd2: 4e f8        	c.sdsp	s3, 0x30(sp)
   16dd4: c1 4c        	c.li	s9, 0x10
   16dd6: 9d 44        	c.li	s1, 0x7
   16dd8: c6 89        	c.mv	s3, a7
   16dda: 21 a0        	c.j	0x16de2 <_vfprintf_r+0x18d2>
   16ddc: 41 3b        	c.addiw	s6, -0x10
   16dde: 63 d7 6c 09  	bge	s9, s6, 0x16e6c <_vfprintf_r+0x195c>
   16de2: 85 26        	c.addiw	a3, 0x1
   16de4: 41 06        	c.addi	a2, 0x10
   16de6: 23 30 34 01  	sd	s3, 0x0(s0)
   16dea: 23 34 94 01  	sd	s9, 0x8(s0)
   16dee: b2 f9        	c.sdsp	a2, 0xf0(sp)
   16df0: b6 d5        	c.swsp	a3, 0xe8(sp)
   16df2: 41 04        	c.addi	s0, 0x10
   16df4: e3 d4 d4 fe  	bge	s1, a3, 0x16ddc <_vfprintf_r+0x18cc>
   16df8: 22 65        	c.ldsp	a0, 0x8(sp)
   16dfa: 90 11        	c.addi4spn	a2, sp, 0xe0
   16dfc: ca 85        	c.mv	a1, s2
   16dfe: ef 00 80 3e  	jal	ra, 0x171e6 <__sprint_r>
   16e02: 63 14 05 b8  	bne	a0, zero, 0x1618a <_vfprintf_r+0xc7a>
   16e06: 4e 76        	c.ldsp	a2, 0xf0(sp)
   16e08: ae 56        	c.lwsp	a3, 0xe8(sp)
   16e0a: 52 84        	c.mv	s0, s4
   16e0c: c1 bf        	c.j	0x16ddc <_vfprintf_r+0x18cc>
   16e0e: c6 67        	c.ldsp	a5, 0x50(sp)
   16e10: 62 77        	c.ldsp	a4, 0x38(sp)
   16e12: 13 03 70 06  	addi	t1, zero, 0x67
   16e16: bb 86 e7 00  	addw	a3, a5, a4
   16e1a: c2 77        	c.ldsp	a5, 0x30(sp)
   16e1c: 63 5d f0 16  	bge	zero, a5, 0x16f96 <_vfprintf_r+0x1a86>
   16e20: 13 fe 0d 40  	andi	t3, s11, 0x400
   16e24: 63 1b 0e 0c  	bne	t3, zero, 0x16efa <_vfprintf_r+0x19ea>
   16e28: 13 c8 f6 ff  	xori	a6, a3, -0x1
   16e2c: 13 58 f8 43  	srai	a6, a6, 0x3f
   16e30: 33 f8 06 01  	and	a6, a3, a6
   16e34: 1b 0c 08 00  	addiw	s8, a6, 0x0
   16e38: a6 8d        	c.mv	s11, s1
   16e3a: 4d bd        	c.j	0x16cec <_vfprintf_r+0x17dc>
   16e3c: c2 77        	c.ldsp	a5, 0x30(sp)
   16e3e: 13 f7 1d 00  	andi	a4, s11, 0x1
   16e42: 33 67 eb 00  	or	a4, s6, a4
   16e46: 63 54 f0 1c  	bge	zero, a5, 0x1700e <_vfprintf_r+0x1afe>
   16e4a: 63 1f 07 12  	bne	a4, zero, 0x16f88 <_vfprintf_r+0x1a78>
   16e4e: c2 76        	c.ldsp	a3, 0x30(sp)
   16e50: 13 03 60 06  	addi	t1, zero, 0x66
   16e54: f1 b7        	c.j	0x16e20 <_vfprintf_r+0x1910>
   16e56: fd 57        	c.li	a5, -0x1
   16e58: 3e e8        	c.sdsp	a5, 0x10(sp)
   16e5a: 6f e0 df 95  	jal	zero, 0x157b6 <_vfprintf_r+0x2a6>
   16e5e: ee 8c        	c.mv	s9, s11
   16e60: 6f f0 8f b4  	jal	zero, 0x161a8 <_vfprintf_r+0xc98>
   16e64: 1b 07 1b 00  	addiw	a4, s6, 0x1
   16e68: 89 46        	c.li	a3, 0x2
   16e6a: 4d bb        	c.j	0x16c1c <_vfprintf_r+0x170c>
   16e6c: ce 88        	c.mv	a7, s3
   16e6e: c2 79        	c.ldsp	s3, 0x30(sp)
   16e70: 85 26        	c.addiw	a3, 0x1
   16e72: 5a 96        	c.add	a2, s6
   16e74: 23 30 14 01  	sd	a7, 0x0(s0)
   16e78: 23 34 64 01  	sd	s6, 0x8(s0)
   16e7c: b2 f9        	c.sdsp	a2, 0xf0(sp)
   16e7e: b6 d5        	c.swsp	a3, 0xe8(sp)
   16e80: 1d 47        	c.li	a4, 0x7
   16e82: e3 56 d7 8e  	bge	a4, a3, 0x1676e <_vfprintf_r+0x125e>
   16e86: 22 65        	c.ldsp	a0, 0x8(sp)
   16e88: 90 11        	c.addi4spn	a2, sp, 0xe0
   16e8a: ca 85        	c.mv	a1, s2
   16e8c: ef 00 a0 35  	jal	ra, 0x171e6 <__sprint_r>
   16e90: 63 1d 05 ae  	bne	a0, zero, 0x1618a <_vfprintf_r+0xc7a>
   16e94: 4e 76        	c.ldsp	a2, 0xf0(sp)
   16e96: ae 56        	c.lwsp	a3, 0xe8(sp)
   16e98: 52 84        	c.mv	s0, s4
   16e9a: d1 ba        	c.j	0x1686e <_vfprintf_r+0x135e>
   16e9c: 93 06 21 0c  	addi	a3, sp, 0xc2
   16ea0: 19 e6        	c.bnez	a2, 0x16eae <_vfprintf_r+0x199e>
   16ea2: 93 06 00 03  	addi	a3, zero, 0x30
   16ea6: 23 01 d1 0c  	sb	a3, 0xc2(sp)
   16eaa: 93 06 31 0c  	addi	a3, sp, 0xc3
   16eae: 9c 13        	c.addi4spn	a5, sp, 0x1e0
   16eb0: 33 86 f6 40  	sub	a2, a3, a5
   16eb4: 1b 07 07 03  	addiw	a4, a4, 0x30
   16eb8: 9b 07 16 12  	addiw	a5, a2, 0x121
   16ebc: 23 80 e6 00  	sb	a4, 0x0(a3)
   16ec0: be f8        	c.sdsp	a5, 0x70(sp)
   16ec2: 6f e0 5f cd  	jal	zero, 0x15b96 <_vfprintf_r+0x686>
   16ec6: 02 ec        	c.sdsp	zero, 0x18(sp)
   16ec8: 19 4b        	c.li	s6, 0x6
   16eca: 6f e0 5f a8  	jal	zero, 0x1594e <_vfprintf_r+0x43e>
   16ece: 63 04 0b 00  	beq	s6, zero, 0x16ed6 <_vfprintf_r+0x19c6>
   16ed2: 6f e0 df a7  	jal	zero, 0x1594e <_vfprintf_r+0x43e>
   16ed6: 05 4b        	c.li	s6, 0x1
   16ed8: 6f e0 7f a7  	jal	zero, 0x1594e <_vfprintf_r+0x43e>
   16edc: 13 f6 1d 00  	andi	a2, s11, 0x1
   16ee0: 19 e2        	c.bnez	a2, 0x16ee6 <_vfprintf_r+0x19d6>
   16ee2: 6f e0 ff cc  	jal	zero, 0x15bb0 <_vfprintf_r+0x6a0>
   16ee6: 6f e0 5f cc  	jal	zero, 0x15baa <_vfprintf_r+0x69a>
   16eea: 3a f0        	c.sdsp	a4, 0x20(sp)
   16eec: 6f f0 cf ab  	jal	zero, 0x161a8 <_vfprintf_r+0xc98>
   16ef0: 1c c3        	c.sw	a5, 0x0(a4)
   16ef2: 6f f0 4f 82  	jal	zero, 0x15f16 <_vfprintf_r+0xa06>
   16ef6: 13 03 70 06  	addi	t1, zero, 0x67
   16efa: 8a 67        	c.ldsp	a5, 0x80(sp)
   16efc: 13 06 f0 0f  	addi	a2, zero, 0xff
   16f00: 03 c7 07 00  	lbu	a4, 0x0(a5)
   16f04: 63 09 c7 16  	beq	a4, a2, 0x17076 <_vfprintf_r+0x1b66>
   16f08: 3e 86        	c.mv	a2, a5
   16f0a: c2 77        	c.ldsp	a5, 0x30(sp)
   16f0c: 81 48        	c.li	a7, 0x0
   16f0e: 01 48        	c.li	a6, 0x0
   16f10: 93 05 f0 0f  	addi	a1, zero, 0xff
   16f14: 1b 05 07 00  	addiw	a0, a4, 0x0
   16f18: 63 5a f7 00  	bge	a4, a5, 0x16f2c <_vfprintf_r+0x1a1c>
   16f1c: 03 47 16 00  	lbu	a4, 0x1(a2)
   16f20: 89 9f        	c.subw	a5, a0
   16f22: 1d cb        	c.beqz	a4, 0x16f58 <_vfprintf_r+0x1a48>
   16f24: 05 28        	c.addiw	a6, 0x1
   16f26: 05 06        	c.addi	a2, 0x1
   16f28: e3 16 b7 fe  	bne	a4, a1, 0x16f14 <_vfprintf_r+0x1a04>
   16f2c: 32 e1        	c.sdsp	a2, 0x80(sp)
   16f2e: c2 e0        	c.sdsp	a6, 0x40(sp)
   16f30: c6 e4        	c.sdsp	a7, 0x48(sp)
   16f32: 3e f8        	c.sdsp	a5, 0x30(sp)
   16f34: a6 67        	c.ldsp	a5, 0x48(sp)
   16f36: 06 67        	c.ldsp	a4, 0x40(sp)
   16f38: a6 8d        	c.mv	s11, s1
   16f3a: 3d 9f        	c.addw	a4, a5
   16f3c: aa 67        	c.ldsp	a5, 0x88(sp)
   16f3e: 3b 07 f7 02  	mulw	a4, a4, a5
   16f42: 35 9f        	c.addw	a4, a3
   16f44: 9b 06 07 00  	addiw	a3, a4, 0x0
   16f48: 13 c6 f6 ff  	xori	a2, a3, -0x1
   16f4c: 7d 96        	c.srai	a2, 0x3f
   16f4e: 71 8f        	c.and	a4, a2
   16f50: 1b 0c 07 00  	addiw	s8, a4, 0x0
   16f54: 6f e0 df c7  	jal	zero, 0x15bd0 <_vfprintf_r+0x6c0>
   16f58: 03 47 06 00  	lbu	a4, 0x0(a2)
   16f5c: 85 28        	c.addiw	a7, 0x1
   16f5e: e9 b7        	c.j	0x16f28 <_vfprintf_r+0x1a18>
   16f60: 42 75        	c.ldsp	a0, 0x30(sp)
   16f62: 01 46        	c.li	a2, 0x0
   16f64: 81 46        	c.li	a3, 0x0
   16f66: e6 85        	c.mv	a1, s9
   16f68: c2 e4        	c.sdsp	a6, 0x48(sp)
   16f6a: 9a e0        	c.sdsp	t1, 0x40(sp)
   16f6c: 3a fc        	c.sdsp	a4, 0x38(sp)
   16f6e: ef 40 f0 41  	jal	ra, 0x1bb8c <__netf2>
   16f72: 62 77        	c.ldsp	a4, 0x38(sp)
   16f74: 06 63        	c.ldsp	t1, 0x40(sp)
   16f76: 26 68        	c.ldsp	a6, 0x48(sp)
   16f78: 59 e5        	c.bnez	a0, 0x17006 <_vfprintf_r+0x1af6>
   16f7a: ea 57        	c.lwsp	a5, 0xb8(sp)
   16f7c: 3e 98        	c.add	a6, a5
   16f7e: 3e f8        	c.sdsp	a5, 0x30(sp)
   16f80: bb 07 a8 41  	subw	a5, a6, s10
   16f84: 3e fc        	c.sdsp	a5, 0x38(sp)
   16f86: 21 bb        	c.j	0x16c9e <_vfprintf_r+0x178e>
   16f88: 46 67        	c.ldsp	a4, 0x50(sp)
   16f8a: 13 03 60 06  	addi	t1, zero, 0x66
   16f8e: bb 06 67 01  	addw	a3, a4, s6
   16f92: bd 9e        	c.addw	a3, a5
   16f94: 71 b5        	c.j	0x16e20 <_vfprintf_r+0x1910>
   16f96: 3b 87 f6 40  	subw	a4, a3, a5
   16f9a: 05 27        	c.addiw	a4, 0x1
   16f9c: 9b 06 07 00  	addiw	a3, a4, 0x0
   16fa0: 13 c6 f6 ff  	xori	a2, a3, -0x1
   16fa4: 7d 96        	c.srai	a2, 0x3f
   16fa6: 71 8f        	c.and	a4, a2
   16fa8: 1b 0c 07 00  	addiw	s8, a4, 0x0
   16fac: a6 8d        	c.mv	s11, s1
   16fae: 3d bb        	c.j	0x16cec <_vfprintf_r+0x17dc>
   16fb0: 4a 68        	c.ldsp	a6, 0x90(sp)
   16fb2: 62 89        	c.mv	s2, s8
   16fb4: 4e 8c        	c.mv	s8, s3
   16fb6: bb 06 0d 01  	addw	a3, s10, a6
   16fba: bb 86 86 41  	subw	a3, a3, s8
   16fbe: 13 96 06 02  	slli	a2, a3, 0x20
   16fc2: 06 63        	c.ldsp	t1, 0x40(sp)
   16fc4: a6 6b        	c.ldsp	s7, 0x48(sp)
   16fc6: 46 74        	c.ldsp	s0, 0x70(sp)
   16fc8: e2 79        	c.ldsp	s3, 0x38(sp)
   16fca: 63 54 06 00  	bge	a2, zero, 0x16fd2 <_vfprintf_r+0x1ac2>
   16fce: 6f e0 bf b1  	jal	zero, 0x15ae8 <_vfprintf_r+0x5d8>
   16fd2: 85 26        	c.addiw	a3, 0x1
   16fd4: e2 96        	c.add	a3, s8
   16fd6: 13 06 00 03  	addi	a2, zero, 0x30
   16fda: 05 0c        	c.addi	s8, 0x1
   16fdc: a3 0f cc fe  	sb	a2, -0x1(s8)
   16fe0: e3 1d dc fe  	bne	s8, a3, 0x16fda <_vfprintf_r+0x1aca>
   16fe4: 6f e0 7f b0  	jal	zero, 0x15aea <_vfprintf_r+0x5da>
   16fe8: e2 65        	c.ldsp	a1, 0x18(sp)
   16fea: 4e 89        	c.mv	s2, s3
   16fec: 6f f0 0f 9a  	jal	zero, 0x1618c <_vfprintf_r+0xc7c>
   16ff0: 37 77 02 00  	lui	a4, 0x27
   16ff4: 93 07 87 3a  	addi	a5, a4, 0x3a8
   16ff8: 3e f8        	c.sdsp	a5, 0x30(sp)
   16ffa: 6f e0 ff 9e  	jal	zero, 0x159e8 <_vfprintf_r+0x4d8>
   16ffe: 93 06 00 07  	addi	a3, zero, 0x70
   17002: 6f e0 5f b1  	jal	zero, 0x15b16 <_vfprintf_r+0x606>
   17006: 85 46        	c.li	a3, 0x1
   17008: 99 9e        	c.subw	a3, a4
   1700a: 36 dd        	c.swsp	a3, 0xb8(sp)
   1700c: b1 b1        	c.j	0x16c58 <_vfprintf_r+0x1748>
   1700e: 19 e7        	c.bnez	a4, 0x1701c <_vfprintf_r+0x1b0c>
   17010: a6 8d        	c.mv	s11, s1
   17012: 05 4c        	c.li	s8, 0x1
   17014: 13 03 60 06  	addi	t1, zero, 0x66
   17018: 85 46        	c.li	a3, 0x1
   1701a: c9 b9        	c.j	0x16cec <_vfprintf_r+0x17dc>
   1701c: c6 67        	c.ldsp	a5, 0x50(sp)
   1701e: a6 8d        	c.mv	s11, s1
   17020: 13 03 60 06  	addi	t1, zero, 0x66
   17024: 1b 87 17 00  	addiw	a4, a5, 0x1
   17028: 3b 07 67 01  	addw	a4, a4, s6
   1702c: 9b 06 07 00  	addiw	a3, a4, 0x0
   17030: 13 c6 f6 ff  	xori	a2, a3, -0x1
   17034: 7d 96        	c.srai	a2, 0x3f
   17036: 71 8f        	c.and	a4, a2
   17038: 1b 0c 07 00  	addiw	s8, a4, 0x0
   1703c: 45 b9        	c.j	0x16cec <_vfprintf_r+0x17dc>
   1703e: 89 47        	c.li	a5, 0x2
   17040: be f8        	c.sdsp	a5, 0x70(sp)
   17042: 6f e0 5f b5  	jal	zero, 0x15b96 <_vfprintf_r+0x686>
   17046: 82 76        	c.ldsp	a3, 0x20(sp)
   17048: 9c 42        	c.lw	a5, 0x0(a3)
   1704a: a1 06        	c.addi	a3, 0x8
   1704c: 1b 8b 07 00  	addiw	s6, a5, 0x0
   17050: 63 d3 07 00  	bge	a5, zero, 0x17056 <_vfprintf_r+0x1b46>
   17054: 7d 5b        	c.li	s6, -0x1
   17056: 03 c3 19 00  	lbu	t1, 0x1(s3)
   1705a: 36 f0        	c.sdsp	a3, 0x20(sp)
   1705c: ba 89        	c.mv	s3, a4
   1705e: 6f e0 ef dd  	jal	zero, 0x1563c <_vfprintf_r+0x12c>
   17062: 83 57 09 01  	lhu	a5, 0x10(s2)
   17066: 93 e7 07 04  	ori	a5, a5, 0x40
   1706a: 23 18 f9 00  	sh	a5, 0x10(s2)
   1706e: 6f e0 af f1  	jal	zero, 0x15788 <_vfprintf_r+0x278>
   17072: 5a 87        	c.mv	a4, s6
   17074: d9 b6        	c.j	0x16c3a <_vfprintf_r+0x172a>
   17076: 82 e4        	c.sdsp	zero, 0x48(sp)
   17078: 82 e0        	c.sdsp	zero, 0x40(sp)
   1707a: 6d bd        	c.j	0x16f34 <_vfprintf_r+0x1a24>

000000000001707c <vfprintf>:
   1707c: aa 87        	c.mv	a5, a0
   1707e: 03 b5 01 20  	ld	a0, 0x200(gp)
   17082: b2 86        	c.mv	a3, a2
   17084: 2e 86        	c.mv	a2, a1
   17086: be 85        	c.mv	a1, a5
   17088: 6f e0 8f c8  	jal	zero, 0x15510 <_vfprintf_r>

000000000001708c <__sbprintf>:
   1708c: 13 01 01 b3  	addi	sp, sp, -0x4d0
   17090: 03 d7 25 01  	lhu	a4, 0x12(a1)
   17094: 83 d7 05 01  	lhu	a5, 0x10(a1)
   17098: 23 30 81 4c  	sd	s0, 0x4c0(sp)
   1709c: 2e 84        	c.mv	s0, a1
   1709e: c1 65        	c.lui	a1, 0x10
   170a0: f5 35        	c.addiw	a1, -0x3
   170a2: 03 2e c4 0a  	lw	t3, 0xac(s0)
   170a6: 03 33 04 03  	ld	t1, 0x30(s0)
   170aa: 83 38 04 04  	ld	a7, 0x40(s0)
   170ae: 1b 17 07 01  	slliw	a4, a4, 0x10
   170b2: ed 8f        	c.and	a5, a1
   170b4: d9 8f        	c.or	a5, a4
   170b6: 13 08 00 40  	addi	a6, zero, 0x400
   170ba: 3e c8        	c.swsp	a5, 0x10(sp)
   170bc: 8a 85        	c.mv	a1, sp
   170be: 1c 19        	c.addi4spn	a5, sp, 0xb0
   170c0: 23 3c 91 4a  	sd	s1, 0x4b8(sp)
   170c4: 23 38 21 4b  	sd	s2, 0x4b0(sp)
   170c8: 23 34 11 4c  	sd	ra, 0x4c8(sp)
   170cc: 2a 89        	c.mv	s2, a0
   170ce: 72 d7        	c.swsp	t3, 0xac(sp)
   170d0: 1a f8        	c.sdsp	t1, 0x30(sp)
   170d2: c6 e0        	c.sdsp	a7, 0x40(sp)
   170d4: 3e e0        	c.sdsp	a5, 0x0(sp)
   170d6: 3e ec        	c.sdsp	a5, 0x18(sp)
   170d8: 42 c6        	c.swsp	a6, 0xc(sp)
   170da: 42 d0        	c.swsp	a6, 0x20(sp)
   170dc: 02 d4        	c.swsp	zero, 0x28(sp)
   170de: ef e0 2f c3  	jal	ra, 0x15510 <_vfprintf_r>
   170e2: aa 84        	c.mv	s1, a0
   170e4: 63 59 05 02  	bge	a0, zero, 0x17116 <__sbprintf+0x8a>
   170e8: 83 57 01 01  	lhu	a5, 0x10(sp)
   170ec: 93 f7 07 04  	andi	a5, a5, 0x40
   170f0: 99 c7        	c.beqz	a5, 0x170fe <__sbprintf+0x72>
   170f2: 83 57 04 01  	lhu	a5, 0x10(s0)
   170f6: 93 e7 07 04  	ori	a5, a5, 0x40
   170fa: 23 18 f4 00  	sh	a5, 0x10(s0)
   170fe: 83 30 81 4c  	ld	ra, 0x4c8(sp)
   17102: 03 34 01 4c  	ld	s0, 0x4c0(sp)
   17106: 03 39 01 4b  	ld	s2, 0x4b0(sp)
   1710a: 26 85        	c.mv	a0, s1
   1710c: 83 34 81 4b  	ld	s1, 0x4b8(sp)
   17110: 13 01 01 4d  	addi	sp, sp, 0x4d0
   17114: 82 80        	c.jr	ra
   17116: 8a 85        	c.mv	a1, sp
   17118: 4a 85        	c.mv	a0, s2
   1711a: ef c0 2f ec  	jal	ra, 0x137dc <_fflush_r>
   1711e: 69 d5        	c.beqz	a0, 0x170e8 <__sbprintf+0x5c>
   17120: fd 54        	c.li	s1, -0x1
   17122: d9 b7        	c.j	0x170e8 <__sbprintf+0x5c>

0000000000017124 <__sprint_r.part.0>:
   17124: 83 a7 c5 0a  	lw	a5, 0xac(a1)
   17128: 5d 71        	c.addi16sp	sp, -0x50
   1712a: 56 ec        	c.sdsp	s5, 0x18(sp)
   1712c: 86 e4        	c.sdsp	ra, 0x48(sp)
   1712e: 13 97 27 03  	slli	a4, a5, 0x32
   17132: b2 8a        	c.mv	s5, a2
   17134: 63 5f 07 08  	bge	a4, zero, 0x171d2 <__sprint_r.part.0+0xae>
   17138: 1c 6a        	c.ld	a5, 0x10(a2)
   1713a: 4a f8        	c.sdsp	s2, 0x30(sp)
   1713c: 4e f4        	c.sdsp	s3, 0x28(sp)
   1713e: 52 f0        	c.sdsp	s4, 0x20(sp)
   17140: 5a e8        	c.sdsp	s6, 0x10(sp)
   17142: 2e 89        	c.mv	s2, a1
   17144: 03 3b 06 00  	ld	s6, 0x0(a2)
   17148: aa 89        	c.mv	s3, a0
   1714a: 7d 5a        	c.li	s4, -0x1
   1714c: ad cf        	c.beqz	a5, 0x171c6 <__sprint_r.part.0+0xa2>
   1714e: a2 e0        	c.sdsp	s0, 0x40(sp)
   17150: 26 fc        	c.sdsp	s1, 0x38(sp)
   17152: 5e e4        	c.sdsp	s7, 0x8(sp)
   17154: 83 34 8b 00  	ld	s1, 0x8(s6)
   17158: 03 34 0b 00  	ld	s0, 0x0(s6)
   1715c: 89 80        	c.srli	s1, 0x2
   1715e: 9b 8b 04 00  	addiw	s7, s1, 0x0
   17162: 63 58 70 05  	bge	zero, s7, 0x171b2 <__sprint_r.part.0+0x8e>
   17166: fd 34        	c.addiw	s1, -0x1
   17168: 93 97 04 02  	slli	a5, s1, 0x20
   1716c: 93 d4 e7 01  	srli	s1, a5, 0x1e
   17170: 93 07 44 00  	addi	a5, s0, 0x4
   17174: be 94        	c.add	s1, a5
   17176: 19 a0        	c.j	0x1717c <__sprint_r.part.0+0x58>
   17178: 63 8b 84 02  	beq	s1, s0, 0x171ae <__sprint_r.part.0+0x8a>
   1717c: 0c 40        	c.lw	a1, 0x0(s0)
   1717e: 4a 86        	c.mv	a2, s2
   17180: 4e 85        	c.mv	a0, s3
   17182: ef 10 80 4f  	jal	ra, 0x1867a <_fputwc_r>
   17186: 01 25        	c.addiw	a0, 0x0
   17188: 11 04        	c.addi	s0, 0x4
   1718a: e3 17 45 ff  	bne	a0, s4, 0x17178 <__sprint_r.part.0+0x54>
   1718e: 06 64        	c.ldsp	s0, 0x40(sp)
   17190: e2 74        	c.ldsp	s1, 0x38(sp)
   17192: 42 79        	c.ldsp	s2, 0x30(sp)
   17194: a2 79        	c.ldsp	s3, 0x28(sp)
   17196: 02 7a        	c.ldsp	s4, 0x20(sp)
   17198: 42 6b        	c.ldsp	s6, 0x10(sp)
   1719a: a2 6b        	c.ldsp	s7, 0x8(sp)
   1719c: 7d 55        	c.li	a0, -0x1
   1719e: a6 60        	c.ldsp	ra, 0x48(sp)
   171a0: 23 b8 0a 00  	sd	zero, 0x10(s5)
   171a4: 23 a4 0a 00  	sw	zero, 0x8(s5)
   171a8: e2 6a        	c.ldsp	s5, 0x18(sp)
   171aa: 61 61        	c.addi16sp	sp, 0x50
   171ac: 82 80        	c.jr	ra
   171ae: 83 b7 0a 01  	ld	a5, 0x10(s5)
   171b2: 8a 0b        	c.slli	s7, 0x2
   171b4: b3 87 77 41  	sub	a5, a5, s7
   171b8: 23 b8 fa 00  	sd	a5, 0x10(s5)
   171bc: 41 0b        	c.addi	s6, 0x10
   171be: d9 fb        	c.bnez	a5, 0x17154 <__sprint_r.part.0+0x30>
   171c0: 06 64        	c.ldsp	s0, 0x40(sp)
   171c2: e2 74        	c.ldsp	s1, 0x38(sp)
   171c4: a2 6b        	c.ldsp	s7, 0x8(sp)
   171c6: 42 79        	c.ldsp	s2, 0x30(sp)
   171c8: a2 79        	c.ldsp	s3, 0x28(sp)
   171ca: 02 7a        	c.ldsp	s4, 0x20(sp)
   171cc: 42 6b        	c.ldsp	s6, 0x10(sp)
   171ce: 01 45        	c.li	a0, 0x0
   171d0: f9 b7        	c.j	0x1719e <__sprint_r.part.0+0x7a>
   171d2: ef 00 90 62  	jal	ra, 0x17ffa <__sfvwrite_r>
   171d6: a6 60        	c.ldsp	ra, 0x48(sp)
   171d8: 23 b8 0a 00  	sd	zero, 0x10(s5)
   171dc: 23 a4 0a 00  	sw	zero, 0x8(s5)
   171e0: e2 6a        	c.ldsp	s5, 0x18(sp)
   171e2: 61 61        	c.addi16sp	sp, 0x50
   171e4: 82 80        	c.jr	ra

00000000000171e6 <__sprint_r>:
   171e6: 18 6a        	c.ld	a4, 0x10(a2)
   171e8: 11 c3        	c.beqz	a4, 0x171ec <__sprint_r+0x6>
   171ea: 2d bf        	c.j	0x17124 <__sprint_r.part.0>
   171ec: 23 24 06 00  	sw	zero, 0x8(a2)
   171f0: 01 45        	c.li	a0, 0x0
   171f2: 82 80        	c.jr	ra

00000000000171f4 <_vfiprintf_r>:
   171f4: 05 71        	c.addi16sp	sp, -0x1e0
   171f6: 52 fb        	c.sdsp	s4, 0x1b0(sp)
   171f8: 56 f7        	c.sdsp	s5, 0x1a8(sp)
   171fa: 5e ef        	c.sdsp	s7, 0x198(sp)
   171fc: 6a e3        	c.sdsp	s10, 0x180(sp)
   171fe: 86 ef        	c.sdsp	ra, 0x1d8(sp)
   17200: 62 eb        	c.sdsp	s8, 0x190(sp)
   17202: aa 8a        	c.mv	s5, a0
   17204: 2e 8a        	c.mv	s4, a1
   17206: 32 8d        	c.mv	s10, a2
   17208: b6 8b        	c.mv	s7, a3
   1720a: 01 c5        	c.beqz	a0, 0x17212 <_vfiprintf_r+0x1e>
   1720c: 3c 65        	c.ld	a5, 0x48(a0)
   1720e: e3 83 07 3a  	beq	a5, zero, 0x17db4 <_vfiprintf_r+0xbc0>
   17212: 83 17 0a 01  	lh	a5, 0x10(s4)
   17216: 93 96 27 03  	slli	a3, a5, 0x32
   1721a: 63 c1 06 02  	blt	a3, zero, 0x1723c <_vfiprintf_r+0x48>
   1721e: 83 26 ca 0a  	lw	a3, 0xac(s4)
   17222: 89 65        	c.lui	a1, 0x2
   17224: 79 76        	c.lui	a2, 0xffffe
   17226: cd 8f        	c.or	a5, a1
   17228: 7d 16        	c.addi	a2, -0x1
   1722a: 9b 97 07 01  	slliw	a5, a5, 0x10
   1722e: 9b d7 07 41  	sraiw	a5, a5, 0x10
   17232: f1 8e        	c.and	a3, a2
   17234: 23 18 fa 00  	sh	a5, 0x10(s4)
   17238: 23 26 da 0a  	sw	a3, 0xac(s4)
   1723c: 93 f6 87 00  	andi	a3, a5, 0x8
   17240: e1 ce        	c.beqz	a3, 0x17318 <_vfiprintf_r+0x124>
   17242: 83 36 8a 01  	ld	a3, 0x18(s4)
   17246: e9 ca        	c.beqz	a3, 0x17318 <_vfiprintf_r+0x124>
   17248: e9 8b        	c.andi	a5, 0x1a
   1724a: a9 46        	c.li	a3, 0xa
   1724c: 63 82 d7 0e  	beq	a5, a3, 0x17330 <_vfiprintf_r+0x13c>
   17250: b7 77 02 00  	lui	a5, 0x27
   17254: 4e ff        	c.sdsp	s3, 0x1b8(sp)
   17256: 5a f3        	c.sdsp	s6, 0x1a0(sp)
   17258: 93 09 01 0f  	addi	s3, sp, 0xf0
   1725c: 93 87 07 66  	addi	a5, a5, 0x660
   17260: 37 7b 02 00  	lui	s6, 0x27
   17264: a2 eb        	c.sdsp	s0, 0x1d0(sp)
   17266: ca e3        	c.sdsp	s2, 0x1c0(sp)
   17268: a6 e7        	c.sdsp	s1, 0x1c8(sp)
   1726a: 66 e7        	c.sdsp	s9, 0x188(sp)
   1726c: ee fe        	c.sdsp	s11, 0x178(sp)
   1726e: ce f8        	c.sdsp	s3, 0x70(sp)
   17270: 02 e1        	c.sdsp	zero, 0x80(sp)
   17272: 82 dc        	c.swsp	zero, 0x78(sp)
   17274: 4e 84        	c.mv	s0, s3
   17276: 02 e8        	c.sdsp	zero, 0x10(sp)
   17278: 02 fc        	c.sdsp	zero, 0x38(sp)
   1727a: 02 f8        	c.sdsp	zero, 0x30(sp)
   1727c: 82 e0        	c.sdsp	zero, 0x40(sp)
   1727e: 01 4c        	c.li	s8, 0x0
   17280: 3e e4        	c.sdsp	a5, 0x8(sp)
   17282: 41 49        	c.li	s2, 0x10
   17284: 13 0b 0b 7d  	addi	s6, s6, 0x7d0
   17288: 83 47 0d 00  	lbu	a5, 0x0(s10)
   1728c: f9 c3        	c.beqz	a5, 0x17352 <_vfiprintf_r+0x15e>
   1728e: ea 84        	c.mv	s1, s10
   17290: 13 07 50 02  	addi	a4, zero, 0x25
   17294: 63 8f e7 26  	beq	a5, a4, 0x17512 <_vfiprintf_r+0x31e>
   17298: 83 c7 14 00  	lbu	a5, 0x1(s1)
   1729c: 85 04        	c.addi	s1, 0x1
   1729e: fd fb        	c.bnez	a5, 0x17294 <_vfiprintf_r+0xa0>
   172a0: bb 8d a4 41  	subw	s11, s1, s10
   172a4: 63 87 0d 0a  	beq	s11, zero, 0x17352 <_vfiprintf_r+0x15e>
   172a8: e6 57        	c.lwsp	a5, 0x78(sp)
   172aa: 0a 67        	c.ldsp	a4, 0x80(sp)
   172ac: 23 30 a4 01  	sd	s10, 0x0(s0)
   172b0: 9b 86 17 00  	addiw	a3, a5, 0x1
   172b4: 6e 97        	c.add	a4, s11
   172b6: 23 34 b4 01  	sd	s11, 0x8(s0)
   172ba: 3a e1        	c.sdsp	a4, 0x80(sp)
   172bc: b6 dc        	c.swsp	a3, 0x78(sp)
   172be: 9d 47        	c.li	a5, 0x7
   172c0: 41 04        	c.addi	s0, 0x10
   172c2: 63 db d7 00  	bge	a5, a3, 0x172d8 <_vfiprintf_r+0xe4>
   172c6: e3 07 07 0e  	beq	a4, zero, 0x17bb4 <_vfiprintf_r+0x9c0>
   172ca: 90 18        	c.addi4spn	a2, sp, 0x70
   172cc: d2 85        	c.mv	a1, s4
   172ce: 56 85        	c.mv	a0, s5
   172d0: ef f0 5f e5  	jal	ra, 0x17124 <__sprint_r.part.0>
   172d4: 51 e1        	c.bnez	a0, 0x17358 <_vfiprintf_r+0x164>
   172d6: 4e 84        	c.mv	s0, s3
   172d8: 83 c7 04 00  	lbu	a5, 0x0(s1)
   172dc: 3b 8c 8d 01  	addw	s8, s11, s8
   172e0: ad cb        	c.beqz	a5, 0x17352 <_vfiprintf_r+0x15e>
   172e2: 83 c7 14 00  	lbu	a5, 0x1(s1)
   172e6: 13 8d 14 00  	addi	s10, s1, 0x1
   172ea: a3 03 01 06  	sb	zero, 0x67(sp)
   172ee: fd 54        	c.li	s1, -0x1
   172f0: 81 48        	c.li	a7, 0x0
   172f2: 81 4c        	c.li	s9, 0x0
   172f4: 93 0d a0 05  	addi	s11, zero, 0x5a
   172f8: 05 0d        	c.addi	s10, 0x1
   172fa: 81 27        	c.addiw	a5, 0x0
   172fc: 1b 87 07 fe  	addiw	a4, a5, -0x20
   17300: 9b 06 07 00  	addiw	a3, a4, 0x0
   17304: 63 eb dd 0a  	bltu	s11, a3, 0x173ba <_vfiprintf_r+0x1c6>
   17308: 93 16 07 02  	slli	a3, a4, 0x20
   1730c: 13 d7 e6 01  	srli	a4, a3, 0x1e
   17310: a2 66        	c.ldsp	a3, 0x8(sp)
   17312: 36 97        	c.add	a4, a3
   17314: 18 43        	c.lw	a4, 0x0(a4)
   17316: 02 87        	c.jr	a4
   17318: d2 85        	c.mv	a1, s4
   1731a: 56 85        	c.mv	a0, s5
   1731c: ef 10 e0 1d  	jal	ra, 0x184fa <__swsetup_r>
   17320: e3 14 05 38  	bne	a0, zero, 0x17ea8 <_vfiprintf_r+0xcb4>
   17324: 83 17 0a 01  	lh	a5, 0x10(s4)
   17328: a9 46        	c.li	a3, 0xa
   1732a: e9 8b        	c.andi	a5, 0x1a
   1732c: e3 92 d7 f2  	bne	a5, a3, 0x17250 <_vfiprintf_r+0x5c>
   17330: 83 17 2a 01  	lh	a5, 0x12(s4)
   17334: e3 ce 07 f0  	blt	a5, zero, 0x17250 <_vfiprintf_r+0x5c>
   17338: fe 60        	c.ldsp	ra, 0x1d8(sp)
   1733a: 5a 6c        	c.ldsp	s8, 0x190(sp)
   1733c: de 86        	c.mv	a3, s7
   1733e: 6a 86        	c.mv	a2, s10
   17340: fa 6b        	c.ldsp	s7, 0x198(sp)
   17342: 1a 6d        	c.ldsp	s10, 0x180(sp)
   17344: d2 85        	c.mv	a1, s4
   17346: 56 85        	c.mv	a0, s5
   17348: 5a 7a        	c.ldsp	s4, 0x1b0(sp)
   1734a: ba 7a        	c.ldsp	s5, 0x1a8(sp)
   1734c: 3d 61        	c.addi16sp	sp, 0x1e0
   1734e: 6f 00 50 39  	jal	zero, 0x17ee2 <__sbprintf>
   17352: 8a 67        	c.ldsp	a5, 0x80(sp)
   17354: e3 9c 07 30  	bne	a5, zero, 0x17e6c <_vfiprintf_r+0xc78>
   17358: 83 57 0a 01  	lhu	a5, 0x10(s4)
   1735c: 5e 64        	c.ldsp	s0, 0x1d0(sp)
   1735e: be 64        	c.ldsp	s1, 0x1c8(sp)
   17360: 93 f7 07 04  	andi	a5, a5, 0x40
   17364: 1e 69        	c.ldsp	s2, 0x1c0(sp)
   17366: fa 79        	c.ldsp	s3, 0x1b8(sp)
   17368: 1a 7b        	c.ldsp	s6, 0x1a0(sp)
   1736a: ba 6c        	c.ldsp	s9, 0x188(sp)
   1736c: f6 7d        	c.ldsp	s11, 0x178(sp)
   1736e: e3 9d 07 32  	bne	a5, zero, 0x17ea8 <_vfiprintf_r+0xcb4>
   17372: fe 60        	c.ldsp	ra, 0x1d8(sp)
   17374: 5a 7a        	c.ldsp	s4, 0x1b0(sp)
   17376: ba 7a        	c.ldsp	s5, 0x1a8(sp)
   17378: fa 6b        	c.ldsp	s7, 0x198(sp)
   1737a: 1a 6d        	c.ldsp	s10, 0x180(sp)
   1737c: 62 85        	c.mv	a0, s8
   1737e: 5a 6c        	c.ldsp	s8, 0x190(sp)
   17380: 3d 61        	c.addi16sp	sp, 0x1e0
   17382: 82 80        	c.jr	ra
   17384: 81 48        	c.li	a7, 0x0
   17386: 25 46        	c.li	a2, 0x9
   17388: 83 46 0d 00  	lbu	a3, 0x0(s10)
   1738c: 1b 97 28 00  	slliw	a4, a7, 0x2
   17390: bb 08 17 01  	addw	a7, a4, a7
   17394: 9b 87 07 fd  	addiw	a5, a5, -0x30
   17398: 9b 98 18 00  	slliw	a7, a7, 0x1
   1739c: 1b 87 06 fd  	addiw	a4, a3, -0x30
   173a0: bb 88 17 01  	addw	a7, a5, a7
   173a4: 05 0d        	c.addi	s10, 0x1
   173a6: 9b 87 06 00  	addiw	a5, a3, 0x0
   173aa: e3 7f e6 fc  	bgeu	a2, a4, 0x17388 <_vfiprintf_r+0x194>
   173ae: 1b 87 07 fe  	addiw	a4, a5, -0x20
   173b2: 9b 06 07 00  	addiw	a3, a4, 0x0
   173b6: e3 f9 dd f4  	bgeu	s11, a3, 0x17308 <_vfiprintf_r+0x114>
   173ba: c1 df        	c.beqz	a5, 0x17352 <_vfiprintf_r+0x15e>
   173bc: 23 04 f1 08  	sb	a5, 0x88(sp)
   173c0: a3 03 01 06  	sb	zero, 0x67(sp)
   173c4: 05 43        	c.li	t1, 0x1
   173c6: 05 4e        	c.li	t3, 0x1
   173c8: 93 0d 81 08  	addi	s11, sp, 0x88
   173cc: 81 44        	c.li	s1, 0x0
   173ce: 81 4f        	c.li	t6, 0x0
   173d0: e6 56        	c.lwsp	a3, 0x78(sp)
   173d2: 93 f2 4c 08  	andi	t0, s9, 0x84
   173d6: 8a 67        	c.ldsp	a5, 0x80(sp)
   173d8: 9b 85 16 00  	addiw	a1, a3, 0x1
   173dc: 2e 86        	c.mv	a2, a1
   173de: 63 96 02 00  	bne	t0, zero, 0x173ea <_vfiprintf_r+0x1f6>
   173e2: 3b 87 68 40  	subw	a4, a7, t1
   173e6: 63 4e e0 62  	blt	zero, a4, 0x17a22 <_vfiprintf_r+0x82e>
   173ea: 03 47 71 06  	lbu	a4, 0x67(sp)
   173ee: 19 cf        	c.beqz	a4, 0x1740c <_vfiprintf_r+0x218>
   173f0: 13 07 71 06  	addi	a4, sp, 0x67
   173f4: 85 07        	c.addi	a5, 0x1
   173f6: 18 e0        	c.sd	a4, 0x0(s0)
   173f8: 05 47        	c.li	a4, 0x1
   173fa: 18 e4        	c.sd	a4, 0x8(s0)
   173fc: 3e e1        	c.sdsp	a5, 0x80(sp)
   173fe: ae dc        	c.swsp	a1, 0x78(sp)
   17400: 1d 47        	c.li	a4, 0x7
   17402: 63 41 b7 5a  	blt	a4, a1, 0x179a4 <_vfiprintf_r+0x7b0>
   17406: ae 86        	c.mv	a3, a1
   17408: 41 04        	c.addi	s0, 0x10
   1740a: 85 25        	c.addiw	a1, 0x1
   1740c: 63 81 0f 04  	beq	t6, zero, 0x1744e <_vfiprintf_r+0x25a>
   17410: b8 10        	c.addi4spn	a4, sp, 0x68
   17412: 89 07        	c.addi	a5, 0x2
   17414: 18 e0        	c.sd	a4, 0x0(s0)
   17416: 09 47        	c.li	a4, 0x2
   17418: 18 e4        	c.sd	a4, 0x8(s0)
   1741a: 3e e1        	c.sdsp	a5, 0x80(sp)
   1741c: ae dc        	c.swsp	a1, 0x78(sp)
   1741e: 1d 47        	c.li	a4, 0x7
   17420: 63 52 b7 5c  	bge	a4, a1, 0x179e4 <_vfiprintf_r+0x7f0>
   17424: 63 8c 07 78  	beq	a5, zero, 0x17bbc <_vfiprintf_r+0x9c8>
   17428: 90 18        	c.addi4spn	a2, sp, 0x70
   1742a: d2 85        	c.mv	a1, s4
   1742c: 56 85        	c.mv	a0, s5
   1742e: 9a e4        	c.sdsp	t1, 0x48(sp)
   17430: 46 f4        	c.sdsp	a7, 0x28(sp)
   17432: 72 f0        	c.sdsp	t3, 0x20(sp)
   17434: 16 ec        	c.sdsp	t0, 0x18(sp)
   17436: ef f0 ff ce  	jal	ra, 0x17124 <__sprint_r.part.0>
   1743a: 19 fd        	c.bnez	a0, 0x17358 <_vfiprintf_r+0x164>
   1743c: e6 56        	c.lwsp	a3, 0x78(sp)
   1743e: 8a 67        	c.ldsp	a5, 0x80(sp)
   17440: 26 63        	c.ldsp	t1, 0x48(sp)
   17442: a2 78        	c.ldsp	a7, 0x28(sp)
   17444: 02 7e        	c.ldsp	t3, 0x20(sp)
   17446: e2 62        	c.ldsp	t0, 0x18(sp)
   17448: 4e 84        	c.mv	s0, s3
   1744a: 9b 85 16 00  	addiw	a1, a3, 0x1
   1744e: 13 07 00 08  	addi	a4, zero, 0x80
   17452: 63 85 e2 3e  	beq	t0, a4, 0x1783c <_vfiprintf_r+0x648>
   17456: bb 84 c4 41  	subw	s1, s1, t3
   1745a: 63 42 90 4a  	blt	zero, s1, 0x178fe <_vfiprintf_r+0x70a>
   1745e: f2 97        	c.add	a5, t3
   17460: 23 30 b4 01  	sd	s11, 0x0(s0)
   17464: 23 34 c4 01  	sd	t3, 0x8(s0)
   17468: 3e e1        	c.sdsp	a5, 0x80(sp)
   1746a: ae dc        	c.swsp	a1, 0x78(sp)
   1746c: 1d 47        	c.li	a4, 0x7
   1746e: 63 55 b7 3c  	bge	a4, a1, 0x17838 <_vfiprintf_r+0x644>
   17472: 63 8b 07 64  	beq	a5, zero, 0x17ac8 <_vfiprintf_r+0x8d4>
   17476: 90 18        	c.addi4spn	a2, sp, 0x70
   17478: d2 85        	c.mv	a1, s4
   1747a: 56 85        	c.mv	a0, s5
   1747c: 1a f0        	c.sdsp	t1, 0x20(sp)
   1747e: 46 ec        	c.sdsp	a7, 0x18(sp)
   17480: ef f0 5f ca  	jal	ra, 0x17124 <__sprint_r.part.0>
   17484: e3 1a 05 ec  	bne	a0, zero, 0x17358 <_vfiprintf_r+0x164>
   17488: 8a 67        	c.ldsp	a5, 0x80(sp)
   1748a: 02 73        	c.ldsp	t1, 0x20(sp)
   1748c: e2 68        	c.ldsp	a7, 0x18(sp)
   1748e: 4e 84        	c.mv	s0, s3
   17490: 13 f8 4c 00  	andi	a6, s9, 0x4
   17494: 63 06 08 00  	beq	a6, zero, 0x174a0 <_vfiprintf_r+0x2ac>
   17498: bb 84 68 40  	subw	s1, a7, t1
   1749c: 63 40 90 64  	blt	zero, s1, 0x17adc <_vfiprintf_r+0x8e8>
   174a0: 46 87        	c.mv	a4, a7
   174a2: 63 d3 68 00  	bge	a7, t1, 0x174a8 <_vfiprintf_r+0x2b4>
   174a6: 1a 87        	c.mv	a4, t1
   174a8: 3b 0c 87 01  	addw	s8, a4, s8
   174ac: 63 90 07 4e  	bne	a5, zero, 0x1798c <_vfiprintf_r+0x798>
   174b0: 82 dc        	c.swsp	zero, 0x78(sp)
   174b2: 4e 84        	c.mv	s0, s3
   174b4: d1 bb        	c.j	0x17288 <_vfiprintf_r+0x94>
   174b6: 93 ec 0c 01  	ori	s9, s9, 0x10
   174ba: 83 47 0d 00  	lbu	a5, 0x0(s10)
   174be: 81 2c        	c.addiw	s9, 0x0
   174c0: 25 bd        	c.j	0x172f8 <_vfiprintf_r+0x104>
   174c2: 13 e8 0c 01  	ori	a6, s9, 0x10
   174c6: 9b 0c 08 00  	addiw	s9, a6, 0x0
   174ca: 93 f7 0c 02  	andi	a5, s9, 0x20
   174ce: 93 8e 8b 00  	addi	t4, s7, 0x8
   174d2: b9 c7        	c.beqz	a5, 0x17520 <_vfiprintf_r+0x32c>
   174d4: 83 b7 0b 00  	ld	a5, 0x0(s7)
   174d8: be 8b        	c.mv	s7, a5
   174da: 63 c3 07 06  	blt	a5, zero, 0x17540 <_vfiprintf_r+0x34c>
   174de: 63 cd 04 06  	blt	s1, zero, 0x17558 <_vfiprintf_r+0x364>
   174e2: 13 f8 fc f7  	andi	a6, s9, -0x81
   174e6: 9b 0c 08 00  	addiw	s9, a6, 0x0
   174ea: 63 97 0b 06  	bne	s7, zero, 0x17558 <_vfiprintf_r+0x364>
   174ee: e3 9b 04 18  	bne	s1, zero, 0x17e84 <_vfiprintf_r+0xc90>
   174f2: 83 47 71 06  	lbu	a5, 0x67(sp)
   174f6: 01 43        	c.li	t1, 0x0
   174f8: 01 4e        	c.li	t3, 0x0
   174fa: f6 8b        	c.mv	s7, t4
   174fc: 93 0d c1 0e  	addi	s11, sp, 0xec
   17500: 91 c3        	c.beqz	a5, 0x17504 <_vfiprintf_r+0x310>
   17502: 05 23        	c.addiw	t1, 0x1
   17504: 93 ff 2c 00  	andi	t6, s9, 0x2
   17508: e3 84 0f ec  	beq	t6, zero, 0x173d0 <_vfiprintf_r+0x1dc>
   1750c: 09 23        	c.addiw	t1, 0x2
   1750e: 89 4f        	c.li	t6, 0x2
   17510: c1 b5        	c.j	0x173d0 <_vfiprintf_r+0x1dc>
   17512: bb 8d a4 41  	subw	s11, s1, s10
   17516: e3 99 0d d8  	bne	s11, zero, 0x172a8 <_vfiprintf_r+0xb4>
   1751a: 83 c7 04 00  	lbu	a5, 0x0(s1)
   1751e: c9 b3        	c.j	0x172e0 <_vfiprintf_r+0xec>
   17520: 93 f7 0c 01  	andi	a5, s9, 0x10
   17524: c5 fb        	c.bnez	a5, 0x174d4 <_vfiprintf_r+0x2e0>
   17526: 93 f7 0c 04  	andi	a5, s9, 0x40
   1752a: 83 ab 0b 00  	lw	s7, 0x0(s7)
   1752e: e3 8f 07 0c  	beq	a5, zero, 0x17e0c <_vfiprintf_r+0xc18>
   17532: 9b 9b 0b 01  	slliw	s7, s7, 0x10
   17536: 9b db 0b 41  	sraiw	s7, s7, 0x10
   1753a: de 87        	c.mv	a5, s7
   1753c: e3 d1 07 fa  	bge	a5, zero, 0x174de <_vfiprintf_r+0x2ea>
   17540: 93 07 d0 02  	addi	a5, zero, 0x2d
   17544: a3 03 f1 06  	sb	a5, 0x67(sp)
   17548: b3 0b 70 41  	sub	s7, zero, s7
   1754c: 63 c6 04 00  	blt	s1, zero, 0x17558 <_vfiprintf_r+0x364>
   17550: 13 f8 fc f7  	andi	a6, s9, -0x81
   17554: 9b 0c 08 00  	addiw	s9, a6, 0x0
   17558: a5 47        	c.li	a5, 0x9
   1755a: 63 e4 77 6b  	bltu	a5, s7, 0x17c02 <_vfiprintf_r+0xa0e>
   1755e: 9b 87 0b 03  	addiw	a5, s7, 0x30
   17562: 93 f7 f7 0f  	andi	a5, a5, 0xff
   17566: f6 8b        	c.mv	s7, t4
   17568: a3 05 f1 0e  	sb	a5, 0xeb(sp)
   1756c: 1b 83 04 00  	addiw	t1, s1, 0x0
   17570: 63 43 90 00  	blt	zero, s1, 0x17576 <_vfiprintf_r+0x382>
   17574: 05 43        	c.li	t1, 0x1
   17576: 05 4e        	c.li	t3, 0x1
   17578: 93 0d b1 0e  	addi	s11, sp, 0xeb
   1757c: 83 47 71 06  	lbu	a5, 0x67(sp)
   17580: c9 f3        	c.bnez	a5, 0x17502 <_vfiprintf_r+0x30e>
   17582: 49 b7        	c.j	0x17504 <_vfiprintf_r+0x310>
   17584: 83 bd 0b 00  	ld	s11, 0x0(s7)
   17588: a3 03 01 06  	sb	zero, 0x67(sp)
   1758c: a1 0b        	c.addi	s7, 0x8
   1758e: e3 87 0d 04  	beq	s11, zero, 0x17ddc <_vfiprintf_r+0xbe8>
   17592: 46 ec        	c.sdsp	a7, 0x18(sp)
   17594: 63 c8 04 7a  	blt	s1, zero, 0x17d44 <_vfiprintf_r+0xb50>
   17598: 26 86        	c.mv	a2, s1
   1759a: 81 45        	c.li	a1, 0x0
   1759c: 6e 85        	c.mv	a0, s11
   1759e: ef 10 c0 14  	jal	ra, 0x186ea <memchr>
   175a2: e2 68        	c.ldsp	a7, 0x18(sp)
   175a4: 26 8e        	c.mv	t3, s1
   175a6: 19 c1        	c.beqz	a0, 0x175ac <_vfiprintf_r+0x3b8>
   175a8: 3b 0e b5 41  	subw	t3, a0, s11
   175ac: 13 43 fe ff  	xori	t1, t3, -0x1
   175b0: 83 47 71 06  	lbu	a5, 0x67(sp)
   175b4: 13 53 f3 43  	srai	t1, t1, 0x3f
   175b8: 33 73 6e 00  	and	t1, t3, t1
   175bc: 01 23        	c.addiw	t1, 0x0
   175be: 81 44        	c.li	s1, 0x0
   175c0: 81 4f        	c.li	t6, 0x0
   175c2: a1 f3        	c.bnez	a5, 0x17502 <_vfiprintf_r+0x30e>
   175c4: 31 b5        	c.j	0x173d0 <_vfiprintf_r+0x1dc>
   175c6: 83 a7 0b 00  	lw	a5, 0x0(s7)
   175ca: a3 03 01 06  	sb	zero, 0x67(sp)
   175ce: a1 0b        	c.addi	s7, 0x8
   175d0: 23 04 f1 08  	sb	a5, 0x88(sp)
   175d4: 05 43        	c.li	t1, 0x1
   175d6: 05 4e        	c.li	t3, 0x1
   175d8: 93 0d 81 08  	addi	s11, sp, 0x88
   175dc: c5 bb        	c.j	0x173cc <_vfiprintf_r+0x1d8>
   175de: 83 a8 0b 00  	lw	a7, 0x0(s7)
   175e2: a1 0b        	c.addi	s7, 0x8
   175e4: 63 df 08 08  	bge	a7, zero, 0x17682 <_vfiprintf_r+0x48e>
   175e8: bb 08 10 41  	subw	a7, zero, a7
   175ec: 93 ec 4c 00  	ori	s9, s9, 0x4
   175f0: 83 47 0d 00  	lbu	a5, 0x0(s10)
   175f4: 81 2c        	c.addiw	s9, 0x0
   175f6: 09 b3        	c.j	0x172f8 <_vfiprintf_r+0x104>
   175f8: 13 07 b0 02  	addi	a4, zero, 0x2b
   175fc: 83 47 0d 00  	lbu	a5, 0x0(s10)
   17600: a3 03 e1 06  	sb	a4, 0x67(sp)
   17604: d5 b9        	c.j	0x172f8 <_vfiprintf_r+0x104>
   17606: 93 ec 0c 08  	ori	s9, s9, 0x80
   1760a: 83 47 0d 00  	lbu	a5, 0x0(s10)
   1760e: 81 2c        	c.addiw	s9, 0x0
   17610: e5 b1        	c.j	0x172f8 <_vfiprintf_r+0x104>
   17612: 83 47 0d 00  	lbu	a5, 0x0(s10)
   17616: 13 06 a0 02  	addi	a2, zero, 0x2a
   1761a: 93 06 1d 00  	addi	a3, s10, 0x1
   1761e: e3 8d c7 08  	beq	a5, a2, 0x17eb8 <_vfiprintf_r+0xcc4>
   17622: 1b 87 07 fd  	addiw	a4, a5, -0x30
   17626: 25 45        	c.li	a0, 0x9
   17628: 01 46        	c.li	a2, 0x0
   1762a: a5 45        	c.li	a1, 0x9
   1762c: 36 8d        	c.mv	s10, a3
   1762e: 81 44        	c.li	s1, 0x0
   17630: e3 66 e5 cc  	bltu	a0, a4, 0x172fc <_vfiprintf_r+0x108>
   17634: 83 c7 06 00  	lbu	a5, 0x0(a3)
   17638: 9b 14 26 00  	slliw	s1, a2, 0x2
   1763c: b1 9c        	c.addw	s1, a2
   1763e: 9b 94 14 00  	slliw	s1, s1, 0x1
   17642: 3b 86 e4 00  	addw	a2, s1, a4
   17646: 1b 87 07 fd  	addiw	a4, a5, -0x30
   1764a: b2 84        	c.mv	s1, a2
   1764c: 85 06        	c.addi	a3, 0x1
   1764e: e3 f3 e5 fe  	bgeu	a1, a4, 0x17634 <_vfiprintf_r+0x440>
   17652: 63 4b 06 66  	blt	a2, zero, 0x17cc8 <_vfiprintf_r+0xad4>
   17656: 36 8d        	c.mv	s10, a3
   17658: 55 b1        	c.j	0x172fc <_vfiprintf_r+0x108>
   1765a: 56 85        	c.mv	a0, s5
   1765c: 46 ec        	c.sdsp	a7, 0x18(sp)
   1765e: ef 10 60 28  	jal	ra, 0x188e4 <_localeconv_r>
   17662: 1c 65        	c.ld	a5, 0x8(a0)
   17664: 3e 85        	c.mv	a0, a5
   17666: be e0        	c.sdsp	a5, 0x40(sp)
   17668: ef d0 2f c0  	jal	ra, 0x14a6a <strlen>
   1766c: aa 87        	c.mv	a5, a0
   1766e: 56 85        	c.mv	a0, s5
   17670: 3e f8        	c.sdsp	a5, 0x30(sp)
   17672: ef 10 20 27  	jal	ra, 0x188e4 <_localeconv_r>
   17676: 18 69        	c.ld	a4, 0x10(a0)
   17678: c2 77        	c.ldsp	a5, 0x30(sp)
   1767a: e2 68        	c.ldsp	a7, 0x18(sp)
   1767c: 3a fc        	c.sdsp	a4, 0x38(sp)
   1767e: 63 9f 07 60  	bne	a5, zero, 0x17c9c <_vfiprintf_r+0xaa8>
   17682: 83 47 0d 00  	lbu	a5, 0x0(s10)
   17686: 8d b9        	c.j	0x172f8 <_vfiprintf_r+0x104>
   17688: 93 ec 1c 00  	ori	s9, s9, 0x1
   1768c: 83 47 0d 00  	lbu	a5, 0x0(s10)
   17690: 81 2c        	c.addiw	s9, 0x0
   17692: 9d b1        	c.j	0x172f8 <_vfiprintf_r+0x104>
   17694: 03 47 71 06  	lbu	a4, 0x67(sp)
   17698: 83 47 0d 00  	lbu	a5, 0x0(s10)
   1769c: e3 1e 07 c4  	bne	a4, zero, 0x172f8 <_vfiprintf_r+0x104>
   176a0: 13 07 00 02  	addi	a4, zero, 0x20
   176a4: a3 03 e1 06  	sb	a4, 0x67(sp)
   176a8: 81 b9        	c.j	0x172f8 <_vfiprintf_r+0x104>
   176aa: 93 e7 0c 01  	ori	a5, s9, 0x10
   176ae: 81 27        	c.addiw	a5, 0x0
   176b0: 13 f7 07 02  	andi	a4, a5, 0x20
   176b4: 93 86 8b 00  	addi	a3, s7, 0x8
   176b8: 09 e7        	c.bnez	a4, 0x176c2 <_vfiprintf_r+0x4ce>
   176ba: 13 f7 07 01  	andi	a4, a5, 0x10
   176be: 63 06 07 5c  	beq	a4, zero, 0x17c8a <_vfiprintf_r+0xa96>
   176c2: 03 b7 0b 00  	ld	a4, 0x0(s7)
   176c6: 13 f8 f7 bf  	andi	a6, a5, -0x401
   176ca: a3 03 01 06  	sb	zero, 0x67(sp)
   176ce: 9b 0c 08 00  	addiw	s9, a6, 0x0
   176d2: b6 8b        	c.mv	s7, a3
   176d4: 63 c5 04 08  	blt	s1, zero, 0x1775e <_vfiprintf_r+0x56a>
   176d8: 93 f7 f7 b7  	andi	a5, a5, -0x481
   176dc: 81 27        	c.addiw	a5, 0x0
   176de: 63 16 07 6c  	bne	a4, zero, 0x17daa <_vfiprintf_r+0xbb6>
   176e2: 66 8e        	c.mv	t3, s9
   176e4: be 8c        	c.mv	s9, a5
   176e6: ad e4        	c.bnez	s1, 0x17750 <_vfiprintf_r+0x55c>
   176e8: 63 18 07 50  	bne	a4, zero, 0x17bf8 <_vfiprintf_r+0xa04>
   176ec: 13 7e 1e 00  	andi	t3, t3, 0x1
   176f0: 63 09 0e 56  	beq	t3, zero, 0x17c62 <_vfiprintf_r+0xa6e>
   176f4: 93 07 00 03  	addi	a5, zero, 0x30
   176f8: a3 05 f1 0e  	sb	a5, 0xeb(sp)
   176fc: 72 83        	c.mv	t1, t3
   176fe: 93 0d b1 0e  	addi	s11, sp, 0xeb
   17702: ad bd        	c.j	0x1757c <_vfiprintf_r+0x388>
   17704: 83 47 0d 00  	lbu	a5, 0x0(s10)
   17708: 13 07 c0 06  	addi	a4, zero, 0x6c
   1770c: 63 80 e7 6c  	beq	a5, a4, 0x17dcc <_vfiprintf_r+0xbd8>
   17710: 93 ec 0c 01  	ori	s9, s9, 0x10
   17714: 81 2c        	c.addiw	s9, 0x0
   17716: cd b6        	c.j	0x172f8 <_vfiprintf_r+0x104>
   17718: 13 ee 0c 01  	ori	t3, s9, 0x10
   1771c: 01 2e        	c.addiw	t3, 0x0
   1771e: 93 77 0e 02  	andi	a5, t3, 0x20
   17722: 93 8e 8b 00  	addi	t4, s7, 0x8
   17726: 89 e7        	c.bnez	a5, 0x17730 <_vfiprintf_r+0x53c>
   17728: 93 77 0e 01  	andi	a5, t3, 0x10
   1772c: 63 85 07 54  	beq	a5, zero, 0x17c76 <_vfiprintf_r+0xa82>
   17730: 83 bb 0b 00  	ld	s7, 0x0(s7)
   17734: a3 03 01 06  	sb	zero, 0x67(sp)
   17738: f2 8c        	c.mv	s9, t3
   1773a: e3 cf 04 e0  	blt	s1, zero, 0x17558 <_vfiprintf_r+0x364>
   1773e: 13 78 fe f7  	andi	a6, t3, -0x81
   17742: 9b 0c 08 00  	addiw	s9, a6, 0x0
   17746: e3 99 0b e0  	bne	s7, zero, 0x17558 <_vfiprintf_r+0x364>
   1774a: f6 8b        	c.mv	s7, t4
   1774c: 05 47        	c.li	a4, 0x1
   1774e: c9 dc        	c.beqz	s1, 0x176e8 <_vfiprintf_r+0x4f4>
   17750: 85 47        	c.li	a5, 0x1
   17752: 63 0a f7 72  	beq	a4, a5, 0x17e86 <_vfiprintf_r+0xc92>
   17756: 89 47        	c.li	a5, 0x2
   17758: 63 0a f7 6c  	beq	a4, a5, 0x17e2c <_vfiprintf_r+0xc38>
   1775c: 01 47        	c.li	a4, 0x0
   1775e: 13 0e c1 0e  	addi	t3, sp, 0xec
   17762: f2 8d        	c.mv	s11, t3
   17764: 93 77 77 00  	andi	a5, a4, 0x7
   17768: 93 87 07 03  	addi	a5, a5, 0x30
   1776c: a3 8f fd fe  	sb	a5, -0x1(s11)
   17770: 0d 83        	c.srli	a4, 0x3
   17772: ee 86        	c.mv	a3, s11
   17774: fd 1d        	c.addi	s11, -0x1
   17776: 7d f7        	c.bnez	a4, 0x17764 <_vfiprintf_r+0x570>
   17778: 13 f7 1c 00  	andi	a4, s9, 0x1
   1777c: 63 0a 07 28  	beq	a4, zero, 0x17a10 <_vfiprintf_r+0x81c>
   17780: 13 07 00 03  	addi	a4, zero, 0x30
   17784: 63 86 e7 28  	beq	a5, a4, 0x17a10 <_vfiprintf_r+0x81c>
   17788: f9 16        	c.addi	a3, -0x2
   1778a: a3 8f ed fe  	sb	a4, -0x1(s11)
   1778e: 3b 0e de 40  	subw	t3, t3, a3
   17792: 1b 83 04 00  	addiw	t1, s1, 0x0
   17796: 63 c5 c4 53  	blt	s1, t3, 0x17cc0 <_vfiprintf_r+0xacc>
   1779a: b6 8d        	c.mv	s11, a3
   1779c: c5 b3        	c.j	0x1757c <_vfiprintf_r+0x388>
   1779e: 83 47 0d 00  	lbu	a5, 0x0(s10)
   177a2: 13 07 80 06  	addi	a4, zero, 0x68
   177a6: 63 8b e7 60  	beq	a5, a4, 0x17dbc <_vfiprintf_r+0xbc8>
   177aa: 93 ec 0c 04  	ori	s9, s9, 0x40
   177ae: 81 2c        	c.addiw	s9, 0x0
   177b0: a1 b6        	c.j	0x172f8 <_vfiprintf_r+0x104>
   177b2: 93 ec 0c 02  	ori	s9, s9, 0x20
   177b6: 83 47 0d 00  	lbu	a5, 0x0(s10)
   177ba: 81 2c        	c.addiw	s9, 0x0
   177bc: 35 be        	c.j	0x172f8 <_vfiprintf_r+0x104>
   177be: a1 67        	c.lui	a5, 0x8
   177c0: 93 87 07 83  	addi	a5, a5, -0x7d0
   177c4: 23 14 f1 06  	sh	a5, 0x68(sp)
   177c8: b7 77 02 00  	lui	a5, 0x27
   177cc: 13 e8 2c 00  	ori	a6, s9, 0x2
   177d0: 93 87 87 3a  	addi	a5, a5, 0x3a8
   177d4: 03 b7 0b 00  	ld	a4, 0x0(s7)
   177d8: 9b 0c 08 00  	addiw	s9, a6, 0x0
   177dc: a1 0b        	c.addi	s7, 0x8
   177de: 3e e8        	c.sdsp	a5, 0x10(sp)
   177e0: a3 03 01 06  	sb	zero, 0x67(sp)
   177e4: 63 c8 04 20  	blt	s1, zero, 0x179f4 <_vfiprintf_r+0x800>
   177e8: 93 f7 fc f7  	andi	a5, s9, -0x81
   177ec: 81 27        	c.addiw	a5, 0x0
   177ee: 63 1f 07 1e  	bne	a4, zero, 0x179ec <_vfiprintf_r+0x7f8>
   177f2: 66 8e        	c.mv	t3, s9
   177f4: 09 47        	c.li	a4, 0x2
   177f6: be 8c        	c.mv	s9, a5
   177f8: fd b5        	c.j	0x176e6 <_vfiprintf_r+0x4f2>
   177fa: 93 f7 0c 02  	andi	a5, s9, 0x20
   177fe: 03 b7 0b 00  	ld	a4, 0x0(s7)
   17802: 85 e3        	c.bnez	a5, 0x17822 <_vfiprintf_r+0x62e>
   17804: 93 f7 0c 01  	andi	a5, s9, 0x10
   17808: 89 ef        	c.bnez	a5, 0x17822 <_vfiprintf_r+0x62e>
   1780a: 93 f7 0c 04  	andi	a5, s9, 0x40
   1780e: 63 9d 07 62  	bne	a5, zero, 0x17e48 <_vfiprintf_r+0xc54>
   17812: 13 f8 0c 20  	andi	a6, s9, 0x200
   17816: 63 0c 08 68  	beq	a6, zero, 0x17eae <_vfiprintf_r+0xcba>
   1781a: 23 00 87 01  	sb	s8, 0x0(a4)
   1781e: a1 0b        	c.addi	s7, 0x8
   17820: a5 b4        	c.j	0x17288 <_vfiprintf_r+0x94>
   17822: 23 30 87 01  	sd	s8, 0x0(a4)
   17826: a1 0b        	c.addi	s7, 0x8
   17828: 85 b4        	c.j	0x17288 <_vfiprintf_r+0x94>
   1782a: 05 47        	c.li	a4, 0x1
   1782c: f2 87        	c.mv	a5, t3
   1782e: ee f9        	c.sdsp	s11, 0xf0(sp)
   17830: f2 fd        	c.sdsp	t3, 0xf8(sp)
   17832: 72 e1        	c.sdsp	t3, 0x80(sp)
   17834: ba dc        	c.swsp	a4, 0x78(sp)
   17836: 4e 84        	c.mv	s0, s3
   17838: 41 04        	c.addi	s0, 0x10
   1783a: 99 b9        	c.j	0x17490 <_vfiprintf_r+0x29c>
   1783c: 3b 87 68 40  	subw	a4, a7, t1
   17840: e3 5b e0 c0  	bge	zero, a4, 0x17456 <_vfiprintf_r+0x262>
   17844: 41 46        	c.li	a2, 0x10
   17846: 63 5b e6 64  	bge	a2, a4, 0x17e9c <_vfiprintf_r+0xca8>
   1784a: b7 7e 02 00  	lui	t4, 0x27
   1784e: 93 8e 0e 7d  	addi	t4, t4, 0x7d0
   17852: 26 f4        	c.sdsp	s1, 0x28(sp)
   17854: a2 85        	c.mv	a1, s0
   17856: 41 4f        	c.li	t5, 0x10
   17858: 9d 4f        	c.li	t6, 0x7
   1785a: 72 ec        	c.sdsp	t3, 0x18(sp)
   1785c: 46 f0        	c.sdsp	a7, 0x20(sp)
   1785e: 9a e4        	c.sdsp	t1, 0x48(sp)
   17860: 3a 84        	c.mv	s0, a4
   17862: f6 84        	c.mv	s1, t4
   17864: 01 a8        	c.j	0x17874 <_vfiprintf_r+0x680>
   17866: 1b 86 26 00  	addiw	a2, a3, 0x2
   1786a: c1 05        	c.addi	a1, 0x10
   1786c: aa 86        	c.mv	a3, a0
   1786e: 41 34        	c.addiw	s0, -0x10
   17870: 63 5f 8f 02  	bge	t5, s0, 0x178ae <_vfiprintf_r+0x6ba>
   17874: 1b 85 16 00  	addiw	a0, a3, 0x1
   17878: c1 07        	c.addi	a5, 0x10
   1787a: 84 e1        	c.sd	s1, 0x0(a1)
   1787c: 23 b4 e5 01  	sd	t5, 0x8(a1)
   17880: 3e e1        	c.sdsp	a5, 0x80(sp)
   17882: aa dc        	c.swsp	a0, 0x78(sp)
   17884: e3 d1 af fe  	bge	t6, a0, 0x17866 <_vfiprintf_r+0x672>
   17888: 63 8a 07 10  	beq	a5, zero, 0x1799c <_vfiprintf_r+0x7a8>
   1788c: 90 18        	c.addi4spn	a2, sp, 0x70
   1788e: d2 85        	c.mv	a1, s4
   17890: 56 85        	c.mv	a0, s5
   17892: ef f0 3f 89  	jal	ra, 0x17124 <__sprint_r.part.0>
   17896: e3 11 05 ac  	bne	a0, zero, 0x17358 <_vfiprintf_r+0x164>
   1789a: e6 56        	c.lwsp	a3, 0x78(sp)
   1789c: 41 4f        	c.li	t5, 0x10
   1789e: 41 34        	c.addiw	s0, -0x10
   178a0: 8a 67        	c.ldsp	a5, 0x80(sp)
   178a2: ce 85        	c.mv	a1, s3
   178a4: 1b 86 16 00  	addiw	a2, a3, 0x1
   178a8: 9d 4f        	c.li	t6, 0x7
   178aa: e3 45 8f fc  	blt	t5, s0, 0x17874 <_vfiprintf_r+0x680>
   178ae: a6 8e        	c.mv	t4, s1
   178b0: 62 6e        	c.ldsp	t3, 0x18(sp)
   178b2: 82 78        	c.ldsp	a7, 0x20(sp)
   178b4: 26 63        	c.ldsp	t1, 0x48(sp)
   178b6: a2 74        	c.ldsp	s1, 0x28(sp)
   178b8: 22 87        	c.mv	a4, s0
   178ba: 2e 84        	c.mv	s0, a1
   178bc: ba 97        	c.add	a5, a4
   178be: 18 e4        	c.sd	a4, 0x8(s0)
   178c0: 23 30 d4 01  	sd	t4, 0x0(s0)
   178c4: 3e e1        	c.sdsp	a5, 0x80(sp)
   178c6: b2 dc        	c.swsp	a2, 0x78(sp)
   178c8: 1d 47        	c.li	a4, 0x7
   178ca: 63 50 c7 3a  	bge	a4, a2, 0x17c6a <_vfiprintf_r+0xa76>
   178ce: 63 81 07 56  	beq	a5, zero, 0x17e30 <_vfiprintf_r+0xc3c>
   178d2: 90 18        	c.addi4spn	a2, sp, 0x70
   178d4: d2 85        	c.mv	a1, s4
   178d6: 56 85        	c.mv	a0, s5
   178d8: 1a f4        	c.sdsp	t1, 0x28(sp)
   178da: 46 f0        	c.sdsp	a7, 0x20(sp)
   178dc: 72 ec        	c.sdsp	t3, 0x18(sp)
   178de: ef f0 7f 84  	jal	ra, 0x17124 <__sprint_r.part.0>
   178e2: e3 1b 05 a6  	bne	a0, zero, 0x17358 <_vfiprintf_r+0x164>
   178e6: 62 6e        	c.ldsp	t3, 0x18(sp)
   178e8: e6 56        	c.lwsp	a3, 0x78(sp)
   178ea: 8a 67        	c.ldsp	a5, 0x80(sp)
   178ec: bb 84 c4 41  	subw	s1, s1, t3
   178f0: 22 73        	c.ldsp	t1, 0x28(sp)
   178f2: 82 78        	c.ldsp	a7, 0x20(sp)
   178f4: 4e 84        	c.mv	s0, s3
   178f6: 9b 85 16 00  	addiw	a1, a3, 0x1
   178fa: e3 52 90 b6  	bge	zero, s1, 0x1745e <_vfiprintf_r+0x26a>
   178fe: b7 7e 02 00  	lui	t4, 0x27
   17902: 93 8e 0e 7d  	addi	t4, t4, 0x7d0
   17906: 63 53 99 06  	bge	s2, s1, 0x1796c <_vfiprintf_r+0x778>
   1790a: 22 87        	c.mv	a4, s0
   1790c: 1d 4f        	c.li	t5, 0x7
   1790e: 26 84        	c.mv	s0, s1
   17910: 72 ec        	c.sdsp	t3, 0x18(sp)
   17912: 46 f0        	c.sdsp	a7, 0x20(sp)
   17914: 1a f4        	c.sdsp	t1, 0x28(sp)
   17916: da 84        	c.mv	s1, s6
   17918: 01 a8        	c.j	0x17928 <_vfiprintf_r+0x734>
   1791a: 9b 85 26 00  	addiw	a1, a3, 0x2
   1791e: 41 07        	c.addi	a4, 0x10
   17920: aa 86        	c.mv	a3, a0
   17922: 41 34        	c.addiw	s0, -0x10
   17924: 63 5e 89 02  	bge	s2, s0, 0x17960 <_vfiprintf_r+0x76c>
   17928: 1b 85 16 00  	addiw	a0, a3, 0x1
   1792c: c1 07        	c.addi	a5, 0x10
   1792e: 23 30 67 01  	sd	s6, 0x0(a4)
   17932: 23 34 27 01  	sd	s2, 0x8(a4)
   17936: 3e e1        	c.sdsp	a5, 0x80(sp)
   17938: aa dc        	c.swsp	a0, 0x78(sp)
   1793a: e3 50 af fe  	bge	t5, a0, 0x1791a <_vfiprintf_r+0x726>
   1793e: b9 c3        	c.beqz	a5, 0x17984 <_vfiprintf_r+0x790>
   17940: 90 18        	c.addi4spn	a2, sp, 0x70
   17942: d2 85        	c.mv	a1, s4
   17944: 56 85        	c.mv	a0, s5
   17946: ef f0 ef fd  	jal	ra, 0x17124 <__sprint_r.part.0>
   1794a: e3 17 05 a0  	bne	a0, zero, 0x17358 <_vfiprintf_r+0x164>
   1794e: e6 56        	c.lwsp	a3, 0x78(sp)
   17950: 41 34        	c.addiw	s0, -0x10
   17952: 8a 67        	c.ldsp	a5, 0x80(sp)
   17954: 4e 87        	c.mv	a4, s3
   17956: 9b 85 16 00  	addiw	a1, a3, 0x1
   1795a: 1d 4f        	c.li	t5, 0x7
   1795c: e3 46 89 fc  	blt	s2, s0, 0x17928 <_vfiprintf_r+0x734>
   17960: 62 6e        	c.ldsp	t3, 0x18(sp)
   17962: 82 78        	c.ldsp	a7, 0x20(sp)
   17964: 22 73        	c.ldsp	t1, 0x28(sp)
   17966: a6 8e        	c.mv	t4, s1
   17968: a2 84        	c.mv	s1, s0
   1796a: 3a 84        	c.mv	s0, a4
   1796c: a6 97        	c.add	a5, s1
   1796e: 23 30 d4 01  	sd	t4, 0x0(s0)
   17972: 04 e4        	c.sd	s1, 0x8(s0)
   17974: 3e e1        	c.sdsp	a5, 0x80(sp)
   17976: ae dc        	c.swsp	a1, 0x78(sp)
   17978: 1d 47        	c.li	a4, 0x7
   1797a: 63 49 b7 20  	blt	a4, a1, 0x17b8c <_vfiprintf_r+0x998>
   1797e: 41 04        	c.addi	s0, 0x10
   17980: 85 25        	c.addiw	a1, 0x1
   17982: f1 bc        	c.j	0x1745e <_vfiprintf_r+0x26a>
   17984: 85 45        	c.li	a1, 0x1
   17986: 81 46        	c.li	a3, 0x0
   17988: 4e 87        	c.mv	a4, s3
   1798a: 61 bf        	c.j	0x17922 <_vfiprintf_r+0x72e>
   1798c: 90 18        	c.addi4spn	a2, sp, 0x70
   1798e: d2 85        	c.mv	a1, s4
   17990: 56 85        	c.mv	a0, s5
   17992: ef f0 2f f9  	jal	ra, 0x17124 <__sprint_r.part.0>
   17996: e3 0d 05 b0  	beq	a0, zero, 0x174b0 <_vfiprintf_r+0x2bc>
   1799a: 7d ba        	c.j	0x17358 <_vfiprintf_r+0x164>
   1799c: 05 46        	c.li	a2, 0x1
   1799e: 81 46        	c.li	a3, 0x0
   179a0: ce 85        	c.mv	a1, s3
   179a2: f1 b5        	c.j	0x1786e <_vfiprintf_r+0x67a>
   179a4: 85 cb        	c.beqz	a5, 0x179d4 <_vfiprintf_r+0x7e0>
   179a6: 90 18        	c.addi4spn	a2, sp, 0x70
   179a8: d2 85        	c.mv	a1, s4
   179aa: 56 85        	c.mv	a0, s5
   179ac: 9a e8        	c.sdsp	t1, 0x50(sp)
   179ae: c6 e4        	c.sdsp	a7, 0x48(sp)
   179b0: 72 f4        	c.sdsp	t3, 0x28(sp)
   179b2: 16 f0        	c.sdsp	t0, 0x20(sp)
   179b4: 7e ec        	c.sdsp	t6, 0x18(sp)
   179b6: ef f0 ef f6  	jal	ra, 0x17124 <__sprint_r.part.0>
   179ba: e3 1f 05 98  	bne	a0, zero, 0x17358 <_vfiprintf_r+0x164>
   179be: e6 56        	c.lwsp	a3, 0x78(sp)
   179c0: 8a 67        	c.ldsp	a5, 0x80(sp)
   179c2: 46 63        	c.ldsp	t1, 0x50(sp)
   179c4: a6 68        	c.ldsp	a7, 0x48(sp)
   179c6: 22 7e        	c.ldsp	t3, 0x28(sp)
   179c8: 82 72        	c.ldsp	t0, 0x20(sp)
   179ca: e2 6f        	c.ldsp	t6, 0x18(sp)
   179cc: 4e 84        	c.mv	s0, s3
   179ce: 9b 85 16 00  	addiw	a1, a3, 0x1
   179d2: 2d bc        	c.j	0x1740c <_vfiprintf_r+0x218>
   179d4: 63 81 0f 2e  	beq	t6, zero, 0x17cb6 <_vfiprintf_r+0xac2>
   179d8: bc 10        	c.addi4spn	a5, sp, 0x68
   179da: be f9        	c.sdsp	a5, 0xf0(sp)
   179dc: 89 47        	c.li	a5, 0x2
   179de: be fd        	c.sdsp	a5, 0xf8(sp)
   179e0: 85 45        	c.li	a1, 0x1
   179e2: 4e 84        	c.mv	s0, s3
   179e4: ae 86        	c.mv	a3, a1
   179e6: 41 04        	c.addi	s0, 0x10
   179e8: 85 25        	c.addiw	a1, 0x1
   179ea: 95 b4        	c.j	0x1744e <_vfiprintf_r+0x25a>
   179ec: be 8c        	c.mv	s9, a5
   179ee: 89 47        	c.li	a5, 0x2
   179f0: e3 87 07 d6  	beq	a5, zero, 0x1775e <_vfiprintf_r+0x56a>
   179f4: c2 66        	c.ldsp	a3, 0x10(sp)
   179f6: 13 0e c1 0e  	addi	t3, sp, 0xec
   179fa: f2 8d        	c.mv	s11, t3
   179fc: 93 77 f7 00  	andi	a5, a4, 0xf
   17a00: b6 97        	c.add	a5, a3
   17a02: 83 c7 07 00  	lbu	a5, 0x0(a5)
   17a06: 11 83        	c.srli	a4, 0x4
   17a08: fd 1d        	c.addi	s11, -0x1
   17a0a: 23 80 fd 00  	sb	a5, 0x0(s11)
   17a0e: 7d f7        	c.bnez	a4, 0x179fc <_vfiprintf_r+0x808>
   17a10: 3b 0e be 41  	subw	t3, t3, s11
   17a14: 1b 83 04 00  	addiw	t1, s1, 0x0
   17a18: e3 d2 c4 b7  	bge	s1, t3, 0x1757c <_vfiprintf_r+0x388>
   17a1c: 1b 03 0e 00  	addiw	t1, t3, 0x0
   17a20: b1 be        	c.j	0x1757c <_vfiprintf_r+0x388>
   17a22: 41 45        	c.li	a0, 0x10
   17a24: 63 5b e5 44  	bge	a0, a4, 0x17e7a <_vfiprintf_r+0xc86>
   17a28: b7 7e 02 00  	lui	t4, 0x27
   17a2c: 93 8e 0e 7e  	addi	t4, t4, 0x7e0
   17a30: a6 e8        	c.sdsp	s1, 0x50(sp)
   17a32: a2 85        	c.mv	a1, s0
   17a34: 41 4f        	c.li	t5, 0x10
   17a36: 9d 43        	c.li	t2, 0x7
   17a38: 7e ec        	c.sdsp	t6, 0x18(sp)
   17a3a: 16 f0        	c.sdsp	t0, 0x20(sp)
   17a3c: 72 f4        	c.sdsp	t3, 0x28(sp)
   17a3e: c6 e4        	c.sdsp	a7, 0x48(sp)
   17a40: 9a ec        	c.sdsp	t1, 0x58(sp)
   17a42: 3a 84        	c.mv	s0, a4
   17a44: f6 84        	c.mv	s1, t4
   17a46: 11 a8        	c.j	0x17a5a <_vfiprintf_r+0x866>
   17a48: 1b 86 26 00  	addiw	a2, a3, 0x2
   17a4c: c1 05        	c.addi	a1, 0x10
   17a4e: aa 86        	c.mv	a3, a0
   17a50: 41 34        	c.addiw	s0, -0x10
   17a52: 63 50 8f 04  	bge	t5, s0, 0x17a92 <_vfiprintf_r+0x89e>
   17a56: 1b 86 16 00  	addiw	a2, a3, 0x1
   17a5a: c1 07        	c.addi	a5, 0x10
   17a5c: 84 e1        	c.sd	s1, 0x0(a1)
   17a5e: 23 b4 e5 01  	sd	t5, 0x8(a1)
   17a62: 3e e1        	c.sdsp	a5, 0x80(sp)
   17a64: 1b 05 06 00  	addiw	a0, a2, 0x0
   17a68: b2 dc        	c.swsp	a2, 0x78(sp)
   17a6a: e3 df a3 fc  	bge	t2, a0, 0x17a48 <_vfiprintf_r+0x854>
   17a6e: a9 cb        	c.beqz	a5, 0x17ac0 <_vfiprintf_r+0x8cc>
   17a70: 90 18        	c.addi4spn	a2, sp, 0x70
   17a72: d2 85        	c.mv	a1, s4
   17a74: 56 85        	c.mv	a0, s5
   17a76: ef f0 ef ea  	jal	ra, 0x17124 <__sprint_r.part.0>
   17a7a: e3 1f 05 8c  	bne	a0, zero, 0x17358 <_vfiprintf_r+0x164>
   17a7e: e6 56        	c.lwsp	a3, 0x78(sp)
   17a80: 41 4f        	c.li	t5, 0x10
   17a82: 41 34        	c.addiw	s0, -0x10
   17a84: 8a 67        	c.ldsp	a5, 0x80(sp)
   17a86: ce 85        	c.mv	a1, s3
   17a88: 1b 86 16 00  	addiw	a2, a3, 0x1
   17a8c: 9d 43        	c.li	t2, 0x7
   17a8e: e3 44 8f fc  	blt	t5, s0, 0x17a56 <_vfiprintf_r+0x862>
   17a92: a6 8e        	c.mv	t4, s1
   17a94: e2 6f        	c.ldsp	t6, 0x18(sp)
   17a96: 82 72        	c.ldsp	t0, 0x20(sp)
   17a98: 22 7e        	c.ldsp	t3, 0x28(sp)
   17a9a: a6 68        	c.ldsp	a7, 0x48(sp)
   17a9c: 66 63        	c.ldsp	t1, 0x58(sp)
   17a9e: c6 64        	c.ldsp	s1, 0x50(sp)
   17aa0: 22 87        	c.mv	a4, s0
   17aa2: 2e 84        	c.mv	s0, a1
   17aa4: ba 97        	c.add	a5, a4
   17aa6: 18 e4        	c.sd	a4, 0x8(s0)
   17aa8: 23 30 d4 01  	sd	t4, 0x0(s0)
   17aac: 3e e1        	c.sdsp	a5, 0x80(sp)
   17aae: b2 dc        	c.swsp	a2, 0x78(sp)
   17ab0: 1d 47        	c.li	a4, 0x7
   17ab2: 63 49 c7 10  	blt	a4, a2, 0x17bc4 <_vfiprintf_r+0x9d0>
   17ab6: 41 04        	c.addi	s0, 0x10
   17ab8: 9b 05 16 00  	addiw	a1, a2, 0x1
   17abc: b2 86        	c.mv	a3, a2
   17abe: 35 b2        	c.j	0x173ea <_vfiprintf_r+0x1f6>
   17ac0: 81 46        	c.li	a3, 0x0
   17ac2: 05 46        	c.li	a2, 0x1
   17ac4: ce 85        	c.mv	a1, s3
   17ac6: 69 b7        	c.j	0x17a50 <_vfiprintf_r+0x85c>
   17ac8: 82 dc        	c.swsp	zero, 0x78(sp)
   17aca: 13 f8 4c 00  	andi	a6, s9, 0x4
   17ace: 63 08 08 0a  	beq	a6, zero, 0x17b7e <_vfiprintf_r+0x98a>
   17ad2: bb 84 68 40  	subw	s1, a7, t1
   17ad6: 63 54 90 0a  	bge	zero, s1, 0x17b7e <_vfiprintf_r+0x98a>
   17ada: 4e 84        	c.mv	s0, s3
   17adc: 41 47        	c.li	a4, 0x10
   17ade: e6 56        	c.lwsp	a3, 0x78(sp)
   17ae0: 63 57 97 3a  	bge	a4, s1, 0x17e8e <_vfiprintf_r+0xc9a>
   17ae4: b7 7e 02 00  	lui	t4, 0x27
   17ae8: 93 8e 0e 7e  	addi	t4, t4, 0x7e0
   17aec: 22 86        	c.mv	a2, s0
   17aee: c1 4d        	c.li	s11, 0x10
   17af0: 26 84        	c.mv	s0, s1
   17af2: 9d 4c        	c.li	s9, 0x7
   17af4: 46 ec        	c.sdsp	a7, 0x18(sp)
   17af6: 1a f0        	c.sdsp	t1, 0x20(sp)
   17af8: f6 84        	c.mv	s1, t4
   17afa: 01 a8        	c.j	0x17b0a <_vfiprintf_r+0x916>
   17afc: 1b 87 26 00  	addiw	a4, a3, 0x2
   17b00: 41 06        	c.addi	a2, 0x10
   17b02: ae 86        	c.mv	a3, a1
   17b04: 41 34        	c.addiw	s0, -0x10
   17b06: 63 dc 8d 02  	bge	s11, s0, 0x17b3e <_vfiprintf_r+0x94a>
   17b0a: 9b 85 16 00  	addiw	a1, a3, 0x1
   17b0e: c1 07        	c.addi	a5, 0x10
   17b10: 04 e2        	c.sd	s1, 0x0(a2)
   17b12: 23 34 b6 01  	sd	s11, 0x8(a2)
   17b16: 3e e1        	c.sdsp	a5, 0x80(sp)
   17b18: ae dc        	c.swsp	a1, 0x78(sp)
   17b1a: e3 d1 bc fe  	bge	s9, a1, 0x17afc <_vfiprintf_r+0x908>
   17b1e: a1 cf        	c.beqz	a5, 0x17b76 <_vfiprintf_r+0x982>
   17b20: 90 18        	c.addi4spn	a2, sp, 0x70
   17b22: d2 85        	c.mv	a1, s4
   17b24: 56 85        	c.mv	a0, s5
   17b26: ef f0 ef df  	jal	ra, 0x17124 <__sprint_r.part.0>
   17b2a: e3 17 05 82  	bne	a0, zero, 0x17358 <_vfiprintf_r+0x164>
   17b2e: e6 56        	c.lwsp	a3, 0x78(sp)
   17b30: 41 34        	c.addiw	s0, -0x10
   17b32: 8a 67        	c.ldsp	a5, 0x80(sp)
   17b34: 4e 86        	c.mv	a2, s3
   17b36: 1b 87 16 00  	addiw	a4, a3, 0x1
   17b3a: e3 c8 8d fc  	blt	s11, s0, 0x17b0a <_vfiprintf_r+0x916>
   17b3e: e2 68        	c.ldsp	a7, 0x18(sp)
   17b40: 02 73        	c.ldsp	t1, 0x20(sp)
   17b42: a6 8e        	c.mv	t4, s1
   17b44: a2 84        	c.mv	s1, s0
   17b46: 32 84        	c.mv	s0, a2
   17b48: a6 97        	c.add	a5, s1
   17b4a: 23 30 d4 01  	sd	t4, 0x0(s0)
   17b4e: 04 e4        	c.sd	s1, 0x8(s0)
   17b50: 3e e1        	c.sdsp	a5, 0x80(sp)
   17b52: ba dc        	c.swsp	a4, 0x78(sp)
   17b54: 9d 46        	c.li	a3, 0x7
   17b56: e3 d5 e6 94  	bge	a3, a4, 0x174a0 <_vfiprintf_r+0x2ac>
   17b5a: 95 c3        	c.beqz	a5, 0x17b7e <_vfiprintf_r+0x98a>
   17b5c: 90 18        	c.addi4spn	a2, sp, 0x70
   17b5e: d2 85        	c.mv	a1, s4
   17b60: 56 85        	c.mv	a0, s5
   17b62: 1a f0        	c.sdsp	t1, 0x20(sp)
   17b64: 46 ec        	c.sdsp	a7, 0x18(sp)
   17b66: ef f0 ef db  	jal	ra, 0x17124 <__sprint_r.part.0>
   17b6a: 63 17 05 fe  	bne	a0, zero, 0x17358 <_vfiprintf_r+0x164>
   17b6e: 8a 67        	c.ldsp	a5, 0x80(sp)
   17b70: 02 73        	c.ldsp	t1, 0x20(sp)
   17b72: e2 68        	c.ldsp	a7, 0x18(sp)
   17b74: 35 b2        	c.j	0x174a0 <_vfiprintf_r+0x2ac>
   17b76: 05 47        	c.li	a4, 0x1
   17b78: 81 46        	c.li	a3, 0x0
   17b7a: 4e 86        	c.mv	a2, s3
   17b7c: 61 b7        	c.j	0x17b04 <_vfiprintf_r+0x910>
   17b7e: c6 87        	c.mv	a5, a7
   17b80: 63 d3 68 00  	bge	a7, t1, 0x17b86 <_vfiprintf_r+0x992>
   17b84: 9a 87        	c.mv	a5, t1
   17b86: 3b 8c 87 01  	addw	s8, a5, s8
   17b8a: 1d b2        	c.j	0x174b0 <_vfiprintf_r+0x2bc>
   17b8c: e3 8f 07 c8  	beq	a5, zero, 0x1782a <_vfiprintf_r+0x636>
   17b90: 90 18        	c.addi4spn	a2, sp, 0x70
   17b92: d2 85        	c.mv	a1, s4
   17b94: 56 85        	c.mv	a0, s5
   17b96: 1a f4        	c.sdsp	t1, 0x28(sp)
   17b98: 46 f0        	c.sdsp	a7, 0x20(sp)
   17b9a: 72 ec        	c.sdsp	t3, 0x18(sp)
   17b9c: ef f0 8f d8  	jal	ra, 0x17124 <__sprint_r.part.0>
   17ba0: 63 1c 05 fa  	bne	a0, zero, 0x17358 <_vfiprintf_r+0x164>
   17ba4: e6 55        	c.lwsp	a1, 0x78(sp)
   17ba6: 8a 67        	c.ldsp	a5, 0x80(sp)
   17ba8: 22 73        	c.ldsp	t1, 0x28(sp)
   17baa: 82 78        	c.ldsp	a7, 0x20(sp)
   17bac: 62 6e        	c.ldsp	t3, 0x18(sp)
   17bae: 4e 84        	c.mv	s0, s3
   17bb0: 85 25        	c.addiw	a1, 0x1
   17bb2: 75 b0        	c.j	0x1745e <_vfiprintf_r+0x26a>
   17bb4: 82 dc        	c.swsp	zero, 0x78(sp)
   17bb6: 4e 84        	c.mv	s0, s3
   17bb8: 6f f0 0f f2  	jal	zero, 0x172d8 <_vfiprintf_r+0xe4>
   17bbc: 85 45        	c.li	a1, 0x1
   17bbe: 81 46        	c.li	a3, 0x0
   17bc0: 4e 84        	c.mv	s0, s3
   17bc2: 71 b0        	c.j	0x1744e <_vfiprintf_r+0x25a>
   17bc4: 63 87 07 18  	beq	a5, zero, 0x17d52 <_vfiprintf_r+0xb5e>
   17bc8: 90 18        	c.addi4spn	a2, sp, 0x70
   17bca: d2 85        	c.mv	a1, s4
   17bcc: 56 85        	c.mv	a0, s5
   17bce: 9a e8        	c.sdsp	t1, 0x50(sp)
   17bd0: c6 e4        	c.sdsp	a7, 0x48(sp)
   17bd2: 72 f4        	c.sdsp	t3, 0x28(sp)
   17bd4: 16 f0        	c.sdsp	t0, 0x20(sp)
   17bd6: 7e ec        	c.sdsp	t6, 0x18(sp)
   17bd8: ef f0 cf d4  	jal	ra, 0x17124 <__sprint_r.part.0>
   17bdc: 63 1e 05 f6  	bne	a0, zero, 0x17358 <_vfiprintf_r+0x164>
   17be0: e6 56        	c.lwsp	a3, 0x78(sp)
   17be2: 8a 67        	c.ldsp	a5, 0x80(sp)
   17be4: 46 63        	c.ldsp	t1, 0x50(sp)
   17be6: a6 68        	c.ldsp	a7, 0x48(sp)
   17be8: 22 7e        	c.ldsp	t3, 0x28(sp)
   17bea: 82 72        	c.ldsp	t0, 0x20(sp)
   17bec: e2 6f        	c.ldsp	t6, 0x18(sp)
   17bee: 4e 84        	c.mv	s0, s3
   17bf0: 9b 85 16 00  	addiw	a1, a3, 0x1
   17bf4: 6f f0 6f ff  	jal	zero, 0x173ea <_vfiprintf_r+0x1f6>
   17bf8: 01 43        	c.li	t1, 0x0
   17bfa: 01 4e        	c.li	t3, 0x0
   17bfc: 93 0d c1 0e  	addi	s11, sp, 0xec
   17c00: b5 ba        	c.j	0x1757c <_vfiprintf_r+0x388>
   17c02: 13 0e c1 0e  	addi	t3, sp, 0xec
   17c06: 62 78        	c.ldsp	a6, 0x38(sp)
   17c08: 13 ff 0c 40  	andi	t5, s9, 0x400
   17c0c: 01 46        	c.li	a2, 0x0
   17c0e: 72 87        	c.mv	a4, t3
   17c10: a9 46        	c.li	a3, 0xa
   17c12: 25 43        	c.li	t1, 0x9
   17c14: 93 0f f0 0f  	addi	t6, zero, 0xff
   17c18: 39 a0        	c.j	0x17c26 <_vfiprintf_r+0xa32>
   17c1a: b3 d7 db 02  	divu	a5, s7, a3
   17c1e: 63 77 73 03  	bgeu	t1, s7, 0x17c4c <_vfiprintf_r+0xa58>
   17c22: be 8b        	c.mv	s7, a5
   17c24: 6e 87        	c.mv	a4, s11
   17c26: 93 0d f7 ff  	addi	s11, a4, -0x1
   17c2a: 05 26        	c.addiw	a2, 0x1
   17c2c: b3 f7 db 02  	remu	a5, s7, a3
   17c30: 9b 87 07 03  	addiw	a5, a5, 0x30
   17c34: a3 0f f7 fe  	sb	a5, -0x1(a4)
   17c38: e3 01 0f fe  	beq	t5, zero, 0x17c1a <_vfiprintf_r+0xa26>
   17c3c: 83 47 08 00  	lbu	a5, 0x0(a6)
   17c40: e3 9d c7 fc  	bne	a5, a2, 0x17c1a <_vfiprintf_r+0xa26>
   17c44: e3 8b f7 fd  	beq	a5, t6, 0x17c1a <_vfiprintf_r+0xa26>
   17c48: 63 61 73 13  	bltu	t1, s7, 0x17d6a <_vfiprintf_r+0xb76>
   17c4c: 42 fc        	c.sdsp	a6, 0x38(sp)
   17c4e: 3b 0e be 41  	subw	t3, t3, s11
   17c52: 1b 83 04 00  	addiw	t1, s1, 0x0
   17c56: 63 d4 c4 01  	bge	s1, t3, 0x17c5e <_vfiprintf_r+0xa6a>
   17c5a: 1b 03 0e 00  	addiw	t1, t3, 0x0
   17c5e: f6 8b        	c.mv	s7, t4
   17c60: 31 ba        	c.j	0x1757c <_vfiprintf_r+0x388>
   17c62: 01 43        	c.li	t1, 0x0
   17c64: 93 0d c1 0e  	addi	s11, sp, 0xec
   17c68: 11 ba        	c.j	0x1757c <_vfiprintf_r+0x388>
   17c6a: 41 04        	c.addi	s0, 0x10
   17c6c: 9b 05 16 00  	addiw	a1, a2, 0x1
   17c70: b2 86        	c.mv	a3, a2
   17c72: 6f f0 4f fe  	jal	zero, 0x17456 <_vfiprintf_r+0x262>
   17c76: 93 77 0e 04  	andi	a5, t3, 0x40
   17c7a: 83 ab 0b 00  	lw	s7, 0x0(s7)
   17c7e: 63 81 07 1a  	beq	a5, zero, 0x17e20 <_vfiprintf_r+0xc2c>
   17c82: c2 1b        	c.slli	s7, 0x30
   17c84: 93 db 0b 03  	srli	s7, s7, 0x30
   17c88: 75 b4        	c.j	0x17734 <_vfiprintf_r+0x540>
   17c8a: 13 f6 07 04  	andi	a2, a5, 0x40
   17c8e: 03 a7 0b 00  	lw	a4, 0x0(s7)
   17c92: 63 07 06 16  	beq	a2, zero, 0x17e00 <_vfiprintf_r+0xc0c>
   17c96: 42 17        	c.slli	a4, 0x30
   17c98: 41 93        	c.srli	a4, 0x30
   17c9a: 35 b4        	c.j	0x176c6 <_vfiprintf_r+0x4d2>
   17c9c: 83 47 0d 00  	lbu	a5, 0x0(s10)
   17ca0: 63 0c 07 e4  	beq	a4, zero, 0x172f8 <_vfiprintf_r+0x104>
   17ca4: 03 47 07 00  	lbu	a4, 0x0(a4)
   17ca8: 63 08 07 e4  	beq	a4, zero, 0x172f8 <_vfiprintf_r+0x104>
   17cac: 93 ec 0c 40  	ori	s9, s9, 0x400
   17cb0: 81 2c        	c.addiw	s9, 0x0
   17cb2: 6f f0 6f e4  	jal	zero, 0x172f8 <_vfiprintf_r+0x104>
   17cb6: 81 46        	c.li	a3, 0x0
   17cb8: 85 45        	c.li	a1, 0x1
   17cba: 4e 84        	c.mv	s0, s3
   17cbc: 6f f0 2f f9  	jal	zero, 0x1744e <_vfiprintf_r+0x25a>
   17cc0: 1b 03 0e 00  	addiw	t1, t3, 0x0
   17cc4: b6 8d        	c.mv	s11, a3
   17cc6: 5d b8        	c.j	0x1757c <_vfiprintf_r+0x388>
   17cc8: fd 54        	c.li	s1, -0x1
   17cca: 36 8d        	c.mv	s10, a3
   17ccc: 6f f0 0f e3  	jal	zero, 0x172fc <_vfiprintf_r+0x108>
   17cd0: 37 77 02 00  	lui	a4, 0x27
   17cd4: 13 07 07 3c  	addi	a4, a4, 0x3c0
   17cd8: 3a e8        	c.sdsp	a4, 0x10(sp)
   17cda: 13 f7 0c 02  	andi	a4, s9, 0x20
   17cde: 93 86 8b 00  	addi	a3, s7, 0x8
   17ce2: 31 ef        	c.bnez	a4, 0x17d3e <_vfiprintf_r+0xb4a>
   17ce4: 13 f7 0c 01  	andi	a4, s9, 0x10
   17ce8: 39 eb        	c.bnez	a4, 0x17d3e <_vfiprintf_r+0xb4a>
   17cea: 13 f6 0c 04  	andi	a2, s9, 0x40
   17cee: 03 a7 0b 00  	lw	a4, 0x0(s7)
   17cf2: 63 01 06 10  	beq	a2, zero, 0x17df4 <_vfiprintf_r+0xc00>
   17cf6: 42 17        	c.slli	a4, 0x30
   17cf8: 41 93        	c.srli	a4, 0x30
   17cfa: 13 f6 1c 00  	andi	a2, s9, 0x1
   17cfe: 01 ce        	c.beqz	a2, 0x17d16 <_vfiprintf_r+0xb22>
   17d00: 19 cb        	c.beqz	a4, 0x17d16 <_vfiprintf_r+0xb22>
   17d02: 13 e8 2c 00  	ori	a6, s9, 0x2
   17d06: 13 06 00 03  	addi	a2, zero, 0x30
   17d0a: 23 04 c1 06  	sb	a2, 0x68(sp)
   17d0e: a3 04 f1 06  	sb	a5, 0x69(sp)
   17d12: 9b 0c 08 00  	addiw	s9, a6, 0x0
   17d16: 13 f8 fc bf  	andi	a6, s9, -0x401
   17d1a: 9b 0c 08 00  	addiw	s9, a6, 0x0
   17d1e: b6 8b        	c.mv	s7, a3
   17d20: c1 b4        	c.j	0x177e0 <_vfiprintf_r+0x5ec>
   17d22: 66 8e        	c.mv	t3, s9
   17d24: ed ba        	c.j	0x1771e <_vfiprintf_r+0x52a>
   17d26: e6 87        	c.mv	a5, s9
   17d28: 61 b2        	c.j	0x176b0 <_vfiprintf_r+0x4bc>
   17d2a: 37 77 02 00  	lui	a4, 0x27
   17d2e: 13 07 87 3a  	addi	a4, a4, 0x3a8
   17d32: 3a e8        	c.sdsp	a4, 0x10(sp)
   17d34: 13 f7 0c 02  	andi	a4, s9, 0x20
   17d38: 93 86 8b 00  	addi	a3, s7, 0x8
   17d3c: 45 d7        	c.beqz	a4, 0x17ce4 <_vfiprintf_r+0xaf0>
   17d3e: 03 b7 0b 00  	ld	a4, 0x0(s7)
   17d42: 65 bf        	c.j	0x17cfa <_vfiprintf_r+0xb06>
   17d44: 6e 85        	c.mv	a0, s11
   17d46: ef c0 5f d2  	jal	ra, 0x14a6a <strlen>
   17d4a: e2 68        	c.ldsp	a7, 0x18(sp)
   17d4c: 1b 0e 05 00  	addiw	t3, a0, 0x0
   17d50: b1 b8        	c.j	0x175ac <_vfiprintf_r+0x3b8>
   17d52: 03 47 71 06  	lbu	a4, 0x67(sp)
   17d56: 65 c7        	c.beqz	a4, 0x17e3e <_vfiprintf_r+0xc4a>
   17d58: 93 07 71 06  	addi	a5, sp, 0x67
   17d5c: be f9        	c.sdsp	a5, 0xf0(sp)
   17d5e: 85 47        	c.li	a5, 0x1
   17d60: be fd        	c.sdsp	a5, 0xf8(sp)
   17d62: 85 45        	c.li	a1, 0x1
   17d64: 4e 84        	c.mv	s0, s3
   17d66: 6f f0 0f ea  	jal	zero, 0x17406 <_vfiprintf_r+0x212>
   17d6a: c2 77        	c.ldsp	a5, 0x30(sp)
   17d6c: 86 65        	c.ldsp	a1, 0x40(sp)
   17d6e: f2 e4        	c.sdsp	t3, 0x48(sp)
   17d70: b3 8d fd 40  	sub	s11, s11, a5
   17d74: 3e 86        	c.mv	a2, a5
   17d76: 6e 85        	c.mv	a0, s11
   17d78: 76 fc        	c.sdsp	t4, 0x38(sp)
   17d7a: 7a f4        	c.sdsp	t5, 0x28(sp)
   17d7c: 46 f0        	c.sdsp	a7, 0x20(sp)
   17d7e: 42 ec        	c.sdsp	a6, 0x18(sp)
   17d80: ef 00 90 21  	jal	ra, 0x18798 <strncpy>
   17d84: 62 68        	c.ldsp	a6, 0x18(sp)
   17d86: a9 47        	c.li	a5, 0xa
   17d88: b3 d7 fb 02  	divu	a5, s7, a5
   17d8c: 03 47 18 00  	lbu	a4, 0x1(a6)
   17d90: 82 78        	c.ldsp	a7, 0x20(sp)
   17d92: 22 7f        	c.ldsp	t5, 0x28(sp)
   17d94: 33 37 e0 00  	sltu	a4, zero, a4
   17d98: e2 7e        	c.ldsp	t4, 0x38(sp)
   17d9a: 26 6e        	c.ldsp	t3, 0x48(sp)
   17d9c: 3a 98        	c.add	a6, a4
   17d9e: 01 46        	c.li	a2, 0x0
   17da0: a9 46        	c.li	a3, 0xa
   17da2: 25 43        	c.li	t1, 0x9
   17da4: 93 0f f0 0f  	addi	t6, zero, 0xff
   17da8: ad bd        	c.j	0x17c22 <_vfiprintf_r+0xa2e>
   17daa: be 8c        	c.mv	s9, a5
   17dac: 81 47        	c.li	a5, 0x0
   17dae: e3 88 07 9a  	beq	a5, zero, 0x1775e <_vfiprintf_r+0x56a>
   17db2: 89 b1        	c.j	0x179f4 <_vfiprintf_r+0x800>
   17db4: ef b0 bf d2  	jal	ra, 0x13ade <__sinit>
   17db8: 6f f0 af c5  	jal	zero, 0x17212 <_vfiprintf_r+0x1e>
   17dbc: 93 ec 0c 20  	ori	s9, s9, 0x200
   17dc0: 83 47 1d 00  	lbu	a5, 0x1(s10)
   17dc4: 81 2c        	c.addiw	s9, 0x0
   17dc6: 05 0d        	c.addi	s10, 0x1
   17dc8: 6f f0 0f d3  	jal	zero, 0x172f8 <_vfiprintf_r+0x104>
   17dcc: 93 ec 0c 02  	ori	s9, s9, 0x20
   17dd0: 83 47 1d 00  	lbu	a5, 0x1(s10)
   17dd4: 81 2c        	c.addiw	s9, 0x0
   17dd6: 05 0d        	c.addi	s10, 0x1
   17dd8: 6f f0 0f d2  	jal	zero, 0x172f8 <_vfiprintf_r+0x104>
   17ddc: 99 47        	c.li	a5, 0x6
   17dde: 1b 8e 04 00  	addiw	t3, s1, 0x0
   17de2: 63 ec 97 04  	bltu	a5, s1, 0x17e3a <_vfiprintf_r+0xc46>
   17de6: b7 7d 02 00  	lui	s11, 0x27
   17dea: 72 83        	c.mv	t1, t3
   17dec: 93 8d 8d 3d  	addi	s11, s11, 0x3d8
   17df0: 6f f0 cf dd  	jal	zero, 0x173cc <_vfiprintf_r+0x1d8>
   17df4: 13 f6 0c 20  	andi	a2, s9, 0x200
   17df8: 3d c6        	c.beqz	a2, 0x17e66 <_vfiprintf_r+0xc72>
   17dfa: 13 77 f7 0f  	andi	a4, a4, 0xff
   17dfe: f5 bd        	c.j	0x17cfa <_vfiprintf_r+0xb06>
   17e00: 13 f6 07 20  	andi	a2, a5, 0x200
   17e04: 31 ce        	c.beqz	a2, 0x17e60 <_vfiprintf_r+0xc6c>
   17e06: 13 77 f7 0f  	andi	a4, a4, 0xff
   17e0a: 75 b8        	c.j	0x176c6 <_vfiprintf_r+0x4d2>
   17e0c: 93 f7 0c 20  	andi	a5, s9, 0x200
   17e10: a9 c7        	c.beqz	a5, 0x17e5a <_vfiprintf_r+0xc66>
   17e12: 9b 9b 8b 01  	slliw	s7, s7, 0x18
   17e16: 9b db 8b 41  	sraiw	s7, s7, 0x18
   17e1a: de 87        	c.mv	a5, s7
   17e1c: 6f f0 ef eb  	jal	zero, 0x174da <_vfiprintf_r+0x2e6>
   17e20: 93 77 0e 20  	andi	a5, t3, 0x200
   17e24: 9d c7        	c.beqz	a5, 0x17e52 <_vfiprintf_r+0xc5e>
   17e26: 93 fb fb 0f  	andi	s7, s7, 0xff
   17e2a: 29 b2        	c.j	0x17734 <_vfiprintf_r+0x540>
   17e2c: 01 47        	c.li	a4, 0x0
   17e2e: d9 b6        	c.j	0x179f4 <_vfiprintf_r+0x800>
   17e30: 85 45        	c.li	a1, 0x1
   17e32: 81 46        	c.li	a3, 0x0
   17e34: 4e 84        	c.mv	s0, s3
   17e36: 6f f0 0f e2  	jal	zero, 0x17456 <_vfiprintf_r+0x262>
   17e3a: 19 4e        	c.li	t3, 0x6
   17e3c: 6d b7        	c.j	0x17de6 <_vfiprintf_r+0xbf2>
   17e3e: 81 46        	c.li	a3, 0x0
   17e40: 85 45        	c.li	a1, 0x1
   17e42: 4e 84        	c.mv	s0, s3
   17e44: 6f f0 8f dc  	jal	zero, 0x1740c <_vfiprintf_r+0x218>
   17e48: 23 10 87 01  	sh	s8, 0x0(a4)
   17e4c: a1 0b        	c.addi	s7, 0x8
   17e4e: 6f f0 af c3  	jal	zero, 0x17288 <_vfiprintf_r+0x94>
   17e52: 82 1b        	c.slli	s7, 0x20
   17e54: 93 db 0b 02  	srli	s7, s7, 0x20
   17e58: f1 b8        	c.j	0x17734 <_vfiprintf_r+0x540>
   17e5a: de 87        	c.mv	a5, s7
   17e5c: 6f f0 ef e7  	jal	zero, 0x174da <_vfiprintf_r+0x2e6>
   17e60: 02 17        	c.slli	a4, 0x20
   17e62: 01 93        	c.srli	a4, 0x20
   17e64: 8d b0        	c.j	0x176c6 <_vfiprintf_r+0x4d2>
   17e66: 02 17        	c.slli	a4, 0x20
   17e68: 01 93        	c.srli	a4, 0x20
   17e6a: 41 bd        	c.j	0x17cfa <_vfiprintf_r+0xb06>
   17e6c: 90 18        	c.addi4spn	a2, sp, 0x70
   17e6e: d2 85        	c.mv	a1, s4
   17e70: 56 85        	c.mv	a0, s5
   17e72: ef f0 2f ab  	jal	ra, 0x17124 <__sprint_r.part.0>
   17e76: 6f f0 2f ce  	jal	zero, 0x17358 <_vfiprintf_r+0x164>
   17e7a: b7 7e 02 00  	lui	t4, 0x27
   17e7e: 93 8e 0e 7e  	addi	t4, t4, 0x7e0
   17e82: 0d b1        	c.j	0x17aa4 <_vfiprintf_r+0x8b0>
   17e84: f6 8b        	c.mv	s7, t4
   17e86: 93 07 00 03  	addi	a5, zero, 0x30
   17e8a: 6f f0 ef ed  	jal	zero, 0x17568 <_vfiprintf_r+0x374>
   17e8e: b7 7e 02 00  	lui	t4, 0x27
   17e92: 1b 87 16 00  	addiw	a4, a3, 0x1
   17e96: 93 8e 0e 7e  	addi	t4, t4, 0x7e0
   17e9a: 7d b1        	c.j	0x17b48 <_vfiprintf_r+0x954>
   17e9c: b7 7e 02 00  	lui	t4, 0x27
   17ea0: 2e 86        	c.mv	a2, a1
   17ea2: 93 8e 0e 7d  	addi	t4, t4, 0x7d0
   17ea6: 19 bc        	c.j	0x178bc <_vfiprintf_r+0x6c8>
   17ea8: 7d 5c        	c.li	s8, -0x1
   17eaa: 6f f0 8f cc  	jal	zero, 0x17372 <_vfiprintf_r+0x17e>
   17eae: 23 20 87 01  	sw	s8, 0x0(a4)
   17eb2: a1 0b        	c.addi	s7, 0x8
   17eb4: 6f f0 4f bd  	jal	zero, 0x17288 <_vfiprintf_r+0x94>
   17eb8: 83 a7 0b 00  	lw	a5, 0x0(s7)
   17ebc: a1 0b        	c.addi	s7, 0x8
   17ebe: 9b 84 07 00  	addiw	s1, a5, 0x0
   17ec2: 63 d3 07 00  	bge	a5, zero, 0x17ec8 <_vfiprintf_r+0xcd4>
   17ec6: fd 54        	c.li	s1, -0x1
   17ec8: 83 47 1d 00  	lbu	a5, 0x1(s10)
   17ecc: 36 8d        	c.mv	s10, a3
   17ece: 6f f0 af c2  	jal	zero, 0x172f8 <_vfiprintf_r+0x104>

0000000000017ed2 <vfiprintf>:
   17ed2: aa 87        	c.mv	a5, a0
   17ed4: 03 b5 01 20  	ld	a0, 0x200(gp)
   17ed8: b2 86        	c.mv	a3, a2
   17eda: 2e 86        	c.mv	a2, a1
   17edc: be 85        	c.mv	a1, a5
   17ede: 6f f0 6f b1  	jal	zero, 0x171f4 <_vfiprintf_r>

0000000000017ee2 <__sbprintf>:
   17ee2: 13 01 01 b3  	addi	sp, sp, -0x4d0
   17ee6: 03 d7 25 01  	lhu	a4, 0x12(a1)
   17eea: 83 d7 05 01  	lhu	a5, 0x10(a1)
   17eee: 23 30 81 4c  	sd	s0, 0x4c0(sp)
   17ef2: 2e 84        	c.mv	s0, a1
   17ef4: c1 65        	c.lui	a1, 0x10
   17ef6: f5 35        	c.addiw	a1, -0x3
   17ef8: 03 2e c4 0a  	lw	t3, 0xac(s0)
   17efc: 03 33 04 03  	ld	t1, 0x30(s0)
   17f00: 83 38 04 04  	ld	a7, 0x40(s0)
   17f04: 1b 17 07 01  	slliw	a4, a4, 0x10
   17f08: ed 8f        	c.and	a5, a1
   17f0a: d9 8f        	c.or	a5, a4
   17f0c: 13 08 00 40  	addi	a6, zero, 0x400
   17f10: 3e c8        	c.swsp	a5, 0x10(sp)
   17f12: 8a 85        	c.mv	a1, sp
   17f14: 1c 19        	c.addi4spn	a5, sp, 0xb0
   17f16: 23 3c 91 4a  	sd	s1, 0x4b8(sp)
   17f1a: 23 38 21 4b  	sd	s2, 0x4b0(sp)
   17f1e: 23 34 11 4c  	sd	ra, 0x4c8(sp)
   17f22: 2a 89        	c.mv	s2, a0
   17f24: 72 d7        	c.swsp	t3, 0xac(sp)
   17f26: 1a f8        	c.sdsp	t1, 0x30(sp)
   17f28: c6 e0        	c.sdsp	a7, 0x40(sp)
   17f2a: 3e e0        	c.sdsp	a5, 0x0(sp)
   17f2c: 3e ec        	c.sdsp	a5, 0x18(sp)
   17f2e: 42 c6        	c.swsp	a6, 0xc(sp)
   17f30: 42 d0        	c.swsp	a6, 0x20(sp)
   17f32: 02 d4        	c.swsp	zero, 0x28(sp)
   17f34: ef f0 0f ac  	jal	ra, 0x171f4 <_vfiprintf_r>
   17f38: aa 84        	c.mv	s1, a0
   17f3a: 63 59 05 02  	bge	a0, zero, 0x17f6c <__sbprintf+0x8a>
   17f3e: 83 57 01 01  	lhu	a5, 0x10(sp)
   17f42: 93 f7 07 04  	andi	a5, a5, 0x40
   17f46: 99 c7        	c.beqz	a5, 0x17f54 <__sbprintf+0x72>
   17f48: 83 57 04 01  	lhu	a5, 0x10(s0)
   17f4c: 93 e7 07 04  	ori	a5, a5, 0x40
   17f50: 23 18 f4 00  	sh	a5, 0x10(s0)
   17f54: 83 30 81 4c  	ld	ra, 0x4c8(sp)
   17f58: 03 34 01 4c  	ld	s0, 0x4c0(sp)
   17f5c: 03 39 01 4b  	ld	s2, 0x4b0(sp)
   17f60: 26 85        	c.mv	a0, s1
   17f62: 83 34 81 4b  	ld	s1, 0x4b8(sp)
   17f66: 13 01 01 4d  	addi	sp, sp, 0x4d0
   17f6a: 82 80        	c.jr	ra
   17f6c: 8a 85        	c.mv	a1, sp
   17f6e: 4a 85        	c.mv	a0, s2
   17f70: ef b0 df 86  	jal	ra, 0x137dc <_fflush_r>
   17f74: 69 d5        	c.beqz	a0, 0x17f3e <__sbprintf+0x5c>
   17f76: fd 54        	c.li	s1, -0x1
   17f78: d9 b7        	c.j	0x17f3e <__sbprintf+0x5c>

0000000000017f7a <__sflags>:
   17f7a: 83 c7 05 00  	lbu	a5, 0x0(a1)
   17f7e: 13 07 20 07  	addi	a4, zero, 0x72
   17f82: 63 82 e7 06  	beq	a5, a4, 0x17fe6 <__sflags+0x6c>
   17f86: 13 07 70 07  	addi	a4, zero, 0x77
   17f8a: 63 8a e7 00  	beq	a5, a4, 0x17f9e <__sflags+0x24>
   17f8e: 13 07 10 06  	addi	a4, zero, 0x61
   17f92: 63 8e e7 04  	beq	a5, a4, 0x17fee <__sflags+0x74>
   17f96: d9 47        	c.li	a5, 0x16
   17f98: 1c c1        	c.sw	a5, 0x0(a0)
   17f9a: 01 45        	c.li	a0, 0x0
   17f9c: 82 80        	c.jr	ra
   17f9e: 13 03 00 60  	addi	t1, zero, 0x600
   17fa2: 05 47        	c.li	a4, 0x1
   17fa4: 21 45        	c.li	a0, 0x8
   17fa6: 83 c7 15 00  	lbu	a5, 0x1(a1)
   17faa: 85 68        	c.lui	a7, 0x1
   17fac: 85 05        	c.addi	a1, 0x1
   17fae: 93 06 b0 02  	addi	a3, zero, 0x2b
   17fb2: 13 08 80 07  	addi	a6, zero, 0x78
   17fb6: 93 88 08 80  	addi	a7, a7, -0x800
   17fba: 99 cb        	c.beqz	a5, 0x17fd0 <__sflags+0x56>
   17fbc: 63 8e d7 00  	beq	a5, a3, 0x17fd8 <__sflags+0x5e>
   17fc0: 63 94 07 01  	bne	a5, a6, 0x17fc8 <__sflags+0x4e>
   17fc4: 33 67 17 01  	or	a4, a4, a7
   17fc8: 83 c7 15 00  	lbu	a5, 0x1(a1)
   17fcc: 85 05        	c.addi	a1, 0x1
   17fce: fd f7        	c.bnez	a5, 0x17fbc <__sflags+0x42>
   17fd0: b3 67 e3 00  	or	a5, t1, a4
   17fd4: 1c c2        	c.sw	a5, 0x0(a2)
   17fd6: 82 80        	c.jr	ra
   17fd8: 0d 99        	c.andi	a0, -0x1d
   17fda: 71 9b        	c.andi	a4, -0x4
   17fdc: 13 65 05 01  	ori	a0, a0, 0x10
   17fe0: 13 67 27 00  	ori	a4, a4, 0x2
   17fe4: d5 b7        	c.j	0x17fc8 <__sflags+0x4e>
   17fe6: 01 43        	c.li	t1, 0x0
   17fe8: 01 47        	c.li	a4, 0x0
   17fea: 11 45        	c.li	a0, 0x4
   17fec: 6d bf        	c.j	0x17fa6 <__sflags+0x2c>
   17fee: 13 03 80 20  	addi	t1, zero, 0x208
   17ff2: 05 47        	c.li	a4, 0x1
   17ff4: 13 05 80 10  	addi	a0, zero, 0x108
   17ff8: 7d b7        	c.j	0x17fa6 <__sflags+0x2c>

0000000000017ffa <__sfvwrite_r>:
   17ffa: 1c 6a        	c.ld	a5, 0x10(a2)
   17ffc: 63 8b 07 1c  	beq	a5, zero, 0x181d2 <__sfvwrite_r+0x1d8>
   18000: 03 97 05 01  	lh	a4, 0x10(a1)
   18004: 1d 71        	c.addi16sp	sp, -0x60
   18006: a2 e8        	c.sdsp	s0, 0x50(sp)
   18008: 56 f4        	c.sdsp	s5, 0x28(sp)
   1800a: 5e ec        	c.sdsp	s7, 0x18(sp)
   1800c: 86 ec        	c.sdsp	ra, 0x58(sp)
   1800e: 93 77 87 00  	andi	a5, a4, 0x8
   18012: b2 8b        	c.mv	s7, a2
   18014: aa 8a        	c.mv	s5, a0
   18016: 2e 84        	c.mv	s0, a1
   18018: b5 c7        	c.beqz	a5, 0x18084 <__sfvwrite_r+0x8a>
   1801a: 9c 6d        	c.ld	a5, 0x18(a1)
   1801c: a5 c7        	c.beqz	a5, 0x18084 <__sfvwrite_r+0x8a>
   1801e: a6 e4        	c.sdsp	s1, 0x48(sp)
   18020: ca e0        	c.sdsp	s2, 0x40(sp)
   18022: 4e fc        	c.sdsp	s3, 0x38(sp)
   18024: 52 f8        	c.sdsp	s4, 0x30(sp)
   18026: 93 77 27 00  	andi	a5, a4, 0x2
   1802a: 83 b4 0b 00  	ld	s1, 0x0(s7)
   1802e: a5 cf        	c.beqz	a5, 0x180a6 <__sfvwrite_r+0xac>
   18030: 3c 60        	c.ld	a5, 0x40(s0)
   18032: 0c 78        	c.ld	a1, 0x30(s0)
   18034: 37 0a 00 80  	lui	s4, 0x80000
   18038: 81 49        	c.li	s3, 0x0
   1803a: 01 49        	c.li	s2, 0x0
   1803c: 13 4a 0a c0  	xori	s4, s4, -0x400
   18040: 4e 86        	c.mv	a2, s3
   18042: 56 85        	c.mv	a0, s5
   18044: 63 0a 09 02  	beq	s2, zero, 0x18078 <__sfvwrite_r+0x7e>
   18048: ca 86        	c.mv	a3, s2
   1804a: 63 73 2a 01  	bgeu	s4, s2, 0x18050 <__sfvwrite_r+0x56>
   1804e: d2 86        	c.mv	a3, s4
   18050: 81 26        	c.addiw	a3, 0x0
   18052: 82 97        	c.jalr	a5
   18054: 63 58 a0 2e  	bge	zero, a0, 0x18344 <__sfvwrite_r+0x34a>
   18058: 83 b7 0b 01  	ld	a5, 0x10(s7)
   1805c: aa 99        	c.add	s3, a0
   1805e: 33 09 a9 40  	sub	s2, s2, a0
   18062: 89 8f        	c.sub	a5, a0
   18064: 23 b8 fb 00  	sd	a5, 0x10(s7)
   18068: 63 81 07 12  	beq	a5, zero, 0x1818a <__sfvwrite_r+0x190>
   1806c: 3c 60        	c.ld	a5, 0x40(s0)
   1806e: 0c 78        	c.ld	a1, 0x30(s0)
   18070: 4e 86        	c.mv	a2, s3
   18072: 56 85        	c.mv	a0, s5
   18074: e3 1a 09 fc  	bne	s2, zero, 0x18048 <__sfvwrite_r+0x4e>
   18078: 83 b9 04 00  	ld	s3, 0x0(s1)
   1807c: 03 b9 84 00  	ld	s2, 0x8(s1)
   18080: c1 04        	c.addi	s1, 0x10
   18082: 7d bf        	c.j	0x18040 <__sfvwrite_r+0x46>
   18084: a2 85        	c.mv	a1, s0
   18086: 56 85        	c.mv	a0, s5
   18088: ef 00 20 47  	jal	ra, 0x184fa <__swsetup_r>
   1808c: 63 1c 05 12  	bne	a0, zero, 0x181c4 <__sfvwrite_r+0x1ca>
   18090: 03 17 04 01  	lh	a4, 0x10(s0)
   18094: a6 e4        	c.sdsp	s1, 0x48(sp)
   18096: ca e0        	c.sdsp	s2, 0x40(sp)
   18098: 4e fc        	c.sdsp	s3, 0x38(sp)
   1809a: 52 f8        	c.sdsp	s4, 0x30(sp)
   1809c: 93 77 27 00  	andi	a5, a4, 0x2
   180a0: 83 b4 0b 00  	ld	s1, 0x0(s7)
   180a4: d1 f7        	c.bnez	a5, 0x18030 <__sfvwrite_r+0x36>
   180a6: 5a f0        	c.sdsp	s6, 0x20(sp)
   180a8: 62 e8        	c.sdsp	s8, 0x10(sp)
   180aa: 66 e4        	c.sdsp	s9, 0x8(sp)
   180ac: 93 77 17 00  	andi	a5, a4, 0x1
   180b0: ad eb        	c.bnez	a5, 0x18122 <__sfvwrite_r+0x128>
   180b2: 03 2a c4 00  	lw	s4, 0xc(s0)
   180b6: 1c 60        	c.ld	a5, 0x0(s0)
   180b8: 37 0b 00 80  	lui	s6, 0x80000
   180bc: 01 4c        	c.li	s8, 0x0
   180be: 01 49        	c.li	s2, 0x0
   180c0: 13 4b fb ff  	xori	s6, s6, -0x1
   180c4: 3e 85        	c.mv	a0, a5
   180c6: 63 08 09 04  	beq	s2, zero, 0x18116 <__sfvwrite_r+0x11c>
   180ca: 93 76 07 20  	andi	a3, a4, 0x200
   180ce: 63 86 06 14  	beq	a3, zero, 0x1821a <__sfvwrite_r+0x220>
   180d2: 63 75 49 1b  	bgeu	s2, s4, 0x1827c <__sfvwrite_r+0x282>
   180d6: ca 8c        	c.mv	s9, s2
   180d8: 4a 8a        	c.mv	s4, s2
   180da: 52 86        	c.mv	a2, s4
   180dc: e2 85        	c.mv	a1, s8
   180de: ef 00 70 0b  	jal	ra, 0x18994 <memmove>
   180e2: 58 44        	c.lw	a4, 0xc(s0)
   180e4: 1c 60        	c.ld	a5, 0x0(s0)
   180e6: ca 89        	c.mv	s3, s2
   180e8: 3b 07 97 41  	subw	a4, a4, s9
   180ec: 3e 9a        	c.add	s4, a5
   180ee: 58 c4        	c.sw	a4, 0xc(s0)
   180f0: 23 30 44 01  	sd	s4, 0x0(s0)
   180f4: 01 49        	c.li	s2, 0x0
   180f6: 83 b7 0b 01  	ld	a5, 0x10(s7)
   180fa: 4e 9c        	c.add	s8, s3
   180fc: b3 87 37 41  	sub	a5, a5, s3
   18100: 23 b8 fb 00  	sd	a5, 0x10(s7)
   18104: c1 c3        	c.beqz	a5, 0x18184 <__sfvwrite_r+0x18a>
   18106: 1c 60        	c.ld	a5, 0x0(s0)
   18108: 03 17 04 01  	lh	a4, 0x10(s0)
   1810c: 03 2a c4 00  	lw	s4, 0xc(s0)
   18110: 3e 85        	c.mv	a0, a5
   18112: e3 1c 09 fa  	bne	s2, zero, 0x180ca <__sfvwrite_r+0xd0>
   18116: 03 bc 04 00  	ld	s8, 0x0(s1)
   1811a: 03 b9 84 00  	ld	s2, 0x8(s1)
   1811e: c1 04        	c.addi	s1, 0x10
   18120: 55 b7        	c.j	0x180c4 <__sfvwrite_r+0xca>
   18122: 01 4b        	c.li	s6, 0x0
   18124: 01 45        	c.li	a0, 0x0
   18126: 81 4c        	c.li	s9, 0x0
   18128: 01 4c        	c.li	s8, 0x0
   1812a: 63 06 0c 0a  	beq	s8, zero, 0x181d6 <__sfvwrite_r+0x1dc>
   1812e: 45 cd        	c.beqz	a0, 0x181e6 <__sfvwrite_r+0x1ec>
   18130: 5a 8a        	c.mv	s4, s6
   18132: 63 73 6c 01  	bgeu	s8, s6, 0x18138 <__sfvwrite_r+0x13e>
   18136: 62 8a        	c.mv	s4, s8
   18138: 08 60        	c.ld	a0, 0x0(s0)
   1813a: 18 6c        	c.ld	a4, 0x18(s0)
   1813c: 5c 44        	c.lw	a5, 0xc(s0)
   1813e: 14 50        	c.lw	a3, 0x20(s0)
   18140: 52 89        	c.mv	s2, s4
   18142: 63 76 a7 00  	bgeu	a4, a0, 0x1814e <__sfvwrite_r+0x154>
   18146: bb 89 d7 00  	addw	s3, a5, a3
   1814a: 63 c9 49 0b  	blt	s3, s4, 0x181fc <__sfvwrite_r+0x202>
   1814e: 63 43 da 1a  	blt	s4, a3, 0x182f4 <__sfvwrite_r+0x2fa>
   18152: 3c 60        	c.ld	a5, 0x40(s0)
   18154: 0c 78        	c.ld	a1, 0x30(s0)
   18156: 66 86        	c.mv	a2, s9
   18158: 56 85        	c.mv	a0, s5
   1815a: 82 97        	c.jalr	a5
   1815c: 2a 89        	c.mv	s2, a0
   1815e: 63 56 a0 04  	bge	zero, a0, 0x181aa <__sfvwrite_r+0x1b0>
   18162: 9b 07 05 00  	addiw	a5, a0, 0x0
   18166: 3b 0b fb 40  	subw	s6, s6, a5
   1816a: 05 45        	c.li	a0, 0x1
   1816c: 63 0a 0b 02  	beq	s6, zero, 0x181a0 <__sfvwrite_r+0x1a6>
   18170: 83 b7 0b 01  	ld	a5, 0x10(s7)
   18174: ca 9c        	c.add	s9, s2
   18176: 33 0c 2c 41  	sub	s8, s8, s2
   1817a: b3 87 27 41  	sub	a5, a5, s2
   1817e: 23 b8 fb 00  	sd	a5, 0x10(s7)
   18182: c5 f7        	c.bnez	a5, 0x1812a <__sfvwrite_r+0x130>
   18184: 02 7b        	c.ldsp	s6, 0x20(sp)
   18186: 42 6c        	c.ldsp	s8, 0x10(sp)
   18188: a2 6c        	c.ldsp	s9, 0x8(sp)
   1818a: e6 60        	c.ldsp	ra, 0x58(sp)
   1818c: 46 64        	c.ldsp	s0, 0x50(sp)
   1818e: a6 64        	c.ldsp	s1, 0x48(sp)
   18190: 06 69        	c.ldsp	s2, 0x40(sp)
   18192: e2 79        	c.ldsp	s3, 0x38(sp)
   18194: 42 7a        	c.ldsp	s4, 0x30(sp)
   18196: a2 7a        	c.ldsp	s5, 0x28(sp)
   18198: e2 6b        	c.ldsp	s7, 0x18(sp)
   1819a: 01 45        	c.li	a0, 0x0
   1819c: 25 61        	c.addi16sp	sp, 0x60
   1819e: 82 80        	c.jr	ra
   181a0: a2 85        	c.mv	a1, s0
   181a2: 56 85        	c.mv	a0, s5
   181a4: ef b0 8f e3  	jal	ra, 0x137dc <_fflush_r>
   181a8: 61 d5        	c.beqz	a0, 0x18170 <__sfvwrite_r+0x176>
   181aa: 83 17 04 01  	lh	a5, 0x10(s0)
   181ae: 02 7b        	c.ldsp	s6, 0x20(sp)
   181b0: 42 6c        	c.ldsp	s8, 0x10(sp)
   181b2: a2 6c        	c.ldsp	s9, 0x8(sp)
   181b4: a6 64        	c.ldsp	s1, 0x48(sp)
   181b6: 06 69        	c.ldsp	s2, 0x40(sp)
   181b8: e2 79        	c.ldsp	s3, 0x38(sp)
   181ba: 42 7a        	c.ldsp	s4, 0x30(sp)
   181bc: 93 e7 07 04  	ori	a5, a5, 0x40
   181c0: 23 18 f4 00  	sh	a5, 0x10(s0)
   181c4: e6 60        	c.ldsp	ra, 0x58(sp)
   181c6: 46 64        	c.ldsp	s0, 0x50(sp)
   181c8: a2 7a        	c.ldsp	s5, 0x28(sp)
   181ca: e2 6b        	c.ldsp	s7, 0x18(sp)
   181cc: 7d 55        	c.li	a0, -0x1
   181ce: 25 61        	c.addi16sp	sp, 0x60
   181d0: 82 80        	c.jr	ra
   181d2: 01 45        	c.li	a0, 0x0
   181d4: 82 80        	c.jr	ra
   181d6: 03 bc 84 00  	ld	s8, 0x8(s1)
   181da: a6 87        	c.mv	a5, s1
   181dc: c1 04        	c.addi	s1, 0x10
   181de: e3 0c 0c fe  	beq	s8, zero, 0x181d6 <__sfvwrite_r+0x1dc>
   181e2: 83 bc 07 00  	ld	s9, 0x0(a5)
   181e6: 62 86        	c.mv	a2, s8
   181e8: a9 45        	c.li	a1, 0xa
   181ea: 66 85        	c.mv	a0, s9
   181ec: ef 00 e0 4f  	jal	ra, 0x186ea <memchr>
   181f0: 63 07 05 14  	beq	a0, zero, 0x1833e <__sfvwrite_r+0x344>
   181f4: 05 05        	c.addi	a0, 0x1
   181f6: 3b 0b 95 41  	subw	s6, a0, s9
   181fa: 1d bf        	c.j	0x18130 <__sfvwrite_r+0x136>
   181fc: e6 85        	c.mv	a1, s9
   181fe: 4e 86        	c.mv	a2, s3
   18200: ef 00 40 79  	jal	ra, 0x18994 <memmove>
   18204: 1c 60        	c.ld	a5, 0x0(s0)
   18206: a2 85        	c.mv	a1, s0
   18208: 56 85        	c.mv	a0, s5
   1820a: ce 97        	c.add	a5, s3
   1820c: 1c e0        	c.sd	a5, 0x0(s0)
   1820e: ef b0 ef dc  	jal	ra, 0x137dc <_fflush_r>
   18212: 41 fd        	c.bnez	a0, 0x181aa <__sfvwrite_r+0x1b0>
   18214: ce 87        	c.mv	a5, s3
   18216: 4e 89        	c.mv	s2, s3
   18218: b9 b7        	c.j	0x18166 <__sfvwrite_r+0x16c>
   1821a: 18 6c        	c.ld	a4, 0x18(s0)
   1821c: 63 67 f7 02  	bltu	a4, a5, 0x1824a <__sfvwrite_r+0x250>
   18220: 18 50        	c.lw	a4, 0x20(s0)
   18222: 63 64 e9 02  	bltu	s2, a4, 0x1824a <__sfvwrite_r+0x250>
   18226: ca 86        	c.mv	a3, s2
   18228: 63 73 2b 01  	bgeu	s6, s2, 0x1822e <__sfvwrite_r+0x234>
   1822c: da 86        	c.mv	a3, s6
   1822e: 3b e7 e6 02  	remw	a4, a3, a4
   18232: 3c 60        	c.ld	a5, 0x40(s0)
   18234: 0c 78        	c.ld	a1, 0x30(s0)
   18236: 62 86        	c.mv	a2, s8
   18238: 56 85        	c.mv	a0, s5
   1823a: 99 9e        	c.subw	a3, a4
   1823c: 82 97        	c.jalr	a5
   1823e: aa 89        	c.mv	s3, a0
   18240: e3 55 a0 f6  	bge	zero, a0, 0x181aa <__sfvwrite_r+0x1b0>
   18244: 33 09 39 41  	sub	s2, s2, s3
   18248: 7d b5        	c.j	0x180f6 <__sfvwrite_r+0xfc>
   1824a: d2 89        	c.mv	s3, s4
   1824c: 63 73 49 01  	bgeu	s2, s4, 0x18252 <__sfvwrite_r+0x258>
   18250: ca 89        	c.mv	s3, s2
   18252: 3e 85        	c.mv	a0, a5
   18254: 4e 86        	c.mv	a2, s3
   18256: e2 85        	c.mv	a1, s8
   18258: ef 00 c0 73  	jal	ra, 0x18994 <memmove>
   1825c: 58 44        	c.lw	a4, 0xc(s0)
   1825e: 1c 60        	c.ld	a5, 0x0(s0)
   18260: bb 06 37 41  	subw	a3, a4, s3
   18264: ce 97        	c.add	a5, s3
   18266: 54 c4        	c.sw	a3, 0xc(s0)
   18268: 1c e0        	c.sd	a5, 0x0(s0)
   1826a: e9 fe        	c.bnez	a3, 0x18244 <__sfvwrite_r+0x24a>
   1826c: a2 85        	c.mv	a1, s0
   1826e: 56 85        	c.mv	a0, s5
   18270: ef b0 cf d6  	jal	ra, 0x137dc <_fflush_r>
   18274: 1d f9        	c.bnez	a0, 0x181aa <__sfvwrite_r+0x1b0>
   18276: 33 09 39 41  	sub	s2, s2, s3
   1827a: b5 bd        	c.j	0x180f6 <__sfvwrite_r+0xfc>
   1827c: 93 76 07 48  	andi	a3, a4, 0x480
   18280: c1 ca        	c.beqz	a3, 0x18310 <__sfvwrite_r+0x316>
   18282: 10 50        	c.lw	a2, 0x20(s0)
   18284: 0c 6c        	c.ld	a1, 0x18(s0)
   18286: 9b 16 16 00  	slliw	a3, a2, 0x1
   1828a: b1 9e        	c.addw	a3, a2
   1828c: 8d 8f        	c.sub	a5, a1
   1828e: 9b d9 f6 01  	srliw	s3, a3, 0x1f
   18292: 9b 8c 07 00  	addiw	s9, a5, 0x0
   18296: bb 89 d9 00  	addw	s3, s3, a3
   1829a: 93 86 1c 00  	addi	a3, s9, 0x1
   1829e: 9b d9 19 40  	sraiw	s3, s3, 0x1
   182a2: ca 96        	c.add	a3, s2
   182a4: 63 f6 d9 00  	bgeu	s3, a3, 0x182b0 <__sfvwrite_r+0x2b6>
   182a8: 9b 86 17 00  	addiw	a3, a5, 0x1
   182ac: bb 89 26 01  	addw	s3, a3, s2
   182b0: 13 77 07 40  	andi	a4, a4, 0x400
   182b4: 25 c3        	c.beqz	a4, 0x18314 <__sfvwrite_r+0x31a>
   182b6: ce 85        	c.mv	a1, s3
   182b8: 56 85        	c.mv	a0, s5
   182ba: ef c0 bf c4  	jal	ra, 0x14f04 <_malloc_r>
   182be: 2a 8a        	c.mv	s4, a0
   182c0: 49 c5        	c.beqz	a0, 0x1834a <__sfvwrite_r+0x350>
   182c2: 0c 6c        	c.ld	a1, 0x18(s0)
   182c4: 66 86        	c.mv	a2, s9
   182c6: ef c0 ef e5  	jal	ra, 0x14924 <memcpy>
   182ca: 83 57 04 01  	lhu	a5, 0x10(s0)
   182ce: 93 f7 f7 b7  	andi	a5, a5, -0x481
   182d2: 93 e7 07 08  	ori	a5, a5, 0x80
   182d6: 23 18 f4 00  	sh	a5, 0x10(s0)
   182da: 33 05 9a 01  	add	a0, s4, s9
   182de: bb 87 99 41  	subw	a5, s3, s9
   182e2: 23 3c 44 01  	sd	s4, 0x18(s0)
   182e6: 08 e0        	c.sd	a0, 0x0(s0)
   182e8: 23 20 34 03  	sw	s3, 0x20(s0)
   182ec: ca 8c        	c.mv	s9, s2
   182ee: 5c c4        	c.sw	a5, 0xc(s0)
   182f0: 4a 8a        	c.mv	s4, s2
   182f2: e5 b3        	c.j	0x180da <__sfvwrite_r+0xe0>
   182f4: 52 86        	c.mv	a2, s4
   182f6: e6 85        	c.mv	a1, s9
   182f8: ef 00 c0 69  	jal	ra, 0x18994 <memmove>
   182fc: 54 44        	c.lw	a3, 0xc(s0)
   182fe: 18 60        	c.ld	a4, 0x0(s0)
   18300: 9b 07 0a 00  	addiw	a5, s4, 0x0
   18304: bb 86 46 41  	subw	a3, a3, s4
   18308: 52 97        	c.add	a4, s4
   1830a: 54 c4        	c.sw	a3, 0xc(s0)
   1830c: 18 e0        	c.sd	a4, 0x0(s0)
   1830e: a1 bd        	c.j	0x18166 <__sfvwrite_r+0x16c>
   18310: d2 8c        	c.mv	s9, s4
   18312: e1 b3        	c.j	0x180da <__sfvwrite_r+0xe0>
   18314: 4e 86        	c.mv	a2, s3
   18316: 56 85        	c.mv	a0, s5
   18318: ef 20 10 3c  	jal	ra, 0x1aed8 <_realloc_r>
   1831c: 2a 8a        	c.mv	s4, a0
   1831e: 55 fd        	c.bnez	a0, 0x182da <__sfvwrite_r+0x2e0>
   18320: 0c 6c        	c.ld	a1, 0x18(s0)
   18322: 56 85        	c.mv	a0, s5
   18324: ef c0 7f 99  	jal	ra, 0x14cba <_free_r>
   18328: 83 17 04 01  	lh	a5, 0x10(s0)
   1832c: 31 47        	c.li	a4, 0xc
   1832e: 02 7b        	c.ldsp	s6, 0x20(sp)
   18330: 42 6c        	c.ldsp	s8, 0x10(sp)
   18332: a2 6c        	c.ldsp	s9, 0x8(sp)
   18334: 23 a0 ea 00  	sw	a4, 0x0(s5)
   18338: 93 f7 f7 f7  	andi	a5, a5, -0x81
   1833c: a5 bd        	c.j	0x181b4 <__sfvwrite_r+0x1ba>
   1833e: 1b 0b 1c 00  	addiw	s6, s8, 0x1
   18342: fd b3        	c.j	0x18130 <__sfvwrite_r+0x136>
   18344: 83 17 04 01  	lh	a5, 0x10(s0)
   18348: b5 b5        	c.j	0x181b4 <__sfvwrite_r+0x1ba>
   1834a: 31 47        	c.li	a4, 0xc
   1834c: 83 17 04 01  	lh	a5, 0x10(s0)
   18350: 02 7b        	c.ldsp	s6, 0x20(sp)
   18352: 42 6c        	c.ldsp	s8, 0x10(sp)
   18354: a2 6c        	c.ldsp	s9, 0x8(sp)
   18356: 23 a0 ea 00  	sw	a4, 0x0(s5)
   1835a: a9 bd        	c.j	0x181b4 <__sfvwrite_r+0x1ba>

000000000001835c <__smakebuf_r>:
   1835c: 83 97 05 01  	lh	a5, 0x10(a1)
   18360: 35 71        	c.addi16sp	sp, -0xa0
   18362: 22 e9        	c.sdsp	s0, 0x90(sp)
   18364: 06 ed        	c.sdsp	ra, 0x98(sp)
   18366: 13 f7 27 00  	andi	a4, a5, 0x2
   1836a: 2e 84        	c.mv	s0, a1
   1836c: 19 cb        	c.beqz	a4, 0x18382 <__smakebuf_r+0x26>
   1836e: 93 87 75 07  	addi	a5, a1, 0x77
   18372: 9c e1        	c.sd	a5, 0x0(a1)
   18374: 9c ed        	c.sd	a5, 0x18(a1)
   18376: 85 47        	c.li	a5, 0x1
   18378: 9c d1        	c.sw	a5, 0x20(a1)
   1837a: ea 60        	c.ldsp	ra, 0x98(sp)
   1837c: 4a 64        	c.ldsp	s0, 0x90(sp)
   1837e: 0d 61        	c.addi16sp	sp, 0xa0
   18380: 82 80        	c.jr	ra
   18382: 83 95 25 01  	lh	a1, 0x12(a1)
   18386: 26 e5        	c.sdsp	s1, 0x88(sp)
   18388: 4a e1        	c.sdsp	s2, 0x80(sp)
   1838a: ce fc        	c.sdsp	s3, 0x78(sp)
   1838c: d2 f8        	c.sdsp	s4, 0x70(sp)
   1838e: aa 84        	c.mv	s1, a0
   18390: 63 c4 05 06  	blt	a1, zero, 0x183f8 <__smakebuf_r+0x9c>
   18394: 30 00        	c.addi4spn	a2, sp, 0x8
   18396: ef c0 8f b4  	jal	ra, 0x146de <_fstat_r>
   1839a: 63 4d 05 04  	blt	a0, zero, 0x183f4 <__smakebuf_r+0x98>
   1839e: 32 49        	c.lwsp	s2, 0xc(sp)
   183a0: bd 67        	c.lui	a5, 0xf
   183a2: 85 69        	c.lui	s3, 0x1
   183a4: 33 79 f9 00  	and	s2, s2, a5
   183a8: 89 67        	c.lui	a5, 0x2
   183aa: 33 09 f9 40  	sub	s2, s2, a5
   183ae: 13 39 19 00  	sltiu	s2, s2, 0x1
   183b2: 13 0a 00 40  	addi	s4, zero, 0x400
   183b6: 93 89 09 80  	addi	s3, s3, -0x800
   183ba: d2 85        	c.mv	a1, s4
   183bc: 26 85        	c.mv	a0, s1
   183be: ef c0 7f b4  	jal	ra, 0x14f04 <_malloc_r>
   183c2: 83 17 04 01  	lh	a5, 0x10(s0)
   183c6: 39 c5        	c.beqz	a0, 0x18414 <__smakebuf_r+0xb8>
   183c8: 93 e7 07 08  	ori	a5, a5, 0x80
   183cc: 08 e0        	c.sd	a0, 0x0(s0)
   183ce: 08 ec        	c.sd	a0, 0x18(s0)
   183d0: 23 18 f4 00  	sh	a5, 0x10(s0)
   183d4: 23 20 44 03  	sw	s4, 0x20(s0)
   183d8: 63 15 09 06  	bne	s2, zero, 0x18442 <__smakebuf_r+0xe6>
   183dc: b3 e7 37 01  	or	a5, a5, s3
   183e0: ea 60        	c.ldsp	ra, 0x98(sp)
   183e2: 23 18 f4 00  	sh	a5, 0x10(s0)
   183e6: 4a 64        	c.ldsp	s0, 0x90(sp)
   183e8: aa 64        	c.ldsp	s1, 0x88(sp)
   183ea: 0a 69        	c.ldsp	s2, 0x80(sp)
   183ec: e6 79        	c.ldsp	s3, 0x78(sp)
   183ee: 46 7a        	c.ldsp	s4, 0x70(sp)
   183f0: 0d 61        	c.addi16sp	sp, 0xa0
   183f2: 82 80        	c.jr	ra
   183f4: 83 17 04 01  	lh	a5, 0x10(s0)
   183f8: 93 f7 07 08  	andi	a5, a5, 0x80
   183fc: 01 49        	c.li	s2, 0x0
   183fe: 95 cf        	c.beqz	a5, 0x1843a <__smakebuf_r+0xde>
   18400: 13 0a 00 04  	addi	s4, zero, 0x40
   18404: d2 85        	c.mv	a1, s4
   18406: 26 85        	c.mv	a0, s1
   18408: ef c0 df af  	jal	ra, 0x14f04 <_malloc_r>
   1840c: 83 17 04 01  	lh	a5, 0x10(s0)
   18410: 81 49        	c.li	s3, 0x0
   18412: 5d f9        	c.bnez	a0, 0x183c8 <__smakebuf_r+0x6c>
   18414: 13 f7 07 20  	andi	a4, a5, 0x200
   18418: 15 ef        	c.bnez	a4, 0x18454 <__smakebuf_r+0xf8>
   1841a: f1 9b        	c.andi	a5, -0x4
   1841c: 93 e7 27 00  	ori	a5, a5, 0x2
   18420: 13 07 74 07  	addi	a4, s0, 0x77
   18424: 23 18 f4 00  	sh	a5, 0x10(s0)
   18428: 85 47        	c.li	a5, 0x1
   1842a: aa 64        	c.ldsp	s1, 0x88(sp)
   1842c: 0a 69        	c.ldsp	s2, 0x80(sp)
   1842e: e6 79        	c.ldsp	s3, 0x78(sp)
   18430: 46 7a        	c.ldsp	s4, 0x70(sp)
   18432: 18 e0        	c.sd	a4, 0x0(s0)
   18434: 18 ec        	c.sd	a4, 0x18(s0)
   18436: 1c d0        	c.sw	a5, 0x20(s0)
   18438: 89 b7        	c.j	0x1837a <__smakebuf_r+0x1e>
   1843a: 13 0a 00 40  	addi	s4, zero, 0x400
   1843e: 81 49        	c.li	s3, 0x0
   18440: ad bf        	c.j	0x183ba <__smakebuf_r+0x5e>
   18442: 83 15 24 01  	lh	a1, 0x12(s0)
   18446: 26 85        	c.mv	a0, s1
   18448: ef 00 80 4a  	jal	ra, 0x188f0 <_isatty_r>
   1844c: 09 e9        	c.bnez	a0, 0x1845e <__smakebuf_r+0x102>
   1844e: 83 17 04 01  	lh	a5, 0x10(s0)
   18452: 69 b7        	c.j	0x183dc <__smakebuf_r+0x80>
   18454: aa 64        	c.ldsp	s1, 0x88(sp)
   18456: 0a 69        	c.ldsp	s2, 0x80(sp)
   18458: e6 79        	c.ldsp	s3, 0x78(sp)
   1845a: 46 7a        	c.ldsp	s4, 0x70(sp)
   1845c: 39 bf        	c.j	0x1837a <__smakebuf_r+0x1e>
   1845e: 83 57 04 01  	lhu	a5, 0x10(s0)
   18462: f1 9b        	c.andi	a5, -0x4
   18464: 93 e7 17 00  	ori	a5, a5, 0x1
   18468: 9b 97 07 01  	slliw	a5, a5, 0x10
   1846c: 9b d7 07 41  	sraiw	a5, a5, 0x10
   18470: b5 b7        	c.j	0x183dc <__smakebuf_r+0x80>

0000000000018472 <__swhatbuf_r>:
   18472: 75 71        	c.addi16sp	sp, -0x90
   18474: 22 e1        	c.sdsp	s0, 0x80(sp)
   18476: 2e 84        	c.mv	s0, a1
   18478: 83 95 25 01  	lh	a1, 0x12(a1)
   1847c: a6 fc        	c.sdsp	s1, 0x78(sp)
   1847e: ca f8        	c.sdsp	s2, 0x70(sp)
   18480: 06 e5        	c.sdsp	ra, 0x88(sp)
   18482: b2 84        	c.mv	s1, a2
   18484: 36 89        	c.mv	s2, a3
   18486: 63 cc 05 02  	blt	a1, zero, 0x184be <__swhatbuf_r+0x4c>
   1848a: 30 00        	c.addi4spn	a2, sp, 0x8
   1848c: ef c0 2f a5  	jal	ra, 0x146de <_fstat_r>
   18490: 63 47 05 02  	blt	a0, zero, 0x184be <__swhatbuf_r+0x4c>
   18494: b2 47        	c.lwsp	a5, 0xc(sp)
   18496: 3d 67        	c.lui	a4, 0xf
   18498: aa 60        	c.ldsp	ra, 0x88(sp)
   1849a: f9 8f        	c.and	a5, a4
   1849c: 09 67        	c.lui	a4, 0x2
   1849e: 99 8f        	c.sub	a5, a4
   184a0: 0a 64        	c.ldsp	s0, 0x80(sp)
   184a2: 93 b7 17 00  	sltiu	a5, a5, 0x1
   184a6: 23 20 f9 00  	sw	a5, 0x0(s2)
   184aa: 13 07 00 40  	addi	a4, zero, 0x400
   184ae: 98 e0        	c.sd	a4, 0x0(s1)
   184b0: 05 65        	c.lui	a0, 0x1
   184b2: e6 74        	c.ldsp	s1, 0x78(sp)
   184b4: 46 79        	c.ldsp	s2, 0x70(sp)
   184b6: 13 05 05 80  	addi	a0, a0, -0x800
   184ba: 49 61        	c.addi16sp	sp, 0x90
   184bc: 82 80        	c.jr	ra
   184be: 83 57 04 01  	lhu	a5, 0x10(s0)
   184c2: 93 f7 07 08  	andi	a5, a5, 0x80
   184c6: 91 cf        	c.beqz	a5, 0x184e2 <__swhatbuf_r+0x70>
   184c8: aa 60        	c.ldsp	ra, 0x88(sp)
   184ca: 0a 64        	c.ldsp	s0, 0x80(sp)
   184cc: 81 47        	c.li	a5, 0x0
   184ce: 23 20 f9 00  	sw	a5, 0x0(s2)
   184d2: 13 07 00 04  	addi	a4, zero, 0x40
   184d6: 98 e0        	c.sd	a4, 0x0(s1)
   184d8: 46 79        	c.ldsp	s2, 0x70(sp)
   184da: e6 74        	c.ldsp	s1, 0x78(sp)
   184dc: 01 45        	c.li	a0, 0x0
   184de: 49 61        	c.addi16sp	sp, 0x90
   184e0: 82 80        	c.jr	ra
   184e2: aa 60        	c.ldsp	ra, 0x88(sp)
   184e4: 0a 64        	c.ldsp	s0, 0x80(sp)
   184e6: 23 20 f9 00  	sw	a5, 0x0(s2)
   184ea: 13 07 00 40  	addi	a4, zero, 0x400
   184ee: 98 e0        	c.sd	a4, 0x0(s1)
   184f0: 46 79        	c.ldsp	s2, 0x70(sp)
   184f2: e6 74        	c.ldsp	s1, 0x78(sp)
   184f4: 01 45        	c.li	a0, 0x0
   184f6: 49 61        	c.addi16sp	sp, 0x90
   184f8: 82 80        	c.jr	ra

00000000000184fa <__swsetup_r>:
   184fa: 83 b7 01 20  	ld	a5, 0x200(gp)
   184fe: 01 11        	c.addi	sp, -0x20
   18500: 22 e8        	c.sdsp	s0, 0x10(sp)
   18502: 26 e4        	c.sdsp	s1, 0x8(sp)
   18504: 06 ec        	c.sdsp	ra, 0x18(sp)
   18506: aa 84        	c.mv	s1, a0
   18508: 2e 84        	c.mv	s0, a1
   1850a: 99 c3        	c.beqz	a5, 0x18510 <__swsetup_r+0x16>
   1850c: b8 67        	c.ld	a4, 0x48(a5)
   1850e: 5d c7        	c.beqz	a4, 0x185bc <__swsetup_r+0xc2>
   18510: 83 17 04 01  	lh	a5, 0x10(s0)
   18514: 13 f7 87 00  	andi	a4, a5, 0x8
   18518: 21 c7        	c.beqz	a4, 0x18560 <__swsetup_r+0x66>
   1851a: 18 6c        	c.ld	a4, 0x18(s0)
   1851c: 31 cf        	c.beqz	a4, 0x18578 <__swsetup_r+0x7e>
   1851e: 93 f6 17 00  	andi	a3, a5, 0x1
   18522: 91 ce        	c.beqz	a3, 0x1853e <__swsetup_r+0x44>
   18524: 14 50        	c.lw	a3, 0x20(s0)
   18526: 23 26 04 00  	sw	zero, 0xc(s0)
   1852a: 01 45        	c.li	a0, 0x0
   1852c: bb 06 d0 40  	subw	a3, zero, a3
   18530: 14 d4        	c.sw	a3, 0x28(s0)
   18532: 11 cf        	c.beqz	a4, 0x1854e <__swsetup_r+0x54>
   18534: e2 60        	c.ldsp	ra, 0x18(sp)
   18536: 42 64        	c.ldsp	s0, 0x10(sp)
   18538: a2 64        	c.ldsp	s1, 0x8(sp)
   1853a: 05 61        	c.addi16sp	sp, 0x20
   1853c: 82 80        	c.jr	ra
   1853e: 93 f6 27 00  	andi	a3, a5, 0x2
   18542: 01 46        	c.li	a2, 0x0
   18544: 91 e2        	c.bnez	a3, 0x18548 <__swsetup_r+0x4e>
   18546: 10 50        	c.lw	a2, 0x20(s0)
   18548: 50 c4        	c.sw	a2, 0xc(s0)
   1854a: 01 45        	c.li	a0, 0x0
   1854c: 65 f7        	c.bnez	a4, 0x18534 <__swsetup_r+0x3a>
   1854e: 13 f7 07 08  	andi	a4, a5, 0x80
   18552: 6d d3        	c.beqz	a4, 0x18534 <__swsetup_r+0x3a>
   18554: 93 e7 07 04  	ori	a5, a5, 0x40
   18558: 23 18 f4 00  	sh	a5, 0x10(s0)
   1855c: 7d 55        	c.li	a0, -0x1
   1855e: d9 bf        	c.j	0x18534 <__swsetup_r+0x3a>
   18560: 13 f7 07 01  	andi	a4, a5, 0x10
   18564: 25 c3        	c.beqz	a4, 0x185c4 <__swsetup_r+0xca>
   18566: 13 f7 47 00  	andi	a4, a5, 0x4
   1856a: 0d e7        	c.bnez	a4, 0x18594 <__swsetup_r+0x9a>
   1856c: 18 6c        	c.ld	a4, 0x18(s0)
   1856e: 93 e7 87 00  	ori	a5, a5, 0x8
   18572: 23 18 f4 00  	sh	a5, 0x10(s0)
   18576: 45 f7        	c.bnez	a4, 0x1851e <__swsetup_r+0x24>
   18578: 93 f6 07 28  	andi	a3, a5, 0x280
   1857c: 13 06 00 20  	addi	a2, zero, 0x200
   18580: e3 8f c6 f8  	beq	a3, a2, 0x1851e <__swsetup_r+0x24>
   18584: a2 85        	c.mv	a1, s0
   18586: 26 85        	c.mv	a0, s1
   18588: ef f0 5f dd  	jal	ra, 0x1835c <__smakebuf_r>
   1858c: 83 17 04 01  	lh	a5, 0x10(s0)
   18590: 18 6c        	c.ld	a4, 0x18(s0)
   18592: 71 b7        	c.j	0x1851e <__swsetup_r+0x24>
   18594: 2c 6c        	c.ld	a1, 0x58(s0)
   18596: 81 cd        	c.beqz	a1, 0x185ae <__swsetup_r+0xb4>
   18598: 13 07 44 07  	addi	a4, s0, 0x74
   1859c: 63 87 e5 00  	beq	a1, a4, 0x185aa <__swsetup_r+0xb0>
   185a0: 26 85        	c.mv	a0, s1
   185a2: ef c0 8f f1  	jal	ra, 0x14cba <_free_r>
   185a6: 83 17 04 01  	lh	a5, 0x10(s0)
   185aa: 23 3c 04 04  	sd	zero, 0x58(s0)
   185ae: 18 6c        	c.ld	a4, 0x18(s0)
   185b0: 93 f7 b7 fd  	andi	a5, a5, -0x25
   185b4: 23 24 04 00  	sw	zero, 0x8(s0)
   185b8: 18 e0        	c.sd	a4, 0x0(s0)
   185ba: 55 bf        	c.j	0x1856e <__swsetup_r+0x74>
   185bc: 3e 85        	c.mv	a0, a5
   185be: ef b0 0f d2  	jal	ra, 0x13ade <__sinit>
   185c2: b9 b7        	c.j	0x18510 <__swsetup_r+0x16>
   185c4: 25 47        	c.li	a4, 0x9
   185c6: 98 c0        	c.sw	a4, 0x0(s1)
   185c8: 93 e7 07 04  	ori	a5, a5, 0x40
   185cc: 23 18 f4 00  	sh	a5, 0x10(s0)
   185d0: 7d 55        	c.li	a0, -0x1
   185d2: 8d b7        	c.j	0x18534 <__swsetup_r+0x3a>

00000000000185d4 <__fputwc>:
   185d4: 79 71        	c.addi16sp	sp, -0x30
   185d6: 22 f0        	c.sdsp	s0, 0x20(sp)
   185d8: 26 ec        	c.sdsp	s1, 0x18(sp)
   185da: 4a e8        	c.sdsp	s2, 0x10(sp)
   185dc: 06 f4        	c.sdsp	ra, 0x28(sp)
   185de: 2a 89        	c.mv	s2, a0
   185e0: ae 84        	c.mv	s1, a1
   185e2: 32 84        	c.mv	s0, a2
   185e4: ef 00 e0 29  	jal	ra, 0x18882 <__locale_mb_cur_max>
   185e8: 85 47        	c.li	a5, 0x1
   185ea: 63 1b f5 00  	bne	a0, a5, 0x18600 <__fputwc+0x2c>
   185ee: 9b 87 f4 ff  	addiw	a5, s1, -0x1
   185f2: 13 07 e0 0f  	addi	a4, zero, 0xfe
   185f6: 63 65 f7 00  	bltu	a4, a5, 0x18600 <__fputwc+0x2c>
   185fa: 23 04 91 00  	sb	s1, 0x8(sp)
   185fe: 21 a8        	c.j	0x18616 <__fputwc+0x42>
   18600: 93 06 44 0a  	addi	a3, s0, 0xa4
   18604: 26 86        	c.mv	a2, s1
   18606: 2c 00        	c.addi4spn	a1, sp, 0x8
   18608: 4a 85        	c.mv	a0, s2
   1860a: ef 20 30 4f  	jal	ra, 0x1b2fc <_wcrtomb_r>
   1860e: fd 57        	c.li	a5, -0x1
   18610: 63 0d f5 04  	beq	a0, a5, 0x1866a <__fputwc+0x96>
   18614: 0d c5        	c.beqz	a0, 0x1863e <__fputwc+0x6a>
   18616: 5c 44        	c.lw	a5, 0xc(s0)
   18618: 83 45 81 00  	lbu	a1, 0x8(sp)
   1861c: 1b 87 f7 ff  	addiw	a4, a5, -0x1
   18620: 58 c4        	c.sw	a4, 0xc(s0)
   18622: 63 58 07 00  	bge	a4, zero, 0x18632 <__fputwc+0x5e>
   18626: 1c 54        	c.lw	a5, 0x28(s0)
   18628: 63 43 f7 02  	blt	a4, a5, 0x1864e <__fputwc+0x7a>
   1862c: a9 47        	c.li	a5, 0xa
   1862e: 63 80 f5 02  	beq	a1, a5, 0x1864e <__fputwc+0x7a>
   18632: 1c 60        	c.ld	a5, 0x0(s0)
   18634: 13 87 17 00  	addi	a4, a5, 0x1
   18638: 18 e0        	c.sd	a4, 0x0(s0)
   1863a: 23 80 b7 00  	sb	a1, 0x0(a5)
   1863e: a2 70        	c.ldsp	ra, 0x28(sp)
   18640: 02 74        	c.ldsp	s0, 0x20(sp)
   18642: 42 69        	c.ldsp	s2, 0x10(sp)
   18644: 1b 85 04 00  	addiw	a0, s1, 0x0
   18648: e2 64        	c.ldsp	s1, 0x18(sp)
   1864a: 45 61        	c.addi16sp	sp, 0x30
   1864c: 82 80        	c.jr	ra
   1864e: 22 86        	c.mv	a2, s0
   18650: 4a 85        	c.mv	a0, s2
   18652: ef 20 10 54  	jal	ra, 0x1b392 <__swbuf_r>
   18656: fd 57        	c.li	a5, -0x1
   18658: e3 13 f5 fe  	bne	a0, a5, 0x1863e <__fputwc+0x6a>
   1865c: 7d 55        	c.li	a0, -0x1
   1865e: a2 70        	c.ldsp	ra, 0x28(sp)
   18660: 02 74        	c.ldsp	s0, 0x20(sp)
   18662: e2 64        	c.ldsp	s1, 0x18(sp)
   18664: 42 69        	c.ldsp	s2, 0x10(sp)
   18666: 45 61        	c.addi16sp	sp, 0x30
   18668: 82 80        	c.jr	ra
   1866a: 83 57 04 01  	lhu	a5, 0x10(s0)
   1866e: 7d 55        	c.li	a0, -0x1
   18670: 93 e7 07 04  	ori	a5, a5, 0x40
   18674: 23 18 f4 00  	sh	a5, 0x10(s0)
   18678: dd b7        	c.j	0x1865e <__fputwc+0x8a>

000000000001867a <_fputwc_r>:
   1867a: 83 17 06 01  	lh	a5, 0x10(a2)
   1867e: 13 97 27 03  	slli	a4, a5, 0x32
   18682: 63 4c 07 00  	blt	a4, zero, 0x1869a <_fputwc_r+0x20>
   18686: 03 27 c6 0a  	lw	a4, 0xac(a2)
   1868a: 89 66        	c.lui	a3, 0x2
   1868c: d5 8f        	c.or	a5, a3
   1868e: 89 66        	c.lui	a3, 0x2
   18690: 55 8f        	c.or	a4, a3
   18692: 23 18 f6 00  	sh	a5, 0x10(a2)
   18696: 23 26 e6 0a  	sw	a4, 0xac(a2)
   1869a: 2d bf        	c.j	0x185d4 <__fputwc>

000000000001869c <fputwc>:
   1869c: 01 11        	c.addi	sp, -0x20
   1869e: 22 e8        	c.sdsp	s0, 0x10(sp)
   186a0: 03 b4 01 20  	ld	s0, 0x200(gp)
   186a4: 06 ec        	c.sdsp	ra, 0x18(sp)
   186a6: 2e 86        	c.mv	a2, a1
   186a8: aa 85        	c.mv	a1, a0
   186aa: 19 c0        	c.beqz	s0, 0x186b0 <fputwc+0x14>
   186ac: 3c 64        	c.ld	a5, 0x48(s0)
   186ae: 95 c7        	c.beqz	a5, 0x186da <fputwc+0x3e>
   186b0: 83 17 06 01  	lh	a5, 0x10(a2)
   186b4: 13 97 27 03  	slli	a4, a5, 0x32
   186b8: 63 4c 07 00  	blt	a4, zero, 0x186d0 <fputwc+0x34>
   186bc: 03 27 c6 0a  	lw	a4, 0xac(a2)
   186c0: 89 66        	c.lui	a3, 0x2
   186c2: d5 8f        	c.or	a5, a3
   186c4: 89 66        	c.lui	a3, 0x2
   186c6: 55 8f        	c.or	a4, a3
   186c8: 23 18 f6 00  	sh	a5, 0x10(a2)
   186cc: 23 26 e6 0a  	sw	a4, 0xac(a2)
   186d0: 22 85        	c.mv	a0, s0
   186d2: 42 64        	c.ldsp	s0, 0x10(sp)
   186d4: e2 60        	c.ldsp	ra, 0x18(sp)
   186d6: 05 61        	c.addi16sp	sp, 0x20
   186d8: f5 bd        	c.j	0x185d4 <__fputwc>
   186da: 2a e0        	c.sdsp	a0, 0x0(sp)
   186dc: 22 85        	c.mv	a0, s0
   186de: 32 e4        	c.sdsp	a2, 0x8(sp)
   186e0: ef b0 ef bf  	jal	ra, 0x13ade <__sinit>
   186e4: 22 66        	c.ldsp	a2, 0x8(sp)
   186e6: 82 65        	c.ldsp	a1, 0x0(sp)
   186e8: e1 b7        	c.j	0x186b0 <fputwc+0x14>

00000000000186ea <memchr>:
   186ea: 93 77 75 00  	andi	a5, a0, 0x7
   186ee: 93 f6 f5 0f  	andi	a3, a1, 0xff
   186f2: 95 c3        	c.beqz	a5, 0x18716 <memchr+0x2c>
   186f4: 93 07 f6 ff  	addi	a5, a2, -0x1
   186f8: 05 c6        	c.beqz	a2, 0x18720 <memchr+0x36>
   186fa: 7d 56        	c.li	a2, -0x1
   186fc: 01 a8        	c.j	0x1870c <memchr+0x22>
   186fe: 05 05        	c.addi	a0, 0x1
   18700: 13 77 75 00  	andi	a4, a0, 0x7
   18704: 11 cb        	c.beqz	a4, 0x18718 <memchr+0x2e>
   18706: fd 17        	c.addi	a5, -0x1
   18708: 63 8c c7 00  	beq	a5, a2, 0x18720 <memchr+0x36>
   1870c: 03 47 05 00  	lbu	a4, 0x0(a0)
   18710: e3 17 d7 fe  	bne	a4, a3, 0x186fe <memchr+0x14>
   18714: 82 80        	c.jr	ra
   18716: b2 87        	c.mv	a5, a2
   18718: 1d 47        	c.li	a4, 0x7
   1871a: 63 65 f7 00  	bltu	a4, a5, 0x18724 <memchr+0x3a>
   1871e: bd e3        	c.bnez	a5, 0x18784 <memchr+0x9a>
   18720: 01 45        	c.li	a0, 0x0
   18722: 82 80        	c.jr	ra
   18724: 93 f5 f5 0f  	andi	a1, a1, 0xff
   18728: 37 18 10 f0  	lui	a6, 0xf0101
   1872c: 13 97 85 00  	slli	a4, a1, 0x8
   18730: b7 08 ff fe  	lui	a7, 0xfeff0
   18734: 12 08        	c.slli	a6, 0x4
   18736: 2e 97        	c.add	a4, a1
   18738: 93 88 f8 ef  	addi	a7, a7, -0x101
   1873c: 13 08 18 10  	addi	a6, a6, 0x101
   18740: 93 15 07 01  	slli	a1, a4, 0x10
   18744: c2 08        	c.slli	a7, 0x10
   18746: 42 08        	c.slli	a6, 0x10
   18748: ba 95        	c.add	a1, a4
   1874a: 93 88 f8 ef  	addi	a7, a7, -0x101
   1874e: 13 08 18 10  	addi	a6, a6, 0x101
   18752: 13 97 05 02  	slli	a4, a1, 0x20
   18756: c2 08        	c.slli	a7, 0x10
   18758: 3e 08        	c.slli	a6, 0xf
   1875a: ba 95        	c.add	a1, a4
   1875c: 93 88 f8 ef  	addi	a7, a7, -0x101
   18760: 13 08 08 08  	addi	a6, a6, 0x80
   18764: 1d 43        	c.li	t1, 0x7
   18766: 29 a0        	c.j	0x18770 <memchr+0x86>
   18768: e1 17        	c.addi	a5, -0x8
   1876a: 21 05        	c.addi	a0, 0x8
   1876c: e3 79 f3 fa  	bgeu	t1, a5, 0x1871e <memchr+0x34>
   18770: 18 61        	c.ld	a4, 0x0(a0)
   18772: 2d 8f        	c.xor	a4, a1
   18774: 33 06 17 01  	add	a2, a4, a7
   18778: 13 47 f7 ff  	xori	a4, a4, -0x1
   1877c: 71 8f        	c.and	a4, a2
   1877e: 33 77 07 01  	and	a4, a4, a6
   18782: 7d d3        	c.beqz	a4, 0x18768 <memchr+0x7e>
   18784: aa 97        	c.add	a5, a0
   18786: 21 a0        	c.j	0x1878e <memchr+0xa4>
   18788: 05 05        	c.addi	a0, 0x1
   1878a: e3 8b a7 f8  	beq	a5, a0, 0x18720 <memchr+0x36>
   1878e: 03 47 05 00  	lbu	a4, 0x0(a0)
   18792: e3 1b d7 fe  	bne	a4, a3, 0x18788 <memchr+0x9e>
   18796: 82 80        	c.jr	ra

0000000000018798 <strncpy>:
   18798: b3 e7 a5 00  	or	a5, a1, a0
   1879c: 9d 8b        	c.andi	a5, 0x7
   1879e: 81 e7        	c.bnez	a5, 0x187a6 <strncpy+0xe>
   187a0: 9d 47        	c.li	a5, 0x7
   187a2: 63 eb c7 02  	bltu	a5, a2, 0x187d8 <strncpy+0x40>
   187a6: 2a 87        	c.mv	a4, a0
   187a8: 11 a8        	c.j	0x187bc <strncpy+0x24>
   187aa: 83 c6 f5 ff  	lbu	a3, -0x1(a1)
   187ae: 13 08 f6 ff  	addi	a6, a2, -0x1
   187b2: a3 8f d7 fe  	sb	a3, -0x1(a5)
   187b6: 81 ca        	c.beqz	a3, 0x187c6 <strncpy+0x2e>
   187b8: 3e 87        	c.mv	a4, a5
   187ba: 42 86        	c.mv	a2, a6
   187bc: 85 05        	c.addi	a1, 0x1
   187be: 93 07 17 00  	addi	a5, a4, 0x1
   187c2: 65 f6        	c.bnez	a2, 0x187aa <strncpy+0x12>
   187c4: 82 80        	c.jr	ra
   187c6: 32 97        	c.add	a4, a2
   187c8: 63 01 08 06  	beq	a6, zero, 0x1882a <strncpy+0x92>
   187cc: 85 07        	c.addi	a5, 0x1
   187ce: a3 8f 07 fe  	sb	zero, -0x1(a5)
   187d2: e3 9d e7 fe  	bne	a5, a4, 0x187cc <strncpy+0x34>
   187d6: 82 80        	c.jr	ra
   187d8: 37 18 10 f0  	lui	a6, 0xf0101
   187dc: b7 08 ff fe  	lui	a7, 0xfeff0
   187e0: 12 08        	c.slli	a6, 0x4
   187e2: 93 88 f8 ef  	addi	a7, a7, -0x101
   187e6: 13 08 18 10  	addi	a6, a6, 0x101
   187ea: c2 08        	c.slli	a7, 0x10
   187ec: 42 08        	c.slli	a6, 0x10
   187ee: 93 88 f8 ef  	addi	a7, a7, -0x101
   187f2: 13 08 18 10  	addi	a6, a6, 0x101
   187f6: c2 08        	c.slli	a7, 0x10
   187f8: 3e 08        	c.slli	a6, 0xf
   187fa: 2a 87        	c.mv	a4, a0
   187fc: 93 88 f8 ef  	addi	a7, a7, -0x101
   18800: 13 08 08 08  	addi	a6, a6, 0x80
   18804: 1d 4e        	c.li	t3, 0x7
   18806: 39 a0        	c.j	0x18814 <strncpy+0x7c>
   18808: 14 e3        	c.sd	a3, 0x0(a4)
   1880a: 61 16        	c.addi	a2, -0x8
   1880c: 21 07        	c.addi	a4, 0x8
   1880e: a1 05        	c.addi	a1, 0x8
   18810: e3 76 ce fa  	bgeu	t3, a2, 0x187bc <strncpy+0x24>
   18814: 94 61        	c.ld	a3, 0x0(a1)
   18816: b3 87 16 01  	add	a5, a3, a7
   1881a: 13 c3 f6 ff  	xori	t1, a3, -0x1
   1881e: b3 f7 67 00  	and	a5, a5, t1
   18822: b3 f7 07 01  	and	a5, a5, a6
   18826: ed d3        	c.beqz	a5, 0x18808 <strncpy+0x70>
   18828: 51 bf        	c.j	0x187bc <strncpy+0x24>
   1882a: 82 80        	c.jr	ra

000000000001882c <_setlocale_r>:
   1882c: 01 11        	c.addi	sp, -0x20
   1882e: 06 ec        	c.sdsp	ra, 0x18(sp)
   18830: 26 e4        	c.sdsp	s1, 0x8(sp)
   18832: 05 c6        	c.beqz	a2, 0x1885a <_setlocale_r+0x2e>
   18834: b7 75 02 00  	lui	a1, 0x27
   18838: 93 85 05 3f  	addi	a1, a1, 0x3f0
   1883c: 32 85        	c.mv	a0, a2
   1883e: 22 e8        	c.sdsp	s0, 0x10(sp)
   18840: 32 84        	c.mv	s0, a2
   18842: ef 00 40 22  	jal	ra, 0x18a66 <strcmp>
   18846: b7 74 02 00  	lui	s1, 0x27
   1884a: 19 e9        	c.bnez	a0, 0x18860 <_setlocale_r+0x34>
   1884c: 42 64        	c.ldsp	s0, 0x10(sp)
   1884e: 13 85 84 3e  	addi	a0, s1, 0x3e8
   18852: e2 60        	c.ldsp	ra, 0x18(sp)
   18854: a2 64        	c.ldsp	s1, 0x8(sp)
   18856: 05 61        	c.addi16sp	sp, 0x20
   18858: 82 80        	c.jr	ra
   1885a: b7 74 02 00  	lui	s1, 0x27
   1885e: c5 bf        	c.j	0x1884e <_setlocale_r+0x22>
   18860: 93 85 84 3e  	addi	a1, s1, 0x3e8
   18864: 22 85        	c.mv	a0, s0
   18866: ef 00 00 20  	jal	ra, 0x18a66 <strcmp>
   1886a: 6d d1        	c.beqz	a0, 0x1884c <_setlocale_r+0x20>
   1886c: b7 75 02 00  	lui	a1, 0x27
   18870: 93 85 05 3d  	addi	a1, a1, 0x3d0
   18874: 22 85        	c.mv	a0, s0
   18876: ef 00 00 1f  	jal	ra, 0x18a66 <strcmp>
   1887a: 69 d9        	c.beqz	a0, 0x1884c <_setlocale_r+0x20>
   1887c: 42 64        	c.ldsp	s0, 0x10(sp)
   1887e: 01 45        	c.li	a0, 0x0
   18880: c9 bf        	c.j	0x18852 <_setlocale_r+0x26>

0000000000018882 <__locale_mb_cur_max>:
   18882: 03 c5 81 13  	lbu	a0, 0x138(gp)
   18886: 82 80        	c.jr	ra

0000000000018888 <setlocale>:
   18888: 01 11        	c.addi	sp, -0x20
   1888a: 06 ec        	c.sdsp	ra, 0x18(sp)
   1888c: 26 e4        	c.sdsp	s1, 0x8(sp)
   1888e: 85 c5        	c.beqz	a1, 0x188b6 <setlocale+0x2e>
   18890: 22 e8        	c.sdsp	s0, 0x10(sp)
   18892: 2e 84        	c.mv	s0, a1
   18894: b7 75 02 00  	lui	a1, 0x27
   18898: 93 85 05 3f  	addi	a1, a1, 0x3f0
   1889c: 22 85        	c.mv	a0, s0
   1889e: ef 00 80 1c  	jal	ra, 0x18a66 <strcmp>
   188a2: b7 74 02 00  	lui	s1, 0x27
   188a6: 19 e9        	c.bnez	a0, 0x188bc <setlocale+0x34>
   188a8: 42 64        	c.ldsp	s0, 0x10(sp)
   188aa: 13 85 84 3e  	addi	a0, s1, 0x3e8
   188ae: e2 60        	c.ldsp	ra, 0x18(sp)
   188b0: a2 64        	c.ldsp	s1, 0x8(sp)
   188b2: 05 61        	c.addi16sp	sp, 0x20
   188b4: 82 80        	c.jr	ra
   188b6: b7 74 02 00  	lui	s1, 0x27
   188ba: c5 bf        	c.j	0x188aa <setlocale+0x22>
   188bc: 93 85 84 3e  	addi	a1, s1, 0x3e8
   188c0: 22 85        	c.mv	a0, s0
   188c2: ef 00 40 1a  	jal	ra, 0x18a66 <strcmp>
   188c6: 6d d1        	c.beqz	a0, 0x188a8 <setlocale+0x20>
   188c8: b7 75 02 00  	lui	a1, 0x27
   188cc: 93 85 05 3d  	addi	a1, a1, 0x3d0
   188d0: 22 85        	c.mv	a0, s0
   188d2: ef 00 40 19  	jal	ra, 0x18a66 <strcmp>
   188d6: 69 d9        	c.beqz	a0, 0x188a8 <setlocale+0x20>
   188d8: 42 64        	c.ldsp	s0, 0x10(sp)
   188da: 01 45        	c.li	a0, 0x0
   188dc: c9 bf        	c.j	0x188ae <setlocale+0x26>

00000000000188de <__localeconv_l>:
   188de: 13 05 05 10  	addi	a0, a0, 0x100
   188e2: 82 80        	c.jr	ra

00000000000188e4 <_localeconv_r>:
   188e4: 13 85 81 0d  	addi	a0, gp, 0xd8
   188e8: 82 80        	c.jr	ra

00000000000188ea <localeconv>:
   188ea: 13 85 81 0d  	addi	a0, gp, 0xd8
   188ee: 82 80        	c.jr	ra

00000000000188f0 <_isatty_r>:
   188f0: 01 11        	c.addi	sp, -0x20
   188f2: 22 e8        	c.sdsp	s0, 0x10(sp)
   188f4: 26 e4        	c.sdsp	s1, 0x8(sp)
   188f6: 2a 84        	c.mv	s0, a0
   188f8: 2e 85        	c.mv	a0, a1
   188fa: 06 ec        	c.sdsp	ra, 0x18(sp)
   188fc: 23 a0 01 24  	sw	zero, 0x240(gp)
   18900: ef 30 00 10  	jal	ra, 0x1ba00 <_isatty>
   18904: fd 57        	c.li	a5, -0x1
   18906: 63 07 f5 00  	beq	a0, a5, 0x18914 <_isatty_r+0x24>
   1890a: e2 60        	c.ldsp	ra, 0x18(sp)
   1890c: 42 64        	c.ldsp	s0, 0x10(sp)
   1890e: a2 64        	c.ldsp	s1, 0x8(sp)
   18910: 05 61        	c.addi16sp	sp, 0x20
   18912: 82 80        	c.jr	ra
   18914: 83 a7 01 24  	lw	a5, 0x240(gp)
   18918: ed db        	c.beqz	a5, 0x1890a <_isatty_r+0x1a>
   1891a: e2 60        	c.ldsp	ra, 0x18(sp)
   1891c: 1c c0        	c.sw	a5, 0x0(s0)
   1891e: 42 64        	c.ldsp	s0, 0x10(sp)
   18920: a2 64        	c.ldsp	s1, 0x8(sp)
   18922: 05 61        	c.addi16sp	sp, 0x20
   18924: 82 80        	c.jr	ra

0000000000018926 <_sbrk_r>:
   18926: 01 11        	c.addi	sp, -0x20
   18928: 22 e8        	c.sdsp	s0, 0x10(sp)
   1892a: 26 e4        	c.sdsp	s1, 0x8(sp)
   1892c: 2a 84        	c.mv	s0, a0
   1892e: 2e 85        	c.mv	a0, a1
   18930: 06 ec        	c.sdsp	ra, 0x18(sp)
   18932: 23 a0 01 24  	sw	zero, 0x240(gp)
   18936: ef 30 80 18  	jal	ra, 0x1babe <_sbrk>
   1893a: fd 57        	c.li	a5, -0x1
   1893c: 63 07 f5 00  	beq	a0, a5, 0x1894a <_sbrk_r+0x24>
   18940: e2 60        	c.ldsp	ra, 0x18(sp)
   18942: 42 64        	c.ldsp	s0, 0x10(sp)
   18944: a2 64        	c.ldsp	s1, 0x8(sp)
   18946: 05 61        	c.addi16sp	sp, 0x20
   18948: 82 80        	c.jr	ra
   1894a: 83 a7 01 24  	lw	a5, 0x240(gp)
   1894e: ed db        	c.beqz	a5, 0x18940 <_sbrk_r+0x1a>
   18950: e2 60        	c.ldsp	ra, 0x18(sp)
   18952: 1c c0        	c.sw	a5, 0x0(s0)
   18954: 42 64        	c.ldsp	s0, 0x10(sp)
   18956: a2 64        	c.ldsp	s1, 0x8(sp)
   18958: 05 61        	c.addi16sp	sp, 0x20
   1895a: 82 80        	c.jr	ra

000000000001895c <__libc_fini_array>:
   1895c: 01 11        	c.addi	sp, -0x20
   1895e: 22 e8        	c.sdsp	s0, 0x10(sp)
   18960: b7 97 02 00  	lui	a5, 0x29
   18964: 37 94 02 00  	lui	s0, 0x29
   18968: 93 87 87 c9  	addi	a5, a5, -0x368
   1896c: 13 04 04 ca  	addi	s0, s0, -0x360
   18970: 1d 8c        	c.sub	s0, a5
   18972: 26 e4        	c.sdsp	s1, 0x8(sp)
   18974: 06 ec        	c.sdsp	ra, 0x18(sp)
   18976: 93 54 34 40  	srai	s1, s0, 0x3
   1897a: 81 c8        	c.beqz	s1, 0x1898a <__libc_fini_array+0x2e>
   1897c: 61 14        	c.addi	s0, -0x8
   1897e: 3e 94        	c.add	s0, a5
   18980: 1c 60        	c.ld	a5, 0x0(s0)
   18982: fd 14        	c.addi	s1, -0x1
   18984: 61 14        	c.addi	s0, -0x8
   18986: 82 97        	c.jalr	a5
   18988: e5 fc        	c.bnez	s1, 0x18980 <__libc_fini_array+0x24>
   1898a: e2 60        	c.ldsp	ra, 0x18(sp)
   1898c: 42 64        	c.ldsp	s0, 0x10(sp)
   1898e: a2 64        	c.ldsp	s1, 0x8(sp)
   18990: 05 61        	c.addi16sp	sp, 0x20
   18992: 82 80        	c.jr	ra

0000000000018994 <memmove>:
   18994: 63 f2 a5 02  	bgeu	a1, a0, 0x189b8 <memmove+0x24>
   18998: 33 87 c5 00  	add	a4, a1, a2
   1899c: 63 7e e5 00  	bgeu	a0, a4, 0x189b8 <memmove+0x24>
   189a0: b3 07 c5 00  	add	a5, a0, a2
   189a4: 1d ca        	c.beqz	a2, 0x189da <memmove+0x46>
   189a6: 83 46 f7 ff  	lbu	a3, -0x1(a4)
   189aa: fd 17        	c.addi	a5, -0x1
   189ac: 7d 17        	c.addi	a4, -0x1
   189ae: 23 80 d7 00  	sb	a3, 0x0(a5)
   189b2: e3 1a f5 fe  	bne	a0, a5, 0x189a6 <memmove+0x12>
   189b6: 82 80        	c.jr	ra
   189b8: fd 47        	c.li	a5, 0x1f
   189ba: 63 e1 c7 02  	bltu	a5, a2, 0x189dc <memmove+0x48>
   189be: aa 87        	c.mv	a5, a0
   189c0: 93 06 f6 ff  	addi	a3, a2, -0x1
   189c4: 51 ce        	c.beqz	a2, 0x18a60 <memmove+0xcc>
   189c6: 85 06        	c.addi	a3, 0x1
   189c8: be 96        	c.add	a3, a5
   189ca: 03 c7 05 00  	lbu	a4, 0x0(a1)
   189ce: 85 07        	c.addi	a5, 0x1
   189d0: 85 05        	c.addi	a1, 0x1
   189d2: a3 8f e7 fe  	sb	a4, -0x1(a5)
   189d6: e3 9a d7 fe  	bne	a5, a3, 0x189ca <memmove+0x36>
   189da: 82 80        	c.jr	ra
   189dc: b3 67 b5 00  	or	a5, a0, a1
   189e0: 9d 8b        	c.andi	a5, 0x7
   189e2: bd eb        	c.bnez	a5, 0x18a58 <memmove+0xc4>
   189e4: 93 08 06 fe  	addi	a7, a2, -0x20
   189e8: 93 f8 08 fe  	andi	a7, a7, -0x20
   189ec: 93 88 08 02  	addi	a7, a7, 0x20
   189f0: b3 06 15 01  	add	a3, a0, a7
   189f4: 2e 87        	c.mv	a4, a1
   189f6: aa 87        	c.mv	a5, a0
   189f8: 03 38 07 00  	ld	a6, 0x0(a4)
   189fc: 13 07 07 02  	addi	a4, a4, 0x20
   18a00: 93 87 07 02  	addi	a5, a5, 0x20
   18a04: 23 b0 07 ff  	sd	a6, -0x20(a5)
   18a08: 03 38 87 fe  	ld	a6, -0x18(a4)
   18a0c: 23 b4 07 ff  	sd	a6, -0x18(a5)
   18a10: 03 38 07 ff  	ld	a6, -0x10(a4)
   18a14: 23 b8 07 ff  	sd	a6, -0x10(a5)
   18a18: 03 38 87 ff  	ld	a6, -0x8(a4)
   18a1c: 23 bc 07 ff  	sd	a6, -0x8(a5)
   18a20: e3 9c d7 fc  	bne	a5, a3, 0x189f8 <memmove+0x64>
   18a24: 13 78 86 01  	andi	a6, a2, 0x18
   18a28: c6 95        	c.add	a1, a7
   18a2a: 13 77 f6 01  	andi	a4, a2, 0x1f
   18a2e: 63 0a 08 02  	beq	a6, zero, 0x18a62 <memmove+0xce>
   18a32: 13 08 87 ff  	addi	a6, a4, -0x8
   18a36: 13 78 88 ff  	andi	a6, a6, -0x8
   18a3a: 21 08        	c.addi	a6, 0x8
   18a3c: b3 87 06 01  	add	a5, a3, a6
   18a40: 2e 87        	c.mv	a4, a1
   18a42: 83 38 07 00  	ld	a7, 0x0(a4)
   18a46: a1 06        	c.addi	a3, 0x8
   18a48: 21 07        	c.addi	a4, 0x8
   18a4a: 23 bc 16 ff  	sd	a7, -0x8(a3)
   18a4e: e3 9a f6 fe  	bne	a3, a5, 0x18a42 <memmove+0xae>
   18a52: 1d 8a        	c.andi	a2, 0x7
   18a54: c2 95        	c.add	a1, a6
   18a56: ad b7        	c.j	0x189c0 <memmove+0x2c>
   18a58: 93 06 f6 ff  	addi	a3, a2, -0x1
   18a5c: aa 87        	c.mv	a5, a0
   18a5e: a5 b7        	c.j	0x189c6 <memmove+0x32>
   18a60: 82 80        	c.jr	ra
   18a62: 3a 86        	c.mv	a2, a4
   18a64: b1 bf        	c.j	0x189c0 <memmove+0x2c>

0000000000018a66 <strcmp>:
   18a66: 33 67 b5 00  	or	a4, a0, a1
   18a6a: fd 53        	c.li	t2, -0x1
   18a6c: 1d 8b        	c.andi	a4, 0x7
   18a6e: 4d eb        	c.bnez	a4, 0x18b20 <strcmp+0xba>
   18a70: 97 17 01 00  	auipc	a5, 0x11
   18a74: 83 b7 87 d5  	ld	a5, -0x2a8(a5)
   18a78: 10 61        	c.ld	a2, 0x0(a0)
   18a7a: 94 61        	c.ld	a3, 0x0(a1)
   18a7c: b3 72 f6 00  	and	t0, a2, a5
   18a80: 33 63 f6 00  	or	t1, a2, a5
   18a84: be 92        	c.add	t0, a5
   18a86: b3 e2 62 00  	or	t0, t0, t1
   18a8a: 63 99 72 0a  	bne	t0, t2, 0x18b3c <strcmp+0xd6>
   18a8e: 63 1e d6 02  	bne	a2, a3, 0x18aca <strcmp+0x64>
   18a92: 10 65        	c.ld	a2, 0x8(a0)
   18a94: 94 65        	c.ld	a3, 0x8(a1)
   18a96: b3 72 f6 00  	and	t0, a2, a5
   18a9a: 33 63 f6 00  	or	t1, a2, a5
   18a9e: be 92        	c.add	t0, a5
   18aa0: b3 e2 62 00  	or	t0, t0, t1
   18aa4: 63 9a 72 08  	bne	t0, t2, 0x18b38 <strcmp+0xd2>
   18aa8: 63 11 d6 02  	bne	a2, a3, 0x18aca <strcmp+0x64>
   18aac: 10 69        	c.ld	a2, 0x10(a0)
   18aae: 94 69        	c.ld	a3, 0x10(a1)
   18ab0: b3 72 f6 00  	and	t0, a2, a5
   18ab4: 33 63 f6 00  	or	t1, a2, a5
   18ab8: be 92        	c.add	t0, a5
   18aba: b3 e2 62 00  	or	t0, t0, t1
   18abe: 63 93 72 08  	bne	t0, t2, 0x18b44 <strcmp+0xde>
   18ac2: 61 05        	c.addi	a0, 0x18
   18ac4: e1 05        	c.addi	a1, 0x18
   18ac6: e3 09 d6 fa  	beq	a2, a3, 0x18a78 <strcmp+0x12>
   18aca: 13 17 06 03  	slli	a4, a2, 0x30
   18ace: 93 97 06 03  	slli	a5, a3, 0x30
   18ad2: 63 18 f7 02  	bne	a4, a5, 0x18b02 <strcmp+0x9c>
   18ad6: 13 17 06 02  	slli	a4, a2, 0x20
   18ada: 93 97 06 02  	slli	a5, a3, 0x20
   18ade: 63 12 f7 02  	bne	a4, a5, 0x18b02 <strcmp+0x9c>
   18ae2: 13 17 06 01  	slli	a4, a2, 0x10
   18ae6: 93 97 06 01  	slli	a5, a3, 0x10
   18aea: 63 1c f7 00  	bne	a4, a5, 0x18b02 <strcmp+0x9c>
   18aee: 13 57 06 03  	srli	a4, a2, 0x30
   18af2: 93 d7 06 03  	srli	a5, a3, 0x30
   18af6: 33 05 f7 40  	sub	a0, a4, a5
   18afa: 93 75 f5 0f  	andi	a1, a0, 0xff
   18afe: 91 e9        	c.bnez	a1, 0x18b12 <strcmp+0xac>
   18b00: 82 80        	c.jr	ra
   18b02: 41 93        	c.srli	a4, 0x30
   18b04: c1 93        	c.srli	a5, 0x30
   18b06: 33 05 f7 40  	sub	a0, a4, a5
   18b0a: 93 75 f5 0f  	andi	a1, a0, 0xff
   18b0e: 91 e1        	c.bnez	a1, 0x18b12 <strcmp+0xac>
   18b10: 82 80        	c.jr	ra
   18b12: 13 77 f7 0f  	andi	a4, a4, 0xff
   18b16: 93 f7 f7 0f  	andi	a5, a5, 0xff
   18b1a: 33 05 f7 40  	sub	a0, a4, a5
   18b1e: 82 80        	c.jr	ra
   18b20: 03 46 05 00  	lbu	a2, 0x0(a0)
   18b24: 83 c6 05 00  	lbu	a3, 0x0(a1)
   18b28: 05 05        	c.addi	a0, 0x1
   18b2a: 85 05        	c.addi	a1, 0x1
   18b2c: 63 13 d6 00  	bne	a2, a3, 0x18b32 <strcmp+0xcc>
   18b30: 65 fa        	c.bnez	a2, 0x18b20 <strcmp+0xba>
   18b32: 33 05 d6 40  	sub	a0, a2, a3
   18b36: 82 80        	c.jr	ra
   18b38: 21 05        	c.addi	a0, 0x8
   18b3a: a1 05        	c.addi	a1, 0x8
   18b3c: e3 12 d6 fe  	bne	a2, a3, 0x18b20 <strcmp+0xba>
   18b40: 01 45        	c.li	a0, 0x0
   18b42: 82 80        	c.jr	ra
   18b44: 41 05        	c.addi	a0, 0x10
   18b46: c1 05        	c.addi	a1, 0x10
   18b48: e3 1c d6 fc  	bne	a2, a3, 0x18b20 <strcmp+0xba>
   18b4c: 01 45        	c.li	a0, 0x0
   18b4e: 82 80        	c.jr	ra

0000000000018b50 <frexpl>:
   18b50: 39 71        	c.addi16sp	sp, -0x40
   18b52: 4a f0        	c.sdsp	s2, 0x20(sp)
   18b54: 21 69        	c.lui	s2, 0x8
   18b56: 22 f8        	c.sdsp	s0, 0x30(sp)
   18b58: 26 f4        	c.sdsp	s1, 0x28(sp)
   18b5a: 5a e0        	c.sdsp	s6, 0x0(sp)
   18b5c: 06 fc        	c.sdsp	ra, 0x38(sp)
   18b5e: 93 d4 05 03  	srli	s1, a1, 0x30
   18b62: 7d 19        	c.addi	s2, -0x1
   18b64: b3 f4 24 01  	and	s1, s1, s2
   18b68: 23 20 06 00  	sw	zero, 0x0(a2)
   18b6c: 2e 84        	c.mv	s0, a1
   18b6e: 2a 8b        	c.mv	s6, a0
   18b70: 63 84 24 05  	beq	s1, s2, 0x18bb8 <frexpl+0x68>
   18b74: 56 e4        	c.sdsp	s5, 0x8(sp)
   18b76: 81 46        	c.li	a3, 0x0
   18b78: b2 8a        	c.mv	s5, a2
   18b7a: 01 46        	c.li	a2, 0x0
   18b7c: 4e ec        	c.sdsp	s3, 0x18(sp)
   18b7e: 52 e8        	c.sdsp	s4, 0x10(sp)
   18b80: ae 89        	c.mv	s3, a1
   18b82: 2a 8a        	c.mv	s4, a0
   18b84: ef 30 80 00  	jal	ra, 0x1bb8c <__netf2>
   18b88: 25 c1        	c.beqz	a0, 0x18be8 <frexpl+0x98>
   18b8a: 81 46        	c.li	a3, 0x0
   18b8c: 8d cc        	c.beqz	s1, 0x18bc6 <frexpl+0x76>
   18b8e: 71 77        	c.lui	a4, 0xffffc
   18b90: b7 17 00 f8  	lui	a5, 0xf8001
   18b94: 09 27        	c.addiw	a4, 0x2
   18b96: 92 17        	c.slli	a5, 0x24
   18b98: b9 9c        	c.addw	s1, a4
   18b9a: fd 17        	c.addi	a5, -0x1
   18b9c: 37 f4 ff 01  	lui	s0, 0x1fff
   18ba0: b3 f9 f9 00  	and	s3, s3, a5
   18ba4: b5 9c        	c.addw	s1, a3
   18ba6: 16 14        	c.slli	s0, 0x25
   18ba8: 23 a0 9a 00  	sw	s1, 0x0(s5)
   18bac: 52 85        	c.mv	a0, s4
   18bae: b3 e5 89 00  	or	a1, s3, s0
   18bb2: 42 6a        	c.ldsp	s4, 0x10(sp)
   18bb4: e2 69        	c.ldsp	s3, 0x18(sp)
   18bb6: a2 6a        	c.ldsp	s5, 0x8(sp)
   18bb8: e2 70        	c.ldsp	ra, 0x38(sp)
   18bba: 42 74        	c.ldsp	s0, 0x30(sp)
   18bbc: a2 74        	c.ldsp	s1, 0x28(sp)
   18bbe: 02 79        	c.ldsp	s2, 0x20(sp)
   18bc0: 02 6b        	c.ldsp	s6, 0x0(sp)
   18bc2: 21 61        	c.addi16sp	sp, 0x40
   18bc4: 82 80        	c.jr	ra
   18bc6: b7 16 07 04  	lui	a3, 0x4071
   18bca: 92 16        	c.slli	a3, 0x24
   18bcc: 01 46        	c.li	a2, 0x0
   18bce: 5a 85        	c.mv	a0, s6
   18bd0: a2 85        	c.mv	a1, s0
   18bd2: ef 30 e0 19  	jal	ra, 0x1bd70 <__multf3>
   18bd6: 93 d4 05 03  	srli	s1, a1, 0x30
   18bda: ae 89        	c.mv	s3, a1
   18bdc: 2a 8a        	c.mv	s4, a0
   18bde: b3 f4 24 01  	and	s1, s1, s2
   18be2: 93 06 e0 f8  	addi	a3, zero, -0x72
   18be6: 65 b7        	c.j	0x18b8e <frexpl+0x3e>
   18be8: e2 70        	c.ldsp	ra, 0x38(sp)
   18bea: a2 85        	c.mv	a1, s0
   18bec: 42 74        	c.ldsp	s0, 0x30(sp)
   18bee: e2 69        	c.ldsp	s3, 0x18(sp)
   18bf0: 42 6a        	c.ldsp	s4, 0x10(sp)
   18bf2: a2 6a        	c.ldsp	s5, 0x8(sp)
   18bf4: a2 74        	c.ldsp	s1, 0x28(sp)
   18bf6: 02 79        	c.ldsp	s2, 0x20(sp)
   18bf8: 5a 85        	c.mv	a0, s6
   18bfa: 02 6b        	c.ldsp	s6, 0x0(sp)
   18bfc: 21 61        	c.addi16sp	sp, 0x40
   18bfe: 82 80        	c.jr	ra

0000000000018c00 <__register_exitproc>:
   18c00: 83 b7 81 24  	ld	a5, 0x248(gp)
   18c04: b1 c3        	c.beqz	a5, 0x18c48 <__register_exitproc+0x48>
   18c06: 98 47        	c.lw	a4, 0x8(a5)
   18c08: 7d 48        	c.li	a6, 0x1f
   18c0a: 63 46 e8 06  	blt	a6, a4, 0x18c76 <__register_exitproc+0x76>
   18c0e: 05 c5        	c.beqz	a0, 0x18c36 <__register_exitproc+0x36>
   18c10: 13 18 37 00  	slli	a6, a4, 0x3
   18c14: 3e 98        	c.add	a6, a5
   18c16: 23 38 c8 10  	sd	a2, 0x110(a6)
   18c1a: 83 a8 07 31  	lw	a7, 0x310(a5)
   18c1e: 05 46        	c.li	a2, 0x1
   18c20: 3b 16 e6 00  	sllw	a2, a2, a4
   18c24: b3 e8 c8 00  	or	a7, a7, a2
   18c28: 23 a8 17 31  	sw	a7, 0x310(a5)
   18c2c: 23 38 d8 20  	sd	a3, 0x210(a6)
   18c30: 89 46        	c.li	a3, 0x2
   18c32: 63 04 d5 02  	beq	a0, a3, 0x18c5a <__register_exitproc+0x5a>
   18c36: 93 06 27 00  	addi	a3, a4, 0x2
   18c3a: 8e 06        	c.slli	a3, 0x3
   18c3c: 05 27        	c.addiw	a4, 0x1
   18c3e: 98 c7        	c.sw	a4, 0x8(a5)
   18c40: b6 97        	c.add	a5, a3
   18c42: 8c e3        	c.sd	a1, 0x0(a5)
   18c44: 01 45        	c.li	a0, 0x0
   18c46: 82 80        	c.jr	ra
   18c48: b7 a7 02 00  	lui	a5, 0x2a
   18c4c: 13 88 07 b3  	addi	a6, a5, -0x4d0
   18c50: 23 b4 01 25  	sd	a6, 0x248(gp)
   18c54: 93 87 07 b3  	addi	a5, a5, -0x4d0
   18c58: 7d b7        	c.j	0x18c06 <__register_exitproc+0x6>
   18c5a: 83 a6 47 31  	lw	a3, 0x314(a5)
   18c5e: 01 45        	c.li	a0, 0x0
   18c60: d1 8e        	c.or	a3, a2
   18c62: 23 aa d7 30  	sw	a3, 0x314(a5)
   18c66: 93 06 27 00  	addi	a3, a4, 0x2
   18c6a: 8e 06        	c.slli	a3, 0x3
   18c6c: 05 27        	c.addiw	a4, 0x1
   18c6e: 98 c7        	c.sw	a4, 0x8(a5)
   18c70: b6 97        	c.add	a5, a3
   18c72: 8c e3        	c.sd	a1, 0x0(a5)
   18c74: 82 80        	c.jr	ra
   18c76: 7d 55        	c.li	a0, -0x1
   18c78: 82 80        	c.jr	ra

0000000000018c7a <_ldtoa_r>:
   18c7a: 37 73 02 00  	lui	t1, 0x27
   18c7e: 13 03 03 7f  	addi	t1, t1, 0x7f0
   18c82: 03 3f 03 00  	ld	t5, 0x0(t1)
   18c86: 83 3e 83 00  	ld	t4, 0x8(t1)
   18c8a: 03 2e 03 01  	lw	t3, 0x10(t1)
   18c8e: 03 33 05 05  	ld	t1, 0x50(a0)
   18c92: 71 71        	c.addi16sp	sp, -0xb0
   18c94: 26 ed        	c.sdsp	s1, 0x98(sp)
   18c96: 4a e9        	c.sdsp	s2, 0x90(sp)
   18c98: 52 e1        	c.sdsp	s4, 0x80(sp)
   18c9a: da f8        	c.sdsp	s6, 0x70(sp)
   18c9c: de f4        	c.sdsp	s7, 0x68(sp)
   18c9e: e2 f0        	c.sdsp	s8, 0x60(sp)
   18ca0: e6 ec        	c.sdsp	s9, 0x58(sp)
   18ca2: ea e8        	c.sdsp	s10, 0x50(sp)
   18ca4: 06 f5        	c.sdsp	ra, 0xa8(sp)
   18ca6: 22 f1        	c.sdsp	s0, 0xa0(sp)
   18ca8: 4e e5        	c.sdsp	s3, 0x88(sp)
   18caa: d6 fc        	c.sdsp	s5, 0x78(sp)
   18cac: ee e4        	c.sdsp	s11, 0x48(sp)
   18cae: 7a f4        	c.sdsp	t5, 0x28(sp)
   18cb0: 76 f8        	c.sdsp	t4, 0x30(sp)
   18cb2: 72 dc        	c.swsp	t3, 0x38(sp)
   18cb4: 2a 8b        	c.mv	s6, a0
   18cb6: 2e 89        	c.mv	s2, a1
   18cb8: b2 84        	c.mv	s1, a2
   18cba: 36 8c        	c.mv	s8, a3
   18cbc: ba 8c        	c.mv	s9, a4
   18cbe: be 8b        	c.mv	s7, a5
   18cc0: 42 8a        	c.mv	s4, a6
   18cc2: 46 8d        	c.mv	s10, a7
   18cc4: 63 01 03 02  	beq	t1, zero, 0x18ce6 <_ldtoa_r+0x6c>
   18cc8: 3c 4d        	c.lw	a5, 0x58(a0)
   18cca: 05 47        	c.li	a4, 0x1
   18ccc: 9a 85        	c.mv	a1, t1
   18cce: 3b 17 f7 00  	sllw	a4, a4, a5
   18cd2: 82 17        	c.slli	a5, 0x20
   18cd4: 02 17        	c.slli	a4, 0x20
   18cd6: 81 93        	c.srli	a5, 0x20
   18cd8: d9 8f        	c.or	a5, a4
   18cda: 23 34 f3 00  	sd	a5, 0x8(t1)
   18cde: ef 10 20 58  	jal	ra, 0x1a260 <_Bfree>
   18ce2: 23 38 0b 04  	sd	zero, 0x50(s6)
   18ce6: d2 57        	c.lwsp	a5, 0x34(sp)
   18ce8: 93 a5 04 00  	slti	a1, s1, 0x0
   18cec: 13 94 14 00  	slli	s0, s1, 0x1
   18cf0: 1b d7 17 40  	sraiw	a4, a5, 0x1
   18cf4: 93 d9 04 02  	srli	s3, s1, 0x20
   18cf8: f9 8d        	c.and	a1, a4
   18cfa: 05 80        	c.srli	s0, 0x1
   18cfc: 93 a6 04 00  	slti	a3, s1, 0x0
   18d00: 93 9a 14 00  	slli	s5, s1, 0x1
   18d04: 71 77        	c.lui	a4, 0xffffc
   18d06: 9b 99 09 01  	slliw	s3, s3, 0x10
   18d0a: ad 8f        	c.xor	a5, a1
   18d0c: 93 da 1a 03  	srli	s5, s5, 0x31
   18d10: 1b 07 17 f9  	addiw	a4, a4, -0x6f
   18d14: 9b d9 09 01  	srliw	s3, s3, 0x10
   18d18: 23 20 da 00  	sw	a3, 0x0(s4)
   18d1c: 4a 86        	c.mv	a2, s2
   18d1e: a2 86        	c.mv	a3, s0
   18d20: 4a 85        	c.mv	a0, s2
   18d22: a2 85        	c.mv	a1, s0
   18d24: 3e da        	c.swsp	a5, 0x34(sp)
   18d26: bb 8d ea 00  	addw	s11, s5, a4
   18d2a: 4a ec        	c.sdsp	s2, 0x18(sp)
   18d2c: 26 d0        	c.swsp	s1, 0x20(sp)
   18d2e: 4e d2        	c.swsp	s3, 0x24(sp)
   18d30: ef 30 90 60  	jal	ra, 0x1cb38 <__unordtf2>
   18d34: 5d e9        	c.bnez	a0, 0x18dea <_ldtoa_r+0x170>
   18d36: 37 fa ff 07  	lui	s4, 0x7fff
   18d3a: 12 1a        	c.slli	s4, 0x24
   18d3c: 7d 1a        	c.addi	s4, -0x1
   18d3e: 7d 56        	c.li	a2, -0x1
   18d40: d2 86        	c.mv	a3, s4
   18d42: 4a 85        	c.mv	a0, s2
   18d44: a2 85        	c.mv	a1, s0
   18d46: ef 30 30 5f  	jal	ra, 0x1cb38 <__unordtf2>
   18d4a: 39 ed        	c.bnez	a0, 0x18da8 <_ldtoa_r+0x12e>
   18d4c: 7d 56        	c.li	a2, -0x1
   18d4e: d2 86        	c.mv	a3, s4
   18d50: 4a 85        	c.mv	a0, s2
   18d52: a2 85        	c.mv	a1, s0
   18d54: ef 20 f0 77  	jal	ra, 0x1bcd2 <__lttf2>
   18d58: 63 58 a0 04  	bge	zero, a0, 0x18da8 <_ldtoa_r+0x12e>
   18d5c: 8d 47        	c.li	a5, 0x3
   18d5e: 3e ca        	c.swsp	a5, 0x14(sp)
   18d60: e2 87        	c.mv	a5, s8
   18d62: 58 08        	c.addi4spn	a4, sp, 0x14
   18d64: 6a e0        	c.sdsp	s10, 0x0(sp)
   18d66: de 88        	c.mv	a7, s7
   18d68: 66 88        	c.mv	a6, s9
   18d6a: 34 08        	c.addi4spn	a3, sp, 0x18
   18d6c: 6e 86        	c.mv	a2, s11
   18d6e: 2c 10        	c.addi4spn	a1, sp, 0x28
   18d70: 5a 85        	c.mv	a0, s6
   18d72: ef 00 e0 0e  	jal	ra, 0x18e60 <__gdtoa>
   18d76: 03 a7 0b 00  	lw	a4, 0x0(s7)
   18d7a: e1 77        	c.lui	a5, 0xffff8
   18d7c: 63 17 f7 00  	bne	a4, a5, 0x18d8a <_ldtoa_r+0x110>
   18d80: b7 07 00 80  	lui	a5, 0x80000
   18d84: fd 17        	c.addi	a5, -0x1
   18d86: 23 a0 fb 00  	sw	a5, 0x0(s7)
   18d8a: aa 70        	c.ldsp	ra, 0xa8(sp)
   18d8c: 0a 74        	c.ldsp	s0, 0xa0(sp)
   18d8e: ea 64        	c.ldsp	s1, 0x98(sp)
   18d90: 4a 69        	c.ldsp	s2, 0x90(sp)
   18d92: aa 69        	c.ldsp	s3, 0x88(sp)
   18d94: 0a 6a        	c.ldsp	s4, 0x80(sp)
   18d96: e6 7a        	c.ldsp	s5, 0x78(sp)
   18d98: 46 7b        	c.ldsp	s6, 0x70(sp)
   18d9a: a6 7b        	c.ldsp	s7, 0x68(sp)
   18d9c: 06 7c        	c.ldsp	s8, 0x60(sp)
   18d9e: e6 6c        	c.ldsp	s9, 0x58(sp)
   18da0: 46 6d        	c.ldsp	s10, 0x50(sp)
   18da2: a6 6d        	c.ldsp	s11, 0x48(sp)
   18da4: 4d 61        	c.addi16sp	sp, 0xb0
   18da6: 82 80        	c.jr	ra
   18da8: 85 46        	c.li	a3, 0x1
   18daa: 01 46        	c.li	a2, 0x0
   18dac: c2 16        	c.slli	a3, 0x30
   18dae: 4a 85        	c.mv	a0, s2
   18db0: a2 85        	c.mv	a1, s0
   18db2: ef 20 30 68  	jal	ra, 0x1bc34 <__gttf2>
   18db6: 63 49 05 00  	blt	a0, zero, 0x18dc8 <_ldtoa_r+0x14e>
   18dba: c1 67        	c.lui	a5, 0x10
   18dbc: b3 e9 f9 00  	or	s3, s3, a5
   18dc0: 85 47        	c.li	a5, 0x1
   18dc2: 3e ca        	c.swsp	a5, 0x14(sp)
   18dc4: 4e d2        	c.swsp	s3, 0x24(sp)
   18dc6: 69 bf        	c.j	0x18d60 <_ldtoa_r+0xe6>
   18dc8: 01 46        	c.li	a2, 0x0
   18dca: 81 46        	c.li	a3, 0x0
   18dcc: 4a 85        	c.mv	a0, s2
   18dce: a6 85        	c.mv	a1, s1
   18dd0: ef 20 d0 5b  	jal	ra, 0x1bb8c <__netf2>
   18dd4: 19 e1        	c.bnez	a0, 0x18dda <_ldtoa_r+0x160>
   18dd6: 02 ca        	c.swsp	zero, 0x14(sp)
   18dd8: 61 b7        	c.j	0x18d60 <_ldtoa_r+0xe6>
   18dda: 71 77        	c.lui	a4, 0xffffc
   18ddc: 1b 07 27 f9  	addiw	a4, a4, -0x6e
   18de0: 89 47        	c.li	a5, 0x2
   18de2: 3e ca        	c.swsp	a5, 0x14(sp)
   18de4: bb 8d ea 00  	addw	s11, s5, a4
   18de8: a5 bf        	c.j	0x18d60 <_ldtoa_r+0xe6>
   18dea: 91 47        	c.li	a5, 0x4
   18dec: 3e ca        	c.swsp	a5, 0x14(sp)
   18dee: 8d bf        	c.j	0x18d60 <_ldtoa_r+0xe6>

0000000000018df0 <_ldcheck>:
   18df0: 79 71        	c.addi16sp	sp, -0x30
   18df2: 26 ec        	c.sdsp	s1, 0x18(sp)
   18df4: 04 65        	c.ld	s1, 0x8(a0)
   18df6: 4e e4        	c.sdsp	s3, 0x8(sp)
   18df8: 83 39 05 00  	ld	s3, 0x0(a0)
   18dfc: 86 04        	c.slli	s1, 0x1
   18dfe: 85 80        	c.srli	s1, 0x1
   18e00: 4e 86        	c.mv	a2, s3
   18e02: a6 86        	c.mv	a3, s1
   18e04: 4e 85        	c.mv	a0, s3
   18e06: a6 85        	c.mv	a1, s1
   18e08: 06 f4        	c.sdsp	ra, 0x28(sp)
   18e0a: ef 30 f0 52  	jal	ra, 0x1cb38 <__unordtf2>
   18e0e: 39 e1        	c.bnez	a0, 0x18e54 <_ldcheck+0x64>
   18e10: 4a e8        	c.sdsp	s2, 0x10(sp)
   18e12: 37 f9 ff 07  	lui	s2, 0x7fff
   18e16: 12 19        	c.slli	s2, 0x24
   18e18: 7d 19        	c.addi	s2, -0x1
   18e1a: 7d 56        	c.li	a2, -0x1
   18e1c: ca 86        	c.mv	a3, s2
   18e1e: 4e 85        	c.mv	a0, s3
   18e20: a6 85        	c.mv	a1, s1
   18e22: 22 f0        	c.sdsp	s0, 0x20(sp)
   18e24: 05 44        	c.li	s0, 0x1
   18e26: ef 30 30 51  	jal	ra, 0x1cb38 <__unordtf2>
   18e2a: 01 cd        	c.beqz	a0, 0x18e42 <_ldcheck+0x52>
   18e2c: a2 70        	c.ldsp	ra, 0x28(sp)
   18e2e: 13 45 14 00  	xori	a0, s0, 0x1
   18e32: 02 74        	c.ldsp	s0, 0x20(sp)
   18e34: 06 05        	c.slli	a0, 0x1
   18e36: 42 69        	c.ldsp	s2, 0x10(sp)
   18e38: e2 64        	c.ldsp	s1, 0x18(sp)
   18e3a: a2 69        	c.ldsp	s3, 0x8(sp)
   18e3c: 09 89        	c.andi	a0, 0x2
   18e3e: 45 61        	c.addi16sp	sp, 0x30
   18e40: 82 80        	c.jr	ra
   18e42: 7d 56        	c.li	a2, -0x1
   18e44: ca 86        	c.mv	a3, s2
   18e46: 4e 85        	c.mv	a0, s3
   18e48: a6 85        	c.mv	a1, s1
   18e4a: ef 20 90 68  	jal	ra, 0x1bcd2 <__lttf2>
   18e4e: 13 24 15 00  	slti	s0, a0, 0x1
   18e52: e9 bf        	c.j	0x18e2c <_ldcheck+0x3c>
   18e54: a2 70        	c.ldsp	ra, 0x28(sp)
   18e56: e2 64        	c.ldsp	s1, 0x18(sp)
   18e58: a2 69        	c.ldsp	s3, 0x8(sp)
   18e5a: 05 45        	c.li	a0, 0x1
   18e5c: 45 61        	c.addi16sp	sp, 0x30
   18e5e: 82 80        	c.jr	ra

0000000000018e60 <__gdtoa>:
   18e60: 11 71        	c.addi16sp	sp, -0x100
   18e62: 66 f5        	c.sdsp	s9, 0xa8(sp)
   18e64: 83 2c 07 00  	lw	s9, 0x0(a4)
   18e68: a6 f5        	c.sdsp	s1, 0xe8(sp)
   18e6a: d2 e9        	c.sdsp	s4, 0xd0(sp)
   18e6c: 13 f3 fc fc  	andi	t1, s9, -0x31
   18e70: 86 fd        	c.sdsp	ra, 0xf8(sp)
   18e72: 23 20 67 00  	sw	t1, 0x0(a4)
   18e76: 3a 8a        	c.mv	s4, a4
   18e78: 12 67        	c.ldsp	a4, 0x100(sp)
   18e7a: 13 f3 fc 00  	andi	t1, s9, 0xf
   18e7e: 0d 4e        	c.li	t3, 0x3
   18e80: 3a e4        	c.sdsp	a4, 0x8(sp)
   18e82: 32 e8        	c.sdsp	a2, 0x10(sp)
   18e84: c6 84        	c.mv	s1, a7
   18e86: 63 0a c3 53  	beq	t1, t3, 0x193ba <__gdtoa+0x55a>
   18e8a: ce ed        	c.sdsp	s3, 0xd8(sp)
   18e8c: 93 f9 cc 00  	andi	s3, s9, 0xc
   18e90: 63 91 09 4c  	bne	s3, zero, 0x19352 <__gdtoa+0x4f2>
   18e94: a2 f9        	c.sdsp	s0, 0xf0(sp)
   18e96: 2a 84        	c.mv	s0, a0
   18e98: 63 0c 03 4e  	beq	t1, zero, 0x19390 <__gdtoa+0x530>
   18e9c: 6a f1        	c.sdsp	s10, 0xa0(sp)
   18e9e: 03 ad 05 00  	lw	s10, 0x0(a1)
   18ea2: ca f1        	c.sdsp	s2, 0xe0(sp)
   18ea4: da e1        	c.sdsp	s6, 0xc0(sp)
   18ea6: 5e fd        	c.sdsp	s7, 0xb8(sp)
   18ea8: 6e ed        	c.sdsp	s11, 0x98(sp)
   18eaa: 62 f9        	c.sdsp	s8, 0xb0(sp)
   18eac: b6 8d        	c.mv	s11, a3
   18eae: 93 06 00 02  	addi	a3, zero, 0x20
   18eb2: 2e 8b        	c.mv	s6, a1
   18eb4: 3e 89        	c.mv	s2, a5
   18eb6: c2 8b        	c.mv	s7, a6
   18eb8: 81 45        	c.li	a1, 0x0
   18eba: 93 07 00 02  	addi	a5, zero, 0x20
   18ebe: 63 d7 a6 01  	bge	a3, s10, 0x18ecc <__gdtoa+0x6c>
   18ec2: 9b 97 17 00  	slliw	a5, a5, 0x1
   18ec6: 85 25        	c.addiw	a1, 0x1
   18ec8: e3 cd a7 ff  	blt	a5, s10, 0x18ec2 <__gdtoa+0x62>
   18ecc: 22 85        	c.mv	a0, s0
   18ece: ef 10 e0 32  	jal	ra, 0x1a1fc <_Balloc>
   18ed2: 2a 8c        	c.mv	s8, a0
   18ed4: 63 0f 05 6c  	beq	a0, zero, 0x195b2 <__gdtoa+0x752>
   18ed8: 1b 05 fd ff  	addiw	a0, s10, -0x1
   18edc: 1b 55 55 40  	sraiw	a0, a0, 0x5
   18ee0: 93 15 25 00  	slli	a1, a0, 0x2
   18ee4: d6 e5        	c.sdsp	s5, 0xc8(sp)
   18ee6: ee 95        	c.add	a1, s11
   18ee8: 93 06 8c 01  	addi	a3, s8, 0x18
   18eec: ee 87        	c.mv	a5, s11
   18eee: 98 43        	c.lw	a4, 0x0(a5)
   18ef0: 91 07        	c.addi	a5, 0x4
   18ef2: 91 06        	c.addi	a3, 0x4
   18ef4: 23 ae e6 fe  	sw	a4, -0x4(a3)
   18ef8: e3 fb f5 fe  	bgeu	a1, a5, 0x18eee <__gdtoa+0x8e>
   18efc: 85 05        	c.addi	a1, 0x1
   18efe: 93 87 1d 00  	addi	a5, s11, 0x1
   18f02: 91 46        	c.li	a3, 0x4
   18f04: 63 e5 f5 00  	bltu	a1, a5, 0x18f0e <__gdtoa+0xae>
   18f08: 0a 05        	c.slli	a0, 0x2
   18f0a: 93 06 45 00  	addi	a3, a0, 0x4
   18f0e: 93 d7 26 40  	srai	a5, a3, 0x2
   18f12: 81 27        	c.addiw	a5, 0x0
   18f14: e2 96        	c.add	a3, s8
   18f16: 21 a0        	c.j	0x18f1e <__gdtoa+0xbe>
   18f18: f1 16        	c.addi	a3, -0x4
   18f1a: 63 85 07 4e  	beq	a5, zero, 0x19404 <__gdtoa+0x5a4>
   18f1e: d8 4a        	c.lw	a4, 0x14(a3)
   18f20: be 8a        	c.mv	s5, a5
   18f22: fd 37        	c.addiw	a5, -0x1
   18f24: 75 db        	c.beqz	a4, 0x18f18 <__gdtoa+0xb8>
   18f26: 91 07        	c.addi	a5, 0x4
   18f28: 8a 07        	c.slli	a5, 0x2
   18f2a: e2 97        	c.add	a5, s8
   18f2c: 88 47        	c.lw	a0, 0x8(a5)
   18f2e: 23 2a 5c 01  	sw	s5, 0x14(s8)
   18f32: 9b 9a 5a 00  	slliw	s5, s5, 0x5
   18f36: ef 10 00 51  	jal	ra, 0x1a446 <__hi0bits>
   18f3a: bb 87 aa 40  	subw	a5, s5, a0
   18f3e: 62 85        	c.mv	a0, s8
   18f40: 3e ec        	c.sdsp	a5, 0x18(sp)
   18f42: ef 10 80 23  	jal	ra, 0x1a17a <__trailz_D2A>
   18f46: 2a c7        	c.swsp	a0, 0x8c(sp)
   18f48: 42 66        	c.ldsp	a2, 0x10(sp)
   18f4a: e2 67        	c.ldsp	a5, 0x18(sp)
   18f4c: 63 10 05 4e  	bne	a0, zero, 0x1942c <__gdtoa+0x5cc>
   18f50: 83 26 4c 01  	lw	a3, 0x14(s8)
   18f54: 63 83 06 42  	beq	a3, zero, 0x1937a <__gdtoa+0x51a>
   18f58: 6c 01        	c.addi4spn	a1, sp, 0x8c
   18f5a: 62 85        	c.mv	a0, s8
   18f5c: 3e f0        	c.sdsp	a5, 0x20(sp)
   18f5e: 32 ec        	c.sdsp	a2, 0x18(sp)
   18f60: ef 10 70 46  	jal	ra, 0x1abc6 <__b2d>
   18f64: 53 05 05 e2  	fmv.x.d	a0, fa0
   18f68: 37 03 f0 3f  	lui	t1, 0x3ff00
   18f6c: fd 56        	c.li	a3, -0x1
   18f6e: 93 15 c5 00  	slli	a1, a0, 0xc
   18f72: b1 91        	c.srli	a1, 0x2c
   18f74: b3 e8 65 00  	or	a7, a1, t1
   18f78: 81 92        	c.srli	a3, 0x20
   18f7a: 82 18        	c.slli	a7, 0x20
   18f7c: e9 8e        	c.and	a3, a0
   18f7e: b3 e6 16 01  	or	a3, a3, a7
   18f82: 07 b7 81 18  	fld	fa4, 0x188(gp)
   18f86: d3 87 06 f2  	fmv.d.x	fa5, a3
   18f8a: 87 b6 01 19  	fld	fa3, 0x190(gp)
   18f8e: 53 f7 e7 0a  	fsub.d	fa4, fa5, fa4, dyn
   18f92: 87 b7 81 19  	fld	fa5, 0x198(gp)
   18f96: 62 66        	c.ldsp	a2, 0x18(sp)
   18f98: 82 77        	c.ldsp	a5, 0x20(sp)
   18f9a: b3 ee 65 00  	or	t4, a1, t1
   18f9e: 43 77 d7 7a  	fmadd.d	fa4, fa4, fa3, fa5, dyn
   18fa2: bb 0a f6 00  	addw	s5, a2, a5
   18fa6: 9b 88 fa ff  	addiw	a7, s5, -0x1
   18faa: d3 87 08 d2  	fcvt.d.w	fa5, a7
   18fae: 87 b6 01 1a  	fld	fa3, 0x1a0(gp)
   18fb2: 1b 85 08 00  	addiw	a0, a7, 0x0
   18fb6: c3 f7 d7 72  	fmadd.d	fa5, fa5, fa3, fa4, dyn
   18fba: 63 55 05 00  	bge	a0, zero, 0x18fc4 <__gdtoa+0x164>
   18fbe: 05 45        	c.li	a0, 0x1
   18fc0: 3b 05 55 41  	subw	a0, a0, s5
   18fc4: 1b 03 b5 bc  	addiw	t1, a0, -0x435
   18fc8: 63 58 60 00  	bge	zero, t1, 0x18fd8 <__gdtoa+0x178>
   18fcc: d3 06 03 d2  	fcvt.d.w	fa3, t1
   18fd0: 07 b7 81 1a  	fld	fa4, 0x1a8(gp)
   18fd4: c3 f7 e6 7a  	fmadd.d	fa5, fa3, fa4, fa5, dyn
   18fd8: 53 07 00 f2  	fmv.d.x	fa4, zero
   18fdc: 53 95 07 c2  	fcvt.w.d	a0, fa5, rtz
   18fe0: 53 9e e7 a2  	flt.d	t3, fa5, fa4
   18fe4: 1b 03 05 00  	addiw	t1, a0, 0x0
   18fe8: 63 10 0e 70  	bne	t3, zero, 0x196e8 <__gdtoa+0x888>
   18fec: 9b 95 48 01  	slliw	a1, a7, 0x14
   18ff0: bb 85 d5 01  	addw	a1, a1, t4
   18ff4: 82 16        	c.slli	a3, 0x20
   18ff6: 3b 8f 17 41  	subw	t5, a5, a7
   18ffa: 82 15        	c.slli	a1, 0x20
   18ffc: 81 92        	c.srli	a3, 0x20
   18ffe: 1b 05 03 00  	addiw	a0, t1, 0x0
   19002: d9 4e        	c.li	t4, 0x16
   19004: fa 88        	c.mv	a7, t5
   19006: cd 8e        	c.or	a3, a1
   19008: 1b 0e ff ff  	addiw	t3, t5, -0x1
   1900c: 63 ef ae 3e  	bltu	t4, a0, 0x1940a <__gdtoa+0x5aa>
   19010: b7 85 02 00  	lui	a1, 0x28
   19014: 93 85 85 86  	addi	a1, a1, -0x798
   19018: 13 15 33 00  	slli	a0, t1, 0x3
   1901c: aa 95        	c.add	a1, a0
   1901e: 9c 21        	c.fld	fa5, 0x0(a1)
   19020: 53 87 06 f2  	fmv.d.x	fa4, a3
   19024: d3 15 f7 a2  	flt.d	a1, fa4, fa5
   19028: 63 94 05 5c  	bne	a1, zero, 0x195f0 <__gdtoa+0x790>
   1902c: 82 f8        	c.sdsp	zero, 0x70(sp)
   1902e: 02 ec        	c.sdsp	zero, 0x18(sp)
   19030: 63 47 e0 01  	blt	zero, t5, 0x1903e <__gdtoa+0x1de>
   19034: 85 45        	c.li	a1, 0x1
   19036: 3b 87 e5 41  	subw	a4, a1, t5
   1903a: 3a ec        	c.sdsp	a4, 0x18(sp)
   1903c: 01 4e        	c.li	t3, 0x0
   1903e: 3b 0e c3 01  	addw	t3, t1, t3
   19042: 1a fc        	c.sdsp	t1, 0x38(sp)
   19044: 02 f8        	c.sdsp	zero, 0x30(sp)
   19046: a5 45        	c.li	a1, 0x9
   19048: 63 ed 25 3f  	bltu	a1, s2, 0x19442 <__gdtoa+0x5e2>
   1904c: 95 45        	c.li	a1, 0x5
   1904e: 63 c4 25 59  	blt	a1, s2, 0x195d6 <__gdtoa+0x776>
   19052: 9b 8a da 3f  	addiw	s5, s5, 0x3fd
   19056: 11 45        	c.li	a0, 0x4
   19058: 93 ba 8a 7f  	sltiu	s5, s5, 0x7f8
   1905c: e3 09 a9 22  	beq	s2, a0, 0x19a8e <__gdtoa+0xc2e>
   19060: e3 03 b9 22  	beq	s2, a1, 0x19a86 <__gdtoa+0xc26>
   19064: 89 45        	c.li	a1, 0x2
   19066: e3 07 b9 22  	beq	s2, a1, 0x19a94 <__gdtoa+0xc34>
   1906a: 8d 45        	c.li	a1, 0x3
   1906c: 82 e0        	c.sdsp	zero, 0x40(sp)
   1906e: 63 1f b9 3c  	bne	s2, a1, 0x1944c <__gdtoa+0x5ec>
   19072: 62 77        	c.ldsp	a4, 0x38(sp)
   19074: bb 05 77 01  	addw	a1, a4, s7
   19078: 1b 87 15 00  	addiw	a4, a1, 0x1
   1907c: 3a f4        	c.sdsp	a4, 0x28(sp)
   1907e: ae fc        	c.sdsp	a1, 0x78(sp)
   19080: e3 58 e0 04  	bge	zero, a4, 0x198d0 <__gdtoa+0xa70>
   19084: ba 88        	c.mv	a7, a4
   19086: ba 85        	c.mv	a1, a4
   19088: 22 85        	c.mv	a0, s0
   1908a: b6 f4        	c.sdsp	a3, 0x68(sp)
   1908c: be f0        	c.sdsp	a5, 0x60(sp)
   1908e: f2 ec        	c.sdsp	t3, 0x58(sp)
   19090: 9a e8        	c.sdsp	t1, 0x50(sp)
   19092: b2 e4        	c.sdsp	a2, 0x48(sp)
   19094: 46 c7        	c.swsp	a7, 0x8c(sp)
   19096: ef 00 90 61  	jal	ra, 0x19eae <__rv_alloc_D2A>
   1909a: 2a 88        	c.mv	a6, a0
   1909c: 63 0a 05 34  	beq	a0, zero, 0x193f0 <__gdtoa+0x590>
   190a0: 03 27 cb 00  	lw	a4, 0xc(s6)
   190a4: 26 66        	c.ldsp	a2, 0x48(sp)
   190a6: 46 63        	c.ldsp	t1, 0x50(sp)
   190a8: 7d 37        	c.addiw	a4, -0x1
   190aa: 3a f0        	c.sdsp	a4, 0x20(sp)
   190ac: 66 6e        	c.ldsp	t3, 0x58(sp)
   190ae: 86 77        	c.ldsp	a5, 0x60(sp)
   190b0: a6 76        	c.ldsp	a3, 0x68(sp)
   190b2: 63 03 07 3c  	beq	a4, zero, 0x19478 <__gdtoa+0x618>
   190b6: 63 4d 07 50  	blt	a4, zero, 0x195d0 <__gdtoa+0x770>
   190ba: 93 fc 0c 10  	andi	s9, s9, 0x100
   190be: 63 98 0c 3a  	bne	s9, zero, 0x1946e <__gdtoa+0x60e>
   190c2: 63 46 06 00  	blt	a2, zero, 0x190ce <__gdtoa+0x26e>
   190c6: 62 77        	c.ldsp	a4, 0x38(sp)
   190c8: b9 45        	c.li	a1, 0xe
   190ca: 63 d6 e5 52  	bge	a1, a4, 0x195f6 <__gdtoa+0x796>
   190ce: 06 67        	c.ldsp	a4, 0x40(sp)
   190d0: 63 0c 07 4e  	beq	a4, zero, 0x195c8 <__gdtoa+0x768>
   190d4: 3b 0d fd 40  	subw	s10, s10, a5
   190d8: 83 26 4b 00  	lw	a3, 0x4(s6)
   190dc: 9b 05 1d 00  	addiw	a1, s10, 0x1
   190e0: 2e c7        	c.swsp	a1, 0x8c(sp)
   190e2: 3b 0d a6 41  	subw	s10, a2, s10
   190e6: e3 58 dd 02  	bge	s10, a3, 0x19916 <__gdtoa+0xab6>
   190ea: 9b 05 d9 ff  	addiw	a1, s2, -0x3
   190ee: f5 99        	c.andi	a1, -0x3
   190f0: 81 25        	c.addiw	a1, 0x0
   190f2: 63 82 05 76  	beq	a1, zero, 0x19856 <__gdtoa+0x9f6>
   190f6: bb 06 d6 40  	subw	a3, a2, a3
   190fa: 9b 85 16 00  	addiw	a1, a3, 0x1
   190fe: 2e c7        	c.swsp	a1, 0x8c(sp)
   19100: 05 46        	c.li	a2, 0x1
   19102: ae 86        	c.mv	a3, a1
   19104: 63 58 26 01  	bge	a2, s2, 0x19114 <__gdtoa+0x2b4>
   19108: 22 77        	c.ldsp	a4, 0x28(sp)
   1910a: 63 55 e0 00  	bge	zero, a4, 0x19114 <__gdtoa+0x2b4>
   1910e: 22 77        	c.ldsp	a4, 0x28(sp)
   19110: e3 42 b7 46  	blt	a4, a1, 0x19d74 <__gdtoa+0xf14>
   19114: 62 67        	c.ldsp	a4, 0x18(sp)
   19116: 42 7d        	c.ldsp	s10, 0x30(sp)
   19118: 3b 8e c6 01  	addw	t3, a3, t3
   1911c: ba 8c        	c.mv	s9, a4
   1911e: 35 9f        	c.addw	a4, a3
   19120: 3a ec        	c.sdsp	a4, 0x18(sp)
   19122: 85 45        	c.li	a1, 0x1
   19124: 22 85        	c.mv	a0, s0
   19126: c2 f0        	c.sdsp	a6, 0x60(sp)
   19128: be ec        	c.sdsp	a5, 0x58(sp)
   1912a: f2 e8        	c.sdsp	t3, 0x50(sp)
   1912c: 9a e4        	c.sdsp	t1, 0x48(sp)
   1912e: ef 10 e0 40  	jal	ra, 0x1a53c <__i2b>
   19132: 26 63        	c.ldsp	t1, 0x48(sp)
   19134: 46 6e        	c.ldsp	t3, 0x50(sp)
   19136: e6 67        	c.ldsp	a5, 0x58(sp)
   19138: 06 78        	c.ldsp	a6, 0x60(sp)
   1913a: aa 8a        	c.mv	s5, a0
   1913c: 63 0a 05 2a  	beq	a0, zero, 0x193f0 <__gdtoa+0x590>
   19140: 63 80 0c 02  	beq	s9, zero, 0x19160 <__gdtoa+0x300>
   19144: 63 5e c0 01  	bge	zero, t3, 0x19160 <__gdtoa+0x300>
   19148: e6 86        	c.mv	a3, s9
   1914a: 63 53 9e 01  	bge	t3, s9, 0x19150 <__gdtoa+0x2f0>
   1914e: f2 86        	c.mv	a3, t3
   19150: 62 67        	c.ldsp	a4, 0x18(sp)
   19152: 36 c7        	c.swsp	a3, 0x8c(sp)
   19154: bb 8c dc 40  	subw	s9, s9, a3
   19158: 15 9f        	c.subw	a4, a3
   1915a: 3a ec        	c.sdsp	a4, 0x18(sp)
   1915c: 3b 0e de 40  	subw	t3, t3, a3
   19160: 42 77        	c.ldsp	a4, 0x30(sp)
   19162: 0d c7        	c.beqz	a4, 0x1918c <__gdtoa+0x32c>
   19164: 06 67        	c.ldsp	a4, 0x40(sp)
   19166: 19 c3        	c.beqz	a4, 0x1916c <__gdtoa+0x30c>
   19168: e3 1d 0d 06  	bne	s10, zero, 0x199e2 <__gdtoa+0xb82>
   1916c: 42 76        	c.ldsp	a2, 0x30(sp)
   1916e: e2 85        	c.mv	a1, s8
   19170: 22 85        	c.mv	a0, s0
   19172: c2 f0        	c.sdsp	a6, 0x60(sp)
   19174: be ec        	c.sdsp	a5, 0x58(sp)
   19176: f2 e8        	c.sdsp	t3, 0x50(sp)
   19178: 9a e4        	c.sdsp	t1, 0x48(sp)
   1917a: ef 10 a0 5d  	jal	ra, 0x1a754 <__pow5mult>
   1917e: 26 63        	c.ldsp	t1, 0x48(sp)
   19180: 46 6e        	c.ldsp	t3, 0x50(sp)
   19182: e6 67        	c.ldsp	a5, 0x58(sp)
   19184: 06 78        	c.ldsp	a6, 0x60(sp)
   19186: 2a 8c        	c.mv	s8, a0
   19188: 63 04 05 26  	beq	a0, zero, 0x193f0 <__gdtoa+0x590>
   1918c: 85 45        	c.li	a1, 0x1
   1918e: 22 85        	c.mv	a0, s0
   19190: c2 ec        	c.sdsp	a6, 0x58(sp)
   19192: be e8        	c.sdsp	a5, 0x50(sp)
   19194: f2 e4        	c.sdsp	t3, 0x48(sp)
   19196: 1a f8        	c.sdsp	t1, 0x30(sp)
   19198: ef 10 40 3a  	jal	ra, 0x1a53c <__i2b>
   1919c: 2a 8d        	c.mv	s10, a0
   1919e: 63 09 05 24  	beq	a0, zero, 0x193f0 <__gdtoa+0x590>
   191a2: 42 73        	c.ldsp	t1, 0x30(sp)
   191a4: 26 6e        	c.ldsp	t3, 0x48(sp)
   191a6: c6 67        	c.ldsp	a5, 0x50(sp)
   191a8: 66 68        	c.ldsp	a6, 0x58(sp)
   191aa: 63 17 03 72  	bne	t1, zero, 0x198d8 <__gdtoa+0xa78>
   191ae: 85 46        	c.li	a3, 0x1
   191b0: 63 de 26 51  	bge	a3, s2, 0x196cc <__gdtoa+0x86c>
   191b4: 7d 45        	c.li	a0, 0x1f
   191b6: e2 67        	c.ldsp	a5, 0x18(sp)
   191b8: bb 09 c5 41  	subw	s3, a0, t3
   191bc: f1 39        	c.addiw	s3, -0x4
   191be: 93 f9 f9 01  	andi	s3, s3, 0x1f
   191c2: 3b 86 f9 00  	addw	a2, s3, a5
   191c6: 4e c7        	c.swsp	s3, 0x8c(sp)
   191c8: ce 87        	c.mv	a5, s3
   191ca: 63 4e c0 5a  	blt	zero, a2, 0x19786 <__gdtoa+0x926>
   191ce: 3b 06 fe 00  	addw	a2, t3, a5
   191d2: 63 44 c0 20  	blt	zero, a2, 0x193da <__gdtoa+0x57a>
   191d6: c6 77        	c.ldsp	a5, 0x70(sp)
   191d8: 63 96 07 5c  	bne	a5, zero, 0x197a4 <__gdtoa+0x944>
   191dc: a2 77        	c.ldsp	a5, 0x28(sp)
   191de: 63 5c f0 68  	bge	zero, a5, 0x19876 <__gdtoa+0xa16>
   191e2: 86 67        	c.ldsp	a5, 0x40(sp)
   191e4: 63 8e 07 5e  	beq	a5, zero, 0x197e0 <__gdtoa+0x980>
   191e8: 3b 86 99 01  	addw	a2, s3, s9
   191ec: e3 4c c0 06  	blt	zero, a2, 0x19a64 <__gdtoa+0xc04>
   191f0: 56 ec        	c.sdsp	s5, 0x18(sp)
   191f2: e3 12 03 0c  	bne	t1, zero, 0x19ab6 <__gdtoa+0xc56>
   191f6: 6e e8        	c.sdsp	s11, 0x10(sp)
   191f8: a6 e0        	c.sdsp	s1, 0x40(sp)
   191fa: a2 7d        	c.ldsp	s11, 0x28(sp)
   191fc: e2 64        	c.ldsp	s1, 0x18(sp)
   191fe: c2 8b        	c.mv	s7, a6
   19200: 85 46        	c.li	a3, 0x1
   19202: 42 f8        	c.sdsp	a6, 0x30(sp)
   19204: 52 f4        	c.sdsp	s4, 0x28(sp)
   19206: 8d a8        	c.j	0x19278 <__gdtoa+0x418>
   19208: 22 85        	c.mv	a0, s0
   1920a: ef 10 60 05  	jal	ra, 0x1a260 <_Bfree>
   1920e: e3 49 0b 12  	blt	s6, zero, 0x19b40 <__gdtoa+0xce0>
   19212: 33 6b 69 01  	or	s6, s2, s6
   19216: 01 2b        	c.addiw	s6, 0x0
   19218: 63 17 0b 00  	bne	s6, zero, 0x19226 <__gdtoa+0x3c6>
   1921c: c2 67        	c.ldsp	a5, 0x10(sp)
   1921e: 9c 43        	c.lw	a5, 0x0(a5)
   19220: 85 8b        	c.andi	a5, 0x1
   19222: e3 8f 07 10  	beq	a5, zero, 0x19b40 <__gdtoa+0xce0>
   19226: 82 77        	c.ldsp	a5, 0x20(sp)
   19228: 09 47        	c.li	a4, 0x2
   1922a: e3 92 e7 2c  	bne	a5, a4, 0x19cee <__gdtoa+0xe8e>
   1922e: 23 80 4b 01  	sb	s4, 0x0(s7)
   19232: ba 47        	c.lwsp	a5, 0x8c(sp)
   19234: 85 0b        	c.addi	s7, 0x1
   19236: e3 85 b7 23  	beq	a5, s11, 0x19c60 <__gdtoa+0xe00>
   1923a: e2 85        	c.mv	a1, s8
   1923c: 81 46        	c.li	a3, 0x0
   1923e: 29 46        	c.li	a2, 0xa
   19240: 22 85        	c.mv	a0, s0
   19242: ef 10 00 03  	jal	ra, 0x1a272 <__multadd>
   19246: 2a 8c        	c.mv	s8, a0
   19248: 63 04 05 1a  	beq	a0, zero, 0x193f0 <__gdtoa+0x590>
   1924c: 81 46        	c.li	a3, 0x0
   1924e: 29 46        	c.li	a2, 0xa
   19250: d6 85        	c.mv	a1, s5
   19252: 22 85        	c.mv	a0, s0
   19254: 63 80 9a 4c  	beq	s5, s1, 0x19714 <__gdtoa+0x8b4>
   19258: ef 10 a0 01  	jal	ra, 0x1a272 <__multadd>
   1925c: aa 8a        	c.mv	s5, a0
   1925e: 63 09 05 18  	beq	a0, zero, 0x193f0 <__gdtoa+0x590>
   19262: a6 85        	c.mv	a1, s1
   19264: 81 46        	c.li	a3, 0x0
   19266: 29 46        	c.li	a2, 0xa
   19268: 22 85        	c.mv	a0, s0
   1926a: ef 10 80 00  	jal	ra, 0x1a272 <__multadd>
   1926e: aa 84        	c.mv	s1, a0
   19270: 63 00 05 18  	beq	a0, zero, 0x193f0 <__gdtoa+0x590>
   19274: ba 46        	c.lwsp	a3, 0x8c(sp)
   19276: 85 26        	c.addiw	a3, 0x1
   19278: ea 85        	c.mv	a1, s10
   1927a: 62 85        	c.mv	a0, s8
   1927c: 36 c7        	c.swsp	a3, 0x8c(sp)
   1927e: ef 00 d0 4e  	jal	ra, 0x19f6a <__quorem_D2A>
   19282: 1b 0a 05 03  	addiw	s4, a0, 0x30
   19286: d6 85        	c.mv	a1, s5
   19288: aa 8c        	c.mv	s9, a0
   1928a: 62 85        	c.mv	a0, s8
   1928c: ef 10 a0 6c  	jal	ra, 0x1a956 <__mcmp>
   19290: ea 85        	c.mv	a1, s10
   19292: 2a 8b        	c.mv	s6, a0
   19294: 26 86        	c.mv	a2, s1
   19296: 22 85        	c.mv	a0, s0
   19298: ef 10 60 6f  	jal	ra, 0x1a98e <__mdiff>
   1929c: d2 89        	c.mv	s3, s4
   1929e: aa 85        	c.mv	a1, a0
   192a0: 63 08 05 14  	beq	a0, zero, 0x193f0 <__gdtoa+0x590>
   192a4: 1c 49        	c.lw	a5, 0x10(a0)
   192a6: ad f3        	c.bnez	a5, 0x19208 <__gdtoa+0x3a8>
   192a8: 2a ec        	c.sdsp	a0, 0x18(sp)
   192aa: 62 85        	c.mv	a0, s8
   192ac: ef 10 a0 6a  	jal	ra, 0x1a956 <__mcmp>
   192b0: e2 65        	c.ldsp	a1, 0x18(sp)
   192b2: aa 86        	c.mv	a3, a0
   192b4: 22 85        	c.mv	a0, s0
   192b6: 36 ec        	c.sdsp	a3, 0x18(sp)
   192b8: ef 00 90 7a  	jal	ra, 0x1a260 <_Bfree>
   192bc: e2 66        	c.ldsp	a3, 0x18(sp)
   192be: 33 67 d9 00  	or	a4, s2, a3
   192c2: 01 27        	c.addiw	a4, 0x0
   192c4: e3 1e 07 38  	bne	a4, zero, 0x19e60 <__gdtoa+0x1000>
   192c8: c2 67        	c.ldsp	a5, 0x10(sp)
   192ca: 9c 43        	c.lw	a5, 0x0(a5)
   192cc: 85 8b        	c.andi	a5, 0x1
   192ce: 63 9a 07 44  	bne	a5, zero, 0x19722 <__gdtoa+0x8c2>
   192d2: 82 77        	c.ldsp	a5, 0x20(sp)
   192d4: e3 82 07 2c  	beq	a5, zero, 0x19d98 <__gdtoa+0xf38>
   192d8: e3 4b 60 f5  	blt	zero, s6, 0x1922e <__gdtoa+0x3ce>
   192dc: 03 26 4c 01  	lw	a2, 0x14(s8)
   192e0: 26 ec        	c.sdsp	s1, 0x18(sp)
   192e2: 85 46        	c.li	a3, 0x1
   192e4: 52 83        	c.mv	t1, s4
   192e6: 42 78        	c.ldsp	a6, 0x30(sp)
   192e8: 22 7a        	c.ldsp	s4, 0x28(sp)
   192ea: 86 64        	c.ldsp	s1, 0x40(sp)
   192ec: ba 89        	c.mv	s3, a4
   192ee: e3 d6 c6 34  	bge	a3, a2, 0x19e3a <__gdtoa+0xfda>
   192f2: 82 77        	c.ldsp	a5, 0x20(sp)
   192f4: 89 46        	c.li	a3, 0x2
   192f6: e3 85 d7 32  	beq	a5, a3, 0x19e20 <__gdtoa+0xfc0>
   192fa: 62 6b        	c.ldsp	s6, 0x18(sp)
   192fc: 9a 89        	c.mv	s3, t1
   192fe: c2 8d        	c.mv	s11, a6
   19300: 29 a8        	c.j	0x1931a <__gdtoa+0x4ba>
   19302: ef 00 10 77  	jal	ra, 0x1a272 <__multadd>
   19306: ea 85        	c.mv	a1, s10
   19308: 2a 8c        	c.mv	s8, a0
   1930a: 63 03 05 0e  	beq	a0, zero, 0x193f0 <__gdtoa+0x590>
   1930e: ef 00 d0 45  	jal	ra, 0x19f6a <__quorem_D2A>
   19312: 9b 09 05 03  	addiw	s3, a0, 0x30
   19316: e6 8b        	c.mv	s7, s9
   19318: 4a 8b        	c.mv	s6, s2
   1931a: da 85        	c.mv	a1, s6
   1931c: 6a 85        	c.mv	a0, s10
   1931e: ef 10 80 63  	jal	ra, 0x1a956 <__mcmp>
   19322: aa 87        	c.mv	a5, a0
   19324: 81 46        	c.li	a3, 0x0
   19326: 29 46        	c.li	a2, 0xa
   19328: da 85        	c.mv	a1, s6
   1932a: 22 85        	c.mv	a0, s0
   1932c: 93 8c 1b 00  	addi	s9, s7, 0x1
   19330: e3 5d f0 2c  	bge	zero, a5, 0x19e0a <__gdtoa+0xfaa>
   19334: a3 8f 3c ff  	sb	s3, -0x1(s9)
   19338: ef 00 b0 73  	jal	ra, 0x1a272 <__multadd>
   1933c: 2a 89        	c.mv	s2, a0
   1933e: 81 46        	c.li	a3, 0x0
   19340: 29 46        	c.li	a2, 0xa
   19342: e2 85        	c.mv	a1, s8
   19344: 22 85        	c.mv	a0, s0
   19346: 63 05 09 0a  	beq	s2, zero, 0x193f0 <__gdtoa+0x590>
   1934a: e3 9c 6a fb  	bne	s5, s6, 0x19302 <__gdtoa+0x4a2>
   1934e: ca 8a        	c.mv	s5, s2
   19350: 4d bf        	c.j	0x19302 <__gdtoa+0x4a2>
   19352: 91 47        	c.li	a5, 0x4
   19354: 63 16 f3 0a  	bne	t1, a5, 0x19400 <__gdtoa+0x5a0>
   19358: 22 66        	c.ldsp	a2, 0x8(sp)
   1935a: ee 69        	c.ldsp	s3, 0xd8(sp)
   1935c: ee 70        	c.ldsp	ra, 0xf8(sp)
   1935e: ae 74        	c.ldsp	s1, 0xe8(sp)
   19360: 4e 6a        	c.ldsp	s4, 0xd0(sp)
   19362: aa 7c        	c.ldsp	s9, 0xa8(sp)
   19364: e1 77        	c.lui	a5, 0xffff8
   19366: 23 a0 f8 00  	sw	a5, 0x0(a7)
   1936a: b7 75 02 00  	lui	a1, 0x27
   1936e: 8d 46        	c.li	a3, 0x3
   19370: 93 85 05 41  	addi	a1, a1, 0x410
   19374: 11 61        	c.addi16sp	sp, 0x100
   19376: 6f 00 b0 36  	jal	zero, 0x19ee0 <__nrv_alloc_D2A>
   1937a: e2 85        	c.mv	a1, s8
   1937c: 22 85        	c.mv	a0, s0
   1937e: ef 00 30 6e  	jal	ra, 0x1a260 <_Bfree>
   19382: 0e 79        	c.ldsp	s2, 0xe0(sp)
   19384: ae 6a        	c.ldsp	s5, 0xc8(sp)
   19386: 0e 6b        	c.ldsp	s6, 0xc0(sp)
   19388: ea 7b        	c.ldsp	s7, 0xb8(sp)
   1938a: 4a 7c        	c.ldsp	s8, 0xb0(sp)
   1938c: 0a 7d        	c.ldsp	s10, 0xa0(sp)
   1938e: ea 6d        	c.ldsp	s11, 0x98(sp)
   19390: 22 66        	c.ldsp	a2, 0x8(sp)
   19392: 85 47        	c.li	a5, 0x1
   19394: b7 75 02 00  	lui	a1, 0x27
   19398: 22 85        	c.mv	a0, s0
   1939a: 9c c0        	c.sw	a5, 0x0(s1)
   1939c: 85 46        	c.li	a3, 0x1
   1939e: 93 85 05 3e  	addi	a1, a1, 0x3e0
   193a2: ef 00 f0 33  	jal	ra, 0x19ee0 <__nrv_alloc_D2A>
   193a6: 4e 74        	c.ldsp	s0, 0xf0(sp)
   193a8: 2a 88        	c.mv	a6, a0
   193aa: ee 70        	c.ldsp	ra, 0xf8(sp)
   193ac: ee 69        	c.ldsp	s3, 0xd8(sp)
   193ae: ae 74        	c.ldsp	s1, 0xe8(sp)
   193b0: 4e 6a        	c.ldsp	s4, 0xd0(sp)
   193b2: aa 7c        	c.ldsp	s9, 0xa8(sp)
   193b4: 42 85        	c.mv	a0, a6
   193b6: 11 61        	c.addi16sp	sp, 0x100
   193b8: 82 80        	c.jr	ra
   193ba: 22 66        	c.ldsp	a2, 0x8(sp)
   193bc: ee 70        	c.ldsp	ra, 0xf8(sp)
   193be: ae 74        	c.ldsp	s1, 0xe8(sp)
   193c0: 4e 6a        	c.ldsp	s4, 0xd0(sp)
   193c2: aa 7c        	c.ldsp	s9, 0xa8(sp)
   193c4: e1 77        	c.lui	a5, 0xffff8
   193c6: 23 a0 f8 00  	sw	a5, 0x0(a7)
   193ca: b7 75 02 00  	lui	a1, 0x27
   193ce: a1 46        	c.li	a3, 0x8
   193d0: 93 85 05 40  	addi	a1, a1, 0x400
   193d4: 11 61        	c.addi16sp	sp, 0x100
   193d6: 6f 00 b0 30  	jal	zero, 0x19ee0 <__nrv_alloc_D2A>
   193da: ea 85        	c.mv	a1, s10
   193dc: 22 85        	c.mv	a0, s0
   193de: 42 ec        	c.sdsp	a6, 0x18(sp)
   193e0: 1a e8        	c.sdsp	t1, 0x10(sp)
   193e2: ef 10 c0 44  	jal	ra, 0x1a82e <__lshift>
   193e6: 42 63        	c.ldsp	t1, 0x10(sp)
   193e8: 62 68        	c.ldsp	a6, 0x18(sp)
   193ea: 2a 8d        	c.mv	s10, a0
   193ec: e3 15 05 de  	bne	a0, zero, 0x191d6 <__gdtoa+0x376>
   193f0: 4e 74        	c.ldsp	s0, 0xf0(sp)
   193f2: 0e 79        	c.ldsp	s2, 0xe0(sp)
   193f4: ae 6a        	c.ldsp	s5, 0xc8(sp)
   193f6: 0e 6b        	c.ldsp	s6, 0xc0(sp)
   193f8: ea 7b        	c.ldsp	s7, 0xb8(sp)
   193fa: 4a 7c        	c.ldsp	s8, 0xb0(sp)
   193fc: 0a 7d        	c.ldsp	s10, 0xa0(sp)
   193fe: ea 6d        	c.ldsp	s11, 0x98(sp)
   19400: 01 48        	c.li	a6, 0x0
   19402: 65 b7        	c.j	0x193aa <__gdtoa+0x54a>
   19404: 23 2a 0c 00  	sw	zero, 0x14(s8)
   19408: 1d be        	c.j	0x18f3e <__gdtoa+0xde>
   1940a: 05 47        	c.li	a4, 0x1
   1940c: ba f8        	c.sdsp	a4, 0x70(sp)
   1940e: 02 ec        	c.sdsp	zero, 0x18(sp)
   19410: 63 44 0e 1a  	blt	t3, zero, 0x195b8 <__gdtoa+0x758>
   19414: e3 55 03 c2  	bge	t1, zero, 0x1903e <__gdtoa+0x1de>
   19418: 62 67        	c.ldsp	a4, 0x18(sp)
   1941a: 1a fc        	c.sdsp	t1, 0x38(sp)
   1941c: 3b 07 67 40  	subw	a4, a4, t1
   19420: 3a ec        	c.sdsp	a4, 0x18(sp)
   19422: 3b 07 60 40  	subw	a4, zero, t1
   19426: 3a f8        	c.sdsp	a4, 0x30(sp)
   19428: 01 43        	c.li	t1, 0x0
   1942a: 31 b9        	c.j	0x19046 <__gdtoa+0x1e6>
   1942c: aa 85        	c.mv	a1, a0
   1942e: 62 85        	c.mv	a0, s8
   19430: ef 00 b0 4a  	jal	ra, 0x1a0da <__rshift_D2A>
   19434: ba 46        	c.lwsp	a3, 0x8c(sp)
   19436: c2 67        	c.ldsp	a5, 0x10(sp)
   19438: 3b 86 f6 00  	addw	a2, a3, a5
   1943c: e2 67        	c.ldsp	a5, 0x18(sp)
   1943e: 95 9f        	c.subw	a5, a3
   19440: 01 be        	c.j	0x18f50 <__gdtoa+0xf0>
   19442: 9b 8a da 3f  	addiw	s5, s5, 0x3fd
   19446: 93 ba 8a 7f  	sltiu	s5, s5, 0x7f8
   1944a: 01 49        	c.li	s2, 0x0
   1944c: 07 b7 01 1b  	fld	fa4, 0x1b0(gp)
   19450: d3 07 0d d2  	fcvt.d.w	fa5, s10
   19454: 05 47        	c.li	a4, 0x1
   19456: ba e0        	c.sdsp	a4, 0x40(sp)
   19458: d3 f7 e7 12  	fmul.d	fa5, fa5, fa4, dyn
   1945c: 7d 57        	c.li	a4, -0x1
   1945e: 81 4b        	c.li	s7, 0x0
   19460: ba fc        	c.sdsp	a4, 0x78(sp)
   19462: 3a f4        	c.sdsp	a4, 0x28(sp)
   19464: d3 95 07 c2  	fcvt.w.d	a1, fa5, rtz
   19468: 8d 25        	c.addiw	a1, 0x3
   1946a: ae 88        	c.mv	a7, a1
   1946c: 31 b9        	c.j	0x19088 <__gdtoa+0x228>
   1946e: 02 77        	c.ldsp	a4, 0x20(sp)
   19470: 8d 45        	c.li	a1, 0x3
   19472: 3b 87 e5 40  	subw	a4, a1, a4
   19476: 3a f0        	c.sdsp	a4, 0x20(sp)
   19478: 22 77        	c.ldsp	a4, 0x28(sp)
   1947a: 39 45        	c.li	a0, 0xe
   1947c: 9b 05 07 00  	addiw	a1, a4, 0x0
   19480: e3 61 b5 c4  	bltu	a0, a1, 0x190c2 <__gdtoa+0x262>
   19484: e3 8f 0a c2  	beq	s5, zero, 0x190c2 <__gdtoa+0x262>
   19488: e2 75        	c.ldsp	a1, 0x38(sp)
   1948a: 02 75        	c.ldsp	a0, 0x20(sp)
   1948c: c9 8d        	c.or	a1, a0
   1948e: 81 25        	c.addiw	a1, 0x0
   19490: e3 99 05 c2  	bne	a1, zero, 0x190c2 <__gdtoa+0x262>
   19494: c6 75        	c.ldsp	a1, 0x70(sp)
   19496: 02 c7        	c.swsp	zero, 0x8c(sp)
   19498: b6 8e        	c.mv	t4, a3
   1949a: 89 c9        	c.beqz	a1, 0x194ac <__gdtoa+0x64c>
   1949c: 87 b7 81 1b  	fld	fa5, 0x1b8(gp)
   194a0: 53 87 06 f2  	fmv.d.x	fa4, a3
   194a4: d3 15 f7 a2  	flt.d	a1, fa4, fa5
   194a8: 63 94 05 7c  	bne	a1, zero, 0x19c70 <__gdtoa+0xe10>
   194ac: 07 b7 81 1d  	fld	fa4, 0x1d8(gp)
   194b0: 87 b7 01 1d  	fld	fa5, 0x1d0(gp)
   194b4: d3 86 0e f2  	fmv.d.x	fa3, t4
   194b8: b7 05 c0 fc  	lui	a1, 0xfcc00
   194bc: 22 77        	c.ldsp	a4, 0x28(sp)
   194be: c3 f7 e6 7a  	fmadd.d	fa5, fa3, fa4, fa5, dyn
   194c2: 53 85 07 e2  	fmv.x.d	a0, fa5
   194c6: 13 5f 05 02  	srli	t5, a0, 0x20
   194ca: bb 85 e5 01  	addw	a1, a1, t5
   194ce: 7d 5f        	c.li	t5, -0x1
   194d0: 13 5f 0f 02  	srli	t5, t5, 0x20
   194d4: 82 15        	c.slli	a1, 0x20
   194d6: 33 7f af 00  	and	t5, t5, a0
   194da: 33 6f bf 00  	or	t5, t5, a1
   194de: 63 09 07 4c  	beq	a4, zero, 0x199b0 <__gdtoa+0xb50>
   194e2: a2 7f        	c.ldsp	t6, 0x28(sp)
   194e4: 76 85        	c.mv	a0, t4
   194e6: 81 43        	c.li	t2, 0x0
   194e8: b7 85 02 00  	lui	a1, 0x28
   194ec: 9b 82 ff ff  	addiw	t0, t6, -0x1
   194f0: 06 67        	c.ldsp	a4, 0x40(sp)
   194f2: 93 85 85 86  	addi	a1, a1, -0x798
   194f6: 8e 02        	c.slli	t0, 0x3
   194f8: ae 92        	c.add	t0, a1
   194fa: 87 b7 02 00  	fld	fa5, 0x0(t0)
   194fe: 63 0b 07 6c  	beq	a4, zero, 0x19bd4 <__gdtoa+0xd74>
   19502: 53 07 05 f2  	fmv.d.x	fa4, a0
   19506: d3 06 05 f2  	fmv.d.x	fa3, a0
   1950a: d3 16 07 c2  	fcvt.w.d	a3, fa4, rtz
   1950e: 07 b7 81 1e  	fld	fa4, 0x1e8(gp)
   19512: 93 0c 18 00  	addi	s9, a6, 0x1
   19516: 53 77 f7 1a  	fdiv.d	fa4, fa4, fa5, dyn
   1951a: d3 87 06 d2  	fcvt.d.w	fa5, a3
   1951e: 9b 86 06 03  	addiw	a3, a3, 0x30
   19522: 23 00 d8 00  	sb	a3, 0x0(a6)
   19526: d3 f7 f6 0a  	fsub.d	fa5, fa3, fa5, dyn
   1952a: d3 06 0f f2  	fmv.d.x	fa3, t5
   1952e: 53 77 d7 0a  	fsub.d	fa4, fa4, fa3, dyn
   19532: d3 96 e7 a2  	flt.d	a3, fa5, fa4
   19536: e3 9c 06 00  	bne	a3, zero, 0x19d4e <__gdtoa+0xeee>
   1953a: 87 b5 81 1b  	fld	fa1, 0x1b8(gp)
   1953e: 07 b6 01 1c  	fld	fa2, 0x1c0(gp)
   19542: 0d a8        	c.j	0x19574 <__gdtoa+0x714>
   19544: 3a 47        	c.lwsp	a4, 0x8c(sp)
   19546: 85 0c        	c.addi	s9, 0x1
   19548: 05 27        	c.addiw	a4, 0x1
   1954a: 3a c7        	c.swsp	a4, 0x8c(sp)
   1954c: e3 5e f7 01  	bge	a4, t6, 0x19d68 <__gdtoa+0xf08>
   19550: d3 f7 c7 12  	fmul.d	fa5, fa5, fa2, dyn
   19554: 53 77 c7 12  	fmul.d	fa4, fa4, fa2, dyn
   19558: 53 97 07 c2  	fcvt.w.d	a4, fa5, rtz
   1955c: d3 06 07 d2  	fcvt.d.w	fa3, a4
   19560: 1b 07 07 03  	addiw	a4, a4, 0x30
   19564: a3 8f ec fe  	sb	a4, -0x1(s9)
   19568: d3 f7 d7 0a  	fsub.d	fa5, fa5, fa3, dyn
   1956c: 53 97 e7 a2  	flt.d	a4, fa5, fa4
   19570: 63 1f 07 7c  	bne	a4, zero, 0x19d4e <__gdtoa+0xeee>
   19574: d3 f6 f5 0a  	fsub.d	fa3, fa1, fa5, dyn
   19578: 53 97 e6 a2  	flt.d	a4, fa3, fa4
   1957c: 61 d7        	c.beqz	a4, 0x19544 <__gdtoa+0x6e4>
   1957e: 83 c6 fc ff  	lbu	a3, -0x1(s9)
   19582: 9b 85 13 00  	addiw	a1, t2, 0x1
   19586: 13 06 90 03  	addi	a2, zero, 0x39
   1958a: 31 a0        	c.j	0x19596 <__gdtoa+0x736>
   1958c: 63 00 f8 64  	beq	a6, a5, 0x19bcc <__gdtoa+0xd6c>
   19590: 83 c6 f7 ff  	lbu	a3, -0x1(a5)
   19594: be 8c        	c.mv	s9, a5
   19596: 93 87 fc ff  	addi	a5, s9, -0x1
   1959a: e3 89 c6 fe  	beq	a3, a2, 0x1958c <__gdtoa+0x72c>
   1959e: 85 26        	c.addiw	a3, 0x1
   195a0: 93 f6 f6 0f  	andi	a3, a3, 0xff
   195a4: 23 80 d7 00  	sb	a3, 0x0(a5)
   195a8: 1b 89 05 00  	addiw	s2, a1, 0x0
   195ac: 93 09 00 02  	addi	s3, zero, 0x20
   195b0: cd a0        	c.j	0x19692 <__gdtoa+0x832>
   195b2: 4e 74        	c.ldsp	s0, 0xf0(sp)
   195b4: 0e 79        	c.ldsp	s2, 0xe0(sp)
   195b6: 81 b5        	c.j	0x193f6 <__gdtoa+0x596>
   195b8: 85 45        	c.li	a1, 0x1
   195ba: 3b 87 15 41  	subw	a4, a1, a7
   195be: 3a ec        	c.sdsp	a4, 0x18(sp)
   195c0: 01 4e        	c.li	t3, 0x0
   195c2: e3 4b 03 e4  	blt	t1, zero, 0x19418 <__gdtoa+0x5b8>
   195c6: a5 bc        	c.j	0x1903e <__gdtoa+0x1de>
   195c8: 42 7d        	c.ldsp	s10, 0x30(sp)
   195ca: e2 6c        	c.ldsp	s9, 0x18(sp)
   195cc: 81 4a        	c.li	s5, 0x0
   195ce: 8d be        	c.j	0x19140 <__gdtoa+0x2e0>
   195d0: 09 47        	c.li	a4, 0x2
   195d2: 3a f0        	c.sdsp	a4, 0x20(sp)
   195d4: dd b4        	c.j	0x190ba <__gdtoa+0x25a>
   195d6: 71 39        	c.addiw	s2, -0x4
   195d8: 11 45        	c.li	a0, 0x4
   195da: 63 00 a9 12  	beq	s2, a0, 0x196fa <__gdtoa+0x89a>
   195de: 63 0f b9 48  	beq	s2, a1, 0x19a7c <__gdtoa+0xc1c>
   195e2: 89 45        	c.li	a1, 0x2
   195e4: 82 e0        	c.sdsp	zero, 0x40(sp)
   195e6: 81 4a        	c.li	s5, 0x0
   195e8: 63 0c b9 10  	beq	s2, a1, 0x19700 <__gdtoa+0x8a0>
   195ec: 0d 49        	c.li	s2, 0x3
   195ee: 51 b4        	c.j	0x19072 <__gdtoa+0x212>
   195f0: 7d 33        	c.addiw	t1, -0x1
   195f2: 82 f8        	c.sdsp	zero, 0x70(sp)
   195f4: 29 bd        	c.j	0x1940e <__gdtoa+0x5ae>
   195f6: b7 87 02 00  	lui	a5, 0x28
   195fa: 13 16 37 00  	slli	a2, a4, 0x3
   195fe: 93 87 87 86  	addi	a5, a5, -0x798
   19602: b2 97        	c.add	a5, a2
   19604: 98 23        	c.fld	fa4, 0x0(a5)
   19606: 63 ca 0b 32  	blt	s7, zero, 0x1993a <__gdtoa+0xada>
   1960a: d3 87 06 f2  	fmv.d.x	fa5, a3
   1960e: 85 47        	c.li	a5, 0x1
   19610: 3e c7        	c.swsp	a5, 0x8c(sp)
   19612: d3 f7 e7 1a  	fdiv.d	fa5, fa5, fa4, dyn
   19616: e2 77        	c.ldsp	a5, 0x38(sp)
   19618: d3 86 06 f2  	fmv.d.x	fa3, a3
   1961c: 93 0c 18 00  	addi	s9, a6, 0x1
   19620: 1b 89 17 00  	addiw	s2, a5, 0x1
   19624: ca 85        	c.mv	a1, s2
   19626: d3 97 07 c2  	fcvt.w.d	a5, fa5, rtz
   1962a: d3 87 07 d2  	fcvt.d.w	fa5, a5
   1962e: 1b 86 07 03  	addiw	a2, a5, 0x30
   19632: 23 00 c8 00  	sb	a2, 0x0(a6)
   19636: cb 77 f7 6a  	fnmsub.d	fa5, fa4, fa5, fa3, dyn
   1963a: d3 06 00 f2  	fmv.d.x	fa3, zero
   1963e: 81 27        	c.addiw	a5, 0x0
   19640: d3 a6 d7 a2  	feq.d	a3, fa5, fa3
   19644: b9 e6        	c.bnez	a3, 0x19692 <__gdtoa+0x832>
   19646: 87 b5 01 1c  	fld	fa1, 0x1c0(gp)
   1964a: 53 86 d6 22  	fsgnj.d	fa2, fa3, fa3
   1964e: 22 76        	c.ldsp	a2, 0x28(sp)
   19650: 2d a0        	c.j	0x1967a <__gdtoa+0x81a>
   19652: d3 f7 b7 12  	fmul.d	fa5, fa5, fa1, dyn
   19656: 36 c7        	c.swsp	a3, 0x8c(sp)
   19658: 85 0c        	c.addi	s9, 0x1
   1965a: d3 f6 e7 1a  	fdiv.d	fa3, fa5, fa4, dyn
   1965e: d3 97 06 c2  	fcvt.w.d	a5, fa3, rtz
   19662: d3 86 07 d2  	fcvt.d.w	fa3, a5
   19666: 1b 87 07 03  	addiw	a4, a5, 0x30
   1966a: a3 8f ec fe  	sb	a4, -0x1(s9)
   1966e: cb f7 e6 7a  	fnmsub.d	fa5, fa3, fa4, fa5, dyn
   19672: 81 27        	c.addiw	a5, 0x0
   19674: 53 a7 c7 a2  	feq.d	a4, fa5, fa2
   19678: 09 ef        	c.bnez	a4, 0x19692 <__gdtoa+0x832>
   1967a: 3a 47        	c.lwsp	a4, 0x8c(sp)
   1967c: 9b 06 17 00  	addiw	a3, a4, 0x1
   19680: e3 19 c7 fc  	bne	a4, a2, 0x19652 <__gdtoa+0x7f2>
   19684: 02 77        	c.ldsp	a4, 0x20(sp)
   19686: 63 08 07 50  	beq	a4, zero, 0x19b96 <__gdtoa+0xd36>
   1968a: 85 47        	c.li	a5, 0x1
   1968c: c1 49        	c.li	s3, 0x10
   1968e: 63 08 f7 62  	beq	a4, a5, 0x19cbe <__gdtoa+0xe5e>
   19692: e2 85        	c.mv	a1, s8
   19694: 22 85        	c.mv	a0, s0
   19696: 42 e8        	c.sdsp	a6, 0x10(sp)
   19698: ef 00 90 3c  	jal	ra, 0x1a260 <_Bfree>
   1969c: a2 67        	c.ldsp	a5, 0x8(sp)
   1969e: 23 80 0c 00  	sb	zero, 0x0(s9)
   196a2: 23 a0 24 01  	sw	s2, 0x0(s1)
   196a6: 42 68        	c.ldsp	a6, 0x10(sp)
   196a8: 99 c3        	c.beqz	a5, 0x196ae <__gdtoa+0x84e>
   196aa: 23 b0 97 01  	sd	s9, 0x0(a5)
   196ae: 83 27 0a 00  	lw	a5, 0x0(s4)
   196b2: 4e 74        	c.ldsp	s0, 0xf0(sp)
   196b4: 0e 79        	c.ldsp	s2, 0xe0(sp)
   196b6: b3 e7 f9 00  	or	a5, s3, a5
   196ba: ae 6a        	c.ldsp	s5, 0xc8(sp)
   196bc: 0e 6b        	c.ldsp	s6, 0xc0(sp)
   196be: ea 7b        	c.ldsp	s7, 0xb8(sp)
   196c0: 4a 7c        	c.ldsp	s8, 0xb0(sp)
   196c2: 0a 7d        	c.ldsp	s10, 0xa0(sp)
   196c4: ea 6d        	c.ldsp	s11, 0x98(sp)
   196c6: 23 20 fa 00  	sw	a5, 0x0(s4)
   196ca: c5 b1        	c.j	0x193aa <__gdtoa+0x54a>
   196cc: e3 94 d7 ae  	bne	a5, a3, 0x191b4 <__gdtoa+0x354>
   196d0: 83 27 4b 00  	lw	a5, 0x4(s6)
   196d4: 42 67        	c.ldsp	a4, 0x10(sp)
   196d6: 85 27        	c.addiw	a5, 0x1
   196d8: e3 de e7 ac  	bge	a5, a4, 0x191b4 <__gdtoa+0x354>
   196dc: e2 67        	c.ldsp	a5, 0x18(sp)
   196de: 05 2e        	c.addiw	t3, 0x1
   196e0: 05 43        	c.li	t1, 0x1
   196e2: 85 27        	c.addiw	a5, 0x1
   196e4: 3e ec        	c.sdsp	a5, 0x18(sp)
   196e6: f9 b4        	c.j	0x191b4 <__gdtoa+0x354>
   196e8: 53 07 05 d2  	fcvt.d.w	fa4, a0
   196ec: d3 25 f7 a2  	feq.d	a1, fa4, fa5
   196f0: e3 9e 05 8e  	bne	a1, zero, 0x18fec <__gdtoa+0x18c>
   196f4: 1b 03 f5 ff  	addiw	t1, a0, -0x1
   196f8: d5 b8        	c.j	0x18fec <__gdtoa+0x18c>
   196fa: 05 47        	c.li	a4, 0x1
   196fc: 81 4a        	c.li	s5, 0x0
   196fe: ba e0        	c.sdsp	a4, 0x40(sp)
   19700: 9b 85 0b 00  	addiw	a1, s7, 0x0
   19704: 63 43 70 01  	blt	zero, s7, 0x1970a <__gdtoa+0x8aa>
   19708: 85 45        	c.li	a1, 0x1
   1970a: ae 88        	c.mv	a7, a1
   1970c: ae fc        	c.sdsp	a1, 0x78(sp)
   1970e: 2e f4        	c.sdsp	a1, 0x28(sp)
   19710: ae 8b        	c.mv	s7, a1
   19712: 9d ba        	c.j	0x19088 <__gdtoa+0x228>
   19714: ef 00 f0 35  	jal	ra, 0x1a272 <__multadd>
   19718: aa 8a        	c.mv	s5, a0
   1971a: e3 0b 05 cc  	beq	a0, zero, 0x193f0 <__gdtoa+0x590>
   1971e: aa 84        	c.mv	s1, a0
   19720: 91 be        	c.j	0x19274 <__gdtoa+0x414>
   19722: e3 56 0b b0  	bge	s6, zero, 0x1922e <__gdtoa+0x3ce>
   19726: 82 77        	c.ldsp	a5, 0x20(sp)
   19728: 26 ec        	c.sdsp	s1, 0x18(sp)
   1972a: 52 83        	c.mv	t1, s4
   1972c: 42 78        	c.ldsp	a6, 0x30(sp)
   1972e: 22 7a        	c.ldsp	s4, 0x28(sp)
   19730: 86 64        	c.ldsp	s1, 0x40(sp)
   19732: ba 89        	c.mv	s3, a4
   19734: 63 9e 07 6e  	bne	a5, zero, 0x19e30 <__gdtoa+0xfd0>
   19738: 03 26 4c 01  	lw	a2, 0x14(s8)
   1973c: 85 46        	c.li	a3, 0x1
   1973e: c1 49        	c.li	s3, 0x10
   19740: 93 8c 1b 00  	addi	s9, s7, 0x1
   19744: 63 db c6 68  	bge	a3, a2, 0x19dda <__gdtoa+0xf7a>
   19748: 23 80 6b 00  	sb	t1, 0x0(s7)
   1974c: 56 8b        	c.mv	s6, s5
   1974e: e2 6a        	c.ldsp	s5, 0x18(sp)
   19750: ea 85        	c.mv	a1, s10
   19752: 22 85        	c.mv	a0, s0
   19754: 42 e8        	c.sdsp	a6, 0x10(sp)
   19756: ef 00 b0 30  	jal	ra, 0x1a260 <_Bfree>
   1975a: e2 77        	c.ldsp	a5, 0x38(sp)
   1975c: 42 68        	c.ldsp	a6, 0x10(sp)
   1975e: 1b 89 17 00  	addiw	s2, a5, 0x1
   19762: e3 88 0a f2  	beq	s5, zero, 0x19692 <__gdtoa+0x832>
   19766: 63 09 0b 00  	beq	s6, zero, 0x19778 <__gdtoa+0x918>
   1976a: 63 07 5b 01  	beq	s6, s5, 0x19778 <__gdtoa+0x918>
   1976e: da 85        	c.mv	a1, s6
   19770: 22 85        	c.mv	a0, s0
   19772: ef 00 f0 2e  	jal	ra, 0x1a260 <_Bfree>
   19776: 42 68        	c.ldsp	a6, 0x10(sp)
   19778: d6 85        	c.mv	a1, s5
   1977a: 22 85        	c.mv	a0, s0
   1977c: 42 e8        	c.sdsp	a6, 0x10(sp)
   1977e: ef 00 30 2e  	jal	ra, 0x1a260 <_Bfree>
   19782: 42 68        	c.ldsp	a6, 0x10(sp)
   19784: 39 b7        	c.j	0x19692 <__gdtoa+0x832>
   19786: e2 85        	c.mv	a1, s8
   19788: 22 85        	c.mv	a0, s0
   1978a: 42 f8        	c.sdsp	a6, 0x30(sp)
   1978c: 72 ec        	c.sdsp	t3, 0x18(sp)
   1978e: 1a e8        	c.sdsp	t1, 0x10(sp)
   19790: ef 10 e0 09  	jal	ra, 0x1a82e <__lshift>
   19794: 2a 8c        	c.mv	s8, a0
   19796: e3 0d 05 c4  	beq	a0, zero, 0x193f0 <__gdtoa+0x590>
   1979a: ba 47        	c.lwsp	a5, 0x8c(sp)
   1979c: 42 78        	c.ldsp	a6, 0x30(sp)
   1979e: 62 6e        	c.ldsp	t3, 0x18(sp)
   197a0: 42 63        	c.ldsp	t1, 0x10(sp)
   197a2: 35 b4        	c.j	0x191ce <__gdtoa+0x36e>
   197a4: ea 85        	c.mv	a1, s10
   197a6: 62 85        	c.mv	a0, s8
   197a8: 42 ec        	c.sdsp	a6, 0x18(sp)
   197aa: 1a e8        	c.sdsp	t1, 0x10(sp)
   197ac: ef 10 a0 1a  	jal	ra, 0x1a956 <__mcmp>
   197b0: 42 63        	c.ldsp	t1, 0x10(sp)
   197b2: 62 68        	c.ldsp	a6, 0x18(sp)
   197b4: e3 54 05 a2  	bge	a0, zero, 0x191dc <__gdtoa+0x37c>
   197b8: e2 77        	c.ldsp	a5, 0x38(sp)
   197ba: e2 85        	c.mv	a1, s8
   197bc: 81 46        	c.li	a3, 0x0
   197be: fd 37        	c.addiw	a5, -0x1
   197c0: 29 46        	c.li	a2, 0xa
   197c2: 22 85        	c.mv	a0, s0
   197c4: 3e fc        	c.sdsp	a5, 0x38(sp)
   197c6: ef 00 d0 2a  	jal	ra, 0x1a272 <__multadd>
   197ca: 2a 8c        	c.mv	s8, a0
   197cc: e3 02 05 c2  	beq	a0, zero, 0x193f0 <__gdtoa+0x590>
   197d0: 86 67        	c.ldsp	a5, 0x40(sp)
   197d2: 62 68        	c.ldsp	a6, 0x18(sp)
   197d4: 63 91 07 54  	bne	a5, zero, 0x19d16 <__gdtoa+0xeb6>
   197d8: e6 77        	c.ldsp	a5, 0x78(sp)
   197da: 63 5a f0 14  	bge	zero, a5, 0x1992e <__gdtoa+0xace>
   197de: 3e f4        	c.sdsp	a5, 0x28(sp)
   197e0: 22 79        	c.ldsp	s2, 0x28(sp)
   197e2: c2 8b        	c.mv	s7, a6
   197e4: 85 46        	c.li	a3, 0x1
   197e6: c2 89        	c.mv	s3, a6
   197e8: 01 a8        	c.j	0x197f8 <__gdtoa+0x998>
   197ea: ef 00 90 28  	jal	ra, 0x1a272 <__multadd>
   197ee: 2a 8c        	c.mv	s8, a0
   197f0: e3 00 05 c0  	beq	a0, zero, 0x193f0 <__gdtoa+0x590>
   197f4: ba 46        	c.lwsp	a3, 0x8c(sp)
   197f6: 85 26        	c.addiw	a3, 0x1
   197f8: ea 85        	c.mv	a1, s10
   197fa: 62 85        	c.mv	a0, s8
   197fc: 36 c7        	c.swsp	a3, 0x8c(sp)
   197fe: ef 00 c0 76  	jal	ra, 0x19f6a <__quorem_D2A>
   19802: 1b 03 05 03  	addiw	t1, a0, 0x30
   19806: 23 80 6b 00  	sb	t1, 0x0(s7)
   1980a: ba 47        	c.lwsp	a5, 0x8c(sp)
   1980c: 81 46        	c.li	a3, 0x0
   1980e: 29 46        	c.li	a2, 0xa
   19810: e2 85        	c.mv	a1, s8
   19812: 22 85        	c.mv	a0, s0
   19814: 85 0b        	c.addi	s7, 0x1
   19816: e3 ca 27 fd  	blt	a5, s2, 0x197ea <__gdtoa+0x98a>
   1981a: 4e 88        	c.mv	a6, s3
   1981c: 01 4b        	c.li	s6, 0x0
   1981e: 82 77        	c.ldsp	a5, 0x20(sp)
   19820: 63 87 07 2c  	beq	a5, zero, 0x19aee <__gdtoa+0xc8e>
   19824: 89 46        	c.li	a3, 0x2
   19826: 03 26 4c 01  	lw	a2, 0x14(s8)
   1982a: 63 88 d7 2e  	beq	a5, a3, 0x19b1a <__gdtoa+0xcba>
   1982e: 85 46        	c.li	a3, 0x1
   19830: 63 c9 c6 20  	blt	a3, a2, 0x19a42 <__gdtoa+0xbe2>
   19834: 83 26 8c 01  	lw	a3, 0x18(s8)
   19838: 63 95 06 20  	bne	a3, zero, 0x19a42 <__gdtoa+0xbe2>
   1983c: b3 36 d0 00  	sltu	a3, zero, a3
   19840: 93 99 46 00  	slli	s3, a3, 0x4
   19844: 13 06 00 03  	addi	a2, zero, 0x30
   19848: 83 c7 fb ff  	lbu	a5, -0x1(s7)
   1984c: de 8c        	c.mv	s9, s7
   1984e: fd 1b        	c.addi	s7, -0x1
   19850: e3 8c c7 fe  	beq	a5, a2, 0x19848 <__gdtoa+0x9e8>
   19854: f5 bd        	c.j	0x19750 <__gdtoa+0x8f0>
   19856: 22 77        	c.ldsp	a4, 0x28(sp)
   19858: 42 76        	c.ldsp	a2, 0x30(sp)
   1985a: 9b 06 f7 ff  	addiw	a3, a4, -0x1
   1985e: 63 41 d6 10  	blt	a2, a3, 0x19960 <__gdtoa+0xb00>
   19862: 3b 0d d6 40  	subw	s10, a2, a3
   19866: 63 5b 07 46  	bge	a4, zero, 0x19cdc <__gdtoa+0xe7c>
   1986a: 62 67        	c.ldsp	a4, 0x18(sp)
   1986c: a2 76        	c.ldsp	a3, 0x28(sp)
   1986e: 02 c7        	c.swsp	zero, 0x8c(sp)
   19870: bb 0c d7 40  	subw	s9, a4, a3
   19874: 7d b0        	c.j	0x19122 <__gdtoa+0x2c2>
   19876: 89 47        	c.li	a5, 0x2
   19878: e3 d5 27 97  	bge	a5, s2, 0x191e2 <__gdtoa+0x382>
   1987c: ea 85        	c.mv	a1, s10
   1987e: 81 46        	c.li	a3, 0x0
   19880: 15 46        	c.li	a2, 0x5
   19882: 22 85        	c.mv	a0, s0
   19884: 42 e8        	c.sdsp	a6, 0x10(sp)
   19886: ef 00 d0 1e  	jal	ra, 0x1a272 <__multadd>
   1988a: aa 85        	c.mv	a1, a0
   1988c: e3 02 05 b6  	beq	a0, zero, 0x193f0 <__gdtoa+0x590>
   19890: a2 77        	c.ldsp	a5, 0x28(sp)
   19892: 42 68        	c.ldsp	a6, 0x10(sp)
   19894: 63 92 07 14  	bne	a5, zero, 0x199d8 <__gdtoa+0xb78>
   19898: 2a e8        	c.sdsp	a0, 0x10(sp)
   1989a: 62 85        	c.mv	a0, s8
   1989c: 42 ec        	c.sdsp	a6, 0x18(sp)
   1989e: ef 10 80 0b  	jal	ra, 0x1a956 <__mcmp>
   198a2: e2 77        	c.ldsp	a5, 0x38(sp)
   198a4: c2 65        	c.ldsp	a1, 0x10(sp)
   198a6: 62 68        	c.ldsp	a6, 0x18(sp)
   198a8: 1b 89 27 00  	addiw	s2, a5, 0x2
   198ac: 63 56 a0 12  	bge	zero, a0, 0x199d8 <__gdtoa+0xb78>
   198b0: 93 07 10 03  	addi	a5, zero, 0x31
   198b4: 93 0c 18 00  	addi	s9, a6, 0x1
   198b8: 23 00 f8 00  	sb	a5, 0x0(a6)
   198bc: 93 09 00 02  	addi	s3, zero, 0x20
   198c0: 22 85        	c.mv	a0, s0
   198c2: 42 e8        	c.sdsp	a6, 0x10(sp)
   198c4: ef 00 d0 19  	jal	ra, 0x1a260 <_Bfree>
   198c8: 42 68        	c.ldsp	a6, 0x10(sp)
   198ca: e3 84 0a dc  	beq	s5, zero, 0x19692 <__gdtoa+0x832>
   198ce: 6d b5        	c.j	0x19778 <__gdtoa+0x918>
   198d0: 85 48        	c.li	a7, 0x1
   198d2: 85 45        	c.li	a1, 0x1
   198d4: 6f f0 4f fb  	jal	zero, 0x19088 <__gdtoa+0x228>
   198d8: aa 85        	c.mv	a1, a0
   198da: 1a 86        	c.mv	a2, t1
   198dc: 22 85        	c.mv	a0, s0
   198de: c2 e4        	c.sdsp	a6, 0x48(sp)
   198e0: 72 f8        	c.sdsp	t3, 0x30(sp)
   198e2: ef 00 30 67  	jal	ra, 0x1a754 <__pow5mult>
   198e6: 2a 8d        	c.mv	s10, a0
   198e8: e3 04 05 b0  	beq	a0, zero, 0x193f0 <__gdtoa+0x590>
   198ec: 85 46        	c.li	a3, 0x1
   198ee: 42 7e        	c.ldsp	t3, 0x30(sp)
   198f0: 26 68        	c.ldsp	a6, 0x48(sp)
   198f2: 63 d3 26 1b  	bge	a3, s2, 0x19a98 <__gdtoa+0xc38>
   198f6: 83 27 4d 01  	lw	a5, 0x14(s10)
   198fa: 42 f8        	c.sdsp	a6, 0x30(sp)
   198fc: 72 e8        	c.sdsp	t3, 0x10(sp)
   198fe: fd 37        	c.addiw	a5, -0x1
   19900: 91 07        	c.addi	a5, 0x4
   19902: 8a 07        	c.slli	a5, 0x2
   19904: ea 97        	c.add	a5, s10
   19906: 88 47        	c.lw	a0, 0x8(a5)
   19908: ef 00 f0 33  	jal	ra, 0x1a446 <__hi0bits>
   1990c: 42 78        	c.ldsp	a6, 0x30(sp)
   1990e: 42 6e        	c.ldsp	t3, 0x10(sp)
   19910: 4e 83        	c.mv	t1, s3
   19912: 6f f0 5f 8a  	jal	zero, 0x191b6 <__gdtoa+0x356>
   19916: 85 46        	c.li	a3, 0x1
   19918: e3 cf 26 f3  	blt	a3, s2, 0x19856 <__gdtoa+0x9f6>
   1991c: 62 67        	c.ldsp	a4, 0x18(sp)
   1991e: 42 7d        	c.ldsp	s10, 0x30(sp)
   19920: 3b 8e c5 01  	addw	t3, a1, t3
   19924: ba 8c        	c.mv	s9, a4
   19926: 2d 9f        	c.addw	a4, a1
   19928: 3a ec        	c.sdsp	a4, 0x18(sp)
   1992a: 6f f0 8f ff  	jal	zero, 0x19122 <__gdtoa+0x2c2>
   1992e: 89 47        	c.li	a5, 0x2
   19930: 63 cb 27 4b  	blt	a5, s2, 0x19de6 <__gdtoa+0xf86>
   19934: e6 77        	c.ldsp	a5, 0x78(sp)
   19936: 3e f4        	c.sdsp	a5, 0x28(sp)
   19938: 65 b5        	c.j	0x197e0 <__gdtoa+0x980>
   1993a: a2 77        	c.ldsp	a5, 0x28(sp)
   1993c: e3 47 f0 cc  	blt	zero, a5, 0x1960a <__gdtoa+0x7aa>
   19940: d1 eb        	c.bnez	a5, 0x199d4 <__gdtoa+0xb74>
   19942: 87 b7 01 1e  	fld	fa5, 0x1e0(gp)
   19946: 53 77 f7 12  	fmul.d	fa4, fa4, fa5, dyn
   1994a: d3 87 06 f2  	fmv.d.x	fa5, a3
   1994e: d3 87 e7 a2  	fle.d	a5, fa5, fa4
   19952: c9 e3        	c.bnez	a5, 0x199d4 <__gdtoa+0xb74>
   19954: e2 77        	c.ldsp	a5, 0x38(sp)
   19956: 81 45        	c.li	a1, 0x0
   19958: 81 4a        	c.li	s5, 0x0
   1995a: 1b 89 27 00  	addiw	s2, a5, 0x2
   1995e: 89 bf        	c.j	0x198b0 <__gdtoa+0xa50>
   19960: 42 77        	c.ldsp	a4, 0x30(sp)
   19962: e2 65        	c.ldsp	a1, 0x18(sp)
   19964: 01 4d        	c.li	s10, 0x0
   19966: 3b 86 e6 40  	subw	a2, a3, a4
   1996a: 22 77        	c.ldsp	a4, 0x28(sp)
   1996c: ae 8c        	c.mv	s9, a1
   1996e: 3b 03 66 00  	addw	t1, a2, t1
   19972: 3a c7        	c.swsp	a4, 0x8c(sp)
   19974: 3b 0e c7 01  	addw	t3, a4, t3
   19978: 2d 9f        	c.addw	a4, a1
   1997a: 3a ec        	c.sdsp	a4, 0x18(sp)
   1997c: 36 f8        	c.sdsp	a3, 0x30(sp)
   1997e: 6f f0 4f fa  	jal	zero, 0x19122 <__gdtoa+0x2c2>
   19982: 87 b7 81 1d  	fld	fa5, 0x1d8(gp)
   19986: 07 b7 01 1d  	fld	fa4, 0x1d0(gp)
   1998a: d3 86 0e f2  	fmv.d.x	fa3, t4
   1998e: b7 06 c0 fc  	lui	a3, 0xfcc00
   19992: 7d 5f        	c.li	t5, -0x1
   19994: c3 f7 f6 72  	fmadd.d	fa5, fa3, fa5, fa4, dyn
   19998: 13 5f 0f 02  	srli	t5, t5, 0x20
   1999c: d3 85 07 e2  	fmv.x.d	a1, fa5
   199a0: 13 d5 05 02  	srli	a0, a1, 0x20
   199a4: a9 9e        	c.addw	a3, a0
   199a6: 82 16        	c.slli	a3, 0x20
   199a8: 33 7f bf 00  	and	t5, t5, a1
   199ac: 33 6f df 00  	or	t5, t5, a3
   199b0: 87 b7 01 1e  	fld	fa5, 0x1e0(gp)
   199b4: 53 87 0e f2  	fmv.d.x	fa4, t4
   199b8: d3 77 f7 0a  	fsub.d	fa5, fa4, fa5, dyn
   199bc: 53 07 0f f2  	fmv.d.x	fa4, t5
   199c0: d3 16 f7 a2  	flt.d	a3, fa4, fa5
   199c4: 63 98 06 30  	bne	a3, zero, 0x19cd4 <__gdtoa+0xe74>
   199c8: 53 17 e7 22  	fsgnjn.d	fa4, fa4, fa4
   199cc: d3 96 e7 a2  	flt.d	a3, fa5, fa4
   199d0: 63 8a 06 2e  	beq	a3, zero, 0x19cc4 <__gdtoa+0xe64>
   199d4: 81 45        	c.li	a1, 0x0
   199d6: 81 4a        	c.li	s5, 0x0
   199d8: 3b 09 70 41  	subw	s2, zero, s7
   199dc: c2 8c        	c.mv	s9, a6
   199de: c1 49        	c.li	s3, 0x10
   199e0: c5 b5        	c.j	0x198c0 <__gdtoa+0xa60>
   199e2: d6 85        	c.mv	a1, s5
   199e4: 6a 86        	c.mv	a2, s10
   199e6: 22 85        	c.mv	a0, s0
   199e8: c2 f0        	c.sdsp	a6, 0x60(sp)
   199ea: be ec        	c.sdsp	a5, 0x58(sp)
   199ec: f2 e8        	c.sdsp	t3, 0x50(sp)
   199ee: 9a e4        	c.sdsp	t1, 0x48(sp)
   199f0: ef 00 50 56  	jal	ra, 0x1a754 <__pow5mult>
   199f4: aa 8a        	c.mv	s5, a0
   199f6: e3 0d 05 9e  	beq	a0, zero, 0x193f0 <__gdtoa+0x590>
   199fa: aa 85        	c.mv	a1, a0
   199fc: 62 86        	c.mv	a2, s8
   199fe: 22 85        	c.mv	a0, s0
   19a00: ef 00 90 3a  	jal	ra, 0x1a5a8 <__multiply>
   19a04: aa f4        	c.sdsp	a0, 0x68(sp)
   19a06: e3 05 05 9e  	beq	a0, zero, 0x193f0 <__gdtoa+0x590>
   19a0a: e2 85        	c.mv	a1, s8
   19a0c: 22 85        	c.mv	a0, s0
   19a0e: ef 00 30 05  	jal	ra, 0x1a260 <_Bfree>
   19a12: c2 77        	c.ldsp	a5, 0x30(sp)
   19a14: a6 76        	c.ldsp	a3, 0x68(sp)
   19a16: 26 63        	c.ldsp	t1, 0x48(sp)
   19a18: 3b 87 a7 41  	subw	a4, a5, s10
   19a1c: 3a f8        	c.sdsp	a4, 0x30(sp)
   19a1e: 46 6e        	c.ldsp	t3, 0x50(sp)
   19a20: e6 67        	c.ldsp	a5, 0x58(sp)
   19a22: 06 78        	c.ldsp	a6, 0x60(sp)
   19a24: 36 8c        	c.mv	s8, a3
   19a26: 63 03 07 f6  	beq	a4, zero, 0x1918c <__gdtoa+0x32c>
   19a2a: 6f f0 2f f4  	jal	zero, 0x1916c <__gdtoa+0x30c>
   19a2e: 56 8b        	c.mv	s6, s5
   19a30: e2 6a        	c.ldsp	s5, 0x18(sp)
   19a32: de 86        	c.mv	a3, s7
   19a34: 93 8c 1b 00  	addi	s9, s7, 0x1
   19a38: 13 06 90 03  	addi	a2, zero, 0x39
   19a3c: e6 8b        	c.mv	s7, s9
   19a3e: 23 80 c6 00  	sb	a2, 0x0(a3)
   19a42: 13 06 90 03  	addi	a2, zero, 0x39
   19a46: 19 a0        	c.j	0x19a4c <__gdtoa+0xbec>
   19a48: 63 02 78 0f  	beq	a6, s7, 0x19b2c <__gdtoa+0xccc>
   19a4c: 83 c6 fb ff  	lbu	a3, -0x1(s7)
   19a50: de 8c        	c.mv	s9, s7
   19a52: fd 1b        	c.addi	s7, -0x1
   19a54: e3 8a c6 fe  	beq	a3, a2, 0x19a48 <__gdtoa+0xbe8>
   19a58: 85 26        	c.addiw	a3, 0x1
   19a5a: 23 80 db 00  	sb	a3, 0x0(s7)
   19a5e: 93 09 00 02  	addi	s3, zero, 0x20
   19a62: fd b1        	c.j	0x19750 <__gdtoa+0x8f0>
   19a64: d6 85        	c.mv	a1, s5
   19a66: 22 85        	c.mv	a0, s0
   19a68: 42 ec        	c.sdsp	a6, 0x18(sp)
   19a6a: 1a e8        	c.sdsp	t1, 0x10(sp)
   19a6c: ef 00 30 5c  	jal	ra, 0x1a82e <__lshift>
   19a70: 42 63        	c.ldsp	t1, 0x10(sp)
   19a72: 62 68        	c.ldsp	a6, 0x18(sp)
   19a74: aa 8a        	c.mv	s5, a0
   19a76: 63 1d 05 f6  	bne	a0, zero, 0x191f0 <__gdtoa+0x390>
   19a7a: 9d ba        	c.j	0x193f0 <__gdtoa+0x590>
   19a7c: 05 47        	c.li	a4, 0x1
   19a7e: 81 4a        	c.li	s5, 0x0
   19a80: ba e0        	c.sdsp	a4, 0x40(sp)
   19a82: 6f f0 0f df  	jal	zero, 0x19072 <__gdtoa+0x212>
   19a86: 05 47        	c.li	a4, 0x1
   19a88: ba e0        	c.sdsp	a4, 0x40(sp)
   19a8a: 6f f0 8f de  	jal	zero, 0x19072 <__gdtoa+0x212>
   19a8e: 05 47        	c.li	a4, 0x1
   19a90: ba e0        	c.sdsp	a4, 0x40(sp)
   19a92: bd b1        	c.j	0x19700 <__gdtoa+0x8a0>
   19a94: 82 e0        	c.sdsp	zero, 0x40(sp)
   19a96: ad b1        	c.j	0x19700 <__gdtoa+0x8a0>
   19a98: c6 67        	c.ldsp	a5, 0x50(sp)
   19a9a: e3 9e d7 e4  	bne	a5, a3, 0x198f6 <__gdtoa+0xa96>
   19a9e: 83 27 4b 00  	lw	a5, 0x4(s6)
   19aa2: 42 67        	c.ldsp	a4, 0x10(sp)
   19aa4: 85 27        	c.addiw	a5, 0x1
   19aa6: e3 d8 e7 e4  	bge	a5, a4, 0x198f6 <__gdtoa+0xa96>
   19aaa: e2 67        	c.ldsp	a5, 0x18(sp)
   19aac: 05 2e        	c.addiw	t3, 0x1
   19aae: 85 49        	c.li	s3, 0x1
   19ab0: 85 27        	c.addiw	a5, 0x1
   19ab2: 3e ec        	c.sdsp	a5, 0x18(sp)
   19ab4: 89 b5        	c.j	0x198f6 <__gdtoa+0xa96>
   19ab6: 83 a5 8a 00  	lw	a1, 0x8(s5)
   19aba: 22 85        	c.mv	a0, s0
   19abc: 42 e8        	c.sdsp	a6, 0x10(sp)
   19abe: ef 00 e0 73  	jal	ra, 0x1a1fc <_Balloc>
   19ac2: aa 89        	c.mv	s3, a0
   19ac4: e3 06 05 92  	beq	a0, zero, 0x193f0 <__gdtoa+0x590>
   19ac8: 03 a6 4a 01  	lw	a2, 0x14(s5)
   19acc: 93 85 0a 01  	addi	a1, s5, 0x10
   19ad0: 41 05        	c.addi	a0, 0x10
   19ad2: 09 06        	c.addi	a2, 0x2
   19ad4: 0a 06        	c.slli	a2, 0x2
   19ad6: ef a0 ff e4  	jal	ra, 0x14924 <memcpy>
   19ada: 05 46        	c.li	a2, 0x1
   19adc: ce 85        	c.mv	a1, s3
   19ade: 22 85        	c.mv	a0, s0
   19ae0: ef 00 f0 54  	jal	ra, 0x1a82e <__lshift>
   19ae4: 2a ec        	c.sdsp	a0, 0x18(sp)
   19ae6: 42 68        	c.ldsp	a6, 0x10(sp)
   19ae8: 63 17 05 f0  	bne	a0, zero, 0x191f6 <__gdtoa+0x396>
   19aec: 11 b2        	c.j	0x193f0 <__gdtoa+0x590>
   19aee: e2 85        	c.mv	a1, s8
   19af0: 05 46        	c.li	a2, 0x1
   19af2: 22 85        	c.mv	a0, s0
   19af4: 42 e8        	c.sdsp	a6, 0x10(sp)
   19af6: 1a ec        	c.sdsp	t1, 0x18(sp)
   19af8: ef 00 70 53  	jal	ra, 0x1a82e <__lshift>
   19afc: 2a 8c        	c.mv	s8, a0
   19afe: e3 09 05 8e  	beq	a0, zero, 0x193f0 <__gdtoa+0x590>
   19b02: ea 85        	c.mv	a1, s10
   19b04: ef 00 30 65  	jal	ra, 0x1a956 <__mcmp>
   19b08: 42 68        	c.ldsp	a6, 0x10(sp)
   19b0a: e3 4c a0 f2  	blt	zero, a0, 0x19a42 <__gdtoa+0xbe2>
   19b0e: 11 e5        	c.bnez	a0, 0x19b1a <__gdtoa+0xcba>
   19b10: 62 63        	c.ldsp	t1, 0x18(sp)
   19b12: 13 73 13 00  	andi	t1, t1, 0x1
   19b16: e3 16 03 f2  	bne	t1, zero, 0x19a42 <__gdtoa+0xbe2>
   19b1a: 03 26 4c 01  	lw	a2, 0x14(s8)
   19b1e: 85 46        	c.li	a3, 0x1
   19b20: c1 49        	c.li	s3, 0x10
   19b22: e3 c1 c6 d2  	blt	a3, a2, 0x19844 <__gdtoa+0x9e4>
   19b26: 83 26 8c 01  	lw	a3, 0x18(s8)
   19b2a: 09 bb        	c.j	0x1983c <__gdtoa+0x9dc>
   19b2c: e2 77        	c.ldsp	a5, 0x38(sp)
   19b2e: 93 09 00 02  	addi	s3, zero, 0x20
   19b32: 85 27        	c.addiw	a5, 0x1
   19b34: 3e fc        	c.sdsp	a5, 0x38(sp)
   19b36: 93 07 10 03  	addi	a5, zero, 0x31
   19b3a: 23 00 f8 00  	sb	a5, 0x0(a6)
   19b3e: 09 b9        	c.j	0x19750 <__gdtoa+0x8f0>
   19b40: 82 77        	c.ldsp	a5, 0x20(sp)
   19b42: 26 ec        	c.sdsp	s1, 0x18(sp)
   19b44: 52 83        	c.mv	t1, s4
   19b46: 42 78        	c.ldsp	a6, 0x30(sp)
   19b48: 22 7a        	c.ldsp	s4, 0x28(sp)
   19b4a: 86 64        	c.ldsp	s1, 0x40(sp)
   19b4c: 91 cb        	c.beqz	a5, 0x19b60 <__gdtoa+0xd00>
   19b4e: 03 26 4c 01  	lw	a2, 0x14(s8)
   19b52: 85 46        	c.li	a3, 0x1
   19b54: 63 cf c6 f8  	blt	a3, a2, 0x192f2 <__gdtoa+0x492>
   19b58: 83 26 8c 01  	lw	a3, 0x18(s8)
   19b5c: 63 9b 06 f8  	bne	a3, zero, 0x192f2 <__gdtoa+0x492>
   19b60: e2 85        	c.mv	a1, s8
   19b62: 05 46        	c.li	a2, 0x1
   19b64: 22 85        	c.mv	a0, s0
   19b66: 42 f0        	c.sdsp	a6, 0x20(sp)
   19b68: 1a e8        	c.sdsp	t1, 0x10(sp)
   19b6a: ef 00 50 4c  	jal	ra, 0x1a82e <__lshift>
   19b6e: 2a 8c        	c.mv	s8, a0
   19b70: e3 00 05 88  	beq	a0, zero, 0x193f0 <__gdtoa+0x590>
   19b74: ea 85        	c.mv	a1, s10
   19b76: ef 00 10 5e  	jal	ra, 0x1a956 <__mcmp>
   19b7a: 42 63        	c.ldsp	t1, 0x10(sp)
   19b7c: 02 78        	c.ldsp	a6, 0x20(sp)
   19b7e: 63 57 a0 26  	bge	zero, a0, 0x19dec <__gdtoa+0xf8c>
   19b82: 93 06 90 03  	addi	a3, zero, 0x39
   19b86: e3 04 d3 ea  	beq	t1, a3, 0x19a2e <__gdtoa+0xbce>
   19b8a: 93 07 00 02  	addi	a5, zero, 0x20
   19b8e: 1b 83 1c 03  	addiw	t1, s9, 0x31
   19b92: 3e f0        	c.sdsp	a5, 0x20(sp)
   19b94: 55 b6        	c.j	0x19738 <__gdtoa+0x8d8>
   19b96: d3 f7 f7 02  	fadd.d	fa5, fa5, fa5, dyn
   19b9a: 83 c6 fc ff  	lbu	a3, -0x1(s9)
   19b9e: 53 16 f7 a2  	flt.d	a2, fa4, fa5
   19ba2: e3 12 06 9e  	bne	a2, zero, 0x19586 <__gdtoa+0x726>
   19ba6: 53 a6 e7 a2  	feq.d	a2, fa5, fa4
   19baa: 01 c6        	c.beqz	a2, 0x19bb2 <__gdtoa+0xd52>
   19bac: 85 8b        	c.andi	a5, 0x1
   19bae: e3 9c 07 9c  	bne	a5, zero, 0x19586 <__gdtoa+0x726>
   19bb2: e6 87        	c.mv	a5, s9
   19bb4: c1 49        	c.li	s3, 0x10
   19bb6: 13 06 00 03  	addi	a2, zero, 0x30
   19bba: 03 c7 f7 ff  	lbu	a4, -0x1(a5)
   19bbe: be 8c        	c.mv	s9, a5
   19bc0: fd 17        	c.addi	a5, -0x1
   19bc2: e3 0c c7 fe  	beq	a4, a2, 0x19bba <__gdtoa+0xd5a>
   19bc6: 1b 89 05 00  	addiw	s2, a1, 0x0
   19bca: e1 b4        	c.j	0x19692 <__gdtoa+0x832>
   19bcc: 93 06 10 03  	addi	a3, zero, 0x31
   19bd0: 85 25        	c.addiw	a1, 0x1
   19bd2: c9 ba        	c.j	0x195a4 <__gdtoa+0x744>
   19bd4: 53 07 0f f2  	fmv.d.x	fa4, t5
   19bd8: d3 85 06 f2  	fmv.d.x	fa1, a3
   19bdc: c2 8c        	c.mv	s9, a6
   19bde: 53 f6 e7 12  	fmul.d	fa2, fa5, fa4, dyn
   19be2: d3 87 06 f2  	fmv.d.x	fa5, a3
   19be6: 07 b7 01 1c  	fld	fa4, 0x1c0(gp)
   19bea: 85 46        	c.li	a3, 0x1
   19bec: 36 c7        	c.swsp	a3, 0x8c(sp)
   19bee: 01 4f        	c.li	t5, 0x0
   19bf0: 29 a0        	c.j	0x19bfa <__gdtoa+0xd9a>
   19bf2: d3 f7 e7 12  	fmul.d	fa5, fa5, fa4, dyn
   19bf6: 2a c7        	c.swsp	a0, 0x8c(sp)
   19bf8: 05 4f        	c.li	t5, 0x1
   19bfa: 53 97 07 c2  	fcvt.w.d	a4, fa5, rtz
   19bfe: 85 0c        	c.addi	s9, 0x1
   19c00: 9b 06 07 03  	addiw	a3, a4, 0x30
   19c04: 1b 05 07 00  	addiw	a0, a4, 0x0
   19c08: 93 f6 f6 0f  	andi	a3, a3, 0xff
   19c0c: 11 c5        	c.beqz	a0, 0x19c18 <__gdtoa+0xdb8>
   19c0e: d3 06 07 d2  	fcvt.d.w	fa3, a4
   19c12: 05 4f        	c.li	t5, 0x1
   19c14: d3 f7 d7 0a  	fsub.d	fa5, fa5, fa3, dyn
   19c18: a3 8f dc fe  	sb	a3, -0x1(s9)
   19c1c: 3a 47        	c.lwsp	a4, 0x8c(sp)
   19c1e: 1b 05 17 00  	addiw	a0, a4, 0x1
   19c22: e3 18 f7 fd  	bne	a4, t6, 0x19bf2 <__gdtoa+0xd92>
   19c26: 63 04 0f 00  	beq	t5, zero, 0x19c2e <__gdtoa+0xdce>
   19c2a: d3 85 f7 22  	fsgnj.d	fa1, fa5, fa5
   19c2e: 87 b7 81 1e  	fld	fa5, 0x1e8(gp)
   19c32: 53 77 f6 02  	fadd.d	fa4, fa2, fa5, dyn
   19c36: 53 15 b7 a2  	flt.d	a0, fa4, fa1
   19c3a: 63 16 05 10  	bne	a0, zero, 0x19d46 <__gdtoa+0xee6>
   19c3e: d3 f7 c7 0a  	fsub.d	fa5, fa5, fa2, dyn
   19c42: d3 96 f5 a2  	flt.d	a3, fa1, fa5
   19c46: 63 9f 06 16  	bne	a3, zero, 0x19dc4 <__gdtoa+0xf64>
   19c4a: f6 86        	c.mv	a3, t4
   19c4c: 63 49 06 1a  	blt	a2, zero, 0x19dfe <__gdtoa+0xf9e>
   19c50: 02 f0        	c.sdsp	zero, 0x20(sp)
   19c52: 98 21        	c.fld	fa4, 0x0(a1)
   19c54: e3 db 0b 9a  	bge	s7, zero, 0x1960a <__gdtoa+0x7aa>
   19c58: a2 77        	c.ldsp	a5, 0x28(sp)
   19c5a: e3 98 07 9a  	bne	a5, zero, 0x1960a <__gdtoa+0x7aa>
   19c5e: d5 b1        	c.j	0x19942 <__gdtoa+0xae2>
   19c60: a6 87        	c.mv	a5, s1
   19c62: 52 83        	c.mv	t1, s4
   19c64: 56 8b        	c.mv	s6, s5
   19c66: 42 78        	c.ldsp	a6, 0x30(sp)
   19c68: 22 7a        	c.ldsp	s4, 0x28(sp)
   19c6a: 86 64        	c.ldsp	s1, 0x40(sp)
   19c6c: be 8a        	c.mv	s5, a5
   19c6e: 45 be        	c.j	0x1981e <__gdtoa+0x9be>
   19c70: e3 09 07 d0  	beq	a4, zero, 0x19982 <__gdtoa+0xb22>
   19c74: e6 7f        	c.ldsp	t6, 0x78(sp)
   19c76: 63 57 f0 05  	bge	zero, t6, 0x19cc4 <__gdtoa+0xe64>
   19c7a: 87 b7 01 1c  	fld	fa5, 0x1c0(gp)
   19c7e: b7 05 c0 fc  	lui	a1, 0xfcc00
   19c82: d3 77 f7 12  	fmul.d	fa5, fa4, fa5, dyn
   19c86: 07 b7 81 1c  	fld	fa4, 0x1c8(gp)
   19c8a: fd 53        	c.li	t2, -0x1
   19c8c: 53 85 07 e2  	fmv.x.d	a0, fa5
   19c90: 87 b7 01 1d  	fld	fa5, 0x1d0(gp)
   19c94: d3 06 05 f2  	fmv.d.x	fa3, a0
   19c98: aa 86        	c.mv	a3, a0
   19c9a: c3 f7 e6 7a  	fmadd.d	fa5, fa3, fa4, fa5, dyn
   19c9e: d3 8a 07 e2  	fmv.x.d	s5, fa5
   19ca2: 13 df 0a 02  	srli	t5, s5, 0x20
   19ca6: bb 85 e5 01  	addw	a1, a1, t5
   19caa: 7d 5f        	c.li	t5, -0x1
   19cac: 13 5f 0f 02  	srli	t5, t5, 0x20
   19cb0: 82 15        	c.slli	a1, 0x20
   19cb2: 33 7f 5f 01  	and	t5, t5, s5
   19cb6: 33 6f bf 00  	or	t5, t5, a1
   19cba: 6f f0 ff 82  	jal	zero, 0x194e8 <__gdtoa+0x688>
   19cbe: 83 c6 fc ff  	lbu	a3, -0x1(s9)
   19cc2: d1 b0        	c.j	0x19586 <__gdtoa+0x726>
   19cc4: f6 86        	c.mv	a3, t4
   19cc6: 63 4e 06 08  	blt	a2, zero, 0x19d62 <__gdtoa+0xf02>
   19cca: b7 85 02 00  	lui	a1, 0x28
   19cce: 93 85 85 86  	addi	a1, a1, -0x798
   19cd2: bd bf        	c.j	0x19c50 <__gdtoa+0xdf0>
   19cd4: 09 49        	c.li	s2, 0x2
   19cd6: 81 45        	c.li	a1, 0x0
   19cd8: 81 4a        	c.li	s5, 0x0
   19cda: d9 be        	c.j	0x198b0 <__gdtoa+0xa50>
   19cdc: e2 66        	c.ldsp	a3, 0x18(sp)
   19cde: 3a c7        	c.swsp	a4, 0x8c(sp)
   19ce0: 3b 0e c7 01  	addw	t3, a4, t3
   19ce4: 35 9f        	c.addw	a4, a3
   19ce6: b6 8c        	c.mv	s9, a3
   19ce8: 3a ec        	c.sdsp	a4, 0x18(sp)
   19cea: 6f f0 8f c3  	jal	zero, 0x19122 <__gdtoa+0x2c2>
   19cee: 52 83        	c.mv	t1, s4
   19cf0: 26 ec        	c.sdsp	s1, 0x18(sp)
   19cf2: 93 06 90 03  	addi	a3, zero, 0x39
   19cf6: 42 78        	c.ldsp	a6, 0x30(sp)
   19cf8: 22 7a        	c.ldsp	s4, 0x28(sp)
   19cfa: 86 64        	c.ldsp	s1, 0x40(sp)
   19cfc: e3 09 d3 d2  	beq	t1, a3, 0x19a2e <__gdtoa+0xbce>
   19d00: 9b 87 19 00  	addiw	a5, s3, 0x1
   19d04: 56 8b        	c.mv	s6, s5
   19d06: 93 8c 1b 00  	addi	s9, s7, 0x1
   19d0a: e2 6a        	c.ldsp	s5, 0x18(sp)
   19d0c: 23 80 fb 00  	sb	a5, 0x0(s7)
   19d10: 93 09 00 02  	addi	s3, zero, 0x20
   19d14: 35 bc        	c.j	0x19750 <__gdtoa+0x8f0>
   19d16: d6 85        	c.mv	a1, s5
   19d18: 81 46        	c.li	a3, 0x0
   19d1a: 29 46        	c.li	a2, 0xa
   19d1c: 22 85        	c.mv	a0, s0
   19d1e: ef 00 40 55  	jal	ra, 0x1a272 <__multadd>
   19d22: aa 8a        	c.mv	s5, a0
   19d24: 63 06 05 ec  	beq	a0, zero, 0x193f0 <__gdtoa+0x590>
   19d28: e6 77        	c.ldsp	a5, 0x78(sp)
   19d2a: 42 63        	c.ldsp	t1, 0x10(sp)
   19d2c: 62 68        	c.ldsp	a6, 0x18(sp)
   19d2e: 63 55 f0 00  	bge	zero, a5, 0x19d38 <__gdtoa+0xed8>
   19d32: 3e f4        	c.sdsp	a5, 0x28(sp)
   19d34: 6f f0 4f cb  	jal	zero, 0x191e8 <__gdtoa+0x388>
   19d38: 89 47        	c.li	a5, 0x2
   19d3a: 63 c6 27 0b  	blt	a5, s2, 0x19de6 <__gdtoa+0xf86>
   19d3e: e6 77        	c.ldsp	a5, 0x78(sp)
   19d40: 3e f4        	c.sdsp	a5, 0x28(sp)
   19d42: 6f f0 6f ca  	jal	zero, 0x191e8 <__gdtoa+0x388>
   19d46: 9b 85 13 00  	addiw	a1, t2, 0x1
   19d4a: 6f f0 df 83  	jal	zero, 0x19586 <__gdtoa+0x726>
   19d4e: 53 07 00 f2  	fmv.d.x	fa4, zero
   19d52: 13 89 13 00  	addi	s2, t2, 0x1
   19d56: d3 a9 e7 a2  	feq.d	s3, fa5, fa4
   19d5a: 93 b9 19 00  	sltiu	s3, s3, 0x1
   19d5e: 92 09        	c.slli	s3, 0x4
   19d60: 0d ba        	c.j	0x19692 <__gdtoa+0x832>
   19d62: 02 f0        	c.sdsp	zero, 0x20(sp)
   19d64: 6f f0 af b6  	jal	zero, 0x190ce <__gdtoa+0x26e>
   19d68: f6 86        	c.mv	a3, t4
   19d6a: e3 53 06 ee  	bge	a2, zero, 0x19c50 <__gdtoa+0xdf0>
   19d6e: 02 f0        	c.sdsp	zero, 0x20(sp)
   19d70: 6f f0 4f b6  	jal	zero, 0x190d4 <__gdtoa+0x274>
   19d74: 22 77        	c.ldsp	a4, 0x28(sp)
   19d76: 42 76        	c.ldsp	a2, 0x30(sp)
   19d78: 9b 06 f7 ff  	addiw	a3, a4, -0x1
   19d7c: 36 8d        	c.mv	s10, a3
   19d7e: e3 41 d6 be  	blt	a2, a3, 0x19960 <__gdtoa+0xb00>
   19d82: e2 66        	c.ldsp	a3, 0x18(sp)
   19d84: 3b 0e c7 01  	addw	t3, a4, t3
   19d88: 3a c7        	c.swsp	a4, 0x8c(sp)
   19d8a: 35 9f        	c.addw	a4, a3
   19d8c: b6 8c        	c.mv	s9, a3
   19d8e: 3b 0d a6 41  	subw	s10, a2, s10
   19d92: 3a ec        	c.sdsp	a4, 0x18(sp)
   19d94: 6f f0 ef b8  	jal	zero, 0x19122 <__gdtoa+0x2c2>
   19d98: 26 ec        	c.sdsp	s1, 0x18(sp)
   19d9a: 93 06 90 03  	addi	a3, zero, 0x39
   19d9e: 52 83        	c.mv	t1, s4
   19da0: 42 78        	c.ldsp	a6, 0x30(sp)
   19da2: 22 7a        	c.ldsp	s4, 0x28(sp)
   19da4: 86 64        	c.ldsp	s1, 0x40(sp)
   19da6: e3 84 d9 c8  	beq	s3, a3, 0x19a2e <__gdtoa+0xbce>
   19daa: 63 5f 60 09  	bge	zero, s6, 0x19e48 <__gdtoa+0xfe8>
   19dae: 1b 83 1c 03  	addiw	t1, s9, 0x31
   19db2: 93 09 00 02  	addi	s3, zero, 0x20
   19db6: 23 80 6b 00  	sb	t1, 0x0(s7)
   19dba: 56 8b        	c.mv	s6, s5
   19dbc: 93 8c 1b 00  	addi	s9, s7, 0x1
   19dc0: e2 6a        	c.ldsp	s5, 0x18(sp)
   19dc2: 79 b2        	c.j	0x19750 <__gdtoa+0x8f0>
   19dc4: d3 07 00 f2  	fmv.d.x	fa5, zero
   19dc8: e6 87        	c.mv	a5, s9
   19dca: 9b 85 13 00  	addiw	a1, t2, 0x1
   19dce: d3 a9 f5 a2  	feq.d	s3, fa1, fa5
   19dd2: 93 b9 19 00  	sltiu	s3, s3, 0x1
   19dd6: 92 09        	c.slli	s3, 0x4
   19dd8: f9 bb        	c.j	0x19bb6 <__gdtoa+0xd56>
   19dda: 83 26 8c 01  	lw	a3, 0x18(s8)
   19dde: e3 95 06 96  	bne	a3, zero, 0x19748 <__gdtoa+0x8e8>
   19de2: 82 79        	c.ldsp	s3, 0x20(sp)
   19de4: 95 b2        	c.j	0x19748 <__gdtoa+0x8e8>
   19de6: e6 77        	c.ldsp	a5, 0x78(sp)
   19de8: 3e f4        	c.sdsp	a5, 0x28(sp)
   19dea: 49 bc        	c.j	0x1987c <__gdtoa+0xa1c>
   19dec: 09 e5        	c.bnez	a0, 0x19df6 <__gdtoa+0xf96>
   19dee: 93 76 13 00  	andi	a3, t1, 0x1
   19df2: e3 98 06 d8  	bne	a3, zero, 0x19b82 <__gdtoa+0xd22>
   19df6: 93 07 00 02  	addi	a5, zero, 0x20
   19dfa: 3e f0        	c.sdsp	a5, 0x20(sp)
   19dfc: 35 ba        	c.j	0x19738 <__gdtoa+0x8d8>
   19dfe: 42 7d        	c.ldsp	s10, 0x30(sp)
   19e00: e2 6c        	c.ldsp	s9, 0x18(sp)
   19e02: 02 f0        	c.sdsp	zero, 0x20(sp)
   19e04: 81 4a        	c.li	s5, 0x0
   19e06: 6f f0 af b3  	jal	zero, 0x19140 <__gdtoa+0x2e0>
   19e0a: 5a ec        	c.sdsp	s6, 0x18(sp)
   19e0c: 93 06 90 03  	addi	a3, zero, 0x39
   19e10: 6e 88        	c.mv	a6, s11
   19e12: 63 8b d9 00  	beq	s3, a3, 0x19e28 <__gdtoa+0xfc8>
   19e16: 1b 83 19 00  	addiw	t1, s3, 0x1
   19e1a: 93 09 00 02  	addi	s3, zero, 0x20
   19e1e: 2d b2        	c.j	0x19748 <__gdtoa+0x8e8>
   19e20: c1 49        	c.li	s3, 0x10
   19e22: 93 8c 1b 00  	addi	s9, s7, 0x1
   19e26: 0d b2        	c.j	0x19748 <__gdtoa+0x8e8>
   19e28: 56 8b        	c.mv	s6, s5
   19e2a: de 86        	c.mv	a3, s7
   19e2c: e2 6a        	c.ldsp	s5, 0x18(sp)
   19e2e: 29 b1        	c.j	0x19a38 <__gdtoa+0xbd8>
   19e30: 03 26 4c 01  	lw	a2, 0x14(s8)
   19e34: 85 46        	c.li	a3, 0x1
   19e36: 63 ce c6 ca  	blt	a3, a2, 0x192f2 <__gdtoa+0x492>
   19e3a: 83 26 8c 01  	lw	a3, 0x18(s8)
   19e3e: 63 9a 06 ca  	bne	a3, zero, 0x192f2 <__gdtoa+0x492>
   19e42: 93 8c 1b 00  	addi	s9, s7, 0x1
   19e46: 09 b2        	c.j	0x19748 <__gdtoa+0x8e8>
   19e48: 03 26 4c 01  	lw	a2, 0x14(s8)
   19e4c: 85 46        	c.li	a3, 0x1
   19e4e: c1 49        	c.li	s3, 0x10
   19e50: e3 c3 c6 f6  	blt	a3, a2, 0x19db6 <__gdtoa+0xf56>
   19e54: 83 29 8c 01  	lw	s3, 0x18(s8)
   19e58: b3 39 30 01  	sltu	s3, zero, s3
   19e5c: 92 09        	c.slli	s3, 0x4
   19e5e: a1 bf        	c.j	0x19db6 <__gdtoa+0xf56>
   19e60: 63 4e 0b 00  	blt	s6, zero, 0x19e7c <__gdtoa+0x101c>
   19e64: b3 67 69 01  	or	a5, s2, s6
   19e68: 81 27        	c.addiw	a5, 0x0
   19e6a: 89 e7        	c.bnez	a5, 0x19e74 <__gdtoa+0x1014>
   19e6c: c2 67        	c.ldsp	a5, 0x10(sp)
   19e6e: 9c 43        	c.lw	a5, 0x0(a5)
   19e70: 85 8b        	c.andi	a5, 0x1
   19e72: 89 c7        	c.beqz	a5, 0x19e7c <__gdtoa+0x101c>
   19e74: 63 5d d0 ba  	bge	zero, a3, 0x1922e <__gdtoa+0x3ce>
   19e78: 6f f0 ef ba  	jal	zero, 0x19226 <__gdtoa+0x3c6>
   19e7c: 82 77        	c.ldsp	a5, 0x20(sp)
   19e7e: 26 ec        	c.sdsp	s1, 0x18(sp)
   19e80: 52 83        	c.mv	t1, s4
   19e82: 42 78        	c.ldsp	a6, 0x30(sp)
   19e84: 22 7a        	c.ldsp	s4, 0x28(sp)
   19e86: 86 64        	c.ldsp	s1, 0x40(sp)
   19e88: 85 c3        	c.beqz	a5, 0x19ea8 <__gdtoa+0x1048>
   19e8a: 83 25 4c 01  	lw	a1, 0x14(s8)
   19e8e: 05 46        	c.li	a2, 0x1
   19e90: 63 41 b6 c6  	blt	a2, a1, 0x192f2 <__gdtoa+0x492>
   19e94: 03 26 8c 01  	lw	a2, 0x18(s8)
   19e98: 63 1d 06 c4  	bne	a2, zero, 0x192f2 <__gdtoa+0x492>
   19e9c: e3 42 d0 cc  	blt	zero, a3, 0x19b60 <__gdtoa+0xd00>
   19ea0: 81 49        	c.li	s3, 0x0
   19ea2: 93 8c 1b 00  	addi	s9, s7, 0x1
   19ea6: 4d b0        	c.j	0x19748 <__gdtoa+0x8e8>
   19ea8: e3 58 d0 88  	bge	zero, a3, 0x19738 <__gdtoa+0x8d8>
   19eac: 55 b9        	c.j	0x19b60 <__gdtoa+0xd00>

0000000000019eae <__rv_alloc_D2A>:
   19eae: 41 11        	c.addi	sp, -0x10
   19eb0: 22 e0        	c.sdsp	s0, 0x0(sp)
   19eb2: 06 e4        	c.sdsp	ra, 0x8(sp)
   19eb4: ed 47        	c.li	a5, 0x1b
   19eb6: 01 44        	c.li	s0, 0x0
   19eb8: 63 fa b7 00  	bgeu	a5, a1, 0x19ecc <__rv_alloc_D2A+0x1e>
   19ebc: 91 47        	c.li	a5, 0x4
   19ebe: 9b 97 17 00  	slliw	a5, a5, 0x1
   19ec2: 13 87 87 01  	addi	a4, a5, 0x18
   19ec6: 05 24        	c.addiw	s0, 0x1
   19ec8: e3 fb e5 fe  	bgeu	a1, a4, 0x19ebe <__rv_alloc_D2A+0x10>
   19ecc: a2 85        	c.mv	a1, s0
   19ece: ef 00 e0 32  	jal	ra, 0x1a1fc <_Balloc>
   19ed2: 19 c1        	c.beqz	a0, 0x19ed8 <__rv_alloc_D2A+0x2a>
   19ed4: 00 c1        	c.sw	s0, 0x0(a0)
   19ed6: 11 05        	c.addi	a0, 0x4
   19ed8: a2 60        	c.ldsp	ra, 0x8(sp)
   19eda: 02 64        	c.ldsp	s0, 0x0(sp)
   19edc: 41 01        	c.addi	sp, 0x10
   19ede: 82 80        	c.jr	ra

0000000000019ee0 <__nrv_alloc_D2A>:
   19ee0: 01 11        	c.addi	sp, -0x20
   19ee2: 22 e8        	c.sdsp	s0, 0x10(sp)
   19ee4: 4a e0        	c.sdsp	s2, 0x0(sp)
   19ee6: 06 ec        	c.sdsp	ra, 0x18(sp)
   19ee8: 26 e4        	c.sdsp	s1, 0x8(sp)
   19eea: ed 47        	c.li	a5, 0x1b
   19eec: 2e 84        	c.mv	s0, a1
   19eee: 32 89        	c.mv	s2, a2
   19ef0: 63 fb d7 04  	bgeu	a5, a3, 0x19f46 <__nrv_alloc_D2A+0x66>
   19ef4: 91 47        	c.li	a5, 0x4
   19ef6: 81 44        	c.li	s1, 0x0
   19ef8: 9b 97 17 00  	slliw	a5, a5, 0x1
   19efc: 13 87 87 01  	addi	a4, a5, 0x18
   19f00: 85 24        	c.addiw	s1, 0x1
   19f02: e3 fb e6 fe  	bgeu	a3, a4, 0x19ef8 <__nrv_alloc_D2A+0x18>
   19f06: a6 85        	c.mv	a1, s1
   19f08: ef 00 40 2f  	jal	ra, 0x1a1fc <_Balloc>
   19f0c: aa 87        	c.mv	a5, a0
   19f0e: 15 cd        	c.beqz	a0, 0x19f4a <__nrv_alloc_D2A+0x6a>
   19f10: 04 c1        	c.sw	s1, 0x0(a0)
   19f12: 03 47 04 00  	lbu	a4, 0x0(s0)
   19f16: 11 05        	c.addi	a0, 0x4
   19f18: 93 05 14 00  	addi	a1, s0, 0x1
   19f1c: 23 82 e7 00  	sb	a4, 0x4(a5)
   19f20: aa 87        	c.mv	a5, a0
   19f22: 01 cb        	c.beqz	a4, 0x19f32 <__nrv_alloc_D2A+0x52>
   19f24: 03 c7 05 00  	lbu	a4, 0x0(a1)
   19f28: 85 07        	c.addi	a5, 0x1
   19f2a: 85 05        	c.addi	a1, 0x1
   19f2c: 23 80 e7 00  	sb	a4, 0x0(a5)
   19f30: 75 fb        	c.bnez	a4, 0x19f24 <__nrv_alloc_D2A+0x44>
   19f32: 63 04 09 00  	beq	s2, zero, 0x19f3a <__nrv_alloc_D2A+0x5a>
   19f36: 23 30 f9 00  	sd	a5, 0x0(s2)
   19f3a: e2 60        	c.ldsp	ra, 0x18(sp)
   19f3c: 42 64        	c.ldsp	s0, 0x10(sp)
   19f3e: a2 64        	c.ldsp	s1, 0x8(sp)
   19f40: 02 69        	c.ldsp	s2, 0x0(sp)
   19f42: 05 61        	c.addi16sp	sp, 0x20
   19f44: 82 80        	c.jr	ra
   19f46: 81 44        	c.li	s1, 0x0
   19f48: 7d bf        	c.j	0x19f06 <__nrv_alloc_D2A+0x26>
   19f4a: 01 45        	c.li	a0, 0x0
   19f4c: fd b7        	c.j	0x19f3a <__nrv_alloc_D2A+0x5a>

0000000000019f4e <__freedtoa>:
   19f4e: 83 a7 c5 ff  	lw	a5, -0x4(a1)
   19f52: 85 46        	c.li	a3, 0x1
   19f54: 2e 87        	c.mv	a4, a1
   19f56: bb 96 f6 00  	sllw	a3, a3, a5
   19f5a: 82 17        	c.slli	a5, 0x20
   19f5c: 82 16        	c.slli	a3, 0x20
   19f5e: 81 93        	c.srli	a5, 0x20
   19f60: d5 8f        	c.or	a5, a3
   19f62: f1 15        	c.addi	a1, -0x4
   19f64: 23 32 f7 00  	sd	a5, 0x4(a4)
   19f68: e5 ac        	c.j	0x1a260 <_Bfree>

0000000000019f6a <__quorem_D2A>:
   19f6a: 39 71        	c.addi16sp	sp, -0x40
   19f6c: 26 f4        	c.sdsp	s1, 0x28(sp)
   19f6e: 5c 49        	c.lw	a5, 0x14(a0)
   19f70: c4 49        	c.lw	s1, 0x14(a1)
   19f72: 06 fc        	c.sdsp	ra, 0x38(sp)
   19f74: 63 ce 97 14  	blt	a5, s1, 0x1a0d0 <__quorem_D2A+0x166>
   19f78: fd 34        	c.addiw	s1, -0x1
   19f7a: 13 93 24 00  	slli	t1, s1, 0x2
   19f7e: 22 f8        	c.sdsp	s0, 0x30(sp)
   19f80: 13 84 85 01  	addi	s0, a1, 0x18
   19f84: 4a f0        	c.sdsp	s2, 0x20(sp)
   19f86: 4e ec        	c.sdsp	s3, 0x18(sp)
   19f88: 33 09 64 00  	add	s2, s0, t1
   19f8c: 93 09 85 01  	addi	s3, a0, 0x18
   19f90: 56 e4        	c.sdsp	s5, 0x8(sp)
   19f92: 4e 93        	c.add	t1, s3
   19f94: 83 2a 09 00  	lw	s5, 0x0(s2)
   19f98: 83 27 03 00  	lw	a5, 0x0(t1)
   19f9c: 5a e0        	c.sdsp	s6, 0x0(sp)
   19f9e: 1b 87 1a 00  	addiw	a4, s5, 0x1
   19fa2: 3b db e7 02  	divuw	s6, a5, a4
   19fa6: 52 e8        	c.sdsp	s4, 0x10(sp)
   19fa8: 2a 8a        	c.mv	s4, a0
   19faa: da 8a        	c.mv	s5, s6
   19fac: 63 ea e7 08  	bltu	a5, a4, 0x1a040 <__quorem_D2A+0xd6>
   19fb0: 41 68        	c.lui	a6, 0x10
   19fb2: 22 85        	c.mv	a0, s0
   19fb4: ce 88        	c.mv	a7, s3
   19fb6: 01 4f        	c.li	t5, 0x0
   19fb8: 81 4e        	c.li	t4, 0x0
   19fba: 7d 18        	c.addi	a6, -0x1
   19fbc: 18 41        	c.lw	a4, 0x0(a0)
   19fbe: 03 a6 08 00  	lw	a2, 0x0(a7)
   19fc2: 91 08        	c.addi	a7, 0x4
   19fc4: b3 76 07 01  	and	a3, a4, a6
   19fc8: bb 86 66 03  	mulw	a3, a3, s6
   19fcc: 1b 57 07 01  	srliw	a4, a4, 0x10
   19fd0: b3 77 06 01  	and	a5, a2, a6
   19fd4: 1b 5e 06 01  	srliw	t3, a2, 0x10
   19fd8: 11 05        	c.addi	a0, 0x4
   19fda: 3b 07 67 03  	mulw	a4, a4, s6
   19fde: bb 86 e6 01  	addw	a3, a3, t5
   19fe2: 33 76 d8 00  	and	a2, a6, a3
   19fe6: 91 9f        	c.subw	a5, a2
   19fe8: bb 87 d7 41  	subw	a5, a5, t4
   19fec: 9b d6 06 01  	srliw	a3, a3, 0x10
   19ff0: 1b d6 07 01  	srliw	a2, a5, 0x10
   19ff4: 05 8a        	c.andi	a2, 0x1
   19ff6: b3 77 f8 00  	and	a5, a6, a5
   19ffa: 35 9f        	c.addw	a4, a3
   19ffc: b3 76 e8 00  	and	a3, a6, a4
   1a000: 35 9e        	c.addw	a2, a3
   1a002: bb 06 ce 40  	subw	a3, t3, a2
   1a006: 1b 96 06 01  	slliw	a2, a3, 0x10
   1a00a: d1 8f        	c.or	a5, a2
   1a00c: 9b d6 06 01  	srliw	a3, a3, 0x10
   1a010: 23 ae f8 fe  	sw	a5, -0x4(a7)
   1a014: 1b 5f 07 01  	srliw	t5, a4, 0x10
   1a018: 93 fe 16 00  	andi	t4, a3, 0x1
   1a01c: e3 70 a9 fa  	bgeu	s2, a0, 0x19fbc <__quorem_D2A+0x52>
   1a020: 83 27 03 00  	lw	a5, 0x0(t1)
   1a024: 91 ef        	c.bnez	a5, 0x1a040 <__quorem_D2A+0xd6>
   1a026: 71 13        	c.addi	t1, -0x4
   1a028: 63 e6 69 00  	bltu	s3, t1, 0x1a034 <__quorem_D2A+0xca>
   1a02c: 01 a8        	c.j	0x1a03c <__quorem_D2A+0xd2>
   1a02e: fd 34        	c.addiw	s1, -0x1
   1a030: 63 f6 69 00  	bgeu	s3, t1, 0x1a03c <__quorem_D2A+0xd2>
   1a034: 83 27 03 00  	lw	a5, 0x0(t1)
   1a038: 71 13        	c.addi	t1, -0x4
   1a03a: f5 db        	c.beqz	a5, 0x1a02e <__quorem_D2A+0xc4>
   1a03c: 23 2a 9a 00  	sw	s1, 0x14(s4)
   1a040: 52 85        	c.mv	a0, s4
   1a042: ef 00 50 11  	jal	ra, 0x1a956 <__mcmp>
   1a046: 63 49 05 06  	blt	a0, zero, 0x1a0b8 <__quorem_D2A+0x14e>
   1a04a: 41 65        	c.lui	a0, 0x10
   1a04c: 4e 86        	c.mv	a2, s3
   1a04e: 81 45        	c.li	a1, 0x0
   1a050: 7d 15        	c.addi	a0, -0x1
   1a052: 18 42        	c.lw	a4, 0x0(a2)
   1a054: 14 40        	c.lw	a3, 0x0(s0)
   1a056: 11 06        	c.addi	a2, 0x4
   1a058: b3 77 a7 00  	and	a5, a4, a0
   1a05c: 33 f8 a6 00  	and	a6, a3, a0
   1a060: bb 87 07 41  	subw	a5, a5, a6
   1a064: 8d 9f        	c.subw	a5, a1
   1a066: 9b d5 07 01  	srliw	a1, a5, 0x10
   1a06a: 85 89        	c.andi	a1, 0x1
   1a06c: 9b d6 06 01  	srliw	a3, a3, 0x10
   1a070: ad 9e        	c.addw	a3, a1
   1a072: 1b 57 07 01  	srliw	a4, a4, 0x10
   1a076: 15 9f        	c.subw	a4, a3
   1a078: 9b 16 07 01  	slliw	a3, a4, 0x10
   1a07c: e9 8f        	c.and	a5, a0
   1a07e: d5 8f        	c.or	a5, a3
   1a080: 1b 57 07 01  	srliw	a4, a4, 0x10
   1a084: 11 04        	c.addi	s0, 0x4
   1a086: 23 2e f6 fe  	sw	a5, -0x4(a2)
   1a08a: 93 75 17 00  	andi	a1, a4, 0x1
   1a08e: e3 72 89 fc  	bgeu	s2, s0, 0x1a052 <__quorem_D2A+0xe8>
   1a092: 93 97 24 00  	slli	a5, s1, 0x2
   1a096: ce 97        	c.add	a5, s3
   1a098: 98 43        	c.lw	a4, 0x0(a5)
   1a09a: 09 ef        	c.bnez	a4, 0x1a0b4 <__quorem_D2A+0x14a>
   1a09c: f1 17        	c.addi	a5, -0x4
   1a09e: 63 e6 f9 00  	bltu	s3, a5, 0x1a0aa <__quorem_D2A+0x140>
   1a0a2: 39 a0        	c.j	0x1a0b0 <__quorem_D2A+0x146>
   1a0a4: fd 34        	c.addiw	s1, -0x1
   1a0a6: 63 f5 f9 00  	bgeu	s3, a5, 0x1a0b0 <__quorem_D2A+0x146>
   1a0aa: 98 43        	c.lw	a4, 0x0(a5)
   1a0ac: f1 17        	c.addi	a5, -0x4
   1a0ae: 7d db        	c.beqz	a4, 0x1a0a4 <__quorem_D2A+0x13a>
   1a0b0: 23 2a 9a 00  	sw	s1, 0x14(s4)
   1a0b4: 1b 8b 1a 00  	addiw	s6, s5, 0x1
   1a0b8: 42 74        	c.ldsp	s0, 0x30(sp)
   1a0ba: e2 70        	c.ldsp	ra, 0x38(sp)
   1a0bc: 02 79        	c.ldsp	s2, 0x20(sp)
   1a0be: e2 69        	c.ldsp	s3, 0x18(sp)
   1a0c0: 42 6a        	c.ldsp	s4, 0x10(sp)
   1a0c2: a2 6a        	c.ldsp	s5, 0x8(sp)
   1a0c4: a2 74        	c.ldsp	s1, 0x28(sp)
   1a0c6: 1b 05 0b 00  	addiw	a0, s6, 0x0
   1a0ca: 02 6b        	c.ldsp	s6, 0x0(sp)
   1a0cc: 21 61        	c.addi16sp	sp, 0x40
   1a0ce: 82 80        	c.jr	ra
   1a0d0: e2 70        	c.ldsp	ra, 0x38(sp)
   1a0d2: a2 74        	c.ldsp	s1, 0x28(sp)
   1a0d4: 01 45        	c.li	a0, 0x0
   1a0d6: 21 61        	c.addi16sp	sp, 0x40
   1a0d8: 82 80        	c.jr	ra

000000000001a0da <__rshift_D2A>:
   1a0da: 58 49        	c.lw	a4, 0x14(a0)
   1a0dc: 13 de 55 40  	srai	t3, a1, 0x5
   1a0e0: 63 47 ee 00  	blt	t3, a4, 0x1a0ee <__rshift_D2A+0x14>
   1a0e4: 23 2a 05 00  	sw	zero, 0x14(a0)
   1a0e8: 23 2c 05 00  	sw	zero, 0x18(a0)
   1a0ec: 82 80        	c.jr	ra
   1a0ee: 13 03 85 01  	addi	t1, a0, 0x18
   1a0f2: 13 18 27 00  	slli	a6, a4, 0x2
   1a0f6: 93 17 2e 00  	slli	a5, t3, 0x2
   1a0fa: fd 89        	c.andi	a1, 0x1f
   1a0fc: 1a 98        	c.add	a6, t1
   1a0fe: 9a 97        	c.add	a5, t1
   1a100: b9 c1        	c.beqz	a1, 0x1a146 <__rshift_D2A+0x6c>
   1a102: 90 43        	c.lw	a2, 0x0(a5)
   1a104: 93 0e 00 02  	addi	t4, zero, 0x20
   1a108: 91 07        	c.addi	a5, 0x4
   1a10a: bb 56 b6 00  	srlw	a3, a2, a1
   1a10e: bb 8e be 40  	subw	t4, t4, a1
   1a112: 63 ff 07 05  	bgeu	a5, a6, 0x1a170 <__rshift_D2A+0x96>
   1a116: 9a 88        	c.mv	a7, t1
   1a118: 90 43        	c.lw	a2, 0x0(a5)
   1a11a: 91 08        	c.addi	a7, 0x4
   1a11c: 91 07        	c.addi	a5, 0x4
   1a11e: 3b 16 d6 01  	sllw	a2, a2, t4
   1a122: d1 8e        	c.or	a3, a2
   1a124: 23 ae d8 fe  	sw	a3, -0x4(a7)
   1a128: 03 a6 c7 ff  	lw	a2, -0x4(a5)
   1a12c: bb 56 b6 00  	srlw	a3, a2, a1
   1a130: e3 e4 07 ff  	bltu	a5, a6, 0x1a118 <__rshift_D2A+0x3e>
   1a134: 33 07 c7 41  	sub	a4, a4, t3
   1a138: 0a 07        	c.slli	a4, 0x2
   1a13a: 71 17        	c.addi	a4, -0x4
   1a13c: 1a 97        	c.add	a4, t1
   1a13e: 14 c3        	c.sw	a3, 0x0(a4)
   1a140: 8d c2        	c.beqz	a3, 0x1a162 <__rshift_D2A+0x88>
   1a142: 11 07        	c.addi	a4, 0x4
   1a144: 39 a8        	c.j	0x1a162 <__rshift_D2A+0x88>
   1a146: 9a 86        	c.mv	a3, t1
   1a148: e3 fe 07 f9  	bgeu	a5, a6, 0x1a0e4 <__rshift_D2A+0xa>
   1a14c: 90 43        	c.lw	a2, 0x0(a5)
   1a14e: 91 07        	c.addi	a5, 0x4
   1a150: 91 06        	c.addi	a3, 0x4
   1a152: 23 ae c6 fe  	sw	a2, -0x4(a3)
   1a156: e3 eb 07 ff  	bltu	a5, a6, 0x1a14c <__rshift_D2A+0x72>
   1a15a: 33 07 c7 41  	sub	a4, a4, t3
   1a15e: 0a 07        	c.slli	a4, 0x2
   1a160: 1a 97        	c.add	a4, t1
   1a162: 33 07 67 40  	sub	a4, a4, t1
   1a166: 09 87        	c.srai	a4, 0x2
   1a168: 01 27        	c.addiw	a4, 0x0
   1a16a: 58 c9        	c.sw	a4, 0x14(a0)
   1a16c: 35 df        	c.beqz	a4, 0x1a0e8 <__rshift_D2A+0xe>
   1a16e: 82 80        	c.jr	ra
   1a170: 14 cd        	c.sw	a3, 0x18(a0)
   1a172: ad da        	c.beqz	a3, 0x1a0e4 <__rshift_D2A+0xa>
   1a174: 1a 87        	c.mv	a4, t1
   1a176: 11 07        	c.addi	a4, 0x4
   1a178: ed b7        	c.j	0x1a162 <__rshift_D2A+0x88>

000000000001a17a <__trailz_D2A>:
   1a17a: 58 49        	c.lw	a4, 0x14(a0)
   1a17c: 01 11        	c.addi	sp, -0x20
   1a17e: 61 05        	c.addi	a0, 0x18
   1a180: 0a 07        	c.slli	a4, 0x2
   1a182: 22 e8        	c.sdsp	s0, 0x10(sp)
   1a184: 06 ec        	c.sdsp	ra, 0x18(sp)
   1a186: 2a 97        	c.add	a4, a0
   1a188: 01 44        	c.li	s0, 0x0
   1a18a: 63 68 e5 00  	bltu	a0, a4, 0x1a19a <__trailz_D2A+0x20>
   1a18e: 39 a8        	c.j	0x1a1ac <__trailz_D2A+0x32>
   1a190: 11 05        	c.addi	a0, 0x4
   1a192: 1b 04 04 02  	addiw	s0, s0, 0x20
   1a196: 63 7b e5 00  	bgeu	a0, a4, 0x1a1ac <__trailz_D2A+0x32>
   1a19a: 1c 41        	c.lw	a5, 0x0(a0)
   1a19c: f5 db        	c.beqz	a5, 0x1a190 <__trailz_D2A+0x16>
   1a19e: 63 77 e5 00  	bgeu	a0, a4, 0x1a1ac <__trailz_D2A+0x32>
   1a1a2: 68 00        	c.addi4spn	a0, sp, 0xc
   1a1a4: 3e c6        	c.swsp	a5, 0xc(sp)
   1a1a6: ef 00 e0 2f  	jal	ra, 0x1a4a4 <__lo0bits>
   1a1aa: 29 9c        	c.addw	s0, a0
   1a1ac: e2 60        	c.ldsp	ra, 0x18(sp)
   1a1ae: 22 85        	c.mv	a0, s0
   1a1b0: 42 64        	c.ldsp	s0, 0x10(sp)
   1a1b2: 05 61        	c.addi16sp	sp, 0x20
   1a1b4: 82 80        	c.jr	ra

000000000001a1b6 <_mbtowc_r>:
   1a1b6: 83 b7 01 0c  	ld	a5, 0xc0(gp)
   1a1ba: 82 87        	c.jr	a5

000000000001a1bc <__ascii_mbtowc>:
   1a1bc: 99 c9        	c.beqz	a1, 0x1a1d2 <__ascii_mbtowc+0x16>
   1a1be: 1d c6        	c.beqz	a2, 0x1a1ec <__ascii_mbtowc+0x30>
   1a1c0: 95 ca        	c.beqz	a3, 0x1a1f4 <__ascii_mbtowc+0x38>
   1a1c2: 83 47 06 00  	lbu	a5, 0x0(a2)
   1a1c6: 9c c1        	c.sw	a5, 0x0(a1)
   1a1c8: 03 45 06 00  	lbu	a0, 0x0(a2)
   1a1cc: 33 35 a0 00  	sltu	a0, zero, a0
   1a1d0: 82 80        	c.jr	ra
   1a1d2: 41 11        	c.addi	sp, -0x10
   1a1d4: 6c 00        	c.addi4spn	a1, sp, 0xc
   1a1d6: 09 ce        	c.beqz	a2, 0x1a1f0 <__ascii_mbtowc+0x34>
   1a1d8: 85 c2        	c.beqz	a3, 0x1a1f8 <__ascii_mbtowc+0x3c>
   1a1da: 83 47 06 00  	lbu	a5, 0x0(a2)
   1a1de: 9c c1        	c.sw	a5, 0x0(a1)
   1a1e0: 03 45 06 00  	lbu	a0, 0x0(a2)
   1a1e4: 33 35 a0 00  	sltu	a0, zero, a0
   1a1e8: 41 01        	c.addi	sp, 0x10
   1a1ea: 82 80        	c.jr	ra
   1a1ec: 01 45        	c.li	a0, 0x0
   1a1ee: 82 80        	c.jr	ra
   1a1f0: 01 45        	c.li	a0, 0x0
   1a1f2: dd bf        	c.j	0x1a1e8 <__ascii_mbtowc+0x2c>
   1a1f4: 79 55        	c.li	a0, -0x2
   1a1f6: 82 80        	c.jr	ra
   1a1f8: 79 55        	c.li	a0, -0x2
   1a1fa: fd b7        	c.j	0x1a1e8 <__ascii_mbtowc+0x2c>

000000000001a1fc <_Balloc>:
   1a1fc: 3c 75        	c.ld	a5, 0x68(a0)
   1a1fe: 01 11        	c.addi	sp, -0x20
   1a200: 22 e8        	c.sdsp	s0, 0x10(sp)
   1a202: 26 e4        	c.sdsp	s1, 0x8(sp)
   1a204: 06 ec        	c.sdsp	ra, 0x18(sp)
   1a206: aa 84        	c.mv	s1, a0
   1a208: 2e 84        	c.mv	s0, a1
   1a20a: 99 cf        	c.beqz	a5, 0x1a228 <_Balloc+0x2c>
   1a20c: 13 17 34 00  	slli	a4, s0, 0x3
   1a210: ba 97        	c.add	a5, a4
   1a212: 88 63        	c.ld	a0, 0x0(a5)
   1a214: 05 c5        	c.beqz	a0, 0x1a23c <_Balloc+0x40>
   1a216: 18 61        	c.ld	a4, 0x0(a0)
   1a218: 98 e3        	c.sd	a4, 0x0(a5)
   1a21a: 23 38 05 00  	sd	zero, 0x10(a0)
   1a21e: e2 60        	c.ldsp	ra, 0x18(sp)
   1a220: 42 64        	c.ldsp	s0, 0x10(sp)
   1a222: a2 64        	c.ldsp	s1, 0x8(sp)
   1a224: 05 61        	c.addi16sp	sp, 0x20
   1a226: 82 80        	c.jr	ra
   1a228: 13 06 10 04  	addi	a2, zero, 0x41
   1a22c: a1 45        	c.li	a1, 0x8
   1a22e: ef 10 20 2c  	jal	ra, 0x1b4f0 <_calloc_r>
   1a232: a8 f4        	c.sd	a0, 0x68(s1)
   1a234: aa 87        	c.mv	a5, a0
   1a236: 79 f9        	c.bnez	a0, 0x1a20c <_Balloc+0x10>
   1a238: 01 45        	c.li	a0, 0x0
   1a23a: d5 b7        	c.j	0x1a21e <_Balloc+0x22>
   1a23c: 85 47        	c.li	a5, 0x1
   1a23e: bb 97 87 00  	sllw	a5, a5, s0
   1a242: 1b 86 07 00  	addiw	a2, a5, 0x0
   1a246: 1d 06        	c.addi	a2, 0x7
   1a248: 02 14        	c.slli	s0, 0x20
   1a24a: 82 17        	c.slli	a5, 0x20
   1a24c: 01 90        	c.srli	s0, 0x20
   1a24e: 0a 06        	c.slli	a2, 0x2
   1a250: 85 45        	c.li	a1, 0x1
   1a252: 26 85        	c.mv	a0, s1
   1a254: 5d 8c        	c.or	s0, a5
   1a256: ef 10 a0 29  	jal	ra, 0x1b4f0 <_calloc_r>
   1a25a: 79 dd        	c.beqz	a0, 0x1a238 <_Balloc+0x3c>
   1a25c: 00 e5        	c.sd	s0, 0x8(a0)
   1a25e: 75 bf        	c.j	0x1a21a <_Balloc+0x1e>

000000000001a260 <_Bfree>:
   1a260: 81 c9        	c.beqz	a1, 0x1a270 <_Bfree+0x10>
   1a262: 98 45        	c.lw	a4, 0x8(a1)
   1a264: 3c 75        	c.ld	a5, 0x68(a0)
   1a266: 0e 07        	c.slli	a4, 0x3
   1a268: ba 97        	c.add	a5, a4
   1a26a: 98 63        	c.ld	a4, 0x0(a5)
   1a26c: 98 e1        	c.sd	a4, 0x0(a1)
   1a26e: 8c e3        	c.sd	a1, 0x0(a5)
   1a270: 82 80        	c.jr	ra

000000000001a272 <__multadd>:
   1a272: 79 71        	c.addi16sp	sp, -0x30
   1a274: 22 f0        	c.sdsp	s0, 0x20(sp)
   1a276: c0 49        	c.lw	s0, 0x14(a1)
   1a278: 41 63        	c.lui	t1, 0x10
   1a27a: 4a e8        	c.sdsp	s2, 0x10(sp)
   1a27c: 4e e4        	c.sdsp	s3, 0x8(sp)
   1a27e: 06 f4        	c.sdsp	ra, 0x28(sp)
   1a280: 26 ec        	c.sdsp	s1, 0x18(sp)
   1a282: 2e 89        	c.mv	s2, a1
   1a284: aa 89        	c.mv	s3, a0
   1a286: 13 88 85 01  	addi	a6, a1, 0x18
   1a28a: 81 48        	c.li	a7, 0x0
   1a28c: 7d 13        	c.addi	t1, -0x1
   1a28e: 83 27 08 00  	lw	a5, 0x0(a6)
   1a292: 11 08        	c.addi	a6, 0x4
   1a294: 85 28        	c.addiw	a7, 0x1
   1a296: 33 f7 67 00  	and	a4, a5, t1
   1a29a: 3b 07 c7 02  	mulw	a4, a4, a2
   1a29e: 9b d7 07 01  	srliw	a5, a5, 0x10
   1a2a2: bb 87 c7 02  	mulw	a5, a5, a2
   1a2a6: 35 9f        	c.addw	a4, a3
   1a2a8: 9b 56 07 01  	srliw	a3, a4, 0x10
   1a2ac: 33 77 e3 00  	and	a4, t1, a4
   1a2b0: b5 9f        	c.addw	a5, a3
   1a2b2: 9b 96 07 01  	slliw	a3, a5, 0x10
   1a2b6: 35 9f        	c.addw	a4, a3
   1a2b8: 23 2e e8 fe  	sw	a4, -0x4(a6)
   1a2bc: 9b d4 07 01  	srliw	s1, a5, 0x10
   1a2c0: 9b d6 07 01  	srliw	a3, a5, 0x10
   1a2c4: e3 c5 88 fc  	blt	a7, s0, 0x1a28e <__multadd+0x1c>
   1a2c8: 89 ce        	c.beqz	a3, 0x1a2e2 <__multadd+0x70>
   1a2ca: 83 27 c9 00  	lw	a5, 0xc(s2)
   1a2ce: 63 52 f4 02  	bge	s0, a5, 0x1a2f2 <__multadd+0x80>
   1a2d2: 93 07 44 00  	addi	a5, s0, 0x4
   1a2d6: 8a 07        	c.slli	a5, 0x2
   1a2d8: ca 97        	c.add	a5, s2
   1a2da: 84 c7        	c.sw	s1, 0x8(a5)
   1a2dc: 05 24        	c.addiw	s0, 0x1
   1a2de: 23 2a 89 00  	sw	s0, 0x14(s2)
   1a2e2: a2 70        	c.ldsp	ra, 0x28(sp)
   1a2e4: 02 74        	c.ldsp	s0, 0x20(sp)
   1a2e6: e2 64        	c.ldsp	s1, 0x18(sp)
   1a2e8: a2 69        	c.ldsp	s3, 0x8(sp)
   1a2ea: 4a 85        	c.mv	a0, s2
   1a2ec: 42 69        	c.ldsp	s2, 0x10(sp)
   1a2ee: 45 61        	c.addi16sp	sp, 0x30
   1a2f0: 82 80        	c.jr	ra
   1a2f2: 83 25 89 00  	lw	a1, 0x8(s2)
   1a2f6: 4e 85        	c.mv	a0, s3
   1a2f8: 52 e0        	c.sdsp	s4, 0x0(sp)
   1a2fa: 85 25        	c.addiw	a1, 0x1
   1a2fc: ef f0 1f f0  	jal	ra, 0x1a1fc <_Balloc>
   1a300: 2a 8a        	c.mv	s4, a0
   1a302: 21 c1        	c.beqz	a0, 0x1a342 <__multadd+0xd0>
   1a304: 03 26 49 01  	lw	a2, 0x14(s2)
   1a308: 93 05 09 01  	addi	a1, s2, 0x10
   1a30c: 41 05        	c.addi	a0, 0x10
   1a30e: 09 06        	c.addi	a2, 0x2
   1a310: 0a 06        	c.slli	a2, 0x2
   1a312: ef a0 2f e1  	jal	ra, 0x14924 <memcpy>
   1a316: 03 27 89 00  	lw	a4, 0x8(s2)
   1a31a: 83 b7 89 06  	ld	a5, 0x68(s3)
   1a31e: 0e 07        	c.slli	a4, 0x3
   1a320: ba 97        	c.add	a5, a4
   1a322: 98 63        	c.ld	a4, 0x0(a5)
   1a324: 23 30 e9 00  	sd	a4, 0x0(s2)
   1a328: 23 b0 27 01  	sd	s2, 0x0(a5)
   1a32c: 93 07 44 00  	addi	a5, s0, 0x4
   1a330: 52 89        	c.mv	s2, s4
   1a332: 8a 07        	c.slli	a5, 0x2
   1a334: ca 97        	c.add	a5, s2
   1a336: 02 6a        	c.ldsp	s4, 0x0(sp)
   1a338: 05 24        	c.addiw	s0, 0x1
   1a33a: 84 c7        	c.sw	s1, 0x8(a5)
   1a33c: 23 2a 89 00  	sw	s0, 0x14(s2)
   1a340: 4d b7        	c.j	0x1a2e2 <__multadd+0x70>
   1a342: b7 76 02 00  	lui	a3, 0x27
   1a346: 37 75 02 00  	lui	a0, 0x27
   1a34a: 93 86 86 41  	addi	a3, a3, 0x418
   1a34e: 01 46        	c.li	a2, 0x0
   1a350: 93 05 a0 0b  	addi	a1, zero, 0xba
   1a354: 13 05 05 43  	addi	a0, a0, 0x430
   1a358: ef 10 a0 14  	jal	ra, 0x1b4a2 <__assert_func>

000000000001a35c <__s2b>:
   1a35c: 39 71        	c.addi16sp	sp, -0x40
   1a35e: 22 f8        	c.sdsp	s0, 0x30(sp)
   1a360: 26 f4        	c.sdsp	s1, 0x28(sp)
   1a362: 4a f0        	c.sdsp	s2, 0x20(sp)
   1a364: 4e ec        	c.sdsp	s3, 0x18(sp)
   1a366: 52 e8        	c.sdsp	s4, 0x10(sp)
   1a368: b6 84        	c.mv	s1, a3
   1a36a: 2e 84        	c.mv	s0, a1
   1a36c: a1 26        	c.addiw	a3, 0x8
   1a36e: a5 45        	c.li	a1, 0x9
   1a370: 06 fc        	c.sdsp	ra, 0x38(sp)
   1a372: a5 47        	c.li	a5, 0x9
   1a374: bb c6 b6 02  	divw	a3, a3, a1
   1a378: 2a 89        	c.mv	s2, a0
   1a37a: 32 8a        	c.mv	s4, a2
   1a37c: ba 89        	c.mv	s3, a4
   1a37e: 63 d3 97 0a  	bge	a5, s1, 0x1a424 <__s2b+0xc8>
   1a382: 85 47        	c.li	a5, 0x1
   1a384: 81 45        	c.li	a1, 0x0
   1a386: 9b 97 17 00  	slliw	a5, a5, 0x1
   1a38a: 85 25        	c.addiw	a1, 0x1
   1a38c: e3 cd d7 fe  	blt	a5, a3, 0x1a386 <__s2b+0x2a>
   1a390: 4a 85        	c.mv	a0, s2
   1a392: ef f0 bf e6  	jal	ra, 0x1a1fc <_Balloc>
   1a396: aa 85        	c.mv	a1, a0
   1a398: 41 c9        	c.beqz	a0, 0x1a428 <__s2b+0xcc>
   1a39a: 85 47        	c.li	a5, 0x1
   1a39c: 5c c9        	c.sw	a5, 0x14(a0)
   1a39e: 23 2c 35 01  	sw	s3, 0x18(a0)
   1a3a2: a5 47        	c.li	a5, 0x9
   1a3a4: 63 dd 47 07  	bge	a5, s4, 0x1a41e <__s2b+0xc2>
   1a3a8: 93 17 0a 02  	slli	a5, s4, 0x20
   1a3ac: 5a e0        	c.sdsp	s6, 0x0(sp)
   1a3ae: 81 93        	c.srli	a5, 0x20
   1a3b0: 13 0b 94 00  	addi	s6, s0, 0x9
   1a3b4: 56 e4        	c.sdsp	s5, 0x8(sp)
   1a3b6: 3e 94        	c.add	s0, a5
   1a3b8: 9b 0a 0a 00  	addiw	s5, s4, 0x0
   1a3bc: da 89        	c.mv	s3, s6
   1a3be: 83 c6 09 00  	lbu	a3, 0x0(s3)
   1a3c2: 29 46        	c.li	a2, 0xa
   1a3c4: 4a 85        	c.mv	a0, s2
   1a3c6: 9b 86 06 fd  	addiw	a3, a3, -0x30
   1a3ca: ef f0 9f ea  	jal	ra, 0x1a272 <__multadd>
   1a3ce: 85 09        	c.addi	s3, 0x1
   1a3d0: aa 85        	c.mv	a1, a0
   1a3d2: e3 96 89 fe  	bne	s3, s0, 0x1a3be <__s2b+0x62>
   1a3d6: e1 3a        	c.addiw	s5, -0x8
   1a3d8: 82 1a        	c.slli	s5, 0x20
   1a3da: 93 da 0a 02  	srli	s5, s5, 0x20
   1a3de: 33 04 5b 01  	add	s0, s6, s5
   1a3e2: a2 6a        	c.ldsp	s5, 0x8(sp)
   1a3e4: 02 6b        	c.ldsp	s6, 0x0(sp)
   1a3e6: 63 53 9a 02  	bge	s4, s1, 0x1a40c <__s2b+0xb0>
   1a3ea: bb 84 44 41  	subw	s1, s1, s4
   1a3ee: 82 14        	c.slli	s1, 0x20
   1a3f0: 81 90        	c.srli	s1, 0x20
   1a3f2: a2 94        	c.add	s1, s0
   1a3f4: 83 46 04 00  	lbu	a3, 0x0(s0)
   1a3f8: 29 46        	c.li	a2, 0xa
   1a3fa: 4a 85        	c.mv	a0, s2
   1a3fc: 9b 86 06 fd  	addiw	a3, a3, -0x30
   1a400: ef f0 3f e7  	jal	ra, 0x1a272 <__multadd>
   1a404: 05 04        	c.addi	s0, 0x1
   1a406: aa 85        	c.mv	a1, a0
   1a408: e3 16 94 fe  	bne	s0, s1, 0x1a3f4 <__s2b+0x98>
   1a40c: e2 70        	c.ldsp	ra, 0x38(sp)
   1a40e: 42 74        	c.ldsp	s0, 0x30(sp)
   1a410: a2 74        	c.ldsp	s1, 0x28(sp)
   1a412: 02 79        	c.ldsp	s2, 0x20(sp)
   1a414: e2 69        	c.ldsp	s3, 0x18(sp)
   1a416: 42 6a        	c.ldsp	s4, 0x10(sp)
   1a418: 2e 85        	c.mv	a0, a1
   1a41a: 21 61        	c.addi16sp	sp, 0x40
   1a41c: 82 80        	c.jr	ra
   1a41e: 29 04        	c.addi	s0, 0xa
   1a420: 25 4a        	c.li	s4, 0x9
   1a422: d1 b7        	c.j	0x1a3e6 <__s2b+0x8a>
   1a424: 81 45        	c.li	a1, 0x0
   1a426: ad b7        	c.j	0x1a390 <__s2b+0x34>
   1a428: b7 76 02 00  	lui	a3, 0x27
   1a42c: 37 75 02 00  	lui	a0, 0x27
   1a430: 93 86 86 41  	addi	a3, a3, 0x418
   1a434: 01 46        	c.li	a2, 0x0
   1a436: 93 05 30 0d  	addi	a1, zero, 0xd3
   1a43a: 13 05 05 43  	addi	a0, a0, 0x430
   1a43e: 56 e4        	c.sdsp	s5, 0x8(sp)
   1a440: 5a e0        	c.sdsp	s6, 0x0(sp)
   1a442: ef 10 00 06  	jal	ra, 0x1b4a2 <__assert_func>

000000000001a446 <__hi0bits>:
   1a446: aa 87        	c.mv	a5, a0
   1a448: 41 67        	c.lui	a4, 0x10
   1a44a: 01 45        	c.li	a0, 0x0
   1a44c: 63 f5 e7 00  	bgeu	a5, a4, 0x1a456 <__hi0bits+0x10>
   1a450: 9b 97 07 01  	slliw	a5, a5, 0x10
   1a454: 41 45        	c.li	a0, 0x10
   1a456: 37 07 00 01  	lui	a4, 0x1000
   1a45a: 63 f5 e7 00  	bgeu	a5, a4, 0x1a464 <__hi0bits+0x1e>
   1a45e: 9b 97 87 00  	slliw	a5, a5, 0x8
   1a462: 21 25        	c.addiw	a0, 0x8
   1a464: 37 07 00 10  	lui	a4, 0x10000
   1a468: 63 f5 e7 00  	bgeu	a5, a4, 0x1a472 <__hi0bits+0x2c>
   1a46c: 9b 97 47 00  	slliw	a5, a5, 0x4
   1a470: 11 25        	c.addiw	a0, 0x4
   1a472: 37 07 00 40  	lui	a4, 0x40000
   1a476: 63 e6 e7 00  	bltu	a5, a4, 0x1a482 <__hi0bits+0x3c>
   1a47a: 63 c0 07 02  	blt	a5, zero, 0x1a49a <__hi0bits+0x54>
   1a47e: 05 25        	c.addiw	a0, 0x1
   1a480: 82 80        	c.jr	ra
   1a482: 93 96 27 02  	slli	a3, a5, 0x22
   1a486: 1b 97 27 00  	slliw	a4, a5, 0x2
   1a48a: 63 c9 06 00  	blt	a3, zero, 0x1a49c <__hi0bits+0x56>
   1a48e: 93 17 17 02  	slli	a5, a4, 0x21
   1a492: 63 c7 07 00  	blt	a5, zero, 0x1a4a0 <__hi0bits+0x5a>
   1a496: 13 05 00 02  	addi	a0, zero, 0x20
   1a49a: 82 80        	c.jr	ra
   1a49c: 09 25        	c.addiw	a0, 0x2
   1a49e: 82 80        	c.jr	ra
   1a4a0: 0d 25        	c.addiw	a0, 0x3
   1a4a2: 82 80        	c.jr	ra

000000000001a4a4 <__lo0bits>:
   1a4a4: 1c 41        	c.lw	a5, 0x0(a0)
   1a4a6: 2a 87        	c.mv	a4, a0
   1a4a8: 93 f6 77 00  	andi	a3, a5, 0x7
   1a4ac: 3e 86        	c.mv	a2, a5
   1a4ae: 81 ce        	c.beqz	a3, 0x1a4c6 <__lo0bits+0x22>
   1a4b0: 93 f6 17 00  	andi	a3, a5, 0x1
   1a4b4: 01 45        	c.li	a0, 0x0
   1a4b6: 9d ee        	c.bnez	a3, 0x1a4f4 <__lo0bits+0x50>
   1a4b8: 09 8a        	c.andi	a2, 0x2
   1a4ba: 25 ce        	c.beqz	a2, 0x1a532 <__lo0bits+0x8e>
   1a4bc: 9b d7 17 00  	srliw	a5, a5, 0x1
   1a4c0: 1c c3        	c.sw	a5, 0x0(a4)
   1a4c2: 05 45        	c.li	a0, 0x1
   1a4c4: 82 80        	c.jr	ra
   1a4c6: 93 96 07 03  	slli	a3, a5, 0x30
   1a4ca: c1 92        	c.srli	a3, 0x30
   1a4cc: 01 45        	c.li	a0, 0x0
   1a4ce: b9 ca        	c.beqz	a3, 0x1a524 <__lo0bits+0x80>
   1a4d0: 93 f6 f7 0f  	andi	a3, a5, 0xff
   1a4d4: a9 c2        	c.beqz	a3, 0x1a516 <__lo0bits+0x72>
   1a4d6: 93 f6 f7 00  	andi	a3, a5, 0xf
   1a4da: 9d c6        	c.beqz	a3, 0x1a508 <__lo0bits+0x64>
   1a4dc: 93 f6 37 00  	andi	a3, a5, 0x3
   1a4e0: 89 ce        	c.beqz	a3, 0x1a4fa <__lo0bits+0x56>
   1a4e2: 93 f6 17 00  	andi	a3, a5, 0x1
   1a4e6: 81 ea        	c.bnez	a3, 0x1a4f6 <__lo0bits+0x52>
   1a4e8: 9b d7 17 00  	srliw	a5, a5, 0x1
   1a4ec: 05 25        	c.addiw	a0, 0x1
   1a4ee: 81 e7        	c.bnez	a5, 0x1a4f6 <__lo0bits+0x52>
   1a4f0: 13 05 00 02  	addi	a0, zero, 0x20
   1a4f4: 82 80        	c.jr	ra
   1a4f6: 1c c3        	c.sw	a5, 0x0(a4)
   1a4f8: 82 80        	c.jr	ra
   1a4fa: 9b d7 27 00  	srliw	a5, a5, 0x2
   1a4fe: 93 f6 17 00  	andi	a3, a5, 0x1
   1a502: 09 25        	c.addiw	a0, 0x2
   1a504: ed fa        	c.bnez	a3, 0x1a4f6 <__lo0bits+0x52>
   1a506: cd b7        	c.j	0x1a4e8 <__lo0bits+0x44>
   1a508: 9b d7 47 00  	srliw	a5, a5, 0x4
   1a50c: 93 f6 37 00  	andi	a3, a5, 0x3
   1a510: 11 25        	c.addiw	a0, 0x4
   1a512: e1 fa        	c.bnez	a3, 0x1a4e2 <__lo0bits+0x3e>
   1a514: dd b7        	c.j	0x1a4fa <__lo0bits+0x56>
   1a516: 9b d7 87 00  	srliw	a5, a5, 0x8
   1a51a: 93 f6 f7 00  	andi	a3, a5, 0xf
   1a51e: 21 25        	c.addiw	a0, 0x8
   1a520: d5 fe        	c.bnez	a3, 0x1a4dc <__lo0bits+0x38>
   1a522: dd b7        	c.j	0x1a508 <__lo0bits+0x64>
   1a524: 9b d7 07 01  	srliw	a5, a5, 0x10
   1a528: 93 f6 f7 0f  	andi	a3, a5, 0xff
   1a52c: 41 45        	c.li	a0, 0x10
   1a52e: c5 f6        	c.bnez	a3, 0x1a4d6 <__lo0bits+0x32>
   1a530: dd b7        	c.j	0x1a516 <__lo0bits+0x72>
   1a532: 9b d7 27 00  	srliw	a5, a5, 0x2
   1a536: 1c c3        	c.sw	a5, 0x0(a4)
   1a538: 09 45        	c.li	a0, 0x2
   1a53a: 82 80        	c.jr	ra

000000000001a53c <__i2b>:
   1a53c: 3c 75        	c.ld	a5, 0x68(a0)
   1a53e: 01 11        	c.addi	sp, -0x20
   1a540: 22 e8        	c.sdsp	s0, 0x10(sp)
   1a542: 26 e4        	c.sdsp	s1, 0x8(sp)
   1a544: 06 ec        	c.sdsp	ra, 0x18(sp)
   1a546: 2a 84        	c.mv	s0, a0
   1a548: ae 84        	c.mv	s1, a1
   1a54a: 91 cf        	c.beqz	a5, 0x1a566 <__i2b+0x2a>
   1a54c: 88 67        	c.ld	a0, 0x8(a5)
   1a54e: 29 c1        	c.beqz	a0, 0x1a590 <__i2b+0x54>
   1a550: 18 61        	c.ld	a4, 0x0(a0)
   1a552: 98 e7        	c.sd	a4, 0x8(a5)
   1a554: e2 60        	c.ldsp	ra, 0x18(sp)
   1a556: 42 64        	c.ldsp	s0, 0x10(sp)
   1a558: 85 47        	c.li	a5, 0x1
   1a55a: 82 17        	c.slli	a5, 0x20
   1a55c: 04 cd        	c.sw	s1, 0x18(a0)
   1a55e: 1c e9        	c.sd	a5, 0x10(a0)
   1a560: a2 64        	c.ldsp	s1, 0x8(sp)
   1a562: 05 61        	c.addi16sp	sp, 0x20
   1a564: 82 80        	c.jr	ra
   1a566: 13 06 10 04  	addi	a2, zero, 0x41
   1a56a: a1 45        	c.li	a1, 0x8
   1a56c: ef 00 50 78  	jal	ra, 0x1b4f0 <_calloc_r>
   1a570: 28 f4        	c.sd	a0, 0x68(s0)
   1a572: aa 87        	c.mv	a5, a0
   1a574: 61 fd        	c.bnez	a0, 0x1a54c <__i2b+0x10>
   1a576: b7 76 02 00  	lui	a3, 0x27
   1a57a: 37 75 02 00  	lui	a0, 0x27
   1a57e: 93 86 86 41  	addi	a3, a3, 0x418
   1a582: 01 46        	c.li	a2, 0x0
   1a584: 93 05 50 14  	addi	a1, zero, 0x145
   1a588: 13 05 05 43  	addi	a0, a0, 0x430
   1a58c: ef 00 70 71  	jal	ra, 0x1b4a2 <__assert_func>
   1a590: 13 06 40 02  	addi	a2, zero, 0x24
   1a594: 85 45        	c.li	a1, 0x1
   1a596: 22 85        	c.mv	a0, s0
   1a598: ef 00 90 75  	jal	ra, 0x1b4f0 <_calloc_r>
   1a59c: 69 dd        	c.beqz	a0, 0x1a576 <__i2b+0x3a>
   1a59e: 85 47        	c.li	a5, 0x1
   1a5a0: 86 17        	c.slli	a5, 0x21
   1a5a2: 85 07        	c.addi	a5, 0x1
   1a5a4: 1c e5        	c.sd	a5, 0x8(a0)
   1a5a6: 7d b7        	c.j	0x1a554 <__i2b+0x18>

000000000001a5a8 <__multiply>:
   1a5a8: 79 71        	c.addi16sp	sp, -0x30
   1a5aa: 4a e8        	c.sdsp	s2, 0x10(sp)
   1a5ac: 4e e4        	c.sdsp	s3, 0x8(sp)
   1a5ae: 03 29 46 01  	lw	s2, 0x14(a2)
   1a5b2: 83 a9 45 01  	lw	s3, 0x14(a1)
   1a5b6: 26 ec        	c.sdsp	s1, 0x18(sp)
   1a5b8: 52 e0        	c.sdsp	s4, 0x0(sp)
   1a5ba: 06 f4        	c.sdsp	ra, 0x28(sp)
   1a5bc: 22 f0        	c.sdsp	s0, 0x20(sp)
   1a5be: 2e 8a        	c.mv	s4, a1
   1a5c0: b2 84        	c.mv	s1, a2
   1a5c2: 63 c7 29 01  	blt	s3, s2, 0x1a5d0 <__multiply+0x28>
   1a5c6: ca 87        	c.mv	a5, s2
   1a5c8: ae 84        	c.mv	s1, a1
   1a5ca: 4e 89        	c.mv	s2, s3
   1a5cc: 32 8a        	c.mv	s4, a2
   1a5ce: be 89        	c.mv	s3, a5
   1a5d0: dc 44        	c.lw	a5, 0xc(s1)
   1a5d2: 3b 04 39 01  	addw	s0, s2, s3
   1a5d6: 8c 44        	c.lw	a1, 0x8(s1)
   1a5d8: 63 d3 87 00  	bge	a5, s0, 0x1a5de <__multiply+0x36>
   1a5dc: 85 25        	c.addiw	a1, 0x1
   1a5de: ef f0 ff c1  	jal	ra, 0x1a1fc <_Balloc>
   1a5e2: 63 0c 05 14  	beq	a0, zero, 0x1a73a <__multiply+0x192>
   1a5e6: 13 03 85 01  	addi	t1, a0, 0x18
   1a5ea: 93 18 24 00  	slli	a7, s0, 0x2
   1a5ee: 9a 98        	c.add	a7, t1
   1a5f0: 9a 87        	c.mv	a5, t1
   1a5f2: 63 77 13 01  	bgeu	t1, a7, 0x1a600 <__multiply+0x58>
   1a5f6: 23 a0 07 00  	sw	zero, 0x0(a5)
   1a5fa: 91 07        	c.addi	a5, 0x4
   1a5fc: e3 ed 17 ff  	bltu	a5, a7, 0x1a5f6 <__multiply+0x4e>
   1a600: 13 08 8a 01  	addi	a6, s4, 0x18
   1a604: 13 9e 29 00  	slli	t3, s3, 0x2
   1a608: 93 8e 84 01  	addi	t4, s1, 0x18
   1a60c: 93 15 29 00  	slli	a1, s2, 0x2
   1a610: 42 9e        	c.add	t3, a6
   1a612: f6 95        	c.add	a1, t4
   1a614: 63 7a c8 0f  	bgeu	a6, t3, 0x1a708 <__multiply+0x160>
   1a618: 93 87 94 01  	addi	a5, s1, 0x19
   1a61c: 11 4f        	c.li	t5, 0x4
   1a61e: 63 f7 f5 10  	bgeu	a1, a5, 0x1a72c <__multiply+0x184>
   1a622: c1 66        	c.lui	a3, 0x10
   1a624: fd 16        	c.addi	a3, -0x1
   1a626: 09 a8        	c.j	0x1a638 <__multiply+0x90>
   1a628: 9b df 0f 01  	srliw	t6, t6, 0x10
   1a62c: 63 9d 0f 06  	bne	t6, zero, 0x1a6a6 <__multiply+0xfe>
   1a630: 11 08        	c.addi	a6, 0x4
   1a632: 11 03        	c.addi	t1, 0x4
   1a634: 63 7a c8 0d  	bgeu	a6, t3, 0x1a708 <__multiply+0x160>
   1a638: 83 2f 08 00  	lw	t6, 0x0(a6)
   1a63c: b3 f3 df 00  	and	t2, t6, a3
   1a640: e3 84 03 fe  	beq	t2, zero, 0x1a628 <__multiply+0x80>
   1a644: 9a 82        	c.mv	t0, t1
   1a646: f6 8f        	c.mv	t6, t4
   1a648: 81 44        	c.li	s1, 0x0
   1a64a: 83 a7 0f 00  	lw	a5, 0x0(t6)
   1a64e: 03 a6 02 00  	lw	a2, 0x0(t0)
   1a652: 91 02        	c.addi	t0, 0x4
   1a654: 33 f7 d7 00  	and	a4, a5, a3
   1a658: 3b 07 77 02  	mulw	a4, a4, t2
   1a65c: 9b d7 07 01  	srliw	a5, a5, 0x10
   1a660: 33 79 d6 00  	and	s2, a2, a3
   1a664: 1b 56 06 01  	srliw	a2, a2, 0x10
   1a668: 91 0f        	c.addi	t6, 0x4
   1a66a: bb 87 77 02  	mulw	a5, a5, t2
   1a66e: 3b 07 27 01  	addw	a4, a4, s2
   1a672: 25 9f        	c.addw	a4, s1
   1a674: 9b 54 07 01  	srliw	s1, a4, 0x10
   1a678: 75 8f        	c.and	a4, a3
   1a67a: b1 9f        	c.addw	a5, a2
   1a67c: a5 9f        	c.addw	a5, s1
   1a67e: 1b 96 07 01  	slliw	a2, a5, 0x10
   1a682: 51 8f        	c.or	a4, a2
   1a684: 23 ae e2 fe  	sw	a4, -0x4(t0)
   1a688: 9b d4 07 01  	srliw	s1, a5, 0x10
   1a68c: 1b d7 07 01  	srliw	a4, a5, 0x10
   1a690: e3 ed bf fa  	bltu	t6, a1, 0x1a64a <__multiply+0xa2>
   1a694: b3 07 e3 01  	add	a5, t1, t5
   1a698: 98 c3        	c.sw	a4, 0x0(a5)
   1a69a: 83 2f 08 00  	lw	t6, 0x0(a6)
   1a69e: 9b df 0f 01  	srliw	t6, t6, 0x10
   1a6a2: e3 87 0f f8  	beq	t6, zero, 0x1a630 <__multiply+0x88>
   1a6a6: 03 27 03 00  	lw	a4, 0x0(t1)
   1a6aa: 9a 82        	c.mv	t0, t1
   1a6ac: 76 86        	c.mv	a2, t4
   1a6ae: ba 83        	c.mv	t2, a4
   1a6b0: 81 44        	c.li	s1, 0x0
   1a6b2: 1c 42        	c.lw	a5, 0x0(a2)
   1a6b4: 9b d9 03 01  	srliw	s3, t2, 0x10
   1a6b8: 75 8f        	c.and	a4, a3
   1a6ba: f5 8f        	c.and	a5, a3
   1a6bc: bb 87 f7 03  	mulw	a5, a5, t6
   1a6c0: 83 a3 42 00  	lw	t2, 0x4(t0)
   1a6c4: 91 02        	c.addi	t0, 0x4
   1a6c6: 11 06        	c.addi	a2, 0x4
   1a6c8: 33 f9 d3 00  	and	s2, t2, a3
   1a6cc: a5 9f        	c.addw	a5, s1
   1a6ce: bb 87 37 01  	addw	a5, a5, s3
   1a6d2: 9b 94 07 01  	slliw	s1, a5, 0x10
   1a6d6: 45 8f        	c.or	a4, s1
   1a6d8: 23 ae e2 fe  	sw	a4, -0x4(t0)
   1a6dc: 03 57 e6 ff  	lhu	a4, -0x2(a2)
   1a6e0: 9b d7 07 01  	srliw	a5, a5, 0x10
   1a6e4: 3b 07 f7 03  	mulw	a4, a4, t6
   1a6e8: 3b 07 27 01  	addw	a4, a4, s2
   1a6ec: b9 9f        	c.addw	a5, a4
   1a6ee: 1b 87 07 00  	addiw	a4, a5, 0x0
   1a6f2: 9b d4 07 01  	srliw	s1, a5, 0x10
   1a6f6: e3 6e b6 fa  	bltu	a2, a1, 0x1a6b2 <__multiply+0x10a>
   1a6fa: 33 07 e3 01  	add	a4, t1, t5
   1a6fe: 1c c3        	c.sw	a5, 0x0(a4)
   1a700: 11 08        	c.addi	a6, 0x4
   1a702: 11 03        	c.addi	t1, 0x4
   1a704: e3 6a c8 f3  	bltu	a6, t3, 0x1a638 <__multiply+0x90>
   1a708: 63 45 80 00  	blt	zero, s0, 0x1a712 <__multiply+0x16a>
   1a70c: 39 a0        	c.j	0x1a71a <__multiply+0x172>
   1a70e: 7d 34        	c.addiw	s0, -0x1
   1a710: 09 c4        	c.beqz	s0, 0x1a71a <__multiply+0x172>
   1a712: 83 a7 c8 ff  	lw	a5, -0x4(a7)
   1a716: f1 18        	c.addi	a7, -0x4
   1a718: fd db        	c.beqz	a5, 0x1a70e <__multiply+0x166>
   1a71a: a2 70        	c.ldsp	ra, 0x28(sp)
   1a71c: 40 c9        	c.sw	s0, 0x14(a0)
   1a71e: 02 74        	c.ldsp	s0, 0x20(sp)
   1a720: e2 64        	c.ldsp	s1, 0x18(sp)
   1a722: 42 69        	c.ldsp	s2, 0x10(sp)
   1a724: a2 69        	c.ldsp	s3, 0x8(sp)
   1a726: 02 6a        	c.ldsp	s4, 0x0(sp)
   1a728: 45 61        	c.addi16sp	sp, 0x30
   1a72a: 82 80        	c.jr	ra
   1a72c: b3 87 95 40  	sub	a5, a1, s1
   1a730: 9d 17        	c.addi	a5, -0x19
   1a732: f1 9b        	c.andi	a5, -0x4
   1a734: 13 8f 47 00  	addi	t5, a5, 0x4
   1a738: ed b5        	c.j	0x1a622 <__multiply+0x7a>
   1a73a: b7 76 02 00  	lui	a3, 0x27
   1a73e: 37 75 02 00  	lui	a0, 0x27
   1a742: 93 86 86 41  	addi	a3, a3, 0x418
   1a746: 01 46        	c.li	a2, 0x0
   1a748: 93 05 20 16  	addi	a1, zero, 0x162
   1a74c: 13 05 05 43  	addi	a0, a0, 0x430
   1a750: ef 00 30 55  	jal	ra, 0x1b4a2 <__assert_func>

000000000001a754 <__pow5mult>:
   1a754: 79 71        	c.addi16sp	sp, -0x30
   1a756: 22 f0        	c.sdsp	s0, 0x20(sp)
   1a758: 4a e8        	c.sdsp	s2, 0x10(sp)
   1a75a: 4e e4        	c.sdsp	s3, 0x8(sp)
   1a75c: 06 f4        	c.sdsp	ra, 0x28(sp)
   1a75e: 93 77 36 00  	andi	a5, a2, 0x3
   1a762: 32 84        	c.mv	s0, a2
   1a764: aa 89        	c.mv	s3, a0
   1a766: 2e 89        	c.mv	s2, a1
   1a768: ad eb        	c.bnez	a5, 0x1a7da <__pow5mult+0x86>
   1a76a: 09 84        	c.srai	s0, 0x2
   1a76c: 31 c4        	c.beqz	s0, 0x1a7b8 <__pow5mult+0x64>
   1a76e: 26 ec        	c.sdsp	s1, 0x18(sp)
   1a770: 83 b4 09 06  	ld	s1, 0x60(s3)
   1a774: c1 c0        	c.beqz	s1, 0x1a7f4 <__pow5mult+0xa0>
   1a776: 93 77 14 00  	andi	a5, s0, 0x1
   1a77a: 89 eb        	c.bnez	a5, 0x1a78c <__pow5mult+0x38>
   1a77c: 05 84        	c.srai	s0, 0x1
   1a77e: 05 cc        	c.beqz	s0, 0x1a7b6 <__pow5mult+0x62>
   1a780: 88 60        	c.ld	a0, 0x0(s1)
   1a782: 31 c1        	c.beqz	a0, 0x1a7c6 <__pow5mult+0x72>
   1a784: aa 84        	c.mv	s1, a0
   1a786: 93 77 14 00  	andi	a5, s0, 0x1
   1a78a: ed db        	c.beqz	a5, 0x1a77c <__pow5mult+0x28>
   1a78c: 26 86        	c.mv	a2, s1
   1a78e: ca 85        	c.mv	a1, s2
   1a790: 4e 85        	c.mv	a0, s3
   1a792: ef f0 7f e1  	jal	ra, 0x1a5a8 <__multiply>
   1a796: 63 0d 09 00  	beq	s2, zero, 0x1a7b0 <__pow5mult+0x5c>
   1a79a: 03 27 89 00  	lw	a4, 0x8(s2)
   1a79e: 83 b7 89 06  	ld	a5, 0x68(s3)
   1a7a2: 0e 07        	c.slli	a4, 0x3
   1a7a4: ba 97        	c.add	a5, a4
   1a7a6: 98 63        	c.ld	a4, 0x0(a5)
   1a7a8: 23 30 e9 00  	sd	a4, 0x0(s2)
   1a7ac: 23 b0 27 01  	sd	s2, 0x0(a5)
   1a7b0: 05 84        	c.srai	s0, 0x1
   1a7b2: 2a 89        	c.mv	s2, a0
   1a7b4: 71 f4        	c.bnez	s0, 0x1a780 <__pow5mult+0x2c>
   1a7b6: e2 64        	c.ldsp	s1, 0x18(sp)
   1a7b8: a2 70        	c.ldsp	ra, 0x28(sp)
   1a7ba: 02 74        	c.ldsp	s0, 0x20(sp)
   1a7bc: a2 69        	c.ldsp	s3, 0x8(sp)
   1a7be: 4a 85        	c.mv	a0, s2
   1a7c0: 42 69        	c.ldsp	s2, 0x10(sp)
   1a7c2: 45 61        	c.addi16sp	sp, 0x30
   1a7c4: 82 80        	c.jr	ra
   1a7c6: 26 86        	c.mv	a2, s1
   1a7c8: a6 85        	c.mv	a1, s1
   1a7ca: 4e 85        	c.mv	a0, s3
   1a7cc: ef f0 df dd  	jal	ra, 0x1a5a8 <__multiply>
   1a7d0: 88 e0        	c.sd	a0, 0x0(s1)
   1a7d2: 23 30 05 00  	sd	zero, 0x0(a0)
   1a7d6: aa 84        	c.mv	s1, a0
   1a7d8: 7d b7        	c.j	0x1a786 <__pow5mult+0x32>
   1a7da: fd 37        	c.addiw	a5, -0x1
   1a7dc: 37 87 02 00  	lui	a4, 0x28
   1a7e0: 13 07 87 80  	addi	a4, a4, -0x7f8
   1a7e4: 8a 07        	c.slli	a5, 0x2
   1a7e6: ba 97        	c.add	a5, a4
   1a7e8: 90 43        	c.lw	a2, 0x0(a5)
   1a7ea: 81 46        	c.li	a3, 0x0
   1a7ec: ef f0 7f a8  	jal	ra, 0x1a272 <__multadd>
   1a7f0: 2a 89        	c.mv	s2, a0
   1a7f2: a5 bf        	c.j	0x1a76a <__pow5mult+0x16>
   1a7f4: 85 45        	c.li	a1, 0x1
   1a7f6: 4e 85        	c.mv	a0, s3
   1a7f8: ef f0 5f a0  	jal	ra, 0x1a1fc <_Balloc>
   1a7fc: aa 84        	c.mv	s1, a0
   1a7fe: 19 c9        	c.beqz	a0, 0x1a814 <__pow5mult+0xc0>
   1a800: 93 07 10 27  	addi	a5, zero, 0x271
   1a804: 1c cd        	c.sw	a5, 0x18(a0)
   1a806: 85 47        	c.li	a5, 0x1
   1a808: 5c c9        	c.sw	a5, 0x14(a0)
   1a80a: 23 b0 a9 06  	sd	a0, 0x60(s3)
   1a80e: 23 30 05 00  	sd	zero, 0x0(a0)
   1a812: 95 b7        	c.j	0x1a776 <__pow5mult+0x22>
   1a814: b7 76 02 00  	lui	a3, 0x27
   1a818: 37 75 02 00  	lui	a0, 0x27
   1a81c: 93 86 86 41  	addi	a3, a3, 0x418
   1a820: 01 46        	c.li	a2, 0x0
   1a822: 93 05 50 14  	addi	a1, zero, 0x145
   1a826: 13 05 05 43  	addi	a0, a0, 0x430
   1a82a: ef 00 90 47  	jal	ra, 0x1b4a2 <__assert_func>

000000000001a82e <__lshift>:
   1a82e: 39 71        	c.addi16sp	sp, -0x40
   1a830: 22 f8        	c.sdsp	s0, 0x30(sp)
   1a832: c0 49        	c.lw	s0, 0x14(a1)
   1a834: dc 45        	c.lw	a5, 0xc(a1)
   1a836: 56 e4        	c.sdsp	s5, 0x8(sp)
   1a838: 9b 5a 56 40  	sraiw	s5, a2, 0x5
   1a83c: 3b 84 8a 00  	addw	s0, s5, s0
   1a840: 26 f4        	c.sdsp	s1, 0x28(sp)
   1a842: 4a f0        	c.sdsp	s2, 0x20(sp)
   1a844: 4e ec        	c.sdsp	s3, 0x18(sp)
   1a846: 52 e8        	c.sdsp	s4, 0x10(sp)
   1a848: 5a e0        	c.sdsp	s6, 0x0(sp)
   1a84a: 06 fc        	c.sdsp	ra, 0x38(sp)
   1a84c: 1b 09 14 00  	addiw	s2, s0, 0x1
   1a850: ae 84        	c.mv	s1, a1
   1a852: 32 8a        	c.mv	s4, a2
   1a854: 8c 45        	c.lw	a1, 0x8(a1)
   1a856: aa 89        	c.mv	s3, a0
   1a858: 13 5b 56 40  	srai	s6, a2, 0x5
   1a85c: 63 d7 27 01  	bge	a5, s2, 0x1a86a <__lshift+0x3c>
   1a860: 9b 97 17 00  	slliw	a5, a5, 0x1
   1a864: 85 25        	c.addiw	a1, 0x1
   1a866: e3 cd 27 ff  	blt	a5, s2, 0x1a860 <__lshift+0x32>
   1a86a: 4e 85        	c.mv	a0, s3
   1a86c: ef f0 1f 99  	jal	ra, 0x1a1fc <_Balloc>
   1a870: 71 c5        	c.beqz	a0, 0x1a93c <__lshift+0x10e>
   1a872: 13 07 85 01  	addi	a4, a0, 0x18
   1a876: 63 51 60 03  	bge	zero, s6, 0x1a898 <__lshift+0x6a>
   1a87a: 9b 86 6a 00  	addiw	a3, s5, 0x6
   1a87e: 8a 06        	c.slli	a3, 0x2
   1a880: aa 96        	c.add	a3, a0
   1a882: ba 87        	c.mv	a5, a4
   1a884: 91 07        	c.addi	a5, 0x4
   1a886: 23 ae 07 fe  	sw	zero, -0x4(a5)
   1a88a: e3 9d d7 fe  	bne	a5, a3, 0x1a884 <__lshift+0x56>
   1a88e: 93 97 0a 02  	slli	a5, s5, 0x20
   1a892: 93 da e7 01  	srli	s5, a5, 0x1e
   1a896: 56 97        	c.add	a4, s5
   1a898: 83 a8 44 01  	lw	a7, 0x14(s1)
   1a89c: 93 87 84 01  	addi	a5, s1, 0x18
   1a8a0: 13 76 fa 01  	andi	a2, s4, 0x1f
   1a8a4: 8a 08        	c.slli	a7, 0x2
   1a8a6: be 98        	c.add	a7, a5
   1a8a8: 3d ca        	c.beqz	a2, 0x1a91e <__lshift+0xf0>
   1a8aa: 93 05 00 02  	addi	a1, zero, 0x20
   1a8ae: 91 9d        	c.subw	a1, a2
   1a8b0: 3a 83        	c.mv	t1, a4
   1a8b2: 81 46        	c.li	a3, 0x0
   1a8b4: 03 a8 07 00  	lw	a6, 0x0(a5)
   1a8b8: 11 03        	c.addi	t1, 0x4
   1a8ba: 91 07        	c.addi	a5, 0x4
   1a8bc: 3b 18 c8 00  	sllw	a6, a6, a2
   1a8c0: b3 e6 06 01  	or	a3, a3, a6
   1a8c4: 23 2e d3 fe  	sw	a3, -0x4(t1)
   1a8c8: 03 a8 c7 ff  	lw	a6, -0x4(a5)
   1a8cc: bb 56 b8 00  	srlw	a3, a6, a1
   1a8d0: 36 88        	c.mv	a6, a3
   1a8d2: e3 e1 17 ff  	bltu	a5, a7, 0x1a8b4 <__lshift+0x86>
   1a8d6: 93 87 94 01  	addi	a5, s1, 0x19
   1a8da: 11 46        	c.li	a2, 0x4
   1a8dc: 63 e8 f8 00  	bltu	a7, a5, 0x1a8ec <__lshift+0xbe>
   1a8e0: b3 87 98 40  	sub	a5, a7, s1
   1a8e4: 9d 17        	c.addi	a5, -0x19
   1a8e6: f1 9b        	c.andi	a5, -0x4
   1a8e8: 13 86 47 00  	addi	a2, a5, 0x4
   1a8ec: 32 97        	c.add	a4, a2
   1a8ee: 23 20 07 01  	sw	a6, 0x0(a4)
   1a8f2: 91 e2        	c.bnez	a3, 0x1a8f6 <__lshift+0xc8>
   1a8f4: 22 89        	c.mv	s2, s0
   1a8f6: 98 44        	c.lw	a4, 0x8(s1)
   1a8f8: 83 b7 89 06  	ld	a5, 0x68(s3)
   1a8fc: e2 70        	c.ldsp	ra, 0x38(sp)
   1a8fe: 0e 07        	c.slli	a4, 0x3
   1a900: ba 97        	c.add	a5, a4
   1a902: 98 63        	c.ld	a4, 0x0(a5)
   1a904: 23 2a 25 01  	sw	s2, 0x14(a0)
   1a908: 42 74        	c.ldsp	s0, 0x30(sp)
   1a90a: 98 e0        	c.sd	a4, 0x0(s1)
   1a90c: 84 e3        	c.sd	s1, 0x0(a5)
   1a90e: 02 79        	c.ldsp	s2, 0x20(sp)
   1a910: a2 74        	c.ldsp	s1, 0x28(sp)
   1a912: e2 69        	c.ldsp	s3, 0x18(sp)
   1a914: 42 6a        	c.ldsp	s4, 0x10(sp)
   1a916: a2 6a        	c.ldsp	s5, 0x8(sp)
   1a918: 02 6b        	c.ldsp	s6, 0x0(sp)
   1a91a: 21 61        	c.addi16sp	sp, 0x40
   1a91c: 82 80        	c.jr	ra
   1a91e: 94 43        	c.lw	a3, 0x0(a5)
   1a920: 91 07        	c.addi	a5, 0x4
   1a922: 11 07        	c.addi	a4, 0x4
   1a924: 23 2e d7 fe  	sw	a3, -0x4(a4)
   1a928: e3 f6 17 fd  	bgeu	a5, a7, 0x1a8f4 <__lshift+0xc6>
   1a92c: 94 43        	c.lw	a3, 0x0(a5)
   1a92e: 91 07        	c.addi	a5, 0x4
   1a930: 11 07        	c.addi	a4, 0x4
   1a932: 23 2e d7 fe  	sw	a3, -0x4(a4)
   1a936: e3 e4 17 ff  	bltu	a5, a7, 0x1a91e <__lshift+0xf0>
   1a93a: 6d bf        	c.j	0x1a8f4 <__lshift+0xc6>
   1a93c: b7 76 02 00  	lui	a3, 0x27
   1a940: 37 75 02 00  	lui	a0, 0x27
   1a944: 93 86 86 41  	addi	a3, a3, 0x418
   1a948: 01 46        	c.li	a2, 0x0
   1a94a: 93 05 e0 1d  	addi	a1, zero, 0x1de
   1a94e: 13 05 05 43  	addi	a0, a0, 0x430
   1a952: ef 00 10 35  	jal	ra, 0x1b4a2 <__assert_func>

000000000001a956 <__mcmp>:
   1a956: dc 49        	c.lw	a5, 0x14(a1)
   1a958: 2a 88        	c.mv	a6, a0
   1a95a: 48 49        	c.lw	a0, 0x14(a0)
   1a95c: 1d 9d        	c.subw	a0, a5
   1a95e: 1d e5        	c.bnez	a0, 0x1a98c <__mcmp+0x36>
   1a960: 8a 07        	c.slli	a5, 0x2
   1a962: 61 08        	c.addi	a6, 0x18
   1a964: e1 05        	c.addi	a1, 0x18
   1a966: 33 07 f8 00  	add	a4, a6, a5
   1a96a: ae 97        	c.add	a5, a1
   1a96c: 19 a0        	c.j	0x1a972 <__mcmp+0x1c>
   1a96e: 63 7f e8 00  	bgeu	a6, a4, 0x1a98c <__mcmp+0x36>
   1a972: 03 26 c7 ff  	lw	a2, -0x4(a4)
   1a976: 83 a6 c7 ff  	lw	a3, -0x4(a5)
   1a97a: 71 17        	c.addi	a4, -0x4
   1a97c: f1 17        	c.addi	a5, -0x4
   1a97e: e3 08 d6 fe  	beq	a2, a3, 0x1a96e <__mcmp+0x18>
   1a982: 05 45        	c.li	a0, 0x1
   1a984: 63 74 d6 00  	bgeu	a2, a3, 0x1a98c <__mcmp+0x36>
   1a988: 7d 55        	c.li	a0, -0x1
   1a98a: 82 80        	c.jr	ra
   1a98c: 82 80        	c.jr	ra

000000000001a98e <__mdiff>:
   1a98e: d8 49        	c.lw	a4, 0x14(a1)
   1a990: 5c 4a        	c.lw	a5, 0x14(a2)
   1a992: 01 11        	c.addi	sp, -0x20
   1a994: 22 e8        	c.sdsp	s0, 0x10(sp)
   1a996: 26 e4        	c.sdsp	s1, 0x8(sp)
   1a998: 06 ec        	c.sdsp	ra, 0x18(sp)
   1a99a: 4a e0        	c.sdsp	s2, 0x0(sp)
   1a99c: 1d 9f        	c.subw	a4, a5
   1a99e: 2e 84        	c.mv	s0, a1
   1a9a0: b2 84        	c.mv	s1, a2
   1a9a2: 63 10 07 14  	bne	a4, zero, 0x1aae2 <__mdiff+0x154>
   1a9a6: 93 96 27 00  	slli	a3, a5, 0x2
   1a9aa: 13 86 85 01  	addi	a2, a1, 0x18
   1a9ae: 13 87 84 01  	addi	a4, s1, 0x18
   1a9b2: b3 07 d6 00  	add	a5, a2, a3
   1a9b6: 36 97        	c.add	a4, a3
   1a9b8: 19 a0        	c.j	0x1a9be <__mdiff+0x30>
   1a9ba: 63 7c f6 12  	bgeu	a2, a5, 0x1aaf2 <__mdiff+0x164>
   1a9be: 83 a5 c7 ff  	lw	a1, -0x4(a5)
   1a9c2: 83 26 c7 ff  	lw	a3, -0x4(a4)
   1a9c6: f1 17        	c.addi	a5, -0x4
   1a9c8: 71 17        	c.addi	a4, -0x4
   1a9ca: e3 88 d5 fe  	beq	a1, a3, 0x1a9ba <__mdiff+0x2c>
   1a9ce: 05 49        	c.li	s2, 0x1
   1a9d0: 63 e6 d5 00  	bltu	a1, a3, 0x1a9dc <__mdiff+0x4e>
   1a9d4: a6 87        	c.mv	a5, s1
   1a9d6: 01 49        	c.li	s2, 0x0
   1a9d8: a2 84        	c.mv	s1, s0
   1a9da: 3e 84        	c.mv	s0, a5
   1a9dc: 8c 44        	c.lw	a1, 0x8(s1)
   1a9de: ef f0 ff 81  	jal	ra, 0x1a1fc <_Balloc>
   1a9e2: 63 0f 05 12  	beq	a0, zero, 0x1ab20 <__mdiff+0x192>
   1a9e6: 03 a3 44 01  	lw	t1, 0x14(s1)
   1a9ea: 83 22 44 01  	lw	t0, 0x14(s0)
   1a9ee: 13 8f 84 01  	addi	t5, s1, 0x18
   1a9f2: 13 1e 23 00  	slli	t3, t1, 0x2
   1a9f6: 13 08 84 01  	addi	a6, s0, 0x18
   1a9fa: 8a 02        	c.slli	t0, 0x2
   1a9fc: 93 0f 85 01  	addi	t6, a0, 0x18
   1aa00: c1 68        	c.lui	a7, 0x10
   1aa02: 23 28 25 01  	sw	s2, 0x10(a0)
   1aa06: 7a 9e        	c.add	t3, t5
   1aa08: c2 92        	c.add	t0, a6
   1aa0a: fe 85        	c.mv	a1, t6
   1aa0c: fa 8e        	c.mv	t4, t5
   1aa0e: 01 46        	c.li	a2, 0x0
   1aa10: fd 18        	c.addi	a7, -0x1
   1aa12: 03 a7 0e 00  	lw	a4, 0x0(t4)
   1aa16: 83 26 08 00  	lw	a3, 0x0(a6)
   1aa1a: 91 05        	c.addi	a1, 0x4
   1aa1c: b3 77 17 01  	and	a5, a4, a7
   1aa20: b3 f3 16 01  	and	t2, a3, a7
   1aa24: bb 87 77 40  	subw	a5, a5, t2
   1aa28: b1 9f        	c.addw	a5, a2
   1aa2a: 9b d6 06 01  	srliw	a3, a3, 0x10
   1aa2e: 1b 57 07 01  	srliw	a4, a4, 0x10
   1aa32: 15 9f        	c.subw	a4, a3
   1aa34: 9b d6 07 41  	sraiw	a3, a5, 0x10
   1aa38: 35 9f        	c.addw	a4, a3
   1aa3a: b3 f7 f8 00  	and	a5, a7, a5
   1aa3e: 9b 16 07 01  	slliw	a3, a4, 0x10
   1aa42: d5 8f        	c.or	a5, a3
   1aa44: 81 27        	c.addiw	a5, 0x0
   1aa46: 11 08        	c.addi	a6, 0x4
   1aa48: 23 ae f5 fe  	sw	a5, -0x4(a1)
   1aa4c: 91 0e        	c.addi	t4, 0x4
   1aa4e: 1b 56 07 41  	sraiw	a2, a4, 0x10
   1aa52: e3 60 58 fc  	bltu	a6, t0, 0x1aa12 <__mdiff+0x84>
   1aa56: 13 07 94 01  	addi	a4, s0, 0x19
   1aa5a: 33 84 82 40  	sub	s0, t0, s0
   1aa5e: 1d 14        	c.addi	s0, -0x19
   1aa60: b3 b2 e2 00  	sltu	t0, t0, a4
   1aa64: 93 c8 12 00  	xori	a7, t0, 0x1
   1aa68: 09 80        	c.srli	s0, 0x2
   1aa6a: 11 47        	c.li	a4, 0x4
   1aa6c: 63 8f 02 06  	beq	t0, zero, 0x1aaea <__mdiff+0x15c>
   1aa70: 3a 9f        	c.add	t5, a4
   1aa72: b3 8e ef 00  	add	t4, t6, a4
   1aa76: 41 68        	c.lui	a6, 0x10
   1aa78: f6 85        	c.mv	a1, t4
   1aa7a: fa 86        	c.mv	a3, t5
   1aa7c: 7d 18        	c.addi	a6, -0x1
   1aa7e: 63 78 cf 09  	bgeu	t5, t3, 0x1ab0e <__mdiff+0x180>
   1aa82: 9c 42        	c.lw	a5, 0x0(a3)
   1aa84: 9b 08 06 00  	addiw	a7, a2, 0x0
   1aa88: 91 05        	c.addi	a1, 0x4
   1aa8a: 33 f7 07 01  	and	a4, a5, a6
   1aa8e: 31 9f        	c.addw	a4, a2
   1aa90: 1b 57 07 41  	sraiw	a4, a4, 0x10
   1aa94: 1b d6 07 01  	srliw	a2, a5, 0x10
   1aa98: 31 9f        	c.addw	a4, a2
   1aa9a: bb 87 17 01  	addw	a5, a5, a7
   1aa9e: 1b 16 07 01  	slliw	a2, a4, 0x10
   1aaa2: b3 f7 07 01  	and	a5, a5, a6
   1aaa6: d1 8f        	c.or	a5, a2
   1aaa8: 81 27        	c.addiw	a5, 0x0
   1aaaa: 91 06        	c.addi	a3, 0x4
   1aaac: 23 ae f5 fe  	sw	a5, -0x4(a1)
   1aab0: 1b 56 07 41  	sraiw	a2, a4, 0x10
   1aab4: e3 e7 c6 fd  	bltu	a3, t3, 0x1aa82 <__mdiff+0xf4>
   1aab8: 7d 1e        	c.addi	t3, -0x1
   1aaba: 33 0e ee 41  	sub	t3, t3, t5
   1aabe: 13 7e ce ff  	andi	t3, t3, -0x4
   1aac2: 33 87 ce 01  	add	a4, t4, t3
   1aac6: 91 e7        	c.bnez	a5, 0x1aad2 <__mdiff+0x144>
   1aac8: 83 27 c7 ff  	lw	a5, -0x4(a4)
   1aacc: 7d 33        	c.addiw	t1, -0x1
   1aace: 71 17        	c.addi	a4, -0x4
   1aad0: e5 df        	c.beqz	a5, 0x1aac8 <__mdiff+0x13a>
   1aad2: e2 60        	c.ldsp	ra, 0x18(sp)
   1aad4: 42 64        	c.ldsp	s0, 0x10(sp)
   1aad6: 23 2a 65 00  	sw	t1, 0x14(a0)
   1aada: a2 64        	c.ldsp	s1, 0x8(sp)
   1aadc: 02 69        	c.ldsp	s2, 0x0(sp)
   1aade: 05 61        	c.addi16sp	sp, 0x20
   1aae0: 82 80        	c.jr	ra
   1aae2: 05 49        	c.li	s2, 0x1
   1aae4: e3 58 07 ee  	bge	a4, zero, 0x1a9d4 <__mdiff+0x46>
   1aae8: d5 bd        	c.j	0x1a9dc <__mdiff+0x4e>
   1aaea: 13 07 14 00  	addi	a4, s0, 0x1
   1aaee: 0a 07        	c.slli	a4, 0x2
   1aaf0: 41 b7        	c.j	0x1aa70 <__mdiff+0xe2>
   1aaf2: 81 45        	c.li	a1, 0x0
   1aaf4: ef f0 8f f0  	jal	ra, 0x1a1fc <_Balloc>
   1aaf8: 29 c1        	c.beqz	a0, 0x1ab3a <__mdiff+0x1ac>
   1aafa: e2 60        	c.ldsp	ra, 0x18(sp)
   1aafc: 42 64        	c.ldsp	s0, 0x10(sp)
   1aafe: 85 47        	c.li	a5, 0x1
   1ab00: 5c c9        	c.sw	a5, 0x14(a0)
   1ab02: 23 2c 05 00  	sw	zero, 0x18(a0)
   1ab06: a2 64        	c.ldsp	s1, 0x8(sp)
   1ab08: 02 69        	c.ldsp	s2, 0x0(sp)
   1ab0a: 05 61        	c.addi16sp	sp, 0x20
   1ab0c: 82 80        	c.jr	ra
   1ab0e: 01 47        	c.li	a4, 0x0
   1ab10: 63 94 08 00  	bne	a7, zero, 0x1ab18 <__mdiff+0x18a>
   1ab14: 7e 97        	c.add	a4, t6
   1ab16: 45 bf        	c.j	0x1aac6 <__mdiff+0x138>
   1ab18: 13 17 24 00  	slli	a4, s0, 0x2
   1ab1c: 7e 97        	c.add	a4, t6
   1ab1e: 65 b7        	c.j	0x1aac6 <__mdiff+0x138>
   1ab20: b7 76 02 00  	lui	a3, 0x27
   1ab24: 37 75 02 00  	lui	a0, 0x27
   1ab28: 93 86 86 41  	addi	a3, a3, 0x418
   1ab2c: 01 46        	c.li	a2, 0x0
   1ab2e: 93 05 50 24  	addi	a1, zero, 0x245
   1ab32: 13 05 05 43  	addi	a0, a0, 0x430
   1ab36: ef 00 d0 16  	jal	ra, 0x1b4a2 <__assert_func>
   1ab3a: b7 76 02 00  	lui	a3, 0x27
   1ab3e: 37 75 02 00  	lui	a0, 0x27
   1ab42: 93 86 86 41  	addi	a3, a3, 0x418
   1ab46: 01 46        	c.li	a2, 0x0
   1ab48: 93 05 70 23  	addi	a1, zero, 0x237
   1ab4c: 13 05 05 43  	addi	a0, a0, 0x430
   1ab50: ef 00 30 15  	jal	ra, 0x1b4a2 <__assert_func>

000000000001ab54 <__ulp>:
   1ab54: 53 07 05 e2  	fmv.x.d	a4, fa0
   1ab58: b7 07 f0 7f  	lui	a5, 0x7ff00
   1ab5c: 01 93        	c.srli	a4, 0x20
   1ab5e: 7d 8f        	c.and	a4, a5
   1ab60: b7 07 c0 fc  	lui	a5, 0xfcc00
   1ab64: bb 86 e7 00  	addw	a3, a5, a4
   1ab68: 01 47        	c.li	a4, 0x0
   1ab6a: 63 59 d0 00  	bge	zero, a3, 0x1ab7c <__ulp+0x28>
   1ab6e: 02 17        	c.slli	a4, 0x20
   1ab70: 82 16        	c.slli	a3, 0x20
   1ab72: 01 93        	c.srli	a4, 0x20
   1ab74: 55 8f        	c.or	a4, a3
   1ab76: 53 05 07 f2  	fmv.d.x	fa0, a4
   1ab7a: 82 80        	c.jr	ra
   1ab7c: bb 07 d0 40  	subw	a5, zero, a3
   1ab80: 1b d7 47 41  	sraiw	a4, a5, 0x14
   1ab84: cd 46        	c.li	a3, 0x13
   1ab86: 63 ce e6 00  	blt	a3, a4, 0x1aba2 <__ulp+0x4e>
   1ab8a: b7 06 08 00  	lui	a3, 0x80
   1ab8e: bb d6 e6 40  	sraw	a3, a3, a4
   1ab92: 01 47        	c.li	a4, 0x0
   1ab94: 02 17        	c.slli	a4, 0x20
   1ab96: 82 16        	c.slli	a3, 0x20
   1ab98: 01 93        	c.srli	a4, 0x20
   1ab9a: 55 8f        	c.or	a4, a3
   1ab9c: 53 05 07 f2  	fmv.d.x	fa0, a4
   1aba0: 82 80        	c.jr	ra
   1aba2: 9b 07 c7 fe  	addiw	a5, a4, -0x14
   1aba6: f9 46        	c.li	a3, 0x1e
   1aba8: 05 47        	c.li	a4, 0x1
   1abaa: 63 c6 f6 00  	blt	a3, a5, 0x1abb6 <__ulp+0x62>
   1abae: 37 07 00 80  	lui	a4, 0x80000
   1abb2: 3b 57 f7 00  	srlw	a4, a4, a5
   1abb6: 81 46        	c.li	a3, 0x0
   1abb8: 02 17        	c.slli	a4, 0x20
   1abba: 82 16        	c.slli	a3, 0x20
   1abbc: 01 93        	c.srli	a4, 0x20
   1abbe: 55 8f        	c.or	a4, a3
   1abc0: 53 05 07 f2  	fmv.d.x	fa0, a4
   1abc4: 82 80        	c.jr	ra

000000000001abc6 <__b2d>:
   1abc6: 79 71        	c.addi16sp	sp, -0x30
   1abc8: 26 ec        	c.sdsp	s1, 0x18(sp)
   1abca: 44 49        	c.lw	s1, 0x14(a0)
   1abcc: 22 f0        	c.sdsp	s0, 0x20(sp)
   1abce: 13 04 85 01  	addi	s0, a0, 0x18
   1abd2: 8a 04        	c.slli	s1, 0x2
   1abd4: a2 94        	c.add	s1, s0
   1abd6: 4a e8        	c.sdsp	s2, 0x10(sp)
   1abd8: 03 a9 c4 ff  	lw	s2, -0x4(s1)
   1abdc: 4e e4        	c.sdsp	s3, 0x8(sp)
   1abde: 52 e0        	c.sdsp	s4, 0x0(sp)
   1abe0: 4a 85        	c.mv	a0, s2
   1abe2: ae 89        	c.mv	s3, a1
   1abe4: 06 f4        	c.sdsp	ra, 0x28(sp)
   1abe6: ef f0 1f 86  	jal	ra, 0x1a446 <__hi0bits>
   1abea: 93 06 00 02  	addi	a3, zero, 0x20
   1abee: bb 87 a6 40  	subw	a5, a3, a0
   1abf2: 23 a0 f9 00  	sw	a5, 0x0(s3)
   1abf6: a9 47        	c.li	a5, 0xa
   1abf8: 13 8a c4 ff  	addi	s4, s1, -0x4
   1abfc: 63 d5 a7 08  	bge	a5, a0, 0x1ac86 <__b2d+0xc0>
   1ac00: 9b 07 55 ff  	addiw	a5, a0, -0xb
   1ac04: 63 71 44 05  	bgeu	s0, s4, 0x1ac46 <__b2d+0x80>
   1ac08: 03 a7 84 ff  	lw	a4, -0x8(s1)
   1ac0c: a9 cb        	c.beqz	a5, 0x1ac5e <__b2d+0x98>
   1ac0e: 9d 9e        	c.subw	a3, a5
   1ac10: 3b 56 d7 00  	srlw	a2, a4, a3
   1ac14: 3b 19 f9 00  	sllw	s2, s2, a5
   1ac18: 33 69 c9 00  	or	s2, s2, a2
   1ac1c: 37 06 f0 3f  	lui	a2, 0x3ff00
   1ac20: 33 69 c9 00  	or	s2, s2, a2
   1ac24: bb 15 f7 00  	sllw	a1, a4, a5
   1ac28: 13 86 84 ff  	addi	a2, s1, -0x8
   1ac2c: 93 17 09 02  	slli	a5, s2, 0x20
   1ac30: 1b 87 05 00  	addiw	a4, a1, 0x0
   1ac34: 63 7a c4 02  	bgeu	s0, a2, 0x1ac68 <__b2d+0xa2>
   1ac38: 03 a7 44 ff  	lw	a4, -0xc(s1)
   1ac3c: 3b 57 d7 00  	srlw	a4, a4, a3
   1ac40: 4d 8f        	c.or	a4, a1
   1ac42: 01 27        	c.addiw	a4, 0x0
   1ac44: 15 a0        	c.j	0x1ac68 <__b2d+0xa2>
   1ac46: 2d 47        	c.li	a4, 0xb
   1ac48: 63 0a e5 00  	beq	a0, a4, 0x1ac5c <__b2d+0x96>
   1ac4c: 37 07 f0 3f  	lui	a4, 0x3ff00
   1ac50: bb 17 f9 00  	sllw	a5, s2, a5
   1ac54: d9 8f        	c.or	a5, a4
   1ac56: 82 17        	c.slli	a5, 0x20
   1ac58: 01 47        	c.li	a4, 0x0
   1ac5a: 39 a0        	c.j	0x1ac68 <__b2d+0xa2>
   1ac5c: 01 47        	c.li	a4, 0x0
   1ac5e: b7 07 f0 3f  	lui	a5, 0x3ff00
   1ac62: b3 67 f9 00  	or	a5, s2, a5
   1ac66: 82 17        	c.slli	a5, 0x20
   1ac68: a2 70        	c.ldsp	ra, 0x28(sp)
   1ac6a: 02 74        	c.ldsp	s0, 0x20(sp)
   1ac6c: 81 93        	c.srli	a5, 0x20
   1ac6e: 02 17        	c.slli	a4, 0x20
   1ac70: 01 93        	c.srli	a4, 0x20
   1ac72: 82 17        	c.slli	a5, 0x20
   1ac74: d9 8f        	c.or	a5, a4
   1ac76: e2 64        	c.ldsp	s1, 0x18(sp)
   1ac78: 42 69        	c.ldsp	s2, 0x10(sp)
   1ac7a: a2 69        	c.ldsp	s3, 0x8(sp)
   1ac7c: 02 6a        	c.ldsp	s4, 0x0(sp)
   1ac7e: 53 85 07 f2  	fmv.d.x	fa0, a5
   1ac82: 45 61        	c.addi16sp	sp, 0x30
   1ac84: 82 80        	c.jr	ra
   1ac86: ad 46        	c.li	a3, 0xb
   1ac88: 89 9e        	c.subw	a3, a0
   1ac8a: 37 07 f0 3f  	lui	a4, 0x3ff00
   1ac8e: bb 57 d9 00  	srlw	a5, s2, a3
   1ac92: d9 8f        	c.or	a5, a4
   1ac94: 82 17        	c.slli	a5, 0x20
   1ac96: 01 47        	c.li	a4, 0x0
   1ac98: 63 76 44 01  	bgeu	s0, s4, 0x1aca4 <__b2d+0xde>
   1ac9c: 03 a7 84 ff  	lw	a4, -0x8(s1)
   1aca0: 3b 57 d7 00  	srlw	a4, a4, a3
   1aca4: 55 25        	c.addiw	a0, 0x15
   1aca6: 3b 15 a9 00  	sllw	a0, s2, a0
   1acaa: 49 8f        	c.or	a4, a0
   1acac: 01 27        	c.addiw	a4, 0x0
   1acae: 6d bf        	c.j	0x1ac68 <__b2d+0xa2>

000000000001acb0 <__d2b>:
   1acb0: 39 71        	c.addi16sp	sp, -0x40
   1acb2: 52 e8        	c.sdsp	s4, 0x10(sp)
   1acb4: 2e 8a        	c.mv	s4, a1
   1acb6: 85 45        	c.li	a1, 0x1
   1acb8: 22 f8        	c.sdsp	s0, 0x30(sp)
   1acba: 4a f0        	c.sdsp	s2, 0x20(sp)
   1acbc: 06 fc        	c.sdsp	ra, 0x38(sp)
   1acbe: 26 f4        	c.sdsp	s1, 0x28(sp)
   1acc0: 4e ec        	c.sdsp	s3, 0x18(sp)
   1acc2: 53 04 05 e2  	fmv.x.d	s0, fa0
   1acc6: 32 89        	c.mv	s2, a2
   1acc8: ef f0 4f d3  	jal	ra, 0x1a1fc <_Balloc>
   1accc: 55 c9        	c.beqz	a0, 0x1ad80 <__d2b+0xd0>
   1acce: 93 57 04 42  	srai	a5, s0, 0x20
   1acd2: 9b d9 47 01  	srliw	s3, a5, 0x14
   1acd6: 93 f9 f9 7f  	andi	s3, s3, 0x7ff
   1acda: b2 17        	c.slli	a5, 0x2c
   1acdc: aa 84        	c.mv	s1, a0
   1acde: b1 93        	c.srli	a5, 0x2c
   1ace0: 63 85 09 00  	beq	s3, zero, 0x1acea <__d2b+0x3a>
   1ace4: 37 07 10 00  	lui	a4, 0x100
   1ace8: d9 8f        	c.or	a5, a4
   1acea: 3e c6        	c.swsp	a5, 0xc(sp)
   1acec: 01 24        	c.addiw	s0, 0x0
   1acee: 29 e0        	c.bnez	s0, 0x1ad30 <__d2b+0x80>
   1acf0: 68 00        	c.addi4spn	a0, sp, 0xc
   1acf2: ef f0 2f fb  	jal	ra, 0x1a4a4 <__lo0bits>
   1acf6: b2 47        	c.lwsp	a5, 0xc(sp)
   1acf8: 05 44        	c.li	s0, 0x1
   1acfa: c0 c8        	c.sw	s0, 0x14(s1)
   1acfc: 9c cc        	c.sw	a5, 0x18(s1)
   1acfe: 1b 05 05 02  	addiw	a0, a0, 0x20
   1ad02: 63 80 09 06  	beq	s3, zero, 0x1ad62 <__d2b+0xb2>
   1ad06: 9b 89 d9 bc  	addiw	s3, s3, -0x433
   1ad0a: bb 89 a9 00  	addw	s3, s3, a0
   1ad0e: 13 04 50 03  	addi	s0, zero, 0x35
   1ad12: 23 20 3a 01  	sw	s3, 0x0(s4)
   1ad16: 3b 05 a4 40  	subw	a0, s0, a0
   1ad1a: e2 70        	c.ldsp	ra, 0x38(sp)
   1ad1c: 42 74        	c.ldsp	s0, 0x30(sp)
   1ad1e: 23 20 a9 00  	sw	a0, 0x0(s2)
   1ad22: e2 69        	c.ldsp	s3, 0x18(sp)
   1ad24: 02 79        	c.ldsp	s2, 0x20(sp)
   1ad26: 42 6a        	c.ldsp	s4, 0x10(sp)
   1ad28: 26 85        	c.mv	a0, s1
   1ad2a: a2 74        	c.ldsp	s1, 0x28(sp)
   1ad2c: 21 61        	c.addi16sp	sp, 0x40
   1ad2e: 82 80        	c.jr	ra
   1ad30: 28 00        	c.addi4spn	a0, sp, 0x8
   1ad32: 22 c4        	c.swsp	s0, 0x8(sp)
   1ad34: ef f0 0f f7  	jal	ra, 0x1a4a4 <__lo0bits>
   1ad38: b2 47        	c.lwsp	a5, 0xc(sp)
   1ad3a: 22 47        	c.lwsp	a4, 0x8(sp)
   1ad3c: 19 c9        	c.beqz	a0, 0x1ad52 <__d2b+0xa2>
   1ad3e: 93 06 00 02  	addi	a3, zero, 0x20
   1ad42: 89 9e        	c.subw	a3, a0
   1ad44: bb 96 d7 00  	sllw	a3, a5, a3
   1ad48: 55 8f        	c.or	a4, a3
   1ad4a: bb d7 a7 00  	srlw	a5, a5, a0
   1ad4e: 01 27        	c.addiw	a4, 0x0
   1ad50: 3e c6        	c.swsp	a5, 0xc(sp)
   1ad52: 33 34 f0 00  	sltu	s0, zero, a5
   1ad56: 05 04        	c.addi	s0, 0x1
   1ad58: 98 cc        	c.sw	a4, 0x18(s1)
   1ad5a: dc cc        	c.sw	a5, 0x1c(s1)
   1ad5c: c0 c8        	c.sw	s0, 0x14(s1)
   1ad5e: e3 94 09 fa  	bne	s3, zero, 0x1ad06 <__d2b+0x56>
   1ad62: 1b 05 e5 bc  	addiw	a0, a0, -0x432
   1ad66: 93 17 24 00  	slli	a5, s0, 0x2
   1ad6a: 23 20 aa 00  	sw	a0, 0x0(s4)
   1ad6e: a6 97        	c.add	a5, s1
   1ad70: c8 4b        	c.lw	a0, 0x14(a5)
   1ad72: 1b 14 54 00  	slliw	s0, s0, 0x5
   1ad76: ef f0 0f ed  	jal	ra, 0x1a446 <__hi0bits>
   1ad7a: 3b 05 a4 40  	subw	a0, s0, a0
   1ad7e: 71 bf        	c.j	0x1ad1a <__d2b+0x6a>
   1ad80: b7 76 02 00  	lui	a3, 0x27
   1ad84: 37 75 02 00  	lui	a0, 0x27
   1ad88: 93 86 86 41  	addi	a3, a3, 0x418
   1ad8c: 01 46        	c.li	a2, 0x0
   1ad8e: 93 05 f0 30  	addi	a1, zero, 0x30f
   1ad92: 13 05 05 43  	addi	a0, a0, 0x430
   1ad96: ef 00 c0 70  	jal	ra, 0x1b4a2 <__assert_func>

000000000001ad9a <__ratio>:
   1ad9a: 79 71        	c.addi16sp	sp, -0x30
   1ad9c: 26 ec        	c.sdsp	s1, 0x18(sp)
   1ad9e: ae 84        	c.mv	s1, a1
   1ada0: 2c 00        	c.addi4spn	a1, sp, 0x8
   1ada2: 06 f4        	c.sdsp	ra, 0x28(sp)
   1ada4: 22 f0        	c.sdsp	s0, 0x20(sp)
   1ada6: 4a e8        	c.sdsp	s2, 0x10(sp)
   1ada8: 2a 89        	c.mv	s2, a0
   1adaa: ef f0 df e1  	jal	ra, 0x1abc6 <__b2d>
   1adae: 6c 00        	c.addi4spn	a1, sp, 0xc
   1adb0: 26 85        	c.mv	a0, s1
   1adb2: 53 04 05 e2  	fmv.x.d	s0, fa0
   1adb6: ef f0 1f e1  	jal	ra, 0x1abc6 <__b2d>
   1adba: 83 27 49 01  	lw	a5, 0x14(s2)
   1adbe: d0 48        	c.lw	a2, 0x14(s1)
   1adc0: b2 46        	c.lwsp	a3, 0xc(sp)
   1adc2: 22 47        	c.lwsp	a4, 0x8(sp)
   1adc4: 91 9f        	c.subw	a5, a2
   1adc6: 9b 97 57 00  	slliw	a5, a5, 0x5
   1adca: 15 9f        	c.subw	a4, a3
   1adcc: bb 86 e7 00  	addw	a3, a5, a4
   1add0: b6 87        	c.mv	a5, a3
   1add2: 53 07 05 e2  	fmv.x.d	a4, fa0
   1add6: 63 59 d0 02  	bge	zero, a3, 0x1ae08 <__ratio+0x6e>
   1adda: 93 56 04 02  	srli	a3, s0, 0x20
   1adde: 9b 97 47 01  	slliw	a5, a5, 0x14
   1ade2: b5 9f        	c.addw	a5, a3
   1ade4: fd 56        	c.li	a3, -0x1
   1ade6: 81 92        	c.srli	a3, 0x20
   1ade8: 82 17        	c.slli	a5, 0x20
   1adea: e1 8e        	c.and	a3, s0
   1adec: 33 e4 f6 00  	or	s0, a3, a5
   1adf0: d3 07 04 f2  	fmv.d.x	fa5, s0
   1adf4: a2 70        	c.ldsp	ra, 0x28(sp)
   1adf6: 02 74        	c.ldsp	s0, 0x20(sp)
   1adf8: 53 07 07 f2  	fmv.d.x	fa4, a4
   1adfc: e2 64        	c.ldsp	s1, 0x18(sp)
   1adfe: 42 69        	c.ldsp	s2, 0x10(sp)
   1ae00: 53 f5 e7 1a  	fdiv.d	fa0, fa5, fa4, dyn
   1ae04: 45 61        	c.addi16sp	sp, 0x30
   1ae06: 82 80        	c.jr	ra
   1ae08: 93 56 07 02  	srli	a3, a4, 0x20
   1ae0c: 9b 97 47 01  	slliw	a5, a5, 0x14
   1ae10: bb 87 f6 40  	subw	a5, a3, a5
   1ae14: fd 56        	c.li	a3, -0x1
   1ae16: 81 92        	c.srli	a3, 0x20
   1ae18: 82 17        	c.slli	a5, 0x20
   1ae1a: 75 8f        	c.and	a4, a3
   1ae1c: 5d 8f        	c.or	a4, a5
   1ae1e: c9 bf        	c.j	0x1adf0 <__ratio+0x56>

000000000001ae20 <_mprec_log10>:
   1ae20: dd 47        	c.li	a5, 0x17
   1ae22: 63 db a7 00  	bge	a5, a0, 0x1ae38 <_mprec_log10+0x18>
   1ae26: 07 b5 81 1b  	fld	fa0, 0x1b8(gp)
   1ae2a: 87 b7 01 1c  	fld	fa5, 0x1c0(gp)
   1ae2e: 7d 35        	c.addiw	a0, -0x1
   1ae30: 53 75 f5 12  	fmul.d	fa0, fa0, fa5, dyn
   1ae34: 6d fd        	c.bnez	a0, 0x1ae2e <_mprec_log10+0xe>
   1ae36: 82 80        	c.jr	ra
   1ae38: b7 87 02 00  	lui	a5, 0x28
   1ae3c: 0e 05        	c.slli	a0, 0x3
   1ae3e: 93 87 87 86  	addi	a5, a5, -0x798
   1ae42: aa 97        	c.add	a5, a0
   1ae44: 88 23        	c.fld	fa0, 0x0(a5)
   1ae46: 82 80        	c.jr	ra

000000000001ae48 <__copybits>:
   1ae48: 54 4a        	c.lw	a3, 0x14(a2)
   1ae4a: fd 35        	c.addiw	a1, -0x1
   1ae4c: 9b d5 55 40  	sraiw	a1, a1, 0x5
   1ae50: 85 25        	c.addiw	a1, 0x1
   1ae52: 93 07 86 01  	addi	a5, a2, 0x18
   1ae56: 8a 06        	c.slli	a3, 0x2
   1ae58: 8a 05        	c.slli	a1, 0x2
   1ae5a: be 96        	c.add	a3, a5
   1ae5c: aa 95        	c.add	a1, a0
   1ae5e: 63 f1 d7 02  	bgeu	a5, a3, 0x1ae80 <__copybits+0x38>
   1ae62: 2a 87        	c.mv	a4, a0
   1ae64: 03 a8 07 00  	lw	a6, 0x0(a5)
   1ae68: 91 07        	c.addi	a5, 0x4
   1ae6a: 11 07        	c.addi	a4, 0x4
   1ae6c: 23 2e 07 ff  	sw	a6, -0x4(a4)
   1ae70: e3 ea d7 fe  	bltu	a5, a3, 0x1ae64 <__copybits+0x1c>
   1ae74: b3 87 c6 40  	sub	a5, a3, a2
   1ae78: 9d 17        	c.addi	a5, -0x19
   1ae7a: f1 9b        	c.andi	a5, -0x4
   1ae7c: 91 07        	c.addi	a5, 0x4
   1ae7e: 3e 95        	c.add	a0, a5
   1ae80: 63 77 b5 00  	bgeu	a0, a1, 0x1ae8e <__copybits+0x46>
   1ae84: 11 05        	c.addi	a0, 0x4
   1ae86: 23 2e 05 fe  	sw	zero, -0x4(a0)
   1ae8a: e3 6d b5 fe  	bltu	a0, a1, 0x1ae84 <__copybits+0x3c>
   1ae8e: 82 80        	c.jr	ra

000000000001ae90 <__any_on>:
   1ae90: 58 49        	c.lw	a4, 0x14(a0)
   1ae92: 13 d6 55 40  	srai	a2, a1, 0x5
   1ae96: 93 06 85 01  	addi	a3, a0, 0x18
   1ae9a: 63 5d c7 00  	bge	a4, a2, 0x1aeb4 <__any_on+0x24>
   1ae9e: 0a 07        	c.slli	a4, 0x2
   1aea0: b3 87 e6 00  	add	a5, a3, a4
   1aea4: 63 f8 f6 02  	bgeu	a3, a5, 0x1aed4 <__any_on+0x44>
   1aea8: 03 a7 c7 ff  	lw	a4, -0x4(a5)
   1aeac: f1 17        	c.addi	a5, -0x4
   1aeae: 7d db        	c.beqz	a4, 0x1aea4 <__any_on+0x14>
   1aeb0: 05 45        	c.li	a0, 0x1
   1aeb2: 82 80        	c.jr	ra
   1aeb4: 93 17 26 00  	slli	a5, a2, 0x2
   1aeb8: b6 97        	c.add	a5, a3
   1aeba: e3 55 e6 fe  	bge	a2, a4, 0x1aea4 <__any_on+0x14>
   1aebe: fd 89        	c.andi	a1, 0x1f
   1aec0: f5 d1        	c.beqz	a1, 0x1aea4 <__any_on+0x14>
   1aec2: 90 43        	c.lw	a2, 0x0(a5)
   1aec4: 05 45        	c.li	a0, 0x1
   1aec6: 3b 57 b6 00  	srlw	a4, a2, a1
   1aeca: 3b 17 b7 00  	sllw	a4, a4, a1
   1aece: e3 0b c7 fc  	beq	a4, a2, 0x1aea4 <__any_on+0x14>
   1aed2: 82 80        	c.jr	ra
   1aed4: 01 45        	c.li	a0, 0x0
   1aed6: 82 80        	c.jr	ra

000000000001aed8 <_realloc_r>:
   1aed8: 5d 71        	c.addi16sp	sp, -0x50
   1aeda: 4a f8        	c.sdsp	s2, 0x30(sp)
   1aedc: 86 e4        	c.sdsp	ra, 0x48(sp)
   1aede: 32 89        	c.mv	s2, a2
   1aee0: 63 84 05 16  	beq	a1, zero, 0x1b048 <_realloc_r+0x170>
   1aee4: a2 e0        	c.sdsp	s0, 0x40(sp)
   1aee6: 26 fc        	c.sdsp	s1, 0x38(sp)
   1aee8: 2e 84        	c.mv	s0, a1
   1aeea: 4e f4        	c.sdsp	s3, 0x28(sp)
   1aeec: 52 f0        	c.sdsp	s4, 0x20(sp)
   1aeee: 56 ec        	c.sdsp	s5, 0x18(sp)
   1aef0: aa 89        	c.mv	s3, a0
   1aef2: ef a0 af e1  	jal	ra, 0x1550c <__malloc_lock>
   1aef6: 83 37 84 ff  	ld	a5, -0x8(s0)
   1aefa: 93 04 79 01  	addi	s1, s2, 0x17
   1aefe: 13 07 e0 02  	addi	a4, zero, 0x2e
   1af02: 93 0a 04 ff  	addi	s5, s0, -0x10
   1af06: 13 fa c7 ff  	andi	s4, a5, -0x4
   1af0a: 63 74 97 0c  	bgeu	a4, s1, 0x1afd2 <_realloc_r+0xfa>
   1af0e: 37 07 00 80  	lui	a4, 0x80000
   1af12: c1 98        	c.andi	s1, -0x10
   1af14: 13 47 f7 ff  	xori	a4, a4, -0x1
   1af18: 63 61 97 0c  	bltu	a4, s1, 0x1afda <_realloc_r+0x102>
   1af1c: 63 ef 24 0b  	bltu	s1, s2, 0x1afda <_realloc_r+0x102>
   1af20: 63 58 9a 0c  	bge	s4, s1, 0x1aff0 <_realloc_r+0x118>
   1af24: 37 97 02 00  	lui	a4, 0x29
   1af28: 62 e0        	c.sdsp	s8, 0x0(sp)
   1af2a: 13 0c 07 e1  	addi	s8, a4, -0x1f0
   1af2e: 03 36 0c 01  	ld	a2, 0x10(s8)
   1af32: b3 86 4a 01  	add	a3, s5, s4
   1af36: 98 66        	c.ld	a4, 0x8(a3)
   1af38: 63 0f d6 12  	beq	a2, a3, 0x1b076 <_realloc_r+0x19e>
   1af3c: 13 76 e7 ff  	andi	a2, a4, -0x2
   1af40: 36 96        	c.add	a2, a3
   1af42: 10 66        	c.ld	a2, 0x8(a2)
   1af44: 05 8a        	c.andi	a2, 0x1
   1af46: 6d e6        	c.bnez	a2, 0x1b030 <_realloc_r+0x158>
   1af48: 71 9b        	c.andi	a4, -0x4
   1af4a: 33 06 ea 00  	add	a2, s4, a4
   1af4e: 63 5b 96 08  	bge	a2, s1, 0x1afe4 <_realloc_r+0x10c>
   1af52: 85 8b        	c.andi	a5, 0x1
   1af54: 8d e7        	c.bnez	a5, 0x1af7e <_realloc_r+0xa6>
   1af56: 5e e4        	c.sdsp	s7, 0x8(sp)
   1af58: 83 3b 04 ff  	ld	s7, -0x10(s0)
   1af5c: 5a e8        	c.sdsp	s6, 0x10(sp)
   1af5e: b3 8b 7a 41  	sub	s7, s5, s7
   1af62: 83 b7 8b 00  	ld	a5, 0x8(s7)
   1af66: f1 9b        	c.andi	a5, -0x4
   1af68: 3e 97        	c.add	a4, a5
   1af6a: 33 0b 47 01  	add	s6, a4, s4
   1af6e: 63 55 9b 24  	bge	s6, s1, 0x1b1b8 <_realloc_r+0x2e0>
   1af72: 33 0b fa 00  	add	s6, s4, a5
   1af76: 63 57 9b 1c  	bge	s6, s1, 0x1b144 <_realloc_r+0x26c>
   1af7a: 42 6b        	c.ldsp	s6, 0x10(sp)
   1af7c: a2 6b        	c.ldsp	s7, 0x8(sp)
   1af7e: ca 85        	c.mv	a1, s2
   1af80: 4e 85        	c.mv	a0, s3
   1af82: ef 90 3f f8  	jal	ra, 0x14f04 <_malloc_r>
   1af86: 2a 89        	c.mv	s2, a0
   1af88: 63 08 05 2e  	beq	a0, zero, 0x1b278 <_realloc_r+0x3a0>
   1af8c: 83 37 84 ff  	ld	a5, -0x8(s0)
   1af90: 13 07 05 ff  	addi	a4, a0, -0x10
   1af94: f9 9b        	c.andi	a5, -0x2
   1af96: d6 97        	c.add	a5, s5
   1af98: 63 80 e7 1a  	beq	a5, a4, 0x1b138 <_realloc_r+0x260>
   1af9c: 13 06 8a ff  	addi	a2, s4, -0x8
   1afa0: 93 07 80 04  	addi	a5, zero, 0x48
   1afa4: 63 e6 c7 20  	bltu	a5, a2, 0x1b1b0 <_realloc_r+0x2d8>
   1afa8: 13 07 70 02  	addi	a4, zero, 0x27
   1afac: 63 69 c7 16  	bltu	a4, a2, 0x1b11e <_realloc_r+0x246>
   1afb0: aa 87        	c.mv	a5, a0
   1afb2: 22 87        	c.mv	a4, s0
   1afb4: 14 63        	c.ld	a3, 0x0(a4)
   1afb6: 94 e3        	c.sd	a3, 0x0(a5)
   1afb8: 14 67        	c.ld	a3, 0x8(a4)
   1afba: 94 e7        	c.sd	a3, 0x8(a5)
   1afbc: 18 6b        	c.ld	a4, 0x10(a4)
   1afbe: 98 eb        	c.sd	a4, 0x10(a5)
   1afc0: a2 85        	c.mv	a1, s0
   1afc2: 4e 85        	c.mv	a0, s3
   1afc4: ef 90 7f cf  	jal	ra, 0x14cba <_free_r>
   1afc8: 4e 85        	c.mv	a0, s3
   1afca: ef a0 4f d4  	jal	ra, 0x1550e <__malloc_unlock>
   1afce: 02 6c        	c.ldsp	s8, 0x0(sp)
   1afd0: b1 a0        	c.j	0x1b01c <_realloc_r+0x144>
   1afd2: 93 04 00 02  	addi	s1, zero, 0x20
   1afd6: e3 f5 24 f5  	bgeu	s1, s2, 0x1af20 <_realloc_r+0x48>
   1afda: b1 47        	c.li	a5, 0xc
   1afdc: 23 a0 f9 00  	sw	a5, 0x0(s3)
   1afe0: 01 49        	c.li	s2, 0x0
   1afe2: 2d a8        	c.j	0x1b01c <_realloc_r+0x144>
   1afe4: 9c 6e        	c.ld	a5, 0x18(a3)
   1afe6: 98 6a        	c.ld	a4, 0x10(a3)
   1afe8: 02 6c        	c.ldsp	s8, 0x0(sp)
   1afea: 32 8a        	c.mv	s4, a2
   1afec: 1c ef        	c.sd	a5, 0x18(a4)
   1afee: 98 eb        	c.sd	a4, 0x10(a5)
   1aff0: 83 b7 8a 00  	ld	a5, 0x8(s5)
   1aff4: b3 06 9a 40  	sub	a3, s4, s1
   1aff8: 7d 46        	c.li	a2, 0x1f
   1affa: 85 8b        	c.andi	a5, 0x1
   1affc: 33 87 4a 01  	add	a4, s5, s4
   1b000: 63 6a d6 04  	bltu	a2, a3, 0x1b054 <_realloc_r+0x17c>
   1b004: b3 e7 47 01  	or	a5, a5, s4
   1b008: 23 b4 fa 00  	sd	a5, 0x8(s5)
   1b00c: 1c 67        	c.ld	a5, 0x8(a4)
   1b00e: 93 e7 17 00  	ori	a5, a5, 0x1
   1b012: 1c e7        	c.sd	a5, 0x8(a4)
   1b014: 4e 85        	c.mv	a0, s3
   1b016: ef a0 8f cf  	jal	ra, 0x1550e <__malloc_unlock>
   1b01a: 22 89        	c.mv	s2, s0
   1b01c: 06 64        	c.ldsp	s0, 0x40(sp)
   1b01e: a6 60        	c.ldsp	ra, 0x48(sp)
   1b020: e2 74        	c.ldsp	s1, 0x38(sp)
   1b022: a2 79        	c.ldsp	s3, 0x28(sp)
   1b024: 02 7a        	c.ldsp	s4, 0x20(sp)
   1b026: e2 6a        	c.ldsp	s5, 0x18(sp)
   1b028: 4a 85        	c.mv	a0, s2
   1b02a: 42 79        	c.ldsp	s2, 0x30(sp)
   1b02c: 61 61        	c.addi16sp	sp, 0x50
   1b02e: 82 80        	c.jr	ra
   1b030: 85 8b        	c.andi	a5, 0x1
   1b032: b1 f7        	c.bnez	a5, 0x1af7e <_realloc_r+0xa6>
   1b034: 5e e4        	c.sdsp	s7, 0x8(sp)
   1b036: 83 3b 04 ff  	ld	s7, -0x10(s0)
   1b03a: 5a e8        	c.sdsp	s6, 0x10(sp)
   1b03c: b3 8b 7a 41  	sub	s7, s5, s7
   1b040: 83 b7 8b 00  	ld	a5, 0x8(s7)
   1b044: f1 9b        	c.andi	a5, -0x4
   1b046: 35 b7        	c.j	0x1af72 <_realloc_r+0x9a>
   1b048: a6 60        	c.ldsp	ra, 0x48(sp)
   1b04a: 42 79        	c.ldsp	s2, 0x30(sp)
   1b04c: b2 85        	c.mv	a1, a2
   1b04e: 61 61        	c.addi16sp	sp, 0x50
   1b050: 6f 90 5f eb  	jal	zero, 0x14f04 <_malloc_r>
   1b054: c5 8f        	c.or	a5, s1
   1b056: 23 b4 fa 00  	sd	a5, 0x8(s5)
   1b05a: b3 85 9a 00  	add	a1, s5, s1
   1b05e: 93 e6 16 00  	ori	a3, a3, 0x1
   1b062: 94 e5        	c.sd	a3, 0x8(a1)
   1b064: 1c 67        	c.ld	a5, 0x8(a4)
   1b066: c1 05        	c.addi	a1, 0x10
   1b068: 4e 85        	c.mv	a0, s3
   1b06a: 93 e7 17 00  	ori	a5, a5, 0x1
   1b06e: 1c e7        	c.sd	a5, 0x8(a4)
   1b070: ef 90 bf c4  	jal	ra, 0x14cba <_free_r>
   1b074: 45 b7        	c.j	0x1b014 <_realloc_r+0x13c>
   1b076: 71 9b        	c.andi	a4, -0x4
   1b078: b3 06 47 01  	add	a3, a4, s4
   1b07c: 13 86 04 02  	addi	a2, s1, 0x20
   1b080: 63 d3 c6 1c  	bge	a3, a2, 0x1b246 <_realloc_r+0x36e>
   1b084: 85 8b        	c.andi	a5, 0x1
   1b086: e3 9c 07 ee  	bne	a5, zero, 0x1af7e <_realloc_r+0xa6>
   1b08a: 5e e4        	c.sdsp	s7, 0x8(sp)
   1b08c: 83 3b 04 ff  	ld	s7, -0x10(s0)
   1b090: 5a e8        	c.sdsp	s6, 0x10(sp)
   1b092: b3 8b 7a 41  	sub	s7, s5, s7
   1b096: 83 b7 8b 00  	ld	a5, 0x8(s7)
   1b09a: f1 9b        	c.andi	a5, -0x4
   1b09c: 3e 97        	c.add	a4, a5
   1b09e: 33 0b 47 01  	add	s6, a4, s4
   1b0a2: e3 48 cb ec  	blt	s6, a2, 0x1af72 <_realloc_r+0x9a>
   1b0a6: 83 b7 8b 01  	ld	a5, 0x18(s7)
   1b0aa: 03 b7 0b 01  	ld	a4, 0x10(s7)
   1b0ae: 13 06 8a ff  	addi	a2, s4, -0x8
   1b0b2: 93 06 80 04  	addi	a3, zero, 0x48
   1b0b6: 1c ef        	c.sd	a5, 0x18(a4)
   1b0b8: 98 eb        	c.sd	a4, 0x10(a5)
   1b0ba: 13 89 0b 01  	addi	s2, s7, 0x10
   1b0be: 63 ec c6 1c  	bltu	a3, a2, 0x1b296 <_realloc_r+0x3be>
   1b0c2: 13 07 70 02  	addi	a4, zero, 0x27
   1b0c6: ca 87        	c.mv	a5, s2
   1b0c8: 63 7f c7 00  	bgeu	a4, a2, 0x1b0e6 <_realloc_r+0x20e>
   1b0cc: 18 60        	c.ld	a4, 0x0(s0)
   1b0ce: 93 07 70 03  	addi	a5, zero, 0x37
   1b0d2: 23 b8 eb 00  	sd	a4, 0x10(s7)
   1b0d6: 18 64        	c.ld	a4, 0x8(s0)
   1b0d8: 23 bc eb 00  	sd	a4, 0x18(s7)
   1b0dc: 63 e2 c7 1c  	bltu	a5, a2, 0x1b2a0 <_realloc_r+0x3c8>
   1b0e0: 41 04        	c.addi	s0, 0x10
   1b0e2: 93 87 0b 02  	addi	a5, s7, 0x20
   1b0e6: 18 60        	c.ld	a4, 0x0(s0)
   1b0e8: 98 e3        	c.sd	a4, 0x0(a5)
   1b0ea: 18 64        	c.ld	a4, 0x8(s0)
   1b0ec: 98 e7        	c.sd	a4, 0x8(a5)
   1b0ee: 18 68        	c.ld	a4, 0x10(s0)
   1b0f0: 98 eb        	c.sd	a4, 0x10(a5)
   1b0f2: 33 87 9b 00  	add	a4, s7, s1
   1b0f6: b3 07 9b 40  	sub	a5, s6, s1
   1b0fa: 23 38 ec 00  	sd	a4, 0x10(s8)
   1b0fe: 93 e7 17 00  	ori	a5, a5, 0x1
   1b102: 1c e7        	c.sd	a5, 0x8(a4)
   1b104: 83 b7 8b 00  	ld	a5, 0x8(s7)
   1b108: 4e 85        	c.mv	a0, s3
   1b10a: 85 8b        	c.andi	a5, 0x1
   1b10c: c5 8f        	c.or	a5, s1
   1b10e: 23 b4 fb 00  	sd	a5, 0x8(s7)
   1b112: ef a0 cf bf  	jal	ra, 0x1550e <__malloc_unlock>
   1b116: 42 6b        	c.ldsp	s6, 0x10(sp)
   1b118: a2 6b        	c.ldsp	s7, 0x8(sp)
   1b11a: 02 6c        	c.ldsp	s8, 0x0(sp)
   1b11c: 01 b7        	c.j	0x1b01c <_realloc_r+0x144>
   1b11e: 14 60        	c.ld	a3, 0x0(s0)
   1b120: 13 07 70 03  	addi	a4, zero, 0x37
   1b124: 14 e1        	c.sd	a3, 0x0(a0)
   1b126: 14 64        	c.ld	a3, 0x8(s0)
   1b128: 14 e5        	c.sd	a3, 0x8(a0)
   1b12a: 63 63 c7 10  	bltu	a4, a2, 0x1b230 <_realloc_r+0x358>
   1b12e: 13 07 04 01  	addi	a4, s0, 0x10
   1b132: 93 07 05 01  	addi	a5, a0, 0x10
   1b136: bd bd        	c.j	0x1afb4 <_realloc_r+0xdc>
   1b138: 83 37 85 ff  	ld	a5, -0x8(a0)
   1b13c: 02 6c        	c.ldsp	s8, 0x0(sp)
   1b13e: f1 9b        	c.andi	a5, -0x4
   1b140: 3e 9a        	c.add	s4, a5
   1b142: 7d b5        	c.j	0x1aff0 <_realloc_r+0x118>
   1b144: 83 b7 8b 01  	ld	a5, 0x18(s7)
   1b148: 03 b7 0b 01  	ld	a4, 0x10(s7)
   1b14c: 13 06 8a ff  	addi	a2, s4, -0x8
   1b150: 93 06 80 04  	addi	a3, zero, 0x48
   1b154: 1c ef        	c.sd	a5, 0x18(a4)
   1b156: 98 eb        	c.sd	a4, 0x10(a5)
   1b158: 13 89 0b 01  	addi	s2, s7, 0x10
   1b15c: 63 e5 c6 0c  	bltu	a3, a2, 0x1b226 <_realloc_r+0x34e>
   1b160: 13 07 70 02  	addi	a4, zero, 0x27
   1b164: ca 87        	c.mv	a5, s2
   1b166: 63 78 c7 02  	bgeu	a4, a2, 0x1b196 <_realloc_r+0x2be>
   1b16a: 18 60        	c.ld	a4, 0x0(s0)
   1b16c: 93 07 70 03  	addi	a5, zero, 0x37
   1b170: 23 b8 eb 00  	sd	a4, 0x10(s7)
   1b174: 18 64        	c.ld	a4, 0x8(s0)
   1b176: 23 bc eb 00  	sd	a4, 0x18(s7)
   1b17a: 63 fb c7 0e  	bgeu	a5, a2, 0x1b270 <_realloc_r+0x398>
   1b17e: 1c 68        	c.ld	a5, 0x10(s0)
   1b180: 23 b0 fb 02  	sd	a5, 0x20(s7)
   1b184: 1c 6c        	c.ld	a5, 0x18(s0)
   1b186: 23 b4 fb 02  	sd	a5, 0x28(s7)
   1b18a: 63 02 d6 08  	beq	a2, a3, 0x1b20e <_realloc_r+0x336>
   1b18e: 13 04 04 02  	addi	s0, s0, 0x20
   1b192: 93 87 0b 03  	addi	a5, s7, 0x30
   1b196: 18 60        	c.ld	a4, 0x0(s0)
   1b198: 98 e3        	c.sd	a4, 0x0(a5)
   1b19a: 18 64        	c.ld	a4, 0x8(s0)
   1b19c: 98 e7        	c.sd	a4, 0x8(a5)
   1b19e: 18 68        	c.ld	a4, 0x10(s0)
   1b1a0: 98 eb        	c.sd	a4, 0x10(a5)
   1b1a2: 5a 8a        	c.mv	s4, s6
   1b1a4: de 8a        	c.mv	s5, s7
   1b1a6: 42 6b        	c.ldsp	s6, 0x10(sp)
   1b1a8: a2 6b        	c.ldsp	s7, 0x8(sp)
   1b1aa: 02 6c        	c.ldsp	s8, 0x0(sp)
   1b1ac: 4a 84        	c.mv	s0, s2
   1b1ae: 89 b5        	c.j	0x1aff0 <_realloc_r+0x118>
   1b1b0: a2 85        	c.mv	a1, s0
   1b1b2: ef d0 2f fe  	jal	ra, 0x18994 <memmove>
   1b1b6: 29 b5        	c.j	0x1afc0 <_realloc_r+0xe8>
   1b1b8: 9c 6e        	c.ld	a5, 0x18(a3)
   1b1ba: 98 6a        	c.ld	a4, 0x10(a3)
   1b1bc: 13 06 8a ff  	addi	a2, s4, -0x8
   1b1c0: 93 06 80 04  	addi	a3, zero, 0x48
   1b1c4: 1c ef        	c.sd	a5, 0x18(a4)
   1b1c6: 98 eb        	c.sd	a4, 0x10(a5)
   1b1c8: 03 b7 0b 01  	ld	a4, 0x10(s7)
   1b1cc: 83 b7 8b 01  	ld	a5, 0x18(s7)
   1b1d0: 13 89 0b 01  	addi	s2, s7, 0x10
   1b1d4: 1c ef        	c.sd	a5, 0x18(a4)
   1b1d6: 98 eb        	c.sd	a4, 0x10(a5)
   1b1d8: 63 e7 c6 04  	bltu	a3, a2, 0x1b226 <_realloc_r+0x34e>
   1b1dc: 13 07 70 02  	addi	a4, zero, 0x27
   1b1e0: ca 87        	c.mv	a5, s2
   1b1e2: e3 7a c7 fa  	bgeu	a4, a2, 0x1b196 <_realloc_r+0x2be>
   1b1e6: 18 60        	c.ld	a4, 0x0(s0)
   1b1e8: 93 07 70 03  	addi	a5, zero, 0x37
   1b1ec: 23 b8 eb 00  	sd	a4, 0x10(s7)
   1b1f0: 18 64        	c.ld	a4, 0x8(s0)
   1b1f2: 23 bc eb 00  	sd	a4, 0x18(s7)
   1b1f6: 63 fd c7 06  	bgeu	a5, a2, 0x1b270 <_realloc_r+0x398>
   1b1fa: 18 68        	c.ld	a4, 0x10(s0)
   1b1fc: 93 07 80 04  	addi	a5, zero, 0x48
   1b200: 23 b0 eb 02  	sd	a4, 0x20(s7)
   1b204: 18 6c        	c.ld	a4, 0x18(s0)
   1b206: 23 b4 eb 02  	sd	a4, 0x28(s7)
   1b20a: e3 12 f6 f8  	bne	a2, a5, 0x1b18e <_realloc_r+0x2b6>
   1b20e: 18 70        	c.ld	a4, 0x20(s0)
   1b210: 93 87 0b 04  	addi	a5, s7, 0x40
   1b214: 13 04 04 03  	addi	s0, s0, 0x30
   1b218: 23 b8 eb 02  	sd	a4, 0x30(s7)
   1b21c: 03 37 84 ff  	ld	a4, -0x8(s0)
   1b220: 23 bc eb 02  	sd	a4, 0x38(s7)
   1b224: 8d bf        	c.j	0x1b196 <_realloc_r+0x2be>
   1b226: a2 85        	c.mv	a1, s0
   1b228: 4a 85        	c.mv	a0, s2
   1b22a: ef d0 af f6  	jal	ra, 0x18994 <memmove>
   1b22e: 95 bf        	c.j	0x1b1a2 <_realloc_r+0x2ca>
   1b230: 18 68        	c.ld	a4, 0x10(s0)
   1b232: 18 e9        	c.sd	a4, 0x10(a0)
   1b234: 18 6c        	c.ld	a4, 0x18(s0)
   1b236: 18 ed        	c.sd	a4, 0x18(a0)
   1b238: 63 06 f6 04  	beq	a2, a5, 0x1b284 <_realloc_r+0x3ac>
   1b23c: 13 07 04 02  	addi	a4, s0, 0x20
   1b240: 93 07 05 02  	addi	a5, a0, 0x20
   1b244: 85 bb        	c.j	0x1afb4 <_realloc_r+0xdc>
   1b246: a6 9a        	c.add	s5, s1
   1b248: b3 87 96 40  	sub	a5, a3, s1
   1b24c: 23 38 5c 01  	sd	s5, 0x10(s8)
   1b250: 93 e7 17 00  	ori	a5, a5, 0x1
   1b254: 23 b4 fa 00  	sd	a5, 0x8(s5)
   1b258: 83 37 84 ff  	ld	a5, -0x8(s0)
   1b25c: 4e 85        	c.mv	a0, s3
   1b25e: 22 89        	c.mv	s2, s0
   1b260: 85 8b        	c.andi	a5, 0x1
   1b262: c5 8f        	c.or	a5, s1
   1b264: 23 3c f4 fe  	sd	a5, -0x8(s0)
   1b268: ef a0 6f aa  	jal	ra, 0x1550e <__malloc_unlock>
   1b26c: 02 6c        	c.ldsp	s8, 0x0(sp)
   1b26e: 7d b3        	c.j	0x1b01c <_realloc_r+0x144>
   1b270: 41 04        	c.addi	s0, 0x10
   1b272: 93 87 0b 02  	addi	a5, s7, 0x20
   1b276: 05 b7        	c.j	0x1b196 <_realloc_r+0x2be>
   1b278: 4e 85        	c.mv	a0, s3
   1b27a: ef a0 4f a9  	jal	ra, 0x1550e <__malloc_unlock>
   1b27e: 01 49        	c.li	s2, 0x0
   1b280: 02 6c        	c.ldsp	s8, 0x0(sp)
   1b282: 69 bb        	c.j	0x1b01c <_realloc_r+0x144>
   1b284: 14 70        	c.ld	a3, 0x20(s0)
   1b286: 13 07 04 03  	addi	a4, s0, 0x30
   1b28a: 93 07 05 03  	addi	a5, a0, 0x30
   1b28e: 14 f1        	c.sd	a3, 0x20(a0)
   1b290: 14 74        	c.ld	a3, 0x28(s0)
   1b292: 14 f5        	c.sd	a3, 0x28(a0)
   1b294: 05 b3        	c.j	0x1afb4 <_realloc_r+0xdc>
   1b296: a2 85        	c.mv	a1, s0
   1b298: 4a 85        	c.mv	a0, s2
   1b29a: ef d0 af ef  	jal	ra, 0x18994 <memmove>
   1b29e: 91 bd        	c.j	0x1b0f2 <_realloc_r+0x21a>
   1b2a0: 1c 68        	c.ld	a5, 0x10(s0)
   1b2a2: 23 b0 fb 02  	sd	a5, 0x20(s7)
   1b2a6: 1c 6c        	c.ld	a5, 0x18(s0)
   1b2a8: 23 b4 fb 02  	sd	a5, 0x28(s7)
   1b2ac: 63 07 d6 00  	beq	a2, a3, 0x1b2ba <_realloc_r+0x3e2>
   1b2b0: 13 04 04 02  	addi	s0, s0, 0x20
   1b2b4: 93 87 0b 03  	addi	a5, s7, 0x30
   1b2b8: 3d b5        	c.j	0x1b0e6 <_realloc_r+0x20e>
   1b2ba: 18 70        	c.ld	a4, 0x20(s0)
   1b2bc: 93 87 0b 04  	addi	a5, s7, 0x40
   1b2c0: 13 04 04 03  	addi	s0, s0, 0x30
   1b2c4: 23 b8 eb 02  	sd	a4, 0x30(s7)
   1b2c8: 03 37 84 ff  	ld	a4, -0x8(s0)
   1b2cc: 23 bc eb 02  	sd	a4, 0x38(s7)
   1b2d0: 19 bd        	c.j	0x1b0e6 <_realloc_r+0x20e>

000000000001b2d2 <_wctomb_r>:
   1b2d2: 83 b7 81 0b  	ld	a5, 0xb8(gp)
   1b2d6: 82 87        	c.jr	a5

000000000001b2d8 <__ascii_wctomb>:
   1b2d8: 9b 07 06 00  	addiw	a5, a2, 0x0
   1b2dc: 91 cd        	c.beqz	a1, 0x1b2f8 <__ascii_wctomb+0x20>
   1b2de: 13 07 f0 0f  	addi	a4, zero, 0xff
   1b2e2: 63 66 f7 00  	bltu	a4, a5, 0x1b2ee <__ascii_wctomb+0x16>
   1b2e6: 23 80 c5 00  	sb	a2, 0x0(a1)
   1b2ea: 05 45        	c.li	a0, 0x1
   1b2ec: 82 80        	c.jr	ra
   1b2ee: 93 07 a0 08  	addi	a5, zero, 0x8a
   1b2f2: 1c c1        	c.sw	a5, 0x0(a0)
   1b2f4: 7d 55        	c.li	a0, -0x1
   1b2f6: 82 80        	c.jr	ra
   1b2f8: 01 45        	c.li	a0, 0x0
   1b2fa: 82 80        	c.jr	ra

000000000001b2fc <_wcrtomb_r>:
   1b2fc: 79 71        	c.addi16sp	sp, -0x30
   1b2fe: 22 f0        	c.sdsp	s0, 0x20(sp)
   1b300: 26 ec        	c.sdsp	s1, 0x18(sp)
   1b302: 06 f4        	c.sdsp	ra, 0x28(sp)
   1b304: 83 b7 81 0b  	ld	a5, 0xb8(gp)
   1b308: 2a 84        	c.mv	s0, a0
   1b30a: b6 84        	c.mv	s1, a3
   1b30c: 91 c9        	c.beqz	a1, 0x1b320 <_wcrtomb_r+0x24>
   1b30e: 82 97        	c.jalr	a5
   1b310: fd 57        	c.li	a5, -0x1
   1b312: 63 0d f5 00  	beq	a0, a5, 0x1b32c <_wcrtomb_r+0x30>
   1b316: a2 70        	c.ldsp	ra, 0x28(sp)
   1b318: 02 74        	c.ldsp	s0, 0x20(sp)
   1b31a: e2 64        	c.ldsp	s1, 0x18(sp)
   1b31c: 45 61        	c.addi16sp	sp, 0x30
   1b31e: 82 80        	c.jr	ra
   1b320: 01 46        	c.li	a2, 0x0
   1b322: 8a 85        	c.mv	a1, sp
   1b324: 82 97        	c.jalr	a5
   1b326: fd 57        	c.li	a5, -0x1
   1b328: e3 17 f5 fe  	bne	a0, a5, 0x1b316 <_wcrtomb_r+0x1a>
   1b32c: 23 a0 04 00  	sw	zero, 0x0(s1)
   1b330: 93 07 a0 08  	addi	a5, zero, 0x8a
   1b334: a2 70        	c.ldsp	ra, 0x28(sp)
   1b336: 1c c0        	c.sw	a5, 0x0(s0)
   1b338: 02 74        	c.ldsp	s0, 0x20(sp)
   1b33a: e2 64        	c.ldsp	s1, 0x18(sp)
   1b33c: 45 61        	c.addi16sp	sp, 0x30
   1b33e: 82 80        	c.jr	ra

000000000001b340 <wcrtomb>:
   1b340: 79 71        	c.addi16sp	sp, -0x30
   1b342: 22 f0        	c.sdsp	s0, 0x20(sp)
   1b344: 26 ec        	c.sdsp	s1, 0x18(sp)
   1b346: 06 f4        	c.sdsp	ra, 0x28(sp)
   1b348: 83 b4 01 20  	ld	s1, 0x200(gp)
   1b34c: 83 b7 81 0b  	ld	a5, 0xb8(gp)
   1b350: 32 84        	c.mv	s0, a2
   1b352: 11 cd        	c.beqz	a0, 0x1b36e <wcrtomb+0x2e>
   1b354: 2e 86        	c.mv	a2, a1
   1b356: a2 86        	c.mv	a3, s0
   1b358: aa 85        	c.mv	a1, a0
   1b35a: 26 85        	c.mv	a0, s1
   1b35c: 82 97        	c.jalr	a5
   1b35e: fd 57        	c.li	a5, -0x1
   1b360: 63 0f f5 00  	beq	a0, a5, 0x1b37e <wcrtomb+0x3e>
   1b364: a2 70        	c.ldsp	ra, 0x28(sp)
   1b366: 02 74        	c.ldsp	s0, 0x20(sp)
   1b368: e2 64        	c.ldsp	s1, 0x18(sp)
   1b36a: 45 61        	c.addi16sp	sp, 0x30
   1b36c: 82 80        	c.jr	ra
   1b36e: b2 86        	c.mv	a3, a2
   1b370: 8a 85        	c.mv	a1, sp
   1b372: 01 46        	c.li	a2, 0x0
   1b374: 26 85        	c.mv	a0, s1
   1b376: 82 97        	c.jalr	a5
   1b378: fd 57        	c.li	a5, -0x1
   1b37a: e3 15 f5 fe  	bne	a0, a5, 0x1b364 <wcrtomb+0x24>
   1b37e: 23 20 04 00  	sw	zero, 0x0(s0)
   1b382: a2 70        	c.ldsp	ra, 0x28(sp)
   1b384: 02 74        	c.ldsp	s0, 0x20(sp)
   1b386: 93 07 a0 08  	addi	a5, zero, 0x8a
   1b38a: 9c c0        	c.sw	a5, 0x0(s1)
   1b38c: e2 64        	c.ldsp	s1, 0x18(sp)
   1b38e: 45 61        	c.addi16sp	sp, 0x30
   1b390: 82 80        	c.jr	ra

000000000001b392 <__swbuf_r>:
   1b392: 79 71        	c.addi16sp	sp, -0x30
   1b394: 22 f0        	c.sdsp	s0, 0x20(sp)
   1b396: 26 ec        	c.sdsp	s1, 0x18(sp)
   1b398: 4a e8        	c.sdsp	s2, 0x10(sp)
   1b39a: 06 f4        	c.sdsp	ra, 0x28(sp)
   1b39c: 2a 89        	c.mv	s2, a0
   1b39e: ae 84        	c.mv	s1, a1
   1b3a0: 32 84        	c.mv	s0, a2
   1b3a2: 19 c1        	c.beqz	a0, 0x1b3a8 <__swbuf_r+0x16>
   1b3a4: 3c 65        	c.ld	a5, 0x48(a0)
   1b3a6: e5 c7        	c.beqz	a5, 0x1b48e <__swbuf_r+0xfc>
   1b3a8: 1c 54        	c.lw	a5, 0x28(s0)
   1b3aa: 03 17 04 01  	lh	a4, 0x10(s0)
   1b3ae: 5c c4        	c.sw	a5, 0xc(s0)
   1b3b0: 93 77 87 00  	andi	a5, a4, 0x8
   1b3b4: a9 cb        	c.beqz	a5, 0x1b406 <__swbuf_r+0x74>
   1b3b6: 1c 6c        	c.ld	a5, 0x18(s0)
   1b3b8: b9 c7        	c.beqz	a5, 0x1b406 <__swbuf_r+0x74>
   1b3ba: 4e e4        	c.sdsp	s3, 0x8(sp)
   1b3bc: 93 16 27 03  	slli	a3, a4, 0x32
   1b3c0: 93 f9 f4 0f  	andi	s3, s1, 0xff
   1b3c4: ce 84        	c.mv	s1, s3
   1b3c6: 63 d0 06 06  	bge	a3, zero, 0x1b426 <__swbuf_r+0x94>
   1b3ca: 18 60        	c.ld	a4, 0x0(s0)
   1b3cc: 14 50        	c.lw	a3, 0x20(s0)
   1b3ce: bb 07 f7 40  	subw	a5, a4, a5
   1b3d2: 63 db d7 06  	bge	a5, a3, 0x1b448 <__swbuf_r+0xb6>
   1b3d6: 54 44        	c.lw	a3, 0xc(s0)
   1b3d8: 13 06 17 00  	addi	a2, a4, 0x1
   1b3dc: 10 e0        	c.sd	a2, 0x0(s0)
   1b3de: fd 36        	c.addiw	a3, -0x1
   1b3e0: 54 c4        	c.sw	a3, 0xc(s0)
   1b3e2: 23 00 37 01  	sb	s3, 0x0(a4)
   1b3e6: 18 50        	c.lw	a4, 0x20(s0)
   1b3e8: 85 27        	c.addiw	a5, 0x1
   1b3ea: 63 01 f7 08  	beq	a4, a5, 0x1b46c <__swbuf_r+0xda>
   1b3ee: 83 57 04 01  	lhu	a5, 0x10(s0)
   1b3f2: 85 8b        	c.andi	a5, 0x1
   1b3f4: c1 e7        	c.bnez	a5, 0x1b47c <__swbuf_r+0xea>
   1b3f6: a2 69        	c.ldsp	s3, 0x8(sp)
   1b3f8: a2 70        	c.ldsp	ra, 0x28(sp)
   1b3fa: 02 74        	c.ldsp	s0, 0x20(sp)
   1b3fc: 42 69        	c.ldsp	s2, 0x10(sp)
   1b3fe: 26 85        	c.mv	a0, s1
   1b400: e2 64        	c.ldsp	s1, 0x18(sp)
   1b402: 45 61        	c.addi16sp	sp, 0x30
   1b404: 82 80        	c.jr	ra
   1b406: a2 85        	c.mv	a1, s0
   1b408: 4a 85        	c.mv	a0, s2
   1b40a: ef d0 0f 8f  	jal	ra, 0x184fa <__swsetup_r>
   1b40e: 2d e5        	c.bnez	a0, 0x1b478 <__swbuf_r+0xe6>
   1b410: 03 17 04 01  	lh	a4, 0x10(s0)
   1b414: 4e e4        	c.sdsp	s3, 0x8(sp)
   1b416: 93 f9 f4 0f  	andi	s3, s1, 0xff
   1b41a: 93 16 27 03  	slli	a3, a4, 0x32
   1b41e: 1c 6c        	c.ld	a5, 0x18(s0)
   1b420: ce 84        	c.mv	s1, s3
   1b422: e3 c4 06 fa  	blt	a3, zero, 0x1b3ca <__swbuf_r+0x38>
   1b426: 83 26 c4 0a  	lw	a3, 0xac(s0)
   1b42a: 79 76        	c.lui	a2, 0xffffe
   1b42c: 89 65        	c.lui	a1, 0x2
   1b42e: 4d 8f        	c.or	a4, a1
   1b430: 7d 16        	c.addi	a2, -0x1
   1b432: f1 8e        	c.and	a3, a2
   1b434: 23 18 e4 00  	sh	a4, 0x10(s0)
   1b438: 18 60        	c.ld	a4, 0x0(s0)
   1b43a: 23 26 d4 0a  	sw	a3, 0xac(s0)
   1b43e: 14 50        	c.lw	a3, 0x20(s0)
   1b440: bb 07 f7 40  	subw	a5, a4, a5
   1b444: e3 c9 d7 f8  	blt	a5, a3, 0x1b3d6 <__swbuf_r+0x44>
   1b448: a2 85        	c.mv	a1, s0
   1b44a: 4a 85        	c.mv	a0, s2
   1b44c: ef 80 0f b9  	jal	ra, 0x137dc <_fflush_r>
   1b450: 1d e1        	c.bnez	a0, 0x1b476 <__swbuf_r+0xe4>
   1b452: 18 60        	c.ld	a4, 0x0(s0)
   1b454: 54 44        	c.lw	a3, 0xc(s0)
   1b456: 85 47        	c.li	a5, 0x1
   1b458: 13 06 17 00  	addi	a2, a4, 0x1
   1b45c: fd 36        	c.addiw	a3, -0x1
   1b45e: 10 e0        	c.sd	a2, 0x0(s0)
   1b460: 54 c4        	c.sw	a3, 0xc(s0)
   1b462: 23 00 37 01  	sb	s3, 0x0(a4)
   1b466: 18 50        	c.lw	a4, 0x20(s0)
   1b468: e3 13 f7 f8  	bne	a4, a5, 0x1b3ee <__swbuf_r+0x5c>
   1b46c: a2 85        	c.mv	a1, s0
   1b46e: 4a 85        	c.mv	a0, s2
   1b470: ef 80 cf b6  	jal	ra, 0x137dc <_fflush_r>
   1b474: 49 d1        	c.beqz	a0, 0x1b3f6 <__swbuf_r+0x64>
   1b476: a2 69        	c.ldsp	s3, 0x8(sp)
   1b478: fd 54        	c.li	s1, -0x1
   1b47a: bd bf        	c.j	0x1b3f8 <__swbuf_r+0x66>
   1b47c: a9 47        	c.li	a5, 0xa
   1b47e: e3 9c f4 f6  	bne	s1, a5, 0x1b3f6 <__swbuf_r+0x64>
   1b482: a2 85        	c.mv	a1, s0
   1b484: 4a 85        	c.mv	a0, s2
   1b486: ef 80 6f b5  	jal	ra, 0x137dc <_fflush_r>
   1b48a: 35 d5        	c.beqz	a0, 0x1b3f6 <__swbuf_r+0x64>
   1b48c: ed b7        	c.j	0x1b476 <__swbuf_r+0xe4>
   1b48e: ef 80 0f e5  	jal	ra, 0x13ade <__sinit>
   1b492: 19 bf        	c.j	0x1b3a8 <__swbuf_r+0x16>

000000000001b494 <__swbuf>:
   1b494: aa 87        	c.mv	a5, a0
   1b496: 03 b5 01 20  	ld	a0, 0x200(gp)
   1b49a: 2e 86        	c.mv	a2, a1
   1b49c: be 85        	c.mv	a1, a5
   1b49e: 6f f0 5f ef  	jal	zero, 0x1b392 <__swbuf_r>

000000000001b4a2 <__assert_func>:
   1b4a2: 03 b7 01 20  	ld	a4, 0x200(gp)
   1b4a6: 41 11        	c.addi	sp, -0x10
   1b4a8: b6 87        	c.mv	a5, a3
   1b4aa: 32 88        	c.mv	a6, a2
   1b4ac: 06 e4        	c.sdsp	ra, 0x8(sp)
   1b4ae: 83 38 87 01  	ld	a7, 0x18(a4)
   1b4b2: aa 86        	c.mv	a3, a0
   1b4b4: 2e 87        	c.mv	a4, a1
   1b4b6: 3e 86        	c.mv	a2, a5
   1b4b8: 63 0f 08 00  	beq	a6, zero, 0x1b4d6 <__assert_func+0x34>
   1b4bc: b7 77 02 00  	lui	a5, 0x27
   1b4c0: 93 87 07 49  	addi	a5, a5, 0x490
   1b4c4: b7 75 02 00  	lui	a1, 0x27
   1b4c8: 93 85 05 4a  	addi	a1, a1, 0x4a0
   1b4cc: 46 85        	c.mv	a0, a7
   1b4ce: ef 00 e0 0e  	jal	ra, 0x1b5bc <fiprintf>
   1b4d2: ef 00 c0 11  	jal	ra, 0x1b5ee <abort>
   1b4d6: 37 78 02 00  	lui	a6, 0x27
   1b4da: 93 07 08 3d  	addi	a5, a6, 0x3d0
   1b4de: 13 08 08 3d  	addi	a6, a6, 0x3d0
   1b4e2: cd b7        	c.j	0x1b4c4 <__assert_func+0x22>

000000000001b4e4 <__assert>:
   1b4e4: 41 11        	c.addi	sp, -0x10
   1b4e6: b2 86        	c.mv	a3, a2
   1b4e8: 01 46        	c.li	a2, 0x0
   1b4ea: 06 e4        	c.sdsp	ra, 0x8(sp)
   1b4ec: ef f0 7f fb  	jal	ra, 0x1b4a2 <__assert_func>

000000000001b4f0 <_calloc_r>:
   1b4f0: b3 b7 c5 02  	mulhu	a5, a1, a2
   1b4f4: 41 11        	c.addi	sp, -0x10
   1b4f6: 06 e4        	c.sdsp	ra, 0x8(sp)
   1b4f8: 22 e0        	c.sdsp	s0, 0x0(sp)
   1b4fa: b3 85 c5 02  	mul	a1, a1, a2
   1b4fe: b5 ef        	c.bnez	a5, 0x1b57a <_calloc_r+0x8a>
   1b500: ef 90 5f a0  	jal	ra, 0x14f04 <_malloc_r>
   1b504: 2a 84        	c.mv	s0, a0
   1b506: 35 cd        	c.beqz	a0, 0x1b582 <_calloc_r+0x92>
   1b508: 03 36 85 ff  	ld	a2, -0x8(a0)
   1b50c: 13 07 80 04  	addi	a4, zero, 0x48
   1b510: 71 9a        	c.andi	a2, -0x4
   1b512: 61 16        	c.addi	a2, -0x8
   1b514: 63 62 c7 04  	bltu	a4, a2, 0x1b558 <_calloc_r+0x68>
   1b518: 93 06 70 02  	addi	a3, zero, 0x27
   1b51c: aa 87        	c.mv	a5, a0
   1b51e: 63 f2 c6 02  	bgeu	a3, a2, 0x1b542 <_calloc_r+0x52>
   1b522: 23 30 05 00  	sd	zero, 0x0(a0)
   1b526: 23 34 05 00  	sd	zero, 0x8(a0)
   1b52a: 93 07 70 03  	addi	a5, zero, 0x37
   1b52e: 63 fd c7 02  	bgeu	a5, a2, 0x1b568 <_calloc_r+0x78>
   1b532: 23 38 05 00  	sd	zero, 0x10(a0)
   1b536: 23 3c 05 00  	sd	zero, 0x18(a0)
   1b53a: 93 07 05 02  	addi	a5, a0, 0x20
   1b53e: 63 08 e6 04  	beq	a2, a4, 0x1b58e <_calloc_r+0x9e>
   1b542: 23 b0 07 00  	sd	zero, 0x0(a5)
   1b546: 23 b4 07 00  	sd	zero, 0x8(a5)
   1b54a: 23 b8 07 00  	sd	zero, 0x10(a5)
   1b54e: a2 60        	c.ldsp	ra, 0x8(sp)
   1b550: 22 85        	c.mv	a0, s0
   1b552: 02 64        	c.ldsp	s0, 0x0(sp)
   1b554: 41 01        	c.addi	sp, 0x10
   1b556: 82 80        	c.jr	ra
   1b558: 81 45        	c.li	a1, 0x0
   1b55a: ef 90 0f b2  	jal	ra, 0x1487a <memset>
   1b55e: a2 60        	c.ldsp	ra, 0x8(sp)
   1b560: 22 85        	c.mv	a0, s0
   1b562: 02 64        	c.ldsp	s0, 0x0(sp)
   1b564: 41 01        	c.addi	sp, 0x10
   1b566: 82 80        	c.jr	ra
   1b568: 93 07 05 01  	addi	a5, a0, 0x10
   1b56c: 23 b0 07 00  	sd	zero, 0x0(a5)
   1b570: 23 b4 07 00  	sd	zero, 0x8(a5)
   1b574: 23 b8 07 00  	sd	zero, 0x10(a5)
   1b578: d9 bf        	c.j	0x1b54e <_calloc_r+0x5e>
   1b57a: ef 00 e0 06  	jal	ra, 0x1b5e8 <__errno>
   1b57e: b1 47        	c.li	a5, 0xc
   1b580: 1c c1        	c.sw	a5, 0x0(a0)
   1b582: 01 44        	c.li	s0, 0x0
   1b584: a2 60        	c.ldsp	ra, 0x8(sp)
   1b586: 22 85        	c.mv	a0, s0
   1b588: 02 64        	c.ldsp	s0, 0x0(sp)
   1b58a: 41 01        	c.addi	sp, 0x10
   1b58c: 82 80        	c.jr	ra
   1b58e: 23 30 05 02  	sd	zero, 0x20(a0)
   1b592: 93 07 05 03  	addi	a5, a0, 0x30
   1b596: 23 34 05 02  	sd	zero, 0x28(a0)
   1b59a: 65 b7        	c.j	0x1b542 <_calloc_r+0x52>

000000000001b59c <_fiprintf_r>:
   1b59c: 5d 71        	c.addi16sp	sp, -0x50
   1b59e: 13 03 81 02  	addi	t1, sp, 0x28
   1b5a2: 36 f4        	c.sdsp	a3, 0x28(sp)
   1b5a4: 9a 86        	c.mv	a3, t1
   1b5a6: 06 ec        	c.sdsp	ra, 0x18(sp)
   1b5a8: 3a f8        	c.sdsp	a4, 0x30(sp)
   1b5aa: 3e fc        	c.sdsp	a5, 0x38(sp)
   1b5ac: c2 e0        	c.sdsp	a6, 0x40(sp)
   1b5ae: c6 e4        	c.sdsp	a7, 0x48(sp)
   1b5b0: 1a e4        	c.sdsp	t1, 0x8(sp)
   1b5b2: ef b0 3f c4  	jal	ra, 0x171f4 <_vfiprintf_r>
   1b5b6: e2 60        	c.ldsp	ra, 0x18(sp)
   1b5b8: 61 61        	c.addi16sp	sp, 0x50
   1b5ba: 82 80        	c.jr	ra

000000000001b5bc <fiprintf>:
   1b5bc: 2a 8e        	c.mv	t3, a0
   1b5be: 5d 71        	c.addi16sp	sp, -0x50
   1b5c0: 03 b5 01 20  	ld	a0, 0x200(gp)
   1b5c4: 13 03 01 02  	addi	t1, sp, 0x20
   1b5c8: 32 f0        	c.sdsp	a2, 0x20(sp)
   1b5ca: 36 f4        	c.sdsp	a3, 0x28(sp)
   1b5cc: 2e 86        	c.mv	a2, a1
   1b5ce: 9a 86        	c.mv	a3, t1
   1b5d0: f2 85        	c.mv	a1, t3
   1b5d2: 06 ec        	c.sdsp	ra, 0x18(sp)
   1b5d4: 3a f8        	c.sdsp	a4, 0x30(sp)
   1b5d6: 3e fc        	c.sdsp	a5, 0x38(sp)
   1b5d8: c2 e0        	c.sdsp	a6, 0x40(sp)
   1b5da: c6 e4        	c.sdsp	a7, 0x48(sp)
   1b5dc: 1a e4        	c.sdsp	t1, 0x8(sp)
   1b5de: ef b0 7f c1  	jal	ra, 0x171f4 <_vfiprintf_r>
   1b5e2: e2 60        	c.ldsp	ra, 0x18(sp)
   1b5e4: 61 61        	c.addi16sp	sp, 0x50
   1b5e6: 82 80        	c.jr	ra

000000000001b5e8 <__errno>:
   1b5e8: 03 b5 01 20  	ld	a0, 0x200(gp)
   1b5ec: 82 80        	c.jr	ra

000000000001b5ee <abort>:
   1b5ee: 41 11        	c.addi	sp, -0x10
   1b5f0: 19 45        	c.li	a0, 0x6
   1b5f2: 06 e4        	c.sdsp	ra, 0x8(sp)
   1b5f4: ef 00 c0 19  	jal	ra, 0x1b790 <raise>
   1b5f8: 05 45        	c.li	a0, 0x1
   1b5fa: ef 00 00 3a  	jal	ra, 0x1b99a <_exit>

000000000001b5fe <_init_signal_r>:
   1b5fe: 83 37 05 15  	ld	a5, 0x150(a0)
   1b602: 99 c3        	c.beqz	a5, 0x1b608 <_init_signal_r+0xa>
   1b604: 01 45        	c.li	a0, 0x0
   1b606: 82 80        	c.jr	ra
   1b608: 41 11        	c.addi	sp, -0x10
   1b60a: 93 05 00 10  	addi	a1, zero, 0x100
   1b60e: 22 e0        	c.sdsp	s0, 0x0(sp)
   1b610: 06 e4        	c.sdsp	ra, 0x8(sp)
   1b612: 2a 84        	c.mv	s0, a0
   1b614: ef 90 1f 8f  	jal	ra, 0x14f04 <_malloc_r>
   1b618: 23 38 a4 14  	sd	a0, 0x150(s0)
   1b61c: 09 cd        	c.beqz	a0, 0x1b636 <_init_signal_r+0x38>
   1b61e: 93 07 05 10  	addi	a5, a0, 0x100
   1b622: 23 30 05 00  	sd	zero, 0x0(a0)
   1b626: 21 05        	c.addi	a0, 0x8
   1b628: e3 1d f5 fe  	bne	a0, a5, 0x1b622 <_init_signal_r+0x24>
   1b62c: 01 45        	c.li	a0, 0x0
   1b62e: a2 60        	c.ldsp	ra, 0x8(sp)
   1b630: 02 64        	c.ldsp	s0, 0x0(sp)
   1b632: 41 01        	c.addi	sp, 0x10
   1b634: 82 80        	c.jr	ra
   1b636: 7d 55        	c.li	a0, -0x1
   1b638: dd bf        	c.j	0x1b62e <_init_signal_r+0x30>

000000000001b63a <_signal_r>:
   1b63a: 79 71        	c.addi16sp	sp, -0x30
   1b63c: 26 ec        	c.sdsp	s1, 0x18(sp)
   1b63e: 06 f4        	c.sdsp	ra, 0x28(sp)
   1b640: fd 47        	c.li	a5, 0x1f
   1b642: aa 84        	c.mv	s1, a0
   1b644: 63 e0 b7 02  	bltu	a5, a1, 0x1b664 <_signal_r+0x2a>
   1b648: 83 37 05 15  	ld	a5, 0x150(a0)
   1b64c: 22 f0        	c.sdsp	s0, 0x20(sp)
   1b64e: 2e 84        	c.mv	s0, a1
   1b650: 91 cf        	c.beqz	a5, 0x1b66c <_signal_r+0x32>
   1b652: 0e 04        	c.slli	s0, 0x3
   1b654: a2 97        	c.add	a5, s0
   1b656: 02 74        	c.ldsp	s0, 0x20(sp)
   1b658: 88 63        	c.ld	a0, 0x0(a5)
   1b65a: 90 e3        	c.sd	a2, 0x0(a5)
   1b65c: a2 70        	c.ldsp	ra, 0x28(sp)
   1b65e: e2 64        	c.ldsp	s1, 0x18(sp)
   1b660: 45 61        	c.addi16sp	sp, 0x30
   1b662: 82 80        	c.jr	ra
   1b664: d9 47        	c.li	a5, 0x16
   1b666: 1c c1        	c.sw	a5, 0x0(a0)
   1b668: 7d 55        	c.li	a0, -0x1
   1b66a: cd bf        	c.j	0x1b65c <_signal_r+0x22>
   1b66c: 93 05 00 10  	addi	a1, zero, 0x100
   1b670: 32 e4        	c.sdsp	a2, 0x8(sp)
   1b672: ef 90 3f 89  	jal	ra, 0x14f04 <_malloc_r>
   1b676: 23 b8 a4 14  	sd	a0, 0x150(s1)
   1b67a: 22 66        	c.ldsp	a2, 0x8(sp)
   1b67c: aa 87        	c.mv	a5, a0
   1b67e: 2a 87        	c.mv	a4, a0
   1b680: 93 06 05 10  	addi	a3, a0, 0x100
   1b684: 19 c5        	c.beqz	a0, 0x1b692 <_signal_r+0x58>
   1b686: 23 30 07 00  	sd	zero, 0x0(a4)
   1b68a: 21 07        	c.addi	a4, 0x8
   1b68c: e3 1d d7 fe  	bne	a4, a3, 0x1b686 <_signal_r+0x4c>
   1b690: c9 b7        	c.j	0x1b652 <_signal_r+0x18>
   1b692: 02 74        	c.ldsp	s0, 0x20(sp)
   1b694: 7d 55        	c.li	a0, -0x1
   1b696: d9 b7        	c.j	0x1b65c <_signal_r+0x22>

000000000001b698 <_raise_r>:
   1b698: 01 11        	c.addi	sp, -0x20
   1b69a: 26 e4        	c.sdsp	s1, 0x8(sp)
   1b69c: 06 ec        	c.sdsp	ra, 0x18(sp)
   1b69e: fd 47        	c.li	a5, 0x1f
   1b6a0: aa 84        	c.mv	s1, a0
   1b6a2: 63 ef b7 04  	bltu	a5, a1, 0x1b700 <_raise_r+0x68>
   1b6a6: 83 37 05 15  	ld	a5, 0x150(a0)
   1b6aa: 22 e8        	c.sdsp	s0, 0x10(sp)
   1b6ac: 2e 84        	c.mv	s0, a1
   1b6ae: 95 c7        	c.beqz	a5, 0x1b6da <_raise_r+0x42>
   1b6b0: 13 97 35 00  	slli	a4, a1, 0x3
   1b6b4: ba 97        	c.add	a5, a4
   1b6b6: 98 63        	c.ld	a4, 0x0(a5)
   1b6b8: 0d c3        	c.beqz	a4, 0x1b6da <_raise_r+0x42>
   1b6ba: 85 46        	c.li	a3, 0x1
   1b6bc: 63 09 d7 00  	beq	a4, a3, 0x1b6ce <_raise_r+0x36>
   1b6c0: fd 56        	c.li	a3, -0x1
   1b6c2: 63 07 d7 02  	beq	a4, a3, 0x1b6f0 <_raise_r+0x58>
   1b6c6: 23 b0 07 00  	sd	zero, 0x0(a5)
   1b6ca: 2e 85        	c.mv	a0, a1
   1b6cc: 02 97        	c.jalr	a4
   1b6ce: 42 64        	c.ldsp	s0, 0x10(sp)
   1b6d0: 01 45        	c.li	a0, 0x0
   1b6d2: e2 60        	c.ldsp	ra, 0x18(sp)
   1b6d4: a2 64        	c.ldsp	s1, 0x8(sp)
   1b6d6: 05 61        	c.addi16sp	sp, 0x20
   1b6d8: 82 80        	c.jr	ra
   1b6da: 26 85        	c.mv	a0, s1
   1b6dc: ef 00 00 29  	jal	ra, 0x1b96c <_getpid_r>
   1b6e0: 22 86        	c.mv	a2, s0
   1b6e2: 42 64        	c.ldsp	s0, 0x10(sp)
   1b6e4: e2 60        	c.ldsp	ra, 0x18(sp)
   1b6e6: aa 85        	c.mv	a1, a0
   1b6e8: 26 85        	c.mv	a0, s1
   1b6ea: a2 64        	c.ldsp	s1, 0x8(sp)
   1b6ec: 05 61        	c.addi16sp	sp, 0x20
   1b6ee: 91 a4        	c.j	0x1b932 <_kill_r>
   1b6f0: 42 64        	c.ldsp	s0, 0x10(sp)
   1b6f2: e2 60        	c.ldsp	ra, 0x18(sp)
   1b6f4: d9 47        	c.li	a5, 0x16
   1b6f6: 1c c1        	c.sw	a5, 0x0(a0)
   1b6f8: a2 64        	c.ldsp	s1, 0x8(sp)
   1b6fa: 05 45        	c.li	a0, 0x1
   1b6fc: 05 61        	c.addi16sp	sp, 0x20
   1b6fe: 82 80        	c.jr	ra
   1b700: d9 47        	c.li	a5, 0x16
   1b702: 1c c1        	c.sw	a5, 0x0(a0)
   1b704: 7d 55        	c.li	a0, -0x1
   1b706: f1 b7        	c.j	0x1b6d2 <_raise_r+0x3a>

000000000001b708 <__sigtramp_r>:
   1b708: fd 47        	c.li	a5, 0x1f
   1b70a: 63 e1 b7 08  	bltu	a5, a1, 0x1b78c <__sigtramp_r+0x84>
   1b70e: 83 37 05 15  	ld	a5, 0x150(a0)
   1b712: 01 11        	c.addi	sp, -0x20
   1b714: 22 e8        	c.sdsp	s0, 0x10(sp)
   1b716: 26 e4        	c.sdsp	s1, 0x8(sp)
   1b718: 06 ec        	c.sdsp	ra, 0x18(sp)
   1b71a: 2e 84        	c.mv	s0, a1
   1b71c: aa 84        	c.mv	s1, a0
   1b71e: a1 c7        	c.beqz	a5, 0x1b766 <__sigtramp_r+0x5e>
   1b720: 13 17 34 00  	slli	a4, s0, 0x3
   1b724: ba 97        	c.add	a5, a4
   1b726: 98 63        	c.ld	a4, 0x0(a5)
   1b728: 0d c3        	c.beqz	a4, 0x1b74a <__sigtramp_r+0x42>
   1b72a: fd 56        	c.li	a3, -0x1
   1b72c: 63 0b d7 02  	beq	a4, a3, 0x1b762 <__sigtramp_r+0x5a>
   1b730: 85 46        	c.li	a3, 0x1
   1b732: 63 02 d7 02  	beq	a4, a3, 0x1b756 <__sigtramp_r+0x4e>
   1b736: 22 85        	c.mv	a0, s0
   1b738: 23 b0 07 00  	sd	zero, 0x0(a5)
   1b73c: 02 97        	c.jalr	a4
   1b73e: 01 45        	c.li	a0, 0x0
   1b740: e2 60        	c.ldsp	ra, 0x18(sp)
   1b742: 42 64        	c.ldsp	s0, 0x10(sp)
   1b744: a2 64        	c.ldsp	s1, 0x8(sp)
   1b746: 05 61        	c.addi16sp	sp, 0x20
   1b748: 82 80        	c.jr	ra
   1b74a: e2 60        	c.ldsp	ra, 0x18(sp)
   1b74c: 42 64        	c.ldsp	s0, 0x10(sp)
   1b74e: a2 64        	c.ldsp	s1, 0x8(sp)
   1b750: 05 45        	c.li	a0, 0x1
   1b752: 05 61        	c.addi16sp	sp, 0x20
   1b754: 82 80        	c.jr	ra
   1b756: e2 60        	c.ldsp	ra, 0x18(sp)
   1b758: 42 64        	c.ldsp	s0, 0x10(sp)
   1b75a: a2 64        	c.ldsp	s1, 0x8(sp)
   1b75c: 0d 45        	c.li	a0, 0x3
   1b75e: 05 61        	c.addi16sp	sp, 0x20
   1b760: 82 80        	c.jr	ra
   1b762: 09 45        	c.li	a0, 0x2
   1b764: f1 bf        	c.j	0x1b740 <__sigtramp_r+0x38>
   1b766: 93 05 00 10  	addi	a1, zero, 0x100
   1b76a: ef 90 af f9  	jal	ra, 0x14f04 <_malloc_r>
   1b76e: 23 b8 a4 14  	sd	a0, 0x150(s1)
   1b772: aa 87        	c.mv	a5, a0
   1b774: 11 c9        	c.beqz	a0, 0x1b788 <__sigtramp_r+0x80>
   1b776: 2a 87        	c.mv	a4, a0
   1b778: 93 06 05 10  	addi	a3, a0, 0x100
   1b77c: 23 30 07 00  	sd	zero, 0x0(a4)
   1b780: 21 07        	c.addi	a4, 0x8
   1b782: e3 1d d7 fe  	bne	a4, a3, 0x1b77c <__sigtramp_r+0x74>
   1b786: 69 bf        	c.j	0x1b720 <__sigtramp_r+0x18>
   1b788: 7d 55        	c.li	a0, -0x1
   1b78a: 5d bf        	c.j	0x1b740 <__sigtramp_r+0x38>
   1b78c: 7d 55        	c.li	a0, -0x1
   1b78e: 82 80        	c.jr	ra

000000000001b790 <raise>:
   1b790: 01 11        	c.addi	sp, -0x20
   1b792: 26 e4        	c.sdsp	s1, 0x8(sp)
   1b794: 06 ec        	c.sdsp	ra, 0x18(sp)
   1b796: fd 47        	c.li	a5, 0x1f
   1b798: 83 b4 01 20  	ld	s1, 0x200(gp)
   1b79c: 63 ee a7 04  	bltu	a5, a0, 0x1b7f8 <raise+0x68>
   1b7a0: 83 b7 04 15  	ld	a5, 0x150(s1)
   1b7a4: 22 e8        	c.sdsp	s0, 0x10(sp)
   1b7a6: 2a 84        	c.mv	s0, a0
   1b7a8: 8d c7        	c.beqz	a5, 0x1b7d2 <raise+0x42>
   1b7aa: 13 17 35 00  	slli	a4, a0, 0x3
   1b7ae: ba 97        	c.add	a5, a4
   1b7b0: 98 63        	c.ld	a4, 0x0(a5)
   1b7b2: 05 c3        	c.beqz	a4, 0x1b7d2 <raise+0x42>
   1b7b4: 85 46        	c.li	a3, 0x1
   1b7b6: 63 08 d7 00  	beq	a4, a3, 0x1b7c6 <raise+0x36>
   1b7ba: fd 56        	c.li	a3, -0x1
   1b7bc: 63 06 d7 02  	beq	a4, a3, 0x1b7e8 <raise+0x58>
   1b7c0: 23 b0 07 00  	sd	zero, 0x0(a5)
   1b7c4: 02 97        	c.jalr	a4
   1b7c6: 42 64        	c.ldsp	s0, 0x10(sp)
   1b7c8: 01 45        	c.li	a0, 0x0
   1b7ca: e2 60        	c.ldsp	ra, 0x18(sp)
   1b7cc: a2 64        	c.ldsp	s1, 0x8(sp)
   1b7ce: 05 61        	c.addi16sp	sp, 0x20
   1b7d0: 82 80        	c.jr	ra
   1b7d2: 26 85        	c.mv	a0, s1
   1b7d4: ef 00 80 19  	jal	ra, 0x1b96c <_getpid_r>
   1b7d8: 22 86        	c.mv	a2, s0
   1b7da: 42 64        	c.ldsp	s0, 0x10(sp)
   1b7dc: e2 60        	c.ldsp	ra, 0x18(sp)
   1b7de: aa 85        	c.mv	a1, a0
   1b7e0: 26 85        	c.mv	a0, s1
   1b7e2: a2 64        	c.ldsp	s1, 0x8(sp)
   1b7e4: 05 61        	c.addi16sp	sp, 0x20
   1b7e6: b1 a2        	c.j	0x1b932 <_kill_r>
   1b7e8: 42 64        	c.ldsp	s0, 0x10(sp)
   1b7ea: e2 60        	c.ldsp	ra, 0x18(sp)
   1b7ec: d9 47        	c.li	a5, 0x16
   1b7ee: 9c c0        	c.sw	a5, 0x0(s1)
   1b7f0: 05 45        	c.li	a0, 0x1
   1b7f2: a2 64        	c.ldsp	s1, 0x8(sp)
   1b7f4: 05 61        	c.addi16sp	sp, 0x20
   1b7f6: 82 80        	c.jr	ra
   1b7f8: d9 47        	c.li	a5, 0x16
   1b7fa: 9c c0        	c.sw	a5, 0x0(s1)
   1b7fc: 7d 55        	c.li	a0, -0x1
   1b7fe: f1 b7        	c.j	0x1b7ca <raise+0x3a>

000000000001b800 <signal>:
   1b800: 01 11        	c.addi	sp, -0x20
   1b802: 4a e0        	c.sdsp	s2, 0x0(sp)
   1b804: 06 ec        	c.sdsp	ra, 0x18(sp)
   1b806: fd 47        	c.li	a5, 0x1f
   1b808: 03 b9 01 20  	ld	s2, 0x200(gp)
   1b80c: 63 e4 a7 02  	bltu	a5, a0, 0x1b834 <signal+0x34>
   1b810: 22 e8        	c.sdsp	s0, 0x10(sp)
   1b812: 2a 84        	c.mv	s0, a0
   1b814: 03 35 09 15  	ld	a0, 0x150(s2)
   1b818: 26 e4        	c.sdsp	s1, 0x8(sp)
   1b81a: ae 84        	c.mv	s1, a1
   1b81c: 0d c1        	c.beqz	a0, 0x1b83e <signal+0x3e>
   1b81e: 0e 04        	c.slli	s0, 0x3
   1b820: b3 07 85 00  	add	a5, a0, s0
   1b824: 88 63        	c.ld	a0, 0x0(a5)
   1b826: 42 64        	c.ldsp	s0, 0x10(sp)
   1b828: 84 e3        	c.sd	s1, 0x0(a5)
   1b82a: a2 64        	c.ldsp	s1, 0x8(sp)
   1b82c: e2 60        	c.ldsp	ra, 0x18(sp)
   1b82e: 02 69        	c.ldsp	s2, 0x0(sp)
   1b830: 05 61        	c.addi16sp	sp, 0x20
   1b832: 82 80        	c.jr	ra
   1b834: d9 47        	c.li	a5, 0x16
   1b836: 23 20 f9 00  	sw	a5, 0x0(s2)
   1b83a: 7d 55        	c.li	a0, -0x1
   1b83c: c5 bf        	c.j	0x1b82c <signal+0x2c>
   1b83e: 93 05 00 10  	addi	a1, zero, 0x100
   1b842: 4a 85        	c.mv	a0, s2
   1b844: ef 90 0f ec  	jal	ra, 0x14f04 <_malloc_r>
   1b848: 23 38 a9 14  	sd	a0, 0x150(s2)
   1b84c: aa 87        	c.mv	a5, a0
   1b84e: 13 07 05 10  	addi	a4, a0, 0x100
   1b852: 19 c5        	c.beqz	a0, 0x1b860 <signal+0x60>
   1b854: 23 b0 07 00  	sd	zero, 0x0(a5)
   1b858: a1 07        	c.addi	a5, 0x8
   1b85a: e3 1d f7 fe  	bne	a4, a5, 0x1b854 <signal+0x54>
   1b85e: c1 b7        	c.j	0x1b81e <signal+0x1e>
   1b860: 42 64        	c.ldsp	s0, 0x10(sp)
   1b862: a2 64        	c.ldsp	s1, 0x8(sp)
   1b864: 7d 55        	c.li	a0, -0x1
   1b866: d9 b7        	c.j	0x1b82c <signal+0x2c>

000000000001b868 <_init_signal>:
   1b868: 41 11        	c.addi	sp, -0x10
   1b86a: 22 e0        	c.sdsp	s0, 0x0(sp)
   1b86c: 03 b4 01 20  	ld	s0, 0x200(gp)
   1b870: 06 e4        	c.sdsp	ra, 0x8(sp)
   1b872: 83 37 04 15  	ld	a5, 0x150(s0)
   1b876: 91 c7        	c.beqz	a5, 0x1b882 <_init_signal+0x1a>
   1b878: 01 45        	c.li	a0, 0x0
   1b87a: a2 60        	c.ldsp	ra, 0x8(sp)
   1b87c: 02 64        	c.ldsp	s0, 0x0(sp)
   1b87e: 41 01        	c.addi	sp, 0x10
   1b880: 82 80        	c.jr	ra
   1b882: 93 05 00 10  	addi	a1, zero, 0x100
   1b886: 22 85        	c.mv	a0, s0
   1b888: ef 90 cf e7  	jal	ra, 0x14f04 <_malloc_r>
   1b88c: 23 38 a4 14  	sd	a0, 0x150(s0)
   1b890: 09 c9        	c.beqz	a0, 0x1b8a2 <_init_signal+0x3a>
   1b892: 93 07 05 10  	addi	a5, a0, 0x100
   1b896: 23 30 05 00  	sd	zero, 0x0(a0)
   1b89a: 21 05        	c.addi	a0, 0x8
   1b89c: e3 1d f5 fe  	bne	a0, a5, 0x1b896 <_init_signal+0x2e>
   1b8a0: e1 bf        	c.j	0x1b878 <_init_signal+0x10>
   1b8a2: 7d 55        	c.li	a0, -0x1
   1b8a4: d9 bf        	c.j	0x1b87a <_init_signal+0x12>

000000000001b8a6 <__sigtramp>:
   1b8a6: 01 11        	c.addi	sp, -0x20
   1b8a8: 26 e4        	c.sdsp	s1, 0x8(sp)
   1b8aa: 06 ec        	c.sdsp	ra, 0x18(sp)
   1b8ac: fd 47        	c.li	a5, 0x1f
   1b8ae: 83 b4 01 20  	ld	s1, 0x200(gp)
   1b8b2: 63 ee a7 06  	bltu	a5, a0, 0x1b92e <__sigtramp+0x88>
   1b8b6: 83 b7 04 15  	ld	a5, 0x150(s1)
   1b8ba: 22 e8        	c.sdsp	s0, 0x10(sp)
   1b8bc: 2a 84        	c.mv	s0, a0
   1b8be: a9 c7        	c.beqz	a5, 0x1b908 <__sigtramp+0x62>
   1b8c0: 13 17 34 00  	slli	a4, s0, 0x3
   1b8c4: ba 97        	c.add	a5, a4
   1b8c6: 98 63        	c.ld	a4, 0x0(a5)
   1b8c8: 0d c3        	c.beqz	a4, 0x1b8ea <__sigtramp+0x44>
   1b8ca: fd 56        	c.li	a3, -0x1
   1b8cc: 63 0b d7 02  	beq	a4, a3, 0x1b902 <__sigtramp+0x5c>
   1b8d0: 85 46        	c.li	a3, 0x1
   1b8d2: 63 02 d7 02  	beq	a4, a3, 0x1b8f6 <__sigtramp+0x50>
   1b8d6: 22 85        	c.mv	a0, s0
   1b8d8: 23 b0 07 00  	sd	zero, 0x0(a5)
   1b8dc: 02 97        	c.jalr	a4
   1b8de: 42 64        	c.ldsp	s0, 0x10(sp)
   1b8e0: 01 45        	c.li	a0, 0x0
   1b8e2: e2 60        	c.ldsp	ra, 0x18(sp)
   1b8e4: a2 64        	c.ldsp	s1, 0x8(sp)
   1b8e6: 05 61        	c.addi16sp	sp, 0x20
   1b8e8: 82 80        	c.jr	ra
   1b8ea: 42 64        	c.ldsp	s0, 0x10(sp)
   1b8ec: e2 60        	c.ldsp	ra, 0x18(sp)
   1b8ee: a2 64        	c.ldsp	s1, 0x8(sp)
   1b8f0: 05 45        	c.li	a0, 0x1
   1b8f2: 05 61        	c.addi16sp	sp, 0x20
   1b8f4: 82 80        	c.jr	ra
   1b8f6: 42 64        	c.ldsp	s0, 0x10(sp)
   1b8f8: e2 60        	c.ldsp	ra, 0x18(sp)
   1b8fa: a2 64        	c.ldsp	s1, 0x8(sp)
   1b8fc: 0d 45        	c.li	a0, 0x3
   1b8fe: 05 61        	c.addi16sp	sp, 0x20
   1b900: 82 80        	c.jr	ra
   1b902: 42 64        	c.ldsp	s0, 0x10(sp)
   1b904: 09 45        	c.li	a0, 0x2
   1b906: f1 bf        	c.j	0x1b8e2 <__sigtramp+0x3c>
   1b908: 93 05 00 10  	addi	a1, zero, 0x100
   1b90c: 26 85        	c.mv	a0, s1
   1b90e: ef 90 6f df  	jal	ra, 0x14f04 <_malloc_r>
   1b912: 23 b8 a4 14  	sd	a0, 0x150(s1)
   1b916: aa 87        	c.mv	a5, a0
   1b918: 11 c9        	c.beqz	a0, 0x1b92c <__sigtramp+0x86>
   1b91a: 2a 87        	c.mv	a4, a0
   1b91c: 93 06 05 10  	addi	a3, a0, 0x100
   1b920: 23 30 07 00  	sd	zero, 0x0(a4)
   1b924: 21 07        	c.addi	a4, 0x8
   1b926: e3 9d e6 fe  	bne	a3, a4, 0x1b920 <__sigtramp+0x7a>
   1b92a: 59 bf        	c.j	0x1b8c0 <__sigtramp+0x1a>
   1b92c: 42 64        	c.ldsp	s0, 0x10(sp)
   1b92e: 7d 55        	c.li	a0, -0x1
   1b930: 4d bf        	c.j	0x1b8e2 <__sigtramp+0x3c>

000000000001b932 <_kill_r>:
   1b932: 01 11        	c.addi	sp, -0x20
   1b934: 2e 87        	c.mv	a4, a1
   1b936: 22 e8        	c.sdsp	s0, 0x10(sp)
   1b938: 26 e4        	c.sdsp	s1, 0x8(sp)
   1b93a: 2a 84        	c.mv	s0, a0
   1b93c: b2 85        	c.mv	a1, a2
   1b93e: 3a 85        	c.mv	a0, a4
   1b940: 06 ec        	c.sdsp	ra, 0x18(sp)
   1b942: 23 a0 01 24  	sw	zero, 0x240(gp)
   1b946: ef 00 00 0e  	jal	ra, 0x1ba26 <_kill>
   1b94a: fd 57        	c.li	a5, -0x1
   1b94c: 63 07 f5 00  	beq	a0, a5, 0x1b95a <_kill_r+0x28>
   1b950: e2 60        	c.ldsp	ra, 0x18(sp)
   1b952: 42 64        	c.ldsp	s0, 0x10(sp)
   1b954: a2 64        	c.ldsp	s1, 0x8(sp)
   1b956: 05 61        	c.addi16sp	sp, 0x20
   1b958: 82 80        	c.jr	ra
   1b95a: 83 a7 01 24  	lw	a5, 0x240(gp)
   1b95e: ed db        	c.beqz	a5, 0x1b950 <_kill_r+0x1e>
   1b960: e2 60        	c.ldsp	ra, 0x18(sp)
   1b962: 1c c0        	c.sw	a5, 0x0(s0)
   1b964: 42 64        	c.ldsp	s0, 0x10(sp)
   1b966: a2 64        	c.ldsp	s1, 0x8(sp)
   1b968: 05 61        	c.addi16sp	sp, 0x20
   1b96a: 82 80        	c.jr	ra

000000000001b96c <_getpid_r>:
   1b96c: 41 a8        	c.j	0x1b9fc <_getpid>

000000000001b96e <_close>:
   1b96e: 41 11        	c.addi	sp, -0x10
   1b970: 06 e4        	c.sdsp	ra, 0x8(sp)
   1b972: 22 e0        	c.sdsp	s0, 0x0(sp)
   1b974: 93 08 90 03  	addi	a7, zero, 0x39
   1b978: 73 00 00 00  	ecall
   1b97c: 2a 84        	c.mv	s0, a0
   1b97e: 63 47 05 00  	blt	a0, zero, 0x1b98c <_close+0x1e>
   1b982: 01 25        	c.addiw	a0, 0x0
   1b984: a2 60        	c.ldsp	ra, 0x8(sp)
   1b986: 02 64        	c.ldsp	s0, 0x0(sp)
   1b988: 41 01        	c.addi	sp, 0x10
   1b98a: 82 80        	c.jr	ra
   1b98c: ef f0 df c5  	jal	ra, 0x1b5e8 <__errno>
   1b990: 3b 04 80 40  	subw	s0, zero, s0
   1b994: 00 c1        	c.sw	s0, 0x0(a0)
   1b996: 7d 55        	c.li	a0, -0x1
   1b998: f5 b7        	c.j	0x1b984 <_close+0x16>

000000000001b99a <_exit>:
   1b99a: 93 08 d0 05  	addi	a7, zero, 0x5d
   1b99e: 73 00 00 00  	ecall
   1b9a2: 63 43 05 00  	blt	a0, zero, 0x1b9a8 <_exit+0xe>
   1b9a6: 01 a0        	c.j	0x1b9a6 <_exit+0xc>
   1b9a8: 41 11        	c.addi	sp, -0x10
   1b9aa: 22 e0        	c.sdsp	s0, 0x0(sp)
   1b9ac: 2a 84        	c.mv	s0, a0
   1b9ae: 06 e4        	c.sdsp	ra, 0x8(sp)
   1b9b0: 3b 04 80 40  	subw	s0, zero, s0
   1b9b4: ef f0 5f c3  	jal	ra, 0x1b5e8 <__errno>
   1b9b8: 00 c1        	c.sw	s0, 0x0(a0)
   1b9ba: 01 a0        	c.j	0x1b9ba <_exit+0x20>

000000000001b9bc <_fstat>:
   1b9bc: 35 71        	c.addi16sp	sp, -0xa0
   1b9be: 26 e5        	c.sdsp	s1, 0x88(sp)
   1b9c0: 06 ed        	c.sdsp	ra, 0x98(sp)
   1b9c2: ae 84        	c.mv	s1, a1
   1b9c4: 22 e9        	c.sdsp	s0, 0x90(sp)
   1b9c6: 93 08 00 05  	addi	a7, zero, 0x50
   1b9ca: 8a 85        	c.mv	a1, sp
   1b9cc: 73 00 00 00  	ecall
   1b9d0: 2a 84        	c.mv	s0, a0
   1b9d2: 63 4e 05 00  	blt	a0, zero, 0x1b9ee <_fstat+0x32>
   1b9d6: 1b 04 05 00  	addiw	s0, a0, 0x0
   1b9da: 26 85        	c.mv	a0, s1
   1b9dc: 8a 85        	c.mv	a1, sp
   1b9de: ef 00 00 16  	jal	ra, 0x1bb3e <_conv_stat>
   1b9e2: ea 60        	c.ldsp	ra, 0x98(sp)
   1b9e4: 22 85        	c.mv	a0, s0
   1b9e6: 4a 64        	c.ldsp	s0, 0x90(sp)
   1b9e8: aa 64        	c.ldsp	s1, 0x88(sp)
   1b9ea: 0d 61        	c.addi16sp	sp, 0xa0
   1b9ec: 82 80        	c.jr	ra
   1b9ee: 3b 04 80 40  	subw	s0, zero, s0
   1b9f2: ef f0 7f bf  	jal	ra, 0x1b5e8 <__errno>
   1b9f6: 00 c1        	c.sw	s0, 0x0(a0)
   1b9f8: 7d 54        	c.li	s0, -0x1
   1b9fa: c5 b7        	c.j	0x1b9da <_fstat+0x1e>

000000000001b9fc <_getpid>:
   1b9fc: 05 45        	c.li	a0, 0x1
   1b9fe: 82 80        	c.jr	ra

000000000001ba00 <_isatty>:
   1ba00: 19 71        	c.addi16sp	sp, -0x80
   1ba02: 2c 00        	c.addi4spn	a1, sp, 0x8
   1ba04: 86 fc        	c.sdsp	ra, 0x78(sp)
   1ba06: ef f0 7f fb  	jal	ra, 0x1b9bc <_fstat>
   1ba0a: fd 57        	c.li	a5, -0x1
   1ba0c: 63 09 f5 00  	beq	a0, a5, 0x1ba1e <_isatty+0x1e>
   1ba10: 32 45        	c.lwsp	a0, 0xc(sp)
   1ba12: e6 70        	c.ldsp	ra, 0x78(sp)
   1ba14: 1b 55 d5 40  	sraiw	a0, a0, 0xd
   1ba18: 05 89        	c.andi	a0, 0x1
   1ba1a: 09 61        	c.addi16sp	sp, 0x80
   1ba1c: 82 80        	c.jr	ra
   1ba1e: e6 70        	c.ldsp	ra, 0x78(sp)
   1ba20: 01 45        	c.li	a0, 0x0
   1ba22: 09 61        	c.addi16sp	sp, 0x80
   1ba24: 82 80        	c.jr	ra

000000000001ba26 <_kill>:
   1ba26: 41 11        	c.addi	sp, -0x10
   1ba28: 06 e4        	c.sdsp	ra, 0x8(sp)
   1ba2a: ef f0 ff bb  	jal	ra, 0x1b5e8 <__errno>
   1ba2e: a2 60        	c.ldsp	ra, 0x8(sp)
   1ba30: d9 47        	c.li	a5, 0x16
   1ba32: 1c c1        	c.sw	a5, 0x0(a0)
   1ba34: 7d 55        	c.li	a0, -0x1
   1ba36: 41 01        	c.addi	sp, 0x10
   1ba38: 82 80        	c.jr	ra

000000000001ba3a <_lseek>:
   1ba3a: 41 11        	c.addi	sp, -0x10
   1ba3c: 06 e4        	c.sdsp	ra, 0x8(sp)
   1ba3e: 22 e0        	c.sdsp	s0, 0x0(sp)
   1ba40: 93 08 e0 03  	addi	a7, zero, 0x3e
   1ba44: 73 00 00 00  	ecall
   1ba48: 2a 84        	c.mv	s0, a0
   1ba4a: 63 47 05 00  	blt	a0, zero, 0x1ba58 <_lseek+0x1e>
   1ba4e: a2 60        	c.ldsp	ra, 0x8(sp)
   1ba50: 22 85        	c.mv	a0, s0
   1ba52: 02 64        	c.ldsp	s0, 0x0(sp)
   1ba54: 41 01        	c.addi	sp, 0x10
   1ba56: 82 80        	c.jr	ra
   1ba58: 3b 04 80 40  	subw	s0, zero, s0
   1ba5c: ef f0 df b8  	jal	ra, 0x1b5e8 <__errno>
   1ba60: 00 c1        	c.sw	s0, 0x0(a0)
   1ba62: 7d 54        	c.li	s0, -0x1
   1ba64: ed b7        	c.j	0x1ba4e <_lseek+0x14>

000000000001ba66 <_open>:
   1ba66: 41 11        	c.addi	sp, -0x10
   1ba68: 06 e4        	c.sdsp	ra, 0x8(sp)
   1ba6a: 22 e0        	c.sdsp	s0, 0x0(sp)
   1ba6c: 93 08 00 40  	addi	a7, zero, 0x400
   1ba70: 73 00 00 00  	ecall
   1ba74: 2a 84        	c.mv	s0, a0
   1ba76: 63 47 05 00  	blt	a0, zero, 0x1ba84 <_open+0x1e>
   1ba7a: 01 25        	c.addiw	a0, 0x0
   1ba7c: a2 60        	c.ldsp	ra, 0x8(sp)
   1ba7e: 02 64        	c.ldsp	s0, 0x0(sp)
   1ba80: 41 01        	c.addi	sp, 0x10
   1ba82: 82 80        	c.jr	ra
   1ba84: ef f0 5f b6  	jal	ra, 0x1b5e8 <__errno>
   1ba88: 3b 04 80 40  	subw	s0, zero, s0
   1ba8c: 00 c1        	c.sw	s0, 0x0(a0)
   1ba8e: 7d 55        	c.li	a0, -0x1
   1ba90: f5 b7        	c.j	0x1ba7c <_open+0x16>

000000000001ba92 <_read>:
   1ba92: 41 11        	c.addi	sp, -0x10
   1ba94: 06 e4        	c.sdsp	ra, 0x8(sp)
   1ba96: 22 e0        	c.sdsp	s0, 0x0(sp)
   1ba98: 93 08 f0 03  	addi	a7, zero, 0x3f
   1ba9c: 73 00 00 00  	ecall
   1baa0: 2a 84        	c.mv	s0, a0
   1baa2: 63 47 05 00  	blt	a0, zero, 0x1bab0 <_read+0x1e>
   1baa6: a2 60        	c.ldsp	ra, 0x8(sp)
   1baa8: 22 85        	c.mv	a0, s0
   1baaa: 02 64        	c.ldsp	s0, 0x0(sp)
   1baac: 41 01        	c.addi	sp, 0x10
   1baae: 82 80        	c.jr	ra
   1bab0: 3b 04 80 40  	subw	s0, zero, s0
   1bab4: ef f0 5f b3  	jal	ra, 0x1b5e8 <__errno>
   1bab8: 00 c1        	c.sw	s0, 0x0(a0)
   1baba: 7d 54        	c.li	s0, -0x1
   1babc: ed b7        	c.j	0x1baa6 <_read+0x14>

000000000001babe <_sbrk>:
   1babe: 03 b7 01 27  	ld	a4, 0x270(gp)
   1bac2: 41 11        	c.addi	sp, -0x10
   1bac4: 06 e4        	c.sdsp	ra, 0x8(sp)
   1bac6: aa 87        	c.mv	a5, a0
   1bac8: 01 ef        	c.bnez	a4, 0x1bae0 <_sbrk+0x22>
   1baca: 93 08 60 0d  	addi	a7, zero, 0xd6
   1bace: 01 45        	c.li	a0, 0x0
   1bad0: 73 00 00 00  	ecall
   1bad4: 7d 56        	c.li	a2, -0x1
   1bad6: 2a 87        	c.mv	a4, a0
   1bad8: 63 05 c5 02  	beq	a0, a2, 0x1bb02 <_sbrk+0x44>
   1badc: 23 b8 a1 26  	sd	a0, 0x270(gp)
   1bae0: 93 08 60 0d  	addi	a7, zero, 0xd6
   1bae4: 33 85 e7 00  	add	a0, a5, a4
   1bae8: 73 00 00 00  	ecall
   1baec: 03 b7 01 27  	ld	a4, 0x270(gp)
   1baf0: ba 97        	c.add	a5, a4
   1baf2: 63 18 f5 00  	bne	a0, a5, 0x1bb02 <_sbrk+0x44>
   1baf6: a2 60        	c.ldsp	ra, 0x8(sp)
   1baf8: 23 b8 a1 26  	sd	a0, 0x270(gp)
   1bafc: 3a 85        	c.mv	a0, a4
   1bafe: 41 01        	c.addi	sp, 0x10
   1bb00: 82 80        	c.jr	ra
   1bb02: ef f0 7f ae  	jal	ra, 0x1b5e8 <__errno>
   1bb06: a2 60        	c.ldsp	ra, 0x8(sp)
   1bb08: b1 47        	c.li	a5, 0xc
   1bb0a: 1c c1        	c.sw	a5, 0x0(a0)
   1bb0c: 7d 55        	c.li	a0, -0x1
   1bb0e: 41 01        	c.addi	sp, 0x10
   1bb10: 82 80        	c.jr	ra

000000000001bb12 <_write>:
   1bb12: 41 11        	c.addi	sp, -0x10
   1bb14: 06 e4        	c.sdsp	ra, 0x8(sp)
   1bb16: 22 e0        	c.sdsp	s0, 0x0(sp)
   1bb18: 93 08 00 04  	addi	a7, zero, 0x40
   1bb1c: 73 00 00 00  	ecall
   1bb20: 2a 84        	c.mv	s0, a0
   1bb22: 63 47 05 00  	blt	a0, zero, 0x1bb30 <_write+0x1e>
   1bb26: a2 60        	c.ldsp	ra, 0x8(sp)
   1bb28: 22 85        	c.mv	a0, s0
   1bb2a: 02 64        	c.ldsp	s0, 0x0(sp)
   1bb2c: 41 01        	c.addi	sp, 0x10
   1bb2e: 82 80        	c.jr	ra
   1bb30: 3b 04 80 40  	subw	s0, zero, s0
   1bb34: ef f0 5f ab  	jal	ra, 0x1b5e8 <__errno>
   1bb38: 00 c1        	c.sw	s0, 0x0(a0)
   1bb3a: 7d 54        	c.li	s0, -0x1
   1bb3c: ed b7        	c.j	0x1bb26 <_write+0x14>

000000000001bb3e <_conv_stat>:
   1bb3e: 03 d7 85 01  	lhu	a4, 0x18(a1)
   1bb42: 83 d7 45 01  	lhu	a5, 0x14(a1)
   1bb46: d0 4d        	c.lw	a2, 0x1c(a1)
   1bb48: 94 71        	c.ld	a3, 0x20(a1)
   1bb4a: 03 b3 05 00  	ld	t1, 0x0(a1)
   1bb4e: 83 b8 85 00  	ld	a7, 0x8(a1)
   1bb52: 03 a8 05 01  	lw	a6, 0x10(a1)
   1bb56: 1b 17 07 01  	slliw	a4, a4, 0x10
   1bb5a: d9 8f        	c.or	a5, a4
   1bb5c: 23 16 c5 00  	sh	a2, 0xc(a0)
   1bb60: 23 17 d5 00  	sh	a3, 0xe(a0)
   1bb64: 23 10 65 00  	sh	t1, 0x0(a0)
   1bb68: 23 11 15 01  	sh	a7, 0x2(a0)
   1bb6c: 23 22 05 01  	sw	a6, 0x4(a0)
   1bb70: 1c c5        	c.sw	a5, 0x8(a0)
   1bb72: 98 79        	c.ld	a4, 0x30(a1)
   1bb74: bc 65        	c.ld	a5, 0x48(a1)
   1bb76: b0 61        	c.ld	a2, 0x40(a1)
   1bb78: 94 5d        	c.lw	a3, 0x38(a1)
   1bb7a: 18 e9        	c.sd	a4, 0x10(a0)
   1bb7c: 1c ed        	c.sd	a5, 0x18(a0)
   1bb7e: b8 6d        	c.ld	a4, 0x58(a1)
   1bb80: bc 75        	c.ld	a5, 0x68(a1)
   1bb82: 30 e9        	c.sd	a2, 0x50(a0)
   1bb84: 34 e5        	c.sd	a3, 0x48(a0)
   1bb86: 18 f5        	c.sd	a4, 0x28(a0)
   1bb88: 1c fd        	c.sd	a5, 0x38(a0)
   1bb8a: 82 80        	c.jr	ra

000000000001bb8c <__netf2>:
   1bb8c: 2a 88        	c.mv	a6, a0
   1bb8e: f3 27 20 00  	csrrs	a5, frm, zero
   1bb92: 21 65        	c.lui	a0, 0x8
   1bb94: 13 d7 05 03  	srli	a4, a1, 0x30
   1bb98: 7d 15        	c.addi	a0, -0x1
   1bb9a: 7d 5e        	c.li	t3, -0x1
   1bb9c: 93 58 0e 01  	srli	a7, t3, 0x10
   1bba0: 13 d3 06 03  	srli	t1, a3, 0x30
   1bba4: 69 8f        	c.and	a4, a0
   1bba6: b3 f7 15 01  	and	a5, a1, a7
   1bbaa: 33 73 a3 00  	and	t1, t1, a0
   1bbae: b3 f8 16 01  	and	a7, a3, a7
   1bbb2: fd 91        	c.srli	a1, 0x3f
   1bbb4: fd 92        	c.srli	a3, 0x3f
   1bbb6: 63 18 a7 00  	bne	a4, a0, 0x1bbc6 <__netf2+0x3a>
   1bbba: 33 e5 07 01  	or	a0, a5, a6
   1bbbe: 05 e9        	c.bnez	a0, 0x1bbee <__netf2+0x62>
   1bbc0: 63 16 e3 04  	bne	t1, a4, 0x1bc0c <__netf2+0x80>
   1bbc4: 19 a0        	c.j	0x1bbca <__netf2+0x3e>
   1bbc6: 63 15 a3 04  	bne	t1, a0, 0x1bc10 <__netf2+0x84>
   1bbca: 33 e5 c8 00  	or	a0, a7, a2
   1bbce: 29 c1        	c.beqz	a0, 0x1bc10 <__netf2+0x84>
   1bbd0: a1 66        	c.lui	a3, 0x8
   1bbd2: fd 16        	c.addi	a3, -0x1
   1bbd4: 63 18 d7 02  	bne	a4, a3, 0x1bc04 <__netf2+0x78>
   1bbd8: 33 e8 07 01  	or	a6, a5, a6
   1bbdc: 63 00 08 02  	beq	a6, zero, 0x1bbfc <__netf2+0x70>
   1bbe0: 7d 57        	c.li	a4, -0x1
   1bbe2: 45 83        	c.srli	a4, 0x11
   1bbe4: 63 6c f7 00  	bltu	a4, a5, 0x1bbfc <__netf2+0x70>
   1bbe8: 73 60 18 00  	csrrsi	zero, fflags, 0x10
   1bbec: 05 a0        	c.j	0x1bc0c <__netf2+0x80>
   1bbee: 13 5e 1e 01  	srli	t3, t3, 0x11
   1bbf2: e3 7b fe fe  	bgeu	t3, a5, 0x1bbe8 <__netf2+0x5c>
   1bbf6: 05 45        	c.li	a0, 0x1
   1bbf8: 63 1d e3 02  	bne	t1, a4, 0x1bc32 <__netf2+0xa6>
   1bbfc: 33 e6 c8 00  	or	a2, a7, a2
   1bc00: 05 45        	c.li	a0, 0x1
   1bc02: 05 ca        	c.beqz	a2, 0x1bc32 <__netf2+0xa6>
   1bc04: fd 57        	c.li	a5, -0x1
   1bc06: c5 83        	c.srli	a5, 0x11
   1bc08: e3 f0 17 ff  	bgeu	a5, a7, 0x1bbe8 <__netf2+0x5c>
   1bc0c: 05 45        	c.li	a0, 0x1
   1bc0e: 82 80        	c.jr	ra
   1bc10: 05 45        	c.li	a0, 0x1
   1bc12: 63 10 67 02  	bne	a4, t1, 0x1bc32 <__netf2+0xa6>
   1bc16: 63 9e 17 01  	bne	a5, a7, 0x1bc32 <__netf2+0xa6>
   1bc1a: 63 1c c8 00  	bne	a6, a2, 0x1bc32 <__netf2+0xa6>
   1bc1e: 63 88 d5 00  	beq	a1, a3, 0x1bc2e <__netf2+0xa2>
   1bc22: 01 eb        	c.bnez	a4, 0x1bc32 <__netf2+0xa6>
   1bc24: b3 e7 07 01  	or	a5, a5, a6
   1bc28: 33 35 f0 00  	sltu	a0, zero, a5
   1bc2c: 82 80        	c.jr	ra
   1bc2e: 01 45        	c.li	a0, 0x0
   1bc30: 82 80        	c.jr	ra
   1bc32: 82 80        	c.jr	ra

000000000001bc34 <__gttf2>:
   1bc34: aa 88        	c.mv	a7, a0
   1bc36: f3 27 20 00  	csrrs	a5, frm, zero
   1bc3a: 21 63        	c.lui	t1, 0x8
   1bc3c: 13 d8 05 03  	srli	a6, a1, 0x30
   1bc40: 7d 13        	c.addi	t1, -0x1
   1bc42: 7d 57        	c.li	a4, -0x1
   1bc44: 41 83        	c.srli	a4, 0x10
   1bc46: 93 d7 06 03  	srli	a5, a3, 0x30
   1bc4a: 33 78 68 00  	and	a6, a6, t1
   1bc4e: 33 fe e5 00  	and	t3, a1, a4
   1bc52: 33 f5 67 00  	and	a0, a5, t1
   1bc56: 75 8f        	c.and	a4, a3
   1bc58: fd 91        	c.srli	a1, 0x3f
   1bc5a: fd 92        	c.srli	a3, 0x3f
   1bc5c: 63 15 68 00  	bne	a6, t1, 0x1bc66 <__gttf2+0x32>
   1bc60: b3 67 1e 01  	or	a5, t3, a7
   1bc64: b1 eb        	c.bnez	a5, 0x1bcb8 <__gttf2+0x84>
   1bc66: 63 15 65 00  	bne	a0, t1, 0x1bc70 <__gttf2+0x3c>
   1bc6a: b3 67 c7 00  	or	a5, a4, a2
   1bc6e: a9 e7        	c.bnez	a5, 0x1bcb8 <__gttf2+0x84>
   1bc70: 81 47        	c.li	a5, 0x0
   1bc72: 63 16 08 00  	bne	a6, zero, 0x1bc7e <__gttf2+0x4a>
   1bc76: b3 67 1e 01  	or	a5, t3, a7
   1bc7a: 93 b7 17 00  	sltiu	a5, a5, 0x1
   1bc7e: 29 e1        	c.bnez	a0, 0x1bcc0 <__gttf2+0x8c>
   1bc80: 33 63 c7 00  	or	t1, a4, a2
   1bc84: 99 c7        	c.beqz	a5, 0x1bc92 <__gttf2+0x5e>
   1bc86: 63 0a 03 00  	beq	t1, zero, 0x1bc9a <__gttf2+0x66>
   1bc8a: 05 45        	c.li	a0, 0x1
   1bc8c: 99 e6        	c.bnez	a3, 0x1bc9a <__gttf2+0x66>
   1bc8e: 7d 55        	c.li	a0, -0x1
   1bc90: 82 80        	c.jr	ra
   1bc92: 63 18 03 02  	bne	t1, zero, 0x1bcc2 <__gttf2+0x8e>
   1bc96: 7d 55        	c.li	a0, -0x1
   1bc98: 9d c9        	c.beqz	a1, 0x1bcce <__gttf2+0x9a>
   1bc9a: 82 80        	c.jr	ra
   1bc9c: e3 47 a8 fe  	blt	a6, a0, 0x1bc8a <__gttf2+0x56>
   1bca0: e3 6b c7 ff  	bltu	a4, t3, 0x1bc96 <__gttf2+0x62>
   1bca4: 63 17 ee 00  	bne	t3, a4, 0x1bcb2 <__gttf2+0x7e>
   1bca8: e3 67 16 ff  	bltu	a2, a7, 0x1bc96 <__gttf2+0x62>
   1bcac: 01 45        	c.li	a0, 0x0
   1bcae: e3 f6 c8 fe  	bgeu	a7, a2, 0x1bc9a <__gttf2+0x66>
   1bcb2: 05 45        	c.li	a0, 0x1
   1bcb4: fd f1        	c.bnez	a1, 0x1bc9a <__gttf2+0x66>
   1bcb6: e1 bf        	c.j	0x1bc8e <__gttf2+0x5a>
   1bcb8: 73 60 18 00  	csrrsi	zero, fflags, 0x10
   1bcbc: 79 55        	c.li	a0, -0x2
   1bcbe: 82 80        	c.jr	ra
   1bcc0: e9 f7        	c.bnez	a5, 0x1bc8a <__gttf2+0x56>
   1bcc2: e3 9a b6 fc  	bne	a3, a1, 0x1bc96 <__gttf2+0x62>
   1bcc6: e3 5b 05 fd  	bge	a0, a6, 0x1bc9c <__gttf2+0x68>
   1bcca: 7d 55        	c.li	a0, -0x1
   1bccc: f9 f6        	c.bnez	a3, 0x1bc9a <__gttf2+0x66>
   1bcce: 05 45        	c.li	a0, 0x1
   1bcd0: 82 80        	c.jr	ra

000000000001bcd2 <__lttf2>:
   1bcd2: aa 88        	c.mv	a7, a0
   1bcd4: f3 27 20 00  	csrrs	a5, frm, zero
   1bcd8: 21 63        	c.lui	t1, 0x8
   1bcda: 13 d8 05 03  	srli	a6, a1, 0x30
   1bcde: 7d 13        	c.addi	t1, -0x1
   1bce0: 7d 57        	c.li	a4, -0x1
   1bce2: 41 83        	c.srli	a4, 0x10
   1bce4: 93 d7 06 03  	srli	a5, a3, 0x30
   1bce8: 33 78 68 00  	and	a6, a6, t1
   1bcec: 33 fe e5 00  	and	t3, a1, a4
   1bcf0: 33 f5 67 00  	and	a0, a5, t1
   1bcf4: 75 8f        	c.and	a4, a3
   1bcf6: fd 91        	c.srli	a1, 0x3f
   1bcf8: fd 92        	c.srli	a3, 0x3f
   1bcfa: 63 15 68 00  	bne	a6, t1, 0x1bd04 <__lttf2+0x32>
   1bcfe: b3 67 1e 01  	or	a5, t3, a7
   1bd02: b1 eb        	c.bnez	a5, 0x1bd56 <__lttf2+0x84>
   1bd04: 63 15 65 00  	bne	a0, t1, 0x1bd0e <__lttf2+0x3c>
   1bd08: b3 67 c7 00  	or	a5, a4, a2
   1bd0c: a9 e7        	c.bnez	a5, 0x1bd56 <__lttf2+0x84>
   1bd0e: 81 47        	c.li	a5, 0x0
   1bd10: 63 16 08 00  	bne	a6, zero, 0x1bd1c <__lttf2+0x4a>
   1bd14: b3 67 1e 01  	or	a5, t3, a7
   1bd18: 93 b7 17 00  	sltiu	a5, a5, 0x1
   1bd1c: 29 e1        	c.bnez	a0, 0x1bd5e <__lttf2+0x8c>
   1bd1e: 33 63 c7 00  	or	t1, a4, a2
   1bd22: 99 c7        	c.beqz	a5, 0x1bd30 <__lttf2+0x5e>
   1bd24: 63 0a 03 00  	beq	t1, zero, 0x1bd38 <__lttf2+0x66>
   1bd28: 05 45        	c.li	a0, 0x1
   1bd2a: 99 e6        	c.bnez	a3, 0x1bd38 <__lttf2+0x66>
   1bd2c: 7d 55        	c.li	a0, -0x1
   1bd2e: 82 80        	c.jr	ra
   1bd30: 63 18 03 02  	bne	t1, zero, 0x1bd60 <__lttf2+0x8e>
   1bd34: 7d 55        	c.li	a0, -0x1
   1bd36: 9d c9        	c.beqz	a1, 0x1bd6c <__lttf2+0x9a>
   1bd38: 82 80        	c.jr	ra
   1bd3a: e3 47 a8 fe  	blt	a6, a0, 0x1bd28 <__lttf2+0x56>
   1bd3e: e3 6b c7 ff  	bltu	a4, t3, 0x1bd34 <__lttf2+0x62>
   1bd42: 63 17 ee 00  	bne	t3, a4, 0x1bd50 <__lttf2+0x7e>
   1bd46: e3 67 16 ff  	bltu	a2, a7, 0x1bd34 <__lttf2+0x62>
   1bd4a: 01 45        	c.li	a0, 0x0
   1bd4c: e3 f6 c8 fe  	bgeu	a7, a2, 0x1bd38 <__lttf2+0x66>
   1bd50: 05 45        	c.li	a0, 0x1
   1bd52: fd f1        	c.bnez	a1, 0x1bd38 <__lttf2+0x66>
   1bd54: e1 bf        	c.j	0x1bd2c <__lttf2+0x5a>
   1bd56: 73 60 18 00  	csrrsi	zero, fflags, 0x10
   1bd5a: 09 45        	c.li	a0, 0x2
   1bd5c: 82 80        	c.jr	ra
   1bd5e: e9 f7        	c.bnez	a5, 0x1bd28 <__lttf2+0x56>
   1bd60: e3 9a b6 fc  	bne	a3, a1, 0x1bd34 <__lttf2+0x62>
   1bd64: e3 5b 05 fd  	bge	a0, a6, 0x1bd3a <__lttf2+0x68>
   1bd68: 7d 55        	c.li	a0, -0x1
   1bd6a: f9 f6        	c.bnez	a3, 0x1bd38 <__lttf2+0x66>
   1bd6c: 05 45        	c.li	a0, 0x1
   1bd6e: 82 80        	c.jr	ra

000000000001bd70 <__multf3>:
   1bd70: 1d 71        	c.addi16sp	sp, -0x60
   1bd72: a2 e8        	c.sdsp	s0, 0x50(sp)
   1bd74: 56 f4        	c.sdsp	s5, 0x28(sp)
   1bd76: 62 e8        	c.sdsp	s8, 0x10(sp)
   1bd78: 86 ec        	c.sdsp	ra, 0x58(sp)
   1bd7a: a6 e4        	c.sdsp	s1, 0x48(sp)
   1bd7c: ca e0        	c.sdsp	s2, 0x40(sp)
   1bd7e: 4e fc        	c.sdsp	s3, 0x38(sp)
   1bd80: 52 f8        	c.sdsp	s4, 0x30(sp)
   1bd82: 5a f0        	c.sdsp	s6, 0x20(sp)
   1bd84: 5e ec        	c.sdsp	s7, 0x18(sp)
   1bd86: 66 e4        	c.sdsp	s9, 0x8(sp)
   1bd88: 2a 84        	c.mv	s0, a0
   1bd8a: 32 8c        	c.mv	s8, a2
   1bd8c: b6 8a        	c.mv	s5, a3
   1bd8e: f3 29 20 00  	csrrs	s3, frm, zero
   1bd92: 21 67        	c.lui	a4, 0x8
   1bd94: 93 d7 05 03  	srli	a5, a1, 0x30
   1bd98: 7d 17        	c.addi	a4, -0x1
   1bd9a: 93 94 05 01  	slli	s1, a1, 0x10
   1bd9e: f9 8f        	c.and	a5, a4
   1bda0: 81 29        	c.addiw	s3, 0x0
   1bda2: c1 80        	c.srli	s1, 0x10
   1bda4: 13 db f5 03  	srli	s6, a1, 0x3f
   1bda8: 85 c7        	c.beqz	a5, 0x1bdd0 <__multf3+0x60>
   1bdaa: 1b 8a 07 00  	addiw	s4, a5, 0x0
   1bdae: 63 8f e7 06  	beq	a5, a4, 0x1be2c <__multf3+0xbc>
   1bdb2: 8e 04        	c.slli	s1, 0x3
   1bdb4: 13 57 d5 03  	srli	a4, a0, 0x3d
   1bdb8: 45 8f        	c.or	a4, s1
   1bdba: 71 7a        	c.lui	s4, 0xffffc
   1bdbc: 85 44        	c.li	s1, 0x1
   1bdbe: ce 14        	c.slli	s1, 0x33
   1bdc0: 05 0a        	c.addi	s4, 0x1
   1bdc2: d9 8c        	c.or	s1, a4
   1bdc4: 93 1b 35 00  	slli	s7, a0, 0x3
   1bdc8: 3e 9a        	c.add	s4, a5
   1bdca: 81 4c        	c.li	s9, 0x0
   1bdcc: 01 49        	c.li	s2, 0x0
   1bdce: 95 a8        	c.j	0x1be42 <__multf3+0xd2>
   1bdd0: b3 6b 95 00  	or	s7, a0, s1
   1bdd4: 63 82 0b 28  	beq	s7, zero, 0x1c058 <__multf3+0x2e8>
   1bdd8: 9d c8        	c.beqz	s1, 0x1be0e <__multf3+0x9e>
   1bdda: 26 85        	c.mv	a0, s1
   1bddc: ef 10 a0 00  	jal	ra, 0x1cde6 <__clzdi2>
   1bde0: 01 25        	c.addiw	a0, 0x0
   1bde2: 93 07 15 ff  	addi	a5, a0, -0xf
   1bde6: 13 07 d0 03  	addi	a4, zero, 0x3d
   1bdea: 9b 86 37 00  	addiw	a3, a5, 0x3
   1bdee: bb 07 f7 40  	subw	a5, a4, a5
   1bdf2: b3 94 d4 00  	sll	s1, s1, a3
   1bdf6: b3 57 f4 00  	srl	a5, s0, a5
   1bdfa: c5 8f        	c.or	a5, s1
   1bdfc: b3 14 d4 00  	sll	s1, s0, a3
   1be00: 71 7a        	c.lui	s4, 0xffffc
   1be02: 45 0a        	c.addi	s4, 0x11
   1be04: a6 8b        	c.mv	s7, s1
   1be06: 33 0a aa 40  	sub	s4, s4, a0
   1be0a: be 84        	c.mv	s1, a5
   1be0c: 7d bf        	c.j	0x1bdca <__multf3+0x5a>
   1be0e: ef 00 90 7d  	jal	ra, 0x1cde6 <__clzdi2>
   1be12: 1b 05 05 04  	addiw	a0, a0, 0x40
   1be16: 93 07 15 ff  	addi	a5, a0, -0xf
   1be1a: 13 07 c0 03  	addi	a4, zero, 0x3c
   1be1e: e3 54 f7 fc  	bge	a4, a5, 0x1bde6 <__multf3+0x76>
   1be22: 9b 87 37 fc  	addiw	a5, a5, -0x3d
   1be26: b3 17 f4 00  	sll	a5, s0, a5
   1be2a: d9 bf        	c.j	0x1be00 <__multf3+0x90>
   1be2c: b3 6b 95 00  	or	s7, a0, s1
   1be30: 63 88 0b 22  	beq	s7, zero, 0x1c060 <__multf3+0x2f0>
   1be34: 05 49        	c.li	s2, 0x1
   1be36: 3e 19        	c.slli	s2, 0x2f
   1be38: 33 b9 24 01  	sltu	s2, s1, s2
   1be3c: 12 09        	c.slli	s2, 0x4
   1be3e: aa 8b        	c.mv	s7, a0
   1be40: 8d 4c        	c.li	s9, 0x3
   1be42: 21 66        	c.lui	a2, 0x8
   1be44: 13 d7 0a 03  	srli	a4, s5, 0x30
   1be48: fd 56        	c.li	a3, -0x1
   1be4a: 7d 16        	c.addi	a2, -0x1
   1be4c: 13 d4 06 01  	srli	s0, a3, 0x10
   1be50: 71 8f        	c.and	a4, a2
   1be52: 33 f4 8a 00  	and	s0, s5, s0
   1be56: 62 85        	c.mv	a0, s8
   1be58: 93 da fa 03  	srli	s5, s5, 0x3f
   1be5c: 63 05 07 20  	beq	a4, zero, 0x1c066 <__multf3+0x2f6>
   1be60: 9b 07 07 00  	addiw	a5, a4, 0x0
   1be64: 63 0e c7 24  	beq	a4, a2, 0x1c0c0 <__multf3+0x350>
   1be68: 0e 04        	c.slli	s0, 0x3
   1be6a: 93 57 dc 03  	srli	a5, s8, 0x3d
   1be6e: c1 8f        	c.or	a5, s0
   1be70: 05 44        	c.li	s0, 0x1
   1be72: 4e 14        	c.slli	s0, 0x33
   1be74: 5d 8c        	c.or	s0, a5
   1be76: f1 77        	c.lui	a5, 0xffffc
   1be78: 85 07        	c.addi	a5, 0x1
   1be7a: 13 15 3c 00  	slli	a0, s8, 0x3
   1be7e: ba 97        	c.add	a5, a4
   1be80: 01 47        	c.li	a4, 0x0
   1be82: b3 86 47 01  	add	a3, a5, s4
   1be86: 93 97 2c 00  	slli	a5, s9, 0x2
   1be8a: d9 8f        	c.or	a5, a4
   1be8c: 29 46        	c.li	a2, 0xa
   1be8e: 93 88 16 00  	addi	a7, a3, 0x1
   1be92: 63 4f f6 2a  	blt	a2, a5, 0x1c150 <__multf3+0x3e0>
   1be96: 89 45        	c.li	a1, 0x2
   1be98: 33 46 5b 01  	xor	a2, s6, s5
   1be9c: 63 c4 f5 24  	blt	a1, a5, 0x1c0e4 <__multf3+0x374>
   1bea0: fd 17        	c.addi	a5, -0x1
   1bea2: 85 45        	c.li	a1, 0x1
   1bea4: 63 ff f5 24  	bgeu	a1, a5, 0x1c102 <__multf3+0x392>
   1bea8: fd 57        	c.li	a5, -0x1
   1beaa: 81 93        	c.srli	a5, 0x20
   1beac: 13 d7 0b 02  	srli	a4, s7, 0x20
   1beb0: 93 55 05 02  	srli	a1, a0, 0x20
   1beb4: b3 8f 74 01  	add	t6, s1, s7
   1beb8: 33 0f 85 00  	add	t5, a0, s0
   1bebc: b3 fb fb 00  	and	s7, s7, a5
   1bec0: e9 8f        	c.and	a5, a0
   1bec2: b3 3e af 00  	sltu	t4, t5, a0
   1bec6: 33 85 77 03  	mul	a0, a5, s7
   1beca: 33 be 9f 00  	sltu	t3, t6, s1
   1bece: b3 07 f7 02  	mul	a5, a4, a5
   1bed2: 13 58 05 02  	srli	a6, a0, 0x20
   1bed6: 33 07 b7 02  	mul	a4, a4, a1
   1beda: b3 85 75 03  	mul	a1, a1, s7
   1bede: be 95        	c.add	a1, a5
   1bee0: 2e 98        	c.add	a6, a1
   1bee2: 63 75 f8 00  	bgeu	a6, a5, 0x1beec <__multf3+0x17c>
   1bee6: 85 47        	c.li	a5, 0x1
   1bee8: 82 17        	c.slli	a5, 0x20
   1beea: 3e 97        	c.add	a4, a5
   1beec: fd 57        	c.li	a5, -0x1
   1beee: 81 93        	c.srli	a5, 0x20
   1bef0: 13 53 08 02  	srli	t1, a6, 0x20
   1bef4: 33 78 f8 00  	and	a6, a6, a5
   1bef8: 7d 8d        	c.and	a0, a5
   1befa: 02 18        	c.slli	a6, 0x20
   1befc: 93 d3 0f 02  	srli	t2, t6, 0x20
   1bf00: 3a 93        	c.add	t1, a4
   1bf02: 2a 98        	c.add	a6, a0
   1bf04: 13 57 0f 02  	srli	a4, t5, 0x20
   1bf08: 33 f5 ff 00  	and	a0, t6, a5
   1bf0c: b3 77 ff 00  	and	a5, t5, a5
   1bf10: b3 85 a7 02  	mul	a1, a5, a0
   1bf14: b3 87 f3 02  	mul	a5, t2, a5
   1bf18: 93 d2 05 02  	srli	t0, a1, 0x20
   1bf1c: b3 83 e3 02  	mul	t2, t2, a4
   1bf20: 33 07 a7 02  	mul	a4, a4, a0
   1bf24: 3e 97        	c.add	a4, a5
   1bf26: ba 92        	c.add	t0, a4
   1bf28: 63 f5 f2 00  	bgeu	t0, a5, 0x1bf32 <__multf3+0x1c2>
   1bf2c: 85 47        	c.li	a5, 0x1
   1bf2e: 82 17        	c.slli	a5, 0x20
   1bf30: be 93        	c.add	t2, a5
   1bf32: fd 57        	c.li	a5, -0x1
   1bf34: 81 93        	c.srli	a5, 0x20
   1bf36: 13 d7 02 02  	srli	a4, t0, 0x20
   1bf3a: b3 f2 f2 00  	and	t0, t0, a5
   1bf3e: fd 8d        	c.and	a1, a5
   1bf40: 82 12        	c.slli	t0, 0x20
   1bf42: 13 55 04 02  	srli	a0, s0, 0x20
   1bf46: ae 92        	c.add	t0, a1
   1bf48: 93 d5 04 02  	srli	a1, s1, 0x20
   1bf4c: fd 8c        	c.and	s1, a5
   1bf4e: e1 8f        	c.and	a5, s0
   1bf50: 33 8a f4 02  	mul	s4, s1, a5
   1bf54: 33 84 a5 02  	mul	s0, a1, a0
   1bf58: b3 87 f5 02  	mul	a5, a1, a5
   1bf5c: 33 05 95 02  	mul	a0, a0, s1
   1bf60: b3 05 f5 00  	add	a1, a0, a5
   1bf64: 13 55 0a 02  	srli	a0, s4, 0x20
   1bf68: 2e 95        	c.add	a0, a1
   1bf6a: 63 75 f5 00  	bgeu	a0, a5, 0x1bf74 <__multf3+0x204>
   1bf6e: 85 47        	c.li	a5, 0x1
   1bf70: 82 17        	c.slli	a5, 0x20
   1bf72: 3e 94        	c.add	s0, a5
   1bf74: 93 55 05 02  	srli	a1, a0, 0x20
   1bf78: a2 95        	c.add	a1, s0
   1bf7a: 7d 54        	c.li	s0, -0x1
   1bf7c: 01 90        	c.srli	s0, 0x20
   1bf7e: b3 77 85 00  	and	a5, a0, s0
   1bf82: 82 17        	c.slli	a5, 0x20
   1bf84: 33 7a 8a 00  	and	s4, s4, s0
   1bf88: d2 97        	c.add	a5, s4
   1bf8a: 01 45        	c.li	a0, 0x0
   1bf8c: 63 83 0e 00  	beq	t4, zero, 0x1bf92 <__multf3+0x222>
   1bf90: 7e 85        	c.mv	a0, t6
   1bf92: 81 4f        	c.li	t6, 0x0
   1bf94: 63 03 0e 00  	beq	t3, zero, 0x1bf9a <__multf3+0x22a>
   1bf98: fa 8f        	c.mv	t6, t5
   1bf9a: 33 84 62 00  	add	s0, t0, t1
   1bf9e: 33 3f 54 00  	sltu	t5, s0, t0
   1bfa2: 7a 97        	c.add	a4, t5
   1bfa4: 1e 97        	c.add	a4, t2
   1bfa6: 33 7e de 01  	and	t3, t3, t4
   1bfaa: 33 3f e7 01  	sltu	t5, a4, t5
   1bfae: 3a 95        	c.add	a0, a4
   1bfb0: 72 9f        	c.add	t5, t3
   1bfb2: 33 37 e5 00  	sltu	a4, a0, a4
   1bfb6: 7e 95        	c.add	a0, t6
   1bfb8: 7a 97        	c.add	a4, t5
   1bfba: b3 3f f5 01  	sltu	t6, a0, t6
   1bfbe: 33 0e 04 41  	sub	t3, s0, a6
   1bfc2: b3 3e c4 01  	sltu	t4, s0, t3
   1bfc6: ba 9f        	c.add	t6, a4
   1bfc8: 33 07 65 40  	sub	a4, a0, t1
   1bfcc: 33 3f e5 00  	sltu	t5, a0, a4
   1bfd0: 33 07 d7 41  	sub	a4, a4, t4
   1bfd4: 81 4e        	c.li	t4, 0x0
   1bfd6: 63 76 c4 01  	bgeu	s0, t3, 0x1bfe2 <__multf3+0x272>
   1bfda: 33 03 a3 40  	sub	t1, t1, a0
   1bfde: 93 3e 13 00  	sltiu	t4, t1, 0x1
   1bfe2: ae 9f        	c.add	t6, a1
   1bfe4: 33 03 fe 40  	sub	t1, t3, a5
   1bfe8: b3 05 b7 40  	sub	a1, a4, a1
   1bfec: 33 35 b7 00  	sltu	a0, a4, a1
   1bff0: 33 37 6e 00  	sltu	a4, t3, t1
   1bff4: 33 ef ee 01  	or	t5, t4, t5
   1bff8: 33 87 e7 40  	sub	a4, a5, a4
   1bffc: 81 4e        	c.li	t4, 0x0
   1bffe: 63 74 6e 00  	bgeu	t3, t1, 0x1c006 <__multf3+0x296>
   1c002: 93 be 15 00  	sltiu	t4, a1, 0x1
   1c006: ba 95        	c.add	a1, a4
   1c008: 33 b7 f5 00  	sltu	a4, a1, a5
   1c00c: 7e 97        	c.add	a4, t6
   1c00e: b3 ee ae 00  	or	t4, t4, a0
   1c012: 33 07 e7 41  	sub	a4, a4, t5
   1c016: 13 15 d3 00  	slli	a0, t1, 0xd
   1c01a: 33 07 d7 41  	sub	a4, a4, t4
   1c01e: 33 65 05 01  	or	a0, a0, a6
   1c022: 36 07        	c.slli	a4, 0xd
   1c024: 33 35 a0 00  	sltu	a0, zero, a0
   1c028: 13 53 33 03  	srli	t1, t1, 0x33
   1c02c: 13 d4 35 03  	srli	s0, a1, 0x33
   1c030: 33 65 65 00  	or	a0, a0, t1
   1c034: b6 05        	c.slli	a1, 0xd
   1c036: 93 17 b7 00  	slli	a5, a4, 0xb
   1c03a: 59 8c        	c.or	s0, a4
   1c03c: 4d 8d        	c.or	a0, a1
   1c03e: 63 db 07 00  	bge	a5, zero, 0x1c054 <__multf3+0x2e4>
   1c042: 93 57 15 00  	srli	a5, a0, 0x1
   1c046: 05 89        	c.andi	a0, 0x1
   1c048: c9 8f        	c.or	a5, a0
   1c04a: 13 15 f4 03  	slli	a0, s0, 0x3f
   1c04e: 5d 8d        	c.or	a0, a5
   1c050: 05 80        	c.srli	s0, 0x1
   1c052: c6 86        	c.mv	a3, a7
   1c054: b6 88        	c.mv	a7, a3
   1c056: 7d a8        	c.j	0x1c114 <__multf3+0x3a4>
   1c058: 81 44        	c.li	s1, 0x0
   1c05a: 01 4a        	c.li	s4, 0x0
   1c05c: 85 4c        	c.li	s9, 0x1
   1c05e: bd b3        	c.j	0x1bdcc <__multf3+0x5c>
   1c060: 81 44        	c.li	s1, 0x0
   1c062: 89 4c        	c.li	s9, 0x2
   1c064: a5 b3        	c.j	0x1bdcc <__multf3+0x5c>
   1c066: b3 67 8c 00  	or	a5, s8, s0
   1c06a: a5 c7        	c.beqz	a5, 0x1c0d2 <__multf3+0x362>
   1c06c: 1d c8        	c.beqz	s0, 0x1c0a2 <__multf3+0x332>
   1c06e: 22 85        	c.mv	a0, s0
   1c070: ef 00 70 57  	jal	ra, 0x1cde6 <__clzdi2>
   1c074: 01 25        	c.addiw	a0, 0x0
   1c076: 93 07 15 ff  	addi	a5, a0, -0xf
   1c07a: 13 07 d0 03  	addi	a4, zero, 0x3d
   1c07e: 9b 86 37 00  	addiw	a3, a5, 0x3
   1c082: bb 07 f7 40  	subw	a5, a4, a5
   1c086: 33 14 d4 00  	sll	s0, s0, a3
   1c08a: b3 57 fc 00  	srl	a5, s8, a5
   1c08e: 33 e7 87 00  	or	a4, a5, s0
   1c092: 33 14 dc 00  	sll	s0, s8, a3
   1c096: f1 77        	c.lui	a5, 0xffffc
   1c098: c5 07        	c.addi	a5, 0x11
   1c09a: 89 8f        	c.sub	a5, a0
   1c09c: 22 85        	c.mv	a0, s0
   1c09e: 3a 84        	c.mv	s0, a4
   1c0a0: c5 b3        	c.j	0x1be80 <__multf3+0x110>
   1c0a2: ef 00 50 54  	jal	ra, 0x1cde6 <__clzdi2>
   1c0a6: 1b 05 05 04  	addiw	a0, a0, 0x40
   1c0aa: 93 07 15 ff  	addi	a5, a0, -0xf
   1c0ae: 13 07 c0 03  	addi	a4, zero, 0x3c
   1c0b2: e3 54 f7 fc  	bge	a4, a5, 0x1c07a <__multf3+0x30a>
   1c0b6: 9b 87 37 fc  	addiw	a5, a5, -0x3d
   1c0ba: 33 17 fc 00  	sll	a4, s8, a5
   1c0be: e1 bf        	c.j	0x1c096 <__multf3+0x326>
   1c0c0: 33 67 8c 00  	or	a4, s8, s0
   1c0c4: 01 cf        	c.beqz	a4, 0x1c0dc <__multf3+0x36c>
   1c0c6: c5 82        	c.srli	a3, 0x11
   1c0c8: 0d 47        	c.li	a4, 0x3
   1c0ca: e3 ec 86 da  	bltu	a3, s0, 0x1be82 <__multf3+0x112>
   1c0ce: 41 49        	c.li	s2, 0x10
   1c0d0: 4d bb        	c.j	0x1be82 <__multf3+0x112>
   1c0d2: 01 44        	c.li	s0, 0x0
   1c0d4: 01 45        	c.li	a0, 0x0
   1c0d6: 81 47        	c.li	a5, 0x0
   1c0d8: 05 47        	c.li	a4, 0x1
   1c0da: 65 b3        	c.j	0x1be82 <__multf3+0x112>
   1c0dc: 01 44        	c.li	s0, 0x0
   1c0de: 01 45        	c.li	a0, 0x0
   1c0e0: 09 47        	c.li	a4, 0x2
   1c0e2: 45 b3        	c.j	0x1be82 <__multf3+0x112>
   1c0e4: 85 45        	c.li	a1, 0x1
   1c0e6: b3 97 f5 00  	sll	a5, a1, a5
   1c0ea: 93 f5 07 53  	andi	a1, a5, 0x530
   1c0ee: a5 e9        	c.bnez	a1, 0x1c15e <__multf3+0x3ee>
   1c0f0: 93 f5 07 24  	andi	a1, a5, 0x240
   1c0f4: 63 99 05 24  	bne	a1, zero, 0x1c346 <__multf3+0x5d6>
   1c0f8: 93 f7 87 08  	andi	a5, a5, 0x88
   1c0fc: e3 86 07 da  	beq	a5, zero, 0x1bea8 <__multf3+0x138>
   1c100: 56 86        	c.mv	a2, s5
   1c102: 89 47        	c.li	a5, 0x2
   1c104: 63 09 f7 24  	beq	a4, a5, 0x1c356 <__multf3+0x5e6>
   1c108: 8d 47        	c.li	a5, 0x3
   1c10a: 63 0f f7 22  	beq	a4, a5, 0x1c348 <__multf3+0x5d8>
   1c10e: 85 47        	c.li	a5, 0x1
   1c110: 63 08 f7 24  	beq	a4, a5, 0x1c360 <__multf3+0x5f0>
   1c114: 11 67        	c.lui	a4, 0x4
   1c116: 7d 17        	c.addi	a4, -0x1
   1c118: 46 97        	c.add	a4, a7
   1c11a: 63 5f e0 0c  	bge	zero, a4, 0x1c1f8 <__multf3+0x488>
   1c11e: 93 77 75 00  	andi	a5, a0, 0x7
   1c122: b9 c7        	c.beqz	a5, 0x1c170 <__multf3+0x400>
   1c124: 89 47        	c.li	a5, 0x2
   1c126: 13 69 19 00  	ori	s2, s2, 0x1
   1c12a: 63 82 f9 04  	beq	s3, a5, 0x1c16e <__multf3+0x3fe>
   1c12e: 8d 47        	c.li	a5, 0x3
   1c130: 63 8b f9 02  	beq	s3, a5, 0x1c166 <__multf3+0x3f6>
   1c134: 63 9e 09 02  	bne	s3, zero, 0x1c170 <__multf3+0x400>
   1c138: 93 77 f5 00  	andi	a5, a0, 0xf
   1c13c: 91 46        	c.li	a3, 0x4
   1c13e: 63 89 d7 02  	beq	a5, a3, 0x1c170 <__multf3+0x400>
   1c142: 93 07 45 00  	addi	a5, a0, 0x4
   1c146: b3 b6 a7 00  	sltu	a3, a5, a0
   1c14a: 36 94        	c.add	s0, a3
   1c14c: 3e 85        	c.mv	a0, a5
   1c14e: 0d a0        	c.j	0x1c170 <__multf3+0x400>
   1c150: bd 46        	c.li	a3, 0xf
   1c152: 63 8b d7 1e  	beq	a5, a3, 0x1c348 <__multf3+0x5d8>
   1c156: ad 46        	c.li	a3, 0xb
   1c158: 5a 86        	c.mv	a2, s6
   1c15a: e3 83 d7 fa  	beq	a5, a3, 0x1c100 <__multf3+0x390>
   1c15e: 26 84        	c.mv	s0, s1
   1c160: 5e 85        	c.mv	a0, s7
   1c162: 66 87        	c.mv	a4, s9
   1c164: 79 bf        	c.j	0x1c102 <__multf3+0x392>
   1c166: 09 e6        	c.bnez	a2, 0x1c170 <__multf3+0x400>
   1c168: 93 07 85 00  	addi	a5, a0, 0x8
   1c16c: e9 bf        	c.j	0x1c146 <__multf3+0x3d6>
   1c16e: 6d fe        	c.bnez	a2, 0x1c168 <__multf3+0x3f8>
   1c170: 93 17 b4 00  	slli	a5, s0, 0xb
   1c174: 63 d8 07 00  	bge	a5, zero, 0x1c184 <__multf3+0x414>
   1c178: fd 57        	c.li	a5, -0x1
   1c17a: d2 17        	c.slli	a5, 0x34
   1c17c: fd 17        	c.addi	a5, -0x1
   1c17e: 11 67        	c.lui	a4, 0x4
   1c180: 7d 8c        	c.and	s0, a5
   1c182: 46 97        	c.add	a4, a7
   1c184: a1 67        	c.lui	a5, 0x8
   1c186: f9 17        	c.addi	a5, -0x2
   1c188: a1 66        	c.lui	a3, 0x8
   1c18a: 63 c2 e7 04  	blt	a5, a4, 0x1c1ce <__multf3+0x45e>
   1c18e: 93 57 35 00  	srli	a5, a0, 0x3
   1c192: 13 15 d4 03  	slli	a0, s0, 0x3d
   1c196: 5d 8d        	c.or	a0, a5
   1c198: 93 57 34 00  	srli	a5, s0, 0x3
   1c19c: 1b 16 f6 00  	slliw	a2, a2, 0xf
   1c1a0: 93 95 07 01  	slli	a1, a5, 0x10
   1c1a4: 51 8f        	c.or	a4, a2
   1c1a6: 42 17        	c.slli	a4, 0x30
   1c1a8: c1 81        	c.srli	a1, 0x10
   1c1aa: d9 8d        	c.or	a1, a4
   1c1ac: 63 04 09 00  	beq	s2, zero, 0x1c1b4 <__multf3+0x444>
   1c1b0: 73 20 19 00  	csrrs	zero, fflags, s2
   1c1b4: e6 60        	c.ldsp	ra, 0x58(sp)
   1c1b6: 46 64        	c.ldsp	s0, 0x50(sp)
   1c1b8: a6 64        	c.ldsp	s1, 0x48(sp)
   1c1ba: 06 69        	c.ldsp	s2, 0x40(sp)
   1c1bc: e2 79        	c.ldsp	s3, 0x38(sp)
   1c1be: 42 7a        	c.ldsp	s4, 0x30(sp)
   1c1c0: a2 7a        	c.ldsp	s5, 0x28(sp)
   1c1c2: 02 7b        	c.ldsp	s6, 0x20(sp)
   1c1c4: e2 6b        	c.ldsp	s7, 0x18(sp)
   1c1c6: 42 6c        	c.ldsp	s8, 0x10(sp)
   1c1c8: a2 6c        	c.ldsp	s9, 0x8(sp)
   1c1ca: 25 61        	c.addi16sp	sp, 0x60
   1c1cc: 82 80        	c.jr	ra
   1c1ce: 09 47        	c.li	a4, 0x2
   1c1d0: 63 82 e9 02  	beq	s3, a4, 0x1c1f4 <__multf3+0x484>
   1c1d4: 0d 47        	c.li	a4, 0x3
   1c1d6: 63 88 e9 00  	beq	s3, a4, 0x1c1e6 <__multf3+0x476>
   1c1da: 63 97 09 00  	bne	s3, zero, 0x1c1e8 <__multf3+0x478>
   1c1de: 01 45        	c.li	a0, 0x0
   1c1e0: 13 87 f6 ff  	addi	a4, a3, -0x1
   1c1e4: 21 a0        	c.j	0x1c1ec <__multf3+0x47c>
   1c1e6: 65 de        	c.beqz	a2, 0x1c1de <__multf3+0x46e>
   1c1e8: 7d 55        	c.li	a0, -0x1
   1c1ea: 3e 87        	c.mv	a4, a5
   1c1ec: 13 69 59 00  	ori	s2, s2, 0x5
   1c1f0: aa 87        	c.mv	a5, a0
   1c1f2: 6d b7        	c.j	0x1c19c <__multf3+0x42c>
   1c1f4: 6d f6        	c.bnez	a2, 0x1c1de <__multf3+0x46e>
   1c1f6: cd bf        	c.j	0x1c1e8 <__multf3+0x478>
   1c1f8: 85 46        	c.li	a3, 0x1
   1c1fa: 21 e7        	c.bnez	a4, 0x1c242 <__multf3+0x4d2>
   1c1fc: 93 76 75 00  	andi	a3, a0, 0x7
   1c200: a2 87        	c.mv	a5, s0
   1c202: 9d ca        	c.beqz	a3, 0x1c238 <__multf3+0x4c8>
   1c204: 89 46        	c.li	a3, 0x2
   1c206: 13 69 19 00  	ori	s2, s2, 0x1
   1c20a: 63 86 d9 02  	beq	s3, a3, 0x1c236 <__multf3+0x4c6>
   1c20e: 8d 46        	c.li	a3, 0x3
   1c210: 63 8f d9 00  	beq	s3, a3, 0x1c22e <__multf3+0x4be>
   1c214: 63 92 09 02  	bne	s3, zero, 0x1c238 <__multf3+0x4c8>
   1c218: 93 76 f5 00  	andi	a3, a0, 0xf
   1c21c: 91 45        	c.li	a1, 0x4
   1c21e: 63 8d b6 00  	beq	a3, a1, 0x1c238 <__multf3+0x4c8>
   1c222: 93 37 c5 ff  	sltiu	a5, a0, -0x4
   1c226: 93 c7 17 00  	xori	a5, a5, 0x1
   1c22a: a2 97        	c.add	a5, s0
   1c22c: 31 a0        	c.j	0x1c238 <__multf3+0x4c8>
   1c22e: 09 e6        	c.bnez	a2, 0x1c238 <__multf3+0x4c8>
   1c230: 93 37 85 ff  	sltiu	a5, a0, -0x8
   1c234: cd bf        	c.j	0x1c226 <__multf3+0x4b6>
   1c236: 6d fe        	c.bnez	a2, 0x1c230 <__multf3+0x4c0>
   1c238: 93 d6 47 03  	srli	a3, a5, 0x34
   1c23c: 93 c6 16 00  	xori	a3, a3, 0x1
   1c240: 85 8a        	c.andi	a3, 0x1
   1c242: 05 48        	c.li	a6, 0x1
   1c244: 33 08 e8 40  	sub	a6, a6, a4
   1c248: 93 07 40 07  	addi	a5, zero, 0x74
   1c24c: 63 c2 07 0d  	blt	a5, a6, 0x1c310 <__multf3+0x5a0>
   1c250: 13 07 f0 03  	addi	a4, zero, 0x3f
   1c254: 9b 07 08 00  	addiw	a5, a6, 0x0
   1c258: 63 4b 07 05  	blt	a4, a6, 0x1c2ae <__multf3+0x53e>
   1c25c: 93 05 00 04  	addi	a1, zero, 0x40
   1c260: 9d 9d        	c.subw	a1, a5
   1c262: 33 17 b4 00  	sll	a4, s0, a1
   1c266: 33 58 f5 00  	srl	a6, a0, a5
   1c26a: b3 15 b5 00  	sll	a1, a0, a1
   1c26e: 33 67 07 01  	or	a4, a4, a6
   1c272: b3 35 b0 00  	sltu	a1, zero, a1
   1c276: 4d 8f        	c.or	a4, a1
   1c278: b3 57 f4 00  	srl	a5, s0, a5
   1c27c: 93 75 77 00  	andi	a1, a4, 0x7
   1c280: a5 c1        	c.beqz	a1, 0x1c2e0 <__multf3+0x570>
   1c282: 89 45        	c.li	a1, 0x2
   1c284: 13 69 19 00  	ori	s2, s2, 0x1
   1c288: 63 8b b9 04  	beq	s3, a1, 0x1c2de <__multf3+0x56e>
   1c28c: 8d 45        	c.li	a1, 0x3
   1c28e: 63 84 b9 04  	beq	s3, a1, 0x1c2d6 <__multf3+0x566>
   1c292: 63 97 09 04  	bne	s3, zero, 0x1c2e0 <__multf3+0x570>
   1c296: 93 75 f7 00  	andi	a1, a4, 0xf
   1c29a: 11 45        	c.li	a0, 0x4
   1c29c: 63 82 a5 04  	beq	a1, a0, 0x1c2e0 <__multf3+0x570>
   1c2a0: 93 05 47 00  	addi	a1, a4, 0x4
   1c2a4: 33 b5 e5 00  	sltu	a0, a1, a4
   1c2a8: aa 97        	c.add	a5, a0
   1c2aa: 2e 87        	c.mv	a4, a1
   1c2ac: 15 a8        	c.j	0x1c2e0 <__multf3+0x570>
   1c2ae: 1b 87 07 fc  	addiw	a4, a5, -0x40
   1c2b2: 93 08 00 04  	addi	a7, zero, 0x40
   1c2b6: 33 57 e4 00  	srl	a4, s0, a4
   1c2ba: 81 45        	c.li	a1, 0x0
   1c2bc: 63 07 18 01  	beq	a6, a7, 0x1c2ca <__multf3+0x55a>
   1c2c0: 93 05 00 08  	addi	a1, zero, 0x80
   1c2c4: 9d 9d        	c.subw	a1, a5
   1c2c6: b3 15 b4 00  	sll	a1, s0, a1
   1c2ca: c9 8d        	c.or	a1, a0
   1c2cc: b3 35 b0 00  	sltu	a1, zero, a1
   1c2d0: 4d 8f        	c.or	a4, a1
   1c2d2: 81 47        	c.li	a5, 0x0
   1c2d4: 65 b7        	c.j	0x1c27c <__multf3+0x50c>
   1c2d6: 09 e6        	c.bnez	a2, 0x1c2e0 <__multf3+0x570>
   1c2d8: 93 05 87 00  	addi	a1, a4, 0x8
   1c2dc: e1 b7        	c.j	0x1c2a4 <__multf3+0x534>
   1c2de: 6d fe        	c.bnez	a2, 0x1c2d8 <__multf3+0x568>
   1c2e0: 93 95 c7 00  	slli	a1, a5, 0xc
   1c2e4: 63 df 05 00  	bge	a1, zero, 0x1c302 <__multf3+0x592>
   1c2e8: 13 69 19 00  	ori	s2, s2, 0x1
   1c2ec: 81 47        	c.li	a5, 0x0
   1c2ee: 01 45        	c.li	a0, 0x0
   1c2f0: 05 47        	c.li	a4, 0x1
   1c2f2: e3 85 06 ea  	beq	a3, zero, 0x1c19c <__multf3+0x42c>
   1c2f6: 93 76 19 00  	andi	a3, s2, 0x1
   1c2fa: 86 06        	c.slli	a3, 0x1
   1c2fc: 33 e9 26 01  	or	s2, a3, s2
   1c300: 71 bd        	c.j	0x1c19c <__multf3+0x42c>
   1c302: 0d 83        	c.srli	a4, 0x3
   1c304: 13 95 d7 03  	slli	a0, a5, 0x3d
   1c308: 59 8d        	c.or	a0, a4
   1c30a: 8d 83        	c.srli	a5, 0x3
   1c30c: 01 47        	c.li	a4, 0x0
   1c30e: d5 b7        	c.j	0x1c2f2 <__multf3+0x582>
   1c310: 41 8d        	c.or	a0, s0
   1c312: 11 cd        	c.beqz	a0, 0x1c32e <__multf3+0x5be>
   1c314: 89 47        	c.li	a5, 0x2
   1c316: 13 69 19 00  	ori	s2, s2, 0x1
   1c31a: 63 83 f9 02  	beq	s3, a5, 0x1c340 <__multf3+0x5d0>
   1c31e: 8d 47        	c.li	a5, 0x3
   1c320: 63 8c f9 00  	beq	s3, a5, 0x1c338 <__multf3+0x5c8>
   1c324: 05 45        	c.li	a0, 0x1
   1c326: 63 93 09 00  	bne	s3, zero, 0x1c32c <__multf3+0x5bc>
   1c32a: 15 45        	c.li	a0, 0x5
   1c32c: 0d 81        	c.srli	a0, 0x3
   1c32e: 13 69 29 00  	ori	s2, s2, 0x2
   1c332: 81 47        	c.li	a5, 0x0
   1c334: 01 47        	c.li	a4, 0x0
   1c336: 9d b5        	c.j	0x1c19c <__multf3+0x42c>
   1c338: 25 45        	c.li	a0, 0x9
   1c33a: 6d da        	c.beqz	a2, 0x1c32c <__multf3+0x5bc>
   1c33c: 05 45        	c.li	a0, 0x1
   1c33e: fd b7        	c.j	0x1c32c <__multf3+0x5bc>
   1c340: 25 45        	c.li	a0, 0x9
   1c342: 6d f6        	c.bnez	a2, 0x1c32c <__multf3+0x5bc>
   1c344: e5 bf        	c.j	0x1c33c <__multf3+0x5cc>
   1c346: 41 49        	c.li	s2, 0x10
   1c348: 85 47        	c.li	a5, 0x1
   1c34a: 21 67        	c.lui	a4, 0x8
   1c34c: be 17        	c.slli	a5, 0x2f
   1c34e: 01 45        	c.li	a0, 0x0
   1c350: 7d 17        	c.addi	a4, -0x1
   1c352: 01 46        	c.li	a2, 0x0
   1c354: a1 b5        	c.j	0x1c19c <__multf3+0x42c>
   1c356: 21 67        	c.lui	a4, 0x8
   1c358: 81 47        	c.li	a5, 0x0
   1c35a: 01 45        	c.li	a0, 0x0
   1c35c: 7d 17        	c.addi	a4, -0x1
   1c35e: 3d bd        	c.j	0x1c19c <__multf3+0x42c>
   1c360: 81 47        	c.li	a5, 0x0
   1c362: 01 45        	c.li	a0, 0x0
   1c364: c1 bf        	c.j	0x1c334 <__multf3+0x5c4>

000000000001c366 <__subtf3>:
   1c366: 79 71        	c.addi16sp	sp, -0x30
   1c368: 06 f4        	c.sdsp	ra, 0x28(sp)
   1c36a: 22 f0        	c.sdsp	s0, 0x20(sp)
   1c36c: 26 ec        	c.sdsp	s1, 0x18(sp)
   1c36e: 4a e8        	c.sdsp	s2, 0x10(sp)
   1c370: 4e e4        	c.sdsp	s3, 0x8(sp)
   1c372: 52 e0        	c.sdsp	s4, 0x0(sp)
   1c374: f3 24 20 00  	csrrs	s1, frm, zero
   1c378: 7d 57        	c.li	a4, -0x1
   1c37a: 41 83        	c.srli	a4, 0x10
   1c37c: 13 d8 05 03  	srli	a6, a1, 0x30
   1c380: 13 d9 f5 03  	srli	s2, a1, 0x3f
   1c384: f9 8d        	c.and	a1, a4
   1c386: 8e 05        	c.slli	a1, 0x3
   1c388: 93 58 d5 03  	srli	a7, a0, 0x3d
   1c38c: a1 67        	c.lui	a5, 0x8
   1c38e: fd 17        	c.addi	a5, -0x1
   1c390: 13 d3 06 03  	srli	t1, a3, 0x30
   1c394: b3 e8 b8 00  	or	a7, a7, a1
   1c398: 93 d5 f6 03  	srli	a1, a3, 0x3f
   1c39c: f9 8e        	c.and	a3, a4
   1c39e: 33 78 f8 00  	and	a6, a6, a5
   1c3a2: 13 57 d6 03  	srli	a4, a2, 0x3d
   1c3a6: 8e 06        	c.slli	a3, 0x3
   1c3a8: 33 73 f3 00  	and	t1, t1, a5
   1c3ac: 81 24        	c.addiw	s1, 0x0
   1c3ae: c2 89        	c.mv	s3, a6
   1c3b0: 0e 05        	c.slli	a0, 0x3
   1c3b2: 55 8f        	c.or	a4, a3
   1c3b4: 0e 06        	c.slli	a2, 0x3
   1c3b6: 63 15 f3 00  	bne	t1, a5, 0x1c3c0 <__subtf3+0x5a>
   1c3ba: b3 67 c7 00  	or	a5, a4, a2
   1c3be: 99 e3        	c.bnez	a5, 0x1c3c4 <__subtf3+0x5e>
   1c3c0: 93 c5 15 00  	xori	a1, a1, 0x1
   1c3c4: bb 06 68 40  	subw	a3, a6, t1
   1c3c8: 21 6e        	c.lui	t3, 0x8
   1c3ca: 9b 87 06 00  	addiw	a5, a3, 0x0
   1c3ce: 7d 1e        	c.addi	t3, -0x1
   1c3d0: 63 97 25 2b  	bne	a1, s2, 0x1c67e <__subtf3+0x318>
   1c3d4: 63 58 f0 0e  	bge	zero, a5, 0x1c4c4 <__subtf3+0x15e>
   1c3d8: 63 19 03 06  	bne	t1, zero, 0x1c44a <__subtf3+0xe4>
   1c3dc: b3 67 c7 00  	or	a5, a4, a2
   1c3e0: 91 e7        	c.bnez	a5, 0x1c3ec <__subtf3+0x86>
   1c3e2: 63 07 c8 05  	beq	a6, t3, 0x1c430 <__subtf3+0xca>
   1c3e6: 46 87        	c.mv	a4, a7
   1c3e8: 2a 86        	c.mv	a2, a0
   1c3ea: f9 ab        	c.j	0x1c9c8 <__subtf3+0x662>
   1c3ec: 9b 87 f6 ff  	addiw	a5, a3, -0x1
   1c3f0: 95 ef        	c.bnez	a5, 0x1c42c <__subtf3+0xc6>
   1c3f2: 2a 96        	c.add	a2, a0
   1c3f4: 46 97        	c.add	a4, a7
   1c3f6: 33 35 a6 00  	sltu	a0, a2, a0
   1c3fa: 2a 97        	c.add	a4, a0
   1c3fc: 93 16 c7 00  	slli	a3, a4, 0xc
   1c400: 81 47        	c.li	a5, 0x0
   1c402: 63 d4 06 0e  	bge	a3, zero, 0x1c4ea <__subtf3+0x184>
   1c406: a1 66        	c.lui	a3, 0x8
   1c408: 85 09        	c.addi	s3, 0x1
   1c40a: fd 16        	c.addi	a3, -0x1
   1c40c: 63 85 d9 24  	beq	s3, a3, 0x1c656 <__subtf3+0x2f0>
   1c410: fd 56        	c.li	a3, -0x1
   1c412: ce 16        	c.slli	a3, 0x33
   1c414: fd 16        	c.addi	a3, -0x1
   1c416: f9 8e        	c.and	a3, a4
   1c418: 13 57 16 00  	srli	a4, a2, 0x1
   1c41c: 05 8a        	c.andi	a2, 0x1
   1c41e: 51 8f        	c.or	a4, a2
   1c420: 13 96 f6 03  	slli	a2, a3, 0x3f
   1c424: 59 8e        	c.or	a2, a4
   1c426: 13 d7 16 00  	srli	a4, a3, 0x1
   1c42a: c1 a0        	c.j	0x1c4ea <__subtf3+0x184>
   1c42c: 63 14 c8 03  	bne	a6, t3, 0x1c454 <__subtf3+0xee>
   1c430: 33 e6 a8 00  	or	a2, a7, a0
   1c434: 63 0c 06 6c  	beq	a2, zero, 0x1cb0c <__subtf3+0x7a6>
   1c438: 93 d7 28 03  	srli	a5, a7, 0x32
   1c43c: 93 c7 17 00  	xori	a5, a5, 0x1
   1c440: 85 8b        	c.andi	a5, 0x1
   1c442: 92 07        	c.slli	a5, 0x4
   1c444: 46 87        	c.mv	a4, a7
   1c446: 2a 86        	c.mv	a2, a0
   1c448: 4d a0        	c.j	0x1c4ea <__subtf3+0x184>
   1c44a: e3 03 c8 ff  	beq	a6, t3, 0x1c430 <__subtf3+0xca>
   1c44e: 85 46        	c.li	a3, 0x1
   1c450: ce 16        	c.slli	a3, 0x33
   1c452: 55 8f        	c.or	a4, a3
   1c454: 93 06 40 07  	addi	a3, zero, 0x74
   1c458: 63 c1 f6 06  	blt	a3, a5, 0x1c4ba <__subtf3+0x154>
   1c45c: 93 06 f0 03  	addi	a3, zero, 0x3f
   1c460: 63 c9 f6 02  	blt	a3, a5, 0x1c492 <__subtf3+0x12c>
   1c464: 93 05 00 04  	addi	a1, zero, 0x40
   1c468: 9d 9d        	c.subw	a1, a5
   1c46a: b3 16 b7 00  	sll	a3, a4, a1
   1c46e: 33 58 f6 00  	srl	a6, a2, a5
   1c472: b3 15 b6 00  	sll	a1, a2, a1
   1c476: b3 e6 06 01  	or	a3, a3, a6
   1c47a: b3 35 b0 00  	sltu	a1, zero, a1
   1c47e: cd 8e        	c.or	a3, a1
   1c480: 33 57 f7 00  	srl	a4, a4, a5
   1c484: 36 95        	c.add	a0, a3
   1c486: 46 97        	c.add	a4, a7
   1c488: b3 36 d5 00  	sltu	a3, a0, a3
   1c48c: 2a 86        	c.mv	a2, a0
   1c48e: 36 97        	c.add	a4, a3
   1c490: b5 b7        	c.j	0x1c3fc <__subtf3+0x96>
   1c492: 9b 86 07 fc  	addiw	a3, a5, -0x40
   1c496: 13 08 00 04  	addi	a6, zero, 0x40
   1c49a: b3 56 d7 00  	srl	a3, a4, a3
   1c49e: 81 45        	c.li	a1, 0x0
   1c4a0: 63 87 07 01  	beq	a5, a6, 0x1c4ae <__subtf3+0x148>
   1c4a4: 93 05 00 08  	addi	a1, zero, 0x80
   1c4a8: 9d 9d        	c.subw	a1, a5
   1c4aa: b3 15 b7 00  	sll	a1, a4, a1
   1c4ae: d1 8d        	c.or	a1, a2
   1c4b0: b3 35 b0 00  	sltu	a1, zero, a1
   1c4b4: cd 8e        	c.or	a3, a1
   1c4b6: 01 47        	c.li	a4, 0x0
   1c4b8: f1 b7        	c.j	0x1c484 <__subtf3+0x11e>
   1c4ba: b3 66 c7 00  	or	a3, a4, a2
   1c4be: b3 36 d0 00  	sltu	a3, zero, a3
   1c4c2: d5 bf        	c.j	0x1c4b6 <__subtf3+0x150>
   1c4c4: e9 c7        	c.beqz	a5, 0x1c58e <__subtf3+0x228>
   1c4c6: 63 12 08 08  	bne	a6, zero, 0x1c54a <__subtf3+0x1e4>
   1c4ca: b3 e7 a8 00  	or	a5, a7, a0
   1c4ce: 95 e3        	c.bnez	a5, 0x1c4f2 <__subtf3+0x18c>
   1c4d0: 63 1c c3 63  	bne	t1, t3, 0x1cb08 <__subtf3+0x7a2>
   1c4d4: b3 67 c7 00  	or	a5, a4, a2
   1c4d8: 63 86 07 62  	beq	a5, zero, 0x1cb04 <__subtf3+0x79e>
   1c4dc: 93 57 27 03  	srli	a5, a4, 0x32
   1c4e0: 93 c7 17 00  	xori	a5, a5, 0x1
   1c4e4: 85 8b        	c.andi	a5, 0x1
   1c4e6: 92 07        	c.slli	a5, 0x4
   1c4e8: 9a 89        	c.mv	s3, t1
   1c4ea: ba 88        	c.mv	a7, a4
   1c4ec: 32 85        	c.mv	a0, a2
   1c4ee: 01 47        	c.li	a4, 0x0
   1c4f0: 31 ab        	c.j	0x1ca0c <__subtf3+0x6a6>
   1c4f2: 93 c7 f6 ff  	xori	a5, a3, -0x1
   1c4f6: 81 27        	c.addiw	a5, 0x0
   1c4f8: 81 eb        	c.bnez	a5, 0x1c508 <__subtf3+0x1a2>
   1c4fa: 2a 96        	c.add	a2, a0
   1c4fc: 46 97        	c.add	a4, a7
   1c4fe: 33 35 a6 00  	sltu	a0, a2, a0
   1c502: 2a 97        	c.add	a4, a0
   1c504: 9a 89        	c.mv	s3, t1
   1c506: dd bd        	c.j	0x1c3fc <__subtf3+0x96>
   1c508: e3 06 c3 fd  	beq	t1, t3, 0x1c4d4 <__subtf3+0x16e>
   1c50c: 93 06 40 07  	addi	a3, zero, 0x74
   1c510: 63 ca f6 06  	blt	a3, a5, 0x1c584 <__subtf3+0x21e>
   1c514: 93 06 f0 03  	addi	a3, zero, 0x3f
   1c518: 63 c2 f6 04  	blt	a3, a5, 0x1c55c <__subtf3+0x1f6>
   1c51c: 93 05 00 04  	addi	a1, zero, 0x40
   1c520: 9d 9d        	c.subw	a1, a5
   1c522: b3 96 b8 00  	sll	a3, a7, a1
   1c526: 33 58 f5 00  	srl	a6, a0, a5
   1c52a: b3 15 b5 00  	sll	a1, a0, a1
   1c52e: b3 e6 06 01  	or	a3, a3, a6
   1c532: b3 35 b0 00  	sltu	a1, zero, a1
   1c536: cd 8e        	c.or	a3, a1
   1c538: b3 d7 f8 00  	srl	a5, a7, a5
   1c53c: 36 96        	c.add	a2, a3
   1c53e: ba 97        	c.add	a5, a4
   1c540: b3 36 d6 00  	sltu	a3, a2, a3
   1c544: 33 87 d7 00  	add	a4, a5, a3
   1c548: 75 bf        	c.j	0x1c504 <__subtf3+0x19e>
   1c54a: e3 05 c3 f9  	beq	t1, t3, 0x1c4d4 <__subtf3+0x16e>
   1c54e: bb 07 d0 40  	subw	a5, zero, a3
   1c552: 85 46        	c.li	a3, 0x1
   1c554: ce 16        	c.slli	a3, 0x33
   1c556: b3 e8 d8 00  	or	a7, a7, a3
   1c55a: 4d bf        	c.j	0x1c50c <__subtf3+0x1a6>
   1c55c: 9b 86 07 fc  	addiw	a3, a5, -0x40
   1c560: 13 08 00 04  	addi	a6, zero, 0x40
   1c564: b3 d6 d8 00  	srl	a3, a7, a3
   1c568: 81 45        	c.li	a1, 0x0
   1c56a: 63 87 07 01  	beq	a5, a6, 0x1c578 <__subtf3+0x212>
   1c56e: 93 05 00 08  	addi	a1, zero, 0x80
   1c572: 9d 9d        	c.subw	a1, a5
   1c574: b3 95 b8 00  	sll	a1, a7, a1
   1c578: c9 8d        	c.or	a1, a0
   1c57a: b3 35 b0 00  	sltu	a1, zero, a1
   1c57e: cd 8e        	c.or	a3, a1
   1c580: 81 47        	c.li	a5, 0x0
   1c582: 6d bf        	c.j	0x1c53c <__subtf3+0x1d6>
   1c584: b3 e6 a8 00  	or	a3, a7, a0
   1c588: b3 36 d0 00  	sltu	a3, zero, a3
   1c58c: d5 bf        	c.j	0x1c580 <__subtf3+0x21a>
   1c58e: 93 06 18 00  	addi	a3, a6, 0x1
   1c592: 93 9e 16 03  	slli	t4, a3, 0x31
   1c596: a1 65        	c.lui	a1, 0x8
   1c598: 93 de 2e 03  	srli	t4, t4, 0x32
   1c59c: f9 15        	c.addi	a1, -0x2
   1c59e: 63 9d 0e 06  	bne	t4, zero, 0x1c618 <__subtf3+0x2b2>
   1c5a2: b3 e6 a8 00  	or	a3, a7, a0
   1c5a6: 63 19 08 02  	bne	a6, zero, 0x1c5d8 <__subtf3+0x272>
   1c5aa: 63 88 06 56  	beq	a3, zero, 0x1cb1a <__subtf3+0x7b4>
   1c5ae: b3 66 c7 00  	or	a3, a4, a2
   1c5b2: 63 88 06 56  	beq	a3, zero, 0x1cb22 <__subtf3+0x7bc>
   1c5b6: 2a 96        	c.add	a2, a0
   1c5b8: 46 97        	c.add	a4, a7
   1c5ba: 33 35 a6 00  	sltu	a0, a2, a0
   1c5be: b3 08 a7 00  	add	a7, a4, a0
   1c5c2: 13 97 c8 00  	slli	a4, a7, 0xc
   1c5c6: 63 5b 07 26  	bge	a4, zero, 0x1c83c <__subtf3+0x4d6>
   1c5ca: 7d 57        	c.li	a4, -0x1
   1c5cc: 4e 17        	c.slli	a4, 0x33
   1c5ce: 7d 17        	c.addi	a4, -0x1
   1c5d0: 33 f7 e8 00  	and	a4, a7, a4
   1c5d4: 85 49        	c.li	s3, 0x1
   1c5d6: 11 bf        	c.j	0x1c4ea <__subtf3+0x184>
   1c5d8: 63 15 c8 03  	bne	a6, t3, 0x1c602 <__subtf3+0x29c>
   1c5dc: 63 8b 06 54  	beq	a3, zero, 0x1cb32 <__subtf3+0x7cc>
   1c5e0: 93 d7 28 03  	srli	a5, a7, 0x32
   1c5e4: 93 c7 17 00  	xori	a5, a5, 0x1
   1c5e8: 85 8b        	c.andi	a5, 0x1
   1c5ea: 92 07        	c.slli	a5, 0x4
   1c5ec: 63 1e 03 01  	bne	t1, a6, 0x1c608 <__subtf3+0x2a2>
   1c5f0: b3 65 c7 00  	or	a1, a4, a2
   1c5f4: 89 c9        	c.beqz	a1, 0x1c606 <__subtf3+0x2a0>
   1c5f6: 93 15 d7 00  	slli	a1, a4, 0xd
   1c5fa: 63 c6 05 00  	blt	a1, zero, 0x1c606 <__subtf3+0x2a0>
   1c5fe: c1 47        	c.li	a5, 0x10
   1c600: 19 a0        	c.j	0x1c606 <__subtf3+0x2a0>
   1c602: e3 07 c3 ff  	beq	t1, t3, 0x1c5f0 <__subtf3+0x28a>
   1c606: 91 c6        	c.beqz	a3, 0x1c612 <__subtf3+0x2ac>
   1c608: 51 8f        	c.or	a4, a2
   1c60a: 63 1e 07 2c  	bne	a4, zero, 0x1c8e6 <__subtf3+0x580>
   1c60e: 46 87        	c.mv	a4, a7
   1c610: 2a 86        	c.mv	a2, a0
   1c612: a1 69        	c.lui	s3, 0x8
   1c614: fd 19        	c.addi	s3, -0x1
   1c616: d1 bd        	c.j	0x1c4ea <__subtf3+0x184>
   1c618: 63 8e c6 01  	beq	a3, t3, 0x1c634 <__subtf3+0x2ce>
   1c61c: 2a 96        	c.add	a2, a0
   1c61e: 33 35 a6 00  	sltu	a0, a2, a0
   1c622: 46 97        	c.add	a4, a7
   1c624: 2a 97        	c.add	a4, a0
   1c626: 93 15 f7 03  	slli	a1, a4, 0x3f
   1c62a: 05 82        	c.srli	a2, 0x1
   1c62c: 4d 8e        	c.or	a2, a1
   1c62e: 05 83        	c.srli	a4, 0x1
   1c630: b6 89        	c.mv	s3, a3
   1c632: 65 bd        	c.j	0x1c4ea <__subtf3+0x184>
   1c634: 99 cc        	c.beqz	s1, 0x1c652 <__subtf3+0x2ec>
   1c636: 8d 47        	c.li	a5, 0x3
   1c638: 63 98 f4 00  	bne	s1, a5, 0x1c648 <__subtf3+0x2e2>
   1c63c: 63 0b 09 00  	beq	s2, zero, 0x1c652 <__subtf3+0x2ec>
   1c640: 7d 57        	c.li	a4, -0x1
   1c642: 7d 56        	c.li	a2, -0x1
   1c644: ae 89        	c.mv	s3, a1
   1c646: 15 a8        	c.j	0x1c67a <__subtf3+0x314>
   1c648: 89 47        	c.li	a5, 0x2
   1c64a: e3 9b f4 fe  	bne	s1, a5, 0x1c640 <__subtf3+0x2da>
   1c64e: e3 09 09 fe  	beq	s2, zero, 0x1c640 <__subtf3+0x2da>
   1c652: b6 89        	c.mv	s3, a3
   1c654: 0d a0        	c.j	0x1c676 <__subtf3+0x310>
   1c656: 85 c0        	c.beqz	s1, 0x1c676 <__subtf3+0x310>
   1c658: 8d 47        	c.li	a5, 0x3
   1c65a: 63 99 f4 00  	bne	s1, a5, 0x1c66c <__subtf3+0x306>
   1c65e: 63 0c 09 00  	beq	s2, zero, 0x1c676 <__subtf3+0x310>
   1c662: a1 69        	c.lui	s3, 0x8
   1c664: 7d 57        	c.li	a4, -0x1
   1c666: 7d 56        	c.li	a2, -0x1
   1c668: f9 19        	c.addi	s3, -0x2
   1c66a: 01 a8        	c.j	0x1c67a <__subtf3+0x314>
   1c66c: 89 47        	c.li	a5, 0x2
   1c66e: e3 9a f4 fe  	bne	s1, a5, 0x1c662 <__subtf3+0x2fc>
   1c672: e3 08 09 fe  	beq	s2, zero, 0x1c662 <__subtf3+0x2fc>
   1c676: 01 47        	c.li	a4, 0x0
   1c678: 01 46        	c.li	a2, 0x0
   1c67a: 95 47        	c.li	a5, 0x5
   1c67c: bd b5        	c.j	0x1c4ea <__subtf3+0x184>
   1c67e: 63 58 f0 0a  	bge	zero, a5, 0x1c72e <__subtf3+0x3c8>
   1c682: 63 17 03 06  	bne	t1, zero, 0x1c6f0 <__subtf3+0x38a>
   1c686: b3 67 c7 00  	or	a5, a4, a2
   1c68a: e3 8c 07 d4  	beq	a5, zero, 0x1c3e2 <__subtf3+0x7c>
   1c68e: 9b 87 f6 ff  	addiw	a5, a3, -0x1
   1c692: 8d e3        	c.bnez	a5, 0x1c6b4 <__subtf3+0x34e>
   1c694: 33 06 c5 40  	sub	a2, a0, a2
   1c698: 33 87 e8 40  	sub	a4, a7, a4
   1c69c: 33 35 c5 00  	sltu	a0, a0, a2
   1c6a0: 09 8f        	c.sub	a4, a0
   1c6a2: 93 17 c7 00  	slli	a5, a4, 0xc
   1c6a6: 63 d1 07 32  	bge	a5, zero, 0x1c9c8 <__subtf3+0x662>
   1c6aa: 13 14 d7 00  	slli	s0, a4, 0xd
   1c6ae: 35 80        	c.srli	s0, 0xd
   1c6b0: 32 8a        	c.mv	s4, a2
   1c6b2: 9d a4        	c.j	0x1c918 <__subtf3+0x5b2>
   1c6b4: e3 0e c8 d7  	beq	a6, t3, 0x1c430 <__subtf3+0xca>
   1c6b8: 93 06 40 07  	addi	a3, zero, 0x74
   1c6bc: 63 c4 f6 06  	blt	a3, a5, 0x1c724 <__subtf3+0x3be>
   1c6c0: 93 06 f0 03  	addi	a3, zero, 0x3f
   1c6c4: 63 cc f6 02  	blt	a3, a5, 0x1c6fc <__subtf3+0x396>
   1c6c8: 93 05 00 04  	addi	a1, zero, 0x40
   1c6cc: 9d 9d        	c.subw	a1, a5
   1c6ce: b3 16 b7 00  	sll	a3, a4, a1
   1c6d2: 33 58 f6 00  	srl	a6, a2, a5
   1c6d6: b3 15 b6 00  	sll	a1, a2, a1
   1c6da: b3 e6 06 01  	or	a3, a3, a6
   1c6de: b3 35 b0 00  	sltu	a1, zero, a1
   1c6e2: cd 8e        	c.or	a3, a1
   1c6e4: 33 57 f7 00  	srl	a4, a4, a5
   1c6e8: b3 06 d5 40  	sub	a3, a0, a3
   1c6ec: 36 86        	c.mv	a2, a3
   1c6ee: 6d b7        	c.j	0x1c698 <__subtf3+0x332>
   1c6f0: e3 00 c8 d5  	beq	a6, t3, 0x1c430 <__subtf3+0xca>
   1c6f4: 85 46        	c.li	a3, 0x1
   1c6f6: ce 16        	c.slli	a3, 0x33
   1c6f8: 55 8f        	c.or	a4, a3
   1c6fa: 7d bf        	c.j	0x1c6b8 <__subtf3+0x352>
   1c6fc: 9b 86 07 fc  	addiw	a3, a5, -0x40
   1c700: 13 08 00 04  	addi	a6, zero, 0x40
   1c704: b3 56 d7 00  	srl	a3, a4, a3
   1c708: 81 45        	c.li	a1, 0x0
   1c70a: 63 87 07 01  	beq	a5, a6, 0x1c718 <__subtf3+0x3b2>
   1c70e: 93 05 00 08  	addi	a1, zero, 0x80
   1c712: 9d 9d        	c.subw	a1, a5
   1c714: b3 15 b7 00  	sll	a1, a4, a1
   1c718: d1 8d        	c.or	a1, a2
   1c71a: b3 35 b0 00  	sltu	a1, zero, a1
   1c71e: cd 8e        	c.or	a3, a1
   1c720: 01 47        	c.li	a4, 0x0
   1c722: d9 b7        	c.j	0x1c6e8 <__subtf3+0x382>
   1c724: b3 66 c7 00  	or	a3, a4, a2
   1c728: b3 36 d0 00  	sltu	a3, zero, a3
   1c72c: d5 bf        	c.j	0x1c720 <__subtf3+0x3ba>
   1c72e: f9 cf        	c.beqz	a5, 0x1c80c <__subtf3+0x4a6>
   1c730: 63 19 08 08  	bne	a6, zero, 0x1c7c2 <__subtf3+0x45c>
   1c734: b3 e7 a8 00  	or	a5, a7, a0
   1c738: 85 e3        	c.bnez	a5, 0x1c758 <__subtf3+0x3f2>
   1c73a: 63 1d c3 3d  	bne	t1, t3, 0x1cb14 <__subtf3+0x7ae>
   1c73e: b3 67 c7 00  	or	a5, a4, a2
   1c742: 63 87 07 3c  	beq	a5, zero, 0x1cb10 <__subtf3+0x7aa>
   1c746: 93 57 27 03  	srli	a5, a4, 0x32
   1c74a: 93 c7 17 00  	xori	a5, a5, 0x1
   1c74e: 85 8b        	c.andi	a5, 0x1
   1c750: 92 07        	c.slli	a5, 0x4
   1c752: 9a 89        	c.mv	s3, t1
   1c754: 2e 89        	c.mv	s2, a1
   1c756: 51 bb        	c.j	0x1c4ea <__subtf3+0x184>
   1c758: 93 c7 f6 ff  	xori	a5, a3, -0x1
   1c75c: 81 27        	c.addiw	a5, 0x0
   1c75e: 81 ef        	c.bnez	a5, 0x1c776 <__subtf3+0x410>
   1c760: 33 05 a6 40  	sub	a0, a2, a0
   1c764: b3 37 a6 00  	sltu	a5, a2, a0
   1c768: 33 07 17 41  	sub	a4, a4, a7
   1c76c: 2a 86        	c.mv	a2, a0
   1c76e: 1d 8f        	c.sub	a4, a5
   1c770: 9a 89        	c.mv	s3, t1
   1c772: 2e 89        	c.mv	s2, a1
   1c774: 3d b7        	c.j	0x1c6a2 <__subtf3+0x33c>
   1c776: e3 04 c3 fd  	beq	t1, t3, 0x1c73e <__subtf3+0x3d8>
   1c77a: 93 06 40 07  	addi	a3, zero, 0x74
   1c77e: 63 c2 f6 08  	blt	a3, a5, 0x1c802 <__subtf3+0x49c>
   1c782: 93 06 f0 03  	addi	a3, zero, 0x3f
   1c786: 63 c7 f6 04  	blt	a3, a5, 0x1c7d4 <__subtf3+0x46e>
   1c78a: 13 08 00 04  	addi	a6, zero, 0x40
   1c78e: 3b 08 f8 40  	subw	a6, a6, a5
   1c792: b3 96 08 01  	sll	a3, a7, a6
   1c796: 33 5e f5 00  	srl	t3, a0, a5
   1c79a: 33 18 05 01  	sll	a6, a0, a6
   1c79e: b3 e6 c6 01  	or	a3, a3, t3
   1c7a2: 33 38 00 01  	sltu	a6, zero, a6
   1c7a6: b3 e6 06 01  	or	a3, a3, a6
   1c7aa: b3 d7 f8 00  	srl	a5, a7, a5
   1c7ae: b3 06 d6 40  	sub	a3, a2, a3
   1c7b2: 33 35 d6 00  	sltu	a0, a2, a3
   1c7b6: b3 07 f7 40  	sub	a5, a4, a5
   1c7ba: 36 86        	c.mv	a2, a3
   1c7bc: 33 87 a7 40  	sub	a4, a5, a0
   1c7c0: 45 bf        	c.j	0x1c770 <__subtf3+0x40a>
   1c7c2: e3 0e c3 f7  	beq	t1, t3, 0x1c73e <__subtf3+0x3d8>
   1c7c6: bb 07 d0 40  	subw	a5, zero, a3
   1c7ca: 85 46        	c.li	a3, 0x1
   1c7cc: ce 16        	c.slli	a3, 0x33
   1c7ce: b3 e8 d8 00  	or	a7, a7, a3
   1c7d2: 65 b7        	c.j	0x1c77a <__subtf3+0x414>
   1c7d4: 9b 86 07 fc  	addiw	a3, a5, -0x40
   1c7d8: 13 0e 00 04  	addi	t3, zero, 0x40
   1c7dc: b3 d6 d8 00  	srl	a3, a7, a3
   1c7e0: 01 48        	c.li	a6, 0x0
   1c7e2: 63 88 c7 01  	beq	a5, t3, 0x1c7f2 <__subtf3+0x48c>
   1c7e6: 13 08 00 08  	addi	a6, zero, 0x80
   1c7ea: 3b 08 f8 40  	subw	a6, a6, a5
   1c7ee: 33 98 08 01  	sll	a6, a7, a6
   1c7f2: 33 68 a8 00  	or	a6, a6, a0
   1c7f6: 33 38 00 01  	sltu	a6, zero, a6
   1c7fa: b3 e6 06 01  	or	a3, a3, a6
   1c7fe: 81 47        	c.li	a5, 0x0
   1c800: 7d b7        	c.j	0x1c7ae <__subtf3+0x448>
   1c802: b3 e6 a8 00  	or	a3, a7, a0
   1c806: b3 36 d0 00  	sltu	a3, zero, a3
   1c80a: d5 bf        	c.j	0x1c7fe <__subtf3+0x498>
   1c80c: 93 06 18 00  	addi	a3, a6, 0x1
   1c810: 93 9e 16 03  	slli	t4, a3, 0x31
   1c814: 93 de 2e 03  	srli	t4, t4, 0x32
   1c818: 63 9c 0e 0c  	bne	t4, zero, 0x1c8f0 <__subtf3+0x58a>
   1c81c: b3 66 c7 00  	or	a3, a4, a2
   1c820: b3 ee a8 00  	or	t4, a7, a0
   1c824: 63 17 08 06  	bne	a6, zero, 0x1c892 <__subtf3+0x52c>
   1c828: 63 92 0e 02  	bne	t4, zero, 0x1c84c <__subtf3+0x4e6>
   1c82c: 63 99 06 2e  	bne	a3, zero, 0x1cb1e <__subtf3+0x7b8>
   1c830: 13 89 e4 ff  	addi	s2, s1, -0x2
   1c834: 13 39 19 00  	sltiu	s2, s2, 0x1
   1c838: 81 48        	c.li	a7, 0x0
   1c83a: 01 46        	c.li	a2, 0x0
   1c83c: 33 e5 c8 00  	or	a0, a7, a2
   1c840: 63 16 05 18  	bne	a0, zero, 0x1c9cc <__subtf3+0x666>
   1c844: 81 48        	c.li	a7, 0x0
   1c846: 81 49        	c.li	s3, 0x0
   1c848: 81 47        	c.li	a5, 0x0
   1c84a: 0d a4        	c.j	0x1ca6c <__subtf3+0x706>
   1c84c: 63 8b 06 2c  	beq	a3, zero, 0x1cb22 <__subtf3+0x7bc>
   1c850: b3 06 c5 40  	sub	a3, a0, a2
   1c854: 33 38 d5 00  	sltu	a6, a0, a3
   1c858: b3 87 e8 40  	sub	a5, a7, a4
   1c85c: b3 87 07 41  	sub	a5, a5, a6
   1c860: 13 98 c7 00  	slli	a6, a5, 0xc
   1c864: 63 5d 08 00  	bge	a6, zero, 0x1c87e <__subtf3+0x518>
   1c868: 33 05 a6 40  	sub	a0, a2, a0
   1c86c: b3 37 a6 00  	sltu	a5, a2, a0
   1c870: 33 07 17 41  	sub	a4, a4, a7
   1c874: 2a 86        	c.mv	a2, a0
   1c876: b3 08 f7 40  	sub	a7, a4, a5
   1c87a: 2e 89        	c.mv	s2, a1
   1c87c: c1 b7        	c.j	0x1c83c <__subtf3+0x4d6>
   1c87e: 33 e6 f6 00  	or	a2, a3, a5
   1c882: 63 12 06 2a  	bne	a2, zero, 0x1cb26 <__subtf3+0x7c0>
   1c886: 13 89 e4 ff  	addi	s2, s1, -0x2
   1c88a: 13 39 19 00  	sltiu	s2, s2, 0x1
   1c88e: 81 48        	c.li	a7, 0x0
   1c890: 75 b7        	c.j	0x1c83c <__subtf3+0x4d6>
   1c892: 63 19 c8 03  	bne	a6, t3, 0x1c8c4 <__subtf3+0x55e>
   1c896: 63 8b 0e 28  	beq	t4, zero, 0x1cb2c <__subtf3+0x7c6>
   1c89a: 93 d7 28 03  	srli	a5, a7, 0x32
   1c89e: 93 c7 17 00  	xori	a5, a5, 0x1
   1c8a2: 85 8b        	c.andi	a5, 0x1
   1c8a4: 92 07        	c.slli	a5, 0x4
   1c8a6: 63 1e 03 03  	bne	t1, a6, 0x1c8e2 <__subtf3+0x57c>
   1c8aa: 99 ce        	c.beqz	a3, 0x1c8c8 <__subtf3+0x562>
   1c8ac: 05 48        	c.li	a6, 0x1
   1c8ae: 13 13 d7 00  	slli	t1, a4, 0xd
   1c8b2: 4a 18        	c.slli	a6, 0x32
   1c8b4: 63 4a 03 00  	blt	t1, zero, 0x1c8c8 <__subtf3+0x562>
   1c8b8: 2e 89        	c.mv	s2, a1
   1c8ba: 63 80 0e 02  	beq	t4, zero, 0x1c8da <__subtf3+0x574>
   1c8be: 01 49        	c.li	s2, 0x0
   1c8c0: 42 87        	c.mv	a4, a6
   1c8c2: 19 a8        	c.j	0x1c8d8 <__subtf3+0x572>
   1c8c4: e3 03 c3 ff  	beq	t1, t3, 0x1c8aa <__subtf3+0x544>
   1c8c8: 63 9d 0e 00  	bne	t4, zero, 0x1c8e2 <__subtf3+0x57c>
   1c8cc: 2e 89        	c.mv	s2, a1
   1c8ce: e3 92 06 d4  	bne	a3, zero, 0x1c612 <__subtf3+0x2ac>
   1c8d2: 05 47        	c.li	a4, 0x1
   1c8d4: 01 49        	c.li	s2, 0x0
   1c8d6: 4a 17        	c.slli	a4, 0x32
   1c8d8: 01 46        	c.li	a2, 0x0
   1c8da: a1 69        	c.lui	s3, 0x8
   1c8dc: fd 19        	c.addi	s3, -0x1
   1c8de: c1 47        	c.li	a5, 0x10
   1c8e0: 29 b1        	c.j	0x1c4ea <__subtf3+0x184>
   1c8e2: e3 86 06 d2  	beq	a3, zero, 0x1c60e <__subtf3+0x2a8>
   1c8e6: 05 47        	c.li	a4, 0x1
   1c8e8: 01 49        	c.li	s2, 0x0
   1c8ea: 4a 17        	c.slli	a4, 0x32
   1c8ec: 01 46        	c.li	a2, 0x0
   1c8ee: 15 b3        	c.j	0x1c612 <__subtf3+0x2ac>
   1c8f0: b3 07 c5 40  	sub	a5, a0, a2
   1c8f4: b3 36 f5 00  	sltu	a3, a0, a5
   1c8f8: 33 84 e8 40  	sub	s0, a7, a4
   1c8fc: 15 8c        	c.sub	s0, a3
   1c8fe: 93 16 c4 00  	slli	a3, s0, 0xc
   1c902: 3e 8a        	c.mv	s4, a5
   1c904: 63 d5 06 06  	bge	a3, zero, 0x1c96e <__subtf3+0x608>
   1c908: 33 0a a6 40  	sub	s4, a2, a0
   1c90c: 33 04 17 41  	sub	s0, a4, a7
   1c910: 33 36 46 01  	sltu	a2, a2, s4
   1c914: 11 8c        	c.sub	s0, a2
   1c916: 2e 89        	c.mv	s2, a1
   1c918: 39 cc        	c.beqz	s0, 0x1c976 <__subtf3+0x610>
   1c91a: 22 85        	c.mv	a0, s0
   1c91c: ef 00 a0 4c  	jal	ra, 0x1cde6 <__clzdi2>
   1c920: 1b 06 45 ff  	addiw	a2, a0, -0xc
   1c924: 13 07 00 04  	addi	a4, zero, 0x40
   1c928: 11 9f        	c.subw	a4, a2
   1c92a: 33 14 c4 00  	sll	s0, s0, a2
   1c92e: 33 57 ea 00  	srl	a4, s4, a4
   1c932: 41 8f        	c.or	a4, s0
   1c934: 33 14 ca 00  	sll	s0, s4, a2
   1c938: 63 41 36 09  	blt	a2, s3, 0x1c9ba <__subtf3+0x654>
   1c93c: 3b 06 36 41  	subw	a2, a2, s3
   1c940: 9b 08 16 00  	addiw	a7, a2, 0x1
   1c944: 93 07 f0 03  	addi	a5, zero, 0x3f
   1c948: 63 c5 17 05  	blt	a5, a7, 0x1c992 <__subtf3+0x62c>
   1c94c: 93 07 00 04  	addi	a5, zero, 0x40
   1c950: bb 87 17 41  	subw	a5, a5, a7
   1c954: 33 16 f7 00  	sll	a2, a4, a5
   1c958: b3 56 14 01  	srl	a3, s0, a7
   1c95c: b3 17 f4 00  	sll	a5, s0, a5
   1c960: 55 8e        	c.or	a2, a3
   1c962: b3 37 f0 00  	sltu	a5, zero, a5
   1c966: 5d 8e        	c.or	a2, a5
   1c968: b3 58 17 01  	srl	a7, a4, a7
   1c96c: c1 bd        	c.j	0x1c83c <__subtf3+0x4d6>
   1c96e: 33 e6 87 00  	or	a2, a5, s0
   1c972: 5d f2        	c.bnez	a2, 0x1c918 <__subtf3+0x5b2>
   1c974: 09 bf        	c.j	0x1c886 <__subtf3+0x520>
   1c976: 52 85        	c.mv	a0, s4
   1c978: ef 00 e0 46  	jal	ra, 0x1cde6 <__clzdi2>
   1c97c: 1b 06 45 03  	addiw	a2, a0, 0x34
   1c980: 93 07 f0 03  	addi	a5, zero, 0x3f
   1c984: e3 d0 c7 fa  	bge	a5, a2, 0x1c924 <__subtf3+0x5be>
   1c988: 1b 07 45 ff  	addiw	a4, a0, -0xc
   1c98c: 33 17 ea 00  	sll	a4, s4, a4
   1c990: 65 b7        	c.j	0x1c938 <__subtf3+0x5d2>
   1c992: 1b 06 16 fc  	addiw	a2, a2, -0x3f
   1c996: 93 05 00 04  	addi	a1, zero, 0x40
   1c99a: 33 56 c7 00  	srl	a2, a4, a2
   1c99e: 81 47        	c.li	a5, 0x0
   1c9a0: 63 88 b8 00  	beq	a7, a1, 0x1c9b0 <__subtf3+0x64a>
   1c9a4: 93 07 00 08  	addi	a5, zero, 0x80
   1c9a8: bb 87 17 41  	subw	a5, a5, a7
   1c9ac: b3 17 f7 00  	sll	a5, a4, a5
   1c9b0: c1 8f        	c.or	a5, s0
   1c9b2: b3 37 f0 00  	sltu	a5, zero, a5
   1c9b6: 5d 8e        	c.or	a2, a5
   1c9b8: d9 bd        	c.j	0x1c88e <__subtf3+0x528>
   1c9ba: fd 57        	c.li	a5, -0x1
   1c9bc: ce 17        	c.slli	a5, 0x33
   1c9be: fd 17        	c.addi	a5, -0x1
   1c9c0: b3 89 c9 40  	sub	s3, s3, a2
   1c9c4: 7d 8f        	c.and	a4, a5
   1c9c6: 22 86        	c.mv	a2, s0
   1c9c8: 81 47        	c.li	a5, 0x0
   1c9ca: 05 b6        	c.j	0x1c4ea <__subtf3+0x184>
   1c9cc: 93 16 16 00  	slli	a3, a2, 0x1
   1c9d0: 93 57 f6 03  	srli	a5, a2, 0x3f
   1c9d4: 13 97 18 00  	slli	a4, a7, 0x1
   1c9d8: 93 f5 76 00  	andi	a1, a3, 0x7
   1c9dc: 3e 97        	c.add	a4, a5
   1c9de: 81 47        	c.li	a5, 0x0
   1c9e0: 85 c1        	c.beqz	a1, 0x1ca00 <__subtf3+0x69a>
   1c9e2: 89 47        	c.li	a5, 0x2
   1c9e4: 63 84 f4 06  	beq	s1, a5, 0x1ca4c <__subtf3+0x6e6>
   1c9e8: 8d 47        	c.li	a5, 0x3
   1c9ea: 63 88 f4 04  	beq	s1, a5, 0x1ca3a <__subtf3+0x6d4>
   1c9ee: 85 47        	c.li	a5, 0x1
   1c9f0: 81 e8        	c.bnez	s1, 0x1ca00 <__subtf3+0x69a>
   1c9f2: 93 f5 f6 00  	andi	a1, a3, 0xf
   1c9f6: 11 45        	c.li	a0, 0x4
   1c9f8: 93 b6 c6 ff  	sltiu	a3, a3, -0x4
   1c9fc: 63 94 a5 04  	bne	a1, a0, 0x1ca44 <__subtf3+0x6de>
   1ca00: 51 93        	c.srli	a4, 0x34
   1ca02: 13 47 17 00  	xori	a4, a4, 0x1
   1ca06: 05 8b        	c.andi	a4, 0x1
   1ca08: 32 85        	c.mv	a0, a2
   1ca0a: 81 49        	c.li	s3, 0x0
   1ca0c: 93 76 76 00  	andi	a3, a2, 0x7
   1ca10: a9 ca        	c.beqz	a3, 0x1ca62 <__subtf3+0x6fc>
   1ca12: 89 46        	c.li	a3, 0x2
   1ca14: 93 e7 17 00  	ori	a5, a5, 0x1
   1ca18: 63 83 d4 04  	beq	s1, a3, 0x1ca5e <__subtf3+0x6f8>
   1ca1c: 8d 46        	c.li	a3, 0x3
   1ca1e: 63 8b d4 02  	beq	s1, a3, 0x1ca54 <__subtf3+0x6ee>
   1ca22: a1 e0        	c.bnez	s1, 0x1ca62 <__subtf3+0x6fc>
   1ca24: 93 76 f6 00  	andi	a3, a2, 0xf
   1ca28: 91 45        	c.li	a1, 0x4
   1ca2a: 63 8c b6 02  	beq	a3, a1, 0x1ca62 <__subtf3+0x6fc>
   1ca2e: 13 05 46 00  	addi	a0, a2, 0x4
   1ca32: 33 36 c5 00  	sltu	a2, a0, a2
   1ca36: b2 98        	c.add	a7, a2
   1ca38: 2d a0        	c.j	0x1ca62 <__subtf3+0x6fc>
   1ca3a: 85 47        	c.li	a5, 0x1
   1ca3c: e3 12 09 fc  	bne	s2, zero, 0x1ca00 <__subtf3+0x69a>
   1ca40: 93 b6 86 ff  	sltiu	a3, a3, -0x8
   1ca44: 93 c6 16 00  	xori	a3, a3, 0x1
   1ca48: 36 97        	c.add	a4, a3
   1ca4a: 5d bf        	c.j	0x1ca00 <__subtf3+0x69a>
   1ca4c: 85 47        	c.li	a5, 0x1
   1ca4e: e3 09 09 fa  	beq	s2, zero, 0x1ca00 <__subtf3+0x69a>
   1ca52: fd b7        	c.j	0x1ca40 <__subtf3+0x6da>
   1ca54: 63 17 09 00  	bne	s2, zero, 0x1ca62 <__subtf3+0x6fc>
   1ca58: 13 05 86 00  	addi	a0, a2, 0x8
   1ca5c: d9 bf        	c.j	0x1ca32 <__subtf3+0x6cc>
   1ca5e: e3 1d 09 fe  	bne	s2, zero, 0x1ca58 <__subtf3+0x6f2>
   1ca62: 09 c7        	c.beqz	a4, 0x1ca6c <__subtf3+0x706>
   1ca64: 13 f7 17 00  	andi	a4, a5, 0x1
   1ca68: 06 07        	c.slli	a4, 0x1
   1ca6a: d9 8f        	c.or	a5, a4
   1ca6c: 13 97 c8 00  	slli	a4, a7, 0xc
   1ca70: 63 5c 07 00  	bge	a4, zero, 0x1ca88 <__subtf3+0x722>
   1ca74: 21 67        	c.lui	a4, 0x8
   1ca76: 85 09        	c.addi	s3, 0x1
   1ca78: 7d 17        	c.addi	a4, -0x1
   1ca7a: 63 81 e9 06  	beq	s3, a4, 0x1cadc <__subtf3+0x776>
   1ca7e: 7d 57        	c.li	a4, -0x1
   1ca80: 4e 17        	c.slli	a4, 0x33
   1ca82: 7d 17        	c.addi	a4, -0x1
   1ca84: b3 f8 e8 00  	and	a7, a7, a4
   1ca88: 13 97 d8 03  	slli	a4, a7, 0x3d
   1ca8c: 0d 81        	c.srli	a0, 0x3
   1ca8e: 59 8d        	c.or	a0, a4
   1ca90: 21 67        	c.lui	a4, 0x8
   1ca92: 7d 17        	c.addi	a4, -0x1
   1ca94: 93 d8 38 00  	srli	a7, a7, 0x3
   1ca98: 63 9a e9 00  	bne	s3, a4, 0x1caac <__subtf3+0x746>
   1ca9c: 33 65 15 01  	or	a0, a0, a7
   1caa0: 81 48        	c.li	a7, 0x0
   1caa2: 09 c5        	c.beqz	a0, 0x1caac <__subtf3+0x746>
   1caa4: 85 48        	c.li	a7, 0x1
   1caa6: be 18        	c.slli	a7, 0x2f
   1caa8: 01 45        	c.li	a0, 0x0
   1caaa: 01 49        	c.li	s2, 0x0
   1caac: c6 19        	c.slli	s3, 0x31
   1caae: 1b 19 f9 00  	slliw	s2, s2, 0xf
   1cab2: 93 d9 19 03  	srli	s3, s3, 0x31
   1cab6: 93 95 08 01  	slli	a1, a7, 0x10
   1caba: b3 e9 29 01  	or	s3, s3, s2
   1cabe: c2 19        	c.slli	s3, 0x30
   1cac0: c1 81        	c.srli	a1, 0x10
   1cac2: b3 e5 35 01  	or	a1, a1, s3
   1cac6: 99 c3        	c.beqz	a5, 0x1cacc <__subtf3+0x766>
   1cac8: 73 a0 17 00  	csrrs	zero, fflags, a5
   1cacc: a2 70        	c.ldsp	ra, 0x28(sp)
   1cace: 02 74        	c.ldsp	s0, 0x20(sp)
   1cad0: e2 64        	c.ldsp	s1, 0x18(sp)
   1cad2: 42 69        	c.ldsp	s2, 0x10(sp)
   1cad4: a2 69        	c.ldsp	s3, 0x8(sp)
   1cad6: 02 6a        	c.ldsp	s4, 0x0(sp)
   1cad8: 45 61        	c.addi16sp	sp, 0x30
   1cada: 82 80        	c.jr	ra
   1cadc: 01 45        	c.li	a0, 0x0
   1cade: 99 cc        	c.beqz	s1, 0x1cafc <__subtf3+0x796>
   1cae0: 0d 47        	c.li	a4, 0x3
   1cae2: 63 98 e4 00  	bne	s1, a4, 0x1caf2 <__subtf3+0x78c>
   1cae6: 63 0b 09 00  	beq	s2, zero, 0x1cafc <__subtf3+0x796>
   1caea: a1 69        	c.lui	s3, 0x8
   1caec: 7d 55        	c.li	a0, -0x1
   1caee: f9 19        	c.addi	s3, -0x2
   1caf0: 31 a0        	c.j	0x1cafc <__subtf3+0x796>
   1caf2: 09 47        	c.li	a4, 0x2
   1caf4: e3 9b e4 fe  	bne	s1, a4, 0x1caea <__subtf3+0x784>
   1caf8: e3 09 09 fe  	beq	s2, zero, 0x1caea <__subtf3+0x784>
   1cafc: 93 e7 57 00  	ori	a5, a5, 0x5
   1cb00: aa 88        	c.mv	a7, a0
   1cb02: 59 b7        	c.j	0x1ca88 <__subtf3+0x722>
   1cb04: 01 47        	c.li	a4, 0x0
   1cb06: 01 46        	c.li	a2, 0x0
   1cb08: 9a 89        	c.mv	s3, t1
   1cb0a: 7d bd        	c.j	0x1c9c8 <__subtf3+0x662>
   1cb0c: 01 47        	c.li	a4, 0x0
   1cb0e: 6d bd        	c.j	0x1c9c8 <__subtf3+0x662>
   1cb10: 01 47        	c.li	a4, 0x0
   1cb12: 01 46        	c.li	a2, 0x0
   1cb14: 9a 89        	c.mv	s3, t1
   1cb16: 2e 89        	c.mv	s2, a1
   1cb18: 45 bd        	c.j	0x1c9c8 <__subtf3+0x662>
   1cb1a: ba 88        	c.mv	a7, a4
   1cb1c: 05 b3        	c.j	0x1c83c <__subtf3+0x4d6>
   1cb1e: ba 88        	c.mv	a7, a4
   1cb20: a9 bb        	c.j	0x1c87a <__subtf3+0x514>
   1cb22: 2a 86        	c.mv	a2, a0
   1cb24: 21 bb        	c.j	0x1c83c <__subtf3+0x4d6>
   1cb26: be 88        	c.mv	a7, a5
   1cb28: 36 86        	c.mv	a2, a3
   1cb2a: 09 bb        	c.j	0x1c83c <__subtf3+0x4d6>
   1cb2c: e3 10 03 db  	bne	t1, a6, 0x1c8cc <__subtf3+0x566>
   1cb30: ad bb        	c.j	0x1c8aa <__subtf3+0x544>
   1cb32: e3 1c 03 9b  	bne	t1, a6, 0x1c4ea <__subtf3+0x184>
   1cb36: 6d bc        	c.j	0x1c5f0 <__subtf3+0x28a>

000000000001cb38 <__unordtf2>:
   1cb38: 2a 87        	c.mv	a4, a0
   1cb3a: f3 27 20 00  	csrrs	a5, frm, zero
   1cb3e: 7d 55        	c.li	a0, -0x1
   1cb40: 93 57 05 01  	srli	a5, a0, 0x10
   1cb44: 21 68        	c.lui	a6, 0x8
   1cb46: b3 f8 f5 00  	and	a7, a1, a5
   1cb4a: 7d 18        	c.addi	a6, -0x1
   1cb4c: c1 91        	c.srli	a1, 0x30
   1cb4e: f5 8f        	c.and	a5, a3
   1cb50: b3 f5 05 01  	and	a1, a1, a6
   1cb54: c1 92        	c.srli	a3, 0x30
   1cb56: b3 f6 06 01  	and	a3, a3, a6
   1cb5a: 63 96 05 01  	bne	a1, a6, 0x1cb66 <__unordtf2+0x2e>
   1cb5e: 33 63 17 01  	or	t1, a4, a7
   1cb62: 63 13 03 02  	bne	t1, zero, 0x1cb88 <__unordtf2+0x50>
   1cb66: 01 45        	c.li	a0, 0x0
   1cb68: 63 92 06 05  	bne	a3, a6, 0x1cbac <__unordtf2+0x74>
   1cb6c: 33 68 f6 00  	or	a6, a2, a5
   1cb70: 63 0e 08 02  	beq	a6, zero, 0x1cbac <__unordtf2+0x74>
   1cb74: 63 93 d5 02  	bne	a1, a3, 0x1cb9a <__unordtf2+0x62>
   1cb78: 33 67 17 01  	or	a4, a4, a7
   1cb7c: 01 cf        	c.beqz	a4, 0x1cb94 <__unordtf2+0x5c>
   1cb7e: 7d 57        	c.li	a4, -0x1
   1cb80: 45 83        	c.srli	a4, 0x11
   1cb82: 63 71 17 03  	bgeu	a4, a7, 0x1cba4 <__unordtf2+0x6c>
   1cb86: 39 a0        	c.j	0x1cb94 <__unordtf2+0x5c>
   1cb88: 45 81        	c.srli	a0, 0x11
   1cb8a: 63 7d 15 01  	bgeu	a0, a7, 0x1cba4 <__unordtf2+0x6c>
   1cb8e: 05 45        	c.li	a0, 0x1
   1cb90: 63 9e b6 00  	bne	a3, a1, 0x1cbac <__unordtf2+0x74>
   1cb94: 5d 8e        	c.or	a2, a5
   1cb96: 05 45        	c.li	a0, 0x1
   1cb98: 11 ca        	c.beqz	a2, 0x1cbac <__unordtf2+0x74>
   1cb9a: 7d 57        	c.li	a4, -0x1
   1cb9c: 45 83        	c.srli	a4, 0x11
   1cb9e: 05 45        	c.li	a0, 0x1
   1cba0: 63 66 f7 00  	bltu	a4, a5, 0x1cbac <__unordtf2+0x74>
   1cba4: 73 60 18 00  	csrrsi	zero, fflags, 0x10
   1cba8: 05 45        	c.li	a0, 0x1
   1cbaa: 82 80        	c.jr	ra
   1cbac: 82 80        	c.jr	ra

000000000001cbae <__fixtfsi>:
   1cbae: f3 27 20 00  	csrrs	a5, frm, zero
   1cbb2: 11 67        	c.lui	a4, 0x4
   1cbb4: 93 96 15 00  	slli	a3, a1, 0x1
   1cbb8: 93 97 05 01  	slli	a5, a1, 0x10
   1cbbc: c5 92        	c.srli	a3, 0x31
   1cbbe: 79 17        	c.addi	a4, -0x2
   1cbc0: c1 83        	c.srli	a5, 0x10
   1cbc2: fd 91        	c.srli	a1, 0x3f
   1cbc4: 63 47 d7 00  	blt	a4, a3, 0x1cbd2 <__fixtfsi+0x24>
   1cbc8: b1 ee        	c.bnez	a3, 0x1cc24 <__fixtfsi+0x76>
   1cbca: c9 8f        	c.or	a5, a0
   1cbcc: 01 45        	c.li	a0, 0x0
   1cbce: a9 eb        	c.bnez	a5, 0x1cc20 <__fixtfsi+0x72>
   1cbd0: 82 80        	c.jr	ra
   1cbd2: 11 67        	c.lui	a4, 0x4
   1cbd4: 75 07        	c.addi	a4, 0x1d
   1cbd6: 63 50 d7 02  	bge	a4, a3, 0x1cbf6 <__fixtfsi+0x48>
   1cbda: b9 c5        	c.beqz	a1, 0x1cc28 <__fixtfsi+0x7a>
   1cbdc: 11 67        	c.lui	a4, 0x4
   1cbde: 79 07        	c.addi	a4, 0x1e
   1cbe0: 63 9c e6 04  	bne	a3, a4, 0x1cc38 <__fixtfsi+0x8a>
   1cbe4: 13 d7 17 01  	srli	a4, a5, 0x11
   1cbe8: 21 eb        	c.bnez	a4, 0x1cc38 <__fixtfsi+0x8a>
   1cbea: be 17        	c.slli	a5, 0x2f
   1cbec: 5d 8d        	c.or	a0, a5
   1cbee: 21 e9        	c.bnez	a0, 0x1cc3e <__fixtfsi+0x90>
   1cbf0: 37 05 00 80  	lui	a0, 0x80000
   1cbf4: 82 80        	c.jr	ra
   1cbf6: 05 47        	c.li	a4, 0x1
   1cbf8: 42 17        	c.slli	a4, 0x30
   1cbfa: d9 8f        	c.or	a5, a4
   1cbfc: 11 66        	c.lui	a2, 0x4
   1cbfe: 71 77        	c.lui	a4, 0xffffc
   1cc00: 45 27        	c.addiw	a4, 0x11
   1cc02: 1b 06 f6 02  	addiw	a2, a2, 0x2f
   1cc06: 35 9f        	c.addw	a4, a3
   1cc08: 15 9e        	c.subw	a2, a3
   1cc0a: 33 97 e7 00  	sll	a4, a5, a4
   1cc0e: b3 d7 c7 00  	srl	a5, a5, a2
   1cc12: 49 8f        	c.or	a4, a0
   1cc14: 1b 85 07 00  	addiw	a0, a5, 0x0
   1cc18: 99 c1        	c.beqz	a1, 0x1cc1e <__fixtfsi+0x70>
   1cc1a: 3b 05 a0 40  	subw	a0, zero, a0
   1cc1e: 01 cf        	c.beqz	a4, 0x1cc36 <__fixtfsi+0x88>
   1cc20: 85 47        	c.li	a5, 0x1
   1cc22: 01 a8        	c.j	0x1cc32 <__fixtfsi+0x84>
   1cc24: 01 45        	c.li	a0, 0x0
   1cc26: ed bf        	c.j	0x1cc20 <__fixtfsi+0x72>
   1cc28: 37 05 00 80  	lui	a0, 0x80000
   1cc2c: 13 45 f5 ff  	xori	a0, a0, -0x1
   1cc30: c1 47        	c.li	a5, 0x10
   1cc32: 73 a0 17 00  	csrrs	zero, fflags, a5
   1cc36: 82 80        	c.jr	ra
   1cc38: 37 05 00 80  	lui	a0, 0x80000
   1cc3c: d5 bf        	c.j	0x1cc30 <__fixtfsi+0x82>
   1cc3e: 37 05 00 80  	lui	a0, 0x80000
   1cc42: f9 bf        	c.j	0x1cc20 <__fixtfsi+0x72>

000000000001cc44 <__floatsitf>:
   1cc44: 01 11        	c.addi	sp, -0x20
   1cc46: 06 ec        	c.sdsp	ra, 0x18(sp)
   1cc48: 22 e8        	c.sdsp	s0, 0x10(sp)
   1cc4a: 26 e4        	c.sdsp	s1, 0x8(sp)
   1cc4c: 39 c1        	c.beqz	a0, 0x1cc92 <__floatsitf+0x4e>
   1cc4e: 9b 07 05 00  	addiw	a5, a0, 0x0
   1cc52: 93 54 f5 03  	srli	s1, a0, 0x3f
   1cc56: 63 54 05 00  	bge	a0, zero, 0x1cc5e <__floatsitf+0x1a>
   1cc5a: bb 07 f0 40  	subw	a5, zero, a5
   1cc5e: 13 94 07 02  	slli	s0, a5, 0x20
   1cc62: 01 90        	c.srli	s0, 0x20
   1cc64: 22 85        	c.mv	a0, s0
   1cc66: ef 00 00 18  	jal	ra, 0x1cde6 <__clzdi2>
   1cc6a: 91 65        	c.lui	a1, 0x4
   1cc6c: 9b 85 e5 03  	addiw	a1, a1, 0x3e
   1cc70: 89 9d        	c.subw	a1, a0
   1cc72: 45 35        	c.addiw	a0, -0xf
   1cc74: b3 17 a4 00  	sll	a5, s0, a0
   1cc78: e2 60        	c.ldsp	ra, 0x18(sp)
   1cc7a: 42 64        	c.ldsp	s0, 0x10(sp)
   1cc7c: 9b 94 f4 00  	slliw	s1, s1, 0xf
   1cc80: c5 8d        	c.or	a1, s1
   1cc82: c2 07        	c.slli	a5, 0x10
   1cc84: c2 15        	c.slli	a1, 0x30
   1cc86: c1 83        	c.srli	a5, 0x10
   1cc88: a2 64        	c.ldsp	s1, 0x8(sp)
   1cc8a: 01 45        	c.li	a0, 0x0
   1cc8c: dd 8d        	c.or	a1, a5
   1cc8e: 05 61        	c.addi16sp	sp, 0x20
   1cc90: 82 80        	c.jr	ra
   1cc92: 81 47        	c.li	a5, 0x0
   1cc94: 81 45        	c.li	a1, 0x0
   1cc96: 81 44        	c.li	s1, 0x0
   1cc98: c5 b7        	c.j	0x1cc78 <__floatsitf+0x34>

000000000001cc9a <__extenddftf2>:
   1cc9a: 01 11        	c.addi	sp, -0x20
   1cc9c: d3 07 05 e2  	fmv.x.d	a5, fa0
   1cca0: 06 ec        	c.sdsp	ra, 0x18(sp)
   1cca2: 22 e8        	c.sdsp	s0, 0x10(sp)
   1cca4: 26 e4        	c.sdsp	s1, 0x8(sp)
   1cca6: 73 27 20 00  	csrrs	a4, frm, zero
   1ccaa: 13 d5 47 03  	srli	a0, a5, 0x34
   1ccae: 13 75 f5 7f  	andi	a0, a0, 0x7ff
   1ccb2: 13 94 c7 00  	slli	s0, a5, 0xc
   1ccb6: 93 d4 f7 03  	srli	s1, a5, 0x3f
   1ccba: 93 07 15 00  	addi	a5, a0, 0x1
   1ccbe: 93 f7 e7 7f  	andi	a5, a5, 0x7fe
   1ccc2: 31 80        	c.srli	s0, 0xc
   1ccc4: 91 cb        	c.beqz	a5, 0x1ccd8 <__extenddftf2+0x3e>
   1ccc6: 91 67        	c.lui	a5, 0x4
   1ccc8: 93 87 07 c0  	addi	a5, a5, -0x400
   1cccc: 93 55 44 00  	srli	a1, s0, 0x4
   1ccd0: 3e 95        	c.add	a0, a5
   1ccd2: 72 14        	c.slli	s0, 0x3c
   1ccd4: 81 47        	c.li	a5, 0x0
   1ccd6: b1 a8        	c.j	0x1cd32 <__extenddftf2+0x98>
   1ccd8: 1d ed        	c.bnez	a0, 0x1cd16 <__extenddftf2+0x7c>
   1ccda: 81 45        	c.li	a1, 0x0
   1ccdc: 65 dc        	c.beqz	s0, 0x1ccd4 <__extenddftf2+0x3a>
   1ccde: 22 85        	c.mv	a0, s0
   1cce0: ef 00 60 10  	jal	ra, 0x1cde6 <__clzdi2>
   1cce4: 1b 07 05 00  	addiw	a4, a0, 0x0
   1cce8: b9 47        	c.li	a5, 0xe
   1ccea: 63 c0 e7 02  	blt	a5, a4, 0x1cd0a <__extenddftf2+0x70>
   1ccee: bd 45        	c.li	a1, 0xf
   1ccf0: 89 9d        	c.subw	a1, a0
   1ccf2: 9b 07 15 03  	addiw	a5, a0, 0x31
   1ccf6: b3 55 b4 00  	srl	a1, s0, a1
   1ccfa: 33 14 f4 00  	sll	s0, s0, a5
   1ccfe: 91 67        	c.lui	a5, 0x4
   1cd00: 9b 87 c7 c0  	addiw	a5, a5, -0x3f4
   1cd04: 3b 85 a7 40  	subw	a0, a5, a0
   1cd08: f1 b7        	c.j	0x1ccd4 <__extenddftf2+0x3a>
   1cd0a: 9b 05 15 ff  	addiw	a1, a0, -0xf
   1cd0e: b3 15 b4 00  	sll	a1, s0, a1
   1cd12: 01 44        	c.li	s0, 0x0
   1cd14: ed b7        	c.j	0x1ccfe <__extenddftf2+0x64>
   1cd16: 15 cc        	c.beqz	s0, 0x1cd52 <__extenddftf2+0xb8>
   1cd18: 85 47        	c.li	a5, 0x1
   1cd1a: ce 17        	c.slli	a5, 0x33
   1cd1c: 05 47        	c.li	a4, 0x1
   1cd1e: b3 37 f4 00  	sltu	a5, s0, a5
   1cd22: 93 55 44 00  	srli	a1, s0, 0x4
   1cd26: 3e 17        	c.slli	a4, 0x2f
   1cd28: 21 65        	c.lui	a0, 0x8
   1cd2a: 92 07        	c.slli	a5, 0x4
   1cd2c: 72 14        	c.slli	s0, 0x3c
   1cd2e: d9 8d        	c.or	a1, a4
   1cd30: 7d 15        	c.addi	a0, -0x1
   1cd32: 9b 94 f4 00  	slliw	s1, s1, 0xf
   1cd36: c2 05        	c.slli	a1, 0x10
   1cd38: 45 8d        	c.or	a0, s1
   1cd3a: 42 15        	c.slli	a0, 0x30
   1cd3c: c1 81        	c.srli	a1, 0x10
   1cd3e: c9 8d        	c.or	a1, a0
   1cd40: 99 c3        	c.beqz	a5, 0x1cd46 <__extenddftf2+0xac>
   1cd42: 73 60 18 00  	csrrsi	zero, fflags, 0x10
   1cd46: e2 60        	c.ldsp	ra, 0x18(sp)
   1cd48: 22 85        	c.mv	a0, s0
   1cd4a: 42 64        	c.ldsp	s0, 0x10(sp)
   1cd4c: a2 64        	c.ldsp	s1, 0x8(sp)
   1cd4e: 05 61        	c.addi16sp	sp, 0x20
   1cd50: 82 80        	c.jr	ra
   1cd52: 21 65        	c.lui	a0, 0x8
   1cd54: 81 45        	c.li	a1, 0x0
   1cd56: 7d 15        	c.addi	a0, -0x1
   1cd58: b5 bf        	c.j	0x1ccd4 <__extenddftf2+0x3a>

000000000001cd5a <__riscv_save_12>:
   1cd5a: 59 71        	c.addi16sp	sp, -0x70
   1cd5c: 01 43        	c.li	t1, 0x0
   1cd5e: 6e e4        	c.sdsp	s11, 0x8(sp)
   1cd60: 19 a0        	c.j	0x1cd66 <__riscv_save_11+0x4>

000000000001cd62 <__riscv_save_11>:
   1cd62: 59 71        	c.addi16sp	sp, -0x70
   1cd64: 05 43        	c.li	t1, 0x1
   1cd66: 6a e8        	c.sdsp	s10, 0x10(sp)
   1cd68: 66 ec        	c.sdsp	s9, 0x18(sp)
   1cd6a: 19 a0        	c.j	0x1cd70 <__riscv_save_9+0x4>

000000000001cd6c <__riscv_save_9>:
   1cd6c: 59 71        	c.addi16sp	sp, -0x70
   1cd6e: 09 43        	c.li	t1, 0x2
   1cd70: 62 f0        	c.sdsp	s8, 0x20(sp)
   1cd72: 5e f4        	c.sdsp	s7, 0x28(sp)
   1cd74: 19 a0        	c.j	0x1cd7a <__riscv_save_7+0x4>

000000000001cd76 <__riscv_save_7>:
   1cd76: 59 71        	c.addi16sp	sp, -0x70
   1cd78: 0d 43        	c.li	t1, 0x3
   1cd7a: 5a f8        	c.sdsp	s6, 0x30(sp)
   1cd7c: 56 fc        	c.sdsp	s5, 0x38(sp)
   1cd7e: 19 a0        	c.j	0x1cd84 <__riscv_save_5+0x4>

000000000001cd80 <__riscv_save_5>:
   1cd80: 59 71        	c.addi16sp	sp, -0x70
   1cd82: 11 43        	c.li	t1, 0x4
   1cd84: d2 e0        	c.sdsp	s4, 0x40(sp)
   1cd86: ce e4        	c.sdsp	s3, 0x48(sp)
   1cd88: 19 a0        	c.j	0x1cd8e <__riscv_save_3+0x4>

000000000001cd8a <__riscv_save_3>:
   1cd8a: 59 71        	c.addi16sp	sp, -0x70
   1cd8c: 15 43        	c.li	t1, 0x5
   1cd8e: ca e8        	c.sdsp	s2, 0x50(sp)
   1cd90: a6 ec        	c.sdsp	s1, 0x58(sp)
   1cd92: a2 f0        	c.sdsp	s0, 0x60(sp)
   1cd94: 86 f4        	c.sdsp	ra, 0x68(sp)
   1cd96: 12 03        	c.slli	t1, 0x4
   1cd98: 1a 91        	c.add	sp, t1
   1cd9a: 82 82        	c.jr	t0

000000000001cd9c <__riscv_save_1>:
   1cd9c: 41 11        	c.addi	sp, -0x10
   1cd9e: 22 e0        	c.sdsp	s0, 0x0(sp)
   1cda0: 06 e4        	c.sdsp	ra, 0x8(sp)
   1cda2: 82 82        	c.jr	t0

000000000001cda4 <__riscv_restore_12>:
   1cda4: a2 6d        	c.ldsp	s11, 0x8(sp)
   1cda6: 41 01        	c.addi	sp, 0x10

000000000001cda8 <__riscv_restore_11>:
   1cda8: 02 6d        	c.ldsp	s10, 0x0(sp)
   1cdaa: a2 6c        	c.ldsp	s9, 0x8(sp)
   1cdac: 41 01        	c.addi	sp, 0x10

000000000001cdae <__riscv_restore_9>:
   1cdae: 02 6c        	c.ldsp	s8, 0x0(sp)
   1cdb0: a2 6b        	c.ldsp	s7, 0x8(sp)
   1cdb2: 41 01        	c.addi	sp, 0x10

000000000001cdb4 <__riscv_restore_7>:
   1cdb4: 02 6b        	c.ldsp	s6, 0x0(sp)
   1cdb6: a2 6a        	c.ldsp	s5, 0x8(sp)
   1cdb8: 41 01        	c.addi	sp, 0x10

000000000001cdba <__riscv_restore_5>:
   1cdba: 02 6a        	c.ldsp	s4, 0x0(sp)
   1cdbc: a2 69        	c.ldsp	s3, 0x8(sp)
   1cdbe: 41 01        	c.addi	sp, 0x10

000000000001cdc0 <__riscv_restore_3>:
   1cdc0: 02 69        	c.ldsp	s2, 0x0(sp)
   1cdc2: a2 64        	c.ldsp	s1, 0x8(sp)
   1cdc4: 41 01        	c.addi	sp, 0x10

000000000001cdc6 <__riscv_restore_1>:
   1cdc6: 02 64        	c.ldsp	s0, 0x0(sp)
   1cdc8: a2 60        	c.ldsp	ra, 0x8(sp)
   1cdca: 41 01        	c.addi	sp, 0x10
   1cdcc: 82 80        	c.jr	ra
   1cdce: 00 00        	c.unimp

000000000001cdd0 <__muldi3>:
   1cdd0: 2a 86        	c.mv	a2, a0
   1cdd2: 01 45        	c.li	a0, 0x0
   1cdd4: 93 f6 15 00  	andi	a3, a1, 0x1
   1cdd8: 91 c2        	c.beqz	a3, 0x1cddc <__muldi3+0xc>
   1cdda: 32 95        	c.add	a0, a2
   1cddc: 85 81        	c.srli	a1, 0x1
   1cdde: 06 06        	c.slli	a2, 0x1
   1cde0: f5 f9        	c.bnez	a1, 0x1cdd4 <__muldi3+0x4>
   1cde2: 82 80        	c.jr	ra
   1cde4: 00 00        	c.unimp

000000000001cde6 <__clzdi2>:
   1cde6: 93 57 85 03  	srli	a5, a0, 0x38
   1cdea: 8d eb        	c.bnez	a5, 0x1ce1c <__clzdi2+0x36>
   1cdec: 93 07 80 03  	addi	a5, zero, 0x38
   1cdf0: e1 17        	c.addi	a5, -0x8
   1cdf2: 91 c7        	c.beqz	a5, 0x1cdfe <__clzdi2+0x18>
   1cdf4: 33 57 f5 00  	srl	a4, a0, a5
   1cdf8: 13 77 f7 0f  	andi	a4, a4, 0xff
   1cdfc: 75 db        	c.beqz	a4, 0x1cdf0 <__clzdi2+0xa>
   1cdfe: 37 87 02 00  	lui	a4, 0x28
   1ce02: 93 06 00 04  	addi	a3, zero, 0x40
   1ce06: 9d 8e        	c.sub	a3, a5
   1ce08: 33 55 f5 00  	srl	a0, a0, a5
   1ce0c: 93 07 07 93  	addi	a5, a4, -0x6d0
   1ce10: aa 97        	c.add	a5, a0
   1ce12: 03 c5 07 00  	lbu	a0, 0x0(a5)
   1ce16: 3b 85 a6 40  	subw	a0, a3, a0
   1ce1a: 82 80        	c.jr	ra
   1ce1c: 93 07 80 03  	addi	a5, zero, 0x38
   1ce20: f9 bf        	c.j	0x1cdfe <__clzdi2+0x18>
