
dynamic_Zcb_basicmath_large:	file format elf64-littleriscv

Disassembly of section .text:

0000000000010120 <exit>:
   10120: 41 11        	addi	sp, sp, -0x10
   10122: 81 45        	li	a1, 0x0
   10124: 22 e0        	sd	s0, 0x0(sp)
   10126: 06 e4        	sd	ra, 0x8(sp)
   10128: 2a 84        	mv	s0, a0
   1012a: ef 30 20 39  	jal	0x134bc <__call_exitprocs>
   1012e: 83 b7 81 23  	ld	a5, 0x238(gp)
   10132: 91 c3        	beqz	a5, 0x10136 <exit+0x16>
   10134: 82 97        	jalr	a5
   10136: 22 85        	mv	a0, s0
   10138: ef a0 20 55  	jal	0x1a68a <_exit>

000000000001013c <register_fini>:
   1013c: 93 07 00 00  	li	a5, 0x0
   10140: 91 c7        	beqz	a5, 0x1014c <register_fini+0x10>
   10142: 5d 65        	lui	a0, 0x17
   10144: 13 05 c5 33  	addi	a0, a0, 0x33c
   10148: 6f 30 60 44  	j	0x1358e <atexit>
   1014c: 82 80        	ret

000000000001014e <_start>:
   1014e: 97 f1 00 00  	auipc	gp, 0xf
   10152: 93 81 21 45  	addi	gp, gp, 0x452
   10156: 13 85 81 23  	addi	a0, gp, 0x238
   1015a: 17 06 01 00  	auipc	a2, 0x10
   1015e: 13 06 66 c4  	addi	a2, a2, -0x3ba
   10162: 09 8e        	sub	a2, a2, a0
   10164: 81 45        	li	a1, 0x0
   10166: ef 30 a0 20  	jal	0x13370 <memset>
   1016a: 17 35 00 00  	auipc	a0, 0x3
   1016e: 13 05 45 42  	addi	a0, a0, 0x424
   10172: 19 c5        	beqz	a0, 0x10180 <_start+0x32>
   10174: 17 75 00 00  	auipc	a0, 0x7
   10178: 13 05 85 1c  	addi	a0, a0, 0x1c8
   1017c: ef 30 20 41  	jal	0x1358e <atexit>
   10180: ef 30 e0 17  	jal	0x132fe <__libc_init_array>
   10184: 02 45        	lw	a0, 0x0(sp)
   10186: 2c 00        	addi	a1, sp, 0x8
   10188: 01 46        	li	a2, 0x0
   1018a: ef 00 e0 04  	jal	0x101d8 <main>
   1018e: 49 bf        	j	0x10120 <exit>

0000000000010190 <__do_global_dtors_aux>:
   10190: 41 11        	addi	sp, sp, -0x10
   10192: 22 e0        	sd	s0, 0x0(sp)
   10194: 83 c7 81 27  	lbu	a5, 0x278(gp)
   10198: 06 e4        	sd	ra, 0x8(sp)
   1019a: 91 ef        	bnez	a5, 0x101b6 <__do_global_dtors_aux+0x26>
   1019c: 93 07 00 00  	li	a5, 0x0
   101a0: 81 cb        	beqz	a5, 0x101b0 <__do_global_dtors_aux+0x20>
   101a2: 79 65        	lui	a0, 0x1e
   101a4: 13 05 05 65  	addi	a0, a0, 0x650
   101a8: 97 00 00 00  	auipc	ra, 0x0
   101ac: e7 00 00 00  	jalr	zero
   101b0: 85 47        	li	a5, 0x1
   101b2: 23 8c f1 26  	sb	a5, 0x278(gp)
   101b6: a2 60        	ld	ra, 0x8(sp)
   101b8: 02 64        	ld	s0, 0x0(sp)
   101ba: 41 01        	addi	sp, sp, 0x10
   101bc: 82 80        	ret

00000000000101be <frame_dummy>:
   101be: 93 07 00 00  	li	a5, 0x0
   101c2: 91 cb        	beqz	a5, 0x101d6 <frame_dummy+0x18>
   101c4: 79 65        	lui	a0, 0x1e
   101c6: 93 85 01 28  	addi	a1, gp, 0x280
   101ca: 13 05 05 65  	addi	a0, a0, 0x650
   101ce: 17 03 00 00  	auipc	t1, 0x0
   101d2: 67 00 00 00  	jr	zero
   101d6: 82 80        	ret

00000000000101d8 <main>:
   101d8: ef c2 90 11  	jal	t0, 0x1caf0 <__riscv_save_1>
   101dc: 75 71        	addi	sp, sp, -0x90
   101de: 00 11        	addi	s0, sp, 0xa0
   101e0: 01 45        	li	a0, 0x0
   101e2: 23 30 a4 f8  	sd	a0, -0x80(s0)
   101e6: 23 26 a4 fe  	sw	a0, -0x14(s0)
   101ea: 93 05 f0 3f  	li	a1, 0x3ff
   101ee: d2 15        	slli	a1, a1, 0x34
   101f0: 23 30 b4 fe  	sd	a1, -0x20(s0)
   101f4: b7 55 02 fc  	lui	a1, 0xfc025
   101f8: 92 15        	slli	a1, a1, 0x24
   101fa: 23 3c b4 fc  	sd	a1, -0x28(s0)
   101fe: 93 05 10 10  	li	a1, 0x101
   10202: da 15        	slli	a1, a1, 0x36
   10204: 23 38 b4 fc  	sd	a1, -0x30(s0)
   10208: b7 f5 01 fe  	lui	a1, 0xfe01f
   1020c: 96 15        	slli	a1, a1, 0x25
   1020e: 23 34 b4 fc  	sd	a1, -0x38(s0)
   10212: b7 05 ed 3f  	lui	a1, 0x3fed0
   10216: 9b 85 95 16  	addiw	a1, a1, 0x169
   1021a: 23 3c b4 f8  	sd	a1, -0x68(s0)
   1021e: 23 34 a4 f8  	sd	a0, -0x78(s0)
   10222: 37 d5 01 00  	lui	a0, 0x1d
   10226: 13 05 05 b6  	addi	a0, a0, -0x4a0
   1022a: ef 20 70 5d  	jal	0x13000 <printf>
   1022e: 07 35 04 fe  	fld	fa0, -0x20(s0)
   10232: 87 35 84 fd  	fld	fa1, -0x28(s0)
   10236: 07 36 04 fd  	fld	fa2, -0x30(s0)
   1023a: 87 36 84 fc  	fld	fa3, -0x38(s0)
   1023e: 13 05 44 fa  	addi	a0, s0, -0x5c
   10242: 93 05 04 fb  	addi	a1, s0, -0x50
   10246: ef 00 30 0d  	jal	0x10b18 <SolveCubic>
   1024a: 37 d5 01 00  	lui	a0, 0x1d
   1024e: 13 05 75 b8  	addi	a0, a0, -0x479
   10252: ef 20 f0 5a  	jal	0x13000 <printf>
   10256: 03 35 04 f8  	ld	a0, -0x80(s0)
   1025a: 23 20 a4 fa  	sw	a0, -0x60(s0)
   1025e: 6f 00 40 00  	j	0x10262 <main+0x8a>
   10262: 03 25 04 fa  	lw	a0, -0x60(s0)
   10266: 83 25 44 fa  	lw	a1, -0x5c(s0)
   1026a: 63 44 b5 00  	blt	a0, a1, 0x10272 <main+0x9a>
   1026e: 6f 00 60 03  	j	0x102a4 <main+0xcc>
   10272: 6f 00 40 00  	j	0x10276 <main+0x9e>
   10276: 03 25 04 fa  	lw	a0, -0x60(s0)
   1027a: 93 15 35 00  	slli	a1, a0, 0x3
   1027e: 13 05 04 fb  	addi	a0, s0, -0x50
   10282: 2e 95        	add	a0, a0, a1
   10284: 0c 61        	ld	a1, 0x0(a0)
   10286: 37 d5 01 00  	lui	a0, 0x1d
   1028a: 13 05 25 b9  	addi	a0, a0, -0x46e
   1028e: ef 20 30 57  	jal	0x13000 <printf>
   10292: 6f 00 40 00  	j	0x10296 <main+0xbe>
   10296: 03 25 04 fa  	lw	a0, -0x60(s0)
   1029a: 05 25        	addiw	a0, a0, 0x1
   1029c: 23 20 a4 fa  	sw	a0, -0x60(s0)
   102a0: 6f f0 3f fc  	j	0x10262 <main+0x8a>
   102a4: 37 d5 01 00  	lui	a0, 0x1d
   102a8: 13 05 65 c0  	addi	a0, a0, -0x3fa
   102ac: ef 20 50 55  	jal	0x13000 <printf>
   102b0: 13 05 f0 3f  	li	a0, 0x3ff
   102b4: 52 15        	slli	a0, a0, 0x34
   102b6: 23 30 a4 fe  	sd	a0, -0x20(s0)
   102ba: 37 95 00 fe  	lui	a0, 0xfe009
   102be: 16 15        	slli	a0, a0, 0x25
   102c0: 23 3c a4 fc  	sd	a0, -0x28(s0)
   102c4: 37 15 03 04  	lui	a0, 0x4031
   102c8: 12 15        	slli	a0, a0, 0x24
   102ca: 23 38 a4 fc  	sd	a0, -0x30(s0)
   102ce: 37 f5 01 fe  	lui	a0, 0xfe01f
   102d2: 16 15        	slli	a0, a0, 0x25
   102d4: 23 34 a4 fc  	sd	a0, -0x38(s0)
   102d8: 07 35 04 fe  	fld	fa0, -0x20(s0)
   102dc: 87 35 84 fd  	fld	fa1, -0x28(s0)
   102e0: 07 36 04 fd  	fld	fa2, -0x30(s0)
   102e4: 87 36 84 fc  	fld	fa3, -0x38(s0)
   102e8: 13 05 44 fa  	addi	a0, s0, -0x5c
   102ec: 93 05 04 fb  	addi	a1, s0, -0x50
   102f0: ef 00 90 02  	jal	0x10b18 <SolveCubic>
   102f4: 37 d5 01 00  	lui	a0, 0x1d
   102f8: 13 05 75 b8  	addi	a0, a0, -0x479
   102fc: ef 20 50 50  	jal	0x13000 <printf>
   10300: 01 45        	li	a0, 0x0
   10302: 23 20 a4 fa  	sw	a0, -0x60(s0)
   10306: 6f 00 40 00  	j	0x1030a <main+0x132>
   1030a: 03 25 04 fa  	lw	a0, -0x60(s0)
   1030e: 83 25 44 fa  	lw	a1, -0x5c(s0)
   10312: 63 44 b5 00  	blt	a0, a1, 0x1031a <main+0x142>
   10316: 6f 00 60 03  	j	0x1034c <main+0x174>
   1031a: 6f 00 40 00  	j	0x1031e <main+0x146>
   1031e: 03 25 04 fa  	lw	a0, -0x60(s0)
   10322: 93 15 35 00  	slli	a1, a0, 0x3
   10326: 13 05 04 fb  	addi	a0, s0, -0x50
   1032a: 2e 95        	add	a0, a0, a1
   1032c: 0c 61        	ld	a1, 0x0(a0)
   1032e: 37 d5 01 00  	lui	a0, 0x1d
   10332: 13 05 25 b9  	addi	a0, a0, -0x46e
   10336: ef 20 b0 4c  	jal	0x13000 <printf>
   1033a: 6f 00 40 00  	j	0x1033e <main+0x166>
   1033e: 03 25 04 fa  	lw	a0, -0x60(s0)
   10342: 05 25        	addiw	a0, a0, 0x1
   10344: 23 20 a4 fa  	sw	a0, -0x60(s0)
   10348: 6f f0 3f fc  	j	0x1030a <main+0x132>
   1034c: 37 d5 01 00  	lui	a0, 0x1d
   10350: 13 05 65 c0  	addi	a0, a0, -0x3fa
   10354: ef 20 d0 4a  	jal	0x13000 <printf>
   10358: 13 05 f0 3f  	li	a0, 0x3ff
   1035c: 52 15        	slli	a0, a0, 0x34
   1035e: 23 30 a4 fe  	sd	a0, -0x20(s0)
   10362: 37 35 00 ff  	lui	a0, 0xff003
   10366: 1a 15        	slli	a0, a0, 0x26
   10368: 23 3c a4 fc  	sd	a0, -0x28(s0)
   1036c: 37 b5 01 02  	lui	a0, 0x201b
   10370: 16 15        	slli	a0, a0, 0x25
   10372: 23 38 a4 fc  	sd	a0, -0x30(s0)
   10376: 37 f5 03 fc  	lui	a0, 0xfc03f
   1037a: 12 15        	slli	a0, a0, 0x24
   1037c: 23 34 a4 fc  	sd	a0, -0x38(s0)
   10380: 07 35 04 fe  	fld	fa0, -0x20(s0)
   10384: 87 35 84 fd  	fld	fa1, -0x28(s0)
   10388: 07 36 04 fd  	fld	fa2, -0x30(s0)
   1038c: 87 36 84 fc  	fld	fa3, -0x38(s0)
   10390: 13 05 44 fa  	addi	a0, s0, -0x5c
   10394: 93 05 04 fb  	addi	a1, s0, -0x50
   10398: ef 00 00 78  	jal	0x10b18 <SolveCubic>
   1039c: 37 d5 01 00  	lui	a0, 0x1d
   103a0: 13 05 75 b8  	addi	a0, a0, -0x479
   103a4: ef 20 d0 45  	jal	0x13000 <printf>
   103a8: 01 45        	li	a0, 0x0
   103aa: 23 20 a4 fa  	sw	a0, -0x60(s0)
   103ae: 6f 00 40 00  	j	0x103b2 <main+0x1da>
   103b2: 03 25 04 fa  	lw	a0, -0x60(s0)
   103b6: 83 25 44 fa  	lw	a1, -0x5c(s0)
   103ba: 63 44 b5 00  	blt	a0, a1, 0x103c2 <main+0x1ea>
   103be: 6f 00 60 03  	j	0x103f4 <main+0x21c>
   103c2: 6f 00 40 00  	j	0x103c6 <main+0x1ee>
   103c6: 03 25 04 fa  	lw	a0, -0x60(s0)
   103ca: 93 15 35 00  	slli	a1, a0, 0x3
   103ce: 13 05 04 fb  	addi	a0, s0, -0x50
   103d2: 2e 95        	add	a0, a0, a1
   103d4: 0c 61        	ld	a1, 0x0(a0)
   103d6: 37 d5 01 00  	lui	a0, 0x1d
   103da: 13 05 25 b9  	addi	a0, a0, -0x46e
   103de: ef 20 30 42  	jal	0x13000 <printf>
   103e2: 6f 00 40 00  	j	0x103e6 <main+0x20e>
   103e6: 03 25 04 fa  	lw	a0, -0x60(s0)
   103ea: 05 25        	addiw	a0, a0, 0x1
   103ec: 23 20 a4 fa  	sw	a0, -0x60(s0)
   103f0: 6f f0 3f fc  	j	0x103b2 <main+0x1da>
   103f4: 37 d5 01 00  	lui	a0, 0x1d
   103f8: 13 05 65 c0  	addi	a0, a0, -0x3fa
   103fc: ef 20 50 40  	jal	0x13000 <printf>
   10400: 13 05 f0 3f  	li	a0, 0x3ff
   10404: 52 15        	slli	a0, a0, 0x34
   10406: 23 30 a4 fe  	sd	a0, -0x20(s0)
   1040a: 83 b5 81 11  	ld	a1, 0x118(gp)
   1040e: 23 3c b4 fc  	sd	a1, -0x28(s0)
   10412: 23 38 a4 fc  	sd	a0, -0x30(s0)
   10416: 37 35 08 f8  	lui	a0, 0xf8083
   1041a: 0e 15        	slli	a0, a0, 0x23
   1041c: 23 34 a4 fc  	sd	a0, -0x38(s0)
   10420: 07 35 04 fe  	fld	fa0, -0x20(s0)
   10424: 87 35 84 fd  	fld	fa1, -0x28(s0)
   10428: 07 36 04 fd  	fld	fa2, -0x30(s0)
   1042c: 87 36 84 fc  	fld	fa3, -0x38(s0)
   10430: 13 05 44 fa  	addi	a0, s0, -0x5c
   10434: 93 05 04 fb  	addi	a1, s0, -0x50
   10438: ef 00 00 6e  	jal	0x10b18 <SolveCubic>
   1043c: 37 d5 01 00  	lui	a0, 0x1d
   10440: 13 05 75 b8  	addi	a0, a0, -0x479
   10444: ef 20 d0 3b  	jal	0x13000 <printf>
   10448: 01 45        	li	a0, 0x0
   1044a: 23 20 a4 fa  	sw	a0, -0x60(s0)
   1044e: 6f 00 40 00  	j	0x10452 <main+0x27a>
   10452: 03 25 04 fa  	lw	a0, -0x60(s0)
   10456: 83 25 44 fa  	lw	a1, -0x5c(s0)
   1045a: 63 44 b5 00  	blt	a0, a1, 0x10462 <main+0x28a>
   1045e: 6f 00 60 03  	j	0x10494 <main+0x2bc>
   10462: 6f 00 40 00  	j	0x10466 <main+0x28e>
   10466: 03 25 04 fa  	lw	a0, -0x60(s0)
   1046a: 93 15 35 00  	slli	a1, a0, 0x3
   1046e: 13 05 04 fb  	addi	a0, s0, -0x50
   10472: 2e 95        	add	a0, a0, a1
   10474: 0c 61        	ld	a1, 0x0(a0)
   10476: 37 d5 01 00  	lui	a0, 0x1d
   1047a: 13 05 25 b9  	addi	a0, a0, -0x46e
   1047e: ef 20 30 38  	jal	0x13000 <printf>
   10482: 6f 00 40 00  	j	0x10486 <main+0x2ae>
   10486: 03 25 04 fa  	lw	a0, -0x60(s0)
   1048a: 05 25        	addiw	a0, a0, 0x1
   1048c: 23 20 a4 fa  	sw	a0, -0x60(s0)
   10490: 6f f0 3f fc  	j	0x10452 <main+0x27a>
   10494: 37 d5 01 00  	lui	a0, 0x1d
   10498: 13 05 65 c0  	addi	a0, a0, -0x3fa
   1049c: ef 20 50 36  	jal	0x13000 <printf>
   104a0: 37 15 80 00  	lui	a0, 0x801
   104a4: 1e 15        	slli	a0, a0, 0x27
   104a6: 23 30 a4 fe  	sd	a0, -0x20(s0)
   104aa: 03 b5 01 12  	ld	a0, 0x120(gp)
   104ae: 23 3c a4 fc  	sd	a0, -0x28(s0)
   104b2: 37 55 00 01  	lui	a0, 0x1005
   104b6: 1a 15        	slli	a0, a0, 0x26
   104b8: 23 38 a4 fc  	sd	a0, -0x30(s0)
   104bc: 37 55 80 00  	lui	a0, 0x805
   104c0: 1e 15        	slli	a0, a0, 0x27
   104c2: 23 34 a4 fc  	sd	a0, -0x38(s0)
   104c6: 07 35 04 fe  	fld	fa0, -0x20(s0)
   104ca: 87 35 84 fd  	fld	fa1, -0x28(s0)
   104ce: 07 36 04 fd  	fld	fa2, -0x30(s0)
   104d2: 87 36 84 fc  	fld	fa3, -0x38(s0)
   104d6: 13 05 44 fa  	addi	a0, s0, -0x5c
   104da: 93 05 04 fb  	addi	a1, s0, -0x50
   104de: ef 00 a0 63  	jal	0x10b18 <SolveCubic>
   104e2: 37 d5 01 00  	lui	a0, 0x1d
   104e6: 13 05 75 b8  	addi	a0, a0, -0x479
   104ea: ef 20 70 31  	jal	0x13000 <printf>
   104ee: 01 45        	li	a0, 0x0
   104f0: 23 20 a4 fa  	sw	a0, -0x60(s0)
   104f4: 6f 00 40 00  	j	0x104f8 <main+0x320>
   104f8: 03 25 04 fa  	lw	a0, -0x60(s0)
   104fc: 83 25 44 fa  	lw	a1, -0x5c(s0)
   10500: 63 44 b5 00  	blt	a0, a1, 0x10508 <main+0x330>
   10504: 6f 00 60 03  	j	0x1053a <main+0x362>
   10508: 6f 00 40 00  	j	0x1050c <main+0x334>
   1050c: 03 25 04 fa  	lw	a0, -0x60(s0)
   10510: 93 15 35 00  	slli	a1, a0, 0x3
   10514: 13 05 04 fb  	addi	a0, s0, -0x50
   10518: 2e 95        	add	a0, a0, a1
   1051a: 0c 61        	ld	a1, 0x0(a0)
   1051c: 37 d5 01 00  	lui	a0, 0x1d
   10520: 13 05 25 b9  	addi	a0, a0, -0x46e
   10524: ef 20 d0 2d  	jal	0x13000 <printf>
   10528: 6f 00 40 00  	j	0x1052c <main+0x354>
   1052c: 03 25 04 fa  	lw	a0, -0x60(s0)
   10530: 05 25        	addiw	a0, a0, 0x1
   10532: 23 20 a4 fa  	sw	a0, -0x60(s0)
   10536: 6f f0 3f fc  	j	0x104f8 <main+0x320>
   1053a: 37 d5 01 00  	lui	a0, 0x1d
   1053e: 13 05 65 c0  	addi	a0, a0, -0x3fa
   10542: ef 20 f0 2b  	jal	0x13000 <printf>
   10546: 13 05 10 e0  	li	a0, -0x1ff
   1054a: 56 15        	slli	a0, a0, 0x35
   1054c: 23 30 a4 fe  	sd	a0, -0x20(s0)
   10550: 03 b5 81 12  	ld	a0, 0x128(gp)
   10554: 23 3c a4 fc  	sd	a0, -0x28(s0)
   10558: 37 35 80 00  	lui	a0, 0x803
   1055c: 1e 15        	slli	a0, a0, 0x27
   1055e: 23 38 a4 fc  	sd	a0, -0x30(s0)
   10562: 03 b5 01 13  	ld	a0, 0x130(gp)
   10566: 23 34 a4 fc  	sd	a0, -0x38(s0)
   1056a: 07 35 04 fe  	fld	fa0, -0x20(s0)
   1056e: 87 35 84 fd  	fld	fa1, -0x28(s0)
   10572: 07 36 04 fd  	fld	fa2, -0x30(s0)
   10576: 87 36 84 fc  	fld	fa3, -0x38(s0)
   1057a: 13 05 44 fa  	addi	a0, s0, -0x5c
   1057e: 93 05 04 fb  	addi	a1, s0, -0x50
   10582: ef 00 60 59  	jal	0x10b18 <SolveCubic>
   10586: 37 d5 01 00  	lui	a0, 0x1d
   1058a: 13 05 75 b8  	addi	a0, a0, -0x479
   1058e: ef 20 30 27  	jal	0x13000 <printf>
   10592: 01 45        	li	a0, 0x0
   10594: 23 20 a4 fa  	sw	a0, -0x60(s0)
   10598: 6f 00 40 00  	j	0x1059c <main+0x3c4>
   1059c: 03 25 04 fa  	lw	a0, -0x60(s0)
   105a0: 83 25 44 fa  	lw	a1, -0x5c(s0)
   105a4: 63 44 b5 00  	blt	a0, a1, 0x105ac <main+0x3d4>
   105a8: 6f 00 60 03  	j	0x105de <main+0x406>
   105ac: 6f 00 40 00  	j	0x105b0 <main+0x3d8>
   105b0: 03 25 04 fa  	lw	a0, -0x60(s0)
   105b4: 93 15 35 00  	slli	a1, a0, 0x3
   105b8: 13 05 04 fb  	addi	a0, s0, -0x50
   105bc: 2e 95        	add	a0, a0, a1
   105be: 0c 61        	ld	a1, 0x0(a0)
   105c0: 37 d5 01 00  	lui	a0, 0x1d
   105c4: 13 05 25 b9  	addi	a0, a0, -0x46e
   105c8: ef 20 90 23  	jal	0x13000 <printf>
   105cc: 6f 00 40 00  	j	0x105d0 <main+0x3f8>
   105d0: 03 25 04 fa  	lw	a0, -0x60(s0)
   105d4: 05 25        	addiw	a0, a0, 0x1
   105d6: 23 20 a4 fa  	sw	a0, -0x60(s0)
   105da: 6f f0 3f fc  	j	0x1059c <main+0x3c4>
   105de: 37 d5 01 00  	lui	a0, 0x1d
   105e2: 13 05 65 c0  	addi	a0, a0, -0x3fa
   105e6: ef 20 b0 21  	jal	0x13000 <printf>
   105ea: 37 d5 08 08  	lui	a0, 0x808d
   105ee: 0e 15        	slli	a0, a0, 0x23
   105f0: 23 30 a4 fe  	sd	a0, -0x20(s0)
   105f4: 03 b5 81 13  	ld	a0, 0x138(gp)
   105f8: 23 3c a4 fc  	sd	a0, -0x28(s0)
   105fc: 37 f5 00 02  	lui	a0, 0x200f
   10600: 16 15        	slli	a0, a0, 0x25
   10602: 23 38 a4 fc  	sd	a0, -0x30(s0)
   10606: 37 15 04 04  	lui	a0, 0x4041
   1060a: 12 15        	slli	a0, a0, 0x24
   1060c: 23 34 a4 fc  	sd	a0, -0x38(s0)
   10610: 07 35 04 fe  	fld	fa0, -0x20(s0)
   10614: 87 35 84 fd  	fld	fa1, -0x28(s0)
   10618: 07 36 04 fd  	fld	fa2, -0x30(s0)
   1061c: 87 36 84 fc  	fld	fa3, -0x38(s0)
   10620: 13 05 44 fa  	addi	a0, s0, -0x5c
   10624: 93 05 04 fb  	addi	a1, s0, -0x50
   10628: ef 00 00 4f  	jal	0x10b18 <SolveCubic>
   1062c: 37 d5 01 00  	lui	a0, 0x1d
   10630: 13 05 75 b8  	addi	a0, a0, -0x479
   10634: ef 20 d0 1c  	jal	0x13000 <printf>
   10638: 01 45        	li	a0, 0x0
   1063a: 23 20 a4 fa  	sw	a0, -0x60(s0)
   1063e: 6f 00 40 00  	j	0x10642 <main+0x46a>
   10642: 03 25 04 fa  	lw	a0, -0x60(s0)
   10646: 83 25 44 fa  	lw	a1, -0x5c(s0)
   1064a: 63 44 b5 00  	blt	a0, a1, 0x10652 <main+0x47a>
   1064e: 6f 00 60 03  	j	0x10684 <main+0x4ac>
   10652: 6f 00 40 00  	j	0x10656 <main+0x47e>
   10656: 03 25 04 fa  	lw	a0, -0x60(s0)
   1065a: 93 15 35 00  	slli	a1, a0, 0x3
   1065e: 13 05 04 fb  	addi	a0, s0, -0x50
   10662: 2e 95        	add	a0, a0, a1
   10664: 0c 61        	ld	a1, 0x0(a0)
   10666: 37 d5 01 00  	lui	a0, 0x1d
   1066a: 13 05 25 b9  	addi	a0, a0, -0x46e
   1066e: ef 20 30 19  	jal	0x13000 <printf>
   10672: 6f 00 40 00  	j	0x10676 <main+0x49e>
   10676: 03 25 04 fa  	lw	a0, -0x60(s0)
   1067a: 05 25        	addiw	a0, a0, 0x1
   1067c: 23 20 a4 fa  	sw	a0, -0x60(s0)
   10680: 6f f0 3f fc  	j	0x10642 <main+0x46a>
   10684: 37 d5 01 00  	lui	a0, 0x1d
   10688: 13 05 65 c0  	addi	a0, a0, -0x3fa
   1068c: ef 20 50 17  	jal	0x13000 <printf>
   10690: 13 05 50 80  	li	a0, -0x7fb
   10694: 4e 15        	slli	a0, a0, 0x33
   10696: 23 30 a4 fe  	sd	a0, -0x20(s0)
   1069a: 03 b5 01 14  	ld	a0, 0x140(gp)
   1069e: 23 3c a4 fc  	sd	a0, -0x28(s0)
   106a2: 03 b5 81 14  	ld	a0, 0x148(gp)
   106a6: 23 38 a4 fc  	sd	a0, -0x30(s0)
   106aa: 13 05 30 40  	li	a0, 0x403
   106ae: 52 15        	slli	a0, a0, 0x34
   106b0: 23 34 a4 fc  	sd	a0, -0x38(s0)
   106b4: 07 35 04 fe  	fld	fa0, -0x20(s0)
   106b8: 87 35 84 fd  	fld	fa1, -0x28(s0)
   106bc: 07 36 04 fd  	fld	fa2, -0x30(s0)
   106c0: 87 36 84 fc  	fld	fa3, -0x38(s0)
   106c4: 13 05 44 fa  	addi	a0, s0, -0x5c
   106c8: 93 05 04 fb  	addi	a1, s0, -0x50
   106cc: ef 00 c0 44  	jal	0x10b18 <SolveCubic>
   106d0: 37 d5 01 00  	lui	a0, 0x1d
   106d4: 13 05 75 b8  	addi	a0, a0, -0x479
   106d8: ef 20 90 12  	jal	0x13000 <printf>
   106dc: 01 45        	li	a0, 0x0
   106de: 23 20 a4 fa  	sw	a0, -0x60(s0)
   106e2: 6f 00 40 00  	j	0x106e6 <main+0x50e>
   106e6: 03 25 04 fa  	lw	a0, -0x60(s0)
   106ea: 83 25 44 fa  	lw	a1, -0x5c(s0)
   106ee: 63 44 b5 00  	blt	a0, a1, 0x106f6 <main+0x51e>
   106f2: 6f 00 60 03  	j	0x10728 <main+0x550>
   106f6: 6f 00 40 00  	j	0x106fa <main+0x522>
   106fa: 03 25 04 fa  	lw	a0, -0x60(s0)
   106fe: 93 15 35 00  	slli	a1, a0, 0x3
   10702: 13 05 04 fb  	addi	a0, s0, -0x50
   10706: 2e 95        	add	a0, a0, a1
   10708: 0c 61        	ld	a1, 0x0(a0)
   1070a: 37 d5 01 00  	lui	a0, 0x1d
   1070e: 13 05 25 b9  	addi	a0, a0, -0x46e
   10712: ef 20 f0 0e  	jal	0x13000 <printf>
   10716: 6f 00 40 00  	j	0x1071a <main+0x542>
   1071a: 03 25 04 fa  	lw	a0, -0x60(s0)
   1071e: 05 25        	addiw	a0, a0, 0x1
   10720: 23 20 a4 fa  	sw	a0, -0x60(s0)
   10724: 6f f0 3f fc  	j	0x106e6 <main+0x50e>
   10728: 37 d5 01 00  	lui	a0, 0x1d
   1072c: 13 05 65 c0  	addi	a0, a0, -0x3fa
   10730: ef 20 10 0d  	jal	0x13000 <printf>
   10734: 13 05 f0 3f  	li	a0, 0x3ff
   10738: 52 15        	slli	a0, a0, 0x34
   1073a: 23 30 a4 fe  	sd	a0, -0x20(s0)
   1073e: 6f 00 40 00  	j	0x10742 <main+0x56a>
   10742: 87 37 04 fe  	fld	fa5, -0x20(s0)
   10746: 07 b7 01 15  	fld	fa4, 0x150(gp)
   1074a: 53 95 e7 a2  	flt.d	a0, fa5, fa4
   1074e: 19 e1        	bnez	a0, 0x10754 <main+0x57c>
   10750: 6f 00 40 15  	j	0x108a4 <main+0x6cc>
   10754: 6f 00 40 00  	j	0x10758 <main+0x580>
   10758: 37 95 00 01  	lui	a0, 0x1009
   1075c: 1a 15        	slli	a0, a0, 0x26
   1075e: 23 3c a4 fc  	sd	a0, -0x28(s0)
   10762: 6f 00 40 00  	j	0x10766 <main+0x58e>
   10766: 07 37 84 fd  	fld	fa4, -0x28(s0)
   1076a: d3 07 00 f2  	fmv.d.x	fa5, zero
   1076e: 53 95 e7 a2  	flt.d	a0, fa5, fa4
   10772: 19 e1        	bnez	a0, 0x10778 <main+0x5a0>
   10774: 6f 00 80 11  	j	0x1088c <main+0x6b4>
   10778: 6f 00 40 00  	j	0x1077c <main+0x5a4>
   1077c: 37 55 00 01  	lui	a0, 0x1005
   10780: 1a 15        	slli	a0, a0, 0x26
   10782: 23 38 a4 fc  	sd	a0, -0x30(s0)
   10786: 6f 00 40 00  	j	0x1078a <main+0x5b2>
   1078a: 87 37 04 fd  	fld	fa5, -0x30(s0)
   1078e: 07 b7 81 19  	fld	fa4, 0x198(gp)
   10792: 53 95 e7 a2  	flt.d	a0, fa5, fa4
   10796: 19 e1        	bnez	a0, 0x1079c <main+0x5c4>
   10798: 6f 00 c0 0d  	j	0x10874 <main+0x69c>
   1079c: 6f 00 40 00  	j	0x107a0 <main+0x5c8>
   107a0: 13 05 f0 bf  	li	a0, -0x401
   107a4: 52 15        	slli	a0, a0, 0x34
   107a6: 23 34 a4 fc  	sd	a0, -0x38(s0)
   107aa: 6f 00 40 00  	j	0x107ae <main+0x5d6>
   107ae: 07 37 84 fc  	fld	fa4, -0x38(s0)
   107b2: 87 b7 81 1a  	fld	fa5, 0x1a8(gp)
   107b6: 53 95 e7 a2  	flt.d	a0, fa5, fa4
   107ba: 19 e1        	bnez	a0, 0x107c0 <main+0x5e8>
   107bc: 6f 00 00 0a  	j	0x1085c <main+0x684>
   107c0: 6f 00 40 00  	j	0x107c4 <main+0x5ec>
   107c4: 07 35 04 fe  	fld	fa0, -0x20(s0)
   107c8: 87 35 84 fd  	fld	fa1, -0x28(s0)
   107cc: 07 36 04 fd  	fld	fa2, -0x30(s0)
   107d0: 87 36 84 fc  	fld	fa3, -0x38(s0)
   107d4: 13 05 44 fa  	addi	a0, s0, -0x5c
   107d8: 93 05 04 fb  	addi	a1, s0, -0x50
   107dc: ef 00 c0 33  	jal	0x10b18 <SolveCubic>
   107e0: 37 d5 01 00  	lui	a0, 0x1d
   107e4: 13 05 75 b8  	addi	a0, a0, -0x479
   107e8: ef 20 90 01  	jal	0x13000 <printf>
   107ec: 01 45        	li	a0, 0x0
   107ee: 23 20 a4 fa  	sw	a0, -0x60(s0)
   107f2: 6f 00 40 00  	j	0x107f6 <main+0x61e>
   107f6: 03 25 04 fa  	lw	a0, -0x60(s0)
   107fa: 83 25 44 fa  	lw	a1, -0x5c(s0)
   107fe: 63 44 b5 00  	blt	a0, a1, 0x10806 <main+0x62e>
   10802: 6f 00 60 03  	j	0x10838 <main+0x660>
   10806: 6f 00 40 00  	j	0x1080a <main+0x632>
   1080a: 03 25 04 fa  	lw	a0, -0x60(s0)
   1080e: 93 15 35 00  	slli	a1, a0, 0x3
   10812: 13 05 04 fb  	addi	a0, s0, -0x50
   10816: 2e 95        	add	a0, a0, a1
   10818: 0c 61        	ld	a1, 0x0(a0)
   1081a: 37 d5 01 00  	lui	a0, 0x1d
   1081e: 13 05 25 b9  	addi	a0, a0, -0x46e
   10822: ef 20 e0 7d  	jal	0x13000 <printf>
   10826: 6f 00 40 00  	j	0x1082a <main+0x652>
   1082a: 03 25 04 fa  	lw	a0, -0x60(s0)
   1082e: 05 25        	addiw	a0, a0, 0x1
   10830: 23 20 a4 fa  	sw	a0, -0x60(s0)
   10834: 6f f0 3f fc  	j	0x107f6 <main+0x61e>
   10838: 37 d5 01 00  	lui	a0, 0x1d
   1083c: 13 05 65 c0  	addi	a0, a0, -0x3fa
   10840: ef 20 00 7c  	jal	0x13000 <printf>
   10844: 6f 00 40 00  	j	0x10848 <main+0x670>
   10848: 87 37 84 fc  	fld	fa5, -0x38(s0)
   1084c: 07 b7 81 1b  	fld	fa4, 0x1b8(gp)
   10850: d3 f7 e7 02  	fadd.d	fa5, fa5, fa4
   10854: 27 34 f4 fc  	fsd	fa5, -0x38(s0)
   10858: 6f f0 7f f5  	j	0x107ae <main+0x5d6>
   1085c: 6f 00 40 00  	j	0x10860 <main+0x688>
   10860: 87 37 04 fd  	fld	fa5, -0x30(s0)
   10864: 07 b7 01 1b  	fld	fa4, 0x1b0(gp)
   10868: d3 f7 e7 02  	fadd.d	fa5, fa5, fa4
   1086c: 27 38 f4 fc  	fsd	fa5, -0x30(s0)
   10870: 6f f0 bf f1  	j	0x1078a <main+0x5b2>
   10874: 6f 00 40 00  	j	0x10878 <main+0x6a0>
   10878: 87 37 84 fd  	fld	fa5, -0x28(s0)
   1087c: 07 b7 01 1a  	fld	fa4, 0x1a0(gp)
   10880: d3 f7 e7 02  	fadd.d	fa5, fa5, fa4
   10884: 27 3c f4 fc  	fsd	fa5, -0x28(s0)
   10888: 6f f0 ff ed  	j	0x10766 <main+0x58e>
   1088c: 6f 00 40 00  	j	0x10890 <main+0x6b8>
   10890: 87 37 04 fe  	fld	fa5, -0x20(s0)
   10894: 07 b7 01 16  	fld	fa4, 0x160(gp)
   10898: d3 f7 e7 02  	fadd.d	fa5, fa5, fa4
   1089c: 27 30 f4 fe  	fsd	fa5, -0x20(s0)
   108a0: 6f f0 3f ea  	j	0x10742 <main+0x56a>
   108a4: 37 d5 01 00  	lui	a0, 0x1d
   108a8: 13 05 65 b9  	addi	a0, a0, -0x46a
   108ac: ef 20 40 75  	jal	0x13000 <printf>
   108b0: 01 45        	li	a0, 0x0
   108b2: 23 20 a4 fa  	sw	a0, -0x60(s0)
   108b6: 6f 00 40 00  	j	0x108ba <main+0x6e2>
   108ba: 83 25 04 fa  	lw	a1, -0x60(s0)
   108be: 61 65        	lui	a0, 0x18
   108c0: 1b 05 f5 69  	addiw	a0, a0, 0x69f
   108c4: 63 54 b5 00  	bge	a0, a1, 0x108cc <main+0x6f4>
   108c8: 6f 00 a0 03  	j	0x10902 <main+0x72a>
   108cc: 6f 00 40 00  	j	0x108d0 <main+0x6f8>
   108d0: 03 25 04 fa  	lw	a0, -0x60(s0)
   108d4: 93 05 04 f9  	addi	a1, s0, -0x70
   108d8: ef 00 e0 76  	jal	0x11046 <usqrt>
   108dc: 83 25 04 fa  	lw	a1, -0x60(s0)
   108e0: 03 26 04 f9  	lw	a2, -0x70(s0)
   108e4: 37 d5 01 00  	lui	a0, 0x1d
   108e8: 13 05 f5 bb  	addi	a0, a0, -0x441
   108ec: ef 20 40 71  	jal	0x13000 <printf>
   108f0: 6f 00 40 00  	j	0x108f4 <main+0x71c>
   108f4: 03 25 04 fa  	lw	a0, -0x60(s0)
   108f8: 09 25        	addiw	a0, a0, 0x2
   108fa: 23 20 a4 fa  	sw	a0, -0x60(s0)
   108fe: 6f f0 df fb  	j	0x108ba <main+0x6e2>
   10902: 37 d5 01 00  	lui	a0, 0x1d
   10906: 13 05 65 c0  	addi	a0, a0, -0x3fa
   1090a: ef 20 60 6f  	jal	0x13000 <printf>
   1090e: 37 05 ed 3f  	lui	a0, 0x3fed0
   10912: 1b 05 95 16  	addiw	a0, a0, 0x169
   10916: 23 3c a4 f8  	sd	a0, -0x68(s0)
   1091a: 6f 00 40 00  	j	0x1091e <main+0x746>
   1091e: 83 35 84 f9  	ld	a1, -0x68(s0)
   10922: 37 45 ed 3f  	lui	a0, 0x3fed4
   10926: 1b 05 85 16  	addiw	a0, a0, 0x168
   1092a: 63 74 b5 00  	bgeu	a0, a1, 0x10932 <main+0x75a>
   1092e: 6f 00 a0 03  	j	0x10968 <main+0x790>
   10932: 6f 00 40 00  	j	0x10936 <main+0x75e>
   10936: 03 35 84 f9  	ld	a0, -0x68(s0)
   1093a: 93 05 04 f9  	addi	a1, s0, -0x70
   1093e: ef 00 80 70  	jal	0x11046 <usqrt>
   10942: 83 35 84 f9  	ld	a1, -0x68(s0)
   10946: 03 26 04 f9  	lw	a2, -0x70(s0)
   1094a: 37 d5 01 00  	lui	a0, 0x1d
   1094e: 13 05 05 bd  	addi	a0, a0, -0x430
   10952: ef 20 e0 6a  	jal	0x13000 <printf>
   10956: 6f 00 40 00  	j	0x1095a <main+0x782>
   1095a: 03 35 84 f9  	ld	a0, -0x68(s0)
   1095e: 05 05        	addi	a0, a0, 0x1
   10960: 23 3c a4 f8  	sd	a0, -0x68(s0)
   10964: 6f f0 bf fb  	j	0x1091e <main+0x746>
   10968: 37 d5 01 00  	lui	a0, 0x1d
   1096c: 13 05 05 be  	addi	a0, a0, -0x420
   10970: ef 20 00 69  	jal	0x13000 <printf>
   10974: 01 45        	li	a0, 0x0
   10976: 23 34 a4 fa  	sd	a0, -0x58(s0)
   1097a: 6f 00 40 00  	j	0x1097e <main+0x7a6>
   1097e: 87 37 84 fa  	fld	fa5, -0x58(s0)
   10982: 07 b7 81 15  	fld	fa4, 0x158(gp)
   10986: 53 85 e7 a2  	fle.d	a0, fa5, fa4
   1098a: 19 e1        	bnez	a0, 0x10990 <main+0x7b8>
   1098c: 6f 00 c0 05  	j	0x109e8 <main+0x810>
   10990: 6f 00 40 00  	j	0x10994 <main+0x7bc>
   10994: 87 37 84 fa  	fld	fa5, -0x58(s0)
   10998: 27 3c f4 f6  	fsd	fa5, -0x88(s0)
   1099c: 07 b5 01 16  	fld	fa0, 0x160(gp)
   109a0: ef 00 70 0c  	jal	0x11266 <atan>
   109a4: 87 37 84 f7  	fld	fa5, -0x88(s0)
   109a8: 07 b7 81 16  	fld	fa4, 0x168(gp)
   109ac: 53 77 e5 12  	fmul.d	fa4, fa0, fa4
   109b0: 53 f7 e7 12  	fmul.d	fa4, fa5, fa4
   109b4: 87 b6 01 18  	fld	fa3, 0x180(gp)
   109b8: 53 77 d7 1a  	fdiv.d	fa4, fa4, fa3
   109bc: 53 06 07 e2  	fmv.x.d	a2, fa4
   109c0: 37 d5 01 00  	lui	a0, 0x1d
   109c4: 13 05 85 c0  	addi	a0, a0, -0x3f8
   109c8: d3 85 07 e2  	fmv.x.d	a1, fa5
   109cc: ef 20 40 63  	jal	0x13000 <printf>
   109d0: 6f 00 40 00  	j	0x109d4 <main+0x7fc>
   109d4: 87 37 84 fa  	fld	fa5, -0x58(s0)
   109d8: 07 b7 01 19  	fld	fa4, 0x190(gp)
   109dc: d3 f7 e7 02  	fadd.d	fa5, fa5, fa4
   109e0: 27 34 f4 fa  	fsd	fa5, -0x58(s0)
   109e4: 6f f0 bf f9  	j	0x1097e <main+0x7a6>
   109e8: 37 d5 01 00  	lui	a0, 0x1d
   109ec: 13 05 75 c0  	addi	a0, a0, -0x3f9
   109f0: ef 20 c0 6b  	jal	0x130ac <puts>
   109f4: 01 45        	li	a0, 0x0
   109f6: 23 34 a4 fa  	sd	a0, -0x58(s0)
   109fa: 6f 00 40 00  	j	0x109fe <main+0x826>
   109fe: 87 37 84 fa  	fld	fa5, -0x58(s0)
   10a02: 27 38 f4 f6  	fsd	fa5, -0x90(s0)
   10a06: 07 b5 01 16  	fld	fa0, 0x160(gp)
   10a0a: ef 00 d0 05  	jal	0x11266 <atan>
   10a0e: 87 37 04 f7  	fld	fa5, -0x90(s0)
   10a12: 07 b7 81 16  	fld	fa4, 0x168(gp)
   10a16: 53 77 e5 12  	fmul.d	fa4, fa0, fa4
   10a1a: 07 b6 01 17  	fld	fa2, 0x170(gp)
   10a1e: 87 b6 81 17  	fld	fa3, 0x178(gp)
   10a22: 43 77 d7 62  	fmadd.d	fa4, fa4, fa3, fa2
   10a26: 53 85 e7 a2  	fle.d	a0, fa5, fa4
   10a2a: 19 e1        	bnez	a0, 0x10a30 <main+0x858>
   10a2c: 6f 00 80 07  	j	0x10aa4 <main+0x8cc>
   10a30: 6f 00 40 00  	j	0x10a34 <main+0x85c>
   10a34: 87 37 84 fa  	fld	fa5, -0x58(s0)
   10a38: 27 34 f4 f6  	fsd	fa5, -0x98(s0)
   10a3c: 07 b7 01 18  	fld	fa4, 0x180(gp)
   10a40: d3 f7 e7 12  	fmul.d	fa5, fa5, fa4
   10a44: 27 30 f4 f6  	fsd	fa5, -0xa0(s0)
   10a48: 07 b5 01 16  	fld	fa0, 0x160(gp)
   10a4c: ef 00 b0 01  	jal	0x11266 <atan>
   10a50: 07 37 04 f6  	fld	fa4, -0xa0(s0)
   10a54: 87 37 84 f6  	fld	fa5, -0x98(s0)
   10a58: 87 b6 81 16  	fld	fa3, 0x168(gp)
   10a5c: d3 76 d5 12  	fmul.d	fa3, fa0, fa3
   10a60: 53 77 d7 1a  	fdiv.d	fa4, fa4, fa3
   10a64: 53 06 07 e2  	fmv.x.d	a2, fa4
   10a68: 37 d5 01 00  	lui	a0, 0x1d
   10a6c: 13 05 75 c2  	addi	a0, a0, -0x3d9
   10a70: d3 85 07 e2  	fmv.x.d	a1, fa5
   10a74: ef 20 c0 58  	jal	0x13000 <printf>
   10a78: 6f 00 40 00  	j	0x10a7c <main+0x8a4>
   10a7c: 07 b5 01 16  	fld	fa0, 0x160(gp)
   10a80: ef 00 60 7e  	jal	0x11266 <atan>
   10a84: 87 b7 81 16  	fld	fa5, 0x168(gp)
   10a88: d3 77 f5 12  	fmul.d	fa5, fa0, fa5
   10a8c: 07 b7 81 18  	fld	fa4, 0x188(gp)
   10a90: 53 f7 e7 1a  	fdiv.d	fa4, fa5, fa4
   10a94: 87 37 84 fa  	fld	fa5, -0x58(s0)
   10a98: d3 f7 e7 02  	fadd.d	fa5, fa5, fa4
   10a9c: 27 34 f4 fa  	fsd	fa5, -0x58(s0)
   10aa0: 6f f0 ff f5  	j	0x109fe <main+0x826>
   10aa4: 01 45        	li	a0, 0x0
   10aa6: 49 61        	addi	sp, sp, 0x90
   10aa8: 6f c0 20 07  	j	0x1cb1a <__riscv_restore_1>

0000000000010aac <rad2deg>:
   10aac: ef c2 40 04  	jal	t0, 0x1caf0 <__riscv_save_1>
   10ab0: 41 11        	addi	sp, sp, -0x10
   10ab2: 00 10        	addi	s0, sp, 0x20
   10ab4: 27 34 a4 fe  	fsd	fa0, -0x18(s0)
   10ab8: 87 37 84 fe  	fld	fa5, -0x18(s0)
   10abc: 07 b7 01 1c  	fld	fa4, 0x1c0(gp)
   10ac0: d3 f7 e7 12  	fmul.d	fa5, fa5, fa4
   10ac4: 27 30 f4 fe  	fsd	fa5, -0x20(s0)
   10ac8: 07 b5 81 1c  	fld	fa0, 0x1c8(gp)
   10acc: ef 00 a0 79  	jal	0x11266 <atan>
   10ad0: 87 37 04 fe  	fld	fa5, -0x20(s0)
   10ad4: 07 b7 01 1d  	fld	fa4, 0x1d0(gp)
   10ad8: 53 77 e5 12  	fmul.d	fa4, fa0, fa4
   10adc: 53 f5 e7 1a  	fdiv.d	fa0, fa5, fa4
   10ae0: 41 01        	addi	sp, sp, 0x10
   10ae2: 6f c0 80 03  	j	0x1cb1a <__riscv_restore_1>

0000000000010ae6 <deg2rad>:
   10ae6: ef c2 a0 00  	jal	t0, 0x1caf0 <__riscv_save_1>
   10aea: 41 11        	addi	sp, sp, -0x10
   10aec: 00 10        	addi	s0, sp, 0x20
   10aee: 27 34 a4 fe  	fsd	fa0, -0x18(s0)
   10af2: 07 b5 81 1d  	fld	fa0, 0x1d8(gp)
   10af6: ef 00 00 77  	jal	0x11266 <atan>
   10afa: 87 b7 01 1e  	fld	fa5, 0x1e0(gp)
   10afe: d3 77 f5 12  	fmul.d	fa5, fa0, fa5
   10b02: 07 37 84 fe  	fld	fa4, -0x18(s0)
   10b06: d3 f7 e7 12  	fmul.d	fa5, fa5, fa4
   10b0a: 07 b7 81 1e  	fld	fa4, 0x1e8(gp)
   10b0e: 53 f5 e7 1a  	fdiv.d	fa0, fa5, fa4
   10b12: 41 01        	addi	sp, sp, 0x10
   10b14: 6f c0 60 00  	j	0x1cb1a <__riscv_restore_1>

0000000000010b18 <SolveCubic>:
   10b18: ef b2 90 7d  	jal	t0, 0x1caf0 <__riscv_save_1>
   10b1c: 13 01 01 dd  	addi	sp, sp, -0x230
   10b20: 80 04        	addi	s0, sp, 0x240
   10b22: 27 34 a4 fe  	fsd	fa0, -0x18(s0)
   10b26: 27 30 b4 fe  	fsd	fa1, -0x20(s0)
   10b2a: 27 3c c4 fc  	fsd	fa2, -0x28(s0)
   10b2e: 27 38 d4 fc  	fsd	fa3, -0x30(s0)
   10b32: 23 34 a4 fc  	sd	a0, -0x38(s0)
   10b36: 23 30 b4 fc  	sd	a1, -0x40(s0)
   10b3a: 87 37 04 fe  	fld	fa5, -0x20(s0)
   10b3e: 07 37 84 fe  	fld	fa4, -0x18(s0)
   10b42: 53 f5 e7 1a  	fdiv.d	fa0, fa5, fa4
   10b46: ef b0 90 48  	jal	0x1c7ce <__extenddftf2>
   10b4a: 23 3c b4 fa  	sd	a1, -0x48(s0)
   10b4e: 23 38 a4 fa  	sd	a0, -0x50(s0)
   10b52: 87 37 84 fd  	fld	fa5, -0x28(s0)
   10b56: 07 37 84 fe  	fld	fa4, -0x18(s0)
   10b5a: 53 f5 e7 1a  	fdiv.d	fa0, fa5, fa4
   10b5e: ef b0 10 47  	jal	0x1c7ce <__extenddftf2>
   10b62: 23 34 b4 fa  	sd	a1, -0x58(s0)
   10b66: 23 30 a4 fa  	sd	a0, -0x60(s0)
   10b6a: 87 37 04 fd  	fld	fa5, -0x30(s0)
   10b6e: 07 37 84 fe  	fld	fa4, -0x18(s0)
   10b72: 53 f5 e7 1a  	fdiv.d	fa0, fa5, fa4
   10b76: ef b0 90 45  	jal	0x1c7ce <__extenddftf2>
   10b7a: 23 3c b4 f8  	sd	a1, -0x68(s0)
   10b7e: 23 38 a4 f8  	sd	a0, -0x70(s0)
   10b82: 03 35 04 fb  	ld	a0, -0x50(s0)
   10b86: 23 30 a4 ec  	sd	a0, -0x140(s0)
   10b8a: 03 35 84 fb  	ld	a0, -0x48(s0)
   10b8e: 23 34 a4 ec  	sd	a0, -0x138(s0)
   10b92: 03 35 04 fa  	ld	a0, -0x60(s0)
   10b96: 83 35 84 fa  	ld	a1, -0x58(s0)
   10b9a: 37 16 00 f8  	lui	a2, 0xf8001
   10b9e: 93 16 36 02  	slli	a3, a2, 0x23
   10ba2: 01 46        	li	a2, 0x0
   10ba4: 23 34 c4 f2  	sd	a2, -0xd8(s0)
   10ba8: ef a0 d0 4f  	jal	0x1b8a4 <__multf3>
   10bac: 03 36 04 ec  	ld	a2, -0x140(s0)
   10bb0: 83 36 84 ec  	ld	a3, -0x138(s0)
   10bb4: 23 38 a4 ec  	sd	a0, -0x130(s0)
   10bb8: 23 3c b4 ec  	sd	a1, -0x128(s0)
   10bbc: 32 85        	mv	a0, a2
   10bbe: b6 85        	mv	a1, a3
   10bc0: ef a0 50 4e  	jal	0x1b8a4 <__multf3>
   10bc4: 03 36 04 ed  	ld	a2, -0x130(s0)
   10bc8: 83 36 84 ed  	ld	a3, -0x128(s0)
   10bcc: ef 90 50 48  	jal	0x1a850 <__addtf3>
   10bd0: 03 36 84 f2  	ld	a2, -0xd8(s0)
   10bd4: b7 16 01 20  	lui	a3, 0x20011
   10bd8: 86 16        	slli	a3, a3, 0x21
   10bda: 23 30 d4 ee  	sd	a3, -0x120(s0)
   10bde: ef a0 a0 45  	jal	0x1b038 <__divtf3>
   10be2: 23 34 b4 f8  	sd	a1, -0x78(s0)
   10be6: 23 30 a4 f8  	sd	a0, -0x80(s0)
   10bea: 03 36 04 fb  	ld	a2, -0x50(s0)
   10bee: 23 34 c4 ee  	sd	a2, -0x118(s0)
   10bf2: 83 36 84 fb  	ld	a3, -0x48(s0)
   10bf6: 23 38 d4 ee  	sd	a3, -0x110(s0)
   10bfa: 32 85        	mv	a0, a2
   10bfc: b6 85        	mv	a1, a3
   10bfe: ef 90 30 45  	jal	0x1a850 <__addtf3>
   10c02: 03 36 84 ee  	ld	a2, -0x118(s0)
   10c06: 83 36 04 ef  	ld	a3, -0x110(s0)
   10c0a: ef a0 b0 49  	jal	0x1b8a4 <__multf3>
   10c0e: 83 36 04 ee  	ld	a3, -0x120(s0)
   10c12: 03 36 84 f2  	ld	a2, -0xd8(s0)
   10c16: 2a 87        	mv	a4, a0
   10c18: 03 35 84 ee  	ld	a0, -0x118(s0)
   10c1c: 23 3c e4 ee  	sd	a4, -0x108(s0)
   10c20: 2e 87        	mv	a4, a1
   10c22: 83 35 04 ef  	ld	a1, -0x110(s0)
   10c26: 23 30 e4 f0  	sd	a4, -0x100(s0)
   10c2a: ef a0 b0 47  	jal	0x1b8a4 <__multf3>
   10c2e: 03 36 04 fa  	ld	a2, -0x60(s0)
   10c32: 83 36 84 fa  	ld	a3, -0x58(s0)
   10c36: ef a0 f0 46  	jal	0x1b8a4 <__multf3>
   10c3a: 03 36 84 ee  	ld	a2, -0x118(s0)
   10c3e: 83 36 04 ef  	ld	a3, -0x110(s0)
   10c42: 2a 87        	mv	a4, a0
   10c44: 03 35 84 ef  	ld	a0, -0x108(s0)
   10c48: 23 34 e4 f0  	sd	a4, -0xf8(s0)
   10c4c: 2e 87        	mv	a4, a1
   10c4e: 83 35 04 f0  	ld	a1, -0x100(s0)
   10c52: 23 38 e4 f0  	sd	a4, -0xf0(s0)
   10c56: ef a0 f0 44  	jal	0x1b8a4 <__multf3>
   10c5a: 03 36 84 f0  	ld	a2, -0xf8(s0)
   10c5e: 83 36 04 f1  	ld	a3, -0xf0(s0)
   10c62: ef b0 80 23  	jal	0x1be9a <__subtf3>
   10c66: 03 36 84 f2  	ld	a2, -0xd8(s0)
   10c6a: 23 3c a4 f0  	sd	a0, -0xe8(s0)
   10c6e: 23 30 b4 f2  	sd	a1, -0xe0(s0)
   10c72: 03 35 04 f9  	ld	a0, -0x70(s0)
   10c76: 83 35 84 f9  	ld	a1, -0x68(s0)
   10c7a: b7 b6 03 40  	lui	a3, 0x4003b
   10c7e: 82 16        	slli	a3, a3, 0x20
   10c80: ef a0 50 42  	jal	0x1b8a4 <__multf3>
   10c84: 03 36 84 f1  	ld	a2, -0xe8(s0)
   10c88: 83 36 04 f2  	ld	a3, -0xe0(s0)
   10c8c: ef 90 50 3c  	jal	0x1a850 <__addtf3>
   10c90: 03 36 84 f2  	ld	a2, -0xd8(s0)
   10c94: b7 b6 04 40  	lui	a3, 0x4004b
   10c98: 82 16        	slli	a3, a3, 0x20
   10c9a: ef a0 e0 39  	jal	0x1b038 <__divtf3>
   10c9e: 23 3c b4 f6  	sd	a1, -0x88(s0)
   10ca2: 23 38 a4 f6  	sd	a0, -0x90(s0)
   10ca6: 03 35 04 f7  	ld	a0, -0x90(s0)
   10caa: 23 30 a4 f4  	sd	a0, -0xc0(s0)
   10cae: 03 35 84 f7  	ld	a0, -0x88(s0)
   10cb2: 23 34 a4 f4  	sd	a0, -0xb8(s0)
   10cb6: 03 36 04 f8  	ld	a2, -0x80(s0)
   10cba: 23 38 c4 f2  	sd	a2, -0xd0(s0)
   10cbe: 83 36 84 f8  	ld	a3, -0x78(s0)
   10cc2: 23 3c d4 f2  	sd	a3, -0xc8(s0)
   10cc6: 32 85        	mv	a0, a2
   10cc8: b6 85        	mv	a1, a3
   10cca: ef a0 b0 3d  	jal	0x1b8a4 <__multf3>
   10cce: 03 36 04 f3  	ld	a2, -0xd0(s0)
   10cd2: 83 36 84 f3  	ld	a3, -0xc8(s0)
   10cd6: ef a0 f0 3c  	jal	0x1b8a4 <__multf3>
   10cda: 03 36 04 f4  	ld	a2, -0xc0(s0)
   10cde: 83 36 84 f4  	ld	a3, -0xb8(s0)
   10ce2: 23 38 a4 f4  	sd	a0, -0xb0(s0)
   10ce6: 23 3c b4 f4  	sd	a1, -0xa8(s0)
   10cea: 32 85        	mv	a0, a2
   10cec: b6 85        	mv	a1, a3
   10cee: ef a0 70 3b  	jal	0x1b8a4 <__multf3>
   10cf2: 03 36 04 f5  	ld	a2, -0xb0(s0)
   10cf6: 83 36 84 f5  	ld	a3, -0xa8(s0)
   10cfa: ef b0 00 1a  	jal	0x1be9a <__subtf3>
   10cfe: ef b0 10 39  	jal	0x1c88e <__trunctfdf2>
   10d02: 27 34 a4 f6  	fsd	fa0, -0x98(s0)
   10d06: 87 37 84 f6  	fld	fa5, -0x98(s0)
   10d0a: 53 07 00 f2  	fmv.d.x	fa4, zero
   10d0e: 53 85 e7 a2  	fle.d	a0, fa5, fa4
   10d12: 19 e1        	bnez	a0, 0x10d18 <SolveCubic+0x200>
   10d14: 6f 00 a0 21  	j	0x10f2e <SolveCubic+0x416>
   10d18: 6f 00 40 00  	j	0x10d1c <SolveCubic+0x204>
   10d1c: 83 35 84 fc  	ld	a1, -0x38(s0)
   10d20: 0d 45        	li	a0, 0x3
   10d22: 88 c1        	sw	a0, 0x0(a1)
   10d24: 03 35 84 f7  	ld	a0, -0x88(s0)
   10d28: 23 38 a4 e2  	sd	a0, -0x1d0(s0)
   10d2c: 03 35 04 f7  	ld	a0, -0x90(s0)
   10d30: 23 34 a4 e2  	sd	a0, -0x1d8(s0)
   10d34: 03 36 04 f8  	ld	a2, -0x80(s0)
   10d38: 23 3c c4 e0  	sd	a2, -0x1e8(s0)
   10d3c: 83 36 84 f8  	ld	a3, -0x78(s0)
   10d40: 23 30 d4 e2  	sd	a3, -0x1e0(s0)
   10d44: 32 85        	mv	a0, a2
   10d46: b6 85        	mv	a1, a3
   10d48: ef a0 d0 35  	jal	0x1b8a4 <__multf3>
   10d4c: 03 36 84 e1  	ld	a2, -0x1e8(s0)
   10d50: 83 36 04 e2  	ld	a3, -0x1e0(s0)
   10d54: ef a0 10 35  	jal	0x1b8a4 <__multf3>
   10d58: ef b0 70 33  	jal	0x1c88e <__trunctfdf2>
   10d5c: ef 00 80 4c  	jal	0x11224 <sqrt>
   10d60: ef b0 f0 26  	jal	0x1c7ce <__extenddftf2>
   10d64: 2a 86        	mv	a2, a0
   10d66: 03 35 84 e2  	ld	a0, -0x1d8(s0)
   10d6a: ae 86        	mv	a3, a1
   10d6c: 83 35 04 e3  	ld	a1, -0x1d0(s0)
   10d70: ef a0 80 2c  	jal	0x1b038 <__divtf3>
   10d74: ef b0 b0 31  	jal	0x1c88e <__trunctfdf2>
   10d78: ef 00 00 39  	jal	0x11108 <acos>
   10d7c: 27 30 a4 f6  	fsd	fa0, -0xa0(s0)
   10d80: 03 35 04 f8  	ld	a0, -0x80(s0)
   10d84: 83 35 84 f8  	ld	a1, -0x78(s0)
   10d88: ef b0 70 30  	jal	0x1c88e <__trunctfdf2>
   10d8c: ef 00 80 49  	jal	0x11224 <sqrt>
   10d90: 87 b7 81 1f  	fld	fa5, 0x1f8(gp)
   10d94: 27 38 f4 e6  	fsd	fa5, -0x190(s0)
   10d98: d3 77 f5 12  	fmul.d	fa5, fa0, fa5
   10d9c: 27 3c f4 e2  	fsd	fa5, -0x1c8(s0)
   10da0: 87 37 04 f6  	fld	fa5, -0xa0(s0)
   10da4: 07 b7 01 20  	fld	fa4, 0x200(gp)
   10da8: 27 38 e4 e8  	fsd	fa4, -0x170(s0)
   10dac: 53 f5 e7 1a  	fdiv.d	fa0, fa5, fa4
   10db0: ef 00 20 67  	jal	0x11422 <cos>
   10db4: 87 37 84 e3  	fld	fa5, -0x1c8(s0)
   10db8: 53 f5 a7 12  	fmul.d	fa0, fa5, fa0
   10dbc: ef b0 30 21  	jal	0x1c7ce <__extenddftf2>
   10dc0: 23 30 a4 e4  	sd	a0, -0x1c0(s0)
   10dc4: 23 34 b4 e4  	sd	a1, -0x1b8(s0)
   10dc8: 03 35 04 fb  	ld	a0, -0x50(s0)
   10dcc: 83 35 84 fb  	ld	a1, -0x48(s0)
   10dd0: 37 16 00 08  	lui	a2, 0x8001
   10dd4: 93 16 36 02  	slli	a3, a2, 0x23
   10dd8: 23 34 d4 ea  	sd	a3, -0x158(s0)
   10ddc: 01 46        	li	a2, 0x0
   10dde: 23 30 c4 ea  	sd	a2, -0x160(s0)
   10de2: ef a0 60 25  	jal	0x1b038 <__divtf3>
   10de6: 2a 86        	mv	a2, a0
   10de8: 03 35 04 e4  	ld	a0, -0x1c0(s0)
   10dec: ae 86        	mv	a3, a1
   10dee: 83 35 84 e4  	ld	a1, -0x1b8(s0)
   10df2: ef b0 80 0a  	jal	0x1be9a <__subtf3>
   10df6: ef b0 90 29  	jal	0x1c88e <__trunctfdf2>
   10dfa: 03 35 04 fc  	ld	a0, -0x40(s0)
   10dfe: 27 30 a5 00  	fsd	fa0, 0x0(a0)
   10e02: 03 35 04 f8  	ld	a0, -0x80(s0)
   10e06: 83 35 84 f8  	ld	a1, -0x78(s0)
   10e0a: ef b0 50 28  	jal	0x1c88e <__trunctfdf2>
   10e0e: ef 00 60 41  	jal	0x11224 <sqrt>
   10e12: 87 37 04 e7  	fld	fa5, -0x190(s0)
   10e16: d3 77 f5 12  	fmul.d	fa5, fa0, fa5
   10e1a: 27 3c f4 e4  	fsd	fa5, -0x1a8(s0)
   10e1e: 87 37 04 f6  	fld	fa5, -0xa0(s0)
   10e22: 27 38 f4 e4  	fsd	fa5, -0x1b0(s0)
   10e26: 07 b5 81 20  	fld	fa0, 0x208(gp)
   10e2a: 27 3c a4 e6  	fsd	fa0, -0x188(s0)
   10e2e: ef 00 80 43  	jal	0x11266 <atan>
   10e32: 07 36 04 e5  	fld	fa2, -0x1b0(s0)
   10e36: 07 37 04 e9  	fld	fa4, -0x170(s0)
   10e3a: 87 b7 01 21  	fld	fa5, 0x210(gp)
   10e3e: 27 34 f4 e8  	fsd	fa5, -0x178(s0)
   10e42: d3 77 f5 12  	fmul.d	fa5, fa0, fa5
   10e46: 87 b6 81 21  	fld	fa3, 0x218(gp)
   10e4a: c3 f7 d7 62  	fmadd.d	fa5, fa5, fa3, fa2
   10e4e: 53 f5 e7 1a  	fdiv.d	fa0, fa5, fa4
   10e52: ef 00 00 5d  	jal	0x11422 <cos>
   10e56: 87 37 84 e5  	fld	fa5, -0x1a8(s0)
   10e5a: 53 f5 a7 12  	fmul.d	fa0, fa5, fa0
   10e5e: ef b0 10 17  	jal	0x1c7ce <__extenddftf2>
   10e62: 03 36 04 ea  	ld	a2, -0x160(s0)
   10e66: 83 36 84 ea  	ld	a3, -0x158(s0)
   10e6a: 23 30 a4 e6  	sd	a0, -0x1a0(s0)
   10e6e: 23 34 b4 e6  	sd	a1, -0x198(s0)
   10e72: 03 35 04 fb  	ld	a0, -0x50(s0)
   10e76: 83 35 84 fb  	ld	a1, -0x48(s0)
   10e7a: ef a0 e0 1b  	jal	0x1b038 <__divtf3>
   10e7e: 2a 86        	mv	a2, a0
   10e80: 03 35 04 e6  	ld	a0, -0x1a0(s0)
   10e84: ae 86        	mv	a3, a1
   10e86: 83 35 84 e6  	ld	a1, -0x198(s0)
   10e8a: ef b0 00 01  	jal	0x1be9a <__subtf3>
   10e8e: ef b0 10 20  	jal	0x1c88e <__trunctfdf2>
   10e92: 03 35 04 fc  	ld	a0, -0x40(s0)
   10e96: 27 34 a5 00  	fsd	fa0, 0x8(a0)
   10e9a: 03 35 04 f8  	ld	a0, -0x80(s0)
   10e9e: 83 35 84 f8  	ld	a1, -0x78(s0)
   10ea2: ef b0 d0 1e  	jal	0x1c88e <__trunctfdf2>
   10ea6: ef 00 e0 37  	jal	0x11224 <sqrt>
   10eaa: 07 37 04 e7  	fld	fa4, -0x190(s0)
   10eae: d3 07 a5 22  	fmv.d	fa5, fa0
   10eb2: 07 35 84 e7  	fld	fa0, -0x188(s0)
   10eb6: d3 f7 e7 12  	fmul.d	fa5, fa5, fa4
   10eba: 27 3c f4 e8  	fsd	fa5, -0x168(s0)
   10ebe: 87 37 04 f6  	fld	fa5, -0xa0(s0)
   10ec2: 27 30 f4 e8  	fsd	fa5, -0x180(s0)
   10ec6: ef 00 00 3a  	jal	0x11266 <atan>
   10eca: 07 36 04 e8  	fld	fa2, -0x180(s0)
   10ece: 87 36 84 e8  	fld	fa3, -0x178(s0)
   10ed2: 07 37 04 e9  	fld	fa4, -0x170(s0)
   10ed6: d3 77 d5 12  	fmul.d	fa5, fa0, fa3
   10eda: c3 f7 d7 62  	fmadd.d	fa5, fa5, fa3, fa2
   10ede: 53 f5 e7 1a  	fdiv.d	fa0, fa5, fa4
   10ee2: ef 00 00 54  	jal	0x11422 <cos>
   10ee6: 87 37 84 e9  	fld	fa5, -0x168(s0)
   10eea: 53 f5 a7 12  	fmul.d	fa0, fa5, fa0
   10eee: ef b0 10 0e  	jal	0x1c7ce <__extenddftf2>
   10ef2: 03 36 04 ea  	ld	a2, -0x160(s0)
   10ef6: 83 36 84 ea  	ld	a3, -0x158(s0)
   10efa: 23 38 a4 ea  	sd	a0, -0x150(s0)
   10efe: 23 3c b4 ea  	sd	a1, -0x148(s0)
   10f02: 03 35 04 fb  	ld	a0, -0x50(s0)
   10f06: 83 35 84 fb  	ld	a1, -0x48(s0)
   10f0a: ef a0 e0 12  	jal	0x1b038 <__divtf3>
   10f0e: 2a 86        	mv	a2, a0
   10f10: 03 35 04 eb  	ld	a0, -0x150(s0)
   10f14: ae 86        	mv	a3, a1
   10f16: 83 35 84 eb  	ld	a1, -0x148(s0)
   10f1a: ef a0 10 78  	jal	0x1be9a <__subtf3>
   10f1e: ef b0 10 17  	jal	0x1c88e <__trunctfdf2>
   10f22: 03 35 04 fc  	ld	a0, -0x40(s0)
   10f26: 27 38 a5 00  	fsd	fa0, 0x10(a0)
   10f2a: 6f 00 40 11  	j	0x1103e <SolveCubic+0x526>
   10f2e: 83 35 84 fc  	ld	a1, -0x38(s0)
   10f32: 05 45        	li	a0, 0x1
   10f34: 88 c1        	sw	a0, 0x0(a1)
   10f36: 07 35 84 f6  	fld	fa0, -0x98(s0)
   10f3a: ef 00 a0 2e  	jal	0x11224 <sqrt>
   10f3e: 27 34 a4 dc  	fsd	fa0, -0x238(s0)
   10f42: 03 35 04 f7  	ld	a0, -0x90(s0)
   10f46: 83 35 84 f7  	ld	a1, -0x88(s0)
   10f4a: ef b0 50 14  	jal	0x1c88e <__trunctfdf2>
   10f4e: d3 07 a5 22  	fmv.d	fa5, fa0
   10f52: 07 35 84 dc  	fld	fa0, -0x238(s0)
   10f56: d3 a7 f7 22  	fabs.d	fa5, fa5
   10f5a: 53 75 f5 02  	fadd.d	fa0, fa0, fa5
   10f5e: 87 b5 01 1f  	fld	fa1, 0x1f0(gp)
   10f62: ef 00 a0 1f  	jal	0x1115c <pow>
   10f66: 03 35 04 fc  	ld	a0, -0x40(s0)
   10f6a: 27 30 a5 00  	fsd	fa0, 0x0(a0)
   10f6e: 03 35 04 f8  	ld	a0, -0x80(s0)
   10f72: 23 38 a4 dc  	sd	a0, -0x230(s0)
   10f76: 03 35 84 f8  	ld	a0, -0x78(s0)
   10f7a: 23 3c a4 dc  	sd	a0, -0x228(s0)
   10f7e: 03 35 04 fc  	ld	a0, -0x40(s0)
   10f82: 23 38 a4 de  	sd	a0, -0x210(s0)
   10f86: 07 35 05 00  	fld	fa0, 0x0(a0)
   10f8a: ef b0 50 04  	jal	0x1c7ce <__extenddftf2>
   10f8e: 2a 86        	mv	a2, a0
   10f90: 03 35 04 dd  	ld	a0, -0x230(s0)
   10f94: 23 30 c4 de  	sd	a2, -0x220(s0)
   10f98: ae 86        	mv	a3, a1
   10f9a: 83 35 84 dd  	ld	a1, -0x228(s0)
   10f9e: 23 34 d4 de  	sd	a3, -0x218(s0)
   10fa2: ef a0 60 09  	jal	0x1b038 <__divtf3>
   10fa6: 2a 86        	mv	a2, a0
   10fa8: 03 35 04 de  	ld	a0, -0x220(s0)
   10fac: ae 86        	mv	a3, a1
   10fae: 83 35 84 de  	ld	a1, -0x218(s0)
   10fb2: ef 90 f0 09  	jal	0x1a850 <__addtf3>
   10fb6: ef b0 90 0d  	jal	0x1c88e <__trunctfdf2>
   10fba: 03 35 04 df  	ld	a0, -0x210(s0)
   10fbe: 27 30 a5 00  	fsd	fa0, 0x0(a0)
   10fc2: 03 35 04 f7  	ld	a0, -0x90(s0)
   10fc6: 83 35 84 f7  	ld	a1, -0x88(s0)
   10fca: 81 46        	li	a3, 0x0
   10fcc: 23 3c d4 de  	sd	a3, -0x208(s0)
   10fd0: 36 86        	mv	a2, a3
   10fd2: ef a0 50 03  	jal	0x1b806 <__lttf2>
   10fd6: 03 36 84 df  	ld	a2, -0x208(s0)
   10fda: 13 25 05 00  	slti	a0, a0, 0x0
   10fde: 7d 35        	addiw	a0, a0, -0x1
   10fe0: 13 65 15 00  	ori	a0, a0, 0x1
   10fe4: 53 07 05 d2  	fcvt.d.w	fa4, a0
   10fe8: 03 35 04 fc  	ld	a0, -0x40(s0)
   10fec: 87 37 05 00  	fld	fa5, 0x0(a0)
   10ff0: d3 f7 e7 12  	fmul.d	fa5, fa5, fa4
   10ff4: 27 30 f5 00  	fsd	fa5, 0x0(a0)
   10ff8: 03 35 04 fb  	ld	a0, -0x50(s0)
   10ffc: 83 35 84 fb  	ld	a1, -0x48(s0)
   11000: b7 16 00 f8  	lui	a3, 0xf8001
   11004: 8e 16        	slli	a3, a3, 0x23
   11006: ef a0 20 03  	jal	0x1b038 <__divtf3>
   1100a: 23 30 a4 e0  	sd	a0, -0x200(s0)
   1100e: 23 34 b4 e0  	sd	a1, -0x1f8(s0)
   11012: 03 35 04 fc  	ld	a0, -0x40(s0)
   11016: 23 38 a4 e0  	sd	a0, -0x1f0(s0)
   1101a: 07 35 05 00  	fld	fa0, 0x0(a0)
   1101e: ef b0 00 7b  	jal	0x1c7ce <__extenddftf2>
   11022: 03 36 04 e0  	ld	a2, -0x200(s0)
   11026: 83 36 84 e0  	ld	a3, -0x1f8(s0)
   1102a: ef 90 70 02  	jal	0x1a850 <__addtf3>
   1102e: ef b0 10 06  	jal	0x1c88e <__trunctfdf2>
   11032: 03 35 04 e1  	ld	a0, -0x1f0(s0)
   11036: 27 30 a5 00  	fsd	fa0, 0x0(a0)
   1103a: 6f 00 40 00  	j	0x1103e <SolveCubic+0x526>
   1103e: 13 01 01 23  	addi	sp, sp, 0x230
   11042: 6f b0 90 2d  	j	0x1cb1a <__riscv_restore_1>

0000000000011046 <usqrt>:
   11046: ef b2 b0 2a  	jal	t0, 0x1caf0 <__riscv_save_1>
   1104a: 79 71        	addi	sp, sp, -0x30
   1104c: 80 00        	addi	s0, sp, 0x40
   1104e: 23 34 a4 fe  	sd	a0, -0x18(s0)
   11052: 23 30 b4 fe  	sd	a1, -0x20(s0)
   11056: 01 45        	li	a0, 0x0
   11058: 23 3c a4 fc  	sd	a0, -0x28(s0)
   1105c: 23 38 a4 fc  	sd	a0, -0x30(s0)
   11060: 23 34 a4 fc  	sd	a0, -0x38(s0)
   11064: 23 22 a4 fc  	sw	a0, -0x3c(s0)
   11068: 6f 00 40 00  	j	0x1106c <usqrt+0x26>
   1106c: 83 25 44 fc  	lw	a1, -0x3c(s0)
   11070: 7d 45        	li	a0, 0x1f
   11072: 63 54 b5 00  	bge	a0, a1, 0x1107a <usqrt+0x34>
   11076: 6f 00 c0 07  	j	0x110f2 <usqrt+0xac>
   1107a: 6f 00 40 00  	j	0x1107e <usqrt+0x38>
   1107e: 03 35 04 fd  	ld	a0, -0x30(s0)
   11082: 0a 05        	slli	a0, a0, 0x2
   11084: 83 65 84 fe  	lwu	a1, -0x18(s0)
   11088: f9 81        	srli	a1, a1, 0x1e
   1108a: 4d 8d        	or	a0, a0, a1
   1108c: 23 38 a4 fc  	sd	a0, -0x30(s0)
   11090: 03 35 84 fe  	ld	a0, -0x18(s0)
   11094: 0a 05        	slli	a0, a0, 0x2
   11096: 23 34 a4 fe  	sd	a0, -0x18(s0)
   1109a: 03 35 84 fd  	ld	a0, -0x28(s0)
   1109e: 06 05        	slli	a0, a0, 0x1
   110a0: 23 3c a4 fc  	sd	a0, -0x28(s0)
   110a4: 03 35 84 fd  	ld	a0, -0x28(s0)
   110a8: 06 05        	slli	a0, a0, 0x1
   110aa: 05 05        	addi	a0, a0, 0x1
   110ac: 23 34 a4 fc  	sd	a0, -0x38(s0)
   110b0: 03 35 04 fd  	ld	a0, -0x30(s0)
   110b4: 83 35 84 fc  	ld	a1, -0x38(s0)
   110b8: 63 74 b5 00  	bgeu	a0, a1, 0x110c0 <usqrt+0x7a>
   110bc: 6f 00 40 02  	j	0x110e0 <usqrt+0x9a>
   110c0: 6f 00 40 00  	j	0x110c4 <usqrt+0x7e>
   110c4: 83 35 84 fc  	ld	a1, -0x38(s0)
   110c8: 03 35 04 fd  	ld	a0, -0x30(s0)
   110cc: 0d 8d        	sub	a0, a0, a1
   110ce: 23 38 a4 fc  	sd	a0, -0x30(s0)
   110d2: 03 35 84 fd  	ld	a0, -0x28(s0)
   110d6: 05 05        	addi	a0, a0, 0x1
   110d8: 23 3c a4 fc  	sd	a0, -0x28(s0)
   110dc: 6f 00 40 00  	j	0x110e0 <usqrt+0x9a>
   110e0: 6f 00 40 00  	j	0x110e4 <usqrt+0x9e>
   110e4: 03 25 44 fc  	lw	a0, -0x3c(s0)
   110e8: 05 25        	addiw	a0, a0, 0x1
   110ea: 23 22 a4 fc  	sw	a0, -0x3c(s0)
   110ee: 6f f0 ff f7  	j	0x1106c <usqrt+0x26>
   110f2: 83 35 04 fe  	ld	a1, -0x20(s0)
   110f6: 03 25 c4 fd  	lw	a0, -0x24(s0)
   110fa: c8 c1        	sw	a0, 0x4(a1)
   110fc: 03 25 84 fd  	lw	a0, -0x28(s0)
   11100: 88 c1        	sw	a0, 0x0(a1)
   11102: 45 61        	addi	sp, sp, 0x30
   11104: 6f b0 70 21  	j	0x1cb1a <__riscv_restore_1>

0000000000011108 <acos>:
   11108: 01 11        	addi	sp, sp, -0x20
   1110a: 22 a4        	fsd	fs0, 0x8(sp)
   1110c: 53 04 a5 22  	fmv.d	fs0, fa0
   11110: 26 a0        	fsd	fs1, 0x0(sp)
   11112: 06 ec        	sd	ra, 0x18(sp)
   11114: ef 00 20 52  	jal	0x11636 <__ieee754_acos>
   11118: d3 27 84 a2  	feq.d	a5, fs0, fs0
   1111c: d3 04 a5 22  	fmv.d	fs1, fa0
   11120: 91 cb        	beqz	a5, 0x11134 <acos+0x2c>
   11122: 53 05 84 22  	fmv.d	fa0, fs0
   11126: ef 00 c0 37  	jal	0x114a2 <fabs>
   1112a: 87 b7 81 dd  	fld	fa5, -0x228(gp)
   1112e: d3 97 a7 a2  	flt.d	a5, fa5, fa0
   11132: 81 eb        	bnez	a5, 0x11142 <acos+0x3a>
   11134: e2 60        	ld	ra, 0x18(sp)
   11136: 53 85 94 22  	fmv.d	fa0, fs1
   1113a: 22 24        	fld	fs0, 0x8(sp)
   1113c: 82 24        	fld	fs1, 0x0(sp)
   1113e: 05 61        	addi	sp, sp, 0x20
   11140: 82 80        	ret
   11142: ef 20 60 1b  	jal	0x132f8 <__errno>
   11146: e2 60        	ld	ra, 0x18(sp)
   11148: 22 24        	fld	fs0, 0x8(sp)
   1114a: 82 24        	fld	fs1, 0x0(sp)
   1114c: 93 07 10 02  	li	a5, 0x21
   11150: 1c c1        	sw	a5, 0x0(a0)
   11152: 75 65        	lui	a0, 0x1d
   11154: 13 05 85 c9  	addi	a0, a0, -0x368
   11158: 05 61        	addi	sp, sp, 0x20
   1115a: 35 ae        	j	0x11496 <nan>

000000000001115c <pow>:
   1115c: 79 71        	addi	sp, sp, -0x30
   1115e: 22 ac        	fsd	fs0, 0x18(sp)
   11160: 53 84 b5 22  	fmv.d	fs0, fa1
   11164: 26 a8        	fsd	fs1, 0x10(sp)
   11166: 4a a4        	fsd	fs2, 0x8(sp)
   11168: 06 f4        	sd	ra, 0x28(sp)
   1116a: 53 09 a5 22  	fmv.d	fs2, fa0
   1116e: ef 00 80 6c  	jal	0x11836 <__ieee754_pow>
   11172: d3 27 84 a2  	feq.d	a5, fs0, fs0
   11176: d3 04 a5 22  	fmv.d	fs1, fa0
   1117a: 89 cf        	beqz	a5, 0x11194 <pow+0x38>
   1117c: 4e a0        	fsd	fs3, 0x0(sp)
   1117e: d3 09 00 f2  	fmv.d.x	fs3, zero
   11182: d3 27 39 a3  	feq.d	a5, fs2, fs3
   11186: a1 c3        	beqz	a5, 0x111c6 <pow+0x6a>
   11188: d3 27 34 a3  	feq.d	a5, fs0, fs3
   1118c: 81 cf        	beqz	a5, 0x111a4 <pow+0x48>
   1118e: 87 b4 81 dd  	fld	fs1, -0x228(gp)
   11192: 82 29        	fld	fs3, 0x0(sp)
   11194: a2 70        	ld	ra, 0x28(sp)
   11196: 53 85 94 22  	fmv.d	fa0, fs1
   1119a: 62 24        	fld	fs0, 0x18(sp)
   1119c: c2 24        	fld	fs1, 0x10(sp)
   1119e: 22 29        	fld	fs2, 0x8(sp)
   111a0: 45 61        	addi	sp, sp, 0x30
   111a2: 82 80        	ret
   111a4: 53 05 84 22  	fmv.d	fa0, fs0
   111a8: ef 00 00 30  	jal	0x114a8 <finite>
   111ac: 01 c5        	beqz	a0, 0x111b4 <pow+0x58>
   111ae: d3 17 34 a3  	flt.d	a5, fs0, fs3
   111b2: b9 eb        	bnez	a5, 0x11208 <pow+0xac>
   111b4: 82 29        	fld	fs3, 0x0(sp)
   111b6: a2 70        	ld	ra, 0x28(sp)
   111b8: 53 85 94 22  	fmv.d	fa0, fs1
   111bc: 62 24        	fld	fs0, 0x18(sp)
   111be: c2 24        	fld	fs1, 0x10(sp)
   111c0: 22 29        	fld	fs2, 0x8(sp)
   111c2: 45 61        	addi	sp, sp, 0x30
   111c4: 82 80        	ret
   111c6: ef 00 20 2e  	jal	0x114a8 <finite>
   111ca: 15 c1        	beqz	a0, 0x111ee <pow+0x92>
   111cc: d3 07 00 f2  	fmv.d.x	fa5, zero
   111d0: d3 a7 f4 a2  	feq.d	a5, fs1, fa5
   111d4: e5 d3        	beqz	a5, 0x111b4 <pow+0x58>
   111d6: 53 05 29 23  	fmv.d	fa0, fs2
   111da: ef 00 e0 2c  	jal	0x114a8 <finite>
   111de: 79 d9        	beqz	a0, 0x111b4 <pow+0x58>
   111e0: 53 05 84 22  	fmv.d	fa0, fs0
   111e4: ef 00 40 2c  	jal	0x114a8 <finite>
   111e8: 05 e1        	bnez	a0, 0x11208 <pow+0xac>
   111ea: 82 29        	fld	fs3, 0x0(sp)
   111ec: e9 b7        	j	0x111b6 <pow+0x5a>
   111ee: 53 05 29 23  	fmv.d	fa0, fs2
   111f2: ef 00 60 2b  	jal	0x114a8 <finite>
   111f6: 79 d9        	beqz	a0, 0x111cc <pow+0x70>
   111f8: 53 05 84 22  	fmv.d	fa0, fs0
   111fc: ef 00 c0 2a  	jal	0x114a8 <finite>
   11200: 71 d5        	beqz	a0, 0x111cc <pow+0x70>
   11202: d3 a7 94 a2  	feq.d	a5, fs1, fs1
   11206: 81 cb        	beqz	a5, 0x11216 <pow+0xba>
   11208: ef 20 00 0f  	jal	0x132f8 <__errno>
   1120c: 93 07 20 02  	li	a5, 0x22
   11210: 82 29        	fld	fs3, 0x0(sp)
   11212: 1c c1        	sw	a5, 0x0(a0)
   11214: 41 b7        	j	0x11194 <pow+0x38>
   11216: ef 20 20 0e  	jal	0x132f8 <__errno>
   1121a: 93 07 10 02  	li	a5, 0x21
   1121e: 82 29        	fld	fs3, 0x0(sp)
   11220: 1c c1        	sw	a5, 0x0(a0)
   11222: 8d bf        	j	0x11194 <pow+0x38>

0000000000011224 <sqrt>:
   11224: 01 11        	addi	sp, sp, -0x20
   11226: 22 a4        	fsd	fs0, 0x8(sp)
   11228: 53 04 a5 22  	fmv.d	fs0, fa0
   1122c: 06 ec        	sd	ra, 0x18(sp)
   1122e: ef 00 e0 26  	jal	0x1149c <__ieee754_sqrt>
   11232: d3 27 84 a2  	feq.d	a5, fs0, fs0
   11236: 81 cb        	beqz	a5, 0x11246 <sqrt+0x22>
   11238: 26 a0        	fsd	fs1, 0x0(sp)
   1123a: d3 04 00 f2  	fmv.d.x	fs1, zero
   1123e: d3 17 94 a2  	flt.d	a5, fs0, fs1
   11242: 91 e7        	bnez	a5, 0x1124e <sqrt+0x2a>
   11244: 82 24        	fld	fs1, 0x0(sp)
   11246: e2 60        	ld	ra, 0x18(sp)
   11248: 22 24        	fld	fs0, 0x8(sp)
   1124a: 05 61        	addi	sp, sp, 0x20
   1124c: 82 80        	ret
   1124e: ef 20 a0 0a  	jal	0x132f8 <__errno>
   11252: e2 60        	ld	ra, 0x18(sp)
   11254: 93 07 10 02  	li	a5, 0x21
   11258: 1c c1        	sw	a5, 0x0(a0)
   1125a: 53 f5 94 1a  	fdiv.d	fa0, fs1, fs1
   1125e: 22 24        	fld	fs0, 0x8(sp)
   11260: 82 24        	fld	fs1, 0x0(sp)
   11262: 05 61        	addi	sp, sp, 0x20
   11264: 82 80        	ret

0000000000011266 <atan>:
   11266: d3 07 05 e2  	fmv.x.d	a5, fa0
   1126a: 01 11        	addi	sp, sp, -0x20
   1126c: 22 e8        	sd	s0, 0x10(sp)
   1126e: 13 94 17 00  	slli	s0, a5, 0x1
   11272: 26 e4        	sd	s1, 0x8(sp)
   11274: 06 ec        	sd	ra, 0x18(sp)
   11276: 37 07 10 44  	lui	a4, 0x44100
   1127a: 05 90        	srli	s0, s0, 0x21
   1127c: 93 d4 07 42  	srai	s1, a5, 0x20
   11280: 63 6d e4 02  	bltu	s0, a4, 0x112ba <atan+0x54>
   11284: 37 07 f0 7f  	lui	a4, 0x7ff00
   11288: 63 60 87 02  	bltu	a4, s0, 0x112a8 <atan+0x42>
   1128c: 63 0b e4 00  	beq	s0, a4, 0x112a2 <atan+0x3c>
   11290: 63 5d 90 0e  	blez	s1, 0x1138a <atan+0x124>
   11294: e2 60        	ld	ra, 0x18(sp)
   11296: 42 64        	ld	s0, 0x10(sp)
   11298: 07 b5 01 de  	fld	fa0, -0x220(gp)
   1129c: a2 64        	ld	s1, 0x8(sp)
   1129e: 05 61        	addi	sp, sp, 0x20
   112a0: 82 80        	ret
   112a2: 9b 86 07 00  	sext.w	a3, a5
   112a6: ed d6        	beqz	a3, 0x11290 <atan+0x2a>
   112a8: d3 87 07 f2  	fmv.d.x	fa5, a5
   112ac: 53 f5 f7 02  	fadd.d	fa0, fa5, fa5
   112b0: e2 60        	ld	ra, 0x18(sp)
   112b2: 42 64        	ld	s0, 0x10(sp)
   112b4: a2 64        	ld	s1, 0x8(sp)
   112b6: 05 61        	addi	sp, sp, 0x20
   112b8: 82 80        	ret
   112ba: 37 07 dc 3f  	lui	a4, 0x3fdc0
   112be: 63 7d e4 0c  	bgeu	s0, a4, 0x11398 <atan+0x132>
   112c2: 37 07 20 3e  	lui	a4, 0x3e200
   112c6: 63 68 e4 0a  	bltu	s0, a4, 0x11376 <atan+0x110>
   112ca: 7d 57        	li	a4, -0x1
   112cc: d3 87 07 f2  	fmv.d.x	fa5, a5
   112d0: 07 b5 01 e1  	fld	fa0, -0x1f0(gp)
   112d4: d3 f6 f7 12  	fmul.d	fa3, fa5, fa5
   112d8: 87 b7 81 e1  	fld	fa5, -0x1e8(gp)
   112dc: 53 f7 d6 12  	fmul.d	fa4, fa3, fa3
   112e0: 43 75 a7 7a  	fmadd.d	fa0, fa4, fa0, fa5
   112e4: 87 b7 01 e4  	fld	fa5, -0x1c0(gp)
   112e8: 07 b6 81 e4  	fld	fa2, -0x1b8(gp)
   112ec: c3 77 f7 62  	fmadd.d	fa5, fa4, fa5, fa2
   112f0: 07 b6 01 e2  	fld	fa2, -0x1e0(gp)
   112f4: 43 75 e5 62  	fmadd.d	fa0, fa0, fa4, fa2
   112f8: 07 b6 01 e5  	fld	fa2, -0x1b0(gp)
   112fc: c3 f7 e7 62  	fmadd.d	fa5, fa5, fa4, fa2
   11300: 07 b6 81 e2  	fld	fa2, -0x1d8(gp)
   11304: 43 75 e5 62  	fmadd.d	fa0, fa0, fa4, fa2
   11308: 07 b6 81 e5  	fld	fa2, -0x1a8(gp)
   1130c: fd 56        	li	a3, -0x1
   1130e: c3 f7 e7 62  	fmadd.d	fa5, fa5, fa4, fa2
   11312: 07 b6 01 e3  	fld	fa2, -0x1d0(gp)
   11316: 43 75 e5 62  	fmadd.d	fa0, fa0, fa4, fa2
   1131a: 07 b6 01 e6  	fld	fa2, -0x1a0(gp)
   1131e: c3 f7 e7 62  	fmadd.d	fa5, fa5, fa4, fa2
   11322: 07 b6 81 e3  	fld	fa2, -0x1c8(gp)
   11326: 43 75 e5 62  	fmadd.d	fa0, fa0, fa4, fa2
   1132a: d3 f7 e7 12  	fmul.d	fa5, fa5, fa4
   1132e: 43 75 d5 7a  	fmadd.d	fa0, fa0, fa3, fa5
   11332: d3 87 07 f2  	fmv.d.x	fa5, a5
   11336: 53 f5 a7 12  	fmul.d	fa0, fa5, fa0
   1133a: 63 07 d7 08  	beq	a4, a3, 0x113c8 <atan+0x162>
   1133e: f5 66        	lui	a3, 0x1d
   11340: 0e 07        	slli	a4, a4, 0x3
   11342: 93 86 86 d9  	addi	a3, a3, -0x268
   11346: ba 96        	add	a3, a3, a4
   11348: 9c 22        	fld	fa5, 0x0(a3)
   1134a: 53 87 07 f2  	fmv.d.x	fa4, a5
   1134e: f5 66        	lui	a3, 0x1d
   11350: 53 75 f5 0a  	fsub.d	fa0, fa0, fa5
   11354: 93 86 86 db  	addi	a3, a3, -0x248
   11358: 36 97        	add	a4, a4, a3
   1135a: 1c 23        	fld	fa5, 0x0(a4)
   1135c: 53 75 e5 0a  	fsub.d	fa0, fa0, fa4
   11360: 53 f5 a7 0a  	fsub.d	fa0, fa5, fa0
   11364: e3 d6 04 f4  	bgez	s1, 0x112b0 <atan+0x4a>
   11368: e2 60        	ld	ra, 0x18(sp)
   1136a: 42 64        	ld	s0, 0x10(sp)
   1136c: a2 64        	ld	s1, 0x8(sp)
   1136e: 53 15 a5 22  	fneg.d	fa0, fa0
   11372: 05 61        	addi	sp, sp, 0x20
   11374: 82 80        	ret
   11376: 87 b7 01 df  	fld	fa5, -0x210(gp)
   1137a: 07 b7 81 dd  	fld	fa4, -0x228(gp)
   1137e: d3 77 f5 02  	fadd.d	fa5, fa0, fa5
   11382: 53 17 f7 a2  	flt.d	a4, fa4, fa5
   11386: 31 d3        	beqz	a4, 0x112ca <atan+0x64>
   11388: 25 b7        	j	0x112b0 <atan+0x4a>
   1138a: e2 60        	ld	ra, 0x18(sp)
   1138c: 42 64        	ld	s0, 0x10(sp)
   1138e: 07 b5 81 de  	fld	fa0, -0x218(gp)
   11392: a2 64        	ld	s1, 0x8(sp)
   11394: 05 61        	addi	sp, sp, 0x20
   11396: 82 80        	ret
   11398: ef 00 a0 10  	jal	0x114a2 <fabs>
   1139c: b7 07 f3 3f  	lui	a5, 0x3ff30
   113a0: 63 7b f4 02  	bgeu	s0, a5, 0x113d6 <atan+0x170>
   113a4: b7 07 e6 3f  	lui	a5, 0x3fe60
   113a8: 63 71 f4 06  	bgeu	s0, a5, 0x1140a <atan+0x1a4>
   113ac: 87 b7 81 df  	fld	fa5, -0x208(gp)
   113b0: 87 b6 01 e0  	fld	fa3, -0x200(gp)
   113b4: 53 77 f5 02  	fadd.d	fa4, fa0, fa5
   113b8: 01 47        	li	a4, 0x0
   113ba: 43 75 f5 6a  	fmadd.d	fa0, fa0, fa5, fa3
   113be: d3 77 e5 1a  	fdiv.d	fa5, fa0, fa4
   113c2: d3 87 07 e2  	fmv.x.d	a5, fa5
   113c6: 19 b7        	j	0x112cc <atan+0x66>
   113c8: e2 60        	ld	ra, 0x18(sp)
   113ca: 42 64        	ld	s0, 0x10(sp)
   113cc: a2 64        	ld	s1, 0x8(sp)
   113ce: 53 f5 a7 0a  	fsub.d	fa0, fa5, fa0
   113d2: 05 61        	addi	sp, sp, 0x20
   113d4: 82 80        	ret
   113d6: b7 87 03 40  	lui	a5, 0x40038
   113da: 63 70 f4 02  	bgeu	s0, a5, 0x113fa <atan+0x194>
   113de: 87 b7 81 e0  	fld	fa5, -0x1f8(gp)
   113e2: 87 b6 81 dd  	fld	fa3, -0x228(gp)
   113e6: 53 77 f5 0a  	fsub.d	fa4, fa0, fa5
   113ea: 09 47        	li	a4, 0x2
   113ec: 43 75 f5 6a  	fmadd.d	fa0, fa0, fa5, fa3
   113f0: d3 77 a7 1a  	fdiv.d	fa5, fa4, fa0
   113f4: d3 87 07 e2  	fmv.x.d	a5, fa5
   113f8: d1 bd        	j	0x112cc <atan+0x66>
   113fa: 87 b7 01 e0  	fld	fa5, -0x200(gp)
   113fe: 0d 47        	li	a4, 0x3
   11400: d3 f7 a7 1a  	fdiv.d	fa5, fa5, fa0
   11404: d3 87 07 e2  	fmv.x.d	a5, fa5
   11408: d1 b5        	j	0x112cc <atan+0x66>
   1140a: 87 b7 81 dd  	fld	fa5, -0x228(gp)
   1140e: 05 47        	li	a4, 0x1
   11410: 53 77 f5 0a  	fsub.d	fa4, fa0, fa5
   11414: 53 75 f5 02  	fadd.d	fa0, fa0, fa5
   11418: d3 77 a7 1a  	fdiv.d	fa5, fa4, fa0
   1141c: d3 87 07 e2  	fmv.x.d	a5, fa5
   11420: 75 b5        	j	0x112cc <atan+0x66>

0000000000011422 <cos>:
   11422: d3 07 05 e2  	fmv.x.d	a5, fa0
   11426: b7 26 e9 3f  	lui	a3, 0x3fe92
   1142a: 93 86 b6 1f  	addi	a3, a3, 0x1fb
   1142e: 13 97 17 00  	slli	a4, a5, 0x1
   11432: 05 93        	srli	a4, a4, 0x21
   11434: 63 fd e6 02  	bgeu	a3, a4, 0x1146e <cos+0x4c>
   11438: b7 06 f0 7f  	lui	a3, 0x7ff00
   1143c: 63 65 d7 00  	bltu	a4, a3, 0x11446 <cos+0x24>
   11440: 53 75 a5 0a  	fsub.d	fa0, fa0, fa0
   11444: 82 80        	ret
   11446: 01 11        	addi	sp, sp, -0x20
   11448: 0a 85        	mv	a0, sp
   1144a: 06 ec        	sd	ra, 0x18(sp)
   1144c: ef 00 b0 3f  	jal	0x12046 <__ieee754_rem_pio2>
   11450: 0d 89        	andi	a0, a0, 0x3
   11452: 85 47        	li	a5, 0x1
   11454: 63 05 f5 02  	beq	a0, a5, 0x1147e <cos+0x5c>
   11458: 89 47        	li	a5, 0x2
   1145a: a2 25        	fld	fa1, 0x8(sp)
   1145c: 02 25        	fld	fa0, 0x0(sp)
   1145e: 63 0b f5 00  	beq	a0, a5, 0x11474 <cos+0x52>
   11462: 15 e5        	bnez	a0, 0x1148e <cos+0x6c>
   11464: ef 00 20 05  	jal	0x114b6 <__kernel_cos>
   11468: e2 60        	ld	ra, 0x18(sp)
   1146a: 05 61        	addi	sp, sp, 0x20
   1146c: 82 80        	ret
   1146e: d3 05 00 f2  	fmv.d.x	fa1, zero
   11472: 91 a0        	j	0x114b6 <__kernel_cos>
   11474: ef 00 20 04  	jal	0x114b6 <__kernel_cos>
   11478: 53 15 a5 22  	fneg.d	fa0, fa0
   1147c: f5 b7        	j	0x11468 <cos+0x46>
   1147e: a2 25        	fld	fa1, 0x8(sp)
   11480: 02 25        	fld	fa0, 0x0(sp)
   11482: 05 45        	li	a0, 0x1
   11484: ef 00 e0 12  	jal	0x115b2 <__kernel_sin>
   11488: 53 15 a5 22  	fneg.d	fa0, fa0
   1148c: f1 bf        	j	0x11468 <cos+0x46>
   1148e: 05 45        	li	a0, 0x1
   11490: ef 00 20 12  	jal	0x115b2 <__kernel_sin>
   11494: d1 bf        	j	0x11468 <cos+0x46>

0000000000011496 <nan>:
   11496: 07 b5 81 e6  	fld	fa0, -0x198(gp)
   1149a: 82 80        	ret

000000000001149c <__ieee754_sqrt>:
   1149c: 53 75 05 5a  	fsqrt.d	fa0, fa0
   114a0: 82 80        	ret

00000000000114a2 <fabs>:
   114a2: 53 25 a5 22  	fabs.d	fa0, fa0
   114a6: 82 80        	ret

00000000000114a8 <finite>:
   114a8: 53 15 05 e2  	fclass.d	a0, fa0
   114ac: 13 75 15 38  	andi	a0, a0, 0x381
   114b0: 13 35 15 00  	seqz	a0, a0
   114b4: 82 80        	ret

00000000000114b6 <__kernel_cos>:
   114b6: d3 07 05 e2  	fmv.x.d	a5, fa0
   114ba: b7 06 40 3e  	lui	a3, 0x3e400
   114be: 13 97 17 00  	slli	a4, a5, 0x1
   114c2: 05 93        	srli	a4, a4, 0x21
   114c4: 63 70 d7 06  	bgeu	a4, a3, 0x11524 <__kernel_cos+0x6e>
   114c8: 53 17 05 c2  	fcvt.w.d	a4, fa0, rtz
   114cc: 01 27        	sext.w	a4, a4
   114ce: 63 0f 07 0c  	beqz	a4, 0x115ac <__kernel_cos+0xf6>
   114d2: 53 77 a5 12  	fmul.d	fa4, fa0, fa0
   114d6: 87 b7 01 e8  	fld	fa5, -0x180(gp)
   114da: 87 b6 81 e8  	fld	fa3, -0x178(gp)
   114de: c3 77 f7 6a  	fmadd.d	fa5, fa4, fa5, fa3
   114e2: 87 b6 01 e9  	fld	fa3, -0x170(gp)
   114e6: c3 77 f7 6a  	fmadd.d	fa5, fa4, fa5, fa3
   114ea: 87 b6 81 e9  	fld	fa3, -0x168(gp)
   114ee: c3 77 f7 6a  	fmadd.d	fa5, fa4, fa5, fa3
   114f2: 87 b6 01 ea  	fld	fa3, -0x160(gp)
   114f6: c3 77 f7 6a  	fmadd.d	fa5, fa4, fa5, fa3
   114fa: 87 b6 81 ea  	fld	fa3, -0x158(gp)
   114fe: c3 77 f7 6a  	fmadd.d	fa5, fa4, fa5, fa3
   11502: d3 77 f7 12  	fmul.d	fa5, fa4, fa5
   11506: d3 86 07 f2  	fmv.d.x	fa3, a5
   1150a: d3 f5 b6 12  	fmul.d	fa1, fa3, fa1
   1150e: 87 b6 01 eb  	fld	fa3, -0x150(gp)
   11512: 07 b5 81 dd  	fld	fa0, -0x228(gp)
   11516: c7 77 f7 5a  	fmsub.d	fa5, fa4, fa5, fa1
   1151a: c7 77 d7 7a  	fmsub.d	fa5, fa4, fa3, fa5
   1151e: 53 75 f5 0a  	fsub.d	fa0, fa0, fa5
   11522: 82 80        	ret
   11524: 53 77 a5 12  	fmul.d	fa4, fa0, fa0
   11528: 87 b7 01 e8  	fld	fa5, -0x180(gp)
   1152c: 87 b6 81 e8  	fld	fa3, -0x178(gp)
   11530: c3 77 f7 6a  	fmadd.d	fa5, fa4, fa5, fa3
   11534: 87 b6 01 e9  	fld	fa3, -0x170(gp)
   11538: b7 36 d3 3f  	lui	a3, 0x3fd33
   1153c: 93 86 26 33  	addi	a3, a3, 0x332
   11540: c3 f7 e7 6a  	fmadd.d	fa5, fa5, fa4, fa3
   11544: 87 b6 81 e9  	fld	fa3, -0x168(gp)
   11548: c3 f7 e7 6a  	fmadd.d	fa5, fa5, fa4, fa3
   1154c: 87 b6 01 ea  	fld	fa3, -0x160(gp)
   11550: c3 f7 e7 6a  	fmadd.d	fa5, fa5, fa4, fa3
   11554: 87 b6 81 ea  	fld	fa3, -0x158(gp)
   11558: c3 f7 e7 6a  	fmadd.d	fa5, fa5, fa4, fa3
   1155c: d3 f7 e7 12  	fmul.d	fa5, fa5, fa4
   11560: e3 f3 e6 fa  	bgeu	a3, a4, 0x11506 <__kernel_cos+0x50>
   11564: b7 06 e9 3f  	lui	a3, 0x3fe90
   11568: 63 ed e6 02  	bltu	a3, a4, 0x115a2 <__kernel_cos+0xec>
   1156c: b7 06 e0 ff  	lui	a3, 0xffe00
   11570: 35 9f        	addw	a4, a4, a3
   11572: 02 17        	slli	a4, a4, 0x20
   11574: 07 b5 81 dd  	fld	fa0, -0x228(gp)
   11578: d3 06 07 f2  	fmv.d.x	fa3, a4
   1157c: 53 06 07 f2  	fmv.d.x	fa2, a4
   11580: 53 75 d5 0a  	fsub.d	fa0, fa0, fa3
   11584: d3 86 07 f2  	fmv.d.x	fa3, a5
   11588: d3 f5 b6 12  	fmul.d	fa1, fa3, fa1
   1158c: 87 b6 01 eb  	fld	fa3, -0x150(gp)
   11590: c7 76 d7 62  	fmsub.d	fa3, fa4, fa3, fa2
   11594: c7 77 f7 5a  	fmsub.d	fa5, fa4, fa5, fa1
   11598: d3 f7 f6 0a  	fsub.d	fa5, fa3, fa5
   1159c: 53 75 f5 0a  	fsub.d	fa0, fa0, fa5
   115a0: 82 80        	ret
   115a2: 07 b5 01 e7  	fld	fa0, -0x190(gp)
   115a6: 07 b6 81 e7  	fld	fa2, -0x188(gp)
   115aa: e9 bf        	j	0x11584 <__kernel_cos+0xce>
   115ac: 07 b5 81 dd  	fld	fa0, -0x228(gp)
   115b0: 82 80        	ret

00000000000115b2 <__kernel_sin>:
   115b2: d3 07 05 e2  	fmv.x.d	a5, fa0
   115b6: b7 06 40 3e  	lui	a3, 0x3e400
   115ba: 13 97 17 00  	slli	a4, a5, 0x1
   115be: 05 93        	srli	a4, a4, 0x21
   115c0: 63 76 d7 00  	bgeu	a4, a3, 0x115cc <__kernel_sin+0x1a>
   115c4: 53 17 05 c2  	fcvt.w.d	a4, fa0, rtz
   115c8: 01 27        	sext.w	a4, a4
   115ca: 2d c7        	beqz	a4, 0x11634 <__kernel_sin+0x82>
   115cc: d3 87 07 f2  	fmv.d.x	fa5, a5
   115d0: 53 f7 f7 12  	fmul.d	fa4, fa5, fa5
   115d4: 87 b7 81 eb  	fld	fa5, -0x148(gp)
   115d8: 87 b6 01 ec  	fld	fa3, -0x140(gp)
   115dc: c3 77 f7 6a  	fmadd.d	fa5, fa4, fa5, fa3
   115e0: d3 86 07 f2  	fmv.d.x	fa3, a5
   115e4: 53 f5 e6 12  	fmul.d	fa0, fa3, fa4
   115e8: 87 b6 81 ec  	fld	fa3, -0x138(gp)
   115ec: c3 f7 e7 6a  	fmadd.d	fa5, fa5, fa4, fa3
   115f0: 87 b6 01 ed  	fld	fa3, -0x130(gp)
   115f4: c3 f7 e7 6a  	fmadd.d	fa5, fa5, fa4, fa3
   115f8: 87 b6 81 ed  	fld	fa3, -0x128(gp)
   115fc: c3 f7 e7 6a  	fmadd.d	fa5, fa5, fa4, fa3
   11600: 11 e9        	bnez	a0, 0x11614 <__kernel_sin+0x62>
   11602: 87 b6 01 ee  	fld	fa3, -0x120(gp)
   11606: 43 77 f7 6a  	fmadd.d	fa4, fa4, fa5, fa3
   1160a: d3 87 07 f2  	fmv.d.x	fa5, a5
   1160e: 43 75 a7 7a  	fmadd.d	fa0, fa4, fa0, fa5
   11612: 82 80        	ret
   11614: d3 77 f5 12  	fmul.d	fa5, fa0, fa5
   11618: 87 b6 01 eb  	fld	fa3, -0x150(gp)
   1161c: c7 f7 d5 7a  	fmsub.d	fa5, fa1, fa3, fa5
   11620: c7 f7 e7 5a  	fmsub.d	fa5, fa5, fa4, fa1
   11624: 07 b7 81 ee  	fld	fa4, -0x118(gp)
   11628: 43 75 e5 7a  	fmadd.d	fa0, fa0, fa4, fa5
   1162c: d3 87 07 f2  	fmv.d.x	fa5, a5
   11630: 53 f5 a7 0a  	fsub.d	fa0, fa5, fa0
   11634: 82 80        	ret

0000000000011636 <__ieee754_acos>:
   11636: d3 07 05 e2  	fmv.x.d	a5, fa0
   1163a: b7 06 f0 3f  	lui	a3, 0x3ff00
   1163e: 13 97 17 00  	slli	a4, a5, 0x1
   11642: 05 93        	srli	a4, a4, 0x21
   11644: 13 d6 07 42  	srai	a2, a5, 0x20
   11648: 63 6e d7 00  	bltu	a4, a3, 0x11664 <__ieee754_acos+0x2e>
   1164c: b7 06 10 c0  	lui	a3, 0xc0100
   11650: 35 9f        	addw	a4, a4, a3
   11652: 5d 8f        	or	a4, a4, a5
   11654: 01 27        	sext.w	a4, a4
   11656: 63 1a 07 0c  	bnez	a4, 0x1172a <__ieee754_acos+0xf4>
   1165a: 63 5d c0 0c  	blez	a2, 0x11734 <__ieee754_acos+0xfe>
   1165e: 53 05 00 f2  	fmv.d.x	fa0, zero
   11662: 82 80        	ret
   11664: b7 06 e0 3f  	lui	a3, 0x3fe00
   11668: 63 79 d7 00  	bgeu	a4, a3, 0x1167a <__ieee754_acos+0x44>
   1166c: b7 06 60 3c  	lui	a3, 0x3c600
   11670: 63 e5 e6 0c  	bltu	a3, a4, 0x1173a <__ieee754_acos+0x104>
   11674: 07 b5 01 de  	fld	fa0, -0x220(gp)
   11678: 82 80        	ret
   1167a: 01 11        	addi	sp, sp, -0x20
   1167c: 06 ec        	sd	ra, 0x18(sp)
   1167e: 22 a4        	fsd	fs0, 0x8(sp)
   11680: 26 a0        	fsd	fs1, 0x0(sp)
   11682: 63 45 06 12  	bltz	a2, 0x117ac <__ieee754_acos+0x176>
   11686: 87 b4 81 dd  	fld	fs1, -0x228(gp)
   1168a: 87 b7 01 eb  	fld	fa5, -0x150(gp)
   1168e: 53 f4 a4 0a  	fsub.d	fs0, fs1, fa0
   11692: 53 74 f4 12  	fmul.d	fs0, fs0, fa5
   11696: 53 05 84 22  	fmv.d	fa0, fs0
   1169a: ef f0 3f e0  	jal	0x1149c <__ieee754_sqrt>
   1169e: 87 b7 81 ef  	fld	fa5, -0x108(gp)
   116a2: 07 b7 01 f0  	fld	fa4, -0x100(gp)
   116a6: c3 77 f4 72  	fmadd.d	fa5, fs0, fa5, fa4
   116aa: 07 b7 81 f0  	fld	fa4, -0xf8(gp)
   116ae: e2 60        	ld	ra, 0x18(sp)
   116b0: c3 f7 87 72  	fmadd.d	fa5, fa5, fs0, fa4
   116b4: 07 b7 81 f2  	fld	fa4, -0xd8(gp)
   116b8: 87 b6 01 f3  	fld	fa3, -0xd0(gp)
   116bc: 43 77 e4 6a  	fmadd.d	fa4, fs0, fa4, fa3
   116c0: 87 b6 01 f1  	fld	fa3, -0xf0(gp)
   116c4: c3 f7 87 6a  	fmadd.d	fa5, fa5, fs0, fa3
   116c8: 87 b6 81 f3  	fld	fa3, -0xc8(gp)
   116cc: d3 07 05 e2  	fmv.x.d	a5, fa0
   116d0: 43 77 87 6a  	fmadd.d	fa4, fa4, fs0, fa3
   116d4: 87 b6 81 f1  	fld	fa3, -0xe8(gp)
   116d8: 13 d7 07 02  	srli	a4, a5, 0x20
   116dc: 02 17        	slli	a4, a4, 0x20
   116de: c3 f7 87 6a  	fmadd.d	fa5, fa5, fs0, fa3
   116e2: d3 05 07 f2  	fmv.d.x	fa1, a4
   116e6: 87 b6 01 f4  	fld	fa3, -0xc0(gp)
   116ea: 53 76 b5 02  	fadd.d	fa2, fa0, fa1
   116ee: 87 b5 01 f2  	fld	fa1, -0xe0(gp)
   116f2: 43 77 87 6a  	fmadd.d	fa4, fa4, fs0, fa3
   116f6: d3 06 07 f2  	fmv.d.x	fa3, a4
   116fa: c3 f7 87 5a  	fmadd.d	fa5, fa5, fs0, fa1
   116fe: cb f6 d6 42  	fnmsub.d	fa3, fa3, fa3, fs0
   11702: 43 77 87 4a  	fmadd.d	fa4, fa4, fs0, fs1
   11706: 82 24        	fld	fs1, 0x0(sp)
   11708: d3 f7 87 12  	fmul.d	fa5, fa5, fs0
   1170c: 22 24        	fld	fs0, 0x8(sp)
   1170e: d3 f6 c6 1a  	fdiv.d	fa3, fa3, fa2
   11712: 05 61        	addi	sp, sp, 0x20
   11714: d3 f7 e7 1a  	fdiv.d	fa5, fa5, fa4
   11718: 53 07 07 f2  	fmv.d.x	fa4, a4
   1171c: c3 77 f5 6a  	fmadd.d	fa5, fa0, fa5, fa3
   11720: 53 f5 e7 02  	fadd.d	fa0, fa5, fa4
   11724: 53 75 a5 02  	fadd.d	fa0, fa0, fa0
   11728: 82 80        	ret
   1172a: 53 75 a5 0a  	fsub.d	fa0, fa0, fa0
   1172e: 53 75 a5 1a  	fdiv.d	fa0, fa0, fa0
   11732: 82 80        	ret
   11734: 07 b5 01 ef  	fld	fa0, -0x110(gp)
   11738: 82 80        	ret
   1173a: 53 77 a5 12  	fmul.d	fa4, fa0, fa0
   1173e: 87 b7 81 ef  	fld	fa5, -0x108(gp)
   11742: 87 b6 01 f0  	fld	fa3, -0x100(gp)
   11746: c3 77 f7 6a  	fmadd.d	fa5, fa4, fa5, fa3
   1174a: 87 b6 81 f0  	fld	fa3, -0xf8(gp)
   1174e: c3 f7 e7 6a  	fmadd.d	fa5, fa5, fa4, fa3
   11752: 87 b6 81 f2  	fld	fa3, -0xd8(gp)
   11756: 07 b6 01 f3  	fld	fa2, -0xd0(gp)
   1175a: c3 76 d7 62  	fmadd.d	fa3, fa4, fa3, fa2
   1175e: 07 b6 01 f1  	fld	fa2, -0xf0(gp)
   11762: c3 f7 e7 62  	fmadd.d	fa5, fa5, fa4, fa2
   11766: 07 b6 81 f3  	fld	fa2, -0xc8(gp)
   1176a: c3 f6 e6 62  	fmadd.d	fa3, fa3, fa4, fa2
   1176e: 07 b6 81 f1  	fld	fa2, -0xe8(gp)
   11772: c3 f7 e7 62  	fmadd.d	fa5, fa5, fa4, fa2
   11776: 07 b6 01 f4  	fld	fa2, -0xc0(gp)
   1177a: c3 f6 e6 62  	fmadd.d	fa3, fa3, fa4, fa2
   1177e: 07 b6 01 f2  	fld	fa2, -0xe0(gp)
   11782: c3 f7 e7 62  	fmadd.d	fa5, fa5, fa4, fa2
   11786: 07 b6 81 dd  	fld	fa2, -0x228(gp)
   1178a: c3 f6 e6 62  	fmadd.d	fa3, fa3, fa4, fa2
   1178e: d3 f7 e7 12  	fmul.d	fa5, fa5, fa4
   11792: 07 b7 81 f4  	fld	fa4, -0xb8(gp)
   11796: d3 f7 d7 1a  	fdiv.d	fa5, fa5, fa3
   1179a: cb 77 f5 72  	fnmsub.d	fa5, fa0, fa5, fa4
   1179e: 53 75 f5 0a  	fsub.d	fa0, fa0, fa5
   117a2: 87 b7 01 de  	fld	fa5, -0x220(gp)
   117a6: 53 f5 a7 0a  	fsub.d	fa0, fa5, fa0
   117aa: 82 80        	ret
   117ac: 87 b7 81 dd  	fld	fa5, -0x228(gp)
   117b0: 07 b7 01 eb  	fld	fa4, -0x150(gp)
   117b4: 53 75 f5 02  	fadd.d	fa0, fa0, fa5
   117b8: 07 b4 81 ef  	fld	fs0, -0x108(gp)
   117bc: 53 75 e5 12  	fmul.d	fa0, fa0, fa4
   117c0: 07 b7 01 f0  	fld	fa4, -0x100(gp)
   117c4: 87 b4 81 f2  	fld	fs1, -0xd8(gp)
   117c8: 43 74 85 72  	fmadd.d	fs0, fa0, fs0, fa4
   117cc: 07 b7 01 f3  	fld	fa4, -0xd0(gp)
   117d0: c3 74 95 72  	fmadd.d	fs1, fa0, fs1, fa4
   117d4: 07 b7 81 f0  	fld	fa4, -0xf8(gp)
   117d8: 43 74 a4 72  	fmadd.d	fs0, fs0, fa0, fa4
   117dc: 07 b7 81 f3  	fld	fa4, -0xc8(gp)
   117e0: c3 f4 a4 72  	fmadd.d	fs1, fs1, fa0, fa4
   117e4: 07 b7 01 f1  	fld	fa4, -0xf0(gp)
   117e8: 43 74 a4 72  	fmadd.d	fs0, fs0, fa0, fa4
   117ec: 07 b7 01 f4  	fld	fa4, -0xc0(gp)
   117f0: c3 f4 a4 72  	fmadd.d	fs1, fs1, fa0, fa4
   117f4: 07 b7 81 f1  	fld	fa4, -0xe8(gp)
   117f8: 43 74 a4 72  	fmadd.d	fs0, fs0, fa0, fa4
   117fc: c3 f4 a4 7a  	fmadd.d	fs1, fs1, fa0, fa5
   11800: 87 b7 01 f2  	fld	fa5, -0xe0(gp)
   11804: 43 74 a4 7a  	fmadd.d	fs0, fs0, fa0, fa5
   11808: 53 74 a4 12  	fmul.d	fs0, fs0, fa0
   1180c: ef f0 1f c9  	jal	0x1149c <__ieee754_sqrt>
   11810: 87 b7 01 f5  	fld	fa5, -0xb0(gp)
   11814: e2 60        	ld	ra, 0x18(sp)
   11816: 53 74 94 1a  	fdiv.d	fs0, fs0, fs1
   1181a: 82 24        	fld	fs1, 0x0(sp)
   1181c: 43 74 85 7a  	fmadd.d	fs0, fa0, fs0, fa5
   11820: 53 74 a4 02  	fadd.d	fs0, fs0, fa0
   11824: 07 b5 81 df  	fld	fa0, -0x208(gp)
   11828: 87 b7 01 ef  	fld	fa5, -0x110(gp)
   1182c: 4b 75 a4 7a  	fnmsub.d	fa0, fs0, fa0, fa5
   11830: 22 24        	fld	fs0, 0x8(sp)
   11832: 05 61        	addi	sp, sp, 0x20
   11834: 82 80        	ret

0000000000011836 <__ieee754_pow>:
   11836: 59 71        	addi	sp, sp, -0x70
   11838: a6 ec        	sd	s1, 0x58(sp)
   1183a: d3 84 05 e2  	fmv.x.d	s1, fa1
   1183e: b7 07 00 80  	lui	a5, 0x80000
   11842: 93 c7 f7 ff  	not	a5, a5
   11846: 93 d6 04 42  	srai	a3, s1, 0x20
   1184a: d2 e0        	sd	s4, 0x40(sp)
   1184c: 1b 87 04 00  	sext.w	a4, s1
   11850: 33 fa f6 00  	and	s4, a3, a5
   11854: ca e8        	sd	s2, 0x50(sp)
   11856: 86 f4        	sd	ra, 0x68(sp)
   11858: 33 66 ea 00  	or	a2, s4, a4
   1185c: 53 09 05 e2  	fmv.x.d	s2, fa0
   11860: 15 ea        	bnez	a2, 0x11894 <__ieee754_pow+0x5e>
   11862: 85 47        	li	a5, 0x1
   11864: ce 17        	slli	a5, a5, 0x33
   11866: b3 47 f9 00  	xor	a5, s2, a5
   1186a: 7d 57        	li	a4, -0x1
   1186c: 86 07        	slli	a5, a5, 0x1
   1186e: 52 17        	slli	a4, a4, 0x34
   11870: 63 7f f7 06  	bgeu	a4, a5, 0x118ee <__ieee754_pow+0xb8>
   11874: d3 07 09 f2  	fmv.d.x	fa5, s2
   11878: 53 87 04 f2  	fmv.d.x	fa4, s1
   1187c: d3 f7 e7 02  	fadd.d	fa5, fa5, fa4
   11880: d3 87 07 e2  	fmv.x.d	a5, fa5
   11884: a6 70        	ld	ra, 0x68(sp)
   11886: e6 64        	ld	s1, 0x58(sp)
   11888: 46 69        	ld	s2, 0x50(sp)
   1188a: 06 6a        	ld	s4, 0x40(sp)
   1188c: 53 85 07 f2  	fmv.d.x	fa0, a5
   11890: 65 61        	addi	sp, sp, 0x70
   11892: 82 80        	ret
   11894: 5a f8        	sd	s6, 0x30(sp)
   11896: 13 5b 09 42  	srai	s6, s2, 0x20
   1189a: a2 f0        	sd	s0, 0x60(sp)
   1189c: ce e4        	sd	s3, 0x48(sp)
   1189e: 5e f4        	sd	s7, 0x28(sp)
   118a0: 33 74 fb 00  	and	s0, s6, a5
   118a4: b7 05 f0 7f  	lui	a1, 0x7ff00
   118a8: da 8b        	mv	s7, s6
   118aa: 9b 09 09 00  	sext.w	s3, s2
   118ae: 63 fa 85 04  	bgeu	a1, s0, 0x11902 <__ieee754_pow+0xcc>
   118b2: b7 07 10 c0  	lui	a5, 0xc0100
   118b6: bb 87 77 01  	addw	a5, a5, s7
   118ba: b3 e7 f9 00  	or	a5, s3, a5
   118be: 81 27        	sext.w	a5, a5
   118c0: c1 ef        	bnez	a5, 0x11958 <__ieee754_pow+0x122>
   118c2: 85 47        	li	a5, 0x1
   118c4: ce 17        	slli	a5, a5, 0x33
   118c6: a5 8f        	xor	a5, a5, s1
   118c8: 7d 57        	li	a4, -0x1
   118ca: 86 07        	slli	a5, a5, 0x1
   118cc: 52 17        	slli	a4, a4, 0x34
   118ce: 63 65 f7 08  	bltu	a4, a5, 0x11958 <__ieee754_pow+0x122>
   118d2: 83 b7 81 dd  	ld	a5, -0x228(gp)
   118d6: 06 74        	ld	s0, 0x60(sp)
   118d8: a6 70        	ld	ra, 0x68(sp)
   118da: a6 69        	ld	s3, 0x48(sp)
   118dc: 42 7b        	ld	s6, 0x30(sp)
   118de: a2 7b        	ld	s7, 0x28(sp)
   118e0: e6 64        	ld	s1, 0x58(sp)
   118e2: 46 69        	ld	s2, 0x50(sp)
   118e4: 06 6a        	ld	s4, 0x40(sp)
   118e6: 53 85 07 f2  	fmv.d.x	fa0, a5
   118ea: 65 61        	addi	sp, sp, 0x70
   118ec: 82 80        	ret
   118ee: 83 b7 81 dd  	ld	a5, -0x228(gp)
   118f2: a6 70        	ld	ra, 0x68(sp)
   118f4: e6 64        	ld	s1, 0x58(sp)
   118f6: 46 69        	ld	s2, 0x50(sp)
   118f8: 06 6a        	ld	s4, 0x40(sp)
   118fa: 53 85 07 f2  	fmv.d.x	fa0, a5
   118fe: 65 61        	addi	sp, sp, 0x70
   11900: 82 80        	ret
   11902: 63 09 b4 04  	beq	s0, a1, 0x11954 <__ieee754_pow+0x11e>
   11906: e3 e6 45 fb  	bltu	a1, s4, 0x118b2 <__ieee754_pow+0x7c>
   1190a: 56 fc        	sd	s5, 0x38(sp)
   1190c: 62 f0        	sd	s8, 0x20(sp)
   1190e: 9b 8a 06 00  	sext.w	s5, a3
   11912: 1b 0c 04 00  	sext.w	s8, s0
   11916: 63 0c ba 46  	beq	s4, a1, 0x11d8e <__ieee754_pow+0x558>
   1191a: 66 ec        	sd	s9, 0x18(sp)
   1191c: 63 c6 0b 06  	bltz	s7, 0x11988 <__ieee754_pow+0x152>
   11920: 81 4c        	li	s9, 0x0
   11922: 63 1e 07 48  	bnez	a4, 0x11dbe <__ieee754_pow+0x588>
   11926: b7 07 f0 3f  	lui	a5, 0x3ff00
   1192a: 63 1b fa 52  	bne	s4, a5, 0x11e60 <__ieee754_pow+0x62a>
   1192e: ca 87        	mv	a5, s2
   11930: 63 da 0a 00  	bgez	s5, 0x11944 <__ieee754_pow+0x10e>
   11934: 87 b7 81 dd  	fld	fa5, -0x228(gp)
   11938: 53 07 09 f2  	fmv.d.x	fa4, s2
   1193c: d3 f7 e7 1a  	fdiv.d	fa5, fa5, fa4
   11940: d3 87 07 e2  	fmv.x.d	a5, fa5
   11944: 06 74        	ld	s0, 0x60(sp)
   11946: a6 69        	ld	s3, 0x48(sp)
   11948: e2 7a        	ld	s5, 0x38(sp)
   1194a: 42 7b        	ld	s6, 0x30(sp)
   1194c: a2 7b        	ld	s7, 0x28(sp)
   1194e: 02 7c        	ld	s8, 0x20(sp)
   11950: e2 6c        	ld	s9, 0x18(sp)
   11952: 0d bf        	j	0x11884 <__ieee754_pow+0x4e>
   11954: 63 87 09 00  	beqz	s3, 0x11962 <__ieee754_pow+0x12c>
   11958: 06 74        	ld	s0, 0x60(sp)
   1195a: a6 69        	ld	s3, 0x48(sp)
   1195c: 42 7b        	ld	s6, 0x30(sp)
   1195e: a2 7b        	ld	s7, 0x28(sp)
   11960: 11 bf        	j	0x11874 <__ieee754_pow+0x3e>
   11962: e3 6b 44 ff  	bltu	s0, s4, 0x11958 <__ieee754_pow+0x122>
   11966: 56 fc        	sd	s5, 0x38(sp)
   11968: 62 f0        	sd	s8, 0x20(sp)
   1196a: 9b 8a 06 00  	sext.w	s5, a3
   1196e: 37 0c f0 7f  	lui	s8, 0x7ff00
   11972: e3 14 8a fa  	bne	s4, s0, 0x1191a <__ieee754_pow+0xe4>
   11976: 63 0b 07 4c  	beqz	a4, 0x11e4c <__ieee754_pow+0x616>
   1197a: 06 74        	ld	s0, 0x60(sp)
   1197c: a6 69        	ld	s3, 0x48(sp)
   1197e: e2 7a        	ld	s5, 0x38(sp)
   11980: 42 7b        	ld	s6, 0x30(sp)
   11982: a2 7b        	ld	s7, 0x28(sp)
   11984: 02 7c        	ld	s8, 0x20(sp)
   11986: fd b5        	j	0x11874 <__ieee754_pow+0x3e>
   11988: b7 07 40 43  	lui	a5, 0x43400
   1198c: 63 71 fa 46  	bgeu	s4, a5, 0x11dee <__ieee754_pow+0x5b8>
   11990: b7 06 f0 3f  	lui	a3, 0x3ff00
   11994: 63 7f da 4e  	bgeu	s4, a3, 0x11e92 <__ieee754_pow+0x65c>
   11998: 63 1a 07 38  	bnez	a4, 0x11d2c <__ieee754_pow+0x4f6>
   1199c: b7 07 00 40  	lui	a5, 0x40000
   119a0: 81 4c        	li	s9, 0x0
   119a2: 63 81 fa 52  	beq	s5, a5, 0x11ec4 <__ieee754_pow+0x68e>
   119a6: 53 05 09 f2  	fmv.d.x	fa0, s2
   119aa: ef f0 9f af  	jal	0x114a2 <fabs>
   119ae: d3 07 05 e2  	fmv.x.d	a5, fa0
   119b2: 63 86 09 38  	beqz	s3, 0x11d3e <__ieee754_pow+0x508>
   119b6: 1b 56 fb 01  	srliw	a2, s6, 0x1f
   119ba: 7d 36        	addiw	a2, a2, -0x1
   119bc: 33 e7 cc 00  	or	a4, s9, a2
   119c0: 01 27        	sext.w	a4, a4
   119c2: 63 0d 07 40  	beqz	a4, 0x11ddc <__ieee754_pow+0x5a6>
   119c6: 37 07 e0 41  	lui	a4, 0x41e00
   119ca: 63 6e 47 43  	bltu	a4, s4, 0x11e06 <__ieee754_pow+0x5d0>
   119ce: 13 57 4b 01  	srli	a4, s6, 0x14
   119d2: 22 a4        	fsd	fs0, 0x8(sp)
   119d4: 13 77 f7 7f  	andi	a4, a4, 0x7ff
   119d8: 81 45        	li	a1, 0x0
   119da: 09 ef        	bnez	a4, 0x119f4 <__ieee754_pow+0x1be>
   119dc: 53 87 07 f2  	fmv.d.x	fa4, a5
   119e0: 87 b7 01 f9  	fld	fa5, -0x70(gp)
   119e4: 93 05 b0 fc  	li	a1, -0x35
   119e8: d3 77 f7 12  	fmul.d	fa5, fa4, fa5
   119ec: d3 87 07 e2  	fmv.x.d	a5, fa5
   119f0: 13 dc 07 42  	srai	s8, a5, 0x20
   119f4: 1b 57 4c 41  	sraiw	a4, s8, 0x14
   119f8: 1b 07 17 c0  	addiw	a4, a4, -0x3ff
   119fc: 93 16 cc 02  	slli	a3, s8, 0x2c
   11a00: 37 a5 03 00  	lui	a0, 0x3a
   11a04: bb 08 b7 00  	addw	a7, a4, a1
   11a08: b1 92        	srli	a3, a3, 0x2c
   11a0a: b7 05 f0 3f  	lui	a1, 0x3ff00
   11a0e: 13 05 e5 88  	addi	a0, a0, -0x772
   11a12: d5 8d        	or	a1, a1, a3
   11a14: 63 57 d5 50  	bge	a0, a3, 0x11f22 <__ieee754_pow+0x6ec>
   11a18: 37 b5 0b 00  	lui	a0, 0xbb
   11a1c: 13 05 95 67  	addi	a0, a0, 0x679
   11a20: 63 52 d5 5e  	bge	a0, a3, 0x12004 <__ieee754_pow+0x7ce>
   11a24: 53 01 00 f2  	fmv.d.x	ft2, zero
   11a28: 87 b7 81 dd  	fld	fa5, -0x228(gp)
   11a2c: d3 02 21 22  	fmv.d	ft5, ft2
   11a30: 37 07 f0 ff  	lui	a4, 0xfff00
   11a34: 85 28        	addiw	a7, a7, 0x1
   11a36: b9 9d        	addw	a1, a1, a4
   11a38: 01 43        	li	t1, 0x0
   11a3a: fd 56        	li	a3, -0x1
   11a3c: 13 d7 06 02  	srli	a4, a3, 0x20
   11a40: 13 95 05 02  	slli	a0, a1, 0x20
   11a44: f9 8f        	and	a5, a5, a4
   11a46: c9 8f        	or	a5, a5, a0
   11a48: 53 87 07 f2  	fmv.d.x	fa4, a5
   11a4c: 07 b2 81 dd  	fld	ft4, -0x228(gp)
   11a50: 1b d7 15 40  	sraiw	a4, a1, 0x1
   11a54: d3 f6 e7 02  	fadd.d	fa3, fa5, fa4
   11a58: b7 05 00 20  	lui	a1, 0x20000
   11a5c: 4d 8f        	or	a4, a4, a1
   11a5e: b7 05 08 00  	lui	a1, 0x80
   11a62: b9 9d        	addw	a1, a1, a4
   11a64: bb 85 65 00  	addw	a1, a1, t1
   11a68: 82 15        	slli	a1, a1, 0x20
   11a6a: 53 72 d2 1a  	fdiv.d	ft4, ft4, fa3
   11a6e: d3 86 05 f2  	fmv.d.x	fa3, a1
   11a72: 53 77 f7 0a  	fsub.d	fa4, fa4, fa5
   11a76: 13 97 06 02  	slli	a4, a3, 0x20
   11a7a: d3 f7 f6 0a  	fsub.d	fa5, fa3, fa5
   11a7e: d3 86 07 f2  	fmv.d.x	fa3, a5
   11a82: 07 b0 81 fc  	fld	ft0, -0x38(gp)
   11a86: 53 86 05 f2  	fmv.d.x	fa2, a1
   11a8a: 87 b0 01 fe  	fld	ft1, -0x20(gp)
   11a8e: d3 f7 f6 0a  	fsub.d	fa5, fa3, fa5
   11a92: d3 81 08 d2  	fcvt.d.w	ft3, a7
   11a96: d3 76 47 12  	fmul.d	fa3, fa4, ft4
   11a9a: d3 86 06 e2  	fmv.x.d	a3, fa3
   11a9e: 53 f5 d6 12  	fmul.d	fa0, fa3, fa3
   11aa2: b3 77 d7 00  	and	a5, a4, a3
   11aa6: d3 86 07 f2  	fmv.d.x	fa3, a5
   11aaa: 53 84 07 f2  	fmv.d.x	fs0, a5
   11aae: cb f6 c6 72  	fnmsub.d	fa3, fa3, fa2, fa4
   11ab2: 53 87 06 f2  	fmv.d.x	fa4, a3
   11ab6: 53 86 07 f2  	fmv.d.x	fa2, a5
   11aba: 53 73 c7 02  	fadd.d	ft6, fa4, fa2
   11abe: 07 b7 81 f9  	fld	fa4, -0x68(gp)
   11ac2: 87 b5 01 fa  	fld	fa1, -0x60(gp)
   11ac6: cb 77 f4 6a  	fnmsub.d	fa5, fs0, fa5, fa3
   11aca: 43 77 e5 5a  	fmadd.d	fa4, fa0, fa4, fa1
   11ace: 87 b6 81 fa  	fld	fa3, -0x58(gp)
   11ad2: d3 75 a5 12  	fmul.d	fa1, fa0, fa0
   11ad6: 43 76 c6 02  	fmadd.d	fa2, fa2, fa2, ft0
   11ada: d3 f7 47 12  	fmul.d	fa5, fa5, ft4
   11ade: 43 77 a7 6a  	fmadd.d	fa4, fa4, fa0, fa3
   11ae2: 87 b6 01 fb  	fld	fa3, -0x50(gp)
   11ae6: 07 b2 81 fb  	fld	ft4, -0x48(gp)
   11aea: 43 77 a7 6a  	fmadd.d	fa4, fa4, fa0, fa3
   11aee: d3 76 f3 12  	fmul.d	fa3, ft6, fa5
   11af2: 43 77 a7 22  	fmadd.d	fa4, fa4, fa0, ft4
   11af6: 07 b2 01 fc  	fld	ft4, -0x40(gp)
   11afa: 43 77 a7 22  	fmadd.d	fa4, fa4, fa0, ft4
   11afe: 43 f7 e5 6a  	fmadd.d	fa4, fa1, fa4, fa3
   11b02: d3 76 e6 02  	fadd.d	fa3, fa2, fa4
   11b06: d3 85 06 e2  	fmv.x.d	a1, fa3
   11b0a: f9 8d        	and	a1, a1, a4
   11b0c: d3 86 05 f2  	fmv.d.x	fa3, a1
   11b10: 53 f6 06 0a  	fsub.d	fa2, fa3, ft0
   11b14: d3 86 06 f2  	fmv.d.x	fa3, a3
   11b18: 4b 76 84 62  	fnmsub.d	fa2, fs0, fs0, fa2
   11b1c: 53 77 c7 0a  	fsub.d	fa4, fa4, fa2
   11b20: 53 77 d7 12  	fmul.d	fa4, fa4, fa3
   11b24: d3 86 05 f2  	fmv.d.x	fa3, a1
   11b28: c3 f7 d7 72  	fmadd.d	fa5, fa5, fa3, fa4
   11b2c: 43 f7 86 7a  	fmadd.d	fa4, fa3, fs0, fa5
   11b30: d3 86 05 f2  	fmv.d.x	fa3, a1
   11b34: d3 06 07 e2  	fmv.x.d	a3, fa4
   11b38: f9 8e        	and	a3, a3, a4
   11b3a: 53 86 06 f2  	fmv.d.x	fa2, a3
   11b3e: 4b 77 d4 62  	fnmsub.d	fa4, fs0, fa3, fa2
   11b42: d3 f7 e7 0a  	fsub.d	fa5, fa5, fa4
   11b46: 07 b7 01 fd  	fld	fa4, -0x30(gp)
   11b4a: d3 f7 e7 12  	fmul.d	fa5, fa5, fa4
   11b4e: 07 b7 81 fd  	fld	fa4, -0x28(gp)
   11b52: 43 77 c7 7a  	fmadd.d	fa4, fa4, fa2, fa5
   11b56: 53 77 57 02  	fadd.d	fa4, fa4, ft5
   11b5a: c3 f7 c0 72  	fmadd.d	fa5, ft1, fa2, fa4
   11b5e: d3 f7 27 02  	fadd.d	fa5, fa5, ft2
   11b62: d3 f7 37 02  	fadd.d	fa5, fa5, ft3
   11b66: d3 87 07 e2  	fmv.x.d	a5, fa5
   11b6a: 7d 8f        	and	a4, a4, a5
   11b6c: d3 07 07 f2  	fmv.d.x	fa5, a4
   11b70: d3 f6 37 0a  	fsub.d	fa3, fa5, ft3
   11b74: d3 f6 26 0a  	fsub.d	fa3, fa3, ft2
   11b78: cb 76 16 6a  	fnmsub.d	fa3, fa2, ft1, fa3
   11b7c: 53 76 d7 0a  	fsub.d	fa2, fa4, fa3
   11b80: 9b 87 fc ff  	addiw	a5, s9, -0x1
   11b84: d1 8f        	or	a5, a5, a2
   11b86: 81 27        	sext.w	a5, a5
   11b88: 63 85 07 34  	beqz	a5, 0x11ed2 <__ieee754_pow+0x69c>
   11b8c: 07 b4 81 dd  	fld	fs0, -0x228(gp)
   11b90: 93 d7 04 02  	srli	a5, s1, 0x20
   11b94: 82 17        	slli	a5, a5, 0x20
   11b96: d3 86 07 f2  	fmv.d.x	fa3, a5
   11b9a: 53 87 04 f2  	fmv.d.x	fa4, s1
   11b9e: b7 06 90 40  	lui	a3, 0x40900
   11ba2: 53 77 d7 0a  	fsub.d	fa4, fa4, fa3
   11ba6: d3 86 04 f2  	fmv.d.x	fa3, s1
   11baa: 53 76 d6 12  	fmul.d	fa2, fa2, fa3
   11bae: d3 86 07 f2  	fmv.d.x	fa3, a5
   11bb2: d3 f6 d7 12  	fmul.d	fa3, fa5, fa3
   11bb6: c3 77 f7 62  	fmadd.d	fa5, fa4, fa5, fa2
   11bba: 53 f7 d7 02  	fadd.d	fa4, fa5, fa3
   11bbe: 53 07 07 e2  	fmv.x.d	a4, fa4
   11bc2: 13 56 07 42  	srai	a2, a4, 0x20
   11bc6: 9b 07 07 00  	sext.w	a5, a4
   11bca: 63 47 d6 30  	blt	a2, a3, 0x11ed8 <__ieee754_pow+0x6a2>
   11bce: b7 06 70 bf  	lui	a3, 0xbf700
   11bd2: b1 9e        	addw	a3, a3, a2
   11bd4: d5 8f        	or	a5, a5, a3
   11bd6: 81 27        	sext.w	a5, a5
   11bd8: 63 98 07 12  	bnez	a5, 0x11d08 <__ieee754_pow+0x4d2>
   11bdc: 07 b6 81 fe  	fld	fa2, -0x18(gp)
   11be0: 53 77 d7 0a  	fsub.d	fa4, fa4, fa3
   11be4: 53 f6 c7 02  	fadd.d	fa2, fa5, fa2
   11be8: d3 17 c7 a2  	flt.d	a5, fa4, fa2
   11bec: 63 9e 07 10  	bnez	a5, 0x11d08 <__ieee754_pow+0x4d2>
   11bf0: 93 07 00 20  	li	a5, 0x200
   11bf4: bb 06 f6 00  	addw	a3, a2, a5
   11bf8: 9b d7 46 41  	sraiw	a5, a3, 0x14
   11bfc: 13 97 c6 02  	slli	a4, a3, 0x2c
   11c00: 93 f7 f7 7f  	andi	a5, a5, 0x7ff
   11c04: 9b 87 17 c0  	addiw	a5, a5, -0x3ff
   11c08: b7 05 10 00  	lui	a1, 0x100
   11c0c: 31 93        	srli	a4, a4, 0x2c
   11c0e: 37 05 f0 ff  	lui	a0, 0xfff00
   11c12: 3b 55 f5 40  	sraw	a0, a0, a5
   11c16: 4d 8f        	or	a4, a4, a1
   11c18: d1 45        	li	a1, 0x14
   11c1a: e9 8e        	and	a3, a3, a0
   11c1c: bb 87 f5 40  	subw	a5, a1, a5
   11c20: 3b 55 f7 40  	sraw	a0, a4, a5
   11c24: 82 16        	slli	a3, a3, 0x20
   11c26: 63 54 06 00  	bgez	a2, 0x11c2e <__ieee754_pow+0x3f8>
   11c2a: 3b 05 a0 40  	negw	a0, a0
   11c2e: 53 87 06 f2  	fmv.d.x	fa4, a3
   11c32: 9b 15 45 01  	slliw	a1, a0, 0x14
   11c36: d3 f6 e6 0a  	fsub.d	fa3, fa3, fa4
   11c3a: 53 f7 d7 02  	fadd.d	fa4, fa5, fa3
   11c3e: 53 07 07 e2  	fmv.x.d	a4, fa4
   11c42: fd 56        	li	a3, -0x1
   11c44: 93 97 06 02  	slli	a5, a3, 0x20
   11c48: f9 8f        	and	a5, a5, a4
   11c4a: 53 87 07 f2  	fmv.d.x	fa4, a5
   11c4e: 53 86 07 f2  	fmv.d.x	fa2, a5
   11c52: d3 76 d7 0a  	fsub.d	fa3, fa4, fa3
   11c56: 07 b7 01 ff  	fld	fa4, -0x10(gp)
   11c5a: 07 b5 81 dd  	fld	fa0, -0x228(gp)
   11c5e: 53 77 c7 12  	fmul.d	fa4, fa4, fa2
   11c62: d3 f7 d7 0a  	fsub.d	fa5, fa5, fa3
   11c66: 87 b6 01 00  	fld	fa3, 0x0(gp)
   11c6a: 07 b6 81 ff  	fld	fa2, -0x8(gp)
   11c6e: c3 f7 c7 72  	fmadd.d	fa5, fa5, fa2, fa4
   11c72: 53 87 07 f2  	fmv.d.x	fa4, a5
   11c76: 43 f6 e6 7a  	fmadd.d	fa2, fa3, fa4, fa5
   11c7a: d3 75 c6 12  	fmul.d	fa1, fa2, fa2
   11c7e: cb 76 d7 62  	fnmsub.d	fa3, fa4, fa3, fa2
   11c82: 07 b7 81 00  	fld	fa4, 0x8(gp)
   11c86: 07 b0 01 01  	fld	ft0, 0x10(gp)
   11c8a: 43 f7 e5 02  	fmadd.d	fa4, fa1, fa4, ft0
   11c8e: d3 f7 d7 0a  	fsub.d	fa5, fa5, fa3
   11c92: 87 b6 81 01  	fld	fa3, 0x18(gp)
   11c96: 43 77 b7 6a  	fmadd.d	fa4, fa4, fa1, fa3
   11c9a: 87 b6 01 02  	fld	fa3, 0x20(gp)
   11c9e: c3 77 f6 7a  	fmadd.d	fa5, fa2, fa5, fa5
   11ca2: 43 77 b7 6a  	fmadd.d	fa4, fa4, fa1, fa3
   11ca6: 87 b6 81 02  	fld	fa3, 0x28(gp)
   11caa: 43 77 b7 6a  	fmadd.d	fa4, fa4, fa1, fa3
   11cae: 4b 77 b7 62  	fnmsub.d	fa4, fa4, fa1, fa2
   11cb2: 87 b5 81 df  	fld	fa1, -0x208(gp)
   11cb6: d3 76 e6 12  	fmul.d	fa3, fa2, fa4
   11cba: 53 77 b7 0a  	fsub.d	fa4, fa4, fa1
   11cbe: 53 f7 e6 1a  	fdiv.d	fa4, fa3, fa4
   11cc2: d3 77 f7 0a  	fsub.d	fa5, fa4, fa5
   11cc6: d3 f7 c7 0a  	fsub.d	fa5, fa5, fa2
   11cca: d3 77 f5 0a  	fsub.d	fa5, fa0, fa5
   11cce: 53 86 07 e2  	fmv.x.d	a2, fa5
   11cd2: 13 57 06 42  	srai	a4, a2, 0x20
   11cd6: 2d 9f        	addw	a4, a4, a1
   11cd8: 9b 57 47 41  	sraiw	a5, a4, 0x14
   11cdc: 63 5d f0 32  	blez	a5, 0x12016 <__ieee754_pow+0x7e0>
   11ce0: 93 d7 06 02  	srli	a5, a3, 0x20
   11ce4: 02 17        	slli	a4, a4, 0x20
   11ce6: f1 8f        	and	a5, a5, a2
   11ce8: d9 8f        	or	a5, a5, a4
   11cea: d3 87 07 f2  	fmv.d.x	fa5, a5
   11cee: 06 74        	ld	s0, 0x60(sp)
   11cf0: a6 69        	ld	s3, 0x48(sp)
   11cf2: d3 f7 87 12  	fmul.d	fa5, fa5, fs0
   11cf6: e2 7a        	ld	s5, 0x38(sp)
   11cf8: 42 7b        	ld	s6, 0x30(sp)
   11cfa: a2 7b        	ld	s7, 0x28(sp)
   11cfc: 02 7c        	ld	s8, 0x20(sp)
   11cfe: e2 6c        	ld	s9, 0x18(sp)
   11d00: 22 24        	fld	fs0, 0x8(sp)
   11d02: d3 87 07 e2  	fmv.x.d	a5, fa5
   11d06: bd be        	j	0x11884 <__ieee754_pow+0x4e>
   11d08: d3 07 00 f2  	fmv.d.x	fa5, zero
   11d0c: 06 74        	ld	s0, 0x60(sp)
   11d0e: a6 69        	ld	s3, 0x48(sp)
   11d10: 53 15 f4 a2  	flt.d	a0, fs0, fa5
   11d14: e2 7a        	ld	s5, 0x38(sp)
   11d16: 42 7b        	ld	s6, 0x30(sp)
   11d18: a2 7b        	ld	s7, 0x28(sp)
   11d1a: 02 7c        	ld	s8, 0x20(sp)
   11d1c: e2 6c        	ld	s9, 0x18(sp)
   11d1e: 22 24        	fld	fs0, 0x8(sp)
   11d20: a6 70        	ld	ra, 0x68(sp)
   11d22: e6 64        	ld	s1, 0x58(sp)
   11d24: 46 69        	ld	s2, 0x50(sp)
   11d26: 06 6a        	ld	s4, 0x40(sp)
   11d28: 65 61        	addi	sp, sp, 0x70
   11d2a: c5 ad        	j	0x1241a <__math_oflow>
   11d2c: 53 05 09 f2  	fmv.d.x	fa0, s2
   11d30: ef f0 2f f7  	jal	0x114a2 <fabs>
   11d34: d3 07 05 e2  	fmv.x.d	a5, fa0
   11d38: 63 92 09 0a  	bnez	s3, 0x11ddc <__ieee754_pow+0x5a6>
   11d3c: 81 4c        	li	s9, 0x0
   11d3e: 13 17 2b 02  	slli	a4, s6, 0x22
   11d42: 09 93        	srli	a4, a4, 0x22
   11d44: b7 06 f0 3f  	lui	a3, 0x3ff00
   11d48: 63 04 d7 00  	beq	a4, a3, 0x11d50 <__ieee754_pow+0x51a>
   11d4c: e3 15 04 c6  	bnez	s0, 0x119b6 <__ieee754_pow+0x180>
   11d50: 63 c6 0a 02  	bltz	s5, 0x11d7c <__ieee754_pow+0x546>
   11d54: e3 d8 0b be  	bgez	s7, 0x11944 <__ieee754_pow+0x10e>
   11d58: 37 07 10 c0  	lui	a4, 0xc0100
   11d5c: 3b 07 87 01  	addw	a4, a4, s8
   11d60: 33 e7 ec 00  	or	a4, s9, a4
   11d64: 01 27        	sext.w	a4, a4
   11d66: 63 15 07 28  	bnez	a4, 0x11ff0 <__ieee754_pow+0x7ba>
   11d6a: d3 87 07 f2  	fmv.d.x	fa5, a5
   11d6e: d3 f7 f7 0a  	fsub.d	fa5, fa5, fa5
   11d72: d3 f7 f7 1a  	fdiv.d	fa5, fa5, fa5
   11d76: d3 87 07 e2  	fmv.x.d	a5, fa5
   11d7a: e9 b6        	j	0x11944 <__ieee754_pow+0x10e>
   11d7c: 53 87 07 f2  	fmv.d.x	fa4, a5
   11d80: 87 b7 81 dd  	fld	fa5, -0x228(gp)
   11d84: d3 f7 e7 1a  	fdiv.d	fa5, fa5, fa4
   11d88: d3 87 07 e2  	fmv.x.d	a5, fa5
   11d8c: e1 b7        	j	0x11d54 <__ieee754_pow+0x51e>
   11d8e: 21 e7        	bnez	a4, 0x11dd6 <__ieee754_pow+0x5a0>
   11d90: b7 07 10 c0  	lui	a5, 0xc0100
   11d94: bb 87 87 01  	addw	a5, a5, s8
   11d98: b3 e7 f9 00  	or	a5, s3, a5
   11d9c: 81 27        	sext.w	a5, a5
   11d9e: dd e7        	bnez	a5, 0x11e4c <__ieee754_pow+0x616>
   11da0: 83 b7 81 dd  	ld	a5, -0x228(gp)
   11da4: 06 74        	ld	s0, 0x60(sp)
   11da6: a6 69        	ld	s3, 0x48(sp)
   11da8: e2 7a        	ld	s5, 0x38(sp)
   11daa: 42 7b        	ld	s6, 0x30(sp)
   11dac: a2 7b        	ld	s7, 0x28(sp)
   11dae: 02 7c        	ld	s8, 0x20(sp)
   11db0: d1 bc        	j	0x11884 <__ieee754_pow+0x4e>
   11db2: 63 09 07 26  	beqz	a4, 0x12024 <__ieee754_pow+0x7ee>
   11db6: 85 8a        	andi	a3, a3, 0x1
   11db8: 89 4c        	li	s9, 0x2
   11dba: bb 8c dc 40  	subw	s9, s9, a3
   11dbe: 53 05 09 f2  	fmv.d.x	fa0, s2
   11dc2: ef f0 0f ee  	jal	0x114a2 <fabs>
   11dc6: d3 07 05 e2  	fmv.x.d	a5, fa0
   11dca: e3 8a 09 f6  	beqz	s3, 0x11d3e <__ieee754_pow+0x508>
   11dce: 1b 56 fb 01  	srliw	a2, s6, 0x1f
   11dd2: 7d 36        	addiw	a2, a2, -0x1
   11dd4: cd be        	j	0x119c6 <__ieee754_pow+0x190>
   11dd6: e2 7a        	ld	s5, 0x38(sp)
   11dd8: 02 7c        	ld	s8, 0x20(sp)
   11dda: e1 bc        	j	0x118b2 <__ieee754_pow+0x7c>
   11ddc: d3 07 09 f2  	fmv.d.x	fa5, s2
   11de0: d3 f7 f7 0a  	fsub.d	fa5, fa5, fa5
   11de4: d3 f7 f7 1a  	fdiv.d	fa5, fa5, fa5
   11de8: d3 87 07 e2  	fmv.x.d	a5, fa5
   11dec: a1 be        	j	0x11944 <__ieee754_pow+0x10e>
   11dee: 63 0f 07 22  	beqz	a4, 0x1202c <__ieee754_pow+0x7f6>
   11df2: 53 05 09 f2  	fmv.d.x	fa0, s2
   11df6: 89 4c        	li	s9, 0x2
   11df8: ef f0 af ea  	jal	0x114a2 <fabs>
   11dfc: d3 07 05 e2  	fmv.x.d	a5, fa0
   11e00: 01 46        	li	a2, 0x0
   11e02: e3 8e 09 f2  	beqz	s3, 0x11d3e <__ieee754_pow+0x508>
   11e06: 37 07 f0 43  	lui	a4, 0x43f00
   11e0a: 63 74 47 13  	bgeu	a4, s4, 0x11f32 <__ieee754_pow+0x6fc>
   11e0e: b7 07 f0 3f  	lui	a5, 0x3ff00
   11e12: 63 72 f4 02  	bgeu	s0, a5, 0x11e36 <__ieee754_pow+0x600>
   11e16: 63 c2 0a 02  	bltz	s5, 0x11e3a <__ieee754_pow+0x604>
   11e1a: 06 74        	ld	s0, 0x60(sp)
   11e1c: a6 69        	ld	s3, 0x48(sp)
   11e1e: e2 7a        	ld	s5, 0x38(sp)
   11e20: 42 7b        	ld	s6, 0x30(sp)
   11e22: a2 7b        	ld	s7, 0x28(sp)
   11e24: 02 7c        	ld	s8, 0x20(sp)
   11e26: e2 6c        	ld	s9, 0x18(sp)
   11e28: 01 45        	li	a0, 0x0
   11e2a: a6 70        	ld	ra, 0x68(sp)
   11e2c: e6 64        	ld	s1, 0x58(sp)
   11e2e: 46 69        	ld	s2, 0x50(sp)
   11e30: 06 6a        	ld	s4, 0x40(sp)
   11e32: 65 61        	addi	sp, sp, 0x70
   11e34: e9 ab        	j	0x1240e <__math_uflow>
   11e36: e3 52 50 ff  	blez	s5, 0x11e1a <__ieee754_pow+0x5e4>
   11e3a: 06 74        	ld	s0, 0x60(sp)
   11e3c: a6 69        	ld	s3, 0x48(sp)
   11e3e: e2 7a        	ld	s5, 0x38(sp)
   11e40: 42 7b        	ld	s6, 0x30(sp)
   11e42: a2 7b        	ld	s7, 0x28(sp)
   11e44: 02 7c        	ld	s8, 0x20(sp)
   11e46: e2 6c        	ld	s9, 0x18(sp)
   11e48: 01 45        	li	a0, 0x0
   11e4a: d9 bd        	j	0x11d20 <__ieee754_pow+0x4ea>
   11e4c: b7 07 f0 3f  	lui	a5, 0x3ff00
   11e50: 63 68 f4 14  	bltu	s0, a5, 0x11fa0 <__ieee754_pow+0x76a>
   11e54: a6 87        	mv	a5, s1
   11e56: e3 d7 0a f4  	bgez	s5, 0x11da4 <__ieee754_pow+0x56e>
   11e5a: 93 07 00 00  	li	a5, 0x0
   11e5e: 99 b7        	j	0x11da4 <__ieee754_pow+0x56e>
   11e60: b7 07 00 40  	lui	a5, 0x40000
   11e64: 63 80 fa 06  	beq	s5, a5, 0x11ec4 <__ieee754_pow+0x68e>
   11e68: b7 07 e0 3f  	lui	a5, 0x3fe00
   11e6c: 81 4c        	li	s9, 0x0
   11e6e: e3 9c fa b2  	bne	s5, a5, 0x119a6 <__ieee754_pow+0x170>
   11e72: 06 74        	ld	s0, 0x60(sp)
   11e74: a6 69        	ld	s3, 0x48(sp)
   11e76: e2 7a        	ld	s5, 0x38(sp)
   11e78: 42 7b        	ld	s6, 0x30(sp)
   11e7a: a2 7b        	ld	s7, 0x28(sp)
   11e7c: 02 7c        	ld	s8, 0x20(sp)
   11e7e: e2 6c        	ld	s9, 0x18(sp)
   11e80: a6 70        	ld	ra, 0x68(sp)
   11e82: e6 64        	ld	s1, 0x58(sp)
   11e84: 06 6a        	ld	s4, 0x40(sp)
   11e86: 53 05 09 f2  	fmv.d.x	fa0, s2
   11e8a: 46 69        	ld	s2, 0x50(sp)
   11e8c: 65 61        	addi	sp, sp, 0x70
   11e8e: 6f f0 ef e0  	j	0x1149c <__ieee754_sqrt>
   11e92: 1b 06 0a 00  	sext.w	a2, s4
   11e96: 9b 57 46 41  	sraiw	a5, a2, 0x14
   11e9a: 1b 85 17 c0  	addiw	a0, a5, -0x3ff
   11e9e: d1 45        	li	a1, 0x14
   11ea0: 63 db a5 10  	bge	a1, a0, 0x11fb6 <__ieee754_pow+0x780>
   11ea4: 93 06 40 03  	li	a3, 0x34
   11ea8: bb 87 a6 40  	subw	a5, a3, a0
   11eac: bb 56 f7 00  	srlw	a3, a4, a5
   11eb0: bb 97 f6 00  	sllw	a5, a3, a5
   11eb4: e3 8f e7 ee  	beq	a5, a4, 0x11db2 <__ieee754_pow+0x57c>
   11eb8: e3 1a 07 e6  	bnez	a4, 0x11d2c <__ieee754_pow+0x4f6>
   11ebc: b7 07 00 40  	lui	a5, 0x40000
   11ec0: e3 96 fa e6  	bne	s5, a5, 0x11d2c <__ieee754_pow+0x4f6>
   11ec4: d3 07 09 f2  	fmv.d.x	fa5, s2
   11ec8: d3 f7 f7 12  	fmul.d	fa5, fa5, fa5
   11ecc: d3 87 07 e2  	fmv.x.d	a5, fa5
   11ed0: 95 bc        	j	0x11944 <__ieee754_pow+0x10e>
   11ed2: 07 b4 01 e0  	fld	fs0, -0x200(gp)
   11ed6: 6d b9        	j	0x11b90 <__ieee754_pow+0x35a>
   11ed8: 93 16 16 02  	slli	a3, a2, 0x21
   11edc: 37 d5 90 40  	lui	a0, 0x4090d
   11ee0: 85 92        	srli	a3, a3, 0x21
   11ee2: 13 05 f5 bf  	addi	a0, a0, -0x401
   11ee6: 63 76 d5 0e  	bgeu	a0, a3, 0x11fd2 <__ieee754_pow+0x79c>
   11eea: b7 36 6f 3f  	lui	a3, 0x3f6f3
   11eee: 9b 86 06 40  	addiw	a3, a3, 0x400
   11ef2: bb 05 d6 00  	addw	a1, a2, a3
   11ef6: cd 8f        	or	a5, a5, a1
   11ef8: 81 27        	sext.w	a5, a5
   11efa: 99 e7        	bnez	a5, 0x11f08 <__ieee754_pow+0x6d2>
   11efc: 53 77 d7 0a  	fsub.d	fa4, fa4, fa3
   11f00: d3 87 e7 a2  	fle.d	a5, fa5, fa4
   11f04: e3 86 07 ce  	beqz	a5, 0x11bf0 <__ieee754_pow+0x3ba>
   11f08: d3 07 00 f2  	fmv.d.x	fa5, zero
   11f0c: 06 74        	ld	s0, 0x60(sp)
   11f0e: a6 69        	ld	s3, 0x48(sp)
   11f10: 53 15 f4 a2  	flt.d	a0, fs0, fa5
   11f14: e2 7a        	ld	s5, 0x38(sp)
   11f16: 42 7b        	ld	s6, 0x30(sp)
   11f18: a2 7b        	ld	s7, 0x28(sp)
   11f1a: 02 7c        	ld	s8, 0x20(sp)
   11f1c: e2 6c        	ld	s9, 0x18(sp)
   11f1e: 22 24        	fld	fs0, 0x8(sp)
   11f20: 29 b7        	j	0x11e2a <__ieee754_pow+0x5f4>
   11f22: 53 01 00 f2  	fmv.d.x	ft2, zero
   11f26: 87 b7 81 dd  	fld	fa5, -0x228(gp)
   11f2a: d3 02 21 22  	fmv.d	ft5, ft2
   11f2e: 01 43        	li	t1, 0x0
   11f30: 29 b6        	j	0x11a3a <__ieee754_pow+0x204>
   11f32: 37 07 f0 3f  	lui	a4, 0x3ff00
   11f36: 79 17        	addi	a4, a4, -0x2
   11f38: b7 06 f0 3f  	lui	a3, 0x3ff00
   11f3c: e3 7d 87 ec  	bgeu	a4, s0, 0x11e16 <__ieee754_pow+0x5e0>
   11f40: e3 eb 86 ee  	bltu	a3, s0, 0x11e36 <__ieee754_pow+0x600>
   11f44: 53 87 07 f2  	fmv.d.x	fa4, a5
   11f48: 87 b7 81 dd  	fld	fa5, -0x228(gp)
   11f4c: 87 b6 81 f6  	fld	fa3, -0x98(gp)
   11f50: d3 77 f7 0a  	fsub.d	fa5, fa4, fa5
   11f54: 07 b7 01 f7  	fld	fa4, -0x90(gp)
   11f58: 87 b5 81 f8  	fld	fa1, -0x78(gp)
   11f5c: 07 b6 01 eb  	fld	fa2, -0x150(gp)
   11f60: cb f6 d7 72  	fnmsub.d	fa3, fa5, fa3, fa4
   11f64: 53 f7 f7 12  	fmul.d	fa4, fa5, fa5
   11f68: 22 a4        	fsd	fs0, 0x8(sp)
   11f6a: cb f6 f6 62  	fnmsub.d	fa3, fa3, fa5, fa2
   11f6e: 53 77 d7 12  	fmul.d	fa4, fa4, fa3
   11f72: 87 b6 81 f7  	fld	fa3, -0x88(gp)
   11f76: 07 b6 01 f8  	fld	fa2, -0x80(gp)
   11f7a: 53 77 d7 12  	fmul.d	fa4, fa4, fa3
   11f7e: 47 f6 c7 72  	fmsub.d	fa2, fa5, fa2, fa4
   11f82: 43 f7 b7 62  	fmadd.d	fa4, fa5, fa1, fa2
   11f86: d3 07 07 e2  	fmv.x.d	a5, fa4
   11f8a: 81 93        	srli	a5, a5, 0x20
   11f8c: 82 17        	slli	a5, a5, 0x20
   11f8e: 53 87 07 f2  	fmv.d.x	fa4, a5
   11f92: 4b f7 b7 72  	fnmsub.d	fa4, fa5, fa1, fa4
   11f96: d3 87 07 f2  	fmv.d.x	fa5, a5
   11f9a: 53 76 e6 0a  	fsub.d	fa2, fa2, fa4
   11f9e: cd b6        	j	0x11b80 <__ieee754_pow+0x34a>
   11fa0: 93 07 00 00  	li	a5, 0x0
   11fa4: e3 d0 0a e0  	bgez	s5, 0x11da4 <__ieee754_pow+0x56e>
   11fa8: d3 87 04 f2  	fmv.d.x	fa5, s1
   11fac: d3 97 f7 22  	fneg.d	fa5, fa5
   11fb0: d3 87 07 e2  	fmv.x.d	a5, fa5
   11fb4: c5 bb        	j	0x11da4 <__ieee754_pow+0x56e>
   11fb6: e3 1b 07 d6  	bnez	a4, 0x11d2c <__ieee754_pow+0x4f6>
   11fba: 51 47        	li	a4, 0x14
   11fbc: bb 07 a7 40  	subw	a5, a4, a0
   11fc0: 3b 57 f6 40  	sraw	a4, a2, a5
   11fc4: bb 17 f7 00  	sllw	a5, a4, a5
   11fc8: 63 84 c7 06  	beq	a5, a2, 0x12030 <__ieee754_pow+0x7fa>
   11fcc: e3 01 da 96  	beq	s4, a3, 0x1192e <__ieee754_pow+0xf8>
   11fd0: f1 b2        	j	0x1199c <__ieee754_pow+0x166>
   11fd2: b7 07 e0 3f  	lui	a5, 0x3fe00
   11fd6: 81 45        	li	a1, 0x0
   11fd8: 01 45        	li	a0, 0x0
   11fda: e3 f4 d7 c6  	bgeu	a5, a3, 0x11c42 <__ieee754_pow+0x40c>
   11fde: 1b d7 46 41  	sraiw	a4, a3, 0x14
   11fe2: 1b 07 27 c0  	addiw	a4, a4, -0x3fe
   11fe6: b7 07 10 00  	lui	a5, 0x100
   11fea: bb d7 e7 40  	sraw	a5, a5, a4
   11fee: 19 b1        	j	0x11bf4 <__ieee754_pow+0x3be>
   11ff0: 05 47        	li	a4, 0x1
   11ff2: e3 99 ec 94  	bne	s9, a4, 0x11944 <__ieee754_pow+0x10e>
   11ff6: d3 87 07 f2  	fmv.d.x	fa5, a5
   11ffa: d3 97 f7 22  	fneg.d	fa5, fa5
   11ffe: d3 87 07 e2  	fmv.x.d	a5, fa5
   12002: 89 b2        	j	0x11944 <__ieee754_pow+0x10e>
   12004: 07 b1 81 f5  	fld	ft2, -0xa8(gp)
   12008: 87 b2 01 f6  	fld	ft5, -0xa0(gp)
   1200c: 87 b7 81 e0  	fld	fa5, -0x1f8(gp)
   12010: 37 03 04 00  	lui	t1, 0x40
   12014: 1d b4        	j	0x11a3a <__ieee754_pow+0x204>
   12016: 53 85 f7 22  	fmv.d	fa0, fa5
   1201a: ef 00 40 2a  	jal	0x122be <scalbn>
   1201e: d3 07 05 e2  	fmv.x.d	a5, fa0
   12022: e1 b1        	j	0x11cea <__ieee754_pow+0x4b4>
   12024: b7 07 00 40  	lui	a5, 0x40000
   12028: e3 8e fa e8  	beq	s5, a5, 0x11ec4 <__ieee754_pow+0x68e>
   1202c: 89 4c        	li	s9, 0x2
   1202e: a5 ba        	j	0x119a6 <__ieee754_pow+0x170>
   12030: e3 0f da 8e  	beq	s4, a3, 0x1192e <__ieee754_pow+0xf8>
   12034: b7 07 00 40  	lui	a5, 0x40000
   12038: e3 86 fa e8  	beq	s5, a5, 0x11ec4 <__ieee754_pow+0x68e>
   1203c: 05 8b        	andi	a4, a4, 0x1
   1203e: 89 4c        	li	s9, 0x2
   12040: bb 8c ec 40  	subw	s9, s9, a4
   12044: 8d b2        	j	0x119a6 <__ieee754_pow+0x170>

0000000000012046 <__ieee754_rem_pio2>:
   12046: d3 07 05 e2  	fmv.x.d	a5, fa0
   1204a: 39 71        	addi	sp, sp, -0x40
   1204c: b7 26 e9 3f  	lui	a3, 0x3fe92
   12050: 13 d6 07 42  	srai	a2, a5, 0x20
   12054: 13 17 16 02  	slli	a4, a2, 0x21
   12058: 22 f8        	sd	s0, 0x30(sp)
   1205a: 06 fc        	sd	ra, 0x38(sp)
   1205c: 93 86 b6 1f  	addi	a3, a3, 0x1fb
   12060: 05 93        	srli	a4, a4, 0x21
   12062: 2a 84        	mv	s0, a0
   12064: 63 f3 e6 0e  	bgeu	a3, a4, 0x1214a <__ieee754_rem_pio2+0x104>
   12068: b7 e6 02 40  	lui	a3, 0x4002e
   1206c: 26 f4        	sd	s1, 0x28(sp)
   1206e: 93 86 b6 97  	addi	a3, a3, -0x685
   12072: 9b 04 06 00  	sext.w	s1, a2
   12076: 63 ee e6 02  	bltu	a3, a4, 0x120b2 <__ieee754_rem_pio2+0x6c>
   1207a: b7 26 f9 3f  	lui	a3, 0x3ff92
   1207e: 87 b7 01 03  	fld	fa5, 0x30(gp)
   12082: 93 86 b6 1f  	addi	a3, a3, 0x1fb
   12086: 63 5e 90 1e  	blez	s1, 0x12282 <__ieee754_rem_pio2+0x23c>
   1208a: d3 77 f5 0a  	fsub.d	fa5, fa0, fa5
   1208e: 63 0c d7 0c  	beq	a4, a3, 0x12166 <__ieee754_rem_pio2+0x120>
   12092: 87 b6 81 03  	fld	fa3, 0x38(gp)
   12096: 53 f7 d7 0a  	fsub.d	fa4, fa5, fa3
   1209a: d3 f7 e7 0a  	fsub.d	fa5, fa5, fa4
   1209e: d3 f7 d7 0a  	fsub.d	fa5, fa5, fa3
   120a2: a2 74        	ld	s1, 0x28(sp)
   120a4: 18 a0        	fsd	fa4, 0x0(s0)
   120a6: 1c a4        	fsd	fa5, 0x8(s0)
   120a8: 05 45        	li	a0, 0x1
   120aa: e2 70        	ld	ra, 0x38(sp)
   120ac: 42 74        	ld	s0, 0x30(sp)
   120ae: 21 61        	addi	sp, sp, 0x40
   120b0: 82 80        	ret
   120b2: b7 26 39 41  	lui	a3, 0x41392
   120b6: 4a f0        	sd	s2, 0x20(sp)
   120b8: 93 86 b6 1f  	addi	a3, a3, 0x1fb
   120bc: 1b 09 07 00  	sext.w	s2, a4
   120c0: 63 f0 e6 0c  	bgeu	a3, a4, 0x12180 <__ieee754_rem_pio2+0x13a>
   120c4: b7 06 f0 7f  	lui	a3, 0x7ff00
   120c8: 63 77 d7 08  	bgeu	a4, a3, 0x12156 <__ieee754_rem_pio2+0x110>
   120cc: 1b 56 49 41  	sraiw	a2, s2, 0x14
   120d0: 1b 06 a6 be  	addiw	a2, a2, -0x416
   120d4: be 85        	mv	a1, a5
   120d6: 9b 17 46 01  	slliw	a5, a2, 0x14
   120da: 3b 09 f9 40  	subw	s2, s2, a5
   120de: 82 15        	slli	a1, a1, 0x20
   120e0: 02 19        	slli	s2, s2, 0x20
   120e2: 81 91        	srli	a1, a1, 0x20
   120e4: b3 e5 25 01  	or	a1, a1, s2
   120e8: d3 87 05 f2  	fmv.d.x	fa5, a1
   120ec: 07 b7 81 06  	fld	fa4, 0x68(gp)
   120f0: d3 97 07 c2  	fcvt.w.d	a5, fa5, rtz
   120f4: 8d 46        	li	a3, 0x3
   120f6: d3 86 07 d2  	fcvt.d.w	fa3, a5
   120fa: d3 f7 d7 0a  	fsub.d	fa5, fa5, fa3
   120fe: 36 a4        	fsd	fa3, 0x8(sp)
   12100: d3 f7 e7 12  	fmul.d	fa5, fa5, fa4
   12104: d3 97 07 c2  	fcvt.w.d	a5, fa5, rtz
   12108: d3 86 07 d2  	fcvt.d.w	fa3, a5
   1210c: 81 27        	sext.w	a5, a5
   1210e: d3 f7 d7 0a  	fsub.d	fa5, fa5, fa3
   12112: 36 a8        	fsd	fa3, 0x10(sp)
   12114: d3 f7 e7 12  	fmul.d	fa5, fa5, fa4
   12118: 53 07 00 f2  	fmv.d.x	fa4, zero
   1211c: 53 a7 e7 a2  	feq.d	a4, fa5, fa4
   12120: 3e ac        	fsd	fa5, 0x18(sp)
   12122: 01 c7        	beqz	a4, 0x1212a <__ieee754_rem_pio2+0xe4>
   12124: b3 36 f0 00  	snez	a3, a5
   12128: 85 06        	addi	a3, a3, 0x1
   1212a: f5 67        	lui	a5, 0x1d
   1212c: 93 87 87 e5  	addi	a5, a5, -0x1a8
   12130: 09 47        	li	a4, 0x2
   12132: a2 85        	mv	a1, s0
   12134: 28 00        	addi	a0, sp, 0x8
   12136: ef 00 40 36  	jal	0x1249a <__kernel_rem_pio2>
   1213a: 63 c7 04 12  	bltz	s1, 0x12268 <__ieee754_rem_pio2+0x222>
   1213e: e2 70        	ld	ra, 0x38(sp)
   12140: 42 74        	ld	s0, 0x30(sp)
   12142: a2 74        	ld	s1, 0x28(sp)
   12144: 02 79        	ld	s2, 0x20(sp)
   12146: 21 61        	addi	sp, sp, 0x40
   12148: 82 80        	ret
   1214a: d3 07 00 f2  	fmv.d.x	fa5, zero
   1214e: 08 a0        	fsd	fa0, 0x0(s0)
   12150: 1c a5        	fsd	fa5, 0x8(a0)
   12152: 01 45        	li	a0, 0x0
   12154: 99 bf        	j	0x120aa <__ieee754_rem_pio2+0x64>
   12156: d3 77 a5 0a  	fsub.d	fa5, fa0, fa0
   1215a: a2 74        	ld	s1, 0x28(sp)
   1215c: 02 79        	ld	s2, 0x20(sp)
   1215e: 1c a5        	fsd	fa5, 0x8(a0)
   12160: 1c a1        	fsd	fa5, 0x0(a0)
   12162: 01 45        	li	a0, 0x0
   12164: 99 b7        	j	0x120aa <__ieee754_rem_pio2+0x64>
   12166: 87 b6 81 04  	fld	fa3, 0x48(gp)
   1216a: 07 b7 01 04  	fld	fa4, 0x40(gp)
   1216e: d3 f7 e7 0a  	fsub.d	fa5, fa5, fa4
   12172: 53 f7 d7 0a  	fsub.d	fa4, fa5, fa3
   12176: d3 f7 e7 0a  	fsub.d	fa5, fa5, fa4
   1217a: d3 f7 d7 0a  	fsub.d	fa5, fa5, fa3
   1217e: 15 b7        	j	0x120a2 <__ieee754_rem_pio2+0x5c>
   12180: ef f0 2f b2  	jal	0x114a2 <fabs>
   12184: 87 b7 01 05  	fld	fa5, 0x50(gp)
   12188: 07 b7 01 eb  	fld	fa4, -0x150(gp)
   1218c: fd 47        	li	a5, 0x1f
   1218e: c3 77 f5 72  	fmadd.d	fa5, fa0, fa5, fa4
   12192: d3 96 07 c2  	fcvt.w.d	a3, fa5, rtz
   12196: 87 b7 01 03  	fld	fa5, 0x30(gp)
   1219a: d3 86 06 d2  	fcvt.d.w	fa3, a3
   1219e: 07 b7 81 03  	fld	fa4, 0x38(gp)
   121a2: 1b 85 06 00  	sext.w	a0, a3
   121a6: cb f7 f6 52  	fnmsub.d	fa5, fa3, fa5, fa0
   121aa: 53 f7 e6 12  	fmul.d	fa4, fa3, fa4
   121ae: 63 c5 a7 04  	blt	a5, a0, 0x121f8 <__ieee754_rem_pio2+0x1b2>
   121b2: 1b 87 f6 ff  	addiw	a4, a3, -0x1
   121b6: f5 67        	lui	a5, 0x1d
   121b8: 0a 07        	slli	a4, a4, 0x2
   121ba: 93 87 87 dd  	addi	a5, a5, -0x228
   121be: ba 97        	add	a5, a5, a4
   121c0: 9c 43        	lw	a5, 0x0(a5)
   121c2: 63 8b 27 03  	beq	a5, s2, 0x121f8 <__ieee754_rem_pio2+0x1b2>
   121c6: d3 f6 e7 0a  	fsub.d	fa3, fa5, fa4
   121ca: d3 87 06 e2  	fmv.x.d	a5, fa3
   121ce: d3 86 07 f2  	fmv.d.x	fa3, a5
   121d2: 1c e0        	sd	a5, 0x0(s0)
   121d4: d3 f7 d7 0a  	fsub.d	fa5, fa5, fa3
   121d8: d3 f7 e7 0a  	fsub.d	fa5, fa5, fa4
   121dc: 1c a4        	fsd	fa5, 0x8(s0)
   121de: e3 d0 04 f6  	bgez	s1, 0x1213e <__ieee754_rem_pio2+0xf8>
   121e2: 53 97 d6 22  	fneg.d	fa4, fa3
   121e6: d3 97 f7 22  	fneg.d	fa5, fa5
   121ea: a2 74        	ld	s1, 0x28(sp)
   121ec: 02 79        	ld	s2, 0x20(sp)
   121ee: 3b 05 d0 40  	negw	a0, a3
   121f2: 18 a0        	fsd	fa4, 0x0(s0)
   121f4: 1c a4        	fsd	fa5, 0x8(s0)
   121f6: 55 bd        	j	0x120aa <__ieee754_rem_pio2+0x64>
   121f8: 53 f6 e7 0a  	fsub.d	fa2, fa5, fa4
   121fc: 1b 59 49 41  	sraiw	s2, s2, 0x14
   12200: 41 46        	li	a2, 0x10
   12202: d3 07 06 e2  	fmv.x.d	a5, fa2
   12206: 13 d7 47 03  	srli	a4, a5, 0x34
   1220a: 13 77 f7 7f  	andi	a4, a4, 0x7ff
   1220e: 3b 07 e9 40  	subw	a4, s2, a4
   12212: e3 5e e6 fa  	bge	a2, a4, 0x121ce <__ieee754_rem_pio2+0x188>
   12216: 07 b7 01 04  	fld	fa4, 0x40(gp)
   1221a: 13 06 10 03  	li	a2, 0x31
   1221e: 4b f6 e6 7a  	fnmsub.d	fa2, fa3, fa4, fa5
   12222: d3 f5 c7 0a  	fsub.d	fa1, fa5, fa2
   12226: d3 07 c6 22  	fmv.d	fa5, fa2
   1222a: cb f5 e6 5a  	fnmsub.d	fa1, fa3, fa4, fa1
   1222e: 07 b7 81 04  	fld	fa4, 0x48(gp)
   12232: 47 f7 e6 5a  	fmsub.d	fa4, fa3, fa4, fa1
   12236: d3 75 e6 0a  	fsub.d	fa1, fa2, fa4
   1223a: d3 87 05 e2  	fmv.x.d	a5, fa1
   1223e: 13 d7 47 03  	srli	a4, a5, 0x34
   12242: 13 77 f7 7f  	andi	a4, a4, 0x7ff
   12246: 3b 09 e9 40  	subw	s2, s2, a4
   1224a: e3 52 26 f9  	bge	a2, s2, 0x121ce <__ieee754_rem_pio2+0x188>
   1224e: 07 b7 81 05  	fld	fa4, 0x58(gp)
   12252: cb f7 e6 62  	fnmsub.d	fa5, fa3, fa4, fa2
   12256: 53 76 f6 0a  	fsub.d	fa2, fa2, fa5
   1225a: 4b f6 e6 62  	fnmsub.d	fa2, fa3, fa4, fa2
   1225e: 07 b7 01 06  	fld	fa4, 0x60(gp)
   12262: 47 f7 e6 62  	fmsub.d	fa4, fa3, fa4, fa2
   12266: 85 b7        	j	0x121c6 <__ieee754_rem_pio2+0x180>
   12268: 18 20        	fld	fa4, 0x0(s0)
   1226a: 1c 24        	fld	fa5, 0x8(s0)
   1226c: a2 74        	ld	s1, 0x28(sp)
   1226e: 53 17 e7 22  	fneg.d	fa4, fa4
   12272: d3 97 f7 22  	fneg.d	fa5, fa5
   12276: 02 79        	ld	s2, 0x20(sp)
   12278: 3b 05 a0 40  	negw	a0, a0
   1227c: 18 a0        	fsd	fa4, 0x0(s0)
   1227e: 1c a4        	fsd	fa5, 0x8(s0)
   12280: 2d b5        	j	0x120aa <__ieee754_rem_pio2+0x64>
   12282: d3 77 f5 02  	fadd.d	fa5, fa0, fa5
   12286: 63 0f d7 00  	beq	a4, a3, 0x122a4 <__ieee754_rem_pio2+0x25e>
   1228a: 87 b6 81 03  	fld	fa3, 0x38(gp)
   1228e: 53 f7 d7 02  	fadd.d	fa4, fa5, fa3
   12292: d3 f7 e7 0a  	fsub.d	fa5, fa5, fa4
   12296: d3 f7 d7 02  	fadd.d	fa5, fa5, fa3
   1229a: a2 74        	ld	s1, 0x28(sp)
   1229c: 18 a0        	fsd	fa4, 0x0(s0)
   1229e: 1c a4        	fsd	fa5, 0x8(s0)
   122a0: 7d 55        	li	a0, -0x1
   122a2: 21 b5        	j	0x120aa <__ieee754_rem_pio2+0x64>
   122a4: 87 b6 81 04  	fld	fa3, 0x48(gp)
   122a8: 07 b7 01 04  	fld	fa4, 0x40(gp)
   122ac: d3 f7 e7 02  	fadd.d	fa5, fa5, fa4
   122b0: 53 f7 d7 02  	fadd.d	fa4, fa5, fa3
   122b4: d3 f7 e7 0a  	fsub.d	fa5, fa5, fa4
   122b8: d3 f7 d7 02  	fadd.d	fa5, fa5, fa3
   122bc: f9 bf        	j	0x1229a <__ieee754_rem_pio2+0x254>

00000000000122be <scalbn>:
   122be: d3 07 05 e2  	fmv.x.d	a5, fa0
   122c2: 13 d7 47 43  	srai	a4, a5, 0x34
   122c6: 93 d6 07 42  	srai	a3, a5, 0x20
   122ca: 13 77 f7 7f  	andi	a4, a4, 0x7ff
   122ce: 36 86        	mv	a2, a3
   122d0: 59 e3        	bnez	a4, 0x12356 <scalbn+0x98>
   122d2: 86 16        	slli	a3, a3, 0x21
   122d4: 85 92        	srli	a3, a3, 0x21
   122d6: dd 8e        	or	a3, a3, a5
   122d8: 81 26        	sext.w	a3, a3
   122da: bd ca        	beqz	a3, 0x12350 <scalbn+0x92>
   122dc: 87 b7 01 07  	fld	fa5, 0x70(gp)
   122e0: 51 77        	lui	a4, 0xffff4
   122e2: 13 07 07 cb  	addi	a4, a4, -0x350
   122e6: d3 77 f5 12  	fmul.d	fa5, fa0, fa5
   122ea: d3 87 07 e2  	fmv.x.d	a5, fa5
   122ee: 63 4b e5 0a  	blt	a0, a4, 0x123a4 <scalbn+0xe6>
   122f2: 13 d7 47 43  	srai	a4, a5, 0x34
   122f6: 13 77 f7 7f  	andi	a4, a4, 0x7ff
   122fa: 13 d6 07 42  	srai	a2, a5, 0x20
   122fe: 1b 07 a7 fc  	addiw	a4, a4, -0x36
   12302: b1 66        	lui	a3, 0xc
   12304: 93 86 06 35  	addi	a3, a3, 0x350
   12308: 63 c2 a6 06  	blt	a3, a0, 0x1236c <scalbn+0xae>
   1230c: 29 9f        	addw	a4, a4, a0
   1230e: 93 06 e0 7f  	li	a3, 0x7fe
   12312: 3a 85        	mv	a0, a4
   12314: 63 cc e6 04  	blt	a3, a4, 0x1236c <scalbn+0xae>
   12318: 63 47 e0 06  	bgtz	a4, 0x12386 <scalbn+0xc8>
   1231c: 93 06 b0 fc  	li	a3, -0x35
   12320: 63 4d d7 08  	blt	a4, a3, 0x123ba <scalbn+0xfc>
   12324: 37 07 10 80  	lui	a4, 0x80100
   12328: 7d 17        	addi	a4, a4, -0x1
   1232a: 1b 05 65 03  	addiw	a0, a0, 0x36
   1232e: 79 8e        	and	a2, a2, a4
   12330: 1b 15 45 01  	slliw	a0, a0, 0x14
   12334: 7d 57        	li	a4, -0x1
   12336: 01 93        	srli	a4, a4, 0x20
   12338: 49 8e        	or	a2, a2, a0
   1233a: f9 8f        	and	a5, a5, a4
   1233c: 02 16        	slli	a2, a2, 0x20
   1233e: d1 8f        	or	a5, a5, a2
   12340: 53 87 07 f2  	fmv.d.x	fa4, a5
   12344: 87 b7 01 08  	fld	fa5, 0x80(gp)
   12348: d3 f7 e7 12  	fmul.d	fa5, fa5, fa4
   1234c: d3 87 07 e2  	fmv.x.d	a5, fa5
   12350: 53 85 07 f2  	fmv.d.x	fa0, a5
   12354: 82 80        	ret
   12356: 93 06 f0 7f  	li	a3, 0x7ff
   1235a: e3 14 d7 fa  	bne	a4, a3, 0x12302 <scalbn+0x44>
   1235e: d3 77 a5 02  	fadd.d	fa5, fa0, fa0
   12362: d3 87 07 e2  	fmv.x.d	a5, fa5
   12366: 53 85 07 f2  	fmv.d.x	fa0, a5
   1236a: 82 80        	ret
   1236c: 07 b7 01 df  	fld	fa4, -0x210(gp)
   12370: d3 87 07 f2  	fmv.d.x	fa5, a5
   12374: d3 07 f7 22  	fsgnj.d	fa5, fa4, fa5
   12378: d3 f7 e7 12  	fmul.d	fa5, fa5, fa4
   1237c: d3 87 07 e2  	fmv.x.d	a5, fa5
   12380: 53 85 07 f2  	fmv.d.x	fa0, a5
   12384: 82 80        	ret
   12386: 37 07 10 80  	lui	a4, 0x80100
   1238a: 7d 17        	addi	a4, a4, -0x1
   1238c: 79 8e        	and	a2, a2, a4
   1238e: 1b 15 45 01  	slliw	a0, a0, 0x14
   12392: 7d 57        	li	a4, -0x1
   12394: 49 8e        	or	a2, a2, a0
   12396: 01 93        	srli	a4, a4, 0x20
   12398: 02 16        	slli	a2, a2, 0x20
   1239a: f9 8f        	and	a5, a5, a4
   1239c: d1 8f        	or	a5, a5, a2
   1239e: 53 85 07 f2  	fmv.d.x	fa0, a5
   123a2: 82 80        	ret
   123a4: 53 87 07 f2  	fmv.d.x	fa4, a5
   123a8: 87 b7 81 07  	fld	fa5, 0x78(gp)
   123ac: d3 77 f7 12  	fmul.d	fa5, fa4, fa5
   123b0: d3 87 07 e2  	fmv.x.d	a5, fa5
   123b4: 53 85 07 f2  	fmv.d.x	fa0, a5
   123b8: 82 80        	ret
   123ba: 07 b7 81 07  	fld	fa4, 0x78(gp)
   123be: d3 87 07 f2  	fmv.d.x	fa5, a5
   123c2: d3 07 f7 22  	fsgnj.d	fa5, fa4, fa5
   123c6: d3 f7 e7 12  	fmul.d	fa5, fa5, fa4
   123ca: d3 87 07 e2  	fmv.x.d	a5, fa5
   123ce: 49 b7        	j	0x12350 <scalbn+0x92>

00000000000123d0 <with_errno>:
   123d0: 01 11        	addi	sp, sp, -0x20
   123d2: 22 e8        	sd	s0, 0x10(sp)
   123d4: 22 a4        	fsd	fs0, 0x8(sp)
   123d6: 06 ec        	sd	ra, 0x18(sp)
   123d8: 53 04 a5 22  	fmv.d	fs0, fa0
   123dc: 2a 84        	mv	s0, a0
   123de: ef 00 b0 71  	jal	0x132f8 <__errno>
   123e2: e2 60        	ld	ra, 0x18(sp)
   123e4: 00 c1        	sw	s0, 0x0(a0)
   123e6: 42 64        	ld	s0, 0x10(sp)
   123e8: 53 05 84 22  	fmv.d	fa0, fs0
   123ec: 22 24        	fld	fs0, 0x8(sp)
   123ee: 05 61        	addi	sp, sp, 0x20
   123f0: 82 80        	ret

00000000000123f2 <xflow>:
   123f2: d3 07 a5 22  	fmv.d	fa5, fa0
   123f6: 41 11        	addi	sp, sp, -0x10
   123f8: 19 c1        	beqz	a0, 0x123fe <xflow+0xc>
   123fa: d3 17 a5 22  	fneg.d	fa5, fa0
   123fe: 3e a4        	fsd	fa5, 0x8(sp)
   12400: a2 27        	fld	fa5, 0x8(sp)
   12402: 13 05 20 02  	li	a0, 0x22
   12406: 53 75 f5 12  	fmul.d	fa0, fa0, fa5
   1240a: 41 01        	addi	sp, sp, 0x10
   1240c: d1 b7        	j	0x123d0 <with_errno>

000000000001240e <__math_uflow>:
   1240e: 07 b5 81 08  	fld	fa0, 0x88(gp)
   12412: c5 b7        	j	0x123f2 <xflow>

0000000000012414 <__math_may_uflow>:
   12414: 07 b5 01 09  	fld	fa0, 0x90(gp)
   12418: e9 bf        	j	0x123f2 <xflow>

000000000001241a <__math_oflow>:
   1241a: 07 b5 81 09  	fld	fa0, 0x98(gp)
   1241e: d1 bf        	j	0x123f2 <xflow>

0000000000012420 <__math_divzero>:
   12420: 41 11        	addi	sp, sp, -0x10
   12422: 09 cd        	beqz	a0, 0x1243c <__math_divzero+0x1c>
   12424: 87 b7 01 e0  	fld	fa5, -0x200(gp)
   12428: 13 05 20 02  	li	a0, 0x22
   1242c: 3e a4        	fsd	fa5, 0x8(sp)
   1242e: 22 25        	fld	fa0, 0x8(sp)
   12430: d3 07 00 f2  	fmv.d.x	fa5, zero
   12434: 41 01        	addi	sp, sp, 0x10
   12436: 53 75 f5 1a  	fdiv.d	fa0, fa0, fa5
   1243a: 59 bf        	j	0x123d0 <with_errno>
   1243c: 87 b7 81 dd  	fld	fa5, -0x228(gp)
   12440: 13 05 20 02  	li	a0, 0x22
   12444: 3e a4        	fsd	fa5, 0x8(sp)
   12446: 22 25        	fld	fa0, 0x8(sp)
   12448: d3 07 00 f2  	fmv.d.x	fa5, zero
   1244c: 41 01        	addi	sp, sp, 0x10
   1244e: 53 75 f5 1a  	fdiv.d	fa0, fa0, fa5
   12452: bd bf        	j	0x123d0 <with_errno>

0000000000012454 <__math_invalid>:
   12454: d3 77 a5 0a  	fsub.d	fa5, fa0, fa0
   12458: d3 27 a5 a2  	feq.d	a5, fa0, fa0
   1245c: 53 f5 f7 1a  	fdiv.d	fa0, fa5, fa5
   12460: 81 c7        	beqz	a5, 0x12468 <__math_invalid+0x14>
   12462: 13 05 10 02  	li	a0, 0x21
   12466: ad b7        	j	0x123d0 <with_errno>
   12468: 82 80        	ret

000000000001246a <__math_check_uflow>:
   1246a: d3 07 00 f2  	fmv.d.x	fa5, zero
   1246e: d3 27 f5 a2  	feq.d	a5, fa0, fa5
   12472: 91 e3        	bnez	a5, 0x12476 <__math_check_uflow+0xc>
   12474: 82 80        	ret
   12476: 13 05 20 02  	li	a0, 0x22
   1247a: 99 bf        	j	0x123d0 <with_errno>

000000000001247c <__math_check_oflow>:
   1247c: d3 27 a5 22  	fabs.d	fa5, fa0
   12480: 73 27 10 00  	frflags	a4
   12484: 07 b7 01 0a  	fld	fa4, 0xa0(gp)
   12488: d3 17 f7 a2  	flt.d	a5, fa4, fa5
   1248c: 73 10 17 00  	fsflags	a4
   12490: 91 e3        	bnez	a5, 0x12494 <__math_check_oflow+0x18>
   12492: 82 80        	ret
   12494: 13 05 20 02  	li	a0, 0x22
   12498: 25 bf        	j	0x123d0 <with_errno>

000000000001249a <__kernel_rem_pio2>:
   1249a: 13 01 01 d1  	addi	sp, sp, -0x2f0
   1249e: 23 30 81 2e  	sd	s0, 0x2e0(sp)
   124a2: 3a e4        	sd	a4, 0x8(sp)
   124a4: 3a 84        	mv	s0, a4
   124a6: 75 67        	lui	a4, 0x1d
   124a8: 13 07 07 fa  	addi	a4, a4, -0x60
   124ac: 23 34 31 2d  	sd	s3, 0x2c8(sp)
   124b0: b6 89        	mv	s3, a3
   124b2: 93 16 24 00  	slli	a3, s0, 0x2
   124b6: ba 96        	add	a3, a3, a4
   124b8: 23 3c 51 2b  	sd	s5, 0x2b8(sp)
   124bc: 23 38 61 2b  	sd	s6, 0x2b0(sp)
   124c0: 23 30 81 2b  	sd	s8, 0x2a0(sp)
   124c4: 23 38 a1 29  	sd	s10, 0x290(sp)
   124c8: 23 34 b1 29  	sd	s11, 0x288(sp)
   124cc: 32 8c        	mv	s8, a2
   124ce: 9b 8d f9 ff  	addiw	s11, s3, -0x1
   124d2: 23 34 11 2e  	sd	ra, 0x2e8(sp)
   124d6: 23 3c 91 2c  	sd	s1, 0x2d8(sp)
   124da: 23 38 21 2d  	sd	s2, 0x2d0(sp)
   124de: 23 30 41 2d  	sd	s4, 0x2c0(sp)
   124e2: 23 34 71 2b  	sd	s7, 0x2a8(sp)
   124e6: 23 3c 91 29  	sd	s9, 0x298(sp)
   124ea: 27 3c 81 26  	fsd	fs0, 0x278(sp)
   124ee: 27 38 91 26  	fsd	fs1, 0x270(sp)
   124f2: 27 34 21 27  	fsd	fs2, 0x268(sp)
   124f6: 27 30 31 27  	fsd	fs3, 0x260(sp)
   124fa: 27 3c 41 25  	fsd	fs4, 0x258(sp)
   124fe: 27 38 51 25  	fsd	fs5, 0x250(sp)
   12502: 31 56        	li	a2, -0x14
   12504: 2e e0        	sd	a1, 0x0(sp)
   12506: 03 ad 06 00  	lw	s10, 0x0(a3)
   1250a: 6e 87        	mv	a4, s11
   1250c: 2a 8b        	mv	s6, a0
   1250e: be 8a        	mv	s5, a5
   12510: 63 47 cc 50  	blt	s8, a2, 0x12a1e <__kernel_rem_pio2+0x584>
   12514: e1 47        	li	a5, 0x18
   12516: 9b 04 dc ff  	addiw	s1, s8, -0x3
   1251a: bb c4 f4 02  	divw	s1, s1, a5
   1251e: 9b 87 14 00  	addiw	a5, s1, 0x1
   12522: 9b 96 27 00  	slliw	a3, a5, 0x2
   12526: 95 9f        	subw	a5, a5, a3
   12528: 9b 97 37 00  	slliw	a5, a5, 0x3
   1252c: 3b 0c fc 00  	addw	s8, s8, a5
   12530: 3b 85 e4 40  	subw	a0, s1, a4
   12534: 3b 07 ed 00  	addw	a4, s10, a4
   12538: 62 c8        	sw	s8, 0x10(sp)
   1253a: 93 16 07 02  	slli	a3, a4, 0x20
   1253e: 9b 07 05 00  	sext.w	a5, a0
   12542: 63 c6 06 02  	bltz	a3, 0x1256e <__kernel_rem_pio2+0xd4>
   12546: 1b 06 17 00  	addiw	a2, a4, 0x1
   1254a: 93 96 27 00  	slli	a3, a5, 0x2
   1254e: 98 18        	addi	a4, sp, 0x70
   12550: d6 96        	add	a3, a3, s5
   12552: 29 9e        	addw	a2, a2, a0
   12554: d3 07 00 f2  	fmv.d.x	fa5, zero
   12558: 63 c5 07 00  	bltz	a5, 0x12562 <__kernel_rem_pio2+0xc8>
   1255c: 88 42        	lw	a0, 0x0(a3)
   1255e: d3 07 05 d2  	fcvt.d.w	fa5, a0
   12562: 85 27        	addiw	a5, a5, 0x1
   12564: 1c a3        	fsd	fa5, 0x0(a4)
   12566: 21 07        	addi	a4, a4, 0x8
   12568: 91 06        	addi	a3, a3, 0x4
   1256a: e3 95 c7 fe  	bne	a5, a2, 0x12554 <__kernel_rem_pio2+0xba>
   1256e: 13 94 39 00  	slli	s0, s3, 0x3
   12572: 63 4e 0d 02  	bltz	s10, 0x125ae <__kernel_rem_pio2+0x114>
   12576: 08 1b        	addi	a0, sp, 0x1b0
   12578: 6e 86        	mv	a2, s11
   1257a: bb 08 3d 01  	addw	a7, s10, s3
   1257e: b3 06 8b 00  	add	a3, s6, s0
   12582: d3 07 00 f2  	fmv.d.x	fa5, zero
   12586: 63 cf 0d 00  	bltz	s11, 0x125a4 <__kernel_rem_pio2+0x10a>
   1258a: 9c 18        	addi	a5, sp, 0x70
   1258c: 13 17 36 00  	slli	a4, a2, 0x3
   12590: 3e 97        	add	a4, a4, a5
   12592: da 87        	mv	a5, s6
   12594: 94 23        	fld	fa3, 0x0(a5)
   12596: 18 23        	fld	fa4, 0x0(a4)
   12598: a1 07        	addi	a5, a5, 0x8
   1259a: 61 17        	addi	a4, a4, -0x8
   1259c: c3 f7 e6 7a  	fmadd.d	fa5, fa3, fa4, fa5
   125a0: e3 9a d7 fe  	bne	a5, a3, 0x12594 <__kernel_rem_pio2+0xfa>
   125a4: 1c a1        	fsd	fa5, 0x0(a0)
   125a6: 05 26        	addiw	a2, a2, 0x1
   125a8: 21 05        	addi	a0, a0, 0x8
   125aa: e3 1c 16 fd  	bne	a2, a7, 0x12582 <__kernel_rem_pio2+0xe8>
   125ae: 07 ba 81 0a  	fld	fs4, 0xa8(gp)
   125b2: 87 b9 81 06  	fld	fs3, 0x68(gp)
   125b6: 87 b4 01 0b  	fld	fs1, 0xb0(gp)
   125ba: 13 19 2d 00  	slli	s2, s10, 0x2
   125be: 07 b4 81 0b  	fld	fs0, 0xb8(gp)
   125c2: 07 b9 01 eb  	fld	fs2, -0x150(gp)
   125c6: 1b 0a fd ff  	addiw	s4, s10, -0x1
   125ca: 93 07 89 01  	addi	a5, s2, 0x18
   125ce: 33 89 27 00  	add	s2, a5, sp
   125d2: 5a 94        	add	s0, s0, s6
   125d4: ea 8b        	mv	s7, s10
   125d6: 0a 0a        	slli	s4, s4, 0x2
   125d8: 93 97 3b 00  	slli	a5, s7, 0x3
   125dc: 13 87 07 23  	addi	a4, a5, 0x230
   125e0: 14 10        	addi	a3, sp, 0x20
   125e2: 36 97        	add	a4, a4, a3
   125e4: 07 35 07 f6  	fld	fa0, -0xa0(a4)
   125e8: 63 54 70 05  	blez	s7, 0x12630 <__kernel_rem_pio2+0x196>
   125ec: 1b 85 fb ff  	addiw	a0, s7, -0x1
   125f0: 93 87 07 23  	addi	a5, a5, 0x230
   125f4: 33 87 d7 00  	add	a4, a5, a3
   125f8: 93 17 05 02  	slli	a5, a0, 0x20
   125fc: 13 d5 e7 01  	srli	a0, a5, 0x1e
   12600: b6 87        	mv	a5, a3
   12602: 54 10        	addi	a3, sp, 0x24
   12604: 13 07 87 f5  	addi	a4, a4, -0xa8
   12608: 36 95        	add	a0, a0, a3
   1260a: d3 77 45 13  	fmul.d	fa5, fa0, fs4
   1260e: 14 23        	fld	fa3, 0x0(a4)
   12610: 91 07        	addi	a5, a5, 0x4
   12612: 61 17        	addi	a4, a4, -0x8
   12614: 53 96 07 c2  	fcvt.w.d	a2, fa5, rtz
   12618: d3 07 06 d2  	fcvt.d.w	fa5, a2
   1261c: 4b f7 37 53  	fnmsub.d	fa4, fa5, fs3, fa0
   12620: 53 f5 d7 02  	fadd.d	fa0, fa5, fa3
   12624: 53 16 07 c2  	fcvt.w.d	a2, fa4, rtz
   12628: 23 ae c7 fe  	sw	a2, -0x4(a5)
   1262c: e3 9f a7 fc  	bne	a5, a0, 0x1260a <__kernel_rem_pio2+0x170>
   12630: 62 85        	mv	a0, s8
   12632: ef f0 df c8  	jal	0x122be <scalbn>
   12636: d3 0a a5 22  	fmv.d	fs5, fa0
   1263a: 53 75 95 12  	fmul.d	fa0, fa0, fs1
   1263e: ef 00 c0 57  	jal	0x12bba <floor>
   12642: cb 77 85 aa  	fnmsub.d	fa5, fa0, fs0, fs5
   12646: 53 96 07 c2  	fcvt.w.d	a2, fa5, rtz
   1264a: 53 07 06 d2  	fcvt.d.w	fa4, a2
   1264e: 9b 0c 06 00  	sext.w	s9, a2
   12652: d3 fa e7 0a  	fsub.d	fs5, fa5, fa4
   12656: 63 53 80 11  	blez	s8, 0x1275c <__kernel_rem_pio2+0x2c2>
   1265a: 9b 87 fb ff  	addiw	a5, s7, -0x1
   1265e: 8a 07        	slli	a5, a5, 0x2
   12660: 18 10        	addi	a4, sp, 0x20
   12662: 93 87 07 23  	addi	a5, a5, 0x230
   12666: ba 97        	add	a5, a5, a4
   12668: 83 a8 07 dd  	lw	a7, -0x230(a5)
   1266c: 61 47        	li	a4, 0x18
   1266e: 3b 07 87 41  	subw	a4, a4, s8
   12672: 3b d5 e8 40  	sraw	a0, a7, a4
   12676: 3b 17 e5 00  	sllw	a4, a0, a4
   1267a: bb 88 e8 40  	subw	a7, a7, a4
   1267e: 5d 47        	li	a4, 0x17
   12680: 3b 07 87 41  	subw	a4, a4, s8
   12684: 23 a8 17 dd  	sw	a7, -0x230(a5)
   12688: bb d8 e8 40  	sraw	a7, a7, a4
   1268c: bb 0c a6 00  	addw	s9, a2, a0
   12690: 63 46 10 33  	bgtz	a7, 0x129bc <__kernel_rem_pio2+0x522>
   12694: 53 07 00 f2  	fmv.d.x	fa4, zero
   12698: d3 a7 ea a2  	feq.d	a5, fs5, fa4
   1269c: 63 83 07 16  	beqz	a5, 0x12802 <__kernel_rem_pio2+0x368>
   126a0: 63 5a 7d 03  	bge	s10, s7, 0x126d4 <__kernel_rem_pio2+0x23a>
   126a4: 3b 87 ab 41  	subw	a4, s7, s10
   126a8: 7d 37        	addiw	a4, a4, -0x1
   126aa: 13 9e 2b 00  	slli	t3, s7, 0x2
   126ae: 34 08        	addi	a3, sp, 0x18
   126b0: 13 16 07 02  	slli	a2, a4, 0x20
   126b4: 13 57 e6 01  	srli	a4, a2, 0x1e
   126b8: 33 85 c6 01  	add	a0, a3, t3
   126bc: 93 07 ce 01  	addi	a5, t3, 0x1c
   126c0: 19 8d        	sub	a0, a0, a4
   126c2: 8a 97        	add	a5, a5, sp
   126c4: 01 47        	li	a4, 0x0
   126c6: 90 43        	lw	a2, 0x0(a5)
   126c8: f1 17        	addi	a5, a5, -0x4
   126ca: 51 8f        	or	a4, a4, a2
   126cc: e3 9d a7 fe  	bne	a5, a0, 0x126c6 <__kernel_rem_pio2+0x22c>
   126d0: 63 1f 07 30  	bnez	a4, 0x129ee <__kernel_rem_pio2+0x554>
   126d4: 93 07 0a 23  	addi	a5, s4, 0x230
   126d8: 18 10        	addi	a4, sp, 0x20
   126da: ba 97        	add	a5, a5, a4
   126dc: 83 a7 07 dd  	lw	a5, -0x230(a5)
   126e0: 63 93 07 30  	bnez	a5, 0x129e6 <__kernel_rem_pio2+0x54c>
   126e4: ca 87        	mv	a5, s2
   126e6: 05 46        	li	a2, 0x1
   126e8: 88 43        	lw	a0, 0x0(a5)
   126ea: 05 26        	addiw	a2, a2, 0x1
   126ec: f1 17        	addi	a5, a5, -0x4
   126ee: 6d dd        	beqz	a0, 0x126e8 <__kernel_rem_pio2+0x24e>
   126f0: 1b 85 1b 00  	addiw	a0, s7, 0x1
   126f4: 3b 03 76 01  	addw	t1, a2, s7
   126f8: bb 87 ad 00  	addw	a5, s11, a0
   126fc: 33 8e 3b 01  	add	t3, s7, s3
   12700: 93 96 37 00  	slli	a3, a5, 0x3
   12704: 13 17 35 00  	slli	a4, a0, 0x3
   12708: 33 0e fe 40  	sub	t3, t3, a5
   1270c: 33 86 a4 00  	add	a2, s1, a0
   12710: 9c 18        	addi	a5, sp, 0x70
   12712: 0a 06        	slli	a2, a2, 0x2
   12714: be 96        	add	a3, a3, a5
   12716: ba 87        	mv	a5, a4
   12718: 18 1b        	addi	a4, sp, 0x1b0
   1271a: 56 96        	add	a2, a2, s5
   1271c: b3 08 f7 00  	add	a7, a4, a5
   12720: 0e 0e        	slli	t3, t3, 0x3
   12722: 1c 42        	lw	a5, 0x0(a2)
   12724: d3 87 07 d2  	fcvt.d.w	fa5, a5
   12728: 9c a2        	fsd	fa5, 0x0(a3)
   1272a: d3 07 00 f2  	fmv.d.x	fa5, zero
   1272e: 63 cd 0d 00  	bltz	s11, 0x12748 <__kernel_rem_pio2+0x2ae>
   12732: 33 87 c6 01  	add	a4, a3, t3
   12736: da 87        	mv	a5, s6
   12738: 94 23        	fld	fa3, 0x0(a5)
   1273a: 18 23        	fld	fa4, 0x0(a4)
   1273c: a1 07        	addi	a5, a5, 0x8
   1273e: 61 17        	addi	a4, a4, -0x8
   12740: c3 f7 e6 7a  	fmadd.d	fa5, fa3, fa4, fa5
   12744: e3 9a 87 fe  	bne	a5, s0, 0x12738 <__kernel_rem_pio2+0x29e>
   12748: 27 b0 f8 00  	fsd	fa5, 0x0(a7)
   1274c: 05 25        	addiw	a0, a0, 0x1
   1274e: 11 06        	addi	a2, a2, 0x4
   12750: a1 06        	addi	a3, a3, 0x8
   12752: a1 08        	addi	a7, a7, 0x8
   12754: e3 57 a3 fc  	bge	t1, a0, 0x12722 <__kernel_rem_pio2+0x288>
   12758: 9a 8b        	mv	s7, t1
   1275a: bd bd        	j	0x125d8 <__kernel_rem_pio2+0x13e>
   1275c: 63 11 0c 24  	bnez	s8, 0x1299e <__kernel_rem_pio2+0x504>
   12760: 9b 87 fb ff  	addiw	a5, s7, -0x1
   12764: 8a 07        	slli	a5, a5, 0x2
   12766: 93 87 07 23  	addi	a5, a5, 0x230
   1276a: 18 10        	addi	a4, sp, 0x20
   1276c: ba 97        	add	a5, a5, a4
   1276e: 83 a8 07 dd  	lw	a7, -0x230(a5)
   12772: 93 d8 78 41  	srai	a7, a7, 0x17
   12776: e3 5f 10 f1  	blez	a7, 0x12694 <__kernel_rem_pio2+0x1fa>
   1277a: 9b 0c 16 00  	addiw	s9, a2, 0x1
   1277e: 63 54 70 41  	blez	s7, 0x12b86 <__kernel_rem_pio2+0x6ec>
   12782: 02 56        	lw	a2, 0x20(sp)
   12784: 1c 10        	addi	a5, sp, 0x20
   12786: 01 47        	li	a4, 0x0
   12788: 63 05 06 20  	beqz	a2, 0x12992 <__kernel_rem_pio2+0x4f8>
   1278c: 37 05 00 01  	lui	a0, 0x1000
   12790: 3b 06 c5 40  	subw	a2, a0, a2
   12794: 90 c3        	sw	a2, 0x0(a5)
   12796: 7d 35        	addiw	a0, a0, -0x1
   12798: 29 a0        	j	0x127a2 <__kernel_rem_pio2+0x308>
   1279a: 90 43        	lw	a2, 0x0(a5)
   1279c: 3b 06 c5 40  	subw	a2, a0, a2
   127a0: 90 c3        	sw	a2, 0x0(a5)
   127a2: 05 27        	addiw	a4, a4, 0x1
   127a4: 91 07        	addi	a5, a5, 0x4
   127a6: e3 4a 77 ff  	blt	a4, s7, 0x1279a <__kernel_rem_pio2+0x300>
   127aa: 05 46        	li	a2, 0x1
   127ac: 63 55 80 03  	blez	s8, 0x127d6 <__kernel_rem_pio2+0x33c>
   127b0: 85 47        	li	a5, 0x1
   127b2: 63 0c fc 20  	beq	s8, a5, 0x129ca <__kernel_rem_pio2+0x530>
   127b6: 89 47        	li	a5, 0x2
   127b8: 63 1f fc 00  	bne	s8, a5, 0x127d6 <__kernel_rem_pio2+0x33c>
   127bc: 9b 87 fb ff  	addiw	a5, s7, -0x1
   127c0: 8a 07        	slli	a5, a5, 0x2
   127c2: 18 10        	addi	a4, sp, 0x20
   127c4: 93 87 07 23  	addi	a5, a5, 0x230
   127c8: ba 97        	add	a5, a5, a4
   127ca: 03 a7 07 dd  	lw	a4, -0x230(a5)
   127ce: 2a 17        	slli	a4, a4, 0x2a
   127d0: 29 93        	srli	a4, a4, 0x2a
   127d2: 23 a8 e7 dc  	sw	a4, -0x230(a5)
   127d6: 89 47        	li	a5, 0x2
   127d8: e3 9e f8 ea  	bne	a7, a5, 0x12694 <__kernel_rem_pio2+0x1fa>
   127dc: 07 b5 81 dd  	fld	fa0, -0x228(gp)
   127e0: d3 7a 55 0b  	fsub.d	fs5, fa0, fs5
   127e4: e3 08 06 ea  	beqz	a2, 0x12694 <__kernel_rem_pio2+0x1fa>
   127e8: 62 85        	mv	a0, s8
   127ea: 46 ec        	sd	a7, 0x18(sp)
   127ec: ef f0 3f ad  	jal	0x122be <scalbn>
   127f0: d3 fa aa 0a  	fsub.d	fs5, fs5, fa0
   127f4: 53 07 00 f2  	fmv.d.x	fa4, zero
   127f8: e2 68        	ld	a7, 0x18(sp)
   127fa: d3 a7 ea a2  	feq.d	a5, fs5, fa4
   127fe: e3 91 07 ea  	bnez	a5, 0x126a0 <__kernel_rem_pio2+0x206>
   12802: c2 44        	lw	s1, 0x10(sp)
   12804: 53 85 5a 23  	fmv.d	fa0, fs5
   12808: 46 ec        	sd	a7, 0x18(sp)
   1280a: 3b 05 90 40  	negw	a0, s1
   1280e: ef f0 1f ab  	jal	0x122be <scalbn>
   12812: 87 b6 81 06  	fld	fa3, 0x68(gp)
   12816: e2 68        	ld	a7, 0x18(sp)
   12818: d3 87 a6 a2  	fle.d	a5, fa3, fa0
   1281c: 63 85 07 30  	beqz	a5, 0x12b26 <__kernel_rem_pio2+0x68c>
   12820: 07 b7 81 0a  	fld	fa4, 0xa8(gp)
   12824: 13 97 2b 00  	slli	a4, s7, 0x2
   12828: 93 07 07 23  	addi	a5, a4, 0x230
   1282c: 53 77 e5 12  	fmul.d	fa4, fa0, fa4
   12830: 1b 84 1b 00  	addiw	s0, s7, 0x1
   12834: 18 10        	addi	a4, sp, 0x20
   12836: 3e 97        	add	a4, a4, a5
   12838: 93 17 24 00  	slli	a5, s0, 0x2
   1283c: 14 10        	addi	a3, sp, 0x20
   1283e: 93 87 07 23  	addi	a5, a5, 0x230
   12842: b6 97        	add	a5, a5, a3
   12844: d3 16 07 c2  	fcvt.w.d	a3, fa4, rtz
   12848: 1b 8c 84 01  	addiw	s8, s1, 0x18
   1284c: 53 87 06 d2  	fcvt.d.w	fa4, a3
   12850: cb 77 d7 52  	fnmsub.d	fa5, fa4, fa3, fa0
   12854: 53 96 07 c2  	fcvt.w.d	a2, fa5, rtz
   12858: 23 28 c7 dc  	sw	a2, -0x230(a4)
   1285c: 23 a8 d7 dc  	sw	a3, -0x230(a5)
   12860: 07 b5 81 dd  	fld	fa0, -0x228(gp)
   12864: 62 85        	mv	a0, s8
   12866: 46 e8        	sd	a7, 0x10(sp)
   12868: ef f0 7f a5  	jal	0x122be <scalbn>
   1286c: 53 07 a5 22  	fmv.d	fa4, fa0
   12870: c2 68        	ld	a7, 0x10(sp)
   12872: 63 4d 04 2e  	bltz	s0, 0x12b6c <__kernel_rem_pio2+0x6d2>
   12876: 18 1b        	addi	a4, sp, 0x1b0
   12878: 87 b6 81 0a  	fld	fa3, 0xa8(gp)
   1287c: 93 16 34 00  	slli	a3, s0, 0x3
   12880: 93 17 24 00  	slli	a5, s0, 0x2
   12884: 33 08 d7 00  	add	a6, a4, a3
   12888: 93 87 07 02  	addi	a5, a5, 0x20
   1288c: 8a 97        	add	a5, a5, sp
   1288e: 9b 0e 04 00  	sext.w	t4, s0
   12892: 6c 08        	addi	a1, sp, 0x1c
   12894: 42 87        	mv	a4, a6
   12896: 90 43        	lw	a2, 0x0(a5)
   12898: 61 17        	addi	a4, a4, -0x8
   1289a: f1 17        	addi	a5, a5, -0x4
   1289c: d3 07 06 d2  	fcvt.d.w	fa5, a2
   128a0: d3 f7 e7 12  	fmul.d	fa5, fa5, fa4
   128a4: 53 77 d7 12  	fmul.d	fa4, fa4, fa3
   128a8: 1c a7        	fsd	fa5, 0x8(a4)
   128aa: e3 96 b7 fe  	bne	a5, a1, 0x12896 <__kernel_rem_pio2+0x3fc>
   128ae: 13 0e 01 11  	addi	t3, sp, 0x110
   128b2: 01 45        	li	a0, 0x0
   128b4: 75 6f        	lui	t5, 0x1d
   128b6: 63 43 0d 04  	bltz	s10, 0x128fc <__kernel_rem_pio2+0x462>
   128ba: 9b 05 05 00  	sext.w	a1, a0
   128be: 63 46 05 1a  	bltz	a0, 0x12a6a <__kernel_rem_pio2+0x5d0>
   128c2: d3 07 00 f2  	fmv.d.x	fa5, zero
   128c6: 13 07 0f f6  	addi	a4, t5, -0xa0
   128ca: 42 86        	mv	a2, a6
   128cc: 81 47        	li	a5, 0x0
   128ce: 21 a0        	j	0x128d6 <__kernel_rem_pio2+0x43c>
   128d0: 21 06        	addi	a2, a2, 0x8
   128d2: 63 ca f5 00  	blt	a1, a5, 0x128e6 <__kernel_rem_pio2+0x44c>
   128d6: 14 23        	fld	fa3, 0x0(a4)
   128d8: 18 22        	fld	fa4, 0x0(a2)
   128da: 85 27        	addiw	a5, a5, 0x1
   128dc: 21 07        	addi	a4, a4, 0x8
   128de: c3 f7 e6 7a  	fmadd.d	fa5, fa3, fa4, fa5
   128e2: e3 57 fd fe  	bge	s10, a5, 0x128d0 <__kernel_rem_pio2+0x436>
   128e6: 27 30 fe 00  	fsd	fa5, 0x0(t3)
   128ea: 9b 07 15 00  	addiw	a5, a0, 0x1
   128ee: 21 0e        	addi	t3, t3, 0x8
   128f0: 61 18        	addi	a6, a6, -0x8
   128f2: 63 0f d5 01  	beq	a0, t4, 0x12910 <__kernel_rem_pio2+0x476>
   128f6: 3e 85        	mv	a0, a5
   128f8: e3 51 0d fc  	bgez	s10, 0x128ba <__kernel_rem_pio2+0x420>
   128fc: d3 07 00 f2  	fmv.d.x	fa5, zero
   12900: 9b 07 15 00  	addiw	a5, a0, 0x1
   12904: 21 0e        	addi	t3, t3, 0x8
   12906: 27 3c fe fe  	fsd	fa5, -0x8(t3)
   1290a: 61 18        	addi	a6, a6, -0x8
   1290c: e3 15 d5 ff  	bne	a0, t4, 0x128f6 <__kernel_rem_pio2+0x45c>
   12910: 22 67        	ld	a4, 0x8(sp)
   12912: 89 47        	li	a5, 0x2
   12914: 63 c3 e7 16  	blt	a5, a4, 0x12a7a <__kernel_rem_pio2+0x5e0>
   12918: 63 46 e0 10  	bgtz	a4, 0x12a24 <__kernel_rem_pio2+0x58a>
   1291c: 05 e3        	bnez	a4, 0x1293c <__kernel_rem_pio2+0x4a2>
   1291e: d3 07 00 f2  	fmv.d.x	fa5, zero
   12922: 1c 0a        	addi	a5, sp, 0x110
   12924: be 96        	add	a3, a3, a5
   12926: e1 17        	addi	a5, a5, -0x8
   12928: 98 22        	fld	fa4, 0x0(a3)
   1292a: e1 16        	addi	a3, a3, -0x8
   1292c: d3 f7 e7 02  	fadd.d	fa5, fa5, fa4
   12930: e3 9c d7 fe  	bne	a5, a3, 0x12928 <__kernel_rem_pio2+0x48e>
   12934: 63 99 08 22  	bnez	a7, 0x12b66 <__kernel_rem_pio2+0x6cc>
   12938: 82 67        	ld	a5, 0x0(sp)
   1293a: 9c a3        	fsd	fa5, 0x0(a5)
   1293c: 83 30 81 2e  	ld	ra, 0x2e8(sp)
   12940: 03 34 01 2e  	ld	s0, 0x2e0(sp)
   12944: 83 34 81 2d  	ld	s1, 0x2d8(sp)
   12948: 03 39 01 2d  	ld	s2, 0x2d0(sp)
   1294c: 83 39 81 2c  	ld	s3, 0x2c8(sp)
   12950: 03 3a 01 2c  	ld	s4, 0x2c0(sp)
   12954: 83 3a 81 2b  	ld	s5, 0x2b8(sp)
   12958: 03 3b 01 2b  	ld	s6, 0x2b0(sp)
   1295c: 83 3b 81 2a  	ld	s7, 0x2a8(sp)
   12960: 03 3c 01 2a  	ld	s8, 0x2a0(sp)
   12964: 03 3d 01 29  	ld	s10, 0x290(sp)
   12968: 83 3d 81 28  	ld	s11, 0x288(sp)
   1296c: 07 34 81 27  	fld	fs0, 0x278(sp)
   12970: 87 34 01 27  	fld	fs1, 0x270(sp)
   12974: 07 39 81 26  	fld	fs2, 0x268(sp)
   12978: 87 39 01 26  	fld	fs3, 0x260(sp)
   1297c: 07 3a 81 25  	fld	fs4, 0x258(sp)
   12980: 87 3a 01 25  	fld	fs5, 0x250(sp)
   12984: 13 f5 7c 00  	andi	a0, s9, 0x7
   12988: 83 3c 81 29  	ld	s9, 0x298(sp)
   1298c: 13 01 01 2f  	addi	sp, sp, 0x2f0
   12990: 82 80        	ret
   12992: 05 27        	addiw	a4, a4, 0x1
   12994: 91 07        	addi	a5, a5, 0x4
   12996: e3 5b 77 e1  	bge	a4, s7, 0x127ac <__kernel_rem_pio2+0x312>
   1299a: 90 43        	lw	a2, 0x0(a5)
   1299c: f5 b3        	j	0x12788 <__kernel_rem_pio2+0x2ee>
   1299e: d3 07 59 a3  	fle.d	a5, fs2, fs5
   129a2: 81 48        	li	a7, 0x0
   129a4: e3 88 07 ce  	beqz	a5, 0x12694 <__kernel_rem_pio2+0x1fa>
   129a8: 9b 0c 16 00  	addiw	s9, a2, 0x1
   129ac: 89 48        	li	a7, 0x2
   129ae: e3 4a 70 dd  	bgtz	s7, 0x12782 <__kernel_rem_pio2+0x2e8>
   129b2: 07 b7 81 dd  	fld	fa4, -0x228(gp)
   129b6: d3 7a 57 0b  	fsub.d	fs5, fa4, fs5
   129ba: e9 b9        	j	0x12694 <__kernel_rem_pio2+0x1fa>
   129bc: 85 2c        	addiw	s9, s9, 0x1
   129be: 01 46        	li	a2, 0x0
   129c0: e3 41 70 dd  	bgtz	s7, 0x12782 <__kernel_rem_pio2+0x2e8>
   129c4: 85 47        	li	a5, 0x1
   129c6: e3 18 fc de  	bne	s8, a5, 0x127b6 <__kernel_rem_pio2+0x31c>
   129ca: 9b 87 fb ff  	addiw	a5, s7, -0x1
   129ce: 8a 07        	slli	a5, a5, 0x2
   129d0: 18 10        	addi	a4, sp, 0x20
   129d2: 93 87 07 23  	addi	a5, a5, 0x230
   129d6: ba 97        	add	a5, a5, a4
   129d8: 03 a7 07 dd  	lw	a4, -0x230(a5)
   129dc: 26 17        	slli	a4, a4, 0x29
   129de: 25 93        	srli	a4, a4, 0x29
   129e0: 23 a8 e7 dc  	sw	a4, -0x230(a5)
   129e4: cd bb        	j	0x127d6 <__kernel_rem_pio2+0x33c>
   129e6: 1b 85 1b 00  	addiw	a0, s7, 0x1
   129ea: 2a 83        	mv	t1, a0
   129ec: 31 b3        	j	0x126f8 <__kernel_rem_pio2+0x25e>
   129ee: 1b 84 fb ff  	addiw	s0, s7, -0x1
   129f2: 93 17 24 00  	slli	a5, s0, 0x2
   129f6: 18 10        	addi	a4, sp, 0x20
   129f8: 93 87 07 23  	addi	a5, a5, 0x230
   129fc: ba 97        	add	a5, a5, a4
   129fe: 83 a7 07 dd  	lw	a5, -0x230(a5)
   12a02: 42 47        	lw	a4, 0x10(sp)
   12a04: 1b 0c 87 fe  	addiw	s8, a4, -0x18
   12a08: e3 9c 07 e4  	bnez	a5, 0x12860 <__kernel_rem_pio2+0x3c6>
   12a0c: 93 07 8e 01  	addi	a5, t3, 0x18
   12a10: 8a 97        	add	a5, a5, sp
   12a12: 98 43        	lw	a4, 0x0(a5)
   12a14: 7d 34        	addiw	s0, s0, -0x1
   12a16: f1 17        	addi	a5, a5, -0x4
   12a18: 21 3c        	addiw	s8, s8, -0x18
   12a1a: 65 df        	beqz	a4, 0x12a12 <__kernel_rem_pio2+0x578>
   12a1c: 91 b5        	j	0x12860 <__kernel_rem_pio2+0x3c6>
   12a1e: a1 57        	li	a5, -0x18
   12a20: 81 44        	li	s1, 0x0
   12a22: 29 b6        	j	0x1252c <__kernel_rem_pio2+0x92>
   12a24: 53 07 00 f2  	fmv.d.x	fa4, zero
   12a28: 1c 0a        	addi	a5, sp, 0x110
   12a2a: be 96        	add	a3, a3, a5
   12a2c: e1 17        	addi	a5, a5, -0x8
   12a2e: 9c 22        	fld	fa5, 0x0(a3)
   12a30: e1 16        	addi	a3, a3, -0x8
   12a32: 53 77 f7 02  	fadd.d	fa4, fa4, fa5
   12a36: e3 9c d7 fe  	bne	a5, a3, 0x12a2e <__kernel_rem_pio2+0x594>
   12a3a: d2 27        	fld	fa5, 0x110(sp)
   12a3c: d3 f7 e7 0a  	fsub.d	fa5, fa5, fa4
   12a40: 63 9a 08 10  	bnez	a7, 0x12b54 <__kernel_rem_pio2+0x6ba>
   12a44: 82 67        	ld	a5, 0x0(sp)
   12a46: 98 a3        	fsd	fa4, 0x0(a5)
   12a48: 11 cc        	beqz	s0, 0x12a64 <__kernel_rem_pio2+0x5ca>
   12a4a: 38 0a        	addi	a4, sp, 0x118
   12a4c: 85 47        	li	a5, 0x1
   12a4e: 18 23        	fld	fa4, 0x0(a4)
   12a50: 85 27        	addiw	a5, a5, 0x1
   12a52: 21 07        	addi	a4, a4, 0x8
   12a54: d3 f7 e7 02  	fadd.d	fa5, fa5, fa4
   12a58: e3 5b f4 fe  	bge	s0, a5, 0x12a4e <__kernel_rem_pio2+0x5b4>
   12a5c: 63 84 08 00  	beqz	a7, 0x12a64 <__kernel_rem_pio2+0x5ca>
   12a60: d3 97 f7 22  	fneg.d	fa5, fa5
   12a64: 82 67        	ld	a5, 0x0(sp)
   12a66: 9c a7        	fsd	fa5, 0x8(a5)
   12a68: d1 bd        	j	0x1293c <__kernel_rem_pio2+0x4a2>
   12a6a: d3 07 00 f2  	fmv.d.x	fa5, zero
   12a6e: 21 0e        	addi	t3, t3, 0x8
   12a70: 05 25        	addiw	a0, a0, 0x1
   12a72: 61 18        	addi	a6, a6, -0x8
   12a74: 27 3c fe fe  	fsd	fa5, -0x8(t3)
   12a78: 89 b5        	j	0x128ba <__kernel_rem_pio2+0x420>
   12a7a: 22 67        	ld	a4, 0x8(sp)
   12a7c: 8d 47        	li	a5, 0x3
   12a7e: e3 1f f7 ea  	bne	a4, a5, 0x1293c <__kernel_rem_pio2+0x4a2>
   12a82: 63 0a 04 10  	beqz	s0, 0x12b96 <__kernel_rem_pio2+0x6fc>
   12a86: 1c 0a        	addi	a5, sp, 0x110
   12a88: 18 0a        	addi	a4, sp, 0x110
   12a8a: 33 86 d7 00  	add	a2, a5, a3
   12a8e: 1b 85 fe ff  	addiw	a0, t4, -0x1
   12a92: 93 87 86 ff  	addi	a5, a3, -0x8
   12a96: ba 97        	add	a5, a5, a4
   12a98: 93 05 07 ff  	addi	a1, a4, -0x10
   12a9c: 18 22        	fld	fa4, 0x0(a2)
   12a9e: 13 17 05 02  	slli	a4, a0, 0x20
   12aa2: 13 55 d7 01  	srli	a0, a4, 0x1d
   12aa6: b6 95        	add	a1, a1, a3
   12aa8: 33 85 a5 40  	sub	a0, a1, a0
   12aac: 3e 87        	mv	a4, a5
   12aae: 1c 23        	fld	fa5, 0x0(a4)
   12ab0: d3 06 e7 22  	fmv.d	fa3, fa4
   12ab4: 61 17        	addi	a4, a4, -0x8
   12ab6: 53 77 f7 02  	fadd.d	fa4, fa4, fa5
   12aba: d3 f7 e7 0a  	fsub.d	fa5, fa5, fa4
   12abe: 18 a7        	fsd	fa4, 0x8(a4)
   12ac0: d3 f7 d7 02  	fadd.d	fa5, fa5, fa3
   12ac4: 1c ab        	fsd	fa5, 0x10(a4)
   12ac6: e3 14 a7 fe  	bne	a4, a0, 0x12aae <__kernel_rem_pio2+0x614>
   12aca: 05 47        	li	a4, 0x1
   12acc: 63 05 e4 0c  	beq	s0, a4, 0x12b96 <__kernel_rem_pio2+0x6fc>
   12ad0: 1b 87 ee ff  	addiw	a4, t4, -0x2
   12ad4: 13 15 07 02  	slli	a0, a4, 0x20
   12ad8: 18 22        	fld	fa4, 0x0(a2)
   12ada: 13 57 d5 01  	srli	a4, a0, 0x1d
   12ade: 99 8d        	sub	a1, a1, a4
   12ae0: 9c 23        	fld	fa5, 0x0(a5)
   12ae2: d3 06 e7 22  	fmv.d	fa3, fa4
   12ae6: e1 17        	addi	a5, a5, -0x8
   12ae8: 53 77 f7 02  	fadd.d	fa4, fa4, fa5
   12aec: d3 f7 e7 0a  	fsub.d	fa5, fa5, fa4
   12af0: 98 a7        	fsd	fa4, 0x8(a5)
   12af2: d3 f7 d7 02  	fadd.d	fa5, fa5, fa3
   12af6: 9c ab        	fsd	fa5, 0x10(a5)
   12af8: e3 94 b7 fe  	bne	a5, a1, 0x12ae0 <__kernel_rem_pio2+0x646>
   12afc: 3c 02        	addi	a5, sp, 0x108
   12afe: d3 07 00 f2  	fmv.d.x	fa5, zero
   12b02: b6 97        	add	a5, a5, a3
   12b04: 99 8f        	sub	a5, a5, a4
   12b06: b2 86        	mv	a3, a2
   12b08: 98 22        	fld	fa4, 0x0(a3)
   12b0a: e1 16        	addi	a3, a3, -0x8
   12b0c: d3 f7 e7 02  	fadd.d	fa5, fa5, fa4
   12b10: e3 9c d7 fe  	bne	a5, a3, 0x12b08 <__kernel_rem_pio2+0x66e>
   12b14: d2 26        	fld	fa3, 0x110(sp)
   12b16: 72 27        	fld	fa4, 0x118(sp)
   12b18: 63 93 08 02  	bnez	a7, 0x12b3e <__kernel_rem_pio2+0x6a4>
   12b1c: 82 67        	ld	a5, 0x0(sp)
   12b1e: 94 a3        	fsd	fa3, 0x0(a5)
   12b20: 98 a7        	fsd	fa4, 0x8(a5)
   12b22: 9c ab        	fsd	fa5, 0x10(a5)
   12b24: 21 bd        	j	0x1293c <__kernel_rem_pio2+0x4a2>
   12b26: 53 17 05 c2  	fcvt.w.d	a4, fa0, rtz
   12b2a: 93 97 2b 00  	slli	a5, s7, 0x2
   12b2e: 93 87 07 23  	addi	a5, a5, 0x230
   12b32: 14 10        	addi	a3, sp, 0x20
   12b34: b6 97        	add	a5, a5, a3
   12b36: 23 a8 e7 dc  	sw	a4, -0x230(a5)
   12b3a: 5e 84        	mv	s0, s7
   12b3c: 15 b3        	j	0x12860 <__kernel_rem_pio2+0x3c6>
   12b3e: 82 67        	ld	a5, 0x0(sp)
   12b40: d3 96 d6 22  	fneg.d	fa3, fa3
   12b44: 53 17 e7 22  	fneg.d	fa4, fa4
   12b48: d3 97 f7 22  	fneg.d	fa5, fa5
   12b4c: 94 a3        	fsd	fa3, 0x0(a5)
   12b4e: 98 a7        	fsd	fa4, 0x8(a5)
   12b50: 9c ab        	fsd	fa5, 0x10(a5)
   12b52: ed b3        	j	0x1293c <__kernel_rem_pio2+0x4a2>
   12b54: 53 17 e7 22  	fneg.d	fa4, fa4
   12b58: 82 67        	ld	a5, 0x0(sp)
   12b5a: 98 a3        	fsd	fa4, 0x0(a5)
   12b5c: e3 17 04 ee  	bnez	s0, 0x12a4a <__kernel_rem_pio2+0x5b0>
   12b60: d3 97 f7 22  	fneg.d	fa5, fa5
   12b64: 01 b7        	j	0x12a64 <__kernel_rem_pio2+0x5ca>
   12b66: d3 97 f7 22  	fneg.d	fa5, fa5
   12b6a: f9 b3        	j	0x12938 <__kernel_rem_pio2+0x49e>
   12b6c: 22 67        	ld	a4, 0x8(sp)
   12b6e: 89 47        	li	a5, 0x2
   12b70: 63 cf e7 00  	blt	a5, a4, 0x12b8e <__kernel_rem_pio2+0x6f4>
   12b74: 63 44 e0 02  	bgtz	a4, 0x12b9c <__kernel_rem_pio2+0x702>
   12b78: d3 07 00 f2  	fmv.d.x	fa5, zero
   12b7c: e3 10 07 dc  	bnez	a4, 0x1293c <__kernel_rem_pio2+0x4a2>
   12b80: e3 8c 08 da  	beqz	a7, 0x12938 <__kernel_rem_pio2+0x49e>
   12b84: cd b7        	j	0x12b66 <__kernel_rem_pio2+0x6cc>
   12b86: 89 47        	li	a5, 0x2
   12b88: e3 96 f8 b0  	bne	a7, a5, 0x12694 <__kernel_rem_pio2+0x1fa>
   12b8c: 1d b5        	j	0x129b2 <__kernel_rem_pio2+0x518>
   12b8e: 22 67        	ld	a4, 0x8(sp)
   12b90: 8d 47        	li	a5, 0x3
   12b92: e3 15 f7 da  	bne	a4, a5, 0x1293c <__kernel_rem_pio2+0x4a2>
   12b96: d3 07 00 f2  	fmv.d.x	fa5, zero
   12b9a: ad bf        	j	0x12b14 <__kernel_rem_pio2+0x67a>
   12b9c: d2 27        	fld	fa5, 0x110(sp)
   12b9e: 63 97 08 00  	bnez	a7, 0x12bac <__kernel_rem_pio2+0x712>
   12ba2: 53 07 00 f2  	fmv.d.x	fa4, zero
   12ba6: 82 67        	ld	a5, 0x0(sp)
   12ba8: 98 a3        	fsd	fa4, 0x0(a5)
   12baa: 6d bd        	j	0x12a64 <__kernel_rem_pio2+0x5ca>
   12bac: 07 b7 01 0c  	fld	fa4, 0xc0(gp)
   12bb0: 82 67        	ld	a5, 0x0(sp)
   12bb2: d3 97 f7 22  	fneg.d	fa5, fa5
   12bb6: 98 a3        	fsd	fa4, 0x0(a5)
   12bb8: 75 b5        	j	0x12a64 <__kernel_rem_pio2+0x5ca>

0000000000012bba <floor>:
   12bba: d3 07 05 e2  	fmv.x.d	a5, fa0
   12bbe: 4d 45        	li	a0, 0x13
   12bc0: 93 d6 47 43  	srai	a3, a5, 0x34
   12bc4: 93 f6 f6 7f  	andi	a3, a3, 0x7ff
   12bc8: 1b 86 16 c0  	addiw	a2, a3, -0x3ff
   12bcc: 13 d8 07 42  	srai	a6, a5, 0x20
   12bd0: b2 85        	mv	a1, a2
   12bd2: c2 88        	mv	a7, a6
   12bd4: 1b 87 07 00  	sext.w	a4, a5
   12bd8: 63 4e c5 06  	blt	a0, a2, 0x12c54 <floor+0x9a>
   12bdc: 63 4e 06 04  	bltz	a2, 0x12c38 <floor+0x7e>
   12be0: 37 03 10 00  	lui	t1, 0x100
   12be4: 1b 05 f3 ff  	addiw	a0, t1, -0x1
   12be8: 3b 55 c5 40  	sraw	a0, a0, a2
   12bec: b3 75 a8 00  	and	a1, a6, a0
   12bf0: d9 8d        	or	a1, a1, a4
   12bf2: 81 25        	sext.w	a1, a1
   12bf4: d3 06 05 e2  	fmv.x.d	a3, fa0
   12bf8: 8d cd        	beqz	a1, 0x12c32 <floor+0x78>
   12bfa: 87 b7 01 df  	fld	fa5, -0x210(gp)
   12bfe: 53 07 00 f2  	fmv.d.x	fa4, zero
   12c02: d3 77 f5 02  	fadd.d	fa5, fa0, fa5
   12c06: d3 17 f7 a2  	flt.d	a5, fa4, fa5
   12c0a: 91 cf        	beqz	a5, 0x12c26 <floor+0x6c>
   12c0c: 63 56 08 00  	bgez	a6, 0x12c18 <floor+0x5e>
   12c10: 3b 53 c3 40  	sraw	t1, t1, a2
   12c14: bb 08 03 01  	addw	a7, t1, a6
   12c18: 13 45 f5 ff  	not	a0, a0
   12c1c: 33 75 15 01  	and	a0, a0, a7
   12c20: 1b 08 05 00  	sext.w	a6, a0
   12c24: 01 47        	li	a4, 0x0
   12c26: 02 17        	slli	a4, a4, 0x20
   12c28: 93 17 08 02  	slli	a5, a6, 0x20
   12c2c: 01 93        	srli	a4, a4, 0x20
   12c2e: b3 66 f7 00  	or	a3, a4, a5
   12c32: 53 85 06 f2  	fmv.d.x	fa0, a3
   12c36: 82 80        	ret
   12c38: 87 b7 01 df  	fld	fa5, -0x210(gp)
   12c3c: 53 07 00 f2  	fmv.d.x	fa4, zero
   12c40: d3 77 f5 02  	fadd.d	fa5, fa0, fa5
   12c44: d3 17 f7 a2  	flt.d	a5, fa4, fa5
   12c48: f9 df        	beqz	a5, 0x12c26 <floor+0x6c>
   12c4a: 63 43 08 06  	bltz	a6, 0x12cb0 <floor+0xf6>
   12c4e: 01 47        	li	a4, 0x0
   12c50: 01 48        	li	a6, 0x0
   12c52: d1 bf        	j	0x12c26 <floor+0x6c>
   12c54: 13 05 30 03  	li	a0, 0x33
   12c58: 63 5d c5 00  	bge	a0, a2, 0x12c72 <floor+0xb8>
   12c5c: 13 07 00 40  	li	a4, 0x400
   12c60: d3 06 05 e2  	fmv.x.d	a3, fa0
   12c64: e3 17 e6 fc  	bne	a2, a4, 0x12c32 <floor+0x78>
   12c68: d3 77 a5 02  	fadd.d	fa5, fa0, fa0
   12c6c: d3 86 07 e2  	fmv.x.d	a3, fa5
   12c70: c9 b7        	j	0x12c32 <floor+0x78>
   12c72: 9b 86 d6 be  	addiw	a3, a3, -0x413
   12c76: 7d 55        	li	a0, -0x1
   12c78: 3b 55 d5 00  	srlw	a0, a0, a3
   12c7c: 33 73 a7 00  	and	t1, a4, a0
   12c80: 01 23        	sext.w	t1, t1
   12c82: d3 06 05 e2  	fmv.x.d	a3, fa0
   12c86: e3 06 03 fa  	beqz	t1, 0x12c32 <floor+0x78>
   12c8a: 87 b7 01 df  	fld	fa5, -0x210(gp)
   12c8e: 53 07 00 f2  	fmv.d.x	fa4, zero
   12c92: d3 77 f5 02  	fadd.d	fa5, fa0, fa5
   12c96: d3 17 f7 a2  	flt.d	a5, fa4, fa5
   12c9a: d1 d7        	beqz	a5, 0x12c26 <floor+0x6c>
   12c9c: 9b 07 07 00  	sext.w	a5, a4
   12ca0: 63 43 08 02  	bltz	a6, 0x12cc6 <floor+0x10c>
   12ca4: 13 45 f5 ff  	not	a0, a0
   12ca8: 7d 8d        	and	a0, a0, a5
   12caa: 1b 07 05 00  	sext.w	a4, a0
   12cae: a5 bf        	j	0x12c26 <floor+0x6c>
   12cb0: 93 17 18 02  	slli	a5, a6, 0x21
   12cb4: 85 93        	srli	a5, a5, 0x21
   12cb6: 5d 8f        	or	a4, a4, a5
   12cb8: 37 08 00 80  	lui	a6, 0x80000
   12cbc: 2d d7        	beqz	a4, 0x12c26 <floor+0x6c>
   12cbe: 01 47        	li	a4, 0x0
   12cc0: 37 08 f0 bf  	lui	a6, 0xbff00
   12cc4: 8d b7        	j	0x12c26 <floor+0x6c>
   12cc6: d1 46        	li	a3, 0x14
   12cc8: 63 0b d6 00  	beq	a2, a3, 0x12cde <floor+0x124>
   12ccc: 13 06 40 03  	li	a2, 0x34
   12cd0: 0d 9e        	subw	a2, a2, a1
   12cd2: 85 46        	li	a3, 0x1
   12cd4: bb 96 c6 00  	sllw	a3, a3, a2
   12cd8: b5 9f        	addw	a5, a5, a3
   12cda: e3 f5 e7 fc  	bgeu	a5, a4, 0x12ca4 <floor+0xea>
   12cde: 1b 88 18 00  	addiw	a6, a7, 0x1
   12ce2: c9 b7        	j	0x12ca4 <floor+0xea>

0000000000012ce4 <__fp_lock>:
   12ce4: 01 45        	li	a0, 0x0
   12ce6: 82 80        	ret

0000000000012ce8 <stdio_exit_handler>:
   12ce8: 37 f6 01 00  	lui	a2, 0x1f
   12cec: dd 65        	lui	a1, 0x17
   12cee: 37 f5 01 00  	lui	a0, 0x1f
   12cf2: 13 06 06 85  	addi	a2, a2, -0x7b0
   12cf6: 93 85 05 8e  	addi	a1, a1, -0x720
   12cfa: 13 05 85 86  	addi	a0, a0, -0x798
   12cfe: b9 ac        	j	0x12f5c <_fwalk_sglue>

0000000000012d00 <cleanup_stdio>:
   12d00: 0c 65        	ld	a1, 0x8(a0)
   12d02: 41 11        	addi	sp, sp, -0x10
   12d04: 22 e0        	sd	s0, 0x0(sp)
   12d06: 06 e4        	sd	ra, 0x8(sp)
   12d08: 93 87 01 2b  	addi	a5, gp, 0x2b0
   12d0c: 2a 84        	mv	s0, a0
   12d0e: 63 84 f5 00  	beq	a1, a5, 0x12d16 <cleanup_stdio+0x16>
   12d12: ef 30 f0 3c  	jal	0x168e0 <_fclose_r>
   12d16: 0c 68        	ld	a1, 0x10(s0)
   12d18: 93 87 01 36  	addi	a5, gp, 0x360
   12d1c: 63 85 f5 00  	beq	a1, a5, 0x12d26 <cleanup_stdio+0x26>
   12d20: 22 85        	mv	a0, s0
   12d22: ef 30 f0 3b  	jal	0x168e0 <_fclose_r>
   12d26: 0c 6c        	ld	a1, 0x18(s0)
   12d28: 93 87 01 41  	addi	a5, gp, 0x410
   12d2c: 63 88 f5 00  	beq	a1, a5, 0x12d3c <cleanup_stdio+0x3c>
   12d30: 22 85        	mv	a0, s0
   12d32: 02 64        	ld	s0, 0x0(sp)
   12d34: a2 60        	ld	ra, 0x8(sp)
   12d36: 41 01        	addi	sp, sp, 0x10
   12d38: 6f 30 90 3a  	j	0x168e0 <_fclose_r>
   12d3c: a2 60        	ld	ra, 0x8(sp)
   12d3e: 02 64        	ld	s0, 0x0(sp)
   12d40: 41 01        	addi	sp, sp, 0x10
   12d42: 82 80        	ret

0000000000012d44 <__fp_unlock>:
   12d44: 01 45        	li	a0, 0x0
   12d46: 82 80        	ret

0000000000012d48 <global_stdio_init.part.0>:
   12d48: 79 71        	addi	sp, sp, -0x30
   12d4a: cd 67        	lui	a5, 0x13
   12d4c: 22 f0        	sd	s0, 0x20(sp)
   12d4e: 93 87 87 ce  	addi	a5, a5, -0x318
   12d52: 13 84 01 2b  	addi	s0, gp, 0x2b0
   12d56: 06 f4        	sd	ra, 0x28(sp)
   12d58: 26 ec        	sd	s1, 0x18(sp)
   12d5a: 4a e8        	sd	s2, 0x10(sp)
   12d5c: 4e e4        	sd	s3, 0x8(sp)
   12d5e: 52 e0        	sd	s4, 0x0(sp)
   12d60: 23 bc f1 22  	sd	a5, 0x238(gp)
   12d64: 21 46        	li	a2, 0x8
   12d66: 91 47        	li	a5, 0x4
   12d68: 81 45        	li	a1, 0x0
   12d6a: 13 85 41 35  	addi	a0, gp, 0x354
   12d6e: 1c c8        	sw	a5, 0x10(s0)
   12d70: 23 30 04 00  	sd	zero, 0x0(s0)
   12d74: 23 34 04 00  	sd	zero, 0x8(s0)
   12d78: 23 26 04 0a  	sw	zero, 0xac(s0)
   12d7c: 23 3c 04 00  	sd	zero, 0x18(s0)
   12d80: 23 20 04 02  	sw	zero, 0x20(s0)
   12d84: 23 24 04 02  	sw	zero, 0x28(s0)
   12d88: ef 00 80 5e  	jal	0x13370 <memset>
   12d8c: c1 67        	lui	a5, 0x10
   12d8e: 4d 6a        	lui	s4, 0x13
   12d90: cd 69        	lui	s3, 0x13
   12d92: 4d 69        	lui	s2, 0x13
   12d94: cd 64        	lui	s1, 0x13
   12d96: 13 0a 4a 0b  	addi	s4, s4, 0xb4
   12d9a: 93 89 09 0f  	addi	s3, s3, 0xf0
   12d9e: 13 09 29 14  	addi	s2, s2, 0x142
   12da2: 93 84 44 19  	addi	s1, s1, 0x194
   12da6: a5 07        	addi	a5, a5, 0x9
   12da8: 21 46        	li	a2, 0x8
   12daa: 81 45        	li	a1, 0x0
   12dac: 13 85 41 40  	addi	a0, gp, 0x404
   12db0: 23 3c 44 03  	sd	s4, 0x38(s0)
   12db4: 23 30 34 05  	sd	s3, 0x40(s0)
   12db8: 23 34 24 05  	sd	s2, 0x48(s0)
   12dbc: 24 e8        	sd	s1, 0x50(s0)
   12dbe: 23 20 f4 0c  	sw	a5, 0xc0(s0)
   12dc2: 00 f8        	sd	s0, 0x30(s0)
   12dc4: 23 38 04 0a  	sd	zero, 0xb0(s0)
   12dc8: 23 3c 04 0a  	sd	zero, 0xb8(s0)
   12dcc: 23 2e 04 14  	sw	zero, 0x15c(s0)
   12dd0: 23 34 04 0c  	sd	zero, 0xc8(s0)
   12dd4: 23 28 04 0c  	sw	zero, 0xd0(s0)
   12dd8: 23 2c 04 0c  	sw	zero, 0xd8(s0)
   12ddc: ef 00 40 59  	jal	0x13370 <memset>
   12de0: b7 07 02 00  	lui	a5, 0x20
   12de4: c9 07        	addi	a5, a5, 0x12
   12de6: 13 87 01 36  	addi	a4, gp, 0x360
   12dea: 21 46        	li	a2, 0x8
   12dec: 81 45        	li	a1, 0x0
   12dee: 13 85 41 4b  	addi	a0, gp, 0x4b4
   12df2: 23 34 44 0f  	sd	s4, 0xe8(s0)
   12df6: 23 38 34 0f  	sd	s3, 0xf0(s0)
   12dfa: 23 3c 24 0f  	sd	s2, 0xf8(s0)
   12dfe: 23 30 94 10  	sd	s1, 0x100(s0)
   12e02: 23 28 f4 16  	sw	a5, 0x170(s0)
   12e06: 78 f0        	sd	a4, 0xe0(s0)
   12e08: 23 30 04 16  	sd	zero, 0x160(s0)
   12e0c: 23 34 04 16  	sd	zero, 0x168(s0)
   12e10: 23 26 04 20  	sw	zero, 0x20c(s0)
   12e14: 23 3c 04 16  	sd	zero, 0x178(s0)
   12e18: 23 20 04 18  	sw	zero, 0x180(s0)
   12e1c: 23 24 04 18  	sw	zero, 0x188(s0)
   12e20: ef 00 00 55  	jal	0x13370 <memset>
   12e24: 93 87 01 41  	addi	a5, gp, 0x410
   12e28: 23 3c 44 19  	sd	s4, 0x198(s0)
   12e2c: 23 30 34 1b  	sd	s3, 0x1a0(s0)
   12e30: 23 34 24 1b  	sd	s2, 0x1a8(s0)
   12e34: 23 38 94 1a  	sd	s1, 0x1b0(s0)
   12e38: a2 70        	ld	ra, 0x28(sp)
   12e3a: 23 38 f4 18  	sd	a5, 0x190(s0)
   12e3e: 02 74        	ld	s0, 0x20(sp)
   12e40: e2 64        	ld	s1, 0x18(sp)
   12e42: 42 69        	ld	s2, 0x10(sp)
   12e44: a2 69        	ld	s3, 0x8(sp)
   12e46: 02 6a        	ld	s4, 0x0(sp)
   12e48: 45 61        	addi	sp, sp, 0x30
   12e4a: 82 80        	ret

0000000000012e4c <__sfp>:
   12e4c: 83 b7 81 23  	ld	a5, 0x238(gp)
   12e50: 79 71        	addi	sp, sp, -0x30
   12e52: 4a e8        	sd	s2, 0x10(sp)
   12e54: 06 f4        	sd	ra, 0x28(sp)
   12e56: 22 f0        	sd	s0, 0x20(sp)
   12e58: 26 ec        	sd	s1, 0x18(sp)
   12e5a: 4e e4        	sd	s3, 0x8(sp)
   12e5c: 2a 89        	mv	s2, a0
   12e5e: d5 c7        	beqz	a5, 0x12f0a <__sfp+0xbe>
   12e60: b7 f4 01 00  	lui	s1, 0x1f
   12e64: 93 84 04 85  	addi	s1, s1, -0x7b0
   12e68: 93 09 00 0b  	li	s3, 0xb0
   12e6c: 98 44        	lw	a4, 0x8(s1)
   12e6e: 80 68        	ld	s0, 0x10(s1)
   12e70: 63 54 e0 06  	blez	a4, 0x12ed8 <__sfp+0x8c>
   12e74: 02 17        	slli	a4, a4, 0x20
   12e76: 01 93        	srli	a4, a4, 0x20
   12e78: 33 07 37 03  	mul	a4, a4, s3
   12e7c: 22 97        	add	a4, a4, s0
   12e7e: 29 a0        	j	0x12e88 <__sfp+0x3c>
   12e80: 13 04 04 0b  	addi	s0, s0, 0xb0
   12e84: 63 0a 87 04  	beq	a4, s0, 0x12ed8 <__sfp+0x8c>
   12e88: 83 17 04 01  	lh	a5, 0x10(s0)
   12e8c: f5 fb        	bnez	a5, 0x12e80 <__sfp+0x34>
   12e8e: c1 77        	lui	a5, 0xffff0
   12e90: 85 07        	addi	a5, a5, 0x1
   12e92: 1c c8        	sw	a5, 0x10(s0)
   12e94: 23 26 04 0a  	sw	zero, 0xac(s0)
   12e98: 23 30 04 00  	sd	zero, 0x0(s0)
   12e9c: 23 34 04 00  	sd	zero, 0x8(s0)
   12ea0: 23 3c 04 00  	sd	zero, 0x18(s0)
   12ea4: 23 20 04 02  	sw	zero, 0x20(s0)
   12ea8: 23 24 04 02  	sw	zero, 0x28(s0)
   12eac: 21 46        	li	a2, 0x8
   12eae: 81 45        	li	a1, 0x0
   12eb0: 13 05 44 0a  	addi	a0, s0, 0xa4
   12eb4: ef 00 c0 4b  	jal	0x13370 <memset>
   12eb8: 23 3c 04 04  	sd	zero, 0x58(s0)
   12ebc: 23 20 04 06  	sw	zero, 0x60(s0)
   12ec0: 23 3c 04 06  	sd	zero, 0x78(s0)
   12ec4: 23 20 04 08  	sw	zero, 0x80(s0)
   12ec8: a2 70        	ld	ra, 0x28(sp)
   12eca: 22 85        	mv	a0, s0
   12ecc: 02 74        	ld	s0, 0x20(sp)
   12ece: e2 64        	ld	s1, 0x18(sp)
   12ed0: 42 69        	ld	s2, 0x10(sp)
   12ed2: a2 69        	ld	s3, 0x8(sp)
   12ed4: 45 61        	addi	sp, sp, 0x30
   12ed6: 82 80        	ret
   12ed8: 80 60        	ld	s0, 0x0(s1)
   12eda: 19 c0        	beqz	s0, 0x12ee0 <__sfp+0x94>
   12edc: a2 84        	mv	s1, s0
   12ede: 79 b7        	j	0x12e6c <__sfp+0x20>
   12ee0: 93 05 80 2d  	li	a1, 0x2d8
   12ee4: 4a 85        	mv	a0, s2
   12ee6: ef 00 f0 1c  	jal	0x138b4 <_malloc_r>
   12eea: 2a 84        	mv	s0, a0
   12eec: 15 c1        	beqz	a0, 0x12f10 <__sfp+0xc4>
   12eee: 61 05        	addi	a0, a0, 0x18
   12ef0: 91 47        	li	a5, 0x4
   12ef2: 23 30 04 00  	sd	zero, 0x0(s0)
   12ef6: 1c c4        	sw	a5, 0x8(s0)
   12ef8: 08 e8        	sd	a0, 0x10(s0)
   12efa: 13 06 00 2c  	li	a2, 0x2c0
   12efe: 81 45        	li	a1, 0x0
   12f00: ef 00 00 47  	jal	0x13370 <memset>
   12f04: 80 e0        	sd	s0, 0x0(s1)
   12f06: a2 84        	mv	s1, s0
   12f08: 95 b7        	j	0x12e6c <__sfp+0x20>
   12f0a: ef f0 ff e3  	jal	0x12d48 <global_stdio_init.part.0>
   12f0e: 89 bf        	j	0x12e60 <__sfp+0x14>
   12f10: 23 b0 04 00  	sd	zero, 0x0(s1)
   12f14: b1 47        	li	a5, 0xc
   12f16: 23 20 f9 00  	sw	a5, 0x0(s2)
   12f1a: 7d b7        	j	0x12ec8 <__sfp+0x7c>

0000000000012f1c <__sinit>:
   12f1c: 3c 65        	ld	a5, 0x48(a0)
   12f1e: 91 c3        	beqz	a5, 0x12f22 <__sinit+0x6>
   12f20: 82 80        	ret
   12f22: 03 b7 81 23  	ld	a4, 0x238(gp)
   12f26: cd 67        	lui	a5, 0x13
   12f28: 93 87 07 d0  	addi	a5, a5, -0x300
   12f2c: 3c e5        	sd	a5, 0x48(a0)
   12f2e: 6d fb        	bnez	a4, 0x12f20 <__sinit+0x4>
   12f30: 6f f0 9f e1  	j	0x12d48 <global_stdio_init.part.0>

0000000000012f34 <__sfp_lock_acquire>:
   12f34: 82 80        	ret

0000000000012f36 <__sfp_lock_release>:
   12f36: 82 80        	ret

0000000000012f38 <__fp_lock_all>:
   12f38: 37 f6 01 00  	lui	a2, 0x1f
   12f3c: cd 65        	lui	a1, 0x13
   12f3e: 13 06 06 85  	addi	a2, a2, -0x7b0
   12f42: 93 85 45 ce  	addi	a1, a1, -0x31c
   12f46: 01 45        	li	a0, 0x0
   12f48: 11 a8        	j	0x12f5c <_fwalk_sglue>

0000000000012f4a <__fp_unlock_all>:
   12f4a: 37 f6 01 00  	lui	a2, 0x1f
   12f4e: cd 65        	lui	a1, 0x13
   12f50: 13 06 06 85  	addi	a2, a2, -0x7b0
   12f54: 93 85 45 d4  	addi	a1, a1, -0x2bc
   12f58: 01 45        	li	a0, 0x0
   12f5a: 09 a0        	j	0x12f5c <_fwalk_sglue>

0000000000012f5c <_fwalk_sglue>:
   12f5c: 5d 71        	addi	sp, sp, -0x50
   12f5e: 4a f8        	sd	s2, 0x30(sp)
   12f60: 4e f4        	sd	s3, 0x28(sp)
   12f62: 52 f0        	sd	s4, 0x20(sp)
   12f64: 56 ec        	sd	s5, 0x18(sp)
   12f66: 5a e8        	sd	s6, 0x10(sp)
   12f68: 5e e4        	sd	s7, 0x8(sp)
   12f6a: 62 e0        	sd	s8, 0x0(sp)
   12f6c: 86 e4        	sd	ra, 0x48(sp)
   12f6e: a2 e0        	sd	s0, 0x40(sp)
   12f70: 26 fc        	sd	s1, 0x38(sp)
   12f72: 2a 8a        	mv	s4, a0
   12f74: 2e 8b        	mv	s6, a1
   12f76: b2 89        	mv	s3, a2
   12f78: 01 49        	li	s2, 0x0
   12f7a: 93 0b 00 0b  	li	s7, 0xb0
   12f7e: 05 4c        	li	s8, 0x1
   12f80: fd 5a        	li	s5, -0x1
   12f82: 83 a4 89 00  	lw	s1, 0x8(s3)
   12f86: 03 b4 09 01  	ld	s0, 0x10(s3)
   12f8a: 63 59 90 02  	blez	s1, 0x12fbc <_fwalk_sglue+0x60>
   12f8e: 82 14        	slli	s1, s1, 0x20
   12f90: 81 90        	srli	s1, s1, 0x20
   12f92: b3 84 74 03  	mul	s1, s1, s7
   12f96: a2 94        	add	s1, s1, s0
   12f98: 83 57 04 01  	lhu	a5, 0x10(s0)
   12f9c: 63 7c fc 00  	bgeu	s8, a5, 0x12fb4 <_fwalk_sglue+0x58>
   12fa0: 83 17 24 01  	lh	a5, 0x12(s0)
   12fa4: a2 85        	mv	a1, s0
   12fa6: 52 85        	mv	a0, s4
   12fa8: 63 86 57 01  	beq	a5, s5, 0x12fb4 <_fwalk_sglue+0x58>
   12fac: 02 9b        	jalr	s6
   12fae: 33 69 25 01  	or	s2, a0, s2
   12fb2: 01 29        	sext.w	s2, s2
   12fb4: 13 04 04 0b  	addi	s0, s0, 0xb0
   12fb8: e3 10 94 fe  	bne	s0, s1, 0x12f98 <_fwalk_sglue+0x3c>
   12fbc: 83 b9 09 00  	ld	s3, 0x0(s3)
   12fc0: e3 91 09 fc  	bnez	s3, 0x12f82 <_fwalk_sglue+0x26>
   12fc4: a6 60        	ld	ra, 0x48(sp)
   12fc6: 06 64        	ld	s0, 0x40(sp)
   12fc8: e2 74        	ld	s1, 0x38(sp)
   12fca: a2 79        	ld	s3, 0x28(sp)
   12fcc: 02 7a        	ld	s4, 0x20(sp)
   12fce: e2 6a        	ld	s5, 0x18(sp)
   12fd0: 42 6b        	ld	s6, 0x10(sp)
   12fd2: a2 6b        	ld	s7, 0x8(sp)
   12fd4: 02 6c        	ld	s8, 0x0(sp)
   12fd6: 4a 85        	mv	a0, s2
   12fd8: 42 79        	ld	s2, 0x30(sp)
   12fda: 61 61        	addi	sp, sp, 0x50
   12fdc: 82 80        	ret

0000000000012fde <_printf_r>:
   12fde: 5d 71        	addi	sp, sp, -0x50
   12fe0: 32 f0        	sd	a2, 0x20(sp)
   12fe2: 36 f4        	sd	a3, 0x28(sp)
   12fe4: 3a f8        	sd	a4, 0x30(sp)
   12fe6: 3e fc        	sd	a5, 0x38(sp)
   12fe8: c2 e0        	sd	a6, 0x40(sp)
   12fea: c6 e4        	sd	a7, 0x48(sp)
   12fec: 2e 86        	mv	a2, a1
   12fee: 0c 69        	ld	a1, 0x10(a0)
   12ff0: 14 10        	addi	a3, sp, 0x20
   12ff2: 06 ec        	sd	ra, 0x18(sp)
   12ff4: 36 e4        	sd	a3, 0x8(sp)
   12ff6: ef 00 b0 6c  	jal	0x13ec0 <_vfprintf_r>
   12ffa: e2 60        	ld	ra, 0x18(sp)
   12ffc: 61 61        	addi	sp, sp, 0x50
   12ffe: 82 80        	ret

0000000000013000 <printf>:
   13000: 03 b3 01 22  	ld	t1, 0x220(gp)
   13004: 1d 71        	addi	sp, sp, -0x60
   13006: 32 f8        	sd	a2, 0x30(sp)
   13008: 36 fc        	sd	a3, 0x38(sp)
   1300a: 2e f4        	sd	a1, 0x28(sp)
   1300c: ba e0        	sd	a4, 0x40(sp)
   1300e: be e4        	sd	a5, 0x48(sp)
   13010: c2 e8        	sd	a6, 0x50(sp)
   13012: c6 ec        	sd	a7, 0x58(sp)
   13014: 83 35 03 01  	ld	a1, 0x10(t1)
   13018: 34 10        	addi	a3, sp, 0x28
   1301a: 2a 86        	mv	a2, a0
   1301c: 1a 85        	mv	a0, t1
   1301e: 06 ec        	sd	ra, 0x18(sp)
   13020: 36 e4        	sd	a3, 0x8(sp)
   13022: ef 00 f0 69  	jal	0x13ec0 <_vfprintf_r>
   13026: e2 60        	ld	ra, 0x18(sp)
   13028: 25 61        	addi	sp, sp, 0x60
   1302a: 82 80        	ret

000000000001302c <_puts_r>:
   1302c: 59 71        	addi	sp, sp, -0x70
   1302e: a2 f0        	sd	s0, 0x60(sp)
   13030: 2a 84        	mv	s0, a0
   13032: 2e 85        	mv	a0, a1
   13034: a6 ec        	sd	s1, 0x58(sp)
   13036: 86 f4        	sd	ra, 0x68(sp)
   13038: ae 84        	mv	s1, a1
   1303a: ef 00 00 3e  	jal	0x1341a <strlen>
   1303e: f5 67        	lui	a5, 0x1d
   13040: 93 87 87 c4  	addi	a5, a5, -0x3b8
   13044: be e0        	sd	a5, 0x40(sp)
   13046: 85 47        	li	a5, 0x1
   13048: be e4        	sd	a5, 0x48(sp)
   1304a: 38 64        	ld	a4, 0x48(s0)
   1304c: 1c 18        	addi	a5, sp, 0x30
   1304e: 93 06 15 00  	addi	a3, a0, 0x1
   13052: 3e ec        	sd	a5, 0x18(sp)
   13054: 89 47        	li	a5, 0x2
   13056: 26 f8        	sd	s1, 0x30(sp)
   13058: 2a fc        	sd	a0, 0x38(sp)
   1305a: 36 f4        	sd	a3, 0x28(sp)
   1305c: 3e d0        	sw	a5, 0x20(sp)
   1305e: 0c 68        	ld	a1, 0x10(s0)
   13060: 15 cf        	beqz	a4, 0x1309c <_puts_r+0x70>
   13062: 83 97 05 01  	lh	a5, 0x10(a1)
   13066: 13 97 27 03  	slli	a4, a5, 0x32
   1306a: 63 4d 07 00  	bltz	a4, 0x13084 <_puts_r+0x58>
   1306e: 03 a7 c5 0a  	lw	a4, 0xac(a1)
   13072: f9 76        	lui	a3, 0xffffe
   13074: fd 16        	addi	a3, a3, -0x1
   13076: 09 66        	lui	a2, 0x2
   13078: d1 8f        	or	a5, a5, a2
   1307a: 75 8f        	and	a4, a4, a3
   1307c: 23 98 f5 00  	sh	a5, 0x10(a1)
   13080: 23 a6 e5 0a  	sw	a4, 0xac(a1)
   13084: 30 08        	addi	a2, sp, 0x18
   13086: 22 85        	mv	a0, s0
   13088: ef 30 30 33  	jal	0x16bba <__sfvwrite_r>
   1308c: a9 47        	li	a5, 0xa
   1308e: 09 ed        	bnez	a0, 0x130a8 <_puts_r+0x7c>
   13090: a6 70        	ld	ra, 0x68(sp)
   13092: 06 74        	ld	s0, 0x60(sp)
   13094: e6 64        	ld	s1, 0x58(sp)
   13096: 3e 85        	mv	a0, a5
   13098: 65 61        	addi	sp, sp, 0x70
   1309a: 82 80        	ret
   1309c: 22 85        	mv	a0, s0
   1309e: 2e e4        	sd	a1, 0x8(sp)
   130a0: ef f0 df e7  	jal	0x12f1c <__sinit>
   130a4: a2 65        	ld	a1, 0x8(sp)
   130a6: 75 bf        	j	0x13062 <_puts_r+0x36>
   130a8: fd 57        	li	a5, -0x1
   130aa: dd b7        	j	0x13090 <_puts_r+0x64>

00000000000130ac <puts>:
   130ac: aa 85        	mv	a1, a0
   130ae: 03 b5 01 22  	ld	a0, 0x220(gp)
   130b2: ad bf        	j	0x1302c <_puts_r>

00000000000130b4 <__sread>:
   130b4: 41 11        	addi	sp, sp, -0x10
   130b6: 22 e0        	sd	s0, 0x0(sp)
   130b8: 2e 84        	mv	s0, a1
   130ba: 83 95 25 01  	lh	a1, 0x12(a1)
   130be: 06 e4        	sd	ra, 0x8(sp)
   130c0: ef 00 00 1c  	jal	0x13280 <_read_r>
   130c4: 63 49 05 00  	bltz	a0, 0x130d6 <__sread+0x22>
   130c8: 5c 68        	ld	a5, 0x90(s0)
   130ca: a2 60        	ld	ra, 0x8(sp)
   130cc: aa 97        	add	a5, a5, a0
   130ce: 5c e8        	sd	a5, 0x90(s0)
   130d0: 02 64        	ld	s0, 0x0(sp)
   130d2: 41 01        	addi	sp, sp, 0x10
   130d4: 82 80        	ret
   130d6: 83 57 04 01  	lhu	a5, 0x10(s0)
   130da: 7d 77        	lui	a4, 0xfffff
   130dc: 7d 17        	addi	a4, a4, -0x1
   130de: f9 8f        	and	a5, a5, a4
   130e0: a2 60        	ld	ra, 0x8(sp)
   130e2: 23 18 f4 00  	sh	a5, 0x10(s0)
   130e6: 02 64        	ld	s0, 0x0(sp)
   130e8: 41 01        	addi	sp, sp, 0x10
   130ea: 82 80        	ret

00000000000130ec <__seofread>:
   130ec: 01 45        	li	a0, 0x0
   130ee: 82 80        	ret

00000000000130f0 <__swrite>:
   130f0: 83 97 05 01  	lh	a5, 0x10(a1)
   130f4: 79 71        	addi	sp, sp, -0x30
   130f6: 22 f0        	sd	s0, 0x20(sp)
   130f8: 26 ec        	sd	s1, 0x18(sp)
   130fa: 4a e8        	sd	s2, 0x10(sp)
   130fc: 4e e4        	sd	s3, 0x8(sp)
   130fe: 06 f4        	sd	ra, 0x28(sp)
   13100: 13 f7 07 10  	andi	a4, a5, 0x100
   13104: 2e 84        	mv	s0, a1
   13106: aa 84        	mv	s1, a0
   13108: 32 89        	mv	s2, a2
   1310a: b6 89        	mv	s3, a3
   1310c: 15 e3        	bnez	a4, 0x13130 <__swrite+0x40>
   1310e: 7d 77        	lui	a4, 0xfffff
   13110: 7d 17        	addi	a4, a4, -0x1
   13112: f9 8f        	and	a5, a5, a4
   13114: 83 15 24 01  	lh	a1, 0x12(s0)
   13118: 23 18 f4 00  	sh	a5, 0x10(s0)
   1311c: 02 74        	ld	s0, 0x20(sp)
   1311e: a2 70        	ld	ra, 0x28(sp)
   13120: ce 86        	mv	a3, s3
   13122: 4a 86        	mv	a2, s2
   13124: a2 69        	ld	s3, 0x8(sp)
   13126: 42 69        	ld	s2, 0x10(sp)
   13128: 26 85        	mv	a0, s1
   1312a: e2 64        	ld	s1, 0x18(sp)
   1312c: 45 61        	addi	sp, sp, 0x30
   1312e: 79 a2        	j	0x132bc <_write_r>
   13130: 83 95 25 01  	lh	a1, 0x12(a1)
   13134: 89 46        	li	a3, 0x2
   13136: 01 46        	li	a2, 0x0
   13138: ef 00 c0 10  	jal	0x13244 <_lseek_r>
   1313c: 83 17 04 01  	lh	a5, 0x10(s0)
   13140: f9 b7        	j	0x1310e <__swrite+0x1e>

0000000000013142 <__sseek>:
   13142: 41 11        	addi	sp, sp, -0x10
   13144: 22 e0        	sd	s0, 0x0(sp)
   13146: 2e 84        	mv	s0, a1
   13148: 83 95 25 01  	lh	a1, 0x12(a1)
   1314c: 06 e4        	sd	ra, 0x8(sp)
   1314e: ef 00 60 0f  	jal	0x13244 <_lseek_r>
   13152: fd 57        	li	a5, -0x1
   13154: 63 01 f5 02  	beq	a0, a5, 0x13176 <__sseek+0x34>
   13158: 83 57 04 01  	lhu	a5, 0x10(s0)
   1315c: 05 67        	lui	a4, 0x1
   1315e: a2 60        	ld	ra, 0x8(sp)
   13160: d9 8f        	or	a5, a5, a4
   13162: 9b 97 07 01  	slliw	a5, a5, 0x10
   13166: 9b d7 07 41  	sraiw	a5, a5, 0x10
   1316a: 48 e8        	sd	a0, 0x90(s0)
   1316c: 23 18 f4 00  	sh	a5, 0x10(s0)
   13170: 02 64        	ld	s0, 0x0(sp)
   13172: 41 01        	addi	sp, sp, 0x10
   13174: 82 80        	ret
   13176: 83 57 04 01  	lhu	a5, 0x10(s0)
   1317a: 7d 77        	lui	a4, 0xfffff
   1317c: 7d 17        	addi	a4, a4, -0x1
   1317e: f9 8f        	and	a5, a5, a4
   13180: 9b 97 07 01  	slliw	a5, a5, 0x10
   13184: 9b d7 07 41  	sraiw	a5, a5, 0x10
   13188: a2 60        	ld	ra, 0x8(sp)
   1318a: 23 18 f4 00  	sh	a5, 0x10(s0)
   1318e: 02 64        	ld	s0, 0x0(sp)
   13190: 41 01        	addi	sp, sp, 0x10
   13192: 82 80        	ret

0000000000013194 <__sclose>:
   13194: 83 95 25 01  	lh	a1, 0x12(a1)
   13198: 09 a0        	j	0x1319a <_close_r>

000000000001319a <_close_r>:
   1319a: 01 11        	addi	sp, sp, -0x20
   1319c: 22 e8        	sd	s0, 0x10(sp)
   1319e: 26 e4        	sd	s1, 0x8(sp)
   131a0: 2a 84        	mv	s0, a0
   131a2: 2e 85        	mv	a0, a1
   131a4: 06 ec        	sd	ra, 0x18(sp)
   131a6: 23 a0 01 24  	sw	zero, 0x240(gp)
   131aa: ef 70 40 4b  	jal	0x1a65e <_close>
   131ae: fd 57        	li	a5, -0x1
   131b0: 63 07 f5 00  	beq	a0, a5, 0x131be <_close_r+0x24>
   131b4: e2 60        	ld	ra, 0x18(sp)
   131b6: 42 64        	ld	s0, 0x10(sp)
   131b8: a2 64        	ld	s1, 0x8(sp)
   131ba: 05 61        	addi	sp, sp, 0x20
   131bc: 82 80        	ret
   131be: 83 a7 01 24  	lw	a5, 0x240(gp)
   131c2: ed db        	beqz	a5, 0x131b4 <_close_r+0x1a>
   131c4: e2 60        	ld	ra, 0x18(sp)
   131c6: 1c c0        	sw	a5, 0x0(s0)
   131c8: 42 64        	ld	s0, 0x10(sp)
   131ca: a2 64        	ld	s1, 0x8(sp)
   131cc: 05 61        	addi	sp, sp, 0x20
   131ce: 82 80        	ret

00000000000131d0 <_reclaim_reent>:
   131d0: 83 b7 01 22  	ld	a5, 0x220(gp)
   131d4: 63 87 a7 06  	beq	a5, a0, 0x13242 <_reclaim_reent+0x72>
   131d8: 2c 75        	ld	a1, 0x68(a0)
   131da: 79 71        	addi	sp, sp, -0x30
   131dc: 26 ec        	sd	s1, 0x18(sp)
   131de: 06 f4        	sd	ra, 0x28(sp)
   131e0: aa 84        	mv	s1, a0
   131e2: 9d c9        	beqz	a1, 0x13218 <_reclaim_reent+0x48>
   131e4: 4a e8        	sd	s2, 0x10(sp)
   131e6: 4e e4        	sd	s3, 0x8(sp)
   131e8: 22 f0        	sd	s0, 0x20(sp)
   131ea: 01 49        	li	s2, 0x0
   131ec: 93 09 00 20  	li	s3, 0x200
   131f0: b3 87 25 01  	add	a5, a1, s2
   131f4: 80 63        	ld	s0, 0x0(a5)
   131f6: 01 c8        	beqz	s0, 0x13206 <_reclaim_reent+0x36>
   131f8: a2 85        	mv	a1, s0
   131fa: 00 60        	ld	s0, 0x0(s0)
   131fc: 26 85        	mv	a0, s1
   131fe: ef 00 c0 46  	jal	0x1366a <_free_r>
   13202: 7d f8        	bnez	s0, 0x131f8 <_reclaim_reent+0x28>
   13204: ac 74        	ld	a1, 0x68(s1)
   13206: 21 09        	addi	s2, s2, 0x8
   13208: e3 14 39 ff  	bne	s2, s3, 0x131f0 <_reclaim_reent+0x20>
   1320c: 26 85        	mv	a0, s1
   1320e: ef 00 c0 45  	jal	0x1366a <_free_r>
   13212: 02 74        	ld	s0, 0x20(sp)
   13214: 42 69        	ld	s2, 0x10(sp)
   13216: a2 69        	ld	s3, 0x8(sp)
   13218: ac 68        	ld	a1, 0x50(s1)
   1321a: 81 c5        	beqz	a1, 0x13222 <_reclaim_reent+0x52>
   1321c: 26 85        	mv	a0, s1
   1321e: ef 00 c0 44  	jal	0x1366a <_free_r>
   13222: ac 7c        	ld	a1, 0x78(s1)
   13224: 81 c5        	beqz	a1, 0x1322c <_reclaim_reent+0x5c>
   13226: 26 85        	mv	a0, s1
   13228: ef 00 20 44  	jal	0x1366a <_free_r>
   1322c: bc 64        	ld	a5, 0x48(s1)
   1322e: 91 c7        	beqz	a5, 0x1323a <_reclaim_reent+0x6a>
   13230: a2 70        	ld	ra, 0x28(sp)
   13232: 26 85        	mv	a0, s1
   13234: e2 64        	ld	s1, 0x18(sp)
   13236: 45 61        	addi	sp, sp, 0x30
   13238: 82 87        	jr	a5
   1323a: a2 70        	ld	ra, 0x28(sp)
   1323c: e2 64        	ld	s1, 0x18(sp)
   1323e: 45 61        	addi	sp, sp, 0x30
   13240: 82 80        	ret
   13242: 82 80        	ret

0000000000013244 <_lseek_r>:
   13244: 01 11        	addi	sp, sp, -0x20
   13246: 2e 87        	mv	a4, a1
   13248: 22 e8        	sd	s0, 0x10(sp)
   1324a: 26 e4        	sd	s1, 0x8(sp)
   1324c: b2 85        	mv	a1, a2
   1324e: 2a 84        	mv	s0, a0
   13250: 36 86        	mv	a2, a3
   13252: 3a 85        	mv	a0, a4
   13254: 06 ec        	sd	ra, 0x18(sp)
   13256: 23 a0 01 24  	sw	zero, 0x240(gp)
   1325a: ef 70 00 4d  	jal	0x1a72a <_lseek>
   1325e: fd 57        	li	a5, -0x1
   13260: 63 07 f5 00  	beq	a0, a5, 0x1326e <_lseek_r+0x2a>
   13264: e2 60        	ld	ra, 0x18(sp)
   13266: 42 64        	ld	s0, 0x10(sp)
   13268: a2 64        	ld	s1, 0x8(sp)
   1326a: 05 61        	addi	sp, sp, 0x20
   1326c: 82 80        	ret
   1326e: 83 a7 01 24  	lw	a5, 0x240(gp)
   13272: ed db        	beqz	a5, 0x13264 <_lseek_r+0x20>
   13274: e2 60        	ld	ra, 0x18(sp)
   13276: 1c c0        	sw	a5, 0x0(s0)
   13278: 42 64        	ld	s0, 0x10(sp)
   1327a: a2 64        	ld	s1, 0x8(sp)
   1327c: 05 61        	addi	sp, sp, 0x20
   1327e: 82 80        	ret

0000000000013280 <_read_r>:
   13280: 01 11        	addi	sp, sp, -0x20
   13282: 2e 87        	mv	a4, a1
   13284: 22 e8        	sd	s0, 0x10(sp)
   13286: 26 e4        	sd	s1, 0x8(sp)
   13288: b2 85        	mv	a1, a2
   1328a: 2a 84        	mv	s0, a0
   1328c: 36 86        	mv	a2, a3
   1328e: 3a 85        	mv	a0, a4
   13290: 06 ec        	sd	ra, 0x18(sp)
   13292: 23 a0 01 24  	sw	zero, 0x240(gp)
   13296: ef 70 00 4c  	jal	0x1a756 <_read>
   1329a: fd 57        	li	a5, -0x1
   1329c: 63 07 f5 00  	beq	a0, a5, 0x132aa <_read_r+0x2a>
   132a0: e2 60        	ld	ra, 0x18(sp)
   132a2: 42 64        	ld	s0, 0x10(sp)
   132a4: a2 64        	ld	s1, 0x8(sp)
   132a6: 05 61        	addi	sp, sp, 0x20
   132a8: 82 80        	ret
   132aa: 83 a7 01 24  	lw	a5, 0x240(gp)
   132ae: ed db        	beqz	a5, 0x132a0 <_read_r+0x20>
   132b0: e2 60        	ld	ra, 0x18(sp)
   132b2: 1c c0        	sw	a5, 0x0(s0)
   132b4: 42 64        	ld	s0, 0x10(sp)
   132b6: a2 64        	ld	s1, 0x8(sp)
   132b8: 05 61        	addi	sp, sp, 0x20
   132ba: 82 80        	ret

00000000000132bc <_write_r>:
   132bc: 01 11        	addi	sp, sp, -0x20
   132be: 2e 87        	mv	a4, a1
   132c0: 22 e8        	sd	s0, 0x10(sp)
   132c2: 26 e4        	sd	s1, 0x8(sp)
   132c4: b2 85        	mv	a1, a2
   132c6: 2a 84        	mv	s0, a0
   132c8: 36 86        	mv	a2, a3
   132ca: 3a 85        	mv	a0, a4
   132cc: 06 ec        	sd	ra, 0x18(sp)
   132ce: 23 a0 01 24  	sw	zero, 0x240(gp)
   132d2: ef 70 40 50  	jal	0x1a7d6 <_write>
   132d6: fd 57        	li	a5, -0x1
   132d8: 63 07 f5 00  	beq	a0, a5, 0x132e6 <_write_r+0x2a>
   132dc: e2 60        	ld	ra, 0x18(sp)
   132de: 42 64        	ld	s0, 0x10(sp)
   132e0: a2 64        	ld	s1, 0x8(sp)
   132e2: 05 61        	addi	sp, sp, 0x20
   132e4: 82 80        	ret
   132e6: 83 a7 01 24  	lw	a5, 0x240(gp)
   132ea: ed db        	beqz	a5, 0x132dc <_write_r+0x20>
   132ec: e2 60        	ld	ra, 0x18(sp)
   132ee: 1c c0        	sw	a5, 0x0(s0)
   132f0: 42 64        	ld	s0, 0x10(sp)
   132f2: a2 64        	ld	s1, 0x8(sp)
   132f4: 05 61        	addi	sp, sp, 0x20
   132f6: 82 80        	ret

00000000000132f8 <__errno>:
   132f8: 03 b5 01 22  	ld	a0, 0x220(gp)
   132fc: 82 80        	ret

00000000000132fe <__libc_init_array>:
   132fe: 01 11        	addi	sp, sp, -0x20
   13300: 22 e8        	sd	s0, 0x10(sp)
   13302: b7 f7 01 00  	lui	a5, 0x1f
   13306: 37 f4 01 00  	lui	s0, 0x1f
   1330a: 4a e0        	sd	s2, 0x0(sp)
   1330c: 93 87 87 83  	addi	a5, a5, -0x7c8
   13310: 13 07 84 83  	addi	a4, s0, -0x7c8
   13314: 06 ec        	sd	ra, 0x18(sp)
   13316: 26 e4        	sd	s1, 0x8(sp)
   13318: 33 89 e7 40  	sub	s2, a5, a4
   1331c: 63 8d e7 00  	beq	a5, a4, 0x13336 <__libc_init_array+0x38>
   13320: 13 59 39 40  	srai	s2, s2, 0x3
   13324: 13 04 84 83  	addi	s0, s0, -0x7c8
   13328: 81 44        	li	s1, 0x0
   1332a: 1c 60        	ld	a5, 0x0(s0)
   1332c: 85 04        	addi	s1, s1, 0x1
   1332e: 21 04        	addi	s0, s0, 0x8
   13330: 82 97        	jalr	a5
   13332: e3 ec 24 ff  	bltu	s1, s2, 0x1332a <__libc_init_array+0x2c>
   13336: 37 f4 01 00  	lui	s0, 0x1f
   1333a: b7 f7 01 00  	lui	a5, 0x1f
   1333e: 93 87 87 84  	addi	a5, a5, -0x7b8
   13342: 13 07 84 83  	addi	a4, s0, -0x7c8
   13346: 33 89 e7 40  	sub	s2, a5, a4
   1334a: 13 59 39 40  	srai	s2, s2, 0x3
   1334e: 63 8b e7 00  	beq	a5, a4, 0x13364 <__libc_init_array+0x66>
   13352: 13 04 84 83  	addi	s0, s0, -0x7c8
   13356: 81 44        	li	s1, 0x0
   13358: 1c 60        	ld	a5, 0x0(s0)
   1335a: 85 04        	addi	s1, s1, 0x1
   1335c: 21 04        	addi	s0, s0, 0x8
   1335e: 82 97        	jalr	a5
   13360: e3 ec 24 ff  	bltu	s1, s2, 0x13358 <__libc_init_array+0x5a>
   13364: e2 60        	ld	ra, 0x18(sp)
   13366: 42 64        	ld	s0, 0x10(sp)
   13368: a2 64        	ld	s1, 0x8(sp)
   1336a: 02 69        	ld	s2, 0x0(sp)
   1336c: 05 61        	addi	sp, sp, 0x20
   1336e: 82 80        	ret

0000000000013370 <memset>:
   13370: 3d 43        	li	t1, 0xf
   13372: 2a 87        	mv	a4, a0
   13374: 63 71 c3 02  	bgeu	t1, a2, 0x13396 <memset+0x26>
   13378: 93 77 f7 00  	andi	a5, a4, 0xf
   1337c: c1 e3        	bnez	a5, 0x133fc <memset+0x8c>
   1337e: bd e1        	bnez	a1, 0x133e4 <memset+0x74>
   13380: 93 76 06 ff  	andi	a3, a2, -0x10
   13384: 3d 8a        	andi	a2, a2, 0xf
   13386: ba 96        	add	a3, a3, a4
   13388: 0c e3        	sd	a1, 0x0(a4)
   1338a: 0c e7        	sd	a1, 0x8(a4)
   1338c: 41 07        	addi	a4, a4, 0x10
   1338e: e3 6d d7 fe  	bltu	a4, a3, 0x13388 <memset+0x18>
   13392: 11 e2        	bnez	a2, 0x13396 <memset+0x26>
   13394: 82 80        	ret
   13396: b3 06 c3 40  	sub	a3, t1, a2
   1339a: 8a 06        	slli	a3, a3, 0x2
   1339c: 97 02 00 00  	auipc	t0, 0x0
   133a0: 96 96        	add	a3, a3, t0
   133a2: 67 80 a6 00  	jr	0xa(a3)
   133a6: 23 07 b7 00  	sb	a1, 0xe(a4)
   133aa: a3 06 b7 00  	sb	a1, 0xd(a4)
   133ae: 23 06 b7 00  	sb	a1, 0xc(a4)
   133b2: a3 05 b7 00  	sb	a1, 0xb(a4)
   133b6: 23 05 b7 00  	sb	a1, 0xa(a4)
   133ba: a3 04 b7 00  	sb	a1, 0x9(a4)
   133be: 23 04 b7 00  	sb	a1, 0x8(a4)
   133c2: a3 03 b7 00  	sb	a1, 0x7(a4)
   133c6: 23 03 b7 00  	sb	a1, 0x6(a4)
   133ca: a3 02 b7 00  	sb	a1, 0x5(a4)
   133ce: 23 02 b7 00  	sb	a1, 0x4(a4)
   133d2: a3 01 b7 00  	sb	a1, 0x3(a4)
   133d6: 23 01 b7 00  	sb	a1, 0x2(a4)
   133da: a3 00 b7 00  	sb	a1, 0x1(a4)
   133de: 23 00 b7 00  	sb	a1, 0x0(a4)
   133e2: 82 80        	ret
   133e4: 93 f5 f5 0f  	andi	a1, a1, 0xff
   133e8: 93 96 85 00  	slli	a3, a1, 0x8
   133ec: d5 8d        	or	a1, a1, a3
   133ee: 93 96 05 01  	slli	a3, a1, 0x10
   133f2: d5 8d        	or	a1, a1, a3
   133f4: 93 96 05 02  	slli	a3, a1, 0x20
   133f8: d5 8d        	or	a1, a1, a3
   133fa: 59 b7        	j	0x13380 <memset+0x10>
   133fc: 93 96 27 00  	slli	a3, a5, 0x2
   13400: 97 02 00 00  	auipc	t0, 0x0
   13404: 96 96        	add	a3, a3, t0
   13406: 86 82        	mv	t0, ra
   13408: e7 80 26 fa  	jalr	-0x5e(a3)
   1340c: 96 80        	mv	ra, t0
   1340e: c1 17        	addi	a5, a5, -0x10
   13410: 1d 8f        	sub	a4, a4, a5
   13412: 3e 96        	add	a2, a2, a5
   13414: e3 71 c3 f8  	bgeu	t1, a2, 0x13396 <memset+0x26>
   13418: 9d b7        	j	0x1337e <memset+0xe>

000000000001341a <strlen>:
   1341a: 93 77 75 00  	andi	a5, a0, 0x7
   1341e: 2a 87        	mv	a4, a0
   13420: b5 e3        	bnez	a5, 0x13484 <strlen+0x6a>
   13422: b7 f6 ef 0f  	lui	a3, 0xfeff
   13426: 92 06        	slli	a3, a3, 0x4
   13428: 93 86 f6 ef  	addi	a3, a3, -0x101
   1342c: c2 06        	slli	a3, a3, 0x10
   1342e: 93 86 f6 ef  	addi	a3, a3, -0x101
   13432: be 06        	slli	a3, a3, 0xf
   13434: 93 86 f6 f7  	addi	a3, a3, -0x81
   13438: fd 55        	li	a1, -0x1
   1343a: 10 63        	ld	a2, 0x0(a4)
   1343c: 21 07        	addi	a4, a4, 0x8
   1343e: b3 77 d6 00  	and	a5, a2, a3
   13442: b6 97        	add	a5, a5, a3
   13444: d1 8f        	or	a5, a5, a2
   13446: d5 8f        	or	a5, a5, a3
   13448: e3 89 b7 fe  	beq	a5, a1, 0x1343a <strlen+0x20>
   1344c: 83 46 87 ff  	lbu	a3, -0x8(a4)
   13450: b3 07 a7 40  	sub	a5, a4, a0
   13454: a9 c6        	beqz	a3, 0x1349e <strlen+0x84>
   13456: 83 46 97 ff  	lbu	a3, -0x7(a4)
   1345a: 9d ce        	beqz	a3, 0x13498 <strlen+0x7e>
   1345c: 83 46 a7 ff  	lbu	a3, -0x6(a4)
   13460: a9 c6        	beqz	a3, 0x134aa <strlen+0x90>
   13462: 83 46 b7 ff  	lbu	a3, -0x5(a4)
   13466: 9d ce        	beqz	a3, 0x134a4 <strlen+0x8a>
   13468: 83 46 c7 ff  	lbu	a3, -0x4(a4)
   1346c: b1 c2        	beqz	a3, 0x134b0 <strlen+0x96>
   1346e: 83 46 d7 ff  	lbu	a3, -0x3(a4)
   13472: b1 c2        	beqz	a3, 0x134b6 <strlen+0x9c>
   13474: 03 45 e7 ff  	lbu	a0, -0x2(a4)
   13478: 33 35 a0 00  	snez	a0, a0
   1347c: 3e 95        	add	a0, a0, a5
   1347e: 79 15        	addi	a0, a0, -0x2
   13480: 82 80        	ret
   13482: c5 d2        	beqz	a3, 0x13422 <strlen+0x8>
   13484: 83 47 07 00  	lbu	a5, 0x0(a4)
   13488: 05 07        	addi	a4, a4, 0x1
   1348a: 93 76 77 00  	andi	a3, a4, 0x7
   1348e: f5 fb        	bnez	a5, 0x13482 <strlen+0x68>
   13490: 09 8f        	sub	a4, a4, a0
   13492: 13 05 f7 ff  	addi	a0, a4, -0x1
   13496: 82 80        	ret
   13498: 13 85 97 ff  	addi	a0, a5, -0x7
   1349c: 82 80        	ret
   1349e: 13 85 87 ff  	addi	a0, a5, -0x8
   134a2: 82 80        	ret
   134a4: 13 85 b7 ff  	addi	a0, a5, -0x5
   134a8: 82 80        	ret
   134aa: 13 85 a7 ff  	addi	a0, a5, -0x6
   134ae: 82 80        	ret
   134b0: 13 85 c7 ff  	addi	a0, a5, -0x4
   134b4: 82 80        	ret
   134b6: 13 85 d7 ff  	addi	a0, a5, -0x3
   134ba: 82 80        	ret

00000000000134bc <__call_exitprocs>:
   134bc: 5d 71        	addi	sp, sp, -0x50
   134be: 52 f0        	sd	s4, 0x20(sp)
   134c0: 4a f8        	sd	s2, 0x30(sp)
   134c2: 03 b9 81 24  	ld	s2, 0x248(gp)
   134c6: 86 e4        	sd	ra, 0x48(sp)
   134c8: 63 0d 09 06  	beqz	s2, 0x13542 <__call_exitprocs+0x86>
   134cc: 4e f4        	sd	s3, 0x28(sp)
   134ce: 56 ec        	sd	s5, 0x18(sp)
   134d0: 5a e8        	sd	s6, 0x10(sp)
   134d2: 5e e4        	sd	s7, 0x8(sp)
   134d4: a2 e0        	sd	s0, 0x40(sp)
   134d6: 26 fc        	sd	s1, 0x38(sp)
   134d8: 62 e0        	sd	s8, 0x0(sp)
   134da: 2a 8b        	mv	s6, a0
   134dc: ae 8b        	mv	s7, a1
   134de: fd 59        	li	s3, -0x1
   134e0: 85 4a        	li	s5, 0x1
   134e2: 83 24 89 00  	lw	s1, 0x8(s2)
   134e6: 1b 84 f4 ff  	addiw	s0, s1, -0x1
   134ea: 63 45 04 04  	bltz	s0, 0x13534 <__call_exitprocs+0x78>
   134ee: 8e 04        	slli	s1, s1, 0x3
   134f0: ca 94        	add	s1, s1, s2
   134f2: 63 9d 0b 04  	bnez	s7, 0x1354c <__call_exitprocs+0x90>
   134f6: 83 27 89 00  	lw	a5, 0x8(s2)
   134fa: 98 64        	ld	a4, 0x8(s1)
   134fc: fd 37        	addiw	a5, a5, -0x1
   134fe: 63 82 87 08  	beq	a5, s0, 0x13582 <__call_exitprocs+0xc6>
   13502: 23 b4 04 00  	sd	zero, 0x8(s1)
   13506: 1d c3        	beqz	a4, 0x1352c <__call_exitprocs+0x70>
   13508: 83 27 09 31  	lw	a5, 0x310(s2)
   1350c: bb 96 8a 00  	sllw	a3, s5, s0
   13510: 03 2c 89 00  	lw	s8, 0x8(s2)
   13514: f5 8f        	and	a5, a5, a3
   13516: 81 27        	sext.w	a5, a5
   13518: b9 e3        	bnez	a5, 0x1355e <__call_exitprocs+0xa2>
   1351a: 02 97        	jalr	a4
   1351c: 03 27 89 00  	lw	a4, 0x8(s2)
   13520: 83 b7 81 24  	ld	a5, 0x248(gp)
   13524: 63 1c 87 05  	bne	a4, s8, 0x1357c <__call_exitprocs+0xc0>
   13528: 63 9a 27 05  	bne	a5, s2, 0x1357c <__call_exitprocs+0xc0>
   1352c: 7d 34        	addiw	s0, s0, -0x1
   1352e: e1 14        	addi	s1, s1, -0x8
   13530: e3 11 34 fd  	bne	s0, s3, 0x134f2 <__call_exitprocs+0x36>
   13534: 06 64        	ld	s0, 0x40(sp)
   13536: e2 74        	ld	s1, 0x38(sp)
   13538: a2 79        	ld	s3, 0x28(sp)
   1353a: e2 6a        	ld	s5, 0x18(sp)
   1353c: 42 6b        	ld	s6, 0x10(sp)
   1353e: a2 6b        	ld	s7, 0x8(sp)
   13540: 02 6c        	ld	s8, 0x0(sp)
   13542: a6 60        	ld	ra, 0x48(sp)
   13544: 42 79        	ld	s2, 0x30(sp)
   13546: 02 7a        	ld	s4, 0x20(sp)
   13548: 61 61        	addi	sp, sp, 0x50
   1354a: 82 80        	ret
   1354c: 83 b7 84 20  	ld	a5, 0x208(s1)
   13550: e3 83 77 fb  	beq	a5, s7, 0x134f6 <__call_exitprocs+0x3a>
   13554: 7d 34        	addiw	s0, s0, -0x1
   13556: e1 14        	addi	s1, s1, -0x8
   13558: e3 1a 34 ff  	bne	s0, s3, 0x1354c <__call_exitprocs+0x90>
   1355c: e1 bf        	j	0x13534 <__call_exitprocs+0x78>
   1355e: 83 27 49 31  	lw	a5, 0x314(s2)
   13562: 83 b5 84 10  	ld	a1, 0x108(s1)
   13566: f5 8f        	and	a5, a5, a3
   13568: 81 27        	sext.w	a5, a5
   1356a: 99 ef        	bnez	a5, 0x13588 <__call_exitprocs+0xcc>
   1356c: 5a 85        	mv	a0, s6
   1356e: 02 97        	jalr	a4
   13570: 03 27 89 00  	lw	a4, 0x8(s2)
   13574: 83 b7 81 24  	ld	a5, 0x248(gp)
   13578: e3 08 87 fb  	beq	a4, s8, 0x13528 <__call_exitprocs+0x6c>
   1357c: c5 df        	beqz	a5, 0x13534 <__call_exitprocs+0x78>
   1357e: 3e 89        	mv	s2, a5
   13580: 8d b7        	j	0x134e2 <__call_exitprocs+0x26>
   13582: 23 24 89 00  	sw	s0, 0x8(s2)
   13586: 41 b7        	j	0x13506 <__call_exitprocs+0x4a>
   13588: 2e 85        	mv	a0, a1
   1358a: 02 97        	jalr	a4
   1358c: 41 bf        	j	0x1351c <__call_exitprocs+0x60>

000000000001358e <atexit>:
   1358e: aa 85        	mv	a1, a0
   13590: 81 46        	li	a3, 0x0
   13592: 01 46        	li	a2, 0x0
   13594: 01 45        	li	a0, 0x0
   13596: 6f 40 00 19  	j	0x17726 <__register_exitproc>

000000000001359a <_malloc_trim_r>:
   1359a: 79 71        	addi	sp, sp, -0x30
   1359c: 4e e4        	sd	s3, 0x8(sp)
   1359e: b7 f9 01 00  	lui	s3, 0x1f
   135a2: 22 f0        	sd	s0, 0x20(sp)
   135a4: 26 ec        	sd	s1, 0x18(sp)
   135a6: 4a e8        	sd	s2, 0x10(sp)
   135a8: 52 e0        	sd	s4, 0x0(sp)
   135aa: 06 f4        	sd	ra, 0x28(sp)
   135ac: 2e 8a        	mv	s4, a1
   135ae: 2a 89        	mv	s2, a0
   135b0: 93 89 09 9c  	addi	s3, s3, -0x640
   135b4: ef 00 90 10  	jal	0x13ebc <__malloc_lock>
   135b8: 03 b7 09 01  	ld	a4, 0x10(s3)
   135bc: 85 67        	lui	a5, 0x1
   135be: 93 87 f7 fd  	addi	a5, a5, -0x21
   135c2: 04 67        	ld	s1, 0x8(a4)
   135c4: 05 67        	lui	a4, 0x1
   135c6: f1 98        	andi	s1, s1, -0x4
   135c8: 33 84 f4 00  	add	s0, s1, a5
   135cc: 33 04 44 41  	sub	s0, s0, s4
   135d0: 31 80        	srli	s0, s0, 0xc
   135d2: 7d 14        	addi	s0, s0, -0x1
   135d4: 32 04        	slli	s0, s0, 0xc
   135d6: 63 4b e4 00  	blt	s0, a4, 0x135ec <_malloc_trim_r+0x52>
   135da: 81 45        	li	a1, 0x0
   135dc: 4a 85        	mv	a0, s2
   135de: ef 30 90 52  	jal	0x17306 <_sbrk_r>
   135e2: 83 b7 09 01  	ld	a5, 0x10(s3)
   135e6: a6 97        	add	a5, a5, s1
   135e8: 63 0e f5 00  	beq	a0, a5, 0x13604 <_malloc_trim_r+0x6a>
   135ec: 4a 85        	mv	a0, s2
   135ee: ef 00 10 0d  	jal	0x13ebe <__malloc_unlock>
   135f2: a2 70        	ld	ra, 0x28(sp)
   135f4: 02 74        	ld	s0, 0x20(sp)
   135f6: e2 64        	ld	s1, 0x18(sp)
   135f8: 42 69        	ld	s2, 0x10(sp)
   135fa: a2 69        	ld	s3, 0x8(sp)
   135fc: 02 6a        	ld	s4, 0x0(sp)
   135fe: 01 45        	li	a0, 0x0
   13600: 45 61        	addi	sp, sp, 0x30
   13602: 82 80        	ret
   13604: b3 05 80 40  	neg	a1, s0
   13608: 4a 85        	mv	a0, s2
   1360a: ef 30 d0 4f  	jal	0x17306 <_sbrk_r>
   1360e: fd 57        	li	a5, -0x1
   13610: 63 09 f5 02  	beq	a0, a5, 0x13642 <_malloc_trim_r+0xa8>
   13614: 93 87 01 4c  	addi	a5, gp, 0x4c0
   13618: 98 43        	lw	a4, 0x0(a5)
   1361a: 83 b6 09 01  	ld	a3, 0x10(s3)
   1361e: 81 8c        	sub	s1, s1, s0
   13620: 93 e4 14 00  	ori	s1, s1, 0x1
   13624: 01 9f        	subw	a4, a4, s0
   13626: 4a 85        	mv	a0, s2
   13628: 84 e6        	sd	s1, 0x8(a3)
   1362a: 98 c3        	sw	a4, 0x0(a5)
   1362c: ef 00 30 09  	jal	0x13ebe <__malloc_unlock>
   13630: a2 70        	ld	ra, 0x28(sp)
   13632: 02 74        	ld	s0, 0x20(sp)
   13634: e2 64        	ld	s1, 0x18(sp)
   13636: 42 69        	ld	s2, 0x10(sp)
   13638: a2 69        	ld	s3, 0x8(sp)
   1363a: 02 6a        	ld	s4, 0x0(sp)
   1363c: 05 45        	li	a0, 0x1
   1363e: 45 61        	addi	sp, sp, 0x30
   13640: 82 80        	ret
   13642: 81 45        	li	a1, 0x0
   13644: 4a 85        	mv	a0, s2
   13646: ef 30 10 4c  	jal	0x17306 <_sbrk_r>
   1364a: 03 b7 09 01  	ld	a4, 0x10(s3)
   1364e: fd 46        	li	a3, 0x1f
   13650: b3 07 e5 40  	sub	a5, a0, a4
   13654: e3 dc f6 f8  	bge	a3, a5, 0x135ec <_malloc_trim_r+0x52>
   13658: 83 b6 81 22  	ld	a3, 0x228(gp)
   1365c: 93 e7 17 00  	ori	a5, a5, 0x1
   13660: 1c e7        	sd	a5, 0x8(a4)
   13662: 15 8d        	sub	a0, a0, a3
   13664: 23 a0 a1 4c  	sw	a0, 0x4c0(gp)
   13668: 51 b7        	j	0x135ec <_malloc_trim_r+0x52>

000000000001366a <_free_r>:
   1366a: 63 83 05 12  	beqz	a1, 0x13790 <_free_r+0x126>
   1366e: 01 11        	addi	sp, sp, -0x20
   13670: 22 e8        	sd	s0, 0x10(sp)
   13672: 26 e4        	sd	s1, 0x8(sp)
   13674: 2e 84        	mv	s0, a1
   13676: aa 84        	mv	s1, a0
   13678: 06 ec        	sd	ra, 0x18(sp)
   1367a: ef 00 30 04  	jal	0x13ebc <__malloc_lock>
   1367e: 03 35 84 ff  	ld	a0, -0x8(s0)
   13682: 13 07 04 ff  	addi	a4, s0, -0x10
   13686: b7 f5 01 00  	lui	a1, 0x1f
   1368a: 93 77 e5 ff  	andi	a5, a0, -0x2
   1368e: 33 06 f7 00  	add	a2, a4, a5
   13692: 93 85 05 9c  	addi	a1, a1, -0x640
   13696: 14 66        	ld	a3, 0x8(a2)
   13698: 03 b8 05 01  	ld	a6, 0x10(a1)
   1369c: f1 9a        	andi	a3, a3, -0x4
   1369e: 63 0c c8 12  	beq	a6, a2, 0x137d6 <_free_r+0x16c>
   136a2: 14 e6        	sd	a3, 0x8(a2)
   136a4: 05 89        	andi	a0, a0, 0x1
   136a6: 33 08 d6 00  	add	a6, a2, a3
   136aa: 41 e1        	bnez	a0, 0x1372a <_free_r+0xc0>
   136ac: 03 33 04 ff  	ld	t1, -0x10(s0)
   136b0: 03 38 88 00  	ld	a6, 0x8(a6)
   136b4: 37 f5 01 00  	lui	a0, 0x1f
   136b8: 33 07 67 40  	sub	a4, a4, t1
   136bc: 83 38 07 01  	ld	a7, 0x10(a4)
   136c0: 13 05 05 9d  	addi	a0, a0, -0x630
   136c4: 9a 97        	add	a5, a5, t1
   136c6: 13 78 18 00  	andi	a6, a6, 0x1
   136ca: 63 89 a8 0e  	beq	a7, a0, 0x137bc <_free_r+0x152>
   136ce: 03 33 87 01  	ld	t1, 0x18(a4)
   136d2: 23 bc 68 00  	sd	t1, 0x18(a7)
   136d6: 23 38 13 01  	sd	a7, 0x10(t1)
   136da: 63 07 08 12  	beqz	a6, 0x13808 <_free_r+0x19e>
   136de: 93 e6 17 00  	ori	a3, a5, 0x1
   136e2: 14 e7        	sd	a3, 0x8(a4)
   136e4: 1c e2        	sd	a5, 0x0(a2)
   136e6: 93 06 f0 1f  	li	a3, 0x1ff
   136ea: 63 ed f6 04  	bltu	a3, a5, 0x13744 <_free_r+0xda>
   136ee: 8d 83        	srli	a5, a5, 0x3
   136f0: 9b 86 17 00  	addiw	a3, a5, 0x1
   136f4: 9b 96 16 00  	slliw	a3, a3, 0x1
   136f8: 8e 06        	slli	a3, a3, 0x3
   136fa: 03 b8 85 00  	ld	a6, 0x8(a1)
   136fe: ae 96        	add	a3, a3, a1
   13700: 88 62        	ld	a0, 0x0(a3)
   13702: 1b d6 27 40  	sraiw	a2, a5, 0x2
   13706: 85 47        	li	a5, 0x1
   13708: b3 97 c7 00  	sll	a5, a5, a2
   1370c: b3 e7 07 01  	or	a5, a5, a6
   13710: 13 86 06 ff  	addi	a2, a3, -0x10
   13714: 10 ef        	sd	a2, 0x18(a4)
   13716: 08 eb        	sd	a0, 0x10(a4)
   13718: 9c e5        	sd	a5, 0x8(a1)
   1371a: 98 e2        	sd	a4, 0x0(a3)
   1371c: 18 ed        	sd	a4, 0x18(a0)
   1371e: 42 64        	ld	s0, 0x10(sp)
   13720: e2 60        	ld	ra, 0x18(sp)
   13722: 26 85        	mv	a0, s1
   13724: a2 64        	ld	s1, 0x8(sp)
   13726: 05 61        	addi	sp, sp, 0x20
   13728: 59 af        	j	0x13ebe <__malloc_unlock>
   1372a: 03 35 88 00  	ld	a0, 0x8(a6)
   1372e: 05 89        	andi	a0, a0, 0x1
   13730: 2d c1        	beqz	a0, 0x13792 <_free_r+0x128>
   13732: 93 e6 17 00  	ori	a3, a5, 0x1
   13736: 23 3c d4 fe  	sd	a3, -0x8(s0)
   1373a: 1c e2        	sd	a5, 0x0(a2)
   1373c: 93 06 f0 1f  	li	a3, 0x1ff
   13740: e3 f7 f6 fa  	bgeu	a3, a5, 0x136ee <_free_r+0x84>
   13744: 93 d6 97 00  	srli	a3, a5, 0x9
   13748: 11 46        	li	a2, 0x4
   1374a: 63 61 d6 0c  	bltu	a2, a3, 0x1380c <_free_r+0x1a2>
   1374e: 93 d6 67 00  	srli	a3, a5, 0x6
   13752: 1b 85 96 03  	addiw	a0, a3, 0x39
   13756: 1b 15 15 00  	slliw	a0, a0, 0x1
   1375a: 1b 86 86 03  	addiw	a2, a3, 0x38
   1375e: 0e 05        	slli	a0, a0, 0x3
   13760: 2e 95        	add	a0, a0, a1
   13762: 14 61        	ld	a3, 0x0(a0)
   13764: 41 15        	addi	a0, a0, -0x10
   13766: 63 16 d5 00  	bne	a0, a3, 0x13772 <_free_r+0x108>
   1376a: e5 a0        	j	0x13852 <_free_r+0x1e8>
   1376c: 94 6a        	ld	a3, 0x10(a3)
   1376e: 63 06 d5 00  	beq	a0, a3, 0x1377a <_free_r+0x110>
   13772: 90 66        	ld	a2, 0x8(a3)
   13774: 71 9a        	andi	a2, a2, -0x4
   13776: e3 eb c7 fe  	bltu	a5, a2, 0x1376c <_free_r+0x102>
   1377a: 88 6e        	ld	a0, 0x18(a3)
   1377c: 08 ef        	sd	a0, 0x18(a4)
   1377e: 14 eb        	sd	a3, 0x10(a4)
   13780: 42 64        	ld	s0, 0x10(sp)
   13782: 18 e9        	sd	a4, 0x10(a0)
   13784: e2 60        	ld	ra, 0x18(sp)
   13786: 26 85        	mv	a0, s1
   13788: a2 64        	ld	s1, 0x8(sp)
   1378a: 98 ee        	sd	a4, 0x18(a3)
   1378c: 05 61        	addi	sp, sp, 0x20
   1378e: 05 af        	j	0x13ebe <__malloc_unlock>
   13790: 82 80        	ret
   13792: 37 f5 01 00  	lui	a0, 0x1f
   13796: b6 97        	add	a5, a5, a3
   13798: 13 05 05 9d  	addi	a0, a0, -0x630
   1379c: 14 6a        	ld	a3, 0x10(a2)
   1379e: 63 80 a6 0a  	beq	a3, a0, 0x1383e <_free_r+0x1d4>
   137a2: 03 38 86 01  	ld	a6, 0x18(a2)
   137a6: 13 e5 17 00  	ori	a0, a5, 0x1
   137aa: 33 06 f7 00  	add	a2, a4, a5
   137ae: 23 bc 06 01  	sd	a6, 0x18(a3)
   137b2: 23 38 d8 00  	sd	a3, 0x10(a6)
   137b6: 08 e7        	sd	a0, 0x8(a4)
   137b8: 1c e2        	sd	a5, 0x0(a2)
   137ba: 35 b7        	j	0x136e6 <_free_r+0x7c>
   137bc: 63 17 08 0e  	bnez	a6, 0x138aa <_free_r+0x240>
   137c0: 0c 6a        	ld	a1, 0x10(a2)
   137c2: 10 6e        	ld	a2, 0x18(a2)
   137c4: be 96        	add	a3, a3, a5
   137c6: 93 e7 16 00  	ori	a5, a3, 0x1
   137ca: 90 ed        	sd	a2, 0x18(a1)
   137cc: 0c ea        	sd	a1, 0x10(a2)
   137ce: 1c e7        	sd	a5, 0x8(a4)
   137d0: 36 97        	add	a4, a4, a3
   137d2: 14 e3        	sd	a3, 0x0(a4)
   137d4: a9 b7        	j	0x1371e <_free_r+0xb4>
   137d6: 05 89        	andi	a0, a0, 0x1
   137d8: be 96        	add	a3, a3, a5
   137da: 09 e9        	bnez	a0, 0x137ec <_free_r+0x182>
   137dc: 03 35 04 ff  	ld	a0, -0x10(s0)
   137e0: 09 8f        	sub	a4, a4, a0
   137e2: 1c 6f        	ld	a5, 0x18(a4)
   137e4: 10 6b        	ld	a2, 0x10(a4)
   137e6: aa 96        	add	a3, a3, a0
   137e8: 1c ee        	sd	a5, 0x18(a2)
   137ea: 90 eb        	sd	a2, 0x10(a5)
   137ec: 13 e6 16 00  	ori	a2, a3, 0x1
   137f0: 83 b7 01 23  	ld	a5, 0x230(gp)
   137f4: 10 e7        	sd	a2, 0x8(a4)
   137f6: 98 e9        	sd	a4, 0x10(a1)
   137f8: e3 e3 f6 f2  	bltu	a3, a5, 0x1371e <_free_r+0xb4>
   137fc: 83 b5 01 26  	ld	a1, 0x260(gp)
   13800: 26 85        	mv	a0, s1
   13802: ef f0 9f d9  	jal	0x1359a <_malloc_trim_r>
   13806: 21 bf        	j	0x1371e <_free_r+0xb4>
   13808: b6 97        	add	a5, a5, a3
   1380a: 49 bf        	j	0x1379c <_free_r+0x132>
   1380c: 51 46        	li	a2, 0x14
   1380e: 63 70 d6 02  	bgeu	a2, a3, 0x1382e <_free_r+0x1c4>
   13812: 13 06 40 05  	li	a2, 0x54
   13816: 63 69 d6 04  	bltu	a2, a3, 0x13868 <_free_r+0x1fe>
   1381a: 93 d6 c7 00  	srli	a3, a5, 0xc
   1381e: 1b 85 f6 06  	addiw	a0, a3, 0x6f
   13822: 1b 15 15 00  	slliw	a0, a0, 0x1
   13826: 1b 86 e6 06  	addiw	a2, a3, 0x6e
   1382a: 0e 05        	slli	a0, a0, 0x3
   1382c: 15 bf        	j	0x13760 <_free_r+0xf6>
   1382e: 1b 85 c6 05  	addiw	a0, a3, 0x5c
   13832: 1b 15 15 00  	slliw	a0, a0, 0x1
   13836: 1b 86 b6 05  	addiw	a2, a3, 0x5b
   1383a: 0e 05        	slli	a0, a0, 0x3
   1383c: 15 b7        	j	0x13760 <_free_r+0xf6>
   1383e: 98 f5        	sd	a4, 0x28(a1)
   13840: 98 f1        	sd	a4, 0x20(a1)
   13842: 93 e6 17 00  	ori	a3, a5, 0x1
   13846: 08 ef        	sd	a0, 0x18(a4)
   13848: 08 eb        	sd	a0, 0x10(a4)
   1384a: 14 e7        	sd	a3, 0x8(a4)
   1384c: 3e 97        	add	a4, a4, a5
   1384e: 1c e3        	sd	a5, 0x0(a4)
   13850: f9 b5        	j	0x1371e <_free_r+0xb4>
   13852: 03 b8 85 00  	ld	a6, 0x8(a1)
   13856: 1b 56 26 40  	sraiw	a2, a2, 0x2
   1385a: 85 47        	li	a5, 0x1
   1385c: b3 97 c7 00  	sll	a5, a5, a2
   13860: b3 e7 07 01  	or	a5, a5, a6
   13864: 9c e5        	sd	a5, 0x8(a1)
   13866: 19 bf        	j	0x1377c <_free_r+0x112>
   13868: 13 06 40 15  	li	a2, 0x154
   1386c: 63 6c d6 00  	bltu	a2, a3, 0x13884 <_free_r+0x21a>
   13870: 93 d6 f7 00  	srli	a3, a5, 0xf
   13874: 1b 85 86 07  	addiw	a0, a3, 0x78
   13878: 1b 15 15 00  	slliw	a0, a0, 0x1
   1387c: 1b 86 76 07  	addiw	a2, a3, 0x77
   13880: 0e 05        	slli	a0, a0, 0x3
   13882: f9 bd        	j	0x13760 <_free_r+0xf6>
   13884: 13 06 40 55  	li	a2, 0x554
   13888: 63 6c d6 00  	bltu	a2, a3, 0x138a0 <_free_r+0x236>
   1388c: 93 d6 27 01  	srli	a3, a5, 0x12
   13890: 1b 85 d6 07  	addiw	a0, a3, 0x7d
   13894: 1b 15 15 00  	slliw	a0, a0, 0x1
   13898: 1b 86 c6 07  	addiw	a2, a3, 0x7c
   1389c: 0e 05        	slli	a0, a0, 0x3
   1389e: c9 b5        	j	0x13760 <_free_r+0xf6>
   138a0: 13 05 00 7f  	li	a0, 0x7f0
   138a4: 13 06 e0 07  	li	a2, 0x7e
   138a8: 65 bd        	j	0x13760 <_free_r+0xf6>
   138aa: 93 e6 17 00  	ori	a3, a5, 0x1
   138ae: 14 e7        	sd	a3, 0x8(a4)
   138b0: 1c e2        	sd	a5, 0x0(a2)
   138b2: b5 b5        	j	0x1371e <_free_r+0xb4>

00000000000138b4 <_malloc_r>:
   138b4: 1d 71        	addi	sp, sp, -0x60
   138b6: a6 e4        	sd	s1, 0x48(sp)
   138b8: ca e0        	sd	s2, 0x40(sp)
   138ba: 86 ec        	sd	ra, 0x58(sp)
   138bc: a2 e8        	sd	s0, 0x50(sp)
   138be: 4e fc        	sd	s3, 0x38(sp)
   138c0: 93 84 75 01  	addi	s1, a1, 0x17
   138c4: 93 07 e0 02  	li	a5, 0x2e
   138c8: 2a 89        	mv	s2, a0
   138ca: 63 ee 97 04  	bltu	a5, s1, 0x13926 <_malloc_r+0x72>
   138ce: 93 07 00 02  	li	a5, 0x20
   138d2: 63 ec b7 18  	bltu	a5, a1, 0x13a6a <_malloc_r+0x1b6>
   138d6: ef 00 60 5e  	jal	0x13ebc <__malloc_lock>
   138da: 93 07 00 05  	li	a5, 0x50
   138de: 91 45        	li	a1, 0x4
   138e0: 93 04 00 02  	li	s1, 0x20
   138e4: b7 f9 01 00  	lui	s3, 0x1f
   138e8: 93 89 09 9c  	addi	s3, s3, -0x640
   138ec: ce 97        	add	a5, a5, s3
   138ee: 80 67        	ld	s0, 0x8(a5)
   138f0: 13 87 07 ff  	addi	a4, a5, -0x10
   138f4: 63 0f e4 26  	beq	s0, a4, 0x13b72 <_malloc_r+0x2be>
   138f8: 1c 64        	ld	a5, 0x8(s0)
   138fa: 14 6c        	ld	a3, 0x18(s0)
   138fc: 10 68        	ld	a2, 0x10(s0)
   138fe: f1 9b        	andi	a5, a5, -0x4
   13900: a2 97        	add	a5, a5, s0
   13902: 98 67        	ld	a4, 0x8(a5)
   13904: 14 ee        	sd	a3, 0x18(a2)
   13906: 90 ea        	sd	a2, 0x10(a3)
   13908: 13 67 17 00  	ori	a4, a4, 0x1
   1390c: 4a 85        	mv	a0, s2
   1390e: 98 e7        	sd	a4, 0x8(a5)
   13910: ef 00 e0 5a  	jal	0x13ebe <__malloc_unlock>
   13914: 13 05 04 01  	addi	a0, s0, 0x10
   13918: e6 60        	ld	ra, 0x58(sp)
   1391a: 46 64        	ld	s0, 0x50(sp)
   1391c: a6 64        	ld	s1, 0x48(sp)
   1391e: 06 69        	ld	s2, 0x40(sp)
   13920: e2 79        	ld	s3, 0x38(sp)
   13922: 25 61        	addi	sp, sp, 0x60
   13924: 82 80        	ret
   13926: b7 07 00 80  	lui	a5, 0x80000
   1392a: c1 98        	andi	s1, s1, -0x10
   1392c: 93 c7 f7 ff  	not	a5, a5
   13930: 63 ed 97 12  	bltu	a5, s1, 0x13a6a <_malloc_r+0x1b6>
   13934: 63 eb b4 12  	bltu	s1, a1, 0x13a6a <_malloc_r+0x1b6>
   13938: ef 00 40 58  	jal	0x13ebc <__malloc_lock>
   1393c: 93 07 70 1f  	li	a5, 0x1f7
   13940: 63 f4 97 32  	bgeu	a5, s1, 0x13c68 <_malloc_r+0x3b4>
   13944: 93 d7 94 00  	srli	a5, s1, 0x9
   13948: 63 86 07 12  	beqz	a5, 0x13a74 <_malloc_r+0x1c0>
   1394c: 11 47        	li	a4, 0x4
   1394e: 63 69 f7 26  	bltu	a4, a5, 0x13bc0 <_malloc_r+0x30c>
   13952: 93 d7 64 00  	srli	a5, s1, 0x6
   13956: 9b 85 97 03  	addiw	a1, a5, 0x39
   1395a: 1b 96 15 00  	slliw	a2, a1, 0x1
   1395e: 1b 88 87 03  	addiw	a6, a5, 0x38
   13962: 0e 06        	slli	a2, a2, 0x3
   13964: b7 f9 01 00  	lui	s3, 0x1f
   13968: 93 89 09 9c  	addi	s3, s3, -0x640
   1396c: 4e 96        	add	a2, a2, s3
   1396e: 00 66        	ld	s0, 0x8(a2)
   13970: 41 16        	addi	a2, a2, -0x10
   13972: 63 01 86 02  	beq	a2, s0, 0x13994 <_malloc_r+0xe0>
   13976: 7d 45        	li	a0, 0x1f
   13978: 39 a0        	j	0x13986 <_malloc_r+0xd2>
   1397a: 14 6c        	ld	a3, 0x18(s0)
   1397c: 63 59 07 1e  	bgez	a4, 0x13b6e <_malloc_r+0x2ba>
   13980: 63 0a d6 00  	beq	a2, a3, 0x13994 <_malloc_r+0xe0>
   13984: 36 84        	mv	s0, a3
   13986: 1c 64        	ld	a5, 0x8(s0)
   13988: f1 9b        	andi	a5, a5, -0x4
   1398a: 33 87 97 40  	sub	a4, a5, s1
   1398e: e3 56 e5 fe  	bge	a0, a4, 0x1397a <_malloc_r+0xc6>
   13992: c2 85        	mv	a1, a6
   13994: 03 b4 09 02  	ld	s0, 0x20(s3)
   13998: 37 f8 01 00  	lui	a6, 0x1f
   1399c: 13 08 08 9d  	addi	a6, a6, -0x630
   139a0: 63 04 04 1d  	beq	s0, a6, 0x13b68 <_malloc_r+0x2b4>
   139a4: 1c 64        	ld	a5, 0x8(s0)
   139a6: fd 46        	li	a3, 0x1f
   139a8: f1 9b        	andi	a5, a5, -0x4
   139aa: 33 87 97 40  	sub	a4, a5, s1
   139ae: 63 c6 e6 28  	blt	a3, a4, 0x13c3a <_malloc_r+0x386>
   139b2: 23 b4 09 03  	sd	a6, 0x28(s3)
   139b6: 23 b0 09 03  	sd	a6, 0x20(s3)
   139ba: 63 55 07 26  	bgez	a4, 0x13c24 <_malloc_r+0x370>
   139be: 13 07 f0 1f  	li	a4, 0x1ff
   139c2: 03 b5 89 00  	ld	a0, 0x8(s3)
   139c6: 63 6b f7 1a  	bltu	a4, a5, 0x13b7c <_malloc_r+0x2c8>
   139ca: 8d 83        	srli	a5, a5, 0x3
   139cc: 1b 87 17 00  	addiw	a4, a5, 0x1
   139d0: 1b 17 17 00  	slliw	a4, a4, 0x1
   139d4: 0e 07        	slli	a4, a4, 0x3
   139d6: 4e 97        	add	a4, a4, s3
   139d8: 10 63        	ld	a2, 0x0(a4)
   139da: 9b d7 27 40  	sraiw	a5, a5, 0x2
   139de: 85 46        	li	a3, 0x1
   139e0: b3 97 f6 00  	sll	a5, a3, a5
   139e4: 5d 8d        	or	a0, a0, a5
   139e6: 93 07 07 ff  	addi	a5, a4, -0x10
   139ea: 1c ec        	sd	a5, 0x18(s0)
   139ec: 10 e8        	sd	a2, 0x10(s0)
   139ee: 23 b4 a9 00  	sd	a0, 0x8(s3)
   139f2: 00 e3        	sd	s0, 0x0(a4)
   139f4: 00 ee        	sd	s0, 0x18(a2)
   139f6: 9b d7 25 40  	sraiw	a5, a1, 0x2
   139fa: 05 46        	li	a2, 0x1
   139fc: 33 16 f6 00  	sll	a2, a2, a5
   13a00: 63 61 c5 08  	bltu	a0, a2, 0x13a82 <_malloc_r+0x1ce>
   13a04: b3 77 a6 00  	and	a5, a2, a0
   13a08: 81 ef        	bnez	a5, 0x13a20 <_malloc_r+0x16c>
   13a0a: 06 06        	slli	a2, a2, 0x1
   13a0c: f1 99        	andi	a1, a1, -0x4
   13a0e: b3 77 a6 00  	and	a5, a2, a0
   13a12: 91 25        	addiw	a1, a1, 0x4
   13a14: 91 e7        	bnez	a5, 0x13a20 <_malloc_r+0x16c>
   13a16: 06 06        	slli	a2, a2, 0x1
   13a18: b3 77 a6 00  	and	a5, a2, a0
   13a1c: 91 25        	addiw	a1, a1, 0x4
   13a1e: e5 df        	beqz	a5, 0x13a16 <_malloc_r+0x162>
   13a20: fd 48        	li	a7, 0x1f
   13a22: 1b 83 15 00  	addiw	t1, a1, 0x1
   13a26: 1b 13 13 00  	slliw	t1, t1, 0x1
   13a2a: 0e 03        	slli	t1, t1, 0x3
   13a2c: 41 13        	addi	t1, t1, -0x10
   13a2e: 4e 93        	add	t1, t1, s3
   13a30: 1a 85        	mv	a0, t1
   13a32: 1c 6d        	ld	a5, 0x18(a0)
   13a34: 2e 8e        	mv	t3, a1
   13a36: 63 06 f5 1a  	beq	a0, a5, 0x13be2 <_malloc_r+0x32e>
   13a3a: 98 67        	ld	a4, 0x8(a5)
   13a3c: 3e 84        	mv	s0, a5
   13a3e: 9c 6f        	ld	a5, 0x18(a5)
   13a40: 71 9b        	andi	a4, a4, -0x4
   13a42: b3 06 97 40  	sub	a3, a4, s1
   13a46: 63 c5 d8 1a  	blt	a7, a3, 0x13bf0 <_malloc_r+0x33c>
   13a4a: e3 c6 06 fe  	bltz	a3, 0x13a36 <_malloc_r+0x182>
   13a4e: 22 97        	add	a4, a4, s0
   13a50: 14 67        	ld	a3, 0x8(a4)
   13a52: 10 68        	ld	a2, 0x10(s0)
   13a54: 4a 85        	mv	a0, s2
   13a56: 93 e6 16 00  	ori	a3, a3, 0x1
   13a5a: 14 e7        	sd	a3, 0x8(a4)
   13a5c: 1c ee        	sd	a5, 0x18(a2)
   13a5e: 90 eb        	sd	a2, 0x10(a5)
   13a60: ef 00 e0 45  	jal	0x13ebe <__malloc_unlock>
   13a64: 13 05 04 01  	addi	a0, s0, 0x10
   13a68: 45 bd        	j	0x13918 <_malloc_r+0x64>
   13a6a: b1 47        	li	a5, 0xc
   13a6c: 23 20 f9 00  	sw	a5, 0x0(s2)
   13a70: 01 45        	li	a0, 0x0
   13a72: 5d b5        	j	0x13918 <_malloc_r+0x64>
   13a74: 13 06 00 40  	li	a2, 0x400
   13a78: 93 05 00 04  	li	a1, 0x40
   13a7c: 13 08 f0 03  	li	a6, 0x3f
   13a80: d5 b5        	j	0x13964 <_malloc_r+0xb0>
   13a82: 03 b4 09 01  	ld	s0, 0x10(s3)
   13a86: 56 f4        	sd	s5, 0x28(sp)
   13a88: 1c 64        	ld	a5, 0x8(s0)
   13a8a: 93 fa c7 ff  	andi	s5, a5, -0x4
   13a8e: 63 e7 9a 00  	bltu	s5, s1, 0x13a9c <_malloc_r+0x1e8>
   13a92: 33 87 9a 40  	sub	a4, s5, s1
   13a96: fd 47        	li	a5, 0x1f
   13a98: 63 c2 e7 0a  	blt	a5, a4, 0x13b3c <_malloc_r+0x288>
   13a9c: 66 e4        	sd	s9, 0x8(sp)
   13a9e: 52 f8        	sd	s4, 0x30(sp)
   13aa0: 03 b7 81 22  	ld	a4, 0x228(gp)
   13aa4: 03 ba 01 26  	ld	s4, 0x260(gp)
   13aa8: 62 e8        	sd	s8, 0x10(sp)
   13aaa: 5a f0        	sd	s6, 0x20(sp)
   13aac: fd 57        	li	a5, -0x1
   13aae: 33 0c 54 01  	add	s8, s0, s5
   13ab2: 26 9a        	add	s4, s4, s1
   13ab4: 63 08 f7 2e  	beq	a4, a5, 0x13da4 <_malloc_r+0x4f0>
   13ab8: 85 67        	lui	a5, 0x1
   13aba: fd 07        	addi	a5, a5, 0x1f
   13abc: 3e 9a        	add	s4, s4, a5
   13abe: fd 77        	lui	a5, 0xfffff
   13ac0: 33 7a fa 00  	and	s4, s4, a5
   13ac4: d2 85        	mv	a1, s4
   13ac6: 4a 85        	mv	a0, s2
   13ac8: ef 30 f0 03  	jal	0x17306 <_sbrk_r>
   13acc: fd 57        	li	a5, -0x1
   13ace: 2a 8b        	mv	s6, a0
   13ad0: 63 00 f5 36  	beq	a0, a5, 0x13e30 <_malloc_r+0x57c>
   13ad4: 5e ec        	sd	s7, 0x18(sp)
   13ad6: 63 6c 85 1b  	bltu	a0, s8, 0x13c8e <_malloc_r+0x3da>
   13ada: 93 8b 01 4c  	addi	s7, gp, 0x4c0
   13ade: 83 a7 0b 00  	lw	a5, 0x0(s7)
   13ae2: 3b 87 47 01  	addw	a4, a5, s4
   13ae6: 23 a0 eb 00  	sw	a4, 0x0(s7)
   13aea: ba 86        	mv	a3, a4
   13aec: 63 17 ac 20  	bne	s8, a0, 0x13cfa <_malloc_r+0x446>
   13af0: 93 17 45 03  	slli	a5, a0, 0x34
   13af4: 63 93 07 20  	bnez	a5, 0x13cfa <_malloc_r+0x446>
   13af8: 03 bb 09 01  	ld	s6, 0x10(s3)
   13afc: b3 87 4a 01  	add	a5, s5, s4
   13b00: 93 e7 17 00  	ori	a5, a5, 0x1
   13b04: 23 34 fb 00  	sd	a5, 0x8(s6)
   13b08: 03 b6 81 25  	ld	a2, 0x258(gp)
   13b0c: 63 74 e6 00  	bgeu	a2, a4, 0x13b14 <_malloc_r+0x260>
   13b10: 23 bc e1 24  	sd	a4, 0x258(gp)
   13b14: 03 b6 01 25  	ld	a2, 0x250(gp)
   13b18: 63 74 e6 00  	bgeu	a2, a4, 0x13b20 <_malloc_r+0x26c>
   13b1c: 23 b8 e1 24  	sd	a4, 0x250(gp)
   13b20: e2 6b        	ld	s7, 0x18(sp)
   13b22: 5a 84        	mv	s0, s6
   13b24: f1 9b        	andi	a5, a5, -0x4
   13b26: 33 87 97 40  	sub	a4, a5, s1
   13b2a: 63 ed 97 2a  	bltu	a5, s1, 0x13de4 <_malloc_r+0x530>
   13b2e: fd 47        	li	a5, 0x1f
   13b30: 63 da e7 2a  	bge	a5, a4, 0x13de4 <_malloc_r+0x530>
   13b34: 42 7a        	ld	s4, 0x30(sp)
   13b36: 02 7b        	ld	s6, 0x20(sp)
   13b38: 42 6c        	ld	s8, 0x10(sp)
   13b3a: a2 6c        	ld	s9, 0x8(sp)
   13b3c: 93 e7 14 00  	ori	a5, s1, 0x1
   13b40: 1c e4        	sd	a5, 0x8(s0)
   13b42: a2 94        	add	s1, s1, s0
   13b44: 23 b8 99 00  	sd	s1, 0x10(s3)
   13b48: 13 67 17 00  	ori	a4, a4, 0x1
   13b4c: 4a 85        	mv	a0, s2
   13b4e: 98 e4        	sd	a4, 0x8(s1)
   13b50: ef 00 e0 36  	jal	0x13ebe <__malloc_unlock>
   13b54: e6 60        	ld	ra, 0x58(sp)
   13b56: 13 05 04 01  	addi	a0, s0, 0x10
   13b5a: 46 64        	ld	s0, 0x50(sp)
   13b5c: a2 7a        	ld	s5, 0x28(sp)
   13b5e: a6 64        	ld	s1, 0x48(sp)
   13b60: 06 69        	ld	s2, 0x40(sp)
   13b62: e2 79        	ld	s3, 0x38(sp)
   13b64: 25 61        	addi	sp, sp, 0x60
   13b66: 82 80        	ret
   13b68: 03 b5 89 00  	ld	a0, 0x8(s3)
   13b6c: 69 b5        	j	0x139f6 <_malloc_r+0x142>
   13b6e: 10 68        	ld	a2, 0x10(s0)
   13b70: 41 bb        	j	0x13900 <_malloc_r+0x4c>
   13b72: 80 6f        	ld	s0, 0x18(a5)
   13b74: 89 25        	addiw	a1, a1, 0x2
   13b76: e3 8f 87 e0  	beq	a5, s0, 0x13994 <_malloc_r+0xe0>
   13b7a: bd bb        	j	0x138f8 <_malloc_r+0x44>
   13b7c: 13 d7 97 00  	srli	a4, a5, 0x9
   13b80: 91 46        	li	a3, 0x4
   13b82: 63 fc e6 0e  	bgeu	a3, a4, 0x13c7a <_malloc_r+0x3c6>
   13b86: d1 46        	li	a3, 0x14
   13b88: 63 e8 e6 26  	bltu	a3, a4, 0x13df8 <_malloc_r+0x544>
   13b8c: 1b 06 c7 05  	addiw	a2, a4, 0x5c
   13b90: 1b 16 16 00  	slliw	a2, a2, 0x1
   13b94: 9b 06 b7 05  	addiw	a3, a4, 0x5b
   13b98: 0e 06        	slli	a2, a2, 0x3
   13b9a: 4e 96        	add	a2, a2, s3
   13b9c: 18 62        	ld	a4, 0x0(a2)
   13b9e: 41 16        	addi	a2, a2, -0x10
   13ba0: 63 16 e6 00  	bne	a2, a4, 0x13bac <_malloc_r+0x2f8>
   13ba4: 19 a4        	j	0x13daa <_malloc_r+0x4f6>
   13ba6: 18 6b        	ld	a4, 0x10(a4)
   13ba8: 63 06 e6 00  	beq	a2, a4, 0x13bb4 <_malloc_r+0x300>
   13bac: 14 67        	ld	a3, 0x8(a4)
   13bae: f1 9a        	andi	a3, a3, -0x4
   13bb0: e3 eb d7 fe  	bltu	a5, a3, 0x13ba6 <_malloc_r+0x2f2>
   13bb4: 10 6f        	ld	a2, 0x18(a4)
   13bb6: 10 ec        	sd	a2, 0x18(s0)
   13bb8: 18 e8        	sd	a4, 0x10(s0)
   13bba: 00 ea        	sd	s0, 0x10(a2)
   13bbc: 00 ef        	sd	s0, 0x18(a4)
   13bbe: 25 bd        	j	0x139f6 <_malloc_r+0x142>
   13bc0: 51 47        	li	a4, 0x14
   13bc2: 63 7d f7 0c  	bgeu	a4, a5, 0x13c9c <_malloc_r+0x3e8>
   13bc6: 13 07 40 05  	li	a4, 0x54
   13bca: 63 65 f7 24  	bltu	a4, a5, 0x13e14 <_malloc_r+0x560>
   13bce: 93 d7 c4 00  	srli	a5, s1, 0xc
   13bd2: 9b 85 f7 06  	addiw	a1, a5, 0x6f
   13bd6: 1b 96 15 00  	slliw	a2, a1, 0x1
   13bda: 1b 88 e7 06  	addiw	a6, a5, 0x6e
   13bde: 0e 06        	slli	a2, a2, 0x3
   13be0: 51 b3        	j	0x13964 <_malloc_r+0xb0>
   13be2: 05 2e        	addiw	t3, t3, 0x1
   13be4: 93 77 3e 00  	andi	a5, t3, 0x3
   13be8: 41 05        	addi	a0, a0, 0x10
   13bea: f1 c7        	beqz	a5, 0x13cb6 <_malloc_r+0x402>
   13bec: 1c 6d        	ld	a5, 0x18(a0)
   13bee: a1 b5        	j	0x13a36 <_malloc_r+0x182>
   13bf0: 10 68        	ld	a2, 0x10(s0)
   13bf2: 93 e5 14 00  	ori	a1, s1, 0x1
   13bf6: 0c e4        	sd	a1, 0x8(s0)
   13bf8: 1c ee        	sd	a5, 0x18(a2)
   13bfa: 90 eb        	sd	a2, 0x10(a5)
   13bfc: a2 94        	add	s1, s1, s0
   13bfe: 23 b4 99 02  	sd	s1, 0x28(s3)
   13c02: 23 b0 99 02  	sd	s1, 0x20(s3)
   13c06: 93 e7 16 00  	ori	a5, a3, 0x1
   13c0a: 23 bc 04 01  	sd	a6, 0x18(s1)
   13c0e: 23 b8 04 01  	sd	a6, 0x10(s1)
   13c12: 9c e4        	sd	a5, 0x8(s1)
   13c14: 22 97        	add	a4, a4, s0
   13c16: 4a 85        	mv	a0, s2
   13c18: 14 e3        	sd	a3, 0x0(a4)
   13c1a: ef 00 40 2a  	jal	0x13ebe <__malloc_unlock>
   13c1e: 13 05 04 01  	addi	a0, s0, 0x10
   13c22: dd b9        	j	0x13918 <_malloc_r+0x64>
   13c24: a2 97        	add	a5, a5, s0
   13c26: 98 67        	ld	a4, 0x8(a5)
   13c28: 4a 85        	mv	a0, s2
   13c2a: 13 67 17 00  	ori	a4, a4, 0x1
   13c2e: 98 e7        	sd	a4, 0x8(a5)
   13c30: ef 00 e0 28  	jal	0x13ebe <__malloc_unlock>
   13c34: 13 05 04 01  	addi	a0, s0, 0x10
   13c38: c5 b1        	j	0x13918 <_malloc_r+0x64>
   13c3a: 93 e6 14 00  	ori	a3, s1, 0x1
   13c3e: 14 e4        	sd	a3, 0x8(s0)
   13c40: a2 94        	add	s1, s1, s0
   13c42: 23 b4 99 02  	sd	s1, 0x28(s3)
   13c46: 23 b0 99 02  	sd	s1, 0x20(s3)
   13c4a: 93 66 17 00  	ori	a3, a4, 0x1
   13c4e: 23 bc 04 01  	sd	a6, 0x18(s1)
   13c52: 23 b8 04 01  	sd	a6, 0x10(s1)
   13c56: 94 e4        	sd	a3, 0x8(s1)
   13c58: a2 97        	add	a5, a5, s0
   13c5a: 4a 85        	mv	a0, s2
   13c5c: 98 e3        	sd	a4, 0x0(a5)
   13c5e: ef 00 00 26  	jal	0x13ebe <__malloc_unlock>
   13c62: 13 05 04 01  	addi	a0, s0, 0x10
   13c66: 4d b9        	j	0x13918 <_malloc_r+0x64>
   13c68: 93 d5 34 00  	srli	a1, s1, 0x3
   13c6c: 9b 87 15 00  	addiw	a5, a1, 0x1
   13c70: 9b 97 17 00  	slliw	a5, a5, 0x1
   13c74: 81 25        	sext.w	a1, a1
   13c76: 8e 07        	slli	a5, a5, 0x3
   13c78: b5 b1        	j	0x138e4 <_malloc_r+0x30>
   13c7a: 13 d7 67 00  	srli	a4, a5, 0x6
   13c7e: 1b 06 97 03  	addiw	a2, a4, 0x39
   13c82: 1b 16 16 00  	slliw	a2, a2, 0x1
   13c86: 9b 06 87 03  	addiw	a3, a4, 0x38
   13c8a: 0e 06        	slli	a2, a2, 0x3
   13c8c: 39 b7        	j	0x13b9a <_malloc_r+0x2e6>
   13c8e: 63 0e 34 05  	beq	s0, s3, 0x13cea <_malloc_r+0x436>
   13c92: 03 b4 09 01  	ld	s0, 0x10(s3)
   13c96: e2 6b        	ld	s7, 0x18(sp)
   13c98: 1c 64        	ld	a5, 0x8(s0)
   13c9a: 69 b5        	j	0x13b24 <_malloc_r+0x270>
   13c9c: 9b 85 c7 05  	addiw	a1, a5, 0x5c
   13ca0: 1b 96 15 00  	slliw	a2, a1, 0x1
   13ca4: 1b 88 b7 05  	addiw	a6, a5, 0x5b
   13ca8: 0e 06        	slli	a2, a2, 0x3
   13caa: 6d b9        	j	0x13964 <_malloc_r+0xb0>
   13cac: 83 37 03 01  	ld	a5, 0x10(t1)
   13cb0: fd 35        	addiw	a1, a1, -0x1
   13cb2: 63 92 67 20  	bne	a5, t1, 0x13eb6 <_malloc_r+0x602>
   13cb6: 93 f7 35 00  	andi	a5, a1, 0x3
   13cba: 41 13        	addi	t1, t1, -0x10
   13cbc: e5 fb        	bnez	a5, 0x13cac <_malloc_r+0x3f8>
   13cbe: 03 b7 89 00  	ld	a4, 0x8(s3)
   13cc2: 93 47 f6 ff  	not	a5, a2
   13cc6: f9 8f        	and	a5, a5, a4
   13cc8: 23 b4 f9 00  	sd	a5, 0x8(s3)
   13ccc: 06 06        	slli	a2, a2, 0x1
   13cce: e3 ea c7 da  	bltu	a5, a2, 0x13a82 <_malloc_r+0x1ce>
   13cd2: e3 08 06 da  	beqz	a2, 0x13a82 <_malloc_r+0x1ce>
   13cd6: 33 77 f6 00  	and	a4, a2, a5
   13cda: 11 e7        	bnez	a4, 0x13ce6 <_malloc_r+0x432>
   13cdc: 06 06        	slli	a2, a2, 0x1
   13cde: 33 77 f6 00  	and	a4, a2, a5
   13ce2: 11 2e        	addiw	t3, t3, 0x4
   13ce4: 65 df        	beqz	a4, 0x13cdc <_malloc_r+0x428>
   13ce6: f2 85        	mv	a1, t3
   13ce8: 2d bb        	j	0x13a22 <_malloc_r+0x16e>
   13cea: 93 8b 01 4c  	addi	s7, gp, 0x4c0
   13cee: 83 a7 0b 00  	lw	a5, 0x0(s7)
   13cf2: bb 86 47 01  	addw	a3, a5, s4
   13cf6: 23 a0 db 00  	sw	a3, 0x0(s7)
   13cfa: 03 b7 81 22  	ld	a4, 0x228(gp)
   13cfe: fd 57        	li	a5, -0x1
   13d00: 63 0c f7 12  	beq	a4, a5, 0x13e38 <_malloc_r+0x584>
   13d04: b3 07 8b 41  	sub	a5, s6, s8
   13d08: b5 9f        	addw	a5, a5, a3
   13d0a: 23 a0 fb 00  	sw	a5, 0x0(s7)
   13d0e: 93 7c fb 00  	andi	s9, s6, 0xf
   13d12: 63 85 0c 0a  	beqz	s9, 0x13dbc <_malloc_r+0x508>
   13d16: 33 0b 9b 41  	sub	s6, s6, s9
   13d1a: 05 67        	lui	a4, 0x1
   13d1c: 41 07        	addi	a4, a4, 0x10
   13d1e: 41 0b        	addi	s6, s6, 0x10
   13d20: 33 0c 97 41  	sub	s8, a4, s9
   13d24: 5a 9a        	add	s4, s4, s6
   13d26: 33 0c 4c 41  	sub	s8, s8, s4
   13d2a: 52 1c        	slli	s8, s8, 0x34
   13d2c: 13 5c 4c 03  	srli	s8, s8, 0x34
   13d30: e2 85        	mv	a1, s8
   13d32: 4a 85        	mv	a0, s2
   13d34: ef 30 20 5d  	jal	0x17306 <_sbrk_r>
   13d38: fd 57        	li	a5, -0x1
   13d3a: 63 0e f5 12  	beq	a0, a5, 0x13e76 <_malloc_r+0x5c2>
   13d3e: 33 05 65 41  	sub	a0, a0, s6
   13d42: 9b 06 0c 00  	sext.w	a3, s8
   13d46: 33 0a 85 01  	add	s4, a0, s8
   13d4a: 03 a7 0b 00  	lw	a4, 0x0(s7)
   13d4e: 23 b8 69 01  	sd	s6, 0x10(s3)
   13d52: 93 67 1a 00  	ori	a5, s4, 0x1
   13d56: 35 9f        	addw	a4, a4, a3
   13d58: 23 a0 eb 00  	sw	a4, 0x0(s7)
   13d5c: 23 34 fb 00  	sd	a5, 0x8(s6)
   13d60: e3 04 34 db  	beq	s0, s3, 0x13b08 <_malloc_r+0x254>
   13d64: 7d 46        	li	a2, 0x1f
   13d66: 63 7b 56 07  	bgeu	a2, s5, 0x13ddc <_malloc_r+0x528>
   13d6a: 14 64        	ld	a3, 0x8(s0)
   13d6c: 93 87 8a fe  	addi	a5, s5, -0x18
   13d70: c1 9b        	andi	a5, a5, -0x10
   13d72: 85 8a        	andi	a3, a3, 0x1
   13d74: dd 8e        	or	a3, a3, a5
   13d76: 14 e4        	sd	a3, 0x8(s0)
   13d78: a5 45        	li	a1, 0x9
   13d7a: b3 06 f4 00  	add	a3, s0, a5
   13d7e: 8c e6        	sd	a1, 0x8(a3)
   13d80: 8c ea        	sd	a1, 0x10(a3)
   13d82: 63 65 f6 00  	bltu	a2, a5, 0x13d8c <_malloc_r+0x4d8>
   13d86: 83 37 8b 00  	ld	a5, 0x8(s6)
   13d8a: bd bb        	j	0x13b08 <_malloc_r+0x254>
   13d8c: 93 05 04 01  	addi	a1, s0, 0x10
   13d90: 4a 85        	mv	a0, s2
   13d92: ef f0 9f 8d  	jal	0x1366a <_free_r>
   13d96: 03 bb 09 01  	ld	s6, 0x10(s3)
   13d9a: 03 a7 0b 00  	lw	a4, 0x0(s7)
   13d9e: 83 37 8b 00  	ld	a5, 0x8(s6)
   13da2: 9d b3        	j	0x13b08 <_malloc_r+0x254>
   13da4: 13 0a 0a 02  	addi	s4, s4, 0x20
   13da8: 31 bb        	j	0x13ac4 <_malloc_r+0x210>
   13daa: 9b d6 26 40  	sraiw	a3, a3, 0x2
   13dae: 85 47        	li	a5, 0x1
   13db0: b3 97 d7 00  	sll	a5, a5, a3
   13db4: 5d 8d        	or	a0, a0, a5
   13db6: 23 b4 a9 00  	sd	a0, 0x8(s3)
   13dba: f5 bb        	j	0x13bb6 <_malloc_r+0x302>
   13dbc: 33 0c 4b 01  	add	s8, s6, s4
   13dc0: 33 0c 80 41  	neg	s8, s8
   13dc4: 52 1c        	slli	s8, s8, 0x34
   13dc6: 13 5c 4c 03  	srli	s8, s8, 0x34
   13dca: e2 85        	mv	a1, s8
   13dcc: 4a 85        	mv	a0, s2
   13dce: ef 30 80 53  	jal	0x17306 <_sbrk_r>
   13dd2: fd 57        	li	a5, -0x1
   13dd4: 81 46        	li	a3, 0x0
   13dd6: e3 14 f5 f6  	bne	a0, a5, 0x13d3e <_malloc_r+0x48a>
   13dda: 85 bf        	j	0x13d4a <_malloc_r+0x496>
   13ddc: e2 6b        	ld	s7, 0x18(sp)
   13dde: 85 47        	li	a5, 0x1
   13de0: 23 34 fb 00  	sd	a5, 0x8(s6)
   13de4: 4a 85        	mv	a0, s2
   13de6: ef 00 80 0d  	jal	0x13ebe <__malloc_unlock>
   13dea: 01 45        	li	a0, 0x0
   13dec: 42 7a        	ld	s4, 0x30(sp)
   13dee: a2 7a        	ld	s5, 0x28(sp)
   13df0: 02 7b        	ld	s6, 0x20(sp)
   13df2: 42 6c        	ld	s8, 0x10(sp)
   13df4: a2 6c        	ld	s9, 0x8(sp)
   13df6: 0d b6        	j	0x13918 <_malloc_r+0x64>
   13df8: 93 06 40 05  	li	a3, 0x54
   13dfc: 63 e1 e6 04  	bltu	a3, a4, 0x13e3e <_malloc_r+0x58a>
   13e00: 13 d7 c7 00  	srli	a4, a5, 0xc
   13e04: 1b 06 f7 06  	addiw	a2, a4, 0x6f
   13e08: 1b 16 16 00  	slliw	a2, a2, 0x1
   13e0c: 9b 06 e7 06  	addiw	a3, a4, 0x6e
   13e10: 0e 06        	slli	a2, a2, 0x3
   13e12: 61 b3        	j	0x13b9a <_malloc_r+0x2e6>
   13e14: 13 07 40 15  	li	a4, 0x154
   13e18: 63 61 f7 04  	bltu	a4, a5, 0x13e5a <_malloc_r+0x5a6>
   13e1c: 93 d7 f4 00  	srli	a5, s1, 0xf
   13e20: 9b 85 87 07  	addiw	a1, a5, 0x78
   13e24: 1b 96 15 00  	slliw	a2, a1, 0x1
   13e28: 1b 88 77 07  	addiw	a6, a5, 0x77
   13e2c: 0e 06        	slli	a2, a2, 0x3
   13e2e: 1d be        	j	0x13964 <_malloc_r+0xb0>
   13e30: 03 b4 09 01  	ld	s0, 0x10(s3)
   13e34: 1c 64        	ld	a5, 0x8(s0)
   13e36: fd b1        	j	0x13b24 <_malloc_r+0x270>
   13e38: 23 b4 61 23  	sd	s6, 0x228(gp)
   13e3c: c9 bd        	j	0x13d0e <_malloc_r+0x45a>
   13e3e: 93 06 40 15  	li	a3, 0x154
   13e42: 63 e0 e6 04  	bltu	a3, a4, 0x13e82 <_malloc_r+0x5ce>
   13e46: 13 d7 f7 00  	srli	a4, a5, 0xf
   13e4a: 1b 06 87 07  	addiw	a2, a4, 0x78
   13e4e: 1b 16 16 00  	slliw	a2, a2, 0x1
   13e52: 9b 06 77 07  	addiw	a3, a4, 0x77
   13e56: 0e 06        	slli	a2, a2, 0x3
   13e58: 89 b3        	j	0x13b9a <_malloc_r+0x2e6>
   13e5a: 13 07 40 55  	li	a4, 0x554
   13e5e: 63 60 f7 04  	bltu	a4, a5, 0x13e9e <_malloc_r+0x5ea>
   13e62: 93 d7 24 01  	srli	a5, s1, 0x12
   13e66: 9b 85 d7 07  	addiw	a1, a5, 0x7d
   13e6a: 1b 96 15 00  	slliw	a2, a1, 0x1
   13e6e: 1b 88 c7 07  	addiw	a6, a5, 0x7c
   13e72: 0e 06        	slli	a2, a2, 0x3
   13e74: c5 bc        	j	0x13964 <_malloc_r+0xb0>
   13e76: c1 1c        	addi	s9, s9, -0x10
   13e78: 66 9a        	add	s4, s4, s9
   13e7a: 33 0a 6a 41  	sub	s4, s4, s6
   13e7e: 81 46        	li	a3, 0x0
   13e80: e9 b5        	j	0x13d4a <_malloc_r+0x496>
   13e82: 93 06 40 55  	li	a3, 0x554
   13e86: 63 e3 e6 02  	bltu	a3, a4, 0x13eac <_malloc_r+0x5f8>
   13e8a: 13 d7 27 01  	srli	a4, a5, 0x12
   13e8e: 1b 06 d7 07  	addiw	a2, a4, 0x7d
   13e92: 1b 16 16 00  	slliw	a2, a2, 0x1
   13e96: 9b 06 c7 07  	addiw	a3, a4, 0x7c
   13e9a: 0e 06        	slli	a2, a2, 0x3
   13e9c: fd b9        	j	0x13b9a <_malloc_r+0x2e6>
   13e9e: 13 06 00 7f  	li	a2, 0x7f0
   13ea2: 93 05 f0 07  	li	a1, 0x7f
   13ea6: 13 08 e0 07  	li	a6, 0x7e
   13eaa: 6d bc        	j	0x13964 <_malloc_r+0xb0>
   13eac: 13 06 00 7f  	li	a2, 0x7f0
   13eb0: 93 06 e0 07  	li	a3, 0x7e
   13eb4: dd b1        	j	0x13b9a <_malloc_r+0x2e6>
   13eb6: 83 b7 89 00  	ld	a5, 0x8(s3)
   13eba: 09 bd        	j	0x13ccc <_malloc_r+0x418>

0000000000013ebc <__malloc_lock>:
   13ebc: 82 80        	ret

0000000000013ebe <__malloc_unlock>:
   13ebe: 82 80        	ret

0000000000013ec0 <_vfprintf_r>:
   13ec0: 13 01 01 db  	addi	sp, sp, -0x250
   13ec4: 23 34 11 24  	sd	ra, 0x248(sp)
   13ec8: 23 30 81 24  	sd	s0, 0x240(sp)
   13ecc: 23 38 21 23  	sd	s2, 0x230(sp)
   13ed0: e6 ff        	sd	s9, 0x1f8(sp)
   13ed2: 2e 89        	mv	s2, a1
   13ed4: b2 8c        	mv	s9, a2
   13ed6: 36 f0        	sd	a3, 0x20(sp)
   13ed8: 2a 84        	mv	s0, a0
   13eda: 2a e4        	sd	a0, 0x8(sp)
   13edc: ef 30 e0 41  	jal	0x172fa <_localeconv_r>
   13ee0: 1c 61        	ld	a5, 0x0(a0)
   13ee2: 3e 85        	mv	a0, a5
   13ee4: be ec        	sd	a5, 0x58(sp)
   13ee6: ef f0 4f d3  	jal	0x1341a <strlen>
   13eea: aa e8        	sd	a0, 0x50(sp)
   13eec: 82 e9        	sd	zero, 0xd0(sp)
   13eee: 82 ed        	sd	zero, 0xd8(sp)
   13ef0: 09 c4        	beqz	s0, 0x13efa <_vfprintf_r+0x3a>
   13ef2: 38 64        	ld	a4, 0x48(s0)
   13ef4: 19 e3        	bnez	a4, 0x13efa <_vfprintf_r+0x3a>
   13ef6: 6f 10 c0 21  	j	0x15112 <_vfprintf_r+0x1252>
   13efa: 03 17 09 01  	lh	a4, 0x10(s2)
   13efe: 93 16 27 03  	slli	a3, a4, 0x32
   13f02: 63 c1 06 02  	bltz	a3, 0x13f24 <_vfprintf_r+0x64>
   13f06: 83 26 c9 0a  	lw	a3, 0xac(s2)
   13f0a: 89 65        	lui	a1, 0x2
   13f0c: 79 76        	lui	a2, 0xffffe
   13f0e: 4d 8f        	or	a4, a4, a1
   13f10: 7d 16        	addi	a2, a2, -0x1
   13f12: 1b 17 07 01  	slliw	a4, a4, 0x10
   13f16: 1b 57 07 41  	sraiw	a4, a4, 0x10
   13f1a: f1 8e        	and	a3, a3, a2
   13f1c: 23 18 e9 00  	sh	a4, 0x10(s2)
   13f20: 23 26 d9 0a  	sw	a3, 0xac(s2)
   13f24: 93 76 87 00  	andi	a3, a4, 0x8
   13f28: 63 8e 06 24  	beqz	a3, 0x14184 <_vfprintf_r+0x2c4>
   13f2c: 83 36 89 01  	ld	a3, 0x18(s2)
   13f30: 63 8a 06 24  	beqz	a3, 0x14184 <_vfprintf_r+0x2c4>
   13f34: 69 8b        	andi	a4, a4, 0x1a
   13f36: a9 46        	li	a3, 0xa
   13f38: 63 03 d7 26  	beq	a4, a3, 0x1419e <_vfprintf_r+0x2de>
   13f3c: 23 30 41 23  	sd	s4, 0x220(sp)
   13f40: 23 3c 51 21  	sd	s5, 0x218(sp)
   13f44: ea fb        	sd	s10, 0x1f0(sp)
   13f46: 75 67        	lui	a4, 0x1d
   13f48: 23 3c 91 22  	sd	s1, 0x238(sp)
   13f4c: 23 34 31 23  	sd	s3, 0x228(sp)
   13f50: 23 38 61 21  	sd	s6, 0x210(sp)
   13f54: 23 34 71 21  	sd	s7, 0x208(sp)
   13f58: 23 30 81 21  	sd	s8, 0x200(sp)
   13f5c: ee f7        	sd	s11, 0x1e8(sp)
   13f5e: 66 8d        	mv	s10, s9
   13f60: 93 07 07 fb  	addi	a5, a4, -0x50
   13f64: 03 47 0d 00  	lbu	a4, 0x0(s10)
   13f68: 13 0a 01 16  	addi	s4, sp, 0x160
   13f6c: f5 6a        	lui	s5, 0x1d
   13f6e: d2 f1        	sd	s4, 0xe0(sp)
   13f70: 82 f9        	sd	zero, 0xf0(sp)
   13f72: 82 d5        	sw	zero, 0xe8(sp)
   13f74: 02 fc        	sd	zero, 0x38(sp)
   13f76: 82 f0        	sd	zero, 0x60(sp)
   13f78: 82 f8        	sd	zero, 0x70(sp)
   13f7a: 02 e1        	sd	zero, 0x80(sp)
   13f7c: 02 e5        	sd	zero, 0x88(sp)
   13f7e: 82 fc        	sd	zero, 0x78(sp)
   13f80: 02 e8        	sd	zero, 0x10(sp)
   13f82: 3e f4        	sd	a5, 0x28(sp)
   13f84: 52 84        	mv	s0, s4
   13f86: 93 8a 0a 12  	addi	s5, s5, 0x120
   13f8a: 63 01 07 1a  	beqz	a4, 0x1412c <_vfprintf_r+0x26c>
   13f8e: ea 89        	mv	s3, s10
   13f90: 93 06 50 02  	li	a3, 0x25
   13f94: 63 0d d7 2c  	beq	a4, a3, 0x1426e <_vfprintf_r+0x3ae>
   13f98: 03 c7 19 00  	lbu	a4, 0x1(s3)
   13f9c: 85 09        	addi	s3, s3, 0x1
   13f9e: 7d fb        	bnez	a4, 0x13f94 <_vfprintf_r+0xd4>
   13fa0: bb 84 a9 41  	subw	s1, s3, s10
   13fa4: 63 84 04 18  	beqz	s1, 0x1412c <_vfprintf_r+0x26c>
   13fa8: 2e 57        	lw	a4, 0xe8(sp)
   13faa: ce 76        	ld	a3, 0xf0(sp)
   13fac: 23 30 a4 01  	sd	s10, 0x0(s0)
   13fb0: 05 27        	addiw	a4, a4, 0x1
   13fb2: a6 96        	add	a3, a3, s1
   13fb4: 04 e4        	sd	s1, 0x8(s0)
   13fb6: b6 f9        	sd	a3, 0xf0(sp)
   13fb8: ba d5        	sw	a4, 0xe8(sp)
   13fba: 9b 06 07 00  	sext.w	a3, a4
   13fbe: 1d 47        	li	a4, 0x7
   13fc0: 41 04        	addi	s0, s0, 0x10
   13fc2: 63 4d d7 2a  	blt	a4, a3, 0x1427c <_vfprintf_r+0x3bc>
   13fc6: c2 67        	ld	a5, 0x10(sp)
   13fc8: 03 c7 09 00  	lbu	a4, 0x0(s3)
   13fcc: a5 9f        	addw	a5, a5, s1
   13fce: 3e e8        	sd	a5, 0x10(sp)
   13fd0: 63 0e 07 14  	beqz	a4, 0x1412c <_vfprintf_r+0x26c>
   13fd4: 03 c3 19 00  	lbu	t1, 0x1(s3)
   13fd8: a3 07 01 0a  	sb	zero, 0xaf(sp)
   13fdc: 85 09        	addi	s3, s3, 0x1
   13fde: 7d 5b        	li	s6, -0x1
   13fe0: 81 4b        	li	s7, 0x0
   13fe2: 81 4d        	li	s11, 0x0
   13fe4: 93 04 a0 05  	li	s1, 0x5a
   13fe8: 85 09        	addi	s3, s3, 0x1
   13fea: 01 23        	sext.w	t1, t1
   13fec: 9b 07 03 fe  	addiw	a5, t1, -0x20
   13ff0: 1b 87 07 00  	sext.w	a4, a5
   13ff4: 63 e5 e4 04  	bltu	s1, a4, 0x1403e <_vfprintf_r+0x17e>
   13ff8: 13 97 07 02  	slli	a4, a5, 0x20
   13ffc: 93 57 e7 01  	srli	a5, a4, 0x1e
   14000: 22 77        	ld	a4, 0x28(sp)
   14002: ba 97        	add	a5, a5, a4
   14004: 9c 43        	lw	a5, 0x0(a5)
   14006: 82 87        	jr	a5
   14008: 81 4b        	li	s7, 0x0
   1400a: a5 46        	li	a3, 0x9
   1400c: 03 c7 09 00  	lbu	a4, 0x0(s3)
   14010: 9b 97 2b 00  	slliw	a5, s7, 0x2
   14014: bb 8b 77 01  	addw	s7, a5, s7
   14018: 1b 03 03 fd  	addiw	t1, t1, -0x30
   1401c: 9b 9b 1b 00  	slliw	s7, s7, 0x1
   14020: 9b 07 07 fd  	addiw	a5, a4, -0x30
   14024: bb 0b 73 01  	addw	s7, t1, s7
   14028: 85 09        	addi	s3, s3, 0x1
   1402a: 1b 03 07 00  	sext.w	t1, a4
   1402e: e3 ff f6 fc  	bgeu	a3, a5, 0x1400c <_vfprintf_r+0x14c>
   14032: 9b 07 03 fe  	addiw	a5, t1, -0x20
   14036: 1b 87 07 00  	sext.w	a4, a5
   1403a: e3 ff e4 fa  	bgeu	s1, a4, 0x13ff8 <_vfprintf_r+0x138>
   1403e: 63 07 03 0e  	beqz	t1, 0x1412c <_vfprintf_r+0x26c>
   14042: 23 0c 61 0e  	sb	t1, 0xf8(sp)
   14046: a3 07 01 0a  	sb	zero, 0xaf(sp)
   1404a: 05 4c        	li	s8, 0x1
   1404c: 85 46        	li	a3, 0x1
   1404e: 13 0d 81 0f  	addi	s10, sp, 0xf8
   14052: 02 ec        	sd	zero, 0x18(sp)
   14054: 01 4b        	li	s6, 0x0
   14056: 82 e4        	sd	zero, 0x48(sp)
   14058: 82 e0        	sd	zero, 0x40(sp)
   1405a: 02 f8        	sd	zero, 0x30(sp)
   1405c: 93 f2 2d 00  	andi	t0, s11, 0x2
   14060: 63 83 02 00  	beqz	t0, 0x14066 <_vfprintf_r+0x1a6>
   14064: 09 2c        	addiw	s8, s8, 0x2
   14066: 93 fc 4d 08  	andi	s9, s11, 0x84
   1406a: ce 74        	ld	s1, 0xf0(sp)
   1406c: 63 96 0c 00  	bnez	s9, 0x14078 <_vfprintf_r+0x1b8>
   14070: 3b 87 8b 41  	subw	a4, s7, s8
   14074: e3 44 e0 2e  	bgtz	a4, 0x14b5c <_vfprintf_r+0xc9c>
   14078: 03 47 f1 0a  	lbu	a4, 0xaf(sp)
   1407c: 0d c3        	beqz	a4, 0x1409e <_vfprintf_r+0x1de>
   1407e: 2e 57        	lw	a4, 0xe8(sp)
   14080: 13 06 f1 0a  	addi	a2, sp, 0xaf
   14084: 10 e0        	sd	a2, 0x0(s0)
   14086: 05 27        	addiw	a4, a4, 0x1
   14088: 05 46        	li	a2, 0x1
   1408a: 85 04        	addi	s1, s1, 0x1
   1408c: 10 e4        	sd	a2, 0x8(s0)
   1408e: ba d5        	sw	a4, 0xe8(sp)
   14090: 1b 06 07 00  	sext.w	a2, a4
   14094: a6 f9        	sd	s1, 0xf0(sp)
   14096: 1d 47        	li	a4, 0x7
   14098: 41 04        	addi	s0, s0, 0x10
   1409a: 63 4b c7 4e  	blt	a4, a2, 0x14590 <_vfprintf_r+0x6d0>
   1409e: 63 81 02 02  	beqz	t0, 0x140c0 <_vfprintf_r+0x200>
   140a2: 2e 57        	lw	a4, 0xe8(sp)
   140a4: 09 46        	li	a2, 0x2
   140a6: 89 04        	addi	s1, s1, 0x2
   140a8: 05 27        	addiw	a4, a4, 0x1
   140aa: 1c 19        	addi	a5, sp, 0xb0
   140ac: 10 e4        	sd	a2, 0x8(s0)
   140ae: 1c e0        	sd	a5, 0x0(s0)
   140b0: 1b 06 07 00  	sext.w	a2, a4
   140b4: ba d5        	sw	a4, 0xe8(sp)
   140b6: a6 f9        	sd	s1, 0xf0(sp)
   140b8: 1d 47        	li	a4, 0x7
   140ba: 41 04        	addi	s0, s0, 0x10
   140bc: e3 4f c7 32  	blt	a4, a2, 0x14bfa <_vfprintf_r+0xd3a>
   140c0: 13 07 00 08  	li	a4, 0x80
   140c4: e3 8c ec 10  	beq	s9, a4, 0x149dc <_vfprintf_r+0xb1c>
   140c8: 3b 0b db 40  	subw	s6, s6, a3
   140cc: e3 4b 60 1b  	bgtz	s6, 0x14a82 <_vfprintf_r+0xbc2>
   140d0: 13 f7 0d 10  	andi	a4, s11, 0x100
   140d4: e3 10 07 02  	bnez	a4, 0x148f4 <_vfprintf_r+0xa34>
   140d8: 2e 57        	lw	a4, 0xe8(sp)
   140da: b6 94        	add	s1, s1, a3
   140dc: 23 30 a4 01  	sd	s10, 0x0(s0)
   140e0: 05 27        	addiw	a4, a4, 0x1
   140e2: 14 e4        	sd	a3, 0x8(s0)
   140e4: a6 f9        	sd	s1, 0xf0(sp)
   140e6: ba d5        	sw	a4, 0xe8(sp)
   140e8: 9d 47        	li	a5, 0x7
   140ea: 63 cf e7 54  	blt	a5, a4, 0x14648 <_vfprintf_r+0x788>
   140ee: 41 04        	addi	s0, s0, 0x10
   140f0: 13 fe 4d 00  	andi	t3, s11, 0x4
   140f4: 63 06 0e 00  	beqz	t3, 0x14100 <_vfprintf_r+0x240>
   140f8: 3b 8b 8b 41  	subw	s6, s7, s8
   140fc: e3 4d 60 31  	bgtz	s6, 0x14c16 <_vfprintf_r+0xd56>
   14100: de 87        	mv	a5, s7
   14102: 63 d3 8b 01  	bge	s7, s8, 0x14108 <_vfprintf_r+0x248>
   14106: e2 87        	mv	a5, s8
   14108: 42 67        	ld	a4, 0x10(sp)
   1410a: b9 9f        	addw	a5, a5, a4
   1410c: 3e e8        	sd	a5, 0x10(sp)
   1410e: e3 97 04 20  	bnez	s1, 0x14b1c <_vfprintf_r+0xc5c>
   14112: e2 67        	ld	a5, 0x18(sp)
   14114: 82 d5        	sw	zero, 0xe8(sp)
   14116: 89 c7        	beqz	a5, 0x14120 <_vfprintf_r+0x260>
   14118: e2 65        	ld	a1, 0x18(sp)
   1411a: 22 65        	ld	a0, 0x8(sp)
   1411c: ef f0 ef d4  	jal	0x1366a <_free_r>
   14120: 52 84        	mv	s0, s4
   14122: 4e 8d        	mv	s10, s3
   14124: 03 47 0d 00  	lbu	a4, 0x0(s10)
   14128: e3 13 07 e6  	bnez	a4, 0x13f8e <_vfprintf_r+0xce>
   1412c: ce 77        	ld	a5, 0xf0(sp)
   1412e: 99 c3        	beqz	a5, 0x14134 <_vfprintf_r+0x274>
   14130: 6f 10 20 3a  	j	0x154d2 <_vfprintf_r+0x1612>
   14134: 83 57 09 01  	lhu	a5, 0x10(s2)
   14138: 83 34 81 23  	ld	s1, 0x238(sp)
   1413c: 83 39 81 22  	ld	s3, 0x228(sp)
   14140: 93 f7 07 04  	andi	a5, a5, 0x40
   14144: 03 3a 01 22  	ld	s4, 0x220(sp)
   14148: 83 3a 81 21  	ld	s5, 0x218(sp)
   1414c: 03 3b 01 21  	ld	s6, 0x210(sp)
   14150: 83 3b 81 20  	ld	s7, 0x208(sp)
   14154: 03 3c 01 20  	ld	s8, 0x200(sp)
   14158: 5e 7d        	ld	s10, 0x1f0(sp)
   1415a: be 7d        	ld	s11, 0x1e8(sp)
   1415c: 99 c3        	beqz	a5, 0x14162 <_vfprintf_r+0x2a2>
   1415e: 6f 10 80 67  	j	0x157d6 <_vfprintf_r+0x1916>
   14162: 83 30 81 24  	ld	ra, 0x248(sp)
   14166: 03 34 01 24  	ld	s0, 0x240(sp)
   1416a: 42 65        	ld	a0, 0x10(sp)
   1416c: 03 39 01 23  	ld	s2, 0x230(sp)
   14170: fe 7c        	ld	s9, 0x1f8(sp)
   14172: 13 01 01 25  	addi	sp, sp, 0x250
   14176: 82 80        	ret
   14178: 93 ed 0d 01  	ori	s11, s11, 0x10
   1417c: 03 c3 09 00  	lbu	t1, 0x0(s3)
   14180: 81 2d        	sext.w	s11, s11
   14182: 9d b5        	j	0x13fe8 <_vfprintf_r+0x128>
   14184: 22 65        	ld	a0, 0x8(sp)
   14186: ca 85        	mv	a1, s2
   14188: ef 20 50 59  	jal	0x16f1c <__swsetup_r>
   1418c: 19 c1        	beqz	a0, 0x14192 <_vfprintf_r+0x2d2>
   1418e: 6f 10 80 64  	j	0x157d6 <_vfprintf_r+0x1916>
   14192: 03 17 09 01  	lh	a4, 0x10(s2)
   14196: a9 46        	li	a3, 0xa
   14198: 69 8b        	andi	a4, a4, 0x1a
   1419a: e3 11 d7 da  	bne	a4, a3, 0x13f3c <_vfprintf_r+0x7c>
   1419e: 03 17 29 01  	lh	a4, 0x12(s2)
   141a2: e3 4d 07 d8  	bltz	a4, 0x13f3c <_vfprintf_r+0x7c>
   141a6: 82 76        	ld	a3, 0x20(sp)
   141a8: 22 65        	ld	a0, 0x8(sp)
   141aa: 66 86        	mv	a2, s9
   141ac: ca 85        	mv	a1, s2
   141ae: ef 10 d0 05  	jal	0x15a0a <__sbprintf>
   141b2: 2a e8        	sd	a0, 0x10(sp)
   141b4: 7d b7        	j	0x14162 <_vfprintf_r+0x2a2>
   141b6: 13 ee 0d 01  	ori	t3, s11, 0x10
   141ba: 9b 0d 0e 00  	sext.w	s11, t3
   141be: 82 76        	ld	a3, 0x20(sp)
   141c0: 93 f7 0d 02  	andi	a5, s11, 0x20
   141c4: 13 87 86 00  	addi	a4, a3, 0x8
   141c8: 63 87 07 4a  	beqz	a5, 0x14676 <_vfprintf_r+0x7b6>
   141cc: 9c 62        	ld	a5, 0x0(a3)
   141ce: be 84        	mv	s1, a5
   141d0: 63 c4 07 4c  	bltz	a5, 0x14698 <_vfprintf_r+0x7d8>
   141d4: e3 45 0b 4c  	bltz	s6, 0x14e9e <_vfprintf_r+0xfde>
   141d8: 93 fc fd f7  	andi	s9, s11, -0x81
   141dc: 81 2c        	sext.w	s9, s9
   141de: 99 c0        	beqz	s1, 0x141e4 <_vfprintf_r+0x324>
   141e0: 6f 00 90 77  	j	0x15158 <_vfprintf_r+0x1298>
   141e4: 63 04 0b 00  	beqz	s6, 0x141ec <_vfprintf_r+0x32c>
   141e8: 6f 10 20 68  	j	0x1586a <_vfprintf_r+0x19aa>
   141ec: 81 46        	li	a3, 0x0
   141ee: 3a f0        	sd	a4, 0x20(sp)
   141f0: e6 8d        	mv	s11, s9
   141f2: 13 0d c1 15  	addi	s10, sp, 0x15c
   141f6: 03 47 f1 0a  	lbu	a4, 0xaf(sp)
   141fa: 5a 88        	mv	a6, s6
   141fc: 63 53 db 00  	bge	s6, a3, 0x14202 <_vfprintf_r+0x342>
   14200: 36 88        	mv	a6, a3
   14202: 02 ec        	sd	zero, 0x18(sp)
   14204: 82 e4        	sd	zero, 0x48(sp)
   14206: 82 e0        	sd	zero, 0x40(sp)
   14208: 02 f8        	sd	zero, 0x30(sp)
   1420a: 1b 0c 08 00  	sext.w	s8, a6
   1420e: e3 07 07 e4  	beqz	a4, 0x1405c <_vfprintf_r+0x19c>
   14212: 05 2c        	addiw	s8, s8, 0x1
   14214: a1 b5        	j	0x1405c <_vfprintf_r+0x19c>
   14216: 13 ee 0d 01  	ori	t3, s11, 0x10
   1421a: 9b 0d 0e 00  	sext.w	s11, t3
   1421e: 82 76        	ld	a3, 0x20(sp)
   14220: 93 f7 0d 02  	andi	a5, s11, 0x20
   14224: 13 87 86 00  	addi	a4, a3, 0x8
   14228: 63 8a 07 42  	beqz	a5, 0x1465c <_vfprintf_r+0x79c>
   1422c: 84 62        	ld	s1, 0x0(a3)
   1422e: 93 fc fd bf  	andi	s9, s11, -0x401
   14232: 81 2c        	sext.w	s9, s9
   14234: 3a f0        	sd	a4, 0x20(sp)
   14236: 81 47        	li	a5, 0x0
   14238: 01 47        	li	a4, 0x0
   1423a: a3 07 e1 0a  	sb	a4, 0xaf(sp)
   1423e: 63 48 0b 46  	bltz	s6, 0x146ae <_vfprintf_r+0x7ee>
   14242: 13 fe fc f7  	andi	t3, s9, -0x81
   14246: 9b 0d 0e 00  	sext.w	s11, t3
   1424a: e3 98 04 0e  	bnez	s1, 0x14b3a <_vfprintf_r+0xc7a>
   1424e: 63 1e 0b 74  	bnez	s6, 0x149aa <_vfprintf_r+0xaea>
   14252: e3 9a 07 3c  	bnez	a5, 0x14e26 <_vfprintf_r+0xf66>
   14256: 93 f6 1c 00  	andi	a3, s9, 0x1
   1425a: 13 0d c1 15  	addi	s10, sp, 0x15c
   1425e: c1 de        	beqz	a3, 0x141f6 <_vfprintf_r+0x336>
   14260: 93 07 00 03  	li	a5, 0x30
   14264: a3 0d f1 14  	sb	a5, 0x15b(sp)
   14268: 13 0d b1 15  	addi	s10, sp, 0x15b
   1426c: 69 b7        	j	0x141f6 <_vfprintf_r+0x336>
   1426e: bb 84 a9 41  	subw	s1, s3, s10
   14272: e3 9b 04 d2  	bnez	s1, 0x13fa8 <_vfprintf_r+0xe8>
   14276: 03 c7 09 00  	lbu	a4, 0x0(s3)
   1427a: 99 bb        	j	0x13fd0 <_vfprintf_r+0x110>
   1427c: 22 65        	ld	a0, 0x8(sp)
   1427e: 90 11        	addi	a2, sp, 0xe0
   14280: ca 85        	mv	a1, s2
   14282: ef 10 30 0e  	jal	0x15b64 <__sprint_r>
   14286: e3 17 05 ea  	bnez	a0, 0x14134 <_vfprintf_r+0x274>
   1428a: 52 84        	mv	s0, s4
   1428c: 2d bb        	j	0x13fc6 <_vfprintf_r+0x106>
   1428e: 13 f7 8d 00  	andi	a4, s11, 0x8
   14292: e3 18 07 3e  	bnez	a4, 0x14e82 <_vfprintf_r+0xfc2>
   14296: 82 77        	ld	a5, 0x20(sp)
   14298: 1a ec        	sd	t1, 0x18(sp)
   1429a: 88 23        	fld	fa0, 0x0(a5)
   1429c: 13 8c 87 00  	addi	s8, a5, 0x8
   142a0: ef 80 e0 52  	jal	0x1c7ce <__extenddftf2>
   142a4: 62 63        	ld	t1, 0x18(sp)
   142a6: 2a 87        	mv	a4, a0
   142a8: 62 f0        	sd	s8, 0x20(sp)
   142aa: 88 09        	addi	a0, sp, 0xd0
   142ac: 1a ec        	sd	t1, 0x18(sp)
   142ae: ba e9        	sd	a4, 0xd0(sp)
   142b0: ae ed        	sd	a1, 0xd8(sp)
   142b2: ef 30 20 66  	jal	0x17914 <_ldcheck>
   142b6: 2a dd        	sw	a0, 0xb8(sp)
   142b8: 09 47        	li	a4, 0x2
   142ba: 62 63        	ld	t1, 0x18(sp)
   142bc: e3 00 e5 6a  	beq	a0, a4, 0x1515c <_vfprintf_r+0x129c>
   142c0: 05 47        	li	a4, 0x1
   142c2: 63 14 e5 00  	bne	a0, a4, 0x142ca <_vfprintf_r+0x40a>
   142c6: 6f 00 b0 7b  	j	0x15280 <_vfprintf_r+0x13c0>
   142ca: 13 07 10 06  	li	a4, 0x61
   142ce: e3 00 e3 56  	beq	t1, a4, 0x1502e <_vfprintf_r+0x116e>
   142d2: 13 07 10 04  	li	a4, 0x41
   142d6: 93 07 80 05  	li	a5, 0x58
   142da: e3 0c e3 54  	beq	t1, a4, 0x15032 <_vfprintf_r+0x1172>
   142de: 7d 57        	li	a4, -0x1
   142e0: 63 14 eb 00  	bne	s6, a4, 0x142e8 <_vfprintf_r+0x428>
   142e4: 6f 10 20 56  	j	0x15846 <_vfprintf_r+0x1986>
   142e8: 13 77 f3 fd  	andi	a4, t1, -0x21
   142ec: 93 06 70 04  	li	a3, 0x47
   142f0: 02 ec        	sd	zero, 0x18(sp)
   142f2: 63 14 d7 00  	bne	a4, a3, 0x142fa <_vfprintf_r+0x43a>
   142f6: 6f 10 80 55  	j	0x1584e <_vfprintf_r+0x198e>
   142fa: ce 67        	ld	a5, 0xd0(sp)
   142fc: ee 6c        	ld	s9, 0xd8(sp)
   142fe: 13 e7 0d 10  	ori	a4, s11, 0x100
   14302: 3e f8        	sd	a5, 0x30(sp)
   14304: 82 f4        	sd	zero, 0x68(sp)
   14306: 9b 04 07 00  	sext.w	s1, a4
   1430a: 63 d4 0c 00  	bgez	s9, 0x14312 <_vfprintf_r+0x452>
   1430e: 6f 10 20 37  	j	0x15680 <_vfprintf_r+0x17c0>
   14312: 9b 06 f3 fb  	addiw	a3, t1, -0x41
   14316: 13 07 50 02  	li	a4, 0x25
   1431a: 63 74 d7 00  	bgeu	a4, a3, 0x14322 <_vfprintf_r+0x462>
   1431e: 6f 10 60 3c  	j	0x156e4 <_vfprintf_r+0x1824>
   14322: 05 47        	li	a4, 0x1
   14324: 05 4c        	li	s8, 0x1
   14326: 16 17        	slli	a4, a4, 0x25
   14328: b3 16 dc 00  	sll	a3, s8, a3
   1432c: 13 07 07 02  	addi	a4, a4, 0x20
   14330: 75 8f        	and	a4, a4, a3
   14332: 19 c3        	beqz	a4, 0x14338 <_vfprintf_r+0x478>
   14334: 6f 10 80 26  	j	0x1559c <_vfprintf_r+0x16dc>
   14338: 05 47        	li	a4, 0x1
   1433a: 12 17        	slli	a4, a4, 0x24
   1433c: 41 07        	addi	a4, a4, 0x10
   1433e: 75 8f        	and	a4, a4, a3
   14340: 19 c3        	beqz	a4, 0x14346 <_vfprintf_r+0x486>
   14342: 6f 10 20 4a  	j	0x157e4 <_vfprintf_r+0x1924>
   14346: 05 47        	li	a4, 0x1
   14348: 02 17        	slli	a4, a4, 0x20
   1434a: 05 07        	addi	a4, a4, 0x1
   1434c: f9 8e        	and	a3, a3, a4
   1434e: 1a fc        	sd	t1, 0x38(sp)
   14350: 99 e2        	bnez	a3, 0x14356 <_vfprintf_r+0x496>
   14352: 6f 10 40 1d  	j	0x15526 <_vfprintf_r+0x1666>
   14356: 42 75        	ld	a0, 0x30(sp)
   14358: 30 19        	addi	a2, sp, 0xb8
   1435a: e6 85        	mv	a1, s9
   1435c: ef 30 a0 31  	jal	0x17676 <frexpl>
   14360: b7 f6 ff 00  	lui	a3, 0xfff
   14364: 01 46        	li	a2, 0x0
   14366: 9a 16        	slli	a3, a3, 0x26
   14368: ef 70 c0 53  	jal	0x1b8a4 <__multf3>
   1436c: 01 46        	li	a2, 0x0
   1436e: 81 46        	li	a3, 0x0
   14370: aa 8c        	mv	s9, a0
   14372: ae 84        	mv	s1, a1
   14374: ef 70 c0 34  	jal	0x1b6c0 <__netf2>
   14378: 62 73        	ld	t1, 0x38(sp)
   1437a: 11 e1        	bnez	a0, 0x1437e <_vfprintf_r+0x4be>
   1437c: 62 dd        	sw	s8, 0xb8(sp)
   1437e: 13 07 10 06  	li	a4, 0x61
   14382: 63 14 e3 00  	bne	t1, a4, 0x1438a <_vfprintf_r+0x4ca>
   14386: 6f 10 a0 5e  	j	0x15970 <_vfprintf_r+0x1ab0>
   1438a: 75 67        	lui	a4, 0x1d
   1438c: 93 07 87 c8  	addi	a5, a4, -0x378
   14390: 3e f8        	sd	a5, 0x30(sp)
   14392: 13 17 0b 02  	slli	a4, s6, 0x20
   14396: 01 93        	srli	a4, a4, 0x20
   14398: 05 07        	addi	a4, a4, 0x1
   1439a: b7 36 00 04  	lui	a3, 0x4003
   1439e: 1b 08 0b 00  	sext.w	a6, s6
   143a2: b3 07 ed 00  	add	a5, s10, a4
   143a6: 92 16        	slli	a3, a3, 0x24
   143a8: 4e fc        	sd	s3, 0x38(sp)
   143aa: a2 f8        	sd	s0, 0x70(sp)
   143ac: 4a 8c        	mv	s8, s2
   143ae: 42 7b        	ld	s6, 0x30(sp)
   143b0: 9a e0        	sd	t1, 0x40(sp)
   143b2: de e4        	sd	s7, 0x48(sp)
   143b4: 42 e9        	sd	a6, 0x90(sp)
   143b6: ea 89        	mv	s3, s10
   143b8: 3e 89        	mv	s2, a5
   143ba: 36 84        	mv	s0, a3
   143bc: 01 a8        	j	0x143cc <_vfprintf_r+0x50c>
   143be: 01 46        	li	a2, 0x0
   143c0: 81 46        	li	a3, 0x0
   143c2: ef 70 e0 2f  	jal	0x1b6c0 <__netf2>
   143c6: 19 e1        	bnez	a0, 0x143cc <_vfprintf_r+0x50c>
   143c8: 6f 10 80 56  	j	0x15930 <_vfprintf_r+0x1a70>
   143cc: 01 46        	li	a2, 0x0
   143ce: a2 86        	mv	a3, s0
   143d0: 66 85        	mv	a0, s9
   143d2: a6 85        	mv	a1, s1
   143d4: ef 70 00 4d  	jal	0x1b8a4 <__multf3>
   143d8: ae 84        	mv	s1, a1
   143da: aa 8c        	mv	s9, a0
   143dc: ef 80 60 30  	jal	0x1c6e2 <__fixtfsi>
   143e0: 9b 0b 05 00  	sext.w	s7, a0
   143e4: ef 80 40 39  	jal	0x1c778 <__floatsitf>
   143e8: ae 86        	mv	a3, a1
   143ea: 2a 86        	mv	a2, a0
   143ec: a6 85        	mv	a1, s1
   143ee: 66 85        	mv	a0, s9
   143f0: ef 70 b0 2a  	jal	0x1be9a <__subtf3>
   143f4: b3 06 7b 01  	add	a3, s6, s7
   143f8: 83 c6 06 00  	lbu	a3, 0x0(a3)
   143fc: ce 88        	mv	a7, s3
   143fe: 85 09        	addi	s3, s3, 0x1
   14400: a3 8f d9 fe  	sb	a3, -0x1(s3)
   14404: aa 8c        	mv	s9, a0
   14406: ae 84        	mv	s1, a1
   14408: e3 1b 39 fb  	bne	s2, s3, 0x143be <_vfprintf_r+0x4fe>
   1440c: 06 63        	ld	t1, 0x40(sp)
   1440e: b7 f6 ff 01  	lui	a3, 0x1fff
   14412: 96 16        	slli	a3, a3, 0x25
   14414: 01 46        	li	a2, 0x0
   14416: 1a e9        	sd	t1, 0x90(sp)
   14418: c6 e0        	sd	a7, 0x40(sp)
   1441a: 5e 8b        	mv	s6, s7
   1441c: a6 6b        	ld	s7, 0x48(sp)
   1441e: b6 e4        	sd	a3, 0x48(sp)
   14420: ef 70 80 34  	jal	0x1b768 <__gttf2>
   14424: 62 89        	mv	s2, s8
   14426: 46 74        	ld	s0, 0x70(sp)
   14428: 4e 8c        	mv	s8, s3
   1442a: 86 68        	ld	a7, 0x40(sp)
   1442c: e2 79        	ld	s3, 0x38(sp)
   1442e: 4a 63        	ld	t1, 0x90(sp)
   14430: 63 40 a0 02  	bgtz	a0, 0x14450 <_vfprintf_r+0x590>
   14434: a6 66        	ld	a3, 0x48(sp)
   14436: 01 46        	li	a2, 0x0
   14438: 66 85        	mv	a0, s9
   1443a: a6 85        	mv	a1, s1
   1443c: 1a fc        	sd	t1, 0x38(sp)
   1443e: ef 70 20 28  	jal	0x1b6c0 <__netf2>
   14442: 62 73        	ld	t1, 0x38(sp)
   14444: 39 e5        	bnez	a0, 0x14492 <_vfprintf_r+0x5d2>
   14446: 13 7b 1b 00  	andi	s6, s6, 0x1
   1444a: 86 68        	ld	a7, 0x40(sp)
   1444c: 63 03 0b 04  	beqz	s6, 0x14492 <_vfprintf_r+0x5d2>
   14450: c2 77        	ld	a5, 0x30(sp)
   14452: c6 e5        	sd	a7, 0xc8(sp)
   14454: 03 46 fc ff  	lbu	a2, -0x1(s8)
   14458: 83 c5 f7 00  	lbu	a1, 0xf(a5)
   1445c: e2 86        	mv	a3, s8
   1445e: 63 1e b6 00  	bne	a2, a1, 0x1447a <_vfprintf_r+0x5ba>
   14462: 13 05 00 03  	li	a0, 0x30
   14466: a3 8f a6 fe  	sb	a0, -0x1(a3)
   1446a: ae 66        	ld	a3, 0xc8(sp)
   1446c: 93 87 f6 ff  	addi	a5, a3, -0x1
   14470: be e5        	sd	a5, 0xc8(sp)
   14472: 03 c6 f6 ff  	lbu	a2, -0x1(a3)
   14476: e3 88 c5 fe  	beq	a1, a2, 0x14466 <_vfprintf_r+0x5a6>
   1447a: 9b 05 16 00  	addiw	a1, a2, 0x1
   1447e: 13 05 90 03  	li	a0, 0x39
   14482: 93 f5 f5 0f  	andi	a1, a1, 0xff
   14486: 63 14 a6 00  	bne	a2, a0, 0x1448e <_vfprintf_r+0x5ce>
   1448a: 6f 10 40 0f  	j	0x1557e <_vfprintf_r+0x16be>
   1448e: a3 8f b6 fe  	sb	a1, -0x1(a3)
   14492: e2 86        	mv	a3, s8
   14494: ea 57        	lw	a5, 0xb8(sp)
   14496: 3b 87 a6 41  	subw	a4, a3, s10
   1449a: 3a fc        	sd	a4, 0x38(sp)
   1449c: 1b 87 f7 ff  	addiw	a4, a5, -0x1
   144a0: 3e f8        	sd	a5, 0x30(sp)
   144a2: 13 06 10 06  	li	a2, 0x61
   144a6: 3a dd        	sw	a4, 0xb8(sp)
   144a8: 63 14 c3 00  	bne	t1, a2, 0x144b0 <_vfprintf_r+0x5f0>
   144ac: 6f 10 00 4d  	j	0x1597c <_vfprintf_r+0x1abc>
   144b0: 13 06 10 04  	li	a2, 0x41
   144b4: 93 06 00 05  	li	a3, 0x50
   144b8: 63 04 c3 00  	beq	t1, a2, 0x144c0 <_vfprintf_r+0x600>
   144bc: 6f 10 80 0b  	j	0x15574 <_vfprintf_r+0x16b4>
   144c0: 05 46        	li	a2, 0x1
   144c2: 23 00 d1 0c  	sb	a3, 0xc0(sp)
   144c6: 93 06 b0 02  	li	a3, 0x2b
   144ca: 63 57 07 00  	bgez	a4, 0x144d8 <_vfprintf_r+0x618>
   144ce: c2 77        	ld	a5, 0x30(sp)
   144d0: 05 47        	li	a4, 0x1
   144d2: 93 06 d0 02  	li	a3, 0x2d
   144d6: 1d 9f        	subw	a4, a4, a5
   144d8: a3 00 d1 0c  	sb	a3, 0xc1(sp)
   144dc: a5 46        	li	a3, 0x9
   144de: 63 c4 e6 00  	blt	a3, a4, 0x144e6 <_vfprintf_r+0x626>
   144e2: 6f 10 a0 33  	j	0x1581c <_vfprintf_r+0x195c>
   144e6: 93 08 f1 0c  	addi	a7, sp, 0xcf
   144ea: 46 85        	mv	a0, a7
   144ec: 29 48        	li	a6, 0xa
   144ee: 13 0f 30 06  	li	t5, 0x63
   144f2: bb 67 07 03  	remw	a5, a4, a6
   144f6: aa 86        	mv	a3, a0
   144f8: 3a 86        	mv	a2, a4
   144fa: 7d 15        	addi	a0, a0, -0x1
   144fc: 9b 87 07 03  	addiw	a5, a5, 0x30
   14500: a3 8f f6 fe  	sb	a5, -0x1(a3)
   14504: 3b 47 07 03  	divw	a4, a4, a6
   14508: e3 45 cf fe  	blt	t5, a2, 0x144f2 <_vfprintf_r+0x632>
   1450c: 9b 05 07 03  	addiw	a1, a4, 0x30
   14510: a3 0f b5 fe  	sb	a1, -0x1(a0)
   14514: 13 87 e6 ff  	addi	a4, a3, -0x2
   14518: 63 64 17 01  	bltu	a4, a7, 0x14520 <_vfprintf_r+0x660>
   1451c: 6f 10 00 4a  	j	0x159bc <_vfprintf_r+0x1afc>
   14520: 13 06 21 0c  	addi	a2, sp, 0xc2
   14524: 83 47 07 00  	lbu	a5, 0x0(a4)
   14528: 05 07        	addi	a4, a4, 0x1
   1452a: 05 06        	addi	a2, a2, 0x1
   1452c: a3 0f f6 fe  	sb	a5, -0x1(a2)
   14530: e3 1a 17 ff  	bne	a4, a7, 0x14524 <_vfprintf_r+0x664>
   14534: 9c 13        	addi	a5, sp, 0x1e0
   14536: b3 86 d7 40  	sub	a3, a5, a3
   1453a: 9b 87 36 ef  	addiw	a5, a3, -0x10d
   1453e: be f8        	sd	a5, 0x70(sp)
   14540: 46 77        	ld	a4, 0x70(sp)
   14542: e2 77        	ld	a5, 0x38(sp)
   14544: 05 46        	li	a2, 0x1
   14546: bb 86 e7 00  	addw	a3, a5, a4
   1454a: 36 87        	mv	a4, a3
   1454c: 63 44 f6 00  	blt	a2, a5, 0x14554 <_vfprintf_r+0x694>
   14550: 6f 10 c0 30  	j	0x1585c <_vfprintf_r+0x199c>
   14554: c6 67        	ld	a5, 0x50(sp)
   14556: bb 06 f7 00  	addw	a3, a4, a5
   1455a: 13 c8 f6 ff  	not	a6, a3
   1455e: 13 fe fd bf  	andi	t3, s11, -0x401
   14562: 13 58 f8 43  	srai	a6, a6, 0x3f
   14566: 01 2e        	sext.w	t3, t3
   14568: 33 f8 06 01  	and	a6, a3, a6
   1456c: 93 6d 0e 10  	ori	s11, t3, 0x100
   14570: 1b 0c 08 00  	sext.w	s8, a6
   14574: 82 e4        	sd	zero, 0x48(sp)
   14576: 82 e0        	sd	zero, 0x40(sp)
   14578: 02 f8        	sd	zero, 0x30(sp)
   1457a: a6 77        	ld	a5, 0x68(sp)
   1457c: 99 e3        	bnez	a5, 0x14582 <_vfprintf_r+0x6c2>
   1457e: 6f 10 e0 00  	j	0x1558c <_vfprintf_r+0x16cc>
   14582: 13 07 d0 02  	li	a4, 0x2d
   14586: a3 07 e1 0a  	sb	a4, 0xaf(sp)
   1458a: 01 4b        	li	s6, 0x0
   1458c: 05 2c        	addiw	s8, s8, 0x1
   1458e: f9 b4        	j	0x1405c <_vfprintf_r+0x19c>
   14590: 22 65        	ld	a0, 0x8(sp)
   14592: 90 11        	addi	a2, sp, 0xe0
   14594: ca 85        	mv	a1, s2
   14596: 36 ed        	sd	a3, 0x98(sp)
   14598: 1a e9        	sd	t1, 0x90(sp)
   1459a: 96 f4        	sd	t0, 0x68(sp)
   1459c: ef 10 80 5c  	jal	0x15b64 <__sprint_r>
   145a0: 63 15 05 58  	bnez	a0, 0x14b2a <_vfprintf_r+0xc6a>
   145a4: ce 74        	ld	s1, 0xf0(sp)
   145a6: ea 66        	ld	a3, 0x98(sp)
   145a8: 4a 63        	ld	t1, 0x90(sp)
   145aa: a6 72        	ld	t0, 0x68(sp)
   145ac: 52 84        	mv	s0, s4
   145ae: c5 bc        	j	0x1409e <_vfprintf_r+0x1de>
   145b0: 2e 57        	lw	a4, 0xe8(sp)
   145b2: e2 77        	ld	a5, 0x38(sp)
   145b4: 85 46        	li	a3, 0x1
   145b6: 1b 0b 17 00  	addiw	s6, a4, 0x1
   145ba: 23 30 a4 01  	sd	s10, 0x0(s0)
   145be: 85 04        	addi	s1, s1, 0x1
   145c0: 5a 87        	mv	a4, s6
   145c2: 93 0c 04 01  	addi	s9, s0, 0x10
   145c6: 63 d3 f6 7c  	bge	a3, a5, 0x14d8c <_vfprintf_r+0xecc>
   145ca: 85 46        	li	a3, 0x1
   145cc: ba d5        	sw	a4, 0xe8(sp)
   145ce: 14 e4        	sd	a3, 0x8(s0)
   145d0: a6 f9        	sd	s1, 0xf0(sp)
   145d2: 1d 47        	li	a4, 0x7
   145d4: e3 44 67 2b  	blt	a4, s6, 0x1507c <_vfprintf_r+0x11bc>
   145d8: c6 67        	ld	a5, 0x50(sp)
   145da: e6 66        	ld	a3, 0x58(sp)
   145dc: 05 2b        	addiw	s6, s6, 0x1
   145de: be 94        	add	s1, s1, a5
   145e0: 23 b0 dc 00  	sd	a3, 0x0(s9)
   145e4: 23 b4 fc 00  	sd	a5, 0x8(s9)
   145e8: a6 f9        	sd	s1, 0xf0(sp)
   145ea: da d5        	sw	s6, 0xe8(sp)
   145ec: 1d 47        	li	a4, 0x7
   145ee: c1 0c        	addi	s9, s9, 0x10
   145f0: e3 42 67 2b  	blt	a4, s6, 0x15094 <_vfprintf_r+0x11d4>
   145f4: e2 77        	ld	a5, 0x38(sp)
   145f6: 4e 65        	ld	a0, 0xd0(sp)
   145f8: ee 65        	ld	a1, 0xd8(sp)
   145fa: 01 46        	li	a2, 0x0
   145fc: 81 46        	li	a3, 0x0
   145fe: 1b 84 f7 ff  	addiw	s0, a5, -0x1
   14602: ef 70 e0 0b  	jal	0x1b6c0 <__netf2>
   14606: 63 08 05 7a  	beqz	a0, 0x14db6 <_vfprintf_r+0xef6>
   1460a: 93 07 1d 00  	addi	a5, s10, 0x1
   1460e: 05 2b        	addiw	s6, s6, 0x1
   14610: a2 94        	add	s1, s1, s0
   14612: 23 b0 fc 00  	sd	a5, 0x0(s9)
   14616: 23 b4 8c 00  	sd	s0, 0x8(s9)
   1461a: a6 f9        	sd	s1, 0xf0(sp)
   1461c: da d5        	sw	s6, 0xe8(sp)
   1461e: 9d 47        	li	a5, 0x7
   14620: 63 c0 67 79  	blt	a5, s6, 0x14da0 <_vfprintf_r+0xee0>
   14624: c1 0c        	addi	s9, s9, 0x10
   14626: 46 77        	ld	a4, 0x70(sp)
   14628: 05 2b        	addiw	s6, s6, 0x1
   1462a: 9c 01        	addi	a5, sp, 0xc0
   1462c: ba 94        	add	s1, s1, a4
   1462e: 23 b0 fc 00  	sd	a5, 0x0(s9)
   14632: 23 b4 ec 00  	sd	a4, 0x8(s9)
   14636: a6 f9        	sd	s1, 0xf0(sp)
   14638: 1b 07 0b 00  	sext.w	a4, s6
   1463c: da d5        	sw	s6, 0xe8(sp)
   1463e: 9d 47        	li	a5, 0x7
   14640: 13 84 0c 01  	addi	s0, s9, 0x10
   14644: e3 d6 e7 aa  	bge	a5, a4, 0x140f0 <_vfprintf_r+0x230>
   14648: 22 65        	ld	a0, 0x8(sp)
   1464a: 90 11        	addi	a2, sp, 0xe0
   1464c: ca 85        	mv	a1, s2
   1464e: ef 10 60 51  	jal	0x15b64 <__sprint_r>
   14652: 63 1c 05 4c  	bnez	a0, 0x14b2a <_vfprintf_r+0xc6a>
   14656: ce 74        	ld	s1, 0xf0(sp)
   14658: 52 84        	mv	s0, s4
   1465a: 59 bc        	j	0x140f0 <_vfprintf_r+0x230>
   1465c: 93 f7 0d 01  	andi	a5, s11, 0x10
   14660: e3 9d 07 00  	bnez	a5, 0x14e7a <_vfprintf_r+0xfba>
   14664: 82 76        	ld	a3, 0x20(sp)
   14666: 93 f7 0d 04  	andi	a5, s11, 0x40
   1466a: 84 42        	lw	s1, 0x0(a3)
   1466c: e3 86 07 3c  	beqz	a5, 0x15238 <_vfprintf_r+0x1378>
   14670: c2 14        	slli	s1, s1, 0x30
   14672: c1 90        	srli	s1, s1, 0x30
   14674: 6d be        	j	0x1422e <_vfprintf_r+0x36e>
   14676: 93 f7 0d 01  	andi	a5, s11, 0x10
   1467a: 63 95 07 7c  	bnez	a5, 0x14e44 <_vfprintf_r+0xf84>
   1467e: 82 76        	ld	a3, 0x20(sp)
   14680: 93 f7 0d 04  	andi	a5, s11, 0x40
   14684: 84 42        	lw	s1, 0x0(a3)
   14686: e3 81 07 3c  	beqz	a5, 0x15248 <_vfprintf_r+0x1388>
   1468a: 9b 94 04 01  	slliw	s1, s1, 0x10
   1468e: 9b d4 04 41  	sraiw	s1, s1, 0x10
   14692: a6 87        	mv	a5, s1
   14694: e3 d0 07 b4  	bgez	a5, 0x141d4 <_vfprintf_r+0x314>
   14698: 3a f0        	sd	a4, 0x20(sp)
   1469a: 13 07 d0 02  	li	a4, 0x2d
   1469e: a3 07 e1 0a  	sb	a4, 0xaf(sp)
   146a2: b3 04 90 40  	neg	s1, s1
   146a6: ee 8c        	mv	s9, s11
   146a8: 85 47        	li	a5, 0x1
   146aa: e3 5c 0b b8  	bgez	s6, 0x14242 <_vfprintf_r+0x382>
   146ae: 05 47        	li	a4, 0x1
   146b0: 63 89 e7 48  	beq	a5, a4, 0x14b42 <_vfprintf_r+0xc82>
   146b4: 09 47        	li	a4, 0x2
   146b6: 63 81 e7 30  	beq	a5, a4, 0x149b8 <_vfprintf_r+0xaf8>
   146ba: f4 0a        	addi	a3, sp, 0x15c
   146bc: 36 8d        	mv	s10, a3
   146be: 13 f7 74 00  	andi	a4, s1, 0x7
   146c2: 13 07 07 03  	addi	a4, a4, 0x30
   146c6: a3 0f ed fe  	sb	a4, -0x1(s10)
   146ca: 8d 80        	srli	s1, s1, 0x3
   146cc: 6a 86        	mv	a2, s10
   146ce: 7d 1d        	addi	s10, s10, -0x1
   146d0: fd f4        	bnez	s1, 0x146be <_vfprintf_r+0x7fe>
   146d2: 93 f5 1c 00  	andi	a1, s9, 0x1
   146d6: 63 8e 05 2e  	beqz	a1, 0x149d2 <_vfprintf_r+0xb12>
   146da: 93 05 00 03  	li	a1, 0x30
   146de: 63 0a b7 2e  	beq	a4, a1, 0x149d2 <_vfprintf_r+0xb12>
   146e2: 79 16        	addi	a2, a2, -0x2
   146e4: a3 0f bd fe  	sb	a1, -0x1(s10)
   146e8: 91 9e        	subw	a3, a3, a2
   146ea: e6 8d        	mv	s11, s9
   146ec: 32 8d        	mv	s10, a2
   146ee: 21 b6        	j	0x141f6 <_vfprintf_r+0x336>
   146f0: 82 77        	ld	a5, 0x20(sp)
   146f2: a3 07 01 0a  	sb	zero, 0xaf(sp)
   146f6: 03 bd 07 00  	ld	s10, 0x0(a5)
   146fa: 93 84 87 00  	addi	s1, a5, 0x8
   146fe: e3 0a 0d 08  	beqz	s10, 0x14f92 <_vfprintf_r+0x10d2>
   14702: e3 4f 0b 28  	bltz	s6, 0x151a0 <_vfprintf_r+0x12e0>
   14706: 5a 86        	mv	a2, s6
   14708: 81 45        	li	a1, 0x0
   1470a: 6a 85        	mv	a0, s10
   1470c: 1a f0        	sd	t1, 0x20(sp)
   1470e: ef 20 30 20  	jal	0x17110 <memchr>
   14712: 2a ec        	sd	a0, 0x18(sp)
   14714: 02 73        	ld	t1, 0x20(sp)
   14716: 19 e1        	bnez	a0, 0x1471c <_vfprintf_r+0x85c>
   14718: 6f 00 10 7b  	j	0x156c8 <_vfprintf_r+0x1808>
   1471c: e2 67        	ld	a5, 0x18(sp)
   1471e: 03 47 f1 0a  	lbu	a4, 0xaf(sp)
   14722: 26 f0        	sd	s1, 0x20(sp)
   14724: bb 86 a7 41  	subw	a3, a5, s10
   14728: 13 c8 f6 ff  	not	a6, a3
   1472c: 13 58 f8 43  	srai	a6, a6, 0x3f
   14730: 02 ec        	sd	zero, 0x18(sp)
   14732: 82 e4        	sd	zero, 0x48(sp)
   14734: 82 e0        	sd	zero, 0x40(sp)
   14736: 02 f8        	sd	zero, 0x30(sp)
   14738: 33 7c d8 00  	and	s8, a6, a3
   1473c: 01 4b        	li	s6, 0x0
   1473e: e3 1a 07 ac  	bnez	a4, 0x14212 <_vfprintf_r+0x352>
   14742: 29 ba        	j	0x1405c <_vfprintf_r+0x19c>
   14744: 02 77        	ld	a4, 0x20(sp)
   14746: a3 07 01 0a  	sb	zero, 0xaf(sp)
   1474a: 05 4c        	li	s8, 0x1
   1474c: 1c 43        	lw	a5, 0x0(a4)
   1474e: 21 07        	addi	a4, a4, 0x8
   14750: 3a f0        	sd	a4, 0x20(sp)
   14752: 23 0c f1 0e  	sb	a5, 0xf8(sp)
   14756: 85 46        	li	a3, 0x1
   14758: 13 0d 81 0f  	addi	s10, sp, 0xf8
   1475c: dd b8        	j	0x14052 <_vfprintf_r+0x192>
   1475e: 82 77        	ld	a5, 0x20(sp)
   14760: 83 ab 07 00  	lw	s7, 0x0(a5)
   14764: a1 07        	addi	a5, a5, 0x8
   14766: 63 da 0b 6c  	bgez	s7, 0x14e3a <_vfprintf_r+0xf7a>
   1476a: bb 0b 70 41  	negw	s7, s7
   1476e: 3e f0        	sd	a5, 0x20(sp)
   14770: 93 ed 4d 00  	ori	s11, s11, 0x4
   14774: 03 c3 09 00  	lbu	t1, 0x0(s3)
   14778: 81 2d        	sext.w	s11, s11
   1477a: bd b0        	j	0x13fe8 <_vfprintf_r+0x128>
   1477c: 93 07 b0 02  	li	a5, 0x2b
   14780: 03 c3 09 00  	lbu	t1, 0x0(s3)
   14784: a3 07 f1 0a  	sb	a5, 0xaf(sp)
   14788: 85 b0        	j	0x13fe8 <_vfprintf_r+0x128>
   1478a: 93 ed 0d 08  	ori	s11, s11, 0x80
   1478e: 03 c3 09 00  	lbu	t1, 0x0(s3)
   14792: 81 2d        	sext.w	s11, s11
   14794: 91 b8        	j	0x13fe8 <_vfprintf_r+0x128>
   14796: 03 c3 09 00  	lbu	t1, 0x0(s3)
   1479a: 93 06 a0 02  	li	a3, 0x2a
   1479e: 13 87 19 00  	addi	a4, s3, 0x1
   147a2: 63 14 d3 00  	bne	t1, a3, 0x147aa <_vfprintf_r+0x8ea>
   147a6: 6f 10 e0 21  	j	0x159c4 <_vfprintf_r+0x1b04>
   147aa: 9b 07 03 fd  	addiw	a5, t1, -0x30
   147ae: a5 45        	li	a1, 0x9
   147b0: 81 46        	li	a3, 0x0
   147b2: 25 46        	li	a2, 0x9
   147b4: ba 89        	mv	s3, a4
   147b6: 01 4b        	li	s6, 0x0
   147b8: e3 ea f5 82  	bltu	a1, a5, 0x13fec <_vfprintf_r+0x12c>
   147bc: 03 43 07 00  	lbu	t1, 0x0(a4)
   147c0: 1b 9b 26 00  	slliw	s6, a3, 0x2
   147c4: 3b 0b db 00  	addw	s6, s6, a3
   147c8: 1b 1b 1b 00  	slliw	s6, s6, 0x1
   147cc: bb 86 67 01  	addw	a3, a5, s6
   147d0: 9b 07 03 fd  	addiw	a5, t1, -0x30
   147d4: 36 8b        	mv	s6, a3
   147d6: 05 07        	addi	a4, a4, 0x1
   147d8: e3 72 f6 fe  	bgeu	a2, a5, 0x147bc <_vfprintf_r+0x8fc>
   147dc: 63 c5 06 72  	bltz	a3, 0x14f06 <_vfprintf_r+0x1046>
   147e0: ba 89        	mv	s3, a4
   147e2: 6f f0 bf 80  	j	0x13fec <_vfprintf_r+0x12c>
   147e6: 93 ec 0d 01  	ori	s9, s11, 0x10
   147ea: 81 2c        	sext.w	s9, s9
   147ec: 82 76        	ld	a3, 0x20(sp)
   147ee: 93 f7 0c 02  	andi	a5, s9, 0x20
   147f2: 13 87 86 00  	addi	a4, a3, 0x8
   147f6: 63 89 07 60  	beqz	a5, 0x14e08 <_vfprintf_r+0xf48>
   147fa: 84 62        	ld	s1, 0x0(a3)
   147fc: 85 47        	li	a5, 0x1
   147fe: 3a f0        	sd	a4, 0x20(sp)
   14800: 25 bc        	j	0x14238 <_vfprintf_r+0x378>
   14802: 22 6c        	ld	s8, 0x8(sp)
   14804: 62 85        	mv	a0, s8
   14806: ef 20 50 2f  	jal	0x172fa <_localeconv_r>
   1480a: 1c 65        	ld	a5, 0x8(a0)
   1480c: 3e 85        	mv	a0, a5
   1480e: be fc        	sd	a5, 0x78(sp)
   14810: ef e0 bf c0  	jal	0x1341a <strlen>
   14814: aa 87        	mv	a5, a0
   14816: 62 85        	mv	a0, s8
   14818: 3e e5        	sd	a5, 0x88(sp)
   1481a: 3e 8c        	mv	s8, a5
   1481c: ef 20 f0 2d  	jal	0x172fa <_localeconv_r>
   14820: 1c 69        	ld	a5, 0x10(a0)
   14822: 03 c3 09 00  	lbu	t1, 0x0(s3)
   14826: 3e e1        	sd	a5, 0x80(sp)
   14828: 63 00 0c fc  	beqz	s8, 0x13fe8 <_vfprintf_r+0x128>
   1482c: 63 8e 07 fa  	beqz	a5, 0x13fe8 <_vfprintf_r+0x128>
   14830: 83 c7 07 00  	lbu	a5, 0x0(a5)
   14834: 63 8a 07 fa  	beqz	a5, 0x13fe8 <_vfprintf_r+0x128>
   14838: 93 ed 0d 40  	ori	s11, s11, 0x400
   1483c: 81 2d        	sext.w	s11, s11
   1483e: 6f f0 af fa  	j	0x13fe8 <_vfprintf_r+0x128>
   14842: 93 ed 1d 00  	ori	s11, s11, 0x1
   14846: 03 c3 09 00  	lbu	t1, 0x0(s3)
   1484a: 81 2d        	sext.w	s11, s11
   1484c: 6f f0 cf f9  	j	0x13fe8 <_vfprintf_r+0x128>
   14850: 83 47 f1 0a  	lbu	a5, 0xaf(sp)
   14854: 03 c3 09 00  	lbu	t1, 0x0(s3)
   14858: 63 98 07 f8  	bnez	a5, 0x13fe8 <_vfprintf_r+0x128>
   1485c: 93 07 00 02  	li	a5, 0x20
   14860: a3 07 f1 0a  	sb	a5, 0xaf(sp)
   14864: 6f f0 4f f8  	j	0x13fe8 <_vfprintf_r+0x128>
   14868: 93 ed 8d 00  	ori	s11, s11, 0x8
   1486c: 03 c3 09 00  	lbu	t1, 0x0(s3)
   14870: 81 2d        	sext.w	s11, s11
   14872: 6f f0 6f f7  	j	0x13fe8 <_vfprintf_r+0x128>
   14876: 93 ed 0d 02  	ori	s11, s11, 0x20
   1487a: 03 c3 09 00  	lbu	t1, 0x0(s3)
   1487e: 81 2d        	sext.w	s11, s11
   14880: 6f f0 8f f6  	j	0x13fe8 <_vfprintf_r+0x128>
   14884: 02 77        	ld	a4, 0x20(sp)
   14886: a1 67        	lui	a5, 0x8
   14888: 93 87 07 83  	addi	a5, a5, -0x7d0
   1488c: 23 18 f1 0a  	sh	a5, 0xb0(sp)
   14890: 93 07 87 00  	addi	a5, a4, 0x8
   14894: 3e f0        	sd	a5, 0x20(sp)
   14896: f5 67        	lui	a5, 0x1d
   14898: 93 87 07 c7  	addi	a5, a5, -0x390
   1489c: 93 ec 2d 00  	ori	s9, s11, 0x2
   148a0: be f0        	sd	a5, 0x60(sp)
   148a2: 04 63        	ld	s1, 0x0(a4)
   148a4: 81 2c        	sext.w	s9, s9
   148a6: 89 47        	li	a5, 0x2
   148a8: 13 03 80 07  	li	t1, 0x78
   148ac: 71 b2        	j	0x14238 <_vfprintf_r+0x378>
   148ae: 02 77        	ld	a4, 0x20(sp)
   148b0: 93 f7 0d 02  	andi	a5, s11, 0x20
   148b4: 18 63        	ld	a4, 0x0(a4)
   148b6: 63 82 07 5a  	beqz	a5, 0x14e5a <_vfprintf_r+0xf9a>
   148ba: c2 67        	ld	a5, 0x10(sp)
   148bc: 1c e3        	sd	a5, 0x0(a4)
   148be: 82 77        	ld	a5, 0x20(sp)
   148c0: 4e 8d        	mv	s10, s3
   148c2: a1 07        	addi	a5, a5, 0x8
   148c4: 3e f0        	sd	a5, 0x20(sp)
   148c6: b9 b8        	j	0x14124 <_vfprintf_r+0x264>
   148c8: 03 c3 09 00  	lbu	t1, 0x0(s3)
   148cc: 93 07 c0 06  	li	a5, 0x6c
   148d0: 63 0f f3 68  	beq	t1, a5, 0x14f6e <_vfprintf_r+0x10ae>
   148d4: 93 ed 0d 01  	ori	s11, s11, 0x10
   148d8: 81 2d        	sext.w	s11, s11
   148da: 6f f0 ef f0  	j	0x13fe8 <_vfprintf_r+0x128>
   148de: 03 c3 09 00  	lbu	t1, 0x0(s3)
   148e2: 93 07 80 06  	li	a5, 0x68
   148e6: 63 0c f3 66  	beq	t1, a5, 0x14f5e <_vfprintf_r+0x109e>
   148ea: 93 ed 0d 04  	ori	s11, s11, 0x40
   148ee: 81 2d        	sext.w	s11, s11
   148f0: 6f f0 8f ef  	j	0x13fe8 <_vfprintf_r+0x128>
   148f4: 13 07 50 06  	li	a4, 0x65
   148f8: e3 5c 67 ca  	bge	a4, t1, 0x145b0 <_vfprintf_r+0x6f0>
   148fc: 4e 65        	ld	a0, 0xd0(sp)
   148fe: ee 65        	ld	a1, 0xd8(sp)
   14900: 01 46        	li	a2, 0x0
   14902: 81 46        	li	a3, 0x0
   14904: ef 60 d0 5b  	jal	0x1b6c0 <__netf2>
   14908: 63 14 05 38  	bnez	a0, 0x14c90 <_vfprintf_r+0xdd0>
   1490c: ae 57        	lw	a5, 0xe8(sp)
   1490e: 75 67        	lui	a4, 0x1d
   14910: 13 07 87 ca  	addi	a4, a4, -0x358
   14914: 85 27        	addiw	a5, a5, 0x1
   14916: 18 e0        	sd	a4, 0x0(s0)
   14918: 85 04        	addi	s1, s1, 0x1
   1491a: 05 47        	li	a4, 0x1
   1491c: 18 e4        	sd	a4, 0x8(s0)
   1491e: be d5        	sw	a5, 0xe8(sp)
   14920: 1b 87 07 00  	sext.w	a4, a5
   14924: a6 f9        	sd	s1, 0xf0(sp)
   14926: 9d 47        	li	a5, 0x7
   14928: 41 04        	addi	s0, s0, 0x10
   1492a: 63 c9 e7 7e  	blt	a5, a4, 0x1511c <_vfprintf_r+0x125c>
   1492e: ea 57        	lw	a5, 0xb8(sp)
   14930: 62 77        	ld	a4, 0x38(sp)
   14932: 63 df e7 4e  	bge	a5, a4, 0x14e30 <_vfprintf_r+0xf70>
   14936: 46 67        	ld	a4, 0x50(sp)
   14938: ae 57        	lw	a5, 0xe8(sp)
   1493a: e6 66        	ld	a3, 0x58(sp)
   1493c: ba 94        	add	s1, s1, a4
   1493e: 85 27        	addiw	a5, a5, 0x1
   14940: 18 e4        	sd	a4, 0x8(s0)
   14942: 14 e0        	sd	a3, 0x0(s0)
   14944: 1b 87 07 00  	sext.w	a4, a5
   14948: be d5        	sw	a5, 0xe8(sp)
   1494a: a6 f9        	sd	s1, 0xf0(sp)
   1494c: 9d 47        	li	a5, 0x7
   1494e: 41 04        	addi	s0, s0, 0x10
   14950: 63 c7 e7 62  	blt	a5, a4, 0x14f7e <_vfprintf_r+0x10be>
   14954: e2 77        	ld	a5, 0x38(sp)
   14956: 1b 8b f7 ff  	addiw	s6, a5, -0x1
   1495a: 63 5b 60 f9  	blez	s6, 0x140f0 <_vfprintf_r+0x230>
   1495e: f5 68        	lui	a7, 0x1d
   14960: 41 47        	li	a4, 0x10
   14962: ae 57        	lw	a5, 0xe8(sp)
   14964: 93 88 08 12  	addi	a7, a7, 0x120
   14968: 63 58 67 7d  	bge	a4, s6, 0x15138 <_vfprintf_r+0x1278>
   1496c: 4e f8        	sd	s3, 0x30(sp)
   1496e: c1 4c        	li	s9, 0x10
   14970: da 89        	mv	s3, s6
   14972: 1d 4d        	li	s10, 0x7
   14974: 46 8b        	mv	s6, a7
   14976: 21 a0        	j	0x1497e <_vfprintf_r+0xabe>
   14978: c1 39        	addiw	s3, s3, -0x10
   1497a: 63 dc 3c 7b  	bge	s9, s3, 0x15132 <_vfprintf_r+0x1272>
   1497e: 85 27        	addiw	a5, a5, 0x1
   14980: c1 04        	addi	s1, s1, 0x10
   14982: 23 30 64 01  	sd	s6, 0x0(s0)
   14986: 23 34 94 01  	sd	s9, 0x8(s0)
   1498a: a6 f9        	sd	s1, 0xf0(sp)
   1498c: be d5        	sw	a5, 0xe8(sp)
   1498e: 41 04        	addi	s0, s0, 0x10
   14990: e3 54 fd fe  	bge	s10, a5, 0x14978 <_vfprintf_r+0xab8>
   14994: 22 65        	ld	a0, 0x8(sp)
   14996: 90 11        	addi	a2, sp, 0xe0
   14998: ca 85        	mv	a1, s2
   1499a: ef 10 a0 1c  	jal	0x15b64 <__sprint_r>
   1499e: 63 16 05 18  	bnez	a0, 0x14b2a <_vfprintf_r+0xc6a>
   149a2: ce 74        	ld	s1, 0xf0(sp)
   149a4: ae 57        	lw	a5, 0xe8(sp)
   149a6: 52 84        	mv	s0, s4
   149a8: c1 bf        	j	0x14978 <_vfprintf_r+0xab8>
   149aa: 05 47        	li	a4, 0x1
   149ac: e3 89 e7 62  	beq	a5, a4, 0x157de <_vfprintf_r+0x191e>
   149b0: 09 47        	li	a4, 0x2
   149b2: ee 8c        	mv	s9, s11
   149b4: e3 93 e7 d0  	bne	a5, a4, 0x146ba <_vfprintf_r+0x7fa>
   149b8: 06 77        	ld	a4, 0x60(sp)
   149ba: f4 0a        	addi	a3, sp, 0x15c
   149bc: 36 8d        	mv	s10, a3
   149be: 93 f7 f4 00  	andi	a5, s1, 0xf
   149c2: ba 97        	add	a5, a5, a4
   149c4: 83 c7 07 00  	lbu	a5, 0x0(a5)
   149c8: 91 80        	srli	s1, s1, 0x4
   149ca: 7d 1d        	addi	s10, s10, -0x1
   149cc: 23 00 fd 00  	sb	a5, 0x0(s10)
   149d0: fd f4        	bnez	s1, 0x149be <_vfprintf_r+0xafe>
   149d2: bb 86 a6 41  	subw	a3, a3, s10
   149d6: e6 8d        	mv	s11, s9
   149d8: 6f f0 ff 81  	j	0x141f6 <_vfprintf_r+0x336>
   149dc: bb 8c 8b 41  	subw	s9, s7, s8
   149e0: 63 54 90 ef  	blez	s9, 0x140c8 <_vfprintf_r+0x208>
   149e4: f5 68        	lui	a7, 0x1d
   149e6: c1 45        	li	a1, 0x10
   149e8: 2e 56        	lw	a2, 0xe8(sp)
   149ea: 93 88 08 12  	addi	a7, a7, 0x120
   149ee: 63 df 95 05  	bge	a1, s9, 0x14a4c <_vfprintf_r+0xb8c>
   149f2: a2 87        	mv	a5, s0
   149f4: 26 87        	mv	a4, s1
   149f6: 66 84        	mv	s0, s9
   149f8: 41 4f        	li	t5, 0x10
   149fa: e2 8c        	mv	s9, s8
   149fc: 9d 4f        	li	t6, 0x7
   149fe: 9a f4        	sd	t1, 0x68(sp)
   14a00: 36 8c        	mv	s8, a3
   14a02: c6 84        	mv	s1, a7
   14a04: 21 a0        	j	0x14a0c <_vfprintf_r+0xb4c>
   14a06: 41 34        	addiw	s0, s0, -0x10
   14a08: 63 5b 8f 02  	bge	t5, s0, 0x14a3e <_vfprintf_r+0xb7e>
   14a0c: 05 26        	addiw	a2, a2, 0x1
   14a0e: 41 07        	addi	a4, a4, 0x10
   14a10: 84 e3        	sd	s1, 0x0(a5)
   14a12: 23 b4 e7 01  	sd	t5, 0x8(a5)
   14a16: ba f9        	sd	a4, 0xf0(sp)
   14a18: b2 d5        	sw	a2, 0xe8(sp)
   14a1a: c1 07        	addi	a5, a5, 0x10
   14a1c: e3 d5 cf fe  	bge	t6, a2, 0x14a06 <_vfprintf_r+0xb46>
   14a20: 22 65        	ld	a0, 0x8(sp)
   14a22: 90 11        	addi	a2, sp, 0xe0
   14a24: ca 85        	mv	a1, s2
   14a26: ef 10 e0 13  	jal	0x15b64 <__sprint_r>
   14a2a: 63 10 05 10  	bnez	a0, 0x14b2a <_vfprintf_r+0xc6a>
   14a2e: 41 4f        	li	t5, 0x10
   14a30: 41 34        	addiw	s0, s0, -0x10
   14a32: 4e 77        	ld	a4, 0xf0(sp)
   14a34: 2e 56        	lw	a2, 0xe8(sp)
   14a36: d2 87        	mv	a5, s4
   14a38: 9d 4f        	li	t6, 0x7
   14a3a: e3 49 8f fc  	blt	t5, s0, 0x14a0c <_vfprintf_r+0xb4c>
   14a3e: 26 73        	ld	t1, 0x68(sp)
   14a40: e2 86        	mv	a3, s8
   14a42: a6 88        	mv	a7, s1
   14a44: 66 8c        	mv	s8, s9
   14a46: ba 84        	mv	s1, a4
   14a48: a2 8c        	mv	s9, s0
   14a4a: 3e 84        	mv	s0, a5
   14a4c: 9b 05 16 00  	addiw	a1, a2, 0x1
   14a50: e6 94        	add	s1, s1, s9
   14a52: 23 30 14 01  	sd	a7, 0x0(s0)
   14a56: 23 34 94 01  	sd	s9, 0x8(s0)
   14a5a: a6 f9        	sd	s1, 0xf0(sp)
   14a5c: ae d5        	sw	a1, 0xe8(sp)
   14a5e: 1d 47        	li	a4, 0x7
   14a60: 41 04        	addi	s0, s0, 0x10
   14a62: 63 53 b7 e6  	bge	a4, a1, 0x140c8 <_vfprintf_r+0x208>
   14a66: 22 65        	ld	a0, 0x8(sp)
   14a68: 90 11        	addi	a2, sp, 0xe0
   14a6a: ca 85        	mv	a1, s2
   14a6c: 36 e9        	sd	a3, 0x90(sp)
   14a6e: 9a f4        	sd	t1, 0x68(sp)
   14a70: ef 10 40 0f  	jal	0x15b64 <__sprint_r>
   14a74: 5d e9        	bnez	a0, 0x14b2a <_vfprintf_r+0xc6a>
   14a76: ce 74        	ld	s1, 0xf0(sp)
   14a78: ca 66        	ld	a3, 0x90(sp)
   14a7a: 26 73        	ld	t1, 0x68(sp)
   14a7c: 52 84        	mv	s0, s4
   14a7e: 6f f0 af e4  	j	0x140c8 <_vfprintf_r+0x208>
   14a82: f5 68        	lui	a7, 0x1d
   14a84: 41 47        	li	a4, 0x10
   14a86: 2e 56        	lw	a2, 0xe8(sp)
   14a88: 93 88 08 12  	addi	a7, a7, 0x120
   14a8c: 63 5d 67 05  	bge	a4, s6, 0x14ae6 <_vfprintf_r+0xc26>
   14a90: a6 85        	mv	a1, s1
   14a92: a2 87        	mv	a5, s0
   14a94: b6 84        	mv	s1, a3
   14a96: 5a 84        	mv	s0, s6
   14a98: 41 47        	li	a4, 0x10
   14a9a: 9d 4c        	li	s9, 0x7
   14a9c: 9a f4        	sd	t1, 0x68(sp)
   14a9e: 56 8b        	mv	s6, s5
   14aa0: ae 86        	mv	a3, a1
   14aa2: 21 a0        	j	0x14aaa <_vfprintf_r+0xbea>
   14aa4: 41 34        	addiw	s0, s0, -0x10
   14aa6: 63 59 87 02  	bge	a4, s0, 0x14ad8 <_vfprintf_r+0xc18>
   14aaa: 05 26        	addiw	a2, a2, 0x1
   14aac: c1 06        	addi	a3, a3, 0x10
   14aae: 23 b0 57 01  	sd	s5, 0x0(a5)
   14ab2: 98 e7        	sd	a4, 0x8(a5)
   14ab4: b6 f9        	sd	a3, 0xf0(sp)
   14ab6: b2 d5        	sw	a2, 0xe8(sp)
   14ab8: c1 07        	addi	a5, a5, 0x10
   14aba: e3 d5 cc fe  	bge	s9, a2, 0x14aa4 <_vfprintf_r+0xbe4>
   14abe: 22 65        	ld	a0, 0x8(sp)
   14ac0: 90 11        	addi	a2, sp, 0xe0
   14ac2: ca 85        	mv	a1, s2
   14ac4: ef 10 00 0a  	jal	0x15b64 <__sprint_r>
   14ac8: 2d e1        	bnez	a0, 0x14b2a <_vfprintf_r+0xc6a>
   14aca: 41 47        	li	a4, 0x10
   14acc: 41 34        	addiw	s0, s0, -0x10
   14ace: ce 76        	ld	a3, 0xf0(sp)
   14ad0: 2e 56        	lw	a2, 0xe8(sp)
   14ad2: d2 87        	mv	a5, s4
   14ad4: e3 4b 87 fc  	blt	a4, s0, 0x14aaa <_vfprintf_r+0xbea>
   14ad8: 26 73        	ld	t1, 0x68(sp)
   14ada: 36 87        	mv	a4, a3
   14adc: da 88        	mv	a7, s6
   14ade: a6 86        	mv	a3, s1
   14ae0: 22 8b        	mv	s6, s0
   14ae2: ba 84        	mv	s1, a4
   14ae4: 3e 84        	mv	s0, a5
   14ae6: 9b 05 16 00  	addiw	a1, a2, 0x1
   14aea: da 94        	add	s1, s1, s6
   14aec: 23 30 14 01  	sd	a7, 0x0(s0)
   14af0: 23 34 64 01  	sd	s6, 0x8(s0)
   14af4: a6 f9        	sd	s1, 0xf0(sp)
   14af6: ae d5        	sw	a1, 0xe8(sp)
   14af8: 1d 47        	li	a4, 0x7
   14afa: 41 04        	addi	s0, s0, 0x10
   14afc: 63 5a b7 dc  	bge	a4, a1, 0x140d0 <_vfprintf_r+0x210>
   14b00: 22 65        	ld	a0, 0x8(sp)
   14b02: 90 11        	addi	a2, sp, 0xe0
   14b04: ca 85        	mv	a1, s2
   14b06: 36 e9        	sd	a3, 0x90(sp)
   14b08: 9a f4        	sd	t1, 0x68(sp)
   14b0a: ef 10 a0 05  	jal	0x15b64 <__sprint_r>
   14b0e: 11 ed        	bnez	a0, 0x14b2a <_vfprintf_r+0xc6a>
   14b10: ce 74        	ld	s1, 0xf0(sp)
   14b12: ca 66        	ld	a3, 0x90(sp)
   14b14: 26 73        	ld	t1, 0x68(sp)
   14b16: 52 84        	mv	s0, s4
   14b18: 6f f0 8f db  	j	0x140d0 <_vfprintf_r+0x210>
   14b1c: 22 65        	ld	a0, 0x8(sp)
   14b1e: 90 11        	addi	a2, sp, 0xe0
   14b20: ca 85        	mv	a1, s2
   14b22: ef 10 20 04  	jal	0x15b64 <__sprint_r>
   14b26: 63 06 05 de  	beqz	a0, 0x14112 <_vfprintf_r+0x252>
   14b2a: e2 65        	ld	a1, 0x18(sp)
   14b2c: 63 84 05 e0  	beqz	a1, 0x14134 <_vfprintf_r+0x274>
   14b30: 22 65        	ld	a0, 0x8(sp)
   14b32: ef e0 9f b3  	jal	0x1366a <_free_r>
   14b36: 6f f0 ef df  	j	0x14134 <_vfprintf_r+0x274>
   14b3a: 05 47        	li	a4, 0x1
   14b3c: ee 8c        	mv	s9, s11
   14b3e: e3 9b e7 b6  	bne	a5, a4, 0x146b4 <_vfprintf_r+0x7f4>
   14b42: a5 47        	li	a5, 0x9
   14b44: 63 e2 97 36  	bltu	a5, s1, 0x14ea8 <_vfprintf_r+0xfe8>
   14b48: 9b 84 04 03  	addiw	s1, s1, 0x30
   14b4c: a3 0d 91 14  	sb	s1, 0x15b(sp)
   14b50: e6 8d        	mv	s11, s9
   14b52: 85 46        	li	a3, 0x1
   14b54: 13 0d b1 15  	addi	s10, sp, 0x15b
   14b58: 6f f0 ef e9  	j	0x141f6 <_vfprintf_r+0x336>
   14b5c: f5 68        	lui	a7, 0x1d
   14b5e: c1 45        	li	a1, 0x10
   14b60: 2e 56        	lw	a2, 0xe8(sp)
   14b62: 93 88 08 13  	addi	a7, a7, 0x130
   14b66: 63 de e5 04  	bge	a1, a4, 0x14bc2 <_vfprintf_r+0xd02>
   14b6a: 36 ed        	sd	a3, 0x98(sp)
   14b6c: a2 87        	mv	a5, s0
   14b6e: a6 86        	mv	a3, s1
   14b70: 41 4f        	li	t5, 0x10
   14b72: 9d 43        	li	t2, 0x7
   14b74: 96 f4        	sd	t0, 0x68(sp)
   14b76: 1a e9        	sd	t1, 0x90(sp)
   14b78: 3a 84        	mv	s0, a4
   14b7a: c6 84        	mv	s1, a7
   14b7c: 21 a0        	j	0x14b84 <_vfprintf_r+0xcc4>
   14b7e: 41 34        	addiw	s0, s0, -0x10
   14b80: 63 5a 8f 02  	bge	t5, s0, 0x14bb4 <_vfprintf_r+0xcf4>
   14b84: 05 26        	addiw	a2, a2, 0x1
   14b86: c1 06        	addi	a3, a3, 0x10
   14b88: 84 e3        	sd	s1, 0x0(a5)
   14b8a: 23 b4 e7 01  	sd	t5, 0x8(a5)
   14b8e: b6 f9        	sd	a3, 0xf0(sp)
   14b90: b2 d5        	sw	a2, 0xe8(sp)
   14b92: c1 07        	addi	a5, a5, 0x10
   14b94: e3 d5 c3 fe  	bge	t2, a2, 0x14b7e <_vfprintf_r+0xcbe>
   14b98: 22 65        	ld	a0, 0x8(sp)
   14b9a: 90 11        	addi	a2, sp, 0xe0
   14b9c: ca 85        	mv	a1, s2
   14b9e: ef 00 70 7c  	jal	0x15b64 <__sprint_r>
   14ba2: 41 f5        	bnez	a0, 0x14b2a <_vfprintf_r+0xc6a>
   14ba4: 41 4f        	li	t5, 0x10
   14ba6: 41 34        	addiw	s0, s0, -0x10
   14ba8: ce 76        	ld	a3, 0xf0(sp)
   14baa: 2e 56        	lw	a2, 0xe8(sp)
   14bac: d2 87        	mv	a5, s4
   14bae: 9d 43        	li	t2, 0x7
   14bb0: e3 4a 8f fc  	blt	t5, s0, 0x14b84 <_vfprintf_r+0xcc4>
   14bb4: a6 88        	mv	a7, s1
   14bb6: a6 72        	ld	t0, 0x68(sp)
   14bb8: b6 84        	mv	s1, a3
   14bba: 4a 63        	ld	t1, 0x90(sp)
   14bbc: ea 66        	ld	a3, 0x98(sp)
   14bbe: 22 87        	mv	a4, s0
   14bc0: 3e 84        	mv	s0, a5
   14bc2: ba 94        	add	s1, s1, a4
   14bc4: 9b 05 16 00  	addiw	a1, a2, 0x1
   14bc8: 18 e4        	sd	a4, 0x8(s0)
   14bca: 23 30 14 01  	sd	a7, 0x0(s0)
   14bce: a6 f9        	sd	s1, 0xf0(sp)
   14bd0: ae d5        	sw	a1, 0xe8(sp)
   14bd2: 1d 47        	li	a4, 0x7
   14bd4: 41 04        	addi	s0, s0, 0x10
   14bd6: 63 51 b7 ca  	bge	a4, a1, 0x14078 <_vfprintf_r+0x1b8>
   14bda: 22 65        	ld	a0, 0x8(sp)
   14bdc: 90 11        	addi	a2, sp, 0xe0
   14bde: ca 85        	mv	a1, s2
   14be0: 36 ed        	sd	a3, 0x98(sp)
   14be2: 1a e9        	sd	t1, 0x90(sp)
   14be4: 96 f4        	sd	t0, 0x68(sp)
   14be6: ef 00 f0 77  	jal	0x15b64 <__sprint_r>
   14bea: 21 f1        	bnez	a0, 0x14b2a <_vfprintf_r+0xc6a>
   14bec: ce 74        	ld	s1, 0xf0(sp)
   14bee: ea 66        	ld	a3, 0x98(sp)
   14bf0: 4a 63        	ld	t1, 0x90(sp)
   14bf2: a6 72        	ld	t0, 0x68(sp)
   14bf4: 52 84        	mv	s0, s4
   14bf6: 6f f0 2f c8  	j	0x14078 <_vfprintf_r+0x1b8>
   14bfa: 22 65        	ld	a0, 0x8(sp)
   14bfc: 90 11        	addi	a2, sp, 0xe0
   14bfe: ca 85        	mv	a1, s2
   14c00: 36 e9        	sd	a3, 0x90(sp)
   14c02: 9a f4        	sd	t1, 0x68(sp)
   14c04: ef 00 10 76  	jal	0x15b64 <__sprint_r>
   14c08: 0d f1        	bnez	a0, 0x14b2a <_vfprintf_r+0xc6a>
   14c0a: ce 74        	ld	s1, 0xf0(sp)
   14c0c: ca 66        	ld	a3, 0x90(sp)
   14c0e: 26 73        	ld	t1, 0x68(sp)
   14c10: 52 84        	mv	s0, s4
   14c12: 6f f0 ef ca  	j	0x140c0 <_vfprintf_r+0x200>
   14c16: f5 68        	lui	a7, 0x1d
   14c18: 93 88 08 13  	addi	a7, a7, 0x130
   14c1c: 41 47        	li	a4, 0x10
   14c1e: ae 57        	lw	a5, 0xe8(sp)
   14c20: c1 4c        	li	s9, 0x10
   14c22: 1d 4d        	li	s10, 0x7
   14c24: c6 8d        	mv	s11, a7
   14c26: 63 46 67 01  	blt	a4, s6, 0x14c32 <_vfprintf_r+0xd72>
   14c2a: 2d a8        	j	0x14c64 <_vfprintf_r+0xda4>
   14c2c: 41 3b        	addiw	s6, s6, -0x10
   14c2e: 63 da 6c 03  	bge	s9, s6, 0x14c62 <_vfprintf_r+0xda2>
   14c32: 85 27        	addiw	a5, a5, 0x1
   14c34: c1 04        	addi	s1, s1, 0x10
   14c36: 23 30 b4 01  	sd	s11, 0x0(s0)
   14c3a: 23 34 94 01  	sd	s9, 0x8(s0)
   14c3e: a6 f9        	sd	s1, 0xf0(sp)
   14c40: be d5        	sw	a5, 0xe8(sp)
   14c42: 41 04        	addi	s0, s0, 0x10
   14c44: e3 54 fd fe  	bge	s10, a5, 0x14c2c <_vfprintf_r+0xd6c>
   14c48: 22 65        	ld	a0, 0x8(sp)
   14c4a: 90 11        	addi	a2, sp, 0xe0
   14c4c: ca 85        	mv	a1, s2
   14c4e: ef 00 70 71  	jal	0x15b64 <__sprint_r>
   14c52: e3 1c 05 ec  	bnez	a0, 0x14b2a <_vfprintf_r+0xc6a>
   14c56: 41 3b        	addiw	s6, s6, -0x10
   14c58: ce 74        	ld	s1, 0xf0(sp)
   14c5a: ae 57        	lw	a5, 0xe8(sp)
   14c5c: 52 84        	mv	s0, s4
   14c5e: e3 ca 6c fd  	blt	s9, s6, 0x14c32 <_vfprintf_r+0xd72>
   14c62: ee 88        	mv	a7, s11
   14c64: 1b 87 17 00  	addiw	a4, a5, 0x1
   14c68: da 94        	add	s1, s1, s6
   14c6a: 23 30 14 01  	sd	a7, 0x0(s0)
   14c6e: 23 34 64 01  	sd	s6, 0x8(s0)
   14c72: a6 f9        	sd	s1, 0xf0(sp)
   14c74: ba d5        	sw	a4, 0xe8(sp)
   14c76: 9d 47        	li	a5, 0x7
   14c78: 63 d4 e7 c8  	bge	a5, a4, 0x14100 <_vfprintf_r+0x240>
   14c7c: 22 65        	ld	a0, 0x8(sp)
   14c7e: 90 11        	addi	a2, sp, 0xe0
   14c80: ca 85        	mv	a1, s2
   14c82: ef 00 30 6e  	jal	0x15b64 <__sprint_r>
   14c86: e3 12 05 ea  	bnez	a0, 0x14b2a <_vfprintf_r+0xc6a>
   14c8a: ce 74        	ld	s1, 0xf0(sp)
   14c8c: 6f f0 4f c7  	j	0x14100 <_vfprintf_r+0x240>
   14c90: 6a 57        	lw	a4, 0xb8(sp)
   14c92: 63 5d e0 40  	blez	a4, 0x150ac <_vfprintf_r+0x11ec>
   14c96: c2 77        	ld	a5, 0x30(sp)
   14c98: 62 77        	ld	a4, 0x38(sp)
   14c9a: 1b 8b 07 00  	sext.w	s6, a5
   14c9e: 63 4f f7 24  	blt	a4, a5, 0x14efc <_vfprintf_r+0x103c>
   14ca2: 63 50 60 03  	blez	s6, 0x14cc2 <_vfprintf_r+0xe02>
   14ca6: 2e 57        	lw	a4, 0xe8(sp)
   14ca8: da 94        	add	s1, s1, s6
   14caa: 23 30 a4 01  	sd	s10, 0x0(s0)
   14cae: 9b 06 17 00  	addiw	a3, a4, 0x1
   14cb2: 23 34 64 01  	sd	s6, 0x8(s0)
   14cb6: a6 f9        	sd	s1, 0xf0(sp)
   14cb8: b6 d5        	sw	a3, 0xe8(sp)
   14cba: 1d 47        	li	a4, 0x7
   14cbc: 41 04        	addi	s0, s0, 0x10
   14cbe: 63 48 d7 7c  	blt	a4, a3, 0x1548e <_vfprintf_r+0x15ce>
   14cc2: 13 47 fb ff  	not	a4, s6
   14cc6: c2 77        	ld	a5, 0x30(sp)
   14cc8: 7d 97        	srai	a4, a4, 0x3f
   14cca: 33 7b eb 00  	and	s6, s6, a4
   14cce: 3b 8b 67 41  	subw	s6, a5, s6
   14cd2: 63 4c 60 2d  	bgtz	s6, 0x14faa <_vfprintf_r+0x10ea>
   14cd6: c2 77        	ld	a5, 0x30(sp)
   14cd8: 13 f7 0d 40  	andi	a4, s11, 0x400
   14cdc: 33 03 fd 00  	add	t1, s10, a5
   14ce0: 63 10 07 62  	bnez	a4, 0x15300 <_vfprintf_r+0x1440>
   14ce4: 6a 57        	lw	a4, 0xb8(sp)
   14ce6: e2 77        	ld	a5, 0x38(sp)
   14ce8: 63 46 f7 30  	blt	a4, a5, 0x14ff4 <_vfprintf_r+0x1134>
   14cec: 93 f6 1d 00  	andi	a3, s11, 0x1
   14cf0: 63 92 06 30  	bnez	a3, 0x14ff4 <_vfprintf_r+0x1134>
   14cf4: e2 76        	ld	a3, 0x38(sp)
   14cf6: b3 07 dd 00  	add	a5, s10, a3
   14cfa: 33 8b 67 40  	sub	s6, a5, t1
   14cfe: 99 9e        	subw	a3, a3, a4
   14d00: 9b 07 0b 00  	sext.w	a5, s6
   14d04: 63 d3 f6 00  	bge	a3, a5, 0x14d0a <_vfprintf_r+0xe4a>
   14d08: 36 8b        	mv	s6, a3
   14d0a: 01 2b        	sext.w	s6, s6
   14d0c: 63 50 60 03  	blez	s6, 0x14d2c <_vfprintf_r+0xe6c>
   14d10: ae 57        	lw	a5, 0xe8(sp)
   14d12: da 94        	add	s1, s1, s6
   14d14: 23 30 64 00  	sd	t1, 0x0(s0)
   14d18: 1b 87 17 00  	addiw	a4, a5, 0x1
   14d1c: 23 34 64 01  	sd	s6, 0x8(s0)
   14d20: a6 f9        	sd	s1, 0xf0(sp)
   14d22: ba d5        	sw	a4, 0xe8(sp)
   14d24: 9d 47        	li	a5, 0x7
   14d26: 41 04        	addi	s0, s0, 0x10
   14d28: e3 ca e7 1e  	blt	a5, a4, 0x1571c <_vfprintf_r+0x185c>
   14d2c: 93 47 fb ff  	not	a5, s6
   14d30: fd 97        	srai	a5, a5, 0x3f
   14d32: 33 7b fb 00  	and	s6, s6, a5
   14d36: 3b 8b 66 41  	subw	s6, a3, s6
   14d3a: 63 5b 60 bb  	blez	s6, 0x140f0 <_vfprintf_r+0x230>
   14d3e: f5 68        	lui	a7, 0x1d
   14d40: 41 47        	li	a4, 0x10
   14d42: ae 57        	lw	a5, 0xe8(sp)
   14d44: 93 88 08 12  	addi	a7, a7, 0x120
   14d48: 63 58 67 3f  	bge	a4, s6, 0x15138 <_vfprintf_r+0x1278>
   14d4c: 4e f8        	sd	s3, 0x30(sp)
   14d4e: c1 4c        	li	s9, 0x10
   14d50: ca 89        	mv	s3, s2
   14d52: 1d 4d        	li	s10, 0x7
   14d54: 5a 89        	mv	s2, s6
   14d56: 46 8b        	mv	s6, a7
   14d58: 21 a0        	j	0x14d60 <_vfprintf_r+0xea0>
   14d5a: 41 39        	addiw	s2, s2, -0x10
   14d5c: e3 d1 2c 17  	bge	s9, s2, 0x156be <_vfprintf_r+0x17fe>
   14d60: 85 27        	addiw	a5, a5, 0x1
   14d62: c1 04        	addi	s1, s1, 0x10
   14d64: 23 30 64 01  	sd	s6, 0x0(s0)
   14d68: 23 34 94 01  	sd	s9, 0x8(s0)
   14d6c: a6 f9        	sd	s1, 0xf0(sp)
   14d6e: be d5        	sw	a5, 0xe8(sp)
   14d70: 41 04        	addi	s0, s0, 0x10
   14d72: e3 54 fd fe  	bge	s10, a5, 0x14d5a <_vfprintf_r+0xe9a>
   14d76: 22 65        	ld	a0, 0x8(sp)
   14d78: 90 11        	addi	a2, sp, 0xe0
   14d7a: ce 85        	mv	a1, s3
   14d7c: ef 00 90 5e  	jal	0x15b64 <__sprint_r>
   14d80: e3 14 05 3e  	bnez	a0, 0x15968 <_vfprintf_r+0x1aa8>
   14d84: ce 74        	ld	s1, 0xf0(sp)
   14d86: ae 57        	lw	a5, 0xe8(sp)
   14d88: 52 84        	mv	s0, s4
   14d8a: c1 bf        	j	0x14d5a <_vfprintf_r+0xe9a>
   14d8c: 13 f6 1d 00  	andi	a2, s11, 0x1
   14d90: e3 1d 06 82  	bnez	a2, 0x145ca <_vfprintf_r+0x70a>
   14d94: 14 e4        	sd	a3, 0x8(s0)
   14d96: a6 f9        	sd	s1, 0xf0(sp)
   14d98: da d5        	sw	s6, 0xe8(sp)
   14d9a: 9d 47        	li	a5, 0x7
   14d9c: e3 d5 67 89  	bge	a5, s6, 0x14626 <_vfprintf_r+0x766>
   14da0: 22 65        	ld	a0, 0x8(sp)
   14da2: 90 11        	addi	a2, sp, 0xe0
   14da4: ca 85        	mv	a1, s2
   14da6: ef 00 f0 5b  	jal	0x15b64 <__sprint_r>
   14daa: e3 10 05 d8  	bnez	a0, 0x14b2a <_vfprintf_r+0xc6a>
   14dae: ce 74        	ld	s1, 0xf0(sp)
   14db0: 2e 5b        	lw	s6, 0xe8(sp)
   14db2: d2 8c        	mv	s9, s4
   14db4: 8d b8        	j	0x14626 <_vfprintf_r+0x766>
   14db6: 62 77        	ld	a4, 0x38(sp)
   14db8: 85 47        	li	a5, 0x1
   14dba: e3 d6 e7 86  	bge	a5, a4, 0x14626 <_vfprintf_r+0x766>
   14dbe: f5 68        	lui	a7, 0x1d
   14dc0: c5 47        	li	a5, 0x11
   14dc2: 93 88 08 12  	addi	a7, a7, 0x120
   14dc6: 63 dd e7 44  	bge	a5, a4, 0x15220 <_vfprintf_r+0x1360>
   14dca: 4e f8        	sd	s3, 0x30(sp)
   14dcc: 41 47        	li	a4, 0x10
   14dce: 1d 4d        	li	s10, 0x7
   14dd0: c6 89        	mv	s3, a7
   14dd2: 21 a0        	j	0x14dda <_vfprintf_r+0xf1a>
   14dd4: 41 34        	addiw	s0, s0, -0x10
   14dd6: 63 53 87 44  	bge	a4, s0, 0x1521c <_vfprintf_r+0x135c>
   14dda: 05 2b        	addiw	s6, s6, 0x1
   14ddc: c1 04        	addi	s1, s1, 0x10
   14dde: 23 b0 3c 01  	sd	s3, 0x0(s9)
   14de2: 23 b4 ec 00  	sd	a4, 0x8(s9)
   14de6: a6 f9        	sd	s1, 0xf0(sp)
   14de8: da d5        	sw	s6, 0xe8(sp)
   14dea: c1 0c        	addi	s9, s9, 0x10
   14dec: e3 54 6d ff  	bge	s10, s6, 0x14dd4 <_vfprintf_r+0xf14>
   14df0: 22 65        	ld	a0, 0x8(sp)
   14df2: 90 11        	addi	a2, sp, 0xe0
   14df4: ca 85        	mv	a1, s2
   14df6: ef 00 f0 56  	jal	0x15b64 <__sprint_r>
   14dfa: e3 18 05 d2  	bnez	a0, 0x14b2a <_vfprintf_r+0xc6a>
   14dfe: ce 74        	ld	s1, 0xf0(sp)
   14e00: 2e 5b        	lw	s6, 0xe8(sp)
   14e02: d2 8c        	mv	s9, s4
   14e04: 41 47        	li	a4, 0x10
   14e06: f9 b7        	j	0x14dd4 <_vfprintf_r+0xf14>
   14e08: 93 f7 0c 01  	andi	a5, s9, 0x10
   14e0c: a9 e3        	bnez	a5, 0x14e4e <_vfprintf_r+0xf8e>
   14e0e: 82 76        	ld	a3, 0x20(sp)
   14e10: 93 f7 0c 04  	andi	a5, s9, 0x40
   14e14: 84 42        	lw	s1, 0x0(a3)
   14e16: 63 84 07 44  	beqz	a5, 0x1525e <_vfprintf_r+0x139e>
   14e1a: c2 14        	slli	s1, s1, 0x30
   14e1c: c1 90        	srli	s1, s1, 0x30
   14e1e: 3a f0        	sd	a4, 0x20(sp)
   14e20: 85 47        	li	a5, 0x1
   14e22: 6f f0 6f c1  	j	0x14238 <_vfprintf_r+0x378>
   14e26: 81 46        	li	a3, 0x0
   14e28: 13 0d c1 15  	addi	s10, sp, 0x15c
   14e2c: 6f f0 af bc  	j	0x141f6 <_vfprintf_r+0x336>
   14e30: 93 f7 1d 00  	andi	a5, s11, 0x1
   14e34: 63 8e 07 aa  	beqz	a5, 0x140f0 <_vfprintf_r+0x230>
   14e38: fd bc        	j	0x14936 <_vfprintf_r+0xa76>
   14e3a: 03 c3 09 00  	lbu	t1, 0x0(s3)
   14e3e: 3e f0        	sd	a5, 0x20(sp)
   14e40: 6f f0 8f 9a  	j	0x13fe8 <_vfprintf_r+0x128>
   14e44: 82 77        	ld	a5, 0x20(sp)
   14e46: 9c 63        	ld	a5, 0x0(a5)
   14e48: be 84        	mv	s1, a5
   14e4a: 6f f0 6f b8  	j	0x141d0 <_vfprintf_r+0x310>
   14e4e: 82 77        	ld	a5, 0x20(sp)
   14e50: 3a f0        	sd	a4, 0x20(sp)
   14e52: 84 63        	ld	s1, 0x0(a5)
   14e54: 85 47        	li	a5, 0x1
   14e56: 6f f0 2f be  	j	0x14238 <_vfprintf_r+0x378>
   14e5a: 93 f7 0d 01  	andi	a5, s11, 0x10
   14e5e: e3 9e 07 a4  	bnez	a5, 0x148ba <_vfprintf_r+0x9fa>
   14e62: 93 f7 0d 04  	andi	a5, s11, 0x40
   14e66: 63 91 07 66  	bnez	a5, 0x154c8 <_vfprintf_r+0x1608>
   14e6a: 13 fe 0d 20  	andi	t3, s11, 0x200
   14e6e: c2 67        	ld	a5, 0x10(sp)
   14e70: e3 00 0e 20  	beqz	t3, 0x15870 <_vfprintf_r+0x19b0>
   14e74: 23 00 f7 00  	sb	a5, 0x0(a4)
   14e78: 99 b4        	j	0x148be <_vfprintf_r+0x9fe>
   14e7a: 82 77        	ld	a5, 0x20(sp)
   14e7c: 84 63        	ld	s1, 0x0(a5)
   14e7e: 6f f0 0f bb  	j	0x1422e <_vfprintf_r+0x36e>
   14e82: 82 77        	ld	a5, 0x20(sp)
   14e84: 13 8c f7 00  	addi	s8, a5, 0xf
   14e88: 13 7c 0c ff  	andi	s8, s8, -0x10
   14e8c: 93 07 0c 01  	addi	a5, s8, 0x10
   14e90: 03 37 0c 00  	ld	a4, 0x0(s8)
   14e94: 83 35 8c 00  	ld	a1, 0x8(s8)
   14e98: 3e f0        	sd	a5, 0x20(sp)
   14e9a: 6f f0 0f c1  	j	0x142aa <_vfprintf_r+0x3ea>
   14e9e: 3a f0        	sd	a4, 0x20(sp)
   14ea0: a5 47        	li	a5, 0x9
   14ea2: ee 8c        	mv	s9, s11
   14ea4: e3 f2 97 ca  	bgeu	a5, s1, 0x14b48 <_vfprintf_r+0xc88>
   14ea8: f4 0a        	addi	a3, sp, 0x15c
   14eaa: 8a 68        	ld	a7, 0x80(sp)
   14eac: 13 f7 0c 40  	andi	a4, s9, 0x400
   14eb0: 01 46        	li	a2, 0x0
   14eb2: b6 85        	mv	a1, a3
   14eb4: a9 4d        	li	s11, 0xa
   14eb6: 25 48        	li	a6, 0x9
   14eb8: 13 0c f0 0f  	li	s8, 0xff
   14ebc: 39 a0        	j	0x14eca <_vfprintf_r+0x100a>
   14ebe: b3 d7 b4 03  	divu	a5, s1, s11
   14ec2: 63 76 98 02  	bgeu	a6, s1, 0x14eee <_vfprintf_r+0x102e>
   14ec6: be 84        	mv	s1, a5
   14ec8: ea 85        	mv	a1, s10
   14eca: 13 8d f5 ff  	addi	s10, a1, -0x1
   14ece: 05 26        	addiw	a2, a2, 0x1
   14ed0: b3 f7 b4 03  	remu	a5, s1, s11
   14ed4: 9b 87 07 03  	addiw	a5, a5, 0x30
   14ed8: a3 8f f5 fe  	sb	a5, -0x1(a1)
   14edc: 6d d3        	beqz	a4, 0x14ebe <_vfprintf_r+0xffe>
   14ede: 83 c7 08 00  	lbu	a5, 0x0(a7)
   14ee2: e3 1e f6 fc  	bne	a2, a5, 0x14ebe <_vfprintf_r+0xffe>
   14ee6: e3 8c 87 fd  	beq	a5, s8, 0x14ebe <_vfprintf_r+0xffe>
   14eea: 63 60 98 3e  	bltu	a6, s1, 0x152ca <_vfprintf_r+0x140a>
   14eee: 32 fc        	sd	a2, 0x38(sp)
   14ef0: 46 e1        	sd	a7, 0x80(sp)
   14ef2: bb 86 a6 41  	subw	a3, a3, s10
   14ef6: e6 8d        	mv	s11, s9
   14ef8: 6f f0 ef af  	j	0x141f6 <_vfprintf_r+0x336>
   14efc: 1b 0b 07 00  	sext.w	s6, a4
   14f00: e3 43 60 db  	bgtz	s6, 0x14ca6 <_vfprintf_r+0xde6>
   14f04: 7d bb        	j	0x14cc2 <_vfprintf_r+0xe02>
   14f06: 7d 5b        	li	s6, -0x1
   14f08: ba 89        	mv	s3, a4
   14f0a: 6f f0 2f 8e  	j	0x13fec <_vfprintf_r+0x12c>
   14f0e: ee 8c        	mv	s9, s11
   14f10: f1 b8        	j	0x147ec <_vfprintf_r+0x92c>
   14f12: f5 67        	lui	a5, 0x1d
   14f14: 93 87 87 c8  	addi	a5, a5, -0x378
   14f18: be f0        	sd	a5, 0x60(sp)
   14f1a: 82 76        	ld	a3, 0x20(sp)
   14f1c: 93 f7 0d 02  	andi	a5, s11, 0x20
   14f20: 13 87 86 00  	addi	a4, a3, 0x8
   14f24: 63 86 07 14  	beqz	a5, 0x15070 <_vfprintf_r+0x11b0>
   14f28: 84 62        	ld	s1, 0x0(a3)
   14f2a: 93 f7 1d 00  	andi	a5, s11, 0x1
   14f2e: 81 cf        	beqz	a5, 0x14f46 <_vfprintf_r+0x1086>
   14f30: 99 c8        	beqz	s1, 0x14f46 <_vfprintf_r+0x1086>
   14f32: 13 ee 2d 00  	ori	t3, s11, 0x2
   14f36: 93 07 00 03  	li	a5, 0x30
   14f3a: 23 08 f1 0a  	sb	a5, 0xb0(sp)
   14f3e: a3 08 61 0a  	sb	t1, 0xb1(sp)
   14f42: 9b 0d 0e 00  	sext.w	s11, t3
   14f46: 93 fc fd bf  	andi	s9, s11, -0x401
   14f4a: 81 2c        	sext.w	s9, s9
   14f4c: 3a f0        	sd	a4, 0x20(sp)
   14f4e: 89 47        	li	a5, 0x2
   14f50: 6f f0 8f ae  	j	0x14238 <_vfprintf_r+0x378>
   14f54: f5 67        	lui	a5, 0x1d
   14f56: 93 87 07 c7  	addi	a5, a5, -0x390
   14f5a: be f0        	sd	a5, 0x60(sp)
   14f5c: 7d bf        	j	0x14f1a <_vfprintf_r+0x105a>
   14f5e: 93 ed 0d 20  	ori	s11, s11, 0x200
   14f62: 03 c3 19 00  	lbu	t1, 0x1(s3)
   14f66: 81 2d        	sext.w	s11, s11
   14f68: 85 09        	addi	s3, s3, 0x1
   14f6a: 6f f0 ef 87  	j	0x13fe8 <_vfprintf_r+0x128>
   14f6e: 93 ed 0d 02  	ori	s11, s11, 0x20
   14f72: 03 c3 19 00  	lbu	t1, 0x1(s3)
   14f76: 81 2d        	sext.w	s11, s11
   14f78: 85 09        	addi	s3, s3, 0x1
   14f7a: 6f f0 ef 86  	j	0x13fe8 <_vfprintf_r+0x128>
   14f7e: 22 65        	ld	a0, 0x8(sp)
   14f80: 90 11        	addi	a2, sp, 0xe0
   14f82: ca 85        	mv	a1, s2
   14f84: ef 00 10 3e  	jal	0x15b64 <__sprint_r>
   14f88: e3 11 05 ba  	bnez	a0, 0x14b2a <_vfprintf_r+0xc6a>
   14f8c: ce 74        	ld	s1, 0xf0(sp)
   14f8e: 52 84        	mv	s0, s4
   14f90: d1 b2        	j	0x14954 <_vfprintf_r+0xa94>
   14f92: 99 47        	li	a5, 0x6
   14f94: 9b 06 0b 00  	sext.w	a3, s6
   14f98: 63 e6 67 51  	bltu	a5, s6, 0x154a4 <_vfprintf_r+0x15e4>
   14f9c: f5 67        	lui	a5, 0x1d
   14f9e: 36 8c        	mv	s8, a3
   14fa0: 26 f0        	sd	s1, 0x20(sp)
   14fa2: 13 8d 07 ca  	addi	s10, a5, -0x360
   14fa6: 6f f0 cf 8a  	j	0x14052 <_vfprintf_r+0x192>
   14faa: f5 68        	lui	a7, 0x1d
   14fac: c1 46        	li	a3, 0x10
   14fae: 2e 57        	lw	a4, 0xe8(sp)
   14fb0: 93 88 08 12  	addi	a7, a7, 0x120
   14fb4: 63 d4 66 2f  	bge	a3, s6, 0x1529c <_vfprintf_r+0x13dc>
   14fb8: c1 46        	li	a3, 0x10
   14fba: 1d 43        	li	t1, 0x7
   14fbc: c6 8c        	mv	s9, a7
   14fbe: 21 a0        	j	0x14fc6 <_vfprintf_r+0x1106>
   14fc0: 41 3b        	addiw	s6, s6, -0x10
   14fc2: 63 dc 66 2d  	bge	a3, s6, 0x1529a <_vfprintf_r+0x13da>
   14fc6: 05 27        	addiw	a4, a4, 0x1
   14fc8: c1 04        	addi	s1, s1, 0x10
   14fca: 23 30 94 01  	sd	s9, 0x0(s0)
   14fce: 14 e4        	sd	a3, 0x8(s0)
   14fd0: a6 f9        	sd	s1, 0xf0(sp)
   14fd2: ba d5        	sw	a4, 0xe8(sp)
   14fd4: 41 04        	addi	s0, s0, 0x10
   14fd6: e3 55 e3 fe  	bge	t1, a4, 0x14fc0 <_vfprintf_r+0x1100>
   14fda: 22 65        	ld	a0, 0x8(sp)
   14fdc: 90 11        	addi	a2, sp, 0xe0
   14fde: ca 85        	mv	a1, s2
   14fe0: ef 00 50 38  	jal	0x15b64 <__sprint_r>
   14fe4: e3 13 05 b4  	bnez	a0, 0x14b2a <_vfprintf_r+0xc6a>
   14fe8: ce 74        	ld	s1, 0xf0(sp)
   14fea: 2e 57        	lw	a4, 0xe8(sp)
   14fec: 52 84        	mv	s0, s4
   14fee: 1d 43        	li	t1, 0x7
   14ff0: c1 46        	li	a3, 0x10
   14ff2: f9 b7        	j	0x14fc0 <_vfprintf_r+0x1100>
   14ff4: ae 56        	lw	a3, 0xe8(sp)
   14ff6: c6 67        	ld	a5, 0x50(sp)
   14ff8: 66 66        	ld	a2, 0x58(sp)
   14ffa: 41 04        	addi	s0, s0, 0x10
   14ffc: be 94        	add	s1, s1, a5
   14ffe: 23 38 c4 fe  	sd	a2, -0x10(s0)
   15002: 1b 86 16 00  	addiw	a2, a3, 0x1
   15006: 23 3c f4 fe  	sd	a5, -0x8(s0)
   1500a: a6 f9        	sd	s1, 0xf0(sp)
   1500c: b2 d5        	sw	a2, 0xe8(sp)
   1500e: 9d 46        	li	a3, 0x7
   15010: e3 d2 c6 ce  	bge	a3, a2, 0x14cf4 <_vfprintf_r+0xe34>
   15014: 22 65        	ld	a0, 0x8(sp)
   15016: 90 11        	addi	a2, sp, 0xe0
   15018: ca 85        	mv	a1, s2
   1501a: 1a f8        	sd	t1, 0x30(sp)
   1501c: ef 00 90 34  	jal	0x15b64 <__sprint_r>
   15020: e3 15 05 b0  	bnez	a0, 0x14b2a <_vfprintf_r+0xc6a>
   15024: 6a 57        	lw	a4, 0xb8(sp)
   15026: ce 74        	ld	s1, 0xf0(sp)
   15028: 42 73        	ld	t1, 0x30(sp)
   1502a: 52 84        	mv	s0, s4
   1502c: e1 b1        	j	0x14cf4 <_vfprintf_r+0xe34>
   1502e: 93 07 80 07  	li	a5, 0x78
   15032: 93 06 00 03  	li	a3, 0x30
   15036: 13 e7 2d 00  	ori	a4, s11, 0x2
   1503a: a3 08 f1 0a  	sb	a5, 0xb1(sp)
   1503e: 23 08 d1 0a  	sb	a3, 0xb0(sp)
   15042: 93 07 30 06  	li	a5, 0x63
   15046: 01 27        	sext.w	a4, a4
   15048: 63 cf 67 4b  	blt	a5, s6, 0x15506 <_vfprintf_r+0x1646>
   1504c: ce 67        	ld	a5, 0xd0(sp)
   1504e: ee 6c        	ld	s9, 0xd8(sp)
   15050: 13 ee 2d 10  	ori	t3, s11, 0x102
   15054: 3e f8        	sd	a5, 0x30(sp)
   15056: 9b 04 0e 00  	sext.w	s1, t3
   1505a: 63 cf 0c 60  	bltz	s9, 0x15678 <_vfprintf_r+0x17b8>
   1505e: 9b 06 f3 fb  	addiw	a3, t1, -0x41
   15062: ba 8d        	mv	s11, a4
   15064: 82 f4        	sd	zero, 0x68(sp)
   15066: 02 ec        	sd	zero, 0x18(sp)
   15068: 13 0d 81 0f  	addi	s10, sp, 0xf8
   1506c: 6f f0 6f ab  	j	0x14322 <_vfprintf_r+0x462>
   15070: 93 f7 0d 01  	andi	a5, s11, 0x10
   15074: d1 c7        	beqz	a5, 0x15100 <_vfprintf_r+0x1240>
   15076: 82 77        	ld	a5, 0x20(sp)
   15078: 84 63        	ld	s1, 0x0(a5)
   1507a: 45 bd        	j	0x14f2a <_vfprintf_r+0x106a>
   1507c: 22 65        	ld	a0, 0x8(sp)
   1507e: 90 11        	addi	a2, sp, 0xe0
   15080: ca 85        	mv	a1, s2
   15082: ef 00 30 2e  	jal	0x15b64 <__sprint_r>
   15086: e3 12 05 aa  	bnez	a0, 0x14b2a <_vfprintf_r+0xc6a>
   1508a: ce 74        	ld	s1, 0xf0(sp)
   1508c: 2e 5b        	lw	s6, 0xe8(sp)
   1508e: d2 8c        	mv	s9, s4
   15090: 6f f0 8f d4  	j	0x145d8 <_vfprintf_r+0x718>
   15094: 22 65        	ld	a0, 0x8(sp)
   15096: 90 11        	addi	a2, sp, 0xe0
   15098: ca 85        	mv	a1, s2
   1509a: ef 00 b0 2c  	jal	0x15b64 <__sprint_r>
   1509e: e3 16 05 a8  	bnez	a0, 0x14b2a <_vfprintf_r+0xc6a>
   150a2: ce 74        	ld	s1, 0xf0(sp)
   150a4: 2e 5b        	lw	s6, 0xe8(sp)
   150a6: d2 8c        	mv	s9, s4
   150a8: 6f f0 cf d4  	j	0x145f4 <_vfprintf_r+0x734>
   150ac: ae 56        	lw	a3, 0xe8(sp)
   150ae: 75 66        	lui	a2, 0x1d
   150b0: 13 06 86 ca  	addi	a2, a2, -0x358
   150b4: 85 26        	addiw	a3, a3, 0x1
   150b6: 10 e0        	sd	a2, 0x0(s0)
   150b8: 85 04        	addi	s1, s1, 0x1
   150ba: 05 46        	li	a2, 0x1
   150bc: 10 e4        	sd	a2, 0x8(s0)
   150be: b6 d5        	sw	a3, 0xe8(sp)
   150c0: 1b 86 06 00  	sext.w	a2, a3
   150c4: a6 f9        	sd	s1, 0xf0(sp)
   150c6: 9d 46        	li	a3, 0x7
   150c8: 41 04        	addi	s0, s0, 0x10
   150ca: 63 c3 c6 3a  	blt	a3, a2, 0x15470 <_vfprintf_r+0x15b0>
   150ce: 63 13 07 10  	bnez	a4, 0x151d4 <_vfprintf_r+0x1314>
   150d2: e2 77        	ld	a5, 0x38(sp)
   150d4: 13 f7 1d 00  	andi	a4, s11, 0x1
   150d8: 5d 8f        	or	a4, a4, a5
   150da: 19 e3        	bnez	a4, 0x150e0 <_vfprintf_r+0x1220>
   150dc: 6f f0 4f 81  	j	0x140f0 <_vfprintf_r+0x230>
   150e0: 2e 57        	lw	a4, 0xe8(sp)
   150e2: c6 67        	ld	a5, 0x50(sp)
   150e4: e6 66        	ld	a3, 0x58(sp)
   150e6: 33 86 97 00  	add	a2, a5, s1
   150ea: 14 e0        	sd	a3, 0x0(s0)
   150ec: 9b 06 17 00  	addiw	a3, a4, 0x1
   150f0: 1c e4        	sd	a5, 0x8(s0)
   150f2: b2 f9        	sd	a2, 0xf0(sp)
   150f4: b6 d5        	sw	a3, 0xe8(sp)
   150f6: 1d 47        	li	a4, 0x7
   150f8: 63 4b d7 3e  	blt	a4, a3, 0x154ee <_vfprintf_r+0x162e>
   150fc: 41 04        	addi	s0, s0, 0x10
   150fe: f5 a8        	j	0x151fa <_vfprintf_r+0x133a>
   15100: 82 76        	ld	a3, 0x20(sp)
   15102: 93 f7 0d 04  	andi	a5, s11, 0x40
   15106: 84 42        	lw	s1, 0x0(a3)
   15108: 63 85 07 16  	beqz	a5, 0x15272 <_vfprintf_r+0x13b2>
   1510c: c2 14        	slli	s1, s1, 0x30
   1510e: c1 90        	srli	s1, s1, 0x30
   15110: 29 bd        	j	0x14f2a <_vfprintf_r+0x106a>
   15112: 22 65        	ld	a0, 0x8(sp)
   15114: ef d0 9f e0  	jal	0x12f1c <__sinit>
   15118: 6f e0 3f de  	j	0x13efa <_vfprintf_r+0x3a>
   1511c: 22 65        	ld	a0, 0x8(sp)
   1511e: 90 11        	addi	a2, sp, 0xe0
   15120: ca 85        	mv	a1, s2
   15122: ef 00 30 24  	jal	0x15b64 <__sprint_r>
   15126: e3 12 05 a0  	bnez	a0, 0x14b2a <_vfprintf_r+0xc6a>
   1512a: ce 74        	ld	s1, 0xf0(sp)
   1512c: 52 84        	mv	s0, s4
   1512e: 6f f0 1f 80  	j	0x1492e <_vfprintf_r+0xa6e>
   15132: da 88        	mv	a7, s6
   15134: 4e 8b        	mv	s6, s3
   15136: c2 79        	ld	s3, 0x30(sp)
   15138: 1b 87 17 00  	addiw	a4, a5, 0x1
   1513c: 23 30 14 01  	sd	a7, 0x0(s0)
   15140: 23 34 64 01  	sd	s6, 0x8(s0)
   15144: da 94        	add	s1, s1, s6
   15146: a6 f9        	sd	s1, 0xf0(sp)
   15148: ba d5        	sw	a4, 0xe8(sp)
   1514a: 9d 47        	li	a5, 0x7
   1514c: 63 c4 e7 00  	blt	a5, a4, 0x15154 <_vfprintf_r+0x1294>
   15150: 6f e0 ff f9  	j	0x140ee <_vfprintf_r+0x22e>
   15154: 6f f0 4f cf  	j	0x14648 <_vfprintf_r+0x788>
   15158: 3a f0        	sd	a4, 0x20(sp)
   1515a: e5 b2        	j	0x14b42 <_vfprintf_r+0xc82>
   1515c: 4e 65        	ld	a0, 0xd0(sp)
   1515e: ee 65        	ld	a1, 0xd8(sp)
   15160: 01 46        	li	a2, 0x0
   15162: 81 46        	li	a3, 0x0
   15164: ef 60 20 6a  	jal	0x1b806 <__lttf2>
   15168: 62 63        	ld	t1, 0x18(sp)
   1516a: 63 43 05 54  	bltz	a0, 0x156b0 <_vfprintf_r+0x17f0>
   1516e: 03 47 f1 0a  	lbu	a4, 0xaf(sp)
   15172: 93 07 70 04  	li	a5, 0x47
   15176: 63 d8 67 30  	bge	a5, t1, 0x15486 <_vfprintf_r+0x15c6>
   1517a: f5 67        	lui	a5, 0x1d
   1517c: 13 8d 87 c5  	addi	s10, a5, -0x3a8
   15180: 13 fe fd f7  	andi	t3, s11, -0x81
   15184: 02 ec        	sd	zero, 0x18(sp)
   15186: 82 e4        	sd	zero, 0x48(sp)
   15188: 82 e0        	sd	zero, 0x40(sp)
   1518a: 02 f8        	sd	zero, 0x30(sp)
   1518c: 9b 0d 0e 00  	sext.w	s11, t3
   15190: 0d 4c        	li	s8, 0x3
   15192: 8d 46        	li	a3, 0x3
   15194: 01 4b        	li	s6, 0x0
   15196: 19 c3        	beqz	a4, 0x1519c <_vfprintf_r+0x12dc>
   15198: 6f f0 af 87  	j	0x14212 <_vfprintf_r+0x352>
   1519c: 6f e0 1f ec  	j	0x1405c <_vfprintf_r+0x19c>
   151a0: 6a 85        	mv	a0, s10
   151a2: 9a f4        	sd	t1, 0x68(sp)
   151a4: ef e0 6f a7  	jal	0x1341a <strlen>
   151a8: 9b 06 05 00  	sext.w	a3, a0
   151ac: 03 47 f1 0a  	lbu	a4, 0xaf(sp)
   151b0: 13 c8 f6 ff  	not	a6, a3
   151b4: 13 58 f8 43  	srai	a6, a6, 0x3f
   151b8: 26 f0        	sd	s1, 0x20(sp)
   151ba: 02 ec        	sd	zero, 0x18(sp)
   151bc: 82 e4        	sd	zero, 0x48(sp)
   151be: 82 e0        	sd	zero, 0x40(sp)
   151c0: 02 f8        	sd	zero, 0x30(sp)
   151c2: 26 73        	ld	t1, 0x68(sp)
   151c4: 33 7c d8 00  	and	s8, a6, a3
   151c8: 01 4b        	li	s6, 0x0
   151ca: 19 c3        	beqz	a4, 0x151d0 <_vfprintf_r+0x1310>
   151cc: 6f f0 6f 84  	j	0x14212 <_vfprintf_r+0x352>
   151d0: 6f e0 df e8  	j	0x1405c <_vfprintf_r+0x19c>
   151d4: ae 55        	lw	a1, 0xe8(sp)
   151d6: c6 67        	ld	a5, 0x50(sp)
   151d8: e6 66        	ld	a3, 0x58(sp)
   151da: 41 04        	addi	s0, s0, 0x10
   151dc: 33 86 97 00  	add	a2, a5, s1
   151e0: 23 38 d4 fe  	sd	a3, -0x10(s0)
   151e4: 9b 86 15 00  	addiw	a3, a1, 0x1
   151e8: 23 3c f4 fe  	sd	a5, -0x8(s0)
   151ec: b2 f9        	sd	a2, 0xf0(sp)
   151ee: b6 d5        	sw	a3, 0xe8(sp)
   151f0: 9d 45        	li	a1, 0x7
   151f2: 63 ce d5 2e  	blt	a1, a3, 0x154ee <_vfprintf_r+0x162e>
   151f6: 63 46 07 54  	bltz	a4, 0x15742 <_vfprintf_r+0x1882>
   151fa: e2 77        	ld	a5, 0x38(sp)
   151fc: 1b 87 16 00  	addiw	a4, a3, 0x1
   15200: 23 30 a4 01  	sd	s10, 0x0(s0)
   15204: b3 84 c7 00  	add	s1, a5, a2
   15208: 1c e4        	sd	a5, 0x8(s0)
   1520a: a6 f9        	sd	s1, 0xf0(sp)
   1520c: ba d5        	sw	a4, 0xe8(sp)
   1520e: 9d 47        	li	a5, 0x7
   15210: 63 c4 e7 00  	blt	a5, a4, 0x15218 <_vfprintf_r+0x1358>
   15214: 6f e0 bf ed  	j	0x140ee <_vfprintf_r+0x22e>
   15218: 6f f0 0f c3  	j	0x14648 <_vfprintf_r+0x788>
   1521c: ce 88        	mv	a7, s3
   1521e: c2 79        	ld	s3, 0x30(sp)
   15220: 05 2b        	addiw	s6, s6, 0x1
   15222: a2 94        	add	s1, s1, s0
   15224: 23 b0 1c 01  	sd	a7, 0x0(s9)
   15228: 23 b4 8c 00  	sd	s0, 0x8(s9)
   1522c: a6 f9        	sd	s1, 0xf0(sp)
   1522e: da d5        	sw	s6, 0xe8(sp)
   15230: 9d 47        	li	a5, 0x7
   15232: 63 d9 67 bf  	bge	a5, s6, 0x14624 <_vfprintf_r+0x764>
   15236: ad b6        	j	0x14da0 <_vfprintf_r+0xee0>
   15238: 93 f7 0d 20  	andi	a5, s11, 0x200
   1523c: 63 82 07 28  	beqz	a5, 0x154c0 <_vfprintf_r+0x1600>
   15240: 93 f4 f4 0f  	andi	s1, s1, 0xff
   15244: 6f e0 bf fe  	j	0x1422e <_vfprintf_r+0x36e>
   15248: 93 f7 0d 20  	andi	a5, s11, 0x200
   1524c: 63 87 07 26  	beqz	a5, 0x154ba <_vfprintf_r+0x15fa>
   15250: 9b 94 84 01  	slliw	s1, s1, 0x18
   15254: 9b d4 84 41  	sraiw	s1, s1, 0x18
   15258: a6 87        	mv	a5, s1
   1525a: 6f e0 7f f7  	j	0x141d0 <_vfprintf_r+0x310>
   1525e: 93 f7 0c 20  	andi	a5, s9, 0x200
   15262: 63 86 07 24  	beqz	a5, 0x154ae <_vfprintf_r+0x15ee>
   15266: 93 f4 f4 0f  	andi	s1, s1, 0xff
   1526a: 3a f0        	sd	a4, 0x20(sp)
   1526c: 85 47        	li	a5, 0x1
   1526e: 6f e0 bf fc  	j	0x14238 <_vfprintf_r+0x378>
   15272: 93 f7 0d 20  	andi	a5, s11, 0x200
   15276: 63 89 07 22  	beqz	a5, 0x154a8 <_vfprintf_r+0x15e8>
   1527a: 93 f4 f4 0f  	andi	s1, s1, 0xff
   1527e: 75 b1        	j	0x14f2a <_vfprintf_r+0x106a>
   15280: ee 67        	ld	a5, 0xd8(sp)
   15282: 63 cf 07 24  	bltz	a5, 0x154e0 <_vfprintf_r+0x1620>
   15286: 03 47 f1 0a  	lbu	a4, 0xaf(sp)
   1528a: 93 07 70 04  	li	a5, 0x47
   1528e: 63 c6 67 4a  	blt	a5, t1, 0x1573a <_vfprintf_r+0x187a>
   15292: f5 67        	lui	a5, 0x1d
   15294: 13 8d 07 c6  	addi	s10, a5, -0x3a0
   15298: e5 b5        	j	0x15180 <_vfprintf_r+0x12c0>
   1529a: e6 88        	mv	a7, s9
   1529c: 9b 06 17 00  	addiw	a3, a4, 0x1
   152a0: da 94        	add	s1, s1, s6
   152a2: 23 30 14 01  	sd	a7, 0x0(s0)
   152a6: 23 34 64 01  	sd	s6, 0x8(s0)
   152aa: a6 f9        	sd	s1, 0xf0(sp)
   152ac: b6 d5        	sw	a3, 0xe8(sp)
   152ae: 1d 47        	li	a4, 0x7
   152b0: 41 04        	addi	s0, s0, 0x10
   152b2: e3 52 d7 a2  	bge	a4, a3, 0x14cd6 <_vfprintf_r+0xe16>
   152b6: 22 65        	ld	a0, 0x8(sp)
   152b8: 90 11        	addi	a2, sp, 0xe0
   152ba: ca 85        	mv	a1, s2
   152bc: ef 00 90 0a  	jal	0x15b64 <__sprint_r>
   152c0: e3 15 05 86  	bnez	a0, 0x14b2a <_vfprintf_r+0xc6a>
   152c4: ce 74        	ld	s1, 0xf0(sp)
   152c6: 52 84        	mv	s0, s4
   152c8: 39 b4        	j	0x14cd6 <_vfprintf_r+0xe16>
   152ca: aa 67        	ld	a5, 0x88(sp)
   152cc: e6 75        	ld	a1, 0x78(sp)
   152ce: b6 e0        	sd	a3, 0x40(sp)
   152d0: 33 0d fd 40  	sub	s10, s10, a5
   152d4: 3e 86        	mv	a2, a5
   152d6: 6a 85        	mv	a0, s10
   152d8: 3a fc        	sd	a4, 0x38(sp)
   152da: 1a f8        	sd	t1, 0x30(sp)
   152dc: 46 ec        	sd	a7, 0x18(sp)
   152de: ef 10 10 6e  	jal	0x171be <strncpy>
   152e2: e2 68        	ld	a7, 0x18(sp)
   152e4: a9 47        	li	a5, 0xa
   152e6: b3 d7 f4 02  	divu	a5, s1, a5
   152ea: 03 c6 18 00  	lbu	a2, 0x1(a7)
   152ee: 42 73        	ld	t1, 0x30(sp)
   152f0: 62 77        	ld	a4, 0x38(sp)
   152f2: 33 36 c0 00  	snez	a2, a2
   152f6: b2 98        	add	a7, a7, a2
   152f8: 86 66        	ld	a3, 0x40(sp)
   152fa: 01 46        	li	a2, 0x0
   152fc: 25 48        	li	a6, 0x9
   152fe: e1 b6        	j	0x14ec6 <_vfprintf_r+0x1006>
   15300: e2 77        	ld	a5, 0x38(sp)
   15302: 86 6c        	ld	s9, 0x40(sp)
   15304: f5 68        	lui	a7, 0x1d
   15306: b3 05 fd 00  	add	a1, s10, a5
   1530a: ce f4        	sd	s3, 0x68(sp)
   1530c: 6e e9        	sd	s11, 0x90(sp)
   1530e: 5e ed        	sd	s7, 0x98(sp)
   15310: a6 6d        	ld	s11, 0x48(sp)
   15312: e2 e0        	sd	s8, 0x40(sp)
   15314: ea e4        	sd	s10, 0x48(sp)
   15316: 26 86        	mv	a2, s1
   15318: aa 6b        	ld	s7, 0x88(sp)
   1531a: 0a 6c        	ld	s8, 0x80(sp)
   1531c: a2 69        	ld	s3, 0x8(sp)
   1531e: 9d 46        	li	a3, 0x7
   15320: 41 47        	li	a4, 0x10
   15322: 13 8b 08 12  	addi	s6, a7, 0x120
   15326: a2 87        	mv	a5, s0
   15328: 1a 8d        	mv	s10, t1
   1532a: ae 84        	mv	s1, a1
   1532c: 63 5d 90 07  	blez	s9, 0x153a6 <_vfprintf_r+0x14e6>
   15330: 63 51 b0 11  	blez	s11, 0x15432 <_vfprintf_r+0x1572>
   15334: fd 3d        	addiw	s11, s11, -0x1
   15336: ae 55        	lw	a1, 0xe8(sp)
   15338: 66 75        	ld	a0, 0x78(sp)
   1533a: 5e 96        	add	a2, a2, s7
   1533c: 23 b4 77 01  	sd	s7, 0x8(a5)
   15340: 88 e3        	sd	a0, 0x0(a5)
   15342: 1b 85 15 00  	addiw	a0, a1, 0x1
   15346: b2 f9        	sd	a2, 0xf0(sp)
   15348: aa d5        	sw	a0, 0xe8(sp)
   1534a: c1 07        	addi	a5, a5, 0x10
   1534c: 63 c6 a6 0e  	blt	a3, a0, 0x15438 <_vfprintf_r+0x1578>
   15350: 83 45 0c 00  	lbu	a1, 0x0(s8)
   15354: 33 8f a4 41  	sub	t5, s1, s10
   15358: 1b 05 0f 00  	sext.w	a0, t5
   1535c: 1b 88 05 00  	sext.w	a6, a1
   15360: 63 d3 a5 00  	bge	a1, a0, 0x15366 <_vfprintf_r+0x14a6>
   15364: 42 8f        	mv	t5, a6
   15366: 1b 04 0f 00  	sext.w	s0, t5
   1536a: 63 52 80 02  	blez	s0, 0x1538e <_vfprintf_r+0x14ce>
   1536e: ae 55        	lw	a1, 0xe8(sp)
   15370: 22 96        	add	a2, a2, s0
   15372: 23 b0 a7 01  	sd	s10, 0x0(a5)
   15376: 1b 85 15 00  	addiw	a0, a1, 0x1
   1537a: 80 e7        	sd	s0, 0x8(a5)
   1537c: b2 f9        	sd	a2, 0xf0(sp)
   1537e: aa d5        	sw	a0, 0xe8(sp)
   15380: 63 c8 a6 0c  	blt	a3, a0, 0x15450 <_vfprintf_r+0x1590>
   15384: 83 45 0c 00  	lbu	a1, 0x0(s8)
   15388: c1 07        	addi	a5, a5, 0x10
   1538a: 1b 88 05 00  	sext.w	a6, a1
   1538e: 13 45 f4 ff  	not	a0, s0
   15392: 7d 95        	srai	a0, a0, 0x3f
   15394: 33 7f a4 00  	and	t5, s0, a0
   15398: 3b 04 e8 41  	subw	s0, a6, t5
   1539c: 63 47 80 02  	bgtz	s0, 0x153ca <_vfprintf_r+0x150a>
   153a0: 2e 9d        	add	s10, s10, a1
   153a2: e3 47 90 f9  	bgtz	s9, 0x15330 <_vfprintf_r+0x1470>
   153a6: e3 47 b0 f9  	bgtz	s11, 0x15334 <_vfprintf_r+0x1474>
   153aa: 6a 83        	mv	t1, s10
   153ac: 3e 84        	mv	s0, a5
   153ae: 26 6d        	ld	s10, 0x48(sp)
   153b0: e2 77        	ld	a5, 0x38(sp)
   153b2: 62 e1        	sd	s8, 0x80(sp)
   153b4: a6 79        	ld	s3, 0x68(sp)
   153b6: 33 07 fd 00  	add	a4, s10, a5
   153ba: ca 6d        	ld	s11, 0x90(sp)
   153bc: ea 6b        	ld	s7, 0x98(sp)
   153be: 06 6c        	ld	s8, 0x40(sp)
   153c0: b2 84        	mv	s1, a2
   153c2: e3 71 67 92  	bgeu	a4, t1, 0x14ce4 <_vfprintf_r+0xe24>
   153c6: 3a 83        	mv	t1, a4
   153c8: 31 ba        	j	0x14ce4 <_vfprintf_r+0xe24>
   153ca: 75 6f        	lui	t5, 0x1d
   153cc: ae 55        	lw	a1, 0xe8(sp)
   153ce: 13 0f 0f 12  	addi	t5, t5, 0x120
   153d2: 63 51 87 04  	bge	a4, s0, 0x15414 <_vfprintf_r+0x1554>
   153d6: 5a f8        	sd	s6, 0x30(sp)
   153d8: 21 a0        	j	0x153e0 <_vfprintf_r+0x1520>
   153da: 41 34        	addiw	s0, s0, -0x10
   153dc: 63 5b 87 02  	bge	a4, s0, 0x15412 <_vfprintf_r+0x1552>
   153e0: 85 25        	addiw	a1, a1, 0x1
   153e2: 41 06        	addi	a2, a2, 0x10
   153e4: 23 b0 67 01  	sd	s6, 0x0(a5)
   153e8: 98 e7        	sd	a4, 0x8(a5)
   153ea: b2 f9        	sd	a2, 0xf0(sp)
   153ec: ae d5        	sw	a1, 0xe8(sp)
   153ee: c1 07        	addi	a5, a5, 0x10
   153f0: e3 d5 b6 fe  	bge	a3, a1, 0x153da <_vfprintf_r+0x151a>
   153f4: 90 11        	addi	a2, sp, 0xe0
   153f6: ca 85        	mv	a1, s2
   153f8: 4e 85        	mv	a0, s3
   153fa: ef 00 a0 76  	jal	0x15b64 <__sprint_r>
   153fe: 63 16 05 f2  	bnez	a0, 0x14b2a <_vfprintf_r+0xc6a>
   15402: 41 47        	li	a4, 0x10
   15404: 41 34        	addiw	s0, s0, -0x10
   15406: 4e 76        	ld	a2, 0xf0(sp)
   15408: ae 55        	lw	a1, 0xe8(sp)
   1540a: d2 87        	mv	a5, s4
   1540c: 9d 46        	li	a3, 0x7
   1540e: e3 49 87 fc  	blt	a4, s0, 0x153e0 <_vfprintf_r+0x1520>
   15412: 42 7f        	ld	t5, 0x30(sp)
   15414: 1b 85 15 00  	addiw	a0, a1, 0x1
   15418: 22 96        	add	a2, a2, s0
   1541a: 23 b0 e7 01  	sd	t5, 0x0(a5)
   1541e: 80 e7        	sd	s0, 0x8(a5)
   15420: b2 f9        	sd	a2, 0xf0(sp)
   15422: aa d5        	sw	a0, 0xe8(sp)
   15424: 63 c7 a6 26  	blt	a3, a0, 0x15692 <_vfprintf_r+0x17d2>
   15428: 83 45 0c 00  	lbu	a1, 0x0(s8)
   1542c: c1 07        	addi	a5, a5, 0x10
   1542e: 2e 9d        	add	s10, s10, a1
   15430: 8d bf        	j	0x153a2 <_vfprintf_r+0x14e2>
   15432: 7d 1c        	addi	s8, s8, -0x1
   15434: fd 3c        	addiw	s9, s9, -0x1
   15436: 01 b7        	j	0x15336 <_vfprintf_r+0x1476>
   15438: 90 11        	addi	a2, sp, 0xe0
   1543a: ca 85        	mv	a1, s2
   1543c: 4e 85        	mv	a0, s3
   1543e: ef 00 60 72  	jal	0x15b64 <__sprint_r>
   15442: 63 14 05 ee  	bnez	a0, 0x14b2a <_vfprintf_r+0xc6a>
   15446: 4e 76        	ld	a2, 0xf0(sp)
   15448: d2 87        	mv	a5, s4
   1544a: 41 47        	li	a4, 0x10
   1544c: 9d 46        	li	a3, 0x7
   1544e: 09 b7        	j	0x15350 <_vfprintf_r+0x1490>
   15450: 90 11        	addi	a2, sp, 0xe0
   15452: ca 85        	mv	a1, s2
   15454: 4e 85        	mv	a0, s3
   15456: ef 00 e0 70  	jal	0x15b64 <__sprint_r>
   1545a: 63 18 05 ec  	bnez	a0, 0x14b2a <_vfprintf_r+0xc6a>
   1545e: 83 45 0c 00  	lbu	a1, 0x0(s8)
   15462: 4e 76        	ld	a2, 0xf0(sp)
   15464: d2 87        	mv	a5, s4
   15466: 1b 88 05 00  	sext.w	a6, a1
   1546a: 41 47        	li	a4, 0x10
   1546c: 9d 46        	li	a3, 0x7
   1546e: 05 b7        	j	0x1538e <_vfprintf_r+0x14ce>
   15470: 22 65        	ld	a0, 0x8(sp)
   15472: 90 11        	addi	a2, sp, 0xe0
   15474: ca 85        	mv	a1, s2
   15476: ef 00 e0 6e  	jal	0x15b64 <__sprint_r>
   1547a: 63 18 05 ea  	bnez	a0, 0x14b2a <_vfprintf_r+0xc6a>
   1547e: 6a 57        	lw	a4, 0xb8(sp)
   15480: ce 74        	ld	s1, 0xf0(sp)
   15482: 52 84        	mv	s0, s4
   15484: a9 b1        	j	0x150ce <_vfprintf_r+0x120e>
   15486: f5 67        	lui	a5, 0x1d
   15488: 13 8d 07 c5  	addi	s10, a5, -0x3b0
   1548c: d5 b9        	j	0x15180 <_vfprintf_r+0x12c0>
   1548e: 22 65        	ld	a0, 0x8(sp)
   15490: 90 11        	addi	a2, sp, 0xe0
   15492: ca 85        	mv	a1, s2
   15494: ef 00 00 6d  	jal	0x15b64 <__sprint_r>
   15498: 63 19 05 e8  	bnez	a0, 0x14b2a <_vfprintf_r+0xc6a>
   1549c: ce 74        	ld	s1, 0xf0(sp)
   1549e: 52 84        	mv	s0, s4
   154a0: 6f f0 3f 82  	j	0x14cc2 <_vfprintf_r+0xe02>
   154a4: 99 46        	li	a3, 0x6
   154a6: dd bc        	j	0x14f9c <_vfprintf_r+0x10dc>
   154a8: 82 14        	slli	s1, s1, 0x20
   154aa: 81 90        	srli	s1, s1, 0x20
   154ac: bd bc        	j	0x14f2a <_vfprintf_r+0x106a>
   154ae: 82 14        	slli	s1, s1, 0x20
   154b0: 81 90        	srli	s1, s1, 0x20
   154b2: 3a f0        	sd	a4, 0x20(sp)
   154b4: 85 47        	li	a5, 0x1
   154b6: 6f e0 3f d8  	j	0x14238 <_vfprintf_r+0x378>
   154ba: a6 87        	mv	a5, s1
   154bc: 6f e0 5f d1  	j	0x141d0 <_vfprintf_r+0x310>
   154c0: 82 14        	slli	s1, s1, 0x20
   154c2: 81 90        	srli	s1, s1, 0x20
   154c4: 6f e0 bf d6  	j	0x1422e <_vfprintf_r+0x36e>
   154c8: c2 67        	ld	a5, 0x10(sp)
   154ca: 23 10 f7 00  	sh	a5, 0x0(a4)
   154ce: 6f f0 0f bf  	j	0x148be <_vfprintf_r+0x9fe>
   154d2: 22 65        	ld	a0, 0x8(sp)
   154d4: 90 11        	addi	a2, sp, 0xe0
   154d6: ca 85        	mv	a1, s2
   154d8: ef 00 c0 68  	jal	0x15b64 <__sprint_r>
   154dc: 6f e0 9f c5  	j	0x14134 <_vfprintf_r+0x274>
   154e0: 93 07 d0 02  	li	a5, 0x2d
   154e4: a3 07 f1 0a  	sb	a5, 0xaf(sp)
   154e8: 13 07 d0 02  	li	a4, 0x2d
   154ec: 79 bb        	j	0x1528a <_vfprintf_r+0x13ca>
   154ee: 22 65        	ld	a0, 0x8(sp)
   154f0: 90 11        	addi	a2, sp, 0xe0
   154f2: ca 85        	mv	a1, s2
   154f4: ef 00 00 67  	jal	0x15b64 <__sprint_r>
   154f8: 63 19 05 e2  	bnez	a0, 0x14b2a <_vfprintf_r+0xc6a>
   154fc: 6a 57        	lw	a4, 0xb8(sp)
   154fe: 4e 76        	ld	a2, 0xf0(sp)
   15500: ae 56        	lw	a3, 0xe8(sp)
   15502: 52 84        	mv	s0, s4
   15504: cd b9        	j	0x151f6 <_vfprintf_r+0x1336>
   15506: 22 65        	ld	a0, 0x8(sp)
   15508: 9b 05 1b 00  	addiw	a1, s6, 0x1
   1550c: 3a f8        	sd	a4, 0x30(sp)
   1550e: 1a ec        	sd	t1, 0x18(sp)
   15510: ef e0 4f ba  	jal	0x138b4 <_malloc_r>
   15514: 62 63        	ld	t1, 0x18(sp)
   15516: 42 77        	ld	a4, 0x30(sp)
   15518: 2a 8d        	mv	s10, a0
   1551a: 63 03 05 4c  	beqz	a0, 0x159e0 <_vfprintf_r+0x1b20>
   1551e: 2a ec        	sd	a0, 0x18(sp)
   15520: ba 8d        	mv	s11, a4
   15522: 6f e0 9f dd  	j	0x142fa <_vfprintf_r+0x43a>
   15526: c2 75        	ld	a1, 0x30(sp)
   15528: 22 65        	ld	a0, 0x8(sp)
   1552a: 5a 87        	mv	a4, s6
   1552c: 93 08 81 0c  	addi	a7, sp, 0xc8
   15530: 13 08 c1 0b  	addi	a6, sp, 0xbc
   15534: 3c 19        	addi	a5, sp, 0xb8
   15536: 89 46        	li	a3, 0x2
   15538: 66 86        	mv	a2, s9
   1553a: ef 20 60 26  	jal	0x177a0 <_ldtoa_r>
   1553e: 62 73        	ld	t1, 0x38(sp)
   15540: 13 07 70 04  	li	a4, 0x47
   15544: 2a 8d        	mv	s10, a0
   15546: 63 15 e3 4a  	bne	t1, a4, 0x159f0 <_vfprintf_r+0x1b30>
   1554a: 13 f7 1d 00  	andi	a4, s11, 0x1
   1554e: 63 1e 07 1a  	bnez	a4, 0x1570a <_vfprintf_r+0x184a>
   15552: ea 57        	lw	a5, 0xb8(sp)
   15554: 3e f8        	sd	a5, 0x30(sp)
   15556: ae 67        	ld	a5, 0xc8(sp)
   15558: bb 87 a7 41  	subw	a5, a5, s10
   1555c: 3e fc        	sd	a5, 0x38(sp)
   1555e: c2 77        	ld	a5, 0x30(sp)
   15560: 75 57        	li	a4, -0x3
   15562: 63 c4 e7 00  	blt	a5, a4, 0x1556a <_vfprintf_r+0x16aa>
   15566: 63 57 fb 0c  	bge	s6, a5, 0x15634 <_vfprintf_r+0x1774>
   1556a: c2 77        	ld	a5, 0x30(sp)
   1556c: 79 33        	addiw	t1, t1, -0x2
   1556e: 1b 87 f7 ff  	addiw	a4, a5, -0x1
   15572: 3a dd        	sw	a4, 0xb8(sp)
   15574: 93 76 f3 0f  	andi	a3, t1, 0xff
   15578: 01 46        	li	a2, 0x0
   1557a: 6f e0 9f f4  	j	0x144c2 <_vfprintf_r+0x602>
   1557e: c2 77        	ld	a5, 0x30(sp)
   15580: 83 c5 a7 00  	lbu	a1, 0xa(a5)
   15584: a3 8f b6 fe  	sb	a1, -0x1(a3)
   15588: 6f e0 bf f0  	j	0x14492 <_vfprintf_r+0x5d2>
   1558c: 03 47 f1 0a  	lbu	a4, 0xaf(sp)
   15590: 01 4b        	li	s6, 0x0
   15592: 19 c3        	beqz	a4, 0x15598 <_vfprintf_r+0x16d8>
   15594: 6f e0 ff c7  	j	0x14212 <_vfprintf_r+0x352>
   15598: 6f e0 5f ac  	j	0x1405c <_vfprintf_r+0x19c>
   1559c: 5a 87        	mv	a4, s6
   1559e: 8d 46        	li	a3, 0x3
   155a0: c2 75        	ld	a1, 0x30(sp)
   155a2: 22 65        	ld	a0, 0x8(sp)
   155a4: 93 08 81 0c  	addi	a7, sp, 0xc8
   155a8: 13 08 c1 0b  	addi	a6, sp, 0xbc
   155ac: 3c 19        	addi	a5, sp, 0xb8
   155ae: 66 86        	mv	a2, s9
   155b0: 9a e0        	sd	t1, 0x40(sp)
   155b2: 3a fc        	sd	a4, 0x38(sp)
   155b4: ef 20 c0 1e  	jal	0x177a0 <_ldtoa_r>
   155b8: 62 77        	ld	a4, 0x38(sp)
   155ba: 06 63        	ld	t1, 0x40(sp)
   155bc: 2a 8d        	mv	s10, a0
   155be: 13 7c f3 fd  	andi	s8, t1, -0x21
   155c2: 93 06 60 04  	li	a3, 0x46
   155c6: 33 08 ed 00  	add	a6, s10, a4
   155ca: 63 1a dc 00  	bne	s8, a3, 0x155de <_vfprintf_r+0x171e>
   155ce: 03 46 0d 00  	lbu	a2, 0x0(s10)
   155d2: 93 06 00 03  	li	a3, 0x30
   155d6: 63 05 d6 30  	beq	a2, a3, 0x158e0 <_vfprintf_r+0x1a20>
   155da: ea 56        	lw	a3, 0xb8(sp)
   155dc: 36 98        	add	a6, a6, a3
   155de: 42 75        	ld	a0, 0x30(sp)
   155e0: 01 46        	li	a2, 0x0
   155e2: 81 46        	li	a3, 0x0
   155e4: e6 85        	mv	a1, s9
   155e6: c2 e0        	sd	a6, 0x40(sp)
   155e8: 1a fc        	sd	t1, 0x38(sp)
   155ea: ef 60 60 0d  	jal	0x1b6c0 <__netf2>
   155ee: 62 73        	ld	t1, 0x38(sp)
   155f0: 06 68        	ld	a6, 0x40(sp)
   155f2: 63 01 05 12  	beqz	a0, 0x15714 <_vfprintf_r+0x1854>
   155f6: ae 67        	ld	a5, 0xc8(sp)
   155f8: 63 fc 07 01  	bgeu	a5, a6, 0x15610 <_vfprintf_r+0x1750>
   155fc: 93 06 00 03  	li	a3, 0x30
   15600: 13 87 17 00  	addi	a4, a5, 0x1
   15604: ba e5        	sd	a4, 0xc8(sp)
   15606: 23 80 d7 00  	sb	a3, 0x0(a5)
   1560a: ae 67        	ld	a5, 0xc8(sp)
   1560c: e3 ea 07 ff  	bltu	a5, a6, 0x15600 <_vfprintf_r+0x1740>
   15610: 6a 57        	lw	a4, 0xb8(sp)
   15612: 3a f8        	sd	a4, 0x30(sp)
   15614: bb 87 a7 41  	subw	a5, a5, s10
   15618: 13 07 70 04  	li	a4, 0x47
   1561c: 3e fc        	sd	a5, 0x38(sp)
   1561e: e3 00 ec f4  	beq	s8, a4, 0x1555e <_vfprintf_r+0x169e>
   15622: 13 07 60 04  	li	a4, 0x46
   15626: 63 0b ec 18  	beq	s8, a4, 0x157bc <_vfprintf_r+0x18fc>
   1562a: c2 77        	ld	a5, 0x30(sp)
   1562c: 1b 87 f7 ff  	addiw	a4, a5, -0x1
   15630: 3a dd        	sw	a4, 0xb8(sp)
   15632: 89 b7        	j	0x15574 <_vfprintf_r+0x16b4>
   15634: e2 77        	ld	a5, 0x38(sp)
   15636: 42 77        	ld	a4, 0x30(sp)
   15638: 63 4b f7 14  	blt	a4, a5, 0x1578e <_vfprintf_r+0x18ce>
   1563c: c2 77        	ld	a5, 0x30(sp)
   1563e: 13 f7 1d 00  	andi	a4, s11, 0x1
   15642: be 86        	mv	a3, a5
   15644: 01 c7        	beqz	a4, 0x1564c <_vfprintf_r+0x178c>
   15646: 46 67        	ld	a4, 0x50(sp)
   15648: bb 06 f7 00  	addw	a3, a4, a5
   1564c: 13 fe 0d 40  	andi	t3, s11, 0x400
   15650: 63 05 0e 00  	beqz	t3, 0x1565a <_vfprintf_r+0x179a>
   15654: c2 77        	ld	a5, 0x30(sp)
   15656: 63 40 f0 22  	bgtz	a5, 0x15876 <_vfprintf_r+0x19b6>
   1565a: 13 c8 f6 ff  	not	a6, a3
   1565e: 13 58 f8 43  	srai	a6, a6, 0x3f
   15662: 33 f8 06 01  	and	a6, a3, a6
   15666: 1b 0c 08 00  	sext.w	s8, a6
   1566a: a6 8d        	mv	s11, s1
   1566c: 13 03 70 06  	li	t1, 0x67
   15670: 82 e4        	sd	zero, 0x48(sp)
   15672: 82 e0        	sd	zero, 0x40(sp)
   15674: 6f e0 7f f0  	j	0x1457a <_vfprintf_r+0x6ba>
   15678: ba 8d        	mv	s11, a4
   1567a: 02 ec        	sd	zero, 0x18(sp)
   1567c: 13 0d 81 0f  	addi	s10, sp, 0xf8
   15680: 7d 57        	li	a4, -0x1
   15682: 7e 17        	slli	a4, a4, 0x3f
   15684: 93 07 d0 02  	li	a5, 0x2d
   15688: b3 cc ec 00  	xor	s9, s9, a4
   1568c: be f4        	sd	a5, 0x68(sp)
   1568e: 6f e0 5f c8  	j	0x14312 <_vfprintf_r+0x452>
   15692: 90 11        	addi	a2, sp, 0xe0
   15694: ca 85        	mv	a1, s2
   15696: 4e 85        	mv	a0, s3
   15698: ef 00 c0 4c  	jal	0x15b64 <__sprint_r>
   1569c: 63 17 05 c8  	bnez	a0, 0x14b2a <_vfprintf_r+0xc6a>
   156a0: 83 45 0c 00  	lbu	a1, 0x0(s8)
   156a4: 4e 76        	ld	a2, 0xf0(sp)
   156a6: d2 87        	mv	a5, s4
   156a8: 41 47        	li	a4, 0x10
   156aa: 9d 46        	li	a3, 0x7
   156ac: 2e 9d        	add	s10, s10, a1
   156ae: d5 b9        	j	0x153a2 <_vfprintf_r+0x14e2>
   156b0: 93 07 d0 02  	li	a5, 0x2d
   156b4: a3 07 f1 0a  	sb	a5, 0xaf(sp)
   156b8: 13 07 d0 02  	li	a4, 0x2d
   156bc: 5d bc        	j	0x15172 <_vfprintf_r+0x12b2>
   156be: da 88        	mv	a7, s6
   156c0: 4a 8b        	mv	s6, s2
   156c2: 4e 89        	mv	s2, s3
   156c4: c2 79        	ld	s3, 0x30(sp)
   156c6: 8d bc        	j	0x15138 <_vfprintf_r+0x1278>
   156c8: 03 47 f1 0a  	lbu	a4, 0xaf(sp)
   156cc: 26 f0        	sd	s1, 0x20(sp)
   156ce: 82 e4        	sd	zero, 0x48(sp)
   156d0: 82 e0        	sd	zero, 0x40(sp)
   156d2: 02 f8        	sd	zero, 0x30(sp)
   156d4: 5a 8c        	mv	s8, s6
   156d6: da 86        	mv	a3, s6
   156d8: 01 4b        	li	s6, 0x0
   156da: 19 c3        	beqz	a4, 0x156e0 <_vfprintf_r+0x1820>
   156dc: 6f e0 7f b3  	j	0x14212 <_vfprintf_r+0x352>
   156e0: 6f e0 df 97  	j	0x1405c <_vfprintf_r+0x19c>
   156e4: c2 75        	ld	a1, 0x30(sp)
   156e6: 22 65        	ld	a0, 0x8(sp)
   156e8: 5a 87        	mv	a4, s6
   156ea: 93 08 81 0c  	addi	a7, sp, 0xc8
   156ee: 13 08 c1 0b  	addi	a6, sp, 0xbc
   156f2: 3c 19        	addi	a5, sp, 0xb8
   156f4: 89 46        	li	a3, 0x2
   156f6: 66 86        	mv	a2, s9
   156f8: 1a fc        	sd	t1, 0x38(sp)
   156fa: ef 20 60 0a  	jal	0x177a0 <_ldtoa_r>
   156fe: 13 f7 1d 00  	andi	a4, s11, 0x1
   15702: 62 73        	ld	t1, 0x38(sp)
   15704: 2a 8d        	mv	s10, a0
   15706: e3 06 07 e4  	beqz	a4, 0x15552 <_vfprintf_r+0x1692>
   1570a: 33 08 6d 01  	add	a6, s10, s6
   1570e: 13 0c 70 04  	li	s8, 0x47
   15712: f1 b5        	j	0x155de <_vfprintf_r+0x171e>
   15714: ea 57        	lw	a5, 0xb8(sp)
   15716: 3e f8        	sd	a5, 0x30(sp)
   15718: c2 87        	mv	a5, a6
   1571a: ed bd        	j	0x15614 <_vfprintf_r+0x1754>
   1571c: 22 65        	ld	a0, 0x8(sp)
   1571e: 90 11        	addi	a2, sp, 0xe0
   15720: ca 85        	mv	a1, s2
   15722: ef 00 20 44  	jal	0x15b64 <__sprint_r>
   15726: 63 12 05 c0  	bnez	a0, 0x14b2a <_vfprintf_r+0xc6a>
   1572a: ea 56        	lw	a3, 0xb8(sp)
   1572c: e2 77        	ld	a5, 0x38(sp)
   1572e: ce 74        	ld	s1, 0xf0(sp)
   15730: 52 84        	mv	s0, s4
   15732: bb 86 d7 40  	subw	a3, a5, a3
   15736: 6f f0 6f df  	j	0x14d2c <_vfprintf_r+0xe6c>
   1573a: f5 67        	lui	a5, 0x1d
   1573c: 13 8d 87 c6  	addi	s10, a5, -0x398
   15740: 81 b4        	j	0x15180 <_vfprintf_r+0x12c0>
   15742: f5 68        	lui	a7, 0x1d
   15744: c1 55        	li	a1, -0x10
   15746: 3b 0b e0 40  	negw	s6, a4
   1574a: 93 88 08 12  	addi	a7, a7, 0x120
   1574e: 63 51 b7 0a  	bge	a4, a1, 0x157f0 <_vfprintf_r+0x1930>
   15752: 4e f8        	sd	s3, 0x30(sp)
   15754: c1 4c        	li	s9, 0x10
   15756: 9d 44        	li	s1, 0x7
   15758: c6 89        	mv	s3, a7
   1575a: 21 a0        	j	0x15762 <_vfprintf_r+0x18a2>
   1575c: 41 3b        	addiw	s6, s6, -0x10
   1575e: 63 d7 6c 09  	bge	s9, s6, 0x157ec <_vfprintf_r+0x192c>
   15762: 85 26        	addiw	a3, a3, 0x1
   15764: 41 06        	addi	a2, a2, 0x10
   15766: 23 30 34 01  	sd	s3, 0x0(s0)
   1576a: 23 34 94 01  	sd	s9, 0x8(s0)
   1576e: b2 f9        	sd	a2, 0xf0(sp)
   15770: b6 d5        	sw	a3, 0xe8(sp)
   15772: 41 04        	addi	s0, s0, 0x10
   15774: e3 d4 d4 fe  	bge	s1, a3, 0x1575c <_vfprintf_r+0x189c>
   15778: 22 65        	ld	a0, 0x8(sp)
   1577a: 90 11        	addi	a2, sp, 0xe0
   1577c: ca 85        	mv	a1, s2
   1577e: ef 00 60 3e  	jal	0x15b64 <__sprint_r>
   15782: 63 14 05 ba  	bnez	a0, 0x14b2a <_vfprintf_r+0xc6a>
   15786: 4e 76        	ld	a2, 0xf0(sp)
   15788: ae 56        	lw	a3, 0xe8(sp)
   1578a: 52 84        	mv	s0, s4
   1578c: c1 bf        	j	0x1575c <_vfprintf_r+0x189c>
   1578e: c6 67        	ld	a5, 0x50(sp)
   15790: 62 77        	ld	a4, 0x38(sp)
   15792: 13 03 70 06  	li	t1, 0x67
   15796: bb 86 e7 00  	addw	a3, a5, a4
   1579a: c2 77        	ld	a5, 0x30(sp)
   1579c: 63 5d f0 16  	blez	a5, 0x15916 <_vfprintf_r+0x1a56>
   157a0: 13 fe 0d 40  	andi	t3, s11, 0x400
   157a4: 63 1b 0e 0c  	bnez	t3, 0x1587a <_vfprintf_r+0x19ba>
   157a8: 13 c8 f6 ff  	not	a6, a3
   157ac: 13 58 f8 43  	srai	a6, a6, 0x3f
   157b0: 33 f8 06 01  	and	a6, a3, a6
   157b4: 1b 0c 08 00  	sext.w	s8, a6
   157b8: a6 8d        	mv	s11, s1
   157ba: 5d bd        	j	0x15670 <_vfprintf_r+0x17b0>
   157bc: c2 77        	ld	a5, 0x30(sp)
   157be: 13 f7 1d 00  	andi	a4, s11, 0x1
   157c2: 33 67 eb 00  	or	a4, s6, a4
   157c6: 63 53 f0 1c  	blez	a5, 0x1598c <_vfprintf_r+0x1acc>
   157ca: 63 1f 07 12  	bnez	a4, 0x15908 <_vfprintf_r+0x1a48>
   157ce: c2 76        	ld	a3, 0x30(sp)
   157d0: 13 03 60 06  	li	t1, 0x66
   157d4: f1 b7        	j	0x157a0 <_vfprintf_r+0x18e0>
   157d6: fd 57        	li	a5, -0x1
   157d8: 3e e8        	sd	a5, 0x10(sp)
   157da: 6f e0 9f 98  	j	0x14162 <_vfprintf_r+0x2a2>
   157de: ee 8c        	mv	s9, s11
   157e0: 6f f0 8f b6  	j	0x14b48 <_vfprintf_r+0xc88>
   157e4: 1b 07 1b 00  	addiw	a4, s6, 0x1
   157e8: 89 46        	li	a3, 0x2
   157ea: 5d bb        	j	0x155a0 <_vfprintf_r+0x16e0>
   157ec: ce 88        	mv	a7, s3
   157ee: c2 79        	ld	s3, 0x30(sp)
   157f0: 85 26        	addiw	a3, a3, 0x1
   157f2: 5a 96        	add	a2, a2, s6
   157f4: 23 30 14 01  	sd	a7, 0x0(s0)
   157f8: 23 34 64 01  	sd	s6, 0x8(s0)
   157fc: b2 f9        	sd	a2, 0xf0(sp)
   157fe: b6 d5        	sw	a3, 0xe8(sp)
   15800: 1d 47        	li	a4, 0x7
   15802: e3 5d d7 8e  	bge	a4, a3, 0x150fc <_vfprintf_r+0x123c>
   15806: 22 65        	ld	a0, 0x8(sp)
   15808: 90 11        	addi	a2, sp, 0xe0
   1580a: ca 85        	mv	a1, s2
   1580c: ef 00 80 35  	jal	0x15b64 <__sprint_r>
   15810: 63 1d 05 b0  	bnez	a0, 0x14b2a <_vfprintf_r+0xc6a>
   15814: 4e 76        	ld	a2, 0xf0(sp)
   15816: ae 56        	lw	a3, 0xe8(sp)
   15818: 52 84        	mv	s0, s4
   1581a: c5 b2        	j	0x151fa <_vfprintf_r+0x133a>
   1581c: 93 06 21 0c  	addi	a3, sp, 0xc2
   15820: 19 e6        	bnez	a2, 0x1582e <_vfprintf_r+0x196e>
   15822: 93 06 00 03  	li	a3, 0x30
   15826: 23 01 d1 0c  	sb	a3, 0xc2(sp)
   1582a: 93 06 31 0c  	addi	a3, sp, 0xc3
   1582e: 9c 13        	addi	a5, sp, 0x1e0
   15830: 33 86 f6 40  	sub	a2, a3, a5
   15834: 1b 07 07 03  	addiw	a4, a4, 0x30
   15838: 9b 07 16 12  	addiw	a5, a2, 0x121
   1583c: 23 80 e6 00  	sb	a4, 0x0(a3)
   15840: be f8        	sd	a5, 0x70(sp)
   15842: 6f e0 ff cf  	j	0x14540 <_vfprintf_r+0x680>
   15846: 02 ec        	sd	zero, 0x18(sp)
   15848: 19 4b        	li	s6, 0x6
   1584a: 6f e0 1f ab  	j	0x142fa <_vfprintf_r+0x43a>
   1584e: 63 04 0b 00  	beqz	s6, 0x15856 <_vfprintf_r+0x1996>
   15852: 6f e0 9f aa  	j	0x142fa <_vfprintf_r+0x43a>
   15856: 05 4b        	li	s6, 0x1
   15858: 6f e0 3f aa  	j	0x142fa <_vfprintf_r+0x43a>
   1585c: 13 f6 1d 00  	andi	a2, s11, 0x1
   15860: 19 e2        	bnez	a2, 0x15866 <_vfprintf_r+0x19a6>
   15862: 6f e0 9f cf  	j	0x1455a <_vfprintf_r+0x69a>
   15866: 6f e0 ff ce  	j	0x14554 <_vfprintf_r+0x694>
   1586a: 3a f0        	sd	a4, 0x20(sp)
   1586c: 6f f0 cf ad  	j	0x14b48 <_vfprintf_r+0xc88>
   15870: 1c c3        	sw	a5, 0x0(a4)
   15872: 6f f0 cf 84  	j	0x148be <_vfprintf_r+0x9fe>
   15876: 13 03 70 06  	li	t1, 0x67
   1587a: 8a 67        	ld	a5, 0x80(sp)
   1587c: 13 06 f0 0f  	li	a2, 0xff
   15880: 03 c7 07 00  	lbu	a4, 0x0(a5)
   15884: 63 08 c7 16  	beq	a4, a2, 0x159f4 <_vfprintf_r+0x1b34>
   15888: 3e 86        	mv	a2, a5
   1588a: c2 77        	ld	a5, 0x30(sp)
   1588c: 81 48        	li	a7, 0x0
   1588e: 01 48        	li	a6, 0x0
   15890: 93 05 f0 0f  	li	a1, 0xff
   15894: 1b 05 07 00  	sext.w	a0, a4
   15898: 63 5a f7 00  	bge	a4, a5, 0x158ac <_vfprintf_r+0x19ec>
   1589c: 03 47 16 00  	lbu	a4, 0x1(a2)
   158a0: 89 9f        	subw	a5, a5, a0
   158a2: 1d cb        	beqz	a4, 0x158d8 <_vfprintf_r+0x1a18>
   158a4: 05 28        	addiw	a6, a6, 0x1
   158a6: 05 06        	addi	a2, a2, 0x1
   158a8: e3 16 b7 fe  	bne	a4, a1, 0x15894 <_vfprintf_r+0x19d4>
   158ac: 32 e1        	sd	a2, 0x80(sp)
   158ae: c2 e0        	sd	a6, 0x40(sp)
   158b0: c6 e4        	sd	a7, 0x48(sp)
   158b2: 3e f8        	sd	a5, 0x30(sp)
   158b4: a6 67        	ld	a5, 0x48(sp)
   158b6: 06 67        	ld	a4, 0x40(sp)
   158b8: a6 8d        	mv	s11, s1
   158ba: 3d 9f        	addw	a4, a4, a5
   158bc: aa 67        	ld	a5, 0x88(sp)
   158be: 3b 07 f7 02  	mulw	a4, a4, a5
   158c2: 35 9f        	addw	a4, a4, a3
   158c4: 9b 06 07 00  	sext.w	a3, a4
   158c8: 13 c6 f6 ff  	not	a2, a3
   158cc: 7d 96        	srai	a2, a2, 0x3f
   158ce: 71 8f        	and	a4, a4, a2
   158d0: 1b 0c 07 00  	sext.w	s8, a4
   158d4: 6f e0 7f ca  	j	0x1457a <_vfprintf_r+0x6ba>
   158d8: 03 47 06 00  	lbu	a4, 0x0(a2)
   158dc: 85 28        	addiw	a7, a7, 0x1
   158de: e9 b7        	j	0x158a8 <_vfprintf_r+0x19e8>
   158e0: 42 75        	ld	a0, 0x30(sp)
   158e2: 01 46        	li	a2, 0x0
   158e4: 81 46        	li	a3, 0x0
   158e6: e6 85        	mv	a1, s9
   158e8: c2 e4        	sd	a6, 0x48(sp)
   158ea: 9a e0        	sd	t1, 0x40(sp)
   158ec: 3a fc        	sd	a4, 0x38(sp)
   158ee: ef 50 30 5d  	jal	0x1b6c0 <__netf2>
   158f2: 62 77        	ld	a4, 0x38(sp)
   158f4: 06 63        	ld	t1, 0x40(sp)
   158f6: 26 68        	ld	a6, 0x48(sp)
   158f8: 51 e5        	bnez	a0, 0x15984 <_vfprintf_r+0x1ac4>
   158fa: ea 57        	lw	a5, 0xb8(sp)
   158fc: 3e 98        	add	a6, a6, a5
   158fe: 3e f8        	sd	a5, 0x30(sp)
   15900: bb 07 a8 41  	subw	a5, a6, s10
   15904: 3e fc        	sd	a5, 0x38(sp)
   15906: 31 bb        	j	0x15622 <_vfprintf_r+0x1762>
   15908: 46 67        	ld	a4, 0x50(sp)
   1590a: 13 03 60 06  	li	t1, 0x66
   1590e: bb 06 67 01  	addw	a3, a4, s6
   15912: bd 9e        	addw	a3, a3, a5
   15914: 71 b5        	j	0x157a0 <_vfprintf_r+0x18e0>
   15916: 3b 87 f6 40  	subw	a4, a3, a5
   1591a: 05 27        	addiw	a4, a4, 0x1
   1591c: 9b 06 07 00  	sext.w	a3, a4
   15920: 13 c6 f6 ff  	not	a2, a3
   15924: 7d 96        	srai	a2, a2, 0x3f
   15926: 71 8f        	and	a4, a4, a2
   15928: 1b 0c 07 00  	sext.w	s8, a4
   1592c: a6 8d        	mv	s11, s1
   1592e: 89 b3        	j	0x15670 <_vfprintf_r+0x17b0>
   15930: 4a 68        	ld	a6, 0x90(sp)
   15932: 62 89        	mv	s2, s8
   15934: 4e 8c        	mv	s8, s3
   15936: bb 06 0d 01  	addw	a3, s10, a6
   1593a: bb 86 86 41  	subw	a3, a3, s8
   1593e: 13 96 06 02  	slli	a2, a3, 0x20
   15942: 06 63        	ld	t1, 0x40(sp)
   15944: a6 6b        	ld	s7, 0x48(sp)
   15946: 46 74        	ld	s0, 0x70(sp)
   15948: e2 79        	ld	s3, 0x38(sp)
   1594a: 63 54 06 00  	bgez	a2, 0x15952 <_vfprintf_r+0x1a92>
   1594e: 6f e0 5f b4  	j	0x14492 <_vfprintf_r+0x5d2>
   15952: 85 26        	addiw	a3, a3, 0x1
   15954: e2 96        	add	a3, a3, s8
   15956: 13 06 00 03  	li	a2, 0x30
   1595a: 05 0c        	addi	s8, s8, 0x1
   1595c: a3 0f cc fe  	sb	a2, -0x1(s8)
   15960: e3 1d dc fe  	bne	s8, a3, 0x1595a <_vfprintf_r+0x1a9a>
   15964: 6f e0 1f b3  	j	0x14494 <_vfprintf_r+0x5d4>
   15968: e2 65        	ld	a1, 0x18(sp)
   1596a: 4e 89        	mv	s2, s3
   1596c: 6f f0 0f 9c  	j	0x14b2c <_vfprintf_r+0xc6c>
   15970: 75 67        	lui	a4, 0x1d
   15972: 93 07 07 c7  	addi	a5, a4, -0x390
   15976: 3e f8        	sd	a5, 0x30(sp)
   15978: 6f e0 bf a1  	j	0x14392 <_vfprintf_r+0x4d2>
   1597c: 93 06 00 07  	li	a3, 0x70
   15980: 6f e0 1f b4  	j	0x144c0 <_vfprintf_r+0x600>
   15984: 85 46        	li	a3, 0x1
   15986: 99 9e        	subw	a3, a3, a4
   15988: 36 dd        	sw	a3, 0xb8(sp)
   1598a: 89 b9        	j	0x155dc <_vfprintf_r+0x171c>
   1598c: 19 e7        	bnez	a4, 0x1599a <_vfprintf_r+0x1ada>
   1598e: a6 8d        	mv	s11, s1
   15990: 05 4c        	li	s8, 0x1
   15992: 13 03 60 06  	li	t1, 0x66
   15996: 85 46        	li	a3, 0x1
   15998: e1 b9        	j	0x15670 <_vfprintf_r+0x17b0>
   1599a: c6 67        	ld	a5, 0x50(sp)
   1599c: a6 8d        	mv	s11, s1
   1599e: 13 03 60 06  	li	t1, 0x66
   159a2: 1b 87 17 00  	addiw	a4, a5, 0x1
   159a6: 3b 07 67 01  	addw	a4, a4, s6
   159aa: 9b 06 07 00  	sext.w	a3, a4
   159ae: 13 c6 f6 ff  	not	a2, a3
   159b2: 7d 96        	srai	a2, a2, 0x3f
   159b4: 71 8f        	and	a4, a4, a2
   159b6: 1b 0c 07 00  	sext.w	s8, a4
   159ba: 5d b9        	j	0x15670 <_vfprintf_r+0x17b0>
   159bc: 89 47        	li	a5, 0x2
   159be: be f8        	sd	a5, 0x70(sp)
   159c0: 6f e0 1f b8  	j	0x14540 <_vfprintf_r+0x680>
   159c4: 82 76        	ld	a3, 0x20(sp)
   159c6: 9c 42        	lw	a5, 0x0(a3)
   159c8: a1 06        	addi	a3, a3, 0x8
   159ca: 1b 8b 07 00  	sext.w	s6, a5
   159ce: 63 d3 07 00  	bgez	a5, 0x159d4 <_vfprintf_r+0x1b14>
   159d2: 7d 5b        	li	s6, -0x1
   159d4: 03 c3 19 00  	lbu	t1, 0x1(s3)
   159d8: 36 f0        	sd	a3, 0x20(sp)
   159da: ba 89        	mv	s3, a4
   159dc: 6f e0 cf e0  	j	0x13fe8 <_vfprintf_r+0x128>
   159e0: 83 57 09 01  	lhu	a5, 0x10(s2)
   159e4: 93 e7 07 04  	ori	a5, a5, 0x40
   159e8: 23 18 f9 00  	sh	a5, 0x10(s2)
   159ec: 6f e0 8f f4  	j	0x14134 <_vfprintf_r+0x274>
   159f0: 5a 87        	mv	a4, s6
   159f2: f1 b6        	j	0x155be <_vfprintf_r+0x16fe>
   159f4: 82 e4        	sd	zero, 0x48(sp)
   159f6: 82 e0        	sd	zero, 0x40(sp)
   159f8: 75 bd        	j	0x158b4 <_vfprintf_r+0x19f4>

00000000000159fa <vfprintf>:
   159fa: aa 87        	mv	a5, a0
   159fc: 03 b5 01 22  	ld	a0, 0x220(gp)
   15a00: b2 86        	mv	a3, a2
   15a02: 2e 86        	mv	a2, a1
   15a04: be 85        	mv	a1, a5
   15a06: 6f e0 af cb  	j	0x13ec0 <_vfprintf_r>

0000000000015a0a <__sbprintf>:
   15a0a: 13 01 01 b3  	addi	sp, sp, -0x4d0
   15a0e: 03 d7 25 01  	lhu	a4, 0x12(a1)
   15a12: 83 d7 05 01  	lhu	a5, 0x10(a1)
   15a16: 23 30 81 4c  	sd	s0, 0x4c0(sp)
   15a1a: 2e 84        	mv	s0, a1
   15a1c: c1 65        	lui	a1, 0x10
   15a1e: f5 35        	addiw	a1, a1, -0x3
   15a20: 03 2e c4 0a  	lw	t3, 0xac(s0)
   15a24: 03 33 04 03  	ld	t1, 0x30(s0)
   15a28: 83 38 04 04  	ld	a7, 0x40(s0)
   15a2c: 1b 17 07 01  	slliw	a4, a4, 0x10
   15a30: ed 8f        	and	a5, a5, a1
   15a32: d9 8f        	or	a5, a5, a4
   15a34: 13 08 00 40  	li	a6, 0x400
   15a38: 3e c8        	sw	a5, 0x10(sp)
   15a3a: 8a 85        	mv	a1, sp
   15a3c: 1c 19        	addi	a5, sp, 0xb0
   15a3e: 23 3c 91 4a  	sd	s1, 0x4b8(sp)
   15a42: 23 38 21 4b  	sd	s2, 0x4b0(sp)
   15a46: 23 34 11 4c  	sd	ra, 0x4c8(sp)
   15a4a: 2a 89        	mv	s2, a0
   15a4c: 72 d7        	sw	t3, 0xac(sp)
   15a4e: 1a f8        	sd	t1, 0x30(sp)
   15a50: c6 e0        	sd	a7, 0x40(sp)
   15a52: 3e e0        	sd	a5, 0x0(sp)
   15a54: 3e ec        	sd	a5, 0x18(sp)
   15a56: 42 c6        	sw	a6, 0xc(sp)
   15a58: 42 d0        	sw	a6, 0x20(sp)
   15a5a: 02 d4        	sw	zero, 0x28(sp)
   15a5c: ef e0 4f c6  	jal	0x13ec0 <_vfprintf_r>
   15a60: aa 84        	mv	s1, a0
   15a62: 63 59 05 02  	bgez	a0, 0x15a94 <__sbprintf+0x8a>
   15a66: 83 57 01 01  	lhu	a5, 0x10(sp)
   15a6a: 93 f7 07 04  	andi	a5, a5, 0x40
   15a6e: 99 c7        	beqz	a5, 0x15a7c <__sbprintf+0x72>
   15a70: 83 57 04 01  	lhu	a5, 0x10(s0)
   15a74: 93 e7 07 04  	ori	a5, a5, 0x40
   15a78: 23 18 f4 00  	sh	a5, 0x10(s0)
   15a7c: 83 30 81 4c  	ld	ra, 0x4c8(sp)
   15a80: 03 34 01 4c  	ld	s0, 0x4c0(sp)
   15a84: 03 39 01 4b  	ld	s2, 0x4b0(sp)
   15a88: 26 85        	mv	a0, s1
   15a8a: 83 34 81 4b  	ld	s1, 0x4b8(sp)
   15a8e: 13 01 01 4d  	addi	sp, sp, 0x4d0
   15a92: 82 80        	ret
   15a94: 8a 85        	mv	a1, sp
   15a96: 4a 85        	mv	a0, s2
   15a98: ef 10 20 09  	jal	0x16b2a <_fflush_r>
   15a9c: 69 d5        	beqz	a0, 0x15a66 <__sbprintf+0x5c>
   15a9e: fd 54        	li	s1, -0x1
   15aa0: d9 b7        	j	0x15a66 <__sbprintf+0x5c>

0000000000015aa2 <__sprint_r.part.0>:
   15aa2: 83 a7 c5 0a  	lw	a5, 0xac(a1)
   15aa6: 5d 71        	addi	sp, sp, -0x50
   15aa8: 56 ec        	sd	s5, 0x18(sp)
   15aaa: 86 e4        	sd	ra, 0x48(sp)
   15aac: 13 97 27 03  	slli	a4, a5, 0x32
   15ab0: b2 8a        	mv	s5, a2
   15ab2: 63 5f 07 08  	bgez	a4, 0x15b50 <__sprint_r.part.0+0xae>
   15ab6: 1c 6a        	ld	a5, 0x10(a2)
   15ab8: 4a f8        	sd	s2, 0x30(sp)
   15aba: 4e f4        	sd	s3, 0x28(sp)
   15abc: 52 f0        	sd	s4, 0x20(sp)
   15abe: 5a e8        	sd	s6, 0x10(sp)
   15ac0: 2e 89        	mv	s2, a1
   15ac2: 03 3b 06 00  	ld	s6, 0x0(a2)
   15ac6: aa 89        	mv	s3, a0
   15ac8: 7d 5a        	li	s4, -0x1
   15aca: ad cf        	beqz	a5, 0x15b44 <__sprint_r.part.0+0xa2>
   15acc: a2 e0        	sd	s0, 0x40(sp)
   15ace: 26 fc        	sd	s1, 0x38(sp)
   15ad0: 5e e4        	sd	s7, 0x8(sp)
   15ad2: 83 34 8b 00  	ld	s1, 0x8(s6)
   15ad6: 03 34 0b 00  	ld	s0, 0x0(s6)
   15ada: 89 80        	srli	s1, s1, 0x2
   15adc: 9b 8b 04 00  	sext.w	s7, s1
   15ae0: 63 58 70 05  	blez	s7, 0x15b30 <__sprint_r.part.0+0x8e>
   15ae4: fd 34        	addiw	s1, s1, -0x1
   15ae6: 93 97 04 02  	slli	a5, s1, 0x20
   15aea: 93 d4 e7 01  	srli	s1, a5, 0x1e
   15aee: 93 07 44 00  	addi	a5, s0, 0x4
   15af2: be 94        	add	s1, s1, a5
   15af4: 19 a0        	j	0x15afa <__sprint_r.part.0+0x58>
   15af6: 63 8b 84 02  	beq	s1, s0, 0x15b2c <__sprint_r.part.0+0x8a>
   15afa: 0c 40        	lw	a1, 0x0(s0)
   15afc: 4a 86        	mv	a2, s2
   15afe: 4e 85        	mv	a0, s3
   15b00: ef 10 c0 59  	jal	0x1709c <_fputwc_r>
   15b04: 01 25        	sext.w	a0, a0
   15b06: 11 04        	addi	s0, s0, 0x4
   15b08: e3 17 45 ff  	bne	a0, s4, 0x15af6 <__sprint_r.part.0+0x54>
   15b0c: 06 64        	ld	s0, 0x40(sp)
   15b0e: e2 74        	ld	s1, 0x38(sp)
   15b10: 42 79        	ld	s2, 0x30(sp)
   15b12: a2 79        	ld	s3, 0x28(sp)
   15b14: 02 7a        	ld	s4, 0x20(sp)
   15b16: 42 6b        	ld	s6, 0x10(sp)
   15b18: a2 6b        	ld	s7, 0x8(sp)
   15b1a: 7d 55        	li	a0, -0x1
   15b1c: a6 60        	ld	ra, 0x48(sp)
   15b1e: 23 b8 0a 00  	sd	zero, 0x10(s5)
   15b22: 23 a4 0a 00  	sw	zero, 0x8(s5)
   15b26: e2 6a        	ld	s5, 0x18(sp)
   15b28: 61 61        	addi	sp, sp, 0x50
   15b2a: 82 80        	ret
   15b2c: 83 b7 0a 01  	ld	a5, 0x10(s5)
   15b30: 8a 0b        	slli	s7, s7, 0x2
   15b32: b3 87 77 41  	sub	a5, a5, s7
   15b36: 23 b8 fa 00  	sd	a5, 0x10(s5)
   15b3a: 41 0b        	addi	s6, s6, 0x10
   15b3c: d9 fb        	bnez	a5, 0x15ad2 <__sprint_r.part.0+0x30>
   15b3e: 06 64        	ld	s0, 0x40(sp)
   15b40: e2 74        	ld	s1, 0x38(sp)
   15b42: a2 6b        	ld	s7, 0x8(sp)
   15b44: 42 79        	ld	s2, 0x30(sp)
   15b46: a2 79        	ld	s3, 0x28(sp)
   15b48: 02 7a        	ld	s4, 0x20(sp)
   15b4a: 42 6b        	ld	s6, 0x10(sp)
   15b4c: 01 45        	li	a0, 0x0
   15b4e: f9 b7        	j	0x15b1c <__sprint_r.part.0+0x7a>
   15b50: ef 10 a0 06  	jal	0x16bba <__sfvwrite_r>
   15b54: a6 60        	ld	ra, 0x48(sp)
   15b56: 23 b8 0a 00  	sd	zero, 0x10(s5)
   15b5a: 23 a4 0a 00  	sw	zero, 0x8(s5)
   15b5e: e2 6a        	ld	s5, 0x18(sp)
   15b60: 61 61        	addi	sp, sp, 0x50
   15b62: 82 80        	ret

0000000000015b64 <__sprint_r>:
   15b64: 18 6a        	ld	a4, 0x10(a2)
   15b66: 19 c3        	beqz	a4, 0x15b6c <__sprint_r+0x8>
   15b68: 6f f0 bf f3  	j	0x15aa2 <__sprint_r.part.0>
   15b6c: 23 24 06 00  	sw	zero, 0x8(a2)
   15b70: 01 45        	li	a0, 0x0
   15b72: 82 80        	ret

0000000000015b74 <_vfiprintf_r>:
   15b74: 05 71        	addi	sp, sp, -0x1e0
   15b76: 52 fb        	sd	s4, 0x1b0(sp)
   15b78: 56 f7        	sd	s5, 0x1a8(sp)
   15b7a: 5e ef        	sd	s7, 0x198(sp)
   15b7c: 6a e3        	sd	s10, 0x180(sp)
   15b7e: 86 ef        	sd	ra, 0x1d8(sp)
   15b80: 62 eb        	sd	s8, 0x190(sp)
   15b82: aa 8a        	mv	s5, a0
   15b84: 2e 8a        	mv	s4, a1
   15b86: 32 8d        	mv	s10, a2
   15b88: b6 8b        	mv	s7, a3
   15b8a: 01 c5        	beqz	a0, 0x15b92 <_vfiprintf_r+0x1e>
   15b8c: 3c 65        	ld	a5, 0x48(a0)
   15b8e: e3 8a 07 38  	beqz	a5, 0x16722 <_vfiprintf_r+0xbae>
   15b92: 83 17 0a 01  	lh	a5, 0x10(s4)
   15b96: 93 96 27 03  	slli	a3, a5, 0x32
   15b9a: 63 c1 06 02  	bltz	a3, 0x15bbc <_vfiprintf_r+0x48>
   15b9e: 83 26 ca 0a  	lw	a3, 0xac(s4)
   15ba2: 89 65        	lui	a1, 0x2
   15ba4: 79 76        	lui	a2, 0xffffe
   15ba6: cd 8f        	or	a5, a5, a1
   15ba8: 7d 16        	addi	a2, a2, -0x1
   15baa: 9b 97 07 01  	slliw	a5, a5, 0x10
   15bae: 9b d7 07 41  	sraiw	a5, a5, 0x10
   15bb2: f1 8e        	and	a3, a3, a2
   15bb4: 23 18 fa 00  	sh	a5, 0x10(s4)
   15bb8: 23 26 da 0a  	sw	a3, 0xac(s4)
   15bbc: 93 f6 87 00  	andi	a3, a5, 0x8
   15bc0: f1 ca        	beqz	a3, 0x15c94 <_vfiprintf_r+0x120>
   15bc2: 83 36 8a 01  	ld	a3, 0x18(s4)
   15bc6: f9 c6        	beqz	a3, 0x15c94 <_vfiprintf_r+0x120>
   15bc8: e9 8b        	andi	a5, a5, 0x1a
   15bca: a9 46        	li	a3, 0xa
   15bcc: 63 80 d7 0e  	beq	a5, a3, 0x15cac <_vfiprintf_r+0x138>
   15bd0: f5 67        	lui	a5, 0x1d
   15bd2: 4e ff        	sd	s3, 0x1b8(sp)
   15bd4: 5a f3        	sd	s6, 0x1a0(sp)
   15bd6: 93 09 01 0f  	addi	s3, sp, 0xf0
   15bda: 93 87 07 14  	addi	a5, a5, 0x140
   15bde: 75 6b        	lui	s6, 0x1d
   15be0: a2 eb        	sd	s0, 0x1d0(sp)
   15be2: ca e3        	sd	s2, 0x1c0(sp)
   15be4: a6 e7        	sd	s1, 0x1c8(sp)
   15be6: 66 e7        	sd	s9, 0x188(sp)
   15be8: ee fe        	sd	s11, 0x178(sp)
   15bea: ce f8        	sd	s3, 0x70(sp)
   15bec: 02 e1        	sd	zero, 0x80(sp)
   15bee: 82 dc        	sw	zero, 0x78(sp)
   15bf0: 4e 84        	mv	s0, s3
   15bf2: 02 e8        	sd	zero, 0x10(sp)
   15bf4: 02 fc        	sd	zero, 0x38(sp)
   15bf6: 02 f8        	sd	zero, 0x30(sp)
   15bf8: 82 e0        	sd	zero, 0x40(sp)
   15bfa: 01 4c        	li	s8, 0x0
   15bfc: 3e e4        	sd	a5, 0x8(sp)
   15bfe: 41 49        	li	s2, 0x10
   15c00: 13 0b 0b 2b  	addi	s6, s6, 0x2b0
   15c04: 83 47 0d 00  	lbu	a5, 0x0(s10)
   15c08: f9 c3        	beqz	a5, 0x15cce <_vfiprintf_r+0x15a>
   15c0a: ea 84        	mv	s1, s10
   15c0c: 13 07 50 02  	li	a4, 0x25
   15c10: 63 8f e7 26  	beq	a5, a4, 0x15e8e <_vfiprintf_r+0x31a>
   15c14: 83 c7 14 00  	lbu	a5, 0x1(s1)
   15c18: 85 04        	addi	s1, s1, 0x1
   15c1a: fd fb        	bnez	a5, 0x15c10 <_vfiprintf_r+0x9c>
   15c1c: bb 8d a4 41  	subw	s11, s1, s10
   15c20: 63 87 0d 0a  	beqz	s11, 0x15cce <_vfiprintf_r+0x15a>
   15c24: e6 57        	lw	a5, 0x78(sp)
   15c26: 0a 67        	ld	a4, 0x80(sp)
   15c28: 23 30 a4 01  	sd	s10, 0x0(s0)
   15c2c: 9b 86 17 00  	addiw	a3, a5, 0x1
   15c30: 6e 97        	add	a4, a4, s11
   15c32: 23 34 b4 01  	sd	s11, 0x8(s0)
   15c36: 3a e1        	sd	a4, 0x80(sp)
   15c38: b6 dc        	sw	a3, 0x78(sp)
   15c3a: 9d 47        	li	a5, 0x7
   15c3c: 41 04        	addi	s0, s0, 0x10
   15c3e: 63 db d7 00  	bge	a5, a3, 0x15c54 <_vfiprintf_r+0xe0>
   15c42: e3 02 07 0e  	beqz	a4, 0x16526 <_vfiprintf_r+0x9b2>
   15c46: 90 18        	addi	a2, sp, 0x70
   15c48: d2 85        	mv	a1, s4
   15c4a: 56 85        	mv	a0, s5
   15c4c: ef f0 7f e5  	jal	0x15aa2 <__sprint_r.part.0>
   15c50: 51 e1        	bnez	a0, 0x15cd4 <_vfiprintf_r+0x160>
   15c52: 4e 84        	mv	s0, s3
   15c54: 83 c7 04 00  	lbu	a5, 0x0(s1)
   15c58: 3b 8c 8d 01  	addw	s8, s11, s8
   15c5c: ad cb        	beqz	a5, 0x15cce <_vfiprintf_r+0x15a>
   15c5e: 83 c7 14 00  	lbu	a5, 0x1(s1)
   15c62: 13 8d 14 00  	addi	s10, s1, 0x1
   15c66: a3 03 01 06  	sb	zero, 0x67(sp)
   15c6a: fd 54        	li	s1, -0x1
   15c6c: 81 48        	li	a7, 0x0
   15c6e: 81 4c        	li	s9, 0x0
   15c70: 93 0d a0 05  	li	s11, 0x5a
   15c74: 05 0d        	addi	s10, s10, 0x1
   15c76: 81 27        	sext.w	a5, a5
   15c78: 1b 87 07 fe  	addiw	a4, a5, -0x20
   15c7c: 9b 06 07 00  	sext.w	a3, a4
   15c80: 63 eb dd 0a  	bltu	s11, a3, 0x15d36 <_vfiprintf_r+0x1c2>
   15c84: 93 16 07 02  	slli	a3, a4, 0x20
   15c88: 13 d7 e6 01  	srli	a4, a3, 0x1e
   15c8c: a2 66        	ld	a3, 0x8(sp)
   15c8e: 36 97        	add	a4, a4, a3
   15c90: 18 43        	lw	a4, 0x0(a4)
   15c92: 02 87        	jr	a4
   15c94: d2 85        	mv	a1, s4
   15c96: 56 85        	mv	a0, s5
   15c98: ef 10 40 28  	jal	0x16f1c <__swsetup_r>
   15c9c: e3 19 05 36  	bnez	a0, 0x1680e <_vfiprintf_r+0xc9a>
   15ca0: 83 17 0a 01  	lh	a5, 0x10(s4)
   15ca4: a9 46        	li	a3, 0xa
   15ca6: e9 8b        	andi	a5, a5, 0x1a
   15ca8: e3 94 d7 f2  	bne	a5, a3, 0x15bd0 <_vfiprintf_r+0x5c>
   15cac: 83 17 2a 01  	lh	a5, 0x12(s4)
   15cb0: e3 c0 07 f2  	bltz	a5, 0x15bd0 <_vfiprintf_r+0x5c>
   15cb4: fe 60        	ld	ra, 0x1d8(sp)
   15cb6: 5a 6c        	ld	s8, 0x190(sp)
   15cb8: de 86        	mv	a3, s7
   15cba: 6a 86        	mv	a2, s10
   15cbc: fa 6b        	ld	s7, 0x198(sp)
   15cbe: 1a 6d        	ld	s10, 0x180(sp)
   15cc0: d2 85        	mv	a1, s4
   15cc2: 56 85        	mv	a0, s5
   15cc4: 5a 7a        	ld	s4, 0x1b0(sp)
   15cc6: ba 7a        	ld	s5, 0x1a8(sp)
   15cc8: 3d 61        	addi	sp, sp, 0x1e0
   15cca: 6f 00 f0 37  	j	0x16848 <__sbprintf>
   15cce: 8a 67        	ld	a5, 0x80(sp)
   15cd0: e3 94 07 30  	bnez	a5, 0x167d8 <_vfiprintf_r+0xc64>
   15cd4: 83 57 0a 01  	lhu	a5, 0x10(s4)
   15cd8: 5e 64        	ld	s0, 0x1d0(sp)
   15cda: be 64        	ld	s1, 0x1c8(sp)
   15cdc: 93 f7 07 04  	andi	a5, a5, 0x40
   15ce0: 1e 69        	ld	s2, 0x1c0(sp)
   15ce2: fa 79        	ld	s3, 0x1b8(sp)
   15ce4: 1a 7b        	ld	s6, 0x1a0(sp)
   15ce6: ba 6c        	ld	s9, 0x188(sp)
   15ce8: f6 7d        	ld	s11, 0x178(sp)
   15cea: e3 92 07 32  	bnez	a5, 0x1680e <_vfiprintf_r+0xc9a>
   15cee: fe 60        	ld	ra, 0x1d8(sp)
   15cf0: 5a 7a        	ld	s4, 0x1b0(sp)
   15cf2: ba 7a        	ld	s5, 0x1a8(sp)
   15cf4: fa 6b        	ld	s7, 0x198(sp)
   15cf6: 1a 6d        	ld	s10, 0x180(sp)
   15cf8: 62 85        	mv	a0, s8
   15cfa: 5a 6c        	ld	s8, 0x190(sp)
   15cfc: 3d 61        	addi	sp, sp, 0x1e0
   15cfe: 82 80        	ret
   15d00: 81 48        	li	a7, 0x0
   15d02: 25 46        	li	a2, 0x9
   15d04: 83 46 0d 00  	lbu	a3, 0x0(s10)
   15d08: 1b 97 28 00  	slliw	a4, a7, 0x2
   15d0c: bb 08 17 01  	addw	a7, a4, a7
   15d10: 9b 87 07 fd  	addiw	a5, a5, -0x30
   15d14: 9b 98 18 00  	slliw	a7, a7, 0x1
   15d18: 1b 87 06 fd  	addiw	a4, a3, -0x30
   15d1c: bb 88 17 01  	addw	a7, a5, a7
   15d20: 05 0d        	addi	s10, s10, 0x1
   15d22: 9b 87 06 00  	sext.w	a5, a3
   15d26: e3 7f e6 fc  	bgeu	a2, a4, 0x15d04 <_vfiprintf_r+0x190>
   15d2a: 1b 87 07 fe  	addiw	a4, a5, -0x20
   15d2e: 9b 06 07 00  	sext.w	a3, a4
   15d32: e3 f9 dd f4  	bgeu	s11, a3, 0x15c84 <_vfiprintf_r+0x110>
   15d36: c1 df        	beqz	a5, 0x15cce <_vfiprintf_r+0x15a>
   15d38: 23 04 f1 08  	sb	a5, 0x88(sp)
   15d3c: a3 03 01 06  	sb	zero, 0x67(sp)
   15d40: 05 43        	li	t1, 0x1
   15d42: 05 4e        	li	t3, 0x1
   15d44: 93 0d 81 08  	addi	s11, sp, 0x88
   15d48: 81 44        	li	s1, 0x0
   15d4a: 81 4f        	li	t6, 0x0
   15d4c: e6 56        	lw	a3, 0x78(sp)
   15d4e: 93 f2 4c 08  	andi	t0, s9, 0x84
   15d52: 8a 67        	ld	a5, 0x80(sp)
   15d54: 9b 85 16 00  	addiw	a1, a3, 0x1
   15d58: 2e 86        	mv	a2, a1
   15d5a: 63 96 02 00  	bnez	t0, 0x15d66 <_vfiprintf_r+0x1f2>
   15d5e: 3b 87 68 40  	subw	a4, a7, t1
   15d62: 63 4b e0 62  	bgtz	a4, 0x16398 <_vfiprintf_r+0x824>
   15d66: 03 47 71 06  	lbu	a4, 0x67(sp)
   15d6a: 19 cf        	beqz	a4, 0x15d88 <_vfiprintf_r+0x214>
   15d6c: 13 07 71 06  	addi	a4, sp, 0x67
   15d70: 85 07        	addi	a5, a5, 0x1
   15d72: 18 e0        	sd	a4, 0x0(s0)
   15d74: 05 47        	li	a4, 0x1
   15d76: 18 e4        	sd	a4, 0x8(s0)
   15d78: 3e e1        	sd	a5, 0x80(sp)
   15d7a: ae dc        	sw	a1, 0x78(sp)
   15d7c: 1d 47        	li	a4, 0x7
   15d7e: 63 4e b7 58  	blt	a4, a1, 0x1631a <_vfiprintf_r+0x7a6>
   15d82: ae 86        	mv	a3, a1
   15d84: 41 04        	addi	s0, s0, 0x10
   15d86: 85 25        	addiw	a1, a1, 0x1
   15d88: 63 81 0f 04  	beqz	t6, 0x15dca <_vfiprintf_r+0x256>
   15d8c: b8 10        	addi	a4, sp, 0x68
   15d8e: 89 07        	addi	a5, a5, 0x2
   15d90: 18 e0        	sd	a4, 0x0(s0)
   15d92: 09 47        	li	a4, 0x2
   15d94: 18 e4        	sd	a4, 0x8(s0)
   15d96: 3e e1        	sd	a5, 0x80(sp)
   15d98: ae dc        	sw	a1, 0x78(sp)
   15d9a: 1d 47        	li	a4, 0x7
   15d9c: 63 5f b7 5a  	bge	a4, a1, 0x1635a <_vfiprintf_r+0x7e6>
   15da0: 63 87 07 78  	beqz	a5, 0x1652e <_vfiprintf_r+0x9ba>
   15da4: 90 18        	addi	a2, sp, 0x70
   15da6: d2 85        	mv	a1, s4
   15da8: 56 85        	mv	a0, s5
   15daa: 9a e4        	sd	t1, 0x48(sp)
   15dac: 46 f4        	sd	a7, 0x28(sp)
   15dae: 72 f0        	sd	t3, 0x20(sp)
   15db0: 16 ec        	sd	t0, 0x18(sp)
   15db2: ef f0 1f cf  	jal	0x15aa2 <__sprint_r.part.0>
   15db6: 19 fd        	bnez	a0, 0x15cd4 <_vfiprintf_r+0x160>
   15db8: e6 56        	lw	a3, 0x78(sp)
   15dba: 8a 67        	ld	a5, 0x80(sp)
   15dbc: 26 63        	ld	t1, 0x48(sp)
   15dbe: a2 78        	ld	a7, 0x28(sp)
   15dc0: 02 7e        	ld	t3, 0x20(sp)
   15dc2: e2 62        	ld	t0, 0x18(sp)
   15dc4: 4e 84        	mv	s0, s3
   15dc6: 9b 85 16 00  	addiw	a1, a3, 0x1
   15dca: 13 07 00 08  	li	a4, 0x80
   15dce: 63 84 e2 3e  	beq	t0, a4, 0x161b6 <_vfiprintf_r+0x642>
   15dd2: bb 84 c4 41  	subw	s1, s1, t3
   15dd6: 63 40 90 4a  	bgtz	s1, 0x16276 <_vfiprintf_r+0x702>
   15dda: f2 97        	add	a5, a5, t3
   15ddc: 23 30 b4 01  	sd	s11, 0x0(s0)
   15de0: 23 34 c4 01  	sd	t3, 0x8(s0)
   15de4: 3e e1        	sd	a5, 0x80(sp)
   15de6: ae dc        	sw	a1, 0x78(sp)
   15de8: 1d 47        	li	a4, 0x7
   15dea: 63 54 b7 3c  	bge	a4, a1, 0x161b2 <_vfiprintf_r+0x63e>
   15dee: 63 87 07 64  	beqz	a5, 0x1643c <_vfiprintf_r+0x8c8>
   15df2: 90 18        	addi	a2, sp, 0x70
   15df4: d2 85        	mv	a1, s4
   15df6: 56 85        	mv	a0, s5
   15df8: 1a f0        	sd	t1, 0x20(sp)
   15dfa: 46 ec        	sd	a7, 0x18(sp)
   15dfc: ef f0 7f ca  	jal	0x15aa2 <__sprint_r.part.0>
   15e00: e3 1a 05 ec  	bnez	a0, 0x15cd4 <_vfiprintf_r+0x160>
   15e04: 8a 67        	ld	a5, 0x80(sp)
   15e06: 02 73        	ld	t1, 0x20(sp)
   15e08: e2 68        	ld	a7, 0x18(sp)
   15e0a: 4e 84        	mv	s0, s3
   15e0c: 13 f8 4c 00  	andi	a6, s9, 0x4
   15e10: 63 06 08 00  	beqz	a6, 0x15e1c <_vfiprintf_r+0x2a8>
   15e14: bb 84 68 40  	subw	s1, a7, t1
   15e18: 63 4c 90 62  	bgtz	s1, 0x16450 <_vfiprintf_r+0x8dc>
   15e1c: 46 87        	mv	a4, a7
   15e1e: 63 d3 68 00  	bge	a7, t1, 0x15e24 <_vfiprintf_r+0x2b0>
   15e22: 1a 87        	mv	a4, t1
   15e24: 3b 0c 87 01  	addw	s8, a4, s8
   15e28: 63 9d 07 4c  	bnez	a5, 0x16302 <_vfiprintf_r+0x78e>
   15e2c: 82 dc        	sw	zero, 0x78(sp)
   15e2e: 4e 84        	mv	s0, s3
   15e30: d1 bb        	j	0x15c04 <_vfiprintf_r+0x90>
   15e32: 93 ec 0c 01  	ori	s9, s9, 0x10
   15e36: 83 47 0d 00  	lbu	a5, 0x0(s10)
   15e3a: 81 2c        	sext.w	s9, s9
   15e3c: 25 bd        	j	0x15c74 <_vfiprintf_r+0x100>
   15e3e: 13 e8 0c 01  	ori	a6, s9, 0x10
   15e42: 9b 0c 08 00  	sext.w	s9, a6
   15e46: 93 f7 0c 02  	andi	a5, s9, 0x20
   15e4a: 93 8e 8b 00  	addi	t4, s7, 0x8
   15e4e: b9 c7        	beqz	a5, 0x15e9c <_vfiprintf_r+0x328>
   15e50: 83 b7 0b 00  	ld	a5, 0x0(s7)
   15e54: be 8b        	mv	s7, a5
   15e56: 63 c3 07 06  	bltz	a5, 0x15ebc <_vfiprintf_r+0x348>
   15e5a: 63 cd 04 06  	bltz	s1, 0x15ed4 <_vfiprintf_r+0x360>
   15e5e: 13 f8 fc f7  	andi	a6, s9, -0x81
   15e62: 9b 0c 08 00  	sext.w	s9, a6
   15e66: 63 97 0b 06  	bnez	s7, 0x15ed4 <_vfiprintf_r+0x360>
   15e6a: e3 92 04 18  	bnez	s1, 0x167ee <_vfiprintf_r+0xc7a>
   15e6e: 83 47 71 06  	lbu	a5, 0x67(sp)
   15e72: 01 43        	li	t1, 0x0
   15e74: 01 4e        	li	t3, 0x0
   15e76: f6 8b        	mv	s7, t4
   15e78: 93 0d c1 0e  	addi	s11, sp, 0xec
   15e7c: 91 c3        	beqz	a5, 0x15e80 <_vfiprintf_r+0x30c>
   15e7e: 05 23        	addiw	t1, t1, 0x1
   15e80: 93 ff 2c 00  	andi	t6, s9, 0x2
   15e84: e3 84 0f ec  	beqz	t6, 0x15d4c <_vfiprintf_r+0x1d8>
   15e88: 09 23        	addiw	t1, t1, 0x2
   15e8a: 89 4f        	li	t6, 0x2
   15e8c: c1 b5        	j	0x15d4c <_vfiprintf_r+0x1d8>
   15e8e: bb 8d a4 41  	subw	s11, s1, s10
   15e92: e3 99 0d d8  	bnez	s11, 0x15c24 <_vfiprintf_r+0xb0>
   15e96: 83 c7 04 00  	lbu	a5, 0x0(s1)
   15e9a: c9 b3        	j	0x15c5c <_vfiprintf_r+0xe8>
   15e9c: 93 f7 0c 01  	andi	a5, s9, 0x10
   15ea0: c5 fb        	bnez	a5, 0x15e50 <_vfiprintf_r+0x2dc>
   15ea2: 93 f7 0c 04  	andi	a5, s9, 0x40
   15ea6: 83 ab 0b 00  	lw	s7, 0x0(s7)
   15eaa: e3 87 07 0c  	beqz	a5, 0x16778 <_vfiprintf_r+0xc04>
   15eae: 9b 9b 0b 01  	slliw	s7, s7, 0x10
   15eb2: 9b db 0b 41  	sraiw	s7, s7, 0x10
   15eb6: de 87        	mv	a5, s7
   15eb8: e3 d1 07 fa  	bgez	a5, 0x15e5a <_vfiprintf_r+0x2e6>
   15ebc: 93 07 d0 02  	li	a5, 0x2d
   15ec0: a3 03 f1 06  	sb	a5, 0x67(sp)
   15ec4: b3 0b 70 41  	neg	s7, s7
   15ec8: 63 c6 04 00  	bltz	s1, 0x15ed4 <_vfiprintf_r+0x360>
   15ecc: 13 f8 fc f7  	andi	a6, s9, -0x81
   15ed0: 9b 0c 08 00  	sext.w	s9, a6
   15ed4: a5 47        	li	a5, 0x9
   15ed6: 63 ef 77 69  	bltu	a5, s7, 0x16574 <_vfiprintf_r+0xa00>
   15eda: 9b 87 0b 03  	addiw	a5, s7, 0x30
   15ede: 93 f7 f7 0f  	andi	a5, a5, 0xff
   15ee2: f6 8b        	mv	s7, t4
   15ee4: a3 05 f1 0e  	sb	a5, 0xeb(sp)
   15ee8: 1b 83 04 00  	sext.w	t1, s1
   15eec: 63 43 90 00  	bgtz	s1, 0x15ef2 <_vfiprintf_r+0x37e>
   15ef0: 05 43        	li	t1, 0x1
   15ef2: 05 4e        	li	t3, 0x1
   15ef4: 93 0d b1 0e  	addi	s11, sp, 0xeb
   15ef8: 83 47 71 06  	lbu	a5, 0x67(sp)
   15efc: c9 f3        	bnez	a5, 0x15e7e <_vfiprintf_r+0x30a>
   15efe: 49 b7        	j	0x15e80 <_vfiprintf_r+0x30c>
   15f00: 83 bd 0b 00  	ld	s11, 0x0(s7)
   15f04: a3 03 01 06  	sb	zero, 0x67(sp)
   15f08: a1 0b        	addi	s7, s7, 0x8
   15f0a: e3 80 0d 04  	beqz	s11, 0x1674a <_vfiprintf_r+0xbd6>
   15f0e: 46 ec        	sd	a7, 0x18(sp)
   15f10: 63 c1 04 7a  	bltz	s1, 0x166b2 <_vfiprintf_r+0xb3e>
   15f14: 26 86        	mv	a2, s1
   15f16: 81 45        	li	a1, 0x0
   15f18: 6e 85        	mv	a0, s11
   15f1a: ef 10 60 1f  	jal	0x17110 <memchr>
   15f1e: e2 68        	ld	a7, 0x18(sp)
   15f20: 26 8e        	mv	t3, s1
   15f22: 19 c1        	beqz	a0, 0x15f28 <_vfiprintf_r+0x3b4>
   15f24: 3b 0e b5 41  	subw	t3, a0, s11
   15f28: 13 43 fe ff  	not	t1, t3
   15f2c: 83 47 71 06  	lbu	a5, 0x67(sp)
   15f30: 13 53 f3 43  	srai	t1, t1, 0x3f
   15f34: 33 73 6e 00  	and	t1, t3, t1
   15f38: 01 23        	sext.w	t1, t1
   15f3a: 81 44        	li	s1, 0x0
   15f3c: 81 4f        	li	t6, 0x0
   15f3e: a1 f3        	bnez	a5, 0x15e7e <_vfiprintf_r+0x30a>
   15f40: 31 b5        	j	0x15d4c <_vfiprintf_r+0x1d8>
   15f42: 83 a7 0b 00  	lw	a5, 0x0(s7)
   15f46: a3 03 01 06  	sb	zero, 0x67(sp)
   15f4a: a1 0b        	addi	s7, s7, 0x8
   15f4c: 23 04 f1 08  	sb	a5, 0x88(sp)
   15f50: 05 43        	li	t1, 0x1
   15f52: 05 4e        	li	t3, 0x1
   15f54: 93 0d 81 08  	addi	s11, sp, 0x88
   15f58: c5 bb        	j	0x15d48 <_vfiprintf_r+0x1d4>
   15f5a: 83 a8 0b 00  	lw	a7, 0x0(s7)
   15f5e: a1 0b        	addi	s7, s7, 0x8
   15f60: 63 df 08 08  	bgez	a7, 0x15ffe <_vfiprintf_r+0x48a>
   15f64: bb 08 10 41  	negw	a7, a7
   15f68: 93 ec 4c 00  	ori	s9, s9, 0x4
   15f6c: 83 47 0d 00  	lbu	a5, 0x0(s10)
   15f70: 81 2c        	sext.w	s9, s9
   15f72: 09 b3        	j	0x15c74 <_vfiprintf_r+0x100>
   15f74: 13 07 b0 02  	li	a4, 0x2b
   15f78: 83 47 0d 00  	lbu	a5, 0x0(s10)
   15f7c: a3 03 e1 06  	sb	a4, 0x67(sp)
   15f80: d5 b9        	j	0x15c74 <_vfiprintf_r+0x100>
   15f82: 93 ec 0c 08  	ori	s9, s9, 0x80
   15f86: 83 47 0d 00  	lbu	a5, 0x0(s10)
   15f8a: 81 2c        	sext.w	s9, s9
   15f8c: e5 b1        	j	0x15c74 <_vfiprintf_r+0x100>
   15f8e: 83 47 0d 00  	lbu	a5, 0x0(s10)
   15f92: 13 06 a0 02  	li	a2, 0x2a
   15f96: 93 06 1d 00  	addi	a3, s10, 0x1
   15f9a: e3 82 c7 08  	beq	a5, a2, 0x1681e <_vfiprintf_r+0xcaa>
   15f9e: 1b 87 07 fd  	addiw	a4, a5, -0x30
   15fa2: 25 45        	li	a0, 0x9
   15fa4: 01 46        	li	a2, 0x0
   15fa6: a5 45        	li	a1, 0x9
   15fa8: 36 8d        	mv	s10, a3
   15faa: 81 44        	li	s1, 0x0
   15fac: e3 66 e5 cc  	bltu	a0, a4, 0x15c78 <_vfiprintf_r+0x104>
   15fb0: 83 c7 06 00  	lbu	a5, 0x0(a3)
   15fb4: 9b 14 26 00  	slliw	s1, a2, 0x2
   15fb8: b1 9c        	addw	s1, s1, a2
   15fba: 9b 94 14 00  	slliw	s1, s1, 0x1
   15fbe: 3b 86 e4 00  	addw	a2, s1, a4
   15fc2: 1b 87 07 fd  	addiw	a4, a5, -0x30
   15fc6: b2 84        	mv	s1, a2
   15fc8: 85 06        	addi	a3, a3, 0x1
   15fca: e3 f3 e5 fe  	bgeu	a1, a4, 0x15fb0 <_vfiprintf_r+0x43c>
   15fce: 63 46 06 66  	bltz	a2, 0x1663a <_vfiprintf_r+0xac6>
   15fd2: 36 8d        	mv	s10, a3
   15fd4: 55 b1        	j	0x15c78 <_vfiprintf_r+0x104>
   15fd6: 56 85        	mv	a0, s5
   15fd8: 46 ec        	sd	a7, 0x18(sp)
   15fda: ef 10 00 32  	jal	0x172fa <_localeconv_r>
   15fde: 1c 65        	ld	a5, 0x8(a0)
   15fe0: 3e 85        	mv	a0, a5
   15fe2: be e0        	sd	a5, 0x40(sp)
   15fe4: ef d0 6f c3  	jal	0x1341a <strlen>
   15fe8: aa 87        	mv	a5, a0
   15fea: 56 85        	mv	a0, s5
   15fec: 3e f8        	sd	a5, 0x30(sp)
   15fee: ef 10 c0 30  	jal	0x172fa <_localeconv_r>
   15ff2: 18 69        	ld	a4, 0x10(a0)
   15ff4: c2 77        	ld	a5, 0x30(sp)
   15ff6: e2 68        	ld	a7, 0x18(sp)
   15ff8: 3a fc        	sd	a4, 0x38(sp)
   15ffa: 63 9a 07 60  	bnez	a5, 0x1660e <_vfiprintf_r+0xa9a>
   15ffe: 83 47 0d 00  	lbu	a5, 0x0(s10)
   16002: 8d b9        	j	0x15c74 <_vfiprintf_r+0x100>
   16004: 93 ec 1c 00  	ori	s9, s9, 0x1
   16008: 83 47 0d 00  	lbu	a5, 0x0(s10)
   1600c: 81 2c        	sext.w	s9, s9
   1600e: 9d b1        	j	0x15c74 <_vfiprintf_r+0x100>
   16010: 03 47 71 06  	lbu	a4, 0x67(sp)
   16014: 83 47 0d 00  	lbu	a5, 0x0(s10)
   16018: e3 1e 07 c4  	bnez	a4, 0x15c74 <_vfiprintf_r+0x100>
   1601c: 13 07 00 02  	li	a4, 0x20
   16020: a3 03 e1 06  	sb	a4, 0x67(sp)
   16024: 81 b9        	j	0x15c74 <_vfiprintf_r+0x100>
   16026: 93 e7 0c 01  	ori	a5, s9, 0x10
   1602a: 81 27        	sext.w	a5, a5
   1602c: 13 f7 07 02  	andi	a4, a5, 0x20
   16030: 93 86 8b 00  	addi	a3, s7, 0x8
   16034: 09 e7        	bnez	a4, 0x1603e <_vfiprintf_r+0x4ca>
   16036: 13 f7 07 01  	andi	a4, a5, 0x10
   1603a: 63 01 07 5c  	beqz	a4, 0x165fc <_vfiprintf_r+0xa88>
   1603e: 03 b7 0b 00  	ld	a4, 0x0(s7)
   16042: 13 f8 f7 bf  	andi	a6, a5, -0x401
   16046: a3 03 01 06  	sb	zero, 0x67(sp)
   1604a: 9b 0c 08 00  	sext.w	s9, a6
   1604e: b6 8b        	mv	s7, a3
   16050: 63 c5 04 08  	bltz	s1, 0x160da <_vfiprintf_r+0x566>
   16054: 93 f7 f7 b7  	andi	a5, a5, -0x481
   16058: 81 27        	sext.w	a5, a5
   1605a: 63 1f 07 6a  	bnez	a4, 0x16718 <_vfiprintf_r+0xba4>
   1605e: 66 8e        	mv	t3, s9
   16060: be 8c        	mv	s9, a5
   16062: ad e4        	bnez	s1, 0x160cc <_vfiprintf_r+0x558>
   16064: 63 13 07 50  	bnez	a4, 0x1656a <_vfiprintf_r+0x9f6>
   16068: 13 7e 1e 00  	andi	t3, t3, 0x1
   1606c: 63 04 0e 56  	beqz	t3, 0x165d4 <_vfiprintf_r+0xa60>
   16070: 93 07 00 03  	li	a5, 0x30
   16074: a3 05 f1 0e  	sb	a5, 0xeb(sp)
   16078: 72 83        	mv	t1, t3
   1607a: 93 0d b1 0e  	addi	s11, sp, 0xeb
   1607e: ad bd        	j	0x15ef8 <_vfiprintf_r+0x384>
   16080: 83 47 0d 00  	lbu	a5, 0x0(s10)
   16084: 13 07 c0 06  	li	a4, 0x6c
   16088: 63 89 e7 6a  	beq	a5, a4, 0x1673a <_vfiprintf_r+0xbc6>
   1608c: 93 ec 0c 01  	ori	s9, s9, 0x10
   16090: 81 2c        	sext.w	s9, s9
   16092: cd b6        	j	0x15c74 <_vfiprintf_r+0x100>
   16094: 13 ee 0c 01  	ori	t3, s9, 0x10
   16098: 01 2e        	sext.w	t3, t3
   1609a: 93 77 0e 02  	andi	a5, t3, 0x20
   1609e: 93 8e 8b 00  	addi	t4, s7, 0x8
   160a2: 89 e7        	bnez	a5, 0x160ac <_vfiprintf_r+0x538>
   160a4: 93 77 0e 01  	andi	a5, t3, 0x10
   160a8: 63 80 07 54  	beqz	a5, 0x165e8 <_vfiprintf_r+0xa74>
   160ac: 83 bb 0b 00  	ld	s7, 0x0(s7)
   160b0: a3 03 01 06  	sb	zero, 0x67(sp)
   160b4: f2 8c        	mv	s9, t3
   160b6: e3 cf 04 e0  	bltz	s1, 0x15ed4 <_vfiprintf_r+0x360>
   160ba: 13 78 fe f7  	andi	a6, t3, -0x81
   160be: 9b 0c 08 00  	sext.w	s9, a6
   160c2: e3 99 0b e0  	bnez	s7, 0x15ed4 <_vfiprintf_r+0x360>
   160c6: f6 8b        	mv	s7, t4
   160c8: 05 47        	li	a4, 0x1
   160ca: c9 dc        	beqz	s1, 0x16064 <_vfiprintf_r+0x4f0>
   160cc: 85 47        	li	a5, 0x1
   160ce: 63 01 f7 72  	beq	a4, a5, 0x167f0 <_vfiprintf_r+0xc7c>
   160d2: 89 47        	li	a5, 0x2
   160d4: 63 02 f7 6c  	beq	a4, a5, 0x16798 <_vfiprintf_r+0xc24>
   160d8: 01 47        	li	a4, 0x0
   160da: 13 0e c1 0e  	addi	t3, sp, 0xec
   160de: f2 8d        	mv	s11, t3
   160e0: 93 77 77 00  	andi	a5, a4, 0x7
   160e4: 93 87 07 03  	addi	a5, a5, 0x30
   160e8: a3 8f fd fe  	sb	a5, -0x1(s11)
   160ec: 0d 83        	srli	a4, a4, 0x3
   160ee: ee 86        	mv	a3, s11
   160f0: fd 1d        	addi	s11, s11, -0x1
   160f2: 7d f7        	bnez	a4, 0x160e0 <_vfiprintf_r+0x56c>
   160f4: 13 f7 1c 00  	andi	a4, s9, 0x1
   160f8: 63 07 07 28  	beqz	a4, 0x16386 <_vfiprintf_r+0x812>
   160fc: 13 07 00 03  	li	a4, 0x30
   16100: 63 83 e7 28  	beq	a5, a4, 0x16386 <_vfiprintf_r+0x812>
   16104: f9 16        	addi	a3, a3, -0x2
   16106: a3 8f ed fe  	sb	a4, -0x1(s11)
   1610a: 3b 0e de 40  	subw	t3, t3, a3
   1610e: 1b 83 04 00  	sext.w	t1, s1
   16112: 63 c0 c4 53  	blt	s1, t3, 0x16632 <_vfiprintf_r+0xabe>
   16116: b6 8d        	mv	s11, a3
   16118: c5 b3        	j	0x15ef8 <_vfiprintf_r+0x384>
   1611a: 83 47 0d 00  	lbu	a5, 0x0(s10)
   1611e: 13 07 80 06  	li	a4, 0x68
   16122: 63 84 e7 60  	beq	a5, a4, 0x1672a <_vfiprintf_r+0xbb6>
   16126: 93 ec 0c 04  	ori	s9, s9, 0x40
   1612a: 81 2c        	sext.w	s9, s9
   1612c: a1 b6        	j	0x15c74 <_vfiprintf_r+0x100>
   1612e: 93 ec 0c 02  	ori	s9, s9, 0x20
   16132: 83 47 0d 00  	lbu	a5, 0x0(s10)
   16136: 81 2c        	sext.w	s9, s9
   16138: 35 be        	j	0x15c74 <_vfiprintf_r+0x100>
   1613a: a1 67        	lui	a5, 0x8
   1613c: 93 87 07 83  	addi	a5, a5, -0x7d0
   16140: 23 14 f1 06  	sh	a5, 0x68(sp)
   16144: f5 67        	lui	a5, 0x1d
   16146: 13 e8 2c 00  	ori	a6, s9, 0x2
   1614a: 93 87 07 c7  	addi	a5, a5, -0x390
   1614e: 03 b7 0b 00  	ld	a4, 0x0(s7)
   16152: 9b 0c 08 00  	sext.w	s9, a6
   16156: a1 0b        	addi	s7, s7, 0x8
   16158: 3e e8        	sd	a5, 0x10(sp)
   1615a: a3 03 01 06  	sb	zero, 0x67(sp)
   1615e: 63 c6 04 20  	bltz	s1, 0x1636a <_vfiprintf_r+0x7f6>
   16162: 93 f7 fc f7  	andi	a5, s9, -0x81
   16166: 81 27        	sext.w	a5, a5
   16168: 63 1d 07 1e  	bnez	a4, 0x16362 <_vfiprintf_r+0x7ee>
   1616c: 66 8e        	mv	t3, s9
   1616e: 09 47        	li	a4, 0x2
   16170: be 8c        	mv	s9, a5
   16172: c5 bd        	j	0x16062 <_vfiprintf_r+0x4ee>
   16174: 93 f7 0c 02  	andi	a5, s9, 0x20
   16178: 03 b7 0b 00  	ld	a4, 0x0(s7)
   1617c: 85 e3        	bnez	a5, 0x1619c <_vfiprintf_r+0x628>
   1617e: 93 f7 0c 01  	andi	a5, s9, 0x10
   16182: 89 ef        	bnez	a5, 0x1619c <_vfiprintf_r+0x628>
   16184: 93 f7 0c 04  	andi	a5, s9, 0x40
   16188: 63 96 07 62  	bnez	a5, 0x167b4 <_vfiprintf_r+0xc40>
   1618c: 13 f8 0c 20  	andi	a6, s9, 0x200
   16190: 63 02 08 68  	beqz	a6, 0x16814 <_vfiprintf_r+0xca0>
   16194: 23 00 87 01  	sb	s8, 0x0(a4)
   16198: a1 0b        	addi	s7, s7, 0x8
   1619a: ad b4        	j	0x15c04 <_vfiprintf_r+0x90>
   1619c: 23 30 87 01  	sd	s8, 0x0(a4)
   161a0: a1 0b        	addi	s7, s7, 0x8
   161a2: 8d b4        	j	0x15c04 <_vfiprintf_r+0x90>
   161a4: 05 47        	li	a4, 0x1
   161a6: f2 87        	mv	a5, t3
   161a8: ee f9        	sd	s11, 0xf0(sp)
   161aa: f2 fd        	sd	t3, 0xf8(sp)
   161ac: 72 e1        	sd	t3, 0x80(sp)
   161ae: ba dc        	sw	a4, 0x78(sp)
   161b0: 4e 84        	mv	s0, s3
   161b2: 41 04        	addi	s0, s0, 0x10
   161b4: a1 b9        	j	0x15e0c <_vfiprintf_r+0x298>
   161b6: 3b 87 68 40  	subw	a4, a7, t1
   161ba: e3 5c e0 c0  	blez	a4, 0x15dd2 <_vfiprintf_r+0x25e>
   161be: 41 46        	li	a2, 0x10
   161c0: 63 52 e6 64  	bge	a2, a4, 0x16804 <_vfiprintf_r+0xc90>
   161c4: f5 6e        	lui	t4, 0x1d
   161c6: 93 8e 0e 2b  	addi	t4, t4, 0x2b0
   161ca: 26 f4        	sd	s1, 0x28(sp)
   161cc: a2 85        	mv	a1, s0
   161ce: 41 4f        	li	t5, 0x10
   161d0: 9d 4f        	li	t6, 0x7
   161d2: 72 ec        	sd	t3, 0x18(sp)
   161d4: 46 f0        	sd	a7, 0x20(sp)
   161d6: 9a e4        	sd	t1, 0x48(sp)
   161d8: 3a 84        	mv	s0, a4
   161da: f6 84        	mv	s1, t4
   161dc: 01 a8        	j	0x161ec <_vfiprintf_r+0x678>
   161de: 1b 86 26 00  	addiw	a2, a3, 0x2
   161e2: c1 05        	addi	a1, a1, 0x10
   161e4: aa 86        	mv	a3, a0
   161e6: 41 34        	addiw	s0, s0, -0x10
   161e8: 63 5f 8f 02  	bge	t5, s0, 0x16226 <_vfiprintf_r+0x6b2>
   161ec: 1b 85 16 00  	addiw	a0, a3, 0x1
   161f0: c1 07        	addi	a5, a5, 0x10
   161f2: 84 e1        	sd	s1, 0x0(a1)
   161f4: 23 b4 e5 01  	sd	t5, 0x8(a1)
   161f8: 3e e1        	sd	a5, 0x80(sp)
   161fa: aa dc        	sw	a0, 0x78(sp)
   161fc: e3 d1 af fe  	bge	t6, a0, 0x161de <_vfiprintf_r+0x66a>
   16200: 63 89 07 10  	beqz	a5, 0x16312 <_vfiprintf_r+0x79e>
   16204: 90 18        	addi	a2, sp, 0x70
   16206: d2 85        	mv	a1, s4
   16208: 56 85        	mv	a0, s5
   1620a: ef f0 9f 89  	jal	0x15aa2 <__sprint_r.part.0>
   1620e: e3 13 05 ac  	bnez	a0, 0x15cd4 <_vfiprintf_r+0x160>
   16212: e6 56        	lw	a3, 0x78(sp)
   16214: 41 4f        	li	t5, 0x10
   16216: 41 34        	addiw	s0, s0, -0x10
   16218: 8a 67        	ld	a5, 0x80(sp)
   1621a: ce 85        	mv	a1, s3
   1621c: 1b 86 16 00  	addiw	a2, a3, 0x1
   16220: 9d 4f        	li	t6, 0x7
   16222: e3 45 8f fc  	blt	t5, s0, 0x161ec <_vfiprintf_r+0x678>
   16226: a6 8e        	mv	t4, s1
   16228: 62 6e        	ld	t3, 0x18(sp)
   1622a: 82 78        	ld	a7, 0x20(sp)
   1622c: 26 63        	ld	t1, 0x48(sp)
   1622e: a2 74        	ld	s1, 0x28(sp)
   16230: 22 87        	mv	a4, s0
   16232: 2e 84        	mv	s0, a1
   16234: ba 97        	add	a5, a5, a4
   16236: 18 e4        	sd	a4, 0x8(s0)
   16238: 23 30 d4 01  	sd	t4, 0x0(s0)
   1623c: 3e e1        	sd	a5, 0x80(sp)
   1623e: b2 dc        	sw	a2, 0x78(sp)
   16240: 1d 47        	li	a4, 0x7
   16242: 63 5d c7 38  	bge	a4, a2, 0x165dc <_vfiprintf_r+0xa68>
   16246: 63 8b 07 54  	beqz	a5, 0x1679c <_vfiprintf_r+0xc28>
   1624a: 90 18        	addi	a2, sp, 0x70
   1624c: d2 85        	mv	a1, s4
   1624e: 56 85        	mv	a0, s5
   16250: 1a f4        	sd	t1, 0x28(sp)
   16252: 46 f0        	sd	a7, 0x20(sp)
   16254: 72 ec        	sd	t3, 0x18(sp)
   16256: ef f0 df 84  	jal	0x15aa2 <__sprint_r.part.0>
   1625a: e3 1d 05 a6  	bnez	a0, 0x15cd4 <_vfiprintf_r+0x160>
   1625e: 62 6e        	ld	t3, 0x18(sp)
   16260: e6 56        	lw	a3, 0x78(sp)
   16262: 8a 67        	ld	a5, 0x80(sp)
   16264: bb 84 c4 41  	subw	s1, s1, t3
   16268: 22 73        	ld	t1, 0x28(sp)
   1626a: 82 78        	ld	a7, 0x20(sp)
   1626c: 4e 84        	mv	s0, s3
   1626e: 9b 85 16 00  	addiw	a1, a3, 0x1
   16272: e3 54 90 b6  	blez	s1, 0x15dda <_vfiprintf_r+0x266>
   16276: f5 6e        	lui	t4, 0x1d
   16278: 93 8e 0e 2b  	addi	t4, t4, 0x2b0
   1627c: 63 53 99 06  	bge	s2, s1, 0x162e2 <_vfiprintf_r+0x76e>
   16280: 22 87        	mv	a4, s0
   16282: 1d 4f        	li	t5, 0x7
   16284: 26 84        	mv	s0, s1
   16286: 72 ec        	sd	t3, 0x18(sp)
   16288: 46 f0        	sd	a7, 0x20(sp)
   1628a: 1a f4        	sd	t1, 0x28(sp)
   1628c: da 84        	mv	s1, s6
   1628e: 01 a8        	j	0x1629e <_vfiprintf_r+0x72a>
   16290: 9b 85 26 00  	addiw	a1, a3, 0x2
   16294: 41 07        	addi	a4, a4, 0x10
   16296: aa 86        	mv	a3, a0
   16298: 41 34        	addiw	s0, s0, -0x10
   1629a: 63 5e 89 02  	bge	s2, s0, 0x162d6 <_vfiprintf_r+0x762>
   1629e: 1b 85 16 00  	addiw	a0, a3, 0x1
   162a2: c1 07        	addi	a5, a5, 0x10
   162a4: 23 30 67 01  	sd	s6, 0x0(a4)
   162a8: 23 34 27 01  	sd	s2, 0x8(a4)
   162ac: 3e e1        	sd	a5, 0x80(sp)
   162ae: aa dc        	sw	a0, 0x78(sp)
   162b0: e3 50 af fe  	bge	t5, a0, 0x16290 <_vfiprintf_r+0x71c>
   162b4: b9 c3        	beqz	a5, 0x162fa <_vfiprintf_r+0x786>
   162b6: 90 18        	addi	a2, sp, 0x70
   162b8: d2 85        	mv	a1, s4
   162ba: 56 85        	mv	a0, s5
   162bc: ef f0 6f fe  	jal	0x15aa2 <__sprint_r.part.0>
   162c0: e3 1a 05 a0  	bnez	a0, 0x15cd4 <_vfiprintf_r+0x160>
   162c4: e6 56        	lw	a3, 0x78(sp)
   162c6: 41 34        	addiw	s0, s0, -0x10
   162c8: 8a 67        	ld	a5, 0x80(sp)
   162ca: 4e 87        	mv	a4, s3
   162cc: 9b 85 16 00  	addiw	a1, a3, 0x1
   162d0: 1d 4f        	li	t5, 0x7
   162d2: e3 46 89 fc  	blt	s2, s0, 0x1629e <_vfiprintf_r+0x72a>
   162d6: 62 6e        	ld	t3, 0x18(sp)
   162d8: 82 78        	ld	a7, 0x20(sp)
   162da: 22 73        	ld	t1, 0x28(sp)
   162dc: a6 8e        	mv	t4, s1
   162de: a2 84        	mv	s1, s0
   162e0: 3a 84        	mv	s0, a4
   162e2: a6 97        	add	a5, a5, s1
   162e4: 23 30 d4 01  	sd	t4, 0x0(s0)
   162e8: 04 e4        	sd	s1, 0x8(s0)
   162ea: 3e e1        	sd	a5, 0x80(sp)
   162ec: ae dc        	sw	a1, 0x78(sp)
   162ee: 1d 47        	li	a4, 0x7
   162f0: 63 47 b7 20  	blt	a4, a1, 0x164fe <_vfiprintf_r+0x98a>
   162f4: 41 04        	addi	s0, s0, 0x10
   162f6: 85 25        	addiw	a1, a1, 0x1
   162f8: cd b4        	j	0x15dda <_vfiprintf_r+0x266>
   162fa: 85 45        	li	a1, 0x1
   162fc: 81 46        	li	a3, 0x0
   162fe: 4e 87        	mv	a4, s3
   16300: 61 bf        	j	0x16298 <_vfiprintf_r+0x724>
   16302: 90 18        	addi	a2, sp, 0x70
   16304: d2 85        	mv	a1, s4
   16306: 56 85        	mv	a0, s5
   16308: ef f0 af f9  	jal	0x15aa2 <__sprint_r.part.0>
   1630c: e3 00 05 b2  	beqz	a0, 0x15e2c <_vfiprintf_r+0x2b8>
   16310: d1 b2        	j	0x15cd4 <_vfiprintf_r+0x160>
   16312: 05 46        	li	a2, 0x1
   16314: 81 46        	li	a3, 0x0
   16316: ce 85        	mv	a1, s3
   16318: f9 b5        	j	0x161e6 <_vfiprintf_r+0x672>
   1631a: 85 cb        	beqz	a5, 0x1634a <_vfiprintf_r+0x7d6>
   1631c: 90 18        	addi	a2, sp, 0x70
   1631e: d2 85        	mv	a1, s4
   16320: 56 85        	mv	a0, s5
   16322: 9a e8        	sd	t1, 0x50(sp)
   16324: c6 e4        	sd	a7, 0x48(sp)
   16326: 72 f4        	sd	t3, 0x28(sp)
   16328: 16 f0        	sd	t0, 0x20(sp)
   1632a: 7e ec        	sd	t6, 0x18(sp)
   1632c: ef f0 6f f7  	jal	0x15aa2 <__sprint_r.part.0>
   16330: e3 12 05 9a  	bnez	a0, 0x15cd4 <_vfiprintf_r+0x160>
   16334: e6 56        	lw	a3, 0x78(sp)
   16336: 8a 67        	ld	a5, 0x80(sp)
   16338: 46 63        	ld	t1, 0x50(sp)
   1633a: a6 68        	ld	a7, 0x48(sp)
   1633c: 22 7e        	ld	t3, 0x28(sp)
   1633e: 82 72        	ld	t0, 0x20(sp)
   16340: e2 6f        	ld	t6, 0x18(sp)
   16342: 4e 84        	mv	s0, s3
   16344: 9b 85 16 00  	addiw	a1, a3, 0x1
   16348: 81 b4        	j	0x15d88 <_vfiprintf_r+0x214>
   1634a: 63 8f 0f 2c  	beqz	t6, 0x16628 <_vfiprintf_r+0xab4>
   1634e: bc 10        	addi	a5, sp, 0x68
   16350: be f9        	sd	a5, 0xf0(sp)
   16352: 89 47        	li	a5, 0x2
   16354: be fd        	sd	a5, 0xf8(sp)
   16356: 85 45        	li	a1, 0x1
   16358: 4e 84        	mv	s0, s3
   1635a: ae 86        	mv	a3, a1
   1635c: 41 04        	addi	s0, s0, 0x10
   1635e: 85 25        	addiw	a1, a1, 0x1
   16360: ad b4        	j	0x15dca <_vfiprintf_r+0x256>
   16362: be 8c        	mv	s9, a5
   16364: 89 47        	li	a5, 0x2
   16366: e3 8a 07 d6  	beqz	a5, 0x160da <_vfiprintf_r+0x566>
   1636a: c2 66        	ld	a3, 0x10(sp)
   1636c: 13 0e c1 0e  	addi	t3, sp, 0xec
   16370: f2 8d        	mv	s11, t3
   16372: 93 77 f7 00  	andi	a5, a4, 0xf
   16376: b6 97        	add	a5, a5, a3
   16378: 83 c7 07 00  	lbu	a5, 0x0(a5)
   1637c: 11 83        	srli	a4, a4, 0x4
   1637e: fd 1d        	addi	s11, s11, -0x1
   16380: 23 80 fd 00  	sb	a5, 0x0(s11)
   16384: 7d f7        	bnez	a4, 0x16372 <_vfiprintf_r+0x7fe>
   16386: 3b 0e be 41  	subw	t3, t3, s11
   1638a: 1b 83 04 00  	sext.w	t1, s1
   1638e: e3 d5 c4 b7  	bge	s1, t3, 0x15ef8 <_vfiprintf_r+0x384>
   16392: 1b 03 0e 00  	sext.w	t1, t3
   16396: 8d b6        	j	0x15ef8 <_vfiprintf_r+0x384>
   16398: 41 45        	li	a0, 0x10
   1639a: 63 56 e5 44  	bge	a0, a4, 0x167e6 <_vfiprintf_r+0xc72>
   1639e: f5 6e        	lui	t4, 0x1d
   163a0: 93 8e 0e 2c  	addi	t4, t4, 0x2c0
   163a4: a6 e8        	sd	s1, 0x50(sp)
   163a6: a2 85        	mv	a1, s0
   163a8: 41 4f        	li	t5, 0x10
   163aa: 9d 43        	li	t2, 0x7
   163ac: 7e ec        	sd	t6, 0x18(sp)
   163ae: 16 f0        	sd	t0, 0x20(sp)
   163b0: 72 f4        	sd	t3, 0x28(sp)
   163b2: c6 e4        	sd	a7, 0x48(sp)
   163b4: 9a ec        	sd	t1, 0x58(sp)
   163b6: 3a 84        	mv	s0, a4
   163b8: f6 84        	mv	s1, t4
   163ba: 11 a8        	j	0x163ce <_vfiprintf_r+0x85a>
   163bc: 1b 86 26 00  	addiw	a2, a3, 0x2
   163c0: c1 05        	addi	a1, a1, 0x10
   163c2: aa 86        	mv	a3, a0
   163c4: 41 34        	addiw	s0, s0, -0x10
   163c6: 63 50 8f 04  	bge	t5, s0, 0x16406 <_vfiprintf_r+0x892>
   163ca: 1b 86 16 00  	addiw	a2, a3, 0x1
   163ce: c1 07        	addi	a5, a5, 0x10
   163d0: 84 e1        	sd	s1, 0x0(a1)
   163d2: 23 b4 e5 01  	sd	t5, 0x8(a1)
   163d6: 3e e1        	sd	a5, 0x80(sp)
   163d8: 1b 05 06 00  	sext.w	a0, a2
   163dc: b2 dc        	sw	a2, 0x78(sp)
   163de: e3 df a3 fc  	bge	t2, a0, 0x163bc <_vfiprintf_r+0x848>
   163e2: a9 cb        	beqz	a5, 0x16434 <_vfiprintf_r+0x8c0>
   163e4: 90 18        	addi	a2, sp, 0x70
   163e6: d2 85        	mv	a1, s4
   163e8: 56 85        	mv	a0, s5
   163ea: ef f0 8f eb  	jal	0x15aa2 <__sprint_r.part.0>
   163ee: e3 13 05 8e  	bnez	a0, 0x15cd4 <_vfiprintf_r+0x160>
   163f2: e6 56        	lw	a3, 0x78(sp)
   163f4: 41 4f        	li	t5, 0x10
   163f6: 41 34        	addiw	s0, s0, -0x10
   163f8: 8a 67        	ld	a5, 0x80(sp)
   163fa: ce 85        	mv	a1, s3
   163fc: 1b 86 16 00  	addiw	a2, a3, 0x1
   16400: 9d 43        	li	t2, 0x7
   16402: e3 44 8f fc  	blt	t5, s0, 0x163ca <_vfiprintf_r+0x856>
   16406: a6 8e        	mv	t4, s1
   16408: e2 6f        	ld	t6, 0x18(sp)
   1640a: 82 72        	ld	t0, 0x20(sp)
   1640c: 22 7e        	ld	t3, 0x28(sp)
   1640e: a6 68        	ld	a7, 0x48(sp)
   16410: 66 63        	ld	t1, 0x58(sp)
   16412: c6 64        	ld	s1, 0x50(sp)
   16414: 22 87        	mv	a4, s0
   16416: 2e 84        	mv	s0, a1
   16418: ba 97        	add	a5, a5, a4
   1641a: 18 e4        	sd	a4, 0x8(s0)
   1641c: 23 30 d4 01  	sd	t4, 0x0(s0)
   16420: 3e e1        	sd	a5, 0x80(sp)
   16422: b2 dc        	sw	a2, 0x78(sp)
   16424: 1d 47        	li	a4, 0x7
   16426: 63 48 c7 10  	blt	a4, a2, 0x16536 <_vfiprintf_r+0x9c2>
   1642a: 41 04        	addi	s0, s0, 0x10
   1642c: 9b 05 16 00  	addiw	a1, a2, 0x1
   16430: b2 86        	mv	a3, a2
   16432: 15 ba        	j	0x15d66 <_vfiprintf_r+0x1f2>
   16434: 81 46        	li	a3, 0x0
   16436: 05 46        	li	a2, 0x1
   16438: ce 85        	mv	a1, s3
   1643a: 69 b7        	j	0x163c4 <_vfiprintf_r+0x850>
   1643c: 82 dc        	sw	zero, 0x78(sp)
   1643e: 13 f8 4c 00  	andi	a6, s9, 0x4
   16442: 63 07 08 0a  	beqz	a6, 0x164f0 <_vfiprintf_r+0x97c>
   16446: bb 84 68 40  	subw	s1, a7, t1
   1644a: 63 53 90 0a  	blez	s1, 0x164f0 <_vfiprintf_r+0x97c>
   1644e: 4e 84        	mv	s0, s3
   16450: 41 47        	li	a4, 0x10
   16452: e6 56        	lw	a3, 0x78(sp)
   16454: 63 52 97 3a  	bge	a4, s1, 0x167f8 <_vfiprintf_r+0xc84>
   16458: f5 6e        	lui	t4, 0x1d
   1645a: 93 8e 0e 2c  	addi	t4, t4, 0x2c0
   1645e: 22 86        	mv	a2, s0
   16460: c1 4d        	li	s11, 0x10
   16462: 26 84        	mv	s0, s1
   16464: 9d 4c        	li	s9, 0x7
   16466: 46 ec        	sd	a7, 0x18(sp)
   16468: 1a f0        	sd	t1, 0x20(sp)
   1646a: f6 84        	mv	s1, t4
   1646c: 01 a8        	j	0x1647c <_vfiprintf_r+0x908>
   1646e: 1b 87 26 00  	addiw	a4, a3, 0x2
   16472: 41 06        	addi	a2, a2, 0x10
   16474: ae 86        	mv	a3, a1
   16476: 41 34        	addiw	s0, s0, -0x10
   16478: 63 dc 8d 02  	bge	s11, s0, 0x164b0 <_vfiprintf_r+0x93c>
   1647c: 9b 85 16 00  	addiw	a1, a3, 0x1
   16480: c1 07        	addi	a5, a5, 0x10
   16482: 04 e2        	sd	s1, 0x0(a2)
   16484: 23 34 b6 01  	sd	s11, 0x8(a2)
   16488: 3e e1        	sd	a5, 0x80(sp)
   1648a: ae dc        	sw	a1, 0x78(sp)
   1648c: e3 d1 bc fe  	bge	s9, a1, 0x1646e <_vfiprintf_r+0x8fa>
   16490: a1 cf        	beqz	a5, 0x164e8 <_vfiprintf_r+0x974>
   16492: 90 18        	addi	a2, sp, 0x70
   16494: d2 85        	mv	a1, s4
   16496: 56 85        	mv	a0, s5
   16498: ef f0 af e0  	jal	0x15aa2 <__sprint_r.part.0>
   1649c: e3 1c 05 82  	bnez	a0, 0x15cd4 <_vfiprintf_r+0x160>
   164a0: e6 56        	lw	a3, 0x78(sp)
   164a2: 41 34        	addiw	s0, s0, -0x10
   164a4: 8a 67        	ld	a5, 0x80(sp)
   164a6: 4e 86        	mv	a2, s3
   164a8: 1b 87 16 00  	addiw	a4, a3, 0x1
   164ac: e3 c8 8d fc  	blt	s11, s0, 0x1647c <_vfiprintf_r+0x908>
   164b0: e2 68        	ld	a7, 0x18(sp)
   164b2: 02 73        	ld	t1, 0x20(sp)
   164b4: a6 8e        	mv	t4, s1
   164b6: a2 84        	mv	s1, s0
   164b8: 32 84        	mv	s0, a2
   164ba: a6 97        	add	a5, a5, s1
   164bc: 23 30 d4 01  	sd	t4, 0x0(s0)
   164c0: 04 e4        	sd	s1, 0x8(s0)
   164c2: 3e e1        	sd	a5, 0x80(sp)
   164c4: ba dc        	sw	a4, 0x78(sp)
   164c6: 9d 46        	li	a3, 0x7
   164c8: e3 da e6 94  	bge	a3, a4, 0x15e1c <_vfiprintf_r+0x2a8>
   164cc: 95 c3        	beqz	a5, 0x164f0 <_vfiprintf_r+0x97c>
   164ce: 90 18        	addi	a2, sp, 0x70
   164d0: d2 85        	mv	a1, s4
   164d2: 56 85        	mv	a0, s5
   164d4: 1a f0        	sd	t1, 0x20(sp)
   164d6: 46 ec        	sd	a7, 0x18(sp)
   164d8: ef f0 af dc  	jal	0x15aa2 <__sprint_r.part.0>
   164dc: 63 1c 05 fe  	bnez	a0, 0x15cd4 <_vfiprintf_r+0x160>
   164e0: 8a 67        	ld	a5, 0x80(sp)
   164e2: 02 73        	ld	t1, 0x20(sp)
   164e4: e2 68        	ld	a7, 0x18(sp)
   164e6: 1d ba        	j	0x15e1c <_vfiprintf_r+0x2a8>
   164e8: 05 47        	li	a4, 0x1
   164ea: 81 46        	li	a3, 0x0
   164ec: 4e 86        	mv	a2, s3
   164ee: 61 b7        	j	0x16476 <_vfiprintf_r+0x902>
   164f0: c6 87        	mv	a5, a7
   164f2: 63 d3 68 00  	bge	a7, t1, 0x164f8 <_vfiprintf_r+0x984>
   164f6: 9a 87        	mv	a5, t1
   164f8: 3b 8c 87 01  	addw	s8, a5, s8
   164fc: 05 ba        	j	0x15e2c <_vfiprintf_r+0x2b8>
   164fe: e3 83 07 ca  	beqz	a5, 0x161a4 <_vfiprintf_r+0x630>
   16502: 90 18        	addi	a2, sp, 0x70
   16504: d2 85        	mv	a1, s4
   16506: 56 85        	mv	a0, s5
   16508: 1a f4        	sd	t1, 0x28(sp)
   1650a: 46 f0        	sd	a7, 0x20(sp)
   1650c: 72 ec        	sd	t3, 0x18(sp)
   1650e: ef f0 4f d9  	jal	0x15aa2 <__sprint_r.part.0>
   16512: 63 11 05 fc  	bnez	a0, 0x15cd4 <_vfiprintf_r+0x160>
   16516: e6 55        	lw	a1, 0x78(sp)
   16518: 8a 67        	ld	a5, 0x80(sp)
   1651a: 22 73        	ld	t1, 0x28(sp)
   1651c: 82 78        	ld	a7, 0x20(sp)
   1651e: 62 6e        	ld	t3, 0x18(sp)
   16520: 4e 84        	mv	s0, s3
   16522: 85 25        	addiw	a1, a1, 0x1
   16524: 5d b8        	j	0x15dda <_vfiprintf_r+0x266>
   16526: 82 dc        	sw	zero, 0x78(sp)
   16528: 4e 84        	mv	s0, s3
   1652a: 6f f0 af f2  	j	0x15c54 <_vfiprintf_r+0xe0>
   1652e: 85 45        	li	a1, 0x1
   16530: 81 46        	li	a3, 0x0
   16532: 4e 84        	mv	s0, s3
   16534: 59 b8        	j	0x15dca <_vfiprintf_r+0x256>
   16536: 63 85 07 18  	beqz	a5, 0x166c0 <_vfiprintf_r+0xb4c>
   1653a: 90 18        	addi	a2, sp, 0x70
   1653c: d2 85        	mv	a1, s4
   1653e: 56 85        	mv	a0, s5
   16540: 9a e8        	sd	t1, 0x50(sp)
   16542: c6 e4        	sd	a7, 0x48(sp)
   16544: 72 f4        	sd	t3, 0x28(sp)
   16546: 16 f0        	sd	t0, 0x20(sp)
   16548: 7e ec        	sd	t6, 0x18(sp)
   1654a: ef f0 8f d5  	jal	0x15aa2 <__sprint_r.part.0>
   1654e: 63 13 05 f8  	bnez	a0, 0x15cd4 <_vfiprintf_r+0x160>
   16552: e6 56        	lw	a3, 0x78(sp)
   16554: 8a 67        	ld	a5, 0x80(sp)
   16556: 46 63        	ld	t1, 0x50(sp)
   16558: a6 68        	ld	a7, 0x48(sp)
   1655a: 22 7e        	ld	t3, 0x28(sp)
   1655c: 82 72        	ld	t0, 0x20(sp)
   1655e: e2 6f        	ld	t6, 0x18(sp)
   16560: 4e 84        	mv	s0, s3
   16562: 9b 85 16 00  	addiw	a1, a3, 0x1
   16566: 6f f0 1f 80  	j	0x15d66 <_vfiprintf_r+0x1f2>
   1656a: 01 43        	li	t1, 0x0
   1656c: 01 4e        	li	t3, 0x0
   1656e: 93 0d c1 0e  	addi	s11, sp, 0xec
   16572: 59 b2        	j	0x15ef8 <_vfiprintf_r+0x384>
   16574: 13 0e c1 0e  	addi	t3, sp, 0xec
   16578: 62 78        	ld	a6, 0x38(sp)
   1657a: 13 ff 0c 40  	andi	t5, s9, 0x400
   1657e: 01 46        	li	a2, 0x0
   16580: 72 87        	mv	a4, t3
   16582: a9 46        	li	a3, 0xa
   16584: 25 43        	li	t1, 0x9
   16586: 93 0f f0 0f  	li	t6, 0xff
   1658a: 39 a0        	j	0x16598 <_vfiprintf_r+0xa24>
   1658c: b3 d7 db 02  	divu	a5, s7, a3
   16590: 63 77 73 03  	bgeu	t1, s7, 0x165be <_vfiprintf_r+0xa4a>
   16594: be 8b        	mv	s7, a5
   16596: 6e 87        	mv	a4, s11
   16598: 93 0d f7 ff  	addi	s11, a4, -0x1
   1659c: 05 26        	addiw	a2, a2, 0x1
   1659e: b3 f7 db 02  	remu	a5, s7, a3
   165a2: 9b 87 07 03  	addiw	a5, a5, 0x30
   165a6: a3 0f f7 fe  	sb	a5, -0x1(a4)
   165aa: e3 01 0f fe  	beqz	t5, 0x1658c <_vfiprintf_r+0xa18>
   165ae: 83 47 08 00  	lbu	a5, 0x0(a6)
   165b2: e3 9d c7 fc  	bne	a5, a2, 0x1658c <_vfiprintf_r+0xa18>
   165b6: e3 8b f7 fd  	beq	a5, t6, 0x1658c <_vfiprintf_r+0xa18>
   165ba: 63 6f 73 11  	bltu	t1, s7, 0x166d8 <_vfiprintf_r+0xb64>
   165be: 42 fc        	sd	a6, 0x38(sp)
   165c0: 3b 0e be 41  	subw	t3, t3, s11
   165c4: 1b 83 04 00  	sext.w	t1, s1
   165c8: 63 d4 c4 01  	bge	s1, t3, 0x165d0 <_vfiprintf_r+0xa5c>
   165cc: 1b 03 0e 00  	sext.w	t1, t3
   165d0: f6 8b        	mv	s7, t4
   165d2: 1d b2        	j	0x15ef8 <_vfiprintf_r+0x384>
   165d4: 01 43        	li	t1, 0x0
   165d6: 93 0d c1 0e  	addi	s11, sp, 0xec
   165da: 39 ba        	j	0x15ef8 <_vfiprintf_r+0x384>
   165dc: 41 04        	addi	s0, s0, 0x10
   165de: 9b 05 16 00  	addiw	a1, a2, 0x1
   165e2: b2 86        	mv	a3, a2
   165e4: 6f f0 ef fe  	j	0x15dd2 <_vfiprintf_r+0x25e>
   165e8: 93 77 0e 04  	andi	a5, t3, 0x40
   165ec: 83 ab 0b 00  	lw	s7, 0x0(s7)
   165f0: 63 8e 07 18  	beqz	a5, 0x1678c <_vfiprintf_r+0xc18>
   165f4: c2 1b        	slli	s7, s7, 0x30
   165f6: 93 db 0b 03  	srli	s7, s7, 0x30
   165fa: 5d bc        	j	0x160b0 <_vfiprintf_r+0x53c>
   165fc: 13 f6 07 04  	andi	a2, a5, 0x40
   16600: 03 a7 0b 00  	lw	a4, 0x0(s7)
   16604: 63 04 06 16  	beqz	a2, 0x1676c <_vfiprintf_r+0xbf8>
   16608: 42 17        	slli	a4, a4, 0x30
   1660a: 41 93        	srli	a4, a4, 0x30
   1660c: 1d bc        	j	0x16042 <_vfiprintf_r+0x4ce>
   1660e: 83 47 0d 00  	lbu	a5, 0x0(s10)
   16612: 63 01 07 e6  	beqz	a4, 0x15c74 <_vfiprintf_r+0x100>
   16616: 03 47 07 00  	lbu	a4, 0x0(a4)
   1661a: 63 0d 07 e4  	beqz	a4, 0x15c74 <_vfiprintf_r+0x100>
   1661e: 93 ec 0c 40  	ori	s9, s9, 0x400
   16622: 81 2c        	sext.w	s9, s9
   16624: 6f f0 0f e5  	j	0x15c74 <_vfiprintf_r+0x100>
   16628: 81 46        	li	a3, 0x0
   1662a: 85 45        	li	a1, 0x1
   1662c: 4e 84        	mv	s0, s3
   1662e: 6f f0 cf f9  	j	0x15dca <_vfiprintf_r+0x256>
   16632: 1b 03 0e 00  	sext.w	t1, t3
   16636: b6 8d        	mv	s11, a3
   16638: c1 b0        	j	0x15ef8 <_vfiprintf_r+0x384>
   1663a: fd 54        	li	s1, -0x1
   1663c: 36 8d        	mv	s10, a3
   1663e: 6f f0 af e3  	j	0x15c78 <_vfiprintf_r+0x104>
   16642: 75 67        	lui	a4, 0x1d
   16644: 13 07 87 c8  	addi	a4, a4, -0x378
   16648: 3a e8        	sd	a4, 0x10(sp)
   1664a: 13 f7 0c 02  	andi	a4, s9, 0x20
   1664e: 93 86 8b 00  	addi	a3, s7, 0x8
   16652: 29 ef        	bnez	a4, 0x166ac <_vfiprintf_r+0xb38>
   16654: 13 f7 0c 01  	andi	a4, s9, 0x10
   16658: 31 eb        	bnez	a4, 0x166ac <_vfiprintf_r+0xb38>
   1665a: 13 f6 0c 04  	andi	a2, s9, 0x40
   1665e: 03 a7 0b 00  	lw	a4, 0x0(s7)
   16662: 63 0f 06 0e  	beqz	a2, 0x16760 <_vfiprintf_r+0xbec>
   16666: 42 17        	slli	a4, a4, 0x30
   16668: 41 93        	srli	a4, a4, 0x30
   1666a: 13 f6 1c 00  	andi	a2, s9, 0x1
   1666e: 01 ce        	beqz	a2, 0x16686 <_vfiprintf_r+0xb12>
   16670: 19 cb        	beqz	a4, 0x16686 <_vfiprintf_r+0xb12>
   16672: 13 e8 2c 00  	ori	a6, s9, 0x2
   16676: 13 06 00 03  	li	a2, 0x30
   1667a: 23 04 c1 06  	sb	a2, 0x68(sp)
   1667e: a3 04 f1 06  	sb	a5, 0x69(sp)
   16682: 9b 0c 08 00  	sext.w	s9, a6
   16686: 13 f8 fc bf  	andi	a6, s9, -0x401
   1668a: 9b 0c 08 00  	sext.w	s9, a6
   1668e: b6 8b        	mv	s7, a3
   16690: e9 b4        	j	0x1615a <_vfiprintf_r+0x5e6>
   16692: 66 8e        	mv	t3, s9
   16694: 19 b4        	j	0x1609a <_vfiprintf_r+0x526>
   16696: e6 87        	mv	a5, s9
   16698: 51 ba        	j	0x1602c <_vfiprintf_r+0x4b8>
   1669a: 75 67        	lui	a4, 0x1d
   1669c: 13 07 07 c7  	addi	a4, a4, -0x390
   166a0: 3a e8        	sd	a4, 0x10(sp)
   166a2: 13 f7 0c 02  	andi	a4, s9, 0x20
   166a6: 93 86 8b 00  	addi	a3, s7, 0x8
   166aa: 4d d7        	beqz	a4, 0x16654 <_vfiprintf_r+0xae0>
   166ac: 03 b7 0b 00  	ld	a4, 0x0(s7)
   166b0: 6d bf        	j	0x1666a <_vfiprintf_r+0xaf6>
   166b2: 6e 85        	mv	a0, s11
   166b4: ef c0 7f d6  	jal	0x1341a <strlen>
   166b8: e2 68        	ld	a7, 0x18(sp)
   166ba: 1b 0e 05 00  	sext.w	t3, a0
   166be: ad b0        	j	0x15f28 <_vfiprintf_r+0x3b4>
   166c0: 03 47 71 06  	lbu	a4, 0x67(sp)
   166c4: 7d c3        	beqz	a4, 0x167aa <_vfiprintf_r+0xc36>
   166c6: 93 07 71 06  	addi	a5, sp, 0x67
   166ca: be f9        	sd	a5, 0xf0(sp)
   166cc: 85 47        	li	a5, 0x1
   166ce: be fd        	sd	a5, 0xf8(sp)
   166d0: 85 45        	li	a1, 0x1
   166d2: 4e 84        	mv	s0, s3
   166d4: 6f f0 ef ea  	j	0x15d82 <_vfiprintf_r+0x20e>
   166d8: c2 77        	ld	a5, 0x30(sp)
   166da: 86 65        	ld	a1, 0x40(sp)
   166dc: f2 e4        	sd	t3, 0x48(sp)
   166de: b3 8d fd 40  	sub	s11, s11, a5
   166e2: 3e 86        	mv	a2, a5
   166e4: 6e 85        	mv	a0, s11
   166e6: 76 fc        	sd	t4, 0x38(sp)
   166e8: 7a f4        	sd	t5, 0x28(sp)
   166ea: 46 f0        	sd	a7, 0x20(sp)
   166ec: 42 ec        	sd	a6, 0x18(sp)
   166ee: ef 00 10 2d  	jal	0x171be <strncpy>
   166f2: 62 68        	ld	a6, 0x18(sp)
   166f4: a9 47        	li	a5, 0xa
   166f6: b3 d7 fb 02  	divu	a5, s7, a5
   166fa: 03 47 18 00  	lbu	a4, 0x1(a6)
   166fe: 82 78        	ld	a7, 0x20(sp)
   16700: 22 7f        	ld	t5, 0x28(sp)
   16702: 33 37 e0 00  	snez	a4, a4
   16706: e2 7e        	ld	t4, 0x38(sp)
   16708: 26 6e        	ld	t3, 0x48(sp)
   1670a: 3a 98        	add	a6, a6, a4
   1670c: 01 46        	li	a2, 0x0
   1670e: a9 46        	li	a3, 0xa
   16710: 25 43        	li	t1, 0x9
   16712: 93 0f f0 0f  	li	t6, 0xff
   16716: bd bd        	j	0x16594 <_vfiprintf_r+0xa20>
   16718: be 8c        	mv	s9, a5
   1671a: 81 47        	li	a5, 0x0
   1671c: e3 8f 07 9a  	beqz	a5, 0x160da <_vfiprintf_r+0x566>
   16720: a9 b1        	j	0x1636a <_vfiprintf_r+0x7f6>
   16722: ef c0 af ff  	jal	0x12f1c <__sinit>
   16726: 6f f0 cf c6  	j	0x15b92 <_vfiprintf_r+0x1e>
   1672a: 93 ec 0c 20  	ori	s9, s9, 0x200
   1672e: 83 47 1d 00  	lbu	a5, 0x1(s10)
   16732: 81 2c        	sext.w	s9, s9
   16734: 05 0d        	addi	s10, s10, 0x1
   16736: 6f f0 ef d3  	j	0x15c74 <_vfiprintf_r+0x100>
   1673a: 93 ec 0c 02  	ori	s9, s9, 0x20
   1673e: 83 47 1d 00  	lbu	a5, 0x1(s10)
   16742: 81 2c        	sext.w	s9, s9
   16744: 05 0d        	addi	s10, s10, 0x1
   16746: 6f f0 ef d2  	j	0x15c74 <_vfiprintf_r+0x100>
   1674a: 99 47        	li	a5, 0x6
   1674c: 1b 8e 04 00  	sext.w	t3, s1
   16750: 63 eb 97 04  	bltu	a5, s1, 0x167a6 <_vfiprintf_r+0xc32>
   16754: f5 6d        	lui	s11, 0x1d
   16756: 72 83        	mv	t1, t3
   16758: 93 8d 0d ca  	addi	s11, s11, -0x360
   1675c: 6f f0 cf de  	j	0x15d48 <_vfiprintf_r+0x1d4>
   16760: 13 f6 0c 20  	andi	a2, s9, 0x200
   16764: 3d c6        	beqz	a2, 0x167d2 <_vfiprintf_r+0xc5e>
   16766: 13 77 f7 0f  	andi	a4, a4, 0xff
   1676a: 01 b7        	j	0x1666a <_vfiprintf_r+0xaf6>
   1676c: 13 f6 07 20  	andi	a2, a5, 0x200
   16770: 31 ce        	beqz	a2, 0x167cc <_vfiprintf_r+0xc58>
   16772: 13 77 f7 0f  	andi	a4, a4, 0xff
   16776: f1 b0        	j	0x16042 <_vfiprintf_r+0x4ce>
   16778: 93 f7 0c 20  	andi	a5, s9, 0x200
   1677c: a9 c7        	beqz	a5, 0x167c6 <_vfiprintf_r+0xc52>
   1677e: 9b 9b 8b 01  	slliw	s7, s7, 0x18
   16782: 9b db 8b 41  	sraiw	s7, s7, 0x18
   16786: de 87        	mv	a5, s7
   16788: 6f f0 ef ec  	j	0x15e56 <_vfiprintf_r+0x2e2>
   1678c: 93 77 0e 20  	andi	a5, t3, 0x200
   16790: 9d c7        	beqz	a5, 0x167be <_vfiprintf_r+0xc4a>
   16792: 93 fb fb 0f  	andi	s7, s7, 0xff
   16796: 29 ba        	j	0x160b0 <_vfiprintf_r+0x53c>
   16798: 01 47        	li	a4, 0x0
   1679a: c1 be        	j	0x1636a <_vfiprintf_r+0x7f6>
   1679c: 85 45        	li	a1, 0x1
   1679e: 81 46        	li	a3, 0x0
   167a0: 4e 84        	mv	s0, s3
   167a2: 6f f0 0f e3  	j	0x15dd2 <_vfiprintf_r+0x25e>
   167a6: 19 4e        	li	t3, 0x6
   167a8: 75 b7        	j	0x16754 <_vfiprintf_r+0xbe0>
   167aa: 81 46        	li	a3, 0x0
   167ac: 85 45        	li	a1, 0x1
   167ae: 4e 84        	mv	s0, s3
   167b0: 6f f0 8f dd  	j	0x15d88 <_vfiprintf_r+0x214>
   167b4: 23 10 87 01  	sh	s8, 0x0(a4)
   167b8: a1 0b        	addi	s7, s7, 0x8
   167ba: 6f f0 af c4  	j	0x15c04 <_vfiprintf_r+0x90>
   167be: 82 1b        	slli	s7, s7, 0x20
   167c0: 93 db 0b 02  	srli	s7, s7, 0x20
   167c4: f5 b0        	j	0x160b0 <_vfiprintf_r+0x53c>
   167c6: de 87        	mv	a5, s7
   167c8: 6f f0 ef e8  	j	0x15e56 <_vfiprintf_r+0x2e2>
   167cc: 02 17        	slli	a4, a4, 0x20
   167ce: 01 93        	srli	a4, a4, 0x20
   167d0: 8d b8        	j	0x16042 <_vfiprintf_r+0x4ce>
   167d2: 02 17        	slli	a4, a4, 0x20
   167d4: 01 93        	srli	a4, a4, 0x20
   167d6: 51 bd        	j	0x1666a <_vfiprintf_r+0xaf6>
   167d8: 90 18        	addi	a2, sp, 0x70
   167da: d2 85        	mv	a1, s4
   167dc: 56 85        	mv	a0, s5
   167de: ef f0 4f ac  	jal	0x15aa2 <__sprint_r.part.0>
   167e2: 6f f0 2f cf  	j	0x15cd4 <_vfiprintf_r+0x160>
   167e6: f5 6e        	lui	t4, 0x1d
   167e8: 93 8e 0e 2c  	addi	t4, t4, 0x2c0
   167ec: 35 b1        	j	0x16418 <_vfiprintf_r+0x8a4>
   167ee: f6 8b        	mv	s7, t4
   167f0: 93 07 00 03  	li	a5, 0x30
   167f4: 6f f0 0f ef  	j	0x15ee4 <_vfiprintf_r+0x370>
   167f8: f5 6e        	lui	t4, 0x1d
   167fa: 1b 87 16 00  	addiw	a4, a3, 0x1
   167fe: 93 8e 0e 2c  	addi	t4, t4, 0x2c0
   16802: 65 b9        	j	0x164ba <_vfiprintf_r+0x946>
   16804: f5 6e        	lui	t4, 0x1d
   16806: 2e 86        	mv	a2, a1
   16808: 93 8e 0e 2b  	addi	t4, t4, 0x2b0
   1680c: 25 b4        	j	0x16234 <_vfiprintf_r+0x6c0>
   1680e: 7d 5c        	li	s8, -0x1
   16810: 6f f0 ef cd  	j	0x15cee <_vfiprintf_r+0x17a>
   16814: 23 20 87 01  	sw	s8, 0x0(a4)
   16818: a1 0b        	addi	s7, s7, 0x8
   1681a: 6f f0 af be  	j	0x15c04 <_vfiprintf_r+0x90>
   1681e: 83 a7 0b 00  	lw	a5, 0x0(s7)
   16822: a1 0b        	addi	s7, s7, 0x8
   16824: 9b 84 07 00  	sext.w	s1, a5
   16828: 63 d3 07 00  	bgez	a5, 0x1682e <_vfiprintf_r+0xcba>
   1682c: fd 54        	li	s1, -0x1
   1682e: 83 47 1d 00  	lbu	a5, 0x1(s10)
   16832: 36 8d        	mv	s10, a3
   16834: 6f f0 0f c4  	j	0x15c74 <_vfiprintf_r+0x100>

0000000000016838 <vfiprintf>:
   16838: aa 87        	mv	a5, a0
   1683a: 03 b5 01 22  	ld	a0, 0x220(gp)
   1683e: b2 86        	mv	a3, a2
   16840: 2e 86        	mv	a2, a1
   16842: be 85        	mv	a1, a5
   16844: 6f f0 0f b3  	j	0x15b74 <_vfiprintf_r>

0000000000016848 <__sbprintf>:
   16848: 13 01 01 b3  	addi	sp, sp, -0x4d0
   1684c: 03 d7 25 01  	lhu	a4, 0x12(a1)
   16850: 83 d7 05 01  	lhu	a5, 0x10(a1)
   16854: 23 30 81 4c  	sd	s0, 0x4c0(sp)
   16858: 2e 84        	mv	s0, a1
   1685a: c1 65        	lui	a1, 0x10
   1685c: f5 35        	addiw	a1, a1, -0x3
   1685e: 03 2e c4 0a  	lw	t3, 0xac(s0)
   16862: 03 33 04 03  	ld	t1, 0x30(s0)
   16866: 83 38 04 04  	ld	a7, 0x40(s0)
   1686a: 1b 17 07 01  	slliw	a4, a4, 0x10
   1686e: ed 8f        	and	a5, a5, a1
   16870: d9 8f        	or	a5, a5, a4
   16872: 13 08 00 40  	li	a6, 0x400
   16876: 3e c8        	sw	a5, 0x10(sp)
   16878: 8a 85        	mv	a1, sp
   1687a: 1c 19        	addi	a5, sp, 0xb0
   1687c: 23 3c 91 4a  	sd	s1, 0x4b8(sp)
   16880: 23 38 21 4b  	sd	s2, 0x4b0(sp)
   16884: 23 34 11 4c  	sd	ra, 0x4c8(sp)
   16888: 2a 89        	mv	s2, a0
   1688a: 72 d7        	sw	t3, 0xac(sp)
   1688c: 1a f8        	sd	t1, 0x30(sp)
   1688e: c6 e0        	sd	a7, 0x40(sp)
   16890: 3e e0        	sd	a5, 0x0(sp)
   16892: 3e ec        	sd	a5, 0x18(sp)
   16894: 42 c6        	sw	a6, 0xc(sp)
   16896: 42 d0        	sw	a6, 0x20(sp)
   16898: 02 d4        	sw	zero, 0x28(sp)
   1689a: ef f0 af ad  	jal	0x15b74 <_vfiprintf_r>
   1689e: aa 84        	mv	s1, a0
   168a0: 63 59 05 02  	bgez	a0, 0x168d2 <__sbprintf+0x8a>
   168a4: 83 57 01 01  	lhu	a5, 0x10(sp)
   168a8: 93 f7 07 04  	andi	a5, a5, 0x40
   168ac: 99 c7        	beqz	a5, 0x168ba <__sbprintf+0x72>
   168ae: 83 57 04 01  	lhu	a5, 0x10(s0)
   168b2: 93 e7 07 04  	ori	a5, a5, 0x40
   168b6: 23 18 f4 00  	sh	a5, 0x10(s0)
   168ba: 83 30 81 4c  	ld	ra, 0x4c8(sp)
   168be: 03 34 01 4c  	ld	s0, 0x4c0(sp)
   168c2: 03 39 01 4b  	ld	s2, 0x4b0(sp)
   168c6: 26 85        	mv	a0, s1
   168c8: 83 34 81 4b  	ld	s1, 0x4b8(sp)
   168cc: 13 01 01 4d  	addi	sp, sp, 0x4d0
   168d0: 82 80        	ret
   168d2: 8a 85        	mv	a1, sp
   168d4: 4a 85        	mv	a0, s2
   168d6: ef 00 40 25  	jal	0x16b2a <_fflush_r>
   168da: 69 d5        	beqz	a0, 0x168a4 <__sbprintf+0x5c>
   168dc: fd 54        	li	s1, -0x1
   168de: d9 b7        	j	0x168a4 <__sbprintf+0x5c>

00000000000168e0 <_fclose_r>:
   168e0: 01 11        	addi	sp, sp, -0x20
   168e2: 06 ec        	sd	ra, 0x18(sp)
   168e4: 4a e0        	sd	s2, 0x0(sp)
   168e6: 89 cd        	beqz	a1, 0x16900 <_fclose_r+0x20>
   168e8: 22 e8        	sd	s0, 0x10(sp)
   168ea: 26 e4        	sd	s1, 0x8(sp)
   168ec: 2e 84        	mv	s0, a1
   168ee: aa 84        	mv	s1, a0
   168f0: 19 c1        	beqz	a0, 0x168f6 <_fclose_r+0x16>
   168f2: 3c 65        	ld	a5, 0x48(a0)
   168f4: d9 c7        	beqz	a5, 0x16982 <_fclose_r+0xa2>
   168f6: 83 17 04 01  	lh	a5, 0x10(s0)
   168fa: 89 eb        	bnez	a5, 0x1690c <_fclose_r+0x2c>
   168fc: 42 64        	ld	s0, 0x10(sp)
   168fe: a2 64        	ld	s1, 0x8(sp)
   16900: e2 60        	ld	ra, 0x18(sp)
   16902: 01 49        	li	s2, 0x0
   16904: 4a 85        	mv	a0, s2
   16906: 02 69        	ld	s2, 0x0(sp)
   16908: 05 61        	addi	sp, sp, 0x20
   1690a: 82 80        	ret
   1690c: a2 85        	mv	a1, s0
   1690e: 26 85        	mv	a0, s1
   16910: ef 00 20 08  	jal	0x16992 <__sflush_r>
   16914: 3c 68        	ld	a5, 0x50(s0)
   16916: 2a 89        	mv	s2, a0
   16918: 91 c7        	beqz	a5, 0x16924 <_fclose_r+0x44>
   1691a: 0c 78        	ld	a1, 0x30(s0)
   1691c: 26 85        	mv	a0, s1
   1691e: 82 97        	jalr	a5
   16920: 63 46 05 04  	bltz	a0, 0x1696c <_fclose_r+0x8c>
   16924: 83 57 04 01  	lhu	a5, 0x10(s0)
   16928: 93 f7 07 08  	andi	a5, a5, 0x80
   1692c: b1 e7        	bnez	a5, 0x16978 <_fclose_r+0x98>
   1692e: 2c 6c        	ld	a1, 0x58(s0)
   16930: 91 c9        	beqz	a1, 0x16944 <_fclose_r+0x64>
   16932: 93 07 44 07  	addi	a5, s0, 0x74
   16936: 63 85 f5 00  	beq	a1, a5, 0x16940 <_fclose_r+0x60>
   1693a: 26 85        	mv	a0, s1
   1693c: ef c0 ff d2  	jal	0x1366a <_free_r>
   16940: 23 3c 04 04  	sd	zero, 0x58(s0)
   16944: 2c 7c        	ld	a1, 0x78(s0)
   16946: 91 c5        	beqz	a1, 0x16952 <_fclose_r+0x72>
   16948: 26 85        	mv	a0, s1
   1694a: ef c0 1f d2  	jal	0x1366a <_free_r>
   1694e: 23 3c 04 06  	sd	zero, 0x78(s0)
   16952: ef c0 2f de  	jal	0x12f34 <__sfp_lock_acquire>
   16956: 23 18 04 00  	sh	zero, 0x10(s0)
   1695a: ef c0 cf dd  	jal	0x12f36 <__sfp_lock_release>
   1695e: e2 60        	ld	ra, 0x18(sp)
   16960: 42 64        	ld	s0, 0x10(sp)
   16962: a2 64        	ld	s1, 0x8(sp)
   16964: 4a 85        	mv	a0, s2
   16966: 02 69        	ld	s2, 0x0(sp)
   16968: 05 61        	addi	sp, sp, 0x20
   1696a: 82 80        	ret
   1696c: 83 57 04 01  	lhu	a5, 0x10(s0)
   16970: 7d 59        	li	s2, -0x1
   16972: 93 f7 07 08  	andi	a5, a5, 0x80
   16976: c5 df        	beqz	a5, 0x1692e <_fclose_r+0x4e>
   16978: 0c 6c        	ld	a1, 0x18(s0)
   1697a: 26 85        	mv	a0, s1
   1697c: ef c0 ff ce  	jal	0x1366a <_free_r>
   16980: 7d b7        	j	0x1692e <_fclose_r+0x4e>
   16982: ef c0 af d9  	jal	0x12f1c <__sinit>
   16986: 85 bf        	j	0x168f6 <_fclose_r+0x16>

0000000000016988 <fclose>:
   16988: aa 85        	mv	a1, a0
   1698a: 03 b5 01 22  	ld	a0, 0x220(gp)
   1698e: 6f f0 3f f5  	j	0x168e0 <_fclose_r>

0000000000016992 <__sflush_r>:
   16992: 03 97 05 01  	lh	a4, 0x10(a1)
   16996: 79 71        	addi	sp, sp, -0x30
   16998: 22 f0        	sd	s0, 0x20(sp)
   1699a: 4e e4        	sd	s3, 0x8(sp)
   1699c: 06 f4        	sd	ra, 0x28(sp)
   1699e: 93 77 87 00  	andi	a5, a4, 0x8
   169a2: 2e 84        	mv	s0, a1
   169a4: aa 89        	mv	s3, a0
   169a6: f1 e7        	bnez	a5, 0x16a72 <__sflush_r+0xe0>
   169a8: 85 67        	lui	a5, 0x1
   169aa: 93 87 07 80  	addi	a5, a5, -0x800
   169ae: 94 45        	lw	a3, 0x8(a1)
   169b0: d9 8f        	or	a5, a5, a4
   169b2: 23 98 f5 00  	sh	a5, 0x10(a1)
   169b6: 63 57 d0 10  	blez	a3, 0x16ac4 <__sflush_r+0x132>
   169ba: 03 38 84 04  	ld	a6, 0x48(s0)
   169be: 63 04 08 0a  	beqz	a6, 0x16a66 <__sflush_r+0xd4>
   169c2: 26 ec        	sd	s1, 0x18(sp)
   169c4: 93 16 37 03  	slli	a3, a4, 0x33
   169c8: 83 a4 09 00  	lw	s1, 0x0(s3)
   169cc: 23 a0 09 00  	sw	zero, 0x0(s3)
   169d0: 0c 78        	ld	a1, 0x30(s0)
   169d2: 63 c0 06 10  	bltz	a3, 0x16ad2 <__sflush_r+0x140>
   169d6: 01 46        	li	a2, 0x0
   169d8: 85 46        	li	a3, 0x1
   169da: 4e 85        	mv	a0, s3
   169dc: 02 98        	jalr	a6
   169de: fd 57        	li	a5, -0x1
   169e0: 2a 86        	mv	a2, a0
   169e2: 63 01 f5 12  	beq	a0, a5, 0x16b04 <__sflush_r+0x172>
   169e6: 83 17 04 01  	lh	a5, 0x10(s0)
   169ea: 03 38 84 04  	ld	a6, 0x48(s0)
   169ee: 0c 78        	ld	a1, 0x30(s0)
   169f0: 91 8b        	andi	a5, a5, 0x4
   169f2: 99 c7        	beqz	a5, 0x16a00 <__sflush_r+0x6e>
   169f4: 18 44        	lw	a4, 0x8(s0)
   169f6: 3c 6c        	ld	a5, 0x58(s0)
   169f8: 19 8e        	sub	a2, a2, a4
   169fa: 99 c3        	beqz	a5, 0x16a00 <__sflush_r+0x6e>
   169fc: 3c 58        	lw	a5, 0x70(s0)
   169fe: 1d 8e        	sub	a2, a2, a5
   16a00: 81 46        	li	a3, 0x0
   16a02: 4e 85        	mv	a0, s3
   16a04: 02 98        	jalr	a6
   16a06: fd 57        	li	a5, -0x1
   16a08: 63 17 f5 0c  	bne	a0, a5, 0x16ad6 <__sflush_r+0x144>
   16a0c: 83 a6 09 00  	lw	a3, 0x0(s3)
   16a10: f5 47        	li	a5, 0x1d
   16a12: 03 17 04 01  	lh	a4, 0x10(s0)
   16a16: 1b 86 06 00  	sext.w	a2, a3
   16a1a: 63 e1 d7 10  	bltu	a5, a3, 0x16b1c <__sflush_r+0x18a>
   16a1e: b7 07 40 20  	lui	a5, 0x20400
   16a22: 85 07        	addi	a5, a5, 0x1
   16a24: b3 d7 c7 00  	srl	a5, a5, a2
   16a28: 85 8b        	andi	a5, a5, 0x1
   16a2a: ed cb        	beqz	a5, 0x16b1c <__sflush_r+0x18a>
   16a2c: 10 6c        	ld	a2, 0x18(s0)
   16a2e: fd 77        	lui	a5, 0xfffff
   16a30: 93 87 f7 7f  	addi	a5, a5, 0x7ff
   16a34: f9 8f        	and	a5, a5, a4
   16a36: 23 18 f4 00  	sh	a5, 0x10(s0)
   16a3a: 23 24 04 00  	sw	zero, 0x8(s0)
   16a3e: 10 e0        	sd	a2, 0x0(s0)
   16a40: 93 17 37 03  	slli	a5, a4, 0x33
   16a44: 63 d3 07 00  	bgez	a5, 0x16a4a <__sflush_r+0xb8>
   16a48: dd c6        	beqz	a3, 0x16af6 <__sflush_r+0x164>
   16a4a: 2c 6c        	ld	a1, 0x58(s0)
   16a4c: 23 a0 99 00  	sw	s1, 0x0(s3)
   16a50: c5 c9        	beqz	a1, 0x16b00 <__sflush_r+0x16e>
   16a52: 93 07 44 07  	addi	a5, s0, 0x74
   16a56: 63 85 f5 00  	beq	a1, a5, 0x16a60 <__sflush_r+0xce>
   16a5a: 4e 85        	mv	a0, s3
   16a5c: ef c0 ff c0  	jal	0x1366a <_free_r>
   16a60: e2 64        	ld	s1, 0x18(sp)
   16a62: 23 3c 04 04  	sd	zero, 0x58(s0)
   16a66: 01 45        	li	a0, 0x0
   16a68: a2 70        	ld	ra, 0x28(sp)
   16a6a: 02 74        	ld	s0, 0x20(sp)
   16a6c: a2 69        	ld	s3, 0x8(sp)
   16a6e: 45 61        	addi	sp, sp, 0x30
   16a70: 82 80        	ret
   16a72: 4a e8        	sd	s2, 0x10(sp)
   16a74: 03 b9 85 01  	ld	s2, 0x18(a1)
   16a78: 63 0b 09 04  	beqz	s2, 0x16ace <__sflush_r+0x13c>
   16a7c: 26 ec        	sd	s1, 0x18(sp)
   16a7e: 84 61        	ld	s1, 0x0(a1)
   16a80: 0d 8b        	andi	a4, a4, 0x3
   16a82: 23 b0 25 01  	sd	s2, 0x0(a1)
   16a86: bb 84 24 41  	subw	s1, s1, s2
   16a8a: 81 47        	li	a5, 0x0
   16a8c: 11 e3        	bnez	a4, 0x16a90 <__sflush_r+0xfe>
   16a8e: 9c 51        	lw	a5, 0x20(a1)
   16a90: 5c c4        	sw	a5, 0xc(s0)
   16a92: 63 46 90 00  	bgtz	s1, 0x16a9e <__sflush_r+0x10c>
   16a96: 1d a8        	j	0x16acc <__sflush_r+0x13a>
   16a98: 2a 99        	add	s2, s2, a0
   16a9a: 63 59 90 02  	blez	s1, 0x16acc <__sflush_r+0x13a>
   16a9e: 3c 60        	ld	a5, 0x40(s0)
   16aa0: 0c 78        	ld	a1, 0x30(s0)
   16aa2: a6 86        	mv	a3, s1
   16aa4: 4a 86        	mv	a2, s2
   16aa6: 4e 85        	mv	a0, s3
   16aa8: 82 97        	jalr	a5
   16aaa: 89 9c        	subw	s1, s1, a0
   16aac: e3 46 a0 fe  	bgtz	a0, 0x16a98 <__sflush_r+0x106>
   16ab0: 03 17 04 01  	lh	a4, 0x10(s0)
   16ab4: 42 69        	ld	s2, 0x10(sp)
   16ab6: 13 67 07 04  	ori	a4, a4, 0x40
   16aba: e2 64        	ld	s1, 0x18(sp)
   16abc: 23 18 e4 00  	sh	a4, 0x10(s0)
   16ac0: 7d 55        	li	a0, -0x1
   16ac2: 5d b7        	j	0x16a68 <__sflush_r+0xd6>
   16ac4: b4 59        	lw	a3, 0x70(a1)
   16ac6: e3 4a d0 ee  	bgtz	a3, 0x169ba <__sflush_r+0x28>
   16aca: 71 bf        	j	0x16a66 <__sflush_r+0xd4>
   16acc: e2 64        	ld	s1, 0x18(sp)
   16ace: 42 69        	ld	s2, 0x10(sp)
   16ad0: 59 bf        	j	0x16a66 <__sflush_r+0xd4>
   16ad2: 50 68        	ld	a2, 0x90(s0)
   16ad4: 31 bf        	j	0x169f0 <__sflush_r+0x5e>
   16ad6: 03 17 04 01  	lh	a4, 0x10(s0)
   16ada: 14 6c        	ld	a3, 0x18(s0)
   16adc: fd 77        	lui	a5, 0xfffff
   16ade: 93 87 f7 7f  	addi	a5, a5, 0x7ff
   16ae2: f9 8f        	and	a5, a5, a4
   16ae4: 23 18 f4 00  	sh	a5, 0x10(s0)
   16ae8: 23 24 04 00  	sw	zero, 0x8(s0)
   16aec: 14 e0        	sd	a3, 0x0(s0)
   16aee: 93 17 37 03  	slli	a5, a4, 0x33
   16af2: e3 dc 07 f4  	bgez	a5, 0x16a4a <__sflush_r+0xb8>
   16af6: 2c 6c        	ld	a1, 0x58(s0)
   16af8: 48 e8        	sd	a0, 0x90(s0)
   16afa: 23 a0 99 00  	sw	s1, 0x0(s3)
   16afe: b1 f9        	bnez	a1, 0x16a52 <__sflush_r+0xc0>
   16b00: e2 64        	ld	s1, 0x18(sp)
   16b02: 95 b7        	j	0x16a66 <__sflush_r+0xd4>
   16b04: 83 a7 09 00  	lw	a5, 0x0(s3)
   16b08: e3 8f 07 ec  	beqz	a5, 0x169e6 <__sflush_r+0x54>
   16b0c: 75 47        	li	a4, 0x1d
   16b0e: 63 8a e7 00  	beq	a5, a4, 0x16b22 <__sflush_r+0x190>
   16b12: 59 47        	li	a4, 0x16
   16b14: 63 87 e7 00  	beq	a5, a4, 0x16b22 <__sflush_r+0x190>
   16b18: 03 17 04 01  	lh	a4, 0x10(s0)
   16b1c: 13 67 07 04  	ori	a4, a4, 0x40
   16b20: 69 bf        	j	0x16aba <__sflush_r+0x128>
   16b22: 23 a0 99 00  	sw	s1, 0x0(s3)
   16b26: e2 64        	ld	s1, 0x18(sp)
   16b28: 3d bf        	j	0x16a66 <__sflush_r+0xd4>

0000000000016b2a <_fflush_r>:
   16b2a: 01 11        	addi	sp, sp, -0x20
   16b2c: 22 e8        	sd	s0, 0x10(sp)
   16b2e: 06 ec        	sd	ra, 0x18(sp)
   16b30: 2a 84        	mv	s0, a0
   16b32: 19 c1        	beqz	a0, 0x16b38 <_fflush_r+0xe>
   16b34: 3c 65        	ld	a5, 0x48(a0)
   16b36: 99 cf        	beqz	a5, 0x16b54 <_fflush_r+0x2a>
   16b38: 83 97 05 01  	lh	a5, 0x10(a1)
   16b3c: 91 e7        	bnez	a5, 0x16b48 <_fflush_r+0x1e>
   16b3e: e2 60        	ld	ra, 0x18(sp)
   16b40: 42 64        	ld	s0, 0x10(sp)
   16b42: 01 45        	li	a0, 0x0
   16b44: 05 61        	addi	sp, sp, 0x20
   16b46: 82 80        	ret
   16b48: 22 85        	mv	a0, s0
   16b4a: 42 64        	ld	s0, 0x10(sp)
   16b4c: e2 60        	ld	ra, 0x18(sp)
   16b4e: 05 61        	addi	sp, sp, 0x20
   16b50: 6f f0 3f e4  	j	0x16992 <__sflush_r>
   16b54: 2e e4        	sd	a1, 0x8(sp)
   16b56: ef c0 6f bc  	jal	0x12f1c <__sinit>
   16b5a: a2 65        	ld	a1, 0x8(sp)
   16b5c: f1 bf        	j	0x16b38 <_fflush_r+0xe>

0000000000016b5e <fflush>:
   16b5e: 0d cd        	beqz	a0, 0x16b98 <fflush+0x3a>
   16b60: aa 85        	mv	a1, a0
   16b62: 03 b5 01 22  	ld	a0, 0x220(gp)
   16b66: 19 c1        	beqz	a0, 0x16b6c <fflush+0xe>
   16b68: 3c 65        	ld	a5, 0x48(a0)
   16b6a: 81 cb        	beqz	a5, 0x16b7a <fflush+0x1c>
   16b6c: 83 97 05 01  	lh	a5, 0x10(a1)
   16b70: 99 e3        	bnez	a5, 0x16b76 <fflush+0x18>
   16b72: 01 45        	li	a0, 0x0
   16b74: 82 80        	ret
   16b76: 6f f0 df e1  	j	0x16992 <__sflush_r>
   16b7a: 01 11        	addi	sp, sp, -0x20
   16b7c: 2e e4        	sd	a1, 0x8(sp)
   16b7e: 2a e0        	sd	a0, 0x0(sp)
   16b80: 06 ec        	sd	ra, 0x18(sp)
   16b82: ef c0 af b9  	jal	0x12f1c <__sinit>
   16b86: a2 65        	ld	a1, 0x8(sp)
   16b88: 02 65        	ld	a0, 0x0(sp)
   16b8a: 83 97 05 01  	lh	a5, 0x10(a1)
   16b8e: 95 e3        	bnez	a5, 0x16bb2 <fflush+0x54>
   16b90: e2 60        	ld	ra, 0x18(sp)
   16b92: 01 45        	li	a0, 0x0
   16b94: 05 61        	addi	sp, sp, 0x20
   16b96: 82 80        	ret
   16b98: 37 f6 01 00  	lui	a2, 0x1f
   16b9c: dd 65        	lui	a1, 0x17
   16b9e: 37 f5 01 00  	lui	a0, 0x1f
   16ba2: 13 06 06 85  	addi	a2, a2, -0x7b0
   16ba6: 93 85 a5 b2  	addi	a1, a1, -0x4d6
   16baa: 13 05 85 86  	addi	a0, a0, -0x798
   16bae: 6f c0 ef ba  	j	0x12f5c <_fwalk_sglue>
   16bb2: e2 60        	ld	ra, 0x18(sp)
   16bb4: 05 61        	addi	sp, sp, 0x20
   16bb6: 6f f0 df dd  	j	0x16992 <__sflush_r>

0000000000016bba <__sfvwrite_r>:
   16bba: 1c 6a        	ld	a5, 0x10(a2)
   16bbc: 63 8b 07 1c  	beqz	a5, 0x16d92 <__sfvwrite_r+0x1d8>
   16bc0: 03 97 05 01  	lh	a4, 0x10(a1)
   16bc4: 1d 71        	addi	sp, sp, -0x60
   16bc6: a2 e8        	sd	s0, 0x50(sp)
   16bc8: 56 f4        	sd	s5, 0x28(sp)
   16bca: 5e ec        	sd	s7, 0x18(sp)
   16bcc: 86 ec        	sd	ra, 0x58(sp)
   16bce: 93 77 87 00  	andi	a5, a4, 0x8
   16bd2: b2 8b        	mv	s7, a2
   16bd4: aa 8a        	mv	s5, a0
   16bd6: 2e 84        	mv	s0, a1
   16bd8: b5 c7        	beqz	a5, 0x16c44 <__sfvwrite_r+0x8a>
   16bda: 9c 6d        	ld	a5, 0x18(a1)
   16bdc: a5 c7        	beqz	a5, 0x16c44 <__sfvwrite_r+0x8a>
   16bde: a6 e4        	sd	s1, 0x48(sp)
   16be0: ca e0        	sd	s2, 0x40(sp)
   16be2: 4e fc        	sd	s3, 0x38(sp)
   16be4: 52 f8        	sd	s4, 0x30(sp)
   16be6: 93 77 27 00  	andi	a5, a4, 0x2
   16bea: 83 b4 0b 00  	ld	s1, 0x0(s7)
   16bee: a5 cf        	beqz	a5, 0x16c66 <__sfvwrite_r+0xac>
   16bf0: 3c 60        	ld	a5, 0x40(s0)
   16bf2: 0c 78        	ld	a1, 0x30(s0)
   16bf4: 37 0a 00 80  	lui	s4, 0x80000
   16bf8: 81 49        	li	s3, 0x0
   16bfa: 01 49        	li	s2, 0x0
   16bfc: 13 4a 0a c0  	xori	s4, s4, -0x400
   16c00: 4e 86        	mv	a2, s3
   16c02: 56 85        	mv	a0, s5
   16c04: 63 0a 09 02  	beqz	s2, 0x16c38 <__sfvwrite_r+0x7e>
   16c08: ca 86        	mv	a3, s2
   16c0a: 63 73 2a 01  	bgeu	s4, s2, 0x16c10 <__sfvwrite_r+0x56>
   16c0e: d2 86        	mv	a3, s4
   16c10: 81 26        	sext.w	a3, a3
   16c12: 82 97        	jalr	a5
   16c14: 63 58 a0 2e  	blez	a0, 0x16f04 <__sfvwrite_r+0x34a>
   16c18: 83 b7 0b 01  	ld	a5, 0x10(s7)
   16c1c: aa 99        	add	s3, s3, a0
   16c1e: 33 09 a9 40  	sub	s2, s2, a0
   16c22: 89 8f        	sub	a5, a5, a0
   16c24: 23 b8 fb 00  	sd	a5, 0x10(s7)
   16c28: 63 81 07 12  	beqz	a5, 0x16d4a <__sfvwrite_r+0x190>
   16c2c: 3c 60        	ld	a5, 0x40(s0)
   16c2e: 0c 78        	ld	a1, 0x30(s0)
   16c30: 4e 86        	mv	a2, s3
   16c32: 56 85        	mv	a0, s5
   16c34: e3 1a 09 fc  	bnez	s2, 0x16c08 <__sfvwrite_r+0x4e>
   16c38: 83 b9 04 00  	ld	s3, 0x0(s1)
   16c3c: 03 b9 84 00  	ld	s2, 0x8(s1)
   16c40: c1 04        	addi	s1, s1, 0x10
   16c42: 7d bf        	j	0x16c00 <__sfvwrite_r+0x46>
   16c44: a2 85        	mv	a1, s0
   16c46: 56 85        	mv	a0, s5
   16c48: ef 00 40 2d  	jal	0x16f1c <__swsetup_r>
   16c4c: 63 1c 05 12  	bnez	a0, 0x16d84 <__sfvwrite_r+0x1ca>
   16c50: 03 17 04 01  	lh	a4, 0x10(s0)
   16c54: a6 e4        	sd	s1, 0x48(sp)
   16c56: ca e0        	sd	s2, 0x40(sp)
   16c58: 4e fc        	sd	s3, 0x38(sp)
   16c5a: 52 f8        	sd	s4, 0x30(sp)
   16c5c: 93 77 27 00  	andi	a5, a4, 0x2
   16c60: 83 b4 0b 00  	ld	s1, 0x0(s7)
   16c64: d1 f7        	bnez	a5, 0x16bf0 <__sfvwrite_r+0x36>
   16c66: 5a f0        	sd	s6, 0x20(sp)
   16c68: 62 e8        	sd	s8, 0x10(sp)
   16c6a: 66 e4        	sd	s9, 0x8(sp)
   16c6c: 93 77 17 00  	andi	a5, a4, 0x1
   16c70: ad eb        	bnez	a5, 0x16ce2 <__sfvwrite_r+0x128>
   16c72: 03 2a c4 00  	lw	s4, 0xc(s0)
   16c76: 1c 60        	ld	a5, 0x0(s0)
   16c78: 37 0b 00 80  	lui	s6, 0x80000
   16c7c: 01 4c        	li	s8, 0x0
   16c7e: 01 49        	li	s2, 0x0
   16c80: 13 4b fb ff  	not	s6, s6
   16c84: 3e 85        	mv	a0, a5
   16c86: 63 08 09 04  	beqz	s2, 0x16cd6 <__sfvwrite_r+0x11c>
   16c8a: 93 76 07 20  	andi	a3, a4, 0x200
   16c8e: 63 86 06 14  	beqz	a3, 0x16dda <__sfvwrite_r+0x220>
   16c92: 63 75 49 1b  	bgeu	s2, s4, 0x16e3c <__sfvwrite_r+0x282>
   16c96: ca 8c        	mv	s9, s2
   16c98: 4a 8a        	mv	s4, s2
   16c9a: 52 86        	mv	a2, s4
   16c9c: e2 85        	mv	a1, s8
   16c9e: ef 00 60 6d  	jal	0x17374 <memmove>
   16ca2: 58 44        	lw	a4, 0xc(s0)
   16ca4: 1c 60        	ld	a5, 0x0(s0)
   16ca6: ca 89        	mv	s3, s2
   16ca8: 3b 07 97 41  	subw	a4, a4, s9
   16cac: 3e 9a        	add	s4, s4, a5
   16cae: 58 c4        	sw	a4, 0xc(s0)
   16cb0: 23 30 44 01  	sd	s4, 0x0(s0)
   16cb4: 01 49        	li	s2, 0x0
   16cb6: 83 b7 0b 01  	ld	a5, 0x10(s7)
   16cba: 4e 9c        	add	s8, s8, s3
   16cbc: b3 87 37 41  	sub	a5, a5, s3
   16cc0: 23 b8 fb 00  	sd	a5, 0x10(s7)
   16cc4: c1 c3        	beqz	a5, 0x16d44 <__sfvwrite_r+0x18a>
   16cc6: 1c 60        	ld	a5, 0x0(s0)
   16cc8: 03 17 04 01  	lh	a4, 0x10(s0)
   16ccc: 03 2a c4 00  	lw	s4, 0xc(s0)
   16cd0: 3e 85        	mv	a0, a5
   16cd2: e3 1c 09 fa  	bnez	s2, 0x16c8a <__sfvwrite_r+0xd0>
   16cd6: 03 bc 04 00  	ld	s8, 0x0(s1)
   16cda: 03 b9 84 00  	ld	s2, 0x8(s1)
   16cde: c1 04        	addi	s1, s1, 0x10
   16ce0: 55 b7        	j	0x16c84 <__sfvwrite_r+0xca>
   16ce2: 01 4b        	li	s6, 0x0
   16ce4: 01 45        	li	a0, 0x0
   16ce6: 81 4c        	li	s9, 0x0
   16ce8: 01 4c        	li	s8, 0x0
   16cea: 63 06 0c 0a  	beqz	s8, 0x16d96 <__sfvwrite_r+0x1dc>
   16cee: 45 cd        	beqz	a0, 0x16da6 <__sfvwrite_r+0x1ec>
   16cf0: 5a 8a        	mv	s4, s6
   16cf2: 63 73 6c 01  	bgeu	s8, s6, 0x16cf8 <__sfvwrite_r+0x13e>
   16cf6: 62 8a        	mv	s4, s8
   16cf8: 08 60        	ld	a0, 0x0(s0)
   16cfa: 18 6c        	ld	a4, 0x18(s0)
   16cfc: 5c 44        	lw	a5, 0xc(s0)
   16cfe: 14 50        	lw	a3, 0x20(s0)
   16d00: 52 89        	mv	s2, s4
   16d02: 63 76 a7 00  	bgeu	a4, a0, 0x16d0e <__sfvwrite_r+0x154>
   16d06: bb 89 d7 00  	addw	s3, a5, a3
   16d0a: 63 c9 49 0b  	blt	s3, s4, 0x16dbc <__sfvwrite_r+0x202>
   16d0e: 63 43 da 1a  	blt	s4, a3, 0x16eb4 <__sfvwrite_r+0x2fa>
   16d12: 3c 60        	ld	a5, 0x40(s0)
   16d14: 0c 78        	ld	a1, 0x30(s0)
   16d16: 66 86        	mv	a2, s9
   16d18: 56 85        	mv	a0, s5
   16d1a: 82 97        	jalr	a5
   16d1c: 2a 89        	mv	s2, a0
   16d1e: 63 56 a0 04  	blez	a0, 0x16d6a <__sfvwrite_r+0x1b0>
   16d22: 9b 07 05 00  	sext.w	a5, a0
   16d26: 3b 0b fb 40  	subw	s6, s6, a5
   16d2a: 05 45        	li	a0, 0x1
   16d2c: 63 0a 0b 02  	beqz	s6, 0x16d60 <__sfvwrite_r+0x1a6>
   16d30: 83 b7 0b 01  	ld	a5, 0x10(s7)
   16d34: ca 9c        	add	s9, s9, s2
   16d36: 33 0c 2c 41  	sub	s8, s8, s2
   16d3a: b3 87 27 41  	sub	a5, a5, s2
   16d3e: 23 b8 fb 00  	sd	a5, 0x10(s7)
   16d42: c5 f7        	bnez	a5, 0x16cea <__sfvwrite_r+0x130>
   16d44: 02 7b        	ld	s6, 0x20(sp)
   16d46: 42 6c        	ld	s8, 0x10(sp)
   16d48: a2 6c        	ld	s9, 0x8(sp)
   16d4a: e6 60        	ld	ra, 0x58(sp)
   16d4c: 46 64        	ld	s0, 0x50(sp)
   16d4e: a6 64        	ld	s1, 0x48(sp)
   16d50: 06 69        	ld	s2, 0x40(sp)
   16d52: e2 79        	ld	s3, 0x38(sp)
   16d54: 42 7a        	ld	s4, 0x30(sp)
   16d56: a2 7a        	ld	s5, 0x28(sp)
   16d58: e2 6b        	ld	s7, 0x18(sp)
   16d5a: 01 45        	li	a0, 0x0
   16d5c: 25 61        	addi	sp, sp, 0x60
   16d5e: 82 80        	ret
   16d60: a2 85        	mv	a1, s0
   16d62: 56 85        	mv	a0, s5
   16d64: ef f0 7f dc  	jal	0x16b2a <_fflush_r>
   16d68: 61 d5        	beqz	a0, 0x16d30 <__sfvwrite_r+0x176>
   16d6a: 83 17 04 01  	lh	a5, 0x10(s0)
   16d6e: 02 7b        	ld	s6, 0x20(sp)
   16d70: 42 6c        	ld	s8, 0x10(sp)
   16d72: a2 6c        	ld	s9, 0x8(sp)
   16d74: a6 64        	ld	s1, 0x48(sp)
   16d76: 06 69        	ld	s2, 0x40(sp)
   16d78: e2 79        	ld	s3, 0x38(sp)
   16d7a: 42 7a        	ld	s4, 0x30(sp)
   16d7c: 93 e7 07 04  	ori	a5, a5, 0x40
   16d80: 23 18 f4 00  	sh	a5, 0x10(s0)
   16d84: e6 60        	ld	ra, 0x58(sp)
   16d86: 46 64        	ld	s0, 0x50(sp)
   16d88: a2 7a        	ld	s5, 0x28(sp)
   16d8a: e2 6b        	ld	s7, 0x18(sp)
   16d8c: 7d 55        	li	a0, -0x1
   16d8e: 25 61        	addi	sp, sp, 0x60
   16d90: 82 80        	ret
   16d92: 01 45        	li	a0, 0x0
   16d94: 82 80        	ret
   16d96: 03 bc 84 00  	ld	s8, 0x8(s1)
   16d9a: a6 87        	mv	a5, s1
   16d9c: c1 04        	addi	s1, s1, 0x10
   16d9e: e3 0c 0c fe  	beqz	s8, 0x16d96 <__sfvwrite_r+0x1dc>
   16da2: 83 bc 07 00  	ld	s9, 0x0(a5)
   16da6: 62 86        	mv	a2, s8
   16da8: a9 45        	li	a1, 0xa
   16daa: 66 85        	mv	a0, s9
   16dac: ef 00 40 36  	jal	0x17110 <memchr>
   16db0: 63 07 05 14  	beqz	a0, 0x16efe <__sfvwrite_r+0x344>
   16db4: 05 05        	addi	a0, a0, 0x1
   16db6: 3b 0b 95 41  	subw	s6, a0, s9
   16dba: 1d bf        	j	0x16cf0 <__sfvwrite_r+0x136>
   16dbc: e6 85        	mv	a1, s9
   16dbe: 4e 86        	mv	a2, s3
   16dc0: ef 00 40 5b  	jal	0x17374 <memmove>
   16dc4: 1c 60        	ld	a5, 0x0(s0)
   16dc6: a2 85        	mv	a1, s0
   16dc8: 56 85        	mv	a0, s5
   16dca: ce 97        	add	a5, a5, s3
   16dcc: 1c e0        	sd	a5, 0x0(s0)
   16dce: ef f0 df d5  	jal	0x16b2a <_fflush_r>
   16dd2: 41 fd        	bnez	a0, 0x16d6a <__sfvwrite_r+0x1b0>
   16dd4: ce 87        	mv	a5, s3
   16dd6: 4e 89        	mv	s2, s3
   16dd8: b9 b7        	j	0x16d26 <__sfvwrite_r+0x16c>
   16dda: 18 6c        	ld	a4, 0x18(s0)
   16ddc: 63 67 f7 02  	bltu	a4, a5, 0x16e0a <__sfvwrite_r+0x250>
   16de0: 18 50        	lw	a4, 0x20(s0)
   16de2: 63 64 e9 02  	bltu	s2, a4, 0x16e0a <__sfvwrite_r+0x250>
   16de6: ca 86        	mv	a3, s2
   16de8: 63 73 2b 01  	bgeu	s6, s2, 0x16dee <__sfvwrite_r+0x234>
   16dec: da 86        	mv	a3, s6
   16dee: 3b e7 e6 02  	remw	a4, a3, a4
   16df2: 3c 60        	ld	a5, 0x40(s0)
   16df4: 0c 78        	ld	a1, 0x30(s0)
   16df6: 62 86        	mv	a2, s8
   16df8: 56 85        	mv	a0, s5
   16dfa: 99 9e        	subw	a3, a3, a4
   16dfc: 82 97        	jalr	a5
   16dfe: aa 89        	mv	s3, a0
   16e00: e3 55 a0 f6  	blez	a0, 0x16d6a <__sfvwrite_r+0x1b0>
   16e04: 33 09 39 41  	sub	s2, s2, s3
   16e08: 7d b5        	j	0x16cb6 <__sfvwrite_r+0xfc>
   16e0a: d2 89        	mv	s3, s4
   16e0c: 63 73 49 01  	bgeu	s2, s4, 0x16e12 <__sfvwrite_r+0x258>
   16e10: ca 89        	mv	s3, s2
   16e12: 3e 85        	mv	a0, a5
   16e14: 4e 86        	mv	a2, s3
   16e16: e2 85        	mv	a1, s8
   16e18: ef 00 c0 55  	jal	0x17374 <memmove>
   16e1c: 58 44        	lw	a4, 0xc(s0)
   16e1e: 1c 60        	ld	a5, 0x0(s0)
   16e20: bb 06 37 41  	subw	a3, a4, s3
   16e24: ce 97        	add	a5, a5, s3
   16e26: 54 c4        	sw	a3, 0xc(s0)
   16e28: 1c e0        	sd	a5, 0x0(s0)
   16e2a: e9 fe        	bnez	a3, 0x16e04 <__sfvwrite_r+0x24a>
   16e2c: a2 85        	mv	a1, s0
   16e2e: 56 85        	mv	a0, s5
   16e30: ef f0 bf cf  	jal	0x16b2a <_fflush_r>
   16e34: 1d f9        	bnez	a0, 0x16d6a <__sfvwrite_r+0x1b0>
   16e36: 33 09 39 41  	sub	s2, s2, s3
   16e3a: b5 bd        	j	0x16cb6 <__sfvwrite_r+0xfc>
   16e3c: 93 76 07 48  	andi	a3, a4, 0x480
   16e40: c1 ca        	beqz	a3, 0x16ed0 <__sfvwrite_r+0x316>
   16e42: 10 50        	lw	a2, 0x20(s0)
   16e44: 0c 6c        	ld	a1, 0x18(s0)
   16e46: 9b 16 16 00  	slliw	a3, a2, 0x1
   16e4a: b1 9e        	addw	a3, a3, a2
   16e4c: 8d 8f        	sub	a5, a5, a1
   16e4e: 9b d9 f6 01  	srliw	s3, a3, 0x1f
   16e52: 9b 8c 07 00  	sext.w	s9, a5
   16e56: bb 89 d9 00  	addw	s3, s3, a3
   16e5a: 93 86 1c 00  	addi	a3, s9, 0x1
   16e5e: 9b d9 19 40  	sraiw	s3, s3, 0x1
   16e62: ca 96        	add	a3, a3, s2
   16e64: 63 f6 d9 00  	bgeu	s3, a3, 0x16e70 <__sfvwrite_r+0x2b6>
   16e68: 9b 86 17 00  	addiw	a3, a5, 0x1
   16e6c: bb 89 26 01  	addw	s3, a3, s2
   16e70: 13 77 07 40  	andi	a4, a4, 0x400
   16e74: 25 c3        	beqz	a4, 0x16ed4 <__sfvwrite_r+0x31a>
   16e76: ce 85        	mv	a1, s3
   16e78: 56 85        	mv	a0, s5
   16e7a: ef c0 bf a3  	jal	0x138b4 <_malloc_r>
   16e7e: 2a 8a        	mv	s4, a0
   16e80: 49 c5        	beqz	a0, 0x16f0a <__sfvwrite_r+0x350>
   16e82: 0c 6c        	ld	a1, 0x18(s0)
   16e84: 66 86        	mv	a2, s9
   16e86: ef 00 00 5c  	jal	0x17446 <memcpy>
   16e8a: 83 57 04 01  	lhu	a5, 0x10(s0)
   16e8e: 93 f7 f7 b7  	andi	a5, a5, -0x481
   16e92: 93 e7 07 08  	ori	a5, a5, 0x80
   16e96: 23 18 f4 00  	sh	a5, 0x10(s0)
   16e9a: 33 05 9a 01  	add	a0, s4, s9
   16e9e: bb 87 99 41  	subw	a5, s3, s9
   16ea2: 23 3c 44 01  	sd	s4, 0x18(s0)
   16ea6: 08 e0        	sd	a0, 0x0(s0)
   16ea8: 23 20 34 03  	sw	s3, 0x20(s0)
   16eac: ca 8c        	mv	s9, s2
   16eae: 5c c4        	sw	a5, 0xc(s0)
   16eb0: 4a 8a        	mv	s4, s2
   16eb2: e5 b3        	j	0x16c9a <__sfvwrite_r+0xe0>
   16eb4: 52 86        	mv	a2, s4
   16eb6: e6 85        	mv	a1, s9
   16eb8: ef 00 c0 4b  	jal	0x17374 <memmove>
   16ebc: 54 44        	lw	a3, 0xc(s0)
   16ebe: 18 60        	ld	a4, 0x0(s0)
   16ec0: 9b 07 0a 00  	sext.w	a5, s4
   16ec4: bb 86 46 41  	subw	a3, a3, s4
   16ec8: 52 97        	add	a4, a4, s4
   16eca: 54 c4        	sw	a3, 0xc(s0)
   16ecc: 18 e0        	sd	a4, 0x0(s0)
   16ece: a1 bd        	j	0x16d26 <__sfvwrite_r+0x16c>
   16ed0: d2 8c        	mv	s9, s4
   16ed2: e1 b3        	j	0x16c9a <__sfvwrite_r+0xe0>
   16ed4: 4e 86        	mv	a2, s3
   16ed6: 56 85        	mv	a0, s5
   16ed8: ef 20 f0 2e  	jal	0x199c6 <_realloc_r>
   16edc: 2a 8a        	mv	s4, a0
   16ede: 55 fd        	bnez	a0, 0x16e9a <__sfvwrite_r+0x2e0>
   16ee0: 0c 6c        	ld	a1, 0x18(s0)
   16ee2: 56 85        	mv	a0, s5
   16ee4: ef c0 6f f8  	jal	0x1366a <_free_r>
   16ee8: 83 17 04 01  	lh	a5, 0x10(s0)
   16eec: 31 47        	li	a4, 0xc
   16eee: 02 7b        	ld	s6, 0x20(sp)
   16ef0: 42 6c        	ld	s8, 0x10(sp)
   16ef2: a2 6c        	ld	s9, 0x8(sp)
   16ef4: 23 a0 ea 00  	sw	a4, 0x0(s5)
   16ef8: 93 f7 f7 f7  	andi	a5, a5, -0x81
   16efc: a5 bd        	j	0x16d74 <__sfvwrite_r+0x1ba>
   16efe: 1b 0b 1c 00  	addiw	s6, s8, 0x1
   16f02: fd b3        	j	0x16cf0 <__sfvwrite_r+0x136>
   16f04: 83 17 04 01  	lh	a5, 0x10(s0)
   16f08: b5 b5        	j	0x16d74 <__sfvwrite_r+0x1ba>
   16f0a: 31 47        	li	a4, 0xc
   16f0c: 83 17 04 01  	lh	a5, 0x10(s0)
   16f10: 02 7b        	ld	s6, 0x20(sp)
   16f12: 42 6c        	ld	s8, 0x10(sp)
   16f14: a2 6c        	ld	s9, 0x8(sp)
   16f16: 23 a0 ea 00  	sw	a4, 0x0(s5)
   16f1a: a9 bd        	j	0x16d74 <__sfvwrite_r+0x1ba>

0000000000016f1c <__swsetup_r>:
   16f1c: 83 b7 01 22  	ld	a5, 0x220(gp)
   16f20: 01 11        	addi	sp, sp, -0x20
   16f22: 22 e8        	sd	s0, 0x10(sp)
   16f24: 26 e4        	sd	s1, 0x8(sp)
   16f26: 06 ec        	sd	ra, 0x18(sp)
   16f28: aa 84        	mv	s1, a0
   16f2a: 2e 84        	mv	s0, a1
   16f2c: 99 c3        	beqz	a5, 0x16f32 <__swsetup_r+0x16>
   16f2e: b8 67        	ld	a4, 0x48(a5)
   16f30: 5d c7        	beqz	a4, 0x16fde <__swsetup_r+0xc2>
   16f32: 83 17 04 01  	lh	a5, 0x10(s0)
   16f36: 13 f7 87 00  	andi	a4, a5, 0x8
   16f3a: 21 c7        	beqz	a4, 0x16f82 <__swsetup_r+0x66>
   16f3c: 18 6c        	ld	a4, 0x18(s0)
   16f3e: 31 cf        	beqz	a4, 0x16f9a <__swsetup_r+0x7e>
   16f40: 93 f6 17 00  	andi	a3, a5, 0x1
   16f44: 91 ce        	beqz	a3, 0x16f60 <__swsetup_r+0x44>
   16f46: 14 50        	lw	a3, 0x20(s0)
   16f48: 23 26 04 00  	sw	zero, 0xc(s0)
   16f4c: 01 45        	li	a0, 0x0
   16f4e: bb 06 d0 40  	negw	a3, a3
   16f52: 14 d4        	sw	a3, 0x28(s0)
   16f54: 11 cf        	beqz	a4, 0x16f70 <__swsetup_r+0x54>
   16f56: e2 60        	ld	ra, 0x18(sp)
   16f58: 42 64        	ld	s0, 0x10(sp)
   16f5a: a2 64        	ld	s1, 0x8(sp)
   16f5c: 05 61        	addi	sp, sp, 0x20
   16f5e: 82 80        	ret
   16f60: 93 f6 27 00  	andi	a3, a5, 0x2
   16f64: 01 46        	li	a2, 0x0
   16f66: 91 e2        	bnez	a3, 0x16f6a <__swsetup_r+0x4e>
   16f68: 10 50        	lw	a2, 0x20(s0)
   16f6a: 50 c4        	sw	a2, 0xc(s0)
   16f6c: 01 45        	li	a0, 0x0
   16f6e: 65 f7        	bnez	a4, 0x16f56 <__swsetup_r+0x3a>
   16f70: 13 f7 07 08  	andi	a4, a5, 0x80
   16f74: 6d d3        	beqz	a4, 0x16f56 <__swsetup_r+0x3a>
   16f76: 93 e7 07 04  	ori	a5, a5, 0x40
   16f7a: 23 18 f4 00  	sh	a5, 0x10(s0)
   16f7e: 7d 55        	li	a0, -0x1
   16f80: d9 bf        	j	0x16f56 <__swsetup_r+0x3a>
   16f82: 13 f7 07 01  	andi	a4, a5, 0x10
   16f86: 25 c3        	beqz	a4, 0x16fe6 <__swsetup_r+0xca>
   16f88: 13 f7 47 00  	andi	a4, a5, 0x4
   16f8c: 0d e7        	bnez	a4, 0x16fb6 <__swsetup_r+0x9a>
   16f8e: 18 6c        	ld	a4, 0x18(s0)
   16f90: 93 e7 87 00  	ori	a5, a5, 0x8
   16f94: 23 18 f4 00  	sh	a5, 0x10(s0)
   16f98: 45 f7        	bnez	a4, 0x16f40 <__swsetup_r+0x24>
   16f9a: 93 f6 07 28  	andi	a3, a5, 0x280
   16f9e: 13 06 00 20  	li	a2, 0x200
   16fa2: e3 8f c6 f8  	beq	a3, a2, 0x16f40 <__swsetup_r+0x24>
   16fa6: a2 85        	mv	a1, s0
   16fa8: 26 85        	mv	a0, s1
   16faa: ef 20 70 6d  	jal	0x19e80 <__smakebuf_r>
   16fae: 83 17 04 01  	lh	a5, 0x10(s0)
   16fb2: 18 6c        	ld	a4, 0x18(s0)
   16fb4: 71 b7        	j	0x16f40 <__swsetup_r+0x24>
   16fb6: 2c 6c        	ld	a1, 0x58(s0)
   16fb8: 81 cd        	beqz	a1, 0x16fd0 <__swsetup_r+0xb4>
   16fba: 13 07 44 07  	addi	a4, s0, 0x74
   16fbe: 63 87 e5 00  	beq	a1, a4, 0x16fcc <__swsetup_r+0xb0>
   16fc2: 26 85        	mv	a0, s1
   16fc4: ef c0 6f ea  	jal	0x1366a <_free_r>
   16fc8: 83 17 04 01  	lh	a5, 0x10(s0)
   16fcc: 23 3c 04 04  	sd	zero, 0x58(s0)
   16fd0: 18 6c        	ld	a4, 0x18(s0)
   16fd2: 93 f7 b7 fd  	andi	a5, a5, -0x25
   16fd6: 23 24 04 00  	sw	zero, 0x8(s0)
   16fda: 18 e0        	sd	a4, 0x0(s0)
   16fdc: 55 bf        	j	0x16f90 <__swsetup_r+0x74>
   16fde: 3e 85        	mv	a0, a5
   16fe0: ef b0 df f3  	jal	0x12f1c <__sinit>
   16fe4: b9 b7        	j	0x16f32 <__swsetup_r+0x16>
   16fe6: 25 47        	li	a4, 0x9
   16fe8: 98 c0        	sw	a4, 0x0(s1)
   16fea: 93 e7 07 04  	ori	a5, a5, 0x40
   16fee: 23 18 f4 00  	sh	a5, 0x10(s0)
   16ff2: 7d 55        	li	a0, -0x1
   16ff4: 8d b7        	j	0x16f56 <__swsetup_r+0x3a>

0000000000016ff6 <__fputwc>:
   16ff6: 79 71        	addi	sp, sp, -0x30
   16ff8: 22 f0        	sd	s0, 0x20(sp)
   16ffa: 26 ec        	sd	s1, 0x18(sp)
   16ffc: 4a e8        	sd	s2, 0x10(sp)
   16ffe: 06 f4        	sd	ra, 0x28(sp)
   17000: 2a 89        	mv	s2, a0
   17002: ae 84        	mv	s1, a1
   17004: 32 84        	mv	s0, a2
   17006: ef 00 a0 29  	jal	0x172a0 <__locale_mb_cur_max>
   1700a: 85 47        	li	a5, 0x1
   1700c: 63 1b f5 00  	bne	a0, a5, 0x17022 <__fputwc+0x2c>
   17010: 9b 87 f4 ff  	addiw	a5, s1, -0x1
   17014: 13 07 e0 0f  	li	a4, 0xfe
   17018: 63 65 f7 00  	bltu	a4, a5, 0x17022 <__fputwc+0x2c>
   1701c: 23 04 91 00  	sb	s1, 0x8(sp)
   17020: 21 a8        	j	0x17038 <__fputwc+0x42>
   17022: 93 06 44 0a  	addi	a3, s0, 0xa4
   17026: 26 86        	mv	a2, s1
   17028: 2c 00        	addi	a1, sp, 0x8
   1702a: 4a 85        	mv	a0, s2
   1702c: ef 20 f0 5b  	jal	0x19dea <_wcrtomb_r>
   17030: fd 57        	li	a5, -0x1
   17032: 63 0d f5 04  	beq	a0, a5, 0x1708c <__fputwc+0x96>
   17036: 0d c5        	beqz	a0, 0x17060 <__fputwc+0x6a>
   17038: 5c 44        	lw	a5, 0xc(s0)
   1703a: 83 45 81 00  	lbu	a1, 0x8(sp)
   1703e: 1b 87 f7 ff  	addiw	a4, a5, -0x1
   17042: 58 c4        	sw	a4, 0xc(s0)
   17044: 63 58 07 00  	bgez	a4, 0x17054 <__fputwc+0x5e>
   17048: 1c 54        	lw	a5, 0x28(s0)
   1704a: 63 43 f7 02  	blt	a4, a5, 0x17070 <__fputwc+0x7a>
   1704e: a9 47        	li	a5, 0xa
   17050: 63 80 f5 02  	beq	a1, a5, 0x17070 <__fputwc+0x7a>
   17054: 1c 60        	ld	a5, 0x0(s0)
   17056: 13 87 17 00  	addi	a4, a5, 0x1
   1705a: 18 e0        	sd	a4, 0x0(s0)
   1705c: 23 80 b7 00  	sb	a1, 0x0(a5)
   17060: a2 70        	ld	ra, 0x28(sp)
   17062: 02 74        	ld	s0, 0x20(sp)
   17064: 42 69        	ld	s2, 0x10(sp)
   17066: 1b 85 04 00  	sext.w	a0, s1
   1706a: e2 64        	ld	s1, 0x18(sp)
   1706c: 45 61        	addi	sp, sp, 0x30
   1706e: 82 80        	ret
   17070: 22 86        	mv	a2, s0
   17072: 4a 85        	mv	a0, s2
   17074: ef 20 b0 7a  	jal	0x1a01e <__swbuf_r>
   17078: fd 57        	li	a5, -0x1
   1707a: e3 13 f5 fe  	bne	a0, a5, 0x17060 <__fputwc+0x6a>
   1707e: 7d 55        	li	a0, -0x1
   17080: a2 70        	ld	ra, 0x28(sp)
   17082: 02 74        	ld	s0, 0x20(sp)
   17084: e2 64        	ld	s1, 0x18(sp)
   17086: 42 69        	ld	s2, 0x10(sp)
   17088: 45 61        	addi	sp, sp, 0x30
   1708a: 82 80        	ret
   1708c: 83 57 04 01  	lhu	a5, 0x10(s0)
   17090: 7d 55        	li	a0, -0x1
   17092: 93 e7 07 04  	ori	a5, a5, 0x40
   17096: 23 18 f4 00  	sh	a5, 0x10(s0)
   1709a: dd b7        	j	0x17080 <__fputwc+0x8a>

000000000001709c <_fputwc_r>:
   1709c: 83 17 06 01  	lh	a5, 0x10(a2)
   170a0: 13 97 27 03  	slli	a4, a5, 0x32
   170a4: 63 4c 07 00  	bltz	a4, 0x170bc <_fputwc_r+0x20>
   170a8: 03 27 c6 0a  	lw	a4, 0xac(a2)
   170ac: 89 66        	lui	a3, 0x2
   170ae: d5 8f        	or	a5, a5, a3
   170b0: 89 66        	lui	a3, 0x2
   170b2: 55 8f        	or	a4, a4, a3
   170b4: 23 18 f6 00  	sh	a5, 0x10(a2)
   170b8: 23 26 e6 0a  	sw	a4, 0xac(a2)
   170bc: 6f f0 bf f3  	j	0x16ff6 <__fputwc>

00000000000170c0 <fputwc>:
   170c0: 01 11        	addi	sp, sp, -0x20
   170c2: 22 e8        	sd	s0, 0x10(sp)
   170c4: 03 b4 01 22  	ld	s0, 0x220(gp)
   170c8: 06 ec        	sd	ra, 0x18(sp)
   170ca: 2e 86        	mv	a2, a1
   170cc: aa 85        	mv	a1, a0
   170ce: 19 c0        	beqz	s0, 0x170d4 <fputwc+0x14>
   170d0: 3c 64        	ld	a5, 0x48(s0)
   170d2: 9d c7        	beqz	a5, 0x17100 <fputwc+0x40>
   170d4: 83 17 06 01  	lh	a5, 0x10(a2)
   170d8: 13 97 27 03  	slli	a4, a5, 0x32
   170dc: 63 4c 07 00  	bltz	a4, 0x170f4 <fputwc+0x34>
   170e0: 03 27 c6 0a  	lw	a4, 0xac(a2)
   170e4: 89 66        	lui	a3, 0x2
   170e6: d5 8f        	or	a5, a5, a3
   170e8: 89 66        	lui	a3, 0x2
   170ea: 55 8f        	or	a4, a4, a3
   170ec: 23 18 f6 00  	sh	a5, 0x10(a2)
   170f0: 23 26 e6 0a  	sw	a4, 0xac(a2)
   170f4: 22 85        	mv	a0, s0
   170f6: 42 64        	ld	s0, 0x10(sp)
   170f8: e2 60        	ld	ra, 0x18(sp)
   170fa: 05 61        	addi	sp, sp, 0x20
   170fc: 6f f0 bf ef  	j	0x16ff6 <__fputwc>
   17100: 2a e0        	sd	a0, 0x0(sp)
   17102: 22 85        	mv	a0, s0
   17104: 32 e4        	sd	a2, 0x8(sp)
   17106: ef b0 7f e1  	jal	0x12f1c <__sinit>
   1710a: 22 66        	ld	a2, 0x8(sp)
   1710c: 82 65        	ld	a1, 0x0(sp)
   1710e: d9 b7        	j	0x170d4 <fputwc+0x14>

0000000000017110 <memchr>:
   17110: 93 77 75 00  	andi	a5, a0, 0x7
   17114: 93 f6 f5 0f  	andi	a3, a1, 0xff
   17118: 95 c3        	beqz	a5, 0x1713c <memchr+0x2c>
   1711a: 93 07 f6 ff  	addi	a5, a2, -0x1
   1711e: 05 c6        	beqz	a2, 0x17146 <memchr+0x36>
   17120: 7d 56        	li	a2, -0x1
   17122: 01 a8        	j	0x17132 <memchr+0x22>
   17124: 05 05        	addi	a0, a0, 0x1
   17126: 13 77 75 00  	andi	a4, a0, 0x7
   1712a: 11 cb        	beqz	a4, 0x1713e <memchr+0x2e>
   1712c: fd 17        	addi	a5, a5, -0x1
   1712e: 63 8c c7 00  	beq	a5, a2, 0x17146 <memchr+0x36>
   17132: 03 47 05 00  	lbu	a4, 0x0(a0)
   17136: e3 17 d7 fe  	bne	a4, a3, 0x17124 <memchr+0x14>
   1713a: 82 80        	ret
   1713c: b2 87        	mv	a5, a2
   1713e: 1d 47        	li	a4, 0x7
   17140: 63 65 f7 00  	bltu	a4, a5, 0x1714a <memchr+0x3a>
   17144: bd e3        	bnez	a5, 0x171aa <memchr+0x9a>
   17146: 01 45        	li	a0, 0x0
   17148: 82 80        	ret
   1714a: 93 f5 f5 0f  	andi	a1, a1, 0xff
   1714e: 37 18 10 f0  	lui	a6, 0xf0101
   17152: 13 97 85 00  	slli	a4, a1, 0x8
   17156: b7 08 ff fe  	lui	a7, 0xfeff0
   1715a: 12 08        	slli	a6, a6, 0x4
   1715c: 2e 97        	add	a4, a4, a1
   1715e: 93 88 f8 ef  	addi	a7, a7, -0x101
   17162: 13 08 18 10  	addi	a6, a6, 0x101
   17166: 93 15 07 01  	slli	a1, a4, 0x10
   1716a: c2 08        	slli	a7, a7, 0x10
   1716c: 42 08        	slli	a6, a6, 0x10
   1716e: ba 95        	add	a1, a1, a4
   17170: 93 88 f8 ef  	addi	a7, a7, -0x101
   17174: 13 08 18 10  	addi	a6, a6, 0x101
   17178: 13 97 05 02  	slli	a4, a1, 0x20
   1717c: c2 08        	slli	a7, a7, 0x10
   1717e: 3e 08        	slli	a6, a6, 0xf
   17180: ba 95        	add	a1, a1, a4
   17182: 93 88 f8 ef  	addi	a7, a7, -0x101
   17186: 13 08 08 08  	addi	a6, a6, 0x80
   1718a: 1d 43        	li	t1, 0x7
   1718c: 29 a0        	j	0x17196 <memchr+0x86>
   1718e: e1 17        	addi	a5, a5, -0x8
   17190: 21 05        	addi	a0, a0, 0x8
   17192: e3 79 f3 fa  	bgeu	t1, a5, 0x17144 <memchr+0x34>
   17196: 18 61        	ld	a4, 0x0(a0)
   17198: 2d 8f        	xor	a4, a4, a1
   1719a: 33 06 17 01  	add	a2, a4, a7
   1719e: 13 47 f7 ff  	not	a4, a4
   171a2: 71 8f        	and	a4, a4, a2
   171a4: 33 77 07 01  	and	a4, a4, a6
   171a8: 7d d3        	beqz	a4, 0x1718e <memchr+0x7e>
   171aa: aa 97        	add	a5, a5, a0
   171ac: 21 a0        	j	0x171b4 <memchr+0xa4>
   171ae: 05 05        	addi	a0, a0, 0x1
   171b0: e3 8b a7 f8  	beq	a5, a0, 0x17146 <memchr+0x36>
   171b4: 03 47 05 00  	lbu	a4, 0x0(a0)
   171b8: e3 1b d7 fe  	bne	a4, a3, 0x171ae <memchr+0x9e>
   171bc: 82 80        	ret

00000000000171be <strncpy>:
   171be: b3 e7 a5 00  	or	a5, a1, a0
   171c2: 9d 8b        	andi	a5, a5, 0x7
   171c4: 81 e7        	bnez	a5, 0x171cc <strncpy+0xe>
   171c6: 9d 47        	li	a5, 0x7
   171c8: 63 eb c7 02  	bltu	a5, a2, 0x171fe <strncpy+0x40>
   171cc: 2a 87        	mv	a4, a0
   171ce: 11 a8        	j	0x171e2 <strncpy+0x24>
   171d0: 83 c6 f5 ff  	lbu	a3, -0x1(a1)
   171d4: 13 08 f6 ff  	addi	a6, a2, -0x1
   171d8: a3 8f d7 fe  	sb	a3, -0x1(a5)
   171dc: 81 ca        	beqz	a3, 0x171ec <strncpy+0x2e>
   171de: 3e 87        	mv	a4, a5
   171e0: 42 86        	mv	a2, a6
   171e2: 85 05        	addi	a1, a1, 0x1
   171e4: 93 07 17 00  	addi	a5, a4, 0x1
   171e8: 65 f6        	bnez	a2, 0x171d0 <strncpy+0x12>
   171ea: 82 80        	ret
   171ec: 32 97        	add	a4, a4, a2
   171ee: 63 01 08 06  	beqz	a6, 0x17250 <strncpy+0x92>
   171f2: 85 07        	addi	a5, a5, 0x1
   171f4: a3 8f 07 fe  	sb	zero, -0x1(a5)
   171f8: e3 9d e7 fe  	bne	a5, a4, 0x171f2 <strncpy+0x34>
   171fc: 82 80        	ret
   171fe: 37 18 10 f0  	lui	a6, 0xf0101
   17202: b7 08 ff fe  	lui	a7, 0xfeff0
   17206: 12 08        	slli	a6, a6, 0x4
   17208: 93 88 f8 ef  	addi	a7, a7, -0x101
   1720c: 13 08 18 10  	addi	a6, a6, 0x101
   17210: c2 08        	slli	a7, a7, 0x10
   17212: 42 08        	slli	a6, a6, 0x10
   17214: 93 88 f8 ef  	addi	a7, a7, -0x101
   17218: 13 08 18 10  	addi	a6, a6, 0x101
   1721c: c2 08        	slli	a7, a7, 0x10
   1721e: 3e 08        	slli	a6, a6, 0xf
   17220: 2a 87        	mv	a4, a0
   17222: 93 88 f8 ef  	addi	a7, a7, -0x101
   17226: 13 08 08 08  	addi	a6, a6, 0x80
   1722a: 1d 4e        	li	t3, 0x7
   1722c: 39 a0        	j	0x1723a <strncpy+0x7c>
   1722e: 14 e3        	sd	a3, 0x0(a4)
   17230: 61 16        	addi	a2, a2, -0x8
   17232: 21 07        	addi	a4, a4, 0x8
   17234: a1 05        	addi	a1, a1, 0x8
   17236: e3 76 ce fa  	bgeu	t3, a2, 0x171e2 <strncpy+0x24>
   1723a: 94 61        	ld	a3, 0x0(a1)
   1723c: b3 87 16 01  	add	a5, a3, a7
   17240: 13 c3 f6 ff  	not	t1, a3
   17244: b3 f7 67 00  	and	a5, a5, t1
   17248: b3 f7 07 01  	and	a5, a5, a6
   1724c: ed d3        	beqz	a5, 0x1722e <strncpy+0x70>
   1724e: 51 bf        	j	0x171e2 <strncpy+0x24>
   17250: 82 80        	ret

0000000000017252 <_setlocale_r>:
   17252: 01 11        	addi	sp, sp, -0x20
   17254: 06 ec        	sd	ra, 0x18(sp)
   17256: 26 e4        	sd	s1, 0x8(sp)
   17258: 15 c2        	beqz	a2, 0x1727c <_setlocale_r+0x2a>
   1725a: f5 65        	lui	a1, 0x1d
   1725c: 93 85 85 cb  	addi	a1, a1, -0x348
   17260: 32 85        	mv	a0, a2
   17262: 22 e8        	sd	s0, 0x10(sp)
   17264: 32 84        	mv	s0, a2
   17266: ef 00 60 32  	jal	0x1758c <strcmp>
   1726a: f5 64        	lui	s1, 0x1d
   1726c: 11 e9        	bnez	a0, 0x17280 <_setlocale_r+0x2e>
   1726e: 42 64        	ld	s0, 0x10(sp)
   17270: 13 85 04 cb  	addi	a0, s1, -0x350
   17274: e2 60        	ld	ra, 0x18(sp)
   17276: a2 64        	ld	s1, 0x8(sp)
   17278: 05 61        	addi	sp, sp, 0x20
   1727a: 82 80        	ret
   1727c: f5 64        	lui	s1, 0x1d
   1727e: cd bf        	j	0x17270 <_setlocale_r+0x1e>
   17280: 93 85 04 cb  	addi	a1, s1, -0x350
   17284: 22 85        	mv	a0, s0
   17286: ef 00 60 30  	jal	0x1758c <strcmp>
   1728a: 75 d1        	beqz	a0, 0x1726e <_setlocale_r+0x1c>
   1728c: f5 65        	lui	a1, 0x1d
   1728e: 93 85 85 c9  	addi	a1, a1, -0x368
   17292: 22 85        	mv	a0, s0
   17294: ef 00 80 2f  	jal	0x1758c <strcmp>
   17298: 79 d9        	beqz	a0, 0x1726e <_setlocale_r+0x1c>
   1729a: 42 64        	ld	s0, 0x10(sp)
   1729c: 01 45        	li	a0, 0x0
   1729e: d9 bf        	j	0x17274 <_setlocale_r+0x22>

00000000000172a0 <__locale_mb_cur_max>:
   172a0: 03 c5 01 d9  	lbu	a0, -0x270(gp)
   172a4: 82 80        	ret

00000000000172a6 <setlocale>:
   172a6: 01 11        	addi	sp, sp, -0x20
   172a8: 06 ec        	sd	ra, 0x18(sp)
   172aa: 26 e4        	sd	s1, 0x8(sp)
   172ac: 95 c1        	beqz	a1, 0x172d0 <setlocale+0x2a>
   172ae: 22 e8        	sd	s0, 0x10(sp)
   172b0: 2e 84        	mv	s0, a1
   172b2: f5 65        	lui	a1, 0x1d
   172b4: 93 85 85 cb  	addi	a1, a1, -0x348
   172b8: 22 85        	mv	a0, s0
   172ba: ef 00 20 2d  	jal	0x1758c <strcmp>
   172be: f5 64        	lui	s1, 0x1d
   172c0: 11 e9        	bnez	a0, 0x172d4 <setlocale+0x2e>
   172c2: 42 64        	ld	s0, 0x10(sp)
   172c4: 13 85 04 cb  	addi	a0, s1, -0x350
   172c8: e2 60        	ld	ra, 0x18(sp)
   172ca: a2 64        	ld	s1, 0x8(sp)
   172cc: 05 61        	addi	sp, sp, 0x20
   172ce: 82 80        	ret
   172d0: f5 64        	lui	s1, 0x1d
   172d2: cd bf        	j	0x172c4 <setlocale+0x1e>
   172d4: 93 85 04 cb  	addi	a1, s1, -0x350
   172d8: 22 85        	mv	a0, s0
   172da: ef 00 20 2b  	jal	0x1758c <strcmp>
   172de: 75 d1        	beqz	a0, 0x172c2 <setlocale+0x1c>
   172e0: f5 65        	lui	a1, 0x1d
   172e2: 93 85 85 c9  	addi	a1, a1, -0x368
   172e6: 22 85        	mv	a0, s0
   172e8: ef 00 40 2a  	jal	0x1758c <strcmp>
   172ec: 79 d9        	beqz	a0, 0x172c2 <setlocale+0x1c>
   172ee: 42 64        	ld	s0, 0x10(sp)
   172f0: 01 45        	li	a0, 0x0
   172f2: d9 bf        	j	0x172c8 <setlocale+0x22>

00000000000172f4 <__localeconv_l>:
   172f4: 13 05 05 10  	addi	a0, a0, 0x100
   172f8: 82 80        	ret

00000000000172fa <_localeconv_r>:
   172fa: 13 85 01 d3  	addi	a0, gp, -0x2d0
   172fe: 82 80        	ret

0000000000017300 <localeconv>:
   17300: 13 85 01 d3  	addi	a0, gp, -0x2d0
   17304: 82 80        	ret

0000000000017306 <_sbrk_r>:
   17306: 01 11        	addi	sp, sp, -0x20
   17308: 22 e8        	sd	s0, 0x10(sp)
   1730a: 26 e4        	sd	s1, 0x8(sp)
   1730c: 2a 84        	mv	s0, a0
   1730e: 2e 85        	mv	a0, a1
   17310: 06 ec        	sd	ra, 0x18(sp)
   17312: 23 a0 01 24  	sw	zero, 0x240(gp)
   17316: ef 30 c0 46  	jal	0x1a782 <_sbrk>
   1731a: fd 57        	li	a5, -0x1
   1731c: 63 07 f5 00  	beq	a0, a5, 0x1732a <_sbrk_r+0x24>
   17320: e2 60        	ld	ra, 0x18(sp)
   17322: 42 64        	ld	s0, 0x10(sp)
   17324: a2 64        	ld	s1, 0x8(sp)
   17326: 05 61        	addi	sp, sp, 0x20
   17328: 82 80        	ret
   1732a: 83 a7 01 24  	lw	a5, 0x240(gp)
   1732e: ed db        	beqz	a5, 0x17320 <_sbrk_r+0x1a>
   17330: e2 60        	ld	ra, 0x18(sp)
   17332: 1c c0        	sw	a5, 0x0(s0)
   17334: 42 64        	ld	s0, 0x10(sp)
   17336: a2 64        	ld	s1, 0x8(sp)
   17338: 05 61        	addi	sp, sp, 0x20
   1733a: 82 80        	ret

000000000001733c <__libc_fini_array>:
   1733c: 01 11        	addi	sp, sp, -0x20
   1733e: 22 e8        	sd	s0, 0x10(sp)
   17340: b7 f7 01 00  	lui	a5, 0x1f
   17344: 37 f4 01 00  	lui	s0, 0x1f
   17348: 93 87 87 84  	addi	a5, a5, -0x7b8
   1734c: 13 04 04 85  	addi	s0, s0, -0x7b0
   17350: 1d 8c        	sub	s0, s0, a5
   17352: 26 e4        	sd	s1, 0x8(sp)
   17354: 06 ec        	sd	ra, 0x18(sp)
   17356: 93 54 34 40  	srai	s1, s0, 0x3
   1735a: 81 c8        	beqz	s1, 0x1736a <__libc_fini_array+0x2e>
   1735c: 61 14        	addi	s0, s0, -0x8
   1735e: 3e 94        	add	s0, s0, a5
   17360: 1c 60        	ld	a5, 0x0(s0)
   17362: fd 14        	addi	s1, s1, -0x1
   17364: 61 14        	addi	s0, s0, -0x8
   17366: 82 97        	jalr	a5
   17368: e5 fc        	bnez	s1, 0x17360 <__libc_fini_array+0x24>
   1736a: e2 60        	ld	ra, 0x18(sp)
   1736c: 42 64        	ld	s0, 0x10(sp)
   1736e: a2 64        	ld	s1, 0x8(sp)
   17370: 05 61        	addi	sp, sp, 0x20
   17372: 82 80        	ret

0000000000017374 <memmove>:
   17374: 63 f2 a5 02  	bgeu	a1, a0, 0x17398 <memmove+0x24>
   17378: 33 87 c5 00  	add	a4, a1, a2
   1737c: 63 7e e5 00  	bgeu	a0, a4, 0x17398 <memmove+0x24>
   17380: b3 07 c5 00  	add	a5, a0, a2
   17384: 1d ca        	beqz	a2, 0x173ba <memmove+0x46>
   17386: 83 46 f7 ff  	lbu	a3, -0x1(a4)
   1738a: fd 17        	addi	a5, a5, -0x1
   1738c: 7d 17        	addi	a4, a4, -0x1
   1738e: 23 80 d7 00  	sb	a3, 0x0(a5)
   17392: e3 1a f5 fe  	bne	a0, a5, 0x17386 <memmove+0x12>
   17396: 82 80        	ret
   17398: fd 47        	li	a5, 0x1f
   1739a: 63 e1 c7 02  	bltu	a5, a2, 0x173bc <memmove+0x48>
   1739e: aa 87        	mv	a5, a0
   173a0: 93 06 f6 ff  	addi	a3, a2, -0x1
   173a4: 51 ce        	beqz	a2, 0x17440 <memmove+0xcc>
   173a6: 85 06        	addi	a3, a3, 0x1
   173a8: be 96        	add	a3, a3, a5
   173aa: 03 c7 05 00  	lbu	a4, 0x0(a1)
   173ae: 85 07        	addi	a5, a5, 0x1
   173b0: 85 05        	addi	a1, a1, 0x1
   173b2: a3 8f e7 fe  	sb	a4, -0x1(a5)
   173b6: e3 9a d7 fe  	bne	a5, a3, 0x173aa <memmove+0x36>
   173ba: 82 80        	ret
   173bc: b3 67 b5 00  	or	a5, a0, a1
   173c0: 9d 8b        	andi	a5, a5, 0x7
   173c2: bd eb        	bnez	a5, 0x17438 <memmove+0xc4>
   173c4: 93 08 06 fe  	addi	a7, a2, -0x20
   173c8: 93 f8 08 fe  	andi	a7, a7, -0x20
   173cc: 93 88 08 02  	addi	a7, a7, 0x20
   173d0: b3 06 15 01  	add	a3, a0, a7
   173d4: 2e 87        	mv	a4, a1
   173d6: aa 87        	mv	a5, a0
   173d8: 03 38 07 00  	ld	a6, 0x0(a4)
   173dc: 13 07 07 02  	addi	a4, a4, 0x20
   173e0: 93 87 07 02  	addi	a5, a5, 0x20
   173e4: 23 b0 07 ff  	sd	a6, -0x20(a5)
   173e8: 03 38 87 fe  	ld	a6, -0x18(a4)
   173ec: 23 b4 07 ff  	sd	a6, -0x18(a5)
   173f0: 03 38 07 ff  	ld	a6, -0x10(a4)
   173f4: 23 b8 07 ff  	sd	a6, -0x10(a5)
   173f8: 03 38 87 ff  	ld	a6, -0x8(a4)
   173fc: 23 bc 07 ff  	sd	a6, -0x8(a5)
   17400: e3 9c d7 fc  	bne	a5, a3, 0x173d8 <memmove+0x64>
   17404: 13 78 86 01  	andi	a6, a2, 0x18
   17408: c6 95        	add	a1, a1, a7
   1740a: 13 77 f6 01  	andi	a4, a2, 0x1f
   1740e: 63 0a 08 02  	beqz	a6, 0x17442 <memmove+0xce>
   17412: 13 08 87 ff  	addi	a6, a4, -0x8
   17416: 13 78 88 ff  	andi	a6, a6, -0x8
   1741a: 21 08        	addi	a6, a6, 0x8
   1741c: b3 87 06 01  	add	a5, a3, a6
   17420: 2e 87        	mv	a4, a1
   17422: 83 38 07 00  	ld	a7, 0x0(a4)
   17426: a1 06        	addi	a3, a3, 0x8
   17428: 21 07        	addi	a4, a4, 0x8
   1742a: 23 bc 16 ff  	sd	a7, -0x8(a3)
   1742e: e3 9a f6 fe  	bne	a3, a5, 0x17422 <memmove+0xae>
   17432: 1d 8a        	andi	a2, a2, 0x7
   17434: c2 95        	add	a1, a1, a6
   17436: ad b7        	j	0x173a0 <memmove+0x2c>
   17438: 93 06 f6 ff  	addi	a3, a2, -0x1
   1743c: aa 87        	mv	a5, a0
   1743e: a5 b7        	j	0x173a6 <memmove+0x32>
   17440: 82 80        	ret
   17442: 3a 86        	mv	a2, a4
   17444: b1 bf        	j	0x173a0 <memmove+0x2c>

0000000000017446 <memcpy>:
   17446: b3 c7 a5 00  	xor	a5, a1, a0
   1744a: 9d 8b        	andi	a5, a5, 0x7
   1744c: b3 08 c5 00  	add	a7, a0, a2
   17450: b1 e7        	bnez	a5, 0x1749c <memcpy+0x56>
   17452: 9d 47        	li	a5, 0x7
   17454: 63 f4 c7 04  	bgeu	a5, a2, 0x1749c <memcpy+0x56>
   17458: 93 77 75 00  	andi	a5, a0, 0x7
   1745c: 2a 87        	mv	a4, a0
   1745e: b9 eb        	bnez	a5, 0x174b4 <memcpy+0x6e>
   17460: 13 f6 88 ff  	andi	a2, a7, -0x8
   17464: b3 06 e6 40  	sub	a3, a2, a4
   17468: 93 07 00 04  	li	a5, 0x40
   1746c: 63 c8 d7 06  	blt	a5, a3, 0x174dc <memcpy+0x96>
   17470: ae 86        	mv	a3, a1
   17472: ba 87        	mv	a5, a4
   17474: 63 71 c7 02  	bgeu	a4, a2, 0x17496 <memcpy+0x50>
   17478: 03 b8 06 00  	ld	a6, 0x0(a3)
   1747c: a1 07        	addi	a5, a5, 0x8
   1747e: a1 06        	addi	a3, a3, 0x8
   17480: 23 bc 07 ff  	sd	a6, -0x8(a5)
   17484: e3 ea c7 fe  	bltu	a5, a2, 0x17478 <memcpy+0x32>
   17488: 93 07 f6 ff  	addi	a5, a2, -0x1
   1748c: 99 8f        	sub	a5, a5, a4
   1748e: e1 9b        	andi	a5, a5, -0x8
   17490: a1 07        	addi	a5, a5, 0x8
   17492: 3e 97        	add	a4, a4, a5
   17494: be 95        	add	a1, a1, a5
   17496: 63 66 17 01  	bltu	a4, a7, 0x174a2 <memcpy+0x5c>
   1749a: 82 80        	ret
   1749c: 2a 87        	mv	a4, a0
   1749e: 63 7e 15 03  	bgeu	a0, a7, 0x174da <memcpy+0x94>
   174a2: 83 c7 05 00  	lbu	a5, 0x0(a1)
   174a6: 05 07        	addi	a4, a4, 0x1
   174a8: 85 05        	addi	a1, a1, 0x1
   174aa: a3 0f f7 fe  	sb	a5, -0x1(a4)
   174ae: e3 9a e8 fe  	bne	a7, a4, 0x174a2 <memcpy+0x5c>
   174b2: 82 80        	ret
   174b4: 83 c6 05 00  	lbu	a3, 0x0(a1)
   174b8: 05 07        	addi	a4, a4, 0x1
   174ba: 93 77 77 00  	andi	a5, a4, 0x7
   174be: a3 0f d7 fe  	sb	a3, -0x1(a4)
   174c2: 85 05        	addi	a1, a1, 0x1
   174c4: d1 df        	beqz	a5, 0x17460 <memcpy+0x1a>
   174c6: 83 c6 05 00  	lbu	a3, 0x0(a1)
   174ca: 05 07        	addi	a4, a4, 0x1
   174cc: 93 77 77 00  	andi	a5, a4, 0x7
   174d0: a3 0f d7 fe  	sb	a3, -0x1(a4)
   174d4: 85 05        	addi	a1, a1, 0x1
   174d6: f9 ff        	bnez	a5, 0x174b4 <memcpy+0x6e>
   174d8: 61 b7        	j	0x17460 <memcpy+0x1a>
   174da: 82 80        	ret
   174dc: 41 11        	addi	sp, sp, -0x10
   174de: 22 e4        	sd	s0, 0x8(sp)
   174e0: 13 04 00 04  	li	s0, 0x40
   174e4: 83 b3 05 00  	ld	t2, 0x0(a1)
   174e8: 83 b2 85 00  	ld	t0, 0x8(a1)
   174ec: 83 bf 05 01  	ld	t6, 0x10(a1)
   174f0: 03 bf 85 01  	ld	t5, 0x18(a1)
   174f4: 83 be 05 02  	ld	t4, 0x20(a1)
   174f8: 03 be 85 02  	ld	t3, 0x28(a1)
   174fc: 03 b3 05 03  	ld	t1, 0x30(a1)
   17500: 03 b8 85 03  	ld	a6, 0x38(a1)
   17504: b4 61        	ld	a3, 0x40(a1)
   17506: 13 07 87 04  	addi	a4, a4, 0x48
   1750a: b3 07 e6 40  	sub	a5, a2, a4
   1750e: 23 3c 77 fa  	sd	t2, -0x48(a4)
   17512: 23 30 57 fc  	sd	t0, -0x40(a4)
   17516: 23 34 f7 fd  	sd	t6, -0x38(a4)
   1751a: 23 38 e7 fd  	sd	t5, -0x30(a4)
   1751e: 23 3c d7 fd  	sd	t4, -0x28(a4)
   17522: 23 30 c7 ff  	sd	t3, -0x20(a4)
   17526: 23 34 67 fe  	sd	t1, -0x18(a4)
   1752a: 23 38 07 ff  	sd	a6, -0x10(a4)
   1752e: 23 3c d7 fe  	sd	a3, -0x8(a4)
   17532: 93 85 85 04  	addi	a1, a1, 0x48
   17536: e3 47 f4 fa  	blt	s0, a5, 0x174e4 <memcpy+0x9e>
   1753a: ae 86        	mv	a3, a1
   1753c: ba 87        	mv	a5, a4
   1753e: 63 71 c7 02  	bgeu	a4, a2, 0x17560 <memcpy+0x11a>
   17542: 03 b8 06 00  	ld	a6, 0x0(a3)
   17546: a1 07        	addi	a5, a5, 0x8
   17548: a1 06        	addi	a3, a3, 0x8
   1754a: 23 bc 07 ff  	sd	a6, -0x8(a5)
   1754e: e3 ea c7 fe  	bltu	a5, a2, 0x17542 <memcpy+0xfc>
   17552: 93 07 f6 ff  	addi	a5, a2, -0x1
   17556: 99 8f        	sub	a5, a5, a4
   17558: e1 9b        	andi	a5, a5, -0x8
   1755a: a1 07        	addi	a5, a5, 0x8
   1755c: 3e 97        	add	a4, a4, a5
   1755e: be 95        	add	a1, a1, a5
   17560: 63 65 17 01  	bltu	a4, a7, 0x1756a <memcpy+0x124>
   17564: 22 64        	ld	s0, 0x8(sp)
   17566: 41 01        	addi	sp, sp, 0x10
   17568: 82 80        	ret
   1756a: 83 c7 05 00  	lbu	a5, 0x0(a1)
   1756e: 05 07        	addi	a4, a4, 0x1
   17570: 85 05        	addi	a1, a1, 0x1
   17572: a3 0f f7 fe  	sb	a5, -0x1(a4)
   17576: e3 87 e8 fe  	beq	a7, a4, 0x17564 <memcpy+0x11e>
   1757a: 83 c7 05 00  	lbu	a5, 0x0(a1)
   1757e: 05 07        	addi	a4, a4, 0x1
   17580: 85 05        	addi	a1, a1, 0x1
   17582: a3 0f f7 fe  	sb	a5, -0x1(a4)
   17586: e3 92 e8 fe  	bne	a7, a4, 0x1756a <memcpy+0x124>
   1758a: e9 bf        	j	0x17564 <memcpy+0x11e>

000000000001758c <strcmp>:
   1758c: 33 67 b5 00  	or	a4, a0, a1
   17590: fd 53        	li	t2, -0x1
   17592: 1d 8b        	andi	a4, a4, 0x7
   17594: 4d eb        	bnez	a4, 0x17646 <strcmp+0xba>
   17596: 97 87 00 00  	auipc	a5, 0x8
   1759a: 83 b7 27 0d  	ld	a5, 0xd2(a5)
   1759e: 10 61        	ld	a2, 0x0(a0)
   175a0: 94 61        	ld	a3, 0x0(a1)
   175a2: b3 72 f6 00  	and	t0, a2, a5
   175a6: 33 63 f6 00  	or	t1, a2, a5
   175aa: be 92        	add	t0, t0, a5
   175ac: b3 e2 62 00  	or	t0, t0, t1
   175b0: 63 99 72 0a  	bne	t0, t2, 0x17662 <strcmp+0xd6>
   175b4: 63 1e d6 02  	bne	a2, a3, 0x175f0 <strcmp+0x64>
   175b8: 10 65        	ld	a2, 0x8(a0)
   175ba: 94 65        	ld	a3, 0x8(a1)
   175bc: b3 72 f6 00  	and	t0, a2, a5
   175c0: 33 63 f6 00  	or	t1, a2, a5
   175c4: be 92        	add	t0, t0, a5
   175c6: b3 e2 62 00  	or	t0, t0, t1
   175ca: 63 9a 72 08  	bne	t0, t2, 0x1765e <strcmp+0xd2>
   175ce: 63 11 d6 02  	bne	a2, a3, 0x175f0 <strcmp+0x64>
   175d2: 10 69        	ld	a2, 0x10(a0)
   175d4: 94 69        	ld	a3, 0x10(a1)
   175d6: b3 72 f6 00  	and	t0, a2, a5
   175da: 33 63 f6 00  	or	t1, a2, a5
   175de: be 92        	add	t0, t0, a5
   175e0: b3 e2 62 00  	or	t0, t0, t1
   175e4: 63 93 72 08  	bne	t0, t2, 0x1766a <strcmp+0xde>
   175e8: 61 05        	addi	a0, a0, 0x18
   175ea: e1 05        	addi	a1, a1, 0x18
   175ec: e3 09 d6 fa  	beq	a2, a3, 0x1759e <strcmp+0x12>
   175f0: 13 17 06 03  	slli	a4, a2, 0x30
   175f4: 93 97 06 03  	slli	a5, a3, 0x30
   175f8: 63 18 f7 02  	bne	a4, a5, 0x17628 <strcmp+0x9c>
   175fc: 13 17 06 02  	slli	a4, a2, 0x20
   17600: 93 97 06 02  	slli	a5, a3, 0x20
   17604: 63 12 f7 02  	bne	a4, a5, 0x17628 <strcmp+0x9c>
   17608: 13 17 06 01  	slli	a4, a2, 0x10
   1760c: 93 97 06 01  	slli	a5, a3, 0x10
   17610: 63 1c f7 00  	bne	a4, a5, 0x17628 <strcmp+0x9c>
   17614: 13 57 06 03  	srli	a4, a2, 0x30
   17618: 93 d7 06 03  	srli	a5, a3, 0x30
   1761c: 33 05 f7 40  	sub	a0, a4, a5
   17620: 93 75 f5 0f  	andi	a1, a0, 0xff
   17624: 91 e9        	bnez	a1, 0x17638 <strcmp+0xac>
   17626: 82 80        	ret
   17628: 41 93        	srli	a4, a4, 0x30
   1762a: c1 93        	srli	a5, a5, 0x30
   1762c: 33 05 f7 40  	sub	a0, a4, a5
   17630: 93 75 f5 0f  	andi	a1, a0, 0xff
   17634: 91 e1        	bnez	a1, 0x17638 <strcmp+0xac>
   17636: 82 80        	ret
   17638: 13 77 f7 0f  	andi	a4, a4, 0xff
   1763c: 93 f7 f7 0f  	andi	a5, a5, 0xff
   17640: 33 05 f7 40  	sub	a0, a4, a5
   17644: 82 80        	ret
   17646: 03 46 05 00  	lbu	a2, 0x0(a0)
   1764a: 83 c6 05 00  	lbu	a3, 0x0(a1)
   1764e: 05 05        	addi	a0, a0, 0x1
   17650: 85 05        	addi	a1, a1, 0x1
   17652: 63 13 d6 00  	bne	a2, a3, 0x17658 <strcmp+0xcc>
   17656: 65 fa        	bnez	a2, 0x17646 <strcmp+0xba>
   17658: 33 05 d6 40  	sub	a0, a2, a3
   1765c: 82 80        	ret
   1765e: 21 05        	addi	a0, a0, 0x8
   17660: a1 05        	addi	a1, a1, 0x8
   17662: e3 12 d6 fe  	bne	a2, a3, 0x17646 <strcmp+0xba>
   17666: 01 45        	li	a0, 0x0
   17668: 82 80        	ret
   1766a: 41 05        	addi	a0, a0, 0x10
   1766c: c1 05        	addi	a1, a1, 0x10
   1766e: e3 1c d6 fc  	bne	a2, a3, 0x17646 <strcmp+0xba>
   17672: 01 45        	li	a0, 0x0
   17674: 82 80        	ret

0000000000017676 <frexpl>:
   17676: 39 71        	addi	sp, sp, -0x40
   17678: 4a f0        	sd	s2, 0x20(sp)
   1767a: 21 69        	lui	s2, 0x8
   1767c: 22 f8        	sd	s0, 0x30(sp)
   1767e: 26 f4        	sd	s1, 0x28(sp)
   17680: 5a e0        	sd	s6, 0x0(sp)
   17682: 06 fc        	sd	ra, 0x38(sp)
   17684: 93 d4 05 03  	srli	s1, a1, 0x30
   17688: 7d 19        	addi	s2, s2, -0x1
   1768a: b3 f4 24 01  	and	s1, s1, s2
   1768e: 23 20 06 00  	sw	zero, 0x0(a2)
   17692: 2e 84        	mv	s0, a1
   17694: 2a 8b        	mv	s6, a0
   17696: 63 84 24 05  	beq	s1, s2, 0x176de <frexpl+0x68>
   1769a: 56 e4        	sd	s5, 0x8(sp)
   1769c: 81 46        	li	a3, 0x0
   1769e: b2 8a        	mv	s5, a2
   176a0: 01 46        	li	a2, 0x0
   176a2: 4e ec        	sd	s3, 0x18(sp)
   176a4: 52 e8        	sd	s4, 0x10(sp)
   176a6: ae 89        	mv	s3, a1
   176a8: 2a 8a        	mv	s4, a0
   176aa: ef 40 60 01  	jal	0x1b6c0 <__netf2>
   176ae: 25 c1        	beqz	a0, 0x1770e <frexpl+0x98>
   176b0: 81 46        	li	a3, 0x0
   176b2: 8d cc        	beqz	s1, 0x176ec <frexpl+0x76>
   176b4: 71 77        	lui	a4, 0xffffc
   176b6: b7 17 00 f8  	lui	a5, 0xf8001
   176ba: 09 27        	addiw	a4, a4, 0x2
   176bc: 92 17        	slli	a5, a5, 0x24
   176be: b9 9c        	addw	s1, s1, a4
   176c0: fd 17        	addi	a5, a5, -0x1
   176c2: 37 f4 ff 01  	lui	s0, 0x1fff
   176c6: b3 f9 f9 00  	and	s3, s3, a5
   176ca: b5 9c        	addw	s1, s1, a3
   176cc: 16 14        	slli	s0, s0, 0x25
   176ce: 23 a0 9a 00  	sw	s1, 0x0(s5)
   176d2: 52 85        	mv	a0, s4
   176d4: b3 e5 89 00  	or	a1, s3, s0
   176d8: 42 6a        	ld	s4, 0x10(sp)
   176da: e2 69        	ld	s3, 0x18(sp)
   176dc: a2 6a        	ld	s5, 0x8(sp)
   176de: e2 70        	ld	ra, 0x38(sp)
   176e0: 42 74        	ld	s0, 0x30(sp)
   176e2: a2 74        	ld	s1, 0x28(sp)
   176e4: 02 79        	ld	s2, 0x20(sp)
   176e6: 02 6b        	ld	s6, 0x0(sp)
   176e8: 21 61        	addi	sp, sp, 0x40
   176ea: 82 80        	ret
   176ec: b7 16 07 04  	lui	a3, 0x4071
   176f0: 92 16        	slli	a3, a3, 0x24
   176f2: 01 46        	li	a2, 0x0
   176f4: 5a 85        	mv	a0, s6
   176f6: a2 85        	mv	a1, s0
   176f8: ef 40 c0 1a  	jal	0x1b8a4 <__multf3>
   176fc: 93 d4 05 03  	srli	s1, a1, 0x30
   17700: ae 89        	mv	s3, a1
   17702: 2a 8a        	mv	s4, a0
   17704: b3 f4 24 01  	and	s1, s1, s2
   17708: 93 06 e0 f8  	li	a3, -0x72
   1770c: 65 b7        	j	0x176b4 <frexpl+0x3e>
   1770e: e2 70        	ld	ra, 0x38(sp)
   17710: a2 85        	mv	a1, s0
   17712: 42 74        	ld	s0, 0x30(sp)
   17714: e2 69        	ld	s3, 0x18(sp)
   17716: 42 6a        	ld	s4, 0x10(sp)
   17718: a2 6a        	ld	s5, 0x8(sp)
   1771a: a2 74        	ld	s1, 0x28(sp)
   1771c: 02 79        	ld	s2, 0x20(sp)
   1771e: 5a 85        	mv	a0, s6
   17720: 02 6b        	ld	s6, 0x0(sp)
   17722: 21 61        	addi	sp, sp, 0x40
   17724: 82 80        	ret

0000000000017726 <__register_exitproc>:
   17726: 83 b7 81 24  	ld	a5, 0x248(gp)
   1772a: b1 c3        	beqz	a5, 0x1776e <__register_exitproc+0x48>
   1772c: 98 47        	lw	a4, 0x8(a5)
   1772e: 7d 48        	li	a6, 0x1f
   17730: 63 46 e8 06  	blt	a6, a4, 0x1779c <__register_exitproc+0x76>
   17734: 05 c5        	beqz	a0, 0x1775c <__register_exitproc+0x36>
   17736: 13 18 37 00  	slli	a6, a4, 0x3
   1773a: 3e 98        	add	a6, a6, a5
   1773c: 23 38 c8 10  	sd	a2, 0x110(a6)
   17740: 83 a8 07 31  	lw	a7, 0x310(a5)
   17744: 05 46        	li	a2, 0x1
   17746: 3b 16 e6 00  	sllw	a2, a2, a4
   1774a: b3 e8 c8 00  	or	a7, a7, a2
   1774e: 23 a8 17 31  	sw	a7, 0x310(a5)
   17752: 23 38 d8 20  	sd	a3, 0x210(a6)
   17756: 89 46        	li	a3, 0x2
   17758: 63 04 d5 02  	beq	a0, a3, 0x17780 <__register_exitproc+0x5a>
   1775c: 93 06 27 00  	addi	a3, a4, 0x2
   17760: 8e 06        	slli	a3, a3, 0x3
   17762: 05 27        	addiw	a4, a4, 0x1
   17764: 98 c7        	sw	a4, 0x8(a5)
   17766: b6 97        	add	a5, a5, a3
   17768: 8c e3        	sd	a1, 0x0(a5)
   1776a: 01 45        	li	a0, 0x0
   1776c: 82 80        	ret
   1776e: b7 07 02 00  	lui	a5, 0x20
   17772: 13 88 87 a8  	addi	a6, a5, -0x578
   17776: 23 b4 01 25  	sd	a6, 0x248(gp)
   1777a: 93 87 87 a8  	addi	a5, a5, -0x578
   1777e: 7d b7        	j	0x1772c <__register_exitproc+0x6>
   17780: 83 a6 47 31  	lw	a3, 0x314(a5)
   17784: 01 45        	li	a0, 0x0
   17786: d1 8e        	or	a3, a3, a2
   17788: 23 aa d7 30  	sw	a3, 0x314(a5)
   1778c: 93 06 27 00  	addi	a3, a4, 0x2
   17790: 8e 06        	slli	a3, a3, 0x3
   17792: 05 27        	addiw	a4, a4, 0x1
   17794: 98 c7        	sw	a4, 0x8(a5)
   17796: b6 97        	add	a5, a5, a3
   17798: 8c e3        	sd	a1, 0x0(a5)
   1779a: 82 80        	ret
   1779c: 7d 55        	li	a0, -0x1
   1779e: 82 80        	ret

00000000000177a0 <_ldtoa_r>:
   177a0: 75 63        	lui	t1, 0x1d
   177a2: 13 03 03 2d  	addi	t1, t1, 0x2d0
   177a6: 03 3f 03 00  	ld	t5, 0x0(t1)
   177aa: 83 3e 83 00  	ld	t4, 0x8(t1)
   177ae: 03 2e 03 01  	lw	t3, 0x10(t1)
   177b2: 03 33 05 05  	ld	t1, 0x50(a0)
   177b6: 71 71        	addi	sp, sp, -0xb0
   177b8: 26 ed        	sd	s1, 0x98(sp)
   177ba: 4a e9        	sd	s2, 0x90(sp)
   177bc: 52 e1        	sd	s4, 0x80(sp)
   177be: da f8        	sd	s6, 0x70(sp)
   177c0: de f4        	sd	s7, 0x68(sp)
   177c2: e2 f0        	sd	s8, 0x60(sp)
   177c4: e6 ec        	sd	s9, 0x58(sp)
   177c6: ea e8        	sd	s10, 0x50(sp)
   177c8: 06 f5        	sd	ra, 0xa8(sp)
   177ca: 22 f1        	sd	s0, 0xa0(sp)
   177cc: 4e e5        	sd	s3, 0x88(sp)
   177ce: d6 fc        	sd	s5, 0x78(sp)
   177d0: ee e4        	sd	s11, 0x48(sp)
   177d2: 7a f4        	sd	t5, 0x28(sp)
   177d4: 76 f8        	sd	t4, 0x30(sp)
   177d6: 72 dc        	sw	t3, 0x38(sp)
   177d8: 2a 8b        	mv	s6, a0
   177da: 2e 89        	mv	s2, a1
   177dc: b2 84        	mv	s1, a2
   177de: 36 8c        	mv	s8, a3
   177e0: ba 8c        	mv	s9, a4
   177e2: be 8b        	mv	s7, a5
   177e4: 42 8a        	mv	s4, a6
   177e6: 46 8d        	mv	s10, a7
   177e8: 63 01 03 02  	beqz	t1, 0x1780a <_ldtoa_r+0x6a>
   177ec: 3c 4d        	lw	a5, 0x58(a0)
   177ee: 05 47        	li	a4, 0x1
   177f0: 9a 85        	mv	a1, t1
   177f2: 3b 17 f7 00  	sllw	a4, a4, a5
   177f6: 82 17        	slli	a5, a5, 0x20
   177f8: 02 17        	slli	a4, a4, 0x20
   177fa: 81 93        	srli	a5, a5, 0x20
   177fc: d9 8f        	or	a5, a5, a4
   177fe: 23 34 f3 00  	sd	a5, 0x8(t1)
   17802: ef 10 40 57  	jal	0x18d76 <_Bfree>
   17806: 23 38 0b 04  	sd	zero, 0x50(s6)
   1780a: d2 57        	lw	a5, 0x34(sp)
   1780c: 93 a5 04 00  	slti	a1, s1, 0x0
   17810: 13 94 14 00  	slli	s0, s1, 0x1
   17814: 1b d7 17 40  	sraiw	a4, a5, 0x1
   17818: 93 d9 04 02  	srli	s3, s1, 0x20
   1781c: f9 8d        	and	a1, a1, a4
   1781e: 05 80        	srli	s0, s0, 0x1
   17820: 93 a6 04 00  	slti	a3, s1, 0x0
   17824: 93 9a 14 00  	slli	s5, s1, 0x1
   17828: 71 77        	lui	a4, 0xffffc
   1782a: 9b 99 09 01  	slliw	s3, s3, 0x10
   1782e: ad 8f        	xor	a5, a5, a1
   17830: 93 da 1a 03  	srli	s5, s5, 0x31
   17834: 1b 07 17 f9  	addiw	a4, a4, -0x6f
   17838: 9b d9 09 01  	srliw	s3, s3, 0x10
   1783c: 23 20 da 00  	sw	a3, 0x0(s4)
   17840: 4a 86        	mv	a2, s2
   17842: a2 86        	mv	a3, s0
   17844: 4a 85        	mv	a0, s2
   17846: a2 85        	mv	a1, s0
   17848: 3e da        	sw	a5, 0x34(sp)
   1784a: bb 8d ea 00  	addw	s11, s5, a4
   1784e: 4a ec        	sd	s2, 0x18(sp)
   17850: 26 d0        	sw	s1, 0x20(sp)
   17852: 4e d2        	sw	s3, 0x24(sp)
   17854: ef 40 90 61  	jal	0x1c66c <__unordtf2>
   17858: 5d e9        	bnez	a0, 0x1790e <_ldtoa_r+0x16e>
   1785a: 37 fa ff 07  	lui	s4, 0x7fff
   1785e: 12 1a        	slli	s4, s4, 0x24
   17860: 7d 1a        	addi	s4, s4, -0x1
   17862: 7d 56        	li	a2, -0x1
   17864: d2 86        	mv	a3, s4
   17866: 4a 85        	mv	a0, s2
   17868: a2 85        	mv	a1, s0
   1786a: ef 40 30 60  	jal	0x1c66c <__unordtf2>
   1786e: 39 ed        	bnez	a0, 0x178cc <_ldtoa_r+0x12c>
   17870: 7d 56        	li	a2, -0x1
   17872: d2 86        	mv	a3, s4
   17874: 4a 85        	mv	a0, s2
   17876: a2 85        	mv	a1, s0
   17878: ef 30 f0 78  	jal	0x1b806 <__lttf2>
   1787c: 63 58 a0 04  	blez	a0, 0x178cc <_ldtoa_r+0x12c>
   17880: 8d 47        	li	a5, 0x3
   17882: 3e ca        	sw	a5, 0x14(sp)
   17884: e2 87        	mv	a5, s8
   17886: 58 08        	addi	a4, sp, 0x14
   17888: 6a e0        	sd	s10, 0x0(sp)
   1788a: de 88        	mv	a7, s7
   1788c: 66 88        	mv	a6, s9
   1788e: 34 08        	addi	a3, sp, 0x18
   17890: 6e 86        	mv	a2, s11
   17892: 2c 10        	addi	a1, sp, 0x28
   17894: 5a 85        	mv	a0, s6
   17896: ef 00 e0 0e  	jal	0x17984 <__gdtoa>
   1789a: 03 a7 0b 00  	lw	a4, 0x0(s7)
   1789e: e1 77        	lui	a5, 0xffff8
   178a0: 63 17 f7 00  	bne	a4, a5, 0x178ae <_ldtoa_r+0x10e>
   178a4: b7 07 00 80  	lui	a5, 0x80000
   178a8: fd 17        	addi	a5, a5, -0x1
   178aa: 23 a0 fb 00  	sw	a5, 0x0(s7)
   178ae: aa 70        	ld	ra, 0xa8(sp)
   178b0: 0a 74        	ld	s0, 0xa0(sp)
   178b2: ea 64        	ld	s1, 0x98(sp)
   178b4: 4a 69        	ld	s2, 0x90(sp)
   178b6: aa 69        	ld	s3, 0x88(sp)
   178b8: 0a 6a        	ld	s4, 0x80(sp)
   178ba: e6 7a        	ld	s5, 0x78(sp)
   178bc: 46 7b        	ld	s6, 0x70(sp)
   178be: a6 7b        	ld	s7, 0x68(sp)
   178c0: 06 7c        	ld	s8, 0x60(sp)
   178c2: e6 6c        	ld	s9, 0x58(sp)
   178c4: 46 6d        	ld	s10, 0x50(sp)
   178c6: a6 6d        	ld	s11, 0x48(sp)
   178c8: 4d 61        	addi	sp, sp, 0xb0
   178ca: 82 80        	ret
   178cc: 85 46        	li	a3, 0x1
   178ce: 01 46        	li	a2, 0x0
   178d0: c2 16        	slli	a3, a3, 0x30
   178d2: 4a 85        	mv	a0, s2
   178d4: a2 85        	mv	a1, s0
   178d6: ef 30 30 69  	jal	0x1b768 <__gttf2>
   178da: 63 49 05 00  	bltz	a0, 0x178ec <_ldtoa_r+0x14c>
   178de: c1 67        	lui	a5, 0x10
   178e0: b3 e9 f9 00  	or	s3, s3, a5
   178e4: 85 47        	li	a5, 0x1
   178e6: 3e ca        	sw	a5, 0x14(sp)
   178e8: 4e d2        	sw	s3, 0x24(sp)
   178ea: 69 bf        	j	0x17884 <_ldtoa_r+0xe4>
   178ec: 01 46        	li	a2, 0x0
   178ee: 81 46        	li	a3, 0x0
   178f0: 4a 85        	mv	a0, s2
   178f2: a6 85        	mv	a1, s1
   178f4: ef 30 d0 5c  	jal	0x1b6c0 <__netf2>
   178f8: 19 e1        	bnez	a0, 0x178fe <_ldtoa_r+0x15e>
   178fa: 02 ca        	sw	zero, 0x14(sp)
   178fc: 61 b7        	j	0x17884 <_ldtoa_r+0xe4>
   178fe: 71 77        	lui	a4, 0xffffc
   17900: 1b 07 27 f9  	addiw	a4, a4, -0x6e
   17904: 89 47        	li	a5, 0x2
   17906: 3e ca        	sw	a5, 0x14(sp)
   17908: bb 8d ea 00  	addw	s11, s5, a4
   1790c: a5 bf        	j	0x17884 <_ldtoa_r+0xe4>
   1790e: 91 47        	li	a5, 0x4
   17910: 3e ca        	sw	a5, 0x14(sp)
   17912: 8d bf        	j	0x17884 <_ldtoa_r+0xe4>

0000000000017914 <_ldcheck>:
   17914: 79 71        	addi	sp, sp, -0x30
   17916: 26 ec        	sd	s1, 0x18(sp)
   17918: 04 65        	ld	s1, 0x8(a0)
   1791a: 4e e4        	sd	s3, 0x8(sp)
   1791c: 83 39 05 00  	ld	s3, 0x0(a0)
   17920: 86 04        	slli	s1, s1, 0x1
   17922: 85 80        	srli	s1, s1, 0x1
   17924: 4e 86        	mv	a2, s3
   17926: a6 86        	mv	a3, s1
   17928: 4e 85        	mv	a0, s3
   1792a: a6 85        	mv	a1, s1
   1792c: 06 f4        	sd	ra, 0x28(sp)
   1792e: ef 40 f0 53  	jal	0x1c66c <__unordtf2>
   17932: 39 e1        	bnez	a0, 0x17978 <_ldcheck+0x64>
   17934: 4a e8        	sd	s2, 0x10(sp)
   17936: 37 f9 ff 07  	lui	s2, 0x7fff
   1793a: 12 19        	slli	s2, s2, 0x24
   1793c: 7d 19        	addi	s2, s2, -0x1
   1793e: 7d 56        	li	a2, -0x1
   17940: ca 86        	mv	a3, s2
   17942: 4e 85        	mv	a0, s3
   17944: a6 85        	mv	a1, s1
   17946: 22 f0        	sd	s0, 0x20(sp)
   17948: 05 44        	li	s0, 0x1
   1794a: ef 40 30 52  	jal	0x1c66c <__unordtf2>
   1794e: 01 cd        	beqz	a0, 0x17966 <_ldcheck+0x52>
   17950: a2 70        	ld	ra, 0x28(sp)
   17952: 13 45 14 00  	xori	a0, s0, 0x1
   17956: 02 74        	ld	s0, 0x20(sp)
   17958: 06 05        	slli	a0, a0, 0x1
   1795a: 42 69        	ld	s2, 0x10(sp)
   1795c: e2 64        	ld	s1, 0x18(sp)
   1795e: a2 69        	ld	s3, 0x8(sp)
   17960: 09 89        	andi	a0, a0, 0x2
   17962: 45 61        	addi	sp, sp, 0x30
   17964: 82 80        	ret
   17966: 7d 56        	li	a2, -0x1
   17968: ca 86        	mv	a3, s2
   1796a: 4e 85        	mv	a0, s3
   1796c: a6 85        	mv	a1, s1
   1796e: ef 30 90 69  	jal	0x1b806 <__lttf2>
   17972: 13 24 15 00  	slti	s0, a0, 0x1
   17976: e9 bf        	j	0x17950 <_ldcheck+0x3c>
   17978: a2 70        	ld	ra, 0x28(sp)
   1797a: e2 64        	ld	s1, 0x18(sp)
   1797c: a2 69        	ld	s3, 0x8(sp)
   1797e: 05 45        	li	a0, 0x1
   17980: 45 61        	addi	sp, sp, 0x30
   17982: 82 80        	ret

0000000000017984 <__gdtoa>:
   17984: 11 71        	addi	sp, sp, -0x100
   17986: 66 f5        	sd	s9, 0xa8(sp)
   17988: 83 2c 07 00  	lw	s9, 0x0(a4)
   1798c: a6 f5        	sd	s1, 0xe8(sp)
   1798e: d2 e9        	sd	s4, 0xd0(sp)
   17990: 13 f3 fc fc  	andi	t1, s9, -0x31
   17994: 86 fd        	sd	ra, 0xf8(sp)
   17996: 23 20 67 00  	sw	t1, 0x0(a4)
   1799a: 3a 8a        	mv	s4, a4
   1799c: 12 67        	ld	a4, 0x100(sp)
   1799e: 13 f3 fc 00  	andi	t1, s9, 0xf
   179a2: 0d 4e        	li	t3, 0x3
   179a4: 3a e4        	sd	a4, 0x8(sp)
   179a6: 32 e8        	sd	a2, 0x10(sp)
   179a8: c6 84        	mv	s1, a7
   179aa: 63 07 c3 53  	beq	t1, t3, 0x17ed8 <__gdtoa+0x554>
   179ae: ce ed        	sd	s3, 0xd8(sp)
   179b0: 93 f9 cc 00  	andi	s3, s9, 0xc
   179b4: 63 90 09 4c  	bnez	s3, 0x17e74 <__gdtoa+0x4f0>
   179b8: a2 f9        	sd	s0, 0xf0(sp)
   179ba: 2a 84        	mv	s0, a0
   179bc: 63 0a 03 4e  	beqz	t1, 0x17eb0 <__gdtoa+0x52c>
   179c0: 6a f1        	sd	s10, 0xa0(sp)
   179c2: 03 ad 05 00  	lw	s10, 0x0(a1)
   179c6: ca f1        	sd	s2, 0xe0(sp)
   179c8: da e1        	sd	s6, 0xc0(sp)
   179ca: 5e fd        	sd	s7, 0xb8(sp)
   179cc: 6e ed        	sd	s11, 0x98(sp)
   179ce: 62 f9        	sd	s8, 0xb0(sp)
   179d0: b6 8d        	mv	s11, a3
   179d2: 93 06 00 02  	li	a3, 0x20
   179d6: 2e 8b        	mv	s6, a1
   179d8: 3e 89        	mv	s2, a5
   179da: c2 8b        	mv	s7, a6
   179dc: 81 45        	li	a1, 0x0
   179de: 93 07 00 02  	li	a5, 0x20
   179e2: 63 d7 a6 01  	bge	a3, s10, 0x179f0 <__gdtoa+0x6c>
   179e6: 9b 97 17 00  	slliw	a5, a5, 0x1
   179ea: 85 25        	addiw	a1, a1, 0x1
   179ec: e3 cd a7 ff  	blt	a5, s10, 0x179e6 <__gdtoa+0x62>
   179f0: 22 85        	mv	a0, s0
   179f2: ef 10 00 32  	jal	0x18d12 <_Balloc>
   179f6: 2a 8c        	mv	s8, a0
   179f8: 63 0a 05 6c  	beqz	a0, 0x180cc <__gdtoa+0x748>
   179fc: 1b 05 fd ff  	addiw	a0, s10, -0x1
   17a00: 1b 55 55 40  	sraiw	a0, a0, 0x5
   17a04: 93 15 25 00  	slli	a1, a0, 0x2
   17a08: d6 e5        	sd	s5, 0xc8(sp)
   17a0a: ee 95        	add	a1, a1, s11
   17a0c: 93 06 8c 01  	addi	a3, s8, 0x18
   17a10: ee 87        	mv	a5, s11
   17a12: 98 43        	lw	a4, 0x0(a5)
   17a14: 91 07        	addi	a5, a5, 0x4
   17a16: 91 06        	addi	a3, a3, 0x4
   17a18: 23 ae e6 fe  	sw	a4, -0x4(a3)
   17a1c: e3 fb f5 fe  	bgeu	a1, a5, 0x17a12 <__gdtoa+0x8e>
   17a20: 85 05        	addi	a1, a1, 0x1
   17a22: 93 87 1d 00  	addi	a5, s11, 0x1
   17a26: 91 46        	li	a3, 0x4
   17a28: 63 e5 f5 00  	bltu	a1, a5, 0x17a32 <__gdtoa+0xae>
   17a2c: 0a 05        	slli	a0, a0, 0x2
   17a2e: 93 06 45 00  	addi	a3, a0, 0x4
   17a32: 93 d7 26 40  	srai	a5, a3, 0x2
   17a36: 81 27        	sext.w	a5, a5
   17a38: e2 96        	add	a3, a3, s8
   17a3a: 21 a0        	j	0x17a42 <__gdtoa+0xbe>
   17a3c: f1 16        	addi	a3, a3, -0x4
   17a3e: 63 81 07 4e  	beqz	a5, 0x17f20 <__gdtoa+0x59c>
   17a42: d8 4a        	lw	a4, 0x14(a3)
   17a44: be 8a        	mv	s5, a5
   17a46: fd 37        	addiw	a5, a5, -0x1
   17a48: 75 db        	beqz	a4, 0x17a3c <__gdtoa+0xb8>
   17a4a: 91 07        	addi	a5, a5, 0x4
   17a4c: 8a 07        	slli	a5, a5, 0x2
   17a4e: e2 97        	add	a5, a5, s8
   17a50: 88 47        	lw	a0, 0x8(a5)
   17a52: 23 2a 5c 01  	sw	s5, 0x14(s8)
   17a56: 9b 9a 5a 00  	slliw	s5, s5, 0x5
   17a5a: ef 10 a0 4f  	jal	0x18f54 <__hi0bits>
   17a5e: bb 87 aa 40  	subw	a5, s5, a0
   17a62: 62 85        	mv	a0, s8
   17a64: 3e ec        	sd	a5, 0x18(sp)
   17a66: ef 10 a0 22  	jal	0x18c90 <__trailz_D2A>
   17a6a: 2a c7        	sw	a0, 0x8c(sp)
   17a6c: 42 66        	ld	a2, 0x10(sp)
   17a6e: e2 67        	ld	a5, 0x18(sp)
   17a70: 63 1c 05 4c  	bnez	a0, 0x17f48 <__gdtoa+0x5c4>
   17a74: 83 26 4c 01  	lw	a3, 0x14(s8)
   17a78: 63 81 06 42  	beqz	a3, 0x17e9a <__gdtoa+0x516>
   17a7c: 6c 01        	addi	a1, sp, 0x8c
   17a7e: 62 85        	mv	a0, s8
   17a80: 3e f0        	sd	a5, 0x20(sp)
   17a82: 32 ec        	sd	a2, 0x18(sp)
   17a84: ef 10 70 43  	jal	0x196ba <__b2d>
   17a88: 53 05 05 e2  	fmv.x.d	a0, fa0
   17a8c: 37 03 f0 3f  	lui	t1, 0x3ff00
   17a90: fd 56        	li	a3, -0x1
   17a92: 93 15 c5 00  	slli	a1, a0, 0xc
   17a96: b1 91        	srli	a1, a1, 0x2c
   17a98: b3 e8 65 00  	or	a7, a1, t1
   17a9c: 81 92        	srli	a3, a3, 0x20
   17a9e: 82 18        	slli	a7, a7, 0x20
   17aa0: e9 8e        	and	a3, a3, a0
   17aa2: b3 e6 16 01  	or	a3, a3, a7
   17aa6: 07 b7 81 e0  	fld	fa4, -0x1f8(gp)
   17aaa: d3 87 06 f2  	fmv.d.x	fa5, a3
   17aae: 87 b6 01 0d  	fld	fa3, 0xd0(gp)
   17ab2: 53 f7 e7 0a  	fsub.d	fa4, fa5, fa4
   17ab6: 87 b7 81 0d  	fld	fa5, 0xd8(gp)
   17aba: 62 66        	ld	a2, 0x18(sp)
   17abc: 82 77        	ld	a5, 0x20(sp)
   17abe: b3 ee 65 00  	or	t4, a1, t1
   17ac2: 43 77 d7 7a  	fmadd.d	fa4, fa4, fa3, fa5
   17ac6: bb 0a f6 00  	addw	s5, a2, a5
   17aca: 9b 88 fa ff  	addiw	a7, s5, -0x1
   17ace: d3 87 08 d2  	fcvt.d.w	fa5, a7
   17ad2: 87 b6 01 0e  	fld	fa3, 0xe0(gp)
   17ad6: 1b 85 08 00  	sext.w	a0, a7
   17ada: c3 f7 d7 72  	fmadd.d	fa5, fa5, fa3, fa4
   17ade: 63 55 05 00  	bgez	a0, 0x17ae8 <__gdtoa+0x164>
   17ae2: 05 45        	li	a0, 0x1
   17ae4: 3b 05 55 41  	subw	a0, a0, s5
   17ae8: 1b 03 b5 bc  	addiw	t1, a0, -0x435
   17aec: 63 58 60 00  	blez	t1, 0x17afc <__gdtoa+0x178>
   17af0: d3 06 03 d2  	fcvt.d.w	fa3, t1
   17af4: 07 b7 81 0e  	fld	fa4, 0xe8(gp)
   17af8: c3 f7 e6 7a  	fmadd.d	fa5, fa3, fa4, fa5
   17afc: 53 07 00 f2  	fmv.d.x	fa4, zero
   17b00: 53 95 07 c2  	fcvt.w.d	a0, fa5, rtz
   17b04: 53 9e e7 a2  	flt.d	t3, fa5, fa4
   17b08: 1b 03 05 00  	sext.w	t1, a0
   17b0c: 63 1a 0e 6e  	bnez	t3, 0x18200 <__gdtoa+0x87c>
   17b10: 9b 95 48 01  	slliw	a1, a7, 0x14
   17b14: bb 85 d5 01  	addw	a1, a1, t4
   17b18: 82 16        	slli	a3, a3, 0x20
   17b1a: 3b 8f 17 41  	subw	t5, a5, a7
   17b1e: 82 15        	slli	a1, a1, 0x20
   17b20: 81 92        	srli	a3, a3, 0x20
   17b22: 1b 05 03 00  	sext.w	a0, t1
   17b26: d9 4e        	li	t4, 0x16
   17b28: fa 88        	mv	a7, t5
   17b2a: cd 8e        	or	a3, a3, a1
   17b2c: 1b 0e ff ff  	addiw	t3, t5, -0x1
   17b30: 63 eb ae 3e  	bltu	t4, a0, 0x17f26 <__gdtoa+0x5a2>
   17b34: f5 65        	lui	a1, 0x1d
   17b36: 93 85 85 34  	addi	a1, a1, 0x348
   17b3a: 13 15 33 00  	slli	a0, t1, 0x3
   17b3e: aa 95        	add	a1, a1, a0
   17b40: 9c 21        	fld	fa5, 0x0(a1)
   17b42: 53 87 06 f2  	fmv.d.x	fa4, a3
   17b46: d3 15 f7 a2  	flt.d	a1, fa4, fa5
   17b4a: 63 90 05 5c  	bnez	a1, 0x1810a <__gdtoa+0x786>
   17b4e: 82 f8        	sd	zero, 0x70(sp)
   17b50: 02 ec        	sd	zero, 0x18(sp)
   17b52: 63 47 e0 01  	bgtz	t5, 0x17b60 <__gdtoa+0x1dc>
   17b56: 85 45        	li	a1, 0x1
   17b58: 3b 87 e5 41  	subw	a4, a1, t5
   17b5c: 3a ec        	sd	a4, 0x18(sp)
   17b5e: 01 4e        	li	t3, 0x0
   17b60: 3b 0e c3 01  	addw	t3, t1, t3
   17b64: 1a fc        	sd	t1, 0x38(sp)
   17b66: 02 f8        	sd	zero, 0x30(sp)
   17b68: a5 45        	li	a1, 0x9
   17b6a: 63 ea 25 3f  	bltu	a1, s2, 0x17f5e <__gdtoa+0x5da>
   17b6e: 95 45        	li	a1, 0x5
   17b70: 63 c0 25 59  	blt	a1, s2, 0x180f0 <__gdtoa+0x76c>
   17b74: 9b 8a da 3f  	addiw	s5, s5, 0x3fd
   17b78: 11 45        	li	a0, 0x4
   17b7a: 93 ba 8a 7f  	sltiu	s5, s5, 0x7f8
   17b7e: e3 04 a9 22  	beq	s2, a0, 0x185a6 <__gdtoa+0xc22>
   17b82: e3 0e b9 20  	beq	s2, a1, 0x1859e <__gdtoa+0xc1a>
   17b86: 89 45        	li	a1, 0x2
   17b88: e3 02 b9 22  	beq	s2, a1, 0x185ac <__gdtoa+0xc28>
   17b8c: 8d 45        	li	a1, 0x3
   17b8e: 82 e0        	sd	zero, 0x40(sp)
   17b90: 63 1c b9 3c  	bne	s2, a1, 0x17f68 <__gdtoa+0x5e4>
   17b94: 62 77        	ld	a4, 0x38(sp)
   17b96: bb 05 77 01  	addw	a1, a4, s7
   17b9a: 1b 87 15 00  	addiw	a4, a1, 0x1
   17b9e: 3a f4        	sd	a4, 0x28(sp)
   17ba0: ae fc        	sd	a1, 0x78(sp)
   17ba2: e3 53 e0 04  	blez	a4, 0x183e8 <__gdtoa+0xa64>
   17ba6: ba 88        	mv	a7, a4
   17ba8: ba 85        	mv	a1, a4
   17baa: 22 85        	mv	a0, s0
   17bac: b6 f4        	sd	a3, 0x68(sp)
   17bae: be f0        	sd	a5, 0x60(sp)
   17bb0: f2 ec        	sd	t3, 0x58(sp)
   17bb2: 9a e8        	sd	t1, 0x50(sp)
   17bb4: b2 e4        	sd	a2, 0x48(sp)
   17bb6: 46 c7        	sw	a7, 0x8c(sp)
   17bb8: ef 00 d0 60  	jal	0x189c4 <__rv_alloc_D2A>
   17bbc: 2a 88        	mv	a6, a0
   17bbe: 63 07 05 34  	beqz	a0, 0x17f0c <__gdtoa+0x588>
   17bc2: 03 27 cb 00  	lw	a4, 0xc(s6)
   17bc6: 26 66        	ld	a2, 0x48(sp)
   17bc8: 46 63        	ld	t1, 0x50(sp)
   17bca: 7d 37        	addiw	a4, a4, -0x1
   17bcc: 3a f0        	sd	a4, 0x20(sp)
   17bce: 66 6e        	ld	t3, 0x58(sp)
   17bd0: 86 77        	ld	a5, 0x60(sp)
   17bd2: a6 76        	ld	a3, 0x68(sp)
   17bd4: 63 00 07 3c  	beqz	a4, 0x17f94 <__gdtoa+0x610>
   17bd8: 63 49 07 50  	bltz	a4, 0x180ea <__gdtoa+0x766>
   17bdc: 93 fc 0c 10  	andi	s9, s9, 0x100
   17be0: 63 95 0c 3a  	bnez	s9, 0x17f8a <__gdtoa+0x606>
   17be4: 63 46 06 00  	bltz	a2, 0x17bf0 <__gdtoa+0x26c>
   17be8: 62 77        	ld	a4, 0x38(sp)
   17bea: b9 45        	li	a1, 0xe
   17bec: 63 d2 e5 52  	bge	a1, a4, 0x18110 <__gdtoa+0x78c>
   17bf0: 06 67        	ld	a4, 0x40(sp)
   17bf2: 63 08 07 4e  	beqz	a4, 0x180e2 <__gdtoa+0x75e>
   17bf6: 3b 0d fd 40  	subw	s10, s10, a5
   17bfa: 83 26 4b 00  	lw	a3, 0x4(s6)
   17bfe: 9b 05 1d 00  	addiw	a1, s10, 0x1
   17c02: 2e c7        	sw	a1, 0x8c(sp)
   17c04: 3b 0d a6 41  	subw	s10, a2, s10
   17c08: e3 53 dd 02  	bge	s10, a3, 0x1842e <__gdtoa+0xaaa>
   17c0c: 9b 05 d9 ff  	addiw	a1, s2, -0x3
   17c10: f5 99        	andi	a1, a1, -0x3
   17c12: 81 25        	sext.w	a1, a1
   17c14: 63 8d 05 74  	beqz	a1, 0x1836e <__gdtoa+0x9ea>
   17c18: bb 06 d6 40  	subw	a3, a2, a3
   17c1c: 9b 85 16 00  	addiw	a1, a3, 0x1
   17c20: 2e c7        	sw	a1, 0x8c(sp)
   17c22: 05 46        	li	a2, 0x1
   17c24: ae 86        	mv	a3, a1
   17c26: 63 58 26 01  	bge	a2, s2, 0x17c36 <__gdtoa+0x2b2>
   17c2a: 22 77        	ld	a4, 0x28(sp)
   17c2c: 63 55 e0 00  	blez	a4, 0x17c36 <__gdtoa+0x2b2>
   17c30: 22 77        	ld	a4, 0x28(sp)
   17c32: e3 4c b7 44  	blt	a4, a1, 0x1888a <__gdtoa+0xf06>
   17c36: 62 67        	ld	a4, 0x18(sp)
   17c38: 42 7d        	ld	s10, 0x30(sp)
   17c3a: 3b 8e c6 01  	addw	t3, a3, t3
   17c3e: ba 8c        	mv	s9, a4
   17c40: 35 9f        	addw	a4, a4, a3
   17c42: 3a ec        	sd	a4, 0x18(sp)
   17c44: 85 45        	li	a1, 0x1
   17c46: 22 85        	mv	a0, s0
   17c48: c2 f0        	sd	a6, 0x60(sp)
   17c4a: be ec        	sd	a5, 0x58(sp)
   17c4c: f2 e8        	sd	t3, 0x50(sp)
   17c4e: 9a e4        	sd	t1, 0x48(sp)
   17c50: ef 10 a0 3f  	jal	0x1904a <__i2b>
   17c54: 26 63        	ld	t1, 0x48(sp)
   17c56: 46 6e        	ld	t3, 0x50(sp)
   17c58: e6 67        	ld	a5, 0x58(sp)
   17c5a: 06 78        	ld	a6, 0x60(sp)
   17c5c: aa 8a        	mv	s5, a0
   17c5e: 63 07 05 2a  	beqz	a0, 0x17f0c <__gdtoa+0x588>
   17c62: 63 80 0c 02  	beqz	s9, 0x17c82 <__gdtoa+0x2fe>
   17c66: 63 5e c0 01  	blez	t3, 0x17c82 <__gdtoa+0x2fe>
   17c6a: e6 86        	mv	a3, s9
   17c6c: 63 53 9e 01  	bge	t3, s9, 0x17c72 <__gdtoa+0x2ee>
   17c70: f2 86        	mv	a3, t3
   17c72: 62 67        	ld	a4, 0x18(sp)
   17c74: 36 c7        	sw	a3, 0x8c(sp)
   17c76: bb 8c dc 40  	subw	s9, s9, a3
   17c7a: 15 9f        	subw	a4, a4, a3
   17c7c: 3a ec        	sd	a4, 0x18(sp)
   17c7e: 3b 0e de 40  	subw	t3, t3, a3
   17c82: 42 77        	ld	a4, 0x30(sp)
   17c84: 0d c7        	beqz	a4, 0x17cae <__gdtoa+0x32a>
   17c86: 06 67        	ld	a4, 0x40(sp)
   17c88: 19 c3        	beqz	a4, 0x17c8e <__gdtoa+0x30a>
   17c8a: e3 18 0d 06  	bnez	s10, 0x184fa <__gdtoa+0xb76>
   17c8e: 42 76        	ld	a2, 0x30(sp)
   17c90: e2 85        	mv	a1, s8
   17c92: 22 85        	mv	a0, s0
   17c94: c2 f0        	sd	a6, 0x60(sp)
   17c96: be ec        	sd	a5, 0x58(sp)
   17c98: f2 e8        	sd	t3, 0x50(sp)
   17c9a: 9a e4        	sd	t1, 0x48(sp)
   17c9c: ef 10 e0 5b  	jal	0x1925a <__pow5mult>
   17ca0: 26 63        	ld	t1, 0x48(sp)
   17ca2: 46 6e        	ld	t3, 0x50(sp)
   17ca4: e6 67        	ld	a5, 0x58(sp)
   17ca6: 06 78        	ld	a6, 0x60(sp)
   17ca8: 2a 8c        	mv	s8, a0
   17caa: 63 01 05 26  	beqz	a0, 0x17f0c <__gdtoa+0x588>
   17cae: 85 45        	li	a1, 0x1
   17cb0: 22 85        	mv	a0, s0
   17cb2: c2 ec        	sd	a6, 0x58(sp)
   17cb4: be e8        	sd	a5, 0x50(sp)
   17cb6: f2 e4        	sd	t3, 0x48(sp)
   17cb8: 1a f8        	sd	t1, 0x30(sp)
   17cba: ef 10 00 39  	jal	0x1904a <__i2b>
   17cbe: 2a 8d        	mv	s10, a0
   17cc0: 63 06 05 24  	beqz	a0, 0x17f0c <__gdtoa+0x588>
   17cc4: 42 73        	ld	t1, 0x30(sp)
   17cc6: 26 6e        	ld	t3, 0x48(sp)
   17cc8: c6 67        	ld	a5, 0x50(sp)
   17cca: 66 68        	ld	a6, 0x58(sp)
   17ccc: 63 12 03 72  	bnez	t1, 0x183f0 <__gdtoa+0xa6c>
   17cd0: 85 46        	li	a3, 0x1
   17cd2: 63 d9 26 51  	bge	a3, s2, 0x181e4 <__gdtoa+0x860>
   17cd6: 7d 45        	li	a0, 0x1f
   17cd8: e2 67        	ld	a5, 0x18(sp)
   17cda: bb 09 c5 41  	subw	s3, a0, t3
   17cde: f1 39        	addiw	s3, s3, -0x4
   17ce0: 93 f9 f9 01  	andi	s3, s3, 0x1f
   17ce4: 3b 86 f9 00  	addw	a2, s3, a5
   17ce8: 4e c7        	sw	s3, 0x8c(sp)
   17cea: ce 87        	mv	a5, s3
   17cec: 63 49 c0 5a  	bgtz	a2, 0x1829e <__gdtoa+0x91a>
   17cf0: 3b 06 fe 00  	addw	a2, t3, a5
   17cf4: 63 41 c0 20  	bgtz	a2, 0x17ef6 <__gdtoa+0x572>
   17cf8: c6 77        	ld	a5, 0x70(sp)
   17cfa: 63 91 07 5c  	bnez	a5, 0x182bc <__gdtoa+0x938>
   17cfe: a2 77        	ld	a5, 0x28(sp)
   17d00: 63 57 f0 68  	blez	a5, 0x1838e <__gdtoa+0xa0a>
   17d04: 86 67        	ld	a5, 0x40(sp)
   17d06: 63 89 07 5e  	beqz	a5, 0x182f8 <__gdtoa+0x974>
   17d0a: 3b 86 99 01  	addw	a2, s3, s9
   17d0e: e3 47 c0 06  	bgtz	a2, 0x1857c <__gdtoa+0xbf8>
   17d12: 56 ec        	sd	s5, 0x18(sp)
   17d14: e3 1d 03 0a  	bnez	t1, 0x185ce <__gdtoa+0xc4a>
   17d18: 6e e8        	sd	s11, 0x10(sp)
   17d1a: a6 e0        	sd	s1, 0x40(sp)
   17d1c: a2 7d        	ld	s11, 0x28(sp)
   17d1e: e2 64        	ld	s1, 0x18(sp)
   17d20: c2 8b        	mv	s7, a6
   17d22: 85 46        	li	a3, 0x1
   17d24: 42 f8        	sd	a6, 0x30(sp)
   17d26: 52 f4        	sd	s4, 0x28(sp)
   17d28: 8d a8        	j	0x17d9a <__gdtoa+0x416>
   17d2a: 22 85        	mv	a0, s0
   17d2c: ef 10 a0 04  	jal	0x18d76 <_Bfree>
   17d30: e3 44 0b 12  	bltz	s6, 0x18658 <__gdtoa+0xcd4>
   17d34: 33 6b 69 01  	or	s6, s2, s6
   17d38: 01 2b        	sext.w	s6, s6
   17d3a: 63 17 0b 00  	bnez	s6, 0x17d48 <__gdtoa+0x3c4>
   17d3e: c2 67        	ld	a5, 0x10(sp)
   17d40: 9c 43        	lw	a5, 0x0(a5)
   17d42: 85 8b        	andi	a5, a5, 0x1
   17d44: e3 8a 07 10  	beqz	a5, 0x18658 <__gdtoa+0xcd4>
   17d48: 82 77        	ld	a5, 0x20(sp)
   17d4a: 09 47        	li	a4, 0x2
   17d4c: e3 9c e7 2a  	bne	a5, a4, 0x18804 <__gdtoa+0xe80>
   17d50: 23 80 4b 01  	sb	s4, 0x0(s7)
   17d54: ba 47        	lw	a5, 0x8c(sp)
   17d56: 85 0b        	addi	s7, s7, 0x1
   17d58: e3 80 b7 23  	beq	a5, s11, 0x18778 <__gdtoa+0xdf4>
   17d5c: e2 85        	mv	a1, s8
   17d5e: 81 46        	li	a3, 0x0
   17d60: 29 46        	li	a2, 0xa
   17d62: 22 85        	mv	a0, s0
   17d64: ef 10 40 02  	jal	0x18d88 <__multadd>
   17d68: 2a 8c        	mv	s8, a0
   17d6a: 63 01 05 1a  	beqz	a0, 0x17f0c <__gdtoa+0x588>
   17d6e: 81 46        	li	a3, 0x0
   17d70: 29 46        	li	a2, 0xa
   17d72: d6 85        	mv	a1, s5
   17d74: 22 85        	mv	a0, s0
   17d76: 63 8b 9a 4a  	beq	s5, s1, 0x1822c <__gdtoa+0x8a8>
   17d7a: ef 10 e0 00  	jal	0x18d88 <__multadd>
   17d7e: aa 8a        	mv	s5, a0
   17d80: 63 06 05 18  	beqz	a0, 0x17f0c <__gdtoa+0x588>
   17d84: a6 85        	mv	a1, s1
   17d86: 81 46        	li	a3, 0x0
   17d88: 29 46        	li	a2, 0xa
   17d8a: 22 85        	mv	a0, s0
   17d8c: ef 00 d0 7f  	jal	0x18d88 <__multadd>
   17d90: aa 84        	mv	s1, a0
   17d92: 63 0d 05 16  	beqz	a0, 0x17f0c <__gdtoa+0x588>
   17d96: ba 46        	lw	a3, 0x8c(sp)
   17d98: 85 26        	addiw	a3, a3, 0x1
   17d9a: ea 85        	mv	a1, s10
   17d9c: 62 85        	mv	a0, s8
   17d9e: 36 c7        	sw	a3, 0x8c(sp)
   17da0: ef 00 10 4e  	jal	0x18a80 <__quorem_D2A>
   17da4: 1b 0a 05 03  	addiw	s4, a0, 0x30
   17da8: d6 85        	mv	a1, s5
   17daa: aa 8c        	mv	s9, a0
   17dac: 62 85        	mv	a0, s8
   17dae: ef 10 40 6a  	jal	0x19452 <__mcmp>
   17db2: ea 85        	mv	a1, s10
   17db4: 2a 8b        	mv	s6, a0
   17db6: 26 86        	mv	a2, s1
   17db8: 22 85        	mv	a0, s0
   17dba: ef 10 00 6d  	jal	0x1948a <__mdiff>
   17dbe: d2 89        	mv	s3, s4
   17dc0: aa 85        	mv	a1, a0
   17dc2: 63 05 05 14  	beqz	a0, 0x17f0c <__gdtoa+0x588>
   17dc6: 1c 49        	lw	a5, 0x10(a0)
   17dc8: ad f3        	bnez	a5, 0x17d2a <__gdtoa+0x3a6>
   17dca: 2a ec        	sd	a0, 0x18(sp)
   17dcc: 62 85        	mv	a0, s8
   17dce: ef 10 40 68  	jal	0x19452 <__mcmp>
   17dd2: e2 65        	ld	a1, 0x18(sp)
   17dd4: aa 86        	mv	a3, a0
   17dd6: 22 85        	mv	a0, s0
   17dd8: 36 ec        	sd	a3, 0x18(sp)
   17dda: ef 00 d0 79  	jal	0x18d76 <_Bfree>
   17dde: e2 66        	ld	a3, 0x18(sp)
   17de0: 33 67 d9 00  	or	a4, s2, a3
   17de4: 01 27        	sext.w	a4, a4
   17de6: e3 18 07 38  	bnez	a4, 0x18976 <__gdtoa+0xff2>
   17dea: c2 67        	ld	a5, 0x10(sp)
   17dec: 9c 43        	lw	a5, 0x0(a5)
   17dee: 85 8b        	andi	a5, a5, 0x1
   17df0: 63 95 07 44  	bnez	a5, 0x1823a <__gdtoa+0x8b6>
   17df4: 82 77        	ld	a5, 0x20(sp)
   17df6: e3 8c 07 2a  	beqz	a5, 0x188ae <__gdtoa+0xf2a>
   17dfa: e3 4b 60 f5  	bgtz	s6, 0x17d50 <__gdtoa+0x3cc>
   17dfe: 03 26 4c 01  	lw	a2, 0x14(s8)
   17e02: 26 ec        	sd	s1, 0x18(sp)
   17e04: 85 46        	li	a3, 0x1
   17e06: 52 83        	mv	t1, s4
   17e08: 42 78        	ld	a6, 0x30(sp)
   17e0a: 22 7a        	ld	s4, 0x28(sp)
   17e0c: 86 64        	ld	s1, 0x40(sp)
   17e0e: ba 89        	mv	s3, a4
   17e10: e3 d0 c6 34  	bge	a3, a2, 0x18950 <__gdtoa+0xfcc>
   17e14: 82 77        	ld	a5, 0x20(sp)
   17e16: 89 46        	li	a3, 0x2
   17e18: e3 8f d7 30  	beq	a5, a3, 0x18936 <__gdtoa+0xfb2>
   17e1c: 62 6b        	ld	s6, 0x18(sp)
   17e1e: 9a 89        	mv	s3, t1
   17e20: c2 8d        	mv	s11, a6
   17e22: 29 a8        	j	0x17e3c <__gdtoa+0x4b8>
   17e24: ef 00 50 76  	jal	0x18d88 <__multadd>
   17e28: ea 85        	mv	a1, s10
   17e2a: 2a 8c        	mv	s8, a0
   17e2c: 63 00 05 0e  	beqz	a0, 0x17f0c <__gdtoa+0x588>
   17e30: ef 00 10 45  	jal	0x18a80 <__quorem_D2A>
   17e34: 9b 09 05 03  	addiw	s3, a0, 0x30
   17e38: e6 8b        	mv	s7, s9
   17e3a: 4a 8b        	mv	s6, s2
   17e3c: da 85        	mv	a1, s6
   17e3e: 6a 85        	mv	a0, s10
   17e40: ef 10 20 61  	jal	0x19452 <__mcmp>
   17e44: aa 87        	mv	a5, a0
   17e46: 81 46        	li	a3, 0x0
   17e48: 29 46        	li	a2, 0xa
   17e4a: da 85        	mv	a1, s6
   17e4c: 22 85        	mv	a0, s0
   17e4e: 93 8c 1b 00  	addi	s9, s7, 0x1
   17e52: e3 57 f0 2c  	blez	a5, 0x18920 <__gdtoa+0xf9c>
   17e56: a3 8f 3c ff  	sb	s3, -0x1(s9)
   17e5a: ef 00 f0 72  	jal	0x18d88 <__multadd>
   17e5e: 2a 89        	mv	s2, a0
   17e60: 81 46        	li	a3, 0x0
   17e62: 29 46        	li	a2, 0xa
   17e64: e2 85        	mv	a1, s8
   17e66: 22 85        	mv	a0, s0
   17e68: 63 02 09 0a  	beqz	s2, 0x17f0c <__gdtoa+0x588>
   17e6c: e3 9c 6a fb  	bne	s5, s6, 0x17e24 <__gdtoa+0x4a0>
   17e70: ca 8a        	mv	s5, s2
   17e72: 4d bf        	j	0x17e24 <__gdtoa+0x4a0>
   17e74: 91 47        	li	a5, 0x4
   17e76: 63 13 f3 0a  	bne	t1, a5, 0x17f1c <__gdtoa+0x598>
   17e7a: 22 66        	ld	a2, 0x8(sp)
   17e7c: ee 69        	ld	s3, 0xd8(sp)
   17e7e: ee 70        	ld	ra, 0xf8(sp)
   17e80: ae 74        	ld	s1, 0xe8(sp)
   17e82: 4e 6a        	ld	s4, 0xd0(sp)
   17e84: aa 7c        	ld	s9, 0xa8(sp)
   17e86: e1 77        	lui	a5, 0xffff8
   17e88: 23 a0 f8 00  	sw	a5, 0x0(a7)
   17e8c: f5 65        	lui	a1, 0x1d
   17e8e: 8d 46        	li	a3, 0x3
   17e90: 93 85 85 cd  	addi	a1, a1, -0x328
   17e94: 11 61        	addi	sp, sp, 0x100
   17e96: 6f 00 10 36  	j	0x189f6 <__nrv_alloc_D2A>
   17e9a: e2 85        	mv	a1, s8
   17e9c: 22 85        	mv	a0, s0
   17e9e: ef 00 90 6d  	jal	0x18d76 <_Bfree>
   17ea2: 0e 79        	ld	s2, 0xe0(sp)
   17ea4: ae 6a        	ld	s5, 0xc8(sp)
   17ea6: 0e 6b        	ld	s6, 0xc0(sp)
   17ea8: ea 7b        	ld	s7, 0xb8(sp)
   17eaa: 4a 7c        	ld	s8, 0xb0(sp)
   17eac: 0a 7d        	ld	s10, 0xa0(sp)
   17eae: ea 6d        	ld	s11, 0x98(sp)
   17eb0: 22 66        	ld	a2, 0x8(sp)
   17eb2: 85 47        	li	a5, 0x1
   17eb4: f5 65        	lui	a1, 0x1d
   17eb6: 22 85        	mv	a0, s0
   17eb8: 9c c0        	sw	a5, 0x0(s1)
   17eba: 85 46        	li	a3, 0x1
   17ebc: 93 85 85 ca  	addi	a1, a1, -0x358
   17ec0: ef 00 70 33  	jal	0x189f6 <__nrv_alloc_D2A>
   17ec4: 4e 74        	ld	s0, 0xf0(sp)
   17ec6: 2a 88        	mv	a6, a0
   17ec8: ee 70        	ld	ra, 0xf8(sp)
   17eca: ee 69        	ld	s3, 0xd8(sp)
   17ecc: ae 74        	ld	s1, 0xe8(sp)
   17ece: 4e 6a        	ld	s4, 0xd0(sp)
   17ed0: aa 7c        	ld	s9, 0xa8(sp)
   17ed2: 42 85        	mv	a0, a6
   17ed4: 11 61        	addi	sp, sp, 0x100
   17ed6: 82 80        	ret
   17ed8: 22 66        	ld	a2, 0x8(sp)
   17eda: ee 70        	ld	ra, 0xf8(sp)
   17edc: ae 74        	ld	s1, 0xe8(sp)
   17ede: 4e 6a        	ld	s4, 0xd0(sp)
   17ee0: aa 7c        	ld	s9, 0xa8(sp)
   17ee2: e1 77        	lui	a5, 0xffff8
   17ee4: 23 a0 f8 00  	sw	a5, 0x0(a7)
   17ee8: f5 65        	lui	a1, 0x1d
   17eea: a1 46        	li	a3, 0x8
   17eec: 93 85 85 cc  	addi	a1, a1, -0x338
   17ef0: 11 61        	addi	sp, sp, 0x100
   17ef2: 6f 00 50 30  	j	0x189f6 <__nrv_alloc_D2A>
   17ef6: ea 85        	mv	a1, s10
   17ef8: 22 85        	mv	a0, s0
   17efa: 42 ec        	sd	a6, 0x18(sp)
   17efc: 1a e8        	sd	t1, 0x10(sp)
   17efe: ef 10 00 43  	jal	0x1932e <__lshift>
   17f02: 42 63        	ld	t1, 0x10(sp)
   17f04: 62 68        	ld	a6, 0x18(sp)
   17f06: 2a 8d        	mv	s10, a0
   17f08: e3 18 05 de  	bnez	a0, 0x17cf8 <__gdtoa+0x374>
   17f0c: 4e 74        	ld	s0, 0xf0(sp)
   17f0e: 0e 79        	ld	s2, 0xe0(sp)
   17f10: ae 6a        	ld	s5, 0xc8(sp)
   17f12: 0e 6b        	ld	s6, 0xc0(sp)
   17f14: ea 7b        	ld	s7, 0xb8(sp)
   17f16: 4a 7c        	ld	s8, 0xb0(sp)
   17f18: 0a 7d        	ld	s10, 0xa0(sp)
   17f1a: ea 6d        	ld	s11, 0x98(sp)
   17f1c: 01 48        	li	a6, 0x0
   17f1e: 6d b7        	j	0x17ec8 <__gdtoa+0x544>
   17f20: 23 2a 0c 00  	sw	zero, 0x14(s8)
   17f24: 3d be        	j	0x17a62 <__gdtoa+0xde>
   17f26: 05 47        	li	a4, 0x1
   17f28: ba f8        	sd	a4, 0x70(sp)
   17f2a: 02 ec        	sd	zero, 0x18(sp)
   17f2c: 63 43 0e 1a  	bltz	t3, 0x180d2 <__gdtoa+0x74e>
   17f30: e3 58 03 c2  	bgez	t1, 0x17b60 <__gdtoa+0x1dc>
   17f34: 62 67        	ld	a4, 0x18(sp)
   17f36: 1a fc        	sd	t1, 0x38(sp)
   17f38: 3b 07 67 40  	subw	a4, a4, t1
   17f3c: 3a ec        	sd	a4, 0x18(sp)
   17f3e: 3b 07 60 40  	negw	a4, t1
   17f42: 3a f8        	sd	a4, 0x30(sp)
   17f44: 01 43        	li	t1, 0x0
   17f46: 0d b1        	j	0x17b68 <__gdtoa+0x1e4>
   17f48: aa 85        	mv	a1, a0
   17f4a: 62 85        	mv	a0, s8
   17f4c: ef 00 50 4a  	jal	0x18bf0 <__rshift_D2A>
   17f50: ba 46        	lw	a3, 0x8c(sp)
   17f52: c2 67        	ld	a5, 0x10(sp)
   17f54: 3b 86 f6 00  	addw	a2, a3, a5
   17f58: e2 67        	ld	a5, 0x18(sp)
   17f5a: 95 9f        	subw	a5, a5, a3
   17f5c: 21 be        	j	0x17a74 <__gdtoa+0xf0>
   17f5e: 9b 8a da 3f  	addiw	s5, s5, 0x3fd
   17f62: 93 ba 8a 7f  	sltiu	s5, s5, 0x7f8
   17f66: 01 49        	li	s2, 0x0
   17f68: 07 b7 01 0f  	fld	fa4, 0xf0(gp)
   17f6c: d3 07 0d d2  	fcvt.d.w	fa5, s10
   17f70: 05 47        	li	a4, 0x1
   17f72: ba e0        	sd	a4, 0x40(sp)
   17f74: d3 f7 e7 12  	fmul.d	fa5, fa5, fa4
   17f78: 7d 57        	li	a4, -0x1
   17f7a: 81 4b        	li	s7, 0x0
   17f7c: ba fc        	sd	a4, 0x78(sp)
   17f7e: 3a f4        	sd	a4, 0x28(sp)
   17f80: d3 95 07 c2  	fcvt.w.d	a1, fa5, rtz
   17f84: 8d 25        	addiw	a1, a1, 0x3
   17f86: ae 88        	mv	a7, a1
   17f88: 0d b1        	j	0x17baa <__gdtoa+0x226>
   17f8a: 02 77        	ld	a4, 0x20(sp)
   17f8c: 8d 45        	li	a1, 0x3
   17f8e: 3b 87 e5 40  	subw	a4, a1, a4
   17f92: 3a f0        	sd	a4, 0x20(sp)
   17f94: 22 77        	ld	a4, 0x28(sp)
   17f96: 39 45        	li	a0, 0xe
   17f98: 9b 05 07 00  	sext.w	a1, a4
   17f9c: e3 64 b5 c4  	bltu	a0, a1, 0x17be4 <__gdtoa+0x260>
   17fa0: e3 82 0a c4  	beqz	s5, 0x17be4 <__gdtoa+0x260>
   17fa4: e2 75        	ld	a1, 0x38(sp)
   17fa6: 02 75        	ld	a0, 0x20(sp)
   17fa8: c9 8d        	or	a1, a1, a0
   17faa: 81 25        	sext.w	a1, a1
   17fac: e3 9c 05 c2  	bnez	a1, 0x17be4 <__gdtoa+0x260>
   17fb0: c6 75        	ld	a1, 0x70(sp)
   17fb2: 02 c7        	sw	zero, 0x8c(sp)
   17fb4: b6 8e        	mv	t4, a3
   17fb6: 89 c9        	beqz	a1, 0x17fc8 <__gdtoa+0x644>
   17fb8: 87 b7 81 dd  	fld	fa5, -0x228(gp)
   17fbc: 53 87 06 f2  	fmv.d.x	fa4, a3
   17fc0: d3 15 f7 a2  	flt.d	a1, fa4, fa5
   17fc4: 63 92 05 7c  	bnez	a1, 0x18788 <__gdtoa+0xe04>
   17fc8: 07 b7 81 df  	fld	fa4, -0x208(gp)
   17fcc: 87 b7 01 10  	fld	fa5, 0x100(gp)
   17fd0: d3 86 0e f2  	fmv.d.x	fa3, t4
   17fd4: b7 05 c0 fc  	lui	a1, 0xfcc00
   17fd8: 22 77        	ld	a4, 0x28(sp)
   17fda: c3 f7 e6 7a  	fmadd.d	fa5, fa3, fa4, fa5
   17fde: 53 85 07 e2  	fmv.x.d	a0, fa5
   17fe2: 13 5f 05 02  	srli	t5, a0, 0x20
   17fe6: bb 85 e5 01  	addw	a1, a1, t5
   17fea: 7d 5f        	li	t5, -0x1
   17fec: 13 5f 0f 02  	srli	t5, t5, 0x20
   17ff0: 82 15        	slli	a1, a1, 0x20
   17ff2: 33 7f af 00  	and	t5, t5, a0
   17ff6: 33 6f bf 00  	or	t5, t5, a1
   17ffa: 63 07 07 4c  	beqz	a4, 0x184c8 <__gdtoa+0xb44>
   17ffe: a2 7f        	ld	t6, 0x28(sp)
   18000: 76 85        	mv	a0, t4
   18002: 81 43        	li	t2, 0x0
   18004: f5 65        	lui	a1, 0x1d
   18006: 9b 82 ff ff  	addiw	t0, t6, -0x1
   1800a: 06 67        	ld	a4, 0x40(sp)
   1800c: 93 85 85 34  	addi	a1, a1, 0x348
   18010: 8e 02        	slli	t0, t0, 0x3
   18012: ae 92        	add	t0, t0, a1
   18014: 87 b7 02 00  	fld	fa5, 0x0(t0)
   18018: 63 0a 07 6c  	beqz	a4, 0x186ec <__gdtoa+0xd68>
   1801c: 53 07 05 f2  	fmv.d.x	fa4, a0
   18020: d3 06 05 f2  	fmv.d.x	fa3, a0
   18024: d3 16 07 c2  	fcvt.w.d	a3, fa4, rtz
   18028: 07 b7 01 eb  	fld	fa4, -0x150(gp)
   1802c: 93 0c 18 00  	addi	s9, a6, 0x1
   18030: 53 77 f7 1a  	fdiv.d	fa4, fa4, fa5
   18034: d3 87 06 d2  	fcvt.d.w	fa5, a3
   18038: 9b 86 06 03  	addiw	a3, a3, 0x30
   1803c: 23 00 d8 00  	sb	a3, 0x0(a6)
   18040: d3 f7 f6 0a  	fsub.d	fa5, fa3, fa5
   18044: d3 06 0f f2  	fmv.d.x	fa3, t5
   18048: 53 77 d7 0a  	fsub.d	fa4, fa4, fa3
   1804c: d3 96 e7 a2  	flt.d	a3, fa5, fa4
   18050: e3 9a 06 00  	bnez	a3, 0x18864 <__gdtoa+0xee0>
   18054: 87 b5 81 dd  	fld	fa1, -0x228(gp)
   18058: 07 b6 81 0f  	fld	fa2, 0xf8(gp)
   1805c: 0d a8        	j	0x1808e <__gdtoa+0x70a>
   1805e: 3a 47        	lw	a4, 0x8c(sp)
   18060: 85 0c        	addi	s9, s9, 0x1
   18062: 05 27        	addiw	a4, a4, 0x1
   18064: 3a c7        	sw	a4, 0x8c(sp)
   18066: e3 5c f7 01  	bge	a4, t6, 0x1887e <__gdtoa+0xefa>
   1806a: d3 f7 c7 12  	fmul.d	fa5, fa5, fa2
   1806e: 53 77 c7 12  	fmul.d	fa4, fa4, fa2
   18072: 53 97 07 c2  	fcvt.w.d	a4, fa5, rtz
   18076: d3 06 07 d2  	fcvt.d.w	fa3, a4
   1807a: 1b 07 07 03  	addiw	a4, a4, 0x30
   1807e: a3 8f ec fe  	sb	a4, -0x1(s9)
   18082: d3 f7 d7 0a  	fsub.d	fa5, fa5, fa3
   18086: 53 97 e7 a2  	flt.d	a4, fa5, fa4
   1808a: 63 1d 07 7c  	bnez	a4, 0x18864 <__gdtoa+0xee0>
   1808e: d3 f6 f5 0a  	fsub.d	fa3, fa1, fa5
   18092: 53 97 e6 a2  	flt.d	a4, fa3, fa4
   18096: 61 d7        	beqz	a4, 0x1805e <__gdtoa+0x6da>
   18098: 83 c6 fc ff  	lbu	a3, -0x1(s9)
   1809c: 9b 85 13 00  	addiw	a1, t2, 0x1
   180a0: 13 06 90 03  	li	a2, 0x39
   180a4: 31 a0        	j	0x180b0 <__gdtoa+0x72c>
   180a6: 63 0f f8 62  	beq	a6, a5, 0x186e4 <__gdtoa+0xd60>
   180aa: 83 c6 f7 ff  	lbu	a3, -0x1(a5)
   180ae: be 8c        	mv	s9, a5
   180b0: 93 87 fc ff  	addi	a5, s9, -0x1
   180b4: e3 89 c6 fe  	beq	a3, a2, 0x180a6 <__gdtoa+0x722>
   180b8: 85 26        	addiw	a3, a3, 0x1
   180ba: 93 f6 f6 0f  	andi	a3, a3, 0xff
   180be: 23 80 d7 00  	sb	a3, 0x0(a5)
   180c2: 1b 89 05 00  	sext.w	s2, a1
   180c6: 93 09 00 02  	li	s3, 0x20
   180ca: c5 a0        	j	0x181aa <__gdtoa+0x826>
   180cc: 4e 74        	ld	s0, 0xf0(sp)
   180ce: 0e 79        	ld	s2, 0xe0(sp)
   180d0: 89 b5        	j	0x17f12 <__gdtoa+0x58e>
   180d2: 85 45        	li	a1, 0x1
   180d4: 3b 87 15 41  	subw	a4, a1, a7
   180d8: 3a ec        	sd	a4, 0x18(sp)
   180da: 01 4e        	li	t3, 0x0
   180dc: e3 4c 03 e4  	bltz	t1, 0x17f34 <__gdtoa+0x5b0>
   180e0: 41 b4        	j	0x17b60 <__gdtoa+0x1dc>
   180e2: 42 7d        	ld	s10, 0x30(sp)
   180e4: e2 6c        	ld	s9, 0x18(sp)
   180e6: 81 4a        	li	s5, 0x0
   180e8: ad be        	j	0x17c62 <__gdtoa+0x2de>
   180ea: 09 47        	li	a4, 0x2
   180ec: 3a f0        	sd	a4, 0x20(sp)
   180ee: fd b4        	j	0x17bdc <__gdtoa+0x258>
   180f0: 71 39        	addiw	s2, s2, -0x4
   180f2: 11 45        	li	a0, 0x4
   180f4: 63 0f a9 10  	beq	s2, a0, 0x18212 <__gdtoa+0x88e>
   180f8: 63 0e b9 48  	beq	s2, a1, 0x18594 <__gdtoa+0xc10>
   180fc: 89 45        	li	a1, 0x2
   180fe: 82 e0        	sd	zero, 0x40(sp)
   18100: 81 4a        	li	s5, 0x0
   18102: 63 0b b9 10  	beq	s2, a1, 0x18218 <__gdtoa+0x894>
   18106: 0d 49        	li	s2, 0x3
   18108: 71 b4        	j	0x17b94 <__gdtoa+0x210>
   1810a: 7d 33        	addiw	t1, t1, -0x1
   1810c: 82 f8        	sd	zero, 0x70(sp)
   1810e: 31 bd        	j	0x17f2a <__gdtoa+0x5a6>
   18110: f5 67        	lui	a5, 0x1d
   18112: 13 16 37 00  	slli	a2, a4, 0x3
   18116: 93 87 87 34  	addi	a5, a5, 0x348
   1811a: b2 97        	add	a5, a5, a2
   1811c: 98 23        	fld	fa4, 0x0(a5)
   1811e: 63 ca 0b 32  	bltz	s7, 0x18452 <__gdtoa+0xace>
   18122: d3 87 06 f2  	fmv.d.x	fa5, a3
   18126: 85 47        	li	a5, 0x1
   18128: 3e c7        	sw	a5, 0x8c(sp)
   1812a: d3 f7 e7 1a  	fdiv.d	fa5, fa5, fa4
   1812e: e2 77        	ld	a5, 0x38(sp)
   18130: d3 86 06 f2  	fmv.d.x	fa3, a3
   18134: 93 0c 18 00  	addi	s9, a6, 0x1
   18138: 1b 89 17 00  	addiw	s2, a5, 0x1
   1813c: ca 85        	mv	a1, s2
   1813e: d3 97 07 c2  	fcvt.w.d	a5, fa5, rtz
   18142: d3 87 07 d2  	fcvt.d.w	fa5, a5
   18146: 1b 86 07 03  	addiw	a2, a5, 0x30
   1814a: 23 00 c8 00  	sb	a2, 0x0(a6)
   1814e: cb 77 f7 6a  	fnmsub.d	fa5, fa4, fa5, fa3
   18152: d3 06 00 f2  	fmv.d.x	fa3, zero
   18156: 81 27        	sext.w	a5, a5
   18158: d3 a6 d7 a2  	feq.d	a3, fa5, fa3
   1815c: b9 e6        	bnez	a3, 0x181aa <__gdtoa+0x826>
   1815e: 87 b5 81 0f  	fld	fa1, 0xf8(gp)
   18162: 53 86 d6 22  	fmv.d	fa2, fa3
   18166: 22 76        	ld	a2, 0x28(sp)
   18168: 2d a0        	j	0x18192 <__gdtoa+0x80e>
   1816a: d3 f7 b7 12  	fmul.d	fa5, fa5, fa1
   1816e: 36 c7        	sw	a3, 0x8c(sp)
   18170: 85 0c        	addi	s9, s9, 0x1
   18172: d3 f6 e7 1a  	fdiv.d	fa3, fa5, fa4
   18176: d3 97 06 c2  	fcvt.w.d	a5, fa3, rtz
   1817a: d3 86 07 d2  	fcvt.d.w	fa3, a5
   1817e: 1b 87 07 03  	addiw	a4, a5, 0x30
   18182: a3 8f ec fe  	sb	a4, -0x1(s9)
   18186: cb f7 e6 7a  	fnmsub.d	fa5, fa3, fa4, fa5
   1818a: 81 27        	sext.w	a5, a5
   1818c: 53 a7 c7 a2  	feq.d	a4, fa5, fa2
   18190: 09 ef        	bnez	a4, 0x181aa <__gdtoa+0x826>
   18192: 3a 47        	lw	a4, 0x8c(sp)
   18194: 9b 06 17 00  	addiw	a3, a4, 0x1
   18198: e3 19 c7 fc  	bne	a4, a2, 0x1816a <__gdtoa+0x7e6>
   1819c: 02 77        	ld	a4, 0x20(sp)
   1819e: 63 08 07 50  	beqz	a4, 0x186ae <__gdtoa+0xd2a>
   181a2: 85 47        	li	a5, 0x1
   181a4: c1 49        	li	s3, 0x10
   181a6: 63 08 f7 62  	beq	a4, a5, 0x187d6 <__gdtoa+0xe52>
   181aa: e2 85        	mv	a1, s8
   181ac: 22 85        	mv	a0, s0
   181ae: 42 e8        	sd	a6, 0x10(sp)
   181b0: ef 00 70 3c  	jal	0x18d76 <_Bfree>
   181b4: a2 67        	ld	a5, 0x8(sp)
   181b6: 23 80 0c 00  	sb	zero, 0x0(s9)
   181ba: 23 a0 24 01  	sw	s2, 0x0(s1)
   181be: 42 68        	ld	a6, 0x10(sp)
   181c0: 99 c3        	beqz	a5, 0x181c6 <__gdtoa+0x842>
   181c2: 23 b0 97 01  	sd	s9, 0x0(a5)
   181c6: 83 27 0a 00  	lw	a5, 0x0(s4)
   181ca: 4e 74        	ld	s0, 0xf0(sp)
   181cc: 0e 79        	ld	s2, 0xe0(sp)
   181ce: b3 e7 f9 00  	or	a5, s3, a5
   181d2: ae 6a        	ld	s5, 0xc8(sp)
   181d4: 0e 6b        	ld	s6, 0xc0(sp)
   181d6: ea 7b        	ld	s7, 0xb8(sp)
   181d8: 4a 7c        	ld	s8, 0xb0(sp)
   181da: 0a 7d        	ld	s10, 0xa0(sp)
   181dc: ea 6d        	ld	s11, 0x98(sp)
   181de: 23 20 fa 00  	sw	a5, 0x0(s4)
   181e2: dd b1        	j	0x17ec8 <__gdtoa+0x544>
   181e4: e3 99 d7 ae  	bne	a5, a3, 0x17cd6 <__gdtoa+0x352>
   181e8: 83 27 4b 00  	lw	a5, 0x4(s6)
   181ec: 42 67        	ld	a4, 0x10(sp)
   181ee: 85 27        	addiw	a5, a5, 0x1
   181f0: e3 d3 e7 ae  	bge	a5, a4, 0x17cd6 <__gdtoa+0x352>
   181f4: e2 67        	ld	a5, 0x18(sp)
   181f6: 05 2e        	addiw	t3, t3, 0x1
   181f8: 05 43        	li	t1, 0x1
   181fa: 85 27        	addiw	a5, a5, 0x1
   181fc: 3e ec        	sd	a5, 0x18(sp)
   181fe: e1 bc        	j	0x17cd6 <__gdtoa+0x352>
   18200: 53 07 05 d2  	fcvt.d.w	fa4, a0
   18204: d3 25 f7 a2  	feq.d	a1, fa4, fa5
   18208: e3 94 05 90  	bnez	a1, 0x17b10 <__gdtoa+0x18c>
   1820c: 1b 03 f5 ff  	addiw	t1, a0, -0x1
   18210: 01 b2        	j	0x17b10 <__gdtoa+0x18c>
   18212: 05 47        	li	a4, 0x1
   18214: 81 4a        	li	s5, 0x0
   18216: ba e0        	sd	a4, 0x40(sp)
   18218: 9b 85 0b 00  	sext.w	a1, s7
   1821c: 63 43 70 01  	bgtz	s7, 0x18222 <__gdtoa+0x89e>
   18220: 85 45        	li	a1, 0x1
   18222: ae 88        	mv	a7, a1
   18224: ae fc        	sd	a1, 0x78(sp)
   18226: 2e f4        	sd	a1, 0x28(sp)
   18228: ae 8b        	mv	s7, a1
   1822a: 41 b2        	j	0x17baa <__gdtoa+0x226>
   1822c: ef 00 d0 35  	jal	0x18d88 <__multadd>
   18230: aa 8a        	mv	s5, a0
   18232: e3 0d 05 cc  	beqz	a0, 0x17f0c <__gdtoa+0x588>
   18236: aa 84        	mv	s1, a0
   18238: b9 be        	j	0x17d96 <__gdtoa+0x412>
   1823a: e3 5b 0b b0  	bgez	s6, 0x17d50 <__gdtoa+0x3cc>
   1823e: 82 77        	ld	a5, 0x20(sp)
   18240: 26 ec        	sd	s1, 0x18(sp)
   18242: 52 83        	mv	t1, s4
   18244: 42 78        	ld	a6, 0x30(sp)
   18246: 22 7a        	ld	s4, 0x28(sp)
   18248: 86 64        	ld	s1, 0x40(sp)
   1824a: ba 89        	mv	s3, a4
   1824c: 63 9d 07 6e  	bnez	a5, 0x18946 <__gdtoa+0xfc2>
   18250: 03 26 4c 01  	lw	a2, 0x14(s8)
   18254: 85 46        	li	a3, 0x1
   18256: c1 49        	li	s3, 0x10
   18258: 93 8c 1b 00  	addi	s9, s7, 0x1
   1825c: 63 da c6 68  	bge	a3, a2, 0x188f0 <__gdtoa+0xf6c>
   18260: 23 80 6b 00  	sb	t1, 0x0(s7)
   18264: 56 8b        	mv	s6, s5
   18266: e2 6a        	ld	s5, 0x18(sp)
   18268: ea 85        	mv	a1, s10
   1826a: 22 85        	mv	a0, s0
   1826c: 42 e8        	sd	a6, 0x10(sp)
   1826e: ef 00 90 30  	jal	0x18d76 <_Bfree>
   18272: e2 77        	ld	a5, 0x38(sp)
   18274: 42 68        	ld	a6, 0x10(sp)
   18276: 1b 89 17 00  	addiw	s2, a5, 0x1
   1827a: e3 88 0a f2  	beqz	s5, 0x181aa <__gdtoa+0x826>
   1827e: 63 09 0b 00  	beqz	s6, 0x18290 <__gdtoa+0x90c>
   18282: 63 07 5b 01  	beq	s6, s5, 0x18290 <__gdtoa+0x90c>
   18286: da 85        	mv	a1, s6
   18288: 22 85        	mv	a0, s0
   1828a: ef 00 d0 2e  	jal	0x18d76 <_Bfree>
   1828e: 42 68        	ld	a6, 0x10(sp)
   18290: d6 85        	mv	a1, s5
   18292: 22 85        	mv	a0, s0
   18294: 42 e8        	sd	a6, 0x10(sp)
   18296: ef 00 10 2e  	jal	0x18d76 <_Bfree>
   1829a: 42 68        	ld	a6, 0x10(sp)
   1829c: 39 b7        	j	0x181aa <__gdtoa+0x826>
   1829e: e2 85        	mv	a1, s8
   182a0: 22 85        	mv	a0, s0
   182a2: 42 f8        	sd	a6, 0x30(sp)
   182a4: 72 ec        	sd	t3, 0x18(sp)
   182a6: 1a e8        	sd	t1, 0x10(sp)
   182a8: ef 10 60 08  	jal	0x1932e <__lshift>
   182ac: 2a 8c        	mv	s8, a0
   182ae: e3 0f 05 c4  	beqz	a0, 0x17f0c <__gdtoa+0x588>
   182b2: ba 47        	lw	a5, 0x8c(sp)
   182b4: 42 78        	ld	a6, 0x30(sp)
   182b6: 62 6e        	ld	t3, 0x18(sp)
   182b8: 42 63        	ld	t1, 0x10(sp)
   182ba: 1d bc        	j	0x17cf0 <__gdtoa+0x36c>
   182bc: ea 85        	mv	a1, s10
   182be: 62 85        	mv	a0, s8
   182c0: 42 ec        	sd	a6, 0x18(sp)
   182c2: 1a e8        	sd	t1, 0x10(sp)
   182c4: ef 10 e0 18  	jal	0x19452 <__mcmp>
   182c8: 42 63        	ld	t1, 0x10(sp)
   182ca: 62 68        	ld	a6, 0x18(sp)
   182cc: e3 59 05 a2  	bgez	a0, 0x17cfe <__gdtoa+0x37a>
   182d0: e2 77        	ld	a5, 0x38(sp)
   182d2: e2 85        	mv	a1, s8
   182d4: 81 46        	li	a3, 0x0
   182d6: fd 37        	addiw	a5, a5, -0x1
   182d8: 29 46        	li	a2, 0xa
   182da: 22 85        	mv	a0, s0
   182dc: 3e fc        	sd	a5, 0x38(sp)
   182de: ef 00 b0 2a  	jal	0x18d88 <__multadd>
   182e2: 2a 8c        	mv	s8, a0
   182e4: e3 04 05 c2  	beqz	a0, 0x17f0c <__gdtoa+0x588>
   182e8: 86 67        	ld	a5, 0x40(sp)
   182ea: 62 68        	ld	a6, 0x18(sp)
   182ec: 63 90 07 54  	bnez	a5, 0x1882c <__gdtoa+0xea8>
   182f0: e6 77        	ld	a5, 0x78(sp)
   182f2: 63 5a f0 14  	blez	a5, 0x18446 <__gdtoa+0xac2>
   182f6: 3e f4        	sd	a5, 0x28(sp)
   182f8: 22 79        	ld	s2, 0x28(sp)
   182fa: c2 8b        	mv	s7, a6
   182fc: 85 46        	li	a3, 0x1
   182fe: c2 89        	mv	s3, a6
   18300: 01 a8        	j	0x18310 <__gdtoa+0x98c>
   18302: ef 00 70 28  	jal	0x18d88 <__multadd>
   18306: 2a 8c        	mv	s8, a0
   18308: e3 02 05 c0  	beqz	a0, 0x17f0c <__gdtoa+0x588>
   1830c: ba 46        	lw	a3, 0x8c(sp)
   1830e: 85 26        	addiw	a3, a3, 0x1
   18310: ea 85        	mv	a1, s10
   18312: 62 85        	mv	a0, s8
   18314: 36 c7        	sw	a3, 0x8c(sp)
   18316: ef 00 a0 76  	jal	0x18a80 <__quorem_D2A>
   1831a: 1b 03 05 03  	addiw	t1, a0, 0x30
   1831e: 23 80 6b 00  	sb	t1, 0x0(s7)
   18322: ba 47        	lw	a5, 0x8c(sp)
   18324: 81 46        	li	a3, 0x0
   18326: 29 46        	li	a2, 0xa
   18328: e2 85        	mv	a1, s8
   1832a: 22 85        	mv	a0, s0
   1832c: 85 0b        	addi	s7, s7, 0x1
   1832e: e3 ca 27 fd  	blt	a5, s2, 0x18302 <__gdtoa+0x97e>
   18332: 4e 88        	mv	a6, s3
   18334: 01 4b        	li	s6, 0x0
   18336: 82 77        	ld	a5, 0x20(sp)
   18338: 63 87 07 2c  	beqz	a5, 0x18606 <__gdtoa+0xc82>
   1833c: 89 46        	li	a3, 0x2
   1833e: 03 26 4c 01  	lw	a2, 0x14(s8)
   18342: 63 88 d7 2e  	beq	a5, a3, 0x18632 <__gdtoa+0xcae>
   18346: 85 46        	li	a3, 0x1
   18348: 63 c9 c6 20  	blt	a3, a2, 0x1855a <__gdtoa+0xbd6>
   1834c: 83 26 8c 01  	lw	a3, 0x18(s8)
   18350: 63 95 06 20  	bnez	a3, 0x1855a <__gdtoa+0xbd6>
   18354: b3 36 d0 00  	snez	a3, a3
   18358: 93 99 46 00  	slli	s3, a3, 0x4
   1835c: 13 06 00 03  	li	a2, 0x30
   18360: 83 c7 fb ff  	lbu	a5, -0x1(s7)
   18364: de 8c        	mv	s9, s7
   18366: fd 1b        	addi	s7, s7, -0x1
   18368: e3 8c c7 fe  	beq	a5, a2, 0x18360 <__gdtoa+0x9dc>
   1836c: f5 bd        	j	0x18268 <__gdtoa+0x8e4>
   1836e: 22 77        	ld	a4, 0x28(sp)
   18370: 42 76        	ld	a2, 0x30(sp)
   18372: 9b 06 f7 ff  	addiw	a3, a4, -0x1
   18376: 63 41 d6 10  	blt	a2, a3, 0x18478 <__gdtoa+0xaf4>
   1837a: 3b 0d d6 40  	subw	s10, a2, a3
   1837e: 63 5a 07 46  	bgez	a4, 0x187f2 <__gdtoa+0xe6e>
   18382: 62 67        	ld	a4, 0x18(sp)
   18384: a2 76        	ld	a3, 0x28(sp)
   18386: 02 c7        	sw	zero, 0x8c(sp)
   18388: bb 0c d7 40  	subw	s9, a4, a3
   1838c: 65 b8        	j	0x17c44 <__gdtoa+0x2c0>
   1838e: 89 47        	li	a5, 0x2
   18390: e3 da 27 97  	bge	a5, s2, 0x17d04 <__gdtoa+0x380>
   18394: ea 85        	mv	a1, s10
   18396: 81 46        	li	a3, 0x0
   18398: 15 46        	li	a2, 0x5
   1839a: 22 85        	mv	a0, s0
   1839c: 42 e8        	sd	a6, 0x10(sp)
   1839e: ef 00 b0 1e  	jal	0x18d88 <__multadd>
   183a2: aa 85        	mv	a1, a0
   183a4: e3 04 05 b6  	beqz	a0, 0x17f0c <__gdtoa+0x588>
   183a8: a2 77        	ld	a5, 0x28(sp)
   183aa: 42 68        	ld	a6, 0x10(sp)
   183ac: 63 92 07 14  	bnez	a5, 0x184f0 <__gdtoa+0xb6c>
   183b0: 2a e8        	sd	a0, 0x10(sp)
   183b2: 62 85        	mv	a0, s8
   183b4: 42 ec        	sd	a6, 0x18(sp)
   183b6: ef 10 c0 09  	jal	0x19452 <__mcmp>
   183ba: e2 77        	ld	a5, 0x38(sp)
   183bc: c2 65        	ld	a1, 0x10(sp)
   183be: 62 68        	ld	a6, 0x18(sp)
   183c0: 1b 89 27 00  	addiw	s2, a5, 0x2
   183c4: 63 56 a0 12  	blez	a0, 0x184f0 <__gdtoa+0xb6c>
   183c8: 93 07 10 03  	li	a5, 0x31
   183cc: 93 0c 18 00  	addi	s9, a6, 0x1
   183d0: 23 00 f8 00  	sb	a5, 0x0(a6)
   183d4: 93 09 00 02  	li	s3, 0x20
   183d8: 22 85        	mv	a0, s0
   183da: 42 e8        	sd	a6, 0x10(sp)
   183dc: ef 00 b0 19  	jal	0x18d76 <_Bfree>
   183e0: 42 68        	ld	a6, 0x10(sp)
   183e2: e3 84 0a dc  	beqz	s5, 0x181aa <__gdtoa+0x826>
   183e6: 6d b5        	j	0x18290 <__gdtoa+0x90c>
   183e8: 85 48        	li	a7, 0x1
   183ea: 85 45        	li	a1, 0x1
   183ec: 6f f0 ef fb  	j	0x17baa <__gdtoa+0x226>
   183f0: aa 85        	mv	a1, a0
   183f2: 1a 86        	mv	a2, t1
   183f4: 22 85        	mv	a0, s0
   183f6: c2 e4        	sd	a6, 0x48(sp)
   183f8: 72 f8        	sd	t3, 0x30(sp)
   183fa: ef 00 10 66  	jal	0x1925a <__pow5mult>
   183fe: 2a 8d        	mv	s10, a0
   18400: e3 06 05 b0  	beqz	a0, 0x17f0c <__gdtoa+0x588>
   18404: 85 46        	li	a3, 0x1
   18406: 42 7e        	ld	t3, 0x30(sp)
   18408: 26 68        	ld	a6, 0x48(sp)
   1840a: 63 d3 26 1b  	bge	a3, s2, 0x185b0 <__gdtoa+0xc2c>
   1840e: 83 27 4d 01  	lw	a5, 0x14(s10)
   18412: 42 f8        	sd	a6, 0x30(sp)
   18414: 72 e8        	sd	t3, 0x10(sp)
   18416: fd 37        	addiw	a5, a5, -0x1
   18418: 91 07        	addi	a5, a5, 0x4
   1841a: 8a 07        	slli	a5, a5, 0x2
   1841c: ea 97        	add	a5, a5, s10
   1841e: 88 47        	lw	a0, 0x8(a5)
   18420: ef 00 50 33  	jal	0x18f54 <__hi0bits>
   18424: 42 78        	ld	a6, 0x30(sp)
   18426: 42 6e        	ld	t3, 0x10(sp)
   18428: 4e 83        	mv	t1, s3
   1842a: 6f f0 ff 8a  	j	0x17cd8 <__gdtoa+0x354>
   1842e: 85 46        	li	a3, 0x1
   18430: e3 cf 26 f3  	blt	a3, s2, 0x1836e <__gdtoa+0x9ea>
   18434: 62 67        	ld	a4, 0x18(sp)
   18436: 42 7d        	ld	s10, 0x30(sp)
   18438: 3b 8e c5 01  	addw	t3, a1, t3
   1843c: ba 8c        	mv	s9, a4
   1843e: 2d 9f        	addw	a4, a4, a1
   18440: 3a ec        	sd	a4, 0x18(sp)
   18442: 6f f0 3f 80  	j	0x17c44 <__gdtoa+0x2c0>
   18446: 89 47        	li	a5, 0x2
   18448: 63 ca 27 4b  	blt	a5, s2, 0x188fc <__gdtoa+0xf78>
   1844c: e6 77        	ld	a5, 0x78(sp)
   1844e: 3e f4        	sd	a5, 0x28(sp)
   18450: 65 b5        	j	0x182f8 <__gdtoa+0x974>
   18452: a2 77        	ld	a5, 0x28(sp)
   18454: e3 47 f0 cc  	bgtz	a5, 0x18122 <__gdtoa+0x79e>
   18458: d1 eb        	bnez	a5, 0x184ec <__gdtoa+0xb68>
   1845a: 87 b7 81 10  	fld	fa5, 0x108(gp)
   1845e: 53 77 f7 12  	fmul.d	fa4, fa4, fa5
   18462: d3 87 06 f2  	fmv.d.x	fa5, a3
   18466: d3 87 e7 a2  	fle.d	a5, fa5, fa4
   1846a: c9 e3        	bnez	a5, 0x184ec <__gdtoa+0xb68>
   1846c: e2 77        	ld	a5, 0x38(sp)
   1846e: 81 45        	li	a1, 0x0
   18470: 81 4a        	li	s5, 0x0
   18472: 1b 89 27 00  	addiw	s2, a5, 0x2
   18476: 89 bf        	j	0x183c8 <__gdtoa+0xa44>
   18478: 42 77        	ld	a4, 0x30(sp)
   1847a: e2 65        	ld	a1, 0x18(sp)
   1847c: 01 4d        	li	s10, 0x0
   1847e: 3b 86 e6 40  	subw	a2, a3, a4
   18482: 22 77        	ld	a4, 0x28(sp)
   18484: ae 8c        	mv	s9, a1
   18486: 3b 03 66 00  	addw	t1, a2, t1
   1848a: 3a c7        	sw	a4, 0x8c(sp)
   1848c: 3b 0e c7 01  	addw	t3, a4, t3
   18490: 2d 9f        	addw	a4, a4, a1
   18492: 3a ec        	sd	a4, 0x18(sp)
   18494: 36 f8        	sd	a3, 0x30(sp)
   18496: 6f f0 ef fa  	j	0x17c44 <__gdtoa+0x2c0>
   1849a: 87 b7 81 df  	fld	fa5, -0x208(gp)
   1849e: 07 b7 01 10  	fld	fa4, 0x100(gp)
   184a2: d3 86 0e f2  	fmv.d.x	fa3, t4
   184a6: b7 06 c0 fc  	lui	a3, 0xfcc00
   184aa: 7d 5f        	li	t5, -0x1
   184ac: c3 f7 f6 72  	fmadd.d	fa5, fa3, fa5, fa4
   184b0: 13 5f 0f 02  	srli	t5, t5, 0x20
   184b4: d3 85 07 e2  	fmv.x.d	a1, fa5
   184b8: 13 d5 05 02  	srli	a0, a1, 0x20
   184bc: a9 9e        	addw	a3, a3, a0
   184be: 82 16        	slli	a3, a3, 0x20
   184c0: 33 7f bf 00  	and	t5, t5, a1
   184c4: 33 6f df 00  	or	t5, t5, a3
   184c8: 87 b7 81 10  	fld	fa5, 0x108(gp)
   184cc: 53 87 0e f2  	fmv.d.x	fa4, t4
   184d0: d3 77 f7 0a  	fsub.d	fa5, fa4, fa5
   184d4: 53 07 0f f2  	fmv.d.x	fa4, t5
   184d8: d3 16 f7 a2  	flt.d	a3, fa4, fa5
   184dc: 63 97 06 30  	bnez	a3, 0x187ea <__gdtoa+0xe66>
   184e0: 53 17 e7 22  	fneg.d	fa4, fa4
   184e4: d3 96 e7 a2  	flt.d	a3, fa5, fa4
   184e8: 63 8a 06 2e  	beqz	a3, 0x187dc <__gdtoa+0xe58>
   184ec: 81 45        	li	a1, 0x0
   184ee: 81 4a        	li	s5, 0x0
   184f0: 3b 09 70 41  	negw	s2, s7
   184f4: c2 8c        	mv	s9, a6
   184f6: c1 49        	li	s3, 0x10
   184f8: c5 b5        	j	0x183d8 <__gdtoa+0xa54>
   184fa: d6 85        	mv	a1, s5
   184fc: 6a 86        	mv	a2, s10
   184fe: 22 85        	mv	a0, s0
   18500: c2 f0        	sd	a6, 0x60(sp)
   18502: be ec        	sd	a5, 0x58(sp)
   18504: f2 e8        	sd	t3, 0x50(sp)
   18506: 9a e4        	sd	t1, 0x48(sp)
   18508: ef 00 30 55  	jal	0x1925a <__pow5mult>
   1850c: aa 8a        	mv	s5, a0
   1850e: e3 0f 05 9e  	beqz	a0, 0x17f0c <__gdtoa+0x588>
   18512: aa 85        	mv	a1, a0
   18514: 62 86        	mv	a2, s8
   18516: 22 85        	mv	a0, s0
   18518: ef 00 b0 39  	jal	0x190b2 <__multiply>
   1851c: aa f4        	sd	a0, 0x68(sp)
   1851e: e3 07 05 9e  	beqz	a0, 0x17f0c <__gdtoa+0x588>
   18522: e2 85        	mv	a1, s8
   18524: 22 85        	mv	a0, s0
   18526: ef 00 10 05  	jal	0x18d76 <_Bfree>
   1852a: c2 77        	ld	a5, 0x30(sp)
   1852c: a6 76        	ld	a3, 0x68(sp)
   1852e: 26 63        	ld	t1, 0x48(sp)
   18530: 3b 87 a7 41  	subw	a4, a5, s10
   18534: 3a f8        	sd	a4, 0x30(sp)
   18536: 46 6e        	ld	t3, 0x50(sp)
   18538: e6 67        	ld	a5, 0x58(sp)
   1853a: 06 78        	ld	a6, 0x60(sp)
   1853c: 36 8c        	mv	s8, a3
   1853e: 63 08 07 f6  	beqz	a4, 0x17cae <__gdtoa+0x32a>
   18542: 6f f0 cf f4  	j	0x17c8e <__gdtoa+0x30a>
   18546: 56 8b        	mv	s6, s5
   18548: e2 6a        	ld	s5, 0x18(sp)
   1854a: de 86        	mv	a3, s7
   1854c: 93 8c 1b 00  	addi	s9, s7, 0x1
   18550: 13 06 90 03  	li	a2, 0x39
   18554: e6 8b        	mv	s7, s9
   18556: 23 80 c6 00  	sb	a2, 0x0(a3)
   1855a: 13 06 90 03  	li	a2, 0x39
   1855e: 19 a0        	j	0x18564 <__gdtoa+0xbe0>
   18560: 63 02 78 0f  	beq	a6, s7, 0x18644 <__gdtoa+0xcc0>
   18564: 83 c6 fb ff  	lbu	a3, -0x1(s7)
   18568: de 8c        	mv	s9, s7
   1856a: fd 1b        	addi	s7, s7, -0x1
   1856c: e3 8a c6 fe  	beq	a3, a2, 0x18560 <__gdtoa+0xbdc>
   18570: 85 26        	addiw	a3, a3, 0x1
   18572: 23 80 db 00  	sb	a3, 0x0(s7)
   18576: 93 09 00 02  	li	s3, 0x20
   1857a: fd b1        	j	0x18268 <__gdtoa+0x8e4>
   1857c: d6 85        	mv	a1, s5
   1857e: 22 85        	mv	a0, s0
   18580: 42 ec        	sd	a6, 0x18(sp)
   18582: 1a e8        	sd	t1, 0x10(sp)
   18584: ef 00 b0 5a  	jal	0x1932e <__lshift>
   18588: 42 63        	ld	t1, 0x10(sp)
   1858a: 62 68        	ld	a6, 0x18(sp)
   1858c: aa 8a        	mv	s5, a0
   1858e: 63 12 05 f8  	bnez	a0, 0x17d12 <__gdtoa+0x38e>
   18592: ad ba        	j	0x17f0c <__gdtoa+0x588>
   18594: 05 47        	li	a4, 0x1
   18596: 81 4a        	li	s5, 0x0
   18598: ba e0        	sd	a4, 0x40(sp)
   1859a: 6f f0 af df  	j	0x17b94 <__gdtoa+0x210>
   1859e: 05 47        	li	a4, 0x1
   185a0: ba e0        	sd	a4, 0x40(sp)
   185a2: 6f f0 2f df  	j	0x17b94 <__gdtoa+0x210>
   185a6: 05 47        	li	a4, 0x1
   185a8: ba e0        	sd	a4, 0x40(sp)
   185aa: bd b1        	j	0x18218 <__gdtoa+0x894>
   185ac: 82 e0        	sd	zero, 0x40(sp)
   185ae: ad b1        	j	0x18218 <__gdtoa+0x894>
   185b0: c6 67        	ld	a5, 0x50(sp)
   185b2: e3 9e d7 e4  	bne	a5, a3, 0x1840e <__gdtoa+0xa8a>
   185b6: 83 27 4b 00  	lw	a5, 0x4(s6)
   185ba: 42 67        	ld	a4, 0x10(sp)
   185bc: 85 27        	addiw	a5, a5, 0x1
   185be: e3 d8 e7 e4  	bge	a5, a4, 0x1840e <__gdtoa+0xa8a>
   185c2: e2 67        	ld	a5, 0x18(sp)
   185c4: 05 2e        	addiw	t3, t3, 0x1
   185c6: 85 49        	li	s3, 0x1
   185c8: 85 27        	addiw	a5, a5, 0x1
   185ca: 3e ec        	sd	a5, 0x18(sp)
   185cc: 89 b5        	j	0x1840e <__gdtoa+0xa8a>
   185ce: 83 a5 8a 00  	lw	a1, 0x8(s5)
   185d2: 22 85        	mv	a0, s0
   185d4: 42 e8        	sd	a6, 0x10(sp)
   185d6: ef 00 c0 73  	jal	0x18d12 <_Balloc>
   185da: aa 89        	mv	s3, a0
   185dc: e3 08 05 92  	beqz	a0, 0x17f0c <__gdtoa+0x588>
   185e0: 03 a6 4a 01  	lw	a2, 0x14(s5)
   185e4: 93 85 0a 01  	addi	a1, s5, 0x10
   185e8: 41 05        	addi	a0, a0, 0x10
   185ea: 09 06        	addi	a2, a2, 0x2
   185ec: 0a 06        	slli	a2, a2, 0x2
   185ee: ef e0 9f e5  	jal	0x17446 <memcpy>
   185f2: 05 46        	li	a2, 0x1
   185f4: ce 85        	mv	a1, s3
   185f6: 22 85        	mv	a0, s0
   185f8: ef 00 70 53  	jal	0x1932e <__lshift>
   185fc: 2a ec        	sd	a0, 0x18(sp)
   185fe: 42 68        	ld	a6, 0x10(sp)
   18600: 63 1c 05 f0  	bnez	a0, 0x17d18 <__gdtoa+0x394>
   18604: 21 b2        	j	0x17f0c <__gdtoa+0x588>
   18606: e2 85        	mv	a1, s8
   18608: 05 46        	li	a2, 0x1
   1860a: 22 85        	mv	a0, s0
   1860c: 42 e8        	sd	a6, 0x10(sp)
   1860e: 1a ec        	sd	t1, 0x18(sp)
   18610: ef 00 f0 51  	jal	0x1932e <__lshift>
   18614: 2a 8c        	mv	s8, a0
   18616: e3 0b 05 8e  	beqz	a0, 0x17f0c <__gdtoa+0x588>
   1861a: ea 85        	mv	a1, s10
   1861c: ef 00 70 63  	jal	0x19452 <__mcmp>
   18620: 42 68        	ld	a6, 0x10(sp)
   18622: e3 4c a0 f2  	bgtz	a0, 0x1855a <__gdtoa+0xbd6>
   18626: 11 e5        	bnez	a0, 0x18632 <__gdtoa+0xcae>
   18628: 62 63        	ld	t1, 0x18(sp)
   1862a: 13 73 13 00  	andi	t1, t1, 0x1
   1862e: e3 16 03 f2  	bnez	t1, 0x1855a <__gdtoa+0xbd6>
   18632: 03 26 4c 01  	lw	a2, 0x14(s8)
   18636: 85 46        	li	a3, 0x1
   18638: c1 49        	li	s3, 0x10
   1863a: e3 c1 c6 d2  	blt	a3, a2, 0x1835c <__gdtoa+0x9d8>
   1863e: 83 26 8c 01  	lw	a3, 0x18(s8)
   18642: 09 bb        	j	0x18354 <__gdtoa+0x9d0>
   18644: e2 77        	ld	a5, 0x38(sp)
   18646: 93 09 00 02  	li	s3, 0x20
   1864a: 85 27        	addiw	a5, a5, 0x1
   1864c: 3e fc        	sd	a5, 0x38(sp)
   1864e: 93 07 10 03  	li	a5, 0x31
   18652: 23 00 f8 00  	sb	a5, 0x0(a6)
   18656: 09 b9        	j	0x18268 <__gdtoa+0x8e4>
   18658: 82 77        	ld	a5, 0x20(sp)
   1865a: 26 ec        	sd	s1, 0x18(sp)
   1865c: 52 83        	mv	t1, s4
   1865e: 42 78        	ld	a6, 0x30(sp)
   18660: 22 7a        	ld	s4, 0x28(sp)
   18662: 86 64        	ld	s1, 0x40(sp)
   18664: 91 cb        	beqz	a5, 0x18678 <__gdtoa+0xcf4>
   18666: 03 26 4c 01  	lw	a2, 0x14(s8)
   1866a: 85 46        	li	a3, 0x1
   1866c: 63 c4 c6 fa  	blt	a3, a2, 0x17e14 <__gdtoa+0x490>
   18670: 83 26 8c 01  	lw	a3, 0x18(s8)
   18674: 63 90 06 fa  	bnez	a3, 0x17e14 <__gdtoa+0x490>
   18678: e2 85        	mv	a1, s8
   1867a: 05 46        	li	a2, 0x1
   1867c: 22 85        	mv	a0, s0
   1867e: 42 f0        	sd	a6, 0x20(sp)
   18680: 1a e8        	sd	t1, 0x10(sp)
   18682: ef 00 d0 4a  	jal	0x1932e <__lshift>
   18686: 2a 8c        	mv	s8, a0
   18688: e3 02 05 88  	beqz	a0, 0x17f0c <__gdtoa+0x588>
   1868c: ea 85        	mv	a1, s10
   1868e: ef 00 50 5c  	jal	0x19452 <__mcmp>
   18692: 42 63        	ld	t1, 0x10(sp)
   18694: 02 78        	ld	a6, 0x20(sp)
   18696: 63 56 a0 26  	blez	a0, 0x18902 <__gdtoa+0xf7e>
   1869a: 93 06 90 03  	li	a3, 0x39
   1869e: e3 04 d3 ea  	beq	t1, a3, 0x18546 <__gdtoa+0xbc2>
   186a2: 93 07 00 02  	li	a5, 0x20
   186a6: 1b 83 1c 03  	addiw	t1, s9, 0x31
   186aa: 3e f0        	sd	a5, 0x20(sp)
   186ac: 55 b6        	j	0x18250 <__gdtoa+0x8cc>
   186ae: d3 f7 f7 02  	fadd.d	fa5, fa5, fa5
   186b2: 83 c6 fc ff  	lbu	a3, -0x1(s9)
   186b6: 53 16 f7 a2  	flt.d	a2, fa4, fa5
   186ba: e3 13 06 9e  	bnez	a2, 0x180a0 <__gdtoa+0x71c>
   186be: 53 a6 e7 a2  	feq.d	a2, fa5, fa4
   186c2: 01 c6        	beqz	a2, 0x186ca <__gdtoa+0xd46>
   186c4: 85 8b        	andi	a5, a5, 0x1
   186c6: e3 9d 07 9c  	bnez	a5, 0x180a0 <__gdtoa+0x71c>
   186ca: e6 87        	mv	a5, s9
   186cc: c1 49        	li	s3, 0x10
   186ce: 13 06 00 03  	li	a2, 0x30
   186d2: 03 c7 f7 ff  	lbu	a4, -0x1(a5)
   186d6: be 8c        	mv	s9, a5
   186d8: fd 17        	addi	a5, a5, -0x1
   186da: e3 0c c7 fe  	beq	a4, a2, 0x186d2 <__gdtoa+0xd4e>
   186de: 1b 89 05 00  	sext.w	s2, a1
   186e2: e1 b4        	j	0x181aa <__gdtoa+0x826>
   186e4: 93 06 10 03  	li	a3, 0x31
   186e8: 85 25        	addiw	a1, a1, 0x1
   186ea: d1 ba        	j	0x180be <__gdtoa+0x73a>
   186ec: 53 07 0f f2  	fmv.d.x	fa4, t5
   186f0: d3 85 06 f2  	fmv.d.x	fa1, a3
   186f4: c2 8c        	mv	s9, a6
   186f6: 53 f6 e7 12  	fmul.d	fa2, fa5, fa4
   186fa: d3 87 06 f2  	fmv.d.x	fa5, a3
   186fe: 07 b7 81 0f  	fld	fa4, 0xf8(gp)
   18702: 85 46        	li	a3, 0x1
   18704: 36 c7        	sw	a3, 0x8c(sp)
   18706: 01 4f        	li	t5, 0x0
   18708: 29 a0        	j	0x18712 <__gdtoa+0xd8e>
   1870a: d3 f7 e7 12  	fmul.d	fa5, fa5, fa4
   1870e: 2a c7        	sw	a0, 0x8c(sp)
   18710: 05 4f        	li	t5, 0x1
   18712: 53 97 07 c2  	fcvt.w.d	a4, fa5, rtz
   18716: 85 0c        	addi	s9, s9, 0x1
   18718: 9b 06 07 03  	addiw	a3, a4, 0x30
   1871c: 1b 05 07 00  	sext.w	a0, a4
   18720: 93 f6 f6 0f  	andi	a3, a3, 0xff
   18724: 11 c5        	beqz	a0, 0x18730 <__gdtoa+0xdac>
   18726: d3 06 07 d2  	fcvt.d.w	fa3, a4
   1872a: 05 4f        	li	t5, 0x1
   1872c: d3 f7 d7 0a  	fsub.d	fa5, fa5, fa3
   18730: a3 8f dc fe  	sb	a3, -0x1(s9)
   18734: 3a 47        	lw	a4, 0x8c(sp)
   18736: 1b 05 17 00  	addiw	a0, a4, 0x1
   1873a: e3 18 f7 fd  	bne	a4, t6, 0x1870a <__gdtoa+0xd86>
   1873e: 63 04 0f 00  	beqz	t5, 0x18746 <__gdtoa+0xdc2>
   18742: d3 85 f7 22  	fmv.d	fa1, fa5
   18746: 87 b7 01 eb  	fld	fa5, -0x150(gp)
   1874a: 53 77 f6 02  	fadd.d	fa4, fa2, fa5
   1874e: 53 15 b7 a2  	flt.d	a0, fa4, fa1
   18752: 63 15 05 10  	bnez	a0, 0x1885c <__gdtoa+0xed8>
   18756: d3 f7 c7 0a  	fsub.d	fa5, fa5, fa2
   1875a: d3 96 f5 a2  	flt.d	a3, fa1, fa5
   1875e: 63 9e 06 16  	bnez	a3, 0x188da <__gdtoa+0xf56>
   18762: f6 86        	mv	a3, t4
   18764: 63 48 06 1a  	bltz	a2, 0x18914 <__gdtoa+0xf90>
   18768: 02 f0        	sd	zero, 0x20(sp)
   1876a: 98 21        	fld	fa4, 0x0(a1)
   1876c: e3 db 0b 9a  	bgez	s7, 0x18122 <__gdtoa+0x79e>
   18770: a2 77        	ld	a5, 0x28(sp)
   18772: e3 98 07 9a  	bnez	a5, 0x18122 <__gdtoa+0x79e>
   18776: d5 b1        	j	0x1845a <__gdtoa+0xad6>
   18778: a6 87        	mv	a5, s1
   1877a: 52 83        	mv	t1, s4
   1877c: 56 8b        	mv	s6, s5
   1877e: 42 78        	ld	a6, 0x30(sp)
   18780: 22 7a        	ld	s4, 0x28(sp)
   18782: 86 64        	ld	s1, 0x40(sp)
   18784: be 8a        	mv	s5, a5
   18786: 45 be        	j	0x18336 <__gdtoa+0x9b2>
   18788: e3 09 07 d0  	beqz	a4, 0x1849a <__gdtoa+0xb16>
   1878c: e6 7f        	ld	t6, 0x78(sp)
   1878e: 63 57 f0 05  	blez	t6, 0x187dc <__gdtoa+0xe58>
   18792: 87 b7 81 0f  	fld	fa5, 0xf8(gp)
   18796: b7 05 c0 fc  	lui	a1, 0xfcc00
   1879a: d3 77 f7 12  	fmul.d	fa5, fa4, fa5
   1879e: 07 b7 81 fc  	fld	fa4, -0x38(gp)
   187a2: fd 53        	li	t2, -0x1
   187a4: 53 85 07 e2  	fmv.x.d	a0, fa5
   187a8: 87 b7 01 10  	fld	fa5, 0x100(gp)
   187ac: d3 06 05 f2  	fmv.d.x	fa3, a0
   187b0: aa 86        	mv	a3, a0
   187b2: c3 f7 e6 7a  	fmadd.d	fa5, fa3, fa4, fa5
   187b6: d3 8a 07 e2  	fmv.x.d	s5, fa5
   187ba: 13 df 0a 02  	srli	t5, s5, 0x20
   187be: bb 85 e5 01  	addw	a1, a1, t5
   187c2: 7d 5f        	li	t5, -0x1
   187c4: 13 5f 0f 02  	srli	t5, t5, 0x20
   187c8: 82 15        	slli	a1, a1, 0x20
   187ca: 33 7f 5f 01  	and	t5, t5, s5
   187ce: 33 6f bf 00  	or	t5, t5, a1
   187d2: 6f f0 3f 83  	j	0x18004 <__gdtoa+0x680>
   187d6: 83 c6 fc ff  	lbu	a3, -0x1(s9)
   187da: d9 b0        	j	0x180a0 <__gdtoa+0x71c>
   187dc: f6 86        	mv	a3, t4
   187de: 63 4d 06 08  	bltz	a2, 0x18878 <__gdtoa+0xef4>
   187e2: f5 65        	lui	a1, 0x1d
   187e4: 93 85 85 34  	addi	a1, a1, 0x348
   187e8: 41 b7        	j	0x18768 <__gdtoa+0xde4>
   187ea: 09 49        	li	s2, 0x2
   187ec: 81 45        	li	a1, 0x0
   187ee: 81 4a        	li	s5, 0x0
   187f0: e1 be        	j	0x183c8 <__gdtoa+0xa44>
   187f2: e2 66        	ld	a3, 0x18(sp)
   187f4: 3a c7        	sw	a4, 0x8c(sp)
   187f6: 3b 0e c7 01  	addw	t3, a4, t3
   187fa: 35 9f        	addw	a4, a4, a3
   187fc: b6 8c        	mv	s9, a3
   187fe: 3a ec        	sd	a4, 0x18(sp)
   18800: 6f f0 4f c4  	j	0x17c44 <__gdtoa+0x2c0>
   18804: 52 83        	mv	t1, s4
   18806: 26 ec        	sd	s1, 0x18(sp)
   18808: 93 06 90 03  	li	a3, 0x39
   1880c: 42 78        	ld	a6, 0x30(sp)
   1880e: 22 7a        	ld	s4, 0x28(sp)
   18810: 86 64        	ld	s1, 0x40(sp)
   18812: e3 0a d3 d2  	beq	t1, a3, 0x18546 <__gdtoa+0xbc2>
   18816: 9b 87 19 00  	addiw	a5, s3, 0x1
   1881a: 56 8b        	mv	s6, s5
   1881c: 93 8c 1b 00  	addi	s9, s7, 0x1
   18820: e2 6a        	ld	s5, 0x18(sp)
   18822: 23 80 fb 00  	sb	a5, 0x0(s7)
   18826: 93 09 00 02  	li	s3, 0x20
   1882a: 3d bc        	j	0x18268 <__gdtoa+0x8e4>
   1882c: d6 85        	mv	a1, s5
   1882e: 81 46        	li	a3, 0x0
   18830: 29 46        	li	a2, 0xa
   18832: 22 85        	mv	a0, s0
   18834: ef 00 40 55  	jal	0x18d88 <__multadd>
   18838: aa 8a        	mv	s5, a0
   1883a: 63 09 05 ec  	beqz	a0, 0x17f0c <__gdtoa+0x588>
   1883e: e6 77        	ld	a5, 0x78(sp)
   18840: 42 63        	ld	t1, 0x10(sp)
   18842: 62 68        	ld	a6, 0x18(sp)
   18844: 63 55 f0 00  	blez	a5, 0x1884e <__gdtoa+0xeca>
   18848: 3e f4        	sd	a5, 0x28(sp)
   1884a: 6f f0 0f cc  	j	0x17d0a <__gdtoa+0x386>
   1884e: 89 47        	li	a5, 0x2
   18850: 63 c6 27 0b  	blt	a5, s2, 0x188fc <__gdtoa+0xf78>
   18854: e6 77        	ld	a5, 0x78(sp)
   18856: 3e f4        	sd	a5, 0x28(sp)
   18858: 6f f0 2f cb  	j	0x17d0a <__gdtoa+0x386>
   1885c: 9b 85 13 00  	addiw	a1, t2, 0x1
   18860: 6f f0 1f 84  	j	0x180a0 <__gdtoa+0x71c>
   18864: 53 07 00 f2  	fmv.d.x	fa4, zero
   18868: 13 89 13 00  	addi	s2, t2, 0x1
   1886c: d3 a9 e7 a2  	feq.d	s3, fa5, fa4
   18870: 93 b9 19 00  	seqz	s3, s3
   18874: 92 09        	slli	s3, s3, 0x4
   18876: 15 ba        	j	0x181aa <__gdtoa+0x826>
   18878: 02 f0        	sd	zero, 0x20(sp)
   1887a: 6f f0 6f b7  	j	0x17bf0 <__gdtoa+0x26c>
   1887e: f6 86        	mv	a3, t4
   18880: e3 54 06 ee  	bgez	a2, 0x18768 <__gdtoa+0xde4>
   18884: 02 f0        	sd	zero, 0x20(sp)
   18886: 6f f0 0f b7  	j	0x17bf6 <__gdtoa+0x272>
   1888a: 22 77        	ld	a4, 0x28(sp)
   1888c: 42 76        	ld	a2, 0x30(sp)
   1888e: 9b 06 f7 ff  	addiw	a3, a4, -0x1
   18892: 36 8d        	mv	s10, a3
   18894: e3 42 d6 be  	blt	a2, a3, 0x18478 <__gdtoa+0xaf4>
   18898: e2 66        	ld	a3, 0x18(sp)
   1889a: 3b 0e c7 01  	addw	t3, a4, t3
   1889e: 3a c7        	sw	a4, 0x8c(sp)
   188a0: 35 9f        	addw	a4, a4, a3
   188a2: b6 8c        	mv	s9, a3
   188a4: 3b 0d a6 41  	subw	s10, a2, s10
   188a8: 3a ec        	sd	a4, 0x18(sp)
   188aa: 6f f0 af b9  	j	0x17c44 <__gdtoa+0x2c0>
   188ae: 26 ec        	sd	s1, 0x18(sp)
   188b0: 93 06 90 03  	li	a3, 0x39
   188b4: 52 83        	mv	t1, s4
   188b6: 42 78        	ld	a6, 0x30(sp)
   188b8: 22 7a        	ld	s4, 0x28(sp)
   188ba: 86 64        	ld	s1, 0x40(sp)
   188bc: e3 85 d9 c8  	beq	s3, a3, 0x18546 <__gdtoa+0xbc2>
   188c0: 63 5f 60 09  	blez	s6, 0x1895e <__gdtoa+0xfda>
   188c4: 1b 83 1c 03  	addiw	t1, s9, 0x31
   188c8: 93 09 00 02  	li	s3, 0x20
   188cc: 23 80 6b 00  	sb	t1, 0x0(s7)
   188d0: 56 8b        	mv	s6, s5
   188d2: 93 8c 1b 00  	addi	s9, s7, 0x1
   188d6: e2 6a        	ld	s5, 0x18(sp)
   188d8: 41 ba        	j	0x18268 <__gdtoa+0x8e4>
   188da: d3 07 00 f2  	fmv.d.x	fa5, zero
   188de: e6 87        	mv	a5, s9
   188e0: 9b 85 13 00  	addiw	a1, t2, 0x1
   188e4: d3 a9 f5 a2  	feq.d	s3, fa1, fa5
   188e8: 93 b9 19 00  	seqz	s3, s3
   188ec: 92 09        	slli	s3, s3, 0x4
   188ee: c5 b3        	j	0x186ce <__gdtoa+0xd4a>
   188f0: 83 26 8c 01  	lw	a3, 0x18(s8)
   188f4: e3 96 06 96  	bnez	a3, 0x18260 <__gdtoa+0x8dc>
   188f8: 82 79        	ld	s3, 0x20(sp)
   188fa: 9d b2        	j	0x18260 <__gdtoa+0x8dc>
   188fc: e6 77        	ld	a5, 0x78(sp)
   188fe: 3e f4        	sd	a5, 0x28(sp)
   18900: 51 bc        	j	0x18394 <__gdtoa+0xa10>
   18902: 09 e5        	bnez	a0, 0x1890c <__gdtoa+0xf88>
   18904: 93 76 13 00  	andi	a3, t1, 0x1
   18908: e3 99 06 d8  	bnez	a3, 0x1869a <__gdtoa+0xd16>
   1890c: 93 07 00 02  	li	a5, 0x20
   18910: 3e f0        	sd	a5, 0x20(sp)
   18912: 3d ba        	j	0x18250 <__gdtoa+0x8cc>
   18914: 42 7d        	ld	s10, 0x30(sp)
   18916: e2 6c        	ld	s9, 0x18(sp)
   18918: 02 f0        	sd	zero, 0x20(sp)
   1891a: 81 4a        	li	s5, 0x0
   1891c: 6f f0 6f b4  	j	0x17c62 <__gdtoa+0x2de>
   18920: 5a ec        	sd	s6, 0x18(sp)
   18922: 93 06 90 03  	li	a3, 0x39
   18926: 6e 88        	mv	a6, s11
   18928: 63 8b d9 00  	beq	s3, a3, 0x1893e <__gdtoa+0xfba>
   1892c: 1b 83 19 00  	addiw	t1, s3, 0x1
   18930: 93 09 00 02  	li	s3, 0x20
   18934: 35 b2        	j	0x18260 <__gdtoa+0x8dc>
   18936: c1 49        	li	s3, 0x10
   18938: 93 8c 1b 00  	addi	s9, s7, 0x1
   1893c: 15 b2        	j	0x18260 <__gdtoa+0x8dc>
   1893e: 56 8b        	mv	s6, s5
   18940: de 86        	mv	a3, s7
   18942: e2 6a        	ld	s5, 0x18(sp)
   18944: 31 b1        	j	0x18550 <__gdtoa+0xbcc>
   18946: 03 26 4c 01  	lw	a2, 0x14(s8)
   1894a: 85 46        	li	a3, 0x1
   1894c: 63 c4 c6 cc  	blt	a3, a2, 0x17e14 <__gdtoa+0x490>
   18950: 83 26 8c 01  	lw	a3, 0x18(s8)
   18954: 63 90 06 cc  	bnez	a3, 0x17e14 <__gdtoa+0x490>
   18958: 93 8c 1b 00  	addi	s9, s7, 0x1
   1895c: 11 b2        	j	0x18260 <__gdtoa+0x8dc>
   1895e: 03 26 4c 01  	lw	a2, 0x14(s8)
   18962: 85 46        	li	a3, 0x1
   18964: c1 49        	li	s3, 0x10
   18966: e3 c3 c6 f6  	blt	a3, a2, 0x188cc <__gdtoa+0xf48>
   1896a: 83 29 8c 01  	lw	s3, 0x18(s8)
   1896e: b3 39 30 01  	snez	s3, s3
   18972: 92 09        	slli	s3, s3, 0x4
   18974: a1 bf        	j	0x188cc <__gdtoa+0xf48>
   18976: 63 4e 0b 00  	bltz	s6, 0x18992 <__gdtoa+0x100e>
   1897a: b3 67 69 01  	or	a5, s2, s6
   1897e: 81 27        	sext.w	a5, a5
   18980: 89 e7        	bnez	a5, 0x1898a <__gdtoa+0x1006>
   18982: c2 67        	ld	a5, 0x10(sp)
   18984: 9c 43        	lw	a5, 0x0(a5)
   18986: 85 8b        	andi	a5, a5, 0x1
   18988: 89 c7        	beqz	a5, 0x18992 <__gdtoa+0x100e>
   1898a: 63 53 d0 bc  	blez	a3, 0x17d50 <__gdtoa+0x3cc>
   1898e: 6f f0 af bb  	j	0x17d48 <__gdtoa+0x3c4>
   18992: 82 77        	ld	a5, 0x20(sp)
   18994: 26 ec        	sd	s1, 0x18(sp)
   18996: 52 83        	mv	t1, s4
   18998: 42 78        	ld	a6, 0x30(sp)
   1899a: 22 7a        	ld	s4, 0x28(sp)
   1899c: 86 64        	ld	s1, 0x40(sp)
   1899e: 85 c3        	beqz	a5, 0x189be <__gdtoa+0x103a>
   189a0: 83 25 4c 01  	lw	a1, 0x14(s8)
   189a4: 05 46        	li	a2, 0x1
   189a6: 63 47 b6 c6  	blt	a2, a1, 0x17e14 <__gdtoa+0x490>
   189aa: 03 26 8c 01  	lw	a2, 0x18(s8)
   189ae: 63 13 06 c6  	bnez	a2, 0x17e14 <__gdtoa+0x490>
   189b2: e3 43 d0 cc  	bgtz	a3, 0x18678 <__gdtoa+0xcf4>
   189b6: 81 49        	li	s3, 0x0
   189b8: 93 8c 1b 00  	addi	s9, s7, 0x1
   189bc: 55 b0        	j	0x18260 <__gdtoa+0x8dc>
   189be: e3 59 d0 88  	blez	a3, 0x18250 <__gdtoa+0x8cc>
   189c2: 5d b9        	j	0x18678 <__gdtoa+0xcf4>

00000000000189c4 <__rv_alloc_D2A>:
   189c4: 41 11        	addi	sp, sp, -0x10
   189c6: 22 e0        	sd	s0, 0x0(sp)
   189c8: 06 e4        	sd	ra, 0x8(sp)
   189ca: ed 47        	li	a5, 0x1b
   189cc: 01 44        	li	s0, 0x0
   189ce: 63 fa b7 00  	bgeu	a5, a1, 0x189e2 <__rv_alloc_D2A+0x1e>
   189d2: 91 47        	li	a5, 0x4
   189d4: 9b 97 17 00  	slliw	a5, a5, 0x1
   189d8: 13 87 87 01  	addi	a4, a5, 0x18
   189dc: 05 24        	addiw	s0, s0, 0x1
   189de: e3 fb e5 fe  	bgeu	a1, a4, 0x189d4 <__rv_alloc_D2A+0x10>
   189e2: a2 85        	mv	a1, s0
   189e4: ef 00 e0 32  	jal	0x18d12 <_Balloc>
   189e8: 19 c1        	beqz	a0, 0x189ee <__rv_alloc_D2A+0x2a>
   189ea: 00 c1        	sw	s0, 0x0(a0)
   189ec: 11 05        	addi	a0, a0, 0x4
   189ee: a2 60        	ld	ra, 0x8(sp)
   189f0: 02 64        	ld	s0, 0x0(sp)
   189f2: 41 01        	addi	sp, sp, 0x10
   189f4: 82 80        	ret

00000000000189f6 <__nrv_alloc_D2A>:
   189f6: 01 11        	addi	sp, sp, -0x20
   189f8: 22 e8        	sd	s0, 0x10(sp)
   189fa: 4a e0        	sd	s2, 0x0(sp)
   189fc: 06 ec        	sd	ra, 0x18(sp)
   189fe: 26 e4        	sd	s1, 0x8(sp)
   18a00: ed 47        	li	a5, 0x1b
   18a02: 2e 84        	mv	s0, a1
   18a04: 32 89        	mv	s2, a2
   18a06: 63 fb d7 04  	bgeu	a5, a3, 0x18a5c <__nrv_alloc_D2A+0x66>
   18a0a: 91 47        	li	a5, 0x4
   18a0c: 81 44        	li	s1, 0x0
   18a0e: 9b 97 17 00  	slliw	a5, a5, 0x1
   18a12: 13 87 87 01  	addi	a4, a5, 0x18
   18a16: 85 24        	addiw	s1, s1, 0x1
   18a18: e3 fb e6 fe  	bgeu	a3, a4, 0x18a0e <__nrv_alloc_D2A+0x18>
   18a1c: a6 85        	mv	a1, s1
   18a1e: ef 00 40 2f  	jal	0x18d12 <_Balloc>
   18a22: aa 87        	mv	a5, a0
   18a24: 15 cd        	beqz	a0, 0x18a60 <__nrv_alloc_D2A+0x6a>
   18a26: 04 c1        	sw	s1, 0x0(a0)
   18a28: 03 47 04 00  	lbu	a4, 0x0(s0)
   18a2c: 11 05        	addi	a0, a0, 0x4
   18a2e: 93 05 14 00  	addi	a1, s0, 0x1
   18a32: 23 82 e7 00  	sb	a4, 0x4(a5)
   18a36: aa 87        	mv	a5, a0
   18a38: 01 cb        	beqz	a4, 0x18a48 <__nrv_alloc_D2A+0x52>
   18a3a: 03 c7 05 00  	lbu	a4, 0x0(a1)
   18a3e: 85 07        	addi	a5, a5, 0x1
   18a40: 85 05        	addi	a1, a1, 0x1
   18a42: 23 80 e7 00  	sb	a4, 0x0(a5)
   18a46: 75 fb        	bnez	a4, 0x18a3a <__nrv_alloc_D2A+0x44>
   18a48: 63 04 09 00  	beqz	s2, 0x18a50 <__nrv_alloc_D2A+0x5a>
   18a4c: 23 30 f9 00  	sd	a5, 0x0(s2)
   18a50: e2 60        	ld	ra, 0x18(sp)
   18a52: 42 64        	ld	s0, 0x10(sp)
   18a54: a2 64        	ld	s1, 0x8(sp)
   18a56: 02 69        	ld	s2, 0x0(sp)
   18a58: 05 61        	addi	sp, sp, 0x20
   18a5a: 82 80        	ret
   18a5c: 81 44        	li	s1, 0x0
   18a5e: 7d bf        	j	0x18a1c <__nrv_alloc_D2A+0x26>
   18a60: 01 45        	li	a0, 0x0
   18a62: fd b7        	j	0x18a50 <__nrv_alloc_D2A+0x5a>

0000000000018a64 <__freedtoa>:
   18a64: 83 a7 c5 ff  	lw	a5, -0x4(a1)
   18a68: 85 46        	li	a3, 0x1
   18a6a: 2e 87        	mv	a4, a1
   18a6c: bb 96 f6 00  	sllw	a3, a3, a5
   18a70: 82 17        	slli	a5, a5, 0x20
   18a72: 82 16        	slli	a3, a3, 0x20
   18a74: 81 93        	srli	a5, a5, 0x20
   18a76: d5 8f        	or	a5, a5, a3
   18a78: f1 15        	addi	a1, a1, -0x4
   18a7a: 23 32 f7 00  	sd	a5, 0x4(a4)
   18a7e: e5 ac        	j	0x18d76 <_Bfree>

0000000000018a80 <__quorem_D2A>:
   18a80: 39 71        	addi	sp, sp, -0x40
   18a82: 26 f4        	sd	s1, 0x28(sp)
   18a84: 5c 49        	lw	a5, 0x14(a0)
   18a86: c4 49        	lw	s1, 0x14(a1)
   18a88: 06 fc        	sd	ra, 0x38(sp)
   18a8a: 63 ce 97 14  	blt	a5, s1, 0x18be6 <__quorem_D2A+0x166>
   18a8e: fd 34        	addiw	s1, s1, -0x1
   18a90: 13 93 24 00  	slli	t1, s1, 0x2
   18a94: 22 f8        	sd	s0, 0x30(sp)
   18a96: 13 84 85 01  	addi	s0, a1, 0x18
   18a9a: 4a f0        	sd	s2, 0x20(sp)
   18a9c: 4e ec        	sd	s3, 0x18(sp)
   18a9e: 33 09 64 00  	add	s2, s0, t1
   18aa2: 93 09 85 01  	addi	s3, a0, 0x18
   18aa6: 56 e4        	sd	s5, 0x8(sp)
   18aa8: 4e 93        	add	t1, t1, s3
   18aaa: 83 2a 09 00  	lw	s5, 0x0(s2)
   18aae: 83 27 03 00  	lw	a5, 0x0(t1)
   18ab2: 5a e0        	sd	s6, 0x0(sp)
   18ab4: 1b 87 1a 00  	addiw	a4, s5, 0x1
   18ab8: 3b db e7 02  	divuw	s6, a5, a4
   18abc: 52 e8        	sd	s4, 0x10(sp)
   18abe: 2a 8a        	mv	s4, a0
   18ac0: da 8a        	mv	s5, s6
   18ac2: 63 ea e7 08  	bltu	a5, a4, 0x18b56 <__quorem_D2A+0xd6>
   18ac6: 41 68        	lui	a6, 0x10
   18ac8: 22 85        	mv	a0, s0
   18aca: ce 88        	mv	a7, s3
   18acc: 01 4f        	li	t5, 0x0
   18ace: 81 4e        	li	t4, 0x0
   18ad0: 7d 18        	addi	a6, a6, -0x1
   18ad2: 18 41        	lw	a4, 0x0(a0)
   18ad4: 03 a6 08 00  	lw	a2, 0x0(a7)
   18ad8: 91 08        	addi	a7, a7, 0x4
   18ada: b3 76 07 01  	and	a3, a4, a6
   18ade: bb 86 66 03  	mulw	a3, a3, s6
   18ae2: 1b 57 07 01  	srliw	a4, a4, 0x10
   18ae6: b3 77 06 01  	and	a5, a2, a6
   18aea: 1b 5e 06 01  	srliw	t3, a2, 0x10
   18aee: 11 05        	addi	a0, a0, 0x4
   18af0: 3b 07 67 03  	mulw	a4, a4, s6
   18af4: bb 86 e6 01  	addw	a3, a3, t5
   18af8: 33 76 d8 00  	and	a2, a6, a3
   18afc: 91 9f        	subw	a5, a5, a2
   18afe: bb 87 d7 41  	subw	a5, a5, t4
   18b02: 9b d6 06 01  	srliw	a3, a3, 0x10
   18b06: 1b d6 07 01  	srliw	a2, a5, 0x10
   18b0a: 05 8a        	andi	a2, a2, 0x1
   18b0c: b3 77 f8 00  	and	a5, a6, a5
   18b10: 35 9f        	addw	a4, a4, a3
   18b12: b3 76 e8 00  	and	a3, a6, a4
   18b16: 35 9e        	addw	a2, a2, a3
   18b18: bb 06 ce 40  	subw	a3, t3, a2
   18b1c: 1b 96 06 01  	slliw	a2, a3, 0x10
   18b20: d1 8f        	or	a5, a5, a2
   18b22: 9b d6 06 01  	srliw	a3, a3, 0x10
   18b26: 23 ae f8 fe  	sw	a5, -0x4(a7)
   18b2a: 1b 5f 07 01  	srliw	t5, a4, 0x10
   18b2e: 93 fe 16 00  	andi	t4, a3, 0x1
   18b32: e3 70 a9 fa  	bgeu	s2, a0, 0x18ad2 <__quorem_D2A+0x52>
   18b36: 83 27 03 00  	lw	a5, 0x0(t1)
   18b3a: 91 ef        	bnez	a5, 0x18b56 <__quorem_D2A+0xd6>
   18b3c: 71 13        	addi	t1, t1, -0x4
   18b3e: 63 e6 69 00  	bltu	s3, t1, 0x18b4a <__quorem_D2A+0xca>
   18b42: 01 a8        	j	0x18b52 <__quorem_D2A+0xd2>
   18b44: fd 34        	addiw	s1, s1, -0x1
   18b46: 63 f6 69 00  	bgeu	s3, t1, 0x18b52 <__quorem_D2A+0xd2>
   18b4a: 83 27 03 00  	lw	a5, 0x0(t1)
   18b4e: 71 13        	addi	t1, t1, -0x4
   18b50: f5 db        	beqz	a5, 0x18b44 <__quorem_D2A+0xc4>
   18b52: 23 2a 9a 00  	sw	s1, 0x14(s4)
   18b56: 52 85        	mv	a0, s4
   18b58: ef 00 b0 0f  	jal	0x19452 <__mcmp>
   18b5c: 63 49 05 06  	bltz	a0, 0x18bce <__quorem_D2A+0x14e>
   18b60: 41 65        	lui	a0, 0x10
   18b62: 4e 86        	mv	a2, s3
   18b64: 81 45        	li	a1, 0x0
   18b66: 7d 15        	addi	a0, a0, -0x1
   18b68: 18 42        	lw	a4, 0x0(a2)
   18b6a: 14 40        	lw	a3, 0x0(s0)
   18b6c: 11 06        	addi	a2, a2, 0x4
   18b6e: b3 77 a7 00  	and	a5, a4, a0
   18b72: 33 f8 a6 00  	and	a6, a3, a0
   18b76: bb 87 07 41  	subw	a5, a5, a6
   18b7a: 8d 9f        	subw	a5, a5, a1
   18b7c: 9b d5 07 01  	srliw	a1, a5, 0x10
   18b80: 85 89        	andi	a1, a1, 0x1
   18b82: 9b d6 06 01  	srliw	a3, a3, 0x10
   18b86: ad 9e        	addw	a3, a3, a1
   18b88: 1b 57 07 01  	srliw	a4, a4, 0x10
   18b8c: 15 9f        	subw	a4, a4, a3
   18b8e: 9b 16 07 01  	slliw	a3, a4, 0x10
   18b92: e9 8f        	and	a5, a5, a0
   18b94: d5 8f        	or	a5, a5, a3
   18b96: 1b 57 07 01  	srliw	a4, a4, 0x10
   18b9a: 11 04        	addi	s0, s0, 0x4
   18b9c: 23 2e f6 fe  	sw	a5, -0x4(a2)
   18ba0: 93 75 17 00  	andi	a1, a4, 0x1
   18ba4: e3 72 89 fc  	bgeu	s2, s0, 0x18b68 <__quorem_D2A+0xe8>
   18ba8: 93 97 24 00  	slli	a5, s1, 0x2
   18bac: ce 97        	add	a5, a5, s3
   18bae: 98 43        	lw	a4, 0x0(a5)
   18bb0: 09 ef        	bnez	a4, 0x18bca <__quorem_D2A+0x14a>
   18bb2: f1 17        	addi	a5, a5, -0x4
   18bb4: 63 e6 f9 00  	bltu	s3, a5, 0x18bc0 <__quorem_D2A+0x140>
   18bb8: 39 a0        	j	0x18bc6 <__quorem_D2A+0x146>
   18bba: fd 34        	addiw	s1, s1, -0x1
   18bbc: 63 f5 f9 00  	bgeu	s3, a5, 0x18bc6 <__quorem_D2A+0x146>
   18bc0: 98 43        	lw	a4, 0x0(a5)
   18bc2: f1 17        	addi	a5, a5, -0x4
   18bc4: 7d db        	beqz	a4, 0x18bba <__quorem_D2A+0x13a>
   18bc6: 23 2a 9a 00  	sw	s1, 0x14(s4)
   18bca: 1b 8b 1a 00  	addiw	s6, s5, 0x1
   18bce: 42 74        	ld	s0, 0x30(sp)
   18bd0: e2 70        	ld	ra, 0x38(sp)
   18bd2: 02 79        	ld	s2, 0x20(sp)
   18bd4: e2 69        	ld	s3, 0x18(sp)
   18bd6: 42 6a        	ld	s4, 0x10(sp)
   18bd8: a2 6a        	ld	s5, 0x8(sp)
   18bda: a2 74        	ld	s1, 0x28(sp)
   18bdc: 1b 05 0b 00  	sext.w	a0, s6
   18be0: 02 6b        	ld	s6, 0x0(sp)
   18be2: 21 61        	addi	sp, sp, 0x40
   18be4: 82 80        	ret
   18be6: e2 70        	ld	ra, 0x38(sp)
   18be8: a2 74        	ld	s1, 0x28(sp)
   18bea: 01 45        	li	a0, 0x0
   18bec: 21 61        	addi	sp, sp, 0x40
   18bee: 82 80        	ret

0000000000018bf0 <__rshift_D2A>:
   18bf0: 58 49        	lw	a4, 0x14(a0)
   18bf2: 13 de 55 40  	srai	t3, a1, 0x5
   18bf6: 63 47 ee 00  	blt	t3, a4, 0x18c04 <__rshift_D2A+0x14>
   18bfa: 23 2a 05 00  	sw	zero, 0x14(a0)
   18bfe: 23 2c 05 00  	sw	zero, 0x18(a0)
   18c02: 82 80        	ret
   18c04: 13 03 85 01  	addi	t1, a0, 0x18
   18c08: 13 18 27 00  	slli	a6, a4, 0x2
   18c0c: 93 17 2e 00  	slli	a5, t3, 0x2
   18c10: fd 89        	andi	a1, a1, 0x1f
   18c12: 1a 98        	add	a6, a6, t1
   18c14: 9a 97        	add	a5, a5, t1
   18c16: b9 c1        	beqz	a1, 0x18c5c <__rshift_D2A+0x6c>
   18c18: 90 43        	lw	a2, 0x0(a5)
   18c1a: 93 0e 00 02  	li	t4, 0x20
   18c1e: 91 07        	addi	a5, a5, 0x4
   18c20: bb 56 b6 00  	srlw	a3, a2, a1
   18c24: bb 8e be 40  	subw	t4, t4, a1
   18c28: 63 ff 07 05  	bgeu	a5, a6, 0x18c86 <__rshift_D2A+0x96>
   18c2c: 9a 88        	mv	a7, t1
   18c2e: 90 43        	lw	a2, 0x0(a5)
   18c30: 91 08        	addi	a7, a7, 0x4
   18c32: 91 07        	addi	a5, a5, 0x4
   18c34: 3b 16 d6 01  	sllw	a2, a2, t4
   18c38: d1 8e        	or	a3, a3, a2
   18c3a: 23 ae d8 fe  	sw	a3, -0x4(a7)
   18c3e: 03 a6 c7 ff  	lw	a2, -0x4(a5)
   18c42: bb 56 b6 00  	srlw	a3, a2, a1
   18c46: e3 e4 07 ff  	bltu	a5, a6, 0x18c2e <__rshift_D2A+0x3e>
   18c4a: 33 07 c7 41  	sub	a4, a4, t3
   18c4e: 0a 07        	slli	a4, a4, 0x2
   18c50: 71 17        	addi	a4, a4, -0x4
   18c52: 1a 97        	add	a4, a4, t1
   18c54: 14 c3        	sw	a3, 0x0(a4)
   18c56: 8d c2        	beqz	a3, 0x18c78 <__rshift_D2A+0x88>
   18c58: 11 07        	addi	a4, a4, 0x4
   18c5a: 39 a8        	j	0x18c78 <__rshift_D2A+0x88>
   18c5c: 9a 86        	mv	a3, t1
   18c5e: e3 fe 07 f9  	bgeu	a5, a6, 0x18bfa <__rshift_D2A+0xa>
   18c62: 90 43        	lw	a2, 0x0(a5)
   18c64: 91 07        	addi	a5, a5, 0x4
   18c66: 91 06        	addi	a3, a3, 0x4
   18c68: 23 ae c6 fe  	sw	a2, -0x4(a3)
   18c6c: e3 eb 07 ff  	bltu	a5, a6, 0x18c62 <__rshift_D2A+0x72>
   18c70: 33 07 c7 41  	sub	a4, a4, t3
   18c74: 0a 07        	slli	a4, a4, 0x2
   18c76: 1a 97        	add	a4, a4, t1
   18c78: 33 07 67 40  	sub	a4, a4, t1
   18c7c: 09 87        	srai	a4, a4, 0x2
   18c7e: 01 27        	sext.w	a4, a4
   18c80: 58 c9        	sw	a4, 0x14(a0)
   18c82: 35 df        	beqz	a4, 0x18bfe <__rshift_D2A+0xe>
   18c84: 82 80        	ret
   18c86: 14 cd        	sw	a3, 0x18(a0)
   18c88: ad da        	beqz	a3, 0x18bfa <__rshift_D2A+0xa>
   18c8a: 1a 87        	mv	a4, t1
   18c8c: 11 07        	addi	a4, a4, 0x4
   18c8e: ed b7        	j	0x18c78 <__rshift_D2A+0x88>

0000000000018c90 <__trailz_D2A>:
   18c90: 58 49        	lw	a4, 0x14(a0)
   18c92: 01 11        	addi	sp, sp, -0x20
   18c94: 61 05        	addi	a0, a0, 0x18
   18c96: 0a 07        	slli	a4, a4, 0x2
   18c98: 22 e8        	sd	s0, 0x10(sp)
   18c9a: 06 ec        	sd	ra, 0x18(sp)
   18c9c: 2a 97        	add	a4, a4, a0
   18c9e: 01 44        	li	s0, 0x0
   18ca0: 63 68 e5 00  	bltu	a0, a4, 0x18cb0 <__trailz_D2A+0x20>
   18ca4: 39 a8        	j	0x18cc2 <__trailz_D2A+0x32>
   18ca6: 11 05        	addi	a0, a0, 0x4
   18ca8: 1b 04 04 02  	addiw	s0, s0, 0x20
   18cac: 63 7b e5 00  	bgeu	a0, a4, 0x18cc2 <__trailz_D2A+0x32>
   18cb0: 1c 41        	lw	a5, 0x0(a0)
   18cb2: f5 db        	beqz	a5, 0x18ca6 <__trailz_D2A+0x16>
   18cb4: 63 77 e5 00  	bgeu	a0, a4, 0x18cc2 <__trailz_D2A+0x32>
   18cb8: 68 00        	addi	a0, sp, 0xc
   18cba: 3e c6        	sw	a5, 0xc(sp)
   18cbc: ef 00 60 2f  	jal	0x18fb2 <__lo0bits>
   18cc0: 29 9c        	addw	s0, s0, a0
   18cc2: e2 60        	ld	ra, 0x18(sp)
   18cc4: 22 85        	mv	a0, s0
   18cc6: 42 64        	ld	s0, 0x10(sp)
   18cc8: 05 61        	addi	sp, sp, 0x20
   18cca: 82 80        	ret

0000000000018ccc <_mbtowc_r>:
   18ccc: 83 b7 81 d1  	ld	a5, -0x2e8(gp)
   18cd0: 82 87        	jr	a5

0000000000018cd2 <__ascii_mbtowc>:
   18cd2: 99 c9        	beqz	a1, 0x18ce8 <__ascii_mbtowc+0x16>
   18cd4: 1d c6        	beqz	a2, 0x18d02 <__ascii_mbtowc+0x30>
   18cd6: 95 ca        	beqz	a3, 0x18d0a <__ascii_mbtowc+0x38>
   18cd8: 83 47 06 00  	lbu	a5, 0x0(a2)
   18cdc: 9c c1        	sw	a5, 0x0(a1)
   18cde: 03 45 06 00  	lbu	a0, 0x0(a2)
   18ce2: 33 35 a0 00  	snez	a0, a0
   18ce6: 82 80        	ret
   18ce8: 41 11        	addi	sp, sp, -0x10
   18cea: 6c 00        	addi	a1, sp, 0xc
   18cec: 09 ce        	beqz	a2, 0x18d06 <__ascii_mbtowc+0x34>
   18cee: 85 c2        	beqz	a3, 0x18d0e <__ascii_mbtowc+0x3c>
   18cf0: 83 47 06 00  	lbu	a5, 0x0(a2)
   18cf4: 9c c1        	sw	a5, 0x0(a1)
   18cf6: 03 45 06 00  	lbu	a0, 0x0(a2)
   18cfa: 33 35 a0 00  	snez	a0, a0
   18cfe: 41 01        	addi	sp, sp, 0x10
   18d00: 82 80        	ret
   18d02: 01 45        	li	a0, 0x0
   18d04: 82 80        	ret
   18d06: 01 45        	li	a0, 0x0
   18d08: dd bf        	j	0x18cfe <__ascii_mbtowc+0x2c>
   18d0a: 79 55        	li	a0, -0x2
   18d0c: 82 80        	ret
   18d0e: 79 55        	li	a0, -0x2
   18d10: fd b7        	j	0x18cfe <__ascii_mbtowc+0x2c>

0000000000018d12 <_Balloc>:
   18d12: 3c 75        	ld	a5, 0x68(a0)
   18d14: 01 11        	addi	sp, sp, -0x20
   18d16: 22 e8        	sd	s0, 0x10(sp)
   18d18: 26 e4        	sd	s1, 0x8(sp)
   18d1a: 06 ec        	sd	ra, 0x18(sp)
   18d1c: aa 84        	mv	s1, a0
   18d1e: 2e 84        	mv	s0, a1
   18d20: 99 cf        	beqz	a5, 0x18d3e <_Balloc+0x2c>
   18d22: 13 17 34 00  	slli	a4, s0, 0x3
   18d26: ba 97        	add	a5, a5, a4
   18d28: 88 63        	ld	a0, 0x0(a5)
   18d2a: 05 c5        	beqz	a0, 0x18d52 <_Balloc+0x40>
   18d2c: 18 61        	ld	a4, 0x0(a0)
   18d2e: 98 e3        	sd	a4, 0x0(a5)
   18d30: 23 38 05 00  	sd	zero, 0x10(a0)
   18d34: e2 60        	ld	ra, 0x18(sp)
   18d36: 42 64        	ld	s0, 0x10(sp)
   18d38: a2 64        	ld	s1, 0x8(sp)
   18d3a: 05 61        	addi	sp, sp, 0x20
   18d3c: 82 80        	ret
   18d3e: 13 06 10 04  	li	a2, 0x41
   18d42: a1 45        	li	a1, 0x8
   18d44: ef 10 20 4a  	jal	0x1a1e6 <_calloc_r>
   18d48: a8 f4        	sd	a0, 0x68(s1)
   18d4a: aa 87        	mv	a5, a0
   18d4c: 79 f9        	bnez	a0, 0x18d22 <_Balloc+0x10>
   18d4e: 01 45        	li	a0, 0x0
   18d50: d5 b7        	j	0x18d34 <_Balloc+0x22>
   18d52: 85 47        	li	a5, 0x1
   18d54: bb 97 87 00  	sllw	a5, a5, s0
   18d58: 1b 86 07 00  	sext.w	a2, a5
   18d5c: 1d 06        	addi	a2, a2, 0x7
   18d5e: 02 14        	slli	s0, s0, 0x20
   18d60: 82 17        	slli	a5, a5, 0x20
   18d62: 01 90        	srli	s0, s0, 0x20
   18d64: 0a 06        	slli	a2, a2, 0x2
   18d66: 85 45        	li	a1, 0x1
   18d68: 26 85        	mv	a0, s1
   18d6a: 5d 8c        	or	s0, s0, a5
   18d6c: ef 10 a0 47  	jal	0x1a1e6 <_calloc_r>
   18d70: 79 dd        	beqz	a0, 0x18d4e <_Balloc+0x3c>
   18d72: 00 e5        	sd	s0, 0x8(a0)
   18d74: 75 bf        	j	0x18d30 <_Balloc+0x1e>

0000000000018d76 <_Bfree>:
   18d76: 81 c9        	beqz	a1, 0x18d86 <_Bfree+0x10>
   18d78: 98 45        	lw	a4, 0x8(a1)
   18d7a: 3c 75        	ld	a5, 0x68(a0)
   18d7c: 0e 07        	slli	a4, a4, 0x3
   18d7e: ba 97        	add	a5, a5, a4
   18d80: 98 63        	ld	a4, 0x0(a5)
   18d82: 98 e1        	sd	a4, 0x0(a1)
   18d84: 8c e3        	sd	a1, 0x0(a5)
   18d86: 82 80        	ret

0000000000018d88 <__multadd>:
   18d88: 79 71        	addi	sp, sp, -0x30
   18d8a: 22 f0        	sd	s0, 0x20(sp)
   18d8c: c0 49        	lw	s0, 0x14(a1)
   18d8e: 41 63        	lui	t1, 0x10
   18d90: 4a e8        	sd	s2, 0x10(sp)
   18d92: 4e e4        	sd	s3, 0x8(sp)
   18d94: 06 f4        	sd	ra, 0x28(sp)
   18d96: 26 ec        	sd	s1, 0x18(sp)
   18d98: 2e 89        	mv	s2, a1
   18d9a: aa 89        	mv	s3, a0
   18d9c: 13 88 85 01  	addi	a6, a1, 0x18
   18da0: 81 48        	li	a7, 0x0
   18da2: 7d 13        	addi	t1, t1, -0x1
   18da4: 83 27 08 00  	lw	a5, 0x0(a6)
   18da8: 11 08        	addi	a6, a6, 0x4
   18daa: 85 28        	addiw	a7, a7, 0x1
   18dac: 33 f7 67 00  	and	a4, a5, t1
   18db0: 3b 07 c7 02  	mulw	a4, a4, a2
   18db4: 9b d7 07 01  	srliw	a5, a5, 0x10
   18db8: bb 87 c7 02  	mulw	a5, a5, a2
   18dbc: 35 9f        	addw	a4, a4, a3
   18dbe: 9b 56 07 01  	srliw	a3, a4, 0x10
   18dc2: 33 77 e3 00  	and	a4, t1, a4
   18dc6: b5 9f        	addw	a5, a5, a3
   18dc8: 9b 96 07 01  	slliw	a3, a5, 0x10
   18dcc: 35 9f        	addw	a4, a4, a3
   18dce: 23 2e e8 fe  	sw	a4, -0x4(a6)
   18dd2: 9b d4 07 01  	srliw	s1, a5, 0x10
   18dd6: 9b d6 07 01  	srliw	a3, a5, 0x10
   18dda: e3 c5 88 fc  	blt	a7, s0, 0x18da4 <__multadd+0x1c>
   18dde: 89 ce        	beqz	a3, 0x18df8 <__multadd+0x70>
   18de0: 83 27 c9 00  	lw	a5, 0xc(s2)
   18de4: 63 52 f4 02  	bge	s0, a5, 0x18e08 <__multadd+0x80>
   18de8: 93 07 44 00  	addi	a5, s0, 0x4
   18dec: 8a 07        	slli	a5, a5, 0x2
   18dee: ca 97        	add	a5, a5, s2
   18df0: 84 c7        	sw	s1, 0x8(a5)
   18df2: 05 24        	addiw	s0, s0, 0x1
   18df4: 23 2a 89 00  	sw	s0, 0x14(s2)
   18df8: a2 70        	ld	ra, 0x28(sp)
   18dfa: 02 74        	ld	s0, 0x20(sp)
   18dfc: e2 64        	ld	s1, 0x18(sp)
   18dfe: a2 69        	ld	s3, 0x8(sp)
   18e00: 4a 85        	mv	a0, s2
   18e02: 42 69        	ld	s2, 0x10(sp)
   18e04: 45 61        	addi	sp, sp, 0x30
   18e06: 82 80        	ret
   18e08: 83 25 89 00  	lw	a1, 0x8(s2)
   18e0c: 4e 85        	mv	a0, s3
   18e0e: 52 e0        	sd	s4, 0x0(sp)
   18e10: 85 25        	addiw	a1, a1, 0x1
   18e12: ef f0 1f f0  	jal	0x18d12 <_Balloc>
   18e16: 2a 8a        	mv	s4, a0
   18e18: 21 c1        	beqz	a0, 0x18e58 <__multadd+0xd0>
   18e1a: 03 26 49 01  	lw	a2, 0x14(s2)
   18e1e: 93 05 09 01  	addi	a1, s2, 0x10
   18e22: 41 05        	addi	a0, a0, 0x10
   18e24: 09 06        	addi	a2, a2, 0x2
   18e26: 0a 06        	slli	a2, a2, 0x2
   18e28: ef e0 ef e1  	jal	0x17446 <memcpy>
   18e2c: 03 27 89 00  	lw	a4, 0x8(s2)
   18e30: 83 b7 89 06  	ld	a5, 0x68(s3)
   18e34: 0e 07        	slli	a4, a4, 0x3
   18e36: ba 97        	add	a5, a5, a4
   18e38: 98 63        	ld	a4, 0x0(a5)
   18e3a: 23 30 e9 00  	sd	a4, 0x0(s2)
   18e3e: 23 b0 27 01  	sd	s2, 0x0(a5)
   18e42: 93 07 44 00  	addi	a5, s0, 0x4
   18e46: 52 89        	mv	s2, s4
   18e48: 8a 07        	slli	a5, a5, 0x2
   18e4a: ca 97        	add	a5, a5, s2
   18e4c: 02 6a        	ld	s4, 0x0(sp)
   18e4e: 05 24        	addiw	s0, s0, 0x1
   18e50: 84 c7        	sw	s1, 0x8(a5)
   18e52: 23 2a 89 00  	sw	s0, 0x14(s2)
   18e56: 4d b7        	j	0x18df8 <__multadd+0x70>
   18e58: f5 66        	lui	a3, 0x1d
   18e5a: 75 65        	lui	a0, 0x1d
   18e5c: 93 86 06 ce  	addi	a3, a3, -0x320
   18e60: 01 46        	li	a2, 0x0
   18e62: 93 05 a0 0b  	li	a1, 0xba
   18e66: 13 05 85 cf  	addi	a0, a0, -0x308
   18e6a: ef 10 40 33  	jal	0x1a19e <__assert_func>

0000000000018e6e <__s2b>:
   18e6e: 39 71        	addi	sp, sp, -0x40
   18e70: 22 f8        	sd	s0, 0x30(sp)
   18e72: 26 f4        	sd	s1, 0x28(sp)
   18e74: 4a f0        	sd	s2, 0x20(sp)
   18e76: 4e ec        	sd	s3, 0x18(sp)
   18e78: 52 e8        	sd	s4, 0x10(sp)
   18e7a: b6 84        	mv	s1, a3
   18e7c: 2e 84        	mv	s0, a1
   18e7e: a1 26        	addiw	a3, a3, 0x8
   18e80: a5 45        	li	a1, 0x9
   18e82: 06 fc        	sd	ra, 0x38(sp)
   18e84: a5 47        	li	a5, 0x9
   18e86: bb c6 b6 02  	divw	a3, a3, a1
   18e8a: 2a 89        	mv	s2, a0
   18e8c: 32 8a        	mv	s4, a2
   18e8e: ba 89        	mv	s3, a4
   18e90: 63 d3 97 0a  	bge	a5, s1, 0x18f36 <__s2b+0xc8>
   18e94: 85 47        	li	a5, 0x1
   18e96: 81 45        	li	a1, 0x0
   18e98: 9b 97 17 00  	slliw	a5, a5, 0x1
   18e9c: 85 25        	addiw	a1, a1, 0x1
   18e9e: e3 cd d7 fe  	blt	a5, a3, 0x18e98 <__s2b+0x2a>
   18ea2: 4a 85        	mv	a0, s2
   18ea4: ef f0 ff e6  	jal	0x18d12 <_Balloc>
   18ea8: aa 85        	mv	a1, a0
   18eaa: 41 c9        	beqz	a0, 0x18f3a <__s2b+0xcc>
   18eac: 85 47        	li	a5, 0x1
   18eae: 5c c9        	sw	a5, 0x14(a0)
   18eb0: 23 2c 35 01  	sw	s3, 0x18(a0)
   18eb4: a5 47        	li	a5, 0x9
   18eb6: 63 dd 47 07  	bge	a5, s4, 0x18f30 <__s2b+0xc2>
   18eba: 93 17 0a 02  	slli	a5, s4, 0x20
   18ebe: 5a e0        	sd	s6, 0x0(sp)
   18ec0: 81 93        	srli	a5, a5, 0x20
   18ec2: 13 0b 94 00  	addi	s6, s0, 0x9
   18ec6: 56 e4        	sd	s5, 0x8(sp)
   18ec8: 3e 94        	add	s0, s0, a5
   18eca: 9b 0a 0a 00  	sext.w	s5, s4
   18ece: da 89        	mv	s3, s6
   18ed0: 83 c6 09 00  	lbu	a3, 0x0(s3)
   18ed4: 29 46        	li	a2, 0xa
   18ed6: 4a 85        	mv	a0, s2
   18ed8: 9b 86 06 fd  	addiw	a3, a3, -0x30
   18edc: ef f0 df ea  	jal	0x18d88 <__multadd>
   18ee0: 85 09        	addi	s3, s3, 0x1
   18ee2: aa 85        	mv	a1, a0
   18ee4: e3 96 89 fe  	bne	s3, s0, 0x18ed0 <__s2b+0x62>
   18ee8: e1 3a        	addiw	s5, s5, -0x8
   18eea: 82 1a        	slli	s5, s5, 0x20
   18eec: 93 da 0a 02  	srli	s5, s5, 0x20
   18ef0: 33 04 5b 01  	add	s0, s6, s5
   18ef4: a2 6a        	ld	s5, 0x8(sp)
   18ef6: 02 6b        	ld	s6, 0x0(sp)
   18ef8: 63 53 9a 02  	bge	s4, s1, 0x18f1e <__s2b+0xb0>
   18efc: bb 84 44 41  	subw	s1, s1, s4
   18f00: 82 14        	slli	s1, s1, 0x20
   18f02: 81 90        	srli	s1, s1, 0x20
   18f04: a2 94        	add	s1, s1, s0
   18f06: 83 46 04 00  	lbu	a3, 0x0(s0)
   18f0a: 29 46        	li	a2, 0xa
   18f0c: 4a 85        	mv	a0, s2
   18f0e: 9b 86 06 fd  	addiw	a3, a3, -0x30
   18f12: ef f0 7f e7  	jal	0x18d88 <__multadd>
   18f16: 05 04        	addi	s0, s0, 0x1
   18f18: aa 85        	mv	a1, a0
   18f1a: e3 16 94 fe  	bne	s0, s1, 0x18f06 <__s2b+0x98>
   18f1e: e2 70        	ld	ra, 0x38(sp)
   18f20: 42 74        	ld	s0, 0x30(sp)
   18f22: a2 74        	ld	s1, 0x28(sp)
   18f24: 02 79        	ld	s2, 0x20(sp)
   18f26: e2 69        	ld	s3, 0x18(sp)
   18f28: 42 6a        	ld	s4, 0x10(sp)
   18f2a: 2e 85        	mv	a0, a1
   18f2c: 21 61        	addi	sp, sp, 0x40
   18f2e: 82 80        	ret
   18f30: 29 04        	addi	s0, s0, 0xa
   18f32: 25 4a        	li	s4, 0x9
   18f34: d1 b7        	j	0x18ef8 <__s2b+0x8a>
   18f36: 81 45        	li	a1, 0x0
   18f38: ad b7        	j	0x18ea2 <__s2b+0x34>
   18f3a: f5 66        	lui	a3, 0x1d
   18f3c: 75 65        	lui	a0, 0x1d
   18f3e: 93 86 06 ce  	addi	a3, a3, -0x320
   18f42: 01 46        	li	a2, 0x0
   18f44: 93 05 30 0d  	li	a1, 0xd3
   18f48: 13 05 85 cf  	addi	a0, a0, -0x308
   18f4c: 56 e4        	sd	s5, 0x8(sp)
   18f4e: 5a e0        	sd	s6, 0x0(sp)
   18f50: ef 10 e0 24  	jal	0x1a19e <__assert_func>

0000000000018f54 <__hi0bits>:
   18f54: aa 87        	mv	a5, a0
   18f56: 41 67        	lui	a4, 0x10
   18f58: 01 45        	li	a0, 0x0
   18f5a: 63 f5 e7 00  	bgeu	a5, a4, 0x18f64 <__hi0bits+0x10>
   18f5e: 9b 97 07 01  	slliw	a5, a5, 0x10
   18f62: 41 45        	li	a0, 0x10
   18f64: 37 07 00 01  	lui	a4, 0x1000
   18f68: 63 f5 e7 00  	bgeu	a5, a4, 0x18f72 <__hi0bits+0x1e>
   18f6c: 9b 97 87 00  	slliw	a5, a5, 0x8
   18f70: 21 25        	addiw	a0, a0, 0x8
   18f72: 37 07 00 10  	lui	a4, 0x10000
   18f76: 63 f5 e7 00  	bgeu	a5, a4, 0x18f80 <__hi0bits+0x2c>
   18f7a: 9b 97 47 00  	slliw	a5, a5, 0x4
   18f7e: 11 25        	addiw	a0, a0, 0x4
   18f80: 37 07 00 40  	lui	a4, 0x40000
   18f84: 63 e6 e7 00  	bltu	a5, a4, 0x18f90 <__hi0bits+0x3c>
   18f88: 63 c0 07 02  	bltz	a5, 0x18fa8 <__hi0bits+0x54>
   18f8c: 05 25        	addiw	a0, a0, 0x1
   18f8e: 82 80        	ret
   18f90: 93 96 27 02  	slli	a3, a5, 0x22
   18f94: 1b 97 27 00  	slliw	a4, a5, 0x2
   18f98: 63 c9 06 00  	bltz	a3, 0x18faa <__hi0bits+0x56>
   18f9c: 93 17 17 02  	slli	a5, a4, 0x21
   18fa0: 63 c7 07 00  	bltz	a5, 0x18fae <__hi0bits+0x5a>
   18fa4: 13 05 00 02  	li	a0, 0x20
   18fa8: 82 80        	ret
   18faa: 09 25        	addiw	a0, a0, 0x2
   18fac: 82 80        	ret
   18fae: 0d 25        	addiw	a0, a0, 0x3
   18fb0: 82 80        	ret

0000000000018fb2 <__lo0bits>:
   18fb2: 1c 41        	lw	a5, 0x0(a0)
   18fb4: 2a 87        	mv	a4, a0
   18fb6: 93 f6 77 00  	andi	a3, a5, 0x7
   18fba: 3e 86        	mv	a2, a5
   18fbc: 81 ce        	beqz	a3, 0x18fd4 <__lo0bits+0x22>
   18fbe: 93 f6 17 00  	andi	a3, a5, 0x1
   18fc2: 01 45        	li	a0, 0x0
   18fc4: 9d ee        	bnez	a3, 0x19002 <__lo0bits+0x50>
   18fc6: 09 8a        	andi	a2, a2, 0x2
   18fc8: 25 ce        	beqz	a2, 0x19040 <__lo0bits+0x8e>
   18fca: 9b d7 17 00  	srliw	a5, a5, 0x1
   18fce: 1c c3        	sw	a5, 0x0(a4)
   18fd0: 05 45        	li	a0, 0x1
   18fd2: 82 80        	ret
   18fd4: 93 96 07 03  	slli	a3, a5, 0x30
   18fd8: c1 92        	srli	a3, a3, 0x30
   18fda: 01 45        	li	a0, 0x0
   18fdc: b9 ca        	beqz	a3, 0x19032 <__lo0bits+0x80>
   18fde: 93 f6 f7 0f  	andi	a3, a5, 0xff
   18fe2: a9 c2        	beqz	a3, 0x19024 <__lo0bits+0x72>
   18fe4: 93 f6 f7 00  	andi	a3, a5, 0xf
   18fe8: 9d c6        	beqz	a3, 0x19016 <__lo0bits+0x64>
   18fea: 93 f6 37 00  	andi	a3, a5, 0x3
   18fee: 89 ce        	beqz	a3, 0x19008 <__lo0bits+0x56>
   18ff0: 93 f6 17 00  	andi	a3, a5, 0x1
   18ff4: 81 ea        	bnez	a3, 0x19004 <__lo0bits+0x52>
   18ff6: 9b d7 17 00  	srliw	a5, a5, 0x1
   18ffa: 05 25        	addiw	a0, a0, 0x1
   18ffc: 81 e7        	bnez	a5, 0x19004 <__lo0bits+0x52>
   18ffe: 13 05 00 02  	li	a0, 0x20
   19002: 82 80        	ret
   19004: 1c c3        	sw	a5, 0x0(a4)
   19006: 82 80        	ret
   19008: 9b d7 27 00  	srliw	a5, a5, 0x2
   1900c: 93 f6 17 00  	andi	a3, a5, 0x1
   19010: 09 25        	addiw	a0, a0, 0x2
   19012: ed fa        	bnez	a3, 0x19004 <__lo0bits+0x52>
   19014: cd b7        	j	0x18ff6 <__lo0bits+0x44>
   19016: 9b d7 47 00  	srliw	a5, a5, 0x4
   1901a: 93 f6 37 00  	andi	a3, a5, 0x3
   1901e: 11 25        	addiw	a0, a0, 0x4
   19020: e1 fa        	bnez	a3, 0x18ff0 <__lo0bits+0x3e>
   19022: dd b7        	j	0x19008 <__lo0bits+0x56>
   19024: 9b d7 87 00  	srliw	a5, a5, 0x8
   19028: 93 f6 f7 00  	andi	a3, a5, 0xf
   1902c: 21 25        	addiw	a0, a0, 0x8
   1902e: d5 fe        	bnez	a3, 0x18fea <__lo0bits+0x38>
   19030: dd b7        	j	0x19016 <__lo0bits+0x64>
   19032: 9b d7 07 01  	srliw	a5, a5, 0x10
   19036: 93 f6 f7 0f  	andi	a3, a5, 0xff
   1903a: 41 45        	li	a0, 0x10
   1903c: c5 f6        	bnez	a3, 0x18fe4 <__lo0bits+0x32>
   1903e: dd b7        	j	0x19024 <__lo0bits+0x72>
   19040: 9b d7 27 00  	srliw	a5, a5, 0x2
   19044: 1c c3        	sw	a5, 0x0(a4)
   19046: 09 45        	li	a0, 0x2
   19048: 82 80        	ret

000000000001904a <__i2b>:
   1904a: 3c 75        	ld	a5, 0x68(a0)
   1904c: 01 11        	addi	sp, sp, -0x20
   1904e: 22 e8        	sd	s0, 0x10(sp)
   19050: 26 e4        	sd	s1, 0x8(sp)
   19052: 06 ec        	sd	ra, 0x18(sp)
   19054: 2a 84        	mv	s0, a0
   19056: ae 84        	mv	s1, a1
   19058: 91 cf        	beqz	a5, 0x19074 <__i2b+0x2a>
   1905a: 88 67        	ld	a0, 0x8(a5)
   1905c: 1d cd        	beqz	a0, 0x1909a <__i2b+0x50>
   1905e: 18 61        	ld	a4, 0x0(a0)
   19060: 98 e7        	sd	a4, 0x8(a5)
   19062: e2 60        	ld	ra, 0x18(sp)
   19064: 42 64        	ld	s0, 0x10(sp)
   19066: 85 47        	li	a5, 0x1
   19068: 82 17        	slli	a5, a5, 0x20
   1906a: 04 cd        	sw	s1, 0x18(a0)
   1906c: 1c e9        	sd	a5, 0x10(a0)
   1906e: a2 64        	ld	s1, 0x8(sp)
   19070: 05 61        	addi	sp, sp, 0x20
   19072: 82 80        	ret
   19074: 13 06 10 04  	li	a2, 0x41
   19078: a1 45        	li	a1, 0x8
   1907a: ef 10 c0 16  	jal	0x1a1e6 <_calloc_r>
   1907e: 28 f4        	sd	a0, 0x68(s0)
   19080: aa 87        	mv	a5, a0
   19082: 61 fd        	bnez	a0, 0x1905a <__i2b+0x10>
   19084: f5 66        	lui	a3, 0x1d
   19086: 75 65        	lui	a0, 0x1d
   19088: 93 86 06 ce  	addi	a3, a3, -0x320
   1908c: 01 46        	li	a2, 0x0
   1908e: 93 05 50 14  	li	a1, 0x145
   19092: 13 05 85 cf  	addi	a0, a0, -0x308
   19096: ef 10 80 10  	jal	0x1a19e <__assert_func>
   1909a: 13 06 40 02  	li	a2, 0x24
   1909e: 85 45        	li	a1, 0x1
   190a0: 22 85        	mv	a0, s0
   190a2: ef 10 40 14  	jal	0x1a1e6 <_calloc_r>
   190a6: 79 dd        	beqz	a0, 0x19084 <__i2b+0x3a>
   190a8: 85 47        	li	a5, 0x1
   190aa: 86 17        	slli	a5, a5, 0x21
   190ac: 85 07        	addi	a5, a5, 0x1
   190ae: 1c e5        	sd	a5, 0x8(a0)
   190b0: 4d bf        	j	0x19062 <__i2b+0x18>

00000000000190b2 <__multiply>:
   190b2: 79 71        	addi	sp, sp, -0x30
   190b4: 4a e8        	sd	s2, 0x10(sp)
   190b6: 4e e4        	sd	s3, 0x8(sp)
   190b8: 03 29 46 01  	lw	s2, 0x14(a2)
   190bc: 83 a9 45 01  	lw	s3, 0x14(a1)
   190c0: 26 ec        	sd	s1, 0x18(sp)
   190c2: 52 e0        	sd	s4, 0x0(sp)
   190c4: 06 f4        	sd	ra, 0x28(sp)
   190c6: 22 f0        	sd	s0, 0x20(sp)
   190c8: 2e 8a        	mv	s4, a1
   190ca: b2 84        	mv	s1, a2
   190cc: 63 c7 29 01  	blt	s3, s2, 0x190da <__multiply+0x28>
   190d0: ca 87        	mv	a5, s2
   190d2: ae 84        	mv	s1, a1
   190d4: 4e 89        	mv	s2, s3
   190d6: 32 8a        	mv	s4, a2
   190d8: be 89        	mv	s3, a5
   190da: dc 44        	lw	a5, 0xc(s1)
   190dc: 3b 04 39 01  	addw	s0, s2, s3
   190e0: 8c 44        	lw	a1, 0x8(s1)
   190e2: 63 d3 87 00  	bge	a5, s0, 0x190e8 <__multiply+0x36>
   190e6: 85 25        	addiw	a1, a1, 0x1
   190e8: ef f0 bf c2  	jal	0x18d12 <_Balloc>
   190ec: 63 0c 05 14  	beqz	a0, 0x19244 <__multiply+0x192>
   190f0: 13 03 85 01  	addi	t1, a0, 0x18
   190f4: 93 18 24 00  	slli	a7, s0, 0x2
   190f8: 9a 98        	add	a7, a7, t1
   190fa: 9a 87        	mv	a5, t1
   190fc: 63 77 13 01  	bgeu	t1, a7, 0x1910a <__multiply+0x58>
   19100: 23 a0 07 00  	sw	zero, 0x0(a5)
   19104: 91 07        	addi	a5, a5, 0x4
   19106: e3 ed 17 ff  	bltu	a5, a7, 0x19100 <__multiply+0x4e>
   1910a: 13 08 8a 01  	addi	a6, s4, 0x18
   1910e: 13 9e 29 00  	slli	t3, s3, 0x2
   19112: 93 8e 84 01  	addi	t4, s1, 0x18
   19116: 93 15 29 00  	slli	a1, s2, 0x2
   1911a: 42 9e        	add	t3, t3, a6
   1911c: f6 95        	add	a1, a1, t4
   1911e: 63 7a c8 0f  	bgeu	a6, t3, 0x19212 <__multiply+0x160>
   19122: 93 87 94 01  	addi	a5, s1, 0x19
   19126: 11 4f        	li	t5, 0x4
   19128: 63 f7 f5 10  	bgeu	a1, a5, 0x19236 <__multiply+0x184>
   1912c: c1 66        	lui	a3, 0x10
   1912e: fd 16        	addi	a3, a3, -0x1
   19130: 09 a8        	j	0x19142 <__multiply+0x90>
   19132: 9b df 0f 01  	srliw	t6, t6, 0x10
   19136: 63 9d 0f 06  	bnez	t6, 0x191b0 <__multiply+0xfe>
   1913a: 11 08        	addi	a6, a6, 0x4
   1913c: 11 03        	addi	t1, t1, 0x4
   1913e: 63 7a c8 0d  	bgeu	a6, t3, 0x19212 <__multiply+0x160>
   19142: 83 2f 08 00  	lw	t6, 0x0(a6)
   19146: b3 f3 df 00  	and	t2, t6, a3
   1914a: e3 84 03 fe  	beqz	t2, 0x19132 <__multiply+0x80>
   1914e: 9a 82        	mv	t0, t1
   19150: f6 8f        	mv	t6, t4
   19152: 81 44        	li	s1, 0x0
   19154: 83 a7 0f 00  	lw	a5, 0x0(t6)
   19158: 03 a6 02 00  	lw	a2, 0x0(t0)
   1915c: 91 02        	addi	t0, t0, 0x4
   1915e: 33 f7 d7 00  	and	a4, a5, a3
   19162: 3b 07 77 02  	mulw	a4, a4, t2
   19166: 9b d7 07 01  	srliw	a5, a5, 0x10
   1916a: 33 79 d6 00  	and	s2, a2, a3
   1916e: 1b 56 06 01  	srliw	a2, a2, 0x10
   19172: 91 0f        	addi	t6, t6, 0x4
   19174: bb 87 77 02  	mulw	a5, a5, t2
   19178: 3b 07 27 01  	addw	a4, a4, s2
   1917c: 25 9f        	addw	a4, a4, s1
   1917e: 9b 54 07 01  	srliw	s1, a4, 0x10
   19182: 75 8f        	and	a4, a4, a3
   19184: b1 9f        	addw	a5, a5, a2
   19186: a5 9f        	addw	a5, a5, s1
   19188: 1b 96 07 01  	slliw	a2, a5, 0x10
   1918c: 51 8f        	or	a4, a4, a2
   1918e: 23 ae e2 fe  	sw	a4, -0x4(t0)
   19192: 9b d4 07 01  	srliw	s1, a5, 0x10
   19196: 1b d7 07 01  	srliw	a4, a5, 0x10
   1919a: e3 ed bf fa  	bltu	t6, a1, 0x19154 <__multiply+0xa2>
   1919e: b3 07 e3 01  	add	a5, t1, t5
   191a2: 98 c3        	sw	a4, 0x0(a5)
   191a4: 83 2f 08 00  	lw	t6, 0x0(a6)
   191a8: 9b df 0f 01  	srliw	t6, t6, 0x10
   191ac: e3 87 0f f8  	beqz	t6, 0x1913a <__multiply+0x88>
   191b0: 03 27 03 00  	lw	a4, 0x0(t1)
   191b4: 9a 82        	mv	t0, t1
   191b6: 76 86        	mv	a2, t4
   191b8: ba 83        	mv	t2, a4
   191ba: 81 44        	li	s1, 0x0
   191bc: 1c 42        	lw	a5, 0x0(a2)
   191be: 9b d9 03 01  	srliw	s3, t2, 0x10
   191c2: 75 8f        	and	a4, a4, a3
   191c4: f5 8f        	and	a5, a5, a3
   191c6: bb 87 f7 03  	mulw	a5, a5, t6
   191ca: 83 a3 42 00  	lw	t2, 0x4(t0)
   191ce: 91 02        	addi	t0, t0, 0x4
   191d0: 11 06        	addi	a2, a2, 0x4
   191d2: 33 f9 d3 00  	and	s2, t2, a3
   191d6: a5 9f        	addw	a5, a5, s1
   191d8: bb 87 37 01  	addw	a5, a5, s3
   191dc: 9b 94 07 01  	slliw	s1, a5, 0x10
   191e0: 45 8f        	or	a4, a4, s1
   191e2: 23 ae e2 fe  	sw	a4, -0x4(t0)
   191e6: 03 57 e6 ff  	lhu	a4, -0x2(a2)
   191ea: 9b d7 07 01  	srliw	a5, a5, 0x10
   191ee: 3b 07 f7 03  	mulw	a4, a4, t6
   191f2: 3b 07 27 01  	addw	a4, a4, s2
   191f6: b9 9f        	addw	a5, a5, a4
   191f8: 1b 87 07 00  	sext.w	a4, a5
   191fc: 9b d4 07 01  	srliw	s1, a5, 0x10
   19200: e3 6e b6 fa  	bltu	a2, a1, 0x191bc <__multiply+0x10a>
   19204: 33 07 e3 01  	add	a4, t1, t5
   19208: 1c c3        	sw	a5, 0x0(a4)
   1920a: 11 08        	addi	a6, a6, 0x4
   1920c: 11 03        	addi	t1, t1, 0x4
   1920e: e3 6a c8 f3  	bltu	a6, t3, 0x19142 <__multiply+0x90>
   19212: 63 45 80 00  	bgtz	s0, 0x1921c <__multiply+0x16a>
   19216: 39 a0        	j	0x19224 <__multiply+0x172>
   19218: 7d 34        	addiw	s0, s0, -0x1
   1921a: 09 c4        	beqz	s0, 0x19224 <__multiply+0x172>
   1921c: 83 a7 c8 ff  	lw	a5, -0x4(a7)
   19220: f1 18        	addi	a7, a7, -0x4
   19222: fd db        	beqz	a5, 0x19218 <__multiply+0x166>
   19224: a2 70        	ld	ra, 0x28(sp)
   19226: 40 c9        	sw	s0, 0x14(a0)
   19228: 02 74        	ld	s0, 0x20(sp)
   1922a: e2 64        	ld	s1, 0x18(sp)
   1922c: 42 69        	ld	s2, 0x10(sp)
   1922e: a2 69        	ld	s3, 0x8(sp)
   19230: 02 6a        	ld	s4, 0x0(sp)
   19232: 45 61        	addi	sp, sp, 0x30
   19234: 82 80        	ret
   19236: b3 87 95 40  	sub	a5, a1, s1
   1923a: 9d 17        	addi	a5, a5, -0x19
   1923c: f1 9b        	andi	a5, a5, -0x4
   1923e: 13 8f 47 00  	addi	t5, a5, 0x4
   19242: ed b5        	j	0x1912c <__multiply+0x7a>
   19244: f5 66        	lui	a3, 0x1d
   19246: 75 65        	lui	a0, 0x1d
   19248: 93 86 06 ce  	addi	a3, a3, -0x320
   1924c: 01 46        	li	a2, 0x0
   1924e: 93 05 20 16  	li	a1, 0x162
   19252: 13 05 85 cf  	addi	a0, a0, -0x308
   19256: ef 00 90 74  	jal	0x1a19e <__assert_func>

000000000001925a <__pow5mult>:
   1925a: 79 71        	addi	sp, sp, -0x30
   1925c: 22 f0        	sd	s0, 0x20(sp)
   1925e: 4a e8        	sd	s2, 0x10(sp)
   19260: 4e e4        	sd	s3, 0x8(sp)
   19262: 06 f4        	sd	ra, 0x28(sp)
   19264: 93 77 36 00  	andi	a5, a2, 0x3
   19268: 32 84        	mv	s0, a2
   1926a: aa 89        	mv	s3, a0
   1926c: 2e 89        	mv	s2, a1
   1926e: ad eb        	bnez	a5, 0x192e0 <__pow5mult+0x86>
   19270: 09 84        	srai	s0, s0, 0x2
   19272: 31 c4        	beqz	s0, 0x192be <__pow5mult+0x64>
   19274: 26 ec        	sd	s1, 0x18(sp)
   19276: 83 b4 09 06  	ld	s1, 0x60(s3)
   1927a: bd cc        	beqz	s1, 0x192f8 <__pow5mult+0x9e>
   1927c: 93 77 14 00  	andi	a5, s0, 0x1
   19280: 89 eb        	bnez	a5, 0x19292 <__pow5mult+0x38>
   19282: 05 84        	srai	s0, s0, 0x1
   19284: 05 cc        	beqz	s0, 0x192bc <__pow5mult+0x62>
   19286: 88 60        	ld	a0, 0x0(s1)
   19288: 31 c1        	beqz	a0, 0x192cc <__pow5mult+0x72>
   1928a: aa 84        	mv	s1, a0
   1928c: 93 77 14 00  	andi	a5, s0, 0x1
   19290: ed db        	beqz	a5, 0x19282 <__pow5mult+0x28>
   19292: 26 86        	mv	a2, s1
   19294: ca 85        	mv	a1, s2
   19296: 4e 85        	mv	a0, s3
   19298: ef f0 bf e1  	jal	0x190b2 <__multiply>
   1929c: 63 0d 09 00  	beqz	s2, 0x192b6 <__pow5mult+0x5c>
   192a0: 03 27 89 00  	lw	a4, 0x8(s2)
   192a4: 83 b7 89 06  	ld	a5, 0x68(s3)
   192a8: 0e 07        	slli	a4, a4, 0x3
   192aa: ba 97        	add	a5, a5, a4
   192ac: 98 63        	ld	a4, 0x0(a5)
   192ae: 23 30 e9 00  	sd	a4, 0x0(s2)
   192b2: 23 b0 27 01  	sd	s2, 0x0(a5)
   192b6: 05 84        	srai	s0, s0, 0x1
   192b8: 2a 89        	mv	s2, a0
   192ba: 71 f4        	bnez	s0, 0x19286 <__pow5mult+0x2c>
   192bc: e2 64        	ld	s1, 0x18(sp)
   192be: a2 70        	ld	ra, 0x28(sp)
   192c0: 02 74        	ld	s0, 0x20(sp)
   192c2: a2 69        	ld	s3, 0x8(sp)
   192c4: 4a 85        	mv	a0, s2
   192c6: 42 69        	ld	s2, 0x10(sp)
   192c8: 45 61        	addi	sp, sp, 0x30
   192ca: 82 80        	ret
   192cc: 26 86        	mv	a2, s1
   192ce: a6 85        	mv	a1, s1
   192d0: 4e 85        	mv	a0, s3
   192d2: ef f0 1f de  	jal	0x190b2 <__multiply>
   192d6: 88 e0        	sd	a0, 0x0(s1)
   192d8: 23 30 05 00  	sd	zero, 0x0(a0)
   192dc: aa 84        	mv	s1, a0
   192de: 7d b7        	j	0x1928c <__pow5mult+0x32>
   192e0: fd 37        	addiw	a5, a5, -0x1
   192e2: 75 67        	lui	a4, 0x1d
   192e4: 13 07 87 2e  	addi	a4, a4, 0x2e8
   192e8: 8a 07        	slli	a5, a5, 0x2
   192ea: ba 97        	add	a5, a5, a4
   192ec: 90 43        	lw	a2, 0x0(a5)
   192ee: 81 46        	li	a3, 0x0
   192f0: ef f0 9f a9  	jal	0x18d88 <__multadd>
   192f4: 2a 89        	mv	s2, a0
   192f6: ad bf        	j	0x19270 <__pow5mult+0x16>
   192f8: 85 45        	li	a1, 0x1
   192fa: 4e 85        	mv	a0, s3
   192fc: ef f0 7f a1  	jal	0x18d12 <_Balloc>
   19300: aa 84        	mv	s1, a0
   19302: 19 c9        	beqz	a0, 0x19318 <__pow5mult+0xbe>
   19304: 93 07 10 27  	li	a5, 0x271
   19308: 1c cd        	sw	a5, 0x18(a0)
   1930a: 85 47        	li	a5, 0x1
   1930c: 5c c9        	sw	a5, 0x14(a0)
   1930e: 23 b0 a9 06  	sd	a0, 0x60(s3)
   19312: 23 30 05 00  	sd	zero, 0x0(a0)
   19316: 9d b7        	j	0x1927c <__pow5mult+0x22>
   19318: f5 66        	lui	a3, 0x1d
   1931a: 75 65        	lui	a0, 0x1d
   1931c: 93 86 06 ce  	addi	a3, a3, -0x320
   19320: 01 46        	li	a2, 0x0
   19322: 93 05 50 14  	li	a1, 0x145
   19326: 13 05 85 cf  	addi	a0, a0, -0x308
   1932a: ef 00 50 67  	jal	0x1a19e <__assert_func>

000000000001932e <__lshift>:
   1932e: 39 71        	addi	sp, sp, -0x40
   19330: 22 f8        	sd	s0, 0x30(sp)
   19332: c0 49        	lw	s0, 0x14(a1)
   19334: dc 45        	lw	a5, 0xc(a1)
   19336: 56 e4        	sd	s5, 0x8(sp)
   19338: 9b 5a 56 40  	sraiw	s5, a2, 0x5
   1933c: 3b 84 8a 00  	addw	s0, s5, s0
   19340: 26 f4        	sd	s1, 0x28(sp)
   19342: 4a f0        	sd	s2, 0x20(sp)
   19344: 4e ec        	sd	s3, 0x18(sp)
   19346: 52 e8        	sd	s4, 0x10(sp)
   19348: 5a e0        	sd	s6, 0x0(sp)
   1934a: 06 fc        	sd	ra, 0x38(sp)
   1934c: 1b 09 14 00  	addiw	s2, s0, 0x1
   19350: ae 84        	mv	s1, a1
   19352: 32 8a        	mv	s4, a2
   19354: 8c 45        	lw	a1, 0x8(a1)
   19356: aa 89        	mv	s3, a0
   19358: 13 5b 56 40  	srai	s6, a2, 0x5
   1935c: 63 d7 27 01  	bge	a5, s2, 0x1936a <__lshift+0x3c>
   19360: 9b 97 17 00  	slliw	a5, a5, 0x1
   19364: 85 25        	addiw	a1, a1, 0x1
   19366: e3 cd 27 ff  	blt	a5, s2, 0x19360 <__lshift+0x32>
   1936a: 4e 85        	mv	a0, s3
   1936c: ef f0 7f 9a  	jal	0x18d12 <_Balloc>
   19370: 71 c5        	beqz	a0, 0x1943c <__lshift+0x10e>
   19372: 13 07 85 01  	addi	a4, a0, 0x18
   19376: 63 51 60 03  	blez	s6, 0x19398 <__lshift+0x6a>
   1937a: 9b 86 6a 00  	addiw	a3, s5, 0x6
   1937e: 8a 06        	slli	a3, a3, 0x2
   19380: aa 96        	add	a3, a3, a0
   19382: ba 87        	mv	a5, a4
   19384: 91 07        	addi	a5, a5, 0x4
   19386: 23 ae 07 fe  	sw	zero, -0x4(a5)
   1938a: e3 9d d7 fe  	bne	a5, a3, 0x19384 <__lshift+0x56>
   1938e: 93 97 0a 02  	slli	a5, s5, 0x20
   19392: 93 da e7 01  	srli	s5, a5, 0x1e
   19396: 56 97        	add	a4, a4, s5
   19398: 83 a8 44 01  	lw	a7, 0x14(s1)
   1939c: 93 87 84 01  	addi	a5, s1, 0x18
   193a0: 13 76 fa 01  	andi	a2, s4, 0x1f
   193a4: 8a 08        	slli	a7, a7, 0x2
   193a6: be 98        	add	a7, a7, a5
   193a8: 3d ca        	beqz	a2, 0x1941e <__lshift+0xf0>
   193aa: 93 05 00 02  	li	a1, 0x20
   193ae: 91 9d        	subw	a1, a1, a2
   193b0: 3a 83        	mv	t1, a4
   193b2: 81 46        	li	a3, 0x0
   193b4: 03 a8 07 00  	lw	a6, 0x0(a5)
   193b8: 11 03        	addi	t1, t1, 0x4
   193ba: 91 07        	addi	a5, a5, 0x4
   193bc: 3b 18 c8 00  	sllw	a6, a6, a2
   193c0: b3 e6 06 01  	or	a3, a3, a6
   193c4: 23 2e d3 fe  	sw	a3, -0x4(t1)
   193c8: 03 a8 c7 ff  	lw	a6, -0x4(a5)
   193cc: bb 56 b8 00  	srlw	a3, a6, a1
   193d0: 36 88        	mv	a6, a3
   193d2: e3 e1 17 ff  	bltu	a5, a7, 0x193b4 <__lshift+0x86>
   193d6: 93 87 94 01  	addi	a5, s1, 0x19
   193da: 11 46        	li	a2, 0x4
   193dc: 63 e8 f8 00  	bltu	a7, a5, 0x193ec <__lshift+0xbe>
   193e0: b3 87 98 40  	sub	a5, a7, s1
   193e4: 9d 17        	addi	a5, a5, -0x19
   193e6: f1 9b        	andi	a5, a5, -0x4
   193e8: 13 86 47 00  	addi	a2, a5, 0x4
   193ec: 32 97        	add	a4, a4, a2
   193ee: 23 20 07 01  	sw	a6, 0x0(a4)
   193f2: 91 e2        	bnez	a3, 0x193f6 <__lshift+0xc8>
   193f4: 22 89        	mv	s2, s0
   193f6: 98 44        	lw	a4, 0x8(s1)
   193f8: 83 b7 89 06  	ld	a5, 0x68(s3)
   193fc: e2 70        	ld	ra, 0x38(sp)
   193fe: 0e 07        	slli	a4, a4, 0x3
   19400: ba 97        	add	a5, a5, a4
   19402: 98 63        	ld	a4, 0x0(a5)
   19404: 23 2a 25 01  	sw	s2, 0x14(a0)
   19408: 42 74        	ld	s0, 0x30(sp)
   1940a: 98 e0        	sd	a4, 0x0(s1)
   1940c: 84 e3        	sd	s1, 0x0(a5)
   1940e: 02 79        	ld	s2, 0x20(sp)
   19410: a2 74        	ld	s1, 0x28(sp)
   19412: e2 69        	ld	s3, 0x18(sp)
   19414: 42 6a        	ld	s4, 0x10(sp)
   19416: a2 6a        	ld	s5, 0x8(sp)
   19418: 02 6b        	ld	s6, 0x0(sp)
   1941a: 21 61        	addi	sp, sp, 0x40
   1941c: 82 80        	ret
   1941e: 94 43        	lw	a3, 0x0(a5)
   19420: 91 07        	addi	a5, a5, 0x4
   19422: 11 07        	addi	a4, a4, 0x4
   19424: 23 2e d7 fe  	sw	a3, -0x4(a4)
   19428: e3 f6 17 fd  	bgeu	a5, a7, 0x193f4 <__lshift+0xc6>
   1942c: 94 43        	lw	a3, 0x0(a5)
   1942e: 91 07        	addi	a5, a5, 0x4
   19430: 11 07        	addi	a4, a4, 0x4
   19432: 23 2e d7 fe  	sw	a3, -0x4(a4)
   19436: e3 e4 17 ff  	bltu	a5, a7, 0x1941e <__lshift+0xf0>
   1943a: 6d bf        	j	0x193f4 <__lshift+0xc6>
   1943c: f5 66        	lui	a3, 0x1d
   1943e: 75 65        	lui	a0, 0x1d
   19440: 93 86 06 ce  	addi	a3, a3, -0x320
   19444: 01 46        	li	a2, 0x0
   19446: 93 05 e0 1d  	li	a1, 0x1de
   1944a: 13 05 85 cf  	addi	a0, a0, -0x308
   1944e: ef 00 10 55  	jal	0x1a19e <__assert_func>

0000000000019452 <__mcmp>:
   19452: dc 49        	lw	a5, 0x14(a1)
   19454: 2a 88        	mv	a6, a0
   19456: 48 49        	lw	a0, 0x14(a0)
   19458: 1d 9d        	subw	a0, a0, a5
   1945a: 1d e5        	bnez	a0, 0x19488 <__mcmp+0x36>
   1945c: 8a 07        	slli	a5, a5, 0x2
   1945e: 61 08        	addi	a6, a6, 0x18
   19460: e1 05        	addi	a1, a1, 0x18
   19462: 33 07 f8 00  	add	a4, a6, a5
   19466: ae 97        	add	a5, a5, a1
   19468: 19 a0        	j	0x1946e <__mcmp+0x1c>
   1946a: 63 7f e8 00  	bgeu	a6, a4, 0x19488 <__mcmp+0x36>
   1946e: 03 26 c7 ff  	lw	a2, -0x4(a4)
   19472: 83 a6 c7 ff  	lw	a3, -0x4(a5)
   19476: 71 17        	addi	a4, a4, -0x4
   19478: f1 17        	addi	a5, a5, -0x4
   1947a: e3 08 d6 fe  	beq	a2, a3, 0x1946a <__mcmp+0x18>
   1947e: 05 45        	li	a0, 0x1
   19480: 63 74 d6 00  	bgeu	a2, a3, 0x19488 <__mcmp+0x36>
   19484: 7d 55        	li	a0, -0x1
   19486: 82 80        	ret
   19488: 82 80        	ret

000000000001948a <__mdiff>:
   1948a: d8 49        	lw	a4, 0x14(a1)
   1948c: 5c 4a        	lw	a5, 0x14(a2)
   1948e: 01 11        	addi	sp, sp, -0x20
   19490: 22 e8        	sd	s0, 0x10(sp)
   19492: 26 e4        	sd	s1, 0x8(sp)
   19494: 06 ec        	sd	ra, 0x18(sp)
   19496: 4a e0        	sd	s2, 0x0(sp)
   19498: 1d 9f        	subw	a4, a4, a5
   1949a: 2e 84        	mv	s0, a1
   1949c: b2 84        	mv	s1, a2
   1949e: 63 10 07 14  	bnez	a4, 0x195de <__mdiff+0x154>
   194a2: 93 96 27 00  	slli	a3, a5, 0x2
   194a6: 13 86 85 01  	addi	a2, a1, 0x18
   194aa: 13 87 84 01  	addi	a4, s1, 0x18
   194ae: b3 07 d6 00  	add	a5, a2, a3
   194b2: 36 97        	add	a4, a4, a3
   194b4: 19 a0        	j	0x194ba <__mdiff+0x30>
   194b6: 63 7c f6 12  	bgeu	a2, a5, 0x195ee <__mdiff+0x164>
   194ba: 83 a5 c7 ff  	lw	a1, -0x4(a5)
   194be: 83 26 c7 ff  	lw	a3, -0x4(a4)
   194c2: f1 17        	addi	a5, a5, -0x4
   194c4: 71 17        	addi	a4, a4, -0x4
   194c6: e3 88 d5 fe  	beq	a1, a3, 0x194b6 <__mdiff+0x2c>
   194ca: 05 49        	li	s2, 0x1
   194cc: 63 e6 d5 00  	bltu	a1, a3, 0x194d8 <__mdiff+0x4e>
   194d0: a6 87        	mv	a5, s1
   194d2: 01 49        	li	s2, 0x0
   194d4: a2 84        	mv	s1, s0
   194d6: 3e 84        	mv	s0, a5
   194d8: 8c 44        	lw	a1, 0x8(s1)
   194da: ef f0 9f 83  	jal	0x18d12 <_Balloc>
   194de: 63 0f 05 12  	beqz	a0, 0x1961c <__mdiff+0x192>
   194e2: 03 a3 44 01  	lw	t1, 0x14(s1)
   194e6: 83 22 44 01  	lw	t0, 0x14(s0)
   194ea: 13 8f 84 01  	addi	t5, s1, 0x18
   194ee: 13 1e 23 00  	slli	t3, t1, 0x2
   194f2: 13 08 84 01  	addi	a6, s0, 0x18
   194f6: 8a 02        	slli	t0, t0, 0x2
   194f8: 93 0f 85 01  	addi	t6, a0, 0x18
   194fc: c1 68        	lui	a7, 0x10
   194fe: 23 28 25 01  	sw	s2, 0x10(a0)
   19502: 7a 9e        	add	t3, t3, t5
   19504: c2 92        	add	t0, t0, a6
   19506: fe 85        	mv	a1, t6
   19508: fa 8e        	mv	t4, t5
   1950a: 01 46        	li	a2, 0x0
   1950c: fd 18        	addi	a7, a7, -0x1
   1950e: 03 a7 0e 00  	lw	a4, 0x0(t4)
   19512: 83 26 08 00  	lw	a3, 0x0(a6)
   19516: 91 05        	addi	a1, a1, 0x4
   19518: b3 77 17 01  	and	a5, a4, a7
   1951c: b3 f3 16 01  	and	t2, a3, a7
   19520: bb 87 77 40  	subw	a5, a5, t2
   19524: b1 9f        	addw	a5, a5, a2
   19526: 9b d6 06 01  	srliw	a3, a3, 0x10
   1952a: 1b 57 07 01  	srliw	a4, a4, 0x10
   1952e: 15 9f        	subw	a4, a4, a3
   19530: 9b d6 07 41  	sraiw	a3, a5, 0x10
   19534: 35 9f        	addw	a4, a4, a3
   19536: b3 f7 f8 00  	and	a5, a7, a5
   1953a: 9b 16 07 01  	slliw	a3, a4, 0x10
   1953e: d5 8f        	or	a5, a5, a3
   19540: 81 27        	sext.w	a5, a5
   19542: 11 08        	addi	a6, a6, 0x4
   19544: 23 ae f5 fe  	sw	a5, -0x4(a1)
   19548: 91 0e        	addi	t4, t4, 0x4
   1954a: 1b 56 07 41  	sraiw	a2, a4, 0x10
   1954e: e3 60 58 fc  	bltu	a6, t0, 0x1950e <__mdiff+0x84>
   19552: 13 07 94 01  	addi	a4, s0, 0x19
   19556: 33 84 82 40  	sub	s0, t0, s0
   1955a: 1d 14        	addi	s0, s0, -0x19
   1955c: b3 b2 e2 00  	sltu	t0, t0, a4
   19560: 93 c8 12 00  	xori	a7, t0, 0x1
   19564: 09 80        	srli	s0, s0, 0x2
   19566: 11 47        	li	a4, 0x4
   19568: 63 8f 02 06  	beqz	t0, 0x195e6 <__mdiff+0x15c>
   1956c: 3a 9f        	add	t5, t5, a4
   1956e: b3 8e ef 00  	add	t4, t6, a4
   19572: 41 68        	lui	a6, 0x10
   19574: f6 85        	mv	a1, t4
   19576: fa 86        	mv	a3, t5
   19578: 7d 18        	addi	a6, a6, -0x1
   1957a: 63 78 cf 09  	bgeu	t5, t3, 0x1960a <__mdiff+0x180>
   1957e: 9c 42        	lw	a5, 0x0(a3)
   19580: 9b 08 06 00  	sext.w	a7, a2
   19584: 91 05        	addi	a1, a1, 0x4
   19586: 33 f7 07 01  	and	a4, a5, a6
   1958a: 31 9f        	addw	a4, a4, a2
   1958c: 1b 57 07 41  	sraiw	a4, a4, 0x10
   19590: 1b d6 07 01  	srliw	a2, a5, 0x10
   19594: 31 9f        	addw	a4, a4, a2
   19596: bb 87 17 01  	addw	a5, a5, a7
   1959a: 1b 16 07 01  	slliw	a2, a4, 0x10
   1959e: b3 f7 07 01  	and	a5, a5, a6
   195a2: d1 8f        	or	a5, a5, a2
   195a4: 81 27        	sext.w	a5, a5
   195a6: 91 06        	addi	a3, a3, 0x4
   195a8: 23 ae f5 fe  	sw	a5, -0x4(a1)
   195ac: 1b 56 07 41  	sraiw	a2, a4, 0x10
   195b0: e3 e7 c6 fd  	bltu	a3, t3, 0x1957e <__mdiff+0xf4>
   195b4: 7d 1e        	addi	t3, t3, -0x1
   195b6: 33 0e ee 41  	sub	t3, t3, t5
   195ba: 13 7e ce ff  	andi	t3, t3, -0x4
   195be: 33 87 ce 01  	add	a4, t4, t3
   195c2: 91 e7        	bnez	a5, 0x195ce <__mdiff+0x144>
   195c4: 83 27 c7 ff  	lw	a5, -0x4(a4)
   195c8: 7d 33        	addiw	t1, t1, -0x1
   195ca: 71 17        	addi	a4, a4, -0x4
   195cc: e5 df        	beqz	a5, 0x195c4 <__mdiff+0x13a>
   195ce: e2 60        	ld	ra, 0x18(sp)
   195d0: 42 64        	ld	s0, 0x10(sp)
   195d2: 23 2a 65 00  	sw	t1, 0x14(a0)
   195d6: a2 64        	ld	s1, 0x8(sp)
   195d8: 02 69        	ld	s2, 0x0(sp)
   195da: 05 61        	addi	sp, sp, 0x20
   195dc: 82 80        	ret
   195de: 05 49        	li	s2, 0x1
   195e0: e3 58 07 ee  	bgez	a4, 0x194d0 <__mdiff+0x46>
   195e4: d5 bd        	j	0x194d8 <__mdiff+0x4e>
   195e6: 13 07 14 00  	addi	a4, s0, 0x1
   195ea: 0a 07        	slli	a4, a4, 0x2
   195ec: 41 b7        	j	0x1956c <__mdiff+0xe2>
   195ee: 81 45        	li	a1, 0x0
   195f0: ef f0 2f f2  	jal	0x18d12 <_Balloc>
   195f4: 1d cd        	beqz	a0, 0x19632 <__mdiff+0x1a8>
   195f6: e2 60        	ld	ra, 0x18(sp)
   195f8: 42 64        	ld	s0, 0x10(sp)
   195fa: 85 47        	li	a5, 0x1
   195fc: 5c c9        	sw	a5, 0x14(a0)
   195fe: 23 2c 05 00  	sw	zero, 0x18(a0)
   19602: a2 64        	ld	s1, 0x8(sp)
   19604: 02 69        	ld	s2, 0x0(sp)
   19606: 05 61        	addi	sp, sp, 0x20
   19608: 82 80        	ret
   1960a: 01 47        	li	a4, 0x0
   1960c: 63 94 08 00  	bnez	a7, 0x19614 <__mdiff+0x18a>
   19610: 7e 97        	add	a4, a4, t6
   19612: 45 bf        	j	0x195c2 <__mdiff+0x138>
   19614: 13 17 24 00  	slli	a4, s0, 0x2
   19618: 7e 97        	add	a4, a4, t6
   1961a: 65 b7        	j	0x195c2 <__mdiff+0x138>
   1961c: f5 66        	lui	a3, 0x1d
   1961e: 75 65        	lui	a0, 0x1d
   19620: 93 86 06 ce  	addi	a3, a3, -0x320
   19624: 01 46        	li	a2, 0x0
   19626: 93 05 50 24  	li	a1, 0x245
   1962a: 13 05 85 cf  	addi	a0, a0, -0x308
   1962e: ef 00 10 37  	jal	0x1a19e <__assert_func>
   19632: f5 66        	lui	a3, 0x1d
   19634: 75 65        	lui	a0, 0x1d
   19636: 93 86 06 ce  	addi	a3, a3, -0x320
   1963a: 01 46        	li	a2, 0x0
   1963c: 93 05 70 23  	li	a1, 0x237
   19640: 13 05 85 cf  	addi	a0, a0, -0x308
   19644: ef 00 b0 35  	jal	0x1a19e <__assert_func>

0000000000019648 <__ulp>:
   19648: 53 07 05 e2  	fmv.x.d	a4, fa0
   1964c: b7 07 f0 7f  	lui	a5, 0x7ff00
   19650: 01 93        	srli	a4, a4, 0x20
   19652: 7d 8f        	and	a4, a4, a5
   19654: b7 07 c0 fc  	lui	a5, 0xfcc00
   19658: bb 86 e7 00  	addw	a3, a5, a4
   1965c: 01 47        	li	a4, 0x0
   1965e: 63 59 d0 00  	blez	a3, 0x19670 <__ulp+0x28>
   19662: 02 17        	slli	a4, a4, 0x20
   19664: 82 16        	slli	a3, a3, 0x20
   19666: 01 93        	srli	a4, a4, 0x20
   19668: 55 8f        	or	a4, a4, a3
   1966a: 53 05 07 f2  	fmv.d.x	fa0, a4
   1966e: 82 80        	ret
   19670: bb 07 d0 40  	negw	a5, a3
   19674: 1b d7 47 41  	sraiw	a4, a5, 0x14
   19678: cd 46        	li	a3, 0x13
   1967a: 63 ce e6 00  	blt	a3, a4, 0x19696 <__ulp+0x4e>
   1967e: b7 06 08 00  	lui	a3, 0x80
   19682: bb d6 e6 40  	sraw	a3, a3, a4
   19686: 01 47        	li	a4, 0x0
   19688: 02 17        	slli	a4, a4, 0x20
   1968a: 82 16        	slli	a3, a3, 0x20
   1968c: 01 93        	srli	a4, a4, 0x20
   1968e: 55 8f        	or	a4, a4, a3
   19690: 53 05 07 f2  	fmv.d.x	fa0, a4
   19694: 82 80        	ret
   19696: 9b 07 c7 fe  	addiw	a5, a4, -0x14
   1969a: f9 46        	li	a3, 0x1e
   1969c: 05 47        	li	a4, 0x1
   1969e: 63 c6 f6 00  	blt	a3, a5, 0x196aa <__ulp+0x62>
   196a2: 37 07 00 80  	lui	a4, 0x80000
   196a6: 3b 57 f7 00  	srlw	a4, a4, a5
   196aa: 81 46        	li	a3, 0x0
   196ac: 02 17        	slli	a4, a4, 0x20
   196ae: 82 16        	slli	a3, a3, 0x20
   196b0: 01 93        	srli	a4, a4, 0x20
   196b2: 55 8f        	or	a4, a4, a3
   196b4: 53 05 07 f2  	fmv.d.x	fa0, a4
   196b8: 82 80        	ret

00000000000196ba <__b2d>:
   196ba: 79 71        	addi	sp, sp, -0x30
   196bc: 26 ec        	sd	s1, 0x18(sp)
   196be: 44 49        	lw	s1, 0x14(a0)
   196c0: 22 f0        	sd	s0, 0x20(sp)
   196c2: 13 04 85 01  	addi	s0, a0, 0x18
   196c6: 8a 04        	slli	s1, s1, 0x2
   196c8: a2 94        	add	s1, s1, s0
   196ca: 4a e8        	sd	s2, 0x10(sp)
   196cc: 03 a9 c4 ff  	lw	s2, -0x4(s1)
   196d0: 4e e4        	sd	s3, 0x8(sp)
   196d2: 52 e0        	sd	s4, 0x0(sp)
   196d4: 4a 85        	mv	a0, s2
   196d6: ae 89        	mv	s3, a1
   196d8: 06 f4        	sd	ra, 0x28(sp)
   196da: ef f0 bf 87  	jal	0x18f54 <__hi0bits>
   196de: 93 06 00 02  	li	a3, 0x20
   196e2: bb 87 a6 40  	subw	a5, a3, a0
   196e6: 23 a0 f9 00  	sw	a5, 0x0(s3)
   196ea: a9 47        	li	a5, 0xa
   196ec: 13 8a c4 ff  	addi	s4, s1, -0x4
   196f0: 63 d5 a7 08  	bge	a5, a0, 0x1977a <__b2d+0xc0>
   196f4: 9b 07 55 ff  	addiw	a5, a0, -0xb
   196f8: 63 71 44 05  	bgeu	s0, s4, 0x1973a <__b2d+0x80>
   196fc: 03 a7 84 ff  	lw	a4, -0x8(s1)
   19700: a9 cb        	beqz	a5, 0x19752 <__b2d+0x98>
   19702: 9d 9e        	subw	a3, a3, a5
   19704: 3b 56 d7 00  	srlw	a2, a4, a3
   19708: 3b 19 f9 00  	sllw	s2, s2, a5
   1970c: 33 69 c9 00  	or	s2, s2, a2
   19710: 37 06 f0 3f  	lui	a2, 0x3ff00
   19714: 33 69 c9 00  	or	s2, s2, a2
   19718: bb 15 f7 00  	sllw	a1, a4, a5
   1971c: 13 86 84 ff  	addi	a2, s1, -0x8
   19720: 93 17 09 02  	slli	a5, s2, 0x20
   19724: 1b 87 05 00  	sext.w	a4, a1
   19728: 63 7a c4 02  	bgeu	s0, a2, 0x1975c <__b2d+0xa2>
   1972c: 03 a7 44 ff  	lw	a4, -0xc(s1)
   19730: 3b 57 d7 00  	srlw	a4, a4, a3
   19734: 4d 8f        	or	a4, a4, a1
   19736: 01 27        	sext.w	a4, a4
   19738: 15 a0        	j	0x1975c <__b2d+0xa2>
   1973a: 2d 47        	li	a4, 0xb
   1973c: 63 0a e5 00  	beq	a0, a4, 0x19750 <__b2d+0x96>
   19740: 37 07 f0 3f  	lui	a4, 0x3ff00
   19744: bb 17 f9 00  	sllw	a5, s2, a5
   19748: d9 8f        	or	a5, a5, a4
   1974a: 82 17        	slli	a5, a5, 0x20
   1974c: 01 47        	li	a4, 0x0
   1974e: 39 a0        	j	0x1975c <__b2d+0xa2>
   19750: 01 47        	li	a4, 0x0
   19752: b7 07 f0 3f  	lui	a5, 0x3ff00
   19756: b3 67 f9 00  	or	a5, s2, a5
   1975a: 82 17        	slli	a5, a5, 0x20
   1975c: a2 70        	ld	ra, 0x28(sp)
   1975e: 02 74        	ld	s0, 0x20(sp)
   19760: 81 93        	srli	a5, a5, 0x20
   19762: 02 17        	slli	a4, a4, 0x20
   19764: 01 93        	srli	a4, a4, 0x20
   19766: 82 17        	slli	a5, a5, 0x20
   19768: d9 8f        	or	a5, a5, a4
   1976a: e2 64        	ld	s1, 0x18(sp)
   1976c: 42 69        	ld	s2, 0x10(sp)
   1976e: a2 69        	ld	s3, 0x8(sp)
   19770: 02 6a        	ld	s4, 0x0(sp)
   19772: 53 85 07 f2  	fmv.d.x	fa0, a5
   19776: 45 61        	addi	sp, sp, 0x30
   19778: 82 80        	ret
   1977a: ad 46        	li	a3, 0xb
   1977c: 89 9e        	subw	a3, a3, a0
   1977e: 37 07 f0 3f  	lui	a4, 0x3ff00
   19782: bb 57 d9 00  	srlw	a5, s2, a3
   19786: d9 8f        	or	a5, a5, a4
   19788: 82 17        	slli	a5, a5, 0x20
   1978a: 01 47        	li	a4, 0x0
   1978c: 63 76 44 01  	bgeu	s0, s4, 0x19798 <__b2d+0xde>
   19790: 03 a7 84 ff  	lw	a4, -0x8(s1)
   19794: 3b 57 d7 00  	srlw	a4, a4, a3
   19798: 55 25        	addiw	a0, a0, 0x15
   1979a: 3b 15 a9 00  	sllw	a0, s2, a0
   1979e: 49 8f        	or	a4, a4, a0
   197a0: 01 27        	sext.w	a4, a4
   197a2: 6d bf        	j	0x1975c <__b2d+0xa2>

00000000000197a4 <__d2b>:
   197a4: 39 71        	addi	sp, sp, -0x40
   197a6: 52 e8        	sd	s4, 0x10(sp)
   197a8: 2e 8a        	mv	s4, a1
   197aa: 85 45        	li	a1, 0x1
   197ac: 22 f8        	sd	s0, 0x30(sp)
   197ae: 4a f0        	sd	s2, 0x20(sp)
   197b0: 06 fc        	sd	ra, 0x38(sp)
   197b2: 26 f4        	sd	s1, 0x28(sp)
   197b4: 4e ec        	sd	s3, 0x18(sp)
   197b6: 53 04 05 e2  	fmv.x.d	s0, fa0
   197ba: 32 89        	mv	s2, a2
   197bc: ef f0 6f d5  	jal	0x18d12 <_Balloc>
   197c0: 55 c9        	beqz	a0, 0x19874 <__d2b+0xd0>
   197c2: 93 57 04 42  	srai	a5, s0, 0x20
   197c6: 9b d9 47 01  	srliw	s3, a5, 0x14
   197ca: 93 f9 f9 7f  	andi	s3, s3, 0x7ff
   197ce: b2 17        	slli	a5, a5, 0x2c
   197d0: aa 84        	mv	s1, a0
   197d2: b1 93        	srli	a5, a5, 0x2c
   197d4: 63 85 09 00  	beqz	s3, 0x197de <__d2b+0x3a>
   197d8: 37 07 10 00  	lui	a4, 0x100
   197dc: d9 8f        	or	a5, a5, a4
   197de: 3e c6        	sw	a5, 0xc(sp)
   197e0: 01 24        	sext.w	s0, s0
   197e2: 29 e0        	bnez	s0, 0x19824 <__d2b+0x80>
   197e4: 68 00        	addi	a0, sp, 0xc
   197e6: ef f0 cf fc  	jal	0x18fb2 <__lo0bits>
   197ea: b2 47        	lw	a5, 0xc(sp)
   197ec: 05 44        	li	s0, 0x1
   197ee: c0 c8        	sw	s0, 0x14(s1)
   197f0: 9c cc        	sw	a5, 0x18(s1)
   197f2: 1b 05 05 02  	addiw	a0, a0, 0x20
   197f6: 63 80 09 06  	beqz	s3, 0x19856 <__d2b+0xb2>
   197fa: 9b 89 d9 bc  	addiw	s3, s3, -0x433
   197fe: bb 89 a9 00  	addw	s3, s3, a0
   19802: 13 04 50 03  	li	s0, 0x35
   19806: 23 20 3a 01  	sw	s3, 0x0(s4)
   1980a: 3b 05 a4 40  	subw	a0, s0, a0
   1980e: e2 70        	ld	ra, 0x38(sp)
   19810: 42 74        	ld	s0, 0x30(sp)
   19812: 23 20 a9 00  	sw	a0, 0x0(s2)
   19816: e2 69        	ld	s3, 0x18(sp)
   19818: 02 79        	ld	s2, 0x20(sp)
   1981a: 42 6a        	ld	s4, 0x10(sp)
   1981c: 26 85        	mv	a0, s1
   1981e: a2 74        	ld	s1, 0x28(sp)
   19820: 21 61        	addi	sp, sp, 0x40
   19822: 82 80        	ret
   19824: 28 00        	addi	a0, sp, 0x8
   19826: 22 c4        	sw	s0, 0x8(sp)
   19828: ef f0 af f8  	jal	0x18fb2 <__lo0bits>
   1982c: b2 47        	lw	a5, 0xc(sp)
   1982e: 22 47        	lw	a4, 0x8(sp)
   19830: 19 c9        	beqz	a0, 0x19846 <__d2b+0xa2>
   19832: 93 06 00 02  	li	a3, 0x20
   19836: 89 9e        	subw	a3, a3, a0
   19838: bb 96 d7 00  	sllw	a3, a5, a3
   1983c: 55 8f        	or	a4, a4, a3
   1983e: bb d7 a7 00  	srlw	a5, a5, a0
   19842: 01 27        	sext.w	a4, a4
   19844: 3e c6        	sw	a5, 0xc(sp)
   19846: 33 34 f0 00  	snez	s0, a5
   1984a: 05 04        	addi	s0, s0, 0x1
   1984c: 98 cc        	sw	a4, 0x18(s1)
   1984e: dc cc        	sw	a5, 0x1c(s1)
   19850: c0 c8        	sw	s0, 0x14(s1)
   19852: e3 94 09 fa  	bnez	s3, 0x197fa <__d2b+0x56>
   19856: 1b 05 e5 bc  	addiw	a0, a0, -0x432
   1985a: 93 17 24 00  	slli	a5, s0, 0x2
   1985e: 23 20 aa 00  	sw	a0, 0x0(s4)
   19862: a6 97        	add	a5, a5, s1
   19864: c8 4b        	lw	a0, 0x14(a5)
   19866: 1b 14 54 00  	slliw	s0, s0, 0x5
   1986a: ef f0 af ee  	jal	0x18f54 <__hi0bits>
   1986e: 3b 05 a4 40  	subw	a0, s0, a0
   19872: 71 bf        	j	0x1980e <__d2b+0x6a>
   19874: f5 66        	lui	a3, 0x1d
   19876: 75 65        	lui	a0, 0x1d
   19878: 93 86 06 ce  	addi	a3, a3, -0x320
   1987c: 01 46        	li	a2, 0x0
   1987e: 93 05 f0 30  	li	a1, 0x30f
   19882: 13 05 85 cf  	addi	a0, a0, -0x308
   19886: ef 00 90 11  	jal	0x1a19e <__assert_func>

000000000001988a <__ratio>:
   1988a: 79 71        	addi	sp, sp, -0x30
   1988c: 26 ec        	sd	s1, 0x18(sp)
   1988e: ae 84        	mv	s1, a1
   19890: 2c 00        	addi	a1, sp, 0x8
   19892: 06 f4        	sd	ra, 0x28(sp)
   19894: 22 f0        	sd	s0, 0x20(sp)
   19896: 4a e8        	sd	s2, 0x10(sp)
   19898: 2a 89        	mv	s2, a0
   1989a: ef f0 1f e2  	jal	0x196ba <__b2d>
   1989e: 6c 00        	addi	a1, sp, 0xc
   198a0: 26 85        	mv	a0, s1
   198a2: 53 04 05 e2  	fmv.x.d	s0, fa0
   198a6: ef f0 5f e1  	jal	0x196ba <__b2d>
   198aa: 83 27 49 01  	lw	a5, 0x14(s2)
   198ae: d0 48        	lw	a2, 0x14(s1)
   198b0: b2 46        	lw	a3, 0xc(sp)
   198b2: 22 47        	lw	a4, 0x8(sp)
   198b4: 91 9f        	subw	a5, a5, a2
   198b6: 9b 97 57 00  	slliw	a5, a5, 0x5
   198ba: 15 9f        	subw	a4, a4, a3
   198bc: bb 86 e7 00  	addw	a3, a5, a4
   198c0: b6 87        	mv	a5, a3
   198c2: 53 07 05 e2  	fmv.x.d	a4, fa0
   198c6: 63 59 d0 02  	blez	a3, 0x198f8 <__ratio+0x6e>
   198ca: 93 56 04 02  	srli	a3, s0, 0x20
   198ce: 9b 97 47 01  	slliw	a5, a5, 0x14
   198d2: b5 9f        	addw	a5, a5, a3
   198d4: fd 56        	li	a3, -0x1
   198d6: 81 92        	srli	a3, a3, 0x20
   198d8: 82 17        	slli	a5, a5, 0x20
   198da: e1 8e        	and	a3, a3, s0
   198dc: 33 e4 f6 00  	or	s0, a3, a5
   198e0: d3 07 04 f2  	fmv.d.x	fa5, s0
   198e4: a2 70        	ld	ra, 0x28(sp)
   198e6: 02 74        	ld	s0, 0x20(sp)
   198e8: 53 07 07 f2  	fmv.d.x	fa4, a4
   198ec: e2 64        	ld	s1, 0x18(sp)
   198ee: 42 69        	ld	s2, 0x10(sp)
   198f0: 53 f5 e7 1a  	fdiv.d	fa0, fa5, fa4
   198f4: 45 61        	addi	sp, sp, 0x30
   198f6: 82 80        	ret
   198f8: 93 56 07 02  	srli	a3, a4, 0x20
   198fc: 9b 97 47 01  	slliw	a5, a5, 0x14
   19900: bb 87 f6 40  	subw	a5, a3, a5
   19904: fd 56        	li	a3, -0x1
   19906: 81 92        	srli	a3, a3, 0x20
   19908: 82 17        	slli	a5, a5, 0x20
   1990a: 75 8f        	and	a4, a4, a3
   1990c: 5d 8f        	or	a4, a4, a5
   1990e: c9 bf        	j	0x198e0 <__ratio+0x56>

0000000000019910 <_mprec_log10>:
   19910: dd 47        	li	a5, 0x17
   19912: 63 db a7 00  	bge	a5, a0, 0x19928 <_mprec_log10+0x18>
   19916: 07 b5 81 dd  	fld	fa0, -0x228(gp)
   1991a: 87 b7 81 0f  	fld	fa5, 0xf8(gp)
   1991e: 7d 35        	addiw	a0, a0, -0x1
   19920: 53 75 f5 12  	fmul.d	fa0, fa0, fa5
   19924: 6d fd        	bnez	a0, 0x1991e <_mprec_log10+0xe>
   19926: 82 80        	ret
   19928: f5 67        	lui	a5, 0x1d
   1992a: 0e 05        	slli	a0, a0, 0x3
   1992c: 93 87 87 34  	addi	a5, a5, 0x348
   19930: aa 97        	add	a5, a5, a0
   19932: 88 23        	fld	fa0, 0x0(a5)
   19934: 82 80        	ret

0000000000019936 <__copybits>:
   19936: 54 4a        	lw	a3, 0x14(a2)
   19938: fd 35        	addiw	a1, a1, -0x1
   1993a: 9b d5 55 40  	sraiw	a1, a1, 0x5
   1993e: 85 25        	addiw	a1, a1, 0x1
   19940: 93 07 86 01  	addi	a5, a2, 0x18
   19944: 8a 06        	slli	a3, a3, 0x2
   19946: 8a 05        	slli	a1, a1, 0x2
   19948: be 96        	add	a3, a3, a5
   1994a: aa 95        	add	a1, a1, a0
   1994c: 63 f1 d7 02  	bgeu	a5, a3, 0x1996e <__copybits+0x38>
   19950: 2a 87        	mv	a4, a0
   19952: 03 a8 07 00  	lw	a6, 0x0(a5)
   19956: 91 07        	addi	a5, a5, 0x4
   19958: 11 07        	addi	a4, a4, 0x4
   1995a: 23 2e 07 ff  	sw	a6, -0x4(a4)
   1995e: e3 ea d7 fe  	bltu	a5, a3, 0x19952 <__copybits+0x1c>
   19962: b3 87 c6 40  	sub	a5, a3, a2
   19966: 9d 17        	addi	a5, a5, -0x19
   19968: f1 9b        	andi	a5, a5, -0x4
   1996a: 91 07        	addi	a5, a5, 0x4
   1996c: 3e 95        	add	a0, a0, a5
   1996e: 63 77 b5 00  	bgeu	a0, a1, 0x1997c <__copybits+0x46>
   19972: 11 05        	addi	a0, a0, 0x4
   19974: 23 2e 05 fe  	sw	zero, -0x4(a0)
   19978: e3 6d b5 fe  	bltu	a0, a1, 0x19972 <__copybits+0x3c>
   1997c: 82 80        	ret

000000000001997e <__any_on>:
   1997e: 58 49        	lw	a4, 0x14(a0)
   19980: 13 d6 55 40  	srai	a2, a1, 0x5
   19984: 93 06 85 01  	addi	a3, a0, 0x18
   19988: 63 5d c7 00  	bge	a4, a2, 0x199a2 <__any_on+0x24>
   1998c: 0a 07        	slli	a4, a4, 0x2
   1998e: b3 87 e6 00  	add	a5, a3, a4
   19992: 63 f8 f6 02  	bgeu	a3, a5, 0x199c2 <__any_on+0x44>
   19996: 03 a7 c7 ff  	lw	a4, -0x4(a5)
   1999a: f1 17        	addi	a5, a5, -0x4
   1999c: 7d db        	beqz	a4, 0x19992 <__any_on+0x14>
   1999e: 05 45        	li	a0, 0x1
   199a0: 82 80        	ret
   199a2: 93 17 26 00  	slli	a5, a2, 0x2
   199a6: b6 97        	add	a5, a5, a3
   199a8: e3 55 e6 fe  	bge	a2, a4, 0x19992 <__any_on+0x14>
   199ac: fd 89        	andi	a1, a1, 0x1f
   199ae: f5 d1        	beqz	a1, 0x19992 <__any_on+0x14>
   199b0: 90 43        	lw	a2, 0x0(a5)
   199b2: 05 45        	li	a0, 0x1
   199b4: 3b 57 b6 00  	srlw	a4, a2, a1
   199b8: 3b 17 b7 00  	sllw	a4, a4, a1
   199bc: e3 0b c7 fc  	beq	a4, a2, 0x19992 <__any_on+0x14>
   199c0: 82 80        	ret
   199c2: 01 45        	li	a0, 0x0
   199c4: 82 80        	ret

00000000000199c6 <_realloc_r>:
   199c6: 5d 71        	addi	sp, sp, -0x50
   199c8: 4a f8        	sd	s2, 0x30(sp)
   199ca: 86 e4        	sd	ra, 0x48(sp)
   199cc: 32 89        	mv	s2, a2
   199ce: 63 84 05 16  	beqz	a1, 0x19b36 <_realloc_r+0x170>
   199d2: a2 e0        	sd	s0, 0x40(sp)
   199d4: 26 fc        	sd	s1, 0x38(sp)
   199d6: 2e 84        	mv	s0, a1
   199d8: 4e f4        	sd	s3, 0x28(sp)
   199da: 52 f0        	sd	s4, 0x20(sp)
   199dc: 56 ec        	sd	s5, 0x18(sp)
   199de: aa 89        	mv	s3, a0
   199e0: ef a0 cf cd  	jal	0x13ebc <__malloc_lock>
   199e4: 83 37 84 ff  	ld	a5, -0x8(s0)
   199e8: 93 04 79 01  	addi	s1, s2, 0x17
   199ec: 13 07 e0 02  	li	a4, 0x2e
   199f0: 93 0a 04 ff  	addi	s5, s0, -0x10
   199f4: 13 fa c7 ff  	andi	s4, a5, -0x4
   199f8: 63 74 97 0c  	bgeu	a4, s1, 0x19ac0 <_realloc_r+0xfa>
   199fc: 37 07 00 80  	lui	a4, 0x80000
   19a00: c1 98        	andi	s1, s1, -0x10
   19a02: 13 47 f7 ff  	not	a4, a4
   19a06: 63 61 97 0c  	bltu	a4, s1, 0x19ac8 <_realloc_r+0x102>
   19a0a: 63 ef 24 0b  	bltu	s1, s2, 0x19ac8 <_realloc_r+0x102>
   19a0e: 63 58 9a 0c  	bge	s4, s1, 0x19ade <_realloc_r+0x118>
   19a12: 37 f7 01 00  	lui	a4, 0x1f
   19a16: 62 e0        	sd	s8, 0x0(sp)
   19a18: 13 0c 07 9c  	addi	s8, a4, -0x640
   19a1c: 03 36 0c 01  	ld	a2, 0x10(s8)
   19a20: b3 86 4a 01  	add	a3, s5, s4
   19a24: 98 66        	ld	a4, 0x8(a3)
   19a26: 63 0f d6 12  	beq	a2, a3, 0x19b64 <_realloc_r+0x19e>
   19a2a: 13 76 e7 ff  	andi	a2, a4, -0x2
   19a2e: 36 96        	add	a2, a2, a3
   19a30: 10 66        	ld	a2, 0x8(a2)
   19a32: 05 8a        	andi	a2, a2, 0x1
   19a34: 6d e6        	bnez	a2, 0x19b1e <_realloc_r+0x158>
   19a36: 71 9b        	andi	a4, a4, -0x4
   19a38: 33 06 ea 00  	add	a2, s4, a4
   19a3c: 63 5b 96 08  	bge	a2, s1, 0x19ad2 <_realloc_r+0x10c>
   19a40: 85 8b        	andi	a5, a5, 0x1
   19a42: 8d e7        	bnez	a5, 0x19a6c <_realloc_r+0xa6>
   19a44: 5e e4        	sd	s7, 0x8(sp)
   19a46: 83 3b 04 ff  	ld	s7, -0x10(s0)
   19a4a: 5a e8        	sd	s6, 0x10(sp)
   19a4c: b3 8b 7a 41  	sub	s7, s5, s7
   19a50: 83 b7 8b 00  	ld	a5, 0x8(s7)
   19a54: f1 9b        	andi	a5, a5, -0x4
   19a56: 3e 97        	add	a4, a4, a5
   19a58: 33 0b 47 01  	add	s6, a4, s4
   19a5c: 63 55 9b 24  	bge	s6, s1, 0x19ca6 <_realloc_r+0x2e0>
   19a60: 33 0b fa 00  	add	s6, s4, a5
   19a64: 63 57 9b 1c  	bge	s6, s1, 0x19c32 <_realloc_r+0x26c>
   19a68: 42 6b        	ld	s6, 0x10(sp)
   19a6a: a2 6b        	ld	s7, 0x8(sp)
   19a6c: ca 85        	mv	a1, s2
   19a6e: 4e 85        	mv	a0, s3
   19a70: ef 90 5f e4  	jal	0x138b4 <_malloc_r>
   19a74: 2a 89        	mv	s2, a0
   19a76: 63 08 05 2e  	beqz	a0, 0x19d66 <_realloc_r+0x3a0>
   19a7a: 83 37 84 ff  	ld	a5, -0x8(s0)
   19a7e: 13 07 05 ff  	addi	a4, a0, -0x10
   19a82: f9 9b        	andi	a5, a5, -0x2
   19a84: d6 97        	add	a5, a5, s5
   19a86: 63 80 e7 1a  	beq	a5, a4, 0x19c26 <_realloc_r+0x260>
   19a8a: 13 06 8a ff  	addi	a2, s4, -0x8
   19a8e: 93 07 80 04  	li	a5, 0x48
   19a92: 63 e6 c7 20  	bltu	a5, a2, 0x19c9e <_realloc_r+0x2d8>
   19a96: 13 07 70 02  	li	a4, 0x27
   19a9a: 63 69 c7 16  	bltu	a4, a2, 0x19c0c <_realloc_r+0x246>
   19a9e: aa 87        	mv	a5, a0
   19aa0: 22 87        	mv	a4, s0
   19aa2: 14 63        	ld	a3, 0x0(a4)
   19aa4: 94 e3        	sd	a3, 0x0(a5)
   19aa6: 14 67        	ld	a3, 0x8(a4)
   19aa8: 94 e7        	sd	a3, 0x8(a5)
   19aaa: 18 6b        	ld	a4, 0x10(a4)
   19aac: 98 eb        	sd	a4, 0x10(a5)
   19aae: a2 85        	mv	a1, s0
   19ab0: 4e 85        	mv	a0, s3
   19ab2: ef 90 9f bb  	jal	0x1366a <_free_r>
   19ab6: 4e 85        	mv	a0, s3
   19ab8: ef a0 6f c0  	jal	0x13ebe <__malloc_unlock>
   19abc: 02 6c        	ld	s8, 0x0(sp)
   19abe: b1 a0        	j	0x19b0a <_realloc_r+0x144>
   19ac0: 93 04 00 02  	li	s1, 0x20
   19ac4: e3 f5 24 f5  	bgeu	s1, s2, 0x19a0e <_realloc_r+0x48>
   19ac8: b1 47        	li	a5, 0xc
   19aca: 23 a0 f9 00  	sw	a5, 0x0(s3)
   19ace: 01 49        	li	s2, 0x0
   19ad0: 2d a8        	j	0x19b0a <_realloc_r+0x144>
   19ad2: 9c 6e        	ld	a5, 0x18(a3)
   19ad4: 98 6a        	ld	a4, 0x10(a3)
   19ad6: 02 6c        	ld	s8, 0x0(sp)
   19ad8: 32 8a        	mv	s4, a2
   19ada: 1c ef        	sd	a5, 0x18(a4)
   19adc: 98 eb        	sd	a4, 0x10(a5)
   19ade: 83 b7 8a 00  	ld	a5, 0x8(s5)
   19ae2: b3 06 9a 40  	sub	a3, s4, s1
   19ae6: 7d 46        	li	a2, 0x1f
   19ae8: 85 8b        	andi	a5, a5, 0x1
   19aea: 33 87 4a 01  	add	a4, s5, s4
   19aee: 63 6a d6 04  	bltu	a2, a3, 0x19b42 <_realloc_r+0x17c>
   19af2: b3 e7 47 01  	or	a5, a5, s4
   19af6: 23 b4 fa 00  	sd	a5, 0x8(s5)
   19afa: 1c 67        	ld	a5, 0x8(a4)
   19afc: 93 e7 17 00  	ori	a5, a5, 0x1
   19b00: 1c e7        	sd	a5, 0x8(a4)
   19b02: 4e 85        	mv	a0, s3
   19b04: ef a0 af bb  	jal	0x13ebe <__malloc_unlock>
   19b08: 22 89        	mv	s2, s0
   19b0a: 06 64        	ld	s0, 0x40(sp)
   19b0c: a6 60        	ld	ra, 0x48(sp)
   19b0e: e2 74        	ld	s1, 0x38(sp)
   19b10: a2 79        	ld	s3, 0x28(sp)
   19b12: 02 7a        	ld	s4, 0x20(sp)
   19b14: e2 6a        	ld	s5, 0x18(sp)
   19b16: 4a 85        	mv	a0, s2
   19b18: 42 79        	ld	s2, 0x30(sp)
   19b1a: 61 61        	addi	sp, sp, 0x50
   19b1c: 82 80        	ret
   19b1e: 85 8b        	andi	a5, a5, 0x1
   19b20: b1 f7        	bnez	a5, 0x19a6c <_realloc_r+0xa6>
   19b22: 5e e4        	sd	s7, 0x8(sp)
   19b24: 83 3b 04 ff  	ld	s7, -0x10(s0)
   19b28: 5a e8        	sd	s6, 0x10(sp)
   19b2a: b3 8b 7a 41  	sub	s7, s5, s7
   19b2e: 83 b7 8b 00  	ld	a5, 0x8(s7)
   19b32: f1 9b        	andi	a5, a5, -0x4
   19b34: 35 b7        	j	0x19a60 <_realloc_r+0x9a>
   19b36: a6 60        	ld	ra, 0x48(sp)
   19b38: 42 79        	ld	s2, 0x30(sp)
   19b3a: b2 85        	mv	a1, a2
   19b3c: 61 61        	addi	sp, sp, 0x50
   19b3e: 6f 90 7f d7  	j	0x138b4 <_malloc_r>
   19b42: c5 8f        	or	a5, a5, s1
   19b44: 23 b4 fa 00  	sd	a5, 0x8(s5)
   19b48: b3 85 9a 00  	add	a1, s5, s1
   19b4c: 93 e6 16 00  	ori	a3, a3, 0x1
   19b50: 94 e5        	sd	a3, 0x8(a1)
   19b52: 1c 67        	ld	a5, 0x8(a4)
   19b54: c1 05        	addi	a1, a1, 0x10
   19b56: 4e 85        	mv	a0, s3
   19b58: 93 e7 17 00  	ori	a5, a5, 0x1
   19b5c: 1c e7        	sd	a5, 0x8(a4)
   19b5e: ef 90 df b0  	jal	0x1366a <_free_r>
   19b62: 45 b7        	j	0x19b02 <_realloc_r+0x13c>
   19b64: 71 9b        	andi	a4, a4, -0x4
   19b66: b3 06 47 01  	add	a3, a4, s4
   19b6a: 13 86 04 02  	addi	a2, s1, 0x20
   19b6e: 63 d3 c6 1c  	bge	a3, a2, 0x19d34 <_realloc_r+0x36e>
   19b72: 85 8b        	andi	a5, a5, 0x1
   19b74: e3 9c 07 ee  	bnez	a5, 0x19a6c <_realloc_r+0xa6>
   19b78: 5e e4        	sd	s7, 0x8(sp)
   19b7a: 83 3b 04 ff  	ld	s7, -0x10(s0)
   19b7e: 5a e8        	sd	s6, 0x10(sp)
   19b80: b3 8b 7a 41  	sub	s7, s5, s7
   19b84: 83 b7 8b 00  	ld	a5, 0x8(s7)
   19b88: f1 9b        	andi	a5, a5, -0x4
   19b8a: 3e 97        	add	a4, a4, a5
   19b8c: 33 0b 47 01  	add	s6, a4, s4
   19b90: e3 48 cb ec  	blt	s6, a2, 0x19a60 <_realloc_r+0x9a>
   19b94: 83 b7 8b 01  	ld	a5, 0x18(s7)
   19b98: 03 b7 0b 01  	ld	a4, 0x10(s7)
   19b9c: 13 06 8a ff  	addi	a2, s4, -0x8
   19ba0: 93 06 80 04  	li	a3, 0x48
   19ba4: 1c ef        	sd	a5, 0x18(a4)
   19ba6: 98 eb        	sd	a4, 0x10(a5)
   19ba8: 13 89 0b 01  	addi	s2, s7, 0x10
   19bac: 63 ec c6 1c  	bltu	a3, a2, 0x19d84 <_realloc_r+0x3be>
   19bb0: 13 07 70 02  	li	a4, 0x27
   19bb4: ca 87        	mv	a5, s2
   19bb6: 63 7f c7 00  	bgeu	a4, a2, 0x19bd4 <_realloc_r+0x20e>
   19bba: 18 60        	ld	a4, 0x0(s0)
   19bbc: 93 07 70 03  	li	a5, 0x37
   19bc0: 23 b8 eb 00  	sd	a4, 0x10(s7)
   19bc4: 18 64        	ld	a4, 0x8(s0)
   19bc6: 23 bc eb 00  	sd	a4, 0x18(s7)
   19bca: 63 e2 c7 1c  	bltu	a5, a2, 0x19d8e <_realloc_r+0x3c8>
   19bce: 41 04        	addi	s0, s0, 0x10
   19bd0: 93 87 0b 02  	addi	a5, s7, 0x20
   19bd4: 18 60        	ld	a4, 0x0(s0)
   19bd6: 98 e3        	sd	a4, 0x0(a5)
   19bd8: 18 64        	ld	a4, 0x8(s0)
   19bda: 98 e7        	sd	a4, 0x8(a5)
   19bdc: 18 68        	ld	a4, 0x10(s0)
   19bde: 98 eb        	sd	a4, 0x10(a5)
   19be0: 33 87 9b 00  	add	a4, s7, s1
   19be4: b3 07 9b 40  	sub	a5, s6, s1
   19be8: 23 38 ec 00  	sd	a4, 0x10(s8)
   19bec: 93 e7 17 00  	ori	a5, a5, 0x1
   19bf0: 1c e7        	sd	a5, 0x8(a4)
   19bf2: 83 b7 8b 00  	ld	a5, 0x8(s7)
   19bf6: 4e 85        	mv	a0, s3
   19bf8: 85 8b        	andi	a5, a5, 0x1
   19bfa: c5 8f        	or	a5, a5, s1
   19bfc: 23 b4 fb 00  	sd	a5, 0x8(s7)
   19c00: ef a0 ef ab  	jal	0x13ebe <__malloc_unlock>
   19c04: 42 6b        	ld	s6, 0x10(sp)
   19c06: a2 6b        	ld	s7, 0x8(sp)
   19c08: 02 6c        	ld	s8, 0x0(sp)
   19c0a: 01 b7        	j	0x19b0a <_realloc_r+0x144>
   19c0c: 14 60        	ld	a3, 0x0(s0)
   19c0e: 13 07 70 03  	li	a4, 0x37
   19c12: 14 e1        	sd	a3, 0x0(a0)
   19c14: 14 64        	ld	a3, 0x8(s0)
   19c16: 14 e5        	sd	a3, 0x8(a0)
   19c18: 63 63 c7 10  	bltu	a4, a2, 0x19d1e <_realloc_r+0x358>
   19c1c: 13 07 04 01  	addi	a4, s0, 0x10
   19c20: 93 07 05 01  	addi	a5, a0, 0x10
   19c24: bd bd        	j	0x19aa2 <_realloc_r+0xdc>
   19c26: 83 37 85 ff  	ld	a5, -0x8(a0)
   19c2a: 02 6c        	ld	s8, 0x0(sp)
   19c2c: f1 9b        	andi	a5, a5, -0x4
   19c2e: 3e 9a        	add	s4, s4, a5
   19c30: 7d b5        	j	0x19ade <_realloc_r+0x118>
   19c32: 83 b7 8b 01  	ld	a5, 0x18(s7)
   19c36: 03 b7 0b 01  	ld	a4, 0x10(s7)
   19c3a: 13 06 8a ff  	addi	a2, s4, -0x8
   19c3e: 93 06 80 04  	li	a3, 0x48
   19c42: 1c ef        	sd	a5, 0x18(a4)
   19c44: 98 eb        	sd	a4, 0x10(a5)
   19c46: 13 89 0b 01  	addi	s2, s7, 0x10
   19c4a: 63 e5 c6 0c  	bltu	a3, a2, 0x19d14 <_realloc_r+0x34e>
   19c4e: 13 07 70 02  	li	a4, 0x27
   19c52: ca 87        	mv	a5, s2
   19c54: 63 78 c7 02  	bgeu	a4, a2, 0x19c84 <_realloc_r+0x2be>
   19c58: 18 60        	ld	a4, 0x0(s0)
   19c5a: 93 07 70 03  	li	a5, 0x37
   19c5e: 23 b8 eb 00  	sd	a4, 0x10(s7)
   19c62: 18 64        	ld	a4, 0x8(s0)
   19c64: 23 bc eb 00  	sd	a4, 0x18(s7)
   19c68: 63 fb c7 0e  	bgeu	a5, a2, 0x19d5e <_realloc_r+0x398>
   19c6c: 1c 68        	ld	a5, 0x10(s0)
   19c6e: 23 b0 fb 02  	sd	a5, 0x20(s7)
   19c72: 1c 6c        	ld	a5, 0x18(s0)
   19c74: 23 b4 fb 02  	sd	a5, 0x28(s7)
   19c78: 63 02 d6 08  	beq	a2, a3, 0x19cfc <_realloc_r+0x336>
   19c7c: 13 04 04 02  	addi	s0, s0, 0x20
   19c80: 93 87 0b 03  	addi	a5, s7, 0x30
   19c84: 18 60        	ld	a4, 0x0(s0)
   19c86: 98 e3        	sd	a4, 0x0(a5)
   19c88: 18 64        	ld	a4, 0x8(s0)
   19c8a: 98 e7        	sd	a4, 0x8(a5)
   19c8c: 18 68        	ld	a4, 0x10(s0)
   19c8e: 98 eb        	sd	a4, 0x10(a5)
   19c90: 5a 8a        	mv	s4, s6
   19c92: de 8a        	mv	s5, s7
   19c94: 42 6b        	ld	s6, 0x10(sp)
   19c96: a2 6b        	ld	s7, 0x8(sp)
   19c98: 02 6c        	ld	s8, 0x0(sp)
   19c9a: 4a 84        	mv	s0, s2
   19c9c: 89 b5        	j	0x19ade <_realloc_r+0x118>
   19c9e: a2 85        	mv	a1, s0
   19ca0: ef d0 4f ed  	jal	0x17374 <memmove>
   19ca4: 29 b5        	j	0x19aae <_realloc_r+0xe8>
   19ca6: 9c 6e        	ld	a5, 0x18(a3)
   19ca8: 98 6a        	ld	a4, 0x10(a3)
   19caa: 13 06 8a ff  	addi	a2, s4, -0x8
   19cae: 93 06 80 04  	li	a3, 0x48
   19cb2: 1c ef        	sd	a5, 0x18(a4)
   19cb4: 98 eb        	sd	a4, 0x10(a5)
   19cb6: 03 b7 0b 01  	ld	a4, 0x10(s7)
   19cba: 83 b7 8b 01  	ld	a5, 0x18(s7)
   19cbe: 13 89 0b 01  	addi	s2, s7, 0x10
   19cc2: 1c ef        	sd	a5, 0x18(a4)
   19cc4: 98 eb        	sd	a4, 0x10(a5)
   19cc6: 63 e7 c6 04  	bltu	a3, a2, 0x19d14 <_realloc_r+0x34e>
   19cca: 13 07 70 02  	li	a4, 0x27
   19cce: ca 87        	mv	a5, s2
   19cd0: e3 7a c7 fa  	bgeu	a4, a2, 0x19c84 <_realloc_r+0x2be>
   19cd4: 18 60        	ld	a4, 0x0(s0)
   19cd6: 93 07 70 03  	li	a5, 0x37
   19cda: 23 b8 eb 00  	sd	a4, 0x10(s7)
   19cde: 18 64        	ld	a4, 0x8(s0)
   19ce0: 23 bc eb 00  	sd	a4, 0x18(s7)
   19ce4: 63 fd c7 06  	bgeu	a5, a2, 0x19d5e <_realloc_r+0x398>
   19ce8: 18 68        	ld	a4, 0x10(s0)
   19cea: 93 07 80 04  	li	a5, 0x48
   19cee: 23 b0 eb 02  	sd	a4, 0x20(s7)
   19cf2: 18 6c        	ld	a4, 0x18(s0)
   19cf4: 23 b4 eb 02  	sd	a4, 0x28(s7)
   19cf8: e3 12 f6 f8  	bne	a2, a5, 0x19c7c <_realloc_r+0x2b6>
   19cfc: 18 70        	ld	a4, 0x20(s0)
   19cfe: 93 87 0b 04  	addi	a5, s7, 0x40
   19d02: 13 04 04 03  	addi	s0, s0, 0x30
   19d06: 23 b8 eb 02  	sd	a4, 0x30(s7)
   19d0a: 03 37 84 ff  	ld	a4, -0x8(s0)
   19d0e: 23 bc eb 02  	sd	a4, 0x38(s7)
   19d12: 8d bf        	j	0x19c84 <_realloc_r+0x2be>
   19d14: a2 85        	mv	a1, s0
   19d16: 4a 85        	mv	a0, s2
   19d18: ef d0 cf e5  	jal	0x17374 <memmove>
   19d1c: 95 bf        	j	0x19c90 <_realloc_r+0x2ca>
   19d1e: 18 68        	ld	a4, 0x10(s0)
   19d20: 18 e9        	sd	a4, 0x10(a0)
   19d22: 18 6c        	ld	a4, 0x18(s0)
   19d24: 18 ed        	sd	a4, 0x18(a0)
   19d26: 63 06 f6 04  	beq	a2, a5, 0x19d72 <_realloc_r+0x3ac>
   19d2a: 13 07 04 02  	addi	a4, s0, 0x20
   19d2e: 93 07 05 02  	addi	a5, a0, 0x20
   19d32: 85 bb        	j	0x19aa2 <_realloc_r+0xdc>
   19d34: a6 9a        	add	s5, s5, s1
   19d36: b3 87 96 40  	sub	a5, a3, s1
   19d3a: 23 38 5c 01  	sd	s5, 0x10(s8)
   19d3e: 93 e7 17 00  	ori	a5, a5, 0x1
   19d42: 23 b4 fa 00  	sd	a5, 0x8(s5)
   19d46: 83 37 84 ff  	ld	a5, -0x8(s0)
   19d4a: 4e 85        	mv	a0, s3
   19d4c: 22 89        	mv	s2, s0
   19d4e: 85 8b        	andi	a5, a5, 0x1
   19d50: c5 8f        	or	a5, a5, s1
   19d52: 23 3c f4 fe  	sd	a5, -0x8(s0)
   19d56: ef a0 8f 96  	jal	0x13ebe <__malloc_unlock>
   19d5a: 02 6c        	ld	s8, 0x0(sp)
   19d5c: 7d b3        	j	0x19b0a <_realloc_r+0x144>
   19d5e: 41 04        	addi	s0, s0, 0x10
   19d60: 93 87 0b 02  	addi	a5, s7, 0x20
   19d64: 05 b7        	j	0x19c84 <_realloc_r+0x2be>
   19d66: 4e 85        	mv	a0, s3
   19d68: ef a0 6f 95  	jal	0x13ebe <__malloc_unlock>
   19d6c: 01 49        	li	s2, 0x0
   19d6e: 02 6c        	ld	s8, 0x0(sp)
   19d70: 69 bb        	j	0x19b0a <_realloc_r+0x144>
   19d72: 14 70        	ld	a3, 0x20(s0)
   19d74: 13 07 04 03  	addi	a4, s0, 0x30
   19d78: 93 07 05 03  	addi	a5, a0, 0x30
   19d7c: 14 f1        	sd	a3, 0x20(a0)
   19d7e: 14 74        	ld	a3, 0x28(s0)
   19d80: 14 f5        	sd	a3, 0x28(a0)
   19d82: 05 b3        	j	0x19aa2 <_realloc_r+0xdc>
   19d84: a2 85        	mv	a1, s0
   19d86: 4a 85        	mv	a0, s2
   19d88: ef d0 cf de  	jal	0x17374 <memmove>
   19d8c: 91 bd        	j	0x19be0 <_realloc_r+0x21a>
   19d8e: 1c 68        	ld	a5, 0x10(s0)
   19d90: 23 b0 fb 02  	sd	a5, 0x20(s7)
   19d94: 1c 6c        	ld	a5, 0x18(s0)
   19d96: 23 b4 fb 02  	sd	a5, 0x28(s7)
   19d9a: 63 07 d6 00  	beq	a2, a3, 0x19da8 <_realloc_r+0x3e2>
   19d9e: 13 04 04 02  	addi	s0, s0, 0x20
   19da2: 93 87 0b 03  	addi	a5, s7, 0x30
   19da6: 3d b5        	j	0x19bd4 <_realloc_r+0x20e>
   19da8: 18 70        	ld	a4, 0x20(s0)
   19daa: 93 87 0b 04  	addi	a5, s7, 0x40
   19dae: 13 04 04 03  	addi	s0, s0, 0x30
   19db2: 23 b8 eb 02  	sd	a4, 0x30(s7)
   19db6: 03 37 84 ff  	ld	a4, -0x8(s0)
   19dba: 23 bc eb 02  	sd	a4, 0x38(s7)
   19dbe: 19 bd        	j	0x19bd4 <_realloc_r+0x20e>

0000000000019dc0 <_wctomb_r>:
   19dc0: 83 b7 01 d1  	ld	a5, -0x2f0(gp)
   19dc4: 82 87        	jr	a5

0000000000019dc6 <__ascii_wctomb>:
   19dc6: 9b 07 06 00  	sext.w	a5, a2
   19dca: 91 cd        	beqz	a1, 0x19de6 <__ascii_wctomb+0x20>
   19dcc: 13 07 f0 0f  	li	a4, 0xff
   19dd0: 63 66 f7 00  	bltu	a4, a5, 0x19ddc <__ascii_wctomb+0x16>
   19dd4: 23 80 c5 00  	sb	a2, 0x0(a1)
   19dd8: 05 45        	li	a0, 0x1
   19dda: 82 80        	ret
   19ddc: 93 07 a0 08  	li	a5, 0x8a
   19de0: 1c c1        	sw	a5, 0x0(a0)
   19de2: 7d 55        	li	a0, -0x1
   19de4: 82 80        	ret
   19de6: 01 45        	li	a0, 0x0
   19de8: 82 80        	ret

0000000000019dea <_wcrtomb_r>:
   19dea: 79 71        	addi	sp, sp, -0x30
   19dec: 22 f0        	sd	s0, 0x20(sp)
   19dee: 26 ec        	sd	s1, 0x18(sp)
   19df0: 06 f4        	sd	ra, 0x28(sp)
   19df2: 83 b7 01 d1  	ld	a5, -0x2f0(gp)
   19df6: 2a 84        	mv	s0, a0
   19df8: b6 84        	mv	s1, a3
   19dfa: 91 c9        	beqz	a1, 0x19e0e <_wcrtomb_r+0x24>
   19dfc: 82 97        	jalr	a5
   19dfe: fd 57        	li	a5, -0x1
   19e00: 63 0d f5 00  	beq	a0, a5, 0x19e1a <_wcrtomb_r+0x30>
   19e04: a2 70        	ld	ra, 0x28(sp)
   19e06: 02 74        	ld	s0, 0x20(sp)
   19e08: e2 64        	ld	s1, 0x18(sp)
   19e0a: 45 61        	addi	sp, sp, 0x30
   19e0c: 82 80        	ret
   19e0e: 01 46        	li	a2, 0x0
   19e10: 8a 85        	mv	a1, sp
   19e12: 82 97        	jalr	a5
   19e14: fd 57        	li	a5, -0x1
   19e16: e3 17 f5 fe  	bne	a0, a5, 0x19e04 <_wcrtomb_r+0x1a>
   19e1a: 23 a0 04 00  	sw	zero, 0x0(s1)
   19e1e: 93 07 a0 08  	li	a5, 0x8a
   19e22: a2 70        	ld	ra, 0x28(sp)
   19e24: 1c c0        	sw	a5, 0x0(s0)
   19e26: 02 74        	ld	s0, 0x20(sp)
   19e28: e2 64        	ld	s1, 0x18(sp)
   19e2a: 45 61        	addi	sp, sp, 0x30
   19e2c: 82 80        	ret

0000000000019e2e <wcrtomb>:
   19e2e: 79 71        	addi	sp, sp, -0x30
   19e30: 22 f0        	sd	s0, 0x20(sp)
   19e32: 26 ec        	sd	s1, 0x18(sp)
   19e34: 06 f4        	sd	ra, 0x28(sp)
   19e36: 83 b4 01 22  	ld	s1, 0x220(gp)
   19e3a: 83 b7 01 d1  	ld	a5, -0x2f0(gp)
   19e3e: 32 84        	mv	s0, a2
   19e40: 11 cd        	beqz	a0, 0x19e5c <wcrtomb+0x2e>
   19e42: 2e 86        	mv	a2, a1
   19e44: a2 86        	mv	a3, s0
   19e46: aa 85        	mv	a1, a0
   19e48: 26 85        	mv	a0, s1
   19e4a: 82 97        	jalr	a5
   19e4c: fd 57        	li	a5, -0x1
   19e4e: 63 0f f5 00  	beq	a0, a5, 0x19e6c <wcrtomb+0x3e>
   19e52: a2 70        	ld	ra, 0x28(sp)
   19e54: 02 74        	ld	s0, 0x20(sp)
   19e56: e2 64        	ld	s1, 0x18(sp)
   19e58: 45 61        	addi	sp, sp, 0x30
   19e5a: 82 80        	ret
   19e5c: b2 86        	mv	a3, a2
   19e5e: 8a 85        	mv	a1, sp
   19e60: 01 46        	li	a2, 0x0
   19e62: 26 85        	mv	a0, s1
   19e64: 82 97        	jalr	a5
   19e66: fd 57        	li	a5, -0x1
   19e68: e3 15 f5 fe  	bne	a0, a5, 0x19e52 <wcrtomb+0x24>
   19e6c: 23 20 04 00  	sw	zero, 0x0(s0)
   19e70: a2 70        	ld	ra, 0x28(sp)
   19e72: 02 74        	ld	s0, 0x20(sp)
   19e74: 93 07 a0 08  	li	a5, 0x8a
   19e78: 9c c0        	sw	a5, 0x0(s1)
   19e7a: e2 64        	ld	s1, 0x18(sp)
   19e7c: 45 61        	addi	sp, sp, 0x30
   19e7e: 82 80        	ret

0000000000019e80 <__smakebuf_r>:
   19e80: 83 97 05 01  	lh	a5, 0x10(a1)
   19e84: 35 71        	addi	sp, sp, -0xa0
   19e86: 22 e9        	sd	s0, 0x90(sp)
   19e88: 06 ed        	sd	ra, 0x98(sp)
   19e8a: 13 f7 27 00  	andi	a4, a5, 0x2
   19e8e: 2e 84        	mv	s0, a1
   19e90: 19 cb        	beqz	a4, 0x19ea6 <__smakebuf_r+0x26>
   19e92: 93 87 75 07  	addi	a5, a1, 0x77
   19e96: 9c e1        	sd	a5, 0x0(a1)
   19e98: 9c ed        	sd	a5, 0x18(a1)
   19e9a: 85 47        	li	a5, 0x1
   19e9c: 9c d1        	sw	a5, 0x20(a1)
   19e9e: ea 60        	ld	ra, 0x98(sp)
   19ea0: 4a 64        	ld	s0, 0x90(sp)
   19ea2: 0d 61        	addi	sp, sp, 0xa0
   19ea4: 82 80        	ret
   19ea6: 83 95 25 01  	lh	a1, 0x12(a1)
   19eaa: 26 e5        	sd	s1, 0x88(sp)
   19eac: 4a e1        	sd	s2, 0x80(sp)
   19eae: ce fc        	sd	s3, 0x78(sp)
   19eb0: d2 f8        	sd	s4, 0x70(sp)
   19eb2: aa 84        	mv	s1, a0
   19eb4: 63 c4 05 06  	bltz	a1, 0x19f1c <__smakebuf_r+0x9c>
   19eb8: 30 00        	addi	a2, sp, 0x8
   19eba: ef 00 40 27  	jal	0x1a12e <_fstat_r>
   19ebe: 63 4d 05 04  	bltz	a0, 0x19f18 <__smakebuf_r+0x98>
   19ec2: 32 49        	lw	s2, 0xc(sp)
   19ec4: bd 67        	lui	a5, 0xf
   19ec6: 85 69        	lui	s3, 0x1
   19ec8: 33 79 f9 00  	and	s2, s2, a5
   19ecc: 89 67        	lui	a5, 0x2
   19ece: 33 09 f9 40  	sub	s2, s2, a5
   19ed2: 13 39 19 00  	seqz	s2, s2
   19ed6: 13 0a 00 40  	li	s4, 0x400
   19eda: 93 89 09 80  	addi	s3, s3, -0x800
   19ede: d2 85        	mv	a1, s4
   19ee0: 26 85        	mv	a0, s1
   19ee2: ef 90 3f 9d  	jal	0x138b4 <_malloc_r>
   19ee6: 83 17 04 01  	lh	a5, 0x10(s0)
   19eea: 39 c5        	beqz	a0, 0x19f38 <__smakebuf_r+0xb8>
   19eec: 93 e7 07 08  	ori	a5, a5, 0x80
   19ef0: 08 e0        	sd	a0, 0x0(s0)
   19ef2: 08 ec        	sd	a0, 0x18(s0)
   19ef4: 23 18 f4 00  	sh	a5, 0x10(s0)
   19ef8: 23 20 44 03  	sw	s4, 0x20(s0)
   19efc: 63 15 09 06  	bnez	s2, 0x19f66 <__smakebuf_r+0xe6>
   19f00: b3 e7 37 01  	or	a5, a5, s3
   19f04: ea 60        	ld	ra, 0x98(sp)
   19f06: 23 18 f4 00  	sh	a5, 0x10(s0)
   19f0a: 4a 64        	ld	s0, 0x90(sp)
   19f0c: aa 64        	ld	s1, 0x88(sp)
   19f0e: 0a 69        	ld	s2, 0x80(sp)
   19f10: e6 79        	ld	s3, 0x78(sp)
   19f12: 46 7a        	ld	s4, 0x70(sp)
   19f14: 0d 61        	addi	sp, sp, 0xa0
   19f16: 82 80        	ret
   19f18: 83 17 04 01  	lh	a5, 0x10(s0)
   19f1c: 93 f7 07 08  	andi	a5, a5, 0x80
   19f20: 01 49        	li	s2, 0x0
   19f22: 95 cf        	beqz	a5, 0x19f5e <__smakebuf_r+0xde>
   19f24: 13 0a 00 04  	li	s4, 0x40
   19f28: d2 85        	mv	a1, s4
   19f2a: 26 85        	mv	a0, s1
   19f2c: ef 90 9f 98  	jal	0x138b4 <_malloc_r>
   19f30: 83 17 04 01  	lh	a5, 0x10(s0)
   19f34: 81 49        	li	s3, 0x0
   19f36: 5d f9        	bnez	a0, 0x19eec <__smakebuf_r+0x6c>
   19f38: 13 f7 07 20  	andi	a4, a5, 0x200
   19f3c: 15 ef        	bnez	a4, 0x19f78 <__smakebuf_r+0xf8>
   19f3e: f1 9b        	andi	a5, a5, -0x4
   19f40: 93 e7 27 00  	ori	a5, a5, 0x2
   19f44: 13 07 74 07  	addi	a4, s0, 0x77
   19f48: 23 18 f4 00  	sh	a5, 0x10(s0)
   19f4c: 85 47        	li	a5, 0x1
   19f4e: aa 64        	ld	s1, 0x88(sp)
   19f50: 0a 69        	ld	s2, 0x80(sp)
   19f52: e6 79        	ld	s3, 0x78(sp)
   19f54: 46 7a        	ld	s4, 0x70(sp)
   19f56: 18 e0        	sd	a4, 0x0(s0)
   19f58: 18 ec        	sd	a4, 0x18(s0)
   19f5a: 1c d0        	sw	a5, 0x20(s0)
   19f5c: 89 b7        	j	0x19e9e <__smakebuf_r+0x1e>
   19f5e: 13 0a 00 40  	li	s4, 0x400
   19f62: 81 49        	li	s3, 0x0
   19f64: ad bf        	j	0x19ede <__smakebuf_r+0x5e>
   19f66: 83 15 24 01  	lh	a1, 0x12(s0)
   19f6a: 26 85        	mv	a0, s1
   19f6c: ef 00 c0 1f  	jal	0x1a168 <_isatty_r>
   19f70: 09 e9        	bnez	a0, 0x19f82 <__smakebuf_r+0x102>
   19f72: 83 17 04 01  	lh	a5, 0x10(s0)
   19f76: 69 b7        	j	0x19f00 <__smakebuf_r+0x80>
   19f78: aa 64        	ld	s1, 0x88(sp)
   19f7a: 0a 69        	ld	s2, 0x80(sp)
   19f7c: e6 79        	ld	s3, 0x78(sp)
   19f7e: 46 7a        	ld	s4, 0x70(sp)
   19f80: 39 bf        	j	0x19e9e <__smakebuf_r+0x1e>
   19f82: 83 57 04 01  	lhu	a5, 0x10(s0)
   19f86: f1 9b        	andi	a5, a5, -0x4
   19f88: 93 e7 17 00  	ori	a5, a5, 0x1
   19f8c: 9b 97 07 01  	slliw	a5, a5, 0x10
   19f90: 9b d7 07 41  	sraiw	a5, a5, 0x10
   19f94: b5 b7        	j	0x19f00 <__smakebuf_r+0x80>

0000000000019f96 <__swhatbuf_r>:
   19f96: 75 71        	addi	sp, sp, -0x90
   19f98: 22 e1        	sd	s0, 0x80(sp)
   19f9a: 2e 84        	mv	s0, a1
   19f9c: 83 95 25 01  	lh	a1, 0x12(a1)
   19fa0: a6 fc        	sd	s1, 0x78(sp)
   19fa2: ca f8        	sd	s2, 0x70(sp)
   19fa4: 06 e5        	sd	ra, 0x88(sp)
   19fa6: b2 84        	mv	s1, a2
   19fa8: 36 89        	mv	s2, a3
   19faa: 63 cc 05 02  	bltz	a1, 0x19fe2 <__swhatbuf_r+0x4c>
   19fae: 30 00        	addi	a2, sp, 0x8
   19fb0: ef 00 e0 17  	jal	0x1a12e <_fstat_r>
   19fb4: 63 47 05 02  	bltz	a0, 0x19fe2 <__swhatbuf_r+0x4c>
   19fb8: b2 47        	lw	a5, 0xc(sp)
   19fba: 3d 67        	lui	a4, 0xf
   19fbc: aa 60        	ld	ra, 0x88(sp)
   19fbe: f9 8f        	and	a5, a5, a4
   19fc0: 09 67        	lui	a4, 0x2
   19fc2: 99 8f        	sub	a5, a5, a4
   19fc4: 0a 64        	ld	s0, 0x80(sp)
   19fc6: 93 b7 17 00  	seqz	a5, a5
   19fca: 23 20 f9 00  	sw	a5, 0x0(s2)
   19fce: 13 07 00 40  	li	a4, 0x400
   19fd2: 98 e0        	sd	a4, 0x0(s1)
   19fd4: 05 65        	lui	a0, 0x1
   19fd6: e6 74        	ld	s1, 0x78(sp)
   19fd8: 46 79        	ld	s2, 0x70(sp)
   19fda: 13 05 05 80  	addi	a0, a0, -0x800
   19fde: 49 61        	addi	sp, sp, 0x90
   19fe0: 82 80        	ret
   19fe2: 83 57 04 01  	lhu	a5, 0x10(s0)
   19fe6: 93 f7 07 08  	andi	a5, a5, 0x80
   19fea: 91 cf        	beqz	a5, 0x1a006 <__swhatbuf_r+0x70>
   19fec: aa 60        	ld	ra, 0x88(sp)
   19fee: 0a 64        	ld	s0, 0x80(sp)
   19ff0: 81 47        	li	a5, 0x0
   19ff2: 23 20 f9 00  	sw	a5, 0x0(s2)
   19ff6: 13 07 00 04  	li	a4, 0x40
   19ffa: 98 e0        	sd	a4, 0x0(s1)
   19ffc: 46 79        	ld	s2, 0x70(sp)
   19ffe: e6 74        	ld	s1, 0x78(sp)
   1a000: 01 45        	li	a0, 0x0
   1a002: 49 61        	addi	sp, sp, 0x90
   1a004: 82 80        	ret
   1a006: aa 60        	ld	ra, 0x88(sp)
   1a008: 0a 64        	ld	s0, 0x80(sp)
   1a00a: 23 20 f9 00  	sw	a5, 0x0(s2)
   1a00e: 13 07 00 40  	li	a4, 0x400
   1a012: 98 e0        	sd	a4, 0x0(s1)
   1a014: 46 79        	ld	s2, 0x70(sp)
   1a016: e6 74        	ld	s1, 0x78(sp)
   1a018: 01 45        	li	a0, 0x0
   1a01a: 49 61        	addi	sp, sp, 0x90
   1a01c: 82 80        	ret

000000000001a01e <__swbuf_r>:
   1a01e: 79 71        	addi	sp, sp, -0x30
   1a020: 22 f0        	sd	s0, 0x20(sp)
   1a022: 26 ec        	sd	s1, 0x18(sp)
   1a024: 4a e8        	sd	s2, 0x10(sp)
   1a026: 06 f4        	sd	ra, 0x28(sp)
   1a028: 2a 89        	mv	s2, a0
   1a02a: ae 84        	mv	s1, a1
   1a02c: 32 84        	mv	s0, a2
   1a02e: 19 c1        	beqz	a0, 0x1a034 <__swbuf_r+0x16>
   1a030: 3c 65        	ld	a5, 0x48(a0)
   1a032: e5 c7        	beqz	a5, 0x1a11a <__swbuf_r+0xfc>
   1a034: 1c 54        	lw	a5, 0x28(s0)
   1a036: 03 17 04 01  	lh	a4, 0x10(s0)
   1a03a: 5c c4        	sw	a5, 0xc(s0)
   1a03c: 93 77 87 00  	andi	a5, a4, 0x8
   1a040: a9 cb        	beqz	a5, 0x1a092 <__swbuf_r+0x74>
   1a042: 1c 6c        	ld	a5, 0x18(s0)
   1a044: b9 c7        	beqz	a5, 0x1a092 <__swbuf_r+0x74>
   1a046: 4e e4        	sd	s3, 0x8(sp)
   1a048: 93 16 27 03  	slli	a3, a4, 0x32
   1a04c: 93 f9 f4 0f  	andi	s3, s1, 0xff
   1a050: ce 84        	mv	s1, s3
   1a052: 63 d0 06 06  	bgez	a3, 0x1a0b2 <__swbuf_r+0x94>
   1a056: 18 60        	ld	a4, 0x0(s0)
   1a058: 14 50        	lw	a3, 0x20(s0)
   1a05a: bb 07 f7 40  	subw	a5, a4, a5
   1a05e: 63 db d7 06  	bge	a5, a3, 0x1a0d4 <__swbuf_r+0xb6>
   1a062: 54 44        	lw	a3, 0xc(s0)
   1a064: 13 06 17 00  	addi	a2, a4, 0x1
   1a068: 10 e0        	sd	a2, 0x0(s0)
   1a06a: fd 36        	addiw	a3, a3, -0x1
   1a06c: 54 c4        	sw	a3, 0xc(s0)
   1a06e: 23 00 37 01  	sb	s3, 0x0(a4)
   1a072: 18 50        	lw	a4, 0x20(s0)
   1a074: 85 27        	addiw	a5, a5, 0x1
   1a076: 63 01 f7 08  	beq	a4, a5, 0x1a0f8 <__swbuf_r+0xda>
   1a07a: 83 57 04 01  	lhu	a5, 0x10(s0)
   1a07e: 85 8b        	andi	a5, a5, 0x1
   1a080: c1 e7        	bnez	a5, 0x1a108 <__swbuf_r+0xea>
   1a082: a2 69        	ld	s3, 0x8(sp)
   1a084: a2 70        	ld	ra, 0x28(sp)
   1a086: 02 74        	ld	s0, 0x20(sp)
   1a088: 42 69        	ld	s2, 0x10(sp)
   1a08a: 26 85        	mv	a0, s1
   1a08c: e2 64        	ld	s1, 0x18(sp)
   1a08e: 45 61        	addi	sp, sp, 0x30
   1a090: 82 80        	ret
   1a092: a2 85        	mv	a1, s0
   1a094: 4a 85        	mv	a0, s2
   1a096: ef c0 7f e8  	jal	0x16f1c <__swsetup_r>
   1a09a: 2d e5        	bnez	a0, 0x1a104 <__swbuf_r+0xe6>
   1a09c: 03 17 04 01  	lh	a4, 0x10(s0)
   1a0a0: 4e e4        	sd	s3, 0x8(sp)
   1a0a2: 93 f9 f4 0f  	andi	s3, s1, 0xff
   1a0a6: 93 16 27 03  	slli	a3, a4, 0x32
   1a0aa: 1c 6c        	ld	a5, 0x18(s0)
   1a0ac: ce 84        	mv	s1, s3
   1a0ae: e3 c4 06 fa  	bltz	a3, 0x1a056 <__swbuf_r+0x38>
   1a0b2: 83 26 c4 0a  	lw	a3, 0xac(s0)
   1a0b6: 79 76        	lui	a2, 0xffffe
   1a0b8: 89 65        	lui	a1, 0x2
   1a0ba: 4d 8f        	or	a4, a4, a1
   1a0bc: 7d 16        	addi	a2, a2, -0x1
   1a0be: f1 8e        	and	a3, a3, a2
   1a0c0: 23 18 e4 00  	sh	a4, 0x10(s0)
   1a0c4: 18 60        	ld	a4, 0x0(s0)
   1a0c6: 23 26 d4 0a  	sw	a3, 0xac(s0)
   1a0ca: 14 50        	lw	a3, 0x20(s0)
   1a0cc: bb 07 f7 40  	subw	a5, a4, a5
   1a0d0: e3 c9 d7 f8  	blt	a5, a3, 0x1a062 <__swbuf_r+0x44>
   1a0d4: a2 85        	mv	a1, s0
   1a0d6: 4a 85        	mv	a0, s2
   1a0d8: ef c0 3f a5  	jal	0x16b2a <_fflush_r>
   1a0dc: 1d e1        	bnez	a0, 0x1a102 <__swbuf_r+0xe4>
   1a0de: 18 60        	ld	a4, 0x0(s0)
   1a0e0: 54 44        	lw	a3, 0xc(s0)
   1a0e2: 85 47        	li	a5, 0x1
   1a0e4: 13 06 17 00  	addi	a2, a4, 0x1
   1a0e8: fd 36        	addiw	a3, a3, -0x1
   1a0ea: 10 e0        	sd	a2, 0x0(s0)
   1a0ec: 54 c4        	sw	a3, 0xc(s0)
   1a0ee: 23 00 37 01  	sb	s3, 0x0(a4)
   1a0f2: 18 50        	lw	a4, 0x20(s0)
   1a0f4: e3 13 f7 f8  	bne	a4, a5, 0x1a07a <__swbuf_r+0x5c>
   1a0f8: a2 85        	mv	a1, s0
   1a0fa: 4a 85        	mv	a0, s2
   1a0fc: ef c0 ff a2  	jal	0x16b2a <_fflush_r>
   1a100: 49 d1        	beqz	a0, 0x1a082 <__swbuf_r+0x64>
   1a102: a2 69        	ld	s3, 0x8(sp)
   1a104: fd 54        	li	s1, -0x1
   1a106: bd bf        	j	0x1a084 <__swbuf_r+0x66>
   1a108: a9 47        	li	a5, 0xa
   1a10a: e3 9c f4 f6  	bne	s1, a5, 0x1a082 <__swbuf_r+0x64>
   1a10e: a2 85        	mv	a1, s0
   1a110: 4a 85        	mv	a0, s2
   1a112: ef c0 9f a1  	jal	0x16b2a <_fflush_r>
   1a116: 35 d5        	beqz	a0, 0x1a082 <__swbuf_r+0x64>
   1a118: ed b7        	j	0x1a102 <__swbuf_r+0xe4>
   1a11a: ef 80 3f e0  	jal	0x12f1c <__sinit>
   1a11e: 19 bf        	j	0x1a034 <__swbuf_r+0x16>

000000000001a120 <__swbuf>:
   1a120: aa 87        	mv	a5, a0
   1a122: 03 b5 01 22  	ld	a0, 0x220(gp)
   1a126: 2e 86        	mv	a2, a1
   1a128: be 85        	mv	a1, a5
   1a12a: 6f f0 5f ef  	j	0x1a01e <__swbuf_r>

000000000001a12e <_fstat_r>:
   1a12e: 01 11        	addi	sp, sp, -0x20
   1a130: 2e 87        	mv	a4, a1
   1a132: 22 e8        	sd	s0, 0x10(sp)
   1a134: 26 e4        	sd	s1, 0x8(sp)
   1a136: 2a 84        	mv	s0, a0
   1a138: b2 85        	mv	a1, a2
   1a13a: 3a 85        	mv	a0, a4
   1a13c: 06 ec        	sd	ra, 0x18(sp)
   1a13e: 23 a0 01 24  	sw	zero, 0x240(gp)
   1a142: ef 00 a0 56  	jal	0x1a6ac <_fstat>
   1a146: fd 57        	li	a5, -0x1
   1a148: 63 07 f5 00  	beq	a0, a5, 0x1a156 <_fstat_r+0x28>
   1a14c: e2 60        	ld	ra, 0x18(sp)
   1a14e: 42 64        	ld	s0, 0x10(sp)
   1a150: a2 64        	ld	s1, 0x8(sp)
   1a152: 05 61        	addi	sp, sp, 0x20
   1a154: 82 80        	ret
   1a156: 83 a7 01 24  	lw	a5, 0x240(gp)
   1a15a: ed db        	beqz	a5, 0x1a14c <_fstat_r+0x1e>
   1a15c: e2 60        	ld	ra, 0x18(sp)
   1a15e: 1c c0        	sw	a5, 0x0(s0)
   1a160: 42 64        	ld	s0, 0x10(sp)
   1a162: a2 64        	ld	s1, 0x8(sp)
   1a164: 05 61        	addi	sp, sp, 0x20
   1a166: 82 80        	ret

000000000001a168 <_isatty_r>:
   1a168: 01 11        	addi	sp, sp, -0x20
   1a16a: 22 e8        	sd	s0, 0x10(sp)
   1a16c: 26 e4        	sd	s1, 0x8(sp)
   1a16e: 2a 84        	mv	s0, a0
   1a170: 2e 85        	mv	a0, a1
   1a172: 06 ec        	sd	ra, 0x18(sp)
   1a174: 23 a0 01 24  	sw	zero, 0x240(gp)
   1a178: ef 00 80 57  	jal	0x1a6f0 <_isatty>
   1a17c: fd 57        	li	a5, -0x1
   1a17e: 63 07 f5 00  	beq	a0, a5, 0x1a18c <_isatty_r+0x24>
   1a182: e2 60        	ld	ra, 0x18(sp)
   1a184: 42 64        	ld	s0, 0x10(sp)
   1a186: a2 64        	ld	s1, 0x8(sp)
   1a188: 05 61        	addi	sp, sp, 0x20
   1a18a: 82 80        	ret
   1a18c: 83 a7 01 24  	lw	a5, 0x240(gp)
   1a190: ed db        	beqz	a5, 0x1a182 <_isatty_r+0x1a>
   1a192: e2 60        	ld	ra, 0x18(sp)
   1a194: 1c c0        	sw	a5, 0x0(s0)
   1a196: 42 64        	ld	s0, 0x10(sp)
   1a198: a2 64        	ld	s1, 0x8(sp)
   1a19a: 05 61        	addi	sp, sp, 0x20
   1a19c: 82 80        	ret

000000000001a19e <__assert_func>:
   1a19e: 03 b7 01 22  	ld	a4, 0x220(gp)
   1a1a2: 41 11        	addi	sp, sp, -0x10
   1a1a4: b6 87        	mv	a5, a3
   1a1a6: 32 88        	mv	a6, a2
   1a1a8: 06 e4        	sd	ra, 0x8(sp)
   1a1aa: 83 38 87 01  	ld	a7, 0x18(a4)
   1a1ae: aa 86        	mv	a3, a0
   1a1b0: 2e 87        	mv	a4, a1
   1a1b2: 3e 86        	mv	a2, a5
   1a1b4: 63 0d 08 00  	beqz	a6, 0x1a1ce <__assert_func+0x30>
   1a1b8: f5 67        	lui	a5, 0x1d
   1a1ba: 93 87 87 d5  	addi	a5, a5, -0x2a8
   1a1be: f5 65        	lui	a1, 0x1d
   1a1c0: 93 85 85 d6  	addi	a1, a1, -0x298
   1a1c4: 46 85        	mv	a0, a7
   1a1c6: ef 00 c0 0e  	jal	0x1a2b2 <fiprintf>
   1a1ca: ef 00 40 11  	jal	0x1a2de <abort>
   1a1ce: 75 68        	lui	a6, 0x1d
   1a1d0: 93 07 88 c9  	addi	a5, a6, -0x368
   1a1d4: 13 08 88 c9  	addi	a6, a6, -0x368
   1a1d8: dd b7        	j	0x1a1be <__assert_func+0x20>

000000000001a1da <__assert>:
   1a1da: 41 11        	addi	sp, sp, -0x10
   1a1dc: b2 86        	mv	a3, a2
   1a1de: 01 46        	li	a2, 0x0
   1a1e0: 06 e4        	sd	ra, 0x8(sp)
   1a1e2: ef f0 df fb  	jal	0x1a19e <__assert_func>

000000000001a1e6 <_calloc_r>:
   1a1e6: b3 b7 c5 02  	mulhu	a5, a1, a2
   1a1ea: 41 11        	addi	sp, sp, -0x10
   1a1ec: 06 e4        	sd	ra, 0x8(sp)
   1a1ee: 22 e0        	sd	s0, 0x0(sp)
   1a1f0: b3 85 c5 02  	mul	a1, a1, a2
   1a1f4: b5 ef        	bnez	a5, 0x1a270 <_calloc_r+0x8a>
   1a1f6: ef 90 ef eb  	jal	0x138b4 <_malloc_r>
   1a1fa: 2a 84        	mv	s0, a0
   1a1fc: 35 cd        	beqz	a0, 0x1a278 <_calloc_r+0x92>
   1a1fe: 03 36 85 ff  	ld	a2, -0x8(a0)
   1a202: 13 07 80 04  	li	a4, 0x48
   1a206: 71 9a        	andi	a2, a2, -0x4
   1a208: 61 16        	addi	a2, a2, -0x8
   1a20a: 63 62 c7 04  	bltu	a4, a2, 0x1a24e <_calloc_r+0x68>
   1a20e: 93 06 70 02  	li	a3, 0x27
   1a212: aa 87        	mv	a5, a0
   1a214: 63 f2 c6 02  	bgeu	a3, a2, 0x1a238 <_calloc_r+0x52>
   1a218: 23 30 05 00  	sd	zero, 0x0(a0)
   1a21c: 23 34 05 00  	sd	zero, 0x8(a0)
   1a220: 93 07 70 03  	li	a5, 0x37
   1a224: 63 fd c7 02  	bgeu	a5, a2, 0x1a25e <_calloc_r+0x78>
   1a228: 23 38 05 00  	sd	zero, 0x10(a0)
   1a22c: 23 3c 05 00  	sd	zero, 0x18(a0)
   1a230: 93 07 05 02  	addi	a5, a0, 0x20
   1a234: 63 08 e6 04  	beq	a2, a4, 0x1a284 <_calloc_r+0x9e>
   1a238: 23 b0 07 00  	sd	zero, 0x0(a5)
   1a23c: 23 b4 07 00  	sd	zero, 0x8(a5)
   1a240: 23 b8 07 00  	sd	zero, 0x10(a5)
   1a244: a2 60        	ld	ra, 0x8(sp)
   1a246: 22 85        	mv	a0, s0
   1a248: 02 64        	ld	s0, 0x0(sp)
   1a24a: 41 01        	addi	sp, sp, 0x10
   1a24c: 82 80        	ret
   1a24e: 81 45        	li	a1, 0x0
   1a250: ef 90 0f 92  	jal	0x13370 <memset>
   1a254: a2 60        	ld	ra, 0x8(sp)
   1a256: 22 85        	mv	a0, s0
   1a258: 02 64        	ld	s0, 0x0(sp)
   1a25a: 41 01        	addi	sp, sp, 0x10
   1a25c: 82 80        	ret
   1a25e: 93 07 05 01  	addi	a5, a0, 0x10
   1a262: 23 b0 07 00  	sd	zero, 0x0(a5)
   1a266: 23 b4 07 00  	sd	zero, 0x8(a5)
   1a26a: 23 b8 07 00  	sd	zero, 0x10(a5)
   1a26e: d9 bf        	j	0x1a244 <_calloc_r+0x5e>
   1a270: ef 90 8f 88  	jal	0x132f8 <__errno>
   1a274: b1 47        	li	a5, 0xc
   1a276: 1c c1        	sw	a5, 0x0(a0)
   1a278: 01 44        	li	s0, 0x0
   1a27a: a2 60        	ld	ra, 0x8(sp)
   1a27c: 22 85        	mv	a0, s0
   1a27e: 02 64        	ld	s0, 0x0(sp)
   1a280: 41 01        	addi	sp, sp, 0x10
   1a282: 82 80        	ret
   1a284: 23 30 05 02  	sd	zero, 0x20(a0)
   1a288: 93 07 05 03  	addi	a5, a0, 0x30
   1a28c: 23 34 05 02  	sd	zero, 0x28(a0)
   1a290: 65 b7        	j	0x1a238 <_calloc_r+0x52>

000000000001a292 <_fiprintf_r>:
   1a292: 5d 71        	addi	sp, sp, -0x50
   1a294: 13 03 81 02  	addi	t1, sp, 0x28
   1a298: 36 f4        	sd	a3, 0x28(sp)
   1a29a: 9a 86        	mv	a3, t1
   1a29c: 06 ec        	sd	ra, 0x18(sp)
   1a29e: 3a f8        	sd	a4, 0x30(sp)
   1a2a0: 3e fc        	sd	a5, 0x38(sp)
   1a2a2: c2 e0        	sd	a6, 0x40(sp)
   1a2a4: c6 e4        	sd	a7, 0x48(sp)
   1a2a6: 1a e4        	sd	t1, 0x8(sp)
   1a2a8: ef b0 df 8c  	jal	0x15b74 <_vfiprintf_r>
   1a2ac: e2 60        	ld	ra, 0x18(sp)
   1a2ae: 61 61        	addi	sp, sp, 0x50
   1a2b0: 82 80        	ret

000000000001a2b2 <fiprintf>:
   1a2b2: 2a 8e        	mv	t3, a0
   1a2b4: 5d 71        	addi	sp, sp, -0x50
   1a2b6: 03 b5 01 22  	ld	a0, 0x220(gp)
   1a2ba: 13 03 01 02  	addi	t1, sp, 0x20
   1a2be: 32 f0        	sd	a2, 0x20(sp)
   1a2c0: 36 f4        	sd	a3, 0x28(sp)
   1a2c2: 2e 86        	mv	a2, a1
   1a2c4: 9a 86        	mv	a3, t1
   1a2c6: f2 85        	mv	a1, t3
   1a2c8: 06 ec        	sd	ra, 0x18(sp)
   1a2ca: 3a f8        	sd	a4, 0x30(sp)
   1a2cc: 3e fc        	sd	a5, 0x38(sp)
   1a2ce: c2 e0        	sd	a6, 0x40(sp)
   1a2d0: c6 e4        	sd	a7, 0x48(sp)
   1a2d2: 1a e4        	sd	t1, 0x8(sp)
   1a2d4: ef b0 1f 8a  	jal	0x15b74 <_vfiprintf_r>
   1a2d8: e2 60        	ld	ra, 0x18(sp)
   1a2da: 61 61        	addi	sp, sp, 0x50
   1a2dc: 82 80        	ret

000000000001a2de <abort>:
   1a2de: 41 11        	addi	sp, sp, -0x10
   1a2e0: 19 45        	li	a0, 0x6
   1a2e2: 06 e4        	sd	ra, 0x8(sp)
   1a2e4: ef 00 c0 19  	jal	0x1a480 <raise>
   1a2e8: 05 45        	li	a0, 0x1
   1a2ea: ef 00 00 3a  	jal	0x1a68a <_exit>

000000000001a2ee <_init_signal_r>:
   1a2ee: 83 37 05 15  	ld	a5, 0x150(a0)
   1a2f2: 99 c3        	beqz	a5, 0x1a2f8 <_init_signal_r+0xa>
   1a2f4: 01 45        	li	a0, 0x0
   1a2f6: 82 80        	ret
   1a2f8: 41 11        	addi	sp, sp, -0x10
   1a2fa: 93 05 00 10  	li	a1, 0x100
   1a2fe: 22 e0        	sd	s0, 0x0(sp)
   1a300: 06 e4        	sd	ra, 0x8(sp)
   1a302: 2a 84        	mv	s0, a0
   1a304: ef 90 0f db  	jal	0x138b4 <_malloc_r>
   1a308: 23 38 a4 14  	sd	a0, 0x150(s0)
   1a30c: 09 cd        	beqz	a0, 0x1a326 <_init_signal_r+0x38>
   1a30e: 93 07 05 10  	addi	a5, a0, 0x100
   1a312: 23 30 05 00  	sd	zero, 0x0(a0)
   1a316: 21 05        	addi	a0, a0, 0x8
   1a318: e3 1d f5 fe  	bne	a0, a5, 0x1a312 <_init_signal_r+0x24>
   1a31c: 01 45        	li	a0, 0x0
   1a31e: a2 60        	ld	ra, 0x8(sp)
   1a320: 02 64        	ld	s0, 0x0(sp)
   1a322: 41 01        	addi	sp, sp, 0x10
   1a324: 82 80        	ret
   1a326: 7d 55        	li	a0, -0x1
   1a328: dd bf        	j	0x1a31e <_init_signal_r+0x30>

000000000001a32a <_signal_r>:
   1a32a: 79 71        	addi	sp, sp, -0x30
   1a32c: 26 ec        	sd	s1, 0x18(sp)
   1a32e: 06 f4        	sd	ra, 0x28(sp)
   1a330: fd 47        	li	a5, 0x1f
   1a332: aa 84        	mv	s1, a0
   1a334: 63 e0 b7 02  	bltu	a5, a1, 0x1a354 <_signal_r+0x2a>
   1a338: 83 37 05 15  	ld	a5, 0x150(a0)
   1a33c: 22 f0        	sd	s0, 0x20(sp)
   1a33e: 2e 84        	mv	s0, a1
   1a340: 91 cf        	beqz	a5, 0x1a35c <_signal_r+0x32>
   1a342: 0e 04        	slli	s0, s0, 0x3
   1a344: a2 97        	add	a5, a5, s0
   1a346: 02 74        	ld	s0, 0x20(sp)
   1a348: 88 63        	ld	a0, 0x0(a5)
   1a34a: 90 e3        	sd	a2, 0x0(a5)
   1a34c: a2 70        	ld	ra, 0x28(sp)
   1a34e: e2 64        	ld	s1, 0x18(sp)
   1a350: 45 61        	addi	sp, sp, 0x30
   1a352: 82 80        	ret
   1a354: d9 47        	li	a5, 0x16
   1a356: 1c c1        	sw	a5, 0x0(a0)
   1a358: 7d 55        	li	a0, -0x1
   1a35a: cd bf        	j	0x1a34c <_signal_r+0x22>
   1a35c: 93 05 00 10  	li	a1, 0x100
   1a360: 32 e4        	sd	a2, 0x8(sp)
   1a362: ef 90 2f d5  	jal	0x138b4 <_malloc_r>
   1a366: 23 b8 a4 14  	sd	a0, 0x150(s1)
   1a36a: 22 66        	ld	a2, 0x8(sp)
   1a36c: aa 87        	mv	a5, a0
   1a36e: 2a 87        	mv	a4, a0
   1a370: 93 06 05 10  	addi	a3, a0, 0x100
   1a374: 19 c5        	beqz	a0, 0x1a382 <_signal_r+0x58>
   1a376: 23 30 07 00  	sd	zero, 0x0(a4)
   1a37a: 21 07        	addi	a4, a4, 0x8
   1a37c: e3 1d d7 fe  	bne	a4, a3, 0x1a376 <_signal_r+0x4c>
   1a380: c9 b7        	j	0x1a342 <_signal_r+0x18>
   1a382: 02 74        	ld	s0, 0x20(sp)
   1a384: 7d 55        	li	a0, -0x1
   1a386: d9 b7        	j	0x1a34c <_signal_r+0x22>

000000000001a388 <_raise_r>:
   1a388: 01 11        	addi	sp, sp, -0x20
   1a38a: 26 e4        	sd	s1, 0x8(sp)
   1a38c: 06 ec        	sd	ra, 0x18(sp)
   1a38e: fd 47        	li	a5, 0x1f
   1a390: aa 84        	mv	s1, a0
   1a392: 63 ef b7 04  	bltu	a5, a1, 0x1a3f0 <_raise_r+0x68>
   1a396: 83 37 05 15  	ld	a5, 0x150(a0)
   1a39a: 22 e8        	sd	s0, 0x10(sp)
   1a39c: 2e 84        	mv	s0, a1
   1a39e: 95 c7        	beqz	a5, 0x1a3ca <_raise_r+0x42>
   1a3a0: 13 97 35 00  	slli	a4, a1, 0x3
   1a3a4: ba 97        	add	a5, a5, a4
   1a3a6: 98 63        	ld	a4, 0x0(a5)
   1a3a8: 0d c3        	beqz	a4, 0x1a3ca <_raise_r+0x42>
   1a3aa: 85 46        	li	a3, 0x1
   1a3ac: 63 09 d7 00  	beq	a4, a3, 0x1a3be <_raise_r+0x36>
   1a3b0: fd 56        	li	a3, -0x1
   1a3b2: 63 07 d7 02  	beq	a4, a3, 0x1a3e0 <_raise_r+0x58>
   1a3b6: 23 b0 07 00  	sd	zero, 0x0(a5)
   1a3ba: 2e 85        	mv	a0, a1
   1a3bc: 02 97        	jalr	a4
   1a3be: 42 64        	ld	s0, 0x10(sp)
   1a3c0: 01 45        	li	a0, 0x0
   1a3c2: e2 60        	ld	ra, 0x18(sp)
   1a3c4: a2 64        	ld	s1, 0x8(sp)
   1a3c6: 05 61        	addi	sp, sp, 0x20
   1a3c8: 82 80        	ret
   1a3ca: 26 85        	mv	a0, s1
   1a3cc: ef 00 00 29  	jal	0x1a65c <_getpid_r>
   1a3d0: 22 86        	mv	a2, s0
   1a3d2: 42 64        	ld	s0, 0x10(sp)
   1a3d4: e2 60        	ld	ra, 0x18(sp)
   1a3d6: aa 85        	mv	a1, a0
   1a3d8: 26 85        	mv	a0, s1
   1a3da: a2 64        	ld	s1, 0x8(sp)
   1a3dc: 05 61        	addi	sp, sp, 0x20
   1a3de: 91 a4        	j	0x1a622 <_kill_r>
   1a3e0: 42 64        	ld	s0, 0x10(sp)
   1a3e2: e2 60        	ld	ra, 0x18(sp)
   1a3e4: d9 47        	li	a5, 0x16
   1a3e6: 1c c1        	sw	a5, 0x0(a0)
   1a3e8: a2 64        	ld	s1, 0x8(sp)
   1a3ea: 05 45        	li	a0, 0x1
   1a3ec: 05 61        	addi	sp, sp, 0x20
   1a3ee: 82 80        	ret
   1a3f0: d9 47        	li	a5, 0x16
   1a3f2: 1c c1        	sw	a5, 0x0(a0)
   1a3f4: 7d 55        	li	a0, -0x1
   1a3f6: f1 b7        	j	0x1a3c2 <_raise_r+0x3a>

000000000001a3f8 <__sigtramp_r>:
   1a3f8: fd 47        	li	a5, 0x1f
   1a3fa: 63 e1 b7 08  	bltu	a5, a1, 0x1a47c <__sigtramp_r+0x84>
   1a3fe: 83 37 05 15  	ld	a5, 0x150(a0)
   1a402: 01 11        	addi	sp, sp, -0x20
   1a404: 22 e8        	sd	s0, 0x10(sp)
   1a406: 26 e4        	sd	s1, 0x8(sp)
   1a408: 06 ec        	sd	ra, 0x18(sp)
   1a40a: 2e 84        	mv	s0, a1
   1a40c: aa 84        	mv	s1, a0
   1a40e: a1 c7        	beqz	a5, 0x1a456 <__sigtramp_r+0x5e>
   1a410: 13 17 34 00  	slli	a4, s0, 0x3
   1a414: ba 97        	add	a5, a5, a4
   1a416: 98 63        	ld	a4, 0x0(a5)
   1a418: 0d c3        	beqz	a4, 0x1a43a <__sigtramp_r+0x42>
   1a41a: fd 56        	li	a3, -0x1
   1a41c: 63 0b d7 02  	beq	a4, a3, 0x1a452 <__sigtramp_r+0x5a>
   1a420: 85 46        	li	a3, 0x1
   1a422: 63 02 d7 02  	beq	a4, a3, 0x1a446 <__sigtramp_r+0x4e>
   1a426: 22 85        	mv	a0, s0
   1a428: 23 b0 07 00  	sd	zero, 0x0(a5)
   1a42c: 02 97        	jalr	a4
   1a42e: 01 45        	li	a0, 0x0
   1a430: e2 60        	ld	ra, 0x18(sp)
   1a432: 42 64        	ld	s0, 0x10(sp)
   1a434: a2 64        	ld	s1, 0x8(sp)
   1a436: 05 61        	addi	sp, sp, 0x20
   1a438: 82 80        	ret
   1a43a: e2 60        	ld	ra, 0x18(sp)
   1a43c: 42 64        	ld	s0, 0x10(sp)
   1a43e: a2 64        	ld	s1, 0x8(sp)
   1a440: 05 45        	li	a0, 0x1
   1a442: 05 61        	addi	sp, sp, 0x20
   1a444: 82 80        	ret
   1a446: e2 60        	ld	ra, 0x18(sp)
   1a448: 42 64        	ld	s0, 0x10(sp)
   1a44a: a2 64        	ld	s1, 0x8(sp)
   1a44c: 0d 45        	li	a0, 0x3
   1a44e: 05 61        	addi	sp, sp, 0x20
   1a450: 82 80        	ret
   1a452: 09 45        	li	a0, 0x2
   1a454: f1 bf        	j	0x1a430 <__sigtramp_r+0x38>
   1a456: 93 05 00 10  	li	a1, 0x100
   1a45a: ef 90 af c5  	jal	0x138b4 <_malloc_r>
   1a45e: 23 b8 a4 14  	sd	a0, 0x150(s1)
   1a462: aa 87        	mv	a5, a0
   1a464: 11 c9        	beqz	a0, 0x1a478 <__sigtramp_r+0x80>
   1a466: 2a 87        	mv	a4, a0
   1a468: 93 06 05 10  	addi	a3, a0, 0x100
   1a46c: 23 30 07 00  	sd	zero, 0x0(a4)
   1a470: 21 07        	addi	a4, a4, 0x8
   1a472: e3 1d d7 fe  	bne	a4, a3, 0x1a46c <__sigtramp_r+0x74>
   1a476: 69 bf        	j	0x1a410 <__sigtramp_r+0x18>
   1a478: 7d 55        	li	a0, -0x1
   1a47a: 5d bf        	j	0x1a430 <__sigtramp_r+0x38>
   1a47c: 7d 55        	li	a0, -0x1
   1a47e: 82 80        	ret

000000000001a480 <raise>:
   1a480: 01 11        	addi	sp, sp, -0x20
   1a482: 26 e4        	sd	s1, 0x8(sp)
   1a484: 06 ec        	sd	ra, 0x18(sp)
   1a486: fd 47        	li	a5, 0x1f
   1a488: 83 b4 01 22  	ld	s1, 0x220(gp)
   1a48c: 63 ee a7 04  	bltu	a5, a0, 0x1a4e8 <raise+0x68>
   1a490: 83 b7 04 15  	ld	a5, 0x150(s1)
   1a494: 22 e8        	sd	s0, 0x10(sp)
   1a496: 2a 84        	mv	s0, a0
   1a498: 8d c7        	beqz	a5, 0x1a4c2 <raise+0x42>
   1a49a: 13 17 35 00  	slli	a4, a0, 0x3
   1a49e: ba 97        	add	a5, a5, a4
   1a4a0: 98 63        	ld	a4, 0x0(a5)
   1a4a2: 05 c3        	beqz	a4, 0x1a4c2 <raise+0x42>
   1a4a4: 85 46        	li	a3, 0x1
   1a4a6: 63 08 d7 00  	beq	a4, a3, 0x1a4b6 <raise+0x36>
   1a4aa: fd 56        	li	a3, -0x1
   1a4ac: 63 06 d7 02  	beq	a4, a3, 0x1a4d8 <raise+0x58>
   1a4b0: 23 b0 07 00  	sd	zero, 0x0(a5)
   1a4b4: 02 97        	jalr	a4
   1a4b6: 42 64        	ld	s0, 0x10(sp)
   1a4b8: 01 45        	li	a0, 0x0
   1a4ba: e2 60        	ld	ra, 0x18(sp)
   1a4bc: a2 64        	ld	s1, 0x8(sp)
   1a4be: 05 61        	addi	sp, sp, 0x20
   1a4c0: 82 80        	ret
   1a4c2: 26 85        	mv	a0, s1
   1a4c4: ef 00 80 19  	jal	0x1a65c <_getpid_r>
   1a4c8: 22 86        	mv	a2, s0
   1a4ca: 42 64        	ld	s0, 0x10(sp)
   1a4cc: e2 60        	ld	ra, 0x18(sp)
   1a4ce: aa 85        	mv	a1, a0
   1a4d0: 26 85        	mv	a0, s1
   1a4d2: a2 64        	ld	s1, 0x8(sp)
   1a4d4: 05 61        	addi	sp, sp, 0x20
   1a4d6: b1 a2        	j	0x1a622 <_kill_r>
   1a4d8: 42 64        	ld	s0, 0x10(sp)
   1a4da: e2 60        	ld	ra, 0x18(sp)
   1a4dc: d9 47        	li	a5, 0x16
   1a4de: 9c c0        	sw	a5, 0x0(s1)
   1a4e0: 05 45        	li	a0, 0x1
   1a4e2: a2 64        	ld	s1, 0x8(sp)
   1a4e4: 05 61        	addi	sp, sp, 0x20
   1a4e6: 82 80        	ret
   1a4e8: d9 47        	li	a5, 0x16
   1a4ea: 9c c0        	sw	a5, 0x0(s1)
   1a4ec: 7d 55        	li	a0, -0x1
   1a4ee: f1 b7        	j	0x1a4ba <raise+0x3a>

000000000001a4f0 <signal>:
   1a4f0: 01 11        	addi	sp, sp, -0x20
   1a4f2: 4a e0        	sd	s2, 0x0(sp)
   1a4f4: 06 ec        	sd	ra, 0x18(sp)
   1a4f6: fd 47        	li	a5, 0x1f
   1a4f8: 03 b9 01 22  	ld	s2, 0x220(gp)
   1a4fc: 63 e4 a7 02  	bltu	a5, a0, 0x1a524 <signal+0x34>
   1a500: 22 e8        	sd	s0, 0x10(sp)
   1a502: 2a 84        	mv	s0, a0
   1a504: 03 35 09 15  	ld	a0, 0x150(s2)
   1a508: 26 e4        	sd	s1, 0x8(sp)
   1a50a: ae 84        	mv	s1, a1
   1a50c: 0d c1        	beqz	a0, 0x1a52e <signal+0x3e>
   1a50e: 0e 04        	slli	s0, s0, 0x3
   1a510: b3 07 85 00  	add	a5, a0, s0
   1a514: 88 63        	ld	a0, 0x0(a5)
   1a516: 42 64        	ld	s0, 0x10(sp)
   1a518: 84 e3        	sd	s1, 0x0(a5)
   1a51a: a2 64        	ld	s1, 0x8(sp)
   1a51c: e2 60        	ld	ra, 0x18(sp)
   1a51e: 02 69        	ld	s2, 0x0(sp)
   1a520: 05 61        	addi	sp, sp, 0x20
   1a522: 82 80        	ret
   1a524: d9 47        	li	a5, 0x16
   1a526: 23 20 f9 00  	sw	a5, 0x0(s2)
   1a52a: 7d 55        	li	a0, -0x1
   1a52c: c5 bf        	j	0x1a51c <signal+0x2c>
   1a52e: 93 05 00 10  	li	a1, 0x100
   1a532: 4a 85        	mv	a0, s2
   1a534: ef 90 0f b8  	jal	0x138b4 <_malloc_r>
   1a538: 23 38 a9 14  	sd	a0, 0x150(s2)
   1a53c: aa 87        	mv	a5, a0
   1a53e: 13 07 05 10  	addi	a4, a0, 0x100
   1a542: 19 c5        	beqz	a0, 0x1a550 <signal+0x60>
   1a544: 23 b0 07 00  	sd	zero, 0x0(a5)
   1a548: a1 07        	addi	a5, a5, 0x8
   1a54a: e3 1d f7 fe  	bne	a4, a5, 0x1a544 <signal+0x54>
   1a54e: c1 b7        	j	0x1a50e <signal+0x1e>
   1a550: 42 64        	ld	s0, 0x10(sp)
   1a552: a2 64        	ld	s1, 0x8(sp)
   1a554: 7d 55        	li	a0, -0x1
   1a556: d9 b7        	j	0x1a51c <signal+0x2c>

000000000001a558 <_init_signal>:
   1a558: 41 11        	addi	sp, sp, -0x10
   1a55a: 22 e0        	sd	s0, 0x0(sp)
   1a55c: 03 b4 01 22  	ld	s0, 0x220(gp)
   1a560: 06 e4        	sd	ra, 0x8(sp)
   1a562: 83 37 04 15  	ld	a5, 0x150(s0)
   1a566: 91 c7        	beqz	a5, 0x1a572 <_init_signal+0x1a>
   1a568: 01 45        	li	a0, 0x0
   1a56a: a2 60        	ld	ra, 0x8(sp)
   1a56c: 02 64        	ld	s0, 0x0(sp)
   1a56e: 41 01        	addi	sp, sp, 0x10
   1a570: 82 80        	ret
   1a572: 93 05 00 10  	li	a1, 0x100
   1a576: 22 85        	mv	a0, s0
   1a578: ef 90 cf b3  	jal	0x138b4 <_malloc_r>
   1a57c: 23 38 a4 14  	sd	a0, 0x150(s0)
   1a580: 09 c9        	beqz	a0, 0x1a592 <_init_signal+0x3a>
   1a582: 93 07 05 10  	addi	a5, a0, 0x100
   1a586: 23 30 05 00  	sd	zero, 0x0(a0)
   1a58a: 21 05        	addi	a0, a0, 0x8
   1a58c: e3 1d f5 fe  	bne	a0, a5, 0x1a586 <_init_signal+0x2e>
   1a590: e1 bf        	j	0x1a568 <_init_signal+0x10>
   1a592: 7d 55        	li	a0, -0x1
   1a594: d9 bf        	j	0x1a56a <_init_signal+0x12>

000000000001a596 <__sigtramp>:
   1a596: 01 11        	addi	sp, sp, -0x20
   1a598: 26 e4        	sd	s1, 0x8(sp)
   1a59a: 06 ec        	sd	ra, 0x18(sp)
   1a59c: fd 47        	li	a5, 0x1f
   1a59e: 83 b4 01 22  	ld	s1, 0x220(gp)
   1a5a2: 63 ee a7 06  	bltu	a5, a0, 0x1a61e <__sigtramp+0x88>
   1a5a6: 83 b7 04 15  	ld	a5, 0x150(s1)
   1a5aa: 22 e8        	sd	s0, 0x10(sp)
   1a5ac: 2a 84        	mv	s0, a0
   1a5ae: a9 c7        	beqz	a5, 0x1a5f8 <__sigtramp+0x62>
   1a5b0: 13 17 34 00  	slli	a4, s0, 0x3
   1a5b4: ba 97        	add	a5, a5, a4
   1a5b6: 98 63        	ld	a4, 0x0(a5)
   1a5b8: 0d c3        	beqz	a4, 0x1a5da <__sigtramp+0x44>
   1a5ba: fd 56        	li	a3, -0x1
   1a5bc: 63 0b d7 02  	beq	a4, a3, 0x1a5f2 <__sigtramp+0x5c>
   1a5c0: 85 46        	li	a3, 0x1
   1a5c2: 63 02 d7 02  	beq	a4, a3, 0x1a5e6 <__sigtramp+0x50>
   1a5c6: 22 85        	mv	a0, s0
   1a5c8: 23 b0 07 00  	sd	zero, 0x0(a5)
   1a5cc: 02 97        	jalr	a4
   1a5ce: 42 64        	ld	s0, 0x10(sp)
   1a5d0: 01 45        	li	a0, 0x0
   1a5d2: e2 60        	ld	ra, 0x18(sp)
   1a5d4: a2 64        	ld	s1, 0x8(sp)
   1a5d6: 05 61        	addi	sp, sp, 0x20
   1a5d8: 82 80        	ret
   1a5da: 42 64        	ld	s0, 0x10(sp)
   1a5dc: e2 60        	ld	ra, 0x18(sp)
   1a5de: a2 64        	ld	s1, 0x8(sp)
   1a5e0: 05 45        	li	a0, 0x1
   1a5e2: 05 61        	addi	sp, sp, 0x20
   1a5e4: 82 80        	ret
   1a5e6: 42 64        	ld	s0, 0x10(sp)
   1a5e8: e2 60        	ld	ra, 0x18(sp)
   1a5ea: a2 64        	ld	s1, 0x8(sp)
   1a5ec: 0d 45        	li	a0, 0x3
   1a5ee: 05 61        	addi	sp, sp, 0x20
   1a5f0: 82 80        	ret
   1a5f2: 42 64        	ld	s0, 0x10(sp)
   1a5f4: 09 45        	li	a0, 0x2
   1a5f6: f1 bf        	j	0x1a5d2 <__sigtramp+0x3c>
   1a5f8: 93 05 00 10  	li	a1, 0x100
   1a5fc: 26 85        	mv	a0, s1
   1a5fe: ef 90 6f ab  	jal	0x138b4 <_malloc_r>
   1a602: 23 b8 a4 14  	sd	a0, 0x150(s1)
   1a606: aa 87        	mv	a5, a0
   1a608: 11 c9        	beqz	a0, 0x1a61c <__sigtramp+0x86>
   1a60a: 2a 87        	mv	a4, a0
   1a60c: 93 06 05 10  	addi	a3, a0, 0x100
   1a610: 23 30 07 00  	sd	zero, 0x0(a4)
   1a614: 21 07        	addi	a4, a4, 0x8
   1a616: e3 9d e6 fe  	bne	a3, a4, 0x1a610 <__sigtramp+0x7a>
   1a61a: 59 bf        	j	0x1a5b0 <__sigtramp+0x1a>
   1a61c: 42 64        	ld	s0, 0x10(sp)
   1a61e: 7d 55        	li	a0, -0x1
   1a620: 4d bf        	j	0x1a5d2 <__sigtramp+0x3c>

000000000001a622 <_kill_r>:
   1a622: 01 11        	addi	sp, sp, -0x20
   1a624: 2e 87        	mv	a4, a1
   1a626: 22 e8        	sd	s0, 0x10(sp)
   1a628: 26 e4        	sd	s1, 0x8(sp)
   1a62a: 2a 84        	mv	s0, a0
   1a62c: b2 85        	mv	a1, a2
   1a62e: 3a 85        	mv	a0, a4
   1a630: 06 ec        	sd	ra, 0x18(sp)
   1a632: 23 a0 01 24  	sw	zero, 0x240(gp)
   1a636: ef 00 00 0e  	jal	0x1a716 <_kill>
   1a63a: fd 57        	li	a5, -0x1
   1a63c: 63 07 f5 00  	beq	a0, a5, 0x1a64a <_kill_r+0x28>
   1a640: e2 60        	ld	ra, 0x18(sp)
   1a642: 42 64        	ld	s0, 0x10(sp)
   1a644: a2 64        	ld	s1, 0x8(sp)
   1a646: 05 61        	addi	sp, sp, 0x20
   1a648: 82 80        	ret
   1a64a: 83 a7 01 24  	lw	a5, 0x240(gp)
   1a64e: ed db        	beqz	a5, 0x1a640 <_kill_r+0x1e>
   1a650: e2 60        	ld	ra, 0x18(sp)
   1a652: 1c c0        	sw	a5, 0x0(s0)
   1a654: 42 64        	ld	s0, 0x10(sp)
   1a656: a2 64        	ld	s1, 0x8(sp)
   1a658: 05 61        	addi	sp, sp, 0x20
   1a65a: 82 80        	ret

000000000001a65c <_getpid_r>:
   1a65c: 41 a8        	j	0x1a6ec <_getpid>

000000000001a65e <_close>:
   1a65e: 41 11        	addi	sp, sp, -0x10
   1a660: 06 e4        	sd	ra, 0x8(sp)
   1a662: 22 e0        	sd	s0, 0x0(sp)
   1a664: 93 08 90 03  	li	a7, 0x39
   1a668: 73 00 00 00  	ecall
   1a66c: 2a 84        	mv	s0, a0
   1a66e: 63 47 05 00  	bltz	a0, 0x1a67c <_close+0x1e>
   1a672: 01 25        	sext.w	a0, a0
   1a674: a2 60        	ld	ra, 0x8(sp)
   1a676: 02 64        	ld	s0, 0x0(sp)
   1a678: 41 01        	addi	sp, sp, 0x10
   1a67a: 82 80        	ret
   1a67c: ef 80 df c7  	jal	0x132f8 <__errno>
   1a680: 3b 04 80 40  	negw	s0, s0
   1a684: 00 c1        	sw	s0, 0x0(a0)
   1a686: 7d 55        	li	a0, -0x1
   1a688: f5 b7        	j	0x1a674 <_close+0x16>

000000000001a68a <_exit>:
   1a68a: 93 08 d0 05  	li	a7, 0x5d
   1a68e: 73 00 00 00  	ecall
   1a692: 63 43 05 00  	bltz	a0, 0x1a698 <_exit+0xe>
   1a696: 01 a0        	j	0x1a696 <_exit+0xc>
   1a698: 41 11        	addi	sp, sp, -0x10
   1a69a: 22 e0        	sd	s0, 0x0(sp)
   1a69c: 2a 84        	mv	s0, a0
   1a69e: 06 e4        	sd	ra, 0x8(sp)
   1a6a0: 3b 04 80 40  	negw	s0, s0
   1a6a4: ef 80 5f c5  	jal	0x132f8 <__errno>
   1a6a8: 00 c1        	sw	s0, 0x0(a0)
   1a6aa: 01 a0        	j	0x1a6aa <_exit+0x20>

000000000001a6ac <_fstat>:
   1a6ac: 35 71        	addi	sp, sp, -0xa0
   1a6ae: 26 e5        	sd	s1, 0x88(sp)
   1a6b0: 06 ed        	sd	ra, 0x98(sp)
   1a6b2: ae 84        	mv	s1, a1
   1a6b4: 22 e9        	sd	s0, 0x90(sp)
   1a6b6: 93 08 00 05  	li	a7, 0x50
   1a6ba: 8a 85        	mv	a1, sp
   1a6bc: 73 00 00 00  	ecall
   1a6c0: 2a 84        	mv	s0, a0
   1a6c2: 63 4e 05 00  	bltz	a0, 0x1a6de <_fstat+0x32>
   1a6c6: 1b 04 05 00  	sext.w	s0, a0
   1a6ca: 26 85        	mv	a0, s1
   1a6cc: 8a 85        	mv	a1, sp
   1a6ce: ef 00 40 13  	jal	0x1a802 <_conv_stat>
   1a6d2: ea 60        	ld	ra, 0x98(sp)
   1a6d4: 22 85        	mv	a0, s0
   1a6d6: 4a 64        	ld	s0, 0x90(sp)
   1a6d8: aa 64        	ld	s1, 0x88(sp)
   1a6da: 0d 61        	addi	sp, sp, 0xa0
   1a6dc: 82 80        	ret
   1a6de: 3b 04 80 40  	negw	s0, s0
   1a6e2: ef 80 7f c1  	jal	0x132f8 <__errno>
   1a6e6: 00 c1        	sw	s0, 0x0(a0)
   1a6e8: 7d 54        	li	s0, -0x1
   1a6ea: c5 b7        	j	0x1a6ca <_fstat+0x1e>

000000000001a6ec <_getpid>:
   1a6ec: 05 45        	li	a0, 0x1
   1a6ee: 82 80        	ret

000000000001a6f0 <_isatty>:
   1a6f0: 19 71        	addi	sp, sp, -0x80
   1a6f2: 2c 00        	addi	a1, sp, 0x8
   1a6f4: 86 fc        	sd	ra, 0x78(sp)
   1a6f6: ef f0 7f fb  	jal	0x1a6ac <_fstat>
   1a6fa: fd 57        	li	a5, -0x1
   1a6fc: 63 09 f5 00  	beq	a0, a5, 0x1a70e <_isatty+0x1e>
   1a700: 32 45        	lw	a0, 0xc(sp)
   1a702: e6 70        	ld	ra, 0x78(sp)
   1a704: 1b 55 d5 40  	sraiw	a0, a0, 0xd
   1a708: 05 89        	andi	a0, a0, 0x1
   1a70a: 09 61        	addi	sp, sp, 0x80
   1a70c: 82 80        	ret
   1a70e: e6 70        	ld	ra, 0x78(sp)
   1a710: 01 45        	li	a0, 0x0
   1a712: 09 61        	addi	sp, sp, 0x80
   1a714: 82 80        	ret

000000000001a716 <_kill>:
   1a716: 41 11        	addi	sp, sp, -0x10
   1a718: 06 e4        	sd	ra, 0x8(sp)
   1a71a: ef 80 ff bd  	jal	0x132f8 <__errno>
   1a71e: a2 60        	ld	ra, 0x8(sp)
   1a720: d9 47        	li	a5, 0x16
   1a722: 1c c1        	sw	a5, 0x0(a0)
   1a724: 7d 55        	li	a0, -0x1
   1a726: 41 01        	addi	sp, sp, 0x10
   1a728: 82 80        	ret

000000000001a72a <_lseek>:
   1a72a: 41 11        	addi	sp, sp, -0x10
   1a72c: 06 e4        	sd	ra, 0x8(sp)
   1a72e: 22 e0        	sd	s0, 0x0(sp)
   1a730: 93 08 e0 03  	li	a7, 0x3e
   1a734: 73 00 00 00  	ecall
   1a738: 2a 84        	mv	s0, a0
   1a73a: 63 47 05 00  	bltz	a0, 0x1a748 <_lseek+0x1e>
   1a73e: a2 60        	ld	ra, 0x8(sp)
   1a740: 22 85        	mv	a0, s0
   1a742: 02 64        	ld	s0, 0x0(sp)
   1a744: 41 01        	addi	sp, sp, 0x10
   1a746: 82 80        	ret
   1a748: 3b 04 80 40  	negw	s0, s0
   1a74c: ef 80 df ba  	jal	0x132f8 <__errno>
   1a750: 00 c1        	sw	s0, 0x0(a0)
   1a752: 7d 54        	li	s0, -0x1
   1a754: ed b7        	j	0x1a73e <_lseek+0x14>

000000000001a756 <_read>:
   1a756: 41 11        	addi	sp, sp, -0x10
   1a758: 06 e4        	sd	ra, 0x8(sp)
   1a75a: 22 e0        	sd	s0, 0x0(sp)
   1a75c: 93 08 f0 03  	li	a7, 0x3f
   1a760: 73 00 00 00  	ecall
   1a764: 2a 84        	mv	s0, a0
   1a766: 63 47 05 00  	bltz	a0, 0x1a774 <_read+0x1e>
   1a76a: a2 60        	ld	ra, 0x8(sp)
   1a76c: 22 85        	mv	a0, s0
   1a76e: 02 64        	ld	s0, 0x0(sp)
   1a770: 41 01        	addi	sp, sp, 0x10
   1a772: 82 80        	ret
   1a774: 3b 04 80 40  	negw	s0, s0
   1a778: ef 80 1f b8  	jal	0x132f8 <__errno>
   1a77c: 00 c1        	sw	s0, 0x0(a0)
   1a77e: 7d 54        	li	s0, -0x1
   1a780: ed b7        	j	0x1a76a <_read+0x14>

000000000001a782 <_sbrk>:
   1a782: 03 b7 01 27  	ld	a4, 0x270(gp)
   1a786: 41 11        	addi	sp, sp, -0x10
   1a788: 06 e4        	sd	ra, 0x8(sp)
   1a78a: aa 87        	mv	a5, a0
   1a78c: 01 ef        	bnez	a4, 0x1a7a4 <_sbrk+0x22>
   1a78e: 93 08 60 0d  	li	a7, 0xd6
   1a792: 01 45        	li	a0, 0x0
   1a794: 73 00 00 00  	ecall
   1a798: 7d 56        	li	a2, -0x1
   1a79a: 2a 87        	mv	a4, a0
   1a79c: 63 05 c5 02  	beq	a0, a2, 0x1a7c6 <_sbrk+0x44>
   1a7a0: 23 b8 a1 26  	sd	a0, 0x270(gp)
   1a7a4: 93 08 60 0d  	li	a7, 0xd6
   1a7a8: 33 85 e7 00  	add	a0, a5, a4
   1a7ac: 73 00 00 00  	ecall
   1a7b0: 03 b7 01 27  	ld	a4, 0x270(gp)
   1a7b4: ba 97        	add	a5, a5, a4
   1a7b6: 63 18 f5 00  	bne	a0, a5, 0x1a7c6 <_sbrk+0x44>
   1a7ba: a2 60        	ld	ra, 0x8(sp)
   1a7bc: 23 b8 a1 26  	sd	a0, 0x270(gp)
   1a7c0: 3a 85        	mv	a0, a4
   1a7c2: 41 01        	addi	sp, sp, 0x10
   1a7c4: 82 80        	ret
   1a7c6: ef 80 3f b3  	jal	0x132f8 <__errno>
   1a7ca: a2 60        	ld	ra, 0x8(sp)
   1a7cc: b1 47        	li	a5, 0xc
   1a7ce: 1c c1        	sw	a5, 0x0(a0)
   1a7d0: 7d 55        	li	a0, -0x1
   1a7d2: 41 01        	addi	sp, sp, 0x10
   1a7d4: 82 80        	ret

000000000001a7d6 <_write>:
   1a7d6: 41 11        	addi	sp, sp, -0x10
   1a7d8: 06 e4        	sd	ra, 0x8(sp)
   1a7da: 22 e0        	sd	s0, 0x0(sp)
   1a7dc: 93 08 00 04  	li	a7, 0x40
   1a7e0: 73 00 00 00  	ecall
   1a7e4: 2a 84        	mv	s0, a0
   1a7e6: 63 47 05 00  	bltz	a0, 0x1a7f4 <_write+0x1e>
   1a7ea: a2 60        	ld	ra, 0x8(sp)
   1a7ec: 22 85        	mv	a0, s0
   1a7ee: 02 64        	ld	s0, 0x0(sp)
   1a7f0: 41 01        	addi	sp, sp, 0x10
   1a7f2: 82 80        	ret
   1a7f4: 3b 04 80 40  	negw	s0, s0
   1a7f8: ef 80 1f b0  	jal	0x132f8 <__errno>
   1a7fc: 00 c1        	sw	s0, 0x0(a0)
   1a7fe: 7d 54        	li	s0, -0x1
   1a800: ed b7        	j	0x1a7ea <_write+0x14>

000000000001a802 <_conv_stat>:
   1a802: 03 d7 85 01  	lhu	a4, 0x18(a1)
   1a806: 83 d7 45 01  	lhu	a5, 0x14(a1)
   1a80a: d0 4d        	lw	a2, 0x1c(a1)
   1a80c: 94 71        	ld	a3, 0x20(a1)
   1a80e: 03 b3 05 00  	ld	t1, 0x0(a1)
   1a812: 83 b8 85 00  	ld	a7, 0x8(a1)
   1a816: 03 a8 05 01  	lw	a6, 0x10(a1)
   1a81a: 1b 17 07 01  	slliw	a4, a4, 0x10
   1a81e: d9 8f        	or	a5, a5, a4
   1a820: 23 16 c5 00  	sh	a2, 0xc(a0)
   1a824: 23 17 d5 00  	sh	a3, 0xe(a0)
   1a828: 23 10 65 00  	sh	t1, 0x0(a0)
   1a82c: 23 11 15 01  	sh	a7, 0x2(a0)
   1a830: 23 22 05 01  	sw	a6, 0x4(a0)
   1a834: 1c c5        	sw	a5, 0x8(a0)
   1a836: 98 79        	ld	a4, 0x30(a1)
   1a838: bc 65        	ld	a5, 0x48(a1)
   1a83a: b0 61        	ld	a2, 0x40(a1)
   1a83c: 94 5d        	lw	a3, 0x38(a1)
   1a83e: 18 e9        	sd	a4, 0x10(a0)
   1a840: 1c ed        	sd	a5, 0x18(a0)
   1a842: b8 6d        	ld	a4, 0x58(a1)
   1a844: bc 75        	ld	a5, 0x68(a1)
   1a846: 30 e9        	sd	a2, 0x50(a0)
   1a848: 34 e5        	sd	a3, 0x48(a0)
   1a84a: 18 f5        	sd	a4, 0x28(a0)
   1a84c: 1c fd        	sd	a5, 0x38(a0)
   1a84e: 82 80        	ret

000000000001a850 <__addtf3>:
   1a850: 79 71        	addi	sp, sp, -0x30
   1a852: 06 f4        	sd	ra, 0x28(sp)
   1a854: 22 f0        	sd	s0, 0x20(sp)
   1a856: 26 ec        	sd	s1, 0x18(sp)
   1a858: 4a e8        	sd	s2, 0x10(sp)
   1a85a: 4e e4        	sd	s3, 0x8(sp)
   1a85c: 52 e0        	sd	s4, 0x0(sp)
   1a85e: f3 24 20 00  	frrm	s1
   1a862: 7d 57        	li	a4, -0x1
   1a864: 41 83        	srli	a4, a4, 0x10
   1a866: 21 68        	lui	a6, 0x8
   1a868: 13 d9 05 03  	srli	s2, a1, 0x30
   1a86c: 7d 18        	addi	a6, a6, -0x1
   1a86e: 93 d8 06 03  	srli	a7, a3, 0x30
   1a872: 13 d3 f6 03  	srli	t1, a3, 0x3f
   1a876: f9 8e        	and	a3, a3, a4
   1a878: 8e 06        	slli	a3, a3, 0x3
   1a87a: 33 79 09 01  	and	s2, s2, a6
   1a87e: 93 d9 f5 03  	srli	s3, a1, 0x3f
   1a882: b3 f8 08 01  	and	a7, a7, a6
   1a886: f9 8d        	and	a1, a1, a4
   1a888: 13 57 d6 03  	srli	a4, a2, 0x3d
   1a88c: 93 97 35 00  	slli	a5, a1, 0x3
   1a890: 55 8f        	or	a4, a4, a3
   1a892: 93 55 d5 03  	srli	a1, a0, 0x3d
   1a896: bb 06 19 41  	subw	a3, s2, a7
   1a89a: dd 8d        	or	a1, a1, a5
   1a89c: 81 24        	sext.w	s1, s1
   1a89e: 0e 05        	slli	a0, a0, 0x3
   1a8a0: 0e 06        	slli	a2, a2, 0x3
   1a8a2: 9b 87 06 00  	sext.w	a5, a3
   1a8a6: 63 97 69 2c  	bne	s3, t1, 0x1ab74 <__addtf3+0x324>
   1a8aa: 63 54 f0 10  	blez	a5, 0x1a9b2 <__addtf3+0x162>
   1a8ae: 63 9f 08 06  	bnez	a7, 0x1a92c <__addtf3+0xdc>
   1a8b2: b3 67 c7 00  	or	a5, a4, a2
   1a8b6: 99 ef        	bnez	a5, 0x1a8d4 <__addtf3+0x84>
   1a8b8: 63 17 09 2d  	bne	s2, a6, 0x1ab86 <__addtf3+0x336>
   1a8bc: 33 e6 a5 00  	or	a2, a1, a0
   1a8c0: 63 0f 06 74  	beqz	a2, 0x1b01e <__addtf3+0x7ce>
   1a8c4: 93 d7 25 03  	srli	a5, a1, 0x32
   1a8c8: 93 c7 17 00  	xori	a5, a5, 0x1
   1a8cc: 92 07        	slli	a5, a5, 0x4
   1a8ce: 2e 87        	mv	a4, a1
   1a8d0: 2a 86        	mv	a2, a0
   1a8d2: 19 a2        	j	0x1a9d8 <__addtf3+0x188>
   1a8d4: 9b 87 f6 ff  	addiw	a5, a3, -0x1
   1a8d8: 95 ef        	bnez	a5, 0x1a914 <__addtf3+0xc4>
   1a8da: 2a 96        	add	a2, a2, a0
   1a8dc: 2e 97        	add	a4, a4, a1
   1a8de: 33 35 a6 00  	sltu	a0, a2, a0
   1a8e2: 2a 97        	add	a4, a4, a0
   1a8e4: 93 16 c7 00  	slli	a3, a4, 0xc
   1a8e8: 81 47        	li	a5, 0x0
   1a8ea: 63 d7 06 0e  	bgez	a3, 0x1a9d8 <__addtf3+0x188>
   1a8ee: a1 66        	lui	a3, 0x8
   1a8f0: 05 09        	addi	s2, s2, 0x1
   1a8f2: fd 16        	addi	a3, a3, -0x1
   1a8f4: 63 0c d9 24  	beq	s2, a3, 0x1ab4c <__addtf3+0x2fc>
   1a8f8: fd 56        	li	a3, -0x1
   1a8fa: ce 16        	slli	a3, a3, 0x33
   1a8fc: fd 16        	addi	a3, a3, -0x1
   1a8fe: f9 8e        	and	a3, a3, a4
   1a900: 13 57 16 00  	srli	a4, a2, 0x1
   1a904: 05 8a        	andi	a2, a2, 0x1
   1a906: 51 8f        	or	a4, a4, a2
   1a908: 13 96 f6 03  	slli	a2, a3, 0x3f
   1a90c: 59 8e        	or	a2, a2, a4
   1a90e: 13 d7 16 00  	srli	a4, a3, 0x1
   1a912: d9 a0        	j	0x1a9d8 <__addtf3+0x188>
   1a914: 63 11 09 03  	bne	s2, a6, 0x1a936 <__addtf3+0xe6>
   1a918: 33 e6 a5 00  	or	a2, a1, a0
   1a91c: 63 01 06 70  	beqz	a2, 0x1b01e <__addtf3+0x7ce>
   1a920: 93 d7 25 03  	srli	a5, a1, 0x32
   1a924: 93 c7 17 00  	xori	a5, a5, 0x1
   1a928: 85 8b        	andi	a5, a5, 0x1
   1a92a: 4d b7        	j	0x1a8cc <__addtf3+0x7c>
   1a92c: e3 06 09 ff  	beq	s2, a6, 0x1a918 <__addtf3+0xc8>
   1a930: 85 46        	li	a3, 0x1
   1a932: ce 16        	slli	a3, a3, 0x33
   1a934: 55 8f        	or	a4, a4, a3
   1a936: 93 06 40 07  	li	a3, 0x74
   1a93a: 63 c7 f6 06  	blt	a3, a5, 0x1a9a8 <__addtf3+0x158>
   1a93e: 93 06 f0 03  	li	a3, 0x3f
   1a942: 63 cc f6 02  	blt	a3, a5, 0x1a97a <__addtf3+0x12a>
   1a946: 13 08 00 04  	li	a6, 0x40
   1a94a: 3b 08 f8 40  	subw	a6, a6, a5
   1a94e: b3 16 07 01  	sll	a3, a4, a6
   1a952: b3 58 f6 00  	srl	a7, a2, a5
   1a956: 33 18 06 01  	sll	a6, a2, a6
   1a95a: b3 e6 16 01  	or	a3, a3, a7
   1a95e: 33 38 00 01  	snez	a6, a6
   1a962: b3 e6 06 01  	or	a3, a3, a6
   1a966: b3 57 f7 00  	srl	a5, a4, a5
   1a96a: 36 95        	add	a0, a0, a3
   1a96c: ae 97        	add	a5, a5, a1
   1a96e: b3 36 d5 00  	sltu	a3, a0, a3
   1a972: 2a 86        	mv	a2, a0
   1a974: 33 87 d7 00  	add	a4, a5, a3
   1a978: b5 b7        	j	0x1a8e4 <__addtf3+0x94>
   1a97a: 9b 86 07 fc  	addiw	a3, a5, -0x40
   1a97e: 93 08 00 04  	li	a7, 0x40
   1a982: b3 56 d7 00  	srl	a3, a4, a3
   1a986: 01 48        	li	a6, 0x0
   1a988: 63 88 17 01  	beq	a5, a7, 0x1a998 <__addtf3+0x148>
   1a98c: 13 08 00 08  	li	a6, 0x80
   1a990: 3b 08 f8 40  	subw	a6, a6, a5
   1a994: 33 18 07 01  	sll	a6, a4, a6
   1a998: 33 68 c8 00  	or	a6, a6, a2
   1a99c: 33 38 00 01  	snez	a6, a6
   1a9a0: b3 e6 06 01  	or	a3, a3, a6
   1a9a4: 81 47        	li	a5, 0x0
   1a9a6: d1 b7        	j	0x1a96a <__addtf3+0x11a>
   1a9a8: b3 66 c7 00  	or	a3, a4, a2
   1a9ac: b3 36 d0 00  	snez	a3, a3
   1a9b0: d5 bf        	j	0x1a9a4 <__addtf3+0x154>
   1a9b2: e9 cb        	beqz	a5, 0x1aa84 <__addtf3+0x234>
   1a9b4: 63 14 09 08  	bnez	s2, 0x1aa3c <__addtf3+0x1ec>
   1a9b8: b3 e7 a5 00  	or	a5, a1, a0
   1a9bc: 95 e3        	bnez	a5, 0x1a9e0 <__addtf3+0x190>
   1a9be: 63 9e 08 65  	bne	a7, a6, 0x1b01a <__addtf3+0x7ca>
   1a9c2: b3 67 c7 00  	or	a5, a4, a2
   1a9c6: 63 88 07 64  	beqz	a5, 0x1b016 <__addtf3+0x7c6>
   1a9ca: 93 57 27 03  	srli	a5, a4, 0x32
   1a9ce: 93 c7 17 00  	xori	a5, a5, 0x1
   1a9d2: 85 8b        	andi	a5, a5, 0x1
   1a9d4: 92 07        	slli	a5, a5, 0x4
   1a9d6: 46 89        	mv	s2, a7
   1a9d8: ba 85        	mv	a1, a4
   1a9da: 32 85        	mv	a0, a2
   1a9dc: 01 47        	li	a4, 0x0
   1a9de: 25 ab        	j	0x1af16 <__addtf3+0x6c6>
   1a9e0: 93 c7 f6 ff  	not	a5, a3
   1a9e4: 81 27        	sext.w	a5, a5
   1a9e6: 81 eb        	bnez	a5, 0x1a9f6 <__addtf3+0x1a6>
   1a9e8: 2a 96        	add	a2, a2, a0
   1a9ea: 2e 97        	add	a4, a4, a1
   1a9ec: 33 35 a6 00  	sltu	a0, a2, a0
   1a9f0: 2a 97        	add	a4, a4, a0
   1a9f2: 46 89        	mv	s2, a7
   1a9f4: c5 bd        	j	0x1a8e4 <__addtf3+0x94>
   1a9f6: e3 86 08 fd  	beq	a7, a6, 0x1a9c2 <__addtf3+0x172>
   1a9fa: 93 06 40 07  	li	a3, 0x74
   1a9fe: 63 ce f6 06  	blt	a3, a5, 0x1aa7a <__addtf3+0x22a>
   1aa02: 93 06 f0 03  	li	a3, 0x3f
   1aa06: 63 c3 f6 04  	blt	a3, a5, 0x1aa4c <__addtf3+0x1fc>
   1aa0a: 13 08 00 04  	li	a6, 0x40
   1aa0e: 3b 08 f8 40  	subw	a6, a6, a5
   1aa12: b3 96 05 01  	sll	a3, a1, a6
   1aa16: 33 53 f5 00  	srl	t1, a0, a5
   1aa1a: 33 18 05 01  	sll	a6, a0, a6
   1aa1e: b3 e6 66 00  	or	a3, a3, t1
   1aa22: 33 38 00 01  	snez	a6, a6
   1aa26: b3 e6 06 01  	or	a3, a3, a6
   1aa2a: b3 d7 f5 00  	srl	a5, a1, a5
   1aa2e: 36 96        	add	a2, a2, a3
   1aa30: ba 97        	add	a5, a5, a4
   1aa32: b3 36 d6 00  	sltu	a3, a2, a3
   1aa36: 33 87 d7 00  	add	a4, a5, a3
   1aa3a: 65 bf        	j	0x1a9f2 <__addtf3+0x1a2>
   1aa3c: e3 83 08 f9  	beq	a7, a6, 0x1a9c2 <__addtf3+0x172>
   1aa40: bb 07 d0 40  	negw	a5, a3
   1aa44: 85 46        	li	a3, 0x1
   1aa46: ce 16        	slli	a3, a3, 0x33
   1aa48: d5 8d        	or	a1, a1, a3
   1aa4a: 45 bf        	j	0x1a9fa <__addtf3+0x1aa>
   1aa4c: 9b 86 07 fc  	addiw	a3, a5, -0x40
   1aa50: 13 03 00 04  	li	t1, 0x40
   1aa54: b3 d6 d5 00  	srl	a3, a1, a3
   1aa58: 01 48        	li	a6, 0x0
   1aa5a: 63 88 67 00  	beq	a5, t1, 0x1aa6a <__addtf3+0x21a>
   1aa5e: 13 08 00 08  	li	a6, 0x80
   1aa62: 3b 08 f8 40  	subw	a6, a6, a5
   1aa66: 33 98 05 01  	sll	a6, a1, a6
   1aa6a: 33 68 a8 00  	or	a6, a6, a0
   1aa6e: 33 38 00 01  	snez	a6, a6
   1aa72: b3 e6 06 01  	or	a3, a3, a6
   1aa76: 81 47        	li	a5, 0x0
   1aa78: 5d bf        	j	0x1aa2e <__addtf3+0x1de>
   1aa7a: b3 e6 a5 00  	or	a3, a1, a0
   1aa7e: b3 36 d0 00  	snez	a3, a3
   1aa82: d5 bf        	j	0x1aa76 <__addtf3+0x226>
   1aa84: 93 06 19 00  	addi	a3, s2, 0x1
   1aa88: 13 9e 16 03  	slli	t3, a3, 0x31
   1aa8c: 21 63        	lui	t1, 0x8
   1aa8e: 13 5e 2e 03  	srli	t3, t3, 0x32
   1aa92: 79 13        	addi	t1, t1, -0x2
   1aa94: 63 1d 0e 06  	bnez	t3, 0x1ab0e <__addtf3+0x2be>
   1aa98: b3 e6 a5 00  	or	a3, a1, a0
   1aa9c: 63 18 09 02  	bnez	s2, 0x1aacc <__addtf3+0x27c>
   1aaa0: 63 82 06 56  	beqz	a3, 0x1b004 <__addtf3+0x7b4>
   1aaa4: b3 66 c7 00  	or	a3, a4, a2
   1aaa8: 63 82 06 56  	beqz	a3, 0x1b00c <__addtf3+0x7bc>
   1aaac: 2a 96        	add	a2, a2, a0
   1aaae: 2e 97        	add	a4, a4, a1
   1aab0: 33 35 a6 00  	sltu	a0, a2, a0
   1aab4: b3 05 a7 00  	add	a1, a4, a0
   1aab8: 13 97 c5 00  	slli	a4, a1, 0xc
   1aabc: 63 58 07 28  	bgez	a4, 0x1ad4c <__addtf3+0x4fc>
   1aac0: 7d 57        	li	a4, -0x1
   1aac2: 4e 17        	slli	a4, a4, 0x33
   1aac4: 7d 17        	addi	a4, a4, -0x1
   1aac6: 6d 8f        	and	a4, a4, a1
   1aac8: 05 49        	li	s2, 0x1
   1aaca: 39 b7        	j	0x1a9d8 <__addtf3+0x188>
   1aacc: 63 16 09 03  	bne	s2, a6, 0x1aaf8 <__addtf3+0x2a8>
   1aad0: 63 81 06 56  	beqz	a3, 0x1b032 <__addtf3+0x7e2>
   1aad4: 93 d7 25 03  	srli	a5, a1, 0x32
   1aad8: 93 c7 17 00  	xori	a5, a5, 0x1
   1aadc: 85 8b        	andi	a5, a5, 0x1
   1aade: 92 07        	slli	a5, a5, 0x4
   1aae0: 63 9f 28 01  	bne	a7, s2, 0x1aafe <__addtf3+0x2ae>
   1aae4: 33 68 c7 00  	or	a6, a4, a2
   1aae8: 63 0a 08 00  	beqz	a6, 0x1aafc <__addtf3+0x2ac>
   1aaec: 13 18 d7 00  	slli	a6, a4, 0xd
   1aaf0: 63 46 08 00  	bltz	a6, 0x1aafc <__addtf3+0x2ac>
   1aaf4: c1 47        	li	a5, 0x10
   1aaf6: 19 a0        	j	0x1aafc <__addtf3+0x2ac>
   1aaf8: e3 86 08 ff  	beq	a7, a6, 0x1aae4 <__addtf3+0x294>
   1aafc: 91 c6        	beqz	a3, 0x1ab08 <__addtf3+0x2b8>
   1aafe: 51 8f        	or	a4, a4, a2
   1ab00: 63 1a 07 2e  	bnez	a4, 0x1adf4 <__addtf3+0x5a4>
   1ab04: 2e 87        	mv	a4, a1
   1ab06: 2a 86        	mv	a2, a0
   1ab08: 21 69        	lui	s2, 0x8
   1ab0a: 7d 19        	addi	s2, s2, -0x1
   1ab0c: f1 b5        	j	0x1a9d8 <__addtf3+0x188>
   1ab0e: 63 8e 06 01  	beq	a3, a6, 0x1ab2a <__addtf3+0x2da>
   1ab12: 2a 96        	add	a2, a2, a0
   1ab14: 2e 97        	add	a4, a4, a1
   1ab16: 33 35 a6 00  	sltu	a0, a2, a0
   1ab1a: 2a 97        	add	a4, a4, a0
   1ab1c: 93 15 f7 03  	slli	a1, a4, 0x3f
   1ab20: 05 82        	srli	a2, a2, 0x1
   1ab22: 4d 8e        	or	a2, a2, a1
   1ab24: 05 83        	srli	a4, a4, 0x1
   1ab26: 36 89        	mv	s2, a3
   1ab28: 45 bd        	j	0x1a9d8 <__addtf3+0x188>
   1ab2a: 99 cc        	beqz	s1, 0x1ab48 <__addtf3+0x2f8>
   1ab2c: 8d 47        	li	a5, 0x3
   1ab2e: 63 98 f4 00  	bne	s1, a5, 0x1ab3e <__addtf3+0x2ee>
   1ab32: 63 8b 09 00  	beqz	s3, 0x1ab48 <__addtf3+0x2f8>
   1ab36: 7d 57        	li	a4, -0x1
   1ab38: 7d 56        	li	a2, -0x1
   1ab3a: 1a 89        	mv	s2, t1
   1ab3c: 15 a8        	j	0x1ab70 <__addtf3+0x320>
   1ab3e: 89 47        	li	a5, 0x2
   1ab40: e3 9b f4 fe  	bne	s1, a5, 0x1ab36 <__addtf3+0x2e6>
   1ab44: e3 89 09 fe  	beqz	s3, 0x1ab36 <__addtf3+0x2e6>
   1ab48: 36 89        	mv	s2, a3
   1ab4a: 0d a0        	j	0x1ab6c <__addtf3+0x31c>
   1ab4c: 85 c0        	beqz	s1, 0x1ab6c <__addtf3+0x31c>
   1ab4e: 8d 47        	li	a5, 0x3
   1ab50: 63 99 f4 00  	bne	s1, a5, 0x1ab62 <__addtf3+0x312>
   1ab54: 63 8c 09 00  	beqz	s3, 0x1ab6c <__addtf3+0x31c>
   1ab58: 21 69        	lui	s2, 0x8
   1ab5a: 7d 57        	li	a4, -0x1
   1ab5c: 7d 56        	li	a2, -0x1
   1ab5e: 79 19        	addi	s2, s2, -0x2
   1ab60: 01 a8        	j	0x1ab70 <__addtf3+0x320>
   1ab62: 89 47        	li	a5, 0x2
   1ab64: e3 9a f4 fe  	bne	s1, a5, 0x1ab58 <__addtf3+0x308>
   1ab68: e3 88 09 fe  	beqz	s3, 0x1ab58 <__addtf3+0x308>
   1ab6c: 01 47        	li	a4, 0x0
   1ab6e: 01 46        	li	a2, 0x0
   1ab70: 95 47        	li	a5, 0x5
   1ab72: 9d b5        	j	0x1a9d8 <__addtf3+0x188>
   1ab74: 63 57 f0 0c  	blez	a5, 0x1ac42 <__addtf3+0x3f2>
   1ab78: 63 93 08 08  	bnez	a7, 0x1abfe <__addtf3+0x3ae>
   1ab7c: b3 67 c7 00  	or	a5, a4, a2
   1ab80: 91 e7        	bnez	a5, 0x1ab8c <__addtf3+0x33c>
   1ab82: e3 0b 09 d9  	beq	s2, a6, 0x1a918 <__addtf3+0xc8>
   1ab86: 2e 87        	mv	a4, a1
   1ab88: 2a 86        	mv	a2, a0
   1ab8a: a1 a6        	j	0x1aed2 <__addtf3+0x682>
   1ab8c: 9b 87 f6 ff  	addiw	a5, a3, -0x1
   1ab90: 8d e3        	bnez	a5, 0x1abb2 <__addtf3+0x362>
   1ab92: 33 06 c5 40  	sub	a2, a0, a2
   1ab96: 33 87 e5 40  	sub	a4, a1, a4
   1ab9a: 33 35 c5 00  	sltu	a0, a0, a2
   1ab9e: 09 8f        	sub	a4, a4, a0
   1aba0: 93 17 c7 00  	slli	a5, a4, 0xc
   1aba4: 63 d7 07 32  	bgez	a5, 0x1aed2 <__addtf3+0x682>
   1aba8: 13 14 d7 00  	slli	s0, a4, 0xd
   1abac: 35 80        	srli	s0, s0, 0xd
   1abae: 32 8a        	mv	s4, a2
   1abb0: 9d ac        	j	0x1ae26 <__addtf3+0x5d6>
   1abb2: e3 03 09 d7  	beq	s2, a6, 0x1a918 <__addtf3+0xc8>
   1abb6: 93 06 40 07  	li	a3, 0x74
   1abba: 63 cf f6 06  	blt	a3, a5, 0x1ac38 <__addtf3+0x3e8>
   1abbe: 93 06 f0 03  	li	a3, 0x3f
   1abc2: 63 c4 f6 04  	blt	a3, a5, 0x1ac0a <__addtf3+0x3ba>
   1abc6: 13 08 00 04  	li	a6, 0x40
   1abca: 3b 08 f8 40  	subw	a6, a6, a5
   1abce: b3 16 07 01  	sll	a3, a4, a6
   1abd2: b3 58 f6 00  	srl	a7, a2, a5
   1abd6: 33 18 06 01  	sll	a6, a2, a6
   1abda: b3 e6 16 01  	or	a3, a3, a7
   1abde: 33 38 00 01  	snez	a6, a6
   1abe2: b3 e6 06 01  	or	a3, a3, a6
   1abe6: b3 57 f7 00  	srl	a5, a4, a5
   1abea: b3 06 d5 40  	sub	a3, a0, a3
   1abee: b3 87 f5 40  	sub	a5, a1, a5
   1abf2: 33 35 d5 00  	sltu	a0, a0, a3
   1abf6: 36 86        	mv	a2, a3
   1abf8: 33 87 a7 40  	sub	a4, a5, a0
   1abfc: 55 b7        	j	0x1aba0 <__addtf3+0x350>
   1abfe: e3 0d 09 d1  	beq	s2, a6, 0x1a918 <__addtf3+0xc8>
   1ac02: 85 46        	li	a3, 0x1
   1ac04: ce 16        	slli	a3, a3, 0x33
   1ac06: 55 8f        	or	a4, a4, a3
   1ac08: 7d b7        	j	0x1abb6 <__addtf3+0x366>
   1ac0a: 9b 86 07 fc  	addiw	a3, a5, -0x40
   1ac0e: 93 08 00 04  	li	a7, 0x40
   1ac12: b3 56 d7 00  	srl	a3, a4, a3
   1ac16: 01 48        	li	a6, 0x0
   1ac18: 63 88 17 01  	beq	a5, a7, 0x1ac28 <__addtf3+0x3d8>
   1ac1c: 13 08 00 08  	li	a6, 0x80
   1ac20: 3b 08 f8 40  	subw	a6, a6, a5
   1ac24: 33 18 07 01  	sll	a6, a4, a6
   1ac28: 33 68 c8 00  	or	a6, a6, a2
   1ac2c: 33 38 00 01  	snez	a6, a6
   1ac30: b3 e6 06 01  	or	a3, a3, a6
   1ac34: 81 47        	li	a5, 0x0
   1ac36: 55 bf        	j	0x1abea <__addtf3+0x39a>
   1ac38: b3 66 c7 00  	or	a3, a4, a2
   1ac3c: b3 36 d0 00  	snez	a3, a3
   1ac40: d5 bf        	j	0x1ac34 <__addtf3+0x3e4>
   1ac42: e9 cf        	beqz	a5, 0x1ad1c <__addtf3+0x4cc>
   1ac44: 63 18 09 08  	bnez	s2, 0x1acd4 <__addtf3+0x484>
   1ac48: b3 e7 a5 00  	or	a5, a1, a0
   1ac4c: 85 e3        	bnez	a5, 0x1ac6c <__addtf3+0x41c>
   1ac4e: 63 9c 08 3d  	bne	a7, a6, 0x1b026 <__addtf3+0x7d6>
   1ac52: b3 67 c7 00  	or	a5, a4, a2
   1ac56: 63 86 07 3c  	beqz	a5, 0x1b022 <__addtf3+0x7d2>
   1ac5a: 93 57 27 03  	srli	a5, a4, 0x32
   1ac5e: 93 c7 17 00  	xori	a5, a5, 0x1
   1ac62: 85 8b        	andi	a5, a5, 0x1
   1ac64: 92 07        	slli	a5, a5, 0x4
   1ac66: 46 89        	mv	s2, a7
   1ac68: 9a 89        	mv	s3, t1
   1ac6a: bd b3        	j	0x1a9d8 <__addtf3+0x188>
   1ac6c: 93 c7 f6 ff  	not	a5, a3
   1ac70: 81 27        	sext.w	a5, a5
   1ac72: 99 eb        	bnez	a5, 0x1ac88 <__addtf3+0x438>
   1ac74: 33 05 a6 40  	sub	a0, a2, a0
   1ac78: b3 37 a6 00  	sltu	a5, a2, a0
   1ac7c: 0d 8f        	sub	a4, a4, a1
   1ac7e: 2a 86        	mv	a2, a0
   1ac80: 1d 8f        	sub	a4, a4, a5
   1ac82: 46 89        	mv	s2, a7
   1ac84: 9a 89        	mv	s3, t1
   1ac86: 29 bf        	j	0x1aba0 <__addtf3+0x350>
   1ac88: e3 85 08 fd  	beq	a7, a6, 0x1ac52 <__addtf3+0x402>
   1ac8c: 93 06 40 07  	li	a3, 0x74
   1ac90: 63 c1 f6 08  	blt	a3, a5, 0x1ad12 <__addtf3+0x4c2>
   1ac94: 93 06 f0 03  	li	a3, 0x3f
   1ac98: 63 c6 f6 04  	blt	a3, a5, 0x1ace4 <__addtf3+0x494>
   1ac9c: 13 08 00 04  	li	a6, 0x40
   1aca0: 3b 08 f8 40  	subw	a6, a6, a5
   1aca4: b3 96 05 01  	sll	a3, a1, a6
   1aca8: 33 5e f5 00  	srl	t3, a0, a5
   1acac: 33 18 05 01  	sll	a6, a0, a6
   1acb0: b3 e6 c6 01  	or	a3, a3, t3
   1acb4: 33 38 00 01  	snez	a6, a6
   1acb8: b3 e6 06 01  	or	a3, a3, a6
   1acbc: b3 d7 f5 00  	srl	a5, a1, a5
   1acc0: b3 06 d6 40  	sub	a3, a2, a3
   1acc4: b3 35 d6 00  	sltu	a1, a2, a3
   1acc8: b3 07 f7 40  	sub	a5, a4, a5
   1accc: 36 86        	mv	a2, a3
   1acce: 33 87 b7 40  	sub	a4, a5, a1
   1acd2: 45 bf        	j	0x1ac82 <__addtf3+0x432>
   1acd4: e3 8f 08 f7  	beq	a7, a6, 0x1ac52 <__addtf3+0x402>
   1acd8: bb 07 d0 40  	negw	a5, a3
   1acdc: 85 46        	li	a3, 0x1
   1acde: ce 16        	slli	a3, a3, 0x33
   1ace0: d5 8d        	or	a1, a1, a3
   1ace2: 6d b7        	j	0x1ac8c <__addtf3+0x43c>
   1ace4: 9b 86 07 fc  	addiw	a3, a5, -0x40
   1ace8: 13 0e 00 04  	li	t3, 0x40
   1acec: b3 d6 d5 00  	srl	a3, a1, a3
   1acf0: 01 48        	li	a6, 0x0
   1acf2: 63 88 c7 01  	beq	a5, t3, 0x1ad02 <__addtf3+0x4b2>
   1acf6: 13 08 00 08  	li	a6, 0x80
   1acfa: 3b 08 f8 40  	subw	a6, a6, a5
   1acfe: 33 98 05 01  	sll	a6, a1, a6
   1ad02: 33 68 a8 00  	or	a6, a6, a0
   1ad06: 33 38 00 01  	snez	a6, a6
   1ad0a: b3 e6 06 01  	or	a3, a3, a6
   1ad0e: 81 47        	li	a5, 0x0
   1ad10: 45 bf        	j	0x1acc0 <__addtf3+0x470>
   1ad12: b3 e6 a5 00  	or	a3, a1, a0
   1ad16: b3 36 d0 00  	snez	a3, a3
   1ad1a: d5 bf        	j	0x1ad0e <__addtf3+0x4be>
   1ad1c: 93 06 19 00  	addi	a3, s2, 0x1
   1ad20: 13 9e 16 03  	slli	t3, a3, 0x31
   1ad24: 13 5e 2e 03  	srli	t3, t3, 0x32
   1ad28: 63 1b 0e 0c  	bnez	t3, 0x1adfe <__addtf3+0x5ae>
   1ad2c: 33 ee a5 00  	or	t3, a1, a0
   1ad30: b3 66 c7 00  	or	a3, a4, a2
   1ad34: 63 16 09 06  	bnez	s2, 0x1ada0 <__addtf3+0x550>
   1ad38: 63 12 0e 02  	bnez	t3, 0x1ad5c <__addtf3+0x50c>
   1ad3c: 63 96 06 2c  	bnez	a3, 0x1b008 <__addtf3+0x7b8>
   1ad40: 93 89 e4 ff  	addi	s3, s1, -0x2
   1ad44: 93 b9 19 00  	seqz	s3, s3
   1ad48: 81 45        	li	a1, 0x0
   1ad4a: 01 46        	li	a2, 0x0
   1ad4c: 33 65 b6 00  	or	a0, a2, a1
   1ad50: 63 13 05 18  	bnez	a0, 0x1aed6 <__addtf3+0x686>
   1ad54: 81 45        	li	a1, 0x0
   1ad56: 01 49        	li	s2, 0x0
   1ad58: 81 47        	li	a5, 0x0
   1ad5a: 31 ac        	j	0x1af76 <__addtf3+0x726>
   1ad5c: 63 88 06 2a  	beqz	a3, 0x1b00c <__addtf3+0x7bc>
   1ad60: b3 06 c5 40  	sub	a3, a0, a2
   1ad64: 33 38 d5 00  	sltu	a6, a0, a3
   1ad68: b3 87 e5 40  	sub	a5, a1, a4
   1ad6c: b3 87 07 41  	sub	a5, a5, a6
   1ad70: 13 98 c7 00  	slli	a6, a5, 0xc
   1ad74: 63 5c 08 00  	bgez	a6, 0x1ad8c <__addtf3+0x53c>
   1ad78: 33 05 a6 40  	sub	a0, a2, a0
   1ad7c: b3 37 a6 00  	sltu	a5, a2, a0
   1ad80: 0d 8f        	sub	a4, a4, a1
   1ad82: 2a 86        	mv	a2, a0
   1ad84: b3 05 f7 40  	sub	a1, a4, a5
   1ad88: 9a 89        	mv	s3, t1
   1ad8a: c9 b7        	j	0x1ad4c <__addtf3+0x4fc>
   1ad8c: 33 e6 f6 00  	or	a2, a3, a5
   1ad90: 63 10 06 28  	bnez	a2, 0x1b010 <__addtf3+0x7c0>
   1ad94: 93 89 e4 ff  	addi	s3, s1, -0x2
   1ad98: 93 b9 19 00  	seqz	s3, s3
   1ad9c: 81 45        	li	a1, 0x0
   1ad9e: 7d b7        	j	0x1ad4c <__addtf3+0x4fc>
   1ada0: 63 19 09 03  	bne	s2, a6, 0x1add2 <__addtf3+0x582>
   1ada4: 63 04 0e 28  	beqz	t3, 0x1b02c <__addtf3+0x7dc>
   1ada8: 93 d7 25 03  	srli	a5, a1, 0x32
   1adac: 93 c7 17 00  	xori	a5, a5, 0x1
   1adb0: 85 8b        	andi	a5, a5, 0x1
   1adb2: 92 07        	slli	a5, a5, 0x4
   1adb4: 63 9e 28 03  	bne	a7, s2, 0x1adf0 <__addtf3+0x5a0>
   1adb8: 99 ce        	beqz	a3, 0x1add6 <__addtf3+0x586>
   1adba: 05 48        	li	a6, 0x1
   1adbc: 93 18 d7 00  	slli	a7, a4, 0xd
   1adc0: 4a 18        	slli	a6, a6, 0x32
   1adc2: 63 ca 08 00  	bltz	a7, 0x1add6 <__addtf3+0x586>
   1adc6: 9a 89        	mv	s3, t1
   1adc8: 63 00 0e 02  	beqz	t3, 0x1ade8 <__addtf3+0x598>
   1adcc: 81 49        	li	s3, 0x0
   1adce: 42 87        	mv	a4, a6
   1add0: 19 a8        	j	0x1ade6 <__addtf3+0x596>
   1add2: e3 83 08 ff  	beq	a7, a6, 0x1adb8 <__addtf3+0x568>
   1add6: 63 1d 0e 00  	bnez	t3, 0x1adf0 <__addtf3+0x5a0>
   1adda: 9a 89        	mv	s3, t1
   1addc: e3 96 06 d2  	bnez	a3, 0x1ab08 <__addtf3+0x2b8>
   1ade0: 05 47        	li	a4, 0x1
   1ade2: 81 49        	li	s3, 0x0
   1ade4: 4a 17        	slli	a4, a4, 0x32
   1ade6: 01 46        	li	a2, 0x0
   1ade8: 21 69        	lui	s2, 0x8
   1adea: 7d 19        	addi	s2, s2, -0x1
   1adec: c1 47        	li	a5, 0x10
   1adee: ed b6        	j	0x1a9d8 <__addtf3+0x188>
   1adf0: e3 8a 06 d0  	beqz	a3, 0x1ab04 <__addtf3+0x2b4>
   1adf4: 05 47        	li	a4, 0x1
   1adf6: 81 49        	li	s3, 0x0
   1adf8: 4a 17        	slli	a4, a4, 0x32
   1adfa: 01 46        	li	a2, 0x0
   1adfc: 31 b3        	j	0x1ab08 <__addtf3+0x2b8>
   1adfe: b3 07 c5 40  	sub	a5, a0, a2
   1ae02: b3 36 f5 00  	sltu	a3, a0, a5
   1ae06: 33 84 e5 40  	sub	s0, a1, a4
   1ae0a: 15 8c        	sub	s0, s0, a3
   1ae0c: 93 16 c4 00  	slli	a3, s0, 0xc
   1ae10: 3e 8a        	mv	s4, a5
   1ae12: 63 d4 06 06  	bgez	a3, 0x1ae7a <__addtf3+0x62a>
   1ae16: 33 0a a6 40  	sub	s4, a2, a0
   1ae1a: 33 04 b7 40  	sub	s0, a4, a1
   1ae1e: 33 36 46 01  	sltu	a2, a2, s4
   1ae22: 11 8c        	sub	s0, s0, a2
   1ae24: 9a 89        	mv	s3, t1
   1ae26: 31 cc        	beqz	s0, 0x1ae82 <__addtf3+0x632>
   1ae28: 22 85        	mv	a0, s0
   1ae2a: ef 10 90 4f  	jal	0x1cb22 <__clzdi2>
   1ae2e: 1b 06 45 ff  	addiw	a2, a0, -0xc
   1ae32: 13 07 00 04  	li	a4, 0x40
   1ae36: 11 9f        	subw	a4, a4, a2
   1ae38: 33 14 c4 00  	sll	s0, s0, a2
   1ae3c: 33 57 ea 00  	srl	a4, s4, a4
   1ae40: 41 8f        	or	a4, a4, s0
   1ae42: 33 14 ca 00  	sll	s0, s4, a2
   1ae46: 63 4f 26 07  	blt	a2, s2, 0x1aec4 <__addtf3+0x674>
   1ae4a: 3b 06 26 41  	subw	a2, a2, s2
   1ae4e: 9b 05 16 00  	addiw	a1, a2, 0x1
   1ae52: 93 07 f0 03  	li	a5, 0x3f
   1ae56: 63 c4 b7 04  	blt	a5, a1, 0x1ae9e <__addtf3+0x64e>
   1ae5a: 93 07 00 04  	li	a5, 0x40
   1ae5e: 8d 9f        	subw	a5, a5, a1
   1ae60: 33 16 f7 00  	sll	a2, a4, a5
   1ae64: b3 56 b4 00  	srl	a3, s0, a1
   1ae68: b3 17 f4 00  	sll	a5, s0, a5
   1ae6c: 55 8e        	or	a2, a2, a3
   1ae6e: b3 37 f0 00  	snez	a5, a5
   1ae72: 5d 8e        	or	a2, a2, a5
   1ae74: b3 55 b7 00  	srl	a1, a4, a1
   1ae78: d1 bd        	j	0x1ad4c <__addtf3+0x4fc>
   1ae7a: 33 e6 87 00  	or	a2, a5, s0
   1ae7e: 45 f6        	bnez	a2, 0x1ae26 <__addtf3+0x5d6>
   1ae80: 11 bf        	j	0x1ad94 <__addtf3+0x544>
   1ae82: 52 85        	mv	a0, s4
   1ae84: ef 10 f0 49  	jal	0x1cb22 <__clzdi2>
   1ae88: 1b 06 45 03  	addiw	a2, a0, 0x34
   1ae8c: 93 07 f0 03  	li	a5, 0x3f
   1ae90: e3 d1 c7 fa  	bge	a5, a2, 0x1ae32 <__addtf3+0x5e2>
   1ae94: 1b 07 45 ff  	addiw	a4, a0, -0xc
   1ae98: 33 17 ea 00  	sll	a4, s4, a4
   1ae9c: 6d b7        	j	0x1ae46 <__addtf3+0x5f6>
   1ae9e: 1b 06 16 fc  	addiw	a2, a2, -0x3f
   1aea2: 13 05 00 04  	li	a0, 0x40
   1aea6: 33 56 c7 00  	srl	a2, a4, a2
   1aeaa: 81 47        	li	a5, 0x0
   1aeac: 63 87 a5 00  	beq	a1, a0, 0x1aeba <__addtf3+0x66a>
   1aeb0: 93 07 00 08  	li	a5, 0x80
   1aeb4: 8d 9f        	subw	a5, a5, a1
   1aeb6: b3 17 f7 00  	sll	a5, a4, a5
   1aeba: c1 8f        	or	a5, a5, s0
   1aebc: b3 37 f0 00  	snez	a5, a5
   1aec0: 5d 8e        	or	a2, a2, a5
   1aec2: e9 bd        	j	0x1ad9c <__addtf3+0x54c>
   1aec4: fd 57        	li	a5, -0x1
   1aec6: ce 17        	slli	a5, a5, 0x33
   1aec8: fd 17        	addi	a5, a5, -0x1
   1aeca: 33 09 c9 40  	sub	s2, s2, a2
   1aece: 7d 8f        	and	a4, a4, a5
   1aed0: 22 86        	mv	a2, s0
   1aed2: 81 47        	li	a5, 0x0
   1aed4: 11 b6        	j	0x1a9d8 <__addtf3+0x188>
   1aed6: 93 16 16 00  	slli	a3, a2, 0x1
   1aeda: 93 57 f6 03  	srli	a5, a2, 0x3f
   1aede: 13 97 15 00  	slli	a4, a1, 0x1
   1aee2: 13 f5 76 00  	andi	a0, a3, 0x7
   1aee6: 3e 97        	add	a4, a4, a5
   1aee8: 81 47        	li	a5, 0x0
   1aeea: 05 c1        	beqz	a0, 0x1af0a <__addtf3+0x6ba>
   1aeec: 89 47        	li	a5, 0x2
   1aeee: 63 84 f4 06  	beq	s1, a5, 0x1af56 <__addtf3+0x706>
   1aef2: 8d 47        	li	a5, 0x3
   1aef4: 63 88 f4 04  	beq	s1, a5, 0x1af44 <__addtf3+0x6f4>
   1aef8: 85 47        	li	a5, 0x1
   1aefa: 81 e8        	bnez	s1, 0x1af0a <__addtf3+0x6ba>
   1aefc: 13 f5 f6 00  	andi	a0, a3, 0xf
   1af00: 11 48        	li	a6, 0x4
   1af02: 93 b6 c6 ff  	sltiu	a3, a3, -0x4
   1af06: 63 14 05 05  	bne	a0, a6, 0x1af4e <__addtf3+0x6fe>
   1af0a: 51 93        	srli	a4, a4, 0x34
   1af0c: 13 47 17 00  	xori	a4, a4, 0x1
   1af10: 05 8b        	andi	a4, a4, 0x1
   1af12: 32 85        	mv	a0, a2
   1af14: 01 49        	li	s2, 0x0
   1af16: 93 76 76 00  	andi	a3, a2, 0x7
   1af1a: a9 ca        	beqz	a3, 0x1af6c <__addtf3+0x71c>
   1af1c: 89 46        	li	a3, 0x2
   1af1e: 93 e7 17 00  	ori	a5, a5, 0x1
   1af22: 63 83 d4 04  	beq	s1, a3, 0x1af68 <__addtf3+0x718>
   1af26: 8d 46        	li	a3, 0x3
   1af28: 63 8b d4 02  	beq	s1, a3, 0x1af5e <__addtf3+0x70e>
   1af2c: a1 e0        	bnez	s1, 0x1af6c <__addtf3+0x71c>
   1af2e: 93 76 f6 00  	andi	a3, a2, 0xf
   1af32: 11 48        	li	a6, 0x4
   1af34: 63 8c 06 03  	beq	a3, a6, 0x1af6c <__addtf3+0x71c>
   1af38: 13 05 46 00  	addi	a0, a2, 0x4
   1af3c: 33 36 c5 00  	sltu	a2, a0, a2
   1af40: b2 95        	add	a1, a1, a2
   1af42: 2d a0        	j	0x1af6c <__addtf3+0x71c>
   1af44: 85 47        	li	a5, 0x1
   1af46: e3 92 09 fc  	bnez	s3, 0x1af0a <__addtf3+0x6ba>
   1af4a: 93 b6 86 ff  	sltiu	a3, a3, -0x8
   1af4e: 93 c6 16 00  	xori	a3, a3, 0x1
   1af52: 36 97        	add	a4, a4, a3
   1af54: 5d bf        	j	0x1af0a <__addtf3+0x6ba>
   1af56: 85 47        	li	a5, 0x1
   1af58: e3 89 09 fa  	beqz	s3, 0x1af0a <__addtf3+0x6ba>
   1af5c: fd b7        	j	0x1af4a <__addtf3+0x6fa>
   1af5e: 63 97 09 00  	bnez	s3, 0x1af6c <__addtf3+0x71c>
   1af62: 13 05 86 00  	addi	a0, a2, 0x8
   1af66: d9 bf        	j	0x1af3c <__addtf3+0x6ec>
   1af68: e3 9d 09 fe  	bnez	s3, 0x1af62 <__addtf3+0x712>
   1af6c: 09 c7        	beqz	a4, 0x1af76 <__addtf3+0x726>
   1af6e: 13 f7 17 00  	andi	a4, a5, 0x1
   1af72: 06 07        	slli	a4, a4, 0x1
   1af74: d9 8f        	or	a5, a5, a4
   1af76: 13 97 c5 00  	slli	a4, a1, 0xc
   1af7a: 63 5b 07 00  	bgez	a4, 0x1af90 <__addtf3+0x740>
   1af7e: 21 67        	lui	a4, 0x8
   1af80: 05 09        	addi	s2, s2, 0x1
   1af82: 7d 17        	addi	a4, a4, -0x1
   1af84: 63 0c e9 04  	beq	s2, a4, 0x1afdc <__addtf3+0x78c>
   1af88: 7d 57        	li	a4, -0x1
   1af8a: 4e 17        	slli	a4, a4, 0x33
   1af8c: 7d 17        	addi	a4, a4, -0x1
   1af8e: f9 8d        	and	a1, a1, a4
   1af90: 13 97 d5 03  	slli	a4, a1, 0x3d
   1af94: 0d 81        	srli	a0, a0, 0x3
   1af96: 59 8d        	or	a0, a0, a4
   1af98: 21 67        	lui	a4, 0x8
   1af9a: 7d 17        	addi	a4, a4, -0x1
   1af9c: 8d 81        	srli	a1, a1, 0x3
   1af9e: 63 19 e9 00  	bne	s2, a4, 0x1afb0 <__addtf3+0x760>
   1afa2: 4d 8d        	or	a0, a0, a1
   1afa4: 81 45        	li	a1, 0x0
   1afa6: 09 c5        	beqz	a0, 0x1afb0 <__addtf3+0x760>
   1afa8: 85 45        	li	a1, 0x1
   1afaa: be 15        	slli	a1, a1, 0x2f
   1afac: 01 45        	li	a0, 0x0
   1afae: 81 49        	li	s3, 0x0
   1afb0: 46 19        	slli	s2, s2, 0x31
   1afb2: 13 59 19 03  	srli	s2, s2, 0x31
   1afb6: be 09        	slli	s3, s3, 0xf
   1afb8: c2 05        	slli	a1, a1, 0x10
   1afba: b3 e9 29 01  	or	s3, s3, s2
   1afbe: c2 19        	slli	s3, s3, 0x30
   1afc0: c1 81        	srli	a1, a1, 0x10
   1afc2: b3 e5 35 01  	or	a1, a1, s3
   1afc6: 99 c3        	beqz	a5, 0x1afcc <__addtf3+0x77c>
   1afc8: 73 a0 17 00  	csrs	fflags, a5
   1afcc: a2 70        	ld	ra, 0x28(sp)
   1afce: 02 74        	ld	s0, 0x20(sp)
   1afd0: e2 64        	ld	s1, 0x18(sp)
   1afd2: 42 69        	ld	s2, 0x10(sp)
   1afd4: a2 69        	ld	s3, 0x8(sp)
   1afd6: 02 6a        	ld	s4, 0x0(sp)
   1afd8: 45 61        	addi	sp, sp, 0x30
   1afda: 82 80        	ret
   1afdc: 01 45        	li	a0, 0x0
   1afde: 99 cc        	beqz	s1, 0x1affc <__addtf3+0x7ac>
   1afe0: 0d 47        	li	a4, 0x3
   1afe2: 63 98 e4 00  	bne	s1, a4, 0x1aff2 <__addtf3+0x7a2>
   1afe6: 63 8b 09 00  	beqz	s3, 0x1affc <__addtf3+0x7ac>
   1afea: 21 69        	lui	s2, 0x8
   1afec: 7d 55        	li	a0, -0x1
   1afee: 79 19        	addi	s2, s2, -0x2
   1aff0: 31 a0        	j	0x1affc <__addtf3+0x7ac>
   1aff2: 09 47        	li	a4, 0x2
   1aff4: e3 9b e4 fe  	bne	s1, a4, 0x1afea <__addtf3+0x79a>
   1aff8: e3 89 09 fe  	beqz	s3, 0x1afea <__addtf3+0x79a>
   1affc: 93 e7 57 00  	ori	a5, a5, 0x5
   1b000: aa 85        	mv	a1, a0
   1b002: 79 b7        	j	0x1af90 <__addtf3+0x740>
   1b004: ba 85        	mv	a1, a4
   1b006: 99 b3        	j	0x1ad4c <__addtf3+0x4fc>
   1b008: ba 85        	mv	a1, a4
   1b00a: bd bb        	j	0x1ad88 <__addtf3+0x538>
   1b00c: 2a 86        	mv	a2, a0
   1b00e: 3d bb        	j	0x1ad4c <__addtf3+0x4fc>
   1b010: be 85        	mv	a1, a5
   1b012: 36 86        	mv	a2, a3
   1b014: 25 bb        	j	0x1ad4c <__addtf3+0x4fc>
   1b016: 01 47        	li	a4, 0x0
   1b018: 01 46        	li	a2, 0x0
   1b01a: 46 89        	mv	s2, a7
   1b01c: 5d bd        	j	0x1aed2 <__addtf3+0x682>
   1b01e: 01 47        	li	a4, 0x0
   1b020: 4d bd        	j	0x1aed2 <__addtf3+0x682>
   1b022: 01 47        	li	a4, 0x0
   1b024: 01 46        	li	a2, 0x0
   1b026: 46 89        	mv	s2, a7
   1b028: 9a 89        	mv	s3, t1
   1b02a: 65 b5        	j	0x1aed2 <__addtf3+0x682>
   1b02c: e3 97 28 db  	bne	a7, s2, 0x1adda <__addtf3+0x58a>
   1b030: 61 b3        	j	0x1adb8 <__addtf3+0x568>
   1b032: e3 93 28 9b  	bne	a7, s2, 0x1a9d8 <__addtf3+0x188>
   1b036: 7d b4        	j	0x1aae4 <__addtf3+0x294>

000000000001b038 <__divtf3>:
   1b038: 1d 71        	addi	sp, sp, -0x60
   1b03a: 56 f4        	sd	s5, 0x28(sp)
   1b03c: 5e ec        	sd	s7, 0x18(sp)
   1b03e: 86 ec        	sd	ra, 0x58(sp)
   1b040: a2 e8        	sd	s0, 0x50(sp)
   1b042: a6 e4        	sd	s1, 0x48(sp)
   1b044: ca e0        	sd	s2, 0x40(sp)
   1b046: 4e fc        	sd	s3, 0x38(sp)
   1b048: 52 f8        	sd	s4, 0x30(sp)
   1b04a: 5a f0        	sd	s6, 0x20(sp)
   1b04c: 62 e8        	sd	s8, 0x10(sp)
   1b04e: 66 e4        	sd	s9, 0x8(sp)
   1b050: b2 8b        	mv	s7, a2
   1b052: b6 8a        	mv	s5, a3
   1b054: f3 29 20 00  	frrm	s3
   1b058: 21 67        	lui	a4, 0x8
   1b05a: 93 d7 05 03  	srli	a5, a1, 0x30
   1b05e: 7d 17        	addi	a4, a4, -0x1
   1b060: 13 94 05 01  	slli	s0, a1, 0x10
   1b064: f9 8f        	and	a5, a5, a4
   1b066: 81 29        	sext.w	s3, s3
   1b068: 41 80        	srli	s0, s0, 0x10
   1b06a: 13 da f5 03  	srli	s4, a1, 0x3f
   1b06e: 8d c7        	beqz	a5, 0x1b098 <__divtf3+0x60>
   1b070: aa 84        	mv	s1, a0
   1b072: 1b 88 07 00  	sext.w	a6, a5
   1b076: 63 81 e7 08  	beq	a5, a4, 0x1b0f8 <__divtf3+0xc0>
   1b07a: 75 91        	srli	a0, a0, 0x3d
   1b07c: 0e 04        	slli	s0, s0, 0x3
   1b07e: 05 47        	li	a4, 0x1
   1b080: 71 78        	lui	a6, 0xffffc
   1b082: 41 8d        	or	a0, a0, s0
   1b084: 4e 17        	slli	a4, a4, 0x33
   1b086: 05 08        	addi	a6, a6, 0x1
   1b088: 33 6b e5 00  	or	s6, a0, a4
   1b08c: 8e 04        	slli	s1, s1, 0x3
   1b08e: 33 8c 07 01  	add	s8, a5, a6
   1b092: 81 4c        	li	s9, 0x0
   1b094: 01 49        	li	s2, 0x0
   1b096: ad a8        	j	0x1b110 <__divtf3+0xd8>
   1b098: 33 6b 85 00  	or	s6, a0, s0
   1b09c: 2a 89        	mv	s2, a0
   1b09e: 63 0a 0b 0c  	beqz	s6, 0x1b172 <__divtf3+0x13a>
   1b0a2: 05 cc        	beqz	s0, 0x1b0da <__divtf3+0xa2>
   1b0a4: 22 85        	mv	a0, s0
   1b0a6: ef 10 d0 27  	jal	0x1cb22 <__clzdi2>
   1b0aa: 9b 07 05 00  	sext.w	a5, a0
   1b0ae: 13 8b 17 ff  	addi	s6, a5, -0xf
   1b0b2: 13 07 d0 03  	li	a4, 0x3d
   1b0b6: 9b 06 3b 00  	addiw	a3, s6, 0x3
   1b0ba: 3b 07 67 41  	subw	a4, a4, s6
   1b0be: 33 14 d4 00  	sll	s0, s0, a3
   1b0c2: 33 57 e9 00  	srl	a4, s2, a4
   1b0c6: 33 6b 87 00  	or	s6, a4, s0
   1b0ca: 33 14 d9 00  	sll	s0, s2, a3
   1b0ce: 71 78        	lui	a6, 0xffffc
   1b0d0: 45 08        	addi	a6, a6, 0x11
   1b0d2: 33 0c f8 40  	sub	s8, a6, a5
   1b0d6: a2 84        	mv	s1, s0
   1b0d8: 6d bf        	j	0x1b092 <__divtf3+0x5a>
   1b0da: ef 10 90 24  	jal	0x1cb22 <__clzdi2>
   1b0de: 9b 07 05 04  	addiw	a5, a0, 0x40
   1b0e2: 13 8b 17 ff  	addi	s6, a5, -0xf
   1b0e6: 13 07 c0 03  	li	a4, 0x3c
   1b0ea: e3 54 67 fd  	bge	a4, s6, 0x1b0b2 <__divtf3+0x7a>
   1b0ee: 1b 0b 3b fc  	addiw	s6, s6, -0x3d
   1b0f2: 33 1b 69 01  	sll	s6, s2, s6
   1b0f6: e1 bf        	j	0x1b0ce <__divtf3+0x96>
   1b0f8: 33 6b 85 00  	or	s6, a0, s0
   1b0fc: 63 0f 0b 06  	beqz	s6, 0x1b17a <__divtf3+0x142>
   1b100: 05 49        	li	s2, 0x1
   1b102: 3e 19        	slli	s2, s2, 0x2f
   1b104: 33 39 24 01  	sltu	s2, s0, s2
   1b108: 12 09        	slli	s2, s2, 0x4
   1b10a: 22 8b        	mv	s6, s0
   1b10c: 42 8c        	mv	s8, a6
   1b10e: 8d 4c        	li	s9, 0x3
   1b110: 21 66        	lui	a2, 0x8
   1b112: 13 d7 0a 03  	srli	a4, s5, 0x30
   1b116: fd 56        	li	a3, -0x1
   1b118: 7d 16        	addi	a2, a2, -0x1
   1b11a: 13 d4 06 01  	srli	s0, a3, 0x10
   1b11e: 71 8f        	and	a4, a4, a2
   1b120: 33 f4 8a 00  	and	s0, s5, s0
   1b124: 5e 85        	mv	a0, s7
   1b126: 93 da fa 03  	srli	s5, s5, 0x3f
   1b12a: 21 cf        	beqz	a4, 0x1b182 <__divtf3+0x14a>
   1b12c: 9b 07 07 00  	sext.w	a5, a4
   1b130: 63 06 c7 0a  	beq	a4, a2, 0x1b1dc <__divtf3+0x1a4>
   1b134: 0e 04        	slli	s0, s0, 0x3
   1b136: 93 d7 db 03  	srli	a5, s7, 0x3d
   1b13a: c1 8f        	or	a5, a5, s0
   1b13c: 05 44        	li	s0, 0x1
   1b13e: 4e 14        	slli	s0, s0, 0x33
   1b140: 5d 8c        	or	s0, s0, a5
   1b142: f1 77        	lui	a5, 0xffffc
   1b144: 85 07        	addi	a5, a5, 0x1
   1b146: 13 95 3b 00  	slli	a0, s7, 0x3
   1b14a: ba 97        	add	a5, a5, a4
   1b14c: 01 47        	li	a4, 0x0
   1b14e: 33 08 fc 40  	sub	a6, s8, a5
   1b152: 93 97 2c 00  	slli	a5, s9, 0x2
   1b156: d9 8f        	or	a5, a5, a4
   1b158: fd 17        	addi	a5, a5, -0x1
   1b15a: b9 46        	li	a3, 0xe
   1b15c: 33 46 5a 01  	xor	a2, s4, s5
   1b160: 63 e0 f6 0c  	bltu	a3, a5, 0x1b220 <__divtf3+0x1e8>
   1b164: f5 66        	lui	a3, 0x1d
   1b166: 8a 07        	slli	a5, a5, 0x2
   1b168: 93 86 46 51  	addi	a3, a3, 0x514
   1b16c: b6 97        	add	a5, a5, a3
   1b16e: 9c 43        	lw	a5, 0x0(a5)
   1b170: 82 87        	jr	a5
   1b172: 81 44        	li	s1, 0x0
   1b174: 01 4c        	li	s8, 0x0
   1b176: 85 4c        	li	s9, 0x1
   1b178: 31 bf        	j	0x1b094 <__divtf3+0x5c>
   1b17a: 81 44        	li	s1, 0x0
   1b17c: 42 8c        	mv	s8, a6
   1b17e: 89 4c        	li	s9, 0x2
   1b180: 11 bf        	j	0x1b094 <__divtf3+0x5c>
   1b182: b3 67 74 01  	or	a5, s0, s7
   1b186: a5 c7        	beqz	a5, 0x1b1ee <__divtf3+0x1b6>
   1b188: 1d c8        	beqz	s0, 0x1b1be <__divtf3+0x186>
   1b18a: 22 85        	mv	a0, s0
   1b18c: ef 10 70 19  	jal	0x1cb22 <__clzdi2>
   1b190: 01 25        	sext.w	a0, a0
   1b192: 93 07 15 ff  	addi	a5, a0, -0xf
   1b196: 13 07 d0 03  	li	a4, 0x3d
   1b19a: 9b 86 37 00  	addiw	a3, a5, 0x3
   1b19e: bb 07 f7 40  	subw	a5, a4, a5
   1b1a2: 33 14 d4 00  	sll	s0, s0, a3
   1b1a6: b3 d7 fb 00  	srl	a5, s7, a5
   1b1aa: 33 e7 87 00  	or	a4, a5, s0
   1b1ae: 33 94 db 00  	sll	s0, s7, a3
   1b1b2: f1 77        	lui	a5, 0xffffc
   1b1b4: c5 07        	addi	a5, a5, 0x11
   1b1b6: 89 8f        	sub	a5, a5, a0
   1b1b8: 22 85        	mv	a0, s0
   1b1ba: 3a 84        	mv	s0, a4
   1b1bc: 41 bf        	j	0x1b14c <__divtf3+0x114>
   1b1be: ef 10 50 16  	jal	0x1cb22 <__clzdi2>
   1b1c2: 1b 05 05 04  	addiw	a0, a0, 0x40
   1b1c6: 93 07 15 ff  	addi	a5, a0, -0xf
   1b1ca: 13 07 c0 03  	li	a4, 0x3c
   1b1ce: e3 54 f7 fc  	bge	a4, a5, 0x1b196 <__divtf3+0x15e>
   1b1d2: 9b 87 37 fc  	addiw	a5, a5, -0x3d
   1b1d6: 33 97 fb 00  	sll	a4, s7, a5
   1b1da: e1 bf        	j	0x1b1b2 <__divtf3+0x17a>
   1b1dc: 33 67 74 01  	or	a4, s0, s7
   1b1e0: 01 cf        	beqz	a4, 0x1b1f8 <__divtf3+0x1c0>
   1b1e2: c5 82        	srli	a3, a3, 0x11
   1b1e4: 0d 47        	li	a4, 0x3
   1b1e6: e3 e4 86 f6  	bltu	a3, s0, 0x1b14e <__divtf3+0x116>
   1b1ea: 41 49        	li	s2, 0x10
   1b1ec: 8d b7        	j	0x1b14e <__divtf3+0x116>
   1b1ee: 01 44        	li	s0, 0x0
   1b1f0: 01 45        	li	a0, 0x0
   1b1f2: 81 47        	li	a5, 0x0
   1b1f4: 05 47        	li	a4, 0x1
   1b1f6: a1 bf        	j	0x1b14e <__divtf3+0x116>
   1b1f8: 01 44        	li	s0, 0x0
   1b1fa: 01 45        	li	a0, 0x0
   1b1fc: 09 47        	li	a4, 0x2
   1b1fe: 81 bf        	j	0x1b14e <__divtf3+0x116>
   1b200: 56 86        	mv	a2, s5
   1b202: 8d 47        	li	a5, 0x3
   1b204: 63 01 f7 4a  	beq	a4, a5, 0x1b6a6 <__divtf3+0x66e>
   1b208: 85 47        	li	a5, 0x1
   1b20a: 63 05 f7 4a  	beq	a4, a5, 0x1b6b4 <__divtf3+0x67c>
   1b20e: 89 47        	li	a5, 0x2
   1b210: 63 1c f7 24  	bne	a4, a5, 0x1b468 <__divtf3+0x430>
   1b214: 69 ac        	j	0x1b4ae <__divtf3+0x476>
   1b216: 52 86        	mv	a2, s4
   1b218: 5a 84        	mv	s0, s6
   1b21a: 26 85        	mv	a0, s1
   1b21c: 66 87        	mv	a4, s9
   1b21e: d5 b7        	j	0x1b202 <__divtf3+0x1ca>
   1b220: 63 66 64 01  	bltu	s0, s6, 0x1b22c <__divtf3+0x1f4>
   1b224: 63 10 8b 28  	bne	s6, s0, 0x1b4a4 <__divtf3+0x46c>
   1b228: 63 ee a4 26  	bltu	s1, a0, 0x1b4a4 <__divtf3+0x46c>
   1b22c: 13 17 fb 03  	slli	a4, s6, 0x3f
   1b230: 93 d7 14 00  	srli	a5, s1, 0x1
   1b234: 93 9e f4 03  	slli	t4, s1, 0x3f
   1b238: 13 5b 1b 00  	srli	s6, s6, 0x1
   1b23c: b3 64 f7 00  	or	s1, a4, a5
   1b240: 93 15 c4 00  	slli	a1, s0, 0xc
   1b244: 93 57 45 03  	srli	a5, a0, 0x34
   1b248: cd 8f        	or	a5, a5, a1
   1b24a: 81 91        	srli	a1, a1, 0x20
   1b24c: 33 5e bb 02  	divu	t3, s6, a1
   1b250: 93 16 c5 00  	slli	a3, a0, 0xc
   1b254: 93 98 07 02  	slli	a7, a5, 0x20
   1b258: 93 d8 08 02  	srli	a7, a7, 0x20
   1b25c: 13 d7 04 02  	srli	a4, s1, 0x20
   1b260: 33 75 bb 02  	remu	a0, s6, a1
   1b264: 33 83 c8 03  	mul	t1, a7, t3
   1b268: 02 15        	slli	a0, a0, 0x20
   1b26a: 49 8f        	or	a4, a4, a0
   1b26c: 72 85        	mv	a0, t3
   1b26e: 63 7c 67 00  	bgeu	a4, t1, 0x1b286 <__divtf3+0x24e>
   1b272: 3e 97        	add	a4, a4, a5
   1b274: 13 05 fe ff  	addi	a0, t3, -0x1
   1b278: 63 67 f7 00  	bltu	a4, a5, 0x1b286 <__divtf3+0x24e>
   1b27c: 63 75 67 00  	bgeu	a4, t1, 0x1b286 <__divtf3+0x24e>
   1b280: 13 05 ee ff  	addi	a0, t3, -0x2
   1b284: 3e 97        	add	a4, a4, a5
   1b286: 33 07 67 40  	sub	a4, a4, t1
   1b28a: 33 5e b7 02  	divu	t3, a4, a1
   1b28e: 82 14        	slli	s1, s1, 0x20
   1b290: 81 90        	srli	s1, s1, 0x20
   1b292: 33 77 b7 02  	remu	a4, a4, a1
   1b296: 33 83 c8 03  	mul	t1, a7, t3
   1b29a: 02 17        	slli	a4, a4, 0x20
   1b29c: d9 8c        	or	s1, s1, a4
   1b29e: 72 87        	mv	a4, t3
   1b2a0: 63 fc 64 00  	bgeu	s1, t1, 0x1b2b8 <__divtf3+0x280>
   1b2a4: be 94        	add	s1, s1, a5
   1b2a6: 13 07 fe ff  	addi	a4, t3, -0x1
   1b2aa: 63 e7 f4 00  	bltu	s1, a5, 0x1b2b8 <__divtf3+0x280>
   1b2ae: 63 f5 64 00  	bgeu	s1, t1, 0x1b2b8 <__divtf3+0x280>
   1b2b2: 13 07 ee ff  	addi	a4, t3, -0x2
   1b2b6: be 94        	add	s1, s1, a5
   1b2b8: b3 84 64 40  	sub	s1, s1, t1
   1b2bc: 02 15        	slli	a0, a0, 0x20
   1b2be: 7d 53        	li	t1, -0x1
   1b2c0: 59 8d        	or	a0, a0, a4
   1b2c2: 13 53 03 02  	srli	t1, t1, 0x20
   1b2c6: 33 77 65 00  	and	a4, a0, t1
   1b2ca: 13 5f 05 02  	srli	t5, a0, 0x20
   1b2ce: 13 de 06 02  	srli	t3, a3, 0x20
   1b2d2: 33 f3 66 00  	and	t1, a3, t1
   1b2d6: b3 02 67 02  	mul	t0, a4, t1
   1b2da: b3 03 6f 02  	mul	t2, t5, t1
   1b2de: 33 07 ee 02  	mul	a4, t3, a4
   1b2e2: b3 0f 77 00  	add	t6, a4, t2
   1b2e6: 13 d7 02 02  	srli	a4, t0, 0x20
   1b2ea: 7e 97        	add	a4, a4, t6
   1b2ec: 33 0f cf 03  	mul	t5, t5, t3
   1b2f0: 63 75 77 00  	bgeu	a4, t2, 0x1b2fa <__divtf3+0x2c2>
   1b2f4: 85 4f        	li	t6, 0x1
   1b2f6: 82 1f        	slli	t6, t6, 0x20
   1b2f8: 7e 9f        	add	t5, t5, t6
   1b2fa: 93 5f 07 02  	srli	t6, a4, 0x20
   1b2fe: fa 9f        	add	t6, t6, t5
   1b300: 7d 5f        	li	t5, -0x1
   1b302: 13 5f 0f 02  	srli	t5, t5, 0x20
   1b306: 33 77 e7 01  	and	a4, a4, t5
   1b30a: 02 17        	slli	a4, a4, 0x20
   1b30c: b3 f2 e2 01  	and	t0, t0, t5
   1b310: 16 97        	add	a4, a4, t0
   1b312: 63 e7 f4 01  	bltu	s1, t6, 0x1b320 <__divtf3+0x2e8>
   1b316: 2a 84        	mv	s0, a0
   1b318: 63 92 f4 05  	bne	s1, t6, 0x1b35c <__divtf3+0x324>
   1b31c: 63 f0 ee 04  	bgeu	t4, a4, 0x1b35c <__divtf3+0x324>
   1b320: 33 8f de 00  	add	t5, t4, a3
   1b324: b3 32 df 01  	sltu	t0, t5, t4
   1b328: b3 83 f2 00  	add	t2, t0, a5
   1b32c: 9e 94        	add	s1, s1, t2
   1b32e: 13 04 f5 ff  	addi	s0, a0, -0x1
   1b332: fa 8e        	mv	t4, t5
   1b334: 63 e6 97 00  	bltu	a5, s1, 0x1b340 <__divtf3+0x308>
   1b338: 63 92 97 02  	bne	a5, s1, 0x1b35c <__divtf3+0x324>
   1b33c: 63 90 02 02  	bnez	t0, 0x1b35c <__divtf3+0x324>
   1b340: 63 e6 f4 01  	bltu	s1, t6, 0x1b34c <__divtf3+0x314>
   1b344: 63 9c 9f 00  	bne	t6, s1, 0x1b35c <__divtf3+0x324>
   1b348: 63 7a ef 00  	bgeu	t5, a4, 0x1b35c <__divtf3+0x324>
   1b34c: 36 9f        	add	t5, t5, a3
   1b34e: 13 04 e5 ff  	addi	s0, a0, -0x2
   1b352: 33 35 df 00  	sltu	a0, t5, a3
   1b356: 3e 95        	add	a0, a0, a5
   1b358: fa 8e        	mv	t4, t5
   1b35a: aa 94        	add	s1, s1, a0
   1b35c: 33 8f ee 40  	sub	t5, t4, a4
   1b360: b3 84 f4 41  	sub	s1, s1, t6
   1b364: b3 be ee 01  	sltu	t4, t4, t5
   1b368: b3 84 d4 41  	sub	s1, s1, t4
   1b36c: 7d 55        	li	a0, -0x1
   1b36e: 63 8d 97 0e  	beq	a5, s1, 0x1b468 <__divtf3+0x430>
   1b372: b3 df b4 02  	divu	t6, s1, a1
   1b376: 13 57 0f 02  	srli	a4, t5, 0x20
   1b37a: b3 f4 b4 02  	remu	s1, s1, a1
   1b37e: 7e 85        	mv	a0, t6
   1b380: b3 8e f8 03  	mul	t4, a7, t6
   1b384: 82 14        	slli	s1, s1, 0x20
   1b386: 45 8f        	or	a4, a4, s1
   1b388: 63 7c d7 01  	bgeu	a4, t4, 0x1b3a0 <__divtf3+0x368>
   1b38c: 3e 97        	add	a4, a4, a5
   1b38e: 13 85 ff ff  	addi	a0, t6, -0x1
   1b392: 63 67 f7 00  	bltu	a4, a5, 0x1b3a0 <__divtf3+0x368>
   1b396: 63 75 d7 01  	bgeu	a4, t4, 0x1b3a0 <__divtf3+0x368>
   1b39a: 13 85 ef ff  	addi	a0, t6, -0x2
   1b39e: 3e 97        	add	a4, a4, a5
   1b3a0: 33 07 d7 41  	sub	a4, a4, t4
   1b3a4: b3 5f b7 02  	divu	t6, a4, a1
   1b3a8: 33 77 b7 02  	remu	a4, a4, a1
   1b3ac: 93 15 0f 02  	slli	a1, t5, 0x20
   1b3b0: 81 91        	srli	a1, a1, 0x20
   1b3b2: fe 8e        	mv	t4, t6
   1b3b4: b3 88 f8 03  	mul	a7, a7, t6
   1b3b8: 02 17        	slli	a4, a4, 0x20
   1b3ba: 4d 8f        	or	a4, a4, a1
   1b3bc: 63 7c 17 01  	bgeu	a4, a7, 0x1b3d4 <__divtf3+0x39c>
   1b3c0: 3e 97        	add	a4, a4, a5
   1b3c2: 93 8e ff ff  	addi	t4, t6, -0x1
   1b3c6: 63 67 f7 00  	bltu	a4, a5, 0x1b3d4 <__divtf3+0x39c>
   1b3ca: 63 75 17 01  	bgeu	a4, a7, 0x1b3d4 <__divtf3+0x39c>
   1b3ce: 93 8e ef ff  	addi	t4, t6, -0x2
   1b3d2: 3e 97        	add	a4, a4, a5
   1b3d4: 93 15 05 02  	slli	a1, a0, 0x20
   1b3d8: b3 e5 d5 01  	or	a1, a1, t4
   1b3dc: 33 07 17 41  	sub	a4, a4, a7
   1b3e0: 93 98 05 02  	slli	a7, a1, 0x20
   1b3e4: 93 de 05 02  	srli	t4, a1, 0x20
   1b3e8: 93 d8 08 02  	srli	a7, a7, 0x20
   1b3ec: 33 85 6e 02  	mul	a0, t4, t1
   1b3f0: 33 0f 13 03  	mul	t5, t1, a7
   1b3f4: b3 0e de 03  	mul	t4, t3, t4
   1b3f8: 13 53 0f 02  	srli	t1, t5, 0x20
   1b3fc: 33 0e 1e 03  	mul	t3, t3, a7
   1b400: 2a 9e        	add	t3, t3, a0
   1b402: 72 93        	add	t1, t1, t3
   1b404: 63 75 a3 00  	bgeu	t1, a0, 0x1b40e <__divtf3+0x3d6>
   1b408: 05 45        	li	a0, 0x1
   1b40a: 02 15        	slli	a0, a0, 0x20
   1b40c: aa 9e        	add	t4, t4, a0
   1b40e: 7d 55        	li	a0, -0x1
   1b410: 01 91        	srli	a0, a0, 0x20
   1b412: 93 58 03 02  	srli	a7, t1, 0x20
   1b416: 33 73 a3 00  	and	t1, t1, a0
   1b41a: 02 13        	slli	t1, t1, 0x20
   1b41c: 33 7f af 00  	and	t5, t5, a0
   1b420: f6 98        	add	a7, a7, t4
   1b422: 7a 93        	add	t1, t1, t5
   1b424: 63 67 17 01  	bltu	a4, a7, 0x1b432 <__divtf3+0x3fa>
   1b428: 63 1a 17 29  	bne	a4, a7, 0x1b6bc <__divtf3+0x684>
   1b42c: 2e 85        	mv	a0, a1
   1b42e: 63 0d 03 02  	beqz	t1, 0x1b468 <__divtf3+0x430>
   1b432: 3e 97        	add	a4, a4, a5
   1b434: 13 85 f5 ff  	addi	a0, a1, -0x1
   1b438: 3a 8e        	mv	t3, a4
   1b43a: 63 61 f7 02  	bltu	a4, a5, 0x1b45c <__divtf3+0x424>
   1b43e: 63 66 17 01  	bltu	a4, a7, 0x1b44a <__divtf3+0x412>
   1b442: 63 1c 17 27  	bne	a4, a7, 0x1b6ba <__divtf3+0x682>
   1b446: 63 fd 66 00  	bgeu	a3, t1, 0x1b460 <__divtf3+0x428>
   1b44a: 13 85 e5 ff  	addi	a0, a1, -0x2
   1b44e: 93 95 16 00  	slli	a1, a3, 0x1
   1b452: 33 be d5 00  	sltu	t3, a1, a3
   1b456: 3e 9e        	add	t3, t3, a5
   1b458: 3a 9e        	add	t3, t3, a4
   1b45a: ae 86        	mv	a3, a1
   1b45c: 63 14 1e 01  	bne	t3, a7, 0x1b464 <__divtf3+0x42c>
   1b460: 63 04 d3 00  	beq	t1, a3, 0x1b468 <__divtf3+0x430>
   1b464: 13 65 15 00  	ori	a0, a0, 0x1
   1b468: 11 67        	lui	a4, 0x4
   1b46a: 7d 17        	addi	a4, a4, -0x1
   1b46c: 42 97        	add	a4, a4, a6
   1b46e: 63 54 e0 0e  	blez	a4, 0x1b556 <__divtf3+0x51e>
   1b472: 93 77 75 00  	andi	a5, a0, 0x7
   1b476: a1 cf        	beqz	a5, 0x1b4ce <__divtf3+0x496>
   1b478: 89 47        	li	a5, 0x2
   1b47a: 13 69 19 00  	ori	s2, s2, 0x1
   1b47e: 63 87 f9 04  	beq	s3, a5, 0x1b4cc <__divtf3+0x494>
   1b482: 8d 47        	li	a5, 0x3
   1b484: 63 80 f9 04  	beq	s3, a5, 0x1b4c4 <__divtf3+0x48c>
   1b488: 63 93 09 04  	bnez	s3, 0x1b4ce <__divtf3+0x496>
   1b48c: 93 77 f5 00  	andi	a5, a0, 0xf
   1b490: 91 46        	li	a3, 0x4
   1b492: 63 8e d7 02  	beq	a5, a3, 0x1b4ce <__divtf3+0x496>
   1b496: 93 07 45 00  	addi	a5, a0, 0x4
   1b49a: b3 b6 a7 00  	sltu	a3, a5, a0
   1b49e: 36 94        	add	s0, s0, a3
   1b4a0: 3e 85        	mv	a0, a5
   1b4a2: 35 a0        	j	0x1b4ce <__divtf3+0x496>
   1b4a4: 7d 18        	addi	a6, a6, -0x1
   1b4a6: 81 4e        	li	t4, 0x0
   1b4a8: 61 bb        	j	0x1b240 <__divtf3+0x208>
   1b4aa: 13 69 89 00  	ori	s2, s2, 0x8
   1b4ae: 21 67        	lui	a4, 0x8
   1b4b0: 81 47        	li	a5, 0x0
   1b4b2: 01 45        	li	a0, 0x0
   1b4b4: 7d 17        	addi	a4, a4, -0x1
   1b4b6: 91 a0        	j	0x1b4fa <__divtf3+0x4c2>
   1b4b8: 05 44        	li	s0, 0x1
   1b4ba: 3e 14        	slli	s0, s0, 0x2f
   1b4bc: 01 45        	li	a0, 0x0
   1b4be: 01 46        	li	a2, 0x0
   1b4c0: 0d 47        	li	a4, 0x3
   1b4c2: 81 b3        	j	0x1b202 <__divtf3+0x1ca>
   1b4c4: 09 e6        	bnez	a2, 0x1b4ce <__divtf3+0x496>
   1b4c6: 93 07 85 00  	addi	a5, a0, 0x8
   1b4ca: c1 bf        	j	0x1b49a <__divtf3+0x462>
   1b4cc: 6d fe        	bnez	a2, 0x1b4c6 <__divtf3+0x48e>
   1b4ce: 93 17 b4 00  	slli	a5, s0, 0xb
   1b4d2: 63 d8 07 00  	bgez	a5, 0x1b4e2 <__divtf3+0x4aa>
   1b4d6: fd 57        	li	a5, -0x1
   1b4d8: d2 17        	slli	a5, a5, 0x34
   1b4da: fd 17        	addi	a5, a5, -0x1
   1b4dc: 11 67        	lui	a4, 0x4
   1b4de: 7d 8c        	and	s0, s0, a5
   1b4e0: 42 97        	add	a4, a4, a6
   1b4e2: a1 67        	lui	a5, 0x8
   1b4e4: f9 17        	addi	a5, a5, -0x2
   1b4e6: a1 66        	lui	a3, 0x8
   1b4e8: 63 c2 e7 04  	blt	a5, a4, 0x1b52c <__divtf3+0x4f4>
   1b4ec: 93 57 35 00  	srli	a5, a0, 0x3
   1b4f0: 13 15 d4 03  	slli	a0, s0, 0x3d
   1b4f4: 5d 8d        	or	a0, a0, a5
   1b4f6: 93 57 34 00  	srli	a5, s0, 0x3
   1b4fa: 1b 16 f6 00  	slliw	a2, a2, 0xf
   1b4fe: 93 95 07 01  	slli	a1, a5, 0x10
   1b502: 51 8f        	or	a4, a4, a2
   1b504: 42 17        	slli	a4, a4, 0x30
   1b506: c1 81        	srli	a1, a1, 0x10
   1b508: d9 8d        	or	a1, a1, a4
   1b50a: 63 04 09 00  	beqz	s2, 0x1b512 <__divtf3+0x4da>
   1b50e: 73 20 19 00  	csrs	fflags, s2
   1b512: e6 60        	ld	ra, 0x58(sp)
   1b514: 46 64        	ld	s0, 0x50(sp)
   1b516: a6 64        	ld	s1, 0x48(sp)
   1b518: 06 69        	ld	s2, 0x40(sp)
   1b51a: e2 79        	ld	s3, 0x38(sp)
   1b51c: 42 7a        	ld	s4, 0x30(sp)
   1b51e: a2 7a        	ld	s5, 0x28(sp)
   1b520: 02 7b        	ld	s6, 0x20(sp)
   1b522: e2 6b        	ld	s7, 0x18(sp)
   1b524: 42 6c        	ld	s8, 0x10(sp)
   1b526: a2 6c        	ld	s9, 0x8(sp)
   1b528: 25 61        	addi	sp, sp, 0x60
   1b52a: 82 80        	ret
   1b52c: 09 47        	li	a4, 0x2
   1b52e: 63 82 e9 02  	beq	s3, a4, 0x1b552 <__divtf3+0x51a>
   1b532: 0d 47        	li	a4, 0x3
   1b534: 63 88 e9 00  	beq	s3, a4, 0x1b544 <__divtf3+0x50c>
   1b538: 63 97 09 00  	bnez	s3, 0x1b546 <__divtf3+0x50e>
   1b53c: 01 45        	li	a0, 0x0
   1b53e: 13 87 f6 ff  	addi	a4, a3, -0x1
   1b542: 21 a0        	j	0x1b54a <__divtf3+0x512>
   1b544: 65 de        	beqz	a2, 0x1b53c <__divtf3+0x504>
   1b546: 7d 55        	li	a0, -0x1
   1b548: 3e 87        	mv	a4, a5
   1b54a: 13 69 59 00  	ori	s2, s2, 0x5
   1b54e: aa 87        	mv	a5, a0
   1b550: 6d b7        	j	0x1b4fa <__divtf3+0x4c2>
   1b552: 6d f6        	bnez	a2, 0x1b53c <__divtf3+0x504>
   1b554: cd bf        	j	0x1b546 <__divtf3+0x50e>
   1b556: 85 45        	li	a1, 0x1
   1b558: 21 e7        	bnez	a4, 0x1b5a0 <__divtf3+0x568>
   1b55a: 93 76 75 00  	andi	a3, a0, 0x7
   1b55e: a2 87        	mv	a5, s0
   1b560: 9d ca        	beqz	a3, 0x1b596 <__divtf3+0x55e>
   1b562: 89 46        	li	a3, 0x2
   1b564: 13 69 19 00  	ori	s2, s2, 0x1
   1b568: 63 86 d9 02  	beq	s3, a3, 0x1b594 <__divtf3+0x55c>
   1b56c: 8d 46        	li	a3, 0x3
   1b56e: 63 8f d9 00  	beq	s3, a3, 0x1b58c <__divtf3+0x554>
   1b572: 63 92 09 02  	bnez	s3, 0x1b596 <__divtf3+0x55e>
   1b576: 93 76 f5 00  	andi	a3, a0, 0xf
   1b57a: 91 45        	li	a1, 0x4
   1b57c: 63 8d b6 00  	beq	a3, a1, 0x1b596 <__divtf3+0x55e>
   1b580: 93 37 c5 ff  	sltiu	a5, a0, -0x4
   1b584: 93 c7 17 00  	xori	a5, a5, 0x1
   1b588: a2 97        	add	a5, a5, s0
   1b58a: 31 a0        	j	0x1b596 <__divtf3+0x55e>
   1b58c: 09 e6        	bnez	a2, 0x1b596 <__divtf3+0x55e>
   1b58e: 93 37 85 ff  	sltiu	a5, a0, -0x8
   1b592: cd bf        	j	0x1b584 <__divtf3+0x54c>
   1b594: 6d fe        	bnez	a2, 0x1b58e <__divtf3+0x556>
   1b596: d1 93        	srli	a5, a5, 0x34
   1b598: 93 c7 17 00  	xori	a5, a5, 0x1
   1b59c: 93 f5 17 00  	andi	a1, a5, 0x1
   1b5a0: 05 48        	li	a6, 0x1
   1b5a2: 33 08 e8 40  	sub	a6, a6, a4
   1b5a6: 93 07 40 07  	li	a5, 0x74
   1b5aa: 63 c2 07 0d  	blt	a5, a6, 0x1b66e <__divtf3+0x636>
   1b5ae: 13 07 f0 03  	li	a4, 0x3f
   1b5b2: 9b 07 08 00  	sext.w	a5, a6
   1b5b6: 63 4b 07 05  	blt	a4, a6, 0x1b60c <__divtf3+0x5d4>
   1b5ba: 93 06 00 04  	li	a3, 0x40
   1b5be: 9d 9e        	subw	a3, a3, a5
   1b5c0: 33 17 d4 00  	sll	a4, s0, a3
   1b5c4: 33 58 f5 00  	srl	a6, a0, a5
   1b5c8: b3 16 d5 00  	sll	a3, a0, a3
   1b5cc: 33 67 07 01  	or	a4, a4, a6
   1b5d0: b3 36 d0 00  	snez	a3, a3
   1b5d4: 55 8f        	or	a4, a4, a3
   1b5d6: b3 57 f4 00  	srl	a5, s0, a5
   1b5da: 93 76 77 00  	andi	a3, a4, 0x7
   1b5de: a5 c2        	beqz	a3, 0x1b63e <__divtf3+0x606>
   1b5e0: 89 46        	li	a3, 0x2
   1b5e2: 13 69 19 00  	ori	s2, s2, 0x1
   1b5e6: 63 8b d9 04  	beq	s3, a3, 0x1b63c <__divtf3+0x604>
   1b5ea: 8d 46        	li	a3, 0x3
   1b5ec: 63 84 d9 04  	beq	s3, a3, 0x1b634 <__divtf3+0x5fc>
   1b5f0: 63 97 09 04  	bnez	s3, 0x1b63e <__divtf3+0x606>
   1b5f4: 93 76 f7 00  	andi	a3, a4, 0xf
   1b5f8: 11 45        	li	a0, 0x4
   1b5fa: 63 82 a6 04  	beq	a3, a0, 0x1b63e <__divtf3+0x606>
   1b5fe: 93 06 47 00  	addi	a3, a4, 0x4
   1b602: 33 b5 e6 00  	sltu	a0, a3, a4
   1b606: aa 97        	add	a5, a5, a0
   1b608: 36 87        	mv	a4, a3
   1b60a: 15 a8        	j	0x1b63e <__divtf3+0x606>
   1b60c: 1b 87 07 fc  	addiw	a4, a5, -0x40
   1b610: 93 08 00 04  	li	a7, 0x40
   1b614: 33 57 e4 00  	srl	a4, s0, a4
   1b618: 81 46        	li	a3, 0x0
   1b61a: 63 07 18 01  	beq	a6, a7, 0x1b628 <__divtf3+0x5f0>
   1b61e: 93 06 00 08  	li	a3, 0x80
   1b622: 9d 9e        	subw	a3, a3, a5
   1b624: b3 16 d4 00  	sll	a3, s0, a3
   1b628: c9 8e        	or	a3, a3, a0
   1b62a: b3 36 d0 00  	snez	a3, a3
   1b62e: 55 8f        	or	a4, a4, a3
   1b630: 81 47        	li	a5, 0x0
   1b632: 65 b7        	j	0x1b5da <__divtf3+0x5a2>
   1b634: 09 e6        	bnez	a2, 0x1b63e <__divtf3+0x606>
   1b636: 93 06 87 00  	addi	a3, a4, 0x8
   1b63a: e1 b7        	j	0x1b602 <__divtf3+0x5ca>
   1b63c: 6d fe        	bnez	a2, 0x1b636 <__divtf3+0x5fe>
   1b63e: 93 96 c7 00  	slli	a3, a5, 0xc
   1b642: 63 df 06 00  	bgez	a3, 0x1b660 <__divtf3+0x628>
   1b646: 13 69 19 00  	ori	s2, s2, 0x1
   1b64a: 81 47        	li	a5, 0x0
   1b64c: 01 45        	li	a0, 0x0
   1b64e: 05 47        	li	a4, 0x1
   1b650: e3 85 05 ea  	beqz	a1, 0x1b4fa <__divtf3+0x4c2>
   1b654: 93 76 19 00  	andi	a3, s2, 0x1
   1b658: 86 06        	slli	a3, a3, 0x1
   1b65a: 33 e9 26 01  	or	s2, a3, s2
   1b65e: 71 bd        	j	0x1b4fa <__divtf3+0x4c2>
   1b660: 0d 83        	srli	a4, a4, 0x3
   1b662: 13 95 d7 03  	slli	a0, a5, 0x3d
   1b666: 59 8d        	or	a0, a0, a4
   1b668: 8d 83        	srli	a5, a5, 0x3
   1b66a: 01 47        	li	a4, 0x0
   1b66c: d5 b7        	j	0x1b650 <__divtf3+0x618>
   1b66e: 41 8d        	or	a0, a0, s0
   1b670: 11 cd        	beqz	a0, 0x1b68c <__divtf3+0x654>
   1b672: 89 47        	li	a5, 0x2
   1b674: 13 69 19 00  	ori	s2, s2, 0x1
   1b678: 63 83 f9 02  	beq	s3, a5, 0x1b69e <__divtf3+0x666>
   1b67c: 8d 47        	li	a5, 0x3
   1b67e: 63 8c f9 00  	beq	s3, a5, 0x1b696 <__divtf3+0x65e>
   1b682: 05 45        	li	a0, 0x1
   1b684: 63 93 09 00  	bnez	s3, 0x1b68a <__divtf3+0x652>
   1b688: 15 45        	li	a0, 0x5
   1b68a: 0d 81        	srli	a0, a0, 0x3
   1b68c: 13 69 29 00  	ori	s2, s2, 0x2
   1b690: 81 47        	li	a5, 0x0
   1b692: 01 47        	li	a4, 0x0
   1b694: 9d b5        	j	0x1b4fa <__divtf3+0x4c2>
   1b696: 25 45        	li	a0, 0x9
   1b698: 6d da        	beqz	a2, 0x1b68a <__divtf3+0x652>
   1b69a: 05 45        	li	a0, 0x1
   1b69c: fd b7        	j	0x1b68a <__divtf3+0x652>
   1b69e: 25 45        	li	a0, 0x9
   1b6a0: 6d f6        	bnez	a2, 0x1b68a <__divtf3+0x652>
   1b6a2: e5 bf        	j	0x1b69a <__divtf3+0x662>
   1b6a4: 41 49        	li	s2, 0x10
   1b6a6: 85 47        	li	a5, 0x1
   1b6a8: 21 67        	lui	a4, 0x8
   1b6aa: be 17        	slli	a5, a5, 0x2f
   1b6ac: 01 45        	li	a0, 0x0
   1b6ae: 7d 17        	addi	a4, a4, -0x1
   1b6b0: 01 46        	li	a2, 0x0
   1b6b2: a1 b5        	j	0x1b4fa <__divtf3+0x4c2>
   1b6b4: 81 47        	li	a5, 0x0
   1b6b6: 01 45        	li	a0, 0x0
   1b6b8: e9 bf        	j	0x1b692 <__divtf3+0x65a>
   1b6ba: aa 85        	mv	a1, a0
   1b6bc: 2e 85        	mv	a0, a1
   1b6be: 5d b3        	j	0x1b464 <__divtf3+0x42c>

000000000001b6c0 <__netf2>:
   1b6c0: 2a 88        	mv	a6, a0
   1b6c2: f3 27 20 00  	frrm	a5
   1b6c6: 21 65        	lui	a0, 0x8
   1b6c8: 13 d7 05 03  	srli	a4, a1, 0x30
   1b6cc: 7d 15        	addi	a0, a0, -0x1
   1b6ce: 7d 5e        	li	t3, -0x1
   1b6d0: 93 58 0e 01  	srli	a7, t3, 0x10
   1b6d4: 13 d3 06 03  	srli	t1, a3, 0x30
   1b6d8: 69 8f        	and	a4, a4, a0
   1b6da: b3 f7 15 01  	and	a5, a1, a7
   1b6de: 33 73 a3 00  	and	t1, t1, a0
   1b6e2: b3 f8 16 01  	and	a7, a3, a7
   1b6e6: fd 91        	srli	a1, a1, 0x3f
   1b6e8: fd 92        	srli	a3, a3, 0x3f
   1b6ea: 63 18 a7 00  	bne	a4, a0, 0x1b6fa <__netf2+0x3a>
   1b6ee: 33 e5 07 01  	or	a0, a5, a6
   1b6f2: 05 e9        	bnez	a0, 0x1b722 <__netf2+0x62>
   1b6f4: 63 16 e3 04  	bne	t1, a4, 0x1b740 <__netf2+0x80>
   1b6f8: 19 a0        	j	0x1b6fe <__netf2+0x3e>
   1b6fa: 63 15 a3 04  	bne	t1, a0, 0x1b744 <__netf2+0x84>
   1b6fe: 33 e5 c8 00  	or	a0, a7, a2
   1b702: 29 c1        	beqz	a0, 0x1b744 <__netf2+0x84>
   1b704: a1 66        	lui	a3, 0x8
   1b706: fd 16        	addi	a3, a3, -0x1
   1b708: 63 18 d7 02  	bne	a4, a3, 0x1b738 <__netf2+0x78>
   1b70c: 33 e8 07 01  	or	a6, a5, a6
   1b710: 63 00 08 02  	beqz	a6, 0x1b730 <__netf2+0x70>
   1b714: 7d 57        	li	a4, -0x1
   1b716: 45 83        	srli	a4, a4, 0x11
   1b718: 63 6c f7 00  	bltu	a4, a5, 0x1b730 <__netf2+0x70>
   1b71c: 73 60 18 00  	csrsi	fflags, 0x10
   1b720: 05 a0        	j	0x1b740 <__netf2+0x80>
   1b722: 13 5e 1e 01  	srli	t3, t3, 0x11
   1b726: e3 7b fe fe  	bgeu	t3, a5, 0x1b71c <__netf2+0x5c>
   1b72a: 05 45        	li	a0, 0x1
   1b72c: 63 1d e3 02  	bne	t1, a4, 0x1b766 <__netf2+0xa6>
   1b730: 33 e6 c8 00  	or	a2, a7, a2
   1b734: 05 45        	li	a0, 0x1
   1b736: 05 ca        	beqz	a2, 0x1b766 <__netf2+0xa6>
   1b738: fd 57        	li	a5, -0x1
   1b73a: c5 83        	srli	a5, a5, 0x11
   1b73c: e3 f0 17 ff  	bgeu	a5, a7, 0x1b71c <__netf2+0x5c>
   1b740: 05 45        	li	a0, 0x1
   1b742: 82 80        	ret
   1b744: 05 45        	li	a0, 0x1
   1b746: 63 10 67 02  	bne	a4, t1, 0x1b766 <__netf2+0xa6>
   1b74a: 63 9e 17 01  	bne	a5, a7, 0x1b766 <__netf2+0xa6>
   1b74e: 63 1c c8 00  	bne	a6, a2, 0x1b766 <__netf2+0xa6>
   1b752: 63 88 d5 00  	beq	a1, a3, 0x1b762 <__netf2+0xa2>
   1b756: 01 eb        	bnez	a4, 0x1b766 <__netf2+0xa6>
   1b758: b3 e7 07 01  	or	a5, a5, a6
   1b75c: 33 35 f0 00  	snez	a0, a5
   1b760: 82 80        	ret
   1b762: 01 45        	li	a0, 0x0
   1b764: 82 80        	ret
   1b766: 82 80        	ret

000000000001b768 <__gttf2>:
   1b768: aa 88        	mv	a7, a0
   1b76a: f3 27 20 00  	frrm	a5
   1b76e: 21 63        	lui	t1, 0x8
   1b770: 13 d8 05 03  	srli	a6, a1, 0x30
   1b774: 7d 13        	addi	t1, t1, -0x1
   1b776: 7d 57        	li	a4, -0x1
   1b778: 41 83        	srli	a4, a4, 0x10
   1b77a: 93 d7 06 03  	srli	a5, a3, 0x30
   1b77e: 33 78 68 00  	and	a6, a6, t1
   1b782: 33 fe e5 00  	and	t3, a1, a4
   1b786: 33 f5 67 00  	and	a0, a5, t1
   1b78a: 75 8f        	and	a4, a4, a3
   1b78c: fd 91        	srli	a1, a1, 0x3f
   1b78e: fd 92        	srli	a3, a3, 0x3f
   1b790: 63 15 68 00  	bne	a6, t1, 0x1b79a <__gttf2+0x32>
   1b794: b3 67 1e 01  	or	a5, t3, a7
   1b798: b1 eb        	bnez	a5, 0x1b7ec <__gttf2+0x84>
   1b79a: 63 15 65 00  	bne	a0, t1, 0x1b7a4 <__gttf2+0x3c>
   1b79e: b3 67 c7 00  	or	a5, a4, a2
   1b7a2: a9 e7        	bnez	a5, 0x1b7ec <__gttf2+0x84>
   1b7a4: 81 47        	li	a5, 0x0
   1b7a6: 63 16 08 00  	bnez	a6, 0x1b7b2 <__gttf2+0x4a>
   1b7aa: b3 67 1e 01  	or	a5, t3, a7
   1b7ae: 93 b7 17 00  	seqz	a5, a5
   1b7b2: 29 e1        	bnez	a0, 0x1b7f4 <__gttf2+0x8c>
   1b7b4: 33 63 c7 00  	or	t1, a4, a2
   1b7b8: 99 c7        	beqz	a5, 0x1b7c6 <__gttf2+0x5e>
   1b7ba: 63 0a 03 00  	beqz	t1, 0x1b7ce <__gttf2+0x66>
   1b7be: 05 45        	li	a0, 0x1
   1b7c0: 99 e6        	bnez	a3, 0x1b7ce <__gttf2+0x66>
   1b7c2: 7d 55        	li	a0, -0x1
   1b7c4: 82 80        	ret
   1b7c6: 63 18 03 02  	bnez	t1, 0x1b7f6 <__gttf2+0x8e>
   1b7ca: 7d 55        	li	a0, -0x1
   1b7cc: 9d c9        	beqz	a1, 0x1b802 <__gttf2+0x9a>
   1b7ce: 82 80        	ret
   1b7d0: e3 47 a8 fe  	blt	a6, a0, 0x1b7be <__gttf2+0x56>
   1b7d4: e3 6b c7 ff  	bltu	a4, t3, 0x1b7ca <__gttf2+0x62>
   1b7d8: 63 17 ee 00  	bne	t3, a4, 0x1b7e6 <__gttf2+0x7e>
   1b7dc: e3 67 16 ff  	bltu	a2, a7, 0x1b7ca <__gttf2+0x62>
   1b7e0: 01 45        	li	a0, 0x0
   1b7e2: e3 f6 c8 fe  	bgeu	a7, a2, 0x1b7ce <__gttf2+0x66>
   1b7e6: 05 45        	li	a0, 0x1
   1b7e8: fd f1        	bnez	a1, 0x1b7ce <__gttf2+0x66>
   1b7ea: e1 bf        	j	0x1b7c2 <__gttf2+0x5a>
   1b7ec: 73 60 18 00  	csrsi	fflags, 0x10
   1b7f0: 79 55        	li	a0, -0x2
   1b7f2: 82 80        	ret
   1b7f4: e9 f7        	bnez	a5, 0x1b7be <__gttf2+0x56>
   1b7f6: e3 9a b6 fc  	bne	a3, a1, 0x1b7ca <__gttf2+0x62>
   1b7fa: e3 5b 05 fd  	bge	a0, a6, 0x1b7d0 <__gttf2+0x68>
   1b7fe: 7d 55        	li	a0, -0x1
   1b800: f9 f6        	bnez	a3, 0x1b7ce <__gttf2+0x66>
   1b802: 05 45        	li	a0, 0x1
   1b804: 82 80        	ret

000000000001b806 <__lttf2>:
   1b806: aa 88        	mv	a7, a0
   1b808: f3 27 20 00  	frrm	a5
   1b80c: 21 63        	lui	t1, 0x8
   1b80e: 13 d8 05 03  	srli	a6, a1, 0x30
   1b812: 7d 13        	addi	t1, t1, -0x1
   1b814: 7d 57        	li	a4, -0x1
   1b816: 41 83        	srli	a4, a4, 0x10
   1b818: 93 d7 06 03  	srli	a5, a3, 0x30
   1b81c: 33 78 68 00  	and	a6, a6, t1
   1b820: 33 fe e5 00  	and	t3, a1, a4
   1b824: 33 f5 67 00  	and	a0, a5, t1
   1b828: 75 8f        	and	a4, a4, a3
   1b82a: fd 91        	srli	a1, a1, 0x3f
   1b82c: fd 92        	srli	a3, a3, 0x3f
   1b82e: 63 15 68 00  	bne	a6, t1, 0x1b838 <__lttf2+0x32>
   1b832: b3 67 1e 01  	or	a5, t3, a7
   1b836: b1 eb        	bnez	a5, 0x1b88a <__lttf2+0x84>
   1b838: 63 15 65 00  	bne	a0, t1, 0x1b842 <__lttf2+0x3c>
   1b83c: b3 67 c7 00  	or	a5, a4, a2
   1b840: a9 e7        	bnez	a5, 0x1b88a <__lttf2+0x84>
   1b842: 81 47        	li	a5, 0x0
   1b844: 63 16 08 00  	bnez	a6, 0x1b850 <__lttf2+0x4a>
   1b848: b3 67 1e 01  	or	a5, t3, a7
   1b84c: 93 b7 17 00  	seqz	a5, a5
   1b850: 29 e1        	bnez	a0, 0x1b892 <__lttf2+0x8c>
   1b852: 33 63 c7 00  	or	t1, a4, a2
   1b856: 99 c7        	beqz	a5, 0x1b864 <__lttf2+0x5e>
   1b858: 63 0a 03 00  	beqz	t1, 0x1b86c <__lttf2+0x66>
   1b85c: 05 45        	li	a0, 0x1
   1b85e: 99 e6        	bnez	a3, 0x1b86c <__lttf2+0x66>
   1b860: 7d 55        	li	a0, -0x1
   1b862: 82 80        	ret
   1b864: 63 18 03 02  	bnez	t1, 0x1b894 <__lttf2+0x8e>
   1b868: 7d 55        	li	a0, -0x1
   1b86a: 9d c9        	beqz	a1, 0x1b8a0 <__lttf2+0x9a>
   1b86c: 82 80        	ret
   1b86e: e3 47 a8 fe  	blt	a6, a0, 0x1b85c <__lttf2+0x56>
   1b872: e3 6b c7 ff  	bltu	a4, t3, 0x1b868 <__lttf2+0x62>
   1b876: 63 17 ee 00  	bne	t3, a4, 0x1b884 <__lttf2+0x7e>
   1b87a: e3 67 16 ff  	bltu	a2, a7, 0x1b868 <__lttf2+0x62>
   1b87e: 01 45        	li	a0, 0x0
   1b880: e3 f6 c8 fe  	bgeu	a7, a2, 0x1b86c <__lttf2+0x66>
   1b884: 05 45        	li	a0, 0x1
   1b886: fd f1        	bnez	a1, 0x1b86c <__lttf2+0x66>
   1b888: e1 bf        	j	0x1b860 <__lttf2+0x5a>
   1b88a: 73 60 18 00  	csrsi	fflags, 0x10
   1b88e: 09 45        	li	a0, 0x2
   1b890: 82 80        	ret
   1b892: e9 f7        	bnez	a5, 0x1b85c <__lttf2+0x56>
   1b894: e3 9a b6 fc  	bne	a3, a1, 0x1b868 <__lttf2+0x62>
   1b898: e3 5b 05 fd  	bge	a0, a6, 0x1b86e <__lttf2+0x68>
   1b89c: 7d 55        	li	a0, -0x1
   1b89e: f9 f6        	bnez	a3, 0x1b86c <__lttf2+0x66>
   1b8a0: 05 45        	li	a0, 0x1
   1b8a2: 82 80        	ret

000000000001b8a4 <__multf3>:
   1b8a4: 1d 71        	addi	sp, sp, -0x60
   1b8a6: a2 e8        	sd	s0, 0x50(sp)
   1b8a8: 56 f4        	sd	s5, 0x28(sp)
   1b8aa: 62 e8        	sd	s8, 0x10(sp)
   1b8ac: 86 ec        	sd	ra, 0x58(sp)
   1b8ae: a6 e4        	sd	s1, 0x48(sp)
   1b8b0: ca e0        	sd	s2, 0x40(sp)
   1b8b2: 4e fc        	sd	s3, 0x38(sp)
   1b8b4: 52 f8        	sd	s4, 0x30(sp)
   1b8b6: 5a f0        	sd	s6, 0x20(sp)
   1b8b8: 5e ec        	sd	s7, 0x18(sp)
   1b8ba: 66 e4        	sd	s9, 0x8(sp)
   1b8bc: 2a 84        	mv	s0, a0
   1b8be: 32 8c        	mv	s8, a2
   1b8c0: b6 8a        	mv	s5, a3
   1b8c2: f3 29 20 00  	frrm	s3
   1b8c6: 21 67        	lui	a4, 0x8
   1b8c8: 93 d7 05 03  	srli	a5, a1, 0x30
   1b8cc: 7d 17        	addi	a4, a4, -0x1
   1b8ce: 93 94 05 01  	slli	s1, a1, 0x10
   1b8d2: f9 8f        	and	a5, a5, a4
   1b8d4: 81 29        	sext.w	s3, s3
   1b8d6: c1 80        	srli	s1, s1, 0x10
   1b8d8: 13 db f5 03  	srli	s6, a1, 0x3f
   1b8dc: 85 c7        	beqz	a5, 0x1b904 <__multf3+0x60>
   1b8de: 1b 8a 07 00  	sext.w	s4, a5
   1b8e2: 63 8f e7 06  	beq	a5, a4, 0x1b960 <__multf3+0xbc>
   1b8e6: 8e 04        	slli	s1, s1, 0x3
   1b8e8: 13 57 d5 03  	srli	a4, a0, 0x3d
   1b8ec: 45 8f        	or	a4, a4, s1
   1b8ee: 71 7a        	lui	s4, 0xffffc
   1b8f0: 85 44        	li	s1, 0x1
   1b8f2: ce 14        	slli	s1, s1, 0x33
   1b8f4: 05 0a        	addi	s4, s4, 0x1
   1b8f6: d9 8c        	or	s1, s1, a4
   1b8f8: 93 1b 35 00  	slli	s7, a0, 0x3
   1b8fc: 3e 9a        	add	s4, s4, a5
   1b8fe: 81 4c        	li	s9, 0x0
   1b900: 01 49        	li	s2, 0x0
   1b902: 95 a8        	j	0x1b976 <__multf3+0xd2>
   1b904: b3 6b 95 00  	or	s7, a0, s1
   1b908: 63 82 0b 28  	beqz	s7, 0x1bb8c <__multf3+0x2e8>
   1b90c: 9d c8        	beqz	s1, 0x1b942 <__multf3+0x9e>
   1b90e: 26 85        	mv	a0, s1
   1b910: ef 10 20 21  	jal	0x1cb22 <__clzdi2>
   1b914: 01 25        	sext.w	a0, a0
   1b916: 93 07 15 ff  	addi	a5, a0, -0xf
   1b91a: 13 07 d0 03  	li	a4, 0x3d
   1b91e: 9b 86 37 00  	addiw	a3, a5, 0x3
   1b922: bb 07 f7 40  	subw	a5, a4, a5
   1b926: b3 94 d4 00  	sll	s1, s1, a3
   1b92a: b3 57 f4 00  	srl	a5, s0, a5
   1b92e: c5 8f        	or	a5, a5, s1
   1b930: b3 14 d4 00  	sll	s1, s0, a3
   1b934: 71 7a        	lui	s4, 0xffffc
   1b936: 45 0a        	addi	s4, s4, 0x11
   1b938: a6 8b        	mv	s7, s1
   1b93a: 33 0a aa 40  	sub	s4, s4, a0
   1b93e: be 84        	mv	s1, a5
   1b940: 7d bf        	j	0x1b8fe <__multf3+0x5a>
   1b942: ef 10 00 1e  	jal	0x1cb22 <__clzdi2>
   1b946: 1b 05 05 04  	addiw	a0, a0, 0x40
   1b94a: 93 07 15 ff  	addi	a5, a0, -0xf
   1b94e: 13 07 c0 03  	li	a4, 0x3c
   1b952: e3 54 f7 fc  	bge	a4, a5, 0x1b91a <__multf3+0x76>
   1b956: 9b 87 37 fc  	addiw	a5, a5, -0x3d
   1b95a: b3 17 f4 00  	sll	a5, s0, a5
   1b95e: d9 bf        	j	0x1b934 <__multf3+0x90>
   1b960: b3 6b 95 00  	or	s7, a0, s1
   1b964: 63 88 0b 22  	beqz	s7, 0x1bb94 <__multf3+0x2f0>
   1b968: 05 49        	li	s2, 0x1
   1b96a: 3e 19        	slli	s2, s2, 0x2f
   1b96c: 33 b9 24 01  	sltu	s2, s1, s2
   1b970: 12 09        	slli	s2, s2, 0x4
   1b972: aa 8b        	mv	s7, a0
   1b974: 8d 4c        	li	s9, 0x3
   1b976: 21 66        	lui	a2, 0x8
   1b978: 13 d7 0a 03  	srli	a4, s5, 0x30
   1b97c: fd 56        	li	a3, -0x1
   1b97e: 7d 16        	addi	a2, a2, -0x1
   1b980: 13 d4 06 01  	srli	s0, a3, 0x10
   1b984: 71 8f        	and	a4, a4, a2
   1b986: 33 f4 8a 00  	and	s0, s5, s0
   1b98a: 62 85        	mv	a0, s8
   1b98c: 93 da fa 03  	srli	s5, s5, 0x3f
   1b990: 63 05 07 20  	beqz	a4, 0x1bb9a <__multf3+0x2f6>
   1b994: 9b 07 07 00  	sext.w	a5, a4
   1b998: 63 0e c7 24  	beq	a4, a2, 0x1bbf4 <__multf3+0x350>
   1b99c: 0e 04        	slli	s0, s0, 0x3
   1b99e: 93 57 dc 03  	srli	a5, s8, 0x3d
   1b9a2: c1 8f        	or	a5, a5, s0
   1b9a4: 05 44        	li	s0, 0x1
   1b9a6: 4e 14        	slli	s0, s0, 0x33
   1b9a8: 5d 8c        	or	s0, s0, a5
   1b9aa: f1 77        	lui	a5, 0xffffc
   1b9ac: 85 07        	addi	a5, a5, 0x1
   1b9ae: 13 15 3c 00  	slli	a0, s8, 0x3
   1b9b2: ba 97        	add	a5, a5, a4
   1b9b4: 01 47        	li	a4, 0x0
   1b9b6: b3 86 47 01  	add	a3, a5, s4
   1b9ba: 93 97 2c 00  	slli	a5, s9, 0x2
   1b9be: d9 8f        	or	a5, a5, a4
   1b9c0: 29 46        	li	a2, 0xa
   1b9c2: 93 88 16 00  	addi	a7, a3, 0x1
   1b9c6: 63 4f f6 2a  	blt	a2, a5, 0x1bc84 <__multf3+0x3e0>
   1b9ca: 89 45        	li	a1, 0x2
   1b9cc: 33 46 5b 01  	xor	a2, s6, s5
   1b9d0: 63 c4 f5 24  	blt	a1, a5, 0x1bc18 <__multf3+0x374>
   1b9d4: fd 17        	addi	a5, a5, -0x1
   1b9d6: 85 45        	li	a1, 0x1
   1b9d8: 63 ff f5 24  	bgeu	a1, a5, 0x1bc36 <__multf3+0x392>
   1b9dc: fd 57        	li	a5, -0x1
   1b9de: 81 93        	srli	a5, a5, 0x20
   1b9e0: 13 d7 0b 02  	srli	a4, s7, 0x20
   1b9e4: 93 55 05 02  	srli	a1, a0, 0x20
   1b9e8: b3 8f 74 01  	add	t6, s1, s7
   1b9ec: 33 0f 85 00  	add	t5, a0, s0
   1b9f0: b3 fb fb 00  	and	s7, s7, a5
   1b9f4: e9 8f        	and	a5, a5, a0
   1b9f6: b3 3e af 00  	sltu	t4, t5, a0
   1b9fa: 33 85 77 03  	mul	a0, a5, s7
   1b9fe: 33 be 9f 00  	sltu	t3, t6, s1
   1ba02: b3 07 f7 02  	mul	a5, a4, a5
   1ba06: 13 58 05 02  	srli	a6, a0, 0x20
   1ba0a: 33 07 b7 02  	mul	a4, a4, a1
   1ba0e: b3 85 75 03  	mul	a1, a1, s7
   1ba12: be 95        	add	a1, a1, a5
   1ba14: 2e 98        	add	a6, a6, a1
   1ba16: 63 75 f8 00  	bgeu	a6, a5, 0x1ba20 <__multf3+0x17c>
   1ba1a: 85 47        	li	a5, 0x1
   1ba1c: 82 17        	slli	a5, a5, 0x20
   1ba1e: 3e 97        	add	a4, a4, a5
   1ba20: fd 57        	li	a5, -0x1
   1ba22: 81 93        	srli	a5, a5, 0x20
   1ba24: 13 53 08 02  	srli	t1, a6, 0x20
   1ba28: 33 78 f8 00  	and	a6, a6, a5
   1ba2c: 7d 8d        	and	a0, a0, a5
   1ba2e: 02 18        	slli	a6, a6, 0x20
   1ba30: 93 d3 0f 02  	srli	t2, t6, 0x20
   1ba34: 3a 93        	add	t1, t1, a4
   1ba36: 2a 98        	add	a6, a6, a0
   1ba38: 13 57 0f 02  	srli	a4, t5, 0x20
   1ba3c: 33 f5 ff 00  	and	a0, t6, a5
   1ba40: b3 77 ff 00  	and	a5, t5, a5
   1ba44: b3 85 a7 02  	mul	a1, a5, a0
   1ba48: b3 87 f3 02  	mul	a5, t2, a5
   1ba4c: 93 d2 05 02  	srli	t0, a1, 0x20
   1ba50: b3 83 e3 02  	mul	t2, t2, a4
   1ba54: 33 07 a7 02  	mul	a4, a4, a0
   1ba58: 3e 97        	add	a4, a4, a5
   1ba5a: ba 92        	add	t0, t0, a4
   1ba5c: 63 f5 f2 00  	bgeu	t0, a5, 0x1ba66 <__multf3+0x1c2>
   1ba60: 85 47        	li	a5, 0x1
   1ba62: 82 17        	slli	a5, a5, 0x20
   1ba64: be 93        	add	t2, t2, a5
   1ba66: fd 57        	li	a5, -0x1
   1ba68: 81 93        	srli	a5, a5, 0x20
   1ba6a: 13 d7 02 02  	srli	a4, t0, 0x20
   1ba6e: b3 f2 f2 00  	and	t0, t0, a5
   1ba72: fd 8d        	and	a1, a1, a5
   1ba74: 82 12        	slli	t0, t0, 0x20
   1ba76: 13 55 04 02  	srli	a0, s0, 0x20
   1ba7a: ae 92        	add	t0, t0, a1
   1ba7c: 93 d5 04 02  	srli	a1, s1, 0x20
   1ba80: fd 8c        	and	s1, s1, a5
   1ba82: e1 8f        	and	a5, a5, s0
   1ba84: 33 8a f4 02  	mul	s4, s1, a5
   1ba88: 33 84 a5 02  	mul	s0, a1, a0
   1ba8c: b3 87 f5 02  	mul	a5, a1, a5
   1ba90: 33 05 95 02  	mul	a0, a0, s1
   1ba94: b3 05 f5 00  	add	a1, a0, a5
   1ba98: 13 55 0a 02  	srli	a0, s4, 0x20
   1ba9c: 2e 95        	add	a0, a0, a1
   1ba9e: 63 75 f5 00  	bgeu	a0, a5, 0x1baa8 <__multf3+0x204>
   1baa2: 85 47        	li	a5, 0x1
   1baa4: 82 17        	slli	a5, a5, 0x20
   1baa6: 3e 94        	add	s0, s0, a5
   1baa8: 93 55 05 02  	srli	a1, a0, 0x20
   1baac: a2 95        	add	a1, a1, s0
   1baae: 7d 54        	li	s0, -0x1
   1bab0: 01 90        	srli	s0, s0, 0x20
   1bab2: b3 77 85 00  	and	a5, a0, s0
   1bab6: 82 17        	slli	a5, a5, 0x20
   1bab8: 33 7a 8a 00  	and	s4, s4, s0
   1babc: d2 97        	add	a5, a5, s4
   1babe: 01 45        	li	a0, 0x0
   1bac0: 63 83 0e 00  	beqz	t4, 0x1bac6 <__multf3+0x222>
   1bac4: 7e 85        	mv	a0, t6
   1bac6: 81 4f        	li	t6, 0x0
   1bac8: 63 03 0e 00  	beqz	t3, 0x1bace <__multf3+0x22a>
   1bacc: fa 8f        	mv	t6, t5
   1bace: 33 84 62 00  	add	s0, t0, t1
   1bad2: 33 3f 54 00  	sltu	t5, s0, t0
   1bad6: 7a 97        	add	a4, a4, t5
   1bad8: 1e 97        	add	a4, a4, t2
   1bada: 33 7e de 01  	and	t3, t3, t4
   1bade: 33 3f e7 01  	sltu	t5, a4, t5
   1bae2: 3a 95        	add	a0, a0, a4
   1bae4: 72 9f        	add	t5, t5, t3
   1bae6: 33 37 e5 00  	sltu	a4, a0, a4
   1baea: 7e 95        	add	a0, a0, t6
   1baec: 7a 97        	add	a4, a4, t5
   1baee: b3 3f f5 01  	sltu	t6, a0, t6
   1baf2: 33 0e 04 41  	sub	t3, s0, a6
   1baf6: b3 3e c4 01  	sltu	t4, s0, t3
   1bafa: ba 9f        	add	t6, t6, a4
   1bafc: 33 07 65 40  	sub	a4, a0, t1
   1bb00: 33 3f e5 00  	sltu	t5, a0, a4
   1bb04: 33 07 d7 41  	sub	a4, a4, t4
   1bb08: 81 4e        	li	t4, 0x0
   1bb0a: 63 76 c4 01  	bgeu	s0, t3, 0x1bb16 <__multf3+0x272>
   1bb0e: 33 03 a3 40  	sub	t1, t1, a0
   1bb12: 93 3e 13 00  	seqz	t4, t1
   1bb16: ae 9f        	add	t6, t6, a1
   1bb18: 33 03 fe 40  	sub	t1, t3, a5
   1bb1c: b3 05 b7 40  	sub	a1, a4, a1
   1bb20: 33 35 b7 00  	sltu	a0, a4, a1
   1bb24: 33 37 6e 00  	sltu	a4, t3, t1
   1bb28: 33 ef ee 01  	or	t5, t4, t5
   1bb2c: 33 87 e7 40  	sub	a4, a5, a4
   1bb30: 81 4e        	li	t4, 0x0
   1bb32: 63 74 6e 00  	bgeu	t3, t1, 0x1bb3a <__multf3+0x296>
   1bb36: 93 be 15 00  	seqz	t4, a1
   1bb3a: ba 95        	add	a1, a1, a4
   1bb3c: 33 b7 f5 00  	sltu	a4, a1, a5
   1bb40: 7e 97        	add	a4, a4, t6
   1bb42: b3 ee ae 00  	or	t4, t4, a0
   1bb46: 33 07 e7 41  	sub	a4, a4, t5
   1bb4a: 13 15 d3 00  	slli	a0, t1, 0xd
   1bb4e: 33 07 d7 41  	sub	a4, a4, t4
   1bb52: 33 65 05 01  	or	a0, a0, a6
   1bb56: 36 07        	slli	a4, a4, 0xd
   1bb58: 33 35 a0 00  	snez	a0, a0
   1bb5c: 13 53 33 03  	srli	t1, t1, 0x33
   1bb60: 13 d4 35 03  	srli	s0, a1, 0x33
   1bb64: 33 65 65 00  	or	a0, a0, t1
   1bb68: b6 05        	slli	a1, a1, 0xd
   1bb6a: 93 17 b7 00  	slli	a5, a4, 0xb
   1bb6e: 59 8c        	or	s0, s0, a4
   1bb70: 4d 8d        	or	a0, a0, a1
   1bb72: 63 db 07 00  	bgez	a5, 0x1bb88 <__multf3+0x2e4>
   1bb76: 93 57 15 00  	srli	a5, a0, 0x1
   1bb7a: 05 89        	andi	a0, a0, 0x1
   1bb7c: c9 8f        	or	a5, a5, a0
   1bb7e: 13 15 f4 03  	slli	a0, s0, 0x3f
   1bb82: 5d 8d        	or	a0, a0, a5
   1bb84: 05 80        	srli	s0, s0, 0x1
   1bb86: c6 86        	mv	a3, a7
   1bb88: b6 88        	mv	a7, a3
   1bb8a: 7d a8        	j	0x1bc48 <__multf3+0x3a4>
   1bb8c: 81 44        	li	s1, 0x0
   1bb8e: 01 4a        	li	s4, 0x0
   1bb90: 85 4c        	li	s9, 0x1
   1bb92: bd b3        	j	0x1b900 <__multf3+0x5c>
   1bb94: 81 44        	li	s1, 0x0
   1bb96: 89 4c        	li	s9, 0x2
   1bb98: a5 b3        	j	0x1b900 <__multf3+0x5c>
   1bb9a: b3 67 8c 00  	or	a5, s8, s0
   1bb9e: a5 c7        	beqz	a5, 0x1bc06 <__multf3+0x362>
   1bba0: 1d c8        	beqz	s0, 0x1bbd6 <__multf3+0x332>
   1bba2: 22 85        	mv	a0, s0
   1bba4: ef 00 f0 77  	jal	0x1cb22 <__clzdi2>
   1bba8: 01 25        	sext.w	a0, a0
   1bbaa: 93 07 15 ff  	addi	a5, a0, -0xf
   1bbae: 13 07 d0 03  	li	a4, 0x3d
   1bbb2: 9b 86 37 00  	addiw	a3, a5, 0x3
   1bbb6: bb 07 f7 40  	subw	a5, a4, a5
   1bbba: 33 14 d4 00  	sll	s0, s0, a3
   1bbbe: b3 57 fc 00  	srl	a5, s8, a5
   1bbc2: 33 e7 87 00  	or	a4, a5, s0
   1bbc6: 33 14 dc 00  	sll	s0, s8, a3
   1bbca: f1 77        	lui	a5, 0xffffc
   1bbcc: c5 07        	addi	a5, a5, 0x11
   1bbce: 89 8f        	sub	a5, a5, a0
   1bbd0: 22 85        	mv	a0, s0
   1bbd2: 3a 84        	mv	s0, a4
   1bbd4: c5 b3        	j	0x1b9b4 <__multf3+0x110>
   1bbd6: ef 00 d0 74  	jal	0x1cb22 <__clzdi2>
   1bbda: 1b 05 05 04  	addiw	a0, a0, 0x40
   1bbde: 93 07 15 ff  	addi	a5, a0, -0xf
   1bbe2: 13 07 c0 03  	li	a4, 0x3c
   1bbe6: e3 54 f7 fc  	bge	a4, a5, 0x1bbae <__multf3+0x30a>
   1bbea: 9b 87 37 fc  	addiw	a5, a5, -0x3d
   1bbee: 33 17 fc 00  	sll	a4, s8, a5
   1bbf2: e1 bf        	j	0x1bbca <__multf3+0x326>
   1bbf4: 33 67 8c 00  	or	a4, s8, s0
   1bbf8: 01 cf        	beqz	a4, 0x1bc10 <__multf3+0x36c>
   1bbfa: c5 82        	srli	a3, a3, 0x11
   1bbfc: 0d 47        	li	a4, 0x3
   1bbfe: e3 ec 86 da  	bltu	a3, s0, 0x1b9b6 <__multf3+0x112>
   1bc02: 41 49        	li	s2, 0x10
   1bc04: 4d bb        	j	0x1b9b6 <__multf3+0x112>
   1bc06: 01 44        	li	s0, 0x0
   1bc08: 01 45        	li	a0, 0x0
   1bc0a: 81 47        	li	a5, 0x0
   1bc0c: 05 47        	li	a4, 0x1
   1bc0e: 65 b3        	j	0x1b9b6 <__multf3+0x112>
   1bc10: 01 44        	li	s0, 0x0
   1bc12: 01 45        	li	a0, 0x0
   1bc14: 09 47        	li	a4, 0x2
   1bc16: 45 b3        	j	0x1b9b6 <__multf3+0x112>
   1bc18: 85 45        	li	a1, 0x1
   1bc1a: b3 97 f5 00  	sll	a5, a1, a5
   1bc1e: 93 f5 07 53  	andi	a1, a5, 0x530
   1bc22: a5 e9        	bnez	a1, 0x1bc92 <__multf3+0x3ee>
   1bc24: 93 f5 07 24  	andi	a1, a5, 0x240
   1bc28: 63 99 05 24  	bnez	a1, 0x1be7a <__multf3+0x5d6>
   1bc2c: 93 f7 87 08  	andi	a5, a5, 0x88
   1bc30: e3 86 07 da  	beqz	a5, 0x1b9dc <__multf3+0x138>
   1bc34: 56 86        	mv	a2, s5
   1bc36: 89 47        	li	a5, 0x2
   1bc38: 63 09 f7 24  	beq	a4, a5, 0x1be8a <__multf3+0x5e6>
   1bc3c: 8d 47        	li	a5, 0x3
   1bc3e: 63 0f f7 22  	beq	a4, a5, 0x1be7c <__multf3+0x5d8>
   1bc42: 85 47        	li	a5, 0x1
   1bc44: 63 08 f7 24  	beq	a4, a5, 0x1be94 <__multf3+0x5f0>
   1bc48: 11 67        	lui	a4, 0x4
   1bc4a: 7d 17        	addi	a4, a4, -0x1
   1bc4c: 46 97        	add	a4, a4, a7
   1bc4e: 63 5f e0 0c  	blez	a4, 0x1bd2c <__multf3+0x488>
   1bc52: 93 77 75 00  	andi	a5, a0, 0x7
   1bc56: b9 c7        	beqz	a5, 0x1bca4 <__multf3+0x400>
   1bc58: 89 47        	li	a5, 0x2
   1bc5a: 13 69 19 00  	ori	s2, s2, 0x1
   1bc5e: 63 82 f9 04  	beq	s3, a5, 0x1bca2 <__multf3+0x3fe>
   1bc62: 8d 47        	li	a5, 0x3
   1bc64: 63 8b f9 02  	beq	s3, a5, 0x1bc9a <__multf3+0x3f6>
   1bc68: 63 9e 09 02  	bnez	s3, 0x1bca4 <__multf3+0x400>
   1bc6c: 93 77 f5 00  	andi	a5, a0, 0xf
   1bc70: 91 46        	li	a3, 0x4
   1bc72: 63 89 d7 02  	beq	a5, a3, 0x1bca4 <__multf3+0x400>
   1bc76: 93 07 45 00  	addi	a5, a0, 0x4
   1bc7a: b3 b6 a7 00  	sltu	a3, a5, a0
   1bc7e: 36 94        	add	s0, s0, a3
   1bc80: 3e 85        	mv	a0, a5
   1bc82: 0d a0        	j	0x1bca4 <__multf3+0x400>
   1bc84: bd 46        	li	a3, 0xf
   1bc86: 63 8b d7 1e  	beq	a5, a3, 0x1be7c <__multf3+0x5d8>
   1bc8a: ad 46        	li	a3, 0xb
   1bc8c: 5a 86        	mv	a2, s6
   1bc8e: e3 83 d7 fa  	beq	a5, a3, 0x1bc34 <__multf3+0x390>
   1bc92: 26 84        	mv	s0, s1
   1bc94: 5e 85        	mv	a0, s7
   1bc96: 66 87        	mv	a4, s9
   1bc98: 79 bf        	j	0x1bc36 <__multf3+0x392>
   1bc9a: 09 e6        	bnez	a2, 0x1bca4 <__multf3+0x400>
   1bc9c: 93 07 85 00  	addi	a5, a0, 0x8
   1bca0: e9 bf        	j	0x1bc7a <__multf3+0x3d6>
   1bca2: 6d fe        	bnez	a2, 0x1bc9c <__multf3+0x3f8>
   1bca4: 93 17 b4 00  	slli	a5, s0, 0xb
   1bca8: 63 d8 07 00  	bgez	a5, 0x1bcb8 <__multf3+0x414>
   1bcac: fd 57        	li	a5, -0x1
   1bcae: d2 17        	slli	a5, a5, 0x34
   1bcb0: fd 17        	addi	a5, a5, -0x1
   1bcb2: 11 67        	lui	a4, 0x4
   1bcb4: 7d 8c        	and	s0, s0, a5
   1bcb6: 46 97        	add	a4, a4, a7
   1bcb8: a1 67        	lui	a5, 0x8
   1bcba: f9 17        	addi	a5, a5, -0x2
   1bcbc: a1 66        	lui	a3, 0x8
   1bcbe: 63 c2 e7 04  	blt	a5, a4, 0x1bd02 <__multf3+0x45e>
   1bcc2: 93 57 35 00  	srli	a5, a0, 0x3
   1bcc6: 13 15 d4 03  	slli	a0, s0, 0x3d
   1bcca: 5d 8d        	or	a0, a0, a5
   1bccc: 93 57 34 00  	srli	a5, s0, 0x3
   1bcd0: 1b 16 f6 00  	slliw	a2, a2, 0xf
   1bcd4: 93 95 07 01  	slli	a1, a5, 0x10
   1bcd8: 51 8f        	or	a4, a4, a2
   1bcda: 42 17        	slli	a4, a4, 0x30
   1bcdc: c1 81        	srli	a1, a1, 0x10
   1bcde: d9 8d        	or	a1, a1, a4
   1bce0: 63 04 09 00  	beqz	s2, 0x1bce8 <__multf3+0x444>
   1bce4: 73 20 19 00  	csrs	fflags, s2
   1bce8: e6 60        	ld	ra, 0x58(sp)
   1bcea: 46 64        	ld	s0, 0x50(sp)
   1bcec: a6 64        	ld	s1, 0x48(sp)
   1bcee: 06 69        	ld	s2, 0x40(sp)
   1bcf0: e2 79        	ld	s3, 0x38(sp)
   1bcf2: 42 7a        	ld	s4, 0x30(sp)
   1bcf4: a2 7a        	ld	s5, 0x28(sp)
   1bcf6: 02 7b        	ld	s6, 0x20(sp)
   1bcf8: e2 6b        	ld	s7, 0x18(sp)
   1bcfa: 42 6c        	ld	s8, 0x10(sp)
   1bcfc: a2 6c        	ld	s9, 0x8(sp)
   1bcfe: 25 61        	addi	sp, sp, 0x60
   1bd00: 82 80        	ret
   1bd02: 09 47        	li	a4, 0x2
   1bd04: 63 82 e9 02  	beq	s3, a4, 0x1bd28 <__multf3+0x484>
   1bd08: 0d 47        	li	a4, 0x3
   1bd0a: 63 88 e9 00  	beq	s3, a4, 0x1bd1a <__multf3+0x476>
   1bd0e: 63 97 09 00  	bnez	s3, 0x1bd1c <__multf3+0x478>
   1bd12: 01 45        	li	a0, 0x0
   1bd14: 13 87 f6 ff  	addi	a4, a3, -0x1
   1bd18: 21 a0        	j	0x1bd20 <__multf3+0x47c>
   1bd1a: 65 de        	beqz	a2, 0x1bd12 <__multf3+0x46e>
   1bd1c: 7d 55        	li	a0, -0x1
   1bd1e: 3e 87        	mv	a4, a5
   1bd20: 13 69 59 00  	ori	s2, s2, 0x5
   1bd24: aa 87        	mv	a5, a0
   1bd26: 6d b7        	j	0x1bcd0 <__multf3+0x42c>
   1bd28: 6d f6        	bnez	a2, 0x1bd12 <__multf3+0x46e>
   1bd2a: cd bf        	j	0x1bd1c <__multf3+0x478>
   1bd2c: 85 46        	li	a3, 0x1
   1bd2e: 21 e7        	bnez	a4, 0x1bd76 <__multf3+0x4d2>
   1bd30: 93 76 75 00  	andi	a3, a0, 0x7
   1bd34: a2 87        	mv	a5, s0
   1bd36: 9d ca        	beqz	a3, 0x1bd6c <__multf3+0x4c8>
   1bd38: 89 46        	li	a3, 0x2
   1bd3a: 13 69 19 00  	ori	s2, s2, 0x1
   1bd3e: 63 86 d9 02  	beq	s3, a3, 0x1bd6a <__multf3+0x4c6>
   1bd42: 8d 46        	li	a3, 0x3
   1bd44: 63 8f d9 00  	beq	s3, a3, 0x1bd62 <__multf3+0x4be>
   1bd48: 63 92 09 02  	bnez	s3, 0x1bd6c <__multf3+0x4c8>
   1bd4c: 93 76 f5 00  	andi	a3, a0, 0xf
   1bd50: 91 45        	li	a1, 0x4
   1bd52: 63 8d b6 00  	beq	a3, a1, 0x1bd6c <__multf3+0x4c8>
   1bd56: 93 37 c5 ff  	sltiu	a5, a0, -0x4
   1bd5a: 93 c7 17 00  	xori	a5, a5, 0x1
   1bd5e: a2 97        	add	a5, a5, s0
   1bd60: 31 a0        	j	0x1bd6c <__multf3+0x4c8>
   1bd62: 09 e6        	bnez	a2, 0x1bd6c <__multf3+0x4c8>
   1bd64: 93 37 85 ff  	sltiu	a5, a0, -0x8
   1bd68: cd bf        	j	0x1bd5a <__multf3+0x4b6>
   1bd6a: 6d fe        	bnez	a2, 0x1bd64 <__multf3+0x4c0>
   1bd6c: 93 d6 47 03  	srli	a3, a5, 0x34
   1bd70: 93 c6 16 00  	xori	a3, a3, 0x1
   1bd74: 85 8a        	andi	a3, a3, 0x1
   1bd76: 05 48        	li	a6, 0x1
   1bd78: 33 08 e8 40  	sub	a6, a6, a4
   1bd7c: 93 07 40 07  	li	a5, 0x74
   1bd80: 63 c2 07 0d  	blt	a5, a6, 0x1be44 <__multf3+0x5a0>
   1bd84: 13 07 f0 03  	li	a4, 0x3f
   1bd88: 9b 07 08 00  	sext.w	a5, a6
   1bd8c: 63 4b 07 05  	blt	a4, a6, 0x1bde2 <__multf3+0x53e>
   1bd90: 93 05 00 04  	li	a1, 0x40
   1bd94: 9d 9d        	subw	a1, a1, a5
   1bd96: 33 17 b4 00  	sll	a4, s0, a1
   1bd9a: 33 58 f5 00  	srl	a6, a0, a5
   1bd9e: b3 15 b5 00  	sll	a1, a0, a1
   1bda2: 33 67 07 01  	or	a4, a4, a6
   1bda6: b3 35 b0 00  	snez	a1, a1
   1bdaa: 4d 8f        	or	a4, a4, a1
   1bdac: b3 57 f4 00  	srl	a5, s0, a5
   1bdb0: 93 75 77 00  	andi	a1, a4, 0x7
   1bdb4: a5 c1        	beqz	a1, 0x1be14 <__multf3+0x570>
   1bdb6: 89 45        	li	a1, 0x2
   1bdb8: 13 69 19 00  	ori	s2, s2, 0x1
   1bdbc: 63 8b b9 04  	beq	s3, a1, 0x1be12 <__multf3+0x56e>
   1bdc0: 8d 45        	li	a1, 0x3
   1bdc2: 63 84 b9 04  	beq	s3, a1, 0x1be0a <__multf3+0x566>
   1bdc6: 63 97 09 04  	bnez	s3, 0x1be14 <__multf3+0x570>
   1bdca: 93 75 f7 00  	andi	a1, a4, 0xf
   1bdce: 11 45        	li	a0, 0x4
   1bdd0: 63 82 a5 04  	beq	a1, a0, 0x1be14 <__multf3+0x570>
   1bdd4: 93 05 47 00  	addi	a1, a4, 0x4
   1bdd8: 33 b5 e5 00  	sltu	a0, a1, a4
   1bddc: aa 97        	add	a5, a5, a0
   1bdde: 2e 87        	mv	a4, a1
   1bde0: 15 a8        	j	0x1be14 <__multf3+0x570>
   1bde2: 1b 87 07 fc  	addiw	a4, a5, -0x40
   1bde6: 93 08 00 04  	li	a7, 0x40
   1bdea: 33 57 e4 00  	srl	a4, s0, a4
   1bdee: 81 45        	li	a1, 0x0
   1bdf0: 63 07 18 01  	beq	a6, a7, 0x1bdfe <__multf3+0x55a>
   1bdf4: 93 05 00 08  	li	a1, 0x80
   1bdf8: 9d 9d        	subw	a1, a1, a5
   1bdfa: b3 15 b4 00  	sll	a1, s0, a1
   1bdfe: c9 8d        	or	a1, a1, a0
   1be00: b3 35 b0 00  	snez	a1, a1
   1be04: 4d 8f        	or	a4, a4, a1
   1be06: 81 47        	li	a5, 0x0
   1be08: 65 b7        	j	0x1bdb0 <__multf3+0x50c>
   1be0a: 09 e6        	bnez	a2, 0x1be14 <__multf3+0x570>
   1be0c: 93 05 87 00  	addi	a1, a4, 0x8
   1be10: e1 b7        	j	0x1bdd8 <__multf3+0x534>
   1be12: 6d fe        	bnez	a2, 0x1be0c <__multf3+0x568>
   1be14: 93 95 c7 00  	slli	a1, a5, 0xc
   1be18: 63 df 05 00  	bgez	a1, 0x1be36 <__multf3+0x592>
   1be1c: 13 69 19 00  	ori	s2, s2, 0x1
   1be20: 81 47        	li	a5, 0x0
   1be22: 01 45        	li	a0, 0x0
   1be24: 05 47        	li	a4, 0x1
   1be26: e3 85 06 ea  	beqz	a3, 0x1bcd0 <__multf3+0x42c>
   1be2a: 93 76 19 00  	andi	a3, s2, 0x1
   1be2e: 86 06        	slli	a3, a3, 0x1
   1be30: 33 e9 26 01  	or	s2, a3, s2
   1be34: 71 bd        	j	0x1bcd0 <__multf3+0x42c>
   1be36: 0d 83        	srli	a4, a4, 0x3
   1be38: 13 95 d7 03  	slli	a0, a5, 0x3d
   1be3c: 59 8d        	or	a0, a0, a4
   1be3e: 8d 83        	srli	a5, a5, 0x3
   1be40: 01 47        	li	a4, 0x0
   1be42: d5 b7        	j	0x1be26 <__multf3+0x582>
   1be44: 41 8d        	or	a0, a0, s0
   1be46: 11 cd        	beqz	a0, 0x1be62 <__multf3+0x5be>
   1be48: 89 47        	li	a5, 0x2
   1be4a: 13 69 19 00  	ori	s2, s2, 0x1
   1be4e: 63 83 f9 02  	beq	s3, a5, 0x1be74 <__multf3+0x5d0>
   1be52: 8d 47        	li	a5, 0x3
   1be54: 63 8c f9 00  	beq	s3, a5, 0x1be6c <__multf3+0x5c8>
   1be58: 05 45        	li	a0, 0x1
   1be5a: 63 93 09 00  	bnez	s3, 0x1be60 <__multf3+0x5bc>
   1be5e: 15 45        	li	a0, 0x5
   1be60: 0d 81        	srli	a0, a0, 0x3
   1be62: 13 69 29 00  	ori	s2, s2, 0x2
   1be66: 81 47        	li	a5, 0x0
   1be68: 01 47        	li	a4, 0x0
   1be6a: 9d b5        	j	0x1bcd0 <__multf3+0x42c>
   1be6c: 25 45        	li	a0, 0x9
   1be6e: 6d da        	beqz	a2, 0x1be60 <__multf3+0x5bc>
   1be70: 05 45        	li	a0, 0x1
   1be72: fd b7        	j	0x1be60 <__multf3+0x5bc>
   1be74: 25 45        	li	a0, 0x9
   1be76: 6d f6        	bnez	a2, 0x1be60 <__multf3+0x5bc>
   1be78: e5 bf        	j	0x1be70 <__multf3+0x5cc>
   1be7a: 41 49        	li	s2, 0x10
   1be7c: 85 47        	li	a5, 0x1
   1be7e: 21 67        	lui	a4, 0x8
   1be80: be 17        	slli	a5, a5, 0x2f
   1be82: 01 45        	li	a0, 0x0
   1be84: 7d 17        	addi	a4, a4, -0x1
   1be86: 01 46        	li	a2, 0x0
   1be88: a1 b5        	j	0x1bcd0 <__multf3+0x42c>
   1be8a: 21 67        	lui	a4, 0x8
   1be8c: 81 47        	li	a5, 0x0
   1be8e: 01 45        	li	a0, 0x0
   1be90: 7d 17        	addi	a4, a4, -0x1
   1be92: 3d bd        	j	0x1bcd0 <__multf3+0x42c>
   1be94: 81 47        	li	a5, 0x0
   1be96: 01 45        	li	a0, 0x0
   1be98: c1 bf        	j	0x1be68 <__multf3+0x5c4>

000000000001be9a <__subtf3>:
   1be9a: 79 71        	addi	sp, sp, -0x30
   1be9c: 06 f4        	sd	ra, 0x28(sp)
   1be9e: 22 f0        	sd	s0, 0x20(sp)
   1bea0: 26 ec        	sd	s1, 0x18(sp)
   1bea2: 4a e8        	sd	s2, 0x10(sp)
   1bea4: 4e e4        	sd	s3, 0x8(sp)
   1bea6: 52 e0        	sd	s4, 0x0(sp)
   1bea8: f3 24 20 00  	frrm	s1
   1beac: 7d 57        	li	a4, -0x1
   1beae: 41 83        	srli	a4, a4, 0x10
   1beb0: 13 d8 05 03  	srli	a6, a1, 0x30
   1beb4: 13 d9 f5 03  	srli	s2, a1, 0x3f
   1beb8: f9 8d        	and	a1, a1, a4
   1beba: 8e 05        	slli	a1, a1, 0x3
   1bebc: 93 58 d5 03  	srli	a7, a0, 0x3d
   1bec0: a1 67        	lui	a5, 0x8
   1bec2: fd 17        	addi	a5, a5, -0x1
   1bec4: 13 d3 06 03  	srli	t1, a3, 0x30
   1bec8: b3 e8 b8 00  	or	a7, a7, a1
   1becc: 93 d5 f6 03  	srli	a1, a3, 0x3f
   1bed0: f9 8e        	and	a3, a3, a4
   1bed2: 33 78 f8 00  	and	a6, a6, a5
   1bed6: 13 57 d6 03  	srli	a4, a2, 0x3d
   1beda: 8e 06        	slli	a3, a3, 0x3
   1bedc: 33 73 f3 00  	and	t1, t1, a5
   1bee0: 81 24        	sext.w	s1, s1
   1bee2: c2 89        	mv	s3, a6
   1bee4: 0e 05        	slli	a0, a0, 0x3
   1bee6: 55 8f        	or	a4, a4, a3
   1bee8: 0e 06        	slli	a2, a2, 0x3
   1beea: 63 15 f3 00  	bne	t1, a5, 0x1bef4 <__subtf3+0x5a>
   1beee: b3 67 c7 00  	or	a5, a4, a2
   1bef2: 99 e3        	bnez	a5, 0x1bef8 <__subtf3+0x5e>
   1bef4: 93 c5 15 00  	xori	a1, a1, 0x1
   1bef8: bb 06 68 40  	subw	a3, a6, t1
   1befc: 21 6e        	lui	t3, 0x8
   1befe: 9b 87 06 00  	sext.w	a5, a3
   1bf02: 7d 1e        	addi	t3, t3, -0x1
   1bf04: 63 97 25 2b  	bne	a1, s2, 0x1c1b2 <__subtf3+0x318>
   1bf08: 63 58 f0 0e  	blez	a5, 0x1bff8 <__subtf3+0x15e>
   1bf0c: 63 19 03 06  	bnez	t1, 0x1bf7e <__subtf3+0xe4>
   1bf10: b3 67 c7 00  	or	a5, a4, a2
   1bf14: 91 e7        	bnez	a5, 0x1bf20 <__subtf3+0x86>
   1bf16: 63 07 c8 05  	beq	a6, t3, 0x1bf64 <__subtf3+0xca>
   1bf1a: 46 87        	mv	a4, a7
   1bf1c: 2a 86        	mv	a2, a0
   1bf1e: f9 ab        	j	0x1c4fc <__subtf3+0x662>
   1bf20: 9b 87 f6 ff  	addiw	a5, a3, -0x1
   1bf24: 95 ef        	bnez	a5, 0x1bf60 <__subtf3+0xc6>
   1bf26: 2a 96        	add	a2, a2, a0
   1bf28: 46 97        	add	a4, a4, a7
   1bf2a: 33 35 a6 00  	sltu	a0, a2, a0
   1bf2e: 2a 97        	add	a4, a4, a0
   1bf30: 93 16 c7 00  	slli	a3, a4, 0xc
   1bf34: 81 47        	li	a5, 0x0
   1bf36: 63 d4 06 0e  	bgez	a3, 0x1c01e <__subtf3+0x184>
   1bf3a: a1 66        	lui	a3, 0x8
   1bf3c: 85 09        	addi	s3, s3, 0x1
   1bf3e: fd 16        	addi	a3, a3, -0x1
   1bf40: 63 85 d9 24  	beq	s3, a3, 0x1c18a <__subtf3+0x2f0>
   1bf44: fd 56        	li	a3, -0x1
   1bf46: ce 16        	slli	a3, a3, 0x33
   1bf48: fd 16        	addi	a3, a3, -0x1
   1bf4a: f9 8e        	and	a3, a3, a4
   1bf4c: 13 57 16 00  	srli	a4, a2, 0x1
   1bf50: 05 8a        	andi	a2, a2, 0x1
   1bf52: 51 8f        	or	a4, a4, a2
   1bf54: 13 96 f6 03  	slli	a2, a3, 0x3f
   1bf58: 59 8e        	or	a2, a2, a4
   1bf5a: 13 d7 16 00  	srli	a4, a3, 0x1
   1bf5e: c1 a0        	j	0x1c01e <__subtf3+0x184>
   1bf60: 63 14 c8 03  	bne	a6, t3, 0x1bf88 <__subtf3+0xee>
   1bf64: 33 e6 a8 00  	or	a2, a7, a0
   1bf68: 63 0c 06 6c  	beqz	a2, 0x1c640 <__subtf3+0x7a6>
   1bf6c: 93 d7 28 03  	srli	a5, a7, 0x32
   1bf70: 93 c7 17 00  	xori	a5, a5, 0x1
   1bf74: 85 8b        	andi	a5, a5, 0x1
   1bf76: 92 07        	slli	a5, a5, 0x4
   1bf78: 46 87        	mv	a4, a7
   1bf7a: 2a 86        	mv	a2, a0
   1bf7c: 4d a0        	j	0x1c01e <__subtf3+0x184>
   1bf7e: e3 03 c8 ff  	beq	a6, t3, 0x1bf64 <__subtf3+0xca>
   1bf82: 85 46        	li	a3, 0x1
   1bf84: ce 16        	slli	a3, a3, 0x33
   1bf86: 55 8f        	or	a4, a4, a3
   1bf88: 93 06 40 07  	li	a3, 0x74
   1bf8c: 63 c1 f6 06  	blt	a3, a5, 0x1bfee <__subtf3+0x154>
   1bf90: 93 06 f0 03  	li	a3, 0x3f
   1bf94: 63 c9 f6 02  	blt	a3, a5, 0x1bfc6 <__subtf3+0x12c>
   1bf98: 93 05 00 04  	li	a1, 0x40
   1bf9c: 9d 9d        	subw	a1, a1, a5
   1bf9e: b3 16 b7 00  	sll	a3, a4, a1
   1bfa2: 33 58 f6 00  	srl	a6, a2, a5
   1bfa6: b3 15 b6 00  	sll	a1, a2, a1
   1bfaa: b3 e6 06 01  	or	a3, a3, a6
   1bfae: b3 35 b0 00  	snez	a1, a1
   1bfb2: cd 8e        	or	a3, a3, a1
   1bfb4: 33 57 f7 00  	srl	a4, a4, a5
   1bfb8: 36 95        	add	a0, a0, a3
   1bfba: 46 97        	add	a4, a4, a7
   1bfbc: b3 36 d5 00  	sltu	a3, a0, a3
   1bfc0: 2a 86        	mv	a2, a0
   1bfc2: 36 97        	add	a4, a4, a3
   1bfc4: b5 b7        	j	0x1bf30 <__subtf3+0x96>
   1bfc6: 9b 86 07 fc  	addiw	a3, a5, -0x40
   1bfca: 13 08 00 04  	li	a6, 0x40
   1bfce: b3 56 d7 00  	srl	a3, a4, a3
   1bfd2: 81 45        	li	a1, 0x0
   1bfd4: 63 87 07 01  	beq	a5, a6, 0x1bfe2 <__subtf3+0x148>
   1bfd8: 93 05 00 08  	li	a1, 0x80
   1bfdc: 9d 9d        	subw	a1, a1, a5
   1bfde: b3 15 b7 00  	sll	a1, a4, a1
   1bfe2: d1 8d        	or	a1, a1, a2
   1bfe4: b3 35 b0 00  	snez	a1, a1
   1bfe8: cd 8e        	or	a3, a3, a1
   1bfea: 01 47        	li	a4, 0x0
   1bfec: f1 b7        	j	0x1bfb8 <__subtf3+0x11e>
   1bfee: b3 66 c7 00  	or	a3, a4, a2
   1bff2: b3 36 d0 00  	snez	a3, a3
   1bff6: d5 bf        	j	0x1bfea <__subtf3+0x150>
   1bff8: e9 c7        	beqz	a5, 0x1c0c2 <__subtf3+0x228>
   1bffa: 63 12 08 08  	bnez	a6, 0x1c07e <__subtf3+0x1e4>
   1bffe: b3 e7 a8 00  	or	a5, a7, a0
   1c002: 95 e3        	bnez	a5, 0x1c026 <__subtf3+0x18c>
   1c004: 63 1c c3 63  	bne	t1, t3, 0x1c63c <__subtf3+0x7a2>
   1c008: b3 67 c7 00  	or	a5, a4, a2
   1c00c: 63 86 07 62  	beqz	a5, 0x1c638 <__subtf3+0x79e>
   1c010: 93 57 27 03  	srli	a5, a4, 0x32
   1c014: 93 c7 17 00  	xori	a5, a5, 0x1
   1c018: 85 8b        	andi	a5, a5, 0x1
   1c01a: 92 07        	slli	a5, a5, 0x4
   1c01c: 9a 89        	mv	s3, t1
   1c01e: ba 88        	mv	a7, a4
   1c020: 32 85        	mv	a0, a2
   1c022: 01 47        	li	a4, 0x0
   1c024: 31 ab        	j	0x1c540 <__subtf3+0x6a6>
   1c026: 93 c7 f6 ff  	not	a5, a3
   1c02a: 81 27        	sext.w	a5, a5
   1c02c: 81 eb        	bnez	a5, 0x1c03c <__subtf3+0x1a2>
   1c02e: 2a 96        	add	a2, a2, a0
   1c030: 46 97        	add	a4, a4, a7
   1c032: 33 35 a6 00  	sltu	a0, a2, a0
   1c036: 2a 97        	add	a4, a4, a0
   1c038: 9a 89        	mv	s3, t1
   1c03a: dd bd        	j	0x1bf30 <__subtf3+0x96>
   1c03c: e3 06 c3 fd  	beq	t1, t3, 0x1c008 <__subtf3+0x16e>
   1c040: 93 06 40 07  	li	a3, 0x74
   1c044: 63 ca f6 06  	blt	a3, a5, 0x1c0b8 <__subtf3+0x21e>
   1c048: 93 06 f0 03  	li	a3, 0x3f
   1c04c: 63 c2 f6 04  	blt	a3, a5, 0x1c090 <__subtf3+0x1f6>
   1c050: 93 05 00 04  	li	a1, 0x40
   1c054: 9d 9d        	subw	a1, a1, a5
   1c056: b3 96 b8 00  	sll	a3, a7, a1
   1c05a: 33 58 f5 00  	srl	a6, a0, a5
   1c05e: b3 15 b5 00  	sll	a1, a0, a1
   1c062: b3 e6 06 01  	or	a3, a3, a6
   1c066: b3 35 b0 00  	snez	a1, a1
   1c06a: cd 8e        	or	a3, a3, a1
   1c06c: b3 d7 f8 00  	srl	a5, a7, a5
   1c070: 36 96        	add	a2, a2, a3
   1c072: ba 97        	add	a5, a5, a4
   1c074: b3 36 d6 00  	sltu	a3, a2, a3
   1c078: 33 87 d7 00  	add	a4, a5, a3
   1c07c: 75 bf        	j	0x1c038 <__subtf3+0x19e>
   1c07e: e3 05 c3 f9  	beq	t1, t3, 0x1c008 <__subtf3+0x16e>
   1c082: bb 07 d0 40  	negw	a5, a3
   1c086: 85 46        	li	a3, 0x1
   1c088: ce 16        	slli	a3, a3, 0x33
   1c08a: b3 e8 d8 00  	or	a7, a7, a3
   1c08e: 4d bf        	j	0x1c040 <__subtf3+0x1a6>
   1c090: 9b 86 07 fc  	addiw	a3, a5, -0x40
   1c094: 13 08 00 04  	li	a6, 0x40
   1c098: b3 d6 d8 00  	srl	a3, a7, a3
   1c09c: 81 45        	li	a1, 0x0
   1c09e: 63 87 07 01  	beq	a5, a6, 0x1c0ac <__subtf3+0x212>
   1c0a2: 93 05 00 08  	li	a1, 0x80
   1c0a6: 9d 9d        	subw	a1, a1, a5
   1c0a8: b3 95 b8 00  	sll	a1, a7, a1
   1c0ac: c9 8d        	or	a1, a1, a0
   1c0ae: b3 35 b0 00  	snez	a1, a1
   1c0b2: cd 8e        	or	a3, a3, a1
   1c0b4: 81 47        	li	a5, 0x0
   1c0b6: 6d bf        	j	0x1c070 <__subtf3+0x1d6>
   1c0b8: b3 e6 a8 00  	or	a3, a7, a0
   1c0bc: b3 36 d0 00  	snez	a3, a3
   1c0c0: d5 bf        	j	0x1c0b4 <__subtf3+0x21a>
   1c0c2: 93 06 18 00  	addi	a3, a6, 0x1
   1c0c6: 93 9e 16 03  	slli	t4, a3, 0x31
   1c0ca: a1 65        	lui	a1, 0x8
   1c0cc: 93 de 2e 03  	srli	t4, t4, 0x32
   1c0d0: f9 15        	addi	a1, a1, -0x2
   1c0d2: 63 9d 0e 06  	bnez	t4, 0x1c14c <__subtf3+0x2b2>
   1c0d6: b3 e6 a8 00  	or	a3, a7, a0
   1c0da: 63 19 08 02  	bnez	a6, 0x1c10c <__subtf3+0x272>
   1c0de: 63 88 06 56  	beqz	a3, 0x1c64e <__subtf3+0x7b4>
   1c0e2: b3 66 c7 00  	or	a3, a4, a2
   1c0e6: 63 88 06 56  	beqz	a3, 0x1c656 <__subtf3+0x7bc>
   1c0ea: 2a 96        	add	a2, a2, a0
   1c0ec: 46 97        	add	a4, a4, a7
   1c0ee: 33 35 a6 00  	sltu	a0, a2, a0
   1c0f2: b3 08 a7 00  	add	a7, a4, a0
   1c0f6: 13 97 c8 00  	slli	a4, a7, 0xc
   1c0fa: 63 5b 07 26  	bgez	a4, 0x1c370 <__subtf3+0x4d6>
   1c0fe: 7d 57        	li	a4, -0x1
   1c100: 4e 17        	slli	a4, a4, 0x33
   1c102: 7d 17        	addi	a4, a4, -0x1
   1c104: 33 f7 e8 00  	and	a4, a7, a4
   1c108: 85 49        	li	s3, 0x1
   1c10a: 11 bf        	j	0x1c01e <__subtf3+0x184>
   1c10c: 63 15 c8 03  	bne	a6, t3, 0x1c136 <__subtf3+0x29c>
   1c110: 63 8b 06 54  	beqz	a3, 0x1c666 <__subtf3+0x7cc>
   1c114: 93 d7 28 03  	srli	a5, a7, 0x32
   1c118: 93 c7 17 00  	xori	a5, a5, 0x1
   1c11c: 85 8b        	andi	a5, a5, 0x1
   1c11e: 92 07        	slli	a5, a5, 0x4
   1c120: 63 1e 03 01  	bne	t1, a6, 0x1c13c <__subtf3+0x2a2>
   1c124: b3 65 c7 00  	or	a1, a4, a2
   1c128: 89 c9        	beqz	a1, 0x1c13a <__subtf3+0x2a0>
   1c12a: 93 15 d7 00  	slli	a1, a4, 0xd
   1c12e: 63 c6 05 00  	bltz	a1, 0x1c13a <__subtf3+0x2a0>
   1c132: c1 47        	li	a5, 0x10
   1c134: 19 a0        	j	0x1c13a <__subtf3+0x2a0>
   1c136: e3 07 c3 ff  	beq	t1, t3, 0x1c124 <__subtf3+0x28a>
   1c13a: 91 c6        	beqz	a3, 0x1c146 <__subtf3+0x2ac>
   1c13c: 51 8f        	or	a4, a4, a2
   1c13e: 63 1e 07 2c  	bnez	a4, 0x1c41a <__subtf3+0x580>
   1c142: 46 87        	mv	a4, a7
   1c144: 2a 86        	mv	a2, a0
   1c146: a1 69        	lui	s3, 0x8
   1c148: fd 19        	addi	s3, s3, -0x1
   1c14a: d1 bd        	j	0x1c01e <__subtf3+0x184>
   1c14c: 63 8e c6 01  	beq	a3, t3, 0x1c168 <__subtf3+0x2ce>
   1c150: 2a 96        	add	a2, a2, a0
   1c152: 33 35 a6 00  	sltu	a0, a2, a0
   1c156: 46 97        	add	a4, a4, a7
   1c158: 2a 97        	add	a4, a4, a0
   1c15a: 93 15 f7 03  	slli	a1, a4, 0x3f
   1c15e: 05 82        	srli	a2, a2, 0x1
   1c160: 4d 8e        	or	a2, a2, a1
   1c162: 05 83        	srli	a4, a4, 0x1
   1c164: b6 89        	mv	s3, a3
   1c166: 65 bd        	j	0x1c01e <__subtf3+0x184>
   1c168: 99 cc        	beqz	s1, 0x1c186 <__subtf3+0x2ec>
   1c16a: 8d 47        	li	a5, 0x3
   1c16c: 63 98 f4 00  	bne	s1, a5, 0x1c17c <__subtf3+0x2e2>
   1c170: 63 0b 09 00  	beqz	s2, 0x1c186 <__subtf3+0x2ec>
   1c174: 7d 57        	li	a4, -0x1
   1c176: 7d 56        	li	a2, -0x1
   1c178: ae 89        	mv	s3, a1
   1c17a: 15 a8        	j	0x1c1ae <__subtf3+0x314>
   1c17c: 89 47        	li	a5, 0x2
   1c17e: e3 9b f4 fe  	bne	s1, a5, 0x1c174 <__subtf3+0x2da>
   1c182: e3 09 09 fe  	beqz	s2, 0x1c174 <__subtf3+0x2da>
   1c186: b6 89        	mv	s3, a3
   1c188: 0d a0        	j	0x1c1aa <__subtf3+0x310>
   1c18a: 85 c0        	beqz	s1, 0x1c1aa <__subtf3+0x310>
   1c18c: 8d 47        	li	a5, 0x3
   1c18e: 63 99 f4 00  	bne	s1, a5, 0x1c1a0 <__subtf3+0x306>
   1c192: 63 0c 09 00  	beqz	s2, 0x1c1aa <__subtf3+0x310>
   1c196: a1 69        	lui	s3, 0x8
   1c198: 7d 57        	li	a4, -0x1
   1c19a: 7d 56        	li	a2, -0x1
   1c19c: f9 19        	addi	s3, s3, -0x2
   1c19e: 01 a8        	j	0x1c1ae <__subtf3+0x314>
   1c1a0: 89 47        	li	a5, 0x2
   1c1a2: e3 9a f4 fe  	bne	s1, a5, 0x1c196 <__subtf3+0x2fc>
   1c1a6: e3 08 09 fe  	beqz	s2, 0x1c196 <__subtf3+0x2fc>
   1c1aa: 01 47        	li	a4, 0x0
   1c1ac: 01 46        	li	a2, 0x0
   1c1ae: 95 47        	li	a5, 0x5
   1c1b0: bd b5        	j	0x1c01e <__subtf3+0x184>
   1c1b2: 63 58 f0 0a  	blez	a5, 0x1c262 <__subtf3+0x3c8>
   1c1b6: 63 17 03 06  	bnez	t1, 0x1c224 <__subtf3+0x38a>
   1c1ba: b3 67 c7 00  	or	a5, a4, a2
   1c1be: e3 8c 07 d4  	beqz	a5, 0x1bf16 <__subtf3+0x7c>
   1c1c2: 9b 87 f6 ff  	addiw	a5, a3, -0x1
   1c1c6: 8d e3        	bnez	a5, 0x1c1e8 <__subtf3+0x34e>
   1c1c8: 33 06 c5 40  	sub	a2, a0, a2
   1c1cc: 33 87 e8 40  	sub	a4, a7, a4
   1c1d0: 33 35 c5 00  	sltu	a0, a0, a2
   1c1d4: 09 8f        	sub	a4, a4, a0
   1c1d6: 93 17 c7 00  	slli	a5, a4, 0xc
   1c1da: 63 d1 07 32  	bgez	a5, 0x1c4fc <__subtf3+0x662>
   1c1de: 13 14 d7 00  	slli	s0, a4, 0xd
   1c1e2: 35 80        	srli	s0, s0, 0xd
   1c1e4: 32 8a        	mv	s4, a2
   1c1e6: 9d a4        	j	0x1c44c <__subtf3+0x5b2>
   1c1e8: e3 0e c8 d7  	beq	a6, t3, 0x1bf64 <__subtf3+0xca>
   1c1ec: 93 06 40 07  	li	a3, 0x74
   1c1f0: 63 c4 f6 06  	blt	a3, a5, 0x1c258 <__subtf3+0x3be>
   1c1f4: 93 06 f0 03  	li	a3, 0x3f
   1c1f8: 63 cc f6 02  	blt	a3, a5, 0x1c230 <__subtf3+0x396>
   1c1fc: 93 05 00 04  	li	a1, 0x40
   1c200: 9d 9d        	subw	a1, a1, a5
   1c202: b3 16 b7 00  	sll	a3, a4, a1
   1c206: 33 58 f6 00  	srl	a6, a2, a5
   1c20a: b3 15 b6 00  	sll	a1, a2, a1
   1c20e: b3 e6 06 01  	or	a3, a3, a6
   1c212: b3 35 b0 00  	snez	a1, a1
   1c216: cd 8e        	or	a3, a3, a1
   1c218: 33 57 f7 00  	srl	a4, a4, a5
   1c21c: b3 06 d5 40  	sub	a3, a0, a3
   1c220: 36 86        	mv	a2, a3
   1c222: 6d b7        	j	0x1c1cc <__subtf3+0x332>
   1c224: e3 00 c8 d5  	beq	a6, t3, 0x1bf64 <__subtf3+0xca>
   1c228: 85 46        	li	a3, 0x1
   1c22a: ce 16        	slli	a3, a3, 0x33
   1c22c: 55 8f        	or	a4, a4, a3
   1c22e: 7d bf        	j	0x1c1ec <__subtf3+0x352>
   1c230: 9b 86 07 fc  	addiw	a3, a5, -0x40
   1c234: 13 08 00 04  	li	a6, 0x40
   1c238: b3 56 d7 00  	srl	a3, a4, a3
   1c23c: 81 45        	li	a1, 0x0
   1c23e: 63 87 07 01  	beq	a5, a6, 0x1c24c <__subtf3+0x3b2>
   1c242: 93 05 00 08  	li	a1, 0x80
   1c246: 9d 9d        	subw	a1, a1, a5
   1c248: b3 15 b7 00  	sll	a1, a4, a1
   1c24c: d1 8d        	or	a1, a1, a2
   1c24e: b3 35 b0 00  	snez	a1, a1
   1c252: cd 8e        	or	a3, a3, a1
   1c254: 01 47        	li	a4, 0x0
   1c256: d9 b7        	j	0x1c21c <__subtf3+0x382>
   1c258: b3 66 c7 00  	or	a3, a4, a2
   1c25c: b3 36 d0 00  	snez	a3, a3
   1c260: d5 bf        	j	0x1c254 <__subtf3+0x3ba>
   1c262: f9 cf        	beqz	a5, 0x1c340 <__subtf3+0x4a6>
   1c264: 63 19 08 08  	bnez	a6, 0x1c2f6 <__subtf3+0x45c>
   1c268: b3 e7 a8 00  	or	a5, a7, a0
   1c26c: 85 e3        	bnez	a5, 0x1c28c <__subtf3+0x3f2>
   1c26e: 63 1d c3 3d  	bne	t1, t3, 0x1c648 <__subtf3+0x7ae>
   1c272: b3 67 c7 00  	or	a5, a4, a2
   1c276: 63 87 07 3c  	beqz	a5, 0x1c644 <__subtf3+0x7aa>
   1c27a: 93 57 27 03  	srli	a5, a4, 0x32
   1c27e: 93 c7 17 00  	xori	a5, a5, 0x1
   1c282: 85 8b        	andi	a5, a5, 0x1
   1c284: 92 07        	slli	a5, a5, 0x4
   1c286: 9a 89        	mv	s3, t1
   1c288: 2e 89        	mv	s2, a1
   1c28a: 51 bb        	j	0x1c01e <__subtf3+0x184>
   1c28c: 93 c7 f6 ff  	not	a5, a3
   1c290: 81 27        	sext.w	a5, a5
   1c292: 81 ef        	bnez	a5, 0x1c2aa <__subtf3+0x410>
   1c294: 33 05 a6 40  	sub	a0, a2, a0
   1c298: b3 37 a6 00  	sltu	a5, a2, a0
   1c29c: 33 07 17 41  	sub	a4, a4, a7
   1c2a0: 2a 86        	mv	a2, a0
   1c2a2: 1d 8f        	sub	a4, a4, a5
   1c2a4: 9a 89        	mv	s3, t1
   1c2a6: 2e 89        	mv	s2, a1
   1c2a8: 3d b7        	j	0x1c1d6 <__subtf3+0x33c>
   1c2aa: e3 04 c3 fd  	beq	t1, t3, 0x1c272 <__subtf3+0x3d8>
   1c2ae: 93 06 40 07  	li	a3, 0x74
   1c2b2: 63 c2 f6 08  	blt	a3, a5, 0x1c336 <__subtf3+0x49c>
   1c2b6: 93 06 f0 03  	li	a3, 0x3f
   1c2ba: 63 c7 f6 04  	blt	a3, a5, 0x1c308 <__subtf3+0x46e>
   1c2be: 13 08 00 04  	li	a6, 0x40
   1c2c2: 3b 08 f8 40  	subw	a6, a6, a5
   1c2c6: b3 96 08 01  	sll	a3, a7, a6
   1c2ca: 33 5e f5 00  	srl	t3, a0, a5
   1c2ce: 33 18 05 01  	sll	a6, a0, a6
   1c2d2: b3 e6 c6 01  	or	a3, a3, t3
   1c2d6: 33 38 00 01  	snez	a6, a6
   1c2da: b3 e6 06 01  	or	a3, a3, a6
   1c2de: b3 d7 f8 00  	srl	a5, a7, a5
   1c2e2: b3 06 d6 40  	sub	a3, a2, a3
   1c2e6: 33 35 d6 00  	sltu	a0, a2, a3
   1c2ea: b3 07 f7 40  	sub	a5, a4, a5
   1c2ee: 36 86        	mv	a2, a3
   1c2f0: 33 87 a7 40  	sub	a4, a5, a0
   1c2f4: 45 bf        	j	0x1c2a4 <__subtf3+0x40a>
   1c2f6: e3 0e c3 f7  	beq	t1, t3, 0x1c272 <__subtf3+0x3d8>
   1c2fa: bb 07 d0 40  	negw	a5, a3
   1c2fe: 85 46        	li	a3, 0x1
   1c300: ce 16        	slli	a3, a3, 0x33
   1c302: b3 e8 d8 00  	or	a7, a7, a3
   1c306: 65 b7        	j	0x1c2ae <__subtf3+0x414>
   1c308: 9b 86 07 fc  	addiw	a3, a5, -0x40
   1c30c: 13 0e 00 04  	li	t3, 0x40
   1c310: b3 d6 d8 00  	srl	a3, a7, a3
   1c314: 01 48        	li	a6, 0x0
   1c316: 63 88 c7 01  	beq	a5, t3, 0x1c326 <__subtf3+0x48c>
   1c31a: 13 08 00 08  	li	a6, 0x80
   1c31e: 3b 08 f8 40  	subw	a6, a6, a5
   1c322: 33 98 08 01  	sll	a6, a7, a6
   1c326: 33 68 a8 00  	or	a6, a6, a0
   1c32a: 33 38 00 01  	snez	a6, a6
   1c32e: b3 e6 06 01  	or	a3, a3, a6
   1c332: 81 47        	li	a5, 0x0
   1c334: 7d b7        	j	0x1c2e2 <__subtf3+0x448>
   1c336: b3 e6 a8 00  	or	a3, a7, a0
   1c33a: b3 36 d0 00  	snez	a3, a3
   1c33e: d5 bf        	j	0x1c332 <__subtf3+0x498>
   1c340: 93 06 18 00  	addi	a3, a6, 0x1
   1c344: 93 9e 16 03  	slli	t4, a3, 0x31
   1c348: 93 de 2e 03  	srli	t4, t4, 0x32
   1c34c: 63 9c 0e 0c  	bnez	t4, 0x1c424 <__subtf3+0x58a>
   1c350: b3 66 c7 00  	or	a3, a4, a2
   1c354: b3 ee a8 00  	or	t4, a7, a0
   1c358: 63 17 08 06  	bnez	a6, 0x1c3c6 <__subtf3+0x52c>
   1c35c: 63 92 0e 02  	bnez	t4, 0x1c380 <__subtf3+0x4e6>
   1c360: 63 99 06 2e  	bnez	a3, 0x1c652 <__subtf3+0x7b8>
   1c364: 13 89 e4 ff  	addi	s2, s1, -0x2
   1c368: 13 39 19 00  	seqz	s2, s2
   1c36c: 81 48        	li	a7, 0x0
   1c36e: 01 46        	li	a2, 0x0
   1c370: 33 e5 c8 00  	or	a0, a7, a2
   1c374: 63 16 05 18  	bnez	a0, 0x1c500 <__subtf3+0x666>
   1c378: 81 48        	li	a7, 0x0
   1c37a: 81 49        	li	s3, 0x0
   1c37c: 81 47        	li	a5, 0x0
   1c37e: 0d a4        	j	0x1c5a0 <__subtf3+0x706>
   1c380: 63 8b 06 2c  	beqz	a3, 0x1c656 <__subtf3+0x7bc>
   1c384: b3 06 c5 40  	sub	a3, a0, a2
   1c388: 33 38 d5 00  	sltu	a6, a0, a3
   1c38c: b3 87 e8 40  	sub	a5, a7, a4
   1c390: b3 87 07 41  	sub	a5, a5, a6
   1c394: 13 98 c7 00  	slli	a6, a5, 0xc
   1c398: 63 5d 08 00  	bgez	a6, 0x1c3b2 <__subtf3+0x518>
   1c39c: 33 05 a6 40  	sub	a0, a2, a0
   1c3a0: b3 37 a6 00  	sltu	a5, a2, a0
   1c3a4: 33 07 17 41  	sub	a4, a4, a7
   1c3a8: 2a 86        	mv	a2, a0
   1c3aa: b3 08 f7 40  	sub	a7, a4, a5
   1c3ae: 2e 89        	mv	s2, a1
   1c3b0: c1 b7        	j	0x1c370 <__subtf3+0x4d6>
   1c3b2: 33 e6 f6 00  	or	a2, a3, a5
   1c3b6: 63 12 06 2a  	bnez	a2, 0x1c65a <__subtf3+0x7c0>
   1c3ba: 13 89 e4 ff  	addi	s2, s1, -0x2
   1c3be: 13 39 19 00  	seqz	s2, s2
   1c3c2: 81 48        	li	a7, 0x0
   1c3c4: 75 b7        	j	0x1c370 <__subtf3+0x4d6>
   1c3c6: 63 19 c8 03  	bne	a6, t3, 0x1c3f8 <__subtf3+0x55e>
   1c3ca: 63 8b 0e 28  	beqz	t4, 0x1c660 <__subtf3+0x7c6>
   1c3ce: 93 d7 28 03  	srli	a5, a7, 0x32
   1c3d2: 93 c7 17 00  	xori	a5, a5, 0x1
   1c3d6: 85 8b        	andi	a5, a5, 0x1
   1c3d8: 92 07        	slli	a5, a5, 0x4
   1c3da: 63 1e 03 03  	bne	t1, a6, 0x1c416 <__subtf3+0x57c>
   1c3de: 99 ce        	beqz	a3, 0x1c3fc <__subtf3+0x562>
   1c3e0: 05 48        	li	a6, 0x1
   1c3e2: 13 13 d7 00  	slli	t1, a4, 0xd
   1c3e6: 4a 18        	slli	a6, a6, 0x32
   1c3e8: 63 4a 03 00  	bltz	t1, 0x1c3fc <__subtf3+0x562>
   1c3ec: 2e 89        	mv	s2, a1
   1c3ee: 63 80 0e 02  	beqz	t4, 0x1c40e <__subtf3+0x574>
   1c3f2: 01 49        	li	s2, 0x0
   1c3f4: 42 87        	mv	a4, a6
   1c3f6: 19 a8        	j	0x1c40c <__subtf3+0x572>
   1c3f8: e3 03 c3 ff  	beq	t1, t3, 0x1c3de <__subtf3+0x544>
   1c3fc: 63 9d 0e 00  	bnez	t4, 0x1c416 <__subtf3+0x57c>
   1c400: 2e 89        	mv	s2, a1
   1c402: e3 92 06 d4  	bnez	a3, 0x1c146 <__subtf3+0x2ac>
   1c406: 05 47        	li	a4, 0x1
   1c408: 01 49        	li	s2, 0x0
   1c40a: 4a 17        	slli	a4, a4, 0x32
   1c40c: 01 46        	li	a2, 0x0
   1c40e: a1 69        	lui	s3, 0x8
   1c410: fd 19        	addi	s3, s3, -0x1
   1c412: c1 47        	li	a5, 0x10
   1c414: 29 b1        	j	0x1c01e <__subtf3+0x184>
   1c416: e3 86 06 d2  	beqz	a3, 0x1c142 <__subtf3+0x2a8>
   1c41a: 05 47        	li	a4, 0x1
   1c41c: 01 49        	li	s2, 0x0
   1c41e: 4a 17        	slli	a4, a4, 0x32
   1c420: 01 46        	li	a2, 0x0
   1c422: 15 b3        	j	0x1c146 <__subtf3+0x2ac>
   1c424: b3 07 c5 40  	sub	a5, a0, a2
   1c428: b3 36 f5 00  	sltu	a3, a0, a5
   1c42c: 33 84 e8 40  	sub	s0, a7, a4
   1c430: 15 8c        	sub	s0, s0, a3
   1c432: 93 16 c4 00  	slli	a3, s0, 0xc
   1c436: 3e 8a        	mv	s4, a5
   1c438: 63 d5 06 06  	bgez	a3, 0x1c4a2 <__subtf3+0x608>
   1c43c: 33 0a a6 40  	sub	s4, a2, a0
   1c440: 33 04 17 41  	sub	s0, a4, a7
   1c444: 33 36 46 01  	sltu	a2, a2, s4
   1c448: 11 8c        	sub	s0, s0, a2
   1c44a: 2e 89        	mv	s2, a1
   1c44c: 39 cc        	beqz	s0, 0x1c4aa <__subtf3+0x610>
   1c44e: 22 85        	mv	a0, s0
   1c450: ef 00 20 6d  	jal	0x1cb22 <__clzdi2>
   1c454: 1b 06 45 ff  	addiw	a2, a0, -0xc
   1c458: 13 07 00 04  	li	a4, 0x40
   1c45c: 11 9f        	subw	a4, a4, a2
   1c45e: 33 14 c4 00  	sll	s0, s0, a2
   1c462: 33 57 ea 00  	srl	a4, s4, a4
   1c466: 41 8f        	or	a4, a4, s0
   1c468: 33 14 ca 00  	sll	s0, s4, a2
   1c46c: 63 41 36 09  	blt	a2, s3, 0x1c4ee <__subtf3+0x654>
   1c470: 3b 06 36 41  	subw	a2, a2, s3
   1c474: 9b 08 16 00  	addiw	a7, a2, 0x1
   1c478: 93 07 f0 03  	li	a5, 0x3f
   1c47c: 63 c5 17 05  	blt	a5, a7, 0x1c4c6 <__subtf3+0x62c>
   1c480: 93 07 00 04  	li	a5, 0x40
   1c484: bb 87 17 41  	subw	a5, a5, a7
   1c488: 33 16 f7 00  	sll	a2, a4, a5
   1c48c: b3 56 14 01  	srl	a3, s0, a7
   1c490: b3 17 f4 00  	sll	a5, s0, a5
   1c494: 55 8e        	or	a2, a2, a3
   1c496: b3 37 f0 00  	snez	a5, a5
   1c49a: 5d 8e        	or	a2, a2, a5
   1c49c: b3 58 17 01  	srl	a7, a4, a7
   1c4a0: c1 bd        	j	0x1c370 <__subtf3+0x4d6>
   1c4a2: 33 e6 87 00  	or	a2, a5, s0
   1c4a6: 5d f2        	bnez	a2, 0x1c44c <__subtf3+0x5b2>
   1c4a8: 09 bf        	j	0x1c3ba <__subtf3+0x520>
   1c4aa: 52 85        	mv	a0, s4
   1c4ac: ef 00 60 67  	jal	0x1cb22 <__clzdi2>
   1c4b0: 1b 06 45 03  	addiw	a2, a0, 0x34
   1c4b4: 93 07 f0 03  	li	a5, 0x3f
   1c4b8: e3 d0 c7 fa  	bge	a5, a2, 0x1c458 <__subtf3+0x5be>
   1c4bc: 1b 07 45 ff  	addiw	a4, a0, -0xc
   1c4c0: 33 17 ea 00  	sll	a4, s4, a4
   1c4c4: 65 b7        	j	0x1c46c <__subtf3+0x5d2>
   1c4c6: 1b 06 16 fc  	addiw	a2, a2, -0x3f
   1c4ca: 93 05 00 04  	li	a1, 0x40
   1c4ce: 33 56 c7 00  	srl	a2, a4, a2
   1c4d2: 81 47        	li	a5, 0x0
   1c4d4: 63 88 b8 00  	beq	a7, a1, 0x1c4e4 <__subtf3+0x64a>
   1c4d8: 93 07 00 08  	li	a5, 0x80
   1c4dc: bb 87 17 41  	subw	a5, a5, a7
   1c4e0: b3 17 f7 00  	sll	a5, a4, a5
   1c4e4: c1 8f        	or	a5, a5, s0
   1c4e6: b3 37 f0 00  	snez	a5, a5
   1c4ea: 5d 8e        	or	a2, a2, a5
   1c4ec: d9 bd        	j	0x1c3c2 <__subtf3+0x528>
   1c4ee: fd 57        	li	a5, -0x1
   1c4f0: ce 17        	slli	a5, a5, 0x33
   1c4f2: fd 17        	addi	a5, a5, -0x1
   1c4f4: b3 89 c9 40  	sub	s3, s3, a2
   1c4f8: 7d 8f        	and	a4, a4, a5
   1c4fa: 22 86        	mv	a2, s0
   1c4fc: 81 47        	li	a5, 0x0
   1c4fe: 05 b6        	j	0x1c01e <__subtf3+0x184>
   1c500: 93 16 16 00  	slli	a3, a2, 0x1
   1c504: 93 57 f6 03  	srli	a5, a2, 0x3f
   1c508: 13 97 18 00  	slli	a4, a7, 0x1
   1c50c: 93 f5 76 00  	andi	a1, a3, 0x7
   1c510: 3e 97        	add	a4, a4, a5
   1c512: 81 47        	li	a5, 0x0
   1c514: 85 c1        	beqz	a1, 0x1c534 <__subtf3+0x69a>
   1c516: 89 47        	li	a5, 0x2
   1c518: 63 84 f4 06  	beq	s1, a5, 0x1c580 <__subtf3+0x6e6>
   1c51c: 8d 47        	li	a5, 0x3
   1c51e: 63 88 f4 04  	beq	s1, a5, 0x1c56e <__subtf3+0x6d4>
   1c522: 85 47        	li	a5, 0x1
   1c524: 81 e8        	bnez	s1, 0x1c534 <__subtf3+0x69a>
   1c526: 93 f5 f6 00  	andi	a1, a3, 0xf
   1c52a: 11 45        	li	a0, 0x4
   1c52c: 93 b6 c6 ff  	sltiu	a3, a3, -0x4
   1c530: 63 94 a5 04  	bne	a1, a0, 0x1c578 <__subtf3+0x6de>
   1c534: 51 93        	srli	a4, a4, 0x34
   1c536: 13 47 17 00  	xori	a4, a4, 0x1
   1c53a: 05 8b        	andi	a4, a4, 0x1
   1c53c: 32 85        	mv	a0, a2
   1c53e: 81 49        	li	s3, 0x0
   1c540: 93 76 76 00  	andi	a3, a2, 0x7
   1c544: a9 ca        	beqz	a3, 0x1c596 <__subtf3+0x6fc>
   1c546: 89 46        	li	a3, 0x2
   1c548: 93 e7 17 00  	ori	a5, a5, 0x1
   1c54c: 63 83 d4 04  	beq	s1, a3, 0x1c592 <__subtf3+0x6f8>
   1c550: 8d 46        	li	a3, 0x3
   1c552: 63 8b d4 02  	beq	s1, a3, 0x1c588 <__subtf3+0x6ee>
   1c556: a1 e0        	bnez	s1, 0x1c596 <__subtf3+0x6fc>
   1c558: 93 76 f6 00  	andi	a3, a2, 0xf
   1c55c: 91 45        	li	a1, 0x4
   1c55e: 63 8c b6 02  	beq	a3, a1, 0x1c596 <__subtf3+0x6fc>
   1c562: 13 05 46 00  	addi	a0, a2, 0x4
   1c566: 33 36 c5 00  	sltu	a2, a0, a2
   1c56a: b2 98        	add	a7, a7, a2
   1c56c: 2d a0        	j	0x1c596 <__subtf3+0x6fc>
   1c56e: 85 47        	li	a5, 0x1
   1c570: e3 12 09 fc  	bnez	s2, 0x1c534 <__subtf3+0x69a>
   1c574: 93 b6 86 ff  	sltiu	a3, a3, -0x8
   1c578: 93 c6 16 00  	xori	a3, a3, 0x1
   1c57c: 36 97        	add	a4, a4, a3
   1c57e: 5d bf        	j	0x1c534 <__subtf3+0x69a>
   1c580: 85 47        	li	a5, 0x1
   1c582: e3 09 09 fa  	beqz	s2, 0x1c534 <__subtf3+0x69a>
   1c586: fd b7        	j	0x1c574 <__subtf3+0x6da>
   1c588: 63 17 09 00  	bnez	s2, 0x1c596 <__subtf3+0x6fc>
   1c58c: 13 05 86 00  	addi	a0, a2, 0x8
   1c590: d9 bf        	j	0x1c566 <__subtf3+0x6cc>
   1c592: e3 1d 09 fe  	bnez	s2, 0x1c58c <__subtf3+0x6f2>
   1c596: 09 c7        	beqz	a4, 0x1c5a0 <__subtf3+0x706>
   1c598: 13 f7 17 00  	andi	a4, a5, 0x1
   1c59c: 06 07        	slli	a4, a4, 0x1
   1c59e: d9 8f        	or	a5, a5, a4
   1c5a0: 13 97 c8 00  	slli	a4, a7, 0xc
   1c5a4: 63 5c 07 00  	bgez	a4, 0x1c5bc <__subtf3+0x722>
   1c5a8: 21 67        	lui	a4, 0x8
   1c5aa: 85 09        	addi	s3, s3, 0x1
   1c5ac: 7d 17        	addi	a4, a4, -0x1
   1c5ae: 63 81 e9 06  	beq	s3, a4, 0x1c610 <__subtf3+0x776>
   1c5b2: 7d 57        	li	a4, -0x1
   1c5b4: 4e 17        	slli	a4, a4, 0x33
   1c5b6: 7d 17        	addi	a4, a4, -0x1
   1c5b8: b3 f8 e8 00  	and	a7, a7, a4
   1c5bc: 13 97 d8 03  	slli	a4, a7, 0x3d
   1c5c0: 0d 81        	srli	a0, a0, 0x3
   1c5c2: 59 8d        	or	a0, a0, a4
   1c5c4: 21 67        	lui	a4, 0x8
   1c5c6: 7d 17        	addi	a4, a4, -0x1
   1c5c8: 93 d8 38 00  	srli	a7, a7, 0x3
   1c5cc: 63 9a e9 00  	bne	s3, a4, 0x1c5e0 <__subtf3+0x746>
   1c5d0: 33 65 15 01  	or	a0, a0, a7
   1c5d4: 81 48        	li	a7, 0x0
   1c5d6: 09 c5        	beqz	a0, 0x1c5e0 <__subtf3+0x746>
   1c5d8: 85 48        	li	a7, 0x1
   1c5da: be 18        	slli	a7, a7, 0x2f
   1c5dc: 01 45        	li	a0, 0x0
   1c5de: 01 49        	li	s2, 0x0
   1c5e0: c6 19        	slli	s3, s3, 0x31
   1c5e2: 1b 19 f9 00  	slliw	s2, s2, 0xf
   1c5e6: 93 d9 19 03  	srli	s3, s3, 0x31
   1c5ea: 93 95 08 01  	slli	a1, a7, 0x10
   1c5ee: b3 e9 29 01  	or	s3, s3, s2
   1c5f2: c2 19        	slli	s3, s3, 0x30
   1c5f4: c1 81        	srli	a1, a1, 0x10
   1c5f6: b3 e5 35 01  	or	a1, a1, s3
   1c5fa: 99 c3        	beqz	a5, 0x1c600 <__subtf3+0x766>
   1c5fc: 73 a0 17 00  	csrs	fflags, a5
   1c600: a2 70        	ld	ra, 0x28(sp)
   1c602: 02 74        	ld	s0, 0x20(sp)
   1c604: e2 64        	ld	s1, 0x18(sp)
   1c606: 42 69        	ld	s2, 0x10(sp)
   1c608: a2 69        	ld	s3, 0x8(sp)
   1c60a: 02 6a        	ld	s4, 0x0(sp)
   1c60c: 45 61        	addi	sp, sp, 0x30
   1c60e: 82 80        	ret
   1c610: 01 45        	li	a0, 0x0
   1c612: 99 cc        	beqz	s1, 0x1c630 <__subtf3+0x796>
   1c614: 0d 47        	li	a4, 0x3
   1c616: 63 98 e4 00  	bne	s1, a4, 0x1c626 <__subtf3+0x78c>
   1c61a: 63 0b 09 00  	beqz	s2, 0x1c630 <__subtf3+0x796>
   1c61e: a1 69        	lui	s3, 0x8
   1c620: 7d 55        	li	a0, -0x1
   1c622: f9 19        	addi	s3, s3, -0x2
   1c624: 31 a0        	j	0x1c630 <__subtf3+0x796>
   1c626: 09 47        	li	a4, 0x2
   1c628: e3 9b e4 fe  	bne	s1, a4, 0x1c61e <__subtf3+0x784>
   1c62c: e3 09 09 fe  	beqz	s2, 0x1c61e <__subtf3+0x784>
   1c630: 93 e7 57 00  	ori	a5, a5, 0x5
   1c634: aa 88        	mv	a7, a0
   1c636: 59 b7        	j	0x1c5bc <__subtf3+0x722>
   1c638: 01 47        	li	a4, 0x0
   1c63a: 01 46        	li	a2, 0x0
   1c63c: 9a 89        	mv	s3, t1
   1c63e: 7d bd        	j	0x1c4fc <__subtf3+0x662>
   1c640: 01 47        	li	a4, 0x0
   1c642: 6d bd        	j	0x1c4fc <__subtf3+0x662>
   1c644: 01 47        	li	a4, 0x0
   1c646: 01 46        	li	a2, 0x0
   1c648: 9a 89        	mv	s3, t1
   1c64a: 2e 89        	mv	s2, a1
   1c64c: 45 bd        	j	0x1c4fc <__subtf3+0x662>
   1c64e: ba 88        	mv	a7, a4
   1c650: 05 b3        	j	0x1c370 <__subtf3+0x4d6>
   1c652: ba 88        	mv	a7, a4
   1c654: a9 bb        	j	0x1c3ae <__subtf3+0x514>
   1c656: 2a 86        	mv	a2, a0
   1c658: 21 bb        	j	0x1c370 <__subtf3+0x4d6>
   1c65a: be 88        	mv	a7, a5
   1c65c: 36 86        	mv	a2, a3
   1c65e: 09 bb        	j	0x1c370 <__subtf3+0x4d6>
   1c660: e3 10 03 db  	bne	t1, a6, 0x1c400 <__subtf3+0x566>
   1c664: ad bb        	j	0x1c3de <__subtf3+0x544>
   1c666: e3 1c 03 9b  	bne	t1, a6, 0x1c01e <__subtf3+0x184>
   1c66a: 6d bc        	j	0x1c124 <__subtf3+0x28a>

000000000001c66c <__unordtf2>:
   1c66c: 2a 87        	mv	a4, a0
   1c66e: f3 27 20 00  	frrm	a5
   1c672: 7d 55        	li	a0, -0x1
   1c674: 93 57 05 01  	srli	a5, a0, 0x10
   1c678: 21 68        	lui	a6, 0x8
   1c67a: b3 f8 f5 00  	and	a7, a1, a5
   1c67e: 7d 18        	addi	a6, a6, -0x1
   1c680: c1 91        	srli	a1, a1, 0x30
   1c682: f5 8f        	and	a5, a5, a3
   1c684: b3 f5 05 01  	and	a1, a1, a6
   1c688: c1 92        	srli	a3, a3, 0x30
   1c68a: b3 f6 06 01  	and	a3, a3, a6
   1c68e: 63 96 05 01  	bne	a1, a6, 0x1c69a <__unordtf2+0x2e>
   1c692: 33 63 17 01  	or	t1, a4, a7
   1c696: 63 13 03 02  	bnez	t1, 0x1c6bc <__unordtf2+0x50>
   1c69a: 01 45        	li	a0, 0x0
   1c69c: 63 92 06 05  	bne	a3, a6, 0x1c6e0 <__unordtf2+0x74>
   1c6a0: 33 68 f6 00  	or	a6, a2, a5
   1c6a4: 63 0e 08 02  	beqz	a6, 0x1c6e0 <__unordtf2+0x74>
   1c6a8: 63 93 d5 02  	bne	a1, a3, 0x1c6ce <__unordtf2+0x62>
   1c6ac: 33 67 17 01  	or	a4, a4, a7
   1c6b0: 01 cf        	beqz	a4, 0x1c6c8 <__unordtf2+0x5c>
   1c6b2: 7d 57        	li	a4, -0x1
   1c6b4: 45 83        	srli	a4, a4, 0x11
   1c6b6: 63 71 17 03  	bgeu	a4, a7, 0x1c6d8 <__unordtf2+0x6c>
   1c6ba: 39 a0        	j	0x1c6c8 <__unordtf2+0x5c>
   1c6bc: 45 81        	srli	a0, a0, 0x11
   1c6be: 63 7d 15 01  	bgeu	a0, a7, 0x1c6d8 <__unordtf2+0x6c>
   1c6c2: 05 45        	li	a0, 0x1
   1c6c4: 63 9e b6 00  	bne	a3, a1, 0x1c6e0 <__unordtf2+0x74>
   1c6c8: 5d 8e        	or	a2, a2, a5
   1c6ca: 05 45        	li	a0, 0x1
   1c6cc: 11 ca        	beqz	a2, 0x1c6e0 <__unordtf2+0x74>
   1c6ce: 7d 57        	li	a4, -0x1
   1c6d0: 45 83        	srli	a4, a4, 0x11
   1c6d2: 05 45        	li	a0, 0x1
   1c6d4: 63 66 f7 00  	bltu	a4, a5, 0x1c6e0 <__unordtf2+0x74>
   1c6d8: 73 60 18 00  	csrsi	fflags, 0x10
   1c6dc: 05 45        	li	a0, 0x1
   1c6de: 82 80        	ret
   1c6e0: 82 80        	ret

000000000001c6e2 <__fixtfsi>:
   1c6e2: f3 27 20 00  	frrm	a5
   1c6e6: 11 67        	lui	a4, 0x4
   1c6e8: 93 96 15 00  	slli	a3, a1, 0x1
   1c6ec: 93 97 05 01  	slli	a5, a1, 0x10
   1c6f0: c5 92        	srli	a3, a3, 0x31
   1c6f2: 79 17        	addi	a4, a4, -0x2
   1c6f4: c1 83        	srli	a5, a5, 0x10
   1c6f6: fd 91        	srli	a1, a1, 0x3f
   1c6f8: 63 47 d7 00  	blt	a4, a3, 0x1c706 <__fixtfsi+0x24>
   1c6fc: b1 ee        	bnez	a3, 0x1c758 <__fixtfsi+0x76>
   1c6fe: c9 8f        	or	a5, a5, a0
   1c700: 01 45        	li	a0, 0x0
   1c702: a9 eb        	bnez	a5, 0x1c754 <__fixtfsi+0x72>
   1c704: 82 80        	ret
   1c706: 11 67        	lui	a4, 0x4
   1c708: 75 07        	addi	a4, a4, 0x1d
   1c70a: 63 50 d7 02  	bge	a4, a3, 0x1c72a <__fixtfsi+0x48>
   1c70e: b9 c5        	beqz	a1, 0x1c75c <__fixtfsi+0x7a>
   1c710: 11 67        	lui	a4, 0x4
   1c712: 79 07        	addi	a4, a4, 0x1e
   1c714: 63 9c e6 04  	bne	a3, a4, 0x1c76c <__fixtfsi+0x8a>
   1c718: 13 d7 17 01  	srli	a4, a5, 0x11
   1c71c: 21 eb        	bnez	a4, 0x1c76c <__fixtfsi+0x8a>
   1c71e: be 17        	slli	a5, a5, 0x2f
   1c720: 5d 8d        	or	a0, a0, a5
   1c722: 21 e9        	bnez	a0, 0x1c772 <__fixtfsi+0x90>
   1c724: 37 05 00 80  	lui	a0, 0x80000
   1c728: 82 80        	ret
   1c72a: 05 47        	li	a4, 0x1
   1c72c: 42 17        	slli	a4, a4, 0x30
   1c72e: d9 8f        	or	a5, a5, a4
   1c730: 11 66        	lui	a2, 0x4
   1c732: 71 77        	lui	a4, 0xffffc
   1c734: 45 27        	addiw	a4, a4, 0x11
   1c736: 1b 06 f6 02  	addiw	a2, a2, 0x2f
   1c73a: 35 9f        	addw	a4, a4, a3
   1c73c: 15 9e        	subw	a2, a2, a3
   1c73e: 33 97 e7 00  	sll	a4, a5, a4
   1c742: b3 d7 c7 00  	srl	a5, a5, a2
   1c746: 49 8f        	or	a4, a4, a0
   1c748: 1b 85 07 00  	sext.w	a0, a5
   1c74c: 99 c1        	beqz	a1, 0x1c752 <__fixtfsi+0x70>
   1c74e: 3b 05 a0 40  	negw	a0, a0
   1c752: 01 cf        	beqz	a4, 0x1c76a <__fixtfsi+0x88>
   1c754: 85 47        	li	a5, 0x1
   1c756: 01 a8        	j	0x1c766 <__fixtfsi+0x84>
   1c758: 01 45        	li	a0, 0x0
   1c75a: ed bf        	j	0x1c754 <__fixtfsi+0x72>
   1c75c: 37 05 00 80  	lui	a0, 0x80000
   1c760: 13 45 f5 ff  	not	a0, a0
   1c764: c1 47        	li	a5, 0x10
   1c766: 73 a0 17 00  	csrs	fflags, a5
   1c76a: 82 80        	ret
   1c76c: 37 05 00 80  	lui	a0, 0x80000
   1c770: d5 bf        	j	0x1c764 <__fixtfsi+0x82>
   1c772: 37 05 00 80  	lui	a0, 0x80000
   1c776: f9 bf        	j	0x1c754 <__fixtfsi+0x72>

000000000001c778 <__floatsitf>:
   1c778: 01 11        	addi	sp, sp, -0x20
   1c77a: 06 ec        	sd	ra, 0x18(sp)
   1c77c: 22 e8        	sd	s0, 0x10(sp)
   1c77e: 26 e4        	sd	s1, 0x8(sp)
   1c780: 39 c1        	beqz	a0, 0x1c7c6 <__floatsitf+0x4e>
   1c782: 9b 07 05 00  	sext.w	a5, a0
   1c786: 93 54 f5 03  	srli	s1, a0, 0x3f
   1c78a: 63 54 05 00  	bgez	a0, 0x1c792 <__floatsitf+0x1a>
   1c78e: bb 07 f0 40  	negw	a5, a5
   1c792: 13 94 07 02  	slli	s0, a5, 0x20
   1c796: 01 90        	srli	s0, s0, 0x20
   1c798: 22 85        	mv	a0, s0
   1c79a: ef 00 80 38  	jal	0x1cb22 <__clzdi2>
   1c79e: 91 65        	lui	a1, 0x4
   1c7a0: 9b 85 e5 03  	addiw	a1, a1, 0x3e
   1c7a4: 89 9d        	subw	a1, a1, a0
   1c7a6: 45 35        	addiw	a0, a0, -0xf
   1c7a8: b3 17 a4 00  	sll	a5, s0, a0
   1c7ac: e2 60        	ld	ra, 0x18(sp)
   1c7ae: 42 64        	ld	s0, 0x10(sp)
   1c7b0: 9b 94 f4 00  	slliw	s1, s1, 0xf
   1c7b4: c5 8d        	or	a1, a1, s1
   1c7b6: c2 07        	slli	a5, a5, 0x10
   1c7b8: c2 15        	slli	a1, a1, 0x30
   1c7ba: c1 83        	srli	a5, a5, 0x10
   1c7bc: a2 64        	ld	s1, 0x8(sp)
   1c7be: 01 45        	li	a0, 0x0
   1c7c0: dd 8d        	or	a1, a1, a5
   1c7c2: 05 61        	addi	sp, sp, 0x20
   1c7c4: 82 80        	ret
   1c7c6: 81 47        	li	a5, 0x0
   1c7c8: 81 45        	li	a1, 0x0
   1c7ca: 81 44        	li	s1, 0x0
   1c7cc: c5 b7        	j	0x1c7ac <__floatsitf+0x34>

000000000001c7ce <__extenddftf2>:
   1c7ce: 01 11        	addi	sp, sp, -0x20
   1c7d0: d3 07 05 e2  	fmv.x.d	a5, fa0
   1c7d4: 06 ec        	sd	ra, 0x18(sp)
   1c7d6: 22 e8        	sd	s0, 0x10(sp)
   1c7d8: 26 e4        	sd	s1, 0x8(sp)
   1c7da: 73 27 20 00  	frrm	a4
   1c7de: 13 d5 47 03  	srli	a0, a5, 0x34
   1c7e2: 13 75 f5 7f  	andi	a0, a0, 0x7ff
   1c7e6: 13 94 c7 00  	slli	s0, a5, 0xc
   1c7ea: 93 d4 f7 03  	srli	s1, a5, 0x3f
   1c7ee: 93 07 15 00  	addi	a5, a0, 0x1
   1c7f2: 93 f7 e7 7f  	andi	a5, a5, 0x7fe
   1c7f6: 31 80        	srli	s0, s0, 0xc
   1c7f8: 91 cb        	beqz	a5, 0x1c80c <__extenddftf2+0x3e>
   1c7fa: 91 67        	lui	a5, 0x4
   1c7fc: 93 87 07 c0  	addi	a5, a5, -0x400
   1c800: 93 55 44 00  	srli	a1, s0, 0x4
   1c804: 3e 95        	add	a0, a0, a5
   1c806: 72 14        	slli	s0, s0, 0x3c
   1c808: 81 47        	li	a5, 0x0
   1c80a: b1 a8        	j	0x1c866 <__extenddftf2+0x98>
   1c80c: 1d ed        	bnez	a0, 0x1c84a <__extenddftf2+0x7c>
   1c80e: 81 45        	li	a1, 0x0
   1c810: 65 dc        	beqz	s0, 0x1c808 <__extenddftf2+0x3a>
   1c812: 22 85        	mv	a0, s0
   1c814: ef 00 e0 30  	jal	0x1cb22 <__clzdi2>
   1c818: 1b 07 05 00  	sext.w	a4, a0
   1c81c: b9 47        	li	a5, 0xe
   1c81e: 63 c0 e7 02  	blt	a5, a4, 0x1c83e <__extenddftf2+0x70>
   1c822: bd 45        	li	a1, 0xf
   1c824: 89 9d        	subw	a1, a1, a0
   1c826: 9b 07 15 03  	addiw	a5, a0, 0x31
   1c82a: b3 55 b4 00  	srl	a1, s0, a1
   1c82e: 33 14 f4 00  	sll	s0, s0, a5
   1c832: 91 67        	lui	a5, 0x4
   1c834: 9b 87 c7 c0  	addiw	a5, a5, -0x3f4
   1c838: 3b 85 a7 40  	subw	a0, a5, a0
   1c83c: f1 b7        	j	0x1c808 <__extenddftf2+0x3a>
   1c83e: 9b 05 15 ff  	addiw	a1, a0, -0xf
   1c842: b3 15 b4 00  	sll	a1, s0, a1
   1c846: 01 44        	li	s0, 0x0
   1c848: ed b7        	j	0x1c832 <__extenddftf2+0x64>
   1c84a: 15 cc        	beqz	s0, 0x1c886 <__extenddftf2+0xb8>
   1c84c: 85 47        	li	a5, 0x1
   1c84e: ce 17        	slli	a5, a5, 0x33
   1c850: 05 47        	li	a4, 0x1
   1c852: b3 37 f4 00  	sltu	a5, s0, a5
   1c856: 93 55 44 00  	srli	a1, s0, 0x4
   1c85a: 3e 17        	slli	a4, a4, 0x2f
   1c85c: 21 65        	lui	a0, 0x8
   1c85e: 92 07        	slli	a5, a5, 0x4
   1c860: 72 14        	slli	s0, s0, 0x3c
   1c862: d9 8d        	or	a1, a1, a4
   1c864: 7d 15        	addi	a0, a0, -0x1
   1c866: 9b 94 f4 00  	slliw	s1, s1, 0xf
   1c86a: c2 05        	slli	a1, a1, 0x10
   1c86c: 45 8d        	or	a0, a0, s1
   1c86e: 42 15        	slli	a0, a0, 0x30
   1c870: c1 81        	srli	a1, a1, 0x10
   1c872: c9 8d        	or	a1, a1, a0
   1c874: 99 c3        	beqz	a5, 0x1c87a <__extenddftf2+0xac>
   1c876: 73 60 18 00  	csrsi	fflags, 0x10
   1c87a: e2 60        	ld	ra, 0x18(sp)
   1c87c: 22 85        	mv	a0, s0
   1c87e: 42 64        	ld	s0, 0x10(sp)
   1c880: a2 64        	ld	s1, 0x8(sp)
   1c882: 05 61        	addi	sp, sp, 0x20
   1c884: 82 80        	ret
   1c886: 21 65        	lui	a0, 0x8
   1c888: 81 45        	li	a1, 0x0
   1c88a: 7d 15        	addi	a0, a0, -0x1
   1c88c: b5 bf        	j	0x1c808 <__extenddftf2+0x3a>

000000000001c88e <__trunctfdf2>:
   1c88e: 73 26 20 00  	frrm	a2
   1c892: 21 68        	lui	a6, 0x8
   1c894: 13 d7 05 03  	srli	a4, a1, 0x30
   1c898: 7d 18        	addi	a6, a6, -0x1
   1c89a: b3 78 07 01  	and	a7, a4, a6
   1c89e: 93 d6 f5 03  	srli	a3, a1, 0x3f
   1c8a2: c2 05        	slli	a1, a1, 0x10
   1c8a4: b5 81        	srli	a1, a1, 0xd
   1c8a6: 13 57 d5 03  	srli	a4, a0, 0x3d
   1c8aa: 93 87 18 00  	addi	a5, a7, 0x1
   1c8ae: 4d 8f        	or	a4, a4, a1
   1c8b0: 93 95 17 03  	slli	a1, a5, 0x31
   1c8b4: c9 91        	srli	a1, a1, 0x32
   1c8b6: 01 26        	sext.w	a2, a2
   1c8b8: 13 13 35 00  	slli	t1, a0, 0x3
   1c8bc: 63 87 05 16  	beqz	a1, 0x1ca2a <__trunctfdf2+0x19c>
   1c8c0: f1 77        	lui	a5, 0xffffc
   1c8c2: 93 87 07 40  	addi	a5, a5, 0x400
   1c8c6: be 98        	add	a7, a7, a5
   1c8c8: 93 07 e0 7f  	li	a5, 0x7fe
   1c8cc: 63 d4 17 03  	bge	a5, a7, 0x1c8f4 <__trunctfdf2+0x66>
   1c8d0: 11 ce        	beqz	a2, 0x1c8ec <__trunctfdf2+0x5e>
   1c8d2: 8d 47        	li	a5, 0x3
   1c8d4: 63 18 f6 00  	bne	a2, a5, 0x1c8e4 <__trunctfdf2+0x56>
   1c8d8: 91 ca        	beqz	a3, 0x1c8ec <__trunctfdf2+0x5e>
   1c8da: fd 57        	li	a5, -0x1
   1c8dc: 93 08 e0 7f  	li	a7, 0x7fe
   1c8e0: 95 45        	li	a1, 0x5
   1c8e2: bd aa        	j	0x1ca60 <__trunctfdf2+0x1d2>
   1c8e4: 89 47        	li	a5, 0x2
   1c8e6: e3 1a f6 fe  	bne	a2, a5, 0x1c8da <__trunctfdf2+0x4c>
   1c8ea: e5 da        	beqz	a3, 0x1c8da <__trunctfdf2+0x4c>
   1c8ec: 81 47        	li	a5, 0x0
   1c8ee: 93 08 f0 7f  	li	a7, 0x7ff
   1c8f2: fd b7        	j	0x1c8e0 <__trunctfdf2+0x52>
   1c8f4: 63 4f 10 11  	bgtz	a7, 0x1ca12 <__trunctfdf2+0x184>
   1c8f8: 93 05 c0 fc  	li	a1, -0x34
   1c8fc: 85 47        	li	a5, 0x1
   1c8fe: 63 ce b8 02  	blt	a7, a1, 0x1c93a <__trunctfdf2+0xac>
   1c902: ce 17        	slli	a5, a5, 0x33
   1c904: 13 08 d0 03  	li	a6, 0x3d
   1c908: 5d 8f        	or	a4, a4, a5
   1c90a: 33 08 18 41  	sub	a6, a6, a7
   1c90e: 93 07 f0 03  	li	a5, 0x3f
   1c912: 1b 85 08 00  	sext.w	a0, a7
   1c916: 63 cb 07 0d  	blt	a5, a6, 0x1c9ec <__trunctfdf2+0x15e>
   1c91a: 93 07 d0 03  	li	a5, 0x3d
   1c91e: 9b 05 35 00  	addiw	a1, a0, 0x3
   1c922: 89 9f        	subw	a5, a5, a0
   1c924: b3 57 f3 00  	srl	a5, t1, a5
   1c928: 33 13 b3 00  	sll	t1, t1, a1
   1c92c: 33 33 60 00  	snez	t1, t1
   1c930: b3 e7 67 00  	or	a5, a5, t1
   1c934: 33 17 b7 00  	sll	a4, a4, a1
   1c938: d9 8f        	or	a5, a5, a4
   1c93a: 13 97 17 00  	slli	a4, a5, 0x1
   1c93e: 13 75 77 00  	andi	a0, a4, 0x7
   1c942: 81 45        	li	a1, 0x0
   1c944: 19 cd        	beqz	a0, 0x1c962 <__trunctfdf2+0xd4>
   1c946: 89 45        	li	a1, 0x2
   1c948: 63 03 b6 12  	beq	a2, a1, 0x1ca6e <__trunctfdf2+0x1e0>
   1c94c: 8d 45        	li	a1, 0x3
   1c94e: 63 0b b6 10  	beq	a2, a1, 0x1ca64 <__trunctfdf2+0x1d6>
   1c952: 85 45        	li	a1, 0x1
   1c954: 19 e6        	bnez	a2, 0x1c962 <__trunctfdf2+0xd4>
   1c956: 13 75 f7 00  	andi	a0, a4, 0xf
   1c95a: 11 48        	li	a6, 0x4
   1c95c: 63 03 05 01  	beq	a0, a6, 0x1c962 <__trunctfdf2+0xd4>
   1c960: 11 07        	addi	a4, a4, 0x4
   1c962: 61 93        	srli	a4, a4, 0x38
   1c964: 13 47 17 00  	xori	a4, a4, 0x1
   1c968: 05 8b        	andi	a4, a4, 0x1
   1c96a: 81 48        	li	a7, 0x0
   1c96c: 13 f5 77 00  	andi	a0, a5, 0x7
   1c970: 63 09 05 12  	beqz	a0, 0x1caa2 <__trunctfdf2+0x214>
   1c974: 09 45        	li	a0, 0x2
   1c976: 93 e5 15 00  	ori	a1, a1, 0x1
   1c97a: 63 01 a6 10  	beq	a2, a0, 0x1ca7c <__trunctfdf2+0x1ee>
   1c97e: 0d 45        	li	a0, 0x3
   1c980: 63 0b a6 0e  	beq	a2, a0, 0x1ca76 <__trunctfdf2+0x1e8>
   1c984: 19 e6        	bnez	a2, 0x1c992 <__trunctfdf2+0x104>
   1c986: 13 f8 f7 00  	andi	a6, a5, 0xf
   1c98a: 11 45        	li	a0, 0x4
   1c98c: 63 0b a8 10  	beq	a6, a0, 0x1caa2 <__trunctfdf2+0x214>
   1c990: 91 07        	addi	a5, a5, 0x4
   1c992: 11 c7        	beqz	a4, 0x1c99e <__trunctfdf2+0x110>
   1c994: 13 f8 15 00  	andi	a6, a1, 0x1
   1c998: 06 08        	slli	a6, a6, 0x1
   1c99a: b3 65 b8 00  	or	a1, a6, a1
   1c99e: 13 97 87 00  	slli	a4, a5, 0x8
   1c9a2: 63 5b 07 00  	bgez	a4, 0x1c9b8 <__trunctfdf2+0x12a>
   1c9a6: 85 08        	addi	a7, a7, 0x1
   1c9a8: 13 07 f0 7f  	li	a4, 0x7ff
   1c9ac: 63 8a e8 0c  	beq	a7, a4, 0x1ca80 <__trunctfdf2+0x1f2>
   1c9b0: 7d 56        	li	a2, -0x1
   1c9b2: 5e 16        	slli	a2, a2, 0x37
   1c9b4: 7d 16        	addi	a2, a2, -0x1
   1c9b6: f1 8f        	and	a5, a5, a2
   1c9b8: 13 07 f0 7f  	li	a4, 0x7ff
   1c9bc: 8d 83        	srli	a5, a5, 0x3
   1c9be: 63 96 e8 00  	bne	a7, a4, 0x1c9ca <__trunctfdf2+0x13c>
   1c9c2: 81 c7        	beqz	a5, 0x1c9ca <__trunctfdf2+0x13c>
   1c9c4: 85 47        	li	a5, 0x1
   1c9c6: ce 17        	slli	a5, a5, 0x33
   1c9c8: 81 46        	li	a3, 0x0
   1c9ca: 13 06 f0 7f  	li	a2, 0x7ff
   1c9ce: 13 97 48 03  	slli	a4, a7, 0x34
   1c9d2: 52 16        	slli	a2, a2, 0x34
   1c9d4: b2 07        	slli	a5, a5, 0xc
   1c9d6: 71 8f        	and	a4, a4, a2
   1c9d8: b1 83        	srli	a5, a5, 0xc
   1c9da: d9 8f        	or	a5, a5, a4
   1c9dc: fe 16        	slli	a3, a3, 0x3f
   1c9de: d5 8f        	or	a5, a5, a3
   1c9e0: 99 c1        	beqz	a1, 0x1c9e6 <__trunctfdf2+0x158>
   1c9e2: 73 a0 15 00  	csrs	fflags, a1
   1c9e6: 53 85 07 f2  	fmv.d.x	fa0, a5
   1c9ea: 82 80        	ret
   1c9ec: f5 57        	li	a5, -0x3
   1c9ee: 89 9f        	subw	a5, a5, a0
   1c9f0: 93 08 00 04  	li	a7, 0x40
   1c9f4: b3 57 f7 00  	srl	a5, a4, a5
   1c9f8: 81 45        	li	a1, 0x0
   1c9fa: 63 06 18 01  	beq	a6, a7, 0x1ca06 <__trunctfdf2+0x178>
   1c9fe: 1b 05 35 04  	addiw	a0, a0, 0x43
   1ca02: b3 15 a7 00  	sll	a1, a4, a0
   1ca06: b3 e5 65 00  	or	a1, a1, t1
   1ca0a: b3 35 b0 00  	snez	a1, a1
   1ca0e: cd 8f        	or	a5, a5, a1
   1ca10: 2d b7        	j	0x1c93a <__trunctfdf2+0xac>
   1ca12: 93 17 75 00  	slli	a5, a0, 0x7
   1ca16: b3 37 f0 00  	snez	a5, a5
   1ca1a: 13 53 c3 03  	srli	t1, t1, 0x3c
   1ca1e: b3 e7 67 00  	or	a5, a5, t1
   1ca22: 12 07        	slli	a4, a4, 0x4
   1ca24: d9 8f        	or	a5, a5, a4
   1ca26: 81 45        	li	a1, 0x0
   1ca28: 25 a8        	j	0x1ca60 <__trunctfdf2+0x1d2>
   1ca2a: b3 67 67 00  	or	a5, a4, t1
   1ca2e: 63 96 08 00  	bnez	a7, 0x1ca3a <__trunctfdf2+0x1ac>
   1ca32: 81 45        	li	a1, 0x0
   1ca34: d1 d3        	beqz	a5, 0x1c9b8 <__trunctfdf2+0x12a>
   1ca36: 85 47        	li	a5, 0x1
   1ca38: 09 b7        	j	0x1c93a <__trunctfdf2+0xac>
   1ca3a: bd c7        	beqz	a5, 0x1caa8 <__trunctfdf2+0x21a>
   1ca3c: 81 45        	li	a1, 0x0
   1ca3e: 63 97 08 01  	bne	a7, a6, 0x1ca4c <__trunctfdf2+0x1be>
   1ca42: 93 55 27 03  	srli	a1, a4, 0x32
   1ca46: 93 c5 15 00  	xori	a1, a1, 0x1
   1ca4a: 92 05        	slli	a1, a1, 0x4
   1ca4c: 93 57 c3 03  	srli	a5, t1, 0x3c
   1ca50: 12 07        	slli	a4, a4, 0x4
   1ca52: 5d 8f        	or	a4, a4, a5
   1ca54: 85 47        	li	a5, 0x1
   1ca56: 61 9b        	andi	a4, a4, -0x8
   1ca58: da 17        	slli	a5, a5, 0x36
   1ca5a: d9 8f        	or	a5, a5, a4
   1ca5c: 93 08 f0 7f  	li	a7, 0x7ff
   1ca60: 01 47        	li	a4, 0x0
   1ca62: 29 b7        	j	0x1c96c <__trunctfdf2+0xde>
   1ca64: 85 45        	li	a1, 0x1
   1ca66: e3 9e 06 ee  	bnez	a3, 0x1c962 <__trunctfdf2+0xd4>
   1ca6a: 21 07        	addi	a4, a4, 0x8
   1ca6c: dd bd        	j	0x1c962 <__trunctfdf2+0xd4>
   1ca6e: 85 45        	li	a1, 0x1
   1ca70: e3 89 06 ee  	beqz	a3, 0x1c962 <__trunctfdf2+0xd4>
   1ca74: dd bf        	j	0x1ca6a <__trunctfdf2+0x1dc>
   1ca76: 91 fe        	bnez	a3, 0x1c992 <__trunctfdf2+0x104>
   1ca78: a1 07        	addi	a5, a5, 0x8
   1ca7a: 21 bf        	j	0x1c992 <__trunctfdf2+0x104>
   1ca7c: 99 da        	beqz	a3, 0x1c992 <__trunctfdf2+0x104>
   1ca7e: ed bf        	j	0x1ca78 <__trunctfdf2+0x1ea>
   1ca80: 81 47        	li	a5, 0x0
   1ca82: 09 ce        	beqz	a2, 0x1ca9c <__trunctfdf2+0x20e>
   1ca84: 0d 47        	li	a4, 0x3
   1ca86: 63 17 e6 00  	bne	a2, a4, 0x1ca94 <__trunctfdf2+0x206>
   1ca8a: 89 ca        	beqz	a3, 0x1ca9c <__trunctfdf2+0x20e>
   1ca8c: fd 57        	li	a5, -0x1
   1ca8e: 93 08 e0 7f  	li	a7, 0x7fe
   1ca92: 29 a0        	j	0x1ca9c <__trunctfdf2+0x20e>
   1ca94: 09 47        	li	a4, 0x2
   1ca96: e3 1b e6 fe  	bne	a2, a4, 0x1ca8c <__trunctfdf2+0x1fe>
   1ca9a: ed da        	beqz	a3, 0x1ca8c <__trunctfdf2+0x1fe>
   1ca9c: 93 e5 55 00  	ori	a1, a1, 0x5
   1caa0: 21 bf        	j	0x1c9b8 <__trunctfdf2+0x12a>
   1caa2: e3 19 07 ee  	bnez	a4, 0x1c994 <__trunctfdf2+0x106>
   1caa6: 09 bf        	j	0x1c9b8 <__trunctfdf2+0x12a>
   1caa8: 93 08 f0 7f  	li	a7, 0x7ff
   1caac: ad bf        	j	0x1ca26 <__trunctfdf2+0x198>

000000000001caae <__riscv_save_12>:
   1caae: 59 71        	addi	sp, sp, -0x70
   1cab0: 01 43        	li	t1, 0x0
   1cab2: 6e e4        	sd	s11, 0x8(sp)
   1cab4: 19 a0        	j	0x1caba <__riscv_save_11+0x4>

000000000001cab6 <__riscv_save_11>:
   1cab6: 59 71        	addi	sp, sp, -0x70
   1cab8: 05 43        	li	t1, 0x1
   1caba: 6a e8        	sd	s10, 0x10(sp)
   1cabc: 66 ec        	sd	s9, 0x18(sp)
   1cabe: 19 a0        	j	0x1cac4 <__riscv_save_9+0x4>

000000000001cac0 <__riscv_save_9>:
   1cac0: 59 71        	addi	sp, sp, -0x70
   1cac2: 09 43        	li	t1, 0x2
   1cac4: 62 f0        	sd	s8, 0x20(sp)
   1cac6: 5e f4        	sd	s7, 0x28(sp)
   1cac8: 19 a0        	j	0x1cace <__riscv_save_7+0x4>

000000000001caca <__riscv_save_7>:
   1caca: 59 71        	addi	sp, sp, -0x70
   1cacc: 0d 43        	li	t1, 0x3
   1cace: 5a f8        	sd	s6, 0x30(sp)
   1cad0: 56 fc        	sd	s5, 0x38(sp)
   1cad2: 19 a0        	j	0x1cad8 <__riscv_save_5+0x4>

000000000001cad4 <__riscv_save_5>:
   1cad4: 59 71        	addi	sp, sp, -0x70
   1cad6: 11 43        	li	t1, 0x4
   1cad8: d2 e0        	sd	s4, 0x40(sp)
   1cada: ce e4        	sd	s3, 0x48(sp)
   1cadc: 19 a0        	j	0x1cae2 <__riscv_save_3+0x4>

000000000001cade <__riscv_save_3>:
   1cade: 59 71        	addi	sp, sp, -0x70
   1cae0: 15 43        	li	t1, 0x5
   1cae2: ca e8        	sd	s2, 0x50(sp)
   1cae4: a6 ec        	sd	s1, 0x58(sp)
   1cae6: a2 f0        	sd	s0, 0x60(sp)
   1cae8: 86 f4        	sd	ra, 0x68(sp)
   1caea: 12 03        	slli	t1, t1, 0x4
   1caec: 1a 91        	add	sp, sp, t1
   1caee: 82 82        	jr	t0

000000000001caf0 <__riscv_save_1>:
   1caf0: 41 11        	addi	sp, sp, -0x10
   1caf2: 22 e0        	sd	s0, 0x0(sp)
   1caf4: 06 e4        	sd	ra, 0x8(sp)
   1caf6: 82 82        	jr	t0

000000000001caf8 <__riscv_restore_12>:
   1caf8: a2 6d        	ld	s11, 0x8(sp)
   1cafa: 41 01        	addi	sp, sp, 0x10

000000000001cafc <__riscv_restore_11>:
   1cafc: 02 6d        	ld	s10, 0x0(sp)
   1cafe: a2 6c        	ld	s9, 0x8(sp)
   1cb00: 41 01        	addi	sp, sp, 0x10

000000000001cb02 <__riscv_restore_9>:
   1cb02: 02 6c        	ld	s8, 0x0(sp)
   1cb04: a2 6b        	ld	s7, 0x8(sp)
   1cb06: 41 01        	addi	sp, sp, 0x10

000000000001cb08 <__riscv_restore_7>:
   1cb08: 02 6b        	ld	s6, 0x0(sp)
   1cb0a: a2 6a        	ld	s5, 0x8(sp)
   1cb0c: 41 01        	addi	sp, sp, 0x10

000000000001cb0e <__riscv_restore_5>:
   1cb0e: 02 6a        	ld	s4, 0x0(sp)
   1cb10: a2 69        	ld	s3, 0x8(sp)
   1cb12: 41 01        	addi	sp, sp, 0x10

000000000001cb14 <__riscv_restore_3>:
   1cb14: 02 69        	ld	s2, 0x0(sp)
   1cb16: a2 64        	ld	s1, 0x8(sp)
   1cb18: 41 01        	addi	sp, sp, 0x10

000000000001cb1a <__riscv_restore_1>:
   1cb1a: 02 64        	ld	s0, 0x0(sp)
   1cb1c: a2 60        	ld	ra, 0x8(sp)
   1cb1e: 41 01        	addi	sp, sp, 0x10
   1cb20: 82 80        	ret

000000000001cb22 <__clzdi2>:
   1cb22: 93 57 85 03  	srli	a5, a0, 0x38
   1cb26: 85 eb        	bnez	a5, 0x1cb56 <__clzdi2+0x34>
   1cb28: 93 07 80 03  	li	a5, 0x38
   1cb2c: e1 17        	addi	a5, a5, -0x8
   1cb2e: 91 c7        	beqz	a5, 0x1cb3a <__clzdi2+0x18>
   1cb30: 33 57 f5 00  	srl	a4, a0, a5
   1cb34: 13 77 f7 0f  	andi	a4, a4, 0xff
   1cb38: 75 db        	beqz	a4, 0x1cb2c <__clzdi2+0xa>
   1cb3a: 75 67        	lui	a4, 0x1d
   1cb3c: 93 06 00 04  	li	a3, 0x40
   1cb40: 9d 8e        	sub	a3, a3, a5
   1cb42: 33 55 f5 00  	srl	a0, a0, a5
   1cb46: 93 07 07 55  	addi	a5, a4, 0x550
   1cb4a: aa 97        	add	a5, a5, a0
   1cb4c: 03 c5 07 00  	lbu	a0, 0x0(a5)
   1cb50: 3b 85 a6 40  	subw	a0, a3, a0
   1cb54: 82 80        	ret
   1cb56: 93 07 80 03  	li	a5, 0x38
   1cb5a: c5 b7        	j	0x1cb3a <__clzdi2+0x18>
