00000000000101e0 <main>:
   101e0: ef 12 a2 6f  	jal	t0, 0x318da <__riscv_save_7>
   101e4: 13 01 01 d6  	addi	sp, sp, -0x2a0
   101e8: 13 84 05 00  	addi	s0, a1, 0x0
   101ec: 83 b5 05 00  	ld	a1, 0x0(a1)
   101f0: 93 04 05 00  	addi	s1, a0, 0x0
   101f4: 23 bc b1 20  	sd	a1, 0x218(gp)
   101f8: 63 86 05 00  	beq	a1, zero, 0x10204 <main+0x24>
   101fc: 83 c5 05 00  	lbu	a1, 0x0(a1)
   10200: 63 98 05 00  	bne	a1, zero, 0x10210 <main+0x30>
   10204: b7 25 03 00  	lui	a1, 0x32
   10208: 93 85 05 a4  	addi	a1, a1, -0x5c0
   1020c: 23 bc b1 20  	sd	a1, 0x218(gp)
   10210: 13 05 81 00  	addi	a0, sp, 0x8
   10214: ef c0 c0 58  	jal	ra, 0x1c7a0 <jpeg_std_error>
   10218: 23 38 a1 0a  	sd	a0, 0xb0(sp)
   1021c: 13 05 01 0b  	addi	a0, sp, 0xb0
   10220: 93 05 d0 03  	addi	a1, zero, 0x3d
   10224: 13 06 00 1f  	addi	a2, zero, 0x1f0
   10228: ef 30 10 58  	jal	ra, 0x13fa8 <jpeg_CreateCompress>
   1022c: 37 35 03 00  	lui	a0, 0x33
   10230: 13 05 05 76  	addi	a0, a0, 0x760
   10234: 23 30 a1 0a  	sd	a0, 0xa0(sp)
   10238: 13 05 30 41  	addi	a0, zero, 0x413
   1023c: 13 15 05 02  	slli	a0, a0, 0x20
   10240: 13 05 85 3e  	addi	a0, a0, 0x3e8
   10244: 23 34 a1 0a  	sd	a0, 0xa8(sp)
   10248: 13 05 20 00  	addi	a0, zero, 0x2
   1024c: 23 22 a1 0e  	sw	a0, 0xe4(sp)
   10250: 13 05 01 0b  	addi	a0, sp, 0xb0
   10254: ef 40 80 5b  	jal	ra, 0x1480c <jpeg_set_defaults>
   10258: 13 05 01 0b  	addi	a0, sp, 0xb0
   1025c: 93 85 04 00  	addi	a1, s1, 0x0
   10260: 13 06 04 00  	addi	a2, s0, 0x0
   10264: 93 06 00 00  	addi	a3, zero, 0x0
   10268: ef 00 40 25  	jal	ra, 0x104bc <parse_switches>
   1026c: 9b 85 f4 ff  	addiw	a1, s1, -0x1
   10270: 63 50 b5 02  	bge	a0, a1, 0x10290 <main+0xb0>
   10274: 03 b5 01 20  	ld	a0, 0x200(gp)
   10278: 03 35 85 01  	ld	a0, 0x18(a0)
   1027c: 03 b6 81 21  	ld	a2, 0x218(gp)
   10280: b7 25 03 00  	lui	a1, 0x32
   10284: 93 85 65 a4  	addi	a1, a1, -0x5ba
   10288: ef e0 20 45  	jal	ra, 0x1e6da <fprintf>
   1028c: ef 00 50 12  	jal	ra, 0x10bb0 <usage>
   10290: 63 5c 95 02  	bge	a0, s1, 0x102c8 <main+0xe8>
   10294: 13 15 35 00  	slli	a0, a0, 0x3
   10298: b3 09 a4 00  	add	s3, s0, a0
   1029c: 03 b5 09 00  	ld	a0, 0x0(s3)
   102a0: b7 25 03 00  	lui	a1, 0x32
   102a4: 93 85 f5 a5  	addi	a1, a1, -0x5a1
   102a8: ef e0 40 40  	jal	ra, 0x1e6ac <fopen>
   102ac: 13 09 05 00  	addi	s2, a0, 0x0
   102b0: 63 10 05 02  	bne	a0, zero, 0x102d0 <main+0xf0>
   102b4: 03 b5 01 20  	ld	a0, 0x200(gp)
   102b8: 03 35 85 01  	ld	a0, 0x18(a0)
   102bc: 03 b6 81 21  	ld	a2, 0x218(gp)
   102c0: 83 b6 09 00  	ld	a3, 0x0(s3)
   102c4: 6f 00 40 04  	jal	zero, 0x10308 <main+0x128>
   102c8: ef 30 90 4c  	jal	ra, 0x13f90 <read_stdin>
   102cc: 13 09 05 00  	addi	s2, a0, 0x0
   102d0: 03 b5 01 22  	ld	a0, 0x220(gp)
   102d4: 63 18 05 00  	bne	a0, zero, 0x102e4 <main+0x104>
   102d8: ef 30 50 4c  	jal	ra, 0x13f9c <write_stdout>
   102dc: 93 09 05 00  	addi	s3, a0, 0x0
   102e0: 6f 00 c0 03  	jal	zero, 0x1031c <main+0x13c>
   102e4: b7 25 03 00  	lui	a1, 0x32
   102e8: 93 85 55 a7  	addi	a1, a1, -0x58b
   102ec: ef e0 00 3c  	jal	ra, 0x1e6ac <fopen>
   102f0: 93 09 05 00  	addi	s3, a0, 0x0
   102f4: 63 14 05 02  	bne	a0, zero, 0x1031c <main+0x13c>
   102f8: 03 b5 01 20  	ld	a0, 0x200(gp)
   102fc: 03 35 85 01  	ld	a0, 0x18(a0)
   10300: 03 b6 81 21  	ld	a2, 0x218(gp)
   10304: 83 b6 01 22  	ld	a3, 0x220(gp)
   10308: b7 25 03 00  	lui	a1, 0x32
   1030c: 93 85 25 a6  	addi	a1, a1, -0x59e
   10310: ef e0 a0 3c  	jal	ra, 0x1e6da <fprintf>
   10314: 13 05 10 00  	addi	a0, zero, 0x1
   10318: ef f0 9f e0  	jal	ra, 0x10120 <exit>
   1031c: 03 c5 81 22  	lbu	a0, 0x228(gp)
   10320: 63 00 05 0e  	beq	a0, zero, 0x10400 <main+0x220>
   10324: 13 05 01 0b  	addi	a0, sp, 0xb0
   10328: ef 10 10 7f  	jal	ra, 0x12318 <jinit_read_targa>
   1032c: 13 0a 05 00  	addi	s4, a0, 0x0
   10330: 03 36 0a 00  	ld	a2, 0x0(s4)
   10334: 23 3c 2a 01  	sd	s2, 0x18(s4)
   10338: 13 05 01 0b  	addi	a0, sp, 0xb0
   1033c: 93 05 0a 00  	addi	a1, s4, 0x0
   10340: e7 00 06 00  	jalr	ra, 0x0(a2)
   10344: 13 05 01 0b  	addi	a0, sp, 0xb0
   10348: ef 40 c0 6f  	jal	ra, 0x14a44 <jpeg_default_colorspace>
   1034c: 13 05 01 0b  	addi	a0, sp, 0xb0
   10350: 93 06 10 00  	addi	a3, zero, 0x1
   10354: 93 85 04 00  	addi	a1, s1, 0x0
   10358: 13 06 04 00  	addi	a2, s0, 0x0
   1035c: ef 00 00 16  	jal	ra, 0x104bc <parse_switches>
   10360: 13 05 01 0b  	addi	a0, sp, 0xb0
   10364: 93 85 09 00  	addi	a1, s3, 0x0
   10368: ef 40 d0 60  	jal	ra, 0x15174 <jpeg_stdio_dest>
   1036c: 13 05 01 0b  	addi	a0, sp, 0xb0
   10370: 93 05 10 00  	addi	a1, zero, 0x1
   10374: ef 30 10 7d  	jal	ra, 0x14344 <jpeg_start_compress>
   10378: 03 25 81 1d  	lw	a0, 0x1d8(sp)
   1037c: 83 25 c1 0d  	lw	a1, 0xdc(sp)
   10380: 63 74 b5 02  	bgeu	a0, a1, 0x103a8 <main+0x1c8>
   10384: 03 36 8a 00  	ld	a2, 0x8(s4)
   10388: 13 05 01 0b  	addi	a0, sp, 0xb0
   1038c: 93 05 0a 00  	addi	a1, s4, 0x0
   10390: e7 00 06 00  	jalr	ra, 0x0(a2)
   10394: 83 35 0a 02  	ld	a1, 0x20(s4)
   10398: 13 06 05 00  	addi	a2, a0, 0x0
   1039c: 13 05 01 0b  	addi	a0, sp, 0xb0
   103a0: ef 40 c0 03  	jal	ra, 0x143dc <jpeg_write_scanlines>
   103a4: 6f f0 5f fd  	jal	zero, 0x10378 <main+0x198>
   103a8: 03 36 0a 01  	ld	a2, 0x10(s4)
   103ac: 13 05 01 0b  	addi	a0, sp, 0xb0
   103b0: 93 05 0a 00  	addi	a1, s4, 0x0
   103b4: e7 00 06 00  	jalr	ra, 0x0(a2)
   103b8: 13 05 01 0b  	addi	a0, sp, 0xb0
   103bc: ef 30 10 50  	jal	ra, 0x140bc <jpeg_finish_compress>
   103c0: 13 05 01 0b  	addi	a0, sp, 0xb0
   103c4: ef 30 90 4a  	jal	ra, 0x1406c <jpeg_destroy_compress>
   103c8: 03 b5 01 20  	ld	a0, 0x200(gp)
   103cc: 83 35 85 00  	ld	a1, 0x8(a0)
   103d0: 63 08 b9 00  	beq	s2, a1, 0x103e0 <main+0x200>
   103d4: 13 05 09 00  	addi	a0, s2, 0x0
   103d8: ef d0 50 58  	jal	ra, 0x1e15c <fclose>
   103dc: 03 b5 01 20  	ld	a0, 0x200(gp)
   103e0: 03 35 05 01  	ld	a0, 0x10(a0)
   103e4: 63 86 a9 00  	beq	s3, a0, 0x103f0 <main+0x210>
   103e8: 13 85 09 00  	addi	a0, s3, 0x0
   103ec: ef d0 10 57  	jal	ra, 0x1e15c <fclose>
   103f0: 03 35 81 08  	ld	a0, 0x88(sp)
   103f4: 33 35 a0 00  	sltu	a0, zero, a0
   103f8: 13 15 15 00  	slli	a0, a0, 0x1
   103fc: ef f0 5f d2  	jal	ra, 0x10120 <exit>
   10400: 13 05 09 00  	addi	a0, s2, 0x0
   10404: ef e0 e0 69  	jal	ra, 0x1eaa2 <getc>
   10408: 93 0a f0 ff  	addi	s5, zero, -0x1
   1040c: 13 0a 05 00  	addi	s4, a0, 0x0
   10410: 63 1e 55 01  	bne	a0, s5, 0x1042c <main+0x24c>
   10414: 03 35 01 0b  	ld	a0, 0xb0(sp)
   10418: 83 35 05 00  	ld	a1, 0x0(a0)
   1041c: 13 06 90 02  	addi	a2, zero, 0x29
   10420: 23 24 c5 02  	sw	a2, 0x28(a0)
   10424: 13 05 01 0b  	addi	a0, sp, 0xb0
   10428: e7 80 05 00  	jalr	ra, 0x0(a1)
   1042c: 13 05 0a 00  	addi	a0, s4, 0x0
   10430: 93 05 09 00  	addi	a1, s2, 0x0
   10434: ef e0 30 4a  	jal	ra, 0x1f0d6 <ungetc>
   10438: 63 1e 55 01  	bne	a0, s5, 0x10454 <main+0x274>
   1043c: 03 35 01 0b  	ld	a0, 0xb0(sp)
   10440: 83 35 05 00  	ld	a1, 0x0(a0)
   10444: 13 06 00 41  	addi	a2, zero, 0x410
   10448: 23 24 c5 02  	sw	a2, 0x28(a0)
   1044c: 13 05 01 0b  	addi	a0, sp, 0xb0
   10450: e7 80 05 00  	jalr	ra, 0x0(a1)
   10454: 13 05 60 04  	addi	a0, zero, 0x46
   10458: 63 4e 45 01  	blt	a0, s4, 0x10474 <main+0x294>
   1045c: e3 04 0a ec  	beq	s4, zero, 0x10324 <main+0x144>
   10460: 13 05 20 04  	addi	a0, zero, 0x42
   10464: 63 16 aa 02  	bne	s4, a0, 0x10490 <main+0x2b0>
   10468: 13 05 01 0b  	addi	a0, sp, 0xb0
   1046c: ef 20 80 7b  	jal	ra, 0x12c24 <jinit_read_bmp>
   10470: 6f f0 df eb  	jal	zero, 0x1032c <main+0x14c>
   10474: 13 05 70 04  	addi	a0, zero, 0x47
   10478: 63 0c aa 02  	beq	s4, a0, 0x104b0 <main+0x2d0>
   1047c: 13 05 00 05  	addi	a0, zero, 0x50
   10480: 63 18 aa 00  	bne	s4, a0, 0x10490 <main+0x2b0>
   10484: 13 05 01 0b  	addi	a0, sp, 0xb0
   10488: ef 00 50 1b  	jal	ra, 0x10e3c <jinit_read_ppm>
   1048c: 6f f0 1f ea  	jal	zero, 0x1032c <main+0x14c>
   10490: 03 35 01 0b  	ld	a0, 0xb0(sp)
   10494: 83 35 05 00  	ld	a1, 0x0(a0)
   10498: 13 06 10 41  	addi	a2, zero, 0x411
   1049c: 23 24 c5 02  	sw	a2, 0x28(a0)
   104a0: 13 05 01 0b  	addi	a0, sp, 0xb0
   104a4: e7 80 05 00  	jalr	ra, 0x0(a1)
   104a8: 13 0a 00 00  	addi	s4, zero, 0x0
   104ac: 6f f0 5f e8  	jal	zero, 0x10330 <main+0x150>
   104b0: 13 05 01 0b  	addi	a0, sp, 0xb0
   104b4: ef 10 40 23  	jal	ra, 0x116e8 <jinit_read_gif>
   104b8: 6f f0 5f e7  	jal	zero, 0x1032c <main+0x14c>

00000000000104bc <parse_switches>:
   104bc: ef 12 22 40  	jal	t0, 0x318be <__riscv_save_12>
   104c0: 13 01 01 ee  	addi	sp, sp, -0x120
   104c4: 13 8a 05 00  	addi	s4, a1, 0x0
   104c8: 13 04 05 00  	addi	s0, a0, 0x0
   104cc: 23 b0 01 22  	sd	zero, 0x220(gp)
   104d0: 03 35 05 00  	ld	a0, 0x0(a0)
   104d4: 93 05 b0 04  	addi	a1, zero, 0x4b
   104d8: 23 2e b1 10  	sw	a1, 0x11c(sp)
   104dc: 23 2e 05 06  	sw	zero, 0x7c(a0)
   104e0: 13 05 20 00  	addi	a0, zero, 0x2
   104e4: 23 84 01 22  	sb	zero, 0x228(gp)
   104e8: 63 4e aa 5c  	blt	s4, a0, 0x10ac4 <parse_switches+0x608>
   104ec: 93 09 06 00  	addi	s3, a2, 0x0
   104f0: 23 34 d1 0c  	sd	a3, 0xc8(sp)
   104f4: 23 38 01 0c  	sd	zero, 0xd0(sp)
   104f8: 23 3c 01 0c  	sd	zero, 0xd8(sp)
   104fc: 23 30 01 0e  	sd	zero, 0xe0(sp)
   10500: 13 0c 00 00  	addi	s8, zero, 0x0
   10504: 23 38 01 0e  	sd	zero, 0xf0(sp)
   10508: 93 0b 00 00  	addi	s7, zero, 0x0
   1050c: 37 25 03 00  	lui	a0, 0x32
   10510: 13 0d 15 fa  	addi	s10, a0, -0x5f
   10514: 37 25 03 00  	lui	a0, 0x32
   10518: 93 0d 85 fd  	addi	s11, a0, -0x28
   1051c: 37 25 03 00  	lui	a0, 0x32
   10520: 93 04 15 fe  	addi	s1, a0, -0x1f
   10524: 37 25 03 00  	lui	a0, 0x32
   10528: 13 05 45 ff  	addi	a0, a0, -0xc
   1052c: 23 3c a1 0e  	sd	a0, 0xf8(sp)
   10530: 37 25 03 00  	lui	a0, 0x32
   10534: 13 05 a5 ff  	addi	a0, a0, -0x6
   10538: 23 30 a1 0a  	sd	a0, 0xa0(sp)
   1053c: 37 25 03 00  	lui	a0, 0x32
   10540: 13 05 15 06  	addi	a0, a0, 0x61
   10544: 23 38 a1 08  	sd	a0, 0x90(sp)
   10548: 37 25 03 00  	lui	a0, 0x32
   1054c: 13 05 b5 06  	addi	a0, a0, 0x6b
   10550: 23 34 a1 08  	sd	a0, 0x88(sp)
   10554: 37 25 03 00  	lui	a0, 0x32
   10558: 13 05 55 07  	addi	a0, a0, 0x75
   1055c: 23 30 a1 08  	sd	a0, 0x80(sp)
   10560: 37 25 03 00  	lui	a0, 0x32
   10564: 13 05 55 08  	addi	a0, a0, 0x85
   10568: 23 38 a1 06  	sd	a0, 0x70(sp)
   1056c: 37 25 03 00  	lui	a0, 0x32
   10570: 13 05 e5 08  	addi	a0, a0, 0x8e
   10574: 23 34 a1 06  	sd	a0, 0x68(sp)
   10578: 37 25 03 00  	lui	a0, 0x32
   1057c: 13 05 75 09  	addi	a0, a0, 0x97
   10580: 23 30 a1 06  	sd	a0, 0x60(sp)
   10584: 37 25 03 00  	lui	a0, 0x32
   10588: 13 05 f5 09  	addi	a0, a0, 0x9f
   1058c: 23 3c a1 04  	sd	a0, 0x58(sp)
   10590: 37 25 03 00  	lui	a0, 0x32
   10594: 13 05 b5 0a  	addi	a0, a0, 0xab
   10598: 23 38 a1 04  	sd	a0, 0x50(sp)
   1059c: 37 25 03 00  	lui	a0, 0x32
   105a0: 13 05 35 0b  	addi	a0, a0, 0xb3
   105a4: 23 30 a1 04  	sd	a0, 0x40(sp)
   105a8: 37 25 03 00  	lui	a0, 0x32
   105ac: 13 05 a5 0b  	addi	a0, a0, 0xba
   105b0: 23 3c a1 02  	sd	a0, 0x38(sp)
   105b4: 37 25 03 00  	lui	a0, 0x32
   105b8: 13 05 25 0c  	addi	a0, a0, 0xc2
   105bc: 23 38 a1 02  	sd	a0, 0x30(sp)
   105c0: 37 25 03 00  	lui	a0, 0x32
   105c4: 13 05 a5 0c  	addi	a0, a0, 0xca
   105c8: 23 34 a1 02  	sd	a0, 0x28(sp)
   105cc: 37 25 03 00  	lui	a0, 0x32
   105d0: 13 05 15 0d  	addi	a0, a0, 0xd1
   105d4: 23 30 a1 02  	sd	a0, 0x20(sp)
   105d8: 37 25 03 00  	lui	a0, 0x32
   105dc: 13 05 75 0d  	addi	a0, a0, 0xd7
   105e0: 23 3c a1 00  	sd	a0, 0x18(sp)
   105e4: 37 25 03 00  	lui	a0, 0x32
   105e8: 13 05 c5 f7  	addi	a0, a0, -0x84
   105ec: 23 38 a1 00  	sd	a0, 0x10(sp)
   105f0: 37 35 03 00  	lui	a0, 0x33
   105f4: 13 05 75 28  	addi	a0, a0, 0x287
   105f8: 23 34 a1 04  	sd	a0, 0x48(sp)
   105fc: 37 25 03 00  	lui	a0, 0x32
   10600: 13 05 f5 07  	addi	a0, a0, 0x7f
   10604: 23 3c a1 06  	sd	a0, 0x78(sp)
   10608: 37 25 03 00  	lui	a0, 0x32
   1060c: 13 05 25 00  	addi	a0, a0, 0x2
   10610: 23 3c a1 0a  	sd	a0, 0xb8(sp)
   10614: 37 25 03 00  	lui	a0, 0x32
   10618: 13 05 15 03  	addi	a0, a0, 0x31
   1061c: 23 38 a1 0a  	sd	a0, 0xb0(sp)
   10620: 37 25 03 00  	lui	a0, 0x32
   10624: 13 05 e5 03  	addi	a0, a0, 0x3e
   10628: 23 34 a1 0a  	sd	a0, 0xa8(sp)
   1062c: 37 25 03 00  	lui	a0, 0x32
   10630: 13 05 55 fe  	addi	a0, a0, -0x1b
   10634: 23 30 a1 10  	sd	a0, 0x100(sp)
   10638: 37 25 03 00  	lui	a0, 0x32
   1063c: 13 05 95 fe  	addi	a0, a0, -0x17
   10640: 23 30 a1 0c  	sd	a0, 0xc0(sp)
   10644: 37 25 03 00  	lui	a0, 0x32
   10648: 13 05 e5 fe  	addi	a0, a0, -0x12
   1064c: 23 3c a1 08  	sd	a0, 0x98(sp)
   10650: 13 05 40 06  	addi	a0, zero, 0x64
   10654: 23 34 a1 0e  	sd	a0, 0xe8(sp)
   10658: 13 09 d0 02  	addi	s2, zero, 0x2d
   1065c: 93 0c 10 00  	addi	s9, zero, 0x1
   10660: 13 95 3c 00  	slli	a0, s9, 0x3
   10664: 33 85 a9 00  	add	a0, s3, a0
   10668: 83 3a 05 00  	ld	s5, 0x0(a0)
   1066c: 03 c5 0a 00  	lbu	a0, 0x0(s5)
   10670: 63 1c 25 03  	bne	a0, s2, 0x106a8 <parse_switches+0x1ec>
   10674: 93 8a 1a 00  	addi	s5, s5, 0x1
   10678: 13 06 10 00  	addi	a2, zero, 0x1
   1067c: 13 85 0a 00  	addi	a0, s5, 0x0
   10680: 93 05 0d 00  	addi	a1, s10, 0x0
   10684: ef 30 90 09  	jal	ra, 0x13f1c <keymatch>
   10688: 63 12 05 50  	bne	a0, zero, 0x10b8c <parse_switches+0x6d0>
   1068c: 13 06 10 00  	addi	a2, zero, 0x1
   10690: 13 85 0a 00  	addi	a0, s5, 0x0
   10694: 93 85 0d 00  	addi	a1, s11, 0x0
   10698: ef 30 50 08  	jal	ra, 0x13f1c <keymatch>
   1069c: 63 00 05 02  	beq	a0, zero, 0x106bc <parse_switches+0x200>
   106a0: 93 0b 10 00  	addi	s7, zero, 0x1
   106a4: 6f 00 c0 00  	jal	zero, 0x106b0 <parse_switches+0x1f4>
   106a8: 63 42 90 45  	blt	zero, s9, 0x10aec <parse_switches+0x630>
   106ac: 23 b0 01 22  	sd	zero, 0x220(gp)
   106b0: 9b 8c 1c 00  	addiw	s9, s9, 0x1
   106b4: e3 c6 4c fb  	blt	s9, s4, 0x10660 <parse_switches+0x1a4>
   106b8: 6f 00 40 43  	jal	zero, 0x10aec <parse_switches+0x630>
   106bc: 13 06 20 00  	addi	a2, zero, 0x2
   106c0: 13 85 0a 00  	addi	a0, s5, 0x0
   106c4: 93 85 04 00  	addi	a1, s1, 0x0
   106c8: ef 30 50 05  	jal	ra, 0x13f1c <keymatch>
   106cc: 63 08 05 02  	beq	a0, zero, 0x106fc <parse_switches+0x240>
   106d0: 9b 8c 1c 00  	addiw	s9, s9, 0x1
   106d4: 63 dc 4c 4d  	bge	s9, s4, 0x10bac <parse_switches+0x6f0>
   106d8: 93 9a 3c 00  	slli	s5, s9, 0x3
   106dc: b3 8a 59 01  	add	s5, s3, s5
   106e0: 03 b5 0a 00  	ld	a0, 0x0(s5)
   106e4: 13 06 10 00  	addi	a2, zero, 0x1
   106e8: 83 35 01 10  	ld	a1, 0x100(sp)
   106ec: ef 30 10 03  	jal	ra, 0x13f1c <keymatch>
   106f0: 63 08 05 06  	beq	a0, zero, 0x10760 <parse_switches+0x2a4>
   106f4: 23 26 04 10  	sw	zero, 0x10c(s0)
   106f8: 6f f0 9f fb  	jal	zero, 0x106b0 <parse_switches+0x1f4>
   106fc: 13 06 10 00  	addi	a2, zero, 0x1
   10700: 13 85 0a 00  	addi	a0, s5, 0x0
   10704: 83 35 81 0f  	ld	a1, 0xf8(sp)
   10708: ef 30 50 01  	jal	ra, 0x13f1c <keymatch>
   1070c: 63 1c 05 00  	bne	a0, zero, 0x10724 <parse_switches+0x268>
   10710: 13 06 10 00  	addi	a2, zero, 0x1
   10714: 13 85 0a 00  	addi	a0, s5, 0x0
   10718: 83 35 01 0a  	ld	a1, 0xa0(sp)
   1071c: ef 30 10 00  	jal	ra, 0x13f1c <keymatch>
   10720: 63 0e 05 06  	beq	a0, zero, 0x1079c <parse_switches+0x2e0>
   10724: 03 c5 c1 22  	lbu	a0, 0x22c(gp)
   10728: 63 12 05 02  	bne	a0, zero, 0x1074c <parse_switches+0x290>
   1072c: 03 b5 01 20  	ld	a0, 0x200(gp)
   10730: 03 35 85 01  	ld	a0, 0x18(a0)
   10734: 83 35 81 0b  	ld	a1, 0xb8(sp)
   10738: 03 36 01 0b  	ld	a2, 0xb0(sp)
   1073c: 83 36 81 0a  	ld	a3, 0xa8(sp)
   10740: ef d0 b0 79  	jal	ra, 0x1e6da <fprintf>
   10744: 13 05 10 00  	addi	a0, zero, 0x1
   10748: 23 86 a1 22  	sb	a0, 0x22c(gp)
   1074c: 03 35 04 00  	ld	a0, 0x0(s0)
   10750: 83 25 c5 07  	lw	a1, 0x7c(a0)
   10754: 93 85 15 00  	addi	a1, a1, 0x1
   10758: 23 2e b5 06  	sw	a1, 0x7c(a0)
   1075c: 6f f0 5f f5  	jal	zero, 0x106b0 <parse_switches+0x1f4>
   10760: 03 b5 0a 00  	ld	a0, 0x0(s5)
   10764: 13 06 20 00  	addi	a2, zero, 0x2
   10768: 83 35 01 0c  	ld	a1, 0xc0(sp)
   1076c: ef 30 00 7b  	jal	ra, 0x13f1c <keymatch>
   10770: 63 06 05 00  	beq	a0, zero, 0x1077c <parse_switches+0x2c0>
   10774: 13 05 10 00  	addi	a0, zero, 0x1
   10778: 6f 00 c0 01  	jal	zero, 0x10794 <parse_switches+0x2d8>
   1077c: 03 b5 0a 00  	ld	a0, 0x0(s5)
   10780: 13 06 20 00  	addi	a2, zero, 0x2
   10784: 83 35 81 09  	ld	a1, 0x98(sp)
   10788: ef 30 40 79  	jal	ra, 0x13f1c <keymatch>
   1078c: 63 00 05 42  	beq	a0, zero, 0x10bac <parse_switches+0x6f0>
   10790: 13 05 20 00  	addi	a0, zero, 0x2
   10794: 23 26 a4 10  	sw	a0, 0x10c(s0)
   10798: 6f f0 9f f1  	jal	zero, 0x106b0 <parse_switches+0x1f4>
   1079c: 13 06 20 00  	addi	a2, zero, 0x2
   107a0: 13 85 0a 00  	addi	a0, s5, 0x0
   107a4: 83 35 01 09  	ld	a1, 0x90(sp)
   107a8: ef 30 40 77  	jal	ra, 0x13f1c <keymatch>
   107ac: 63 1c 05 00  	bne	a0, zero, 0x107c4 <parse_switches+0x308>
   107b0: 13 06 20 00  	addi	a2, zero, 0x2
   107b4: 13 85 0a 00  	addi	a0, s5, 0x0
   107b8: 83 35 81 08  	ld	a1, 0x88(sp)
   107bc: ef 30 00 76  	jal	ra, 0x13f1c <keymatch>
   107c0: 63 0a 05 00  	beq	a0, zero, 0x107d4 <parse_switches+0x318>
   107c4: 93 05 10 00  	addi	a1, zero, 0x1
   107c8: 13 05 04 00  	addi	a0, s0, 0x0
   107cc: ef 40 80 2d  	jal	ra, 0x14aa4 <jpeg_set_colorspace>
   107d0: 6f f0 1f ee  	jal	zero, 0x106b0 <parse_switches+0x1f4>
   107d4: 13 06 30 00  	addi	a2, zero, 0x3
   107d8: 13 85 0a 00  	addi	a0, s5, 0x0
   107dc: 83 35 01 08  	ld	a1, 0x80(sp)
   107e0: ef 30 c0 73  	jal	ra, 0x13f1c <keymatch>
   107e4: 63 0a 05 06  	beq	a0, zero, 0x10858 <parse_switches+0x39c>
   107e8: 9b 8c 1c 00  	addiw	s9, s9, 0x1
   107ec: 13 05 80 07  	addi	a0, zero, 0x78
   107f0: a3 07 a1 10  	sb	a0, 0x10f(sp)
   107f4: 63 dc 4c 3b  	bge	s9, s4, 0x10bac <parse_switches+0x6f0>
   107f8: 13 95 3c 00  	slli	a0, s9, 0x3
   107fc: 33 85 a9 00  	add	a0, s3, a0
   10800: 03 35 05 00  	ld	a0, 0x0(a0)
   10804: 13 06 01 11  	addi	a2, sp, 0x110
   10808: 93 06 f1 10  	addi	a3, sp, 0x10f
   1080c: 83 35 81 07  	ld	a1, 0x78(sp)
   10810: ef e0 60 56  	jal	ra, 0x1ed76 <sscanf>
   10814: 63 5c a0 38  	bge	zero, a0, 0x10bac <parse_switches+0x6f0>
   10818: 03 45 f1 10  	lbu	a0, 0x10f(sp)
   1081c: 83 3a 01 11  	ld	s5, 0x110(sp)
   10820: 13 75 f5 0d  	andi	a0, a0, 0xdf
   10824: 23 34 a1 00  	sd	a0, 0x8(sp)
   10828: 93 05 80 3e  	addi	a1, zero, 0x3e8
   1082c: 13 85 0a 00  	addi	a0, s5, 0x0
   10830: ef 10 42 10  	jal	ra, 0x31934 <__muldi3>
   10834: 93 05 d0 04  	addi	a1, zero, 0x4d
   10838: 03 36 81 00  	ld	a2, 0x8(sp)
   1083c: 63 04 b6 00  	beq	a2, a1, 0x10844 <parse_switches+0x388>
   10840: 13 85 0a 00  	addi	a0, s5, 0x0
   10844: 93 05 80 3e  	addi	a1, zero, 0x3e8
   10848: ef 10 c2 0e  	jal	ra, 0x31934 <__muldi3>
   1084c: 83 35 84 00  	ld	a1, 0x8(s0)
   10850: 23 bc a5 04  	sd	a0, 0x58(a1)
   10854: 6f f0 df e5  	jal	zero, 0x106b0 <parse_switches+0x1f4>
   10858: 13 06 10 00  	addi	a2, zero, 0x1
   1085c: 13 85 0a 00  	addi	a0, s5, 0x0
   10860: 83 35 01 07  	ld	a1, 0x70(sp)
   10864: ef 30 80 6b  	jal	ra, 0x13f1c <keymatch>
   10868: 63 1c 05 00  	bne	a0, zero, 0x10880 <parse_switches+0x3c4>
   1086c: 13 06 10 00  	addi	a2, zero, 0x1
   10870: 13 85 0a 00  	addi	a0, s5, 0x0
   10874: 83 35 81 06  	ld	a1, 0x68(sp)
   10878: ef 30 40 6a  	jal	ra, 0x13f1c <keymatch>
   1087c: 63 08 05 00  	beq	a0, zero, 0x1088c <parse_switches+0x3d0>
   10880: 13 05 10 00  	addi	a0, zero, 0x1
   10884: 23 20 a4 10  	sw	a0, 0x100(s0)
   10888: 6f f0 9f e2  	jal	zero, 0x106b0 <parse_switches+0x1f4>
   1088c: 13 06 40 00  	addi	a2, zero, 0x4
   10890: 13 85 0a 00  	addi	a0, s5, 0x0
   10894: 83 35 01 06  	ld	a1, 0x60(sp)
   10898: ef 30 40 68  	jal	ra, 0x13f1c <keymatch>
   1089c: 63 00 05 02  	beq	a0, zero, 0x108bc <parse_switches+0x400>
   108a0: 9b 8c 1c 00  	addiw	s9, s9, 0x1
   108a4: 63 d4 4c 31  	bge	s9, s4, 0x10bac <parse_switches+0x6f0>
   108a8: 13 95 3c 00  	slli	a0, s9, 0x3
   108ac: 33 85 a9 00  	add	a0, s3, a0
   108b0: 03 35 05 00  	ld	a0, 0x0(a0)
   108b4: 23 b0 a1 22  	sd	a0, 0x220(gp)
   108b8: 6f f0 9f df  	jal	zero, 0x106b0 <parse_switches+0x1f4>
   108bc: 13 06 10 00  	addi	a2, zero, 0x1
   108c0: 13 85 0a 00  	addi	a0, s5, 0x0
   108c4: 83 35 81 05  	ld	a1, 0x58(sp)
   108c8: ef 30 40 65  	jal	ra, 0x13f1c <keymatch>
   108cc: 63 08 05 00  	beq	a0, zero, 0x108dc <parse_switches+0x420>
   108d0: 13 05 10 00  	addi	a0, zero, 0x1
   108d4: 23 38 a1 0e  	sd	a0, 0xf0(sp)
   108d8: 6f f0 9f dd  	jal	zero, 0x106b0 <parse_switches+0x1f4>
   108dc: 13 06 10 00  	addi	a2, zero, 0x1
   108e0: 13 85 0a 00  	addi	a0, s5, 0x0
   108e4: 83 35 01 05  	ld	a1, 0x50(sp)
   108e8: ef 30 40 63  	jal	ra, 0x13f1c <keymatch>
   108ec: 63 0e 05 02  	beq	a0, zero, 0x10928 <parse_switches+0x46c>
   108f0: 9b 8c 1c 00  	addiw	s9, s9, 0x1
   108f4: 63 dc 4c 2b  	bge	s9, s4, 0x10bac <parse_switches+0x6f0>
   108f8: 13 95 3c 00  	slli	a0, s9, 0x3
   108fc: 33 85 a9 00  	add	a0, s3, a0
   10900: 03 35 05 00  	ld	a0, 0x0(a0)
   10904: 13 06 c1 11  	addi	a2, sp, 0x11c
   10908: 83 35 81 04  	ld	a1, 0x48(sp)
   1090c: ef e0 a0 46  	jal	ra, 0x1ed76 <sscanf>
   10910: 93 05 10 00  	addi	a1, zero, 0x1
   10914: 63 1c b5 28  	bne	a0, a1, 0x10bac <parse_switches+0x6f0>
   10918: 03 25 c1 11  	lw	a0, 0x11c(sp)
   1091c: ef 30 10 5f  	jal	ra, 0x1470c <jpeg_quality_scaling>
   10920: 23 34 a1 0e  	sd	a0, 0xe8(sp)
   10924: 6f f0 df d8  	jal	zero, 0x106b0 <parse_switches+0x1f4>
   10928: 13 06 20 00  	addi	a2, zero, 0x2
   1092c: 13 85 0a 00  	addi	a0, s5, 0x0
   10930: 83 35 01 04  	ld	a1, 0x40(sp)
   10934: ef 30 80 5e  	jal	ra, 0x13f1c <keymatch>
   10938: 63 00 05 02  	beq	a0, zero, 0x10958 <parse_switches+0x49c>
   1093c: 9b 8c 1c 00  	addiw	s9, s9, 0x1
   10940: 63 d6 4c 27  	bge	s9, s4, 0x10bac <parse_switches+0x6f0>
   10944: 13 95 3c 00  	slli	a0, s9, 0x3
   10948: 33 85 a9 00  	add	a0, s3, a0
   1094c: 03 35 05 00  	ld	a0, 0x0(a0)
   10950: 23 30 a1 0e  	sd	a0, 0xe0(sp)
   10954: 6f f0 df d5  	jal	zero, 0x106b0 <parse_switches+0x1f4>
   10958: 13 06 20 00  	addi	a2, zero, 0x2
   1095c: 13 85 0a 00  	addi	a0, s5, 0x0
   10960: 83 35 81 03  	ld	a1, 0x38(sp)
   10964: ef 30 80 5b  	jal	ra, 0x13f1c <keymatch>
   10968: 63 0e 05 00  	beq	a0, zero, 0x10984 <parse_switches+0x4c8>
   1096c: 9b 8c 1c 00  	addiw	s9, s9, 0x1
   10970: 63 de 4c 23  	bge	s9, s4, 0x10bac <parse_switches+0x6f0>
   10974: 13 95 3c 00  	slli	a0, s9, 0x3
   10978: 33 85 a9 00  	add	a0, s3, a0
   1097c: 03 3c 05 00  	ld	s8, 0x0(a0)
   10980: 6f f0 1f d3  	jal	zero, 0x106b0 <parse_switches+0x1f4>
   10984: 13 06 10 00  	addi	a2, zero, 0x1
   10988: 13 85 0a 00  	addi	a0, s5, 0x0
   1098c: 83 35 01 03  	ld	a1, 0x30(sp)
   10990: ef 30 c0 58  	jal	ra, 0x13f1c <keymatch>
   10994: 63 00 05 06  	beq	a0, zero, 0x109f4 <parse_switches+0x538>
   10998: 9b 8c 1c 00  	addiw	s9, s9, 0x1
   1099c: 13 05 80 07  	addi	a0, zero, 0x78
   109a0: a3 07 a1 10  	sb	a0, 0x10f(sp)
   109a4: 63 d4 4c 21  	bge	s9, s4, 0x10bac <parse_switches+0x6f0>
   109a8: 13 95 3c 00  	slli	a0, s9, 0x3
   109ac: 33 85 a9 00  	add	a0, s3, a0
   109b0: 03 35 05 00  	ld	a0, 0x0(a0)
   109b4: 13 06 01 11  	addi	a2, sp, 0x110
   109b8: 93 06 f1 10  	addi	a3, sp, 0x10f
   109bc: 83 35 81 07  	ld	a1, 0x78(sp)
   109c0: ef e0 60 3b  	jal	ra, 0x1ed76 <sscanf>
   109c4: 63 54 a0 1e  	bge	zero, a0, 0x10bac <parse_switches+0x6f0>
   109c8: 03 35 01 11  	ld	a0, 0x110(sp)
   109cc: 93 55 05 01  	srli	a1, a0, 0x10
   109d0: 63 9e 05 1c  	bne	a1, zero, 0x10bac <parse_switches+0x6f0>
   109d4: 83 45 f1 10  	lbu	a1, 0x10f(sp)
   109d8: 93 f5 f5 0d  	andi	a1, a1, 0xdf
   109dc: 13 06 20 04  	addi	a2, zero, 0x42
   109e0: 63 96 c5 00  	bne	a1, a2, 0x109ec <parse_switches+0x530>
   109e4: 23 28 a4 10  	sw	a0, 0x110(s0)
   109e8: 13 05 00 00  	addi	a0, zero, 0x0
   109ec: 23 2a a4 10  	sw	a0, 0x114(s0)
   109f0: 6f f0 1f cc  	jal	zero, 0x106b0 <parse_switches+0x1f4>
   109f4: 13 06 20 00  	addi	a2, zero, 0x2
   109f8: 13 85 0a 00  	addi	a0, s5, 0x0
   109fc: 83 35 81 02  	ld	a1, 0x28(sp)
   10a00: ef 30 c0 51  	jal	ra, 0x13f1c <keymatch>
   10a04: 63 00 05 02  	beq	a0, zero, 0x10a24 <parse_switches+0x568>
   10a08: 9b 8c 1c 00  	addiw	s9, s9, 0x1
   10a0c: 63 d0 4c 1b  	bge	s9, s4, 0x10bac <parse_switches+0x6f0>
   10a10: 13 95 3c 00  	slli	a0, s9, 0x3
   10a14: 33 85 a9 00  	add	a0, s3, a0
   10a18: 03 35 05 00  	ld	a0, 0x0(a0)
   10a1c: 23 3c a1 0c  	sd	a0, 0xd8(sp)
   10a20: 6f f0 1f c9  	jal	zero, 0x106b0 <parse_switches+0x1f4>
   10a24: 13 06 20 00  	addi	a2, zero, 0x2
   10a28: 13 85 0a 00  	addi	a0, s5, 0x0
   10a2c: 83 35 01 02  	ld	a1, 0x20(sp)
   10a30: ef 30 c0 4e  	jal	ra, 0x13f1c <keymatch>
   10a34: 63 00 05 02  	beq	a0, zero, 0x10a54 <parse_switches+0x598>
   10a38: 9b 8c 1c 00  	addiw	s9, s9, 0x1
   10a3c: 63 d8 4c 17  	bge	s9, s4, 0x10bac <parse_switches+0x6f0>
   10a40: 13 95 3c 00  	slli	a0, s9, 0x3
   10a44: 33 85 a9 00  	add	a0, s3, a0
   10a48: 03 35 05 00  	ld	a0, 0x0(a0)
   10a4c: 23 38 a1 0c  	sd	a0, 0xd0(sp)
   10a50: 6f f0 1f c6  	jal	zero, 0x106b0 <parse_switches+0x1f4>
   10a54: 13 06 20 00  	addi	a2, zero, 0x2
   10a58: 13 85 0a 00  	addi	a0, s5, 0x0
   10a5c: 83 35 81 01  	ld	a1, 0x18(sp)
   10a60: ef 30 c0 4b  	jal	ra, 0x13f1c <keymatch>
   10a64: 63 00 05 04  	beq	a0, zero, 0x10aa4 <parse_switches+0x5e8>
   10a68: 9b 8c 1c 00  	addiw	s9, s9, 0x1
   10a6c: 63 d0 4c 15  	bge	s9, s4, 0x10bac <parse_switches+0x6f0>
   10a70: 13 95 3c 00  	slli	a0, s9, 0x3
   10a74: 33 85 a9 00  	add	a0, s3, a0
   10a78: 03 35 05 00  	ld	a0, 0x0(a0)
   10a7c: 13 06 01 11  	addi	a2, sp, 0x110
   10a80: 83 35 81 04  	ld	a1, 0x48(sp)
   10a84: ef e0 20 2f  	jal	ra, 0x1ed76 <sscanf>
   10a88: 93 05 10 00  	addi	a1, zero, 0x1
   10a8c: 63 10 b5 12  	bne	a0, a1, 0x10bac <parse_switches+0x6f0>
   10a90: 03 25 01 11  	lw	a0, 0x110(sp)
   10a94: 93 05 50 06  	addi	a1, zero, 0x65
   10a98: 63 7a b5 10  	bgeu	a0, a1, 0x10bac <parse_switches+0x6f0>
   10a9c: 23 24 a4 10  	sw	a0, 0x108(s0)
   10aa0: 6f f0 1f c1  	jal	zero, 0x106b0 <parse_switches+0x1f4>
   10aa4: 13 06 10 00  	addi	a2, zero, 0x1
   10aa8: 13 85 0a 00  	addi	a0, s5, 0x0
   10aac: 83 35 01 01  	ld	a1, 0x10(sp)
   10ab0: ef 30 c0 46  	jal	ra, 0x13f1c <keymatch>
   10ab4: 63 0c 05 0e  	beq	a0, zero, 0x10bac <parse_switches+0x6f0>
   10ab8: 93 05 10 00  	addi	a1, zero, 0x1
   10abc: 23 84 b1 22  	sb	a1, 0x228(gp)
   10ac0: 6f f0 1f bf  	jal	zero, 0x106b0 <parse_switches+0x1f4>
   10ac4: 93 0b 00 00  	addi	s7, zero, 0x0
   10ac8: 13 0c 00 00  	addi	s8, zero, 0x0
   10acc: 13 0a 00 00  	addi	s4, zero, 0x0
   10ad0: 93 09 00 00  	addi	s3, zero, 0x0
   10ad4: 13 09 00 00  	addi	s2, zero, 0x0
   10ad8: 93 0c 10 00  	addi	s9, zero, 0x1
   10adc: 93 0a 40 06  	addi	s5, zero, 0x64
   10ae0: 93 04 10 00  	addi	s1, zero, 0x1
   10ae4: 63 94 06 02  	bne	a3, zero, 0x10b0c <parse_switches+0x650>
   10ae8: 6f 00 80 09  	jal	zero, 0x10b80 <parse_switches+0x6c4>
   10aec: 03 35 01 0f  	ld	a0, 0xf0(sp)
   10af0: 93 34 15 00  	sltiu	s1, a0, 0x1
   10af4: 83 36 81 0c  	ld	a3, 0xc8(sp)
   10af8: 03 39 01 0d  	ld	s2, 0xd0(sp)
   10afc: 83 39 81 0d  	ld	s3, 0xd8(sp)
   10b00: 03 3a 01 0e  	ld	s4, 0xe0(sp)
   10b04: 83 3a 81 0e  	ld	s5, 0xe8(sp)
   10b08: 63 8c 06 06  	beq	a3, zero, 0x10b80 <parse_switches+0x6c4>
   10b0c: 83 25 c1 11  	lw	a1, 0x11c(sp)
   10b10: 13 05 04 00  	addi	a0, s0, 0x0
   10b14: 13 86 0b 00  	addi	a2, s7, 0x0
   10b18: ef 30 50 44  	jal	ra, 0x1475c <jpeg_set_quality>
   10b1c: 63 0e 0c 00  	beq	s8, zero, 0x10b38 <parse_switches+0x67c>
   10b20: 13 05 04 00  	addi	a0, s0, 0x0
   10b24: 93 05 0c 00  	addi	a1, s8, 0x0
   10b28: 13 86 0a 00  	addi	a2, s5, 0x0
   10b2c: 93 86 0b 00  	addi	a3, s7, 0x0
   10b30: ef 20 90 43  	jal	ra, 0x13768 <read_quant_tables>
   10b34: 63 0c 05 06  	beq	a0, zero, 0x10bac <parse_switches+0x6f0>
   10b38: 63 0a 0a 00  	beq	s4, zero, 0x10b4c <parse_switches+0x690>
   10b3c: 13 05 04 00  	addi	a0, s0, 0x0
   10b40: 93 05 0a 00  	addi	a1, s4, 0x0
   10b44: ef 30 40 1a  	jal	ra, 0x13ce8 <set_quant_slots>
   10b48: 63 02 05 06  	beq	a0, zero, 0x10bac <parse_switches+0x6f0>
   10b4c: 63 8a 09 00  	beq	s3, zero, 0x10b60 <parse_switches+0x6a4>
   10b50: 13 05 04 00  	addi	a0, s0, 0x0
   10b54: 93 85 09 00  	addi	a1, s3, 0x0
   10b58: ef 30 40 27  	jal	ra, 0x13dcc <set_sample_factors>
   10b5c: 63 08 05 04  	beq	a0, zero, 0x10bac <parse_switches+0x6f0>
   10b60: 63 96 04 00  	bne	s1, zero, 0x10b6c <parse_switches+0x6b0>
   10b64: 13 05 04 00  	addi	a0, s0, 0x0
   10b68: ef 40 c0 23  	jal	ra, 0x14da4 <jpeg_simple_progression>
   10b6c: 63 0a 09 00  	beq	s2, zero, 0x10b80 <parse_switches+0x6c4>
   10b70: 13 05 04 00  	addi	a0, s0, 0x0
   10b74: 93 05 09 00  	addi	a1, s2, 0x0
   10b78: ef 20 90 5f  	jal	ra, 0x13970 <read_scan_script>
   10b7c: 63 08 05 02  	beq	a0, zero, 0x10bac <parse_switches+0x6f0>
   10b80: 13 85 0c 00  	addi	a0, s9, 0x0
   10b84: 13 01 01 12  	addi	sp, sp, 0x120
   10b88: 6f 00 12 58  	jal	zero, 0x31908 <__riscv_restore_12>
   10b8c: 03 b5 01 20  	ld	a0, 0x200(gp)
   10b90: 03 35 85 01  	ld	a0, 0x18(a0)
   10b94: 03 b6 81 21  	ld	a2, 0x218(gp)
   10b98: b7 25 03 00  	lui	a1, 0x32
   10b9c: 93 85 c5 fa  	addi	a1, a1, -0x54
   10ba0: ef d0 b0 33  	jal	ra, 0x1e6da <fprintf>
   10ba4: 13 05 10 00  	addi	a0, zero, 0x1
   10ba8: ef f0 8f d7  	jal	ra, 0x10120 <exit>
   10bac: ef 00 40 00  	jal	ra, 0x10bb0 <usage>

0000000000010bb0 <usage>:
   10bb0: ef 02 f2 53  	jal	t0, 0x318ee <__riscv_save_3>
   10bb4: 03 b5 01 20  	ld	a0, 0x200(gp)
   10bb8: 03 35 85 01  	ld	a0, 0x18(a0)
   10bbc: 03 b6 81 21  	ld	a2, 0x218(gp)
   10bc0: b7 25 03 00  	lui	a1, 0x32
   10bc4: 93 85 e5 0d  	addi	a1, a1, 0xde
   10bc8: ef d0 30 31  	jal	ra, 0x1e6da <fprintf>
   10bcc: 03 b5 01 20  	ld	a0, 0x200(gp)
   10bd0: 83 36 85 01  	ld	a3, 0x18(a0)
   10bd4: 37 25 03 00  	lui	a0, 0x32
   10bd8: 13 05 45 0f  	addi	a0, a0, 0xf4
   10bdc: 93 05 c0 00  	addi	a1, zero, 0xc
   10be0: 13 06 10 00  	addi	a2, zero, 0x1
   10be4: ef d0 90 5f  	jal	ra, 0x1e9dc <fwrite>
   10be8: 03 b5 01 20  	ld	a0, 0x200(gp)
   10bec: 83 36 85 01  	ld	a3, 0x18(a0)
   10bf0: 37 25 03 00  	lui	a0, 0x32
   10bf4: 13 05 15 10  	addi	a0, a0, 0x101
   10bf8: 93 05 50 02  	addi	a1, zero, 0x25
   10bfc: 13 06 10 00  	addi	a2, zero, 0x1
   10c00: ef d0 d0 5d  	jal	ra, 0x1e9dc <fwrite>
   10c04: 03 b5 01 20  	ld	a0, 0x200(gp)
   10c08: 83 36 85 01  	ld	a3, 0x18(a0)
   10c0c: 37 25 03 00  	lui	a0, 0x32
   10c10: 13 05 75 12  	addi	a0, a0, 0x127
   10c14: 93 05 40 04  	addi	a1, zero, 0x44
   10c18: 13 06 10 00  	addi	a2, zero, 0x1
   10c1c: ef d0 10 5c  	jal	ra, 0x1e9dc <fwrite>
   10c20: 03 b5 01 20  	ld	a0, 0x200(gp)
   10c24: 83 36 85 01  	ld	a3, 0x18(a0)
   10c28: 37 25 03 00  	lui	a0, 0x32
   10c2c: 13 05 c5 16  	addi	a0, a0, 0x16c
   10c30: 93 05 d0 02  	addi	a1, zero, 0x2d
   10c34: 13 06 10 00  	addi	a2, zero, 0x1
   10c38: ef d0 50 5a  	jal	ra, 0x1e9dc <fwrite>
   10c3c: 03 b5 01 20  	ld	a0, 0x200(gp)
   10c40: 83 36 85 01  	ld	a3, 0x18(a0)
   10c44: 37 25 03 00  	lui	a0, 0x32
   10c48: 13 05 a5 19  	addi	a0, a0, 0x19a
   10c4c: 93 05 d0 04  	addi	a1, zero, 0x4d
   10c50: 13 06 10 00  	addi	a2, zero, 0x1
   10c54: ef d0 90 58  	jal	ra, 0x1e9dc <fwrite>
   10c58: 03 b5 01 20  	ld	a0, 0x200(gp)
   10c5c: 83 36 85 01  	ld	a3, 0x18(a0)
   10c60: 37 25 03 00  	lui	a0, 0x32
   10c64: 13 05 85 1e  	addi	a0, a0, 0x1e8
   10c68: 93 05 e0 02  	addi	a1, zero, 0x2e
   10c6c: 13 06 10 00  	addi	a2, zero, 0x1
   10c70: ef d0 d0 56  	jal	ra, 0x1e9dc <fwrite>
   10c74: 03 b5 01 20  	ld	a0, 0x200(gp)
   10c78: 83 36 85 01  	ld	a3, 0x18(a0)
   10c7c: 37 25 03 00  	lui	a0, 0x32
   10c80: 13 05 75 21  	addi	a0, a0, 0x217
   10c84: 93 05 10 04  	addi	a1, zero, 0x41
   10c88: 13 06 10 00  	addi	a2, zero, 0x1
   10c8c: ef d0 10 55  	jal	ra, 0x1e9dc <fwrite>
   10c90: 03 b5 01 20  	ld	a0, 0x200(gp)
   10c94: 83 36 85 01  	ld	a3, 0x18(a0)
   10c98: 37 25 03 00  	lui	a0, 0x32
   10c9c: 13 05 95 25  	addi	a0, a0, 0x259
   10ca0: 93 05 d0 01  	addi	a1, zero, 0x1d
   10ca4: 13 06 10 00  	addi	a2, zero, 0x1
   10ca8: ef d0 50 53  	jal	ra, 0x1e9dc <fwrite>
   10cac: 03 b5 01 20  	ld	a0, 0x200(gp)
   10cb0: 03 35 85 01  	ld	a0, 0x18(a0)
   10cb4: b7 25 03 00  	lui	a1, 0x32
   10cb8: 93 85 75 27  	addi	a1, a1, 0x277
   10cbc: 37 26 03 00  	lui	a2, 0x32
   10cc0: 13 06 26 2a  	addi	a2, a2, 0x2a2
   10cc4: ef d0 70 21  	jal	ra, 0x1e6da <fprintf>
   10cc8: 03 b5 01 20  	ld	a0, 0x200(gp)
   10ccc: 03 35 85 01  	ld	a0, 0x18(a0)
   10cd0: b7 25 03 00  	lui	a1, 0x32
   10cd4: 93 85 d5 2a  	addi	a1, a1, 0x2ad
   10cd8: 37 26 03 00  	lui	a2, 0x32
   10cdc: 13 04 86 25  	addi	s0, a2, 0x258
   10ce0: 13 06 04 00  	addi	a2, s0, 0x0
   10ce4: ef d0 70 1f  	jal	ra, 0x1e6da <fprintf>
   10ce8: 03 b5 01 20  	ld	a0, 0x200(gp)
   10cec: 03 35 85 01  	ld	a0, 0x18(a0)
   10cf0: b7 25 03 00  	lui	a1, 0x32
   10cf4: 93 85 65 2e  	addi	a1, a1, 0x2e6
   10cf8: 13 06 04 00  	addi	a2, s0, 0x0
   10cfc: ef d0 f0 1d  	jal	ra, 0x1e6da <fprintf>
   10d00: 03 b5 01 20  	ld	a0, 0x200(gp)
   10d04: 83 36 85 01  	ld	a3, 0x18(a0)
   10d08: 37 25 03 00  	lui	a0, 0x32
   10d0c: 13 05 85 31  	addi	a0, a0, 0x318
   10d10: 93 05 30 04  	addi	a1, zero, 0x43
   10d14: 13 06 10 00  	addi	a2, zero, 0x1
   10d18: ef d0 50 4c  	jal	ra, 0x1e9dc <fwrite>
   10d1c: 03 b5 01 20  	ld	a0, 0x200(gp)
   10d20: 83 36 85 01  	ld	a3, 0x18(a0)
   10d24: 37 25 03 00  	lui	a0, 0x32
   10d28: 13 05 c5 35  	addi	a0, a0, 0x35c
   10d2c: 93 05 e0 03  	addi	a1, zero, 0x3e
   10d30: 13 06 10 00  	addi	a2, zero, 0x1
   10d34: ef d0 90 4a  	jal	ra, 0x1e9dc <fwrite>
   10d38: 03 b5 01 20  	ld	a0, 0x200(gp)
   10d3c: 83 36 85 01  	ld	a3, 0x18(a0)
   10d40: 37 25 03 00  	lui	a0, 0x32
   10d44: 13 05 b5 39  	addi	a0, a0, 0x39b
   10d48: 93 05 30 03  	addi	a1, zero, 0x33
   10d4c: 13 06 10 00  	addi	a2, zero, 0x1
   10d50: ef d0 d0 48  	jal	ra, 0x1e9dc <fwrite>
   10d54: 03 b5 01 20  	ld	a0, 0x200(gp)
   10d58: 83 36 85 01  	ld	a3, 0x18(a0)
   10d5c: 37 25 03 00  	lui	a0, 0x32
   10d60: 13 05 f5 3c  	addi	a0, a0, 0x3cf
   10d64: 93 05 e0 02  	addi	a1, zero, 0x2e
   10d68: 13 06 10 00  	addi	a2, zero, 0x1
   10d6c: ef d0 10 47  	jal	ra, 0x1e9dc <fwrite>
   10d70: 03 b5 01 20  	ld	a0, 0x200(gp)
   10d74: 83 36 85 01  	ld	a3, 0x18(a0)
   10d78: 37 25 03 00  	lui	a0, 0x32
   10d7c: 13 05 e5 3f  	addi	a0, a0, 0x3fe
   10d80: 93 05 b0 02  	addi	a1, zero, 0x2b
   10d84: 13 06 10 00  	addi	a2, zero, 0x1
   10d88: ef d0 50 45  	jal	ra, 0x1e9dc <fwrite>
   10d8c: 03 b5 01 20  	ld	a0, 0x200(gp)
   10d90: 83 36 85 01  	ld	a3, 0x18(a0)
   10d94: 37 25 03 00  	lui	a0, 0x32
   10d98: 13 05 a5 42  	addi	a0, a0, 0x42a
   10d9c: 93 05 60 01  	addi	a1, zero, 0x16
   10da0: 13 06 10 00  	addi	a2, zero, 0x1
   10da4: ef d0 90 43  	jal	ra, 0x1e9dc <fwrite>
   10da8: 03 b5 01 20  	ld	a0, 0x200(gp)
   10dac: 83 36 85 01  	ld	a3, 0x18(a0)
   10db0: 37 25 03 00  	lui	a0, 0x32
   10db4: 13 05 15 44  	addi	a0, a0, 0x441
   10db8: 93 05 70 02  	addi	a1, zero, 0x27
   10dbc: 13 06 10 00  	addi	a2, zero, 0x1
   10dc0: ef d0 d0 41  	jal	ra, 0x1e9dc <fwrite>
   10dc4: 03 b5 01 20  	ld	a0, 0x200(gp)
   10dc8: 83 36 85 01  	ld	a3, 0x18(a0)
   10dcc: 37 25 03 00  	lui	a0, 0x32
   10dd0: 13 05 95 46  	addi	a0, a0, 0x469
   10dd4: 93 05 70 03  	addi	a1, zero, 0x37
   10dd8: 13 06 10 00  	addi	a2, zero, 0x1
   10ddc: ef d0 10 40  	jal	ra, 0x1e9dc <fwrite>
   10de0: 03 b5 01 20  	ld	a0, 0x200(gp)
   10de4: 83 36 85 01  	ld	a3, 0x18(a0)
   10de8: 37 25 03 00  	lui	a0, 0x32
   10dec: 13 05 15 4a  	addi	a0, a0, 0x4a1
   10df0: 93 05 70 03  	addi	a1, zero, 0x37
   10df4: 13 06 10 00  	addi	a2, zero, 0x1
   10df8: ef d0 50 3e  	jal	ra, 0x1e9dc <fwrite>
   10dfc: 03 b5 01 20  	ld	a0, 0x200(gp)
   10e00: 83 36 85 01  	ld	a3, 0x18(a0)
   10e04: 37 25 03 00  	lui	a0, 0x32
   10e08: 13 05 95 4d  	addi	a0, a0, 0x4d9
   10e0c: 93 05 40 03  	addi	a1, zero, 0x34
   10e10: 13 06 10 00  	addi	a2, zero, 0x1
   10e14: ef d0 90 3c  	jal	ra, 0x1e9dc <fwrite>
   10e18: 03 b5 01 20  	ld	a0, 0x200(gp)
   10e1c: 83 36 85 01  	ld	a3, 0x18(a0)
   10e20: 37 25 03 00  	lui	a0, 0x32
   10e24: 13 05 e5 50  	addi	a0, a0, 0x50e
   10e28: 93 05 80 03  	addi	a1, zero, 0x38
   10e2c: 13 06 10 00  	addi	a2, zero, 0x1
   10e30: ef d0 d0 3a  	jal	ra, 0x1e9dc <fwrite>
   10e34: 13 05 10 00  	addi	a0, zero, 0x1
   10e38: ef f0 8f ae  	jal	ra, 0x10120 <exit>

0000000000010e3c <jinit_read_ppm>:
   10e3c: ef 02 52 2c  	jal	t0, 0x31900 <__riscv_save_1>
   10e40: 83 35 85 00  	ld	a1, 0x8(a0)
   10e44: 83 b6 05 00  	ld	a3, 0x0(a1)
   10e48: 93 05 10 00  	addi	a1, zero, 0x1
   10e4c: 13 06 00 05  	addi	a2, zero, 0x50
   10e50: e7 80 06 00  	jalr	ra, 0x0(a3)
   10e54: b7 15 01 00  	lui	a1, 0x11
   10e58: 93 85 05 e7  	addi	a1, a1, -0x190
   10e5c: 23 30 b5 00  	sd	a1, 0x0(a0)
   10e60: b7 15 01 00  	lui	a1, 0x11
   10e64: 93 85 85 1a  	addi	a1, a1, 0x1a8
   10e68: 23 38 b5 00  	sd	a1, 0x10(a0)
   10e6c: 6f 00 f2 2b  	jal	zero, 0x3192a <__riscv_restore_1>

0000000000010e70 <start_input_ppm>:
   10e70: ef 02 b2 26  	jal	t0, 0x318da <__riscv_save_7>
   10e74: 13 84 05 00  	addi	s0, a1, 0x0
   10e78: 83 b5 85 01  	ld	a1, 0x18(a1)
   10e7c: 93 04 05 00  	addi	s1, a0, 0x0
   10e80: 13 85 05 00  	addi	a0, a1, 0x0
   10e84: ef d0 f0 41  	jal	ra, 0x1eaa2 <getc>
   10e88: 93 05 00 05  	addi	a1, zero, 0x50
   10e8c: 63 0e b5 00  	beq	a0, a1, 0x10ea8 <start_input_ppm+0x38>
   10e90: 03 b5 04 00  	ld	a0, 0x0(s1)
   10e94: 83 35 05 00  	ld	a1, 0x0(a0)
   10e98: 13 06 30 40  	addi	a2, zero, 0x403
   10e9c: 23 24 c5 02  	sw	a2, 0x28(a0)
   10ea0: 13 85 04 00  	addi	a0, s1, 0x0
   10ea4: e7 80 05 00  	jalr	ra, 0x0(a1)
   10ea8: 03 35 84 01  	ld	a0, 0x18(s0)
   10eac: ef d0 70 3f  	jal	ra, 0x1eaa2 <getc>
   10eb0: 83 35 84 01  	ld	a1, 0x18(s0)
   10eb4: 93 0a 05 00  	addi	s5, a0, 0x0
   10eb8: 13 85 04 00  	addi	a0, s1, 0x0
   10ebc: ef 00 00 2f  	jal	ra, 0x111ac <read_pbm_integer>
   10ec0: 83 35 84 01  	ld	a1, 0x18(s0)
   10ec4: 93 09 05 00  	addi	s3, a0, 0x0
   10ec8: 13 85 04 00  	addi	a0, s1, 0x0
   10ecc: ef 00 00 2e  	jal	ra, 0x111ac <read_pbm_integer>
   10ed0: 83 35 84 01  	ld	a1, 0x18(s0)
   10ed4: 13 0a 05 00  	addi	s4, a0, 0x0
   10ed8: 13 85 04 00  	addi	a0, s1, 0x0
   10edc: ef 00 00 2d  	jal	ra, 0x111ac <read_pbm_integer>
   10ee0: 13 09 05 00  	addi	s2, a0, 0x0
   10ee4: 63 86 09 00  	beq	s3, zero, 0x10ef0 <start_input_ppm+0x80>
   10ee8: 63 04 0a 00  	beq	s4, zero, 0x10ef0 <start_input_ppm+0x80>
   10eec: 63 1e 09 00  	bne	s2, zero, 0x10f08 <start_input_ppm+0x98>
   10ef0: 03 b5 04 00  	ld	a0, 0x0(s1)
   10ef4: 83 35 05 00  	ld	a1, 0x0(a0)
   10ef8: 13 06 30 40  	addi	a2, zero, 0x403
   10efc: 23 24 c5 02  	sw	a2, 0x28(a0)
   10f00: 13 85 04 00  	addi	a0, s1, 0x0
   10f04: e7 80 05 00  	jalr	ra, 0x0(a1)
   10f08: 13 05 80 00  	addi	a0, zero, 0x8
   10f0c: 23 a0 a4 04  	sw	a0, 0x40(s1)
   10f10: 23 a4 34 03  	sw	s3, 0x28(s1)
   10f14: 13 05 40 03  	addi	a0, zero, 0x34
   10f18: 23 a6 44 03  	sw	s4, 0x2c(s1)
   10f1c: 63 46 55 03  	blt	a0, s5, 0x10f48 <start_input_ppm+0xd8>
   10f20: 13 05 20 03  	addi	a0, zero, 0x32
   10f24: 63 84 aa 0a  	beq	s5, a0, 0x10fcc <start_input_ppm+0x15c>
   10f28: 13 05 30 03  	addi	a0, zero, 0x33
   10f2c: 63 90 aa 08  	bne	s5, a0, 0x10fac <start_input_ppm+0x13c>
   10f30: 37 15 01 00  	lui	a0, 0x11
   10f34: 93 0a 85 2d  	addi	s5, a0, 0x2d8
   10f38: 13 05 70 40  	addi	a0, zero, 0x407
   10f3c: 13 06 20 00  	addi	a2, zero, 0x2
   10f40: 93 05 30 00  	addi	a1, zero, 0x3
   10f44: 6f 00 c0 09  	jal	zero, 0x10fe0 <start_input_ppm+0x170>
   10f48: 13 05 50 03  	addi	a0, zero, 0x35
   10f4c: 63 88 aa 0c  	beq	s5, a0, 0x1101c <start_input_ppm+0x1ac>
   10f50: 13 05 60 03  	addi	a0, zero, 0x36
   10f54: 63 9c aa 04  	bne	s5, a0, 0x10fac <start_input_ppm+0x13c>
   10f58: 93 0a 10 00  	addi	s5, zero, 0x1
   10f5c: 03 b5 04 00  	ld	a0, 0x0(s1)
   10f60: 93 95 1a 02  	slli	a1, s5, 0x21
   10f64: 93 85 35 00  	addi	a1, a1, 0x3
   10f68: 23 b8 b4 02  	sd	a1, 0x30(s1)
   10f6c: 23 26 35 03  	sw	s3, 0x2c(a0)
   10f70: 83 b5 04 00  	ld	a1, 0x0(s1)
   10f74: 13 06 60 40  	addi	a2, zero, 0x406
   10f78: 23 24 c5 02  	sw	a2, 0x28(a0)
   10f7c: 23 a8 45 03  	sw	s4, 0x30(a1)
   10f80: 03 b5 04 00  	ld	a0, 0x0(s1)
   10f84: 03 36 85 00  	ld	a2, 0x8(a0)
   10f88: 93 05 10 00  	addi	a1, zero, 0x1
   10f8c: 13 85 04 00  	addi	a0, s1, 0x0
   10f90: e7 00 06 00  	jalr	ra, 0x0(a2)
   10f94: 13 05 00 10  	addi	a0, zero, 0x100
   10f98: 63 6e a9 0c  	bltu	s2, a0, 0x11074 <start_input_ppm+0x204>
   10f9c: 13 0a 00 00  	addi	s4, zero, 0x0
   10fa0: 37 15 01 00  	lui	a0, 0x11
   10fa4: 13 05 45 51  	addi	a0, a0, 0x514
   10fa8: 6f 00 40 0c  	jal	zero, 0x1106c <start_input_ppm+0x1fc>
   10fac: 03 b5 04 00  	ld	a0, 0x0(s1)
   10fb0: 83 35 05 00  	ld	a1, 0x0(a0)
   10fb4: 13 06 30 40  	addi	a2, zero, 0x403
   10fb8: 23 24 c5 02  	sw	a2, 0x28(a0)
   10fbc: 13 85 04 00  	addi	a0, s1, 0x0
   10fc0: e7 80 05 00  	jalr	ra, 0x0(a1)
   10fc4: 13 0a 00 00  	addi	s4, zero, 0x0
   10fc8: 6f 00 40 0f  	jal	zero, 0x110bc <start_input_ppm+0x24c>
   10fcc: 37 15 01 00  	lui	a0, 0x11
   10fd0: 93 0a 05 27  	addi	s5, a0, 0x270
   10fd4: 13 05 50 40  	addi	a0, zero, 0x405
   10fd8: 93 05 10 00  	addi	a1, zero, 0x1
   10fdc: 13 06 10 00  	addi	a2, zero, 0x1
   10fe0: 83 b6 04 00  	ld	a3, 0x0(s1)
   10fe4: 23 a8 b4 02  	sw	a1, 0x30(s1)
   10fe8: 23 aa c4 02  	sw	a2, 0x34(s1)
   10fec: 23 a6 36 03  	sw	s3, 0x2c(a3)
   10ff0: 83 b5 04 00  	ld	a1, 0x0(s1)
   10ff4: 23 a4 a6 02  	sw	a0, 0x28(a3)
   10ff8: 23 a8 45 03  	sw	s4, 0x30(a1)
   10ffc: 03 b5 04 00  	ld	a0, 0x0(s1)
   11000: 03 36 85 00  	ld	a2, 0x8(a0)
   11004: 93 05 10 00  	addi	a1, zero, 0x1
   11008: 13 85 04 00  	addi	a0, s1, 0x0
   1100c: e7 00 06 00  	jalr	ra, 0x0(a2)
   11010: 13 0a 00 00  	addi	s4, zero, 0x0
   11014: 23 34 54 01  	sd	s5, 0x8(s0)
   11018: 6f 00 80 0e  	jal	zero, 0x11100 <start_input_ppm+0x290>
   1101c: 93 0a 10 00  	addi	s5, zero, 0x1
   11020: 03 b5 04 00  	ld	a0, 0x0(s1)
   11024: 93 95 0a 02  	slli	a1, s5, 0x20
   11028: 93 85 15 00  	addi	a1, a1, 0x1
   1102c: 23 b8 b4 02  	sd	a1, 0x30(s1)
   11030: 23 26 35 03  	sw	s3, 0x2c(a0)
   11034: 83 b5 04 00  	ld	a1, 0x0(s1)
   11038: 13 06 40 40  	addi	a2, zero, 0x404
   1103c: 23 24 c5 02  	sw	a2, 0x28(a0)
   11040: 23 a8 45 03  	sw	s4, 0x30(a1)
   11044: 03 b5 04 00  	ld	a0, 0x0(s1)
   11048: 03 36 85 00  	ld	a2, 0x8(a0)
   1104c: 93 05 10 00  	addi	a1, zero, 0x1
   11050: 13 85 04 00  	addi	a0, s1, 0x0
   11054: e7 00 06 00  	jalr	ra, 0x0(a2)
   11058: 13 05 00 10  	addi	a0, zero, 0x100
   1105c: 63 68 a9 02  	bltu	s2, a0, 0x1108c <start_input_ppm+0x21c>
   11060: 13 0a 00 00  	addi	s4, zero, 0x0
   11064: 37 15 01 00  	lui	a0, 0x11
   11068: 13 05 85 38  	addi	a0, a0, 0x388
   1106c: 23 34 a4 00  	sd	a0, 0x8(s0)
   11070: 6f 00 00 05  	jal	zero, 0x110c0 <start_input_ppm+0x250>
   11074: 13 05 f0 0f  	addi	a0, zero, 0xff
   11078: 63 0e a9 00  	beq	s2, a0, 0x11094 <start_input_ppm+0x224>
   1107c: 13 0a 00 00  	addi	s4, zero, 0x0
   11080: 37 15 01 00  	lui	a0, 0x11
   11084: 13 05 85 5f  	addi	a0, a0, 0x5f8
   11088: 6f 00 00 03  	jal	zero, 0x110b8 <start_input_ppm+0x248>
   1108c: 13 05 f0 0f  	addi	a0, zero, 0xff
   11090: 63 1e a9 00  	bne	s2, a0, 0x110ac <start_input_ppm+0x23c>
   11094: 93 0a 00 00  	addi	s5, zero, 0x0
   11098: 37 15 01 00  	lui	a0, 0x11
   1109c: 13 05 c5 42  	addi	a0, a0, 0x42c
   110a0: 23 34 a4 00  	sd	a0, 0x8(s0)
   110a4: 13 0a 10 00  	addi	s4, zero, 0x1
   110a8: 6f 00 80 01  	jal	zero, 0x110c0 <start_input_ppm+0x250>
   110ac: 13 0a 00 00  	addi	s4, zero, 0x0
   110b0: 37 15 01 00  	lui	a0, 0x11
   110b4: 13 05 85 47  	addi	a0, a0, 0x478
   110b8: 23 34 a4 00  	sd	a0, 0x8(s0)
   110bc: 93 0a 10 00  	addi	s5, zero, 0x1
   110c0: 03 a5 04 03  	lw	a0, 0x30(s1)
   110c4: 93 95 09 02  	slli	a1, s3, 0x20
   110c8: 93 d5 05 02  	srli	a1, a1, 0x20
   110cc: ef 00 92 06  	jal	ra, 0x31934 <__muldi3>
   110d0: 83 b5 84 00  	ld	a1, 0x8(s1)
   110d4: 13 36 09 10  	sltiu	a2, s2, 0x100
   110d8: 83 b6 05 00  	ld	a3, 0x0(a1)
   110dc: 93 45 16 00  	xori	a1, a2, 0x1
   110e0: 33 16 b5 00  	sll	a2, a0, a1
   110e4: 23 30 c4 04  	sd	a2, 0x40(s0)
   110e8: 93 05 10 00  	addi	a1, zero, 0x1
   110ec: 13 0b 10 00  	addi	s6, zero, 0x1
   110f0: 13 85 04 00  	addi	a0, s1, 0x0
   110f4: e7 80 06 00  	jalr	ra, 0x0(a3)
   110f8: 23 38 a4 02  	sd	a0, 0x30(s0)
   110fc: 63 80 0a 04  	beq	s5, zero, 0x1113c <start_input_ppm+0x2cc>
   11100: 03 b5 84 00  	ld	a0, 0x8(s1)
   11104: 83 3a 05 01  	ld	s5, 0x10(a0)
   11108: 03 a5 04 03  	lw	a0, 0x30(s1)
   1110c: 93 85 09 00  	addi	a1, s3, 0x0
   11110: ef 00 52 02  	jal	ra, 0x31934 <__muldi3>
   11114: 1b 06 05 00  	addiw	a2, a0, 0x0
   11118: 93 05 10 00  	addi	a1, zero, 0x1
   1111c: 93 06 10 00  	addi	a3, zero, 0x1
   11120: 93 09 10 00  	addi	s3, zero, 0x1
   11124: 13 85 04 00  	addi	a0, s1, 0x0
   11128: e7 80 0a 00  	jalr	ra, 0x0(s5)
   1112c: 23 30 a4 02  	sd	a0, 0x20(s0)
   11130: 23 24 34 03  	sw	s3, 0x28(s0)
   11134: 63 0e 0a 00  	beq	s4, zero, 0x11150 <start_input_ppm+0x2e0>
   11138: 6f 00 c0 06  	jal	zero, 0x111a4 <start_input_ppm+0x334>
   1113c: 93 05 84 03  	addi	a1, s0, 0x38
   11140: 23 3c a4 02  	sd	a0, 0x38(s0)
   11144: 23 30 b4 02  	sd	a1, 0x20(s0)
   11148: 23 24 64 03  	sw	s6, 0x28(s0)
   1114c: 63 1c 0a 04  	bne	s4, zero, 0x111a4 <start_input_ppm+0x334>
   11150: 03 b5 84 00  	ld	a0, 0x8(s1)
   11154: 83 36 05 00  	ld	a3, 0x0(a0)
   11158: 13 15 09 02  	slli	a0, s2, 0x20
   1115c: 93 59 05 02  	srli	s3, a0, 0x20
   11160: 13 8a 19 00  	addi	s4, s3, 0x1
   11164: 93 05 10 00  	addi	a1, zero, 0x1
   11168: 13 85 04 00  	addi	a0, s1, 0x0
   1116c: 13 06 0a 00  	addi	a2, s4, 0x0
   11170: e7 80 06 00  	jalr	ra, 0x0(a3)
   11174: 93 0a 00 00  	addi	s5, zero, 0x0
   11178: 23 34 a4 04  	sd	a0, 0x48(s0)
   1117c: 9b 54 19 00  	srliw	s1, s2, 0x1
   11180: 13 85 04 00  	addi	a0, s1, 0x0
   11184: 93 85 09 00  	addi	a1, s3, 0x0
   11188: ef 00 42 7f  	jal	ra, 0x3197c <__udivdi3>
   1118c: 83 35 84 04  	ld	a1, 0x48(s0)
   11190: b3 85 55 01  	add	a1, a1, s5
   11194: 23 80 a5 00  	sb	a0, 0x0(a1)
   11198: 93 8a 1a 00  	addi	s5, s5, 0x1
   1119c: 93 84 f4 0f  	addi	s1, s1, 0xff
   111a0: e3 10 5a ff  	bne	s4, s5, 0x11180 <start_input_ppm+0x310>
   111a4: 6f 00 42 77  	jal	zero, 0x31918 <__riscv_restore_7>

00000000000111a8 <finish_input_ppm>:
   111a8: 67 80 00 00  	jalr	zero, 0x0(ra)

00000000000111ac <read_pbm_integer>:
   111ac: ef 02 82 73  	jal	t0, 0x318e4 <__riscv_save_5>
   111b0: 13 84 05 00  	addi	s0, a1, 0x0
   111b4: 93 04 05 00  	addi	s1, a0, 0x0
   111b8: 93 09 10 02  	addi	s3, zero, 0x21
   111bc: 37 05 80 00  	lui	a0, 0x800
   111c0: 1b 05 35 01  	addiw	a0, a0, 0x13
   111c4: 13 1a a5 00  	slli	s4, a0, 0xa
   111c8: 13 05 04 00  	addi	a0, s0, 0x0
   111cc: ef 00 c0 4e  	jal	ra, 0x116b8 <pbm_getc>
   111d0: 13 09 05 00  	addi	s2, a0, 0x0
   111d4: 13 05 15 00  	addi	a0, a0, 0x1
   111d8: 63 e8 a9 02  	bltu	s3, a0, 0x11208 <read_pbm_integer+0x5c>
   111dc: b3 55 aa 00  	srl	a1, s4, a0
   111e0: 93 f5 15 00  	andi	a1, a1, 0x1
   111e4: e3 92 05 fe  	bne	a1, zero, 0x111c8 <read_pbm_integer+0x1c>
   111e8: 63 10 05 02  	bne	a0, zero, 0x11208 <read_pbm_integer+0x5c>
   111ec: 03 b5 04 00  	ld	a0, 0x0(s1)
   111f0: 83 35 05 00  	ld	a1, 0x0(a0)
   111f4: 13 06 a0 02  	addi	a2, zero, 0x2a
   111f8: 23 24 c5 02  	sw	a2, 0x28(a0)
   111fc: 13 85 04 00  	addi	a0, s1, 0x0
   11200: e7 80 05 00  	jalr	ra, 0x0(a1)
   11204: 6f 00 00 01  	jal	zero, 0x11214 <read_pbm_integer+0x68>
   11208: 1b 05 69 fc  	addiw	a0, s2, -0x3a
   1120c: 93 05 50 ff  	addi	a1, zero, -0xb
   11210: 63 ee a5 00  	bltu	a1, a0, 0x1122c <read_pbm_integer+0x80>
   11214: 03 b5 04 00  	ld	a0, 0x0(s1)
   11218: 83 35 05 00  	ld	a1, 0x0(a0)
   1121c: 13 06 20 40  	addi	a2, zero, 0x402
   11220: 23 24 c5 02  	sw	a2, 0x28(a0)
   11224: 13 85 04 00  	addi	a0, s1, 0x0
   11228: e7 80 05 00  	jalr	ra, 0x0(a1)
   1122c: 9b 04 09 fd  	addiw	s1, s2, -0x30
   11230: 13 05 04 00  	addi	a0, s0, 0x0
   11234: ef 00 40 48  	jal	ra, 0x116b8 <pbm_getc>
   11238: 9b 09 05 fd  	addiw	s3, a0, -0x30
   1123c: 13 05 90 00  	addi	a0, zero, 0x9
   11240: 63 64 35 03  	bltu	a0, s3, 0x11268 <read_pbm_integer+0xbc>
   11244: 13 09 a0 00  	addi	s2, zero, 0xa
   11248: 93 05 a0 00  	addi	a1, zero, 0xa
   1124c: 13 85 04 00  	addi	a0, s1, 0x0
   11250: ef 00 42 6e  	jal	ra, 0x31934 <__muldi3>
   11254: bb 84 a9 00  	addw	s1, s3, a0
   11258: 13 05 04 00  	addi	a0, s0, 0x0
   1125c: ef 00 c0 45  	jal	ra, 0x116b8 <pbm_getc>
   11260: 9b 09 05 fd  	addiw	s3, a0, -0x30
   11264: e3 e2 29 ff  	bltu	s3, s2, 0x11248 <read_pbm_integer+0x9c>
   11268: 13 85 04 00  	addi	a0, s1, 0x0
   1126c: 6f 00 22 6b  	jal	zero, 0x3191e <__riscv_restore_5>

0000000000011270 <get_text_gray_row>:
   11270: ef 02 42 67  	jal	t0, 0x318e4 <__riscv_save_5>
   11274: 13 04 05 00  	addi	s0, a0, 0x0
   11278: 03 25 85 02  	lw	a0, 0x28(a0)
   1127c: 63 0a 05 04  	beq	a0, zero, 0x112d0 <get_text_gray_row+0x60>
   11280: 03 b6 05 02  	ld	a2, 0x20(a1)
   11284: 83 b4 85 01  	ld	s1, 0x18(a1)
   11288: 03 b9 85 04  	ld	s2, 0x48(a1)
   1128c: 83 39 06 00  	ld	s3, 0x0(a2)
   11290: 13 05 f5 ff  	addi	a0, a0, -0x1
   11294: 13 15 05 02  	slli	a0, a0, 0x20
   11298: 13 55 05 02  	srli	a0, a0, 0x20
   1129c: 33 05 35 01  	add	a0, a0, s3
   112a0: 13 0a 15 00  	addi	s4, a0, 0x1
   112a4: 13 05 04 00  	addi	a0, s0, 0x0
   112a8: 93 85 04 00  	addi	a1, s1, 0x0
   112ac: ef f0 1f f0  	jal	ra, 0x111ac <read_pbm_integer>
   112b0: 13 15 05 02  	slli	a0, a0, 0x20
   112b4: 13 55 05 02  	srli	a0, a0, 0x20
   112b8: 33 05 a9 00  	add	a0, s2, a0
   112bc: 03 45 05 00  	lbu	a0, 0x0(a0)
   112c0: 93 85 19 00  	addi	a1, s3, 0x1
   112c4: 23 80 a9 00  	sb	a0, 0x0(s3)
   112c8: 93 89 05 00  	addi	s3, a1, 0x0
   112cc: e3 9c 45 fd  	bne	a1, s4, 0x112a4 <get_text_gray_row+0x34>
   112d0: 13 05 10 00  	addi	a0, zero, 0x1
   112d4: 6f 00 a2 64  	jal	zero, 0x3191e <__riscv_restore_5>

00000000000112d8 <get_text_rgb_row>:
   112d8: ef 02 c2 60  	jal	t0, 0x318e4 <__riscv_save_5>
   112dc: 13 04 05 00  	addi	s0, a0, 0x0
   112e0: 03 25 85 02  	lw	a0, 0x28(a0)
   112e4: 63 0e 05 08  	beq	a0, zero, 0x11380 <get_text_rgb_row+0xa8>
   112e8: 03 b6 05 02  	ld	a2, 0x20(a1)
   112ec: 83 b4 85 01  	ld	s1, 0x18(a1)
   112f0: 03 b9 85 04  	ld	s2, 0x48(a1)
   112f4: 83 39 06 00  	ld	s3, 0x0(a2)
   112f8: 13 05 f5 ff  	addi	a0, a0, -0x1
   112fc: 13 15 05 02  	slli	a0, a0, 0x20
   11300: 93 55 05 02  	srli	a1, a0, 0x20
   11304: 13 55 f5 01  	srli	a0, a0, 0x1f
   11308: 33 05 b5 00  	add	a0, a0, a1
   1130c: 33 05 35 01  	add	a0, a0, s3
   11310: 13 0a 35 00  	addi	s4, a0, 0x3
   11314: 13 05 04 00  	addi	a0, s0, 0x0
   11318: 93 85 04 00  	addi	a1, s1, 0x0
   1131c: ef f0 1f e9  	jal	ra, 0x111ac <read_pbm_integer>
   11320: 13 15 05 02  	slli	a0, a0, 0x20
   11324: 13 55 05 02  	srli	a0, a0, 0x20
   11328: 33 05 a9 00  	add	a0, s2, a0
   1132c: 03 45 05 00  	lbu	a0, 0x0(a0)
   11330: 23 80 a9 00  	sb	a0, 0x0(s3)
   11334: 13 05 04 00  	addi	a0, s0, 0x0
   11338: 93 85 04 00  	addi	a1, s1, 0x0
   1133c: ef f0 1f e7  	jal	ra, 0x111ac <read_pbm_integer>
   11340: 13 15 05 02  	slli	a0, a0, 0x20
   11344: 13 55 05 02  	srli	a0, a0, 0x20
   11348: 33 05 a9 00  	add	a0, s2, a0
   1134c: 03 45 05 00  	lbu	a0, 0x0(a0)
   11350: a3 80 a9 00  	sb	a0, 0x1(s3)
   11354: 13 05 04 00  	addi	a0, s0, 0x0
   11358: 93 85 04 00  	addi	a1, s1, 0x0
   1135c: ef f0 1f e5  	jal	ra, 0x111ac <read_pbm_integer>
   11360: 13 15 05 02  	slli	a0, a0, 0x20
   11364: 13 55 05 02  	srli	a0, a0, 0x20
   11368: 33 05 a9 00  	add	a0, s2, a0
   1136c: 03 45 05 00  	lbu	a0, 0x0(a0)
   11370: 93 85 39 00  	addi	a1, s3, 0x3
   11374: 23 81 a9 00  	sb	a0, 0x2(s3)
   11378: 93 89 05 00  	addi	s3, a1, 0x0
   1137c: e3 9c 45 f9  	bne	a1, s4, 0x11314 <get_text_rgb_row+0x3c>
   11380: 13 05 10 00  	addi	a0, zero, 0x1
   11384: 6f 00 a2 59  	jal	zero, 0x3191e <__riscv_restore_5>

0000000000011388 <get_word_gray_row>:
   11388: ef 02 62 56  	jal	t0, 0x318ee <__riscv_save_3>
   1138c: 13 84 05 00  	addi	s0, a1, 0x0
   11390: 03 b9 85 04  	ld	s2, 0x48(a1)
   11394: 03 b7 05 03  	ld	a4, 0x30(a1)
   11398: 03 b6 05 04  	ld	a2, 0x40(a1)
   1139c: 83 b6 85 01  	ld	a3, 0x18(a1)
   113a0: 93 04 05 00  	addi	s1, a0, 0x0
   113a4: 93 05 10 00  	addi	a1, zero, 0x1
   113a8: 13 05 07 00  	addi	a0, a4, 0x0
   113ac: ef d0 c0 50  	jal	ra, 0x1e8b8 <fread>
   113b0: 83 35 04 04  	ld	a1, 0x40(s0)
   113b4: 63 0e b5 00  	beq	a0, a1, 0x113d0 <get_word_gray_row+0x48>
   113b8: 03 b5 04 00  	ld	a0, 0x0(s1)
   113bc: 83 35 05 00  	ld	a1, 0x0(a0)
   113c0: 13 06 a0 02  	addi	a2, zero, 0x2a
   113c4: 23 24 c5 02  	sw	a2, 0x28(a0)
   113c8: 13 85 04 00  	addi	a0, s1, 0x0
   113cc: e7 80 05 00  	jalr	ra, 0x0(a1)
   113d0: 03 a6 84 02  	lw	a2, 0x28(s1)
   113d4: 63 08 06 04  	beq	a2, zero, 0x11424 <get_word_gray_row+0x9c>
   113d8: 83 35 04 02  	ld	a1, 0x20(s0)
   113dc: 03 35 04 03  	ld	a0, 0x30(s0)
   113e0: 83 b5 05 00  	ld	a1, 0x0(a1)
   113e4: 13 06 f6 ff  	addi	a2, a2, -0x1
   113e8: 13 16 06 02  	slli	a2, a2, 0x20
   113ec: 13 56 f6 01  	srli	a2, a2, 0x1f
   113f0: 33 06 a6 00  	add	a2, a2, a0
   113f4: 13 06 26 00  	addi	a2, a2, 0x2
   113f8: 83 46 15 00  	lbu	a3, 0x1(a0)
   113fc: 03 47 05 00  	lbu	a4, 0x0(a0)
   11400: 93 96 86 00  	slli	a3, a3, 0x8
   11404: b3 e6 e6 00  	or	a3, a3, a4
   11408: b3 06 d9 00  	add	a3, s2, a3
   1140c: 83 c6 06 00  	lbu	a3, 0x0(a3)
   11410: 13 87 15 00  	addi	a4, a1, 0x1
   11414: 13 05 25 00  	addi	a0, a0, 0x2
   11418: 23 80 d5 00  	sb	a3, 0x0(a1)
   1141c: 93 05 07 00  	addi	a1, a4, 0x0
   11420: e3 1c c5 fc  	bne	a0, a2, 0x113f8 <get_word_gray_row+0x70>
   11424: 13 05 10 00  	addi	a0, zero, 0x1
   11428: 6f 00 c2 4f  	jal	zero, 0x31924 <__riscv_restore_3>

000000000001142c <get_raw_row>:
   1142c: ef 02 22 4c  	jal	t0, 0x318ee <__riscv_save_3>
   11430: 93 84 05 00  	addi	s1, a1, 0x0
   11434: 03 b7 05 03  	ld	a4, 0x30(a1)
   11438: 03 b6 05 04  	ld	a2, 0x40(a1)
   1143c: 83 b6 85 01  	ld	a3, 0x18(a1)
   11440: 13 04 05 00  	addi	s0, a0, 0x0
   11444: 93 05 10 00  	addi	a1, zero, 0x1
   11448: 13 05 07 00  	addi	a0, a4, 0x0
   1144c: ef d0 c0 46  	jal	ra, 0x1e8b8 <fread>
   11450: 83 b5 04 04  	ld	a1, 0x40(s1)
   11454: 63 0e b5 00  	beq	a0, a1, 0x11470 <get_raw_row+0x44>
   11458: 03 35 04 00  	ld	a0, 0x0(s0)
   1145c: 83 35 05 00  	ld	a1, 0x0(a0)
   11460: 13 06 a0 02  	addi	a2, zero, 0x2a
   11464: 23 24 c5 02  	sw	a2, 0x28(a0)
   11468: 13 05 04 00  	addi	a0, s0, 0x0
   1146c: e7 80 05 00  	jalr	ra, 0x0(a1)
   11470: 13 05 10 00  	addi	a0, zero, 0x1
   11474: 6f 00 02 4b  	jal	zero, 0x31924 <__riscv_restore_3>

0000000000011478 <get_scaled_gray_row>:
   11478: ef 02 62 47  	jal	t0, 0x318ee <__riscv_save_3>
   1147c: 13 84 05 00  	addi	s0, a1, 0x0
   11480: 03 b9 85 04  	ld	s2, 0x48(a1)
   11484: 03 b7 05 03  	ld	a4, 0x30(a1)
   11488: 03 b6 05 04  	ld	a2, 0x40(a1)
   1148c: 83 b6 85 01  	ld	a3, 0x18(a1)
   11490: 93 04 05 00  	addi	s1, a0, 0x0
   11494: 93 05 10 00  	addi	a1, zero, 0x1
   11498: 13 05 07 00  	addi	a0, a4, 0x0
   1149c: ef d0 c0 41  	jal	ra, 0x1e8b8 <fread>
   114a0: 83 35 04 04  	ld	a1, 0x40(s0)
   114a4: 63 0e b5 00  	beq	a0, a1, 0x114c0 <get_scaled_gray_row+0x48>
   114a8: 03 b5 04 00  	ld	a0, 0x0(s1)
   114ac: 83 35 05 00  	ld	a1, 0x0(a0)
   114b0: 13 06 a0 02  	addi	a2, zero, 0x2a
   114b4: 23 24 c5 02  	sw	a2, 0x28(a0)
   114b8: 13 85 04 00  	addi	a0, s1, 0x0
   114bc: e7 80 05 00  	jalr	ra, 0x0(a1)
   114c0: 03 a6 84 02  	lw	a2, 0x28(s1)
   114c4: 63 04 06 04  	beq	a2, zero, 0x1150c <get_scaled_gray_row+0x94>
   114c8: 03 35 04 02  	ld	a0, 0x20(s0)
   114cc: 83 35 04 03  	ld	a1, 0x30(s0)
   114d0: 03 35 05 00  	ld	a0, 0x0(a0)
   114d4: 13 06 f6 ff  	addi	a2, a2, -0x1
   114d8: 13 16 06 02  	slli	a2, a2, 0x20
   114dc: 13 56 06 02  	srli	a2, a2, 0x20
   114e0: 33 06 b6 00  	add	a2, a2, a1
   114e4: 13 06 16 00  	addi	a2, a2, 0x1
   114e8: 83 c6 05 00  	lbu	a3, 0x0(a1)
   114ec: b3 06 d9 00  	add	a3, s2, a3
   114f0: 83 c6 06 00  	lbu	a3, 0x0(a3)
   114f4: 13 87 15 00  	addi	a4, a1, 0x1
   114f8: 93 05 15 00  	addi	a1, a0, 0x1
   114fc: 23 00 d5 00  	sb	a3, 0x0(a0)
   11500: 13 85 05 00  	addi	a0, a1, 0x0
   11504: 93 05 07 00  	addi	a1, a4, 0x0
   11508: e3 10 c7 fe  	bne	a4, a2, 0x114e8 <get_scaled_gray_row+0x70>
   1150c: 13 05 10 00  	addi	a0, zero, 0x1
   11510: 6f 00 42 41  	jal	zero, 0x31924 <__riscv_restore_3>

0000000000011514 <get_word_rgb_row>:
   11514: ef 02 a2 3d  	jal	t0, 0x318ee <__riscv_save_3>
   11518: 13 84 05 00  	addi	s0, a1, 0x0
   1151c: 03 b9 85 04  	ld	s2, 0x48(a1)
   11520: 03 b7 05 03  	ld	a4, 0x30(a1)
   11524: 03 b6 05 04  	ld	a2, 0x40(a1)
   11528: 83 b6 85 01  	ld	a3, 0x18(a1)
   1152c: 93 04 05 00  	addi	s1, a0, 0x0
   11530: 93 05 10 00  	addi	a1, zero, 0x1
   11534: 13 05 07 00  	addi	a0, a4, 0x0
   11538: ef d0 00 38  	jal	ra, 0x1e8b8 <fread>
   1153c: 83 35 04 04  	ld	a1, 0x40(s0)
   11540: 63 0e b5 00  	beq	a0, a1, 0x1155c <get_word_rgb_row+0x48>
   11544: 03 b5 04 00  	ld	a0, 0x0(s1)
   11548: 83 35 05 00  	ld	a1, 0x0(a0)
   1154c: 13 06 a0 02  	addi	a2, zero, 0x2a
   11550: 23 24 c5 02  	sw	a2, 0x28(a0)
   11554: 13 85 04 00  	addi	a0, s1, 0x0
   11558: e7 80 05 00  	jalr	ra, 0x0(a1)
   1155c: 03 a5 84 02  	lw	a0, 0x28(s1)
   11560: 63 08 05 08  	beq	a0, zero, 0x115f0 <get_word_rgb_row+0xdc>
   11564: 83 35 04 02  	ld	a1, 0x20(s0)
   11568: 03 34 04 03  	ld	s0, 0x30(s0)
   1156c: 83 b4 05 00  	ld	s1, 0x0(a1)
   11570: 13 05 f5 ff  	addi	a0, a0, -0x1
   11574: 13 15 05 02  	slli	a0, a0, 0x20
   11578: 13 55 05 02  	srli	a0, a0, 0x20
   1157c: 93 05 60 00  	addi	a1, zero, 0x6
   11580: ef 00 42 3b  	jal	ra, 0x31934 <__muldi3>
   11584: 33 05 85 00  	add	a0, a0, s0
   11588: 13 05 65 00  	addi	a0, a0, 0x6
   1158c: 83 45 14 00  	lbu	a1, 0x1(s0)
   11590: 03 46 04 00  	lbu	a2, 0x0(s0)
   11594: 93 95 85 00  	slli	a1, a1, 0x8
   11598: b3 e5 c5 00  	or	a1, a1, a2
   1159c: b3 05 b9 00  	add	a1, s2, a1
   115a0: 83 c5 05 00  	lbu	a1, 0x0(a1)
   115a4: 23 80 b4 00  	sb	a1, 0x0(s1)
   115a8: 83 45 34 00  	lbu	a1, 0x3(s0)
   115ac: 03 46 24 00  	lbu	a2, 0x2(s0)
   115b0: 93 95 85 00  	slli	a1, a1, 0x8
   115b4: b3 e5 c5 00  	or	a1, a1, a2
   115b8: b3 05 b9 00  	add	a1, s2, a1
   115bc: 83 c5 05 00  	lbu	a1, 0x0(a1)
   115c0: a3 80 b4 00  	sb	a1, 0x1(s1)
   115c4: 83 45 54 00  	lbu	a1, 0x5(s0)
   115c8: 03 46 44 00  	lbu	a2, 0x4(s0)
   115cc: 93 95 85 00  	slli	a1, a1, 0x8
   115d0: b3 e5 c5 00  	or	a1, a1, a2
   115d4: b3 05 b9 00  	add	a1, s2, a1
   115d8: 83 c5 05 00  	lbu	a1, 0x0(a1)
   115dc: 13 86 34 00  	addi	a2, s1, 0x3
   115e0: 13 04 64 00  	addi	s0, s0, 0x6
   115e4: 23 81 b4 00  	sb	a1, 0x2(s1)
   115e8: 93 04 06 00  	addi	s1, a2, 0x0
   115ec: e3 10 a4 fa  	bne	s0, a0, 0x1158c <get_word_rgb_row+0x78>
   115f0: 13 05 10 00  	addi	a0, zero, 0x1
   115f4: 6f 00 02 33  	jal	zero, 0x31924 <__riscv_restore_3>

00000000000115f8 <get_scaled_rgb_row>:
   115f8: ef 02 62 2f  	jal	t0, 0x318ee <__riscv_save_3>
   115fc: 13 84 05 00  	addi	s0, a1, 0x0
   11600: 03 b9 85 04  	ld	s2, 0x48(a1)
   11604: 03 b7 05 03  	ld	a4, 0x30(a1)
   11608: 03 b6 05 04  	ld	a2, 0x40(a1)
   1160c: 83 b6 85 01  	ld	a3, 0x18(a1)
   11610: 93 04 05 00  	addi	s1, a0, 0x0
   11614: 93 05 10 00  	addi	a1, zero, 0x1
   11618: 13 05 07 00  	addi	a0, a4, 0x0
   1161c: ef d0 c0 29  	jal	ra, 0x1e8b8 <fread>
   11620: 83 35 04 04  	ld	a1, 0x40(s0)
   11624: 63 0e b5 00  	beq	a0, a1, 0x11640 <get_scaled_rgb_row+0x48>
   11628: 03 b5 04 00  	ld	a0, 0x0(s1)
   1162c: 83 35 05 00  	ld	a1, 0x0(a0)
   11630: 13 06 a0 02  	addi	a2, zero, 0x2a
   11634: 23 24 c5 02  	sw	a2, 0x28(a0)
   11638: 13 85 04 00  	addi	a0, s1, 0x0
   1163c: e7 80 05 00  	jalr	ra, 0x0(a1)
   11640: 03 a6 84 02  	lw	a2, 0x28(s1)
   11644: 63 06 06 06  	beq	a2, zero, 0x116b0 <get_scaled_rgb_row+0xb8>
   11648: 83 35 04 02  	ld	a1, 0x20(s0)
   1164c: 03 35 04 03  	ld	a0, 0x30(s0)
   11650: 83 b5 05 00  	ld	a1, 0x0(a1)
   11654: 13 06 f6 ff  	addi	a2, a2, -0x1
   11658: 13 16 06 02  	slli	a2, a2, 0x20
   1165c: 93 56 06 02  	srli	a3, a2, 0x20
   11660: 13 56 f6 01  	srli	a2, a2, 0x1f
   11664: 33 06 d6 00  	add	a2, a2, a3
   11668: 33 06 a6 00  	add	a2, a2, a0
   1166c: 13 06 36 00  	addi	a2, a2, 0x3
   11670: 83 46 05 00  	lbu	a3, 0x0(a0)
   11674: b3 06 d9 00  	add	a3, s2, a3
   11678: 83 c6 06 00  	lbu	a3, 0x0(a3)
   1167c: 23 80 d5 00  	sb	a3, 0x0(a1)
   11680: 83 46 15 00  	lbu	a3, 0x1(a0)
   11684: b3 06 d9 00  	add	a3, s2, a3
   11688: 83 c6 06 00  	lbu	a3, 0x0(a3)
   1168c: a3 80 d5 00  	sb	a3, 0x1(a1)
   11690: 83 46 25 00  	lbu	a3, 0x2(a0)
   11694: b3 06 d9 00  	add	a3, s2, a3
   11698: 83 c6 06 00  	lbu	a3, 0x0(a3)
   1169c: 13 87 35 00  	addi	a4, a1, 0x3
   116a0: 13 05 35 00  	addi	a0, a0, 0x3
   116a4: 23 81 d5 00  	sb	a3, 0x2(a1)
   116a8: 93 05 07 00  	addi	a1, a4, 0x0
   116ac: e3 12 c5 fc  	bne	a0, a2, 0x11670 <get_scaled_rgb_row+0x78>
   116b0: 13 05 10 00  	addi	a0, zero, 0x1
   116b4: 6f 00 02 27  	jal	zero, 0x31924 <__riscv_restore_3>

00000000000116b8 <pbm_getc>:
   116b8: ef 02 62 23  	jal	t0, 0x318ee <__riscv_save_3>
   116bc: 13 04 05 00  	addi	s0, a0, 0x0
   116c0: ef d0 20 3e  	jal	ra, 0x1eaa2 <getc>
   116c4: 93 05 30 02  	addi	a1, zero, 0x23
   116c8: 63 1e b5 00  	bne	a0, a1, 0x116e4 <pbm_getc+0x2c>
   116cc: 93 04 a0 00  	addi	s1, zero, 0xa
   116d0: 13 09 f0 ff  	addi	s2, zero, -0x1
   116d4: 13 05 04 00  	addi	a0, s0, 0x0
   116d8: ef d0 a0 3c  	jal	ra, 0x1eaa2 <getc>
   116dc: 63 04 95 00  	beq	a0, s1, 0x116e4 <pbm_getc+0x2c>
   116e0: e3 1a 25 ff  	bne	a0, s2, 0x116d4 <pbm_getc+0x1c>
   116e4: 6f 00 02 24  	jal	zero, 0x31924 <__riscv_restore_3>

00000000000116e8 <jinit_read_gif>:
   116e8: ef 02 82 21  	jal	t0, 0x31900 <__riscv_save_1>
   116ec: 13 04 05 00  	addi	s0, a0, 0x0
   116f0: 03 35 85 00  	ld	a0, 0x8(a0)
   116f4: 83 36 05 00  	ld	a3, 0x0(a0)
   116f8: 93 05 10 00  	addi	a1, zero, 0x1
   116fc: 13 06 80 1b  	addi	a2, zero, 0x1b8
   11700: 13 05 04 00  	addi	a0, s0, 0x0
   11704: e7 80 06 00  	jalr	ra, 0x0(a3)
   11708: 23 38 85 02  	sd	s0, 0x30(a0)
   1170c: b7 15 01 00  	lui	a1, 0x11
   11710: 93 85 85 72  	addi	a1, a1, 0x728
   11714: 23 30 b5 00  	sd	a1, 0x0(a0)
   11718: b7 25 01 00  	lui	a1, 0x12
   1171c: 93 85 05 c5  	addi	a1, a1, -0x3b0
   11720: 23 38 b5 00  	sd	a1, 0x10(a0)
   11724: 6f 00 62 20  	jal	zero, 0x3192a <__riscv_restore_1>

0000000000011728 <start_input_gif>:
   11728: 13 01 01 e8  	addi	sp, sp, -0x180
   1172c: 23 3c 11 16  	sd	ra, 0x178(sp)
   11730: 23 38 81 16  	sd	s0, 0x170(sp)
   11734: 23 34 91 16  	sd	s1, 0x168(sp)
   11738: 23 30 21 17  	sd	s2, 0x160(sp)
   1173c: 23 3c 31 15  	sd	s3, 0x158(sp)
   11740: 23 38 41 15  	sd	s4, 0x150(sp)
   11744: 23 34 51 15  	sd	s5, 0x148(sp)
   11748: 23 30 61 15  	sd	s6, 0x140(sp)
   1174c: 23 3c 71 13  	sd	s7, 0x138(sp)
   11750: 23 38 81 13  	sd	s8, 0x130(sp)
   11754: 23 34 91 13  	sd	s9, 0x128(sp)
   11758: 23 30 a1 13  	sd	s10, 0x120(sp)
   1175c: 23 3c b1 11  	sd	s11, 0x118(sp)
   11760: 13 04 05 00  	addi	s0, a0, 0x0
   11764: 03 35 85 00  	ld	a0, 0x8(a0)
   11768: 03 37 05 01  	ld	a4, 0x10(a0)
   1176c: 93 84 05 00  	addi	s1, a1, 0x0
   11770: 93 05 10 00  	addi	a1, zero, 0x1
   11774: 13 06 00 10  	addi	a2, zero, 0x100
   11778: 93 06 30 00  	addi	a3, zero, 0x3
   1177c: 13 05 04 00  	addi	a0, s0, 0x0
   11780: e7 00 07 00  	jalr	ra, 0x0(a4)
   11784: 83 b6 84 01  	ld	a3, 0x18(s1)
   11788: 23 bc a4 02  	sd	a0, 0x38(s1)
   1178c: 13 05 e1 00  	addi	a0, sp, 0xe
   11790: 93 05 10 00  	addi	a1, zero, 0x1
   11794: 13 06 60 00  	addi	a2, zero, 0x6
   11798: 13 09 60 00  	addi	s2, zero, 0x6
   1179c: ef d0 c0 11  	jal	ra, 0x1e8b8 <fread>
   117a0: 63 0e 25 01  	beq	a0, s2, 0x117bc <start_input_gif+0x94>
   117a4: 03 35 04 00  	ld	a0, 0x0(s0)
   117a8: 83 35 05 00  	ld	a1, 0x0(a0)
   117ac: 13 06 80 3f  	addi	a2, zero, 0x3f8
   117b0: 23 24 c5 02  	sw	a2, 0x28(a0)
   117b4: 13 05 04 00  	addi	a0, s0, 0x0
   117b8: e7 80 05 00  	jalr	ra, 0x0(a1)
   117bc: 03 45 e1 00  	lbu	a0, 0xe(sp)
   117c0: 93 05 70 04  	addi	a1, zero, 0x47
   117c4: 63 1e b5 00  	bne	a0, a1, 0x117e0 <start_input_gif+0xb8>
   117c8: 03 45 f1 00  	lbu	a0, 0xf(sp)
   117cc: 93 05 90 04  	addi	a1, zero, 0x49
   117d0: 63 18 b5 00  	bne	a0, a1, 0x117e0 <start_input_gif+0xb8>
   117d4: 03 45 01 01  	lbu	a0, 0x10(sp)
   117d8: 93 05 60 04  	addi	a1, zero, 0x46
   117dc: 63 0e b5 00  	beq	a0, a1, 0x117f8 <start_input_gif+0xd0>
   117e0: 03 35 04 00  	ld	a0, 0x0(s0)
   117e4: 83 35 05 00  	ld	a1, 0x0(a0)
   117e8: 13 06 80 3f  	addi	a2, zero, 0x3f8
   117ec: 23 24 c5 02  	sw	a2, 0x28(a0)
   117f0: 13 05 04 00  	addi	a0, s0, 0x0
   117f4: e7 80 05 00  	jalr	ra, 0x0(a1)
   117f8: 83 45 11 01  	lbu	a1, 0x11(sp)
   117fc: 03 46 21 01  	lbu	a2, 0x12(sp)
   11800: 03 45 31 01  	lbu	a0, 0x13(sp)
   11804: 93 06 80 03  	addi	a3, zero, 0x38
   11808: 63 9a d5 00  	bne	a1, a3, 0x1181c <start_input_gif+0xf4>
   1180c: 13 07 70 03  	addi	a4, zero, 0x37
   11810: 63 16 e6 00  	bne	a2, a4, 0x1181c <start_input_gif+0xf4>
   11814: 13 07 10 06  	addi	a4, zero, 0x61
   11818: 63 00 e5 04  	beq	a0, a4, 0x11858 <start_input_gif+0x130>
   1181c: 63 9a d5 00  	bne	a1, a3, 0x11830 <start_input_gif+0x108>
   11820: 93 06 90 03  	addi	a3, zero, 0x39
   11824: 63 16 d6 00  	bne	a2, a3, 0x11830 <start_input_gif+0x108>
   11828: 93 06 10 06  	addi	a3, zero, 0x61
   1182c: 63 06 d5 02  	beq	a0, a3, 0x11858 <start_input_gif+0x130>
   11830: 83 36 04 00  	ld	a3, 0x0(s0)
   11834: 23 a6 b6 02  	sw	a1, 0x2c(a3)
   11838: 23 a8 c6 02  	sw	a2, 0x30(a3)
   1183c: 03 b6 86 00  	ld	a2, 0x8(a3)
   11840: 23 aa a6 02  	sw	a0, 0x34(a3)
   11844: 13 05 a0 3f  	addi	a0, zero, 0x3fa
   11848: 23 a4 a6 02  	sw	a0, 0x28(a3)
   1184c: 93 05 10 00  	addi	a1, zero, 0x1
   11850: 13 05 04 00  	addi	a0, s0, 0x0
   11854: e7 00 06 00  	jalr	ra, 0x0(a2)
   11858: 83 b6 84 01  	ld	a3, 0x18(s1)
   1185c: 13 05 e1 00  	addi	a0, sp, 0xe
   11860: 93 05 10 00  	addi	a1, zero, 0x1
   11864: 13 06 70 00  	addi	a2, zero, 0x7
   11868: 13 09 70 00  	addi	s2, zero, 0x7
   1186c: ef d0 c0 04  	jal	ra, 0x1e8b8 <fread>
   11870: 63 0e 25 01  	beq	a0, s2, 0x1188c <start_input_gif+0x164>
   11874: 03 35 04 00  	ld	a0, 0x0(s0)
   11878: 83 35 05 00  	ld	a1, 0x0(a0)
   1187c: 13 06 a0 02  	addi	a2, zero, 0x2a
   11880: 23 24 c5 02  	sw	a2, 0x28(a0)
   11884: 13 05 04 00  	addi	a0, s0, 0x0
   11888: e7 80 05 00  	jalr	ra, 0x0(a1)
   1188c: 83 45 21 01  	lbu	a1, 0x12(sp)
   11890: 03 45 41 01  	lbu	a0, 0x14(sp)
   11894: 13 96 85 03  	slli	a2, a1, 0x38
   11898: 93 59 86 43  	srai	s3, a2, 0x38
   1189c: 13 f9 75 00  	andi	s2, a1, 0x7
   118a0: 13 0a 20 00  	addi	s4, zero, 0x2
   118a4: 63 04 05 02  	beq	a0, zero, 0x118cc <start_input_gif+0x1a4>
   118a8: 93 05 10 03  	addi	a1, zero, 0x31
   118ac: 63 00 b5 02  	beq	a0, a1, 0x118cc <start_input_gif+0x1a4>
   118b0: 03 35 04 00  	ld	a0, 0x0(s0)
   118b4: 03 36 85 00  	ld	a2, 0x8(a0)
   118b8: 93 05 c0 3f  	addi	a1, zero, 0x3fc
   118bc: 23 24 b5 02  	sw	a1, 0x28(a0)
   118c0: 93 05 10 00  	addi	a1, zero, 0x1
   118c4: 13 05 04 00  	addi	a0, s0, 0x0
   118c8: e7 00 06 00  	jalr	ra, 0x0(a2)
   118cc: 3b 19 2a 01  	sllw	s2, s4, s2
   118d0: 63 da 09 00  	bge	s3, zero, 0x118e4 <start_input_gif+0x1bc>
   118d4: 03 b6 84 03  	ld	a2, 0x38(s1)
   118d8: 13 85 04 00  	addi	a0, s1, 0x0
   118dc: 93 05 09 00  	addi	a1, s2, 0x0
   118e0: ef 00 40 37  	jal	ra, 0x11c54 <ReadColorMap>
   118e4: 13 0a b0 02  	addi	s4, zero, 0x2b
   118e8: 93 0a f0 ff  	addi	s5, zero, -0x1
   118ec: 13 0b 10 02  	addi	s6, zero, 0x21
   118f0: 93 0b a0 02  	addi	s7, zero, 0x2a
   118f4: 13 0c b0 3f  	addi	s8, zero, 0x3fb
   118f8: 93 0c e0 3f  	addi	s9, zero, 0x3fe
   118fc: 13 0d b0 03  	addi	s10, zero, 0x3b
   11900: 93 0d c0 02  	addi	s11, zero, 0x2c
   11904: 03 b5 84 01  	ld	a0, 0x18(s1)
   11908: ef d0 a0 19  	jal	ra, 0x1eaa2 <getc>
   1190c: 93 09 05 00  	addi	s3, a0, 0x0
   11910: 63 44 aa 06  	blt	s4, a0, 0x11978 <start_input_gif+0x250>
   11914: 63 8c 59 07  	beq	s3, s5, 0x1198c <start_input_gif+0x264>
   11918: 63 96 69 09  	bne	s3, s6, 0x119a4 <start_input_gif+0x27c>
   1191c: 03 b5 84 01  	ld	a0, 0x18(s1)
   11920: ef d0 20 18  	jal	ra, 0x1eaa2 <getc>
   11924: 93 09 05 00  	addi	s3, a0, 0x0
   11928: 63 1c 55 01  	bne	a0, s5, 0x11940 <start_input_gif+0x218>
   1192c: 03 b5 04 03  	ld	a0, 0x30(s1)
   11930: 83 35 05 00  	ld	a1, 0x0(a0)
   11934: 03 b6 05 00  	ld	a2, 0x0(a1)
   11938: 23 a4 75 03  	sw	s7, 0x28(a1)
   1193c: e7 00 06 00  	jalr	ra, 0x0(a2)
   11940: 03 b5 04 03  	ld	a0, 0x30(s1)
   11944: 83 35 05 00  	ld	a1, 0x0(a0)
   11948: 23 a6 35 03  	sw	s3, 0x2c(a1)
   1194c: 03 b5 04 03  	ld	a0, 0x30(s1)
   11950: 03 36 05 00  	ld	a2, 0x0(a0)
   11954: 03 36 86 00  	ld	a2, 0x8(a2)
   11958: 23 a4 85 03  	sw	s8, 0x28(a1)
   1195c: 93 05 10 00  	addi	a1, zero, 0x1
   11960: e7 00 06 00  	jalr	ra, 0x0(a2)
   11964: 93 05 81 01  	addi	a1, sp, 0x18
   11968: 13 85 04 00  	addi	a0, s1, 0x0
   1196c: ef 00 00 53  	jal	ra, 0x11e9c <GetDataBlock>
   11970: e3 4a a0 fe  	blt	zero, a0, 0x11964 <start_input_gif+0x23c>
   11974: 6f f0 1f f9  	jal	zero, 0x11904 <start_input_gif+0x1dc>
   11978: 93 05 70 3f  	addi	a1, zero, 0x3f7
   1197c: 13 05 04 00  	addi	a0, s0, 0x0
   11980: 63 8a a9 01  	beq	s3, s10, 0x11994 <start_input_gif+0x26c>
   11984: 63 90 b9 03  	bne	s3, s11, 0x119a4 <start_input_gif+0x27c>
   11988: 6f 00 00 04  	jal	zero, 0x119c8 <start_input_gif+0x2a0>
   1198c: 03 b5 04 03  	ld	a0, 0x30(s1)
   11990: 93 05 a0 02  	addi	a1, zero, 0x2a
   11994: 03 36 05 00  	ld	a2, 0x0(a0)
   11998: 83 36 06 00  	ld	a3, 0x0(a2)
   1199c: 23 24 b6 02  	sw	a1, 0x28(a2)
   119a0: e7 80 06 00  	jalr	ra, 0x0(a3)
   119a4: 03 35 04 00  	ld	a0, 0x0(s0)
   119a8: 23 26 35 03  	sw	s3, 0x2c(a0)
   119ac: 83 35 04 00  	ld	a1, 0x0(s0)
   119b0: 03 b6 85 00  	ld	a2, 0x8(a1)
   119b4: 23 24 95 03  	sw	s9, 0x28(a0)
   119b8: 93 05 f0 ff  	addi	a1, zero, -0x1
   119bc: 13 05 04 00  	addi	a0, s0, 0x0
   119c0: e7 00 06 00  	jalr	ra, 0x0(a2)
   119c4: 6f f0 1f f4  	jal	zero, 0x11904 <start_input_gif+0x1dc>
   119c8: 83 b6 84 01  	ld	a3, 0x18(s1)
   119cc: 13 05 e1 00  	addi	a0, sp, 0xe
   119d0: 93 05 10 00  	addi	a1, zero, 0x1
   119d4: 13 06 90 00  	addi	a2, zero, 0x9
   119d8: 93 09 90 00  	addi	s3, zero, 0x9
   119dc: ef c0 d0 6d  	jal	ra, 0x1e8b8 <fread>
   119e0: 63 0e 35 01  	beq	a0, s3, 0x119fc <start_input_gif+0x2d4>
   119e4: 03 35 04 00  	ld	a0, 0x0(s0)
   119e8: 83 35 05 00  	ld	a1, 0x0(a0)
   119ec: 13 06 a0 02  	addi	a2, zero, 0x2a
   119f0: 23 24 c5 02  	sw	a2, 0x28(a0)
   119f4: 13 05 04 00  	addi	a0, s0, 0x0
   119f8: e7 80 05 00  	jalr	ra, 0x0(a1)
   119fc: 03 4b 31 01  	lbu	s6, 0x13(sp)
   11a00: 83 45 61 01  	lbu	a1, 0x16(sp)
   11a04: 03 4a 21 01  	lbu	s4, 0x12(sp)
   11a08: 83 4b 51 01  	lbu	s7, 0x15(sp)
   11a0c: 83 4a 41 01  	lbu	s5, 0x14(sp)
   11a10: 13 95 85 03  	slli	a0, a1, 0x38
   11a14: 93 f5 05 04  	andi	a1, a1, 0x40
   11a18: 23 ac b4 18  	sw	a1, 0x198(s1)
   11a1c: 63 52 05 02  	bge	a0, zero, 0x11a40 <start_input_gif+0x318>
   11a20: 13 55 85 43  	srai	a0, a0, 0x38
   11a24: 03 b6 84 03  	ld	a2, 0x38(s1)
   11a28: 13 75 75 00  	andi	a0, a0, 0x7
   11a2c: 93 05 20 00  	addi	a1, zero, 0x2
   11a30: 3b 99 a5 00  	sllw	s2, a1, a0
   11a34: 13 85 04 00  	addi	a0, s1, 0x0
   11a38: 93 05 09 00  	addi	a1, s2, 0x0
   11a3c: ef 00 80 21  	jal	ra, 0x11c54 <ReadColorMap>
   11a40: 03 b5 84 01  	ld	a0, 0x18(s1)
   11a44: 13 1b 8b 00  	slli	s6, s6, 0x8
   11a48: 93 9b 8b 00  	slli	s7, s7, 0x8
   11a4c: ef d0 60 05  	jal	ra, 0x1eaa2 <getc>
   11a50: 13 0c f0 ff  	addi	s8, zero, -0x1
   11a54: 93 09 05 00  	addi	s3, a0, 0x0
   11a58: 63 0c 85 01  	beq	a0, s8, 0x11a70 <start_input_gif+0x348>
   11a5c: 1b 85 49 ff  	addiw	a0, s3, -0xc
   11a60: 93 05 50 ff  	addi	a1, zero, -0xb
   11a64: 23 aa 34 15  	sw	s3, 0x154(s1)
   11a68: 63 f2 a5 02  	bgeu	a1, a0, 0x11a8c <start_input_gif+0x364>
   11a6c: 6f 00 00 04  	jal	zero, 0x11aac <start_input_gif+0x384>
   11a70: 03 b5 04 03  	ld	a0, 0x30(s1)
   11a74: 83 35 05 00  	ld	a1, 0x0(a0)
   11a78: 03 b6 05 00  	ld	a2, 0x0(a1)
   11a7c: 93 06 a0 02  	addi	a3, zero, 0x2a
   11a80: 23 a4 d5 02  	sw	a3, 0x28(a1)
   11a84: e7 00 06 00  	jalr	ra, 0x0(a2)
   11a88: 23 aa 84 15  	sw	s8, 0x154(s1)
   11a8c: 03 35 04 00  	ld	a0, 0x0(s0)
   11a90: 23 26 35 03  	sw	s3, 0x2c(a0)
   11a94: 83 35 04 00  	ld	a1, 0x0(s0)
   11a98: 83 b5 05 00  	ld	a1, 0x0(a1)
   11a9c: 13 06 50 3f  	addi	a2, zero, 0x3f5
   11aa0: 23 24 c5 02  	sw	a2, 0x28(a0)
   11aa4: 13 05 04 00  	addi	a0, s0, 0x0
   11aa8: e7 80 05 00  	jalr	ra, 0x0(a1)
   11aac: 03 35 84 00  	ld	a0, 0x8(s0)
   11ab0: 83 36 85 00  	ld	a3, 0x8(a0)
   11ab4: b3 69 4b 01  	or	s3, s6, s4
   11ab8: 33 ea 5b 01  	or	s4, s7, s5
   11abc: 93 05 10 00  	addi	a1, zero, 0x1
   11ac0: 37 26 00 00  	lui	a2, 0x2
   11ac4: 93 0a 10 00  	addi	s5, zero, 0x1
   11ac8: 13 05 04 00  	addi	a0, s0, 0x0
   11acc: e7 80 06 00  	jalr	ra, 0x0(a3)
   11ad0: 83 35 84 00  	ld	a1, 0x8(s0)
   11ad4: 83 b6 85 00  	ld	a3, 0x8(a1)
   11ad8: 23 bc a4 16  	sd	a0, 0x178(s1)
   11adc: 93 05 10 00  	addi	a1, zero, 0x1
   11ae0: 37 16 00 00  	lui	a2, 0x1
   11ae4: 13 05 04 00  	addi	a0, s0, 0x0
   11ae8: e7 80 06 00  	jalr	ra, 0x0(a3)
   11aec: 83 35 84 00  	ld	a1, 0x8(s0)
   11af0: 83 b6 85 00  	ld	a3, 0x8(a1)
   11af4: 23 b0 a4 18  	sd	a0, 0x180(s1)
   11af8: 93 05 10 00  	addi	a1, zero, 0x1
   11afc: 37 16 00 00  	lui	a2, 0x1
   11b00: 13 05 04 00  	addi	a0, s0, 0x0
   11b04: e7 80 06 00  	jalr	ra, 0x0(a3)
   11b08: 23 b4 a4 18  	sd	a0, 0x188(s1)
   11b0c: 93 05 20 00  	addi	a1, zero, 0x2
   11b10: 03 e6 44 15  	lwu	a2, 0x154(s1)
   11b14: 23 a2 b4 14  	sw	a1, 0x144(s1)
   11b18: 23 b4 04 14  	sd	zero, 0x148(s1)
   11b1c: 23 a8 04 14  	sw	zero, 0x150(s1)
   11b20: bb 96 ca 00  	sllw	a3, s5, a2
   11b24: 23 ac d4 14  	sw	a3, 0x158(s1)
   11b28: 13 87 16 00  	addi	a4, a3, 0x1
   11b2c: 23 ae e4 14  	sw	a4, 0x15c(s1)
   11b30: 23 a6 54 17  	sw	s5, 0x16c(s1)
   11b34: 13 07 16 00  	addi	a4, a2, 0x1
   11b38: 23 a0 e4 16  	sw	a4, 0x160(s1)
   11b3c: bb 95 c5 00  	sllw	a1, a1, a2
   11b40: 03 a6 84 19  	lw	a2, 0x198(s1)
   11b44: 23 a2 b4 16  	sw	a1, 0x164(s1)
   11b48: 93 86 26 00  	addi	a3, a3, 0x2
   11b4c: 23 a4 d4 16  	sw	a3, 0x168(s1)
   11b50: 23 b8 a4 18  	sd	a0, 0x190(s1)
   11b54: 63 06 06 04  	beq	a2, zero, 0x11ba0 <start_input_gif+0x478>
   11b58: 03 35 84 00  	ld	a0, 0x8(s0)
   11b5c: 03 38 05 02  	ld	a6, 0x20(a0)
   11b60: 93 05 10 00  	addi	a1, zero, 0x1
   11b64: 93 07 10 00  	addi	a5, zero, 0x1
   11b68: 13 05 04 00  	addi	a0, s0, 0x0
   11b6c: 13 06 00 00  	addi	a2, zero, 0x0
   11b70: 93 86 09 00  	addi	a3, s3, 0x0
   11b74: 13 07 0a 00  	addi	a4, s4, 0x0
   11b78: e7 00 08 00  	jalr	ra, 0x0(a6)
   11b7c: 83 35 04 01  	ld	a1, 0x10(s0)
   11b80: 23 b0 a4 1a  	sd	a0, 0x1a0(s1)
   11b84: 37 25 01 00  	lui	a0, 0x12
   11b88: 13 05 85 d1  	addi	a0, a0, -0x2e8
   11b8c: 63 8e 05 00  	beq	a1, zero, 0x11ba8 <start_input_gif+0x480>
   11b90: 03 a6 45 02  	lw	a2, 0x24(a1)
   11b94: 13 06 16 00  	addi	a2, a2, 0x1
   11b98: 23 a2 c5 02  	sw	a2, 0x24(a1)
   11b9c: 6f 00 c0 00  	jal	zero, 0x11ba8 <start_input_gif+0x480>
   11ba0: 37 25 01 00  	lui	a0, 0x12
   11ba4: 13 05 85 e1  	addi	a0, a0, -0x1e8
   11ba8: 83 35 84 00  	ld	a1, 0x8(s0)
   11bac: 03 b7 05 01  	ld	a4, 0x10(a1)
   11bb0: 23 b4 a4 00  	sd	a0, 0x8(s1)
   11bb4: 13 96 19 00  	slli	a2, s3, 0x1
   11bb8: 33 06 36 01  	add	a2, a2, s3
   11bbc: 93 05 10 00  	addi	a1, zero, 0x1
   11bc0: 93 06 10 00  	addi	a3, zero, 0x1
   11bc4: 13 05 04 00  	addi	a0, s0, 0x0
   11bc8: e7 00 07 00  	jalr	ra, 0x0(a4)
   11bcc: 23 b0 a4 02  	sd	a0, 0x20(s1)
   11bd0: 23 a4 54 03  	sw	s5, 0x28(s1)
   11bd4: 93 9a 1a 02  	slli	s5, s5, 0x21
   11bd8: 93 8a 3a 00  	addi	s5, s5, 0x3
   11bdc: 23 38 54 03  	sd	s5, 0x30(s0)
   11be0: 13 05 80 00  	addi	a0, zero, 0x8
   11be4: 03 36 04 00  	ld	a2, 0x0(s0)
   11be8: 23 20 a4 04  	sw	a0, 0x40(s0)
   11bec: 23 24 34 03  	sw	s3, 0x28(s0)
   11bf0: 23 26 44 03  	sw	s4, 0x2c(s0)
   11bf4: 23 26 36 03  	sw	s3, 0x2c(a2)
   11bf8: 23 28 46 03  	sw	s4, 0x30(a2)
   11bfc: 03 33 86 00  	ld	t1, 0x8(a2)
   11c00: 23 2a 26 03  	sw	s2, 0x34(a2)
   11c04: 13 05 90 3f  	addi	a0, zero, 0x3f9
   11c08: 93 05 10 00  	addi	a1, zero, 0x1
   11c0c: 23 24 a6 02  	sw	a0, 0x28(a2)
   11c10: 13 05 04 00  	addi	a0, s0, 0x0
   11c14: 83 30 81 17  	ld	ra, 0x178(sp)
   11c18: 03 34 01 17  	ld	s0, 0x170(sp)
   11c1c: 83 34 81 16  	ld	s1, 0x168(sp)
   11c20: 03 39 01 16  	ld	s2, 0x160(sp)
   11c24: 83 39 81 15  	ld	s3, 0x158(sp)
   11c28: 03 3a 01 15  	ld	s4, 0x150(sp)
   11c2c: 83 3a 81 14  	ld	s5, 0x148(sp)
   11c30: 03 3b 01 14  	ld	s6, 0x140(sp)
   11c34: 83 3b 81 13  	ld	s7, 0x138(sp)
   11c38: 03 3c 01 13  	ld	s8, 0x130(sp)
   11c3c: 83 3c 81 12  	ld	s9, 0x128(sp)
   11c40: 03 3d 01 12  	ld	s10, 0x120(sp)
   11c44: 83 3d 81 11  	ld	s11, 0x118(sp)
   11c48: 13 01 01 18  	addi	sp, sp, 0x180
   11c4c: 67 00 03 00  	jalr	zero, 0x0(t1)

0000000000011c50 <finish_input_gif>:
   11c50: 67 80 00 00  	jalr	zero, 0x0(ra)

0000000000011c54 <ReadColorMap>:
   11c54: 63 50 b0 0c  	bge	zero, a1, 0x11d14 <ReadColorMap+0xc0>
   11c58: ef f2 31 48  	jal	t0, 0x318da <__riscv_save_7>
   11c5c: 13 04 06 00  	addi	s0, a2, 0x0
   11c60: 93 84 05 00  	addi	s1, a1, 0x0
   11c64: 13 09 05 00  	addi	s2, a0, 0x0
   11c68: 13 0a 00 00  	addi	s4, zero, 0x0
   11c6c: 93 0a f0 ff  	addi	s5, zero, -0x1
   11c70: 13 0b a0 02  	addi	s6, zero, 0x2a
   11c74: 03 35 89 01  	ld	a0, 0x18(s2)
   11c78: ef c0 b0 62  	jal	ra, 0x1eaa2 <getc>
   11c7c: 93 09 05 00  	addi	s3, a0, 0x0
   11c80: 63 1c 55 01  	bne	a0, s5, 0x11c98 <ReadColorMap+0x44>
   11c84: 03 35 09 03  	ld	a0, 0x30(s2)
   11c88: 83 35 05 00  	ld	a1, 0x0(a0)
   11c8c: 03 b6 05 00  	ld	a2, 0x0(a1)
   11c90: 23 a4 65 03  	sw	s6, 0x28(a1)
   11c94: e7 00 06 00  	jalr	ra, 0x0(a2)
   11c98: 03 35 04 00  	ld	a0, 0x0(s0)
   11c9c: 33 05 45 01  	add	a0, a0, s4
   11ca0: 23 00 35 01  	sb	s3, 0x0(a0)
   11ca4: 03 35 89 01  	ld	a0, 0x18(s2)
   11ca8: ef c0 b0 5f  	jal	ra, 0x1eaa2 <getc>
   11cac: 93 09 05 00  	addi	s3, a0, 0x0
   11cb0: 63 1c 55 01  	bne	a0, s5, 0x11cc8 <ReadColorMap+0x74>
   11cb4: 03 35 09 03  	ld	a0, 0x30(s2)
   11cb8: 83 35 05 00  	ld	a1, 0x0(a0)
   11cbc: 03 b6 05 00  	ld	a2, 0x0(a1)
   11cc0: 23 a4 65 03  	sw	s6, 0x28(a1)
   11cc4: e7 00 06 00  	jalr	ra, 0x0(a2)
   11cc8: 03 35 84 00  	ld	a0, 0x8(s0)
   11ccc: 33 05 45 01  	add	a0, a0, s4
   11cd0: 23 00 35 01  	sb	s3, 0x0(a0)
   11cd4: 03 35 89 01  	ld	a0, 0x18(s2)
   11cd8: ef c0 b0 5c  	jal	ra, 0x1eaa2 <getc>
   11cdc: 93 09 05 00  	addi	s3, a0, 0x0
   11ce0: 63 1c 55 01  	bne	a0, s5, 0x11cf8 <ReadColorMap+0xa4>
   11ce4: 03 35 09 03  	ld	a0, 0x30(s2)
   11ce8: 83 35 05 00  	ld	a1, 0x0(a0)
   11cec: 03 b6 05 00  	ld	a2, 0x0(a1)
   11cf0: 23 a4 65 03  	sw	s6, 0x28(a1)
   11cf4: e7 00 06 00  	jalr	ra, 0x0(a2)
   11cf8: 03 35 04 01  	ld	a0, 0x10(s0)
   11cfc: 33 05 45 01  	add	a0, a0, s4
   11d00: 13 0a 1a 00  	addi	s4, s4, 0x1
   11d04: 23 00 35 01  	sb	s3, 0x0(a0)
   11d08: e3 96 44 f7  	bne	s1, s4, 0x11c74 <ReadColorMap+0x20>
   11d0c: 6f f0 d1 40  	jal	zero, 0x31918 <__riscv_restore_7>
   11d10: 6f 00 40 00  	jal	zero, 0x11d14 <ReadColorMap+0xc0>
   11d14: 67 80 00 00  	jalr	zero, 0x0(ra)

0000000000011d18 <load_interlaced_image>:
   11d18: ef f2 31 3c  	jal	t0, 0x318da <__riscv_save_7>
   11d1c: 13 04 05 00  	addi	s0, a0, 0x0
   11d20: 03 25 c5 02  	lw	a0, 0x2c(a0)
   11d24: 03 39 04 01  	ld	s2, 0x10(s0)
   11d28: 93 84 05 00  	addi	s1, a1, 0x0
   11d2c: 63 06 05 08  	beq	a0, zero, 0x11db8 <load_interlaced_image+0xa0>
   11d30: 93 09 00 00  	addi	s3, zero, 0x0
   11d34: 63 00 09 02  	beq	s2, zero, 0x11d54 <load_interlaced_image+0x3c>
   11d38: 13 15 05 02  	slli	a0, a0, 0x20
   11d3c: 83 35 09 00  	ld	a1, 0x0(s2)
   11d40: 13 55 05 02  	srli	a0, a0, 0x20
   11d44: 23 38 a9 00  	sd	a0, 0x10(s2)
   11d48: 23 34 39 01  	sd	s3, 0x8(s2)
   11d4c: 13 05 04 00  	addi	a0, s0, 0x0
   11d50: e7 80 05 00  	jalr	ra, 0x0(a1)
   11d54: 03 35 84 00  	ld	a0, 0x8(s0)
   11d58: 83 37 85 03  	ld	a5, 0x38(a0)
   11d5c: 83 b5 04 1a  	ld	a1, 0x1a0(s1)
   11d60: 1b 86 09 00  	addiw	a2, s3, 0x0
   11d64: 93 06 10 00  	addi	a3, zero, 0x1
   11d68: 13 07 10 00  	addi	a4, zero, 0x1
   11d6c: 13 05 04 00  	addi	a0, s0, 0x0
   11d70: e7 80 07 00  	jalr	ra, 0x0(a5)
   11d74: 83 25 84 02  	lw	a1, 0x28(s0)
   11d78: 63 8a 05 02  	beq	a1, zero, 0x11dac <load_interlaced_image+0x94>
   11d7c: 03 3a 05 00  	ld	s4, 0x0(a0)
   11d80: 93 85 f5 ff  	addi	a1, a1, -0x1
   11d84: 93 95 05 02  	slli	a1, a1, 0x20
   11d88: 93 d5 05 02  	srli	a1, a1, 0x20
   11d8c: b3 05 ba 00  	add	a1, s4, a1
   11d90: 93 8a 15 00  	addi	s5, a1, 0x1
   11d94: 13 85 04 00  	addi	a0, s1, 0x0
   11d98: ef 00 00 16  	jal	ra, 0x11ef8 <LZWReadByte>
   11d9c: 93 05 1a 00  	addi	a1, s4, 0x1
   11da0: 23 00 aa 00  	sb	a0, 0x0(s4)
   11da4: 13 8a 05 00  	addi	s4, a1, 0x0
   11da8: e3 96 55 ff  	bne	a1, s5, 0x11d94 <load_interlaced_image+0x7c>
   11dac: 03 65 c4 02  	lwu	a0, 0x2c(s0)
   11db0: 93 89 19 00  	addi	s3, s3, 0x1
   11db4: e3 e0 a9 f8  	bltu	s3, a0, 0x11d34 <load_interlaced_image+0x1c>
   11db8: 63 08 09 00  	beq	s2, zero, 0x11dc8 <load_interlaced_image+0xb0>
   11dbc: 83 25 09 02  	lw	a1, 0x20(s2)
   11dc0: 93 85 15 00  	addi	a1, a1, 0x1
   11dc4: 23 20 b9 02  	sw	a1, 0x20(s2)
   11dc8: b7 25 01 00  	lui	a1, 0x12
   11dcc: 93 85 c5 0e  	addi	a1, a1, 0xec
   11dd0: 23 b4 b4 00  	sd	a1, 0x8(s1)
   11dd4: 23 a4 04 1a  	sw	zero, 0x1a8(s1)
   11dd8: 93 05 75 00  	addi	a1, a0, 0x7
   11ddc: 9b d5 35 00  	srliw	a1, a1, 0x3
   11de0: 23 a6 b4 1a  	sw	a1, 0x1ac(s1)
   11de4: 13 06 35 00  	addi	a2, a0, 0x3
   11de8: 1b 56 36 00  	srliw	a2, a2, 0x3
   11dec: b3 85 c5 00  	add	a1, a1, a2
   11df0: 23 a8 b4 1a  	sw	a1, 0x1b0(s1)
   11df4: 13 05 15 00  	addi	a0, a0, 0x1
   11df8: 1b 55 25 00  	srliw	a0, a0, 0x2
   11dfc: 33 85 a5 00  	add	a0, a1, a0
   11e00: 23 aa a4 1a  	sw	a0, 0x1b4(s1)
   11e04: 13 05 04 00  	addi	a0, s0, 0x0
   11e08: 93 85 04 00  	addi	a1, s1, 0x0
   11e0c: ef 00 00 2e  	jal	ra, 0x120ec <get_interlaced_row>
   11e10: 13 05 10 00  	addi	a0, zero, 0x1
   11e14: 6f f0 51 30  	jal	zero, 0x31918 <__riscv_restore_7>

0000000000011e18 <get_pixel_rows>:
   11e18: ef f2 d1 2c  	jal	t0, 0x318e4 <__riscv_save_5>
   11e1c: 03 25 85 02  	lw	a0, 0x28(a0)
   11e20: 63 0a 05 06  	beq	a0, zero, 0x11e94 <get_pixel_rows+0x7c>
   11e24: 13 84 05 00  	addi	s0, a1, 0x0
   11e28: 83 b5 05 02  	ld	a1, 0x20(a1)
   11e2c: 83 34 84 03  	ld	s1, 0x38(s0)
   11e30: 03 b9 05 00  	ld	s2, 0x0(a1)
   11e34: 13 05 f5 ff  	addi	a0, a0, -0x1
   11e38: 13 15 05 02  	slli	a0, a0, 0x20
   11e3c: 93 55 05 02  	srli	a1, a0, 0x20
   11e40: 13 55 f5 01  	srli	a0, a0, 0x1f
   11e44: 33 05 b5 00  	add	a0, a0, a1
   11e48: 33 05 25 01  	add	a0, a0, s2
   11e4c: 93 09 35 00  	addi	s3, a0, 0x3
   11e50: 13 05 04 00  	addi	a0, s0, 0x0
   11e54: ef 00 40 0a  	jal	ra, 0x11ef8 <LZWReadByte>
   11e58: 83 b5 04 00  	ld	a1, 0x0(s1)
   11e5c: b3 85 a5 00  	add	a1, a1, a0
   11e60: 83 c5 05 00  	lbu	a1, 0x0(a1)
   11e64: 23 00 b9 00  	sb	a1, 0x0(s2)
   11e68: 83 b5 84 00  	ld	a1, 0x8(s1)
   11e6c: b3 85 a5 00  	add	a1, a1, a0
   11e70: 83 c5 05 00  	lbu	a1, 0x0(a1)
   11e74: a3 00 b9 00  	sb	a1, 0x1(s2)
   11e78: 83 b5 04 01  	ld	a1, 0x10(s1)
   11e7c: 33 85 a5 00  	add	a0, a1, a0
   11e80: 03 45 05 00  	lbu	a0, 0x0(a0)
   11e84: 93 05 39 00  	addi	a1, s2, 0x3
   11e88: 23 01 a9 00  	sb	a0, 0x2(s2)
   11e8c: 13 89 05 00  	addi	s2, a1, 0x0
   11e90: e3 90 35 fd  	bne	a1, s3, 0x11e50 <get_pixel_rows+0x38>
   11e94: 13 05 10 00  	addi	a0, zero, 0x1
   11e98: 6f f0 71 28  	jal	zero, 0x3191e <__riscv_restore_5>

0000000000011e9c <GetDataBlock>:
   11e9c: ef f2 31 25  	jal	t0, 0x318ee <__riscv_save_3>
   11ea0: 93 04 05 00  	addi	s1, a0, 0x0
   11ea4: 03 35 85 01  	ld	a0, 0x18(a0)
   11ea8: 13 89 05 00  	addi	s2, a1, 0x0
   11eac: ef c0 70 3f  	jal	ra, 0x1eaa2 <getc>
   11eb0: 93 05 f0 ff  	addi	a1, zero, -0x1
   11eb4: 13 04 05 00  	addi	s0, a0, 0x0
   11eb8: 63 00 b5 02  	beq	a0, a1, 0x11ed8 <GetDataBlock+0x3c>
   11ebc: 63 5a 80 02  	bge	zero, s0, 0x11ef0 <GetDataBlock+0x54>
   11ec0: 83 b6 84 01  	ld	a3, 0x18(s1)
   11ec4: 93 05 10 00  	addi	a1, zero, 0x1
   11ec8: 13 05 09 00  	addi	a0, s2, 0x0
   11ecc: 13 06 04 00  	addi	a2, s0, 0x0
   11ed0: ef c0 90 1e  	jal	ra, 0x1e8b8 <fread>
   11ed4: 63 0e 85 00  	beq	a0, s0, 0x11ef0 <GetDataBlock+0x54>
   11ed8: 03 b5 04 03  	ld	a0, 0x30(s1)
   11edc: 83 35 05 00  	ld	a1, 0x0(a0)
   11ee0: 03 b6 05 00  	ld	a2, 0x0(a1)
   11ee4: 93 06 a0 02  	addi	a3, zero, 0x2a
   11ee8: 23 a4 d5 02  	sw	a3, 0x28(a1)
   11eec: e7 00 06 00  	jalr	ra, 0x0(a2)
   11ef0: 13 05 04 00  	addi	a0, s0, 0x0
   11ef4: 6f f0 11 23  	jal	zero, 0x31924 <__riscv_restore_3>

0000000000011ef8 <LZWReadByte>:
   11ef8: ef f2 91 20  	jal	t0, 0x31900 <__riscv_save_1>
   11efc: 13 01 01 f0  	addi	sp, sp, -0x100
   11f00: 13 04 05 00  	addi	s0, a0, 0x0
   11f04: 03 25 c5 16  	lw	a0, 0x16c(a0)
   11f08: 63 08 05 06  	beq	a0, zero, 0x11f78 <LZWReadByte+0x80>
   11f0c: 83 25 84 15  	lw	a1, 0x158(s0)
   11f10: 23 26 04 16  	sw	zero, 0x16c(s0)
   11f14: 03 25 44 15  	lw	a0, 0x154(s0)
   11f18: 13 05 15 00  	addi	a0, a0, 0x1
   11f1c: 23 20 a4 16  	sw	a0, 0x160(s0)
   11f20: 13 95 15 00  	slli	a0, a1, 0x1
   11f24: 03 36 84 18  	ld	a2, 0x188(s0)
   11f28: 23 22 a4 16  	sw	a0, 0x164(s0)
   11f2c: 93 85 25 00  	addi	a1, a1, 0x2
   11f30: 23 24 b4 16  	sw	a1, 0x168(s0)
   11f34: 23 38 c4 18  	sd	a2, 0x190(s0)
   11f38: 13 05 04 00  	addi	a0, s0, 0x0
   11f3c: ef 00 c0 2b  	jal	ra, 0x121f8 <GetCode>
   11f40: 83 25 84 15  	lw	a1, 0x158(s0)
   11f44: e3 0a b5 fe  	beq	a0, a1, 0x11f38 <LZWReadByte+0x40>
   11f48: 63 d2 a5 02  	bge	a1, a0, 0x11f6c <LZWReadByte+0x74>
   11f4c: 03 35 04 03  	ld	a0, 0x30(s0)
   11f50: 83 35 05 00  	ld	a1, 0x0(a0)
   11f54: 03 b6 85 00  	ld	a2, 0x8(a1)
   11f58: 93 06 d0 3f  	addi	a3, zero, 0x3fd
   11f5c: 23 a4 d5 02  	sw	a3, 0x28(a1)
   11f60: 93 05 f0 ff  	addi	a1, zero, -0x1
   11f64: e7 00 06 00  	jalr	ra, 0x0(a2)
   11f68: 13 05 00 00  	addi	a0, zero, 0x0
   11f6c: 23 28 a4 16  	sw	a0, 0x170(s0)
   11f70: 23 2a a4 16  	sw	a0, 0x174(s0)
   11f74: 6f 00 c0 01  	jal	zero, 0x11f90 <LZWReadByte+0x98>
   11f78: 03 35 04 19  	ld	a0, 0x190(s0)
   11f7c: 83 35 84 18  	ld	a1, 0x188(s0)
   11f80: 63 fc a5 00  	bgeu	a1, a0, 0x11f98 <LZWReadByte+0xa0>
   11f84: 93 05 f5 ff  	addi	a1, a0, -0x1
   11f88: 23 38 b4 18  	sd	a1, 0x190(s0)
   11f8c: 03 45 f5 ff  	lbu	a0, -0x1(a0)
   11f90: 13 01 01 10  	addi	sp, sp, 0x100
   11f94: 6f f0 71 19  	jal	zero, 0x3192a <__riscv_restore_1>
   11f98: 13 05 04 00  	addi	a0, s0, 0x0
   11f9c: ef 00 c0 25  	jal	ra, 0x121f8 <GetCode>
   11fa0: 83 25 84 15  	lw	a1, 0x158(s0)
   11fa4: e3 08 b5 f6  	beq	a0, a1, 0x11f14 <LZWReadByte+0x1c>
   11fa8: 83 25 c4 15  	lw	a1, 0x15c(s0)
   11fac: 63 14 b5 04  	bne	a0, a1, 0x11ff4 <LZWReadByte+0xfc>
   11fb0: 03 25 04 15  	lw	a0, 0x150(s0)
   11fb4: 63 1e 05 00  	bne	a0, zero, 0x11fd0 <LZWReadByte+0xd8>
   11fb8: 93 05 01 00  	addi	a1, sp, 0x0
   11fbc: 13 05 04 00  	addi	a0, s0, 0x0
   11fc0: ef f0 df ed  	jal	ra, 0x11e9c <GetDataBlock>
   11fc4: e3 4a a0 fe  	blt	zero, a0, 0x11fb8 <LZWReadByte+0xc0>
   11fc8: 13 05 10 00  	addi	a0, zero, 0x1
   11fcc: 23 28 a4 14  	sw	a0, 0x150(s0)
   11fd0: 03 35 04 03  	ld	a0, 0x30(s0)
   11fd4: 83 35 05 00  	ld	a1, 0x0(a0)
   11fd8: 03 b6 85 00  	ld	a2, 0x8(a1)
   11fdc: 93 06 f0 3f  	addi	a3, zero, 0x3ff
   11fe0: 23 a4 d5 02  	sw	a3, 0x28(a1)
   11fe4: 93 05 f0 ff  	addi	a1, zero, -0x1
   11fe8: e7 00 06 00  	jalr	ra, 0x0(a2)
   11fec: 13 05 00 00  	addi	a0, zero, 0x0
   11ff0: 6f f0 1f fa  	jal	zero, 0x11f90 <LZWReadByte+0x98>
   11ff4: 83 25 84 16  	lw	a1, 0x168(s0)
   11ff8: 63 56 b5 00  	bge	a0, a1, 0x12004 <LZWReadByte+0x10c>
   11ffc: 93 05 05 00  	addi	a1, a0, 0x0
   12000: 6f 00 40 07  	jal	zero, 0x12074 <LZWReadByte+0x17c>
   12004: 63 d2 a5 02  	bge	a1, a0, 0x12028 <LZWReadByte+0x130>
   12008: 03 35 04 03  	ld	a0, 0x30(s0)
   1200c: 83 35 05 00  	ld	a1, 0x0(a0)
   12010: 03 b6 85 00  	ld	a2, 0x8(a1)
   12014: 93 06 d0 3f  	addi	a3, zero, 0x3fd
   12018: 23 a4 d5 02  	sw	a3, 0x28(a1)
   1201c: 93 05 f0 ff  	addi	a1, zero, -0x1
   12020: e7 00 06 00  	jalr	ra, 0x0(a2)
   12024: 13 05 00 00  	addi	a0, zero, 0x0
   12028: 03 36 04 19  	ld	a2, 0x190(s0)
   1202c: 83 46 44 17  	lbu	a3, 0x174(s0)
   12030: 93 05 05 00  	addi	a1, a0, 0x0
   12034: 13 05 16 00  	addi	a0, a2, 0x1
   12038: 23 38 a4 18  	sd	a0, 0x190(s0)
   1203c: 23 00 d6 00  	sb	a3, 0x0(a2)
   12040: 03 25 04 17  	lw	a0, 0x170(s0)
   12044: 6f 00 00 03  	jal	zero, 0x12074 <LZWReadByte+0x17c>
   12048: 03 36 04 18  	ld	a2, 0x180(s0)
   1204c: 83 36 04 19  	ld	a3, 0x190(s0)
   12050: 33 06 a6 00  	add	a2, a2, a0
   12054: 03 46 06 00  	lbu	a2, 0x0(a2)
   12058: 13 87 16 00  	addi	a4, a3, 0x1
   1205c: 23 38 e4 18  	sd	a4, 0x190(s0)
   12060: 23 80 c6 00  	sb	a2, 0x0(a3)
   12064: 03 36 84 17  	ld	a2, 0x178(s0)
   12068: 13 15 15 00  	slli	a0, a0, 0x1
   1206c: 33 05 a6 00  	add	a0, a2, a0
   12070: 03 55 05 00  	lhu	a0, 0x0(a0)
   12074: 03 26 84 15  	lw	a2, 0x158(s0)
   12078: e3 58 c5 fc  	bge	a0, a2, 0x12048 <LZWReadByte+0x150>
   1207c: 03 26 84 16  	lw	a2, 0x168(s0)
   12080: b7 16 00 00  	lui	a3, 0x1
   12084: 9b 86 f6 ff  	addiw	a3, a3, -0x1
   12088: 23 2a a4 16  	sw	a0, 0x174(s0)
   1208c: 63 ca c6 04  	blt	a3, a2, 0x120e0 <LZWReadByte+0x1e8>
   12090: 83 36 84 17  	ld	a3, 0x178(s0)
   12094: 03 17 04 17  	lh	a4, 0x170(s0)
   12098: 83 37 04 18  	ld	a5, 0x180(s0)
   1209c: 13 18 16 00  	slli	a6, a2, 0x1
   120a0: b3 86 06 01  	add	a3, a3, a6
   120a4: 23 90 e6 00  	sh	a4, 0x0(a3)
   120a8: 33 86 c7 00  	add	a2, a5, a2
   120ac: 23 00 a6 00  	sb	a0, 0x0(a2)
   120b0: 03 26 84 16  	lw	a2, 0x168(s0)
   120b4: 03 25 44 16  	lw	a0, 0x164(s0)
   120b8: 1b 06 16 00  	addiw	a2, a2, 0x1
   120bc: 23 24 c4 16  	sw	a2, 0x168(s0)
   120c0: 63 40 a6 02  	blt	a2, a0, 0x120e0 <LZWReadByte+0x1e8>
   120c4: 03 26 04 16  	lw	a2, 0x160(s0)
   120c8: 93 06 b0 00  	addi	a3, zero, 0xb
   120cc: 63 ca c6 00  	blt	a3, a2, 0x120e0 <LZWReadByte+0x1e8>
   120d0: 13 06 16 00  	addi	a2, a2, 0x1
   120d4: 23 20 c4 16  	sw	a2, 0x160(s0)
   120d8: 13 15 15 00  	slli	a0, a0, 0x1
   120dc: 23 22 a4 16  	sw	a0, 0x164(s0)
   120e0: 03 25 44 17  	lw	a0, 0x174(s0)
   120e4: 23 28 b4 16  	sw	a1, 0x170(s0)
   120e8: 6f f0 9f ea  	jal	zero, 0x11f90 <LZWReadByte+0x98>

00000000000120ec <get_interlaced_row>:
   120ec: ef f2 31 00  	jal	t0, 0x318ee <__riscv_save_3>
   120f0: 13 84 05 00  	addi	s0, a1, 0x0
   120f4: 83 a5 85 1a  	lw	a1, 0x1a8(a1)
   120f8: 13 f6 75 00  	andi	a2, a1, 0x7
   120fc: 93 06 30 00  	addi	a3, zero, 0x3
   12100: 93 04 05 00  	addi	s1, a0, 0x0
   12104: 63 ce c6 00  	blt	a3, a2, 0x12120 <get_interlaced_row+0x34>
   12108: 63 0a 06 02  	beq	a2, zero, 0x1213c <get_interlaced_row+0x50>
   1210c: 13 05 20 00  	addi	a0, zero, 0x2
   12110: 63 00 a6 02  	beq	a2, a0, 0x12130 <get_interlaced_row+0x44>
   12114: 03 25 44 1b  	lw	a0, 0x1b4(s0)
   12118: 1b d6 15 00  	srliw	a2, a1, 0x1
   1211c: 6f 00 00 03  	jal	zero, 0x1214c <get_interlaced_row+0x60>
   12120: 13 05 40 00  	addi	a0, zero, 0x4
   12124: 63 00 a6 02  	beq	a2, a0, 0x12144 <get_interlaced_row+0x58>
   12128: 13 05 60 00  	addi	a0, zero, 0x6
   1212c: e3 14 a6 fe  	bne	a2, a0, 0x12114 <get_interlaced_row+0x28>
   12130: 03 25 04 1b  	lw	a0, 0x1b0(s0)
   12134: 1b d6 25 00  	srliw	a2, a1, 0x2
   12138: 6f 00 40 01  	jal	zero, 0x1214c <get_interlaced_row+0x60>
   1213c: 1b d6 35 00  	srliw	a2, a1, 0x3
   12140: 6f 00 00 01  	jal	zero, 0x12150 <get_interlaced_row+0x64>
   12144: 03 25 c4 1a  	lw	a0, 0x1ac(s0)
   12148: 1b d6 35 00  	srliw	a2, a1, 0x3
   1214c: 3b 06 c5 00  	addw	a2, a0, a2
   12150: 03 b5 84 00  	ld	a0, 0x8(s1)
   12154: 03 39 84 03  	ld	s2, 0x38(s0)
   12158: 83 37 85 03  	ld	a5, 0x38(a0)
   1215c: 83 35 04 1a  	ld	a1, 0x1a0(s0)
   12160: 93 06 10 00  	addi	a3, zero, 0x1
   12164: 13 85 04 00  	addi	a0, s1, 0x0
   12168: 13 07 00 00  	addi	a4, zero, 0x0
   1216c: e7 80 07 00  	jalr	ra, 0x0(a5)
   12170: 03 a6 84 02  	lw	a2, 0x28(s1)
   12174: 63 08 06 06  	beq	a2, zero, 0x121e4 <get_interlaced_row+0xf8>
   12178: 83 35 04 02  	ld	a1, 0x20(s0)
   1217c: 83 b5 05 00  	ld	a1, 0x0(a1)
   12180: 03 35 05 00  	ld	a0, 0x0(a0)
   12184: 13 06 f6 ff  	addi	a2, a2, -0x1
   12188: 13 16 06 02  	slli	a2, a2, 0x20
   1218c: 93 56 06 02  	srli	a3, a2, 0x20
   12190: 13 56 f6 01  	srli	a2, a2, 0x1f
   12194: 33 06 d6 00  	add	a2, a2, a3
   12198: 33 06 b6 00  	add	a2, a2, a1
   1219c: 13 06 36 00  	addi	a2, a2, 0x3
   121a0: 83 46 05 00  	lbu	a3, 0x0(a0)
   121a4: 03 37 09 00  	ld	a4, 0x0(s2)
   121a8: 33 07 d7 00  	add	a4, a4, a3
   121ac: 03 47 07 00  	lbu	a4, 0x0(a4)
   121b0: 23 80 e5 00  	sb	a4, 0x0(a1)
   121b4: 03 37 89 00  	ld	a4, 0x8(s2)
   121b8: 33 07 d7 00  	add	a4, a4, a3
   121bc: 03 47 07 00  	lbu	a4, 0x0(a4)
   121c0: a3 80 e5 00  	sb	a4, 0x1(a1)
   121c4: 03 37 09 01  	ld	a4, 0x10(s2)
   121c8: b3 06 d7 00  	add	a3, a4, a3
   121cc: 83 c6 06 00  	lbu	a3, 0x0(a3)
   121d0: 13 05 15 00  	addi	a0, a0, 0x1
   121d4: 13 87 35 00  	addi	a4, a1, 0x3
   121d8: 23 81 d5 00  	sb	a3, 0x2(a1)
   121dc: 93 05 07 00  	addi	a1, a4, 0x0
   121e0: e3 10 c7 fc  	bne	a4, a2, 0x121a0 <get_interlaced_row+0xb4>
   121e4: 03 25 84 1a  	lw	a0, 0x1a8(s0)
   121e8: 93 05 15 00  	addi	a1, a0, 0x1
   121ec: 13 05 10 00  	addi	a0, zero, 0x1
   121f0: 23 24 b4 1a  	sw	a1, 0x1a8(s0)
   121f4: 6f f0 01 73  	jal	zero, 0x31924 <__riscv_restore_3>

00000000000121f8 <GetCode>:
   121f8: ef f2 61 6f  	jal	t0, 0x318ee <__riscv_save_3>
   121fc: 13 04 05 00  	addi	s0, a0, 0x0
   12200: 83 25 c5 14  	lw	a1, 0x14c(a0)
   12204: 03 26 05 16  	lw	a2, 0x160(a0)
   12208: 03 25 85 14  	lw	a0, 0x148(a0)
   1220c: bb 06 b6 00  	addw	a3, a2, a1
   12210: 63 5c d5 06  	bge	a0, a3, 0x12288 <GetCode+0x90>
   12214: 93 04 24 04  	addi	s1, s0, 0x42
   12218: 13 09 04 04  	addi	s2, s0, 0x40
   1221c: 03 25 04 15  	lw	a0, 0x150(s0)
   12220: 63 16 05 0a  	bne	a0, zero, 0x122cc <GetCode+0xd4>
   12224: 03 25 44 14  	lw	a0, 0x144(s0)
   12228: 9b 05 e5 ff  	addiw	a1, a0, -0x2
   1222c: b3 05 b9 00  	add	a1, s2, a1
   12230: 83 c5 05 00  	lbu	a1, 0x0(a1)
   12234: 23 00 b4 04  	sb	a1, 0x40(s0)
   12238: 1b 05 f5 ff  	addiw	a0, a0, -0x1
   1223c: 33 05 a9 00  	add	a0, s2, a0
   12240: 03 45 05 00  	lbu	a0, 0x0(a0)
   12244: a3 00 a4 04  	sb	a0, 0x41(s0)
   12248: 13 05 04 00  	addi	a0, s0, 0x0
   1224c: 93 85 04 00  	addi	a1, s1, 0x0
   12250: ef f0 df c4  	jal	ra, 0x11e9c <GetDataBlock>
   12254: 63 0c 05 08  	beq	a0, zero, 0x122ec <GetCode+0xf4>
   12258: 83 25 c4 14  	lw	a1, 0x14c(s0)
   1225c: 03 26 84 14  	lw	a2, 0x148(s0)
   12260: bb 85 c5 40  	subw	a1, a1, a2
   12264: 93 85 05 01  	addi	a1, a1, 0x10
   12268: 23 26 b4 14  	sw	a1, 0x14c(s0)
   1226c: 03 26 04 16  	lw	a2, 0x160(s0)
   12270: 13 05 25 00  	addi	a0, a0, 0x2
   12274: 23 22 a4 14  	sw	a0, 0x144(s0)
   12278: 1b 15 35 00  	slliw	a0, a0, 0x3
   1227c: bb 06 b6 00  	addw	a3, a2, a1
   12280: 23 24 a4 14  	sw	a0, 0x148(s0)
   12284: e3 4c d5 f8  	blt	a0, a3, 0x1221c <GetCode+0x24>
   12288: 1b d5 35 40  	sraiw	a0, a1, 0x3
   1228c: 33 05 a4 00  	add	a0, s0, a0
   12290: 03 47 25 04  	lbu	a4, 0x42(a0)
   12294: 83 47 15 04  	lbu	a5, 0x41(a0)
   12298: 03 45 05 04  	lbu	a0, 0x40(a0)
   1229c: 13 17 07 01  	slli	a4, a4, 0x10
   122a0: 93 97 87 00  	slli	a5, a5, 0x8
   122a4: 33 e7 e7 00  	or	a4, a5, a4
   122a8: 33 65 a7 00  	or	a0, a4, a0
   122ac: 93 f5 75 00  	andi	a1, a1, 0x7
   122b0: 3b 55 b5 00  	srlw	a0, a0, a1
   122b4: 93 05 f0 ff  	addi	a1, zero, -0x1
   122b8: bb 95 c5 00  	sllw	a1, a1, a2
   122bc: 93 c5 f5 ff  	xori	a1, a1, -0x1
   122c0: 33 75 b5 00  	and	a0, a0, a1
   122c4: 23 26 d4 14  	sw	a3, 0x14c(s0)
   122c8: 6f f0 c1 65  	jal	zero, 0x31924 <__riscv_restore_3>
   122cc: 03 35 04 03  	ld	a0, 0x30(s0)
   122d0: 83 35 05 00  	ld	a1, 0x0(a0)
   122d4: 03 b6 85 00  	ld	a2, 0x8(a1)
   122d8: 93 06 00 40  	addi	a3, zero, 0x400
   122dc: 23 a4 d5 02  	sw	a3, 0x28(a1)
   122e0: 93 05 f0 ff  	addi	a1, zero, -0x1
   122e4: e7 00 06 00  	jalr	ra, 0x0(a2)
   122e8: 6f 00 80 02  	jal	zero, 0x12310 <GetCode+0x118>
   122ec: 03 35 04 03  	ld	a0, 0x30(s0)
   122f0: 83 35 05 00  	ld	a1, 0x0(a0)
   122f4: 13 06 00 40  	addi	a2, zero, 0x400
   122f8: 83 b6 85 00  	ld	a3, 0x8(a1)
   122fc: 23 a4 c5 02  	sw	a2, 0x28(a1)
   12300: 93 05 10 00  	addi	a1, zero, 0x1
   12304: 23 28 b4 14  	sw	a1, 0x150(s0)
   12308: 93 05 f0 ff  	addi	a1, zero, -0x1
   1230c: e7 80 06 00  	jalr	ra, 0x0(a3)
   12310: 03 25 c4 15  	lw	a0, 0x15c(s0)
   12314: 6f f0 01 61  	jal	zero, 0x31924 <__riscv_restore_3>

0000000000012318 <jinit_read_targa>:
   12318: ef f2 81 5e  	jal	t0, 0x31900 <__riscv_save_1>
   1231c: 13 04 05 00  	addi	s0, a0, 0x0
   12320: 03 35 85 00  	ld	a0, 0x8(a0)
   12324: 83 36 05 00  	ld	a3, 0x0(a0)
   12328: 93 05 10 00  	addi	a1, zero, 0x1
   1232c: 13 06 00 07  	addi	a2, zero, 0x70
   12330: 13 05 04 00  	addi	a0, s0, 0x0
   12334: e7 80 06 00  	jalr	ra, 0x0(a3)
   12338: 23 38 85 02  	sd	s0, 0x30(a0)
   1233c: b7 25 01 00  	lui	a1, 0x12
   12340: 93 85 85 35  	addi	a1, a1, 0x358
   12344: 23 30 b5 00  	sd	a1, 0x0(a0)
   12348: b7 35 01 00  	lui	a1, 0x13
   1234c: 93 85 85 81  	addi	a1, a1, -0x7e8
   12350: 23 38 b5 00  	sd	a1, 0x10(a0)
   12354: 6f f0 61 5d  	jal	zero, 0x3192a <__riscv_restore_1>

0000000000012358 <start_input_tga>:
   12358: ef f2 61 56  	jal	t0, 0x318be <__riscv_save_12>
   1235c: 13 01 01 fe  	addi	sp, sp, -0x20
   12360: 93 84 05 00  	addi	s1, a1, 0x0
   12364: 83 b6 85 01  	ld	a3, 0x18(a1)
   12368: 13 04 05 00  	addi	s0, a0, 0x0
   1236c: 13 05 e1 00  	addi	a0, sp, 0xe
   12370: 93 05 10 00  	addi	a1, zero, 0x1
   12374: 13 06 20 01  	addi	a2, zero, 0x12
   12378: 13 09 20 01  	addi	s2, zero, 0x12
   1237c: ef c0 c0 53  	jal	ra, 0x1e8b8 <fread>
   12380: 63 0e 25 01  	beq	a0, s2, 0x1239c <start_input_tga+0x44>
   12384: 03 35 04 00  	ld	a0, 0x0(s0)
   12388: 83 35 05 00  	ld	a1, 0x0(a0)
   1238c: 13 06 a0 02  	addi	a2, zero, 0x2a
   12390: 23 24 c5 02  	sw	a2, 0x28(a0)
   12394: 13 05 04 00  	addi	a0, s0, 0x0
   12398: e7 80 05 00  	jalr	ra, 0x0(a1)
   1239c: 03 45 e1 01  	lbu	a0, 0x1e(sp)
   123a0: 93 05 f0 00  	addi	a1, zero, 0xf
   123a4: 63 14 b5 00  	bne	a0, a1, 0x123ac <start_input_tga+0x54>
   123a8: 13 05 00 01  	addi	a0, zero, 0x10
   123ac: 03 4c e1 00  	lbu	s8, 0xe(sp)
   123b0: 83 4b f1 00  	lbu	s7, 0xf(sp)
   123b4: 03 4a 01 01  	lbu	s4, 0x10(sp)
   123b8: 03 4b 31 01  	lbu	s6, 0x13(sp)
   123bc: 83 4a 41 01  	lbu	s5, 0x14(sp)
   123c0: 03 49 a1 01  	lbu	s2, 0x1a(sp)
   123c4: 83 4d b1 01  	lbu	s11, 0x1b(sp)
   123c8: 83 49 c1 01  	lbu	s3, 0x1c(sp)
   123cc: 03 4d d1 01  	lbu	s10, 0x1d(sp)
   123d0: 93 55 35 00  	srli	a1, a0, 0x3
   123d4: 83 4c f1 01  	lbu	s9, 0x1f(sp)
   123d8: 23 ae b4 04  	sw	a1, 0x5c(s1)
   123dc: 93 05 10 00  	addi	a1, zero, 0x1
   123e0: 23 0f a1 00  	sb	a0, 0x1e(sp)
   123e4: 63 e2 75 03  	bltu	a1, s7, 0x12408 <start_input_tga+0xb0>
   123e8: 93 05 80 00  	addi	a1, zero, 0x8
   123ec: 63 6e b5 00  	bltu	a0, a1, 0x12408 <start_input_tga+0xb0>
   123f0: 93 05 70 02  	addi	a1, zero, 0x27
   123f4: 63 ea a5 00  	bltu	a1, a0, 0x12408 <start_input_tga+0xb0>
   123f8: 13 75 75 00  	andi	a0, a0, 0x7
   123fc: 63 16 05 00  	bne	a0, zero, 0x12408 <start_input_tga+0xb0>
   12400: 13 05 00 04  	addi	a0, zero, 0x40
   12404: 63 ee ac 00  	bltu	s9, a0, 0x12420 <start_input_tga+0xc8>
   12408: 03 35 04 00  	ld	a0, 0x0(s0)
   1240c: 83 35 05 00  	ld	a1, 0x0(a0)
   12410: 13 06 90 40  	addi	a2, zero, 0x409
   12414: 23 24 c5 02  	sw	a2, 0x28(a0)
   12418: 13 05 04 00  	addi	a0, s0, 0x0
   1241c: e7 80 05 00  	jalr	ra, 0x0(a1)
   12420: 93 9d 8d 00  	slli	s11, s11, 0x8
   12424: 13 05 90 00  	addi	a0, zero, 0x9
   12428: 13 1d 8d 00  	slli	s10, s10, 0x8
   1242c: 63 6c aa 00  	bltu	s4, a0, 0x12444 <start_input_tga+0xec>
   12430: 23 b0 04 06  	sd	zero, 0x60(s1)
   12434: 37 35 01 00  	lui	a0, 0x13
   12438: 13 05 c5 81  	addi	a0, a0, -0x7e4
   1243c: 13 0a 8a ff  	addi	s4, s4, -0x8
   12440: 6f 00 c0 00  	jal	zero, 0x1244c <start_input_tga+0xf4>
   12444: 37 35 01 00  	lui	a0, 0x13
   12448: 13 05 85 8c  	addi	a0, a0, -0x738
   1244c: 33 e9 2d 01  	or	s2, s11, s2
   12450: b3 69 3d 01  	or	s3, s10, s3
   12454: 93 fc 0c 02  	andi	s9, s9, 0x20
   12458: 23 b8 a4 04  	sd	a0, 0x50(s1)
   1245c: 13 05 20 00  	addi	a0, zero, 0x2
   12460: 93 05 30 00  	addi	a1, zero, 0x3
   12464: 23 2a a4 02  	sw	a0, 0x34(s0)
   12468: 63 0c ba 04  	beq	s4, a1, 0x124c0 <start_input_tga+0x168>
   1246c: 63 06 aa 02  	beq	s4, a0, 0x12498 <start_input_tga+0x140>
   12470: 13 05 10 00  	addi	a0, zero, 0x1
   12474: 63 16 aa 06  	bne	s4, a0, 0x124e0 <start_input_tga+0x188>
   12478: 83 a5 c4 05  	lw	a1, 0x5c(s1)
   1247c: 63 98 a5 08  	bne	a1, a0, 0x1250c <start_input_tga+0x1b4>
   12480: 13 05 10 00  	addi	a0, zero, 0x1
   12484: 63 94 ab 08  	bne	s7, a0, 0x1250c <start_input_tga+0x1b4>
   12488: 37 35 01 00  	lui	a0, 0x13
   1248c: 13 05 45 90  	addi	a0, a0, -0x6fc
   12490: 23 b4 a4 06  	sd	a0, 0x68(s1)
   12494: 6f 00 00 09  	jal	zero, 0x12524 <start_input_tga+0x1cc>
   12498: 03 a5 c4 05  	lw	a0, 0x5c(s1)
   1249c: 93 05 40 00  	addi	a1, zero, 0x4
   124a0: 63 0e b5 04  	beq	a0, a1, 0x124fc <start_input_tga+0x1a4>
   124a4: 93 05 30 00  	addi	a1, zero, 0x3
   124a8: 63 0a b5 04  	beq	a0, a1, 0x124fc <start_input_tga+0x1a4>
   124ac: 93 05 20 00  	addi	a1, zero, 0x2
   124b0: 63 1a b5 0c  	bne	a0, a1, 0x12584 <start_input_tga+0x22c>
   124b4: 37 35 01 00  	lui	a0, 0x13
   124b8: 13 05 05 99  	addi	a0, a0, -0x670
   124bc: 6f 00 80 04  	jal	zero, 0x12504 <start_input_tga+0x1ac>
   124c0: 03 a5 c4 05  	lw	a0, 0x5c(s1)
   124c4: 93 05 10 00  	addi	a1, zero, 0x1
   124c8: 23 2a b4 02  	sw	a1, 0x34(s0)
   124cc: 63 16 b5 06  	bne	a0, a1, 0x12538 <start_input_tga+0x1e0>
   124d0: 37 35 01 00  	lui	a0, 0x13
   124d4: 13 05 05 aa  	addi	a0, a0, -0x560
   124d8: 23 b4 a4 06  	sd	a0, 0x68(s1)
   124dc: 6f 00 40 07  	jal	zero, 0x12550 <start_input_tga+0x1f8>
   124e0: 03 35 04 00  	ld	a0, 0x0(s0)
   124e4: 83 35 05 00  	ld	a1, 0x0(a0)
   124e8: 13 06 90 40  	addi	a2, zero, 0x409
   124ec: 23 24 c5 02  	sw	a2, 0x28(a0)
   124f0: 13 05 04 00  	addi	a0, s0, 0x0
   124f4: e7 80 05 00  	jalr	ra, 0x0(a1)
   124f8: 6f 00 00 0d  	jal	zero, 0x125c8 <start_input_tga+0x270>
   124fc: 37 35 01 00  	lui	a0, 0x13
   12500: 13 05 45 a3  	addi	a0, a0, -0x5cc
   12504: 23 b4 a4 06  	sd	a0, 0x68(s1)
   12508: 6f 00 40 09  	jal	zero, 0x1259c <start_input_tga+0x244>
   1250c: 03 35 04 00  	ld	a0, 0x0(s0)
   12510: 83 35 05 00  	ld	a1, 0x0(a0)
   12514: 13 06 90 40  	addi	a2, zero, 0x409
   12518: 23 24 c5 02  	sw	a2, 0x28(a0)
   1251c: 13 05 04 00  	addi	a0, s0, 0x0
   12520: e7 80 05 00  	jalr	ra, 0x0(a1)
   12524: 03 35 04 00  	ld	a0, 0x0(s0)
   12528: 23 26 25 03  	sw	s2, 0x2c(a0)
   1252c: 83 35 04 00  	ld	a1, 0x0(s0)
   12530: 13 06 d0 40  	addi	a2, zero, 0x40d
   12534: 6f 00 80 07  	jal	zero, 0x125ac <start_input_tga+0x254>
   12538: 03 35 04 00  	ld	a0, 0x0(s0)
   1253c: 83 35 05 00  	ld	a1, 0x0(a0)
   12540: 13 06 90 40  	addi	a2, zero, 0x409
   12544: 23 24 c5 02  	sw	a2, 0x28(a0)
   12548: 13 05 04 00  	addi	a0, s0, 0x0
   1254c: e7 80 05 00  	jalr	ra, 0x0(a1)
   12550: 03 35 04 00  	ld	a0, 0x0(s0)
   12554: 23 26 25 03  	sw	s2, 0x2c(a0)
   12558: 83 35 04 00  	ld	a1, 0x0(s0)
   1255c: 13 06 c0 40  	addi	a2, zero, 0x40c
   12560: 23 24 c5 02  	sw	a2, 0x28(a0)
   12564: 23 a8 35 03  	sw	s3, 0x30(a1)
   12568: 03 35 04 00  	ld	a0, 0x0(s0)
   1256c: 03 36 85 00  	ld	a2, 0x8(a0)
   12570: 93 05 10 00  	addi	a1, zero, 0x1
   12574: 13 0a 10 00  	addi	s4, zero, 0x1
   12578: 13 05 04 00  	addi	a0, s0, 0x0
   1257c: e7 00 06 00  	jalr	ra, 0x0(a2)
   12580: 6f 00 c0 04  	jal	zero, 0x125cc <start_input_tga+0x274>
   12584: 03 35 04 00  	ld	a0, 0x0(s0)
   12588: 83 35 05 00  	ld	a1, 0x0(a0)
   1258c: 13 06 90 40  	addi	a2, zero, 0x409
   12590: 23 24 c5 02  	sw	a2, 0x28(a0)
   12594: 13 05 04 00  	addi	a0, s0, 0x0
   12598: e7 80 05 00  	jalr	ra, 0x0(a1)
   1259c: 03 35 04 00  	ld	a0, 0x0(s0)
   125a0: 23 26 25 03  	sw	s2, 0x2c(a0)
   125a4: 83 35 04 00  	ld	a1, 0x0(s0)
   125a8: 13 06 b0 40  	addi	a2, zero, 0x40b
   125ac: 23 24 c5 02  	sw	a2, 0x28(a0)
   125b0: 23 a8 35 03  	sw	s3, 0x30(a1)
   125b4: 03 35 04 00  	ld	a0, 0x0(s0)
   125b8: 03 36 85 00  	ld	a2, 0x8(a0)
   125bc: 93 05 10 00  	addi	a1, zero, 0x1
   125c0: 13 05 04 00  	addi	a0, s0, 0x0
   125c4: e7 00 06 00  	jalr	ra, 0x0(a2)
   125c8: 13 0a 30 00  	addi	s4, zero, 0x3
   125cc: 13 9d 8a 00  	slli	s10, s5, 0x8
   125d0: 63 90 0c 06  	bne	s9, zero, 0x12630 <start_input_tga+0x2d8>
   125d4: 03 35 84 00  	ld	a0, 0x8(s0)
   125d8: 83 3c 05 02  	ld	s9, 0x20(a0)
   125dc: 13 05 0a 00  	addi	a0, s4, 0x0
   125e0: 93 05 09 00  	addi	a1, s2, 0x0
   125e4: ef f0 01 35  	jal	ra, 0x31934 <__muldi3>
   125e8: 93 06 05 00  	addi	a3, a0, 0x0
   125ec: 93 05 10 00  	addi	a1, zero, 0x1
   125f0: 93 07 10 00  	addi	a5, zero, 0x1
   125f4: 93 0a 10 00  	addi	s5, zero, 0x1
   125f8: 13 05 04 00  	addi	a0, s0, 0x0
   125fc: 13 06 00 00  	addi	a2, zero, 0x0
   12600: 13 87 09 00  	addi	a4, s3, 0x0
   12604: e7 80 0c 00  	jalr	ra, 0x0(s9)
   12608: 83 35 04 01  	ld	a1, 0x10(s0)
   1260c: 23 b0 a4 04  	sd	a0, 0x40(s1)
   12610: 63 88 05 00  	beq	a1, zero, 0x12620 <start_input_tga+0x2c8>
   12614: 03 a5 45 02  	lw	a0, 0x24(a1)
   12618: 13 05 15 00  	addi	a0, a0, 0x1
   1261c: 23 a2 a5 02  	sw	a0, 0x24(a1)
   12620: 23 a4 54 03  	sw	s5, 0x28(s1)
   12624: 37 35 01 00  	lui	a0, 0x13
   12628: 93 05 45 af  	addi	a1, a0, -0x50c
   1262c: 6f 00 00 04  	jal	zero, 0x1266c <start_input_tga+0x314>
   12630: 03 35 84 00  	ld	a0, 0x8(s0)
   12634: 83 3a 05 01  	ld	s5, 0x10(a0)
   12638: 23 b0 04 04  	sd	zero, 0x40(s1)
   1263c: 13 05 0a 00  	addi	a0, s4, 0x0
   12640: 93 05 09 00  	addi	a1, s2, 0x0
   12644: ef f0 01 2f  	jal	ra, 0x31934 <__muldi3>
   12648: 13 06 05 00  	addi	a2, a0, 0x0
   1264c: 93 05 10 00  	addi	a1, zero, 0x1
   12650: 93 06 10 00  	addi	a3, zero, 0x1
   12654: 93 0c 10 00  	addi	s9, zero, 0x1
   12658: 13 05 04 00  	addi	a0, s0, 0x0
   1265c: e7 80 0a 00  	jalr	ra, 0x0(s5)
   12660: 83 b5 84 06  	ld	a1, 0x68(s1)
   12664: 23 b0 a4 02  	sd	a0, 0x20(s1)
   12668: 23 a4 94 03  	sw	s9, 0x28(s1)
   1266c: b3 6a 6d 01  	or	s5, s10, s6
   12670: 23 b4 b4 00  	sd	a1, 0x8(s1)
   12674: 63 0a 0c 02  	beq	s8, zero, 0x126a8 <start_input_tga+0x350>
   12678: 93 0c f0 ff  	addi	s9, zero, -0x1
   1267c: 93 0d a0 02  	addi	s11, zero, 0x2a
   12680: 03 b5 84 01  	ld	a0, 0x18(s1)
   12684: ef c0 e0 41  	jal	ra, 0x1eaa2 <getc>
   12688: 63 1c 95 01  	bne	a0, s9, 0x126a0 <start_input_tga+0x348>
   1268c: 03 b5 04 03  	ld	a0, 0x30(s1)
   12690: 83 35 05 00  	ld	a1, 0x0(a0)
   12694: 03 b6 05 00  	ld	a2, 0x0(a1)
   12698: 23 a4 b5 03  	sw	s11, 0x28(a1)
   1269c: e7 00 06 00  	jalr	ra, 0x0(a2)
   126a0: 1b 0c fc ff  	addiw	s8, s8, -0x1
   126a4: e3 1e 0c fc  	bne	s8, zero, 0x12680 <start_input_tga+0x328>
   126a8: 63 8a 0a 12  	beq	s5, zero, 0x127dc <start_input_tga+0x484>
   126ac: 13 05 00 10  	addi	a0, zero, 0x100
   126b0: 63 6c 55 01  	bltu	a0, s5, 0x126c8 <start_input_tga+0x370>
   126b4: 03 45 21 01  	lbu	a0, 0x12(sp)
   126b8: 83 45 11 01  	lbu	a1, 0x11(sp)
   126bc: 13 15 85 00  	slli	a0, a0, 0x8
   126c0: 33 65 b5 00  	or	a0, a0, a1
   126c4: 63 0e 05 00  	beq	a0, zero, 0x126e0 <start_input_tga+0x388>
   126c8: 03 35 04 00  	ld	a0, 0x0(s0)
   126cc: 83 35 05 00  	ld	a1, 0x0(a0)
   126d0: 13 06 80 40  	addi	a2, zero, 0x408
   126d4: 23 24 c5 02  	sw	a2, 0x28(a0)
   126d8: 13 05 04 00  	addi	a0, s0, 0x0
   126dc: e7 80 05 00  	jalr	ra, 0x0(a1)
   126e0: 03 35 84 00  	ld	a0, 0x8(s0)
   126e4: 03 37 05 01  	ld	a4, 0x10(a0)
   126e8: 93 05 10 00  	addi	a1, zero, 0x1
   126ec: 93 06 30 00  	addi	a3, zero, 0x3
   126f0: 13 05 04 00  	addi	a0, s0, 0x0
   126f4: 13 86 0a 00  	addi	a2, s5, 0x0
   126f8: e7 00 07 00  	jalr	ra, 0x0(a4)
   126fc: 83 45 51 01  	lbu	a1, 0x15(sp)
   12700: 13 06 80 01  	addi	a2, zero, 0x18
   12704: 23 bc a4 02  	sd	a0, 0x38(s1)
   12708: 63 8e c5 00  	beq	a1, a2, 0x12724 <start_input_tga+0x3cc>
   1270c: 03 b5 04 03  	ld	a0, 0x30(s1)
   12710: 83 35 05 00  	ld	a1, 0x0(a0)
   12714: 03 b6 05 00  	ld	a2, 0x0(a1)
   12718: 93 06 80 40  	addi	a3, zero, 0x408
   1271c: 23 a4 d5 02  	sw	a3, 0x28(a1)
   12720: e7 00 06 00  	jalr	ra, 0x0(a2)
   12724: 93 0b 00 00  	addi	s7, zero, 0x0
   12728: 33 0b 6d 01  	add	s6, s10, s6
   1272c: 13 0c f0 ff  	addi	s8, zero, -0x1
   12730: 93 0c a0 02  	addi	s9, zero, 0x2a
   12734: 03 b5 84 01  	ld	a0, 0x18(s1)
   12738: ef c0 a0 36  	jal	ra, 0x1eaa2 <getc>
   1273c: 93 0a 05 00  	addi	s5, a0, 0x0
   12740: 63 1c 85 01  	bne	a0, s8, 0x12758 <start_input_tga+0x400>
   12744: 03 b5 04 03  	ld	a0, 0x30(s1)
   12748: 83 35 05 00  	ld	a1, 0x0(a0)
   1274c: 03 b6 05 00  	ld	a2, 0x0(a1)
   12750: 23 a4 95 03  	sw	s9, 0x28(a1)
   12754: e7 00 06 00  	jalr	ra, 0x0(a2)
   12758: 03 b5 84 03  	ld	a0, 0x38(s1)
   1275c: 03 35 05 01  	ld	a0, 0x10(a0)
   12760: 33 05 75 01  	add	a0, a0, s7
   12764: 23 00 55 01  	sb	s5, 0x0(a0)
   12768: 03 b5 84 01  	ld	a0, 0x18(s1)
   1276c: ef c0 60 33  	jal	ra, 0x1eaa2 <getc>
   12770: 93 0a 05 00  	addi	s5, a0, 0x0
   12774: 63 1c 85 01  	bne	a0, s8, 0x1278c <start_input_tga+0x434>
   12778: 03 b5 04 03  	ld	a0, 0x30(s1)
   1277c: 83 35 05 00  	ld	a1, 0x0(a0)
   12780: 03 b6 05 00  	ld	a2, 0x0(a1)
   12784: 23 a4 95 03  	sw	s9, 0x28(a1)
   12788: e7 00 06 00  	jalr	ra, 0x0(a2)
   1278c: 03 b5 84 03  	ld	a0, 0x38(s1)
   12790: 03 35 85 00  	ld	a0, 0x8(a0)
   12794: 33 05 75 01  	add	a0, a0, s7
   12798: 23 00 55 01  	sb	s5, 0x0(a0)
   1279c: 03 b5 84 01  	ld	a0, 0x18(s1)
   127a0: ef c0 20 30  	jal	ra, 0x1eaa2 <getc>
   127a4: 93 0a 05 00  	addi	s5, a0, 0x0
   127a8: 63 1c 85 01  	bne	a0, s8, 0x127c0 <start_input_tga+0x468>
   127ac: 03 b5 04 03  	ld	a0, 0x30(s1)
   127b0: 83 35 05 00  	ld	a1, 0x0(a0)
   127b4: 03 b6 05 00  	ld	a2, 0x0(a1)
   127b8: 23 a4 95 03  	sw	s9, 0x28(a1)
   127bc: e7 00 06 00  	jalr	ra, 0x0(a2)
   127c0: 03 b5 84 03  	ld	a0, 0x38(s1)
   127c4: 03 35 05 00  	ld	a0, 0x0(a0)
   127c8: 33 05 75 01  	add	a0, a0, s7
   127cc: 93 8b 1b 00  	addi	s7, s7, 0x1
   127d0: 23 00 55 01  	sb	s5, 0x0(a0)
   127d4: e3 10 7b f7  	bne	s6, s7, 0x12734 <start_input_tga+0x3dc>
   127d8: 6f 00 40 02  	jal	zero, 0x127fc <start_input_tga+0x4a4>
   127dc: 63 8e 0b 00  	beq	s7, zero, 0x127f8 <start_input_tga+0x4a0>
   127e0: 03 35 04 00  	ld	a0, 0x0(s0)
   127e4: 83 35 05 00  	ld	a1, 0x0(a0)
   127e8: 13 06 90 40  	addi	a2, zero, 0x409
   127ec: 23 24 c5 02  	sw	a2, 0x28(a0)
   127f0: 13 05 04 00  	addi	a0, s0, 0x0
   127f4: e7 80 05 00  	jalr	ra, 0x0(a1)
   127f8: 23 bc 04 02  	sd	zero, 0x38(s1)
   127fc: 23 28 44 03  	sw	s4, 0x30(s0)
   12800: 13 05 80 00  	addi	a0, zero, 0x8
   12804: 23 20 a4 04  	sw	a0, 0x40(s0)
   12808: 23 24 24 03  	sw	s2, 0x28(s0)
   1280c: 23 26 34 03  	sw	s3, 0x2c(s0)
   12810: 13 01 01 02  	addi	sp, sp, 0x20
   12814: 6f f0 41 0f  	jal	zero, 0x31908 <__riscv_restore_12>

0000000000012818 <finish_input_tga>:
   12818: 67 80 00 00  	jalr	zero, 0x0(ra)

000000000001281c <read_rle_pixel>:
   1281c: ef f2 81 0c  	jal	t0, 0x318e4 <__riscv_save_5>
   12820: 13 04 05 00  	addi	s0, a0, 0x0
   12824: 03 25 45 06  	lw	a0, 0x64(a0)
   12828: 63 58 a0 00  	bge	zero, a0, 0x12838 <read_rle_pixel+0x1c>
   1282c: 13 05 f5 ff  	addi	a0, a0, -0x1
   12830: 23 22 a4 06  	sw	a0, 0x64(s0)
   12834: 6f f0 a1 0e  	jal	zero, 0x3191e <__riscv_restore_5>
   12838: 03 25 04 06  	lw	a0, 0x60(s0)
   1283c: 83 34 84 01  	ld	s1, 0x18(s0)
   12840: 93 05 f5 ff  	addi	a1, a0, -0x1
   12844: 23 20 b4 06  	sw	a1, 0x60(s0)
   12848: 63 48 a0 04  	blt	zero, a0, 0x12898 <read_rle_pixel+0x7c>
   1284c: 13 85 04 00  	addi	a0, s1, 0x0
   12850: ef c0 20 25  	jal	ra, 0x1eaa2 <getc>
   12854: 93 05 f0 ff  	addi	a1, zero, -0x1
   12858: 13 09 05 00  	addi	s2, a0, 0x0
   1285c: 63 0a b5 00  	beq	a0, a1, 0x12870 <read_rle_pixel+0x54>
   12860: 13 75 09 08  	andi	a0, s2, 0x80
   12864: 63 12 05 02  	bne	a0, zero, 0x12888 <read_rle_pixel+0x6c>
   12868: 13 75 f9 07  	andi	a0, s2, 0x7f
   1286c: 6f 00 80 02  	jal	zero, 0x12894 <read_rle_pixel+0x78>
   12870: 03 35 04 03  	ld	a0, 0x30(s0)
   12874: 83 35 05 00  	ld	a1, 0x0(a0)
   12878: 03 b6 05 00  	ld	a2, 0x0(a1)
   1287c: 93 06 a0 02  	addi	a3, zero, 0x2a
   12880: 23 a4 d5 02  	sw	a3, 0x28(a1)
   12884: e7 00 06 00  	jalr	ra, 0x0(a2)
   12888: 13 05 00 00  	addi	a0, zero, 0x0
   1288c: 93 75 f9 07  	andi	a1, s2, 0x7f
   12890: 23 22 b4 06  	sw	a1, 0x64(s0)
   12894: 23 20 a4 06  	sw	a0, 0x60(s0)
   12898: 03 25 c4 05  	lw	a0, 0x5c(s0)
   1289c: 63 54 a0 02  	bge	zero, a0, 0x128c4 <read_rle_pixel+0xa8>
   128a0: 13 09 00 00  	addi	s2, zero, 0x0
   128a4: 93 09 84 05  	addi	s3, s0, 0x58
   128a8: 13 85 04 00  	addi	a0, s1, 0x0
   128ac: ef c0 60 1f  	jal	ra, 0x1eaa2 <getc>
   128b0: b3 85 29 01  	add	a1, s3, s2
   128b4: 23 80 a5 00  	sb	a0, 0x0(a1)
   128b8: 03 25 c4 05  	lw	a0, 0x5c(s0)
   128bc: 13 09 19 00  	addi	s2, s2, 0x1
   128c0: e3 44 a9 fe  	blt	s2, a0, 0x128a8 <read_rle_pixel+0x8c>
   128c4: 6f f0 a1 05  	jal	zero, 0x3191e <__riscv_restore_5>

00000000000128c8 <read_non_rle_pixel>:
   128c8: ef f2 c1 01  	jal	t0, 0x318e4 <__riscv_save_5>
   128cc: 13 04 05 00  	addi	s0, a0, 0x0
   128d0: 03 25 c5 05  	lw	a0, 0x5c(a0)
   128d4: 63 56 a0 02  	bge	zero, a0, 0x12900 <read_non_rle_pixel+0x38>
   128d8: 83 34 84 01  	ld	s1, 0x18(s0)
   128dc: 13 09 00 00  	addi	s2, zero, 0x0
   128e0: 93 09 84 05  	addi	s3, s0, 0x58
   128e4: 13 85 04 00  	addi	a0, s1, 0x0
   128e8: ef c0 a0 1b  	jal	ra, 0x1eaa2 <getc>
   128ec: b3 85 29 01  	add	a1, s3, s2
   128f0: 23 80 a5 00  	sb	a0, 0x0(a1)
   128f4: 03 25 c4 05  	lw	a0, 0x5c(s0)
   128f8: 13 09 19 00  	addi	s2, s2, 0x1
   128fc: e3 44 a9 fe  	blt	s2, a0, 0x128e4 <read_non_rle_pixel+0x1c>
   12900: 6f f0 e1 01  	jal	zero, 0x3191e <__riscv_restore_5>

0000000000012904 <get_8bit_row>:
   12904: ef e2 11 7e  	jal	t0, 0x318e4 <__riscv_save_5>
   12908: 03 25 85 02  	lw	a0, 0x28(a0)
   1290c: 63 0e 05 06  	beq	a0, zero, 0x12988 <get_8bit_row+0x84>
   12910: 13 84 05 00  	addi	s0, a1, 0x0
   12914: 83 b5 05 02  	ld	a1, 0x20(a1)
   12918: 83 34 84 03  	ld	s1, 0x38(s0)
   1291c: 03 b9 05 00  	ld	s2, 0x0(a1)
   12920: 13 05 f5 ff  	addi	a0, a0, -0x1
   12924: 13 15 05 02  	slli	a0, a0, 0x20
   12928: 93 55 05 02  	srli	a1, a0, 0x20
   1292c: 13 55 f5 01  	srli	a0, a0, 0x1f
   12930: 33 05 b5 00  	add	a0, a0, a1
   12934: 33 05 25 01  	add	a0, a0, s2
   12938: 93 09 35 00  	addi	s3, a0, 0x3
   1293c: 83 35 04 05  	ld	a1, 0x50(s0)
   12940: 13 05 04 00  	addi	a0, s0, 0x0
   12944: e7 80 05 00  	jalr	ra, 0x0(a1)
   12948: 03 45 84 05  	lbu	a0, 0x58(s0)
   1294c: 83 b5 04 00  	ld	a1, 0x0(s1)
   12950: b3 85 a5 00  	add	a1, a1, a0
   12954: 83 c5 05 00  	lbu	a1, 0x0(a1)
   12958: 23 00 b9 00  	sb	a1, 0x0(s2)
   1295c: 83 b5 84 00  	ld	a1, 0x8(s1)
   12960: b3 85 a5 00  	add	a1, a1, a0
   12964: 83 c5 05 00  	lbu	a1, 0x0(a1)
   12968: a3 00 b9 00  	sb	a1, 0x1(s2)
   1296c: 83 b5 04 01  	ld	a1, 0x10(s1)
   12970: 33 85 a5 00  	add	a0, a1, a0
   12974: 03 45 05 00  	lbu	a0, 0x0(a0)
   12978: 93 05 39 00  	addi	a1, s2, 0x3
   1297c: 23 01 a9 00  	sb	a0, 0x2(s2)
   12980: 13 89 05 00  	addi	s2, a1, 0x0
   12984: e3 9c 35 fb  	bne	a1, s3, 0x1293c <get_8bit_row+0x38>
   12988: 13 05 10 00  	addi	a0, zero, 0x1
   1298c: 6f e0 31 79  	jal	zero, 0x3191e <__riscv_restore_5>

0000000000012990 <get_16bit_row>:
   12990: ef e2 51 75  	jal	t0, 0x318e4 <__riscv_save_5>
   12994: 03 25 85 02  	lw	a0, 0x28(a0)
   12998: 63 0a 05 08  	beq	a0, zero, 0x12a2c <get_16bit_row+0x9c>
   1299c: 13 84 05 00  	addi	s0, a1, 0x0
   129a0: 83 b5 05 02  	ld	a1, 0x20(a1)
   129a4: 83 b5 05 00  	ld	a1, 0x0(a1)
   129a8: 93 84 25 00  	addi	s1, a1, 0x2
   129ac: 13 05 f5 ff  	addi	a0, a0, -0x1
   129b0: 13 15 05 02  	slli	a0, a0, 0x20
   129b4: 13 56 05 02  	srli	a2, a0, 0x20
   129b8: 13 55 f5 01  	srli	a0, a0, 0x1f
   129bc: 33 05 c5 00  	add	a0, a0, a2
   129c0: 33 05 b5 00  	add	a0, a0, a1
   129c4: 13 09 55 00  	addi	s2, a0, 0x5
   129c8: 37 45 03 00  	lui	a0, 0x34
   129cc: 93 09 05 8c  	addi	s3, a0, -0x740
   129d0: 83 35 04 05  	ld	a1, 0x50(s0)
   129d4: 13 05 04 00  	addi	a0, s0, 0x0
   129d8: e7 80 05 00  	jalr	ra, 0x0(a1)
   129dc: 03 45 84 05  	lbu	a0, 0x58(s0)
   129e0: 83 45 94 05  	lbu	a1, 0x59(s0)
   129e4: 13 76 f5 01  	andi	a2, a0, 0x1f
   129e8: 33 86 c9 00  	add	a2, s3, a2
   129ec: 03 46 06 00  	lbu	a2, 0x0(a2)
   129f0: 93 96 85 00  	slli	a3, a1, 0x8
   129f4: 33 e5 a6 00  	or	a0, a3, a0
   129f8: 23 80 c4 00  	sb	a2, 0x0(s1)
   129fc: 13 15 65 03  	slli	a0, a0, 0x36
   12a00: 13 55 b5 03  	srli	a0, a0, 0x3b
   12a04: 33 85 a9 00  	add	a0, s3, a0
   12a08: 03 45 05 00  	lbu	a0, 0x0(a0)
   12a0c: a3 8f a4 fe  	sb	a0, -0x1(s1)
   12a10: 93 95 95 03  	slli	a1, a1, 0x39
   12a14: 93 d5 b5 03  	srli	a1, a1, 0x3b
   12a18: b3 85 b9 00  	add	a1, s3, a1
   12a1c: 03 c5 05 00  	lbu	a0, 0x0(a1)
   12a20: 23 8f a4 fe  	sb	a0, -0x2(s1)
   12a24: 93 84 34 00  	addi	s1, s1, 0x3
   12a28: e3 94 24 fb  	bne	s1, s2, 0x129d0 <get_16bit_row+0x40>
   12a2c: 13 05 10 00  	addi	a0, zero, 0x1
   12a30: 6f e0 f1 6e  	jal	zero, 0x3191e <__riscv_restore_5>

0000000000012a34 <get_24bit_row>:
   12a34: ef e2 b1 6b  	jal	t0, 0x318ee <__riscv_save_3>
   12a38: 03 25 85 02  	lw	a0, 0x28(a0)
   12a3c: 63 0e 05 04  	beq	a0, zero, 0x12a98 <get_24bit_row+0x64>
   12a40: 13 84 05 00  	addi	s0, a1, 0x0
   12a44: 83 b5 05 02  	ld	a1, 0x20(a1)
   12a48: 83 b4 05 00  	ld	s1, 0x0(a1)
   12a4c: 13 05 f5 ff  	addi	a0, a0, -0x1
   12a50: 13 15 05 02  	slli	a0, a0, 0x20
   12a54: 93 55 05 02  	srli	a1, a0, 0x20
   12a58: 13 55 f5 01  	srli	a0, a0, 0x1f
   12a5c: 33 05 b5 00  	add	a0, a0, a1
   12a60: 33 05 95 00  	add	a0, a0, s1
   12a64: 13 09 35 00  	addi	s2, a0, 0x3
   12a68: 83 35 04 05  	ld	a1, 0x50(s0)
   12a6c: 13 05 04 00  	addi	a0, s0, 0x0
   12a70: e7 80 05 00  	jalr	ra, 0x0(a1)
   12a74: 03 45 a4 05  	lbu	a0, 0x5a(s0)
   12a78: 23 80 a4 00  	sb	a0, 0x0(s1)
   12a7c: 03 45 94 05  	lbu	a0, 0x59(s0)
   12a80: a3 80 a4 00  	sb	a0, 0x1(s1)
   12a84: 03 45 84 05  	lbu	a0, 0x58(s0)
   12a88: 93 85 34 00  	addi	a1, s1, 0x3
   12a8c: 23 81 a4 00  	sb	a0, 0x2(s1)
   12a90: 93 84 05 00  	addi	s1, a1, 0x0
   12a94: e3 9a 25 fd  	bne	a1, s2, 0x12a68 <get_24bit_row+0x34>
   12a98: 13 05 10 00  	addi	a0, zero, 0x1
   12a9c: 6f e0 91 68  	jal	zero, 0x31924 <__riscv_restore_3>

0000000000012aa0 <get_8bit_gray_row>:
   12aa0: ef e2 f1 64  	jal	t0, 0x318ee <__riscv_save_3>
   12aa4: 03 25 85 02  	lw	a0, 0x28(a0)
   12aa8: 63 02 05 04  	beq	a0, zero, 0x12aec <get_8bit_gray_row+0x4c>
   12aac: 13 84 05 00  	addi	s0, a1, 0x0
   12ab0: 83 b5 05 02  	ld	a1, 0x20(a1)
   12ab4: 83 b4 05 00  	ld	s1, 0x0(a1)
   12ab8: 13 05 f5 ff  	addi	a0, a0, -0x1
   12abc: 13 15 05 02  	slli	a0, a0, 0x20
   12ac0: 13 55 05 02  	srli	a0, a0, 0x20
   12ac4: 33 05 95 00  	add	a0, a0, s1
   12ac8: 13 09 15 00  	addi	s2, a0, 0x1
   12acc: 83 35 04 05  	ld	a1, 0x50(s0)
   12ad0: 13 05 04 00  	addi	a0, s0, 0x0
   12ad4: e7 80 05 00  	jalr	ra, 0x0(a1)
   12ad8: 03 45 84 05  	lbu	a0, 0x58(s0)
   12adc: 93 85 14 00  	addi	a1, s1, 0x1
   12ae0: 23 80 a4 00  	sb	a0, 0x0(s1)
   12ae4: 93 84 05 00  	addi	s1, a1, 0x0
   12ae8: e3 92 25 ff  	bne	a1, s2, 0x12acc <get_8bit_gray_row+0x2c>
   12aec: 13 05 10 00  	addi	a0, zero, 0x1
   12af0: 6f e0 51 63  	jal	zero, 0x31924 <__riscv_restore_3>

0000000000012af4 <preload_image>:
   12af4: ef e2 11 5f  	jal	t0, 0x318e4 <__riscv_save_5>
   12af8: 93 04 05 00  	addi	s1, a0, 0x0
   12afc: 03 26 c5 02  	lw	a2, 0x2c(a0)
   12b00: 83 39 05 01  	ld	s3, 0x10(a0)
   12b04: 13 84 05 00  	addi	s0, a1, 0x0
   12b08: 63 04 06 0c  	beq	a2, zero, 0x12bd0 <preload_image+0xdc>
   12b0c: 13 09 00 00  	addi	s2, zero, 0x0
   12b10: 13 0a 00 00  	addi	s4, zero, 0x0
   12b14: 63 80 09 02  	beq	s3, zero, 0x12b34 <preload_image+0x40>
   12b18: 13 16 06 02  	slli	a2, a2, 0x20
   12b1c: 83 b5 09 00  	ld	a1, 0x0(s3)
   12b20: 13 56 06 02  	srli	a2, a2, 0x20
   12b24: 23 b8 c9 00  	sd	a2, 0x10(s3)
   12b28: 23 b4 49 01  	sd	s4, 0x8(s3)
   12b2c: 13 85 04 00  	addi	a0, s1, 0x0
   12b30: e7 80 05 00  	jalr	ra, 0x0(a1)
   12b34: 03 b5 84 00  	ld	a0, 0x8(s1)
   12b38: 83 37 85 03  	ld	a5, 0x38(a0)
   12b3c: 83 35 04 04  	ld	a1, 0x40(s0)
   12b40: 93 06 10 00  	addi	a3, zero, 0x1
   12b44: 13 07 10 00  	addi	a4, zero, 0x1
   12b48: 13 85 04 00  	addi	a0, s1, 0x0
   12b4c: 13 06 09 00  	addi	a2, s2, 0x0
   12b50: e7 80 07 00  	jalr	ra, 0x0(a5)
   12b54: 03 36 84 06  	ld	a2, 0x68(s0)
   12b58: 23 30 a4 02  	sd	a0, 0x20(s0)
   12b5c: 13 85 04 00  	addi	a0, s1, 0x0
   12b60: 93 05 04 00  	addi	a1, s0, 0x0
   12b64: e7 00 06 00  	jalr	ra, 0x0(a2)
   12b68: 03 e6 c4 02  	lwu	a2, 0x2c(s1)
   12b6c: 13 0a 1a 00  	addi	s4, s4, 0x1
   12b70: 1b 09 19 00  	addiw	s2, s2, 0x1
   12b74: e3 60 ca fa  	bltu	s4, a2, 0x12b14 <preload_image+0x20>
   12b78: 1b 06 f6 ff  	addiw	a2, a2, -0x1
   12b7c: 63 88 09 00  	beq	s3, zero, 0x12b8c <preload_image+0x98>
   12b80: 03 a5 09 02  	lw	a0, 0x20(s3)
   12b84: 13 05 15 00  	addi	a0, a0, 0x1
   12b88: 23 a0 a9 02  	sw	a0, 0x20(s3)
   12b8c: 03 b5 84 00  	ld	a0, 0x8(s1)
   12b90: b7 36 01 00  	lui	a3, 0x13
   12b94: 83 37 85 03  	ld	a5, 0x38(a0)
   12b98: 83 35 04 04  	ld	a1, 0x40(s0)
   12b9c: 13 85 c6 bd  	addi	a0, a3, -0x424
   12ba0: 23 34 a4 00  	sd	a0, 0x8(s0)
   12ba4: 23 24 04 04  	sw	zero, 0x48(s0)
   12ba8: 93 06 10 00  	addi	a3, zero, 0x1
   12bac: 13 85 04 00  	addi	a0, s1, 0x0
   12bb0: 13 07 00 00  	addi	a4, zero, 0x0
   12bb4: e7 80 07 00  	jalr	ra, 0x0(a5)
   12bb8: 83 25 84 04  	lw	a1, 0x48(s0)
   12bbc: 23 30 a4 02  	sd	a0, 0x20(s0)
   12bc0: 93 85 15 00  	addi	a1, a1, 0x1
   12bc4: 13 05 10 00  	addi	a0, zero, 0x1
   12bc8: 23 24 b4 04  	sw	a1, 0x48(s0)
   12bcc: 6f e0 31 55  	jal	zero, 0x3191e <__riscv_restore_5>
   12bd0: 13 06 f0 ff  	addi	a2, zero, -0x1
   12bd4: e3 96 09 fa  	bne	s3, zero, 0x12b80 <preload_image+0x8c>
   12bd8: 6f f0 5f fb  	jal	zero, 0x12b8c <preload_image+0x98>

0000000000012bdc <get_memory_row>:
   12bdc: ef e2 51 52  	jal	t0, 0x31900 <__riscv_save_1>
   12be0: 03 36 85 00  	ld	a2, 0x8(a0)
   12be4: 13 84 05 00  	addi	s0, a1, 0x0
   12be8: 83 26 c5 02  	lw	a3, 0x2c(a0)
   12bec: 03 a7 85 04  	lw	a4, 0x48(a1)
   12bf0: 83 37 86 03  	ld	a5, 0x38(a2)
   12bf4: 83 b5 05 04  	ld	a1, 0x40(a1)
   12bf8: 13 46 f7 ff  	xori	a2, a4, -0x1
   12bfc: 3b 86 c6 00  	addw	a2, a3, a2
   12c00: 93 06 10 00  	addi	a3, zero, 0x1
   12c04: 13 07 00 00  	addi	a4, zero, 0x0
   12c08: e7 80 07 00  	jalr	ra, 0x0(a5)
   12c0c: 83 25 84 04  	lw	a1, 0x48(s0)
   12c10: 23 30 a4 02  	sd	a0, 0x20(s0)
   12c14: 93 85 15 00  	addi	a1, a1, 0x1
   12c18: 13 05 10 00  	addi	a0, zero, 0x1
   12c1c: 23 24 b4 04  	sw	a1, 0x48(s0)
   12c20: 6f e0 b1 50  	jal	zero, 0x3192a <__riscv_restore_1>

0000000000012c24 <jinit_read_bmp>:
   12c24: ef e2 d1 4d  	jal	t0, 0x31900 <__riscv_save_1>
   12c28: 13 04 05 00  	addi	s0, a0, 0x0
   12c2c: 03 35 85 00  	ld	a0, 0x8(a0)
   12c30: 83 36 05 00  	ld	a3, 0x0(a0)
   12c34: 93 05 10 00  	addi	a1, zero, 0x1
   12c38: 13 06 80 05  	addi	a2, zero, 0x58
   12c3c: 13 05 04 00  	addi	a0, s0, 0x0
   12c40: e7 80 06 00  	jalr	ra, 0x0(a3)
   12c44: 23 38 85 02  	sd	s0, 0x30(a0)
   12c48: b7 35 01 00  	lui	a1, 0x13
   12c4c: 93 85 45 c6  	addi	a1, a1, -0x39c
   12c50: 23 30 b5 00  	sd	a1, 0x0(a0)
   12c54: b7 35 01 00  	lui	a1, 0x13
   12c58: 93 85 c5 48  	addi	a1, a1, 0x48c
   12c5c: 23 38 b5 00  	sd	a1, 0x10(a0)
   12c60: 6f e0 b1 4c  	jal	zero, 0x3192a <__riscv_restore_1>

0000000000012c64 <start_input_bmp>:
   12c64: ef e2 b1 45  	jal	t0, 0x318be <__riscv_save_12>
   12c68: 13 01 01 f7  	addi	sp, sp, -0x90
   12c6c: 93 84 05 00  	addi	s1, a1, 0x0
   12c70: 83 b6 85 01  	ld	a3, 0x18(a1)
   12c74: 13 04 05 00  	addi	s0, a0, 0x0
   12c78: 13 05 21 08  	addi	a0, sp, 0x82
   12c7c: 93 05 10 00  	addi	a1, zero, 0x1
   12c80: 13 06 e0 00  	addi	a2, zero, 0xe
   12c84: 13 09 e0 00  	addi	s2, zero, 0xe
   12c88: ef b0 10 43  	jal	ra, 0x1e8b8 <fread>
   12c8c: 63 0e 25 01  	beq	a0, s2, 0x12ca8 <start_input_bmp+0x44>
   12c90: 03 35 04 00  	ld	a0, 0x0(s0)
   12c94: 83 35 05 00  	ld	a1, 0x0(a0)
   12c98: 13 06 a0 02  	addi	a2, zero, 0x2a
   12c9c: 23 24 c5 02  	sw	a2, 0x28(a0)
   12ca0: 13 05 04 00  	addi	a0, s0, 0x0
   12ca4: e7 80 05 00  	jalr	ra, 0x0(a1)
   12ca8: 03 45 31 08  	lbu	a0, 0x83(sp)
   12cac: 83 45 21 08  	lbu	a1, 0x82(sp)
   12cb0: 13 15 85 00  	slli	a0, a0, 0x8
   12cb4: 33 65 b5 00  	or	a0, a0, a1
   12cb8: b7 55 00 00  	lui	a1, 0x5
   12cbc: 9b 85 25 d4  	addiw	a1, a1, -0x2be
   12cc0: 63 0e b5 00  	beq	a0, a1, 0x12cdc <start_input_bmp+0x78>
   12cc4: 03 35 04 00  	ld	a0, 0x0(s0)
   12cc8: 83 35 05 00  	ld	a1, 0x0(a0)
   12ccc: 13 06 f0 3e  	addi	a2, zero, 0x3ef
   12cd0: 23 24 c5 02  	sw	a2, 0x28(a0)
   12cd4: 13 05 04 00  	addi	a0, s0, 0x0
   12cd8: e7 80 05 00  	jalr	ra, 0x0(a1)
   12cdc: 03 45 c1 08  	lbu	a0, 0x8c(sp)
   12ce0: 83 45 d1 08  	lbu	a1, 0x8d(sp)
   12ce4: 03 4a e1 08  	lbu	s4, 0x8e(sp)
   12ce8: 03 49 f1 08  	lbu	s2, 0x8f(sp)
   12cec: 83 b6 84 01  	ld	a3, 0x18(s1)
   12cf0: 93 95 85 00  	slli	a1, a1, 0x8
   12cf4: b3 e9 a5 00  	or	s3, a1, a0
   12cf8: 13 1a 0a 01  	slli	s4, s4, 0x10
   12cfc: 13 05 21 04  	addi	a0, sp, 0x42
   12d00: 93 05 10 00  	addi	a1, zero, 0x1
   12d04: 13 06 40 00  	addi	a2, zero, 0x4
   12d08: 93 0a 40 00  	addi	s5, zero, 0x4
   12d0c: ef b0 d0 3a  	jal	ra, 0x1e8b8 <fread>
   12d10: 63 0e 55 01  	beq	a0, s5, 0x12d2c <start_input_bmp+0xc8>
   12d14: 03 35 04 00  	ld	a0, 0x0(s0)
   12d18: 83 35 05 00  	ld	a1, 0x0(a0)
   12d1c: 13 06 a0 02  	addi	a2, zero, 0x2a
   12d20: 23 24 c5 02  	sw	a2, 0x28(a0)
   12d24: 13 05 04 00  	addi	a0, s0, 0x0
   12d28: e7 80 05 00  	jalr	ra, 0x0(a1)
   12d2c: 33 ea 49 01  	or	s4, s3, s4
   12d30: 03 45 31 04  	lbu	a0, 0x43(sp)
   12d34: 83 45 21 04  	lbu	a1, 0x42(sp)
   12d38: 03 46 41 04  	lbu	a2, 0x44(sp)
   12d3c: 83 46 51 04  	lbu	a3, 0x45(sp)
   12d40: 13 15 85 00  	slli	a0, a0, 0x8
   12d44: 33 65 b5 00  	or	a0, a0, a1
   12d48: 13 16 06 01  	slli	a2, a2, 0x10
   12d4c: 93 96 86 01  	slli	a3, a3, 0x18
   12d50: 33 66 d6 00  	or	a2, a2, a3
   12d54: b3 69 c5 00  	or	s3, a0, a2
   12d58: 13 85 f9 fb  	addi	a0, s3, -0x41
   12d5c: 93 05 a0 fc  	addi	a1, zero, -0x36
   12d60: 13 19 89 01  	slli	s2, s2, 0x18
   12d64: 63 ee a5 00  	bltu	a1, a0, 0x12d80 <start_input_bmp+0x11c>
   12d68: 03 35 04 00  	ld	a0, 0x0(s0)
   12d6c: 83 35 05 00  	ld	a1, 0x0(a0)
   12d70: 13 06 b0 3e  	addi	a2, zero, 0x3eb
   12d74: 23 24 c5 02  	sw	a2, 0x28(a0)
   12d78: 13 05 04 00  	addi	a0, s0, 0x0
   12d7c: e7 80 05 00  	jalr	ra, 0x0(a1)
   12d80: 83 b6 84 01  	ld	a3, 0x18(s1)
   12d84: 33 6a 2a 01  	or	s4, s4, s2
   12d88: 13 05 61 04  	addi	a0, sp, 0x46
   12d8c: 13 89 c9 ff  	addi	s2, s3, -0x4
   12d90: 93 05 10 00  	addi	a1, zero, 0x1
   12d94: 13 06 09 00  	addi	a2, s2, 0x0
   12d98: ef b0 10 32  	jal	ra, 0x1e8b8 <fread>
   12d9c: 63 0e 25 01  	beq	a0, s2, 0x12db8 <start_input_bmp+0x154>
   12da0: 03 35 04 00  	ld	a0, 0x0(s0)
   12da4: 83 35 05 00  	ld	a1, 0x0(a0)
   12da8: 13 06 a0 02  	addi	a2, zero, 0x2a
   12dac: 23 24 c5 02  	sw	a2, 0x28(a0)
   12db0: 13 05 04 00  	addi	a0, s0, 0x0
   12db4: e7 80 05 00  	jalr	ra, 0x0(a1)
   12db8: 1b 85 09 00  	addiw	a0, s3, 0x0
   12dbc: 93 05 00 04  	addi	a1, zero, 0x40
   12dc0: 33 0c 3a 41  	sub	s8, s4, s3
   12dc4: 63 0e b5 08  	beq	a0, a1, 0x12e60 <start_input_bmp+0x1fc>
   12dc8: 93 05 80 02  	addi	a1, zero, 0x28
   12dcc: 63 0a b5 08  	beq	a0, a1, 0x12e60 <start_input_bmp+0x1fc>
   12dd0: 93 05 c0 00  	addi	a1, zero, 0xc
   12dd4: 63 1a b5 1c  	bne	a0, a1, 0x12fa8 <start_input_bmp+0x344>
   12dd8: 03 45 71 04  	lbu	a0, 0x47(sp)
   12ddc: 83 45 61 04  	lbu	a1, 0x46(sp)
   12de0: 03 46 91 04  	lbu	a2, 0x49(sp)
   12de4: 13 15 85 00  	slli	a0, a0, 0x8
   12de8: 83 46 81 04  	lbu	a3, 0x48(sp)
   12dec: b3 6b b5 00  	or	s7, a0, a1
   12df0: 1b 15 86 00  	slliw	a0, a2, 0x8
   12df4: 83 45 b1 04  	lbu	a1, 0x4b(sp)
   12df8: b3 6d d5 00  	or	s11, a0, a3
   12dfc: 03 45 a1 04  	lbu	a0, 0x4a(sp)
   12e00: 03 46 d1 04  	lbu	a2, 0x4d(sp)
   12e04: 93 95 85 00  	slli	a1, a1, 0x8
   12e08: 83 46 c1 04  	lbu	a3, 0x4c(sp)
   12e0c: 33 e9 a5 00  	or	s2, a1, a0
   12e10: 93 15 86 00  	slli	a1, a2, 0x8
   12e14: 03 35 04 00  	ld	a0, 0x0(s0)
   12e18: b3 e5 d5 00  	or	a1, a1, a3
   12e1c: 13 06 80 01  	addi	a2, zero, 0x18
   12e20: 23 a8 b4 04  	sw	a1, 0x50(s1)
   12e24: 63 84 c5 2c  	beq	a1, a2, 0x130ec <start_input_bmp+0x488>
   12e28: 13 06 80 00  	addi	a2, zero, 0x8
   12e2c: 63 96 c5 2e  	bne	a1, a2, 0x13118 <start_input_bmp+0x4b4>
   12e30: 23 26 75 03  	sw	s7, 0x2c(a0)
   12e34: 83 35 04 00  	ld	a1, 0x0(s0)
   12e38: 13 06 30 3f  	addi	a2, zero, 0x3f3
   12e3c: 23 24 c5 02  	sw	a2, 0x28(a0)
   12e40: 23 a8 b5 03  	sw	s11, 0x30(a1)
   12e44: 03 35 04 00  	ld	a0, 0x0(s0)
   12e48: 03 36 85 00  	ld	a2, 0x8(a0)
   12e4c: 93 05 10 00  	addi	a1, zero, 0x1
   12e50: 13 05 04 00  	addi	a0, s0, 0x0
   12e54: e7 00 06 00  	jalr	ra, 0x0(a2)
   12e58: 93 09 30 00  	addi	s3, zero, 0x3
   12e5c: 6f 00 40 2d  	jal	zero, 0x13130 <start_input_bmp+0x4cc>
   12e60: 23 34 81 03  	sd	s8, 0x28(sp)
   12e64: 03 45 71 04  	lbu	a0, 0x47(sp)
   12e68: 83 45 61 04  	lbu	a1, 0x46(sp)
   12e6c: 03 46 81 04  	lbu	a2, 0x48(sp)
   12e70: 83 46 91 04  	lbu	a3, 0x49(sp)
   12e74: 13 15 85 00  	slli	a0, a0, 0x8
   12e78: 33 65 b5 00  	or	a0, a0, a1
   12e7c: 13 16 06 01  	slli	a2, a2, 0x10
   12e80: 93 96 86 01  	slli	a3, a3, 0x18
   12e84: 33 66 d6 00  	or	a2, a2, a3
   12e88: 33 65 c5 00  	or	a0, a0, a2
   12e8c: 23 3c a1 02  	sd	a0, 0x38(sp)
   12e90: 03 45 b1 04  	lbu	a0, 0x4b(sp)
   12e94: 83 45 a1 04  	lbu	a1, 0x4a(sp)
   12e98: 03 46 c1 04  	lbu	a2, 0x4c(sp)
   12e9c: 83 46 d1 04  	lbu	a3, 0x4d(sp)
   12ea0: 1b 15 85 00  	slliw	a0, a0, 0x8
   12ea4: 33 65 b5 00  	or	a0, a0, a1
   12ea8: 9b 15 06 01  	slliw	a1, a2, 0x10
   12eac: 1b 96 86 01  	slliw	a2, a3, 0x18
   12eb0: b3 e5 c5 00  	or	a1, a1, a2
   12eb4: 33 65 b5 00  	or	a0, a0, a1
   12eb8: 23 38 a1 02  	sd	a0, 0x30(sp)
   12ebc: 03 45 f1 04  	lbu	a0, 0x4f(sp)
   12ec0: 83 45 e1 04  	lbu	a1, 0x4e(sp)
   12ec4: 03 46 11 05  	lbu	a2, 0x51(sp)
   12ec8: 83 46 01 05  	lbu	a3, 0x50(sp)
   12ecc: 13 15 85 00  	slli	a0, a0, 0x8
   12ed0: b3 6a b5 00  	or	s5, a0, a1
   12ed4: 13 15 86 00  	slli	a0, a2, 0x8
   12ed8: 33 65 d5 00  	or	a0, a0, a3
   12edc: 83 45 31 05  	lbu	a1, 0x53(sp)
   12ee0: 03 46 21 05  	lbu	a2, 0x52(sp)
   12ee4: 83 46 41 05  	lbu	a3, 0x54(sp)
   12ee8: 23 a8 a4 04  	sw	a0, 0x50(s1)
   12eec: 93 95 85 00  	slli	a1, a1, 0x8
   12ef0: b3 e5 c5 00  	or	a1, a1, a2
   12ef4: 93 96 06 01  	slli	a3, a3, 0x10
   12ef8: 03 4c 51 05  	lbu	s8, 0x55(sp)
   12efc: 03 46 b1 05  	lbu	a2, 0x5b(sp)
   12f00: 03 47 a1 05  	lbu	a4, 0x5a(sp)
   12f04: 33 ea d5 00  	or	s4, a1, a3
   12f08: 13 19 8c 01  	slli	s2, s8, 0x18
   12f0c: 13 16 86 00  	slli	a2, a2, 0x8
   12f10: b3 6c e6 00  	or	s9, a2, a4
   12f14: 83 49 c1 05  	lbu	s3, 0x5c(sp)
   12f18: 03 4d d1 05  	lbu	s10, 0x5d(sp)
   12f1c: 83 46 e1 05  	lbu	a3, 0x5e(sp)
   12f20: 03 48 f1 05  	lbu	a6, 0x5f(sp)
   12f24: 03 47 01 06  	lbu	a4, 0x60(sp)
   12f28: 83 47 11 06  	lbu	a5, 0x61(sp)
   12f2c: 83 4d 21 06  	lbu	s11, 0x62(sp)
   12f30: 83 4b 31 06  	lbu	s7, 0x63(sp)
   12f34: 83 48 41 06  	lbu	a7, 0x64(sp)
   12f38: 03 4b 51 06  	lbu	s6, 0x65(sp)
   12f3c: 83 35 04 00  	ld	a1, 0x0(s0)
   12f40: 93 99 09 01  	slli	s3, s3, 0x10
   12f44: 13 06 80 01  	addi	a2, zero, 0x18
   12f48: 93 9b 8b 00  	slli	s7, s7, 0x8
   12f4c: 23 3c d1 00  	sd	a3, 0x18(sp)
   12f50: 23 38 e1 00  	sd	a4, 0x10(sp)
   12f54: 23 34 f1 00  	sd	a5, 0x8(sp)
   12f58: 23 30 01 01  	sd	a6, 0x0(sp)
   12f5c: 23 30 31 03  	sd	s3, 0x20(sp)
   12f60: 93 89 08 00  	addi	s3, a7, 0x0
   12f64: 63 06 c5 06  	beq	a0, a2, 0x12fd0 <start_input_bmp+0x36c>
   12f68: 13 06 80 00  	addi	a2, zero, 0x8
   12f6c: 63 1c c5 08  	bne	a0, a2, 0x13004 <start_input_bmp+0x3a0>
   12f70: 03 35 81 03  	ld	a0, 0x38(sp)
   12f74: 23 a6 a5 02  	sw	a0, 0x2c(a1)
   12f78: 03 35 04 00  	ld	a0, 0x0(s0)
   12f7c: 13 06 10 3f  	addi	a2, zero, 0x3f1
   12f80: 23 a4 c5 02  	sw	a2, 0x28(a1)
   12f84: 83 35 01 03  	ld	a1, 0x30(sp)
   12f88: 23 28 b5 02  	sw	a1, 0x30(a0)
   12f8c: 03 35 04 00  	ld	a0, 0x0(s0)
   12f90: 03 36 85 00  	ld	a2, 0x8(a0)
   12f94: 93 05 10 00  	addi	a1, zero, 0x1
   12f98: 13 05 04 00  	addi	a0, s0, 0x0
   12f9c: e7 00 06 00  	jalr	ra, 0x0(a2)
   12fa0: 13 0c 40 00  	addi	s8, zero, 0x4
   12fa4: 6f 00 80 07  	jal	zero, 0x1301c <start_input_bmp+0x3b8>
   12fa8: 03 35 04 00  	ld	a0, 0x0(s0)
   12fac: 83 35 05 00  	ld	a1, 0x0(a0)
   12fb0: 13 06 b0 3e  	addi	a2, zero, 0x3eb
   12fb4: 23 24 c5 02  	sw	a2, 0x28(a0)
   12fb8: 13 05 04 00  	addi	a0, s0, 0x0
   12fbc: e7 80 05 00  	jalr	ra, 0x0(a1)
   12fc0: 93 0b 00 00  	addi	s7, zero, 0x0
   12fc4: 93 0d 00 00  	addi	s11, zero, 0x0
   12fc8: 13 0c 2c ff  	addi	s8, s8, -0xe
   12fcc: 6f 00 80 3a  	jal	zero, 0x13374 <start_input_bmp+0x710>
   12fd0: 03 35 81 03  	ld	a0, 0x38(sp)
   12fd4: 23 a6 a5 02  	sw	a0, 0x2c(a1)
   12fd8: 03 35 04 00  	ld	a0, 0x0(s0)
   12fdc: 13 06 00 3f  	addi	a2, zero, 0x3f0
   12fe0: 23 a4 c5 02  	sw	a2, 0x28(a1)
   12fe4: 83 35 01 03  	ld	a1, 0x30(sp)
   12fe8: 23 28 b5 02  	sw	a1, 0x30(a0)
   12fec: 03 35 04 00  	ld	a0, 0x0(s0)
   12ff0: 03 36 85 00  	ld	a2, 0x8(a0)
   12ff4: 93 05 10 00  	addi	a1, zero, 0x1
   12ff8: 13 05 04 00  	addi	a0, s0, 0x0
   12ffc: e7 00 06 00  	jalr	ra, 0x0(a2)
   13000: 6f 00 80 01  	jal	zero, 0x13018 <start_input_bmp+0x3b4>
   13004: 03 b6 05 00  	ld	a2, 0x0(a1)
   13008: 13 05 a0 3e  	addi	a0, zero, 0x3ea
   1300c: 23 a4 a5 02  	sw	a0, 0x28(a1)
   13010: 13 05 04 00  	addi	a0, s0, 0x0
   13014: e7 00 06 00  	jalr	ra, 0x0(a2)
   13018: 13 0c 00 00  	addi	s8, zero, 0x0
   1301c: b3 eb bb 01  	or	s7, s7, s11
   13020: 93 9d 09 01  	slli	s11, s3, 0x10
   13024: 03 35 01 02  	ld	a0, 0x20(sp)
   13028: b3 e9 ac 00  	or	s3, s9, a0
   1302c: 93 1c 8d 01  	slli	s9, s10, 0x18
   13030: 13 05 10 00  	addi	a0, zero, 0x1
   13034: 33 69 2a 01  	or	s2, s4, s2
   13038: 63 8e aa 00  	beq	s5, a0, 0x13054 <start_input_bmp+0x3f0>
   1303c: 03 35 04 00  	ld	a0, 0x0(s0)
   13040: 83 35 05 00  	ld	a1, 0x0(a0)
   13044: 13 06 c0 3e  	addi	a2, zero, 0x3ec
   13048: 23 24 c5 02  	sw	a2, 0x28(a0)
   1304c: 13 05 04 00  	addi	a0, s0, 0x0
   13050: e7 80 05 00  	jalr	ra, 0x0(a1)
   13054: 33 ea bb 01  	or	s4, s7, s11
   13058: 13 1b 8b 01  	slli	s6, s6, 0x18
   1305c: b3 ea 99 01  	or	s5, s3, s9
   13060: 63 0e 09 00  	beq	s2, zero, 0x1307c <start_input_bmp+0x418>
   13064: 03 35 04 00  	ld	a0, 0x0(s0)
   13068: 83 35 05 00  	ld	a1, 0x0(a0)
   1306c: 13 06 e0 3e  	addi	a2, zero, 0x3ee
   13070: 23 24 c5 02  	sw	a2, 0x28(a0)
   13074: 13 05 04 00  	addi	a0, s0, 0x0
   13078: e7 80 05 00  	jalr	ra, 0x0(a1)
   1307c: 33 6a 6a 01  	or	s4, s4, s6
   13080: 83 3b 81 03  	ld	s7, 0x38(sp)
   13084: 83 3d 01 03  	ld	s11, 0x30(sp)
   13088: 93 09 0c 00  	addi	s3, s8, 0x0
   1308c: 63 8c 0a 04  	beq	s5, zero, 0x130e4 <start_input_bmp+0x480>
   13090: 03 35 01 00  	ld	a0, 0x0(sp)
   13094: 13 15 85 00  	slli	a0, a0, 0x8
   13098: 83 35 81 01  	ld	a1, 0x18(sp)
   1309c: 33 65 b5 00  	or	a0, a0, a1
   130a0: 83 35 01 01  	ld	a1, 0x10(sp)
   130a4: 93 95 05 01  	slli	a1, a1, 0x10
   130a8: 03 36 81 00  	ld	a2, 0x8(sp)
   130ac: 13 16 86 01  	slli	a2, a2, 0x18
   130b0: b3 e5 c5 00  	or	a1, a1, a2
   130b4: 33 6b b5 00  	or	s6, a0, a1
   130b8: 63 06 0b 02  	beq	s6, zero, 0x130e4 <start_input_bmp+0x480>
   130bc: 93 05 40 06  	addi	a1, zero, 0x64
   130c0: 13 85 0a 00  	addi	a0, s5, 0x0
   130c4: ef e0 91 0b  	jal	ra, 0x3197c <__udivdi3>
   130c8: 23 1f a4 10  	sh	a0, 0x11e(s0)
   130cc: 93 05 40 06  	addi	a1, zero, 0x64
   130d0: 13 05 0b 00  	addi	a0, s6, 0x0
   130d4: ef e0 91 0a  	jal	ra, 0x3197c <__udivdi3>
   130d8: 23 10 a4 12  	sh	a0, 0x120(s0)
   130dc: 13 05 20 00  	addi	a0, zero, 0x2
   130e0: 23 0e a4 10  	sb	a0, 0x11c(s0)
   130e4: 03 3c 81 02  	ld	s8, 0x28(sp)
   130e8: 6f 00 c0 06  	jal	zero, 0x13154 <start_input_bmp+0x4f0>
   130ec: 23 26 75 03  	sw	s7, 0x2c(a0)
   130f0: 83 35 04 00  	ld	a1, 0x0(s0)
   130f4: 13 06 20 3f  	addi	a2, zero, 0x3f2
   130f8: 23 24 c5 02  	sw	a2, 0x28(a0)
   130fc: 23 a8 b5 03  	sw	s11, 0x30(a1)
   13100: 03 35 04 00  	ld	a0, 0x0(s0)
   13104: 03 36 85 00  	ld	a2, 0x8(a0)
   13108: 93 05 10 00  	addi	a1, zero, 0x1
   1310c: 13 05 04 00  	addi	a0, s0, 0x0
   13110: e7 00 06 00  	jalr	ra, 0x0(a2)
   13114: 6f 00 80 01  	jal	zero, 0x1312c <start_input_bmp+0x4c8>
   13118: 83 35 05 00  	ld	a1, 0x0(a0)
   1311c: 13 06 a0 3e  	addi	a2, zero, 0x3ea
   13120: 23 24 c5 02  	sw	a2, 0x28(a0)
   13124: 13 05 04 00  	addi	a0, s0, 0x0
   13128: e7 80 05 00  	jalr	ra, 0x0(a1)
   1312c: 93 09 00 00  	addi	s3, zero, 0x0
   13130: 13 05 10 00  	addi	a0, zero, 0x1
   13134: 63 0e a9 00  	beq	s2, a0, 0x13150 <start_input_bmp+0x4ec>
   13138: 03 35 04 00  	ld	a0, 0x0(s0)
   1313c: 83 35 05 00  	ld	a1, 0x0(a0)
   13140: 13 06 c0 3e  	addi	a2, zero, 0x3ec
   13144: 23 24 c5 02  	sw	a2, 0x28(a0)
   13148: 13 05 04 00  	addi	a0, s0, 0x0
   1314c: e7 80 05 00  	jalr	ra, 0x0(a1)
   13150: 13 0a 00 00  	addi	s4, zero, 0x0
   13154: 13 0c 2c ff  	addi	s8, s8, -0xe
   13158: 63 8e 09 20  	beq	s3, zero, 0x13374 <start_input_bmp+0x710>
   1315c: 63 04 0a 02  	beq	s4, zero, 0x13184 <start_input_bmp+0x520>
   13160: 13 05 10 10  	addi	a0, zero, 0x101
   13164: 63 62 aa 02  	bltu	s4, a0, 0x13188 <start_input_bmp+0x524>
   13168: 03 35 04 00  	ld	a0, 0x0(s0)
   1316c: 83 35 05 00  	ld	a1, 0x0(a0)
   13170: 13 06 90 3e  	addi	a2, zero, 0x3e9
   13174: 23 24 c5 02  	sw	a2, 0x28(a0)
   13178: 13 05 04 00  	addi	a0, s0, 0x0
   1317c: e7 80 05 00  	jalr	ra, 0x0(a1)
   13180: 6f 00 80 00  	jal	zero, 0x13188 <start_input_bmp+0x524>
   13184: 13 0a 00 10  	addi	s4, zero, 0x100
   13188: 03 35 84 00  	ld	a0, 0x8(s0)
   1318c: 03 37 05 01  	ld	a4, 0x10(a0)
   13190: 9b 0a 0a 00  	addiw	s5, s4, 0x0
   13194: 93 05 10 00  	addi	a1, zero, 0x1
   13198: 93 06 30 00  	addi	a3, zero, 0x3
   1319c: 13 09 30 00  	addi	s2, zero, 0x3
   131a0: 13 05 04 00  	addi	a0, s0, 0x0
   131a4: 13 86 0a 00  	addi	a2, s5, 0x0
   131a8: e7 00 07 00  	jalr	ra, 0x0(a4)
   131ac: 23 bc a4 02  	sd	a0, 0x38(s1)
   131b0: 63 82 29 0f  	beq	s3, s2, 0x13294 <start_input_bmp+0x630>
   131b4: 13 05 40 00  	addi	a0, zero, 0x4
   131b8: 63 9a a9 18  	bne	s3, a0, 0x1334c <start_input_bmp+0x6e8>
   131bc: 63 54 50 1b  	bge	zero, s5, 0x13364 <start_input_bmp+0x700>
   131c0: 13 0b 00 00  	addi	s6, zero, 0x0
   131c4: 93 0c f0 ff  	addi	s9, zero, -0x1
   131c8: 13 0d a0 02  	addi	s10, zero, 0x2a
   131cc: 03 b5 84 01  	ld	a0, 0x18(s1)
   131d0: ef b0 30 0d  	jal	ra, 0x1eaa2 <getc>
   131d4: 93 0a 05 00  	addi	s5, a0, 0x0
   131d8: 63 1c 95 01  	bne	a0, s9, 0x131f0 <start_input_bmp+0x58c>
   131dc: 03 b5 04 03  	ld	a0, 0x30(s1)
   131e0: 83 35 05 00  	ld	a1, 0x0(a0)
   131e4: 03 b6 05 00  	ld	a2, 0x0(a1)
   131e8: 23 a4 a5 03  	sw	s10, 0x28(a1)
   131ec: e7 00 06 00  	jalr	ra, 0x0(a2)
   131f0: 03 b5 84 03  	ld	a0, 0x38(s1)
   131f4: 03 35 05 01  	ld	a0, 0x10(a0)
   131f8: 33 05 65 01  	add	a0, a0, s6
   131fc: 23 00 55 01  	sb	s5, 0x0(a0)
   13200: 03 b5 84 01  	ld	a0, 0x18(s1)
   13204: ef b0 f0 09  	jal	ra, 0x1eaa2 <getc>
   13208: 93 0a 05 00  	addi	s5, a0, 0x0
   1320c: 63 1c 95 01  	bne	a0, s9, 0x13224 <start_input_bmp+0x5c0>
   13210: 03 b5 04 03  	ld	a0, 0x30(s1)
   13214: 83 35 05 00  	ld	a1, 0x0(a0)
   13218: 03 b6 05 00  	ld	a2, 0x0(a1)
   1321c: 23 a4 a5 03  	sw	s10, 0x28(a1)
   13220: e7 00 06 00  	jalr	ra, 0x0(a2)
   13224: 03 b5 84 03  	ld	a0, 0x38(s1)
   13228: 03 35 85 00  	ld	a0, 0x8(a0)
   1322c: 33 05 65 01  	add	a0, a0, s6
   13230: 23 00 55 01  	sb	s5, 0x0(a0)
   13234: 03 b5 84 01  	ld	a0, 0x18(s1)
   13238: ef b0 b0 06  	jal	ra, 0x1eaa2 <getc>
   1323c: 93 0a 05 00  	addi	s5, a0, 0x0
   13240: 63 1c 95 01  	bne	a0, s9, 0x13258 <start_input_bmp+0x5f4>
   13244: 03 b5 04 03  	ld	a0, 0x30(s1)
   13248: 83 35 05 00  	ld	a1, 0x0(a0)
   1324c: 03 b6 05 00  	ld	a2, 0x0(a1)
   13250: 23 a4 a5 03  	sw	s10, 0x28(a1)
   13254: e7 00 06 00  	jalr	ra, 0x0(a2)
   13258: 03 b5 84 03  	ld	a0, 0x38(s1)
   1325c: 03 35 05 00  	ld	a0, 0x0(a0)
   13260: 33 05 65 01  	add	a0, a0, s6
   13264: 23 00 55 01  	sb	s5, 0x0(a0)
   13268: 03 b5 84 01  	ld	a0, 0x18(s1)
   1326c: ef b0 70 03  	jal	ra, 0x1eaa2 <getc>
   13270: 63 1c 95 01  	bne	a0, s9, 0x13288 <start_input_bmp+0x624>
   13274: 03 b5 04 03  	ld	a0, 0x30(s1)
   13278: 83 35 05 00  	ld	a1, 0x0(a0)
   1327c: 03 b6 05 00  	ld	a2, 0x0(a1)
   13280: 23 a4 a5 03  	sw	s10, 0x28(a1)
   13284: e7 00 06 00  	jalr	ra, 0x0(a2)
   13288: 13 0b 1b 00  	addi	s6, s6, 0x1
   1328c: e3 10 6a f5  	bne	s4, s6, 0x131cc <start_input_bmp+0x568>
   13290: 6f 00 40 0d  	jal	zero, 0x13364 <start_input_bmp+0x700>
   13294: 63 58 50 0d  	bge	zero, s5, 0x13364 <start_input_bmp+0x700>
   13298: 13 09 00 00  	addi	s2, zero, 0x0
   1329c: 13 0b f0 ff  	addi	s6, zero, -0x1
   132a0: 93 0c a0 02  	addi	s9, zero, 0x2a
   132a4: 03 b5 84 01  	ld	a0, 0x18(s1)
   132a8: ef b0 a0 7f  	jal	ra, 0x1eaa2 <getc>
   132ac: 93 0a 05 00  	addi	s5, a0, 0x0
   132b0: 63 1c 65 01  	bne	a0, s6, 0x132c8 <start_input_bmp+0x664>
   132b4: 03 b5 04 03  	ld	a0, 0x30(s1)
   132b8: 83 35 05 00  	ld	a1, 0x0(a0)
   132bc: 03 b6 05 00  	ld	a2, 0x0(a1)
   132c0: 23 a4 95 03  	sw	s9, 0x28(a1)
   132c4: e7 00 06 00  	jalr	ra, 0x0(a2)
   132c8: 03 b5 84 03  	ld	a0, 0x38(s1)
   132cc: 03 35 05 01  	ld	a0, 0x10(a0)
   132d0: 33 05 25 01  	add	a0, a0, s2
   132d4: 23 00 55 01  	sb	s5, 0x0(a0)
   132d8: 03 b5 84 01  	ld	a0, 0x18(s1)
   132dc: ef b0 60 7c  	jal	ra, 0x1eaa2 <getc>
   132e0: 93 0a 05 00  	addi	s5, a0, 0x0
   132e4: 63 1c 65 01  	bne	a0, s6, 0x132fc <start_input_bmp+0x698>
   132e8: 03 b5 04 03  	ld	a0, 0x30(s1)
   132ec: 83 35 05 00  	ld	a1, 0x0(a0)
   132f0: 03 b6 05 00  	ld	a2, 0x0(a1)
   132f4: 23 a4 95 03  	sw	s9, 0x28(a1)
   132f8: e7 00 06 00  	jalr	ra, 0x0(a2)
   132fc: 03 b5 84 03  	ld	a0, 0x38(s1)
   13300: 03 35 85 00  	ld	a0, 0x8(a0)
   13304: 33 05 25 01  	add	a0, a0, s2
   13308: 23 00 55 01  	sb	s5, 0x0(a0)
   1330c: 03 b5 84 01  	ld	a0, 0x18(s1)
   13310: ef b0 20 79  	jal	ra, 0x1eaa2 <getc>
   13314: 93 0a 05 00  	addi	s5, a0, 0x0
   13318: 63 1c 65 01  	bne	a0, s6, 0x13330 <start_input_bmp+0x6cc>
   1331c: 03 b5 04 03  	ld	a0, 0x30(s1)
   13320: 83 35 05 00  	ld	a1, 0x0(a0)
   13324: 03 b6 05 00  	ld	a2, 0x0(a1)
   13328: 23 a4 95 03  	sw	s9, 0x28(a1)
   1332c: e7 00 06 00  	jalr	ra, 0x0(a2)
   13330: 03 b5 84 03  	ld	a0, 0x38(s1)
   13334: 03 35 05 00  	ld	a0, 0x0(a0)
   13338: 33 05 25 01  	add	a0, a0, s2
   1333c: 13 09 19 00  	addi	s2, s2, 0x1
   13340: 23 00 55 01  	sb	s5, 0x0(a0)
   13344: e3 10 2a f7  	bne	s4, s2, 0x132a4 <start_input_bmp+0x640>
   13348: 6f 00 c0 01  	jal	zero, 0x13364 <start_input_bmp+0x700>
   1334c: 03 b5 04 03  	ld	a0, 0x30(s1)
   13350: 83 35 05 00  	ld	a1, 0x0(a0)
   13354: 03 b6 05 00  	ld	a2, 0x0(a1)
   13358: 93 06 90 3e  	addi	a3, zero, 0x3e9
   1335c: 23 a4 d5 02  	sw	a3, 0x28(a1)
   13360: e7 00 06 00  	jalr	ra, 0x0(a2)
   13364: 13 05 0a 00  	addi	a0, s4, 0x0
   13368: 93 85 09 00  	addi	a1, s3, 0x0
   1336c: ef e0 81 5c  	jal	ra, 0x31934 <__muldi3>
   13370: 33 0c ac 40  	sub	s8, s8, a0
   13374: 63 42 0c 04  	blt	s8, zero, 0x133b8 <start_input_bmp+0x754>
   13378: 63 0c 0c 04  	beq	s8, zero, 0x133d0 <start_input_bmp+0x76c>
   1337c: 13 0c 1c 00  	addi	s8, s8, 0x1
   13380: 13 09 f0 ff  	addi	s2, zero, -0x1
   13384: 93 09 a0 02  	addi	s3, zero, 0x2a
   13388: 13 0a 10 00  	addi	s4, zero, 0x1
   1338c: 03 b5 84 01  	ld	a0, 0x18(s1)
   13390: ef b0 20 71  	jal	ra, 0x1eaa2 <getc>
   13394: 63 1c 25 01  	bne	a0, s2, 0x133ac <start_input_bmp+0x748>
   13398: 03 b5 04 03  	ld	a0, 0x30(s1)
   1339c: 83 35 05 00  	ld	a1, 0x0(a0)
   133a0: 03 b6 05 00  	ld	a2, 0x0(a1)
   133a4: 23 a4 35 03  	sw	s3, 0x28(a1)
   133a8: e7 00 06 00  	jalr	ra, 0x0(a2)
   133ac: 13 0c fc ff  	addi	s8, s8, -0x1
   133b0: e3 6e 8a fd  	bltu	s4, s8, 0x1338c <start_input_bmp+0x728>
   133b4: 6f 00 c0 01  	jal	zero, 0x133d0 <start_input_bmp+0x76c>
   133b8: 03 35 04 00  	ld	a0, 0x0(s0)
   133bc: 83 35 05 00  	ld	a1, 0x0(a0)
   133c0: 13 06 b0 3e  	addi	a2, zero, 0x3eb
   133c4: 23 24 c5 02  	sw	a2, 0x28(a0)
   133c8: 13 05 04 00  	addi	a0, s0, 0x0
   133cc: e7 80 05 00  	jalr	ra, 0x0(a1)
   133d0: 83 a5 04 05  	lw	a1, 0x50(s1)
   133d4: 13 95 1b 00  	slli	a0, s7, 0x1
   133d8: bb 09 75 01  	addw	s3, a0, s7
   133dc: 13 06 80 01  	addi	a2, zero, 0x18
   133e0: 13 85 09 00  	addi	a0, s3, 0x0
   133e4: 63 84 c5 00  	beq	a1, a2, 0x133ec <start_input_bmp+0x788>
   133e8: 13 85 0b 00  	addi	a0, s7, 0x0
   133ec: 83 35 84 00  	ld	a1, 0x8(s0)
   133f0: 3b 06 a0 40  	subw	a2, zero, a0
   133f4: 03 b8 05 02  	ld	a6, 0x20(a1)
   133f8: 13 76 36 00  	andi	a2, a2, 0x3
   133fc: bb 06 c5 00  	addw	a3, a0, a2
   13400: 23 a6 d4 04  	sw	a3, 0x4c(s1)
   13404: 93 05 10 00  	addi	a1, zero, 0x1
   13408: 93 07 10 00  	addi	a5, zero, 0x1
   1340c: 13 09 10 00  	addi	s2, zero, 0x1
   13410: 13 05 04 00  	addi	a0, s0, 0x0
   13414: 13 06 00 00  	addi	a2, zero, 0x0
   13418: 13 87 0d 00  	addi	a4, s11, 0x0
   1341c: e7 00 08 00  	jalr	ra, 0x0(a6)
   13420: 83 35 04 01  	ld	a1, 0x10(s0)
   13424: 23 b0 a4 04  	sd	a0, 0x40(s1)
   13428: 37 35 01 00  	lui	a0, 0x13
   1342c: 13 05 05 49  	addi	a0, a0, 0x490
   13430: 23 b4 a4 00  	sd	a0, 0x8(s1)
   13434: 63 88 05 00  	beq	a1, zero, 0x13444 <start_input_bmp+0x7e0>
   13438: 03 a5 45 02  	lw	a0, 0x24(a1)
   1343c: 13 05 15 00  	addi	a0, a0, 0x1
   13440: 23 a2 a5 02  	sw	a0, 0x24(a1)
   13444: 03 35 84 00  	ld	a0, 0x8(s0)
   13448: 03 37 05 01  	ld	a4, 0x10(a0)
   1344c: 93 05 10 00  	addi	a1, zero, 0x1
   13450: 93 06 10 00  	addi	a3, zero, 0x1
   13454: 13 05 04 00  	addi	a0, s0, 0x0
   13458: 13 86 09 00  	addi	a2, s3, 0x0
   1345c: e7 00 07 00  	jalr	ra, 0x0(a4)
   13460: 23 b0 a4 02  	sd	a0, 0x20(s1)
   13464: 23 a4 24 03  	sw	s2, 0x28(s1)
   13468: 13 19 19 02  	slli	s2, s2, 0x21
   1346c: 13 09 39 00  	addi	s2, s2, 0x3
   13470: 23 38 24 03  	sd	s2, 0x30(s0)
   13474: 13 05 80 00  	addi	a0, zero, 0x8
   13478: 23 20 a4 04  	sw	a0, 0x40(s0)
   1347c: 23 24 74 03  	sw	s7, 0x28(s0)
   13480: 23 26 b4 03  	sw	s11, 0x2c(s0)
   13484: 13 01 01 09  	addi	sp, sp, 0x90
   13488: 6f e0 01 48  	jal	zero, 0x31908 <__riscv_restore_12>

000000000001348c <finish_input_bmp>:
   1348c: 67 80 00 00  	jalr	zero, 0x0(ra)

0000000000013490 <preload_image>:
   13490: 13 01 01 fa  	addi	sp, sp, -0x60
   13494: 23 3c 11 04  	sd	ra, 0x58(sp)
   13498: 23 38 81 04  	sd	s0, 0x50(sp)
   1349c: 23 34 91 04  	sd	s1, 0x48(sp)
   134a0: 23 30 21 05  	sd	s2, 0x40(sp)
   134a4: 23 3c 31 03  	sd	s3, 0x38(sp)
   134a8: 23 38 41 03  	sd	s4, 0x30(sp)
   134ac: 23 34 51 03  	sd	s5, 0x28(sp)
   134b0: 23 30 61 03  	sd	s6, 0x20(sp)
   134b4: 23 3c 71 01  	sd	s7, 0x18(sp)
   134b8: 23 38 81 01  	sd	s8, 0x10(sp)
   134bc: 23 34 91 01  	sd	s9, 0x8(sp)
   134c0: 13 04 05 00  	addi	s0, a0, 0x0
   134c4: 03 25 c5 02  	lw	a0, 0x2c(a0)
   134c8: 03 3a 04 01  	ld	s4, 0x10(s0)
   134cc: 93 84 05 00  	addi	s1, a1, 0x0
   134d0: 63 0a 05 0a  	beq	a0, zero, 0x13584 <preload_image+0xf4>
   134d4: 03 b9 84 01  	ld	s2, 0x18(s1)
   134d8: 93 0a 00 00  	addi	s5, zero, 0x0
   134dc: 13 0b f0 ff  	addi	s6, zero, -0x1
   134e0: 93 0b a0 02  	addi	s7, zero, 0x2a
   134e4: 63 00 0a 02  	beq	s4, zero, 0x13504 <preload_image+0x74>
   134e8: 13 15 05 02  	slli	a0, a0, 0x20
   134ec: 83 35 0a 00  	ld	a1, 0x0(s4)
   134f0: 13 55 05 02  	srli	a0, a0, 0x20
   134f4: 23 38 aa 00  	sd	a0, 0x10(s4)
   134f8: 23 34 5a 01  	sd	s5, 0x8(s4)
   134fc: 13 05 04 00  	addi	a0, s0, 0x0
   13500: e7 80 05 00  	jalr	ra, 0x0(a1)
   13504: 03 35 84 00  	ld	a0, 0x8(s0)
   13508: 83 37 85 03  	ld	a5, 0x38(a0)
   1350c: 83 b5 04 04  	ld	a1, 0x40(s1)
   13510: 1b 86 0a 00  	addiw	a2, s5, 0x0
   13514: 93 06 10 00  	addi	a3, zero, 0x1
   13518: 13 07 10 00  	addi	a4, zero, 0x1
   1351c: 13 05 04 00  	addi	a0, s0, 0x0
   13520: e7 80 07 00  	jalr	ra, 0x0(a5)
   13524: 83 a5 c4 04  	lw	a1, 0x4c(s1)
   13528: 63 88 05 04  	beq	a1, zero, 0x13578 <preload_image+0xe8>
   1352c: 03 3c 05 00  	ld	s8, 0x0(a0)
   13530: 93 85 f5 ff  	addi	a1, a1, -0x1
   13534: 93 95 05 02  	slli	a1, a1, 0x20
   13538: 93 d5 05 02  	srli	a1, a1, 0x20
   1353c: b3 05 bc 00  	add	a1, s8, a1
   13540: 93 8c 15 00  	addi	s9, a1, 0x1
   13544: 13 05 09 00  	addi	a0, s2, 0x0
   13548: ef b0 a0 55  	jal	ra, 0x1eaa2 <getc>
   1354c: 93 09 05 00  	addi	s3, a0, 0x0
   13550: 63 1c 65 01  	bne	a0, s6, 0x13568 <preload_image+0xd8>
   13554: 03 35 04 00  	ld	a0, 0x0(s0)
   13558: 83 35 05 00  	ld	a1, 0x0(a0)
   1355c: 23 24 75 03  	sw	s7, 0x28(a0)
   13560: 13 05 04 00  	addi	a0, s0, 0x0
   13564: e7 80 05 00  	jalr	ra, 0x0(a1)
   13568: 13 05 1c 00  	addi	a0, s8, 0x1
   1356c: 23 00 3c 01  	sb	s3, 0x0(s8)
   13570: 13 0c 05 00  	addi	s8, a0, 0x0
   13574: e3 18 95 fd  	bne	a0, s9, 0x13544 <preload_image+0xb4>
   13578: 03 65 c4 02  	lwu	a0, 0x2c(s0)
   1357c: 93 8a 1a 00  	addi	s5, s5, 0x1
   13580: e3 e2 aa f6  	bltu	s5, a0, 0x134e4 <preload_image+0x54>
   13584: 63 08 0a 00  	beq	s4, zero, 0x13594 <preload_image+0x104>
   13588: 83 25 0a 02  	lw	a1, 0x20(s4)
   1358c: 93 85 15 00  	addi	a1, a1, 0x1
   13590: 23 20 ba 02  	sw	a1, 0x20(s4)
   13594: 83 a5 04 05  	lw	a1, 0x50(s1)
   13598: 13 06 80 01  	addi	a2, zero, 0x18
   1359c: 63 8c c5 00  	beq	a1, a2, 0x135b4 <preload_image+0x124>
   135a0: 13 06 80 00  	addi	a2, zero, 0x8
   135a4: 63 90 c5 02  	bne	a1, a2, 0x135c4 <preload_image+0x134>
   135a8: b7 35 01 00  	lui	a1, 0x13
   135ac: 13 83 45 62  	addi	t1, a1, 0x624
   135b0: 6f 00 c0 00  	jal	zero, 0x135bc <preload_image+0x12c>
   135b4: b7 35 01 00  	lui	a1, 0x13
   135b8: 13 83 45 6d  	addi	t1, a1, 0x6d4
   135bc: 23 b4 64 00  	sd	t1, 0x8(s1)
   135c0: 6f 00 40 02  	jal	zero, 0x135e4 <preload_image+0x154>
   135c4: 03 35 04 00  	ld	a0, 0x0(s0)
   135c8: 83 35 05 00  	ld	a1, 0x0(a0)
   135cc: 13 06 a0 3e  	addi	a2, zero, 0x3ea
   135d0: 23 24 c5 02  	sw	a2, 0x28(a0)
   135d4: 13 05 04 00  	addi	a0, s0, 0x0
   135d8: e7 80 05 00  	jalr	ra, 0x0(a1)
   135dc: 03 25 c4 02  	lw	a0, 0x2c(s0)
   135e0: 03 b3 84 00  	ld	t1, 0x8(s1)
   135e4: 23 a4 a4 04  	sw	a0, 0x48(s1)
   135e8: 13 05 04 00  	addi	a0, s0, 0x0
   135ec: 93 85 04 00  	addi	a1, s1, 0x0
   135f0: 83 30 81 05  	ld	ra, 0x58(sp)
   135f4: 03 34 01 05  	ld	s0, 0x50(sp)
   135f8: 83 34 81 04  	ld	s1, 0x48(sp)
   135fc: 03 39 01 04  	ld	s2, 0x40(sp)
   13600: 83 39 81 03  	ld	s3, 0x38(sp)
   13604: 03 3a 01 03  	ld	s4, 0x30(sp)
   13608: 83 3a 81 02  	ld	s5, 0x28(sp)
   1360c: 03 3b 01 02  	ld	s6, 0x20(sp)
   13610: 83 3b 81 01  	ld	s7, 0x18(sp)
   13614: 03 3c 01 01  	ld	s8, 0x10(sp)
   13618: 83 3c 81 00  	ld	s9, 0x8(sp)
   1361c: 13 01 01 06  	addi	sp, sp, 0x60
   13620: 67 00 03 00  	jalr	zero, 0x0(t1)

0000000000013624 <get_8bit_row>:
   13624: ef e2 a1 2c  	jal	t0, 0x318ee <__riscv_save_3>
   13628: 93 04 05 00  	addi	s1, a0, 0x0
   1362c: 03 35 85 00  	ld	a0, 0x8(a0)
   13630: 13 84 05 00  	addi	s0, a1, 0x0
   13634: 03 b9 85 03  	ld	s2, 0x38(a1)
   13638: 03 a6 85 04  	lw	a2, 0x48(a1)
   1363c: 83 37 85 03  	ld	a5, 0x38(a0)
   13640: 83 b5 05 04  	ld	a1, 0x40(a1)
   13644: 1b 06 f6 ff  	addiw	a2, a2, -0x1
   13648: 23 24 c4 04  	sw	a2, 0x48(s0)
   1364c: 93 06 10 00  	addi	a3, zero, 0x1
   13650: 13 85 04 00  	addi	a0, s1, 0x0
   13654: 13 07 00 00  	addi	a4, zero, 0x0
   13658: e7 80 07 00  	jalr	ra, 0x0(a5)
   1365c: 03 a6 84 02  	lw	a2, 0x28(s1)
   13660: 63 06 06 06  	beq	a2, zero, 0x136cc <get_8bit_row+0xa8>
   13664: 83 35 04 02  	ld	a1, 0x20(s0)
   13668: 83 b5 05 00  	ld	a1, 0x0(a1)
   1366c: 03 35 05 00  	ld	a0, 0x0(a0)
   13670: 13 06 f6 ff  	addi	a2, a2, -0x1
   13674: 13 16 06 02  	slli	a2, a2, 0x20
   13678: 13 56 06 02  	srli	a2, a2, 0x20
   1367c: 33 06 a6 00  	add	a2, a2, a0
   13680: 13 06 16 00  	addi	a2, a2, 0x1
   13684: 83 46 05 00  	lbu	a3, 0x0(a0)
   13688: 03 37 09 00  	ld	a4, 0x0(s2)
   1368c: 33 07 d7 00  	add	a4, a4, a3
   13690: 03 47 07 00  	lbu	a4, 0x0(a4)
   13694: 23 80 e5 00  	sb	a4, 0x0(a1)
   13698: 03 37 89 00  	ld	a4, 0x8(s2)
   1369c: 33 07 d7 00  	add	a4, a4, a3
   136a0: 03 47 07 00  	lbu	a4, 0x0(a4)
   136a4: a3 80 e5 00  	sb	a4, 0x1(a1)
   136a8: 03 37 09 01  	ld	a4, 0x10(s2)
   136ac: b3 06 d7 00  	add	a3, a4, a3
   136b0: 83 c6 06 00  	lbu	a3, 0x0(a3)
   136b4: 13 07 15 00  	addi	a4, a0, 0x1
   136b8: 13 85 35 00  	addi	a0, a1, 0x3
   136bc: 23 81 d5 00  	sb	a3, 0x2(a1)
   136c0: 93 05 05 00  	addi	a1, a0, 0x0
   136c4: 13 05 07 00  	addi	a0, a4, 0x0
   136c8: e3 1e c7 fa  	bne	a4, a2, 0x13684 <get_8bit_row+0x60>
   136cc: 13 05 10 00  	addi	a0, zero, 0x1
   136d0: 6f e0 41 25  	jal	zero, 0x31924 <__riscv_restore_3>

00000000000136d4 <get_24bit_row>:
   136d4: ef e2 a1 21  	jal	t0, 0x318ee <__riscv_save_3>
   136d8: 93 04 05 00  	addi	s1, a0, 0x0
   136dc: 03 35 85 00  	ld	a0, 0x8(a0)
   136e0: 13 84 05 00  	addi	s0, a1, 0x0
   136e4: 03 a6 85 04  	lw	a2, 0x48(a1)
   136e8: 83 37 85 03  	ld	a5, 0x38(a0)
   136ec: 83 b5 05 04  	ld	a1, 0x40(a1)
   136f0: 1b 06 f6 ff  	addiw	a2, a2, -0x1
   136f4: 23 24 c4 04  	sw	a2, 0x48(s0)
   136f8: 93 06 10 00  	addi	a3, zero, 0x1
   136fc: 13 85 04 00  	addi	a0, s1, 0x0
   13700: 13 07 00 00  	addi	a4, zero, 0x0
   13704: e7 80 07 00  	jalr	ra, 0x0(a5)
   13708: 03 a6 84 02  	lw	a2, 0x28(s1)
   1370c: 63 0a 06 04  	beq	a2, zero, 0x13760 <get_24bit_row+0x8c>
   13710: 83 35 04 02  	ld	a1, 0x20(s0)
   13714: 83 b5 05 00  	ld	a1, 0x0(a1)
   13718: 03 35 05 00  	ld	a0, 0x0(a0)
   1371c: 93 85 25 00  	addi	a1, a1, 0x2
   13720: 13 06 f6 ff  	addi	a2, a2, -0x1
   13724: 13 16 06 02  	slli	a2, a2, 0x20
   13728: 93 56 06 02  	srli	a3, a2, 0x20
   1372c: 13 56 f6 01  	srli	a2, a2, 0x1f
   13730: 33 06 d6 00  	add	a2, a2, a3
   13734: 33 06 a6 00  	add	a2, a2, a0
   13738: 13 06 36 00  	addi	a2, a2, 0x3
   1373c: 83 46 05 00  	lbu	a3, 0x0(a0)
   13740: 23 80 d5 00  	sb	a3, 0x0(a1)
   13744: 83 46 15 00  	lbu	a3, 0x1(a0)
   13748: a3 8f d5 fe  	sb	a3, -0x1(a1)
   1374c: 83 46 25 00  	lbu	a3, 0x2(a0)
   13750: 23 8f d5 fe  	sb	a3, -0x2(a1)
   13754: 13 05 35 00  	addi	a0, a0, 0x3
   13758: 93 85 35 00  	addi	a1, a1, 0x3
   1375c: e3 10 c5 fe  	bne	a0, a2, 0x1373c <get_24bit_row+0x68>
   13760: 13 05 10 00  	addi	a0, zero, 0x1
   13764: 6f e0 01 1c  	jal	zero, 0x31924 <__riscv_restore_3>

0000000000013768 <read_quant_tables>:
   13768: ef e2 e1 15  	jal	t0, 0x318c6 <__riscv_save_11>
   1376c: 13 01 01 ef  	addi	sp, sp, -0x110
   13770: 13 89 06 00  	addi	s2, a3, 0x0
   13774: 93 09 06 00  	addi	s3, a2, 0x0
   13778: 13 84 05 00  	addi	s0, a1, 0x0
   1377c: 13 0a 05 00  	addi	s4, a0, 0x0
   13780: 37 35 03 00  	lui	a0, 0x33
   13784: 93 05 65 55  	addi	a1, a0, 0x556
   13788: 13 05 04 00  	addi	a0, s0, 0x0
   1378c: ef a0 10 72  	jal	ra, 0x1e6ac <fopen>
   13790: 63 08 05 0a  	beq	a0, zero, 0x13840 <read_quant_tables+0xd8>
   13794: 93 04 05 00  	addi	s1, a0, 0x0
   13798: 93 05 01 10  	addi	a1, sp, 0x100
   1379c: 13 06 c1 10  	addi	a2, sp, 0x10c
   137a0: ef 00 c0 10  	jal	ra, 0x138ac <read_text_integer>
   137a4: 63 0e 05 06  	beq	a0, zero, 0x13820 <read_quant_tables+0xb8>
   137a8: 93 0a 00 00  	addi	s5, zero, 0x0
   137ac: 13 0b 41 00  	addi	s6, sp, 0x4
   137b0: 93 0b 40 00  	addi	s7, zero, 0x4
   137b4: 63 82 7a 0f  	beq	s5, s7, 0x13898 <read_quant_tables+0x130>
   137b8: 03 35 01 10  	ld	a0, 0x100(sp)
   137bc: 23 20 a1 00  	sw	a0, 0x0(sp)
   137c0: 13 0c f0 03  	addi	s8, zero, 0x3f
   137c4: 93 0c 0b 00  	addi	s9, s6, 0x0
   137c8: 93 05 01 10  	addi	a1, sp, 0x100
   137cc: 13 06 c1 10  	addi	a2, sp, 0x10c
   137d0: 13 85 04 00  	addi	a0, s1, 0x0
   137d4: ef 00 80 0d  	jal	ra, 0x138ac <read_text_integer>
   137d8: 63 02 05 08  	beq	a0, zero, 0x1385c <read_quant_tables+0xf4>
   137dc: 03 35 01 10  	ld	a0, 0x100(sp)
   137e0: 23 a0 ac 00  	sw	a0, 0x0(s9)
   137e4: 13 0c fc ff  	addi	s8, s8, -0x1
   137e8: 93 8c 4c 00  	addi	s9, s9, 0x4
   137ec: e3 1e 0c fc  	bne	s8, zero, 0x137c8 <read_quant_tables+0x60>
   137f0: 13 06 01 00  	addi	a2, sp, 0x0
   137f4: 13 05 0a 00  	addi	a0, s4, 0x0
   137f8: 93 85 0a 00  	addi	a1, s5, 0x0
   137fc: 93 86 09 00  	addi	a3, s3, 0x0
   13800: 13 07 09 00  	addi	a4, s2, 0x0
   13804: ef 00 50 5c  	jal	ra, 0x145c8 <jpeg_add_quant_table>
   13808: 9b 8a 1a 00  	addiw	s5, s5, 0x1
   1380c: 93 05 01 10  	addi	a1, sp, 0x100
   13810: 13 06 c1 10  	addi	a2, sp, 0x10c
   13814: 13 85 04 00  	addi	a0, s1, 0x0
   13818: ef 00 40 09  	jal	ra, 0x138ac <read_text_integer>
   1381c: e3 1c 05 f8  	bne	a0, zero, 0x137b4 <read_quant_tables+0x4c>
   13820: 03 25 c1 10  	lw	a0, 0x10c(sp)
   13824: 93 05 f0 ff  	addi	a1, zero, -0x1
   13828: 63 00 b5 06  	beq	a0, a1, 0x13888 <read_quant_tables+0x120>
   1382c: 03 b5 01 20  	ld	a0, 0x200(gp)
   13830: 03 35 85 01  	ld	a0, 0x18(a0)
   13834: b7 25 03 00  	lui	a1, 0x32
   13838: 93 85 c5 59  	addi	a1, a1, 0x59c
   1383c: 6f 00 00 03  	jal	zero, 0x1386c <read_quant_tables+0x104>
   13840: 03 b5 01 20  	ld	a0, 0x200(gp)
   13844: 03 35 85 01  	ld	a0, 0x18(a0)
   13848: b7 25 03 00  	lui	a1, 0x32
   1384c: 93 85 75 54  	addi	a1, a1, 0x547
   13850: 13 06 04 00  	addi	a2, s0, 0x0
   13854: ef a0 70 68  	jal	ra, 0x1e6da <fprintf>
   13858: 6f 00 40 02  	jal	zero, 0x1387c <read_quant_tables+0x114>
   1385c: 03 b5 01 20  	ld	a0, 0x200(gp)
   13860: 03 35 85 01  	ld	a0, 0x18(a0)
   13864: b7 25 03 00  	lui	a1, 0x32
   13868: 93 85 d5 57  	addi	a1, a1, 0x57d
   1386c: 13 06 04 00  	addi	a2, s0, 0x0
   13870: ef a0 b0 66  	jal	ra, 0x1e6da <fprintf>
   13874: 13 85 04 00  	addi	a0, s1, 0x0
   13878: ef a0 50 0e  	jal	ra, 0x1e15c <fclose>
   1387c: 13 05 00 00  	addi	a0, zero, 0x0
   13880: 13 01 01 11  	addi	sp, sp, 0x110
   13884: 6f e0 81 08  	jal	zero, 0x3190c <__riscv_restore_11>
   13888: 13 85 04 00  	addi	a0, s1, 0x0
   1388c: ef a0 10 0d  	jal	ra, 0x1e15c <fclose>
   13890: 13 05 10 00  	addi	a0, zero, 0x1
   13894: 6f f0 df fe  	jal	zero, 0x13880 <read_quant_tables+0x118>
   13898: 03 b5 01 20  	ld	a0, 0x200(gp)
   1389c: 03 35 85 01  	ld	a0, 0x18(a0)
   138a0: b7 25 03 00  	lui	a1, 0x32
   138a4: 93 85 15 56  	addi	a1, a1, 0x561
   138a8: 6f f0 5f fc  	jal	zero, 0x1386c <read_quant_tables+0x104>

00000000000138ac <read_text_integer>:
   138ac: ef e2 e1 02  	jal	t0, 0x318da <__riscv_save_7>
   138b0: 13 04 06 00  	addi	s0, a2, 0x0
   138b4: 93 84 05 00  	addi	s1, a1, 0x0
   138b8: 13 09 05 00  	addi	s2, a0, 0x0
   138bc: 37 45 03 00  	lui	a0, 0x34
   138c0: 93 09 05 2a  	addi	s3, a0, 0x2a0
   138c4: 13 05 09 00  	addi	a0, s2, 0x0
   138c8: ef 00 40 62  	jal	ra, 0x13eec <text_getc>
   138cc: 13 06 f0 ff  	addi	a2, zero, -0x1
   138d0: 63 02 c5 02  	beq	a0, a2, 0x138f4 <read_text_integer+0x48>
   138d4: b3 85 a9 00  	add	a1, s3, a0
   138d8: 83 c5 15 00  	lbu	a1, 0x1(a1)
   138dc: 13 f6 85 00  	andi	a2, a1, 0x8
   138e0: e3 12 06 fe  	bne	a2, zero, 0x138c4 <read_text_integer+0x18>
   138e4: 93 f5 45 00  	andi	a1, a1, 0x4
   138e8: 63 9a 05 00  	bne	a1, zero, 0x138fc <read_text_integer+0x50>
   138ec: 13 06 05 00  	addi	a2, a0, 0x0
   138f0: 6f 00 40 07  	jal	zero, 0x13964 <read_text_integer+0xb8>
   138f4: 93 05 00 00  	addi	a1, zero, 0x0
   138f8: 6f 00 c0 06  	jal	zero, 0x13964 <read_text_integer+0xb8>
   138fc: 9b 09 05 fd  	addiw	s3, a0, -0x30
   13900: 13 05 09 00  	addi	a0, s2, 0x0
   13904: ef 00 80 5e  	jal	ra, 0x13eec <text_getc>
   13908: 13 06 f0 ff  	addi	a2, zero, -0x1
   1390c: 63 08 c5 04  	beq	a0, a2, 0x1395c <read_text_integer+0xb0>
   13910: 13 0a 05 00  	addi	s4, a0, 0x0
   13914: 37 45 03 00  	lui	a0, 0x34
   13918: 93 0a 05 2a  	addi	s5, a0, 0x2a0
   1391c: 33 85 4a 01  	add	a0, s5, s4
   13920: 03 45 15 00  	lbu	a0, 0x1(a0)
   13924: 13 75 45 00  	andi	a0, a0, 0x4
   13928: 63 08 05 02  	beq	a0, zero, 0x13958 <read_text_integer+0xac>
   1392c: 93 05 a0 00  	addi	a1, zero, 0xa
   13930: 13 85 09 00  	addi	a0, s3, 0x0
   13934: ef e0 01 00  	jal	ra, 0x31934 <__muldi3>
   13938: 9b 09 0a fd  	addiw	s3, s4, -0x30
   1393c: b3 09 35 01  	add	s3, a0, s3
   13940: 13 05 09 00  	addi	a0, s2, 0x0
   13944: ef 00 80 5a  	jal	ra, 0x13eec <text_getc>
   13948: 13 06 f0 ff  	addi	a2, zero, -0x1
   1394c: 13 0a 05 00  	addi	s4, a0, 0x0
   13950: e3 16 c5 fc  	bne	a0, a2, 0x1391c <read_text_integer+0x70>
   13954: 6f 00 80 00  	jal	zero, 0x1395c <read_text_integer+0xb0>
   13958: 13 06 0a 00  	addi	a2, s4, 0x0
   1395c: 23 b0 34 01  	sd	s3, 0x0(s1)
   13960: 93 05 10 00  	addi	a1, zero, 0x1
   13964: 23 20 c4 00  	sw	a2, 0x0(s0)
   13968: 13 85 05 00  	addi	a0, a1, 0x0
   1396c: 6f d0 d1 7a  	jal	zero, 0x31918 <__riscv_restore_7>

0000000000013970 <read_scan_script>:
   13970: ef d2 f1 74  	jal	t0, 0x318be <__riscv_save_12>
   13974: 13 01 01 80  	addi	sp, sp, -0x800
   13978: 13 01 01 9d  	addi	sp, sp, -0x630
   1397c: 93 84 05 00  	addi	s1, a1, 0x0
   13980: 13 09 05 00  	addi	s2, a0, 0x0
   13984: 37 35 03 00  	lui	a0, 0x33
   13988: 93 05 65 55  	addi	a1, a0, 0x556
   1398c: 13 85 04 00  	addi	a0, s1, 0x0
   13990: ef a0 d0 51  	jal	ra, 0x1e6ac <fopen>
   13994: 63 0a 05 1e  	beq	a0, zero, 0x13b88 <read_scan_script+0x218>
   13998: 13 04 05 00  	addi	s0, a0, 0x0
   1399c: 13 0a f1 7f  	addi	s4, sp, 0x7ff
   139a0: 13 0a 1a 62  	addi	s4, s4, 0x621
   139a4: 93 05 f1 7f  	addi	a1, sp, 0x7ff
   139a8: 93 85 15 62  	addi	a1, a1, 0x621
   139ac: 13 06 f1 7f  	addi	a2, sp, 0x7ff
   139b0: 13 06 d6 62  	addi	a2, a2, 0x62d
   139b4: ef 00 80 27  	jal	ra, 0x13c2c <read_scan_integer>
   139b8: 63 06 05 1e  	beq	a0, zero, 0x13ba4 <read_scan_script+0x234>
   139bc: 93 09 00 00  	addi	s3, zero, 0x0
   139c0: 93 0a 01 01  	addi	s5, sp, 0x10
   139c4: 93 0c 81 01  	addi	s9, sp, 0x18
   139c8: 93 0b 40 06  	addi	s7, zero, 0x64
   139cc: 13 0c 00 02  	addi	s8, zero, 0x20
   139d0: 63 84 79 25  	beq	s3, s7, 0x13c18 <read_scan_script+0x2a8>
   139d4: 83 35 0a 00  	ld	a1, 0x0(s4)
   139d8: 03 25 ca 00  	lw	a0, 0xc(s4)
   139dc: 23 a2 ba 00  	sw	a1, 0x4(s5)
   139e0: 93 0d 10 00  	addi	s11, zero, 0x1
   139e4: 63 16 85 05  	bne	a0, s8, 0x13a30 <read_scan_script+0xc0>
   139e8: 13 0d 30 00  	addi	s10, zero, 0x3
   139ec: 93 0d 10 00  	addi	s11, zero, 0x1
   139f0: 13 8b 0c 00  	addi	s6, s9, 0x0
   139f4: 63 02 0d 1e  	beq	s10, zero, 0x13bd8 <read_scan_script+0x268>
   139f8: 93 05 f1 7f  	addi	a1, sp, 0x7ff
   139fc: 93 85 15 62  	addi	a1, a1, 0x621
   13a00: 13 06 f1 7f  	addi	a2, sp, 0x7ff
   13a04: 13 06 d6 62  	addi	a2, a2, 0x62d
   13a08: 13 05 04 00  	addi	a0, s0, 0x0
   13a0c: ef 00 00 22  	jal	ra, 0x13c2c <read_scan_integer>
   13a10: 63 0a 05 1a  	beq	a0, zero, 0x13bc4 <read_scan_script+0x254>
   13a14: 83 35 0a 00  	ld	a1, 0x0(s4)
   13a18: 03 25 ca 00  	lw	a0, 0xc(s4)
   13a1c: 23 20 bb 00  	sw	a1, 0x0(s6)
   13a20: 13 0d fd ff  	addi	s10, s10, -0x1
   13a24: 13 0b 4b 00  	addi	s6, s6, 0x4
   13a28: 93 8d 1d 00  	addi	s11, s11, 0x1
   13a2c: e3 04 85 fd  	beq	a0, s8, 0x139f4 <read_scan_script+0x84>
   13a30: 23 a0 ba 01  	sw	s11, 0x0(s5)
   13a34: 93 05 a0 03  	addi	a1, zero, 0x3a
   13a38: 63 1a b5 0a  	bne	a0, a1, 0x13aec <read_scan_script+0x17c>
   13a3c: 93 05 f1 7f  	addi	a1, sp, 0x7ff
   13a40: 93 85 15 62  	addi	a1, a1, 0x621
   13a44: 13 06 f1 7f  	addi	a2, sp, 0x7ff
   13a48: 13 06 d6 62  	addi	a2, a2, 0x62d
   13a4c: 13 05 04 00  	addi	a0, s0, 0x0
   13a50: ef 00 c0 1d  	jal	ra, 0x13c2c <read_scan_integer>
   13a54: 63 08 05 16  	beq	a0, zero, 0x13bc4 <read_scan_script+0x254>
   13a58: 03 25 ca 00  	lw	a0, 0xc(s4)
   13a5c: 63 14 85 17  	bne	a0, s8, 0x13bc4 <read_scan_script+0x254>
   13a60: 03 35 0a 00  	ld	a0, 0x0(s4)
   13a64: 23 aa aa 00  	sw	a0, 0x14(s5)
   13a68: 93 05 f1 7f  	addi	a1, sp, 0x7ff
   13a6c: 93 85 15 62  	addi	a1, a1, 0x621
   13a70: 13 06 f1 7f  	addi	a2, sp, 0x7ff
   13a74: 13 06 d6 62  	addi	a2, a2, 0x62d
   13a78: 13 05 04 00  	addi	a0, s0, 0x0
   13a7c: ef 00 00 1b  	jal	ra, 0x13c2c <read_scan_integer>
   13a80: 63 02 05 14  	beq	a0, zero, 0x13bc4 <read_scan_script+0x254>
   13a84: 03 25 ca 00  	lw	a0, 0xc(s4)
   13a88: 63 1e 85 13  	bne	a0, s8, 0x13bc4 <read_scan_script+0x254>
   13a8c: 03 35 0a 00  	ld	a0, 0x0(s4)
   13a90: 23 ac aa 00  	sw	a0, 0x18(s5)
   13a94: 93 05 f1 7f  	addi	a1, sp, 0x7ff
   13a98: 93 85 15 62  	addi	a1, a1, 0x621
   13a9c: 13 06 f1 7f  	addi	a2, sp, 0x7ff
   13aa0: 13 06 d6 62  	addi	a2, a2, 0x62d
   13aa4: 13 05 04 00  	addi	a0, s0, 0x0
   13aa8: ef 00 40 18  	jal	ra, 0x13c2c <read_scan_integer>
   13aac: 63 0c 05 10  	beq	a0, zero, 0x13bc4 <read_scan_script+0x254>
   13ab0: 03 25 ca 00  	lw	a0, 0xc(s4)
   13ab4: 63 18 85 11  	bne	a0, s8, 0x13bc4 <read_scan_script+0x254>
   13ab8: 03 35 0a 00  	ld	a0, 0x0(s4)
   13abc: 23 ae aa 00  	sw	a0, 0x1c(s5)
   13ac0: 93 05 f1 7f  	addi	a1, sp, 0x7ff
   13ac4: 93 85 15 62  	addi	a1, a1, 0x621
   13ac8: 13 06 f1 7f  	addi	a2, sp, 0x7ff
   13acc: 13 06 d6 62  	addi	a2, a2, 0x62d
   13ad0: 13 05 04 00  	addi	a0, s0, 0x0
   13ad4: ef 00 80 15  	jal	ra, 0x13c2c <read_scan_integer>
   13ad8: 63 06 05 0e  	beq	a0, zero, 0x13bc4 <read_scan_script+0x254>
   13adc: 83 35 0a 00  	ld	a1, 0x0(s4)
   13ae0: 03 25 ca 00  	lw	a0, 0xc(s4)
   13ae4: 23 a0 ba 02  	sw	a1, 0x20(s5)
   13ae8: 6f 00 80 01  	jal	zero, 0x13b00 <read_scan_script+0x190>
   13aec: 23 aa 0a 00  	sw	zero, 0x14(s5)
   13af0: 93 05 f0 03  	addi	a1, zero, 0x3f
   13af4: 23 ac ba 00  	sw	a1, 0x18(s5)
   13af8: 23 ae 0a 00  	sw	zero, 0x1c(s5)
   13afc: 23 a0 0a 02  	sw	zero, 0x20(s5)
   13b00: 93 05 f0 ff  	addi	a1, zero, -0x1
   13b04: 63 06 b5 00  	beq	a0, a1, 0x13b10 <read_scan_script+0x1a0>
   13b08: 93 05 b0 03  	addi	a1, zero, 0x3b
   13b0c: 63 1c b5 0a  	bne	a0, a1, 0x13bc4 <read_scan_script+0x254>
   13b10: 93 8a 4a 02  	addi	s5, s5, 0x24
   13b14: 9b 89 19 00  	addiw	s3, s3, 0x1
   13b18: 93 05 f1 7f  	addi	a1, sp, 0x7ff
   13b1c: 93 85 15 62  	addi	a1, a1, 0x621
   13b20: 13 06 f1 7f  	addi	a2, sp, 0x7ff
   13b24: 13 06 d6 62  	addi	a2, a2, 0x62d
   13b28: 13 05 04 00  	addi	a0, s0, 0x0
   13b2c: ef 00 00 10  	jal	ra, 0x13c2c <read_scan_integer>
   13b30: 93 8c 4c 02  	addi	s9, s9, 0x24
   13b34: e3 1e 05 e8  	bne	a0, zero, 0x139d0 <read_scan_script+0x60>
   13b38: 03 25 ca 00  	lw	a0, 0xc(s4)
   13b3c: 93 05 f0 ff  	addi	a1, zero, -0x1
   13b40: 63 18 b5 06  	bne	a0, a1, 0x13bb0 <read_scan_script+0x240>
   13b44: 03 35 89 00  	ld	a0, 0x8(s2)
   13b48: 03 3a 05 00  	ld	s4, 0x0(a0)
   13b4c: 93 05 40 02  	addi	a1, zero, 0x24
   13b50: 13 85 09 00  	addi	a0, s3, 0x0
   13b54: ef d0 11 5e  	jal	ra, 0x31934 <__muldi3>
   13b58: 93 04 05 00  	addi	s1, a0, 0x0
   13b5c: 93 05 10 00  	addi	a1, zero, 0x1
   13b60: 13 05 09 00  	addi	a0, s2, 0x0
   13b64: 13 86 04 00  	addi	a2, s1, 0x0
   13b68: e7 00 0a 00  	jalr	ra, 0x0(s4)
   13b6c: 13 0a 05 00  	addi	s4, a0, 0x0
   13b70: 93 05 01 01  	addi	a1, sp, 0x10
   13b74: 13 86 04 00  	addi	a2, s1, 0x0
   13b78: ef b0 90 45  	jal	ra, 0x1f7d0 <memcpy>
   13b7c: 23 38 49 0f  	sd	s4, 0xf0(s2)
   13b80: 23 24 39 0f  	sw	s3, 0xe8(s2)
   13b84: 6f 00 40 08  	jal	zero, 0x13c08 <read_scan_script+0x298>
   13b88: 03 b5 01 20  	ld	a0, 0x200(gp)
   13b8c: 03 35 85 01  	ld	a0, 0x18(a0)
   13b90: b7 25 03 00  	lui	a1, 0x32
   13b94: 93 85 95 5b  	addi	a1, a1, 0x5b9
   13b98: 13 86 04 00  	addi	a2, s1, 0x0
   13b9c: ef a0 f0 33  	jal	ra, 0x1e6da <fprintf>
   13ba0: 6f 00 80 05  	jal	zero, 0x13bf8 <read_scan_script+0x288>
   13ba4: 03 25 ca 00  	lw	a0, 0xc(s4)
   13ba8: 93 05 f0 ff  	addi	a1, zero, -0x1
   13bac: 63 0e b5 04  	beq	a0, a1, 0x13c08 <read_scan_script+0x298>
   13bb0: 03 b5 01 20  	ld	a0, 0x200(gp)
   13bb4: 03 35 85 01  	ld	a0, 0x18(a0)
   13bb8: b7 25 03 00  	lui	a1, 0x32
   13bbc: 93 85 c5 59  	addi	a1, a1, 0x59c
   13bc0: 6f 00 80 02  	jal	zero, 0x13be8 <read_scan_script+0x278>
   13bc4: 03 b5 01 20  	ld	a0, 0x200(gp)
   13bc8: 03 35 85 01  	ld	a0, 0x18(a0)
   13bcc: b7 25 03 00  	lui	a1, 0x32
   13bd0: 93 85 c5 62  	addi	a1, a1, 0x62c
   13bd4: 6f 00 40 01  	jal	zero, 0x13be8 <read_scan_script+0x278>
   13bd8: 03 b5 01 20  	ld	a0, 0x200(gp)
   13bdc: 03 35 85 01  	ld	a0, 0x18(a0)
   13be0: b7 25 03 00  	lui	a1, 0x32
   13be4: 93 85 05 60  	addi	a1, a1, 0x600
   13be8: 13 86 04 00  	addi	a2, s1, 0x0
   13bec: ef a0 f0 2e  	jal	ra, 0x1e6da <fprintf>
   13bf0: 13 05 04 00  	addi	a0, s0, 0x0
   13bf4: ef a0 80 56  	jal	ra, 0x1e15c <fclose>
   13bf8: 13 05 00 00  	addi	a0, zero, 0x0
   13bfc: 13 01 01 7f  	addi	sp, sp, 0x7f0
   13c00: 13 01 01 64  	addi	sp, sp, 0x640
   13c04: 6f d0 51 50  	jal	zero, 0x31908 <__riscv_restore_12>
   13c08: 13 05 04 00  	addi	a0, s0, 0x0
   13c0c: ef a0 00 55  	jal	ra, 0x1e15c <fclose>
   13c10: 13 05 10 00  	addi	a0, zero, 0x1
   13c14: 6f f0 9f fe  	jal	zero, 0x13bfc <read_scan_script+0x28c>
   13c18: 03 b5 01 20  	ld	a0, 0x200(gp)
   13c1c: 03 35 85 01  	ld	a0, 0x18(a0)
   13c20: b7 25 03 00  	lui	a1, 0x32
   13c24: 93 85 d5 5d  	addi	a1, a1, 0x5dd
   13c28: 6f f0 1f fc  	jal	zero, 0x13be8 <read_scan_script+0x278>

0000000000013c2c <read_scan_integer>:
   13c2c: ef d2 91 4b  	jal	t0, 0x318e4 <__riscv_save_5>
   13c30: 13 04 06 00  	addi	s0, a2, 0x0
   13c34: 93 04 05 00  	addi	s1, a0, 0x0
   13c38: ef f0 5f c7  	jal	ra, 0x138ac <read_text_integer>
   13c3c: 63 00 05 0a  	beq	a0, zero, 0x13cdc <read_scan_integer+0xb0>
   13c40: 03 25 04 00  	lw	a0, 0x0(s0)
   13c44: 93 05 f0 ff  	addi	a1, zero, -0x1
   13c48: 63 0a b5 02  	beq	a0, a1, 0x13c7c <read_scan_integer+0x50>
   13c4c: b7 45 03 00  	lui	a1, 0x34
   13c50: 93 89 05 2a  	addi	s3, a1, 0x2a0
   13c54: b3 85 a9 00  	add	a1, s3, a0
   13c58: 83 c5 15 00  	lbu	a1, 0x1(a1)
   13c5c: 93 f5 85 00  	andi	a1, a1, 0x8
   13c60: 13 b9 15 00  	sltiu	s2, a1, 0x1
   13c64: 63 80 05 02  	beq	a1, zero, 0x13c84 <read_scan_integer+0x58>
   13c68: 13 85 04 00  	addi	a0, s1, 0x0
   13c6c: ef 00 00 28  	jal	ra, 0x13eec <text_getc>
   13c70: 93 05 f0 ff  	addi	a1, zero, -0x1
   13c74: e3 10 b5 fe  	bne	a0, a1, 0x13c54 <read_scan_integer+0x28>
   13c78: 6f 00 00 01  	jal	zero, 0x13c88 <read_scan_integer+0x5c>
   13c7c: 13 09 00 00  	addi	s2, zero, 0x0
   13c80: 6f 00 80 00  	jal	zero, 0x13c88 <read_scan_integer+0x5c>
   13c84: 93 05 05 00  	addi	a1, a0, 0x0
   13c88: 37 45 03 00  	lui	a0, 0x34
   13c8c: 13 05 05 2a  	addi	a0, a0, 0x2a0
   13c90: 33 05 b5 00  	add	a0, a0, a1
   13c94: 03 45 15 00  	lbu	a0, 0x1(a0)
   13c98: 13 75 45 00  	andi	a0, a0, 0x4
   13c9c: 63 10 05 02  	bne	a0, zero, 0x13cbc <read_scan_integer+0x90>
   13ca0: 1b 85 45 fc  	addiw	a0, a1, -0x3c
   13ca4: 13 35 e5 ff  	sltiu	a0, a0, -0x2
   13ca8: 33 75 a9 00  	and	a0, s2, a0
   13cac: 13 06 00 02  	addi	a2, zero, 0x20
   13cb0: 63 12 05 02  	bne	a0, zero, 0x13cd4 <read_scan_integer+0xa8>
   13cb4: 13 86 05 00  	addi	a2, a1, 0x0
   13cb8: 6f 00 c0 01  	jal	zero, 0x13cd4 <read_scan_integer+0xa8>
   13cbc: 13 85 05 00  	addi	a0, a1, 0x0
   13cc0: 93 85 04 00  	addi	a1, s1, 0x0
   13cc4: ef b0 20 41  	jal	ra, 0x1f0d6 <ungetc>
   13cc8: 93 05 f0 ff  	addi	a1, zero, -0x1
   13ccc: 13 06 00 02  	addi	a2, zero, 0x20
   13cd0: 63 08 b5 00  	beq	a0, a1, 0x13ce0 <read_scan_integer+0xb4>
   13cd4: 23 20 c4 00  	sw	a2, 0x0(s0)
   13cd8: 13 05 10 00  	addi	a0, zero, 0x1
   13cdc: 6f d0 31 44  	jal	zero, 0x3191e <__riscv_restore_5>
   13ce0: 13 05 00 00  	addi	a0, zero, 0x0
   13ce4: 6f d0 b1 43  	jal	zero, 0x3191e <__riscv_restore_5>

0000000000013ce8 <set_quant_slots>:
   13ce8: ef d2 91 3e  	jal	t0, 0x318d0 <__riscv_save_9>
   13cec: 13 01 01 ff  	addi	sp, sp, -0x10
   13cf0: 13 84 05 00  	addi	s0, a1, 0x0
   13cf4: 93 04 05 00  	addi	s1, a0, 0x0
   13cf8: 13 09 00 00  	addi	s2, zero, 0x0
   13cfc: 23 26 01 00  	sw	zero, 0xc(sp)
   13d00: 13 0a a0 00  	addi	s4, zero, 0xa
   13d04: 93 0a c0 02  	addi	s5, zero, 0x2c
   13d08: 37 25 03 00  	lui	a0, 0x32
   13d0c: 93 09 35 68  	addi	s3, a0, 0x683
   13d10: 13 0b 40 00  	addi	s6, zero, 0x4
   13d14: 03 45 04 00  	lbu	a0, 0x0(s0)
   13d18: 63 02 05 06  	beq	a0, zero, 0x13d7c <set_quant_slots+0x94>
   13d1c: a3 05 51 01  	sb	s5, 0xb(sp)
   13d20: 13 06 c1 00  	addi	a2, sp, 0xc
   13d24: 93 06 b1 00  	addi	a3, sp, 0xb
   13d28: 13 05 04 00  	addi	a0, s0, 0x0
   13d2c: 93 85 09 00  	addi	a1, s3, 0x0
   13d30: ef b0 60 04  	jal	ra, 0x1ed76 <sscanf>
   13d34: 93 05 05 00  	addi	a1, a0, 0x0
   13d38: 13 05 00 00  	addi	a0, zero, 0x0
   13d3c: 63 54 b0 08  	bge	zero, a1, 0x13dc4 <set_quant_slots+0xdc>
   13d40: 83 45 b1 00  	lbu	a1, 0xb(sp)
   13d44: 63 90 55 09  	bne	a1, s5, 0x13dc4 <set_quant_slots+0xdc>
   13d48: 83 2b c1 00  	lw	s7, 0xc(sp)
   13d4c: 63 fe 6b 05  	bgeu	s7, s6, 0x13da8 <set_quant_slots+0xc0>
   13d50: 03 bc 04 05  	ld	s8, 0x50(s1)
   13d54: 93 05 00 06  	addi	a1, zero, 0x60
   13d58: 13 05 09 00  	addi	a0, s2, 0x0
   13d5c: ef d0 91 3d  	jal	ra, 0x31934 <__muldi3>
   13d60: 33 05 ac 00  	add	a0, s8, a0
   13d64: 23 28 75 01  	sw	s7, 0x10(a0)
   13d68: 03 45 04 00  	lbu	a0, 0x0(s0)
   13d6c: 63 06 05 02  	beq	a0, zero, 0x13d98 <set_quant_slots+0xb0>
   13d70: 13 04 14 00  	addi	s0, s0, 0x1
   13d74: e3 1a 55 ff  	bne	a0, s5, 0x13d68 <set_quant_slots+0x80>
   13d78: 6f 00 00 02  	jal	zero, 0x13d98 <set_quant_slots+0xb0>
   13d7c: 83 2b c1 00  	lw	s7, 0xc(sp)
   13d80: 03 bc 04 05  	ld	s8, 0x50(s1)
   13d84: 93 05 00 06  	addi	a1, zero, 0x60
   13d88: 13 05 09 00  	addi	a0, s2, 0x0
   13d8c: ef d0 91 3a  	jal	ra, 0x31934 <__muldi3>
   13d90: 33 05 ac 00  	add	a0, s8, a0
   13d94: 23 28 75 01  	sw	s7, 0x10(a0)
   13d98: 13 09 19 00  	addi	s2, s2, 0x1
   13d9c: e3 1c 49 f7  	bne	s2, s4, 0x13d14 <set_quant_slots+0x2c>
   13da0: 13 05 10 00  	addi	a0, zero, 0x1
   13da4: 6f 00 00 02  	jal	zero, 0x13dc4 <set_quant_slots+0xdc>
   13da8: 03 b5 01 20  	ld	a0, 0x200(gp)
   13dac: 03 35 85 01  	ld	a0, 0x18(a0)
   13db0: b7 25 03 00  	lui	a1, 0x32
   13db4: 93 85 25 65  	addi	a1, a1, 0x652
   13db8: 13 06 30 00  	addi	a2, zero, 0x3
   13dbc: ef a0 f0 11  	jal	ra, 0x1e6da <fprintf>
   13dc0: 13 05 00 00  	addi	a0, zero, 0x0
   13dc4: 13 01 01 01  	addi	sp, sp, 0x10
   13dc8: 6f d0 b1 34  	jal	zero, 0x31912 <__riscv_restore_9>

0000000000013dcc <set_sample_factors>:
   13dcc: ef d2 31 2f  	jal	t0, 0x318be <__riscv_save_12>
   13dd0: 13 01 01 ff  	addi	sp, sp, -0x10
   13dd4: 13 84 05 00  	addi	s0, a1, 0x0
   13dd8: 93 04 05 00  	addi	s1, a0, 0x0
   13ddc: 13 09 00 00  	addi	s2, zero, 0x0
   13de0: 13 05 10 00  	addi	a0, zero, 0x1
   13de4: 13 15 05 02  	slli	a0, a0, 0x20
   13de8: 13 0a 15 00  	addi	s4, a0, 0x1
   13dec: 93 0a a0 00  	addi	s5, zero, 0xa
   13df0: 13 0b c0 02  	addi	s6, zero, 0x2c
   13df4: 37 25 03 00  	lui	a0, 0x32
   13df8: 93 09 f5 67  	addi	s3, a0, 0x67f
   13dfc: 93 0b 30 00  	addi	s7, zero, 0x3
   13e00: 13 0c 80 05  	addi	s8, zero, 0x58
   13e04: 93 0c c0 ff  	addi	s9, zero, -0x4
   13e08: 03 45 04 00  	lbu	a0, 0x0(s0)
   13e0c: 63 08 05 08  	beq	a0, zero, 0x13e9c <set_sample_factors+0xd0>
   13e10: 23 03 61 01  	sb	s6, 0x6(sp)
   13e14: 13 06 c1 00  	addi	a2, sp, 0xc
   13e18: 93 06 71 00  	addi	a3, sp, 0x7
   13e1c: 13 07 81 00  	addi	a4, sp, 0x8
   13e20: 93 07 61 00  	addi	a5, sp, 0x6
   13e24: 13 05 04 00  	addi	a0, s0, 0x0
   13e28: 93 85 09 00  	addi	a1, s3, 0x0
   13e2c: ef a0 b0 74  	jal	ra, 0x1ed76 <sscanf>
   13e30: 63 48 75 0b  	blt	a0, s7, 0x13ee0 <set_sample_factors+0x114>
   13e34: 03 45 71 00  	lbu	a0, 0x7(sp)
   13e38: 93 75 f5 0d  	andi	a1, a0, 0xdf
   13e3c: 13 05 00 00  	addi	a0, zero, 0x0
   13e40: 63 92 85 0b  	bne	a1, s8, 0x13ee4 <set_sample_factors+0x118>
   13e44: 83 45 61 00  	lbu	a1, 0x6(sp)
   13e48: 63 9e 65 09  	bne	a1, s6, 0x13ee4 <set_sample_factors+0x118>
   13e4c: 83 2d c1 00  	lw	s11, 0xc(sp)
   13e50: 1b 85 bd ff  	addiw	a0, s11, -0x5
   13e54: 63 68 95 07  	bltu	a0, s9, 0x13ec4 <set_sample_factors+0xf8>
   13e58: 03 25 81 00  	lw	a0, 0x8(sp)
   13e5c: 63 54 a0 06  	bge	zero, a0, 0x13ec4 <set_sample_factors+0xf8>
   13e60: 93 05 50 00  	addi	a1, zero, 0x5
   13e64: 63 50 b5 06  	bge	a0, a1, 0x13ec4 <set_sample_factors+0xf8>
   13e68: 03 bd 04 05  	ld	s10, 0x50(s1)
   13e6c: 93 05 00 06  	addi	a1, zero, 0x60
   13e70: 13 05 09 00  	addi	a0, s2, 0x0
   13e74: ef d0 11 2c  	jal	ra, 0x31934 <__muldi3>
   13e78: 33 05 ad 00  	add	a0, s10, a0
   13e7c: 23 24 b5 01  	sw	s11, 0x8(a0)
   13e80: 83 25 81 00  	lw	a1, 0x8(sp)
   13e84: 23 26 b5 00  	sw	a1, 0xc(a0)
   13e88: 03 45 04 00  	lbu	a0, 0x0(s0)
   13e8c: 63 04 05 02  	beq	a0, zero, 0x13eb4 <set_sample_factors+0xe8>
   13e90: 13 04 14 00  	addi	s0, s0, 0x1
   13e94: e3 1a 65 ff  	bne	a0, s6, 0x13e88 <set_sample_factors+0xbc>
   13e98: 6f 00 c0 01  	jal	zero, 0x13eb4 <set_sample_factors+0xe8>
   13e9c: 03 bd 04 05  	ld	s10, 0x50(s1)
   13ea0: 93 05 00 06  	addi	a1, zero, 0x60
   13ea4: 13 05 09 00  	addi	a0, s2, 0x0
   13ea8: ef d0 d1 28  	jal	ra, 0x31934 <__muldi3>
   13eac: 33 05 ad 00  	add	a0, s10, a0
   13eb0: 23 34 45 01  	sd	s4, 0x8(a0)
   13eb4: 13 09 19 00  	addi	s2, s2, 0x1
   13eb8: e3 18 59 f5  	bne	s2, s5, 0x13e08 <set_sample_factors+0x3c>
   13ebc: 13 05 10 00  	addi	a0, zero, 0x1
   13ec0: 6f 00 40 02  	jal	zero, 0x13ee4 <set_sample_factors+0x118>
   13ec4: 03 b5 01 20  	ld	a0, 0x200(gp)
   13ec8: 83 36 85 01  	ld	a3, 0x18(a0)
   13ecc: 37 25 03 00  	lui	a0, 0x32
   13ed0: 13 05 85 68  	addi	a0, a0, 0x688
   13ed4: 93 05 30 02  	addi	a1, zero, 0x23
   13ed8: 13 06 10 00  	addi	a2, zero, 0x1
   13edc: ef a0 10 30  	jal	ra, 0x1e9dc <fwrite>
   13ee0: 13 05 00 00  	addi	a0, zero, 0x0
   13ee4: 13 01 01 01  	addi	sp, sp, 0x10
   13ee8: 6f d0 11 22  	jal	zero, 0x31908 <__riscv_restore_12>

0000000000013eec <text_getc>:
   13eec: ef d2 31 20  	jal	t0, 0x318ee <__riscv_save_3>
   13ef0: 13 04 05 00  	addi	s0, a0, 0x0
   13ef4: ef a0 f0 3a  	jal	ra, 0x1eaa2 <getc>
   13ef8: 93 05 30 02  	addi	a1, zero, 0x23
   13efc: 63 1e b5 00  	bne	a0, a1, 0x13f18 <text_getc+0x2c>
   13f00: 93 04 a0 00  	addi	s1, zero, 0xa
   13f04: 13 09 f0 ff  	addi	s2, zero, -0x1
   13f08: 13 05 04 00  	addi	a0, s0, 0x0
   13f0c: ef a0 70 39  	jal	ra, 0x1eaa2 <getc>
   13f10: 63 04 95 00  	beq	a0, s1, 0x13f18 <text_getc+0x2c>
   13f14: e3 1a 25 ff  	bne	a0, s2, 0x13f08 <text_getc+0x1c>
   13f18: 6f d0 d1 20  	jal	zero, 0x31924 <__riscv_restore_3>

0000000000013f1c <keymatch>:
   13f1c: 03 47 05 00  	lbu	a4, 0x0(a0)
   13f20: 63 00 07 06  	beq	a4, zero, 0x13f80 <keymatch+0x64>
   13f24: 93 06 00 00  	addi	a3, zero, 0x0
   13f28: 13 05 15 00  	addi	a0, a0, 0x1
   13f2c: b7 47 03 00  	lui	a5, 0x34
   13f30: 93 87 07 2a  	addi	a5, a5, 0x2a0
   13f34: 03 c8 05 00  	lbu	a6, 0x0(a1)
   13f38: 63 00 08 04  	beq	a6, zero, 0x13f78 <keymatch+0x5c>
   13f3c: 13 77 f7 0f  	andi	a4, a4, 0xff
   13f40: b3 88 e7 00  	add	a7, a5, a4
   13f44: 83 c8 18 00  	lbu	a7, 0x1(a7)
   13f48: 93 f8 38 00  	andi	a7, a7, 0x3
   13f4c: 93 88 f8 ff  	addi	a7, a7, -0x1
   13f50: 93 b8 18 00  	sltiu	a7, a7, 0x1
   13f54: 93 98 58 00  	slli	a7, a7, 0x5
   13f58: 33 07 17 01  	add	a4, a4, a7
   13f5c: 63 1e 07 01  	bne	a4, a6, 0x13f78 <keymatch+0x5c>
   13f60: 03 47 05 00  	lbu	a4, 0x0(a0)
   13f64: 93 85 15 00  	addi	a1, a1, 0x1
   13f68: 9b 86 16 00  	addiw	a3, a3, 0x1
   13f6c: 13 05 15 00  	addi	a0, a0, 0x1
   13f70: e3 12 07 fc  	bne	a4, zero, 0x13f34 <keymatch+0x18>
   13f74: 6f 00 00 01  	jal	zero, 0x13f84 <keymatch+0x68>
   13f78: 13 05 00 00  	addi	a0, zero, 0x0
   13f7c: 67 80 00 00  	jalr	zero, 0x0(ra)
   13f80: 93 06 00 00  	addi	a3, zero, 0x0
   13f84: 33 a5 c6 00  	slt	a0, a3, a2
   13f88: 13 45 15 00  	xori	a0, a0, 0x1
   13f8c: 67 80 00 00  	jalr	zero, 0x0(ra)

0000000000013f90 <read_stdin>:
   13f90: 03 b5 01 20  	ld	a0, 0x200(gp)
   13f94: 03 35 85 00  	ld	a0, 0x8(a0)
   13f98: 67 80 00 00  	jalr	zero, 0x0(ra)

0000000000013f9c <write_stdout>:
   13f9c: 03 b5 01 20  	ld	a0, 0x200(gp)
   13fa0: 03 35 05 01  	ld	a0, 0x10(a0)
   13fa4: 67 80 00 00  	jalr	zero, 0x0(ra)

0000000000013fa8 <jpeg_CreateCompress>:
   13fa8: ef d2 71 14  	jal	t0, 0x318ee <__riscv_save_3>
   13fac: 93 04 06 00  	addi	s1, a2, 0x0
   13fb0: 13 04 05 00  	addi	s0, a0, 0x0
   13fb4: 13 05 d0 03  	addi	a0, zero, 0x3d
   13fb8: 23 34 04 00  	sd	zero, 0x8(s0)
   13fbc: 63 86 a5 02  	beq	a1, a0, 0x13fe8 <jpeg_CreateCompress+0x40>
   13fc0: 03 36 04 00  	ld	a2, 0x0(s0)
   13fc4: 13 15 05 02  	slli	a0, a0, 0x20
   13fc8: 13 05 a5 00  	addi	a0, a0, 0xa
   13fcc: 23 34 a6 02  	sd	a0, 0x28(a2)
   13fd0: 03 35 04 00  	ld	a0, 0x0(s0)
   13fd4: 23 28 b5 02  	sw	a1, 0x30(a0)
   13fd8: 03 35 04 00  	ld	a0, 0x0(s0)
   13fdc: 83 35 05 00  	ld	a1, 0x0(a0)
   13fe0: 13 05 04 00  	addi	a0, s0, 0x0
   13fe4: e7 80 05 00  	jalr	ra, 0x0(a1)
   13fe8: 13 05 00 1f  	addi	a0, zero, 0x1f0
   13fec: 63 88 a4 02  	beq	s1, a0, 0x1401c <jpeg_CreateCompress+0x74>
   13ff0: 03 35 04 00  	ld	a0, 0x0(s0)
   13ff4: 93 05 f0 01  	addi	a1, zero, 0x1f
   13ff8: 93 95 45 02  	slli	a1, a1, 0x24
   13ffc: 93 85 35 01  	addi	a1, a1, 0x13
   14000: 23 34 b5 02  	sd	a1, 0x28(a0)
   14004: 03 35 04 00  	ld	a0, 0x0(s0)
   14008: 23 28 95 02  	sw	s1, 0x30(a0)
   1400c: 03 35 04 00  	ld	a0, 0x0(s0)
   14010: 83 35 05 00  	ld	a1, 0x0(a0)
   14014: 13 05 04 00  	addi	a0, s0, 0x0
   14018: e7 80 05 00  	jalr	ra, 0x0(a1)
   1401c: 83 34 04 00  	ld	s1, 0x0(s0)
   14020: 13 05 84 00  	addi	a0, s0, 0x8
   14024: 13 06 80 1e  	addi	a2, zero, 0x1e8
   14028: 93 05 00 00  	addi	a1, zero, 0x0
   1402c: ef b0 a0 6f  	jal	ra, 0x1f726 <memset>
   14030: 23 30 94 00  	sd	s1, 0x0(s0)
   14034: 13 05 04 00  	addi	a0, s0, 0x0
   14038: ef 80 90 17  	jal	ra, 0x1c9b0 <jinit_memory_mgr>
   1403c: 23 38 04 00  	sd	zero, 0x10(s0)
   14040: 23 30 04 02  	sd	zero, 0x20(s0)
   14044: 13 05 04 05  	addi	a0, s0, 0x50
   14048: 13 06 80 06  	addi	a2, zero, 0x68
   1404c: 93 05 00 00  	addi	a1, zero, 0x0
   14050: ef b0 60 6d  	jal	ra, 0x1f726 <memset>
   14054: 13 05 f0 3f  	addi	a0, zero, 0x3ff
   14058: 13 15 45 03  	slli	a0, a0, 0x34
   1405c: 23 3c a4 02  	sd	a0, 0x38(s0)
   14060: 13 05 40 06  	addi	a0, zero, 0x64
   14064: 23 2e a4 00  	sw	a0, 0x1c(s0)
   14068: 6f d0 d1 0b  	jal	zero, 0x31924 <__riscv_restore_3>

000000000001406c <jpeg_destroy_compress>:
   1406c: 6f 80 80 61  	jal	zero, 0x1c684 <jpeg_destroy>

0000000000014070 <jpeg_abort_compress>:
   14070: 6f 80 00 5e  	jal	zero, 0x1c650 <jpeg_abort>

0000000000014074 <jpeg_suppress_tables>:
   14074: 13 06 85 05  	addi	a2, a0, 0x58
   14078: 93 06 85 07  	addi	a3, a0, 0x78
   1407c: 03 37 06 00  	ld	a4, 0x0(a2)
   14080: 63 04 07 00  	beq	a4, zero, 0x14088 <jpeg_suppress_tables+0x14>
   14084: 23 20 b7 08  	sw	a1, 0x80(a4)
   14088: 13 06 86 00  	addi	a2, a2, 0x8
   1408c: e3 18 d6 fe  	bne	a2, a3, 0x1407c <jpeg_suppress_tables+0x8>
   14090: 13 06 85 09  	addi	a2, a0, 0x98
   14094: 13 05 85 0b  	addi	a0, a0, 0xb8
   14098: 83 36 06 fe  	ld	a3, -0x20(a2)
   1409c: 63 84 06 00  	beq	a3, zero, 0x140a4 <jpeg_suppress_tables+0x30>
   140a0: 23 aa b6 10  	sw	a1, 0x114(a3)
   140a4: 83 36 06 00  	ld	a3, 0x0(a2)
   140a8: 63 84 06 00  	beq	a3, zero, 0x140b0 <jpeg_suppress_tables+0x3c>
   140ac: 23 aa b6 10  	sw	a1, 0x114(a3)
   140b0: 13 06 86 00  	addi	a2, a2, 0x8
   140b4: e3 12 a6 fe  	bne	a2, a0, 0x14098 <jpeg_suppress_tables+0x24>
   140b8: 67 80 00 00  	jalr	zero, 0x0(ra)

00000000000140bc <jpeg_finish_compress>:
   140bc: 13 01 01 fe  	addi	sp, sp, -0x20
   140c0: 23 3c 11 00  	sd	ra, 0x18(sp)
   140c4: 23 38 81 00  	sd	s0, 0x10(sp)
   140c8: 23 34 91 00  	sd	s1, 0x8(sp)
   140cc: 23 30 21 01  	sd	s2, 0x0(sp)
   140d0: 13 04 05 00  	addi	s0, a0, 0x0
   140d4: 03 25 c5 01  	lw	a0, 0x1c(a0)
   140d8: 93 05 b5 f9  	addi	a1, a0, -0x65
   140dc: 13 06 20 00  	addi	a2, zero, 0x2
   140e0: 63 fa c5 02  	bgeu	a1, a2, 0x14114 <jpeg_finish_compress+0x58>
   140e4: 03 25 84 12  	lw	a0, 0x128(s0)
   140e8: 83 25 c4 02  	lw	a1, 0x2c(s0)
   140ec: 63 7e b5 00  	bgeu	a0, a1, 0x14108 <jpeg_finish_compress+0x4c>
   140f0: 03 35 04 00  	ld	a0, 0x0(s0)
   140f4: 83 35 05 00  	ld	a1, 0x0(a0)
   140f8: 13 06 20 04  	addi	a2, zero, 0x42
   140fc: 23 24 c5 02  	sw	a2, 0x28(a0)
   14100: 13 05 04 00  	addi	a0, s0, 0x0
   14104: e7 80 05 00  	jalr	ra, 0x0(a1)
   14108: 03 35 84 1a  	ld	a0, 0x1a8(s0)
   1410c: 13 05 05 01  	addi	a0, a0, 0x10
   14110: 6f 00 00 02  	jal	zero, 0x14130 <jpeg_finish_compress+0x74>
   14114: 93 05 70 06  	addi	a1, zero, 0x67
   14118: 63 02 b5 02  	beq	a0, a1, 0x1413c <jpeg_finish_compress+0x80>
   1411c: 83 35 04 00  	ld	a1, 0x0(s0)
   14120: 23 a6 a5 02  	sw	a0, 0x2c(a1)
   14124: 03 35 04 00  	ld	a0, 0x0(s0)
   14128: 13 06 20 01  	addi	a2, zero, 0x12
   1412c: 23 a4 c5 02  	sw	a2, 0x28(a1)
   14130: 83 35 05 00  	ld	a1, 0x0(a0)
   14134: 13 05 04 00  	addi	a0, s0, 0x0
   14138: e7 80 05 00  	jalr	ra, 0x0(a1)
   1413c: 03 35 84 1a  	ld	a0, 0x1a8(s0)
   14140: 83 25 c5 01  	lw	a1, 0x1c(a0)
   14144: 63 9c 05 08  	bne	a1, zero, 0x141dc <jpeg_finish_compress+0x120>
   14148: 93 04 60 01  	addi	s1, zero, 0x16
   1414c: 83 35 05 00  	ld	a1, 0x0(a0)
   14150: 13 05 04 00  	addi	a0, s0, 0x0
   14154: e7 80 05 00  	jalr	ra, 0x0(a1)
   14158: 03 25 84 13  	lw	a0, 0x138(s0)
   1415c: 63 02 05 06  	beq	a0, zero, 0x141c0 <jpeg_finish_compress+0x104>
   14160: 13 09 00 00  	addi	s2, zero, 0x0
   14164: 83 35 04 01  	ld	a1, 0x10(s0)
   14168: 63 80 05 02  	beq	a1, zero, 0x14188 <jpeg_finish_compress+0xcc>
   1416c: 13 15 05 02  	slli	a0, a0, 0x20
   14170: 03 b6 05 00  	ld	a2, 0x0(a1)
   14174: 13 55 05 02  	srli	a0, a0, 0x20
   14178: 23 b8 a5 00  	sd	a0, 0x10(a1)
   1417c: 23 b4 25 01  	sd	s2, 0x8(a1)
   14180: 13 05 04 00  	addi	a0, s0, 0x0
   14184: e7 00 06 00  	jalr	ra, 0x0(a2)
   14188: 03 35 04 1c  	ld	a0, 0x1c0(s0)
   1418c: 03 36 85 00  	ld	a2, 0x8(a0)
   14190: 13 05 04 00  	addi	a0, s0, 0x0
   14194: 93 05 00 00  	addi	a1, zero, 0x0
   14198: e7 00 06 00  	jalr	ra, 0x0(a2)
   1419c: 63 1c 05 00  	bne	a0, zero, 0x141b4 <jpeg_finish_compress+0xf8>
   141a0: 03 35 04 00  	ld	a0, 0x0(s0)
   141a4: 83 35 05 00  	ld	a1, 0x0(a0)
   141a8: 23 24 95 02  	sw	s1, 0x28(a0)
   141ac: 13 05 04 00  	addi	a0, s0, 0x0
   141b0: e7 80 05 00  	jalr	ra, 0x0(a1)
   141b4: 03 65 84 13  	lwu	a0, 0x138(s0)
   141b8: 13 09 19 00  	addi	s2, s2, 0x1
   141bc: e3 64 a9 fa  	bltu	s2, a0, 0x14164 <jpeg_finish_compress+0xa8>
   141c0: 03 35 84 1a  	ld	a0, 0x1a8(s0)
   141c4: 83 35 05 01  	ld	a1, 0x10(a0)
   141c8: 13 05 04 00  	addi	a0, s0, 0x0
   141cc: e7 80 05 00  	jalr	ra, 0x0(a1)
   141d0: 03 35 84 1a  	ld	a0, 0x1a8(s0)
   141d4: 83 25 c5 01  	lw	a1, 0x1c(a0)
   141d8: e3 8a 05 f6  	beq	a1, zero, 0x1414c <jpeg_finish_compress+0x90>
   141dc: 03 35 84 1c  	ld	a0, 0x1c8(s0)
   141e0: 83 35 05 02  	ld	a1, 0x20(a0)
   141e4: 13 05 04 00  	addi	a0, s0, 0x0
   141e8: e7 80 05 00  	jalr	ra, 0x0(a1)
   141ec: 03 35 04 02  	ld	a0, 0x20(s0)
   141f0: 83 35 05 02  	ld	a1, 0x20(a0)
   141f4: 13 05 04 00  	addi	a0, s0, 0x0
   141f8: e7 80 05 00  	jalr	ra, 0x0(a1)
   141fc: 13 05 04 00  	addi	a0, s0, 0x0
   14200: 83 30 81 01  	ld	ra, 0x18(sp)
   14204: 03 34 01 01  	ld	s0, 0x10(sp)
   14208: 83 34 81 00  	ld	s1, 0x8(sp)
   1420c: 03 39 01 00  	ld	s2, 0x0(sp)
   14210: 13 01 01 02  	addi	sp, sp, 0x20
   14214: 6f 80 c0 43  	jal	zero, 0x1c650 <jpeg_abort>

0000000000014218 <jpeg_write_marker>:
   14218: 13 01 01 fd  	addi	sp, sp, -0x30
   1421c: 23 34 11 02  	sd	ra, 0x28(sp)
   14220: 23 30 81 02  	sd	s0, 0x20(sp)
   14224: 23 3c 91 00  	sd	s1, 0x18(sp)
   14228: 23 38 21 01  	sd	s2, 0x10(sp)
   1422c: 23 34 31 01  	sd	s3, 0x8(sp)
   14230: 13 04 05 00  	addi	s0, a0, 0x0
   14234: 03 27 85 12  	lw	a4, 0x128(a0)
   14238: 03 25 c5 01  	lw	a0, 0x1c(a0)
   1423c: 93 84 06 00  	addi	s1, a3, 0x0
   14240: 13 09 06 00  	addi	s2, a2, 0x0
   14244: 93 89 05 00  	addi	s3, a1, 0x0
   14248: 63 18 07 00  	bne	a4, zero, 0x14258 <jpeg_write_marker+0x40>
   1424c: 9b 05 b5 f9  	addiw	a1, a0, -0x65
   14250: 13 06 30 00  	addi	a2, zero, 0x3
   14254: 63 e2 c5 02  	bltu	a1, a2, 0x14278 <jpeg_write_marker+0x60>
   14258: 83 35 04 00  	ld	a1, 0x0(s0)
   1425c: 23 a6 a5 02  	sw	a0, 0x2c(a1)
   14260: 03 35 04 00  	ld	a0, 0x0(s0)
   14264: 03 36 05 00  	ld	a2, 0x0(a0)
   14268: 13 05 20 01  	addi	a0, zero, 0x12
   1426c: 23 a4 a5 02  	sw	a0, 0x28(a1)
   14270: 13 05 04 00  	addi	a0, s0, 0x0
   14274: e7 00 06 00  	jalr	ra, 0x0(a2)
   14278: 03 35 84 1c  	ld	a0, 0x1c8(s0)
   1427c: 03 33 05 00  	ld	t1, 0x0(a0)
   14280: 13 05 04 00  	addi	a0, s0, 0x0
   14284: 93 85 09 00  	addi	a1, s3, 0x0
   14288: 13 06 09 00  	addi	a2, s2, 0x0
   1428c: 93 86 04 00  	addi	a3, s1, 0x0
   14290: 83 30 81 02  	ld	ra, 0x28(sp)
   14294: 03 34 01 02  	ld	s0, 0x20(sp)
   14298: 83 34 81 01  	ld	s1, 0x18(sp)
   1429c: 03 39 01 01  	ld	s2, 0x10(sp)
   142a0: 83 39 81 00  	ld	s3, 0x8(sp)
   142a4: 13 01 01 03  	addi	sp, sp, 0x30
   142a8: 67 00 03 00  	jalr	zero, 0x0(t1)

00000000000142ac <jpeg_write_tables>:
   142ac: 13 01 01 ff  	addi	sp, sp, -0x10
   142b0: 23 34 11 00  	sd	ra, 0x8(sp)
   142b4: 23 30 81 00  	sd	s0, 0x0(sp)
   142b8: 13 04 05 00  	addi	s0, a0, 0x0
   142bc: 03 25 c5 01  	lw	a0, 0x1c(a0)
   142c0: 93 05 40 06  	addi	a1, zero, 0x64
   142c4: 63 02 b5 02  	beq	a0, a1, 0x142e8 <jpeg_write_tables+0x3c>
   142c8: 83 35 04 00  	ld	a1, 0x0(s0)
   142cc: 23 a6 a5 02  	sw	a0, 0x2c(a1)
   142d0: 03 35 04 00  	ld	a0, 0x0(s0)
   142d4: 03 36 05 00  	ld	a2, 0x0(a0)
   142d8: 13 05 20 01  	addi	a0, zero, 0x12
   142dc: 23 a4 a5 02  	sw	a0, 0x28(a1)
   142e0: 13 05 04 00  	addi	a0, s0, 0x0
   142e4: e7 00 06 00  	jalr	ra, 0x0(a2)
   142e8: 03 35 04 00  	ld	a0, 0x0(s0)
   142ec: 83 35 05 02  	ld	a1, 0x20(a0)
   142f0: 13 05 04 00  	addi	a0, s0, 0x0
   142f4: e7 80 05 00  	jalr	ra, 0x0(a1)
   142f8: 03 35 04 02  	ld	a0, 0x20(s0)
   142fc: 83 35 05 01  	ld	a1, 0x10(a0)
   14300: 13 05 04 00  	addi	a0, s0, 0x0
   14304: e7 80 05 00  	jalr	ra, 0x0(a1)
   14308: 13 05 04 00  	addi	a0, s0, 0x0
   1430c: ef 10 50 62  	jal	ra, 0x16130 <jinit_marker_writer>
   14310: 03 35 84 1c  	ld	a0, 0x1c8(s0)
   14314: 83 35 85 02  	ld	a1, 0x28(a0)
   14318: 13 05 04 00  	addi	a0, s0, 0x0
   1431c: e7 80 05 00  	jalr	ra, 0x0(a1)
   14320: 03 35 04 02  	ld	a0, 0x20(s0)
   14324: 83 35 05 02  	ld	a1, 0x20(a0)
   14328: 13 05 04 00  	addi	a0, s0, 0x0
   1432c: e7 80 05 00  	jalr	ra, 0x0(a1)
   14330: 13 05 04 00  	addi	a0, s0, 0x0
   14334: 83 30 81 00  	ld	ra, 0x8(sp)
   14338: 03 34 01 00  	ld	s0, 0x0(sp)
   1433c: 13 01 01 01  	addi	sp, sp, 0x10
   14340: 6f 80 00 31  	jal	zero, 0x1c650 <jpeg_abort>

0000000000014344 <jpeg_start_compress>:
   14344: ef d2 a1 5a  	jal	t0, 0x318ee <__riscv_save_3>
   14348: 13 04 05 00  	addi	s0, a0, 0x0
   1434c: 03 25 c5 01  	lw	a0, 0x1c(a0)
   14350: 13 06 40 06  	addi	a2, zero, 0x64
   14354: 93 84 05 00  	addi	s1, a1, 0x0
   14358: 63 02 c5 02  	beq	a0, a2, 0x1437c <jpeg_start_compress+0x38>
   1435c: 83 35 04 00  	ld	a1, 0x0(s0)
   14360: 23 a6 a5 02  	sw	a0, 0x2c(a1)
   14364: 03 35 04 00  	ld	a0, 0x0(s0)
   14368: 03 36 05 00  	ld	a2, 0x0(a0)
   1436c: 13 05 20 01  	addi	a0, zero, 0x12
   14370: 23 a4 a5 02  	sw	a0, 0x28(a1)
   14374: 13 05 04 00  	addi	a0, s0, 0x0
   14378: e7 00 06 00  	jalr	ra, 0x0(a2)
   1437c: 63 88 04 00  	beq	s1, zero, 0x1438c <jpeg_start_compress+0x48>
   14380: 13 05 04 00  	addi	a0, s0, 0x0
   14384: 93 05 00 00  	addi	a1, zero, 0x0
   14388: ef f0 df ce  	jal	ra, 0x14074 <jpeg_suppress_tables>
   1438c: 03 35 04 00  	ld	a0, 0x0(s0)
   14390: 83 35 05 02  	ld	a1, 0x20(a0)
   14394: 13 05 04 00  	addi	a0, s0, 0x0
   14398: e7 80 05 00  	jalr	ra, 0x0(a1)
   1439c: 03 35 04 02  	ld	a0, 0x20(s0)
   143a0: 83 35 05 01  	ld	a1, 0x10(a0)
   143a4: 13 05 04 00  	addi	a0, s0, 0x0
   143a8: e7 80 05 00  	jalr	ra, 0x0(a1)
   143ac: 13 05 04 00  	addi	a0, s0, 0x0
   143b0: ef 00 d0 75  	jal	ra, 0x1530c <jinit_compress_master>
   143b4: 03 35 84 1a  	ld	a0, 0x1a8(s0)
   143b8: 83 35 05 00  	ld	a1, 0x0(a0)
   143bc: 13 05 04 00  	addi	a0, s0, 0x0
   143c0: e7 80 05 00  	jalr	ra, 0x0(a1)
   143c4: 03 25 84 0f  	lw	a0, 0xf8(s0)
   143c8: 23 24 04 12  	sw	zero, 0x128(s0)
   143cc: 33 35 a0 00  	sltu	a0, zero, a0
   143d0: 13 05 55 06  	addi	a0, a0, 0x65
   143d4: 23 2e a4 00  	sw	a0, 0x1c(s0)
   143d8: 6f d0 c1 54  	jal	zero, 0x31924 <__riscv_restore_3>

00000000000143dc <jpeg_write_scanlines>:
   143dc: ef d2 21 51  	jal	t0, 0x318ee <__riscv_save_3>
   143e0: 13 01 01 ff  	addi	sp, sp, -0x10
   143e4: 13 04 05 00  	addi	s0, a0, 0x0
   143e8: 03 25 c5 01  	lw	a0, 0x1c(a0)
   143ec: 93 06 50 06  	addi	a3, zero, 0x65
   143f0: 13 09 06 00  	addi	s2, a2, 0x0
   143f4: 93 84 05 00  	addi	s1, a1, 0x0
   143f8: 63 02 d5 02  	beq	a0, a3, 0x1441c <jpeg_write_scanlines+0x40>
   143fc: 83 35 04 00  	ld	a1, 0x0(s0)
   14400: 23 a6 a5 02  	sw	a0, 0x2c(a1)
   14404: 03 35 04 00  	ld	a0, 0x0(s0)
   14408: 03 36 05 00  	ld	a2, 0x0(a0)
   1440c: 13 05 20 01  	addi	a0, zero, 0x12
   14410: 23 a4 a5 02  	sw	a0, 0x28(a1)
   14414: 13 05 04 00  	addi	a0, s0, 0x0
   14418: e7 00 06 00  	jalr	ra, 0x0(a2)
   1441c: 03 25 84 12  	lw	a0, 0x128(s0)
   14420: 83 25 c4 02  	lw	a1, 0x2c(s0)
   14424: 63 60 b5 02  	bltu	a0, a1, 0x14444 <jpeg_write_scanlines+0x68>
   14428: 03 35 04 00  	ld	a0, 0x0(s0)
   1442c: 03 36 85 00  	ld	a2, 0x8(a0)
   14430: 93 05 70 07  	addi	a1, zero, 0x77
   14434: 23 24 b5 02  	sw	a1, 0x28(a0)
   14438: 93 05 f0 ff  	addi	a1, zero, -0x1
   1443c: 13 05 04 00  	addi	a0, s0, 0x0
   14440: e7 00 06 00  	jalr	ra, 0x0(a2)
   14444: 03 35 04 01  	ld	a0, 0x10(s0)
   14448: 63 00 05 02  	beq	a0, zero, 0x14468 <jpeg_write_scanlines+0x8c>
   1444c: 83 65 84 12  	lwu	a1, 0x128(s0)
   14450: 03 66 c4 02  	lwu	a2, 0x2c(s0)
   14454: 83 36 05 00  	ld	a3, 0x0(a0)
   14458: 23 34 b5 00  	sd	a1, 0x8(a0)
   1445c: 23 38 c5 00  	sd	a2, 0x10(a0)
   14460: 13 05 04 00  	addi	a0, s0, 0x0
   14464: e7 80 06 00  	jalr	ra, 0x0(a3)
   14468: 03 35 84 1a  	ld	a0, 0x1a8(s0)
   1446c: 83 25 85 01  	lw	a1, 0x18(a0)
   14470: 63 88 05 00  	beq	a1, zero, 0x14480 <jpeg_write_scanlines+0xa4>
   14474: 83 35 85 00  	ld	a1, 0x8(a0)
   14478: 13 05 04 00  	addi	a0, s0, 0x0
   1447c: e7 80 05 00  	jalr	ra, 0x0(a1)
   14480: 03 25 c4 02  	lw	a0, 0x2c(s0)
   14484: 83 25 84 12  	lw	a1, 0x128(s0)
   14488: bb 06 b5 40  	subw	a3, a0, a1
   1448c: 63 e4 26 01  	bltu	a3, s2, 0x14494 <jpeg_write_scanlines+0xb8>
   14490: 93 06 09 00  	addi	a3, s2, 0x0
   14494: 03 35 04 1b  	ld	a0, 0x1b0(s0)
   14498: 03 37 85 00  	ld	a4, 0x8(a0)
   1449c: 23 26 01 00  	sw	zero, 0xc(sp)
   144a0: 13 06 c1 00  	addi	a2, sp, 0xc
   144a4: 13 05 04 00  	addi	a0, s0, 0x0
   144a8: 93 85 04 00  	addi	a1, s1, 0x0
   144ac: e7 00 07 00  	jalr	ra, 0x0(a4)
   144b0: 03 25 c1 00  	lw	a0, 0xc(sp)
   144b4: 83 25 84 12  	lw	a1, 0x128(s0)
   144b8: b3 85 a5 00  	add	a1, a1, a0
   144bc: 23 24 b4 12  	sw	a1, 0x128(s0)
   144c0: 13 01 01 01  	addi	sp, sp, 0x10
   144c4: 6f d0 01 46  	jal	zero, 0x31924 <__riscv_restore_3>

00000000000144c8 <jpeg_write_raw_data>:
   144c8: ef d2 c1 41  	jal	t0, 0x318e4 <__riscv_save_5>
   144cc: 13 04 05 00  	addi	s0, a0, 0x0
   144d0: 03 25 c5 01  	lw	a0, 0x1c(a0)
   144d4: 93 06 60 06  	addi	a3, zero, 0x66
   144d8: 13 09 06 00  	addi	s2, a2, 0x0
   144dc: 93 84 05 00  	addi	s1, a1, 0x0
   144e0: 63 02 d5 02  	beq	a0, a3, 0x14504 <jpeg_write_raw_data+0x3c>
   144e4: 83 35 04 00  	ld	a1, 0x0(s0)
   144e8: 23 a6 a5 02  	sw	a0, 0x2c(a1)
   144ec: 03 35 04 00  	ld	a0, 0x0(s0)
   144f0: 03 36 05 00  	ld	a2, 0x0(a0)
   144f4: 13 05 20 01  	addi	a0, zero, 0x12
   144f8: 23 a4 a5 02  	sw	a0, 0x28(a1)
   144fc: 13 05 04 00  	addi	a0, s0, 0x0
   14500: e7 00 06 00  	jalr	ra, 0x0(a2)
   14504: 03 26 84 12  	lw	a2, 0x128(s0)
   14508: 03 25 c4 02  	lw	a0, 0x2c(s0)
   1450c: 63 7a a6 08  	bgeu	a2, a0, 0x145a0 <jpeg_write_raw_data+0xd8>
   14510: 83 35 04 01  	ld	a1, 0x10(s0)
   14514: 63 84 05 02  	beq	a1, zero, 0x1453c <jpeg_write_raw_data+0x74>
   14518: 13 16 06 02  	slli	a2, a2, 0x20
   1451c: 13 56 06 02  	srli	a2, a2, 0x20
   14520: 23 b4 c5 00  	sd	a2, 0x8(a1)
   14524: 03 b6 05 00  	ld	a2, 0x0(a1)
   14528: 13 15 05 02  	slli	a0, a0, 0x20
   1452c: 13 55 05 02  	srli	a0, a0, 0x20
   14530: 23 b8 a5 00  	sd	a0, 0x10(a1)
   14534: 13 05 04 00  	addi	a0, s0, 0x0
   14538: e7 00 06 00  	jalr	ra, 0x0(a2)
   1453c: 03 35 84 1a  	ld	a0, 0x1a8(s0)
   14540: 83 25 85 01  	lw	a1, 0x18(a0)
   14544: 63 88 05 00  	beq	a1, zero, 0x14554 <jpeg_write_raw_data+0x8c>
   14548: 83 35 85 00  	ld	a1, 0x8(a0)
   1454c: 13 05 04 00  	addi	a0, s0, 0x0
   14550: e7 80 05 00  	jalr	ra, 0x0(a1)
   14554: 03 25 44 13  	lw	a0, 0x134(s0)
   14558: 9b 19 35 00  	slliw	s3, a0, 0x3
   1455c: 63 7e 39 01  	bgeu	s2, s3, 0x14578 <jpeg_write_raw_data+0xb0>
   14560: 03 35 04 00  	ld	a0, 0x0(s0)
   14564: 83 35 05 00  	ld	a1, 0x0(a0)
   14568: 13 06 50 01  	addi	a2, zero, 0x15
   1456c: 23 24 c5 02  	sw	a2, 0x28(a0)
   14570: 13 05 04 00  	addi	a0, s0, 0x0
   14574: e7 80 05 00  	jalr	ra, 0x0(a1)
   14578: 03 35 04 1c  	ld	a0, 0x1c0(s0)
   1457c: 03 36 85 00  	ld	a2, 0x8(a0)
   14580: 13 05 04 00  	addi	a0, s0, 0x0
   14584: 93 85 04 00  	addi	a1, s1, 0x0
   14588: e7 00 06 00  	jalr	ra, 0x0(a2)
   1458c: 63 08 05 02  	beq	a0, zero, 0x145bc <jpeg_write_raw_data+0xf4>
   14590: 03 25 84 12  	lw	a0, 0x128(s0)
   14594: 33 05 35 01  	add	a0, a0, s3
   14598: 23 24 a4 12  	sw	a0, 0x128(s0)
   1459c: 6f 00 40 02  	jal	zero, 0x145c0 <jpeg_write_raw_data+0xf8>
   145a0: 03 35 04 00  	ld	a0, 0x0(s0)
   145a4: 03 36 85 00  	ld	a2, 0x8(a0)
   145a8: 93 05 70 07  	addi	a1, zero, 0x77
   145ac: 23 24 b5 02  	sw	a1, 0x28(a0)
   145b0: 93 05 f0 ff  	addi	a1, zero, -0x1
   145b4: 13 05 04 00  	addi	a0, s0, 0x0
   145b8: e7 00 06 00  	jalr	ra, 0x0(a2)
   145bc: 93 09 00 00  	addi	s3, zero, 0x0
   145c0: 13 85 09 00  	addi	a0, s3, 0x0
   145c4: 6f d0 a1 35  	jal	zero, 0x3191e <__riscv_restore_5>

00000000000145c8 <jpeg_add_quant_table>:
   145c8: ef d2 81 30  	jal	t0, 0x318d0 <__riscv_save_9>
   145cc: 93 09 07 00  	addi	s3, a4, 0x0
   145d0: 13 84 06 00  	addi	s0, a3, 0x0
   145d4: 93 04 06 00  	addi	s1, a2, 0x0
   145d8: 13 0a 05 00  	addi	s4, a0, 0x0
   145dc: 03 25 c5 01  	lw	a0, 0x1c(a0)
   145e0: 93 95 35 00  	slli	a1, a1, 0x3
   145e4: b3 05 ba 00  	add	a1, s4, a1
   145e8: 13 06 40 06  	addi	a2, zero, 0x64
   145ec: 93 8a 85 05  	addi	s5, a1, 0x58
   145f0: 63 02 c5 02  	beq	a0, a2, 0x14614 <jpeg_add_quant_table+0x4c>
   145f4: 83 35 0a 00  	ld	a1, 0x0(s4)
   145f8: 23 a6 a5 02  	sw	a0, 0x2c(a1)
   145fc: 03 35 0a 00  	ld	a0, 0x0(s4)
   14600: 03 36 05 00  	ld	a2, 0x0(a0)
   14604: 13 05 20 01  	addi	a0, zero, 0x12
   14608: 23 a4 a5 02  	sw	a0, 0x28(a1)
   1460c: 13 05 0a 00  	addi	a0, s4, 0x0
   14610: e7 00 06 00  	jalr	ra, 0x0(a2)
   14614: 03 b9 0a 00  	ld	s2, 0x0(s5)
   14618: 63 1a 09 00  	bne	s2, zero, 0x1462c <jpeg_add_quant_table+0x64>
   1461c: 13 05 0a 00  	addi	a0, s4, 0x0
   14620: ef 80 c0 08  	jal	ra, 0x1c6ac <jpeg_alloc_quant_table>
   14624: 13 09 05 00  	addi	s2, a0, 0x0
   14628: 23 b0 aa 00  	sd	a0, 0x0(s5)
   1462c: 13 0a 09 08  	addi	s4, s2, 0x80
   14630: b3 3a 30 01  	sltu	s5, zero, s3
   14634: 37 8b 00 00  	lui	s6, 0x8
   14638: 1b 0b fb ff  	addiw	s6, s6, -0x1
   1463c: 37 65 00 00  	lui	a0, 0x6
   14640: 9b 0b d5 3c  	addiw	s7, a0, 0x3cd
   14644: 13 0c 09 00  	addi	s8, s2, 0x0
   14648: 03 e5 04 00  	lwu	a0, 0x0(s1)
   1464c: 93 05 04 00  	addi	a1, s0, 0x0
   14650: ef d0 41 2e  	jal	ra, 0x31934 <__muldi3>
   14654: 93 09 05 00  	addi	s3, a0, 0x0
   14658: 13 05 25 03  	addi	a0, a0, 0x32
   1465c: 93 05 40 06  	addi	a1, zero, 0x64
   14660: ef d0 41 31  	jal	ra, 0x31974 <__divdi3>
   14664: 63 44 a0 00  	blt	zero, a0, 0x1466c <jpeg_add_quant_table+0xa4>
   14668: 13 05 10 00  	addi	a0, zero, 0x1
   1466c: 63 64 65 01  	bltu	a0, s6, 0x14674 <jpeg_add_quant_table+0xac>
   14670: 13 05 0b 00  	addi	a0, s6, 0x0
   14674: b3 a5 3b 01  	slt	a1, s7, s3
   14678: 33 f6 ba 00  	and	a2, s5, a1
   1467c: 93 05 f0 0f  	addi	a1, zero, 0xff
   14680: 63 14 06 00  	bne	a2, zero, 0x14688 <jpeg_add_quant_table+0xc0>
   14684: 93 05 05 00  	addi	a1, a0, 0x0
   14688: 23 10 bc 00  	sh	a1, 0x0(s8)
   1468c: 13 0c 2c 00  	addi	s8, s8, 0x2
   14690: 93 84 44 00  	addi	s1, s1, 0x4
   14694: e3 1a 4c fb  	bne	s8, s4, 0x14648 <jpeg_add_quant_table+0x80>
   14698: 23 20 09 08  	sw	zero, 0x80(s2)
   1469c: 6f d0 61 27  	jal	zero, 0x31912 <__riscv_restore_9>

00000000000146a0 <jpeg_set_linear_quality>:
   146a0: 13 01 01 fe  	addi	sp, sp, -0x20
   146a4: 23 3c 11 00  	sd	ra, 0x18(sp)
   146a8: 23 38 81 00  	sd	s0, 0x10(sp)
   146ac: 23 34 91 00  	sd	s1, 0x8(sp)
   146b0: 23 30 21 01  	sd	s2, 0x0(sp)
   146b4: 13 04 06 00  	addi	s0, a2, 0x0
   146b8: 93 84 05 00  	addi	s1, a1, 0x0
   146bc: 13 09 05 00  	addi	s2, a0, 0x0
   146c0: 37 45 03 00  	lui	a0, 0x34
   146c4: 13 06 05 91  	addi	a2, a0, -0x6f0
   146c8: 13 05 09 00  	addi	a0, s2, 0x0
   146cc: 93 05 00 00  	addi	a1, zero, 0x0
   146d0: 93 86 04 00  	addi	a3, s1, 0x0
   146d4: 13 07 04 00  	addi	a4, s0, 0x0
   146d8: ef f0 1f ef  	jal	ra, 0x145c8 <jpeg_add_quant_table>
   146dc: 37 45 03 00  	lui	a0, 0x34
   146e0: 13 06 05 a1  	addi	a2, a0, -0x5f0
   146e4: 93 05 10 00  	addi	a1, zero, 0x1
   146e8: 13 05 09 00  	addi	a0, s2, 0x0
   146ec: 93 86 04 00  	addi	a3, s1, 0x0
   146f0: 13 07 04 00  	addi	a4, s0, 0x0
   146f4: 83 30 81 01  	ld	ra, 0x18(sp)
   146f8: 03 34 01 01  	ld	s0, 0x10(sp)
   146fc: 83 34 81 00  	ld	s1, 0x8(sp)
   14700: 03 39 01 00  	ld	s2, 0x0(sp)
   14704: 13 01 01 02  	addi	sp, sp, 0x20
   14708: 6f f0 1f ec  	jal	zero, 0x145c8 <jpeg_add_quant_table>

000000000001470c <jpeg_quality_scaling>:
   1470c: 93 05 05 00  	addi	a1, a0, 0x0
   14710: 63 44 a0 00  	blt	zero, a0, 0x14718 <jpeg_quality_scaling+0xc>
   14714: 93 05 10 00  	addi	a1, zero, 0x1
   14718: 13 06 40 06  	addi	a2, zero, 0x64
   1471c: 63 e4 c5 00  	bltu	a1, a2, 0x14724 <jpeg_quality_scaling+0x18>
   14720: 93 05 40 06  	addi	a1, zero, 0x64
   14724: ef d2 c1 1d  	jal	t0, 0x31900 <__riscv_save_1>
   14728: 13 06 10 03  	addi	a2, zero, 0x31
   1472c: 63 4e a6 00  	blt	a2, a0, 0x14748 <jpeg_quality_scaling+0x3c>
   14730: 93 95 05 03  	slli	a1, a1, 0x30
   14734: 93 d5 05 03  	srli	a1, a1, 0x30
   14738: 37 15 00 00  	lui	a0, 0x1
   1473c: 1b 05 85 38  	addiw	a0, a0, 0x388
   14740: ef d0 c1 23  	jal	ra, 0x3197c <__udivdi3>
   14744: 6f 00 00 01  	jal	zero, 0x14754 <jpeg_quality_scaling+0x48>
   14748: 93 95 15 00  	slli	a1, a1, 0x1
   1474c: 13 05 80 0c  	addi	a0, zero, 0xc8
   14750: 3b 05 b5 40  	subw	a0, a0, a1
   14754: 1b 05 05 00  	addiw	a0, a0, 0x0
   14758: 6f d0 21 1d  	jal	zero, 0x3192a <__riscv_restore_1>

000000000001475c <jpeg_set_quality>:
   1475c: 13 01 01 fe  	addi	sp, sp, -0x20
   14760: 23 3c 11 00  	sd	ra, 0x18(sp)
   14764: 23 38 81 00  	sd	s0, 0x10(sp)
   14768: 23 34 91 00  	sd	s1, 0x8(sp)
   1476c: 23 30 21 01  	sd	s2, 0x0(sp)
   14770: 13 04 06 00  	addi	s0, a2, 0x0
   14774: 93 04 05 00  	addi	s1, a0, 0x0
   14778: 13 85 05 00  	addi	a0, a1, 0x0
   1477c: 63 44 b0 00  	blt	zero, a1, 0x14784 <jpeg_set_quality+0x28>
   14780: 13 05 10 00  	addi	a0, zero, 0x1
   14784: 13 06 40 06  	addi	a2, zero, 0x64
   14788: 63 64 c5 00  	bltu	a0, a2, 0x14790 <jpeg_set_quality+0x34>
   1478c: 13 05 40 06  	addi	a0, zero, 0x64
   14790: 13 06 10 03  	addi	a2, zero, 0x31
   14794: 63 4e b6 00  	blt	a2, a1, 0x147b0 <jpeg_set_quality+0x54>
   14798: 13 15 05 03  	slli	a0, a0, 0x30
   1479c: 93 55 05 03  	srli	a1, a0, 0x30
   147a0: 37 15 00 00  	lui	a0, 0x1
   147a4: 1b 05 85 38  	addiw	a0, a0, 0x388
   147a8: ef d0 41 1d  	jal	ra, 0x3197c <__udivdi3>
   147ac: 6f 00 00 01  	jal	zero, 0x147bc <jpeg_set_quality+0x60>
   147b0: 13 15 15 00  	slli	a0, a0, 0x1
   147b4: 93 05 80 0c  	addi	a1, zero, 0xc8
   147b8: 3b 85 a5 40  	subw	a0, a1, a0
   147bc: b7 45 03 00  	lui	a1, 0x34
   147c0: 13 86 05 91  	addi	a2, a1, -0x6f0
   147c4: 1b 09 05 00  	addiw	s2, a0, 0x0
   147c8: 13 85 04 00  	addi	a0, s1, 0x0
   147cc: 93 05 00 00  	addi	a1, zero, 0x0
   147d0: 93 06 09 00  	addi	a3, s2, 0x0
   147d4: 13 07 04 00  	addi	a4, s0, 0x0
   147d8: ef f0 1f df  	jal	ra, 0x145c8 <jpeg_add_quant_table>
   147dc: 37 45 03 00  	lui	a0, 0x34
   147e0: 13 06 05 a1  	addi	a2, a0, -0x5f0
   147e4: 93 05 10 00  	addi	a1, zero, 0x1
   147e8: 13 85 04 00  	addi	a0, s1, 0x0
   147ec: 93 06 09 00  	addi	a3, s2, 0x0
   147f0: 13 07 04 00  	addi	a4, s0, 0x0
   147f4: 83 30 81 01  	ld	ra, 0x18(sp)
   147f8: 03 34 01 01  	ld	s0, 0x10(sp)
   147fc: 83 34 81 00  	ld	s1, 0x8(sp)
   14800: 03 39 01 00  	ld	s2, 0x0(sp)
   14804: 13 01 01 02  	addi	sp, sp, 0x20
   14808: 6f f0 1f dc  	jal	zero, 0x145c8 <jpeg_add_quant_table>

000000000001480c <jpeg_set_defaults>:
   1480c: 13 01 01 fe  	addi	sp, sp, -0x20
   14810: 23 3c 11 00  	sd	ra, 0x18(sp)
   14814: 23 38 81 00  	sd	s0, 0x10(sp)
   14818: 23 34 91 00  	sd	s1, 0x8(sp)
   1481c: 13 04 05 00  	addi	s0, a0, 0x0
   14820: 03 25 c5 01  	lw	a0, 0x1c(a0)
   14824: 93 05 40 06  	addi	a1, zero, 0x64
   14828: 63 02 b5 02  	beq	a0, a1, 0x1484c <jpeg_set_defaults+0x40>
   1482c: 83 35 04 00  	ld	a1, 0x0(s0)
   14830: 23 a6 a5 02  	sw	a0, 0x2c(a1)
   14834: 03 35 04 00  	ld	a0, 0x0(s0)
   14838: 03 36 05 00  	ld	a2, 0x0(a0)
   1483c: 13 05 20 01  	addi	a0, zero, 0x12
   14840: 23 a4 a5 02  	sw	a0, 0x28(a1)
   14844: 13 05 04 00  	addi	a0, s0, 0x0
   14848: e7 00 06 00  	jalr	ra, 0x0(a2)
   1484c: 03 35 04 05  	ld	a0, 0x50(s0)
   14850: 63 10 05 02  	bne	a0, zero, 0x14870 <jpeg_set_defaults+0x64>
   14854: 03 35 84 00  	ld	a0, 0x8(s0)
   14858: 83 36 05 00  	ld	a3, 0x0(a0)
   1485c: 13 06 00 3c  	addi	a2, zero, 0x3c0
   14860: 13 05 04 00  	addi	a0, s0, 0x0
   14864: 93 05 00 00  	addi	a1, zero, 0x0
   14868: e7 80 06 00  	jalr	ra, 0x0(a3)
   1486c: 23 38 a4 04  	sd	a0, 0x50(s0)
   14870: 13 05 80 00  	addi	a0, zero, 0x8
   14874: 23 20 a4 04  	sw	a0, 0x40(s0)
   14878: 37 45 03 00  	lui	a0, 0x34
   1487c: 13 06 05 91  	addi	a2, a0, -0x6f0
   14880: 93 06 20 03  	addi	a3, zero, 0x32
   14884: 13 07 10 00  	addi	a4, zero, 0x1
   14888: 13 05 04 00  	addi	a0, s0, 0x0
   1488c: 93 05 00 00  	addi	a1, zero, 0x0
   14890: ef f0 9f d3  	jal	ra, 0x145c8 <jpeg_add_quant_table>
   14894: 37 45 03 00  	lui	a0, 0x34
   14898: 13 06 05 a1  	addi	a2, a0, -0x5f0
   1489c: 93 05 10 00  	addi	a1, zero, 0x1
   148a0: 93 06 20 03  	addi	a3, zero, 0x32
   148a4: 13 07 10 00  	addi	a4, zero, 0x1
   148a8: 13 05 04 00  	addi	a0, s0, 0x0
   148ac: ef f0 df d1  	jal	ra, 0x145c8 <jpeg_add_quant_table>
   148b0: 03 35 84 07  	ld	a0, 0x78(s0)
   148b4: 63 18 05 00  	bne	a0, zero, 0x148c4 <jpeg_set_defaults+0xb8>
   148b8: 13 05 04 00  	addi	a0, s0, 0x0
   148bc: ef 70 10 61  	jal	ra, 0x1c6cc <jpeg_alloc_huff_table>
   148c0: 23 3c a4 06  	sd	a0, 0x78(s0)
   148c4: b7 45 03 00  	lui	a1, 0x34
   148c8: 93 85 05 b1  	addi	a1, a1, -0x4f0
   148cc: 13 06 10 01  	addi	a2, zero, 0x11
   148d0: ef a0 10 70  	jal	ra, 0x1f7d0 <memcpy>
   148d4: 03 35 84 07  	ld	a0, 0x78(s0)
   148d8: 13 05 15 01  	addi	a0, a0, 0x11
   148dc: b7 45 03 00  	lui	a1, 0x34
   148e0: 93 85 25 b3  	addi	a1, a1, -0x4ce
   148e4: 13 06 00 10  	addi	a2, zero, 0x100
   148e8: ef a0 90 6e  	jal	ra, 0x1f7d0 <memcpy>
   148ec: 83 35 84 07  	ld	a1, 0x78(s0)
   148f0: 03 35 84 09  	ld	a0, 0x98(s0)
   148f4: 23 aa 05 10  	sw	zero, 0x114(a1)
   148f8: 63 18 05 00  	bne	a0, zero, 0x14908 <jpeg_set_defaults+0xfc>
   148fc: 13 05 04 00  	addi	a0, s0, 0x0
   14900: ef 70 d0 5c  	jal	ra, 0x1c6cc <jpeg_alloc_huff_table>
   14904: 23 3c a4 08  	sd	a0, 0x98(s0)
   14908: b7 45 03 00  	lui	a1, 0x34
   1490c: 93 85 e5 b3  	addi	a1, a1, -0x4c2
   14910: 13 06 10 01  	addi	a2, zero, 0x11
   14914: ef a0 d0 6b  	jal	ra, 0x1f7d0 <memcpy>
   14918: 03 35 84 09  	ld	a0, 0x98(s0)
   1491c: 13 05 15 01  	addi	a0, a0, 0x11
   14920: b7 45 03 00  	lui	a1, 0x34
   14924: 93 85 f5 b4  	addi	a1, a1, -0x4b1
   14928: 13 06 00 10  	addi	a2, zero, 0x100
   1492c: ef a0 50 6a  	jal	ra, 0x1f7d0 <memcpy>
   14930: 83 35 84 09  	ld	a1, 0x98(s0)
   14934: 03 35 04 08  	ld	a0, 0x80(s0)
   14938: 23 aa 05 10  	sw	zero, 0x114(a1)
   1493c: 63 18 05 00  	bne	a0, zero, 0x1494c <jpeg_set_defaults+0x140>
   14940: 13 05 04 00  	addi	a0, s0, 0x0
   14944: ef 70 90 58  	jal	ra, 0x1c6cc <jpeg_alloc_huff_table>
   14948: 23 30 a4 08  	sd	a0, 0x80(s0)
   1494c: b7 45 03 00  	lui	a1, 0x34
   14950: 93 85 15 b2  	addi	a1, a1, -0x4df
   14954: 13 06 10 01  	addi	a2, zero, 0x11
   14958: ef a0 90 67  	jal	ra, 0x1f7d0 <memcpy>
   1495c: 03 35 04 08  	ld	a0, 0x80(s0)
   14960: 13 05 15 01  	addi	a0, a0, 0x11
   14964: b7 45 03 00  	lui	a1, 0x34
   14968: 93 85 25 b3  	addi	a1, a1, -0x4ce
   1496c: 13 06 00 10  	addi	a2, zero, 0x100
   14970: ef a0 10 66  	jal	ra, 0x1f7d0 <memcpy>
   14974: 83 35 04 08  	ld	a1, 0x80(s0)
   14978: 03 35 04 0a  	ld	a0, 0xa0(s0)
   1497c: 23 aa 05 10  	sw	zero, 0x114(a1)
   14980: 63 18 05 00  	bne	a0, zero, 0x14990 <jpeg_set_defaults+0x184>
   14984: 13 05 04 00  	addi	a0, s0, 0x0
   14988: ef 70 50 54  	jal	ra, 0x1c6cc <jpeg_alloc_huff_table>
   1498c: 23 30 a4 0a  	sd	a0, 0xa0(s0)
   14990: b7 45 03 00  	lui	a1, 0x34
   14994: 93 85 15 bf  	addi	a1, a1, -0x40f
   14998: 13 06 10 01  	addi	a2, zero, 0x11
   1499c: ef a0 50 63  	jal	ra, 0x1f7d0 <memcpy>
   149a0: 03 35 04 0a  	ld	a0, 0xa0(s0)
   149a4: 13 05 15 01  	addi	a0, a0, 0x11
   149a8: b7 45 03 00  	lui	a1, 0x34
   149ac: 93 85 25 c0  	addi	a1, a1, -0x3fe
   149b0: 13 06 00 10  	addi	a2, zero, 0x100
   149b4: ef a0 d0 61  	jal	ra, 0x1f7d0 <memcpy>
   149b8: 03 35 04 0a  	ld	a0, 0xa0(s0)
   149bc: 23 2a 05 10  	sw	zero, 0x114(a0)
   149c0: 13 05 84 0b  	addi	a0, s0, 0xb8
   149c4: 13 06 00 01  	addi	a2, zero, 0x10
   149c8: 93 05 00 00  	addi	a1, zero, 0x0
   149cc: ef a0 b0 55  	jal	ra, 0x1f726 <memset>
   149d0: 13 05 84 0c  	addi	a0, s0, 0xc8
   149d4: 93 05 10 00  	addi	a1, zero, 0x1
   149d8: 13 06 00 01  	addi	a2, zero, 0x10
   149dc: 93 04 10 00  	addi	s1, zero, 0x1
   149e0: ef a0 70 54  	jal	ra, 0x1f726 <memset>
   149e4: 13 05 84 0d  	addi	a0, s0, 0xd8
   149e8: 93 05 50 00  	addi	a1, zero, 0x5
   149ec: 13 06 00 01  	addi	a2, zero, 0x10
   149f0: ef a0 70 53  	jal	ra, 0x1f726 <memset>
   149f4: 03 25 04 04  	lw	a0, 0x40(s0)
   149f8: 23 24 04 0e  	sw	zero, 0xe8(s0)
   149fc: 23 38 04 0e  	sd	zero, 0xf0(s0)
   14a00: 23 3c 04 0e  	sd	zero, 0xf8(s0)
   14a04: 13 25 95 00  	slti	a0, a0, 0x9
   14a08: 13 45 15 00  	xori	a0, a0, 0x1
   14a0c: 23 20 a4 10  	sw	a0, 0x100(s0)
   14a10: 13 05 44 10  	addi	a0, s0, 0x104
   14a14: 23 0e 04 10  	sb	zero, 0x11c(s0)
   14a18: 13 06 40 01  	addi	a2, zero, 0x14
   14a1c: 93 05 00 00  	addi	a1, zero, 0x0
   14a20: ef a0 70 50  	jal	ra, 0x1f726 <memset>
   14a24: 23 1f 94 10  	sh	s1, 0x11e(s0)
   14a28: 23 10 94 12  	sh	s1, 0x120(s0)
   14a2c: 13 05 04 00  	addi	a0, s0, 0x0
   14a30: 83 30 81 01  	ld	ra, 0x18(sp)
   14a34: 03 34 01 01  	ld	s0, 0x10(sp)
   14a38: 83 34 81 00  	ld	s1, 0x8(sp)
   14a3c: 13 01 01 02  	addi	sp, sp, 0x20
   14a40: 6f 00 40 00  	jal	zero, 0x14a44 <jpeg_default_colorspace>

0000000000014a44 <jpeg_default_colorspace>:
   14a44: 83 25 45 03  	lw	a1, 0x34(a0)
   14a48: 13 06 50 00  	addi	a2, zero, 0x5
   14a4c: 63 62 b6 04  	bltu	a2, a1, 0x14a90 <jpeg_default_colorspace+0x4c>
   14a50: 93 95 25 00  	slli	a1, a1, 0x2
   14a54: 37 46 03 00  	lui	a2, 0x34
   14a58: 13 06 06 8e  	addi	a2, a2, -0x720
   14a5c: b3 85 c5 00  	add	a1, a1, a2
   14a60: 83 a5 05 00  	lw	a1, 0x0(a1)
   14a64: 67 80 05 00  	jalr	zero, 0x0(a1)
   14a68: 93 05 30 00  	addi	a1, zero, 0x3
   14a6c: 6f 00 80 03  	jal	zero, 0x14aa4 <jpeg_set_colorspace>
   14a70: 93 05 40 00  	addi	a1, zero, 0x4
   14a74: 6f 00 00 03  	jal	zero, 0x14aa4 <jpeg_set_colorspace>
   14a78: 93 05 00 00  	addi	a1, zero, 0x0
   14a7c: 6f 00 80 02  	jal	zero, 0x14aa4 <jpeg_set_colorspace>
   14a80: 93 05 10 00  	addi	a1, zero, 0x1
   14a84: 6f 00 00 02  	jal	zero, 0x14aa4 <jpeg_set_colorspace>
   14a88: 93 05 50 00  	addi	a1, zero, 0x5
   14a8c: 6f 00 80 01  	jal	zero, 0x14aa4 <jpeg_set_colorspace>
   14a90: 83 35 05 00  	ld	a1, 0x0(a0)
   14a94: 03 b3 05 00  	ld	t1, 0x0(a1)
   14a98: 13 06 70 00  	addi	a2, zero, 0x7
   14a9c: 23 a4 c5 02  	sw	a2, 0x28(a1)
   14aa0: 67 00 03 00  	jalr	zero, 0x0(t1)

0000000000014aa4 <jpeg_set_colorspace>:
   14aa4: 13 01 01 fe  	addi	sp, sp, -0x20
   14aa8: 23 3c 11 00  	sd	ra, 0x18(sp)
   14aac: 23 38 81 00  	sd	s0, 0x10(sp)
   14ab0: 23 34 91 00  	sd	s1, 0x8(sp)
   14ab4: 13 04 05 00  	addi	s0, a0, 0x0
   14ab8: 03 25 c5 01  	lw	a0, 0x1c(a0)
   14abc: 13 06 40 06  	addi	a2, zero, 0x64
   14ac0: 93 84 05 00  	addi	s1, a1, 0x0
   14ac4: 63 02 c5 02  	beq	a0, a2, 0x14ae8 <jpeg_set_colorspace+0x44>
   14ac8: 83 35 04 00  	ld	a1, 0x0(s0)
   14acc: 23 a6 a5 02  	sw	a0, 0x2c(a1)
   14ad0: 03 35 04 00  	ld	a0, 0x0(s0)
   14ad4: 03 36 05 00  	ld	a2, 0x0(a0)
   14ad8: 13 05 20 01  	addi	a0, zero, 0x12
   14adc: 23 a4 a5 02  	sw	a0, 0x28(a1)
   14ae0: 13 05 04 00  	addi	a0, s0, 0x0
   14ae4: e7 00 06 00  	jalr	ra, 0x0(a2)
   14ae8: 23 24 94 04  	sw	s1, 0x48(s0)
   14aec: 23 2c 04 10  	sw	zero, 0x118(s0)
   14af0: 13 05 50 00  	addi	a0, zero, 0x5
   14af4: 23 22 04 12  	sw	zero, 0x124(s0)
   14af8: 63 62 95 28  	bltu	a0, s1, 0x14d7c <jpeg_set_colorspace+0x2d8>
   14afc: 93 94 24 00  	slli	s1, s1, 0x2
   14b00: 37 45 03 00  	lui	a0, 0x34
   14b04: 13 05 85 8f  	addi	a0, a0, -0x708
   14b08: 33 85 a4 00  	add	a0, s1, a0
   14b0c: 03 25 05 00  	lw	a0, 0x0(a0)
   14b10: 67 00 05 00  	jalr	zero, 0x0(a0)
   14b14: 03 25 04 03  	lw	a0, 0x30(s0)
   14b18: 9b 05 55 ff  	addiw	a1, a0, -0xb
   14b1c: 13 06 50 ff  	addi	a2, zero, -0xb
   14b20: 23 22 a4 04  	sw	a0, 0x44(s0)
   14b24: 63 6c b6 02  	bltu	a2, a1, 0x14b5c <jpeg_set_colorspace+0xb8>
   14b28: 83 35 04 00  	ld	a1, 0x0(s0)
   14b2c: 23 a6 a5 02  	sw	a0, 0x2c(a1)
   14b30: 03 35 04 00  	ld	a0, 0x0(s0)
   14b34: 13 06 80 01  	addi	a2, zero, 0x18
   14b38: 23 a4 c5 02  	sw	a2, 0x28(a1)
   14b3c: 93 05 a0 00  	addi	a1, zero, 0xa
   14b40: 23 28 b5 02  	sw	a1, 0x30(a0)
   14b44: 03 35 04 00  	ld	a0, 0x0(s0)
   14b48: 83 35 05 00  	ld	a1, 0x0(a0)
   14b4c: 13 05 04 00  	addi	a0, s0, 0x0
   14b50: e7 80 05 00  	jalr	ra, 0x0(a1)
   14b54: 03 25 44 04  	lw	a0, 0x44(s0)
   14b58: 63 58 a0 20  	bge	zero, a0, 0x14d68 <jpeg_set_colorspace+0x2c4>
   14b5c: 03 34 04 05  	ld	s0, 0x50(s0)
   14b60: 13 15 05 02  	slli	a0, a0, 0x20
   14b64: 13 55 05 02  	srli	a0, a0, 0x20
   14b68: 13 04 c4 00  	addi	s0, s0, 0xc
   14b6c: 93 05 00 06  	addi	a1, zero, 0x60
   14b70: ef c0 51 5c  	jal	ra, 0x31934 <__muldi3>
   14b74: 93 05 00 00  	addi	a1, zero, 0x0
   14b78: 33 05 a4 00  	add	a0, s0, a0
   14b7c: 13 06 10 00  	addi	a2, zero, 0x1
   14b80: 13 16 06 02  	slli	a2, a2, 0x20
   14b84: 13 06 16 00  	addi	a2, a2, 0x1
   14b88: 23 2a b4 fe  	sw	a1, -0xc(s0)
   14b8c: 23 3e c4 fe  	sd	a2, -0x4(s0)
   14b90: 23 32 04 00  	sd	zero, 0x4(s0)
   14b94: 23 26 04 00  	sw	zero, 0xc(s0)
   14b98: 13 04 04 06  	addi	s0, s0, 0x60
   14b9c: 93 85 15 00  	addi	a1, a1, 0x1
   14ba0: e3 14 a4 fe  	bne	s0, a0, 0x14b88 <jpeg_set_colorspace+0xe4>
   14ba4: 6f 00 40 1c  	jal	zero, 0x14d68 <jpeg_set_colorspace+0x2c4>
   14ba8: 13 05 40 00  	addi	a0, zero, 0x4
   14bac: 23 22 a4 04  	sw	a0, 0x44(s0)
   14bb0: 03 35 04 05  	ld	a0, 0x50(s0)
   14bb4: 93 05 10 00  	addi	a1, zero, 0x1
   14bb8: 23 22 b4 12  	sw	a1, 0x124(s0)
   14bbc: 13 06 30 04  	addi	a2, zero, 0x43
   14bc0: 23 20 c5 00  	sw	a2, 0x0(a0)
   14bc4: 93 95 05 02  	slli	a1, a1, 0x20
   14bc8: 93 85 15 00  	addi	a1, a1, 0x1
   14bcc: 23 34 b5 00  	sd	a1, 0x8(a0)
   14bd0: 23 38 05 00  	sd	zero, 0x10(a0)
   14bd4: 23 2c 05 00  	sw	zero, 0x18(a0)
   14bd8: 13 06 d0 04  	addi	a2, zero, 0x4d
   14bdc: 23 20 c5 06  	sw	a2, 0x60(a0)
   14be0: 23 34 b5 06  	sd	a1, 0x68(a0)
   14be4: 23 38 05 06  	sd	zero, 0x70(a0)
   14be8: 23 2c 05 06  	sw	zero, 0x78(a0)
   14bec: 13 06 90 05  	addi	a2, zero, 0x59
   14bf0: 23 20 c5 0c  	sw	a2, 0xc0(a0)
   14bf4: 23 34 b5 0c  	sd	a1, 0xc8(a0)
   14bf8: 23 38 05 0c  	sd	zero, 0xd0(a0)
   14bfc: 23 2c 05 0c  	sw	zero, 0xd8(a0)
   14c00: 13 06 b0 04  	addi	a2, zero, 0x4b
   14c04: 23 20 c5 12  	sw	a2, 0x120(a0)
   14c08: 23 34 b5 12  	sd	a1, 0x128(a0)
   14c0c: 23 38 05 12  	sd	zero, 0x130(a0)
   14c10: 23 2c 05 12  	sw	zero, 0x138(a0)
   14c14: 6f 00 40 15  	jal	zero, 0x14d68 <jpeg_set_colorspace+0x2c4>
   14c18: 13 05 30 00  	addi	a0, zero, 0x3
   14c1c: 23 22 a4 04  	sw	a0, 0x44(s0)
   14c20: 03 35 04 05  	ld	a0, 0x50(s0)
   14c24: 93 05 10 00  	addi	a1, zero, 0x1
   14c28: 23 22 b4 12  	sw	a1, 0x124(s0)
   14c2c: 13 06 20 05  	addi	a2, zero, 0x52
   14c30: 23 20 c5 00  	sw	a2, 0x0(a0)
   14c34: 93 95 05 02  	slli	a1, a1, 0x20
   14c38: 93 85 15 00  	addi	a1, a1, 0x1
   14c3c: 23 34 b5 00  	sd	a1, 0x8(a0)
   14c40: 23 38 05 00  	sd	zero, 0x10(a0)
   14c44: 23 2c 05 00  	sw	zero, 0x18(a0)
   14c48: 13 06 70 04  	addi	a2, zero, 0x47
   14c4c: 23 20 c5 06  	sw	a2, 0x60(a0)
   14c50: 23 34 b5 06  	sd	a1, 0x68(a0)
   14c54: 23 38 05 06  	sd	zero, 0x70(a0)
   14c58: 23 2c 05 06  	sw	zero, 0x78(a0)
   14c5c: 13 06 20 04  	addi	a2, zero, 0x42
   14c60: 23 20 c5 0c  	sw	a2, 0xc0(a0)
   14c64: 23 34 b5 0c  	sd	a1, 0xc8(a0)
   14c68: 23 38 05 0c  	sd	zero, 0xd0(a0)
   14c6c: 23 2c 05 0c  	sw	zero, 0xd8(a0)
   14c70: 6f 00 80 0f  	jal	zero, 0x14d68 <jpeg_set_colorspace+0x2c4>
   14c74: 13 05 10 00  	addi	a0, zero, 0x1
   14c78: 83 35 04 05  	ld	a1, 0x50(s0)
   14c7c: 23 2c a4 10  	sw	a0, 0x118(s0)
   14c80: 13 06 30 00  	addi	a2, zero, 0x3
   14c84: 23 22 c4 04  	sw	a2, 0x44(s0)
   14c88: 23 a0 a5 00  	sw	a0, 0x0(a1)
   14c8c: 93 16 15 02  	slli	a3, a0, 0x21
   14c90: 93 86 26 00  	addi	a3, a3, 0x2
   14c94: 23 b4 d5 00  	sd	a3, 0x8(a1)
   14c98: 23 b8 05 00  	sd	zero, 0x10(a1)
   14c9c: 23 ac 05 00  	sw	zero, 0x18(a1)
   14ca0: 93 06 20 00  	addi	a3, zero, 0x2
   14ca4: 23 a0 d5 06  	sw	a3, 0x60(a1)
   14ca8: 93 16 05 02  	slli	a3, a0, 0x20
   14cac: 93 86 16 00  	addi	a3, a3, 0x1
   14cb0: 23 b4 d5 06  	sd	a3, 0x68(a1)
   14cb4: 23 b8 d5 06  	sd	a3, 0x70(a1)
   14cb8: 23 ac a5 06  	sw	a0, 0x78(a1)
   14cbc: 23 a0 c5 0c  	sw	a2, 0xc0(a1)
   14cc0: 23 b4 d5 0c  	sd	a3, 0xc8(a1)
   14cc4: 23 b8 d5 0c  	sd	a3, 0xd0(a1)
   14cc8: 23 ac a5 0c  	sw	a0, 0xd8(a1)
   14ccc: 6f 00 c0 09  	jal	zero, 0x14d68 <jpeg_set_colorspace+0x2c4>
   14cd0: 03 35 04 05  	ld	a0, 0x50(s0)
   14cd4: 93 05 10 00  	addi	a1, zero, 0x1
   14cd8: 23 2c b4 10  	sw	a1, 0x118(s0)
   14cdc: 23 22 b4 04  	sw	a1, 0x44(s0)
   14ce0: 23 20 b5 00  	sw	a1, 0x0(a0)
   14ce4: 93 95 05 02  	slli	a1, a1, 0x20
   14ce8: 93 85 15 00  	addi	a1, a1, 0x1
   14cec: 23 34 b5 00  	sd	a1, 0x8(a0)
   14cf0: 23 38 05 00  	sd	zero, 0x10(a0)
   14cf4: 23 2c 05 00  	sw	zero, 0x18(a0)
   14cf8: 6f 00 00 07  	jal	zero, 0x14d68 <jpeg_set_colorspace+0x2c4>
   14cfc: 13 05 10 00  	addi	a0, zero, 0x1
   14d00: 83 35 04 05  	ld	a1, 0x50(s0)
   14d04: 23 22 a4 12  	sw	a0, 0x124(s0)
   14d08: 13 06 40 00  	addi	a2, zero, 0x4
   14d0c: 23 22 c4 04  	sw	a2, 0x44(s0)
   14d10: 23 a0 a5 00  	sw	a0, 0x0(a1)
   14d14: 93 16 15 02  	slli	a3, a0, 0x21
   14d18: 93 86 26 00  	addi	a3, a3, 0x2
   14d1c: 23 b4 d5 00  	sd	a3, 0x8(a1)
   14d20: 23 b8 05 00  	sd	zero, 0x10(a1)
   14d24: 23 ac 05 00  	sw	zero, 0x18(a1)
   14d28: 13 07 20 00  	addi	a4, zero, 0x2
   14d2c: 23 a0 e5 06  	sw	a4, 0x60(a1)
   14d30: 13 17 05 02  	slli	a4, a0, 0x20
   14d34: 13 07 17 00  	addi	a4, a4, 0x1
   14d38: 23 b4 e5 06  	sd	a4, 0x68(a1)
   14d3c: 23 b8 e5 06  	sd	a4, 0x70(a1)
   14d40: 23 ac a5 06  	sw	a0, 0x78(a1)
   14d44: 93 07 30 00  	addi	a5, zero, 0x3
   14d48: 23 a0 f5 0c  	sw	a5, 0xc0(a1)
   14d4c: 23 b4 e5 0c  	sd	a4, 0xc8(a1)
   14d50: 23 b8 e5 0c  	sd	a4, 0xd0(a1)
   14d54: 23 ac a5 0c  	sw	a0, 0xd8(a1)
   14d58: 23 a0 c5 12  	sw	a2, 0x120(a1)
   14d5c: 23 b4 d5 12  	sd	a3, 0x128(a1)
   14d60: 23 b8 05 12  	sd	zero, 0x130(a1)
   14d64: 23 ac 05 12  	sw	zero, 0x138(a1)
   14d68: 83 30 81 01  	ld	ra, 0x18(sp)
   14d6c: 03 34 01 01  	ld	s0, 0x10(sp)
   14d70: 83 34 81 00  	ld	s1, 0x8(sp)
   14d74: 13 01 01 02  	addi	sp, sp, 0x20
   14d78: 67 80 00 00  	jalr	zero, 0x0(ra)
   14d7c: 03 35 04 00  	ld	a0, 0x0(s0)
   14d80: 03 33 05 00  	ld	t1, 0x0(a0)
   14d84: 93 05 80 00  	addi	a1, zero, 0x8
   14d88: 23 24 b5 02  	sw	a1, 0x28(a0)
   14d8c: 13 05 04 00  	addi	a0, s0, 0x0
   14d90: 83 30 81 01  	ld	ra, 0x18(sp)
   14d94: 03 34 01 01  	ld	s0, 0x10(sp)
   14d98: 83 34 81 00  	ld	s1, 0x8(sp)
   14d9c: 13 01 01 02  	addi	sp, sp, 0x20
   14da0: 67 00 03 00  	jalr	zero, 0x0(t1)

0000000000014da4 <jpeg_simple_progression>:
   14da4: 13 01 01 fd  	addi	sp, sp, -0x30
   14da8: 23 34 11 02  	sd	ra, 0x28(sp)
   14dac: 23 30 81 02  	sd	s0, 0x20(sp)
   14db0: 23 3c 91 00  	sd	s1, 0x18(sp)
   14db4: 23 38 21 01  	sd	s2, 0x10(sp)
   14db8: 23 34 31 01  	sd	s3, 0x8(sp)
   14dbc: 93 04 05 00  	addi	s1, a0, 0x0
   14dc0: 03 25 c5 01  	lw	a0, 0x1c(a0)
   14dc4: 03 a4 44 04  	lw	s0, 0x44(s1)
   14dc8: 93 05 40 06  	addi	a1, zero, 0x64
   14dcc: 63 02 b5 02  	beq	a0, a1, 0x14df0 <jpeg_simple_progression+0x4c>
   14dd0: 83 b5 04 00  	ld	a1, 0x0(s1)
   14dd4: 23 a6 a5 02  	sw	a0, 0x2c(a1)
   14dd8: 03 b5 04 00  	ld	a0, 0x0(s1)
   14ddc: 03 36 05 00  	ld	a2, 0x0(a0)
   14de0: 13 05 20 01  	addi	a0, zero, 0x12
   14de4: 23 a4 a5 02  	sw	a0, 0x28(a1)
   14de8: 13 85 04 00  	addi	a0, s1, 0x0
   14dec: e7 00 06 00  	jalr	ra, 0x0(a2)
   14df0: 13 05 30 00  	addi	a0, zero, 0x3
   14df4: 63 1a a4 00  	bne	s0, a0, 0x14e08 <jpeg_simple_progression+0x64>
   14df8: 83 a5 84 04  	lw	a1, 0x48(s1)
   14dfc: 13 09 a0 00  	addi	s2, zero, 0xa
   14e00: 63 92 a5 02  	bne	a1, a0, 0x14e24 <jpeg_simple_progression+0x80>
   14e04: 6f 00 80 02  	jal	zero, 0x14e2c <jpeg_simple_progression+0x88>
   14e08: 13 05 50 00  	addi	a0, zero, 0x5
   14e0c: 63 4c a4 00  	blt	s0, a0, 0x14e24 <jpeg_simple_progression+0x80>
   14e10: 93 05 60 00  	addi	a1, zero, 0x6
   14e14: 13 05 04 00  	addi	a0, s0, 0x0
   14e18: ef c0 d1 31  	jal	ra, 0x31934 <__muldi3>
   14e1c: 13 09 05 00  	addi	s2, a0, 0x0
   14e20: 6f 00 c0 00  	jal	zero, 0x14e2c <jpeg_simple_progression+0x88>
   14e24: 13 19 24 00  	slli	s2, s0, 0x2
   14e28: 13 09 29 00  	addi	s2, s2, 0x2
   14e2c: 03 b5 84 00  	ld	a0, 0x8(s1)
   14e30: 83 39 05 00  	ld	s3, 0x0(a0)
   14e34: 1b 05 09 00  	addiw	a0, s2, 0x0
   14e38: 93 05 40 02  	addi	a1, zero, 0x24
   14e3c: ef c0 91 2f  	jal	ra, 0x31934 <__muldi3>
   14e40: 13 06 05 00  	addi	a2, a0, 0x0
   14e44: 13 85 04 00  	addi	a0, s1, 0x0
   14e48: 93 05 00 00  	addi	a1, zero, 0x0
   14e4c: e7 80 09 00  	jalr	ra, 0x0(s3)
   14e50: 23 a4 24 0f  	sw	s2, 0xe8(s1)
   14e54: 93 05 30 00  	addi	a1, zero, 0x3
   14e58: 23 b8 a4 0e  	sd	a0, 0xf0(s1)
   14e5c: 63 1c b4 14  	bne	s0, a1, 0x14fb4 <jpeg_simple_progression+0x210>
   14e60: 03 a6 84 04  	lw	a2, 0x48(s1)
   14e64: 63 16 b6 18  	bne	a2, a1, 0x14ff0 <jpeg_simple_progression+0x24c>
   14e68: 93 05 00 00  	addi	a1, zero, 0x0
   14e6c: 13 06 30 00  	addi	a2, zero, 0x3
   14e70: 23 20 c5 00  	sw	a2, 0x0(a0)
   14e74: 13 06 45 00  	addi	a2, a0, 0x4
   14e78: 93 06 05 01  	addi	a3, a0, 0x10
   14e7c: 23 20 b6 00  	sw	a1, 0x0(a2)
   14e80: 13 06 46 00  	addi	a2, a2, 0x4
   14e84: 93 85 15 00  	addi	a1, a1, 0x1
   14e88: e3 1a d6 fe  	bne	a2, a3, 0x14e7c <jpeg_simple_progression+0xd8>
   14e8c: 93 05 00 00  	addi	a1, zero, 0x0
   14e90: 23 2c 05 00  	sw	zero, 0x18(a0)
   14e94: 23 2a 05 00  	sw	zero, 0x14(a0)
   14e98: 23 2e 05 00  	sw	zero, 0x1c(a0)
   14e9c: 13 06 10 00  	addi	a2, zero, 0x1
   14ea0: 23 20 c5 02  	sw	a2, 0x20(a0)
   14ea4: 23 22 c5 02  	sw	a2, 0x24(a0)
   14ea8: 23 24 05 02  	sw	zero, 0x28(a0)
   14eac: 23 2c c5 02  	sw	a2, 0x38(a0)
   14eb0: 93 06 50 00  	addi	a3, zero, 0x5
   14eb4: 23 2e d5 02  	sw	a3, 0x3c(a0)
   14eb8: 23 20 05 04  	sw	zero, 0x40(a0)
   14ebc: 93 06 20 00  	addi	a3, zero, 0x2
   14ec0: 23 22 d5 04  	sw	a3, 0x44(a0)
   14ec4: 23 24 c5 04  	sw	a2, 0x48(a0)
   14ec8: 23 26 d5 04  	sw	a3, 0x4c(a0)
   14ecc: 23 2e c5 04  	sw	a2, 0x5c(a0)
   14ed0: 13 07 60 00  	addi	a4, zero, 0x6
   14ed4: 23 22 e5 0a  	sw	a4, 0xa4(a0)
   14ed8: 13 07 f0 03  	addi	a4, zero, 0x3f
   14edc: 23 20 e5 06  	sw	a4, 0x60(a0)
   14ee0: 23 22 05 06  	sw	zero, 0x64(a0)
   14ee4: 23 24 c5 06  	sw	a2, 0x68(a0)
   14ee8: 23 26 c5 06  	sw	a2, 0x6c(a0)
   14eec: 23 28 c5 06  	sw	a2, 0x70(a0)
   14ef0: 23 20 c5 08  	sw	a2, 0x80(a0)
   14ef4: 23 22 e5 08  	sw	a4, 0x84(a0)
   14ef8: 23 24 05 08  	sw	zero, 0x88(a0)
   14efc: 23 26 c5 08  	sw	a2, 0x8c(a0)
   14f00: 23 28 c5 08  	sw	a2, 0x90(a0)
   14f04: 23 2a 05 08  	sw	zero, 0x94(a0)
   14f08: 23 24 e5 0a  	sw	a4, 0xa8(a0)
   14f0c: 23 26 05 0a  	sw	zero, 0xac(a0)
   14f10: 23 28 d5 0a  	sw	a3, 0xb0(a0)
   14f14: 23 2a c5 0a  	sw	a2, 0xb4(a0)
   14f18: 23 2c 05 0a  	sw	zero, 0xb8(a0)
   14f1c: 23 24 c5 0c  	sw	a2, 0xc8(a0)
   14f20: 23 26 e5 0c  	sw	a4, 0xcc(a0)
   14f24: 23 28 d5 0c  	sw	a3, 0xd0(a0)
   14f28: 23 2a c5 0c  	sw	a2, 0xd4(a0)
   14f2c: 13 06 30 00  	addi	a2, zero, 0x3
   14f30: 23 2c c5 0c  	sw	a2, 0xd8(a0)
   14f34: 13 06 c5 0d  	addi	a2, a0, 0xdc
   14f38: 93 06 85 0e  	addi	a3, a0, 0xe8
   14f3c: 23 20 b6 00  	sw	a1, 0x0(a2)
   14f40: 13 06 46 00  	addi	a2, a2, 0x4
   14f44: 93 85 15 00  	addi	a1, a1, 0x1
   14f48: e3 1a d6 fe  	bne	a2, a3, 0x14f3c <jpeg_simple_progression+0x198>
   14f4c: 23 28 05 0e  	sw	zero, 0xf0(a0)
   14f50: 23 26 05 0e  	sw	zero, 0xec(a0)
   14f54: 93 05 10 00  	addi	a1, zero, 0x1
   14f58: 23 2a b5 0e  	sw	a1, 0xf4(a0)
   14f5c: 23 2c 05 0e  	sw	zero, 0xf8(a0)
   14f60: 23 2e b5 0e  	sw	a1, 0xfc(a0)
   14f64: 13 06 20 00  	addi	a2, zero, 0x2
   14f68: 23 20 c5 10  	sw	a2, 0x100(a0)
   14f6c: 23 28 b5 10  	sw	a1, 0x110(a0)
   14f70: 13 06 f0 03  	addi	a2, zero, 0x3f
   14f74: 23 2a c5 10  	sw	a2, 0x114(a0)
   14f78: 23 2c b5 10  	sw	a1, 0x118(a0)
   14f7c: 23 2e 05 10  	sw	zero, 0x11c(a0)
   14f80: 23 20 b5 12  	sw	a1, 0x120(a0)
   14f84: 23 22 b5 12  	sw	a1, 0x124(a0)
   14f88: 23 2a b5 12  	sw	a1, 0x134(a0)
   14f8c: 23 2c c5 12  	sw	a2, 0x138(a0)
   14f90: 23 2e b5 12  	sw	a1, 0x13c(a0)
   14f94: 23 20 05 14  	sw	zero, 0x140(a0)
   14f98: 23 22 b5 14  	sw	a1, 0x144(a0)
   14f9c: 23 24 05 14  	sw	zero, 0x148(a0)
   14fa0: 23 2c b5 14  	sw	a1, 0x158(a0)
   14fa4: 23 2e c5 14  	sw	a2, 0x15c(a0)
   14fa8: 23 20 b5 16  	sw	a1, 0x160(a0)
   14fac: 23 22 05 16  	sw	zero, 0x164(a0)
   14fb0: 6f 00 00 13  	jal	zero, 0x150e0 <jpeg_simple_progression+0x33c>
   14fb4: 93 06 10 00  	addi	a3, zero, 0x1
   14fb8: 93 05 04 00  	addi	a1, s0, 0x0
   14fbc: 13 06 00 00  	addi	a2, zero, 0x0
   14fc0: ef 00 c0 13  	jal	ra, 0x150fc <fill_dc_scans>
   14fc4: 63 4e 80 02  	blt	zero, s0, 0x15000 <jpeg_simple_progression+0x25c>
   14fc8: 13 06 10 00  	addi	a2, zero, 0x1
   14fcc: 93 05 04 00  	addi	a1, s0, 0x0
   14fd0: 93 06 00 00  	addi	a3, zero, 0x0
   14fd4: 83 30 81 02  	ld	ra, 0x28(sp)
   14fd8: 03 34 01 02  	ld	s0, 0x20(sp)
   14fdc: 83 34 81 01  	ld	s1, 0x18(sp)
   14fe0: 03 39 01 01  	ld	s2, 0x10(sp)
   14fe4: 83 39 81 00  	ld	s3, 0x8(sp)
   14fe8: 13 01 01 03  	addi	sp, sp, 0x30
   14fec: 6f 00 00 11  	jal	zero, 0x150fc <fill_dc_scans>
   14ff0: 93 06 10 00  	addi	a3, zero, 0x1
   14ff4: 93 05 04 00  	addi	a1, s0, 0x0
   14ff8: 13 06 00 00  	addi	a2, zero, 0x0
   14ffc: ef 00 00 10  	jal	ra, 0x150fc <fill_dc_scans>
   15000: 93 05 00 00  	addi	a1, zero, 0x0
   15004: 13 06 10 00  	addi	a2, zero, 0x1
   15008: 93 06 50 00  	addi	a3, zero, 0x5
   1500c: 13 07 20 00  	addi	a4, zero, 0x2
   15010: 23 20 c5 00  	sw	a2, 0x0(a0)
   15014: 23 22 b5 00  	sw	a1, 0x4(a0)
   15018: 23 2a c5 00  	sw	a2, 0x14(a0)
   1501c: 23 2c d5 00  	sw	a3, 0x18(a0)
   15020: 23 2e 05 00  	sw	zero, 0x1c(a0)
   15024: 23 20 e5 02  	sw	a4, 0x20(a0)
   15028: 9b 85 15 00  	addiw	a1, a1, 0x1
   1502c: 13 05 45 02  	addi	a0, a0, 0x24
   15030: e3 10 b4 fe  	bne	s0, a1, 0x15010 <jpeg_simple_progression+0x26c>
   15034: 93 05 00 00  	addi	a1, zero, 0x0
   15038: 13 06 10 00  	addi	a2, zero, 0x1
   1503c: 93 06 60 00  	addi	a3, zero, 0x6
   15040: 13 07 f0 03  	addi	a4, zero, 0x3f
   15044: 93 07 20 00  	addi	a5, zero, 0x2
   15048: 23 20 c5 00  	sw	a2, 0x0(a0)
   1504c: 23 22 b5 00  	sw	a1, 0x4(a0)
   15050: 23 2a d5 00  	sw	a3, 0x14(a0)
   15054: 23 2c e5 00  	sw	a4, 0x18(a0)
   15058: 23 2e 05 00  	sw	zero, 0x1c(a0)
   1505c: 23 20 f5 02  	sw	a5, 0x20(a0)
   15060: 9b 85 15 00  	addiw	a1, a1, 0x1
   15064: 13 05 45 02  	addi	a0, a0, 0x24
   15068: e3 10 b4 fe  	bne	s0, a1, 0x15048 <jpeg_simple_progression+0x2a4>
   1506c: 93 05 00 00  	addi	a1, zero, 0x0
   15070: 13 06 10 00  	addi	a2, zero, 0x1
   15074: 93 06 f0 03  	addi	a3, zero, 0x3f
   15078: 13 07 20 00  	addi	a4, zero, 0x2
   1507c: 23 20 c5 00  	sw	a2, 0x0(a0)
   15080: 23 22 b5 00  	sw	a1, 0x4(a0)
   15084: 23 2a c5 00  	sw	a2, 0x14(a0)
   15088: 23 2c d5 00  	sw	a3, 0x18(a0)
   1508c: 23 2e e5 00  	sw	a4, 0x1c(a0)
   15090: 23 20 c5 02  	sw	a2, 0x20(a0)
   15094: 9b 85 15 00  	addiw	a1, a1, 0x1
   15098: 13 05 45 02  	addi	a0, a0, 0x24
   1509c: e3 10 b4 fe  	bne	s0, a1, 0x1507c <jpeg_simple_progression+0x2d8>
   150a0: 13 06 10 00  	addi	a2, zero, 0x1
   150a4: 93 04 10 00  	addi	s1, zero, 0x1
   150a8: 93 05 04 00  	addi	a1, s0, 0x0
   150ac: 93 06 00 00  	addi	a3, zero, 0x0
   150b0: ef 00 c0 04  	jal	ra, 0x150fc <fill_dc_scans>
   150b4: 93 05 00 00  	addi	a1, zero, 0x0
   150b8: 13 06 f0 03  	addi	a2, zero, 0x3f
   150bc: 23 20 95 00  	sw	s1, 0x0(a0)
   150c0: 23 22 b5 00  	sw	a1, 0x4(a0)
   150c4: 23 2a 95 00  	sw	s1, 0x14(a0)
   150c8: 23 2c c5 00  	sw	a2, 0x18(a0)
   150cc: 23 2e 95 00  	sw	s1, 0x1c(a0)
   150d0: 23 20 05 02  	sw	zero, 0x20(a0)
   150d4: 9b 85 15 00  	addiw	a1, a1, 0x1
   150d8: 13 05 45 02  	addi	a0, a0, 0x24
   150dc: e3 10 b4 fe  	bne	s0, a1, 0x150bc <jpeg_simple_progression+0x318>
   150e0: 83 30 81 02  	ld	ra, 0x28(sp)
   150e4: 03 34 01 02  	ld	s0, 0x20(sp)
   150e8: 83 34 81 01  	ld	s1, 0x18(sp)
   150ec: 03 39 01 01  	ld	s2, 0x10(sp)
   150f0: 83 39 81 00  	ld	s3, 0x8(sp)
   150f4: 13 01 01 03  	addi	sp, sp, 0x30
   150f8: 67 80 00 00  	jalr	zero, 0x0(ra)

00000000000150fc <fill_dc_scans>:
   150fc: 13 07 50 00  	addi	a4, zero, 0x5
   15100: 63 d2 e5 04  	bge	a1, a4, 0x15144 <fill_dc_scans+0x48>
   15104: 23 20 b5 00  	sw	a1, 0x0(a0)
   15108: 63 52 b0 02  	bge	zero, a1, 0x1512c <fill_dc_scans+0x30>
   1510c: 13 07 00 00  	addi	a4, zero, 0x0
   15110: 93 07 45 00  	addi	a5, a0, 0x4
   15114: 93 95 25 00  	slli	a1, a1, 0x2
   15118: b3 85 b7 00  	add	a1, a5, a1
   1511c: 23 a0 e7 00  	sw	a4, 0x0(a5)
   15120: 93 87 47 00  	addi	a5, a5, 0x4
   15124: 13 07 17 00  	addi	a4, a4, 0x1
   15128: e3 9a b7 fe  	bne	a5, a1, 0x1511c <fill_dc_scans+0x20>
   1512c: 23 2c 05 00  	sw	zero, 0x18(a0)
   15130: 23 2a 05 00  	sw	zero, 0x14(a0)
   15134: 23 2e c5 00  	sw	a2, 0x1c(a0)
   15138: 23 20 d5 02  	sw	a3, 0x20(a0)
   1513c: 13 05 45 02  	addi	a0, a0, 0x24
   15140: 67 80 00 00  	jalr	zero, 0x0(ra)
   15144: 13 07 00 00  	addi	a4, zero, 0x0
   15148: 93 07 10 00  	addi	a5, zero, 0x1
   1514c: 23 20 f5 00  	sw	a5, 0x0(a0)
   15150: 23 22 e5 00  	sw	a4, 0x4(a0)
   15154: 23 2a 05 00  	sw	zero, 0x14(a0)
   15158: 23 2c 05 00  	sw	zero, 0x18(a0)
   1515c: 23 2e c5 00  	sw	a2, 0x1c(a0)
   15160: 23 20 d5 02  	sw	a3, 0x20(a0)
   15164: 1b 07 17 00  	addiw	a4, a4, 0x1
   15168: 13 05 45 02  	addi	a0, a0, 0x24
   1516c: e3 90 e5 fe  	bne	a1, a4, 0x1514c <fill_dc_scans+0x50>
   15170: 67 80 00 00  	jalr	zero, 0x0(ra)

0000000000015174 <jpeg_stdio_dest>:
   15174: ef c2 a1 77  	jal	t0, 0x318ee <__riscv_save_3>
   15178: 93 04 05 00  	addi	s1, a0, 0x0
   1517c: 03 35 05 02  	ld	a0, 0x20(a0)
   15180: 13 84 05 00  	addi	s0, a1, 0x0
   15184: 63 10 05 02  	bne	a0, zero, 0x151a4 <jpeg_stdio_dest+0x30>
   15188: 03 b5 84 00  	ld	a0, 0x8(s1)
   1518c: 83 36 05 00  	ld	a3, 0x0(a0)
   15190: 13 06 80 03  	addi	a2, zero, 0x38
   15194: 13 85 04 00  	addi	a0, s1, 0x0
   15198: 93 05 00 00  	addi	a1, zero, 0x0
   1519c: e7 80 06 00  	jalr	ra, 0x0(a3)
   151a0: 23 b0 a4 02  	sd	a0, 0x20(s1)
   151a4: b7 55 01 00  	lui	a1, 0x15
   151a8: 93 85 05 1d  	addi	a1, a1, 0x1d0
   151ac: 23 38 b5 00  	sd	a1, 0x10(a0)
   151b0: b7 55 01 00  	lui	a1, 0x15
   151b4: 93 85 05 20  	addi	a1, a1, 0x200
   151b8: 23 3c b5 00  	sd	a1, 0x18(a0)
   151bc: b7 55 01 00  	lui	a1, 0x15
   151c0: 93 85 45 25  	addi	a1, a1, 0x254
   151c4: 23 30 b5 02  	sd	a1, 0x20(a0)
   151c8: 23 34 85 02  	sd	s0, 0x28(a0)
   151cc: 6f c0 81 75  	jal	zero, 0x31924 <__riscv_restore_3>

00000000000151d0 <init_destination>:
   151d0: ef c2 e1 71  	jal	t0, 0x318ee <__riscv_save_3>
   151d4: 83 35 85 00  	ld	a1, 0x8(a0)
   151d8: 03 34 05 02  	ld	s0, 0x20(a0)
   151dc: 83 b6 05 00  	ld	a3, 0x0(a1)
   151e0: 93 05 10 00  	addi	a1, zero, 0x1
   151e4: 37 16 00 00  	lui	a2, 0x1
   151e8: b7 14 00 00  	lui	s1, 0x1
   151ec: e7 80 06 00  	jalr	ra, 0x0(a3)
   151f0: 23 38 a4 02  	sd	a0, 0x30(s0)
   151f4: 23 30 a4 00  	sd	a0, 0x0(s0)
   151f8: 23 34 94 00  	sd	s1, 0x8(s0)
   151fc: 6f c0 81 72  	jal	zero, 0x31924 <__riscv_restore_3>

0000000000015200 <empty_output_buffer>:
   15200: ef c2 e1 6e  	jal	t0, 0x318ee <__riscv_save_3>
   15204: 13 04 05 00  	addi	s0, a0, 0x0
   15208: 83 34 05 02  	ld	s1, 0x20(a0)
   1520c: 03 b5 04 03  	ld	a0, 0x30(s1)
   15210: 83 b6 84 02  	ld	a3, 0x28(s1)
   15214: 93 05 10 00  	addi	a1, zero, 0x1
   15218: 37 16 00 00  	lui	a2, 0x1
   1521c: 37 19 00 00  	lui	s2, 0x1
   15220: ef 90 c0 7b  	jal	ra, 0x1e9dc <fwrite>
   15224: 63 0e 25 01  	beq	a0, s2, 0x15240 <empty_output_buffer+0x40>
   15228: 03 35 04 00  	ld	a0, 0x0(s0)
   1522c: 83 35 05 00  	ld	a1, 0x0(a0)
   15230: 13 06 40 02  	addi	a2, zero, 0x24
   15234: 23 24 c5 02  	sw	a2, 0x28(a0)
   15238: 13 05 04 00  	addi	a0, s0, 0x0
   1523c: e7 80 05 00  	jalr	ra, 0x0(a1)
   15240: 03 b5 04 03  	ld	a0, 0x30(s1)
   15244: 23 b0 a4 00  	sd	a0, 0x0(s1)
   15248: 13 05 10 00  	addi	a0, zero, 0x1
   1524c: 23 b4 24 01  	sd	s2, 0x8(s1)
   15250: 6f c0 41 6d  	jal	zero, 0x31924 <__riscv_restore_3>

0000000000015254 <term_destination>:
   15254: 13 01 01 fe  	addi	sp, sp, -0x20
   15258: 23 3c 11 00  	sd	ra, 0x18(sp)
   1525c: 23 38 81 00  	sd	s0, 0x10(sp)
   15260: 23 34 91 00  	sd	s1, 0x8(sp)
   15264: 23 30 21 01  	sd	s2, 0x0(sp)
   15268: 13 04 05 00  	addi	s0, a0, 0x0
   1526c: 03 39 05 02  	ld	s2, 0x20(a0)
   15270: 83 35 89 00  	ld	a1, 0x8(s2)
   15274: b7 14 00 00  	lui	s1, 0x1
   15278: 63 8c 95 02  	beq	a1, s1, 0x152b0 <term_destination+0x5c>
   1527c: 03 35 09 03  	ld	a0, 0x30(s2)
   15280: 83 36 89 02  	ld	a3, 0x28(s2)
   15284: b3 84 b4 40  	sub	s1, s1, a1
   15288: 93 05 10 00  	addi	a1, zero, 0x1
   1528c: 13 86 04 00  	addi	a2, s1, 0x0
   15290: ef 90 c0 74  	jal	ra, 0x1e9dc <fwrite>
   15294: 63 0e 95 00  	beq	a0, s1, 0x152b0 <term_destination+0x5c>
   15298: 03 35 04 00  	ld	a0, 0x0(s0)
   1529c: 83 35 05 00  	ld	a1, 0x0(a0)
   152a0: 13 06 40 02  	addi	a2, zero, 0x24
   152a4: 23 24 c5 02  	sw	a2, 0x28(a0)
   152a8: 13 05 04 00  	addi	a0, s0, 0x0
   152ac: e7 80 05 00  	jalr	ra, 0x0(a1)
   152b0: 03 35 89 02  	ld	a0, 0x28(s2)
   152b4: ef 90 e0 07  	jal	ra, 0x1e332 <fflush>
   152b8: 03 35 89 02  	ld	a0, 0x28(s2)
   152bc: 03 45 05 01  	lbu	a0, 0x10(a0)
   152c0: 13 75 05 04  	andi	a0, a0, 0x40
   152c4: 63 1e 05 00  	bne	a0, zero, 0x152e0 <term_destination+0x8c>
   152c8: 83 30 81 01  	ld	ra, 0x18(sp)
   152cc: 03 34 01 01  	ld	s0, 0x10(sp)
   152d0: 83 34 81 00  	ld	s1, 0x8(sp)
   152d4: 03 39 01 00  	ld	s2, 0x0(sp)
   152d8: 13 01 01 02  	addi	sp, sp, 0x20
   152dc: 67 80 00 00  	jalr	zero, 0x0(ra)
   152e0: 03 35 04 00  	ld	a0, 0x0(s0)
   152e4: 03 33 05 00  	ld	t1, 0x0(a0)
   152e8: 93 05 40 02  	addi	a1, zero, 0x24
   152ec: 23 24 b5 02  	sw	a1, 0x28(a0)
   152f0: 13 05 04 00  	addi	a0, s0, 0x0
   152f4: 83 30 81 01  	ld	ra, 0x18(sp)
   152f8: 03 34 01 01  	ld	s0, 0x10(sp)
   152fc: 83 34 81 00  	ld	s1, 0x8(sp)
   15300: 03 39 01 00  	ld	s2, 0x0(sp)
   15304: 13 01 01 02  	addi	sp, sp, 0x20
   15308: 67 00 03 00  	jalr	zero, 0x0(t1)

000000000001530c <jinit_compress_master>:
   1530c: 13 01 01 ff  	addi	sp, sp, -0x10
   15310: 23 34 11 00  	sd	ra, 0x8(sp)
   15314: 23 30 81 00  	sd	s0, 0x0(sp)
   15318: 13 04 05 00  	addi	s0, a0, 0x0
   1531c: 93 05 00 00  	addi	a1, zero, 0x0
   15320: ef 00 c0 0c  	jal	ra, 0x153ec <jinit_c_master_control>
   15324: 03 25 84 0f  	lw	a0, 0xf8(s0)
   15328: 63 10 05 02  	bne	a0, zero, 0x15348 <jinit_compress_master+0x3c>
   1532c: 13 05 04 00  	addi	a0, s0, 0x0
   15330: ef 20 d0 33  	jal	ra, 0x17e6c <jinit_color_converter>
   15334: 13 05 04 00  	addi	a0, s0, 0x0
   15338: ef 30 80 32  	jal	ra, 0x18660 <jinit_downsampler>
   1533c: 13 05 04 00  	addi	a0, s0, 0x0
   15340: 93 05 00 00  	addi	a1, zero, 0x0
   15344: ef 10 10 33  	jal	ra, 0x16e74 <jinit_c_prep_controller>
   15348: 13 05 04 00  	addi	a0, s0, 0x0
   1534c: ef 60 80 52  	jal	ra, 0x1b874 <jinit_forward_dct>
   15350: 03 25 c4 0f  	lw	a0, 0xfc(s0)
   15354: 63 00 05 02  	beq	a0, zero, 0x15374 <jinit_compress_master+0x68>
   15358: 03 35 04 00  	ld	a0, 0x0(s0)
   1535c: 83 35 05 00  	ld	a1, 0x0(a0)
   15360: 13 06 10 00  	addi	a2, zero, 0x1
   15364: 23 24 c5 02  	sw	a2, 0x28(a0)
   15368: 13 05 04 00  	addi	a0, s0, 0x0
   1536c: e7 80 05 00  	jalr	ra, 0x0(a1)
   15370: 6f 00 00 02  	jal	zero, 0x15390 <jinit_compress_master+0x84>
   15374: 03 25 c4 12  	lw	a0, 0x12c(s0)
   15378: 63 08 05 00  	beq	a0, zero, 0x15388 <jinit_compress_master+0x7c>
   1537c: 13 05 04 00  	addi	a0, s0, 0x0
   15380: ef 50 80 38  	jal	ra, 0x1a708 <jinit_phuff_encoder>
   15384: 6f 00 c0 00  	jal	zero, 0x15390 <jinit_compress_master+0x84>
   15388: 13 05 04 00  	addi	a0, s0, 0x0
   1538c: ef 40 80 3b  	jal	ra, 0x19744 <jinit_huff_encoder>
   15390: 03 25 84 0e  	lw	a0, 0xe8(s0)
   15394: 93 05 10 00  	addi	a1, zero, 0x1
   15398: 63 c6 a5 00  	blt	a1, a0, 0x153a4 <jinit_compress_master+0x98>
   1539c: 03 25 04 10  	lw	a0, 0x100(s0)
   153a0: b3 35 a0 00  	sltu	a1, zero, a0
   153a4: 13 05 04 00  	addi	a0, s0, 0x0
   153a8: ef 20 00 19  	jal	ra, 0x17538 <jinit_c_coef_controller>
   153ac: 13 05 04 00  	addi	a0, s0, 0x0
   153b0: 93 05 00 00  	addi	a1, zero, 0x0
   153b4: ef 10 90 0a  	jal	ra, 0x16c5c <jinit_c_main_controller>
   153b8: 13 05 04 00  	addi	a0, s0, 0x0
   153bc: ef 00 50 57  	jal	ra, 0x16130 <jinit_marker_writer>
   153c0: 03 35 84 00  	ld	a0, 0x8(s0)
   153c4: 83 35 05 03  	ld	a1, 0x30(a0)
   153c8: 13 05 04 00  	addi	a0, s0, 0x0
   153cc: e7 80 05 00  	jalr	ra, 0x0(a1)
   153d0: 03 35 84 1c  	ld	a0, 0x1c8(s0)
   153d4: 03 33 85 00  	ld	t1, 0x8(a0)
   153d8: 13 05 04 00  	addi	a0, s0, 0x0
   153dc: 83 30 81 00  	ld	ra, 0x8(sp)
   153e0: 03 34 01 00  	ld	s0, 0x0(sp)
   153e4: 13 01 01 01  	addi	sp, sp, 0x10
   153e8: 67 00 03 00  	jalr	zero, 0x0(t1)

00000000000153ec <jinit_c_master_control>:
   153ec: ef c2 21 4d  	jal	t0, 0x318be <__riscv_save_12>
   153f0: 13 01 01 80  	addi	sp, sp, -0x800
   153f4: 13 01 01 d9  	addi	sp, sp, -0x270
   153f8: 13 04 05 00  	addi	s0, a0, 0x0
   153fc: 03 35 85 00  	ld	a0, 0x8(a0)
   15400: 83 36 05 00  	ld	a3, 0x0(a0)
   15404: 93 8b 05 00  	addi	s7, a1, 0x0
   15408: 93 05 10 00  	addi	a1, zero, 0x1
   1540c: 13 06 00 03  	addi	a2, zero, 0x30
   15410: 13 05 04 00  	addi	a0, s0, 0x0
   15414: e7 80 06 00  	jalr	ra, 0x0(a3)
   15418: 13 0b 05 00  	addi	s6, a0, 0x0
   1541c: 37 65 01 00  	lui	a0, 0x16
   15420: 13 05 05 b7  	addi	a0, a0, -0x490
   15424: 23 30 ab 00  	sd	a0, 0x0(s6)
   15428: 37 65 01 00  	lui	a0, 0x16
   1542c: 13 05 85 d6  	addi	a0, a0, -0x298
   15430: 23 34 ab 00  	sd	a0, 0x8(s6)
   15434: b7 65 01 00  	lui	a1, 0x16
   15438: 03 25 c4 02  	lw	a0, 0x2c(s0)
   1543c: 93 85 c5 da  	addi	a1, a1, -0x254
   15440: 23 38 bb 00  	sd	a1, 0x10(s6)
   15444: 23 34 64 1b  	sd	s6, 0x1a8(s0)
   15448: 23 2e 0b 00  	sw	zero, 0x1c(s6)
   1544c: 63 0e 05 00  	beq	a0, zero, 0x15468 <jinit_c_master_control+0x7c>
   15450: 83 25 84 02  	lw	a1, 0x28(s0)
   15454: 63 8a 05 00  	beq	a1, zero, 0x15468 <jinit_c_master_control+0x7c>
   15458: 83 25 44 04  	lw	a1, 0x44(s0)
   1545c: 63 56 b0 00  	bge	zero, a1, 0x15468 <jinit_c_master_control+0x7c>
   15460: 83 25 04 03  	lw	a1, 0x30(s0)
   15464: 63 40 b0 02  	blt	zero, a1, 0x15484 <jinit_c_master_control+0x98>
   15468: 03 35 04 00  	ld	a0, 0x0(s0)
   1546c: 83 35 05 00  	ld	a1, 0x0(a0)
   15470: 13 06 f0 01  	addi	a2, zero, 0x1f
   15474: 23 24 c5 02  	sw	a2, 0x28(a0)
   15478: 13 05 04 00  	addi	a0, s0, 0x0
   1547c: e7 80 05 00  	jalr	ra, 0x0(a1)
   15480: 03 25 c4 02  	lw	a0, 0x2c(s0)
   15484: 37 06 01 00  	lui	a2, 0x10
   15488: 9b 05 c6 fd  	addiw	a1, a2, -0x24
   1548c: 63 e8 a5 00  	bltu	a1, a0, 0x1549c <jinit_c_master_control+0xb0>
   15490: 83 25 84 02  	lw	a1, 0x28(s0)
   15494: 1b 05 d6 fd  	addiw	a0, a2, -0x23
   15498: 63 e6 a5 02  	bltu	a1, a0, 0x154c4 <jinit_c_master_control+0xd8>
   1549c: 03 35 04 00  	ld	a0, 0x0(s0)
   154a0: b7 75 ff 03  	lui	a1, 0x3ff7
   154a4: 93 95 65 01  	slli	a1, a1, 0x16
   154a8: 93 85 85 02  	addi	a1, a1, 0x28
   154ac: 23 34 b5 02  	sd	a1, 0x28(a0)
   154b0: 03 35 04 00  	ld	a0, 0x0(s0)
   154b4: 83 35 05 00  	ld	a1, 0x0(a0)
   154b8: 13 05 04 00  	addi	a0, s0, 0x0
   154bc: e7 80 05 00  	jalr	ra, 0x0(a1)
   154c0: 83 25 84 02  	lw	a1, 0x28(s0)
   154c4: 03 25 04 03  	lw	a0, 0x30(s0)
   154c8: 93 95 05 02  	slli	a1, a1, 0x20
   154cc: 93 d5 05 02  	srli	a1, a1, 0x20
   154d0: ef c0 41 46  	jal	ra, 0x31934 <__muldi3>
   154d4: 13 55 05 02  	srli	a0, a0, 0x20
   154d8: 63 0e 05 00  	beq	a0, zero, 0x154f4 <jinit_c_master_control+0x108>
   154dc: 03 35 04 00  	ld	a0, 0x0(s0)
   154e0: 83 35 05 00  	ld	a1, 0x0(a0)
   154e4: 13 06 50 04  	addi	a2, zero, 0x45
   154e8: 23 24 c5 02  	sw	a2, 0x28(a0)
   154ec: 13 05 04 00  	addi	a0, s0, 0x0
   154f0: e7 80 05 00  	jalr	ra, 0x0(a1)
   154f4: 03 25 04 04  	lw	a0, 0x40(s0)
   154f8: 93 05 80 00  	addi	a1, zero, 0x8
   154fc: 63 02 b5 02  	beq	a0, a1, 0x15520 <jinit_c_master_control+0x134>
   15500: 83 35 04 00  	ld	a1, 0x0(s0)
   15504: 23 a6 a5 02  	sw	a0, 0x2c(a1)
   15508: 03 35 04 00  	ld	a0, 0x0(s0)
   1550c: 03 36 05 00  	ld	a2, 0x0(a0)
   15510: 13 05 d0 00  	addi	a0, zero, 0xd
   15514: 23 a4 a5 02  	sw	a0, 0x28(a1)
   15518: 13 05 04 00  	addi	a0, s0, 0x0
   1551c: e7 00 06 00  	jalr	ra, 0x0(a2)
   15520: 03 25 44 04  	lw	a0, 0x44(s0)
   15524: 93 05 b0 00  	addi	a1, zero, 0xb
   15528: 63 4a b5 02  	blt	a0, a1, 0x1555c <jinit_c_master_control+0x170>
   1552c: 83 35 04 00  	ld	a1, 0x0(s0)
   15530: 23 a6 a5 02  	sw	a0, 0x2c(a1)
   15534: 03 35 04 00  	ld	a0, 0x0(s0)
   15538: 13 06 80 01  	addi	a2, zero, 0x18
   1553c: 23 a4 c5 02  	sw	a2, 0x28(a1)
   15540: 93 05 a0 00  	addi	a1, zero, 0xa
   15544: 23 28 b5 02  	sw	a1, 0x30(a0)
   15548: 03 35 04 00  	ld	a0, 0x0(s0)
   1554c: 83 35 05 00  	ld	a1, 0x0(a0)
   15550: 13 05 04 00  	addi	a0, s0, 0x0
   15554: e7 80 05 00  	jalr	ra, 0x0(a1)
   15558: 03 25 44 04  	lw	a0, 0x44(s0)
   1555c: 93 05 10 00  	addi	a1, zero, 0x1
   15560: 13 96 05 02  	slli	a2, a1, 0x20
   15564: 13 06 16 00  	addi	a2, a2, 0x1
   15568: 23 38 c4 12  	sd	a2, 0x130(s0)
   1556c: 63 5a a0 12  	bge	zero, a0, 0x156a0 <jinit_c_master_control+0x2b4>
   15570: 03 39 04 05  	ld	s2, 0x50(s0)
   15574: 93 04 00 00  	addi	s1, zero, 0x0
   15578: 13 09 c9 00  	addi	s2, s2, 0xc
   1557c: 93 05 10 00  	addi	a1, zero, 0x1
   15580: 93 09 c0 ff  	addi	s3, zero, -0x4
   15584: 13 0a 00 01  	addi	s4, zero, 0x10
   15588: 93 0a b0 ff  	addi	s5, zero, -0x5
   1558c: 13 06 10 00  	addi	a2, zero, 0x1
   15590: 03 27 c9 ff  	lw	a4, -0x4(s2)
   15594: 9b 06 b7 ff  	addiw	a3, a4, -0x5
   15598: 63 e8 36 01  	bltu	a3, s3, 0x155a8 <jinit_c_master_control+0x1bc>
   1559c: 83 26 09 00  	lw	a3, 0x0(s2)
   155a0: 9b 87 b6 ff  	addiw	a5, a3, -0x5
   155a4: 63 e6 fa 02  	bltu	s5, a5, 0x155d0 <jinit_c_master_control+0x1e4>
   155a8: 03 35 04 00  	ld	a0, 0x0(s0)
   155ac: 83 35 05 00  	ld	a1, 0x0(a0)
   155b0: 23 24 45 03  	sw	s4, 0x28(a0)
   155b4: 13 05 04 00  	addi	a0, s0, 0x0
   155b8: e7 80 05 00  	jalr	ra, 0x0(a1)
   155bc: 03 26 04 13  	lw	a2, 0x130(s0)
   155c0: 03 27 c9 ff  	lw	a4, -0x4(s2)
   155c4: 83 25 44 13  	lw	a1, 0x134(s0)
   155c8: 83 26 09 00  	lw	a3, 0x0(s2)
   155cc: 03 25 44 04  	lw	a0, 0x44(s0)
   155d0: 63 44 c7 00  	blt	a4, a2, 0x155d8 <jinit_c_master_control+0x1ec>
   155d4: 13 06 07 00  	addi	a2, a4, 0x0
   155d8: 23 28 c4 12  	sw	a2, 0x130(s0)
   155dc: 63 c4 b6 00  	blt	a3, a1, 0x155e4 <jinit_c_master_control+0x1f8>
   155e0: 93 85 06 00  	addi	a1, a3, 0x0
   155e4: 23 2a b4 12  	sw	a1, 0x134(s0)
   155e8: 9b 84 14 00  	addiw	s1, s1, 0x1
   155ec: 13 09 09 06  	addi	s2, s2, 0x60
   155f0: e3 c0 a4 fa  	blt	s1, a0, 0x15590 <jinit_c_master_control+0x1a4>
   155f4: 63 56 a0 0a  	bge	zero, a0, 0x156a0 <jinit_c_master_control+0x2b4>
   155f8: 03 39 04 05  	ld	s2, 0x50(s0)
   155fc: 93 04 00 00  	addi	s1, zero, 0x0
   15600: 13 09 c9 01  	addi	s2, s2, 0x1c
   15604: 93 09 80 00  	addi	s3, zero, 0x8
   15608: 13 0a 10 00  	addi	s4, zero, 0x1
   1560c: 83 65 84 02  	lwu	a1, 0x28(s0)
   15610: 03 25 c9 fe  	lw	a0, -0x14(s2)
   15614: 23 24 99 fe  	sw	s1, -0x18(s2)
   15618: 23 24 39 01  	sw	s3, 0x8(s2)
   1561c: ef c0 81 31  	jal	ra, 0x31934 <__muldi3>
   15620: 83 25 04 13  	lw	a1, 0x130(s0)
   15624: 9b 95 35 00  	slliw	a1, a1, 0x3
   15628: ef 70 40 0c  	jal	ra, 0x1c6ec <jdiv_round_up>
   1562c: 83 65 c4 02  	lwu	a1, 0x2c(s0)
   15630: 03 26 09 ff  	lw	a2, -0x10(s2)
   15634: 23 20 a9 00  	sw	a0, 0x0(s2)
   15638: 13 05 06 00  	addi	a0, a2, 0x0
   1563c: ef c0 81 2f  	jal	ra, 0x31934 <__muldi3>
   15640: 83 25 44 13  	lw	a1, 0x134(s0)
   15644: 9b 95 35 00  	slliw	a1, a1, 0x3
   15648: ef 70 40 0a  	jal	ra, 0x1c6ec <jdiv_round_up>
   1564c: 83 65 84 02  	lwu	a1, 0x28(s0)
   15650: 03 26 c9 fe  	lw	a2, -0x14(s2)
   15654: 23 22 a9 00  	sw	a0, 0x4(s2)
   15658: 13 05 06 00  	addi	a0, a2, 0x0
   1565c: ef c0 81 2d  	jal	ra, 0x31934 <__muldi3>
   15660: 83 25 04 13  	lw	a1, 0x130(s0)
   15664: ef 70 80 08  	jal	ra, 0x1c6ec <jdiv_round_up>
   15668: 83 65 c4 02  	lwu	a1, 0x2c(s0)
   1566c: 03 26 09 ff  	lw	a2, -0x10(s2)
   15670: 23 26 a9 00  	sw	a0, 0xc(s2)
   15674: 13 05 06 00  	addi	a0, a2, 0x0
   15678: ef c0 c1 2b  	jal	ra, 0x31934 <__muldi3>
   1567c: 83 25 44 13  	lw	a1, 0x134(s0)
   15680: ef 70 c0 06  	jal	ra, 0x1c6ec <jdiv_round_up>
   15684: 83 25 44 04  	lw	a1, 0x44(s0)
   15688: 23 28 a9 00  	sw	a0, 0x10(s2)
   1568c: 23 2a 49 01  	sw	s4, 0x14(s2)
   15690: 9b 84 14 00  	addiw	s1, s1, 0x1
   15694: 13 09 09 06  	addi	s2, s2, 0x60
   15698: e3 ca b4 f6  	blt	s1, a1, 0x1560c <jinit_c_master_control+0x220>
   1569c: 83 25 44 13  	lw	a1, 0x134(s0)
   156a0: 03 65 c4 02  	lwu	a0, 0x2c(s0)
   156a4: 9b 95 35 00  	slliw	a1, a1, 0x3
   156a8: ef 70 40 04  	jal	ra, 0x1c6ec <jdiv_round_up>
   156ac: 83 3a 04 0f  	ld	s5, 0xf0(s0)
   156b0: 23 2c a4 12  	sw	a0, 0x138(s0)
   156b4: 93 09 84 0e  	addi	s3, s0, 0xe8
   156b8: 63 82 0a 40  	beq	s5, zero, 0x15abc <jinit_c_master_control+0x6d0>
   156bc: 03 a5 09 00  	lw	a0, 0x0(s3)
   156c0: 63 42 a0 02  	blt	zero, a0, 0x156e4 <jinit_c_master_control+0x2f8>
   156c4: 03 35 04 00  	ld	a0, 0x0(s0)
   156c8: 93 05 10 01  	addi	a1, zero, 0x11
   156cc: 23 34 b5 02  	sd	a1, 0x28(a0)
   156d0: 03 35 04 00  	ld	a0, 0x0(s0)
   156d4: 83 35 05 00  	ld	a1, 0x0(a0)
   156d8: 13 05 04 00  	addi	a0, s0, 0x0
   156dc: e7 80 05 00  	jalr	ra, 0x0(a1)
   156e0: 83 3a 04 0f  	ld	s5, 0xf0(s0)
   156e4: 03 a5 4a 01  	lw	a0, 0x14(s5)
   156e8: 63 1c 05 02  	bne	a0, zero, 0x15720 <jinit_c_master_control+0x334>
   156ec: 03 a5 8a 01  	lw	a0, 0x18(s5)
   156f0: 93 05 f0 03  	addi	a1, zero, 0x3f
   156f4: 63 16 b5 02  	bne	a0, a1, 0x15720 <jinit_c_master_control+0x334>
   156f8: 83 24 44 04  	lw	s1, 0x44(s0)
   156fc: 23 26 04 12  	sw	zero, 0x12c(s0)
   15700: 63 5c 90 00  	bge	zero, s1, 0x15718 <jinit_c_master_control+0x32c>
   15704: 13 96 24 00  	slli	a2, s1, 0x2
   15708: 13 05 f1 7f  	addi	a0, sp, 0x7ff
   1570c: 13 05 95 24  	addi	a0, a0, 0x249
   15710: 93 05 00 00  	addi	a1, zero, 0x0
   15714: ef a0 20 01  	jal	ra, 0x1f726 <memset>
   15718: 13 09 00 00  	addi	s2, zero, 0x0
   1571c: 6f 00 40 02  	jal	zero, 0x15740 <jinit_c_master_control+0x354>
   15720: 83 24 44 04  	lw	s1, 0x44(s0)
   15724: 13 09 10 00  	addi	s2, zero, 0x1
   15728: 23 26 24 13  	sw	s2, 0x12c(s0)
   1572c: 63 5a 90 00  	bge	zero, s1, 0x15740 <jinit_c_master_control+0x354>
   15730: 13 96 84 00  	slli	a2, s1, 0x8
   15734: 13 05 81 04  	addi	a0, sp, 0x48
   15738: 93 05 f0 0f  	addi	a1, zero, 0xff
   1573c: ef 90 b0 7e  	jal	ra, 0x1f726 <memset>
   15740: 03 a5 09 00  	lw	a0, 0x0(s3)
   15744: 63 5a a0 32  	bge	zero, a0, 0x15a78 <jinit_c_master_control+0x68c>
   15748: 23 38 71 01  	sd	s7, 0x10(sp)
   1574c: 23 3c 61 01  	sd	s6, 0x18(sp)
   15750: 13 8a 4a 00  	addi	s4, s5, 0x4
   15754: 13 0b 10 01  	addi	s6, zero, 0x11
   15758: 13 09 f0 00  	addi	s2, zero, 0xf
   1575c: 13 05 10 00  	addi	a0, zero, 0x1
   15760: 23 30 31 03  	sd	s3, 0x20(sp)
   15764: 03 ec 0a 00  	lwu	s8, 0x0(s5)
   15768: 13 0d 05 00  	addi	s10, a0, 0x0
   1576c: 1b 05 bc ff  	addiw	a0, s8, -0x5
   15770: 9b 05 0c 00  	addiw	a1, s8, 0x0
   15774: 23 30 b1 04  	sd	a1, 0x40(sp)
   15778: 93 05 b0 ff  	addi	a1, zero, -0x5
   1577c: 23 34 41 03  	sd	s4, 0x28(sp)
   15780: 63 ec a5 02  	bltu	a1, a0, 0x157b8 <jinit_c_master_control+0x3cc>
   15784: 03 35 04 00  	ld	a0, 0x0(s0)
   15788: 83 34 01 04  	ld	s1, 0x40(sp)
   1578c: 23 26 95 02  	sw	s1, 0x2c(a0)
   15790: 83 35 04 00  	ld	a1, 0x0(s0)
   15794: 13 06 80 01  	addi	a2, zero, 0x18
   15798: 23 24 c5 02  	sw	a2, 0x28(a0)
   1579c: 13 05 40 00  	addi	a0, zero, 0x4
   157a0: 23 a8 a5 02  	sw	a0, 0x30(a1)
   157a4: 03 35 04 00  	ld	a0, 0x0(s0)
   157a8: 83 35 05 00  	ld	a1, 0x0(a0)
   157ac: 13 05 04 00  	addi	a0, s0, 0x0
   157b0: e7 80 05 00  	jalr	ra, 0x0(a1)
   157b4: 63 54 90 2a  	bge	zero, s1, 0x15a5c <jinit_c_master_control+0x670>
   157b8: 93 04 00 00  	addi	s1, zero, 0x0
   157bc: 93 09 0a 00  	addi	s3, s4, 0x0
   157c0: 03 aa 09 00  	lw	s4, 0x0(s3)
   157c4: 63 46 0a 00  	blt	s4, zero, 0x157d0 <jinit_c_master_control+0x3e4>
   157c8: 03 25 44 04  	lw	a0, 0x44(s0)
   157cc: 63 40 aa 02  	blt	s4, a0, 0x157ec <jinit_c_master_control+0x400>
   157d0: 03 35 04 00  	ld	a0, 0x0(s0)
   157d4: 23 26 a5 03  	sw	s10, 0x2c(a0)
   157d8: 83 35 04 00  	ld	a1, 0x0(s0)
   157dc: 83 b5 05 00  	ld	a1, 0x0(a1)
   157e0: 23 24 65 03  	sw	s6, 0x28(a0)
   157e4: 13 05 04 00  	addi	a0, s0, 0x0
   157e8: e7 80 05 00  	jalr	ra, 0x0(a1)
   157ec: 63 84 04 02  	beq	s1, zero, 0x15814 <jinit_c_master_control+0x428>
   157f0: 03 a5 c9 ff  	lw	a0, -0x4(s3)
   157f4: 63 40 45 03  	blt	a0, s4, 0x15814 <jinit_c_master_control+0x428>
   157f8: 03 35 04 00  	ld	a0, 0x0(s0)
   157fc: 23 26 a5 03  	sw	s10, 0x2c(a0)
   15800: 83 35 04 00  	ld	a1, 0x0(s0)
   15804: 83 b5 05 00  	ld	a1, 0x0(a1)
   15808: 23 24 65 03  	sw	s6, 0x28(a0)
   1580c: 13 05 04 00  	addi	a0, s0, 0x0
   15810: e7 80 05 00  	jalr	ra, 0x0(a1)
   15814: 93 84 14 00  	addi	s1, s1, 0x1
   15818: 93 89 49 00  	addi	s3, s3, 0x4
   1581c: e3 12 9c fa  	bne	s8, s1, 0x157c0 <jinit_c_master_control+0x3d4>
   15820: 93 0c 10 01  	addi	s9, zero, 0x11
   15824: 13 0a 10 00  	addi	s4, zero, 0x1
   15828: 03 ab 4a 01  	lw	s6, 0x14(s5)
   1582c: 83 ab 8a 01  	lw	s7, 0x18(s5)
   15830: 83 a4 ca 01  	lw	s1, 0x1c(s5)
   15834: 03 25 c4 12  	lw	a0, 0x12c(s0)
   15838: 83 a9 0a 02  	lw	s3, 0x20(s5)
   1583c: 63 06 05 02  	beq	a0, zero, 0x15868 <jinit_c_master_control+0x47c>
   15840: 13 05 f0 03  	addi	a0, zero, 0x3f
   15844: 63 78 65 0b  	bgeu	a0, s6, 0x158f4 <jinit_c_master_control+0x508>
   15848: 03 35 04 00  	ld	a0, 0x0(s0)
   1584c: 23 26 a5 03  	sw	s10, 0x2c(a0)
   15850: 83 35 04 00  	ld	a1, 0x0(s0)
   15854: 83 b5 05 00  	ld	a1, 0x0(a1)
   15858: 23 24 25 03  	sw	s2, 0x28(a0)
   1585c: 13 05 04 00  	addi	a0, s0, 0x0
   15860: e7 80 05 00  	jalr	ra, 0x0(a1)
   15864: 6f 00 40 0b  	jal	zero, 0x15918 <jinit_c_master_control+0x52c>
   15868: 63 1a 0b 00  	bne	s6, zero, 0x1587c <jinit_c_master_control+0x490>
   1586c: 13 05 f0 03  	addi	a0, zero, 0x3f
   15870: 63 96 ab 00  	bne	s7, a0, 0x1587c <jinit_c_master_control+0x490>
   15874: 63 94 04 00  	bne	s1, zero, 0x1587c <jinit_c_master_control+0x490>
   15878: 63 80 09 02  	beq	s3, zero, 0x15898 <jinit_c_master_control+0x4ac>
   1587c: 03 35 04 00  	ld	a0, 0x0(s0)
   15880: 23 26 a5 03  	sw	s10, 0x2c(a0)
   15884: 83 35 04 00  	ld	a1, 0x0(s0)
   15888: 83 b5 05 00  	ld	a1, 0x0(a1)
   1588c: 23 24 25 03  	sw	s2, 0x28(a0)
   15890: 13 05 04 00  	addi	a0, s0, 0x0
   15894: e7 80 05 00  	jalr	ra, 0x0(a1)
   15898: 63 0c 0a 18  	beq	s4, zero, 0x15a30 <jinit_c_master_control+0x644>
   1589c: 93 14 2c 00  	slli	s1, s8, 0x2
   158a0: 83 39 81 02  	ld	s3, 0x28(sp)
   158a4: b3 84 99 00  	add	s1, s3, s1
   158a8: 03 a5 09 00  	lw	a0, 0x0(s3)
   158ac: 13 15 25 00  	slli	a0, a0, 0x2
   158b0: 13 0a f1 7f  	addi	s4, sp, 0x7ff
   158b4: 13 0a 9a 24  	addi	s4, s4, 0x249
   158b8: 33 0a aa 00  	add	s4, s4, a0
   158bc: 03 25 0a 00  	lw	a0, 0x0(s4)
   158c0: 63 00 05 02  	beq	a0, zero, 0x158e0 <jinit_c_master_control+0x4f4>
   158c4: 03 35 04 00  	ld	a0, 0x0(s0)
   158c8: 23 26 a5 03  	sw	s10, 0x2c(a0)
   158cc: 83 35 04 00  	ld	a1, 0x0(s0)
   158d0: 83 b5 05 00  	ld	a1, 0x0(a1)
   158d4: 23 24 95 03  	sw	s9, 0x28(a0)
   158d8: 13 05 04 00  	addi	a0, s0, 0x0
   158dc: e7 80 05 00  	jalr	ra, 0x0(a1)
   158e0: 93 89 49 00  	addi	s3, s3, 0x4
   158e4: 13 05 10 00  	addi	a0, zero, 0x1
   158e8: 23 20 aa 00  	sw	a0, 0x0(s4)
   158ec: e3 9e 99 fa  	bne	s3, s1, 0x158a8 <jinit_c_master_control+0x4bc>
   158f0: 6f 00 00 14  	jal	zero, 0x15a30 <jinit_c_master_control+0x644>
   158f4: e3 ca 6b f5  	blt	s7, s6, 0x15848 <jinit_c_master_control+0x45c>
   158f8: 13 05 f0 03  	addi	a0, zero, 0x3f
   158fc: e3 46 75 f5  	blt	a0, s7, 0x15848 <jinit_c_master_control+0x45c>
   15900: e3 c4 04 f4  	blt	s1, zero, 0x15848 <jinit_c_master_control+0x45c>
   15904: 13 05 d0 00  	addi	a0, zero, 0xd
   15908: e3 40 95 f4  	blt	a0, s1, 0x15848 <jinit_c_master_control+0x45c>
   1590c: e3 ce 09 f2  	blt	s3, zero, 0x15848 <jinit_c_master_control+0x45c>
   15910: 13 05 e0 00  	addi	a0, zero, 0xe
   15914: e3 da a9 f2  	bge	s3, a0, 0x15848 <jinit_c_master_control+0x45c>
   15918: 63 0e 0b 12  	beq	s6, zero, 0x15a54 <jinit_c_master_control+0x668>
   1591c: 13 05 10 00  	addi	a0, zero, 0x1
   15920: 83 35 01 04  	ld	a1, 0x40(sp)
   15924: 63 80 a5 02  	beq	a1, a0, 0x15944 <jinit_c_master_control+0x558>
   15928: 03 35 04 00  	ld	a0, 0x0(s0)
   1592c: 23 26 a5 03  	sw	s10, 0x2c(a0)
   15930: 83 35 04 00  	ld	a1, 0x0(s0)
   15934: 83 b5 05 00  	ld	a1, 0x0(a1)
   15938: 23 24 25 03  	sw	s2, 0x28(a0)
   1593c: 13 05 04 00  	addi	a0, s0, 0x0
   15940: e7 80 05 00  	jalr	ra, 0x0(a1)
   15944: 63 06 0a 0e  	beq	s4, zero, 0x15a30 <jinit_c_master_control+0x644>
   15948: 13 0c 00 00  	addi	s8, zero, 0x0
   1594c: 13 1a 2b 00  	slli	s4, s6, 0x2
   15950: 3b 85 6b 41  	subw	a0, s7, s6
   15954: 13 15 05 02  	slli	a0, a0, 0x20
   15958: 13 55 e5 01  	srli	a0, a0, 0x1e
   1595c: 93 05 c1 04  	addi	a1, sp, 0x4c
   15960: b3 85 45 01  	add	a1, a1, s4
   15964: 33 85 a5 00  	add	a0, a1, a0
   15968: 23 3c a1 02  	sd	a0, 0x38(sp)
   1596c: 9b 8d f4 ff  	addiw	s11, s1, -0x1
   15970: 13 05 81 04  	addi	a0, sp, 0x48
   15974: 33 05 45 01  	add	a0, a0, s4
   15978: 23 38 a1 02  	sd	a0, 0x30(sp)
   1597c: 13 15 2c 00  	slli	a0, s8, 0x2
   15980: 13 8a 0a 00  	addi	s4, s5, 0x0
   15984: 33 85 aa 00  	add	a0, s5, a0
   15988: 83 2a 45 00  	lw	s5, 0x4(a0)
   1598c: 93 9a 8a 00  	slli	s5, s5, 0x8
   15990: 63 0a 0b 00  	beq	s6, zero, 0x159a4 <jinit_c_master_control+0x5b8>
   15994: 13 05 81 04  	addi	a0, sp, 0x48
   15998: 33 05 55 01  	add	a0, a0, s5
   1599c: 03 25 05 00  	lw	a0, 0x0(a0)
   159a0: 63 46 05 06  	blt	a0, zero, 0x15a0c <jinit_c_master_control+0x620>
   159a4: 63 ca 6b 05  	blt	s7, s6, 0x159f8 <jinit_c_master_control+0x60c>
   159a8: 83 3c 01 03  	ld	s9, 0x30(sp)
   159ac: b3 8c 5c 01  	add	s9, s9, s5
   159b0: 03 35 81 03  	ld	a0, 0x38(sp)
   159b4: b3 0a 55 01  	add	s5, a0, s5
   159b8: 03 a5 0c 00  	lw	a0, 0x0(s9)
   159bc: 63 48 05 00  	blt	a0, zero, 0x159cc <jinit_c_master_control+0x5e0>
   159c0: 63 98 a4 00  	bne	s1, a0, 0x159d0 <jinit_c_master_control+0x5e4>
   159c4: 63 84 b9 03  	beq	s3, s11, 0x159ec <jinit_c_master_control+0x600>
   159c8: 6f 00 80 00  	jal	zero, 0x159d0 <jinit_c_master_control+0x5e4>
   159cc: 63 80 04 02  	beq	s1, zero, 0x159ec <jinit_c_master_control+0x600>
   159d0: 03 35 04 00  	ld	a0, 0x0(s0)
   159d4: 23 26 a5 03  	sw	s10, 0x2c(a0)
   159d8: 83 35 04 00  	ld	a1, 0x0(s0)
   159dc: 83 b5 05 00  	ld	a1, 0x0(a1)
   159e0: 23 24 25 03  	sw	s2, 0x28(a0)
   159e4: 13 05 04 00  	addi	a0, s0, 0x0
   159e8: e7 80 05 00  	jalr	ra, 0x0(a1)
   159ec: 23 a0 3c 01  	sw	s3, 0x0(s9)
   159f0: 93 8c 4c 00  	addi	s9, s9, 0x4
   159f4: e3 92 5c fd  	bne	s9, s5, 0x159b8 <jinit_c_master_control+0x5cc>
   159f8: 13 0c 1c 00  	addi	s8, s8, 0x1
   159fc: 93 0a 0a 00  	addi	s5, s4, 0x0
   15a00: 03 35 01 04  	ld	a0, 0x40(sp)
   15a04: e3 1c ac f6  	bne	s8, a0, 0x1597c <jinit_c_master_control+0x590>
   15a08: 6f 00 80 02  	jal	zero, 0x15a30 <jinit_c_master_control+0x644>
   15a0c: 03 35 04 00  	ld	a0, 0x0(s0)
   15a10: 23 26 a5 03  	sw	s10, 0x2c(a0)
   15a14: 83 35 04 00  	ld	a1, 0x0(s0)
   15a18: 83 b5 05 00  	ld	a1, 0x0(a1)
   15a1c: 23 24 25 03  	sw	s2, 0x28(a0)
   15a20: 13 05 04 00  	addi	a0, s0, 0x0
   15a24: e7 80 05 00  	jalr	ra, 0x0(a1)
   15a28: e3 d0 6b f9  	bge	s7, s6, 0x159a8 <jinit_c_master_control+0x5bc>
   15a2c: 6f f0 df fc  	jal	zero, 0x159f8 <jinit_c_master_control+0x60c>
   15a30: 83 39 01 02  	ld	s3, 0x20(sp)
   15a34: 83 a5 09 00  	lw	a1, 0x0(s3)
   15a38: 93 8a 4a 02  	addi	s5, s5, 0x24
   15a3c: 1b 05 1d 00  	addiw	a0, s10, 0x1
   15a40: 03 3a 81 02  	ld	s4, 0x28(sp)
   15a44: 13 0a 4a 02  	addi	s4, s4, 0x24
   15a48: 13 0b 10 01  	addi	s6, zero, 0x11
   15a4c: e3 4c bd d0  	blt	s10, a1, 0x15764 <jinit_c_master_control+0x378>
   15a50: 6f 00 80 01  	jal	zero, 0x15a68 <jinit_c_master_control+0x67c>
   15a54: e3 9a 0b ec  	bne	s7, zero, 0x15928 <jinit_c_master_control+0x53c>
   15a58: 6f f0 df ee  	jal	zero, 0x15944 <jinit_c_master_control+0x558>
   15a5c: 93 0c 10 01  	addi	s9, zero, 0x11
   15a60: 13 0a 00 00  	addi	s4, zero, 0x0
   15a64: 6f f0 5f dc  	jal	zero, 0x15828 <jinit_c_master_control+0x43c>
   15a68: 03 29 c4 12  	lw	s2, 0x12c(s0)
   15a6c: 83 24 44 04  	lw	s1, 0x44(s0)
   15a70: 03 3b 81 01  	ld	s6, 0x18(sp)
   15a74: 83 3b 01 01  	ld	s7, 0x10(sp)
   15a78: 63 06 09 04  	beq	s2, zero, 0x15ac4 <jinit_c_master_control+0x6d8>
   15a7c: 63 54 90 08  	bge	zero, s1, 0x15b04 <jinit_c_master_control+0x718>
   15a80: 13 09 00 00  	addi	s2, zero, 0x0
   15a84: 93 09 81 04  	addi	s3, sp, 0x48
   15a88: 13 0a c0 02  	addi	s4, zero, 0x2c
   15a8c: 03 a5 09 00  	lw	a0, 0x0(s3)
   15a90: 63 5e 05 00  	bge	a0, zero, 0x15aac <jinit_c_master_control+0x6c0>
   15a94: 03 35 04 00  	ld	a0, 0x0(s0)
   15a98: 83 35 05 00  	ld	a1, 0x0(a0)
   15a9c: 23 24 45 03  	sw	s4, 0x28(a0)
   15aa0: 13 05 04 00  	addi	a0, s0, 0x0
   15aa4: e7 80 05 00  	jalr	ra, 0x0(a1)
   15aa8: 83 24 44 04  	lw	s1, 0x44(s0)
   15aac: 13 09 19 00  	addi	s2, s2, 0x1
   15ab0: 93 89 09 10  	addi	s3, s3, 0x100
   15ab4: e3 4c 99 fc  	blt	s2, s1, 0x15a8c <jinit_c_master_control+0x6a0>
   15ab8: 6f 00 c0 04  	jal	zero, 0x15b04 <jinit_c_master_control+0x718>
   15abc: 23 26 04 12  	sw	zero, 0x12c(s0)
   15ac0: 6f 00 00 05  	jal	zero, 0x15b10 <jinit_c_master_control+0x724>
   15ac4: 63 50 90 04  	bge	zero, s1, 0x15b04 <jinit_c_master_control+0x718>
   15ac8: 13 09 00 00  	addi	s2, zero, 0x0
   15acc: 93 09 f1 7f  	addi	s3, sp, 0x7ff
   15ad0: 93 89 99 24  	addi	s3, s3, 0x249
   15ad4: 13 0a c0 02  	addi	s4, zero, 0x2c
   15ad8: 03 a5 09 00  	lw	a0, 0x0(s3)
   15adc: 63 1e 05 00  	bne	a0, zero, 0x15af8 <jinit_c_master_control+0x70c>
   15ae0: 03 35 04 00  	ld	a0, 0x0(s0)
   15ae4: 83 35 05 00  	ld	a1, 0x0(a0)
   15ae8: 23 24 45 03  	sw	s4, 0x28(a0)
   15aec: 13 05 04 00  	addi	a0, s0, 0x0
   15af0: e7 80 05 00  	jalr	ra, 0x0(a1)
   15af4: 83 24 44 04  	lw	s1, 0x44(s0)
   15af8: 13 09 19 00  	addi	s2, s2, 0x1
   15afc: 93 89 49 00  	addi	s3, s3, 0x4
   15b00: e3 4c 99 fc  	blt	s2, s1, 0x15ad8 <jinit_c_master_control+0x6ec>
   15b04: 03 25 c4 12  	lw	a0, 0x12c(s0)
   15b08: 63 08 05 00  	beq	a0, zero, 0x15b18 <jinit_c_master_control+0x72c>
   15b0c: 93 09 04 10  	addi	s3, s0, 0x100
   15b10: 13 05 10 00  	addi	a0, zero, 0x1
   15b14: 23 a0 a9 00  	sw	a0, 0x0(s3)
   15b18: 63 8e 0b 00  	beq	s7, zero, 0x15b34 <jinit_c_master_control+0x748>
   15b1c: 03 25 04 10  	lw	a0, 0x100(s0)
   15b20: 63 08 05 02  	beq	a0, zero, 0x15b50 <jinit_c_master_control+0x764>
   15b24: 13 05 10 00  	addi	a0, zero, 0x1
   15b28: 23 30 ab 02  	sd	a0, 0x20(s6)
   15b2c: 23 26 0b 02  	sw	zero, 0x2c(s6)
   15b30: 6f 00 40 01  	jal	zero, 0x15b44 <jinit_c_master_control+0x758>
   15b34: 23 30 0b 02  	sd	zero, 0x20(s6)
   15b38: 03 25 04 10  	lw	a0, 0x100(s0)
   15b3c: 23 26 0b 02  	sw	zero, 0x2c(s6)
   15b40: 63 0e 05 00  	beq	a0, zero, 0x15b5c <jinit_c_master_control+0x770>
   15b44: 03 25 84 0e  	lw	a0, 0xe8(s0)
   15b48: 13 15 15 00  	slli	a0, a0, 0x1
   15b4c: 6f 00 40 01  	jal	zero, 0x15b60 <jinit_c_master_control+0x774>
   15b50: 13 05 20 00  	addi	a0, zero, 0x2
   15b54: 23 30 ab 02  	sd	a0, 0x20(s6)
   15b58: 23 26 0b 02  	sw	zero, 0x2c(s6)
   15b5c: 03 25 84 0e  	lw	a0, 0xe8(s0)
   15b60: 23 24 ab 02  	sw	a0, 0x28(s6)
   15b64: 13 01 01 7f  	addi	sp, sp, 0x7f0
   15b68: 13 01 01 28  	addi	sp, sp, 0x280
   15b6c: 6f b0 d1 59  	jal	zero, 0x31908 <__riscv_restore_12>

0000000000015b70 <prepare_for_pass>:
   15b70: ef b2 f1 57  	jal	t0, 0x318ee <__riscv_save_3>
   15b74: 13 04 05 00  	addi	s0, a0, 0x0
   15b78: 83 34 85 1a  	ld	s1, 0x1a8(a0)
   15b7c: 03 a5 04 02  	lw	a0, 0x20(s1)
   15b80: 93 05 20 00  	addi	a1, zero, 0x2
   15b84: 63 06 b5 14  	beq	a0, a1, 0x15cd0 <prepare_for_pass+0x160>
   15b88: 93 05 10 00  	addi	a1, zero, 0x1
   15b8c: 63 00 b5 0c  	beq	a0, a1, 0x15c4c <prepare_for_pass+0xdc>
   15b90: 63 10 05 10  	bne	a0, zero, 0x15c90 <prepare_for_pass+0x120>
   15b94: 13 05 04 00  	addi	a0, s0, 0x0
   15b98: ef 00 40 29  	jal	ra, 0x15e2c <select_scan_parameters>
   15b9c: 13 05 04 00  	addi	a0, s0, 0x0
   15ba0: ef 00 00 3b  	jal	ra, 0x15f50 <per_scan_setup>
   15ba4: 03 25 84 0f  	lw	a0, 0xf8(s0)
   15ba8: 63 1c 05 02  	bne	a0, zero, 0x15be0 <prepare_for_pass+0x70>
   15bac: 03 35 04 1d  	ld	a0, 0x1d0(s0)
   15bb0: 83 35 05 00  	ld	a1, 0x0(a0)
   15bb4: 13 05 04 00  	addi	a0, s0, 0x0
   15bb8: e7 80 05 00  	jalr	ra, 0x0(a1)
   15bbc: 03 35 84 1d  	ld	a0, 0x1d8(s0)
   15bc0: 83 35 05 00  	ld	a1, 0x0(a0)
   15bc4: 13 05 04 00  	addi	a0, s0, 0x0
   15bc8: e7 80 05 00  	jalr	ra, 0x0(a1)
   15bcc: 03 35 84 1b  	ld	a0, 0x1b8(s0)
   15bd0: 03 36 05 00  	ld	a2, 0x0(a0)
   15bd4: 13 05 04 00  	addi	a0, s0, 0x0
   15bd8: 93 05 00 00  	addi	a1, zero, 0x0
   15bdc: e7 00 06 00  	jalr	ra, 0x0(a2)
   15be0: 03 35 04 1e  	ld	a0, 0x1e0(s0)
   15be4: 83 35 05 00  	ld	a1, 0x0(a0)
   15be8: 13 05 04 00  	addi	a0, s0, 0x0
   15bec: e7 80 05 00  	jalr	ra, 0x0(a1)
   15bf0: 03 35 84 1e  	ld	a0, 0x1e8(s0)
   15bf4: 03 36 05 00  	ld	a2, 0x0(a0)
   15bf8: 83 25 04 10  	lw	a1, 0x100(s0)
   15bfc: 13 05 04 00  	addi	a0, s0, 0x0
   15c00: e7 00 06 00  	jalr	ra, 0x0(a2)
   15c04: 03 35 04 1c  	ld	a0, 0x1c0(s0)
   15c08: 83 a5 84 02  	lw	a1, 0x28(s1)
   15c0c: 03 36 05 00  	ld	a2, 0x0(a0)
   15c10: 13 a5 25 00  	slti	a0, a1, 0x2
   15c14: 13 05 f5 ff  	addi	a0, a0, -0x1
   15c18: 93 75 35 00  	andi	a1, a0, 0x3
   15c1c: 13 05 04 00  	addi	a0, s0, 0x0
   15c20: e7 00 06 00  	jalr	ra, 0x0(a2)
   15c24: 03 35 04 1b  	ld	a0, 0x1b0(s0)
   15c28: 03 36 05 00  	ld	a2, 0x0(a0)
   15c2c: 13 05 04 00  	addi	a0, s0, 0x0
   15c30: 93 05 00 00  	addi	a1, zero, 0x0
   15c34: e7 00 06 00  	jalr	ra, 0x0(a2)
   15c38: 03 25 04 10  	lw	a0, 0x100(s0)
   15c3c: 63 1e 05 0e  	bne	a0, zero, 0x15d38 <prepare_for_pass+0x1c8>
   15c40: 13 05 10 00  	addi	a0, zero, 0x1
   15c44: 23 ac a4 00  	sw	a0, 0x18(s1)
   15c48: 6f 00 40 0f  	jal	zero, 0x15d3c <prepare_for_pass+0x1cc>
   15c4c: 13 05 04 00  	addi	a0, s0, 0x0
   15c50: ef 00 c0 1d  	jal	ra, 0x15e2c <select_scan_parameters>
   15c54: 13 05 04 00  	addi	a0, s0, 0x0
   15c58: ef 00 80 2f  	jal	ra, 0x15f50 <per_scan_setup>
   15c5c: 03 25 44 19  	lw	a0, 0x194(s0)
   15c60: 63 06 05 04  	beq	a0, zero, 0x15cac <prepare_for_pass+0x13c>
   15c64: 03 35 84 1e  	ld	a0, 0x1e8(s0)
   15c68: 03 36 05 00  	ld	a2, 0x0(a0)
   15c6c: 93 05 10 00  	addi	a1, zero, 0x1
   15c70: 13 05 04 00  	addi	a0, s0, 0x0
   15c74: e7 00 06 00  	jalr	ra, 0x0(a2)
   15c78: 03 35 04 1c  	ld	a0, 0x1c0(s0)
   15c7c: 03 36 05 00  	ld	a2, 0x0(a0)
   15c80: 93 05 20 00  	addi	a1, zero, 0x2
   15c84: 13 05 04 00  	addi	a0, s0, 0x0
   15c88: e7 00 06 00  	jalr	ra, 0x0(a2)
   15c8c: 6f 00 c0 0a  	jal	zero, 0x15d38 <prepare_for_pass+0x1c8>
   15c90: 03 35 04 00  	ld	a0, 0x0(s0)
   15c94: 83 35 05 00  	ld	a1, 0x0(a0)
   15c98: 13 06 f0 02  	addi	a2, zero, 0x2f
   15c9c: 23 24 c5 02  	sw	a2, 0x28(a0)
   15ca0: 13 05 04 00  	addi	a0, s0, 0x0
   15ca4: e7 80 05 00  	jalr	ra, 0x0(a1)
   15ca8: 6f 00 40 09  	jal	zero, 0x15d3c <prepare_for_pass+0x1cc>
   15cac: 03 25 c4 19  	lw	a0, 0x19c(s0)
   15cb0: e3 0a 05 fa  	beq	a0, zero, 0x15c64 <prepare_for_pass+0xf4>
   15cb4: 03 25 c4 0f  	lw	a0, 0xfc(s0)
   15cb8: e3 16 05 fa  	bne	a0, zero, 0x15c64 <prepare_for_pass+0xf4>
   15cbc: 03 a5 44 02  	lw	a0, 0x24(s1)
   15cc0: 93 05 20 00  	addi	a1, zero, 0x2
   15cc4: 23 a0 b4 02  	sw	a1, 0x20(s1)
   15cc8: 13 05 15 00  	addi	a0, a0, 0x1
   15ccc: 23 a2 a4 02  	sw	a0, 0x24(s1)
   15cd0: 03 25 04 10  	lw	a0, 0x100(s0)
   15cd4: 63 1a 05 00  	bne	a0, zero, 0x15ce8 <prepare_for_pass+0x178>
   15cd8: 13 05 04 00  	addi	a0, s0, 0x0
   15cdc: ef 00 00 15  	jal	ra, 0x15e2c <select_scan_parameters>
   15ce0: 13 05 04 00  	addi	a0, s0, 0x0
   15ce4: ef 00 c0 26  	jal	ra, 0x15f50 <per_scan_setup>
   15ce8: 03 35 84 1e  	ld	a0, 0x1e8(s0)
   15cec: 03 36 05 00  	ld	a2, 0x0(a0)
   15cf0: 13 05 04 00  	addi	a0, s0, 0x0
   15cf4: 93 05 00 00  	addi	a1, zero, 0x0
   15cf8: e7 00 06 00  	jalr	ra, 0x0(a2)
   15cfc: 03 35 04 1c  	ld	a0, 0x1c0(s0)
   15d00: 03 36 05 00  	ld	a2, 0x0(a0)
   15d04: 93 05 20 00  	addi	a1, zero, 0x2
   15d08: 13 05 04 00  	addi	a0, s0, 0x0
   15d0c: e7 00 06 00  	jalr	ra, 0x0(a2)
   15d10: 03 a5 c4 02  	lw	a0, 0x2c(s1)
   15d14: 63 1a 05 00  	bne	a0, zero, 0x15d28 <prepare_for_pass+0x1b8>
   15d18: 03 35 84 1c  	ld	a0, 0x1c8(s0)
   15d1c: 83 35 05 01  	ld	a1, 0x10(a0)
   15d20: 13 05 04 00  	addi	a0, s0, 0x0
   15d24: e7 80 05 00  	jalr	ra, 0x0(a1)
   15d28: 03 35 84 1c  	ld	a0, 0x1c8(s0)
   15d2c: 83 35 85 01  	ld	a1, 0x18(a0)
   15d30: 13 05 04 00  	addi	a0, s0, 0x0
   15d34: e7 80 05 00  	jalr	ra, 0x0(a1)
   15d38: 23 ac 04 00  	sw	zero, 0x18(s1)
   15d3c: 03 a5 84 02  	lw	a0, 0x28(s1)
   15d40: 83 a5 44 02  	lw	a1, 0x24(s1)
   15d44: 03 36 04 01  	ld	a2, 0x10(s0)
   15d48: 9b 06 f5 ff  	addiw	a3, a0, -0x1
   15d4c: b3 c6 d5 00  	xor	a3, a1, a3
   15d50: 93 b6 16 00  	sltiu	a3, a3, 0x1
   15d54: 23 ae d4 00  	sw	a3, 0x1c(s1)
   15d58: 63 06 06 00  	beq	a2, zero, 0x15d64 <prepare_for_pass+0x1f4>
   15d5c: 23 2c b6 00  	sw	a1, 0x18(a2)
   15d60: 23 2e a6 00  	sw	a0, 0x1c(a2)
   15d64: 6f b0 11 3c  	jal	zero, 0x31924 <__riscv_restore_3>

0000000000015d68 <pass_startup>:
   15d68: 13 01 01 ff  	addi	sp, sp, -0x10
   15d6c: 23 34 11 00  	sd	ra, 0x8(sp)
   15d70: 23 30 81 00  	sd	s0, 0x0(sp)
   15d74: 13 04 05 00  	addi	s0, a0, 0x0
   15d78: 03 35 85 1c  	ld	a0, 0x1c8(a0)
   15d7c: 83 35 84 1a  	ld	a1, 0x1a8(s0)
   15d80: 03 36 05 01  	ld	a2, 0x10(a0)
   15d84: 23 ac 05 00  	sw	zero, 0x18(a1)
   15d88: 13 05 04 00  	addi	a0, s0, 0x0
   15d8c: e7 00 06 00  	jalr	ra, 0x0(a2)
   15d90: 03 35 84 1c  	ld	a0, 0x1c8(s0)
   15d94: 03 33 85 01  	ld	t1, 0x18(a0)
   15d98: 13 05 04 00  	addi	a0, s0, 0x0
   15d9c: 83 30 81 00  	ld	ra, 0x8(sp)
   15da0: 03 34 01 00  	ld	s0, 0x0(sp)
   15da4: 13 01 01 01  	addi	sp, sp, 0x10
   15da8: 67 00 03 00  	jalr	zero, 0x0(t1)

0000000000015dac <finish_pass_master>:
   15dac: ef b2 31 34  	jal	t0, 0x318ee <__riscv_save_3>
   15db0: 13 04 05 00  	addi	s0, a0, 0x0
   15db4: 03 35 85 1e  	ld	a0, 0x1e8(a0)
   15db8: 83 34 84 1a  	ld	s1, 0x1a8(s0)
   15dbc: 83 35 05 01  	ld	a1, 0x10(a0)
   15dc0: 13 05 04 00  	addi	a0, s0, 0x0
   15dc4: e7 80 05 00  	jalr	ra, 0x0(a1)
   15dc8: 03 a5 04 02  	lw	a0, 0x20(s1)
   15dcc: 93 05 20 00  	addi	a1, zero, 0x2
   15dd0: 63 08 b5 02  	beq	a0, a1, 0x15e00 <finish_pass_master+0x54>
   15dd4: 93 05 10 00  	addi	a1, zero, 0x1
   15dd8: 63 0e b5 00  	beq	a0, a1, 0x15df4 <finish_pass_master+0x48>
   15ddc: 63 10 05 04  	bne	a0, zero, 0x15e1c <finish_pass_master+0x70>
   15de0: 03 25 04 10  	lw	a0, 0x100(s0)
   15de4: 93 05 20 00  	addi	a1, zero, 0x2
   15de8: 23 a0 b4 02  	sw	a1, 0x20(s1)
   15dec: 63 18 05 02  	bne	a0, zero, 0x15e1c <finish_pass_master+0x70>
   15df0: 6f 00 00 02  	jal	zero, 0x15e10 <finish_pass_master+0x64>
   15df4: 13 05 20 00  	addi	a0, zero, 0x2
   15df8: 23 a0 a4 02  	sw	a0, 0x20(s1)
   15dfc: 6f 00 00 02  	jal	zero, 0x15e1c <finish_pass_master+0x70>
   15e00: 03 25 04 10  	lw	a0, 0x100(s0)
   15e04: 63 06 05 00  	beq	a0, zero, 0x15e10 <finish_pass_master+0x64>
   15e08: 13 05 10 00  	addi	a0, zero, 0x1
   15e0c: 23 a0 a4 02  	sw	a0, 0x20(s1)
   15e10: 03 a5 c4 02  	lw	a0, 0x2c(s1)
   15e14: 13 05 15 00  	addi	a0, a0, 0x1
   15e18: 23 a6 a4 02  	sw	a0, 0x2c(s1)
   15e1c: 03 a5 44 02  	lw	a0, 0x24(s1)
   15e20: 13 05 15 00  	addi	a0, a0, 0x1
   15e24: 23 a2 a4 02  	sw	a0, 0x24(s1)
   15e28: 6f b0 d1 2f  	jal	zero, 0x31924 <__riscv_restore_3>

0000000000015e2c <select_scan_parameters>:
   15e2c: ef b2 f1 2a  	jal	t0, 0x318da <__riscv_save_7>
   15e30: 13 04 05 00  	addi	s0, a0, 0x0
   15e34: 03 39 05 0f  	ld	s2, 0xf0(a0)
   15e38: 63 0e 09 08  	beq	s2, zero, 0x15ed4 <select_scan_parameters+0xa8>
   15e3c: 03 35 84 1a  	ld	a0, 0x1a8(s0)
   15e40: 83 24 c5 02  	lw	s1, 0x2c(a0)
   15e44: 93 05 40 02  	addi	a1, zero, 0x24
   15e48: 13 85 04 00  	addi	a0, s1, 0x0
   15e4c: ef b0 91 2e  	jal	ra, 0x31934 <__muldi3>
   15e50: 33 05 a9 00  	add	a0, s2, a0
   15e54: 03 2b 05 00  	lw	s6, 0x0(a0)
   15e58: 23 2e 64 13  	sw	s6, 0x13c(s0)
   15e5c: 63 54 60 05  	bge	zero, s6, 0x15ea4 <select_scan_parameters+0x78>
   15e60: 83 39 04 05  	ld	s3, 0x50(s0)
   15e64: 93 05 40 02  	addi	a1, zero, 0x24
   15e68: 13 85 04 00  	addi	a0, s1, 0x0
   15e6c: ef b0 91 2c  	jal	ra, 0x31934 <__muldi3>
   15e70: 33 05 25 01  	add	a0, a0, s2
   15e74: 13 0a 45 00  	addi	s4, a0, 0x4
   15e78: 93 0a 04 14  	addi	s5, s0, 0x140
   15e7c: 13 1b 2b 00  	slli	s6, s6, 0x2
   15e80: 33 0b 6a 01  	add	s6, s4, s6
   15e84: 03 25 0a 00  	lw	a0, 0x0(s4)
   15e88: 93 05 00 06  	addi	a1, zero, 0x60
   15e8c: ef b0 91 2a  	jal	ra, 0x31934 <__muldi3>
   15e90: 33 85 a9 00  	add	a0, s3, a0
   15e94: 23 b0 aa 00  	sd	a0, 0x0(s5)
   15e98: 13 0a 4a 00  	addi	s4, s4, 0x4
   15e9c: 93 8a 8a 00  	addi	s5, s5, 0x8
   15ea0: e3 12 6a ff  	bne	s4, s6, 0x15e84 <select_scan_parameters+0x58>
   15ea4: 93 05 40 02  	addi	a1, zero, 0x24
   15ea8: 13 85 04 00  	addi	a0, s1, 0x0
   15eac: ef b0 91 28  	jal	ra, 0x31934 <__muldi3>
   15eb0: 33 05 a9 00  	add	a0, s2, a0
   15eb4: 83 25 45 01  	lw	a1, 0x14(a0)
   15eb8: 03 26 85 01  	lw	a2, 0x18(a0)
   15ebc: 83 26 c5 01  	lw	a3, 0x1c(a0)
   15ec0: 03 25 05 02  	lw	a0, 0x20(a0)
   15ec4: 23 2a b4 18  	sw	a1, 0x194(s0)
   15ec8: 23 2c c4 18  	sw	a2, 0x198(s0)
   15ecc: 23 2e d4 18  	sw	a3, 0x19c(s0)
   15ed0: 6f 00 80 07  	jal	zero, 0x15f48 <select_scan_parameters+0x11c>
   15ed4: 03 25 44 04  	lw	a0, 0x44(s0)
   15ed8: 93 05 50 00  	addi	a1, zero, 0x5
   15edc: 63 4a b5 02  	blt	a0, a1, 0x15f10 <select_scan_parameters+0xe4>
   15ee0: 83 35 04 00  	ld	a1, 0x0(s0)
   15ee4: 23 a6 a5 02  	sw	a0, 0x2c(a1)
   15ee8: 03 35 04 00  	ld	a0, 0x0(s0)
   15eec: 13 06 80 01  	addi	a2, zero, 0x18
   15ef0: 23 a4 c5 02  	sw	a2, 0x28(a1)
   15ef4: 93 05 40 00  	addi	a1, zero, 0x4
   15ef8: 23 28 b5 02  	sw	a1, 0x30(a0)
   15efc: 03 35 04 00  	ld	a0, 0x0(s0)
   15f00: 83 35 05 00  	ld	a1, 0x0(a0)
   15f04: 13 05 04 00  	addi	a0, s0, 0x0
   15f08: e7 80 05 00  	jalr	ra, 0x0(a1)
   15f0c: 03 25 44 04  	lw	a0, 0x44(s0)
   15f10: 23 2e a4 12  	sw	a0, 0x13c(s0)
   15f14: 63 52 a0 02  	bge	zero, a0, 0x15f38 <select_scan_parameters+0x10c>
   15f18: 83 35 04 05  	ld	a1, 0x50(s0)
   15f1c: 13 06 04 14  	addi	a2, s0, 0x140
   15f20: 13 15 35 00  	slli	a0, a0, 0x3
   15f24: 33 05 a6 00  	add	a0, a2, a0
   15f28: 23 30 b6 00  	sd	a1, 0x0(a2)
   15f2c: 13 06 86 00  	addi	a2, a2, 0x8
   15f30: 93 85 05 06  	addi	a1, a1, 0x60
   15f34: e3 1a a6 fe  	bne	a2, a0, 0x15f28 <select_scan_parameters+0xfc>
   15f38: 13 05 00 00  	addi	a0, zero, 0x0
   15f3c: 93 05 f0 03  	addi	a1, zero, 0x3f
   15f40: 23 3c b4 18  	sd	a1, 0x198(s0)
   15f44: 23 2a 04 18  	sw	zero, 0x194(s0)
   15f48: 23 20 a4 1a  	sw	a0, 0x1a0(s0)
   15f4c: 6f b0 d1 1c  	jal	zero, 0x31918 <__riscv_restore_7>

0000000000015f50 <per_scan_setup>:
   15f50: ef b2 11 18  	jal	t0, 0x318d0 <__riscv_save_9>
   15f54: 13 04 05 00  	addi	s0, a0, 0x0
   15f58: 03 25 c5 13  	lw	a0, 0x13c(a0)
   15f5c: 93 04 10 00  	addi	s1, zero, 0x1
   15f60: 63 10 95 06  	bne	a0, s1, 0x15fc0 <per_scan_setup+0x70>
   15f64: 03 39 04 14  	ld	s2, 0x140(s0)
   15f68: 03 25 c9 01  	lw	a0, 0x1c(s2)
   15f6c: 83 25 09 02  	lw	a1, 0x20(s2)
   15f70: 23 20 a4 16  	sw	a0, 0x160(s0)
   15f74: 13 95 05 02  	slli	a0, a1, 0x20
   15f78: 13 55 05 02  	srli	a0, a0, 0x20
   15f7c: 23 22 b4 16  	sw	a1, 0x164(s0)
   15f80: 93 95 04 02  	slli	a1, s1, 0x20
   15f84: 13 86 15 00  	addi	a2, a1, 0x1
   15f88: 23 3c c9 02  	sd	a2, 0x38(s2)
   15f8c: 83 29 c9 00  	lw	s3, 0xc(s2)
   15f90: 23 2a 99 02  	sw	s1, 0x34(s2)
   15f94: 93 85 85 00  	addi	a1, a1, 0x8
   15f98: 23 30 b9 04  	sd	a1, 0x40(s2)
   15f9c: 93 95 09 02  	slli	a1, s3, 0x20
   15fa0: 93 d5 05 02  	srli	a1, a1, 0x20
   15fa4: ef b0 51 20  	jal	ra, 0x319a8 <__umoddi3>
   15fa8: 63 04 05 00  	beq	a0, zero, 0x15fb0 <per_scan_setup+0x60>
   15fac: 93 09 05 00  	addi	s3, a0, 0x0
   15fb0: 23 24 39 05  	sw	s3, 0x48(s2)
   15fb4: 23 24 94 16  	sw	s1, 0x168(s0)
   15fb8: 23 26 04 16  	sw	zero, 0x16c(s0)
   15fbc: 6f 00 c0 14  	jal	zero, 0x16108 <per_scan_setup+0x1b8>
   15fc0: 9b 05 b5 ff  	addiw	a1, a0, -0x5
   15fc4: 13 06 b0 ff  	addi	a2, zero, -0x5
   15fc8: 63 68 b6 02  	bltu	a2, a1, 0x15ff8 <per_scan_setup+0xa8>
   15fcc: 83 35 04 00  	ld	a1, 0x0(s0)
   15fd0: 23 a6 a5 02  	sw	a0, 0x2c(a1)
   15fd4: 03 35 04 00  	ld	a0, 0x0(s0)
   15fd8: 13 06 80 01  	addi	a2, zero, 0x18
   15fdc: 23 a4 c5 02  	sw	a2, 0x28(a1)
   15fe0: 93 05 40 00  	addi	a1, zero, 0x4
   15fe4: 23 28 b5 02  	sw	a1, 0x30(a0)
   15fe8: 03 35 04 00  	ld	a0, 0x0(s0)
   15fec: 83 35 05 00  	ld	a1, 0x0(a0)
   15ff0: 13 05 04 00  	addi	a0, s0, 0x0
   15ff4: e7 80 05 00  	jalr	ra, 0x0(a1)
   15ff8: 83 25 04 13  	lw	a1, 0x130(s0)
   15ffc: 03 65 84 02  	lwu	a0, 0x28(s0)
   16000: 9b 95 35 00  	slliw	a1, a1, 0x3
   16004: ef 60 80 6e  	jal	ra, 0x1c6ec <jdiv_round_up>
   16008: 83 25 44 13  	lw	a1, 0x134(s0)
   1600c: 03 66 c4 02  	lwu	a2, 0x2c(s0)
   16010: 23 20 a4 16  	sw	a0, 0x160(s0)
   16014: 9b 95 35 00  	slliw	a1, a1, 0x3
   16018: 13 05 06 00  	addi	a0, a2, 0x0
   1601c: ef 60 00 6d  	jal	ra, 0x1c6ec <jdiv_round_up>
   16020: 83 25 c4 13  	lw	a1, 0x13c(s0)
   16024: 23 22 a4 16  	sw	a0, 0x164(s0)
   16028: 23 24 04 16  	sw	zero, 0x168(s0)
   1602c: 63 5e b0 0c  	bge	zero, a1, 0x16108 <per_scan_setup+0x1b8>
   16030: 93 0a 00 00  	addi	s5, zero, 0x0
   16034: 13 0b b0 00  	addi	s6, zero, 0xb
   16038: 93 0b 10 00  	addi	s7, zero, 0x1
   1603c: 13 95 3a 00  	slli	a0, s5, 0x3
   16040: 33 05 a4 00  	add	a0, s0, a0
   16044: 03 3c 05 14  	ld	s8, 0x140(a0)
   16048: 83 29 8c 00  	lw	s3, 0x8(s8)
   1604c: 03 29 cc 00  	lw	s2, 0xc(s8)
   16050: 13 95 09 02  	slli	a0, s3, 0x20
   16054: 13 5a 05 02  	srli	s4, a0, 0x20
   16058: 23 2a 3c 03  	sw	s3, 0x34(s8)
   1605c: 23 2c 2c 03  	sw	s2, 0x38(s8)
   16060: 13 05 09 00  	addi	a0, s2, 0x0
   16064: 93 85 09 00  	addi	a1, s3, 0x0
   16068: ef b0 d1 0c  	jal	ra, 0x31934 <__muldi3>
   1606c: 93 04 05 00  	addi	s1, a0, 0x0
   16070: 03 65 cc 01  	lwu	a0, 0x1c(s8)
   16074: 93 95 39 00  	slli	a1, s3, 0x3
   16078: 23 20 bc 04  	sw	a1, 0x40(s8)
   1607c: 23 2e 9c 02  	sw	s1, 0x3c(s8)
   16080: 93 05 0a 00  	addi	a1, s4, 0x0
   16084: ef b0 51 12  	jal	ra, 0x319a8 <__umoddi3>
   16088: 63 04 05 00  	beq	a0, zero, 0x16090 <per_scan_setup+0x140>
   1608c: 93 09 05 00  	addi	s3, a0, 0x0
   16090: 03 65 0c 02  	lwu	a0, 0x20(s8)
   16094: 23 22 3c 05  	sw	s3, 0x44(s8)
   16098: 93 15 09 02  	slli	a1, s2, 0x20
   1609c: 93 d5 05 02  	srli	a1, a1, 0x20
   160a0: ef b0 91 10  	jal	ra, 0x319a8 <__umoddi3>
   160a4: 63 04 05 00  	beq	a0, zero, 0x160ac <per_scan_setup+0x15c>
   160a8: 13 09 05 00  	addi	s2, a0, 0x0
   160ac: 03 25 84 16  	lw	a0, 0x168(s0)
   160b0: 3b 05 95 00  	addw	a0, a0, s1
   160b4: 23 24 2c 05  	sw	s2, 0x48(s8)
   160b8: 63 4c 65 01  	blt	a0, s6, 0x160d0 <per_scan_setup+0x180>
   160bc: 03 35 04 00  	ld	a0, 0x0(s0)
   160c0: 83 35 05 00  	ld	a1, 0x0(a0)
   160c4: 23 24 65 03  	sw	s6, 0x28(a0)
   160c8: 13 05 04 00  	addi	a0, s0, 0x0
   160cc: e7 80 05 00  	jalr	ra, 0x0(a1)
   160d0: 1b 85 04 00  	addiw	a0, s1, 0x0
   160d4: 63 54 a0 02  	bge	zero, a0, 0x160fc <per_scan_setup+0x1ac>
   160d8: 13 05 15 00  	addi	a0, a0, 0x1
   160dc: 83 25 84 16  	lw	a1, 0x168(s0)
   160e0: 13 86 15 00  	addi	a2, a1, 0x1
   160e4: 23 24 c4 16  	sw	a2, 0x168(s0)
   160e8: 93 95 25 00  	slli	a1, a1, 0x2
   160ec: b3 05 b4 00  	add	a1, s0, a1
   160f0: 1b 05 f5 ff  	addiw	a0, a0, -0x1
   160f4: 23 a6 55 17  	sw	s5, 0x16c(a1)
   160f8: e3 e2 ab fe  	bltu	s7, a0, 0x160dc <per_scan_setup+0x18c>
   160fc: 03 25 c4 13  	lw	a0, 0x13c(s0)
   16100: 93 8a 1a 00  	addi	s5, s5, 0x1
   16104: e3 cc aa f2  	blt	s5, a0, 0x1603c <per_scan_setup+0xec>
   16108: 83 25 44 11  	lw	a1, 0x114(s0)
   1610c: 63 50 b0 02  	bge	zero, a1, 0x1612c <per_scan_setup+0x1dc>
   16110: 03 65 04 16  	lwu	a0, 0x160(s0)
   16114: ef b0 11 02  	jal	ra, 0x31934 <__muldi3>
   16118: b7 05 01 00  	lui	a1, 0x10
   1611c: 9b 85 f5 ff  	addiw	a1, a1, -0x1
   16120: 63 64 b5 00  	bltu	a0, a1, 0x16128 <per_scan_setup+0x1d8>
   16124: 13 85 05 00  	addi	a0, a1, 0x0
   16128: 23 28 a4 10  	sw	a0, 0x110(s0)
   1612c: 6f b0 61 7e  	jal	zero, 0x31912 <__riscv_restore_9>

0000000000016130 <jinit_marker_writer>:
   16130: ef b2 01 7d  	jal	t0, 0x31900 <__riscv_save_1>
   16134: 13 04 05 00  	addi	s0, a0, 0x0
   16138: 03 35 85 00  	ld	a0, 0x8(a0)
   1613c: 83 36 05 00  	ld	a3, 0x0(a0)
   16140: 93 05 10 00  	addi	a1, zero, 0x1
   16144: 13 06 00 03  	addi	a2, zero, 0x30
   16148: 13 05 04 00  	addi	a0, s0, 0x0
   1614c: e7 80 06 00  	jalr	ra, 0x0(a3)
   16150: 23 34 a4 1c  	sd	a0, 0x1c8(s0)
   16154: b7 65 01 00  	lui	a1, 0x16
   16158: 93 85 05 1a  	addi	a1, a1, 0x1a0
   1615c: 23 30 b5 00  	sd	a1, 0x0(a0)
   16160: b7 65 01 00  	lui	a1, 0x16
   16164: 93 85 85 22  	addi	a1, a1, 0x228
   16168: 23 34 b5 00  	sd	a1, 0x8(a0)
   1616c: b7 65 01 00  	lui	a1, 0x16
   16170: 93 85 05 44  	addi	a1, a1, 0x440
   16174: 23 38 b5 00  	sd	a1, 0x10(a0)
   16178: b7 65 01 00  	lui	a1, 0x16
   1617c: 93 85 c5 5a  	addi	a1, a1, 0x5ac
   16180: 23 3c b5 00  	sd	a1, 0x18(a0)
   16184: b7 65 01 00  	lui	a1, 0x16
   16188: 93 85 45 7a  	addi	a1, a1, 0x7a4
   1618c: 23 30 b5 02  	sd	a1, 0x20(a0)
   16190: b7 65 01 00  	lui	a1, 0x16
   16194: 93 85 45 7d  	addi	a1, a1, 0x7d4
   16198: 23 34 b5 02  	sd	a1, 0x28(a0)
   1619c: 6f b0 e1 78  	jal	zero, 0x3192a <__riscv_restore_1>

00000000000161a0 <write_any_marker>:
   161a0: 37 07 01 00  	lui	a4, 0x10
   161a4: 1b 07 d7 ff  	addiw	a4, a4, -0x3
   161a8: 63 6e d7 06  	bltu	a4, a3, 0x16224 <write_any_marker+0x84>
   161ac: ef b2 81 73  	jal	t0, 0x318e4 <__riscv_save_5>
   161b0: 13 89 06 00  	addi	s2, a3, 0x0
   161b4: 13 04 06 00  	addi	s0, a2, 0x0
   161b8: 93 89 05 00  	addi	s3, a1, 0x0
   161bc: 93 04 05 00  	addi	s1, a0, 0x0
   161c0: 93 05 f0 0f  	addi	a1, zero, 0xff
   161c4: ef 00 c0 6e  	jal	ra, 0x168b0 <emit_byte>
   161c8: 13 85 04 00  	addi	a0, s1, 0x0
   161cc: 93 85 09 00  	addi	a1, s3, 0x0
   161d0: ef 00 00 6e  	jal	ra, 0x168b0 <emit_byte>
   161d4: 93 09 29 00  	addi	s3, s2, 0x2
   161d8: 9b d5 89 00  	srliw	a1, s3, 0x8
   161dc: 13 85 04 00  	addi	a0, s1, 0x0
   161e0: ef 00 00 6d  	jal	ra, 0x168b0 <emit_byte>
   161e4: 93 f5 f9 0f  	andi	a1, s3, 0xff
   161e8: 13 85 04 00  	addi	a0, s1, 0x0
   161ec: ef 00 40 6c  	jal	ra, 0x168b0 <emit_byte>
   161f0: 63 06 09 02  	beq	s2, zero, 0x1621c <write_any_marker+0x7c>
   161f4: 13 09 f9 ff  	addi	s2, s2, -0x1
   161f8: 13 19 09 02  	slli	s2, s2, 0x20
   161fc: 13 55 09 02  	srli	a0, s2, 0x20
   16200: 33 05 85 00  	add	a0, a0, s0
   16204: 13 09 15 00  	addi	s2, a0, 0x1
   16208: 83 45 04 00  	lbu	a1, 0x0(s0)
   1620c: 13 85 04 00  	addi	a0, s1, 0x0
   16210: ef 00 00 6a  	jal	ra, 0x168b0 <emit_byte>
   16214: 13 04 14 00  	addi	s0, s0, 0x1
   16218: e3 18 24 ff  	bne	s0, s2, 0x16208 <write_any_marker+0x68>
   1621c: 6f b0 21 70  	jal	zero, 0x3191e <__riscv_restore_5>
   16220: 6f 00 40 00  	jal	zero, 0x16224 <write_any_marker+0x84>
   16224: 67 80 00 00  	jalr	zero, 0x0(ra)

0000000000016228 <write_file_header>:
   16228: 13 01 01 fe  	addi	sp, sp, -0x20
   1622c: 23 3c 11 00  	sd	ra, 0x18(sp)
   16230: 23 38 81 00  	sd	s0, 0x10(sp)
   16234: 23 34 91 00  	sd	s1, 0x8(sp)
   16238: 13 04 05 00  	addi	s0, a0, 0x0
   1623c: 93 05 f0 0f  	addi	a1, zero, 0xff
   16240: ef 00 00 67  	jal	ra, 0x168b0 <emit_byte>
   16244: 93 05 80 0d  	addi	a1, zero, 0xd8
   16248: 13 05 04 00  	addi	a0, s0, 0x0
   1624c: ef 00 40 66  	jal	ra, 0x168b0 <emit_byte>
   16250: 03 25 84 11  	lw	a0, 0x118(s0)
   16254: 63 02 05 0e  	beq	a0, zero, 0x16338 <write_file_header+0x110>
   16258: 93 05 f0 0f  	addi	a1, zero, 0xff
   1625c: 13 05 04 00  	addi	a0, s0, 0x0
   16260: ef 00 00 65  	jal	ra, 0x168b0 <emit_byte>
   16264: 93 05 00 0e  	addi	a1, zero, 0xe0
   16268: 13 05 04 00  	addi	a0, s0, 0x0
   1626c: ef 00 40 64  	jal	ra, 0x168b0 <emit_byte>
   16270: 13 05 04 00  	addi	a0, s0, 0x0
   16274: 93 05 00 00  	addi	a1, zero, 0x0
   16278: ef 00 80 63  	jal	ra, 0x168b0 <emit_byte>
   1627c: 93 05 00 01  	addi	a1, zero, 0x10
   16280: 13 05 04 00  	addi	a0, s0, 0x0
   16284: ef 00 c0 62  	jal	ra, 0x168b0 <emit_byte>
   16288: 93 05 a0 04  	addi	a1, zero, 0x4a
   1628c: 13 05 04 00  	addi	a0, s0, 0x0
   16290: ef 00 00 62  	jal	ra, 0x168b0 <emit_byte>
   16294: 93 05 60 04  	addi	a1, zero, 0x46
   16298: 13 05 04 00  	addi	a0, s0, 0x0
   1629c: ef 00 40 61  	jal	ra, 0x168b0 <emit_byte>
   162a0: 93 05 90 04  	addi	a1, zero, 0x49
   162a4: 13 05 04 00  	addi	a0, s0, 0x0
   162a8: ef 00 80 60  	jal	ra, 0x168b0 <emit_byte>
   162ac: 93 05 60 04  	addi	a1, zero, 0x46
   162b0: 13 05 04 00  	addi	a0, s0, 0x0
   162b4: ef 00 c0 5f  	jal	ra, 0x168b0 <emit_byte>
   162b8: 13 05 04 00  	addi	a0, s0, 0x0
   162bc: 93 05 00 00  	addi	a1, zero, 0x0
   162c0: ef 00 00 5f  	jal	ra, 0x168b0 <emit_byte>
   162c4: 93 05 10 00  	addi	a1, zero, 0x1
   162c8: 13 05 04 00  	addi	a0, s0, 0x0
   162cc: ef 00 40 5e  	jal	ra, 0x168b0 <emit_byte>
   162d0: 93 05 10 00  	addi	a1, zero, 0x1
   162d4: 13 05 04 00  	addi	a0, s0, 0x0
   162d8: ef 00 80 5d  	jal	ra, 0x168b0 <emit_byte>
   162dc: 83 45 c4 11  	lbu	a1, 0x11c(s0)
   162e0: 13 05 04 00  	addi	a0, s0, 0x0
   162e4: ef 00 c0 5c  	jal	ra, 0x168b0 <emit_byte>
   162e8: 83 54 e4 11  	lhu	s1, 0x11e(s0)
   162ec: 93 d5 84 00  	srli	a1, s1, 0x8
   162f0: 13 05 04 00  	addi	a0, s0, 0x0
   162f4: ef 00 c0 5b  	jal	ra, 0x168b0 <emit_byte>
   162f8: 93 f5 f4 0f  	andi	a1, s1, 0xff
   162fc: 13 05 04 00  	addi	a0, s0, 0x0
   16300: ef 00 00 5b  	jal	ra, 0x168b0 <emit_byte>
   16304: 83 54 04 12  	lhu	s1, 0x120(s0)
   16308: 93 d5 84 00  	srli	a1, s1, 0x8
   1630c: 13 05 04 00  	addi	a0, s0, 0x0
   16310: ef 00 00 5a  	jal	ra, 0x168b0 <emit_byte>
   16314: 93 f5 f4 0f  	andi	a1, s1, 0xff
   16318: 13 05 04 00  	addi	a0, s0, 0x0
   1631c: ef 00 40 59  	jal	ra, 0x168b0 <emit_byte>
   16320: 13 05 04 00  	addi	a0, s0, 0x0
   16324: 93 05 00 00  	addi	a1, zero, 0x0
   16328: ef 00 80 58  	jal	ra, 0x168b0 <emit_byte>
   1632c: 13 05 04 00  	addi	a0, s0, 0x0
   16330: 93 05 00 00  	addi	a1, zero, 0x0
   16334: ef 00 c0 57  	jal	ra, 0x168b0 <emit_byte>
   16338: 03 25 44 12  	lw	a0, 0x124(s0)
   1633c: 63 06 05 0c  	beq	a0, zero, 0x16408 <write_file_header+0x1e0>
   16340: 93 05 f0 0f  	addi	a1, zero, 0xff
   16344: 13 05 04 00  	addi	a0, s0, 0x0
   16348: ef 00 80 56  	jal	ra, 0x168b0 <emit_byte>
   1634c: 93 05 e0 0e  	addi	a1, zero, 0xee
   16350: 13 05 04 00  	addi	a0, s0, 0x0
   16354: ef 00 c0 55  	jal	ra, 0x168b0 <emit_byte>
   16358: 13 05 04 00  	addi	a0, s0, 0x0
   1635c: 93 05 00 00  	addi	a1, zero, 0x0
   16360: ef 00 00 55  	jal	ra, 0x168b0 <emit_byte>
   16364: 93 05 e0 00  	addi	a1, zero, 0xe
   16368: 13 05 04 00  	addi	a0, s0, 0x0
   1636c: ef 00 40 54  	jal	ra, 0x168b0 <emit_byte>
   16370: 93 05 10 04  	addi	a1, zero, 0x41
   16374: 13 05 04 00  	addi	a0, s0, 0x0
   16378: ef 00 80 53  	jal	ra, 0x168b0 <emit_byte>
   1637c: 93 05 40 06  	addi	a1, zero, 0x64
   16380: 13 05 04 00  	addi	a0, s0, 0x0
   16384: ef 00 c0 52  	jal	ra, 0x168b0 <emit_byte>
   16388: 93 05 f0 06  	addi	a1, zero, 0x6f
   1638c: 13 05 04 00  	addi	a0, s0, 0x0
   16390: ef 00 00 52  	jal	ra, 0x168b0 <emit_byte>
   16394: 93 05 20 06  	addi	a1, zero, 0x62
   16398: 13 05 04 00  	addi	a0, s0, 0x0
   1639c: ef 00 40 51  	jal	ra, 0x168b0 <emit_byte>
   163a0: 93 05 50 06  	addi	a1, zero, 0x65
   163a4: 13 05 04 00  	addi	a0, s0, 0x0
   163a8: ef 00 80 50  	jal	ra, 0x168b0 <emit_byte>
   163ac: 13 05 04 00  	addi	a0, s0, 0x0
   163b0: 93 05 00 00  	addi	a1, zero, 0x0
   163b4: ef 00 c0 4f  	jal	ra, 0x168b0 <emit_byte>
   163b8: 93 05 40 06  	addi	a1, zero, 0x64
   163bc: 13 05 04 00  	addi	a0, s0, 0x0
   163c0: ef 00 00 4f  	jal	ra, 0x168b0 <emit_byte>
   163c4: 13 05 04 00  	addi	a0, s0, 0x0
   163c8: 93 05 00 00  	addi	a1, zero, 0x0
   163cc: ef 00 40 4e  	jal	ra, 0x168b0 <emit_byte>
   163d0: 13 05 04 00  	addi	a0, s0, 0x0
   163d4: 93 05 00 00  	addi	a1, zero, 0x0
   163d8: ef 00 80 4d  	jal	ra, 0x168b0 <emit_byte>
   163dc: 13 05 04 00  	addi	a0, s0, 0x0
   163e0: 93 05 00 00  	addi	a1, zero, 0x0
   163e4: ef 00 c0 4c  	jal	ra, 0x168b0 <emit_byte>
   163e8: 13 05 04 00  	addi	a0, s0, 0x0
   163ec: 93 05 00 00  	addi	a1, zero, 0x0
   163f0: ef 00 00 4c  	jal	ra, 0x168b0 <emit_byte>
   163f4: 03 25 84 04  	lw	a0, 0x48(s0)
   163f8: 93 05 30 00  	addi	a1, zero, 0x3
   163fc: 63 10 b5 02  	bne	a0, a1, 0x1641c <write_file_header+0x1f4>
   16400: 93 05 10 00  	addi	a1, zero, 0x1
   16404: 6f 00 40 02  	jal	zero, 0x16428 <write_file_header+0x200>
   16408: 83 30 81 01  	ld	ra, 0x18(sp)
   1640c: 03 34 01 01  	ld	s0, 0x10(sp)
   16410: 83 34 81 00  	ld	s1, 0x8(sp)
   16414: 13 01 01 02  	addi	sp, sp, 0x20
   16418: 67 80 00 00  	jalr	zero, 0x0(ra)
   1641c: 13 05 b5 ff  	addi	a0, a0, -0x5
   16420: 93 35 15 00  	sltiu	a1, a0, 0x1
   16424: 93 95 15 00  	slli	a1, a1, 0x1
   16428: 13 05 04 00  	addi	a0, s0, 0x0
   1642c: 83 30 81 01  	ld	ra, 0x18(sp)
   16430: 03 34 01 01  	ld	s0, 0x10(sp)
   16434: 83 34 81 00  	ld	s1, 0x8(sp)
   16438: 13 01 01 02  	addi	sp, sp, 0x20
   1643c: 6f 00 40 47  	jal	zero, 0x168b0 <emit_byte>

0000000000016440 <write_frame_header>:
   16440: 13 01 01 fd  	addi	sp, sp, -0x30
   16444: 23 34 11 02  	sd	ra, 0x28(sp)
   16448: 23 30 81 02  	sd	s0, 0x20(sp)
   1644c: 23 3c 91 00  	sd	s1, 0x18(sp)
   16450: 23 38 21 01  	sd	s2, 0x10(sp)
   16454: 23 34 31 01  	sd	s3, 0x8(sp)
   16458: 23 30 41 01  	sd	s4, 0x0(sp)
   1645c: 13 04 05 00  	addi	s0, a0, 0x0
   16460: 83 25 45 04  	lw	a1, 0x44(a0)
   16464: 63 5e b0 02  	bge	zero, a1, 0x164a0 <write_frame_header+0x60>
   16468: 83 39 04 05  	ld	s3, 0x50(s0)
   1646c: 93 04 00 00  	addi	s1, zero, 0x0
   16470: 13 09 00 00  	addi	s2, zero, 0x0
   16474: 93 89 09 01  	addi	s3, s3, 0x10
   16478: 83 a5 09 00  	lw	a1, 0x0(s3)
   1647c: 13 05 04 00  	addi	a0, s0, 0x0
   16480: ef 00 80 4a  	jal	ra, 0x16928 <emit_dqt>
   16484: 83 25 44 04  	lw	a1, 0x44(s0)
   16488: bb 04 95 00  	addw	s1, a0, s1
   1648c: 1b 09 19 00  	addiw	s2, s2, 0x1
   16490: 93 89 09 06  	addi	s3, s3, 0x60
   16494: e3 42 b9 fe  	blt	s2, a1, 0x16478 <write_frame_header+0x38>
   16498: 33 39 90 00  	sltu	s2, zero, s1
   1649c: 6f 00 80 00  	jal	zero, 0x164a4 <write_frame_header+0x64>
   164a0: 13 09 00 00  	addi	s2, zero, 0x0
   164a4: 03 25 c4 0f  	lw	a0, 0xfc(s0)
   164a8: 93 04 90 0c  	addi	s1, zero, 0xc9
   164ac: 63 1c 05 0c  	bne	a0, zero, 0x16584 <write_frame_header+0x144>
   164b0: 03 25 c4 12  	lw	a0, 0x12c(s0)
   164b4: 63 06 05 00  	beq	a0, zero, 0x164c0 <write_frame_header+0x80>
   164b8: 93 04 20 0c  	addi	s1, zero, 0xc2
   164bc: 6f 00 80 0c  	jal	zero, 0x16584 <write_frame_header+0x144>
   164c0: 03 25 04 04  	lw	a0, 0x40(s0)
   164c4: 13 06 80 00  	addi	a2, zero, 0x8
   164c8: 63 1c c5 04  	bne	a0, a2, 0x16520 <write_frame_header+0xe0>
   164cc: 63 5e b0 04  	bge	zero, a1, 0x16528 <write_frame_header+0xe8>
   164d0: 03 3a 04 05  	ld	s4, 0x50(s0)
   164d4: 93 09 8a 01  	addi	s3, s4, 0x18
   164d8: 93 85 f5 ff  	addi	a1, a1, -0x1
   164dc: 13 95 05 02  	slli	a0, a1, 0x20
   164e0: 13 55 05 02  	srli	a0, a0, 0x20
   164e4: 93 05 00 06  	addi	a1, zero, 0x60
   164e8: ef b0 c1 44  	jal	ra, 0x31934 <__muldi3>
   164ec: 33 05 45 01  	add	a0, a0, s4
   164f0: 93 05 85 07  	addi	a1, a0, 0x78
   164f4: 13 06 10 00  	addi	a2, zero, 0x1
   164f8: 93 06 20 00  	addi	a3, zero, 0x2
   164fc: 13 05 10 00  	addi	a0, zero, 0x1
   16500: 03 a7 c9 ff  	lw	a4, -0x4(s3)
   16504: 63 46 e6 00  	blt	a2, a4, 0x16510 <write_frame_header+0xd0>
   16508: 03 a7 09 00  	lw	a4, 0x0(s3)
   1650c: 63 44 d7 00  	blt	a4, a3, 0x16514 <write_frame_header+0xd4>
   16510: 13 05 00 00  	addi	a0, zero, 0x0
   16514: 93 89 09 06  	addi	s3, s3, 0x60
   16518: e3 94 b9 fe  	bne	s3, a1, 0x16500 <write_frame_header+0xc0>
   1651c: 6f 00 00 01  	jal	zero, 0x1652c <write_frame_header+0xec>
   16520: 13 05 00 00  	addi	a0, zero, 0x0
   16524: 6f 00 80 04  	jal	zero, 0x1656c <write_frame_header+0x12c>
   16528: 13 05 10 00  	addi	a0, zero, 0x1
   1652c: b3 35 a0 00  	sltu	a1, zero, a0
   16530: b3 75 b9 00  	and	a1, s2, a1
   16534: 63 8c 05 02  	beq	a1, zero, 0x1656c <write_frame_header+0x12c>
   16538: 03 35 04 00  	ld	a0, 0x0(s0)
   1653c: 03 36 85 00  	ld	a2, 0x8(a0)
   16540: 93 05 a0 04  	addi	a1, zero, 0x4a
   16544: 23 24 b5 02  	sw	a1, 0x28(a0)
   16548: 13 05 04 00  	addi	a0, s0, 0x0
   1654c: 93 05 00 00  	addi	a1, zero, 0x0
   16550: e7 00 06 00  	jalr	ra, 0x0(a2)
   16554: 03 25 c4 0f  	lw	a0, 0xfc(s0)
   16558: 63 16 05 02  	bne	a0, zero, 0x16584 <write_frame_header+0x144>
   1655c: 03 25 c4 12  	lw	a0, 0x12c(s0)
   16560: 93 04 20 0c  	addi	s1, zero, 0xc2
   16564: 63 10 05 02  	bne	a0, zero, 0x16584 <write_frame_header+0x144>
   16568: 6f 00 80 01  	jal	zero, 0x16580 <write_frame_header+0x140>
   1656c: 83 25 c4 12  	lw	a1, 0x12c(s0)
   16570: 93 04 20 0c  	addi	s1, zero, 0xc2
   16574: 63 98 05 00  	bne	a1, zero, 0x16584 <write_frame_header+0x144>
   16578: 93 04 00 0c  	addi	s1, zero, 0xc0
   1657c: 63 14 05 00  	bne	a0, zero, 0x16584 <write_frame_header+0x144>
   16580: 93 04 10 0c  	addi	s1, zero, 0xc1
   16584: 13 05 04 00  	addi	a0, s0, 0x0
   16588: 93 85 04 00  	addi	a1, s1, 0x0
   1658c: 83 30 81 02  	ld	ra, 0x28(sp)
   16590: 03 34 01 02  	ld	s0, 0x20(sp)
   16594: 83 34 81 01  	ld	s1, 0x18(sp)
   16598: 03 39 01 01  	ld	s2, 0x10(sp)
   1659c: 83 39 81 00  	ld	s3, 0x8(sp)
   165a0: 03 3a 01 00  	ld	s4, 0x0(sp)
   165a4: 13 01 01 03  	addi	sp, sp, 0x30
   165a8: 6f 00 00 48  	jal	zero, 0x16a28 <emit_sof>

00000000000165ac <write_scan_header>:
   165ac: 13 01 01 fd  	addi	sp, sp, -0x30
   165b0: 23 34 11 02  	sd	ra, 0x28(sp)
   165b4: 23 30 81 02  	sd	s0, 0x20(sp)
   165b8: 23 3c 91 00  	sd	s1, 0x18(sp)
   165bc: 23 38 21 01  	sd	s2, 0x10(sp)
   165c0: 23 34 31 01  	sd	s3, 0x8(sp)
   165c4: 13 04 05 00  	addi	s0, a0, 0x0
   165c8: 03 25 c5 0f  	lw	a0, 0xfc(a0)
   165cc: 63 18 05 06  	bne	a0, zero, 0x1663c <write_scan_header+0x90>
   165d0: 03 25 c4 13  	lw	a0, 0x13c(s0)
   165d4: 63 54 a0 06  	bge	zero, a0, 0x1663c <write_scan_header+0x90>
   165d8: 93 04 00 00  	addi	s1, zero, 0x0
   165dc: 13 09 04 14  	addi	s2, s0, 0x140
   165e0: 03 25 c4 12  	lw	a0, 0x12c(s0)
   165e4: 83 39 09 00  	ld	s3, 0x0(s2)
   165e8: 63 02 05 02  	beq	a0, zero, 0x1660c <write_scan_header+0x60>
   165ec: 03 25 44 19  	lw	a0, 0x194(s0)
   165f0: 63 16 05 02  	bne	a0, zero, 0x1661c <write_scan_header+0x70>
   165f4: 03 25 c4 19  	lw	a0, 0x19c(s0)
   165f8: 63 1a 05 02  	bne	a0, zero, 0x1662c <write_scan_header+0x80>
   165fc: 83 a5 49 01  	lw	a1, 0x14(s3)
   16600: 13 05 04 00  	addi	a0, s0, 0x0
   16604: 13 06 00 00  	addi	a2, zero, 0x0
   16608: 6f 00 00 02  	jal	zero, 0x16628 <write_scan_header+0x7c>
   1660c: 83 a5 49 01  	lw	a1, 0x14(s3)
   16610: 13 05 04 00  	addi	a0, s0, 0x0
   16614: 13 06 00 00  	addi	a2, zero, 0x0
   16618: ef 00 c0 53  	jal	ra, 0x16b54 <emit_dht>
   1661c: 83 a5 89 01  	lw	a1, 0x18(s3)
   16620: 13 06 10 00  	addi	a2, zero, 0x1
   16624: 13 05 04 00  	addi	a0, s0, 0x0
   16628: ef 00 c0 52  	jal	ra, 0x16b54 <emit_dht>
   1662c: 03 25 c4 13  	lw	a0, 0x13c(s0)
   16630: 93 84 14 00  	addi	s1, s1, 0x1
   16634: 13 09 89 00  	addi	s2, s2, 0x8
   16638: e3 c4 a4 fa  	blt	s1, a0, 0x165e0 <write_scan_header+0x34>
   1663c: 03 25 04 11  	lw	a0, 0x110(s0)
   16640: 63 0a 05 04  	beq	a0, zero, 0x16694 <write_scan_header+0xe8>
   16644: 93 05 f0 0f  	addi	a1, zero, 0xff
   16648: 13 05 04 00  	addi	a0, s0, 0x0
   1664c: ef 00 40 26  	jal	ra, 0x168b0 <emit_byte>
   16650: 93 05 d0 0d  	addi	a1, zero, 0xdd
   16654: 13 05 04 00  	addi	a0, s0, 0x0
   16658: ef 00 80 25  	jal	ra, 0x168b0 <emit_byte>
   1665c: 13 05 04 00  	addi	a0, s0, 0x0
   16660: 93 05 00 00  	addi	a1, zero, 0x0
   16664: ef 00 c0 24  	jal	ra, 0x168b0 <emit_byte>
   16668: 93 05 40 00  	addi	a1, zero, 0x4
   1666c: 13 05 04 00  	addi	a0, s0, 0x0
   16670: ef 00 00 24  	jal	ra, 0x168b0 <emit_byte>
   16674: 83 24 04 11  	lw	s1, 0x110(s0)
   16678: 93 95 04 03  	slli	a1, s1, 0x30
   1667c: 93 d5 85 03  	srli	a1, a1, 0x38
   16680: 13 05 04 00  	addi	a0, s0, 0x0
   16684: ef 00 c0 22  	jal	ra, 0x168b0 <emit_byte>
   16688: 93 f5 f4 0f  	andi	a1, s1, 0xff
   1668c: 13 05 04 00  	addi	a0, s0, 0x0
   16690: ef 00 00 22  	jal	ra, 0x168b0 <emit_byte>
   16694: 93 05 f0 0f  	addi	a1, zero, 0xff
   16698: 13 05 04 00  	addi	a0, s0, 0x0
   1669c: ef 00 40 21  	jal	ra, 0x168b0 <emit_byte>
   166a0: 93 05 a0 0d  	addi	a1, zero, 0xda
   166a4: 13 05 04 00  	addi	a0, s0, 0x0
   166a8: ef 00 80 20  	jal	ra, 0x168b0 <emit_byte>
   166ac: 03 25 c4 13  	lw	a0, 0x13c(s0)
   166b0: 13 15 15 00  	slli	a0, a0, 0x1
   166b4: 93 04 65 00  	addi	s1, a0, 0x6
   166b8: 93 95 04 03  	slli	a1, s1, 0x30
   166bc: 93 d5 85 03  	srli	a1, a1, 0x38
   166c0: 13 05 04 00  	addi	a0, s0, 0x0
   166c4: ef 00 c0 1e  	jal	ra, 0x168b0 <emit_byte>
   166c8: 93 f5 e4 0f  	andi	a1, s1, 0xfe
   166cc: 13 05 04 00  	addi	a0, s0, 0x0
   166d0: ef 00 00 1e  	jal	ra, 0x168b0 <emit_byte>
   166d4: 83 25 c4 13  	lw	a1, 0x13c(s0)
   166d8: 13 05 04 00  	addi	a0, s0, 0x0
   166dc: ef 00 40 1d  	jal	ra, 0x168b0 <emit_byte>
   166e0: 03 25 c4 13  	lw	a0, 0x13c(s0)
   166e4: 63 5c a0 06  	bge	zero, a0, 0x1675c <write_scan_header+0x1b0>
   166e8: 93 04 00 00  	addi	s1, zero, 0x0
   166ec: 13 09 04 14  	addi	s2, s0, 0x140
   166f0: 83 39 09 00  	ld	s3, 0x0(s2)
   166f4: 83 a5 09 00  	lw	a1, 0x0(s3)
   166f8: 13 05 04 00  	addi	a0, s0, 0x0
   166fc: ef 00 40 1b  	jal	ra, 0x168b0 <emit_byte>
   16700: 03 a5 49 01  	lw	a0, 0x14(s3)
   16704: 03 26 c4 12  	lw	a2, 0x12c(s0)
   16708: 83 a5 89 01  	lw	a1, 0x18(s3)
   1670c: 63 08 06 02  	beq	a2, zero, 0x1673c <write_scan_header+0x190>
   16710: 03 26 44 19  	lw	a2, 0x194(s0)
   16714: 63 06 06 00  	beq	a2, zero, 0x16720 <write_scan_header+0x174>
   16718: 13 05 00 00  	addi	a0, zero, 0x0
   1671c: 6f 00 00 02  	jal	zero, 0x1673c <write_scan_header+0x190>
   16720: 83 25 c4 19  	lw	a1, 0x19c(s0)
   16724: 63 8c 05 00  	beq	a1, zero, 0x1673c <write_scan_header+0x190>
   16728: 03 26 c4 0f  	lw	a2, 0xfc(s0)
   1672c: 93 05 00 00  	addi	a1, zero, 0x0
   16730: 13 36 16 00  	sltiu	a2, a2, 0x1
   16734: 13 06 f6 ff  	addi	a2, a2, -0x1
   16738: 33 75 a6 00  	and	a0, a2, a0
   1673c: 13 15 45 00  	slli	a0, a0, 0x4
   16740: bb 05 b5 00  	addw	a1, a0, a1
   16744: 13 05 04 00  	addi	a0, s0, 0x0
   16748: ef 00 80 16  	jal	ra, 0x168b0 <emit_byte>
   1674c: 03 25 c4 13  	lw	a0, 0x13c(s0)
   16750: 93 84 14 00  	addi	s1, s1, 0x1
   16754: 13 09 89 00  	addi	s2, s2, 0x8
   16758: e3 cc a4 f8  	blt	s1, a0, 0x166f0 <write_scan_header+0x144>
   1675c: 83 25 44 19  	lw	a1, 0x194(s0)
   16760: 13 05 04 00  	addi	a0, s0, 0x0
   16764: ef 00 c0 14  	jal	ra, 0x168b0 <emit_byte>
   16768: 83 25 84 19  	lw	a1, 0x198(s0)
   1676c: 13 05 04 00  	addi	a0, s0, 0x0
   16770: ef 00 00 14  	jal	ra, 0x168b0 <emit_byte>
   16774: 03 25 c4 19  	lw	a0, 0x19c(s0)
   16778: 83 25 04 1a  	lw	a1, 0x1a0(s0)
   1677c: 13 15 45 00  	slli	a0, a0, 0x4
   16780: bb 05 b5 00  	addw	a1, a0, a1
   16784: 13 05 04 00  	addi	a0, s0, 0x0
   16788: 83 30 81 02  	ld	ra, 0x28(sp)
   1678c: 03 34 01 02  	ld	s0, 0x20(sp)
   16790: 83 34 81 01  	ld	s1, 0x18(sp)
   16794: 03 39 01 01  	ld	s2, 0x10(sp)
   16798: 83 39 81 00  	ld	s3, 0x8(sp)
   1679c: 13 01 01 03  	addi	sp, sp, 0x30
   167a0: 6f 00 00 11  	jal	zero, 0x168b0 <emit_byte>

00000000000167a4 <write_file_trailer>:
   167a4: 13 01 01 ff  	addi	sp, sp, -0x10
   167a8: 23 34 11 00  	sd	ra, 0x8(sp)
   167ac: 23 30 81 00  	sd	s0, 0x0(sp)
   167b0: 13 04 05 00  	addi	s0, a0, 0x0
   167b4: 93 05 f0 0f  	addi	a1, zero, 0xff
   167b8: ef 00 80 0f  	jal	ra, 0x168b0 <emit_byte>
   167bc: 93 05 90 0d  	addi	a1, zero, 0xd9
   167c0: 13 05 04 00  	addi	a0, s0, 0x0
   167c4: 83 30 81 00  	ld	ra, 0x8(sp)
   167c8: 03 34 01 00  	ld	s0, 0x0(sp)
   167cc: 13 01 01 01  	addi	sp, sp, 0x10
   167d0: 6f 00 00 0e  	jal	zero, 0x168b0 <emit_byte>

00000000000167d4 <write_tables_only>:
   167d4: 13 01 01 fd  	addi	sp, sp, -0x30
   167d8: 23 34 11 02  	sd	ra, 0x28(sp)
   167dc: 23 30 81 02  	sd	s0, 0x20(sp)
   167e0: 23 3c 91 00  	sd	s1, 0x18(sp)
   167e4: 23 38 21 01  	sd	s2, 0x10(sp)
   167e8: 23 34 31 01  	sd	s3, 0x8(sp)
   167ec: 13 04 05 00  	addi	s0, a0, 0x0
   167f0: 93 05 f0 0f  	addi	a1, zero, 0xff
   167f4: ef 00 c0 0b  	jal	ra, 0x168b0 <emit_byte>
   167f8: 93 05 80 0d  	addi	a1, zero, 0xd8
   167fc: 13 05 04 00  	addi	a0, s0, 0x0
   16800: ef 00 00 0b  	jal	ra, 0x168b0 <emit_byte>
   16804: 93 04 00 00  	addi	s1, zero, 0x0
   16808: 13 09 84 05  	addi	s2, s0, 0x58
   1680c: 93 09 84 07  	addi	s3, s0, 0x78
   16810: 03 35 09 00  	ld	a0, 0x0(s2)
   16814: 63 08 05 00  	beq	a0, zero, 0x16824 <write_tables_only+0x50>
   16818: 13 05 04 00  	addi	a0, s0, 0x0
   1681c: 93 85 04 00  	addi	a1, s1, 0x0
   16820: ef 00 80 10  	jal	ra, 0x16928 <emit_dqt>
   16824: 13 09 89 00  	addi	s2, s2, 0x8
   16828: 9b 84 14 00  	addiw	s1, s1, 0x1
   1682c: e3 12 39 ff  	bne	s2, s3, 0x16810 <write_tables_only+0x3c>
   16830: 03 25 c4 0f  	lw	a0, 0xfc(s0)
   16834: 63 16 05 04  	bne	a0, zero, 0x16880 <write_tables_only+0xac>
   16838: 93 04 00 00  	addi	s1, zero, 0x0
   1683c: 13 09 84 09  	addi	s2, s0, 0x98
   16840: 93 09 84 0b  	addi	s3, s0, 0xb8
   16844: 03 35 09 fe  	ld	a0, -0x20(s2)
   16848: 63 0a 05 00  	beq	a0, zero, 0x1685c <write_tables_only+0x88>
   1684c: 13 05 04 00  	addi	a0, s0, 0x0
   16850: 93 85 04 00  	addi	a1, s1, 0x0
   16854: 13 06 00 00  	addi	a2, zero, 0x0
   16858: ef 00 c0 2f  	jal	ra, 0x16b54 <emit_dht>
   1685c: 03 35 09 00  	ld	a0, 0x0(s2)
   16860: 63 0a 05 00  	beq	a0, zero, 0x16874 <write_tables_only+0xa0>
   16864: 13 06 10 00  	addi	a2, zero, 0x1
   16868: 13 05 04 00  	addi	a0, s0, 0x0
   1686c: 93 85 04 00  	addi	a1, s1, 0x0
   16870: ef 00 40 2e  	jal	ra, 0x16b54 <emit_dht>
   16874: 13 09 89 00  	addi	s2, s2, 0x8
   16878: 9b 84 14 00  	addiw	s1, s1, 0x1
   1687c: e3 14 39 fd  	bne	s2, s3, 0x16844 <write_tables_only+0x70>
   16880: 93 05 f0 0f  	addi	a1, zero, 0xff
   16884: 13 05 04 00  	addi	a0, s0, 0x0
   16888: ef 00 80 02  	jal	ra, 0x168b0 <emit_byte>
   1688c: 93 05 90 0d  	addi	a1, zero, 0xd9
   16890: 13 05 04 00  	addi	a0, s0, 0x0
   16894: 83 30 81 02  	ld	ra, 0x28(sp)
   16898: 03 34 01 02  	ld	s0, 0x20(sp)
   1689c: 83 34 81 01  	ld	s1, 0x18(sp)
   168a0: 03 39 01 01  	ld	s2, 0x10(sp)
   168a4: 83 39 81 00  	ld	s3, 0x8(sp)
   168a8: 13 01 01 03  	addi	sp, sp, 0x30
   168ac: 6f 00 40 00  	jal	zero, 0x168b0 <emit_byte>

00000000000168b0 <emit_byte>:
   168b0: 13 01 01 ff  	addi	sp, sp, -0x10
   168b4: 23 34 11 00  	sd	ra, 0x8(sp)
   168b8: 23 30 81 00  	sd	s0, 0x0(sp)
   168bc: 13 04 05 00  	addi	s0, a0, 0x0
   168c0: 03 35 05 02  	ld	a0, 0x20(a0)
   168c4: 03 36 05 00  	ld	a2, 0x0(a0)
   168c8: 93 06 16 00  	addi	a3, a2, 0x1
   168cc: 23 30 d5 00  	sd	a3, 0x0(a0)
   168d0: 23 00 b6 00  	sb	a1, 0x0(a2)
   168d4: 83 35 85 00  	ld	a1, 0x8(a0)
   168d8: 93 85 f5 ff  	addi	a1, a1, -0x1
   168dc: 23 34 b5 00  	sd	a1, 0x8(a0)
   168e0: 63 9a 05 00  	bne	a1, zero, 0x168f4 <emit_byte+0x44>
   168e4: 83 35 85 01  	ld	a1, 0x18(a0)
   168e8: 13 05 04 00  	addi	a0, s0, 0x0
   168ec: e7 80 05 00  	jalr	ra, 0x0(a1)
   168f0: 63 0a 05 00  	beq	a0, zero, 0x16904 <emit_byte+0x54>
   168f4: 83 30 81 00  	ld	ra, 0x8(sp)
   168f8: 03 34 01 00  	ld	s0, 0x0(sp)
   168fc: 13 01 01 01  	addi	sp, sp, 0x10
   16900: 67 80 00 00  	jalr	zero, 0x0(ra)
   16904: 03 35 04 00  	ld	a0, 0x0(s0)
   16908: 03 33 05 00  	ld	t1, 0x0(a0)
   1690c: 93 05 60 01  	addi	a1, zero, 0x16
   16910: 23 24 b5 02  	sw	a1, 0x28(a0)
   16914: 13 05 04 00  	addi	a0, s0, 0x0
   16918: 83 30 81 00  	ld	ra, 0x8(sp)
   1691c: 03 34 01 00  	ld	s0, 0x0(sp)
   16920: 13 01 01 01  	addi	sp, sp, 0x10
   16924: 67 00 03 00  	jalr	zero, 0x0(t1)

0000000000016928 <emit_dqt>:
   16928: ef a2 31 7b  	jal	t0, 0x318da <__riscv_save_7>
   1692c: 13 89 05 00  	addi	s2, a1, 0x0
   16930: 13 04 05 00  	addi	s0, a0, 0x0
   16934: 13 95 35 00  	slli	a0, a1, 0x3
   16938: 33 05 a4 00  	add	a0, s0, a0
   1693c: 83 39 85 05  	ld	s3, 0x58(a0)
   16940: 63 92 09 02  	bne	s3, zero, 0x16964 <emit_dqt+0x3c>
   16944: 03 35 04 00  	ld	a0, 0x0(s0)
   16948: 23 26 25 03  	sw	s2, 0x2c(a0)
   1694c: 83 35 04 00  	ld	a1, 0x0(s0)
   16950: 83 b5 05 00  	ld	a1, 0x0(a1)
   16954: 13 06 30 03  	addi	a2, zero, 0x33
   16958: 23 24 c5 02  	sw	a2, 0x28(a0)
   1695c: 13 05 04 00  	addi	a0, s0, 0x0
   16960: e7 80 05 00  	jalr	ra, 0x0(a1)
   16964: 93 04 00 00  	addi	s1, zero, 0x0
   16968: 13 85 09 08  	addi	a0, s3, 0x80
   1696c: 93 05 f0 0f  	addi	a1, zero, 0xff
   16970: 13 86 09 00  	addi	a2, s3, 0x0
   16974: 83 56 06 00  	lhu	a3, 0x0(a2)
   16978: 63 f4 d5 00  	bgeu	a1, a3, 0x16980 <emit_dqt+0x58>
   1697c: 93 04 10 00  	addi	s1, zero, 0x1
   16980: 13 06 26 00  	addi	a2, a2, 0x2
   16984: e3 18 a6 fe  	bne	a2, a0, 0x16974 <emit_dqt+0x4c>
   16988: 03 a5 09 08  	lw	a0, 0x80(s3)
   1698c: 63 1a 05 08  	bne	a0, zero, 0x16a20 <emit_dqt+0xf8>
   16990: 93 05 f0 0f  	addi	a1, zero, 0xff
   16994: 13 05 04 00  	addi	a0, s0, 0x0
   16998: ef f0 9f f1  	jal	ra, 0x168b0 <emit_byte>
   1699c: 93 05 b0 0d  	addi	a1, zero, 0xdb
   169a0: 13 05 04 00  	addi	a0, s0, 0x0
   169a4: ef f0 df f0  	jal	ra, 0x168b0 <emit_byte>
   169a8: 13 05 04 00  	addi	a0, s0, 0x0
   169ac: 93 05 00 00  	addi	a1, zero, 0x0
   169b0: ef f0 1f f0  	jal	ra, 0x168b0 <emit_byte>
   169b4: 93 05 30 04  	addi	a1, zero, 0x43
   169b8: 63 84 04 00  	beq	s1, zero, 0x169c0 <emit_dqt+0x98>
   169bc: 93 05 30 08  	addi	a1, zero, 0x83
   169c0: 13 05 04 00  	addi	a0, s0, 0x0
   169c4: ef f0 df ee  	jal	ra, 0x168b0 <emit_byte>
   169c8: 13 95 44 00  	slli	a0, s1, 0x4
   169cc: bb 05 25 01  	addw	a1, a0, s2
   169d0: 13 05 04 00  	addi	a0, s0, 0x0
   169d4: ef f0 df ed  	jal	ra, 0x168b0 <emit_byte>
   169d8: 37 45 03 00  	lui	a0, 0x34
   169dc: 13 09 85 d7  	addi	s2, a0, -0x288
   169e0: 13 0a 09 10  	addi	s4, s2, 0x100
   169e4: 03 25 09 00  	lw	a0, 0x0(s2)
   169e8: 13 15 15 00  	slli	a0, a0, 0x1
   169ec: 33 85 a9 00  	add	a0, s3, a0
   169f0: 83 5a 05 00  	lhu	s5, 0x0(a0)
   169f4: 63 88 04 00  	beq	s1, zero, 0x16a04 <emit_dqt+0xdc>
   169f8: 93 d5 8a 00  	srli	a1, s5, 0x8
   169fc: 13 05 04 00  	addi	a0, s0, 0x0
   16a00: ef f0 1f eb  	jal	ra, 0x168b0 <emit_byte>
   16a04: 93 f5 fa 0f  	andi	a1, s5, 0xff
   16a08: 13 05 04 00  	addi	a0, s0, 0x0
   16a0c: ef f0 5f ea  	jal	ra, 0x168b0 <emit_byte>
   16a10: 13 09 49 00  	addi	s2, s2, 0x4
   16a14: e3 18 49 fd  	bne	s2, s4, 0x169e4 <emit_dqt+0xbc>
   16a18: 13 05 10 00  	addi	a0, zero, 0x1
   16a1c: 23 a0 a9 08  	sw	a0, 0x80(s3)
   16a20: 13 85 04 00  	addi	a0, s1, 0x0
   16a24: 6f a0 51 6f  	jal	zero, 0x31918 <__riscv_restore_7>

0000000000016a28 <emit_sof>:
   16a28: ef a2 71 6c  	jal	t0, 0x318ee <__riscv_save_3>
   16a2c: 93 84 05 00  	addi	s1, a1, 0x0
   16a30: 13 04 05 00  	addi	s0, a0, 0x0
   16a34: 93 05 f0 0f  	addi	a1, zero, 0xff
   16a38: ef f0 9f e7  	jal	ra, 0x168b0 <emit_byte>
   16a3c: 13 05 04 00  	addi	a0, s0, 0x0
   16a40: 93 85 04 00  	addi	a1, s1, 0x0
   16a44: ef f0 df e6  	jal	ra, 0x168b0 <emit_byte>
   16a48: 03 25 44 04  	lw	a0, 0x44(s0)
   16a4c: 93 15 15 00  	slli	a1, a0, 0x1
   16a50: 33 85 a5 00  	add	a0, a1, a0
   16a54: 93 04 85 00  	addi	s1, a0, 0x8
   16a58: 93 95 04 03  	slli	a1, s1, 0x30
   16a5c: 93 d5 85 03  	srli	a1, a1, 0x38
   16a60: 13 05 04 00  	addi	a0, s0, 0x0
   16a64: ef f0 df e4  	jal	ra, 0x168b0 <emit_byte>
   16a68: 93 f5 f4 0f  	andi	a1, s1, 0xff
   16a6c: 13 05 04 00  	addi	a0, s0, 0x0
   16a70: ef f0 1f e4  	jal	ra, 0x168b0 <emit_byte>
   16a74: 03 55 e4 02  	lhu	a0, 0x2e(s0)
   16a78: 63 16 05 00  	bne	a0, zero, 0x16a84 <emit_sof+0x5c>
   16a7c: 03 55 a4 02  	lhu	a0, 0x2a(s0)
   16a80: 63 04 05 02  	beq	a0, zero, 0x16aa8 <emit_sof+0x80>
   16a84: 03 35 04 00  	ld	a0, 0x0(s0)
   16a88: b7 f5 ff 0f  	lui	a1, 0xffff
   16a8c: 93 95 45 01  	slli	a1, a1, 0x14
   16a90: 93 85 85 02  	addi	a1, a1, 0x28
   16a94: 23 34 b5 02  	sd	a1, 0x28(a0)
   16a98: 03 35 04 00  	ld	a0, 0x0(s0)
   16a9c: 83 35 05 00  	ld	a1, 0x0(a0)
   16aa0: 13 05 04 00  	addi	a0, s0, 0x0
   16aa4: e7 80 05 00  	jalr	ra, 0x0(a1)
   16aa8: 83 25 04 04  	lw	a1, 0x40(s0)
   16aac: 13 05 04 00  	addi	a0, s0, 0x0
   16ab0: ef f0 1f e0  	jal	ra, 0x168b0 <emit_byte>
   16ab4: 83 24 c4 02  	lw	s1, 0x2c(s0)
   16ab8: 93 95 04 03  	slli	a1, s1, 0x30
   16abc: 93 d5 85 03  	srli	a1, a1, 0x38
   16ac0: 13 05 04 00  	addi	a0, s0, 0x0
   16ac4: ef f0 df de  	jal	ra, 0x168b0 <emit_byte>
   16ac8: 93 f5 f4 0f  	andi	a1, s1, 0xff
   16acc: 13 05 04 00  	addi	a0, s0, 0x0
   16ad0: ef f0 1f de  	jal	ra, 0x168b0 <emit_byte>
   16ad4: 83 24 84 02  	lw	s1, 0x28(s0)
   16ad8: 93 95 04 03  	slli	a1, s1, 0x30
   16adc: 93 d5 85 03  	srli	a1, a1, 0x38
   16ae0: 13 05 04 00  	addi	a0, s0, 0x0
   16ae4: ef f0 df dc  	jal	ra, 0x168b0 <emit_byte>
   16ae8: 93 f5 f4 0f  	andi	a1, s1, 0xff
   16aec: 13 05 04 00  	addi	a0, s0, 0x0
   16af0: ef f0 1f dc  	jal	ra, 0x168b0 <emit_byte>
   16af4: 83 25 44 04  	lw	a1, 0x44(s0)
   16af8: 13 05 04 00  	addi	a0, s0, 0x0
   16afc: ef f0 5f db  	jal	ra, 0x168b0 <emit_byte>
   16b00: 03 25 44 04  	lw	a0, 0x44(s0)
   16b04: 63 56 a0 04  	bge	zero, a0, 0x16b50 <emit_sof+0x128>
   16b08: 83 34 04 05  	ld	s1, 0x50(s0)
   16b0c: 13 09 00 00  	addi	s2, zero, 0x0
   16b10: 83 a5 04 00  	lw	a1, 0x0(s1)
   16b14: 13 05 04 00  	addi	a0, s0, 0x0
   16b18: ef f0 9f d9  	jal	ra, 0x168b0 <emit_byte>
   16b1c: 03 a5 84 00  	lw	a0, 0x8(s1)
   16b20: 83 a5 c4 00  	lw	a1, 0xc(s1)
   16b24: 13 15 45 00  	slli	a0, a0, 0x4
   16b28: bb 05 b5 00  	addw	a1, a0, a1
   16b2c: 13 05 04 00  	addi	a0, s0, 0x0
   16b30: ef f0 1f d8  	jal	ra, 0x168b0 <emit_byte>
   16b34: 83 a5 04 01  	lw	a1, 0x10(s1)
   16b38: 13 05 04 00  	addi	a0, s0, 0x0
   16b3c: ef f0 5f d7  	jal	ra, 0x168b0 <emit_byte>
   16b40: 03 25 44 04  	lw	a0, 0x44(s0)
   16b44: 1b 09 19 00  	addiw	s2, s2, 0x1
   16b48: 93 84 04 06  	addi	s1, s1, 0x60
   16b4c: e3 42 a9 fc  	blt	s2, a0, 0x16b10 <emit_sof+0xe8>
   16b50: 6f a0 51 5d  	jal	zero, 0x31924 <__riscv_restore_3>

0000000000016b54 <emit_dht>:
   16b54: ef a2 71 58  	jal	t0, 0x318da <__riscv_save_7>
   16b58: 13 04 05 00  	addi	s0, a0, 0x0
   16b5c: b3 34 c0 00  	sltu	s1, zero, a2
   16b60: 13 95 35 00  	slli	a0, a1, 0x3
   16b64: 33 05 a4 00  	add	a0, s0, a0
   16b68: 93 94 44 00  	slli	s1, s1, 0x4
   16b6c: 93 06 80 07  	addi	a3, zero, 0x78
   16b70: 63 04 06 00  	beq	a2, zero, 0x16b78 <emit_dht+0x24>
   16b74: 93 06 80 09  	addi	a3, zero, 0x98
   16b78: 33 05 d5 00  	add	a0, a0, a3
   16b7c: 03 39 05 00  	ld	s2, 0x0(a0)
   16b80: bb 84 95 00  	addw	s1, a1, s1
   16b84: 63 12 09 02  	bne	s2, zero, 0x16ba8 <emit_dht+0x54>
   16b88: 03 35 04 00  	ld	a0, 0x0(s0)
   16b8c: 23 26 95 02  	sw	s1, 0x2c(a0)
   16b90: 83 35 04 00  	ld	a1, 0x0(s0)
   16b94: 83 b5 05 00  	ld	a1, 0x0(a1)
   16b98: 13 06 10 03  	addi	a2, zero, 0x31
   16b9c: 23 24 c5 02  	sw	a2, 0x28(a0)
   16ba0: 13 05 04 00  	addi	a0, s0, 0x0
   16ba4: e7 80 05 00  	jalr	ra, 0x0(a1)
   16ba8: 03 25 49 11  	lw	a0, 0x114(s2)
   16bac: 63 04 05 00  	beq	a0, zero, 0x16bb4 <emit_dht+0x60>
   16bb0: 6f a0 91 56  	jal	zero, 0x31918 <__riscv_restore_7>
   16bb4: 93 05 f0 0f  	addi	a1, zero, 0xff
   16bb8: 13 05 04 00  	addi	a0, s0, 0x0
   16bbc: ef f0 5f cf  	jal	ra, 0x168b0 <emit_byte>
   16bc0: 93 05 40 0c  	addi	a1, zero, 0xc4
   16bc4: 13 05 04 00  	addi	a0, s0, 0x0
   16bc8: ef f0 9f ce  	jal	ra, 0x168b0 <emit_byte>
   16bcc: 13 0a 00 00  	addi	s4, zero, 0x0
   16bd0: 13 05 19 00  	addi	a0, s2, 0x1
   16bd4: 93 09 19 01  	addi	s3, s2, 0x11
   16bd8: 83 45 05 00  	lbu	a1, 0x0(a0)
   16bdc: 13 05 15 00  	addi	a0, a0, 0x1
   16be0: 3b 0a ba 00  	addw	s4, s4, a1
   16be4: e3 1a 35 ff  	bne	a0, s3, 0x16bd8 <emit_dht+0x84>
   16be8: 93 0a 3a 01  	addi	s5, s4, 0x13
   16bec: 93 95 0a 03  	slli	a1, s5, 0x30
   16bf0: 93 d5 85 03  	srli	a1, a1, 0x38
   16bf4: 13 05 04 00  	addi	a0, s0, 0x0
   16bf8: ef f0 9f cb  	jal	ra, 0x168b0 <emit_byte>
   16bfc: 93 f5 fa 0f  	andi	a1, s5, 0xff
   16c00: 13 05 04 00  	addi	a0, s0, 0x0
   16c04: ef f0 df ca  	jal	ra, 0x168b0 <emit_byte>
   16c08: 13 05 04 00  	addi	a0, s0, 0x0
   16c0c: 93 85 04 00  	addi	a1, s1, 0x0
   16c10: ef f0 1f ca  	jal	ra, 0x168b0 <emit_byte>
   16c14: 93 04 19 00  	addi	s1, s2, 0x1
   16c18: 83 c5 04 00  	lbu	a1, 0x0(s1)
   16c1c: 13 05 04 00  	addi	a0, s0, 0x0
   16c20: ef f0 1f c9  	jal	ra, 0x168b0 <emit_byte>
   16c24: 93 84 14 00  	addi	s1, s1, 0x1
   16c28: e3 98 34 ff  	bne	s1, s3, 0x16c18 <emit_dht+0xc4>
   16c2c: 63 02 0a 02  	beq	s4, zero, 0x16c50 <emit_dht+0xfc>
   16c30: 13 1a 0a 02  	slli	s4, s4, 0x20
   16c34: 93 54 0a 02  	srli	s1, s4, 0x20
   16c38: b3 84 99 00  	add	s1, s3, s1
   16c3c: 83 c5 09 00  	lbu	a1, 0x0(s3)
   16c40: 13 05 04 00  	addi	a0, s0, 0x0
   16c44: ef f0 df c6  	jal	ra, 0x168b0 <emit_byte>
   16c48: 93 89 19 00  	addi	s3, s3, 0x1
   16c4c: e3 98 99 fe  	bne	s3, s1, 0x16c3c <emit_dht+0xe8>
   16c50: 13 05 10 00  	addi	a0, zero, 0x1
   16c54: 23 2a a9 10  	sw	a0, 0x114(s2)
   16c58: 6f a0 11 4c  	jal	zero, 0x31918 <__riscv_restore_7>

0000000000016c5c <jinit_c_main_controller>:
   16c5c: 13 01 01 fd  	addi	sp, sp, -0x30
   16c60: 23 34 11 02  	sd	ra, 0x28(sp)
   16c64: 23 30 81 02  	sd	s0, 0x20(sp)
   16c68: 23 3c 91 00  	sd	s1, 0x18(sp)
   16c6c: 23 38 21 01  	sd	s2, 0x10(sp)
   16c70: 23 34 31 01  	sd	s3, 0x8(sp)
   16c74: 13 04 05 00  	addi	s0, a0, 0x0
   16c78: 03 35 85 00  	ld	a0, 0x8(a0)
   16c7c: 83 36 05 00  	ld	a3, 0x0(a0)
   16c80: 93 84 05 00  	addi	s1, a1, 0x0
   16c84: 93 05 10 00  	addi	a1, zero, 0x1
   16c88: 13 06 00 07  	addi	a2, zero, 0x70
   16c8c: 13 05 04 00  	addi	a0, s0, 0x0
   16c90: e7 80 06 00  	jalr	ra, 0x0(a3)
   16c94: 83 25 84 0f  	lw	a1, 0xf8(s0)
   16c98: 37 76 01 00  	lui	a2, 0x17
   16c9c: 13 06 46 d5  	addi	a2, a2, -0x2ac
   16ca0: 23 30 c5 00  	sd	a2, 0x0(a0)
   16ca4: 23 38 a4 1a  	sd	a0, 0x1b0(s0)
   16ca8: 63 80 05 02  	beq	a1, zero, 0x16cc8 <jinit_c_main_controller+0x6c>
   16cac: 83 30 81 02  	ld	ra, 0x28(sp)
   16cb0: 03 34 01 02  	ld	s0, 0x20(sp)
   16cb4: 83 34 81 01  	ld	s1, 0x18(sp)
   16cb8: 03 39 01 01  	ld	s2, 0x10(sp)
   16cbc: 83 39 81 00  	ld	s3, 0x8(sp)
   16cc0: 13 01 01 03  	addi	sp, sp, 0x30
   16cc4: 67 80 00 00  	jalr	zero, 0x0(ra)
   16cc8: 63 8a 04 02  	beq	s1, zero, 0x16cfc <jinit_c_main_controller+0xa0>
   16ccc: 03 35 04 00  	ld	a0, 0x0(s0)
   16cd0: 03 33 05 00  	ld	t1, 0x0(a0)
   16cd4: 93 05 40 00  	addi	a1, zero, 0x4
   16cd8: 23 24 b5 02  	sw	a1, 0x28(a0)
   16cdc: 13 05 04 00  	addi	a0, s0, 0x0
   16ce0: 83 30 81 02  	ld	ra, 0x28(sp)
   16ce4: 03 34 01 02  	ld	s0, 0x20(sp)
   16ce8: 83 34 81 01  	ld	s1, 0x18(sp)
   16cec: 03 39 01 01  	ld	s2, 0x10(sp)
   16cf0: 83 39 81 00  	ld	s3, 0x8(sp)
   16cf4: 13 01 01 03  	addi	sp, sp, 0x30
   16cf8: 67 00 03 00  	jalr	zero, 0x0(t1)
   16cfc: 83 25 44 04  	lw	a1, 0x44(s0)
   16d00: e3 56 b0 fa  	bge	zero, a1, 0x16cac <jinit_c_main_controller+0x50>
   16d04: 83 39 04 05  	ld	s3, 0x50(s0)
   16d08: 93 04 00 00  	addi	s1, zero, 0x0
   16d0c: 13 09 05 02  	addi	s2, a0, 0x20
   16d10: 93 89 c9 01  	addi	s3, s3, 0x1c
   16d14: 03 35 84 00  	ld	a0, 0x8(s0)
   16d18: 83 a5 09 00  	lw	a1, 0x0(s3)
   16d1c: 83 a6 09 ff  	lw	a3, -0x10(s3)
   16d20: 03 37 05 01  	ld	a4, 0x10(a0)
   16d24: 1b 96 35 00  	slliw	a2, a1, 0x3
   16d28: 9b 96 36 00  	slliw	a3, a3, 0x3
   16d2c: 93 05 10 00  	addi	a1, zero, 0x1
   16d30: 13 05 04 00  	addi	a0, s0, 0x0
   16d34: e7 00 07 00  	jalr	ra, 0x0(a4)
   16d38: 83 25 44 04  	lw	a1, 0x44(s0)
   16d3c: 23 30 a9 00  	sd	a0, 0x0(s2)
   16d40: 93 84 14 00  	addi	s1, s1, 0x1
   16d44: 13 09 89 00  	addi	s2, s2, 0x8
   16d48: 93 89 09 06  	addi	s3, s3, 0x60
   16d4c: e3 c4 b4 fc  	blt	s1, a1, 0x16d14 <jinit_c_main_controller+0xb8>
   16d50: 6f f0 df f5  	jal	zero, 0x16cac <jinit_c_main_controller+0x50>

0000000000016d54 <start_pass_main>:
   16d54: 03 26 85 0f  	lw	a2, 0xf8(a0)
   16d58: 63 04 06 00  	beq	a2, zero, 0x16d60 <start_pass_main+0xc>
   16d5c: 67 80 00 00  	jalr	zero, 0x0(ra)
   16d60: 03 36 05 1b  	ld	a2, 0x1b0(a0)
   16d64: 23 38 06 00  	sd	zero, 0x10(a2)
   16d68: 23 2c 06 00  	sw	zero, 0x18(a2)
   16d6c: 23 2e b6 00  	sw	a1, 0x1c(a2)
   16d70: 63 8c 05 00  	beq	a1, zero, 0x16d88 <start_pass_main+0x34>
   16d74: 83 35 05 00  	ld	a1, 0x0(a0)
   16d78: 03 b3 05 00  	ld	t1, 0x0(a1)
   16d7c: 13 06 40 00  	addi	a2, zero, 0x4
   16d80: 23 a4 c5 02  	sw	a2, 0x28(a1)
   16d84: 67 00 03 00  	jalr	zero, 0x0(t1)
   16d88: 37 75 01 00  	lui	a0, 0x17
   16d8c: 13 05 85 d9  	addi	a0, a0, -0x268
   16d90: 23 34 a6 00  	sd	a0, 0x8(a2)
   16d94: 67 80 00 00  	jalr	zero, 0x0(ra)

0000000000016d98 <process_data_simple_main>:
   16d98: ef a2 91 33  	jal	t0, 0x318d0 <__riscv_save_9>
   16d9c: 93 04 05 00  	addi	s1, a0, 0x0
   16da0: 03 3b 05 1b  	ld	s6, 0x1b0(a0)
   16da4: 03 25 0b 01  	lw	a0, 0x10(s6)
   16da8: 03 a7 84 13  	lw	a4, 0x138(s1)
   16dac: 63 76 e5 0a  	bgeu	a0, a4, 0x16e58 <process_data_simple_main+0xc0>
   16db0: 13 89 06 00  	addi	s2, a3, 0x0
   16db4: 13 04 06 00  	addi	s0, a2, 0x0
   16db8: 93 89 05 00  	addi	s3, a1, 0x0
   16dbc: 13 0a 4b 01  	addi	s4, s6, 0x14
   16dc0: 03 25 4b 01  	lw	a0, 0x14(s6)
   16dc4: 93 0a 0b 02  	addi	s5, s6, 0x20
   16dc8: 93 0b 70 00  	addi	s7, zero, 0x7
   16dcc: 13 0c 80 00  	addi	s8, zero, 0x8
   16dd0: 63 e8 ab 02  	bltu	s7, a0, 0x16e00 <process_data_simple_main+0x68>
   16dd4: 03 b5 84 1b  	ld	a0, 0x1b8(s1)
   16dd8: 83 38 85 00  	ld	a7, 0x8(a0)
   16ddc: 13 08 80 00  	addi	a6, zero, 0x8
   16de0: 13 85 04 00  	addi	a0, s1, 0x0
   16de4: 93 85 09 00  	addi	a1, s3, 0x0
   16de8: 13 06 04 00  	addi	a2, s0, 0x0
   16dec: 93 06 09 00  	addi	a3, s2, 0x0
   16df0: 13 87 0a 00  	addi	a4, s5, 0x0
   16df4: 93 07 0a 00  	addi	a5, s4, 0x0
   16df8: e7 80 08 00  	jalr	ra, 0x0(a7)
   16dfc: 03 25 0a 00  	lw	a0, 0x0(s4)
   16e00: 63 1c 85 05  	bne	a0, s8, 0x16e58 <process_data_simple_main+0xc0>
   16e04: 03 b5 04 1c  	ld	a0, 0x1c0(s1)
   16e08: 03 36 85 00  	ld	a2, 0x8(a0)
   16e0c: 13 85 04 00  	addi	a0, s1, 0x0
   16e10: 93 85 0a 00  	addi	a1, s5, 0x0
   16e14: e7 00 06 00  	jalr	ra, 0x0(a2)
   16e18: 83 25 8b 01  	lw	a1, 0x18(s6)
   16e1c: 63 0c 05 02  	beq	a0, zero, 0x16e54 <process_data_simple_main+0xbc>
   16e20: 63 8a 05 00  	beq	a1, zero, 0x16e34 <process_data_simple_main+0x9c>
   16e24: 03 25 04 00  	lw	a0, 0x0(s0)
   16e28: 13 05 15 00  	addi	a0, a0, 0x1
   16e2c: 23 20 a4 00  	sw	a0, 0x0(s0)
   16e30: 23 2c 0b 00  	sw	zero, 0x18(s6)
   16e34: 83 25 0b 01  	lw	a1, 0x10(s6)
   16e38: 03 a6 84 13  	lw	a2, 0x138(s1)
   16e3c: 13 05 00 00  	addi	a0, zero, 0x0
   16e40: 23 2a 0b 00  	sw	zero, 0x14(s6)
   16e44: 9b 85 15 00  	addiw	a1, a1, 0x1
   16e48: 23 28 bb 00  	sw	a1, 0x10(s6)
   16e4c: e3 e2 c5 f8  	bltu	a1, a2, 0x16dd0 <process_data_simple_main+0x38>
   16e50: 6f 00 80 00  	jal	zero, 0x16e58 <process_data_simple_main+0xc0>
   16e54: 63 84 05 00  	beq	a1, zero, 0x16e5c <process_data_simple_main+0xc4>
   16e58: 6f a0 b1 2b  	jal	zero, 0x31912 <__riscv_restore_9>
   16e5c: 03 25 04 00  	lw	a0, 0x0(s0)
   16e60: 13 05 f5 ff  	addi	a0, a0, -0x1
   16e64: 23 20 a4 00  	sw	a0, 0x0(s0)
   16e68: 13 05 10 00  	addi	a0, zero, 0x1
   16e6c: 23 2c ab 00  	sw	a0, 0x18(s6)
   16e70: 6f a0 31 2a  	jal	zero, 0x31912 <__riscv_restore_9>

0000000000016e74 <jinit_c_prep_controller>:
   16e74: ef a2 b1 24  	jal	t0, 0x318be <__riscv_save_12>
   16e78: 13 01 01 fd  	addi	sp, sp, -0x30
   16e7c: 13 04 05 00  	addi	s0, a0, 0x0
   16e80: 63 8e 05 00  	beq	a1, zero, 0x16e9c <jinit_c_prep_controller+0x28>
   16e84: 03 35 04 00  	ld	a0, 0x0(s0)
   16e88: 83 35 05 00  	ld	a1, 0x0(a0)
   16e8c: 13 06 40 00  	addi	a2, zero, 0x4
   16e90: 23 24 c5 02  	sw	a2, 0x28(a0)
   16e94: 13 05 04 00  	addi	a0, s0, 0x0
   16e98: e7 80 05 00  	jalr	ra, 0x0(a1)
   16e9c: 03 35 84 00  	ld	a0, 0x8(s0)
   16ea0: 83 36 05 00  	ld	a3, 0x0(a0)
   16ea4: 93 05 10 00  	addi	a1, zero, 0x1
   16ea8: 13 06 00 07  	addi	a2, zero, 0x70
   16eac: 13 05 04 00  	addi	a0, s0, 0x0
   16eb0: e7 80 06 00  	jalr	ra, 0x0(a3)
   16eb4: 83 35 84 1d  	ld	a1, 0x1d8(s0)
   16eb8: 13 0c 05 00  	addi	s8, a0, 0x0
   16ebc: 03 a5 05 01  	lw	a0, 0x10(a1)
   16ec0: b7 75 01 00  	lui	a1, 0x17
   16ec4: 93 85 c5 0a  	addi	a1, a1, 0xac
   16ec8: 23 30 bc 00  	sd	a1, 0x0(s8)
   16ecc: 23 3c 84 1b  	sd	s8, 0x1b8(s0)
   16ed0: 63 02 05 16  	beq	a0, zero, 0x17034 <jinit_c_prep_controller+0x1c0>
   16ed4: 03 35 84 00  	ld	a0, 0x8(s0)
   16ed8: b7 75 01 00  	lui	a1, 0x17
   16edc: 93 85 45 0f  	addi	a1, a1, 0xf4
   16ee0: 83 6a 44 13  	lwu	s5, 0x134(s0)
   16ee4: 03 39 05 00  	ld	s2, 0x0(a0)
   16ee8: 03 25 44 04  	lw	a0, 0x44(s0)
   16eec: 23 34 bc 00  	sd	a1, 0x8(s8)
   16ef0: 93 94 2a 00  	slli	s1, s5, 0x2
   16ef4: b3 85 54 01  	add	a1, s1, s5
   16ef8: ef a0 d1 23  	jal	ra, 0x31934 <__muldi3>
   16efc: 1b 05 05 00  	addiw	a0, a0, 0x0
   16f00: 13 16 35 00  	slli	a2, a0, 0x3
   16f04: 93 05 10 00  	addi	a1, zero, 0x1
   16f08: 13 05 04 00  	addi	a0, s0, 0x0
   16f0c: e7 00 09 00  	jalr	ra, 0x0(s2)
   16f10: 83 25 44 04  	lw	a1, 0x44(s0)
   16f14: 23 38 a1 00  	sd	a0, 0x10(sp)
   16f18: 63 56 b0 18  	bge	zero, a1, 0x170a4 <jinit_c_prep_controller+0x230>
   16f1c: 93 09 00 00  	addi	s3, zero, 0x0
   16f20: 1b 8d 0a 00  	addiw	s10, s5, 0x0
   16f24: 3b 8a 54 01  	addw	s4, s1, s5
   16f28: 83 3d 04 05  	ld	s11, 0x50(s0)
   16f2c: 13 15 1d 00  	slli	a0, s10, 0x1
   16f30: 3b 05 a5 01  	addw	a0, a0, s10
   16f34: 23 34 a1 02  	sd	a0, 0x28(sp)
   16f38: 13 15 35 00  	slli	a0, a0, 0x3
   16f3c: 23 30 a1 02  	sd	a0, 0x20(sp)
   16f40: 13 15 2d 02  	slli	a0, s10, 0x22
   16f44: 13 59 d5 01  	srli	s2, a0, 0x1d
   16f48: 13 1a 3a 00  	slli	s4, s4, 0x3
   16f4c: 93 14 1d 02  	slli	s1, s10, 0x21
   16f50: 93 d4 d4 01  	srli	s1, s1, 0x1d
   16f54: 93 9a 3a 00  	slli	s5, s5, 0x3
   16f58: 23 34 51 01  	sd	s5, 0x8(sp)
   16f5c: 13 15 3d 00  	slli	a0, s10, 0x3
   16f60: 23 3c a1 00  	sd	a0, 0x18(sp)
   16f64: 03 3b 01 01  	ld	s6, 0x10(sp)
   16f68: 93 0a 0c 00  	addi	s5, s8, 0x0
   16f6c: 13 05 0a 00  	addi	a0, s4, 0x0
   16f70: 93 85 09 00  	addi	a1, s3, 0x0
   16f74: ef a0 11 1c  	jal	ra, 0x31934 <__muldi3>
   16f78: 83 35 84 00  	ld	a1, 0x8(s0)
   16f7c: 83 bb 05 01  	ld	s7, 0x10(a1)
   16f80: 03 e6 cd 01  	lwu	a2, 0x1c(s11)
   16f84: 83 25 04 13  	lw	a1, 0x130(s0)
   16f88: 13 0c 05 00  	addi	s8, a0, 0x0
   16f8c: 13 05 06 00  	addi	a0, a2, 0x0
   16f90: ef a0 51 1a  	jal	ra, 0x31934 <__muldi3>
   16f94: 83 a5 8d 00  	lw	a1, 0x8(s11)
   16f98: 13 15 35 00  	slli	a0, a0, 0x3
   16f9c: ef a0 91 1d  	jal	ra, 0x31974 <__divdi3>
   16fa0: 1b 06 05 00  	addiw	a2, a0, 0x0
   16fa4: 93 05 10 00  	addi	a1, zero, 0x1
   16fa8: 13 05 04 00  	addi	a0, s0, 0x0
   16fac: 83 36 81 02  	ld	a3, 0x28(sp)
   16fb0: e7 80 0b 00  	jalr	ra, 0x0(s7)
   16fb4: 93 0c 05 00  	addi	s9, a0, 0x0
   16fb8: 83 3b 81 01  	ld	s7, 0x18(sp)
   16fbc: b3 0b 7b 01  	add	s7, s6, s7
   16fc0: 13 85 0b 00  	addi	a0, s7, 0x0
   16fc4: 93 85 0c 00  	addi	a1, s9, 0x0
   16fc8: 03 36 01 02  	ld	a2, 0x20(sp)
   16fcc: ef 80 50 00  	jal	ra, 0x1f7d0 <memcpy>
   16fd0: 63 5e a0 03  	bge	zero, s10, 0x1700c <jinit_c_prep_controller+0x198>
   16fd4: 03 35 81 00  	ld	a0, 0x8(sp)
   16fd8: 33 05 85 01  	add	a0, a0, s8
   16fdc: 83 35 01 01  	ld	a1, 0x10(sp)
   16fe0: 33 85 a5 00  	add	a0, a1, a0
   16fe4: 93 05 0b 00  	addi	a1, s6, 0x0
   16fe8: 33 86 9c 00  	add	a2, s9, s1
   16fec: 03 36 06 00  	ld	a2, 0x0(a2)
   16ff0: 23 b0 c5 00  	sd	a2, 0x0(a1)
   16ff4: 03 b6 0c 00  	ld	a2, 0x0(s9)
   16ff8: b3 86 25 01  	add	a3, a1, s2
   16ffc: 23 b0 c6 00  	sd	a2, 0x0(a3)
   17000: 93 85 85 00  	addi	a1, a1, 0x8
   17004: 93 8c 8c 00  	addi	s9, s9, 0x8
   17008: e3 90 a5 fe  	bne	a1, a0, 0x16fe8 <jinit_c_prep_controller+0x174>
   1700c: 13 95 39 00  	slli	a0, s3, 0x3
   17010: 13 8c 0a 00  	addi	s8, s5, 0x0
   17014: 33 85 aa 00  	add	a0, s5, a0
   17018: 83 25 44 04  	lw	a1, 0x44(s0)
   1701c: 23 38 75 01  	sd	s7, 0x10(a0)
   17020: 33 0b 4b 01  	add	s6, s6, s4
   17024: 93 89 19 00  	addi	s3, s3, 0x1
   17028: 93 8d 0d 06  	addi	s11, s11, 0x60
   1702c: e3 ce b9 f2  	blt	s3, a1, 0x16f68 <jinit_c_prep_controller+0xf4>
   17030: 6f 00 40 07  	jal	zero, 0x170a4 <jinit_c_prep_controller+0x230>
   17034: 03 25 44 04  	lw	a0, 0x44(s0)
   17038: b7 75 01 00  	lui	a1, 0x17
   1703c: 93 85 05 31  	addi	a1, a1, 0x310
   17040: 23 34 bc 00  	sd	a1, 0x8(s8)
   17044: 63 50 a0 06  	bge	zero, a0, 0x170a4 <jinit_c_prep_controller+0x230>
   17048: 83 39 04 05  	ld	s3, 0x50(s0)
   1704c: 93 04 00 00  	addi	s1, zero, 0x0
   17050: 13 09 0c 01  	addi	s2, s8, 0x10
   17054: 93 89 c9 01  	addi	s3, s3, 0x1c
   17058: 03 35 84 00  	ld	a0, 0x8(s0)
   1705c: 03 3a 05 01  	ld	s4, 0x10(a0)
   17060: 03 e5 09 00  	lwu	a0, 0x0(s3)
   17064: 83 25 04 13  	lw	a1, 0x130(s0)
   17068: ef a0 d1 0c  	jal	ra, 0x31934 <__muldi3>
   1706c: 83 a5 c9 fe  	lw	a1, -0x14(s3)
   17070: 13 15 35 00  	slli	a0, a0, 0x3
   17074: ef a0 11 10  	jal	ra, 0x31974 <__divdi3>
   17078: 83 26 44 13  	lw	a3, 0x134(s0)
   1707c: 1b 06 05 00  	addiw	a2, a0, 0x0
   17080: 93 05 10 00  	addi	a1, zero, 0x1
   17084: 13 05 04 00  	addi	a0, s0, 0x0
   17088: e7 00 0a 00  	jalr	ra, 0x0(s4)
   1708c: 83 25 44 04  	lw	a1, 0x44(s0)
   17090: 23 30 a9 00  	sd	a0, 0x0(s2)
   17094: 93 84 14 00  	addi	s1, s1, 0x1
   17098: 13 09 89 00  	addi	s2, s2, 0x8
   1709c: 93 89 09 06  	addi	s3, s3, 0x60
   170a0: e3 cc b4 fa  	blt	s1, a1, 0x17058 <jinit_c_prep_controller+0x1e4>
   170a4: 13 01 01 03  	addi	sp, sp, 0x30
   170a8: 6f a0 11 06  	jal	zero, 0x31908 <__riscv_restore_12>

00000000000170ac <start_pass_prep>:
   170ac: ef a2 31 04  	jal	t0, 0x318ee <__riscv_save_3>
   170b0: 13 04 05 00  	addi	s0, a0, 0x0
   170b4: 83 34 85 1b  	ld	s1, 0x1b8(a0)
   170b8: 63 8e 05 00  	beq	a1, zero, 0x170d4 <start_pass_prep+0x28>
   170bc: 03 35 04 00  	ld	a0, 0x0(s0)
   170c0: 83 35 05 00  	ld	a1, 0x0(a0)
   170c4: 13 06 40 00  	addi	a2, zero, 0x4
   170c8: 23 24 c5 02  	sw	a2, 0x28(a0)
   170cc: 13 05 04 00  	addi	a0, s0, 0x0
   170d0: e7 80 05 00  	jalr	ra, 0x0(a1)
   170d4: 03 25 c4 02  	lw	a0, 0x2c(s0)
   170d8: 83 25 44 13  	lw	a1, 0x134(s0)
   170dc: 23 a0 a4 06  	sw	a0, 0x60(s1)
   170e0: 23 a2 04 06  	sw	zero, 0x64(s1)
   170e4: 23 a4 04 06  	sw	zero, 0x68(s1)
   170e8: 93 95 15 00  	slli	a1, a1, 0x1
   170ec: 23 a6 b4 06  	sw	a1, 0x6c(s1)
   170f0: 6f a0 51 03  	jal	zero, 0x31924 <__riscv_restore_3>

00000000000170f4 <pre_process_context>:
   170f4: ef a2 a1 7c  	jal	t0, 0x318be <__riscv_save_12>
   170f8: 13 01 01 fe  	addi	sp, sp, -0x20
   170fc: 13 84 07 00  	addi	s0, a5, 0x0
   17100: 83 a7 07 00  	lw	a5, 0x0(a5)
   17104: 23 34 e1 00  	sd	a4, 0x8(sp)
   17108: 23 30 b1 00  	sd	a1, 0x0(sp)
   1710c: 23 38 01 01  	sd	a6, 0x10(sp)
   17110: 63 fc 07 1f  	bgeu	a5, a6, 0x17308 <pre_process_context+0x214>
   17114: 93 89 06 00  	addi	s3, a3, 0x0
   17118: 13 0a 06 00  	addi	s4, a2, 0x0
   1711c: 13 0b 05 00  	addi	s6, a0, 0x0
   17120: 03 25 45 13  	lw	a0, 0x134(a0)
   17124: 83 3b 8b 1b  	ld	s7, 0x1b8(s6)
   17128: 93 15 15 00  	slli	a1, a0, 0x1
   1712c: 3b 89 a5 00  	addw	s2, a1, a0
   17130: 13 85 0b 01  	addi	a0, s7, 0x10
   17134: 23 3c a1 00  	sd	a0, 0x18(sp)
   17138: 03 65 0a 00  	lwu	a0, 0x0(s4)
   1713c: 9b 05 05 00  	addiw	a1, a0, 0x0
   17140: 63 fc 35 0d  	bgeu	a1, s3, 0x17218 <pre_process_context+0x124>
   17144: 03 a6 cb 06  	lw	a2, 0x6c(s7)
   17148: 83 a6 4b 06  	lw	a3, 0x64(s7)
   1714c: bb 85 a9 40  	subw	a1, s3, a0
   17150: 3b 0c d6 40  	subw	s8, a2, a3
   17154: 63 64 bc 00  	bltu	s8, a1, 0x1715c <pre_process_context+0x68>
   17158: 13 8c 05 00  	addi	s8, a1, 0x0
   1715c: 83 35 0b 1d  	ld	a1, 0x1d0(s6)
   17160: 83 b7 85 00  	ld	a5, 0x8(a1)
   17164: 13 15 35 00  	slli	a0, a0, 0x3
   17168: 83 35 01 00  	ld	a1, 0x0(sp)
   1716c: b3 85 a5 00  	add	a1, a1, a0
   17170: 13 05 0b 00  	addi	a0, s6, 0x0
   17174: 03 36 81 01  	ld	a2, 0x18(sp)
   17178: 13 07 0c 00  	addi	a4, s8, 0x0
   1717c: e7 80 07 00  	jalr	ra, 0x0(a5)
   17180: 03 a5 0b 06  	lw	a0, 0x60(s7)
   17184: 83 25 cb 02  	lw	a1, 0x2c(s6)
   17188: 63 12 b5 06  	bne	a0, a1, 0x171ec <pre_process_context+0xf8>
   1718c: 83 25 4b 04  	lw	a1, 0x44(s6)
   17190: 63 5e b0 04  	bge	zero, a1, 0x171ec <pre_process_context+0xf8>
   17194: 03 25 4b 13  	lw	a0, 0x134(s6)
   17198: 13 0d 00 00  	addi	s10, zero, 0x0
   1719c: 63 54 a0 04  	bge	zero, a0, 0x171e4 <pre_process_context+0xf0>
   171a0: 93 04 00 00  	addi	s1, zero, 0x0
   171a4: 13 15 3d 00  	slli	a0, s10, 0x3
   171a8: 33 85 ab 00  	add	a0, s7, a0
   171ac: 93 0a 05 01  	addi	s5, a0, 0x10
   171b0: 93 0c f0 ff  	addi	s9, zero, -0x1
   171b4: 03 b5 0a 00  	ld	a0, 0x0(s5)
   171b8: 83 27 8b 02  	lw	a5, 0x28(s6)
   171bc: 13 07 10 00  	addi	a4, zero, 0x1
   171c0: 93 05 00 00  	addi	a1, zero, 0x0
   171c4: 13 06 05 00  	addi	a2, a0, 0x0
   171c8: 93 86 0c 00  	addi	a3, s9, 0x0
   171cc: ef 50 80 54  	jal	ra, 0x1c714 <jcopy_sample_rows>
   171d0: 03 25 4b 13  	lw	a0, 0x134(s6)
   171d4: 9b 84 14 00  	addiw	s1, s1, 0x1
   171d8: 9b 8c fc ff  	addiw	s9, s9, -0x1
   171dc: e3 cc a4 fc  	blt	s1, a0, 0x171b4 <pre_process_context+0xc0>
   171e0: 83 25 4b 04  	lw	a1, 0x44(s6)
   171e4: 13 0d 1d 00  	addi	s10, s10, 0x1
   171e8: e3 4a bd fa  	blt	s10, a1, 0x1719c <pre_process_context+0xa8>
   171ec: 03 25 0a 00  	lw	a0, 0x0(s4)
   171f0: 33 05 85 01  	add	a0, a0, s8
   171f4: 23 20 aa 00  	sw	a0, 0x0(s4)
   171f8: 03 a5 4b 06  	lw	a0, 0x64(s7)
   171fc: 03 a6 0b 06  	lw	a2, 0x60(s7)
   17200: bb 05 85 01  	addw	a1, a0, s8
   17204: 03 a5 cb 06  	lw	a0, 0x6c(s7)
   17208: 3b 06 86 41  	subw	a2, a2, s8
   1720c: 23 a2 bb 06  	sw	a1, 0x64(s7)
   17210: 23 a0 cb 06  	sw	a2, 0x60(s7)
   17214: 6f 00 40 08  	jal	zero, 0x17298 <pre_process_context+0x1a4>
   17218: 03 a5 0b 06  	lw	a0, 0x60(s7)
   1721c: 63 16 05 0e  	bne	a0, zero, 0x17308 <pre_process_context+0x214>
   17220: 83 a5 4b 06  	lw	a1, 0x64(s7)
   17224: 03 a5 cb 06  	lw	a0, 0x6c(s7)
   17228: 63 d8 a5 06  	bge	a1, a0, 0x17298 <pre_process_context+0x1a4>
   1722c: 83 25 4b 04  	lw	a1, 0x44(s6)
   17230: 63 5e b0 04  	bge	zero, a1, 0x1728c <pre_process_context+0x198>
   17234: 93 04 00 00  	addi	s1, zero, 0x0
   17238: 03 ac 4b 06  	lw	s8, 0x64(s7)
   1723c: 83 aa cb 06  	lw	s5, 0x6c(s7)
   17240: 63 50 5c 05  	bge	s8, s5, 0x17280 <pre_process_context+0x18c>
   17244: 13 95 34 00  	slli	a0, s1, 0x3
   17248: 33 85 ab 00  	add	a0, s7, a0
   1724c: 83 3c 05 01  	ld	s9, 0x10(a0)
   17250: 03 2d 8b 02  	lw	s10, 0x28(s6)
   17254: 9b 0d fc ff  	addiw	s11, s8, -0x1
   17258: 13 07 10 00  	addi	a4, zero, 0x1
   1725c: 13 85 0c 00  	addi	a0, s9, 0x0
   17260: 93 85 0d 00  	addi	a1, s11, 0x0
   17264: 13 86 0c 00  	addi	a2, s9, 0x0
   17268: 93 06 0c 00  	addi	a3, s8, 0x0
   1726c: 93 07 0d 00  	addi	a5, s10, 0x0
   17270: ef 50 40 4a  	jal	ra, 0x1c714 <jcopy_sample_rows>
   17274: 1b 0c 1c 00  	addiw	s8, s8, 0x1
   17278: e3 90 8a ff  	bne	s5, s8, 0x17258 <pre_process_context+0x164>
   1727c: 83 25 4b 04  	lw	a1, 0x44(s6)
   17280: 93 84 14 00  	addi	s1, s1, 0x1
   17284: e3 ca b4 fa  	blt	s1, a1, 0x17238 <pre_process_context+0x144>
   17288: 03 a5 cb 06  	lw	a0, 0x6c(s7)
   1728c: 23 a2 ab 06  	sw	a0, 0x64(s7)
   17290: 03 27 04 00  	lw	a4, 0x0(s0)
   17294: 6f 00 c0 00  	jal	zero, 0x172a0 <pre_process_context+0x1ac>
   17298: 03 27 04 00  	lw	a4, 0x0(s0)
   1729c: 63 92 a5 06  	bne	a1, a0, 0x17300 <pre_process_context+0x20c>
   172a0: 03 35 8b 1d  	ld	a0, 0x1d8(s6)
   172a4: 83 37 85 00  	ld	a5, 0x8(a0)
   172a8: 03 a6 8b 06  	lw	a2, 0x68(s7)
   172ac: 13 05 0b 00  	addi	a0, s6, 0x0
   172b0: 83 35 81 01  	ld	a1, 0x18(sp)
   172b4: 83 36 81 00  	ld	a3, 0x8(sp)
   172b8: e7 80 07 00  	jalr	ra, 0x0(a5)
   172bc: 03 25 04 00  	lw	a0, 0x0(s0)
   172c0: 13 05 15 00  	addi	a0, a0, 0x1
   172c4: 23 20 a4 00  	sw	a0, 0x0(s0)
   172c8: 03 25 4b 13  	lw	a0, 0x134(s6)
   172cc: 83 a5 8b 06  	lw	a1, 0x68(s7)
   172d0: 3b 86 a5 00  	addw	a2, a1, a0
   172d4: 83 a5 4b 06  	lw	a1, 0x64(s7)
   172d8: b3 26 26 01  	slt	a3, a2, s2
   172dc: bb 06 d0 40  	subw	a3, zero, a3
   172e0: 33 f6 c6 00  	and	a2, a3, a2
   172e4: 23 a4 cb 06  	sw	a2, 0x68(s7)
   172e8: 63 c6 25 01  	blt	a1, s2, 0x172f4 <pre_process_context+0x200>
   172ec: 93 05 00 00  	addi	a1, zero, 0x0
   172f0: 23 a2 0b 06  	sw	zero, 0x64(s7)
   172f4: 33 85 a5 00  	add	a0, a1, a0
   172f8: 23 a6 ab 06  	sw	a0, 0x6c(s7)
   172fc: 03 27 04 00  	lw	a4, 0x0(s0)
   17300: 03 35 01 01  	ld	a0, 0x10(sp)
   17304: e3 6a a7 e2  	bltu	a4, a0, 0x17138 <pre_process_context+0x44>
   17308: 13 01 01 02  	addi	sp, sp, 0x20
   1730c: 6f a0 c1 5f  	jal	zero, 0x31908 <__riscv_restore_12>

0000000000017310 <pre_process_data>:
   17310: ef a2 e1 5a  	jal	t0, 0x318be <__riscv_save_12>
   17314: 13 01 01 fe  	addi	sp, sp, -0x20
   17318: 13 0a 06 00  	addi	s4, a2, 0x0
   1731c: 03 26 06 00  	lw	a2, 0x0(a2)
   17320: 23 3c b1 00  	sd	a1, 0x18(sp)
   17324: 63 76 d6 20  	bgeu	a2, a3, 0x17530 <pre_process_data+0x220>
   17328: 13 04 08 00  	addi	s0, a6, 0x0
   1732c: 93 84 07 00  	addi	s1, a5, 0x0
   17330: 13 0b 07 00  	addi	s6, a4, 0x0
   17334: 93 8a 06 00  	addi	s5, a3, 0x0
   17338: 93 09 05 00  	addi	s3, a0, 0x0
   1733c: 83 3b 85 1b  	ld	s7, 0x1b8(a0)
   17340: 13 89 0b 01  	addi	s2, s7, 0x10
   17344: 23 38 01 01  	sd	a6, 0x10(sp)
   17348: 23 34 e1 00  	sd	a4, 0x8(sp)
   1734c: 03 a5 04 00  	lw	a0, 0x0(s1)
   17350: 63 70 85 1e  	bgeu	a0, s0, 0x17530 <pre_process_data+0x220>
   17354: 83 a5 49 13  	lw	a1, 0x134(s3)
   17358: 83 a6 4b 06  	lw	a3, 0x64(s7)
   1735c: 3b 85 ca 40  	subw	a0, s5, a2
   17360: 3b 8c d5 40  	subw	s8, a1, a3
   17364: 63 64 ac 00  	bltu	s8, a0, 0x1736c <pre_process_data+0x5c>
   17368: 13 0c 05 00  	addi	s8, a0, 0x0
   1736c: 03 b5 09 1d  	ld	a0, 0x1d0(s3)
   17370: 83 37 85 00  	ld	a5, 0x8(a0)
   17374: 13 16 06 02  	slli	a2, a2, 0x20
   17378: 93 55 d6 01  	srli	a1, a2, 0x1d
   1737c: 03 35 81 01  	ld	a0, 0x18(sp)
   17380: b3 05 b5 00  	add	a1, a0, a1
   17384: 13 85 09 00  	addi	a0, s3, 0x0
   17388: 13 06 09 00  	addi	a2, s2, 0x0
   1738c: 13 07 0c 00  	addi	a4, s8, 0x0
   17390: e7 80 07 00  	jalr	ra, 0x0(a5)
   17394: 03 25 0a 00  	lw	a0, 0x0(s4)
   17398: 33 05 85 01  	add	a0, a0, s8
   1739c: 23 20 aa 00  	sw	a0, 0x0(s4)
   173a0: 03 a6 0b 06  	lw	a2, 0x60(s7)
   173a4: 03 a5 4b 06  	lw	a0, 0x64(s7)
   173a8: bb 06 86 41  	subw	a3, a2, s8
   173ac: 83 a5 49 13  	lw	a1, 0x134(s3)
   173b0: 23 a0 db 06  	sw	a3, 0x60(s7)
   173b4: 3b 05 85 01  	addw	a0, a0, s8
   173b8: 23 a2 ab 06  	sw	a0, 0x64(s7)
   173bc: 63 1c 86 07  	bne	a2, s8, 0x17434 <pre_process_data+0x124>
   173c0: 63 5a b5 06  	bge	a0, a1, 0x17434 <pre_process_data+0x124>
   173c4: 03 a5 49 04  	lw	a0, 0x44(s3)
   173c8: 63 52 a0 06  	bge	zero, a0, 0x1742c <pre_process_data+0x11c>
   173cc: 13 0b 00 00  	addi	s6, zero, 0x0
   173d0: 03 ac 4b 06  	lw	s8, 0x64(s7)
   173d4: 03 a4 49 13  	lw	s0, 0x134(s3)
   173d8: 63 50 8c 04  	bge	s8, s0, 0x17418 <pre_process_data+0x108>
   173dc: 13 15 3b 00  	slli	a0, s6, 0x3
   173e0: 33 85 ab 00  	add	a0, s7, a0
   173e4: 83 3c 05 01  	ld	s9, 0x10(a0)
   173e8: 03 ad 89 02  	lw	s10, 0x28(s3)
   173ec: 9b 0d fc ff  	addiw	s11, s8, -0x1
   173f0: 13 07 10 00  	addi	a4, zero, 0x1
   173f4: 13 85 0c 00  	addi	a0, s9, 0x0
   173f8: 93 85 0d 00  	addi	a1, s11, 0x0
   173fc: 13 86 0c 00  	addi	a2, s9, 0x0
   17400: 93 06 0c 00  	addi	a3, s8, 0x0
   17404: 93 07 0d 00  	addi	a5, s10, 0x0
   17408: ef 50 c0 30  	jal	ra, 0x1c714 <jcopy_sample_rows>
   1740c: 1b 0c 1c 00  	addiw	s8, s8, 0x1
   17410: e3 10 84 ff  	bne	s0, s8, 0x173f0 <pre_process_data+0xe0>
   17414: 03 a5 49 04  	lw	a0, 0x44(s3)
   17418: 13 0b 1b 00  	addi	s6, s6, 0x1
   1741c: e3 4a ab fa  	blt	s6, a0, 0x173d0 <pre_process_data+0xc0>
   17420: 83 a5 49 13  	lw	a1, 0x134(s3)
   17424: 03 34 01 01  	ld	s0, 0x10(sp)
   17428: 03 3b 81 00  	ld	s6, 0x8(sp)
   1742c: 23 a2 bb 06  	sw	a1, 0x64(s7)
   17430: 6f 00 80 00  	jal	zero, 0x17438 <pre_process_data+0x128>
   17434: 63 1a b5 02  	bne	a0, a1, 0x17468 <pre_process_data+0x158>
   17438: 03 b5 89 1d  	ld	a0, 0x1d8(s3)
   1743c: 83 37 85 00  	ld	a5, 0x8(a0)
   17440: 03 a7 04 00  	lw	a4, 0x0(s1)
   17444: 13 85 09 00  	addi	a0, s3, 0x0
   17448: 93 05 09 00  	addi	a1, s2, 0x0
   1744c: 13 06 00 00  	addi	a2, zero, 0x0
   17450: 93 06 0b 00  	addi	a3, s6, 0x0
   17454: e7 80 07 00  	jalr	ra, 0x0(a5)
   17458: 23 a2 0b 06  	sw	zero, 0x64(s7)
   1745c: 03 a5 04 00  	lw	a0, 0x0(s1)
   17460: 13 05 15 00  	addi	a0, a0, 0x1
   17464: 23 a0 a4 00  	sw	a0, 0x0(s1)
   17468: 03 a5 0b 06  	lw	a0, 0x60(s7)
   1746c: 63 16 05 00  	bne	a0, zero, 0x17478 <pre_process_data+0x168>
   17470: 03 a5 04 00  	lw	a0, 0x0(s1)
   17474: 63 68 85 00  	bltu	a0, s0, 0x17484 <pre_process_data+0x174>
   17478: 03 26 0a 00  	lw	a2, 0x0(s4)
   1747c: e3 68 56 ed  	bltu	a2, s5, 0x1734c <pre_process_data+0x3c>
   17480: 6f 00 00 0b  	jal	zero, 0x17530 <pre_process_data+0x220>
   17484: 93 0d 0b 00  	addi	s11, s6, 0x0
   17488: 03 ab 49 04  	lw	s6, 0x44(s3)
   1748c: 63 5e 60 09  	bge	zero, s6, 0x17528 <pre_process_data+0x218>
   17490: 03 b9 09 05  	ld	s2, 0x50(s3)
   17494: 13 0d 00 00  	addi	s10, zero, 0x0
   17498: 13 15 3d 00  	slli	a0, s10, 0x3
   1749c: 33 85 ad 00  	add	a0, s11, a0
   174a0: 03 3a 05 00  	ld	s4, 0x0(a0)
   174a4: 03 24 c9 01  	lw	s0, 0x1c(s2)
   174a8: 83 ac 04 00  	lw	s9, 0x0(s1)
   174ac: 03 2c c9 00  	lw	s8, 0xc(s2)
   174b0: 13 05 0c 00  	addi	a0, s8, 0x0
   174b4: 93 85 0c 00  	addi	a1, s9, 0x0
   174b8: ef a0 c1 47  	jal	ra, 0x31934 <__muldi3>
   174bc: 9b 0a 05 00  	addiw	s5, a0, 0x0
   174c0: 13 05 0c 00  	addi	a0, s8, 0x0
   174c4: 83 35 01 01  	ld	a1, 0x10(sp)
   174c8: ef a0 c1 46  	jal	ra, 0x31934 <__muldi3>
   174cc: 1b 05 05 00  	addiw	a0, a0, 0x0
   174d0: 63 d6 aa 04  	bge	s5, a0, 0x1751c <pre_process_data+0x20c>
   174d4: 1b 1b 34 00  	slliw	s6, s0, 0x3
   174d8: 9b 8b fa ff  	addiw	s7, s5, -0x1
   174dc: 03 35 01 01  	ld	a0, 0x10(sp)
   174e0: bb 05 95 41  	subw	a1, a0, s9
   174e4: 13 05 0c 00  	addi	a0, s8, 0x0
   174e8: ef a0 c1 44  	jal	ra, 0x31934 <__muldi3>
   174ec: 13 0c 05 00  	addi	s8, a0, 0x0
   174f0: 13 07 10 00  	addi	a4, zero, 0x1
   174f4: 13 05 0a 00  	addi	a0, s4, 0x0
   174f8: 93 85 0b 00  	addi	a1, s7, 0x0
   174fc: 13 06 0a 00  	addi	a2, s4, 0x0
   17500: 93 86 0a 00  	addi	a3, s5, 0x0
   17504: 93 07 0b 00  	addi	a5, s6, 0x0
   17508: ef 50 c0 20  	jal	ra, 0x1c714 <jcopy_sample_rows>
   1750c: 1b 0c fc ff  	addiw	s8, s8, -0x1
   17510: 9b 8a 1a 00  	addiw	s5, s5, 0x1
   17514: e3 1e 0c fc  	bne	s8, zero, 0x174f0 <pre_process_data+0x1e0>
   17518: 03 ab 49 04  	lw	s6, 0x44(s3)
   1751c: 13 0d 1d 00  	addi	s10, s10, 0x1
   17520: 13 09 09 06  	addi	s2, s2, 0x60
   17524: e3 4a 6d f7  	blt	s10, s6, 0x17498 <pre_process_data+0x188>
   17528: 03 35 01 01  	ld	a0, 0x10(sp)
   1752c: 23 a0 a4 00  	sw	a0, 0x0(s1)
   17530: 13 01 01 02  	addi	sp, sp, 0x20
   17534: 6f a0 41 3d  	jal	zero, 0x31908 <__riscv_restore_12>

0000000000017538 <jinit_c_coef_controller>:
   17538: ef a2 21 3a  	jal	t0, 0x318da <__riscv_save_7>
   1753c: 13 04 05 00  	addi	s0, a0, 0x0
   17540: 03 35 85 00  	ld	a0, 0x8(a0)
   17544: 83 36 05 00  	ld	a3, 0x0(a0)
   17548: 13 89 05 00  	addi	s2, a1, 0x0
   1754c: 93 05 10 00  	addi	a1, zero, 0x1
   17550: 13 06 00 0c  	addi	a2, zero, 0xc0
   17554: 13 05 04 00  	addi	a0, s0, 0x0
   17558: e7 80 06 00  	jalr	ra, 0x0(a3)
   1755c: 93 04 05 00  	addi	s1, a0, 0x0
   17560: 23 30 a4 1c  	sd	a0, 0x1c0(s0)
   17564: 37 75 01 00  	lui	a0, 0x17
   17568: 13 05 45 62  	addi	a0, a0, 0x624
   1756c: 23 b0 a4 00  	sd	a0, 0x0(s1)
   17570: 63 0e 09 06  	beq	s2, zero, 0x175ec <jinit_c_coef_controller+0xb4>
   17574: 03 25 44 04  	lw	a0, 0x44(s0)
   17578: 63 58 a0 06  	bge	zero, a0, 0x175e8 <jinit_c_coef_controller+0xb0>
   1757c: 03 3a 04 05  	ld	s4, 0x50(s0)
   17580: 13 09 00 00  	addi	s2, zero, 0x0
   17584: 93 89 04 07  	addi	s3, s1, 0x70
   17588: 13 0a ca 01  	addi	s4, s4, 0x1c
   1758c: 03 35 84 00  	ld	a0, 0x8(s0)
   17590: 83 3a 85 02  	ld	s5, 0x28(a0)
   17594: 03 65 0a 00  	lwu	a0, 0x0(s4)
   17598: 83 25 ca fe  	lw	a1, -0x14(s4)
   1759c: ef 50 c0 15  	jal	ra, 0x1c6f8 <jround_up>
   175a0: 03 66 4a 00  	lwu	a2, 0x4(s4)
   175a4: 83 25 0a ff  	lw	a1, -0x10(s4)
   175a8: 93 04 05 00  	addi	s1, a0, 0x0
   175ac: 13 05 06 00  	addi	a0, a2, 0x0
   175b0: ef 50 80 14  	jal	ra, 0x1c6f8 <jround_up>
   175b4: 83 27 0a ff  	lw	a5, -0x10(s4)
   175b8: 9b 86 04 00  	addiw	a3, s1, 0x0
   175bc: 1b 07 05 00  	addiw	a4, a0, 0x0
   175c0: 93 05 10 00  	addi	a1, zero, 0x1
   175c4: 13 05 04 00  	addi	a0, s0, 0x0
   175c8: 13 06 00 00  	addi	a2, zero, 0x0
   175cc: e7 80 0a 00  	jalr	ra, 0x0(s5)
   175d0: 83 25 44 04  	lw	a1, 0x44(s0)
   175d4: 23 b0 a9 00  	sd	a0, 0x0(s3)
   175d8: 13 09 19 00  	addi	s2, s2, 0x1
   175dc: 93 89 89 00  	addi	s3, s3, 0x8
   175e0: 13 0a 0a 06  	addi	s4, s4, 0x60
   175e4: e3 44 b9 fa  	blt	s2, a1, 0x1758c <jinit_c_coef_controller+0x54>
   175e8: 6f a0 01 33  	jal	zero, 0x31918 <__riscv_restore_7>
   175ec: 03 35 84 00  	ld	a0, 0x8(s0)
   175f0: 83 36 85 00  	ld	a3, 0x8(a0)
   175f4: 93 05 10 00  	addi	a1, zero, 0x1
   175f8: 13 06 00 50  	addi	a2, zero, 0x500
   175fc: 13 05 04 00  	addi	a0, s0, 0x0
   17600: e7 80 06 00  	jalr	ra, 0x0(a3)
   17604: 93 85 04 02  	addi	a1, s1, 0x20
   17608: 13 86 04 07  	addi	a2, s1, 0x70
   1760c: 23 b0 a5 00  	sd	a0, 0x0(a1)
   17610: 93 85 85 00  	addi	a1, a1, 0x8
   17614: 13 05 05 08  	addi	a0, a0, 0x80
   17618: e3 9a c5 fe  	bne	a1, a2, 0x1760c <jinit_c_coef_controller+0xd4>
   1761c: 23 b8 04 06  	sd	zero, 0x70(s1)
   17620: 6f a0 81 2f  	jal	zero, 0x31918 <__riscv_restore_7>

0000000000017624 <start_pass_coef>:
   17624: 13 01 01 fe  	addi	sp, sp, -0x20
   17628: 23 3c 11 00  	sd	ra, 0x18(sp)
   1762c: 23 38 81 00  	sd	s0, 0x10(sp)
   17630: 23 34 91 00  	sd	s1, 0x8(sp)
   17634: 23 30 21 01  	sd	s2, 0x0(sp)
   17638: 13 04 05 00  	addi	s0, a0, 0x0
   1763c: 03 39 05 1c  	ld	s2, 0x1c0(a0)
   17640: 93 84 05 00  	addi	s1, a1, 0x0
   17644: 23 28 09 00  	sw	zero, 0x10(s2)
   17648: ef 00 00 0e  	jal	ra, 0x17728 <start_iMCU_row>
   1764c: 13 05 30 00  	addi	a0, zero, 0x3
   17650: 63 84 a4 06  	beq	s1, a0, 0x176b8 <start_pass_coef+0x94>
   17654: 13 05 20 00  	addi	a0, zero, 0x2
   17658: 63 8a a4 02  	beq	s1, a0, 0x1768c <start_pass_coef+0x68>
   1765c: 63 90 04 0a  	bne	s1, zero, 0x176fc <start_pass_coef+0xd8>
   17660: 03 35 09 07  	ld	a0, 0x70(s2)
   17664: 63 0e 05 00  	beq	a0, zero, 0x17680 <start_pass_coef+0x5c>
   17668: 03 35 04 00  	ld	a0, 0x0(s0)
   1766c: 83 35 05 00  	ld	a1, 0x0(a0)
   17670: 13 06 40 00  	addi	a2, zero, 0x4
   17674: 23 24 c5 02  	sw	a2, 0x28(a0)
   17678: 13 05 04 00  	addi	a0, s0, 0x0
   1767c: e7 80 05 00  	jalr	ra, 0x0(a1)
   17680: 37 75 01 00  	lui	a0, 0x17
   17684: 13 05 05 77  	addi	a0, a0, 0x770
   17688: 6f 00 80 05  	jal	zero, 0x176e0 <start_pass_coef+0xbc>
   1768c: 03 35 09 07  	ld	a0, 0x70(s2)
   17690: 63 1e 05 00  	bne	a0, zero, 0x176ac <start_pass_coef+0x88>
   17694: 03 35 04 00  	ld	a0, 0x0(s0)
   17698: 83 35 05 00  	ld	a1, 0x0(a0)
   1769c: 13 06 40 00  	addi	a2, zero, 0x4
   176a0: 23 24 c5 02  	sw	a2, 0x28(a0)
   176a4: 13 05 04 00  	addi	a0, s0, 0x0
   176a8: e7 80 05 00  	jalr	ra, 0x0(a1)
   176ac: 37 85 01 00  	lui	a0, 0x18
   176b0: 13 05 45 ca  	addi	a0, a0, -0x35c
   176b4: 6f 00 c0 02  	jal	zero, 0x176e0 <start_pass_coef+0xbc>
   176b8: 03 35 09 07  	ld	a0, 0x70(s2)
   176bc: 63 1e 05 00  	bne	a0, zero, 0x176d8 <start_pass_coef+0xb4>
   176c0: 03 35 04 00  	ld	a0, 0x0(s0)
   176c4: 83 35 05 00  	ld	a1, 0x0(a0)
   176c8: 13 06 40 00  	addi	a2, zero, 0x4
   176cc: 23 24 c5 02  	sw	a2, 0x28(a0)
   176d0: 13 05 04 00  	addi	a0, s0, 0x0
   176d4: e7 80 05 00  	jalr	ra, 0x0(a1)
   176d8: 37 85 01 00  	lui	a0, 0x18
   176dc: 13 05 c5 9c  	addi	a0, a0, -0x634
   176e0: 23 34 a9 00  	sd	a0, 0x8(s2)
   176e4: 83 30 81 01  	ld	ra, 0x18(sp)
   176e8: 03 34 01 01  	ld	s0, 0x10(sp)
   176ec: 83 34 81 00  	ld	s1, 0x8(sp)
   176f0: 03 39 01 00  	ld	s2, 0x0(sp)
   176f4: 13 01 01 02  	addi	sp, sp, 0x20
   176f8: 67 80 00 00  	jalr	zero, 0x0(ra)
   176fc: 03 35 04 00  	ld	a0, 0x0(s0)
   17700: 03 33 05 00  	ld	t1, 0x0(a0)
   17704: 93 05 40 00  	addi	a1, zero, 0x4
   17708: 23 24 b5 02  	sw	a1, 0x28(a0)
   1770c: 13 05 04 00  	addi	a0, s0, 0x0
   17710: 83 30 81 01  	ld	ra, 0x18(sp)
   17714: 03 34 01 01  	ld	s0, 0x10(sp)
   17718: 83 34 81 00  	ld	s1, 0x8(sp)
   1771c: 03 39 01 00  	ld	s2, 0x0(sp)
   17720: 13 01 01 02  	addi	sp, sp, 0x20
   17724: 67 00 03 00  	jalr	zero, 0x0(t1)

0000000000017728 <start_iMCU_row>:
   17728: 03 26 c5 13  	lw	a2, 0x13c(a0)
   1772c: 83 35 05 1c  	ld	a1, 0x1c0(a0)
   17730: 93 06 20 00  	addi	a3, zero, 0x2
   17734: 63 46 d6 00  	blt	a2, a3, 0x17740 <start_iMCU_row+0x18>
   17738: 13 05 10 00  	addi	a0, zero, 0x1
   1773c: 6f 00 40 02  	jal	zero, 0x17760 <start_iMCU_row+0x38>
   17740: 03 26 85 13  	lw	a2, 0x138(a0)
   17744: 83 a6 05 01  	lw	a3, 0x10(a1)
   17748: 03 35 05 14  	ld	a0, 0x140(a0)
   1774c: 1b 06 f6 ff  	addiw	a2, a2, -0x1
   17750: 63 f6 c6 00  	bgeu	a3, a2, 0x1775c <start_iMCU_row+0x34>
   17754: 03 25 c5 00  	lw	a0, 0xc(a0)
   17758: 6f 00 80 00  	jal	zero, 0x17760 <start_iMCU_row+0x38>
   1775c: 03 25 85 04  	lw	a0, 0x48(a0)
   17760: 23 ae a5 00  	sw	a0, 0x1c(a1)
   17764: 23 aa 05 00  	sw	zero, 0x14(a1)
   17768: 23 ac 05 00  	sw	zero, 0x18(a1)
   1776c: 67 80 00 00  	jalr	zero, 0x0(ra)

0000000000017770 <compress_data>:
   17770: ef a2 e1 14  	jal	t0, 0x318be <__riscv_save_12>
   17774: 13 01 01 fc  	addi	sp, sp, -0x40
   17778: 13 04 05 00  	addi	s0, a0, 0x0
   1777c: 03 3c 05 1c  	ld	s8, 0x1c0(a0)
   17780: 83 24 8c 01  	lw	s1, 0x18(s8)
   17784: 03 25 cc 01  	lw	a0, 0x1c(s8)
   17788: 23 38 b1 00  	sd	a1, 0x10(sp)
   1778c: 63 da a4 20  	bge	s1, a0, 0x179a0 <compress_data+0x230>
   17790: 83 25 04 16  	lw	a1, 0x160(s0)
   17794: 83 2d 84 13  	lw	s11, 0x138(s0)
   17798: 03 2b 4c 01  	lw	s6, 0x14(s8)
   1779c: 9b 85 f5 ff  	addiw	a1, a1, -0x1
   177a0: 23 30 b1 02  	sd	a1, 0x20(sp)
   177a4: 9b 8d fd ff  	addiw	s11, s11, -0x1
   177a8: 93 05 0c 02  	addi	a1, s8, 0x20
   177ac: 23 3c b1 02  	sd	a1, 0x38(sp)
   177b0: 83 35 01 02  	ld	a1, 0x20(sp)
   177b4: 63 ee 65 1d  	bltu	a1, s6, 0x17990 <compress_data+0x220>
   177b8: 1b 95 34 00  	slliw	a0, s1, 0x3
   177bc: 23 34 a1 00  	sd	a0, 0x8(sp)
   177c0: 83 29 c4 13  	lw	s3, 0x13c(s0)
   177c4: 63 52 30 1b  	bge	zero, s3, 0x17968 <compress_data+0x1f8>
   177c8: 93 0b 00 00  	addi	s7, zero, 0x0
   177cc: 13 0d 00 00  	addi	s10, zero, 0x0
   177d0: 23 3c 61 01  	sd	s6, 0x18(sp)
   177d4: 13 05 40 03  	addi	a0, zero, 0x34
   177d8: 83 35 01 02  	ld	a1, 0x20(sp)
   177dc: 63 64 bb 00  	bltu	s6, a1, 0x177e4 <compress_data+0x74>
   177e0: 13 05 40 04  	addi	a0, zero, 0x44
   177e4: 93 9c 3b 00  	slli	s9, s7, 0x3
   177e8: b3 05 94 01  	add	a1, s0, s9
   177ec: 03 ba 05 14  	ld	s4, 0x140(a1)
   177f0: 33 05 aa 00  	add	a0, s4, a0
   177f4: 83 2a 05 00  	lw	s5, 0x0(a0)
   177f8: 03 25 0a 04  	lw	a0, 0x40(s4)
   177fc: 93 05 0b 00  	addi	a1, s6, 0x0
   17800: ef a0 41 13  	jal	ra, 0x31934 <__muldi3>
   17804: 83 25 8a 03  	lw	a1, 0x38(s4)
   17808: 63 5c b0 14  	bge	zero, a1, 0x17960 <compress_data+0x1f0>
   1780c: 23 34 71 03  	sd	s7, 0x28(sp)
   17810: 93 09 00 00  	addi	s3, zero, 0x0
   17814: 1b 0b 05 00  	addiw	s6, a0, 0x0
   17818: 03 35 01 01  	ld	a0, 0x10(sp)
   1781c: b3 0c 95 01  	add	s9, a0, s9
   17820: 83 3b 81 00  	ld	s7, 0x8(sp)
   17824: 23 38 61 03  	sd	s6, 0x30(sp)
   17828: 03 25 0c 01  	lw	a0, 0x10(s8)
   1782c: 63 68 b5 01  	bltu	a0, s11, 0x1783c <compress_data+0xcc>
   17830: 03 25 8a 04  	lw	a0, 0x48(s4)
   17834: bb 85 99 00  	addw	a1, s3, s1
   17838: 63 dc a5 08  	bge	a1, a0, 0x178d0 <compress_data+0x160>
   1783c: 03 35 04 1e  	ld	a0, 0x1e0(s0)
   17840: 83 38 85 00  	ld	a7, 0x8(a0)
   17844: 03 b6 0c 00  	ld	a2, 0x0(s9)
   17848: 13 15 3d 00  	slli	a0, s10, 0x3
   1784c: 33 05 ac 00  	add	a0, s8, a0
   17850: 83 36 05 02  	ld	a3, 0x20(a0)
   17854: 13 05 04 00  	addi	a0, s0, 0x0
   17858: 93 05 0a 00  	addi	a1, s4, 0x0
   1785c: 13 87 0b 00  	addi	a4, s7, 0x0
   17860: 93 07 0b 00  	addi	a5, s6, 0x0
   17864: 13 88 0a 00  	addi	a6, s5, 0x0
   17868: e7 80 08 00  	jalr	ra, 0x0(a7)
   1786c: 83 25 4a 03  	lw	a1, 0x34(s4)
   17870: 63 d8 ba 0c  	bge	s5, a1, 0x17940 <compress_data+0x1d0>
   17874: 3b 05 5d 01  	addw	a0, s10, s5
   17878: 13 15 35 00  	slli	a0, a0, 0x3
   1787c: 33 05 ac 00  	add	a0, s8, a0
   17880: 03 35 05 02  	ld	a0, 0x20(a0)
   17884: bb 85 55 41  	subw	a1, a1, s5
   17888: 93 95 75 00  	slli	a1, a1, 0x7
   1788c: ef 40 90 70  	jal	ra, 0x1c794 <jzero_far>
   17890: 83 25 4a 03  	lw	a1, 0x34(s4)
   17894: 63 d6 ba 0a  	bge	s5, a1, 0x17940 <compress_data+0x1d0>
   17898: 33 85 aa 01  	add	a0, s5, s10
   1789c: 13 15 35 00  	slli	a0, a0, 0x3
   178a0: 83 36 81 03  	ld	a3, 0x38(sp)
   178a4: 33 85 a6 00  	add	a0, a3, a0
   178a8: 33 06 bd 00  	add	a2, s10, a1
   178ac: 13 16 36 00  	slli	a2, a2, 0x3
   178b0: 33 86 c6 00  	add	a2, a3, a2
   178b4: 83 36 85 ff  	ld	a3, -0x8(a0)
   178b8: 83 96 06 00  	lh	a3, 0x0(a3)
   178bc: 03 37 05 00  	ld	a4, 0x0(a0)
   178c0: 13 05 85 00  	addi	a0, a0, 0x8
   178c4: 23 10 d7 00  	sh	a3, 0x0(a4)
   178c8: e3 16 c5 fe  	bne	a0, a2, 0x178b4 <compress_data+0x144>
   178cc: 6f 00 40 07  	jal	zero, 0x17940 <compress_data+0x1d0>
   178d0: 13 8b 0c 00  	addi	s6, s9, 0x0
   178d4: 93 8c 0d 00  	addi	s9, s11, 0x0
   178d8: 93 8d 04 00  	addi	s11, s1, 0x0
   178dc: 93 14 3d 00  	slli	s1, s10, 0x3
   178e0: 13 09 0c 00  	addi	s2, s8, 0x0
   178e4: 33 0c 9c 00  	add	s8, s8, s1
   178e8: 83 25 4a 03  	lw	a1, 0x34(s4)
   178ec: 03 35 0c 02  	ld	a0, 0x20(s8)
   178f0: 93 95 75 00  	slli	a1, a1, 0x7
   178f4: ef 40 10 6a  	jal	ra, 0x1c794 <jzero_far>
   178f8: 83 25 4a 03  	lw	a1, 0x34(s4)
   178fc: 63 58 b0 02  	bge	zero, a1, 0x1792c <compress_data+0x1bc>
   17900: 03 35 8c 01  	ld	a0, 0x18(s8)
   17904: 03 55 05 00  	lhu	a0, 0x0(a0)
   17908: 03 37 81 03  	ld	a4, 0x38(sp)
   1790c: 33 06 97 00  	add	a2, a4, s1
   17910: 93 96 35 00  	slli	a3, a1, 0x3
   17914: b3 04 97 00  	add	s1, a4, s1
   17918: b3 86 d4 00  	add	a3, s1, a3
   1791c: 03 37 06 00  	ld	a4, 0x0(a2)
   17920: 13 06 86 00  	addi	a2, a2, 0x8
   17924: 23 10 a7 00  	sh	a0, 0x0(a4)
   17928: e3 1a d6 fe  	bne	a2, a3, 0x1791c <compress_data+0x1ac>
   1792c: 93 84 0d 00  	addi	s1, s11, 0x0
   17930: 93 8d 0c 00  	addi	s11, s9, 0x0
   17934: 93 0c 0b 00  	addi	s9, s6, 0x0
   17938: 03 3b 01 03  	ld	s6, 0x30(sp)
   1793c: 13 0c 09 00  	addi	s8, s2, 0x0
   17940: 03 25 8a 03  	lw	a0, 0x38(s4)
   17944: 3b 8d a5 01  	addw	s10, a1, s10
   17948: 9b 89 19 00  	addiw	s3, s3, 0x1
   1794c: 9b 8b 8b 00  	addiw	s7, s7, 0x8
   17950: e3 cc a9 ec  	blt	s3, a0, 0x17828 <compress_data+0xb8>
   17954: 83 29 c4 13  	lw	s3, 0x13c(s0)
   17958: 03 3b 81 01  	ld	s6, 0x18(sp)
   1795c: 83 3b 81 02  	ld	s7, 0x28(sp)
   17960: 93 8b 1b 00  	addi	s7, s7, 0x1
   17964: e3 c8 3b e7  	blt	s7, s3, 0x177d4 <compress_data+0x64>
   17968: 03 35 84 1e  	ld	a0, 0x1e8(s0)
   1796c: 03 36 85 00  	ld	a2, 0x8(a0)
   17970: 13 05 04 00  	addi	a0, s0, 0x0
   17974: 83 35 81 03  	ld	a1, 0x38(sp)
   17978: e7 00 06 00  	jalr	ra, 0x0(a2)
   1797c: 63 00 05 04  	beq	a0, zero, 0x179bc <compress_data+0x24c>
   17980: 1b 0b 1b 00  	addiw	s6, s6, 0x1
   17984: 03 35 01 02  	ld	a0, 0x20(sp)
   17988: e3 7c 65 e3  	bgeu	a0, s6, 0x177c0 <compress_data+0x50>
   1798c: 03 25 cc 01  	lw	a0, 0x1c(s8)
   17990: 13 0b 00 00  	addi	s6, zero, 0x0
   17994: 9b 84 14 00  	addiw	s1, s1, 0x1
   17998: 23 2a 0c 00  	sw	zero, 0x14(s8)
   1799c: e3 ca a4 e0  	blt	s1, a0, 0x177b0 <compress_data+0x40>
   179a0: 03 25 0c 01  	lw	a0, 0x10(s8)
   179a4: 13 05 15 00  	addi	a0, a0, 0x1
   179a8: 23 28 ac 00  	sw	a0, 0x10(s8)
   179ac: 13 05 04 00  	addi	a0, s0, 0x0
   179b0: ef f0 9f d7  	jal	ra, 0x17728 <start_iMCU_row>
   179b4: 13 05 10 00  	addi	a0, zero, 0x1
   179b8: 6f 00 c0 00  	jal	zero, 0x179c4 <compress_data+0x254>
   179bc: 23 2c 9c 00  	sw	s1, 0x18(s8)
   179c0: 23 2a 6c 01  	sw	s6, 0x14(s8)
   179c4: 13 01 01 04  	addi	sp, sp, 0x40
   179c8: 6f 90 11 74  	jal	zero, 0x31908 <__riscv_restore_12>

00000000000179cc <compress_first_pass>:
   179cc: 13 01 01 f5  	addi	sp, sp, -0xb0
   179d0: 23 34 11 0a  	sd	ra, 0xa8(sp)
   179d4: 23 30 81 0a  	sd	s0, 0xa0(sp)
   179d8: 23 3c 91 08  	sd	s1, 0x98(sp)
   179dc: 23 38 21 09  	sd	s2, 0x90(sp)
   179e0: 23 34 31 09  	sd	s3, 0x88(sp)
   179e4: 23 30 41 09  	sd	s4, 0x80(sp)
   179e8: 23 3c 51 07  	sd	s5, 0x78(sp)
   179ec: 23 38 61 07  	sd	s6, 0x70(sp)
   179f0: 23 34 71 07  	sd	s7, 0x68(sp)
   179f4: 23 30 81 07  	sd	s8, 0x60(sp)
   179f8: 23 3c 91 05  	sd	s9, 0x58(sp)
   179fc: 23 38 a1 05  	sd	s10, 0x50(sp)
   17a00: 23 34 b1 05  	sd	s11, 0x48(sp)
   17a04: 93 04 05 00  	addi	s1, a0, 0x0
   17a08: 03 25 45 04  	lw	a0, 0x44(a0)
   17a0c: 23 34 b1 00  	sd	a1, 0x8(sp)
   17a10: 63 5a a0 24  	bge	zero, a0, 0x17c64 <compress_first_pass+0x298>
   17a14: 03 b5 04 1c  	ld	a0, 0x1c0(s1)
   17a18: 23 38 a1 00  	sd	a0, 0x10(sp)
   17a1c: 03 a5 84 13  	lw	a0, 0x138(s1)
   17a20: 83 bb 04 05  	ld	s7, 0x50(s1)
   17a24: 93 05 00 00  	addi	a1, zero, 0x0
   17a28: 1b 05 f5 ff  	addiw	a0, a0, -0x1
   17a2c: 23 30 a1 02  	sd	a0, 0x20(sp)
   17a30: 23 38 91 02  	sd	s1, 0x30(sp)
   17a34: 03 b5 84 00  	ld	a0, 0x8(s1)
   17a38: 03 34 05 04  	ld	s0, 0x40(a0)
   17a3c: 23 3c b1 00  	sd	a1, 0x18(sp)
   17a40: 13 9b 35 00  	slli	s6, a1, 0x3
   17a44: 03 39 01 01  	ld	s2, 0x10(sp)
   17a48: 33 05 69 01  	add	a0, s2, s6
   17a4c: 83 39 05 07  	ld	s3, 0x70(a0)
   17a50: 83 25 09 01  	lw	a1, 0x10(s2)
   17a54: 03 aa cb 00  	lw	s4, 0xc(s7)
   17a58: 13 05 0a 00  	addi	a0, s4, 0x0
   17a5c: ef 90 91 6d  	jal	ra, 0x31934 <__muldi3>
   17a60: 1b 06 05 00  	addiw	a2, a0, 0x0
   17a64: 13 07 10 00  	addi	a4, zero, 0x1
   17a68: 13 85 04 00  	addi	a0, s1, 0x0
   17a6c: 93 85 09 00  	addi	a1, s3, 0x0
   17a70: 93 06 0a 00  	addi	a3, s4, 0x0
   17a74: e7 00 04 00  	jalr	ra, 0x0(s0)
   17a78: 03 2d 09 01  	lw	s10, 0x10(s2)
   17a7c: 23 3c a1 02  	sd	a0, 0x38(sp)
   17a80: 03 35 01 02  	ld	a0, 0x20(sp)
   17a84: 63 76 ad 00  	bgeu	s10, a0, 0x17a90 <compress_first_pass+0xc4>
   17a88: 03 ac cb 00  	lw	s8, 0xc(s7)
   17a8c: 6f 00 00 02  	jal	zero, 0x17aac <compress_first_pass+0xe0>
   17a90: 03 ac cb 00  	lw	s8, 0xc(s7)
   17a94: 03 e5 0b 02  	lwu	a0, 0x20(s7)
   17a98: 93 15 0c 02  	slli	a1, s8, 0x20
   17a9c: 93 d5 05 02  	srli	a1, a1, 0x20
   17aa0: ef 90 91 70  	jal	ra, 0x319a8 <__umoddi3>
   17aa4: 63 04 05 00  	beq	a0, zero, 0x17aac <compress_first_pass+0xe0>
   17aa8: 13 0c 05 00  	addi	s8, a0, 0x0
   17aac: 83 a9 8b 00  	lw	s3, 0x8(s7)
   17ab0: 23 30 71 05  	sd	s7, 0x40(sp)
   17ab4: 83 eb cb 01  	lwu	s7, 0x1c(s7)
   17ab8: 13 95 09 02  	slli	a0, s3, 0x20
   17abc: 13 59 05 02  	srli	s2, a0, 0x20
   17ac0: 13 85 0b 00  	addi	a0, s7, 0x0
   17ac4: 93 05 09 00  	addi	a1, s2, 0x0
   17ac8: ef 90 11 6e  	jal	ra, 0x319a8 <__umoddi3>
   17acc: 9b 05 05 00  	addiw	a1, a0, 0x0
   17ad0: 63 54 b0 00  	bge	zero, a1, 0x17ad8 <compress_first_pass+0x10c>
   17ad4: 33 85 a9 40  	sub	a0, s3, a0
   17ad8: 9b 8a 0b 00  	addiw	s5, s7, 0x0
   17adc: 9b 0d 0c 00  	addiw	s11, s8, 0x0
   17ae0: 9b 0c 05 00  	addiw	s9, a0, 0x0
   17ae4: 63 5e b0 09  	bge	zero, s11, 0x17b80 <compress_first_pass+0x1b4>
   17ae8: 23 34 21 03  	sd	s2, 0x28(sp)
   17aec: 93 04 00 00  	addi	s1, zero, 0x0
   17af0: 03 3d 81 00  	ld	s10, 0x8(sp)
   17af4: 33 0d 6d 01  	add	s10, s10, s6
   17af8: 13 95 0c 02  	slli	a0, s9, 0x20
   17afc: 13 5b 95 01  	srli	s6, a0, 0x19
   17b00: 1b 0a 0c 00  	addiw	s4, s8, 0x0
   17b04: 13 99 7b 00  	slli	s2, s7, 0x7
   17b08: 33 04 2b 01  	add	s0, s6, s2
   17b0c: 03 35 01 03  	ld	a0, 0x30(sp)
   17b10: 03 36 05 1e  	ld	a2, 0x1e0(a0)
   17b14: 93 95 34 00  	slli	a1, s1, 0x3
   17b18: 83 36 81 03  	ld	a3, 0x38(sp)
   17b1c: b3 85 b6 00  	add	a1, a3, a1
   17b20: 83 bb 05 00  	ld	s7, 0x0(a1)
   17b24: 83 38 86 00  	ld	a7, 0x8(a2)
   17b28: 03 36 0d 00  	ld	a2, 0x0(s10)
   17b2c: 1b 97 34 00  	slliw	a4, s1, 0x3
   17b30: 83 35 01 04  	ld	a1, 0x40(sp)
   17b34: 93 86 0b 00  	addi	a3, s7, 0x0
   17b38: 93 07 00 00  	addi	a5, zero, 0x0
   17b3c: 13 88 0a 00  	addi	a6, s5, 0x0
   17b40: e7 80 08 00  	jalr	ra, 0x0(a7)
   17b44: 63 54 90 03  	bge	zero, s9, 0x17b6c <compress_first_pass+0x1a0>
   17b48: 33 8c 2b 01  	add	s8, s7, s2
   17b4c: 13 05 0c 00  	addi	a0, s8, 0x0
   17b50: 93 05 0b 00  	addi	a1, s6, 0x0
   17b54: ef 40 10 44  	jal	ra, 0x1c794 <jzero_far>
   17b58: 03 55 0c f8  	lhu	a0, -0x80(s8)
   17b5c: b3 8b 8b 00  	add	s7, s7, s0
   17b60: 23 10 ac 00  	sh	a0, 0x0(s8)
   17b64: 13 0c 0c 08  	addi	s8, s8, 0x80
   17b68: e3 1c 7c ff  	bne	s8, s7, 0x17b60 <compress_first_pass+0x194>
   17b6c: 93 84 14 00  	addi	s1, s1, 0x1
   17b70: e3 9e 44 f9  	bne	s1, s4, 0x17b0c <compress_first_pass+0x140>
   17b74: 03 35 01 01  	ld	a0, 0x10(sp)
   17b78: 03 2d 05 01  	lw	s10, 0x10(a0)
   17b7c: 03 39 81 02  	ld	s2, 0x28(sp)
   17b80: 83 3b 01 04  	ld	s7, 0x40(sp)
   17b84: 03 35 01 02  	ld	a0, 0x20(sp)
   17b88: 63 12 ad 0c  	bne	s10, a0, 0x17c4c <compress_first_pass+0x280>
   17b8c: 3b 84 5c 01  	addw	s0, s9, s5
   17b90: 23 34 81 02  	sd	s0, 0x28(sp)
   17b94: 13 14 04 02  	slli	s0, s0, 0x20
   17b98: 13 55 04 02  	srli	a0, s0, 0x20
   17b9c: 93 05 09 00  	addi	a1, s2, 0x0
   17ba0: ef 90 d1 5d  	jal	ra, 0x3197c <__udivdi3>
   17ba4: 83 a5 cb 00  	lw	a1, 0xc(s7)
   17ba8: 63 d2 bd 0a  	bge	s11, a1, 0x17c4c <compress_first_pass+0x280>
   17bac: 93 5a 94 01  	srli	s5, s0, 0x19
   17bb0: 1b 8d f9 ff  	addiw	s10, s3, -0x1
   17bb4: 93 94 79 00  	slli	s1, s3, 0x7
   17bb8: 93 1c 79 00  	slli	s9, s2, 0x7
   17bbc: 13 1d 7d 00  	slli	s10, s10, 0x7
   17bc0: 1b 0c 05 00  	addiw	s8, a0, 0x0
   17bc4: 13 95 3d 00  	slli	a0, s11, 0x3
   17bc8: 83 35 81 03  	ld	a1, 0x38(sp)
   17bcc: 33 85 a5 00  	add	a0, a1, a0
   17bd0: 03 3a 05 00  	ld	s4, 0x0(a0)
   17bd4: 03 3b 85 ff  	ld	s6, -0x8(a0)
   17bd8: 13 05 0a 00  	addi	a0, s4, 0x0
   17bdc: 93 85 0a 00  	addi	a1, s5, 0x0
   17be0: ef 40 50 3b  	jal	ra, 0x1c794 <jzero_far>
   17be4: 03 35 81 02  	ld	a0, 0x28(sp)
   17be8: 63 6a 35 05  	bltu	a0, s3, 0x17c3c <compress_first_pass+0x270>
   17bec: 93 0b 00 00  	addi	s7, zero, 0x0
   17bf0: 13 04 00 00  	addi	s0, zero, 0x0
   17bf4: 13 09 0a 00  	addi	s2, s4, 0x0
   17bf8: 13 85 04 00  	addi	a0, s1, 0x0
   17bfc: 93 85 0b 00  	addi	a1, s7, 0x0
   17c00: ef 90 51 53  	jal	ra, 0x31934 <__muldi3>
   17c04: 63 52 30 03  	bge	zero, s3, 0x17c28 <compress_first_pass+0x25c>
   17c08: b3 05 ab 01  	add	a1, s6, s10
   17c0c: 83 d5 05 00  	lhu	a1, 0x0(a1)
   17c10: 33 85 ac 00  	add	a0, s9, a0
   17c14: 33 05 aa 00  	add	a0, s4, a0
   17c18: 13 06 09 00  	addi	a2, s2, 0x0
   17c1c: 23 10 b6 00  	sh	a1, 0x0(a2)
   17c20: 13 06 06 08  	addi	a2, a2, 0x80
   17c24: e3 1c a6 fe  	bne	a2, a0, 0x17c1c <compress_first_pass+0x250>
   17c28: 33 0b 9b 00  	add	s6, s6, s1
   17c2c: 1b 04 14 00  	addiw	s0, s0, 0x1
   17c30: 33 09 99 00  	add	s2, s2, s1
   17c34: 93 8b 1b 00  	addi	s7, s7, 0x1
   17c38: e3 60 84 fd  	bltu	s0, s8, 0x17bf8 <compress_first_pass+0x22c>
   17c3c: 83 3b 01 04  	ld	s7, 0x40(sp)
   17c40: 03 a5 cb 00  	lw	a0, 0xc(s7)
   17c44: 93 8d 1d 00  	addi	s11, s11, 0x1
   17c48: e3 ce ad f6  	blt	s11, a0, 0x17bc4 <compress_first_pass+0x1f8>
   17c4c: 83 34 01 03  	ld	s1, 0x30(sp)
   17c50: 03 a5 44 04  	lw	a0, 0x44(s1)
   17c54: 83 35 81 01  	ld	a1, 0x18(sp)
   17c58: 93 85 15 00  	addi	a1, a1, 0x1
   17c5c: 93 8b 0b 06  	addi	s7, s7, 0x60
   17c60: e3 ca a5 dc  	blt	a1, a0, 0x17a34 <compress_first_pass+0x68>
   17c64: 13 85 04 00  	addi	a0, s1, 0x0
   17c68: 83 30 81 0a  	ld	ra, 0xa8(sp)
   17c6c: 03 34 01 0a  	ld	s0, 0xa0(sp)
   17c70: 83 34 81 09  	ld	s1, 0x98(sp)
   17c74: 03 39 01 09  	ld	s2, 0x90(sp)
   17c78: 83 39 81 08  	ld	s3, 0x88(sp)
   17c7c: 03 3a 01 08  	ld	s4, 0x80(sp)
   17c80: 83 3a 81 07  	ld	s5, 0x78(sp)
   17c84: 03 3b 01 07  	ld	s6, 0x70(sp)
   17c88: 83 3b 81 06  	ld	s7, 0x68(sp)
   17c8c: 03 3c 01 06  	ld	s8, 0x60(sp)
   17c90: 83 3c 81 05  	ld	s9, 0x58(sp)
   17c94: 03 3d 01 05  	ld	s10, 0x50(sp)
   17c98: 83 3d 81 04  	ld	s11, 0x48(sp)
   17c9c: 13 01 01 0b  	addi	sp, sp, 0xb0
   17ca0: 6f 00 40 00  	jal	zero, 0x17ca4 <compress_output>

0000000000017ca4 <compress_output>:
   17ca4: ef 92 b1 41  	jal	t0, 0x318be <__riscv_save_12>
   17ca8: 13 01 01 fd  	addi	sp, sp, -0x30
   17cac: 13 04 05 00  	addi	s0, a0, 0x0
   17cb0: 03 25 c5 13  	lw	a0, 0x13c(a0)
   17cb4: 03 3c 04 1c  	ld	s8, 0x1c0(s0)
   17cb8: 63 56 a0 06  	bge	zero, a0, 0x17d24 <compress_output+0x80>
   17cbc: 93 09 00 00  	addi	s3, zero, 0x0
   17cc0: 93 0a 04 14  	addi	s5, s0, 0x140
   17cc4: 13 0b 01 01  	addi	s6, sp, 0x10
   17cc8: 03 b5 0a 00  	ld	a0, 0x0(s5)
   17ccc: 83 35 84 00  	ld	a1, 0x8(s0)
   17cd0: 03 26 45 00  	lw	a2, 0x4(a0)
   17cd4: 03 ba 05 04  	ld	s4, 0x40(a1)
   17cd8: 13 16 36 00  	slli	a2, a2, 0x3
   17cdc: 33 06 cc 00  	add	a2, s8, a2
   17ce0: 83 34 06 07  	ld	s1, 0x70(a2)
   17ce4: 83 25 0c 01  	lw	a1, 0x10(s8)
   17ce8: 03 29 c5 00  	lw	s2, 0xc(a0)
   17cec: 13 05 09 00  	addi	a0, s2, 0x0
   17cf0: ef 90 51 44  	jal	ra, 0x31934 <__muldi3>
   17cf4: 1b 06 05 00  	addiw	a2, a0, 0x0
   17cf8: 13 05 04 00  	addi	a0, s0, 0x0
   17cfc: 93 85 04 00  	addi	a1, s1, 0x0
   17d00: 93 06 09 00  	addi	a3, s2, 0x0
   17d04: 13 07 00 00  	addi	a4, zero, 0x0
   17d08: e7 00 0a 00  	jalr	ra, 0x0(s4)
   17d0c: 83 25 c4 13  	lw	a1, 0x13c(s0)
   17d10: 23 30 ab 00  	sd	a0, 0x0(s6)
   17d14: 93 89 19 00  	addi	s3, s3, 0x1
   17d18: 13 0b 8b 00  	addi	s6, s6, 0x8
   17d1c: 93 8a 8a 00  	addi	s5, s5, 0x8
   17d20: e3 c4 b9 fa  	blt	s3, a1, 0x17cc8 <compress_output+0x24>
   17d24: 03 26 8c 01  	lw	a2, 0x18(s8)
   17d28: 03 25 cc 01  	lw	a0, 0x1c(s8)
   17d2c: 63 56 a6 10  	bge	a2, a0, 0x17e38 <compress_output+0x194>
   17d30: 03 29 4c 01  	lw	s2, 0x14(s8)
   17d34: 83 25 04 16  	lw	a1, 0x160(s0)
   17d38: 93 04 0c 02  	addi	s1, s8, 0x20
   17d3c: 13 0b 8c 02  	addi	s6, s8, 0x28
   17d40: 93 0b 01 01  	addi	s7, sp, 0x10
   17d44: 23 30 81 01  	sd	s8, 0x0(sp)
   17d48: 63 70 b9 0e  	bgeu	s2, a1, 0x17e28 <compress_output+0x184>
   17d4c: 23 34 c1 00  	sd	a2, 0x8(sp)
   17d50: 13 1c 36 00  	slli	s8, a2, 0x3
   17d54: 83 2c c4 13  	lw	s9, 0x13c(s0)
   17d58: 63 50 90 0b  	bge	zero, s9, 0x17df8 <compress_output+0x154>
   17d5c: 13 0d 00 00  	addi	s10, zero, 0x0
   17d60: 93 0d 00 00  	addi	s11, zero, 0x0
   17d64: 13 1a 3d 00  	slli	s4, s10, 0x3
   17d68: 33 05 44 01  	add	a0, s0, s4
   17d6c: 03 35 05 14  	ld	a0, 0x140(a0)
   17d70: 83 2a 85 03  	lw	s5, 0x38(a0)
   17d74: 63 5e 50 07  	bge	zero, s5, 0x17df0 <compress_output+0x14c>
   17d78: 83 29 45 03  	lw	s3, 0x34(a0)
   17d7c: 13 85 09 00  	addi	a0, s3, 0x0
   17d80: 93 05 09 00  	addi	a1, s2, 0x0
   17d84: ef 90 11 3b  	jal	ra, 0x31934 <__muldi3>
   17d88: 33 8a 4b 01  	add	s4, s7, s4
   17d8c: 03 36 0a 00  	ld	a2, 0x0(s4)
   17d90: 93 05 00 00  	addi	a1, zero, 0x0
   17d94: 13 15 05 02  	slli	a0, a0, 0x20
   17d98: 93 56 05 02  	srli	a3, a0, 0x20
   17d9c: 33 05 86 01  	add	a0, a2, s8
   17da0: 13 86 f9 ff  	addi	a2, s3, -0x1
   17da4: 13 16 06 02  	slli	a2, a2, 0x20
   17da8: 13 56 d6 01  	srli	a2, a2, 0x1d
   17dac: 33 06 cb 00  	add	a2, s6, a2
   17db0: 93 96 76 00  	slli	a3, a3, 0x7
   17db4: 63 5a 30 03  	bge	zero, s3, 0x17de8 <compress_output+0x144>
   17db8: 13 97 35 00  	slli	a4, a1, 0x3
   17dbc: 33 07 e5 00  	add	a4, a0, a4
   17dc0: 03 38 07 00  	ld	a6, 0x0(a4)
   17dc4: 93 97 3d 00  	slli	a5, s11, 0x3
   17dc8: 33 07 f6 00  	add	a4, a2, a5
   17dcc: 33 08 d8 00  	add	a6, a6, a3
   17dd0: b3 87 f4 00  	add	a5, s1, a5
   17dd4: bb 8d b9 01  	addw	s11, s3, s11
   17dd8: 23 b0 07 01  	sd	a6, 0x0(a5)
   17ddc: 13 08 08 08  	addi	a6, a6, 0x80
   17de0: 93 87 87 00  	addi	a5, a5, 0x8
   17de4: e3 9a e7 fe  	bne	a5, a4, 0x17dd8 <compress_output+0x134>
   17de8: 93 85 15 00  	addi	a1, a1, 0x1
   17dec: e3 94 55 fd  	bne	a1, s5, 0x17db4 <compress_output+0x110>
   17df0: 13 0d 1d 00  	addi	s10, s10, 0x1
   17df4: e3 18 9d f7  	bne	s10, s9, 0x17d64 <compress_output+0xc0>
   17df8: 03 35 84 1e  	ld	a0, 0x1e8(s0)
   17dfc: 03 36 85 00  	ld	a2, 0x8(a0)
   17e00: 13 05 04 00  	addi	a0, s0, 0x0
   17e04: 93 85 04 00  	addi	a1, s1, 0x0
   17e08: e7 00 06 00  	jalr	ra, 0x0(a2)
   17e0c: 63 04 05 04  	beq	a0, zero, 0x17e54 <compress_output+0x1b0>
   17e10: 83 25 04 16  	lw	a1, 0x160(s0)
   17e14: 1b 09 19 00  	addiw	s2, s2, 0x1
   17e18: e3 6e b9 f2  	bltu	s2, a1, 0x17d54 <compress_output+0xb0>
   17e1c: 03 3c 01 00  	ld	s8, 0x0(sp)
   17e20: 03 25 cc 01  	lw	a0, 0x1c(s8)
   17e24: 03 36 81 00  	ld	a2, 0x8(sp)
   17e28: 13 09 00 00  	addi	s2, zero, 0x0
   17e2c: 13 06 16 00  	addi	a2, a2, 0x1
   17e30: 23 2a 0c 00  	sw	zero, 0x14(s8)
   17e34: e3 4a a6 f0  	blt	a2, a0, 0x17d48 <compress_output+0xa4>
   17e38: 03 25 0c 01  	lw	a0, 0x10(s8)
   17e3c: 13 05 15 00  	addi	a0, a0, 0x1
   17e40: 23 28 ac 00  	sw	a0, 0x10(s8)
   17e44: 13 05 04 00  	addi	a0, s0, 0x0
   17e48: ef f0 1f 8e  	jal	ra, 0x17728 <start_iMCU_row>
   17e4c: 13 05 10 00  	addi	a0, zero, 0x1
   17e50: 6f 00 40 01  	jal	zero, 0x17e64 <compress_output+0x1c0>
   17e54: 83 35 01 00  	ld	a1, 0x0(sp)
   17e58: 03 36 81 00  	ld	a2, 0x8(sp)
   17e5c: 23 ac c5 00  	sw	a2, 0x18(a1)
   17e60: 23 aa 25 01  	sw	s2, 0x14(a1)
   17e64: 13 01 01 03  	addi	sp, sp, 0x30
   17e68: 6f 90 11 2a  	jal	zero, 0x31908 <__riscv_restore_12>

0000000000017e6c <jinit_color_converter>:
   17e6c: 13 01 01 fe  	addi	sp, sp, -0x20
   17e70: 23 3c 11 00  	sd	ra, 0x18(sp)
   17e74: 23 38 81 00  	sd	s0, 0x10(sp)
   17e78: 23 34 91 00  	sd	s1, 0x8(sp)
   17e7c: 23 30 21 01  	sd	s2, 0x0(sp)
   17e80: 13 04 05 00  	addi	s0, a0, 0x0
   17e84: 03 35 85 00  	ld	a0, 0x8(a0)
   17e88: 83 36 05 00  	ld	a3, 0x0(a0)
   17e8c: 93 05 10 00  	addi	a1, zero, 0x1
   17e90: 13 06 80 01  	addi	a2, zero, 0x18
   17e94: 13 05 04 00  	addi	a0, s0, 0x0
   17e98: e7 80 06 00  	jalr	ra, 0x0(a3)
   17e9c: 93 04 05 00  	addi	s1, a0, 0x0
   17ea0: 03 25 44 03  	lw	a0, 0x34(s0)
   17ea4: b7 85 01 00  	lui	a1, 0x18
   17ea8: 93 85 05 12  	addi	a1, a1, 0x120
   17eac: 23 b0 b4 00  	sd	a1, 0x0(s1)
   17eb0: 13 06 e5 ff  	addi	a2, a0, -0x2
   17eb4: 93 05 20 00  	addi	a1, zero, 0x2
   17eb8: 23 38 94 1c  	sd	s1, 0x1d0(s0)
   17ebc: 63 6e b6 00  	bltu	a2, a1, 0x17ed8 <jinit_color_converter+0x6c>
   17ec0: 13 06 c5 ff  	addi	a2, a0, -0x4
   17ec4: 63 76 b6 0a  	bgeu	a2, a1, 0x17f70 <jinit_color_converter+0x104>
   17ec8: 03 25 04 03  	lw	a0, 0x30(s0)
   17ecc: 93 05 40 00  	addi	a1, zero, 0x4
   17ed0: 63 1a b5 00  	bne	a0, a1, 0x17ee4 <jinit_color_converter+0x78>
   17ed4: 6f 00 80 02  	jal	zero, 0x17efc <jinit_color_converter+0x90>
   17ed8: 03 25 04 03  	lw	a0, 0x30(s0)
   17edc: 93 05 30 00  	addi	a1, zero, 0x3
   17ee0: 63 0e b5 00  	beq	a0, a1, 0x17efc <jinit_color_converter+0x90>
   17ee4: 03 35 04 00  	ld	a0, 0x0(s0)
   17ee8: 83 35 05 00  	ld	a1, 0x0(a0)
   17eec: 13 06 70 00  	addi	a2, zero, 0x7
   17ef0: 23 24 c5 02  	sw	a2, 0x28(a0)
   17ef4: 13 05 04 00  	addi	a0, s0, 0x0
   17ef8: e7 80 05 00  	jalr	ra, 0x0(a1)
   17efc: 03 25 84 04  	lw	a0, 0x48(s0)
   17f00: 93 05 f5 ff  	addi	a1, a0, -0x1
   17f04: 13 06 40 00  	addi	a2, zero, 0x4
   17f08: 63 68 b6 1a  	bltu	a2, a1, 0x180b8 <jinit_color_converter+0x24c>
   17f0c: 93 95 25 00  	slli	a1, a1, 0x2
   17f10: 37 45 03 00  	lui	a0, 0x34
   17f14: 13 05 45 ca  	addi	a0, a0, -0x35c
   17f18: 33 85 a5 00  	add	a0, a1, a0
   17f1c: 03 25 05 00  	lw	a0, 0x0(a0)
   17f20: 67 00 05 00  	jalr	zero, 0x0(a0)
   17f24: 03 25 44 04  	lw	a0, 0x44(s0)
   17f28: 93 05 10 00  	addi	a1, zero, 0x1
   17f2c: 63 0e b5 00  	beq	a0, a1, 0x17f48 <jinit_color_converter+0xdc>
   17f30: 03 35 04 00  	ld	a0, 0x0(s0)
   17f34: 83 35 05 00  	ld	a1, 0x0(a0)
   17f38: 13 06 80 00  	addi	a2, zero, 0x8
   17f3c: 23 24 c5 02  	sw	a2, 0x28(a0)
   17f40: 13 05 04 00  	addi	a0, s0, 0x0
   17f44: e7 80 05 00  	jalr	ra, 0x0(a1)
   17f48: 03 25 44 03  	lw	a0, 0x34(s0)
   17f4c: 93 05 30 00  	addi	a1, zero, 0x3
   17f50: 63 0a b5 00  	beq	a0, a1, 0x17f64 <jinit_color_converter+0xf8>
   17f54: 93 05 20 00  	addi	a1, zero, 0x2
   17f58: 63 08 b5 1a  	beq	a0, a1, 0x18108 <jinit_color_converter+0x29c>
   17f5c: 93 05 10 00  	addi	a1, zero, 0x1
   17f60: 63 16 b5 12  	bne	a0, a1, 0x1808c <jinit_color_converter+0x220>
   17f64: 37 85 01 00  	lui	a0, 0x18
   17f68: 13 05 45 12  	addi	a0, a0, 0x124
   17f6c: 6f 00 00 18  	jal	zero, 0x180ec <jinit_color_converter+0x280>
   17f70: 93 05 10 00  	addi	a1, zero, 0x1
   17f74: 63 1e b5 0c  	bne	a0, a1, 0x18050 <jinit_color_converter+0x1e4>
   17f78: 03 25 04 03  	lw	a0, 0x30(s0)
   17f7c: e3 14 b5 f6  	bne	a0, a1, 0x17ee4 <jinit_color_converter+0x78>
   17f80: 6f f0 df f7  	jal	zero, 0x17efc <jinit_color_converter+0x90>
   17f84: 03 25 44 04  	lw	a0, 0x44(s0)
   17f88: 93 05 40 00  	addi	a1, zero, 0x4
   17f8c: 63 0e b5 00  	beq	a0, a1, 0x17fa8 <jinit_color_converter+0x13c>
   17f90: 03 35 04 00  	ld	a0, 0x0(s0)
   17f94: 83 35 05 00  	ld	a1, 0x0(a0)
   17f98: 13 06 80 00  	addi	a2, zero, 0x8
   17f9c: 23 24 c5 02  	sw	a2, 0x28(a0)
   17fa0: 13 05 04 00  	addi	a0, s0, 0x0
   17fa4: e7 80 05 00  	jalr	ra, 0x0(a1)
   17fa8: 03 25 44 03  	lw	a0, 0x34(s0)
   17fac: 93 05 50 00  	addi	a1, zero, 0x5
   17fb0: 63 0a b5 12  	beq	a0, a1, 0x180e4 <jinit_color_converter+0x278>
   17fb4: 93 05 40 00  	addi	a1, zero, 0x4
   17fb8: 63 1a b5 0c  	bne	a0, a1, 0x1808c <jinit_color_converter+0x220>
   17fbc: 37 85 01 00  	lui	a0, 0x18
   17fc0: 13 05 05 18  	addi	a0, a0, 0x180
   17fc4: 23 b0 a4 00  	sd	a0, 0x0(s1)
   17fc8: 37 85 01 00  	lui	a0, 0x18
   17fcc: 13 05 c5 4e  	addi	a0, a0, 0x4ec
   17fd0: 6f 00 c0 11  	jal	zero, 0x180ec <jinit_color_converter+0x280>
   17fd4: 03 25 44 04  	lw	a0, 0x44(s0)
   17fd8: 13 09 30 00  	addi	s2, zero, 0x3
   17fdc: 63 0e 25 01  	beq	a0, s2, 0x17ff8 <jinit_color_converter+0x18c>
   17fe0: 03 35 04 00  	ld	a0, 0x0(s0)
   17fe4: 83 35 05 00  	ld	a1, 0x0(a0)
   17fe8: 13 06 80 00  	addi	a2, zero, 0x8
   17fec: 23 24 c5 02  	sw	a2, 0x28(a0)
   17ff0: 13 05 04 00  	addi	a0, s0, 0x0
   17ff4: e7 80 05 00  	jalr	ra, 0x0(a1)
   17ff8: 03 25 44 03  	lw	a0, 0x34(s0)
   17ffc: 63 04 25 0f  	beq	a0, s2, 0x180e4 <jinit_color_converter+0x278>
   18000: 93 05 20 00  	addi	a1, zero, 0x2
   18004: 63 14 b5 08  	bne	a0, a1, 0x1808c <jinit_color_converter+0x220>
   18008: 37 85 01 00  	lui	a0, 0x18
   1800c: 13 05 05 18  	addi	a0, a0, 0x180
   18010: 23 b0 a4 00  	sd	a0, 0x0(s1)
   18014: 37 85 01 00  	lui	a0, 0x18
   18018: 13 05 85 39  	addi	a0, a0, 0x398
   1801c: 6f 00 00 0d  	jal	zero, 0x180ec <jinit_color_converter+0x280>
   18020: 03 25 44 04  	lw	a0, 0x44(s0)
   18024: 13 09 40 00  	addi	s2, zero, 0x4
   18028: 63 0e 25 01  	beq	a0, s2, 0x18044 <jinit_color_converter+0x1d8>
   1802c: 03 35 04 00  	ld	a0, 0x0(s0)
   18030: 83 35 05 00  	ld	a1, 0x0(a0)
   18034: 13 06 80 00  	addi	a2, zero, 0x8
   18038: 23 24 c5 02  	sw	a2, 0x28(a0)
   1803c: 13 05 04 00  	addi	a0, s0, 0x0
   18040: e7 80 05 00  	jalr	ra, 0x0(a1)
   18044: 03 25 44 03  	lw	a0, 0x34(s0)
   18048: 63 12 25 05  	bne	a0, s2, 0x1808c <jinit_color_converter+0x220>
   1804c: 6f 00 80 09  	jal	zero, 0x180e4 <jinit_color_converter+0x278>
   18050: 03 25 04 03  	lw	a0, 0x30(s0)
   18054: e3 44 a0 ea  	blt	zero, a0, 0x17efc <jinit_color_converter+0x90>
   18058: 6f f0 df e8  	jal	zero, 0x17ee4 <jinit_color_converter+0x78>
   1805c: 03 25 44 04  	lw	a0, 0x44(s0)
   18060: 93 05 30 00  	addi	a1, zero, 0x3
   18064: 63 0e b5 00  	beq	a0, a1, 0x18080 <jinit_color_converter+0x214>
   18068: 03 35 04 00  	ld	a0, 0x0(s0)
   1806c: 83 35 05 00  	ld	a1, 0x0(a0)
   18070: 13 06 80 00  	addi	a2, zero, 0x8
   18074: 23 24 c5 02  	sw	a2, 0x28(a0)
   18078: 13 05 04 00  	addi	a0, s0, 0x0
   1807c: e7 80 05 00  	jalr	ra, 0x0(a1)
   18080: 03 25 44 03  	lw	a0, 0x34(s0)
   18084: 93 05 20 00  	addi	a1, zero, 0x2
   18088: 63 0e b5 04  	beq	a0, a1, 0x180e4 <jinit_color_converter+0x278>
   1808c: 03 35 04 00  	ld	a0, 0x0(s0)
   18090: 03 33 05 00  	ld	t1, 0x0(a0)
   18094: 93 05 90 01  	addi	a1, zero, 0x19
   18098: 23 24 b5 02  	sw	a1, 0x28(a0)
   1809c: 13 05 04 00  	addi	a0, s0, 0x0
   180a0: 83 30 81 01  	ld	ra, 0x18(sp)
   180a4: 03 34 01 01  	ld	s0, 0x10(sp)
   180a8: 83 34 81 00  	ld	s1, 0x8(sp)
   180ac: 03 39 01 00  	ld	s2, 0x0(sp)
   180b0: 13 01 01 02  	addi	sp, sp, 0x20
   180b4: 67 00 03 00  	jalr	zero, 0x0(t1)
   180b8: 83 25 44 03  	lw	a1, 0x34(s0)
   180bc: 63 18 b5 00  	bne	a0, a1, 0x180cc <jinit_color_converter+0x260>
   180c0: 03 25 44 04  	lw	a0, 0x44(s0)
   180c4: 83 25 04 03  	lw	a1, 0x30(s0)
   180c8: 63 0e b5 00  	beq	a0, a1, 0x180e4 <jinit_color_converter+0x278>
   180cc: 03 35 04 00  	ld	a0, 0x0(s0)
   180d0: 83 35 05 00  	ld	a1, 0x0(a0)
   180d4: 13 06 90 01  	addi	a2, zero, 0x19
   180d8: 23 24 c5 02  	sw	a2, 0x28(a0)
   180dc: 13 05 04 00  	addi	a0, s0, 0x0
   180e0: e7 80 05 00  	jalr	ra, 0x0(a1)
   180e4: 37 85 01 00  	lui	a0, 0x18
   180e8: 13 05 c5 31  	addi	a0, a0, 0x31c
   180ec: 23 b4 a4 00  	sd	a0, 0x8(s1)
   180f0: 83 30 81 01  	ld	ra, 0x18(sp)
   180f4: 03 34 01 01  	ld	s0, 0x10(sp)
   180f8: 83 34 81 00  	ld	s1, 0x8(sp)
   180fc: 03 39 01 00  	ld	s2, 0x0(sp)
   18100: 13 01 01 02  	addi	sp, sp, 0x20
   18104: 67 80 00 00  	jalr	zero, 0x0(ra)
   18108: 37 85 01 00  	lui	a0, 0x18
   1810c: 13 05 05 18  	addi	a0, a0, 0x180
   18110: 23 b0 a4 00  	sd	a0, 0x0(s1)
   18114: 37 85 01 00  	lui	a0, 0x18
   18118: 13 05 45 27  	addi	a0, a0, 0x274
   1811c: 6f f0 1f fd  	jal	zero, 0x180ec <jinit_color_converter+0x280>

0000000000018120 <null_method>:
   18120: 67 80 00 00  	jalr	zero, 0x0(ra)

0000000000018124 <grayscale_convert>:
   18124: 63 5c e0 04  	bge	zero, a4, 0x1817c <grayscale_convert+0x58>
   18128: 83 67 85 02  	lwu	a5, 0x28(a0)
   1812c: 03 25 05 03  	lw	a0, 0x30(a0)
   18130: 13 08 20 00  	addi	a6, zero, 0x2
   18134: 93 08 07 00  	addi	a7, a4, 0x0
   18138: 63 8a 07 02  	beq	a5, zero, 0x1816c <grayscale_convert+0x48>
   1813c: 03 37 06 00  	ld	a4, 0x0(a2)
   18140: 93 92 06 02  	slli	t0, a3, 0x20
   18144: 93 d2 d2 01  	srli	t0, t0, 0x1d
   18148: 33 07 57 00  	add	a4, a4, t0
   1814c: 03 37 07 00  	ld	a4, 0x0(a4)
   18150: 83 b2 05 00  	ld	t0, 0x0(a1)
   18154: 33 03 f7 00  	add	t1, a4, a5
   18158: 83 c3 02 00  	lbu	t2, 0x0(t0)
   1815c: 23 00 77 00  	sb	t2, 0x0(a4)
   18160: 13 07 17 00  	addi	a4, a4, 0x1
   18164: b3 82 a2 00  	add	t0, t0, a0
   18168: e3 18 67 fe  	bne	a4, t1, 0x18158 <grayscale_convert+0x34>
   1816c: 1b 87 f8 ff  	addiw	a4, a7, -0x1
   18170: 93 85 85 00  	addi	a1, a1, 0x8
   18174: 93 86 16 00  	addi	a3, a3, 0x1
   18178: e3 de 08 fb  	bge	a7, a6, 0x18134 <grayscale_convert+0x10>
   1817c: 67 80 00 00  	jalr	zero, 0x0(ra)

0000000000018180 <rgb_ycc_start>:
   18180: ef 92 e1 73  	jal	t0, 0x318be <__riscv_save_12>
   18184: 83 35 85 00  	ld	a1, 0x8(a0)
   18188: 83 34 05 1d  	ld	s1, 0x1d0(a0)
   1818c: 83 b6 05 00  	ld	a3, 0x0(a1)
   18190: 93 05 10 00  	addi	a1, zero, 0x1
   18194: 37 46 00 00  	lui	a2, 0x4
   18198: 37 44 00 00  	lui	s0, 0x4
   1819c: e7 80 06 00  	jalr	ra, 0x0(a3)
   181a0: 93 05 00 00  	addi	a1, zero, 0x0
   181a4: 13 06 00 00  	addi	a2, zero, 0x0
   181a8: 93 06 00 00  	addi	a3, zero, 0x0
   181ac: 13 07 00 00  	addi	a4, zero, 0x0
   181b0: 93 07 00 00  	addi	a5, zero, 0x0
   181b4: 13 08 00 00  	addi	a6, zero, 0x0
   181b8: 23 b8 a4 00  	sd	a0, 0x10(s1)
   181bc: 93 08 f5 7f  	addi	a7, a0, 0x7ff
   181c0: 93 88 18 00  	addi	a7, a7, 0x1
   181c4: b7 82 00 00  	lui	t0, 0x8
   181c8: 37 83 80 00  	lui	t1, 0x808
   181cc: 1b 03 f3 ff  	addiw	t1, t1, -0x1
   181d0: b7 33 00 00  	lui	t2, 0x3
   181d4: 37 2e 00 00  	lui	t3, 0x2
   181d8: b7 1e 00 00  	lui	t4, 0x1
   181dc: 37 ff ff ff  	lui	t5, 0xfffff
   181e0: 1b 0f ff b2  	addiw	t5, t5, -0x4d1
   181e4: b7 9f ff ff  	lui	t6, 0xffff9
   181e8: 9b 8f 1f 4d  	addiw	t6, t6, 0x4d1
   181ec: b7 b4 ff ff  	lui	s1, 0xffffb
   181f0: 9b 84 34 b3  	addiw	s1, s1, -0x4cd
   181f4: 37 d9 ff ff  	lui	s2, 0xffffd
   181f8: 1b 09 d9 4c  	addiw	s2, s2, 0x4cd
   181fc: 9b 09 fe d2  	addiw	s3, t3, -0x2d1
   18200: 37 9a 00 00  	lui	s4, 0x9
   18204: 1b 0a 6a 64  	addiw	s4, s4, 0x646
   18208: b7 5a 00 00  	lui	s5, 0x5
   1820c: 9b 8a ba c8  	addiw	s5, s5, -0x375
   18210: 37 8b 00 00  	lui	s6, 0x8
   18214: b3 0b 85 00  	add	s7, a0, s0
   18218: 33 0c 75 00  	add	s8, a0, t2
   1821c: b3 0c c5 01  	add	s9, a0, t3
   18220: 33 0d d5 01  	add	s10, a0, t4
   18224: 93 0d f5 7f  	addi	s11, a0, 0x7ff
   18228: 23 30 b5 00  	sd	a1, 0x0(a0)
   1822c: a3 b0 cd 00  	sd	a2, 0x1(s11)
   18230: 23 30 6d 01  	sd	s6, 0x0(s10)
   18234: 23 b0 dc 80  	sd	a3, -0x800(s9)
   18238: 23 b0 ec 00  	sd	a4, 0x0(s9)
   1823c: 23 30 6c 80  	sd	t1, -0x800(s8)
   18240: 23 30 fc 00  	sd	a5, 0x0(s8)
   18244: 23 b0 0b 81  	sd	a6, -0x800(s7)
   18248: 33 08 e8 01  	add	a6, a6, t5
   1824c: b3 87 f7 01  	add	a5, a5, t6
   18250: 33 07 97 00  	add	a4, a4, s1
   18254: b3 86 26 01  	add	a3, a3, s2
   18258: 33 0b 3b 01  	add	s6, s6, s3
   1825c: 33 06 46 01  	add	a2, a2, s4
   18260: 13 05 85 00  	addi	a0, a0, 0x8
   18264: b3 85 55 01  	add	a1, a1, s5
   18268: 33 03 53 00  	add	t1, t1, t0
   1826c: e3 14 15 fb  	bne	a0, a7, 0x18214 <rgb_ycc_start+0x94>
   18270: 6f 90 81 69  	jal	zero, 0x31908 <__riscv_restore_12>

0000000000018274 <rgb_gray_convert>:
   18274: 63 52 e0 0a  	bge	zero, a4, 0x18318 <rgb_gray_convert+0xa4>
   18278: 83 37 05 1d  	ld	a5, 0x1d0(a0)
   1827c: 03 65 85 02  	lwu	a0, 0x28(a0)
   18280: 83 b7 07 01  	ld	a5, 0x10(a5)
   18284: 13 18 15 00  	slli	a6, a0, 0x1
   18288: 33 08 a8 00  	add	a6, a6, a0
   1828c: 93 08 20 00  	addi	a7, zero, 0x2
   18290: 93 02 07 00  	addi	t0, a4, 0x0
   18294: 63 0a 05 06  	beq	a0, zero, 0x18308 <rgb_gray_convert+0x94>
   18298: 03 37 06 00  	ld	a4, 0x0(a2)
   1829c: 13 93 06 02  	slli	t1, a3, 0x20
   182a0: 13 53 d3 01  	srli	t1, t1, 0x1d
   182a4: 33 03 67 00  	add	t1, a4, t1
   182a8: 03 b7 05 00  	ld	a4, 0x0(a1)
   182ac: 03 33 03 00  	ld	t1, 0x0(t1)
   182b0: b3 03 07 01  	add	t2, a4, a6
   182b4: 03 4e 07 00  	lbu	t3, 0x0(a4)
   182b8: 83 4e 17 00  	lbu	t4, 0x1(a4)
   182bc: 03 4f 27 00  	lbu	t5, 0x2(a4)
   182c0: 13 1e 3e 00  	slli	t3, t3, 0x3
   182c4: 33 8e c7 01  	add	t3, a5, t3
   182c8: 03 3e 0e 00  	ld	t3, 0x0(t3)
   182cc: 93 8e 0e 10  	addi	t4, t4, 0x100
   182d0: 93 9e 3e 00  	slli	t4, t4, 0x3
   182d4: b3 8e d7 01  	add	t4, a5, t4
   182d8: 83 be 0e 00  	ld	t4, 0x0(t4)
   182dc: 13 0f 0f 20  	addi	t5, t5, 0x200
   182e0: 13 1f 3f 00  	slli	t5, t5, 0x3
   182e4: 33 8f e7 01  	add	t5, a5, t5
   182e8: 03 3f 0f 00  	ld	t5, 0x0(t5)
   182ec: 33 8e ce 01  	add	t3, t4, t3
   182f0: 33 0e ee 01  	add	t3, t3, t5
   182f4: 13 5e 0e 01  	srli	t3, t3, 0x10
   182f8: 23 00 c3 01  	sb	t3, 0x0(t1)
   182fc: 13 07 37 00  	addi	a4, a4, 0x3
   18300: 13 03 13 00  	addi	t1, t1, 0x1
   18304: e3 18 77 fa  	bne	a4, t2, 0x182b4 <rgb_gray_convert+0x40>
   18308: 1b 87 f2 ff  	addiw	a4, t0, -0x1
   1830c: 93 85 85 00  	addi	a1, a1, 0x8
   18310: 93 86 16 00  	addi	a3, a3, 0x1
   18314: e3 de 12 f7  	bge	t0, a7, 0x18290 <rgb_gray_convert+0x1c>
   18318: 67 80 00 00  	jalr	zero, 0x0(ra)

000000000001831c <null_convert>:
   1831c: 63 5c e0 06  	bge	zero, a4, 0x18394 <null_convert+0x78>
   18320: 83 67 85 02  	lwu	a5, 0x28(a0)
   18324: 03 25 45 04  	lw	a0, 0x44(a0)
   18328: 13 08 10 00  	addi	a6, zero, 0x1
   1832c: 93 08 07 00  	addi	a7, a4, 0x0
   18330: 63 5a a0 04  	bge	zero, a0, 0x18384 <null_convert+0x68>
   18334: 13 07 00 00  	addi	a4, zero, 0x0
   18338: 93 92 06 02  	slli	t0, a3, 0x20
   1833c: 93 d2 02 02  	srli	t0, t0, 0x20
   18340: 93 92 32 00  	slli	t0, t0, 0x3
   18344: 63 8c 07 02  	beq	a5, zero, 0x1837c <null_convert+0x60>
   18348: 13 13 37 00  	slli	t1, a4, 0x3
   1834c: 33 03 66 00  	add	t1, a2, t1
   18350: 03 33 03 00  	ld	t1, 0x0(t1)
   18354: 33 03 53 00  	add	t1, t1, t0
   18358: 83 b3 05 00  	ld	t2, 0x0(a1)
   1835c: 03 33 03 00  	ld	t1, 0x0(t1)
   18360: b3 83 e3 00  	add	t2, t2, a4
   18364: 33 0e f3 00  	add	t3, t1, a5
   18368: 83 ce 03 00  	lbu	t4, 0x0(t2)
   1836c: 23 00 d3 01  	sb	t4, 0x0(t1)
   18370: 13 03 13 00  	addi	t1, t1, 0x1
   18374: b3 83 a3 00  	add	t2, t2, a0
   18378: e3 18 c3 ff  	bne	t1, t3, 0x18368 <null_convert+0x4c>
   1837c: 13 07 17 00  	addi	a4, a4, 0x1
   18380: e3 12 a7 fc  	bne	a4, a0, 0x18344 <null_convert+0x28>
   18384: 1b 87 f8 ff  	addiw	a4, a7, -0x1
   18388: 93 85 85 00  	addi	a1, a1, 0x8
   1838c: 93 86 16 00  	addi	a3, a3, 0x1
   18390: e3 4e 18 f9  	blt	a6, a7, 0x1832c <null_convert+0x10>
   18394: 67 80 00 00  	jalr	zero, 0x0(ra)

0000000000018398 <rgb_ycc_convert>:
   18398: 63 58 e0 14  	bge	zero, a4, 0x184e8 <rgb_ycc_convert+0x150>
   1839c: ef 92 81 54  	jal	t0, 0x318e4 <__riscv_save_5>
   183a0: 83 37 05 1d  	ld	a5, 0x1d0(a0)
   183a4: 03 65 85 02  	lwu	a0, 0x28(a0)
   183a8: 83 b7 07 01  	ld	a5, 0x10(a5)
   183ac: 13 18 15 00  	slli	a6, a0, 0x1
   183b0: 33 08 a8 00  	add	a6, a6, a0
   183b4: 93 08 20 00  	addi	a7, zero, 0x2
   183b8: 93 02 07 00  	addi	t0, a4, 0x0
   183bc: 63 0a 05 10  	beq	a0, zero, 0x184d0 <rgb_ycc_convert+0x138>
   183c0: 03 37 06 00  	ld	a4, 0x0(a2)
   183c4: 13 93 06 02  	slli	t1, a3, 0x20
   183c8: 93 53 d3 01  	srli	t2, t1, 0x1d
   183cc: 03 33 86 00  	ld	t1, 0x8(a2)
   183d0: 33 07 77 00  	add	a4, a4, t2
   183d4: 03 3e 06 01  	ld	t3, 0x10(a2)
   183d8: 03 37 07 00  	ld	a4, 0x0(a4)
   183dc: 33 03 73 00  	add	t1, t1, t2
   183e0: 03 33 03 00  	ld	t1, 0x0(t1)
   183e4: 33 0e 7e 00  	add	t3, t3, t2
   183e8: 83 b3 05 00  	ld	t2, 0x0(a1)
   183ec: 03 3e 0e 00  	ld	t3, 0x0(t3)
   183f0: b3 8e 03 01  	add	t4, t2, a6
   183f4: 03 cf 03 00  	lbu	t5, 0x0(t2)
   183f8: 83 cf 13 00  	lbu	t6, 0x1(t2)
   183fc: 03 c4 23 00  	lbu	s0, 0x2(t2)
   18400: 93 14 3f 00  	slli	s1, t5, 0x3
   18404: b3 84 97 00  	add	s1, a5, s1
   18408: 83 b4 04 00  	ld	s1, 0x0(s1)
   1840c: 13 89 0f 10  	addi	s2, t6, 0x100
   18410: 13 19 39 00  	slli	s2, s2, 0x3
   18414: 33 89 27 01  	add	s2, a5, s2
   18418: 03 39 09 00  	ld	s2, 0x0(s2)
   1841c: 93 09 04 20  	addi	s3, s0, 0x200
   18420: 93 99 39 00  	slli	s3, s3, 0x3
   18424: b3 89 37 01  	add	s3, a5, s3
   18428: 83 b9 09 00  	ld	s3, 0x0(s3)
   1842c: b3 04 99 00  	add	s1, s2, s1
   18430: b3 84 34 01  	add	s1, s1, s3
   18434: 93 d4 04 01  	srli	s1, s1, 0x10
   18438: 23 00 97 00  	sb	s1, 0x0(a4)
   1843c: 93 04 0f 30  	addi	s1, t5, 0x300
   18440: 93 94 34 00  	slli	s1, s1, 0x3
   18444: b3 84 97 00  	add	s1, a5, s1
   18448: 83 b4 04 00  	ld	s1, 0x0(s1)
   1844c: 13 89 0f 40  	addi	s2, t6, 0x400
   18450: 13 19 39 00  	slli	s2, s2, 0x3
   18454: 33 89 27 01  	add	s2, a5, s2
   18458: 03 39 09 00  	ld	s2, 0x0(s2)
   1845c: 93 09 04 50  	addi	s3, s0, 0x500
   18460: 93 99 39 00  	slli	s3, s3, 0x3
   18464: b3 89 37 01  	add	s3, a5, s3
   18468: 83 b9 09 00  	ld	s3, 0x0(s3)
   1846c: b3 04 99 00  	add	s1, s2, s1
   18470: b3 84 34 01  	add	s1, s1, s3
   18474: 93 d4 04 01  	srli	s1, s1, 0x10
   18478: 23 00 93 00  	sb	s1, 0x0(t1)
   1847c: 13 0f 0f 50  	addi	t5, t5, 0x500
   18480: 13 1f 3f 00  	slli	t5, t5, 0x3
   18484: 33 8f e7 01  	add	t5, a5, t5
   18488: 03 3f 0f 00  	ld	t5, 0x0(t5)
   1848c: 93 8f 0f 60  	addi	t6, t6, 0x600
   18490: 93 9f 3f 00  	slli	t6, t6, 0x3
   18494: b3 8f f7 01  	add	t6, a5, t6
   18498: 83 bf 0f 00  	ld	t6, 0x0(t6)
   1849c: 13 04 04 70  	addi	s0, s0, 0x700
   184a0: 13 14 34 00  	slli	s0, s0, 0x3
   184a4: 33 84 87 00  	add	s0, a5, s0
   184a8: 03 34 04 00  	ld	s0, 0x0(s0)
   184ac: 33 8f ef 01  	add	t5, t6, t5
   184b0: 33 0f 8f 00  	add	t5, t5, s0
   184b4: 13 5f 0f 01  	srli	t5, t5, 0x10
   184b8: 23 00 ee 01  	sb	t5, 0x0(t3)
   184bc: 13 07 17 00  	addi	a4, a4, 0x1
   184c0: 13 03 13 00  	addi	t1, t1, 0x1
   184c4: 93 83 33 00  	addi	t2, t2, 0x3
   184c8: 13 0e 1e 00  	addi	t3, t3, 0x1
   184cc: e3 94 d3 f3  	bne	t2, t4, 0x183f4 <rgb_ycc_convert+0x5c>
   184d0: 1b 87 f2 ff  	addiw	a4, t0, -0x1
   184d4: 93 85 85 00  	addi	a1, a1, 0x8
   184d8: 93 86 16 00  	addi	a3, a3, 0x1
   184dc: e3 de 12 ed  	bge	t0, a7, 0x183b8 <rgb_ycc_convert+0x20>
   184e0: 6f 90 e1 43  	jal	zero, 0x3191e <__riscv_restore_5>
   184e4: 6f 00 40 00  	jal	zero, 0x184e8 <rgb_ycc_convert+0x150>
   184e8: 67 80 00 00  	jalr	zero, 0x0(ra)

00000000000184ec <cmyk_ycck_convert>:
   184ec: 63 58 e0 16  	bge	zero, a4, 0x1865c <cmyk_ycck_convert+0x170>
   184f0: ef 92 41 3f  	jal	t0, 0x318e4 <__riscv_save_5>
   184f4: 83 37 05 1d  	ld	a5, 0x1d0(a0)
   184f8: 03 65 85 02  	lwu	a0, 0x28(a0)
   184fc: 83 b7 07 01  	ld	a5, 0x10(a5)
   18500: 13 18 25 00  	slli	a6, a0, 0x2
   18504: 93 08 20 00  	addi	a7, zero, 0x2
   18508: 93 02 07 00  	addi	t0, a4, 0x0
   1850c: 63 0c 05 12  	beq	a0, zero, 0x18644 <cmyk_ycck_convert+0x158>
   18510: 03 37 06 00  	ld	a4, 0x0(a2)
   18514: 13 93 06 02  	slli	t1, a3, 0x20
   18518: 13 5e d3 01  	srli	t3, t1, 0x1d
   1851c: 03 33 86 00  	ld	t1, 0x8(a2)
   18520: 33 07 c7 01  	add	a4, a4, t3
   18524: 03 37 07 00  	ld	a4, 0x0(a4)
   18528: 83 33 06 01  	ld	t2, 0x10(a2)
   1852c: 33 03 c3 01  	add	t1, t1, t3
   18530: 83 3e 86 01  	ld	t4, 0x18(a2)
   18534: 03 33 03 00  	ld	t1, 0x0(t1)
   18538: b3 83 c3 01  	add	t2, t2, t3
   1853c: 83 b3 03 00  	ld	t2, 0x0(t2)
   18540: b3 8e ce 01  	add	t4, t4, t3
   18544: 03 be 05 00  	ld	t3, 0x0(a1)
   18548: 83 be 0e 00  	ld	t4, 0x0(t4)
   1854c: 33 0f 0e 01  	add	t5, t3, a6
   18550: 83 4f 1e 00  	lbu	t6, 0x1(t3)
   18554: 03 44 2e 00  	lbu	s0, 0x2(t3)
   18558: 83 44 3e 00  	lbu	s1, 0x3(t3)
   1855c: 03 49 0e 00  	lbu	s2, 0x0(t3)
   18560: 93 cf ff 0f  	xori	t6, t6, 0xff
   18564: 13 44 f4 0f  	xori	s0, s0, 0xff
   18568: 23 80 9e 00  	sb	s1, 0x0(t4)
   1856c: 93 44 f9 0f  	xori	s1, s2, 0xff
   18570: 13 99 34 00  	slli	s2, s1, 0x3
   18574: 33 89 27 01  	add	s2, a5, s2
   18578: 03 39 09 00  	ld	s2, 0x0(s2)
   1857c: 93 89 0f 10  	addi	s3, t6, 0x100
   18580: 93 99 39 00  	slli	s3, s3, 0x3
   18584: b3 89 37 01  	add	s3, a5, s3
   18588: 83 b9 09 00  	ld	s3, 0x0(s3)
   1858c: 13 0a 04 20  	addi	s4, s0, 0x200
   18590: 13 1a 3a 00  	slli	s4, s4, 0x3
   18594: 33 8a 47 01  	add	s4, a5, s4
   18598: 03 3a 0a 00  	ld	s4, 0x0(s4)
   1859c: 33 89 29 01  	add	s2, s3, s2
   185a0: 33 09 49 01  	add	s2, s2, s4
   185a4: 13 59 09 01  	srli	s2, s2, 0x10
   185a8: 23 00 27 01  	sb	s2, 0x0(a4)
   185ac: 13 89 04 30  	addi	s2, s1, 0x300
   185b0: 13 19 39 00  	slli	s2, s2, 0x3
   185b4: 33 89 27 01  	add	s2, a5, s2
   185b8: 03 39 09 00  	ld	s2, 0x0(s2)
   185bc: 93 89 0f 40  	addi	s3, t6, 0x400
   185c0: 93 99 39 00  	slli	s3, s3, 0x3
   185c4: b3 89 37 01  	add	s3, a5, s3
   185c8: 83 b9 09 00  	ld	s3, 0x0(s3)
   185cc: 13 0a 04 50  	addi	s4, s0, 0x500
   185d0: 13 1a 3a 00  	slli	s4, s4, 0x3
   185d4: 33 8a 47 01  	add	s4, a5, s4
   185d8: 03 3a 0a 00  	ld	s4, 0x0(s4)
   185dc: 33 89 29 01  	add	s2, s3, s2
   185e0: 33 09 49 01  	add	s2, s2, s4
   185e4: 13 59 09 01  	srli	s2, s2, 0x10
   185e8: 23 00 23 01  	sb	s2, 0x0(t1)
   185ec: 93 84 04 50  	addi	s1, s1, 0x500
   185f0: 93 94 34 00  	slli	s1, s1, 0x3
   185f4: b3 84 97 00  	add	s1, a5, s1
   185f8: 83 b4 04 00  	ld	s1, 0x0(s1)
   185fc: 93 8f 0f 60  	addi	t6, t6, 0x600
   18600: 93 9f 3f 00  	slli	t6, t6, 0x3
   18604: b3 8f f7 01  	add	t6, a5, t6
   18608: 83 bf 0f 00  	ld	t6, 0x0(t6)
   1860c: 13 04 04 70  	addi	s0, s0, 0x700
   18610: 13 14 34 00  	slli	s0, s0, 0x3
   18614: 33 84 87 00  	add	s0, a5, s0
   18618: 03 34 04 00  	ld	s0, 0x0(s0)
   1861c: b3 8f 9f 00  	add	t6, t6, s1
   18620: b3 8f 8f 00  	add	t6, t6, s0
   18624: 93 df 0f 01  	srli	t6, t6, 0x10
   18628: 23 80 f3 01  	sb	t6, 0x0(t2)
   1862c: 93 8e 1e 00  	addi	t4, t4, 0x1
   18630: 13 07 17 00  	addi	a4, a4, 0x1
   18634: 13 03 13 00  	addi	t1, t1, 0x1
   18638: 13 0e 4e 00  	addi	t3, t3, 0x4
   1863c: 93 83 13 00  	addi	t2, t2, 0x1
   18640: e3 18 ee f1  	bne	t3, t5, 0x18550 <cmyk_ycck_convert+0x64>
   18644: 1b 87 f2 ff  	addiw	a4, t0, -0x1
   18648: 93 85 85 00  	addi	a1, a1, 0x8
   1864c: 93 86 16 00  	addi	a3, a3, 0x1
   18650: e3 dc 12 eb  	bge	t0, a7, 0x18508 <cmyk_ycck_convert+0x1c>
   18654: 6f 90 a1 2c  	jal	zero, 0x3191e <__riscv_restore_5>
   18658: 6f 00 40 00  	jal	zero, 0x1865c <cmyk_ycck_convert+0x170>
   1865c: 67 80 00 00  	jalr	zero, 0x0(ra)

0000000000018660 <jinit_downsampler>:
   18660: 13 01 01 f8  	addi	sp, sp, -0x80
   18664: 23 3c 11 06  	sd	ra, 0x78(sp)
   18668: 23 38 81 06  	sd	s0, 0x70(sp)
   1866c: 23 34 91 06  	sd	s1, 0x68(sp)
   18670: 23 30 21 07  	sd	s2, 0x60(sp)
   18674: 23 3c 31 05  	sd	s3, 0x58(sp)
   18678: 23 38 41 05  	sd	s4, 0x50(sp)
   1867c: 23 34 51 05  	sd	s5, 0x48(sp)
   18680: 23 30 61 05  	sd	s6, 0x40(sp)
   18684: 23 3c 71 03  	sd	s7, 0x38(sp)
   18688: 23 38 81 03  	sd	s8, 0x30(sp)
   1868c: 23 34 91 03  	sd	s9, 0x28(sp)
   18690: 23 30 a1 03  	sd	s10, 0x20(sp)
   18694: 23 3c b1 01  	sd	s11, 0x18(sp)
   18698: 13 04 05 00  	addi	s0, a0, 0x0
   1869c: 03 35 85 00  	ld	a0, 0x8(a0)
   186a0: 83 36 05 00  	ld	a3, 0x0(a0)
   186a4: 93 05 10 00  	addi	a1, zero, 0x1
   186a8: 13 06 80 06  	addi	a2, zero, 0x68
   186ac: 13 05 04 00  	addi	a0, s0, 0x0
   186b0: e7 80 06 00  	jalr	ra, 0x0(a3)
   186b4: 93 04 05 00  	addi	s1, a0, 0x0
   186b8: 37 95 01 00  	lui	a0, 0x19
   186bc: 13 05 c5 8b  	addi	a0, a0, -0x744
   186c0: 23 b0 a4 00  	sd	a0, 0x0(s1)
   186c4: 37 95 01 00  	lui	a0, 0x19
   186c8: 83 25 44 10  	lw	a1, 0x104(s0)
   186cc: 13 05 05 8c  	addi	a0, a0, -0x740
   186d0: 23 b4 a4 00  	sd	a0, 0x8(s1)
   186d4: 23 3c 94 1c  	sd	s1, 0x1d8(s0)
   186d8: 23 a8 04 00  	sw	zero, 0x10(s1)
   186dc: 63 8e 05 00  	beq	a1, zero, 0x186f8 <jinit_downsampler+0x98>
   186e0: 03 35 04 00  	ld	a0, 0x0(s0)
   186e4: 83 35 05 00  	ld	a1, 0x0(a0)
   186e8: 13 06 70 01  	addi	a2, zero, 0x17
   186ec: 23 24 c5 02  	sw	a2, 0x28(a0)
   186f0: 13 05 04 00  	addi	a0, s0, 0x0
   186f4: e7 80 05 00  	jalr	ra, 0x0(a1)
   186f8: 03 29 44 04  	lw	s2, 0x44(s0)
   186fc: 63 52 20 19  	bge	zero, s2, 0x18880 <jinit_downsampler+0x220>
   18700: 83 3a 04 05  	ld	s5, 0x50(s0)
   18704: 93 09 00 00  	addi	s3, zero, 0x0
   18708: 13 8a 84 01  	addi	s4, s1, 0x18
   1870c: 93 8a ca 00  	addi	s5, s5, 0xc
   18710: 13 0b 10 00  	addi	s6, zero, 0x1
   18714: 37 95 01 00  	lui	a0, 0x19
   18718: 93 0b 85 b8  	addi	s7, a0, -0x478
   1871c: 37 95 01 00  	lui	a0, 0x19
   18720: 13 0c 05 95  	addi	s8, a0, -0x6b0
   18724: 37 95 01 00  	lui	a0, 0x19
   18728: 93 0c c5 c0  	addi	s9, a0, -0x3f4
   1872c: 37 95 01 00  	lui	a0, 0x19
   18730: 13 05 45 01  	addi	a0, a0, 0x14
   18734: 23 30 a1 00  	sd	a0, 0x0(sp)
   18738: 37 95 01 00  	lui	a0, 0x19
   1873c: 13 05 c5 ce  	addi	a0, a0, -0x314
   18740: 23 34 a1 00  	sd	a0, 0x8(sp)
   18744: 37 95 01 00  	lui	a0, 0x19
   18748: 13 05 85 11  	addi	a0, a0, 0x118
   1874c: 23 38 a1 00  	sd	a0, 0x10(sp)
   18750: 93 0d 50 02  	addi	s11, zero, 0x25
   18754: 13 0d 10 00  	addi	s10, zero, 0x1
   18758: 83 a5 ca ff  	lw	a1, -0x4(s5)
   1875c: 03 25 04 13  	lw	a0, 0x130(s0)
   18760: 63 90 a5 02  	bne	a1, a0, 0x18780 <jinit_downsampler+0x120>
   18764: 03 a6 0a 00  	lw	a2, 0x0(s5)
   18768: 83 26 44 13  	lw	a3, 0x134(s0)
   1876c: 63 1a d6 00  	bne	a2, a3, 0x18780 <jinit_downsampler+0x120>
   18770: 03 25 84 10  	lw	a0, 0x108(s0)
   18774: 63 00 05 08  	beq	a0, zero, 0x187f4 <jinit_downsampler+0x194>
   18778: 23 30 8a 01  	sd	s8, 0x0(s4)
   1877c: 6f 00 c0 03  	jal	zero, 0x187b8 <jinit_downsampler+0x158>
   18780: 1b 96 15 00  	slliw	a2, a1, 0x1
   18784: 63 1e a6 02  	bne	a2, a0, 0x187c0 <jinit_downsampler+0x160>
   18788: 03 a6 0a 00  	lw	a2, 0x0(s5)
   1878c: 83 26 44 13  	lw	a3, 0x134(s0)
   18790: 63 18 d6 00  	bne	a2, a3, 0x187a0 <jinit_downsampler+0x140>
   18794: 13 0d 00 00  	addi	s10, zero, 0x0
   18798: 23 30 9a 01  	sd	s9, 0x0(s4)
   1879c: 6f 00 40 07  	jal	zero, 0x18810 <jinit_downsampler+0x1b0>
   187a0: 1b 16 16 00  	slliw	a2, a2, 0x1
   187a4: 63 1e d6 00  	bne	a2, a3, 0x187c0 <jinit_downsampler+0x160>
   187a8: 03 25 84 10  	lw	a0, 0x108(s0)
   187ac: 63 0e 05 04  	beq	a0, zero, 0x18808 <jinit_downsampler+0x1a8>
   187b0: 03 35 81 00  	ld	a0, 0x8(sp)
   187b4: 23 30 aa 00  	sd	a0, 0x0(s4)
   187b8: 23 a8 64 01  	sw	s6, 0x10(s1)
   187bc: 6f 00 40 05  	jal	zero, 0x18810 <jinit_downsampler+0x1b0>
   187c0: ef 90 01 21  	jal	ra, 0x319d0 <__modsi3>
   187c4: 63 1a 05 00  	bne	a0, zero, 0x187d8 <jinit_downsampler+0x178>
   187c8: 03 25 44 13  	lw	a0, 0x134(s0)
   187cc: 83 a5 0a 00  	lw	a1, 0x0(s5)
   187d0: ef 90 01 20  	jal	ra, 0x319d0 <__modsi3>
   187d4: 63 04 05 02  	beq	a0, zero, 0x187fc <jinit_downsampler+0x19c>
   187d8: 03 35 04 00  	ld	a0, 0x0(s0)
   187dc: 83 35 05 00  	ld	a1, 0x0(a0)
   187e0: 23 24 b5 03  	sw	s11, 0x28(a0)
   187e4: 13 05 04 00  	addi	a0, s0, 0x0
   187e8: e7 80 05 00  	jalr	ra, 0x0(a1)
   187ec: 03 29 44 04  	lw	s2, 0x44(s0)
   187f0: 6f 00 00 02  	jal	zero, 0x18810 <jinit_downsampler+0x1b0>
   187f4: 23 30 7a 01  	sd	s7, 0x0(s4)
   187f8: 6f 00 80 01  	jal	zero, 0x18810 <jinit_downsampler+0x1b0>
   187fc: 13 0d 00 00  	addi	s10, zero, 0x0
   18800: 03 35 01 01  	ld	a0, 0x10(sp)
   18804: 6f 00 80 00  	jal	zero, 0x1880c <jinit_downsampler+0x1ac>
   18808: 03 35 01 00  	ld	a0, 0x0(sp)
   1880c: 23 30 aa 00  	sd	a0, 0x0(s4)
   18810: 93 89 19 00  	addi	s3, s3, 0x1
   18814: 13 0a 8a 00  	addi	s4, s4, 0x8
   18818: 93 8a 0a 06  	addi	s5, s5, 0x60
   1881c: e3 ce 29 f3  	blt	s3, s2, 0x18758 <jinit_downsampler+0xf8>
   18820: 03 25 84 10  	lw	a0, 0x108(s0)
   18824: 63 0e 05 04  	beq	a0, zero, 0x18880 <jinit_downsampler+0x220>
   18828: 63 1c 0d 04  	bne	s10, zero, 0x18880 <jinit_downsampler+0x220>
   1882c: 03 35 04 00  	ld	a0, 0x0(s0)
   18830: 03 33 85 00  	ld	t1, 0x8(a0)
   18834: 93 05 20 06  	addi	a1, zero, 0x62
   18838: 23 24 b5 02  	sw	a1, 0x28(a0)
   1883c: 13 05 04 00  	addi	a0, s0, 0x0
   18840: 93 05 00 00  	addi	a1, zero, 0x0
   18844: 83 30 81 07  	ld	ra, 0x78(sp)
   18848: 03 34 01 07  	ld	s0, 0x70(sp)
   1884c: 83 34 81 06  	ld	s1, 0x68(sp)
   18850: 03 39 01 06  	ld	s2, 0x60(sp)
   18854: 83 39 81 05  	ld	s3, 0x58(sp)
   18858: 03 3a 01 05  	ld	s4, 0x50(sp)
   1885c: 83 3a 81 04  	ld	s5, 0x48(sp)
   18860: 03 3b 01 04  	ld	s6, 0x40(sp)
   18864: 83 3b 81 03  	ld	s7, 0x38(sp)
   18868: 03 3c 01 03  	ld	s8, 0x30(sp)
   1886c: 83 3c 81 02  	ld	s9, 0x28(sp)
   18870: 03 3d 01 02  	ld	s10, 0x20(sp)
   18874: 83 3d 81 01  	ld	s11, 0x18(sp)
   18878: 13 01 01 08  	addi	sp, sp, 0x80
   1887c: 67 00 03 00  	jalr	zero, 0x0(t1)
   18880: 83 30 81 07  	ld	ra, 0x78(sp)
   18884: 03 34 01 07  	ld	s0, 0x70(sp)
   18888: 83 34 81 06  	ld	s1, 0x68(sp)
   1888c: 03 39 01 06  	ld	s2, 0x60(sp)
   18890: 83 39 81 05  	ld	s3, 0x58(sp)
   18894: 03 3a 01 05  	ld	s4, 0x50(sp)
   18898: 83 3a 81 04  	ld	s5, 0x48(sp)
   1889c: 03 3b 01 04  	ld	s6, 0x40(sp)
   188a0: 83 3b 81 03  	ld	s7, 0x38(sp)
   188a4: 03 3c 01 03  	ld	s8, 0x30(sp)
   188a8: 83 3c 81 02  	ld	s9, 0x28(sp)
   188ac: 03 3d 01 02  	ld	s10, 0x20(sp)
   188b0: 83 3d 81 01  	ld	s11, 0x18(sp)
   188b4: 13 01 01 08  	addi	sp, sp, 0x80
   188b8: 67 80 00 00  	jalr	zero, 0x0(ra)

00000000000188bc <start_pass_downsample>:
   188bc: 67 80 00 00  	jalr	zero, 0x0(ra)

00000000000188c0 <sep_downsample>:
   188c0: ef 92 61 00  	jal	t0, 0x318c6 <__riscv_save_11>
   188c4: 13 04 05 00  	addi	s0, a0, 0x0
   188c8: 03 25 45 04  	lw	a0, 0x44(a0)
   188cc: 63 50 a0 08  	bge	zero, a0, 0x1894c <sep_downsample+0x8c>
   188d0: 93 04 07 00  	addi	s1, a4, 0x0
   188d4: 13 89 06 00  	addi	s2, a3, 0x0
   188d8: 93 89 05 00  	addi	s3, a1, 0x0
   188dc: 13 0b 00 00  	addi	s6, zero, 0x0
   188e0: 83 3b 84 1d  	ld	s7, 0x1d8(s0)
   188e4: 03 3a 04 05  	ld	s4, 0x50(s0)
   188e8: 13 16 06 02  	slli	a2, a2, 0x20
   188ec: 13 56 06 02  	srli	a2, a2, 0x20
   188f0: 93 8b 8b 01  	addi	s7, s7, 0x18
   188f4: 13 1c 36 00  	slli	s8, a2, 0x3
   188f8: 83 ba 09 00  	ld	s5, 0x0(s3)
   188fc: 83 3c 09 00  	ld	s9, 0x0(s2)
   18900: 03 25 ca 00  	lw	a0, 0xc(s4)
   18904: b3 8a 8a 01  	add	s5, s5, s8
   18908: 93 85 04 00  	addi	a1, s1, 0x0
   1890c: ef 90 81 02  	jal	ra, 0x31934 <__muldi3>
   18910: 03 b7 0b 00  	ld	a4, 0x0(s7)
   18914: 13 15 05 02  	slli	a0, a0, 0x20
   18918: 13 55 d5 01  	srli	a0, a0, 0x1d
   1891c: b3 86 ac 00  	add	a3, s9, a0
   18920: 13 05 04 00  	addi	a0, s0, 0x0
   18924: 93 05 0a 00  	addi	a1, s4, 0x0
   18928: 13 86 0a 00  	addi	a2, s5, 0x0
   1892c: e7 00 07 00  	jalr	ra, 0x0(a4)
   18930: 13 0b 1b 00  	addi	s6, s6, 0x1
   18934: 03 25 44 04  	lw	a0, 0x44(s0)
   18938: 13 0a 0a 06  	addi	s4, s4, 0x60
   1893c: 13 09 89 00  	addi	s2, s2, 0x8
   18940: 93 89 89 00  	addi	s3, s3, 0x8
   18944: 93 8b 8b 00  	addi	s7, s7, 0x8
   18948: e3 48 ab fa  	blt	s6, a0, 0x188f8 <sep_downsample+0x38>
   1894c: 6f 80 11 7c  	jal	zero, 0x3190c <__riscv_restore_11>

0000000000018950 <fullsize_smooth_downsample>:
   18950: ef 82 f1 76  	jal	t0, 0x318be <__riscv_save_12>
   18954: 13 01 01 fd  	addi	sp, sp, -0x30
   18958: 93 09 05 00  	addi	s3, a0, 0x0
   1895c: 23 3c b1 00  	sd	a1, 0x18(sp)
   18960: 83 a4 c5 01  	lw	s1, 0x1c(a1)
   18964: 03 25 45 13  	lw	a0, 0x134(a0)
   18968: 23 34 d1 00  	sd	a3, 0x8(sp)
   1896c: 23 38 c1 00  	sd	a2, 0x10(sp)
   18970: 93 05 f0 ff  	addi	a1, zero, -0x1
   18974: 93 94 34 00  	slli	s1, s1, 0x3
   18978: 63 4e b5 04  	blt	a0, a1, 0x189d4 <fullsize_smooth_downsample+0x84>
   1897c: 03 e4 89 02  	lwu	s0, 0x28(s3)
   18980: bb 85 84 40  	subw	a1, s1, s0
   18984: 63 58 b0 04  	bge	zero, a1, 0x189d4 <fullsize_smooth_downsample+0x84>
   18988: 03 36 01 01  	ld	a2, 0x10(sp)
   1898c: 13 09 86 ff  	addi	s2, a2, -0x8
   18990: 13 05 25 00  	addi	a0, a0, 0x2
   18994: 93 45 f4 ff  	xori	a1, s0, -0x1
   18998: b3 85 b4 00  	add	a1, s1, a1
   1899c: 93 95 05 02  	slli	a1, a1, 0x20
   189a0: 93 d5 05 02  	srli	a1, a1, 0x20
   189a4: 13 8a 15 00  	addi	s4, a1, 0x1
   189a8: 13 15 05 02  	slli	a0, a0, 0x20
   189ac: 13 55 d5 01  	srli	a0, a0, 0x1d
   189b0: 33 05 c5 00  	add	a0, a0, a2
   189b4: 93 0a 85 ff  	addi	s5, a0, -0x8
   189b8: 03 35 09 00  	ld	a0, 0x0(s2)
   189bc: 33 05 85 00  	add	a0, a0, s0
   189c0: 83 45 f5 ff  	lbu	a1, -0x1(a0)
   189c4: 13 06 0a 00  	addi	a2, s4, 0x0
   189c8: ef 60 f0 55  	jal	ra, 0x1f726 <memset>
   189cc: 13 09 89 00  	addi	s2, s2, 0x8
   189d0: e3 14 59 ff  	bne	s2, s5, 0x189b8 <fullsize_smooth_downsample+0x68>
   189d4: 03 35 81 01  	ld	a0, 0x18(sp)
   189d8: 03 25 c5 00  	lw	a0, 0xc(a0)
   189dc: 63 52 a0 1a  	bge	zero, a0, 0x18b80 <fullsize_smooth_downsample+0x230>
   189e0: 03 a5 89 10  	lw	a0, 0x108(s3)
   189e4: 93 06 00 00  	addi	a3, zero, 0x0
   189e8: 93 15 95 00  	slli	a1, a0, 0x9
   189ec: 37 06 01 00  	lui	a2, 0x10
   189f0: 33 06 b6 40  	sub	a2, a2, a1
   189f4: 23 34 c1 02  	sd	a2, 0x28(sp)
   189f8: 13 15 65 02  	slli	a0, a0, 0x26
   189fc: 13 5a 05 02  	srli	s4, a0, 0x20
   18a00: 93 84 84 ff  	addi	s1, s1, -0x8
   18a04: 93 94 04 02  	slli	s1, s1, 0x20
   18a08: 93 d4 04 02  	srli	s1, s1, 0x20
   18a0c: 93 84 74 00  	addi	s1, s1, 0x7
   18a10: 23 30 91 00  	sd	s1, 0x0(sp)
   18a14: 13 95 36 00  	slli	a0, a3, 0x3
   18a18: 03 36 01 01  	ld	a2, 0x10(sp)
   18a1c: b3 05 a6 00  	add	a1, a2, a0
   18a20: 03 b9 05 00  	ld	s2, 0x0(a1)
   18a24: 03 bc 85 ff  	ld	s8, -0x8(a1)
   18a28: 93 86 16 00  	addi	a3, a3, 0x1
   18a2c: 23 30 d1 02  	sd	a3, 0x20(sp)
   18a30: 93 95 36 00  	slli	a1, a3, 0x3
   18a34: b3 05 b6 00  	add	a1, a2, a1
   18a38: 03 b4 05 00  	ld	s0, 0x0(a1)
   18a3c: 03 46 0c 00  	lbu	a2, 0x0(s8)
   18a40: 83 45 09 00  	lbu	a1, 0x0(s2)
   18a44: 83 36 81 00  	ld	a3, 0x8(sp)
   18a48: 33 85 a6 00  	add	a0, a3, a0
   18a4c: 03 3d 05 00  	ld	s10, 0x0(a0)
   18a50: 83 4b 04 00  	lbu	s7, 0x0(s0)
   18a54: 33 06 b6 00  	add	a2, a2, a1
   18a58: 03 45 1c 00  	lbu	a0, 0x1(s8)
   18a5c: 83 46 19 00  	lbu	a3, 0x1(s2)
   18a60: 83 44 14 00  	lbu	s1, 0x1(s0)
   18a64: b3 8b cb 00  	add	s7, s7, a2
   18a68: 93 0d 19 00  	addi	s11, s2, 0x1
   18a6c: 33 05 d5 00  	add	a0, a0, a3
   18a70: b3 84 a4 00  	add	s1, s1, a0
   18a74: 13 95 1b 00  	slli	a0, s7, 0x1
   18a78: 33 86 95 40  	sub	a2, a1, s1
   18a7c: b3 0a c5 40  	sub	s5, a0, a2
   18a80: 03 35 81 02  	ld	a0, 0x28(sp)
   18a84: ef 80 11 6b  	jal	ra, 0x31934 <__muldi3>
   18a88: 13 0b 05 00  	addi	s6, a0, 0x0
   18a8c: 13 85 0a 00  	addi	a0, s5, 0x0
   18a90: 93 05 0a 00  	addi	a1, s4, 0x0
   18a94: ef 80 11 6a  	jal	ra, 0x31934 <__muldi3>
   18a98: b7 85 00 00  	lui	a1, 0x8
   18a9c: 33 0b bb 00  	add	s6, s6, a1
   18aa0: 33 05 ab 00  	add	a0, s6, a0
   18aa4: 13 55 05 01  	srli	a0, a0, 0x10
   18aa8: 23 00 ad 00  	sb	a0, 0x0(s10)
   18aac: 13 0d 1d 00  	addi	s10, s10, 0x1
   18ab0: 13 04 24 00  	addi	s0, s0, 0x2
   18ab4: 13 0c 2c 00  	addi	s8, s8, 0x2
   18ab8: 03 35 01 00  	ld	a0, 0x0(sp)
   18abc: 33 09 a9 00  	add	s2, s2, a0
   18ac0: 93 89 04 00  	addi	s3, s1, 0x0
   18ac4: 03 45 0c 00  	lbu	a0, 0x0(s8)
   18ac8: 03 46 04 00  	lbu	a2, 0x0(s0)
   18acc: 83 c4 1d 00  	lbu	s1, 0x1(s11)
   18ad0: 83 c5 0d 00  	lbu	a1, 0x0(s11)
   18ad4: 93 8d 1d 00  	addi	s11, s11, 0x1
   18ad8: 33 05 a6 00  	add	a0, a2, a0
   18adc: b3 04 95 00  	add	s1, a0, s1
   18ae0: 9b 8b 0b 00  	addiw	s7, s7, 0x0
   18ae4: 9b 8c 09 00  	addiw	s9, s3, 0x0
   18ae8: b3 8b 9b 01  	add	s7, s7, s9
   18aec: b3 8a bb 40  	sub	s5, s7, a1
   18af0: b3 8a 9a 00  	add	s5, s5, s1
   18af4: 03 35 81 02  	ld	a0, 0x28(sp)
   18af8: ef 80 d1 63  	jal	ra, 0x31934 <__muldi3>
   18afc: 13 0b 05 00  	addi	s6, a0, 0x0
   18b00: 13 85 0a 00  	addi	a0, s5, 0x0
   18b04: 93 05 0a 00  	addi	a1, s4, 0x0
   18b08: ef 80 d1 62  	jal	ra, 0x31934 <__muldi3>
   18b0c: b7 85 00 00  	lui	a1, 0x8
   18b10: 33 0b bb 00  	add	s6, s6, a1
   18b14: 33 05 ab 00  	add	a0, s6, a0
   18b18: 13 55 05 01  	srli	a0, a0, 0x10
   18b1c: 23 00 ad 00  	sb	a0, 0x0(s10)
   18b20: 13 0d 1d 00  	addi	s10, s10, 0x1
   18b24: 13 04 14 00  	addi	s0, s0, 0x1
   18b28: 13 0c 1c 00  	addi	s8, s8, 0x1
   18b2c: 93 8b 09 00  	addi	s7, s3, 0x0
   18b30: e3 98 2d f9  	bne	s11, s2, 0x18ac0 <fullsize_smooth_downsample+0x170>
   18b34: 83 c5 0d 00  	lbu	a1, 0x0(s11)
   18b38: 93 94 14 00  	slli	s1, s1, 0x1
   18b3c: b3 8a bc 40  	sub	s5, s9, a1
   18b40: b3 8a 54 01  	add	s5, s1, s5
   18b44: 03 35 81 02  	ld	a0, 0x28(sp)
   18b48: ef 80 d1 5e  	jal	ra, 0x31934 <__muldi3>
   18b4c: 13 0b 05 00  	addi	s6, a0, 0x0
   18b50: 13 85 0a 00  	addi	a0, s5, 0x0
   18b54: 93 05 0a 00  	addi	a1, s4, 0x0
   18b58: ef 80 d1 5d  	jal	ra, 0x31934 <__muldi3>
   18b5c: b7 85 00 00  	lui	a1, 0x8
   18b60: 33 0b bb 00  	add	s6, s6, a1
   18b64: 33 05 ab 00  	add	a0, s6, a0
   18b68: 13 55 05 01  	srli	a0, a0, 0x10
   18b6c: 23 00 ad 00  	sb	a0, 0x0(s10)
   18b70: 03 35 81 01  	ld	a0, 0x18(sp)
   18b74: 03 25 c5 00  	lw	a0, 0xc(a0)
   18b78: 83 36 01 02  	ld	a3, 0x20(sp)
   18b7c: e3 cc a6 e8  	blt	a3, a0, 0x18a14 <fullsize_smooth_downsample+0xc4>
   18b80: 13 01 01 03  	addi	sp, sp, 0x30
   18b84: 6f 80 51 58  	jal	zero, 0x31908 <__riscv_restore_12>

0000000000018b88 <fullsize_downsample>:
   18b88: ef 82 d1 55  	jal	t0, 0x318e4 <__riscv_save_5>
   18b8c: 93 04 05 00  	addi	s1, a0, 0x0
   18b90: 03 27 45 13  	lw	a4, 0x134(a0)
   18b94: 83 27 85 02  	lw	a5, 0x28(a0)
   18b98: 13 84 06 00  	addi	s0, a3, 0x0
   18b9c: 13 05 06 00  	addi	a0, a2, 0x0
   18ba0: 13 89 05 00  	addi	s2, a1, 0x0
   18ba4: 93 05 00 00  	addi	a1, zero, 0x0
   18ba8: 13 86 06 00  	addi	a2, a3, 0x0
   18bac: 93 06 00 00  	addi	a3, zero, 0x0
   18bb0: ef 30 50 36  	jal	ra, 0x1c714 <jcopy_sample_rows>
   18bb4: 03 a5 44 13  	lw	a0, 0x134(s1)
   18bb8: 63 58 a0 04  	bge	zero, a0, 0x18c08 <fullsize_downsample+0x80>
   18bbc: 83 25 c9 01  	lw	a1, 0x1c(s2)
   18bc0: 03 e9 84 02  	lwu	s2, 0x28(s1)
   18bc4: 93 95 35 00  	slli	a1, a1, 0x3
   18bc8: 3b 86 25 41  	subw	a2, a1, s2
   18bcc: 63 5e c0 02  	bge	zero, a2, 0x18c08 <fullsize_downsample+0x80>
   18bd0: 13 46 f9 ff  	xori	a2, s2, -0x1
   18bd4: b3 85 c5 00  	add	a1, a1, a2
   18bd8: 93 95 05 02  	slli	a1, a1, 0x20
   18bdc: 93 d5 05 02  	srli	a1, a1, 0x20
   18be0: 93 84 15 00  	addi	s1, a1, 0x1
   18be4: 13 15 35 00  	slli	a0, a0, 0x3
   18be8: b3 09 a4 00  	add	s3, s0, a0
   18bec: 03 35 04 00  	ld	a0, 0x0(s0)
   18bf0: 33 05 25 01  	add	a0, a0, s2
   18bf4: 83 45 f5 ff  	lbu	a1, -0x1(a0)
   18bf8: 13 86 04 00  	addi	a2, s1, 0x0
   18bfc: ef 60 b0 32  	jal	ra, 0x1f726 <memset>
   18c00: 13 04 84 00  	addi	s0, s0, 0x8
   18c04: e3 14 34 ff  	bne	s0, s3, 0x18bec <fullsize_downsample+0x64>
   18c08: 6f 80 71 51  	jal	zero, 0x3191e <__riscv_restore_5>

0000000000018c0c <h2v1_downsample>:
   18c0c: ef 82 51 4c  	jal	t0, 0x318d0 <__riscv_save_9>
   18c10: 13 84 05 00  	addi	s0, a1, 0x0
   18c14: 83 25 45 13  	lw	a1, 0x134(a0)
   18c18: 03 2a c4 01  	lw	s4, 0x1c(s0)
   18c1c: 93 84 06 00  	addi	s1, a3, 0x0
   18c20: 13 09 06 00  	addi	s2, a2, 0x0
   18c24: 63 58 b0 04  	bge	zero, a1, 0x18c74 <h2v1_downsample+0x68>
   18c28: 83 6a 85 02  	lwu	s5, 0x28(a0)
   18c2c: 13 15 4a 00  	slli	a0, s4, 0x4
   18c30: 3b 06 55 41  	subw	a2, a0, s5
   18c34: 63 50 c0 04  	bge	zero, a2, 0x18c74 <h2v1_downsample+0x68>
   18c38: 13 c6 fa ff  	xori	a2, s5, -0x1
   18c3c: 33 05 c5 00  	add	a0, a0, a2
   18c40: 13 15 05 02  	slli	a0, a0, 0x20
   18c44: 13 55 05 02  	srli	a0, a0, 0x20
   18c48: 93 09 15 00  	addi	s3, a0, 0x1
   18c4c: 93 95 35 00  	slli	a1, a1, 0x3
   18c50: 33 0b b9 00  	add	s6, s2, a1
   18c54: 93 0b 09 00  	addi	s7, s2, 0x0
   18c58: 03 b5 0b 00  	ld	a0, 0x0(s7)
   18c5c: 33 05 55 01  	add	a0, a0, s5
   18c60: 83 45 f5 ff  	lbu	a1, -0x1(a0)
   18c64: 13 86 09 00  	addi	a2, s3, 0x0
   18c68: ef 60 f0 2b  	jal	ra, 0x1f726 <memset>
   18c6c: 93 8b 8b 00  	addi	s7, s7, 0x8
   18c70: e3 94 6b ff  	bne	s7, s6, 0x18c58 <h2v1_downsample+0x4c>
   18c74: 83 26 c4 00  	lw	a3, 0xc(s0)
   18c78: 63 58 d0 06  	bge	zero, a3, 0x18ce8 <h2v1_downsample+0xdc>
   18c7c: 13 05 00 00  	addi	a0, zero, 0x0
   18c80: 9b 15 3a 00  	slliw	a1, s4, 0x3
   18c84: 13 86 85 ff  	addi	a2, a1, -0x8
   18c88: 13 16 06 02  	slli	a2, a2, 0x20
   18c8c: 13 56 f6 01  	srli	a2, a2, 0x1f
   18c90: 13 06 06 01  	addi	a2, a2, 0x10
   18c94: 63 86 05 04  	beq	a1, zero, 0x18ce0 <h2v1_downsample+0xd4>
   18c98: 13 17 35 00  	slli	a4, a0, 0x3
   18c9c: b3 06 e9 00  	add	a3, s2, a4
   18ca0: 83 b6 06 00  	ld	a3, 0x0(a3)
   18ca4: 33 87 e4 00  	add	a4, s1, a4
   18ca8: 03 38 07 00  	ld	a6, 0x0(a4)
   18cac: 13 07 00 00  	addi	a4, zero, 0x0
   18cb0: b3 87 c6 00  	add	a5, a3, a2
   18cb4: 83 c8 06 00  	lbu	a7, 0x0(a3)
   18cb8: 83 c2 16 00  	lbu	t0, 0x1(a3)
   18cbc: b3 08 17 01  	add	a7, a4, a7
   18cc0: b3 88 58 00  	add	a7, a7, t0
   18cc4: 93 d8 18 00  	srli	a7, a7, 0x1
   18cc8: 23 00 18 01  	sb	a7, 0x0(a6)
   18ccc: 13 08 18 00  	addi	a6, a6, 0x1
   18cd0: 93 86 26 00  	addi	a3, a3, 0x2
   18cd4: 13 47 17 00  	xori	a4, a4, 0x1
   18cd8: e3 9e f6 fc  	bne	a3, a5, 0x18cb4 <h2v1_downsample+0xa8>
   18cdc: 83 26 c4 00  	lw	a3, 0xc(s0)
   18ce0: 13 05 15 00  	addi	a0, a0, 0x1
   18ce4: e3 48 d5 fa  	blt	a0, a3, 0x18c94 <h2v1_downsample+0x88>
   18ce8: 6f 80 b1 42  	jal	zero, 0x31912 <__riscv_restore_9>

0000000000018cec <h2v2_smooth_downsample>:
   18cec: ef 82 31 3d  	jal	t0, 0x318be <__riscv_save_12>
   18cf0: 13 01 01 fd  	addi	sp, sp, -0x30
   18cf4: 93 09 05 00  	addi	s3, a0, 0x0
   18cf8: 03 25 45 13  	lw	a0, 0x134(a0)
   18cfc: 23 30 b1 02  	sd	a1, 0x20(sp)
   18d00: 03 a4 c5 01  	lw	s0, 0x1c(a1)
   18d04: 93 05 f0 ff  	addi	a1, zero, -0x1
   18d08: 23 38 d1 00  	sd	a3, 0x10(sp)
   18d0c: 23 3c c1 00  	sd	a2, 0x18(sp)
   18d10: 63 40 b5 06  	blt	a0, a1, 0x18d70 <h2v2_smooth_downsample+0x84>
   18d14: 83 e4 89 02  	lwu	s1, 0x28(s3)
   18d18: 93 15 44 00  	slli	a1, s0, 0x4
   18d1c: 3b 86 95 40  	subw	a2, a1, s1
   18d20: 63 58 c0 04  	bge	zero, a2, 0x18d70 <h2v2_smooth_downsample+0x84>
   18d24: 83 36 81 01  	ld	a3, 0x18(sp)
   18d28: 13 89 86 ff  	addi	s2, a3, -0x8
   18d2c: 13 05 25 00  	addi	a0, a0, 0x2
   18d30: 13 c6 f4 ff  	xori	a2, s1, -0x1
   18d34: b3 85 c5 00  	add	a1, a1, a2
   18d38: 93 95 05 02  	slli	a1, a1, 0x20
   18d3c: 93 d5 05 02  	srli	a1, a1, 0x20
   18d40: 13 8a 15 00  	addi	s4, a1, 0x1
   18d44: 13 15 05 02  	slli	a0, a0, 0x20
   18d48: 13 55 d5 01  	srli	a0, a0, 0x1d
   18d4c: 33 05 d5 00  	add	a0, a0, a3
   18d50: 93 0a 85 ff  	addi	s5, a0, -0x8
   18d54: 03 35 09 00  	ld	a0, 0x0(s2)
   18d58: 33 05 95 00  	add	a0, a0, s1
   18d5c: 83 45 f5 ff  	lbu	a1, -0x1(a0)
   18d60: 13 06 0a 00  	addi	a2, s4, 0x0
   18d64: ef 60 30 1c  	jal	ra, 0x1f726 <memset>
   18d68: 13 09 89 00  	addi	s2, s2, 0x8
   18d6c: e3 14 59 ff  	bne	s2, s5, 0x18d54 <h2v2_smooth_downsample+0x68>
   18d70: 83 a4 89 10  	lw	s1, 0x108(s3)
   18d74: 13 85 44 f3  	addi	a0, s1, -0xcc
   18d78: 93 05 00 fb  	addi	a1, zero, -0x50
   18d7c: ef 80 91 3b  	jal	ra, 0x31934 <__muldi3>
   18d80: 83 35 01 02  	ld	a1, 0x20(sp)
   18d84: 83 a5 c5 00  	lw	a1, 0xc(a1)
   18d88: 63 52 b0 28  	bge	zero, a1, 0x1900c <h2v2_smooth_downsample+0x320>
   18d8c: 93 0b 00 00  	addi	s7, zero, 0x0
   18d90: 13 06 00 00  	addi	a2, zero, 0x0
   18d94: 13 14 34 00  	slli	s0, s0, 0x3
   18d98: 13 05 05 04  	addi	a0, a0, 0x40
   18d9c: 9b 59 45 00  	srliw	s3, a0, 0x4
   18da0: 93 99 49 00  	slli	s3, s3, 0x4
   18da4: 93 94 44 02  	slli	s1, s1, 0x24
   18da8: 13 da 04 02  	srli	s4, s1, 0x20
   18dac: 13 04 84 ff  	addi	s0, s0, -0x8
   18db0: 13 14 04 02  	slli	s0, s0, 0x20
   18db4: 13 54 04 02  	srli	s0, s0, 0x20
   18db8: 13 04 74 00  	addi	s0, s0, 0x7
   18dbc: 23 34 81 00  	sd	s0, 0x8(sp)
   18dc0: 37 8d 00 00  	lui	s10, 0x8
   18dc4: 13 95 3b 00  	slli	a0, s7, 0x3
   18dc8: 83 35 01 01  	ld	a1, 0x10(sp)
   18dcc: 33 85 a5 00  	add	a0, a1, a0
   18dd0: 03 3c 05 00  	ld	s8, 0x0(a0)
   18dd4: 13 15 36 00  	slli	a0, a2, 0x3
   18dd8: 83 37 81 01  	ld	a5, 0x18(sp)
   18ddc: 33 85 a7 00  	add	a0, a5, a0
   18de0: 03 39 05 00  	ld	s2, 0x0(a0)
   18de4: 83 3c 85 00  	ld	s9, 0x8(a0)
   18de8: 03 34 85 ff  	ld	s0, -0x8(a0)
   18dec: 13 06 26 00  	addi	a2, a2, 0x2
   18df0: 23 34 c1 02  	sd	a2, 0x28(sp)
   18df4: 13 15 36 00  	slli	a0, a2, 0x3
   18df8: 83 45 09 00  	lbu	a1, 0x0(s2)
   18dfc: 03 46 19 00  	lbu	a2, 0x1(s2)
   18e00: 83 c6 0c 00  	lbu	a3, 0x0(s9)
   18e04: 03 c7 1c 00  	lbu	a4, 0x1(s9)
   18e08: 33 85 a7 00  	add	a0, a5, a0
   18e0c: 83 34 05 00  	ld	s1, 0x0(a0)
   18e10: b3 85 b6 00  	add	a1, a3, a1
   18e14: 33 05 e6 00  	add	a0, a2, a4
   18e18: 33 85 a5 00  	add	a0, a1, a0
   18e1c: 03 46 04 00  	lbu	a2, 0x0(s0)
   18e20: 83 46 14 00  	lbu	a3, 0x1(s0)
   18e24: 03 c7 04 00  	lbu	a4, 0x0(s1)
   18e28: 83 c7 14 00  	lbu	a5, 0x1(s1)
   18e2c: 03 48 29 00  	lbu	a6, 0x2(s2)
   18e30: 83 c8 2c 00  	lbu	a7, 0x2(s9)
   18e34: b3 06 d6 00  	add	a3, a2, a3
   18e38: b3 85 d5 00  	add	a1, a1, a3
   18e3c: b3 07 f7 00  	add	a5, a4, a5
   18e40: b3 85 f5 00  	add	a1, a1, a5
   18e44: 33 08 18 01  	add	a6, a6, a7
   18e48: 83 46 24 00  	lbu	a3, 0x2(s0)
   18e4c: bb 85 05 01  	addw	a1, a1, a6
   18e50: 83 c7 24 00  	lbu	a5, 0x2(s1)
   18e54: 93 95 15 00  	slli	a1, a1, 0x1
   18e58: 33 06 d6 00  	add	a2, a2, a3
   18e5c: 33 06 c7 00  	add	a2, a4, a2
   18e60: 33 06 f6 00  	add	a2, a2, a5
   18e64: b3 8a c5 00  	add	s5, a1, a2
   18e68: 93 85 09 00  	addi	a1, s3, 0x0
   18e6c: ef 80 91 2c  	jal	ra, 0x31934 <__muldi3>
   18e70: 13 0b 05 00  	addi	s6, a0, 0x0
   18e74: 13 85 0a 00  	addi	a0, s5, 0x0
   18e78: 93 05 0a 00  	addi	a1, s4, 0x0
   18e7c: ef 80 91 2b  	jal	ra, 0x31934 <__muldi3>
   18e80: 33 0b ab 01  	add	s6, s6, s10
   18e84: 33 05 ab 00  	add	a0, s6, a0
   18e88: 13 55 05 01  	srli	a0, a0, 0x10
   18e8c: 23 00 ac 00  	sb	a0, 0x0(s8)
   18e90: 93 0d 1c 00  	addi	s11, s8, 0x1
   18e94: 93 84 34 00  	addi	s1, s1, 0x3
   18e98: 13 09 39 00  	addi	s2, s2, 0x3
   18e9c: 93 8c 3c 00  	addi	s9, s9, 0x3
   18ea0: 13 04 34 00  	addi	s0, s0, 0x3
   18ea4: 03 35 81 00  	ld	a0, 0x8(sp)
   18ea8: 33 0c ac 00  	add	s8, s8, a0
   18eac: 03 45 f9 ff  	lbu	a0, -0x1(s2)
   18eb0: 83 45 09 00  	lbu	a1, 0x0(s2)
   18eb4: 03 c6 fc ff  	lbu	a2, -0x1(s9)
   18eb8: 83 c6 0c 00  	lbu	a3, 0x0(s9)
   18ebc: 03 47 f4 ff  	lbu	a4, -0x1(s0)
   18ec0: 83 47 04 00  	lbu	a5, 0x0(s0)
   18ec4: 33 85 a5 00  	add	a0, a1, a0
   18ec8: 33 06 d6 00  	add	a2, a2, a3
   18ecc: 33 05 c5 00  	add	a0, a0, a2
   18ed0: 33 87 e7 00  	add	a4, a5, a4
   18ed4: 83 c5 f4 ff  	lbu	a1, -0x1(s1)
   18ed8: 03 c6 04 00  	lbu	a2, 0x0(s1)
   18edc: 83 46 e9 ff  	lbu	a3, -0x2(s2)
   18ee0: 83 47 19 00  	lbu	a5, 0x1(s2)
   18ee4: 03 c8 ec ff  	lbu	a6, -0x2(s9)
   18ee8: b3 85 c5 00  	add	a1, a1, a2
   18eec: b3 05 b7 00  	add	a1, a4, a1
   18ef0: b3 86 f6 00  	add	a3, a3, a5
   18ef4: b3 86 06 01  	add	a3, a3, a6
   18ef8: b3 85 d5 00  	add	a1, a1, a3
   18efc: 03 c6 1c 00  	lbu	a2, 0x1(s9)
   18f00: 83 46 e4 ff  	lbu	a3, -0x2(s0)
   18f04: 03 47 14 00  	lbu	a4, 0x1(s0)
   18f08: 83 c7 e4 ff  	lbu	a5, -0x2(s1)
   18f0c: b3 85 c5 00  	add	a1, a1, a2
   18f10: 03 c6 14 00  	lbu	a2, 0x1(s1)
   18f14: b3 06 d7 00  	add	a3, a4, a3
   18f18: b3 86 f6 00  	add	a3, a3, a5
   18f1c: 93 95 15 00  	slli	a1, a1, 0x1
   18f20: 33 86 c6 00  	add	a2, a3, a2
   18f24: b3 0a b6 00  	add	s5, a2, a1
   18f28: 93 85 09 00  	addi	a1, s3, 0x0
   18f2c: ef 80 91 20  	jal	ra, 0x31934 <__muldi3>
   18f30: 13 0b 05 00  	addi	s6, a0, 0x0
   18f34: 13 85 0a 00  	addi	a0, s5, 0x0
   18f38: 93 05 0a 00  	addi	a1, s4, 0x0
   18f3c: ef 80 91 1f  	jal	ra, 0x31934 <__muldi3>
   18f40: 33 0b ab 01  	add	s6, s6, s10
   18f44: 33 05 ab 00  	add	a0, s6, a0
   18f48: 13 55 05 01  	srli	a0, a0, 0x10
   18f4c: 23 80 ad 00  	sb	a0, 0x0(s11)
   18f50: 93 8d 1d 00  	addi	s11, s11, 0x1
   18f54: 93 84 24 00  	addi	s1, s1, 0x2
   18f58: 13 09 29 00  	addi	s2, s2, 0x2
   18f5c: 93 8c 2c 00  	addi	s9, s9, 0x2
   18f60: 13 04 24 00  	addi	s0, s0, 0x2
   18f64: e3 94 8d f5  	bne	s11, s8, 0x18eac <h2v2_smooth_downsample+0x1c0>
   18f68: 03 45 f9 ff  	lbu	a0, -0x1(s2)
   18f6c: 83 45 09 00  	lbu	a1, 0x0(s2)
   18f70: 03 c6 0c 00  	lbu	a2, 0x0(s9)
   18f74: 83 c6 fc ff  	lbu	a3, -0x1(s9)
   18f78: b3 05 b6 00  	add	a1, a2, a1
   18f7c: 33 05 d5 00  	add	a0, a0, a3
   18f80: 33 85 a5 00  	add	a0, a1, a0
   18f84: 03 46 f4 ff  	lbu	a2, -0x1(s0)
   18f88: 83 46 04 00  	lbu	a3, 0x0(s0)
   18f8c: 03 c7 f4 ff  	lbu	a4, -0x1(s1)
   18f90: 83 c7 04 00  	lbu	a5, 0x0(s1)
   18f94: 03 48 e9 ff  	lbu	a6, -0x2(s2)
   18f98: 83 c8 ec ff  	lbu	a7, -0x2(s9)
   18f9c: 33 06 d6 00  	add	a2, a2, a3
   18fa0: b3 85 c5 00  	add	a1, a1, a2
   18fa4: 33 07 f7 00  	add	a4, a4, a5
   18fa8: 33 07 07 01  	add	a4, a4, a6
   18fac: b3 85 e5 00  	add	a1, a1, a4
   18fb0: 03 46 e4 ff  	lbu	a2, -0x2(s0)
   18fb4: 03 c7 e4 ff  	lbu	a4, -0x2(s1)
   18fb8: bb 85 15 01  	addw	a1, a1, a7
   18fbc: 93 95 15 00  	slli	a1, a1, 0x1
   18fc0: b3 86 d7 00  	add	a3, a5, a3
   18fc4: 33 06 e6 00  	add	a2, a2, a4
   18fc8: 33 86 c6 00  	add	a2, a3, a2
   18fcc: b3 8a c5 00  	add	s5, a1, a2
   18fd0: 93 85 09 00  	addi	a1, s3, 0x0
   18fd4: ef 80 11 16  	jal	ra, 0x31934 <__muldi3>
   18fd8: 13 0b 05 00  	addi	s6, a0, 0x0
   18fdc: 13 85 0a 00  	addi	a0, s5, 0x0
   18fe0: 93 05 0a 00  	addi	a1, s4, 0x0
   18fe4: ef 80 11 15  	jal	ra, 0x31934 <__muldi3>
   18fe8: 33 0b ab 01  	add	s6, s6, s10
   18fec: 33 05 ab 00  	add	a0, s6, a0
   18ff0: 13 55 05 01  	srli	a0, a0, 0x10
   18ff4: 23 80 ad 00  	sb	a0, 0x0(s11)
   18ff8: 03 35 01 02  	ld	a0, 0x20(sp)
   18ffc: 03 25 c5 00  	lw	a0, 0xc(a0)
   19000: 93 8b 1b 00  	addi	s7, s7, 0x1
   19004: 03 36 81 02  	ld	a2, 0x28(sp)
   19008: e3 ce ab da  	blt	s7, a0, 0x18dc4 <h2v2_smooth_downsample+0xd8>
   1900c: 13 01 01 03  	addi	sp, sp, 0x30
   19010: 6f 80 91 0f  	jal	zero, 0x31908 <__riscv_restore_12>

0000000000019014 <h2v2_downsample>:
   19014: ef 82 d1 0b  	jal	t0, 0x318d0 <__riscv_save_9>
   19018: 13 84 05 00  	addi	s0, a1, 0x0
   1901c: 83 25 45 13  	lw	a1, 0x134(a0)
   19020: 03 2a c4 01  	lw	s4, 0x1c(s0)
   19024: 93 84 06 00  	addi	s1, a3, 0x0
   19028: 13 09 06 00  	addi	s2, a2, 0x0
   1902c: 63 58 b0 04  	bge	zero, a1, 0x1907c <h2v2_downsample+0x68>
   19030: 83 6a 85 02  	lwu	s5, 0x28(a0)
   19034: 13 15 4a 00  	slli	a0, s4, 0x4
   19038: 3b 06 55 41  	subw	a2, a0, s5
   1903c: 63 50 c0 04  	bge	zero, a2, 0x1907c <h2v2_downsample+0x68>
   19040: 13 c6 fa ff  	xori	a2, s5, -0x1
   19044: 33 05 c5 00  	add	a0, a0, a2
   19048: 13 15 05 02  	slli	a0, a0, 0x20
   1904c: 13 55 05 02  	srli	a0, a0, 0x20
   19050: 93 09 15 00  	addi	s3, a0, 0x1
   19054: 93 95 35 00  	slli	a1, a1, 0x3
   19058: 33 0b b9 00  	add	s6, s2, a1
   1905c: 93 0b 09 00  	addi	s7, s2, 0x0
   19060: 03 b5 0b 00  	ld	a0, 0x0(s7)
   19064: 33 05 55 01  	add	a0, a0, s5
   19068: 83 45 f5 ff  	lbu	a1, -0x1(a0)
   1906c: 13 86 09 00  	addi	a2, s3, 0x0
   19070: ef 60 60 6b  	jal	ra, 0x1f726 <memset>
   19074: 93 8b 8b 00  	addi	s7, s7, 0x8
   19078: e3 94 6b ff  	bne	s7, s6, 0x19060 <h2v2_downsample+0x4c>
   1907c: 03 27 c4 00  	lw	a4, 0xc(s0)
   19080: 63 5a e0 08  	bge	zero, a4, 0x19114 <h2v2_downsample+0x100>
   19084: 13 05 00 00  	addi	a0, zero, 0x0
   19088: 93 05 00 00  	addi	a1, zero, 0x0
   1908c: 1b 16 3a 00  	slliw	a2, s4, 0x3
   19090: 93 06 86 ff  	addi	a3, a2, -0x8
   19094: 93 96 06 02  	slli	a3, a3, 0x20
   19098: 93 d6 f6 01  	srli	a3, a3, 0x1f
   1909c: 93 86 06 01  	addi	a3, a3, 0x10
   190a0: 63 04 06 06  	beq	a2, zero, 0x19108 <h2v2_downsample+0xf4>
   190a4: 13 97 35 00  	slli	a4, a1, 0x3
   190a8: b3 07 e9 00  	add	a5, s2, a4
   190ac: 03 b7 87 00  	ld	a4, 0x8(a5)
   190b0: 83 b7 07 00  	ld	a5, 0x0(a5)
   190b4: 13 18 35 00  	slli	a6, a0, 0x3
   190b8: 33 88 04 01  	add	a6, s1, a6
   190bc: 83 32 08 00  	ld	t0, 0x0(a6)
   190c0: 33 88 d7 00  	add	a6, a5, a3
   190c4: 93 08 10 00  	addi	a7, zero, 0x1
   190c8: 03 c3 07 00  	lbu	t1, 0x0(a5)
   190cc: 83 c3 17 00  	lbu	t2, 0x1(a5)
   190d0: 03 4e 07 00  	lbu	t3, 0x0(a4)
   190d4: 83 4e 17 00  	lbu	t4, 0x1(a4)
   190d8: 33 83 68 00  	add	t1, a7, t1
   190dc: b3 83 c3 01  	add	t2, t2, t3
   190e0: 33 03 73 00  	add	t1, t1, t2
   190e4: 33 03 d3 01  	add	t1, t1, t4
   190e8: 13 53 23 00  	srli	t1, t1, 0x2
   190ec: 23 80 62 00  	sb	t1, 0x0(t0)
   190f0: 93 82 12 00  	addi	t0, t0, 0x1
   190f4: 93 c8 38 00  	xori	a7, a7, 0x3
   190f8: 93 87 27 00  	addi	a5, a5, 0x2
   190fc: 13 07 27 00  	addi	a4, a4, 0x2
   19100: e3 94 07 fd  	bne	a5, a6, 0x190c8 <h2v2_downsample+0xb4>
   19104: 03 27 c4 00  	lw	a4, 0xc(s0)
   19108: 13 05 15 00  	addi	a0, a0, 0x1
   1910c: 93 85 25 00  	addi	a1, a1, 0x2
   19110: e3 48 e5 f8  	blt	a0, a4, 0x190a0 <h2v2_downsample+0x8c>
   19114: 6f 80 e1 7f  	jal	zero, 0x31912 <__riscv_restore_9>

0000000000019118 <int_downsample>:
   19118: ef 82 61 7a  	jal	t0, 0x318be <__riscv_save_12>
   1911c: 13 01 01 fe  	addi	sp, sp, -0x20
   19120: 13 84 05 00  	addi	s0, a1, 0x0
   19124: 93 0b 05 00  	addi	s7, a0, 0x0
   19128: 03 a7 c5 01  	lw	a4, 0x1c(a1)
   1912c: 03 25 05 13  	lw	a0, 0x130(a0)
   19130: 83 a5 85 00  	lw	a1, 0x8(a1)
   19134: 23 34 d1 00  	sd	a3, 0x8(sp)
   19138: 23 38 c1 00  	sd	a2, 0x10(sp)
   1913c: 9b 19 37 00  	slliw	s3, a4, 0x3
   19140: ef 80 51 03  	jal	ra, 0x31974 <__divdi3>
   19144: 03 ac 4b 13  	lw	s8, 0x134(s7)
   19148: 23 3c 81 00  	sd	s0, 0x18(sp)
   1914c: 83 2a c4 00  	lw	s5, 0xc(s0)
   19150: 13 0a 05 00  	addi	s4, a0, 0x0
   19154: 13 05 0c 00  	addi	a0, s8, 0x0
   19158: 93 85 0a 00  	addi	a1, s5, 0x0
   1915c: ef 80 91 01  	jal	ra, 0x31974 <__divdi3>
   19160: 13 0b 05 00  	addi	s6, a0, 0x0
   19164: 93 05 0a 00  	addi	a1, s4, 0x0
   19168: ef 80 c1 7c  	jal	ra, 0x31934 <__muldi3>
   1916c: 03 e4 8b 02  	lwu	s0, 0x28(s7)
   19170: 93 0b 05 00  	addi	s7, a0, 0x0
   19174: 13 05 0a 00  	addi	a0, s4, 0x0
   19178: 93 85 09 00  	addi	a1, s3, 0x0
   1917c: ef 80 81 7b  	jal	ra, 0x31934 <__muldi3>
   19180: 63 58 80 05  	bge	zero, s8, 0x191d0 <int_downsample+0xb8>
   19184: bb 05 85 40  	subw	a1, a0, s0
   19188: 63 54 b0 04  	bge	zero, a1, 0x191d0 <int_downsample+0xb8>
   1918c: 93 45 f4 ff  	xori	a1, s0, -0x1
   19190: 33 05 b5 00  	add	a0, a0, a1
   19194: 13 15 05 02  	slli	a0, a0, 0x20
   19198: 13 55 05 02  	srli	a0, a0, 0x20
   1919c: 93 0a 15 00  	addi	s5, a0, 0x1
   191a0: 93 14 3c 00  	slli	s1, s8, 0x3
   191a4: 03 39 01 01  	ld	s2, 0x10(sp)
   191a8: b3 04 99 00  	add	s1, s2, s1
   191ac: 03 35 09 00  	ld	a0, 0x0(s2)
   191b0: 33 05 85 00  	add	a0, a0, s0
   191b4: 83 45 f5 ff  	lbu	a1, -0x1(a0)
   191b8: 13 86 0a 00  	addi	a2, s5, 0x0
   191bc: ef 60 a0 56  	jal	ra, 0x1f726 <memset>
   191c0: 13 09 89 00  	addi	s2, s2, 0x8
   191c4: e3 14 99 fe  	bne	s2, s1, 0x191ac <int_downsample+0x94>
   191c8: 03 35 81 01  	ld	a0, 0x18(sp)
   191cc: 83 2a c5 00  	lw	s5, 0xc(a0)
   191d0: 63 52 50 0f  	bge	zero, s5, 0x192b4 <int_downsample+0x19c>
   191d4: 13 0c 00 00  	addi	s8, zero, 0x0
   191d8: 93 0c 00 00  	addi	s9, zero, 0x0
   191dc: 1b d5 fb 01  	srliw	a0, s7, 0x1f
   191e0: 33 85 ab 00  	add	a0, s7, a0
   191e4: 1b 0d 0a 00  	addiw	s10, s4, 0x0
   191e8: 1b 0b 0b 00  	addiw	s6, s6, 0x0
   191ec: 9b 5d 15 40  	sraiw	s11, a0, 0x1
   191f0: 1b 8a 0b 00  	addiw	s4, s7, 0x0
   191f4: 13 05 fd ff  	addi	a0, s10, -0x1
   191f8: 13 15 05 02  	slli	a0, a0, 0x20
   191fc: 13 55 05 02  	srli	a0, a0, 0x20
   19200: 93 0b 15 00  	addi	s7, a0, 0x1
   19204: 63 82 09 0a  	beq	s3, zero, 0x192a8 <int_downsample+0x190>
   19208: 13 15 3c 00  	slli	a0, s8, 0x3
   1920c: 83 35 81 00  	ld	a1, 0x8(sp)
   19210: 33 85 a5 00  	add	a0, a1, a0
   19214: 83 3a 05 00  	ld	s5, 0x0(a0)
   19218: 93 04 00 00  	addi	s1, zero, 0x0
   1921c: 13 09 00 00  	addi	s2, zero, 0x0
   19220: 13 94 3c 00  	slli	s0, s9, 0x3
   19224: 03 35 01 01  	ld	a0, 0x10(sp)
   19228: 33 04 85 00  	add	s0, a0, s0
   1922c: 63 58 60 05  	bge	zero, s6, 0x1927c <int_downsample+0x164>
   19230: 93 05 00 00  	addi	a1, zero, 0x0
   19234: 13 05 00 00  	addi	a0, zero, 0x0
   19238: 13 96 04 02  	slli	a2, s1, 0x20
   1923c: 13 56 06 02  	srli	a2, a2, 0x20
   19240: 63 58 a0 03  	bge	zero, s10, 0x19270 <int_downsample+0x158>
   19244: 93 96 35 00  	slli	a3, a1, 0x3
   19248: b3 06 d4 00  	add	a3, s0, a3
   1924c: 83 b6 06 00  	ld	a3, 0x0(a3)
   19250: 33 87 c6 00  	add	a4, a3, a2
   19254: b3 87 cb 00  	add	a5, s7, a2
   19258: b3 86 f6 00  	add	a3, a3, a5
   1925c: 83 47 07 00  	lbu	a5, 0x0(a4)
   19260: 13 08 17 00  	addi	a6, a4, 0x1
   19264: 33 05 f5 00  	add	a0, a0, a5
   19268: 13 07 08 00  	addi	a4, a6, 0x0
   1926c: e3 18 d8 fe  	bne	a6, a3, 0x1925c <int_downsample+0x144>
   19270: 93 85 15 00  	addi	a1, a1, 0x1
   19274: e3 96 65 fd  	bne	a1, s6, 0x19240 <int_downsample+0x128>
   19278: 6f 00 80 00  	jal	zero, 0x19280 <int_downsample+0x168>
   1927c: 13 05 00 00  	addi	a0, zero, 0x0
   19280: 33 05 b5 01  	add	a0, a0, s11
   19284: 93 05 0a 00  	addi	a1, s4, 0x0
   19288: ef 80 c1 6e  	jal	ra, 0x31974 <__divdi3>
   1928c: 23 80 aa 00  	sb	a0, 0x0(s5)
   19290: 93 8a 1a 00  	addi	s5, s5, 0x1
   19294: 1b 09 19 00  	addiw	s2, s2, 0x1
   19298: b3 84 a4 01  	add	s1, s1, s10
   1929c: e3 18 39 f9  	bne	s2, s3, 0x1922c <int_downsample+0x114>
   192a0: 03 35 81 01  	ld	a0, 0x18(sp)
   192a4: 83 2a c5 00  	lw	s5, 0xc(a0)
   192a8: 13 0c 1c 00  	addi	s8, s8, 0x1
   192ac: b3 8c 6c 01  	add	s9, s9, s6
   192b0: e3 4a 5c f5  	blt	s8, s5, 0x19204 <int_downsample+0xec>
   192b4: 13 01 01 02  	addi	sp, sp, 0x20
   192b8: 6f 80 01 65  	jal	zero, 0x31908 <__riscv_restore_12>

00000000000192bc <jpeg_make_c_derived_tbl>:
   192bc: ef 82 e1 61  	jal	t0, 0x318da <__riscv_save_7>
   192c0: 13 01 01 af  	addi	sp, sp, -0x510
   192c4: 03 34 06 00  	ld	s0, 0x0(a2)
   192c8: 93 84 05 00  	addi	s1, a1, 0x0
   192cc: 63 12 04 02  	bne	s0, zero, 0x192f0 <jpeg_make_c_derived_tbl+0x34>
   192d0: 13 09 06 00  	addi	s2, a2, 0x0
   192d4: 83 35 85 00  	ld	a1, 0x8(a0)
   192d8: 83 b6 05 00  	ld	a3, 0x0(a1)
   192dc: 93 05 10 00  	addi	a1, zero, 0x1
   192e0: 13 06 00 50  	addi	a2, zero, 0x500
   192e4: e7 80 06 00  	jalr	ra, 0x0(a3)
   192e8: 13 04 05 00  	addi	s0, a0, 0x0
   192ec: 23 30 a9 00  	sd	a0, 0x0(s2)
   192f0: 13 0a 00 00  	addi	s4, zero, 0x0
   192f4: 13 09 10 00  	addi	s2, zero, 0x1
   192f8: 93 0a 10 01  	addi	s5, zero, 0x11
   192fc: 13 0b f1 40  	addi	s6, sp, 0x40f
   19300: 33 85 24 01  	add	a0, s1, s2
   19304: 83 49 05 00  	lbu	s3, 0x0(a0)
   19308: 63 8c 09 00  	beq	s3, zero, 0x19320 <jpeg_make_c_derived_tbl+0x64>
   1930c: 33 05 4b 01  	add	a0, s6, s4
   19310: 93 05 09 00  	addi	a1, s2, 0x0
   19314: 13 86 09 00  	addi	a2, s3, 0x0
   19318: ef 60 e0 40  	jal	ra, 0x1f726 <memset>
   1931c: 3b 0a 3a 01  	addw	s4, s4, s3
   19320: 13 09 19 00  	addi	s2, s2, 0x1
   19324: e3 1e 59 fd  	bne	s2, s5, 0x19300 <jpeg_make_c_derived_tbl+0x44>
   19328: 13 05 f1 40  	addi	a0, sp, 0x40f
   1932c: b3 05 45 01  	add	a1, a0, s4
   19330: 23 80 05 00  	sb	zero, 0x0(a1)
   19334: 83 48 f1 40  	lbu	a7, 0x40f(sp)
   19338: 63 8a 08 06  	beq	a7, zero, 0x193ac <jpeg_make_c_derived_tbl+0xf0>
   1933c: 93 05 00 00  	addi	a1, zero, 0x0
   19340: 13 06 00 00  	addi	a2, zero, 0x0
   19344: 93 06 01 41  	addi	a3, sp, 0x410
   19348: 13 07 81 00  	addi	a4, sp, 0x8
   1934c: 93 07 10 00  	addi	a5, zero, 0x1
   19350: 93 97 07 02  	slli	a5, a5, 0x20
   19354: 13 88 08 00  	addi	a6, a7, 0x0
   19358: 93 f2 f8 0f  	andi	t0, a7, 0xff
   1935c: 63 10 58 04  	bne	a6, t0, 0x1939c <jpeg_make_c_derived_tbl+0xe0>
   19360: 93 12 26 00  	slli	t0, a2, 0x2
   19364: b3 02 57 00  	add	t0, a4, t0
   19368: 93 18 06 02  	slli	a7, a2, 0x20
   1936c: 33 83 c6 00  	add	t1, a3, a2
   19370: 23 a0 b2 00  	sw	a1, 0x0(t0)
   19374: 93 85 15 00  	addi	a1, a1, 0x1
   19378: 83 43 03 00  	lbu	t2, 0x0(t1)
   1937c: 93 82 42 00  	addi	t0, t0, 0x4
   19380: b3 88 f8 00  	add	a7, a7, a5
   19384: 1b 06 16 00  	addiw	a2, a2, 0x1
   19388: 13 03 13 00  	addi	t1, t1, 0x1
   1938c: e3 02 78 fe  	beq	a6, t2, 0x19370 <jpeg_make_c_derived_tbl+0xb4>
   19390: 93 d8 08 42  	srai	a7, a7, 0x20
   19394: b3 08 15 01  	add	a7, a0, a7
   19398: 83 c8 08 00  	lbu	a7, 0x0(a7)
   1939c: 93 95 15 00  	slli	a1, a1, 0x1
   193a0: 93 f2 f8 0f  	andi	t0, a7, 0xff
   193a4: 1b 08 18 00  	addiw	a6, a6, 0x1
   193a8: e3 98 02 fa  	bne	t0, zero, 0x19358 <jpeg_make_c_derived_tbl+0x9c>
   193ac: 13 05 04 40  	addi	a0, s0, 0x400
   193b0: 13 06 00 10  	addi	a2, zero, 0x100
   193b4: 93 05 00 00  	addi	a1, zero, 0x0
   193b8: ef 60 e0 36  	jal	ra, 0x1f726 <memset>
   193bc: 63 54 40 05  	bge	zero, s4, 0x19404 <jpeg_make_c_derived_tbl+0x148>
   193c0: 93 84 14 01  	addi	s1, s1, 0x11
   193c4: 13 05 f1 40  	addi	a0, sp, 0x40f
   193c8: 33 0a 45 01  	add	s4, a0, s4
   193cc: 93 05 81 00  	addi	a1, sp, 0x8
   193d0: 03 c6 04 00  	lbu	a2, 0x0(s1)
   193d4: 83 a6 05 00  	lw	a3, 0x0(a1)
   193d8: 13 16 26 00  	slli	a2, a2, 0x2
   193dc: 33 06 c4 00  	add	a2, s0, a2
   193e0: 23 20 d6 00  	sw	a3, 0x0(a2)
   193e4: 03 c6 04 00  	lbu	a2, 0x0(s1)
   193e8: 83 46 05 00  	lbu	a3, 0x0(a0)
   193ec: 33 06 c4 00  	add	a2, s0, a2
   193f0: 23 00 d6 40  	sb	a3, 0x400(a2)
   193f4: 13 05 15 00  	addi	a0, a0, 0x1
   193f8: 93 85 45 00  	addi	a1, a1, 0x4
   193fc: 93 84 14 00  	addi	s1, s1, 0x1
   19400: e3 18 45 fd  	bne	a0, s4, 0x193d0 <jpeg_make_c_derived_tbl+0x114>
   19404: 13 01 01 51  	addi	sp, sp, 0x510
   19408: 6f 80 01 51  	jal	zero, 0x31918 <__riscv_restore_7>

000000000001940c <jpeg_gen_optimal_table>:
   1940c: ef 82 41 4c  	jal	t0, 0x318d0 <__riscv_save_9>
   19410: 13 01 01 80  	addi	sp, sp, -0x800
   19414: 13 01 01 fc  	addi	sp, sp, -0x40
   19418: 13 09 06 00  	addi	s2, a2, 0x0
   1941c: 13 84 05 00  	addi	s0, a1, 0x0
   19420: 93 04 05 00  	addi	s1, a0, 0x0
   19424: 13 05 f1 7f  	addi	a0, sp, 0x7ff
   19428: 13 05 05 02  	addi	a0, a0, 0x20
   1942c: 13 06 10 02  	addi	a2, zero, 0x21
   19430: 93 05 00 00  	addi	a1, zero, 0x0
   19434: ef 60 20 2f  	jal	ra, 0x1f726 <memset>
   19438: 13 05 81 41  	addi	a0, sp, 0x418
   1943c: 13 06 40 40  	addi	a2, zero, 0x404
   19440: 93 09 81 41  	addi	s3, sp, 0x418
   19444: 93 05 00 00  	addi	a1, zero, 0x0
   19448: ef 60 e0 2d  	jal	ra, 0x1f726 <memset>
   1944c: 13 05 41 01  	addi	a0, sp, 0x14
   19450: 93 05 f0 0f  	addi	a1, zero, 0xff
   19454: 13 06 40 40  	addi	a2, zero, 0x404
   19458: 13 0a 41 01  	addi	s4, sp, 0x14
   1945c: ef 60 a0 2c  	jal	ra, 0x1f726 <memset>
   19460: 93 06 00 00  	addi	a3, zero, 0x0
   19464: 13 05 f9 7f  	addi	a0, s2, 0x7ff
   19468: 93 05 10 00  	addi	a1, zero, 0x1
   1946c: a3 30 b5 00  	sd	a1, 0x1(a0)
   19470: 13 06 f0 ff  	addi	a2, zero, -0x1
   19474: 37 d5 9a 3b  	lui	a0, 0x3b9ad
   19478: 1b 05 05 a0  	addiw	a0, a0, -0x600
   1947c: 93 05 10 10  	addi	a1, zero, 0x101
   19480: 13 07 05 00  	addi	a4, a0, 0x0
   19484: 93 97 36 00  	slli	a5, a3, 0x3
   19488: b3 07 f9 00  	add	a5, s2, a5
   1948c: 83 b7 07 00  	ld	a5, 0x0(a5)
   19490: 13 b8 17 00  	sltiu	a6, a5, 0x1
   19494: b3 28 f7 00  	slt	a7, a4, a5
   19498: 33 68 18 01  	or	a6, a6, a7
   1949c: 63 16 08 00  	bne	a6, zero, 0x194a8 <jpeg_gen_optimal_table+0x9c>
   194a0: 13 86 06 00  	addi	a2, a3, 0x0
   194a4: 13 87 07 00  	addi	a4, a5, 0x0
   194a8: 93 86 16 00  	addi	a3, a3, 0x1
   194ac: e3 9c b6 fc  	bne	a3, a1, 0x19484 <jpeg_gen_optimal_table+0x78>
   194b0: 13 07 00 00  	addi	a4, zero, 0x0
   194b4: 93 17 06 02  	slli	a5, a2, 0x20
   194b8: 93 d7 07 02  	srli	a5, a5, 0x20
   194bc: 93 06 f0 ff  	addi	a3, zero, -0x1
   194c0: 13 08 10 10  	addi	a6, zero, 0x101
   194c4: 93 08 09 00  	addi	a7, s2, 0x0
   194c8: 93 02 05 00  	addi	t0, a0, 0x0
   194cc: 03 b3 08 00  	ld	t1, 0x0(a7)
   194d0: b3 83 07 01  	add	t2, a5, a6
   194d4: 13 3e 13 00  	sltiu	t3, t1, 0x1
   194d8: b3 ae 62 00  	slt	t4, t0, t1
   194dc: 93 83 f3 ef  	addi	t2, t2, -0x101
   194e0: 93 b3 13 00  	sltiu	t2, t2, 0x1
   194e4: b3 63 7e 00  	or	t2, t3, t2
   194e8: b3 e3 d3 01  	or	t2, t2, t4
   194ec: 63 94 03 00  	bne	t2, zero, 0x194f4 <jpeg_gen_optimal_table+0xe8>
   194f0: 93 06 07 00  	addi	a3, a4, 0x0
   194f4: 63 94 03 00  	bne	t2, zero, 0x194fc <jpeg_gen_optimal_table+0xf0>
   194f8: 93 02 03 00  	addi	t0, t1, 0x0
   194fc: 93 88 88 00  	addi	a7, a7, 0x8
   19500: 13 08 f8 ff  	addi	a6, a6, -0x1
   19504: 1b 07 17 00  	addiw	a4, a4, 0x1
   19508: e3 12 08 fc  	bne	a6, zero, 0x194cc <jpeg_gen_optimal_table+0xc0>
   1950c: 63 c2 06 0c  	blt	a3, zero, 0x195d0 <jpeg_gen_optimal_table+0x1c4>
   19510: 13 97 36 00  	slli	a4, a3, 0x3
   19514: b3 07 e9 00  	add	a5, s2, a4
   19518: 03 b7 07 00  	ld	a4, 0x0(a5)
   1951c: 1b 06 06 00  	addiw	a2, a2, 0x0
   19520: 13 18 36 00  	slli	a6, a2, 0x3
   19524: 33 08 09 01  	add	a6, s2, a6
   19528: 83 38 08 00  	ld	a7, 0x0(a6)
   1952c: b3 88 e8 00  	add	a7, a7, a4
   19530: 13 16 26 00  	slli	a2, a2, 0x2
   19534: b3 82 c9 00  	add	t0, s3, a2
   19538: 03 a3 02 00  	lw	t1, 0x0(t0)
   1953c: 33 07 ca 00  	add	a4, s4, a2
   19540: 03 26 07 00  	lw	a2, 0x0(a4)
   19544: 23 30 18 01  	sd	a7, 0x0(a6)
   19548: 23 b0 07 00  	sd	zero, 0x0(a5)
   1954c: 13 03 13 00  	addi	t1, t1, 0x1
   19550: 23 a0 62 00  	sw	t1, 0x0(t0)
   19554: 63 42 06 02  	blt	a2, zero, 0x19578 <jpeg_gen_optimal_table+0x16c>
   19558: 13 16 26 00  	slli	a2, a2, 0x2
   1955c: b3 87 c9 00  	add	a5, s3, a2
   19560: 03 a8 07 00  	lw	a6, 0x0(a5)
   19564: 33 07 ca 00  	add	a4, s4, a2
   19568: 03 26 07 00  	lw	a2, 0x0(a4)
   1956c: 13 08 18 00  	addi	a6, a6, 0x1
   19570: 23 a0 07 01  	sw	a6, 0x0(a5)
   19574: e3 52 06 fe  	bge	a2, zero, 0x19558 <jpeg_gen_optimal_table+0x14c>
   19578: 23 20 d7 00  	sw	a3, 0x0(a4)
   1957c: 93 96 26 00  	slli	a3, a3, 0x2
   19580: 33 86 d9 00  	add	a2, s3, a3
   19584: 03 27 06 00  	lw	a4, 0x0(a2)
   19588: b3 06 da 00  	add	a3, s4, a3
   1958c: 83 a7 06 00  	lw	a5, 0x0(a3)
   19590: 93 06 00 00  	addi	a3, zero, 0x0
   19594: 13 07 17 00  	addi	a4, a4, 0x1
   19598: 23 20 e6 00  	sw	a4, 0x0(a2)
   1959c: 13 06 f0 ff  	addi	a2, zero, -0x1
   195a0: 13 07 05 00  	addi	a4, a0, 0x0
   195a4: e3 c0 07 ee  	blt	a5, zero, 0x19484 <jpeg_gen_optimal_table+0x78>
   195a8: 93 97 27 00  	slli	a5, a5, 0x2
   195ac: b3 86 f9 00  	add	a3, s3, a5
   195b0: 03 a7 06 00  	lw	a4, 0x0(a3)
   195b4: b3 07 fa 00  	add	a5, s4, a5
   195b8: 83 a7 07 00  	lw	a5, 0x0(a5)
   195bc: 13 07 17 00  	addi	a4, a4, 0x1
   195c0: 23 a0 e6 00  	sw	a4, 0x0(a3)
   195c4: e3 d2 07 fe  	bge	a5, zero, 0x195a8 <jpeg_gen_optimal_table+0x19c>
   195c8: 93 06 00 00  	addi	a3, zero, 0x0
   195cc: 6f f0 5f eb  	jal	zero, 0x19480 <jpeg_gen_optimal_table+0x74>
   195d0: 13 09 81 41  	addi	s2, sp, 0x418
   195d4: 93 09 f1 7f  	addi	s3, sp, 0x7ff
   195d8: 93 89 d9 01  	addi	s3, s3, 0x1d
   195dc: 13 0a 10 02  	addi	s4, zero, 0x21
   195e0: 93 0a 60 02  	addi	s5, zero, 0x26
   195e4: 13 0b f1 7f  	addi	s6, sp, 0x7ff
   195e8: 13 0b 0b 02  	addi	s6, s6, 0x20
   195ec: 83 2b 09 00  	lw	s7, 0x0(s2)
   195f0: 63 86 0b 02  	beq	s7, zero, 0x1961c <jpeg_gen_optimal_table+0x210>
   195f4: 63 cc 4b 01  	blt	s7, s4, 0x1960c <jpeg_gen_optimal_table+0x200>
   195f8: 03 b5 04 00  	ld	a0, 0x0(s1)
   195fc: 83 35 05 00  	ld	a1, 0x0(a0)
   19600: 23 24 55 03  	sw	s5, 0x28(a0)
   19604: 13 85 04 00  	addi	a0, s1, 0x0
   19608: e7 80 05 00  	jalr	ra, 0x0(a1)
   1960c: b3 0b 7b 01  	add	s7, s6, s7
   19610: 03 c5 0b 00  	lbu	a0, 0x0(s7)
   19614: 13 05 15 00  	addi	a0, a0, 0x1
   19618: 23 80 ab 00  	sb	a0, 0x0(s7)
   1961c: 13 09 49 00  	addi	s2, s2, 0x4
   19620: e3 16 39 fd  	bne	s2, s3, 0x195ec <jpeg_gen_optimal_table+0x1e0>
   19624: 13 05 f0 ff  	addi	a0, zero, -0x1
   19628: 13 15 05 02  	slli	a0, a0, 0x20
   1962c: 93 07 00 02  	addi	a5, zero, 0x20
   19630: 93 05 f1 7f  	addi	a1, sp, 0x7ff
   19634: 93 85 f5 03  	addi	a1, a1, 0x3f
   19638: 13 06 10 00  	addi	a2, zero, 0x1
   1963c: 13 16 56 02  	slli	a2, a2, 0x25
   19640: 93 06 f1 7f  	addi	a3, sp, 0x7ff
   19644: 93 86 06 02  	addi	a3, a3, 0x20
   19648: 13 07 10 01  	addi	a4, zero, 0x11
   1964c: 13 88 07 00  	addi	a6, a5, 0x0
   19650: b3 88 f6 00  	add	a7, a3, a5
   19654: 03 c3 08 00  	lbu	t1, 0x0(a7)
   19658: 93 87 f7 ff  	addi	a5, a5, -0x1
   1965c: 63 0e 03 04  	beq	t1, zero, 0x196b8 <jpeg_gen_optimal_table+0x2ac>
   19660: b3 82 f6 00  	add	t0, a3, a5
   19664: 93 83 05 00  	addi	t2, a1, 0x0
   19668: 13 0e 06 00  	addi	t3, a2, 0x0
   1966c: 83 ce f3 ff  	lbu	t4, -0x1(t2)
   19670: 93 83 f3 ff  	addi	t2, t2, -0x1
   19674: 33 0e ae 00  	add	t3, t3, a0
   19678: e3 8a 0e fe  	beq	t4, zero, 0x1966c <jpeg_gen_optimal_table+0x260>
   1967c: 83 ce 02 00  	lbu	t4, 0x0(t0)
   19680: 13 03 e3 ff  	addi	t1, t1, -0x2
   19684: 23 80 68 00  	sb	t1, 0x0(a7)
   19688: 93 8e 1e 00  	addi	t4, t4, 0x1
   1968c: 23 80 d2 01  	sb	t4, 0x0(t0)
   19690: 13 53 0e 42  	srai	t1, t3, 0x20
   19694: 33 83 66 00  	add	t1, a3, t1
   19698: 03 4e 03 00  	lbu	t3, 0x0(t1)
   1969c: 13 0e 2e 00  	addi	t3, t3, 0x2
   196a0: 23 00 c3 01  	sb	t3, 0x0(t1)
   196a4: 03 c3 03 00  	lbu	t1, 0x0(t2)
   196a8: 13 03 f3 ff  	addi	t1, t1, -0x1
   196ac: 23 80 63 00  	sb	t1, 0x0(t2)
   196b0: 03 c3 08 00  	lbu	t1, 0x0(a7)
   196b4: e3 18 03 fa  	bne	t1, zero, 0x19664 <jpeg_gen_optimal_table+0x258>
   196b8: 33 06 a6 00  	add	a2, a2, a0
   196bc: 93 85 f5 ff  	addi	a1, a1, -0x1
   196c0: e3 66 07 f9  	bltu	a4, a6, 0x1964c <jpeg_gen_optimal_table+0x240>
   196c4: 13 05 f1 7f  	addi	a0, sp, 0x7ff
   196c8: 13 05 15 03  	addi	a0, a0, 0x31
   196cc: 83 45 f5 ff  	lbu	a1, -0x1(a0)
   196d0: 13 05 f5 ff  	addi	a0, a0, -0x1
   196d4: e3 8c 05 fe  	beq	a1, zero, 0x196cc <jpeg_gen_optimal_table+0x2c0>
   196d8: 93 85 f5 ff  	addi	a1, a1, -0x1
   196dc: 23 00 b5 00  	sb	a1, 0x0(a0)
   196e0: 93 05 f1 7f  	addi	a1, sp, 0x7ff
   196e4: 93 85 05 02  	addi	a1, a1, 0x20
   196e8: 13 06 10 01  	addi	a2, zero, 0x11
   196ec: 13 05 04 00  	addi	a0, s0, 0x0
   196f0: ef 60 00 0e  	jal	ra, 0x1f7d0 <memcpy>
   196f4: 13 05 00 00  	addi	a0, zero, 0x0
   196f8: 93 05 10 00  	addi	a1, zero, 0x1
   196fc: 13 06 00 10  	addi	a2, zero, 0x100
   19700: 93 06 10 02  	addi	a3, zero, 0x21
   19704: 13 07 00 00  	addi	a4, zero, 0x0
   19708: 93 07 81 41  	addi	a5, sp, 0x418
   1970c: 03 a8 07 00  	lw	a6, 0x0(a5)
   19710: 63 18 b8 00  	bne	a6, a1, 0x19720 <jpeg_gen_optimal_table+0x314>
   19714: 33 08 a4 00  	add	a6, s0, a0
   19718: a3 08 e8 00  	sb	a4, 0x11(a6)
   1971c: 1b 05 15 00  	addiw	a0, a0, 0x1
   19720: 13 07 17 00  	addi	a4, a4, 0x1
   19724: 93 87 47 00  	addi	a5, a5, 0x4
   19728: e3 12 c7 fe  	bne	a4, a2, 0x1970c <jpeg_gen_optimal_table+0x300>
   1972c: 9b 85 15 00  	addiw	a1, a1, 0x1
   19730: e3 9a d5 fc  	bne	a1, a3, 0x19704 <jpeg_gen_optimal_table+0x2f8>
   19734: 23 2a 04 10  	sw	zero, 0x114(s0)
   19738: 13 01 01 7f  	addi	sp, sp, 0x7f0
   1973c: 13 01 01 05  	addi	sp, sp, 0x50
   19740: 6f 80 21 1d  	jal	zero, 0x31912 <__riscv_restore_9>

0000000000019744 <jinit_huff_encoder>:
   19744: ef 82 c1 1b  	jal	t0, 0x31900 <__riscv_save_1>
   19748: 13 04 05 00  	addi	s0, a0, 0x0
   1974c: 03 35 85 00  	ld	a0, 0x8(a0)
   19750: 83 36 05 00  	ld	a3, 0x0(a0)
   19754: 93 05 10 00  	addi	a1, zero, 0x1
   19758: 13 06 00 0c  	addi	a2, zero, 0xc0
   1975c: 13 05 04 00  	addi	a0, s0, 0x0
   19760: e7 80 06 00  	jalr	ra, 0x0(a3)
   19764: 23 34 a4 1e  	sd	a0, 0x1e8(s0)
   19768: b7 95 01 00  	lui	a1, 0x19
   1976c: 93 85 45 7a  	addi	a1, a1, 0x7a4
   19770: 23 30 b5 00  	sd	a1, 0x0(a0)
   19774: 23 3c 05 04  	sd	zero, 0x58(a0)
   19778: 23 38 05 04  	sd	zero, 0x50(a0)
   1977c: 23 34 05 04  	sd	zero, 0x48(a0)
   19780: 23 30 05 04  	sd	zero, 0x40(a0)
   19784: 93 05 05 0a  	addi	a1, a0, 0xa0
   19788: 13 05 05 0c  	addi	a0, a0, 0xc0
   1978c: 23 b0 05 fc  	sd	zero, -0x40(a1)
   19790: 23 b0 05 00  	sd	zero, 0x0(a1)
   19794: 23 b0 05 fe  	sd	zero, -0x20(a1)
   19798: 93 85 85 00  	addi	a1, a1, 0x8
   1979c: e3 98 a5 fe  	bne	a1, a0, 0x1978c <jinit_huff_encoder+0x48>
   197a0: 6f 80 a1 18  	jal	zero, 0x3192a <__riscv_restore_1>

00000000000197a4 <start_pass_huff>:
   197a4: ef 82 21 12  	jal	t0, 0x318c6 <__riscv_save_11>
   197a8: 13 04 05 00  	addi	s0, a0, 0x0
   197ac: 83 39 85 1e  	ld	s3, 0x1e8(a0)
   197b0: 93 84 05 00  	addi	s1, a1, 0x0
   197b4: 63 9c 05 00  	bne	a1, zero, 0x197cc <start_pass_huff+0x28>
   197b8: 37 a5 01 00  	lui	a0, 0x1a
   197bc: 13 05 c5 c4  	addi	a0, a0, -0x3b4
   197c0: b7 a5 01 00  	lui	a1, 0x1a
   197c4: 93 85 45 57  	addi	a1, a1, 0x574
   197c8: 6f 00 40 01  	jal	zero, 0x197dc <start_pass_huff+0x38>
   197cc: 37 a5 01 00  	lui	a0, 0x1a
   197d0: 13 05 05 96  	addi	a0, a0, -0x6a0
   197d4: b7 a5 01 00  	lui	a1, 0x1a
   197d8: 93 85 c5 b5  	addi	a1, a1, -0x4a4
   197dc: 23 b4 a9 00  	sd	a0, 0x8(s3)
   197e0: 23 b8 b9 00  	sd	a1, 0x10(s3)
   197e4: 03 25 c4 13  	lw	a0, 0x13c(s0)
   197e8: 63 50 a0 16  	bge	zero, a0, 0x19948 <start_pass_huff+0x1a4>
   197ec: 13 0a 00 00  	addi	s4, zero, 0x0
   197f0: 93 0a 04 14  	addi	s5, s0, 0x140
   197f4: 13 8b 49 02  	addi	s6, s3, 0x24
   197f8: 93 0b 30 00  	addi	s7, zero, 0x3
   197fc: 13 0c 10 03  	addi	s8, zero, 0x31
   19800: 37 15 00 00  	lui	a0, 0x1
   19804: 1b 09 85 80  	addiw	s2, a0, -0x7f8
   19808: 03 b5 0a 00  	ld	a0, 0x0(s5)
   1980c: 03 2d 45 01  	lw	s10, 0x14(a0)
   19810: 83 2c 85 01  	lw	s9, 0x18(a0)
   19814: 63 ec ab 01  	bltu	s7, s10, 0x1982c <start_pass_huff+0x88>
   19818: 63 98 04 02  	bne	s1, zero, 0x19848 <start_pass_huff+0xa4>
   1981c: 13 15 3d 00  	slli	a0, s10, 0x3
   19820: 33 05 a4 00  	add	a0, s0, a0
   19824: 03 35 85 07  	ld	a0, 0x78(a0)
   19828: 63 10 05 02  	bne	a0, zero, 0x19848 <start_pass_huff+0xa4>
   1982c: 03 35 04 00  	ld	a0, 0x0(s0)
   19830: 23 26 a5 03  	sw	s10, 0x2c(a0)
   19834: 83 35 04 00  	ld	a1, 0x0(s0)
   19838: 83 b5 05 00  	ld	a1, 0x0(a1)
   1983c: 23 24 85 03  	sw	s8, 0x28(a0)
   19840: 13 05 04 00  	addi	a0, s0, 0x0
   19844: e7 80 05 00  	jalr	ra, 0x0(a1)
   19848: 63 ec 9b 01  	bltu	s7, s9, 0x19860 <start_pass_huff+0xbc>
   1984c: 63 98 04 02  	bne	s1, zero, 0x1987c <start_pass_huff+0xd8>
   19850: 13 95 3c 00  	slli	a0, s9, 0x3
   19854: 33 05 a4 00  	add	a0, s0, a0
   19858: 03 35 85 09  	ld	a0, 0x98(a0)
   1985c: 63 10 05 02  	bne	a0, zero, 0x1987c <start_pass_huff+0xd8>
   19860: 03 35 04 00  	ld	a0, 0x0(s0)
   19864: 23 26 95 03  	sw	s9, 0x2c(a0)
   19868: 83 35 04 00  	ld	a1, 0x0(s0)
   1986c: 83 b5 05 00  	ld	a1, 0x0(a1)
   19870: 23 24 85 03  	sw	s8, 0x28(a0)
   19874: 13 05 04 00  	addi	a0, s0, 0x0
   19878: e7 80 05 00  	jalr	ra, 0x0(a1)
   1987c: 13 1d 3d 00  	slli	s10, s10, 0x3
   19880: 63 8e 04 06  	beq	s1, zero, 0x198fc <start_pass_huff+0x158>
   19884: b3 85 a9 01  	add	a1, s3, s10
   19888: 03 b5 05 08  	ld	a0, 0x80(a1)
   1988c: 63 12 05 02  	bne	a0, zero, 0x198b0 <start_pass_huff+0x10c>
   19890: 03 35 84 00  	ld	a0, 0x8(s0)
   19894: 83 36 05 00  	ld	a3, 0x0(a0)
   19898: 13 8d 05 08  	addi	s10, a1, 0x80
   1989c: 93 05 10 00  	addi	a1, zero, 0x1
   198a0: 13 05 04 00  	addi	a0, s0, 0x0
   198a4: 13 06 09 00  	addi	a2, s2, 0x0
   198a8: e7 80 06 00  	jalr	ra, 0x0(a3)
   198ac: 23 30 ad 00  	sd	a0, 0x0(s10)
   198b0: 93 05 00 00  	addi	a1, zero, 0x0
   198b4: 13 06 09 00  	addi	a2, s2, 0x0
   198b8: ef 50 f0 66  	jal	ra, 0x1f726 <memset>
   198bc: 93 95 3c 00  	slli	a1, s9, 0x3
   198c0: b3 85 b9 00  	add	a1, s3, a1
   198c4: 03 b5 05 0a  	ld	a0, 0xa0(a1)
   198c8: 63 12 05 02  	bne	a0, zero, 0x198ec <start_pass_huff+0x148>
   198cc: 03 35 84 00  	ld	a0, 0x8(s0)
   198d0: 83 36 05 00  	ld	a3, 0x0(a0)
   198d4: 93 8c 05 0a  	addi	s9, a1, 0xa0
   198d8: 93 05 10 00  	addi	a1, zero, 0x1
   198dc: 13 05 04 00  	addi	a0, s0, 0x0
   198e0: 13 06 09 00  	addi	a2, s2, 0x0
   198e4: e7 80 06 00  	jalr	ra, 0x0(a3)
   198e8: 23 b0 ac 00  	sd	a0, 0x0(s9)
   198ec: 93 05 00 00  	addi	a1, zero, 0x0
   198f0: 13 06 09 00  	addi	a2, s2, 0x0
   198f4: ef 50 30 63  	jal	ra, 0x1f726 <memset>
   198f8: 6f 00 80 03  	jal	zero, 0x19930 <start_pass_huff+0x18c>
   198fc: 33 05 a4 01  	add	a0, s0, s10
   19900: 83 35 85 07  	ld	a1, 0x78(a0)
   19904: 33 8d a9 01  	add	s10, s3, s10
   19908: 13 06 0d 04  	addi	a2, s10, 0x40
   1990c: 13 05 04 00  	addi	a0, s0, 0x0
   19910: ef f0 df 9a  	jal	ra, 0x192bc <jpeg_make_c_derived_tbl>
   19914: 93 9c 3c 00  	slli	s9, s9, 0x3
   19918: 33 05 94 01  	add	a0, s0, s9
   1991c: 83 35 85 09  	ld	a1, 0x98(a0)
   19920: b3 8c 99 01  	add	s9, s3, s9
   19924: 13 86 0c 06  	addi	a2, s9, 0x60
   19928: 13 05 04 00  	addi	a0, s0, 0x0
   1992c: ef f0 1f 99  	jal	ra, 0x192bc <jpeg_make_c_derived_tbl>
   19930: 23 20 0b 00  	sw	zero, 0x0(s6)
   19934: 03 25 c4 13  	lw	a0, 0x13c(s0)
   19938: 13 0a 1a 00  	addi	s4, s4, 0x1
   1993c: 93 8a 8a 00  	addi	s5, s5, 0x8
   19940: 13 0b 4b 00  	addi	s6, s6, 0x4
   19944: e3 42 aa ec  	blt	s4, a0, 0x19808 <start_pass_huff+0x64>
   19948: 03 25 04 11  	lw	a0, 0x110(s0)
   1994c: 23 bc 09 00  	sd	zero, 0x18(s3)
   19950: 23 a0 09 02  	sw	zero, 0x20(s3)
   19954: 23 ac a9 02  	sw	a0, 0x38(s3)
   19958: 23 ae 09 02  	sw	zero, 0x3c(s3)
   1995c: 6f 70 11 7b  	jal	zero, 0x3190c <__riscv_restore_11>

0000000000019960 <encode_mcu_gather>:
   19960: ef 72 f1 78  	jal	t0, 0x318ee <__riscv_save_3>
   19964: 83 26 05 11  	lw	a3, 0x110(a0)
   19968: 03 36 85 1e  	ld	a2, 0x1e8(a0)
   1996c: 63 80 06 04  	beq	a3, zero, 0x199ac <encode_mcu_gather+0x4c>
   19970: 03 27 86 03  	lw	a4, 0x38(a2)
   19974: 63 18 07 02  	bne	a4, zero, 0x199a4 <encode_mcu_gather+0x44>
   19978: 83 27 c5 13  	lw	a5, 0x13c(a0)
   1997c: 13 87 06 00  	addi	a4, a3, 0x0
   19980: 63 52 f0 02  	bge	zero, a5, 0x199a4 <encode_mcu_gather+0x44>
   19984: 93 06 00 00  	addi	a3, zero, 0x0
   19988: 13 07 46 02  	addi	a4, a2, 0x24
   1998c: 23 20 07 00  	sw	zero, 0x0(a4)
   19990: 83 27 c5 13  	lw	a5, 0x13c(a0)
   19994: 93 86 16 00  	addi	a3, a3, 0x1
   19998: 13 07 47 00  	addi	a4, a4, 0x4
   1999c: e3 c8 f6 fe  	blt	a3, a5, 0x1998c <encode_mcu_gather+0x2c>
   199a0: 03 27 05 11  	lw	a4, 0x110(a0)
   199a4: 13 07 f7 ff  	addi	a4, a4, -0x1
   199a8: 23 2c e6 02  	sw	a4, 0x38(a2)
   199ac: 83 26 85 16  	lw	a3, 0x168(a0)
   199b0: 63 52 d0 1a  	bge	zero, a3, 0x19b54 <encode_mcu_gather+0x1f4>
   199b4: 93 06 00 00  	addi	a3, zero, 0x0
   199b8: 37 47 03 00  	lui	a4, 0x34
   199bc: 13 07 87 d7  	addi	a4, a4, -0x288
   199c0: 93 07 00 04  	addi	a5, zero, 0x40
   199c4: 13 08 00 01  	addi	a6, zero, 0x10
   199c8: 93 08 40 00  	addi	a7, zero, 0x4
   199cc: 93 92 26 00  	slli	t0, a3, 0x2
   199d0: b3 02 55 00  	add	t0, a0, t0
   199d4: 83 ae c2 16  	lw	t4, 0x16c(t0)
   199d8: 93 92 36 00  	slli	t0, a3, 0x3
   199dc: b3 82 55 00  	add	t0, a1, t0
   199e0: 03 b3 02 00  	ld	t1, 0x0(t0)
   199e4: 13 9e 2e 00  	slli	t3, t4, 0x2
   199e8: 33 0e c6 01  	add	t3, a2, t3
   199ec: 03 2f 4e 02  	lw	t5, 0x24(t3)
   199f0: 83 12 03 00  	lh	t0, 0x0(t1)
   199f4: 63 96 e2 01  	bne	t0, t5, 0x19a00 <encode_mcu_gather+0xa0>
   199f8: 93 03 00 00  	addi	t2, zero, 0x0
   199fc: 6f 00 40 02  	jal	zero, 0x19a20 <encode_mcu_gather+0xc0>
   19a00: 93 03 00 00  	addi	t2, zero, 0x0
   19a04: 33 8f e2 41  	sub	t5, t0, t5
   19a08: 9b 5f ff 41  	sraiw	t6, t5, 0x1f
   19a0c: 33 4f ff 01  	xor	t5, t5, t6
   19a10: 3b 0f ff 41  	subw	t5, t5, t6
   19a14: 1b 5f 1f 00  	srliw	t5, t5, 0x1
   19a18: 93 83 13 00  	addi	t2, t2, 0x1
   19a1c: e3 1c 0f fe  	bne	t5, zero, 0x19a14 <encode_mcu_gather+0xb4>
   19a20: 93 9e 3e 00  	slli	t4, t4, 0x3
   19a24: b3 0e d5 01  	add	t4, a0, t4
   19a28: 83 be 0e 14  	ld	t4, 0x140(t4)
   19a2c: 03 af 4e 01  	lw	t5, 0x14(t4)
   19a30: 13 1f 3f 00  	slli	t5, t5, 0x3
   19a34: 33 0f e6 01  	add	t5, a2, t5
   19a38: 03 3f 0f 08  	ld	t5, 0x80(t5)
   19a3c: 13 04 00 00  	addi	s0, zero, 0x0
   19a40: 83 ae 8e 01  	lw	t4, 0x18(t4)
   19a44: 93 93 33 00  	slli	t2, t2, 0x3
   19a48: 33 0f 7f 00  	add	t5, t5, t2
   19a4c: 83 3f 0f 00  	ld	t6, 0x0(t5)
   19a50: 93 9e 3e 00  	slli	t4, t4, 0x3
   19a54: b3 0e d6 01  	add	t4, a2, t4
   19a58: 83 b3 0e 0a  	ld	t2, 0xa0(t4)
   19a5c: 93 8f 1f 00  	addi	t6, t6, 0x1
   19a60: 23 30 ff 01  	sd	t6, 0x0(t5)
   19a64: 13 0e 4e 02  	addi	t3, t3, 0x24
   19a68: 93 0e 10 00  	addi	t4, zero, 0x1
   19a6c: 13 9f 2e 00  	slli	t5, t4, 0x2
   19a70: 33 0f e7 01  	add	t5, a4, t5
   19a74: 03 2f 0f 00  	lw	t5, 0x0(t5)
   19a78: 13 1f 1f 00  	slli	t5, t5, 0x1
   19a7c: 33 0f e3 01  	add	t5, t1, t5
   19a80: 83 5f 0f 00  	lhu	t6, 0x0(t5)
   19a84: 13 0f 04 00  	addi	t5, s0, 0x0
   19a88: 63 80 0f 0a  	beq	t6, zero, 0x19b28 <encode_mcu_gather+0x1c8>
   19a8c: 63 4e 0f 03  	blt	t5, a6, 0x19ac8 <encode_mcu_gather+0x168>
   19a90: 93 04 f0 01  	addi	s1, zero, 0x1f
   19a94: 13 04 0f 00  	addi	s0, t5, 0x0
   19a98: 63 44 9f 00  	blt	t5, s1, 0x19aa0 <encode_mcu_gather+0x140>
   19a9c: 13 04 f0 01  	addi	s0, zero, 0x1f
   19aa0: 83 b4 03 78  	ld	s1, 0x780(t2)
   19aa4: 3b 04 8f 40  	subw	s0, t5, s0
   19aa8: 13 04 f4 00  	addi	s0, s0, 0xf
   19aac: 1b 59 44 00  	srliw	s2, s0, 0x4
   19ab0: b3 04 99 00  	add	s1, s2, s1
   19ab4: 93 84 14 00  	addi	s1, s1, 0x1
   19ab8: 13 74 04 ff  	andi	s0, s0, -0x10
   19abc: 3b 0f 8f 40  	subw	t5, t5, s0
   19ac0: 13 0f 0f ff  	addi	t5, t5, -0x10
   19ac4: 23 b0 93 78  	sd	s1, 0x780(t2)
   19ac8: 13 94 0f 03  	slli	s0, t6, 0x30
   19acc: 13 54 f4 43  	srai	s0, s0, 0x3f
   19ad0: b3 cf 8f 00  	xor	t6, t6, s0
   19ad4: b3 8f 8f 40  	sub	t6, t6, s0
   19ad8: 93 9f 0f 03  	slli	t6, t6, 0x30
   19adc: 13 d4 0f 03  	srli	s0, t6, 0x30
   19ae0: 93 0f 10 00  	addi	t6, zero, 0x1
   19ae4: 63 fc 8f 00  	bgeu	t6, s0, 0x19afc <encode_mcu_gather+0x19c>
   19ae8: 93 0f 10 00  	addi	t6, zero, 0x1
   19aec: 93 04 04 00  	addi	s1, s0, 0x0
   19af0: 1b 54 14 00  	srliw	s0, s0, 0x1
   19af4: 93 8f 1f 00  	addi	t6, t6, 0x1
   19af8: e3 fa 14 ff  	bgeu	s1, a7, 0x19aec <encode_mcu_gather+0x18c>
   19afc: 13 1f 4f 00  	slli	t5, t5, 0x4
   19b00: 3b 8f ef 01  	addw	t5, t6, t5
   19b04: 13 1f 3f 00  	slli	t5, t5, 0x3
   19b08: 33 8f e3 01  	add	t5, t2, t5
   19b0c: 83 3f 0f 00  	ld	t6, 0x0(t5)
   19b10: 13 04 00 00  	addi	s0, zero, 0x0
   19b14: 93 8e 1e 00  	addi	t4, t4, 0x1
   19b18: 93 8f 1f 00  	addi	t6, t6, 0x1
   19b1c: 23 30 ff 01  	sd	t6, 0x0(t5)
   19b20: e3 96 fe f4  	bne	t4, a5, 0x19a6c <encode_mcu_gather+0x10c>
   19b24: 6f 00 00 02  	jal	zero, 0x19b44 <encode_mcu_gather+0x1e4>
   19b28: 93 8e 1e 00  	addi	t4, t4, 0x1
   19b2c: 1b 04 1f 00  	addiw	s0, t5, 0x1
   19b30: e3 9e fe f2  	bne	t4, a5, 0x19a6c <encode_mcu_gather+0x10c>
   19b34: 63 48 0f 00  	blt	t5, zero, 0x19b44 <encode_mcu_gather+0x1e4>
   19b38: 03 b3 03 00  	ld	t1, 0x0(t2)
   19b3c: 13 03 13 00  	addi	t1, t1, 0x1
   19b40: 23 b0 63 00  	sd	t1, 0x0(t2)
   19b44: 23 20 5e 00  	sw	t0, 0x0(t3)
   19b48: 83 22 85 16  	lw	t0, 0x168(a0)
   19b4c: 93 86 16 00  	addi	a3, a3, 0x1
   19b50: e3 ce 56 e6  	blt	a3, t0, 0x199cc <encode_mcu_gather+0x6c>
   19b54: 13 05 10 00  	addi	a0, zero, 0x1
   19b58: 6f 70 d1 5c  	jal	zero, 0x31924 <__riscv_restore_3>

0000000000019b5c <finish_pass_gather>:
   19b5c: ef 72 b1 56  	jal	t0, 0x318c6 <__riscv_save_11>
   19b60: 13 01 01 fe  	addi	sp, sp, -0x20
   19b64: 13 04 05 00  	addi	s0, a0, 0x0
   19b68: 83 34 85 1e  	ld	s1, 0x1e8(a0)
   19b6c: 03 25 c5 13  	lw	a0, 0x13c(a0)
   19b70: 23 38 01 00  	sd	zero, 0x10(sp)
   19b74: 23 3c 01 00  	sd	zero, 0x18(sp)
   19b78: 23 30 01 00  	sd	zero, 0x0(sp)
   19b7c: 23 34 01 00  	sd	zero, 0x8(sp)
   19b80: 63 52 a0 0c  	bge	zero, a0, 0x19c44 <finish_pass_gather+0xe8>
   19b84: 13 09 00 00  	addi	s2, zero, 0x0
   19b88: 93 09 04 14  	addi	s3, s0, 0x140
   19b8c: 13 0a 01 01  	addi	s4, sp, 0x10
   19b90: 93 0a 10 00  	addi	s5, zero, 0x1
   19b94: 13 0b 01 00  	addi	s6, sp, 0x0
   19b98: 03 b5 09 00  	ld	a0, 0x0(s3)
   19b9c: 83 2c 45 01  	lw	s9, 0x14(a0)
   19ba0: 13 9c 2c 00  	slli	s8, s9, 0x2
   19ba4: 33 0c 8a 01  	add	s8, s4, s8
   19ba8: 83 25 0c 00  	lw	a1, 0x0(s8)
   19bac: 83 2b 85 01  	lw	s7, 0x18(a0)
   19bb0: 63 9e 05 02  	bne	a1, zero, 0x19bec <finish_pass_gather+0x90>
   19bb4: 93 9c 3c 00  	slli	s9, s9, 0x3
   19bb8: 33 05 94 01  	add	a0, s0, s9
   19bbc: 83 35 85 07  	ld	a1, 0x78(a0)
   19bc0: 63 9c 05 00  	bne	a1, zero, 0x19bd8 <finish_pass_gather+0x7c>
   19bc4: 13 0d 85 07  	addi	s10, a0, 0x78
   19bc8: 13 05 04 00  	addi	a0, s0, 0x0
   19bcc: ef 20 10 30  	jal	ra, 0x1c6cc <jpeg_alloc_huff_table>
   19bd0: 93 05 05 00  	addi	a1, a0, 0x0
   19bd4: 23 30 ad 00  	sd	a0, 0x0(s10)
   19bd8: b3 8c 94 01  	add	s9, s1, s9
   19bdc: 03 b6 0c 08  	ld	a2, 0x80(s9)
   19be0: 13 05 04 00  	addi	a0, s0, 0x0
   19be4: ef f0 9f 82  	jal	ra, 0x1940c <jpeg_gen_optimal_table>
   19be8: 23 20 5c 01  	sw	s5, 0x0(s8)
   19bec: 13 9c 2b 00  	slli	s8, s7, 0x2
   19bf0: 33 0c 8b 01  	add	s8, s6, s8
   19bf4: 03 25 0c 00  	lw	a0, 0x0(s8)
   19bf8: 63 1e 05 02  	bne	a0, zero, 0x19c34 <finish_pass_gather+0xd8>
   19bfc: 93 9b 3b 00  	slli	s7, s7, 0x3
   19c00: 33 05 74 01  	add	a0, s0, s7
   19c04: 83 35 85 09  	ld	a1, 0x98(a0)
   19c08: 63 9c 05 00  	bne	a1, zero, 0x19c20 <finish_pass_gather+0xc4>
   19c0c: 93 0c 85 09  	addi	s9, a0, 0x98
   19c10: 13 05 04 00  	addi	a0, s0, 0x0
   19c14: ef 20 90 2b  	jal	ra, 0x1c6cc <jpeg_alloc_huff_table>
   19c18: 93 05 05 00  	addi	a1, a0, 0x0
   19c1c: 23 b0 ac 00  	sd	a0, 0x0(s9)
   19c20: b3 8b 74 01  	add	s7, s1, s7
   19c24: 03 b6 0b 0a  	ld	a2, 0xa0(s7)
   19c28: 13 05 04 00  	addi	a0, s0, 0x0
   19c2c: ef f0 0f fe  	jal	ra, 0x1940c <jpeg_gen_optimal_table>
   19c30: 23 20 5c 01  	sw	s5, 0x0(s8)
   19c34: 03 25 c4 13  	lw	a0, 0x13c(s0)
   19c38: 13 09 19 00  	addi	s2, s2, 0x1
   19c3c: 93 89 89 00  	addi	s3, s3, 0x8
   19c40: e3 4c a9 f4  	blt	s2, a0, 0x19b98 <finish_pass_gather+0x3c>
   19c44: 13 01 01 02  	addi	sp, sp, 0x20
   19c48: 6f 70 51 4c  	jal	zero, 0x3190c <__riscv_restore_11>

0000000000019c4c <encode_mcu_huff>:
   19c4c: ef 72 31 47  	jal	t0, 0x318be <__riscv_save_12>
   19c50: 13 01 01 f8  	addi	sp, sp, -0x80
   19c54: 13 04 05 00  	addi	s0, a0, 0x0
   19c58: 83 39 85 1e  	ld	s3, 0x1e8(a0)
   19c5c: 03 35 05 02  	ld	a0, 0x20(a0)
   19c60: 03 b6 09 03  	ld	a2, 0x30(s3)
   19c64: 83 36 05 00  	ld	a3, 0x0(a0)
   19c68: 03 3b 85 00  	ld	s6, 0x8(a0)
   19c6c: 23 38 c1 06  	sd	a2, 0x70(sp)
   19c70: 03 b5 89 02  	ld	a0, 0x28(s3)
   19c74: 23 34 a1 06  	sd	a0, 0x68(sp)
   19c78: 03 b5 09 02  	ld	a0, 0x20(s3)
   19c7c: 23 30 a1 06  	sd	a0, 0x60(sp)
   19c80: 03 b5 89 01  	ld	a0, 0x18(s3)
   19c84: 13 8a 05 00  	addi	s4, a1, 0x0
   19c88: 83 25 04 11  	lw	a1, 0x110(s0)
   19c8c: 23 34 d1 04  	sd	a3, 0x48(sp)
   19c90: 23 3c a1 04  	sd	a0, 0x58(sp)
   19c94: 23 38 61 05  	sd	s6, 0x50(sp)
   19c98: 23 3c 81 06  	sd	s0, 0x78(sp)
   19c9c: 63 86 05 00  	beq	a1, zero, 0x19ca8 <encode_mcu_huff+0x5c>
   19ca0: 03 a5 89 03  	lw	a0, 0x38(s3)
   19ca4: 63 0e 05 7e  	beq	a0, zero, 0x1a4a0 <encode_mcu_huff+0x854>
   19ca8: 03 25 84 16  	lw	a0, 0x168(s0)
   19cac: 63 54 a0 78  	bge	zero, a0, 0x1a434 <encode_mcu_huff+0x7e8>
   19cb0: 13 06 00 00  	addi	a2, zero, 0x0
   19cb4: 93 06 81 04  	addi	a3, sp, 0x48
   19cb8: b7 0c ff 00  	lui	s9, 0xff0
   19cbc: 13 0d f0 00  	addi	s10, zero, 0xf
   19cc0: 37 45 03 00  	lui	a0, 0x34
   19cc4: 13 05 85 d7  	addi	a0, a0, -0x288
   19cc8: 23 38 a1 02  	sd	a0, 0x30(sp)
   19ccc: 23 3c 31 01  	sd	s3, 0x18(sp)
   19cd0: 23 38 41 01  	sd	s4, 0x10(sp)
   19cd4: 13 15 26 00  	slli	a0, a2, 0x2
   19cd8: 33 05 a4 00  	add	a0, s0, a0
   19cdc: 03 25 c5 16  	lw	a0, 0x16c(a0)
   19ce0: 23 34 c1 02  	sd	a2, 0x28(sp)
   19ce4: 93 15 36 00  	slli	a1, a2, 0x3
   19ce8: b3 05 ba 00  	add	a1, s4, a1
   19cec: 23 30 b1 02  	sd	a1, 0x20(sp)
   19cf0: 83 bd 05 00  	ld	s11, 0x0(a1)
   19cf4: 93 15 25 00  	slli	a1, a0, 0x2
   19cf8: b3 85 b6 00  	add	a1, a3, a1
   19cfc: 23 3c b1 02  	sd	a1, 0x38(sp)
   19d00: 83 a5 c5 01  	lw	a1, 0x1c(a1)
   19d04: 03 96 0d 00  	lh	a2, 0x0(s11)
   19d08: 3b 09 b6 40  	subw	s2, a2, a1
   19d0c: 9b 5b f9 41  	sraiw	s7, s2, 0x1f
   19d10: 93 04 00 00  	addi	s1, zero, 0x0
   19d14: 63 0c b6 00  	beq	a2, a1, 0x19d2c <encode_mcu_huff+0xe0>
   19d18: b3 45 79 01  	xor	a1, s2, s7
   19d1c: bb 85 75 41  	subw	a1, a1, s7
   19d20: 9b d5 15 00  	srliw	a1, a1, 0x1
   19d24: 9b 84 14 00  	addiw	s1, s1, 0x1
   19d28: e3 9c 05 fe  	bne	a1, zero, 0x19d20 <encode_mcu_huff+0xd4>
   19d2c: 13 15 35 00  	slli	a0, a0, 0x3
   19d30: 33 05 a4 00  	add	a0, s0, a0
   19d34: 03 35 05 14  	ld	a0, 0x140(a0)
   19d38: 83 25 45 01  	lw	a1, 0x14(a0)
   19d3c: 03 25 85 01  	lw	a0, 0x18(a0)
   19d40: 93 95 35 00  	slli	a1, a1, 0x3
   19d44: b3 85 b9 00  	add	a1, s3, a1
   19d48: 83 b5 05 04  	ld	a1, 0x40(a1)
   19d4c: 13 15 35 00  	slli	a0, a0, 0x3
   19d50: 33 85 a9 00  	add	a0, s3, a0
   19d54: 03 35 05 06  	ld	a0, 0x60(a0)
   19d58: 23 30 a1 04  	sd	a0, 0x40(sp)
   19d5c: 13 95 24 00  	slli	a0, s1, 0x2
   19d60: 33 85 a5 00  	add	a0, a1, a0
   19d64: 03 6c 05 00  	lwu	s8, 0x0(a0)
   19d68: b3 85 95 00  	add	a1, a1, s1
   19d6c: 03 ca 05 40  	lbu	s4, 0x400(a1)
   19d70: 83 2a 01 06  	lw	s5, 0x60(sp)
   19d74: 63 1e 0a 00  	bne	s4, zero, 0x19d90 <encode_mcu_huff+0x144>
   19d78: 03 35 81 07  	ld	a0, 0x78(sp)
   19d7c: 83 35 05 00  	ld	a1, 0x0(a0)
   19d80: 03 b6 05 00  	ld	a2, 0x0(a1)
   19d84: 93 06 70 02  	addi	a3, zero, 0x27
   19d88: 23 a4 d5 02  	sw	a3, 0x28(a1)
   19d8c: e7 00 06 00  	jalr	ra, 0x0(a2)
   19d90: 13 05 f0 ff  	addi	a0, zero, -0x1
   19d94: 33 15 45 01  	sll	a0, a0, s4
   19d98: 13 45 f5 ff  	xori	a0, a0, -0x1
   19d9c: 33 75 85 01  	and	a0, a0, s8
   19da0: 83 35 81 05  	ld	a1, 0x58(sp)
   19da4: 3b 8a 4a 01  	addw	s4, s5, s4
   19da8: 13 06 80 01  	addi	a2, zero, 0x18
   19dac: 3b 06 46 41  	subw	a2, a2, s4
   19db0: 33 15 c5 00  	sll	a0, a0, a2
   19db4: 33 ec a5 00  	or	s8, a1, a0
   19db8: 13 05 80 00  	addi	a0, zero, 0x8
   19dbc: 63 44 aa 0a  	blt	s4, a0, 0x19e64 <encode_mcu_huff+0x218>
   19dc0: 03 35 81 04  	ld	a0, 0x48(sp)
   19dc4: 93 55 0c 01  	srli	a1, s8, 0x10
   19dc8: 13 06 15 00  	addi	a2, a0, 0x1
   19dcc: 23 34 c1 04  	sd	a2, 0x48(sp)
   19dd0: 23 00 b5 00  	sb	a1, 0x0(a0)
   19dd4: 03 3b 01 05  	ld	s6, 0x50(sp)
   19dd8: 93 0a 0a 00  	addi	s5, s4, 0x0
   19ddc: 13 0b fb ff  	addi	s6, s6, -0x1
   19de0: 23 38 61 05  	sd	s6, 0x50(sp)
   19de4: 63 14 0b 02  	bne	s6, zero, 0x19e0c <encode_mcu_huff+0x1c0>
   19de8: 03 35 81 07  	ld	a0, 0x78(sp)
   19dec: 83 39 05 02  	ld	s3, 0x20(a0)
   19df0: 83 b5 89 01  	ld	a1, 0x18(s3)
   19df4: e7 80 05 00  	jalr	ra, 0x0(a1)
   19df8: 63 0a 05 76  	beq	a0, zero, 0x1a56c <encode_mcu_huff+0x920>
   19dfc: 03 b5 09 00  	ld	a0, 0x0(s3)
   19e00: 03 bb 89 00  	ld	s6, 0x8(s3)
   19e04: 23 34 a1 04  	sd	a0, 0x48(sp)
   19e08: 23 38 61 05  	sd	s6, 0x50(sp)
   19e0c: 33 75 9c 01  	and	a0, s8, s9
   19e10: 63 14 95 05  	bne	a0, s9, 0x19e58 <encode_mcu_huff+0x20c>
   19e14: 03 35 81 04  	ld	a0, 0x48(sp)
   19e18: 93 05 15 00  	addi	a1, a0, 0x1
   19e1c: 23 34 b1 04  	sd	a1, 0x48(sp)
   19e20: 23 00 05 00  	sb	zero, 0x0(a0)
   19e24: 03 3b 01 05  	ld	s6, 0x50(sp)
   19e28: 13 0b fb ff  	addi	s6, s6, -0x1
   19e2c: 23 38 61 05  	sd	s6, 0x50(sp)
   19e30: 63 14 0b 02  	bne	s6, zero, 0x19e58 <encode_mcu_huff+0x20c>
   19e34: 03 35 81 07  	ld	a0, 0x78(sp)
   19e38: 83 39 05 02  	ld	s3, 0x20(a0)
   19e3c: 83 b5 89 01  	ld	a1, 0x18(s3)
   19e40: e7 80 05 00  	jalr	ra, 0x0(a1)
   19e44: 63 04 05 72  	beq	a0, zero, 0x1a56c <encode_mcu_huff+0x920>
   19e48: 03 b5 09 00  	ld	a0, 0x0(s3)
   19e4c: 03 bb 89 00  	ld	s6, 0x8(s3)
   19e50: 23 34 a1 04  	sd	a0, 0x48(sp)
   19e54: 23 38 61 05  	sd	s6, 0x50(sp)
   19e58: 13 1c 8c 00  	slli	s8, s8, 0x8
   19e5c: 1b 8a 8a ff  	addiw	s4, s5, -0x8
   19e60: e3 40 5d f7  	blt	s10, s5, 0x19dc0 <encode_mcu_huff+0x174>
   19e64: 23 3c 81 05  	sd	s8, 0x58(sp)
   19e68: 23 20 41 07  	sw	s4, 0x60(sp)
   19e6c: 63 88 04 0e  	beq	s1, zero, 0x19f5c <encode_mcu_huff+0x310>
   19e70: 33 89 2b 01  	add	s2, s7, s2
   19e74: 13 05 f0 ff  	addi	a0, zero, -0x1
   19e78: 33 15 95 00  	sll	a0, a0, s1
   19e7c: 13 45 f5 ff  	xori	a0, a0, -0x1
   19e80: 33 75 a9 00  	and	a0, s2, a0
   19e84: 13 15 05 02  	slli	a0, a0, 0x20
   19e88: 13 55 05 02  	srli	a0, a0, 0x20
   19e8c: 3b 0a 9a 00  	addw	s4, s4, s1
   19e90: 93 05 80 01  	addi	a1, zero, 0x18
   19e94: bb 85 45 41  	subw	a1, a1, s4
   19e98: 33 15 b5 00  	sll	a0, a0, a1
   19e9c: 33 6c 85 01  	or	s8, a0, s8
   19ea0: 93 0b 10 04  	addi	s7, zero, 0x41
   19ea4: 13 05 80 00  	addi	a0, zero, 0x8
   19ea8: 63 44 aa 0a  	blt	s4, a0, 0x19f50 <encode_mcu_huff+0x304>
   19eac: 03 35 81 04  	ld	a0, 0x48(sp)
   19eb0: 93 55 0c 01  	srli	a1, s8, 0x10
   19eb4: 13 06 15 00  	addi	a2, a0, 0x1
   19eb8: 23 34 c1 04  	sd	a2, 0x48(sp)
   19ebc: 23 00 b5 00  	sb	a1, 0x0(a0)
   19ec0: 03 3b 01 05  	ld	s6, 0x50(sp)
   19ec4: 93 04 0a 00  	addi	s1, s4, 0x0
   19ec8: 13 0b fb ff  	addi	s6, s6, -0x1
   19ecc: 23 38 61 05  	sd	s6, 0x50(sp)
   19ed0: 63 14 0b 02  	bne	s6, zero, 0x19ef8 <encode_mcu_huff+0x2ac>
   19ed4: 03 35 81 07  	ld	a0, 0x78(sp)
   19ed8: 03 39 05 02  	ld	s2, 0x20(a0)
   19edc: 83 35 89 01  	ld	a1, 0x18(s2)
   19ee0: e7 80 05 00  	jalr	ra, 0x0(a1)
   19ee4: 63 04 05 68  	beq	a0, zero, 0x1a56c <encode_mcu_huff+0x920>
   19ee8: 03 35 09 00  	ld	a0, 0x0(s2)
   19eec: 03 3b 89 00  	ld	s6, 0x8(s2)
   19ef0: 23 34 a1 04  	sd	a0, 0x48(sp)
   19ef4: 23 38 61 05  	sd	s6, 0x50(sp)
   19ef8: 33 75 9c 01  	and	a0, s8, s9
   19efc: 63 14 95 05  	bne	a0, s9, 0x19f44 <encode_mcu_huff+0x2f8>
   19f00: 03 35 81 04  	ld	a0, 0x48(sp)
   19f04: 93 05 15 00  	addi	a1, a0, 0x1
   19f08: 23 34 b1 04  	sd	a1, 0x48(sp)
   19f0c: 23 00 05 00  	sb	zero, 0x0(a0)
   19f10: 03 3b 01 05  	ld	s6, 0x50(sp)
   19f14: 13 0b fb ff  	addi	s6, s6, -0x1
   19f18: 23 38 61 05  	sd	s6, 0x50(sp)
   19f1c: 63 14 0b 02  	bne	s6, zero, 0x19f44 <encode_mcu_huff+0x2f8>
   19f20: 03 35 81 07  	ld	a0, 0x78(sp)
   19f24: 03 39 05 02  	ld	s2, 0x20(a0)
   19f28: 83 35 89 01  	ld	a1, 0x18(s2)
   19f2c: e7 80 05 00  	jalr	ra, 0x0(a1)
   19f30: 63 0e 05 62  	beq	a0, zero, 0x1a56c <encode_mcu_huff+0x920>
   19f34: 03 35 09 00  	ld	a0, 0x0(s2)
   19f38: 03 3b 89 00  	ld	s6, 0x8(s2)
   19f3c: 23 34 a1 04  	sd	a0, 0x48(sp)
   19f40: 23 38 61 05  	sd	s6, 0x50(sp)
   19f44: 13 1c 8c 00  	slli	s8, s8, 0x8
   19f48: 1b 8a 84 ff  	addiw	s4, s1, -0x8
   19f4c: e3 40 9d f6  	blt	s10, s1, 0x19eac <encode_mcu_huff+0x260>
   19f50: 23 3c 81 05  	sd	s8, 0x58(sp)
   19f54: 23 20 41 07  	sw	s4, 0x60(sp)
   19f58: 6f 00 80 00  	jal	zero, 0x19f60 <encode_mcu_huff+0x314>
   19f5c: 93 0b 10 04  	addi	s7, zero, 0x41
   19f60: 03 35 81 03  	ld	a0, 0x38(sp)
   19f64: 13 05 c5 01  	addi	a0, a0, 0x1c
   19f68: 23 3c a1 02  	sd	a0, 0x38(sp)
   19f6c: 93 0a 10 00  	addi	s5, zero, 0x1
   19f70: 13 05 00 00  	addi	a0, zero, 0x0
   19f74: 93 95 2a 00  	slli	a1, s5, 0x2
   19f78: 93 8a 1a 00  	addi	s5, s5, 0x1
   19f7c: 03 36 01 03  	ld	a2, 0x30(sp)
   19f80: b3 05 b6 00  	add	a1, a2, a1
   19f84: 03 a6 05 00  	lw	a2, 0x0(a1)
   19f88: 13 16 16 00  	slli	a2, a2, 0x1
   19f8c: 33 86 cd 00  	add	a2, s11, a2
   19f90: 83 54 06 00  	lhu	s1, 0x0(a2)
   19f94: 63 9c 04 00  	bne	s1, zero, 0x19fac <encode_mcu_huff+0x360>
   19f98: 1b 05 15 00  	addiw	a0, a0, 0x1
   19f9c: 93 8a 1a 00  	addi	s5, s5, 0x1
   19fa0: 93 85 45 00  	addi	a1, a1, 0x4
   19fa4: e3 90 7a ff  	bne	s5, s7, 0x19f84 <encode_mcu_huff+0x338>
   19fa8: 6f 00 c0 35  	jal	zero, 0x1a304 <encode_mcu_huff+0x6b8>
   19fac: 93 05 00 01  	addi	a1, zero, 0x10
   19fb0: 63 6a b5 10  	bltu	a0, a1, 0x1a0c4 <encode_mcu_huff+0x478>
   19fb4: 83 35 01 04  	ld	a1, 0x40(sp)
   19fb8: 83 cb 05 4f  	lbu	s7, 0x4f0(a1)
   19fbc: 83 e9 05 3c  	lwu	s3, 0x3c0(a1)
   19fc0: 13 09 05 00  	addi	s2, a0, 0x0
   19fc4: 63 9e 0b 00  	bne	s7, zero, 0x19fe0 <encode_mcu_huff+0x394>
   19fc8: 03 35 81 07  	ld	a0, 0x78(sp)
   19fcc: 83 35 05 00  	ld	a1, 0x0(a0)
   19fd0: 03 b6 05 00  	ld	a2, 0x0(a1)
   19fd4: 93 06 70 02  	addi	a3, zero, 0x27
   19fd8: 23 a4 d5 02  	sw	a3, 0x28(a1)
   19fdc: e7 00 06 00  	jalr	ra, 0x0(a2)
   19fe0: 13 05 f0 ff  	addi	a0, zero, -0x1
   19fe4: 33 15 75 01  	sll	a0, a0, s7
   19fe8: 13 45 f5 ff  	xori	a0, a0, -0x1
   19fec: 33 75 35 01  	and	a0, a0, s3
   19ff0: 3b 0a 7a 01  	addw	s4, s4, s7
   19ff4: 93 05 80 01  	addi	a1, zero, 0x18
   19ff8: bb 85 45 41  	subw	a1, a1, s4
   19ffc: 33 15 b5 00  	sll	a0, a0, a1
   1a000: 33 6c ac 00  	or	s8, s8, a0
   1a004: 13 05 80 00  	addi	a0, zero, 0x8
   1a008: 63 44 aa 0a  	blt	s4, a0, 0x1a0b0 <encode_mcu_huff+0x464>
   1a00c: 03 35 81 04  	ld	a0, 0x48(sp)
   1a010: 93 55 0c 01  	srli	a1, s8, 0x10
   1a014: 13 06 15 00  	addi	a2, a0, 0x1
   1a018: 23 34 c1 04  	sd	a2, 0x48(sp)
   1a01c: 23 00 b5 00  	sb	a1, 0x0(a0)
   1a020: 03 3b 01 05  	ld	s6, 0x50(sp)
   1a024: 93 0b 0a 00  	addi	s7, s4, 0x0
   1a028: 13 0b fb ff  	addi	s6, s6, -0x1
   1a02c: 23 38 61 05  	sd	s6, 0x50(sp)
   1a030: 63 14 0b 02  	bne	s6, zero, 0x1a058 <encode_mcu_huff+0x40c>
   1a034: 03 35 81 07  	ld	a0, 0x78(sp)
   1a038: 83 39 05 02  	ld	s3, 0x20(a0)
   1a03c: 83 b5 89 01  	ld	a1, 0x18(s3)
   1a040: e7 80 05 00  	jalr	ra, 0x0(a1)
   1a044: 63 04 05 52  	beq	a0, zero, 0x1a56c <encode_mcu_huff+0x920>
   1a048: 03 b5 09 00  	ld	a0, 0x0(s3)
   1a04c: 03 bb 89 00  	ld	s6, 0x8(s3)
   1a050: 23 34 a1 04  	sd	a0, 0x48(sp)
   1a054: 23 38 61 05  	sd	s6, 0x50(sp)
   1a058: 33 75 9c 01  	and	a0, s8, s9
   1a05c: 63 14 95 05  	bne	a0, s9, 0x1a0a4 <encode_mcu_huff+0x458>
   1a060: 03 35 81 04  	ld	a0, 0x48(sp)
   1a064: 93 05 15 00  	addi	a1, a0, 0x1
   1a068: 23 34 b1 04  	sd	a1, 0x48(sp)
   1a06c: 23 00 05 00  	sb	zero, 0x0(a0)
   1a070: 03 3b 01 05  	ld	s6, 0x50(sp)
   1a074: 13 0b fb ff  	addi	s6, s6, -0x1
   1a078: 23 38 61 05  	sd	s6, 0x50(sp)
   1a07c: 63 14 0b 02  	bne	s6, zero, 0x1a0a4 <encode_mcu_huff+0x458>
   1a080: 03 35 81 07  	ld	a0, 0x78(sp)
   1a084: 83 39 05 02  	ld	s3, 0x20(a0)
   1a088: 83 b5 89 01  	ld	a1, 0x18(s3)
   1a08c: e7 80 05 00  	jalr	ra, 0x0(a1)
   1a090: 63 0e 05 4c  	beq	a0, zero, 0x1a56c <encode_mcu_huff+0x920>
   1a094: 03 b5 09 00  	ld	a0, 0x0(s3)
   1a098: 03 bb 89 00  	ld	s6, 0x8(s3)
   1a09c: 23 34 a1 04  	sd	a0, 0x48(sp)
   1a0a0: 23 38 61 05  	sd	s6, 0x50(sp)
   1a0a4: 13 1c 8c 00  	slli	s8, s8, 0x8
   1a0a8: 1b 8a 8b ff  	addiw	s4, s7, -0x8
   1a0ac: e3 60 7d f7  	bltu	s10, s7, 0x1a00c <encode_mcu_huff+0x3c0>
   1a0b0: 23 3c 81 05  	sd	s8, 0x58(sp)
   1a0b4: 23 20 41 07  	sw	s4, 0x60(sp)
   1a0b8: 1b 05 09 ff  	addiw	a0, s2, -0x10
   1a0bc: 93 05 f0 01  	addi	a1, zero, 0x1f
   1a0c0: e3 ca 25 ef  	blt	a1, s2, 0x19fb4 <encode_mcu_huff+0x368>
   1a0c4: 93 94 04 03  	slli	s1, s1, 0x30
   1a0c8: 23 34 91 00  	sd	s1, 0x8(sp)
   1a0cc: 13 d9 04 43  	srai	s2, s1, 0x30
   1a0d0: 9b 55 f9 41  	sraiw	a1, s2, 0x1f
   1a0d4: 33 46 b9 00  	xor	a2, s2, a1
   1a0d8: bb 05 b6 40  	subw	a1, a2, a1
   1a0dc: 93 04 10 00  	addi	s1, zero, 0x1
   1a0e0: 93 06 30 00  	addi	a3, zero, 0x3
   1a0e4: 63 fc b4 00  	bgeu	s1, a1, 0x1a0fc <encode_mcu_huff+0x4b0>
   1a0e8: 93 04 10 00  	addi	s1, zero, 0x1
   1a0ec: 13 86 05 00  	addi	a2, a1, 0x0
   1a0f0: 9b d5 15 00  	srliw	a1, a1, 0x1
   1a0f4: 93 84 14 00  	addi	s1, s1, 0x1
   1a0f8: e3 ea c6 fe  	bltu	a3, a2, 0x1a0ec <encode_mcu_huff+0x4a0>
   1a0fc: 13 15 45 00  	slli	a0, a0, 0x4
   1a100: 3b 85 a4 00  	addw	a0, s1, a0
   1a104: 93 15 25 00  	slli	a1, a0, 0x2
   1a108: 03 36 01 04  	ld	a2, 0x40(sp)
   1a10c: b3 05 b6 00  	add	a1, a2, a1
   1a110: 33 05 a6 00  	add	a0, a2, a0
   1a114: 83 4b 05 40  	lbu	s7, 0x400(a0)
   1a118: 83 e9 05 00  	lwu	s3, 0x0(a1)
   1a11c: 63 9e 0b 00  	bne	s7, zero, 0x1a138 <encode_mcu_huff+0x4ec>
   1a120: 03 35 81 07  	ld	a0, 0x78(sp)
   1a124: 83 35 05 00  	ld	a1, 0x0(a0)
   1a128: 03 b6 05 00  	ld	a2, 0x0(a1)
   1a12c: 93 06 70 02  	addi	a3, zero, 0x27
   1a130: 23 a4 d5 02  	sw	a3, 0x28(a1)
   1a134: e7 00 06 00  	jalr	ra, 0x0(a2)
   1a138: 13 05 f0 ff  	addi	a0, zero, -0x1
   1a13c: 33 15 75 01  	sll	a0, a0, s7
   1a140: 13 45 f5 ff  	xori	a0, a0, -0x1
   1a144: b3 75 35 01  	and	a1, a0, s3
   1a148: 3b 05 7a 01  	addw	a0, s4, s7
   1a14c: 13 06 80 01  	addi	a2, zero, 0x18
   1a150: 3b 06 a6 40  	subw	a2, a2, a0
   1a154: b3 95 c5 00  	sll	a1, a1, a2
   1a158: 33 6c bc 00  	or	s8, s8, a1
   1a15c: 93 0b 10 04  	addi	s7, zero, 0x41
   1a160: 93 05 80 00  	addi	a1, zero, 0x8
   1a164: 63 44 b5 0a  	blt	a0, a1, 0x1a20c <encode_mcu_huff+0x5c0>
   1a168: 83 35 81 04  	ld	a1, 0x48(sp)
   1a16c: 13 56 0c 01  	srli	a2, s8, 0x10
   1a170: 93 86 15 00  	addi	a3, a1, 0x1
   1a174: 23 34 d1 04  	sd	a3, 0x48(sp)
   1a178: 23 80 c5 00  	sb	a2, 0x0(a1)
   1a17c: 03 3b 01 05  	ld	s6, 0x50(sp)
   1a180: 13 0a 05 00  	addi	s4, a0, 0x0
   1a184: 13 0b fb ff  	addi	s6, s6, -0x1
   1a188: 23 38 61 05  	sd	s6, 0x50(sp)
   1a18c: 63 14 0b 02  	bne	s6, zero, 0x1a1b4 <encode_mcu_huff+0x568>
   1a190: 03 35 81 07  	ld	a0, 0x78(sp)
   1a194: 83 39 05 02  	ld	s3, 0x20(a0)
   1a198: 83 b5 89 01  	ld	a1, 0x18(s3)
   1a19c: e7 80 05 00  	jalr	ra, 0x0(a1)
   1a1a0: 63 06 05 3c  	beq	a0, zero, 0x1a56c <encode_mcu_huff+0x920>
   1a1a4: 03 b5 09 00  	ld	a0, 0x0(s3)
   1a1a8: 03 bb 89 00  	ld	s6, 0x8(s3)
   1a1ac: 23 34 a1 04  	sd	a0, 0x48(sp)
   1a1b0: 23 38 61 05  	sd	s6, 0x50(sp)
   1a1b4: 33 75 9c 01  	and	a0, s8, s9
   1a1b8: 63 14 95 05  	bne	a0, s9, 0x1a200 <encode_mcu_huff+0x5b4>
   1a1bc: 03 35 81 04  	ld	a0, 0x48(sp)
   1a1c0: 93 05 15 00  	addi	a1, a0, 0x1
   1a1c4: 23 34 b1 04  	sd	a1, 0x48(sp)
   1a1c8: 23 00 05 00  	sb	zero, 0x0(a0)
   1a1cc: 03 3b 01 05  	ld	s6, 0x50(sp)
   1a1d0: 13 0b fb ff  	addi	s6, s6, -0x1
   1a1d4: 23 38 61 05  	sd	s6, 0x50(sp)
   1a1d8: 63 14 0b 02  	bne	s6, zero, 0x1a200 <encode_mcu_huff+0x5b4>
   1a1dc: 03 35 81 07  	ld	a0, 0x78(sp)
   1a1e0: 83 39 05 02  	ld	s3, 0x20(a0)
   1a1e4: 83 b5 89 01  	ld	a1, 0x18(s3)
   1a1e8: e7 80 05 00  	jalr	ra, 0x0(a1)
   1a1ec: 63 00 05 38  	beq	a0, zero, 0x1a56c <encode_mcu_huff+0x920>
   1a1f0: 03 b5 09 00  	ld	a0, 0x0(s3)
   1a1f4: 03 bb 89 00  	ld	s6, 0x8(s3)
   1a1f8: 23 34 a1 04  	sd	a0, 0x48(sp)
   1a1fc: 23 38 61 05  	sd	s6, 0x50(sp)
   1a200: 13 1c 8c 00  	slli	s8, s8, 0x8
   1a204: 1b 05 8a ff  	addiw	a0, s4, -0x8
   1a208: e3 40 4d f7  	blt	s10, s4, 0x1a168 <encode_mcu_huff+0x51c>
   1a20c: 83 35 81 00  	ld	a1, 0x8(sp)
   1a210: 93 d5 f5 43  	srai	a1, a1, 0x3f
   1a214: b3 85 25 01  	add	a1, a1, s2
   1a218: 13 06 f0 ff  	addi	a2, zero, -0x1
   1a21c: 33 16 96 00  	sll	a2, a2, s1
   1a220: 13 46 f6 ff  	xori	a2, a2, -0x1
   1a224: b3 f5 c5 00  	and	a1, a1, a2
   1a228: 93 95 05 02  	slli	a1, a1, 0x20
   1a22c: 93 d5 05 02  	srli	a1, a1, 0x20
   1a230: 3b 0a 95 00  	addw	s4, a0, s1
   1a234: 13 05 80 01  	addi	a0, zero, 0x18
   1a238: 3b 05 45 41  	subw	a0, a0, s4
   1a23c: 33 95 a5 00  	sll	a0, a1, a0
   1a240: 33 6c 85 01  	or	s8, a0, s8
   1a244: 13 05 80 00  	addi	a0, zero, 0x8
   1a248: 63 44 aa 0a  	blt	s4, a0, 0x1a2f0 <encode_mcu_huff+0x6a4>
   1a24c: 03 35 81 04  	ld	a0, 0x48(sp)
   1a250: 93 55 0c 01  	srli	a1, s8, 0x10
   1a254: 13 06 15 00  	addi	a2, a0, 0x1
   1a258: 23 34 c1 04  	sd	a2, 0x48(sp)
   1a25c: 23 00 b5 00  	sb	a1, 0x0(a0)
   1a260: 03 3b 01 05  	ld	s6, 0x50(sp)
   1a264: 93 04 0a 00  	addi	s1, s4, 0x0
   1a268: 13 0b fb ff  	addi	s6, s6, -0x1
   1a26c: 23 38 61 05  	sd	s6, 0x50(sp)
   1a270: 63 14 0b 02  	bne	s6, zero, 0x1a298 <encode_mcu_huff+0x64c>
   1a274: 03 35 81 07  	ld	a0, 0x78(sp)
   1a278: 03 39 05 02  	ld	s2, 0x20(a0)
   1a27c: 83 35 89 01  	ld	a1, 0x18(s2)
   1a280: e7 80 05 00  	jalr	ra, 0x0(a1)
   1a284: 63 04 05 2e  	beq	a0, zero, 0x1a56c <encode_mcu_huff+0x920>
   1a288: 03 35 09 00  	ld	a0, 0x0(s2)
   1a28c: 03 3b 89 00  	ld	s6, 0x8(s2)
   1a290: 23 34 a1 04  	sd	a0, 0x48(sp)
   1a294: 23 38 61 05  	sd	s6, 0x50(sp)
   1a298: 33 75 9c 01  	and	a0, s8, s9
   1a29c: 63 14 95 05  	bne	a0, s9, 0x1a2e4 <encode_mcu_huff+0x698>
   1a2a0: 03 35 81 04  	ld	a0, 0x48(sp)
   1a2a4: 93 05 15 00  	addi	a1, a0, 0x1
   1a2a8: 23 34 b1 04  	sd	a1, 0x48(sp)
   1a2ac: 23 00 05 00  	sb	zero, 0x0(a0)
   1a2b0: 03 3b 01 05  	ld	s6, 0x50(sp)
   1a2b4: 13 0b fb ff  	addi	s6, s6, -0x1
   1a2b8: 23 38 61 05  	sd	s6, 0x50(sp)
   1a2bc: 63 14 0b 02  	bne	s6, zero, 0x1a2e4 <encode_mcu_huff+0x698>
   1a2c0: 03 35 81 07  	ld	a0, 0x78(sp)
   1a2c4: 03 39 05 02  	ld	s2, 0x20(a0)
   1a2c8: 83 35 89 01  	ld	a1, 0x18(s2)
   1a2cc: e7 80 05 00  	jalr	ra, 0x0(a1)
   1a2d0: 63 0e 05 28  	beq	a0, zero, 0x1a56c <encode_mcu_huff+0x920>
   1a2d4: 03 35 09 00  	ld	a0, 0x0(s2)
   1a2d8: 03 3b 89 00  	ld	s6, 0x8(s2)
   1a2dc: 23 34 a1 04  	sd	a0, 0x48(sp)
   1a2e0: 23 38 61 05  	sd	s6, 0x50(sp)
   1a2e4: 13 1c 8c 00  	slli	s8, s8, 0x8
   1a2e8: 1b 8a 84 ff  	addiw	s4, s1, -0x8
   1a2ec: e3 40 9d f6  	blt	s10, s1, 0x1a24c <encode_mcu_huff+0x600>
   1a2f0: 23 3c 81 05  	sd	s8, 0x58(sp)
   1a2f4: 23 20 41 07  	sw	s4, 0x60(sp)
   1a2f8: 13 05 00 04  	addi	a0, zero, 0x40
   1a2fc: e3 9a aa c6  	bne	s5, a0, 0x19f70 <encode_mcu_huff+0x324>
   1a300: 6f 00 40 10  	jal	zero, 0x1a404 <encode_mcu_huff+0x7b8>
   1a304: 03 35 01 04  	ld	a0, 0x40(sp)
   1a308: 83 44 05 40  	lbu	s1, 0x400(a0)
   1a30c: 03 69 05 00  	lwu	s2, 0x0(a0)
   1a310: 63 9e 04 00  	bne	s1, zero, 0x1a32c <encode_mcu_huff+0x6e0>
   1a314: 03 35 81 07  	ld	a0, 0x78(sp)
   1a318: 83 35 05 00  	ld	a1, 0x0(a0)
   1a31c: 03 b6 05 00  	ld	a2, 0x0(a1)
   1a320: 93 06 70 02  	addi	a3, zero, 0x27
   1a324: 23 a4 d5 02  	sw	a3, 0x28(a1)
   1a328: e7 00 06 00  	jalr	ra, 0x0(a2)
   1a32c: 13 05 f0 ff  	addi	a0, zero, -0x1
   1a330: 33 15 95 00  	sll	a0, a0, s1
   1a334: 13 45 f5 ff  	xori	a0, a0, -0x1
   1a338: b3 75 25 01  	and	a1, a0, s2
   1a33c: 3b 05 9a 00  	addw	a0, s4, s1
   1a340: 13 06 80 01  	addi	a2, zero, 0x18
   1a344: 3b 06 a6 40  	subw	a2, a2, a0
   1a348: b3 95 c5 00  	sll	a1, a1, a2
   1a34c: b3 64 bc 00  	or	s1, s8, a1
   1a350: 93 05 80 00  	addi	a1, zero, 0x8
   1a354: 63 44 b5 0a  	blt	a0, a1, 0x1a3fc <encode_mcu_huff+0x7b0>
   1a358: 83 35 81 04  	ld	a1, 0x48(sp)
   1a35c: 13 d6 04 01  	srli	a2, s1, 0x10
   1a360: 93 86 15 00  	addi	a3, a1, 0x1
   1a364: 23 34 d1 04  	sd	a3, 0x48(sp)
   1a368: 23 80 c5 00  	sb	a2, 0x0(a1)
   1a36c: 03 3b 01 05  	ld	s6, 0x50(sp)
   1a370: 13 09 05 00  	addi	s2, a0, 0x0
   1a374: 13 0b fb ff  	addi	s6, s6, -0x1
   1a378: 23 38 61 05  	sd	s6, 0x50(sp)
   1a37c: 63 14 0b 02  	bne	s6, zero, 0x1a3a4 <encode_mcu_huff+0x758>
   1a380: 03 35 81 07  	ld	a0, 0x78(sp)
   1a384: 83 39 05 02  	ld	s3, 0x20(a0)
   1a388: 83 b5 89 01  	ld	a1, 0x18(s3)
   1a38c: e7 80 05 00  	jalr	ra, 0x0(a1)
   1a390: 63 0e 05 1c  	beq	a0, zero, 0x1a56c <encode_mcu_huff+0x920>
   1a394: 03 b5 09 00  	ld	a0, 0x0(s3)
   1a398: 03 bb 89 00  	ld	s6, 0x8(s3)
   1a39c: 23 34 a1 04  	sd	a0, 0x48(sp)
   1a3a0: 23 38 61 05  	sd	s6, 0x50(sp)
   1a3a4: 33 f5 94 01  	and	a0, s1, s9
   1a3a8: 63 14 95 05  	bne	a0, s9, 0x1a3f0 <encode_mcu_huff+0x7a4>
   1a3ac: 03 35 81 04  	ld	a0, 0x48(sp)
   1a3b0: 93 05 15 00  	addi	a1, a0, 0x1
   1a3b4: 23 34 b1 04  	sd	a1, 0x48(sp)
   1a3b8: 23 00 05 00  	sb	zero, 0x0(a0)
   1a3bc: 03 3b 01 05  	ld	s6, 0x50(sp)
   1a3c0: 13 0b fb ff  	addi	s6, s6, -0x1
   1a3c4: 23 38 61 05  	sd	s6, 0x50(sp)
   1a3c8: 63 14 0b 02  	bne	s6, zero, 0x1a3f0 <encode_mcu_huff+0x7a4>
   1a3cc: 03 35 81 07  	ld	a0, 0x78(sp)
   1a3d0: 83 39 05 02  	ld	s3, 0x20(a0)
   1a3d4: 83 b5 89 01  	ld	a1, 0x18(s3)
   1a3d8: e7 80 05 00  	jalr	ra, 0x0(a1)
   1a3dc: 63 08 05 18  	beq	a0, zero, 0x1a56c <encode_mcu_huff+0x920>
   1a3e0: 03 b5 09 00  	ld	a0, 0x0(s3)
   1a3e4: 03 bb 89 00  	ld	s6, 0x8(s3)
   1a3e8: 23 34 a1 04  	sd	a0, 0x48(sp)
   1a3ec: 23 38 61 05  	sd	s6, 0x50(sp)
   1a3f0: 93 94 84 00  	slli	s1, s1, 0x8
   1a3f4: 1b 05 89 ff  	addiw	a0, s2, -0x8
   1a3f8: e3 40 2d f7  	blt	s10, s2, 0x1a358 <encode_mcu_huff+0x70c>
   1a3fc: 23 3c 91 04  	sd	s1, 0x58(sp)
   1a400: 23 20 a1 06  	sw	a0, 0x60(sp)
   1a404: 03 35 01 02  	ld	a0, 0x20(sp)
   1a408: 03 35 05 00  	ld	a0, 0x0(a0)
   1a40c: 03 15 05 00  	lh	a0, 0x0(a0)
   1a410: 83 25 84 16  	lw	a1, 0x168(s0)
   1a414: 03 36 81 02  	ld	a2, 0x28(sp)
   1a418: 13 06 16 00  	addi	a2, a2, 0x1
   1a41c: 83 36 81 03  	ld	a3, 0x38(sp)
   1a420: 23 a0 a6 00  	sw	a0, 0x0(a3)
   1a424: 83 39 81 01  	ld	s3, 0x18(sp)
   1a428: 03 3a 01 01  	ld	s4, 0x10(sp)
   1a42c: 93 06 81 04  	addi	a3, sp, 0x48
   1a430: e3 42 b6 8a  	blt	a2, a1, 0x19cd4 <encode_mcu_huff+0x88>
   1a434: 03 35 81 04  	ld	a0, 0x48(sp)
   1a438: 83 35 04 02  	ld	a1, 0x20(s0)
   1a43c: 13 06 81 05  	addi	a2, sp, 0x58
   1a440: 93 86 89 01  	addi	a3, s3, 0x18
   1a444: 23 b0 a5 00  	sd	a0, 0x0(a1)
   1a448: 23 b4 65 01  	sd	s6, 0x8(a1)
   1a44c: 03 35 86 01  	ld	a0, 0x18(a2)
   1a450: 83 35 06 01  	ld	a1, 0x10(a2)
   1a454: 03 37 86 00  	ld	a4, 0x8(a2)
   1a458: 03 36 06 00  	ld	a2, 0x0(a2)
   1a45c: 23 bc a6 00  	sd	a0, 0x18(a3)
   1a460: 23 b8 b6 00  	sd	a1, 0x10(a3)
   1a464: 23 b4 e6 00  	sd	a4, 0x8(a3)
   1a468: 23 b0 c6 00  	sd	a2, 0x0(a3)
   1a46c: 83 25 04 11  	lw	a1, 0x110(s0)
   1a470: 13 05 10 00  	addi	a0, zero, 0x1
   1a474: 63 8c 05 0e  	beq	a1, zero, 0x1a56c <encode_mcu_huff+0x920>
   1a478: 03 a6 89 03  	lw	a2, 0x38(s3)
   1a47c: 63 1c 06 00  	bne	a2, zero, 0x1a494 <encode_mcu_huff+0x848>
   1a480: 03 a6 c9 03  	lw	a2, 0x3c(s3)
   1a484: 13 06 16 00  	addi	a2, a2, 0x1
   1a488: 13 76 76 00  	andi	a2, a2, 0x7
   1a48c: 23 ae c9 02  	sw	a2, 0x3c(s3)
   1a490: 13 86 05 00  	addi	a2, a1, 0x0
   1a494: 13 06 f6 ff  	addi	a2, a2, -0x1
   1a498: 23 ac c9 02  	sw	a2, 0x38(s3)
   1a49c: 6f 00 00 0d  	jal	zero, 0x1a56c <encode_mcu_huff+0x920>
   1a4a0: 83 a4 c9 03  	lw	s1, 0x3c(s3)
   1a4a4: 13 05 81 04  	addi	a0, sp, 0x48
   1a4a8: ef 00 c0 17  	jal	ra, 0x1a624 <flush_bits>
   1a4ac: 63 00 05 0c  	beq	a0, zero, 0x1a56c <encode_mcu_huff+0x920>
   1a4b0: 03 35 81 04  	ld	a0, 0x48(sp)
   1a4b4: 93 05 15 00  	addi	a1, a0, 0x1
   1a4b8: 23 34 b1 04  	sd	a1, 0x48(sp)
   1a4bc: 93 05 f0 0f  	addi	a1, zero, 0xff
   1a4c0: 23 00 b5 00  	sb	a1, 0x0(a0)
   1a4c4: 03 35 01 05  	ld	a0, 0x50(sp)
   1a4c8: 13 05 f5 ff  	addi	a0, a0, -0x1
   1a4cc: 23 38 a1 04  	sd	a0, 0x50(sp)
   1a4d0: 63 06 05 00  	beq	a0, zero, 0x1a4dc <encode_mcu_huff+0x890>
   1a4d4: 03 35 81 04  	ld	a0, 0x48(sp)
   1a4d8: 6f 00 40 02  	jal	zero, 0x1a4fc <encode_mcu_huff+0x8b0>
   1a4dc: 03 35 81 07  	ld	a0, 0x78(sp)
   1a4e0: 03 39 05 02  	ld	s2, 0x20(a0)
   1a4e4: 83 35 89 01  	ld	a1, 0x18(s2)
   1a4e8: e7 80 05 00  	jalr	ra, 0x0(a1)
   1a4ec: 63 00 05 08  	beq	a0, zero, 0x1a56c <encode_mcu_huff+0x920>
   1a4f0: 83 35 89 00  	ld	a1, 0x8(s2)
   1a4f4: 03 35 09 00  	ld	a0, 0x0(s2)
   1a4f8: 23 38 b1 04  	sd	a1, 0x50(sp)
   1a4fc: 93 85 04 fd  	addi	a1, s1, -0x30
   1a500: 13 06 15 00  	addi	a2, a0, 0x1
   1a504: 23 34 c1 04  	sd	a2, 0x48(sp)
   1a508: 23 00 b5 00  	sb	a1, 0x0(a0)
   1a50c: 03 3b 01 05  	ld	s6, 0x50(sp)
   1a510: 03 39 81 07  	ld	s2, 0x78(sp)
   1a514: 13 0b fb ff  	addi	s6, s6, -0x1
   1a518: 23 38 61 05  	sd	s6, 0x50(sp)
   1a51c: 63 14 0b 02  	bne	s6, zero, 0x1a544 <encode_mcu_huff+0x8f8>
   1a520: 83 34 09 02  	ld	s1, 0x20(s2)
   1a524: 83 b5 84 01  	ld	a1, 0x18(s1)
   1a528: 13 05 09 00  	addi	a0, s2, 0x0
   1a52c: e7 80 05 00  	jalr	ra, 0x0(a1)
   1a530: 63 0e 05 02  	beq	a0, zero, 0x1a56c <encode_mcu_huff+0x920>
   1a534: 03 b5 04 00  	ld	a0, 0x0(s1)
   1a538: 03 bb 84 00  	ld	s6, 0x8(s1)
   1a53c: 23 34 a1 04  	sd	a0, 0x48(sp)
   1a540: 23 38 61 05  	sd	s6, 0x50(sp)
   1a544: 03 25 c9 13  	lw	a0, 0x13c(s2)
   1a548: 63 50 a0 f6  	bge	zero, a0, 0x19ca8 <encode_mcu_huff+0x5c>
   1a54c: 13 05 00 00  	addi	a0, zero, 0x0
   1a550: 93 05 41 06  	addi	a1, sp, 0x64
   1a554: 23 a0 05 00  	sw	zero, 0x0(a1)
   1a558: 03 26 c9 13  	lw	a2, 0x13c(s2)
   1a55c: 13 05 15 00  	addi	a0, a0, 0x1
   1a560: 93 85 45 00  	addi	a1, a1, 0x4
   1a564: e3 48 c5 fe  	blt	a0, a2, 0x1a554 <encode_mcu_huff+0x908>
   1a568: 6f f0 0f f4  	jal	zero, 0x19ca8 <encode_mcu_huff+0x5c>
   1a56c: 13 01 01 08  	addi	sp, sp, 0x80
   1a570: 6f 70 81 39  	jal	zero, 0x31908 <__riscv_restore_12>

000000000001a574 <finish_pass_huff>:
   1a574: ef 72 a1 37  	jal	t0, 0x318ee <__riscv_save_3>
   1a578: 13 01 01 fc  	addi	sp, sp, -0x40
   1a57c: 13 04 05 00  	addi	s0, a0, 0x0
   1a580: 03 35 05 02  	ld	a0, 0x20(a0)
   1a584: 83 34 84 1e  	ld	s1, 0x1e8(s0)
   1a588: 83 35 05 00  	ld	a1, 0x0(a0)
   1a58c: 03 35 85 00  	ld	a0, 0x8(a0)
   1a590: 03 b6 84 01  	ld	a2, 0x18(s1)
   1a594: 83 b6 04 02  	ld	a3, 0x20(s1)
   1a598: 23 34 b1 00  	sd	a1, 0x8(sp)
   1a59c: 23 38 a1 00  	sd	a0, 0x10(sp)
   1a5a0: 23 3c c1 00  	sd	a2, 0x18(sp)
   1a5a4: 23 30 d1 02  	sd	a3, 0x20(sp)
   1a5a8: 03 b5 84 02  	ld	a0, 0x28(s1)
   1a5ac: 83 b5 04 03  	ld	a1, 0x30(s1)
   1a5b0: 13 09 81 01  	addi	s2, sp, 0x18
   1a5b4: 93 84 84 01  	addi	s1, s1, 0x18
   1a5b8: 23 34 a1 02  	sd	a0, 0x28(sp)
   1a5bc: 23 38 b1 02  	sd	a1, 0x30(sp)
   1a5c0: 23 3c 81 02  	sd	s0, 0x38(sp)
   1a5c4: 13 05 81 00  	addi	a0, sp, 0x8
   1a5c8: ef 00 c0 05  	jal	ra, 0x1a624 <flush_bits>
   1a5cc: 63 1e 05 00  	bne	a0, zero, 0x1a5e8 <finish_pass_huff+0x74>
   1a5d0: 03 35 04 00  	ld	a0, 0x0(s0)
   1a5d4: 83 35 05 00  	ld	a1, 0x0(a0)
   1a5d8: 13 06 60 01  	addi	a2, zero, 0x16
   1a5dc: 23 24 c5 02  	sw	a2, 0x28(a0)
   1a5e0: 13 05 04 00  	addi	a0, s0, 0x0
   1a5e4: e7 80 05 00  	jalr	ra, 0x0(a1)
   1a5e8: 03 35 81 00  	ld	a0, 0x8(sp)
   1a5ec: 83 35 04 02  	ld	a1, 0x20(s0)
   1a5f0: 03 36 01 01  	ld	a2, 0x10(sp)
   1a5f4: 23 b0 a5 00  	sd	a0, 0x0(a1)
   1a5f8: 23 b4 c5 00  	sd	a2, 0x8(a1)
   1a5fc: 03 35 09 00  	ld	a0, 0x0(s2)
   1a600: 83 35 89 00  	ld	a1, 0x8(s2)
   1a604: 03 36 09 01  	ld	a2, 0x10(s2)
   1a608: 83 36 89 01  	ld	a3, 0x18(s2)
   1a60c: 23 b0 a4 00  	sd	a0, 0x0(s1)
   1a610: 23 b4 b4 00  	sd	a1, 0x8(s1)
   1a614: 23 b8 c4 00  	sd	a2, 0x10(s1)
   1a618: 23 bc d4 00  	sd	a3, 0x18(s1)
   1a61c: 13 01 01 04  	addi	sp, sp, 0x40
   1a620: 6f 70 41 30  	jal	zero, 0x31924 <__riscv_restore_3>

000000000001a624 <flush_bits>:
   1a624: ef 72 61 2b  	jal	t0, 0x318da <__riscv_save_7>
   1a628: 13 04 05 00  	addi	s0, a0, 0x0
   1a62c: 03 29 85 01  	lw	s2, 0x18(a0)
   1a630: 63 54 20 0d  	bge	zero, s2, 0x1a6f8 <flush_bits+0xd4>
   1a634: 13 05 10 01  	addi	a0, zero, 0x11
   1a638: 83 35 04 01  	ld	a1, 0x10(s0)
   1a63c: 3b 05 25 41  	subw	a0, a0, s2
   1a640: 13 06 f0 07  	addi	a2, zero, 0x7f
   1a644: b3 14 a6 00  	sll	s1, a2, a0
   1a648: b3 e4 b4 00  	or	s1, s1, a1
   1a64c: 13 09 f9 00  	addi	s2, s2, 0xf
   1a650: b7 09 ff 00  	lui	s3, 0xff0
   1a654: 13 0a f0 00  	addi	s4, zero, 0xf
   1a658: 03 35 04 00  	ld	a0, 0x0(s0)
   1a65c: 93 d5 04 01  	srli	a1, s1, 0x10
   1a660: 13 06 15 00  	addi	a2, a0, 0x1
   1a664: 23 30 c4 00  	sd	a2, 0x0(s0)
   1a668: 23 00 b5 00  	sb	a1, 0x0(a0)
   1a66c: 03 35 84 00  	ld	a0, 0x8(s0)
   1a670: 13 05 f5 ff  	addi	a0, a0, -0x1
   1a674: 23 34 a4 00  	sd	a0, 0x8(s0)
   1a678: 63 14 05 02  	bne	a0, zero, 0x1a6a0 <flush_bits+0x7c>
   1a67c: 03 35 04 03  	ld	a0, 0x30(s0)
   1a680: 83 3a 05 02  	ld	s5, 0x20(a0)
   1a684: 83 b5 8a 01  	ld	a1, 0x18(s5)
   1a688: e7 80 05 00  	jalr	ra, 0x0(a1)
   1a68c: 63 0c 05 06  	beq	a0, zero, 0x1a704 <flush_bits+0xe0>
   1a690: 03 b5 0a 00  	ld	a0, 0x0(s5)
   1a694: 83 b5 8a 00  	ld	a1, 0x8(s5)
   1a698: 23 30 a4 00  	sd	a0, 0x0(s0)
   1a69c: 23 34 b4 00  	sd	a1, 0x8(s0)
   1a6a0: 33 f5 34 01  	and	a0, s1, s3
   1a6a4: 63 14 35 05  	bne	a0, s3, 0x1a6ec <flush_bits+0xc8>
   1a6a8: 03 35 04 00  	ld	a0, 0x0(s0)
   1a6ac: 93 05 15 00  	addi	a1, a0, 0x1
   1a6b0: 23 30 b4 00  	sd	a1, 0x0(s0)
   1a6b4: 23 00 05 00  	sb	zero, 0x0(a0)
   1a6b8: 03 35 84 00  	ld	a0, 0x8(s0)
   1a6bc: 13 05 f5 ff  	addi	a0, a0, -0x1
   1a6c0: 23 34 a4 00  	sd	a0, 0x8(s0)
   1a6c4: 63 14 05 02  	bne	a0, zero, 0x1a6ec <flush_bits+0xc8>
   1a6c8: 03 35 04 03  	ld	a0, 0x30(s0)
   1a6cc: 83 3a 05 02  	ld	s5, 0x20(a0)
   1a6d0: 83 b5 8a 01  	ld	a1, 0x18(s5)
   1a6d4: e7 80 05 00  	jalr	ra, 0x0(a1)
   1a6d8: 63 06 05 02  	beq	a0, zero, 0x1a704 <flush_bits+0xe0>
   1a6dc: 03 b5 0a 00  	ld	a0, 0x0(s5)
   1a6e0: 83 b5 8a 00  	ld	a1, 0x8(s5)
   1a6e4: 23 30 a4 00  	sd	a0, 0x0(s0)
   1a6e8: 23 34 b4 00  	sd	a1, 0x8(s0)
   1a6ec: 1b 09 89 ff  	addiw	s2, s2, -0x8
   1a6f0: 93 94 84 00  	slli	s1, s1, 0x8
   1a6f4: e3 42 2a f7  	blt	s4, s2, 0x1a658 <flush_bits+0x34>
   1a6f8: 23 38 04 00  	sd	zero, 0x10(s0)
   1a6fc: 23 2c 04 00  	sw	zero, 0x18(s0)
   1a700: 13 05 10 00  	addi	a0, zero, 0x1
   1a704: 6f 70 41 21  	jal	zero, 0x31918 <__riscv_restore_7>

000000000001a708 <jinit_phuff_encoder>:
   1a708: 13 01 01 ff  	addi	sp, sp, -0x10
   1a70c: 23 34 11 00  	sd	ra, 0x8(sp)
   1a710: 23 30 81 00  	sd	s0, 0x0(sp)
   1a714: 13 04 05 00  	addi	s0, a0, 0x0
   1a718: 03 35 85 00  	ld	a0, 0x8(a0)
   1a71c: 83 36 05 00  	ld	a3, 0x0(a0)
   1a720: 93 05 10 00  	addi	a1, zero, 0x1
   1a724: 13 06 80 0b  	addi	a2, zero, 0xb8
   1a728: 13 05 04 00  	addi	a0, s0, 0x0
   1a72c: e7 80 06 00  	jalr	ra, 0x0(a3)
   1a730: 23 34 a4 1e  	sd	a0, 0x1e8(s0)
   1a734: b7 a5 01 00  	lui	a1, 0x1a
   1a738: 93 85 45 76  	addi	a1, a1, 0x764
   1a73c: 23 30 b5 00  	sd	a1, 0x0(a0)
   1a740: 93 05 85 07  	addi	a1, a0, 0x78
   1a744: 13 06 00 04  	addi	a2, zero, 0x40
   1a748: 23 34 05 06  	sd	zero, 0x68(a0)
   1a74c: 13 85 05 00  	addi	a0, a1, 0x0
   1a750: 93 05 00 00  	addi	a1, zero, 0x0
   1a754: 83 30 81 00  	ld	ra, 0x8(sp)
   1a758: 03 34 01 00  	ld	s0, 0x0(sp)
   1a75c: 13 01 01 01  	addi	sp, sp, 0x10
   1a760: 6f 40 70 7c  	jal	zero, 0x1f726 <memset>

000000000001a764 <start_pass_phuff>:
   1a764: ef 72 21 16  	jal	t0, 0x318c6 <__riscv_save_11>
   1a768: 13 04 05 00  	addi	s0, a0, 0x0
   1a76c: 83 39 85 1e  	ld	s3, 0x1e8(a0)
   1a770: 03 25 c5 19  	lw	a0, 0x19c(a0)
   1a774: 03 2a 44 19  	lw	s4, 0x194(s0)
   1a778: 93 84 05 00  	addi	s1, a1, 0x0
   1a77c: 23 b0 89 04  	sd	s0, 0x40(s3)
   1a780: 23 ac b9 00  	sw	a1, 0x18(s3)
   1a784: 63 06 05 02  	beq	a0, zero, 0x1a7b0 <start_pass_phuff+0x4c>
   1a788: 63 0c 0a 02  	beq	s4, zero, 0x1a7c0 <start_pass_phuff+0x5c>
   1a78c: 03 b5 89 06  	ld	a0, 0x68(s3)
   1a790: b7 b5 01 00  	lui	a1, 0x1b
   1a794: 93 85 85 f3  	addi	a1, a1, -0xc8
   1a798: 23 b4 b9 00  	sd	a1, 0x8(s3)
   1a79c: 63 0c 05 02  	beq	a0, zero, 0x1a7d4 <start_pass_phuff+0x70>
   1a7a0: 63 94 04 06  	bne	s1, zero, 0x1a808 <start_pass_phuff+0xa4>
   1a7a4: 37 b5 01 00  	lui	a0, 0x1b
   1a7a8: 13 05 c5 34  	addi	a0, a0, 0x34c
   1a7ac: 6f 00 40 06  	jal	zero, 0x1a810 <start_pass_phuff+0xac>
   1a7b0: 63 04 0a 04  	beq	s4, zero, 0x1a7f8 <start_pass_phuff+0x94>
   1a7b4: 37 b5 01 00  	lui	a0, 0x1b
   1a7b8: 13 05 85 b4  	addi	a0, a0, -0x4b8
   1a7bc: 6f 00 40 04  	jal	zero, 0x1a800 <start_pass_phuff+0x9c>
   1a7c0: 37 b5 01 00  	lui	a0, 0x1b
   1a7c4: 13 05 c5 dc  	addi	a0, a0, -0x234
   1a7c8: 23 b4 a9 00  	sd	a0, 0x8(s3)
   1a7cc: 63 9e 04 02  	bne	s1, zero, 0x1a808 <start_pass_phuff+0xa4>
   1a7d0: 6f f0 5f fd  	jal	zero, 0x1a7a4 <start_pass_phuff+0x40>
   1a7d4: 03 35 84 00  	ld	a0, 0x8(s0)
   1a7d8: 83 36 05 00  	ld	a3, 0x0(a0)
   1a7dc: 93 05 10 00  	addi	a1, zero, 0x1
   1a7e0: 13 06 80 3e  	addi	a2, zero, 0x3e8
   1a7e4: 13 05 04 00  	addi	a0, s0, 0x0
   1a7e8: e7 80 06 00  	jalr	ra, 0x0(a3)
   1a7ec: 23 b4 a9 06  	sd	a0, 0x68(s3)
   1a7f0: e3 8a 04 fa  	beq	s1, zero, 0x1a7a4 <start_pass_phuff+0x40>
   1a7f4: 6f 00 40 01  	jal	zero, 0x1a808 <start_pass_phuff+0xa4>
   1a7f8: 37 b5 01 00  	lui	a0, 0x1b
   1a7fc: 13 05 45 94  	addi	a0, a0, -0x6bc
   1a800: 23 b4 a9 00  	sd	a0, 0x8(s3)
   1a804: e3 80 04 fa  	beq	s1, zero, 0x1a7a4 <start_pass_phuff+0x40>
   1a808: 37 b5 01 00  	lui	a0, 0x1b
   1a80c: 13 05 c5 27  	addi	a0, a0, 0x27c
   1a810: 23 b8 a9 00  	sd	a0, 0x10(s3)
   1a814: 03 25 c4 13  	lw	a0, 0x13c(s0)
   1a818: 63 56 a0 10  	bge	zero, a0, 0x1a924 <start_pass_phuff+0x1c0>
   1a81c: 93 0a 00 00  	addi	s5, zero, 0x0
   1a820: 13 0b 04 14  	addi	s6, s0, 0x140
   1a824: 93 8b 89 04  	addi	s7, s3, 0x48
   1a828: 13 0c 30 00  	addi	s8, zero, 0x3
   1a82c: 93 0c 10 03  	addi	s9, zero, 0x31
   1a830: 37 15 00 00  	lui	a0, 0x1
   1a834: 1b 09 85 80  	addiw	s2, a0, -0x7f8
   1a838: 03 35 0b 00  	ld	a0, 0x0(s6)
   1a83c: 23 a0 0b 00  	sw	zero, 0x0(s7)
   1a840: 63 04 0a 02  	beq	s4, zero, 0x1a868 <start_pass_phuff+0x104>
   1a844: 03 2d 85 01  	lw	s10, 0x18(a0)
   1a848: 23 ac a9 05  	sw	s10, 0x58(s3)
   1a84c: 63 60 ac 05  	bltu	s8, s10, 0x1a88c <start_pass_phuff+0x128>
   1a850: 63 9c 04 04  	bne	s1, zero, 0x1a8a8 <start_pass_phuff+0x144>
   1a854: 13 15 3d 00  	slli	a0, s10, 0x3
   1a858: 33 05 a4 00  	add	a0, s0, a0
   1a85c: 03 35 85 09  	ld	a0, 0x98(a0)
   1a860: 63 06 05 02  	beq	a0, zero, 0x1a88c <start_pass_phuff+0x128>
   1a864: 6f 00 40 04  	jal	zero, 0x1a8a8 <start_pass_phuff+0x144>
   1a868: 83 25 c4 19  	lw	a1, 0x19c(s0)
   1a86c: 63 92 05 0a  	bne	a1, zero, 0x1a910 <start_pass_phuff+0x1ac>
   1a870: 03 2d 45 01  	lw	s10, 0x14(a0)
   1a874: 63 6c ac 01  	bltu	s8, s10, 0x1a88c <start_pass_phuff+0x128>
   1a878: 63 98 04 02  	bne	s1, zero, 0x1a8a8 <start_pass_phuff+0x144>
   1a87c: 13 15 3d 00  	slli	a0, s10, 0x3
   1a880: 33 05 a4 00  	add	a0, s0, a0
   1a884: 03 35 85 07  	ld	a0, 0x78(a0)
   1a888: 63 10 05 02  	bne	a0, zero, 0x1a8a8 <start_pass_phuff+0x144>
   1a88c: 03 35 04 00  	ld	a0, 0x0(s0)
   1a890: 23 26 a5 03  	sw	s10, 0x2c(a0)
   1a894: 83 35 04 00  	ld	a1, 0x0(s0)
   1a898: 83 b5 05 00  	ld	a1, 0x0(a1)
   1a89c: 23 24 95 03  	sw	s9, 0x28(a0)
   1a8a0: 13 05 04 00  	addi	a0, s0, 0x0
   1a8a4: e7 80 05 00  	jalr	ra, 0x0(a1)
   1a8a8: 13 1d 3d 00  	slli	s10, s10, 0x3
   1a8ac: 63 80 04 04  	beq	s1, zero, 0x1a8ec <start_pass_phuff+0x188>
   1a8b0: 33 8d a9 01  	add	s10, s3, s10
   1a8b4: 03 35 8d 09  	ld	a0, 0x98(s10)
   1a8b8: 63 12 05 02  	bne	a0, zero, 0x1a8dc <start_pass_phuff+0x178>
   1a8bc: 03 35 84 00  	ld	a0, 0x8(s0)
   1a8c0: 83 36 05 00  	ld	a3, 0x0(a0)
   1a8c4: 13 0d 8d 09  	addi	s10, s10, 0x98
   1a8c8: 93 05 10 00  	addi	a1, zero, 0x1
   1a8cc: 13 05 04 00  	addi	a0, s0, 0x0
   1a8d0: 13 06 09 00  	addi	a2, s2, 0x0
   1a8d4: e7 80 06 00  	jalr	ra, 0x0(a3)
   1a8d8: 23 30 ad 00  	sd	a0, 0x0(s10)
   1a8dc: 93 05 00 00  	addi	a1, zero, 0x0
   1a8e0: 13 06 09 00  	addi	a2, s2, 0x0
   1a8e4: ef 40 30 64  	jal	ra, 0x1f726 <memset>
   1a8e8: 6f 00 80 02  	jal	zero, 0x1a910 <start_pass_phuff+0x1ac>
   1a8ec: 33 85 a9 01  	add	a0, s3, s10
   1a8f0: 13 06 85 07  	addi	a2, a0, 0x78
   1a8f4: 33 0d a4 01  	add	s10, s0, s10
   1a8f8: 63 06 0a 00  	beq	s4, zero, 0x1a904 <start_pass_phuff+0x1a0>
   1a8fc: 83 35 8d 09  	ld	a1, 0x98(s10)
   1a900: 6f 00 80 00  	jal	zero, 0x1a908 <start_pass_phuff+0x1a4>
   1a904: 83 35 8d 07  	ld	a1, 0x78(s10)
   1a908: 13 05 04 00  	addi	a0, s0, 0x0
   1a90c: ef e0 1f 9b  	jal	ra, 0x192bc <jpeg_make_c_derived_tbl>
   1a910: 03 25 c4 13  	lw	a0, 0x13c(s0)
   1a914: 93 8a 1a 00  	addi	s5, s5, 0x1
   1a918: 13 0b 8b 00  	addi	s6, s6, 0x8
   1a91c: 93 8b 4b 00  	addi	s7, s7, 0x4
   1a920: e3 cc aa f0  	blt	s5, a0, 0x1a838 <start_pass_phuff+0xd4>
   1a924: 23 ae 09 04  	sw	zero, 0x5c(s3)
   1a928: 03 25 04 11  	lw	a0, 0x110(s0)
   1a92c: 23 a0 09 06  	sw	zero, 0x60(s3)
   1a930: 23 b8 09 02  	sd	zero, 0x30(s3)
   1a934: 23 ac 09 02  	sw	zero, 0x38(s3)
   1a938: 23 a8 a9 06  	sw	a0, 0x70(s3)
   1a93c: 23 aa 09 06  	sw	zero, 0x74(s3)
   1a940: 6f 60 d1 7c  	jal	zero, 0x3190c <__riscv_restore_11>

000000000001a944 <encode_mcu_DC_first>:
   1a944: ef 62 b1 77  	jal	t0, 0x318be <__riscv_save_12>
   1a948: 93 04 05 00  	addi	s1, a0, 0x0
   1a94c: 03 35 05 02  	ld	a0, 0x20(a0)
   1a950: 03 b4 84 1e  	ld	s0, 0x1e8(s1)
   1a954: 03 36 05 00  	ld	a2, 0x0(a0)
   1a958: 03 35 85 00  	ld	a0, 0x8(a0)
   1a95c: 83 a6 04 11  	lw	a3, 0x110(s1)
   1a960: 03 aa 04 1a  	lw	s4, 0x1a0(s1)
   1a964: 13 89 05 00  	addi	s2, a1, 0x0
   1a968: 23 30 c4 02  	sd	a2, 0x20(s0)
   1a96c: 23 34 a4 02  	sd	a0, 0x28(s0)
   1a970: 63 8c 06 00  	beq	a3, zero, 0x1a988 <encode_mcu_DC_first+0x44>
   1a974: 03 25 04 07  	lw	a0, 0x70(s0)
   1a978: 63 18 05 00  	bne	a0, zero, 0x1a988 <encode_mcu_DC_first+0x44>
   1a97c: 83 25 44 07  	lw	a1, 0x74(s0)
   1a980: 13 05 04 00  	addi	a0, s0, 0x0
   1a984: ef 00 10 21  	jal	ra, 0x1b394 <emit_restart>
   1a988: 03 a5 84 16  	lw	a0, 0x168(s1)
   1a98c: 63 5a a0 16  	bge	zero, a0, 0x1ab00 <encode_mcu_DC_first+0x1bc>
   1a990: 93 0a 00 00  	addi	s5, zero, 0x0
   1a994: 13 0c 80 00  	addi	s8, zero, 0x8
   1a998: b7 0c ff 00  	lui	s9, 0xff0
   1a99c: 13 0d f0 00  	addi	s10, zero, 0xf
   1a9a0: 13 95 3a 00  	slli	a0, s5, 0x3
   1a9a4: 93 95 2a 00  	slli	a1, s5, 0x2
   1a9a8: b3 85 b4 00  	add	a1, s1, a1
   1a9ac: 83 a5 c5 16  	lw	a1, 0x16c(a1)
   1a9b0: 33 05 a9 00  	add	a0, s2, a0
   1a9b4: 03 35 05 00  	ld	a0, 0x0(a0)
   1a9b8: 13 96 35 00  	slli	a2, a1, 0x3
   1a9bc: 33 86 c4 00  	add	a2, s1, a2
   1a9c0: 83 16 05 00  	lh	a3, 0x0(a0)
   1a9c4: 93 95 25 00  	slli	a1, a1, 0x2
   1a9c8: 33 07 b4 00  	add	a4, s0, a1
   1a9cc: 83 25 87 04  	lw	a1, 0x48(a4)
   1a9d0: 03 35 06 14  	ld	a0, 0x140(a2)
   1a9d4: 3b d6 46 41  	sraw	a2, a3, s4
   1a9d8: 23 24 c7 04  	sw	a2, 0x48(a4)
   1a9dc: 63 1c b6 00  	bne	a2, a1, 0x1a9f4 <encode_mcu_DC_first+0xb0>
   1a9e0: 83 25 45 01  	lw	a1, 0x14(a0)
   1a9e4: 13 05 04 00  	addi	a0, s0, 0x0
   1a9e8: 13 06 00 00  	addi	a2, zero, 0x0
   1a9ec: ef 00 10 26  	jal	ra, 0x1b44c <emit_symbol>
   1a9f0: 6f 00 40 10  	jal	zero, 0x1aaf4 <encode_mcu_DC_first+0x1b0>
   1a9f4: 13 0b 00 00  	addi	s6, zero, 0x0
   1a9f8: 93 09 00 00  	addi	s3, zero, 0x0
   1a9fc: 3b 06 b6 40  	subw	a2, a2, a1
   1aa00: 9b 55 f6 41  	sraiw	a1, a2, 0x1f
   1aa04: b3 8b c5 00  	add	s7, a1, a2
   1aa08: 33 46 b6 00  	xor	a2, a2, a1
   1aa0c: bb 05 b6 40  	subw	a1, a2, a1
   1aa10: 13 06 90 00  	addi	a2, zero, 0x9
   1aa14: 93 0d 06 00  	addi	s11, a2, 0x0
   1aa18: 9b 89 19 00  	addiw	s3, s3, 0x1
   1aa1c: 9b d5 15 00  	srliw	a1, a1, 0x1
   1aa20: 13 0b 1b 00  	addi	s6, s6, 0x1
   1aa24: 13 06 16 00  	addi	a2, a2, 0x1
   1aa28: e3 96 05 fe  	bne	a1, zero, 0x1aa14 <encode_mcu_DC_first+0xd0>
   1aa2c: 83 25 45 01  	lw	a1, 0x14(a0)
   1aa30: 13 05 04 00  	addi	a0, s0, 0x0
   1aa34: 13 86 09 00  	addi	a2, s3, 0x0
   1aa38: ef 00 50 21  	jal	ra, 0x1b44c <emit_symbol>
   1aa3c: 03 25 84 01  	lw	a0, 0x18(s0)
   1aa40: 63 1a 05 0a  	bne	a0, zero, 0x1aaf4 <encode_mcu_DC_first+0x1b0>
   1aa44: 03 25 84 03  	lw	a0, 0x38(s0)
   1aa48: 93 05 f0 ff  	addi	a1, zero, -0x1
   1aa4c: b3 95 65 01  	sll	a1, a1, s6
   1aa50: 93 c5 f5 ff  	xori	a1, a1, -0x1
   1aa54: b3 f5 bb 00  	and	a1, s7, a1
   1aa58: 93 95 05 02  	slli	a1, a1, 0x20
   1aa5c: 13 d6 05 02  	srli	a2, a1, 0x20
   1aa60: 83 36 04 03  	ld	a3, 0x30(s0)
   1aa64: bb 05 35 01  	addw	a1, a0, s3
   1aa68: 13 07 80 01  	addi	a4, zero, 0x18
   1aa6c: 3b 07 b7 40  	subw	a4, a4, a1
   1aa70: 33 16 e6 00  	sll	a2, a2, a4
   1aa74: b3 69 d6 00  	or	s3, a2, a3
   1aa78: 63 ca 85 07  	blt	a1, s8, 0x1aaec <encode_mcu_DC_first+0x1a8>
   1aa7c: b3 0d b5 01  	add	s11, a0, s11
   1aa80: 03 35 04 02  	ld	a0, 0x20(s0)
   1aa84: 93 d5 09 01  	srli	a1, s3, 0x10
   1aa88: 13 06 15 00  	addi	a2, a0, 0x1
   1aa8c: 23 30 c4 02  	sd	a2, 0x20(s0)
   1aa90: 23 00 b5 00  	sb	a1, 0x0(a0)
   1aa94: 03 35 84 02  	ld	a0, 0x28(s0)
   1aa98: 13 05 f5 ff  	addi	a0, a0, -0x1
   1aa9c: 23 34 a4 02  	sd	a0, 0x28(s0)
   1aaa0: 63 16 05 00  	bne	a0, zero, 0x1aaac <encode_mcu_DC_first+0x168>
   1aaa4: 13 05 04 00  	addi	a0, s0, 0x0
   1aaa8: ef 00 90 49  	jal	ra, 0x1b740 <dump_buffer>
   1aaac: 33 f5 99 01  	and	a0, s3, s9
   1aab0: 63 16 95 03  	bne	a0, s9, 0x1aadc <encode_mcu_DC_first+0x198>
   1aab4: 03 35 04 02  	ld	a0, 0x20(s0)
   1aab8: 93 05 15 00  	addi	a1, a0, 0x1
   1aabc: 23 30 b4 02  	sd	a1, 0x20(s0)
   1aac0: 23 00 05 00  	sb	zero, 0x0(a0)
   1aac4: 03 35 84 02  	ld	a0, 0x28(s0)
   1aac8: 13 05 f5 ff  	addi	a0, a0, -0x1
   1aacc: 23 34 a4 02  	sd	a0, 0x28(s0)
   1aad0: 63 16 05 00  	bne	a0, zero, 0x1aadc <encode_mcu_DC_first+0x198>
   1aad4: 13 05 04 00  	addi	a0, s0, 0x0
   1aad8: ef 00 90 46  	jal	ra, 0x1b740 <dump_buffer>
   1aadc: 9b 8d 8d ff  	addiw	s11, s11, -0x8
   1aae0: 93 99 89 00  	slli	s3, s3, 0x8
   1aae4: e3 4e bd f9  	blt	s10, s11, 0x1aa80 <encode_mcu_DC_first+0x13c>
   1aae8: 93 85 8d ff  	addi	a1, s11, -0x8
   1aaec: 23 38 34 03  	sd	s3, 0x30(s0)
   1aaf0: 23 2c b4 02  	sw	a1, 0x38(s0)
   1aaf4: 03 a5 84 16  	lw	a0, 0x168(s1)
   1aaf8: 93 8a 1a 00  	addi	s5, s5, 0x1
   1aafc: e3 c2 aa ea  	blt	s5, a0, 0x1a9a0 <encode_mcu_DC_first+0x5c>
   1ab00: 83 35 04 02  	ld	a1, 0x20(s0)
   1ab04: 03 b6 04 02  	ld	a2, 0x20(s1)
   1ab08: 83 36 84 02  	ld	a3, 0x28(s0)
   1ab0c: 03 a5 04 11  	lw	a0, 0x110(s1)
   1ab10: 23 30 b6 00  	sd	a1, 0x0(a2)
   1ab14: 23 34 d6 00  	sd	a3, 0x8(a2)
   1ab18: 63 04 05 02  	beq	a0, zero, 0x1ab40 <encode_mcu_DC_first+0x1fc>
   1ab1c: 83 25 04 07  	lw	a1, 0x70(s0)
   1ab20: 63 9c 05 00  	bne	a1, zero, 0x1ab38 <encode_mcu_DC_first+0x1f4>
   1ab24: 83 25 44 07  	lw	a1, 0x74(s0)
   1ab28: 93 85 15 00  	addi	a1, a1, 0x1
   1ab2c: 93 f5 75 00  	andi	a1, a1, 0x7
   1ab30: 23 2a b4 06  	sw	a1, 0x74(s0)
   1ab34: 93 05 05 00  	addi	a1, a0, 0x0
   1ab38: 93 85 f5 ff  	addi	a1, a1, -0x1
   1ab3c: 23 28 b4 06  	sw	a1, 0x70(s0)
   1ab40: 13 05 10 00  	addi	a0, zero, 0x1
   1ab44: 6f 60 51 5c  	jal	zero, 0x31908 <__riscv_restore_12>

000000000001ab48 <encode_mcu_AC_first>:
   1ab48: ef 62 71 57  	jal	t0, 0x318be <__riscv_save_12>
   1ab4c: 13 01 01 fe  	addi	sp, sp, -0x20
   1ab50: 93 04 05 00  	addi	s1, a0, 0x0
   1ab54: 03 35 05 02  	ld	a0, 0x20(a0)
   1ab58: 03 b4 84 1e  	ld	s0, 0x1e8(s1)
   1ab5c: 83 aa 84 19  	lw	s5, 0x198(s1)
   1ab60: 03 36 05 00  	ld	a2, 0x0(a0)
   1ab64: 03 35 85 00  	ld	a0, 0x8(a0)
   1ab68: 83 a6 04 11  	lw	a3, 0x110(s1)
   1ab6c: 03 a7 04 1a  	lw	a4, 0x1a0(s1)
   1ab70: 23 3c e1 00  	sd	a4, 0x18(sp)
   1ab74: 13 89 05 00  	addi	s2, a1, 0x0
   1ab78: 23 30 c4 02  	sd	a2, 0x20(s0)
   1ab7c: 23 34 a4 02  	sd	a0, 0x28(s0)
   1ab80: 63 8c 06 00  	beq	a3, zero, 0x1ab98 <encode_mcu_AC_first+0x50>
   1ab84: 03 25 04 07  	lw	a0, 0x70(s0)
   1ab88: 63 18 05 00  	bne	a0, zero, 0x1ab98 <encode_mcu_AC_first+0x50>
   1ab8c: 83 25 44 07  	lw	a1, 0x74(s0)
   1ab90: 13 05 04 00  	addi	a0, s0, 0x0
   1ab94: ef 00 10 00  	jal	ra, 0x1b394 <emit_restart>
   1ab98: 03 aa 44 19  	lw	s4, 0x194(s1)
   1ab9c: 63 c2 4a 1f  	blt	s5, s4, 0x1ad80 <encode_mcu_AC_first+0x238>
   1aba0: 23 34 91 00  	sd	s1, 0x8(sp)
   1aba4: 93 0b 00 00  	addi	s7, zero, 0x0
   1aba8: 03 36 09 00  	ld	a2, 0x0(s2)
   1abac: 1b 8b 1a 00  	addiw	s6, s5, 0x1
   1abb0: 37 45 03 00  	lui	a0, 0x34
   1abb4: 93 06 85 d7  	addi	a3, a0, -0x288
   1abb8: 13 0c f0 01  	addi	s8, zero, 0x1f
   1abbc: b7 0c ff 00  	lui	s9, 0xff0
   1abc0: 13 0d f0 00  	addi	s10, zero, 0xf
   1abc4: 93 0d 30 00  	addi	s11, zero, 0x3
   1abc8: 23 38 d1 00  	sd	a3, 0x10(sp)
   1abcc: 13 15 2a 00  	slli	a0, s4, 0x2
   1abd0: 33 85 a6 00  	add	a0, a3, a0
   1abd4: 03 25 05 00  	lw	a0, 0x0(a0)
   1abd8: 13 15 15 00  	slli	a0, a0, 0x1
   1abdc: 33 05 a6 00  	add	a0, a2, a0
   1abe0: 03 15 05 00  	lh	a0, 0x0(a0)
   1abe4: 63 02 05 0a  	beq	a0, zero, 0x1ac88 <encode_mcu_AC_first+0x140>
   1abe8: 63 46 05 08  	blt	a0, zero, 0x1ac74 <encode_mcu_AC_first+0x12c>
   1abec: 83 35 81 01  	ld	a1, 0x18(sp)
   1abf0: bb 59 b5 00  	srlw	s3, a0, a1
   1abf4: 93 84 09 00  	addi	s1, s3, 0x0
   1abf8: 63 88 09 08  	beq	s3, zero, 0x1ac88 <encode_mcu_AC_first+0x140>
   1abfc: 93 0a 06 00  	addi	s5, a2, 0x0
   1ac00: 03 25 c4 05  	lw	a0, 0x5c(s0)
   1ac04: 63 06 05 00  	beq	a0, zero, 0x1ac10 <encode_mcu_AC_first+0xc8>
   1ac08: 13 05 04 00  	addi	a0, s0, 0x0
   1ac0c: ef 00 10 17  	jal	ra, 0x1b57c <emit_eobrun>
   1ac10: 13 05 00 01  	addi	a0, zero, 0x10
   1ac14: 63 c0 ab 02  	blt	s7, a0, 0x1ac34 <encode_mcu_AC_first+0xec>
   1ac18: 83 25 84 05  	lw	a1, 0x58(s0)
   1ac1c: 13 89 0b 00  	addi	s2, s7, 0x0
   1ac20: 13 06 00 0f  	addi	a2, zero, 0xf0
   1ac24: 13 05 04 00  	addi	a0, s0, 0x0
   1ac28: ef 00 50 02  	jal	ra, 0x1b44c <emit_symbol>
   1ac2c: 9b 8b 0b ff  	addiw	s7, s7, -0x10
   1ac30: e3 64 2c ff  	bltu	s8, s2, 0x1ac18 <encode_mcu_AC_first+0xd0>
   1ac34: 13 09 10 00  	addi	s2, zero, 0x1
   1ac38: 63 8c 24 01  	beq	s1, s2, 0x1ac50 <encode_mcu_AC_first+0x108>
   1ac3c: 13 09 10 00  	addi	s2, zero, 0x1
   1ac40: 13 85 04 00  	addi	a0, s1, 0x0
   1ac44: 9b d4 14 00  	srliw	s1, s1, 0x1
   1ac48: 13 09 19 00  	addi	s2, s2, 0x1
   1ac4c: e3 ea ad fe  	bltu	s11, a0, 0x1ac40 <encode_mcu_AC_first+0xf8>
   1ac50: 83 25 84 05  	lw	a1, 0x58(s0)
   1ac54: 93 9b 4b 00  	slli	s7, s7, 0x4
   1ac58: 3b 06 79 01  	addw	a2, s2, s7
   1ac5c: 13 05 04 00  	addi	a0, s0, 0x0
   1ac60: ef 00 c0 7e  	jal	ra, 0x1b44c <emit_symbol>
   1ac64: 03 25 84 01  	lw	a0, 0x18(s0)
   1ac68: 63 04 05 02  	beq	a0, zero, 0x1ac90 <encode_mcu_AC_first+0x148>
   1ac6c: 93 0b 00 00  	addi	s7, zero, 0x0
   1ac70: 6f 00 40 0d  	jal	zero, 0x1ad44 <encode_mcu_AC_first+0x1fc>
   1ac74: 3b 05 a0 40  	subw	a0, zero, a0
   1ac78: 83 35 81 01  	ld	a1, 0x18(sp)
   1ac7c: bb 54 b5 00  	srlw	s1, a0, a1
   1ac80: 93 c9 f4 ff  	xori	s3, s1, -0x1
   1ac84: e3 9c 04 f6  	bne	s1, zero, 0x1abfc <encode_mcu_AC_first+0xb4>
   1ac88: 9b 8b 1b 00  	addiw	s7, s7, 0x1
   1ac8c: 6f 00 00 0c  	jal	zero, 0x1ad4c <encode_mcu_AC_first+0x204>
   1ac90: 03 25 84 03  	lw	a0, 0x38(s0)
   1ac94: 93 05 f0 ff  	addi	a1, zero, -0x1
   1ac98: b3 95 25 01  	sll	a1, a1, s2
   1ac9c: 93 c5 f5 ff  	xori	a1, a1, -0x1
   1aca0: b3 f5 b9 00  	and	a1, s3, a1
   1aca4: 93 95 05 02  	slli	a1, a1, 0x20
   1aca8: 93 d5 05 02  	srli	a1, a1, 0x20
   1acac: 03 36 04 03  	ld	a2, 0x30(s0)
   1acb0: 3b 05 25 01  	addw	a0, a0, s2
   1acb4: 93 06 80 01  	addi	a3, zero, 0x18
   1acb8: bb 86 a6 40  	subw	a3, a3, a0
   1acbc: b3 94 d5 00  	sll	s1, a1, a3
   1acc0: b3 e4 c4 00  	or	s1, s1, a2
   1acc4: 93 05 80 00  	addi	a1, zero, 0x8
   1acc8: 63 48 b5 06  	blt	a0, a1, 0x1ad38 <encode_mcu_AC_first+0x1f0>
   1accc: 83 35 04 02  	ld	a1, 0x20(s0)
   1acd0: 13 d6 04 01  	srli	a2, s1, 0x10
   1acd4: 93 86 15 00  	addi	a3, a1, 0x1
   1acd8: 23 30 d4 02  	sd	a3, 0x20(s0)
   1acdc: 23 80 c5 00  	sb	a2, 0x0(a1)
   1ace0: 83 35 84 02  	ld	a1, 0x28(s0)
   1ace4: 13 09 05 00  	addi	s2, a0, 0x0
   1ace8: 93 85 f5 ff  	addi	a1, a1, -0x1
   1acec: 23 34 b4 02  	sd	a1, 0x28(s0)
   1acf0: 63 96 05 00  	bne	a1, zero, 0x1acfc <encode_mcu_AC_first+0x1b4>
   1acf4: 13 05 04 00  	addi	a0, s0, 0x0
   1acf8: ef 00 90 24  	jal	ra, 0x1b740 <dump_buffer>
   1acfc: 33 f5 94 01  	and	a0, s1, s9
   1ad00: 63 16 95 03  	bne	a0, s9, 0x1ad2c <encode_mcu_AC_first+0x1e4>
   1ad04: 03 35 04 02  	ld	a0, 0x20(s0)
   1ad08: 93 05 15 00  	addi	a1, a0, 0x1
   1ad0c: 23 30 b4 02  	sd	a1, 0x20(s0)
   1ad10: 23 00 05 00  	sb	zero, 0x0(a0)
   1ad14: 03 35 84 02  	ld	a0, 0x28(s0)
   1ad18: 13 05 f5 ff  	addi	a0, a0, -0x1
   1ad1c: 23 34 a4 02  	sd	a0, 0x28(s0)
   1ad20: 63 16 05 00  	bne	a0, zero, 0x1ad2c <encode_mcu_AC_first+0x1e4>
   1ad24: 13 05 04 00  	addi	a0, s0, 0x0
   1ad28: ef 00 90 21  	jal	ra, 0x1b740 <dump_buffer>
   1ad2c: 93 94 84 00  	slli	s1, s1, 0x8
   1ad30: 1b 05 89 ff  	addiw	a0, s2, -0x8
   1ad34: e3 4c 2d f9  	blt	s10, s2, 0x1accc <encode_mcu_AC_first+0x184>
   1ad38: 93 0b 00 00  	addi	s7, zero, 0x0
   1ad3c: 23 38 94 02  	sd	s1, 0x30(s0)
   1ad40: 23 2c a4 02  	sw	a0, 0x38(s0)
   1ad44: 13 86 0a 00  	addi	a2, s5, 0x0
   1ad48: 83 36 01 01  	ld	a3, 0x10(sp)
   1ad4c: 1b 05 1a 00  	addiw	a0, s4, 0x1
   1ad50: 13 0a 1a 00  	addi	s4, s4, 0x1
   1ad54: e3 1c ab e6  	bne	s6, a0, 0x1abcc <encode_mcu_AC_first+0x84>
   1ad58: 83 34 81 00  	ld	s1, 0x8(sp)
   1ad5c: 63 52 70 03  	bge	zero, s7, 0x1ad80 <encode_mcu_AC_first+0x238>
   1ad60: 03 25 c4 05  	lw	a0, 0x5c(s0)
   1ad64: 1b 05 15 00  	addiw	a0, a0, 0x1
   1ad68: b7 85 00 00  	lui	a1, 0x8
   1ad6c: 9b 85 f5 ff  	addiw	a1, a1, -0x1
   1ad70: 23 2e a4 04  	sw	a0, 0x5c(s0)
   1ad74: 63 16 b5 00  	bne	a0, a1, 0x1ad80 <encode_mcu_AC_first+0x238>
   1ad78: 13 05 04 00  	addi	a0, s0, 0x0
   1ad7c: ef 00 10 00  	jal	ra, 0x1b57c <emit_eobrun>
   1ad80: 83 35 04 02  	ld	a1, 0x20(s0)
   1ad84: 03 b6 04 02  	ld	a2, 0x20(s1)
   1ad88: 83 36 84 02  	ld	a3, 0x28(s0)
   1ad8c: 03 a5 04 11  	lw	a0, 0x110(s1)
   1ad90: 23 30 b6 00  	sd	a1, 0x0(a2)
   1ad94: 23 34 d6 00  	sd	a3, 0x8(a2)
   1ad98: 63 04 05 02  	beq	a0, zero, 0x1adc0 <encode_mcu_AC_first+0x278>
   1ad9c: 83 25 04 07  	lw	a1, 0x70(s0)
   1ada0: 63 9c 05 00  	bne	a1, zero, 0x1adb8 <encode_mcu_AC_first+0x270>
   1ada4: 83 25 44 07  	lw	a1, 0x74(s0)
   1ada8: 93 85 15 00  	addi	a1, a1, 0x1
   1adac: 93 f5 75 00  	andi	a1, a1, 0x7
   1adb0: 23 2a b4 06  	sw	a1, 0x74(s0)
   1adb4: 93 05 05 00  	addi	a1, a0, 0x0
   1adb8: 93 85 f5 ff  	addi	a1, a1, -0x1
   1adbc: 23 28 b4 06  	sw	a1, 0x70(s0)
   1adc0: 13 05 10 00  	addi	a0, zero, 0x1
   1adc4: 13 01 01 02  	addi	sp, sp, 0x20
   1adc8: 6f 60 11 34  	jal	zero, 0x31908 <__riscv_restore_12>

000000000001adcc <encode_mcu_DC_refine>:
   1adcc: ef 62 b1 2f  	jal	t0, 0x318c6 <__riscv_save_11>
   1add0: 93 04 05 00  	addi	s1, a0, 0x0
   1add4: 03 35 05 02  	ld	a0, 0x20(a0)
   1add8: 03 b4 84 1e  	ld	s0, 0x1e8(s1)
   1addc: 03 36 05 00  	ld	a2, 0x0(a0)
   1ade0: 03 35 85 00  	ld	a0, 0x8(a0)
   1ade4: 83 a6 04 11  	lw	a3, 0x110(s1)
   1ade8: 83 a9 04 1a  	lw	s3, 0x1a0(s1)
   1adec: 13 89 05 00  	addi	s2, a1, 0x0
   1adf0: 23 30 c4 02  	sd	a2, 0x20(s0)
   1adf4: 23 34 a4 02  	sd	a0, 0x28(s0)
   1adf8: 63 8c 06 00  	beq	a3, zero, 0x1ae10 <encode_mcu_DC_refine+0x44>
   1adfc: 03 25 04 07  	lw	a0, 0x70(s0)
   1ae00: 63 18 05 00  	bne	a0, zero, 0x1ae10 <encode_mcu_DC_refine+0x44>
   1ae04: 83 25 44 07  	lw	a1, 0x74(s0)
   1ae08: 13 05 04 00  	addi	a0, s0, 0x0
   1ae0c: ef 00 80 58  	jal	ra, 0x1b394 <emit_restart>
   1ae10: 03 a5 84 16  	lw	a0, 0x168(s1)
   1ae14: 63 5e a0 0c  	bge	zero, a0, 0x1aef0 <encode_mcu_DC_refine+0x124>
   1ae18: 13 0a 00 00  	addi	s4, zero, 0x0
   1ae1c: 93 0a 70 01  	addi	s5, zero, 0x17
   1ae20: 13 0b 70 00  	addi	s6, zero, 0x7
   1ae24: b7 0b ff 00  	lui	s7, 0xff0
   1ae28: 13 0c f0 00  	addi	s8, zero, 0xf
   1ae2c: 83 25 84 01  	lw	a1, 0x18(s0)
   1ae30: 63 9c 05 0a  	bne	a1, zero, 0x1aee8 <encode_mcu_DC_refine+0x11c>
   1ae34: 93 15 3a 00  	slli	a1, s4, 0x3
   1ae38: b3 05 b9 00  	add	a1, s2, a1
   1ae3c: 83 b5 05 00  	ld	a1, 0x0(a1)
   1ae40: 83 95 05 00  	lh	a1, 0x0(a1)
   1ae44: 03 2d 84 03  	lw	s10, 0x38(s0)
   1ae48: bb d5 35 01  	srlw	a1, a1, s3
   1ae4c: 03 36 04 03  	ld	a2, 0x30(s0)
   1ae50: 93 f5 15 00  	andi	a1, a1, 0x1
   1ae54: bb 86 aa 41  	subw	a3, s5, s10
   1ae58: b3 95 d5 00  	sll	a1, a1, a3
   1ae5c: b3 ec c5 00  	or	s9, a1, a2
   1ae60: 63 4e 6d 07  	blt	s10, s6, 0x1aedc <encode_mcu_DC_refine+0x110>
   1ae64: 13 0d 9d 00  	addi	s10, s10, 0x9
   1ae68: 03 35 04 02  	ld	a0, 0x20(s0)
   1ae6c: 93 d5 0c 01  	srli	a1, s9, 0x10
   1ae70: 13 06 15 00  	addi	a2, a0, 0x1
   1ae74: 23 30 c4 02  	sd	a2, 0x20(s0)
   1ae78: 23 00 b5 00  	sb	a1, 0x0(a0)
   1ae7c: 03 35 84 02  	ld	a0, 0x28(s0)
   1ae80: 13 05 f5 ff  	addi	a0, a0, -0x1
   1ae84: 23 34 a4 02  	sd	a0, 0x28(s0)
   1ae88: 63 16 05 00  	bne	a0, zero, 0x1ae94 <encode_mcu_DC_refine+0xc8>
   1ae8c: 13 05 04 00  	addi	a0, s0, 0x0
   1ae90: ef 00 10 0b  	jal	ra, 0x1b740 <dump_buffer>
   1ae94: 33 f5 7c 01  	and	a0, s9, s7
   1ae98: 63 16 75 03  	bne	a0, s7, 0x1aec4 <encode_mcu_DC_refine+0xf8>
   1ae9c: 03 35 04 02  	ld	a0, 0x20(s0)
   1aea0: 93 05 15 00  	addi	a1, a0, 0x1
   1aea4: 23 30 b4 02  	sd	a1, 0x20(s0)
   1aea8: 23 00 05 00  	sb	zero, 0x0(a0)
   1aeac: 03 35 84 02  	ld	a0, 0x28(s0)
   1aeb0: 13 05 f5 ff  	addi	a0, a0, -0x1
   1aeb4: 23 34 a4 02  	sd	a0, 0x28(s0)
   1aeb8: 63 16 05 00  	bne	a0, zero, 0x1aec4 <encode_mcu_DC_refine+0xf8>
   1aebc: 13 05 04 00  	addi	a0, s0, 0x0
   1aec0: ef 00 10 08  	jal	ra, 0x1b740 <dump_buffer>
   1aec4: 1b 0d 8d ff  	addiw	s10, s10, -0x8
   1aec8: 93 9c 8c 00  	slli	s9, s9, 0x8
   1aecc: e3 4e ac f9  	blt	s8, s10, 0x1ae68 <encode_mcu_DC_refine+0x9c>
   1aed0: 03 a5 84 16  	lw	a0, 0x168(s1)
   1aed4: 13 0d 8d ff  	addi	s10, s10, -0x8
   1aed8: 6f 00 80 00  	jal	zero, 0x1aee0 <encode_mcu_DC_refine+0x114>
   1aedc: 13 0d 1d 00  	addi	s10, s10, 0x1
   1aee0: 23 38 94 03  	sd	s9, 0x30(s0)
   1aee4: 23 2c a4 03  	sw	s10, 0x38(s0)
   1aee8: 13 0a 1a 00  	addi	s4, s4, 0x1
   1aeec: e3 40 aa f4  	blt	s4, a0, 0x1ae2c <encode_mcu_DC_refine+0x60>
   1aef0: 83 35 04 02  	ld	a1, 0x20(s0)
   1aef4: 03 b6 04 02  	ld	a2, 0x20(s1)
   1aef8: 83 36 84 02  	ld	a3, 0x28(s0)
   1aefc: 03 a5 04 11  	lw	a0, 0x110(s1)
   1af00: 23 30 b6 00  	sd	a1, 0x0(a2)
   1af04: 23 34 d6 00  	sd	a3, 0x8(a2)
   1af08: 63 04 05 02  	beq	a0, zero, 0x1af30 <encode_mcu_DC_refine+0x164>
   1af0c: 83 25 04 07  	lw	a1, 0x70(s0)
   1af10: 63 9c 05 00  	bne	a1, zero, 0x1af28 <encode_mcu_DC_refine+0x15c>
   1af14: 83 25 44 07  	lw	a1, 0x74(s0)
   1af18: 93 85 15 00  	addi	a1, a1, 0x1
   1af1c: 93 f5 75 00  	andi	a1, a1, 0x7
   1af20: 23 2a b4 06  	sw	a1, 0x74(s0)
   1af24: 93 05 05 00  	addi	a1, a0, 0x0
   1af28: 93 85 f5 ff  	addi	a1, a1, -0x1
   1af2c: 23 28 b4 06  	sw	a1, 0x70(s0)
   1af30: 13 05 10 00  	addi	a0, zero, 0x1
   1af34: 6f 60 91 1d  	jal	zero, 0x3190c <__riscv_restore_11>

000000000001af38 <encode_mcu_AC_refine>:
   1af38: ef 62 71 18  	jal	t0, 0x318be <__riscv_save_12>
   1af3c: 13 01 01 ee  	addi	sp, sp, -0x120
   1af40: 13 0b 05 00  	addi	s6, a0, 0x0
   1af44: 03 35 05 02  	ld	a0, 0x20(a0)
   1af48: 03 34 8b 1e  	ld	s0, 0x1e8(s6)
   1af4c: 83 24 8b 19  	lw	s1, 0x198(s6)
   1af50: 03 36 05 00  	ld	a2, 0x0(a0)
   1af54: 03 35 85 00  	ld	a0, 0x8(a0)
   1af58: 83 26 0b 11  	lw	a3, 0x110(s6)
   1af5c: 83 29 0b 1a  	lw	s3, 0x1a0(s6)
   1af60: 13 89 05 00  	addi	s2, a1, 0x0
   1af64: 23 30 c4 02  	sd	a2, 0x20(s0)
   1af68: 23 34 a4 02  	sd	a0, 0x28(s0)
   1af6c: 63 8c 06 00  	beq	a3, zero, 0x1af84 <encode_mcu_AC_refine+0x4c>
   1af70: 03 25 04 07  	lw	a0, 0x70(s0)
   1af74: 63 18 05 00  	bne	a0, zero, 0x1af84 <encode_mcu_AC_refine+0x4c>
   1af78: 83 25 44 07  	lw	a1, 0x74(s0)
   1af7c: 13 05 04 00  	addi	a0, s0, 0x0
   1af80: ef 00 40 41  	jal	ra, 0x1b394 <emit_restart>
   1af84: 83 2a 4b 19  	lw	s5, 0x194(s6)
   1af88: 63 cc 54 07  	blt	s1, s5, 0x1b000 <encode_mcu_AC_refine+0xc8>
   1af8c: 13 07 00 00  	addi	a4, zero, 0x0
   1af90: 83 38 09 00  	ld	a7, 0x0(s2)
   1af94: 9b 8b 14 00  	addiw	s7, s1, 0x1
   1af98: 93 95 2a 00  	slli	a1, s5, 0x2
   1af9c: 37 45 03 00  	lui	a0, 0x34
   1afa0: 13 05 85 d7  	addi	a0, a0, -0x288
   1afa4: 33 05 b5 00  	add	a0, a0, a1
   1afa8: 13 06 01 02  	addi	a2, sp, 0x20
   1afac: b3 05 b6 00  	add	a1, a2, a1
   1afb0: 13 06 10 00  	addi	a2, zero, 0x1
   1afb4: 93 86 0a 00  	addi	a3, s5, 0x0
   1afb8: 83 27 05 00  	lw	a5, 0x0(a0)
   1afbc: 93 97 17 00  	slli	a5, a5, 0x1
   1afc0: b3 87 f8 00  	add	a5, a7, a5
   1afc4: 83 97 07 00  	lh	a5, 0x0(a5)
   1afc8: 13 d8 f7 43  	srai	a6, a5, 0x3f
   1afcc: b3 c7 07 01  	xor	a5, a5, a6
   1afd0: bb 87 07 41  	subw	a5, a5, a6
   1afd4: bb d7 37 01  	srlw	a5, a5, s3
   1afd8: 23 a0 f5 00  	sw	a5, 0x0(a1)
   1afdc: 13 8c 06 00  	addi	s8, a3, 0x0
   1afe0: 63 84 c7 00  	beq	a5, a2, 0x1afe8 <encode_mcu_AC_refine+0xb0>
   1afe4: 13 0c 07 00  	addi	s8, a4, 0x0
   1afe8: 13 05 45 00  	addi	a0, a0, 0x4
   1afec: 9b 86 16 00  	addiw	a3, a3, 0x1
   1aff0: 93 85 45 00  	addi	a1, a1, 0x4
   1aff4: 13 07 0c 00  	addi	a4, s8, 0x0
   1aff8: e3 90 db fc  	bne	s7, a3, 0x1afb8 <encode_mcu_AC_refine+0x80>
   1affc: 63 da 54 01  	bge	s1, s5, 0x1b010 <encode_mcu_AC_refine+0xd8>
   1b000: 13 0a 00 00  	addi	s4, zero, 0x0
   1b004: 13 05 00 00  	addi	a0, zero, 0x0
   1b008: 63 08 00 1e  	beq	zero, zero, 0x1b1f8 <encode_mcu_AC_refine+0x2c0>
   1b00c: 6f 00 00 1f  	jal	zero, 0x1b1fc <encode_mcu_AC_refine+0x2c4>
   1b010: 23 3c 11 01  	sd	a7, 0x18(sp)
   1b014: 23 34 61 01  	sd	s6, 0x8(sp)
   1b018: 03 39 84 06  	ld	s2, 0x68(s0)
   1b01c: 03 65 04 06  	lwu	a0, 0x60(s0)
   1b020: 13 0d 00 00  	addi	s10, zero, 0x0
   1b024: 13 0a 00 00  	addi	s4, zero, 0x0
   1b028: 33 09 a9 00  	add	s2, s2, a0
   1b02c: 93 0d f0 01  	addi	s11, zero, 0x1f
   1b030: 37 45 03 00  	lui	a0, 0x34
   1b034: 13 05 85 d7  	addi	a0, a0, -0x288
   1b038: 23 38 a1 00  	sd	a0, 0x10(sp)
   1b03c: 93 9c 2a 00  	slli	s9, s5, 0x2
   1b040: 13 05 01 02  	addi	a0, sp, 0x20
   1b044: 33 05 95 01  	add	a0, a0, s9
   1b048: 03 2b 05 00  	lw	s6, 0x0(a0)
   1b04c: 63 0c 0b 04  	beq	s6, zero, 0x1b0a4 <encode_mcu_AC_refine+0x16c>
   1b050: 13 05 00 01  	addi	a0, zero, 0x10
   1b054: 63 4c ad 04  	blt	s10, a0, 0x1b0ac <encode_mcu_AC_refine+0x174>
   1b058: 93 09 0a 00  	addi	s3, s4, 0x0
   1b05c: 63 4a 5c 05  	blt	s8, s5, 0x1b0b0 <encode_mcu_AC_refine+0x178>
   1b060: 93 04 0d 00  	addi	s1, s10, 0x0
   1b064: 13 05 04 00  	addi	a0, s0, 0x0
   1b068: ef 00 40 51  	jal	ra, 0x1b57c <emit_eobrun>
   1b06c: 83 25 84 05  	lw	a1, 0x58(s0)
   1b070: 13 06 00 0f  	addi	a2, zero, 0xf0
   1b074: 13 05 04 00  	addi	a0, s0, 0x0
   1b078: ef 00 40 3d  	jal	ra, 0x1b44c <emit_symbol>
   1b07c: 1b 0d 0d ff  	addiw	s10, s10, -0x10
   1b080: 13 05 04 00  	addi	a0, s0, 0x0
   1b084: 93 05 09 00  	addi	a1, s2, 0x0
   1b088: 13 06 0a 00  	addi	a2, s4, 0x0
   1b08c: ef 00 c0 6f  	jal	ra, 0x1b788 <emit_buffered_bits>
   1b090: 03 39 84 06  	ld	s2, 0x68(s0)
   1b094: 13 0a 00 00  	addi	s4, zero, 0x0
   1b098: 93 09 00 00  	addi	s3, zero, 0x0
   1b09c: e3 e2 9d fc  	bltu	s11, s1, 0x1b060 <encode_mcu_AC_refine+0x128>
   1b0a0: 6f 00 00 01  	jal	zero, 0x1b0b0 <encode_mcu_AC_refine+0x178>
   1b0a4: 1b 0d 1d 00  	addiw	s10, s10, 0x1
   1b0a8: 6f 00 80 13  	jal	zero, 0x1b1e0 <encode_mcu_AC_refine+0x2a8>
   1b0ac: 93 09 0a 00  	addi	s3, s4, 0x0
   1b0b0: 13 05 20 00  	addi	a0, zero, 0x2
   1b0b4: 63 40 ab 02  	blt	s6, a0, 0x1b0d4 <encode_mcu_AC_refine+0x19c>
   1b0b8: 13 75 1b 00  	andi	a0, s6, 0x1
   1b0bc: 1b 8a 19 00  	addiw	s4, s3, 0x1
   1b0c0: 93 99 09 02  	slli	s3, s3, 0x20
   1b0c4: 93 d5 09 02  	srli	a1, s3, 0x20
   1b0c8: b3 05 b9 00  	add	a1, s2, a1
   1b0cc: 23 80 a5 00  	sb	a0, 0x0(a1)
   1b0d0: 6f 00 00 11  	jal	zero, 0x1b1e0 <encode_mcu_AC_refine+0x2a8>
   1b0d4: 13 05 04 00  	addi	a0, s0, 0x0
   1b0d8: ef 00 40 4a  	jal	ra, 0x1b57c <emit_eobrun>
   1b0dc: 83 25 84 05  	lw	a1, 0x58(s0)
   1b0e0: 1b 16 4d 00  	slliw	a2, s10, 0x4
   1b0e4: 13 06 16 00  	addi	a2, a2, 0x1
   1b0e8: 13 05 04 00  	addi	a0, s0, 0x0
   1b0ec: ef 00 00 36  	jal	ra, 0x1b44c <emit_symbol>
   1b0f0: 03 25 84 01  	lw	a0, 0x18(s0)
   1b0f4: 63 18 05 0c  	bne	a0, zero, 0x1b1c4 <encode_mcu_AC_refine+0x28c>
   1b0f8: 03 35 01 01  	ld	a0, 0x10(sp)
   1b0fc: b3 0c 95 01  	add	s9, a0, s9
   1b100: 03 a5 0c 00  	lw	a0, 0x0(s9)
   1b104: 13 15 15 00  	slli	a0, a0, 0x1
   1b108: 83 35 81 01  	ld	a1, 0x18(sp)
   1b10c: 33 85 a5 00  	add	a0, a1, a0
   1b110: 03 15 05 00  	lh	a0, 0x0(a0)
   1b114: 03 2a 84 03  	lw	s4, 0x38(s0)
   1b118: 13 25 05 00  	slti	a0, a0, 0x0
   1b11c: 83 35 04 03  	ld	a1, 0x30(s0)
   1b120: 13 45 15 00  	xori	a0, a0, 0x1
   1b124: 13 06 70 01  	addi	a2, zero, 0x17
   1b128: 3b 06 46 41  	subw	a2, a2, s4
   1b12c: b3 14 c5 00  	sll	s1, a0, a2
   1b130: b3 e4 b4 00  	or	s1, s1, a1
   1b134: 13 05 70 00  	addi	a0, zero, 0x7
   1b138: 63 40 aa 08  	blt	s4, a0, 0x1b1b8 <encode_mcu_AC_refine+0x280>
   1b13c: 13 0a 9a 00  	addi	s4, s4, 0x9
   1b140: 37 0b ff 00  	lui	s6, 0xff0
   1b144: 93 0c f0 00  	addi	s9, zero, 0xf
   1b148: 03 35 04 02  	ld	a0, 0x20(s0)
   1b14c: 93 d5 04 01  	srli	a1, s1, 0x10
   1b150: 13 06 15 00  	addi	a2, a0, 0x1
   1b154: 23 30 c4 02  	sd	a2, 0x20(s0)
   1b158: 23 00 b5 00  	sb	a1, 0x0(a0)
   1b15c: 03 35 84 02  	ld	a0, 0x28(s0)
   1b160: 13 05 f5 ff  	addi	a0, a0, -0x1
   1b164: 23 34 a4 02  	sd	a0, 0x28(s0)
   1b168: 63 16 05 00  	bne	a0, zero, 0x1b174 <encode_mcu_AC_refine+0x23c>
   1b16c: 13 05 04 00  	addi	a0, s0, 0x0
   1b170: ef 00 00 5d  	jal	ra, 0x1b740 <dump_buffer>
   1b174: 33 f5 64 01  	and	a0, s1, s6
   1b178: 63 16 65 03  	bne	a0, s6, 0x1b1a4 <encode_mcu_AC_refine+0x26c>
   1b17c: 03 35 04 02  	ld	a0, 0x20(s0)
   1b180: 93 05 15 00  	addi	a1, a0, 0x1
   1b184: 23 30 b4 02  	sd	a1, 0x20(s0)
   1b188: 23 00 05 00  	sb	zero, 0x0(a0)
   1b18c: 03 35 84 02  	ld	a0, 0x28(s0)
   1b190: 13 05 f5 ff  	addi	a0, a0, -0x1
   1b194: 23 34 a4 02  	sd	a0, 0x28(s0)
   1b198: 63 16 05 00  	bne	a0, zero, 0x1b1a4 <encode_mcu_AC_refine+0x26c>
   1b19c: 13 05 04 00  	addi	a0, s0, 0x0
   1b1a0: ef 00 00 5a  	jal	ra, 0x1b740 <dump_buffer>
   1b1a4: 1b 0a 8a ff  	addiw	s4, s4, -0x8
   1b1a8: 93 94 84 00  	slli	s1, s1, 0x8
   1b1ac: e3 ce 4c f9  	blt	s9, s4, 0x1b148 <encode_mcu_AC_refine+0x210>
   1b1b0: 13 0a 8a ff  	addi	s4, s4, -0x8
   1b1b4: 6f 00 80 00  	jal	zero, 0x1b1bc <encode_mcu_AC_refine+0x284>
   1b1b8: 13 0a 1a 00  	addi	s4, s4, 0x1
   1b1bc: 23 38 94 02  	sd	s1, 0x30(s0)
   1b1c0: 23 2c 44 03  	sw	s4, 0x38(s0)
   1b1c4: 13 05 04 00  	addi	a0, s0, 0x0
   1b1c8: 93 05 09 00  	addi	a1, s2, 0x0
   1b1cc: 13 86 09 00  	addi	a2, s3, 0x0
   1b1d0: ef 00 80 5b  	jal	ra, 0x1b788 <emit_buffered_bits>
   1b1d4: 03 39 84 06  	ld	s2, 0x68(s0)
   1b1d8: 13 0a 00 00  	addi	s4, zero, 0x0
   1b1dc: 13 0d 00 00  	addi	s10, zero, 0x0
   1b1e0: 1b 85 1a 00  	addiw	a0, s5, 0x1
   1b1e4: 93 8a 1a 00  	addi	s5, s5, 0x1
   1b1e8: e3 9a ab e4  	bne	s7, a0, 0x1b03c <encode_mcu_AC_refine+0x104>
   1b1ec: 33 25 a0 01  	slt	a0, zero, s10
   1b1f0: 03 3b 81 00  	ld	s6, 0x8(sp)
   1b1f4: 63 14 05 00  	bne	a0, zero, 0x1b1fc <encode_mcu_AC_refine+0x2c4>
   1b1f8: 63 0c 0a 02  	beq	s4, zero, 0x1b230 <encode_mcu_AC_refine+0x2f8>
   1b1fc: 03 25 c4 05  	lw	a0, 0x5c(s0)
   1b200: 83 25 04 06  	lw	a1, 0x60(s0)
   1b204: 1b 06 15 00  	addiw	a2, a0, 0x1
   1b208: 23 2e c4 04  	sw	a2, 0x5c(s0)
   1b20c: 3b 85 45 01  	addw	a0, a1, s4
   1b210: b7 85 00 00  	lui	a1, 0x8
   1b214: 9b 85 f5 ff  	addiw	a1, a1, -0x1
   1b218: 23 20 a4 06  	sw	a0, 0x60(s0)
   1b21c: 63 06 b6 00  	beq	a2, a1, 0x1b228 <encode_mcu_AC_refine+0x2f0>
   1b220: 93 05 a0 3a  	addi	a1, zero, 0x3aa
   1b224: 63 66 b5 00  	bltu	a0, a1, 0x1b230 <encode_mcu_AC_refine+0x2f8>
   1b228: 13 05 04 00  	addi	a0, s0, 0x0
   1b22c: ef 00 00 35  	jal	ra, 0x1b57c <emit_eobrun>
   1b230: 83 35 04 02  	ld	a1, 0x20(s0)
   1b234: 03 36 0b 02  	ld	a2, 0x20(s6)
   1b238: 83 36 84 02  	ld	a3, 0x28(s0)
   1b23c: 03 25 0b 11  	lw	a0, 0x110(s6)
   1b240: 23 30 b6 00  	sd	a1, 0x0(a2)
   1b244: 23 34 d6 00  	sd	a3, 0x8(a2)
   1b248: 63 04 05 02  	beq	a0, zero, 0x1b270 <encode_mcu_AC_refine+0x338>
   1b24c: 83 25 04 07  	lw	a1, 0x70(s0)
   1b250: 63 9c 05 00  	bne	a1, zero, 0x1b268 <encode_mcu_AC_refine+0x330>
   1b254: 83 25 44 07  	lw	a1, 0x74(s0)
   1b258: 93 85 15 00  	addi	a1, a1, 0x1
   1b25c: 93 f5 75 00  	andi	a1, a1, 0x7
   1b260: 23 2a b4 06  	sw	a1, 0x74(s0)
   1b264: 93 05 05 00  	addi	a1, a0, 0x0
   1b268: 93 85 f5 ff  	addi	a1, a1, -0x1
   1b26c: 23 28 b4 06  	sw	a1, 0x70(s0)
   1b270: 13 05 10 00  	addi	a0, zero, 0x1
   1b274: 13 01 01 12  	addi	sp, sp, 0x120
   1b278: 6f 60 01 69  	jal	zero, 0x31908 <__riscv_restore_12>

000000000001b27c <finish_pass_gather_phuff>:
   1b27c: ef 62 a1 64  	jal	t0, 0x318c6 <__riscv_save_11>
   1b280: 13 01 01 ff  	addi	sp, sp, -0x10
   1b284: 13 04 05 00  	addi	s0, a0, 0x0
   1b288: 83 34 85 1e  	ld	s1, 0x1e8(a0)
   1b28c: 13 85 04 00  	addi	a0, s1, 0x0
   1b290: ef 00 c0 2e  	jal	ra, 0x1b57c <emit_eobrun>
   1b294: 03 25 c4 13  	lw	a0, 0x13c(s0)
   1b298: 03 29 44 19  	lw	s2, 0x194(s0)
   1b29c: 23 30 01 00  	sd	zero, 0x0(sp)
   1b2a0: 23 34 01 00  	sd	zero, 0x8(sp)
   1b2a4: 63 50 a0 0a  	bge	zero, a0, 0x1b344 <finish_pass_gather_phuff+0xc8>
   1b2a8: 93 09 00 00  	addi	s3, zero, 0x0
   1b2ac: 13 0a 04 14  	addi	s4, s0, 0x140
   1b2b0: 93 0a 01 00  	addi	s5, sp, 0x0
   1b2b4: 13 0b 10 00  	addi	s6, zero, 0x1
   1b2b8: 83 35 0a 00  	ld	a1, 0x0(s4)
   1b2bc: 63 04 09 06  	beq	s2, zero, 0x1b324 <finish_pass_gather_phuff+0xa8>
   1b2c0: 93 85 85 01  	addi	a1, a1, 0x18
   1b2c4: 03 ac 05 00  	lw	s8, 0x0(a1)
   1b2c8: 93 1b 2c 00  	slli	s7, s8, 0x2
   1b2cc: b3 8b 7a 01  	add	s7, s5, s7
   1b2d0: 83 a5 0b 00  	lw	a1, 0x0(s7)
   1b2d4: 63 9c 05 04  	bne	a1, zero, 0x1b32c <finish_pass_gather_phuff+0xb0>
   1b2d8: 13 05 80 07  	addi	a0, zero, 0x78
   1b2dc: 63 04 09 00  	beq	s2, zero, 0x1b2e4 <finish_pass_gather_phuff+0x68>
   1b2e0: 13 05 80 09  	addi	a0, zero, 0x98
   1b2e4: 13 1c 3c 00  	slli	s8, s8, 0x3
   1b2e8: 33 05 a4 00  	add	a0, s0, a0
   1b2ec: b3 0c 85 01  	add	s9, a0, s8
   1b2f0: 83 b5 0c 00  	ld	a1, 0x0(s9)
   1b2f4: 63 9a 05 00  	bne	a1, zero, 0x1b308 <finish_pass_gather_phuff+0x8c>
   1b2f8: 13 05 04 00  	addi	a0, s0, 0x0
   1b2fc: ef 10 00 3d  	jal	ra, 0x1c6cc <jpeg_alloc_huff_table>
   1b300: 93 05 05 00  	addi	a1, a0, 0x0
   1b304: 23 b0 ac 00  	sd	a0, 0x0(s9)
   1b308: 33 8c 84 01  	add	s8, s1, s8
   1b30c: 03 36 8c 09  	ld	a2, 0x98(s8)
   1b310: 13 05 04 00  	addi	a0, s0, 0x0
   1b314: ef e0 8f 8f  	jal	ra, 0x1940c <jpeg_gen_optimal_table>
   1b318: 03 25 c4 13  	lw	a0, 0x13c(s0)
   1b31c: 23 a0 6b 01  	sw	s6, 0x0(s7)
   1b320: 6f 00 c0 00  	jal	zero, 0x1b32c <finish_pass_gather_phuff+0xb0>
   1b324: 03 26 c4 19  	lw	a2, 0x19c(s0)
   1b328: 63 0a 06 00  	beq	a2, zero, 0x1b33c <finish_pass_gather_phuff+0xc0>
   1b32c: 93 89 19 00  	addi	s3, s3, 0x1
   1b330: 13 0a 8a 00  	addi	s4, s4, 0x8
   1b334: e3 c2 a9 f8  	blt	s3, a0, 0x1b2b8 <finish_pass_gather_phuff+0x3c>
   1b338: 6f 00 c0 00  	jal	zero, 0x1b344 <finish_pass_gather_phuff+0xc8>
   1b33c: 93 85 45 01  	addi	a1, a1, 0x14
   1b340: 6f f0 5f f8  	jal	zero, 0x1b2c4 <finish_pass_gather_phuff+0x48>
   1b344: 13 01 01 01  	addi	sp, sp, 0x10
   1b348: 6f 60 41 5c  	jal	zero, 0x3190c <__riscv_restore_11>

000000000001b34c <finish_pass_phuff>:
   1b34c: ef 62 21 5a  	jal	t0, 0x318ee <__riscv_save_3>
   1b350: 13 04 05 00  	addi	s0, a0, 0x0
   1b354: 03 35 05 02  	ld	a0, 0x20(a0)
   1b358: 83 34 84 1e  	ld	s1, 0x1e8(s0)
   1b35c: 83 35 05 00  	ld	a1, 0x0(a0)
   1b360: 03 35 85 00  	ld	a0, 0x8(a0)
   1b364: 23 b0 b4 02  	sd	a1, 0x20(s1)
   1b368: 23 b4 a4 02  	sd	a0, 0x28(s1)
   1b36c: 13 85 04 00  	addi	a0, s1, 0x0
   1b370: ef 00 c0 20  	jal	ra, 0x1b57c <emit_eobrun>
   1b374: 13 85 04 00  	addi	a0, s1, 0x0
   1b378: ef 00 80 31  	jal	ra, 0x1b690 <flush_bits>
   1b37c: 03 b5 04 02  	ld	a0, 0x20(s1)
   1b380: 83 35 04 02  	ld	a1, 0x20(s0)
   1b384: 03 b6 84 02  	ld	a2, 0x28(s1)
   1b388: 23 b0 a5 00  	sd	a0, 0x0(a1)
   1b38c: 23 b4 c5 00  	sd	a2, 0x8(a1)
   1b390: 6f 60 41 59  	jal	zero, 0x31924 <__riscv_restore_3>

000000000001b394 <emit_restart>:
   1b394: ef 62 a1 55  	jal	t0, 0x318ee <__riscv_save_3>
   1b398: 93 84 05 00  	addi	s1, a1, 0x0
   1b39c: 13 04 05 00  	addi	s0, a0, 0x0
   1b3a0: ef 00 c0 1d  	jal	ra, 0x1b57c <emit_eobrun>
   1b3a4: 03 25 84 01  	lw	a0, 0x18(s0)
   1b3a8: 63 12 05 06  	bne	a0, zero, 0x1b40c <emit_restart+0x78>
   1b3ac: 13 05 04 00  	addi	a0, s0, 0x0
   1b3b0: ef 00 00 2e  	jal	ra, 0x1b690 <flush_bits>
   1b3b4: 03 35 04 02  	ld	a0, 0x20(s0)
   1b3b8: 93 05 15 00  	addi	a1, a0, 0x1
   1b3bc: 23 30 b4 02  	sd	a1, 0x20(s0)
   1b3c0: 93 05 f0 0f  	addi	a1, zero, 0xff
   1b3c4: 23 00 b5 00  	sb	a1, 0x0(a0)
   1b3c8: 03 35 84 02  	ld	a0, 0x28(s0)
   1b3cc: 13 05 f5 ff  	addi	a0, a0, -0x1
   1b3d0: 23 34 a4 02  	sd	a0, 0x28(s0)
   1b3d4: 63 16 05 00  	bne	a0, zero, 0x1b3e0 <emit_restart+0x4c>
   1b3d8: 13 05 04 00  	addi	a0, s0, 0x0
   1b3dc: ef 00 40 36  	jal	ra, 0x1b740 <dump_buffer>
   1b3e0: 03 35 04 02  	ld	a0, 0x20(s0)
   1b3e4: 93 85 04 fd  	addi	a1, s1, -0x30
   1b3e8: 13 06 15 00  	addi	a2, a0, 0x1
   1b3ec: 23 30 c4 02  	sd	a2, 0x20(s0)
   1b3f0: 23 00 b5 00  	sb	a1, 0x0(a0)
   1b3f4: 03 35 84 02  	ld	a0, 0x28(s0)
   1b3f8: 13 05 f5 ff  	addi	a0, a0, -0x1
   1b3fc: 23 34 a4 02  	sd	a0, 0x28(s0)
   1b400: 63 16 05 00  	bne	a0, zero, 0x1b40c <emit_restart+0x78>
   1b404: 13 05 04 00  	addi	a0, s0, 0x0
   1b408: ef 00 80 33  	jal	ra, 0x1b740 <dump_buffer>
   1b40c: 03 35 04 04  	ld	a0, 0x40(s0)
   1b410: 83 25 45 19  	lw	a1, 0x194(a0)
   1b414: 63 88 05 00  	beq	a1, zero, 0x1b424 <emit_restart+0x90>
   1b418: 23 2e 04 04  	sw	zero, 0x5c(s0)
   1b41c: 23 20 04 06  	sw	zero, 0x60(s0)
   1b420: 6f 60 41 50  	jal	zero, 0x31924 <__riscv_restore_3>
   1b424: 83 25 c5 13  	lw	a1, 0x13c(a0)
   1b428: 63 50 b0 02  	bge	zero, a1, 0x1b448 <emit_restart+0xb4>
   1b42c: 93 05 00 00  	addi	a1, zero, 0x0
   1b430: 13 06 84 04  	addi	a2, s0, 0x48
   1b434: 23 20 06 00  	sw	zero, 0x0(a2)
   1b438: 83 26 c5 13  	lw	a3, 0x13c(a0)
   1b43c: 93 85 15 00  	addi	a1, a1, 0x1
   1b440: 13 06 46 00  	addi	a2, a2, 0x4
   1b444: e3 c8 d5 fe  	blt	a1, a3, 0x1b434 <emit_restart+0xa0>
   1b448: 6f 60 c1 4d  	jal	zero, 0x31924 <__riscv_restore_3>

000000000001b44c <emit_symbol>:
   1b44c: ef 62 81 49  	jal	t0, 0x318e4 <__riscv_save_5>
   1b450: 13 04 05 00  	addi	s0, a0, 0x0
   1b454: 03 25 85 01  	lw	a0, 0x18(a0)
   1b458: 63 04 05 02  	beq	a0, zero, 0x1b480 <emit_symbol+0x34>
   1b45c: 93 95 35 00  	slli	a1, a1, 0x3
   1b460: b3 05 b4 00  	add	a1, s0, a1
   1b464: 03 b5 85 09  	ld	a0, 0x98(a1)
   1b468: 13 16 36 00  	slli	a2, a2, 0x3
   1b46c: 33 05 c5 00  	add	a0, a0, a2
   1b470: 83 35 05 00  	ld	a1, 0x0(a0)
   1b474: 93 85 15 00  	addi	a1, a1, 0x1
   1b478: 23 30 b5 00  	sd	a1, 0x0(a0)
   1b47c: 6f 60 21 4a  	jal	zero, 0x3191e <__riscv_restore_5>
   1b480: 93 95 35 00  	slli	a1, a1, 0x3
   1b484: b3 05 b4 00  	add	a1, s0, a1
   1b488: 03 b5 85 07  	ld	a0, 0x78(a1)
   1b48c: 93 15 26 00  	slli	a1, a2, 0x2
   1b490: b3 05 b5 00  	add	a1, a0, a1
   1b494: 83 e4 05 00  	lwu	s1, 0x0(a1)
   1b498: 33 05 c5 00  	add	a0, a0, a2
   1b49c: 03 49 05 40  	lbu	s2, 0x400(a0)
   1b4a0: 83 29 84 03  	lw	s3, 0x38(s0)
   1b4a4: 63 0a 09 0a  	beq	s2, zero, 0x1b558 <emit_symbol+0x10c>
   1b4a8: 13 05 f0 ff  	addi	a0, zero, -0x1
   1b4ac: 33 15 25 01  	sll	a0, a0, s2
   1b4b0: 13 45 f5 ff  	xori	a0, a0, -0x1
   1b4b4: b3 74 95 00  	and	s1, a0, s1
   1b4b8: 3b 85 29 01  	addw	a0, s3, s2
   1b4bc: 93 05 80 01  	addi	a1, zero, 0x18
   1b4c0: 03 36 04 03  	ld	a2, 0x30(s0)
   1b4c4: bb 85 a5 40  	subw	a1, a1, a0
   1b4c8: b3 94 b4 00  	sll	s1, s1, a1
   1b4cc: 93 05 80 00  	addi	a1, zero, 0x8
   1b4d0: b3 64 96 00  	or	s1, a2, s1
   1b4d4: 63 4c b5 06  	blt	a0, a1, 0x1b54c <emit_symbol+0x100>
   1b4d8: 37 09 ff 00  	lui	s2, 0xff0
   1b4dc: 93 09 f0 00  	addi	s3, zero, 0xf
   1b4e0: 83 35 04 02  	ld	a1, 0x20(s0)
   1b4e4: 13 d6 04 01  	srli	a2, s1, 0x10
   1b4e8: 93 86 15 00  	addi	a3, a1, 0x1
   1b4ec: 23 30 d4 02  	sd	a3, 0x20(s0)
   1b4f0: 23 80 c5 00  	sb	a2, 0x0(a1)
   1b4f4: 83 35 84 02  	ld	a1, 0x28(s0)
   1b4f8: 13 0a 05 00  	addi	s4, a0, 0x0
   1b4fc: 93 85 f5 ff  	addi	a1, a1, -0x1
   1b500: 23 34 b4 02  	sd	a1, 0x28(s0)
   1b504: 63 96 05 00  	bne	a1, zero, 0x1b510 <emit_symbol+0xc4>
   1b508: 13 05 04 00  	addi	a0, s0, 0x0
   1b50c: ef 00 40 23  	jal	ra, 0x1b740 <dump_buffer>
   1b510: 33 f5 24 01  	and	a0, s1, s2
   1b514: 63 16 25 03  	bne	a0, s2, 0x1b540 <emit_symbol+0xf4>
   1b518: 03 35 04 02  	ld	a0, 0x20(s0)
   1b51c: 93 05 15 00  	addi	a1, a0, 0x1
   1b520: 23 30 b4 02  	sd	a1, 0x20(s0)
   1b524: 23 00 05 00  	sb	zero, 0x0(a0)
   1b528: 03 35 84 02  	ld	a0, 0x28(s0)
   1b52c: 13 05 f5 ff  	addi	a0, a0, -0x1
   1b530: 23 34 a4 02  	sd	a0, 0x28(s0)
   1b534: 63 16 05 00  	bne	a0, zero, 0x1b540 <emit_symbol+0xf4>
   1b538: 13 05 04 00  	addi	a0, s0, 0x0
   1b53c: ef 00 40 20  	jal	ra, 0x1b740 <dump_buffer>
   1b540: 93 94 84 00  	slli	s1, s1, 0x8
   1b544: 1b 05 8a ff  	addiw	a0, s4, -0x8
   1b548: e3 cc 49 f9  	blt	s3, s4, 0x1b4e0 <emit_symbol+0x94>
   1b54c: 23 38 94 02  	sd	s1, 0x30(s0)
   1b550: 23 2c a4 02  	sw	a0, 0x38(s0)
   1b554: 6f 60 a1 3c  	jal	zero, 0x3191e <__riscv_restore_5>
   1b558: 03 35 04 04  	ld	a0, 0x40(s0)
   1b55c: 83 35 05 00  	ld	a1, 0x0(a0)
   1b560: 03 b6 05 00  	ld	a2, 0x0(a1)
   1b564: 93 06 70 02  	addi	a3, zero, 0x27
   1b568: 23 a4 d5 02  	sw	a3, 0x28(a1)
   1b56c: e7 00 06 00  	jalr	ra, 0x0(a2)
   1b570: 03 25 84 01  	lw	a0, 0x18(s0)
   1b574: e3 0a 05 f2  	beq	a0, zero, 0x1b4a8 <emit_symbol+0x5c>
   1b578: 6f 60 61 3a  	jal	zero, 0x3191e <__riscv_restore_5>

000000000001b57c <emit_eobrun>:
   1b57c: ef 62 81 36  	jal	t0, 0x318e4 <__riscv_save_5>
   1b580: 13 04 05 00  	addi	s0, a0, 0x0
   1b584: 03 25 c5 05  	lw	a0, 0x5c(a0)
   1b588: 63 02 05 10  	beq	a0, zero, 0x1b68c <emit_eobrun+0x110>
   1b58c: 93 04 00 00  	addi	s1, zero, 0x0
   1b590: 93 05 10 00  	addi	a1, zero, 0x1
   1b594: 63 08 b5 00  	beq	a0, a1, 0x1b5a4 <emit_eobrun+0x28>
   1b598: 1b 55 15 40  	sraiw	a0, a0, 0x1
   1b59c: 9b 84 14 00  	addiw	s1, s1, 0x1
   1b5a0: e3 ec a5 fe  	bltu	a1, a0, 0x1b598 <emit_eobrun+0x1c>
   1b5a4: 83 25 84 05  	lw	a1, 0x58(s0)
   1b5a8: 1b 96 44 00  	slliw	a2, s1, 0x4
   1b5ac: 13 05 04 00  	addi	a0, s0, 0x0
   1b5b0: ef f0 df e9  	jal	ra, 0x1b44c <emit_symbol>
   1b5b4: 63 80 04 0c  	beq	s1, zero, 0x1b674 <emit_eobrun+0xf8>
   1b5b8: 03 25 84 01  	lw	a0, 0x18(s0)
   1b5bc: 63 1c 05 0a  	bne	a0, zero, 0x1b674 <emit_eobrun+0xf8>
   1b5c0: 03 25 84 03  	lw	a0, 0x38(s0)
   1b5c4: 83 65 c4 05  	lwu	a1, 0x5c(s0)
   1b5c8: 13 06 f0 ff  	addi	a2, zero, -0x1
   1b5cc: 33 16 96 00  	sll	a2, a2, s1
   1b5d0: 13 46 f6 ff  	xori	a2, a2, -0x1
   1b5d4: b3 f5 c5 00  	and	a1, a1, a2
   1b5d8: 3b 05 95 00  	addw	a0, a0, s1
   1b5dc: 13 06 80 01  	addi	a2, zero, 0x18
   1b5e0: 83 36 04 03  	ld	a3, 0x30(s0)
   1b5e4: 3b 06 a6 40  	subw	a2, a2, a0
   1b5e8: b3 94 c5 00  	sll	s1, a1, a2
   1b5ec: 93 05 80 00  	addi	a1, zero, 0x8
   1b5f0: b3 e4 d4 00  	or	s1, s1, a3
   1b5f4: 63 4c b5 06  	blt	a0, a1, 0x1b66c <emit_eobrun+0xf0>
   1b5f8: 37 09 ff 00  	lui	s2, 0xff0
   1b5fc: 93 09 f0 00  	addi	s3, zero, 0xf
   1b600: 83 35 04 02  	ld	a1, 0x20(s0)
   1b604: 13 d6 04 01  	srli	a2, s1, 0x10
   1b608: 93 86 15 00  	addi	a3, a1, 0x1
   1b60c: 23 30 d4 02  	sd	a3, 0x20(s0)
   1b610: 23 80 c5 00  	sb	a2, 0x0(a1)
   1b614: 83 35 84 02  	ld	a1, 0x28(s0)
   1b618: 13 0a 05 00  	addi	s4, a0, 0x0
   1b61c: 93 85 f5 ff  	addi	a1, a1, -0x1
   1b620: 23 34 b4 02  	sd	a1, 0x28(s0)
   1b624: 63 96 05 00  	bne	a1, zero, 0x1b630 <emit_eobrun+0xb4>
   1b628: 13 05 04 00  	addi	a0, s0, 0x0
   1b62c: ef 00 40 11  	jal	ra, 0x1b740 <dump_buffer>
   1b630: 33 f5 24 01  	and	a0, s1, s2
   1b634: 63 16 25 03  	bne	a0, s2, 0x1b660 <emit_eobrun+0xe4>
   1b638: 03 35 04 02  	ld	a0, 0x20(s0)
   1b63c: 93 05 15 00  	addi	a1, a0, 0x1
   1b640: 23 30 b4 02  	sd	a1, 0x20(s0)
   1b644: 23 00 05 00  	sb	zero, 0x0(a0)
   1b648: 03 35 84 02  	ld	a0, 0x28(s0)
   1b64c: 13 05 f5 ff  	addi	a0, a0, -0x1
   1b650: 23 34 a4 02  	sd	a0, 0x28(s0)
   1b654: 63 16 05 00  	bne	a0, zero, 0x1b660 <emit_eobrun+0xe4>
   1b658: 13 05 04 00  	addi	a0, s0, 0x0
   1b65c: ef 00 40 0e  	jal	ra, 0x1b740 <dump_buffer>
   1b660: 93 94 84 00  	slli	s1, s1, 0x8
   1b664: 1b 05 8a ff  	addiw	a0, s4, -0x8
   1b668: e3 cc 49 f9  	blt	s3, s4, 0x1b600 <emit_eobrun+0x84>
   1b66c: 23 38 94 02  	sd	s1, 0x30(s0)
   1b670: 23 2c a4 02  	sw	a0, 0x38(s0)
   1b674: 83 35 84 06  	ld	a1, 0x68(s0)
   1b678: 03 26 04 06  	lw	a2, 0x60(s0)
   1b67c: 23 2e 04 04  	sw	zero, 0x5c(s0)
   1b680: 13 05 04 00  	addi	a0, s0, 0x0
   1b684: ef 00 40 10  	jal	ra, 0x1b788 <emit_buffered_bits>
   1b688: 23 20 04 06  	sw	zero, 0x60(s0)
   1b68c: 6f 60 21 29  	jal	zero, 0x3191e <__riscv_restore_5>

000000000001b690 <flush_bits>:
   1b690: ef 62 41 25  	jal	t0, 0x318e4 <__riscv_save_5>
   1b694: 13 04 05 00  	addi	s0, a0, 0x0
   1b698: 03 25 85 01  	lw	a0, 0x18(a0)
   1b69c: 63 1c 05 08  	bne	a0, zero, 0x1b734 <flush_bits+0xa4>
   1b6a0: 03 29 84 03  	lw	s2, 0x38(s0)
   1b6a4: 63 58 20 09  	bge	zero, s2, 0x1b734 <flush_bits+0xa4>
   1b6a8: 13 05 10 01  	addi	a0, zero, 0x11
   1b6ac: 83 35 04 03  	ld	a1, 0x30(s0)
   1b6b0: 3b 05 25 41  	subw	a0, a0, s2
   1b6b4: 13 06 f0 07  	addi	a2, zero, 0x7f
   1b6b8: b3 14 a6 00  	sll	s1, a2, a0
   1b6bc: b3 e4 b4 00  	or	s1, s1, a1
   1b6c0: 13 09 f9 00  	addi	s2, s2, 0xf
   1b6c4: b7 09 ff 00  	lui	s3, 0xff0
   1b6c8: 13 0a f0 00  	addi	s4, zero, 0xf
   1b6cc: 03 35 04 02  	ld	a0, 0x20(s0)
   1b6d0: 93 d5 04 01  	srli	a1, s1, 0x10
   1b6d4: 13 06 15 00  	addi	a2, a0, 0x1
   1b6d8: 23 30 c4 02  	sd	a2, 0x20(s0)
   1b6dc: 23 00 b5 00  	sb	a1, 0x0(a0)
   1b6e0: 03 35 84 02  	ld	a0, 0x28(s0)
   1b6e4: 13 05 f5 ff  	addi	a0, a0, -0x1
   1b6e8: 23 34 a4 02  	sd	a0, 0x28(s0)
   1b6ec: 63 16 05 00  	bne	a0, zero, 0x1b6f8 <flush_bits+0x68>
   1b6f0: 13 05 04 00  	addi	a0, s0, 0x0
   1b6f4: ef 00 c0 04  	jal	ra, 0x1b740 <dump_buffer>
   1b6f8: 33 f5 34 01  	and	a0, s1, s3
   1b6fc: 63 16 35 03  	bne	a0, s3, 0x1b728 <flush_bits+0x98>
   1b700: 03 35 04 02  	ld	a0, 0x20(s0)
   1b704: 93 05 15 00  	addi	a1, a0, 0x1
   1b708: 23 30 b4 02  	sd	a1, 0x20(s0)
   1b70c: 23 00 05 00  	sb	zero, 0x0(a0)
   1b710: 03 35 84 02  	ld	a0, 0x28(s0)
   1b714: 13 05 f5 ff  	addi	a0, a0, -0x1
   1b718: 23 34 a4 02  	sd	a0, 0x28(s0)
   1b71c: 63 16 05 00  	bne	a0, zero, 0x1b728 <flush_bits+0x98>
   1b720: 13 05 04 00  	addi	a0, s0, 0x0
   1b724: ef 00 c0 01  	jal	ra, 0x1b740 <dump_buffer>
   1b728: 1b 09 89 ff  	addiw	s2, s2, -0x8
   1b72c: 93 94 84 00  	slli	s1, s1, 0x8
   1b730: e3 4e 2a f9  	blt	s4, s2, 0x1b6cc <flush_bits+0x3c>
   1b734: 23 38 04 02  	sd	zero, 0x30(s0)
   1b738: 23 2c 04 02  	sw	zero, 0x38(s0)
   1b73c: 6f 60 21 1e  	jal	zero, 0x3191e <__riscv_restore_5>

000000000001b740 <dump_buffer>:
   1b740: ef 62 e1 1a  	jal	t0, 0x318ee <__riscv_save_3>
   1b744: 13 04 05 00  	addi	s0, a0, 0x0
   1b748: 03 35 05 04  	ld	a0, 0x40(a0)
   1b74c: 83 34 05 02  	ld	s1, 0x20(a0)
   1b750: 83 b5 84 01  	ld	a1, 0x18(s1)
   1b754: e7 80 05 00  	jalr	ra, 0x0(a1)
   1b758: 63 1e 05 00  	bne	a0, zero, 0x1b774 <dump_buffer+0x34>
   1b75c: 03 35 04 04  	ld	a0, 0x40(s0)
   1b760: 83 35 05 00  	ld	a1, 0x0(a0)
   1b764: 03 b6 05 00  	ld	a2, 0x0(a1)
   1b768: 93 06 60 01  	addi	a3, zero, 0x16
   1b76c: 23 a4 d5 02  	sw	a3, 0x28(a1)
   1b770: e7 00 06 00  	jalr	ra, 0x0(a2)
   1b774: 03 b5 04 00  	ld	a0, 0x0(s1)
   1b778: 83 b5 84 00  	ld	a1, 0x8(s1)
   1b77c: 23 30 a4 02  	sd	a0, 0x20(s0)
   1b780: 23 34 b4 02  	sd	a1, 0x28(s0)
   1b784: 6f 60 01 1a  	jal	zero, 0x31924 <__riscv_restore_3>

000000000001b788 <emit_buffered_bits>:
   1b788: 63 04 06 0e  	beq	a2, zero, 0x1b870 <emit_buffered_bits+0xe8>
   1b78c: ef 62 41 14  	jal	t0, 0x318d0 <__riscv_save_9>
   1b790: 13 09 05 00  	addi	s2, a0, 0x0
   1b794: 03 25 85 01  	lw	a0, 0x18(a0)
   1b798: 63 18 05 0c  	bne	a0, zero, 0x1b868 <emit_buffered_bits+0xe0>
   1b79c: 13 04 06 00  	addi	s0, a2, 0x0
   1b7a0: 93 84 05 00  	addi	s1, a1, 0x0
   1b7a4: 93 09 70 01  	addi	s3, zero, 0x17
   1b7a8: 13 0a 70 00  	addi	s4, zero, 0x7
   1b7ac: b7 0a ff 00  	lui	s5, 0xff0
   1b7b0: 13 0b f0 00  	addi	s6, zero, 0xf
   1b7b4: 03 25 89 01  	lw	a0, 0x18(s2)
   1b7b8: 63 12 05 0a  	bne	a0, zero, 0x1b85c <emit_buffered_bits+0xd4>
   1b7bc: 03 c5 04 00  	lbu	a0, 0x0(s1)
   1b7c0: 03 2c 89 03  	lw	s8, 0x38(s2)
   1b7c4: 83 35 09 03  	ld	a1, 0x30(s2)
   1b7c8: 13 75 15 00  	andi	a0, a0, 0x1
   1b7cc: 3b 86 89 41  	subw	a2, s3, s8
   1b7d0: 33 15 c5 00  	sll	a0, a0, a2
   1b7d4: b3 6b b5 00  	or	s7, a0, a1
   1b7d8: 63 4c 4c 07  	blt	s8, s4, 0x1b850 <emit_buffered_bits+0xc8>
   1b7dc: 13 0c 9c 00  	addi	s8, s8, 0x9
   1b7e0: 03 35 09 02  	ld	a0, 0x20(s2)
   1b7e4: 93 d5 0b 01  	srli	a1, s7, 0x10
   1b7e8: 13 06 15 00  	addi	a2, a0, 0x1
   1b7ec: 23 30 c9 02  	sd	a2, 0x20(s2)
   1b7f0: 23 00 b5 00  	sb	a1, 0x0(a0)
   1b7f4: 03 35 89 02  	ld	a0, 0x28(s2)
   1b7f8: 13 05 f5 ff  	addi	a0, a0, -0x1
   1b7fc: 23 34 a9 02  	sd	a0, 0x28(s2)
   1b800: 63 16 05 00  	bne	a0, zero, 0x1b80c <emit_buffered_bits+0x84>
   1b804: 13 05 09 00  	addi	a0, s2, 0x0
   1b808: ef f0 9f f3  	jal	ra, 0x1b740 <dump_buffer>
   1b80c: 33 f5 5b 01  	and	a0, s7, s5
   1b810: 63 16 55 03  	bne	a0, s5, 0x1b83c <emit_buffered_bits+0xb4>
   1b814: 03 35 09 02  	ld	a0, 0x20(s2)
   1b818: 93 05 15 00  	addi	a1, a0, 0x1
   1b81c: 23 30 b9 02  	sd	a1, 0x20(s2)
   1b820: 23 00 05 00  	sb	zero, 0x0(a0)
   1b824: 03 35 89 02  	ld	a0, 0x28(s2)
   1b828: 13 05 f5 ff  	addi	a0, a0, -0x1
   1b82c: 23 34 a9 02  	sd	a0, 0x28(s2)
   1b830: 63 16 05 00  	bne	a0, zero, 0x1b83c <emit_buffered_bits+0xb4>
   1b834: 13 05 09 00  	addi	a0, s2, 0x0
   1b838: ef f0 9f f0  	jal	ra, 0x1b740 <dump_buffer>
   1b83c: 1b 0c 8c ff  	addiw	s8, s8, -0x8
   1b840: 93 9b 8b 00  	slli	s7, s7, 0x8
   1b844: e3 4e 8b f9  	blt	s6, s8, 0x1b7e0 <emit_buffered_bits+0x58>
   1b848: 13 0c 8c ff  	addi	s8, s8, -0x8
   1b84c: 6f 00 80 00  	jal	zero, 0x1b854 <emit_buffered_bits+0xcc>
   1b850: 13 0c 1c 00  	addi	s8, s8, 0x1
   1b854: 23 38 79 03  	sd	s7, 0x30(s2)
   1b858: 23 2c 89 03  	sw	s8, 0x38(s2)
   1b85c: 1b 04 f4 ff  	addiw	s0, s0, -0x1
   1b860: 93 84 14 00  	addi	s1, s1, 0x1
   1b864: e3 18 04 f4  	bne	s0, zero, 0x1b7b4 <emit_buffered_bits+0x2c>
   1b868: 6f 60 a1 0a  	jal	zero, 0x31912 <__riscv_restore_9>
   1b86c: 6f 00 40 00  	jal	zero, 0x1b870 <emit_buffered_bits+0xe8>
   1b870: 67 80 00 00  	jalr	zero, 0x0(ra)

000000000001b874 <jinit_forward_dct>:
   1b874: ef 62 a1 07  	jal	t0, 0x318ee <__riscv_save_3>
   1b878: 93 04 05 00  	addi	s1, a0, 0x0
   1b87c: 03 35 85 00  	ld	a0, 0x8(a0)
   1b880: 83 36 05 00  	ld	a3, 0x0(a0)
   1b884: 93 05 10 00  	addi	a1, zero, 0x1
   1b888: 13 06 00 06  	addi	a2, zero, 0x60
   1b88c: 13 09 10 00  	addi	s2, zero, 0x1
   1b890: 13 85 04 00  	addi	a0, s1, 0x0
   1b894: e7 80 06 00  	jalr	ra, 0x0(a3)
   1b898: 13 04 05 00  	addi	s0, a0, 0x0
   1b89c: b7 c5 01 00  	lui	a1, 0x1c
   1b8a0: 03 a5 c4 10  	lw	a0, 0x10c(s1)
   1b8a4: 93 85 c5 94  	addi	a1, a1, -0x6b4
   1b8a8: 23 30 b4 00  	sd	a1, 0x0(s0)
   1b8ac: 93 05 20 00  	addi	a1, zero, 0x2
   1b8b0: 23 b0 84 1e  	sd	s0, 0x1e0(s1)
   1b8b4: 63 00 b5 04  	beq	a0, a1, 0x1b8f4 <jinit_forward_dct+0x80>
   1b8b8: 63 00 25 03  	beq	a0, s2, 0x1b8d8 <jinit_forward_dct+0x64>
   1b8bc: 63 1a 05 04  	bne	a0, zero, 0x1b910 <jinit_forward_dct+0x9c>
   1b8c0: 37 c5 01 00  	lui	a0, 0x1c
   1b8c4: 13 05 05 b8  	addi	a0, a0, -0x480
   1b8c8: 23 34 a4 00  	sd	a0, 0x8(s0)
   1b8cc: 37 c5 01 00  	lui	a0, 0x1c
   1b8d0: 13 05 c5 22  	addi	a0, a0, 0x22c
   1b8d4: 6f 00 80 01  	jal	zero, 0x1b8ec <jinit_forward_dct+0x78>
   1b8d8: 37 c5 01 00  	lui	a0, 0x1c
   1b8dc: 13 05 05 b8  	addi	a0, a0, -0x480
   1b8e0: 23 34 a4 00  	sd	a0, 0x8(s0)
   1b8e4: 37 c5 01 00  	lui	a0, 0x1c
   1b8e8: 13 05 c5 e4  	addi	a0, a0, -0x1b4
   1b8ec: 23 38 a4 00  	sd	a0, 0x10(s0)
   1b8f0: 6f 00 80 03  	jal	zero, 0x1b928 <jinit_forward_dct+0xb4>
   1b8f4: 37 c5 01 00  	lui	a0, 0x1c
   1b8f8: 13 05 05 ce  	addi	a0, a0, -0x320
   1b8fc: 23 34 a4 00  	sd	a0, 0x8(s0)
   1b900: 37 c5 01 00  	lui	a0, 0x1c
   1b904: 13 05 c5 06  	addi	a0, a0, 0x6c
   1b908: 23 3c a4 02  	sd	a0, 0x38(s0)
   1b90c: 6f 00 c0 01  	jal	zero, 0x1b928 <jinit_forward_dct+0xb4>
   1b910: 03 b5 04 00  	ld	a0, 0x0(s1)
   1b914: 83 35 05 00  	ld	a1, 0x0(a0)
   1b918: 13 06 f0 02  	addi	a2, zero, 0x2f
   1b91c: 23 24 c5 02  	sw	a2, 0x28(a0)
   1b920: 13 85 04 00  	addi	a0, s1, 0x0
   1b924: e7 80 05 00  	jalr	ra, 0x0(a1)
   1b928: 23 38 04 02  	sd	zero, 0x30(s0)
   1b92c: 23 34 04 02  	sd	zero, 0x28(s0)
   1b930: 23 30 04 02  	sd	zero, 0x20(s0)
   1b934: 23 3c 04 00  	sd	zero, 0x18(s0)
   1b938: 23 30 04 04  	sd	zero, 0x40(s0)
   1b93c: 23 34 04 04  	sd	zero, 0x48(s0)
   1b940: 23 38 04 04  	sd	zero, 0x50(s0)
   1b944: 23 3c 04 04  	sd	zero, 0x58(s0)
   1b948: 6f 50 d1 7d  	jal	zero, 0x31924 <__riscv_restore_3>

000000000001b94c <start_pass_fdctmgr>:
   1b94c: ef 52 31 77  	jal	t0, 0x318be <__riscv_save_12>
   1b950: 13 01 01 fe  	addi	sp, sp, -0x20
   1b954: 27 3c 81 00  	fsd	fs0, 0x18(sp)
   1b958: 27 38 91 00  	fsd	fs1, 0x10(sp)
   1b95c: 13 04 05 00  	addi	s0, a0, 0x0
   1b960: 03 25 45 04  	lw	a0, 0x44(a0)
   1b964: 63 56 a0 20  	bge	zero, a0, 0x1bb70 <start_pass_fdctmgr+0x224>
   1b968: 13 09 00 00  	addi	s2, zero, 0x0
   1b96c: 83 39 04 1e  	ld	s3, 0x1e0(s0)
   1b970: 03 3a 04 05  	ld	s4, 0x50(s0)
   1b974: 93 0b 20 00  	addi	s7, zero, 0x2
   1b978: 37 45 03 00  	lui	a0, 0x34
   1b97c: 93 0c 85 d3  	addi	s9, a0, -0x2c8
   1b980: 07 b4 81 1c  	fld	fs0, 0x1c8(gp)
   1b984: 87 b4 01 1d  	fld	fs1, 0x1d0(gp)
   1b988: 13 0d 80 ff  	addi	s10, zero, -0x8
   1b98c: 93 0d 80 00  	addi	s11, zero, 0x8
   1b990: 37 45 03 00  	lui	a0, 0x34
   1b994: 13 05 85 cb  	addi	a0, a0, -0x348
   1b998: 23 34 a1 00  	sd	a0, 0x8(sp)
   1b99c: 83 24 0a 01  	lw	s1, 0x10(s4)
   1b9a0: 13 05 30 00  	addi	a0, zero, 0x3
   1b9a4: 63 6a 95 00  	bltu	a0, s1, 0x1b9b8 <start_pass_fdctmgr+0x6c>
   1b9a8: 13 95 34 00  	slli	a0, s1, 0x3
   1b9ac: 33 05 a4 00  	add	a0, s0, a0
   1b9b0: 03 35 85 05  	ld	a0, 0x58(a0)
   1b9b4: 63 12 05 02  	bne	a0, zero, 0x1b9d8 <start_pass_fdctmgr+0x8c>
   1b9b8: 03 35 04 00  	ld	a0, 0x0(s0)
   1b9bc: 23 26 95 02  	sw	s1, 0x2c(a0)
   1b9c0: 83 35 04 00  	ld	a1, 0x0(s0)
   1b9c4: 83 b5 05 00  	ld	a1, 0x0(a1)
   1b9c8: 13 06 30 03  	addi	a2, zero, 0x33
   1b9cc: 23 24 c5 02  	sw	a2, 0x28(a0)
   1b9d0: 13 05 04 00  	addi	a0, s0, 0x0
   1b9d4: e7 80 05 00  	jalr	ra, 0x0(a1)
   1b9d8: 93 94 34 00  	slli	s1, s1, 0x3
   1b9dc: b3 05 94 00  	add	a1, s0, s1
   1b9e0: 03 25 c4 10  	lw	a0, 0x10c(s0)
   1b9e4: 03 bb 85 05  	ld	s6, 0x58(a1)
   1b9e8: 63 00 75 0d  	beq	a0, s7, 0x1baa8 <start_pass_fdctmgr+0x15c>
   1b9ec: 93 05 10 00  	addi	a1, zero, 0x1
   1b9f0: 63 0a b5 04  	beq	a0, a1, 0x1ba44 <start_pass_fdctmgr+0xf8>
   1b9f4: 63 1a 05 14  	bne	a0, zero, 0x1bb48 <start_pass_fdctmgr+0x1fc>
   1b9f8: b3 84 99 00  	add	s1, s3, s1
   1b9fc: 03 b5 84 01  	ld	a0, 0x18(s1)
   1ba00: 63 12 05 02  	bne	a0, zero, 0x1ba24 <start_pass_fdctmgr+0xd8>
   1ba04: 03 35 84 00  	ld	a0, 0x8(s0)
   1ba08: 83 36 05 00  	ld	a3, 0x0(a0)
   1ba0c: 93 84 84 01  	addi	s1, s1, 0x18
   1ba10: 93 05 10 00  	addi	a1, zero, 0x1
   1ba14: 13 06 00 10  	addi	a2, zero, 0x100
   1ba18: 13 05 04 00  	addi	a0, s0, 0x0
   1ba1c: e7 80 06 00  	jalr	ra, 0x0(a3)
   1ba20: 23 b0 a4 00  	sd	a0, 0x0(s1)
   1ba24: 93 05 05 10  	addi	a1, a0, 0x100
   1ba28: 03 56 0b 00  	lhu	a2, 0x0(s6)
   1ba2c: 13 16 36 00  	slli	a2, a2, 0x3
   1ba30: 23 20 c5 00  	sw	a2, 0x0(a0)
   1ba34: 13 05 45 00  	addi	a0, a0, 0x4
   1ba38: 13 0b 2b 00  	addi	s6, s6, 0x2
   1ba3c: e3 16 b5 fe  	bne	a0, a1, 0x1ba28 <start_pass_fdctmgr+0xdc>
   1ba40: 6f 00 00 12  	jal	zero, 0x1bb60 <start_pass_fdctmgr+0x214>
   1ba44: 33 85 99 00  	add	a0, s3, s1
   1ba48: 83 34 85 01  	ld	s1, 0x18(a0)
   1ba4c: 63 94 04 02  	bne	s1, zero, 0x1ba74 <start_pass_fdctmgr+0x128>
   1ba50: 83 35 84 00  	ld	a1, 0x8(s0)
   1ba54: 83 b6 05 00  	ld	a3, 0x0(a1)
   1ba58: 93 0a 85 01  	addi	s5, a0, 0x18
   1ba5c: 93 05 10 00  	addi	a1, zero, 0x1
   1ba60: 13 06 00 10  	addi	a2, zero, 0x100
   1ba64: 13 05 04 00  	addi	a0, s0, 0x0
   1ba68: e7 80 06 00  	jalr	ra, 0x0(a3)
   1ba6c: 93 04 05 00  	addi	s1, a0, 0x0
   1ba70: 23 b0 aa 00  	sd	a0, 0x0(s5)
   1ba74: 13 8c 04 10  	addi	s8, s1, 0x100
   1ba78: 83 3a 81 00  	ld	s5, 0x8(sp)
   1ba7c: 83 55 0b 00  	lhu	a1, 0x0(s6)
   1ba80: 03 95 0a 00  	lh	a0, 0x0(s5)
   1ba84: ef 50 11 6b  	jal	ra, 0x31934 <__muldi3>
   1ba88: 13 05 05 40  	addi	a0, a0, 0x400
   1ba8c: 13 55 b5 00  	srli	a0, a0, 0xb
   1ba90: 23 a0 a4 00  	sw	a0, 0x0(s1)
   1ba94: 93 84 44 00  	addi	s1, s1, 0x4
   1ba98: 93 8a 2a 00  	addi	s5, s5, 0x2
   1ba9c: 13 0b 2b 00  	addi	s6, s6, 0x2
   1baa0: e3 9e 84 fd  	bne	s1, s8, 0x1ba7c <start_pass_fdctmgr+0x130>
   1baa4: 6f 00 c0 0b  	jal	zero, 0x1bb60 <start_pass_fdctmgr+0x214>
   1baa8: b3 84 99 00  	add	s1, s3, s1
   1baac: 03 b5 04 04  	ld	a0, 0x40(s1)
   1bab0: 63 12 05 02  	bne	a0, zero, 0x1bad4 <start_pass_fdctmgr+0x188>
   1bab4: 03 35 84 00  	ld	a0, 0x8(s0)
   1bab8: 83 36 05 00  	ld	a3, 0x0(a0)
   1babc: 93 84 04 04  	addi	s1, s1, 0x40
   1bac0: 93 05 10 00  	addi	a1, zero, 0x1
   1bac4: 13 06 00 10  	addi	a2, zero, 0x100
   1bac8: 13 05 04 00  	addi	a0, s0, 0x0
   1bacc: e7 80 06 00  	jalr	ra, 0x0(a3)
   1bad0: 23 b0 a4 00  	sd	a0, 0x0(s1)
   1bad4: 93 05 00 00  	addi	a1, zero, 0x0
   1bad8: 13 06 00 00  	addi	a2, zero, 0x0
   1badc: 93 06 00 00  	addi	a3, zero, 0x0
   1bae0: 13 97 35 00  	slli	a4, a1, 0x3
   1bae4: 33 87 ec 00  	add	a4, s9, a4
   1bae8: 87 37 07 00  	fld	fa5, 0x0(a4)
   1baec: 13 17 16 00  	slli	a4, a2, 0x1
   1baf0: 33 07 eb 00  	add	a4, s6, a4
   1baf4: 93 17 26 00  	slli	a5, a2, 0x2
   1baf8: b3 07 f5 00  	add	a5, a0, a5
   1bafc: 13 88 0c 00  	addi	a6, s9, 0x0
   1bb00: 83 58 07 00  	lhu	a7, 0x0(a4)
   1bb04: 07 37 08 00  	fld	fa4, 0x0(a6)
   1bb08: d3 86 18 d2  	fcvt.d.wu	fa3, a7
   1bb0c: d3 f6 d7 12  	fmul.d	fa3, fa5, fa3, dyn
   1bb10: 53 f7 e6 12  	fmul.d	fa4, fa3, fa4, dyn
   1bb14: 53 77 87 12  	fmul.d	fa4, fa4, fs0, dyn
   1bb18: 53 f7 e4 1a  	fdiv.d	fa4, fs1, fa4, dyn
   1bb1c: 53 77 17 40  	fcvt.s.d	fa4, fa4, dyn
   1bb20: 27 a0 e7 00  	fsw	fa4, 0x0(a5)
   1bb24: 13 07 27 00  	addi	a4, a4, 0x2
   1bb28: 93 87 47 00  	addi	a5, a5, 0x4
   1bb2c: 93 86 f6 ff  	addi	a3, a3, -0x1
   1bb30: 13 08 88 00  	addi	a6, a6, 0x8
   1bb34: e3 96 a6 fd  	bne	a3, s10, 0x1bb00 <start_pass_fdctmgr+0x1b4>
   1bb38: 93 85 15 00  	addi	a1, a1, 0x1
   1bb3c: 3b 06 d6 40  	subw	a2, a2, a3
   1bb40: e3 9e b5 f9  	bne	a1, s11, 0x1badc <start_pass_fdctmgr+0x190>
   1bb44: 6f 00 c0 01  	jal	zero, 0x1bb60 <start_pass_fdctmgr+0x214>
   1bb48: 03 35 04 00  	ld	a0, 0x0(s0)
   1bb4c: 83 35 05 00  	ld	a1, 0x0(a0)
   1bb50: 13 06 f0 02  	addi	a2, zero, 0x2f
   1bb54: 23 24 c5 02  	sw	a2, 0x28(a0)
   1bb58: 13 05 04 00  	addi	a0, s0, 0x0
   1bb5c: e7 80 05 00  	jalr	ra, 0x0(a1)
   1bb60: 03 25 44 04  	lw	a0, 0x44(s0)
   1bb64: 1b 09 19 00  	addiw	s2, s2, 0x1
   1bb68: 13 0a 0a 06  	addi	s4, s4, 0x60
   1bb6c: e3 48 a9 e2  	blt	s2, a0, 0x1b99c <start_pass_fdctmgr+0x50>
   1bb70: 07 34 81 01  	fld	fs0, 0x18(sp)
   1bb74: 87 34 01 01  	fld	fs1, 0x10(sp)
   1bb78: 13 01 01 02  	addi	sp, sp, 0x20
   1bb7c: 6f 50 d1 58  	jal	zero, 0x31908 <__riscv_restore_12>

000000000001bb80 <forward_DCT>:
   1bb80: ef 52 f1 53  	jal	t0, 0x318be <__riscv_save_12>
   1bb84: 13 01 01 ef  	addi	sp, sp, -0x110
   1bb88: 23 34 d1 00  	sd	a3, 0x8(sp)
   1bb8c: 63 06 08 14  	beq	a6, zero, 0x1bcd8 <forward_DCT+0x158>
   1bb90: 13 84 07 00  	addi	s0, a5, 0x0
   1bb94: 03 35 05 1e  	ld	a0, 0x1e0(a0)
   1bb98: 83 a5 05 01  	lw	a1, 0x10(a1)
   1bb9c: 13 09 00 00  	addi	s2, zero, 0x0
   1bba0: 83 39 05 01  	ld	s3, 0x10(a0)
   1bba4: 93 95 35 00  	slli	a1, a1, 0x3
   1bba8: 33 05 b5 00  	add	a0, a0, a1
   1bbac: 03 3a 85 01  	ld	s4, 0x18(a0)
   1bbb0: 13 17 07 02  	slli	a4, a4, 0x20
   1bbb4: 13 57 d7 01  	srli	a4, a4, 0x1d
   1bbb8: b3 0a e6 00  	add	s5, a2, a4
   1bbbc: 13 18 08 02  	slli	a6, a6, 0x20
   1bbc0: 13 5b 08 02  	srli	s6, a6, 0x20
   1bbc4: 93 0b 01 11  	addi	s7, sp, 0x110
   1bbc8: 83 34 81 00  	ld	s1, 0x8(sp)
   1bbcc: 13 15 79 00  	slli	a0, s2, 0x7
   1bbd0: 83 35 81 00  	ld	a1, 0x8(sp)
   1bbd4: 33 05 b5 00  	add	a0, a0, a1
   1bbd8: 93 0c 05 08  	addi	s9, a0, 0x80
   1bbdc: 13 15 04 02  	slli	a0, s0, 0x20
   1bbe0: 13 55 05 02  	srli	a0, a0, 0x20
   1bbe4: 93 05 01 01  	addi	a1, sp, 0x10
   1bbe8: 13 86 0a 00  	addi	a2, s5, 0x0
   1bbec: 83 36 06 00  	ld	a3, 0x0(a2)
   1bbf0: b3 86 a6 00  	add	a3, a3, a0
   1bbf4: 03 c7 06 00  	lbu	a4, 0x0(a3)
   1bbf8: 13 07 07 f8  	addi	a4, a4, -0x80
   1bbfc: 23 a0 e5 00  	sw	a4, 0x0(a1)
   1bc00: 03 c7 16 00  	lbu	a4, 0x1(a3)
   1bc04: 13 07 07 f8  	addi	a4, a4, -0x80
   1bc08: 23 a2 e5 00  	sw	a4, 0x4(a1)
   1bc0c: 03 c7 26 00  	lbu	a4, 0x2(a3)
   1bc10: 13 07 07 f8  	addi	a4, a4, -0x80
   1bc14: 23 a4 e5 00  	sw	a4, 0x8(a1)
   1bc18: 03 c7 36 00  	lbu	a4, 0x3(a3)
   1bc1c: 13 07 07 f8  	addi	a4, a4, -0x80
   1bc20: 23 a6 e5 00  	sw	a4, 0xc(a1)
   1bc24: 03 c7 46 00  	lbu	a4, 0x4(a3)
   1bc28: 13 07 07 f8  	addi	a4, a4, -0x80
   1bc2c: 23 a8 e5 00  	sw	a4, 0x10(a1)
   1bc30: 03 c7 56 00  	lbu	a4, 0x5(a3)
   1bc34: 13 07 07 f8  	addi	a4, a4, -0x80
   1bc38: 23 aa e5 00  	sw	a4, 0x14(a1)
   1bc3c: 03 c7 66 00  	lbu	a4, 0x6(a3)
   1bc40: 13 07 07 f8  	addi	a4, a4, -0x80
   1bc44: 23 ac e5 00  	sw	a4, 0x18(a1)
   1bc48: 83 c6 76 00  	lbu	a3, 0x7(a3)
   1bc4c: 93 86 06 f8  	addi	a3, a3, -0x80
   1bc50: 23 ae d5 00  	sw	a3, 0x1c(a1)
   1bc54: 93 85 05 02  	addi	a1, a1, 0x20
   1bc58: 13 06 86 00  	addi	a2, a2, 0x8
   1bc5c: e3 98 75 f9  	bne	a1, s7, 0x1bbec <forward_DCT+0x6c>
   1bc60: 13 05 01 01  	addi	a0, sp, 0x10
   1bc64: 13 0d 01 01  	addi	s10, sp, 0x10
   1bc68: e7 80 09 00  	jalr	ra, 0x0(s3)
   1bc6c: 93 0d 0a 00  	addi	s11, s4, 0x0
   1bc70: 13 8c 04 00  	addi	s8, s1, 0x0
   1bc74: 83 a5 0d 00  	lw	a1, 0x0(s11)
   1bc78: 03 25 0d 00  	lw	a0, 0x0(s10)
   1bc7c: 13 d6 15 40  	srai	a2, a1, 0x1
   1bc80: 63 4a 05 00  	blt	a0, zero, 0x1bc94 <forward_DCT+0x114>
   1bc84: 3b 05 c5 00  	addw	a0, a0, a2
   1bc88: 63 5e b5 00  	bge	a0, a1, 0x1bca4 <forward_DCT+0x124>
   1bc8c: 13 05 00 00  	addi	a0, zero, 0x0
   1bc90: 6f 00 40 02  	jal	zero, 0x1bcb4 <forward_DCT+0x134>
   1bc94: 3b 05 a6 40  	subw	a0, a2, a0
   1bc98: 63 5a b5 00  	bge	a0, a1, 0x1bcac <forward_DCT+0x12c>
   1bc9c: 13 05 00 00  	addi	a0, zero, 0x0
   1bca0: 6f 00 00 01  	jal	zero, 0x1bcb0 <forward_DCT+0x130>
   1bca4: ef 50 11 4d  	jal	ra, 0x31974 <__divdi3>
   1bca8: 6f 00 c0 00  	jal	zero, 0x1bcb4 <forward_DCT+0x134>
   1bcac: ef 50 91 4c  	jal	ra, 0x31974 <__divdi3>
   1bcb0: 3b 05 a0 40  	subw	a0, zero, a0
   1bcb4: 23 10 ac 00  	sh	a0, 0x0(s8)
   1bcb8: 13 0c 2c 00  	addi	s8, s8, 0x2
   1bcbc: 13 0d 4d 00  	addi	s10, s10, 0x4
   1bcc0: 93 8d 4d 00  	addi	s11, s11, 0x4
   1bcc4: e3 18 9c fb  	bne	s8, s9, 0x1bc74 <forward_DCT+0xf4>
   1bcc8: 13 09 19 00  	addi	s2, s2, 0x1
   1bccc: 13 04 84 00  	addi	s0, s0, 0x8
   1bcd0: 93 84 04 08  	addi	s1, s1, 0x80
   1bcd4: e3 1c 69 ef  	bne	s2, s6, 0x1bbcc <forward_DCT+0x4c>
   1bcd8: 13 01 01 11  	addi	sp, sp, 0x110
   1bcdc: 6f 50 d1 42  	jal	zero, 0x31908 <__riscv_restore_12>

000000000001bce0 <forward_DCT_float>:
   1bce0: 63 04 08 16  	beq	a6, zero, 0x1be48 <forward_DCT_float+0x168>
   1bce4: ef 52 b1 3d  	jal	t0, 0x318be <__riscv_save_12>
   1bce8: 13 01 01 ef  	addi	sp, sp, -0x110
   1bcec: 27 34 81 10  	fsd	fs0, 0x108(sp)
   1bcf0: 13 84 07 00  	addi	s0, a5, 0x0
   1bcf4: 93 84 06 00  	addi	s1, a3, 0x0
   1bcf8: 03 35 05 1e  	ld	a0, 0x1e0(a0)
   1bcfc: 83 a5 05 01  	lw	a1, 0x10(a1)
   1bd00: 13 09 00 00  	addi	s2, zero, 0x0
   1bd04: 83 39 85 03  	ld	s3, 0x38(a0)
   1bd08: 93 95 35 00  	slli	a1, a1, 0x3
   1bd0c: 33 05 b5 00  	add	a0, a0, a1
   1bd10: 03 3a 05 04  	ld	s4, 0x40(a0)
   1bd14: 13 17 07 02  	slli	a4, a4, 0x20
   1bd18: 13 57 d7 01  	srli	a4, a4, 0x1d
   1bd1c: b3 0a e6 00  	add	s5, a2, a4
   1bd20: 13 18 08 02  	slli	a6, a6, 0x20
   1bd24: 07 a4 81 1d  	flw	fs0, 0x1d8(gp)
   1bd28: 13 5b 08 02  	srli	s6, a6, 0x20
   1bd2c: 93 0b 81 10  	addi	s7, sp, 0x108
   1bd30: 37 cc ff ff  	lui	s8, 0xffffc
   1bd34: 93 8c 06 00  	addi	s9, a3, 0x0
   1bd38: 13 15 79 00  	slli	a0, s2, 0x7
   1bd3c: 33 05 95 00  	add	a0, a0, s1
   1bd40: 13 0d 05 08  	addi	s10, a0, 0x80
   1bd44: 13 15 04 02  	slli	a0, s0, 0x20
   1bd48: 13 55 05 02  	srli	a0, a0, 0x20
   1bd4c: 93 05 81 00  	addi	a1, sp, 0x8
   1bd50: 13 86 0a 00  	addi	a2, s5, 0x0
   1bd54: 83 36 06 00  	ld	a3, 0x0(a2)
   1bd58: b3 86 a6 00  	add	a3, a3, a0
   1bd5c: 03 c7 06 00  	lbu	a4, 0x0(a3)
   1bd60: 13 07 07 f8  	addi	a4, a4, -0x80
   1bd64: d3 77 07 d0  	fcvt.s.w	fa5, a4, dyn
   1bd68: 27 a0 f5 00  	fsw	fa5, 0x0(a1)
   1bd6c: 03 c7 16 00  	lbu	a4, 0x1(a3)
   1bd70: 13 07 07 f8  	addi	a4, a4, -0x80
   1bd74: d3 77 07 d0  	fcvt.s.w	fa5, a4, dyn
   1bd78: 27 a2 f5 00  	fsw	fa5, 0x4(a1)
   1bd7c: 03 c7 26 00  	lbu	a4, 0x2(a3)
   1bd80: 13 07 07 f8  	addi	a4, a4, -0x80
   1bd84: d3 77 07 d0  	fcvt.s.w	fa5, a4, dyn
   1bd88: 27 a4 f5 00  	fsw	fa5, 0x8(a1)
   1bd8c: 03 c7 36 00  	lbu	a4, 0x3(a3)
   1bd90: 13 07 07 f8  	addi	a4, a4, -0x80
   1bd94: d3 77 07 d0  	fcvt.s.w	fa5, a4, dyn
   1bd98: 27 a6 f5 00  	fsw	fa5, 0xc(a1)
   1bd9c: 03 c7 46 00  	lbu	a4, 0x4(a3)
   1bda0: 13 07 07 f8  	addi	a4, a4, -0x80
   1bda4: d3 77 07 d0  	fcvt.s.w	fa5, a4, dyn
   1bda8: 27 a8 f5 00  	fsw	fa5, 0x10(a1)
   1bdac: 03 c7 56 00  	lbu	a4, 0x5(a3)
   1bdb0: 13 07 07 f8  	addi	a4, a4, -0x80
   1bdb4: d3 77 07 d0  	fcvt.s.w	fa5, a4, dyn
   1bdb8: 27 aa f5 00  	fsw	fa5, 0x14(a1)
   1bdbc: 03 c7 66 00  	lbu	a4, 0x6(a3)
   1bdc0: 13 07 07 f8  	addi	a4, a4, -0x80
   1bdc4: d3 77 07 d0  	fcvt.s.w	fa5, a4, dyn
   1bdc8: 27 ac f5 00  	fsw	fa5, 0x18(a1)
   1bdcc: 83 c6 76 00  	lbu	a3, 0x7(a3)
   1bdd0: 93 86 06 f8  	addi	a3, a3, -0x80
   1bdd4: d3 f7 06 d0  	fcvt.s.w	fa5, a3, dyn
   1bdd8: 27 ae f5 00  	fsw	fa5, 0x1c(a1)
   1bddc: 93 85 05 02  	addi	a1, a1, 0x20
   1bde0: 13 06 86 00  	addi	a2, a2, 0x8
   1bde4: e3 98 75 f7  	bne	a1, s7, 0x1bd54 <forward_DCT_float+0x74>
   1bde8: 13 05 81 00  	addi	a0, sp, 0x8
   1bdec: 93 0d 81 00  	addi	s11, sp, 0x8
   1bdf0: e7 80 09 00  	jalr	ra, 0x0(s3)
   1bdf4: 13 05 0a 00  	addi	a0, s4, 0x0
   1bdf8: 93 85 0c 00  	addi	a1, s9, 0x0
   1bdfc: 87 a7 0d 00  	flw	fa5, 0x0(s11)
   1be00: 07 27 05 00  	flw	fa4, 0x0(a0)
   1be04: d3 f7 e7 10  	fmul.s	fa5, fa5, fa4, dyn
   1be08: d3 f7 87 00  	fadd.s	fa5, fa5, fs0, dyn
   1be0c: 53 96 07 c0  	fcvt.w.s	a2, fa5, rtz
   1be10: 33 06 86 01  	add	a2, a2, s8
   1be14: 23 90 c5 00  	sh	a2, 0x0(a1)
   1be18: 93 85 25 00  	addi	a1, a1, 0x2
   1be1c: 13 05 45 00  	addi	a0, a0, 0x4
   1be20: 93 8d 4d 00  	addi	s11, s11, 0x4
   1be24: e3 9c a5 fd  	bne	a1, s10, 0x1bdfc <forward_DCT_float+0x11c>
   1be28: 13 09 19 00  	addi	s2, s2, 0x1
   1be2c: 13 04 84 00  	addi	s0, s0, 0x8
   1be30: 93 8c 0c 08  	addi	s9, s9, 0x80
   1be34: e3 12 69 f1  	bne	s2, s6, 0x1bd38 <forward_DCT_float+0x58>
   1be38: 07 34 81 10  	fld	fs0, 0x108(sp)
   1be3c: 13 01 01 11  	addi	sp, sp, 0x110
   1be40: 6f 50 91 2c  	jal	zero, 0x31908 <__riscv_restore_12>
   1be44: 6f 00 40 00  	jal	zero, 0x1be48 <forward_DCT_float+0x168>
   1be48: 67 80 00 00  	jalr	zero, 0x0(ra)

000000000001be4c <jpeg_fdct_ifast>:
   1be4c: ef 52 51 28  	jal	t0, 0x318d0 <__riscv_save_9>
   1be50: 13 04 05 00  	addi	s0, a0, 0x0
   1be54: 13 0a 05 10  	addi	s4, a0, 0x100
   1be58: 93 0a 05 00  	addi	s5, a0, 0x0
   1be5c: 03 a5 0a 00  	lw	a0, 0x0(s5)
   1be60: 83 a5 ca 01  	lw	a1, 0x1c(s5)
   1be64: 03 a6 4a 00  	lw	a2, 0x4(s5)
   1be68: 83 a6 8a 01  	lw	a3, 0x18(s5)
   1be6c: 33 87 a5 00  	add	a4, a1, a0
   1be70: 3b 0b b5 40  	subw	s6, a0, a1
   1be74: 33 85 c6 00  	add	a0, a3, a2
   1be78: 83 a5 8a 00  	lw	a1, 0x8(s5)
   1be7c: 83 a7 4a 01  	lw	a5, 0x14(s5)
   1be80: 03 a8 ca 00  	lw	a6, 0xc(s5)
   1be84: 83 a8 0a 01  	lw	a7, 0x10(s5)
   1be88: bb 09 d6 40  	subw	s3, a2, a3
   1be8c: 33 86 b7 00  	add	a2, a5, a1
   1be90: 3b 89 f5 40  	subw	s2, a1, a5
   1be94: b3 85 08 01  	add	a1, a7, a6
   1be98: bb 04 18 41  	subw	s1, a6, a7
   1be9c: b3 86 e5 00  	add	a3, a1, a4
   1bea0: bb 0b b7 40  	subw	s7, a4, a1
   1bea4: b3 05 a6 00  	add	a1, a2, a0
   1bea8: 3b 05 c5 40  	subw	a0, a0, a2
   1beac: 33 86 b6 00  	add	a2, a3, a1
   1beb0: 23 a0 ca 00  	sw	a2, 0x0(s5)
   1beb4: bb 86 b6 40  	subw	a3, a3, a1
   1beb8: 23 a8 da 00  	sw	a3, 0x10(s5)
   1bebc: 3b 05 75 01  	addw	a0, a0, s7
   1bec0: 93 05 50 0b  	addi	a1, zero, 0xb5
   1bec4: ef 50 11 27  	jal	ra, 0x31934 <__muldi3>
   1bec8: 13 55 85 00  	srli	a0, a0, 0x8
   1becc: b3 85 ab 00  	add	a1, s7, a0
   1bed0: 23 a4 ba 00  	sw	a1, 0x8(s5)
   1bed4: 3b 85 ab 40  	subw	a0, s7, a0
   1bed8: 23 ac aa 00  	sw	a0, 0x18(s5)
   1bedc: bb 84 24 01  	addw	s1, s1, s2
   1bee0: 3b 09 39 01  	addw	s2, s2, s3
   1bee4: bb 89 69 01  	addw	s3, s3, s6
   1bee8: 3b 85 34 41  	subw	a0, s1, s3
   1beec: 93 05 20 06  	addi	a1, zero, 0x62
   1bef0: ef 50 51 24  	jal	ra, 0x31934 <__muldi3>
   1bef4: 93 5b 85 00  	srli	s7, a0, 0x8
   1bef8: 93 05 b0 08  	addi	a1, zero, 0x8b
   1befc: 13 85 04 00  	addi	a0, s1, 0x0
   1bf00: ef 50 51 23  	jal	ra, 0x31934 <__muldi3>
   1bf04: 13 55 85 00  	srli	a0, a0, 0x8
   1bf08: b3 84 ab 00  	add	s1, s7, a0
   1bf0c: 93 05 e0 14  	addi	a1, zero, 0x14e
   1bf10: 13 85 09 00  	addi	a0, s3, 0x0
   1bf14: ef 50 11 22  	jal	ra, 0x31934 <__muldi3>
   1bf18: 13 55 85 00  	srli	a0, a0, 0x8
   1bf1c: b3 8b ab 00  	add	s7, s7, a0
   1bf20: 93 05 50 0b  	addi	a1, zero, 0xb5
   1bf24: 13 05 09 00  	addi	a0, s2, 0x0
   1bf28: ef 50 d1 20  	jal	ra, 0x31934 <__muldi3>
   1bf2c: 13 55 85 00  	srli	a0, a0, 0x8
   1bf30: b3 05 ab 00  	add	a1, s6, a0
   1bf34: 3b 05 ab 40  	subw	a0, s6, a0
   1bf38: 33 86 a4 00  	add	a2, s1, a0
   1bf3c: 23 aa ca 00  	sw	a2, 0x14(s5)
   1bf40: 3b 05 95 40  	subw	a0, a0, s1
   1bf44: 23 a6 aa 00  	sw	a0, 0xc(s5)
   1bf48: 33 85 bb 00  	add	a0, s7, a1
   1bf4c: 23 a2 aa 00  	sw	a0, 0x4(s5)
   1bf50: 3b 85 75 41  	subw	a0, a1, s7
   1bf54: 23 ae aa 00  	sw	a0, 0x1c(s5)
   1bf58: 93 8a 0a 02  	addi	s5, s5, 0x20
   1bf5c: e3 90 4a f1  	bne	s5, s4, 0x1be5c <jpeg_fdct_ifast+0x10>
   1bf60: 13 0a 04 02  	addi	s4, s0, 0x20
   1bf64: 03 25 04 00  	lw	a0, 0x0(s0)
   1bf68: 83 25 04 0e  	lw	a1, 0xe0(s0)
   1bf6c: 03 26 04 02  	lw	a2, 0x20(s0)
   1bf70: 83 26 04 0c  	lw	a3, 0xc0(s0)
   1bf74: 33 87 a5 00  	add	a4, a1, a0
   1bf78: bb 0a b5 40  	subw	s5, a0, a1
   1bf7c: 33 85 c6 00  	add	a0, a3, a2
   1bf80: 83 25 04 04  	lw	a1, 0x40(s0)
   1bf84: 83 27 04 0a  	lw	a5, 0xa0(s0)
   1bf88: 03 28 04 06  	lw	a6, 0x60(s0)
   1bf8c: 83 28 04 08  	lw	a7, 0x80(s0)
   1bf90: bb 09 d6 40  	subw	s3, a2, a3
   1bf94: 33 86 b7 00  	add	a2, a5, a1
   1bf98: 3b 89 f5 40  	subw	s2, a1, a5
   1bf9c: b3 85 08 01  	add	a1, a7, a6
   1bfa0: bb 04 18 41  	subw	s1, a6, a7
   1bfa4: b3 86 e5 00  	add	a3, a1, a4
   1bfa8: 3b 0b b7 40  	subw	s6, a4, a1
   1bfac: b3 05 a6 00  	add	a1, a2, a0
   1bfb0: 3b 05 c5 40  	subw	a0, a0, a2
   1bfb4: 33 86 b6 00  	add	a2, a3, a1
   1bfb8: 23 20 c4 00  	sw	a2, 0x0(s0)
   1bfbc: bb 86 b6 40  	subw	a3, a3, a1
   1bfc0: 23 20 d4 08  	sw	a3, 0x80(s0)
   1bfc4: 3b 05 65 01  	addw	a0, a0, s6
   1bfc8: 93 05 50 0b  	addi	a1, zero, 0xb5
   1bfcc: ef 50 91 16  	jal	ra, 0x31934 <__muldi3>
   1bfd0: 13 55 85 00  	srli	a0, a0, 0x8
   1bfd4: b3 05 ab 00  	add	a1, s6, a0
   1bfd8: 23 20 b4 04  	sw	a1, 0x40(s0)
   1bfdc: 3b 05 ab 40  	subw	a0, s6, a0
   1bfe0: 23 20 a4 0c  	sw	a0, 0xc0(s0)
   1bfe4: bb 84 24 01  	addw	s1, s1, s2
   1bfe8: 3b 09 39 01  	addw	s2, s2, s3
   1bfec: bb 89 59 01  	addw	s3, s3, s5
   1bff0: 3b 85 34 41  	subw	a0, s1, s3
   1bff4: 93 05 20 06  	addi	a1, zero, 0x62
   1bff8: ef 50 d1 13  	jal	ra, 0x31934 <__muldi3>
   1bffc: 13 5b 85 00  	srli	s6, a0, 0x8
   1c000: 93 05 b0 08  	addi	a1, zero, 0x8b
   1c004: 13 85 04 00  	addi	a0, s1, 0x0
   1c008: ef 50 d1 12  	jal	ra, 0x31934 <__muldi3>
   1c00c: 13 55 85 00  	srli	a0, a0, 0x8
   1c010: b3 04 ab 00  	add	s1, s6, a0
   1c014: 93 05 e0 14  	addi	a1, zero, 0x14e
   1c018: 13 85 09 00  	addi	a0, s3, 0x0
   1c01c: ef 50 91 11  	jal	ra, 0x31934 <__muldi3>
   1c020: 13 55 85 00  	srli	a0, a0, 0x8
   1c024: 33 0b ab 00  	add	s6, s6, a0
   1c028: 93 05 50 0b  	addi	a1, zero, 0xb5
   1c02c: 13 05 09 00  	addi	a0, s2, 0x0
   1c030: ef 50 51 10  	jal	ra, 0x31934 <__muldi3>
   1c034: 13 55 85 00  	srli	a0, a0, 0x8
   1c038: b3 85 aa 00  	add	a1, s5, a0
   1c03c: 3b 85 aa 40  	subw	a0, s5, a0
   1c040: 33 86 a4 00  	add	a2, s1, a0
   1c044: 23 20 c4 0a  	sw	a2, 0xa0(s0)
   1c048: 3b 05 95 40  	subw	a0, a0, s1
   1c04c: 23 20 a4 06  	sw	a0, 0x60(s0)
   1c050: 33 05 bb 00  	add	a0, s6, a1
   1c054: 23 20 a4 02  	sw	a0, 0x20(s0)
   1c058: 3b 85 65 41  	subw	a0, a1, s6
   1c05c: 23 20 a4 0e  	sw	a0, 0xe0(s0)
   1c060: 13 04 44 00  	addi	s0, s0, 0x4
   1c064: e3 10 44 f1  	bne	s0, s4, 0x1bf64 <jpeg_fdct_ifast+0x118>
   1c068: 6f 50 b1 0a  	jal	zero, 0x31912 <__riscv_restore_9>

000000000001c06c <jpeg_fdct_float>:
   1c06c: 87 a7 c1 1d  	flw	fa5, 0x1dc(gp)
   1c070: 07 a7 01 1e  	flw	fa4, 0x1e0(gp)
   1c074: 87 a6 41 1e  	flw	fa3, 0x1e4(gp)
   1c078: 07 a6 81 1e  	flw	fa2, 0x1e8(gp)
   1c07c: 93 05 05 10  	addi	a1, a0, 0x100
   1c080: 13 06 05 00  	addi	a2, a0, 0x0
   1c084: 87 25 06 00  	flw	fa1, 0x0(a2)
   1c088: 07 25 c6 01  	flw	fa0, 0x1c(a2)
   1c08c: 07 20 46 00  	flw	ft0, 0x4(a2)
   1c090: 87 20 86 01  	flw	ft1, 0x18(a2)
   1c094: 53 f1 a5 00  	fadd.s	ft2, fa1, fa0, dyn
   1c098: d3 f5 a5 08  	fsub.s	fa1, fa1, fa0, dyn
   1c09c: 53 75 10 00  	fadd.s	fa0, ft0, ft1, dyn
   1c0a0: 87 21 86 00  	flw	ft3, 0x8(a2)
   1c0a4: 07 22 46 01  	flw	ft4, 0x14(a2)
   1c0a8: 87 22 c6 00  	flw	ft5, 0xc(a2)
   1c0ac: 07 23 06 01  	flw	ft6, 0x10(a2)
   1c0b0: 53 70 10 08  	fsub.s	ft0, ft0, ft1, dyn
   1c0b4: d3 f0 41 00  	fadd.s	ft1, ft3, ft4, dyn
   1c0b8: d3 f1 41 08  	fsub.s	ft3, ft3, ft4, dyn
   1c0bc: 53 f2 62 00  	fadd.s	ft4, ft5, ft6, dyn
   1c0c0: d3 f2 62 08  	fsub.s	ft5, ft5, ft6, dyn
   1c0c4: 53 73 41 00  	fadd.s	ft6, ft2, ft4, dyn
   1c0c8: 53 71 41 08  	fsub.s	ft2, ft2, ft4, dyn
   1c0cc: 53 72 15 00  	fadd.s	ft4, fa0, ft1, dyn
   1c0d0: 53 75 15 08  	fsub.s	fa0, fa0, ft1, dyn
   1c0d4: d3 70 62 00  	fadd.s	ft1, ft4, ft6, dyn
   1c0d8: 27 20 16 00  	fsw	ft1, 0x0(a2)
   1c0dc: d3 70 43 08  	fsub.s	ft1, ft6, ft4, dyn
   1c0e0: 27 28 16 00  	fsw	ft1, 0x10(a2)
   1c0e4: 53 75 25 00  	fadd.s	fa0, fa0, ft2, dyn
   1c0e8: 53 75 f5 10  	fmul.s	fa0, fa0, fa5, dyn
   1c0ec: d3 70 a1 00  	fadd.s	ft1, ft2, fa0, dyn
   1c0f0: 27 24 16 00  	fsw	ft1, 0x8(a2)
   1c0f4: 53 75 a1 08  	fsub.s	fa0, ft2, fa0, dyn
   1c0f8: 27 2c a6 00  	fsw	fa0, 0x18(a2)
   1c0fc: 53 f5 51 00  	fadd.s	fa0, ft3, ft5, dyn
   1c100: d3 70 30 00  	fadd.s	ft1, ft0, ft3, dyn
   1c104: 53 f0 05 00  	fadd.s	ft0, fa1, ft0, dyn
   1c108: 53 71 05 08  	fsub.s	ft2, fa0, ft0, dyn
   1c10c: 53 71 e1 10  	fmul.s	ft2, ft2, fa4, dyn
   1c110: 43 75 d5 10  	fmadd.s	fa0, fa0, fa3, ft2, dyn
   1c114: 43 70 c0 10  	fmadd.s	ft0, ft0, fa2, ft2, dyn
   1c118: d3 f0 f0 10  	fmul.s	ft1, ft1, fa5, dyn
   1c11c: 53 f1 15 00  	fadd.s	ft2, fa1, ft1, dyn
   1c120: d3 f5 15 08  	fsub.s	fa1, fa1, ft1, dyn
   1c124: d3 f0 a5 00  	fadd.s	ft1, fa1, fa0, dyn
   1c128: 27 2a 16 00  	fsw	ft1, 0x14(a2)
   1c12c: d3 f5 a5 08  	fsub.s	fa1, fa1, fa0, dyn
   1c130: 27 26 b6 00  	fsw	fa1, 0xc(a2)
   1c134: d3 75 01 00  	fadd.s	fa1, ft2, ft0, dyn
   1c138: 27 22 b6 00  	fsw	fa1, 0x4(a2)
   1c13c: d3 75 01 08  	fsub.s	fa1, ft2, ft0, dyn
   1c140: 27 2e b6 00  	fsw	fa1, 0x1c(a2)
   1c144: 13 06 06 02  	addi	a2, a2, 0x20
   1c148: e3 1e b6 f2  	bne	a2, a1, 0x1c084 <jpeg_fdct_float+0x18>
   1c14c: 87 a7 c1 1d  	flw	fa5, 0x1dc(gp)
   1c150: 07 a7 01 1e  	flw	fa4, 0x1e0(gp)
   1c154: 87 a6 41 1e  	flw	fa3, 0x1e4(gp)
   1c158: 07 a6 81 1e  	flw	fa2, 0x1e8(gp)
   1c15c: 93 05 05 02  	addi	a1, a0, 0x20
   1c160: 87 25 05 00  	flw	fa1, 0x0(a0)
   1c164: 07 25 05 0e  	flw	fa0, 0xe0(a0)
   1c168: 07 20 05 02  	flw	ft0, 0x20(a0)
   1c16c: 87 20 05 0c  	flw	ft1, 0xc0(a0)
   1c170: 53 f1 a5 00  	fadd.s	ft2, fa1, fa0, dyn
   1c174: d3 f5 a5 08  	fsub.s	fa1, fa1, fa0, dyn
   1c178: 53 75 10 00  	fadd.s	fa0, ft0, ft1, dyn
   1c17c: 87 21 05 04  	flw	ft3, 0x40(a0)
   1c180: 07 22 05 0a  	flw	ft4, 0xa0(a0)
   1c184: 87 22 05 06  	flw	ft5, 0x60(a0)
   1c188: 07 23 05 08  	flw	ft6, 0x80(a0)
   1c18c: 53 70 10 08  	fsub.s	ft0, ft0, ft1, dyn
   1c190: d3 f0 41 00  	fadd.s	ft1, ft3, ft4, dyn
   1c194: d3 f1 41 08  	fsub.s	ft3, ft3, ft4, dyn
   1c198: 53 f2 62 00  	fadd.s	ft4, ft5, ft6, dyn
   1c19c: d3 f2 62 08  	fsub.s	ft5, ft5, ft6, dyn
   1c1a0: 53 73 41 00  	fadd.s	ft6, ft2, ft4, dyn
   1c1a4: 53 71 41 08  	fsub.s	ft2, ft2, ft4, dyn
   1c1a8: 53 72 15 00  	fadd.s	ft4, fa0, ft1, dyn
   1c1ac: 53 75 15 08  	fsub.s	fa0, fa0, ft1, dyn
   1c1b0: d3 70 62 00  	fadd.s	ft1, ft4, ft6, dyn
   1c1b4: 27 20 15 00  	fsw	ft1, 0x0(a0)
   1c1b8: d3 70 43 08  	fsub.s	ft1, ft6, ft4, dyn
   1c1bc: 27 20 15 08  	fsw	ft1, 0x80(a0)
   1c1c0: 53 75 25 00  	fadd.s	fa0, fa0, ft2, dyn
   1c1c4: 53 75 f5 10  	fmul.s	fa0, fa0, fa5, dyn
   1c1c8: d3 70 a1 00  	fadd.s	ft1, ft2, fa0, dyn
   1c1cc: 27 20 15 04  	fsw	ft1, 0x40(a0)
   1c1d0: 53 75 a1 08  	fsub.s	fa0, ft2, fa0, dyn
   1c1d4: 27 20 a5 0c  	fsw	fa0, 0xc0(a0)
   1c1d8: 53 f5 51 00  	fadd.s	fa0, ft3, ft5, dyn
   1c1dc: d3 70 30 00  	fadd.s	ft1, ft0, ft3, dyn
   1c1e0: 53 f0 05 00  	fadd.s	ft0, fa1, ft0, dyn
   1c1e4: 53 71 05 08  	fsub.s	ft2, fa0, ft0, dyn
   1c1e8: 53 71 e1 10  	fmul.s	ft2, ft2, fa4, dyn
   1c1ec: 43 75 d5 10  	fmadd.s	fa0, fa0, fa3, ft2, dyn
   1c1f0: 43 70 c0 10  	fmadd.s	ft0, ft0, fa2, ft2, dyn
   1c1f4: d3 f0 f0 10  	fmul.s	ft1, ft1, fa5, dyn
   1c1f8: 53 f1 15 00  	fadd.s	ft2, fa1, ft1, dyn
   1c1fc: d3 f5 15 08  	fsub.s	fa1, fa1, ft1, dyn
   1c200: d3 f0 a5 00  	fadd.s	ft1, fa1, fa0, dyn
   1c204: 27 20 15 0a  	fsw	ft1, 0xa0(a0)
   1c208: d3 f5 a5 08  	fsub.s	fa1, fa1, fa0, dyn
   1c20c: 27 20 b5 06  	fsw	fa1, 0x60(a0)
   1c210: d3 75 01 00  	fadd.s	fa1, ft2, ft0, dyn
   1c214: 27 20 b5 02  	fsw	fa1, 0x20(a0)
   1c218: d3 75 01 08  	fsub.s	fa1, ft2, ft0, dyn
   1c21c: 27 20 b5 0e  	fsw	fa1, 0xe0(a0)
   1c220: 13 05 45 00  	addi	a0, a0, 0x4
   1c224: e3 1e b5 f2  	bne	a0, a1, 0x1c160 <jpeg_fdct_float+0xf4>
   1c228: 67 80 00 00  	jalr	zero, 0x0(ra)

000000000001c22c <jpeg_fdct_islow>:
   1c22c: ef 52 21 69  	jal	t0, 0x318be <__riscv_save_12>
   1c230: 13 01 01 fa  	addi	sp, sp, -0x60
   1c234: 13 04 05 00  	addi	s0, a0, 0x0
   1c238: 37 f5 ff ff  	lui	a0, 0xfffff
   1c23c: 1b 05 45 38  	addiw	a0, a0, 0x384
   1c240: 23 3c a1 04  	sd	a0, 0x58(sp)
   1c244: 37 e5 ff ff  	lui	a0, 0xffffe
   1c248: 1b 05 35 33  	addiw	a0, a0, 0x333
   1c24c: 23 38 a1 04  	sd	a0, 0x50(sp)
   1c250: 37 c5 ff ff  	lui	a0, 0xffffc
   1c254: 1b 05 b5 13  	addiw	a0, a0, 0x13b
   1c258: 23 34 a1 04  	sd	a0, 0x48(sp)
   1c25c: 37 b5 ff ff  	lui	a0, 0xffffb
   1c260: 1b 05 d5 df  	addiw	a0, a0, -0x203
   1c264: 23 30 a1 04  	sd	a0, 0x40(sp)
   1c268: 37 65 00 00  	lui	a0, 0x6
   1c26c: 1b 05 45 25  	addiw	a0, a0, 0x254
   1c270: 23 3c a1 02  	sd	a0, 0x38(sp)
   1c274: 37 45 00 00  	lui	a0, 0x4
   1c278: 1b 05 35 1b  	addiw	a0, a0, 0x1b3
   1c27c: 23 38 a1 02  	sd	a0, 0x30(sp)
   1c280: 37 35 00 00  	lui	a0, 0x3
   1c284: 1b 05 b5 00  	addiw	a0, a0, 0xb
   1c288: 23 34 a1 02  	sd	a0, 0x28(sp)
   1c28c: 37 25 00 00  	lui	a0, 0x2
   1c290: 9b 0c 15 5a  	addiw	s9, a0, 0x5a1
   1c294: 1b 05 e5 87  	addiw	a0, a0, -0x782
   1c298: 23 30 a1 02  	sd	a0, 0x20(sp)
   1c29c: 37 15 00 00  	lui	a0, 0x1
   1c2a0: 1b 05 e5 98  	addiw	a0, a0, -0x672
   1c2a4: 93 05 04 10  	addi	a1, s0, 0x100
   1c2a8: 23 34 b1 00  	sd	a1, 0x8(sp)
   1c2ac: 23 3c a1 00  	sd	a0, 0x18(sp)
   1c2b0: 93 02 35 7c  	addi	t0, a0, 0x7c3
   1c2b4: 37 f5 4d fc  	lui	a0, 0xfc4df
   1c2b8: 13 15 95 00  	slli	a0, a0, 0x9
   1c2bc: 13 55 55 01  	srli	a0, a0, 0x15
   1c2c0: 23 30 a1 00  	sd	a0, 0x0(sp)
   1c2c4: 93 0d 04 00  	addi	s11, s0, 0x0
   1c2c8: 23 38 51 00  	sd	t0, 0x10(sp)
   1c2cc: 03 a5 0d 00  	lw	a0, 0x0(s11)
   1c2d0: 83 a5 cd 01  	lw	a1, 0x1c(s11)
   1c2d4: 03 a6 4d 00  	lw	a2, 0x4(s11)
   1c2d8: 83 a6 8d 01  	lw	a3, 0x18(s11)
   1c2dc: 3b 87 a5 00  	addw	a4, a1, a0
   1c2e0: 3b 0c b5 40  	subw	s8, a0, a1
   1c2e4: 3b 85 c6 00  	addw	a0, a3, a2
   1c2e8: 83 a5 8d 00  	lw	a1, 0x8(s11)
   1c2ec: 83 a7 4d 01  	lw	a5, 0x14(s11)
   1c2f0: 03 a8 cd 00  	lw	a6, 0xc(s11)
   1c2f4: 83 a8 0d 01  	lw	a7, 0x10(s11)
   1c2f8: bb 09 d6 40  	subw	s3, a2, a3
   1c2fc: 3b 86 b7 00  	addw	a2, a5, a1
   1c300: 3b 8a f5 40  	subw	s4, a1, a5
   1c304: bb 85 08 01  	addw	a1, a7, a6
   1c308: bb 0a 18 41  	subw	s5, a6, a7
   1c30c: b3 86 e5 00  	add	a3, a1, a4
   1c310: b3 04 b7 40  	sub	s1, a4, a1
   1c314: b3 05 a6 00  	add	a1, a2, a0
   1c318: 33 0b c5 40  	sub	s6, a0, a2
   1c31c: 33 85 b6 00  	add	a0, a3, a1
   1c320: 13 15 25 00  	slli	a0, a0, 0x2
   1c324: 23 a0 ad 00  	sw	a0, 0x0(s11)
   1c328: bb 86 b6 40  	subw	a3, a3, a1
   1c32c: 93 96 26 00  	slli	a3, a3, 0x2
   1c330: 23 a8 dd 00  	sw	a3, 0x10(s11)
   1c334: 33 85 64 01  	add	a0, s1, s6
   1c338: 93 85 02 00  	addi	a1, t0, 0x0
   1c33c: ef 50 81 5f  	jal	ra, 0x31934 <__muldi3>
   1c340: 93 0b 05 00  	addi	s7, a0, 0x0
   1c344: 13 85 04 00  	addi	a0, s1, 0x0
   1c348: 83 35 01 02  	ld	a1, 0x20(sp)
   1c34c: ef 50 81 5e  	jal	ra, 0x31934 <__muldi3>
   1c350: 93 84 0b 40  	addi	s1, s7, 0x400
   1c354: 33 85 a4 00  	add	a0, s1, a0
   1c358: 13 55 b5 00  	srli	a0, a0, 0xb
   1c35c: 23 a4 ad 00  	sw	a0, 0x8(s11)
   1c360: 13 05 0b 00  	addi	a0, s6, 0x0
   1c364: 83 35 01 00  	ld	a1, 0x0(sp)
   1c368: ef 50 c1 5c  	jal	ra, 0x31934 <__muldi3>
   1c36c: 33 85 a4 00  	add	a0, s1, a0
   1c370: 13 55 b5 00  	srli	a0, a0, 0xb
   1c374: 23 ac ad 00  	sw	a0, 0x18(s11)
   1c378: b3 84 8a 01  	add	s1, s5, s8
   1c37c: 33 0b 3a 01  	add	s6, s4, s3
   1c380: b3 8b 3a 01  	add	s7, s5, s3
   1c384: 33 09 8a 01  	add	s2, s4, s8
   1c388: 33 85 2b 01  	add	a0, s7, s2
   1c38c: 93 85 0c 00  	addi	a1, s9, 0x0
   1c390: ef 50 41 5a  	jal	ra, 0x31934 <__muldi3>
   1c394: 13 8d 0c 00  	addi	s10, s9, 0x0
   1c398: 93 0c 05 00  	addi	s9, a0, 0x0
   1c39c: 13 85 0a 00  	addi	a0, s5, 0x0
   1c3a0: 83 35 81 01  	ld	a1, 0x18(sp)
   1c3a4: ef 50 01 59  	jal	ra, 0x31934 <__muldi3>
   1c3a8: 93 0a 05 00  	addi	s5, a0, 0x0
   1c3ac: 13 05 0a 00  	addi	a0, s4, 0x0
   1c3b0: 83 35 01 03  	ld	a1, 0x30(sp)
   1c3b4: ef 50 01 58  	jal	ra, 0x31934 <__muldi3>
   1c3b8: 13 0a 05 00  	addi	s4, a0, 0x0
   1c3bc: 13 85 09 00  	addi	a0, s3, 0x0
   1c3c0: 83 35 81 03  	ld	a1, 0x38(sp)
   1c3c4: ef 50 01 57  	jal	ra, 0x31934 <__muldi3>
   1c3c8: 93 09 05 00  	addi	s3, a0, 0x0
   1c3cc: 13 05 0c 00  	addi	a0, s8, 0x0
   1c3d0: 83 35 81 02  	ld	a1, 0x28(sp)
   1c3d4: ef 50 01 56  	jal	ra, 0x31934 <__muldi3>
   1c3d8: 13 0c 05 00  	addi	s8, a0, 0x0
   1c3dc: 13 85 04 00  	addi	a0, s1, 0x0
   1c3e0: 83 35 01 05  	ld	a1, 0x50(sp)
   1c3e4: ef 50 01 55  	jal	ra, 0x31934 <__muldi3>
   1c3e8: 93 04 05 00  	addi	s1, a0, 0x0
   1c3ec: 13 05 0b 00  	addi	a0, s6, 0x0
   1c3f0: 83 35 01 04  	ld	a1, 0x40(sp)
   1c3f4: ef 50 01 54  	jal	ra, 0x31934 <__muldi3>
   1c3f8: 13 0b 05 00  	addi	s6, a0, 0x0
   1c3fc: 13 85 0b 00  	addi	a0, s7, 0x0
   1c400: 83 35 81 04  	ld	a1, 0x48(sp)
   1c404: ef 50 01 53  	jal	ra, 0x31934 <__muldi3>
   1c408: 93 0b 05 00  	addi	s7, a0, 0x0
   1c40c: 13 05 09 00  	addi	a0, s2, 0x0
   1c410: 83 35 81 05  	ld	a1, 0x58(sp)
   1c414: ef 50 01 52  	jal	ra, 0x31934 <__muldi3>
   1c418: 83 32 01 01  	ld	t0, 0x10(sp)
   1c41c: b3 8b 7c 01  	add	s7, s9, s7
   1c420: 33 85 ac 00  	add	a0, s9, a0
   1c424: 93 0c 0d 00  	addi	s9, s10, 0x0
   1c428: 93 85 04 40  	addi	a1, s1, 0x400
   1c42c: b3 8a 55 01  	add	s5, a1, s5
   1c430: b3 8a 7a 01  	add	s5, s5, s7
   1c434: 13 d6 ba 00  	srli	a2, s5, 0xb
   1c438: 23 ae cd 00  	sw	a2, 0x1c(s11)
   1c43c: 13 06 0b 40  	addi	a2, s6, 0x400
   1c440: 33 0a 46 01  	add	s4, a2, s4
   1c444: 33 0a aa 00  	add	s4, s4, a0
   1c448: 93 56 ba 00  	srli	a3, s4, 0xb
   1c44c: 23 aa dd 00  	sw	a3, 0x14(s11)
   1c450: 33 06 36 01  	add	a2, a2, s3
   1c454: 33 06 76 01  	add	a2, a2, s7
   1c458: 13 56 b6 00  	srli	a2, a2, 0xb
   1c45c: 23 a6 cd 00  	sw	a2, 0xc(s11)
   1c460: b3 85 85 01  	add	a1, a1, s8
   1c464: 33 85 a5 00  	add	a0, a1, a0
   1c468: 13 55 b5 00  	srli	a0, a0, 0xb
   1c46c: 23 a2 ad 00  	sw	a0, 0x4(s11)
   1c470: 93 8d 0d 02  	addi	s11, s11, 0x20
   1c474: 03 35 81 00  	ld	a0, 0x8(sp)
   1c478: e3 9a ad e4  	bne	s11, a0, 0x1c2cc <jpeg_fdct_islow+0xa0>
   1c47c: 13 05 04 02  	addi	a0, s0, 0x20
   1c480: 23 34 a1 00  	sd	a0, 0x8(sp)
   1c484: b7 4d 00 00  	lui	s11, 0x4
   1c488: 37 05 be 89  	lui	a0, 0x89be0
   1c48c: 13 55 15 01  	srli	a0, a0, 0x11
   1c490: 23 30 a1 00  	sd	a0, 0x0(sp)
   1c494: 03 25 04 00  	lw	a0, 0x0(s0)
   1c498: 83 25 04 0e  	lw	a1, 0xe0(s0)
   1c49c: 03 26 04 02  	lw	a2, 0x20(s0)
   1c4a0: 83 26 04 0c  	lw	a3, 0xc0(s0)
   1c4a4: 3b 87 a5 00  	addw	a4, a1, a0
   1c4a8: 3b 09 b5 40  	subw	s2, a0, a1
   1c4ac: 3b 85 c6 00  	addw	a0, a3, a2
   1c4b0: 83 25 04 04  	lw	a1, 0x40(s0)
   1c4b4: 83 27 04 0a  	lw	a5, 0xa0(s0)
   1c4b8: 03 28 04 06  	lw	a6, 0x60(s0)
   1c4bc: 83 28 04 08  	lw	a7, 0x80(s0)
   1c4c0: bb 09 d6 40  	subw	s3, a2, a3
   1c4c4: 3b 86 b7 00  	addw	a2, a5, a1
   1c4c8: bb 84 f5 40  	subw	s1, a1, a5
   1c4cc: bb 85 08 01  	addw	a1, a7, a6
   1c4d0: 3b 0a 18 41  	subw	s4, a6, a7
   1c4d4: b3 86 e5 00  	add	a3, a1, a4
   1c4d8: b3 0a b7 40  	sub	s5, a4, a1
   1c4dc: b3 05 a6 00  	add	a1, a2, a0
   1c4e0: 33 0b c5 40  	sub	s6, a0, a2
   1c4e4: 33 85 d5 00  	add	a0, a1, a3
   1c4e8: 13 05 25 00  	addi	a0, a0, 0x2
   1c4ec: 13 55 25 00  	srli	a0, a0, 0x2
   1c4f0: 23 20 a4 00  	sw	a0, 0x0(s0)
   1c4f4: b3 86 b6 40  	sub	a3, a3, a1
   1c4f8: 93 86 26 00  	addi	a3, a3, 0x2
   1c4fc: 93 d6 26 00  	srli	a3, a3, 0x2
   1c500: 23 20 d4 08  	sw	a3, 0x80(s0)
   1c504: 33 85 6a 01  	add	a0, s5, s6
   1c508: 93 85 02 00  	addi	a1, t0, 0x0
   1c50c: ef 50 81 42  	jal	ra, 0x31934 <__muldi3>
   1c510: 93 0b 05 00  	addi	s7, a0, 0x0
   1c514: 13 85 0a 00  	addi	a0, s5, 0x0
   1c518: 83 35 01 02  	ld	a1, 0x20(sp)
   1c51c: ef 50 81 41  	jal	ra, 0x31934 <__muldi3>
   1c520: b3 8b bb 01  	add	s7, s7, s11
   1c524: 33 85 ab 00  	add	a0, s7, a0
   1c528: 13 55 f5 00  	srli	a0, a0, 0xf
   1c52c: 23 20 a4 04  	sw	a0, 0x40(s0)
   1c530: 13 05 0b 00  	addi	a0, s6, 0x0
   1c534: 83 35 01 00  	ld	a1, 0x0(sp)
   1c538: ef 50 c1 3f  	jal	ra, 0x31934 <__muldi3>
   1c53c: 33 85 ab 00  	add	a0, s7, a0
   1c540: 13 55 f5 00  	srli	a0, a0, 0xf
   1c544: 23 20 a4 0c  	sw	a0, 0xc0(s0)
   1c548: b3 0a 2a 01  	add	s5, s4, s2
   1c54c: 33 8b 34 01  	add	s6, s1, s3
   1c550: b3 0b 3a 01  	add	s7, s4, s3
   1c554: 33 8c 24 01  	add	s8, s1, s2
   1c558: 33 85 8b 01  	add	a0, s7, s8
   1c55c: 93 85 0c 00  	addi	a1, s9, 0x0
   1c560: ef 50 41 3d  	jal	ra, 0x31934 <__muldi3>
   1c564: 93 0c 05 00  	addi	s9, a0, 0x0
   1c568: 13 05 0a 00  	addi	a0, s4, 0x0
   1c56c: 83 35 81 01  	ld	a1, 0x18(sp)
   1c570: ef 50 41 3c  	jal	ra, 0x31934 <__muldi3>
   1c574: 13 0a 05 00  	addi	s4, a0, 0x0
   1c578: 13 85 04 00  	addi	a0, s1, 0x0
   1c57c: 83 35 01 03  	ld	a1, 0x30(sp)
   1c580: ef 50 41 3b  	jal	ra, 0x31934 <__muldi3>
   1c584: 93 04 05 00  	addi	s1, a0, 0x0
   1c588: 13 85 09 00  	addi	a0, s3, 0x0
   1c58c: 83 35 81 03  	ld	a1, 0x38(sp)
   1c590: ef 50 41 3a  	jal	ra, 0x31934 <__muldi3>
   1c594: 93 09 05 00  	addi	s3, a0, 0x0
   1c598: 13 05 09 00  	addi	a0, s2, 0x0
   1c59c: 83 35 81 02  	ld	a1, 0x28(sp)
   1c5a0: ef 50 41 39  	jal	ra, 0x31934 <__muldi3>
   1c5a4: 13 09 05 00  	addi	s2, a0, 0x0
   1c5a8: 13 85 0a 00  	addi	a0, s5, 0x0
   1c5ac: 83 35 01 05  	ld	a1, 0x50(sp)
   1c5b0: ef 50 41 38  	jal	ra, 0x31934 <__muldi3>
   1c5b4: 93 0a 05 00  	addi	s5, a0, 0x0
   1c5b8: 13 05 0b 00  	addi	a0, s6, 0x0
   1c5bc: 83 35 01 04  	ld	a1, 0x40(sp)
   1c5c0: ef 50 41 37  	jal	ra, 0x31934 <__muldi3>
   1c5c4: 13 0b 05 00  	addi	s6, a0, 0x0
   1c5c8: 13 85 0b 00  	addi	a0, s7, 0x0
   1c5cc: 83 35 81 04  	ld	a1, 0x48(sp)
   1c5d0: ef 50 41 36  	jal	ra, 0x31934 <__muldi3>
   1c5d4: 93 0b 05 00  	addi	s7, a0, 0x0
   1c5d8: 13 05 0c 00  	addi	a0, s8, 0x0
   1c5dc: 83 35 81 05  	ld	a1, 0x58(sp)
   1c5e0: ef 50 41 35  	jal	ra, 0x31934 <__muldi3>
   1c5e4: 83 32 01 01  	ld	t0, 0x10(sp)
   1c5e8: b3 8b 7c 01  	add	s7, s9, s7
   1c5ec: 33 85 ac 00  	add	a0, s9, a0
   1c5f0: 93 0c 0d 00  	addi	s9, s10, 0x0
   1c5f4: b3 8a ba 01  	add	s5, s5, s11
   1c5f8: 33 8a 4a 01  	add	s4, s5, s4
   1c5fc: 33 0a 7a 01  	add	s4, s4, s7
   1c600: 93 55 fa 00  	srli	a1, s4, 0xf
   1c604: 23 20 b4 0e  	sw	a1, 0xe0(s0)
   1c608: 33 0b bb 01  	add	s6, s6, s11
   1c60c: b3 04 9b 00  	add	s1, s6, s1
   1c610: b3 84 a4 00  	add	s1, s1, a0
   1c614: 93 d4 f4 00  	srli	s1, s1, 0xf
   1c618: 23 20 94 0a  	sw	s1, 0xa0(s0)
   1c61c: b3 09 3b 01  	add	s3, s6, s3
   1c620: b3 89 79 01  	add	s3, s3, s7
   1c624: 93 d5 f9 00  	srli	a1, s3, 0xf
   1c628: 23 20 b4 06  	sw	a1, 0x60(s0)
   1c62c: 33 89 2a 01  	add	s2, s5, s2
   1c630: 33 05 a9 00  	add	a0, s2, a0
   1c634: 13 55 f5 00  	srli	a0, a0, 0xf
   1c638: 23 20 a4 02  	sw	a0, 0x20(s0)
   1c63c: 13 04 44 00  	addi	s0, s0, 0x4
   1c640: 03 35 81 00  	ld	a0, 0x8(sp)
   1c644: e3 18 a4 e4  	bne	s0, a0, 0x1c494 <jpeg_fdct_islow+0x268>
   1c648: 13 01 01 06  	addi	sp, sp, 0x60
   1c64c: 6f 50 c1 2b  	jal	zero, 0x31908 <__riscv_restore_12>

000000000001c650 <jpeg_abort>:
   1c650: ef 52 01 2b  	jal	t0, 0x31900 <__riscv_save_1>
   1c654: 13 04 05 00  	addi	s0, a0, 0x0
   1c658: 03 35 85 00  	ld	a0, 0x8(a0)
   1c65c: 03 36 85 04  	ld	a2, 0x48(a0)
   1c660: 93 05 10 00  	addi	a1, zero, 0x1
   1c664: 13 05 04 00  	addi	a0, s0, 0x0
   1c668: e7 00 06 00  	jalr	ra, 0x0(a2)
   1c66c: 83 25 84 01  	lw	a1, 0x18(s0)
   1c670: 13 05 40 06  	addi	a0, zero, 0x64
   1c674: 63 84 05 00  	beq	a1, zero, 0x1c67c <jpeg_abort+0x2c>
   1c678: 13 05 80 0c  	addi	a0, zero, 0xc8
   1c67c: 23 2e a4 00  	sw	a0, 0x1c(s0)
   1c680: 6f 50 a1 2a  	jal	zero, 0x3192a <__riscv_restore_1>

000000000001c684 <jpeg_destroy>:
   1c684: ef 52 c1 27  	jal	t0, 0x31900 <__riscv_save_1>
   1c688: 13 04 05 00  	addi	s0, a0, 0x0
   1c68c: 03 35 85 00  	ld	a0, 0x8(a0)
   1c690: 63 08 05 00  	beq	a0, zero, 0x1c6a0 <jpeg_destroy+0x1c>
   1c694: 83 35 05 05  	ld	a1, 0x50(a0)
   1c698: 13 05 04 00  	addi	a0, s0, 0x0
   1c69c: e7 80 05 00  	jalr	ra, 0x0(a1)
   1c6a0: 23 34 04 00  	sd	zero, 0x8(s0)
   1c6a4: 23 2e 04 00  	sw	zero, 0x1c(s0)
   1c6a8: 6f 50 21 28  	jal	zero, 0x3192a <__riscv_restore_1>

000000000001c6ac <jpeg_alloc_quant_table>:
   1c6ac: ef 52 41 25  	jal	t0, 0x31900 <__riscv_save_1>
   1c6b0: 83 35 85 00  	ld	a1, 0x8(a0)
   1c6b4: 83 b6 05 00  	ld	a3, 0x0(a1)
   1c6b8: 13 06 40 08  	addi	a2, zero, 0x84
   1c6bc: 93 05 00 00  	addi	a1, zero, 0x0
   1c6c0: e7 80 06 00  	jalr	ra, 0x0(a3)
   1c6c4: 23 20 05 08  	sw	zero, 0x80(a0)
   1c6c8: 6f 50 21 26  	jal	zero, 0x3192a <__riscv_restore_1>

000000000001c6cc <jpeg_alloc_huff_table>:
   1c6cc: ef 52 41 23  	jal	t0, 0x31900 <__riscv_save_1>
   1c6d0: 83 35 85 00  	ld	a1, 0x8(a0)
   1c6d4: 83 b6 05 00  	ld	a3, 0x0(a1)
   1c6d8: 13 06 80 11  	addi	a2, zero, 0x118
   1c6dc: 93 05 00 00  	addi	a1, zero, 0x0
   1c6e0: e7 80 06 00  	jalr	ra, 0x0(a3)
   1c6e4: 23 2a 05 10  	sw	zero, 0x114(a0)
   1c6e8: 6f 50 21 24  	jal	zero, 0x3192a <__riscv_restore_1>

000000000001c6ec <jdiv_round_up>:
   1c6ec: 33 05 b5 00  	add	a0, a0, a1
   1c6f0: 13 05 f5 ff  	addi	a0, a0, -0x1
   1c6f4: 6f 50 01 28  	jal	zero, 0x31974 <__divdi3>

000000000001c6f8 <jround_up>:
   1c6f8: ef 52 81 20  	jal	t0, 0x31900 <__riscv_save_1>
   1c6fc: 33 05 b5 00  	add	a0, a0, a1
   1c700: 13 04 f5 ff  	addi	s0, a0, -0x1
   1c704: 13 05 04 00  	addi	a0, s0, 0x0
   1c708: ef 50 81 2c  	jal	ra, 0x319d0 <__modsi3>
   1c70c: 33 05 a4 40  	sub	a0, s0, a0
   1c710: 6f 50 a1 21  	jal	zero, 0x3192a <__riscv_restore_1>

000000000001c714 <jcopy_sample_rows>:
   1c714: 63 52 e0 06  	bge	zero, a4, 0x1c778 <jcopy_sample_rows+0x64>
   1c718: ef 52 c1 1c  	jal	t0, 0x318e4 <__riscv_save_5>
   1c71c: 93 97 07 02  	slli	a5, a5, 0x20
   1c720: 13 d4 07 02  	srli	s0, a5, 0x20
   1c724: 13 98 36 00  	slli	a6, a3, 0x3
   1c728: b3 06 06 01  	add	a3, a2, a6
   1c72c: 93 95 35 00  	slli	a1, a1, 0x3
   1c730: b3 07 b5 00  	add	a5, a0, a1
   1c734: 13 07 f7 ff  	addi	a4, a4, -0x1
   1c738: 13 17 07 02  	slli	a4, a4, 0x20
   1c73c: 13 57 d7 01  	srli	a4, a4, 0x1d
   1c740: 33 06 c8 00  	add	a2, a6, a2
   1c744: 33 06 e6 00  	add	a2, a2, a4
   1c748: 93 04 86 00  	addi	s1, a2, 0x8
   1c74c: 83 b5 07 00  	ld	a1, 0x0(a5)
   1c750: 03 b5 06 00  	ld	a0, 0x0(a3)
   1c754: 13 89 87 00  	addi	s2, a5, 0x8
   1c758: 93 89 86 00  	addi	s3, a3, 0x8
   1c75c: 13 06 04 00  	addi	a2, s0, 0x0
   1c760: ef 30 00 07  	jal	ra, 0x1f7d0 <memcpy>
   1c764: 93 07 09 00  	addi	a5, s2, 0x0
   1c768: 93 86 09 00  	addi	a3, s3, 0x0
   1c76c: e3 90 99 fe  	bne	s3, s1, 0x1c74c <jcopy_sample_rows+0x38>
   1c770: 6f 50 e1 1a  	jal	zero, 0x3191e <__riscv_restore_5>
   1c774: 6f 00 40 00  	jal	zero, 0x1c778 <jcopy_sample_rows+0x64>
   1c778: 67 80 00 00  	jalr	zero, 0x0(ra)

000000000001c77c <jcopy_block_row>:
   1c77c: 13 16 06 02  	slli	a2, a2, 0x20
   1c780: 13 56 96 01  	srli	a2, a2, 0x19
   1c784: 93 06 05 00  	addi	a3, a0, 0x0
   1c788: 13 85 05 00  	addi	a0, a1, 0x0
   1c78c: 93 85 06 00  	addi	a1, a3, 0x0
   1c790: 6f 30 00 04  	jal	zero, 0x1f7d0 <memcpy>

000000000001c794 <jzero_far>:
   1c794: 13 86 05 00  	addi	a2, a1, 0x0
   1c798: 93 05 00 00  	addi	a1, zero, 0x0
   1c79c: 6f 20 b0 78  	jal	zero, 0x1f726 <memset>

000000000001c7a0 <jpeg_std_error>:
   1c7a0: b7 d5 01 00  	lui	a1, 0x1d
   1c7a4: 93 85 85 80  	addi	a1, a1, -0x7f8
   1c7a8: 23 30 b5 00  	sd	a1, 0x0(a0)
   1c7ac: b7 d5 01 00  	lui	a1, 0x1d
   1c7b0: 93 85 05 83  	addi	a1, a1, -0x7d0
   1c7b4: 23 34 b5 00  	sd	a1, 0x8(a0)
   1c7b8: b7 d5 01 00  	lui	a1, 0x1d
   1c7bc: 93 85 85 89  	addi	a1, a1, -0x768
   1c7c0: 23 38 b5 00  	sd	a1, 0x10(a0)
   1c7c4: b7 d5 01 00  	lui	a1, 0x1d
   1c7c8: 93 85 05 8d  	addi	a1, a1, -0x730
   1c7cc: 23 3c b5 00  	sd	a1, 0x18(a0)
   1c7d0: b7 d5 01 00  	lui	a1, 0x1d
   1c7d4: 93 85 05 9a  	addi	a1, a1, -0x660
   1c7d8: 23 30 b5 02  	sd	a1, 0x20(a0)
   1c7dc: 23 2e 05 06  	sw	zero, 0x7c(a0)
   1c7e0: 23 30 05 08  	sd	zero, 0x80(a0)
   1c7e4: 23 24 05 02  	sw	zero, 0x28(a0)
   1c7e8: b7 45 03 00  	lui	a1, 0x34
   1c7ec: 93 85 85 eb  	addi	a1, a1, -0x148
   1c7f0: 23 34 b5 08  	sd	a1, 0x88(a0)
   1c7f4: 93 05 70 07  	addi	a1, zero, 0x77
   1c7f8: 23 28 b5 08  	sw	a1, 0x90(a0)
   1c7fc: 23 3c 05 08  	sd	zero, 0x98(a0)
   1c800: 23 30 05 0a  	sd	zero, 0xa0(a0)
   1c804: 67 80 00 00  	jalr	zero, 0x0(ra)

000000000001c808 <error_exit>:
   1c808: ef 52 81 0f  	jal	t0, 0x31900 <__riscv_save_1>
   1c80c: 13 04 05 00  	addi	s0, a0, 0x0
   1c810: 03 35 05 00  	ld	a0, 0x0(a0)
   1c814: 83 35 05 01  	ld	a1, 0x10(a0)
   1c818: 13 05 04 00  	addi	a0, s0, 0x0
   1c81c: e7 80 05 00  	jalr	ra, 0x0(a1)
   1c820: 13 05 04 00  	addi	a0, s0, 0x0
   1c824: ef f0 1f e6  	jal	ra, 0x1c684 <jpeg_destroy>
   1c828: 13 05 10 00  	addi	a0, zero, 0x1
   1c82c: ef 30 5f 8f  	jal	ra, 0x10120 <exit>

000000000001c830 <emit_message>:
   1c830: 13 01 01 ff  	addi	sp, sp, -0x10
   1c834: 23 34 11 00  	sd	ra, 0x8(sp)
   1c838: 23 30 81 00  	sd	s0, 0x0(sp)
   1c83c: 03 34 05 00  	ld	s0, 0x0(a0)
   1c840: 63 c0 05 02  	blt	a1, zero, 0x1c860 <emit_message+0x30>
   1c844: 03 26 c4 07  	lw	a2, 0x7c(s0)
   1c848: 63 40 b6 04  	blt	a2, a1, 0x1c888 <emit_message+0x58>
   1c84c: 03 33 04 01  	ld	t1, 0x10(s0)
   1c850: 83 30 81 00  	ld	ra, 0x8(sp)
   1c854: 03 34 01 00  	ld	s0, 0x0(sp)
   1c858: 13 01 01 01  	addi	sp, sp, 0x10
   1c85c: 67 00 03 00  	jalr	zero, 0x0(t1)
   1c860: 83 35 04 08  	ld	a1, 0x80(s0)
   1c864: 63 88 05 00  	beq	a1, zero, 0x1c874 <emit_message+0x44>
   1c868: 03 26 c4 07  	lw	a2, 0x7c(s0)
   1c86c: 93 06 30 00  	addi	a3, zero, 0x3
   1c870: 63 48 d6 00  	blt	a2, a3, 0x1c880 <emit_message+0x50>
   1c874: 83 35 04 01  	ld	a1, 0x10(s0)
   1c878: e7 80 05 00  	jalr	ra, 0x0(a1)
   1c87c: 83 35 04 08  	ld	a1, 0x80(s0)
   1c880: 93 85 15 00  	addi	a1, a1, 0x1
   1c884: 23 30 b4 08  	sd	a1, 0x80(s0)
   1c888: 83 30 81 00  	ld	ra, 0x8(sp)
   1c88c: 03 34 01 00  	ld	s0, 0x0(sp)
   1c890: 13 01 01 01  	addi	sp, sp, 0x10
   1c894: 67 80 00 00  	jalr	zero, 0x0(ra)

000000000001c898 <output_message>:
   1c898: ef 52 81 06  	jal	t0, 0x31900 <__riscv_save_1>
   1c89c: 13 01 01 f3  	addi	sp, sp, -0xd0
   1c8a0: 83 35 05 00  	ld	a1, 0x0(a0)
   1c8a4: 03 b6 85 01  	ld	a2, 0x18(a1)
   1c8a8: 93 05 81 00  	addi	a1, sp, 0x8
   1c8ac: e7 00 06 00  	jalr	ra, 0x0(a2)
   1c8b0: 03 b5 01 20  	ld	a0, 0x200(gp)
   1c8b4: 03 35 85 01  	ld	a0, 0x18(a0)
   1c8b8: b7 25 03 00  	lui	a1, 0x32
   1c8bc: 93 85 d5 02  	addi	a1, a1, 0x2d
   1c8c0: 13 06 81 00  	addi	a2, sp, 0x8
   1c8c4: ef 10 70 61  	jal	ra, 0x1e6da <fprintf>
   1c8c8: 13 01 01 0d  	addi	sp, sp, 0xd0
   1c8cc: 6f 50 e1 05  	jal	zero, 0x3192a <__riscv_restore_1>

000000000001c8d0 <format_message>:
   1c8d0: 13 01 01 fe  	addi	sp, sp, -0x20
   1c8d4: 23 3c 11 00  	sd	ra, 0x18(sp)
   1c8d8: 83 32 05 00  	ld	t0, 0x0(a0)
   1c8dc: 03 a6 82 02  	lw	a2, 0x28(t0)
   1c8e0: 13 85 05 00  	addi	a0, a1, 0x0
   1c8e4: 63 56 c0 00  	bge	zero, a2, 0x1c8f0 <format_message+0x20>
   1c8e8: 83 a5 02 09  	lw	a1, 0x90(t0)
   1c8ec: 63 d4 c5 02  	bge	a1, a2, 0x1c914 <format_message+0x44>
   1c8f0: 83 b5 82 09  	ld	a1, 0x98(t0)
   1c8f4: 63 8a 05 02  	beq	a1, zero, 0x1c928 <format_message+0x58>
   1c8f8: 83 a6 02 0a  	lw	a3, 0xa0(t0)
   1c8fc: 63 46 d6 02  	blt	a2, a3, 0x1c928 <format_message+0x58>
   1c900: 03 a7 42 0a  	lw	a4, 0xa4(t0)
   1c904: 63 42 c7 02  	blt	a4, a2, 0x1c928 <format_message+0x58>
   1c908: bb 06 d6 40  	subw	a3, a2, a3
   1c90c: 93 96 36 00  	slli	a3, a3, 0x3
   1c910: 6f 00 c0 00  	jal	zero, 0x1c91c <format_message+0x4c>
   1c914: 83 b5 82 08  	ld	a1, 0x88(t0)
   1c918: 93 16 36 00  	slli	a3, a2, 0x3
   1c91c: b3 85 d5 00  	add	a1, a1, a3
   1c920: 83 b5 05 00  	ld	a1, 0x0(a1)
   1c924: 63 98 05 00  	bne	a1, zero, 0x1c934 <format_message+0x64>
   1c928: 83 b5 82 08  	ld	a1, 0x88(t0)
   1c92c: 23 a6 c2 02  	sw	a2, 0x2c(t0)
   1c930: 83 b5 05 00  	ld	a1, 0x0(a1)
   1c934: 93 06 50 02  	addi	a3, zero, 0x25
   1c938: 13 86 05 00  	addi	a2, a1, 0x0
   1c93c: 03 47 06 00  	lbu	a4, 0x0(a2)
   1c940: 63 04 07 02  	beq	a4, zero, 0x1c968 <format_message+0x98>
   1c944: 13 06 16 00  	addi	a2, a2, 0x1
   1c948: e3 1a d7 fe  	bne	a4, a3, 0x1c93c <format_message+0x6c>
   1c94c: 03 46 06 00  	lbu	a2, 0x0(a2)
   1c950: 93 06 30 07  	addi	a3, zero, 0x73
   1c954: 63 1a d6 00  	bne	a2, a3, 0x1c968 <format_message+0x98>
   1c958: 13 86 c2 02  	addi	a2, t0, 0x2c
   1c95c: 83 30 81 01  	ld	ra, 0x18(sp)
   1c960: 13 01 01 02  	addi	sp, sp, 0x20
   1c964: 6f 20 a0 3c  	jal	zero, 0x1ed2e <sprintf>
   1c968: 03 a6 c2 02  	lw	a2, 0x2c(t0)
   1c96c: 83 a6 02 03  	lw	a3, 0x30(t0)
   1c970: 03 a7 42 03  	lw	a4, 0x34(t0)
   1c974: 83 a7 82 03  	lw	a5, 0x38(t0)
   1c978: 03 a8 c2 03  	lw	a6, 0x3c(t0)
   1c97c: 83 a8 02 04  	lw	a7, 0x40(t0)
   1c980: 03 a3 42 04  	lw	t1, 0x44(t0)
   1c984: 83 a2 82 04  	lw	t0, 0x48(t0)
   1c988: 23 34 51 00  	sd	t0, 0x8(sp)
   1c98c: 23 30 61 00  	sd	t1, 0x0(sp)
   1c990: ef 20 e0 39  	jal	ra, 0x1ed2e <sprintf>
   1c994: 83 30 81 01  	ld	ra, 0x18(sp)
   1c998: 13 01 01 02  	addi	sp, sp, 0x20
   1c99c: 67 80 00 00  	jalr	zero, 0x0(ra)

000000000001c9a0 <reset_error_mgr>:
   1c9a0: 03 35 05 00  	ld	a0, 0x0(a0)
   1c9a4: 23 30 05 08  	sd	zero, 0x80(a0)
   1c9a8: 23 24 05 02  	sw	zero, 0x28(a0)
   1c9ac: 67 80 00 00  	jalr	zero, 0x0(ra)

000000000001c9b0 <jinit_memory_mgr>:
   1c9b0: ef 42 51 73  	jal	t0, 0x318e4 <__riscv_save_5>
   1c9b4: 13 01 01 ff  	addi	sp, sp, -0x10
   1c9b8: 93 04 05 00  	addi	s1, a0, 0x0
   1c9bc: 23 34 05 00  	sd	zero, 0x8(a0)
   1c9c0: ef 00 10 7e  	jal	ra, 0x1d9a0 <jpeg_mem_init>
   1c9c4: 13 09 05 00  	addi	s2, a0, 0x0
   1c9c8: 23 34 a1 00  	sd	a0, 0x8(sp)
   1c9cc: 93 05 00 0a  	addi	a1, zero, 0xa0
   1c9d0: 93 09 00 0a  	addi	s3, zero, 0xa0
   1c9d4: 13 85 04 00  	addi	a0, s1, 0x0
   1c9d8: ef 00 d0 78  	jal	ra, 0x1d964 <jpeg_get_small>
   1c9dc: 13 04 05 00  	addi	s0, a0, 0x0
   1c9e0: 63 14 05 02  	bne	a0, zero, 0x1ca08 <jinit_memory_mgr+0x58>
   1c9e4: 13 85 04 00  	addi	a0, s1, 0x0
   1c9e8: ef 00 10 7c  	jal	ra, 0x1d9a8 <jpeg_mem_term>
   1c9ec: 03 b5 04 00  	ld	a0, 0x0(s1)
   1c9f0: 93 05 50 03  	addi	a1, zero, 0x35
   1c9f4: 23 34 b5 02  	sd	a1, 0x28(a0)
   1c9f8: 03 b5 04 00  	ld	a0, 0x0(s1)
   1c9fc: 83 35 05 00  	ld	a1, 0x0(a0)
   1ca00: 13 85 04 00  	addi	a0, s1, 0x0
   1ca04: e7 80 05 00  	jalr	ra, 0x0(a1)
   1ca08: 37 d5 01 00  	lui	a0, 0x1d
   1ca0c: 13 05 05 b1  	addi	a0, a0, -0x4f0
   1ca10: 23 30 a4 00  	sd	a0, 0x0(s0)
   1ca14: 37 d5 01 00  	lui	a0, 0x1d
   1ca18: 13 05 c5 c9  	addi	a0, a0, -0x364
   1ca1c: 23 34 a4 00  	sd	a0, 0x8(s0)
   1ca20: 37 d5 01 00  	lui	a0, 0x1d
   1ca24: 13 05 c5 d7  	addi	a0, a0, -0x284
   1ca28: 23 38 a4 00  	sd	a0, 0x10(s0)
   1ca2c: 37 d5 01 00  	lui	a0, 0x1d
   1ca30: 13 05 c5 e6  	addi	a0, a0, -0x194
   1ca34: 23 3c a4 00  	sd	a0, 0x18(s0)
   1ca38: 37 d5 01 00  	lui	a0, 0x1d
   1ca3c: 13 05 05 f7  	addi	a0, a0, -0x90
   1ca40: 23 30 a4 02  	sd	a0, 0x20(s0)
   1ca44: 37 d5 01 00  	lui	a0, 0x1d
   1ca48: 13 05 05 ff  	addi	a0, a0, -0x10
   1ca4c: 23 34 a4 02  	sd	a0, 0x28(s0)
   1ca50: 37 d5 01 00  	lui	a0, 0x1d
   1ca54: 13 05 05 07  	addi	a0, a0, 0x70
   1ca58: 23 38 a4 02  	sd	a0, 0x30(s0)
   1ca5c: 37 d5 01 00  	lui	a0, 0x1d
   1ca60: 13 05 85 29  	addi	a0, a0, 0x298
   1ca64: 23 3c a4 02  	sd	a0, 0x38(s0)
   1ca68: 37 d5 01 00  	lui	a0, 0x1d
   1ca6c: 13 05 85 45  	addi	a0, a0, 0x458
   1ca70: 23 30 a4 04  	sd	a0, 0x40(s0)
   1ca74: 37 d5 01 00  	lui	a0, 0x1d
   1ca78: 13 05 c5 61  	addi	a0, a0, 0x61c
   1ca7c: 23 34 a4 04  	sd	a0, 0x48(s0)
   1ca80: 37 d5 01 00  	lui	a0, 0x1d
   1ca84: 13 05 45 75  	addi	a0, a0, 0x754
   1ca88: 23 38 a4 04  	sd	a0, 0x50(s0)
   1ca8c: 23 3c 24 05  	sd	s2, 0x58(s0)
   1ca90: 13 05 04 06  	addi	a0, s0, 0x60
   1ca94: 13 06 00 03  	addi	a2, zero, 0x30
   1ca98: 93 05 00 00  	addi	a1, zero, 0x0
   1ca9c: ef 20 b0 48  	jal	ra, 0x1f726 <memset>
   1caa0: 23 38 34 09  	sd	s3, 0x90(s0)
   1caa4: 23 b4 84 00  	sd	s0, 0x8(s1)
   1caa8: 37 35 03 00  	lui	a0, 0x33
   1caac: 13 05 35 75  	addi	a0, a0, 0x753
   1cab0: ef 00 90 70  	jal	ra, 0x1d9b8 <getenv>
   1cab4: 63 0a 05 04  	beq	a0, zero, 0x1cb08 <jinit_memory_mgr+0x158>
   1cab8: 93 05 80 07  	addi	a1, zero, 0x78
   1cabc: a3 03 b1 00  	sb	a1, 0x7(sp)
   1cac0: b7 25 03 00  	lui	a1, 0x32
   1cac4: 93 85 f5 07  	addi	a1, a1, 0x7f
   1cac8: 13 06 81 00  	addi	a2, sp, 0x8
   1cacc: 93 06 71 00  	addi	a3, sp, 0x7
   1cad0: ef 20 60 2a  	jal	ra, 0x1ed76 <sscanf>
   1cad4: 63 5a a0 02  	bge	zero, a0, 0x1cb08 <jinit_memory_mgr+0x158>
   1cad8: 03 45 71 00  	lbu	a0, 0x7(sp)
   1cadc: 83 34 81 00  	ld	s1, 0x8(sp)
   1cae0: 13 79 f5 0d  	andi	s2, a0, 0xdf
   1cae4: 93 05 80 3e  	addi	a1, zero, 0x3e8
   1cae8: 13 85 04 00  	addi	a0, s1, 0x0
   1caec: ef 40 91 64  	jal	ra, 0x31934 <__muldi3>
   1caf0: 93 05 d0 04  	addi	a1, zero, 0x4d
   1caf4: 63 04 b9 00  	beq	s2, a1, 0x1cafc <jinit_memory_mgr+0x14c>
   1caf8: 13 85 04 00  	addi	a0, s1, 0x0
   1cafc: 93 05 80 3e  	addi	a1, zero, 0x3e8
   1cb00: ef 40 51 63  	jal	ra, 0x31934 <__muldi3>
   1cb04: 23 3c a4 04  	sd	a0, 0x58(s0)
   1cb08: 13 01 01 01  	addi	sp, sp, 0x10
   1cb0c: 6f 40 31 61  	jal	zero, 0x3191e <__riscv_restore_5>

000000000001cb10 <alloc_small>:
   1cb10: ef 42 71 5b  	jal	t0, 0x318c6 <__riscv_save_11>
   1cb14: 13 04 05 00  	addi	s0, a0, 0x0
   1cb18: 83 39 85 00  	ld	s3, 0x8(a0)
   1cb1c: 37 d5 9a 3b  	lui	a0, 0x3b9ad
   1cb20: 1b 05 95 9e  	addiw	a0, a0, -0x617
   1cb24: 13 09 06 00  	addi	s2, a2, 0x0
   1cb28: 93 84 05 00  	addi	s1, a1, 0x0
   1cb2c: 63 64 a6 02  	bltu	a2, a0, 0x1cb54 <alloc_small+0x44>
   1cb30: 03 35 04 00  	ld	a0, 0x0(s0)
   1cb34: 93 05 10 00  	addi	a1, zero, 0x1
   1cb38: 93 95 05 02  	slli	a1, a1, 0x20
   1cb3c: 93 85 55 03  	addi	a1, a1, 0x35
   1cb40: 23 34 b5 02  	sd	a1, 0x28(a0)
   1cb44: 03 35 04 00  	ld	a0, 0x0(s0)
   1cb48: 83 35 05 00  	ld	a1, 0x0(a0)
   1cb4c: 13 05 04 00  	addi	a0, s0, 0x0
   1cb50: e7 80 05 00  	jalr	ra, 0x0(a1)
   1cb54: 13 05 20 00  	addi	a0, zero, 0x2
   1cb58: 13 09 79 00  	addi	s2, s2, 0x7
   1cb5c: 63 e2 a4 02  	bltu	s1, a0, 0x1cb80 <alloc_small+0x70>
   1cb60: 03 35 04 00  	ld	a0, 0x0(s0)
   1cb64: 23 26 95 02  	sw	s1, 0x2c(a0)
   1cb68: 83 35 04 00  	ld	a1, 0x0(s0)
   1cb6c: 83 b5 05 00  	ld	a1, 0x0(a1)
   1cb70: 13 06 c0 00  	addi	a2, zero, 0xc
   1cb74: 23 24 c5 02  	sw	a2, 0x28(a0)
   1cb78: 13 05 04 00  	addi	a0, s0, 0x0
   1cb7c: e7 80 05 00  	jalr	ra, 0x0(a1)
   1cb80: 13 9a 34 00  	slli	s4, s1, 0x3
   1cb84: 33 8a 49 01  	add	s4, s3, s4
   1cb88: 03 35 0a 06  	ld	a0, 0x60(s4)
   1cb8c: 13 79 89 ff  	andi	s2, s2, -0x8
   1cb90: 63 04 05 02  	beq	a0, zero, 0x1cbb8 <alloc_small+0xa8>
   1cb94: 93 0a 05 00  	addi	s5, a0, 0x0
   1cb98: 03 35 05 01  	ld	a0, 0x10(a0)
   1cb9c: 63 7a 25 0d  	bgeu	a0, s2, 0x1cc70 <alloc_small+0x160>
   1cba0: 03 b5 0a 00  	ld	a0, 0x0(s5)
   1cba4: e3 18 05 fe  	bne	a0, zero, 0x1cb94 <alloc_small+0x84>
   1cba8: 63 8c 0a 00  	beq	s5, zero, 0x1cbc0 <alloc_small+0xb0>
   1cbac: 37 45 03 00  	lui	a0, 0x34
   1cbb0: 13 05 05 29  	addi	a0, a0, 0x290
   1cbb4: 6f 00 40 01  	jal	zero, 0x1cbc8 <alloc_small+0xb8>
   1cbb8: 93 0a 00 00  	addi	s5, zero, 0x0
   1cbbc: e3 18 00 fe  	bne	zero, zero, 0x1cbac <alloc_small+0x9c>
   1cbc0: 37 45 03 00  	lui	a0, 0x34
   1cbc4: 13 05 05 28  	addi	a0, a0, 0x280
   1cbc8: 93 94 34 00  	slli	s1, s1, 0x3
   1cbcc: 33 05 95 00  	add	a0, a0, s1
   1cbd0: 03 3b 05 00  	ld	s6, 0x0(a0)
   1cbd4: 37 d5 9a 3b  	lui	a0, 0x3b9ad
   1cbd8: 1b 05 85 9e  	addiw	a0, a0, -0x618
   1cbdc: 33 05 25 41  	sub	a0, a0, s2
   1cbe0: 93 0b 89 01  	addi	s7, s2, 0x18
   1cbe4: 63 64 ab 00  	bltu	s6, a0, 0x1cbec <alloc_small+0xdc>
   1cbe8: 13 0b 05 00  	addi	s6, a0, 0x0
   1cbec: b3 84 6b 01  	add	s1, s7, s6
   1cbf0: 13 05 04 00  	addi	a0, s0, 0x0
   1cbf4: 93 85 04 00  	addi	a1, s1, 0x0
   1cbf8: ef 00 d0 56  	jal	ra, 0x1d964 <jpeg_get_small>
   1cbfc: 63 14 05 04  	bne	a0, zero, 0x1cc44 <alloc_small+0x134>
   1cc00: 13 0c 30 06  	addi	s8, zero, 0x63
   1cc04: 13 05 10 00  	addi	a0, zero, 0x1
   1cc08: 13 15 15 02  	slli	a0, a0, 0x21
   1cc0c: 93 0c 55 03  	addi	s9, a0, 0x35
   1cc10: 63 6e 6c 01  	bltu	s8, s6, 0x1cc2c <alloc_small+0x11c>
   1cc14: 03 35 04 00  	ld	a0, 0x0(s0)
   1cc18: 23 34 95 03  	sd	s9, 0x28(a0)
   1cc1c: 03 35 04 00  	ld	a0, 0x0(s0)
   1cc20: 83 35 05 00  	ld	a1, 0x0(a0)
   1cc24: 13 05 04 00  	addi	a0, s0, 0x0
   1cc28: e7 80 05 00  	jalr	ra, 0x0(a1)
   1cc2c: 13 5b 1b 00  	srli	s6, s6, 0x1
   1cc30: b3 84 6b 01  	add	s1, s7, s6
   1cc34: 13 05 04 00  	addi	a0, s0, 0x0
   1cc38: 93 85 04 00  	addi	a1, s1, 0x0
   1cc3c: ef 00 90 52  	jal	ra, 0x1d964 <jpeg_get_small>
   1cc40: e3 08 05 fc  	beq	a0, zero, 0x1cc10 <alloc_small+0x100>
   1cc44: 83 b5 09 09  	ld	a1, 0x90(s3)
   1cc48: b3 85 95 00  	add	a1, a1, s1
   1cc4c: 23 b8 b9 08  	sd	a1, 0x90(s3)
   1cc50: 33 0b 2b 01  	add	s6, s6, s2
   1cc54: 23 34 05 00  	sd	zero, 0x8(a0)
   1cc58: 23 30 05 00  	sd	zero, 0x0(a0)
   1cc5c: 23 38 65 01  	sd	s6, 0x10(a0)
   1cc60: 63 94 0a 00  	bne	s5, zero, 0x1cc68 <alloc_small+0x158>
   1cc64: 93 0a 0a 06  	addi	s5, s4, 0x60
   1cc68: 23 b0 aa 00  	sd	a0, 0x0(s5)
   1cc6c: 6f 00 80 00  	jal	zero, 0x1cc74 <alloc_small+0x164>
   1cc70: 13 85 0a 00  	addi	a0, s5, 0x0
   1cc74: 83 35 85 00  	ld	a1, 0x8(a0)
   1cc78: 33 86 25 01  	add	a2, a1, s2
   1cc7c: 83 36 05 01  	ld	a3, 0x10(a0)
   1cc80: 23 34 c5 00  	sd	a2, 0x8(a0)
   1cc84: b3 05 b5 00  	add	a1, a0, a1
   1cc88: 93 85 85 01  	addi	a1, a1, 0x18
   1cc8c: 33 86 26 41  	sub	a2, a3, s2
   1cc90: 23 38 c5 00  	sd	a2, 0x10(a0)
   1cc94: 13 85 05 00  	addi	a0, a1, 0x0
   1cc98: 6f 40 51 47  	jal	zero, 0x3190c <__riscv_restore_11>

000000000001cc9c <alloc_large>:
   1cc9c: ef 42 f1 43  	jal	t0, 0x318da <__riscv_save_7>
   1cca0: 93 04 05 00  	addi	s1, a0, 0x0
   1cca4: 03 3a 85 00  	ld	s4, 0x8(a0)
   1cca8: 37 d5 9a 3b  	lui	a0, 0x3b9ad
   1ccac: 1b 05 95 9e  	addiw	a0, a0, -0x617
   1ccb0: 13 09 06 00  	addi	s2, a2, 0x0
   1ccb4: 13 84 05 00  	addi	s0, a1, 0x0
   1ccb8: 63 64 a6 02  	bltu	a2, a0, 0x1cce0 <alloc_large+0x44>
   1ccbc: 03 b5 04 00  	ld	a0, 0x0(s1)
   1ccc0: 93 05 30 00  	addi	a1, zero, 0x3
   1ccc4: 93 95 05 02  	slli	a1, a1, 0x20
   1ccc8: 93 85 55 03  	addi	a1, a1, 0x35
   1cccc: 23 34 b5 02  	sd	a1, 0x28(a0)
   1ccd0: 03 b5 04 00  	ld	a0, 0x0(s1)
   1ccd4: 83 35 05 00  	ld	a1, 0x0(a0)
   1ccd8: 13 85 04 00  	addi	a0, s1, 0x0
   1ccdc: e7 80 05 00  	jalr	ra, 0x0(a1)
   1cce0: 13 09 79 00  	addi	s2, s2, 0x7
   1cce4: 13 05 20 00  	addi	a0, zero, 0x2
   1cce8: 93 7a 89 ff  	andi	s5, s2, -0x8
   1ccec: 63 62 a4 02  	bltu	s0, a0, 0x1cd10 <alloc_large+0x74>
   1ccf0: 03 b5 04 00  	ld	a0, 0x0(s1)
   1ccf4: 23 26 85 02  	sw	s0, 0x2c(a0)
   1ccf8: 83 b5 04 00  	ld	a1, 0x0(s1)
   1ccfc: 83 b5 05 00  	ld	a1, 0x0(a1)
   1cd00: 13 06 c0 00  	addi	a2, zero, 0xc
   1cd04: 23 24 c5 02  	sw	a2, 0x28(a0)
   1cd08: 13 85 04 00  	addi	a0, s1, 0x0
   1cd0c: e7 80 05 00  	jalr	ra, 0x0(a1)
   1cd10: 93 89 8a 01  	addi	s3, s5, 0x18
   1cd14: 13 85 04 00  	addi	a0, s1, 0x0
   1cd18: 93 85 09 00  	addi	a1, s3, 0x0
   1cd1c: ef 00 90 45  	jal	ra, 0x1d974 <jpeg_get_large>
   1cd20: 13 09 05 00  	addi	s2, a0, 0x0
   1cd24: 63 14 05 02  	bne	a0, zero, 0x1cd4c <alloc_large+0xb0>
   1cd28: 03 b5 04 00  	ld	a0, 0x0(s1)
   1cd2c: 93 05 10 00  	addi	a1, zero, 0x1
   1cd30: 93 95 25 02  	slli	a1, a1, 0x22
   1cd34: 93 85 55 03  	addi	a1, a1, 0x35
   1cd38: 23 34 b5 02  	sd	a1, 0x28(a0)
   1cd3c: 03 b5 04 00  	ld	a0, 0x0(s1)
   1cd40: 83 35 05 00  	ld	a1, 0x0(a0)
   1cd44: 13 85 04 00  	addi	a0, s1, 0x0
   1cd48: e7 80 05 00  	jalr	ra, 0x0(a1)
   1cd4c: 03 35 0a 09  	ld	a0, 0x90(s4)
   1cd50: 13 14 34 00  	slli	s0, s0, 0x3
   1cd54: 33 04 8a 00  	add	s0, s4, s0
   1cd58: 83 35 04 07  	ld	a1, 0x70(s0)
   1cd5c: 33 05 35 01  	add	a0, a0, s3
   1cd60: 23 38 aa 08  	sd	a0, 0x90(s4)
   1cd64: 23 30 b9 00  	sd	a1, 0x0(s2)
   1cd68: 23 34 59 01  	sd	s5, 0x8(s2)
   1cd6c: 23 38 09 00  	sd	zero, 0x10(s2)
   1cd70: 13 05 89 01  	addi	a0, s2, 0x18
   1cd74: 23 38 24 07  	sd	s2, 0x70(s0)
   1cd78: 6f 40 11 3a  	jal	zero, 0x31918 <__riscv_restore_7>

000000000001cd7c <alloc_sarray>:
   1cd7c: ef 42 f1 35  	jal	t0, 0x318da <__riscv_save_7>
   1cd80: 13 04 05 00  	addi	s0, a0, 0x0
   1cd84: 03 3b 85 00  	ld	s6, 0x8(a0)
   1cd88: 93 84 06 00  	addi	s1, a3, 0x0
   1cd8c: 93 0a 06 00  	addi	s5, a2, 0x0
   1cd90: 13 89 05 00  	addi	s2, a1, 0x0
   1cd94: 13 15 06 02  	slli	a0, a2, 0x20
   1cd98: 93 59 05 02  	srli	s3, a0, 0x20
   1cd9c: 37 da 9a 3b  	lui	s4, 0x3b9ad
   1cda0: 1b 05 8a 9e  	addiw	a0, s4, -0x618
   1cda4: 93 85 09 00  	addi	a1, s3, 0x0
   1cda8: ef 40 51 3d  	jal	ra, 0x3197c <__udivdi3>
   1cdac: 9b 05 9a 9e  	addiw	a1, s4, -0x617
   1cdb0: 13 0a 05 00  	addi	s4, a0, 0x0
   1cdb4: 63 ee ba 00  	bltu	s5, a1, 0x1cdd0 <alloc_sarray+0x54>
   1cdb8: 03 35 04 00  	ld	a0, 0x0(s0)
   1cdbc: 83 35 05 00  	ld	a1, 0x0(a0)
   1cdc0: 13 06 50 04  	addi	a2, zero, 0x45
   1cdc4: 23 24 c5 02  	sw	a2, 0x28(a0)
   1cdc8: 13 05 04 00  	addi	a0, s0, 0x0
   1cdcc: e7 80 05 00  	jalr	ra, 0x0(a1)
   1cdd0: 1b 0a 0a 00  	addiw	s4, s4, 0x0
   1cdd4: 63 64 9a 00  	bltu	s4, s1, 0x1cddc <alloc_sarray+0x60>
   1cdd8: 13 8a 04 00  	addi	s4, s1, 0x0
   1cddc: 23 2c 4b 09  	sw	s4, 0x98(s6)
   1cde0: 13 96 04 02  	slli	a2, s1, 0x20
   1cde4: 13 56 d6 01  	srli	a2, a2, 0x1d
   1cde8: 13 05 04 00  	addi	a0, s0, 0x0
   1cdec: 93 05 09 00  	addi	a1, s2, 0x0
   1cdf0: ef f0 1f d2  	jal	ra, 0x1cb10 <alloc_small>
   1cdf4: 93 0a 05 00  	addi	s5, a0, 0x0
   1cdf8: 63 86 04 06  	beq	s1, zero, 0x1ce64 <alloc_sarray+0xe8>
   1cdfc: 13 0b 00 00  	addi	s6, zero, 0x0
   1ce00: 3b 85 64 41  	subw	a0, s1, s6
   1ce04: 63 64 aa 00  	bltu	s4, a0, 0x1ce0c <alloc_sarray+0x90>
   1ce08: 13 0a 05 00  	addi	s4, a0, 0x0
   1ce0c: 13 05 0a 00  	addi	a0, s4, 0x0
   1ce10: 93 85 09 00  	addi	a1, s3, 0x0
   1ce14: ef 40 11 32  	jal	ra, 0x31934 <__muldi3>
   1ce18: 13 06 05 00  	addi	a2, a0, 0x0
   1ce1c: 13 05 04 00  	addi	a0, s0, 0x0
   1ce20: 93 05 09 00  	addi	a1, s2, 0x0
   1ce24: ef f0 9f e7  	jal	ra, 0x1cc9c <alloc_large>
   1ce28: 63 08 0a 02  	beq	s4, zero, 0x1ce58 <alloc_sarray+0xdc>
   1ce2c: 13 06 0a 00  	addi	a2, s4, 0x0
   1ce30: 9b 05 1b 00  	addiw	a1, s6, 0x1
   1ce34: 13 1b 0b 02  	slli	s6, s6, 0x20
   1ce38: 93 56 db 01  	srli	a3, s6, 0x1d
   1ce3c: b3 86 da 00  	add	a3, s5, a3
   1ce40: 23 b0 a6 00  	sd	a0, 0x0(a3)
   1ce44: 1b 06 f6 ff  	addiw	a2, a2, -0x1
   1ce48: 33 05 35 01  	add	a0, a0, s3
   1ce4c: 13 8b 05 00  	addi	s6, a1, 0x0
   1ce50: e3 10 06 fe  	bne	a2, zero, 0x1ce30 <alloc_sarray+0xb4>
   1ce54: 6f 00 80 00  	jal	zero, 0x1ce5c <alloc_sarray+0xe0>
   1ce58: 93 05 0b 00  	addi	a1, s6, 0x0
   1ce5c: 13 8b 05 00  	addi	s6, a1, 0x0
   1ce60: e3 e0 95 fa  	bltu	a1, s1, 0x1ce00 <alloc_sarray+0x84>
   1ce64: 13 85 0a 00  	addi	a0, s5, 0x0
   1ce68: 6f 40 11 2b  	jal	zero, 0x31918 <__riscv_restore_7>

000000000001ce6c <alloc_barray>:
   1ce6c: ef 42 51 26  	jal	t0, 0x318d0 <__riscv_save_9>
   1ce70: 13 04 05 00  	addi	s0, a0, 0x0
   1ce74: 83 3b 85 00  	ld	s7, 0x8(a0)
   1ce78: 93 84 06 00  	addi	s1, a3, 0x0
   1ce7c: 93 0a 06 00  	addi	s5, a2, 0x0
   1ce80: 13 89 05 00  	addi	s2, a1, 0x0
   1ce84: 13 1b 06 02  	slli	s6, a2, 0x20
   1ce88: 93 59 9b 01  	srli	s3, s6, 0x19
   1ce8c: 37 d5 9a 3b  	lui	a0, 0x3b9ad
   1ce90: 1b 05 85 9e  	addiw	a0, a0, -0x618
   1ce94: 93 85 09 00  	addi	a1, s3, 0x0
   1ce98: ef 40 51 2e  	jal	ra, 0x3197c <__udivdi3>
   1ce9c: b7 35 77 00  	lui	a1, 0x773
   1cea0: 9b 85 45 59  	addiw	a1, a1, 0x594
   1cea4: 13 0a 05 00  	addi	s4, a0, 0x0
   1cea8: 63 ee ba 00  	bltu	s5, a1, 0x1cec4 <alloc_barray+0x58>
   1ceac: 03 35 04 00  	ld	a0, 0x0(s0)
   1ceb0: 83 35 05 00  	ld	a1, 0x0(a0)
   1ceb4: 13 06 50 04  	addi	a2, zero, 0x45
   1ceb8: 23 24 c5 02  	sw	a2, 0x28(a0)
   1cebc: 13 05 04 00  	addi	a0, s0, 0x0
   1cec0: e7 80 05 00  	jalr	ra, 0x0(a1)
   1cec4: 13 96 04 02  	slli	a2, s1, 0x20
   1cec8: 13 55 06 02  	srli	a0, a2, 0x20
   1cecc: 63 64 aa 00  	bltu	s4, a0, 0x1ced4 <alloc_barray+0x68>
   1ced0: 13 8a 04 00  	addi	s4, s1, 0x0
   1ced4: 23 ac 4b 09  	sw	s4, 0x98(s7)
   1ced8: 13 56 d6 01  	srli	a2, a2, 0x1d
   1cedc: 13 05 04 00  	addi	a0, s0, 0x0
   1cee0: 93 05 09 00  	addi	a1, s2, 0x0
   1cee4: ef f0 df c2  	jal	ra, 0x1cb10 <alloc_small>
   1cee8: 93 0a 05 00  	addi	s5, a0, 0x0
   1ceec: 63 8e 04 06  	beq	s1, zero, 0x1cf68 <alloc_barray+0xfc>
   1cef0: 93 0b 00 00  	addi	s7, zero, 0x0
   1cef4: 13 5b 0b 02  	srli	s6, s6, 0x20
   1cef8: 13 1b 7b 00  	slli	s6, s6, 0x7
   1cefc: 3b 85 74 41  	subw	a0, s1, s7
   1cf00: 1b 0a 0a 00  	addiw	s4, s4, 0x0
   1cf04: 63 64 aa 00  	bltu	s4, a0, 0x1cf0c <alloc_barray+0xa0>
   1cf08: 13 0a 05 00  	addi	s4, a0, 0x0
   1cf0c: 93 15 0a 02  	slli	a1, s4, 0x20
   1cf10: 93 d5 05 02  	srli	a1, a1, 0x20
   1cf14: 13 85 09 00  	addi	a0, s3, 0x0
   1cf18: ef 40 d1 21  	jal	ra, 0x31934 <__muldi3>
   1cf1c: 13 06 05 00  	addi	a2, a0, 0x0
   1cf20: 13 05 04 00  	addi	a0, s0, 0x0
   1cf24: 93 05 09 00  	addi	a1, s2, 0x0
   1cf28: ef f0 5f d7  	jal	ra, 0x1cc9c <alloc_large>
   1cf2c: 63 08 0a 02  	beq	s4, zero, 0x1cf5c <alloc_barray+0xf0>
   1cf30: 13 06 0a 00  	addi	a2, s4, 0x0
   1cf34: 9b 85 1b 00  	addiw	a1, s7, 0x1
   1cf38: 93 9b 0b 02  	slli	s7, s7, 0x20
   1cf3c: 93 d6 db 01  	srli	a3, s7, 0x1d
   1cf40: b3 86 da 00  	add	a3, s5, a3
   1cf44: 23 b0 a6 00  	sd	a0, 0x0(a3)
   1cf48: 1b 06 f6 ff  	addiw	a2, a2, -0x1
   1cf4c: 33 05 65 01  	add	a0, a0, s6
   1cf50: 93 8b 05 00  	addi	s7, a1, 0x0
   1cf54: e3 10 06 fe  	bne	a2, zero, 0x1cf34 <alloc_barray+0xc8>
   1cf58: 6f 00 80 00  	jal	zero, 0x1cf60 <alloc_barray+0xf4>
   1cf5c: 93 85 0b 00  	addi	a1, s7, 0x0
   1cf60: 93 8b 05 00  	addi	s7, a1, 0x0
   1cf64: e3 ec 95 f8  	bltu	a1, s1, 0x1cefc <alloc_barray+0x90>
   1cf68: 13 85 0a 00  	addi	a0, s5, 0x0
   1cf6c: 6f 40 71 1a  	jal	zero, 0x31912 <__riscv_restore_9>

000000000001cf70 <request_virt_sarray>:
   1cf70: ef 42 b1 16  	jal	t0, 0x318da <__riscv_save_7>
   1cf74: 13 09 05 00  	addi	s2, a0, 0x0
   1cf78: 03 3b 85 00  	ld	s6, 0x8(a0)
   1cf7c: 13 05 10 00  	addi	a0, zero, 0x1
   1cf80: 13 84 07 00  	addi	s0, a5, 0x0
   1cf84: 13 0a 07 00  	addi	s4, a4, 0x0
   1cf88: 93 89 06 00  	addi	s3, a3, 0x0
   1cf8c: 93 04 06 00  	addi	s1, a2, 0x0
   1cf90: 93 8a 05 00  	addi	s5, a1, 0x0
   1cf94: 63 82 a5 02  	beq	a1, a0, 0x1cfb8 <request_virt_sarray+0x48>
   1cf98: 03 35 09 00  	ld	a0, 0x0(s2)
   1cf9c: 23 26 55 03  	sw	s5, 0x2c(a0)
   1cfa0: 83 35 09 00  	ld	a1, 0x0(s2)
   1cfa4: 83 b5 05 00  	ld	a1, 0x0(a1)
   1cfa8: 13 06 c0 00  	addi	a2, zero, 0xc
   1cfac: 23 24 c5 02  	sw	a2, 0x28(a0)
   1cfb0: 13 05 09 00  	addi	a0, s2, 0x0
   1cfb4: e7 80 05 00  	jalr	ra, 0x0(a1)
   1cfb8: 13 06 80 09  	addi	a2, zero, 0x98
   1cfbc: 13 05 09 00  	addi	a0, s2, 0x0
   1cfc0: 93 85 0a 00  	addi	a1, s5, 0x0
   1cfc4: ef f0 df b4  	jal	ra, 0x1cb10 <alloc_small>
   1cfc8: 23 30 05 00  	sd	zero, 0x0(a0)
   1cfcc: 23 24 45 01  	sw	s4, 0x8(a0)
   1cfd0: 23 26 35 01  	sw	s3, 0xc(a0)
   1cfd4: 83 35 0b 08  	ld	a1, 0x80(s6)
   1cfd8: 23 28 85 00  	sw	s0, 0x10(a0)
   1cfdc: 23 22 95 02  	sw	s1, 0x24(a0)
   1cfe0: 23 26 05 02  	sw	zero, 0x2c(a0)
   1cfe4: 23 38 b5 02  	sd	a1, 0x30(a0)
   1cfe8: 23 30 ab 08  	sd	a0, 0x80(s6)
   1cfec: 6f 40 d1 12  	jal	zero, 0x31918 <__riscv_restore_7>

000000000001cff0 <request_virt_barray>:
   1cff0: ef 42 b1 0e  	jal	t0, 0x318da <__riscv_save_7>
   1cff4: 13 09 05 00  	addi	s2, a0, 0x0
   1cff8: 03 3b 85 00  	ld	s6, 0x8(a0)
   1cffc: 13 05 10 00  	addi	a0, zero, 0x1
   1d000: 13 84 07 00  	addi	s0, a5, 0x0
   1d004: 13 0a 07 00  	addi	s4, a4, 0x0
   1d008: 93 89 06 00  	addi	s3, a3, 0x0
   1d00c: 93 04 06 00  	addi	s1, a2, 0x0
   1d010: 93 8a 05 00  	addi	s5, a1, 0x0
   1d014: 63 82 a5 02  	beq	a1, a0, 0x1d038 <request_virt_barray+0x48>
   1d018: 03 35 09 00  	ld	a0, 0x0(s2)
   1d01c: 23 26 55 03  	sw	s5, 0x2c(a0)
   1d020: 83 35 09 00  	ld	a1, 0x0(s2)
   1d024: 83 b5 05 00  	ld	a1, 0x0(a1)
   1d028: 13 06 c0 00  	addi	a2, zero, 0xc
   1d02c: 23 24 c5 02  	sw	a2, 0x28(a0)
   1d030: 13 05 09 00  	addi	a0, s2, 0x0
   1d034: e7 80 05 00  	jalr	ra, 0x0(a1)
   1d038: 13 06 80 09  	addi	a2, zero, 0x98
   1d03c: 13 05 09 00  	addi	a0, s2, 0x0
   1d040: 93 85 0a 00  	addi	a1, s5, 0x0
   1d044: ef f0 df ac  	jal	ra, 0x1cb10 <alloc_small>
   1d048: 23 30 05 00  	sd	zero, 0x0(a0)
   1d04c: 23 24 45 01  	sw	s4, 0x8(a0)
   1d050: 23 26 35 01  	sw	s3, 0xc(a0)
   1d054: 83 35 8b 08  	ld	a1, 0x88(s6)
   1d058: 23 28 85 00  	sw	s0, 0x10(a0)
   1d05c: 23 22 95 02  	sw	s1, 0x24(a0)
   1d060: 23 26 05 02  	sw	zero, 0x2c(a0)
   1d064: 23 38 b5 02  	sd	a1, 0x30(a0)
   1d068: 23 34 ab 08  	sd	a0, 0x88(s6)
   1d06c: 6f 40 d1 0a  	jal	zero, 0x31918 <__riscv_restore_7>

000000000001d070 <realize_virt_arrays>:
   1d070: ef 42 b1 06  	jal	t0, 0x318da <__riscv_save_7>
   1d074: 13 04 05 00  	addi	s0, a0, 0x0
   1d078: 03 3a 85 00  	ld	s4, 0x8(a0)
   1d07c: 83 3a 0a 08  	ld	s5, 0x80(s4)
   1d080: 63 84 0a 04  	beq	s5, zero, 0x1d0c8 <realize_virt_arrays+0x58>
   1d084: 93 04 00 00  	addi	s1, zero, 0x0
   1d088: 13 09 00 00  	addi	s2, zero, 0x0
   1d08c: 03 b5 0a 00  	ld	a0, 0x0(s5)
   1d090: 63 16 05 02  	bne	a0, zero, 0x1d0bc <realize_virt_arrays+0x4c>
   1d094: 83 e5 0a 01  	lwu	a1, 0x10(s5)
   1d098: 83 e9 ca 00  	lwu	s3, 0xc(s5)
   1d09c: 13 85 09 00  	addi	a0, s3, 0x0
   1d0a0: ef 40 51 09  	jal	ra, 0x31934 <__muldi3>
   1d0a4: 83 e5 8a 00  	lwu	a1, 0x8(s5)
   1d0a8: b3 04 95 00  	add	s1, a0, s1
   1d0ac: 13 85 05 00  	addi	a0, a1, 0x0
   1d0b0: 93 85 09 00  	addi	a1, s3, 0x0
   1d0b4: ef 40 11 08  	jal	ra, 0x31934 <__muldi3>
   1d0b8: 33 09 25 01  	add	s2, a0, s2
   1d0bc: 83 ba 0a 03  	ld	s5, 0x30(s5)
   1d0c0: e3 96 0a fc  	bne	s5, zero, 0x1d08c <realize_virt_arrays+0x1c>
   1d0c4: 6f 00 c0 00  	jal	zero, 0x1d0d0 <realize_virt_arrays+0x60>
   1d0c8: 13 09 00 00  	addi	s2, zero, 0x0
   1d0cc: 93 04 00 00  	addi	s1, zero, 0x0
   1d0d0: 83 3a 8a 08  	ld	s5, 0x88(s4)
   1d0d4: 63 80 0a 04  	beq	s5, zero, 0x1d114 <realize_virt_arrays+0xa4>
   1d0d8: 03 b5 0a 00  	ld	a0, 0x0(s5)
   1d0dc: 63 18 05 02  	bne	a0, zero, 0x1d10c <realize_virt_arrays+0x9c>
   1d0e0: 03 e5 0a 01  	lwu	a0, 0x10(s5)
   1d0e4: 83 e9 ca 00  	lwu	s3, 0xc(s5)
   1d0e8: 93 85 09 00  	addi	a1, s3, 0x0
   1d0ec: ef 40 91 04  	jal	ra, 0x31934 <__muldi3>
   1d0f0: 83 e5 8a 00  	lwu	a1, 0x8(s5)
   1d0f4: 13 15 75 00  	slli	a0, a0, 0x7
   1d0f8: b3 04 95 00  	add	s1, a0, s1
   1d0fc: 13 85 09 00  	addi	a0, s3, 0x0
   1d100: ef 40 51 03  	jal	ra, 0x31934 <__muldi3>
   1d104: 13 15 75 00  	slli	a0, a0, 0x7
   1d108: 33 09 25 01  	add	s2, a0, s2
   1d10c: 83 ba 0a 03  	ld	s5, 0x30(s5)
   1d110: e3 94 0a fc  	bne	s5, zero, 0x1d0d8 <realize_virt_arrays+0x68>
   1d114: 63 50 90 18  	bge	zero, s1, 0x1d294 <realize_virt_arrays+0x224>
   1d118: 83 36 0a 09  	ld	a3, 0x90(s4)
   1d11c: 13 05 04 00  	addi	a0, s0, 0x0
   1d120: 93 85 04 00  	addi	a1, s1, 0x0
   1d124: 13 06 09 00  	addi	a2, s2, 0x0
   1d128: ef 00 d0 05  	jal	ra, 0x1d984 <jpeg_mem_available>
   1d12c: 63 5e 25 01  	bge	a0, s2, 0x1d148 <realize_virt_arrays+0xd8>
   1d130: 93 85 04 00  	addi	a1, s1, 0x0
   1d134: ef 40 11 04  	jal	ra, 0x31974 <__divdi3>
   1d138: 93 04 05 00  	addi	s1, a0, 0x0
   1d13c: 63 4a a0 00  	blt	zero, a0, 0x1d150 <realize_virt_arrays+0xe0>
   1d140: 93 04 10 00  	addi	s1, zero, 0x1
   1d144: 6f 00 c0 00  	jal	zero, 0x1d150 <realize_virt_arrays+0xe0>
   1d148: 37 d5 9a 3b  	lui	a0, 0x3b9ad
   1d14c: 9b 04 05 a0  	addiw	s1, a0, -0x600
   1d150: 83 3a 0a 08  	ld	s5, 0x80(s4)
   1d154: 63 80 0a 0a  	beq	s5, zero, 0x1d1f4 <realize_virt_arrays+0x184>
   1d158: 13 0b 10 00  	addi	s6, zero, 0x1
   1d15c: 03 b5 0a 00  	ld	a0, 0x0(s5)
   1d160: 63 16 05 08  	bne	a0, zero, 0x1d1ec <realize_virt_arrays+0x17c>
   1d164: 03 e9 8a 00  	lwu	s2, 0x8(s5)
   1d168: 83 e9 0a 01  	lwu	s3, 0x10(s5)
   1d16c: 13 05 f9 ff  	addi	a0, s2, -0x1
   1d170: 93 85 09 00  	addi	a1, s3, 0x0
   1d174: ef 40 11 00  	jal	ra, 0x31974 <__divdi3>
   1d178: 63 56 95 00  	bge	a0, s1, 0x1d184 <realize_virt_arrays+0x114>
   1d17c: 23 aa 2a 01  	sw	s2, 0x14(s5)
   1d180: 6f 00 00 04  	jal	zero, 0x1d1c0 <realize_virt_arrays+0x150>
   1d184: 13 85 09 00  	addi	a0, s3, 0x0
   1d188: 93 85 04 00  	addi	a1, s1, 0x0
   1d18c: ef 40 81 7a  	jal	ra, 0x31934 <__muldi3>
   1d190: 83 e5 ca 00  	lwu	a1, 0xc(s5)
   1d194: 23 aa aa 00  	sw	a0, 0x14(s5)
   1d198: 93 89 8a 03  	addi	s3, s5, 0x38
   1d19c: 13 85 05 00  	addi	a0, a1, 0x0
   1d1a0: 93 05 09 00  	addi	a1, s2, 0x0
   1d1a4: ef 40 01 79  	jal	ra, 0x31934 <__muldi3>
   1d1a8: 13 06 05 00  	addi	a2, a0, 0x0
   1d1ac: 13 05 04 00  	addi	a0, s0, 0x0
   1d1b0: 93 85 09 00  	addi	a1, s3, 0x0
   1d1b4: ef 00 80 7d  	jal	ra, 0x1d98c <jpeg_open_backing_store>
   1d1b8: 03 a9 4a 01  	lw	s2, 0x14(s5)
   1d1bc: 23 a6 6a 03  	sw	s6, 0x2c(s5)
   1d1c0: 03 a6 ca 00  	lw	a2, 0xc(s5)
   1d1c4: 9b 06 09 00  	addiw	a3, s2, 0x0
   1d1c8: 93 05 10 00  	addi	a1, zero, 0x1
   1d1cc: 13 05 04 00  	addi	a0, s0, 0x0
   1d1d0: ef f0 df ba  	jal	ra, 0x1cd7c <alloc_sarray>
   1d1d4: 83 25 8a 09  	lw	a1, 0x98(s4)
   1d1d8: 23 b0 aa 00  	sd	a0, 0x0(s5)
   1d1dc: 23 ac ba 00  	sw	a1, 0x18(s5)
   1d1e0: 23 ae 0a 00  	sw	zero, 0x1c(s5)
   1d1e4: 23 a0 0a 02  	sw	zero, 0x20(s5)
   1d1e8: 23 a4 0a 02  	sw	zero, 0x28(s5)
   1d1ec: 83 ba 0a 03  	ld	s5, 0x30(s5)
   1d1f0: e3 96 0a f6  	bne	s5, zero, 0x1d15c <realize_virt_arrays+0xec>
   1d1f4: 83 3a 8a 08  	ld	s5, 0x88(s4)
   1d1f8: 63 8e 0a 08  	beq	s5, zero, 0x1d294 <realize_virt_arrays+0x224>
   1d1fc: 13 0b 10 00  	addi	s6, zero, 0x1
   1d200: 03 b5 0a 00  	ld	a0, 0x0(s5)
   1d204: 63 14 05 08  	bne	a0, zero, 0x1d28c <realize_virt_arrays+0x21c>
   1d208: 03 e9 8a 00  	lwu	s2, 0x8(s5)
   1d20c: 83 e9 0a 01  	lwu	s3, 0x10(s5)
   1d210: 13 05 f9 ff  	addi	a0, s2, -0x1
   1d214: 93 85 09 00  	addi	a1, s3, 0x0
   1d218: ef 40 c1 75  	jal	ra, 0x31974 <__divdi3>
   1d21c: 63 56 95 00  	bge	a0, s1, 0x1d228 <realize_virt_arrays+0x1b8>
   1d220: 23 aa 2a 01  	sw	s2, 0x14(s5)
   1d224: 6f 00 c0 03  	jal	zero, 0x1d260 <realize_virt_arrays+0x1f0>
   1d228: 13 85 09 00  	addi	a0, s3, 0x0
   1d22c: 93 85 04 00  	addi	a1, s1, 0x0
   1d230: ef 40 41 70  	jal	ra, 0x31934 <__muldi3>
   1d234: 83 e5 ca 00  	lwu	a1, 0xc(s5)
   1d238: 23 aa aa 00  	sw	a0, 0x14(s5)
   1d23c: 93 89 8a 03  	addi	s3, s5, 0x38
   1d240: 13 05 09 00  	addi	a0, s2, 0x0
   1d244: ef 40 01 6f  	jal	ra, 0x31934 <__muldi3>
   1d248: 13 16 75 00  	slli	a2, a0, 0x7
   1d24c: 13 05 04 00  	addi	a0, s0, 0x0
   1d250: 93 85 09 00  	addi	a1, s3, 0x0
   1d254: ef 00 80 73  	jal	ra, 0x1d98c <jpeg_open_backing_store>
   1d258: 03 a9 4a 01  	lw	s2, 0x14(s5)
   1d25c: 23 a6 6a 03  	sw	s6, 0x2c(s5)
   1d260: 03 a6 ca 00  	lw	a2, 0xc(s5)
   1d264: 9b 06 09 00  	addiw	a3, s2, 0x0
   1d268: 93 05 10 00  	addi	a1, zero, 0x1
   1d26c: 13 05 04 00  	addi	a0, s0, 0x0
   1d270: ef f0 df bf  	jal	ra, 0x1ce6c <alloc_barray>
   1d274: 83 25 8a 09  	lw	a1, 0x98(s4)
   1d278: 23 b0 aa 00  	sd	a0, 0x0(s5)
   1d27c: 23 ac ba 00  	sw	a1, 0x18(s5)
   1d280: 23 ae 0a 00  	sw	zero, 0x1c(s5)
   1d284: 23 a0 0a 02  	sw	zero, 0x20(s5)
   1d288: 23 a4 0a 02  	sw	zero, 0x28(s5)
   1d28c: 83 ba 0a 03  	ld	s5, 0x30(s5)
   1d290: e3 98 0a f6  	bne	s5, zero, 0x1d200 <realize_virt_arrays+0x190>
   1d294: 6f 40 41 68  	jal	zero, 0x31918 <__riscv_restore_7>

000000000001d298 <access_virt_sarray>:
   1d298: ef 42 21 64  	jal	t0, 0x318da <__riscv_save_7>
   1d29c: 13 84 05 00  	addi	s0, a1, 0x0
   1d2a0: 83 a5 85 00  	lw	a1, 0x8(a1)
   1d2a4: 93 04 06 00  	addi	s1, a2, 0x0
   1d2a8: 3b 8a c6 00  	addw	s4, a3, a2
   1d2ac: 13 09 07 00  	addi	s2, a4, 0x0
   1d2b0: 93 09 05 00  	addi	s3, a0, 0x0
   1d2b4: 63 ea 45 01  	bltu	a1, s4, 0x1d2c8 <access_virt_sarray+0x30>
   1d2b8: 03 25 04 01  	lw	a0, 0x10(s0)
   1d2bc: 63 66 d5 00  	bltu	a0, a3, 0x1d2c8 <access_virt_sarray+0x30>
   1d2c0: 03 35 04 00  	ld	a0, 0x0(s0)
   1d2c4: 63 1e 05 00  	bne	a0, zero, 0x1d2e0 <access_virt_sarray+0x48>
   1d2c8: 03 b5 09 00  	ld	a0, 0x0(s3)
   1d2cc: 83 35 05 00  	ld	a1, 0x0(a0)
   1d2d0: 13 06 40 01  	addi	a2, zero, 0x14
   1d2d4: 23 24 c5 02  	sw	a2, 0x28(a0)
   1d2d8: 13 85 09 00  	addi	a0, s3, 0x0
   1d2dc: e7 80 05 00  	jalr	ra, 0x0(a1)
   1d2e0: 03 25 c4 01  	lw	a0, 0x1c(s0)
   1d2e4: 63 e8 a4 00  	bltu	s1, a0, 0x1d2f4 <access_virt_sarray+0x5c>
   1d2e8: 83 25 44 01  	lw	a1, 0x14(s0)
   1d2ec: 3b 85 a5 00  	addw	a0, a1, a0
   1d2f0: 63 7e 45 07  	bgeu	a0, s4, 0x1d36c <access_virt_sarray+0xd4>
   1d2f4: 03 25 c4 02  	lw	a0, 0x2c(s0)
   1d2f8: 63 1e 05 00  	bne	a0, zero, 0x1d314 <access_virt_sarray+0x7c>
   1d2fc: 03 b5 09 00  	ld	a0, 0x0(s3)
   1d300: 83 35 05 00  	ld	a1, 0x0(a0)
   1d304: 13 06 40 04  	addi	a2, zero, 0x44
   1d308: 23 24 c5 02  	sw	a2, 0x28(a0)
   1d30c: 13 85 09 00  	addi	a0, s3, 0x0
   1d310: e7 80 05 00  	jalr	ra, 0x0(a1)
   1d314: 03 25 84 02  	lw	a0, 0x28(s0)
   1d318: 63 0c 05 00  	beq	a0, zero, 0x1d330 <access_virt_sarray+0x98>
   1d31c: 13 06 10 00  	addi	a2, zero, 0x1
   1d320: 13 85 09 00  	addi	a0, s3, 0x0
   1d324: 93 05 04 00  	addi	a1, s0, 0x0
   1d328: ef 00 00 49  	jal	ra, 0x1d7b8 <do_sarray_io>
   1d32c: 23 24 04 02  	sw	zero, 0x28(s0)
   1d330: 83 25 c4 01  	lw	a1, 0x1c(s0)
   1d334: 13 85 04 00  	addi	a0, s1, 0x0
   1d338: 63 e0 95 02  	bltu	a1, s1, 0x1d358 <access_virt_sarray+0xc0>
   1d33c: 03 65 44 01  	lwu	a0, 0x14(s0)
   1d340: 93 15 0a 02  	slli	a1, s4, 0x20
   1d344: 93 d5 05 02  	srli	a1, a1, 0x20
   1d348: b3 85 a5 40  	sub	a1, a1, a0
   1d34c: 33 25 b0 00  	slt	a0, zero, a1
   1d350: 33 05 a0 40  	sub	a0, zero, a0
   1d354: 33 75 b5 00  	and	a0, a0, a1
   1d358: 23 2e a4 00  	sw	a0, 0x1c(s0)
   1d35c: 13 85 09 00  	addi	a0, s3, 0x0
   1d360: 93 05 04 00  	addi	a1, s0, 0x0
   1d364: 13 06 00 00  	addi	a2, zero, 0x0
   1d368: ef 00 00 45  	jal	ra, 0x1d7b8 <do_sarray_io>
   1d36c: 03 25 04 02  	lw	a0, 0x20(s0)
   1d370: 63 7e 45 09  	bgeu	a0, s4, 0x1d40c <access_virt_sarray+0x174>
   1d374: 63 74 95 02  	bgeu	a0, s1, 0x1d39c <access_virt_sarray+0x104>
   1d378: 63 0c 09 02  	beq	s2, zero, 0x1d3b0 <access_virt_sarray+0x118>
   1d37c: 03 b5 09 00  	ld	a0, 0x0(s3)
   1d380: 83 35 05 00  	ld	a1, 0x0(a0)
   1d384: 13 06 40 01  	addi	a2, zero, 0x14
   1d388: 23 24 c5 02  	sw	a2, 0x28(a0)
   1d38c: 13 85 09 00  	addi	a0, s3, 0x0
   1d390: e7 80 05 00  	jalr	ra, 0x0(a1)
   1d394: 13 85 04 00  	addi	a0, s1, 0x0
   1d398: 6f 00 80 00  	jal	zero, 0x1d3a0 <access_virt_sarray+0x108>
   1d39c: 63 0c 09 08  	beq	s2, zero, 0x1d434 <access_virt_sarray+0x19c>
   1d3a0: 83 25 44 02  	lw	a1, 0x24(s0)
   1d3a4: 23 20 44 03  	sw	s4, 0x20(s0)
   1d3a8: 63 9a 05 00  	bne	a1, zero, 0x1d3bc <access_virt_sarray+0x124>
   1d3ac: 6f 00 40 06  	jal	zero, 0x1d410 <access_virt_sarray+0x178>
   1d3b0: 83 25 44 02  	lw	a1, 0x24(s0)
   1d3b4: 13 85 04 00  	addi	a0, s1, 0x0
   1d3b8: 63 82 05 08  	beq	a1, zero, 0x1d43c <access_virt_sarray+0x1a4>
   1d3bc: 03 26 c4 01  	lw	a2, 0x1c(s0)
   1d3c0: bb 05 c5 40  	subw	a1, a0, a2
   1d3c4: 3b 06 ca 40  	subw	a2, s4, a2
   1d3c8: 63 f2 c5 04  	bgeu	a1, a2, 0x1d40c <access_virt_sarray+0x174>
   1d3cc: 83 69 c4 00  	lwu	s3, 0xc(s0)
   1d3d0: 93 95 05 02  	slli	a1, a1, 0x20
   1d3d4: 93 da d5 01  	srli	s5, a1, 0x1d
   1d3d8: 13 45 f5 ff  	xori	a0, a0, -0x1
   1d3dc: 33 05 45 01  	add	a0, a0, s4
   1d3e0: 13 15 05 02  	slli	a0, a0, 0x20
   1d3e4: 13 55 d5 01  	srli	a0, a0, 0x1d
   1d3e8: 33 05 55 01  	add	a0, a0, s5
   1d3ec: 13 0a 85 00  	addi	s4, a0, 0x8
   1d3f0: 03 35 04 00  	ld	a0, 0x0(s0)
   1d3f4: 33 05 55 01  	add	a0, a0, s5
   1d3f8: 03 35 05 00  	ld	a0, 0x0(a0)
   1d3fc: 93 85 09 00  	addi	a1, s3, 0x0
   1d400: ef f0 4f b9  	jal	ra, 0x1c794 <jzero_far>
   1d404: 93 8a 8a 00  	addi	s5, s5, 0x8
   1d408: e3 94 4a ff  	bne	s5, s4, 0x1d3f0 <access_virt_sarray+0x158>
   1d40c: 63 06 09 00  	beq	s2, zero, 0x1d418 <access_virt_sarray+0x180>
   1d410: 13 05 10 00  	addi	a0, zero, 0x1
   1d414: 23 24 a4 02  	sw	a0, 0x28(s0)
   1d418: 03 25 c4 01  	lw	a0, 0x1c(s0)
   1d41c: 83 35 04 00  	ld	a1, 0x0(s0)
   1d420: bb 84 a4 40  	subw	s1, s1, a0
   1d424: 93 94 04 02  	slli	s1, s1, 0x20
   1d428: 13 d5 d4 01  	srli	a0, s1, 0x1d
   1d42c: 33 85 a5 00  	add	a0, a1, a0
   1d430: 6f 40 81 4e  	jal	zero, 0x31918 <__riscv_restore_7>
   1d434: 83 25 44 02  	lw	a1, 0x24(s0)
   1d438: e3 92 05 f8  	bne	a1, zero, 0x1d3bc <access_virt_sarray+0x124>
   1d43c: 03 b5 09 00  	ld	a0, 0x0(s3)
   1d440: 83 35 05 00  	ld	a1, 0x0(a0)
   1d444: 13 06 40 01  	addi	a2, zero, 0x14
   1d448: 23 24 c5 02  	sw	a2, 0x28(a0)
   1d44c: 13 85 09 00  	addi	a0, s3, 0x0
   1d450: e7 80 05 00  	jalr	ra, 0x0(a1)
   1d454: 6f f0 5f fc  	jal	zero, 0x1d418 <access_virt_sarray+0x180>

000000000001d458 <access_virt_barray>:
   1d458: ef 42 21 48  	jal	t0, 0x318da <__riscv_save_7>
   1d45c: 13 84 05 00  	addi	s0, a1, 0x0
   1d460: 83 a5 85 00  	lw	a1, 0x8(a1)
   1d464: 93 04 06 00  	addi	s1, a2, 0x0
   1d468: 3b 8a c6 00  	addw	s4, a3, a2
   1d46c: 13 09 07 00  	addi	s2, a4, 0x0
   1d470: 93 09 05 00  	addi	s3, a0, 0x0
   1d474: 63 ea 45 01  	bltu	a1, s4, 0x1d488 <access_virt_barray+0x30>
   1d478: 03 25 04 01  	lw	a0, 0x10(s0)
   1d47c: 63 66 d5 00  	bltu	a0, a3, 0x1d488 <access_virt_barray+0x30>
   1d480: 03 35 04 00  	ld	a0, 0x0(s0)
   1d484: 63 1e 05 00  	bne	a0, zero, 0x1d4a0 <access_virt_barray+0x48>
   1d488: 03 b5 09 00  	ld	a0, 0x0(s3)
   1d48c: 83 35 05 00  	ld	a1, 0x0(a0)
   1d490: 13 06 40 01  	addi	a2, zero, 0x14
   1d494: 23 24 c5 02  	sw	a2, 0x28(a0)
   1d498: 13 85 09 00  	addi	a0, s3, 0x0
   1d49c: e7 80 05 00  	jalr	ra, 0x0(a1)
   1d4a0: 03 25 c4 01  	lw	a0, 0x1c(s0)
   1d4a4: 63 e8 a4 00  	bltu	s1, a0, 0x1d4b4 <access_virt_barray+0x5c>
   1d4a8: 83 25 44 01  	lw	a1, 0x14(s0)
   1d4ac: 3b 85 a5 00  	addw	a0, a1, a0
   1d4b0: 63 7e 45 07  	bgeu	a0, s4, 0x1d52c <access_virt_barray+0xd4>
   1d4b4: 03 25 c4 02  	lw	a0, 0x2c(s0)
   1d4b8: 63 1e 05 00  	bne	a0, zero, 0x1d4d4 <access_virt_barray+0x7c>
   1d4bc: 03 b5 09 00  	ld	a0, 0x0(s3)
   1d4c0: 83 35 05 00  	ld	a1, 0x0(a0)
   1d4c4: 13 06 40 04  	addi	a2, zero, 0x44
   1d4c8: 23 24 c5 02  	sw	a2, 0x28(a0)
   1d4cc: 13 85 09 00  	addi	a0, s3, 0x0
   1d4d0: e7 80 05 00  	jalr	ra, 0x0(a1)
   1d4d4: 03 25 84 02  	lw	a0, 0x28(s0)
   1d4d8: 63 0c 05 00  	beq	a0, zero, 0x1d4f0 <access_virt_barray+0x98>
   1d4dc: 13 06 10 00  	addi	a2, zero, 0x1
   1d4e0: 13 85 09 00  	addi	a0, s3, 0x0
   1d4e4: 93 05 04 00  	addi	a1, s0, 0x0
   1d4e8: ef 00 40 3a  	jal	ra, 0x1d88c <do_barray_io>
   1d4ec: 23 24 04 02  	sw	zero, 0x28(s0)
   1d4f0: 83 25 c4 01  	lw	a1, 0x1c(s0)
   1d4f4: 13 85 04 00  	addi	a0, s1, 0x0
   1d4f8: 63 e0 95 02  	bltu	a1, s1, 0x1d518 <access_virt_barray+0xc0>
   1d4fc: 03 65 44 01  	lwu	a0, 0x14(s0)
   1d500: 93 15 0a 02  	slli	a1, s4, 0x20
   1d504: 93 d5 05 02  	srli	a1, a1, 0x20
   1d508: b3 85 a5 40  	sub	a1, a1, a0
   1d50c: 33 25 b0 00  	slt	a0, zero, a1
   1d510: 33 05 a0 40  	sub	a0, zero, a0
   1d514: 33 75 b5 00  	and	a0, a0, a1
   1d518: 23 2e a4 00  	sw	a0, 0x1c(s0)
   1d51c: 13 85 09 00  	addi	a0, s3, 0x0
   1d520: 93 05 04 00  	addi	a1, s0, 0x0
   1d524: 13 06 00 00  	addi	a2, zero, 0x0
   1d528: ef 00 40 36  	jal	ra, 0x1d88c <do_barray_io>
   1d52c: 03 25 04 02  	lw	a0, 0x20(s0)
   1d530: 63 70 45 0b  	bgeu	a0, s4, 0x1d5d0 <access_virt_barray+0x178>
   1d534: 63 74 95 02  	bgeu	a0, s1, 0x1d55c <access_virt_barray+0x104>
   1d538: 63 0c 09 02  	beq	s2, zero, 0x1d570 <access_virt_barray+0x118>
   1d53c: 03 b5 09 00  	ld	a0, 0x0(s3)
   1d540: 83 35 05 00  	ld	a1, 0x0(a0)
   1d544: 13 06 40 01  	addi	a2, zero, 0x14
   1d548: 23 24 c5 02  	sw	a2, 0x28(a0)
   1d54c: 13 85 09 00  	addi	a0, s3, 0x0
   1d550: e7 80 05 00  	jalr	ra, 0x0(a1)
   1d554: 13 85 04 00  	addi	a0, s1, 0x0
   1d558: 6f 00 80 00  	jal	zero, 0x1d560 <access_virt_barray+0x108>
   1d55c: 63 0e 09 08  	beq	s2, zero, 0x1d5f8 <access_virt_barray+0x1a0>
   1d560: 83 25 44 02  	lw	a1, 0x24(s0)
   1d564: 23 20 44 03  	sw	s4, 0x20(s0)
   1d568: 63 9a 05 00  	bne	a1, zero, 0x1d57c <access_virt_barray+0x124>
   1d56c: 6f 00 80 06  	jal	zero, 0x1d5d4 <access_virt_barray+0x17c>
   1d570: 83 25 44 02  	lw	a1, 0x24(s0)
   1d574: 13 85 04 00  	addi	a0, s1, 0x0
   1d578: 63 84 05 08  	beq	a1, zero, 0x1d600 <access_virt_barray+0x1a8>
   1d57c: 03 26 c4 01  	lw	a2, 0x1c(s0)
   1d580: bb 05 c5 40  	subw	a1, a0, a2
   1d584: 3b 06 ca 40  	subw	a2, s4, a2
   1d588: 63 f4 c5 04  	bgeu	a1, a2, 0x1d5d0 <access_virt_barray+0x178>
   1d58c: 83 69 c4 00  	lwu	s3, 0xc(s0)
   1d590: 93 99 79 00  	slli	s3, s3, 0x7
   1d594: 93 95 05 02  	slli	a1, a1, 0x20
   1d598: 93 da d5 01  	srli	s5, a1, 0x1d
   1d59c: 13 45 f5 ff  	xori	a0, a0, -0x1
   1d5a0: 33 05 45 01  	add	a0, a0, s4
   1d5a4: 13 15 05 02  	slli	a0, a0, 0x20
   1d5a8: 13 55 d5 01  	srli	a0, a0, 0x1d
   1d5ac: 33 05 55 01  	add	a0, a0, s5
   1d5b0: 13 0a 85 00  	addi	s4, a0, 0x8
   1d5b4: 03 35 04 00  	ld	a0, 0x0(s0)
   1d5b8: 33 05 55 01  	add	a0, a0, s5
   1d5bc: 03 35 05 00  	ld	a0, 0x0(a0)
   1d5c0: 93 85 09 00  	addi	a1, s3, 0x0
   1d5c4: ef f0 0f 9d  	jal	ra, 0x1c794 <jzero_far>
   1d5c8: 93 8a 8a 00  	addi	s5, s5, 0x8
   1d5cc: e3 94 4a ff  	bne	s5, s4, 0x1d5b4 <access_virt_barray+0x15c>
   1d5d0: 63 06 09 00  	beq	s2, zero, 0x1d5dc <access_virt_barray+0x184>
   1d5d4: 13 05 10 00  	addi	a0, zero, 0x1
   1d5d8: 23 24 a4 02  	sw	a0, 0x28(s0)
   1d5dc: 03 25 c4 01  	lw	a0, 0x1c(s0)
   1d5e0: 83 35 04 00  	ld	a1, 0x0(s0)
   1d5e4: bb 84 a4 40  	subw	s1, s1, a0
   1d5e8: 93 94 04 02  	slli	s1, s1, 0x20
   1d5ec: 13 d5 d4 01  	srli	a0, s1, 0x1d
   1d5f0: 33 85 a5 00  	add	a0, a1, a0
   1d5f4: 6f 40 41 32  	jal	zero, 0x31918 <__riscv_restore_7>
   1d5f8: 83 25 44 02  	lw	a1, 0x24(s0)
   1d5fc: e3 90 05 f8  	bne	a1, zero, 0x1d57c <access_virt_barray+0x124>
   1d600: 03 b5 09 00  	ld	a0, 0x0(s3)
   1d604: 83 35 05 00  	ld	a1, 0x0(a0)
   1d608: 13 06 40 01  	addi	a2, zero, 0x14
   1d60c: 23 24 c5 02  	sw	a2, 0x28(a0)
   1d610: 13 85 09 00  	addi	a0, s3, 0x0
   1d614: e7 80 05 00  	jalr	ra, 0x0(a1)
   1d618: 6f f0 5f fc  	jal	zero, 0x1d5dc <access_virt_barray+0x184>

000000000001d61c <free_pool>:
   1d61c: ef 42 81 2c  	jal	t0, 0x318e4 <__riscv_save_5>
   1d620: 13 04 05 00  	addi	s0, a0, 0x0
   1d624: 83 39 85 00  	ld	s3, 0x8(a0)
   1d628: 13 05 20 00  	addi	a0, zero, 0x2
   1d62c: 93 84 05 00  	addi	s1, a1, 0x0
   1d630: 63 e4 a5 02  	bltu	a1, a0, 0x1d658 <free_pool+0x3c>
   1d634: 03 35 04 00  	ld	a0, 0x0(s0)
   1d638: 23 26 95 02  	sw	s1, 0x2c(a0)
   1d63c: 83 35 04 00  	ld	a1, 0x0(s0)
   1d640: 83 b5 05 00  	ld	a1, 0x0(a1)
   1d644: 13 06 c0 00  	addi	a2, zero, 0xc
   1d648: 23 24 c5 02  	sw	a2, 0x28(a0)
   1d64c: 13 05 04 00  	addi	a0, s0, 0x0
   1d650: e7 80 05 00  	jalr	ra, 0x0(a1)
   1d654: 6f 00 c0 06  	jal	zero, 0x1d6c0 <free_pool+0xa4>
   1d658: 13 05 10 00  	addi	a0, zero, 0x1
   1d65c: 63 92 a4 06  	bne	s1, a0, 0x1d6c0 <free_pool+0xa4>
   1d660: 03 b9 09 08  	ld	s2, 0x80(s3)
   1d664: 63 04 09 02  	beq	s2, zero, 0x1d68c <free_pool+0x70>
   1d668: 03 25 c9 02  	lw	a0, 0x2c(s2)
   1d66c: 63 0c 05 00  	beq	a0, zero, 0x1d684 <free_pool+0x68>
   1d670: 03 36 89 04  	ld	a2, 0x48(s2)
   1d674: 23 26 09 02  	sw	zero, 0x2c(s2)
   1d678: 93 05 89 03  	addi	a1, s2, 0x38
   1d67c: 13 05 04 00  	addi	a0, s0, 0x0
   1d680: e7 00 06 00  	jalr	ra, 0x0(a2)
   1d684: 03 39 09 03  	ld	s2, 0x30(s2)
   1d688: e3 10 09 fe  	bne	s2, zero, 0x1d668 <free_pool+0x4c>
   1d68c: 03 b9 89 08  	ld	s2, 0x88(s3)
   1d690: 23 b0 09 08  	sd	zero, 0x80(s3)
   1d694: 63 04 09 02  	beq	s2, zero, 0x1d6bc <free_pool+0xa0>
   1d698: 03 25 c9 02  	lw	a0, 0x2c(s2)
   1d69c: 63 0c 05 00  	beq	a0, zero, 0x1d6b4 <free_pool+0x98>
   1d6a0: 03 36 89 04  	ld	a2, 0x48(s2)
   1d6a4: 23 26 09 02  	sw	zero, 0x2c(s2)
   1d6a8: 93 05 89 03  	addi	a1, s2, 0x38
   1d6ac: 13 05 04 00  	addi	a0, s0, 0x0
   1d6b0: e7 00 06 00  	jalr	ra, 0x0(a2)
   1d6b4: 03 39 09 03  	ld	s2, 0x30(s2)
   1d6b8: e3 10 09 fe  	bne	s2, zero, 0x1d698 <free_pool+0x7c>
   1d6bc: 23 b4 09 08  	sd	zero, 0x88(s3)
   1d6c0: 13 95 34 00  	slli	a0, s1, 0x3
   1d6c4: 33 85 a9 00  	add	a0, s3, a0
   1d6c8: 83 35 05 07  	ld	a1, 0x70(a0)
   1d6cc: 23 38 05 06  	sd	zero, 0x70(a0)
   1d6d0: 63 8c 05 02  	beq	a1, zero, 0x1d708 <free_pool+0xec>
   1d6d4: 03 b5 85 00  	ld	a0, 0x8(a1)
   1d6d8: 03 b6 05 01  	ld	a2, 0x10(a1)
   1d6dc: 03 ba 05 00  	ld	s4, 0x0(a1)
   1d6e0: 33 05 c5 00  	add	a0, a0, a2
   1d6e4: 13 09 85 01  	addi	s2, a0, 0x18
   1d6e8: 13 05 04 00  	addi	a0, s0, 0x0
   1d6ec: 13 06 09 00  	addi	a2, s2, 0x0
   1d6f0: ef 00 c0 28  	jal	ra, 0x1d97c <jpeg_free_large>
   1d6f4: 03 b5 09 09  	ld	a0, 0x90(s3)
   1d6f8: 33 05 25 41  	sub	a0, a0, s2
   1d6fc: 23 b8 a9 08  	sd	a0, 0x90(s3)
   1d700: 93 05 0a 00  	addi	a1, s4, 0x0
   1d704: e3 18 0a fc  	bne	s4, zero, 0x1d6d4 <free_pool+0xb8>
   1d708: 93 94 34 00  	slli	s1, s1, 0x3
   1d70c: b3 84 99 00  	add	s1, s3, s1
   1d710: 83 b5 04 06  	ld	a1, 0x60(s1)
   1d714: 23 b0 04 06  	sd	zero, 0x60(s1)
   1d718: 63 8c 05 02  	beq	a1, zero, 0x1d750 <free_pool+0x134>
   1d71c: 03 b5 85 00  	ld	a0, 0x8(a1)
   1d720: 03 b6 05 01  	ld	a2, 0x10(a1)
   1d724: 03 b9 05 00  	ld	s2, 0x0(a1)
   1d728: 33 05 c5 00  	add	a0, a0, a2
   1d72c: 93 04 85 01  	addi	s1, a0, 0x18
   1d730: 13 05 04 00  	addi	a0, s0, 0x0
   1d734: 13 86 04 00  	addi	a2, s1, 0x0
   1d738: ef 00 40 23  	jal	ra, 0x1d96c <jpeg_free_small>
   1d73c: 03 b5 09 09  	ld	a0, 0x90(s3)
   1d740: 33 05 95 40  	sub	a0, a0, s1
   1d744: 23 b8 a9 08  	sd	a0, 0x90(s3)
   1d748: 93 05 09 00  	addi	a1, s2, 0x0
   1d74c: e3 18 09 fc  	bne	s2, zero, 0x1d71c <free_pool+0x100>
   1d750: 6f 40 e1 1c  	jal	zero, 0x3191e <__riscv_restore_5>

000000000001d754 <self_destruct>:
   1d754: 13 01 01 fe  	addi	sp, sp, -0x20
   1d758: 23 3c 11 00  	sd	ra, 0x18(sp)
   1d75c: 23 38 81 00  	sd	s0, 0x10(sp)
   1d760: 23 34 91 00  	sd	s1, 0x8(sp)
   1d764: 23 30 21 01  	sd	s2, 0x0(sp)
   1d768: 13 04 05 00  	addi	s0, a0, 0x0
   1d76c: 93 04 10 00  	addi	s1, zero, 0x1
   1d770: 13 09 f0 ff  	addi	s2, zero, -0x1
   1d774: 13 05 04 00  	addi	a0, s0, 0x0
   1d778: 93 85 04 00  	addi	a1, s1, 0x0
   1d77c: ef f0 1f ea  	jal	ra, 0x1d61c <free_pool>
   1d780: 9b 84 f4 ff  	addiw	s1, s1, -0x1
   1d784: e3 98 24 ff  	bne	s1, s2, 0x1d774 <self_destruct+0x20>
   1d788: 83 35 84 00  	ld	a1, 0x8(s0)
   1d78c: 13 06 00 0a  	addi	a2, zero, 0xa0
   1d790: 13 05 04 00  	addi	a0, s0, 0x0
   1d794: ef 00 80 1d  	jal	ra, 0x1d96c <jpeg_free_small>
   1d798: 23 34 04 00  	sd	zero, 0x8(s0)
   1d79c: 13 05 04 00  	addi	a0, s0, 0x0
   1d7a0: 83 30 81 01  	ld	ra, 0x18(sp)
   1d7a4: 03 34 01 01  	ld	s0, 0x10(sp)
   1d7a8: 83 34 81 00  	ld	s1, 0x8(sp)
   1d7ac: 03 39 01 00  	ld	s2, 0x0(sp)
   1d7b0: 13 01 01 02  	addi	sp, sp, 0x20
   1d7b4: 6f 00 40 1f  	jal	zero, 0x1d9a8 <jpeg_mem_term>

000000000001d7b8 <do_sarray_io>:
   1d7b8: ef 42 81 11  	jal	t0, 0x318d0 <__riscv_save_9>
   1d7bc: 03 ec 45 01  	lwu	s8, 0x14(a1)
   1d7c0: 63 04 0c 0c  	beq	s8, zero, 0x1d888 <do_sarray_io+0xd0>
   1d7c4: 13 84 05 00  	addi	s0, a1, 0x0
   1d7c8: 13 0a 06 00  	addi	s4, a2, 0x0
   1d7cc: 93 04 05 00  	addi	s1, a0, 0x0
   1d7d0: 03 e9 c5 00  	lwu	s2, 0xc(a1)
   1d7d4: 03 e5 c5 01  	lwu	a0, 0x1c(a1)
   1d7d8: 93 05 09 00  	addi	a1, s2, 0x0
   1d7dc: ef 40 81 15  	jal	ra, 0x31934 <__muldi3>
   1d7e0: 93 09 05 00  	addi	s3, a0, 0x0
   1d7e4: 93 0b 80 03  	addi	s7, zero, 0x38
   1d7e8: 63 04 0a 00  	beq	s4, zero, 0x1d7f0 <do_sarray_io+0x38>
   1d7ec: 93 0b 00 04  	addi	s7, zero, 0x40
   1d7f0: 03 25 84 01  	lw	a0, 0x18(s0)
   1d7f4: 13 0b 00 00  	addi	s6, zero, 0x0
   1d7f8: 13 0a 84 03  	addi	s4, s0, 0x38
   1d7fc: b3 0b 74 01  	add	s7, s0, s7
   1d800: 13 15 05 02  	slli	a0, a0, 0x20
   1d804: 93 55 05 02  	srli	a1, a0, 0x20
   1d808: 33 05 6c 41  	sub	a0, s8, s6
   1d80c: 63 44 b5 00  	blt	a0, a1, 0x1d814 <do_sarray_io+0x5c>
   1d810: 13 85 05 00  	addi	a0, a1, 0x0
   1d814: 83 65 c4 01  	lwu	a1, 0x1c(s0)
   1d818: 03 66 04 02  	lwu	a2, 0x20(s0)
   1d81c: b3 05 bb 00  	add	a1, s6, a1
   1d820: 33 06 b6 40  	sub	a2, a2, a1
   1d824: 63 44 c5 00  	blt	a0, a2, 0x1d82c <do_sarray_io+0x74>
   1d828: 13 05 06 00  	addi	a0, a2, 0x0
   1d82c: 03 66 84 00  	lwu	a2, 0x8(s0)
   1d830: b3 05 b6 40  	sub	a1, a2, a1
   1d834: 63 44 b5 00  	blt	a0, a1, 0x1d83c <do_sarray_io+0x84>
   1d838: 13 85 05 00  	addi	a0, a1, 0x0
   1d83c: 63 56 a0 04  	bge	zero, a0, 0x1d888 <do_sarray_io+0xd0>
   1d840: 93 05 09 00  	addi	a1, s2, 0x0
   1d844: ef 40 01 0f  	jal	ra, 0x31934 <__muldi3>
   1d848: 83 35 04 00  	ld	a1, 0x0(s0)
   1d84c: 13 16 3b 00  	slli	a2, s6, 0x3
   1d850: b3 85 c5 00  	add	a1, a1, a2
   1d854: 03 b6 05 00  	ld	a2, 0x0(a1)
   1d858: 83 b7 0b 00  	ld	a5, 0x0(s7)
   1d85c: 93 0a 05 00  	addi	s5, a0, 0x0
   1d860: 13 85 04 00  	addi	a0, s1, 0x0
   1d864: 93 05 0a 00  	addi	a1, s4, 0x0
   1d868: 93 86 09 00  	addi	a3, s3, 0x0
   1d86c: 13 87 0a 00  	addi	a4, s5, 0x0
   1d870: e7 80 07 00  	jalr	ra, 0x0(a5)
   1d874: 03 65 84 01  	lwu	a0, 0x18(s0)
   1d878: 03 6c 44 01  	lwu	s8, 0x14(s0)
   1d87c: 33 0b ab 00  	add	s6, s6, a0
   1d880: b3 89 3a 01  	add	s3, s5, s3
   1d884: e3 6e 8b f7  	bltu	s6, s8, 0x1d800 <do_sarray_io+0x48>
   1d888: 6f 40 a1 08  	jal	zero, 0x31912 <__riscv_restore_9>

000000000001d88c <do_barray_io>:
   1d88c: ef 42 41 04  	jal	t0, 0x318d0 <__riscv_save_9>
   1d890: 03 ec 45 01  	lwu	s8, 0x14(a1)
   1d894: 63 06 0c 0c  	beq	s8, zero, 0x1d960 <do_barray_io+0xd4>
   1d898: 13 84 05 00  	addi	s0, a1, 0x0
   1d89c: 13 0a 06 00  	addi	s4, a2, 0x0
   1d8a0: 93 04 05 00  	addi	s1, a0, 0x0
   1d8a4: 03 e9 c5 00  	lwu	s2, 0xc(a1)
   1d8a8: 83 e5 c5 01  	lwu	a1, 0x1c(a1)
   1d8ac: 13 19 79 00  	slli	s2, s2, 0x7
   1d8b0: 13 05 09 00  	addi	a0, s2, 0x0
   1d8b4: ef 40 01 08  	jal	ra, 0x31934 <__muldi3>
   1d8b8: 93 09 05 00  	addi	s3, a0, 0x0
   1d8bc: 93 0b 80 03  	addi	s7, zero, 0x38
   1d8c0: 63 04 0a 00  	beq	s4, zero, 0x1d8c8 <do_barray_io+0x3c>
   1d8c4: 93 0b 00 04  	addi	s7, zero, 0x40
   1d8c8: 03 25 84 01  	lw	a0, 0x18(s0)
   1d8cc: 13 0b 00 00  	addi	s6, zero, 0x0
   1d8d0: 13 0a 84 03  	addi	s4, s0, 0x38
   1d8d4: b3 0b 74 01  	add	s7, s0, s7
   1d8d8: 13 15 05 02  	slli	a0, a0, 0x20
   1d8dc: 93 55 05 02  	srli	a1, a0, 0x20
   1d8e0: 33 05 6c 41  	sub	a0, s8, s6
   1d8e4: 63 44 b5 00  	blt	a0, a1, 0x1d8ec <do_barray_io+0x60>
   1d8e8: 13 85 05 00  	addi	a0, a1, 0x0
   1d8ec: 83 65 c4 01  	lwu	a1, 0x1c(s0)
   1d8f0: 03 66 04 02  	lwu	a2, 0x20(s0)
   1d8f4: b3 05 bb 00  	add	a1, s6, a1
   1d8f8: 33 06 b6 40  	sub	a2, a2, a1
   1d8fc: 63 44 c5 00  	blt	a0, a2, 0x1d904 <do_barray_io+0x78>
   1d900: 13 05 06 00  	addi	a0, a2, 0x0
   1d904: 03 66 84 00  	lwu	a2, 0x8(s0)
   1d908: b3 05 b6 40  	sub	a1, a2, a1
   1d90c: 63 44 b5 00  	blt	a0, a1, 0x1d914 <do_barray_io+0x88>
   1d910: 13 85 05 00  	addi	a0, a1, 0x0
   1d914: 63 56 a0 04  	bge	zero, a0, 0x1d960 <do_barray_io+0xd4>
   1d918: 93 05 09 00  	addi	a1, s2, 0x0
   1d91c: ef 40 81 01  	jal	ra, 0x31934 <__muldi3>
   1d920: 83 35 04 00  	ld	a1, 0x0(s0)
   1d924: 13 16 3b 00  	slli	a2, s6, 0x3
   1d928: b3 85 c5 00  	add	a1, a1, a2
   1d92c: 03 b6 05 00  	ld	a2, 0x0(a1)
   1d930: 83 b7 0b 00  	ld	a5, 0x0(s7)
   1d934: 93 0a 05 00  	addi	s5, a0, 0x0
   1d938: 13 85 04 00  	addi	a0, s1, 0x0
   1d93c: 93 05 0a 00  	addi	a1, s4, 0x0
   1d940: 93 86 09 00  	addi	a3, s3, 0x0
   1d944: 13 87 0a 00  	addi	a4, s5, 0x0
   1d948: e7 80 07 00  	jalr	ra, 0x0(a5)
   1d94c: 03 65 84 01  	lwu	a0, 0x18(s0)
   1d950: 03 6c 44 01  	lwu	s8, 0x14(s0)
   1d954: 33 0b ab 00  	add	s6, s6, a0
   1d958: b3 89 3a 01  	add	s3, s5, s3
   1d95c: e3 6e 8b f7  	bltu	s6, s8, 0x1d8d8 <do_barray_io+0x4c>
   1d960: 6f 30 31 7b  	jal	zero, 0x31912 <__riscv_restore_9>

000000000001d964 <jpeg_get_small>:
   1d964: 13 85 05 00  	addi	a0, a1, 0x0
   1d968: 6f 00 e0 12  	jal	zero, 0x1da96 <malloc>

000000000001d96c <jpeg_free_small>:
   1d96c: 13 85 05 00  	addi	a0, a1, 0x0
   1d970: 6f 00 e0 12  	jal	zero, 0x1da9e <free>

000000000001d974 <jpeg_get_large>:
   1d974: 13 85 05 00  	addi	a0, a1, 0x0
   1d978: 6f 00 e0 11  	jal	zero, 0x1da96 <malloc>

000000000001d97c <jpeg_free_large>:
   1d97c: 13 85 05 00  	addi	a0, a1, 0x0
   1d980: 6f 00 e0 11  	jal	zero, 0x1da9e <free>

000000000001d984 <jpeg_mem_available>:
   1d984: 13 05 06 00  	addi	a0, a2, 0x0
   1d988: 67 80 00 00  	jalr	zero, 0x0(ra)

000000000001d98c <jpeg_open_backing_store>:
   1d98c: 83 35 05 00  	ld	a1, 0x0(a0)
   1d990: 03 b3 05 00  	ld	t1, 0x0(a1)
   1d994: 13 06 00 03  	addi	a2, zero, 0x30
   1d998: 23 a4 c5 02  	sw	a2, 0x28(a1)
   1d99c: 67 00 03 00  	jalr	zero, 0x0(t1)

000000000001d9a0 <jpeg_mem_init>:
   1d9a0: 13 05 00 00  	addi	a0, zero, 0x0
   1d9a4: 67 80 00 00  	jalr	zero, 0x0(ra)

000000000001d9a8 <jpeg_mem_term>:
   1d9a8: 67 80 00 00  	jalr	zero, 0x0(ra)