00000000000101de <main>:
   101de: ef d2 11 45  	jal	t0, 0x2de2e <__riscv_save_7>
   101e2: 13 01 01 d6  	addi	sp, sp, -0x2a0
   101e6: 2e 8a        	c.mv	s4, a1
   101e8: 8c 61        	c.ld	a1, 0x0(a1)
   101ea: aa 84        	c.mv	s1, a0
   101ec: 23 bc b1 20  	sd	a1, 0x218(gp)
   101f0: 81 c5        	c.beqz	a1, 0x101f8 <main+0x1a>
   101f2: 83 c5 05 00  	lbu	a1, 0x0(a1)
   101f6: 99 e5        	c.bnez	a1, 0x10204 <main+0x26>
   101f8: b7 e5 02 00  	lui	a1, 0x2e
   101fc: 93 85 85 f9  	addi	a1, a1, -0x68
   10200: 23 bc b1 20  	sd	a1, 0x218(gp)
   10204: 28 00        	c.addi4spn	a0, sp, 0x8
   10206: ef 80 b0 7f  	jal	ra, 0x19200 <jpeg_std_error>
   1020a: 2a f9        	c.sdsp	a0, 0xb0(sp)
   1020c: 08 19        	c.addi4spn	a0, sp, 0xb0
   1020e: 93 05 d0 03  	addi	a1, zero, 0x3d
   10212: 13 06 00 1f  	addi	a2, zero, 0x1f0
   10216: ef 20 30 56  	jal	ra, 0x12f78 <jpeg_CreateCompress>
   1021a: 37 05 03 00  	lui	a0, 0x30
   1021e: 13 05 85 cb  	addi	a0, a0, -0x348
   10222: 2a f1        	c.sdsp	a0, 0xa0(sp)
   10224: 13 05 30 41  	addi	a0, zero, 0x413
   10228: 02 15        	c.slli	a0, 0x20
   1022a: 13 05 85 3e  	addi	a0, a0, 0x3e8
   1022e: 2a f5        	c.sdsp	a0, 0xa8(sp)
   10230: 09 45        	c.li	a0, 0x2
   10232: aa d3        	c.swsp	a0, 0xe4(sp)
   10234: 08 19        	c.addi4spn	a0, sp, 0xb0
   10236: ef 30 20 2b  	jal	ra, 0x134e8 <jpeg_set_defaults>
   1023a: 08 19        	c.addi4spn	a0, sp, 0xb0
   1023c: a6 85        	c.mv	a1, s1
   1023e: 52 86        	c.mv	a2, s4
   10240: 81 46        	c.li	a3, 0x0
   10242: ef 00 20 1b  	jal	ra, 0x103f4 <parse_switches>
   10246: 9b 85 f4 ff  	addiw	a1, s1, -0x1
   1024a: 63 5f b5 00  	bge	a0, a1, 0x10268 <main+0x8a>
   1024e: 03 b5 01 20  	ld	a0, 0x200(gp)
   10252: 08 6d        	c.ld	a0, 0x18(a0)
   10254: 03 b6 81 21  	ld	a2, 0x218(gp)
   10258: b7 e5 02 00  	lui	a1, 0x2e
   1025c: 93 85 e5 f9  	addi	a1, a1, -0x62
   10260: ef a0 70 1d  	jal	ra, 0x1ac36 <fprintf>
   10264: ef 00 e0 67  	jal	ra, 0x108e2 <usage>
   10268: 63 55 95 02  	bge	a0, s1, 0x10292 <main+0xb4>
   1026c: 0e 05        	c.slli	a0, 0x3
   1026e: 33 04 aa 00  	add	s0, s4, a0
   10272: 08 60        	c.ld	a0, 0x0(s0)
   10274: b7 e5 02 00  	lui	a1, 0x2e
   10278: 93 85 75 fb  	addi	a1, a1, -0x49
   1027c: ef a0 d0 18  	jal	ra, 0x1ac08 <fopen>
   10280: 2a 89        	c.mv	s2, a0
   10282: 19 e9        	c.bnez	a0, 0x10298 <main+0xba>
   10284: 03 b5 01 20  	ld	a0, 0x200(gp)
   10288: 08 6d        	c.ld	a0, 0x18(a0)
   1028a: 03 b6 81 21  	ld	a2, 0x218(gp)
   1028e: 14 60        	c.ld	a3, 0x0(s0)
   10290: 15 a8        	c.j	0x102c4 <main+0xe6>
   10292: ef 20 70 4d  	jal	ra, 0x12f68 <read_stdin>
   10296: 2a 89        	c.mv	s2, a0
   10298: 03 b5 01 22  	ld	a0, 0x220(gp)
   1029c: 09 e5        	c.bnez	a0, 0x102a6 <main+0xc8>
   1029e: ef 20 30 4d  	jal	ra, 0x12f70 <write_stdout>
   102a2: aa 89        	c.mv	s3, a0
   102a4: 0d a8        	c.j	0x102d6 <main+0xf8>
   102a6: b7 e5 02 00  	lui	a1, 0x2e
   102aa: 93 85 d5 fc  	addi	a1, a1, -0x33
   102ae: ef a0 b0 15  	jal	ra, 0x1ac08 <fopen>
   102b2: aa 89        	c.mv	s3, a0
   102b4: 0d e1        	c.bnez	a0, 0x102d6 <main+0xf8>
   102b6: 03 b5 01 20  	ld	a0, 0x200(gp)
   102ba: 08 6d        	c.ld	a0, 0x18(a0)
   102bc: 03 b6 81 21  	ld	a2, 0x218(gp)
   102c0: 83 b6 01 22  	ld	a3, 0x220(gp)
   102c4: b7 e5 02 00  	lui	a1, 0x2e
   102c8: 93 85 a5 fb  	addi	a1, a1, -0x46
   102cc: ef a0 b0 16  	jal	ra, 0x1ac36 <fprintf>
   102d0: 05 45        	c.li	a0, 0x1
   102d2: ef f0 ff e4  	jal	ra, 0x10120 <exit>
   102d6: 03 c5 81 22  	lbu	a0, 0x228(gp)
   102da: 59 c9        	c.beqz	a0, 0x10370 <main+0x192>
   102dc: 08 19        	c.addi4spn	a0, sp, 0xb0
   102de: ef 10 c0 78  	jal	ra, 0x11a6a <jinit_read_targa>
   102e2: 2a 84        	c.mv	s0, a0
   102e4: 10 60        	c.ld	a2, 0x0(s0)
   102e6: 23 3c 24 01  	sd	s2, 0x18(s0)
   102ea: 08 19        	c.addi4spn	a0, sp, 0xb0
   102ec: a2 85        	c.mv	a1, s0
   102ee: 02 96        	c.jalr	a2
   102f0: 08 19        	c.addi4spn	a0, sp, 0xb0
   102f2: ef 30 40 39  	jal	ra, 0x13686 <jpeg_default_colorspace>
   102f6: 08 19        	c.addi4spn	a0, sp, 0xb0
   102f8: 85 46        	c.li	a3, 0x1
   102fa: a6 85        	c.mv	a1, s1
   102fc: 52 86        	c.mv	a2, s4
   102fe: ef 00 60 0f  	jal	ra, 0x103f4 <parse_switches>
   10302: 08 19        	c.addi4spn	a0, sp, 0xb0
   10304: ce 85        	c.mv	a1, s3
   10306: ef 30 f0 06  	jal	ra, 0x13b74 <jpeg_stdio_dest>
   1030a: 08 19        	c.addi4spn	a0, sp, 0xb0
   1030c: 85 45        	c.li	a1, 0x1
   1030e: ef 20 b0 6a  	jal	ra, 0x131b8 <jpeg_start_compress>
   10312: 03 25 81 1d  	lw	a0, 0x1d8(sp)
   10316: fe 45        	c.lwsp	a1, 0xdc(sp)
   10318: 63 7c b5 00  	bgeu	a0, a1, 0x10330 <main+0x152>
   1031c: 10 64        	c.ld	a2, 0x8(s0)
   1031e: 08 19        	c.addi4spn	a0, sp, 0xb0
   10320: a2 85        	c.mv	a1, s0
   10322: 02 96        	c.jalr	a2
   10324: 0c 70        	c.ld	a1, 0x20(s0)
   10326: 2a 86        	c.mv	a2, a0
   10328: 08 19        	c.addi4spn	a0, sp, 0xb0
   1032a: ef 20 10 6f  	jal	ra, 0x1321a <jpeg_write_scanlines>
   1032e: d5 b7        	c.j	0x10312 <main+0x134>
   10330: 10 68        	c.ld	a2, 0x10(s0)
   10332: 08 19        	c.addi4spn	a0, sp, 0xb0
   10334: a2 85        	c.mv	a1, s0
   10336: 02 96        	c.jalr	a2
   10338: 08 19        	c.addi4spn	a0, sp, 0xb0
   1033a: ef 20 50 50  	jal	ra, 0x1303e <jpeg_finish_compress>
   1033e: 08 19        	c.addi4spn	a0, sp, 0xb0
   10340: ef 20 f0 4b  	jal	ra, 0x12ffe <jpeg_destroy_compress>
   10344: 03 b5 01 20  	ld	a0, 0x200(gp)
   10348: 0c 65        	c.ld	a1, 0x8(a0)
   1034a: 63 07 b9 00  	beq	s2, a1, 0x10358 <main+0x17a>
   1034e: 4a 85        	c.mv	a0, s2
   10350: ef a0 80 37  	jal	ra, 0x1a6c8 <fclose>
   10354: 03 b5 01 20  	ld	a0, 0x200(gp)
   10358: 08 69        	c.ld	a0, 0x10(a0)
   1035a: 63 85 a9 00  	beq	s3, a0, 0x10364 <main+0x186>
   1035e: 4e 85        	c.mv	a0, s3
   10360: ef a0 80 36  	jal	ra, 0x1a6c8 <fclose>
   10364: 2a 65        	c.ldsp	a0, 0x88(sp)
   10366: 33 35 a0 00  	sltu	a0, zero, a0
   1036a: 06 05        	c.slli	a0, 0x1
   1036c: ef f0 5f db  	jal	ra, 0x10120 <exit>
   10370: 4a 85        	c.mv	a0, s2
   10372: ef a0 d0 48  	jal	ra, 0x1affe <getc>
   10376: fd 5a        	c.li	s5, -0x1
   10378: 2a 84        	c.mv	s0, a0
   1037a: 63 19 55 01  	bne	a0, s5, 0x1038c <main+0x1ae>
   1037e: 4a 75        	c.ldsp	a0, 0xb0(sp)
   10380: 0c 61        	c.ld	a1, 0x0(a0)
   10382: 13 06 90 02  	addi	a2, zero, 0x29
   10386: 10 d5        	c.sw	a2, 0x28(a0)
   10388: 08 19        	c.addi4spn	a0, sp, 0xb0
   1038a: 82 95        	c.jalr	a1
   1038c: 22 85        	c.mv	a0, s0
   1038e: ca 85        	c.mv	a1, s2
   10390: ef b0 c0 29  	jal	ra, 0x1b62c <ungetc>
   10394: 63 19 55 01  	bne	a0, s5, 0x103a6 <main+0x1c8>
   10398: 4a 75        	c.ldsp	a0, 0xb0(sp)
   1039a: 0c 61        	c.ld	a1, 0x0(a0)
   1039c: 13 06 00 41  	addi	a2, zero, 0x410
   103a0: 10 d5        	c.sw	a2, 0x28(a0)
   103a2: 08 19        	c.addi4spn	a0, sp, 0xb0
   103a4: 82 95        	c.jalr	a1
   103a6: 13 05 60 04  	addi	a0, zero, 0x46
   103aa: 63 4c 85 00  	blt	a0, s0, 0x103c2 <main+0x1e4>
   103ae: e3 07 04 f2  	beq	s0, zero, 0x102dc <main+0xfe>
   103b2: 13 05 20 04  	addi	a0, zero, 0x42
   103b6: 63 12 a4 02  	bne	s0, a0, 0x103da <main+0x1fc>
   103ba: 08 19        	c.addi4spn	a0, sp, 0xb0
   103bc: ef 10 70 56  	jal	ra, 0x12122 <jinit_read_bmp>
   103c0: 0d b7        	c.j	0x102e2 <main+0x104>
   103c2: 13 05 70 04  	addi	a0, zero, 0x47
   103c6: 63 03 a4 02  	beq	s0, a0, 0x103ec <main+0x20e>
   103ca: 13 05 00 05  	addi	a0, zero, 0x50
   103ce: 63 16 a4 00  	bne	s0, a0, 0x103da <main+0x1fc>
   103d2: 08 19        	c.addi4spn	a0, sp, 0xb0
   103d4: ef 00 a0 73  	jal	ra, 0x10b0e <jinit_read_ppm>
   103d8: 29 b7        	c.j	0x102e2 <main+0x104>
   103da: 4a 75        	c.ldsp	a0, 0xb0(sp)
   103dc: 0c 61        	c.ld	a1, 0x0(a0)
   103de: 13 06 10 41  	addi	a2, zero, 0x411
   103e2: 10 d5        	c.sw	a2, 0x28(a0)
   103e4: 08 19        	c.addi4spn	a0, sp, 0xb0
   103e6: 82 95        	c.jalr	a1
   103e8: 01 44        	c.li	s0, 0x0
   103ea: ed bd        	c.j	0x102e4 <main+0x106>
   103ec: 08 19        	c.addi4spn	a0, sp, 0xb0
   103ee: ef 00 70 57  	jal	ra, 0x11164 <jinit_read_gif>
   103f2: c5 bd        	c.j	0x102e2 <main+0x104>

00000000000103f4 <parse_switches>:
   103f4: ef d2 f1 21  	jal	t0, 0x2de12 <__riscv_save_12>
   103f8: 2d 71        	c.addi16sp	sp, -0x120
   103fa: 2e 8c        	c.mv	s8, a1
   103fc: 2a 8a        	c.mv	s4, a0
   103fe: 23 b0 01 22  	sd	zero, 0x220(gp)
   10402: 08 61        	c.ld	a0, 0x0(a0)
   10404: 93 05 b0 04  	addi	a1, zero, 0x4b
   10408: 23 2e b1 10  	sw	a1, 0x11c(sp)
   1040c: 23 2e 05 06  	sw	zero, 0x7c(a0)
   10410: 09 45        	c.li	a0, 0x2
   10412: 23 84 01 22  	sb	zero, 0x228(gp)
   10416: 63 45 ac 42  	blt	s8, a0, 0x10840 <parse_switches+0x44c>
   1041a: b2 8c        	c.mv	s9, a2
   1041c: b6 e1        	c.sdsp	a3, 0xc0(sp)
   1041e: 82 e5        	c.sdsp	zero, 0xc8(sp)
   10420: 82 e9        	c.sdsp	zero, 0xd0(sp)
   10422: 82 f1        	c.sdsp	zero, 0xe0(sp)
   10424: 82 ed        	c.sdsp	zero, 0xd8(sp)
   10426: 82 f9        	c.sdsp	zero, 0xf0(sp)
   10428: 81 4b        	c.li	s7, 0x0
   1042a: 37 e5 02 00  	lui	a0, 0x2e
   1042e: 13 0d 95 4f  	addi	s10, a0, 0x4f9
   10432: 37 e5 02 00  	lui	a0, 0x2e
   10436: 93 0d 05 53  	addi	s11, a0, 0x530
   1043a: 37 e5 02 00  	lui	a0, 0x2e
   1043e: 13 09 95 53  	addi	s2, a0, 0x539
   10442: 37 e5 02 00  	lui	a0, 0x2e
   10446: 13 05 c5 54  	addi	a0, a0, 0x54c
   1044a: aa fd        	c.sdsp	a0, 0xf8(sp)
   1044c: 37 e5 02 00  	lui	a0, 0x2e
   10450: 13 05 25 55  	addi	a0, a0, 0x552
   10454: 2a ed        	c.sdsp	a0, 0x98(sp)
   10456: 37 e5 02 00  	lui	a0, 0x2e
   1045a: 13 05 95 5b  	addi	a0, a0, 0x5b9
   1045e: 2a e5        	c.sdsp	a0, 0x88(sp)
   10460: 37 e5 02 00  	lui	a0, 0x2e
   10464: 13 05 35 5c  	addi	a0, a0, 0x5c3
   10468: 2a e1        	c.sdsp	a0, 0x80(sp)
   1046a: 37 e5 02 00  	lui	a0, 0x2e
   1046e: 13 05 d5 5c  	addi	a0, a0, 0x5cd
   10472: aa fc        	c.sdsp	a0, 0x78(sp)
   10474: 37 e5 02 00  	lui	a0, 0x2e
   10478: 13 05 d5 5d  	addi	a0, a0, 0x5dd
   1047c: aa f4        	c.sdsp	a0, 0x68(sp)
   1047e: 37 e5 02 00  	lui	a0, 0x2e
   10482: 13 05 65 5e  	addi	a0, a0, 0x5e6
   10486: aa f0        	c.sdsp	a0, 0x60(sp)
   10488: 37 e5 02 00  	lui	a0, 0x2e
   1048c: 13 05 f5 5e  	addi	a0, a0, 0x5ef
   10490: aa ec        	c.sdsp	a0, 0x58(sp)
   10492: 37 e5 02 00  	lui	a0, 0x2e
   10496: 13 05 75 5f  	addi	a0, a0, 0x5f7
   1049a: aa e8        	c.sdsp	a0, 0x50(sp)
   1049c: 37 e5 02 00  	lui	a0, 0x2e
   104a0: 13 05 35 60  	addi	a0, a0, 0x603
   104a4: aa e4        	c.sdsp	a0, 0x48(sp)
   104a6: 37 e5 02 00  	lui	a0, 0x2e
   104aa: 13 05 b5 60  	addi	a0, a0, 0x60b
   104ae: 2a fc        	c.sdsp	a0, 0x38(sp)
   104b0: 37 e5 02 00  	lui	a0, 0x2e
   104b4: 13 05 25 61  	addi	a0, a0, 0x612
   104b8: 2a f8        	c.sdsp	a0, 0x30(sp)
   104ba: 37 e5 02 00  	lui	a0, 0x2e
   104be: 13 05 a5 61  	addi	a0, a0, 0x61a
   104c2: 2a f4        	c.sdsp	a0, 0x28(sp)
   104c4: 37 e5 02 00  	lui	a0, 0x2e
   104c8: 13 05 25 62  	addi	a0, a0, 0x622
   104cc: 2a f0        	c.sdsp	a0, 0x20(sp)
   104ce: 37 e5 02 00  	lui	a0, 0x2e
   104d2: 13 05 95 62  	addi	a0, a0, 0x629
   104d6: 2a ec        	c.sdsp	a0, 0x18(sp)
   104d8: 37 e5 02 00  	lui	a0, 0x2e
   104dc: 13 05 f5 62  	addi	a0, a0, 0x62f
   104e0: 2a e8        	c.sdsp	a0, 0x10(sp)
   104e2: 37 e5 02 00  	lui	a0, 0x2e
   104e6: 13 05 45 4d  	addi	a0, a0, 0x4d4
   104ea: 2a e4        	c.sdsp	a0, 0x8(sp)
   104ec: 37 f5 02 00  	lui	a0, 0x2f
   104f0: 13 05 f5 7d  	addi	a0, a0, 0x7df
   104f4: aa e0        	c.sdsp	a0, 0x40(sp)
   104f6: 37 e5 02 00  	lui	a0, 0x2e
   104fa: 13 05 75 5d  	addi	a0, a0, 0x5d7
   104fe: aa f8        	c.sdsp	a0, 0x70(sp)
   10500: 37 e5 02 00  	lui	a0, 0x2e
   10504: 13 05 a5 55  	addi	a0, a0, 0x55a
   10508: 2a f9        	c.sdsp	a0, 0xb0(sp)
   1050a: 37 e5 02 00  	lui	a0, 0x2e
   1050e: 13 05 95 58  	addi	a0, a0, 0x589
   10512: 2a f5        	c.sdsp	a0, 0xa8(sp)
   10514: 37 e5 02 00  	lui	a0, 0x2e
   10518: 13 05 65 59  	addi	a0, a0, 0x596
   1051c: 2a f1        	c.sdsp	a0, 0xa0(sp)
   1051e: 37 e5 02 00  	lui	a0, 0x2e
   10522: 13 05 d5 53  	addi	a0, a0, 0x53d
   10526: 2a e2        	c.sdsp	a0, 0x100(sp)
   10528: 37 e5 02 00  	lui	a0, 0x2e
   1052c: 13 05 15 54  	addi	a0, a0, 0x541
   10530: 2a fd        	c.sdsp	a0, 0xb8(sp)
   10532: 37 e5 02 00  	lui	a0, 0x2e
   10536: 13 05 65 54  	addi	a0, a0, 0x546
   1053a: 2a e9        	c.sdsp	a0, 0x90(sp)
   1053c: 13 05 40 06  	addi	a0, zero, 0x64
   10540: aa f5        	c.sdsp	a0, 0xe8(sp)
   10542: 93 09 d0 02  	addi	s3, zero, 0x2d
   10546: 85 44        	c.li	s1, 0x1
   10548: 13 95 34 00  	slli	a0, s1, 0x3
   1054c: 66 95        	c.add	a0, s9
   1054e: 83 3a 05 00  	ld	s5, 0x0(a0)
   10552: 03 c5 0a 00  	lbu	a0, 0x0(s5)
   10556: 63 12 35 03  	bne	a0, s3, 0x1057a <parse_switches+0x186>
   1055a: 85 0a        	c.addi	s5, 0x1
   1055c: 05 46        	c.li	a2, 0x1
   1055e: 56 85        	c.mv	a0, s5
   10560: ea 85        	c.mv	a1, s10
   10562: ef 20 50 1b  	jal	ra, 0x12f16 <keymatch>
   10566: 63 1e 05 34  	bne	a0, zero, 0x108c2 <parse_switches+0x4ce>
   1056a: 05 46        	c.li	a2, 0x1
   1056c: 56 85        	c.mv	a0, s5
   1056e: ee 85        	c.mv	a1, s11
   10570: ef 20 70 1a  	jal	ra, 0x12f16 <keymatch>
   10574: 19 c9        	c.beqz	a0, 0x1058a <parse_switches+0x196>
   10576: 85 4b        	c.li	s7, 0x1
   10578: 29 a0        	c.j	0x10582 <parse_switches+0x18e>
   1057a: 63 4e 90 2c  	blt	zero, s1, 0x10856 <parse_switches+0x462>
   1057e: 23 b0 01 22  	sd	zero, 0x220(gp)
   10582: 85 24        	c.addiw	s1, 0x1
   10584: e3 c2 84 fd  	blt	s1, s8, 0x10548 <parse_switches+0x154>
   10588: f9 a4        	c.j	0x10856 <parse_switches+0x462>
   1058a: 09 46        	c.li	a2, 0x2
   1058c: 56 85        	c.mv	a0, s5
   1058e: ca 85        	c.mv	a1, s2
   10590: ef 20 70 18  	jal	ra, 0x12f16 <keymatch>
   10594: 05 c1        	c.beqz	a0, 0x105b4 <parse_switches+0x1c0>
   10596: 85 24        	c.addiw	s1, 0x1
   10598: 63 d3 84 35  	bge	s1, s8, 0x108de <parse_switches+0x4ea>
   1059c: 13 94 34 00  	slli	s0, s1, 0x3
   105a0: 66 94        	c.add	s0, s9
   105a2: 08 60        	c.ld	a0, 0x0(s0)
   105a4: 05 46        	c.li	a2, 0x1
   105a6: 92 65        	c.ldsp	a1, 0x100(sp)
   105a8: ef 20 f0 16  	jal	ra, 0x12f16 <keymatch>
   105ac: 21 c5        	c.beqz	a0, 0x105f4 <parse_switches+0x200>
   105ae: 23 26 0a 10  	sw	zero, 0x10c(s4)
   105b2: c1 bf        	c.j	0x10582 <parse_switches+0x18e>
   105b4: 05 46        	c.li	a2, 0x1
   105b6: 56 85        	c.mv	a0, s5
   105b8: ee 75        	c.ldsp	a1, 0xf8(sp)
   105ba: ef 20 d0 15  	jal	ra, 0x12f16 <keymatch>
   105be: 19 e5        	c.bnez	a0, 0x105cc <parse_switches+0x1d8>
   105c0: 05 46        	c.li	a2, 0x1
   105c2: 56 85        	c.mv	a0, s5
   105c4: ea 65        	c.ldsp	a1, 0x98(sp)
   105c6: ef 20 10 15  	jal	ra, 0x12f16 <keymatch>
   105ca: 21 c9        	c.beqz	a0, 0x1061a <parse_switches+0x226>
   105cc: 03 c5 c1 22  	lbu	a0, 0x22c(gp)
   105d0: 01 ed        	c.bnez	a0, 0x105e8 <parse_switches+0x1f4>
   105d2: 03 b5 01 20  	ld	a0, 0x200(gp)
   105d6: 08 6d        	c.ld	a0, 0x18(a0)
   105d8: ca 75        	c.ldsp	a1, 0xb0(sp)
   105da: 2a 76        	c.ldsp	a2, 0xa8(sp)
   105dc: 8a 76        	c.ldsp	a3, 0xa0(sp)
   105de: ef a0 80 65  	jal	ra, 0x1ac36 <fprintf>
   105e2: 05 45        	c.li	a0, 0x1
   105e4: 23 86 a1 22  	sb	a0, 0x22c(gp)
   105e8: 03 35 0a 00  	ld	a0, 0x0(s4)
   105ec: 6c 5d        	c.lw	a1, 0x7c(a0)
   105ee: 85 05        	c.addi	a1, 0x1
   105f0: 6c dd        	c.sw	a1, 0x7c(a0)
   105f2: 41 bf        	c.j	0x10582 <parse_switches+0x18e>
   105f4: 08 60        	c.ld	a0, 0x0(s0)
   105f6: 09 46        	c.li	a2, 0x2
   105f8: ea 75        	c.ldsp	a1, 0xb8(sp)
   105fa: ef 20 d0 11  	jal	ra, 0x12f16 <keymatch>
   105fe: 19 c1        	c.beqz	a0, 0x10604 <parse_switches+0x210>
   10600: 05 45        	c.li	a0, 0x1
   10602: 09 a8        	c.j	0x10614 <parse_switches+0x220>
   10604: 08 60        	c.ld	a0, 0x0(s0)
   10606: 09 46        	c.li	a2, 0x2
   10608: ca 65        	c.ldsp	a1, 0x90(sp)
   1060a: ef 20 d0 10  	jal	ra, 0x12f16 <keymatch>
   1060e: 63 08 05 2c  	beq	a0, zero, 0x108de <parse_switches+0x4ea>
   10612: 09 45        	c.li	a0, 0x2
   10614: 23 26 aa 10  	sw	a0, 0x10c(s4)
   10618: ad b7        	c.j	0x10582 <parse_switches+0x18e>
   1061a: 09 46        	c.li	a2, 0x2
   1061c: 56 85        	c.mv	a0, s5
   1061e: aa 65        	c.ldsp	a1, 0x88(sp)
   10620: ef 20 70 0f  	jal	ra, 0x12f16 <keymatch>
   10624: 19 e5        	c.bnez	a0, 0x10632 <parse_switches+0x23e>
   10626: 09 46        	c.li	a2, 0x2
   10628: 56 85        	c.mv	a0, s5
   1062a: 8a 65        	c.ldsp	a1, 0x80(sp)
   1062c: ef 20 b0 0e  	jal	ra, 0x12f16 <keymatch>
   10630: 11 c5        	c.beqz	a0, 0x1063c <parse_switches+0x248>
   10632: 85 45        	c.li	a1, 0x1
   10634: 52 85        	c.mv	a0, s4
   10636: ef 30 00 09  	jal	ra, 0x136c6 <jpeg_set_colorspace>
   1063a: a1 b7        	c.j	0x10582 <parse_switches+0x18e>
   1063c: 0d 46        	c.li	a2, 0x3
   1063e: 56 85        	c.mv	a0, s5
   10640: e6 75        	c.ldsp	a1, 0x78(sp)
   10642: ef 20 50 0d  	jal	ra, 0x12f16 <keymatch>
   10646: 39 c9        	c.beqz	a0, 0x1069c <parse_switches+0x2a8>
   10648: 85 24        	c.addiw	s1, 0x1
   1064a: 13 05 80 07  	addi	a0, zero, 0x78
   1064e: a3 07 a1 10  	sb	a0, 0x10f(sp)
   10652: 63 d6 84 29  	bge	s1, s8, 0x108de <parse_switches+0x4ea>
   10656: 13 95 34 00  	slli	a0, s1, 0x3
   1065a: 66 95        	c.add	a0, s9
   1065c: 08 61        	c.ld	a0, 0x0(a0)
   1065e: 10 0a        	c.addi4spn	a2, sp, 0x110
   10660: 93 06 f1 10  	addi	a3, sp, 0x10f
   10664: c6 75        	c.ldsp	a1, 0x70(sp)
   10666: ef a0 b0 46  	jal	ra, 0x1b2d0 <sscanf>
   1066a: 63 5a a0 26  	bge	zero, a0, 0x108de <parse_switches+0x4ea>
   1066e: 03 45 f1 10  	lbu	a0, 0x10f(sp)
   10672: d2 6a        	c.ldsp	s5, 0x110(sp)
   10674: 13 74 f5 0d  	andi	s0, a0, 0xdf
   10678: 93 05 80 3e  	addi	a1, zero, 0x3e8
   1067c: 56 85        	c.mv	a0, s5
   1067e: ef d0 b1 00  	jal	ra, 0x2de88 <__muldi3>
   10682: 93 05 d0 04  	addi	a1, zero, 0x4d
   10686: 63 03 b4 00  	beq	s0, a1, 0x1068c <parse_switches+0x298>
   1068a: 56 85        	c.mv	a0, s5
   1068c: 93 05 80 3e  	addi	a1, zero, 0x3e8
   10690: ef d0 81 7f  	jal	ra, 0x2de88 <__muldi3>
   10694: 83 35 8a 00  	ld	a1, 0x8(s4)
   10698: a8 ed        	c.sd	a0, 0x58(a1)
   1069a: e5 b5        	c.j	0x10582 <parse_switches+0x18e>
   1069c: 05 46        	c.li	a2, 0x1
   1069e: 56 85        	c.mv	a0, s5
   106a0: a6 75        	c.ldsp	a1, 0x68(sp)
   106a2: ef 20 50 07  	jal	ra, 0x12f16 <keymatch>
   106a6: 19 e5        	c.bnez	a0, 0x106b4 <parse_switches+0x2c0>
   106a8: 05 46        	c.li	a2, 0x1
   106aa: 56 85        	c.mv	a0, s5
   106ac: 86 75        	c.ldsp	a1, 0x60(sp)
   106ae: ef 20 90 06  	jal	ra, 0x12f16 <keymatch>
   106b2: 09 c5        	c.beqz	a0, 0x106bc <parse_switches+0x2c8>
   106b4: 05 45        	c.li	a0, 0x1
   106b6: 23 20 aa 10  	sw	a0, 0x100(s4)
   106ba: e1 b5        	c.j	0x10582 <parse_switches+0x18e>
   106bc: 11 46        	c.li	a2, 0x4
   106be: 56 85        	c.mv	a0, s5
   106c0: e6 65        	c.ldsp	a1, 0x58(sp)
   106c2: ef 20 50 05  	jal	ra, 0x12f16 <keymatch>
   106c6: 19 c9        	c.beqz	a0, 0x106dc <parse_switches+0x2e8>
   106c8: 85 24        	c.addiw	s1, 0x1
   106ca: 63 da 84 21  	bge	s1, s8, 0x108de <parse_switches+0x4ea>
   106ce: 13 95 34 00  	slli	a0, s1, 0x3
   106d2: 66 95        	c.add	a0, s9
   106d4: 08 61        	c.ld	a0, 0x0(a0)
   106d6: 23 b0 a1 22  	sd	a0, 0x220(gp)
   106da: 65 b5        	c.j	0x10582 <parse_switches+0x18e>
   106dc: 05 46        	c.li	a2, 0x1
   106de: 56 85        	c.mv	a0, s5
   106e0: c6 65        	c.ldsp	a1, 0x50(sp)
   106e2: ef 20 50 03  	jal	ra, 0x12f16 <keymatch>
   106e6: 01 c5        	c.beqz	a0, 0x106ee <parse_switches+0x2fa>
   106e8: 05 45        	c.li	a0, 0x1
   106ea: aa f9        	c.sdsp	a0, 0xf0(sp)
   106ec: 59 bd        	c.j	0x10582 <parse_switches+0x18e>
   106ee: 05 46        	c.li	a2, 0x1
   106f0: 56 85        	c.mv	a0, s5
   106f2: a6 65        	c.ldsp	a1, 0x48(sp)
   106f4: ef 20 30 02  	jal	ra, 0x12f16 <keymatch>
   106f8: 0d c5        	c.beqz	a0, 0x10722 <parse_switches+0x32e>
   106fa: 85 24        	c.addiw	s1, 0x1
   106fc: 63 d1 84 1f  	bge	s1, s8, 0x108de <parse_switches+0x4ea>
   10700: 13 95 34 00  	slli	a0, s1, 0x3
   10704: 66 95        	c.add	a0, s9
   10706: 08 61        	c.ld	a0, 0x0(a0)
   10708: 70 0a        	c.addi4spn	a2, sp, 0x11c
   1070a: 86 65        	c.ldsp	a1, 0x40(sp)
   1070c: ef a0 50 3c  	jal	ra, 0x1b2d0 <sscanf>
   10710: 85 45        	c.li	a1, 0x1
   10712: 63 16 b5 1c  	bne	a0, a1, 0x108de <parse_switches+0x4ea>
   10716: 03 25 c1 11  	lw	a0, 0x11c(sp)
   1071a: ef 20 50 51  	jal	ra, 0x1342e <jpeg_quality_scaling>
   1071e: aa f5        	c.sdsp	a0, 0xe8(sp)
   10720: 8d b5        	c.j	0x10582 <parse_switches+0x18e>
   10722: 09 46        	c.li	a2, 0x2
   10724: 56 85        	c.mv	a0, s5
   10726: e2 75        	c.ldsp	a1, 0x38(sp)
   10728: ef 20 e0 7e  	jal	ra, 0x12f16 <keymatch>
   1072c: 11 c9        	c.beqz	a0, 0x10740 <parse_switches+0x34c>
   1072e: 85 24        	c.addiw	s1, 0x1
   10730: 63 d7 84 1b  	bge	s1, s8, 0x108de <parse_switches+0x4ea>
   10734: 13 95 34 00  	slli	a0, s1, 0x3
   10738: 66 95        	c.add	a0, s9
   1073a: 08 61        	c.ld	a0, 0x0(a0)
   1073c: aa f1        	c.sdsp	a0, 0xe0(sp)
   1073e: 91 b5        	c.j	0x10582 <parse_switches+0x18e>
   10740: 09 46        	c.li	a2, 0x2
   10742: 56 85        	c.mv	a0, s5
   10744: c2 75        	c.ldsp	a1, 0x30(sp)
   10746: ef 20 00 7d  	jal	ra, 0x12f16 <keymatch>
   1074a: 11 c9        	c.beqz	a0, 0x1075e <parse_switches+0x36a>
   1074c: 85 24        	c.addiw	s1, 0x1
   1074e: 63 d8 84 19  	bge	s1, s8, 0x108de <parse_switches+0x4ea>
   10752: 13 95 34 00  	slli	a0, s1, 0x3
   10756: 66 95        	c.add	a0, s9
   10758: 08 61        	c.ld	a0, 0x0(a0)
   1075a: aa ed        	c.sdsp	a0, 0xd8(sp)
   1075c: 1d b5        	c.j	0x10582 <parse_switches+0x18e>
   1075e: 05 46        	c.li	a2, 0x1
   10760: 56 85        	c.mv	a0, s5
   10762: a2 75        	c.ldsp	a1, 0x28(sp)
   10764: ef 20 20 7b  	jal	ra, 0x12f16 <keymatch>
   10768: 39 c5        	c.beqz	a0, 0x107b6 <parse_switches+0x3c2>
   1076a: 85 24        	c.addiw	s1, 0x1
   1076c: 13 05 80 07  	addi	a0, zero, 0x78
   10770: a3 07 a1 10  	sb	a0, 0x10f(sp)
   10774: 63 d5 84 17  	bge	s1, s8, 0x108de <parse_switches+0x4ea>
   10778: 13 95 34 00  	slli	a0, s1, 0x3
   1077c: 66 95        	c.add	a0, s9
   1077e: 08 61        	c.ld	a0, 0x0(a0)
   10780: 10 0a        	c.addi4spn	a2, sp, 0x110
   10782: 93 06 f1 10  	addi	a3, sp, 0x10f
   10786: c6 75        	c.ldsp	a1, 0x70(sp)
   10788: ef a0 90 34  	jal	ra, 0x1b2d0 <sscanf>
   1078c: 63 59 a0 14  	bge	zero, a0, 0x108de <parse_switches+0x4ea>
   10790: 52 65        	c.ldsp	a0, 0x110(sp)
   10792: 93 55 05 01  	srli	a1, a0, 0x10
   10796: 63 94 05 14  	bne	a1, zero, 0x108de <parse_switches+0x4ea>
   1079a: 83 45 f1 10  	lbu	a1, 0x10f(sp)
   1079e: 93 f5 f5 0d  	andi	a1, a1, 0xdf
   107a2: 13 06 20 04  	addi	a2, zero, 0x42
   107a6: 63 95 c5 00  	bne	a1, a2, 0x107b0 <parse_switches+0x3bc>
   107aa: 23 28 aa 10  	sw	a0, 0x110(s4)
   107ae: 01 45        	c.li	a0, 0x0
   107b0: 23 2a aa 10  	sw	a0, 0x114(s4)
   107b4: f9 b3        	c.j	0x10582 <parse_switches+0x18e>
   107b6: 09 46        	c.li	a2, 0x2
   107b8: 56 85        	c.mv	a0, s5
   107ba: 82 75        	c.ldsp	a1, 0x20(sp)
   107bc: ef 20 a0 75  	jal	ra, 0x12f16 <keymatch>
   107c0: 11 c9        	c.beqz	a0, 0x107d4 <parse_switches+0x3e0>
   107c2: 85 24        	c.addiw	s1, 0x1
   107c4: 63 dd 84 11  	bge	s1, s8, 0x108de <parse_switches+0x4ea>
   107c8: 13 95 34 00  	slli	a0, s1, 0x3
   107cc: 66 95        	c.add	a0, s9
   107ce: 08 61        	c.ld	a0, 0x0(a0)
   107d0: aa e9        	c.sdsp	a0, 0xd0(sp)
   107d2: 45 bb        	c.j	0x10582 <parse_switches+0x18e>
   107d4: 09 46        	c.li	a2, 0x2
   107d6: 56 85        	c.mv	a0, s5
   107d8: e2 65        	c.ldsp	a1, 0x18(sp)
   107da: ef 20 c0 73  	jal	ra, 0x12f16 <keymatch>
   107de: 11 c9        	c.beqz	a0, 0x107f2 <parse_switches+0x3fe>
   107e0: 85 24        	c.addiw	s1, 0x1
   107e2: 63 de 84 0f  	bge	s1, s8, 0x108de <parse_switches+0x4ea>
   107e6: 13 95 34 00  	slli	a0, s1, 0x3
   107ea: 66 95        	c.add	a0, s9
   107ec: 08 61        	c.ld	a0, 0x0(a0)
   107ee: aa e5        	c.sdsp	a0, 0xc8(sp)
   107f0: 49 bb        	c.j	0x10582 <parse_switches+0x18e>
   107f2: 09 46        	c.li	a2, 0x2
   107f4: 56 85        	c.mv	a0, s5
   107f6: c2 65        	c.ldsp	a1, 0x10(sp)
   107f8: ef 20 e0 71  	jal	ra, 0x12f16 <keymatch>
   107fc: 05 c9        	c.beqz	a0, 0x1082c <parse_switches+0x438>
   107fe: 85 24        	c.addiw	s1, 0x1
   10800: 63 df 84 0d  	bge	s1, s8, 0x108de <parse_switches+0x4ea>
   10804: 13 95 34 00  	slli	a0, s1, 0x3
   10808: 66 95        	c.add	a0, s9
   1080a: 08 61        	c.ld	a0, 0x0(a0)
   1080c: 10 0a        	c.addi4spn	a2, sp, 0x110
   1080e: 86 65        	c.ldsp	a1, 0x40(sp)
   10810: ef a0 10 2c  	jal	ra, 0x1b2d0 <sscanf>
   10814: 85 45        	c.li	a1, 0x1
   10816: 63 14 b5 0c  	bne	a0, a1, 0x108de <parse_switches+0x4ea>
   1081a: 03 25 01 11  	lw	a0, 0x110(sp)
   1081e: 93 05 50 06  	addi	a1, zero, 0x65
   10822: 63 7e b5 0a  	bgeu	a0, a1, 0x108de <parse_switches+0x4ea>
   10826: 23 24 aa 10  	sw	a0, 0x108(s4)
   1082a: a1 bb        	c.j	0x10582 <parse_switches+0x18e>
   1082c: 05 46        	c.li	a2, 0x1
   1082e: 56 85        	c.mv	a0, s5
   10830: a2 65        	c.ldsp	a1, 0x8(sp)
   10832: ef 20 40 6e  	jal	ra, 0x12f16 <keymatch>
   10836: 45 c5        	c.beqz	a0, 0x108de <parse_switches+0x4ea>
   10838: 85 45        	c.li	a1, 0x1
   1083a: 23 84 b1 22  	sb	a1, 0x228(gp)
   1083e: 91 b3        	c.j	0x10582 <parse_switches+0x18e>
   10840: 81 4b        	c.li	s7, 0x0
   10842: 01 44        	c.li	s0, 0x0
   10844: 01 4b        	c.li	s6, 0x0
   10846: 81 4a        	c.li	s5, 0x0
   10848: 81 49        	c.li	s3, 0x0
   1084a: 85 44        	c.li	s1, 0x1
   1084c: 13 0c 40 06  	addi	s8, zero, 0x64
   10850: 05 49        	c.li	s2, 0x1
   10852: 81 ee        	c.bnez	a3, 0x1086a <parse_switches+0x476>
   10854: 9d a0        	c.j	0x108ba <parse_switches+0x4c6>
   10856: 4e 75        	c.ldsp	a0, 0xf0(sp)
   10858: 13 39 15 00  	sltiu	s2, a0, 0x1
   1085c: 8e 66        	c.ldsp	a3, 0xc0(sp)
   1085e: ae 69        	c.ldsp	s3, 0xc8(sp)
   10860: ce 6a        	c.ldsp	s5, 0xd0(sp)
   10862: 0e 7b        	c.ldsp	s6, 0xe0(sp)
   10864: 6e 64        	c.ldsp	s0, 0xd8(sp)
   10866: 2e 7c        	c.ldsp	s8, 0xe8(sp)
   10868: a9 ca        	c.beqz	a3, 0x108ba <parse_switches+0x4c6>
   1086a: 83 25 c1 11  	lw	a1, 0x11c(sp)
   1086e: 52 85        	c.mv	a0, s4
   10870: 5e 86        	c.mv	a2, s7
   10872: ef 20 b0 3f  	jal	ra, 0x1346c <jpeg_set_quality>
   10876: 01 c8        	c.beqz	s0, 0x10886 <parse_switches+0x492>
   10878: 52 85        	c.mv	a0, s4
   1087a: a2 85        	c.mv	a1, s0
   1087c: 62 86        	c.mv	a2, s8
   1087e: de 86        	c.mv	a3, s7
   10880: ef 20 a0 0c  	jal	ra, 0x1294a <read_quant_tables>
   10884: 29 cd        	c.beqz	a0, 0x108de <parse_switches+0x4ea>
   10886: 63 07 0b 00  	beq	s6, zero, 0x10894 <parse_switches+0x4a0>
   1088a: 52 85        	c.mv	a0, s4
   1088c: da 85        	c.mv	a1, s6
   1088e: ef 20 e0 4d  	jal	ra, 0x12d6c <set_quant_slots>
   10892: 31 c5        	c.beqz	a0, 0x108de <parse_switches+0x4ea>
   10894: 63 87 0a 00  	beq	s5, zero, 0x108a2 <parse_switches+0x4ae>
   10898: 52 85        	c.mv	a0, s4
   1089a: d6 85        	c.mv	a1, s5
   1089c: ef 20 80 57  	jal	ra, 0x12e14 <set_sample_factors>
   108a0: 1d cd        	c.beqz	a0, 0x108de <parse_switches+0x4ea>
   108a2: 63 15 09 00  	bne	s2, zero, 0x108ac <parse_switches+0x4b8>
   108a6: 52 85        	c.mv	a0, s4
   108a8: ef 30 20 02  	jal	ra, 0x138ca <jpeg_simple_progression>
   108ac: 63 87 09 00  	beq	s3, zero, 0x108ba <parse_switches+0x4c6>
   108b0: 52 85        	c.mv	a0, s4
   108b2: ce 85        	c.mv	a1, s3
   108b4: ef 20 20 20  	jal	ra, 0x12ab6 <read_scan_script>
   108b8: 1d c1        	c.beqz	a0, 0x108de <parse_switches+0x4ea>
   108ba: 26 85        	c.mv	a0, s1
   108bc: 15 61        	c.addi16sp	sp, 0x120
   108be: 6f d0 e1 59  	jal	zero, 0x2de5c <__riscv_restore_12>
   108c2: 03 b5 01 20  	ld	a0, 0x200(gp)
   108c6: 08 6d        	c.ld	a0, 0x18(a0)
   108c8: 03 b6 81 21  	ld	a2, 0x218(gp)
   108cc: b7 e5 02 00  	lui	a1, 0x2e
   108d0: 93 85 45 50  	addi	a1, a1, 0x504
   108d4: ef a0 20 36  	jal	ra, 0x1ac36 <fprintf>
   108d8: 05 45        	c.li	a0, 0x1
   108da: ef f0 7f 84  	jal	ra, 0x10120 <exit>
   108de: ef 00 40 00  	jal	ra, 0x108e2 <usage>

00000000000108e2 <usage>:
   108e2: ef d2 01 56  	jal	t0, 0x2de42 <__riscv_save_3>
   108e6: 03 b5 01 20  	ld	a0, 0x200(gp)
   108ea: 08 6d        	c.ld	a0, 0x18(a0)
   108ec: 03 b6 81 21  	ld	a2, 0x218(gp)
   108f0: b7 e5 02 00  	lui	a1, 0x2e
   108f4: 93 85 65 63  	addi	a1, a1, 0x636
   108f8: ef a0 e0 33  	jal	ra, 0x1ac36 <fprintf>
   108fc: 03 b5 01 20  	ld	a0, 0x200(gp)
   10900: 14 6d        	c.ld	a3, 0x18(a0)
   10902: 37 e5 02 00  	lui	a0, 0x2e
   10906: 13 05 c5 64  	addi	a0, a0, 0x64c
   1090a: b1 45        	c.li	a1, 0xc
   1090c: 05 46        	c.li	a2, 0x1
   1090e: ef a0 a0 62  	jal	ra, 0x1af38 <fwrite>
   10912: 03 b5 01 20  	ld	a0, 0x200(gp)
   10916: 14 6d        	c.ld	a3, 0x18(a0)
   10918: 37 e5 02 00  	lui	a0, 0x2e
   1091c: 13 05 95 65  	addi	a0, a0, 0x659
   10920: 93 05 50 02  	addi	a1, zero, 0x25
   10924: 05 46        	c.li	a2, 0x1
   10926: ef a0 20 61  	jal	ra, 0x1af38 <fwrite>
   1092a: 03 b5 01 20  	ld	a0, 0x200(gp)
   1092e: 14 6d        	c.ld	a3, 0x18(a0)
   10930: 37 e5 02 00  	lui	a0, 0x2e
   10934: 13 05 f5 67  	addi	a0, a0, 0x67f
   10938: 93 05 40 04  	addi	a1, zero, 0x44
   1093c: 05 46        	c.li	a2, 0x1
   1093e: ef a0 a0 5f  	jal	ra, 0x1af38 <fwrite>
   10942: 03 b5 01 20  	ld	a0, 0x200(gp)
   10946: 14 6d        	c.ld	a3, 0x18(a0)
   10948: 37 e5 02 00  	lui	a0, 0x2e
   1094c: 13 05 45 6c  	addi	a0, a0, 0x6c4
   10950: 93 05 d0 02  	addi	a1, zero, 0x2d
   10954: 05 46        	c.li	a2, 0x1
   10956: ef a0 20 5e  	jal	ra, 0x1af38 <fwrite>
   1095a: 03 b5 01 20  	ld	a0, 0x200(gp)
   1095e: 14 6d        	c.ld	a3, 0x18(a0)
   10960: 37 e5 02 00  	lui	a0, 0x2e
   10964: 13 05 25 6f  	addi	a0, a0, 0x6f2
   10968: 93 05 d0 04  	addi	a1, zero, 0x4d
   1096c: 05 46        	c.li	a2, 0x1
   1096e: ef a0 a0 5c  	jal	ra, 0x1af38 <fwrite>
   10972: 03 b5 01 20  	ld	a0, 0x200(gp)
   10976: 14 6d        	c.ld	a3, 0x18(a0)
   10978: 37 e5 02 00  	lui	a0, 0x2e
   1097c: 13 05 05 74  	addi	a0, a0, 0x740
   10980: 93 05 e0 02  	addi	a1, zero, 0x2e
   10984: 05 46        	c.li	a2, 0x1
   10986: ef a0 20 5b  	jal	ra, 0x1af38 <fwrite>
   1098a: 03 b5 01 20  	ld	a0, 0x200(gp)
   1098e: 14 6d        	c.ld	a3, 0x18(a0)
   10990: 37 e5 02 00  	lui	a0, 0x2e
   10994: 13 05 f5 76  	addi	a0, a0, 0x76f
   10998: 93 05 10 04  	addi	a1, zero, 0x41
   1099c: 05 46        	c.li	a2, 0x1
   1099e: ef a0 a0 59  	jal	ra, 0x1af38 <fwrite>
   109a2: 03 b5 01 20  	ld	a0, 0x200(gp)
   109a6: 14 6d        	c.ld	a3, 0x18(a0)
   109a8: 37 e5 02 00  	lui	a0, 0x2e
   109ac: 13 05 15 7b  	addi	a0, a0, 0x7b1
   109b0: f5 45        	c.li	a1, 0x1d
   109b2: 05 46        	c.li	a2, 0x1
   109b4: ef a0 40 58  	jal	ra, 0x1af38 <fwrite>
   109b8: 03 b5 01 20  	ld	a0, 0x200(gp)
   109bc: 08 6d        	c.ld	a0, 0x18(a0)
   109be: b7 e5 02 00  	lui	a1, 0x2e
   109c2: 93 85 f5 7c  	addi	a1, a1, 0x7cf
   109c6: 37 e6 02 00  	lui	a2, 0x2e
   109ca: 13 06 a6 7f  	addi	a2, a2, 0x7fa
   109ce: ef a0 80 26  	jal	ra, 0x1ac36 <fprintf>
   109d2: 03 b5 01 20  	ld	a0, 0x200(gp)
   109d6: 08 6d        	c.ld	a0, 0x18(a0)
   109d8: b7 f5 02 00  	lui	a1, 0x2f
   109dc: 93 85 55 80  	addi	a1, a1, -0x7fb
   109e0: 37 e6 02 00  	lui	a2, 0x2e
   109e4: 13 04 06 7b  	addi	s0, a2, 0x7b0
   109e8: 22 86        	c.mv	a2, s0
   109ea: ef a0 c0 24  	jal	ra, 0x1ac36 <fprintf>
   109ee: 03 b5 01 20  	ld	a0, 0x200(gp)
   109f2: 08 6d        	c.ld	a0, 0x18(a0)
   109f4: b7 f5 02 00  	lui	a1, 0x2f
   109f8: 93 85 e5 83  	addi	a1, a1, -0x7c2
   109fc: 22 86        	c.mv	a2, s0
   109fe: ef a0 80 23  	jal	ra, 0x1ac36 <fprintf>
   10a02: 03 b5 01 20  	ld	a0, 0x200(gp)
   10a06: 14 6d        	c.ld	a3, 0x18(a0)
   10a08: 37 f5 02 00  	lui	a0, 0x2f
   10a0c: 13 05 05 87  	addi	a0, a0, -0x790
   10a10: 93 05 30 04  	addi	a1, zero, 0x43
   10a14: 05 46        	c.li	a2, 0x1
   10a16: ef a0 20 52  	jal	ra, 0x1af38 <fwrite>
   10a1a: 03 b5 01 20  	ld	a0, 0x200(gp)
   10a1e: 14 6d        	c.ld	a3, 0x18(a0)
   10a20: 37 f5 02 00  	lui	a0, 0x2f
   10a24: 13 05 45 8b  	addi	a0, a0, -0x74c
   10a28: 93 05 e0 03  	addi	a1, zero, 0x3e
   10a2c: 05 46        	c.li	a2, 0x1
   10a2e: ef a0 a0 50  	jal	ra, 0x1af38 <fwrite>
   10a32: 03 b5 01 20  	ld	a0, 0x200(gp)
   10a36: 14 6d        	c.ld	a3, 0x18(a0)
   10a38: 37 f5 02 00  	lui	a0, 0x2f
   10a3c: 13 05 35 8f  	addi	a0, a0, -0x70d
   10a40: 93 05 30 03  	addi	a1, zero, 0x33
   10a44: 05 46        	c.li	a2, 0x1
   10a46: ef a0 20 4f  	jal	ra, 0x1af38 <fwrite>
   10a4a: 03 b5 01 20  	ld	a0, 0x200(gp)
   10a4e: 14 6d        	c.ld	a3, 0x18(a0)
   10a50: 37 f5 02 00  	lui	a0, 0x2f
   10a54: 13 05 75 92  	addi	a0, a0, -0x6d9
   10a58: 93 05 e0 02  	addi	a1, zero, 0x2e
   10a5c: 05 46        	c.li	a2, 0x1
   10a5e: ef a0 a0 4d  	jal	ra, 0x1af38 <fwrite>
   10a62: 03 b5 01 20  	ld	a0, 0x200(gp)
   10a66: 14 6d        	c.ld	a3, 0x18(a0)
   10a68: 37 f5 02 00  	lui	a0, 0x2f
   10a6c: 13 05 65 95  	addi	a0, a0, -0x6aa
   10a70: 93 05 b0 02  	addi	a1, zero, 0x2b
   10a74: 05 46        	c.li	a2, 0x1
   10a76: ef a0 20 4c  	jal	ra, 0x1af38 <fwrite>
   10a7a: 03 b5 01 20  	ld	a0, 0x200(gp)
   10a7e: 14 6d        	c.ld	a3, 0x18(a0)
   10a80: 37 f5 02 00  	lui	a0, 0x2f
   10a84: 13 05 25 98  	addi	a0, a0, -0x67e
   10a88: d9 45        	c.li	a1, 0x16
   10a8a: 05 46        	c.li	a2, 0x1
   10a8c: ef a0 c0 4a  	jal	ra, 0x1af38 <fwrite>
   10a90: 03 b5 01 20  	ld	a0, 0x200(gp)
   10a94: 14 6d        	c.ld	a3, 0x18(a0)
   10a96: 37 f5 02 00  	lui	a0, 0x2f
   10a9a: 13 05 95 99  	addi	a0, a0, -0x667
   10a9e: 93 05 70 02  	addi	a1, zero, 0x27
   10aa2: 05 46        	c.li	a2, 0x1
   10aa4: ef a0 40 49  	jal	ra, 0x1af38 <fwrite>
   10aa8: 03 b5 01 20  	ld	a0, 0x200(gp)
   10aac: 14 6d        	c.ld	a3, 0x18(a0)
   10aae: 37 f5 02 00  	lui	a0, 0x2f
   10ab2: 13 05 15 9c  	addi	a0, a0, -0x63f
   10ab6: 93 05 70 03  	addi	a1, zero, 0x37
   10aba: 05 46        	c.li	a2, 0x1
   10abc: ef a0 c0 47  	jal	ra, 0x1af38 <fwrite>
   10ac0: 03 b5 01 20  	ld	a0, 0x200(gp)
   10ac4: 14 6d        	c.ld	a3, 0x18(a0)
   10ac6: 37 f5 02 00  	lui	a0, 0x2f
   10aca: 13 05 95 9f  	addi	a0, a0, -0x607
   10ace: 93 05 70 03  	addi	a1, zero, 0x37
   10ad2: 05 46        	c.li	a2, 0x1
   10ad4: ef a0 40 46  	jal	ra, 0x1af38 <fwrite>
   10ad8: 03 b5 01 20  	ld	a0, 0x200(gp)
   10adc: 14 6d        	c.ld	a3, 0x18(a0)
   10ade: 37 f5 02 00  	lui	a0, 0x2f
   10ae2: 13 05 15 a3  	addi	a0, a0, -0x5cf
   10ae6: 93 05 40 03  	addi	a1, zero, 0x34
   10aea: 05 46        	c.li	a2, 0x1
   10aec: ef a0 c0 44  	jal	ra, 0x1af38 <fwrite>
   10af0: 03 b5 01 20  	ld	a0, 0x200(gp)
   10af4: 14 6d        	c.ld	a3, 0x18(a0)
   10af6: 37 f5 02 00  	lui	a0, 0x2f
   10afa: 13 05 65 a6  	addi	a0, a0, -0x59a
   10afe: 93 05 80 03  	addi	a1, zero, 0x38
   10b02: 05 46        	c.li	a2, 0x1
   10b04: ef a0 40 43  	jal	ra, 0x1af38 <fwrite>
   10b08: 05 45        	c.li	a0, 0x1
   10b0a: ef f0 6f e1  	jal	ra, 0x10120 <exit>

0000000000010b0e <jinit_read_ppm>:
   10b0e: ef d2 61 34  	jal	t0, 0x2de54 <__riscv_save_1>
   10b12: 0c 65        	c.ld	a1, 0x8(a0)
   10b14: 94 61        	c.ld	a3, 0x0(a1)
   10b16: 85 45        	c.li	a1, 0x1
   10b18: 13 06 00 05  	addi	a2, zero, 0x50
   10b1c: 82 96        	c.jalr	a3
   10b1e: b7 15 01 00  	lui	a1, 0x11
   10b22: 93 85 65 b3  	addi	a1, a1, -0x4ca
   10b26: 0c e1        	c.sd	a1, 0x0(a0)
   10b28: b7 15 01 00  	lui	a1, 0x11
   10b2c: 93 85 05 dc  	addi	a1, a1, -0x240
   10b30: 0c e9        	c.sd	a1, 0x10(a0)
   10b32: 6f d0 c1 34  	jal	zero, 0x2de7e <__riscv_restore_1>

0000000000010b36 <start_input_ppm>:
   10b36: ef d2 e1 2e  	jal	t0, 0x2de24 <__riscv_save_9>
   10b3a: ae 8b        	c.mv	s7, a1
   10b3c: 8c 6d        	c.ld	a1, 0x18(a1)
   10b3e: 2a 8b        	c.mv	s6, a0
   10b40: 2e 85        	c.mv	a0, a1
   10b42: ef a0 c0 4b  	jal	ra, 0x1affe <getc>
   10b46: 93 05 00 05  	addi	a1, zero, 0x50
   10b4a: 63 0a b5 00  	beq	a0, a1, 0x10b5e <start_input_ppm+0x28>
   10b4e: 03 35 0b 00  	ld	a0, 0x0(s6)
   10b52: 0c 61        	c.ld	a1, 0x0(a0)
   10b54: 13 06 30 40  	addi	a2, zero, 0x403
   10b58: 10 d5        	c.sw	a2, 0x28(a0)
   10b5a: 5a 85        	c.mv	a0, s6
   10b5c: 82 95        	c.jalr	a1
   10b5e: 03 b5 8b 01  	ld	a0, 0x18(s7)
   10b62: ef a0 c0 49  	jal	ra, 0x1affe <getc>
   10b66: 83 b5 8b 01  	ld	a1, 0x18(s7)
   10b6a: aa 8a        	c.mv	s5, a0
   10b6c: 5a 85        	c.mv	a0, s6
   10b6e: ef 00 40 25  	jal	ra, 0x10dc2 <read_pbm_integer>
   10b72: 83 b5 8b 01  	ld	a1, 0x18(s7)
   10b76: aa 89        	c.mv	s3, a0
   10b78: 5a 85        	c.mv	a0, s6
   10b7a: ef 00 80 24  	jal	ra, 0x10dc2 <read_pbm_integer>
   10b7e: 83 b5 8b 01  	ld	a1, 0x18(s7)
   10b82: 2a 8a        	c.mv	s4, a0
   10b84: 5a 85        	c.mv	a0, s6
   10b86: ef 00 c0 23  	jal	ra, 0x10dc2 <read_pbm_integer>
   10b8a: 2a 89        	c.mv	s2, a0
   10b8c: 63 86 09 00  	beq	s3, zero, 0x10b98 <start_input_ppm+0x62>
   10b90: 63 04 0a 00  	beq	s4, zero, 0x10b98 <start_input_ppm+0x62>
   10b94: 63 1a 09 00  	bne	s2, zero, 0x10ba8 <start_input_ppm+0x72>
   10b98: 03 35 0b 00  	ld	a0, 0x0(s6)
   10b9c: 0c 61        	c.ld	a1, 0x0(a0)
   10b9e: 13 06 30 40  	addi	a2, zero, 0x403
   10ba2: 10 d5        	c.sw	a2, 0x28(a0)
   10ba4: 5a 85        	c.mv	a0, s6
   10ba6: 82 95        	c.jalr	a1
   10ba8: 21 45        	c.li	a0, 0x8
   10baa: 23 20 ab 04  	sw	a0, 0x40(s6)
   10bae: 23 24 3b 03  	sw	s3, 0x28(s6)
   10bb2: 13 05 40 03  	addi	a0, zero, 0x34
   10bb6: 23 26 4b 03  	sw	s4, 0x2c(s6)
   10bba: 63 43 55 03  	blt	a0, s5, 0x10be0 <start_input_ppm+0xaa>
   10bbe: 13 05 20 03  	addi	a0, zero, 0x32
   10bc2: 63 82 aa 08  	beq	s5, a0, 0x10c46 <start_input_ppm+0x110>
   10bc6: 13 05 30 03  	addi	a0, zero, 0x33
   10bca: 63 94 aa 06  	bne	s5, a0, 0x10c32 <start_input_ppm+0xfc>
   10bce: 37 15 01 00  	lui	a0, 0x11
   10bd2: 13 04 a5 e9  	addi	s0, a0, -0x166
   10bd6: 13 05 70 40  	addi	a0, zero, 0x407
   10bda: 09 46        	c.li	a2, 0x2
   10bdc: 8d 45        	c.li	a1, 0x3
   10bde: a5 a8        	c.j	0x10c56 <start_input_ppm+0x120>
   10be0: 13 05 50 03  	addi	a0, zero, 0x35
   10be4: 63 80 aa 0a  	beq	s5, a0, 0x10c84 <start_input_ppm+0x14e>
   10be8: 13 05 60 03  	addi	a0, zero, 0x36
   10bec: 63 93 aa 04  	bne	s5, a0, 0x10c32 <start_input_ppm+0xfc>
   10bf0: 85 4a        	c.li	s5, 0x1
   10bf2: 03 35 0b 00  	ld	a0, 0x0(s6)
   10bf6: 93 95 1a 02  	slli	a1, s5, 0x21
   10bfa: 8d 05        	c.addi	a1, 0x3
   10bfc: 23 38 bb 02  	sd	a1, 0x30(s6)
   10c00: 23 26 35 03  	sw	s3, 0x2c(a0)
   10c04: 83 35 0b 00  	ld	a1, 0x0(s6)
   10c08: 13 06 60 40  	addi	a2, zero, 0x406
   10c0c: 10 d5        	c.sw	a2, 0x28(a0)
   10c0e: 23 a8 45 03  	sw	s4, 0x30(a1)
   10c12: 03 35 0b 00  	ld	a0, 0x0(s6)
   10c16: 10 65        	c.ld	a2, 0x8(a0)
   10c18: 85 45        	c.li	a1, 0x1
   10c1a: 5a 85        	c.mv	a0, s6
   10c1c: 02 96        	c.jalr	a2
   10c1e: 13 05 00 10  	addi	a0, zero, 0x100
   10c22: 63 64 a9 0a  	bltu	s2, a0, 0x10cca <start_input_ppm+0x194>
   10c26: 01 4a        	c.li	s4, 0x0
   10c28: 37 15 01 00  	lui	a0, 0x11
   10c2c: 13 05 65 01  	addi	a0, a0, 0x16
   10c30: 51 a8        	c.j	0x10cc4 <start_input_ppm+0x18e>
   10c32: 03 35 0b 00  	ld	a0, 0x0(s6)
   10c36: 0c 61        	c.ld	a1, 0x0(a0)
   10c38: 13 06 30 40  	addi	a2, zero, 0x403
   10c3c: 10 d5        	c.sw	a2, 0x28(a0)
   10c3e: 5a 85        	c.mv	a0, s6
   10c40: 82 95        	c.jalr	a1
   10c42: 01 4a        	c.li	s4, 0x0
   10c44: c9 a0        	c.j	0x10d06 <start_input_ppm+0x1d0>
   10c46: 37 15 01 00  	lui	a0, 0x11
   10c4a: 13 04 25 e5  	addi	s0, a0, -0x1ae
   10c4e: 13 05 50 40  	addi	a0, zero, 0x405
   10c52: 85 45        	c.li	a1, 0x1
   10c54: 05 46        	c.li	a2, 0x1
   10c56: 83 36 0b 00  	ld	a3, 0x0(s6)
   10c5a: 23 28 bb 02  	sw	a1, 0x30(s6)
   10c5e: 23 2a cb 02  	sw	a2, 0x34(s6)
   10c62: 23 a6 36 03  	sw	s3, 0x2c(a3)
   10c66: 83 35 0b 00  	ld	a1, 0x0(s6)
   10c6a: 88 d6        	c.sw	a0, 0x28(a3)
   10c6c: 23 a8 45 03  	sw	s4, 0x30(a1)
   10c70: 03 35 0b 00  	ld	a0, 0x0(s6)
   10c74: 10 65        	c.ld	a2, 0x8(a0)
   10c76: 85 45        	c.li	a1, 0x1
   10c78: 5a 85        	c.mv	a0, s6
   10c7a: 02 96        	c.jalr	a2
   10c7c: 01 4a        	c.li	s4, 0x0
   10c7e: 23 b4 8b 00  	sd	s0, 0x8(s7)
   10c82: 6d a8        	c.j	0x10d3c <start_input_ppm+0x206>
   10c84: 85 4a        	c.li	s5, 0x1
   10c86: 03 35 0b 00  	ld	a0, 0x0(s6)
   10c8a: 93 95 0a 02  	slli	a1, s5, 0x20
   10c8e: 85 05        	c.addi	a1, 0x1
   10c90: 23 38 bb 02  	sd	a1, 0x30(s6)
   10c94: 23 26 35 03  	sw	s3, 0x2c(a0)
   10c98: 83 35 0b 00  	ld	a1, 0x0(s6)
   10c9c: 13 06 40 40  	addi	a2, zero, 0x404
   10ca0: 10 d5        	c.sw	a2, 0x28(a0)
   10ca2: 23 a8 45 03  	sw	s4, 0x30(a1)
   10ca6: 03 35 0b 00  	ld	a0, 0x0(s6)
   10caa: 10 65        	c.ld	a2, 0x8(a0)
   10cac: 85 45        	c.li	a1, 0x1
   10cae: 5a 85        	c.mv	a0, s6
   10cb0: 02 96        	c.jalr	a2
   10cb2: 13 05 00 10  	addi	a0, zero, 0x100
   10cb6: 63 64 a9 02  	bltu	s2, a0, 0x10cde <start_input_ppm+0x1a8>
   10cba: 01 4a        	c.li	s4, 0x0
   10cbc: 37 15 01 00  	lui	a0, 0x11
   10cc0: 13 05 25 f1  	addi	a0, a0, -0xee
   10cc4: 23 b4 ab 00  	sd	a0, 0x8(s7)
   10cc8: 81 a0        	c.j	0x10d08 <start_input_ppm+0x1d2>
   10cca: 13 05 f0 0f  	addi	a0, zero, 0xff
   10cce: 63 0c a9 00  	beq	s2, a0, 0x10ce6 <start_input_ppm+0x1b0>
   10cd2: 01 4a        	c.li	s4, 0x0
   10cd4: 37 15 01 00  	lui	a0, 0x11
   10cd8: 13 05 65 0b  	addi	a0, a0, 0xb6
   10cdc: 1d a0        	c.j	0x10d02 <start_input_ppm+0x1cc>
   10cde: 13 05 f0 0f  	addi	a0, zero, 0xff
   10ce2: 63 1b a9 00  	bne	s2, a0, 0x10cf8 <start_input_ppm+0x1c2>
   10ce6: 81 4a        	c.li	s5, 0x0
   10ce8: 37 15 01 00  	lui	a0, 0x11
   10cec: 13 05 e5 f7  	addi	a0, a0, -0x82
   10cf0: 23 b4 ab 00  	sd	a0, 0x8(s7)
   10cf4: 05 4a        	c.li	s4, 0x1
   10cf6: 09 a8        	c.j	0x10d08 <start_input_ppm+0x1d2>
   10cf8: 01 4a        	c.li	s4, 0x0
   10cfa: 37 15 01 00  	lui	a0, 0x11
   10cfe: 13 05 e5 fa  	addi	a0, a0, -0x52
   10d02: 23 b4 ab 00  	sd	a0, 0x8(s7)
   10d06: 85 4a        	c.li	s5, 0x1
   10d08: 03 25 0b 03  	lw	a0, 0x30(s6)
   10d0c: 93 95 09 02  	slli	a1, s3, 0x20
   10d10: 81 91        	c.srli	a1, 0x20
   10d12: ef d0 61 17  	jal	ra, 0x2de88 <__muldi3>
   10d16: 83 35 8b 00  	ld	a1, 0x8(s6)
   10d1a: 13 36 09 10  	sltiu	a2, s2, 0x100
   10d1e: 94 61        	c.ld	a3, 0x0(a1)
   10d20: 93 45 16 00  	xori	a1, a2, 0x1
   10d24: 33 16 b5 00  	sll	a2, a0, a1
   10d28: 23 b0 cb 04  	sd	a2, 0x40(s7)
   10d2c: 85 45        	c.li	a1, 0x1
   10d2e: 05 44        	c.li	s0, 0x1
   10d30: 5a 85        	c.mv	a0, s6
   10d32: 82 96        	c.jalr	a3
   10d34: 23 b8 ab 02  	sd	a0, 0x30(s7)
   10d38: 63 88 0a 02  	beq	s5, zero, 0x10d68 <start_input_ppm+0x232>
   10d3c: 03 35 8b 00  	ld	a0, 0x8(s6)
   10d40: 00 69        	c.ld	s0, 0x10(a0)
   10d42: 03 25 0b 03  	lw	a0, 0x30(s6)
   10d46: ce 85        	c.mv	a1, s3
   10d48: ef d0 01 14  	jal	ra, 0x2de88 <__muldi3>
   10d4c: 1b 06 05 00  	addiw	a2, a0, 0x0
   10d50: 85 45        	c.li	a1, 0x1
   10d52: 85 46        	c.li	a3, 0x1
   10d54: 85 44        	c.li	s1, 0x1
   10d56: 5a 85        	c.mv	a0, s6
   10d58: 02 94        	c.jalr	s0
   10d5a: 23 b0 ab 02  	sd	a0, 0x20(s7)
   10d5e: 23 a4 9b 02  	sw	s1, 0x28(s7)
   10d62: 63 0d 0a 00  	beq	s4, zero, 0x10d7c <start_input_ppm+0x246>
   10d66: 99 a8        	c.j	0x10dbc <start_input_ppm+0x286>
   10d68: 93 85 8b 03  	addi	a1, s7, 0x38
   10d6c: 23 bc ab 02  	sd	a0, 0x38(s7)
   10d70: 23 b0 bb 02  	sd	a1, 0x20(s7)
   10d74: 23 a4 8b 02  	sw	s0, 0x28(s7)
   10d78: 63 12 0a 04  	bne	s4, zero, 0x10dbc <start_input_ppm+0x286>
   10d7c: 03 35 8b 00  	ld	a0, 0x8(s6)
   10d80: 14 61        	c.ld	a3, 0x0(a0)
   10d82: 13 15 09 02  	slli	a0, s2, 0x20
   10d86: 93 59 05 02  	srli	s3, a0, 0x20
   10d8a: 13 8a 19 00  	addi	s4, s3, 0x1
   10d8e: 85 45        	c.li	a1, 0x1
   10d90: 5a 85        	c.mv	a0, s6
   10d92: 52 86        	c.mv	a2, s4
   10d94: 82 96        	c.jalr	a3
   10d96: 81 44        	c.li	s1, 0x0
   10d98: 23 b4 ab 04  	sd	a0, 0x48(s7)
   10d9c: 1b 54 19 00  	srliw	s0, s2, 0x1
   10da0: 22 85        	c.mv	a0, s0
   10da2: ce 85        	c.mv	a1, s3
   10da4: ef d0 c1 12  	jal	ra, 0x2ded0 <__udivdi3>
   10da8: 83 b5 8b 04  	ld	a1, 0x48(s7)
   10dac: a6 95        	c.add	a1, s1
   10dae: 23 80 a5 00  	sb	a0, 0x0(a1)
   10db2: 85 04        	c.addi	s1, 0x1
   10db4: 13 04 f4 0f  	addi	s0, s0, 0xff
   10db8: e3 14 9a fe  	bne	s4, s1, 0x10da0 <start_input_ppm+0x26a>
   10dbc: 6f d0 a1 0a  	jal	zero, 0x2de66 <__riscv_restore_9>

0000000000010dc0 <finish_input_ppm>:
   10dc0: 82 80        	c.jr	ra

0000000000010dc2 <read_pbm_integer>:
   10dc2: ef d2 61 07  	jal	t0, 0x2de38 <__riscv_save_5>
   10dc6: ae 89        	c.mv	s3, a1
   10dc8: 2a 89        	c.mv	s2, a0
   10dca: 13 0a 10 02  	addi	s4, zero, 0x21
   10dce: 37 05 80 00  	lui	a0, 0x800
   10dd2: 4d 25        	c.addiw	a0, 0x13
   10dd4: 13 14 a5 00  	slli	s0, a0, 0xa
   10dd8: 4e 85        	c.mv	a0, s3
   10dda: ef 00 20 36  	jal	ra, 0x1113c <pbm_getc>
   10dde: aa 84        	c.mv	s1, a0
   10de0: 05 05        	c.addi	a0, 0x1
   10de2: 63 60 aa 02  	bltu	s4, a0, 0x10e02 <read_pbm_integer+0x40>
   10de6: b3 55 a4 00  	srl	a1, s0, a0
   10dea: 85 89        	c.andi	a1, 0x1
   10dec: f5 f5        	c.bnez	a1, 0x10dd8 <read_pbm_integer+0x16>
   10dee: 11 e9        	c.bnez	a0, 0x10e02 <read_pbm_integer+0x40>
   10df0: 03 35 09 00  	ld	a0, 0x0(s2)
   10df4: 0c 61        	c.ld	a1, 0x0(a0)
   10df6: 13 06 a0 02  	addi	a2, zero, 0x2a
   10dfa: 10 d5        	c.sw	a2, 0x28(a0)
   10dfc: 4a 85        	c.mv	a0, s2
   10dfe: 82 95        	c.jalr	a1
   10e00: 31 a0        	c.j	0x10e0c <read_pbm_integer+0x4a>
   10e02: 1b 85 64 fc  	addiw	a0, s1, -0x3a
   10e06: d5 55        	c.li	a1, -0xb
   10e08: 63 ea a5 00  	bltu	a1, a0, 0x10e1c <read_pbm_integer+0x5a>
   10e0c: 03 35 09 00  	ld	a0, 0x0(s2)
   10e10: 0c 61        	c.ld	a1, 0x0(a0)
   10e12: 13 06 20 40  	addi	a2, zero, 0x402
   10e16: 10 d5        	c.sw	a2, 0x28(a0)
   10e18: 4a 85        	c.mv	a0, s2
   10e1a: 82 95        	c.jalr	a1
   10e1c: 1b 84 04 fd  	addiw	s0, s1, -0x30
   10e20: 4e 85        	c.mv	a0, s3
   10e22: ef 00 a0 31  	jal	ra, 0x1113c <pbm_getc>
   10e26: 9b 04 05 fd  	addiw	s1, a0, -0x30
   10e2a: 25 45        	c.li	a0, 0x9
   10e2c: 63 60 95 02  	bltu	a0, s1, 0x10e4c <read_pbm_integer+0x8a>
   10e30: 29 49        	c.li	s2, 0xa
   10e32: a9 45        	c.li	a1, 0xa
   10e34: 22 85        	c.mv	a0, s0
   10e36: ef d0 21 05  	jal	ra, 0x2de88 <__muldi3>
   10e3a: 3b 84 a4 00  	addw	s0, s1, a0
   10e3e: 4e 85        	c.mv	a0, s3
   10e40: ef 00 c0 2f  	jal	ra, 0x1113c <pbm_getc>
   10e44: 9b 04 05 fd  	addiw	s1, a0, -0x30
   10e48: e3 e5 24 ff  	bltu	s1, s2, 0x10e32 <read_pbm_integer+0x70>
   10e4c: 22 85        	c.mv	a0, s0
   10e4e: 6f d0 41 02  	jal	zero, 0x2de72 <__riscv_restore_5>

0000000000010e52 <get_text_gray_row>:
   10e52: ef c2 71 7e  	jal	t0, 0x2de38 <__riscv_save_5>
   10e56: 2a 89        	c.mv	s2, a0
   10e58: 08 55        	c.lw	a0, 0x28(a0)
   10e5a: 0d cd        	c.beqz	a0, 0x10e94 <get_text_gray_row+0x42>
   10e5c: 90 71        	c.ld	a2, 0x20(a1)
   10e5e: 83 b9 85 01  	ld	s3, 0x18(a1)
   10e62: 03 ba 85 04  	ld	s4, 0x48(a1)
   10e66: 04 62        	c.ld	s1, 0x0(a2)
   10e68: 7d 15        	c.addi	a0, -0x1
   10e6a: 02 15        	c.slli	a0, 0x20
   10e6c: 01 91        	c.srli	a0, 0x20
   10e6e: 26 95        	c.add	a0, s1
   10e70: 13 04 15 00  	addi	s0, a0, 0x1
   10e74: 4a 85        	c.mv	a0, s2
   10e76: ce 85        	c.mv	a1, s3
   10e78: ef f0 bf f4  	jal	ra, 0x10dc2 <read_pbm_integer>
   10e7c: 02 15        	c.slli	a0, 0x20
   10e7e: 01 91        	c.srli	a0, 0x20
   10e80: 52 95        	c.add	a0, s4
   10e82: 03 45 05 00  	lbu	a0, 0x0(a0)
   10e86: 93 85 14 00  	addi	a1, s1, 0x1
   10e8a: 23 80 a4 00  	sb	a0, 0x0(s1)
   10e8e: ae 84        	c.mv	s1, a1
   10e90: e3 92 85 fe  	bne	a1, s0, 0x10e74 <get_text_gray_row+0x22>
   10e94: 05 45        	c.li	a0, 0x1
   10e96: 6f c0 d1 7d  	jal	zero, 0x2de72 <__riscv_restore_5>

0000000000010e9a <get_text_rgb_row>:
   10e9a: ef c2 f1 79  	jal	t0, 0x2de38 <__riscv_save_5>
   10e9e: 2a 89        	c.mv	s2, a0
   10ea0: 08 55        	c.lw	a0, 0x28(a0)
   10ea2: 2d c5        	c.beqz	a0, 0x10f0c <get_text_rgb_row+0x72>
   10ea4: 90 71        	c.ld	a2, 0x20(a1)
   10ea6: 83 b9 85 01  	ld	s3, 0x18(a1)
   10eaa: a0 65        	c.ld	s0, 0x48(a1)
   10eac: 04 62        	c.ld	s1, 0x0(a2)
   10eae: 7d 15        	c.addi	a0, -0x1
   10eb0: 02 15        	c.slli	a0, 0x20
   10eb2: 93 55 05 02  	srli	a1, a0, 0x20
   10eb6: 7d 81        	c.srli	a0, 0x1f
   10eb8: 2e 95        	c.add	a0, a1
   10eba: 26 95        	c.add	a0, s1
   10ebc: 13 0a 35 00  	addi	s4, a0, 0x3
   10ec0: 4a 85        	c.mv	a0, s2
   10ec2: ce 85        	c.mv	a1, s3
   10ec4: ef f0 ff ef  	jal	ra, 0x10dc2 <read_pbm_integer>
   10ec8: 02 15        	c.slli	a0, 0x20
   10eca: 01 91        	c.srli	a0, 0x20
   10ecc: 22 95        	c.add	a0, s0
   10ece: 03 45 05 00  	lbu	a0, 0x0(a0)
   10ed2: 23 80 a4 00  	sb	a0, 0x0(s1)
   10ed6: 4a 85        	c.mv	a0, s2
   10ed8: ce 85        	c.mv	a1, s3
   10eda: ef f0 9f ee  	jal	ra, 0x10dc2 <read_pbm_integer>
   10ede: 02 15        	c.slli	a0, 0x20
   10ee0: 01 91        	c.srli	a0, 0x20
   10ee2: 22 95        	c.add	a0, s0
   10ee4: 03 45 05 00  	lbu	a0, 0x0(a0)
   10ee8: a3 80 a4 00  	sb	a0, 0x1(s1)
   10eec: 4a 85        	c.mv	a0, s2
   10eee: ce 85        	c.mv	a1, s3
   10ef0: ef f0 3f ed  	jal	ra, 0x10dc2 <read_pbm_integer>
   10ef4: 02 15        	c.slli	a0, 0x20
   10ef6: 01 91        	c.srli	a0, 0x20
   10ef8: 22 95        	c.add	a0, s0
   10efa: 03 45 05 00  	lbu	a0, 0x0(a0)
   10efe: 93 85 34 00  	addi	a1, s1, 0x3
   10f02: 23 81 a4 00  	sb	a0, 0x2(s1)
   10f06: ae 84        	c.mv	s1, a1
   10f08: e3 9c 45 fb  	bne	a1, s4, 0x10ec0 <get_text_rgb_row+0x26>
   10f0c: 05 45        	c.li	a0, 0x1
   10f0e: 6f c0 51 76  	jal	zero, 0x2de72 <__riscv_restore_5>

0000000000010f12 <get_word_gray_row>:
   10f12: ef c2 11 73  	jal	t0, 0x2de42 <__riscv_save_3>
   10f16: 2e 84        	c.mv	s0, a1
   10f18: a4 65        	c.ld	s1, 0x48(a1)
   10f1a: 98 79        	c.ld	a4, 0x30(a1)
   10f1c: b0 61        	c.ld	a2, 0x40(a1)
   10f1e: 94 6d        	c.ld	a3, 0x18(a1)
   10f20: 2a 89        	c.mv	s2, a0
   10f22: 85 45        	c.li	a1, 0x1
   10f24: 3a 85        	c.mv	a0, a4
   10f26: ef 90 f0 6e  	jal	ra, 0x1ae14 <fread>
   10f2a: 2c 60        	c.ld	a1, 0x40(s0)
   10f2c: 63 0a b5 00  	beq	a0, a1, 0x10f40 <get_word_gray_row+0x2e>
   10f30: 03 35 09 00  	ld	a0, 0x0(s2)
   10f34: 0c 61        	c.ld	a1, 0x0(a0)
   10f36: 13 06 a0 02  	addi	a2, zero, 0x2a
   10f3a: 10 d5        	c.sw	a2, 0x28(a0)
   10f3c: 4a 85        	c.mv	a0, s2
   10f3e: 82 95        	c.jalr	a1
   10f40: 03 26 89 02  	lw	a2, 0x28(s2)
   10f44: 15 ca        	c.beqz	a2, 0x10f78 <get_word_gray_row+0x66>
   10f46: 0c 70        	c.ld	a1, 0x20(s0)
   10f48: 08 78        	c.ld	a0, 0x30(s0)
   10f4a: 8c 61        	c.ld	a1, 0x0(a1)
   10f4c: 7d 16        	c.addi	a2, -0x1
   10f4e: 02 16        	c.slli	a2, 0x20
   10f50: 7d 82        	c.srli	a2, 0x1f
   10f52: 2a 96        	c.add	a2, a0
   10f54: 09 06        	c.addi	a2, 0x2
   10f56: 83 46 15 00  	lbu	a3, 0x1(a0)
   10f5a: 03 47 05 00  	lbu	a4, 0x0(a0)
   10f5e: a2 06        	c.slli	a3, 0x8
   10f60: d9 8e        	c.or	a3, a4
   10f62: a6 96        	c.add	a3, s1
   10f64: 83 c6 06 00  	lbu	a3, 0x0(a3)
   10f68: 13 87 15 00  	addi	a4, a1, 0x1
   10f6c: 09 05        	c.addi	a0, 0x2
   10f6e: 23 80 d5 00  	sb	a3, 0x0(a1)
   10f72: ba 85        	c.mv	a1, a4
   10f74: e3 11 c5 fe  	bne	a0, a2, 0x10f56 <get_word_gray_row+0x44>
   10f78: 05 45        	c.li	a0, 0x1
   10f7a: 6f c0 f1 6f  	jal	zero, 0x2de78 <__riscv_restore_3>

0000000000010f7e <get_raw_row>:
   10f7e: ef c2 51 6c  	jal	t0, 0x2de42 <__riscv_save_3>
   10f82: ae 84        	c.mv	s1, a1
   10f84: 98 79        	c.ld	a4, 0x30(a1)
   10f86: b0 61        	c.ld	a2, 0x40(a1)
   10f88: 94 6d        	c.ld	a3, 0x18(a1)
   10f8a: 2a 84        	c.mv	s0, a0
   10f8c: 85 45        	c.li	a1, 0x1
   10f8e: 3a 85        	c.mv	a0, a4
   10f90: ef 90 50 68  	jal	ra, 0x1ae14 <fread>
   10f94: ac 60        	c.ld	a1, 0x40(s1)
   10f96: 63 09 b5 00  	beq	a0, a1, 0x10fa8 <get_raw_row+0x2a>
   10f9a: 08 60        	c.ld	a0, 0x0(s0)
   10f9c: 0c 61        	c.ld	a1, 0x0(a0)
   10f9e: 13 06 a0 02  	addi	a2, zero, 0x2a
   10fa2: 10 d5        	c.sw	a2, 0x28(a0)
   10fa4: 22 85        	c.mv	a0, s0
   10fa6: 82 95        	c.jalr	a1
   10fa8: 05 45        	c.li	a0, 0x1
   10faa: 6f c0 f1 6c  	jal	zero, 0x2de78 <__riscv_restore_3>

0000000000010fae <get_scaled_gray_row>:
   10fae: ef c2 51 69  	jal	t0, 0x2de42 <__riscv_save_3>
   10fb2: 2e 84        	c.mv	s0, a1
   10fb4: a4 65        	c.ld	s1, 0x48(a1)
   10fb6: 98 79        	c.ld	a4, 0x30(a1)
   10fb8: b0 61        	c.ld	a2, 0x40(a1)
   10fba: 94 6d        	c.ld	a3, 0x18(a1)
   10fbc: 2a 89        	c.mv	s2, a0
   10fbe: 85 45        	c.li	a1, 0x1
   10fc0: 3a 85        	c.mv	a0, a4
   10fc2: ef 90 30 65  	jal	ra, 0x1ae14 <fread>
   10fc6: 2c 60        	c.ld	a1, 0x40(s0)
   10fc8: 63 0a b5 00  	beq	a0, a1, 0x10fdc <get_scaled_gray_row+0x2e>
   10fcc: 03 35 09 00  	ld	a0, 0x0(s2)
   10fd0: 0c 61        	c.ld	a1, 0x0(a0)
   10fd2: 13 06 a0 02  	addi	a2, zero, 0x2a
   10fd6: 10 d5        	c.sw	a2, 0x28(a0)
   10fd8: 4a 85        	c.mv	a0, s2
   10fda: 82 95        	c.jalr	a1
   10fdc: 03 26 89 02  	lw	a2, 0x28(s2)
   10fe0: 05 ca        	c.beqz	a2, 0x11010 <get_scaled_gray_row+0x62>
   10fe2: 08 70        	c.ld	a0, 0x20(s0)
   10fe4: 0c 78        	c.ld	a1, 0x30(s0)
   10fe6: 08 61        	c.ld	a0, 0x0(a0)
   10fe8: 7d 16        	c.addi	a2, -0x1
   10fea: 02 16        	c.slli	a2, 0x20
   10fec: 01 92        	c.srli	a2, 0x20
   10fee: 2e 96        	c.add	a2, a1
   10ff0: 05 06        	c.addi	a2, 0x1
   10ff2: 83 c6 05 00  	lbu	a3, 0x0(a1)
   10ff6: a6 96        	c.add	a3, s1
   10ff8: 83 c6 06 00  	lbu	a3, 0x0(a3)
   10ffc: 13 87 15 00  	addi	a4, a1, 0x1
   11000: 93 05 15 00  	addi	a1, a0, 0x1
   11004: 23 00 d5 00  	sb	a3, 0x0(a0)
   11008: 2e 85        	c.mv	a0, a1
   1100a: ba 85        	c.mv	a1, a4
   1100c: e3 13 c7 fe  	bne	a4, a2, 0x10ff2 <get_scaled_gray_row+0x44>
   11010: 05 45        	c.li	a0, 0x1
   11012: 6f c0 71 66  	jal	zero, 0x2de78 <__riscv_restore_3>

0000000000011016 <get_word_rgb_row>:
   11016: ef c2 31 62  	jal	t0, 0x2de38 <__riscv_save_5>
   1101a: 2e 84        	c.mv	s0, a1
   1101c: 83 b9 85 04  	ld	s3, 0x48(a1)
   11020: 98 79        	c.ld	a4, 0x30(a1)
   11022: b0 61        	c.ld	a2, 0x40(a1)
   11024: 94 6d        	c.ld	a3, 0x18(a1)
   11026: 2a 89        	c.mv	s2, a0
   11028: 85 45        	c.li	a1, 0x1
   1102a: 3a 85        	c.mv	a0, a4
   1102c: ef 90 90 5e  	jal	ra, 0x1ae14 <fread>
   11030: 2c 60        	c.ld	a1, 0x40(s0)
   11032: 63 0a b5 00  	beq	a0, a1, 0x11046 <get_word_rgb_row+0x30>
   11036: 03 35 09 00  	ld	a0, 0x0(s2)
   1103a: 0c 61        	c.ld	a1, 0x0(a0)
   1103c: 13 06 a0 02  	addi	a2, zero, 0x2a
   11040: 10 d5        	c.sw	a2, 0x28(a0)
   11042: 4a 85        	c.mv	a0, s2
   11044: 82 95        	c.jalr	a1
   11046: 03 25 89 02  	lw	a0, 0x28(s2)
   1104a: 3d c1        	c.beqz	a0, 0x110b0 <get_word_rgb_row+0x9a>
   1104c: 0c 70        	c.ld	a1, 0x20(s0)
   1104e: 00 78        	c.ld	s0, 0x30(s0)
   11050: 84 61        	c.ld	s1, 0x0(a1)
   11052: 7d 15        	c.addi	a0, -0x1
   11054: 02 15        	c.slli	a0, 0x20
   11056: 01 91        	c.srli	a0, 0x20
   11058: 99 45        	c.li	a1, 0x6
   1105a: ef c0 f1 62  	jal	ra, 0x2de88 <__muldi3>
   1105e: 22 95        	c.add	a0, s0
   11060: 19 05        	c.addi	a0, 0x6
   11062: 83 45 14 00  	lbu	a1, 0x1(s0)
   11066: 03 46 04 00  	lbu	a2, 0x0(s0)
   1106a: a2 05        	c.slli	a1, 0x8
   1106c: d1 8d        	c.or	a1, a2
   1106e: ce 95        	c.add	a1, s3
   11070: 83 c5 05 00  	lbu	a1, 0x0(a1)
   11074: 23 80 b4 00  	sb	a1, 0x0(s1)
   11078: 83 45 34 00  	lbu	a1, 0x3(s0)
   1107c: 03 46 24 00  	lbu	a2, 0x2(s0)
   11080: a2 05        	c.slli	a1, 0x8
   11082: d1 8d        	c.or	a1, a2
   11084: ce 95        	c.add	a1, s3
   11086: 83 c5 05 00  	lbu	a1, 0x0(a1)
   1108a: a3 80 b4 00  	sb	a1, 0x1(s1)
   1108e: 83 45 54 00  	lbu	a1, 0x5(s0)
   11092: 03 46 44 00  	lbu	a2, 0x4(s0)
   11096: a2 05        	c.slli	a1, 0x8
   11098: d1 8d        	c.or	a1, a2
   1109a: ce 95        	c.add	a1, s3
   1109c: 83 c5 05 00  	lbu	a1, 0x0(a1)
   110a0: 13 86 34 00  	addi	a2, s1, 0x3
   110a4: 19 04        	c.addi	s0, 0x6
   110a6: 23 81 b4 00  	sb	a1, 0x2(s1)
   110aa: b2 84        	c.mv	s1, a2
   110ac: e3 1b a4 fa  	bne	s0, a0, 0x11062 <get_word_rgb_row+0x4c>
   110b0: 05 45        	c.li	a0, 0x1
   110b2: 6f c0 11 5c  	jal	zero, 0x2de72 <__riscv_restore_5>

00000000000110b6 <get_scaled_rgb_row>:
   110b6: ef c2 d1 58  	jal	t0, 0x2de42 <__riscv_save_3>
   110ba: 2e 84        	c.mv	s0, a1
   110bc: a4 65        	c.ld	s1, 0x48(a1)
   110be: 98 79        	c.ld	a4, 0x30(a1)
   110c0: b0 61        	c.ld	a2, 0x40(a1)
   110c2: 94 6d        	c.ld	a3, 0x18(a1)
   110c4: 2a 89        	c.mv	s2, a0
   110c6: 85 45        	c.li	a1, 0x1
   110c8: 3a 85        	c.mv	a0, a4
   110ca: ef 90 b0 54  	jal	ra, 0x1ae14 <fread>
   110ce: 2c 60        	c.ld	a1, 0x40(s0)
   110d0: 63 0a b5 00  	beq	a0, a1, 0x110e4 <get_scaled_rgb_row+0x2e>
   110d4: 03 35 09 00  	ld	a0, 0x0(s2)
   110d8: 0c 61        	c.ld	a1, 0x0(a0)
   110da: 13 06 a0 02  	addi	a2, zero, 0x2a
   110de: 10 d5        	c.sw	a2, 0x28(a0)
   110e0: 4a 85        	c.mv	a0, s2
   110e2: 82 95        	c.jalr	a1
   110e4: 03 26 89 02  	lw	a2, 0x28(s2)
   110e8: 39 c6        	c.beqz	a2, 0x11136 <get_scaled_rgb_row+0x80>
   110ea: 0c 70        	c.ld	a1, 0x20(s0)
   110ec: 08 78        	c.ld	a0, 0x30(s0)
   110ee: 8c 61        	c.ld	a1, 0x0(a1)
   110f0: 7d 16        	c.addi	a2, -0x1
   110f2: 02 16        	c.slli	a2, 0x20
   110f4: 93 56 06 02  	srli	a3, a2, 0x20
   110f8: 7d 82        	c.srli	a2, 0x1f
   110fa: 36 96        	c.add	a2, a3
   110fc: 2a 96        	c.add	a2, a0
   110fe: 0d 06        	c.addi	a2, 0x3
   11100: 83 46 05 00  	lbu	a3, 0x0(a0)
   11104: a6 96        	c.add	a3, s1
   11106: 83 c6 06 00  	lbu	a3, 0x0(a3)
   1110a: 23 80 d5 00  	sb	a3, 0x0(a1)
   1110e: 83 46 15 00  	lbu	a3, 0x1(a0)
   11112: a6 96        	c.add	a3, s1
   11114: 83 c6 06 00  	lbu	a3, 0x0(a3)
   11118: a3 80 d5 00  	sb	a3, 0x1(a1)
   1111c: 83 46 25 00  	lbu	a3, 0x2(a0)
   11120: a6 96        	c.add	a3, s1
   11122: 83 c6 06 00  	lbu	a3, 0x0(a3)
   11126: 13 87 35 00  	addi	a4, a1, 0x3
   1112a: 0d 05        	c.addi	a0, 0x3
   1112c: 23 81 d5 00  	sb	a3, 0x2(a1)
   11130: ba 85        	c.mv	a1, a4
   11132: e3 17 c5 fc  	bne	a0, a2, 0x11100 <get_scaled_rgb_row+0x4a>
   11136: 05 45        	c.li	a0, 0x1
   11138: 6f c0 11 54  	jal	zero, 0x2de78 <__riscv_restore_3>

000000000001113c <pbm_getc>:
   1113c: ef c2 71 50  	jal	t0, 0x2de42 <__riscv_save_3>
   11140: 2a 84        	c.mv	s0, a0
   11142: ef 90 d0 6b  	jal	ra, 0x1affe <getc>
   11146: 93 05 30 02  	addi	a1, zero, 0x23
   1114a: 63 1b b5 00  	bne	a0, a1, 0x11160 <pbm_getc+0x24>
   1114e: a9 44        	c.li	s1, 0xa
   11150: 7d 59        	c.li	s2, -0x1
   11152: 22 85        	c.mv	a0, s0
   11154: ef 90 b0 6a  	jal	ra, 0x1affe <getc>
   11158: 63 04 95 00  	beq	a0, s1, 0x11160 <pbm_getc+0x24>
   1115c: e3 1b 25 ff  	bne	a0, s2, 0x11152 <pbm_getc+0x16>
   11160: 6f c0 91 51  	jal	zero, 0x2de78 <__riscv_restore_3>

0000000000011164 <jinit_read_gif>:
   11164: ef c2 11 4f  	jal	t0, 0x2de54 <__riscv_save_1>
   11168: 2a 84        	c.mv	s0, a0
   1116a: 08 65        	c.ld	a0, 0x8(a0)
   1116c: 14 61        	c.ld	a3, 0x0(a0)
   1116e: 85 45        	c.li	a1, 0x1
   11170: 13 06 80 1b  	addi	a2, zero, 0x1b8
   11174: 22 85        	c.mv	a0, s0
   11176: 82 96        	c.jalr	a3
   11178: 00 f9        	c.sd	s0, 0x30(a0)
   1117a: b7 15 01 00  	lui	a1, 0x11
   1117e: 93 85 25 19  	addi	a1, a1, 0x192
   11182: 0c e1        	c.sd	a1, 0x0(a0)
   11184: b7 15 01 00  	lui	a1, 0x11
   11188: 93 85 25 54  	addi	a1, a1, 0x542
   1118c: 0c e9        	c.sd	a1, 0x10(a0)
   1118e: 6f c0 11 4f  	jal	zero, 0x2de7e <__riscv_restore_1>

0000000000011192 <start_input_gif>:
   11192: 09 71        	c.addi16sp	sp, -0x180
   11194: 86 fe        	c.sdsp	ra, 0x178(sp)
   11196: a2 fa        	c.sdsp	s0, 0x170(sp)
   11198: a6 f6        	c.sdsp	s1, 0x168(sp)
   1119a: ca f2        	c.sdsp	s2, 0x160(sp)
   1119c: ce ee        	c.sdsp	s3, 0x158(sp)
   1119e: d2 ea        	c.sdsp	s4, 0x150(sp)
   111a0: d6 e6        	c.sdsp	s5, 0x148(sp)
   111a2: da e2        	c.sdsp	s6, 0x140(sp)
   111a4: 5e fe        	c.sdsp	s7, 0x138(sp)
   111a6: 62 fa        	c.sdsp	s8, 0x130(sp)
   111a8: 66 f6        	c.sdsp	s9, 0x128(sp)
   111aa: 6a f2        	c.sdsp	s10, 0x120(sp)
   111ac: 6e ee        	c.sdsp	s11, 0x118(sp)
   111ae: aa 8a        	c.mv	s5, a0
   111b0: 08 65        	c.ld	a0, 0x8(a0)
   111b2: 18 69        	c.ld	a4, 0x10(a0)
   111b4: ae 84        	c.mv	s1, a1
   111b6: 85 45        	c.li	a1, 0x1
   111b8: 13 06 00 10  	addi	a2, zero, 0x100
   111bc: 8d 46        	c.li	a3, 0x3
   111be: 56 85        	c.mv	a0, s5
   111c0: 02 97        	c.jalr	a4
   111c2: 94 6c        	c.ld	a3, 0x18(s1)
   111c4: 88 fc        	c.sd	a0, 0x38(s1)
   111c6: 13 05 e1 00  	addi	a0, sp, 0xe
   111ca: 85 45        	c.li	a1, 0x1
   111cc: 19 46        	c.li	a2, 0x6
   111ce: 19 44        	c.li	s0, 0x6
   111d0: ef 90 50 44  	jal	ra, 0x1ae14 <fread>
   111d4: 63 0a 85 00  	beq	a0, s0, 0x111e8 <start_input_gif+0x56>
   111d8: 03 b5 0a 00  	ld	a0, 0x0(s5)
   111dc: 0c 61        	c.ld	a1, 0x0(a0)
   111de: 13 06 80 3f  	addi	a2, zero, 0x3f8
   111e2: 10 d5        	c.sw	a2, 0x28(a0)
   111e4: 56 85        	c.mv	a0, s5
   111e6: 82 95        	c.jalr	a1
   111e8: 03 45 e1 00  	lbu	a0, 0xe(sp)
   111ec: 93 05 70 04  	addi	a1, zero, 0x47
   111f0: 63 1e b5 00  	bne	a0, a1, 0x1120c <start_input_gif+0x7a>
   111f4: 03 45 f1 00  	lbu	a0, 0xf(sp)
   111f8: 93 05 90 04  	addi	a1, zero, 0x49
   111fc: 63 18 b5 00  	bne	a0, a1, 0x1120c <start_input_gif+0x7a>
   11200: 03 45 01 01  	lbu	a0, 0x10(sp)
   11204: 93 05 60 04  	addi	a1, zero, 0x46
   11208: 63 0a b5 00  	beq	a0, a1, 0x1121c <start_input_gif+0x8a>
   1120c: 03 b5 0a 00  	ld	a0, 0x0(s5)
   11210: 0c 61        	c.ld	a1, 0x0(a0)
   11212: 13 06 80 3f  	addi	a2, zero, 0x3f8
   11216: 10 d5        	c.sw	a2, 0x28(a0)
   11218: 56 85        	c.mv	a0, s5
   1121a: 82 95        	c.jalr	a1
   1121c: 83 45 11 01  	lbu	a1, 0x11(sp)
   11220: 03 46 21 01  	lbu	a2, 0x12(sp)
   11224: 03 45 31 01  	lbu	a0, 0x13(sp)
   11228: 93 06 80 03  	addi	a3, zero, 0x38
   1122c: 63 9a d5 00  	bne	a1, a3, 0x11240 <start_input_gif+0xae>
   11230: 13 07 70 03  	addi	a4, zero, 0x37
   11234: 63 16 e6 00  	bne	a2, a4, 0x11240 <start_input_gif+0xae>
   11238: 13 07 10 06  	addi	a4, zero, 0x61
   1123c: 63 08 e5 02  	beq	a0, a4, 0x1126c <start_input_gif+0xda>
   11240: 63 9a d5 00  	bne	a1, a3, 0x11254 <start_input_gif+0xc2>
   11244: 93 06 90 03  	addi	a3, zero, 0x39
   11248: 63 16 d6 00  	bne	a2, a3, 0x11254 <start_input_gif+0xc2>
   1124c: 93 06 10 06  	addi	a3, zero, 0x61
   11250: 63 0e d5 00  	beq	a0, a3, 0x1126c <start_input_gif+0xda>
   11254: 83 b6 0a 00  	ld	a3, 0x0(s5)
   11258: cc d6        	c.sw	a1, 0x2c(a3)
   1125a: 90 da        	c.sw	a2, 0x30(a3)
   1125c: 90 66        	c.ld	a2, 0x8(a3)
   1125e: c8 da        	c.sw	a0, 0x34(a3)
   11260: 13 05 a0 3f  	addi	a0, zero, 0x3fa
   11264: 88 d6        	c.sw	a0, 0x28(a3)
   11266: 85 45        	c.li	a1, 0x1
   11268: 56 85        	c.mv	a0, s5
   1126a: 02 96        	c.jalr	a2
   1126c: 94 6c        	c.ld	a3, 0x18(s1)
   1126e: 13 05 e1 00  	addi	a0, sp, 0xe
   11272: 85 45        	c.li	a1, 0x1
   11274: 1d 46        	c.li	a2, 0x7
   11276: 1d 44        	c.li	s0, 0x7
   11278: ef 90 d0 39  	jal	ra, 0x1ae14 <fread>
   1127c: 63 0a 85 00  	beq	a0, s0, 0x11290 <start_input_gif+0xfe>
   11280: 03 b5 0a 00  	ld	a0, 0x0(s5)
   11284: 0c 61        	c.ld	a1, 0x0(a0)
   11286: 13 06 a0 02  	addi	a2, zero, 0x2a
   1128a: 10 d5        	c.sw	a2, 0x28(a0)
   1128c: 56 85        	c.mv	a0, s5
   1128e: 82 95        	c.jalr	a1
   11290: 03 44 21 01  	lbu	s0, 0x12(sp)
   11294: 03 45 41 01  	lbu	a0, 0x14(sp)
   11298: 93 15 84 03  	slli	a1, s0, 0x38
   1129c: 93 d9 85 43  	srai	s3, a1, 0x38
   112a0: 1d 88        	c.andi	s0, 0x7
   112a2: 09 49        	c.li	s2, 0x2
   112a4: 11 cd        	c.beqz	a0, 0x112c0 <start_input_gif+0x12e>
   112a6: 93 05 10 03  	addi	a1, zero, 0x31
   112aa: 63 0b b5 00  	beq	a0, a1, 0x112c0 <start_input_gif+0x12e>
   112ae: 03 b5 0a 00  	ld	a0, 0x0(s5)
   112b2: 10 65        	c.ld	a2, 0x8(a0)
   112b4: 93 05 c0 3f  	addi	a1, zero, 0x3fc
   112b8: 0c d5        	c.sw	a1, 0x28(a0)
   112ba: 85 45        	c.li	a1, 0x1
   112bc: 56 85        	c.mv	a0, s5
   112be: 02 96        	c.jalr	a2
   112c0: 3b 19 89 00  	sllw	s2, s2, s0
   112c4: 63 d7 09 00  	bge	s3, zero, 0x112d2 <start_input_gif+0x140>
   112c8: 90 7c        	c.ld	a2, 0x38(s1)
   112ca: 26 85        	c.mv	a0, s1
   112cc: ca 85        	c.mv	a1, s2
   112ce: ef 00 60 27  	jal	ra, 0x11544 <ReadColorMap>
   112d2: 93 09 b0 02  	addi	s3, zero, 0x2b
   112d6: 7d 5a        	c.li	s4, -0x1
   112d8: 13 0b 10 02  	addi	s6, zero, 0x21
   112dc: 93 0b a0 02  	addi	s7, zero, 0x2a
   112e0: 13 0c b0 3f  	addi	s8, zero, 0x3fb
   112e4: 93 0c e0 3f  	addi	s9, zero, 0x3fe
   112e8: 13 0d b0 03  	addi	s10, zero, 0x3b
   112ec: 93 0d c0 02  	addi	s11, zero, 0x2c
   112f0: 88 6c        	c.ld	a0, 0x18(s1)
   112f2: ef 90 d0 50  	jal	ra, 0x1affe <getc>
   112f6: 2a 84        	c.mv	s0, a0
   112f8: 63 c3 a9 04  	blt	s3, a0, 0x1133e <start_input_gif+0x1ac>
   112fc: 63 09 44 05  	beq	s0, s4, 0x1134e <start_input_gif+0x1bc>
   11300: 63 1e 64 05  	bne	s0, s6, 0x1135c <start_input_gif+0x1ca>
   11304: 88 6c        	c.ld	a0, 0x18(s1)
   11306: ef 90 90 4f  	jal	ra, 0x1affe <getc>
   1130a: 2a 84        	c.mv	s0, a0
   1130c: 63 18 45 01  	bne	a0, s4, 0x1131c <start_input_gif+0x18a>
   11310: 88 78        	c.ld	a0, 0x30(s1)
   11312: 0c 61        	c.ld	a1, 0x0(a0)
   11314: 90 61        	c.ld	a2, 0x0(a1)
   11316: 23 a4 75 03  	sw	s7, 0x28(a1)
   1131a: 02 96        	c.jalr	a2
   1131c: 88 78        	c.ld	a0, 0x30(s1)
   1131e: 0c 61        	c.ld	a1, 0x0(a0)
   11320: c0 d5        	c.sw	s0, 0x2c(a1)
   11322: 88 78        	c.ld	a0, 0x30(s1)
   11324: 10 61        	c.ld	a2, 0x0(a0)
   11326: 10 66        	c.ld	a2, 0x8(a2)
   11328: 23 a4 85 03  	sw	s8, 0x28(a1)
   1132c: 85 45        	c.li	a1, 0x1
   1132e: 02 96        	c.jalr	a2
   11330: 2c 08        	c.addi4spn	a1, sp, 0x18
   11332: 26 85        	c.mv	a0, s1
   11334: ef 00 80 3c  	jal	ra, 0x116fc <GetDataBlock>
   11338: e3 4c a0 fe  	blt	zero, a0, 0x11330 <start_input_gif+0x19e>
   1133c: 55 bf        	c.j	0x112f0 <start_input_gif+0x15e>
   1133e: 93 05 70 3f  	addi	a1, zero, 0x3f7
   11342: 56 85        	c.mv	a0, s5
   11344: 63 08 a4 01  	beq	s0, s10, 0x11354 <start_input_gif+0x1c2>
   11348: 63 1a b4 01  	bne	s0, s11, 0x1135c <start_input_gif+0x1ca>
   1134c: 25 a0        	c.j	0x11374 <start_input_gif+0x1e2>
   1134e: 88 78        	c.ld	a0, 0x30(s1)
   11350: 93 05 a0 02  	addi	a1, zero, 0x2a
   11354: 10 61        	c.ld	a2, 0x0(a0)
   11356: 14 62        	c.ld	a3, 0x0(a2)
   11358: 0c d6        	c.sw	a1, 0x28(a2)
   1135a: 82 96        	c.jalr	a3
   1135c: 03 b5 0a 00  	ld	a0, 0x0(s5)
   11360: 40 d5        	c.sw	s0, 0x2c(a0)
   11362: 83 b5 0a 00  	ld	a1, 0x0(s5)
   11366: 90 65        	c.ld	a2, 0x8(a1)
   11368: 23 24 95 03  	sw	s9, 0x28(a0)
   1136c: fd 55        	c.li	a1, -0x1
   1136e: 56 85        	c.mv	a0, s5
   11370: 02 96        	c.jalr	a2
   11372: bd bf        	c.j	0x112f0 <start_input_gif+0x15e>
   11374: 94 6c        	c.ld	a3, 0x18(s1)
   11376: 13 05 e1 00  	addi	a0, sp, 0xe
   1137a: 85 45        	c.li	a1, 0x1
   1137c: 25 46        	c.li	a2, 0x9
   1137e: 25 44        	c.li	s0, 0x9
   11380: ef 90 50 29  	jal	ra, 0x1ae14 <fread>
   11384: 63 0a 85 00  	beq	a0, s0, 0x11398 <start_input_gif+0x206>
   11388: 03 b5 0a 00  	ld	a0, 0x0(s5)
   1138c: 0c 61        	c.ld	a1, 0x0(a0)
   1138e: 13 06 a0 02  	addi	a2, zero, 0x2a
   11392: 10 d5        	c.sw	a2, 0x28(a0)
   11394: 56 85        	c.mv	a0, s5
   11396: 82 95        	c.jalr	a1
   11398: 03 4b 31 01  	lbu	s6, 0x13(sp)
   1139c: 83 45 61 01  	lbu	a1, 0x16(sp)
   113a0: 83 49 21 01  	lbu	s3, 0x12(sp)
   113a4: 83 4b 51 01  	lbu	s7, 0x15(sp)
   113a8: 03 4a 41 01  	lbu	s4, 0x14(sp)
   113ac: 13 95 85 03  	slli	a0, a1, 0x38
   113b0: 93 f5 05 04  	andi	a1, a1, 0x40
   113b4: 23 ac b4 18  	sw	a1, 0x198(s1)
   113b8: 63 5c 05 00  	bge	a0, zero, 0x113d0 <start_input_gif+0x23e>
   113bc: 61 95        	c.srai	a0, 0x38
   113be: 90 7c        	c.ld	a2, 0x38(s1)
   113c0: 1d 89        	c.andi	a0, 0x7
   113c2: 89 45        	c.li	a1, 0x2
   113c4: 3b 99 a5 00  	sllw	s2, a1, a0
   113c8: 26 85        	c.mv	a0, s1
   113ca: ca 85        	c.mv	a1, s2
   113cc: ef 00 80 17  	jal	ra, 0x11544 <ReadColorMap>
   113d0: 88 6c        	c.ld	a0, 0x18(s1)
   113d2: 22 0b        	c.slli	s6, 0x8
   113d4: a2 0b        	c.slli	s7, 0x8
   113d6: ef 90 90 42  	jal	ra, 0x1affe <getc>
   113da: 7d 5c        	c.li	s8, -0x1
   113dc: 2a 84        	c.mv	s0, a0
   113de: 63 0a 85 01  	beq	a0, s8, 0x113f2 <start_input_gif+0x260>
   113e2: 1b 05 44 ff  	addiw	a0, s0, -0xc
   113e6: d5 55        	c.li	a1, -0xb
   113e8: 23 aa 84 14  	sw	s0, 0x154(s1)
   113ec: 63 fc a5 00  	bgeu	a1, a0, 0x11404 <start_input_gif+0x272>
   113f0: 2d a0        	c.j	0x1141a <start_input_gif+0x288>
   113f2: 88 78        	c.ld	a0, 0x30(s1)
   113f4: 0c 61        	c.ld	a1, 0x0(a0)
   113f6: 90 61        	c.ld	a2, 0x0(a1)
   113f8: 93 06 a0 02  	addi	a3, zero, 0x2a
   113fc: 94 d5        	c.sw	a3, 0x28(a1)
   113fe: 02 96        	c.jalr	a2
   11400: 23 aa 84 15  	sw	s8, 0x154(s1)
   11404: 03 b5 0a 00  	ld	a0, 0x0(s5)
   11408: 40 d5        	c.sw	s0, 0x2c(a0)
   1140a: 83 b5 0a 00  	ld	a1, 0x0(s5)
   1140e: 8c 61        	c.ld	a1, 0x0(a1)
   11410: 13 06 50 3f  	addi	a2, zero, 0x3f5
   11414: 10 d5        	c.sw	a2, 0x28(a0)
   11416: 56 85        	c.mv	a0, s5
   11418: 82 95        	c.jalr	a1
   1141a: 03 b5 8a 00  	ld	a0, 0x8(s5)
   1141e: 14 65        	c.ld	a3, 0x8(a0)
   11420: b3 69 3b 01  	or	s3, s6, s3
   11424: 33 ea 4b 01  	or	s4, s7, s4
   11428: 85 45        	c.li	a1, 0x1
   1142a: 09 66        	c.lui	a2, 0x2
   1142c: 05 4b        	c.li	s6, 0x1
   1142e: 56 85        	c.mv	a0, s5
   11430: 82 96        	c.jalr	a3
   11432: 83 b5 8a 00  	ld	a1, 0x8(s5)
   11436: 94 65        	c.ld	a3, 0x8(a1)
   11438: 23 bc a4 16  	sd	a0, 0x178(s1)
   1143c: 85 45        	c.li	a1, 0x1
   1143e: 05 66        	c.lui	a2, 0x1
   11440: 56 85        	c.mv	a0, s5
   11442: 82 96        	c.jalr	a3
   11444: 83 b5 8a 00  	ld	a1, 0x8(s5)
   11448: 94 65        	c.ld	a3, 0x8(a1)
   1144a: 23 b0 a4 18  	sd	a0, 0x180(s1)
   1144e: 85 45        	c.li	a1, 0x1
   11450: 05 66        	c.lui	a2, 0x1
   11452: 56 85        	c.mv	a0, s5
   11454: 82 96        	c.jalr	a3
   11456: 23 b4 a4 18  	sd	a0, 0x188(s1)
   1145a: 89 45        	c.li	a1, 0x2
   1145c: 03 e6 44 15  	lwu	a2, 0x154(s1)
   11460: 23 a2 b4 14  	sw	a1, 0x144(s1)
   11464: 23 b4 04 14  	sd	zero, 0x148(s1)
   11468: 23 a8 04 14  	sw	zero, 0x150(s1)
   1146c: bb 16 cb 00  	sllw	a3, s6, a2
   11470: 23 ac d4 14  	sw	a3, 0x158(s1)
   11474: 13 87 16 00  	addi	a4, a3, 0x1
   11478: 23 ae e4 14  	sw	a4, 0x15c(s1)
   1147c: 23 a6 64 17  	sw	s6, 0x16c(s1)
   11480: 13 07 16 00  	addi	a4, a2, 0x1
   11484: 23 a0 e4 16  	sw	a4, 0x160(s1)
   11488: bb 95 c5 00  	sllw	a1, a1, a2
   1148c: 03 a6 84 19  	lw	a2, 0x198(s1)
   11490: 23 a2 b4 16  	sw	a1, 0x164(s1)
   11494: 89 06        	c.addi	a3, 0x2
   11496: 23 a4 d4 16  	sw	a3, 0x168(s1)
   1149a: 23 b8 a4 18  	sd	a0, 0x190(s1)
   1149e: 05 ca        	c.beqz	a2, 0x114ce <start_input_gif+0x33c>
   114a0: 03 b5 8a 00  	ld	a0, 0x8(s5)
   114a4: 00 71        	c.ld	s0, 0x20(a0)
   114a6: 85 45        	c.li	a1, 0x1
   114a8: 85 47        	c.li	a5, 0x1
   114aa: 56 85        	c.mv	a0, s5
   114ac: 01 46        	c.li	a2, 0x0
   114ae: ce 86        	c.mv	a3, s3
   114b0: 52 87        	c.mv	a4, s4
   114b2: 02 94        	c.jalr	s0
   114b4: 83 b5 0a 01  	ld	a1, 0x10(s5)
   114b8: 23 b0 a4 1a  	sd	a0, 0x1a0(s1)
   114bc: 37 15 01 00  	lui	a0, 0x11
   114c0: 13 05 a5 5d  	addi	a0, a0, 0x5da
   114c4: 89 c9        	c.beqz	a1, 0x114d6 <start_input_gif+0x344>
   114c6: d0 51        	c.lw	a2, 0x24(a1)
   114c8: 05 06        	c.addi	a2, 0x1
   114ca: d0 d1        	c.sw	a2, 0x24(a1)
   114cc: 29 a0        	c.j	0x114d6 <start_input_gif+0x344>
   114ce: 37 15 01 00  	lui	a0, 0x11
   114d2: 13 05 e5 69  	addi	a0, a0, 0x69e
   114d6: 83 b5 8a 00  	ld	a1, 0x8(s5)
   114da: 98 69        	c.ld	a4, 0x10(a1)
   114dc: 88 e4        	c.sd	a0, 0x8(s1)
   114de: 13 96 19 00  	slli	a2, s3, 0x1
   114e2: 4e 96        	c.add	a2, s3
   114e4: 85 45        	c.li	a1, 0x1
   114e6: 85 46        	c.li	a3, 0x1
   114e8: 56 85        	c.mv	a0, s5
   114ea: 02 97        	c.jalr	a4
   114ec: 88 f0        	c.sd	a0, 0x20(s1)
   114ee: 23 a4 64 03  	sw	s6, 0x28(s1)
   114f2: 06 1b        	c.slli	s6, 0x21
   114f4: 0d 0b        	c.addi	s6, 0x3
   114f6: 23 b8 6a 03  	sd	s6, 0x30(s5)
   114fa: 21 45        	c.li	a0, 0x8
   114fc: 03 b6 0a 00  	ld	a2, 0x0(s5)
   11500: 23 a0 aa 04  	sw	a0, 0x40(s5)
   11504: 23 a4 3a 03  	sw	s3, 0x28(s5)
   11508: 23 a6 4a 03  	sw	s4, 0x2c(s5)
   1150c: 23 26 36 03  	sw	s3, 0x2c(a2)
   11510: 23 28 46 03  	sw	s4, 0x30(a2)
   11514: 1c 66        	c.ld	a5, 0x8(a2)
   11516: 23 2a 26 03  	sw	s2, 0x34(a2)
   1151a: 13 05 90 3f  	addi	a0, zero, 0x3f9
   1151e: 85 45        	c.li	a1, 0x1
   11520: 08 d6        	c.sw	a0, 0x28(a2)
   11522: 56 85        	c.mv	a0, s5
   11524: f6 70        	c.ldsp	ra, 0x178(sp)
   11526: 56 74        	c.ldsp	s0, 0x170(sp)
   11528: b6 74        	c.ldsp	s1, 0x168(sp)
   1152a: 16 79        	c.ldsp	s2, 0x160(sp)
   1152c: f6 69        	c.ldsp	s3, 0x158(sp)
   1152e: 56 6a        	c.ldsp	s4, 0x150(sp)
   11530: b6 6a        	c.ldsp	s5, 0x148(sp)
   11532: 16 6b        	c.ldsp	s6, 0x140(sp)
   11534: f2 7b        	c.ldsp	s7, 0x138(sp)
   11536: 52 7c        	c.ldsp	s8, 0x130(sp)
   11538: b2 7c        	c.ldsp	s9, 0x128(sp)
   1153a: 12 7d        	c.ldsp	s10, 0x120(sp)
   1153c: f2 6d        	c.ldsp	s11, 0x118(sp)
   1153e: 19 61        	c.addi16sp	sp, 0x180
   11540: 82 87        	c.jr	a5

0000000000011542 <finish_input_gif>:
   11542: 82 80        	c.jr	ra

0000000000011544 <ReadColorMap>:
   11544: 63 5a b0 08  	bge	zero, a1, 0x115d8 <ReadColorMap+0x94>
   11548: ef c2 71 0e  	jal	t0, 0x2de2e <__riscv_save_7>
   1154c: b2 89        	c.mv	s3, a2
   1154e: 2e 89        	c.mv	s2, a1
   11550: 2a 8a        	c.mv	s4, a0
   11552: 81 44        	c.li	s1, 0x0
   11554: fd 5a        	c.li	s5, -0x1
   11556: 13 0b a0 02  	addi	s6, zero, 0x2a
   1155a: 03 35 8a 01  	ld	a0, 0x18(s4)
   1155e: ef 90 10 2a  	jal	ra, 0x1affe <getc>
   11562: 2a 84        	c.mv	s0, a0
   11564: 63 19 55 01  	bne	a0, s5, 0x11576 <ReadColorMap+0x32>
   11568: 03 35 0a 03  	ld	a0, 0x30(s4)
   1156c: 0c 61        	c.ld	a1, 0x0(a0)
   1156e: 90 61        	c.ld	a2, 0x0(a1)
   11570: 23 a4 65 03  	sw	s6, 0x28(a1)
   11574: 02 96        	c.jalr	a2
   11576: 03 b5 09 00  	ld	a0, 0x0(s3)
   1157a: 26 95        	c.add	a0, s1
   1157c: 23 00 85 00  	sb	s0, 0x0(a0)
   11580: 03 35 8a 01  	ld	a0, 0x18(s4)
   11584: ef 90 b0 27  	jal	ra, 0x1affe <getc>
   11588: 2a 84        	c.mv	s0, a0
   1158a: 63 19 55 01  	bne	a0, s5, 0x1159c <ReadColorMap+0x58>
   1158e: 03 35 0a 03  	ld	a0, 0x30(s4)
   11592: 0c 61        	c.ld	a1, 0x0(a0)
   11594: 90 61        	c.ld	a2, 0x0(a1)
   11596: 23 a4 65 03  	sw	s6, 0x28(a1)
   1159a: 02 96        	c.jalr	a2
   1159c: 03 b5 89 00  	ld	a0, 0x8(s3)
   115a0: 26 95        	c.add	a0, s1
   115a2: 23 00 85 00  	sb	s0, 0x0(a0)
   115a6: 03 35 8a 01  	ld	a0, 0x18(s4)
   115aa: ef 90 50 25  	jal	ra, 0x1affe <getc>
   115ae: 2a 84        	c.mv	s0, a0
   115b0: 63 19 55 01  	bne	a0, s5, 0x115c2 <ReadColorMap+0x7e>
   115b4: 03 35 0a 03  	ld	a0, 0x30(s4)
   115b8: 0c 61        	c.ld	a1, 0x0(a0)
   115ba: 90 61        	c.ld	a2, 0x0(a1)
   115bc: 23 a4 65 03  	sw	s6, 0x28(a1)
   115c0: 02 96        	c.jalr	a2
   115c2: 03 b5 09 01  	ld	a0, 0x10(s3)
   115c6: 26 95        	c.add	a0, s1
   115c8: 85 04        	c.addi	s1, 0x1
   115ca: 23 00 85 00  	sb	s0, 0x0(a0)
   115ce: e3 16 99 f8  	bne	s2, s1, 0x1155a <ReadColorMap+0x16>
   115d2: 6f c0 b1 09  	jal	zero, 0x2de6c <__riscv_restore_7>
   115d6: 09 a0        	c.j	0x115d8 <ReadColorMap+0x94>
   115d8: 82 80        	c.jr	ra

00000000000115da <load_interlaced_image>:
   115da: ef c2 51 05  	jal	t0, 0x2de2e <__riscv_save_7>
   115de: aa 89        	c.mv	s3, a0
   115e0: 48 55        	c.lw	a0, 0x2c(a0)
   115e2: 03 b9 09 01  	ld	s2, 0x10(s3)
   115e6: ae 8a        	c.mv	s5, a1
   115e8: 35 c1        	c.beqz	a0, 0x1164c <load_interlaced_image+0x72>
   115ea: 01 4a        	c.li	s4, 0x0
   115ec: 63 0c 09 00  	beq	s2, zero, 0x11604 <load_interlaced_image+0x2a>
   115f0: 02 15        	c.slli	a0, 0x20
   115f2: 83 35 09 00  	ld	a1, 0x0(s2)
   115f6: 01 91        	c.srli	a0, 0x20
   115f8: 23 38 a9 00  	sd	a0, 0x10(s2)
   115fc: 23 34 49 01  	sd	s4, 0x8(s2)
   11600: 4e 85        	c.mv	a0, s3
   11602: 82 95        	c.jalr	a1
   11604: 03 b5 89 00  	ld	a0, 0x8(s3)
   11608: 1c 7d        	c.ld	a5, 0x38(a0)
   1160a: 83 b5 0a 1a  	ld	a1, 0x1a0(s5)
   1160e: 1b 06 0a 00  	addiw	a2, s4, 0x0
   11612: 85 46        	c.li	a3, 0x1
   11614: 05 47        	c.li	a4, 0x1
   11616: 4e 85        	c.mv	a0, s3
   11618: 82 97        	c.jalr	a5
   1161a: 83 a5 89 02  	lw	a1, 0x28(s3)
   1161e: 95 c1        	c.beqz	a1, 0x11642 <load_interlaced_image+0x68>
   11620: 00 61        	c.ld	s0, 0x0(a0)
   11622: fd 15        	c.addi	a1, -0x1
   11624: 82 15        	c.slli	a1, 0x20
   11626: 81 91        	c.srli	a1, 0x20
   11628: a2 95        	c.add	a1, s0
   1162a: 93 84 15 00  	addi	s1, a1, 0x1
   1162e: 56 85        	c.mv	a0, s5
   11630: ef 00 a0 10  	jal	ra, 0x1173a <LZWReadByte>
   11634: 93 05 14 00  	addi	a1, s0, 0x1
   11638: 23 00 a4 00  	sb	a0, 0x0(s0)
   1163c: 2e 84        	c.mv	s0, a1
   1163e: e3 98 95 fe  	bne	a1, s1, 0x1162e <load_interlaced_image+0x54>
   11642: 03 e5 c9 02  	lwu	a0, 0x2c(s3)
   11646: 05 0a        	c.addi	s4, 0x1
   11648: e3 62 aa fa  	bltu	s4, a0, 0x115ec <load_interlaced_image+0x12>
   1164c: 63 07 09 00  	beq	s2, zero, 0x1165a <load_interlaced_image+0x80>
   11650: 83 25 09 02  	lw	a1, 0x20(s2)
   11654: 85 05        	c.addi	a1, 0x1
   11656: 23 20 b9 02  	sw	a1, 0x20(s2)
   1165a: b7 25 01 00  	lui	a1, 0x12
   1165e: 93 85 85 8c  	addi	a1, a1, -0x738
   11662: 23 b4 ba 00  	sd	a1, 0x8(s5)
   11666: 23 a4 0a 1a  	sw	zero, 0x1a8(s5)
   1166a: 93 05 75 00  	addi	a1, a0, 0x7
   1166e: 9b d5 35 00  	srliw	a1, a1, 0x3
   11672: 23 a6 ba 1a  	sw	a1, 0x1ac(s5)
   11676: 13 06 35 00  	addi	a2, a0, 0x3
   1167a: 1b 56 36 00  	srliw	a2, a2, 0x3
   1167e: b2 95        	c.add	a1, a2
   11680: 23 a8 ba 1a  	sw	a1, 0x1b0(s5)
   11684: 05 05        	c.addi	a0, 0x1
   11686: 1b 55 25 00  	srliw	a0, a0, 0x2
   1168a: 2e 95        	c.add	a0, a1
   1168c: 23 aa aa 1a  	sw	a0, 0x1b4(s5)
   11690: 4e 85        	c.mv	a0, s3
   11692: d6 85        	c.mv	a1, s5
   11694: ef 00 40 23  	jal	ra, 0x118c8 <get_interlaced_row>
   11698: 05 45        	c.li	a0, 0x1
   1169a: 6f c0 21 7d  	jal	zero, 0x2de6c <__riscv_restore_7>

000000000001169e <get_pixel_rows>:
   1169e: ef c2 a1 79  	jal	t0, 0x2de38 <__riscv_save_5>
   116a2: 08 55        	c.lw	a0, 0x28(a0)
   116a4: 29 c9        	c.beqz	a0, 0x116f6 <get_pixel_rows+0x58>
   116a6: 2e 89        	c.mv	s2, a1
   116a8: 8c 71        	c.ld	a1, 0x20(a1)
   116aa: 83 34 89 03  	ld	s1, 0x38(s2)
   116ae: 80 61        	c.ld	s0, 0x0(a1)
   116b0: 7d 15        	c.addi	a0, -0x1
   116b2: 02 15        	c.slli	a0, 0x20
   116b4: 93 55 05 02  	srli	a1, a0, 0x20
   116b8: 7d 81        	c.srli	a0, 0x1f
   116ba: 2e 95        	c.add	a0, a1
   116bc: 22 95        	c.add	a0, s0
   116be: 93 09 35 00  	addi	s3, a0, 0x3
   116c2: 4a 85        	c.mv	a0, s2
   116c4: ef 00 60 07  	jal	ra, 0x1173a <LZWReadByte>
   116c8: 8c 60        	c.ld	a1, 0x0(s1)
   116ca: aa 95        	c.add	a1, a0
   116cc: 83 c5 05 00  	lbu	a1, 0x0(a1)
   116d0: 23 00 b4 00  	sb	a1, 0x0(s0)
   116d4: 8c 64        	c.ld	a1, 0x8(s1)
   116d6: aa 95        	c.add	a1, a0
   116d8: 83 c5 05 00  	lbu	a1, 0x0(a1)
   116dc: a3 00 b4 00  	sb	a1, 0x1(s0)
   116e0: 8c 68        	c.ld	a1, 0x10(s1)
   116e2: 2e 95        	c.add	a0, a1
   116e4: 03 45 05 00  	lbu	a0, 0x0(a0)
   116e8: 93 05 34 00  	addi	a1, s0, 0x3
   116ec: 23 01 a4 00  	sb	a0, 0x2(s0)
   116f0: 2e 84        	c.mv	s0, a1
   116f2: e3 98 35 fd  	bne	a1, s3, 0x116c2 <get_pixel_rows+0x24>
   116f6: 05 45        	c.li	a0, 0x1
   116f8: 6f c0 a1 77  	jal	zero, 0x2de72 <__riscv_restore_5>

00000000000116fc <GetDataBlock>:
   116fc: ef c2 61 74  	jal	t0, 0x2de42 <__riscv_save_3>
   11700: aa 84        	c.mv	s1, a0
   11702: 08 6d        	c.ld	a0, 0x18(a0)
   11704: 2e 89        	c.mv	s2, a1
   11706: ef 90 90 0f  	jal	ra, 0x1affe <getc>
   1170a: fd 55        	c.li	a1, -0x1
   1170c: 2a 84        	c.mv	s0, a0
   1170e: 63 0c b5 00  	beq	a0, a1, 0x11726 <GetDataBlock+0x2a>
   11712: 63 51 80 02  	bge	zero, s0, 0x11734 <GetDataBlock+0x38>
   11716: 94 6c        	c.ld	a3, 0x18(s1)
   11718: 85 45        	c.li	a1, 0x1
   1171a: 4a 85        	c.mv	a0, s2
   1171c: 22 86        	c.mv	a2, s0
   1171e: ef 90 60 6f  	jal	ra, 0x1ae14 <fread>
   11722: 63 09 85 00  	beq	a0, s0, 0x11734 <GetDataBlock+0x38>
   11726: 88 78        	c.ld	a0, 0x30(s1)
   11728: 0c 61        	c.ld	a1, 0x0(a0)
   1172a: 90 61        	c.ld	a2, 0x0(a1)
   1172c: 93 06 a0 02  	addi	a3, zero, 0x2a
   11730: 94 d5        	c.sw	a3, 0x28(a1)
   11732: 02 96        	c.jalr	a2
   11734: 22 85        	c.mv	a0, s0
   11736: 6f c0 21 74  	jal	zero, 0x2de78 <__riscv_restore_3>

000000000001173a <LZWReadByte>:
   1173a: ef c2 a1 71  	jal	t0, 0x2de54 <__riscv_save_1>
   1173e: 11 71        	c.addi16sp	sp, -0x100
   11740: 2a 84        	c.mv	s0, a0
   11742: 03 25 c5 16  	lw	a0, 0x16c(a0)
   11746: 21 cd        	c.beqz	a0, 0x1179e <LZWReadByte+0x64>
   11748: 83 25 84 15  	lw	a1, 0x158(s0)
   1174c: 23 26 04 16  	sw	zero, 0x16c(s0)
   11750: 03 25 44 15  	lw	a0, 0x154(s0)
   11754: 05 05        	c.addi	a0, 0x1
   11756: 23 20 a4 16  	sw	a0, 0x160(s0)
   1175a: 13 95 15 00  	slli	a0, a1, 0x1
   1175e: 03 36 84 18  	ld	a2, 0x188(s0)
   11762: 23 22 a4 16  	sw	a0, 0x164(s0)
   11766: 89 05        	c.addi	a1, 0x2
   11768: 23 24 b4 16  	sw	a1, 0x168(s0)
   1176c: 23 38 c4 18  	sd	a2, 0x190(s0)
   11770: 22 85        	c.mv	a0, s0
   11772: ef 00 a0 21  	jal	ra, 0x1198c <GetCode>
   11776: 83 25 84 15  	lw	a1, 0x158(s0)
   1177a: e3 0b b5 fe  	beq	a0, a1, 0x11770 <LZWReadByte+0x36>
   1177e: 63 db a5 00  	bge	a1, a0, 0x11794 <LZWReadByte+0x5a>
   11782: 08 78        	c.ld	a0, 0x30(s0)
   11784: 0c 61        	c.ld	a1, 0x0(a0)
   11786: 90 65        	c.ld	a2, 0x8(a1)
   11788: 93 06 d0 3f  	addi	a3, zero, 0x3fd
   1178c: 94 d5        	c.sw	a3, 0x28(a1)
   1178e: fd 55        	c.li	a1, -0x1
   11790: 02 96        	c.jalr	a2
   11792: 01 45        	c.li	a0, 0x0
   11794: 23 28 a4 16  	sw	a0, 0x170(s0)
   11798: 23 2a a4 16  	sw	a0, 0x174(s0)
   1179c: 29 a8        	c.j	0x117b6 <LZWReadByte+0x7c>
   1179e: 03 35 04 19  	ld	a0, 0x190(s0)
   117a2: 83 35 84 18  	ld	a1, 0x188(s0)
   117a6: 63 fb a5 00  	bgeu	a1, a0, 0x117bc <LZWReadByte+0x82>
   117aa: 93 05 f5 ff  	addi	a1, a0, -0x1
   117ae: 23 38 b4 18  	sd	a1, 0x190(s0)
   117b2: 03 45 f5 ff  	lbu	a0, -0x1(a0)
   117b6: 11 61        	c.addi16sp	sp, 0x100
   117b8: 6f c0 61 6c  	jal	zero, 0x2de7e <__riscv_restore_1>
   117bc: 22 85        	c.mv	a0, s0
   117be: ef 00 e0 1c  	jal	ra, 0x1198c <GetCode>
   117c2: 83 25 84 15  	lw	a1, 0x158(s0)
   117c6: e3 05 b5 f8  	beq	a0, a1, 0x11750 <LZWReadByte+0x16>
   117ca: 83 25 c4 15  	lw	a1, 0x15c(s0)
   117ce: 63 18 b5 02  	bne	a0, a1, 0x117fe <LZWReadByte+0xc4>
   117d2: 03 25 04 15  	lw	a0, 0x150(s0)
   117d6: 11 e9        	c.bnez	a0, 0x117ea <LZWReadByte+0xb0>
   117d8: 8a 85        	c.mv	a1, sp
   117da: 22 85        	c.mv	a0, s0
   117dc: ef f0 1f f2  	jal	ra, 0x116fc <GetDataBlock>
   117e0: e3 4c a0 fe  	blt	zero, a0, 0x117d8 <LZWReadByte+0x9e>
   117e4: 05 45        	c.li	a0, 0x1
   117e6: 23 28 a4 14  	sw	a0, 0x150(s0)
   117ea: 08 78        	c.ld	a0, 0x30(s0)
   117ec: 0c 61        	c.ld	a1, 0x0(a0)
   117ee: 90 65        	c.ld	a2, 0x8(a1)
   117f0: 93 06 f0 3f  	addi	a3, zero, 0x3ff
   117f4: 94 d5        	c.sw	a3, 0x28(a1)
   117f6: fd 55        	c.li	a1, -0x1
   117f8: 02 96        	c.jalr	a2
   117fa: 01 45        	c.li	a0, 0x0
   117fc: 6d bf        	c.j	0x117b6 <LZWReadByte+0x7c>
   117fe: 83 25 84 16  	lw	a1, 0x168(s0)
   11802: 63 54 b5 00  	bge	a0, a1, 0x1180a <LZWReadByte+0xd0>
   11806: 2a 88        	c.mv	a6, a0
   11808: a9 a8        	c.j	0x11862 <LZWReadByte+0x128>
   1180a: 63 db a5 00  	bge	a1, a0, 0x11820 <LZWReadByte+0xe6>
   1180e: 08 78        	c.ld	a0, 0x30(s0)
   11810: 0c 61        	c.ld	a1, 0x0(a0)
   11812: 90 65        	c.ld	a2, 0x8(a1)
   11814: 93 06 d0 3f  	addi	a3, zero, 0x3fd
   11818: 94 d5        	c.sw	a3, 0x28(a1)
   1181a: fd 55        	c.li	a1, -0x1
   1181c: 02 96        	c.jalr	a2
   1181e: 01 45        	c.li	a0, 0x0
   11820: 03 36 04 19  	ld	a2, 0x190(s0)
   11824: 83 46 44 17  	lbu	a3, 0x174(s0)
   11828: 2a 88        	c.mv	a6, a0
   1182a: 13 05 16 00  	addi	a0, a2, 0x1
   1182e: 23 38 a4 18  	sd	a0, 0x190(s0)
   11832: 23 00 d6 00  	sb	a3, 0x0(a2)
   11836: 03 25 04 17  	lw	a0, 0x170(s0)
   1183a: 25 a0        	c.j	0x11862 <LZWReadByte+0x128>
   1183c: 03 36 04 18  	ld	a2, 0x180(s0)
   11840: 83 36 04 19  	ld	a3, 0x190(s0)
   11844: 2a 96        	c.add	a2, a0
   11846: 03 46 06 00  	lbu	a2, 0x0(a2)
   1184a: 13 87 16 00  	addi	a4, a3, 0x1
   1184e: 23 38 e4 18  	sd	a4, 0x190(s0)
   11852: 23 80 c6 00  	sb	a2, 0x0(a3)
   11856: 03 36 84 17  	ld	a2, 0x178(s0)
   1185a: 06 05        	c.slli	a0, 0x1
   1185c: 32 95        	c.add	a0, a2
   1185e: 03 55 05 00  	lhu	a0, 0x0(a0)
   11862: 03 26 84 15  	lw	a2, 0x158(s0)
   11866: e3 5b c5 fc  	bge	a0, a2, 0x1183c <LZWReadByte+0x102>
   1186a: 83 25 84 16  	lw	a1, 0x168(s0)
   1186e: 85 66        	c.lui	a3, 0x1
   11870: fd 36        	c.addiw	a3, -0x1
   11872: 23 2a a4 16  	sw	a0, 0x174(s0)
   11876: 63 c4 b6 04  	blt	a3, a1, 0x118be <LZWReadByte+0x184>
   1187a: 83 36 84 17  	ld	a3, 0x178(s0)
   1187e: 03 17 04 17  	lh	a4, 0x170(s0)
   11882: 83 37 04 18  	ld	a5, 0x180(s0)
   11886: 13 96 15 00  	slli	a2, a1, 0x1
   1188a: 36 96        	c.add	a2, a3
   1188c: 23 10 e6 00  	sh	a4, 0x0(a2)
   11890: be 95        	c.add	a1, a5
   11892: 23 80 a5 00  	sb	a0, 0x0(a1)
   11896: 83 25 84 16  	lw	a1, 0x168(s0)
   1189a: 03 25 44 16  	lw	a0, 0x164(s0)
   1189e: 85 25        	c.addiw	a1, 0x1
   118a0: 23 24 b4 16  	sw	a1, 0x168(s0)
   118a4: 63 cd a5 00  	blt	a1, a0, 0x118be <LZWReadByte+0x184>
   118a8: 03 26 04 16  	lw	a2, 0x160(s0)
   118ac: ad 45        	c.li	a1, 0xb
   118ae: 63 c8 c5 00  	blt	a1, a2, 0x118be <LZWReadByte+0x184>
   118b2: 05 06        	c.addi	a2, 0x1
   118b4: 23 20 c4 16  	sw	a2, 0x160(s0)
   118b8: 06 05        	c.slli	a0, 0x1
   118ba: 23 22 a4 16  	sw	a0, 0x164(s0)
   118be: 03 25 44 17  	lw	a0, 0x174(s0)
   118c2: 23 28 04 17  	sw	a6, 0x170(s0)
   118c6: c5 bd        	c.j	0x117b6 <LZWReadByte+0x7c>

00000000000118c8 <get_interlaced_row>:
   118c8: ef c2 a1 57  	jal	t0, 0x2de42 <__riscv_save_3>
   118cc: 2e 84        	c.mv	s0, a1
   118ce: 83 a5 85 1a  	lw	a1, 0x1a8(a1)
   118d2: 13 f6 75 00  	andi	a2, a1, 0x7
   118d6: 8d 46        	c.li	a3, 0x3
   118d8: 2a 89        	c.mv	s2, a0
   118da: 63 cb c6 00  	blt	a3, a2, 0x118f0 <get_interlaced_row+0x28>
   118de: 05 c6        	c.beqz	a2, 0x11906 <get_interlaced_row+0x3e>
   118e0: 09 45        	c.li	a0, 0x2
   118e2: 63 0d a6 00  	beq	a2, a0, 0x118fc <get_interlaced_row+0x34>
   118e6: 03 25 44 1b  	lw	a0, 0x1b4(s0)
   118ea: 1b d6 15 00  	srliw	a2, a1, 0x1
   118ee: 1d a0        	c.j	0x11914 <get_interlaced_row+0x4c>
   118f0: 11 45        	c.li	a0, 0x4
   118f2: 63 0d a6 00  	beq	a2, a0, 0x1190c <get_interlaced_row+0x44>
   118f6: 19 45        	c.li	a0, 0x6
   118f8: e3 17 a6 fe  	bne	a2, a0, 0x118e6 <get_interlaced_row+0x1e>
   118fc: 03 25 04 1b  	lw	a0, 0x1b0(s0)
   11900: 1b d6 25 00  	srliw	a2, a1, 0x2
   11904: 01 a8        	c.j	0x11914 <get_interlaced_row+0x4c>
   11906: 1b d6 35 00  	srliw	a2, a1, 0x3
   1190a: 31 a0        	c.j	0x11916 <get_interlaced_row+0x4e>
   1190c: 03 25 c4 1a  	lw	a0, 0x1ac(s0)
   11910: 1b d6 35 00  	srliw	a2, a1, 0x3
   11914: 29 9e        	c.addw	a2, a0
   11916: 03 35 89 00  	ld	a0, 0x8(s2)
   1191a: 04 7c        	c.ld	s1, 0x38(s0)
   1191c: 1c 7d        	c.ld	a5, 0x38(a0)
   1191e: 83 35 04 1a  	ld	a1, 0x1a0(s0)
   11922: 85 46        	c.li	a3, 0x1
   11924: 4a 85        	c.mv	a0, s2
   11926: 01 47        	c.li	a4, 0x0
   11928: 82 97        	c.jalr	a5
   1192a: 03 26 89 02  	lw	a2, 0x28(s2)
   1192e: 31 c6        	c.beqz	a2, 0x1197a <get_interlaced_row+0xb2>
   11930: 0c 70        	c.ld	a1, 0x20(s0)
   11932: 8c 61        	c.ld	a1, 0x0(a1)
   11934: 08 61        	c.ld	a0, 0x0(a0)
   11936: 7d 16        	c.addi	a2, -0x1
   11938: 02 16        	c.slli	a2, 0x20
   1193a: 93 56 06 02  	srli	a3, a2, 0x20
   1193e: 7d 82        	c.srli	a2, 0x1f
   11940: 36 96        	c.add	a2, a3
   11942: 2e 96        	c.add	a2, a1
   11944: 0d 06        	c.addi	a2, 0x3
   11946: 83 46 05 00  	lbu	a3, 0x0(a0)
   1194a: 98 60        	c.ld	a4, 0x0(s1)
   1194c: 36 97        	c.add	a4, a3
   1194e: 03 47 07 00  	lbu	a4, 0x0(a4)
   11952: 23 80 e5 00  	sb	a4, 0x0(a1)
   11956: 98 64        	c.ld	a4, 0x8(s1)
   11958: 36 97        	c.add	a4, a3
   1195a: 03 47 07 00  	lbu	a4, 0x0(a4)
   1195e: a3 80 e5 00  	sb	a4, 0x1(a1)
   11962: 98 68        	c.ld	a4, 0x10(s1)
   11964: ba 96        	c.add	a3, a4
   11966: 83 c6 06 00  	lbu	a3, 0x0(a3)
   1196a: 05 05        	c.addi	a0, 0x1
   1196c: 13 87 35 00  	addi	a4, a1, 0x3
   11970: 23 81 d5 00  	sb	a3, 0x2(a1)
   11974: ba 85        	c.mv	a1, a4
   11976: e3 18 c7 fc  	bne	a4, a2, 0x11946 <get_interlaced_row+0x7e>
   1197a: 03 25 84 1a  	lw	a0, 0x1a8(s0)
   1197e: 93 05 15 00  	addi	a1, a0, 0x1
   11982: 05 45        	c.li	a0, 0x1
   11984: 23 24 b4 1a  	sw	a1, 0x1a8(s0)
   11988: 6f c0 01 4f  	jal	zero, 0x2de78 <__riscv_restore_3>

000000000001198c <GetCode>:
   1198c: ef c2 61 4b  	jal	t0, 0x2de42 <__riscv_save_3>
   11990: 2a 84        	c.mv	s0, a0
   11992: 83 25 c5 14  	lw	a1, 0x14c(a0)
   11996: 03 26 05 16  	lw	a2, 0x160(a0)
   1199a: 03 25 85 14  	lw	a0, 0x148(a0)
   1199e: bb 06 b6 00  	addw	a3, a2, a1
   119a2: 63 52 d5 06  	bge	a0, a3, 0x11a06 <GetCode+0x7a>
   119a6: 13 09 24 04  	addi	s2, s0, 0x42
   119aa: 93 04 04 04  	addi	s1, s0, 0x40
   119ae: 03 25 04 15  	lw	a0, 0x150(s0)
   119b2: 41 e5        	c.bnez	a0, 0x11a3a <GetCode+0xae>
   119b4: 03 25 44 14  	lw	a0, 0x144(s0)
   119b8: 9b 05 e5 ff  	addiw	a1, a0, -0x2
   119bc: a6 95        	c.add	a1, s1
   119be: 83 c5 05 00  	lbu	a1, 0x0(a1)
   119c2: 23 00 b4 04  	sb	a1, 0x40(s0)
   119c6: 7d 35        	c.addiw	a0, -0x1
   119c8: 26 95        	c.add	a0, s1
   119ca: 03 45 05 00  	lbu	a0, 0x0(a0)
   119ce: a3 00 a4 04  	sb	a0, 0x41(s0)
   119d2: 22 85        	c.mv	a0, s0
   119d4: ca 85        	c.mv	a1, s2
   119d6: ef f0 7f d2  	jal	ra, 0x116fc <GetDataBlock>
   119da: 2d c9        	c.beqz	a0, 0x11a4c <GetCode+0xc0>
   119dc: 83 25 c4 14  	lw	a1, 0x14c(s0)
   119e0: 03 26 84 14  	lw	a2, 0x148(s0)
   119e4: 91 9d        	c.subw	a1, a2
   119e6: c1 05        	c.addi	a1, 0x10
   119e8: 23 26 b4 14  	sw	a1, 0x14c(s0)
   119ec: 03 26 04 16  	lw	a2, 0x160(s0)
   119f0: 09 05        	c.addi	a0, 0x2
   119f2: 23 22 a4 14  	sw	a0, 0x144(s0)
   119f6: 1b 15 35 00  	slliw	a0, a0, 0x3
   119fa: bb 06 b6 00  	addw	a3, a2, a1
   119fe: 23 24 a4 14  	sw	a0, 0x148(s0)
   11a02: e3 46 d5 fa  	blt	a0, a3, 0x119ae <GetCode+0x22>
   11a06: 1b d5 35 40  	sraiw	a0, a1, 0x3
   11a0a: 22 95        	c.add	a0, s0
   11a0c: 03 47 25 04  	lbu	a4, 0x42(a0)
   11a10: 83 47 15 04  	lbu	a5, 0x41(a0)
   11a14: 03 45 05 04  	lbu	a0, 0x40(a0)
   11a18: 42 07        	c.slli	a4, 0x10
   11a1a: a2 07        	c.slli	a5, 0x8
   11a1c: 5d 8f        	c.or	a4, a5
   11a1e: 59 8d        	c.or	a0, a4
   11a20: 9d 89        	c.andi	a1, 0x7
   11a22: 3b 55 b5 00  	srlw	a0, a0, a1
   11a26: fd 55        	c.li	a1, -0x1
   11a28: bb 95 c5 00  	sllw	a1, a1, a2
   11a2c: 93 c5 f5 ff  	xori	a1, a1, -0x1
   11a30: 6d 8d        	c.and	a0, a1
   11a32: 23 26 d4 14  	sw	a3, 0x14c(s0)
   11a36: 6f c0 21 44  	jal	zero, 0x2de78 <__riscv_restore_3>
   11a3a: 08 78        	c.ld	a0, 0x30(s0)
   11a3c: 0c 61        	c.ld	a1, 0x0(a0)
   11a3e: 90 65        	c.ld	a2, 0x8(a1)
   11a40: 93 06 00 40  	addi	a3, zero, 0x400
   11a44: 94 d5        	c.sw	a3, 0x28(a1)
   11a46: fd 55        	c.li	a1, -0x1
   11a48: 02 96        	c.jalr	a2
   11a4a: 21 a8        	c.j	0x11a62 <GetCode+0xd6>
   11a4c: 08 78        	c.ld	a0, 0x30(s0)
   11a4e: 0c 61        	c.ld	a1, 0x0(a0)
   11a50: 13 06 00 40  	addi	a2, zero, 0x400
   11a54: 94 65        	c.ld	a3, 0x8(a1)
   11a56: 90 d5        	c.sw	a2, 0x28(a1)
   11a58: 85 45        	c.li	a1, 0x1
   11a5a: 23 28 b4 14  	sw	a1, 0x150(s0)
   11a5e: fd 55        	c.li	a1, -0x1
   11a60: 82 96        	c.jalr	a3
   11a62: 03 25 c4 15  	lw	a0, 0x15c(s0)
   11a66: 6f c0 21 41  	jal	zero, 0x2de78 <__riscv_restore_3>

0000000000011a6a <jinit_read_targa>:
   11a6a: ef c2 a1 3e  	jal	t0, 0x2de54 <__riscv_save_1>
   11a6e: 2a 84        	c.mv	s0, a0
   11a70: 08 65        	c.ld	a0, 0x8(a0)
   11a72: 14 61        	c.ld	a3, 0x0(a0)
   11a74: 85 45        	c.li	a1, 0x1
   11a76: 13 06 00 07  	addi	a2, zero, 0x70
   11a7a: 22 85        	c.mv	a0, s0
   11a7c: 82 96        	c.jalr	a3
   11a7e: 00 f9        	c.sd	s0, 0x30(a0)
   11a80: b7 25 01 00  	lui	a1, 0x12
   11a84: 93 85 85 a9  	addi	a1, a1, -0x568
   11a88: 0c e1        	c.sd	a1, 0x0(a0)
   11a8a: b7 25 01 00  	lui	a1, 0x12
   11a8e: 93 85 05 e3  	addi	a1, a1, -0x1d0
   11a92: 0c e9        	c.sd	a1, 0x10(a0)
   11a94: 6f c0 a1 3e  	jal	zero, 0x2de7e <__riscv_restore_1>

0000000000011a98 <start_input_tga>:
   11a98: ef c2 a1 37  	jal	t0, 0x2de12 <__riscv_save_12>
   11a9c: 01 11        	c.addi	sp, -0x20
   11a9e: ae 8d        	c.mv	s11, a1
   11aa0: 94 6d        	c.ld	a3, 0x18(a1)
   11aa2: aa 8a        	c.mv	s5, a0
   11aa4: 13 05 e1 00  	addi	a0, sp, 0xe
   11aa8: 85 45        	c.li	a1, 0x1
   11aaa: 49 46        	c.li	a2, 0x12
   11aac: 49 44        	c.li	s0, 0x12
   11aae: ef 90 60 36  	jal	ra, 0x1ae14 <fread>
   11ab2: 63 0a 85 00  	beq	a0, s0, 0x11ac6 <start_input_tga+0x2e>
   11ab6: 03 b5 0a 00  	ld	a0, 0x0(s5)
   11aba: 0c 61        	c.ld	a1, 0x0(a0)
   11abc: 13 06 a0 02  	addi	a2, zero, 0x2a
   11ac0: 10 d5        	c.sw	a2, 0x28(a0)
   11ac2: 56 85        	c.mv	a0, s5
   11ac4: 82 95        	c.jalr	a1
   11ac6: 03 45 e1 01  	lbu	a0, 0x1e(sp)
   11aca: bd 45        	c.li	a1, 0xf
   11acc: 63 13 b5 00  	bne	a0, a1, 0x11ad2 <start_input_tga+0x3a>
   11ad0: 41 45        	c.li	a0, 0x10
   11ad2: 03 44 e1 00  	lbu	s0, 0xe(sp)
   11ad6: 83 4b f1 00  	lbu	s7, 0xf(sp)
   11ada: 83 44 01 01  	lbu	s1, 0x10(sp)
   11ade: 03 4b 31 01  	lbu	s6, 0x13(sp)
   11ae2: 03 4c 41 01  	lbu	s8, 0x14(sp)
   11ae6: 03 49 a1 01  	lbu	s2, 0x1a(sp)
   11aea: 03 4d b1 01  	lbu	s10, 0x1b(sp)
   11aee: 83 49 c1 01  	lbu	s3, 0x1c(sp)
   11af2: 83 4c d1 01  	lbu	s9, 0x1d(sp)
   11af6: 93 55 35 00  	srli	a1, a0, 0x3
   11afa: 03 4a f1 01  	lbu	s4, 0x1f(sp)
   11afe: 23 ae bd 04  	sw	a1, 0x5c(s11)
   11b02: 85 45        	c.li	a1, 0x1
   11b04: 23 0f a1 00  	sb	a0, 0x1e(sp)
   11b08: 63 ef 75 01  	bltu	a1, s7, 0x11b26 <start_input_tga+0x8e>
   11b0c: a1 45        	c.li	a1, 0x8
   11b0e: 63 6c b5 00  	bltu	a0, a1, 0x11b26 <start_input_tga+0x8e>
   11b12: 93 05 70 02  	addi	a1, zero, 0x27
   11b16: 63 e8 a5 00  	bltu	a1, a0, 0x11b26 <start_input_tga+0x8e>
   11b1a: 1d 89        	c.andi	a0, 0x7
   11b1c: 09 e5        	c.bnez	a0, 0x11b26 <start_input_tga+0x8e>
   11b1e: 13 05 00 04  	addi	a0, zero, 0x40
   11b22: 63 6a aa 00  	bltu	s4, a0, 0x11b36 <start_input_tga+0x9e>
   11b26: 03 b5 0a 00  	ld	a0, 0x0(s5)
   11b2a: 0c 61        	c.ld	a1, 0x0(a0)
   11b2c: 13 06 90 40  	addi	a2, zero, 0x409
   11b30: 10 d5        	c.sw	a2, 0x28(a0)
   11b32: 56 85        	c.mv	a0, s5
   11b34: 82 95        	c.jalr	a1
   11b36: 22 0d        	c.slli	s10, 0x8
   11b38: 25 45        	c.li	a0, 0x9
   11b3a: a2 0c        	c.slli	s9, 0x8
   11b3c: 63 ea a4 00  	bltu	s1, a0, 0x11b50 <start_input_tga+0xb8>
   11b40: 23 b0 0d 06  	sd	zero, 0x60(s11)
   11b44: 37 25 01 00  	lui	a0, 0x12
   11b48: 13 05 25 e3  	addi	a0, a0, -0x1ce
   11b4c: e1 14        	c.addi	s1, -0x8
   11b4e: 29 a0        	c.j	0x11b58 <start_input_tga+0xc0>
   11b50: 37 25 01 00  	lui	a0, 0x12
   11b54: 13 05 e5 eb  	addi	a0, a0, -0x142
   11b58: 33 69 2d 01  	or	s2, s10, s2
   11b5c: b3 e9 3c 01  	or	s3, s9, s3
   11b60: 93 7c 0a 02  	andi	s9, s4, 0x20
   11b64: 23 b8 ad 04  	sd	a0, 0x50(s11)
   11b68: 09 45        	c.li	a0, 0x2
   11b6a: 8d 45        	c.li	a1, 0x3
   11b6c: 23 aa aa 02  	sw	a0, 0x34(s5)
   11b70: 63 85 b4 04  	beq	s1, a1, 0x11bba <start_input_tga+0x122>
   11b74: 63 83 a4 02  	beq	s1, a0, 0x11b9a <start_input_tga+0x102>
   11b78: 05 45        	c.li	a0, 0x1
   11b7a: 63 9e a4 04  	bne	s1, a0, 0x11bd6 <start_input_tga+0x13e>
   11b7e: 83 a5 cd 05  	lw	a1, 0x5c(s11)
   11b82: 63 9a a5 06  	bne	a1, a0, 0x11bf6 <start_input_tga+0x15e>
   11b86: 05 45        	c.li	a0, 0x1
   11b88: 63 97 ab 06  	bne	s7, a0, 0x11bf6 <start_input_tga+0x15e>
   11b8c: 37 25 01 00  	lui	a0, 0x12
   11b90: 13 05 05 ef  	addi	a0, a0, -0x110
   11b94: 23 b4 ad 06  	sd	a0, 0x68(s11)
   11b98: bd a0        	c.j	0x11c06 <start_input_tga+0x16e>
   11b9a: 03 a5 cd 05  	lw	a0, 0x5c(s11)
   11b9e: 91 45        	c.li	a1, 0x4
   11ba0: 63 04 b5 04  	beq	a0, a1, 0x11be8 <start_input_tga+0x150>
   11ba4: 8d 45        	c.li	a1, 0x3
   11ba6: 63 01 b5 04  	beq	a0, a1, 0x11be8 <start_input_tga+0x150>
   11baa: 89 45        	c.li	a1, 0x2
   11bac: 63 11 b5 0a  	bne	a0, a1, 0x11c4e <start_input_tga+0x1b6>
   11bb0: 37 25 01 00  	lui	a0, 0x12
   11bb4: 13 05 45 f5  	addi	a0, a0, -0xac
   11bb8: 25 a8        	c.j	0x11bf0 <start_input_tga+0x158>
   11bba: 03 a5 cd 05  	lw	a0, 0x5c(s11)
   11bbe: 85 45        	c.li	a1, 0x1
   11bc0: 23 aa ba 02  	sw	a1, 0x34(s5)
   11bc4: 63 1a b5 04  	bne	a0, a1, 0x11c18 <start_input_tga+0x180>
   11bc8: 37 25 01 00  	lui	a0, 0x12
   11bcc: 13 05 85 01  	addi	a0, a0, 0x18
   11bd0: 23 b4 ad 06  	sd	a0, 0x68(s11)
   11bd4: 91 a8        	c.j	0x11c28 <start_input_tga+0x190>
   11bd6: 03 b5 0a 00  	ld	a0, 0x0(s5)
   11bda: 0c 61        	c.ld	a1, 0x0(a0)
   11bdc: 13 06 90 40  	addi	a2, zero, 0x409
   11be0: 10 d5        	c.sw	a2, 0x28(a0)
   11be2: 56 85        	c.mv	a0, s5
   11be4: 82 95        	c.jalr	a1
   11be6: 69 a8        	c.j	0x11c80 <start_input_tga+0x1e8>
   11be8: 37 25 01 00  	lui	a0, 0x12
   11bec: 13 05 a5 fc  	addi	a0, a0, -0x36
   11bf0: 23 b4 ad 06  	sd	a0, 0x68(s11)
   11bf4: ad a0        	c.j	0x11c5e <start_input_tga+0x1c6>
   11bf6: 03 b5 0a 00  	ld	a0, 0x0(s5)
   11bfa: 0c 61        	c.ld	a1, 0x0(a0)
   11bfc: 13 06 90 40  	addi	a2, zero, 0x409
   11c00: 10 d5        	c.sw	a2, 0x28(a0)
   11c02: 56 85        	c.mv	a0, s5
   11c04: 82 95        	c.jalr	a1
   11c06: 03 b5 0a 00  	ld	a0, 0x0(s5)
   11c0a: 23 26 25 03  	sw	s2, 0x2c(a0)
   11c0e: 83 b5 0a 00  	ld	a1, 0x0(s5)
   11c12: 13 06 d0 40  	addi	a2, zero, 0x40d
   11c16: a1 a8        	c.j	0x11c6e <start_input_tga+0x1d6>
   11c18: 03 b5 0a 00  	ld	a0, 0x0(s5)
   11c1c: 0c 61        	c.ld	a1, 0x0(a0)
   11c1e: 13 06 90 40  	addi	a2, zero, 0x409
   11c22: 10 d5        	c.sw	a2, 0x28(a0)
   11c24: 56 85        	c.mv	a0, s5
   11c26: 82 95        	c.jalr	a1
   11c28: 03 b5 0a 00  	ld	a0, 0x0(s5)
   11c2c: 23 26 25 03  	sw	s2, 0x2c(a0)
   11c30: 83 b5 0a 00  	ld	a1, 0x0(s5)
   11c34: 13 06 c0 40  	addi	a2, zero, 0x40c
   11c38: 10 d5        	c.sw	a2, 0x28(a0)
   11c3a: 23 a8 35 03  	sw	s3, 0x30(a1)
   11c3e: 03 b5 0a 00  	ld	a0, 0x0(s5)
   11c42: 10 65        	c.ld	a2, 0x8(a0)
   11c44: 85 45        	c.li	a1, 0x1
   11c46: 05 4a        	c.li	s4, 0x1
   11c48: 56 85        	c.mv	a0, s5
   11c4a: 02 96        	c.jalr	a2
   11c4c: 1d a8        	c.j	0x11c82 <start_input_tga+0x1ea>
   11c4e: 03 b5 0a 00  	ld	a0, 0x0(s5)
   11c52: 0c 61        	c.ld	a1, 0x0(a0)
   11c54: 13 06 90 40  	addi	a2, zero, 0x409
   11c58: 10 d5        	c.sw	a2, 0x28(a0)
   11c5a: 56 85        	c.mv	a0, s5
   11c5c: 82 95        	c.jalr	a1
   11c5e: 03 b5 0a 00  	ld	a0, 0x0(s5)
   11c62: 23 26 25 03  	sw	s2, 0x2c(a0)
   11c66: 83 b5 0a 00  	ld	a1, 0x0(s5)
   11c6a: 13 06 b0 40  	addi	a2, zero, 0x40b
   11c6e: 10 d5        	c.sw	a2, 0x28(a0)
   11c70: 23 a8 35 03  	sw	s3, 0x30(a1)
   11c74: 03 b5 0a 00  	ld	a0, 0x0(s5)
   11c78: 10 65        	c.ld	a2, 0x8(a0)
   11c7a: 85 45        	c.li	a1, 0x1
   11c7c: 56 85        	c.mv	a0, s5
   11c7e: 02 96        	c.jalr	a2
   11c80: 0d 4a        	c.li	s4, 0x3
   11c82: 13 1d 8c 00  	slli	s10, s8, 0x8
   11c86: 63 90 0c 04  	bne	s9, zero, 0x11cc6 <start_input_tga+0x22e>
   11c8a: 03 b5 8a 00  	ld	a0, 0x8(s5)
   11c8e: 04 71        	c.ld	s1, 0x20(a0)
   11c90: 52 85        	c.mv	a0, s4
   11c92: ca 85        	c.mv	a1, s2
   11c94: ef c0 41 1f  	jal	ra, 0x2de88 <__muldi3>
   11c98: aa 86        	c.mv	a3, a0
   11c9a: 85 45        	c.li	a1, 0x1
   11c9c: 85 47        	c.li	a5, 0x1
   11c9e: 05 4c        	c.li	s8, 0x1
   11ca0: 56 85        	c.mv	a0, s5
   11ca2: 01 46        	c.li	a2, 0x0
   11ca4: 4e 87        	c.mv	a4, s3
   11ca6: 82 94        	c.jalr	s1
   11ca8: 83 b5 0a 01  	ld	a1, 0x10(s5)
   11cac: 23 b0 ad 04  	sd	a0, 0x40(s11)
   11cb0: 81 c5        	c.beqz	a1, 0x11cb8 <start_input_tga+0x220>
   11cb2: c8 51        	c.lw	a0, 0x24(a1)
   11cb4: 05 05        	c.addi	a0, 0x1
   11cb6: c8 d1        	c.sw	a0, 0x24(a1)
   11cb8: 23 a4 8d 03  	sw	s8, 0x28(s11)
   11cbc: 37 25 01 00  	lui	a0, 0x12
   11cc0: 93 05 05 05  	addi	a1, a0, 0x50
   11cc4: 35 a0        	c.j	0x11cf0 <start_input_tga+0x258>
   11cc6: 03 b5 8a 00  	ld	a0, 0x8(s5)
   11cca: 04 69        	c.ld	s1, 0x10(a0)
   11ccc: 23 b0 0d 04  	sd	zero, 0x40(s11)
   11cd0: 52 85        	c.mv	a0, s4
   11cd2: ca 85        	c.mv	a1, s2
   11cd4: ef c0 41 1b  	jal	ra, 0x2de88 <__muldi3>
   11cd8: 2a 86        	c.mv	a2, a0
   11cda: 85 45        	c.li	a1, 0x1
   11cdc: 85 46        	c.li	a3, 0x1
   11cde: 05 4c        	c.li	s8, 0x1
   11ce0: 56 85        	c.mv	a0, s5
   11ce2: 82 94        	c.jalr	s1
   11ce4: 83 b5 8d 06  	ld	a1, 0x68(s11)
   11ce8: 23 b0 ad 02  	sd	a0, 0x20(s11)
   11cec: 23 a4 8d 03  	sw	s8, 0x28(s11)
   11cf0: 33 6c 6d 01  	or	s8, s10, s6
   11cf4: 23 b4 bd 00  	sd	a1, 0x8(s11)
   11cf8: 1d c0        	c.beqz	s0, 0x11d1e <start_input_tga+0x286>
   11cfa: fd 54        	c.li	s1, -0x1
   11cfc: 93 0c a0 02  	addi	s9, zero, 0x2a
   11d00: 03 b5 8d 01  	ld	a0, 0x18(s11)
   11d04: ef 90 a0 2f  	jal	ra, 0x1affe <getc>
   11d08: 63 19 95 00  	bne	a0, s1, 0x11d1a <start_input_tga+0x282>
   11d0c: 03 b5 0d 03  	ld	a0, 0x30(s11)
   11d10: 0c 61        	c.ld	a1, 0x0(a0)
   11d12: 90 61        	c.ld	a2, 0x0(a1)
   11d14: 23 a4 95 03  	sw	s9, 0x28(a1)
   11d18: 02 96        	c.jalr	a2
   11d1a: 7d 34        	c.addiw	s0, -0x1
   11d1c: 75 f0        	c.bnez	s0, 0x11d00 <start_input_tga+0x268>
   11d1e: 63 01 0c 0e  	beq	s8, zero, 0x11e00 <start_input_tga+0x368>
   11d22: 13 05 00 10  	addi	a0, zero, 0x100
   11d26: 63 69 85 01  	bltu	a0, s8, 0x11d38 <start_input_tga+0x2a0>
   11d2a: 03 45 21 01  	lbu	a0, 0x12(sp)
   11d2e: 83 45 11 01  	lbu	a1, 0x11(sp)
   11d32: 22 05        	c.slli	a0, 0x8
   11d34: 4d 8d        	c.or	a0, a1
   11d36: 09 c9        	c.beqz	a0, 0x11d48 <start_input_tga+0x2b0>
   11d38: 03 b5 0a 00  	ld	a0, 0x0(s5)
   11d3c: 0c 61        	c.ld	a1, 0x0(a0)
   11d3e: 13 06 80 40  	addi	a2, zero, 0x408
   11d42: 10 d5        	c.sw	a2, 0x28(a0)
   11d44: 56 85        	c.mv	a0, s5
   11d46: 82 95        	c.jalr	a1
   11d48: 03 b5 8a 00  	ld	a0, 0x8(s5)
   11d4c: 18 69        	c.ld	a4, 0x10(a0)
   11d4e: 85 45        	c.li	a1, 0x1
   11d50: 8d 46        	c.li	a3, 0x3
   11d52: 56 85        	c.mv	a0, s5
   11d54: 62 86        	c.mv	a2, s8
   11d56: 02 97        	c.jalr	a4
   11d58: 83 45 51 01  	lbu	a1, 0x15(sp)
   11d5c: 61 46        	c.li	a2, 0x18
   11d5e: 23 bc ad 02  	sd	a0, 0x38(s11)
   11d62: 63 8a c5 00  	beq	a1, a2, 0x11d76 <start_input_tga+0x2de>
   11d66: 03 b5 0d 03  	ld	a0, 0x30(s11)
   11d6a: 0c 61        	c.ld	a1, 0x0(a0)
   11d6c: 90 61        	c.ld	a2, 0x0(a1)
   11d6e: 93 06 80 40  	addi	a3, zero, 0x408
   11d72: 94 d5        	c.sw	a3, 0x28(a1)
   11d74: 02 96        	c.jalr	a2
   11d76: 81 44        	c.li	s1, 0x0
   11d78: 6a 9b        	c.add	s6, s10
   11d7a: fd 5b        	c.li	s7, -0x1
   11d7c: 13 0c a0 02  	addi	s8, zero, 0x2a
   11d80: 03 b5 8d 01  	ld	a0, 0x18(s11)
   11d84: ef 90 a0 27  	jal	ra, 0x1affe <getc>
   11d88: 2a 84        	c.mv	s0, a0
   11d8a: 63 19 75 01  	bne	a0, s7, 0x11d9c <start_input_tga+0x304>
   11d8e: 03 b5 0d 03  	ld	a0, 0x30(s11)
   11d92: 0c 61        	c.ld	a1, 0x0(a0)
   11d94: 90 61        	c.ld	a2, 0x0(a1)
   11d96: 23 a4 85 03  	sw	s8, 0x28(a1)
   11d9a: 02 96        	c.jalr	a2
   11d9c: 03 b5 8d 03  	ld	a0, 0x38(s11)
   11da0: 08 69        	c.ld	a0, 0x10(a0)
   11da2: 26 95        	c.add	a0, s1
   11da4: 23 00 85 00  	sb	s0, 0x0(a0)
   11da8: 03 b5 8d 01  	ld	a0, 0x18(s11)
   11dac: ef 90 20 25  	jal	ra, 0x1affe <getc>
   11db0: 2a 84        	c.mv	s0, a0
   11db2: 63 19 75 01  	bne	a0, s7, 0x11dc4 <start_input_tga+0x32c>
   11db6: 03 b5 0d 03  	ld	a0, 0x30(s11)
   11dba: 0c 61        	c.ld	a1, 0x0(a0)
   11dbc: 90 61        	c.ld	a2, 0x0(a1)
   11dbe: 23 a4 85 03  	sw	s8, 0x28(a1)
   11dc2: 02 96        	c.jalr	a2
   11dc4: 03 b5 8d 03  	ld	a0, 0x38(s11)
   11dc8: 08 65        	c.ld	a0, 0x8(a0)
   11dca: 26 95        	c.add	a0, s1
   11dcc: 23 00 85 00  	sb	s0, 0x0(a0)
   11dd0: 03 b5 8d 01  	ld	a0, 0x18(s11)
   11dd4: ef 90 a0 22  	jal	ra, 0x1affe <getc>
   11dd8: 2a 84        	c.mv	s0, a0
   11dda: 63 19 75 01  	bne	a0, s7, 0x11dec <start_input_tga+0x354>
   11dde: 03 b5 0d 03  	ld	a0, 0x30(s11)
   11de2: 0c 61        	c.ld	a1, 0x0(a0)
   11de4: 90 61        	c.ld	a2, 0x0(a1)
   11de6: 23 a4 85 03  	sw	s8, 0x28(a1)
   11dea: 02 96        	c.jalr	a2
   11dec: 03 b5 8d 03  	ld	a0, 0x38(s11)
   11df0: 08 61        	c.ld	a0, 0x0(a0)
   11df2: 26 95        	c.add	a0, s1
   11df4: 85 04        	c.addi	s1, 0x1
   11df6: 23 00 85 00  	sb	s0, 0x0(a0)
   11dfa: e3 13 9b f8  	bne	s6, s1, 0x11d80 <start_input_tga+0x2e8>
   11dfe: 29 a8        	c.j	0x11e18 <start_input_tga+0x380>
   11e00: 63 8a 0b 00  	beq	s7, zero, 0x11e14 <start_input_tga+0x37c>
   11e04: 03 b5 0a 00  	ld	a0, 0x0(s5)
   11e08: 0c 61        	c.ld	a1, 0x0(a0)
   11e0a: 13 06 90 40  	addi	a2, zero, 0x409
   11e0e: 10 d5        	c.sw	a2, 0x28(a0)
   11e10: 56 85        	c.mv	a0, s5
   11e12: 82 95        	c.jalr	a1
   11e14: 23 bc 0d 02  	sd	zero, 0x38(s11)
   11e18: 23 a8 4a 03  	sw	s4, 0x30(s5)
   11e1c: 21 45        	c.li	a0, 0x8
   11e1e: 23 a0 aa 04  	sw	a0, 0x40(s5)
   11e22: 23 a4 2a 03  	sw	s2, 0x28(s5)
   11e26: 23 a6 3a 03  	sw	s3, 0x2c(s5)
   11e2a: 05 61        	c.addi16sp	sp, 0x20
   11e2c: 6f c0 01 03  	jal	zero, 0x2de5c <__riscv_restore_12>

0000000000011e30 <finish_input_tga>:
   11e30: 82 80        	c.jr	ra

0000000000011e32 <read_rle_pixel>:
   11e32: ef c2 61 00  	jal	t0, 0x2de38 <__riscv_save_5>
   11e36: 2a 8a        	c.mv	s4, a0
   11e38: 68 51        	c.lw	a0, 0x64(a0)
   11e3a: 63 57 a0 00  	bge	zero, a0, 0x11e48 <read_rle_pixel+0x16>
   11e3e: 7d 15        	c.addi	a0, -0x1
   11e40: 23 22 aa 06  	sw	a0, 0x64(s4)
   11e44: 6f c0 e1 02  	jal	zero, 0x2de72 <__riscv_restore_5>
   11e48: 03 25 0a 06  	lw	a0, 0x60(s4)
   11e4c: 83 39 8a 01  	ld	s3, 0x18(s4)
   11e50: 93 05 f5 ff  	addi	a1, a0, -0x1
   11e54: 23 20 ba 06  	sw	a1, 0x60(s4)
   11e58: 63 4e a0 02  	blt	zero, a0, 0x11e94 <read_rle_pixel+0x62>
   11e5c: 4e 85        	c.mv	a0, s3
   11e5e: ef 90 00 1a  	jal	ra, 0x1affe <getc>
   11e62: fd 55        	c.li	a1, -0x1
   11e64: 2a 89        	c.mv	s2, a0
   11e66: 63 08 b5 00  	beq	a0, a1, 0x11e76 <read_rle_pixel+0x44>
   11e6a: 13 75 09 08  	andi	a0, s2, 0x80
   11e6e: 01 ed        	c.bnez	a0, 0x11e86 <read_rle_pixel+0x54>
   11e70: 13 75 f9 07  	andi	a0, s2, 0x7f
   11e74: 31 a8        	c.j	0x11e90 <read_rle_pixel+0x5e>
   11e76: 03 35 0a 03  	ld	a0, 0x30(s4)
   11e7a: 0c 61        	c.ld	a1, 0x0(a0)
   11e7c: 90 61        	c.ld	a2, 0x0(a1)
   11e7e: 93 06 a0 02  	addi	a3, zero, 0x2a
   11e82: 94 d5        	c.sw	a3, 0x28(a1)
   11e84: 02 96        	c.jalr	a2
   11e86: 01 45        	c.li	a0, 0x0
   11e88: 93 75 f9 07  	andi	a1, s2, 0x7f
   11e8c: 23 22 ba 06  	sw	a1, 0x64(s4)
   11e90: 23 20 aa 06  	sw	a0, 0x60(s4)
   11e94: 03 25 ca 05  	lw	a0, 0x5c(s4)
   11e98: 63 51 a0 02  	bge	zero, a0, 0x11eba <read_rle_pixel+0x88>
   11e9c: 81 44        	c.li	s1, 0x0
   11e9e: 13 04 8a 05  	addi	s0, s4, 0x58
   11ea2: 4e 85        	c.mv	a0, s3
   11ea4: ef 90 a0 15  	jal	ra, 0x1affe <getc>
   11ea8: b3 05 94 00  	add	a1, s0, s1
   11eac: 23 80 a5 00  	sb	a0, 0x0(a1)
   11eb0: 03 25 ca 05  	lw	a0, 0x5c(s4)
   11eb4: 85 04        	c.addi	s1, 0x1
   11eb6: e3 c6 a4 fe  	blt	s1, a0, 0x11ea2 <read_rle_pixel+0x70>
   11eba: 6f b0 91 7b  	jal	zero, 0x2de72 <__riscv_restore_5>

0000000000011ebe <read_non_rle_pixel>:
   11ebe: ef b2 b1 77  	jal	t0, 0x2de38 <__riscv_save_5>
   11ec2: 2a 89        	c.mv	s2, a0
   11ec4: 68 4d        	c.lw	a0, 0x5c(a0)
   11ec6: 63 53 a0 02  	bge	zero, a0, 0x11eec <read_non_rle_pixel+0x2e>
   11eca: 83 39 89 01  	ld	s3, 0x18(s2)
   11ece: 01 44        	c.li	s0, 0x0
   11ed0: 93 04 89 05  	addi	s1, s2, 0x58
   11ed4: 4e 85        	c.mv	a0, s3
   11ed6: ef 90 80 12  	jal	ra, 0x1affe <getc>
   11eda: b3 85 84 00  	add	a1, s1, s0
   11ede: 23 80 a5 00  	sb	a0, 0x0(a1)
   11ee2: 03 25 c9 05  	lw	a0, 0x5c(s2)
   11ee6: 05 04        	c.addi	s0, 0x1
   11ee8: e3 46 a4 fe  	blt	s0, a0, 0x11ed4 <read_non_rle_pixel+0x16>
   11eec: 6f b0 71 78  	jal	zero, 0x2de72 <__riscv_restore_5>

0000000000011ef0 <get_8bit_row>:
   11ef0: ef b2 91 74  	jal	t0, 0x2de38 <__riscv_save_5>
   11ef4: 08 55        	c.lw	a0, 0x28(a0)
   11ef6: 21 cd        	c.beqz	a0, 0x11f4e <get_8bit_row+0x5e>
   11ef8: 2e 89        	c.mv	s2, a1
   11efa: 8c 71        	c.ld	a1, 0x20(a1)
   11efc: 83 34 89 03  	ld	s1, 0x38(s2)
   11f00: 80 61        	c.ld	s0, 0x0(a1)
   11f02: 7d 15        	c.addi	a0, -0x1
   11f04: 02 15        	c.slli	a0, 0x20
   11f06: 93 55 05 02  	srli	a1, a0, 0x20
   11f0a: 7d 81        	c.srli	a0, 0x1f
   11f0c: 2e 95        	c.add	a0, a1
   11f0e: 22 95        	c.add	a0, s0
   11f10: 93 09 35 00  	addi	s3, a0, 0x3
   11f14: 83 35 09 05  	ld	a1, 0x50(s2)
   11f18: 4a 85        	c.mv	a0, s2
   11f1a: 82 95        	c.jalr	a1
   11f1c: 03 45 89 05  	lbu	a0, 0x58(s2)
   11f20: 8c 60        	c.ld	a1, 0x0(s1)
   11f22: aa 95        	c.add	a1, a0
   11f24: 83 c5 05 00  	lbu	a1, 0x0(a1)
   11f28: 23 00 b4 00  	sb	a1, 0x0(s0)
   11f2c: 8c 64        	c.ld	a1, 0x8(s1)
   11f2e: aa 95        	c.add	a1, a0
   11f30: 83 c5 05 00  	lbu	a1, 0x0(a1)
   11f34: a3 00 b4 00  	sb	a1, 0x1(s0)
   11f38: 8c 68        	c.ld	a1, 0x10(s1)
   11f3a: 2e 95        	c.add	a0, a1
   11f3c: 03 45 05 00  	lbu	a0, 0x0(a0)
   11f40: 93 05 34 00  	addi	a1, s0, 0x3
   11f44: 23 01 a4 00  	sb	a0, 0x2(s0)
   11f48: 2e 84        	c.mv	s0, a1
   11f4a: e3 95 35 fd  	bne	a1, s3, 0x11f14 <get_8bit_row+0x24>
   11f4e: 05 45        	c.li	a0, 0x1
   11f50: 6f b0 31 72  	jal	zero, 0x2de72 <__riscv_restore_5>

0000000000011f54 <get_16bit_row>:
   11f54: ef b2 51 6e  	jal	t0, 0x2de38 <__riscv_save_5>
   11f58: 08 55        	c.lw	a0, 0x28(a0)
   11f5a: 2d c5        	c.beqz	a0, 0x11fc4 <get_16bit_row+0x70>
   11f5c: 2e 84        	c.mv	s0, a1
   11f5e: 8c 71        	c.ld	a1, 0x20(a1)
   11f60: 8c 61        	c.ld	a1, 0x0(a1)
   11f62: 93 84 25 00  	addi	s1, a1, 0x2
   11f66: 7d 15        	c.addi	a0, -0x1
   11f68: 02 15        	c.slli	a0, 0x20
   11f6a: 13 56 05 02  	srli	a2, a0, 0x20
   11f6e: 7d 81        	c.srli	a0, 0x1f
   11f70: 32 95        	c.add	a0, a2
   11f72: 2e 95        	c.add	a0, a1
   11f74: 13 09 55 00  	addi	s2, a0, 0x5
   11f78: 37 05 03 00  	lui	a0, 0x30
   11f7c: 93 09 85 e1  	addi	s3, a0, -0x1e8
   11f80: 2c 68        	c.ld	a1, 0x50(s0)
   11f82: 22 85        	c.mv	a0, s0
   11f84: 82 95        	c.jalr	a1
   11f86: 03 45 84 05  	lbu	a0, 0x58(s0)
   11f8a: 83 45 94 05  	lbu	a1, 0x59(s0)
   11f8e: 13 76 f5 01  	andi	a2, a0, 0x1f
   11f92: 4e 96        	c.add	a2, s3
   11f94: 03 46 06 00  	lbu	a2, 0x0(a2)
   11f98: 93 96 85 00  	slli	a3, a1, 0x8
   11f9c: 55 8d        	c.or	a0, a3
   11f9e: 23 80 c4 00  	sb	a2, 0x0(s1)
   11fa2: 5a 15        	c.slli	a0, 0x36
   11fa4: 6d 91        	c.srli	a0, 0x3b
   11fa6: 4e 95        	c.add	a0, s3
   11fa8: 03 45 05 00  	lbu	a0, 0x0(a0)
   11fac: a3 8f a4 fe  	sb	a0, -0x1(s1)
   11fb0: e6 15        	c.slli	a1, 0x39
   11fb2: ed 91        	c.srli	a1, 0x3b
   11fb4: ce 95        	c.add	a1, s3
   11fb6: 03 c5 05 00  	lbu	a0, 0x0(a1)
   11fba: 23 8f a4 fe  	sb	a0, -0x2(s1)
   11fbe: 8d 04        	c.addi	s1, 0x3
   11fc0: e3 90 24 fd  	bne	s1, s2, 0x11f80 <get_16bit_row+0x2c>
   11fc4: 05 45        	c.li	a0, 0x1
   11fc6: 6f b0 d1 6a  	jal	zero, 0x2de72 <__riscv_restore_5>

0000000000011fca <get_24bit_row>:
   11fca: ef b2 91 67  	jal	t0, 0x2de42 <__riscv_save_3>
   11fce: 08 55        	c.lw	a0, 0x28(a0)
   11fd0: 29 c1        	c.beqz	a0, 0x12012 <get_24bit_row+0x48>
   11fd2: 2e 84        	c.mv	s0, a1
   11fd4: 8c 71        	c.ld	a1, 0x20(a1)
   11fd6: 84 61        	c.ld	s1, 0x0(a1)
   11fd8: 7d 15        	c.addi	a0, -0x1
   11fda: 02 15        	c.slli	a0, 0x20
   11fdc: 93 55 05 02  	srli	a1, a0, 0x20
   11fe0: 7d 81        	c.srli	a0, 0x1f
   11fe2: 2e 95        	c.add	a0, a1
   11fe4: 26 95        	c.add	a0, s1
   11fe6: 13 09 35 00  	addi	s2, a0, 0x3
   11fea: 2c 68        	c.ld	a1, 0x50(s0)
   11fec: 22 85        	c.mv	a0, s0
   11fee: 82 95        	c.jalr	a1
   11ff0: 03 45 a4 05  	lbu	a0, 0x5a(s0)
   11ff4: 23 80 a4 00  	sb	a0, 0x0(s1)
   11ff8: 03 45 94 05  	lbu	a0, 0x59(s0)
   11ffc: a3 80 a4 00  	sb	a0, 0x1(s1)
   12000: 03 45 84 05  	lbu	a0, 0x58(s0)
   12004: 93 85 34 00  	addi	a1, s1, 0x3
   12008: 23 81 a4 00  	sb	a0, 0x2(s1)
   1200c: ae 84        	c.mv	s1, a1
   1200e: e3 9e 25 fd  	bne	a1, s2, 0x11fea <get_24bit_row+0x20>
   12012: 05 45        	c.li	a0, 0x1
   12014: 6f b0 51 66  	jal	zero, 0x2de78 <__riscv_restore_3>

0000000000012018 <get_8bit_gray_row>:
   12018: ef b2 b1 62  	jal	t0, 0x2de42 <__riscv_save_3>
   1201c: 08 55        	c.lw	a0, 0x28(a0)
   1201e: 15 c5        	c.beqz	a0, 0x1204a <get_8bit_gray_row+0x32>
   12020: 2e 84        	c.mv	s0, a1
   12022: 8c 71        	c.ld	a1, 0x20(a1)
   12024: 84 61        	c.ld	s1, 0x0(a1)
   12026: 7d 15        	c.addi	a0, -0x1
   12028: 02 15        	c.slli	a0, 0x20
   1202a: 01 91        	c.srli	a0, 0x20
   1202c: 26 95        	c.add	a0, s1
   1202e: 13 09 15 00  	addi	s2, a0, 0x1
   12032: 2c 68        	c.ld	a1, 0x50(s0)
   12034: 22 85        	c.mv	a0, s0
   12036: 82 95        	c.jalr	a1
   12038: 03 45 84 05  	lbu	a0, 0x58(s0)
   1203c: 93 85 14 00  	addi	a1, s1, 0x1
   12040: 23 80 a4 00  	sb	a0, 0x0(s1)
   12044: ae 84        	c.mv	s1, a1
   12046: e3 96 25 ff  	bne	a1, s2, 0x12032 <get_8bit_gray_row+0x1a>
   1204a: 05 45        	c.li	a0, 0x1
   1204c: 6f b0 d1 62  	jal	zero, 0x2de78 <__riscv_restore_3>

0000000000012050 <preload_image>:
   12050: ef b2 91 5e  	jal	t0, 0x2de38 <__riscv_save_5>
   12054: 2a 8a        	c.mv	s4, a0
   12056: 50 55        	c.lw	a2, 0x2c(a0)
   12058: 83 39 05 01  	ld	s3, 0x10(a0)
   1205c: 2e 89        	c.mv	s2, a1
   1205e: 49 ca        	c.beqz	a2, 0x120f0 <preload_image+0xa0>
   12060: 01 44        	c.li	s0, 0x0
   12062: 81 44        	c.li	s1, 0x0
   12064: 63 8c 09 00  	beq	s3, zero, 0x1207c <preload_image+0x2c>
   12068: 02 16        	c.slli	a2, 0x20
   1206a: 83 b5 09 00  	ld	a1, 0x0(s3)
   1206e: 01 92        	c.srli	a2, 0x20
   12070: 23 b8 c9 00  	sd	a2, 0x10(s3)
   12074: 23 b4 99 00  	sd	s1, 0x8(s3)
   12078: 52 85        	c.mv	a0, s4
   1207a: 82 95        	c.jalr	a1
   1207c: 03 35 8a 00  	ld	a0, 0x8(s4)
   12080: 1c 7d        	c.ld	a5, 0x38(a0)
   12082: 83 35 09 04  	ld	a1, 0x40(s2)
   12086: 85 46        	c.li	a3, 0x1
   12088: 05 47        	c.li	a4, 0x1
   1208a: 52 85        	c.mv	a0, s4
   1208c: 22 86        	c.mv	a2, s0
   1208e: 82 97        	c.jalr	a5
   12090: 03 36 89 06  	ld	a2, 0x68(s2)
   12094: 23 30 a9 02  	sd	a0, 0x20(s2)
   12098: 52 85        	c.mv	a0, s4
   1209a: ca 85        	c.mv	a1, s2
   1209c: 02 96        	c.jalr	a2
   1209e: 03 66 ca 02  	lwu	a2, 0x2c(s4)
   120a2: 85 04        	c.addi	s1, 0x1
   120a4: 05 24        	c.addiw	s0, 0x1
   120a6: e3 ef c4 fa  	bltu	s1, a2, 0x12064 <preload_image+0x14>
   120aa: 7d 36        	c.addiw	a2, -0x1
   120ac: 63 87 09 00  	beq	s3, zero, 0x120ba <preload_image+0x6a>
   120b0: 03 a5 09 02  	lw	a0, 0x20(s3)
   120b4: 05 05        	c.addi	a0, 0x1
   120b6: 23 a0 a9 02  	sw	a0, 0x20(s3)
   120ba: 03 35 8a 00  	ld	a0, 0x8(s4)
   120be: b7 26 01 00  	lui	a3, 0x12
   120c2: 1c 7d        	c.ld	a5, 0x38(a0)
   120c4: 83 35 09 04  	ld	a1, 0x40(s2)
   120c8: 13 85 86 0f  	addi	a0, a3, 0xf8
   120cc: 23 34 a9 00  	sd	a0, 0x8(s2)
   120d0: 23 24 09 04  	sw	zero, 0x48(s2)
   120d4: 85 46        	c.li	a3, 0x1
   120d6: 52 85        	c.mv	a0, s4
   120d8: 01 47        	c.li	a4, 0x0
   120da: 82 97        	c.jalr	a5
   120dc: 83 25 89 04  	lw	a1, 0x48(s2)
   120e0: 23 30 a9 02  	sd	a0, 0x20(s2)
   120e4: 85 05        	c.addi	a1, 0x1
   120e6: 05 45        	c.li	a0, 0x1
   120e8: 23 24 b9 04  	sw	a1, 0x48(s2)
   120ec: 6f b0 71 58  	jal	zero, 0x2de72 <__riscv_restore_5>
   120f0: 7d 56        	c.li	a2, -0x1
   120f2: e3 9f 09 fa  	bne	s3, zero, 0x120b0 <preload_image+0x60>
   120f6: d1 b7        	c.j	0x120ba <preload_image+0x6a>

00000000000120f8 <get_memory_row>:
   120f8: ef b2 d1 55  	jal	t0, 0x2de54 <__riscv_save_1>
   120fc: 10 65        	c.ld	a2, 0x8(a0)
   120fe: 2e 84        	c.mv	s0, a1
   12100: 54 55        	c.lw	a3, 0x2c(a0)
   12102: b8 45        	c.lw	a4, 0x48(a1)
   12104: 1c 7e        	c.ld	a5, 0x38(a2)
   12106: ac 61        	c.ld	a1, 0x40(a1)
   12108: 13 46 f7 ff  	xori	a2, a4, -0x1
   1210c: 35 9e        	c.addw	a2, a3
   1210e: 85 46        	c.li	a3, 0x1
   12110: 01 47        	c.li	a4, 0x0
   12112: 82 97        	c.jalr	a5
   12114: 2c 44        	c.lw	a1, 0x48(s0)
   12116: 08 f0        	c.sd	a0, 0x20(s0)
   12118: 85 05        	c.addi	a1, 0x1
   1211a: 05 45        	c.li	a0, 0x1
   1211c: 2c c4        	c.sw	a1, 0x48(s0)
   1211e: 6f b0 11 56  	jal	zero, 0x2de7e <__riscv_restore_1>

0000000000012122 <jinit_read_bmp>:
   12122: ef b2 31 53  	jal	t0, 0x2de54 <__riscv_save_1>
   12126: 2a 84        	c.mv	s0, a0
   12128: 08 65        	c.ld	a0, 0x8(a0)
   1212a: 14 61        	c.ld	a3, 0x0(a0)
   1212c: 85 45        	c.li	a1, 0x1
   1212e: 13 06 80 05  	addi	a2, zero, 0x58
   12132: 22 85        	c.mv	a0, s0
   12134: 82 96        	c.jalr	a3
   12136: 00 f9        	c.sd	s0, 0x30(a0)
   12138: b7 25 01 00  	lui	a1, 0x12
   1213c: 93 85 05 15  	addi	a1, a1, 0x150
   12140: 0c e1        	c.sd	a1, 0x0(a0)
   12142: b7 25 01 00  	lui	a1, 0x12
   12146: 93 85 45 76  	addi	a1, a1, 0x764
   1214a: 0c e9        	c.sd	a1, 0x10(a0)
   1214c: 6f b0 31 53  	jal	zero, 0x2de7e <__riscv_restore_1>

0000000000012150 <start_input_bmp>:
   12150: ef b2 31 4c  	jal	t0, 0x2de12 <__riscv_save_12>
   12154: 35 71        	c.addi16sp	sp, -0xa0
   12156: ae 8c        	c.mv	s9, a1
   12158: 94 6d        	c.ld	a3, 0x18(a1)
   1215a: 2a 8a        	c.mv	s4, a0
   1215c: 13 05 21 09  	addi	a0, sp, 0x92
   12160: 85 45        	c.li	a1, 0x1
   12162: 39 46        	c.li	a2, 0xe
   12164: 39 44        	c.li	s0, 0xe
   12166: ef 80 f0 4a  	jal	ra, 0x1ae14 <fread>
   1216a: 63 0a 85 00  	beq	a0, s0, 0x1217e <start_input_bmp+0x2e>
   1216e: 03 35 0a 00  	ld	a0, 0x0(s4)
   12172: 0c 61        	c.ld	a1, 0x0(a0)
   12174: 13 06 a0 02  	addi	a2, zero, 0x2a
   12178: 10 d5        	c.sw	a2, 0x28(a0)
   1217a: 52 85        	c.mv	a0, s4
   1217c: 82 95        	c.jalr	a1
   1217e: 03 45 31 09  	lbu	a0, 0x93(sp)
   12182: 83 45 21 09  	lbu	a1, 0x92(sp)
   12186: 22 05        	c.slli	a0, 0x8
   12188: 4d 8d        	c.or	a0, a1
   1218a: 95 65        	c.lui	a1, 0x5
   1218c: 9b 85 25 d4  	addiw	a1, a1, -0x2be
   12190: 63 0a b5 00  	beq	a0, a1, 0x121a4 <start_input_bmp+0x54>
   12194: 03 35 0a 00  	ld	a0, 0x0(s4)
   12198: 0c 61        	c.ld	a1, 0x0(a0)
   1219a: 13 06 f0 3e  	addi	a2, zero, 0x3ef
   1219e: 10 d5        	c.sw	a2, 0x28(a0)
   121a0: 52 85        	c.mv	a0, s4
   121a2: 82 95        	c.jalr	a1
   121a4: 03 45 c1 09  	lbu	a0, 0x9c(sp)
   121a8: 83 45 d1 09  	lbu	a1, 0x9d(sp)
   121ac: 83 44 e1 09  	lbu	s1, 0x9e(sp)
   121b0: 03 49 f1 09  	lbu	s2, 0x9f(sp)
   121b4: 83 b6 8c 01  	ld	a3, 0x18(s9)
   121b8: a2 05        	c.slli	a1, 0x8
   121ba: 33 e4 a5 00  	or	s0, a1, a0
   121be: c2 04        	c.slli	s1, 0x10
   121c0: 13 05 21 05  	addi	a0, sp, 0x52
   121c4: 85 45        	c.li	a1, 0x1
   121c6: 11 46        	c.li	a2, 0x4
   121c8: 91 49        	c.li	s3, 0x4
   121ca: ef 80 b0 44  	jal	ra, 0x1ae14 <fread>
   121ce: 63 0a 35 01  	beq	a0, s3, 0x121e2 <start_input_bmp+0x92>
   121d2: 03 35 0a 00  	ld	a0, 0x0(s4)
   121d6: 0c 61        	c.ld	a1, 0x0(a0)
   121d8: 13 06 a0 02  	addi	a2, zero, 0x2a
   121dc: 10 d5        	c.sw	a2, 0x28(a0)
   121de: 52 85        	c.mv	a0, s4
   121e0: 82 95        	c.jalr	a1
   121e2: 45 8c        	c.or	s0, s1
   121e4: 03 45 31 05  	lbu	a0, 0x53(sp)
   121e8: 83 45 21 05  	lbu	a1, 0x52(sp)
   121ec: 03 46 41 05  	lbu	a2, 0x54(sp)
   121f0: 83 46 51 05  	lbu	a3, 0x55(sp)
   121f4: 22 05        	c.slli	a0, 0x8
   121f6: 4d 8d        	c.or	a0, a1
   121f8: 42 06        	c.slli	a2, 0x10
   121fa: e2 06        	c.slli	a3, 0x18
   121fc: 55 8e        	c.or	a2, a3
   121fe: b3 64 c5 00  	or	s1, a0, a2
   12202: 13 85 f4 fb  	addi	a0, s1, -0x41
   12206: 93 05 a0 fc  	addi	a1, zero, -0x36
   1220a: 62 09        	c.slli	s2, 0x18
   1220c: 63 ea a5 00  	bltu	a1, a0, 0x12220 <start_input_bmp+0xd0>
   12210: 03 35 0a 00  	ld	a0, 0x0(s4)
   12214: 0c 61        	c.ld	a1, 0x0(a0)
   12216: 13 06 b0 3e  	addi	a2, zero, 0x3eb
   1221a: 10 d5        	c.sw	a2, 0x28(a0)
   1221c: 52 85        	c.mv	a0, s4
   1221e: 82 95        	c.jalr	a1
   12220: 83 b6 8c 01  	ld	a3, 0x18(s9)
   12224: 33 69 24 01  	or	s2, s0, s2
   12228: 13 05 61 05  	addi	a0, sp, 0x56
   1222c: 13 84 c4 ff  	addi	s0, s1, -0x4
   12230: 85 45        	c.li	a1, 0x1
   12232: 22 86        	c.mv	a2, s0
   12234: ef 80 10 3e  	jal	ra, 0x1ae14 <fread>
   12238: 63 0a 85 00  	beq	a0, s0, 0x1224c <start_input_bmp+0xfc>
   1223c: 03 35 0a 00  	ld	a0, 0x0(s4)
   12240: 0c 61        	c.ld	a1, 0x0(a0)
   12242: 13 06 a0 02  	addi	a2, zero, 0x2a
   12246: 10 d5        	c.sw	a2, 0x28(a0)
   12248: 52 85        	c.mv	a0, s4
   1224a: 82 95        	c.jalr	a1
   1224c: 1b 85 04 00  	addiw	a0, s1, 0x0
   12250: 93 05 00 04  	addi	a1, zero, 0x40
   12254: 33 0c 99 40  	sub	s8, s2, s1
   12258: 63 01 b5 08  	beq	a0, a1, 0x122da <start_input_bmp+0x18a>
   1225c: 93 05 80 02  	addi	a1, zero, 0x28
   12260: 63 0d b5 06  	beq	a0, a1, 0x122da <start_input_bmp+0x18a>
   12264: b1 45        	c.li	a1, 0xc
   12266: 63 18 b5 16  	bne	a0, a1, 0x123d6 <start_input_bmp+0x286>
   1226a: 03 45 71 05  	lbu	a0, 0x57(sp)
   1226e: 83 45 61 05  	lbu	a1, 0x56(sp)
   12272: 03 46 91 05  	lbu	a2, 0x59(sp)
   12276: 22 05        	c.slli	a0, 0x8
   12278: 83 46 81 05  	lbu	a3, 0x58(sp)
   1227c: b3 69 b5 00  	or	s3, a0, a1
   12280: 1b 15 86 00  	slliw	a0, a2, 0x8
   12284: 83 45 b1 05  	lbu	a1, 0x5b(sp)
   12288: b3 6b d5 00  	or	s7, a0, a3
   1228c: 03 45 a1 05  	lbu	a0, 0x5a(sp)
   12290: 03 46 d1 05  	lbu	a2, 0x5d(sp)
   12294: a2 05        	c.slli	a1, 0x8
   12296: 83 46 c1 05  	lbu	a3, 0x5c(sp)
   1229a: 33 e4 a5 00  	or	s0, a1, a0
   1229e: 93 15 86 00  	slli	a1, a2, 0x8
   122a2: 03 35 0a 00  	ld	a0, 0x0(s4)
   122a6: d5 8d        	c.or	a1, a3
   122a8: 61 46        	c.li	a2, 0x18
   122aa: 23 a8 bc 04  	sw	a1, 0x50(s9)
   122ae: 63 85 c5 20  	beq	a1, a2, 0x124b8 <start_input_bmp+0x368>
   122b2: 21 46        	c.li	a2, 0x8
   122b4: 63 92 c5 22  	bne	a1, a2, 0x124d8 <start_input_bmp+0x388>
   122b8: 23 26 35 03  	sw	s3, 0x2c(a0)
   122bc: 83 35 0a 00  	ld	a1, 0x0(s4)
   122c0: 13 06 30 3f  	addi	a2, zero, 0x3f3
   122c4: 10 d5        	c.sw	a2, 0x28(a0)
   122c6: 23 a8 75 03  	sw	s7, 0x30(a1)
   122ca: 03 35 0a 00  	ld	a0, 0x0(s4)
   122ce: 10 65        	c.ld	a2, 0x8(a0)
   122d0: 85 45        	c.li	a1, 0x1
   122d2: 52 85        	c.mv	a0, s4
   122d4: 02 96        	c.jalr	a2
   122d6: 0d 4d        	c.li	s10, 0x3
   122d8: 39 a4        	c.j	0x124e6 <start_input_bmp+0x396>
   122da: 03 45 71 05  	lbu	a0, 0x57(sp)
   122de: 83 45 61 05  	lbu	a1, 0x56(sp)
   122e2: 03 46 81 05  	lbu	a2, 0x58(sp)
   122e6: 83 46 91 05  	lbu	a3, 0x59(sp)
   122ea: 22 05        	c.slli	a0, 0x8
   122ec: 4d 8d        	c.or	a0, a1
   122ee: 42 06        	c.slli	a2, 0x10
   122f0: e2 06        	c.slli	a3, 0x18
   122f2: 55 8e        	c.or	a2, a3
   122f4: 51 8d        	c.or	a0, a2
   122f6: aa e4        	c.sdsp	a0, 0x48(sp)
   122f8: 03 45 b1 05  	lbu	a0, 0x5b(sp)
   122fc: 83 45 a1 05  	lbu	a1, 0x5a(sp)
   12300: 03 46 c1 05  	lbu	a2, 0x5c(sp)
   12304: 83 46 d1 05  	lbu	a3, 0x5d(sp)
   12308: 1b 15 85 00  	slliw	a0, a0, 0x8
   1230c: 4d 8d        	c.or	a0, a1
   1230e: 9b 15 06 01  	slliw	a1, a2, 0x10
   12312: 1b 96 86 01  	slliw	a2, a3, 0x18
   12316: d1 8d        	c.or	a1, a2
   12318: 4d 8d        	c.or	a0, a1
   1231a: aa e0        	c.sdsp	a0, 0x40(sp)
   1231c: 03 45 f1 05  	lbu	a0, 0x5f(sp)
   12320: 83 45 e1 05  	lbu	a1, 0x5e(sp)
   12324: 03 46 11 06  	lbu	a2, 0x61(sp)
   12328: 83 46 01 06  	lbu	a3, 0x60(sp)
   1232c: 22 05        	c.slli	a0, 0x8
   1232e: b3 6a b5 00  	or	s5, a0, a1
   12332: 13 15 86 00  	slli	a0, a2, 0x8
   12336: 55 8d        	c.or	a0, a3
   12338: 83 45 31 06  	lbu	a1, 0x63(sp)
   1233c: 03 46 21 06  	lbu	a2, 0x62(sp)
   12340: 83 46 41 06  	lbu	a3, 0x64(sp)
   12344: 23 a8 ac 04  	sw	a0, 0x50(s9)
   12348: a2 05        	c.slli	a1, 0x8
   1234a: d1 8d        	c.or	a1, a2
   1234c: c2 06        	c.slli	a3, 0x10
   1234e: 03 4b 51 06  	lbu	s6, 0x65(sp)
   12352: 03 46 b1 06  	lbu	a2, 0x6b(sp)
   12356: 03 47 a1 06  	lbu	a4, 0x6a(sp)
   1235a: 33 e8 d5 00  	or	a6, a1, a3
   1235e: 93 1d 8b 01  	slli	s11, s6, 0x18
   12362: 22 06        	c.slli	a2, 0x8
   12364: 33 6d e6 00  	or	s10, a2, a4
   12368: 83 49 c1 06  	lbu	s3, 0x6c(sp)
   1236c: 03 4b d1 06  	lbu	s6, 0x6d(sp)
   12370: 83 46 e1 06  	lbu	a3, 0x6e(sp)
   12374: 83 44 f1 06  	lbu	s1, 0x6f(sp)
   12378: 03 47 01 07  	lbu	a4, 0x70(sp)
   1237c: 83 47 11 07  	lbu	a5, 0x71(sp)
   12380: 03 49 21 07  	lbu	s2, 0x72(sp)
   12384: 83 4b 31 07  	lbu	s7, 0x73(sp)
   12388: 03 46 41 07  	lbu	a2, 0x74(sp)
   1238c: 03 44 51 07  	lbu	s0, 0x75(sp)
   12390: 83 35 0a 00  	ld	a1, 0x0(s4)
   12394: c2 09        	c.slli	s3, 0x10
   12396: e1 48        	c.li	a7, 0x18
   12398: a2 0b        	c.slli	s7, 0x8
   1239a: 62 fc        	c.sdsp	s8, 0x38(sp)
   1239c: 36 f0        	c.sdsp	a3, 0x20(sp)
   1239e: 3a ec        	c.sdsp	a4, 0x18(sp)
   123a0: 3e e8        	c.sdsp	a5, 0x10(sp)
   123a2: 26 e4        	c.sdsp	s1, 0x8(sp)
   123a4: 42 f8        	c.sdsp	a6, 0x30(sp)
   123a6: 4e f4        	c.sdsp	s3, 0x28(sp)
   123a8: b2 89        	c.mv	s3, a2
   123aa: 63 02 15 05  	beq	a0, a7, 0x123ee <start_input_bmp+0x29e>
   123ae: 21 46        	c.li	a2, 0x8
   123b0: 63 1f c5 04  	bne	a0, a2, 0x1240e <start_input_bmp+0x2be>
   123b4: 26 65        	c.ldsp	a0, 0x48(sp)
   123b6: c8 d5        	c.sw	a0, 0x2c(a1)
   123b8: 03 35 0a 00  	ld	a0, 0x0(s4)
   123bc: 13 06 10 3f  	addi	a2, zero, 0x3f1
   123c0: 90 d5        	c.sw	a2, 0x28(a1)
   123c2: 86 65        	c.ldsp	a1, 0x40(sp)
   123c4: 0c d9        	c.sw	a1, 0x30(a0)
   123c6: 03 35 0a 00  	ld	a0, 0x0(s4)
   123ca: 10 65        	c.ld	a2, 0x8(a0)
   123cc: 85 45        	c.li	a1, 0x1
   123ce: 52 85        	c.mv	a0, s4
   123d0: 02 96        	c.jalr	a2
   123d2: 11 4c        	c.li	s8, 0x4
   123d4: a1 a0        	c.j	0x1241c <start_input_bmp+0x2cc>
   123d6: 03 35 0a 00  	ld	a0, 0x0(s4)
   123da: 0c 61        	c.ld	a1, 0x0(a0)
   123dc: 13 06 b0 3e  	addi	a2, zero, 0x3eb
   123e0: 10 d5        	c.sw	a2, 0x28(a0)
   123e2: 52 85        	c.mv	a0, s4
   123e4: 82 95        	c.jalr	a1
   123e6: 81 49        	c.li	s3, 0x0
   123e8: 81 4b        	c.li	s7, 0x0
   123ea: 49 1c        	c.addi	s8, -0xe
   123ec: 75 a4        	c.j	0x12698 <start_input_bmp+0x548>
   123ee: 26 65        	c.ldsp	a0, 0x48(sp)
   123f0: c8 d5        	c.sw	a0, 0x2c(a1)
   123f2: 03 35 0a 00  	ld	a0, 0x0(s4)
   123f6: 13 06 00 3f  	addi	a2, zero, 0x3f0
   123fa: 90 d5        	c.sw	a2, 0x28(a1)
   123fc: 86 65        	c.ldsp	a1, 0x40(sp)
   123fe: 0c d9        	c.sw	a1, 0x30(a0)
   12400: 03 35 0a 00  	ld	a0, 0x0(s4)
   12404: 10 65        	c.ld	a2, 0x8(a0)
   12406: 85 45        	c.li	a1, 0x1
   12408: 52 85        	c.mv	a0, s4
   1240a: 02 96        	c.jalr	a2
   1240c: 39 a0        	c.j	0x1241a <start_input_bmp+0x2ca>
   1240e: 90 61        	c.ld	a2, 0x0(a1)
   12410: 13 05 a0 3e  	addi	a0, zero, 0x3ea
   12414: 88 d5        	c.sw	a0, 0x28(a1)
   12416: 52 85        	c.mv	a0, s4
   12418: 02 96        	c.jalr	a2
   1241a: 01 4c        	c.li	s8, 0x0
   1241c: b3 e4 2b 01  	or	s1, s7, s2
   12420: 13 99 09 01  	slli	s2, s3, 0x10
   12424: 22 75        	c.ldsp	a0, 0x28(sp)
   12426: b3 69 ad 00  	or	s3, s10, a0
   1242a: 13 1d 8b 01  	slli	s10, s6, 0x18
   1242e: 05 45        	c.li	a0, 0x1
   12430: c2 75        	c.ldsp	a1, 0x30(sp)
   12432: 33 eb b5 01  	or	s6, a1, s11
   12436: 63 8a aa 00  	beq	s5, a0, 0x1244a <start_input_bmp+0x2fa>
   1243a: 03 35 0a 00  	ld	a0, 0x0(s4)
   1243e: 0c 61        	c.ld	a1, 0x0(a0)
   12440: 13 06 c0 3e  	addi	a2, zero, 0x3ec
   12444: 10 d5        	c.sw	a2, 0x28(a0)
   12446: 52 85        	c.mv	a0, s4
   12448: 82 95        	c.jalr	a1
   1244a: b3 e4 24 01  	or	s1, s1, s2
   1244e: 62 04        	c.slli	s0, 0x18
   12450: b3 ea a9 01  	or	s5, s3, s10
   12454: 86 6b        	c.ldsp	s7, 0x40(sp)
   12456: 63 0a 0b 00  	beq	s6, zero, 0x1246a <start_input_bmp+0x31a>
   1245a: 03 35 0a 00  	ld	a0, 0x0(s4)
   1245e: 0c 61        	c.ld	a1, 0x0(a0)
   12460: 13 06 e0 3e  	addi	a2, zero, 0x3ee
   12464: 10 d5        	c.sw	a2, 0x28(a0)
   12466: 52 85        	c.mv	a0, s4
   12468: 82 95        	c.jalr	a1
   1246a: 33 eb 84 00  	or	s6, s1, s0
   1246e: a6 69        	c.ldsp	s3, 0x48(sp)
   12470: 62 8d        	c.mv	s10, s8
   12472: 63 81 0a 04  	beq	s5, zero, 0x124b4 <start_input_bmp+0x364>
   12476: 22 65        	c.ldsp	a0, 0x8(sp)
   12478: 22 05        	c.slli	a0, 0x8
   1247a: 82 75        	c.ldsp	a1, 0x20(sp)
   1247c: 4d 8d        	c.or	a0, a1
   1247e: e2 65        	c.ldsp	a1, 0x18(sp)
   12480: c2 05        	c.slli	a1, 0x10
   12482: 42 66        	c.ldsp	a2, 0x10(sp)
   12484: 62 06        	c.slli	a2, 0x18
   12486: d1 8d        	c.or	a1, a2
   12488: 33 64 b5 00  	or	s0, a0, a1
   1248c: 62 7c        	c.ldsp	s8, 0x38(sp)
   1248e: 25 c8        	c.beqz	s0, 0x124fe <start_input_bmp+0x3ae>
   12490: 93 05 40 06  	addi	a1, zero, 0x64
   12494: 56 85        	c.mv	a0, s5
   12496: ef b0 b1 23  	jal	ra, 0x2ded0 <__udivdi3>
   1249a: 23 1f aa 10  	sh	a0, 0x11e(s4)
   1249e: 93 05 40 06  	addi	a1, zero, 0x64
   124a2: 22 85        	c.mv	a0, s0
   124a4: ef b0 d1 22  	jal	ra, 0x2ded0 <__udivdi3>
   124a8: 23 10 aa 12  	sh	a0, 0x120(s4)
   124ac: 09 45        	c.li	a0, 0x2
   124ae: 23 0e aa 10  	sb	a0, 0x11c(s4)
   124b2: b1 a0        	c.j	0x124fe <start_input_bmp+0x3ae>
   124b4: 62 7c        	c.ldsp	s8, 0x38(sp)
   124b6: a1 a0        	c.j	0x124fe <start_input_bmp+0x3ae>
   124b8: 23 26 35 03  	sw	s3, 0x2c(a0)
   124bc: 83 35 0a 00  	ld	a1, 0x0(s4)
   124c0: 13 06 20 3f  	addi	a2, zero, 0x3f2
   124c4: 10 d5        	c.sw	a2, 0x28(a0)
   124c6: 23 a8 75 03  	sw	s7, 0x30(a1)
   124ca: 03 35 0a 00  	ld	a0, 0x0(s4)
   124ce: 10 65        	c.ld	a2, 0x8(a0)
   124d0: 85 45        	c.li	a1, 0x1
   124d2: 52 85        	c.mv	a0, s4
   124d4: 02 96        	c.jalr	a2
   124d6: 39 a0        	c.j	0x124e4 <start_input_bmp+0x394>
   124d8: 0c 61        	c.ld	a1, 0x0(a0)
   124da: 13 06 a0 3e  	addi	a2, zero, 0x3ea
   124de: 10 d5        	c.sw	a2, 0x28(a0)
   124e0: 52 85        	c.mv	a0, s4
   124e2: 82 95        	c.jalr	a1
   124e4: 01 4d        	c.li	s10, 0x0
   124e6: 05 45        	c.li	a0, 0x1
   124e8: 63 0a a4 00  	beq	s0, a0, 0x124fc <start_input_bmp+0x3ac>
   124ec: 03 35 0a 00  	ld	a0, 0x0(s4)
   124f0: 0c 61        	c.ld	a1, 0x0(a0)
   124f2: 13 06 c0 3e  	addi	a2, zero, 0x3ec
   124f6: 10 d5        	c.sw	a2, 0x28(a0)
   124f8: 52 85        	c.mv	a0, s4
   124fa: 82 95        	c.jalr	a1
   124fc: 01 4b        	c.li	s6, 0x0
   124fe: 49 1c        	c.addi	s8, -0xe
   12500: 63 0c 0d 18  	beq	s10, zero, 0x12698 <start_input_bmp+0x548>
   12504: 63 0f 0b 00  	beq	s6, zero, 0x12522 <start_input_bmp+0x3d2>
   12508: 13 05 10 10  	addi	a0, zero, 0x101
   1250c: 63 6d ab 00  	bltu	s6, a0, 0x12526 <start_input_bmp+0x3d6>
   12510: 03 35 0a 00  	ld	a0, 0x0(s4)
   12514: 0c 61        	c.ld	a1, 0x0(a0)
   12516: 13 06 90 3e  	addi	a2, zero, 0x3e9
   1251a: 10 d5        	c.sw	a2, 0x28(a0)
   1251c: 52 85        	c.mv	a0, s4
   1251e: 82 95        	c.jalr	a1
   12520: 19 a0        	c.j	0x12526 <start_input_bmp+0x3d6>
   12522: 13 0b 00 10  	addi	s6, zero, 0x100
   12526: 03 35 8a 00  	ld	a0, 0x8(s4)
   1252a: 18 69        	c.ld	a4, 0x10(a0)
   1252c: 9b 0a 0b 00  	addiw	s5, s6, 0x0
   12530: 85 45        	c.li	a1, 0x1
   12532: 8d 46        	c.li	a3, 0x3
   12534: 0d 44        	c.li	s0, 0x3
   12536: 52 85        	c.mv	a0, s4
   12538: 56 86        	c.mv	a2, s5
   1253a: 02 97        	c.jalr	a4
   1253c: 23 bc ac 02  	sd	a0, 0x38(s9)
   12540: 63 08 8d 0a  	beq	s10, s0, 0x125f0 <start_input_bmp+0x4a0>
   12544: 11 45        	c.li	a0, 0x4
   12546: 63 1b ad 12  	bne	s10, a0, 0x1267c <start_input_bmp+0x52c>
   1254a: 63 51 50 15  	bge	zero, s5, 0x1268c <start_input_bmp+0x53c>
   1254e: 81 44        	c.li	s1, 0x0
   12550: 7d 59        	c.li	s2, -0x1
   12552: 93 0a a0 02  	addi	s5, zero, 0x2a
   12556: 03 b5 8c 01  	ld	a0, 0x18(s9)
   1255a: ef 80 50 2a  	jal	ra, 0x1affe <getc>
   1255e: 2a 84        	c.mv	s0, a0
   12560: 63 19 25 01  	bne	a0, s2, 0x12572 <start_input_bmp+0x422>
   12564: 03 b5 0c 03  	ld	a0, 0x30(s9)
   12568: 0c 61        	c.ld	a1, 0x0(a0)
   1256a: 90 61        	c.ld	a2, 0x0(a1)
   1256c: 23 a4 55 03  	sw	s5, 0x28(a1)
   12570: 02 96        	c.jalr	a2
   12572: 03 b5 8c 03  	ld	a0, 0x38(s9)
   12576: 08 69        	c.ld	a0, 0x10(a0)
   12578: 26 95        	c.add	a0, s1
   1257a: 23 00 85 00  	sb	s0, 0x0(a0)
   1257e: 03 b5 8c 01  	ld	a0, 0x18(s9)
   12582: ef 80 d0 27  	jal	ra, 0x1affe <getc>
   12586: 2a 84        	c.mv	s0, a0
   12588: 63 19 25 01  	bne	a0, s2, 0x1259a <start_input_bmp+0x44a>
   1258c: 03 b5 0c 03  	ld	a0, 0x30(s9)
   12590: 0c 61        	c.ld	a1, 0x0(a0)
   12592: 90 61        	c.ld	a2, 0x0(a1)
   12594: 23 a4 55 03  	sw	s5, 0x28(a1)
   12598: 02 96        	c.jalr	a2
   1259a: 03 b5 8c 03  	ld	a0, 0x38(s9)
   1259e: 08 65        	c.ld	a0, 0x8(a0)
   125a0: 26 95        	c.add	a0, s1
   125a2: 23 00 85 00  	sb	s0, 0x0(a0)
   125a6: 03 b5 8c 01  	ld	a0, 0x18(s9)
   125aa: ef 80 50 25  	jal	ra, 0x1affe <getc>
   125ae: 2a 84        	c.mv	s0, a0
   125b0: 63 19 25 01  	bne	a0, s2, 0x125c2 <start_input_bmp+0x472>
   125b4: 03 b5 0c 03  	ld	a0, 0x30(s9)
   125b8: 0c 61        	c.ld	a1, 0x0(a0)
   125ba: 90 61        	c.ld	a2, 0x0(a1)
   125bc: 23 a4 55 03  	sw	s5, 0x28(a1)
   125c0: 02 96        	c.jalr	a2
   125c2: 03 b5 8c 03  	ld	a0, 0x38(s9)
   125c6: 08 61        	c.ld	a0, 0x0(a0)
   125c8: 26 95        	c.add	a0, s1
   125ca: 23 00 85 00  	sb	s0, 0x0(a0)
   125ce: 03 b5 8c 01  	ld	a0, 0x18(s9)
   125d2: ef 80 d0 22  	jal	ra, 0x1affe <getc>
   125d6: 63 19 25 01  	bne	a0, s2, 0x125e8 <start_input_bmp+0x498>
   125da: 03 b5 0c 03  	ld	a0, 0x30(s9)
   125de: 0c 61        	c.ld	a1, 0x0(a0)
   125e0: 90 61        	c.ld	a2, 0x0(a1)
   125e2: 23 a4 55 03  	sw	s5, 0x28(a1)
   125e6: 02 96        	c.jalr	a2
   125e8: 85 04        	c.addi	s1, 0x1
   125ea: e3 16 9b f6  	bne	s6, s1, 0x12556 <start_input_bmp+0x406>
   125ee: 79 a8        	c.j	0x1268c <start_input_bmp+0x53c>
   125f0: 63 5e 50 09  	bge	zero, s5, 0x1268c <start_input_bmp+0x53c>
   125f4: 81 44        	c.li	s1, 0x0
   125f6: 7d 59        	c.li	s2, -0x1
   125f8: 93 0a a0 02  	addi	s5, zero, 0x2a
   125fc: 03 b5 8c 01  	ld	a0, 0x18(s9)
   12600: ef 80 f0 1f  	jal	ra, 0x1affe <getc>
   12604: 2a 84        	c.mv	s0, a0
   12606: 63 19 25 01  	bne	a0, s2, 0x12618 <start_input_bmp+0x4c8>
   1260a: 03 b5 0c 03  	ld	a0, 0x30(s9)
   1260e: 0c 61        	c.ld	a1, 0x0(a0)
   12610: 90 61        	c.ld	a2, 0x0(a1)
   12612: 23 a4 55 03  	sw	s5, 0x28(a1)
   12616: 02 96        	c.jalr	a2
   12618: 03 b5 8c 03  	ld	a0, 0x38(s9)
   1261c: 08 69        	c.ld	a0, 0x10(a0)
   1261e: 26 95        	c.add	a0, s1
   12620: 23 00 85 00  	sb	s0, 0x0(a0)
   12624: 03 b5 8c 01  	ld	a0, 0x18(s9)
   12628: ef 80 70 1d  	jal	ra, 0x1affe <getc>
   1262c: 2a 84        	c.mv	s0, a0
   1262e: 63 19 25 01  	bne	a0, s2, 0x12640 <start_input_bmp+0x4f0>
   12632: 03 b5 0c 03  	ld	a0, 0x30(s9)
   12636: 0c 61        	c.ld	a1, 0x0(a0)
   12638: 90 61        	c.ld	a2, 0x0(a1)
   1263a: 23 a4 55 03  	sw	s5, 0x28(a1)
   1263e: 02 96        	c.jalr	a2
   12640: 03 b5 8c 03  	ld	a0, 0x38(s9)
   12644: 08 65        	c.ld	a0, 0x8(a0)
   12646: 26 95        	c.add	a0, s1
   12648: 23 00 85 00  	sb	s0, 0x0(a0)
   1264c: 03 b5 8c 01  	ld	a0, 0x18(s9)
   12650: ef 80 f0 1a  	jal	ra, 0x1affe <getc>
   12654: 2a 84        	c.mv	s0, a0
   12656: 63 19 25 01  	bne	a0, s2, 0x12668 <start_input_bmp+0x518>
   1265a: 03 b5 0c 03  	ld	a0, 0x30(s9)
   1265e: 0c 61        	c.ld	a1, 0x0(a0)
   12660: 90 61        	c.ld	a2, 0x0(a1)
   12662: 23 a4 55 03  	sw	s5, 0x28(a1)
   12666: 02 96        	c.jalr	a2
   12668: 03 b5 8c 03  	ld	a0, 0x38(s9)
   1266c: 08 61        	c.ld	a0, 0x0(a0)
   1266e: 26 95        	c.add	a0, s1
   12670: 85 04        	c.addi	s1, 0x1
   12672: 23 00 85 00  	sb	s0, 0x0(a0)
   12676: e3 13 9b f8  	bne	s6, s1, 0x125fc <start_input_bmp+0x4ac>
   1267a: 09 a8        	c.j	0x1268c <start_input_bmp+0x53c>
   1267c: 03 b5 0c 03  	ld	a0, 0x30(s9)
   12680: 0c 61        	c.ld	a1, 0x0(a0)
   12682: 90 61        	c.ld	a2, 0x0(a1)
   12684: 93 06 90 3e  	addi	a3, zero, 0x3e9
   12688: 94 d5        	c.sw	a3, 0x28(a1)
   1268a: 02 96        	c.jalr	a2
   1268c: 5a 85        	c.mv	a0, s6
   1268e: ea 85        	c.mv	a1, s10
   12690: ef b0 81 7f  	jal	ra, 0x2de88 <__muldi3>
   12694: 33 0c ac 40  	sub	s8, s8, a0
   12698: 63 4a 0c 02  	blt	s8, zero, 0x126cc <start_input_bmp+0x57c>
   1269c: 63 00 0c 04  	beq	s8, zero, 0x126dc <start_input_bmp+0x58c>
   126a0: 05 0c        	c.addi	s8, 0x1
   126a2: 7d 54        	c.li	s0, -0x1
   126a4: 13 09 a0 02  	addi	s2, zero, 0x2a
   126a8: 85 44        	c.li	s1, 0x1
   126aa: 03 b5 8c 01  	ld	a0, 0x18(s9)
   126ae: ef 80 10 15  	jal	ra, 0x1affe <getc>
   126b2: 63 19 85 00  	bne	a0, s0, 0x126c4 <start_input_bmp+0x574>
   126b6: 03 b5 0c 03  	ld	a0, 0x30(s9)
   126ba: 0c 61        	c.ld	a1, 0x0(a0)
   126bc: 90 61        	c.ld	a2, 0x0(a1)
   126be: 23 a4 25 03  	sw	s2, 0x28(a1)
   126c2: 02 96        	c.jalr	a2
   126c4: 7d 1c        	c.addi	s8, -0x1
   126c6: e3 e2 84 ff  	bltu	s1, s8, 0x126aa <start_input_bmp+0x55a>
   126ca: 09 a8        	c.j	0x126dc <start_input_bmp+0x58c>
   126cc: 03 35 0a 00  	ld	a0, 0x0(s4)
   126d0: 0c 61        	c.ld	a1, 0x0(a0)
   126d2: 13 06 b0 3e  	addi	a2, zero, 0x3eb
   126d6: 10 d5        	c.sw	a2, 0x28(a0)
   126d8: 52 85        	c.mv	a0, s4
   126da: 82 95        	c.jalr	a1
   126dc: 83 a5 0c 05  	lw	a1, 0x50(s9)
   126e0: 13 95 19 00  	slli	a0, s3, 0x1
   126e4: 3b 04 35 01  	addw	s0, a0, s3
   126e8: 61 46        	c.li	a2, 0x18
   126ea: 22 85        	c.mv	a0, s0
   126ec: 63 83 c5 00  	beq	a1, a2, 0x126f2 <start_input_bmp+0x5a2>
   126f0: 4e 85        	c.mv	a0, s3
   126f2: 83 35 8a 00  	ld	a1, 0x8(s4)
   126f6: 3b 06 a0 40  	subw	a2, zero, a0
   126fa: 84 71        	c.ld	s1, 0x20(a1)
   126fc: 0d 8a        	c.andi	a2, 0x3
   126fe: bb 06 c5 00  	addw	a3, a0, a2
   12702: 23 a6 dc 04  	sw	a3, 0x4c(s9)
   12706: 85 45        	c.li	a1, 0x1
   12708: 85 47        	c.li	a5, 0x1
   1270a: 05 49        	c.li	s2, 0x1
   1270c: 52 85        	c.mv	a0, s4
   1270e: 01 46        	c.li	a2, 0x0
   12710: 5e 87        	c.mv	a4, s7
   12712: 82 94        	c.jalr	s1
   12714: 83 35 0a 01  	ld	a1, 0x10(s4)
   12718: 23 b0 ac 04  	sd	a0, 0x40(s9)
   1271c: 37 25 01 00  	lui	a0, 0x12
   12720: 13 05 65 76  	addi	a0, a0, 0x766
   12724: 23 b4 ac 00  	sd	a0, 0x8(s9)
   12728: 81 c5        	c.beqz	a1, 0x12730 <start_input_bmp+0x5e0>
   1272a: c8 51        	c.lw	a0, 0x24(a1)
   1272c: 05 05        	c.addi	a0, 0x1
   1272e: c8 d1        	c.sw	a0, 0x24(a1)
   12730: 03 35 8a 00  	ld	a0, 0x8(s4)
   12734: 18 69        	c.ld	a4, 0x10(a0)
   12736: 85 45        	c.li	a1, 0x1
   12738: 85 46        	c.li	a3, 0x1
   1273a: 52 85        	c.mv	a0, s4
   1273c: 22 86        	c.mv	a2, s0
   1273e: 02 97        	c.jalr	a4
   12740: 23 b0 ac 02  	sd	a0, 0x20(s9)
   12744: 23 a4 2c 03  	sw	s2, 0x28(s9)
   12748: 06 19        	c.slli	s2, 0x21
   1274a: 0d 09        	c.addi	s2, 0x3
   1274c: 23 38 2a 03  	sd	s2, 0x30(s4)
   12750: 21 45        	c.li	a0, 0x8
   12752: 23 20 aa 04  	sw	a0, 0x40(s4)
   12756: 23 24 3a 03  	sw	s3, 0x28(s4)
   1275a: 23 26 7a 03  	sw	s7, 0x2c(s4)
   1275e: 0d 61        	c.addi16sp	sp, 0xa0
   12760: 6f b0 c1 6f  	jal	zero, 0x2de5c <__riscv_restore_12>

0000000000012764 <finish_input_bmp>:
   12764: 82 80        	c.jr	ra

0000000000012766 <preload_image>:
   12766: 1d 71        	c.addi16sp	sp, -0x60
   12768: 86 ec        	c.sdsp	ra, 0x58(sp)
   1276a: a2 e8        	c.sdsp	s0, 0x50(sp)
   1276c: a6 e4        	c.sdsp	s1, 0x48(sp)
   1276e: ca e0        	c.sdsp	s2, 0x40(sp)
   12770: 4e fc        	c.sdsp	s3, 0x38(sp)
   12772: 52 f8        	c.sdsp	s4, 0x30(sp)
   12774: 56 f4        	c.sdsp	s5, 0x28(sp)
   12776: 5a f0        	c.sdsp	s6, 0x20(sp)
   12778: 5e ec        	c.sdsp	s7, 0x18(sp)
   1277a: 62 e8        	c.sdsp	s8, 0x10(sp)
   1277c: 66 e4        	c.sdsp	s9, 0x8(sp)
   1277e: aa 89        	c.mv	s3, a0
   12780: 48 55        	c.lw	a0, 0x2c(a0)
   12782: 03 ba 09 01  	ld	s4, 0x10(s3)
   12786: 2e 89        	c.mv	s2, a1
   12788: 49 c1        	c.beqz	a0, 0x1280a <preload_image+0xa4>
   1278a: 03 3c 89 01  	ld	s8, 0x18(s2)
   1278e: 81 4a        	c.li	s5, 0x0
   12790: 7d 5b        	c.li	s6, -0x1
   12792: 93 0b a0 02  	addi	s7, zero, 0x2a
   12796: 63 0c 0a 00  	beq	s4, zero, 0x127ae <preload_image+0x48>
   1279a: 02 15        	c.slli	a0, 0x20
   1279c: 83 35 0a 00  	ld	a1, 0x0(s4)
   127a0: 01 91        	c.srli	a0, 0x20
   127a2: 23 38 aa 00  	sd	a0, 0x10(s4)
   127a6: 23 34 5a 01  	sd	s5, 0x8(s4)
   127aa: 4e 85        	c.mv	a0, s3
   127ac: 82 95        	c.jalr	a1
   127ae: 03 b5 89 00  	ld	a0, 0x8(s3)
   127b2: 1c 7d        	c.ld	a5, 0x38(a0)
   127b4: 83 35 09 04  	ld	a1, 0x40(s2)
   127b8: 1b 86 0a 00  	addiw	a2, s5, 0x0
   127bc: 85 46        	c.li	a3, 0x1
   127be: 05 47        	c.li	a4, 0x1
   127c0: 4e 85        	c.mv	a0, s3
   127c2: 82 97        	c.jalr	a5
   127c4: 83 25 c9 04  	lw	a1, 0x4c(s2)
   127c8: 85 cd        	c.beqz	a1, 0x12800 <preload_image+0x9a>
   127ca: 04 61        	c.ld	s1, 0x0(a0)
   127cc: fd 15        	c.addi	a1, -0x1
   127ce: 82 15        	c.slli	a1, 0x20
   127d0: 81 91        	c.srli	a1, 0x20
   127d2: a6 95        	c.add	a1, s1
   127d4: 93 8c 15 00  	addi	s9, a1, 0x1
   127d8: 62 85        	c.mv	a0, s8
   127da: ef 80 50 02  	jal	ra, 0x1affe <getc>
   127de: 2a 84        	c.mv	s0, a0
   127e0: 63 19 65 01  	bne	a0, s6, 0x127f2 <preload_image+0x8c>
   127e4: 03 b5 09 00  	ld	a0, 0x0(s3)
   127e8: 0c 61        	c.ld	a1, 0x0(a0)
   127ea: 23 24 75 03  	sw	s7, 0x28(a0)
   127ee: 4e 85        	c.mv	a0, s3
   127f0: 82 95        	c.jalr	a1
   127f2: 13 85 14 00  	addi	a0, s1, 0x1
   127f6: 23 80 84 00  	sb	s0, 0x0(s1)
   127fa: aa 84        	c.mv	s1, a0
   127fc: e3 1e 95 fd  	bne	a0, s9, 0x127d8 <preload_image+0x72>
   12800: 03 e5 c9 02  	lwu	a0, 0x2c(s3)
   12804: 85 0a        	c.addi	s5, 0x1
   12806: e3 e8 aa f8  	bltu	s5, a0, 0x12796 <preload_image+0x30>
   1280a: 63 07 0a 00  	beq	s4, zero, 0x12818 <preload_image+0xb2>
   1280e: 83 25 0a 02  	lw	a1, 0x20(s4)
   12812: 85 05        	c.addi	a1, 0x1
   12814: 23 20 ba 02  	sw	a1, 0x20(s4)
   12818: 83 25 09 05  	lw	a1, 0x50(s2)
   1281c: 61 46        	c.li	a2, 0x18
   1281e: 63 8a c5 00  	beq	a1, a2, 0x12832 <preload_image+0xcc>
   12822: 21 46        	c.li	a2, 0x8
   12824: 63 9e c5 00  	bne	a1, a2, 0x12840 <preload_image+0xda>
   12828: b7 35 01 00  	lui	a1, 0x13
   1282c: 93 87 a5 87  	addi	a5, a1, -0x786
   12830: 29 a0        	c.j	0x1283a <preload_image+0xd4>
   12832: b7 35 01 00  	lui	a1, 0x13
   12836: 93 87 c5 8e  	addi	a5, a1, -0x714
   1283a: 23 34 f9 00  	sd	a5, 0x8(s2)
   1283e: 29 a8        	c.j	0x12858 <preload_image+0xf2>
   12840: 03 b5 09 00  	ld	a0, 0x0(s3)
   12844: 0c 61        	c.ld	a1, 0x0(a0)
   12846: 13 06 a0 3e  	addi	a2, zero, 0x3ea
   1284a: 10 d5        	c.sw	a2, 0x28(a0)
   1284c: 4e 85        	c.mv	a0, s3
   1284e: 82 95        	c.jalr	a1
   12850: 03 a5 c9 02  	lw	a0, 0x2c(s3)
   12854: 83 37 89 00  	ld	a5, 0x8(s2)
   12858: 23 24 a9 04  	sw	a0, 0x48(s2)
   1285c: 4e 85        	c.mv	a0, s3
   1285e: ca 85        	c.mv	a1, s2
   12860: e6 60        	c.ldsp	ra, 0x58(sp)
   12862: 46 64        	c.ldsp	s0, 0x50(sp)
   12864: a6 64        	c.ldsp	s1, 0x48(sp)
   12866: 06 69        	c.ldsp	s2, 0x40(sp)
   12868: e2 79        	c.ldsp	s3, 0x38(sp)
   1286a: 42 7a        	c.ldsp	s4, 0x30(sp)
   1286c: a2 7a        	c.ldsp	s5, 0x28(sp)
   1286e: 02 7b        	c.ldsp	s6, 0x20(sp)
   12870: e2 6b        	c.ldsp	s7, 0x18(sp)
   12872: 42 6c        	c.ldsp	s8, 0x10(sp)
   12874: a2 6c        	c.ldsp	s9, 0x8(sp)
   12876: 25 61        	c.addi16sp	sp, 0x60
   12878: 82 87        	c.jr	a5

000000000001287a <get_8bit_row>:
   1287a: ef b2 81 5c  	jal	t0, 0x2de42 <__riscv_save_3>
   1287e: 2a 89        	c.mv	s2, a0
   12880: 08 65        	c.ld	a0, 0x8(a0)
   12882: 2e 84        	c.mv	s0, a1
   12884: 84 7d        	c.ld	s1, 0x38(a1)
   12886: b0 45        	c.lw	a2, 0x48(a1)
   12888: 1c 7d        	c.ld	a5, 0x38(a0)
   1288a: ac 61        	c.ld	a1, 0x40(a1)
   1288c: 7d 36        	c.addiw	a2, -0x1
   1288e: 30 c4        	c.sw	a2, 0x48(s0)
   12890: 85 46        	c.li	a3, 0x1
   12892: 4a 85        	c.mv	a0, s2
   12894: 01 47        	c.li	a4, 0x0
   12896: 82 97        	c.jalr	a5
   12898: 03 26 89 02  	lw	a2, 0x28(s2)
   1289c: 29 c6        	c.beqz	a2, 0x128e6 <get_8bit_row+0x6c>
   1289e: 0c 70        	c.ld	a1, 0x20(s0)
   128a0: 8c 61        	c.ld	a1, 0x0(a1)
   128a2: 08 61        	c.ld	a0, 0x0(a0)
   128a4: 7d 16        	c.addi	a2, -0x1
   128a6: 02 16        	c.slli	a2, 0x20
   128a8: 01 92        	c.srli	a2, 0x20
   128aa: 2a 96        	c.add	a2, a0
   128ac: 05 06        	c.addi	a2, 0x1
   128ae: 83 46 05 00  	lbu	a3, 0x0(a0)
   128b2: 98 60        	c.ld	a4, 0x0(s1)
   128b4: 36 97        	c.add	a4, a3
   128b6: 03 47 07 00  	lbu	a4, 0x0(a4)
   128ba: 23 80 e5 00  	sb	a4, 0x0(a1)
   128be: 98 64        	c.ld	a4, 0x8(s1)
   128c0: 36 97        	c.add	a4, a3
   128c2: 03 47 07 00  	lbu	a4, 0x0(a4)
   128c6: a3 80 e5 00  	sb	a4, 0x1(a1)
   128ca: 98 68        	c.ld	a4, 0x10(s1)
   128cc: ba 96        	c.add	a3, a4
   128ce: 83 c6 06 00  	lbu	a3, 0x0(a3)
   128d2: 13 07 15 00  	addi	a4, a0, 0x1
   128d6: 13 85 35 00  	addi	a0, a1, 0x3
   128da: 23 81 d5 00  	sb	a3, 0x2(a1)
   128de: aa 85        	c.mv	a1, a0
   128e0: 3a 85        	c.mv	a0, a4
   128e2: e3 16 c7 fc  	bne	a4, a2, 0x128ae <get_8bit_row+0x34>
   128e6: 05 45        	c.li	a0, 0x1
   128e8: 6f b0 01 59  	jal	zero, 0x2de78 <__riscv_restore_3>

00000000000128ec <get_24bit_row>:
   128ec: ef b2 61 55  	jal	t0, 0x2de42 <__riscv_save_3>
   128f0: aa 84        	c.mv	s1, a0
   128f2: 08 65        	c.ld	a0, 0x8(a0)
   128f4: 2e 84        	c.mv	s0, a1
   128f6: b0 45        	c.lw	a2, 0x48(a1)
   128f8: 1c 7d        	c.ld	a5, 0x38(a0)
   128fa: ac 61        	c.ld	a1, 0x40(a1)
   128fc: 7d 36        	c.addiw	a2, -0x1
   128fe: 30 c4        	c.sw	a2, 0x48(s0)
   12900: 85 46        	c.li	a3, 0x1
   12902: 26 85        	c.mv	a0, s1
   12904: 01 47        	c.li	a4, 0x0
   12906: 82 97        	c.jalr	a5
   12908: 90 54        	c.lw	a2, 0x28(s1)
   1290a: 0d ce        	c.beqz	a2, 0x12944 <get_24bit_row+0x58>
   1290c: 0c 70        	c.ld	a1, 0x20(s0)
   1290e: 8c 61        	c.ld	a1, 0x0(a1)
   12910: 08 61        	c.ld	a0, 0x0(a0)
   12912: 89 05        	c.addi	a1, 0x2
   12914: 7d 16        	c.addi	a2, -0x1
   12916: 02 16        	c.slli	a2, 0x20
   12918: 93 56 06 02  	srli	a3, a2, 0x20
   1291c: 7d 82        	c.srli	a2, 0x1f
   1291e: 36 96        	c.add	a2, a3
   12920: 2a 96        	c.add	a2, a0
   12922: 0d 06        	c.addi	a2, 0x3
   12924: 83 46 05 00  	lbu	a3, 0x0(a0)
   12928: 23 80 d5 00  	sb	a3, 0x0(a1)
   1292c: 83 46 15 00  	lbu	a3, 0x1(a0)
   12930: a3 8f d5 fe  	sb	a3, -0x1(a1)
   12934: 83 46 25 00  	lbu	a3, 0x2(a0)
   12938: 23 8f d5 fe  	sb	a3, -0x2(a1)
   1293c: 0d 05        	c.addi	a0, 0x3
   1293e: 8d 05        	c.addi	a1, 0x3
   12940: e3 12 c5 fe  	bne	a0, a2, 0x12924 <get_24bit_row+0x38>
   12944: 05 45        	c.li	a0, 0x1
   12946: 6f b0 21 53  	jal	zero, 0x2de78 <__riscv_restore_3>

000000000001294a <read_quant_tables>:
   1294a: ef b2 01 4d  	jal	t0, 0x2de1a <__riscv_save_11>
   1294e: 6d 71        	c.addi16sp	sp, -0x110
   12950: 36 89        	c.mv	s2, a3
   12952: b2 89        	c.mv	s3, a2
   12954: ae 8a        	c.mv	s5, a1
   12956: 2a 8a        	c.mv	s4, a0
   12958: 37 05 03 00  	lui	a0, 0x30
   1295c: 93 05 e5 aa  	addi	a1, a0, -0x552
   12960: 56 85        	c.mv	a0, s5
   12962: ef 80 60 2a  	jal	ra, 0x1ac08 <fopen>
   12966: 25 c9        	c.beqz	a0, 0x129d6 <read_quant_tables+0x8c>
   12968: aa 8c        	c.mv	s9, a0
   1296a: 0c 02        	c.addi4spn	a1, sp, 0x100
   1296c: 70 02        	c.addi4spn	a2, sp, 0x10c
   1296e: ef 00 a0 0b  	jal	ra, 0x12a28 <read_text_integer>
   12972: 29 c5        	c.beqz	a0, 0x129bc <read_quant_tables+0x72>
   12974: 01 4c        	c.li	s8, 0x0
   12976: 13 0b 41 00  	addi	s6, sp, 0x4
   1297a: 91 4b        	c.li	s7, 0x4
   1297c: 63 0e 7c 09  	beq	s8, s7, 0x12a18 <read_quant_tables+0xce>
   12980: 12 65        	c.ldsp	a0, 0x100(sp)
   12982: 2a c0        	c.swsp	a0, 0x0(sp)
   12984: 13 04 f0 03  	addi	s0, zero, 0x3f
   12988: da 84        	c.mv	s1, s6
   1298a: 0c 02        	c.addi4spn	a1, sp, 0x100
   1298c: 70 02        	c.addi4spn	a2, sp, 0x10c
   1298e: 66 85        	c.mv	a0, s9
   12990: ef 00 80 09  	jal	ra, 0x12a28 <read_text_integer>
   12994: 21 cd        	c.beqz	a0, 0x129ec <read_quant_tables+0xa2>
   12996: 12 65        	c.ldsp	a0, 0x100(sp)
   12998: 88 c0        	c.sw	a0, 0x0(s1)
   1299a: 7d 14        	c.addi	s0, -0x1
   1299c: 91 04        	c.addi	s1, 0x4
   1299e: 75 f4        	c.bnez	s0, 0x1298a <read_quant_tables+0x40>
   129a0: 0a 86        	c.mv	a2, sp
   129a2: 52 85        	c.mv	a0, s4
   129a4: e2 85        	c.mv	a1, s8
   129a6: ce 86        	c.mv	a3, s3
   129a8: 4a 87        	c.mv	a4, s2
   129aa: ef 00 30 1a  	jal	ra, 0x1334c <jpeg_add_quant_table>
   129ae: 05 2c        	c.addiw	s8, 0x1
   129b0: 0c 02        	c.addi4spn	a1, sp, 0x100
   129b2: 70 02        	c.addi4spn	a2, sp, 0x10c
   129b4: 66 85        	c.mv	a0, s9
   129b6: ef 00 20 07  	jal	ra, 0x12a28 <read_text_integer>
   129ba: 69 f1        	c.bnez	a0, 0x1297c <read_quant_tables+0x32>
   129bc: 03 25 c1 10  	lw	a0, 0x10c(sp)
   129c0: fd 55        	c.li	a1, -0x1
   129c2: 63 06 b5 04  	beq	a0, a1, 0x12a0e <read_quant_tables+0xc4>
   129c6: 03 b5 01 20  	ld	a0, 0x200(gp)
   129ca: 08 6d        	c.ld	a0, 0x18(a0)
   129cc: b7 f5 02 00  	lui	a1, 0x2f
   129d0: 93 85 45 af  	addi	a1, a1, -0x50c
   129d4: 1d a0        	c.j	0x129fa <read_quant_tables+0xb0>
   129d6: 03 b5 01 20  	ld	a0, 0x200(gp)
   129da: 08 6d        	c.ld	a0, 0x18(a0)
   129dc: b7 f5 02 00  	lui	a1, 0x2f
   129e0: 93 85 f5 a9  	addi	a1, a1, -0x561
   129e4: 56 86        	c.mv	a2, s5
   129e6: ef 80 00 25  	jal	ra, 0x1ac36 <fprintf>
   129ea: 31 a8        	c.j	0x12a06 <read_quant_tables+0xbc>
   129ec: 03 b5 01 20  	ld	a0, 0x200(gp)
   129f0: 08 6d        	c.ld	a0, 0x18(a0)
   129f2: b7 f5 02 00  	lui	a1, 0x2f
   129f6: 93 85 55 ad  	addi	a1, a1, -0x52b
   129fa: 56 86        	c.mv	a2, s5
   129fc: ef 80 a0 23  	jal	ra, 0x1ac36 <fprintf>
   12a00: 66 85        	c.mv	a0, s9
   12a02: ef 70 70 4c  	jal	ra, 0x1a6c8 <fclose>
   12a06: 01 45        	c.li	a0, 0x0
   12a08: 51 61        	c.addi16sp	sp, 0x110
   12a0a: 6f b0 61 45  	jal	zero, 0x2de60 <__riscv_restore_11>
   12a0e: 66 85        	c.mv	a0, s9
   12a10: ef 70 90 4b  	jal	ra, 0x1a6c8 <fclose>
   12a14: 05 45        	c.li	a0, 0x1
   12a16: cd bf        	c.j	0x12a08 <read_quant_tables+0xbe>
   12a18: 03 b5 01 20  	ld	a0, 0x200(gp)
   12a1c: 08 6d        	c.ld	a0, 0x18(a0)
   12a1e: b7 f5 02 00  	lui	a1, 0x2f
   12a22: 93 85 95 ab  	addi	a1, a1, -0x547
   12a26: d1 bf        	c.j	0x129fa <read_quant_tables+0xb0>

0000000000012a28 <read_text_integer>:
   12a28: ef b2 61 40  	jal	t0, 0x2de2e <__riscv_save_7>
   12a2c: b2 89        	c.mv	s3, a2
   12a2e: 2e 89        	c.mv	s2, a1
   12a30: aa 84        	c.mv	s1, a0
   12a32: 37 05 03 00  	lui	a0, 0x30
   12a36: 13 04 85 7f  	addi	s0, a0, 0x7f8
   12a3a: 26 85        	c.mv	a0, s1
   12a3c: ef 00 20 4b  	jal	ra, 0x12eee <text_getc>
   12a40: 7d 56        	c.li	a2, -0x1
   12a42: 63 0d c5 00  	beq	a0, a2, 0x12a5c <read_text_integer+0x34>
   12a46: b3 05 a4 00  	add	a1, s0, a0
   12a4a: 83 c5 15 00  	lbu	a1, 0x1(a1)
   12a4e: 13 f6 85 00  	andi	a2, a1, 0x8
   12a52: 65 f6        	c.bnez	a2, 0x12a3a <read_text_integer+0x12>
   12a54: 91 89        	c.andi	a1, 0x4
   12a56: 89 e5        	c.bnez	a1, 0x12a60 <read_text_integer+0x38>
   12a58: 2a 86        	c.mv	a2, a0
   12a5a: 89 a8        	c.j	0x12aac <read_text_integer+0x84>
   12a5c: 81 45        	c.li	a1, 0x0
   12a5e: b9 a0        	c.j	0x12aac <read_text_integer+0x84>
   12a60: 1b 0a 05 fd  	addiw	s4, a0, -0x30
   12a64: 26 85        	c.mv	a0, s1
   12a66: ef 00 80 48  	jal	ra, 0x12eee <text_getc>
   12a6a: 7d 56        	c.li	a2, -0x1
   12a6c: 63 0d c5 02  	beq	a0, a2, 0x12aa6 <read_text_integer+0x7e>
   12a70: 2a 84        	c.mv	s0, a0
   12a72: 37 05 03 00  	lui	a0, 0x30
   12a76: 93 0a 85 7f  	addi	s5, a0, 0x7f8
   12a7a: 33 85 8a 00  	add	a0, s5, s0
   12a7e: 03 45 15 00  	lbu	a0, 0x1(a0)
   12a82: 11 89        	c.andi	a0, 0x4
   12a84: 05 c1        	c.beqz	a0, 0x12aa4 <read_text_integer+0x7c>
   12a86: a9 45        	c.li	a1, 0xa
   12a88: 52 85        	c.mv	a0, s4
   12a8a: ef b0 e1 3f  	jal	ra, 0x2de88 <__muldi3>
   12a8e: 1b 0a 04 fd  	addiw	s4, s0, -0x30
   12a92: 2a 9a        	c.add	s4, a0
   12a94: 26 85        	c.mv	a0, s1
   12a96: ef 00 80 45  	jal	ra, 0x12eee <text_getc>
   12a9a: 7d 56        	c.li	a2, -0x1
   12a9c: 2a 84        	c.mv	s0, a0
   12a9e: e3 1e c5 fc  	bne	a0, a2, 0x12a7a <read_text_integer+0x52>
   12aa2: 11 a0        	c.j	0x12aa6 <read_text_integer+0x7e>
   12aa4: 22 86        	c.mv	a2, s0
   12aa6: 23 30 49 01  	sd	s4, 0x0(s2)
   12aaa: 85 45        	c.li	a1, 0x1
   12aac: 23 a0 c9 00  	sw	a2, 0x0(s3)
   12ab0: 2e 85        	c.mv	a0, a1
   12ab2: 6f b0 a1 3b  	jal	zero, 0x2de6c <__riscv_restore_7>

0000000000012ab6 <read_scan_script>:
   12ab6: ef b2 c1 35  	jal	t0, 0x2de12 <__riscv_save_12>
   12aba: 13 01 01 80  	addi	sp, sp, -0x800
   12abe: 13 01 01 9d  	addi	sp, sp, -0x630
   12ac2: ae 89        	c.mv	s3, a1
   12ac4: 2a 89        	c.mv	s2, a0
   12ac6: 37 05 03 00  	lui	a0, 0x30
   12aca: 93 05 e5 aa  	addi	a1, a0, -0x552
   12ace: 4e 85        	c.mv	a0, s3
   12ad0: ef 80 80 13  	jal	ra, 0x1ac08 <fopen>
   12ad4: 63 06 05 18  	beq	a0, zero, 0x12c60 <read_scan_script+0x1aa>
   12ad8: 2a 8b        	c.mv	s6, a0
   12ada: 93 04 f1 7f  	addi	s1, sp, 0x7ff
   12ade: 93 84 14 62  	addi	s1, s1, 0x621
   12ae2: 93 05 f1 7f  	addi	a1, sp, 0x7ff
   12ae6: 93 85 15 62  	addi	a1, a1, 0x621
   12aea: 13 06 f1 7f  	addi	a2, sp, 0x7ff
   12aee: 13 06 d6 62  	addi	a2, a2, 0x62d
   12af2: ef 00 e0 1e  	jal	ra, 0x12ce0 <read_scan_integer>
   12af6: 63 00 05 18  	beq	a0, zero, 0x12c76 <read_scan_script+0x1c0>
   12afa: 81 4a        	c.li	s5, 0x0
   12afc: 00 08        	c.addi4spn	s0, sp, 0x10
   12afe: 93 0c 81 01  	addi	s9, sp, 0x18
   12b02: 93 0b 40 06  	addi	s7, zero, 0x64
   12b06: 13 0c 00 02  	addi	s8, zero, 0x20
   12b0a: 63 83 7a 1d  	beq	s5, s7, 0x12cd0 <read_scan_script+0x21a>
   12b0e: 8c 60        	c.ld	a1, 0x0(s1)
   12b10: c8 44        	c.lw	a0, 0xc(s1)
   12b12: 4c c0        	c.sw	a1, 0x4(s0)
   12b14: 85 4d        	c.li	s11, 0x1
   12b16: 63 1d 85 03  	bne	a0, s8, 0x12b50 <read_scan_script+0x9a>
   12b1a: 0d 4d        	c.li	s10, 0x3
   12b1c: 85 4d        	c.li	s11, 0x1
   12b1e: 66 8a        	c.mv	s4, s9
   12b20: 63 0f 0d 16  	beq	s10, zero, 0x12c9e <read_scan_script+0x1e8>
   12b24: 93 05 f1 7f  	addi	a1, sp, 0x7ff
   12b28: 93 85 15 62  	addi	a1, a1, 0x621
   12b2c: 13 06 f1 7f  	addi	a2, sp, 0x7ff
   12b30: 13 06 d6 62  	addi	a2, a2, 0x62d
   12b34: 5a 85        	c.mv	a0, s6
   12b36: ef 00 a0 1a  	jal	ra, 0x12ce0 <read_scan_integer>
   12b3a: 63 0a 05 14  	beq	a0, zero, 0x12c8e <read_scan_script+0x1d8>
   12b3e: 8c 60        	c.ld	a1, 0x0(s1)
   12b40: c8 44        	c.lw	a0, 0xc(s1)
   12b42: 23 20 ba 00  	sw	a1, 0x0(s4)
   12b46: 7d 1d        	c.addi	s10, -0x1
   12b48: 11 0a        	c.addi	s4, 0x4
   12b4a: 85 0d        	c.addi	s11, 0x1
   12b4c: e3 0a 85 fd  	beq	a0, s8, 0x12b20 <read_scan_script+0x6a>
   12b50: 23 20 b4 01  	sw	s11, 0x0(s0)
   12b54: 93 05 a0 03  	addi	a1, zero, 0x3a
   12b58: 63 17 b5 08  	bne	a0, a1, 0x12be6 <read_scan_script+0x130>
   12b5c: 93 05 f1 7f  	addi	a1, sp, 0x7ff
   12b60: 93 85 15 62  	addi	a1, a1, 0x621
   12b64: 13 06 f1 7f  	addi	a2, sp, 0x7ff
   12b68: 13 06 d6 62  	addi	a2, a2, 0x62d
   12b6c: 5a 85        	c.mv	a0, s6
   12b6e: ef 00 20 17  	jal	ra, 0x12ce0 <read_scan_integer>
   12b72: 63 0e 05 10  	beq	a0, zero, 0x12c8e <read_scan_script+0x1d8>
   12b76: c8 44        	c.lw	a0, 0xc(s1)
   12b78: 63 1b 85 11  	bne	a0, s8, 0x12c8e <read_scan_script+0x1d8>
   12b7c: 88 60        	c.ld	a0, 0x0(s1)
   12b7e: 48 c8        	c.sw	a0, 0x14(s0)
   12b80: 93 05 f1 7f  	addi	a1, sp, 0x7ff
   12b84: 93 85 15 62  	addi	a1, a1, 0x621
   12b88: 13 06 f1 7f  	addi	a2, sp, 0x7ff
   12b8c: 13 06 d6 62  	addi	a2, a2, 0x62d
   12b90: 5a 85        	c.mv	a0, s6
   12b92: ef 00 e0 14  	jal	ra, 0x12ce0 <read_scan_integer>
   12b96: 63 0c 05 0e  	beq	a0, zero, 0x12c8e <read_scan_script+0x1d8>
   12b9a: c8 44        	c.lw	a0, 0xc(s1)
   12b9c: 63 19 85 0f  	bne	a0, s8, 0x12c8e <read_scan_script+0x1d8>
   12ba0: 88 60        	c.ld	a0, 0x0(s1)
   12ba2: 08 cc        	c.sw	a0, 0x18(s0)
   12ba4: 93 05 f1 7f  	addi	a1, sp, 0x7ff
   12ba8: 93 85 15 62  	addi	a1, a1, 0x621
   12bac: 13 06 f1 7f  	addi	a2, sp, 0x7ff
   12bb0: 13 06 d6 62  	addi	a2, a2, 0x62d
   12bb4: 5a 85        	c.mv	a0, s6
   12bb6: ef 00 a0 12  	jal	ra, 0x12ce0 <read_scan_integer>
   12bba: 71 c9        	c.beqz	a0, 0x12c8e <read_scan_script+0x1d8>
   12bbc: c8 44        	c.lw	a0, 0xc(s1)
   12bbe: 63 18 85 0d  	bne	a0, s8, 0x12c8e <read_scan_script+0x1d8>
   12bc2: 88 60        	c.ld	a0, 0x0(s1)
   12bc4: 48 cc        	c.sw	a0, 0x1c(s0)
   12bc6: 93 05 f1 7f  	addi	a1, sp, 0x7ff
   12bca: 93 85 15 62  	addi	a1, a1, 0x621
   12bce: 13 06 f1 7f  	addi	a2, sp, 0x7ff
   12bd2: 13 06 d6 62  	addi	a2, a2, 0x62d
   12bd6: 5a 85        	c.mv	a0, s6
   12bd8: ef 00 80 10  	jal	ra, 0x12ce0 <read_scan_integer>
   12bdc: 4d c9        	c.beqz	a0, 0x12c8e <read_scan_script+0x1d8>
   12bde: 8c 60        	c.ld	a1, 0x0(s1)
   12be0: c8 44        	c.lw	a0, 0xc(s1)
   12be2: 0c d0        	c.sw	a1, 0x20(s0)
   12be4: 11 a8        	c.j	0x12bf8 <read_scan_script+0x142>
   12be6: 23 2a 04 00  	sw	zero, 0x14(s0)
   12bea: 93 05 f0 03  	addi	a1, zero, 0x3f
   12bee: 0c cc        	c.sw	a1, 0x18(s0)
   12bf0: 23 2e 04 00  	sw	zero, 0x1c(s0)
   12bf4: 23 20 04 02  	sw	zero, 0x20(s0)
   12bf8: fd 55        	c.li	a1, -0x1
   12bfa: 63 06 b5 00  	beq	a0, a1, 0x12c06 <read_scan_script+0x150>
   12bfe: 93 05 b0 03  	addi	a1, zero, 0x3b
   12c02: 63 16 b5 08  	bne	a0, a1, 0x12c8e <read_scan_script+0x1d8>
   12c06: 13 04 44 02  	addi	s0, s0, 0x24
   12c0a: 85 2a        	c.addiw	s5, 0x1
   12c0c: 93 05 f1 7f  	addi	a1, sp, 0x7ff
   12c10: 93 85 15 62  	addi	a1, a1, 0x621
   12c14: 13 06 f1 7f  	addi	a2, sp, 0x7ff
   12c18: 13 06 d6 62  	addi	a2, a2, 0x62d
   12c1c: 5a 85        	c.mv	a0, s6
   12c1e: ef 00 20 0c  	jal	ra, 0x12ce0 <read_scan_integer>
   12c22: 93 8c 4c 02  	addi	s9, s9, 0x24
   12c26: e3 12 05 ee  	bne	a0, zero, 0x12b0a <read_scan_script+0x54>
   12c2a: c8 44        	c.lw	a0, 0xc(s1)
   12c2c: fd 55        	c.li	a1, -0x1
   12c2e: 63 18 b5 04  	bne	a0, a1, 0x12c7e <read_scan_script+0x1c8>
   12c32: 03 35 89 00  	ld	a0, 0x8(s2)
   12c36: 00 61        	c.ld	s0, 0x0(a0)
   12c38: 93 05 40 02  	addi	a1, zero, 0x24
   12c3c: 56 85        	c.mv	a0, s5
   12c3e: ef b0 a1 24  	jal	ra, 0x2de88 <__muldi3>
   12c42: aa 89        	c.mv	s3, a0
   12c44: 85 45        	c.li	a1, 0x1
   12c46: 4a 85        	c.mv	a0, s2
   12c48: 4e 86        	c.mv	a2, s3
   12c4a: 02 94        	c.jalr	s0
   12c4c: 2a 8a        	c.mv	s4, a0
   12c4e: 0c 08        	c.addi4spn	a1, sp, 0x10
   12c50: 4e 86        	c.mv	a2, s3
   12c52: ef 90 20 0d  	jal	ra, 0x1bd24 <memcpy>
   12c56: 23 38 49 0f  	sd	s4, 0xf0(s2)
   12c5a: 23 24 59 0f  	sw	s5, 0xe8(s2)
   12c5e: a5 a0        	c.j	0x12cc6 <read_scan_script+0x210>
   12c60: 03 b5 01 20  	ld	a0, 0x200(gp)
   12c64: 08 6d        	c.ld	a0, 0x18(a0)
   12c66: b7 f5 02 00  	lui	a1, 0x2f
   12c6a: 93 85 15 b1  	addi	a1, a1, -0x4ef
   12c6e: 4e 86        	c.mv	a2, s3
   12c70: ef 70 70 7c  	jal	ra, 0x1ac36 <fprintf>
   12c74: 91 a0        	c.j	0x12cb8 <read_scan_script+0x202>
   12c76: c8 44        	c.lw	a0, 0xc(s1)
   12c78: fd 55        	c.li	a1, -0x1
   12c7a: 63 06 b5 04  	beq	a0, a1, 0x12cc6 <read_scan_script+0x210>
   12c7e: 03 b5 01 20  	ld	a0, 0x200(gp)
   12c82: 08 6d        	c.ld	a0, 0x18(a0)
   12c84: b7 f5 02 00  	lui	a1, 0x2f
   12c88: 93 85 45 af  	addi	a1, a1, -0x50c
   12c8c: 05 a0        	c.j	0x12cac <read_scan_script+0x1f6>
   12c8e: 03 b5 01 20  	ld	a0, 0x200(gp)
   12c92: 08 6d        	c.ld	a0, 0x18(a0)
   12c94: b7 f5 02 00  	lui	a1, 0x2f
   12c98: 93 85 45 b8  	addi	a1, a1, -0x47c
   12c9c: 01 a8        	c.j	0x12cac <read_scan_script+0x1f6>
   12c9e: 03 b5 01 20  	ld	a0, 0x200(gp)
   12ca2: 08 6d        	c.ld	a0, 0x18(a0)
   12ca4: b7 f5 02 00  	lui	a1, 0x2f
   12ca8: 93 85 85 b5  	addi	a1, a1, -0x4a8
   12cac: 4e 86        	c.mv	a2, s3
   12cae: ef 70 90 78  	jal	ra, 0x1ac36 <fprintf>
   12cb2: 5a 85        	c.mv	a0, s6
   12cb4: ef 70 50 21  	jal	ra, 0x1a6c8 <fclose>
   12cb8: 01 45        	c.li	a0, 0x0
   12cba: 13 01 01 7f  	addi	sp, sp, 0x7f0
   12cbe: 13 01 01 64  	addi	sp, sp, 0x640
   12cc2: 6f b0 a1 19  	jal	zero, 0x2de5c <__riscv_restore_12>
   12cc6: 5a 85        	c.mv	a0, s6
   12cc8: ef 70 10 20  	jal	ra, 0x1a6c8 <fclose>
   12ccc: 05 45        	c.li	a0, 0x1
   12cce: f5 b7        	c.j	0x12cba <read_scan_script+0x204>
   12cd0: 03 b5 01 20  	ld	a0, 0x200(gp)
   12cd4: 08 6d        	c.ld	a0, 0x18(a0)
   12cd6: b7 f5 02 00  	lui	a1, 0x2f
   12cda: 93 85 55 b3  	addi	a1, a1, -0x4cb
   12cde: f9 b7        	c.j	0x12cac <read_scan_script+0x1f6>

0000000000012ce0 <read_scan_integer>:
   12ce0: ef b2 81 15  	jal	t0, 0x2de38 <__riscv_save_5>
   12ce4: 32 89        	c.mv	s2, a2
   12ce6: aa 89        	c.mv	s3, a0
   12ce8: ef f0 1f d4  	jal	ra, 0x12a28 <read_text_integer>
   12cec: 3d c9        	c.beqz	a0, 0x12d62 <read_scan_integer+0x82>
   12cee: 03 25 09 00  	lw	a0, 0x0(s2)
   12cf2: fd 55        	c.li	a1, -0x1
   12cf4: 63 05 b5 02  	beq	a0, a1, 0x12d1e <read_scan_integer+0x3e>
   12cf8: b7 05 03 00  	lui	a1, 0x30
   12cfc: 93 84 85 7f  	addi	s1, a1, 0x7f8
   12d00: b3 85 a4 00  	add	a1, s1, a0
   12d04: 83 c5 15 00  	lbu	a1, 0x1(a1)
   12d08: a1 89        	c.andi	a1, 0x8
   12d0a: 13 b4 15 00  	sltiu	s0, a1, 0x1
   12d0e: 91 c9        	c.beqz	a1, 0x12d22 <read_scan_integer+0x42>
   12d10: 4e 85        	c.mv	a0, s3
   12d12: ef 00 c0 1d  	jal	ra, 0x12eee <text_getc>
   12d16: fd 55        	c.li	a1, -0x1
   12d18: e3 14 b5 fe  	bne	a0, a1, 0x12d00 <read_scan_integer+0x20>
   12d1c: 21 a0        	c.j	0x12d24 <read_scan_integer+0x44>
   12d1e: 01 44        	c.li	s0, 0x0
   12d20: 11 a0        	c.j	0x12d24 <read_scan_integer+0x44>
   12d22: aa 85        	c.mv	a1, a0
   12d24: 37 05 03 00  	lui	a0, 0x30
   12d28: 13 05 85 7f  	addi	a0, a0, 0x7f8
   12d2c: 2e 95        	c.add	a0, a1
   12d2e: 03 45 15 00  	lbu	a0, 0x1(a0)
   12d32: 11 89        	c.andi	a0, 0x4
   12d34: 19 e9        	c.bnez	a0, 0x12d4a <read_scan_integer+0x6a>
   12d36: 1b 85 45 fc  	addiw	a0, a1, -0x3c
   12d3a: 13 35 e5 ff  	sltiu	a0, a0, -0x2
   12d3e: 61 8d        	c.and	a0, s0
   12d40: 13 06 00 02  	addi	a2, zero, 0x20
   12d44: 01 ed        	c.bnez	a0, 0x12d5c <read_scan_integer+0x7c>
   12d46: 2e 86        	c.mv	a2, a1
   12d48: 11 a8        	c.j	0x12d5c <read_scan_integer+0x7c>
   12d4a: 2e 85        	c.mv	a0, a1
   12d4c: ce 85        	c.mv	a1, s3
   12d4e: ef 80 f0 0d  	jal	ra, 0x1b62c <ungetc>
   12d52: fd 55        	c.li	a1, -0x1
   12d54: 13 06 00 02  	addi	a2, zero, 0x20
   12d58: 63 07 b5 00  	beq	a0, a1, 0x12d66 <read_scan_integer+0x86>
   12d5c: 23 20 c9 00  	sw	a2, 0x0(s2)
   12d60: 05 45        	c.li	a0, 0x1
   12d62: 6f b0 01 11  	jal	zero, 0x2de72 <__riscv_restore_5>
   12d66: 01 45        	c.li	a0, 0x0
   12d68: 6f b0 a1 10  	jal	zero, 0x2de72 <__riscv_restore_5>

0000000000012d6c <set_quant_slots>:
   12d6c: ef b2 81 0b  	jal	t0, 0x2de24 <__riscv_save_9>
   12d70: 41 11        	c.addi	sp, -0x10
   12d72: 2e 84        	c.mv	s0, a1
   12d74: 2a 89        	c.mv	s2, a0
   12d76: 81 4b        	c.li	s7, 0x0
   12d78: 02 c6        	c.swsp	zero, 0xc(sp)
   12d7a: 29 4a        	c.li	s4, 0xa
   12d7c: 93 0a c0 02  	addi	s5, zero, 0x2c
   12d80: 37 f5 02 00  	lui	a0, 0x2f
   12d84: 93 09 b5 bd  	addi	s3, a0, -0x425
   12d88: 11 4b        	c.li	s6, 0x4
   12d8a: 03 45 04 00  	lbu	a0, 0x0(s0)
   12d8e: 29 c5        	c.beqz	a0, 0x12dd8 <set_quant_slots+0x6c>
   12d90: a3 05 51 01  	sb	s5, 0xb(sp)
   12d94: 70 00        	c.addi4spn	a2, sp, 0xc
   12d96: 93 06 b1 00  	addi	a3, sp, 0xb
   12d9a: 22 85        	c.mv	a0, s0
   12d9c: ce 85        	c.mv	a1, s3
   12d9e: ef 80 20 53  	jal	ra, 0x1b2d0 <sscanf>
   12da2: aa 85        	c.mv	a1, a0
   12da4: 01 45        	c.li	a0, 0x0
   12da6: 63 54 b0 06  	bge	zero, a1, 0x12e0e <set_quant_slots+0xa2>
   12daa: 83 45 b1 00  	lbu	a1, 0xb(sp)
   12dae: 63 90 55 07  	bne	a1, s5, 0x12e0e <set_quant_slots+0xa2>
   12db2: b2 44        	c.lwsp	s1, 0xc(sp)
   12db4: 63 f2 64 05  	bgeu	s1, s6, 0x12df8 <set_quant_slots+0x8c>
   12db8: 03 3c 09 05  	ld	s8, 0x50(s2)
   12dbc: 93 05 00 06  	addi	a1, zero, 0x60
   12dc0: 5e 85        	c.mv	a0, s7
   12dc2: ef b0 61 0c  	jal	ra, 0x2de88 <__muldi3>
   12dc6: 62 95        	c.add	a0, s8
   12dc8: 04 c9        	c.sw	s1, 0x10(a0)
   12dca: 03 45 04 00  	lbu	a0, 0x0(s0)
   12dce: 05 c1        	c.beqz	a0, 0x12dee <set_quant_slots+0x82>
   12dd0: 05 04        	c.addi	s0, 0x1
   12dd2: e3 1c 55 ff  	bne	a0, s5, 0x12dca <set_quant_slots+0x5e>
   12dd6: 21 a8        	c.j	0x12dee <set_quant_slots+0x82>
   12dd8: 32 4c        	c.lwsp	s8, 0xc(sp)
   12dda: 83 34 09 05  	ld	s1, 0x50(s2)
   12dde: 93 05 00 06  	addi	a1, zero, 0x60
   12de2: 5e 85        	c.mv	a0, s7
   12de4: ef b0 41 0a  	jal	ra, 0x2de88 <__muldi3>
   12de8: 26 95        	c.add	a0, s1
   12dea: 23 28 85 01  	sw	s8, 0x10(a0)
   12dee: 85 0b        	c.addi	s7, 0x1
   12df0: e3 9d 4b f9  	bne	s7, s4, 0x12d8a <set_quant_slots+0x1e>
   12df4: 05 45        	c.li	a0, 0x1
   12df6: 21 a8        	c.j	0x12e0e <set_quant_slots+0xa2>
   12df8: 03 b5 01 20  	ld	a0, 0x200(gp)
   12dfc: 08 6d        	c.ld	a0, 0x18(a0)
   12dfe: b7 f5 02 00  	lui	a1, 0x2f
   12e02: 93 85 a5 ba  	addi	a1, a1, -0x456
   12e06: 0d 46        	c.li	a2, 0x3
   12e08: ef 70 f0 62  	jal	ra, 0x1ac36 <fprintf>
   12e0c: 01 45        	c.li	a0, 0x0
   12e0e: 41 01        	c.addi	sp, 0x10
   12e10: 6f b0 61 05  	jal	zero, 0x2de66 <__riscv_restore_9>

0000000000012e14 <set_sample_factors>:
   12e14: ef a2 f1 7f  	jal	t0, 0x2de12 <__riscv_save_12>
   12e18: 41 11        	c.addi	sp, -0x10
   12e1a: 2e 84        	c.mv	s0, a1
   12e1c: 2a 89        	c.mv	s2, a0
   12e1e: 81 4d        	c.li	s11, 0x0
   12e20: 05 45        	c.li	a0, 0x1
   12e22: 02 15        	c.slli	a0, 0x20
   12e24: 13 0a 15 00  	addi	s4, a0, 0x1
   12e28: a9 4a        	c.li	s5, 0xa
   12e2a: 13 0b c0 02  	addi	s6, zero, 0x2c
   12e2e: 37 f5 02 00  	lui	a0, 0x2f
   12e32: 93 09 75 bd  	addi	s3, a0, -0x429
   12e36: 8d 4b        	c.li	s7, 0x3
   12e38: 13 0c 80 05  	addi	s8, zero, 0x58
   12e3c: f1 5c        	c.li	s9, -0x4
   12e3e: 03 45 04 00  	lbu	a0, 0x0(s0)
   12e42: 3d c5        	c.beqz	a0, 0x12eb0 <set_sample_factors+0x9c>
   12e44: 23 03 61 01  	sb	s6, 0x6(sp)
   12e48: 70 00        	c.addi4spn	a2, sp, 0xc
   12e4a: 93 06 71 00  	addi	a3, sp, 0x7
   12e4e: 38 00        	c.addi4spn	a4, sp, 0x8
   12e50: 93 07 61 00  	addi	a5, sp, 0x6
   12e54: 22 85        	c.mv	a0, s0
   12e56: ce 85        	c.mv	a1, s3
   12e58: ef 80 80 47  	jal	ra, 0x1b2d0 <sscanf>
   12e5c: 63 45 75 09  	blt	a0, s7, 0x12ee6 <set_sample_factors+0xd2>
   12e60: 03 45 71 00  	lbu	a0, 0x7(sp)
   12e64: 93 75 f5 0d  	andi	a1, a0, 0xdf
   12e68: 01 45        	c.li	a0, 0x0
   12e6a: 63 9f 85 07  	bne	a1, s8, 0x12ee8 <set_sample_factors+0xd4>
   12e6e: 83 45 61 00  	lbu	a1, 0x6(sp)
   12e72: 63 9b 65 07  	bne	a1, s6, 0x12ee8 <set_sample_factors+0xd4>
   12e76: b2 44        	c.lwsp	s1, 0xc(sp)
   12e78: 1b 85 b4 ff  	addiw	a0, s1, -0x5
   12e7c: 63 69 95 05  	bltu	a0, s9, 0x12ece <set_sample_factors+0xba>
   12e80: 22 45        	c.lwsp	a0, 0x8(sp)
   12e82: 63 56 a0 04  	bge	zero, a0, 0x12ece <set_sample_factors+0xba>
   12e86: 95 45        	c.li	a1, 0x5
   12e88: 63 53 b5 04  	bge	a0, a1, 0x12ece <set_sample_factors+0xba>
   12e8c: 03 3d 09 05  	ld	s10, 0x50(s2)
   12e90: 93 05 00 06  	addi	a1, zero, 0x60
   12e94: 6e 85        	c.mv	a0, s11
   12e96: ef a0 31 7f  	jal	ra, 0x2de88 <__muldi3>
   12e9a: 6a 95        	c.add	a0, s10
   12e9c: 04 c5        	c.sw	s1, 0x8(a0)
   12e9e: a2 45        	c.lwsp	a1, 0x8(sp)
   12ea0: 4c c5        	c.sw	a1, 0xc(a0)
   12ea2: 03 45 04 00  	lbu	a0, 0x0(s0)
   12ea6: 19 cd        	c.beqz	a0, 0x12ec4 <set_sample_factors+0xb0>
   12ea8: 05 04        	c.addi	s0, 0x1
   12eaa: e3 1c 65 ff  	bne	a0, s6, 0x12ea2 <set_sample_factors+0x8e>
   12eae: 19 a8        	c.j	0x12ec4 <set_sample_factors+0xb0>
   12eb0: 83 34 09 05  	ld	s1, 0x50(s2)
   12eb4: 93 05 00 06  	addi	a1, zero, 0x60
   12eb8: 6e 85        	c.mv	a0, s11
   12eba: ef a0 f1 7c  	jal	ra, 0x2de88 <__muldi3>
   12ebe: 26 95        	c.add	a0, s1
   12ec0: 23 34 45 01  	sd	s4, 0x8(a0)
   12ec4: 85 0d        	c.addi	s11, 0x1
   12ec6: e3 9c 5d f7  	bne	s11, s5, 0x12e3e <set_sample_factors+0x2a>
   12eca: 05 45        	c.li	a0, 0x1
   12ecc: 31 a8        	c.j	0x12ee8 <set_sample_factors+0xd4>
   12ece: 03 b5 01 20  	ld	a0, 0x200(gp)
   12ed2: 14 6d        	c.ld	a3, 0x18(a0)
   12ed4: 37 f5 02 00  	lui	a0, 0x2f
   12ed8: 13 05 05 be  	addi	a0, a0, -0x420
   12edc: 93 05 30 02  	addi	a1, zero, 0x23
   12ee0: 05 46        	c.li	a2, 0x1
   12ee2: ef 80 60 05  	jal	ra, 0x1af38 <fwrite>
   12ee6: 01 45        	c.li	a0, 0x0
   12ee8: 41 01        	c.addi	sp, 0x10
   12eea: 6f a0 31 77  	jal	zero, 0x2de5c <__riscv_restore_12>

0000000000012eee <text_getc>:
   12eee: ef a2 51 75  	jal	t0, 0x2de42 <__riscv_save_3>
   12ef2: 2a 84        	c.mv	s0, a0
   12ef4: ef 80 a0 10  	jal	ra, 0x1affe <getc>
   12ef8: 93 05 30 02  	addi	a1, zero, 0x23
   12efc: 63 1b b5 00  	bne	a0, a1, 0x12f12 <text_getc+0x24>
   12f00: a9 44        	c.li	s1, 0xa
   12f02: 7d 59        	c.li	s2, -0x1
   12f04: 22 85        	c.mv	a0, s0
   12f06: ef 80 80 0f  	jal	ra, 0x1affe <getc>
   12f0a: 63 04 95 00  	beq	a0, s1, 0x12f12 <text_getc+0x24>
   12f0e: e3 1b 25 ff  	bne	a0, s2, 0x12f04 <text_getc+0x16>
   12f12: 6f a0 71 76  	jal	zero, 0x2de78 <__riscv_restore_3>

0000000000012f16 <keymatch>:
   12f16: 03 47 05 00  	lbu	a4, 0x0(a0)
   12f1a: 29 c3        	c.beqz	a4, 0x12f5c <keymatch+0x46>
   12f1c: 81 48        	c.li	a7, 0x0
   12f1e: 05 05        	c.addi	a0, 0x1
   12f20: b7 07 03 00  	lui	a5, 0x30
   12f24: 13 88 87 7f  	addi	a6, a5, 0x7f8
   12f28: 83 c7 05 00  	lbu	a5, 0x0(a1)
   12f2c: 95 c7        	c.beqz	a5, 0x12f58 <keymatch+0x42>
   12f2e: 93 76 f7 0f  	andi	a3, a4, 0xff
   12f32: 33 07 d8 00  	add	a4, a6, a3
   12f36: 03 47 17 00  	lbu	a4, 0x1(a4)
   12f3a: 0d 8b        	c.andi	a4, 0x3
   12f3c: 7d 17        	c.addi	a4, -0x1
   12f3e: 13 37 17 00  	sltiu	a4, a4, 0x1
   12f42: 16 07        	c.slli	a4, 0x5
   12f44: ba 96        	c.add	a3, a4
   12f46: 63 99 f6 00  	bne	a3, a5, 0x12f58 <keymatch+0x42>
   12f4a: 03 47 05 00  	lbu	a4, 0x0(a0)
   12f4e: 85 05        	c.addi	a1, 0x1
   12f50: 85 28        	c.addiw	a7, 0x1
   12f52: 05 05        	c.addi	a0, 0x1
   12f54: 71 fb        	c.bnez	a4, 0x12f28 <keymatch+0x12>
   12f56: 21 a0        	c.j	0x12f5e <keymatch+0x48>
   12f58: 01 45        	c.li	a0, 0x0
   12f5a: 82 80        	c.jr	ra
   12f5c: 81 48        	c.li	a7, 0x0
   12f5e: 33 a5 c8 00  	slt	a0, a7, a2
   12f62: 13 45 15 00  	xori	a0, a0, 0x1
   12f66: 82 80        	c.jr	ra

0000000000012f68 <read_stdin>:
   12f68: 03 b5 01 20  	ld	a0, 0x200(gp)
   12f6c: 08 65        	c.ld	a0, 0x8(a0)
   12f6e: 82 80        	c.jr	ra

0000000000012f70 <write_stdout>:
   12f70: 03 b5 01 20  	ld	a0, 0x200(gp)
   12f74: 08 69        	c.ld	a0, 0x10(a0)
   12f76: 82 80        	c.jr	ra

0000000000012f78 <jpeg_CreateCompress>:
   12f78: ef a2 b1 6c  	jal	t0, 0x2de42 <__riscv_save_3>
   12f7c: b2 84        	c.mv	s1, a2
   12f7e: 2a 84        	c.mv	s0, a0
   12f80: 13 05 d0 03  	addi	a0, zero, 0x3d
   12f84: 23 34 04 00  	sd	zero, 0x8(s0)
   12f88: 63 8c a5 00  	beq	a1, a0, 0x12fa0 <jpeg_CreateCompress+0x28>
   12f8c: 10 60        	c.ld	a2, 0x0(s0)
   12f8e: 02 15        	c.slli	a0, 0x20
   12f90: 29 05        	c.addi	a0, 0xa
   12f92: 08 f6        	c.sd	a0, 0x28(a2)
   12f94: 08 60        	c.ld	a0, 0x0(s0)
   12f96: 0c d9        	c.sw	a1, 0x30(a0)
   12f98: 08 60        	c.ld	a0, 0x0(s0)
   12f9a: 0c 61        	c.ld	a1, 0x0(a0)
   12f9c: 22 85        	c.mv	a0, s0
   12f9e: 82 95        	c.jalr	a1
   12fa0: 13 05 00 1f  	addi	a0, zero, 0x1f0
   12fa4: 63 8d a4 00  	beq	s1, a0, 0x12fbe <jpeg_CreateCompress+0x46>
   12fa8: 08 60        	c.ld	a0, 0x0(s0)
   12faa: fd 45        	c.li	a1, 0x1f
   12fac: 92 15        	c.slli	a1, 0x24
   12fae: cd 05        	c.addi	a1, 0x13
   12fb0: 0c f5        	c.sd	a1, 0x28(a0)
   12fb2: 08 60        	c.ld	a0, 0x0(s0)
   12fb4: 04 d9        	c.sw	s1, 0x30(a0)
   12fb6: 08 60        	c.ld	a0, 0x0(s0)
   12fb8: 0c 61        	c.ld	a1, 0x0(a0)
   12fba: 22 85        	c.mv	a0, s0
   12fbc: 82 95        	c.jalr	a1
   12fbe: 04 60        	c.ld	s1, 0x0(s0)
   12fc0: 13 05 84 00  	addi	a0, s0, 0x8
   12fc4: 13 06 80 1e  	addi	a2, zero, 0x1e8
   12fc8: 81 45        	c.li	a1, 0x0
   12fca: ef 80 10 4b  	jal	ra, 0x1bc7a <memset>
   12fce: 04 e0        	c.sd	s1, 0x0(s0)
   12fd0: 22 85        	c.mv	a0, s0
   12fd2: ef 60 80 3b  	jal	ra, 0x1938a <jinit_memory_mgr>
   12fd6: 23 38 04 00  	sd	zero, 0x10(s0)
   12fda: 23 30 04 02  	sd	zero, 0x20(s0)
   12fde: 13 05 04 05  	addi	a0, s0, 0x50
   12fe2: 13 06 80 06  	addi	a2, zero, 0x68
   12fe6: 81 45        	c.li	a1, 0x0
   12fe8: ef 80 30 49  	jal	ra, 0x1bc7a <memset>
   12fec: 13 05 f0 3f  	addi	a0, zero, 0x3ff
   12ff0: 52 15        	c.slli	a0, 0x34
   12ff2: 08 fc        	c.sd	a0, 0x38(s0)
   12ff4: 13 05 40 06  	addi	a0, zero, 0x64
   12ff8: 48 cc        	c.sw	a0, 0x1c(s0)
   12ffa: 6f a0 f1 67  	jal	zero, 0x2de78 <__riscv_restore_3>

0000000000012ffe <jpeg_destroy_compress>:
   12ffe: 6f 60 40 13  	jal	zero, 0x19132 <jpeg_destroy>

0000000000013002 <jpeg_abort_compress>:
   13002: 6f 60 e0 10  	jal	zero, 0x19110 <jpeg_abort>

0000000000013006 <jpeg_suppress_tables>:
   13006: 13 06 85 05  	addi	a2, a0, 0x58
   1300a: 93 06 85 07  	addi	a3, a0, 0x78
   1300e: 18 62        	c.ld	a4, 0x0(a2)
   13010: 19 c3        	c.beqz	a4, 0x13016 <jpeg_suppress_tables+0x10>
   13012: 23 20 b7 08  	sw	a1, 0x80(a4)
   13016: 21 06        	c.addi	a2, 0x8
   13018: e3 1b d6 fe  	bne	a2, a3, 0x1300e <jpeg_suppress_tables+0x8>
   1301c: 13 06 85 09  	addi	a2, a0, 0x98
   13020: 13 05 85 0b  	addi	a0, a0, 0xb8
   13024: 83 36 06 fe  	ld	a3, -0x20(a2)
   13028: 99 c2        	c.beqz	a3, 0x1302e <jpeg_suppress_tables+0x28>
   1302a: 23 aa b6 10  	sw	a1, 0x114(a3)
   1302e: 14 62        	c.ld	a3, 0x0(a2)
   13030: 99 c2        	c.beqz	a3, 0x13036 <jpeg_suppress_tables+0x30>
   13032: 23 aa b6 10  	sw	a1, 0x114(a3)
   13036: 21 06        	c.addi	a2, 0x8
   13038: e3 16 a6 fe  	bne	a2, a0, 0x13024 <jpeg_suppress_tables+0x1e>
   1303c: 82 80        	c.jr	ra

000000000001303e <jpeg_finish_compress>:
   1303e: 01 11        	c.addi	sp, -0x20
   13040: 06 ec        	c.sdsp	ra, 0x18(sp)
   13042: 22 e8        	c.sdsp	s0, 0x10(sp)
   13044: 26 e4        	c.sdsp	s1, 0x8(sp)
   13046: 4a e0        	c.sdsp	s2, 0x0(sp)
   13048: 2a 84        	c.mv	s0, a0
   1304a: 48 4d        	c.lw	a0, 0x1c(a0)
   1304c: 93 05 b5 f9  	addi	a1, a0, -0x65
   13050: 09 46        	c.li	a2, 0x2
   13052: 63 f2 c5 02  	bgeu	a1, a2, 0x13076 <jpeg_finish_compress+0x38>
   13056: 03 25 84 12  	lw	a0, 0x128(s0)
   1305a: 4c 54        	c.lw	a1, 0x2c(s0)
   1305c: 63 79 b5 00  	bgeu	a0, a1, 0x1306e <jpeg_finish_compress+0x30>
   13060: 08 60        	c.ld	a0, 0x0(s0)
   13062: 0c 61        	c.ld	a1, 0x0(a0)
   13064: 13 06 20 04  	addi	a2, zero, 0x42
   13068: 10 d5        	c.sw	a2, 0x28(a0)
   1306a: 22 85        	c.mv	a0, s0
   1306c: 82 95        	c.jalr	a1
   1306e: 03 35 84 1a  	ld	a0, 0x1a8(s0)
   13072: 41 05        	c.addi	a0, 0x10
   13074: 11 a8        	c.j	0x13088 <jpeg_finish_compress+0x4a>
   13076: 93 05 70 06  	addi	a1, zero, 0x67
   1307a: 63 0a b5 00  	beq	a0, a1, 0x1308e <jpeg_finish_compress+0x50>
   1307e: 0c 60        	c.ld	a1, 0x0(s0)
   13080: c8 d5        	c.sw	a0, 0x2c(a1)
   13082: 08 60        	c.ld	a0, 0x0(s0)
   13084: 49 46        	c.li	a2, 0x12
   13086: 90 d5        	c.sw	a2, 0x28(a1)
   13088: 0c 61        	c.ld	a1, 0x0(a0)
   1308a: 22 85        	c.mv	a0, s0
   1308c: 82 95        	c.jalr	a1
   1308e: 03 35 84 1a  	ld	a0, 0x1a8(s0)
   13092: 4c 4d        	c.lw	a1, 0x1c(a0)
   13094: a9 ed        	c.bnez	a1, 0x130ee <jpeg_finish_compress+0xb0>
   13096: 59 49        	c.li	s2, 0x16
   13098: 0c 61        	c.ld	a1, 0x0(a0)
   1309a: 22 85        	c.mv	a0, s0
   1309c: 82 95        	c.jalr	a1
   1309e: 03 25 84 13  	lw	a0, 0x138(s0)
   130a2: 0d cd        	c.beqz	a0, 0x130dc <jpeg_finish_compress+0x9e>
   130a4: 81 44        	c.li	s1, 0x0
   130a6: 0c 68        	c.ld	a1, 0x10(s0)
   130a8: 81 c9        	c.beqz	a1, 0x130b8 <jpeg_finish_compress+0x7a>
   130aa: 02 15        	c.slli	a0, 0x20
   130ac: 90 61        	c.ld	a2, 0x0(a1)
   130ae: 01 91        	c.srli	a0, 0x20
   130b0: 88 e9        	c.sd	a0, 0x10(a1)
   130b2: 84 e5        	c.sd	s1, 0x8(a1)
   130b4: 22 85        	c.mv	a0, s0
   130b6: 02 96        	c.jalr	a2
   130b8: 03 35 04 1c  	ld	a0, 0x1c0(s0)
   130bc: 10 65        	c.ld	a2, 0x8(a0)
   130be: 22 85        	c.mv	a0, s0
   130c0: 81 45        	c.li	a1, 0x0
   130c2: 02 96        	c.jalr	a2
   130c4: 19 e5        	c.bnez	a0, 0x130d2 <jpeg_finish_compress+0x94>
   130c6: 08 60        	c.ld	a0, 0x0(s0)
   130c8: 0c 61        	c.ld	a1, 0x0(a0)
   130ca: 23 24 25 03  	sw	s2, 0x28(a0)
   130ce: 22 85        	c.mv	a0, s0
   130d0: 82 95        	c.jalr	a1
   130d2: 03 65 84 13  	lwu	a0, 0x138(s0)
   130d6: 85 04        	c.addi	s1, 0x1
   130d8: e3 e7 a4 fc  	bltu	s1, a0, 0x130a6 <jpeg_finish_compress+0x68>
   130dc: 03 35 84 1a  	ld	a0, 0x1a8(s0)
   130e0: 0c 69        	c.ld	a1, 0x10(a0)
   130e2: 22 85        	c.mv	a0, s0
   130e4: 82 95        	c.jalr	a1
   130e6: 03 35 84 1a  	ld	a0, 0x1a8(s0)
   130ea: 4c 4d        	c.lw	a1, 0x1c(a0)
   130ec: d5 d5        	c.beqz	a1, 0x13098 <jpeg_finish_compress+0x5a>
   130ee: 03 35 84 1c  	ld	a0, 0x1c8(s0)
   130f2: 0c 71        	c.ld	a1, 0x20(a0)
   130f4: 22 85        	c.mv	a0, s0
   130f6: 82 95        	c.jalr	a1
   130f8: 08 70        	c.ld	a0, 0x20(s0)
   130fa: 0c 71        	c.ld	a1, 0x20(a0)
   130fc: 22 85        	c.mv	a0, s0
   130fe: 82 95        	c.jalr	a1
   13100: 22 85        	c.mv	a0, s0
   13102: e2 60        	c.ldsp	ra, 0x18(sp)
   13104: 42 64        	c.ldsp	s0, 0x10(sp)
   13106: a2 64        	c.ldsp	s1, 0x8(sp)
   13108: 02 69        	c.ldsp	s2, 0x0(sp)
   1310a: 05 61        	c.addi16sp	sp, 0x20
   1310c: 6f 60 40 00  	jal	zero, 0x19110 <jpeg_abort>

0000000000013110 <jpeg_write_marker>:
   13110: 79 71        	c.addi16sp	sp, -0x30
   13112: 06 f4        	c.sdsp	ra, 0x28(sp)
   13114: 22 f0        	c.sdsp	s0, 0x20(sp)
   13116: 26 ec        	c.sdsp	s1, 0x18(sp)
   13118: 4a e8        	c.sdsp	s2, 0x10(sp)
   1311a: 4e e4        	c.sdsp	s3, 0x8(sp)
   1311c: 2a 84        	c.mv	s0, a0
   1311e: 03 27 85 12  	lw	a4, 0x128(a0)
   13122: 48 4d        	c.lw	a0, 0x1c(a0)
   13124: 36 89        	c.mv	s2, a3
   13126: b2 89        	c.mv	s3, a2
   13128: ae 84        	c.mv	s1, a1
   1312a: 11 e7        	c.bnez	a4, 0x13136 <jpeg_write_marker+0x26>
   1312c: 9b 05 b5 f9  	addiw	a1, a0, -0x65
   13130: 0d 46        	c.li	a2, 0x3
   13132: 63 ea c5 00  	bltu	a1, a2, 0x13146 <jpeg_write_marker+0x36>
   13136: 0c 60        	c.ld	a1, 0x0(s0)
   13138: c8 d5        	c.sw	a0, 0x2c(a1)
   1313a: 08 60        	c.ld	a0, 0x0(s0)
   1313c: 10 61        	c.ld	a2, 0x0(a0)
   1313e: 49 45        	c.li	a0, 0x12
   13140: 88 d5        	c.sw	a0, 0x28(a1)
   13142: 22 85        	c.mv	a0, s0
   13144: 02 96        	c.jalr	a2
   13146: 03 35 84 1c  	ld	a0, 0x1c8(s0)
   1314a: 1c 61        	c.ld	a5, 0x0(a0)
   1314c: 22 85        	c.mv	a0, s0
   1314e: a6 85        	c.mv	a1, s1
   13150: 4e 86        	c.mv	a2, s3
   13152: ca 86        	c.mv	a3, s2
   13154: a2 70        	c.ldsp	ra, 0x28(sp)
   13156: 02 74        	c.ldsp	s0, 0x20(sp)
   13158: e2 64        	c.ldsp	s1, 0x18(sp)
   1315a: 42 69        	c.ldsp	s2, 0x10(sp)
   1315c: a2 69        	c.ldsp	s3, 0x8(sp)
   1315e: 45 61        	c.addi16sp	sp, 0x30
   13160: 82 87        	c.jr	a5

0000000000013162 <jpeg_write_tables>:
   13162: 41 11        	c.addi	sp, -0x10
   13164: 06 e4        	c.sdsp	ra, 0x8(sp)
   13166: 22 e0        	c.sdsp	s0, 0x0(sp)
   13168: 2a 84        	c.mv	s0, a0
   1316a: 48 4d        	c.lw	a0, 0x1c(a0)
   1316c: 93 05 40 06  	addi	a1, zero, 0x64
   13170: 63 0a b5 00  	beq	a0, a1, 0x13184 <jpeg_write_tables+0x22>
   13174: 0c 60        	c.ld	a1, 0x0(s0)
   13176: c8 d5        	c.sw	a0, 0x2c(a1)
   13178: 08 60        	c.ld	a0, 0x0(s0)
   1317a: 10 61        	c.ld	a2, 0x0(a0)
   1317c: 49 45        	c.li	a0, 0x12
   1317e: 88 d5        	c.sw	a0, 0x28(a1)
   13180: 22 85        	c.mv	a0, s0
   13182: 02 96        	c.jalr	a2
   13184: 08 60        	c.ld	a0, 0x0(s0)
   13186: 0c 71        	c.ld	a1, 0x20(a0)
   13188: 22 85        	c.mv	a0, s0
   1318a: 82 95        	c.jalr	a1
   1318c: 08 70        	c.ld	a0, 0x20(s0)
   1318e: 0c 69        	c.ld	a1, 0x10(a0)
   13190: 22 85        	c.mv	a0, s0
   13192: 82 95        	c.jalr	a1
   13194: 22 85        	c.mv	a0, s0
   13196: ef 10 60 55  	jal	ra, 0x146ec <jinit_marker_writer>
   1319a: 03 35 84 1c  	ld	a0, 0x1c8(s0)
   1319e: 0c 75        	c.ld	a1, 0x28(a0)
   131a0: 22 85        	c.mv	a0, s0
   131a2: 82 95        	c.jalr	a1
   131a4: 08 70        	c.ld	a0, 0x20(s0)
   131a6: 0c 71        	c.ld	a1, 0x20(a0)
   131a8: 22 85        	c.mv	a0, s0
   131aa: 82 95        	c.jalr	a1
   131ac: 22 85        	c.mv	a0, s0
   131ae: a2 60        	c.ldsp	ra, 0x8(sp)
   131b0: 02 64        	c.ldsp	s0, 0x0(sp)
   131b2: 41 01        	c.addi	sp, 0x10
   131b4: 6f 50 d0 75  	jal	zero, 0x19110 <jpeg_abort>

00000000000131b8 <jpeg_start_compress>:
   131b8: ef a2 b1 48  	jal	t0, 0x2de42 <__riscv_save_3>
   131bc: 2a 84        	c.mv	s0, a0
   131be: 48 4d        	c.lw	a0, 0x1c(a0)
   131c0: 13 06 40 06  	addi	a2, zero, 0x64
   131c4: ae 84        	c.mv	s1, a1
   131c6: 63 0a c5 00  	beq	a0, a2, 0x131da <jpeg_start_compress+0x22>
   131ca: 0c 60        	c.ld	a1, 0x0(s0)
   131cc: c8 d5        	c.sw	a0, 0x2c(a1)
   131ce: 08 60        	c.ld	a0, 0x0(s0)
   131d0: 10 61        	c.ld	a2, 0x0(a0)
   131d2: 49 45        	c.li	a0, 0x12
   131d4: 88 d5        	c.sw	a0, 0x28(a1)
   131d6: 22 85        	c.mv	a0, s0
   131d8: 02 96        	c.jalr	a2
   131da: 89 c4        	c.beqz	s1, 0x131e4 <jpeg_start_compress+0x2c>
   131dc: 22 85        	c.mv	a0, s0
   131de: 81 45        	c.li	a1, 0x0
   131e0: ef f0 7f e2  	jal	ra, 0x13006 <jpeg_suppress_tables>
   131e4: 08 60        	c.ld	a0, 0x0(s0)
   131e6: 0c 71        	c.ld	a1, 0x20(a0)
   131e8: 22 85        	c.mv	a0, s0
   131ea: 82 95        	c.jalr	a1
   131ec: 08 70        	c.ld	a0, 0x20(s0)
   131ee: 0c 69        	c.ld	a1, 0x10(a0)
   131f0: 22 85        	c.mv	a0, s0
   131f2: 82 95        	c.jalr	a1
   131f4: 22 85        	c.mv	a0, s0
   131f6: ef 00 f0 27  	jal	ra, 0x13c74 <jinit_compress_master>
   131fa: 03 35 84 1a  	ld	a0, 0x1a8(s0)
   131fe: 0c 61        	c.ld	a1, 0x0(a0)
   13200: 22 85        	c.mv	a0, s0
   13202: 82 95        	c.jalr	a1
   13204: 03 25 84 0f  	lw	a0, 0xf8(s0)
   13208: 23 24 04 12  	sw	zero, 0x128(s0)
   1320c: 33 35 a0 00  	sltu	a0, zero, a0
   13210: 13 05 55 06  	addi	a0, a0, 0x65
   13214: 48 cc        	c.sw	a0, 0x1c(s0)
   13216: 6f a0 31 46  	jal	zero, 0x2de78 <__riscv_restore_3>

000000000001321a <jpeg_write_scanlines>:
   1321a: ef a2 91 42  	jal	t0, 0x2de42 <__riscv_save_3>
   1321e: 41 11        	c.addi	sp, -0x10
   13220: 2a 84        	c.mv	s0, a0
   13222: 48 4d        	c.lw	a0, 0x1c(a0)
   13224: 93 06 50 06  	addi	a3, zero, 0x65
   13228: b2 84        	c.mv	s1, a2
   1322a: 2e 89        	c.mv	s2, a1
   1322c: 63 0a d5 00  	beq	a0, a3, 0x13240 <jpeg_write_scanlines+0x26>
   13230: 0c 60        	c.ld	a1, 0x0(s0)
   13232: c8 d5        	c.sw	a0, 0x2c(a1)
   13234: 08 60        	c.ld	a0, 0x0(s0)
   13236: 10 61        	c.ld	a2, 0x0(a0)
   13238: 49 45        	c.li	a0, 0x12
   1323a: 88 d5        	c.sw	a0, 0x28(a1)
   1323c: 22 85        	c.mv	a0, s0
   1323e: 02 96        	c.jalr	a2
   13240: 03 25 84 12  	lw	a0, 0x128(s0)
   13244: 4c 54        	c.lw	a1, 0x2c(s0)
   13246: 63 6a b5 00  	bltu	a0, a1, 0x1325a <jpeg_write_scanlines+0x40>
   1324a: 08 60        	c.ld	a0, 0x0(s0)
   1324c: 10 65        	c.ld	a2, 0x8(a0)
   1324e: 93 05 70 07  	addi	a1, zero, 0x77
   13252: 0c d5        	c.sw	a1, 0x28(a0)
   13254: fd 55        	c.li	a1, -0x1
   13256: 22 85        	c.mv	a0, s0
   13258: 02 96        	c.jalr	a2
   1325a: 08 68        	c.ld	a0, 0x10(s0)
   1325c: 11 c9        	c.beqz	a0, 0x13270 <jpeg_write_scanlines+0x56>
   1325e: 83 65 84 12  	lwu	a1, 0x128(s0)
   13262: 03 66 c4 02  	lwu	a2, 0x2c(s0)
   13266: 14 61        	c.ld	a3, 0x0(a0)
   13268: 0c e5        	c.sd	a1, 0x8(a0)
   1326a: 10 e9        	c.sd	a2, 0x10(a0)
   1326c: 22 85        	c.mv	a0, s0
   1326e: 82 96        	c.jalr	a3
   13270: 03 35 84 1a  	ld	a0, 0x1a8(s0)
   13274: 0c 4d        	c.lw	a1, 0x18(a0)
   13276: 81 c5        	c.beqz	a1, 0x1327e <jpeg_write_scanlines+0x64>
   13278: 0c 65        	c.ld	a1, 0x8(a0)
   1327a: 22 85        	c.mv	a0, s0
   1327c: 82 95        	c.jalr	a1
   1327e: 48 54        	c.lw	a0, 0x2c(s0)
   13280: 83 25 84 12  	lw	a1, 0x128(s0)
   13284: bb 06 b5 40  	subw	a3, a0, a1
   13288: 63 e3 96 00  	bltu	a3, s1, 0x1328e <jpeg_write_scanlines+0x74>
   1328c: a6 86        	c.mv	a3, s1
   1328e: 03 35 04 1b  	ld	a0, 0x1b0(s0)
   13292: 18 65        	c.ld	a4, 0x8(a0)
   13294: 02 c6        	c.swsp	zero, 0xc(sp)
   13296: 70 00        	c.addi4spn	a2, sp, 0xc
   13298: 22 85        	c.mv	a0, s0
   1329a: ca 85        	c.mv	a1, s2
   1329c: 02 97        	c.jalr	a4
   1329e: 32 45        	c.lwsp	a0, 0xc(sp)
   132a0: 83 25 84 12  	lw	a1, 0x128(s0)
   132a4: aa 95        	c.add	a1, a0
   132a6: 23 24 b4 12  	sw	a1, 0x128(s0)
   132aa: 41 01        	c.addi	sp, 0x10
   132ac: 6f a0 d1 3c  	jal	zero, 0x2de78 <__riscv_restore_3>

00000000000132b0 <jpeg_write_raw_data>:
   132b0: ef a2 91 38  	jal	t0, 0x2de38 <__riscv_save_5>
   132b4: 2a 84        	c.mv	s0, a0
   132b6: 48 4d        	c.lw	a0, 0x1c(a0)
   132b8: 93 06 60 06  	addi	a3, zero, 0x66
   132bc: b2 89        	c.mv	s3, a2
   132be: 2e 89        	c.mv	s2, a1
   132c0: 63 0a d5 00  	beq	a0, a3, 0x132d4 <jpeg_write_raw_data+0x24>
   132c4: 0c 60        	c.ld	a1, 0x0(s0)
   132c6: c8 d5        	c.sw	a0, 0x2c(a1)
   132c8: 08 60        	c.ld	a0, 0x0(s0)
   132ca: 10 61        	c.ld	a2, 0x0(a0)
   132cc: 49 45        	c.li	a0, 0x12
   132ce: 88 d5        	c.sw	a0, 0x28(a1)
   132d0: 22 85        	c.mv	a0, s0
   132d2: 02 96        	c.jalr	a2
   132d4: 03 26 84 12  	lw	a2, 0x128(s0)
   132d8: 48 54        	c.lw	a0, 0x2c(s0)
   132da: 63 7d a6 04  	bgeu	a2, a0, 0x13334 <jpeg_write_raw_data+0x84>
   132de: 0c 68        	c.ld	a1, 0x10(s0)
   132e0: 91 c9        	c.beqz	a1, 0x132f4 <jpeg_write_raw_data+0x44>
   132e2: 02 16        	c.slli	a2, 0x20
   132e4: 01 92        	c.srli	a2, 0x20
   132e6: 90 e5        	c.sd	a2, 0x8(a1)
   132e8: 90 61        	c.ld	a2, 0x0(a1)
   132ea: 02 15        	c.slli	a0, 0x20
   132ec: 01 91        	c.srli	a0, 0x20
   132ee: 88 e9        	c.sd	a0, 0x10(a1)
   132f0: 22 85        	c.mv	a0, s0
   132f2: 02 96        	c.jalr	a2
   132f4: 03 35 84 1a  	ld	a0, 0x1a8(s0)
   132f8: 0c 4d        	c.lw	a1, 0x18(a0)
   132fa: 81 c5        	c.beqz	a1, 0x13302 <jpeg_write_raw_data+0x52>
   132fc: 0c 65        	c.ld	a1, 0x8(a0)
   132fe: 22 85        	c.mv	a0, s0
   13300: 82 95        	c.jalr	a1
   13302: 03 25 44 13  	lw	a0, 0x134(s0)
   13306: 9b 14 35 00  	slliw	s1, a0, 0x3
   1330a: 63 f8 99 00  	bgeu	s3, s1, 0x1331a <jpeg_write_raw_data+0x6a>
   1330e: 08 60        	c.ld	a0, 0x0(s0)
   13310: 0c 61        	c.ld	a1, 0x0(a0)
   13312: 55 46        	c.li	a2, 0x15
   13314: 10 d5        	c.sw	a2, 0x28(a0)
   13316: 22 85        	c.mv	a0, s0
   13318: 82 95        	c.jalr	a1
   1331a: 03 35 04 1c  	ld	a0, 0x1c0(s0)
   1331e: 10 65        	c.ld	a2, 0x8(a0)
   13320: 22 85        	c.mv	a0, s0
   13322: ca 85        	c.mv	a1, s2
   13324: 02 96        	c.jalr	a2
   13326: 19 cd        	c.beqz	a0, 0x13344 <jpeg_write_raw_data+0x94>
   13328: 03 25 84 12  	lw	a0, 0x128(s0)
   1332c: 26 95        	c.add	a0, s1
   1332e: 23 24 a4 12  	sw	a0, 0x128(s0)
   13332: 11 a8        	c.j	0x13346 <jpeg_write_raw_data+0x96>
   13334: 08 60        	c.ld	a0, 0x0(s0)
   13336: 10 65        	c.ld	a2, 0x8(a0)
   13338: 93 05 70 07  	addi	a1, zero, 0x77
   1333c: 0c d5        	c.sw	a1, 0x28(a0)
   1333e: fd 55        	c.li	a1, -0x1
   13340: 22 85        	c.mv	a0, s0
   13342: 02 96        	c.jalr	a2
   13344: 81 44        	c.li	s1, 0x0
   13346: 26 85        	c.mv	a0, s1
   13348: 6f a0 b1 32  	jal	zero, 0x2de72 <__riscv_restore_5>

000000000001334c <jpeg_add_quant_table>:
   1334c: ef a2 91 2d  	jal	t0, 0x2de24 <__riscv_save_9>
   13350: ba 89        	c.mv	s3, a4
   13352: b6 8a        	c.mv	s5, a3
   13354: 32 8c        	c.mv	s8, a2
   13356: 2a 8a        	c.mv	s4, a0
   13358: 48 4d        	c.lw	a0, 0x1c(a0)
   1335a: 8e 05        	c.slli	a1, 0x3
   1335c: d2 95        	c.add	a1, s4
   1335e: 13 06 40 06  	addi	a2, zero, 0x64
   13362: 13 84 85 05  	addi	s0, a1, 0x58
   13366: 63 0c c5 00  	beq	a0, a2, 0x1337e <jpeg_add_quant_table+0x32>
   1336a: 83 35 0a 00  	ld	a1, 0x0(s4)
   1336e: c8 d5        	c.sw	a0, 0x2c(a1)
   13370: 03 35 0a 00  	ld	a0, 0x0(s4)
   13374: 10 61        	c.ld	a2, 0x0(a0)
   13376: 49 45        	c.li	a0, 0x12
   13378: 88 d5        	c.sw	a0, 0x28(a1)
   1337a: 52 85        	c.mv	a0, s4
   1337c: 02 96        	c.jalr	a2
   1337e: 03 39 04 00  	ld	s2, 0x0(s0)
   13382: 63 17 09 00  	bne	s2, zero, 0x13390 <jpeg_add_quant_table+0x44>
   13386: 52 85        	c.mv	a0, s4
   13388: ef 50 70 5c  	jal	ra, 0x1914e <jpeg_alloc_quant_table>
   1338c: 2a 89        	c.mv	s2, a0
   1338e: 08 e0        	c.sd	a0, 0x0(s0)
   13390: 13 0a 09 08  	addi	s4, s2, 0x80
   13394: b3 39 30 01  	sltu	s3, zero, s3
   13398: 21 6b        	c.lui	s6, 0x8
   1339a: 7d 3b        	c.addiw	s6, -0x1
   1339c: 19 65        	c.lui	a0, 0x6
   1339e: 9b 0b d5 3c  	addiw	s7, a0, 0x3cd
   133a2: ca 84        	c.mv	s1, s2
   133a4: 03 65 0c 00  	lwu	a0, 0x0(s8)
   133a8: d6 85        	c.mv	a1, s5
   133aa: ef a0 f1 2d  	jal	ra, 0x2de88 <__muldi3>
   133ae: 2a 84        	c.mv	s0, a0
   133b0: 13 05 25 03  	addi	a0, a0, 0x32
   133b4: 93 05 40 06  	addi	a1, zero, 0x64
   133b8: ef a0 11 31  	jal	ra, 0x2dec8 <__divdi3>
   133bc: 63 43 a0 00  	blt	zero, a0, 0x133c2 <jpeg_add_quant_table+0x76>
   133c0: 05 45        	c.li	a0, 0x1
   133c2: 63 63 65 01  	bltu	a0, s6, 0x133c8 <jpeg_add_quant_table+0x7c>
   133c6: 5a 85        	c.mv	a0, s6
   133c8: b3 a5 8b 00  	slt	a1, s7, s0
   133cc: 33 f6 b9 00  	and	a2, s3, a1
   133d0: 93 05 f0 0f  	addi	a1, zero, 0xff
   133d4: 11 e2        	c.bnez	a2, 0x133d8 <jpeg_add_quant_table+0x8c>
   133d6: aa 85        	c.mv	a1, a0
   133d8: 23 90 b4 00  	sh	a1, 0x0(s1)
   133dc: 89 04        	c.addi	s1, 0x2
   133de: 11 0c        	c.addi	s8, 0x4
   133e0: e3 92 44 fd  	bne	s1, s4, 0x133a4 <jpeg_add_quant_table+0x58>
   133e4: 23 20 09 08  	sw	zero, 0x80(s2)
   133e8: 6f a0 f1 27  	jal	zero, 0x2de66 <__riscv_restore_9>

00000000000133ec <jpeg_set_linear_quality>:
   133ec: 01 11        	c.addi	sp, -0x20
   133ee: 06 ec        	c.sdsp	ra, 0x18(sp)
   133f0: 22 e8        	c.sdsp	s0, 0x10(sp)
   133f2: 26 e4        	c.sdsp	s1, 0x8(sp)
   133f4: 4a e0        	c.sdsp	s2, 0x0(sp)
   133f6: 32 89        	c.mv	s2, a2
   133f8: ae 84        	c.mv	s1, a1
   133fa: 2a 84        	c.mv	s0, a0
   133fc: 37 05 03 00  	lui	a0, 0x30
   13400: 13 06 85 e6  	addi	a2, a0, -0x198
   13404: 22 85        	c.mv	a0, s0
   13406: 81 45        	c.li	a1, 0x0
   13408: a6 86        	c.mv	a3, s1
   1340a: 4a 87        	c.mv	a4, s2
   1340c: ef f0 1f f4  	jal	ra, 0x1334c <jpeg_add_quant_table>
   13410: 37 05 03 00  	lui	a0, 0x30
   13414: 13 06 85 f6  	addi	a2, a0, -0x98
   13418: 85 45        	c.li	a1, 0x1
   1341a: 22 85        	c.mv	a0, s0
   1341c: a6 86        	c.mv	a3, s1
   1341e: 4a 87        	c.mv	a4, s2
   13420: e2 60        	c.ldsp	ra, 0x18(sp)
   13422: 42 64        	c.ldsp	s0, 0x10(sp)
   13424: a2 64        	c.ldsp	s1, 0x8(sp)
   13426: 02 69        	c.ldsp	s2, 0x0(sp)
   13428: 05 61        	c.addi16sp	sp, 0x20
   1342a: 6f f0 3f f2  	jal	zero, 0x1334c <jpeg_add_quant_table>

000000000001342e <jpeg_quality_scaling>:
   1342e: aa 85        	c.mv	a1, a0
   13430: 63 43 a0 00  	blt	zero, a0, 0x13436 <jpeg_quality_scaling+0x8>
   13434: 85 45        	c.li	a1, 0x1
   13436: 13 06 40 06  	addi	a2, zero, 0x64
   1343a: 63 e4 c5 00  	bltu	a1, a2, 0x13442 <jpeg_quality_scaling+0x14>
   1343e: 93 05 40 06  	addi	a1, zero, 0x64
   13442: ef a2 31 21  	jal	t0, 0x2de54 <__riscv_save_1>
   13446: 13 06 10 03  	addi	a2, zero, 0x31
   1344a: 63 4a a6 00  	blt	a2, a0, 0x1345e <jpeg_quality_scaling+0x30>
   1344e: c2 15        	c.slli	a1, 0x30
   13450: c1 91        	c.srli	a1, 0x30
   13452: 05 65        	c.lui	a0, 0x1
   13454: 1b 05 85 38  	addiw	a0, a0, 0x388
   13458: ef a0 91 27  	jal	ra, 0x2ded0 <__udivdi3>
   1345c: 29 a0        	c.j	0x13466 <jpeg_quality_scaling+0x38>
   1345e: 86 05        	c.slli	a1, 0x1
   13460: 13 05 80 0c  	addi	a0, zero, 0xc8
   13464: 0d 9d        	c.subw	a0, a1
   13466: 01 25        	c.addiw	a0, 0x0
   13468: 6f a0 71 21  	jal	zero, 0x2de7e <__riscv_restore_1>

000000000001346c <jpeg_set_quality>:
   1346c: 01 11        	c.addi	sp, -0x20
   1346e: 06 ec        	c.sdsp	ra, 0x18(sp)
   13470: 22 e8        	c.sdsp	s0, 0x10(sp)
   13472: 26 e4        	c.sdsp	s1, 0x8(sp)
   13474: 4a e0        	c.sdsp	s2, 0x0(sp)
   13476: 32 89        	c.mv	s2, a2
   13478: aa 84        	c.mv	s1, a0
   1347a: 2e 85        	c.mv	a0, a1
   1347c: 63 43 b0 00  	blt	zero, a1, 0x13482 <jpeg_set_quality+0x16>
   13480: 05 45        	c.li	a0, 0x1
   13482: 13 06 40 06  	addi	a2, zero, 0x64
   13486: 63 64 c5 00  	bltu	a0, a2, 0x1348e <jpeg_set_quality+0x22>
   1348a: 13 05 40 06  	addi	a0, zero, 0x64
   1348e: 13 06 10 03  	addi	a2, zero, 0x31
   13492: 63 4b b6 00  	blt	a2, a1, 0x134a8 <jpeg_set_quality+0x3c>
   13496: 42 15        	c.slli	a0, 0x30
   13498: 93 55 05 03  	srli	a1, a0, 0x30
   1349c: 05 65        	c.lui	a0, 0x1
   1349e: 1b 05 85 38  	addiw	a0, a0, 0x388
   134a2: ef a0 f1 22  	jal	ra, 0x2ded0 <__udivdi3>
   134a6: 31 a0        	c.j	0x134b2 <jpeg_set_quality+0x46>
   134a8: 06 05        	c.slli	a0, 0x1
   134aa: 93 05 80 0c  	addi	a1, zero, 0xc8
   134ae: 3b 85 a5 40  	subw	a0, a1, a0
   134b2: b7 05 03 00  	lui	a1, 0x30
   134b6: 13 86 85 e6  	addi	a2, a1, -0x198
   134ba: 1b 04 05 00  	addiw	s0, a0, 0x0
   134be: 26 85        	c.mv	a0, s1
   134c0: 81 45        	c.li	a1, 0x0
   134c2: a2 86        	c.mv	a3, s0
   134c4: 4a 87        	c.mv	a4, s2
   134c6: ef f0 7f e8  	jal	ra, 0x1334c <jpeg_add_quant_table>
   134ca: 37 05 03 00  	lui	a0, 0x30
   134ce: 13 06 85 f6  	addi	a2, a0, -0x98
   134d2: 85 45        	c.li	a1, 0x1
   134d4: 26 85        	c.mv	a0, s1
   134d6: a2 86        	c.mv	a3, s0
   134d8: 4a 87        	c.mv	a4, s2
   134da: e2 60        	c.ldsp	ra, 0x18(sp)
   134dc: 42 64        	c.ldsp	s0, 0x10(sp)
   134de: a2 64        	c.ldsp	s1, 0x8(sp)
   134e0: 02 69        	c.ldsp	s2, 0x0(sp)
   134e2: 05 61        	c.addi16sp	sp, 0x20
   134e4: 6f f0 9f e6  	jal	zero, 0x1334c <jpeg_add_quant_table>

00000000000134e8 <jpeg_set_defaults>:
   134e8: 01 11        	c.addi	sp, -0x20
   134ea: 06 ec        	c.sdsp	ra, 0x18(sp)
   134ec: 22 e8        	c.sdsp	s0, 0x10(sp)
   134ee: 26 e4        	c.sdsp	s1, 0x8(sp)
   134f0: 2a 84        	c.mv	s0, a0
   134f2: 48 4d        	c.lw	a0, 0x1c(a0)
   134f4: 93 05 40 06  	addi	a1, zero, 0x64
   134f8: 63 0a b5 00  	beq	a0, a1, 0x1350c <jpeg_set_defaults+0x24>
   134fc: 0c 60        	c.ld	a1, 0x0(s0)
   134fe: c8 d5        	c.sw	a0, 0x2c(a1)
   13500: 08 60        	c.ld	a0, 0x0(s0)
   13502: 10 61        	c.ld	a2, 0x0(a0)
   13504: 49 45        	c.li	a0, 0x12
   13506: 88 d5        	c.sw	a0, 0x28(a1)
   13508: 22 85        	c.mv	a0, s0
   1350a: 02 96        	c.jalr	a2
   1350c: 28 68        	c.ld	a0, 0x50(s0)
   1350e: 09 e9        	c.bnez	a0, 0x13520 <jpeg_set_defaults+0x38>
   13510: 08 64        	c.ld	a0, 0x8(s0)
   13512: 14 61        	c.ld	a3, 0x0(a0)
   13514: 13 06 00 3c  	addi	a2, zero, 0x3c0
   13518: 22 85        	c.mv	a0, s0
   1351a: 81 45        	c.li	a1, 0x0
   1351c: 82 96        	c.jalr	a3
   1351e: 28 e8        	c.sd	a0, 0x50(s0)
   13520: 21 45        	c.li	a0, 0x8
   13522: 28 c0        	c.sw	a0, 0x40(s0)
   13524: 37 05 03 00  	lui	a0, 0x30
   13528: 13 06 85 e6  	addi	a2, a0, -0x198
   1352c: 93 06 20 03  	addi	a3, zero, 0x32
   13530: 05 47        	c.li	a4, 0x1
   13532: 22 85        	c.mv	a0, s0
   13534: 81 45        	c.li	a1, 0x0
   13536: ef f0 7f e1  	jal	ra, 0x1334c <jpeg_add_quant_table>
   1353a: 37 05 03 00  	lui	a0, 0x30
   1353e: 13 06 85 f6  	addi	a2, a0, -0x98
   13542: 85 45        	c.li	a1, 0x1
   13544: 93 06 20 03  	addi	a3, zero, 0x32
   13548: 05 47        	c.li	a4, 0x1
   1354a: 22 85        	c.mv	a0, s0
   1354c: ef f0 1f e0  	jal	ra, 0x1334c <jpeg_add_quant_table>
   13550: 28 7c        	c.ld	a0, 0x78(s0)
   13552: 09 e5        	c.bnez	a0, 0x1355c <jpeg_set_defaults+0x74>
   13554: 22 85        	c.mv	a0, s0
   13556: ef 50 10 41  	jal	ra, 0x19166 <jpeg_alloc_huff_table>
   1355a: 28 fc        	c.sd	a0, 0x78(s0)
   1355c: b7 05 03 00  	lui	a1, 0x30
   13560: 93 85 85 06  	addi	a1, a1, 0x68
   13564: 45 46        	c.li	a2, 0x11
   13566: ef 80 e0 7b  	jal	ra, 0x1bd24 <memcpy>
   1356a: 28 7c        	c.ld	a0, 0x78(s0)
   1356c: 45 05        	c.addi	a0, 0x11
   1356e: b7 05 03 00  	lui	a1, 0x30
   13572: 93 85 a5 08  	addi	a1, a1, 0x8a
   13576: 13 06 00 10  	addi	a2, zero, 0x100
   1357a: ef 80 a0 7a  	jal	ra, 0x1bd24 <memcpy>
   1357e: 2c 7c        	c.ld	a1, 0x78(s0)
   13580: 48 6c        	c.ld	a0, 0x98(s0)
   13582: 23 aa 05 10  	sw	zero, 0x114(a1)
   13586: 09 e5        	c.bnez	a0, 0x13590 <jpeg_set_defaults+0xa8>
   13588: 22 85        	c.mv	a0, s0
   1358a: ef 50 d0 3d  	jal	ra, 0x19166 <jpeg_alloc_huff_table>
   1358e: 48 ec        	c.sd	a0, 0x98(s0)
   13590: b7 05 03 00  	lui	a1, 0x30
   13594: 93 85 65 09  	addi	a1, a1, 0x96
   13598: 45 46        	c.li	a2, 0x11
   1359a: ef 80 a0 78  	jal	ra, 0x1bd24 <memcpy>
   1359e: 48 6c        	c.ld	a0, 0x98(s0)
   135a0: 45 05        	c.addi	a0, 0x11
   135a2: b7 05 03 00  	lui	a1, 0x30
   135a6: 93 85 75 0a  	addi	a1, a1, 0xa7
   135aa: 13 06 00 10  	addi	a2, zero, 0x100
   135ae: ef 80 60 77  	jal	ra, 0x1bd24 <memcpy>
   135b2: 4c 6c        	c.ld	a1, 0x98(s0)
   135b4: 48 60        	c.ld	a0, 0x80(s0)
   135b6: 23 aa 05 10  	sw	zero, 0x114(a1)
   135ba: 09 e5        	c.bnez	a0, 0x135c4 <jpeg_set_defaults+0xdc>
   135bc: 22 85        	c.mv	a0, s0
   135be: ef 50 90 3a  	jal	ra, 0x19166 <jpeg_alloc_huff_table>
   135c2: 48 e0        	c.sd	a0, 0x80(s0)
   135c4: b7 05 03 00  	lui	a1, 0x30
   135c8: 93 85 95 07  	addi	a1, a1, 0x79
   135cc: 45 46        	c.li	a2, 0x11
   135ce: ef 80 60 75  	jal	ra, 0x1bd24 <memcpy>
   135d2: 48 60        	c.ld	a0, 0x80(s0)
   135d4: 45 05        	c.addi	a0, 0x11
   135d6: b7 05 03 00  	lui	a1, 0x30
   135da: 93 85 a5 08  	addi	a1, a1, 0x8a
   135de: 13 06 00 10  	addi	a2, zero, 0x100
   135e2: ef 80 20 74  	jal	ra, 0x1bd24 <memcpy>
   135e6: 4c 60        	c.ld	a1, 0x80(s0)
   135e8: 48 70        	c.ld	a0, 0xa0(s0)
   135ea: 23 aa 05 10  	sw	zero, 0x114(a1)
   135ee: 09 e5        	c.bnez	a0, 0x135f8 <jpeg_set_defaults+0x110>
   135f0: 22 85        	c.mv	a0, s0
   135f2: ef 50 50 37  	jal	ra, 0x19166 <jpeg_alloc_huff_table>
   135f6: 48 f0        	c.sd	a0, 0xa0(s0)
   135f8: b7 05 03 00  	lui	a1, 0x30
   135fc: 93 85 95 14  	addi	a1, a1, 0x149
   13600: 45 46        	c.li	a2, 0x11
   13602: ef 80 20 72  	jal	ra, 0x1bd24 <memcpy>
   13606: 48 70        	c.ld	a0, 0xa0(s0)
   13608: 45 05        	c.addi	a0, 0x11
   1360a: b7 05 03 00  	lui	a1, 0x30
   1360e: 93 85 a5 15  	addi	a1, a1, 0x15a
   13612: 13 06 00 10  	addi	a2, zero, 0x100
   13616: ef 80 e0 70  	jal	ra, 0x1bd24 <memcpy>
   1361a: 48 70        	c.ld	a0, 0xa0(s0)
   1361c: 23 2a 05 10  	sw	zero, 0x114(a0)
   13620: 13 05 84 0b  	addi	a0, s0, 0xb8
   13624: 41 46        	c.li	a2, 0x10
   13626: 81 45        	c.li	a1, 0x0
   13628: ef 80 20 65  	jal	ra, 0x1bc7a <memset>
   1362c: 13 05 84 0c  	addi	a0, s0, 0xc8
   13630: 85 45        	c.li	a1, 0x1
   13632: 41 46        	c.li	a2, 0x10
   13634: 85 44        	c.li	s1, 0x1
   13636: ef 80 40 64  	jal	ra, 0x1bc7a <memset>
   1363a: 13 05 84 0d  	addi	a0, s0, 0xd8
   1363e: 95 45        	c.li	a1, 0x5
   13640: 41 46        	c.li	a2, 0x10
   13642: ef 80 80 63  	jal	ra, 0x1bc7a <memset>
   13646: 28 40        	c.lw	a0, 0x40(s0)
   13648: 23 24 04 0e  	sw	zero, 0xe8(s0)
   1364c: 23 38 04 0e  	sd	zero, 0xf0(s0)
   13650: 23 3c 04 0e  	sd	zero, 0xf8(s0)
   13654: 13 25 95 00  	slti	a0, a0, 0x9
   13658: 13 45 15 00  	xori	a0, a0, 0x1
   1365c: 23 20 a4 10  	sw	a0, 0x100(s0)
   13660: 13 05 44 10  	addi	a0, s0, 0x104
   13664: 23 0e 04 10  	sb	zero, 0x11c(s0)
   13668: 51 46        	c.li	a2, 0x14
   1366a: 81 45        	c.li	a1, 0x0
   1366c: ef 80 e0 60  	jal	ra, 0x1bc7a <memset>
   13670: 23 1f 94 10  	sh	s1, 0x11e(s0)
   13674: 23 10 94 12  	sh	s1, 0x120(s0)
   13678: 22 85        	c.mv	a0, s0
   1367a: e2 60        	c.ldsp	ra, 0x18(sp)
   1367c: 42 64        	c.ldsp	s0, 0x10(sp)
   1367e: a2 64        	c.ldsp	s1, 0x8(sp)
   13680: 05 61        	c.addi16sp	sp, 0x20
   13682: 6f 00 40 00  	jal	zero, 0x13686 <jpeg_default_colorspace>

0000000000013686 <jpeg_default_colorspace>:
   13686: 4c 59        	c.lw	a1, 0x34(a0)
   13688: 15 46        	c.li	a2, 0x5
   1368a: 63 69 b6 02  	bltu	a2, a1, 0x136bc <jpeg_default_colorspace+0x36>
   1368e: 8a 05        	c.slli	a1, 0x2
   13690: 37 06 03 00  	lui	a2, 0x30
   13694: 13 06 86 e3  	addi	a2, a2, -0x1c8
   13698: b2 95        	c.add	a1, a2
   1369a: 8c 41        	c.lw	a1, 0x0(a1)
   1369c: 82 85        	c.jr	a1
   1369e: 8d 45        	c.li	a1, 0x3
   136a0: 6f 00 60 02  	jal	zero, 0x136c6 <jpeg_set_colorspace>
   136a4: 91 45        	c.li	a1, 0x4
   136a6: 6f 00 00 02  	jal	zero, 0x136c6 <jpeg_set_colorspace>
   136aa: 81 45        	c.li	a1, 0x0
   136ac: 6f 00 a0 01  	jal	zero, 0x136c6 <jpeg_set_colorspace>
   136b0: 85 45        	c.li	a1, 0x1
   136b2: 6f 00 40 01  	jal	zero, 0x136c6 <jpeg_set_colorspace>
   136b6: 95 45        	c.li	a1, 0x5
   136b8: 6f 00 e0 00  	jal	zero, 0x136c6 <jpeg_set_colorspace>
   136bc: 0c 61        	c.ld	a1, 0x0(a0)
   136be: 9c 61        	c.ld	a5, 0x0(a1)
   136c0: 1d 46        	c.li	a2, 0x7
   136c2: 90 d5        	c.sw	a2, 0x28(a1)
   136c4: 82 87        	c.jr	a5

00000000000136c6 <jpeg_set_colorspace>:
   136c6: 01 11        	c.addi	sp, -0x20
   136c8: 06 ec        	c.sdsp	ra, 0x18(sp)
   136ca: 22 e8        	c.sdsp	s0, 0x10(sp)
   136cc: 26 e4        	c.sdsp	s1, 0x8(sp)
   136ce: 2a 84        	c.mv	s0, a0
   136d0: 48 4d        	c.lw	a0, 0x1c(a0)
   136d2: 13 06 40 06  	addi	a2, zero, 0x64
   136d6: ae 84        	c.mv	s1, a1
   136d8: 63 0a c5 00  	beq	a0, a2, 0x136ec <jpeg_set_colorspace+0x26>
   136dc: 0c 60        	c.ld	a1, 0x0(s0)
   136de: c8 d5        	c.sw	a0, 0x2c(a1)
   136e0: 08 60        	c.ld	a0, 0x0(s0)
   136e2: 10 61        	c.ld	a2, 0x0(a0)
   136e4: 49 45        	c.li	a0, 0x12
   136e6: 88 d5        	c.sw	a0, 0x28(a1)
   136e8: 22 85        	c.mv	a0, s0
   136ea: 02 96        	c.jalr	a2
   136ec: 24 c4        	c.sw	s1, 0x48(s0)
   136ee: 23 2c 04 10  	sw	zero, 0x118(s0)
   136f2: 15 45        	c.li	a0, 0x5
   136f4: 23 22 04 12  	sw	zero, 0x124(s0)
   136f8: 63 6f 95 1a  	bltu	a0, s1, 0x138b6 <jpeg_set_colorspace+0x1f0>
   136fc: 8a 04        	c.slli	s1, 0x2
   136fe: 37 05 03 00  	lui	a0, 0x30
   13702: 13 05 05 e5  	addi	a0, a0, -0x1b0
   13706: 26 95        	c.add	a0, s1
   13708: 08 41        	c.lw	a0, 0x0(a0)
   1370a: 02 85        	c.jr	a0
   1370c: 08 58        	c.lw	a0, 0x30(s0)
   1370e: 9b 05 55 ff  	addiw	a1, a0, -0xb
   13712: 55 56        	c.li	a2, -0xb
   13714: 68 c0        	c.sw	a0, 0x44(s0)
   13716: 63 60 b6 02  	bltu	a2, a1, 0x13736 <jpeg_set_colorspace+0x70>
   1371a: 0c 60        	c.ld	a1, 0x0(s0)
   1371c: c8 d5        	c.sw	a0, 0x2c(a1)
   1371e: 08 60        	c.ld	a0, 0x0(s0)
   13720: 61 46        	c.li	a2, 0x18
   13722: 90 d5        	c.sw	a2, 0x28(a1)
   13724: a9 45        	c.li	a1, 0xa
   13726: 0c d9        	c.sw	a1, 0x30(a0)
   13728: 08 60        	c.ld	a0, 0x0(s0)
   1372a: 0c 61        	c.ld	a1, 0x0(a0)
   1372c: 22 85        	c.mv	a0, s0
   1372e: 82 95        	c.jalr	a1
   13730: 68 40        	c.lw	a0, 0x44(s0)
   13732: 63 5d a0 16  	bge	zero, a0, 0x138ac <jpeg_set_colorspace+0x1e6>
   13736: 20 68        	c.ld	s0, 0x50(s0)
   13738: 02 15        	c.slli	a0, 0x20
   1373a: 01 91        	c.srli	a0, 0x20
   1373c: 31 04        	c.addi	s0, 0xc
   1373e: 93 05 00 06  	addi	a1, zero, 0x60
   13742: ef a0 61 74  	jal	ra, 0x2de88 <__muldi3>
   13746: 81 45        	c.li	a1, 0x0
   13748: 22 95        	c.add	a0, s0
   1374a: 05 46        	c.li	a2, 0x1
   1374c: 02 16        	c.slli	a2, 0x20
   1374e: 05 06        	c.addi	a2, 0x1
   13750: 23 2a b4 fe  	sw	a1, -0xc(s0)
   13754: 23 3e c4 fe  	sd	a2, -0x4(s0)
   13758: 23 32 04 00  	sd	zero, 0x4(s0)
   1375c: 23 26 04 00  	sw	zero, 0xc(s0)
   13760: 13 04 04 06  	addi	s0, s0, 0x60
   13764: 85 05        	c.addi	a1, 0x1
   13766: e3 15 a4 fe  	bne	s0, a0, 0x13750 <jpeg_set_colorspace+0x8a>
   1376a: 89 a2        	c.j	0x138ac <jpeg_set_colorspace+0x1e6>
   1376c: 11 45        	c.li	a0, 0x4
   1376e: 68 c0        	c.sw	a0, 0x44(s0)
   13770: 28 68        	c.ld	a0, 0x50(s0)
   13772: 85 45        	c.li	a1, 0x1
   13774: 23 22 b4 12  	sw	a1, 0x124(s0)
   13778: 13 06 30 04  	addi	a2, zero, 0x43
   1377c: 10 c1        	c.sw	a2, 0x0(a0)
   1377e: 82 15        	c.slli	a1, 0x20
   13780: 85 05        	c.addi	a1, 0x1
   13782: 0c e5        	c.sd	a1, 0x8(a0)
   13784: 23 38 05 00  	sd	zero, 0x10(a0)
   13788: 23 2c 05 00  	sw	zero, 0x18(a0)
   1378c: 13 06 d0 04  	addi	a2, zero, 0x4d
   13790: 30 d1        	c.sw	a2, 0x60(a0)
   13792: 2c f5        	c.sd	a1, 0x68(a0)
   13794: 23 38 05 06  	sd	zero, 0x70(a0)
   13798: 23 2c 05 06  	sw	zero, 0x78(a0)
   1379c: 13 06 90 05  	addi	a2, zero, 0x59
   137a0: 23 20 c5 0c  	sw	a2, 0xc0(a0)
   137a4: 6c e5        	c.sd	a1, 0xc8(a0)
   137a6: 23 38 05 0c  	sd	zero, 0xd0(a0)
   137aa: 23 2c 05 0c  	sw	zero, 0xd8(a0)
   137ae: 13 06 b0 04  	addi	a2, zero, 0x4b
   137b2: 23 20 c5 12  	sw	a2, 0x120(a0)
   137b6: 23 34 b5 12  	sd	a1, 0x128(a0)
   137ba: 23 38 05 12  	sd	zero, 0x130(a0)
   137be: 23 2c 05 12  	sw	zero, 0x138(a0)
   137c2: ed a0        	c.j	0x138ac <jpeg_set_colorspace+0x1e6>
   137c4: 0d 45        	c.li	a0, 0x3
   137c6: 68 c0        	c.sw	a0, 0x44(s0)
   137c8: 28 68        	c.ld	a0, 0x50(s0)
   137ca: 85 45        	c.li	a1, 0x1
   137cc: 23 22 b4 12  	sw	a1, 0x124(s0)
   137d0: 13 06 20 05  	addi	a2, zero, 0x52
   137d4: 10 c1        	c.sw	a2, 0x0(a0)
   137d6: 82 15        	c.slli	a1, 0x20
   137d8: 85 05        	c.addi	a1, 0x1
   137da: 0c e5        	c.sd	a1, 0x8(a0)
   137dc: 23 38 05 00  	sd	zero, 0x10(a0)
   137e0: 23 2c 05 00  	sw	zero, 0x18(a0)
   137e4: 13 06 70 04  	addi	a2, zero, 0x47
   137e8: 30 d1        	c.sw	a2, 0x60(a0)
   137ea: 2c f5        	c.sd	a1, 0x68(a0)
   137ec: 23 38 05 06  	sd	zero, 0x70(a0)
   137f0: 23 2c 05 06  	sw	zero, 0x78(a0)
   137f4: 13 06 20 04  	addi	a2, zero, 0x42
   137f8: 23 20 c5 0c  	sw	a2, 0xc0(a0)
   137fc: 6c e5        	c.sd	a1, 0xc8(a0)
   137fe: 23 38 05 0c  	sd	zero, 0xd0(a0)
   13802: 23 2c 05 0c  	sw	zero, 0xd8(a0)
   13806: 5d a0        	c.j	0x138ac <jpeg_set_colorspace+0x1e6>
   13808: 05 45        	c.li	a0, 0x1
   1380a: 2c 68        	c.ld	a1, 0x50(s0)
   1380c: 23 2c a4 10  	sw	a0, 0x118(s0)
   13810: 0d 46        	c.li	a2, 0x3
   13812: 70 c0        	c.sw	a2, 0x44(s0)
   13814: 88 c1        	c.sw	a0, 0x0(a1)
   13816: 93 16 15 02  	slli	a3, a0, 0x21
   1381a: 89 06        	c.addi	a3, 0x2
   1381c: 94 e5        	c.sd	a3, 0x8(a1)
   1381e: 23 b8 05 00  	sd	zero, 0x10(a1)
   13822: 23 ac 05 00  	sw	zero, 0x18(a1)
   13826: 89 46        	c.li	a3, 0x2
   13828: b4 d1        	c.sw	a3, 0x60(a1)
   1382a: 93 16 05 02  	slli	a3, a0, 0x20
   1382e: 85 06        	c.addi	a3, 0x1
   13830: b4 f5        	c.sd	a3, 0x68(a1)
   13832: b4 f9        	c.sd	a3, 0x70(a1)
   13834: a8 dd        	c.sw	a0, 0x78(a1)
   13836: 23 a0 c5 0c  	sw	a2, 0xc0(a1)
   1383a: f4 e5        	c.sd	a3, 0xc8(a1)
   1383c: f4 e9        	c.sd	a3, 0xd0(a1)
   1383e: 23 ac a5 0c  	sw	a0, 0xd8(a1)
   13842: ad a0        	c.j	0x138ac <jpeg_set_colorspace+0x1e6>
   13844: 28 68        	c.ld	a0, 0x50(s0)
   13846: 85 45        	c.li	a1, 0x1
   13848: 23 2c b4 10  	sw	a1, 0x118(s0)
   1384c: 6c c0        	c.sw	a1, 0x44(s0)
   1384e: 0c c1        	c.sw	a1, 0x0(a0)
   13850: 82 15        	c.slli	a1, 0x20
   13852: 85 05        	c.addi	a1, 0x1
   13854: 0c e5        	c.sd	a1, 0x8(a0)
   13856: 23 38 05 00  	sd	zero, 0x10(a0)
   1385a: 23 2c 05 00  	sw	zero, 0x18(a0)
   1385e: b9 a0        	c.j	0x138ac <jpeg_set_colorspace+0x1e6>
   13860: 05 45        	c.li	a0, 0x1
   13862: 2c 68        	c.ld	a1, 0x50(s0)
   13864: 23 22 a4 12  	sw	a0, 0x124(s0)
   13868: 11 46        	c.li	a2, 0x4
   1386a: 70 c0        	c.sw	a2, 0x44(s0)
   1386c: 88 c1        	c.sw	a0, 0x0(a1)
   1386e: 93 16 15 02  	slli	a3, a0, 0x21
   13872: 89 06        	c.addi	a3, 0x2
   13874: 94 e5        	c.sd	a3, 0x8(a1)
   13876: 23 b8 05 00  	sd	zero, 0x10(a1)
   1387a: 23 ac 05 00  	sw	zero, 0x18(a1)
   1387e: 09 47        	c.li	a4, 0x2
   13880: b8 d1        	c.sw	a4, 0x60(a1)
   13882: 13 17 05 02  	slli	a4, a0, 0x20
   13886: 05 07        	c.addi	a4, 0x1
   13888: b8 f5        	c.sd	a4, 0x68(a1)
   1388a: b8 f9        	c.sd	a4, 0x70(a1)
   1388c: a8 dd        	c.sw	a0, 0x78(a1)
   1388e: 8d 47        	c.li	a5, 0x3
   13890: 23 a0 f5 0c  	sw	a5, 0xc0(a1)
   13894: f8 e5        	c.sd	a4, 0xc8(a1)
   13896: f8 e9        	c.sd	a4, 0xd0(a1)
   13898: 23 ac a5 0c  	sw	a0, 0xd8(a1)
   1389c: 23 a0 c5 12  	sw	a2, 0x120(a1)
   138a0: 23 b4 d5 12  	sd	a3, 0x128(a1)
   138a4: 23 b8 05 12  	sd	zero, 0x130(a1)
   138a8: 23 ac 05 12  	sw	zero, 0x138(a1)
   138ac: e2 60        	c.ldsp	ra, 0x18(sp)
   138ae: 42 64        	c.ldsp	s0, 0x10(sp)
   138b0: a2 64        	c.ldsp	s1, 0x8(sp)
   138b2: 05 61        	c.addi16sp	sp, 0x20
   138b4: 82 80        	c.jr	ra
   138b6: 08 60        	c.ld	a0, 0x0(s0)
   138b8: 1c 61        	c.ld	a5, 0x0(a0)
   138ba: a1 45        	c.li	a1, 0x8
   138bc: 0c d5        	c.sw	a1, 0x28(a0)
   138be: 22 85        	c.mv	a0, s0
   138c0: e2 60        	c.ldsp	ra, 0x18(sp)
   138c2: 42 64        	c.ldsp	s0, 0x10(sp)
   138c4: a2 64        	c.ldsp	s1, 0x8(sp)
   138c6: 05 61        	c.addi16sp	sp, 0x20
   138c8: 82 87        	c.jr	a5

00000000000138ca <jpeg_simple_progression>:
   138ca: 79 71        	c.addi16sp	sp, -0x30
   138cc: 06 f4        	c.sdsp	ra, 0x28(sp)
   138ce: 22 f0        	c.sdsp	s0, 0x20(sp)
   138d0: 26 ec        	c.sdsp	s1, 0x18(sp)
   138d2: 4a e8        	c.sdsp	s2, 0x10(sp)
   138d4: 4e e4        	c.sdsp	s3, 0x8(sp)
   138d6: aa 84        	c.mv	s1, a0
   138d8: 48 4d        	c.lw	a0, 0x1c(a0)
   138da: e0 40        	c.lw	s0, 0x44(s1)
   138dc: 93 05 40 06  	addi	a1, zero, 0x64
   138e0: 63 0a b5 00  	beq	a0, a1, 0x138f4 <jpeg_simple_progression+0x2a>
   138e4: 8c 60        	c.ld	a1, 0x0(s1)
   138e6: c8 d5        	c.sw	a0, 0x2c(a1)
   138e8: 88 60        	c.ld	a0, 0x0(s1)
   138ea: 10 61        	c.ld	a2, 0x0(a0)
   138ec: 49 45        	c.li	a0, 0x12
   138ee: 88 d5        	c.sw	a0, 0x28(a1)
   138f0: 26 85        	c.mv	a0, s1
   138f2: 02 96        	c.jalr	a2
   138f4: 0d 45        	c.li	a0, 0x3
   138f6: 63 17 a4 00  	bne	s0, a0, 0x13904 <jpeg_simple_progression+0x3a>
   138fa: ac 44        	c.lw	a1, 0x48(s1)
   138fc: 29 49        	c.li	s2, 0xa
   138fe: 63 9c a5 00  	bne	a1, a0, 0x13916 <jpeg_simple_progression+0x4c>
   13902: 29 a8        	c.j	0x1391c <jpeg_simple_progression+0x52>
   13904: 15 45        	c.li	a0, 0x5
   13906: 63 48 a4 00  	blt	s0, a0, 0x13916 <jpeg_simple_progression+0x4c>
   1390a: 99 45        	c.li	a1, 0x6
   1390c: 22 85        	c.mv	a0, s0
   1390e: ef a0 a1 57  	jal	ra, 0x2de88 <__muldi3>
   13912: 2a 89        	c.mv	s2, a0
   13914: 21 a0        	c.j	0x1391c <jpeg_simple_progression+0x52>
   13916: 13 19 24 00  	slli	s2, s0, 0x2
   1391a: 09 09        	c.addi	s2, 0x2
   1391c: 88 64        	c.ld	a0, 0x8(s1)
   1391e: 83 39 05 00  	ld	s3, 0x0(a0)
   13922: 1b 05 09 00  	addiw	a0, s2, 0x0
   13926: 93 05 40 02  	addi	a1, zero, 0x24
   1392a: ef a0 e1 55  	jal	ra, 0x2de88 <__muldi3>
   1392e: 2a 86        	c.mv	a2, a0
   13930: 26 85        	c.mv	a0, s1
   13932: 81 45        	c.li	a1, 0x0
   13934: 82 99        	c.jalr	s3
   13936: 23 a4 24 0f  	sw	s2, 0xe8(s1)
   1393a: 8d 45        	c.li	a1, 0x3
   1393c: e8 f8        	c.sd	a0, 0xf0(s1)
   1393e: 63 1d b4 10  	bne	s0, a1, 0x13a58 <jpeg_simple_progression+0x18e>
   13942: b0 44        	c.lw	a2, 0x48(s1)
   13944: 63 1c b6 12  	bne	a2, a1, 0x13a7c <jpeg_simple_progression+0x1b2>
   13948: 81 45        	c.li	a1, 0x0
   1394a: 0d 46        	c.li	a2, 0x3
   1394c: 10 c1        	c.sw	a2, 0x0(a0)
   1394e: 13 06 45 00  	addi	a2, a0, 0x4
   13952: 93 06 05 01  	addi	a3, a0, 0x10
   13956: 0c c2        	c.sw	a1, 0x0(a2)
   13958: 11 06        	c.addi	a2, 0x4
   1395a: 85 05        	c.addi	a1, 0x1
   1395c: e3 1d d6 fe  	bne	a2, a3, 0x13956 <jpeg_simple_progression+0x8c>
   13960: 81 45        	c.li	a1, 0x0
   13962: 23 2c 05 00  	sw	zero, 0x18(a0)
   13966: 23 2a 05 00  	sw	zero, 0x14(a0)
   1396a: 23 2e 05 00  	sw	zero, 0x1c(a0)
   1396e: 05 46        	c.li	a2, 0x1
   13970: 10 d1        	c.sw	a2, 0x20(a0)
   13972: 50 d1        	c.sw	a2, 0x24(a0)
   13974: 23 24 05 02  	sw	zero, 0x28(a0)
   13978: 10 dd        	c.sw	a2, 0x38(a0)
   1397a: 95 46        	c.li	a3, 0x5
   1397c: 54 dd        	c.sw	a3, 0x3c(a0)
   1397e: 23 20 05 04  	sw	zero, 0x40(a0)
   13982: 89 46        	c.li	a3, 0x2
   13984: 74 c1        	c.sw	a3, 0x44(a0)
   13986: 30 c5        	c.sw	a2, 0x48(a0)
   13988: 74 c5        	c.sw	a3, 0x4c(a0)
   1398a: 70 cd        	c.sw	a2, 0x5c(a0)
   1398c: 19 47        	c.li	a4, 0x6
   1398e: 23 22 e5 0a  	sw	a4, 0xa4(a0)
   13992: 13 07 f0 03  	addi	a4, zero, 0x3f
   13996: 38 d1        	c.sw	a4, 0x60(a0)
   13998: 23 22 05 06  	sw	zero, 0x64(a0)
   1399c: 30 d5        	c.sw	a2, 0x68(a0)
   1399e: 70 d5        	c.sw	a2, 0x6c(a0)
   139a0: 30 d9        	c.sw	a2, 0x70(a0)
   139a2: 23 20 c5 08  	sw	a2, 0x80(a0)
   139a6: 23 22 e5 08  	sw	a4, 0x84(a0)
   139aa: 23 24 05 08  	sw	zero, 0x88(a0)
   139ae: 23 26 c5 08  	sw	a2, 0x8c(a0)
   139b2: 23 28 c5 08  	sw	a2, 0x90(a0)
   139b6: 23 2a 05 08  	sw	zero, 0x94(a0)
   139ba: 23 24 e5 0a  	sw	a4, 0xa8(a0)
   139be: 23 26 05 0a  	sw	zero, 0xac(a0)
   139c2: 23 28 d5 0a  	sw	a3, 0xb0(a0)
   139c6: 23 2a c5 0a  	sw	a2, 0xb4(a0)
   139ca: 23 2c 05 0a  	sw	zero, 0xb8(a0)
   139ce: 23 24 c5 0c  	sw	a2, 0xc8(a0)
   139d2: 23 26 e5 0c  	sw	a4, 0xcc(a0)
   139d6: 23 28 d5 0c  	sw	a3, 0xd0(a0)
   139da: 23 2a c5 0c  	sw	a2, 0xd4(a0)
   139de: 0d 46        	c.li	a2, 0x3
   139e0: 23 2c c5 0c  	sw	a2, 0xd8(a0)
   139e4: 13 06 c5 0d  	addi	a2, a0, 0xdc
   139e8: 93 06 85 0e  	addi	a3, a0, 0xe8
   139ec: 0c c2        	c.sw	a1, 0x0(a2)
   139ee: 11 06        	c.addi	a2, 0x4
   139f0: 85 05        	c.addi	a1, 0x1
   139f2: e3 1d d6 fe  	bne	a2, a3, 0x139ec <jpeg_simple_progression+0x122>
   139f6: 23 28 05 0e  	sw	zero, 0xf0(a0)
   139fa: 23 26 05 0e  	sw	zero, 0xec(a0)
   139fe: 85 45        	c.li	a1, 0x1
   13a00: 23 2a b5 0e  	sw	a1, 0xf4(a0)
   13a04: 23 2c 05 0e  	sw	zero, 0xf8(a0)
   13a08: 23 2e b5 0e  	sw	a1, 0xfc(a0)
   13a0c: 09 46        	c.li	a2, 0x2
   13a0e: 23 20 c5 10  	sw	a2, 0x100(a0)
   13a12: 23 28 b5 10  	sw	a1, 0x110(a0)
   13a16: 13 06 f0 03  	addi	a2, zero, 0x3f
   13a1a: 23 2a c5 10  	sw	a2, 0x114(a0)
   13a1e: 23 2c b5 10  	sw	a1, 0x118(a0)
   13a22: 23 2e 05 10  	sw	zero, 0x11c(a0)
   13a26: 23 20 b5 12  	sw	a1, 0x120(a0)
   13a2a: 23 22 b5 12  	sw	a1, 0x124(a0)
   13a2e: 23 2a b5 12  	sw	a1, 0x134(a0)
   13a32: 23 2c c5 12  	sw	a2, 0x138(a0)
   13a36: 23 2e b5 12  	sw	a1, 0x13c(a0)
   13a3a: 23 20 05 14  	sw	zero, 0x140(a0)
   13a3e: 23 22 b5 14  	sw	a1, 0x144(a0)
   13a42: 23 24 05 14  	sw	zero, 0x148(a0)
   13a46: 23 2c b5 14  	sw	a1, 0x158(a0)
   13a4a: 23 2e c5 14  	sw	a2, 0x15c(a0)
   13a4e: 23 20 b5 16  	sw	a1, 0x160(a0)
   13a52: 23 22 05 16  	sw	zero, 0x164(a0)
   13a56: 7d a8        	c.j	0x13b14 <jpeg_simple_progression+0x24a>
   13a58: 85 46        	c.li	a3, 0x1
   13a5a: a2 85        	c.mv	a1, s0
   13a5c: 01 46        	c.li	a2, 0x0
   13a5e: ef 00 40 0c  	jal	ra, 0x13b22 <fill_dc_scans>
   13a62: 63 42 80 02  	blt	zero, s0, 0x13a86 <jpeg_simple_progression+0x1bc>
   13a66: 05 46        	c.li	a2, 0x1
   13a68: a2 85        	c.mv	a1, s0
   13a6a: 81 46        	c.li	a3, 0x0
   13a6c: a2 70        	c.ldsp	ra, 0x28(sp)
   13a6e: 02 74        	c.ldsp	s0, 0x20(sp)
   13a70: e2 64        	c.ldsp	s1, 0x18(sp)
   13a72: 42 69        	c.ldsp	s2, 0x10(sp)
   13a74: a2 69        	c.ldsp	s3, 0x8(sp)
   13a76: 45 61        	c.addi16sp	sp, 0x30
   13a78: 6f 00 a0 0a  	jal	zero, 0x13b22 <fill_dc_scans>
   13a7c: 85 46        	c.li	a3, 0x1
   13a7e: a2 85        	c.mv	a1, s0
   13a80: 01 46        	c.li	a2, 0x0
   13a82: ef 00 00 0a  	jal	ra, 0x13b22 <fill_dc_scans>
   13a86: 81 45        	c.li	a1, 0x0
   13a88: 05 46        	c.li	a2, 0x1
   13a8a: 95 46        	c.li	a3, 0x5
   13a8c: 09 47        	c.li	a4, 0x2
   13a8e: 10 c1        	c.sw	a2, 0x0(a0)
   13a90: 4c c1        	c.sw	a1, 0x4(a0)
   13a92: 50 c9        	c.sw	a2, 0x14(a0)
   13a94: 14 cd        	c.sw	a3, 0x18(a0)
   13a96: 23 2e 05 00  	sw	zero, 0x1c(a0)
   13a9a: 18 d1        	c.sw	a4, 0x20(a0)
   13a9c: 85 25        	c.addiw	a1, 0x1
   13a9e: 13 05 45 02  	addi	a0, a0, 0x24
   13aa2: e3 16 b4 fe  	bne	s0, a1, 0x13a8e <jpeg_simple_progression+0x1c4>
   13aa6: 81 45        	c.li	a1, 0x0
   13aa8: 05 46        	c.li	a2, 0x1
   13aaa: 99 46        	c.li	a3, 0x6
   13aac: 13 07 f0 03  	addi	a4, zero, 0x3f
   13ab0: 89 47        	c.li	a5, 0x2
   13ab2: 10 c1        	c.sw	a2, 0x0(a0)
   13ab4: 4c c1        	c.sw	a1, 0x4(a0)
   13ab6: 54 c9        	c.sw	a3, 0x14(a0)
   13ab8: 18 cd        	c.sw	a4, 0x18(a0)
   13aba: 23 2e 05 00  	sw	zero, 0x1c(a0)
   13abe: 1c d1        	c.sw	a5, 0x20(a0)
   13ac0: 85 25        	c.addiw	a1, 0x1
   13ac2: 13 05 45 02  	addi	a0, a0, 0x24
   13ac6: e3 16 b4 fe  	bne	s0, a1, 0x13ab2 <jpeg_simple_progression+0x1e8>
   13aca: 81 45        	c.li	a1, 0x0
   13acc: 05 46        	c.li	a2, 0x1
   13ace: 93 06 f0 03  	addi	a3, zero, 0x3f
   13ad2: 09 47        	c.li	a4, 0x2
   13ad4: 10 c1        	c.sw	a2, 0x0(a0)
   13ad6: 4c c1        	c.sw	a1, 0x4(a0)
   13ad8: 50 c9        	c.sw	a2, 0x14(a0)
   13ada: 14 cd        	c.sw	a3, 0x18(a0)
   13adc: 58 cd        	c.sw	a4, 0x1c(a0)
   13ade: 10 d1        	c.sw	a2, 0x20(a0)
   13ae0: 85 25        	c.addiw	a1, 0x1
   13ae2: 13 05 45 02  	addi	a0, a0, 0x24
   13ae6: e3 17 b4 fe  	bne	s0, a1, 0x13ad4 <jpeg_simple_progression+0x20a>
   13aea: 05 46        	c.li	a2, 0x1
   13aec: 85 44        	c.li	s1, 0x1
   13aee: a2 85        	c.mv	a1, s0
   13af0: 81 46        	c.li	a3, 0x0
   13af2: ef 00 00 03  	jal	ra, 0x13b22 <fill_dc_scans>
   13af6: 81 45        	c.li	a1, 0x0
   13af8: 13 06 f0 03  	addi	a2, zero, 0x3f
   13afc: 04 c1        	c.sw	s1, 0x0(a0)
   13afe: 4c c1        	c.sw	a1, 0x4(a0)
   13b00: 44 c9        	c.sw	s1, 0x14(a0)
   13b02: 10 cd        	c.sw	a2, 0x18(a0)
   13b04: 44 cd        	c.sw	s1, 0x1c(a0)
   13b06: 23 20 05 02  	sw	zero, 0x20(a0)
   13b0a: 85 25        	c.addiw	a1, 0x1
   13b0c: 13 05 45 02  	addi	a0, a0, 0x24
   13b10: e3 16 b4 fe  	bne	s0, a1, 0x13afc <jpeg_simple_progression+0x232>
   13b14: a2 70        	c.ldsp	ra, 0x28(sp)
   13b16: 02 74        	c.ldsp	s0, 0x20(sp)
   13b18: e2 64        	c.ldsp	s1, 0x18(sp)
   13b1a: 42 69        	c.ldsp	s2, 0x10(sp)
   13b1c: a2 69        	c.ldsp	s3, 0x8(sp)
   13b1e: 45 61        	c.addi16sp	sp, 0x30
   13b20: 82 80        	c.jr	ra

0000000000013b22 <fill_dc_scans>:
   13b22: 15 47        	c.li	a4, 0x5
   13b24: 63 d8 e5 02  	bge	a1, a4, 0x13b54 <fill_dc_scans+0x32>
   13b28: 0c c1        	c.sw	a1, 0x0(a0)
   13b2a: 63 5c b0 00  	bge	zero, a1, 0x13b42 <fill_dc_scans+0x20>
   13b2e: 01 47        	c.li	a4, 0x0
   13b30: 93 07 45 00  	addi	a5, a0, 0x4
   13b34: 8a 05        	c.slli	a1, 0x2
   13b36: be 95        	c.add	a1, a5
   13b38: 98 c3        	c.sw	a4, 0x0(a5)
   13b3a: 91 07        	c.addi	a5, 0x4
   13b3c: 05 07        	c.addi	a4, 0x1
   13b3e: e3 9d b7 fe  	bne	a5, a1, 0x13b38 <fill_dc_scans+0x16>
   13b42: 23 2c 05 00  	sw	zero, 0x18(a0)
   13b46: 23 2a 05 00  	sw	zero, 0x14(a0)
   13b4a: 50 cd        	c.sw	a2, 0x1c(a0)
   13b4c: 14 d1        	c.sw	a3, 0x20(a0)
   13b4e: 13 05 45 02  	addi	a0, a0, 0x24
   13b52: 82 80        	c.jr	ra
   13b54: 01 47        	c.li	a4, 0x0
   13b56: 85 47        	c.li	a5, 0x1
   13b58: 1c c1        	c.sw	a5, 0x0(a0)
   13b5a: 58 c1        	c.sw	a4, 0x4(a0)
   13b5c: 23 2a 05 00  	sw	zero, 0x14(a0)
   13b60: 23 2c 05 00  	sw	zero, 0x18(a0)
   13b64: 50 cd        	c.sw	a2, 0x1c(a0)
   13b66: 14 d1        	c.sw	a3, 0x20(a0)
   13b68: 05 27        	c.addiw	a4, 0x1
   13b6a: 13 05 45 02  	addi	a0, a0, 0x24
   13b6e: e3 95 e5 fe  	bne	a1, a4, 0x13b58 <fill_dc_scans+0x36>
   13b72: 82 80        	c.jr	ra

0000000000013b74 <jpeg_stdio_dest>:
   13b74: ef a2 e1 2c  	jal	t0, 0x2de42 <__riscv_save_3>
   13b78: aa 84        	c.mv	s1, a0
   13b7a: 08 71        	c.ld	a0, 0x20(a0)
   13b7c: 2e 84        	c.mv	s0, a1
   13b7e: 09 e9        	c.bnez	a0, 0x13b90 <jpeg_stdio_dest+0x1c>
   13b80: 88 64        	c.ld	a0, 0x8(s1)
   13b82: 14 61        	c.ld	a3, 0x0(a0)
   13b84: 13 06 80 03  	addi	a2, zero, 0x38
   13b88: 26 85        	c.mv	a0, s1
   13b8a: 81 45        	c.li	a1, 0x0
   13b8c: 82 96        	c.jalr	a3
   13b8e: 88 f0        	c.sd	a0, 0x20(s1)
   13b90: b7 45 01 00  	lui	a1, 0x14
   13b94: 93 85 45 bb  	addi	a1, a1, -0x44c
   13b98: 0c e9        	c.sd	a1, 0x10(a0)
   13b9a: b7 45 01 00  	lui	a1, 0x14
   13b9e: 93 85 05 bd  	addi	a1, a1, -0x430
   13ba2: 0c ed        	c.sd	a1, 0x18(a0)
   13ba4: b7 45 01 00  	lui	a1, 0x14
   13ba8: 93 85 65 c0  	addi	a1, a1, -0x3fa
   13bac: 0c f1        	c.sd	a1, 0x20(a0)
   13bae: 00 f5        	c.sd	s0, 0x28(a0)
   13bb0: 6f a0 81 2c  	jal	zero, 0x2de78 <__riscv_restore_3>

0000000000013bb4 <init_destination>:
   13bb4: ef a2 e1 28  	jal	t0, 0x2de42 <__riscv_save_3>
   13bb8: 0c 65        	c.ld	a1, 0x8(a0)
   13bba: 00 71        	c.ld	s0, 0x20(a0)
   13bbc: 94 61        	c.ld	a3, 0x0(a1)
   13bbe: 85 45        	c.li	a1, 0x1
   13bc0: 05 66        	c.lui	a2, 0x1
   13bc2: 85 64        	c.lui	s1, 0x1
   13bc4: 82 96        	c.jalr	a3
   13bc6: 08 f8        	c.sd	a0, 0x30(s0)
   13bc8: 08 e0        	c.sd	a0, 0x0(s0)
   13bca: 04 e4        	c.sd	s1, 0x8(s0)
   13bcc: 6f a0 c1 2a  	jal	zero, 0x2de78 <__riscv_restore_3>

0000000000013bd0 <empty_output_buffer>:
   13bd0: ef a2 21 27  	jal	t0, 0x2de42 <__riscv_save_3>
   13bd4: 2a 84        	c.mv	s0, a0
   13bd6: 04 71        	c.ld	s1, 0x20(a0)
   13bd8: 88 78        	c.ld	a0, 0x30(s1)
   13bda: 94 74        	c.ld	a3, 0x28(s1)
   13bdc: 85 45        	c.li	a1, 0x1
   13bde: 05 66        	c.lui	a2, 0x1
   13be0: 05 69        	c.lui	s2, 0x1
   13be2: ef 70 60 35  	jal	ra, 0x1af38 <fwrite>
   13be6: 63 09 25 01  	beq	a0, s2, 0x13bf8 <empty_output_buffer+0x28>
   13bea: 08 60        	c.ld	a0, 0x0(s0)
   13bec: 0c 61        	c.ld	a1, 0x0(a0)
   13bee: 13 06 40 02  	addi	a2, zero, 0x24
   13bf2: 10 d5        	c.sw	a2, 0x28(a0)
   13bf4: 22 85        	c.mv	a0, s0
   13bf6: 82 95        	c.jalr	a1
   13bf8: 88 78        	c.ld	a0, 0x30(s1)
   13bfa: 88 e0        	c.sd	a0, 0x0(s1)
   13bfc: 05 45        	c.li	a0, 0x1
   13bfe: 23 b4 24 01  	sd	s2, 0x8(s1)
   13c02: 6f a0 61 27  	jal	zero, 0x2de78 <__riscv_restore_3>

0000000000013c06 <term_destination>:
   13c06: 01 11        	c.addi	sp, -0x20
   13c08: 06 ec        	c.sdsp	ra, 0x18(sp)
   13c0a: 22 e8        	c.sdsp	s0, 0x10(sp)
   13c0c: 26 e4        	c.sdsp	s1, 0x8(sp)
   13c0e: 4a e0        	c.sdsp	s2, 0x0(sp)
   13c10: 2a 84        	c.mv	s0, a0
   13c12: 04 71        	c.ld	s1, 0x20(a0)
   13c14: 8c 64        	c.ld	a1, 0x8(s1)
   13c16: 05 66        	c.lui	a2, 0x1
   13c18: 63 83 c5 02  	beq	a1, a2, 0x13c3e <term_destination+0x38>
   13c1c: 88 78        	c.ld	a0, 0x30(s1)
   13c1e: 94 74        	c.ld	a3, 0x28(s1)
   13c20: 33 09 b6 40  	sub	s2, a2, a1
   13c24: 85 45        	c.li	a1, 0x1
   13c26: 4a 86        	c.mv	a2, s2
   13c28: ef 70 00 31  	jal	ra, 0x1af38 <fwrite>
   13c2c: 63 09 25 01  	beq	a0, s2, 0x13c3e <term_destination+0x38>
   13c30: 08 60        	c.ld	a0, 0x0(s0)
   13c32: 0c 61        	c.ld	a1, 0x0(a0)
   13c34: 13 06 40 02  	addi	a2, zero, 0x24
   13c38: 10 d5        	c.sw	a2, 0x28(a0)
   13c3a: 22 85        	c.mv	a0, s0
   13c3c: 82 95        	c.jalr	a1
   13c3e: 88 74        	c.ld	a0, 0x28(s1)
   13c40: ef 60 f0 45  	jal	ra, 0x1a89e <fflush>
   13c44: 88 74        	c.ld	a0, 0x28(s1)
   13c46: 03 45 05 01  	lbu	a0, 0x10(a0)
   13c4a: 13 75 05 04  	andi	a0, a0, 0x40
   13c4e: 19 e5        	c.bnez	a0, 0x13c5c <term_destination+0x56>
   13c50: e2 60        	c.ldsp	ra, 0x18(sp)
   13c52: 42 64        	c.ldsp	s0, 0x10(sp)
   13c54: a2 64        	c.ldsp	s1, 0x8(sp)
   13c56: 02 69        	c.ldsp	s2, 0x0(sp)
   13c58: 05 61        	c.addi16sp	sp, 0x20
   13c5a: 82 80        	c.jr	ra
   13c5c: 08 60        	c.ld	a0, 0x0(s0)
   13c5e: 1c 61        	c.ld	a5, 0x0(a0)
   13c60: 93 05 40 02  	addi	a1, zero, 0x24
   13c64: 0c d5        	c.sw	a1, 0x28(a0)
   13c66: 22 85        	c.mv	a0, s0
   13c68: e2 60        	c.ldsp	ra, 0x18(sp)
   13c6a: 42 64        	c.ldsp	s0, 0x10(sp)
   13c6c: a2 64        	c.ldsp	s1, 0x8(sp)
   13c6e: 02 69        	c.ldsp	s2, 0x0(sp)
   13c70: 05 61        	c.addi16sp	sp, 0x20
   13c72: 82 87        	c.jr	a5

0000000000013c74 <jinit_compress_master>:
   13c74: 41 11        	c.addi	sp, -0x10
   13c76: 06 e4        	c.sdsp	ra, 0x8(sp)
   13c78: 22 e0        	c.sdsp	s0, 0x0(sp)
   13c7a: 2a 84        	c.mv	s0, a0
   13c7c: 81 45        	c.li	a1, 0x0
   13c7e: ef 00 a0 08  	jal	ra, 0x13d08 <jinit_c_master_control>
   13c82: 03 25 84 0f  	lw	a0, 0xf8(s0)
   13c86: 19 e9        	c.bnez	a0, 0x13c9c <jinit_compress_master+0x28>
   13c88: 22 85        	c.mv	a0, s0
   13c8a: ef 10 d0 7b  	jal	ra, 0x15c46 <jinit_color_converter>
   13c8e: 22 85        	c.mv	a0, s0
   13c90: ef 20 40 53  	jal	ra, 0x161c4 <jinit_downsampler>
   13c94: 22 85        	c.mv	a0, s0
   13c96: 81 45        	c.li	a1, 0x0
   13c98: ef 10 a0 3e  	jal	ra, 0x15082 <jinit_c_prep_controller>
   13c9c: 22 85        	c.mv	a0, s0
   13c9e: ef 40 30 1b  	jal	ra, 0x18650 <jinit_forward_dct>
   13ca2: 03 25 c4 0f  	lw	a0, 0xfc(s0)
   13ca6: 01 c9        	c.beqz	a0, 0x13cb6 <jinit_compress_master+0x42>
   13ca8: 08 60        	c.ld	a0, 0x0(s0)
   13caa: 0c 61        	c.ld	a1, 0x0(a0)
   13cac: 05 46        	c.li	a2, 0x1
   13cae: 10 d5        	c.sw	a2, 0x28(a0)
   13cb0: 22 85        	c.mv	a0, s0
   13cb2: 82 95        	c.jalr	a1
   13cb4: 19 a8        	c.j	0x13cca <jinit_compress_master+0x56>
   13cb6: 03 25 c4 12  	lw	a0, 0x12c(s0)
   13cba: 09 c5        	c.beqz	a0, 0x13cc4 <jinit_compress_master+0x50>
   13cbc: 22 85        	c.mv	a0, s0
   13cbe: ef 30 d0 47  	jal	ra, 0x1793a <jinit_phuff_encoder>
   13cc2: 21 a0        	c.j	0x13cca <jinit_compress_master+0x56>
   13cc4: 22 85        	c.mv	a0, s0
   13cc6: ef 30 00 13  	jal	ra, 0x16df6 <jinit_huff_encoder>
   13cca: 03 25 84 0e  	lw	a0, 0xe8(s0)
   13cce: 85 45        	c.li	a1, 0x1
   13cd0: 63 c6 a5 00  	blt	a1, a0, 0x13cdc <jinit_compress_master+0x68>
   13cd4: 03 25 04 10  	lw	a0, 0x100(s0)
   13cd8: b3 35 a0 00  	sltu	a1, zero, a0
   13cdc: 22 85        	c.mv	a0, s0
   13cde: ef 10 50 0c  	jal	ra, 0x155a2 <jinit_c_coef_controller>
   13ce2: 22 85        	c.mv	a0, s0
   13ce4: 81 45        	c.li	a1, 0x0
   13ce6: ef 10 60 23  	jal	ra, 0x14f1c <jinit_c_main_controller>
   13cea: 22 85        	c.mv	a0, s0
   13cec: ef 00 10 20  	jal	ra, 0x146ec <jinit_marker_writer>
   13cf0: 08 64        	c.ld	a0, 0x8(s0)
   13cf2: 0c 79        	c.ld	a1, 0x30(a0)
   13cf4: 22 85        	c.mv	a0, s0
   13cf6: 82 95        	c.jalr	a1
   13cf8: 03 35 84 1c  	ld	a0, 0x1c8(s0)
   13cfc: 1c 65        	c.ld	a5, 0x8(a0)
   13cfe: 22 85        	c.mv	a0, s0
   13d00: a2 60        	c.ldsp	ra, 0x8(sp)
   13d02: 02 64        	c.ldsp	s0, 0x0(sp)
   13d04: 41 01        	c.addi	sp, 0x10
   13d06: 82 87        	c.jr	a5

0000000000013d08 <jinit_c_master_control>:
   13d08: ef a2 a1 10  	jal	t0, 0x2de12 <__riscv_save_12>
   13d0c: 13 01 01 80  	addi	sp, sp, -0x800
   13d10: 13 01 01 d9  	addi	sp, sp, -0x270
   13d14: aa 8a        	c.mv	s5, a0
   13d16: 08 65        	c.ld	a0, 0x8(a0)
   13d18: 14 61        	c.ld	a3, 0x0(a0)
   13d1a: ae 8b        	c.mv	s7, a1
   13d1c: 85 45        	c.li	a1, 0x1
   13d1e: 13 06 00 03  	addi	a2, zero, 0x30
   13d22: 56 85        	c.mv	a0, s5
   13d24: 82 96        	c.jalr	a3
   13d26: 2a 8b        	c.mv	s6, a0
   13d28: 37 45 01 00  	lui	a0, 0x14
   13d2c: 13 05 e5 2c  	addi	a0, a0, 0x2ce
   13d30: 23 30 ab 00  	sd	a0, 0x0(s6)
   13d34: 37 45 01 00  	lui	a0, 0x14
   13d38: 13 05 45 41  	addi	a0, a0, 0x414
   13d3c: 23 34 ab 00  	sd	a0, 0x8(s6)
   13d40: b7 45 01 00  	lui	a1, 0x14
   13d44: 03 a5 ca 02  	lw	a0, 0x2c(s5)
   13d48: 93 85 e5 43  	addi	a1, a1, 0x43e
   13d4c: 23 38 bb 00  	sd	a1, 0x10(s6)
   13d50: 23 b4 6a 1b  	sd	s6, 0x1a8(s5)
   13d54: 23 2e 0b 00  	sw	zero, 0x1c(s6)
   13d58: 01 cd        	c.beqz	a0, 0x13d70 <jinit_c_master_control+0x68>
   13d5a: 83 a5 8a 02  	lw	a1, 0x28(s5)
   13d5e: 89 c9        	c.beqz	a1, 0x13d70 <jinit_c_master_control+0x68>
   13d60: 83 a5 4a 04  	lw	a1, 0x44(s5)
   13d64: 63 56 b0 00  	bge	zero, a1, 0x13d70 <jinit_c_master_control+0x68>
   13d68: 83 a5 0a 03  	lw	a1, 0x30(s5)
   13d6c: 63 4b b0 00  	blt	zero, a1, 0x13d82 <jinit_c_master_control+0x7a>
   13d70: 03 b5 0a 00  	ld	a0, 0x0(s5)
   13d74: 0c 61        	c.ld	a1, 0x0(a0)
   13d76: 7d 46        	c.li	a2, 0x1f
   13d78: 10 d5        	c.sw	a2, 0x28(a0)
   13d7a: 56 85        	c.mv	a0, s5
   13d7c: 82 95        	c.jalr	a1
   13d7e: 03 a5 ca 02  	lw	a0, 0x2c(s5)
   13d82: 41 66        	c.lui	a2, 0x10
   13d84: 9b 05 c6 fd  	addiw	a1, a2, -0x24
   13d88: 63 e8 a5 00  	bltu	a1, a0, 0x13d98 <jinit_c_master_control+0x90>
   13d8c: 83 a5 8a 02  	lw	a1, 0x28(s5)
   13d90: 1b 05 d6 fd  	addiw	a0, a2, -0x23
   13d94: 63 e1 a5 02  	bltu	a1, a0, 0x13db6 <jinit_c_master_control+0xae>
   13d98: 03 b5 0a 00  	ld	a0, 0x0(s5)
   13d9c: b7 75 ff 03  	lui	a1, 0x3ff7
   13da0: da 05        	c.slli	a1, 0x16
   13da2: 93 85 85 02  	addi	a1, a1, 0x28
   13da6: 0c f5        	c.sd	a1, 0x28(a0)
   13da8: 03 b5 0a 00  	ld	a0, 0x0(s5)
   13dac: 0c 61        	c.ld	a1, 0x0(a0)
   13dae: 56 85        	c.mv	a0, s5
   13db0: 82 95        	c.jalr	a1
   13db2: 83 a5 8a 02  	lw	a1, 0x28(s5)
   13db6: 03 a5 0a 03  	lw	a0, 0x30(s5)
   13dba: 82 15        	c.slli	a1, 0x20
   13dbc: 81 91        	c.srli	a1, 0x20
   13dbe: ef a0 a1 0c  	jal	ra, 0x2de88 <__muldi3>
   13dc2: 01 91        	c.srli	a0, 0x20
   13dc4: 09 c9        	c.beqz	a0, 0x13dd6 <jinit_c_master_control+0xce>
   13dc6: 03 b5 0a 00  	ld	a0, 0x0(s5)
   13dca: 0c 61        	c.ld	a1, 0x0(a0)
   13dcc: 13 06 50 04  	addi	a2, zero, 0x45
   13dd0: 10 d5        	c.sw	a2, 0x28(a0)
   13dd2: 56 85        	c.mv	a0, s5
   13dd4: 82 95        	c.jalr	a1
   13dd6: 03 a5 0a 04  	lw	a0, 0x40(s5)
   13dda: a1 45        	c.li	a1, 0x8
   13ddc: 63 0c b5 00  	beq	a0, a1, 0x13df4 <jinit_c_master_control+0xec>
   13de0: 83 b5 0a 00  	ld	a1, 0x0(s5)
   13de4: c8 d5        	c.sw	a0, 0x2c(a1)
   13de6: 03 b5 0a 00  	ld	a0, 0x0(s5)
   13dea: 10 61        	c.ld	a2, 0x0(a0)
   13dec: 35 45        	c.li	a0, 0xd
   13dee: 88 d5        	c.sw	a0, 0x28(a1)
   13df0: 56 85        	c.mv	a0, s5
   13df2: 02 96        	c.jalr	a2
   13df4: 03 a5 4a 04  	lw	a0, 0x44(s5)
   13df8: ad 45        	c.li	a1, 0xb
   13dfa: 63 42 b5 02  	blt	a0, a1, 0x13e1e <jinit_c_master_control+0x116>
   13dfe: 83 b5 0a 00  	ld	a1, 0x0(s5)
   13e02: c8 d5        	c.sw	a0, 0x2c(a1)
   13e04: 03 b5 0a 00  	ld	a0, 0x0(s5)
   13e08: 61 46        	c.li	a2, 0x18
   13e0a: 90 d5        	c.sw	a2, 0x28(a1)
   13e0c: a9 45        	c.li	a1, 0xa
   13e0e: 0c d9        	c.sw	a1, 0x30(a0)
   13e10: 03 b5 0a 00  	ld	a0, 0x0(s5)
   13e14: 0c 61        	c.ld	a1, 0x0(a0)
   13e16: 56 85        	c.mv	a0, s5
   13e18: 82 95        	c.jalr	a1
   13e1a: 03 a5 4a 04  	lw	a0, 0x44(s5)
   13e1e: 85 45        	c.li	a1, 0x1
   13e20: 13 96 05 02  	slli	a2, a1, 0x20
   13e24: 05 06        	c.addi	a2, 0x1
   13e26: 23 b8 ca 12  	sd	a2, 0x130(s5)
   13e2a: 63 5f a0 0e  	bge	zero, a0, 0x13f28 <jinit_c_master_control+0x220>
   13e2e: 83 b4 0a 05  	ld	s1, 0x50(s5)
   13e32: 01 49        	c.li	s2, 0x0
   13e34: b1 04        	c.addi	s1, 0xc
   13e36: 85 45        	c.li	a1, 0x1
   13e38: f1 59        	c.li	s3, -0x4
   13e3a: 41 4a        	c.li	s4, 0x10
   13e3c: 6d 54        	c.li	s0, -0x5
   13e3e: 05 46        	c.li	a2, 0x1
   13e40: 03 a7 c4 ff  	lw	a4, -0x4(s1)
   13e44: 9b 06 b7 ff  	addiw	a3, a4, -0x5
   13e48: 63 e7 36 01  	bltu	a3, s3, 0x13e56 <jinit_c_master_control+0x14e>
   13e4c: 94 40        	c.lw	a3, 0x0(s1)
   13e4e: 9b 87 b6 ff  	addiw	a5, a3, -0x5
   13e52: 63 62 f4 02  	bltu	s0, a5, 0x13e76 <jinit_c_master_control+0x16e>
   13e56: 03 b5 0a 00  	ld	a0, 0x0(s5)
   13e5a: 0c 61        	c.ld	a1, 0x0(a0)
   13e5c: 23 24 45 03  	sw	s4, 0x28(a0)
   13e60: 56 85        	c.mv	a0, s5
   13e62: 82 95        	c.jalr	a1
   13e64: 03 a6 0a 13  	lw	a2, 0x130(s5)
   13e68: 03 a7 c4 ff  	lw	a4, -0x4(s1)
   13e6c: 83 a5 4a 13  	lw	a1, 0x134(s5)
   13e70: 94 40        	c.lw	a3, 0x0(s1)
   13e72: 03 a5 4a 04  	lw	a0, 0x44(s5)
   13e76: 63 43 c7 00  	blt	a4, a2, 0x13e7c <jinit_c_master_control+0x174>
   13e7a: 3a 86        	c.mv	a2, a4
   13e7c: 23 a8 ca 12  	sw	a2, 0x130(s5)
   13e80: 63 c3 b6 00  	blt	a3, a1, 0x13e86 <jinit_c_master_control+0x17e>
   13e84: b6 85        	c.mv	a1, a3
   13e86: 23 aa ba 12  	sw	a1, 0x134(s5)
   13e8a: 05 29        	c.addiw	s2, 0x1
   13e8c: 93 84 04 06  	addi	s1, s1, 0x60
   13e90: e3 48 a9 fa  	blt	s2, a0, 0x13e40 <jinit_c_master_control+0x138>
   13e94: 63 5a a0 08  	bge	zero, a0, 0x13f28 <jinit_c_master_control+0x220>
   13e98: 83 b4 0a 05  	ld	s1, 0x50(s5)
   13e9c: 01 49        	c.li	s2, 0x0
   13e9e: f1 04        	c.addi	s1, 0x1c
   13ea0: a1 49        	c.li	s3, 0x8
   13ea2: 05 4a        	c.li	s4, 0x1
   13ea4: 83 e5 8a 02  	lwu	a1, 0x28(s5)
   13ea8: 03 a5 c4 fe  	lw	a0, -0x14(s1)
   13eac: 23 a4 24 ff  	sw	s2, -0x18(s1)
   13eb0: 23 a4 34 01  	sw	s3, 0x8(s1)
   13eb4: ef 90 51 7d  	jal	ra, 0x2de88 <__muldi3>
   13eb8: 83 a5 0a 13  	lw	a1, 0x130(s5)
   13ebc: 9b 95 35 00  	slliw	a1, a1, 0x3
   13ec0: ef 50 e0 2b  	jal	ra, 0x1917e <jdiv_round_up>
   13ec4: 83 e5 ca 02  	lwu	a1, 0x2c(s5)
   13ec8: 03 a6 04 ff  	lw	a2, -0x10(s1)
   13ecc: 88 c0        	c.sw	a0, 0x0(s1)
   13ece: 32 85        	c.mv	a0, a2
   13ed0: ef 90 91 7b  	jal	ra, 0x2de88 <__muldi3>
   13ed4: 83 a5 4a 13  	lw	a1, 0x134(s5)
   13ed8: 9b 95 35 00  	slliw	a1, a1, 0x3
   13edc: ef 50 20 2a  	jal	ra, 0x1917e <jdiv_round_up>
   13ee0: 83 e5 8a 02  	lwu	a1, 0x28(s5)
   13ee4: 03 a6 c4 fe  	lw	a2, -0x14(s1)
   13ee8: c8 c0        	c.sw	a0, 0x4(s1)
   13eea: 32 85        	c.mv	a0, a2
   13eec: ef 90 d1 79  	jal	ra, 0x2de88 <__muldi3>
   13ef0: 83 a5 0a 13  	lw	a1, 0x130(s5)
   13ef4: ef 50 a0 28  	jal	ra, 0x1917e <jdiv_round_up>
   13ef8: 83 e5 ca 02  	lwu	a1, 0x2c(s5)
   13efc: 03 a6 04 ff  	lw	a2, -0x10(s1)
   13f00: c8 c4        	c.sw	a0, 0xc(s1)
   13f02: 32 85        	c.mv	a0, a2
   13f04: ef 90 51 78  	jal	ra, 0x2de88 <__muldi3>
   13f08: 83 a5 4a 13  	lw	a1, 0x134(s5)
   13f0c: ef 50 20 27  	jal	ra, 0x1917e <jdiv_round_up>
   13f10: 83 a5 4a 04  	lw	a1, 0x44(s5)
   13f14: 88 c8        	c.sw	a0, 0x10(s1)
   13f16: 23 aa 44 01  	sw	s4, 0x14(s1)
   13f1a: 05 29        	c.addiw	s2, 0x1
   13f1c: 93 84 04 06  	addi	s1, s1, 0x60
   13f20: e3 42 b9 f8  	blt	s2, a1, 0x13ea4 <jinit_c_master_control+0x19c>
   13f24: 83 a5 4a 13  	lw	a1, 0x134(s5)
   13f28: 03 e5 ca 02  	lwu	a0, 0x2c(s5)
   13f2c: 9b 95 35 00  	slliw	a1, a1, 0x3
   13f30: ef 50 e0 24  	jal	ra, 0x1917e <jdiv_round_up>
   13f34: 03 ba 0a 0f  	ld	s4, 0xf0(s5)
   13f38: 23 ac aa 12  	sw	a0, 0x138(s5)
   13f3c: 93 84 8a 0e  	addi	s1, s5, 0xe8
   13f40: 63 00 0a 30  	beq	s4, zero, 0x14240 <jinit_c_master_control+0x538>
   13f44: 88 40        	c.lw	a0, 0x0(s1)
   13f46: 63 4d a0 00  	blt	zero, a0, 0x13f60 <jinit_c_master_control+0x258>
   13f4a: 03 b5 0a 00  	ld	a0, 0x0(s5)
   13f4e: c5 45        	c.li	a1, 0x11
   13f50: 0c f5        	c.sd	a1, 0x28(a0)
   13f52: 03 b5 0a 00  	ld	a0, 0x0(s5)
   13f56: 0c 61        	c.ld	a1, 0x0(a0)
   13f58: 56 85        	c.mv	a0, s5
   13f5a: 82 95        	c.jalr	a1
   13f5c: 03 ba 0a 0f  	ld	s4, 0xf0(s5)
   13f60: 03 25 4a 01  	lw	a0, 0x14(s4)
   13f64: 05 e9        	c.bnez	a0, 0x13f94 <jinit_c_master_control+0x28c>
   13f66: 03 25 8a 01  	lw	a0, 0x18(s4)
   13f6a: 93 05 f0 03  	addi	a1, zero, 0x3f
   13f6e: 63 13 b5 02  	bne	a0, a1, 0x13f94 <jinit_c_master_control+0x28c>
   13f72: 03 a9 4a 04  	lw	s2, 0x44(s5)
   13f76: 23 a6 0a 12  	sw	zero, 0x12c(s5)
   13f7a: 63 5b 20 01  	bge	zero, s2, 0x13f90 <jinit_c_master_control+0x288>
   13f7e: 13 16 29 00  	slli	a2, s2, 0x2
   13f82: 13 05 f1 7f  	addi	a0, sp, 0x7ff
   13f86: 13 05 95 24  	addi	a0, a0, 0x249
   13f8a: 81 45        	c.li	a1, 0x0
   13f8c: ef 70 f0 4e  	jal	ra, 0x1bc7a <memset>
   13f90: 01 44        	c.li	s0, 0x0
   13f92: 39 a8        	c.j	0x13fb0 <jinit_c_master_control+0x2a8>
   13f94: 03 a9 4a 04  	lw	s2, 0x44(s5)
   13f98: 05 44        	c.li	s0, 0x1
   13f9a: 23 a6 8a 12  	sw	s0, 0x12c(s5)
   13f9e: 63 59 20 01  	bge	zero, s2, 0x13fb0 <jinit_c_master_control+0x2a8>
   13fa2: 13 16 89 00  	slli	a2, s2, 0x8
   13fa6: a8 00        	c.addi4spn	a0, sp, 0x48
   13fa8: 93 05 f0 0f  	addi	a1, zero, 0xff
   13fac: ef 70 f0 4c  	jal	ra, 0x1bc7a <memset>
   13fb0: 88 40        	c.lw	a0, 0x0(s1)
   13fb2: 63 5e a0 24  	bge	zero, a0, 0x1420e <jinit_c_master_control+0x506>
   13fb6: 5e e8        	c.sdsp	s7, 0x10(sp)
   13fb8: 5a ec        	c.sdsp	s6, 0x18(sp)
   13fba: 13 04 4a 00  	addi	s0, s4, 0x4
   13fbe: 45 4b        	c.li	s6, 0x11
   13fc0: 3d 49        	c.li	s2, 0xf
   13fc2: 05 45        	c.li	a0, 0x1
   13fc4: 26 f0        	c.sdsp	s1, 0x20(sp)
   13fc6: 03 6c 0a 00  	lwu	s8, 0x0(s4)
   13fca: 2a 8d        	c.mv	s10, a0
   13fcc: 1b 05 bc ff  	addiw	a0, s8, -0x5
   13fd0: 9b 05 0c 00  	addiw	a1, s8, 0x0
   13fd4: 2e fc        	c.sdsp	a1, 0x38(sp)
   13fd6: ed 55        	c.li	a1, -0x5
   13fd8: 22 f4        	c.sdsp	s0, 0x28(sp)
   13fda: 63 e3 a5 02  	bltu	a1, a0, 0x14000 <jinit_c_master_control+0x2f8>
   13fde: 03 b5 0a 00  	ld	a0, 0x0(s5)
   13fe2: e2 74        	c.ldsp	s1, 0x38(sp)
   13fe4: 44 d5        	c.sw	s1, 0x2c(a0)
   13fe6: 83 b5 0a 00  	ld	a1, 0x0(s5)
   13fea: 61 46        	c.li	a2, 0x18
   13fec: 10 d5        	c.sw	a2, 0x28(a0)
   13fee: 11 45        	c.li	a0, 0x4
   13ff0: 88 d9        	c.sw	a0, 0x30(a1)
   13ff2: 03 b5 0a 00  	ld	a0, 0x0(s5)
   13ff6: 0c 61        	c.ld	a1, 0x0(a0)
   13ff8: 56 85        	c.mv	a0, s5
   13ffa: 82 95        	c.jalr	a1
   13ffc: 63 50 90 20  	bge	zero, s1, 0x141fc <jinit_c_master_control+0x4f4>
   14000: 81 44        	c.li	s1, 0x0
   14002: 83 29 04 00  	lw	s3, 0x0(s0)
   14006: 63 c6 09 00  	blt	s3, zero, 0x14012 <jinit_c_master_control+0x30a>
   1400a: 03 a5 4a 04  	lw	a0, 0x44(s5)
   1400e: 63 cd a9 00  	blt	s3, a0, 0x14028 <jinit_c_master_control+0x320>
   14012: 03 b5 0a 00  	ld	a0, 0x0(s5)
   14016: 23 26 a5 03  	sw	s10, 0x2c(a0)
   1401a: 83 b5 0a 00  	ld	a1, 0x0(s5)
   1401e: 8c 61        	c.ld	a1, 0x0(a1)
   14020: 23 24 65 03  	sw	s6, 0x28(a0)
   14024: 56 85        	c.mv	a0, s5
   14026: 82 95        	c.jalr	a1
   14028: 85 c0        	c.beqz	s1, 0x14048 <jinit_c_master_control+0x340>
   1402a: 03 25 c4 ff  	lw	a0, -0x4(s0)
   1402e: 63 4d 35 01  	blt	a0, s3, 0x14048 <jinit_c_master_control+0x340>
   14032: 03 b5 0a 00  	ld	a0, 0x0(s5)
   14036: 23 26 a5 03  	sw	s10, 0x2c(a0)
   1403a: 83 b5 0a 00  	ld	a1, 0x0(s5)
   1403e: 8c 61        	c.ld	a1, 0x0(a1)
   14040: 23 24 65 03  	sw	s6, 0x28(a0)
   14044: 56 85        	c.mv	a0, s5
   14046: 82 95        	c.jalr	a1
   14048: 85 04        	c.addi	s1, 0x1
   1404a: 11 04        	c.addi	s0, 0x4
   1404c: e3 1b 9c fa  	bne	s8, s1, 0x14002 <jinit_c_master_control+0x2fa>
   14050: c5 4c        	c.li	s9, 0x11
   14052: 05 44        	c.li	s0, 0x1
   14054: 03 2b 4a 01  	lw	s6, 0x14(s4)
   14058: 83 2b 8a 01  	lw	s7, 0x18(s4)
   1405c: 83 29 ca 01  	lw	s3, 0x1c(s4)
   14060: 03 a5 ca 12  	lw	a0, 0x12c(s5)
   14064: d2 e0        	c.sdsp	s4, 0x40(sp)
   14066: 03 2a 0a 02  	lw	s4, 0x20(s4)
   1406a: 0d c1        	c.beqz	a0, 0x1408c <jinit_c_master_control+0x384>
   1406c: 13 05 f0 03  	addi	a0, zero, 0x3f
   14070: 63 73 65 09  	bgeu	a0, s6, 0x140f6 <jinit_c_master_control+0x3ee>
   14074: 03 b5 0a 00  	ld	a0, 0x0(s5)
   14078: 23 26 a5 03  	sw	s10, 0x2c(a0)
   1407c: 83 b5 0a 00  	ld	a1, 0x0(s5)
   14080: 8c 61        	c.ld	a1, 0x0(a1)
   14082: 23 24 25 03  	sw	s2, 0x28(a0)
   14086: 56 85        	c.mv	a0, s5
   14088: 82 95        	c.jalr	a1
   1408a: 71 a0        	c.j	0x14116 <jinit_c_master_control+0x40e>
   1408c: 63 1a 0b 00  	bne	s6, zero, 0x140a0 <jinit_c_master_control+0x398>
   14090: 13 05 f0 03  	addi	a0, zero, 0x3f
   14094: 63 96 ab 00  	bne	s7, a0, 0x140a0 <jinit_c_master_control+0x398>
   14098: 63 94 09 00  	bne	s3, zero, 0x140a0 <jinit_c_master_control+0x398>
   1409c: 63 0d 0a 00  	beq	s4, zero, 0x140b6 <jinit_c_master_control+0x3ae>
   140a0: 03 b5 0a 00  	ld	a0, 0x0(s5)
   140a4: 23 26 a5 03  	sw	s10, 0x2c(a0)
   140a8: 83 b5 0a 00  	ld	a1, 0x0(s5)
   140ac: 8c 61        	c.ld	a1, 0x0(a1)
   140ae: 23 24 25 03  	sw	s2, 0x28(a0)
   140b2: 56 85        	c.mv	a0, s5
   140b4: 82 95        	c.jalr	a1
   140b6: 63 02 04 12  	beq	s0, zero, 0x141da <jinit_c_master_control+0x4d2>
   140ba: 93 19 2c 00  	slli	s3, s8, 0x2
   140be: a2 74        	c.ldsp	s1, 0x28(sp)
   140c0: a6 99        	c.add	s3, s1
   140c2: 88 40        	c.lw	a0, 0x0(s1)
   140c4: 0a 05        	c.slli	a0, 0x2
   140c6: 13 04 f1 7f  	addi	s0, sp, 0x7ff
   140ca: 13 04 94 24  	addi	s0, s0, 0x249
   140ce: 2a 94        	c.add	s0, a0
   140d0: 08 40        	c.lw	a0, 0x0(s0)
   140d2: 01 cd        	c.beqz	a0, 0x140ea <jinit_c_master_control+0x3e2>
   140d4: 03 b5 0a 00  	ld	a0, 0x0(s5)
   140d8: 23 26 a5 03  	sw	s10, 0x2c(a0)
   140dc: 83 b5 0a 00  	ld	a1, 0x0(s5)
   140e0: 8c 61        	c.ld	a1, 0x0(a1)
   140e2: 23 24 95 03  	sw	s9, 0x28(a0)
   140e6: 56 85        	c.mv	a0, s5
   140e8: 82 95        	c.jalr	a1
   140ea: 91 04        	c.addi	s1, 0x4
   140ec: 05 45        	c.li	a0, 0x1
   140ee: 08 c0        	c.sw	a0, 0x0(s0)
   140f0: e3 99 34 fd  	bne	s1, s3, 0x140c2 <jinit_c_master_control+0x3ba>
   140f4: dd a0        	c.j	0x141da <jinit_c_master_control+0x4d2>
   140f6: e3 cf 6b f7  	blt	s7, s6, 0x14074 <jinit_c_master_control+0x36c>
   140fa: 13 05 f0 03  	addi	a0, zero, 0x3f
   140fe: e3 4b 75 f7  	blt	a0, s7, 0x14074 <jinit_c_master_control+0x36c>
   14102: e3 c9 09 f6  	blt	s3, zero, 0x14074 <jinit_c_master_control+0x36c>
   14106: 35 45        	c.li	a0, 0xd
   14108: e3 46 35 f7  	blt	a0, s3, 0x14074 <jinit_c_master_control+0x36c>
   1410c: e3 44 0a f6  	blt	s4, zero, 0x14074 <jinit_c_master_control+0x36c>
   14110: 39 45        	c.li	a0, 0xe
   14112: e3 51 aa f6  	bge	s4, a0, 0x14074 <jinit_c_master_control+0x36c>
   14116: 63 00 0b 0e  	beq	s6, zero, 0x141f6 <jinit_c_master_control+0x4ee>
   1411a: 05 45        	c.li	a0, 0x1
   1411c: e2 75        	c.ldsp	a1, 0x38(sp)
   1411e: 63 8d a5 00  	beq	a1, a0, 0x14138 <jinit_c_master_control+0x430>
   14122: 03 b5 0a 00  	ld	a0, 0x0(s5)
   14126: 23 26 a5 03  	sw	s10, 0x2c(a0)
   1412a: 83 b5 0a 00  	ld	a1, 0x0(s5)
   1412e: 8c 61        	c.ld	a1, 0x0(a1)
   14130: 23 24 25 03  	sw	s2, 0x28(a0)
   14134: 56 85        	c.mv	a0, s5
   14136: 82 95        	c.jalr	a1
   14138: 4d c0        	c.beqz	s0, 0x141da <jinit_c_master_control+0x4d2>
   1413a: 81 44        	c.li	s1, 0x0
   1413c: 93 1c 2b 00  	slli	s9, s6, 0x2
   14140: 3b 85 6b 41  	subw	a0, s7, s6
   14144: 02 15        	c.slli	a0, 0x20
   14146: 79 81        	c.srli	a0, 0x1e
   14148: ec 00        	c.addi4spn	a1, sp, 0x4c
   1414a: e6 95        	c.add	a1, s9
   1414c: 2e 95        	c.add	a0, a1
   1414e: 2a f8        	c.sdsp	a0, 0x30(sp)
   14150: 9b 8d f9 ff  	addiw	s11, s3, -0x1
   14154: a8 00        	c.addi4spn	a0, sp, 0x48
   14156: aa 9c        	c.add	s9, a0
   14158: 13 95 24 00  	slli	a0, s1, 0x2
   1415c: 86 65        	c.ldsp	a1, 0x40(sp)
   1415e: 2e 95        	c.add	a0, a1
   14160: 03 2c 45 00  	lw	s8, 0x4(a0)
   14164: 22 0c        	c.slli	s8, 0x8
   14166: 63 07 0b 00  	beq	s6, zero, 0x14174 <jinit_c_master_control+0x46c>
   1416a: a8 00        	c.addi4spn	a0, sp, 0x48
   1416c: 62 95        	c.add	a0, s8
   1416e: 08 41        	c.lw	a0, 0x0(a0)
   14170: 63 47 05 04  	blt	a0, zero, 0x141be <jinit_c_master_control+0x4b6>
   14174: 63 c0 6b 05  	blt	s7, s6, 0x141b4 <jinit_c_master_control+0x4ac>
   14178: 33 84 8c 01  	add	s0, s9, s8
   1417c: 42 75        	c.ldsp	a0, 0x30(sp)
   1417e: 2a 9c        	c.add	s8, a0
   14180: 08 40        	c.lw	a0, 0x0(s0)
   14182: 63 47 05 00  	blt	a0, zero, 0x14190 <jinit_c_master_control+0x488>
   14186: 63 97 a9 00  	bne	s3, a0, 0x14194 <jinit_c_master_control+0x48c>
   1418a: 63 00 ba 03  	beq	s4, s11, 0x141aa <jinit_c_master_control+0x4a2>
   1418e: 19 a0        	c.j	0x14194 <jinit_c_master_control+0x48c>
   14190: 63 8d 09 00  	beq	s3, zero, 0x141aa <jinit_c_master_control+0x4a2>
   14194: 03 b5 0a 00  	ld	a0, 0x0(s5)
   14198: 23 26 a5 03  	sw	s10, 0x2c(a0)
   1419c: 83 b5 0a 00  	ld	a1, 0x0(s5)
   141a0: 8c 61        	c.ld	a1, 0x0(a1)
   141a2: 23 24 25 03  	sw	s2, 0x28(a0)
   141a6: 56 85        	c.mv	a0, s5
   141a8: 82 95        	c.jalr	a1
   141aa: 23 20 44 01  	sw	s4, 0x0(s0)
   141ae: 11 04        	c.addi	s0, 0x4
   141b0: e3 18 84 fd  	bne	s0, s8, 0x14180 <jinit_c_master_control+0x478>
   141b4: 85 04        	c.addi	s1, 0x1
   141b6: 62 75        	c.ldsp	a0, 0x38(sp)
   141b8: e3 90 a4 fa  	bne	s1, a0, 0x14158 <jinit_c_master_control+0x450>
   141bc: 39 a8        	c.j	0x141da <jinit_c_master_control+0x4d2>
   141be: 03 b5 0a 00  	ld	a0, 0x0(s5)
   141c2: 23 26 a5 03  	sw	s10, 0x2c(a0)
   141c6: 83 b5 0a 00  	ld	a1, 0x0(s5)
   141ca: 8c 61        	c.ld	a1, 0x0(a1)
   141cc: 23 24 25 03  	sw	s2, 0x28(a0)
   141d0: 56 85        	c.mv	a0, s5
   141d2: 82 95        	c.jalr	a1
   141d4: e3 d2 6b fb  	bge	s7, s6, 0x14178 <jinit_c_master_control+0x470>
   141d8: f1 bf        	c.j	0x141b4 <jinit_c_master_control+0x4ac>
   141da: 82 74        	c.ldsp	s1, 0x20(sp)
   141dc: 8c 40        	c.lw	a1, 0x0(s1)
   141de: 06 6a        	c.ldsp	s4, 0x40(sp)
   141e0: 13 0a 4a 02  	addi	s4, s4, 0x24
   141e4: 1b 05 1d 00  	addiw	a0, s10, 0x1
   141e8: 22 74        	c.ldsp	s0, 0x28(sp)
   141ea: 13 04 44 02  	addi	s0, s0, 0x24
   141ee: 45 4b        	c.li	s6, 0x11
   141f0: e3 4b bd dc  	blt	s10, a1, 0x13fc6 <jinit_c_master_control+0x2be>
   141f4: 39 a0        	c.j	0x14202 <jinit_c_master_control+0x4fa>
   141f6: e3 96 0b f2  	bne	s7, zero, 0x14122 <jinit_c_master_control+0x41a>
   141fa: 3d bf        	c.j	0x14138 <jinit_c_master_control+0x430>
   141fc: c5 4c        	c.li	s9, 0x11
   141fe: 01 44        	c.li	s0, 0x0
   14200: 91 bd        	c.j	0x14054 <jinit_c_master_control+0x34c>
   14202: 03 a4 ca 12  	lw	s0, 0x12c(s5)
   14206: 03 a9 4a 04  	lw	s2, 0x44(s5)
   1420a: 62 6b        	c.ldsp	s6, 0x18(sp)
   1420c: c2 6b        	c.ldsp	s7, 0x10(sp)
   1420e: 05 cc        	c.beqz	s0, 0x14246 <jinit_c_master_control+0x53e>
   14210: 63 53 20 07  	bge	zero, s2, 0x14276 <jinit_c_master_control+0x56e>
   14214: 01 44        	c.li	s0, 0x0
   14216: a4 00        	c.addi4spn	s1, sp, 0x48
   14218: 93 09 c0 02  	addi	s3, zero, 0x2c
   1421c: 88 40        	c.lw	a0, 0x0(s1)
   1421e: 63 5b 05 00  	bge	a0, zero, 0x14234 <jinit_c_master_control+0x52c>
   14222: 03 b5 0a 00  	ld	a0, 0x0(s5)
   14226: 0c 61        	c.ld	a1, 0x0(a0)
   14228: 23 24 35 03  	sw	s3, 0x28(a0)
   1422c: 56 85        	c.mv	a0, s5
   1422e: 82 95        	c.jalr	a1
   14230: 03 a9 4a 04  	lw	s2, 0x44(s5)
   14234: 05 04        	c.addi	s0, 0x1
   14236: 93 84 04 10  	addi	s1, s1, 0x100
   1423a: e3 41 24 ff  	blt	s0, s2, 0x1421c <jinit_c_master_control+0x514>
   1423e: 25 a8        	c.j	0x14276 <jinit_c_master_control+0x56e>
   14240: 23 a6 0a 12  	sw	zero, 0x12c(s5)
   14244: 35 a8        	c.j	0x14280 <jinit_c_master_control+0x578>
   14246: 63 58 20 03  	bge	zero, s2, 0x14276 <jinit_c_master_control+0x56e>
   1424a: 01 44        	c.li	s0, 0x0
   1424c: 93 04 f1 7f  	addi	s1, sp, 0x7ff
   14250: 93 84 94 24  	addi	s1, s1, 0x249
   14254: 93 09 c0 02  	addi	s3, zero, 0x2c
   14258: 88 40        	c.lw	a0, 0x0(s1)
   1425a: 11 e9        	c.bnez	a0, 0x1426e <jinit_c_master_control+0x566>
   1425c: 03 b5 0a 00  	ld	a0, 0x0(s5)
   14260: 0c 61        	c.ld	a1, 0x0(a0)
   14262: 23 24 35 03  	sw	s3, 0x28(a0)
   14266: 56 85        	c.mv	a0, s5
   14268: 82 95        	c.jalr	a1
   1426a: 03 a9 4a 04  	lw	s2, 0x44(s5)
   1426e: 05 04        	c.addi	s0, 0x1
   14270: 91 04        	c.addi	s1, 0x4
   14272: e3 43 24 ff  	blt	s0, s2, 0x14258 <jinit_c_master_control+0x550>
   14276: 03 a5 ca 12  	lw	a0, 0x12c(s5)
   1427a: 09 c5        	c.beqz	a0, 0x14284 <jinit_c_master_control+0x57c>
   1427c: 93 84 0a 10  	addi	s1, s5, 0x100
   14280: 05 45        	c.li	a0, 0x1
   14282: 88 c0        	c.sw	a0, 0x0(s1)
   14284: 63 8b 0b 00  	beq	s7, zero, 0x1429a <jinit_c_master_control+0x592>
   14288: 03 a5 0a 10  	lw	a0, 0x100(s5)
   1428c: 15 c1        	c.beqz	a0, 0x142b0 <jinit_c_master_control+0x5a8>
   1428e: 05 45        	c.li	a0, 0x1
   14290: 23 30 ab 02  	sd	a0, 0x20(s6)
   14294: 23 26 0b 02  	sw	zero, 0x2c(s6)
   14298: 01 a8        	c.j	0x142a8 <jinit_c_master_control+0x5a0>
   1429a: 23 30 0b 02  	sd	zero, 0x20(s6)
   1429e: 03 a5 0a 10  	lw	a0, 0x100(s5)
   142a2: 23 26 0b 02  	sw	zero, 0x2c(s6)
   142a6: 11 c9        	c.beqz	a0, 0x142ba <jinit_c_master_control+0x5b2>
   142a8: 03 a5 8a 0e  	lw	a0, 0xe8(s5)
   142ac: 06 05        	c.slli	a0, 0x1
   142ae: 01 a8        	c.j	0x142be <jinit_c_master_control+0x5b6>
   142b0: 09 45        	c.li	a0, 0x2
   142b2: 23 30 ab 02  	sd	a0, 0x20(s6)
   142b6: 23 26 0b 02  	sw	zero, 0x2c(s6)
   142ba: 03 a5 8a 0e  	lw	a0, 0xe8(s5)
   142be: 23 24 ab 02  	sw	a0, 0x28(s6)
   142c2: 13 01 01 7f  	addi	sp, sp, 0x7f0
   142c6: 13 01 01 28  	addi	sp, sp, 0x280
   142ca: 6f 90 31 39  	jal	zero, 0x2de5c <__riscv_restore_12>

00000000000142ce <prepare_for_pass>:
   142ce: ef 92 51 37  	jal	t0, 0x2de42 <__riscv_save_3>
   142d2: 2a 84        	c.mv	s0, a0
   142d4: 83 34 85 1a  	ld	s1, 0x1a8(a0)
   142d8: 88 50        	c.lw	a0, 0x20(s1)
   142da: 89 45        	c.li	a1, 0x2
   142dc: 63 0b b5 0c  	beq	a0, a1, 0x143b2 <prepare_for_pass+0xe4>
   142e0: 85 45        	c.li	a1, 0x1
   142e2: 63 0f b5 06  	beq	a0, a1, 0x14360 <prepare_for_pass+0x92>
   142e6: 5d e1        	c.bnez	a0, 0x1438c <prepare_for_pass+0xbe>
   142e8: 22 85        	c.mv	a0, s0
   142ea: ef 00 40 1a  	jal	ra, 0x1448e <select_scan_parameters>
   142ee: 22 85        	c.mv	a0, s0
   142f0: ef 00 00 28  	jal	ra, 0x14570 <per_scan_setup>
   142f4: 03 25 84 0f  	lw	a0, 0xf8(s0)
   142f8: 0d e1        	c.bnez	a0, 0x1431a <prepare_for_pass+0x4c>
   142fa: 03 35 04 1d  	ld	a0, 0x1d0(s0)
   142fe: 0c 61        	c.ld	a1, 0x0(a0)
   14300: 22 85        	c.mv	a0, s0
   14302: 82 95        	c.jalr	a1
   14304: 03 35 84 1d  	ld	a0, 0x1d8(s0)
   14308: 0c 61        	c.ld	a1, 0x0(a0)
   1430a: 22 85        	c.mv	a0, s0
   1430c: 82 95        	c.jalr	a1
   1430e: 03 35 84 1b  	ld	a0, 0x1b8(s0)
   14312: 10 61        	c.ld	a2, 0x0(a0)
   14314: 22 85        	c.mv	a0, s0
   14316: 81 45        	c.li	a1, 0x0
   14318: 02 96        	c.jalr	a2
   1431a: 03 35 04 1e  	ld	a0, 0x1e0(s0)
   1431e: 0c 61        	c.ld	a1, 0x0(a0)
   14320: 22 85        	c.mv	a0, s0
   14322: 82 95        	c.jalr	a1
   14324: 03 35 84 1e  	ld	a0, 0x1e8(s0)
   14328: 10 61        	c.ld	a2, 0x0(a0)
   1432a: 83 25 04 10  	lw	a1, 0x100(s0)
   1432e: 22 85        	c.mv	a0, s0
   14330: 02 96        	c.jalr	a2
   14332: 03 35 04 1c  	ld	a0, 0x1c0(s0)
   14336: 8c 54        	c.lw	a1, 0x28(s1)
   14338: 10 61        	c.ld	a2, 0x0(a0)
   1433a: 13 a5 25 00  	slti	a0, a1, 0x2
   1433e: 7d 15        	c.addi	a0, -0x1
   14340: 93 75 35 00  	andi	a1, a0, 0x3
   14344: 22 85        	c.mv	a0, s0
   14346: 02 96        	c.jalr	a2
   14348: 03 35 04 1b  	ld	a0, 0x1b0(s0)
   1434c: 10 61        	c.ld	a2, 0x0(a0)
   1434e: 22 85        	c.mv	a0, s0
   14350: 81 45        	c.li	a1, 0x0
   14352: 02 96        	c.jalr	a2
   14354: 03 25 04 10  	lw	a0, 0x100(s0)
   14358: 51 ed        	c.bnez	a0, 0x143f4 <prepare_for_pass+0x126>
   1435a: 05 45        	c.li	a0, 0x1
   1435c: 88 cc        	c.sw	a0, 0x18(s1)
   1435e: 69 a8        	c.j	0x143f8 <prepare_for_pass+0x12a>
   14360: 22 85        	c.mv	a0, s0
   14362: ef 00 c0 12  	jal	ra, 0x1448e <select_scan_parameters>
   14366: 22 85        	c.mv	a0, s0
   14368: ef 00 80 20  	jal	ra, 0x14570 <per_scan_setup>
   1436c: 03 25 44 19  	lw	a0, 0x194(s0)
   14370: 15 c5        	c.beqz	a0, 0x1439c <prepare_for_pass+0xce>
   14372: 03 35 84 1e  	ld	a0, 0x1e8(s0)
   14376: 10 61        	c.ld	a2, 0x0(a0)
   14378: 85 45        	c.li	a1, 0x1
   1437a: 22 85        	c.mv	a0, s0
   1437c: 02 96        	c.jalr	a2
   1437e: 03 35 04 1c  	ld	a0, 0x1c0(s0)
   14382: 10 61        	c.ld	a2, 0x0(a0)
   14384: 89 45        	c.li	a1, 0x2
   14386: 22 85        	c.mv	a0, s0
   14388: 02 96        	c.jalr	a2
   1438a: ad a0        	c.j	0x143f4 <prepare_for_pass+0x126>
   1438c: 08 60        	c.ld	a0, 0x0(s0)
   1438e: 0c 61        	c.ld	a1, 0x0(a0)
   14390: 13 06 f0 02  	addi	a2, zero, 0x2f
   14394: 10 d5        	c.sw	a2, 0x28(a0)
   14396: 22 85        	c.mv	a0, s0
   14398: 82 95        	c.jalr	a1
   1439a: b9 a8        	c.j	0x143f8 <prepare_for_pass+0x12a>
   1439c: 03 25 c4 19  	lw	a0, 0x19c(s0)
   143a0: 69 d9        	c.beqz	a0, 0x14372 <prepare_for_pass+0xa4>
   143a2: 03 25 c4 0f  	lw	a0, 0xfc(s0)
   143a6: 71 f5        	c.bnez	a0, 0x14372 <prepare_for_pass+0xa4>
   143a8: c8 50        	c.lw	a0, 0x24(s1)
   143aa: 89 45        	c.li	a1, 0x2
   143ac: 8c d0        	c.sw	a1, 0x20(s1)
   143ae: 05 05        	c.addi	a0, 0x1
   143b0: c8 d0        	c.sw	a0, 0x24(s1)
   143b2: 03 25 04 10  	lw	a0, 0x100(s0)
   143b6: 19 e5        	c.bnez	a0, 0x143c4 <prepare_for_pass+0xf6>
   143b8: 22 85        	c.mv	a0, s0
   143ba: ef 00 40 0d  	jal	ra, 0x1448e <select_scan_parameters>
   143be: 22 85        	c.mv	a0, s0
   143c0: ef 00 00 1b  	jal	ra, 0x14570 <per_scan_setup>
   143c4: 03 35 84 1e  	ld	a0, 0x1e8(s0)
   143c8: 10 61        	c.ld	a2, 0x0(a0)
   143ca: 22 85        	c.mv	a0, s0
   143cc: 81 45        	c.li	a1, 0x0
   143ce: 02 96        	c.jalr	a2
   143d0: 03 35 04 1c  	ld	a0, 0x1c0(s0)
   143d4: 10 61        	c.ld	a2, 0x0(a0)
   143d6: 89 45        	c.li	a1, 0x2
   143d8: 22 85        	c.mv	a0, s0
   143da: 02 96        	c.jalr	a2
   143dc: c8 54        	c.lw	a0, 0x2c(s1)
   143de: 11 e5        	c.bnez	a0, 0x143ea <prepare_for_pass+0x11c>
   143e0: 03 35 84 1c  	ld	a0, 0x1c8(s0)
   143e4: 0c 69        	c.ld	a1, 0x10(a0)
   143e6: 22 85        	c.mv	a0, s0
   143e8: 82 95        	c.jalr	a1
   143ea: 03 35 84 1c  	ld	a0, 0x1c8(s0)
   143ee: 0c 6d        	c.ld	a1, 0x18(a0)
   143f0: 22 85        	c.mv	a0, s0
   143f2: 82 95        	c.jalr	a1
   143f4: 23 ac 04 00  	sw	zero, 0x18(s1)
   143f8: 88 54        	c.lw	a0, 0x28(s1)
   143fa: cc 50        	c.lw	a1, 0x24(s1)
   143fc: 10 68        	c.ld	a2, 0x10(s0)
   143fe: 9b 06 f5 ff  	addiw	a3, a0, -0x1
   14402: ad 8e        	c.xor	a3, a1
   14404: 93 b6 16 00  	sltiu	a3, a3, 0x1
   14408: d4 cc        	c.sw	a3, 0x1c(s1)
   1440a: 19 c2        	c.beqz	a2, 0x14410 <prepare_for_pass+0x142>
   1440c: 0c ce        	c.sw	a1, 0x18(a2)
   1440e: 48 ce        	c.sw	a0, 0x1c(a2)
   14410: 6f 90 91 26  	jal	zero, 0x2de78 <__riscv_restore_3>

0000000000014414 <pass_startup>:
   14414: 41 11        	c.addi	sp, -0x10
   14416: 06 e4        	c.sdsp	ra, 0x8(sp)
   14418: 22 e0        	c.sdsp	s0, 0x0(sp)
   1441a: 2a 84        	c.mv	s0, a0
   1441c: 03 35 85 1c  	ld	a0, 0x1c8(a0)
   14420: 83 35 84 1a  	ld	a1, 0x1a8(s0)
   14424: 10 69        	c.ld	a2, 0x10(a0)
   14426: 23 ac 05 00  	sw	zero, 0x18(a1)
   1442a: 22 85        	c.mv	a0, s0
   1442c: 02 96        	c.jalr	a2
   1442e: 03 35 84 1c  	ld	a0, 0x1c8(s0)
   14432: 1c 6d        	c.ld	a5, 0x18(a0)
   14434: 22 85        	c.mv	a0, s0
   14436: a2 60        	c.ldsp	ra, 0x8(sp)
   14438: 02 64        	c.ldsp	s0, 0x0(sp)
   1443a: 41 01        	c.addi	sp, 0x10
   1443c: 82 87        	c.jr	a5

000000000001443e <finish_pass_master>:
   1443e: ef 92 51 20  	jal	t0, 0x2de42 <__riscv_save_3>
   14442: 2a 84        	c.mv	s0, a0
   14444: 03 35 85 1e  	ld	a0, 0x1e8(a0)
   14448: 83 34 84 1a  	ld	s1, 0x1a8(s0)
   1444c: 0c 69        	c.ld	a1, 0x10(a0)
   1444e: 22 85        	c.mv	a0, s0
   14450: 82 95        	c.jalr	a1
   14452: 88 50        	c.lw	a0, 0x20(s1)
   14454: 89 45        	c.li	a1, 0x2
   14456: 63 0f b5 00  	beq	a0, a1, 0x14474 <finish_pass_master+0x36>
   1445a: 85 45        	c.li	a1, 0x1
   1445c: 63 09 b5 00  	beq	a0, a1, 0x1446e <finish_pass_master+0x30>
   14460: 15 e1        	c.bnez	a0, 0x14484 <finish_pass_master+0x46>
   14462: 03 25 04 10  	lw	a0, 0x100(s0)
   14466: 89 45        	c.li	a1, 0x2
   14468: 8c d0        	c.sw	a1, 0x20(s1)
   1446a: 09 ed        	c.bnez	a0, 0x14484 <finish_pass_master+0x46>
   1446c: 09 a8        	c.j	0x1447e <finish_pass_master+0x40>
   1446e: 09 45        	c.li	a0, 0x2
   14470: 88 d0        	c.sw	a0, 0x20(s1)
   14472: 09 a8        	c.j	0x14484 <finish_pass_master+0x46>
   14474: 03 25 04 10  	lw	a0, 0x100(s0)
   14478: 19 c1        	c.beqz	a0, 0x1447e <finish_pass_master+0x40>
   1447a: 05 45        	c.li	a0, 0x1
   1447c: 88 d0        	c.sw	a0, 0x20(s1)
   1447e: c8 54        	c.lw	a0, 0x2c(s1)
   14480: 05 05        	c.addi	a0, 0x1
   14482: c8 d4        	c.sw	a0, 0x2c(s1)
   14484: c8 50        	c.lw	a0, 0x24(s1)
   14486: 05 05        	c.addi	a0, 0x1
   14488: c8 d0        	c.sw	a0, 0x24(s1)
   1448a: 6f 90 f1 1e  	jal	zero, 0x2de78 <__riscv_restore_3>

000000000001448e <select_scan_parameters>:
   1448e: ef 92 11 1a  	jal	t0, 0x2de2e <__riscv_save_7>
   14492: 2a 8a        	c.mv	s4, a0
   14494: 83 39 05 0f  	ld	s3, 0xf0(a0)
   14498: 63 8c 09 06  	beq	s3, zero, 0x14510 <select_scan_parameters+0x82>
   1449c: 03 35 8a 1a  	ld	a0, 0x1a8(s4)
   144a0: 03 29 c5 02  	lw	s2, 0x2c(a0)
   144a4: 93 05 40 02  	addi	a1, zero, 0x24
   144a8: 4a 85        	c.mv	a0, s2
   144aa: ef 90 f1 1d  	jal	ra, 0x2de88 <__muldi3>
   144ae: 4e 95        	c.add	a0, s3
   144b0: 03 2b 05 00  	lw	s6, 0x0(a0)
   144b4: 23 2e 6a 13  	sw	s6, 0x13c(s4)
   144b8: 63 5b 60 03  	bge	zero, s6, 0x144ee <select_scan_parameters+0x60>
   144bc: 83 3a 0a 05  	ld	s5, 0x50(s4)
   144c0: 93 05 40 02  	addi	a1, zero, 0x24
   144c4: 4a 85        	c.mv	a0, s2
   144c6: ef 90 31 1c  	jal	ra, 0x2de88 <__muldi3>
   144ca: 4e 95        	c.add	a0, s3
   144cc: 13 04 45 00  	addi	s0, a0, 0x4
   144d0: 93 04 0a 14  	addi	s1, s4, 0x140
   144d4: 0a 0b        	c.slli	s6, 0x2
   144d6: 22 9b        	c.add	s6, s0
   144d8: 08 40        	c.lw	a0, 0x0(s0)
   144da: 93 05 00 06  	addi	a1, zero, 0x60
   144de: ef 90 b1 1a  	jal	ra, 0x2de88 <__muldi3>
   144e2: 56 95        	c.add	a0, s5
   144e4: 88 e0        	c.sd	a0, 0x0(s1)
   144e6: 11 04        	c.addi	s0, 0x4
   144e8: a1 04        	c.addi	s1, 0x8
   144ea: e3 17 64 ff  	bne	s0, s6, 0x144d8 <select_scan_parameters+0x4a>
   144ee: 93 05 40 02  	addi	a1, zero, 0x24
   144f2: 4a 85        	c.mv	a0, s2
   144f4: ef 90 51 19  	jal	ra, 0x2de88 <__muldi3>
   144f8: 4e 95        	c.add	a0, s3
   144fa: 4c 49        	c.lw	a1, 0x14(a0)
   144fc: 10 4d        	c.lw	a2, 0x18(a0)
   144fe: 54 4d        	c.lw	a3, 0x1c(a0)
   14500: 08 51        	c.lw	a0, 0x20(a0)
   14502: 23 2a ba 18  	sw	a1, 0x194(s4)
   14506: 23 2c ca 18  	sw	a2, 0x198(s4)
   1450a: 23 2e da 18  	sw	a3, 0x19c(s4)
   1450e: a9 a8        	c.j	0x14568 <select_scan_parameters+0xda>
   14510: 03 25 4a 04  	lw	a0, 0x44(s4)
   14514: 95 45        	c.li	a1, 0x5
   14516: 63 42 b5 02  	blt	a0, a1, 0x1453a <select_scan_parameters+0xac>
   1451a: 83 35 0a 00  	ld	a1, 0x0(s4)
   1451e: c8 d5        	c.sw	a0, 0x2c(a1)
   14520: 03 35 0a 00  	ld	a0, 0x0(s4)
   14524: 61 46        	c.li	a2, 0x18
   14526: 90 d5        	c.sw	a2, 0x28(a1)
   14528: 91 45        	c.li	a1, 0x4
   1452a: 0c d9        	c.sw	a1, 0x30(a0)
   1452c: 03 35 0a 00  	ld	a0, 0x0(s4)
   14530: 0c 61        	c.ld	a1, 0x0(a0)
   14532: 52 85        	c.mv	a0, s4
   14534: 82 95        	c.jalr	a1
   14536: 03 25 4a 04  	lw	a0, 0x44(s4)
   1453a: 23 2e aa 12  	sw	a0, 0x13c(s4)
   1453e: 63 5e a0 00  	bge	zero, a0, 0x1455a <select_scan_parameters+0xcc>
   14542: 83 35 0a 05  	ld	a1, 0x50(s4)
   14546: 13 06 0a 14  	addi	a2, s4, 0x140
   1454a: 0e 05        	c.slli	a0, 0x3
   1454c: 32 95        	c.add	a0, a2
   1454e: 0c e2        	c.sd	a1, 0x0(a2)
   14550: 21 06        	c.addi	a2, 0x8
   14552: 93 85 05 06  	addi	a1, a1, 0x60
   14556: e3 1c a6 fe  	bne	a2, a0, 0x1454e <select_scan_parameters+0xc0>
   1455a: 01 45        	c.li	a0, 0x0
   1455c: 93 05 f0 03  	addi	a1, zero, 0x3f
   14560: 23 3c ba 18  	sd	a1, 0x198(s4)
   14564: 23 2a 0a 18  	sw	zero, 0x194(s4)
   14568: 23 20 aa 1a  	sw	a0, 0x1a0(s4)
   1456c: 6f 90 11 10  	jal	zero, 0x2de6c <__riscv_restore_7>

0000000000014570 <per_scan_setup>:
   14570: ef 92 51 0b  	jal	t0, 0x2de24 <__riscv_save_9>
   14574: 2a 84        	c.mv	s0, a0
   14576: 03 25 c5 13  	lw	a0, 0x13c(a0)
   1457a: 05 49        	c.li	s2, 0x1
   1457c: 63 16 25 05  	bne	a0, s2, 0x145c8 <per_scan_setup+0x58>
   14580: 83 34 04 14  	ld	s1, 0x140(s0)
   14584: c8 4c        	c.lw	a0, 0x1c(s1)
   14586: 8c 50        	c.lw	a1, 0x20(s1)
   14588: 23 20 a4 16  	sw	a0, 0x160(s0)
   1458c: 13 95 05 02  	slli	a0, a1, 0x20
   14590: 01 91        	c.srli	a0, 0x20
   14592: 23 22 b4 16  	sw	a1, 0x164(s0)
   14596: 93 15 09 02  	slli	a1, s2, 0x20
   1459a: 13 86 15 00  	addi	a2, a1, 0x1
   1459e: 90 fc        	c.sd	a2, 0x38(s1)
   145a0: 83 a9 c4 00  	lw	s3, 0xc(s1)
   145a4: 23 aa 24 03  	sw	s2, 0x34(s1)
   145a8: a1 05        	c.addi	a1, 0x8
   145aa: ac e0        	c.sd	a1, 0x40(s1)
   145ac: 93 95 09 02  	slli	a1, s3, 0x20
   145b0: 81 91        	c.srli	a1, 0x20
   145b2: ef 90 b1 14  	jal	ra, 0x2defc <__umoddi3>
   145b6: 11 c1        	c.beqz	a0, 0x145ba <per_scan_setup+0x4a>
   145b8: aa 89        	c.mv	s3, a0
   145ba: 23 a4 34 05  	sw	s3, 0x48(s1)
   145be: 23 24 24 17  	sw	s2, 0x168(s0)
   145c2: 23 26 04 16  	sw	zero, 0x16c(s0)
   145c6: 11 a2        	c.j	0x146ca <per_scan_setup+0x15a>
   145c8: 9b 05 b5 ff  	addiw	a1, a0, -0x5
   145cc: 6d 56        	c.li	a2, -0x5
   145ce: 63 6d b6 00  	bltu	a2, a1, 0x145e8 <per_scan_setup+0x78>
   145d2: 0c 60        	c.ld	a1, 0x0(s0)
   145d4: c8 d5        	c.sw	a0, 0x2c(a1)
   145d6: 08 60        	c.ld	a0, 0x0(s0)
   145d8: 61 46        	c.li	a2, 0x18
   145da: 90 d5        	c.sw	a2, 0x28(a1)
   145dc: 91 45        	c.li	a1, 0x4
   145de: 0c d9        	c.sw	a1, 0x30(a0)
   145e0: 08 60        	c.ld	a0, 0x0(s0)
   145e2: 0c 61        	c.ld	a1, 0x0(a0)
   145e4: 22 85        	c.mv	a0, s0
   145e6: 82 95        	c.jalr	a1
   145e8: 83 25 04 13  	lw	a1, 0x130(s0)
   145ec: 03 65 84 02  	lwu	a0, 0x28(s0)
   145f0: 9b 95 35 00  	slliw	a1, a1, 0x3
   145f4: ef 40 b0 38  	jal	ra, 0x1917e <jdiv_round_up>
   145f8: 83 25 44 13  	lw	a1, 0x134(s0)
   145fc: 03 66 c4 02  	lwu	a2, 0x2c(s0)
   14600: 23 20 a4 16  	sw	a0, 0x160(s0)
   14604: 9b 95 35 00  	slliw	a1, a1, 0x3
   14608: 32 85        	c.mv	a0, a2
   1460a: ef 40 50 37  	jal	ra, 0x1917e <jdiv_round_up>
   1460e: 83 25 c4 13  	lw	a1, 0x13c(s0)
   14612: 23 22 a4 16  	sw	a0, 0x164(s0)
   14616: 23 24 04 16  	sw	zero, 0x168(s0)
   1461a: 63 58 b0 0a  	bge	zero, a1, 0x146ca <per_scan_setup+0x15a>
   1461e: 81 44        	c.li	s1, 0x0
   14620: 2d 4b        	c.li	s6, 0xb
   14622: 85 4b        	c.li	s7, 0x1
   14624: 13 95 34 00  	slli	a0, s1, 0x3
   14628: 22 95        	c.add	a0, s0
   1462a: 03 3c 05 14  	ld	s8, 0x140(a0)
   1462e: 83 2a 8c 00  	lw	s5, 0x8(s8)
   14632: 83 29 cc 00  	lw	s3, 0xc(s8)
   14636: 13 95 0a 02  	slli	a0, s5, 0x20
   1463a: 13 5a 05 02  	srli	s4, a0, 0x20
   1463e: 23 2a 5c 03  	sw	s5, 0x34(s8)
   14642: 23 2c 3c 03  	sw	s3, 0x38(s8)
   14646: 4e 85        	c.mv	a0, s3
   14648: d6 85        	c.mv	a1, s5
   1464a: ef 90 f1 03  	jal	ra, 0x2de88 <__muldi3>
   1464e: 2a 89        	c.mv	s2, a0
   14650: 03 65 cc 01  	lwu	a0, 0x1c(s8)
   14654: 93 95 3a 00  	slli	a1, s5, 0x3
   14658: 23 20 bc 04  	sw	a1, 0x40(s8)
   1465c: 23 2e 2c 03  	sw	s2, 0x3c(s8)
   14660: d2 85        	c.mv	a1, s4
   14662: ef 90 b1 09  	jal	ra, 0x2defc <__umoddi3>
   14666: 11 c1        	c.beqz	a0, 0x1466a <per_scan_setup+0xfa>
   14668: aa 8a        	c.mv	s5, a0
   1466a: 03 65 0c 02  	lwu	a0, 0x20(s8)
   1466e: 23 22 5c 05  	sw	s5, 0x44(s8)
   14672: 93 95 09 02  	slli	a1, s3, 0x20
   14676: 81 91        	c.srli	a1, 0x20
   14678: ef 90 51 08  	jal	ra, 0x2defc <__umoddi3>
   1467c: 11 c1        	c.beqz	a0, 0x14680 <per_scan_setup+0x110>
   1467e: aa 89        	c.mv	s3, a0
   14680: 03 25 84 16  	lw	a0, 0x168(s0)
   14684: 3b 05 25 01  	addw	a0, a0, s2
   14688: 23 24 3c 05  	sw	s3, 0x48(s8)
   1468c: 63 48 65 01  	blt	a0, s6, 0x1469c <per_scan_setup+0x12c>
   14690: 08 60        	c.ld	a0, 0x0(s0)
   14692: 0c 61        	c.ld	a1, 0x0(a0)
   14694: 23 24 65 03  	sw	s6, 0x28(a0)
   14698: 22 85        	c.mv	a0, s0
   1469a: 82 95        	c.jalr	a1
   1469c: 1b 05 09 00  	addiw	a0, s2, 0x0
   146a0: 63 50 a0 02  	bge	zero, a0, 0x146c0 <per_scan_setup+0x150>
   146a4: 05 05        	c.addi	a0, 0x1
   146a6: 83 25 84 16  	lw	a1, 0x168(s0)
   146aa: 13 86 15 00  	addi	a2, a1, 0x1
   146ae: 23 24 c4 16  	sw	a2, 0x168(s0)
   146b2: 8a 05        	c.slli	a1, 0x2
   146b4: a2 95        	c.add	a1, s0
   146b6: 7d 35        	c.addiw	a0, -0x1
   146b8: 23 a6 95 16  	sw	s1, 0x16c(a1)
   146bc: e3 e5 ab fe  	bltu	s7, a0, 0x146a6 <per_scan_setup+0x136>
   146c0: 03 25 c4 13  	lw	a0, 0x13c(s0)
   146c4: 85 04        	c.addi	s1, 0x1
   146c6: e3 cf a4 f4  	blt	s1, a0, 0x14624 <per_scan_setup+0xb4>
   146ca: 83 25 44 11  	lw	a1, 0x114(s0)
   146ce: 63 5d b0 00  	bge	zero, a1, 0x146e8 <per_scan_setup+0x178>
   146d2: 03 65 04 16  	lwu	a0, 0x160(s0)
   146d6: ef 90 21 7b  	jal	ra, 0x2de88 <__muldi3>
   146da: c1 65        	c.lui	a1, 0x10
   146dc: fd 35        	c.addiw	a1, -0x1
   146de: 63 63 b5 00  	bltu	a0, a1, 0x146e4 <per_scan_setup+0x174>
   146e2: 2e 85        	c.mv	a0, a1
   146e4: 23 28 a4 10  	sw	a0, 0x110(s0)
   146e8: 6f 90 e1 77  	jal	zero, 0x2de66 <__riscv_restore_9>

00000000000146ec <jinit_marker_writer>:
   146ec: ef 92 81 76  	jal	t0, 0x2de54 <__riscv_save_1>
   146f0: 2a 84        	c.mv	s0, a0
   146f2: 08 65        	c.ld	a0, 0x8(a0)
   146f4: 14 61        	c.ld	a3, 0x0(a0)
   146f6: 85 45        	c.li	a1, 0x1
   146f8: 13 06 00 03  	addi	a2, zero, 0x30
   146fc: 22 85        	c.mv	a0, s0
   146fe: 82 96        	c.jalr	a3
   14700: 23 34 a4 1c  	sd	a0, 0x1c8(s0)
   14704: b7 45 01 00  	lui	a1, 0x14
   14708: 93 85 45 74  	addi	a1, a1, 0x744
   1470c: 0c e1        	c.sd	a1, 0x0(a0)
   1470e: b7 45 01 00  	lui	a1, 0x14
   14712: 93 85 a5 7a  	addi	a1, a1, 0x7aa
   14716: 0c e5        	c.sd	a1, 0x8(a0)
   14718: b7 55 01 00  	lui	a1, 0x15
   1471c: 93 85 45 93  	addi	a1, a1, -0x6cc
   14720: 0c e9        	c.sd	a1, 0x10(a0)
   14722: b7 55 01 00  	lui	a1, 0x15
   14726: 93 85 65 a3  	addi	a1, a1, -0x5ca
   1472a: 0c ed        	c.sd	a1, 0x18(a0)
   1472c: b7 55 01 00  	lui	a1, 0x15
   14730: 93 85 65 ba  	addi	a1, a1, -0x45a
   14734: 0c f1        	c.sd	a1, 0x20(a0)
   14736: b7 55 01 00  	lui	a1, 0x15
   1473a: 93 85 65 bc  	addi	a1, a1, -0x43a
   1473e: 0c f5        	c.sd	a1, 0x28(a0)
   14740: 6f 90 e1 73  	jal	zero, 0x2de7e <__riscv_restore_1>

0000000000014744 <write_any_marker>:
   14744: 41 67        	c.lui	a4, 0x10
   14746: 75 37        	c.addiw	a4, -0x3
   14748: 63 60 d7 06  	bltu	a4, a3, 0x147a8 <write_any_marker+0x64>
   1474c: ef 92 c1 6e  	jal	t0, 0x2de38 <__riscv_save_5>
   14750: 36 89        	c.mv	s2, a3
   14752: 32 84        	c.mv	s0, a2
   14754: ae 89        	c.mv	s3, a1
   14756: 2a 8a        	c.mv	s4, a0
   14758: 93 05 f0 0f  	addi	a1, zero, 0xff
   1475c: ef 00 e0 4f  	jal	ra, 0x14c5a <emit_byte>
   14760: 52 85        	c.mv	a0, s4
   14762: ce 85        	c.mv	a1, s3
   14764: ef 00 60 4f  	jal	ra, 0x14c5a <emit_byte>
   14768: 93 04 29 00  	addi	s1, s2, 0x2
   1476c: 9b d5 84 00  	srliw	a1, s1, 0x8
   14770: 52 85        	c.mv	a0, s4
   14772: ef 00 80 4e  	jal	ra, 0x14c5a <emit_byte>
   14776: 93 f5 f4 0f  	andi	a1, s1, 0xff
   1477a: 52 85        	c.mv	a0, s4
   1477c: ef 00 e0 4d  	jal	ra, 0x14c5a <emit_byte>
   14780: 63 01 09 02  	beq	s2, zero, 0x147a2 <write_any_marker+0x5e>
   14784: 7d 19        	c.addi	s2, -0x1
   14786: 02 19        	c.slli	s2, 0x20
   14788: 13 55 09 02  	srli	a0, s2, 0x20
   1478c: 22 95        	c.add	a0, s0
   1478e: 93 04 15 00  	addi	s1, a0, 0x1
   14792: 83 45 04 00  	lbu	a1, 0x0(s0)
   14796: 52 85        	c.mv	a0, s4
   14798: ef 00 20 4c  	jal	ra, 0x14c5a <emit_byte>
   1479c: 05 04        	c.addi	s0, 0x1
   1479e: e3 1a 94 fe  	bne	s0, s1, 0x14792 <write_any_marker+0x4e>
   147a2: 6f 90 01 6d  	jal	zero, 0x2de72 <__riscv_restore_5>
   147a6: 09 a0        	c.j	0x147a8 <write_any_marker+0x64>
   147a8: 82 80        	c.jr	ra

00000000000147aa <write_file_header>:
   147aa: 01 11        	c.addi	sp, -0x20
   147ac: 06 ec        	c.sdsp	ra, 0x18(sp)
   147ae: 22 e8        	c.sdsp	s0, 0x10(sp)
   147b0: 26 e4        	c.sdsp	s1, 0x8(sp)
   147b2: 2a 84        	c.mv	s0, a0
   147b4: 93 05 f0 0f  	addi	a1, zero, 0xff
   147b8: ef 00 20 4a  	jal	ra, 0x14c5a <emit_byte>
   147bc: 93 05 80 0d  	addi	a1, zero, 0xd8
   147c0: 22 85        	c.mv	a0, s0
   147c2: ef 00 80 49  	jal	ra, 0x14c5a <emit_byte>
   147c6: 03 25 84 11  	lw	a0, 0x118(s0)
   147ca: 45 c9        	c.beqz	a0, 0x1487a <write_file_header+0xd0>
   147cc: 93 05 f0 0f  	addi	a1, zero, 0xff
   147d0: 22 85        	c.mv	a0, s0
   147d2: ef 00 80 48  	jal	ra, 0x14c5a <emit_byte>
   147d6: 93 05 00 0e  	addi	a1, zero, 0xe0
   147da: 22 85        	c.mv	a0, s0
   147dc: ef 00 e0 47  	jal	ra, 0x14c5a <emit_byte>
   147e0: 22 85        	c.mv	a0, s0
   147e2: 81 45        	c.li	a1, 0x0
   147e4: ef 00 60 47  	jal	ra, 0x14c5a <emit_byte>
   147e8: c1 45        	c.li	a1, 0x10
   147ea: 22 85        	c.mv	a0, s0
   147ec: ef 00 e0 46  	jal	ra, 0x14c5a <emit_byte>
   147f0: 93 05 a0 04  	addi	a1, zero, 0x4a
   147f4: 22 85        	c.mv	a0, s0
   147f6: ef 00 40 46  	jal	ra, 0x14c5a <emit_byte>
   147fa: 93 05 60 04  	addi	a1, zero, 0x46
   147fe: 22 85        	c.mv	a0, s0
   14800: ef 00 a0 45  	jal	ra, 0x14c5a <emit_byte>
   14804: 93 05 90 04  	addi	a1, zero, 0x49
   14808: 22 85        	c.mv	a0, s0
   1480a: ef 00 00 45  	jal	ra, 0x14c5a <emit_byte>
   1480e: 93 05 60 04  	addi	a1, zero, 0x46
   14812: 22 85        	c.mv	a0, s0
   14814: ef 00 60 44  	jal	ra, 0x14c5a <emit_byte>
   14818: 22 85        	c.mv	a0, s0
   1481a: 81 45        	c.li	a1, 0x0
   1481c: ef 00 e0 43  	jal	ra, 0x14c5a <emit_byte>
   14820: 85 45        	c.li	a1, 0x1
   14822: 22 85        	c.mv	a0, s0
   14824: ef 00 60 43  	jal	ra, 0x14c5a <emit_byte>
   14828: 85 45        	c.li	a1, 0x1
   1482a: 22 85        	c.mv	a0, s0
   1482c: ef 00 e0 42  	jal	ra, 0x14c5a <emit_byte>
   14830: 83 45 c4 11  	lbu	a1, 0x11c(s0)
   14834: 22 85        	c.mv	a0, s0
   14836: ef 00 40 42  	jal	ra, 0x14c5a <emit_byte>
   1483a: 83 54 e4 11  	lhu	s1, 0x11e(s0)
   1483e: 93 d5 84 00  	srli	a1, s1, 0x8
   14842: 22 85        	c.mv	a0, s0
   14844: ef 00 60 41  	jal	ra, 0x14c5a <emit_byte>
   14848: 93 f5 f4 0f  	andi	a1, s1, 0xff
   1484c: 22 85        	c.mv	a0, s0
   1484e: ef 00 c0 40  	jal	ra, 0x14c5a <emit_byte>
   14852: 83 54 04 12  	lhu	s1, 0x120(s0)
   14856: 93 d5 84 00  	srli	a1, s1, 0x8
   1485a: 22 85        	c.mv	a0, s0
   1485c: ef 00 e0 3f  	jal	ra, 0x14c5a <emit_byte>
   14860: 93 f5 f4 0f  	andi	a1, s1, 0xff
   14864: 22 85        	c.mv	a0, s0
   14866: ef 00 40 3f  	jal	ra, 0x14c5a <emit_byte>
   1486a: 22 85        	c.mv	a0, s0
   1486c: 81 45        	c.li	a1, 0x0
   1486e: ef 00 c0 3e  	jal	ra, 0x14c5a <emit_byte>
   14872: 22 85        	c.mv	a0, s0
   14874: 81 45        	c.li	a1, 0x0
   14876: ef 00 40 3e  	jal	ra, 0x14c5a <emit_byte>
   1487a: 03 25 44 12  	lw	a0, 0x124(s0)
   1487e: 59 c9        	c.beqz	a0, 0x14914 <write_file_header+0x16a>
   14880: 93 05 f0 0f  	addi	a1, zero, 0xff
   14884: 22 85        	c.mv	a0, s0
   14886: ef 00 40 3d  	jal	ra, 0x14c5a <emit_byte>
   1488a: 93 05 e0 0e  	addi	a1, zero, 0xee
   1488e: 22 85        	c.mv	a0, s0
   14890: ef 00 a0 3c  	jal	ra, 0x14c5a <emit_byte>
   14894: 22 85        	c.mv	a0, s0
   14896: 81 45        	c.li	a1, 0x0
   14898: ef 00 20 3c  	jal	ra, 0x14c5a <emit_byte>
   1489c: b9 45        	c.li	a1, 0xe
   1489e: 22 85        	c.mv	a0, s0
   148a0: ef 00 a0 3b  	jal	ra, 0x14c5a <emit_byte>
   148a4: 93 05 10 04  	addi	a1, zero, 0x41
   148a8: 22 85        	c.mv	a0, s0
   148aa: ef 00 00 3b  	jal	ra, 0x14c5a <emit_byte>
   148ae: 93 05 40 06  	addi	a1, zero, 0x64
   148b2: 22 85        	c.mv	a0, s0
   148b4: ef 00 60 3a  	jal	ra, 0x14c5a <emit_byte>
   148b8: 93 05 f0 06  	addi	a1, zero, 0x6f
   148bc: 22 85        	c.mv	a0, s0
   148be: ef 00 c0 39  	jal	ra, 0x14c5a <emit_byte>
   148c2: 93 05 20 06  	addi	a1, zero, 0x62
   148c6: 22 85        	c.mv	a0, s0
   148c8: ef 00 20 39  	jal	ra, 0x14c5a <emit_byte>
   148cc: 93 05 50 06  	addi	a1, zero, 0x65
   148d0: 22 85        	c.mv	a0, s0
   148d2: ef 00 80 38  	jal	ra, 0x14c5a <emit_byte>
   148d6: 22 85        	c.mv	a0, s0
   148d8: 81 45        	c.li	a1, 0x0
   148da: ef 00 00 38  	jal	ra, 0x14c5a <emit_byte>
   148de: 93 05 40 06  	addi	a1, zero, 0x64
   148e2: 22 85        	c.mv	a0, s0
   148e4: ef 00 60 37  	jal	ra, 0x14c5a <emit_byte>
   148e8: 22 85        	c.mv	a0, s0
   148ea: 81 45        	c.li	a1, 0x0
   148ec: ef 00 e0 36  	jal	ra, 0x14c5a <emit_byte>
   148f0: 22 85        	c.mv	a0, s0
   148f2: 81 45        	c.li	a1, 0x0
   148f4: ef 00 60 36  	jal	ra, 0x14c5a <emit_byte>
   148f8: 22 85        	c.mv	a0, s0
   148fa: 81 45        	c.li	a1, 0x0
   148fc: ef 00 e0 35  	jal	ra, 0x14c5a <emit_byte>
   14900: 22 85        	c.mv	a0, s0
   14902: 81 45        	c.li	a1, 0x0
   14904: ef 00 60 35  	jal	ra, 0x14c5a <emit_byte>
   14908: 28 44        	c.lw	a0, 0x48(s0)
   1490a: 8d 45        	c.li	a1, 0x3
   1490c: 63 19 b5 00  	bne	a0, a1, 0x1491e <write_file_header+0x174>
   14910: 85 45        	c.li	a1, 0x1
   14912: 11 a8        	c.j	0x14926 <write_file_header+0x17c>
   14914: e2 60        	c.ldsp	ra, 0x18(sp)
   14916: 42 64        	c.ldsp	s0, 0x10(sp)
   14918: a2 64        	c.ldsp	s1, 0x8(sp)
   1491a: 05 61        	c.addi16sp	sp, 0x20
   1491c: 82 80        	c.jr	ra
   1491e: 6d 15        	c.addi	a0, -0x5
   14920: 93 35 15 00  	sltiu	a1, a0, 0x1
   14924: 86 05        	c.slli	a1, 0x1
   14926: 22 85        	c.mv	a0, s0
   14928: e2 60        	c.ldsp	ra, 0x18(sp)
   1492a: 42 64        	c.ldsp	s0, 0x10(sp)
   1492c: a2 64        	c.ldsp	s1, 0x8(sp)
   1492e: 05 61        	c.addi16sp	sp, 0x20
   14930: 6f 00 a0 32  	jal	zero, 0x14c5a <emit_byte>

0000000000014934 <write_frame_header>:
   14934: 79 71        	c.addi16sp	sp, -0x30
   14936: 06 f4        	c.sdsp	ra, 0x28(sp)
   14938: 22 f0        	c.sdsp	s0, 0x20(sp)
   1493a: 26 ec        	c.sdsp	s1, 0x18(sp)
   1493c: 4a e8        	c.sdsp	s2, 0x10(sp)
   1493e: 4e e4        	c.sdsp	s3, 0x8(sp)
   14940: 52 e0        	c.sdsp	s4, 0x0(sp)
   14942: 2a 8a        	c.mv	s4, a0
   14944: 6c 41        	c.lw	a1, 0x44(a0)
   14946: 63 57 b0 02  	bge	zero, a1, 0x14974 <write_frame_header+0x40>
   1494a: 83 34 0a 05  	ld	s1, 0x50(s4)
   1494e: 01 49        	c.li	s2, 0x0
   14950: 01 44        	c.li	s0, 0x0
   14952: c1 04        	c.addi	s1, 0x10
   14954: 8c 40        	c.lw	a1, 0x0(s1)
   14956: 52 85        	c.mv	a0, s4
   14958: ef 00 20 34  	jal	ra, 0x14c9a <emit_dqt>
   1495c: 83 25 4a 04  	lw	a1, 0x44(s4)
   14960: 3b 09 25 01  	addw	s2, a0, s2
   14964: 05 24        	c.addiw	s0, 0x1
   14966: 93 84 04 06  	addi	s1, s1, 0x60
   1496a: e3 45 b4 fe  	blt	s0, a1, 0x14954 <write_frame_header+0x20>
   1496e: 33 39 20 01  	sltu	s2, zero, s2
   14972: 11 a0        	c.j	0x14976 <write_frame_header+0x42>
   14974: 01 49        	c.li	s2, 0x0
   14976: 03 25 ca 0f  	lw	a0, 0xfc(s4)
   1497a: 93 09 90 0c  	addi	s3, zero, 0xc9
   1497e: 4d e1        	c.bnez	a0, 0x14a20 <write_frame_header+0xec>
   14980: 03 25 ca 12  	lw	a0, 0x12c(s4)
   14984: 01 c5        	c.beqz	a0, 0x1498c <write_frame_header+0x58>
   14986: 93 09 20 0c  	addi	s3, zero, 0xc2
   1498a: 59 a8        	c.j	0x14a20 <write_frame_header+0xec>
   1498c: 03 25 0a 04  	lw	a0, 0x40(s4)
   14990: 21 46        	c.li	a2, 0x8
   14992: 63 13 c5 04  	bne	a0, a2, 0x149d8 <write_frame_header+0xa4>
   14996: 63 53 b0 04  	bge	zero, a1, 0x149dc <write_frame_header+0xa8>
   1499a: 03 34 0a 05  	ld	s0, 0x50(s4)
   1499e: 93 04 84 01  	addi	s1, s0, 0x18
   149a2: fd 15        	c.addi	a1, -0x1
   149a4: 13 95 05 02  	slli	a0, a1, 0x20
   149a8: 01 91        	c.srli	a0, 0x20
   149aa: 93 05 00 06  	addi	a1, zero, 0x60
   149ae: ef 90 a1 4d  	jal	ra, 0x2de88 <__muldi3>
   149b2: 22 95        	c.add	a0, s0
   149b4: 93 05 85 07  	addi	a1, a0, 0x78
   149b8: 05 46        	c.li	a2, 0x1
   149ba: 89 46        	c.li	a3, 0x2
   149bc: 05 45        	c.li	a0, 0x1
   149be: 03 a7 c4 ff  	lw	a4, -0x4(s1)
   149c2: 63 45 e6 00  	blt	a2, a4, 0x149cc <write_frame_header+0x98>
   149c6: 98 40        	c.lw	a4, 0x0(s1)
   149c8: 63 43 d7 00  	blt	a4, a3, 0x149ce <write_frame_header+0x9a>
   149cc: 01 45        	c.li	a0, 0x0
   149ce: 93 84 04 06  	addi	s1, s1, 0x60
   149d2: e3 96 b4 fe  	bne	s1, a1, 0x149be <write_frame_header+0x8a>
   149d6: 21 a0        	c.j	0x149de <write_frame_header+0xaa>
   149d8: 01 45        	c.li	a0, 0x0
   149da: 0d a8        	c.j	0x14a0c <write_frame_header+0xd8>
   149dc: 05 45        	c.li	a0, 0x1
   149de: b3 35 a0 00  	sltu	a1, zero, a0
   149e2: b3 75 b9 00  	and	a1, s2, a1
   149e6: 9d c1        	c.beqz	a1, 0x14a0c <write_frame_header+0xd8>
   149e8: 03 35 0a 00  	ld	a0, 0x0(s4)
   149ec: 10 65        	c.ld	a2, 0x8(a0)
   149ee: 93 05 a0 04  	addi	a1, zero, 0x4a
   149f2: 0c d5        	c.sw	a1, 0x28(a0)
   149f4: 52 85        	c.mv	a0, s4
   149f6: 81 45        	c.li	a1, 0x0
   149f8: 02 96        	c.jalr	a2
   149fa: 03 25 ca 0f  	lw	a0, 0xfc(s4)
   149fe: 0d e1        	c.bnez	a0, 0x14a20 <write_frame_header+0xec>
   14a00: 03 25 ca 12  	lw	a0, 0x12c(s4)
   14a04: 93 09 20 0c  	addi	s3, zero, 0xc2
   14a08: 01 ed        	c.bnez	a0, 0x14a20 <write_frame_header+0xec>
   14a0a: 09 a8        	c.j	0x14a1c <write_frame_header+0xe8>
   14a0c: 83 25 ca 12  	lw	a1, 0x12c(s4)
   14a10: 93 09 20 0c  	addi	s3, zero, 0xc2
   14a14: 91 e5        	c.bnez	a1, 0x14a20 <write_frame_header+0xec>
   14a16: 93 09 00 0c  	addi	s3, zero, 0xc0
   14a1a: 19 e1        	c.bnez	a0, 0x14a20 <write_frame_header+0xec>
   14a1c: 93 09 10 0c  	addi	s3, zero, 0xc1
   14a20: 52 85        	c.mv	a0, s4
   14a22: ce 85        	c.mv	a1, s3
   14a24: a2 70        	c.ldsp	ra, 0x28(sp)
   14a26: 02 74        	c.ldsp	s0, 0x20(sp)
   14a28: e2 64        	c.ldsp	s1, 0x18(sp)
   14a2a: 42 69        	c.ldsp	s2, 0x10(sp)
   14a2c: a2 69        	c.ldsp	s3, 0x8(sp)
   14a2e: 02 6a        	c.ldsp	s4, 0x0(sp)
   14a30: 45 61        	c.addi16sp	sp, 0x30
   14a32: 6f 00 40 33  	jal	zero, 0x14d66 <emit_sof>

0000000000014a36 <write_scan_header>:
   14a36: 79 71        	c.addi16sp	sp, -0x30
   14a38: 06 f4        	c.sdsp	ra, 0x28(sp)
   14a3a: 22 f0        	c.sdsp	s0, 0x20(sp)
   14a3c: 26 ec        	c.sdsp	s1, 0x18(sp)
   14a3e: 4a e8        	c.sdsp	s2, 0x10(sp)
   14a40: 4e e4        	c.sdsp	s3, 0x8(sp)
   14a42: 2a 89        	c.mv	s2, a0
   14a44: 03 25 c5 0f  	lw	a0, 0xfc(a0)
   14a48: 31 e9        	c.bnez	a0, 0x14a9c <write_scan_header+0x66>
   14a4a: 03 25 c9 13  	lw	a0, 0x13c(s2)
   14a4e: 63 57 a0 04  	bge	zero, a0, 0x14a9c <write_scan_header+0x66>
   14a52: 01 44        	c.li	s0, 0x0
   14a54: 93 04 09 14  	addi	s1, s2, 0x140
   14a58: 03 25 c9 12  	lw	a0, 0x12c(s2)
   14a5c: 83 b9 04 00  	ld	s3, 0x0(s1)
   14a60: 01 cd        	c.beqz	a0, 0x14a78 <write_scan_header+0x42>
   14a62: 03 25 49 19  	lw	a0, 0x194(s2)
   14a66: 19 ed        	c.bnez	a0, 0x14a84 <write_scan_header+0x4e>
   14a68: 03 25 c9 19  	lw	a0, 0x19c(s2)
   14a6c: 15 e1        	c.bnez	a0, 0x14a90 <write_scan_header+0x5a>
   14a6e: 83 a5 49 01  	lw	a1, 0x14(s3)
   14a72: 4a 85        	c.mv	a0, s2
   14a74: 01 46        	c.li	a2, 0x0
   14a76: 19 a8        	c.j	0x14a8c <write_scan_header+0x56>
   14a78: 83 a5 49 01  	lw	a1, 0x14(s3)
   14a7c: 4a 85        	c.mv	a0, s2
   14a7e: 01 46        	c.li	a2, 0x0
   14a80: ef 00 e0 3c  	jal	ra, 0x14e4e <emit_dht>
   14a84: 83 a5 89 01  	lw	a1, 0x18(s3)
   14a88: 05 46        	c.li	a2, 0x1
   14a8a: 4a 85        	c.mv	a0, s2
   14a8c: ef 00 20 3c  	jal	ra, 0x14e4e <emit_dht>
   14a90: 03 25 c9 13  	lw	a0, 0x13c(s2)
   14a94: 05 04        	c.addi	s0, 0x1
   14a96: a1 04        	c.addi	s1, 0x8
   14a98: e3 40 a4 fc  	blt	s0, a0, 0x14a58 <write_scan_header+0x22>
   14a9c: 03 25 09 11  	lw	a0, 0x110(s2)
   14aa0: 21 c1        	c.beqz	a0, 0x14ae0 <write_scan_header+0xaa>
   14aa2: 93 05 f0 0f  	addi	a1, zero, 0xff
   14aa6: 4a 85        	c.mv	a0, s2
   14aa8: ef 00 20 1b  	jal	ra, 0x14c5a <emit_byte>
   14aac: 93 05 d0 0d  	addi	a1, zero, 0xdd
   14ab0: 4a 85        	c.mv	a0, s2
   14ab2: ef 00 80 1a  	jal	ra, 0x14c5a <emit_byte>
   14ab6: 4a 85        	c.mv	a0, s2
   14ab8: 81 45        	c.li	a1, 0x0
   14aba: ef 00 00 1a  	jal	ra, 0x14c5a <emit_byte>
   14abe: 91 45        	c.li	a1, 0x4
   14ac0: 4a 85        	c.mv	a0, s2
   14ac2: ef 00 80 19  	jal	ra, 0x14c5a <emit_byte>
   14ac6: 03 24 09 11  	lw	s0, 0x110(s2)
   14aca: 93 15 04 03  	slli	a1, s0, 0x30
   14ace: e1 91        	c.srli	a1, 0x38
   14ad0: 4a 85        	c.mv	a0, s2
   14ad2: ef 00 80 18  	jal	ra, 0x14c5a <emit_byte>
   14ad6: 93 75 f4 0f  	andi	a1, s0, 0xff
   14ada: 4a 85        	c.mv	a0, s2
   14adc: ef 00 e0 17  	jal	ra, 0x14c5a <emit_byte>
   14ae0: 93 05 f0 0f  	addi	a1, zero, 0xff
   14ae4: 4a 85        	c.mv	a0, s2
   14ae6: ef 00 40 17  	jal	ra, 0x14c5a <emit_byte>
   14aea: 93 05 a0 0d  	addi	a1, zero, 0xda
   14aee: 4a 85        	c.mv	a0, s2
   14af0: ef 00 a0 16  	jal	ra, 0x14c5a <emit_byte>
   14af4: 03 25 c9 13  	lw	a0, 0x13c(s2)
   14af8: 06 05        	c.slli	a0, 0x1
   14afa: 13 04 65 00  	addi	s0, a0, 0x6
   14afe: 93 15 04 03  	slli	a1, s0, 0x30
   14b02: e1 91        	c.srli	a1, 0x38
   14b04: 4a 85        	c.mv	a0, s2
   14b06: ef 00 40 15  	jal	ra, 0x14c5a <emit_byte>
   14b0a: 93 75 e4 0f  	andi	a1, s0, 0xfe
   14b0e: 4a 85        	c.mv	a0, s2
   14b10: ef 00 a0 14  	jal	ra, 0x14c5a <emit_byte>
   14b14: 83 25 c9 13  	lw	a1, 0x13c(s2)
   14b18: 4a 85        	c.mv	a0, s2
   14b1a: ef 00 00 14  	jal	ra, 0x14c5a <emit_byte>
   14b1e: 03 25 c9 13  	lw	a0, 0x13c(s2)
   14b22: 63 59 a0 04  	bge	zero, a0, 0x14b74 <write_scan_header+0x13e>
   14b26: 81 49        	c.li	s3, 0x0
   14b28: 13 04 09 14  	addi	s0, s2, 0x140
   14b2c: 04 60        	c.ld	s1, 0x0(s0)
   14b2e: 8c 40        	c.lw	a1, 0x0(s1)
   14b30: 4a 85        	c.mv	a0, s2
   14b32: ef 00 80 12  	jal	ra, 0x14c5a <emit_byte>
   14b36: c8 48        	c.lw	a0, 0x14(s1)
   14b38: 03 26 c9 12  	lw	a2, 0x12c(s2)
   14b3c: 8c 4c        	c.lw	a1, 0x18(s1)
   14b3e: 05 c2        	c.beqz	a2, 0x14b5e <write_scan_header+0x128>
   14b40: 03 26 49 19  	lw	a2, 0x194(s2)
   14b44: 19 c2        	c.beqz	a2, 0x14b4a <write_scan_header+0x114>
   14b46: 01 45        	c.li	a0, 0x0
   14b48: 19 a8        	c.j	0x14b5e <write_scan_header+0x128>
   14b4a: 83 25 c9 19  	lw	a1, 0x19c(s2)
   14b4e: 81 c9        	c.beqz	a1, 0x14b5e <write_scan_header+0x128>
   14b50: 03 26 c9 0f  	lw	a2, 0xfc(s2)
   14b54: 81 45        	c.li	a1, 0x0
   14b56: 13 36 16 00  	sltiu	a2, a2, 0x1
   14b5a: 7d 16        	c.addi	a2, -0x1
   14b5c: 71 8d        	c.and	a0, a2
   14b5e: 12 05        	c.slli	a0, 0x4
   14b60: a9 9d        	c.addw	a1, a0
   14b62: 4a 85        	c.mv	a0, s2
   14b64: ef 00 60 0f  	jal	ra, 0x14c5a <emit_byte>
   14b68: 03 25 c9 13  	lw	a0, 0x13c(s2)
   14b6c: 85 09        	c.addi	s3, 0x1
   14b6e: 21 04        	c.addi	s0, 0x8
   14b70: e3 ce a9 fa  	blt	s3, a0, 0x14b2c <write_scan_header+0xf6>
   14b74: 83 25 49 19  	lw	a1, 0x194(s2)
   14b78: 4a 85        	c.mv	a0, s2
   14b7a: ef 00 00 0e  	jal	ra, 0x14c5a <emit_byte>
   14b7e: 83 25 89 19  	lw	a1, 0x198(s2)
   14b82: 4a 85        	c.mv	a0, s2
   14b84: ef 00 60 0d  	jal	ra, 0x14c5a <emit_byte>
   14b88: 03 25 c9 19  	lw	a0, 0x19c(s2)
   14b8c: 83 25 09 1a  	lw	a1, 0x1a0(s2)
   14b90: 12 05        	c.slli	a0, 0x4
   14b92: a9 9d        	c.addw	a1, a0
   14b94: 4a 85        	c.mv	a0, s2
   14b96: a2 70        	c.ldsp	ra, 0x28(sp)
   14b98: 02 74        	c.ldsp	s0, 0x20(sp)
   14b9a: e2 64        	c.ldsp	s1, 0x18(sp)
   14b9c: 42 69        	c.ldsp	s2, 0x10(sp)
   14b9e: a2 69        	c.ldsp	s3, 0x8(sp)
   14ba0: 45 61        	c.addi16sp	sp, 0x30
   14ba2: 6f 00 80 0b  	jal	zero, 0x14c5a <emit_byte>

0000000000014ba6 <write_file_trailer>:
   14ba6: 41 11        	c.addi	sp, -0x10
   14ba8: 06 e4        	c.sdsp	ra, 0x8(sp)
   14baa: 22 e0        	c.sdsp	s0, 0x0(sp)
   14bac: 2a 84        	c.mv	s0, a0
   14bae: 93 05 f0 0f  	addi	a1, zero, 0xff
   14bb2: ef 00 80 0a  	jal	ra, 0x14c5a <emit_byte>
   14bb6: 93 05 90 0d  	addi	a1, zero, 0xd9
   14bba: 22 85        	c.mv	a0, s0
   14bbc: a2 60        	c.ldsp	ra, 0x8(sp)
   14bbe: 02 64        	c.ldsp	s0, 0x0(sp)
   14bc0: 41 01        	c.addi	sp, 0x10
   14bc2: 6f 00 80 09  	jal	zero, 0x14c5a <emit_byte>

0000000000014bc6 <write_tables_only>:
   14bc6: 79 71        	c.addi16sp	sp, -0x30
   14bc8: 06 f4        	c.sdsp	ra, 0x28(sp)
   14bca: 22 f0        	c.sdsp	s0, 0x20(sp)
   14bcc: 26 ec        	c.sdsp	s1, 0x18(sp)
   14bce: 4a e8        	c.sdsp	s2, 0x10(sp)
   14bd0: 4e e4        	c.sdsp	s3, 0x8(sp)
   14bd2: 2a 89        	c.mv	s2, a0
   14bd4: 93 05 f0 0f  	addi	a1, zero, 0xff
   14bd8: ef 00 20 08  	jal	ra, 0x14c5a <emit_byte>
   14bdc: 93 05 80 0d  	addi	a1, zero, 0xd8
   14be0: 4a 85        	c.mv	a0, s2
   14be2: ef 00 80 07  	jal	ra, 0x14c5a <emit_byte>
   14be6: 81 44        	c.li	s1, 0x0
   14be8: 13 04 89 05  	addi	s0, s2, 0x58
   14bec: 93 09 89 07  	addi	s3, s2, 0x78
   14bf0: 08 60        	c.ld	a0, 0x0(s0)
   14bf2: 09 c5        	c.beqz	a0, 0x14bfc <write_tables_only+0x36>
   14bf4: 4a 85        	c.mv	a0, s2
   14bf6: a6 85        	c.mv	a1, s1
   14bf8: ef 00 20 0a  	jal	ra, 0x14c9a <emit_dqt>
   14bfc: 21 04        	c.addi	s0, 0x8
   14bfe: 85 24        	c.addiw	s1, 0x1
   14c00: e3 18 34 ff  	bne	s0, s3, 0x14bf0 <write_tables_only+0x2a>
   14c04: 03 25 c9 0f  	lw	a0, 0xfc(s2)
   14c08: 0d e9        	c.bnez	a0, 0x14c3a <write_tables_only+0x74>
   14c0a: 81 44        	c.li	s1, 0x0
   14c0c: 13 04 89 09  	addi	s0, s2, 0x98
   14c10: 93 09 89 0b  	addi	s3, s2, 0xb8
   14c14: 03 35 04 fe  	ld	a0, -0x20(s0)
   14c18: 11 c5        	c.beqz	a0, 0x14c24 <write_tables_only+0x5e>
   14c1a: 4a 85        	c.mv	a0, s2
   14c1c: a6 85        	c.mv	a1, s1
   14c1e: 01 46        	c.li	a2, 0x0
   14c20: ef 00 e0 22  	jal	ra, 0x14e4e <emit_dht>
   14c24: 08 60        	c.ld	a0, 0x0(s0)
   14c26: 11 c5        	c.beqz	a0, 0x14c32 <write_tables_only+0x6c>
   14c28: 05 46        	c.li	a2, 0x1
   14c2a: 4a 85        	c.mv	a0, s2
   14c2c: a6 85        	c.mv	a1, s1
   14c2e: ef 00 00 22  	jal	ra, 0x14e4e <emit_dht>
   14c32: 21 04        	c.addi	s0, 0x8
   14c34: 85 24        	c.addiw	s1, 0x1
   14c36: e3 1f 34 fd  	bne	s0, s3, 0x14c14 <write_tables_only+0x4e>
   14c3a: 93 05 f0 0f  	addi	a1, zero, 0xff
   14c3e: 4a 85        	c.mv	a0, s2
   14c40: ef 00 a0 01  	jal	ra, 0x14c5a <emit_byte>
   14c44: 93 05 90 0d  	addi	a1, zero, 0xd9
   14c48: 4a 85        	c.mv	a0, s2
   14c4a: a2 70        	c.ldsp	ra, 0x28(sp)
   14c4c: 02 74        	c.ldsp	s0, 0x20(sp)
   14c4e: e2 64        	c.ldsp	s1, 0x18(sp)
   14c50: 42 69        	c.ldsp	s2, 0x10(sp)
   14c52: a2 69        	c.ldsp	s3, 0x8(sp)
   14c54: 45 61        	c.addi16sp	sp, 0x30
   14c56: 6f 00 40 00  	jal	zero, 0x14c5a <emit_byte>

0000000000014c5a <emit_byte>:
   14c5a: 41 11        	c.addi	sp, -0x10
   14c5c: 06 e4        	c.sdsp	ra, 0x8(sp)
   14c5e: 22 e0        	c.sdsp	s0, 0x0(sp)
   14c60: 2a 84        	c.mv	s0, a0
   14c62: 08 71        	c.ld	a0, 0x20(a0)
   14c64: 10 61        	c.ld	a2, 0x0(a0)
   14c66: 93 06 16 00  	addi	a3, a2, 0x1
   14c6a: 14 e1        	c.sd	a3, 0x0(a0)
   14c6c: 23 00 b6 00  	sb	a1, 0x0(a2)
   14c70: 0c 65        	c.ld	a1, 0x8(a0)
   14c72: fd 15        	c.addi	a1, -0x1
   14c74: 0c e5        	c.sd	a1, 0x8(a0)
   14c76: 89 e5        	c.bnez	a1, 0x14c80 <emit_byte+0x26>
   14c78: 0c 6d        	c.ld	a1, 0x18(a0)
   14c7a: 22 85        	c.mv	a0, s0
   14c7c: 82 95        	c.jalr	a1
   14c7e: 09 c5        	c.beqz	a0, 0x14c88 <emit_byte+0x2e>
   14c80: a2 60        	c.ldsp	ra, 0x8(sp)
   14c82: 02 64        	c.ldsp	s0, 0x0(sp)
   14c84: 41 01        	c.addi	sp, 0x10
   14c86: 82 80        	c.jr	ra
   14c88: 08 60        	c.ld	a0, 0x0(s0)
   14c8a: 1c 61        	c.ld	a5, 0x0(a0)
   14c8c: d9 45        	c.li	a1, 0x16
   14c8e: 0c d5        	c.sw	a1, 0x28(a0)
   14c90: 22 85        	c.mv	a0, s0
   14c92: a2 60        	c.ldsp	ra, 0x8(sp)
   14c94: 02 64        	c.ldsp	s0, 0x0(sp)
   14c96: 41 01        	c.addi	sp, 0x10
   14c98: 82 87        	c.jr	a5

0000000000014c9a <emit_dqt>:
   14c9a: ef 92 41 19  	jal	t0, 0x2de2e <__riscv_save_7>
   14c9e: 2e 89        	c.mv	s2, a1
   14ca0: 2a 8a        	c.mv	s4, a0
   14ca2: 13 95 35 00  	slli	a0, a1, 0x3
   14ca6: 52 95        	c.add	a0, s4
   14ca8: 83 39 85 05  	ld	s3, 0x58(a0)
   14cac: 63 9e 09 00  	bne	s3, zero, 0x14cc8 <emit_dqt+0x2e>
   14cb0: 03 35 0a 00  	ld	a0, 0x0(s4)
   14cb4: 23 26 25 03  	sw	s2, 0x2c(a0)
   14cb8: 83 35 0a 00  	ld	a1, 0x0(s4)
   14cbc: 8c 61        	c.ld	a1, 0x0(a1)
   14cbe: 13 06 30 03  	addi	a2, zero, 0x33
   14cc2: 10 d5        	c.sw	a2, 0x28(a0)
   14cc4: 52 85        	c.mv	a0, s4
   14cc6: 82 95        	c.jalr	a1
   14cc8: 81 4a        	c.li	s5, 0x0
   14cca: 13 85 09 08  	addi	a0, s3, 0x80
   14cce: 93 05 f0 0f  	addi	a1, zero, 0xff
   14cd2: 4e 86        	c.mv	a2, s3
   14cd4: 83 56 06 00  	lhu	a3, 0x0(a2)
   14cd8: 63 f3 d5 00  	bgeu	a1, a3, 0x14cde <emit_dqt+0x44>
   14cdc: 85 4a        	c.li	s5, 0x1
   14cde: 09 06        	c.addi	a2, 0x2
   14ce0: e3 1a a6 fe  	bne	a2, a0, 0x14cd4 <emit_dqt+0x3a>
   14ce4: 03 a5 09 08  	lw	a0, 0x80(s3)
   14ce8: 25 ed        	c.bnez	a0, 0x14d60 <emit_dqt+0xc6>
   14cea: 93 05 f0 0f  	addi	a1, zero, 0xff
   14cee: 52 85        	c.mv	a0, s4
   14cf0: ef f0 bf f6  	jal	ra, 0x14c5a <emit_byte>
   14cf4: 93 05 b0 0d  	addi	a1, zero, 0xdb
   14cf8: 52 85        	c.mv	a0, s4
   14cfa: ef f0 1f f6  	jal	ra, 0x14c5a <emit_byte>
   14cfe: 52 85        	c.mv	a0, s4
   14d00: 81 45        	c.li	a1, 0x0
   14d02: ef f0 9f f5  	jal	ra, 0x14c5a <emit_byte>
   14d06: 93 05 30 04  	addi	a1, zero, 0x43
   14d0a: 63 84 0a 00  	beq	s5, zero, 0x14d12 <emit_dqt+0x78>
   14d0e: 93 05 30 08  	addi	a1, zero, 0x83
   14d12: 52 85        	c.mv	a0, s4
   14d14: ef f0 7f f4  	jal	ra, 0x14c5a <emit_byte>
   14d18: 13 95 4a 00  	slli	a0, s5, 0x4
   14d1c: bb 05 25 01  	addw	a1, a0, s2
   14d20: 52 85        	c.mv	a0, s4
   14d22: ef f0 9f f3  	jal	ra, 0x14c5a <emit_byte>
   14d26: 37 05 03 00  	lui	a0, 0x30
   14d2a: 13 04 05 2d  	addi	s0, a0, 0x2d0
   14d2e: 13 09 04 10  	addi	s2, s0, 0x100
   14d32: 08 40        	c.lw	a0, 0x0(s0)
   14d34: 06 05        	c.slli	a0, 0x1
   14d36: 4e 95        	c.add	a0, s3
   14d38: 83 54 05 00  	lhu	s1, 0x0(a0)
   14d3c: 63 87 0a 00  	beq	s5, zero, 0x14d4a <emit_dqt+0xb0>
   14d40: 93 d5 84 00  	srli	a1, s1, 0x8
   14d44: 52 85        	c.mv	a0, s4
   14d46: ef f0 5f f1  	jal	ra, 0x14c5a <emit_byte>
   14d4a: 93 f5 f4 0f  	andi	a1, s1, 0xff
   14d4e: 52 85        	c.mv	a0, s4
   14d50: ef f0 bf f0  	jal	ra, 0x14c5a <emit_byte>
   14d54: 11 04        	c.addi	s0, 0x4
   14d56: e3 1e 24 fd  	bne	s0, s2, 0x14d32 <emit_dqt+0x98>
   14d5a: 05 45        	c.li	a0, 0x1
   14d5c: 23 a0 a9 08  	sw	a0, 0x80(s3)
   14d60: 56 85        	c.mv	a0, s5
   14d62: 6f 90 a1 10  	jal	zero, 0x2de6c <__riscv_restore_7>

0000000000014d66 <emit_sof>:
   14d66: ef 92 c1 0d  	jal	t0, 0x2de42 <__riscv_save_3>
   14d6a: ae 84        	c.mv	s1, a1
   14d6c: 2a 89        	c.mv	s2, a0
   14d6e: 93 05 f0 0f  	addi	a1, zero, 0xff
   14d72: ef f0 9f ee  	jal	ra, 0x14c5a <emit_byte>
   14d76: 4a 85        	c.mv	a0, s2
   14d78: a6 85        	c.mv	a1, s1
   14d7a: ef f0 1f ee  	jal	ra, 0x14c5a <emit_byte>
   14d7e: 03 25 49 04  	lw	a0, 0x44(s2)
   14d82: 93 15 15 00  	slli	a1, a0, 0x1
   14d86: 2e 95        	c.add	a0, a1
   14d88: 13 04 85 00  	addi	s0, a0, 0x8
   14d8c: 93 15 04 03  	slli	a1, s0, 0x30
   14d90: e1 91        	c.srli	a1, 0x38
   14d92: 4a 85        	c.mv	a0, s2
   14d94: ef f0 7f ec  	jal	ra, 0x14c5a <emit_byte>
   14d98: 93 75 f4 0f  	andi	a1, s0, 0xff
   14d9c: 4a 85        	c.mv	a0, s2
   14d9e: ef f0 df eb  	jal	ra, 0x14c5a <emit_byte>
   14da2: 03 55 e9 02  	lhu	a0, 0x2e(s2)
   14da6: 01 e5        	c.bnez	a0, 0x14dae <emit_sof+0x48>
   14da8: 03 55 a9 02  	lhu	a0, 0x2a(s2)
   14dac: 11 cd        	c.beqz	a0, 0x14dc8 <emit_sof+0x62>
   14dae: 03 35 09 00  	ld	a0, 0x0(s2)
   14db2: b7 f5 ff 0f  	lui	a1, 0xffff
   14db6: d2 05        	c.slli	a1, 0x14
   14db8: 93 85 85 02  	addi	a1, a1, 0x28
   14dbc: 0c f5        	c.sd	a1, 0x28(a0)
   14dbe: 03 35 09 00  	ld	a0, 0x0(s2)
   14dc2: 0c 61        	c.ld	a1, 0x0(a0)
   14dc4: 4a 85        	c.mv	a0, s2
   14dc6: 82 95        	c.jalr	a1
   14dc8: 83 25 09 04  	lw	a1, 0x40(s2)
   14dcc: 4a 85        	c.mv	a0, s2
   14dce: ef f0 df e8  	jal	ra, 0x14c5a <emit_byte>
   14dd2: 03 24 c9 02  	lw	s0, 0x2c(s2)
   14dd6: 93 15 04 03  	slli	a1, s0, 0x30
   14dda: e1 91        	c.srli	a1, 0x38
   14ddc: 4a 85        	c.mv	a0, s2
   14dde: ef f0 df e7  	jal	ra, 0x14c5a <emit_byte>
   14de2: 93 75 f4 0f  	andi	a1, s0, 0xff
   14de6: 4a 85        	c.mv	a0, s2
   14de8: ef f0 3f e7  	jal	ra, 0x14c5a <emit_byte>
   14dec: 03 24 89 02  	lw	s0, 0x28(s2)
   14df0: 93 15 04 03  	slli	a1, s0, 0x30
   14df4: e1 91        	c.srli	a1, 0x38
   14df6: 4a 85        	c.mv	a0, s2
   14df8: ef f0 3f e6  	jal	ra, 0x14c5a <emit_byte>
   14dfc: 93 75 f4 0f  	andi	a1, s0, 0xff
   14e00: 4a 85        	c.mv	a0, s2
   14e02: ef f0 9f e5  	jal	ra, 0x14c5a <emit_byte>
   14e06: 83 25 49 04  	lw	a1, 0x44(s2)
   14e0a: 4a 85        	c.mv	a0, s2
   14e0c: ef f0 ff e4  	jal	ra, 0x14c5a <emit_byte>
   14e10: 03 25 49 04  	lw	a0, 0x44(s2)
   14e14: 63 5b a0 02  	bge	zero, a0, 0x14e4a <emit_sof+0xe4>
   14e18: 83 34 09 05  	ld	s1, 0x50(s2)
   14e1c: 01 44        	c.li	s0, 0x0
   14e1e: 8c 40        	c.lw	a1, 0x0(s1)
   14e20: 4a 85        	c.mv	a0, s2
   14e22: ef f0 9f e3  	jal	ra, 0x14c5a <emit_byte>
   14e26: 88 44        	c.lw	a0, 0x8(s1)
   14e28: cc 44        	c.lw	a1, 0xc(s1)
   14e2a: 12 05        	c.slli	a0, 0x4
   14e2c: a9 9d        	c.addw	a1, a0
   14e2e: 4a 85        	c.mv	a0, s2
   14e30: ef f0 bf e2  	jal	ra, 0x14c5a <emit_byte>
   14e34: 8c 48        	c.lw	a1, 0x10(s1)
   14e36: 4a 85        	c.mv	a0, s2
   14e38: ef f0 3f e2  	jal	ra, 0x14c5a <emit_byte>
   14e3c: 03 25 49 04  	lw	a0, 0x44(s2)
   14e40: 05 24        	c.addiw	s0, 0x1
   14e42: 93 84 04 06  	addi	s1, s1, 0x60
   14e46: e3 4c a4 fc  	blt	s0, a0, 0x14e1e <emit_sof+0xb8>
   14e4a: 6f 90 e1 02  	jal	zero, 0x2de78 <__riscv_restore_3>

0000000000014e4e <emit_dht>:
   14e4e: ef 82 11 7e  	jal	t0, 0x2de2e <__riscv_save_7>
   14e52: 2a 8a        	c.mv	s4, a0
   14e54: 33 35 c0 00  	sltu	a0, zero, a2
   14e58: 93 96 35 00  	slli	a3, a1, 0x3
   14e5c: d2 96        	c.add	a3, s4
   14e5e: 12 05        	c.slli	a0, 0x4
   14e60: 13 07 80 07  	addi	a4, zero, 0x78
   14e64: 19 c2        	c.beqz	a2, 0x14e6a <emit_dht+0x1c>
   14e66: 13 07 80 09  	addi	a4, zero, 0x98
   14e6a: ba 96        	c.add	a3, a4
   14e6c: 83 b9 06 00  	ld	s3, 0x0(a3)
   14e70: 3b 89 a5 00  	addw	s2, a1, a0
   14e74: 63 9e 09 00  	bne	s3, zero, 0x14e90 <emit_dht+0x42>
   14e78: 03 35 0a 00  	ld	a0, 0x0(s4)
   14e7c: 23 26 25 03  	sw	s2, 0x2c(a0)
   14e80: 83 35 0a 00  	ld	a1, 0x0(s4)
   14e84: 8c 61        	c.ld	a1, 0x0(a1)
   14e86: 13 06 10 03  	addi	a2, zero, 0x31
   14e8a: 10 d5        	c.sw	a2, 0x28(a0)
   14e8c: 52 85        	c.mv	a0, s4
   14e8e: 82 95        	c.jalr	a1
   14e90: 03 a5 49 11  	lw	a0, 0x114(s3)
   14e94: 19 c1        	c.beqz	a0, 0x14e9a <emit_dht+0x4c>
   14e96: 6f 80 71 7d  	jal	zero, 0x2de6c <__riscv_restore_7>
   14e9a: 93 05 f0 0f  	addi	a1, zero, 0xff
   14e9e: 52 85        	c.mv	a0, s4
   14ea0: ef f0 bf db  	jal	ra, 0x14c5a <emit_byte>
   14ea4: 93 05 40 0c  	addi	a1, zero, 0xc4
   14ea8: 52 85        	c.mv	a0, s4
   14eaa: ef f0 1f db  	jal	ra, 0x14c5a <emit_byte>
   14eae: 01 44        	c.li	s0, 0x0
   14eb0: 13 85 19 00  	addi	a0, s3, 0x1
   14eb4: 93 8a 19 01  	addi	s5, s3, 0x11
   14eb8: 83 45 05 00  	lbu	a1, 0x0(a0)
   14ebc: 05 05        	c.addi	a0, 0x1
   14ebe: 2d 9c        	c.addw	s0, a1
   14ec0: e3 1c 55 ff  	bne	a0, s5, 0x14eb8 <emit_dht+0x6a>
   14ec4: 93 04 34 01  	addi	s1, s0, 0x13
   14ec8: 93 95 04 03  	slli	a1, s1, 0x30
   14ecc: e1 91        	c.srli	a1, 0x38
   14ece: 52 85        	c.mv	a0, s4
   14ed0: ef f0 bf d8  	jal	ra, 0x14c5a <emit_byte>
   14ed4: 93 f5 f4 0f  	andi	a1, s1, 0xff
   14ed8: 52 85        	c.mv	a0, s4
   14eda: ef f0 1f d8  	jal	ra, 0x14c5a <emit_byte>
   14ede: 52 85        	c.mv	a0, s4
   14ee0: ca 85        	c.mv	a1, s2
   14ee2: ef f0 9f d7  	jal	ra, 0x14c5a <emit_byte>
   14ee6: 93 84 19 00  	addi	s1, s3, 0x1
   14eea: 83 c5 04 00  	lbu	a1, 0x0(s1)
   14eee: 52 85        	c.mv	a0, s4
   14ef0: ef f0 bf d6  	jal	ra, 0x14c5a <emit_byte>
   14ef4: 85 04        	c.addi	s1, 0x1
   14ef6: e3 9a 54 ff  	bne	s1, s5, 0x14eea <emit_dht+0x9c>
   14efa: 01 cc        	c.beqz	s0, 0x14f12 <emit_dht+0xc4>
   14efc: 02 14        	c.slli	s0, 0x20
   14efe: 01 90        	c.srli	s0, 0x20
   14f00: 56 94        	c.add	s0, s5
   14f02: 83 c5 0a 00  	lbu	a1, 0x0(s5)
   14f06: 52 85        	c.mv	a0, s4
   14f08: ef f0 3f d5  	jal	ra, 0x14c5a <emit_byte>
   14f0c: 85 0a        	c.addi	s5, 0x1
   14f0e: e3 9a 8a fe  	bne	s5, s0, 0x14f02 <emit_dht+0xb4>
   14f12: 05 45        	c.li	a0, 0x1
   14f14: 23 aa a9 10  	sw	a0, 0x114(s3)
   14f18: 6f 80 51 75  	jal	zero, 0x2de6c <__riscv_restore_7>

0000000000014f1c <jinit_c_main_controller>:
   14f1c: 79 71        	c.addi16sp	sp, -0x30
   14f1e: 06 f4        	c.sdsp	ra, 0x28(sp)
   14f20: 22 f0        	c.sdsp	s0, 0x20(sp)
   14f22: 26 ec        	c.sdsp	s1, 0x18(sp)
   14f24: 4a e8        	c.sdsp	s2, 0x10(sp)
   14f26: 4e e4        	c.sdsp	s3, 0x8(sp)
   14f28: 2a 89        	c.mv	s2, a0
   14f2a: 08 65        	c.ld	a0, 0x8(a0)
   14f2c: 14 61        	c.ld	a3, 0x0(a0)
   14f2e: ae 84        	c.mv	s1, a1
   14f30: 85 45        	c.li	a1, 0x1
   14f32: 13 06 00 07  	addi	a2, zero, 0x70
   14f36: 4a 85        	c.mv	a0, s2
   14f38: 82 96        	c.jalr	a3
   14f3a: 83 25 89 0f  	lw	a1, 0xf8(s2)
   14f3e: 37 56 01 00  	lui	a2, 0x15
   14f42: 13 06 a6 fb  	addi	a2, a2, -0x46
   14f46: 10 e1        	c.sd	a2, 0x0(a0)
   14f48: 23 38 a9 1a  	sd	a0, 0x1b0(s2)
   14f4c: 81 c9        	c.beqz	a1, 0x14f5c <jinit_c_main_controller+0x40>
   14f4e: a2 70        	c.ldsp	ra, 0x28(sp)
   14f50: 02 74        	c.ldsp	s0, 0x20(sp)
   14f52: e2 64        	c.ldsp	s1, 0x18(sp)
   14f54: 42 69        	c.ldsp	s2, 0x10(sp)
   14f56: a2 69        	c.ldsp	s3, 0x8(sp)
   14f58: 45 61        	c.addi16sp	sp, 0x30
   14f5a: 82 80        	c.jr	ra
   14f5c: 91 cc        	c.beqz	s1, 0x14f78 <jinit_c_main_controller+0x5c>
   14f5e: 03 35 09 00  	ld	a0, 0x0(s2)
   14f62: 1c 61        	c.ld	a5, 0x0(a0)
   14f64: 91 45        	c.li	a1, 0x4
   14f66: 0c d5        	c.sw	a1, 0x28(a0)
   14f68: 4a 85        	c.mv	a0, s2
   14f6a: a2 70        	c.ldsp	ra, 0x28(sp)
   14f6c: 02 74        	c.ldsp	s0, 0x20(sp)
   14f6e: e2 64        	c.ldsp	s1, 0x18(sp)
   14f70: 42 69        	c.ldsp	s2, 0x10(sp)
   14f72: a2 69        	c.ldsp	s3, 0x8(sp)
   14f74: 45 61        	c.addi16sp	sp, 0x30
   14f76: 82 87        	c.jr	a5
   14f78: 83 25 49 04  	lw	a1, 0x44(s2)
   14f7c: e3 59 b0 fc  	bge	zero, a1, 0x14f4e <jinit_c_main_controller+0x32>
   14f80: 83 34 09 05  	ld	s1, 0x50(s2)
   14f84: 81 49        	c.li	s3, 0x0
   14f86: 13 04 05 02  	addi	s0, a0, 0x20
   14f8a: f1 04        	c.addi	s1, 0x1c
   14f8c: 03 35 89 00  	ld	a0, 0x8(s2)
   14f90: 8c 40        	c.lw	a1, 0x0(s1)
   14f92: 83 a6 04 ff  	lw	a3, -0x10(s1)
   14f96: 18 69        	c.ld	a4, 0x10(a0)
   14f98: 1b 96 35 00  	slliw	a2, a1, 0x3
   14f9c: 9b 96 36 00  	slliw	a3, a3, 0x3
   14fa0: 85 45        	c.li	a1, 0x1
   14fa2: 4a 85        	c.mv	a0, s2
   14fa4: 02 97        	c.jalr	a4
   14fa6: 83 25 49 04  	lw	a1, 0x44(s2)
   14faa: 08 e0        	c.sd	a0, 0x0(s0)
   14fac: 85 09        	c.addi	s3, 0x1
   14fae: 21 04        	c.addi	s0, 0x8
   14fb0: 93 84 04 06  	addi	s1, s1, 0x60
   14fb4: e3 cc b9 fc  	blt	s3, a1, 0x14f8c <jinit_c_main_controller+0x70>
   14fb8: 59 bf        	c.j	0x14f4e <jinit_c_main_controller+0x32>

0000000000014fba <start_pass_main>:
   14fba: 03 26 85 0f  	lw	a2, 0xf8(a0)
   14fbe: 11 c2        	c.beqz	a2, 0x14fc2 <start_pass_main+0x8>
   14fc0: 82 80        	c.jr	ra
   14fc2: 03 36 05 1b  	ld	a2, 0x1b0(a0)
   14fc6: 23 38 06 00  	sd	zero, 0x10(a2)
   14fca: 23 2c 06 00  	sw	zero, 0x18(a2)
   14fce: 4c ce        	c.sw	a1, 0x1c(a2)
   14fd0: 91 c5        	c.beqz	a1, 0x14fdc <start_pass_main+0x22>
   14fd2: 0c 61        	c.ld	a1, 0x0(a0)
   14fd4: 9c 61        	c.ld	a5, 0x0(a1)
   14fd6: 11 46        	c.li	a2, 0x4
   14fd8: 90 d5        	c.sw	a2, 0x28(a1)
   14fda: 82 87        	c.jr	a5
   14fdc: 37 55 01 00  	lui	a0, 0x15
   14fe0: 13 05 85 fe  	addi	a0, a0, -0x18
   14fe4: 08 e6        	c.sd	a0, 0x8(a2)
   14fe6: 82 80        	c.jr	ra

0000000000014fe8 <process_data_simple_main>:
   14fe8: ef 82 d1 63  	jal	t0, 0x2de24 <__riscv_save_9>
   14fec: aa 84        	c.mv	s1, a0
   14fee: 03 34 05 1b  	ld	s0, 0x1b0(a0)
   14ff2: 08 48        	c.lw	a0, 0x10(s0)
   14ff4: 03 a7 84 13  	lw	a4, 0x138(s1)
   14ff8: 63 7a e5 06  	bgeu	a0, a4, 0x1506c <process_data_simple_main+0x84>
   14ffc: 36 89        	c.mv	s2, a3
   14ffe: 32 8b        	c.mv	s6, a2
   15000: ae 89        	c.mv	s3, a1
   15002: 13 0a 44 01  	addi	s4, s0, 0x14
   15006: 48 48        	c.lw	a0, 0x14(s0)
   15008: 93 0a 04 02  	addi	s5, s0, 0x20
   1500c: 9d 4b        	c.li	s7, 0x7
   1500e: 21 4c        	c.li	s8, 0x8
   15010: 63 e0 ab 02  	bltu	s7, a0, 0x15030 <process_data_simple_main+0x48>
   15014: 03 b5 84 1b  	ld	a0, 0x1b8(s1)
   15018: 83 38 85 00  	ld	a7, 0x8(a0)
   1501c: 21 48        	c.li	a6, 0x8
   1501e: 26 85        	c.mv	a0, s1
   15020: ce 85        	c.mv	a1, s3
   15022: 5a 86        	c.mv	a2, s6
   15024: ca 86        	c.mv	a3, s2
   15026: 56 87        	c.mv	a4, s5
   15028: d2 87        	c.mv	a5, s4
   1502a: 82 98        	c.jalr	a7
   1502c: 03 25 0a 00  	lw	a0, 0x0(s4)
   15030: 63 1e 85 03  	bne	a0, s8, 0x1506c <process_data_simple_main+0x84>
   15034: 03 b5 04 1c  	ld	a0, 0x1c0(s1)
   15038: 10 65        	c.ld	a2, 0x8(a0)
   1503a: 26 85        	c.mv	a0, s1
   1503c: d6 85        	c.mv	a1, s5
   1503e: 02 96        	c.jalr	a2
   15040: 0c 4c        	c.lw	a1, 0x18(s0)
   15042: 05 c5        	c.beqz	a0, 0x1506a <process_data_simple_main+0x82>
   15044: 81 c9        	c.beqz	a1, 0x15054 <process_data_simple_main+0x6c>
   15046: 03 25 0b 00  	lw	a0, 0x0(s6)
   1504a: 05 05        	c.addi	a0, 0x1
   1504c: 23 20 ab 00  	sw	a0, 0x0(s6)
   15050: 23 2c 04 00  	sw	zero, 0x18(s0)
   15054: 0c 48        	c.lw	a1, 0x10(s0)
   15056: 03 a6 84 13  	lw	a2, 0x138(s1)
   1505a: 01 45        	c.li	a0, 0x0
   1505c: 23 2a 04 00  	sw	zero, 0x14(s0)
   15060: 85 25        	c.addiw	a1, 0x1
   15062: 0c c8        	c.sw	a1, 0x10(s0)
   15064: e3 e6 c5 fa  	bltu	a1, a2, 0x15010 <process_data_simple_main+0x28>
   15068: 11 a0        	c.j	0x1506c <process_data_simple_main+0x84>
   1506a: 99 c1        	c.beqz	a1, 0x15070 <process_data_simple_main+0x88>
   1506c: 6f 80 b1 5f  	jal	zero, 0x2de66 <__riscv_restore_9>
   15070: 03 25 0b 00  	lw	a0, 0x0(s6)
   15074: 7d 15        	c.addi	a0, -0x1
   15076: 23 20 ab 00  	sw	a0, 0x0(s6)
   1507a: 05 45        	c.li	a0, 0x1
   1507c: 08 cc        	c.sw	a0, 0x18(s0)
   1507e: 6f 80 91 5e  	jal	zero, 0x2de66 <__riscv_restore_9>

0000000000015082 <jinit_c_prep_controller>:
   15082: ef 82 11 59  	jal	t0, 0x2de12 <__riscv_save_12>
   15086: 79 71        	c.addi16sp	sp, -0x30
   15088: aa 8b        	c.mv	s7, a0
   1508a: 81 c9        	c.beqz	a1, 0x1509a <jinit_c_prep_controller+0x18>
   1508c: 03 b5 0b 00  	ld	a0, 0x0(s7)
   15090: 0c 61        	c.ld	a1, 0x0(a0)
   15092: 11 46        	c.li	a2, 0x4
   15094: 10 d5        	c.sw	a2, 0x28(a0)
   15096: 5e 85        	c.mv	a0, s7
   15098: 82 95        	c.jalr	a1
   1509a: 03 b5 8b 00  	ld	a0, 0x8(s7)
   1509e: 14 61        	c.ld	a3, 0x0(a0)
   150a0: 85 45        	c.li	a1, 0x1
   150a2: 13 06 00 07  	addi	a2, zero, 0x70
   150a6: 5e 85        	c.mv	a0, s7
   150a8: 82 96        	c.jalr	a3
   150aa: 83 b5 8b 1d  	ld	a1, 0x1d8(s7)
   150ae: 2a 84        	c.mv	s0, a0
   150b0: 88 49        	c.lw	a0, 0x10(a1)
   150b2: b7 55 01 00  	lui	a1, 0x15
   150b6: 93 85 65 22  	addi	a1, a1, 0x226
   150ba: 0c e0        	c.sd	a1, 0x0(s0)
   150bc: 23 bc 8b 1a  	sd	s0, 0x1b8(s7)
   150c0: 63 01 05 10  	beq	a0, zero, 0x151c2 <jinit_c_prep_controller+0x140>
   150c4: 03 b5 8b 00  	ld	a0, 0x8(s7)
   150c8: b7 55 01 00  	lui	a1, 0x15
   150cc: 93 85 65 25  	addi	a1, a1, 0x256
   150d0: 83 ea 4b 13  	lwu	s5, 0x134(s7)
   150d4: 04 61        	c.ld	s1, 0x0(a0)
   150d6: 03 a5 4b 04  	lw	a0, 0x44(s7)
   150da: 0c e4        	c.sd	a1, 0x8(s0)
   150dc: 13 99 2a 00  	slli	s2, s5, 0x2
   150e0: b3 05 59 01  	add	a1, s2, s5
   150e4: ef 80 51 5a  	jal	ra, 0x2de88 <__muldi3>
   150e8: 01 25        	c.addiw	a0, 0x0
   150ea: 13 16 35 00  	slli	a2, a0, 0x3
   150ee: 85 45        	c.li	a1, 0x1
   150f0: 5e 85        	c.mv	a0, s7
   150f2: 82 94        	c.jalr	s1
   150f4: 83 a5 4b 04  	lw	a1, 0x44(s7)
   150f8: 2a e8        	c.sdsp	a0, 0x10(sp)
   150fa: 63 53 b0 12  	bge	zero, a1, 0x15220 <jinit_c_prep_controller+0x19e>
   150fe: 81 44        	c.li	s1, 0x0
   15100: 1b 8d 0a 00  	addiw	s10, s5, 0x0
   15104: 3b 0a 59 01  	addw	s4, s2, s5
   15108: 83 bd 0b 05  	ld	s11, 0x50(s7)
   1510c: 13 15 1d 00  	slli	a0, s10, 0x1
   15110: 3b 05 a5 01  	addw	a0, a0, s10
   15114: 2a f4        	c.sdsp	a0, 0x28(sp)
   15116: 0e 05        	c.slli	a0, 0x3
   15118: 2a f0        	c.sdsp	a0, 0x20(sp)
   1511a: 13 15 2d 02  	slli	a0, s10, 0x22
   1511e: 13 59 d5 01  	srli	s2, a0, 0x1d
   15122: 0e 0a        	c.slli	s4, 0x3
   15124: 13 15 1d 02  	slli	a0, s10, 0x21
   15128: 93 59 d5 01  	srli	s3, a0, 0x1d
   1512c: 8e 0a        	c.slli	s5, 0x3
   1512e: 56 e4        	c.sdsp	s5, 0x8(sp)
   15130: 13 15 3d 00  	slli	a0, s10, 0x3
   15134: 2a ec        	c.sdsp	a0, 0x18(sp)
   15136: 42 6b        	c.ldsp	s6, 0x10(sp)
   15138: a2 8a        	c.mv	s5, s0
   1513a: 52 85        	c.mv	a0, s4
   1513c: a6 85        	c.mv	a1, s1
   1513e: ef 80 b1 54  	jal	ra, 0x2de88 <__muldi3>
   15142: 83 b5 8b 00  	ld	a1, 0x8(s7)
   15146: 80 69        	c.ld	s0, 0x10(a1)
   15148: 03 e6 cd 01  	lwu	a2, 0x1c(s11)
   1514c: 83 a5 0b 13  	lw	a1, 0x130(s7)
   15150: 2a 8c        	c.mv	s8, a0
   15152: 32 85        	c.mv	a0, a2
   15154: ef 80 51 53  	jal	ra, 0x2de88 <__muldi3>
   15158: 83 a5 8d 00  	lw	a1, 0x8(s11)
   1515c: 0e 05        	c.slli	a0, 0x3
   1515e: ef 80 b1 56  	jal	ra, 0x2dec8 <__divdi3>
   15162: 1b 06 05 00  	addiw	a2, a0, 0x0
   15166: 85 45        	c.li	a1, 0x1
   15168: 5e 85        	c.mv	a0, s7
   1516a: a2 76        	c.ldsp	a3, 0x28(sp)
   1516c: 02 94        	c.jalr	s0
   1516e: 2a 84        	c.mv	s0, a0
   15170: e2 6c        	c.ldsp	s9, 0x18(sp)
   15172: da 9c        	c.add	s9, s6
   15174: 66 85        	c.mv	a0, s9
   15176: a2 85        	c.mv	a1, s0
   15178: 02 76        	c.ldsp	a2, 0x20(sp)
   1517a: ef 60 b0 3a  	jal	ra, 0x1bd24 <memcpy>
   1517e: 63 53 a0 03  	bge	zero, s10, 0x151a4 <jinit_c_prep_controller+0x122>
   15182: 22 65        	c.ldsp	a0, 0x8(sp)
   15184: 62 95        	c.add	a0, s8
   15186: c2 65        	c.ldsp	a1, 0x10(sp)
   15188: 2e 95        	c.add	a0, a1
   1518a: da 85        	c.mv	a1, s6
   1518c: 33 06 34 01  	add	a2, s0, s3
   15190: 10 62        	c.ld	a2, 0x0(a2)
   15192: 90 e1        	c.sd	a2, 0x0(a1)
   15194: 10 60        	c.ld	a2, 0x0(s0)
   15196: b3 86 25 01  	add	a3, a1, s2
   1519a: 90 e2        	c.sd	a2, 0x0(a3)
   1519c: a1 05        	c.addi	a1, 0x8
   1519e: 21 04        	c.addi	s0, 0x8
   151a0: e3 96 a5 fe  	bne	a1, a0, 0x1518c <jinit_c_prep_controller+0x10a>
   151a4: 13 95 34 00  	slli	a0, s1, 0x3
   151a8: 56 84        	c.mv	s0, s5
   151aa: 56 95        	c.add	a0, s5
   151ac: 83 a5 4b 04  	lw	a1, 0x44(s7)
   151b0: 23 38 95 01  	sd	s9, 0x10(a0)
   151b4: 52 9b        	c.add	s6, s4
   151b6: 85 04        	c.addi	s1, 0x1
   151b8: 93 8d 0d 06  	addi	s11, s11, 0x60
   151bc: e3 ce b4 f6  	blt	s1, a1, 0x15138 <jinit_c_prep_controller+0xb6>
   151c0: 85 a0        	c.j	0x15220 <jinit_c_prep_controller+0x19e>
   151c2: 03 a5 4b 04  	lw	a0, 0x44(s7)
   151c6: b7 55 01 00  	lui	a1, 0x15
   151ca: 93 85 25 40  	addi	a1, a1, 0x402
   151ce: 0c e4        	c.sd	a1, 0x8(s0)
   151d0: 63 58 a0 04  	bge	zero, a0, 0x15220 <jinit_c_prep_controller+0x19e>
   151d4: 03 b5 0b 05  	ld	a0, 0x50(s7)
   151d8: 01 49        	c.li	s2, 0x0
   151da: 93 04 04 01  	addi	s1, s0, 0x10
   151de: 13 04 c5 01  	addi	s0, a0, 0x1c
   151e2: 03 b5 8b 00  	ld	a0, 0x8(s7)
   151e6: 83 39 05 01  	ld	s3, 0x10(a0)
   151ea: 03 65 04 00  	lwu	a0, 0x0(s0)
   151ee: 83 a5 0b 13  	lw	a1, 0x130(s7)
   151f2: ef 80 71 49  	jal	ra, 0x2de88 <__muldi3>
   151f6: 83 25 c4 fe  	lw	a1, -0x14(s0)
   151fa: 0e 05        	c.slli	a0, 0x3
   151fc: ef 80 d1 4c  	jal	ra, 0x2dec8 <__divdi3>
   15200: 83 a6 4b 13  	lw	a3, 0x134(s7)
   15204: 1b 06 05 00  	addiw	a2, a0, 0x0
   15208: 85 45        	c.li	a1, 0x1
   1520a: 5e 85        	c.mv	a0, s7
   1520c: 82 99        	c.jalr	s3
   1520e: 83 a5 4b 04  	lw	a1, 0x44(s7)
   15212: 88 e0        	c.sd	a0, 0x0(s1)
   15214: 05 09        	c.addi	s2, 0x1
   15216: a1 04        	c.addi	s1, 0x8
   15218: 13 04 04 06  	addi	s0, s0, 0x60
   1521c: e3 43 b9 fc  	blt	s2, a1, 0x151e2 <jinit_c_prep_controller+0x160>
   15220: 45 61        	c.addi16sp	sp, 0x30
   15222: 6f 80 b1 43  	jal	zero, 0x2de5c <__riscv_restore_12>

0000000000015226 <start_pass_prep>:
   15226: ef 82 d1 41  	jal	t0, 0x2de42 <__riscv_save_3>
   1522a: 2a 84        	c.mv	s0, a0
   1522c: 83 34 85 1b  	ld	s1, 0x1b8(a0)
   15230: 99 c5        	c.beqz	a1, 0x1523e <start_pass_prep+0x18>
   15232: 08 60        	c.ld	a0, 0x0(s0)
   15234: 0c 61        	c.ld	a1, 0x0(a0)
   15236: 11 46        	c.li	a2, 0x4
   15238: 10 d5        	c.sw	a2, 0x28(a0)
   1523a: 22 85        	c.mv	a0, s0
   1523c: 82 95        	c.jalr	a1
   1523e: 48 54        	c.lw	a0, 0x2c(s0)
   15240: 83 25 44 13  	lw	a1, 0x134(s0)
   15244: a8 d0        	c.sw	a0, 0x60(s1)
   15246: 23 a2 04 06  	sw	zero, 0x64(s1)
   1524a: 23 a4 04 06  	sw	zero, 0x68(s1)
   1524e: 86 05        	c.slli	a1, 0x1
   15250: ec d4        	c.sw	a1, 0x6c(s1)
   15252: 6f 80 71 42  	jal	zero, 0x2de78 <__riscv_restore_3>

0000000000015256 <pre_process_context>:
   15256: ef 82 d1 3b  	jal	t0, 0x2de12 <__riscv_save_12>
   1525a: 01 11        	c.addi	sp, -0x20
   1525c: 3e 8c        	c.mv	s8, a5
   1525e: 9c 43        	c.lw	a5, 0x0(a5)
   15260: 3a e4        	c.sdsp	a4, 0x8(sp)
   15262: 2e e0        	c.sdsp	a1, 0x0(sp)
   15264: 42 e8        	c.sdsp	a6, 0x10(sp)
   15266: 63 fb 07 19  	bgeu	a5, a6, 0x153fc <pre_process_context+0x1a6>
   1526a: 36 8a        	c.mv	s4, a3
   1526c: 32 8b        	c.mv	s6, a2
   1526e: 2a 8d        	c.mv	s10, a0
   15270: 03 25 45 13  	lw	a0, 0x134(a0)
   15274: 83 3b 8d 1b  	ld	s7, 0x1b8(s10)
   15278: 93 15 15 00  	slli	a1, a0, 0x1
   1527c: 3b 89 a5 00  	addw	s2, a1, a0
   15280: 13 85 0b 01  	addi	a0, s7, 0x10
   15284: 2a ec        	c.sdsp	a0, 0x18(sp)
   15286: 03 65 0b 00  	lwu	a0, 0x0(s6)
   1528a: 9b 05 05 00  	addiw	a1, a0, 0x0
   1528e: 63 f6 45 0b  	bgeu	a1, s4, 0x1533a <pre_process_context+0xe4>
   15292: 03 a6 cb 06  	lw	a2, 0x6c(s7)
   15296: 83 a6 4b 06  	lw	a3, 0x64(s7)
   1529a: bb 05 aa 40  	subw	a1, s4, a0
   1529e: bb 0c d6 40  	subw	s9, a2, a3
   152a2: 63 e3 bc 00  	bltu	s9, a1, 0x152a8 <pre_process_context+0x52>
   152a6: ae 8c        	c.mv	s9, a1
   152a8: 83 35 0d 1d  	ld	a1, 0x1d0(s10)
   152ac: 9c 65        	c.ld	a5, 0x8(a1)
   152ae: 0e 05        	c.slli	a0, 0x3
   152b0: 82 65        	c.ldsp	a1, 0x0(sp)
   152b2: aa 95        	c.add	a1, a0
   152b4: 6a 85        	c.mv	a0, s10
   152b6: 62 66        	c.ldsp	a2, 0x18(sp)
   152b8: 66 87        	c.mv	a4, s9
   152ba: 82 97        	c.jalr	a5
   152bc: 03 a5 0b 06  	lw	a0, 0x60(s7)
   152c0: 83 25 cd 02  	lw	a1, 0x2c(s10)
   152c4: 63 17 b5 04  	bne	a0, a1, 0x15312 <pre_process_context+0xbc>
   152c8: 83 25 4d 04  	lw	a1, 0x44(s10)
   152cc: 63 53 b0 04  	bge	zero, a1, 0x15312 <pre_process_context+0xbc>
   152d0: 03 25 4d 13  	lw	a0, 0x134(s10)
   152d4: 81 49        	c.li	s3, 0x0
   152d6: 63 5b a0 02  	bge	zero, a0, 0x1530c <pre_process_context+0xb6>
   152da: 81 44        	c.li	s1, 0x0
   152dc: 13 95 39 00  	slli	a0, s3, 0x3
   152e0: 5e 95        	c.add	a0, s7
   152e2: 93 0a 05 01  	addi	s5, a0, 0x10
   152e6: 7d 54        	c.li	s0, -0x1
   152e8: 03 b5 0a 00  	ld	a0, 0x0(s5)
   152ec: 83 27 8d 02  	lw	a5, 0x28(s10)
   152f0: 05 47        	c.li	a4, 0x1
   152f2: 81 45        	c.li	a1, 0x0
   152f4: 2a 86        	c.mv	a2, a0
   152f6: a2 86        	c.mv	a3, s0
   152f8: ef 30 70 6a  	jal	ra, 0x1919e <jcopy_sample_rows>
   152fc: 03 25 4d 13  	lw	a0, 0x134(s10)
   15300: 85 24        	c.addiw	s1, 0x1
   15302: 7d 34        	c.addiw	s0, -0x1
   15304: e3 c2 a4 fe  	blt	s1, a0, 0x152e8 <pre_process_context+0x92>
   15308: 83 25 4d 04  	lw	a1, 0x44(s10)
   1530c: 85 09        	c.addi	s3, 0x1
   1530e: e3 c4 b9 fc  	blt	s3, a1, 0x152d6 <pre_process_context+0x80>
   15312: 03 25 0b 00  	lw	a0, 0x0(s6)
   15316: 66 95        	c.add	a0, s9
   15318: 23 20 ab 00  	sw	a0, 0x0(s6)
   1531c: 03 a5 4b 06  	lw	a0, 0x64(s7)
   15320: 03 a6 0b 06  	lw	a2, 0x60(s7)
   15324: bb 05 95 01  	addw	a1, a0, s9
   15328: 03 a5 cb 06  	lw	a0, 0x6c(s7)
   1532c: 3b 06 96 41  	subw	a2, a2, s9
   15330: 23 a2 bb 06  	sw	a1, 0x64(s7)
   15334: 23 a0 cb 06  	sw	a2, 0x60(s7)
   15338: a5 a0        	c.j	0x153a0 <pre_process_context+0x14a>
   1533a: 03 a5 0b 06  	lw	a0, 0x60(s7)
   1533e: 5d ed        	c.bnez	a0, 0x153fc <pre_process_context+0x1a6>
   15340: 83 a5 4b 06  	lw	a1, 0x64(s7)
   15344: 03 a5 cb 06  	lw	a0, 0x6c(s7)
   15348: 63 dc a5 04  	bge	a1, a0, 0x153a0 <pre_process_context+0x14a>
   1534c: 83 25 4d 04  	lw	a1, 0x44(s10)
   15350: 63 53 b0 04  	bge	zero, a1, 0x15396 <pre_process_context+0x140>
   15354: 81 49        	c.li	s3, 0x0
   15356: 03 a4 4b 06  	lw	s0, 0x64(s7)
   1535a: 83 aa cb 06  	lw	s5, 0x6c(s7)
   1535e: 63 57 54 03  	bge	s0, s5, 0x1538c <pre_process_context+0x136>
   15362: 13 95 39 00  	slli	a0, s3, 0x3
   15366: 5e 95        	c.add	a0, s7
   15368: 04 69        	c.ld	s1, 0x10(a0)
   1536a: 83 2c 8d 02  	lw	s9, 0x28(s10)
   1536e: 9b 0d f4 ff  	addiw	s11, s0, -0x1
   15372: 05 47        	c.li	a4, 0x1
   15374: 26 85        	c.mv	a0, s1
   15376: ee 85        	c.mv	a1, s11
   15378: 26 86        	c.mv	a2, s1
   1537a: a2 86        	c.mv	a3, s0
   1537c: e6 87        	c.mv	a5, s9
   1537e: ef 30 10 62  	jal	ra, 0x1919e <jcopy_sample_rows>
   15382: 05 24        	c.addiw	s0, 0x1
   15384: e3 97 8a fe  	bne	s5, s0, 0x15372 <pre_process_context+0x11c>
   15388: 83 25 4d 04  	lw	a1, 0x44(s10)
   1538c: 85 09        	c.addi	s3, 0x1
   1538e: e3 c4 b9 fc  	blt	s3, a1, 0x15356 <pre_process_context+0x100>
   15392: 03 a5 cb 06  	lw	a0, 0x6c(s7)
   15396: 23 a2 ab 06  	sw	a0, 0x64(s7)
   1539a: 03 27 0c 00  	lw	a4, 0x0(s8)
   1539e: 29 a0        	c.j	0x153a8 <pre_process_context+0x152>
   153a0: 03 27 0c 00  	lw	a4, 0x0(s8)
   153a4: 63 99 a5 04  	bne	a1, a0, 0x153f6 <pre_process_context+0x1a0>
   153a8: 03 35 8d 1d  	ld	a0, 0x1d8(s10)
   153ac: 1c 65        	c.ld	a5, 0x8(a0)
   153ae: 03 a6 8b 06  	lw	a2, 0x68(s7)
   153b2: 6a 85        	c.mv	a0, s10
   153b4: e2 65        	c.ldsp	a1, 0x18(sp)
   153b6: a2 66        	c.ldsp	a3, 0x8(sp)
   153b8: 82 97        	c.jalr	a5
   153ba: 03 25 0c 00  	lw	a0, 0x0(s8)
   153be: 05 05        	c.addi	a0, 0x1
   153c0: 23 20 ac 00  	sw	a0, 0x0(s8)
   153c4: 03 25 4d 13  	lw	a0, 0x134(s10)
   153c8: 83 a5 8b 06  	lw	a1, 0x68(s7)
   153cc: 3b 86 a5 00  	addw	a2, a1, a0
   153d0: 83 a5 4b 06  	lw	a1, 0x64(s7)
   153d4: b3 26 26 01  	slt	a3, a2, s2
   153d8: bb 06 d0 40  	subw	a3, zero, a3
   153dc: 75 8e        	c.and	a2, a3
   153de: 23 a4 cb 06  	sw	a2, 0x68(s7)
   153e2: 63 c5 25 01  	blt	a1, s2, 0x153ec <pre_process_context+0x196>
   153e6: 81 45        	c.li	a1, 0x0
   153e8: 23 a2 0b 06  	sw	zero, 0x64(s7)
   153ec: 2e 95        	c.add	a0, a1
   153ee: 23 a6 ab 06  	sw	a0, 0x6c(s7)
   153f2: 03 27 0c 00  	lw	a4, 0x0(s8)
   153f6: 42 65        	c.ldsp	a0, 0x10(sp)
   153f8: e3 67 a7 e8  	bltu	a4, a0, 0x15286 <pre_process_context+0x30>
   153fc: 05 61        	c.addi16sp	sp, 0x20
   153fe: 6f 80 f1 25  	jal	zero, 0x2de5c <__riscv_restore_12>

0000000000015402 <pre_process_data>:
   15402: ef 82 11 21  	jal	t0, 0x2de12 <__riscv_save_12>
   15406: 01 11        	c.addi	sp, -0x20
   15408: 32 8c        	c.mv	s8, a2
   1540a: 10 42        	c.lw	a2, 0x0(a2)
   1540c: 63 78 d6 18  	bgeu	a2, a3, 0x1559c <pre_process_data+0x19a>
   15410: c2 89        	c.mv	s3, a6
   15412: 3e 8a        	c.mv	s4, a5
   15414: 3a 84        	c.mv	s0, a4
   15416: b6 8a        	c.mv	s5, a3
   15418: 2e 8b        	c.mv	s6, a1
   1541a: aa 8c        	c.mv	s9, a0
   1541c: 83 3b 85 1b  	ld	s7, 0x1b8(a0)
   15420: 13 89 0b 01  	addi	s2, s7, 0x10
   15424: 42 ec        	c.sdsp	a6, 0x18(sp)
   15426: 3a e8        	c.sdsp	a4, 0x10(sp)
   15428: 2e e4        	c.sdsp	a1, 0x8(sp)
   1542a: 03 25 0a 00  	lw	a0, 0x0(s4)
   1542e: 63 77 35 17  	bgeu	a0, s3, 0x1559c <pre_process_data+0x19a>
   15432: 83 a4 4c 13  	lw	s1, 0x134(s9)
   15436: 83 a6 4b 06  	lw	a3, 0x64(s7)
   1543a: 3b 85 ca 40  	subw	a0, s5, a2
   1543e: 95 9c        	c.subw	s1, a3
   15440: 63 e3 a4 00  	bltu	s1, a0, 0x15446 <pre_process_data+0x44>
   15444: aa 84        	c.mv	s1, a0
   15446: 03 b5 0c 1d  	ld	a0, 0x1d0(s9)
   1544a: 1c 65        	c.ld	a5, 0x8(a0)
   1544c: 02 16        	c.slli	a2, 0x20
   1544e: 93 55 d6 01  	srli	a1, a2, 0x1d
   15452: da 95        	c.add	a1, s6
   15454: 66 85        	c.mv	a0, s9
   15456: 4a 86        	c.mv	a2, s2
   15458: 26 87        	c.mv	a4, s1
   1545a: 82 97        	c.jalr	a5
   1545c: 03 25 0c 00  	lw	a0, 0x0(s8)
   15460: 26 95        	c.add	a0, s1
   15462: 23 20 ac 00  	sw	a0, 0x0(s8)
   15466: 03 a6 0b 06  	lw	a2, 0x60(s7)
   1546a: 03 a5 4b 06  	lw	a0, 0x64(s7)
   1546e: bb 06 96 40  	subw	a3, a2, s1
   15472: 83 a5 4c 13  	lw	a1, 0x134(s9)
   15476: 23 a0 db 06  	sw	a3, 0x60(s7)
   1547a: 25 9d        	c.addw	a0, s1
   1547c: 23 a2 ab 06  	sw	a0, 0x64(s7)
   15480: 63 1f 96 04  	bne	a2, s1, 0x154de <pre_process_data+0xdc>
   15484: 63 5d b5 04  	bge	a0, a1, 0x154de <pre_process_data+0xdc>
   15488: 03 a5 4c 04  	lw	a0, 0x44(s9)
   1548c: 63 56 a0 04  	bge	zero, a0, 0x154d8 <pre_process_data+0xd6>
   15490: 01 4b        	c.li	s6, 0x0
   15492: 83 a4 4b 06  	lw	s1, 0x64(s7)
   15496: 83 a9 4c 13  	lw	s3, 0x134(s9)
   1549a: 63 d7 34 03  	bge	s1, s3, 0x154c8 <pre_process_data+0xc6>
   1549e: 13 15 3b 00  	slli	a0, s6, 0x3
   154a2: 5e 95        	c.add	a0, s7
   154a4: 00 69        	c.ld	s0, 0x10(a0)
   154a6: 03 ad 8c 02  	lw	s10, 0x28(s9)
   154aa: 9b 8d f4 ff  	addiw	s11, s1, -0x1
   154ae: 05 47        	c.li	a4, 0x1
   154b0: 22 85        	c.mv	a0, s0
   154b2: ee 85        	c.mv	a1, s11
   154b4: 22 86        	c.mv	a2, s0
   154b6: a6 86        	c.mv	a3, s1
   154b8: ea 87        	c.mv	a5, s10
   154ba: ef 30 50 4e  	jal	ra, 0x1919e <jcopy_sample_rows>
   154be: 85 24        	c.addiw	s1, 0x1
   154c0: e3 97 99 fe  	bne	s3, s1, 0x154ae <pre_process_data+0xac>
   154c4: 03 a5 4c 04  	lw	a0, 0x44(s9)
   154c8: 05 0b        	c.addi	s6, 0x1
   154ca: e3 44 ab fc  	blt	s6, a0, 0x15492 <pre_process_data+0x90>
   154ce: 83 a5 4c 13  	lw	a1, 0x134(s9)
   154d2: e2 69        	c.ldsp	s3, 0x18(sp)
   154d4: 42 64        	c.ldsp	s0, 0x10(sp)
   154d6: 22 6b        	c.ldsp	s6, 0x8(sp)
   154d8: 23 a2 bb 06  	sw	a1, 0x64(s7)
   154dc: 19 a0        	c.j	0x154e2 <pre_process_data+0xe0>
   154de: 63 13 b5 02  	bne	a0, a1, 0x15504 <pre_process_data+0x102>
   154e2: 03 b5 8c 1d  	ld	a0, 0x1d8(s9)
   154e6: 1c 65        	c.ld	a5, 0x8(a0)
   154e8: 03 27 0a 00  	lw	a4, 0x0(s4)
   154ec: 66 85        	c.mv	a0, s9
   154ee: ca 85        	c.mv	a1, s2
   154f0: 01 46        	c.li	a2, 0x0
   154f2: a2 86        	c.mv	a3, s0
   154f4: 82 97        	c.jalr	a5
   154f6: 23 a2 0b 06  	sw	zero, 0x64(s7)
   154fa: 03 25 0a 00  	lw	a0, 0x0(s4)
   154fe: 05 05        	c.addi	a0, 0x1
   15500: 23 20 aa 00  	sw	a0, 0x0(s4)
   15504: 03 a5 0b 06  	lw	a0, 0x60(s7)
   15508: 09 e5        	c.bnez	a0, 0x15512 <pre_process_data+0x110>
   1550a: 03 25 0a 00  	lw	a0, 0x0(s4)
   1550e: 63 67 35 01  	bltu	a0, s3, 0x1551c <pre_process_data+0x11a>
   15512: 03 26 0c 00  	lw	a2, 0x0(s8)
   15516: e3 6a 56 f1  	bltu	a2, s5, 0x1542a <pre_process_data+0x28>
   1551a: 49 a0        	c.j	0x1559c <pre_process_data+0x19a>
   1551c: 03 ab 4c 04  	lw	s6, 0x44(s9)
   15520: 63 5b 60 07  	bge	zero, s6, 0x15596 <pre_process_data+0x194>
   15524: 03 b9 0c 05  	ld	s2, 0x50(s9)
   15528: 01 4d        	c.li	s10, 0x0
   1552a: 13 15 3d 00  	slli	a0, s10, 0x3
   1552e: 22 95        	c.add	a0, s0
   15530: 83 3a 05 00  	ld	s5, 0x0(a0)
   15534: 83 29 c9 01  	lw	s3, 0x1c(s2)
   15538: 03 2c 0a 00  	lw	s8, 0x0(s4)
   1553c: 03 24 c9 00  	lw	s0, 0xc(s2)
   15540: 22 85        	c.mv	a0, s0
   15542: e2 85        	c.mv	a1, s8
   15544: ef 80 51 14  	jal	ra, 0x2de88 <__muldi3>
   15548: 9b 04 05 00  	addiw	s1, a0, 0x0
   1554c: 22 85        	c.mv	a0, s0
   1554e: e2 65        	c.ldsp	a1, 0x18(sp)
   15550: ef 80 91 13  	jal	ra, 0x2de88 <__muldi3>
   15554: 01 25        	c.addiw	a0, 0x0
   15556: 63 da a4 02  	bge	s1, a0, 0x1558a <pre_process_data+0x188>
   1555a: 1b 9b 39 00  	slliw	s6, s3, 0x3
   1555e: 9b 8b f4 ff  	addiw	s7, s1, -0x1
   15562: 62 65        	c.ldsp	a0, 0x18(sp)
   15564: bb 05 85 41  	subw	a1, a0, s8
   15568: 22 85        	c.mv	a0, s0
   1556a: ef 80 f1 11  	jal	ra, 0x2de88 <__muldi3>
   1556e: 2a 84        	c.mv	s0, a0
   15570: 05 47        	c.li	a4, 0x1
   15572: 56 85        	c.mv	a0, s5
   15574: de 85        	c.mv	a1, s7
   15576: 56 86        	c.mv	a2, s5
   15578: a6 86        	c.mv	a3, s1
   1557a: da 87        	c.mv	a5, s6
   1557c: ef 30 30 42  	jal	ra, 0x1919e <jcopy_sample_rows>
   15580: 7d 34        	c.addiw	s0, -0x1
   15582: 85 24        	c.addiw	s1, 0x1
   15584: 75 f4        	c.bnez	s0, 0x15570 <pre_process_data+0x16e>
   15586: 03 ab 4c 04  	lw	s6, 0x44(s9)
   1558a: 05 0d        	c.addi	s10, 0x1
   1558c: 13 09 09 06  	addi	s2, s2, 0x60
   15590: 42 64        	c.ldsp	s0, 0x10(sp)
   15592: e3 4c 6d f9  	blt	s10, s6, 0x1552a <pre_process_data+0x128>
   15596: 62 65        	c.ldsp	a0, 0x18(sp)
   15598: 23 20 aa 00  	sw	a0, 0x0(s4)
   1559c: 05 61        	c.addi16sp	sp, 0x20
   1559e: 6f 80 f1 0b  	jal	zero, 0x2de5c <__riscv_restore_12>

00000000000155a2 <jinit_c_coef_controller>:
   155a2: ef 82 d1 08  	jal	t0, 0x2de2e <__riscv_save_7>
   155a6: aa 89        	c.mv	s3, a0
   155a8: 08 65        	c.ld	a0, 0x8(a0)
   155aa: 14 61        	c.ld	a3, 0x0(a0)
   155ac: 2e 89        	c.mv	s2, a1
   155ae: 85 45        	c.li	a1, 0x1
   155b0: 13 06 00 0c  	addi	a2, zero, 0xc0
   155b4: 4e 85        	c.mv	a0, s3
   155b6: 82 96        	c.jalr	a3
   155b8: aa 84        	c.mv	s1, a0
   155ba: 23 b0 a9 1c  	sd	a0, 0x1c0(s3)
   155be: 37 55 01 00  	lui	a0, 0x15
   155c2: 13 05 a5 65  	addi	a0, a0, 0x65a
   155c6: 88 e0        	c.sd	a0, 0x0(s1)
   155c8: 63 03 09 06  	beq	s2, zero, 0x1562e <jinit_c_coef_controller+0x8c>
   155cc: 03 a5 49 04  	lw	a0, 0x44(s3)
   155d0: 63 5d a0 04  	bge	zero, a0, 0x1562a <jinit_c_coef_controller+0x88>
   155d4: 03 b4 09 05  	ld	s0, 0x50(s3)
   155d8: 01 4a        	c.li	s4, 0x0
   155da: 93 84 04 07  	addi	s1, s1, 0x70
   155de: 71 04        	c.addi	s0, 0x1c
   155e0: 03 b5 89 00  	ld	a0, 0x8(s3)
   155e4: 83 3a 85 02  	ld	s5, 0x28(a0)
   155e8: 03 65 04 00  	lwu	a0, 0x0(s0)
   155ec: 83 25 c4 fe  	lw	a1, -0x14(s0)
   155f0: ef 30 70 39  	jal	ra, 0x19186 <jround_up>
   155f4: 03 66 44 00  	lwu	a2, 0x4(s0)
   155f8: 83 25 04 ff  	lw	a1, -0x10(s0)
   155fc: 2a 89        	c.mv	s2, a0
   155fe: 32 85        	c.mv	a0, a2
   15600: ef 30 70 38  	jal	ra, 0x19186 <jround_up>
   15604: 83 27 04 ff  	lw	a5, -0x10(s0)
   15608: 9b 06 09 00  	addiw	a3, s2, 0x0
   1560c: 1b 07 05 00  	addiw	a4, a0, 0x0
   15610: 85 45        	c.li	a1, 0x1
   15612: 4e 85        	c.mv	a0, s3
   15614: 01 46        	c.li	a2, 0x0
   15616: 82 9a        	c.jalr	s5
   15618: 83 a5 49 04  	lw	a1, 0x44(s3)
   1561c: 88 e0        	c.sd	a0, 0x0(s1)
   1561e: 05 0a        	c.addi	s4, 0x1
   15620: a1 04        	c.addi	s1, 0x8
   15622: 13 04 04 06  	addi	s0, s0, 0x60
   15626: e3 4d ba fa  	blt	s4, a1, 0x155e0 <jinit_c_coef_controller+0x3e>
   1562a: 6f 80 31 04  	jal	zero, 0x2de6c <__riscv_restore_7>
   1562e: 03 b5 89 00  	ld	a0, 0x8(s3)
   15632: 14 65        	c.ld	a3, 0x8(a0)
   15634: 85 45        	c.li	a1, 0x1
   15636: 13 06 00 50  	addi	a2, zero, 0x500
   1563a: 4e 85        	c.mv	a0, s3
   1563c: 82 96        	c.jalr	a3
   1563e: 93 85 04 02  	addi	a1, s1, 0x20
   15642: 13 86 04 07  	addi	a2, s1, 0x70
   15646: 88 e1        	c.sd	a0, 0x0(a1)
   15648: a1 05        	c.addi	a1, 0x8
   1564a: 13 05 05 08  	addi	a0, a0, 0x80
   1564e: e3 9c c5 fe  	bne	a1, a2, 0x15646 <jinit_c_coef_controller+0xa4>
   15652: 23 b8 04 06  	sd	zero, 0x70(s1)
   15656: 6f 80 71 01  	jal	zero, 0x2de6c <__riscv_restore_7>

000000000001565a <start_pass_coef>:
   1565a: 01 11        	c.addi	sp, -0x20
   1565c: 06 ec        	c.sdsp	ra, 0x18(sp)
   1565e: 22 e8        	c.sdsp	s0, 0x10(sp)
   15660: 26 e4        	c.sdsp	s1, 0x8(sp)
   15662: 4a e0        	c.sdsp	s2, 0x0(sp)
   15664: 2a 84        	c.mv	s0, a0
   15666: 03 39 05 1c  	ld	s2, 0x1c0(a0)
   1566a: ae 84        	c.mv	s1, a1
   1566c: 23 28 09 00  	sw	zero, 0x10(s2)
   15670: ef 00 a0 08  	jal	ra, 0x156fa <start_iMCU_row>
   15674: 0d 45        	c.li	a0, 0x3
   15676: 63 82 a4 04  	beq	s1, a0, 0x156ba <start_pass_coef+0x60>
   1567a: 09 45        	c.li	a0, 0x2
   1567c: 63 81 a4 02  	beq	s1, a0, 0x1569e <start_pass_coef+0x44>
   15680: b5 e0        	c.bnez	s1, 0x156e4 <start_pass_coef+0x8a>
   15682: 03 35 09 07  	ld	a0, 0x70(s2)
   15686: 19 c5        	c.beqz	a0, 0x15694 <start_pass_coef+0x3a>
   15688: 08 60        	c.ld	a0, 0x0(s0)
   1568a: 0c 61        	c.ld	a1, 0x0(a0)
   1568c: 11 46        	c.li	a2, 0x4
   1568e: 10 d5        	c.sw	a2, 0x28(a0)
   15690: 22 85        	c.mv	a0, s0
   15692: 82 95        	c.jalr	a1
   15694: 37 55 01 00  	lui	a0, 0x15
   15698: 13 05 e5 72  	addi	a0, a0, 0x72e
   1569c: 25 a8        	c.j	0x156d4 <start_pass_coef+0x7a>
   1569e: 03 35 09 07  	ld	a0, 0x70(s2)
   156a2: 19 e5        	c.bnez	a0, 0x156b0 <start_pass_coef+0x56>
   156a4: 08 60        	c.ld	a0, 0x0(s0)
   156a6: 0c 61        	c.ld	a1, 0x0(a0)
   156a8: 11 46        	c.li	a2, 0x4
   156aa: 10 d5        	c.sw	a2, 0x28(a0)
   156ac: 22 85        	c.mv	a0, s0
   156ae: 82 95        	c.jalr	a1
   156b0: 37 65 01 00  	lui	a0, 0x16
   156b4: 13 05 85 af  	addi	a0, a0, -0x508
   156b8: 31 a8        	c.j	0x156d4 <start_pass_coef+0x7a>
   156ba: 03 35 09 07  	ld	a0, 0x70(s2)
   156be: 19 e5        	c.bnez	a0, 0x156cc <start_pass_coef+0x72>
   156c0: 08 60        	c.ld	a0, 0x0(s0)
   156c2: 0c 61        	c.ld	a1, 0x0(a0)
   156c4: 11 46        	c.li	a2, 0x4
   156c6: 10 d5        	c.sw	a2, 0x28(a0)
   156c8: 22 85        	c.mv	a0, s0
   156ca: 82 95        	c.jalr	a1
   156cc: 37 65 01 00  	lui	a0, 0x16
   156d0: 13 05 05 8f  	addi	a0, a0, -0x710
   156d4: 23 34 a9 00  	sd	a0, 0x8(s2)
   156d8: e2 60        	c.ldsp	ra, 0x18(sp)
   156da: 42 64        	c.ldsp	s0, 0x10(sp)
   156dc: a2 64        	c.ldsp	s1, 0x8(sp)
   156de: 02 69        	c.ldsp	s2, 0x0(sp)
   156e0: 05 61        	c.addi16sp	sp, 0x20
   156e2: 82 80        	c.jr	ra
   156e4: 08 60        	c.ld	a0, 0x0(s0)
   156e6: 1c 61        	c.ld	a5, 0x0(a0)
   156e8: 91 45        	c.li	a1, 0x4
   156ea: 0c d5        	c.sw	a1, 0x28(a0)
   156ec: 22 85        	c.mv	a0, s0
   156ee: e2 60        	c.ldsp	ra, 0x18(sp)
   156f0: 42 64        	c.ldsp	s0, 0x10(sp)
   156f2: a2 64        	c.ldsp	s1, 0x8(sp)
   156f4: 02 69        	c.ldsp	s2, 0x0(sp)
   156f6: 05 61        	c.addi16sp	sp, 0x20
   156f8: 82 87        	c.jr	a5

00000000000156fa <start_iMCU_row>:
   156fa: 03 26 c5 13  	lw	a2, 0x13c(a0)
   156fe: 83 35 05 1c  	ld	a1, 0x1c0(a0)
   15702: 89 46        	c.li	a3, 0x2
   15704: 63 44 d6 00  	blt	a2, a3, 0x1570c <start_iMCU_row+0x12>
   15708: 05 45        	c.li	a0, 0x1
   1570a: 21 a8        	c.j	0x15722 <start_iMCU_row+0x28>
   1570c: 03 26 85 13  	lw	a2, 0x138(a0)
   15710: 94 49        	c.lw	a3, 0x10(a1)
   15712: 03 35 05 14  	ld	a0, 0x140(a0)
   15716: 7d 36        	c.addiw	a2, -0x1
   15718: 63 f4 c6 00  	bgeu	a3, a2, 0x15720 <start_iMCU_row+0x26>
   1571c: 48 45        	c.lw	a0, 0xc(a0)
   1571e: 11 a0        	c.j	0x15722 <start_iMCU_row+0x28>
   15720: 28 45        	c.lw	a0, 0x48(a0)
   15722: c8 cd        	c.sw	a0, 0x1c(a1)
   15724: 23 aa 05 00  	sw	zero, 0x14(a1)
   15728: 23 ac 05 00  	sw	zero, 0x18(a1)
   1572c: 82 80        	c.jr	ra

000000000001572e <compress_data>:
   1572e: ef 82 41 6e  	jal	t0, 0x2de12 <__riscv_save_12>
   15732: 39 71        	c.addi16sp	sp, -0x40
   15734: aa 8a        	c.mv	s5, a0
   15736: 03 3a 05 1c  	ld	s4, 0x1c0(a0)
   1573a: 03 29 8a 01  	lw	s2, 0x18(s4)
   1573e: 03 25 ca 01  	lw	a0, 0x1c(s4)
   15742: 2e e8        	c.sdsp	a1, 0x10(sp)
   15744: 63 55 a9 18  	bge	s2, a0, 0x158ce <compress_data+0x1a0>
   15748: 83 a5 0a 16  	lw	a1, 0x160(s5)
   1574c: 83 ad 8a 13  	lw	s11, 0x138(s5)
   15750: 83 24 4a 01  	lw	s1, 0x14(s4)
   15754: fd 35        	c.addiw	a1, -0x1
   15756: 2e f0        	c.sdsp	a1, 0x20(sp)
   15758: 1b 8c fd ff  	addiw	s8, s11, -0x1
   1575c: 93 05 0a 02  	addi	a1, s4, 0x20
   15760: 2e fc        	c.sdsp	a1, 0x38(sp)
   15762: 82 75        	c.ldsp	a1, 0x20(sp)
   15764: 63 ef 95 14  	bltu	a1, s1, 0x158c2 <compress_data+0x194>
   15768: 1b 15 39 00  	slliw	a0, s2, 0x3
   1576c: 2a e4        	c.sdsp	a0, 0x8(sp)
   1576e: 83 a9 ca 13  	lw	s3, 0x13c(s5)
   15772: 63 5b 30 13  	bge	zero, s3, 0x158a8 <compress_data+0x17a>
   15776: 01 44        	c.li	s0, 0x0
   15778: 01 4d        	c.li	s10, 0x0
   1577a: 26 ec        	c.sdsp	s1, 0x18(sp)
   1577c: 13 05 40 03  	addi	a0, zero, 0x34
   15780: 82 75        	c.ldsp	a1, 0x20(sp)
   15782: 63 e4 b4 00  	bltu	s1, a1, 0x1578a <compress_data+0x5c>
   15786: 13 05 40 04  	addi	a0, zero, 0x44
   1578a: 93 1c 34 00  	slli	s9, s0, 0x3
   1578e: b3 85 9a 01  	add	a1, s5, s9
   15792: 83 bd 05 14  	ld	s11, 0x140(a1)
   15796: 6e 95        	c.add	a0, s11
   15798: 83 2b 05 00  	lw	s7, 0x0(a0)
   1579c: 03 a5 0d 04  	lw	a0, 0x40(s11)
   157a0: a6 85        	c.mv	a1, s1
   157a2: ef 80 61 6e  	jal	ra, 0x2de88 <__muldi3>
   157a6: 83 a5 8d 03  	lw	a1, 0x38(s11)
   157aa: 63 5c b0 0e  	bge	zero, a1, 0x158a2 <compress_data+0x174>
   157ae: 22 f4        	c.sdsp	s0, 0x28(sp)
   157b0: 81 49        	c.li	s3, 0x0
   157b2: 1b 0b 05 00  	addiw	s6, a0, 0x0
   157b6: 42 65        	c.ldsp	a0, 0x10(sp)
   157b8: aa 9c        	c.add	s9, a0
   157ba: 22 64        	c.ldsp	s0, 0x8(sp)
   157bc: 5a f8        	c.sdsp	s6, 0x30(sp)
   157be: 03 25 0a 01  	lw	a0, 0x10(s4)
   157c2: 63 68 85 01  	bltu	a0, s8, 0x157d2 <compress_data+0xa4>
   157c6: 03 a5 8d 04  	lw	a0, 0x48(s11)
   157ca: bb 85 29 01  	addw	a1, s3, s2
   157ce: 63 d7 a5 06  	bge	a1, a0, 0x1583c <compress_data+0x10e>
   157d2: 03 b5 0a 1e  	ld	a0, 0x1e0(s5)
   157d6: 04 65        	c.ld	s1, 0x8(a0)
   157d8: 03 b6 0c 00  	ld	a2, 0x0(s9)
   157dc: 13 15 3d 00  	slli	a0, s10, 0x3
   157e0: 52 95        	c.add	a0, s4
   157e2: 14 71        	c.ld	a3, 0x20(a0)
   157e4: 56 85        	c.mv	a0, s5
   157e6: ee 85        	c.mv	a1, s11
   157e8: 22 87        	c.mv	a4, s0
   157ea: da 87        	c.mv	a5, s6
   157ec: 5e 88        	c.mv	a6, s7
   157ee: 82 94        	c.jalr	s1
   157f0: 83 a5 4d 03  	lw	a1, 0x34(s11)
   157f4: 63 db bb 08  	bge	s7, a1, 0x1588a <compress_data+0x15c>
   157f8: 3b 05 7d 01  	addw	a0, s10, s7
   157fc: 0e 05        	c.slli	a0, 0x3
   157fe: 52 95        	c.add	a0, s4
   15800: 08 71        	c.ld	a0, 0x20(a0)
   15802: bb 85 75 41  	subw	a1, a1, s7
   15806: 9e 05        	c.slli	a1, 0x7
   15808: ef 30 10 1f  	jal	ra, 0x191f8 <jzero_far>
   1580c: 83 a5 4d 03  	lw	a1, 0x34(s11)
   15810: 63 dd bb 06  	bge	s7, a1, 0x1588a <compress_data+0x15c>
   15814: 33 85 ab 01  	add	a0, s7, s10
   15818: 0e 05        	c.slli	a0, 0x3
   1581a: e2 76        	c.ldsp	a3, 0x38(sp)
   1581c: 36 95        	c.add	a0, a3
   1581e: 33 06 bd 00  	add	a2, s10, a1
   15822: 0e 06        	c.slli	a2, 0x3
   15824: 36 96        	c.add	a2, a3
   15826: 83 36 85 ff  	ld	a3, -0x8(a0)
   1582a: 83 96 06 00  	lh	a3, 0x0(a3)
   1582e: 18 61        	c.ld	a4, 0x0(a0)
   15830: 21 05        	c.addi	a0, 0x8
   15832: 23 10 d7 00  	sh	a3, 0x0(a4)
   15836: e3 18 c5 fe  	bne	a0, a2, 0x15826 <compress_data+0xf8>
   1583a: 81 a8        	c.j	0x1588a <compress_data+0x15c>
   1583c: 66 8b        	c.mv	s6, s9
   1583e: e2 8c        	c.mv	s9, s8
   15840: ca 84        	c.mv	s1, s2
   15842: 13 19 3d 00  	slli	s2, s10, 0x3
   15846: 33 0c 2a 01  	add	s8, s4, s2
   1584a: 83 a5 4d 03  	lw	a1, 0x34(s11)
   1584e: 03 35 0c 02  	ld	a0, 0x20(s8)
   15852: 9e 05        	c.slli	a1, 0x7
   15854: ef 30 50 1a  	jal	ra, 0x191f8 <jzero_far>
   15858: 83 a5 4d 03  	lw	a1, 0x34(s11)
   1585c: 63 53 b0 02  	bge	zero, a1, 0x15882 <compress_data+0x154>
   15860: 03 35 8c 01  	ld	a0, 0x18(s8)
   15864: 03 55 05 00  	lhu	a0, 0x0(a0)
   15868: 62 77        	c.ldsp	a4, 0x38(sp)
   1586a: 33 06 27 01  	add	a2, a4, s2
   1586e: 93 96 35 00  	slli	a3, a1, 0x3
   15872: 3a 99        	c.add	s2, a4
   15874: ca 96        	c.add	a3, s2
   15876: 18 62        	c.ld	a4, 0x0(a2)
   15878: 21 06        	c.addi	a2, 0x8
   1587a: 23 10 a7 00  	sh	a0, 0x0(a4)
   1587e: e3 1c d6 fe  	bne	a2, a3, 0x15876 <compress_data+0x148>
   15882: 26 89        	c.mv	s2, s1
   15884: 66 8c        	c.mv	s8, s9
   15886: da 8c        	c.mv	s9, s6
   15888: 42 7b        	c.ldsp	s6, 0x30(sp)
   1588a: 03 a5 8d 03  	lw	a0, 0x38(s11)
   1588e: 3b 8d a5 01  	addw	s10, a1, s10
   15892: 85 29        	c.addiw	s3, 0x1
   15894: 21 24        	c.addiw	s0, 0x8
   15896: e3 c4 a9 f2  	blt	s3, a0, 0x157be <compress_data+0x90>
   1589a: 83 a9 ca 13  	lw	s3, 0x13c(s5)
   1589e: e2 64        	c.ldsp	s1, 0x18(sp)
   158a0: 22 74        	c.ldsp	s0, 0x28(sp)
   158a2: 05 04        	c.addi	s0, 0x1
   158a4: e3 4c 34 ed  	blt	s0, s3, 0x1577c <compress_data+0x4e>
   158a8: 03 b5 8a 1e  	ld	a0, 0x1e8(s5)
   158ac: 10 65        	c.ld	a2, 0x8(a0)
   158ae: 56 85        	c.mv	a0, s5
   158b0: e2 75        	c.ldsp	a1, 0x38(sp)
   158b2: 02 96        	c.jalr	a2
   158b4: 1d c5        	c.beqz	a0, 0x158e2 <compress_data+0x1b4>
   158b6: 85 24        	c.addiw	s1, 0x1
   158b8: 02 75        	c.ldsp	a0, 0x20(sp)
   158ba: e3 7a 95 ea  	bgeu	a0, s1, 0x1576e <compress_data+0x40>
   158be: 03 25 ca 01  	lw	a0, 0x1c(s4)
   158c2: 81 44        	c.li	s1, 0x0
   158c4: 05 29        	c.addiw	s2, 0x1
   158c6: 23 2a 0a 00  	sw	zero, 0x14(s4)
   158ca: e3 4c a9 e8  	blt	s2, a0, 0x15762 <compress_data+0x34>
   158ce: 03 25 0a 01  	lw	a0, 0x10(s4)
   158d2: 05 05        	c.addi	a0, 0x1
   158d4: 23 28 aa 00  	sw	a0, 0x10(s4)
   158d8: 56 85        	c.mv	a0, s5
   158da: ef f0 1f e2  	jal	ra, 0x156fa <start_iMCU_row>
   158de: 05 45        	c.li	a0, 0x1
   158e0: 29 a0        	c.j	0x158ea <compress_data+0x1bc>
   158e2: 23 2c 2a 01  	sw	s2, 0x18(s4)
   158e6: 23 2a 9a 00  	sw	s1, 0x14(s4)
   158ea: 21 61        	c.addi16sp	sp, 0x40
   158ec: 6f 80 01 57  	jal	zero, 0x2de5c <__riscv_restore_12>

00000000000158f0 <compress_first_pass>:
   158f0: 71 71        	c.addi16sp	sp, -0xb0
   158f2: 06 f5        	c.sdsp	ra, 0xa8(sp)
   158f4: 22 f1        	c.sdsp	s0, 0xa0(sp)
   158f6: 26 ed        	c.sdsp	s1, 0x98(sp)
   158f8: 4a e9        	c.sdsp	s2, 0x90(sp)
   158fa: 4e e5        	c.sdsp	s3, 0x88(sp)
   158fc: 52 e1        	c.sdsp	s4, 0x80(sp)
   158fe: d6 fc        	c.sdsp	s5, 0x78(sp)
   15900: da f8        	c.sdsp	s6, 0x70(sp)
   15902: de f4        	c.sdsp	s7, 0x68(sp)
   15904: e2 f0        	c.sdsp	s8, 0x60(sp)
   15906: e6 ec        	c.sdsp	s9, 0x58(sp)
   15908: ea e8        	c.sdsp	s10, 0x50(sp)
   1590a: ee e4        	c.sdsp	s11, 0x48(sp)
   1590c: 2a 84        	c.mv	s0, a0
   1590e: 68 41        	c.lw	a0, 0x44(a0)
   15910: 2e e4        	c.sdsp	a1, 0x8(sp)
   15912: 63 52 a0 1c  	bge	zero, a0, 0x15ad6 <compress_first_pass+0x1e6>
   15916: 83 3a 04 1c  	ld	s5, 0x1c0(s0)
   1591a: 03 25 84 13  	lw	a0, 0x138(s0)
   1591e: 83 3b 04 05  	ld	s7, 0x50(s0)
   15922: 81 45        	c.li	a1, 0x0
   15924: 7d 35        	c.addiw	a0, -0x1
   15926: 2a f0        	c.sdsp	a0, 0x20(sp)
   15928: 22 fc        	c.sdsp	s0, 0x38(sp)
   1592a: 56 e8        	c.sdsp	s5, 0x10(sp)
   1592c: 08 64        	c.ld	a0, 0x8(s0)
   1592e: 03 39 05 04  	ld	s2, 0x40(a0)
   15932: 2e ec        	c.sdsp	a1, 0x18(sp)
   15934: 13 9c 35 00  	slli	s8, a1, 0x3
   15938: 33 85 8a 01  	add	a0, s5, s8
   1593c: 83 39 05 07  	ld	s3, 0x70(a0)
   15940: 83 a5 0a 01  	lw	a1, 0x10(s5)
   15944: 83 a4 cb 00  	lw	s1, 0xc(s7)
   15948: 26 85        	c.mv	a0, s1
   1594a: ef 80 e1 53  	jal	ra, 0x2de88 <__muldi3>
   1594e: 1b 06 05 00  	addiw	a2, a0, 0x0
   15952: 05 47        	c.li	a4, 0x1
   15954: 22 85        	c.mv	a0, s0
   15956: ce 85        	c.mv	a1, s3
   15958: a6 86        	c.mv	a3, s1
   1595a: 02 99        	c.jalr	s2
   1595c: 83 a9 0a 01  	lw	s3, 0x10(s5)
   15960: aa e0        	c.sdsp	a0, 0x40(sp)
   15962: 02 75        	c.ldsp	a0, 0x20(sp)
   15964: 63 f5 a9 00  	bgeu	s3, a0, 0x1596e <compress_first_pass+0x7e>
   15968: 03 a9 cb 00  	lw	s2, 0xc(s7)
   1596c: 21 a8        	c.j	0x15984 <compress_first_pass+0x94>
   1596e: 03 a9 cb 00  	lw	s2, 0xc(s7)
   15972: 03 e5 0b 02  	lwu	a0, 0x20(s7)
   15976: 93 15 09 02  	slli	a1, s2, 0x20
   1597a: 81 91        	c.srli	a1, 0x20
   1597c: ef 80 01 58  	jal	ra, 0x2defc <__umoddi3>
   15980: 11 c1        	c.beqz	a0, 0x15984 <compress_first_pass+0x94>
   15982: 2a 89        	c.mv	s2, a0
   15984: 03 ab 8b 00  	lw	s6, 0x8(s7)
   15988: 03 e4 cb 01  	lwu	s0, 0x1c(s7)
   1598c: 13 15 0b 02  	slli	a0, s6, 0x20
   15990: 93 54 05 02  	srli	s1, a0, 0x20
   15994: 22 85        	c.mv	a0, s0
   15996: a6 85        	c.mv	a1, s1
   15998: ef 80 41 56  	jal	ra, 0x2defc <__umoddi3>
   1599c: 9b 05 05 00  	addiw	a1, a0, 0x0
   159a0: 63 54 b0 00  	bge	zero, a1, 0x159a8 <compress_first_pass+0xb8>
   159a4: 33 05 ab 40  	sub	a0, s6, a0
   159a8: 9b 0c 04 00  	addiw	s9, s0, 0x0
   159ac: 1b 0d 09 00  	addiw	s10, s2, 0x0
   159b0: 1b 0a 05 00  	addiw	s4, a0, 0x0
   159b4: 63 5d a0 07  	bge	zero, s10, 0x15a2e <compress_first_pass+0x13e>
   159b8: 26 f4        	c.sdsp	s1, 0x28(sp)
   159ba: 81 44        	c.li	s1, 0x0
   159bc: a2 6d        	c.ldsp	s11, 0x8(sp)
   159be: e2 9d        	c.add	s11, s8
   159c0: 13 15 0a 02  	slli	a0, s4, 0x20
   159c4: 13 5c 95 01  	srli	s8, a0, 0x19
   159c8: 9b 09 09 00  	addiw	s3, s2, 0x0
   159cc: 93 1a 74 00  	slli	s5, s0, 0x7
   159d0: 33 05 5c 01  	add	a0, s8, s5
   159d4: 2a f8        	c.sdsp	a0, 0x30(sp)
   159d6: 62 75        	c.ldsp	a0, 0x38(sp)
   159d8: 03 36 05 1e  	ld	a2, 0x1e0(a0)
   159dc: 93 95 34 00  	slli	a1, s1, 0x3
   159e0: 86 66        	c.ldsp	a3, 0x40(sp)
   159e2: b6 95        	c.add	a1, a3
   159e4: 03 b9 05 00  	ld	s2, 0x0(a1)
   159e8: 00 66        	c.ld	s0, 0x8(a2)
   159ea: 03 b6 0d 00  	ld	a2, 0x0(s11)
   159ee: 1b 97 34 00  	slliw	a4, s1, 0x3
   159f2: de 85        	c.mv	a1, s7
   159f4: ca 86        	c.mv	a3, s2
   159f6: 81 47        	c.li	a5, 0x0
   159f8: 66 88        	c.mv	a6, s9
   159fa: 02 94        	c.jalr	s0
   159fc: 63 52 40 03  	bge	zero, s4, 0x15a20 <compress_first_pass+0x130>
   15a00: 33 04 59 01  	add	s0, s2, s5
   15a04: 22 85        	c.mv	a0, s0
   15a06: e2 85        	c.mv	a1, s8
   15a08: ef 30 00 7f  	jal	ra, 0x191f8 <jzero_far>
   15a0c: 03 55 04 f8  	lhu	a0, -0x80(s0)
   15a10: c2 75        	c.ldsp	a1, 0x30(sp)
   15a12: 2e 99        	c.add	s2, a1
   15a14: 23 10 a4 00  	sh	a0, 0x0(s0)
   15a18: 13 04 04 08  	addi	s0, s0, 0x80
   15a1c: e3 1c 24 ff  	bne	s0, s2, 0x15a14 <compress_first_pass+0x124>
   15a20: 85 04        	c.addi	s1, 0x1
   15a22: e3 9a 34 fb  	bne	s1, s3, 0x159d6 <compress_first_pass+0xe6>
   15a26: c2 6a        	c.ldsp	s5, 0x10(sp)
   15a28: 83 a9 0a 01  	lw	s3, 0x10(s5)
   15a2c: a2 74        	c.ldsp	s1, 0x28(sp)
   15a2e: 02 75        	c.ldsp	a0, 0x20(sp)
   15a30: 63 9a a9 08  	bne	s3, a0, 0x15ac4 <compress_first_pass+0x1d4>
   15a34: 3b 04 9a 01  	addw	s0, s4, s9
   15a38: 22 f8        	c.sdsp	s0, 0x30(sp)
   15a3a: 02 14        	c.slli	s0, 0x20
   15a3c: 13 55 04 02  	srli	a0, s0, 0x20
   15a40: a6 85        	c.mv	a1, s1
   15a42: ef 80 e1 48  	jal	ra, 0x2ded0 <__udivdi3>
   15a46: 83 a5 cb 00  	lw	a1, 0xc(s7)
   15a4a: 63 5d bd 06  	bge	s10, a1, 0x15ac4 <compress_first_pass+0x1d4>
   15a4e: 65 80        	c.srli	s0, 0x19
   15a50: 22 f4        	c.sdsp	s0, 0x28(sp)
   15a52: 9b 0d fb ff  	addiw	s11, s6, -0x1
   15a56: 13 19 7b 00  	slli	s2, s6, 0x7
   15a5a: 93 9c 74 00  	slli	s9, s1, 0x7
   15a5e: 9e 0d        	c.slli	s11, 0x7
   15a60: 1b 0c 05 00  	addiw	s8, a0, 0x0
   15a64: 13 15 3d 00  	slli	a0, s10, 0x3
   15a68: 86 65        	c.ldsp	a1, 0x40(sp)
   15a6a: 2e 95        	c.add	a0, a1
   15a6c: 03 3a 05 00  	ld	s4, 0x0(a0)
   15a70: 83 39 85 ff  	ld	s3, -0x8(a0)
   15a74: 52 85        	c.mv	a0, s4
   15a76: a2 75        	c.ldsp	a1, 0x28(sp)
   15a78: ef 30 00 78  	jal	ra, 0x191f8 <jzero_far>
   15a7c: 42 75        	c.ldsp	a0, 0x30(sp)
   15a7e: 63 6e 65 03  	bltu	a0, s6, 0x15aba <compress_first_pass+0x1ca>
   15a82: 81 4a        	c.li	s5, 0x0
   15a84: 81 44        	c.li	s1, 0x0
   15a86: 52 84        	c.mv	s0, s4
   15a88: 4a 85        	c.mv	a0, s2
   15a8a: d6 85        	c.mv	a1, s5
   15a8c: ef 80 c1 3f  	jal	ra, 0x2de88 <__muldi3>
   15a90: 63 5f 60 01  	bge	zero, s6, 0x15aae <compress_first_pass+0x1be>
   15a94: b3 85 b9 01  	add	a1, s3, s11
   15a98: 83 d5 05 00  	lhu	a1, 0x0(a1)
   15a9c: 66 95        	c.add	a0, s9
   15a9e: 52 95        	c.add	a0, s4
   15aa0: 22 86        	c.mv	a2, s0
   15aa2: 23 10 b6 00  	sh	a1, 0x0(a2)
   15aa6: 13 06 06 08  	addi	a2, a2, 0x80
   15aaa: e3 1c a6 fe  	bne	a2, a0, 0x15aa2 <compress_first_pass+0x1b2>
   15aae: ca 99        	c.add	s3, s2
   15ab0: 85 24        	c.addiw	s1, 0x1
   15ab2: 4a 94        	c.add	s0, s2
   15ab4: 85 0a        	c.addi	s5, 0x1
   15ab6: e3 e9 84 fd  	bltu	s1, s8, 0x15a88 <compress_first_pass+0x198>
   15aba: 03 a5 cb 00  	lw	a0, 0xc(s7)
   15abe: 05 0d        	c.addi	s10, 0x1
   15ac0: e3 42 ad fa  	blt	s10, a0, 0x15a64 <compress_first_pass+0x174>
   15ac4: 62 74        	c.ldsp	s0, 0x38(sp)
   15ac6: 68 40        	c.lw	a0, 0x44(s0)
   15ac8: e2 65        	c.ldsp	a1, 0x18(sp)
   15aca: 85 05        	c.addi	a1, 0x1
   15acc: 93 8b 0b 06  	addi	s7, s7, 0x60
   15ad0: c2 6a        	c.ldsp	s5, 0x10(sp)
   15ad2: e3 cd a5 e4  	blt	a1, a0, 0x1592c <compress_first_pass+0x3c>
   15ad6: 22 85        	c.mv	a0, s0
   15ad8: aa 70        	c.ldsp	ra, 0xa8(sp)
   15ada: 0a 74        	c.ldsp	s0, 0xa0(sp)
   15adc: ea 64        	c.ldsp	s1, 0x98(sp)
   15ade: 4a 69        	c.ldsp	s2, 0x90(sp)
   15ae0: aa 69        	c.ldsp	s3, 0x88(sp)
   15ae2: 0a 6a        	c.ldsp	s4, 0x80(sp)
   15ae4: e6 7a        	c.ldsp	s5, 0x78(sp)
   15ae6: 46 7b        	c.ldsp	s6, 0x70(sp)
   15ae8: a6 7b        	c.ldsp	s7, 0x68(sp)
   15aea: 06 7c        	c.ldsp	s8, 0x60(sp)
   15aec: e6 6c        	c.ldsp	s9, 0x58(sp)
   15aee: 46 6d        	c.ldsp	s10, 0x50(sp)
   15af0: a6 6d        	c.ldsp	s11, 0x48(sp)
   15af2: 4d 61        	c.addi16sp	sp, 0xb0
   15af4: 6f 00 40 00  	jal	zero, 0x15af8 <compress_output>

0000000000015af8 <compress_output>:
   15af8: ef 82 a1 31  	jal	t0, 0x2de12 <__riscv_save_12>
   15afc: 79 71        	c.addi16sp	sp, -0x30
   15afe: 2a 89        	c.mv	s2, a0
   15b00: 03 25 c5 13  	lw	a0, 0x13c(a0)
   15b04: 03 3c 09 1c  	ld	s8, 0x1c0(s2)
   15b08: 63 56 a0 04  	bge	zero, a0, 0x15b54 <compress_output+0x5c>
   15b0c: 01 4b        	c.li	s6, 0x0
   15b0e: 93 04 09 14  	addi	s1, s2, 0x140
   15b12: 00 08        	c.addi4spn	s0, sp, 0x10
   15b14: 88 60        	c.ld	a0, 0x0(s1)
   15b16: 83 35 89 00  	ld	a1, 0x8(s2)
   15b1a: 50 41        	c.lw	a2, 0x4(a0)
   15b1c: 03 ba 05 04  	ld	s4, 0x40(a1)
   15b20: 0e 06        	c.slli	a2, 0x3
   15b22: 62 96        	c.add	a2, s8
   15b24: 83 39 06 07  	ld	s3, 0x70(a2)
   15b28: 83 25 0c 01  	lw	a1, 0x10(s8)
   15b2c: 83 2a c5 00  	lw	s5, 0xc(a0)
   15b30: 56 85        	c.mv	a0, s5
   15b32: ef 80 61 35  	jal	ra, 0x2de88 <__muldi3>
   15b36: 1b 06 05 00  	addiw	a2, a0, 0x0
   15b3a: 4a 85        	c.mv	a0, s2
   15b3c: ce 85        	c.mv	a1, s3
   15b3e: d6 86        	c.mv	a3, s5
   15b40: 01 47        	c.li	a4, 0x0
   15b42: 02 9a        	c.jalr	s4
   15b44: 83 25 c9 13  	lw	a1, 0x13c(s2)
   15b48: 08 e0        	c.sd	a0, 0x0(s0)
   15b4a: 05 0b        	c.addi	s6, 0x1
   15b4c: 21 04        	c.addi	s0, 0x8
   15b4e: a1 04        	c.addi	s1, 0x8
   15b50: e3 42 bb fc  	blt	s6, a1, 0x15b14 <compress_output+0x1c>
   15b54: 03 26 8c 01  	lw	a2, 0x18(s8)
   15b58: 03 25 cc 01  	lw	a0, 0x1c(s8)
   15b5c: 63 53 a6 0c  	bge	a2, a0, 0x15c22 <compress_output+0x12a>
   15b60: 83 29 4c 01  	lw	s3, 0x14(s8)
   15b64: 83 25 09 16  	lw	a1, 0x160(s2)
   15b68: 93 0d 0c 02  	addi	s11, s8, 0x20
   15b6c: 13 0b 8c 02  	addi	s6, s8, 0x28
   15b70: 93 0b 01 01  	addi	s7, sp, 0x10
   15b74: 62 e0        	c.sdsp	s8, 0x0(sp)
   15b76: 63 f0 b9 0a  	bgeu	s3, a1, 0x15c16 <compress_output+0x11e>
   15b7a: 32 e4        	c.sdsp	a2, 0x8(sp)
   15b7c: 13 1c 36 00  	slli	s8, a2, 0x3
   15b80: 83 2c c9 13  	lw	s9, 0x13c(s2)
   15b84: 63 59 90 07  	bge	zero, s9, 0x15bf6 <compress_output+0xfe>
   15b88: 01 4d        	c.li	s10, 0x0
   15b8a: 81 44        	c.li	s1, 0x0
   15b8c: 13 1a 3d 00  	slli	s4, s10, 0x3
   15b90: 33 05 49 01  	add	a0, s2, s4
   15b94: 03 35 05 14  	ld	a0, 0x140(a0)
   15b98: 83 2a 85 03  	lw	s5, 0x38(a0)
   15b9c: 63 5a 50 05  	bge	zero, s5, 0x15bf0 <compress_output+0xf8>
   15ba0: 40 59        	c.lw	s0, 0x34(a0)
   15ba2: 22 85        	c.mv	a0, s0
   15ba4: ce 85        	c.mv	a1, s3
   15ba6: ef 80 21 2e  	jal	ra, 0x2de88 <__muldi3>
   15baa: 5e 9a        	c.add	s4, s7
   15bac: 03 38 0a 00  	ld	a6, 0x0(s4)
   15bb0: 81 45        	c.li	a1, 0x0
   15bb2: 02 15        	c.slli	a0, 0x20
   15bb4: 01 91        	c.srli	a0, 0x20
   15bb6: 62 98        	c.add	a6, s8
   15bb8: 13 06 f4 ff  	addi	a2, s0, -0x1
   15bbc: 02 16        	c.slli	a2, 0x20
   15bbe: 75 82        	c.srli	a2, 0x1d
   15bc0: 5a 96        	c.add	a2, s6
   15bc2: 1e 05        	c.slli	a0, 0x7
   15bc4: 63 53 80 02  	bge	zero, s0, 0x15bea <compress_output+0xf2>
   15bc8: 93 96 35 00  	slli	a3, a1, 0x3
   15bcc: c2 96        	c.add	a3, a6
   15bce: 94 62        	c.ld	a3, 0x0(a3)
   15bd0: 93 97 34 00  	slli	a5, s1, 0x3
   15bd4: 33 07 f6 00  	add	a4, a2, a5
   15bd8: aa 96        	c.add	a3, a0
   15bda: ee 97        	c.add	a5, s11
   15bdc: a1 9c        	c.addw	s1, s0
   15bde: 94 e3        	c.sd	a3, 0x0(a5)
   15be0: 93 86 06 08  	addi	a3, a3, 0x80
   15be4: a1 07        	c.addi	a5, 0x8
   15be6: e3 9c e7 fe  	bne	a5, a4, 0x15bde <compress_output+0xe6>
   15bea: 85 05        	c.addi	a1, 0x1
   15bec: e3 9c 55 fd  	bne	a1, s5, 0x15bc4 <compress_output+0xcc>
   15bf0: 05 0d        	c.addi	s10, 0x1
   15bf2: e3 1d 9d f9  	bne	s10, s9, 0x15b8c <compress_output+0x94>
   15bf6: 03 35 89 1e  	ld	a0, 0x1e8(s2)
   15bfa: 10 65        	c.ld	a2, 0x8(a0)
   15bfc: 4a 85        	c.mv	a0, s2
   15bfe: ee 85        	c.mv	a1, s11
   15c00: 02 96        	c.jalr	a2
   15c02: 15 c9        	c.beqz	a0, 0x15c36 <compress_output+0x13e>
   15c04: 83 25 09 16  	lw	a1, 0x160(s2)
   15c08: 85 29        	c.addiw	s3, 0x1
   15c0a: e3 eb b9 f6  	bltu	s3, a1, 0x15b80 <compress_output+0x88>
   15c0e: 02 6c        	c.ldsp	s8, 0x0(sp)
   15c10: 03 25 cc 01  	lw	a0, 0x1c(s8)
   15c14: 22 66        	c.ldsp	a2, 0x8(sp)
   15c16: 81 49        	c.li	s3, 0x0
   15c18: 05 06        	c.addi	a2, 0x1
   15c1a: 23 2a 0c 00  	sw	zero, 0x14(s8)
   15c1e: e3 4c a6 f4  	blt	a2, a0, 0x15b76 <compress_output+0x7e>
   15c22: 03 25 0c 01  	lw	a0, 0x10(s8)
   15c26: 05 05        	c.addi	a0, 0x1
   15c28: 23 28 ac 00  	sw	a0, 0x10(s8)
   15c2c: 4a 85        	c.mv	a0, s2
   15c2e: ef f0 df ac  	jal	ra, 0x156fa <start_iMCU_row>
   15c32: 05 45        	c.li	a0, 0x1
   15c34: 31 a0        	c.j	0x15c40 <compress_output+0x148>
   15c36: 82 65        	c.ldsp	a1, 0x0(sp)
   15c38: 22 66        	c.ldsp	a2, 0x8(sp)
   15c3a: 90 cd        	c.sw	a2, 0x18(a1)
   15c3c: 23 aa 35 01  	sw	s3, 0x14(a1)
   15c40: 45 61        	c.addi16sp	sp, 0x30
   15c42: 6f 80 a1 21  	jal	zero, 0x2de5c <__riscv_restore_12>

0000000000015c46 <jinit_color_converter>:
   15c46: 01 11        	c.addi	sp, -0x20
   15c48: 06 ec        	c.sdsp	ra, 0x18(sp)
   15c4a: 22 e8        	c.sdsp	s0, 0x10(sp)
   15c4c: 26 e4        	c.sdsp	s1, 0x8(sp)
   15c4e: 4a e0        	c.sdsp	s2, 0x0(sp)
   15c50: 2a 84        	c.mv	s0, a0
   15c52: 08 65        	c.ld	a0, 0x8(a0)
   15c54: 14 61        	c.ld	a3, 0x0(a0)
   15c56: 85 45        	c.li	a1, 0x1
   15c58: 61 46        	c.li	a2, 0x18
   15c5a: 22 85        	c.mv	a0, s0
   15c5c: 82 96        	c.jalr	a3
   15c5e: aa 84        	c.mv	s1, a0
   15c60: 48 58        	c.lw	a0, 0x34(s0)
   15c62: b7 65 01 00  	lui	a1, 0x16
   15c66: 93 85 05 e0  	addi	a1, a1, -0x200
   15c6a: 8c e0        	c.sd	a1, 0x0(s1)
   15c6c: 13 06 e5 ff  	addi	a2, a0, -0x2
   15c70: 89 45        	c.li	a1, 0x2
   15c72: 23 38 94 1c  	sd	s1, 0x1d0(s0)
   15c76: 63 6b b6 00  	bltu	a2, a1, 0x15c8c <jinit_color_converter+0x46>
   15c7a: 13 06 c5 ff  	addi	a2, a0, -0x4
   15c7e: 63 78 b6 06  	bgeu	a2, a1, 0x15cee <jinit_color_converter+0xa8>
   15c82: 08 58        	c.lw	a0, 0x30(s0)
   15c84: 91 45        	c.li	a1, 0x4
   15c86: 63 17 b5 00  	bne	a0, a1, 0x15c94 <jinit_color_converter+0x4e>
   15c8a: 19 a8        	c.j	0x15ca0 <jinit_color_converter+0x5a>
   15c8c: 08 58        	c.lw	a0, 0x30(s0)
   15c8e: 8d 45        	c.li	a1, 0x3
   15c90: 63 08 b5 00  	beq	a0, a1, 0x15ca0 <jinit_color_converter+0x5a>
   15c94: 08 60        	c.ld	a0, 0x0(s0)
   15c96: 0c 61        	c.ld	a1, 0x0(a0)
   15c98: 1d 46        	c.li	a2, 0x7
   15c9a: 10 d5        	c.sw	a2, 0x28(a0)
   15c9c: 22 85        	c.mv	a0, s0
   15c9e: 82 95        	c.jalr	a1
   15ca0: 28 44        	c.lw	a0, 0x48(s0)
   15ca2: 93 05 f5 ff  	addi	a1, a0, -0x1
   15ca6: 11 46        	c.li	a2, 0x4
   15ca8: 63 6a b6 10  	bltu	a2, a1, 0x15dbc <jinit_color_converter+0x176>
   15cac: 8a 05        	c.slli	a1, 0x2
   15cae: 37 05 03 00  	lui	a0, 0x30
   15cb2: 13 05 c5 1f  	addi	a0, a0, 0x1fc
   15cb6: 2e 95        	c.add	a0, a1
   15cb8: 08 41        	c.lw	a0, 0x0(a0)
   15cba: 02 85        	c.jr	a0
   15cbc: 68 40        	c.lw	a0, 0x44(s0)
   15cbe: 85 45        	c.li	a1, 0x1
   15cc0: 63 08 b5 00  	beq	a0, a1, 0x15cd0 <jinit_color_converter+0x8a>
   15cc4: 08 60        	c.ld	a0, 0x0(s0)
   15cc6: 0c 61        	c.ld	a1, 0x0(a0)
   15cc8: 21 46        	c.li	a2, 0x8
   15cca: 10 d5        	c.sw	a2, 0x28(a0)
   15ccc: 22 85        	c.mv	a0, s0
   15cce: 82 95        	c.jalr	a1
   15cd0: 48 58        	c.lw	a0, 0x34(s0)
   15cd2: 8d 45        	c.li	a1, 0x3
   15cd4: 63 08 b5 00  	beq	a0, a1, 0x15ce4 <jinit_color_converter+0x9e>
   15cd8: 89 45        	c.li	a1, 0x2
   15cda: 63 09 b5 10  	beq	a0, a1, 0x15dec <jinit_color_converter+0x1a6>
   15cde: 85 45        	c.li	a1, 0x1
   15ce0: 63 13 b5 0c  	bne	a0, a1, 0x15da6 <jinit_color_converter+0x160>
   15ce4: 37 65 01 00  	lui	a0, 0x16
   15ce8: 13 05 25 e0  	addi	a0, a0, -0x1fe
   15cec: cd a8        	c.j	0x15dde <jinit_color_converter+0x198>
   15cee: 85 45        	c.li	a1, 0x1
   15cf0: 63 19 b5 08  	bne	a0, a1, 0x15d82 <jinit_color_converter+0x13c>
   15cf4: 08 58        	c.lw	a0, 0x30(s0)
   15cf6: e3 1f b5 f8  	bne	a0, a1, 0x15c94 <jinit_color_converter+0x4e>
   15cfa: 5d b7        	c.j	0x15ca0 <jinit_color_converter+0x5a>
   15cfc: 68 40        	c.lw	a0, 0x44(s0)
   15cfe: 91 45        	c.li	a1, 0x4
   15d00: 63 08 b5 00  	beq	a0, a1, 0x15d10 <jinit_color_converter+0xca>
   15d04: 08 60        	c.ld	a0, 0x0(s0)
   15d06: 0c 61        	c.ld	a1, 0x0(a0)
   15d08: 21 46        	c.li	a2, 0x8
   15d0a: 10 d5        	c.sw	a2, 0x28(a0)
   15d0c: 22 85        	c.mv	a0, s0
   15d0e: 82 95        	c.jalr	a1
   15d10: 48 58        	c.lw	a0, 0x34(s0)
   15d12: 95 45        	c.li	a1, 0x5
   15d14: 63 01 b5 0c  	beq	a0, a1, 0x15dd6 <jinit_color_converter+0x190>
   15d18: 91 45        	c.li	a1, 0x4
   15d1a: 63 16 b5 08  	bne	a0, a1, 0x15da6 <jinit_color_converter+0x160>
   15d1e: 37 65 01 00  	lui	a0, 0x16
   15d22: 13 05 65 e4  	addi	a0, a0, -0x1ba
   15d26: 88 e0        	c.sd	a0, 0x0(s1)
   15d28: 37 65 01 00  	lui	a0, 0x16
   15d2c: 13 05 85 0b  	addi	a0, a0, 0xb8
   15d30: 7d a0        	c.j	0x15dde <jinit_color_converter+0x198>
   15d32: 68 40        	c.lw	a0, 0x44(s0)
   15d34: 0d 49        	c.li	s2, 0x3
   15d36: 63 08 25 01  	beq	a0, s2, 0x15d46 <jinit_color_converter+0x100>
   15d3a: 08 60        	c.ld	a0, 0x0(s0)
   15d3c: 0c 61        	c.ld	a1, 0x0(a0)
   15d3e: 21 46        	c.li	a2, 0x8
   15d40: 10 d5        	c.sw	a2, 0x28(a0)
   15d42: 22 85        	c.mv	a0, s0
   15d44: 82 95        	c.jalr	a1
   15d46: 48 58        	c.lw	a0, 0x34(s0)
   15d48: 63 07 25 09  	beq	a0, s2, 0x15dd6 <jinit_color_converter+0x190>
   15d4c: 89 45        	c.li	a1, 0x2
   15d4e: 63 1c b5 04  	bne	a0, a1, 0x15da6 <jinit_color_converter+0x160>
   15d52: 37 65 01 00  	lui	a0, 0x16
   15d56: 13 05 65 e4  	addi	a0, a0, -0x1ba
   15d5a: 88 e0        	c.sd	a0, 0x0(s1)
   15d5c: 37 65 01 00  	lui	a0, 0x16
   15d60: 13 05 85 fc  	addi	a0, a0, -0x38
   15d64: ad a8        	c.j	0x15dde <jinit_color_converter+0x198>
   15d66: 68 40        	c.lw	a0, 0x44(s0)
   15d68: 11 49        	c.li	s2, 0x4
   15d6a: 63 08 25 01  	beq	a0, s2, 0x15d7a <jinit_color_converter+0x134>
   15d6e: 08 60        	c.ld	a0, 0x0(s0)
   15d70: 0c 61        	c.ld	a1, 0x0(a0)
   15d72: 21 46        	c.li	a2, 0x8
   15d74: 10 d5        	c.sw	a2, 0x28(a0)
   15d76: 22 85        	c.mv	a0, s0
   15d78: 82 95        	c.jalr	a1
   15d7a: 48 58        	c.lw	a0, 0x34(s0)
   15d7c: 63 15 25 03  	bne	a0, s2, 0x15da6 <jinit_color_converter+0x160>
   15d80: 99 a8        	c.j	0x15dd6 <jinit_color_converter+0x190>
   15d82: 08 58        	c.lw	a0, 0x30(s0)
   15d84: e3 4e a0 f0  	blt	zero, a0, 0x15ca0 <jinit_color_converter+0x5a>
   15d88: 31 b7        	c.j	0x15c94 <jinit_color_converter+0x4e>
   15d8a: 68 40        	c.lw	a0, 0x44(s0)
   15d8c: 8d 45        	c.li	a1, 0x3
   15d8e: 63 08 b5 00  	beq	a0, a1, 0x15d9e <jinit_color_converter+0x158>
   15d92: 08 60        	c.ld	a0, 0x0(s0)
   15d94: 0c 61        	c.ld	a1, 0x0(a0)
   15d96: 21 46        	c.li	a2, 0x8
   15d98: 10 d5        	c.sw	a2, 0x28(a0)
   15d9a: 22 85        	c.mv	a0, s0
   15d9c: 82 95        	c.jalr	a1
   15d9e: 48 58        	c.lw	a0, 0x34(s0)
   15da0: 89 45        	c.li	a1, 0x2
   15da2: 63 0a b5 02  	beq	a0, a1, 0x15dd6 <jinit_color_converter+0x190>
   15da6: 08 60        	c.ld	a0, 0x0(s0)
   15da8: 1c 61        	c.ld	a5, 0x0(a0)
   15daa: e5 45        	c.li	a1, 0x19
   15dac: 0c d5        	c.sw	a1, 0x28(a0)
   15dae: 22 85        	c.mv	a0, s0
   15db0: e2 60        	c.ldsp	ra, 0x18(sp)
   15db2: 42 64        	c.ldsp	s0, 0x10(sp)
   15db4: a2 64        	c.ldsp	s1, 0x8(sp)
   15db6: 02 69        	c.ldsp	s2, 0x0(sp)
   15db8: 05 61        	c.addi16sp	sp, 0x20
   15dba: 82 87        	c.jr	a5
   15dbc: 4c 58        	c.lw	a1, 0x34(s0)
   15dbe: 63 16 b5 00  	bne	a0, a1, 0x15dca <jinit_color_converter+0x184>
   15dc2: 68 40        	c.lw	a0, 0x44(s0)
   15dc4: 0c 58        	c.lw	a1, 0x30(s0)
   15dc6: 63 08 b5 00  	beq	a0, a1, 0x15dd6 <jinit_color_converter+0x190>
   15dca: 08 60        	c.ld	a0, 0x0(s0)
   15dcc: 0c 61        	c.ld	a1, 0x0(a0)
   15dce: 65 46        	c.li	a2, 0x19
   15dd0: 10 d5        	c.sw	a2, 0x28(a0)
   15dd2: 22 85        	c.mv	a0, s0
   15dd4: 82 95        	c.jalr	a1
   15dd6: 37 65 01 00  	lui	a0, 0x16
   15dda: 13 05 a5 f6  	addi	a0, a0, -0x96
   15dde: 88 e4        	c.sd	a0, 0x8(s1)
   15de0: e2 60        	c.ldsp	ra, 0x18(sp)
   15de2: 42 64        	c.ldsp	s0, 0x10(sp)
   15de4: a2 64        	c.ldsp	s1, 0x8(sp)
   15de6: 02 69        	c.ldsp	s2, 0x0(sp)
   15de8: 05 61        	c.addi16sp	sp, 0x20
   15dea: 82 80        	c.jr	ra
   15dec: 37 65 01 00  	lui	a0, 0x16
   15df0: 13 05 65 e4  	addi	a0, a0, -0x1ba
   15df4: 88 e0        	c.sd	a0, 0x0(s1)
   15df6: 37 65 01 00  	lui	a0, 0x16
   15dfa: 13 05 05 ef  	addi	a0, a0, -0x110
   15dfe: c5 b7        	c.j	0x15dde <jinit_color_converter+0x198>

0000000000015e00 <null_method>:
   15e00: 82 80        	c.jr	ra

0000000000015e02 <grayscale_convert>:
   15e02: 63 51 e0 04  	bge	zero, a4, 0x15e44 <grayscale_convert+0x42>
   15e06: 83 68 85 02  	lwu	a7, 0x28(a0)
   15e0a: 03 23 05 03  	lw	t1, 0x30(a0)
   15e0e: 09 48        	c.li	a6, 0x2
   15e10: ba 82        	c.mv	t0, a4
   15e12: 63 83 08 02  	beq	a7, zero, 0x15e38 <grayscale_convert+0x36>
   15e16: 08 62        	c.ld	a0, 0x0(a2)
   15e18: 13 97 06 02  	slli	a4, a3, 0x20
   15e1c: 75 83        	c.srli	a4, 0x1d
   15e1e: 3a 95        	c.add	a0, a4
   15e20: 18 61        	c.ld	a4, 0x0(a0)
   15e22: 88 61        	c.ld	a0, 0x0(a1)
   15e24: b3 03 17 01  	add	t2, a4, a7
   15e28: 83 47 05 00  	lbu	a5, 0x0(a0)
   15e2c: 23 00 f7 00  	sb	a5, 0x0(a4)
   15e30: 05 07        	c.addi	a4, 0x1
   15e32: 1a 95        	c.add	a0, t1
   15e34: e3 1a 77 fe  	bne	a4, t2, 0x15e28 <grayscale_convert+0x26>
   15e38: 1b 87 f2 ff  	addiw	a4, t0, -0x1
   15e3c: a1 05        	c.addi	a1, 0x8
   15e3e: 85 06        	c.addi	a3, 0x1
   15e40: e3 d8 02 fd  	bge	t0, a6, 0x15e10 <grayscale_convert+0xe>
   15e44: 82 80        	c.jr	ra

0000000000015e46 <rgb_ycc_start>:
   15e46: ef 72 d1 7c  	jal	t0, 0x2de12 <__riscv_save_12>
   15e4a: 0c 65        	c.ld	a1, 0x8(a0)
   15e4c: 83 34 05 1d  	ld	s1, 0x1d0(a0)
   15e50: 94 61        	c.ld	a3, 0x0(a1)
   15e52: 85 45        	c.li	a1, 0x1
   15e54: 11 66        	c.lui	a2, 0x4
   15e56: 11 69        	c.lui	s2, 0x4
   15e58: 82 96        	c.jalr	a3
   15e5a: 01 4b        	c.li	s6, 0x0
   15e5c: 01 4c        	c.li	s8, 0x0
   15e5e: 81 4c        	c.li	s9, 0x0
   15e60: 01 47        	c.li	a4, 0x0
   15e62: 81 47        	c.li	a5, 0x0
   15e64: 01 44        	c.li	s0, 0x0
   15e66: 88 e8        	c.sd	a0, 0x10(s1)
   15e68: 93 08 f5 7f  	addi	a7, a0, 0x7ff
   15e6c: 85 08        	c.addi	a7, 0x1
   15e6e: 21 68        	c.lui	a6, 0x8
   15e70: b7 84 80 00  	lui	s1, 0x808
   15e74: fd 34        	c.addiw	s1, -0x1
   15e76: 8d 62        	c.lui	t0, 0x3
   15e78: 09 63        	c.lui	t1, 0x2
   15e7a: 85 63        	c.lui	t2, 0x1
   15e7c: fd 75        	c.lui	a1, 0xfffff
   15e7e: 1b 8e f5 b2  	addiw	t3, a1, -0x4d1
   15e82: e5 75        	c.lui	a1, 0xffff9
   15e84: 9b 8e 15 4d  	addiw	t4, a1, 0x4d1
   15e88: ed 75        	c.lui	a1, 0xffffb
   15e8a: 1b 8f 35 b3  	addiw	t5, a1, -0x4cd
   15e8e: f5 75        	c.lui	a1, 0xffffd
   15e90: 9b 8f d5 4c  	addiw	t6, a1, 0x4cd
   15e94: 9b 09 f3 d2  	addiw	s3, t1, -0x2d1
   15e98: a5 65        	c.lui	a1, 0x9
   15e9a: 1b 8a 65 64  	addiw	s4, a1, 0x646
   15e9e: 95 65        	c.lui	a1, 0x5
   15ea0: 9b 8a b5 c8  	addiw	s5, a1, -0x375
   15ea4: a1 65        	c.lui	a1, 0x8
   15ea6: b3 0b 25 01  	add	s7, a0, s2
   15eaa: 33 06 55 00  	add	a2, a0, t0
   15eae: b3 06 65 00  	add	a3, a0, t1
   15eb2: 33 0d 75 00  	add	s10, a0, t2
   15eb6: 93 0d f5 7f  	addi	s11, a0, 0x7ff
   15eba: 23 30 65 01  	sd	s6, 0x0(a0)
   15ebe: a3 b0 8d 01  	sd	s8, 0x1(s11)
   15ec2: 23 30 bd 00  	sd	a1, 0x0(s10)
   15ec6: 23 b0 96 81  	sd	s9, -0x800(a3)
   15eca: 98 e2        	c.sd	a4, 0x0(a3)
   15ecc: 23 30 96 80  	sd	s1, -0x800(a2)
   15ed0: 1c e2        	c.sd	a5, 0x0(a2)
   15ed2: 23 b0 8b 80  	sd	s0, -0x800(s7)
   15ed6: 72 94        	c.add	s0, t3
   15ed8: f6 97        	c.add	a5, t4
   15eda: 7a 97        	c.add	a4, t5
   15edc: fe 9c        	c.add	s9, t6
   15ede: ce 95        	c.add	a1, s3
   15ee0: 52 9c        	c.add	s8, s4
   15ee2: 21 05        	c.addi	a0, 0x8
   15ee4: 56 9b        	c.add	s6, s5
   15ee6: c2 94        	c.add	s1, a6
   15ee8: e3 1f 15 fb  	bne	a0, a7, 0x15ea6 <rgb_ycc_start+0x60>
   15eec: 6f 70 11 77  	jal	zero, 0x2de5c <__riscv_restore_12>

0000000000015ef0 <rgb_gray_convert>:
   15ef0: 63 5c e0 06  	bge	zero, a4, 0x15f68 <rgb_gray_convert+0x78>
   15ef4: 83 37 05 1d  	ld	a5, 0x1d0(a0)
   15ef8: 83 62 85 02  	lwu	t0, 0x28(a0)
   15efc: 03 be 07 01  	ld	t3, 0x10(a5)
   15f00: 13 98 12 00  	slli	a6, t0, 0x1
   15f04: 16 98        	c.add	a6, t0
   15f06: 89 48        	c.li	a7, 0x2
   15f08: 3a 83        	c.mv	t1, a4
   15f0a: 63 89 02 04  	beq	t0, zero, 0x15f5c <rgb_gray_convert+0x6c>
   15f0e: 08 62        	c.ld	a0, 0x0(a2)
   15f10: 13 97 06 02  	slli	a4, a3, 0x20
   15f14: 75 83        	c.srli	a4, 0x1d
   15f16: 3a 95        	c.add	a0, a4
   15f18: 98 61        	c.ld	a4, 0x0(a1)
   15f1a: 08 61        	c.ld	a0, 0x0(a0)
   15f1c: b3 03 07 01  	add	t2, a4, a6
   15f20: 83 47 07 00  	lbu	a5, 0x0(a4)
   15f24: 83 4e 17 00  	lbu	t4, 0x1(a4)
   15f28: 03 4f 27 00  	lbu	t5, 0x2(a4)
   15f2c: 8e 07        	c.slli	a5, 0x3
   15f2e: f2 97        	c.add	a5, t3
   15f30: 83 bf 07 00  	ld	t6, 0x0(a5)
   15f34: 93 87 0e 10  	addi	a5, t4, 0x100
   15f38: 8e 07        	c.slli	a5, 0x3
   15f3a: f2 97        	c.add	a5, t3
   15f3c: 83 be 07 00  	ld	t4, 0x0(a5)
   15f40: 93 07 0f 20  	addi	a5, t5, 0x200
   15f44: 8e 07        	c.slli	a5, 0x3
   15f46: f2 97        	c.add	a5, t3
   15f48: 9c 63        	c.ld	a5, 0x0(a5)
   15f4a: fe 9e        	c.add	t4, t6
   15f4c: f6 97        	c.add	a5, t4
   15f4e: c1 83        	c.srli	a5, 0x10
   15f50: 23 00 f5 00  	sb	a5, 0x0(a0)
   15f54: 0d 07        	c.addi	a4, 0x3
   15f56: 05 05        	c.addi	a0, 0x1
   15f58: e3 14 77 fc  	bne	a4, t2, 0x15f20 <rgb_gray_convert+0x30>
   15f5c: 1b 07 f3 ff  	addiw	a4, t1, -0x1
   15f60: a1 05        	c.addi	a1, 0x8
   15f62: 85 06        	c.addi	a3, 0x1
   15f64: e3 52 13 fb  	bge	t1, a7, 0x15f08 <rgb_gray_convert+0x18>
   15f68: 82 80        	c.jr	ra

0000000000015f6a <null_convert>:
   15f6a: 63 5e e0 04  	bge	zero, a4, 0x15fc6 <null_convert+0x5c>
   15f6e: 03 63 85 02  	lwu	t1, 0x28(a0)
   15f72: 83 23 45 04  	lw	t2, 0x44(a0)
   15f76: 05 48        	c.li	a6, 0x1
   15f78: ba 88        	c.mv	a7, a4
   15f7a: 63 50 70 04  	bge	zero, t2, 0x15fba <null_convert+0x50>
   15f7e: 01 4e        	c.li	t3, 0x0
   15f80: 13 95 06 02  	slli	a0, a3, 0x20
   15f84: 01 91        	c.srli	a0, 0x20
   15f86: 93 12 35 00  	slli	t0, a0, 0x3
   15f8a: 63 05 03 02  	beq	t1, zero, 0x15fb4 <null_convert+0x4a>
   15f8e: 13 15 3e 00  	slli	a0, t3, 0x3
   15f92: 32 95        	c.add	a0, a2
   15f94: 08 61        	c.ld	a0, 0x0(a0)
   15f96: 16 95        	c.add	a0, t0
   15f98: 98 61        	c.ld	a4, 0x0(a1)
   15f9a: 1c 61        	c.ld	a5, 0x0(a0)
   15f9c: 33 05 c7 01  	add	a0, a4, t3
   15fa0: b3 8e 67 00  	add	t4, a5, t1
   15fa4: 03 47 05 00  	lbu	a4, 0x0(a0)
   15fa8: 23 80 e7 00  	sb	a4, 0x0(a5)
   15fac: 85 07        	c.addi	a5, 0x1
   15fae: 1e 95        	c.add	a0, t2
   15fb0: e3 9a d7 ff  	bne	a5, t4, 0x15fa4 <null_convert+0x3a>
   15fb4: 05 0e        	c.addi	t3, 0x1
   15fb6: e3 1a 7e fc  	bne	t3, t2, 0x15f8a <null_convert+0x20>
   15fba: 1b 87 f8 ff  	addiw	a4, a7, -0x1
   15fbe: a1 05        	c.addi	a1, 0x8
   15fc0: 85 06        	c.addi	a3, 0x1
   15fc2: e3 4b 18 fb  	blt	a6, a7, 0x15f78 <null_convert+0xe>
   15fc6: 82 80        	c.jr	ra

0000000000015fc8 <rgb_ycc_convert>:
   15fc8: 63 57 e0 0e  	bge	zero, a4, 0x160b6 <rgb_ycc_convert+0xee>
   15fcc: ef 72 d1 66  	jal	t0, 0x2de38 <__riscv_save_5>
   15fd0: 83 37 05 1d  	ld	a5, 0x1d0(a0)
   15fd4: 83 62 85 02  	lwu	t0, 0x28(a0)
   15fd8: 83 b3 07 01  	ld	t2, 0x10(a5)
   15fdc: 13 98 12 00  	slli	a6, t0, 0x1
   15fe0: 16 98        	c.add	a6, t0
   15fe2: 89 48        	c.li	a7, 0x2
   15fe4: 3a 83        	c.mv	t1, a4
   15fe6: 63 8f 02 0a  	beq	t0, zero, 0x160a4 <rgb_ycc_convert+0xdc>
   15fea: 08 62        	c.ld	a0, 0x0(a2)
   15fec: 13 97 06 02  	slli	a4, a3, 0x20
   15ff0: 75 83        	c.srli	a4, 0x1d
   15ff2: 83 3e 86 00  	ld	t4, 0x8(a2)
   15ff6: 3a 95        	c.add	a0, a4
   15ff8: 1c 6a        	c.ld	a5, 0x10(a2)
   15ffa: 03 3e 05 00  	ld	t3, 0x0(a0)
   15ffe: ba 9e        	c.add	t4, a4
   16000: 03 b5 0e 00  	ld	a0, 0x0(t4)
   16004: 3e 97        	c.add	a4, a5
   16006: 9c 61        	c.ld	a5, 0x0(a1)
   16008: 18 63        	c.ld	a4, 0x0(a4)
   1600a: b3 8e 07 01  	add	t4, a5, a6
   1600e: 03 cf 07 00  	lbu	t5, 0x0(a5)
   16012: 83 cf 17 00  	lbu	t6, 0x1(a5)
   16016: 83 c9 27 00  	lbu	s3, 0x2(a5)
   1601a: 93 14 3f 00  	slli	s1, t5, 0x3
   1601e: 9e 94        	c.add	s1, t2
   16020: 03 b9 04 00  	ld	s2, 0x0(s1)
   16024: 93 84 0f 10  	addi	s1, t6, 0x100
   16028: 8e 04        	c.slli	s1, 0x3
   1602a: 9e 94        	c.add	s1, t2
   1602c: 84 60        	c.ld	s1, 0x0(s1)
   1602e: 13 84 09 20  	addi	s0, s3, 0x200
   16032: 0e 04        	c.slli	s0, 0x3
   16034: 1e 94        	c.add	s0, t2
   16036: 00 60        	c.ld	s0, 0x0(s0)
   16038: ca 94        	c.add	s1, s2
   1603a: 26 94        	c.add	s0, s1
   1603c: 41 80        	c.srli	s0, 0x10
   1603e: 23 00 8e 00  	sb	s0, 0x0(t3)
   16042: 13 04 0f 30  	addi	s0, t5, 0x300
   16046: 0e 04        	c.slli	s0, 0x3
   16048: 1e 94        	c.add	s0, t2
   1604a: 03 39 04 00  	ld	s2, 0x0(s0)
   1604e: 93 84 0f 40  	addi	s1, t6, 0x400
   16052: 8e 04        	c.slli	s1, 0x3
   16054: 9e 94        	c.add	s1, t2
   16056: 84 60        	c.ld	s1, 0x0(s1)
   16058: 13 84 09 50  	addi	s0, s3, 0x500
   1605c: 0e 04        	c.slli	s0, 0x3
   1605e: 1e 94        	c.add	s0, t2
   16060: 00 60        	c.ld	s0, 0x0(s0)
   16062: ca 94        	c.add	s1, s2
   16064: 26 94        	c.add	s0, s1
   16066: 41 80        	c.srli	s0, 0x10
   16068: 23 00 85 00  	sb	s0, 0x0(a0)
   1606c: 93 04 0f 50  	addi	s1, t5, 0x500
   16070: 8e 04        	c.slli	s1, 0x3
   16072: 9e 94        	c.add	s1, t2
   16074: 03 bf 04 00  	ld	t5, 0x0(s1)
   16078: 13 84 0f 60  	addi	s0, t6, 0x600
   1607c: 0e 04        	c.slli	s0, 0x3
   1607e: 1e 94        	c.add	s0, t2
   16080: 00 60        	c.ld	s0, 0x0(s0)
   16082: 93 84 09 70  	addi	s1, s3, 0x700
   16086: 8e 04        	c.slli	s1, 0x3
   16088: 9e 94        	c.add	s1, t2
   1608a: 84 60        	c.ld	s1, 0x0(s1)
   1608c: 22 9f        	c.add	t5, s0
   1608e: 26 9f        	c.add	t5, s1
   16090: 93 54 0f 01  	srli	s1, t5, 0x10
   16094: 23 00 97 00  	sb	s1, 0x0(a4)
   16098: 05 0e        	c.addi	t3, 0x1
   1609a: 05 05        	c.addi	a0, 0x1
   1609c: 8d 07        	c.addi	a5, 0x3
   1609e: 05 07        	c.addi	a4, 0x1
   160a0: e3 97 d7 f7  	bne	a5, t4, 0x1600e <rgb_ycc_convert+0x46>
   160a4: 1b 07 f3 ff  	addiw	a4, t1, -0x1
   160a8: a1 05        	c.addi	a1, 0x8
   160aa: 85 06        	c.addi	a3, 0x1
   160ac: e3 5c 13 f3  	bge	t1, a7, 0x15fe4 <rgb_ycc_convert+0x1c>
   160b0: 6f 70 31 5c  	jal	zero, 0x2de72 <__riscv_restore_5>
   160b4: 09 a0        	c.j	0x160b6 <rgb_ycc_convert+0xee>
   160b6: 82 80        	c.jr	ra

00000000000160b8 <cmyk_ycck_convert>:
   160b8: 63 55 e0 10  	bge	zero, a4, 0x161c2 <cmyk_ycck_convert+0x10a>
   160bc: ef 72 d1 57  	jal	t0, 0x2de38 <__riscv_save_5>
   160c0: 83 37 05 1d  	ld	a5, 0x1d0(a0)
   160c4: 83 62 85 02  	lwu	t0, 0x28(a0)
   160c8: 03 be 07 01  	ld	t3, 0x10(a5)
   160cc: 13 98 22 00  	slli	a6, t0, 0x2
   160d0: 89 48        	c.li	a7, 0x2
   160d2: 3a 83        	c.mv	t1, a4
   160d4: 63 8e 02 0c  	beq	t0, zero, 0x161b0 <cmyk_ycck_convert+0xf8>
   160d8: 08 62        	c.ld	a0, 0x0(a2)
   160da: 13 97 06 02  	slli	a4, a3, 0x20
   160de: 93 57 d7 01  	srli	a5, a4, 0x1d
   160e2: 18 66        	c.ld	a4, 0x8(a2)
   160e4: 3e 95        	c.add	a0, a5
   160e6: 83 33 05 00  	ld	t2, 0x0(a0)
   160ea: 03 3f 06 01  	ld	t5, 0x10(a2)
   160ee: 3e 97        	c.add	a4, a5
   160f0: 08 6e        	c.ld	a0, 0x18(a2)
   160f2: 83 3e 07 00  	ld	t4, 0x0(a4)
   160f6: 3e 9f        	c.add	t5, a5
   160f8: 83 3f 0f 00  	ld	t6, 0x0(t5)
   160fc: 3e 95        	c.add	a0, a5
   160fe: 9c 61        	c.ld	a5, 0x0(a1)
   16100: 03 39 05 00  	ld	s2, 0x0(a0)
   16104: 33 8f 07 01  	add	t5, a5, a6
   16108: 03 c7 17 00  	lbu	a4, 0x1(a5)
   1610c: 03 c4 27 00  	lbu	s0, 0x2(a5)
   16110: 83 c4 37 00  	lbu	s1, 0x3(a5)
   16114: 03 c5 07 00  	lbu	a0, 0x0(a5)
   16118: 13 47 f7 0f  	xori	a4, a4, 0xff
   1611c: 93 49 f4 0f  	xori	s3, s0, 0xff
   16120: 23 00 99 00  	sb	s1, 0x0(s2)
   16124: 13 45 f5 0f  	xori	a0, a0, 0xff
   16128: 93 14 35 00  	slli	s1, a0, 0x3
   1612c: f2 94        	c.add	s1, t3
   1612e: 03 ba 04 00  	ld	s4, 0x0(s1)
   16132: 13 04 07 10  	addi	s0, a4, 0x100
   16136: 0e 04        	c.slli	s0, 0x3
   16138: 72 94        	c.add	s0, t3
   1613a: 00 60        	c.ld	s0, 0x0(s0)
   1613c: 93 84 09 20  	addi	s1, s3, 0x200
   16140: 8e 04        	c.slli	s1, 0x3
   16142: f2 94        	c.add	s1, t3
   16144: 84 60        	c.ld	s1, 0x0(s1)
   16146: 52 94        	c.add	s0, s4
   16148: 26 94        	c.add	s0, s1
   1614a: 41 80        	c.srli	s0, 0x10
   1614c: 23 80 83 00  	sb	s0, 0x0(t2)
   16150: 13 04 05 30  	addi	s0, a0, 0x300
   16154: 0e 04        	c.slli	s0, 0x3
   16156: 72 94        	c.add	s0, t3
   16158: 03 3a 04 00  	ld	s4, 0x0(s0)
   1615c: 93 04 07 40  	addi	s1, a4, 0x400
   16160: 8e 04        	c.slli	s1, 0x3
   16162: f2 94        	c.add	s1, t3
   16164: 84 60        	c.ld	s1, 0x0(s1)
   16166: 13 84 09 50  	addi	s0, s3, 0x500
   1616a: 0e 04        	c.slli	s0, 0x3
   1616c: 72 94        	c.add	s0, t3
   1616e: 00 60        	c.ld	s0, 0x0(s0)
   16170: d2 94        	c.add	s1, s4
   16172: 26 94        	c.add	s0, s1
   16174: 41 80        	c.srli	s0, 0x10
   16176: 23 80 8e 00  	sb	s0, 0x0(t4)
   1617a: 13 05 05 50  	addi	a0, a0, 0x500
   1617e: 0e 05        	c.slli	a0, 0x3
   16180: 72 95        	c.add	a0, t3
   16182: 08 61        	c.ld	a0, 0x0(a0)
   16184: 13 07 07 60  	addi	a4, a4, 0x600
   16188: 0e 07        	c.slli	a4, 0x3
   1618a: 72 97        	c.add	a4, t3
   1618c: 18 63        	c.ld	a4, 0x0(a4)
   1618e: 13 84 09 70  	addi	s0, s3, 0x700
   16192: 0e 04        	c.slli	s0, 0x3
   16194: 72 94        	c.add	s0, t3
   16196: 00 60        	c.ld	s0, 0x0(s0)
   16198: 3a 95        	c.add	a0, a4
   1619a: 22 95        	c.add	a0, s0
   1619c: 41 81        	c.srli	a0, 0x10
   1619e: 23 80 af 00  	sb	a0, 0x0(t6)
   161a2: 05 09        	c.addi	s2, 0x1
   161a4: 85 03        	c.addi	t2, 0x1
   161a6: 85 0e        	c.addi	t4, 0x1
   161a8: 91 07        	c.addi	a5, 0x4
   161aa: 85 0f        	c.addi	t6, 0x1
   161ac: e3 9e e7 f5  	bne	a5, t5, 0x16108 <cmyk_ycck_convert+0x50>
   161b0: 1b 07 f3 ff  	addiw	a4, t1, -0x1
   161b4: a1 05        	c.addi	a1, 0x8
   161b6: 85 06        	c.addi	a3, 0x1
   161b8: e3 5d 13 f1  	bge	t1, a7, 0x160d2 <cmyk_ycck_convert+0x1a>
   161bc: 6f 70 71 4b  	jal	zero, 0x2de72 <__riscv_restore_5>
   161c0: 09 a0        	c.j	0x161c2 <cmyk_ycck_convert+0x10a>
   161c2: 82 80        	c.jr	ra

00000000000161c4 <jinit_downsampler>:
   161c4: 19 71        	c.addi16sp	sp, -0x80
   161c6: 86 fc        	c.sdsp	ra, 0x78(sp)
   161c8: a2 f8        	c.sdsp	s0, 0x70(sp)
   161ca: a6 f4        	c.sdsp	s1, 0x68(sp)
   161cc: ca f0        	c.sdsp	s2, 0x60(sp)
   161ce: ce ec        	c.sdsp	s3, 0x58(sp)
   161d0: d2 e8        	c.sdsp	s4, 0x50(sp)
   161d2: d6 e4        	c.sdsp	s5, 0x48(sp)
   161d4: da e0        	c.sdsp	s6, 0x40(sp)
   161d6: 5e fc        	c.sdsp	s7, 0x38(sp)
   161d8: 62 f8        	c.sdsp	s8, 0x30(sp)
   161da: 66 f4        	c.sdsp	s9, 0x28(sp)
   161dc: 6a f0        	c.sdsp	s10, 0x20(sp)
   161de: 6e ec        	c.sdsp	s11, 0x18(sp)
   161e0: 2a 8a        	c.mv	s4, a0
   161e2: 08 65        	c.ld	a0, 0x8(a0)
   161e4: 14 61        	c.ld	a3, 0x0(a0)
   161e6: 85 45        	c.li	a1, 0x1
   161e8: 13 06 80 06  	addi	a2, zero, 0x68
   161ec: 52 85        	c.mv	a0, s4
   161ee: 82 96        	c.jalr	a3
   161f0: 2a 89        	c.mv	s2, a0
   161f2: 37 65 01 00  	lui	a0, 0x16
   161f6: 13 05 85 36  	addi	a0, a0, 0x368
   161fa: 23 30 a9 00  	sd	a0, 0x0(s2)
   161fe: 37 65 01 00  	lui	a0, 0x16
   16202: 83 25 4a 10  	lw	a1, 0x104(s4)
   16206: 13 05 a5 36  	addi	a0, a0, 0x36a
   1620a: 23 34 a9 00  	sd	a0, 0x8(s2)
   1620e: 23 3c 2a 1d  	sd	s2, 0x1d8(s4)
   16212: 23 28 09 00  	sw	zero, 0x10(s2)
   16216: 81 c9        	c.beqz	a1, 0x16226 <jinit_downsampler+0x62>
   16218: 03 35 0a 00  	ld	a0, 0x0(s4)
   1621c: 0c 61        	c.ld	a1, 0x0(a0)
   1621e: 5d 46        	c.li	a2, 0x17
   16220: 10 d5        	c.sw	a2, 0x28(a0)
   16222: 52 85        	c.mv	a0, s4
   16224: 82 95        	c.jalr	a1
   16226: 83 29 4a 04  	lw	s3, 0x44(s4)
   1622a: 63 50 30 13  	bge	zero, s3, 0x1634a <jinit_downsampler+0x186>
   1622e: 03 34 0a 05  	ld	s0, 0x50(s4)
   16232: 81 44        	c.li	s1, 0x0
   16234: 93 0a 89 01  	addi	s5, s2, 0x18
   16238: 31 04        	c.addi	s0, 0xc
   1623a: 05 4b        	c.li	s6, 0x1
   1623c: 37 65 01 00  	lui	a0, 0x16
   16240: 93 0b 45 55  	addi	s7, a0, 0x554
   16244: 37 65 01 00  	lui	a0, 0x16
   16248: 13 0c c5 3c  	addi	s8, a0, 0x3cc
   1624c: 37 65 01 00  	lui	a0, 0x16
   16250: 93 0c 65 5b  	addi	s9, a0, 0x5b6
   16254: 37 75 01 00  	lui	a0, 0x17
   16258: 13 05 a5 8a  	addi	a0, a0, -0x756
   1625c: 2a e0        	c.sdsp	a0, 0x0(sp)
   1625e: 37 65 01 00  	lui	a0, 0x16
   16262: 13 05 25 66  	addi	a0, a0, 0x662
   16266: 2a e4        	c.sdsp	a0, 0x8(sp)
   16268: 37 75 01 00  	lui	a0, 0x17
   1626c: 13 05 e5 96  	addi	a0, a0, -0x692
   16270: 2a e8        	c.sdsp	a0, 0x10(sp)
   16272: 93 0d 50 02  	addi	s11, zero, 0x25
   16276: 05 4d        	c.li	s10, 0x1
   16278: 83 25 c4 ff  	lw	a1, -0x4(s0)
   1627c: 03 25 0a 13  	lw	a0, 0x130(s4)
   16280: 63 9d a5 00  	bne	a1, a0, 0x1629a <jinit_downsampler+0xd6>
   16284: 10 40        	c.lw	a2, 0x0(s0)
   16286: 83 26 4a 13  	lw	a3, 0x134(s4)
   1628a: 63 18 d6 00  	bne	a2, a3, 0x1629a <jinit_downsampler+0xd6>
   1628e: 03 25 8a 10  	lw	a0, 0x108(s4)
   16292: 2d c1        	c.beqz	a0, 0x162f4 <jinit_downsampler+0x130>
   16294: 23 b0 8a 01  	sd	s8, 0x0(s5)
   16298: 05 a8        	c.j	0x162c8 <jinit_downsampler+0x104>
   1629a: 1b 96 15 00  	slliw	a2, a1, 0x1
   1629e: 63 18 a6 02  	bne	a2, a0, 0x162ce <jinit_downsampler+0x10a>
   162a2: 10 40        	c.lw	a2, 0x0(s0)
   162a4: 83 26 4a 13  	lw	a3, 0x134(s4)
   162a8: 63 16 d6 00  	bne	a2, a3, 0x162b4 <jinit_downsampler+0xf0>
   162ac: 01 4d        	c.li	s10, 0x0
   162ae: 23 b0 9a 01  	sd	s9, 0x0(s5)
   162b2: 91 a8        	c.j	0x16306 <jinit_downsampler+0x142>
   162b4: 1b 16 16 00  	slliw	a2, a2, 0x1
   162b8: 63 1b d6 00  	bne	a2, a3, 0x162ce <jinit_downsampler+0x10a>
   162bc: 03 25 8a 10  	lw	a0, 0x108(s4)
   162c0: 21 c1        	c.beqz	a0, 0x16300 <jinit_downsampler+0x13c>
   162c2: 22 65        	c.ldsp	a0, 0x8(sp)
   162c4: 23 b0 aa 00  	sd	a0, 0x0(s5)
   162c8: 23 28 69 01  	sw	s6, 0x10(s2)
   162cc: 2d a8        	c.j	0x16306 <jinit_downsampler+0x142>
   162ce: ef 70 71 45  	jal	ra, 0x2df24 <__modsi3>
   162d2: 19 e5        	c.bnez	a0, 0x162e0 <jinit_downsampler+0x11c>
   162d4: 03 25 4a 13  	lw	a0, 0x134(s4)
   162d8: 0c 40        	c.lw	a1, 0x0(s0)
   162da: ef 70 b1 44  	jal	ra, 0x2df24 <__modsi3>
   162de: 11 cd        	c.beqz	a0, 0x162fa <jinit_downsampler+0x136>
   162e0: 03 35 0a 00  	ld	a0, 0x0(s4)
   162e4: 0c 61        	c.ld	a1, 0x0(a0)
   162e6: 23 24 b5 03  	sw	s11, 0x28(a0)
   162ea: 52 85        	c.mv	a0, s4
   162ec: 82 95        	c.jalr	a1
   162ee: 83 29 4a 04  	lw	s3, 0x44(s4)
   162f2: 11 a8        	c.j	0x16306 <jinit_downsampler+0x142>
   162f4: 23 b0 7a 01  	sd	s7, 0x0(s5)
   162f8: 39 a0        	c.j	0x16306 <jinit_downsampler+0x142>
   162fa: 01 4d        	c.li	s10, 0x0
   162fc: 42 65        	c.ldsp	a0, 0x10(sp)
   162fe: 11 a0        	c.j	0x16302 <jinit_downsampler+0x13e>
   16300: 02 65        	c.ldsp	a0, 0x0(sp)
   16302: 23 b0 aa 00  	sd	a0, 0x0(s5)
   16306: 85 04        	c.addi	s1, 0x1
   16308: a1 0a        	c.addi	s5, 0x8
   1630a: 13 04 04 06  	addi	s0, s0, 0x60
   1630e: e3 c5 34 f7  	blt	s1, s3, 0x16278 <jinit_downsampler+0xb4>
   16312: 03 25 8a 10  	lw	a0, 0x108(s4)
   16316: 15 c9        	c.beqz	a0, 0x1634a <jinit_downsampler+0x186>
   16318: 63 19 0d 02  	bne	s10, zero, 0x1634a <jinit_downsampler+0x186>
   1631c: 03 35 0a 00  	ld	a0, 0x0(s4)
   16320: 1c 65        	c.ld	a5, 0x8(a0)
   16322: 93 05 20 06  	addi	a1, zero, 0x62
   16326: 0c d5        	c.sw	a1, 0x28(a0)
   16328: 52 85        	c.mv	a0, s4
   1632a: 81 45        	c.li	a1, 0x0
   1632c: e6 70        	c.ldsp	ra, 0x78(sp)
   1632e: 46 74        	c.ldsp	s0, 0x70(sp)
   16330: a6 74        	c.ldsp	s1, 0x68(sp)
   16332: 06 79        	c.ldsp	s2, 0x60(sp)
   16334: e6 69        	c.ldsp	s3, 0x58(sp)
   16336: 46 6a        	c.ldsp	s4, 0x50(sp)
   16338: a6 6a        	c.ldsp	s5, 0x48(sp)
   1633a: 06 6b        	c.ldsp	s6, 0x40(sp)
   1633c: e2 7b        	c.ldsp	s7, 0x38(sp)
   1633e: 42 7c        	c.ldsp	s8, 0x30(sp)
   16340: a2 7c        	c.ldsp	s9, 0x28(sp)
   16342: 02 7d        	c.ldsp	s10, 0x20(sp)
   16344: e2 6d        	c.ldsp	s11, 0x18(sp)
   16346: 09 61        	c.addi16sp	sp, 0x80
   16348: 82 87        	c.jr	a5
   1634a: e6 70        	c.ldsp	ra, 0x78(sp)
   1634c: 46 74        	c.ldsp	s0, 0x70(sp)
   1634e: a6 74        	c.ldsp	s1, 0x68(sp)
   16350: 06 79        	c.ldsp	s2, 0x60(sp)
   16352: e6 69        	c.ldsp	s3, 0x58(sp)
   16354: 46 6a        	c.ldsp	s4, 0x50(sp)
   16356: a6 6a        	c.ldsp	s5, 0x48(sp)
   16358: 06 6b        	c.ldsp	s6, 0x40(sp)
   1635a: e2 7b        	c.ldsp	s7, 0x38(sp)
   1635c: 42 7c        	c.ldsp	s8, 0x30(sp)
   1635e: a2 7c        	c.ldsp	s9, 0x28(sp)
   16360: 02 7d        	c.ldsp	s10, 0x20(sp)
   16362: e2 6d        	c.ldsp	s11, 0x18(sp)
   16364: 09 61        	c.addi16sp	sp, 0x80
   16366: 82 80        	c.jr	ra

0000000000016368 <start_pass_downsample>:
   16368: 82 80        	c.jr	ra

000000000001636a <sep_downsample>:
   1636a: ef 72 11 2b  	jal	t0, 0x2de1a <__riscv_save_11>
   1636e: aa 89        	c.mv	s3, a0
   16370: 68 41        	c.lw	a0, 0x44(a0)
   16372: 63 5b a0 04  	bge	zero, a0, 0x163c8 <sep_downsample+0x5e>
   16376: 3a 89        	c.mv	s2, a4
   16378: 36 8a        	c.mv	s4, a3
   1637a: 2e 8b        	c.mv	s6, a1
   1637c: 81 4b        	c.li	s7, 0x0
   1637e: 03 b4 89 1d  	ld	s0, 0x1d8(s3)
   16382: 83 b4 09 05  	ld	s1, 0x50(s3)
   16386: 02 16        	c.slli	a2, 0x20
   16388: 01 92        	c.srli	a2, 0x20
   1638a: 61 04        	c.addi	s0, 0x18
   1638c: 13 1c 36 00  	slli	s8, a2, 0x3
   16390: 83 3a 0b 00  	ld	s5, 0x0(s6)
   16394: 83 3c 0a 00  	ld	s9, 0x0(s4)
   16398: c8 44        	c.lw	a0, 0xc(s1)
   1639a: e2 9a        	c.add	s5, s8
   1639c: ca 85        	c.mv	a1, s2
   1639e: ef 70 b1 2e  	jal	ra, 0x2de88 <__muldi3>
   163a2: 18 60        	c.ld	a4, 0x0(s0)
   163a4: 02 15        	c.slli	a0, 0x20
   163a6: 75 81        	c.srli	a0, 0x1d
   163a8: b3 86 ac 00  	add	a3, s9, a0
   163ac: 4e 85        	c.mv	a0, s3
   163ae: a6 85        	c.mv	a1, s1
   163b0: 56 86        	c.mv	a2, s5
   163b2: 02 97        	c.jalr	a4
   163b4: 85 0b        	c.addi	s7, 0x1
   163b6: 03 a5 49 04  	lw	a0, 0x44(s3)
   163ba: 93 84 04 06  	addi	s1, s1, 0x60
   163be: 21 0a        	c.addi	s4, 0x8
   163c0: 21 0b        	c.addi	s6, 0x8
   163c2: 21 04        	c.addi	s0, 0x8
   163c4: e3 c6 ab fc  	blt	s7, a0, 0x16390 <sep_downsample+0x26>
   163c8: 6f 70 91 29  	jal	zero, 0x2de60 <__riscv_restore_11>

00000000000163cc <fullsize_smooth_downsample>:
   163cc: ef 72 71 24  	jal	t0, 0x2de12 <__riscv_save_12>
   163d0: 79 71        	c.addi16sp	sp, -0x30
   163d2: aa 89        	c.mv	s3, a0
   163d4: 2e ec        	c.sdsp	a1, 0x18(sp)
   163d6: 03 a9 c5 01  	lw	s2, 0x1c(a1)
   163da: 03 25 45 13  	lw	a0, 0x134(a0)
   163de: 36 e4        	c.sdsp	a3, 0x8(sp)
   163e0: 32 e8        	c.sdsp	a2, 0x10(sp)
   163e2: fd 55        	c.li	a1, -0x1
   163e4: 0e 09        	c.slli	s2, 0x3
   163e6: 63 42 b5 04  	blt	a0, a1, 0x1642a <fullsize_smooth_downsample+0x5e>
   163ea: 03 ea 89 02  	lwu	s4, 0x28(s3)
   163ee: bb 05 49 41  	subw	a1, s2, s4
   163f2: 63 5c b0 02  	bge	zero, a1, 0x1642a <fullsize_smooth_downsample+0x5e>
   163f6: 42 66        	c.ldsp	a2, 0x10(sp)
   163f8: 13 04 86 ff  	addi	s0, a2, -0x8
   163fc: 09 05        	c.addi	a0, 0x2
   163fe: 93 45 fa ff  	xori	a1, s4, -0x1
   16402: ca 95        	c.add	a1, s2
   16404: 82 15        	c.slli	a1, 0x20
   16406: 81 91        	c.srli	a1, 0x20
   16408: 93 8a 15 00  	addi	s5, a1, 0x1
   1640c: 02 15        	c.slli	a0, 0x20
   1640e: 75 81        	c.srli	a0, 0x1d
   16410: 32 95        	c.add	a0, a2
   16412: 93 04 85 ff  	addi	s1, a0, -0x8
   16416: 08 60        	c.ld	a0, 0x0(s0)
   16418: 52 95        	c.add	a0, s4
   1641a: 83 45 f5 ff  	lbu	a1, -0x1(a0)
   1641e: 56 86        	c.mv	a2, s5
   16420: ef 50 b0 05  	jal	ra, 0x1bc7a <memset>
   16424: 21 04        	c.addi	s0, 0x8
   16426: e3 18 94 fe  	bne	s0, s1, 0x16416 <fullsize_smooth_downsample+0x4a>
   1642a: 62 65        	c.ldsp	a0, 0x18(sp)
   1642c: 48 45        	c.lw	a0, 0xc(a0)
   1642e: 63 50 a0 12  	bge	zero, a0, 0x1654e <fullsize_smooth_downsample+0x182>
   16432: 03 a5 89 10  	lw	a0, 0x108(s3)
   16436: 81 46        	c.li	a3, 0x0
   16438: 93 15 95 00  	slli	a1, a0, 0x9
   1643c: 41 66        	c.lui	a2, 0x10
   1643e: 0d 8e        	c.sub	a2, a1
   16440: 32 f4        	c.sdsp	a2, 0x28(sp)
   16442: 1a 15        	c.slli	a0, 0x26
   16444: 13 5c 05 02  	srli	s8, a0, 0x20
   16448: 61 19        	c.addi	s2, -0x8
   1644a: 02 19        	c.slli	s2, 0x20
   1644c: 13 55 09 02  	srli	a0, s2, 0x20
   16450: 1d 05        	c.addi	a0, 0x7
   16452: 2a e0        	c.sdsp	a0, 0x0(sp)
   16454: 13 95 36 00  	slli	a0, a3, 0x3
   16458: 42 66        	c.ldsp	a2, 0x10(sp)
   1645a: b3 05 a6 00  	add	a1, a2, a0
   1645e: 03 ba 05 00  	ld	s4, 0x0(a1)
   16462: 03 bd 85 ff  	ld	s10, -0x8(a1)
   16466: 85 06        	c.addi	a3, 0x1
   16468: 36 f0        	c.sdsp	a3, 0x20(sp)
   1646a: 93 95 36 00  	slli	a1, a3, 0x3
   1646e: b2 95        	c.add	a1, a2
   16470: 84 61        	c.ld	s1, 0x0(a1)
   16472: 03 46 0d 00  	lbu	a2, 0x0(s10)
   16476: 83 45 0a 00  	lbu	a1, 0x0(s4)
   1647a: a2 66        	c.ldsp	a3, 0x8(sp)
   1647c: 36 95        	c.add	a0, a3
   1647e: 00 61        	c.ld	s0, 0x0(a0)
   16480: 83 cc 04 00  	lbu	s9, 0x0(s1)
   16484: 2e 96        	c.add	a2, a1
   16486: 03 45 1d 00  	lbu	a0, 0x1(s10)
   1648a: 83 46 1a 00  	lbu	a3, 0x1(s4)
   1648e: 83 c9 14 00  	lbu	s3, 0x1(s1)
   16492: b2 9c        	c.add	s9, a2
   16494: 13 09 1a 00  	addi	s2, s4, 0x1
   16498: 36 95        	c.add	a0, a3
   1649a: aa 99        	c.add	s3, a0
   1649c: 13 95 1c 00  	slli	a0, s9, 0x1
   164a0: 33 86 35 41  	sub	a2, a1, s3
   164a4: b3 0a c5 40  	sub	s5, a0, a2
   164a8: 22 75        	c.ldsp	a0, 0x28(sp)
   164aa: ef 70 f1 1d  	jal	ra, 0x2de88 <__muldi3>
   164ae: 2a 8b        	c.mv	s6, a0
   164b0: 56 85        	c.mv	a0, s5
   164b2: e2 85        	c.mv	a1, s8
   164b4: ef 70 51 1d  	jal	ra, 0x2de88 <__muldi3>
   164b8: a1 65        	c.lui	a1, 0x8
   164ba: 2e 9b        	c.add	s6, a1
   164bc: 5a 95        	c.add	a0, s6
   164be: 41 81        	c.srli	a0, 0x10
   164c0: 23 00 a4 00  	sb	a0, 0x0(s0)
   164c4: 05 04        	c.addi	s0, 0x1
   164c6: 89 04        	c.addi	s1, 0x2
   164c8: 09 0d        	c.addi	s10, 0x2
   164ca: 02 65        	c.ldsp	a0, 0x0(sp)
   164cc: 2a 9a        	c.add	s4, a0
   164ce: ce 8b        	c.mv	s7, s3
   164d0: 03 45 0d 00  	lbu	a0, 0x0(s10)
   164d4: 03 c6 04 00  	lbu	a2, 0x0(s1)
   164d8: 83 49 19 00  	lbu	s3, 0x1(s2)
   164dc: 83 45 09 00  	lbu	a1, 0x0(s2)
   164e0: 05 09        	c.addi	s2, 0x1
   164e2: 32 95        	c.add	a0, a2
   164e4: aa 99        	c.add	s3, a0
   164e6: 81 2c        	c.addiw	s9, 0x0
   164e8: 9b 8d 0b 00  	addiw	s11, s7, 0x0
   164ec: ee 9c        	c.add	s9, s11
   164ee: b3 8a bc 40  	sub	s5, s9, a1
   164f2: ce 9a        	c.add	s5, s3
   164f4: 22 75        	c.ldsp	a0, 0x28(sp)
   164f6: ef 70 31 19  	jal	ra, 0x2de88 <__muldi3>
   164fa: 2a 8b        	c.mv	s6, a0
   164fc: 56 85        	c.mv	a0, s5
   164fe: e2 85        	c.mv	a1, s8
   16500: ef 70 91 18  	jal	ra, 0x2de88 <__muldi3>
   16504: a1 65        	c.lui	a1, 0x8
   16506: 2e 9b        	c.add	s6, a1
   16508: 5a 95        	c.add	a0, s6
   1650a: 41 81        	c.srli	a0, 0x10
   1650c: 23 00 a4 00  	sb	a0, 0x0(s0)
   16510: 05 04        	c.addi	s0, 0x1
   16512: 85 04        	c.addi	s1, 0x1
   16514: 05 0d        	c.addi	s10, 0x1
   16516: de 8c        	c.mv	s9, s7
   16518: e3 1b 49 fb  	bne	s2, s4, 0x164ce <fullsize_smooth_downsample+0x102>
   1651c: 83 45 09 00  	lbu	a1, 0x0(s2)
   16520: 86 09        	c.slli	s3, 0x1
   16522: b3 8a bd 40  	sub	s5, s11, a1
   16526: ce 9a        	c.add	s5, s3
   16528: 22 75        	c.ldsp	a0, 0x28(sp)
   1652a: ef 70 f1 15  	jal	ra, 0x2de88 <__muldi3>
   1652e: aa 84        	c.mv	s1, a0
   16530: 56 85        	c.mv	a0, s5
   16532: e2 85        	c.mv	a1, s8
   16534: ef 70 51 15  	jal	ra, 0x2de88 <__muldi3>
   16538: a1 65        	c.lui	a1, 0x8
   1653a: ae 94        	c.add	s1, a1
   1653c: 26 95        	c.add	a0, s1
   1653e: 41 81        	c.srli	a0, 0x10
   16540: 23 00 a4 00  	sb	a0, 0x0(s0)
   16544: 62 65        	c.ldsp	a0, 0x18(sp)
   16546: 48 45        	c.lw	a0, 0xc(a0)
   16548: 82 76        	c.ldsp	a3, 0x20(sp)
   1654a: e3 c5 a6 f0  	blt	a3, a0, 0x16454 <fullsize_smooth_downsample+0x88>
   1654e: 45 61        	c.addi16sp	sp, 0x30
   16550: 6f 70 d1 10  	jal	zero, 0x2de5c <__riscv_restore_12>

0000000000016554 <fullsize_downsample>:
   16554: ef 72 51 0e  	jal	t0, 0x2de38 <__riscv_save_5>
   16558: aa 84        	c.mv	s1, a0
   1655a: 03 27 45 13  	lw	a4, 0x134(a0)
   1655e: 1c 55        	c.lw	a5, 0x28(a0)
   16560: 36 84        	c.mv	s0, a3
   16562: 32 85        	c.mv	a0, a2
   16564: 2e 89        	c.mv	s2, a1
   16566: 81 45        	c.li	a1, 0x0
   16568: 36 86        	c.mv	a2, a3
   1656a: 81 46        	c.li	a3, 0x0
   1656c: ef 20 30 43  	jal	ra, 0x1919e <jcopy_sample_rows>
   16570: 03 a5 44 13  	lw	a0, 0x134(s1)
   16574: 63 5f a0 02  	bge	zero, a0, 0x165b2 <fullsize_downsample+0x5e>
   16578: 83 25 c9 01  	lw	a1, 0x1c(s2)
   1657c: 03 e9 84 02  	lwu	s2, 0x28(s1)
   16580: 8e 05        	c.slli	a1, 0x3
   16582: 3b 86 25 41  	subw	a2, a1, s2
   16586: 63 56 c0 02  	bge	zero, a2, 0x165b2 <fullsize_downsample+0x5e>
   1658a: 13 46 f9 ff  	xori	a2, s2, -0x1
   1658e: b2 95        	c.add	a1, a2
   16590: 82 15        	c.slli	a1, 0x20
   16592: 81 91        	c.srli	a1, 0x20
   16594: 93 89 15 00  	addi	s3, a1, 0x1
   16598: 0e 05        	c.slli	a0, 0x3
   1659a: b3 04 a4 00  	add	s1, s0, a0
   1659e: 08 60        	c.ld	a0, 0x0(s0)
   165a0: 4a 95        	c.add	a0, s2
   165a2: 83 45 f5 ff  	lbu	a1, -0x1(a0)
   165a6: 4e 86        	c.mv	a2, s3
   165a8: ef 50 20 6d  	jal	ra, 0x1bc7a <memset>
   165ac: 21 04        	c.addi	s0, 0x8
   165ae: e3 18 94 fe  	bne	s0, s1, 0x1659e <fullsize_downsample+0x4a>
   165b2: 6f 70 11 0c  	jal	zero, 0x2de72 <__riscv_restore_5>

00000000000165b6 <h2v1_downsample>:
   165b6: ef 72 f1 06  	jal	t0, 0x2de24 <__riscv_save_9>
   165ba: ae 8a        	c.mv	s5, a1
   165bc: 83 25 45 13  	lw	a1, 0x134(a0)
   165c0: 03 aa ca 01  	lw	s4, 0x1c(s5)
   165c4: 36 89        	c.mv	s2, a3
   165c6: b2 89        	c.mv	s3, a2
   165c8: 63 5f b0 02  	bge	zero, a1, 0x16606 <h2v1_downsample+0x50>
   165cc: 03 6b 85 02  	lwu	s6, 0x28(a0)
   165d0: 13 15 4a 00  	slli	a0, s4, 0x4
   165d4: 3b 06 65 41  	subw	a2, a0, s6
   165d8: 63 57 c0 02  	bge	zero, a2, 0x16606 <h2v1_downsample+0x50>
   165dc: 13 46 fb ff  	xori	a2, s6, -0x1
   165e0: 32 95        	c.add	a0, a2
   165e2: 02 15        	c.slli	a0, 0x20
   165e4: 01 91        	c.srli	a0, 0x20
   165e6: 93 0b 15 00  	addi	s7, a0, 0x1
   165ea: 8e 05        	c.slli	a1, 0x3
   165ec: 33 84 b9 00  	add	s0, s3, a1
   165f0: ce 84        	c.mv	s1, s3
   165f2: 88 60        	c.ld	a0, 0x0(s1)
   165f4: 5a 95        	c.add	a0, s6
   165f6: 83 45 f5 ff  	lbu	a1, -0x1(a0)
   165fa: 5e 86        	c.mv	a2, s7
   165fc: ef 50 e0 67  	jal	ra, 0x1bc7a <memset>
   16600: a1 04        	c.addi	s1, 0x8
   16602: e3 98 84 fe  	bne	s1, s0, 0x165f2 <h2v1_downsample+0x3c>
   16606: 83 a6 ca 00  	lw	a3, 0xc(s5)
   1660a: 63 5a d0 04  	bge	zero, a3, 0x1665e <h2v1_downsample+0xa8>
   1660e: 01 45        	c.li	a0, 0x0
   16610: 9b 15 3a 00  	slliw	a1, s4, 0x3
   16614: 13 86 85 ff  	addi	a2, a1, -0x8
   16618: 02 16        	c.slli	a2, 0x20
   1661a: 7d 82        	c.srli	a2, 0x1f
   1661c: 13 08 06 01  	addi	a6, a2, 0x10
   16620: 85 cd        	c.beqz	a1, 0x16658 <h2v1_downsample+0xa2>
   16622: 13 17 35 00  	slli	a4, a0, 0x3
   16626: b3 86 e9 00  	add	a3, s3, a4
   1662a: 94 62        	c.ld	a3, 0x0(a3)
   1662c: 4a 97        	c.add	a4, s2
   1662e: 04 63        	c.ld	s1, 0x0(a4)
   16630: 01 47        	c.li	a4, 0x0
   16632: b3 87 06 01  	add	a5, a3, a6
   16636: 03 c4 06 00  	lbu	s0, 0x0(a3)
   1663a: 03 c6 16 00  	lbu	a2, 0x1(a3)
   1663e: 3a 94        	c.add	s0, a4
   16640: 22 96        	c.add	a2, s0
   16642: 05 82        	c.srli	a2, 0x1
   16644: 23 80 c4 00  	sb	a2, 0x0(s1)
   16648: 85 04        	c.addi	s1, 0x1
   1664a: 89 06        	c.addi	a3, 0x2
   1664c: 13 47 17 00  	xori	a4, a4, 0x1
   16650: e3 93 f6 fe  	bne	a3, a5, 0x16636 <h2v1_downsample+0x80>
   16654: 83 a6 ca 00  	lw	a3, 0xc(s5)
   16658: 05 05        	c.addi	a0, 0x1
   1665a: e3 43 d5 fc  	blt	a0, a3, 0x16620 <h2v1_downsample+0x6a>
   1665e: 6f 70 91 00  	jal	zero, 0x2de66 <__riscv_restore_9>

0000000000016662 <h2v2_smooth_downsample>:
   16662: ef 72 01 7b  	jal	t0, 0x2de12 <__riscv_save_12>
   16666: 79 71        	c.addi16sp	sp, -0x30
   16668: aa 89        	c.mv	s3, a0
   1666a: 03 25 45 13  	lw	a0, 0x134(a0)
   1666e: 2e f0        	c.sdsp	a1, 0x20(sp)
   16670: 03 a9 c5 01  	lw	s2, 0x1c(a1)
   16674: fd 55        	c.li	a1, -0x1
   16676: 36 e8        	c.sdsp	a3, 0x10(sp)
   16678: 32 ec        	c.sdsp	a2, 0x18(sp)
   1667a: 63 44 b5 04  	blt	a0, a1, 0x166c2 <h2v2_smooth_downsample+0x60>
   1667e: 03 ea 89 02  	lwu	s4, 0x28(s3)
   16682: 93 15 49 00  	slli	a1, s2, 0x4
   16686: 3b 86 45 41  	subw	a2, a1, s4
   1668a: 63 5c c0 02  	bge	zero, a2, 0x166c2 <h2v2_smooth_downsample+0x60>
   1668e: e2 66        	c.ldsp	a3, 0x18(sp)
   16690: 13 84 86 ff  	addi	s0, a3, -0x8
   16694: 09 05        	c.addi	a0, 0x2
   16696: 13 46 fa ff  	xori	a2, s4, -0x1
   1669a: b2 95        	c.add	a1, a2
   1669c: 82 15        	c.slli	a1, 0x20
   1669e: 81 91        	c.srli	a1, 0x20
   166a0: 93 8a 15 00  	addi	s5, a1, 0x1
   166a4: 02 15        	c.slli	a0, 0x20
   166a6: 75 81        	c.srli	a0, 0x1d
   166a8: 36 95        	c.add	a0, a3
   166aa: 93 04 85 ff  	addi	s1, a0, -0x8
   166ae: 08 60        	c.ld	a0, 0x0(s0)
   166b0: 52 95        	c.add	a0, s4
   166b2: 83 45 f5 ff  	lbu	a1, -0x1(a0)
   166b6: 56 86        	c.mv	a2, s5
   166b8: ef 50 20 5c  	jal	ra, 0x1bc7a <memset>
   166bc: 21 04        	c.addi	s0, 0x8
   166be: e3 18 94 fe  	bne	s0, s1, 0x166ae <h2v2_smooth_downsample+0x4c>
   166c2: 03 a4 89 10  	lw	s0, 0x108(s3)
   166c6: 13 05 44 f3  	addi	a0, s0, -0xcc
   166ca: 93 05 00 fb  	addi	a1, zero, -0x50
   166ce: ef 70 a1 7b  	jal	ra, 0x2de88 <__muldi3>
   166d2: 82 75        	c.ldsp	a1, 0x20(sp)
   166d4: cc 45        	c.lw	a1, 0xc(a1)
   166d6: 63 57 b0 1c  	bge	zero, a1, 0x168a4 <h2v2_smooth_downsample+0x242>
   166da: 81 4c        	c.li	s9, 0x0
   166dc: 01 46        	c.li	a2, 0x0
   166de: 0e 09        	c.slli	s2, 0x3
   166e0: 13 05 05 04  	addi	a0, a0, 0x40
   166e4: 9b 5b 45 00  	srliw	s7, a0, 0x4
   166e8: 92 0b        	c.slli	s7, 0x4
   166ea: 12 14        	c.slli	s0, 0x24
   166ec: 13 5c 04 02  	srli	s8, s0, 0x20
   166f0: 61 19        	c.addi	s2, -0x8
   166f2: 02 19        	c.slli	s2, 0x20
   166f4: 13 55 09 02  	srli	a0, s2, 0x20
   166f8: 1d 05        	c.addi	a0, 0x7
   166fa: 2a e4        	c.sdsp	a0, 0x8(sp)
   166fc: 21 69        	c.lui	s2, 0x8
   166fe: 13 95 3c 00  	slli	a0, s9, 0x3
   16702: c2 65        	c.ldsp	a1, 0x10(sp)
   16704: 2e 95        	c.add	a0, a1
   16706: 03 3d 05 00  	ld	s10, 0x0(a0)
   1670a: 13 15 36 00  	slli	a0, a2, 0x3
   1670e: e2 67        	c.ldsp	a5, 0x18(sp)
   16710: 3e 95        	c.add	a0, a5
   16712: 03 3a 05 00  	ld	s4, 0x0(a0)
   16716: 83 3d 85 00  	ld	s11, 0x8(a0)
   1671a: 83 39 85 ff  	ld	s3, -0x8(a0)
   1671e: 09 06        	c.addi	a2, 0x2
   16720: 32 f4        	c.sdsp	a2, 0x28(sp)
   16722: 13 15 36 00  	slli	a0, a2, 0x3
   16726: 83 45 0a 00  	lbu	a1, 0x0(s4)
   1672a: 03 46 1a 00  	lbu	a2, 0x1(s4)
   1672e: 83 c6 0d 00  	lbu	a3, 0x0(s11)
   16732: 03 c7 1d 00  	lbu	a4, 0x1(s11)
   16736: 3e 95        	c.add	a0, a5
   16738: 00 61        	c.ld	s0, 0x0(a0)
   1673a: b6 95        	c.add	a1, a3
   1673c: 33 05 e6 00  	add	a0, a2, a4
   16740: 2e 95        	c.add	a0, a1
   16742: 03 c6 09 00  	lbu	a2, 0x0(s3)
   16746: 83 c6 19 00  	lbu	a3, 0x1(s3)
   1674a: 03 47 04 00  	lbu	a4, 0x0(s0)
   1674e: 83 47 14 00  	lbu	a5, 0x1(s0)
   16752: 03 48 2a 00  	lbu	a6, 0x2(s4)
   16756: 83 c4 2d 00  	lbu	s1, 0x2(s11)
   1675a: b2 96        	c.add	a3, a2
   1675c: b6 95        	c.add	a1, a3
   1675e: ba 97        	c.add	a5, a4
   16760: be 95        	c.add	a1, a5
   16762: 26 98        	c.add	a6, s1
   16764: 83 c6 29 00  	lbu	a3, 0x2(s3)
   16768: bb 85 05 01  	addw	a1, a1, a6
   1676c: 83 47 24 00  	lbu	a5, 0x2(s0)
   16770: 86 05        	c.slli	a1, 0x1
   16772: 36 96        	c.add	a2, a3
   16774: 3a 96        	c.add	a2, a4
   16776: 3e 96        	c.add	a2, a5
   16778: b3 8a c5 00  	add	s5, a1, a2
   1677c: de 85        	c.mv	a1, s7
   1677e: ef 70 a1 70  	jal	ra, 0x2de88 <__muldi3>
   16782: 2a 8b        	c.mv	s6, a0
   16784: 56 85        	c.mv	a0, s5
   16786: e2 85        	c.mv	a1, s8
   16788: ef 70 01 70  	jal	ra, 0x2de88 <__muldi3>
   1678c: 4a 9b        	c.add	s6, s2
   1678e: 5a 95        	c.add	a0, s6
   16790: 41 81        	c.srli	a0, 0x10
   16792: 23 00 ad 00  	sb	a0, 0x0(s10)
   16796: 93 0a 1d 00  	addi	s5, s10, 0x1
   1679a: 0d 04        	c.addi	s0, 0x3
   1679c: 0d 0a        	c.addi	s4, 0x3
   1679e: 8d 0d        	c.addi	s11, 0x3
   167a0: 8d 09        	c.addi	s3, 0x3
   167a2: 22 65        	c.ldsp	a0, 0x8(sp)
   167a4: 2a 9d        	c.add	s10, a0
   167a6: 03 45 fa ff  	lbu	a0, -0x1(s4)
   167aa: 83 45 0a 00  	lbu	a1, 0x0(s4)
   167ae: 03 c6 fd ff  	lbu	a2, -0x1(s11)
   167b2: 83 c6 0d 00  	lbu	a3, 0x0(s11)
   167b6: 03 c7 f9 ff  	lbu	a4, -0x1(s3)
   167ba: 83 c7 09 00  	lbu	a5, 0x0(s3)
   167be: 2e 95        	c.add	a0, a1
   167c0: 36 96        	c.add	a2, a3
   167c2: 32 95        	c.add	a0, a2
   167c4: 3e 97        	c.add	a4, a5
   167c6: 83 45 f4 ff  	lbu	a1, -0x1(s0)
   167ca: 03 46 04 00  	lbu	a2, 0x0(s0)
   167ce: 83 46 ea ff  	lbu	a3, -0x2(s4)
   167d2: 83 47 1a 00  	lbu	a5, 0x1(s4)
   167d6: 83 c4 ed ff  	lbu	s1, -0x2(s11)
   167da: b2 95        	c.add	a1, a2
   167dc: ba 95        	c.add	a1, a4
   167de: be 96        	c.add	a3, a5
   167e0: a6 96        	c.add	a3, s1
   167e2: b6 95        	c.add	a1, a3
   167e4: 03 c6 1d 00  	lbu	a2, 0x1(s11)
   167e8: 83 c6 e9 ff  	lbu	a3, -0x2(s3)
   167ec: 03 c7 19 00  	lbu	a4, 0x1(s3)
   167f0: 83 47 e4 ff  	lbu	a5, -0x2(s0)
   167f4: b2 95        	c.add	a1, a2
   167f6: 03 46 14 00  	lbu	a2, 0x1(s0)
   167fa: ba 96        	c.add	a3, a4
   167fc: be 96        	c.add	a3, a5
   167fe: 86 05        	c.slli	a1, 0x1
   16800: 36 96        	c.add	a2, a3
   16802: 33 0b b6 00  	add	s6, a2, a1
   16806: de 85        	c.mv	a1, s7
   16808: ef 70 01 68  	jal	ra, 0x2de88 <__muldi3>
   1680c: aa 84        	c.mv	s1, a0
   1680e: 5a 85        	c.mv	a0, s6
   16810: e2 85        	c.mv	a1, s8
   16812: ef 70 61 67  	jal	ra, 0x2de88 <__muldi3>
   16816: ca 94        	c.add	s1, s2
   16818: 26 95        	c.add	a0, s1
   1681a: 41 81        	c.srli	a0, 0x10
   1681c: 23 80 aa 00  	sb	a0, 0x0(s5)
   16820: 85 0a        	c.addi	s5, 0x1
   16822: 09 04        	c.addi	s0, 0x2
   16824: 09 0a        	c.addi	s4, 0x2
   16826: 89 0d        	c.addi	s11, 0x2
   16828: 89 09        	c.addi	s3, 0x2
   1682a: e3 9e aa f7  	bne	s5, s10, 0x167a6 <h2v2_smooth_downsample+0x144>
   1682e: 03 45 fa ff  	lbu	a0, -0x1(s4)
   16832: 83 45 0a 00  	lbu	a1, 0x0(s4)
   16836: 03 c6 0d 00  	lbu	a2, 0x0(s11)
   1683a: 83 c6 fd ff  	lbu	a3, -0x1(s11)
   1683e: b2 95        	c.add	a1, a2
   16840: 36 95        	c.add	a0, a3
   16842: 2e 95        	c.add	a0, a1
   16844: 03 c6 f9 ff  	lbu	a2, -0x1(s3)
   16848: 83 c6 09 00  	lbu	a3, 0x0(s3)
   1684c: 03 47 f4 ff  	lbu	a4, -0x1(s0)
   16850: 83 47 04 00  	lbu	a5, 0x0(s0)
   16854: 83 44 ea ff  	lbu	s1, -0x2(s4)
   16858: 03 c8 ed ff  	lbu	a6, -0x2(s11)
   1685c: 36 96        	c.add	a2, a3
   1685e: b2 95        	c.add	a1, a2
   16860: 3e 97        	c.add	a4, a5
   16862: 26 97        	c.add	a4, s1
   16864: ba 95        	c.add	a1, a4
   16866: 03 c6 e9 ff  	lbu	a2, -0x2(s3)
   1686a: 03 47 e4 ff  	lbu	a4, -0x2(s0)
   1686e: bb 85 05 01  	addw	a1, a1, a6
   16872: 86 05        	c.slli	a1, 0x1
   16874: be 96        	c.add	a3, a5
   16876: 3a 96        	c.add	a2, a4
   16878: 36 96        	c.add	a2, a3
   1687a: 33 84 c5 00  	add	s0, a1, a2
   1687e: de 85        	c.mv	a1, s7
   16880: ef 70 81 60  	jal	ra, 0x2de88 <__muldi3>
   16884: aa 84        	c.mv	s1, a0
   16886: 22 85        	c.mv	a0, s0
   16888: e2 85        	c.mv	a1, s8
   1688a: ef 70 e1 5f  	jal	ra, 0x2de88 <__muldi3>
   1688e: ca 94        	c.add	s1, s2
   16890: 26 95        	c.add	a0, s1
   16892: 41 81        	c.srli	a0, 0x10
   16894: 23 80 aa 00  	sb	a0, 0x0(s5)
   16898: 02 75        	c.ldsp	a0, 0x20(sp)
   1689a: 48 45        	c.lw	a0, 0xc(a0)
   1689c: 85 0c        	c.addi	s9, 0x1
   1689e: 22 76        	c.ldsp	a2, 0x28(sp)
   168a0: e3 cf ac e4  	blt	s9, a0, 0x166fe <h2v2_smooth_downsample+0x9c>
   168a4: 45 61        	c.addi16sp	sp, 0x30
   168a6: 6f 70 61 5b  	jal	zero, 0x2de5c <__riscv_restore_12>

00000000000168aa <h2v2_downsample>:
   168aa: ef 72 a1 57  	jal	t0, 0x2de24 <__riscv_save_9>
   168ae: ae 8a        	c.mv	s5, a1
   168b0: 83 25 45 13  	lw	a1, 0x134(a0)
   168b4: 03 aa ca 01  	lw	s4, 0x1c(s5)
   168b8: 36 89        	c.mv	s2, a3
   168ba: b2 89        	c.mv	s3, a2
   168bc: 63 5f b0 02  	bge	zero, a1, 0x168fa <h2v2_downsample+0x50>
   168c0: 03 6b 85 02  	lwu	s6, 0x28(a0)
   168c4: 13 15 4a 00  	slli	a0, s4, 0x4
   168c8: 3b 06 65 41  	subw	a2, a0, s6
   168cc: 63 57 c0 02  	bge	zero, a2, 0x168fa <h2v2_downsample+0x50>
   168d0: 13 46 fb ff  	xori	a2, s6, -0x1
   168d4: 32 95        	c.add	a0, a2
   168d6: 02 15        	c.slli	a0, 0x20
   168d8: 01 91        	c.srli	a0, 0x20
   168da: 93 0b 15 00  	addi	s7, a0, 0x1
   168de: 8e 05        	c.slli	a1, 0x3
   168e0: 33 84 b9 00  	add	s0, s3, a1
   168e4: ce 84        	c.mv	s1, s3
   168e6: 88 60        	c.ld	a0, 0x0(s1)
   168e8: 5a 95        	c.add	a0, s6
   168ea: 83 45 f5 ff  	lbu	a1, -0x1(a0)
   168ee: 5e 86        	c.mv	a2, s7
   168f0: ef 50 a0 38  	jal	ra, 0x1bc7a <memset>
   168f4: a1 04        	c.addi	s1, 0x8
   168f6: e3 98 84 fe  	bne	s1, s0, 0x168e6 <h2v2_downsample+0x3c>
   168fa: 03 a7 ca 00  	lw	a4, 0xc(s5)
   168fe: 63 56 e0 06  	bge	zero, a4, 0x1696a <h2v2_downsample+0xc0>
   16902: 01 43        	c.li	t1, 0x0
   16904: 81 42        	c.li	t0, 0x0
   16906: 9b 18 3a 00  	slliw	a7, s4, 0x3
   1690a: 93 86 88 ff  	addi	a3, a7, -0x8
   1690e: 82 16        	c.slli	a3, 0x20
   16910: fd 82        	c.srli	a3, 0x1f
   16912: 13 88 06 01  	addi	a6, a3, 0x10
   16916: 63 86 08 04  	beq	a7, zero, 0x16962 <h2v2_downsample+0xb8>
   1691a: 93 96 32 00  	slli	a3, t0, 0x3
   1691e: ce 96        	c.add	a3, s3
   16920: 98 66        	c.ld	a4, 0x8(a3)
   16922: 9c 62        	c.ld	a5, 0x0(a3)
   16924: 93 16 33 00  	slli	a3, t1, 0x3
   16928: ca 96        	c.add	a3, s2
   1692a: 84 62        	c.ld	s1, 0x0(a3)
   1692c: b3 83 07 01  	add	t2, a5, a6
   16930: 05 44        	c.li	s0, 0x1
   16932: 03 c6 07 00  	lbu	a2, 0x0(a5)
   16936: 83 c5 17 00  	lbu	a1, 0x1(a5)
   1693a: 03 45 07 00  	lbu	a0, 0x0(a4)
   1693e: 83 46 17 00  	lbu	a3, 0x1(a4)
   16942: 22 96        	c.add	a2, s0
   16944: 2e 95        	c.add	a0, a1
   16946: 32 95        	c.add	a0, a2
   16948: 36 95        	c.add	a0, a3
   1694a: 09 81        	c.srli	a0, 0x2
   1694c: 23 80 a4 00  	sb	a0, 0x0(s1)
   16950: 85 04        	c.addi	s1, 0x1
   16952: 13 44 34 00  	xori	s0, s0, 0x3
   16956: 89 07        	c.addi	a5, 0x2
   16958: 09 07        	c.addi	a4, 0x2
   1695a: e3 9c 77 fc  	bne	a5, t2, 0x16932 <h2v2_downsample+0x88>
   1695e: 03 a7 ca 00  	lw	a4, 0xc(s5)
   16962: 05 03        	c.addi	t1, 0x1
   16964: 89 02        	c.addi	t0, 0x2
   16966: e3 48 e3 fa  	blt	t1, a4, 0x16916 <h2v2_downsample+0x6c>
   1696a: 6f 70 c1 4f  	jal	zero, 0x2de66 <__riscv_restore_9>

000000000001696e <int_downsample>:
   1696e: ef 72 41 4a  	jal	t0, 0x2de12 <__riscv_save_12>
   16972: 01 11        	c.addi	sp, -0x20
   16974: ae 84        	c.mv	s1, a1
   16976: 2a 84        	c.mv	s0, a0
   16978: d8 4d        	c.lw	a4, 0x1c(a1)
   1697a: 03 25 05 13  	lw	a0, 0x130(a0)
   1697e: 8c 45        	c.lw	a1, 0x8(a1)
   16980: 36 e0        	c.sdsp	a3, 0x0(sp)
   16982: 32 e4        	c.sdsp	a2, 0x8(sp)
   16984: 9b 1d 37 00  	slliw	s11, a4, 0x3
   16988: ef 70 01 54  	jal	ra, 0x2dec8 <__divdi3>
   1698c: 83 2c 44 13  	lw	s9, 0x134(s0)
   16990: 26 e8        	c.sdsp	s1, 0x10(sp)
   16992: 83 aa c4 00  	lw	s5, 0xc(s1)
   16996: 2a 8c        	c.mv	s8, a0
   16998: 66 85        	c.mv	a0, s9
   1699a: d6 85        	c.mv	a1, s5
   1699c: ef 70 c1 52  	jal	ra, 0x2dec8 <__divdi3>
   169a0: 2a 8b        	c.mv	s6, a0
   169a2: e2 85        	c.mv	a1, s8
   169a4: ef 70 41 4e  	jal	ra, 0x2de88 <__muldi3>
   169a8: 83 69 84 02  	lwu	s3, 0x28(s0)
   169ac: 2a 89        	c.mv	s2, a0
   169ae: 62 85        	c.mv	a0, s8
   169b0: ee 85        	c.mv	a1, s11
   169b2: ef 70 61 4d  	jal	ra, 0x2de88 <__muldi3>
   169b6: 63 5e 90 03  	bge	zero, s9, 0x169f2 <int_downsample+0x84>
   169ba: bb 05 35 41  	subw	a1, a0, s3
   169be: 63 5a b0 02  	bge	zero, a1, 0x169f2 <int_downsample+0x84>
   169c2: 93 c5 f9 ff  	xori	a1, s3, -0x1
   169c6: 2e 95        	c.add	a0, a1
   169c8: 02 15        	c.slli	a0, 0x20
   169ca: 01 91        	c.srli	a0, 0x20
   169cc: 13 0a 15 00  	addi	s4, a0, 0x1
   169d0: 93 94 3c 00  	slli	s1, s9, 0x3
   169d4: 22 64        	c.ldsp	s0, 0x8(sp)
   169d6: a2 94        	c.add	s1, s0
   169d8: 08 60        	c.ld	a0, 0x0(s0)
   169da: 4e 95        	c.add	a0, s3
   169dc: 83 45 f5 ff  	lbu	a1, -0x1(a0)
   169e0: 52 86        	c.mv	a2, s4
   169e2: ef 50 80 29  	jal	ra, 0x1bc7a <memset>
   169e6: 21 04        	c.addi	s0, 0x8
   169e8: e3 18 94 fe  	bne	s0, s1, 0x169d8 <int_downsample+0x6a>
   169ec: 42 65        	c.ldsp	a0, 0x10(sp)
   169ee: 83 2a c5 00  	lw	s5, 0xc(a0)
   169f2: 63 53 50 0b  	bge	zero, s5, 0x16a98 <int_downsample+0x12a>
   169f6: 81 4c        	c.li	s9, 0x0
   169f8: 01 46        	c.li	a2, 0x0
   169fa: 1b 55 f9 01  	srliw	a0, s2, 0x1f
   169fe: 4a 95        	c.add	a0, s2
   16a00: 01 2c        	c.addiw	s8, 0x0
   16a02: 01 2b        	c.addiw	s6, 0x0
   16a04: 9b 5b 15 40  	sraiw	s7, a0, 0x1
   16a08: 01 29        	c.addiw	s2, 0x0
   16a0a: 13 05 fc ff  	addi	a0, s8, -0x1
   16a0e: 02 15        	c.slli	a0, 0x20
   16a10: 01 91        	c.srli	a0, 0x20
   16a12: 93 04 15 00  	addi	s1, a0, 0x1
   16a16: 63 8d 0d 06  	beq	s11, zero, 0x16a90 <int_downsample+0x122>
   16a1a: 13 95 3c 00  	slli	a0, s9, 0x3
   16a1e: 82 65        	c.ldsp	a1, 0x0(sp)
   16a20: 2e 95        	c.add	a0, a1
   16a22: 83 3a 05 00  	ld	s5, 0x0(a0)
   16a26: 01 4d        	c.li	s10, 0x0
   16a28: 81 49        	c.li	s3, 0x0
   16a2a: 32 ec        	c.sdsp	a2, 0x18(sp)
   16a2c: 13 1a 36 00  	slli	s4, a2, 0x3
   16a30: 22 65        	c.ldsp	a0, 0x8(sp)
   16a32: 2a 9a        	c.add	s4, a0
   16a34: 63 5e 60 03  	bge	zero, s6, 0x16a70 <int_downsample+0x102>
   16a38: 81 45        	c.li	a1, 0x0
   16a3a: 01 45        	c.li	a0, 0x0
   16a3c: 13 16 0d 02  	slli	a2, s10, 0x20
   16a40: 01 92        	c.srli	a2, 0x20
   16a42: 63 53 80 03  	bge	zero, s8, 0x16a68 <int_downsample+0xfa>
   16a46: 93 96 35 00  	slli	a3, a1, 0x3
   16a4a: d2 96        	c.add	a3, s4
   16a4c: 94 62        	c.ld	a3, 0x0(a3)
   16a4e: 33 87 c6 00  	add	a4, a3, a2
   16a52: b3 87 c4 00  	add	a5, s1, a2
   16a56: be 96        	c.add	a3, a5
   16a58: 83 47 07 00  	lbu	a5, 0x0(a4)
   16a5c: 13 04 17 00  	addi	s0, a4, 0x1
   16a60: 3e 95        	c.add	a0, a5
   16a62: 22 87        	c.mv	a4, s0
   16a64: e3 1a d4 fe  	bne	s0, a3, 0x16a58 <int_downsample+0xea>
   16a68: 85 05        	c.addi	a1, 0x1
   16a6a: e3 9c 65 fd  	bne	a1, s6, 0x16a42 <int_downsample+0xd4>
   16a6e: 11 a0        	c.j	0x16a72 <int_downsample+0x104>
   16a70: 01 45        	c.li	a0, 0x0
   16a72: 5e 95        	c.add	a0, s7
   16a74: ca 85        	c.mv	a1, s2
   16a76: ef 70 21 45  	jal	ra, 0x2dec8 <__divdi3>
   16a7a: 23 80 aa 00  	sb	a0, 0x0(s5)
   16a7e: 85 0a        	c.addi	s5, 0x1
   16a80: 85 29        	c.addiw	s3, 0x1
   16a82: 62 9d        	c.add	s10, s8
   16a84: e3 98 b9 fb  	bne	s3, s11, 0x16a34 <int_downsample+0xc6>
   16a88: 42 65        	c.ldsp	a0, 0x10(sp)
   16a8a: 83 2a c5 00  	lw	s5, 0xc(a0)
   16a8e: 62 66        	c.ldsp	a2, 0x18(sp)
   16a90: 85 0c        	c.addi	s9, 0x1
   16a92: 5a 96        	c.add	a2, s6
   16a94: e3 c1 5c f9  	blt	s9, s5, 0x16a16 <int_downsample+0xa8>
   16a98: 05 61        	c.addi16sp	sp, 0x20
   16a9a: 6f 70 21 3c  	jal	zero, 0x2de5c <__riscv_restore_12>

0000000000016a9e <jpeg_make_c_derived_tbl>:
   16a9e: ef 72 01 39  	jal	t0, 0x2de2e <__riscv_save_7>
   16aa2: 13 01 01 af  	addi	sp, sp, -0x510
   16aa6: 83 39 06 00  	ld	s3, 0x0(a2)
   16aaa: 2e 89        	c.mv	s2, a1
   16aac: 63 9b 09 00  	bne	s3, zero, 0x16ac2 <jpeg_make_c_derived_tbl+0x24>
   16ab0: b2 84        	c.mv	s1, a2
   16ab2: 0c 65        	c.ld	a1, 0x8(a0)
   16ab4: 94 61        	c.ld	a3, 0x0(a1)
   16ab6: 85 45        	c.li	a1, 0x1
   16ab8: 13 06 00 50  	addi	a2, zero, 0x500
   16abc: 82 96        	c.jalr	a3
   16abe: aa 89        	c.mv	s3, a0
   16ac0: 88 e0        	c.sd	a0, 0x0(s1)
   16ac2: 01 4a        	c.li	s4, 0x0
   16ac4: 85 44        	c.li	s1, 0x1
   16ac6: c5 4a        	c.li	s5, 0x11
   16ac8: 13 0b f1 40  	addi	s6, sp, 0x40f
   16acc: 33 05 99 00  	add	a0, s2, s1
   16ad0: 03 44 05 00  	lbu	s0, 0x0(a0)
   16ad4: 09 c8        	c.beqz	s0, 0x16ae6 <jpeg_make_c_derived_tbl+0x48>
   16ad6: 33 05 4b 01  	add	a0, s6, s4
   16ada: a6 85        	c.mv	a1, s1
   16adc: 22 86        	c.mv	a2, s0
   16ade: ef 50 c0 19  	jal	ra, 0x1bc7a <memset>
   16ae2: 3b 0a 8a 00  	addw	s4, s4, s0
   16ae6: 85 04        	c.addi	s1, 0x1
   16ae8: e3 92 54 ff  	bne	s1, s5, 0x16acc <jpeg_make_c_derived_tbl+0x2e>
   16aec: 13 08 f1 40  	addi	a6, sp, 0x40f
   16af0: 33 05 48 01  	add	a0, a6, s4
   16af4: 23 00 05 00  	sb	zero, 0x0(a0)
   16af8: 03 44 f1 40  	lbu	s0, 0x40f(sp)
   16afc: 21 c8        	c.beqz	s0, 0x16b4c <jpeg_make_c_derived_tbl+0xae>
   16afe: 81 45        	c.li	a1, 0x0
   16b00: 81 46        	c.li	a3, 0x0
   16b02: 93 08 01 41  	addi	a7, sp, 0x410
   16b06: 93 02 81 00  	addi	t0, sp, 0x8
   16b0a: 85 47        	c.li	a5, 0x1
   16b0c: 82 17        	c.slli	a5, 0x20
   16b0e: a2 84        	c.mv	s1, s0
   16b10: 13 75 f4 0f  	andi	a0, s0, 0xff
   16b14: 63 97 a4 02  	bne	s1, a0, 0x16b42 <jpeg_make_c_derived_tbl+0xa4>
   16b18: 13 97 26 00  	slli	a4, a3, 0x2
   16b1c: 16 97        	c.add	a4, t0
   16b1e: 13 96 06 02  	slli	a2, a3, 0x20
   16b22: 33 85 d8 00  	add	a0, a7, a3
   16b26: 0c c3        	c.sw	a1, 0x0(a4)
   16b28: 85 05        	c.addi	a1, 0x1
   16b2a: 03 44 05 00  	lbu	s0, 0x0(a0)
   16b2e: 11 07        	c.addi	a4, 0x4
   16b30: 3e 96        	c.add	a2, a5
   16b32: 85 26        	c.addiw	a3, 0x1
   16b34: 05 05        	c.addi	a0, 0x1
   16b36: e3 88 84 fe  	beq	s1, s0, 0x16b26 <jpeg_make_c_derived_tbl+0x88>
   16b3a: 01 96        	c.srai	a2, 0x20
   16b3c: 42 96        	c.add	a2, a6
   16b3e: 03 44 06 00  	lbu	s0, 0x0(a2)
   16b42: 86 05        	c.slli	a1, 0x1
   16b44: 13 75 f4 0f  	andi	a0, s0, 0xff
   16b48: 85 24        	c.addiw	s1, 0x1
   16b4a: 79 f1        	c.bnez	a0, 0x16b10 <jpeg_make_c_derived_tbl+0x72>
   16b4c: 13 85 09 40  	addi	a0, s3, 0x400
   16b50: 13 06 00 10  	addi	a2, zero, 0x100
   16b54: 81 45        	c.li	a1, 0x0
   16b56: ef 50 40 12  	jal	ra, 0x1bc7a <memset>
   16b5a: 63 59 40 03  	bge	zero, s4, 0x16b8c <jpeg_make_c_derived_tbl+0xee>
   16b5e: 45 09        	c.addi	s2, 0x11
   16b60: 13 05 f1 40  	addi	a0, sp, 0x40f
   16b64: 2a 9a        	c.add	s4, a0
   16b66: 2c 00        	c.addi4spn	a1, sp, 0x8
   16b68: 03 46 09 00  	lbu	a2, 0x0(s2)
   16b6c: 94 41        	c.lw	a3, 0x0(a1)
   16b6e: 0a 06        	c.slli	a2, 0x2
   16b70: 4e 96        	c.add	a2, s3
   16b72: 14 c2        	c.sw	a3, 0x0(a2)
   16b74: 03 46 09 00  	lbu	a2, 0x0(s2)
   16b78: 83 46 05 00  	lbu	a3, 0x0(a0)
   16b7c: 4e 96        	c.add	a2, s3
   16b7e: 23 00 d6 40  	sb	a3, 0x400(a2)
   16b82: 05 05        	c.addi	a0, 0x1
   16b84: 91 05        	c.addi	a1, 0x4
   16b86: 05 09        	c.addi	s2, 0x1
   16b88: e3 10 45 ff  	bne	a0, s4, 0x16b68 <jpeg_make_c_derived_tbl+0xca>
   16b8c: 13 01 01 51  	addi	sp, sp, 0x510
   16b90: 6f 70 c1 2d  	jal	zero, 0x2de6c <__riscv_restore_7>

0000000000016b94 <jpeg_gen_optimal_table>:
   16b94: ef 72 01 29  	jal	t0, 0x2de24 <__riscv_save_9>
   16b98: 13 01 01 80  	addi	sp, sp, -0x800
   16b9c: 39 71        	c.addi16sp	sp, -0x40
   16b9e: b2 89        	c.mv	s3, a2
   16ba0: 2e 8a        	c.mv	s4, a1
   16ba2: 2a 89        	c.mv	s2, a0
   16ba4: 13 05 f1 7f  	addi	a0, sp, 0x7ff
   16ba8: 13 05 05 02  	addi	a0, a0, 0x20
   16bac: 13 06 10 02  	addi	a2, zero, 0x21
   16bb0: 81 45        	c.li	a1, 0x0
   16bb2: ef 50 80 0c  	jal	ra, 0x1bc7a <memset>
   16bb6: 13 05 81 41  	addi	a0, sp, 0x418
   16bba: 13 06 40 40  	addi	a2, zero, 0x404
   16bbe: 93 0a 81 41  	addi	s5, sp, 0x418
   16bc2: 81 45        	c.li	a1, 0x0
   16bc4: ef 50 60 0b  	jal	ra, 0x1bc7a <memset>
   16bc8: 48 08        	c.addi4spn	a0, sp, 0x14
   16bca: 93 05 f0 0f  	addi	a1, zero, 0xff
   16bce: 13 06 40 40  	addi	a2, zero, 0x404
   16bd2: 13 0b 41 01  	addi	s6, sp, 0x14
   16bd6: ef 50 40 0a  	jal	ra, 0x1bc7a <memset>
   16bda: 81 46        	c.li	a3, 0x0
   16bdc: 13 85 f9 7f  	addi	a0, s3, 0x7ff
   16be0: 85 45        	c.li	a1, 0x1
   16be2: a3 30 b5 00  	sd	a1, 0x1(a0)
   16be6: fd 52        	c.li	t0, -0x1
   16be8: 37 d5 9a 3b  	lui	a0, 0x3b9ad
   16bec: 9b 08 05 a0  	addiw	a7, a0, -0x600
   16bf0: 13 08 10 10  	addi	a6, zero, 0x101
   16bf4: 46 85        	c.mv	a0, a7
   16bf6: 93 95 36 00  	slli	a1, a3, 0x3
   16bfa: ce 95        	c.add	a1, s3
   16bfc: 8c 61        	c.ld	a1, 0x0(a1)
   16bfe: 13 b6 15 00  	sltiu	a2, a1, 0x1
   16c02: 33 27 b5 00  	slt	a4, a0, a1
   16c06: 59 8e        	c.or	a2, a4
   16c08: 19 e2        	c.bnez	a2, 0x16c0e <jpeg_gen_optimal_table+0x7a>
   16c0a: b6 82        	c.mv	t0, a3
   16c0c: 2e 85        	c.mv	a0, a1
   16c0e: 85 06        	c.addi	a3, 0x1
   16c10: e3 93 06 ff  	bne	a3, a6, 0x16bf6 <jpeg_gen_optimal_table+0x62>
   16c14: 01 47        	c.li	a4, 0x0
   16c16: 93 97 02 02  	slli	a5, t0, 0x20
   16c1a: 93 d3 07 02  	srli	t2, a5, 0x20
   16c1e: 7d 53        	c.li	t1, -0x1
   16c20: 93 05 10 10  	addi	a1, zero, 0x101
   16c24: 4e 85        	c.mv	a0, s3
   16c26: c6 84        	c.mv	s1, a7
   16c28: 10 61        	c.ld	a2, 0x0(a0)
   16c2a: b3 87 b3 00  	add	a5, t2, a1
   16c2e: 13 34 16 00  	sltiu	s0, a2, 0x1
   16c32: b3 a6 c4 00  	slt	a3, s1, a2
   16c36: 93 87 f7 ef  	addi	a5, a5, -0x101
   16c3a: 93 b7 17 00  	sltiu	a5, a5, 0x1
   16c3e: c1 8f        	c.or	a5, s0
   16c40: 33 e4 d7 00  	or	s0, a5, a3
   16c44: 11 e0        	c.bnez	s0, 0x16c48 <jpeg_gen_optimal_table+0xb4>
   16c46: 3a 83        	c.mv	t1, a4
   16c48: 11 e0        	c.bnez	s0, 0x16c4c <jpeg_gen_optimal_table+0xb8>
   16c4a: b2 84        	c.mv	s1, a2
   16c4c: 21 05        	c.addi	a0, 0x8
   16c4e: fd 15        	c.addi	a1, -0x1
   16c50: 05 27        	c.addiw	a4, 0x1
   16c52: f9 f9        	c.bnez	a1, 0x16c28 <jpeg_gen_optimal_table+0x94>
   16c54: 63 44 03 08  	blt	t1, zero, 0x16cdc <jpeg_gen_optimal_table+0x148>
   16c58: 13 15 33 00  	slli	a0, t1, 0x3
   16c5c: 33 86 a9 00  	add	a2, s3, a0
   16c60: 08 62        	c.ld	a0, 0x0(a2)
   16c62: 81 22        	c.addiw	t0, 0x0
   16c64: 93 95 32 00  	slli	a1, t0, 0x3
   16c68: b3 86 b9 00  	add	a3, s3, a1
   16c6c: 8c 62        	c.ld	a1, 0x0(a3)
   16c6e: 33 87 a5 00  	add	a4, a1, a0
   16c72: 93 95 22 00  	slli	a1, t0, 0x2
   16c76: b3 87 ba 00  	add	a5, s5, a1
   16c7a: 84 43        	c.lw	s1, 0x0(a5)
   16c7c: da 95        	c.add	a1, s6
   16c7e: 88 41        	c.lw	a0, 0x0(a1)
   16c80: 98 e2        	c.sd	a4, 0x0(a3)
   16c82: 23 30 06 00  	sd	zero, 0x0(a2)
   16c86: 85 04        	c.addi	s1, 0x1
   16c88: 84 c3        	c.sw	s1, 0x0(a5)
   16c8a: 63 4d 05 00  	blt	a0, zero, 0x16ca4 <jpeg_gen_optimal_table+0x110>
   16c8e: 0a 05        	c.slli	a0, 0x2
   16c90: 33 86 aa 00  	add	a2, s5, a0
   16c94: 14 42        	c.lw	a3, 0x0(a2)
   16c96: b3 05 ab 00  	add	a1, s6, a0
   16c9a: 88 41        	c.lw	a0, 0x0(a1)
   16c9c: 85 06        	c.addi	a3, 0x1
   16c9e: 14 c2        	c.sw	a3, 0x0(a2)
   16ca0: e3 57 05 fe  	bge	a0, zero, 0x16c8e <jpeg_gen_optimal_table+0xfa>
   16ca4: 23 a0 65 00  	sw	t1, 0x0(a1)
   16ca8: 0a 03        	c.slli	t1, 0x2
   16caa: 33 85 6a 00  	add	a0, s5, t1
   16cae: 10 41        	c.lw	a2, 0x0(a0)
   16cb0: 5a 93        	c.add	t1, s6
   16cb2: 83 25 03 00  	lw	a1, 0x0(t1)
   16cb6: 81 46        	c.li	a3, 0x0
   16cb8: 05 06        	c.addi	a2, 0x1
   16cba: 10 c1        	c.sw	a2, 0x0(a0)
   16cbc: fd 52        	c.li	t0, -0x1
   16cbe: 46 85        	c.mv	a0, a7
   16cc0: e3 cb 05 f2  	blt	a1, zero, 0x16bf6 <jpeg_gen_optimal_table+0x62>
   16cc4: 8a 05        	c.slli	a1, 0x2
   16cc6: 33 85 ba 00  	add	a0, s5, a1
   16cca: 10 41        	c.lw	a2, 0x0(a0)
   16ccc: da 95        	c.add	a1, s6
   16cce: 8c 41        	c.lw	a1, 0x0(a1)
   16cd0: 05 06        	c.addi	a2, 0x1
   16cd2: 10 c1        	c.sw	a2, 0x0(a0)
   16cd4: e3 d8 05 fe  	bge	a1, zero, 0x16cc4 <jpeg_gen_optimal_table+0x130>
   16cd8: 81 46        	c.li	a3, 0x0
   16cda: 29 bf        	c.j	0x16bf4 <jpeg_gen_optimal_table+0x60>
   16cdc: 13 04 81 41  	addi	s0, sp, 0x418
   16ce0: 93 0b f1 7f  	addi	s7, sp, 0x7ff
   16ce4: f5 0b        	c.addi	s7, 0x1d
   16ce6: 93 09 10 02  	addi	s3, zero, 0x21
   16cea: 93 0a 60 02  	addi	s5, zero, 0x26
   16cee: 13 0b f1 7f  	addi	s6, sp, 0x7ff
   16cf2: 13 0b 0b 02  	addi	s6, s6, 0x20
   16cf6: 04 40        	c.lw	s1, 0x0(s0)
   16cf8: 85 c0        	c.beqz	s1, 0x16d18 <jpeg_gen_optimal_table+0x184>
   16cfa: 63 c9 34 01  	blt	s1, s3, 0x16d0c <jpeg_gen_optimal_table+0x178>
   16cfe: 03 35 09 00  	ld	a0, 0x0(s2)
   16d02: 0c 61        	c.ld	a1, 0x0(a0)
   16d04: 23 24 55 03  	sw	s5, 0x28(a0)
   16d08: 4a 85        	c.mv	a0, s2
   16d0a: 82 95        	c.jalr	a1
   16d0c: da 94        	c.add	s1, s6
   16d0e: 03 c5 04 00  	lbu	a0, 0x0(s1)
   16d12: 05 05        	c.addi	a0, 0x1
   16d14: 23 80 a4 00  	sb	a0, 0x0(s1)
   16d18: 11 04        	c.addi	s0, 0x4
   16d1a: e3 1e 74 fd  	bne	s0, s7, 0x16cf6 <jpeg_gen_optimal_table+0x162>
   16d1e: 7d 55        	c.li	a0, -0x1
   16d20: 02 15        	c.slli	a0, 0x20
   16d22: 93 08 00 02  	addi	a7, zero, 0x20
   16d26: 93 03 f1 7f  	addi	t2, sp, 0x7ff
   16d2a: 93 83 f3 03  	addi	t2, t2, 0x3f
   16d2e: 05 47        	c.li	a4, 0x1
   16d30: 16 17        	c.slli	a4, 0x25
   16d32: 13 03 f1 7f  	addi	t1, sp, 0x7ff
   16d36: 13 03 03 02  	addi	t1, t1, 0x20
   16d3a: 45 48        	c.li	a6, 0x11
   16d3c: c6 82        	c.mv	t0, a7
   16d3e: b3 06 13 01  	add	a3, t1, a7
   16d42: 83 c4 06 00  	lbu	s1, 0x0(a3)
   16d46: fd 18        	c.addi	a7, -0x1
   16d48: a9 c0        	c.beqz	s1, 0x16d8a <jpeg_gen_optimal_table+0x1f6>
   16d4a: 33 04 13 01  	add	s0, t1, a7
   16d4e: 9e 85        	c.mv	a1, t2
   16d50: 3a 86        	c.mv	a2, a4
   16d52: 83 c7 f5 ff  	lbu	a5, -0x1(a1)
   16d56: fd 15        	c.addi	a1, -0x1
   16d58: 2a 96        	c.add	a2, a0
   16d5a: e5 df        	c.beqz	a5, 0x16d52 <jpeg_gen_optimal_table+0x1be>
   16d5c: 83 47 04 00  	lbu	a5, 0x0(s0)
   16d60: f9 14        	c.addi	s1, -0x2
   16d62: 23 80 96 00  	sb	s1, 0x0(a3)
   16d66: 85 07        	c.addi	a5, 0x1
   16d68: 23 00 f4 00  	sb	a5, 0x0(s0)
   16d6c: 01 96        	c.srai	a2, 0x20
   16d6e: 1a 96        	c.add	a2, t1
   16d70: 83 47 06 00  	lbu	a5, 0x0(a2)
   16d74: 89 07        	c.addi	a5, 0x2
   16d76: 23 00 f6 00  	sb	a5, 0x0(a2)
   16d7a: 03 c6 05 00  	lbu	a2, 0x0(a1)
   16d7e: 7d 16        	c.addi	a2, -0x1
   16d80: 23 80 c5 00  	sb	a2, 0x0(a1)
   16d84: 83 c4 06 00  	lbu	s1, 0x0(a3)
   16d88: f9 f0        	c.bnez	s1, 0x16d4e <jpeg_gen_optimal_table+0x1ba>
   16d8a: 2a 97        	c.add	a4, a0
   16d8c: fd 13        	c.addi	t2, -0x1
   16d8e: e3 67 58 fa  	bltu	a6, t0, 0x16d3c <jpeg_gen_optimal_table+0x1a8>
   16d92: 13 05 f1 7f  	addi	a0, sp, 0x7ff
   16d96: 13 05 15 03  	addi	a0, a0, 0x31
   16d9a: 83 45 f5 ff  	lbu	a1, -0x1(a0)
   16d9e: 7d 15        	c.addi	a0, -0x1
   16da0: ed dd        	c.beqz	a1, 0x16d9a <jpeg_gen_optimal_table+0x206>
   16da2: fd 15        	c.addi	a1, -0x1
   16da4: 23 00 b5 00  	sb	a1, 0x0(a0)
   16da8: 93 05 f1 7f  	addi	a1, sp, 0x7ff
   16dac: 93 85 05 02  	addi	a1, a1, 0x20
   16db0: 45 46        	c.li	a2, 0x11
   16db2: 52 85        	c.mv	a0, s4
   16db4: ef 40 10 77  	jal	ra, 0x1bd24 <memcpy>
   16db8: 01 44        	c.li	s0, 0x0
   16dba: 85 45        	c.li	a1, 0x1
   16dbc: 13 06 00 10  	addi	a2, zero, 0x100
   16dc0: 93 06 10 02  	addi	a3, zero, 0x21
   16dc4: 01 47        	c.li	a4, 0x0
   16dc6: 93 07 81 41  	addi	a5, sp, 0x418
   16dca: 84 43        	c.lw	s1, 0x0(a5)
   16dcc: 63 97 b4 00  	bne	s1, a1, 0x16dda <jpeg_gen_optimal_table+0x246>
   16dd0: 33 05 8a 00  	add	a0, s4, s0
   16dd4: a3 08 e5 00  	sb	a4, 0x11(a0)
   16dd8: 05 24        	c.addiw	s0, 0x1
   16dda: 05 07        	c.addi	a4, 0x1
   16ddc: 91 07        	c.addi	a5, 0x4
   16dde: e3 16 c7 fe  	bne	a4, a2, 0x16dca <jpeg_gen_optimal_table+0x236>
   16de2: 85 25        	c.addiw	a1, 0x1
   16de4: e3 90 d5 fe  	bne	a1, a3, 0x16dc4 <jpeg_gen_optimal_table+0x230>
   16de8: 23 2a 0a 10  	sw	zero, 0x114(s4)
   16dec: 13 01 01 7f  	addi	sp, sp, 0x7f0
   16df0: 61 61        	c.addi16sp	sp, 0x50
   16df2: 6f 70 41 07  	jal	zero, 0x2de66 <__riscv_restore_9>

0000000000016df6 <jinit_huff_encoder>:
   16df6: ef 72 e1 05  	jal	t0, 0x2de54 <__riscv_save_1>
   16dfa: 2a 84        	c.mv	s0, a0
   16dfc: 08 65        	c.ld	a0, 0x8(a0)
   16dfe: 14 61        	c.ld	a3, 0x0(a0)
   16e00: 85 45        	c.li	a1, 0x1
   16e02: 13 06 00 0c  	addi	a2, zero, 0xc0
   16e06: 22 85        	c.mv	a0, s0
   16e08: 82 96        	c.jalr	a3
   16e0a: 23 34 a4 1e  	sd	a0, 0x1e8(s0)
   16e0e: b7 75 01 00  	lui	a1, 0x17
   16e12: 93 85 65 e4  	addi	a1, a1, -0x1ba
   16e16: 0c e1        	c.sd	a1, 0x0(a0)
   16e18: 23 3c 05 04  	sd	zero, 0x58(a0)
   16e1c: 23 38 05 04  	sd	zero, 0x50(a0)
   16e20: 23 34 05 04  	sd	zero, 0x48(a0)
   16e24: 23 30 05 04  	sd	zero, 0x40(a0)
   16e28: 93 05 05 0a  	addi	a1, a0, 0xa0
   16e2c: 13 05 05 0c  	addi	a0, a0, 0xc0
   16e30: 23 b0 05 fc  	sd	zero, -0x40(a1)
   16e34: 23 b0 05 00  	sd	zero, 0x0(a1)
   16e38: 23 b0 05 fe  	sd	zero, -0x20(a1)
   16e3c: a1 05        	c.addi	a1, 0x8
   16e3e: e3 99 a5 fe  	bne	a1, a0, 0x16e30 <jinit_huff_encoder+0x3a>
   16e42: 6f 70 c1 03  	jal	zero, 0x2de7e <__riscv_restore_1>

0000000000016e46 <start_pass_huff>:
   16e46: ef 62 51 7d  	jal	t0, 0x2de1a <__riscv_save_11>
   16e4a: 2a 84        	c.mv	s0, a0
   16e4c: 03 3a 85 1e  	ld	s4, 0x1e8(a0)
   16e50: 2e 89        	c.mv	s2, a1
   16e52: 91 e9        	c.bnez	a1, 0x16e66 <start_pass_huff+0x20>
   16e54: 37 75 01 00  	lui	a0, 0x17
   16e58: 13 05 85 1a  	addi	a0, a0, 0x1a8
   16e5c: b7 85 01 00  	lui	a1, 0x18
   16e60: 93 85 05 81  	addi	a1, a1, -0x7f0
   16e64: 09 a8        	c.j	0x16e76 <start_pass_huff+0x30>
   16e66: 37 75 01 00  	lui	a0, 0x17
   16e6a: 13 05 a5 f8  	addi	a0, a0, -0x76
   16e6e: b7 75 01 00  	lui	a1, 0x17
   16e72: 93 85 65 0f  	addi	a1, a1, 0xf6
   16e76: 23 34 aa 00  	sd	a0, 0x8(s4)
   16e7a: 23 38 ba 00  	sd	a1, 0x10(s4)
   16e7e: 03 25 c4 13  	lw	a0, 0x13c(s0)
   16e82: 63 58 a0 0e  	bge	zero, a0, 0x16f72 <start_pass_huff+0x12c>
   16e86: 81 4a        	c.li	s5, 0x0
   16e88: 13 0b 04 14  	addi	s6, s0, 0x140
   16e8c: 13 0d 4a 02  	addi	s10, s4, 0x24
   16e90: 8d 4b        	c.li	s7, 0x3
   16e92: 13 0c 10 03  	addi	s8, zero, 0x31
   16e96: 05 65        	c.lui	a0, 0x1
   16e98: 9b 09 85 80  	addiw	s3, a0, -0x7f8
   16e9c: 03 35 0b 00  	ld	a0, 0x0(s6)
   16ea0: 44 49        	c.lw	s1, 0x14(a0)
   16ea2: 83 2c 85 01  	lw	s9, 0x18(a0)
   16ea6: 63 e9 9b 00  	bltu	s7, s1, 0x16eb8 <start_pass_huff+0x72>
   16eaa: 63 1f 09 00  	bne	s2, zero, 0x16ec8 <start_pass_huff+0x82>
   16eae: 13 95 34 00  	slli	a0, s1, 0x3
   16eb2: 22 95        	c.add	a0, s0
   16eb4: 28 7d        	c.ld	a0, 0x78(a0)
   16eb6: 09 e9        	c.bnez	a0, 0x16ec8 <start_pass_huff+0x82>
   16eb8: 08 60        	c.ld	a0, 0x0(s0)
   16eba: 44 d5        	c.sw	s1, 0x2c(a0)
   16ebc: 0c 60        	c.ld	a1, 0x0(s0)
   16ebe: 8c 61        	c.ld	a1, 0x0(a1)
   16ec0: 23 24 85 03  	sw	s8, 0x28(a0)
   16ec4: 22 85        	c.mv	a0, s0
   16ec6: 82 95        	c.jalr	a1
   16ec8: 63 e9 9b 01  	bltu	s7, s9, 0x16eda <start_pass_huff+0x94>
   16ecc: 63 10 09 02  	bne	s2, zero, 0x16eec <start_pass_huff+0xa6>
   16ed0: 13 95 3c 00  	slli	a0, s9, 0x3
   16ed4: 22 95        	c.add	a0, s0
   16ed6: 48 6d        	c.ld	a0, 0x98(a0)
   16ed8: 11 e9        	c.bnez	a0, 0x16eec <start_pass_huff+0xa6>
   16eda: 08 60        	c.ld	a0, 0x0(s0)
   16edc: 23 26 95 03  	sw	s9, 0x2c(a0)
   16ee0: 0c 60        	c.ld	a1, 0x0(s0)
   16ee2: 8c 61        	c.ld	a1, 0x0(a1)
   16ee4: 23 24 85 03  	sw	s8, 0x28(a0)
   16ee8: 22 85        	c.mv	a0, s0
   16eea: 82 95        	c.jalr	a1
   16eec: 8e 04        	c.slli	s1, 0x3
   16eee: 63 06 09 04  	beq	s2, zero, 0x16f3a <start_pass_huff+0xf4>
   16ef2: b3 05 9a 00  	add	a1, s4, s1
   16ef6: c8 61        	c.ld	a0, 0x80(a1)
   16ef8: 11 e9        	c.bnez	a0, 0x16f0c <start_pass_huff+0xc6>
   16efa: 08 64        	c.ld	a0, 0x8(s0)
   16efc: 14 61        	c.ld	a3, 0x0(a0)
   16efe: 93 84 05 08  	addi	s1, a1, 0x80
   16f02: 85 45        	c.li	a1, 0x1
   16f04: 22 85        	c.mv	a0, s0
   16f06: 4e 86        	c.mv	a2, s3
   16f08: 82 96        	c.jalr	a3
   16f0a: 88 e0        	c.sd	a0, 0x0(s1)
   16f0c: 81 45        	c.li	a1, 0x0
   16f0e: 4e 86        	c.mv	a2, s3
   16f10: ef 40 b0 56  	jal	ra, 0x1bc7a <memset>
   16f14: 93 95 3c 00  	slli	a1, s9, 0x3
   16f18: d2 95        	c.add	a1, s4
   16f1a: c8 71        	c.ld	a0, 0xa0(a1)
   16f1c: 11 e9        	c.bnez	a0, 0x16f30 <start_pass_huff+0xea>
   16f1e: 08 64        	c.ld	a0, 0x8(s0)
   16f20: 14 61        	c.ld	a3, 0x0(a0)
   16f22: 93 84 05 0a  	addi	s1, a1, 0xa0
   16f26: 85 45        	c.li	a1, 0x1
   16f28: 22 85        	c.mv	a0, s0
   16f2a: 4e 86        	c.mv	a2, s3
   16f2c: 82 96        	c.jalr	a3
   16f2e: 88 e0        	c.sd	a0, 0x0(s1)
   16f30: 81 45        	c.li	a1, 0x0
   16f32: 4e 86        	c.mv	a2, s3
   16f34: ef 40 70 54  	jal	ra, 0x1bc7a <memset>
   16f38: 25 a0        	c.j	0x16f60 <start_pass_huff+0x11a>
   16f3a: 33 05 94 00  	add	a0, s0, s1
   16f3e: 2c 7d        	c.ld	a1, 0x78(a0)
   16f40: d2 94        	c.add	s1, s4
   16f42: 13 86 04 04  	addi	a2, s1, 0x40
   16f46: 22 85        	c.mv	a0, s0
   16f48: ef f0 7f b5  	jal	ra, 0x16a9e <jpeg_make_c_derived_tbl>
   16f4c: 8e 0c        	c.slli	s9, 0x3
   16f4e: 33 05 94 01  	add	a0, s0, s9
   16f52: 4c 6d        	c.ld	a1, 0x98(a0)
   16f54: d2 9c        	c.add	s9, s4
   16f56: 13 86 0c 06  	addi	a2, s9, 0x60
   16f5a: 22 85        	c.mv	a0, s0
   16f5c: ef f0 3f b4  	jal	ra, 0x16a9e <jpeg_make_c_derived_tbl>
   16f60: 23 20 0d 00  	sw	zero, 0x0(s10)
   16f64: 03 25 c4 13  	lw	a0, 0x13c(s0)
   16f68: 85 0a        	c.addi	s5, 0x1
   16f6a: 21 0b        	c.addi	s6, 0x8
   16f6c: 11 0d        	c.addi	s10, 0x4
   16f6e: e3 c7 aa f2  	blt	s5, a0, 0x16e9c <start_pass_huff+0x56>
   16f72: 03 25 04 11  	lw	a0, 0x110(s0)
   16f76: 23 3c 0a 00  	sd	zero, 0x18(s4)
   16f7a: 23 20 0a 02  	sw	zero, 0x20(s4)
   16f7e: 23 2c aa 02  	sw	a0, 0x38(s4)
   16f82: 23 2e 0a 02  	sw	zero, 0x3c(s4)
   16f86: 6f 60 b1 6d  	jal	zero, 0x2de60 <__riscv_restore_11>

0000000000016f8a <encode_mcu_gather>:
   16f8a: ef 62 91 6b  	jal	t0, 0x2de42 <__riscv_save_3>
   16f8e: 03 26 05 11  	lw	a2, 0x110(a0)
   16f92: 03 38 85 1e  	ld	a6, 0x1e8(a0)
   16f96: 0d ca        	c.beqz	a2, 0x16fc8 <encode_mcu_gather+0x3e>
   16f98: 83 26 88 03  	lw	a3, 0x38(a6)
   16f9c: 9d e2        	c.bnez	a3, 0x16fc2 <encode_mcu_gather+0x38>
   16f9e: 03 27 c5 13  	lw	a4, 0x13c(a0)
   16fa2: b2 86        	c.mv	a3, a2
   16fa4: 63 5f e0 00  	bge	zero, a4, 0x16fc2 <encode_mcu_gather+0x38>
   16fa8: 01 46        	c.li	a2, 0x0
   16faa: 93 06 48 02  	addi	a3, a6, 0x24
   16fae: 23 a0 06 00  	sw	zero, 0x0(a3)
   16fb2: 03 27 c5 13  	lw	a4, 0x13c(a0)
   16fb6: 05 06        	c.addi	a2, 0x1
   16fb8: 91 06        	c.addi	a3, 0x4
   16fba: e3 4a e6 fe  	blt	a2, a4, 0x16fae <encode_mcu_gather+0x24>
   16fbe: 83 26 05 11  	lw	a3, 0x110(a0)
   16fc2: fd 16        	c.addi	a3, -0x1
   16fc4: 23 2c d8 02  	sw	a3, 0x38(a6)
   16fc8: 03 26 85 16  	lw	a2, 0x168(a0)
   16fcc: 63 52 c0 12  	bge	zero, a2, 0x170f0 <encode_mcu_gather+0x166>
   16fd0: 81 48        	c.li	a7, 0x0
   16fd2: 37 06 03 00  	lui	a2, 0x30
   16fd6: 93 0e 06 2d  	addi	t4, a2, 0x2d0
   16fda: 93 03 00 04  	addi	t2, zero, 0x40
   16fde: 41 43        	c.li	t1, 0x10
   16fe0: 91 46        	c.li	a3, 0x4
   16fe2: 13 96 28 00  	slli	a2, a7, 0x2
   16fe6: 2a 96        	c.add	a2, a0
   16fe8: 83 27 c6 16  	lw	a5, 0x16c(a2)
   16fec: 13 96 38 00  	slli	a2, a7, 0x3
   16ff0: 2e 96        	c.add	a2, a1
   16ff2: 03 3f 06 00  	ld	t5, 0x0(a2)
   16ff6: 13 97 27 00  	slli	a4, a5, 0x2
   16ffa: 33 0e e8 00  	add	t3, a6, a4
   16ffe: 03 24 4e 02  	lw	s0, 0x24(t3)
   17002: 83 12 0f 00  	lh	t0, 0x0(t5)
   17006: 63 94 82 00  	bne	t0, s0, 0x1700e <encode_mcu_gather+0x84>
   1700a: 01 46        	c.li	a2, 0x0
   1700c: 21 a8        	c.j	0x17024 <encode_mcu_gather+0x9a>
   1700e: 01 46        	c.li	a2, 0x0
   17010: 33 84 82 40  	sub	s0, t0, s0
   17014: 1b 57 f4 41  	sraiw	a4, s0, 0x1f
   17018: 39 8c        	c.xor	s0, a4
   1701a: 19 9c        	c.subw	s0, a4
   1701c: 1b 54 14 00  	srliw	s0, s0, 0x1
   17020: 05 06        	c.addi	a2, 0x1
   17022: 6d fc        	c.bnez	s0, 0x1701c <encode_mcu_gather+0x92>
   17024: 8e 07        	c.slli	a5, 0x3
   17026: aa 97        	c.add	a5, a0
   17028: 03 b7 07 14  	ld	a4, 0x140(a5)
   1702c: 5c 4b        	c.lw	a5, 0x14(a4)
   1702e: 8e 07        	c.slli	a5, 0x3
   17030: c2 97        	c.add	a5, a6
   17032: dc 63        	c.ld	a5, 0x80(a5)
   17034: 01 44        	c.li	s0, 0x0
   17036: 18 4f        	c.lw	a4, 0x18(a4)
   17038: 0e 06        	c.slli	a2, 0x3
   1703a: 3e 96        	c.add	a2, a5
   1703c: 1c 62        	c.ld	a5, 0x0(a2)
   1703e: 0e 07        	c.slli	a4, 0x3
   17040: 42 97        	c.add	a4, a6
   17042: 83 3f 07 0a  	ld	t6, 0xa0(a4)
   17046: 85 07        	c.addi	a5, 0x1
   17048: 1c e2        	c.sd	a5, 0x0(a2)
   1704a: 13 0e 4e 02  	addi	t3, t3, 0x24
   1704e: 05 47        	c.li	a4, 0x1
   17050: 13 16 27 00  	slli	a2, a4, 0x2
   17054: 76 96        	c.add	a2, t4
   17056: 10 42        	c.lw	a2, 0x0(a2)
   17058: 06 06        	c.slli	a2, 0x1
   1705a: 7a 96        	c.add	a2, t5
   1705c: 83 57 06 00  	lhu	a5, 0x0(a2)
   17060: 22 86        	c.mv	a2, s0
   17062: a5 c7        	c.beqz	a5, 0x170ca <encode_mcu_gather+0x140>
   17064: 63 45 66 02  	blt	a2, t1, 0x1708e <encode_mcu_gather+0x104>
   17068: fd 44        	c.li	s1, 0x1f
   1706a: 32 84        	c.mv	s0, a2
   1706c: 63 43 96 00  	blt	a2, s1, 0x17072 <encode_mcu_gather+0xe8>
   17070: 7d 44        	c.li	s0, 0x1f
   17072: 03 b9 0f 78  	ld	s2, 0x780(t6)
   17076: 3b 04 86 40  	subw	s0, a2, s0
   1707a: 3d 04        	c.addi	s0, 0xf
   1707c: 9b 54 44 00  	srliw	s1, s0, 0x4
   17080: ca 94        	c.add	s1, s2
   17082: 85 04        	c.addi	s1, 0x1
   17084: 41 98        	c.andi	s0, -0x10
   17086: 01 9e        	c.subw	a2, s0
   17088: 41 16        	c.addi	a2, -0x10
   1708a: 23 b0 9f 78  	sd	s1, 0x780(t6)
   1708e: 13 94 07 03  	slli	s0, a5, 0x30
   17092: 7d 94        	c.srai	s0, 0x3f
   17094: a1 8f        	c.xor	a5, s0
   17096: 81 8f        	c.sub	a5, s0
   17098: c2 17        	c.slli	a5, 0x30
   1709a: 13 d4 07 03  	srli	s0, a5, 0x30
   1709e: 85 47        	c.li	a5, 0x1
   170a0: 63 f9 87 00  	bgeu	a5, s0, 0x170b2 <encode_mcu_gather+0x128>
   170a4: 85 47        	c.li	a5, 0x1
   170a6: a2 84        	c.mv	s1, s0
   170a8: 1b 54 14 00  	srliw	s0, s0, 0x1
   170ac: 85 07        	c.addi	a5, 0x1
   170ae: e3 fc d4 fe  	bgeu	s1, a3, 0x170a6 <encode_mcu_gather+0x11c>
   170b2: 12 06        	c.slli	a2, 0x4
   170b4: 3d 9e        	c.addw	a2, a5
   170b6: 0e 06        	c.slli	a2, 0x3
   170b8: 7e 96        	c.add	a2, t6
   170ba: 1c 62        	c.ld	a5, 0x0(a2)
   170bc: 01 44        	c.li	s0, 0x0
   170be: 05 07        	c.addi	a4, 0x1
   170c0: 85 07        	c.addi	a5, 0x1
   170c2: 1c e2        	c.sd	a5, 0x0(a2)
   170c4: e3 16 77 f8  	bne	a4, t2, 0x17050 <encode_mcu_gather+0xc6>
   170c8: 29 a8        	c.j	0x170e2 <encode_mcu_gather+0x158>
   170ca: 05 07        	c.addi	a4, 0x1
   170cc: 1b 04 16 00  	addiw	s0, a2, 0x1
   170d0: e3 10 77 f8  	bne	a4, t2, 0x17050 <encode_mcu_gather+0xc6>
   170d4: 63 47 06 00  	blt	a2, zero, 0x170e2 <encode_mcu_gather+0x158>
   170d8: 03 b6 0f 00  	ld	a2, 0x0(t6)
   170dc: 05 06        	c.addi	a2, 0x1
   170de: 23 b0 cf 00  	sd	a2, 0x0(t6)
   170e2: 23 20 5e 00  	sw	t0, 0x0(t3)
   170e6: 03 26 85 16  	lw	a2, 0x168(a0)
   170ea: 85 08        	c.addi	a7, 0x1
   170ec: e3 cb c8 ee  	blt	a7, a2, 0x16fe2 <encode_mcu_gather+0x58>
   170f0: 05 45        	c.li	a0, 0x1
   170f2: 6f 60 71 58  	jal	zero, 0x2de78 <__riscv_restore_3>

00000000000170f6 <finish_pass_gather>:
   170f6: ef 62 51 52  	jal	t0, 0x2de1a <__riscv_save_11>
   170fa: 01 11        	c.addi	sp, -0x20
   170fc: aa 89        	c.mv	s3, a0
   170fe: 03 39 85 1e  	ld	s2, 0x1e8(a0)
   17102: 03 25 c5 13  	lw	a0, 0x13c(a0)
   17106: 02 e8        	c.sdsp	zero, 0x10(sp)
   17108: 02 ec        	c.sdsp	zero, 0x18(sp)
   1710a: 02 e0        	c.sdsp	zero, 0x0(sp)
   1710c: 02 e4        	c.sdsp	zero, 0x8(sp)
   1710e: 63 5a a0 08  	bge	zero, a0, 0x171a2 <finish_pass_gather+0xac>
   17112: 81 44        	c.li	s1, 0x0
   17114: 13 84 09 14  	addi	s0, s3, 0x140
   17118: 13 0a 01 01  	addi	s4, sp, 0x10
   1711c: 85 4a        	c.li	s5, 0x1
   1711e: 0a 8b        	c.mv	s6, sp
   17120: 08 60        	c.ld	a0, 0x0(s0)
   17122: 83 2c 45 01  	lw	s9, 0x14(a0)
   17126: 13 9c 2c 00  	slli	s8, s9, 0x2
   1712a: 52 9c        	c.add	s8, s4
   1712c: 83 25 0c 00  	lw	a1, 0x0(s8)
   17130: 83 2b 85 01  	lw	s7, 0x18(a0)
   17134: 95 e5        	c.bnez	a1, 0x17160 <finish_pass_gather+0x6a>
   17136: 8e 0c        	c.slli	s9, 0x3
   17138: 33 85 99 01  	add	a0, s3, s9
   1713c: 2c 7d        	c.ld	a1, 0x78(a0)
   1713e: 89 e9        	c.bnez	a1, 0x17150 <finish_pass_gather+0x5a>
   17140: 13 0d 85 07  	addi	s10, a0, 0x78
   17144: 4e 85        	c.mv	a0, s3
   17146: ef 20 00 02  	jal	ra, 0x19166 <jpeg_alloc_huff_table>
   1714a: aa 85        	c.mv	a1, a0
   1714c: 23 30 ad 00  	sd	a0, 0x0(s10)
   17150: ca 9c        	c.add	s9, s2
   17152: 03 b6 0c 08  	ld	a2, 0x80(s9)
   17156: 4e 85        	c.mv	a0, s3
   17158: ef f0 df a3  	jal	ra, 0x16b94 <jpeg_gen_optimal_table>
   1715c: 23 20 5c 01  	sw	s5, 0x0(s8)
   17160: 13 9c 2b 00  	slli	s8, s7, 0x2
   17164: 5a 9c        	c.add	s8, s6
   17166: 03 25 0c 00  	lw	a0, 0x0(s8)
   1716a: 15 e5        	c.bnez	a0, 0x17196 <finish_pass_gather+0xa0>
   1716c: 8e 0b        	c.slli	s7, 0x3
   1716e: 33 85 79 01  	add	a0, s3, s7
   17172: 4c 6d        	c.ld	a1, 0x98(a0)
   17174: 89 e9        	c.bnez	a1, 0x17186 <finish_pass_gather+0x90>
   17176: 93 0c 85 09  	addi	s9, a0, 0x98
   1717a: 4e 85        	c.mv	a0, s3
   1717c: ef 10 b0 7e  	jal	ra, 0x19166 <jpeg_alloc_huff_table>
   17180: aa 85        	c.mv	a1, a0
   17182: 23 b0 ac 00  	sd	a0, 0x0(s9)
   17186: ca 9b        	c.add	s7, s2
   17188: 03 b6 0b 0a  	ld	a2, 0xa0(s7)
   1718c: 4e 85        	c.mv	a0, s3
   1718e: ef f0 7f a0  	jal	ra, 0x16b94 <jpeg_gen_optimal_table>
   17192: 23 20 5c 01  	sw	s5, 0x0(s8)
   17196: 03 a5 c9 13  	lw	a0, 0x13c(s3)
   1719a: 85 04        	c.addi	s1, 0x1
   1719c: 21 04        	c.addi	s0, 0x8
   1719e: e3 c1 a4 f8  	blt	s1, a0, 0x17120 <finish_pass_gather+0x2a>
   171a2: 05 61        	c.addi16sp	sp, 0x20
   171a4: 6f 60 d1 4b  	jal	zero, 0x2de60 <__riscv_restore_11>

00000000000171a8 <encode_mcu_huff>:
   171a8: ef 62 b1 46  	jal	t0, 0x2de12 <__riscv_save_12>
   171ac: 19 71        	c.addi16sp	sp, -0x80
   171ae: 2a 84        	c.mv	s0, a0
   171b0: 03 3c 85 1e  	ld	s8, 0x1e8(a0)
   171b4: 08 71        	c.ld	a0, 0x20(a0)
   171b6: 03 36 0c 03  	ld	a2, 0x30(s8)
   171ba: 14 61        	c.ld	a3, 0x0(a0)
   171bc: 03 3b 85 00  	ld	s6, 0x8(a0)
   171c0: b2 f8        	c.sdsp	a2, 0x70(sp)
   171c2: 03 35 8c 02  	ld	a0, 0x28(s8)
   171c6: aa f4        	c.sdsp	a0, 0x68(sp)
   171c8: 03 35 0c 02  	ld	a0, 0x20(s8)
   171cc: aa f0        	c.sdsp	a0, 0x60(sp)
   171ce: 03 35 8c 01  	ld	a0, 0x18(s8)
   171d2: 2e 8a        	c.mv	s4, a1
   171d4: 83 25 04 11  	lw	a1, 0x110(s0)
   171d8: b6 e4        	c.sdsp	a3, 0x48(sp)
   171da: aa ec        	c.sdsp	a0, 0x58(sp)
   171dc: da e8        	c.sdsp	s6, 0x50(sp)
   171de: a2 fc        	c.sdsp	s0, 0x78(sp)
   171e0: 89 c5        	c.beqz	a1, 0x171ea <encode_mcu_huff+0x42>
   171e2: 03 25 8c 03  	lw	a0, 0x38(s8)
   171e6: 63 09 05 58  	beq	a0, zero, 0x17778 <encode_mcu_huff+0x5d0>
   171ea: 03 25 84 16  	lw	a0, 0x168(s0)
   171ee: 63 53 a0 54  	bge	zero, a0, 0x17734 <encode_mcu_huff+0x58c>
   171f2: 01 46        	c.li	a2, 0x0
   171f4: b4 00        	c.addi4spn	a3, sp, 0x48
   171f6: 37 0d ff 00  	lui	s10, 0xff0
   171fa: bd 49        	c.li	s3, 0xf
   171fc: 37 05 03 00  	lui	a0, 0x30
   17200: 13 05 05 2d  	addi	a0, a0, 0x2d0
   17204: 2a fc        	c.sdsp	a0, 0x38(sp)
   17206: 62 f0        	c.sdsp	s8, 0x20(sp)
   17208: 22 ec        	c.sdsp	s0, 0x18(sp)
   1720a: 52 e8        	c.sdsp	s4, 0x10(sp)
   1720c: 13 15 26 00  	slli	a0, a2, 0x2
   17210: 22 95        	c.add	a0, s0
   17212: 03 25 c5 16  	lw	a0, 0x16c(a0)
   17216: 32 f8        	c.sdsp	a2, 0x30(sp)
   17218: 93 15 36 00  	slli	a1, a2, 0x3
   1721c: d2 95        	c.add	a1, s4
   1721e: 2e f4        	c.sdsp	a1, 0x28(sp)
   17220: 83 bd 05 00  	ld	s11, 0x0(a1)
   17224: 93 1a 25 00  	slli	s5, a0, 0x2
   17228: b6 9a        	c.add	s5, a3
   1722a: 83 a5 ca 01  	lw	a1, 0x1c(s5)
   1722e: 03 96 0d 00  	lh	a2, 0x0(s11)
   17232: bb 0c b6 40  	subw	s9, a2, a1
   17236: 9b db fc 41  	sraiw	s7, s9, 0x1f
   1723a: 01 4a        	c.li	s4, 0x0
   1723c: 63 0a b6 00  	beq	a2, a1, 0x17250 <encode_mcu_huff+0xa8>
   17240: b3 c5 7c 01  	xor	a1, s9, s7
   17244: bb 85 75 41  	subw	a1, a1, s7
   17248: 9b d5 15 00  	srliw	a1, a1, 0x1
   1724c: 05 2a        	c.addiw	s4, 0x1
   1724e: ed fd        	c.bnez	a1, 0x17248 <encode_mcu_huff+0xa0>
   17250: 0e 05        	c.slli	a0, 0x3
   17252: 22 95        	c.add	a0, s0
   17254: 03 35 05 14  	ld	a0, 0x140(a0)
   17258: 4c 49        	c.lw	a1, 0x14(a0)
   1725a: 08 4d        	c.lw	a0, 0x18(a0)
   1725c: 8e 05        	c.slli	a1, 0x3
   1725e: e2 95        	c.add	a1, s8
   17260: ac 61        	c.ld	a1, 0x40(a1)
   17262: 0e 05        	c.slli	a0, 0x3
   17264: 62 95        	c.add	a0, s8
   17266: 28 71        	c.ld	a0, 0x60(a0)
   17268: aa e0        	c.sdsp	a0, 0x40(sp)
   1726a: 13 15 2a 00  	slli	a0, s4, 0x2
   1726e: 2e 95        	c.add	a0, a1
   17270: 83 64 05 00  	lwu	s1, 0x0(a0)
   17274: d2 95        	c.add	a1, s4
   17276: 03 c4 05 40  	lbu	s0, 0x400(a1)
   1727a: 06 59        	c.lwsp	s2, 0x60(sp)
   1727c: 01 e8        	c.bnez	s0, 0x1728c <encode_mcu_huff+0xe4>
   1727e: 66 75        	c.ldsp	a0, 0x78(sp)
   17280: 0c 61        	c.ld	a1, 0x0(a0)
   17282: 90 61        	c.ld	a2, 0x0(a1)
   17284: 93 06 70 02  	addi	a3, zero, 0x27
   17288: 94 d5        	c.sw	a3, 0x28(a1)
   1728a: 02 96        	c.jalr	a2
   1728c: 7d 55        	c.li	a0, -0x1
   1728e: 33 15 85 00  	sll	a0, a0, s0
   17292: 13 45 f5 ff  	xori	a0, a0, -0x1
   17296: 65 8d        	c.and	a0, s1
   17298: e6 65        	c.ldsp	a1, 0x58(sp)
   1729a: 3b 09 89 00  	addw	s2, s2, s0
   1729e: 61 46        	c.li	a2, 0x18
   172a0: 3b 06 26 41  	subw	a2, a2, s2
   172a4: 33 15 c5 00  	sll	a0, a0, a2
   172a8: 33 ec a5 00  	or	s8, a1, a0
   172ac: 21 45        	c.li	a0, 0x8
   172ae: 63 4a a9 06  	blt	s2, a0, 0x17322 <encode_mcu_huff+0x17a>
   172b2: 26 65        	c.ldsp	a0, 0x48(sp)
   172b4: 93 55 0c 01  	srli	a1, s8, 0x10
   172b8: 13 06 15 00  	addi	a2, a0, 0x1
   172bc: b2 e4        	c.sdsp	a2, 0x48(sp)
   172be: 23 00 b5 00  	sb	a1, 0x0(a0)
   172c2: 46 6b        	c.ldsp	s6, 0x50(sp)
   172c4: 4a 84        	c.mv	s0, s2
   172c6: 7d 1b        	c.addi	s6, -0x1
   172c8: da e8        	c.sdsp	s6, 0x50(sp)
   172ca: 63 1d 0b 00  	bne	s6, zero, 0x172e4 <encode_mcu_huff+0x13c>
   172ce: 66 75        	c.ldsp	a0, 0x78(sp)
   172d0: 04 71        	c.ld	s1, 0x20(a0)
   172d2: 8c 6c        	c.ld	a1, 0x18(s1)
   172d4: 82 95        	c.jalr	a1
   172d6: 63 0a 05 52  	beq	a0, zero, 0x1780a <encode_mcu_huff+0x662>
   172da: 88 60        	c.ld	a0, 0x0(s1)
   172dc: 03 bb 84 00  	ld	s6, 0x8(s1)
   172e0: aa e4        	c.sdsp	a0, 0x48(sp)
   172e2: da e8        	c.sdsp	s6, 0x50(sp)
   172e4: 33 75 ac 01  	and	a0, s8, s10
   172e8: 63 18 a5 03  	bne	a0, s10, 0x17318 <encode_mcu_huff+0x170>
   172ec: 26 65        	c.ldsp	a0, 0x48(sp)
   172ee: 93 05 15 00  	addi	a1, a0, 0x1
   172f2: ae e4        	c.sdsp	a1, 0x48(sp)
   172f4: 23 00 05 00  	sb	zero, 0x0(a0)
   172f8: 46 6b        	c.ldsp	s6, 0x50(sp)
   172fa: 7d 1b        	c.addi	s6, -0x1
   172fc: da e8        	c.sdsp	s6, 0x50(sp)
   172fe: 63 1d 0b 00  	bne	s6, zero, 0x17318 <encode_mcu_huff+0x170>
   17302: 66 75        	c.ldsp	a0, 0x78(sp)
   17304: 04 71        	c.ld	s1, 0x20(a0)
   17306: 8c 6c        	c.ld	a1, 0x18(s1)
   17308: 82 95        	c.jalr	a1
   1730a: 63 00 05 50  	beq	a0, zero, 0x1780a <encode_mcu_huff+0x662>
   1730e: 88 60        	c.ld	a0, 0x0(s1)
   17310: 03 bb 84 00  	ld	s6, 0x8(s1)
   17314: aa e4        	c.sdsp	a0, 0x48(sp)
   17316: da e8        	c.sdsp	s6, 0x50(sp)
   17318: 22 0c        	c.slli	s8, 0x8
   1731a: 1b 09 84 ff  	addiw	s2, s0, -0x8
   1731e: e3 ca 89 f8  	blt	s3, s0, 0x172b2 <encode_mcu_huff+0x10a>
   17322: e2 ec        	c.sdsp	s8, 0x58(sp)
   17324: ca d0        	c.swsp	s2, 0x60(sp)
   17326: 63 05 0a 0a  	beq	s4, zero, 0x173d0 <encode_mcu_huff+0x228>
   1732a: e6 9b        	c.add	s7, s9
   1732c: 7d 55        	c.li	a0, -0x1
   1732e: 33 15 45 01  	sll	a0, a0, s4
   17332: 13 45 f5 ff  	xori	a0, a0, -0x1
   17336: 33 f5 ab 00  	and	a0, s7, a0
   1733a: 02 15        	c.slli	a0, 0x20
   1733c: 01 91        	c.srli	a0, 0x20
   1733e: 3b 09 49 01  	addw	s2, s2, s4
   17342: e1 45        	c.li	a1, 0x18
   17344: bb 85 25 41  	subw	a1, a1, s2
   17348: 33 15 b5 00  	sll	a0, a0, a1
   1734c: 33 6c 85 01  	or	s8, a0, s8
   17350: 13 0a 10 04  	addi	s4, zero, 0x41
   17354: 21 45        	c.li	a0, 0x8
   17356: 63 4a a9 06  	blt	s2, a0, 0x173ca <encode_mcu_huff+0x222>
   1735a: 26 65        	c.ldsp	a0, 0x48(sp)
   1735c: 93 55 0c 01  	srli	a1, s8, 0x10
   17360: 13 06 15 00  	addi	a2, a0, 0x1
   17364: b2 e4        	c.sdsp	a2, 0x48(sp)
   17366: 23 00 b5 00  	sb	a1, 0x0(a0)
   1736a: 46 6b        	c.ldsp	s6, 0x50(sp)
   1736c: 4a 84        	c.mv	s0, s2
   1736e: 7d 1b        	c.addi	s6, -0x1
   17370: da e8        	c.sdsp	s6, 0x50(sp)
   17372: 63 1d 0b 00  	bne	s6, zero, 0x1738c <encode_mcu_huff+0x1e4>
   17376: 66 75        	c.ldsp	a0, 0x78(sp)
   17378: 04 71        	c.ld	s1, 0x20(a0)
   1737a: 8c 6c        	c.ld	a1, 0x18(s1)
   1737c: 82 95        	c.jalr	a1
   1737e: 63 06 05 48  	beq	a0, zero, 0x1780a <encode_mcu_huff+0x662>
   17382: 88 60        	c.ld	a0, 0x0(s1)
   17384: 03 bb 84 00  	ld	s6, 0x8(s1)
   17388: aa e4        	c.sdsp	a0, 0x48(sp)
   1738a: da e8        	c.sdsp	s6, 0x50(sp)
   1738c: 33 75 ac 01  	and	a0, s8, s10
   17390: 63 18 a5 03  	bne	a0, s10, 0x173c0 <encode_mcu_huff+0x218>
   17394: 26 65        	c.ldsp	a0, 0x48(sp)
   17396: 93 05 15 00  	addi	a1, a0, 0x1
   1739a: ae e4        	c.sdsp	a1, 0x48(sp)
   1739c: 23 00 05 00  	sb	zero, 0x0(a0)
   173a0: 46 6b        	c.ldsp	s6, 0x50(sp)
   173a2: 7d 1b        	c.addi	s6, -0x1
   173a4: da e8        	c.sdsp	s6, 0x50(sp)
   173a6: 63 1d 0b 00  	bne	s6, zero, 0x173c0 <encode_mcu_huff+0x218>
   173aa: 66 75        	c.ldsp	a0, 0x78(sp)
   173ac: 04 71        	c.ld	s1, 0x20(a0)
   173ae: 8c 6c        	c.ld	a1, 0x18(s1)
   173b0: 82 95        	c.jalr	a1
   173b2: 63 0c 05 44  	beq	a0, zero, 0x1780a <encode_mcu_huff+0x662>
   173b6: 88 60        	c.ld	a0, 0x0(s1)
   173b8: 03 bb 84 00  	ld	s6, 0x8(s1)
   173bc: aa e4        	c.sdsp	a0, 0x48(sp)
   173be: da e8        	c.sdsp	s6, 0x50(sp)
   173c0: 22 0c        	c.slli	s8, 0x8
   173c2: 1b 09 84 ff  	addiw	s2, s0, -0x8
   173c6: e3 ca 89 f8  	blt	s3, s0, 0x1735a <encode_mcu_huff+0x1b2>
   173ca: e2 ec        	c.sdsp	s8, 0x58(sp)
   173cc: ca d0        	c.swsp	s2, 0x60(sp)
   173ce: 19 a0        	c.j	0x173d4 <encode_mcu_huff+0x22c>
   173d0: 13 0a 10 04  	addi	s4, zero, 0x41
   173d4: 93 8b ca 01  	addi	s7, s5, 0x1c
   173d8: 85 4a        	c.li	s5, 0x1
   173da: 01 45        	c.li	a0, 0x0
   173dc: 93 95 2a 00  	slli	a1, s5, 0x2
   173e0: 85 0a        	c.addi	s5, 0x1
   173e2: 62 76        	c.ldsp	a2, 0x38(sp)
   173e4: b2 95        	c.add	a1, a2
   173e6: 90 41        	c.lw	a2, 0x0(a1)
   173e8: 06 06        	c.slli	a2, 0x1
   173ea: 6e 96        	c.add	a2, s11
   173ec: 83 5c 06 00  	lhu	s9, 0x0(a2)
   173f0: 63 98 0c 00  	bne	s9, zero, 0x17400 <encode_mcu_huff+0x258>
   173f4: 05 25        	c.addiw	a0, 0x1
   173f6: 85 0a        	c.addi	s5, 0x1
   173f8: 91 05        	c.addi	a1, 0x4
   173fa: e3 96 4a ff  	bne	s5, s4, 0x173e6 <encode_mcu_huff+0x23e>
   173fe: 9d a4        	c.j	0x17664 <encode_mcu_huff+0x4bc>
   17400: c1 45        	c.li	a1, 0x10
   17402: 5e e4        	c.sdsp	s7, 0x8(sp)
   17404: 63 62 b5 0c  	bltu	a0, a1, 0x174c8 <encode_mcu_huff+0x320>
   17408: 86 65        	c.ldsp	a1, 0x40(sp)
   1740a: 83 c4 05 4f  	lbu	s1, 0x4f0(a1)
   1740e: 83 eb 05 3c  	lwu	s7, 0x3c0(a1)
   17412: 2a 8a        	c.mv	s4, a0
   17414: 81 e8        	c.bnez	s1, 0x17424 <encode_mcu_huff+0x27c>
   17416: 66 75        	c.ldsp	a0, 0x78(sp)
   17418: 0c 61        	c.ld	a1, 0x0(a0)
   1741a: 90 61        	c.ld	a2, 0x0(a1)
   1741c: 93 06 70 02  	addi	a3, zero, 0x27
   17420: 94 d5        	c.sw	a3, 0x28(a1)
   17422: 02 96        	c.jalr	a2
   17424: 7d 55        	c.li	a0, -0x1
   17426: 33 15 95 00  	sll	a0, a0, s1
   1742a: 13 45 f5 ff  	xori	a0, a0, -0x1
   1742e: 33 75 75 01  	and	a0, a0, s7
   17432: 3b 09 99 00  	addw	s2, s2, s1
   17436: e1 45        	c.li	a1, 0x18
   17438: bb 85 25 41  	subw	a1, a1, s2
   1743c: 33 15 b5 00  	sll	a0, a0, a1
   17440: 33 6c ac 00  	or	s8, s8, a0
   17444: 21 45        	c.li	a0, 0x8
   17446: 63 4a a9 06  	blt	s2, a0, 0x174ba <encode_mcu_huff+0x312>
   1744a: 26 65        	c.ldsp	a0, 0x48(sp)
   1744c: 93 55 0c 01  	srli	a1, s8, 0x10
   17450: 13 06 15 00  	addi	a2, a0, 0x1
   17454: b2 e4        	c.sdsp	a2, 0x48(sp)
   17456: 23 00 b5 00  	sb	a1, 0x0(a0)
   1745a: 46 6b        	c.ldsp	s6, 0x50(sp)
   1745c: ca 84        	c.mv	s1, s2
   1745e: 7d 1b        	c.addi	s6, -0x1
   17460: da e8        	c.sdsp	s6, 0x50(sp)
   17462: 63 1d 0b 00  	bne	s6, zero, 0x1747c <encode_mcu_huff+0x2d4>
   17466: 66 75        	c.ldsp	a0, 0x78(sp)
   17468: 00 71        	c.ld	s0, 0x20(a0)
   1746a: 0c 6c        	c.ld	a1, 0x18(s0)
   1746c: 82 95        	c.jalr	a1
   1746e: 63 0e 05 38  	beq	a0, zero, 0x1780a <encode_mcu_huff+0x662>
   17472: 08 60        	c.ld	a0, 0x0(s0)
   17474: 03 3b 84 00  	ld	s6, 0x8(s0)
   17478: aa e4        	c.sdsp	a0, 0x48(sp)
   1747a: da e8        	c.sdsp	s6, 0x50(sp)
   1747c: 33 75 ac 01  	and	a0, s8, s10
   17480: 63 18 a5 03  	bne	a0, s10, 0x174b0 <encode_mcu_huff+0x308>
   17484: 26 65        	c.ldsp	a0, 0x48(sp)
   17486: 93 05 15 00  	addi	a1, a0, 0x1
   1748a: ae e4        	c.sdsp	a1, 0x48(sp)
   1748c: 23 00 05 00  	sb	zero, 0x0(a0)
   17490: 46 6b        	c.ldsp	s6, 0x50(sp)
   17492: 7d 1b        	c.addi	s6, -0x1
   17494: da e8        	c.sdsp	s6, 0x50(sp)
   17496: 63 1d 0b 00  	bne	s6, zero, 0x174b0 <encode_mcu_huff+0x308>
   1749a: 66 75        	c.ldsp	a0, 0x78(sp)
   1749c: 00 71        	c.ld	s0, 0x20(a0)
   1749e: 0c 6c        	c.ld	a1, 0x18(s0)
   174a0: 82 95        	c.jalr	a1
   174a2: 63 04 05 36  	beq	a0, zero, 0x1780a <encode_mcu_huff+0x662>
   174a6: 08 60        	c.ld	a0, 0x0(s0)
   174a8: 03 3b 84 00  	ld	s6, 0x8(s0)
   174ac: aa e4        	c.sdsp	a0, 0x48(sp)
   174ae: da e8        	c.sdsp	s6, 0x50(sp)
   174b0: 22 0c        	c.slli	s8, 0x8
   174b2: 1b 89 84 ff  	addiw	s2, s1, -0x8
   174b6: e3 ea 99 f8  	bltu	s3, s1, 0x1744a <encode_mcu_huff+0x2a2>
   174ba: e2 ec        	c.sdsp	s8, 0x58(sp)
   174bc: ca d0        	c.swsp	s2, 0x60(sp)
   174be: 1b 05 0a ff  	addiw	a0, s4, -0x10
   174c2: fd 45        	c.li	a1, 0x1f
   174c4: e3 c2 45 f5  	blt	a1, s4, 0x17408 <encode_mcu_huff+0x260>
   174c8: c2 1c        	c.slli	s9, 0x30
   174ca: 66 e0        	c.sdsp	s9, 0x0(sp)
   174cc: 13 da 0c 43  	srai	s4, s9, 0x30
   174d0: 9b 55 fa 41  	sraiw	a1, s4, 0x1f
   174d4: 33 46 ba 00  	xor	a2, s4, a1
   174d8: bb 05 b6 40  	subw	a1, a2, a1
   174dc: 85 4b        	c.li	s7, 0x1
   174de: 8d 46        	c.li	a3, 0x3
   174e0: 63 f9 bb 00  	bgeu	s7, a1, 0x174f2 <encode_mcu_huff+0x34a>
   174e4: 85 4b        	c.li	s7, 0x1
   174e6: 2e 86        	c.mv	a2, a1
   174e8: 9b d5 15 00  	srliw	a1, a1, 0x1
   174ec: 85 0b        	c.addi	s7, 0x1
   174ee: e3 ec c6 fe  	bltu	a3, a2, 0x174e6 <encode_mcu_huff+0x33e>
   174f2: 12 05        	c.slli	a0, 0x4
   174f4: 3b 85 ab 00  	addw	a0, s7, a0
   174f8: 93 15 25 00  	slli	a1, a0, 0x2
   174fc: 06 66        	c.ldsp	a2, 0x40(sp)
   174fe: b2 95        	c.add	a1, a2
   17500: 32 95        	c.add	a0, a2
   17502: 83 44 05 40  	lbu	s1, 0x400(a0)
   17506: 83 ec 05 00  	lwu	s9, 0x0(a1)
   1750a: 81 e8        	c.bnez	s1, 0x1751a <encode_mcu_huff+0x372>
   1750c: 66 75        	c.ldsp	a0, 0x78(sp)
   1750e: 0c 61        	c.ld	a1, 0x0(a0)
   17510: 90 61        	c.ld	a2, 0x0(a1)
   17512: 93 06 70 02  	addi	a3, zero, 0x27
   17516: 94 d5        	c.sw	a3, 0x28(a1)
   17518: 02 96        	c.jalr	a2
   1751a: 7d 55        	c.li	a0, -0x1
   1751c: 33 15 95 00  	sll	a0, a0, s1
   17520: 13 45 f5 ff  	xori	a0, a0, -0x1
   17524: b3 75 95 01  	and	a1, a0, s9
   17528: 3b 05 99 00  	addw	a0, s2, s1
   1752c: 61 46        	c.li	a2, 0x18
   1752e: 09 9e        	c.subw	a2, a0
   17530: b3 95 c5 00  	sll	a1, a1, a2
   17534: b3 64 bc 00  	or	s1, s8, a1
   17538: a1 45        	c.li	a1, 0x8
   1753a: 63 4a b5 06  	blt	a0, a1, 0x175ae <encode_mcu_huff+0x406>
   1753e: a6 65        	c.ldsp	a1, 0x48(sp)
   17540: 13 d6 04 01  	srli	a2, s1, 0x10
   17544: 93 86 15 00  	addi	a3, a1, 0x1
   17548: b6 e4        	c.sdsp	a3, 0x48(sp)
   1754a: 23 80 c5 00  	sb	a2, 0x0(a1)
   1754e: 46 6b        	c.ldsp	s6, 0x50(sp)
   17550: 2a 89        	c.mv	s2, a0
   17552: 7d 1b        	c.addi	s6, -0x1
   17554: da e8        	c.sdsp	s6, 0x50(sp)
   17556: 63 1d 0b 00  	bne	s6, zero, 0x17570 <encode_mcu_huff+0x3c8>
   1755a: 66 75        	c.ldsp	a0, 0x78(sp)
   1755c: 00 71        	c.ld	s0, 0x20(a0)
   1755e: 0c 6c        	c.ld	a1, 0x18(s0)
   17560: 82 95        	c.jalr	a1
   17562: 63 04 05 2a  	beq	a0, zero, 0x1780a <encode_mcu_huff+0x662>
   17566: 08 60        	c.ld	a0, 0x0(s0)
   17568: 03 3b 84 00  	ld	s6, 0x8(s0)
   1756c: aa e4        	c.sdsp	a0, 0x48(sp)
   1756e: da e8        	c.sdsp	s6, 0x50(sp)
   17570: 33 f5 a4 01  	and	a0, s1, s10
   17574: 63 18 a5 03  	bne	a0, s10, 0x175a4 <encode_mcu_huff+0x3fc>
   17578: 26 65        	c.ldsp	a0, 0x48(sp)
   1757a: 93 05 15 00  	addi	a1, a0, 0x1
   1757e: ae e4        	c.sdsp	a1, 0x48(sp)
   17580: 23 00 05 00  	sb	zero, 0x0(a0)
   17584: 46 6b        	c.ldsp	s6, 0x50(sp)
   17586: 7d 1b        	c.addi	s6, -0x1
   17588: da e8        	c.sdsp	s6, 0x50(sp)
   1758a: 63 1d 0b 00  	bne	s6, zero, 0x175a4 <encode_mcu_huff+0x3fc>
   1758e: 66 75        	c.ldsp	a0, 0x78(sp)
   17590: 00 71        	c.ld	s0, 0x20(a0)
   17592: 0c 6c        	c.ld	a1, 0x18(s0)
   17594: 82 95        	c.jalr	a1
   17596: 63 0a 05 26  	beq	a0, zero, 0x1780a <encode_mcu_huff+0x662>
   1759a: 08 60        	c.ld	a0, 0x0(s0)
   1759c: 03 3b 84 00  	ld	s6, 0x8(s0)
   175a0: aa e4        	c.sdsp	a0, 0x48(sp)
   175a2: da e8        	c.sdsp	s6, 0x50(sp)
   175a4: a2 04        	c.slli	s1, 0x8
   175a6: 1b 05 89 ff  	addiw	a0, s2, -0x8
   175aa: e3 ca 29 f9  	blt	s3, s2, 0x1753e <encode_mcu_huff+0x396>
   175ae: 82 65        	c.ldsp	a1, 0x0(sp)
   175b0: fd 95        	c.srai	a1, 0x3f
   175b2: d2 95        	c.add	a1, s4
   175b4: 7d 56        	c.li	a2, -0x1
   175b6: 33 16 76 01  	sll	a2, a2, s7
   175ba: 13 46 f6 ff  	xori	a2, a2, -0x1
   175be: f1 8d        	c.and	a1, a2
   175c0: 82 15        	c.slli	a1, 0x20
   175c2: 81 91        	c.srli	a1, 0x20
   175c4: 3b 09 75 01  	addw	s2, a0, s7
   175c8: 61 45        	c.li	a0, 0x18
   175ca: 3b 05 25 41  	subw	a0, a0, s2
   175ce: 33 95 a5 00  	sll	a0, a1, a0
   175d2: 33 6c 95 00  	or	s8, a0, s1
   175d6: 13 0a 10 04  	addi	s4, zero, 0x41
   175da: 21 45        	c.li	a0, 0x8
   175dc: 63 4c a9 06  	blt	s2, a0, 0x17654 <encode_mcu_huff+0x4ac>
   175e0: a2 6b        	c.ldsp	s7, 0x8(sp)
   175e2: 26 65        	c.ldsp	a0, 0x48(sp)
   175e4: 93 55 0c 01  	srli	a1, s8, 0x10
   175e8: 13 06 15 00  	addi	a2, a0, 0x1
   175ec: b2 e4        	c.sdsp	a2, 0x48(sp)
   175ee: 23 00 b5 00  	sb	a1, 0x0(a0)
   175f2: 46 6b        	c.ldsp	s6, 0x50(sp)
   175f4: 4a 84        	c.mv	s0, s2
   175f6: 7d 1b        	c.addi	s6, -0x1
   175f8: da e8        	c.sdsp	s6, 0x50(sp)
   175fa: 63 1d 0b 00  	bne	s6, zero, 0x17614 <encode_mcu_huff+0x46c>
   175fe: 66 75        	c.ldsp	a0, 0x78(sp)
   17600: 04 71        	c.ld	s1, 0x20(a0)
   17602: 8c 6c        	c.ld	a1, 0x18(s1)
   17604: 82 95        	c.jalr	a1
   17606: 63 02 05 20  	beq	a0, zero, 0x1780a <encode_mcu_huff+0x662>
   1760a: 88 60        	c.ld	a0, 0x0(s1)
   1760c: 03 bb 84 00  	ld	s6, 0x8(s1)
   17610: aa e4        	c.sdsp	a0, 0x48(sp)
   17612: da e8        	c.sdsp	s6, 0x50(sp)
   17614: 33 75 ac 01  	and	a0, s8, s10
   17618: 63 18 a5 03  	bne	a0, s10, 0x17648 <encode_mcu_huff+0x4a0>
   1761c: 26 65        	c.ldsp	a0, 0x48(sp)
   1761e: 93 05 15 00  	addi	a1, a0, 0x1
   17622: ae e4        	c.sdsp	a1, 0x48(sp)
   17624: 23 00 05 00  	sb	zero, 0x0(a0)
   17628: 46 6b        	c.ldsp	s6, 0x50(sp)
   1762a: 7d 1b        	c.addi	s6, -0x1
   1762c: da e8        	c.sdsp	s6, 0x50(sp)
   1762e: 63 1d 0b 00  	bne	s6, zero, 0x17648 <encode_mcu_huff+0x4a0>
   17632: 66 75        	c.ldsp	a0, 0x78(sp)
   17634: 04 71        	c.ld	s1, 0x20(a0)
   17636: 8c 6c        	c.ld	a1, 0x18(s1)
   17638: 82 95        	c.jalr	a1
   1763a: 63 08 05 1c  	beq	a0, zero, 0x1780a <encode_mcu_huff+0x662>
   1763e: 88 60        	c.ld	a0, 0x0(s1)
   17640: 03 bb 84 00  	ld	s6, 0x8(s1)
   17644: aa e4        	c.sdsp	a0, 0x48(sp)
   17646: da e8        	c.sdsp	s6, 0x50(sp)
   17648: 22 0c        	c.slli	s8, 0x8
   1764a: 1b 09 84 ff  	addiw	s2, s0, -0x8
   1764e: e3 ca 89 f8  	blt	s3, s0, 0x175e2 <encode_mcu_huff+0x43a>
   17652: 11 a0        	c.j	0x17656 <encode_mcu_huff+0x4ae>
   17654: a2 6b        	c.ldsp	s7, 0x8(sp)
   17656: e2 ec        	c.sdsp	s8, 0x58(sp)
   17658: ca d0        	c.swsp	s2, 0x60(sp)
   1765a: 13 05 00 04  	addi	a0, zero, 0x40
   1765e: e3 9e aa d6  	bne	s5, a0, 0x173da <encode_mcu_huff+0x232>
   17662: 4d a8        	c.j	0x17714 <encode_mcu_huff+0x56c>
   17664: 06 65        	c.ldsp	a0, 0x40(sp)
   17666: 03 44 05 40  	lbu	s0, 0x400(a0)
   1766a: 83 64 05 00  	lwu	s1, 0x0(a0)
   1766e: 01 e8        	c.bnez	s0, 0x1767e <encode_mcu_huff+0x4d6>
   17670: 66 75        	c.ldsp	a0, 0x78(sp)
   17672: 0c 61        	c.ld	a1, 0x0(a0)
   17674: 90 61        	c.ld	a2, 0x0(a1)
   17676: 93 06 70 02  	addi	a3, zero, 0x27
   1767a: 94 d5        	c.sw	a3, 0x28(a1)
   1767c: 02 96        	c.jalr	a2
   1767e: 7d 55        	c.li	a0, -0x1
   17680: 33 15 85 00  	sll	a0, a0, s0
   17684: 13 45 f5 ff  	xori	a0, a0, -0x1
   17688: e9 8c        	c.and	s1, a0
   1768a: 3b 05 89 00  	addw	a0, s2, s0
   1768e: e1 45        	c.li	a1, 0x18
   17690: 89 9d        	c.subw	a1, a0
   17692: b3 95 b4 00  	sll	a1, s1, a1
   17696: 33 64 bc 00  	or	s0, s8, a1
   1769a: a1 45        	c.li	a1, 0x8
   1769c: 63 4a b5 06  	blt	a0, a1, 0x17710 <encode_mcu_huff+0x568>
   176a0: a6 65        	c.ldsp	a1, 0x48(sp)
   176a2: 13 56 04 01  	srli	a2, s0, 0x10
   176a6: 93 86 15 00  	addi	a3, a1, 0x1
   176aa: b6 e4        	c.sdsp	a3, 0x48(sp)
   176ac: 23 80 c5 00  	sb	a2, 0x0(a1)
   176b0: 46 6b        	c.ldsp	s6, 0x50(sp)
   176b2: 2a 89        	c.mv	s2, a0
   176b4: 7d 1b        	c.addi	s6, -0x1
   176b6: da e8        	c.sdsp	s6, 0x50(sp)
   176b8: 63 1d 0b 00  	bne	s6, zero, 0x176d2 <encode_mcu_huff+0x52a>
   176bc: 66 75        	c.ldsp	a0, 0x78(sp)
   176be: 04 71        	c.ld	s1, 0x20(a0)
   176c0: 8c 6c        	c.ld	a1, 0x18(s1)
   176c2: 82 95        	c.jalr	a1
   176c4: 63 03 05 14  	beq	a0, zero, 0x1780a <encode_mcu_huff+0x662>
   176c8: 88 60        	c.ld	a0, 0x0(s1)
   176ca: 03 bb 84 00  	ld	s6, 0x8(s1)
   176ce: aa e4        	c.sdsp	a0, 0x48(sp)
   176d0: da e8        	c.sdsp	s6, 0x50(sp)
   176d2: 33 75 a4 01  	and	a0, s0, s10
   176d6: 63 18 a5 03  	bne	a0, s10, 0x17706 <encode_mcu_huff+0x55e>
   176da: 26 65        	c.ldsp	a0, 0x48(sp)
   176dc: 93 05 15 00  	addi	a1, a0, 0x1
   176e0: ae e4        	c.sdsp	a1, 0x48(sp)
   176e2: 23 00 05 00  	sb	zero, 0x0(a0)
   176e6: 46 6b        	c.ldsp	s6, 0x50(sp)
   176e8: 7d 1b        	c.addi	s6, -0x1
   176ea: da e8        	c.sdsp	s6, 0x50(sp)
   176ec: 63 1d 0b 00  	bne	s6, zero, 0x17706 <encode_mcu_huff+0x55e>
   176f0: 66 75        	c.ldsp	a0, 0x78(sp)
   176f2: 04 71        	c.ld	s1, 0x20(a0)
   176f4: 8c 6c        	c.ld	a1, 0x18(s1)
   176f6: 82 95        	c.jalr	a1
   176f8: 63 09 05 10  	beq	a0, zero, 0x1780a <encode_mcu_huff+0x662>
   176fc: 88 60        	c.ld	a0, 0x0(s1)
   176fe: 03 bb 84 00  	ld	s6, 0x8(s1)
   17702: aa e4        	c.sdsp	a0, 0x48(sp)
   17704: da e8        	c.sdsp	s6, 0x50(sp)
   17706: 22 04        	c.slli	s0, 0x8
   17708: 1b 05 89 ff  	addiw	a0, s2, -0x8
   1770c: e3 ca 29 f9  	blt	s3, s2, 0x176a0 <encode_mcu_huff+0x4f8>
   17710: a2 ec        	c.sdsp	s0, 0x58(sp)
   17712: aa d0        	c.swsp	a0, 0x60(sp)
   17714: 22 75        	c.ldsp	a0, 0x28(sp)
   17716: 08 61        	c.ld	a0, 0x0(a0)
   17718: 03 15 05 00  	lh	a0, 0x0(a0)
   1771c: 62 64        	c.ldsp	s0, 0x18(sp)
   1771e: 83 25 84 16  	lw	a1, 0x168(s0)
   17722: 42 76        	c.ldsp	a2, 0x30(sp)
   17724: 05 06        	c.addi	a2, 0x1
   17726: 23 a0 ab 00  	sw	a0, 0x0(s7)
   1772a: 02 7c        	c.ldsp	s8, 0x20(sp)
   1772c: 42 6a        	c.ldsp	s4, 0x10(sp)
   1772e: b4 00        	c.addi4spn	a3, sp, 0x48
   17730: e3 4e b6 ac  	blt	a2, a1, 0x1720c <encode_mcu_huff+0x64>
   17734: 26 65        	c.ldsp	a0, 0x48(sp)
   17736: 0c 70        	c.ld	a1, 0x20(s0)
   17738: b0 08        	c.addi4spn	a2, sp, 0x58
   1773a: 93 06 8c 01  	addi	a3, s8, 0x18
   1773e: 88 e1        	c.sd	a0, 0x0(a1)
   17740: 23 b4 65 01  	sd	s6, 0x8(a1)
   17744: 08 6e        	c.ld	a0, 0x18(a2)
   17746: 0c 6a        	c.ld	a1, 0x10(a2)
   17748: 18 66        	c.ld	a4, 0x8(a2)
   1774a: 10 62        	c.ld	a2, 0x0(a2)
   1774c: 88 ee        	c.sd	a0, 0x18(a3)
   1774e: 8c ea        	c.sd	a1, 0x10(a3)
   17750: 98 e6        	c.sd	a4, 0x8(a3)
   17752: 90 e2        	c.sd	a2, 0x0(a3)
   17754: 83 25 04 11  	lw	a1, 0x110(s0)
   17758: 05 45        	c.li	a0, 0x1
   1775a: c5 c9        	c.beqz	a1, 0x1780a <encode_mcu_huff+0x662>
   1775c: 03 26 8c 03  	lw	a2, 0x38(s8)
   17760: 01 ea        	c.bnez	a2, 0x17770 <encode_mcu_huff+0x5c8>
   17762: 03 26 cc 03  	lw	a2, 0x3c(s8)
   17766: 05 06        	c.addi	a2, 0x1
   17768: 1d 8a        	c.andi	a2, 0x7
   1776a: 23 2e cc 02  	sw	a2, 0x3c(s8)
   1776e: 2e 86        	c.mv	a2, a1
   17770: 7d 16        	c.addi	a2, -0x1
   17772: 23 2c cc 02  	sw	a2, 0x38(s8)
   17776: 51 a8        	c.j	0x1780a <encode_mcu_huff+0x662>
   17778: 83 24 cc 03  	lw	s1, 0x3c(s8)
   1777c: a8 00        	c.addi4spn	a0, sp, 0x48
   1777e: ef 00 c0 0f  	jal	ra, 0x1787a <flush_bits>
   17782: 41 c5        	c.beqz	a0, 0x1780a <encode_mcu_huff+0x662>
   17784: 26 65        	c.ldsp	a0, 0x48(sp)
   17786: 93 05 15 00  	addi	a1, a0, 0x1
   1778a: ae e4        	c.sdsp	a1, 0x48(sp)
   1778c: 93 05 f0 0f  	addi	a1, zero, 0xff
   17790: 23 00 b5 00  	sb	a1, 0x0(a0)
   17794: 46 65        	c.ldsp	a0, 0x50(sp)
   17796: 7d 15        	c.addi	a0, -0x1
   17798: aa e8        	c.sdsp	a0, 0x50(sp)
   1779a: 19 c1        	c.beqz	a0, 0x177a0 <encode_mcu_huff+0x5f8>
   1779c: 26 65        	c.ldsp	a0, 0x48(sp)
   1779e: 29 a8        	c.j	0x177b8 <encode_mcu_huff+0x610>
   177a0: 66 75        	c.ldsp	a0, 0x78(sp)
   177a2: 03 39 05 02  	ld	s2, 0x20(a0)
   177a6: 83 35 89 01  	ld	a1, 0x18(s2)
   177aa: 82 95        	c.jalr	a1
   177ac: 39 cd        	c.beqz	a0, 0x1780a <encode_mcu_huff+0x662>
   177ae: 83 35 89 00  	ld	a1, 0x8(s2)
   177b2: 03 35 09 00  	ld	a0, 0x0(s2)
   177b6: ae e8        	c.sdsp	a1, 0x50(sp)
   177b8: 93 85 04 fd  	addi	a1, s1, -0x30
   177bc: 13 06 15 00  	addi	a2, a0, 0x1
   177c0: b2 e4        	c.sdsp	a2, 0x48(sp)
   177c2: 23 00 b5 00  	sb	a1, 0x0(a0)
   177c6: 46 6b        	c.ldsp	s6, 0x50(sp)
   177c8: e6 74        	c.ldsp	s1, 0x78(sp)
   177ca: 7d 1b        	c.addi	s6, -0x1
   177cc: da e8        	c.sdsp	s6, 0x50(sp)
   177ce: 63 1f 0b 00  	bne	s6, zero, 0x177ec <encode_mcu_huff+0x644>
   177d2: 03 b9 04 02  	ld	s2, 0x20(s1)
   177d6: 83 35 89 01  	ld	a1, 0x18(s2)
   177da: 26 85        	c.mv	a0, s1
   177dc: 82 95        	c.jalr	a1
   177de: 15 c5        	c.beqz	a0, 0x1780a <encode_mcu_huff+0x662>
   177e0: 03 35 09 00  	ld	a0, 0x0(s2)
   177e4: 03 3b 89 00  	ld	s6, 0x8(s2)
   177e8: aa e4        	c.sdsp	a0, 0x48(sp)
   177ea: da e8        	c.sdsp	s6, 0x50(sp)
   177ec: 03 a5 c4 13  	lw	a0, 0x13c(s1)
   177f0: e3 5d a0 9e  	bge	zero, a0, 0x171ea <encode_mcu_huff+0x42>
   177f4: 01 45        	c.li	a0, 0x0
   177f6: cc 10        	c.addi4spn	a1, sp, 0x64
   177f8: 23 a0 05 00  	sw	zero, 0x0(a1)
   177fc: 03 a6 c4 13  	lw	a2, 0x13c(s1)
   17800: 05 05        	c.addi	a0, 0x1
   17802: 91 05        	c.addi	a1, 0x4
   17804: e3 4a c5 fe  	blt	a0, a2, 0x177f8 <encode_mcu_huff+0x650>
   17808: cd b2        	c.j	0x171ea <encode_mcu_huff+0x42>
   1780a: 09 61        	c.addi16sp	sp, 0x80
   1780c: 6f 60 01 65  	jal	zero, 0x2de5c <__riscv_restore_12>

0000000000017810 <finish_pass_huff>:
   17810: ef 62 21 63  	jal	t0, 0x2de42 <__riscv_save_3>
   17814: 39 71        	c.addi16sp	sp, -0x40
   17816: 2a 84        	c.mv	s0, a0
   17818: 08 71        	c.ld	a0, 0x20(a0)
   1781a: 83 34 84 1e  	ld	s1, 0x1e8(s0)
   1781e: 0c 61        	c.ld	a1, 0x0(a0)
   17820: 08 65        	c.ld	a0, 0x8(a0)
   17822: 90 6c        	c.ld	a2, 0x18(s1)
   17824: 94 70        	c.ld	a3, 0x20(s1)
   17826: 2e e4        	c.sdsp	a1, 0x8(sp)
   17828: 2a e8        	c.sdsp	a0, 0x10(sp)
   1782a: 32 ec        	c.sdsp	a2, 0x18(sp)
   1782c: 36 f0        	c.sdsp	a3, 0x20(sp)
   1782e: 88 74        	c.ld	a0, 0x28(s1)
   17830: 8c 78        	c.ld	a1, 0x30(s1)
   17832: 13 09 81 01  	addi	s2, sp, 0x18
   17836: e1 04        	c.addi	s1, 0x18
   17838: 2a f4        	c.sdsp	a0, 0x28(sp)
   1783a: 2e f8        	c.sdsp	a1, 0x30(sp)
   1783c: 22 fc        	c.sdsp	s0, 0x38(sp)
   1783e: 28 00        	c.addi4spn	a0, sp, 0x8
   17840: ef 00 a0 03  	jal	ra, 0x1787a <flush_bits>
   17844: 19 e5        	c.bnez	a0, 0x17852 <finish_pass_huff+0x42>
   17846: 08 60        	c.ld	a0, 0x0(s0)
   17848: 0c 61        	c.ld	a1, 0x0(a0)
   1784a: 59 46        	c.li	a2, 0x16
   1784c: 10 d5        	c.sw	a2, 0x28(a0)
   1784e: 22 85        	c.mv	a0, s0
   17850: 82 95        	c.jalr	a1
   17852: 22 65        	c.ldsp	a0, 0x8(sp)
   17854: 0c 70        	c.ld	a1, 0x20(s0)
   17856: 42 66        	c.ldsp	a2, 0x10(sp)
   17858: 88 e1        	c.sd	a0, 0x0(a1)
   1785a: 90 e5        	c.sd	a2, 0x8(a1)
   1785c: 03 35 09 00  	ld	a0, 0x0(s2)
   17860: 83 35 89 00  	ld	a1, 0x8(s2)
   17864: 03 36 09 01  	ld	a2, 0x10(s2)
   17868: 83 36 89 01  	ld	a3, 0x18(s2)
   1786c: 88 e0        	c.sd	a0, 0x0(s1)
   1786e: 8c e4        	c.sd	a1, 0x8(s1)
   17870: 90 e8        	c.sd	a2, 0x10(s1)
   17872: 94 ec        	c.sd	a3, 0x18(s1)
   17874: 21 61        	c.addi16sp	sp, 0x40
   17876: 6f 60 21 60  	jal	zero, 0x2de78 <__riscv_restore_3>

000000000001787a <flush_bits>:
   1787a: ef 62 41 5b  	jal	t0, 0x2de2e <__riscv_save_7>
   1787e: 2a 89        	c.mv	s2, a0
   17880: 00 4d        	c.lw	s0, 0x18(a0)
   17882: 63 55 80 0a  	bge	zero, s0, 0x1792c <flush_bits+0xb2>
   17886: 45 45        	c.li	a0, 0x11
   17888: 83 35 09 01  	ld	a1, 0x10(s2)
   1788c: 01 9d        	c.subw	a0, s0
   1788e: 13 06 f0 07  	addi	a2, zero, 0x7f
   17892: b3 14 a6 00  	sll	s1, a2, a0
   17896: cd 8c        	c.or	s1, a1
   17898: 3d 04        	c.addi	s0, 0xf
   1789a: b7 09 ff 00  	lui	s3, 0xff0
   1789e: 3d 4a        	c.li	s4, 0xf
   178a0: 03 35 09 00  	ld	a0, 0x0(s2)
   178a4: 93 d5 04 01  	srli	a1, s1, 0x10
   178a8: 13 06 15 00  	addi	a2, a0, 0x1
   178ac: 23 30 c9 00  	sd	a2, 0x0(s2)
   178b0: 23 00 b5 00  	sb	a1, 0x0(a0)
   178b4: 03 35 89 00  	ld	a0, 0x8(s2)
   178b8: 7d 15        	c.addi	a0, -0x1
   178ba: 23 34 a9 00  	sd	a0, 0x8(s2)
   178be: 0d e1        	c.bnez	a0, 0x178e0 <flush_bits+0x66>
   178c0: 03 35 09 03  	ld	a0, 0x30(s2)
   178c4: 83 3a 05 02  	ld	s5, 0x20(a0)
   178c8: 83 b5 8a 01  	ld	a1, 0x18(s5)
   178cc: 82 95        	c.jalr	a1
   178ce: 25 c5        	c.beqz	a0, 0x17936 <flush_bits+0xbc>
   178d0: 03 b5 0a 00  	ld	a0, 0x0(s5)
   178d4: 83 b5 8a 00  	ld	a1, 0x8(s5)
   178d8: 23 30 a9 00  	sd	a0, 0x0(s2)
   178dc: 23 34 b9 00  	sd	a1, 0x8(s2)
   178e0: 33 f5 34 01  	and	a0, s1, s3
   178e4: 63 10 35 05  	bne	a0, s3, 0x17924 <flush_bits+0xaa>
   178e8: 03 35 09 00  	ld	a0, 0x0(s2)
   178ec: 93 05 15 00  	addi	a1, a0, 0x1
   178f0: 23 30 b9 00  	sd	a1, 0x0(s2)
   178f4: 23 00 05 00  	sb	zero, 0x0(a0)
   178f8: 03 35 89 00  	ld	a0, 0x8(s2)
   178fc: 7d 15        	c.addi	a0, -0x1
   178fe: 23 34 a9 00  	sd	a0, 0x8(s2)
   17902: 0d e1        	c.bnez	a0, 0x17924 <flush_bits+0xaa>
   17904: 03 35 09 03  	ld	a0, 0x30(s2)
   17908: 83 3a 05 02  	ld	s5, 0x20(a0)
   1790c: 83 b5 8a 01  	ld	a1, 0x18(s5)
   17910: 82 95        	c.jalr	a1
   17912: 15 c1        	c.beqz	a0, 0x17936 <flush_bits+0xbc>
   17914: 03 b5 0a 00  	ld	a0, 0x0(s5)
   17918: 83 b5 8a 00  	ld	a1, 0x8(s5)
   1791c: 23 30 a9 00  	sd	a0, 0x0(s2)
   17920: 23 34 b9 00  	sd	a1, 0x8(s2)
   17924: 61 34        	c.addiw	s0, -0x8
   17926: a2 04        	c.slli	s1, 0x8
   17928: e3 4c 8a f6  	blt	s4, s0, 0x178a0 <flush_bits+0x26>
   1792c: 23 38 09 00  	sd	zero, 0x10(s2)
   17930: 23 2c 09 00  	sw	zero, 0x18(s2)
   17934: 05 45        	c.li	a0, 0x1
   17936: 6f 60 61 53  	jal	zero, 0x2de6c <__riscv_restore_7>

000000000001793a <jinit_phuff_encoder>:
   1793a: 41 11        	c.addi	sp, -0x10
   1793c: 06 e4        	c.sdsp	ra, 0x8(sp)
   1793e: 22 e0        	c.sdsp	s0, 0x0(sp)
   17940: 2a 84        	c.mv	s0, a0
   17942: 08 65        	c.ld	a0, 0x8(a0)
   17944: 14 61        	c.ld	a3, 0x0(a0)
   17946: 85 45        	c.li	a1, 0x1
   17948: 13 06 80 0b  	addi	a2, zero, 0xb8
   1794c: 22 85        	c.mv	a0, s0
   1794e: 82 96        	c.jalr	a3
   17950: 23 34 a4 1e  	sd	a0, 0x1e8(s0)
   17954: b7 85 01 00  	lui	a1, 0x18
   17958: 93 85 85 97  	addi	a1, a1, -0x688
   1795c: 0c e1        	c.sd	a1, 0x0(a0)
   1795e: 93 05 85 07  	addi	a1, a0, 0x78
   17962: 13 06 00 04  	addi	a2, zero, 0x40
   17966: 23 34 05 06  	sd	zero, 0x68(a0)
   1796a: 2e 85        	c.mv	a0, a1
   1796c: 81 45        	c.li	a1, 0x0
   1796e: a2 60        	c.ldsp	ra, 0x8(sp)
   17970: 02 64        	c.ldsp	s0, 0x0(sp)
   17972: 41 01        	c.addi	sp, 0x10
   17974: 6f 40 60 30  	jal	zero, 0x1bc7a <memset>

0000000000017978 <start_pass_phuff>:
   17978: ef 62 21 4a  	jal	t0, 0x2de1a <__riscv_save_11>
   1797c: 2a 8b        	c.mv	s6, a0
   1797e: 83 3a 85 1e  	ld	s5, 0x1e8(a0)
   17982: 03 25 c5 19  	lw	a0, 0x19c(a0)
   17986: 03 2a 4b 19  	lw	s4, 0x194(s6)
   1798a: ae 89        	c.mv	s3, a1
   1798c: 23 b0 6a 05  	sd	s6, 0x40(s5)
   17990: 23 ac ba 00  	sw	a1, 0x18(s5)
   17994: 1d c1        	c.beqz	a0, 0x179ba <start_pass_phuff+0x42>
   17996: 63 09 0a 02  	beq	s4, zero, 0x179c8 <start_pass_phuff+0x50>
   1799a: 03 b5 8a 06  	ld	a0, 0x68(s5)
   1799e: b7 85 01 00  	lui	a1, 0x18
   179a2: 93 85 65 f9  	addi	a1, a1, -0x6a
   179a6: 23 b4 ba 00  	sd	a1, 0x8(s5)
   179aa: 05 c9        	c.beqz	a0, 0x179da <start_pass_phuff+0x62>
   179ac: 63 9c 09 04  	bne	s3, zero, 0x17a04 <start_pass_phuff+0x8c>
   179b0: 37 85 01 00  	lui	a0, 0x18
   179b4: 13 05 05 2a  	addi	a0, a0, 0x2a0
   179b8: 91 a8        	c.j	0x17a0c <start_pass_phuff+0x94>
   179ba: 63 0d 0a 02  	beq	s4, zero, 0x179f4 <start_pass_phuff+0x7c>
   179be: 37 85 01 00  	lui	a0, 0x18
   179c2: 13 05 05 c8  	addi	a0, a0, -0x380
   179c6: 1d a8        	c.j	0x179fc <start_pass_phuff+0x84>
   179c8: 37 85 01 00  	lui	a0, 0x18
   179cc: 13 05 85 e7  	addi	a0, a0, -0x188
   179d0: 23 b4 aa 00  	sd	a0, 0x8(s5)
   179d4: 63 98 09 02  	bne	s3, zero, 0x17a04 <start_pass_phuff+0x8c>
   179d8: e1 bf        	c.j	0x179b0 <start_pass_phuff+0x38>
   179da: 03 35 8b 00  	ld	a0, 0x8(s6)
   179de: 14 61        	c.ld	a3, 0x0(a0)
   179e0: 85 45        	c.li	a1, 0x1
   179e2: 13 06 80 3e  	addi	a2, zero, 0x3e8
   179e6: 5a 85        	c.mv	a0, s6
   179e8: 82 96        	c.jalr	a3
   179ea: 23 b4 aa 06  	sd	a0, 0x68(s5)
   179ee: e3 81 09 fc  	beq	s3, zero, 0x179b0 <start_pass_phuff+0x38>
   179f2: 09 a8        	c.j	0x17a04 <start_pass_phuff+0x8c>
   179f4: 37 85 01 00  	lui	a0, 0x18
   179f8: 13 05 45 af  	addi	a0, a0, -0x50c
   179fc: 23 b4 aa 00  	sd	a0, 0x8(s5)
   17a00: e3 88 09 fa  	beq	s3, zero, 0x179b0 <start_pass_phuff+0x38>
   17a04: 37 85 01 00  	lui	a0, 0x18
   17a08: 13 05 65 20  	addi	a0, a0, 0x206
   17a0c: 23 b8 aa 00  	sd	a0, 0x10(s5)
   17a10: 03 25 cb 13  	lw	a0, 0x13c(s6)
   17a14: 63 50 a0 0c  	bge	zero, a0, 0x17ad4 <start_pass_phuff+0x15c>
   17a18: 81 4b        	c.li	s7, 0x0
   17a1a: 13 0d 0b 14  	addi	s10, s6, 0x140
   17a1e: 93 84 8a 04  	addi	s1, s5, 0x48
   17a22: 0d 4c        	c.li	s8, 0x3
   17a24: 93 0c 10 03  	addi	s9, zero, 0x31
   17a28: 05 65        	c.lui	a0, 0x1
   17a2a: 1b 09 85 80  	addiw	s2, a0, -0x7f8
   17a2e: 03 35 0d 00  	ld	a0, 0x0(s10)
   17a32: 23 a0 04 00  	sw	zero, 0x0(s1)
   17a36: 63 0f 0a 00  	beq	s4, zero, 0x17a54 <start_pass_phuff+0xdc>
   17a3a: 00 4d        	c.lw	s0, 0x18(a0)
   17a3c: 23 ac 8a 04  	sw	s0, 0x58(s5)
   17a40: 63 67 8c 02  	bltu	s8, s0, 0x17a6e <start_pass_phuff+0xf6>
   17a44: 63 9f 09 02  	bne	s3, zero, 0x17a82 <start_pass_phuff+0x10a>
   17a48: 13 15 34 00  	slli	a0, s0, 0x3
   17a4c: 5a 95        	c.add	a0, s6
   17a4e: 48 6d        	c.ld	a0, 0x98(a0)
   17a50: 19 cd        	c.beqz	a0, 0x17a6e <start_pass_phuff+0xf6>
   17a52: 05 a8        	c.j	0x17a82 <start_pass_phuff+0x10a>
   17a54: 83 25 cb 19  	lw	a1, 0x19c(s6)
   17a58: bd e5        	c.bnez	a1, 0x17ac6 <start_pass_phuff+0x14e>
   17a5a: 40 49        	c.lw	s0, 0x14(a0)
   17a5c: 63 69 8c 00  	bltu	s8, s0, 0x17a6e <start_pass_phuff+0xf6>
   17a60: 63 91 09 02  	bne	s3, zero, 0x17a82 <start_pass_phuff+0x10a>
   17a64: 13 15 34 00  	slli	a0, s0, 0x3
   17a68: 5a 95        	c.add	a0, s6
   17a6a: 28 7d        	c.ld	a0, 0x78(a0)
   17a6c: 19 e9        	c.bnez	a0, 0x17a82 <start_pass_phuff+0x10a>
   17a6e: 03 35 0b 00  	ld	a0, 0x0(s6)
   17a72: 40 d5        	c.sw	s0, 0x2c(a0)
   17a74: 83 35 0b 00  	ld	a1, 0x0(s6)
   17a78: 8c 61        	c.ld	a1, 0x0(a1)
   17a7a: 23 24 95 03  	sw	s9, 0x28(a0)
   17a7e: 5a 85        	c.mv	a0, s6
   17a80: 82 95        	c.jalr	a1
   17a82: 0e 04        	c.slli	s0, 0x3
   17a84: 63 84 09 02  	beq	s3, zero, 0x17aac <start_pass_phuff+0x134>
   17a88: 56 94        	c.add	s0, s5
   17a8a: 48 6c        	c.ld	a0, 0x98(s0)
   17a8c: 19 e9        	c.bnez	a0, 0x17aa2 <start_pass_phuff+0x12a>
   17a8e: 03 35 8b 00  	ld	a0, 0x8(s6)
   17a92: 14 61        	c.ld	a3, 0x0(a0)
   17a94: 13 04 84 09  	addi	s0, s0, 0x98
   17a98: 85 45        	c.li	a1, 0x1
   17a9a: 5a 85        	c.mv	a0, s6
   17a9c: 4a 86        	c.mv	a2, s2
   17a9e: 82 96        	c.jalr	a3
   17aa0: 08 e0        	c.sd	a0, 0x0(s0)
   17aa2: 81 45        	c.li	a1, 0x0
   17aa4: 4a 86        	c.mv	a2, s2
   17aa6: ef 40 40 1d  	jal	ra, 0x1bc7a <memset>
   17aaa: 31 a8        	c.j	0x17ac6 <start_pass_phuff+0x14e>
   17aac: 33 85 8a 00  	add	a0, s5, s0
   17ab0: 13 06 85 07  	addi	a2, a0, 0x78
   17ab4: 5a 94        	c.add	s0, s6
   17ab6: 63 04 0a 00  	beq	s4, zero, 0x17abe <start_pass_phuff+0x146>
   17aba: 4c 6c        	c.ld	a1, 0x98(s0)
   17abc: 11 a0        	c.j	0x17ac0 <start_pass_phuff+0x148>
   17abe: 2c 7c        	c.ld	a1, 0x78(s0)
   17ac0: 5a 85        	c.mv	a0, s6
   17ac2: ef e0 df fd  	jal	ra, 0x16a9e <jpeg_make_c_derived_tbl>
   17ac6: 03 25 cb 13  	lw	a0, 0x13c(s6)
   17aca: 85 0b        	c.addi	s7, 0x1
   17acc: 21 0d        	c.addi	s10, 0x8
   17ace: 91 04        	c.addi	s1, 0x4
   17ad0: e3 cf ab f4  	blt	s7, a0, 0x17a2e <start_pass_phuff+0xb6>
   17ad4: 23 ae 0a 04  	sw	zero, 0x5c(s5)
   17ad8: 03 25 0b 11  	lw	a0, 0x110(s6)
   17adc: 23 a0 0a 06  	sw	zero, 0x60(s5)
   17ae0: 23 b8 0a 02  	sd	zero, 0x30(s5)
   17ae4: 23 ac 0a 02  	sw	zero, 0x38(s5)
   17ae8: 23 a8 aa 06  	sw	a0, 0x70(s5)
   17aec: 23 aa 0a 06  	sw	zero, 0x74(s5)
   17af0: 6f 60 01 37  	jal	zero, 0x2de60 <__riscv_restore_11>

0000000000017af4 <encode_mcu_DC_first>:
   17af4: ef 62 e1 31  	jal	t0, 0x2de12 <__riscv_save_12>
   17af8: aa 89        	c.mv	s3, a0
   17afa: 08 71        	c.ld	a0, 0x20(a0)
   17afc: 83 bd 89 1e  	ld	s11, 0x1e8(s3)
   17b00: 10 61        	c.ld	a2, 0x0(a0)
   17b02: 08 65        	c.ld	a0, 0x8(a0)
   17b04: 83 a6 09 11  	lw	a3, 0x110(s3)
   17b08: 03 aa 09 1a  	lw	s4, 0x1a0(s3)
   17b0c: 2e 89        	c.mv	s2, a1
   17b0e: 23 b0 cd 02  	sd	a2, 0x20(s11)
   17b12: 23 b4 ad 02  	sd	a0, 0x28(s11)
   17b16: 89 ca        	c.beqz	a3, 0x17b28 <encode_mcu_DC_first+0x34>
   17b18: 03 a5 0d 07  	lw	a0, 0x70(s11)
   17b1c: 11 e5        	c.bnez	a0, 0x17b28 <encode_mcu_DC_first+0x34>
   17b1e: 83 a5 4d 07  	lw	a1, 0x74(s11)
   17b22: 6e 85        	c.mv	a0, s11
   17b24: ef 00 a0 7a  	jal	ra, 0x182ce <emit_restart>
   17b28: 03 a5 89 16  	lw	a0, 0x168(s3)
   17b2c: 63 5f a0 10  	bge	zero, a0, 0x17c4a <encode_mcu_DC_first+0x156>
   17b30: 81 4a        	c.li	s5, 0x0
   17b32: 21 4c        	c.li	s8, 0x8
   17b34: b7 0c ff 00  	lui	s9, 0xff0
   17b38: 3d 4d        	c.li	s10, 0xf
   17b3a: 13 95 3a 00  	slli	a0, s5, 0x3
   17b3e: 93 95 2a 00  	slli	a1, s5, 0x2
   17b42: ce 95        	c.add	a1, s3
   17b44: 83 a5 c5 16  	lw	a1, 0x16c(a1)
   17b48: 4a 95        	c.add	a0, s2
   17b4a: 08 61        	c.ld	a0, 0x0(a0)
   17b4c: 13 96 35 00  	slli	a2, a1, 0x3
   17b50: 4e 96        	c.add	a2, s3
   17b52: 83 16 05 00  	lh	a3, 0x0(a0)
   17b56: 8a 05        	c.slli	a1, 0x2
   17b58: 33 87 bd 00  	add	a4, s11, a1
   17b5c: 2c 47        	c.lw	a1, 0x48(a4)
   17b5e: 03 35 06 14  	ld	a0, 0x140(a2)
   17b62: 3b d6 46 41  	sraw	a2, a3, s4
   17b66: 30 c7        	c.sw	a2, 0x48(a4)
   17b68: 63 18 b6 00  	bne	a2, a1, 0x17b78 <encode_mcu_DC_first+0x84>
   17b6c: 4c 49        	c.lw	a1, 0x14(a0)
   17b6e: 6e 85        	c.mv	a0, s11
   17b70: 01 46        	c.li	a2, 0x0
   17b72: ef 00 40 7e  	jal	ra, 0x18356 <emit_symbol>
   17b76: e9 a0        	c.j	0x17c40 <encode_mcu_DC_first+0x14c>
   17b78: 01 4b        	c.li	s6, 0x0
   17b7a: 81 44        	c.li	s1, 0x0
   17b7c: 0d 9e        	c.subw	a2, a1
   17b7e: 9b 55 f6 41  	sraiw	a1, a2, 0x1f
   17b82: b3 8b c5 00  	add	s7, a1, a2
   17b86: 2d 8e        	c.xor	a2, a1
   17b88: bb 05 b6 40  	subw	a1, a2, a1
   17b8c: 25 46        	c.li	a2, 0x9
   17b8e: 32 84        	c.mv	s0, a2
   17b90: 85 24        	c.addiw	s1, 0x1
   17b92: 9b d5 15 00  	srliw	a1, a1, 0x1
   17b96: 05 0b        	c.addi	s6, 0x1
   17b98: 05 06        	c.addi	a2, 0x1
   17b9a: f5 f9        	c.bnez	a1, 0x17b8e <encode_mcu_DC_first+0x9a>
   17b9c: 4c 49        	c.lw	a1, 0x14(a0)
   17b9e: 6e 85        	c.mv	a0, s11
   17ba0: 26 86        	c.mv	a2, s1
   17ba2: ef 00 40 7b  	jal	ra, 0x18356 <emit_symbol>
   17ba6: 03 a5 8d 01  	lw	a0, 0x18(s11)
   17baa: 59 e9        	c.bnez	a0, 0x17c40 <encode_mcu_DC_first+0x14c>
   17bac: 03 a5 8d 03  	lw	a0, 0x38(s11)
   17bb0: fd 55        	c.li	a1, -0x1
   17bb2: b3 95 65 01  	sll	a1, a1, s6
   17bb6: 93 c5 f5 ff  	xori	a1, a1, -0x1
   17bba: b3 f5 bb 00  	and	a1, s7, a1
   17bbe: 82 15        	c.slli	a1, 0x20
   17bc0: 13 d6 05 02  	srli	a2, a1, 0x20
   17bc4: 83 b6 0d 03  	ld	a3, 0x30(s11)
   17bc8: bb 05 95 00  	addw	a1, a0, s1
   17bcc: 61 47        	c.li	a4, 0x18
   17bce: 0d 9f        	c.subw	a4, a1
   17bd0: b3 14 e6 00  	sll	s1, a2, a4
   17bd4: d5 8c        	c.or	s1, a3
   17bd6: 63 c1 85 07  	blt	a1, s8, 0x17c38 <encode_mcu_DC_first+0x144>
   17bda: 2a 94        	c.add	s0, a0
   17bdc: 03 b5 0d 02  	ld	a0, 0x20(s11)
   17be0: 93 d5 04 01  	srli	a1, s1, 0x10
   17be4: 13 06 15 00  	addi	a2, a0, 0x1
   17be8: 23 b0 cd 02  	sd	a2, 0x20(s11)
   17bec: 23 00 b5 00  	sb	a1, 0x0(a0)
   17bf0: 03 b5 8d 02  	ld	a0, 0x28(s11)
   17bf4: 7d 15        	c.addi	a0, -0x1
   17bf6: 23 b4 ad 02  	sd	a0, 0x28(s11)
   17bfa: 01 e5        	c.bnez	a0, 0x17c02 <encode_mcu_DC_first+0x10e>
   17bfc: 6e 85        	c.mv	a0, s11
   17bfe: ef 00 70 17  	jal	ra, 0x18574 <dump_buffer>
   17c02: 33 f5 94 01  	and	a0, s1, s9
   17c06: 63 13 95 03  	bne	a0, s9, 0x17c2c <encode_mcu_DC_first+0x138>
   17c0a: 03 b5 0d 02  	ld	a0, 0x20(s11)
   17c0e: 93 05 15 00  	addi	a1, a0, 0x1
   17c12: 23 b0 bd 02  	sd	a1, 0x20(s11)
   17c16: 23 00 05 00  	sb	zero, 0x0(a0)
   17c1a: 03 b5 8d 02  	ld	a0, 0x28(s11)
   17c1e: 7d 15        	c.addi	a0, -0x1
   17c20: 23 b4 ad 02  	sd	a0, 0x28(s11)
   17c24: 01 e5        	c.bnez	a0, 0x17c2c <encode_mcu_DC_first+0x138>
   17c26: 6e 85        	c.mv	a0, s11
   17c28: ef 00 d0 14  	jal	ra, 0x18574 <dump_buffer>
   17c2c: 61 34        	c.addiw	s0, -0x8
   17c2e: a2 04        	c.slli	s1, 0x8
   17c30: e3 46 8d fa  	blt	s10, s0, 0x17bdc <encode_mcu_DC_first+0xe8>
   17c34: 93 05 84 ff  	addi	a1, s0, -0x8
   17c38: 23 b8 9d 02  	sd	s1, 0x30(s11)
   17c3c: 23 ac bd 02  	sw	a1, 0x38(s11)
   17c40: 03 a5 89 16  	lw	a0, 0x168(s3)
   17c44: 85 0a        	c.addi	s5, 0x1
   17c46: e3 ca aa ee  	blt	s5, a0, 0x17b3a <encode_mcu_DC_first+0x46>
   17c4a: 83 b5 0d 02  	ld	a1, 0x20(s11)
   17c4e: 03 b6 09 02  	ld	a2, 0x20(s3)
   17c52: 83 b6 8d 02  	ld	a3, 0x28(s11)
   17c56: 03 a5 09 11  	lw	a0, 0x110(s3)
   17c5a: 0c e2        	c.sd	a1, 0x0(a2)
   17c5c: 14 e6        	c.sd	a3, 0x8(a2)
   17c5e: 11 cd        	c.beqz	a0, 0x17c7a <encode_mcu_DC_first+0x186>
   17c60: 83 a5 0d 07  	lw	a1, 0x70(s11)
   17c64: 81 e9        	c.bnez	a1, 0x17c74 <encode_mcu_DC_first+0x180>
   17c66: 83 a5 4d 07  	lw	a1, 0x74(s11)
   17c6a: 85 05        	c.addi	a1, 0x1
   17c6c: 9d 89        	c.andi	a1, 0x7
   17c6e: 23 aa bd 06  	sw	a1, 0x74(s11)
   17c72: aa 85        	c.mv	a1, a0
   17c74: fd 15        	c.addi	a1, -0x1
   17c76: 23 a8 bd 06  	sw	a1, 0x70(s11)
   17c7a: 05 45        	c.li	a0, 0x1
   17c7c: 6f 60 01 1e  	jal	zero, 0x2de5c <__riscv_restore_12>

0000000000017c80 <encode_mcu_AC_first>:
   17c80: ef 62 21 19  	jal	t0, 0x2de12 <__riscv_save_12>
   17c84: 01 11        	c.addi	sp, -0x20
   17c86: aa 84        	c.mv	s1, a0
   17c88: 08 71        	c.ld	a0, 0x20(a0)
   17c8a: 83 ba 84 1e  	ld	s5, 0x1e8(s1)
   17c8e: 03 a4 84 19  	lw	s0, 0x198(s1)
   17c92: 10 61        	c.ld	a2, 0x0(a0)
   17c94: 08 65        	c.ld	a0, 0x8(a0)
   17c96: 83 a6 04 11  	lw	a3, 0x110(s1)
   17c9a: 03 a7 04 1a  	lw	a4, 0x1a0(s1)
   17c9e: 3a ec        	c.sdsp	a4, 0x18(sp)
   17ca0: 2e 89        	c.mv	s2, a1
   17ca2: 23 b0 ca 02  	sd	a2, 0x20(s5)
   17ca6: 23 b4 aa 02  	sd	a0, 0x28(s5)
   17caa: 89 ca        	c.beqz	a3, 0x17cbc <encode_mcu_AC_first+0x3c>
   17cac: 03 a5 0a 07  	lw	a0, 0x70(s5)
   17cb0: 11 e5        	c.bnez	a0, 0x17cbc <encode_mcu_AC_first+0x3c>
   17cb2: 83 a5 4a 07  	lw	a1, 0x74(s5)
   17cb6: 56 85        	c.mv	a0, s5
   17cb8: ef 00 60 61  	jal	ra, 0x182ce <emit_restart>
   17cbc: 03 aa 44 19  	lw	s4, 0x194(s1)
   17cc0: 63 41 44 19  	blt	s0, s4, 0x17e42 <encode_mcu_AC_first+0x1c2>
   17cc4: 26 e4        	c.sdsp	s1, 0x8(sp)
   17cc6: 81 4b        	c.li	s7, 0x0
   17cc8: 03 39 09 00  	ld	s2, 0x0(s2)
   17ccc: 1b 0b 14 00  	addiw	s6, s0, 0x1
   17cd0: 37 05 03 00  	lui	a0, 0x30
   17cd4: 13 0d 05 2d  	addi	s10, a0, 0x2d0
   17cd8: 7d 4c        	c.li	s8, 0x1f
   17cda: b7 0c ff 00  	lui	s9, 0xff0
   17cde: 8d 4d        	c.li	s11, 0x3
   17ce0: 6a e8        	c.sdsp	s10, 0x10(sp)
   17ce2: 13 15 2a 00  	slli	a0, s4, 0x2
   17ce6: 6a 95        	c.add	a0, s10
   17ce8: 08 41        	c.lw	a0, 0x0(a0)
   17cea: 06 05        	c.slli	a0, 0x1
   17cec: 4a 95        	c.add	a0, s2
   17cee: 03 15 05 00  	lh	a0, 0x0(a0)
   17cf2: 49 c1        	c.beqz	a0, 0x17d74 <encode_mcu_AC_first+0xf4>
   17cf4: 63 48 05 06  	blt	a0, zero, 0x17d64 <encode_mcu_AC_first+0xe4>
   17cf8: e2 65        	c.ldsp	a1, 0x18(sp)
   17cfa: bb 59 b5 00  	srlw	s3, a0, a1
   17cfe: ce 84        	c.mv	s1, s3
   17d00: 63 8a 09 06  	beq	s3, zero, 0x17d74 <encode_mcu_AC_first+0xf4>
   17d04: 5a 8d        	c.mv	s10, s6
   17d06: 03 a5 ca 05  	lw	a0, 0x5c(s5)
   17d0a: 01 c5        	c.beqz	a0, 0x17d12 <encode_mcu_AC_first+0x92>
   17d0c: 56 85        	c.mv	a0, s5
   17d0e: ef 00 60 71  	jal	ra, 0x18424 <emit_eobrun>
   17d12: 4a 8b        	c.mv	s6, s2
   17d14: 41 45        	c.li	a0, 0x10
   17d16: 63 cd ab 00  	blt	s7, a0, 0x17d30 <encode_mcu_AC_first+0xb0>
   17d1a: 83 a5 8a 05  	lw	a1, 0x58(s5)
   17d1e: 5e 84        	c.mv	s0, s7
   17d20: 13 06 00 0f  	addi	a2, zero, 0xf0
   17d24: 56 85        	c.mv	a0, s5
   17d26: ef 00 00 63  	jal	ra, 0x18356 <emit_symbol>
   17d2a: c1 3b        	c.addiw	s7, -0x10
   17d2c: e3 67 8c fe  	bltu	s8, s0, 0x17d1a <encode_mcu_AC_first+0x9a>
   17d30: 05 49        	c.li	s2, 0x1
   17d32: 63 89 24 01  	beq	s1, s2, 0x17d44 <encode_mcu_AC_first+0xc4>
   17d36: 05 49        	c.li	s2, 0x1
   17d38: 26 85        	c.mv	a0, s1
   17d3a: 9b d4 14 00  	srliw	s1, s1, 0x1
   17d3e: 05 09        	c.addi	s2, 0x1
   17d40: e3 ec ad fe  	bltu	s11, a0, 0x17d38 <encode_mcu_AC_first+0xb8>
   17d44: 83 a5 8a 05  	lw	a1, 0x58(s5)
   17d48: 92 0b        	c.slli	s7, 0x4
   17d4a: 3b 06 79 01  	addw	a2, s2, s7
   17d4e: 56 85        	c.mv	a0, s5
   17d50: ef 00 60 60  	jal	ra, 0x18356 <emit_symbol>
   17d54: 03 a5 8a 01  	lw	a0, 0x18(s5)
   17d58: 0d c5        	c.beqz	a0, 0x17d82 <encode_mcu_AC_first+0x102>
   17d5a: 81 4b        	c.li	s7, 0x0
   17d5c: 5a 89        	c.mv	s2, s6
   17d5e: 6a 8b        	c.mv	s6, s10
   17d60: 42 6d        	c.ldsp	s10, 0x10(sp)
   17d62: 11 a8        	c.j	0x17d76 <encode_mcu_AC_first+0xf6>
   17d64: 3b 05 a0 40  	subw	a0, zero, a0
   17d68: e2 65        	c.ldsp	a1, 0x18(sp)
   17d6a: bb 54 b5 00  	srlw	s1, a0, a1
   17d6e: 93 c9 f4 ff  	xori	s3, s1, -0x1
   17d72: c9 f8        	c.bnez	s1, 0x17d04 <encode_mcu_AC_first+0x84>
   17d74: 85 2b        	c.addiw	s7, 0x1
   17d76: 1b 05 1a 00  	addiw	a0, s4, 0x1
   17d7a: 05 0a        	c.addi	s4, 0x1
   17d7c: e3 13 ab f6  	bne	s6, a0, 0x17ce2 <encode_mcu_AC_first+0x62>
   17d80: 55 a0        	c.j	0x17e24 <encode_mcu_AC_first+0x1a4>
   17d82: 03 a5 8a 03  	lw	a0, 0x38(s5)
   17d86: fd 55        	c.li	a1, -0x1
   17d88: b3 95 25 01  	sll	a1, a1, s2
   17d8c: 93 c5 f5 ff  	xori	a1, a1, -0x1
   17d90: b3 f5 b9 00  	and	a1, s3, a1
   17d94: 82 15        	c.slli	a1, 0x20
   17d96: 81 91        	c.srli	a1, 0x20
   17d98: 03 b6 0a 03  	ld	a2, 0x30(s5)
   17d9c: 3b 05 25 01  	addw	a0, a0, s2
   17da0: e1 46        	c.li	a3, 0x18
   17da2: 89 9e        	c.subw	a3, a0
   17da4: b3 94 d5 00  	sll	s1, a1, a3
   17da8: d1 8c        	c.or	s1, a2
   17daa: 5a 89        	c.mv	s2, s6
   17dac: 6a 8b        	c.mv	s6, s10
   17dae: a1 45        	c.li	a1, 0x8
   17db0: 63 43 b5 06  	blt	a0, a1, 0x17e16 <encode_mcu_AC_first+0x196>
   17db4: 42 6d        	c.ldsp	s10, 0x10(sp)
   17db6: bd 49        	c.li	s3, 0xf
   17db8: 83 b5 0a 02  	ld	a1, 0x20(s5)
   17dbc: 13 d6 04 01  	srli	a2, s1, 0x10
   17dc0: 93 86 15 00  	addi	a3, a1, 0x1
   17dc4: 23 b0 da 02  	sd	a3, 0x20(s5)
   17dc8: 23 80 c5 00  	sb	a2, 0x0(a1)
   17dcc: 83 b5 8a 02  	ld	a1, 0x28(s5)
   17dd0: 2a 84        	c.mv	s0, a0
   17dd2: fd 15        	c.addi	a1, -0x1
   17dd4: 23 b4 ba 02  	sd	a1, 0x28(s5)
   17dd8: 81 e5        	c.bnez	a1, 0x17de0 <encode_mcu_AC_first+0x160>
   17dda: 56 85        	c.mv	a0, s5
   17ddc: ef 00 80 79  	jal	ra, 0x18574 <dump_buffer>
   17de0: 33 f5 94 01  	and	a0, s1, s9
   17de4: 63 13 95 03  	bne	a0, s9, 0x17e0a <encode_mcu_AC_first+0x18a>
   17de8: 03 b5 0a 02  	ld	a0, 0x20(s5)
   17dec: 93 05 15 00  	addi	a1, a0, 0x1
   17df0: 23 b0 ba 02  	sd	a1, 0x20(s5)
   17df4: 23 00 05 00  	sb	zero, 0x0(a0)
   17df8: 03 b5 8a 02  	ld	a0, 0x28(s5)
   17dfc: 7d 15        	c.addi	a0, -0x1
   17dfe: 23 b4 aa 02  	sd	a0, 0x28(s5)
   17e02: 01 e5        	c.bnez	a0, 0x17e0a <encode_mcu_AC_first+0x18a>
   17e04: 56 85        	c.mv	a0, s5
   17e06: ef 00 e0 76  	jal	ra, 0x18574 <dump_buffer>
   17e0a: a2 04        	c.slli	s1, 0x8
   17e0c: 1b 05 84 ff  	addiw	a0, s0, -0x8
   17e10: e3 c4 89 fa  	blt	s3, s0, 0x17db8 <encode_mcu_AC_first+0x138>
   17e14: 11 a0        	c.j	0x17e18 <encode_mcu_AC_first+0x198>
   17e16: 42 6d        	c.ldsp	s10, 0x10(sp)
   17e18: 81 4b        	c.li	s7, 0x0
   17e1a: 23 b8 9a 02  	sd	s1, 0x30(s5)
   17e1e: 23 ac aa 02  	sw	a0, 0x38(s5)
   17e22: 91 bf        	c.j	0x17d76 <encode_mcu_AC_first+0xf6>
   17e24: a2 64        	c.ldsp	s1, 0x8(sp)
   17e26: 63 5e 70 01  	bge	zero, s7, 0x17e42 <encode_mcu_AC_first+0x1c2>
   17e2a: 03 a5 ca 05  	lw	a0, 0x5c(s5)
   17e2e: 05 25        	c.addiw	a0, 0x1
   17e30: a1 65        	c.lui	a1, 0x8
   17e32: fd 35        	c.addiw	a1, -0x1
   17e34: 23 ae aa 04  	sw	a0, 0x5c(s5)
   17e38: 63 15 b5 00  	bne	a0, a1, 0x17e42 <encode_mcu_AC_first+0x1c2>
   17e3c: 56 85        	c.mv	a0, s5
   17e3e: ef 00 60 5e  	jal	ra, 0x18424 <emit_eobrun>
   17e42: 83 b5 0a 02  	ld	a1, 0x20(s5)
   17e46: 90 70        	c.ld	a2, 0x20(s1)
   17e48: 83 b6 8a 02  	ld	a3, 0x28(s5)
   17e4c: 03 a5 04 11  	lw	a0, 0x110(s1)
   17e50: 0c e2        	c.sd	a1, 0x0(a2)
   17e52: 14 e6        	c.sd	a3, 0x8(a2)
   17e54: 11 cd        	c.beqz	a0, 0x17e70 <encode_mcu_AC_first+0x1f0>
   17e56: 83 a5 0a 07  	lw	a1, 0x70(s5)
   17e5a: 81 e9        	c.bnez	a1, 0x17e6a <encode_mcu_AC_first+0x1ea>
   17e5c: 83 a5 4a 07  	lw	a1, 0x74(s5)
   17e60: 85 05        	c.addi	a1, 0x1
   17e62: 9d 89        	c.andi	a1, 0x7
   17e64: 23 aa ba 06  	sw	a1, 0x74(s5)
   17e68: aa 85        	c.mv	a1, a0
   17e6a: fd 15        	c.addi	a1, -0x1
   17e6c: 23 a8 ba 06  	sw	a1, 0x70(s5)
   17e70: 05 45        	c.li	a0, 0x1
   17e72: 05 61        	c.addi16sp	sp, 0x20
   17e74: 6f 50 91 7e  	jal	zero, 0x2de5c <__riscv_restore_12>

0000000000017e78 <encode_mcu_DC_refine>:
   17e78: ef 52 31 7a  	jal	t0, 0x2de1a <__riscv_save_11>
   17e7c: 2a 8a        	c.mv	s4, a0
   17e7e: 08 71        	c.ld	a0, 0x20(a0)
   17e80: 03 3d 8a 1e  	ld	s10, 0x1e8(s4)
   17e84: 10 61        	c.ld	a2, 0x0(a0)
   17e86: 08 65        	c.ld	a0, 0x8(a0)
   17e88: 83 26 0a 11  	lw	a3, 0x110(s4)
   17e8c: 83 29 0a 1a  	lw	s3, 0x1a0(s4)
   17e90: 2e 89        	c.mv	s2, a1
   17e92: 23 30 cd 02  	sd	a2, 0x20(s10)
   17e96: 23 34 ad 02  	sd	a0, 0x28(s10)
   17e9a: 89 ca        	c.beqz	a3, 0x17eac <encode_mcu_DC_refine+0x34>
   17e9c: 03 25 0d 07  	lw	a0, 0x70(s10)
   17ea0: 11 e5        	c.bnez	a0, 0x17eac <encode_mcu_DC_refine+0x34>
   17ea2: 83 25 4d 07  	lw	a1, 0x74(s10)
   17ea6: 6a 85        	c.mv	a0, s10
   17ea8: ef 00 60 42  	jal	ra, 0x182ce <emit_restart>
   17eac: 03 25 8a 16  	lw	a0, 0x168(s4)
   17eb0: 63 58 a0 0a  	bge	zero, a0, 0x17f60 <encode_mcu_DC_refine+0xe8>
   17eb4: 81 4c        	c.li	s9, 0x0
   17eb6: dd 4a        	c.li	s5, 0x17
   17eb8: 1d 4b        	c.li	s6, 0x7
   17eba: b7 0b ff 00  	lui	s7, 0xff0
   17ebe: 3d 4c        	c.li	s8, 0xf
   17ec0: 83 25 8d 01  	lw	a1, 0x18(s10)
   17ec4: d9 e9        	c.bnez	a1, 0x17f5a <encode_mcu_DC_refine+0xe2>
   17ec6: 93 95 3c 00  	slli	a1, s9, 0x3
   17eca: ca 95        	c.add	a1, s2
   17ecc: 8c 61        	c.ld	a1, 0x0(a1)
   17ece: 83 95 05 00  	lh	a1, 0x0(a1)
   17ed2: 03 24 8d 03  	lw	s0, 0x38(s10)
   17ed6: bb d5 35 01  	srlw	a1, a1, s3
   17eda: 03 36 0d 03  	ld	a2, 0x30(s10)
   17ede: 85 89        	c.andi	a1, 0x1
   17ee0: bb 86 8a 40  	subw	a3, s5, s0
   17ee4: b3 94 d5 00  	sll	s1, a1, a3
   17ee8: d1 8c        	c.or	s1, a2
   17eea: 63 43 64 07  	blt	s0, s6, 0x17f50 <encode_mcu_DC_refine+0xd8>
   17eee: 25 04        	c.addi	s0, 0x9
   17ef0: 03 35 0d 02  	ld	a0, 0x20(s10)
   17ef4: 93 d5 04 01  	srli	a1, s1, 0x10
   17ef8: 13 06 15 00  	addi	a2, a0, 0x1
   17efc: 23 30 cd 02  	sd	a2, 0x20(s10)
   17f00: 23 00 b5 00  	sb	a1, 0x0(a0)
   17f04: 03 35 8d 02  	ld	a0, 0x28(s10)
   17f08: 7d 15        	c.addi	a0, -0x1
   17f0a: 23 34 ad 02  	sd	a0, 0x28(s10)
   17f0e: 01 e5        	c.bnez	a0, 0x17f16 <encode_mcu_DC_refine+0x9e>
   17f10: 6a 85        	c.mv	a0, s10
   17f12: ef 00 20 66  	jal	ra, 0x18574 <dump_buffer>
   17f16: 33 f5 74 01  	and	a0, s1, s7
   17f1a: 63 13 75 03  	bne	a0, s7, 0x17f40 <encode_mcu_DC_refine+0xc8>
   17f1e: 03 35 0d 02  	ld	a0, 0x20(s10)
   17f22: 93 05 15 00  	addi	a1, a0, 0x1
   17f26: 23 30 bd 02  	sd	a1, 0x20(s10)
   17f2a: 23 00 05 00  	sb	zero, 0x0(a0)
   17f2e: 03 35 8d 02  	ld	a0, 0x28(s10)
   17f32: 7d 15        	c.addi	a0, -0x1
   17f34: 23 34 ad 02  	sd	a0, 0x28(s10)
   17f38: 01 e5        	c.bnez	a0, 0x17f40 <encode_mcu_DC_refine+0xc8>
   17f3a: 6a 85        	c.mv	a0, s10
   17f3c: ef 00 80 63  	jal	ra, 0x18574 <dump_buffer>
   17f40: 61 34        	c.addiw	s0, -0x8
   17f42: a2 04        	c.slli	s1, 0x8
   17f44: e3 46 8c fa  	blt	s8, s0, 0x17ef0 <encode_mcu_DC_refine+0x78>
   17f48: 03 25 8a 16  	lw	a0, 0x168(s4)
   17f4c: 61 14        	c.addi	s0, -0x8
   17f4e: 11 a0        	c.j	0x17f52 <encode_mcu_DC_refine+0xda>
   17f50: 05 04        	c.addi	s0, 0x1
   17f52: 23 38 9d 02  	sd	s1, 0x30(s10)
   17f56: 23 2c 8d 02  	sw	s0, 0x38(s10)
   17f5a: 85 0c        	c.addi	s9, 0x1
   17f5c: e3 c2 ac f6  	blt	s9, a0, 0x17ec0 <encode_mcu_DC_refine+0x48>
   17f60: 83 35 0d 02  	ld	a1, 0x20(s10)
   17f64: 03 36 0a 02  	ld	a2, 0x20(s4)
   17f68: 83 36 8d 02  	ld	a3, 0x28(s10)
   17f6c: 03 25 0a 11  	lw	a0, 0x110(s4)
   17f70: 0c e2        	c.sd	a1, 0x0(a2)
   17f72: 14 e6        	c.sd	a3, 0x8(a2)
   17f74: 11 cd        	c.beqz	a0, 0x17f90 <encode_mcu_DC_refine+0x118>
   17f76: 83 25 0d 07  	lw	a1, 0x70(s10)
   17f7a: 81 e9        	c.bnez	a1, 0x17f8a <encode_mcu_DC_refine+0x112>
   17f7c: 83 25 4d 07  	lw	a1, 0x74(s10)
   17f80: 85 05        	c.addi	a1, 0x1
   17f82: 9d 89        	c.andi	a1, 0x7
   17f84: 23 2a bd 06  	sw	a1, 0x74(s10)
   17f88: aa 85        	c.mv	a1, a0
   17f8a: fd 15        	c.addi	a1, -0x1
   17f8c: 23 28 bd 06  	sw	a1, 0x70(s10)
   17f90: 05 45        	c.li	a0, 0x1
   17f92: 6f 50 f1 6c  	jal	zero, 0x2de60 <__riscv_restore_11>

0000000000017f96 <encode_mcu_AC_refine>:
   17f96: ef 52 d1 67  	jal	t0, 0x2de12 <__riscv_save_12>
   17f9a: 2d 71        	c.addi16sp	sp, -0x120
   17f9c: 2a 8b        	c.mv	s6, a0
   17f9e: 08 71        	c.ld	a0, 0x20(a0)
   17fa0: 83 39 8b 1e  	ld	s3, 0x1e8(s6)
   17fa4: 03 2a 8b 19  	lw	s4, 0x198(s6)
   17fa8: 10 61        	c.ld	a2, 0x0(a0)
   17faa: 08 65        	c.ld	a0, 0x8(a0)
   17fac: 83 26 0b 11  	lw	a3, 0x110(s6)
   17fb0: 83 2c 0b 1a  	lw	s9, 0x1a0(s6)
   17fb4: 2e 89        	c.mv	s2, a1
   17fb6: 23 b0 c9 02  	sd	a2, 0x20(s3)
   17fba: 23 b4 a9 02  	sd	a0, 0x28(s3)
   17fbe: 89 ca        	c.beqz	a3, 0x17fd0 <encode_mcu_AC_refine+0x3a>
   17fc0: 03 a5 09 07  	lw	a0, 0x70(s3)
   17fc4: 11 e5        	c.bnez	a0, 0x17fd0 <encode_mcu_AC_refine+0x3a>
   17fc6: 83 a5 49 07  	lw	a1, 0x74(s3)
   17fca: 4e 85        	c.mv	a0, s3
   17fcc: ef 00 20 30  	jal	ra, 0x182ce <emit_restart>
   17fd0: 83 2a 4b 19  	lw	s5, 0x194(s6)
   17fd4: 63 4a 5a 05  	blt	s4, s5, 0x18028 <encode_mcu_AC_refine+0x92>
   17fd8: 01 47        	c.li	a4, 0x0
   17fda: 03 34 09 00  	ld	s0, 0x0(s2)
   17fde: 9b 0b 1a 00  	addiw	s7, s4, 0x1
   17fe2: 93 95 2a 00  	slli	a1, s5, 0x2
   17fe6: 37 05 03 00  	lui	a0, 0x30
   17fea: 13 05 05 2d  	addi	a0, a0, 0x2d0
   17fee: 2e 95        	c.add	a0, a1
   17ff0: 10 10        	c.addi4spn	a2, sp, 0x20
   17ff2: b2 95        	c.add	a1, a2
   17ff4: 05 46        	c.li	a2, 0x1
   17ff6: d6 86        	c.mv	a3, s5
   17ff8: 1c 41        	c.lw	a5, 0x0(a0)
   17ffa: 86 07        	c.slli	a5, 0x1
   17ffc: a2 97        	c.add	a5, s0
   17ffe: 83 97 07 00  	lh	a5, 0x0(a5)
   18002: 93 d4 f7 43  	srai	s1, a5, 0x3f
   18006: a5 8f        	c.xor	a5, s1
   18008: 85 9f        	c.subw	a5, s1
   1800a: bb d7 97 01  	srlw	a5, a5, s9
   1800e: 9c c1        	c.sw	a5, 0x0(a1)
   18010: 36 8c        	c.mv	s8, a3
   18012: 63 83 c7 00  	beq	a5, a2, 0x18018 <encode_mcu_AC_refine+0x82>
   18016: 3a 8c        	c.mv	s8, a4
   18018: 11 05        	c.addi	a0, 0x4
   1801a: 85 26        	c.addiw	a3, 0x1
   1801c: 91 05        	c.addi	a1, 0x4
   1801e: 62 87        	c.mv	a4, s8
   18020: e3 9c db fc  	bne	s7, a3, 0x17ff8 <encode_mcu_AC_refine+0x62>
   18024: 63 57 5a 01  	bge	s4, s5, 0x18032 <encode_mcu_AC_refine+0x9c>
   18028: 01 44        	c.li	s0, 0x0
   1802a: 01 45        	c.li	a0, 0x0
   1802c: 63 09 00 16  	beq	zero, zero, 0x1819e <encode_mcu_AC_refine+0x208>
   18030: 85 aa        	c.j	0x181a0 <encode_mcu_AC_refine+0x20a>
   18032: 22 ec        	c.sdsp	s0, 0x18(sp)
   18034: 5a e4        	c.sdsp	s6, 0x8(sp)
   18036: 03 ba 89 06  	ld	s4, 0x68(s3)
   1803a: 03 e5 09 06  	lwu	a0, 0x60(s3)
   1803e: 01 4d        	c.li	s10, 0x0
   18040: 01 44        	c.li	s0, 0x0
   18042: 2a 9a        	c.add	s4, a0
   18044: fd 4d        	c.li	s11, 0x1f
   18046: 37 05 03 00  	lui	a0, 0x30
   1804a: 13 05 05 2d  	addi	a0, a0, 0x2d0
   1804e: 2a e8        	c.sdsp	a0, 0x10(sp)
   18050: 93 9c 2a 00  	slli	s9, s5, 0x2
   18054: 08 10        	c.addi4spn	a0, sp, 0x20
   18056: 66 95        	c.add	a0, s9
   18058: 03 2b 05 00  	lw	s6, 0x0(a0)
   1805c: 63 00 0b 04  	beq	s6, zero, 0x1809c <encode_mcu_AC_refine+0x106>
   18060: 41 45        	c.li	a0, 0x10
   18062: 63 4f ad 02  	blt	s10, a0, 0x180a0 <encode_mcu_AC_refine+0x10a>
   18066: a2 84        	c.mv	s1, s0
   18068: 63 4d 5c 03  	blt	s8, s5, 0x180a2 <encode_mcu_AC_refine+0x10c>
   1806c: 6a 89        	c.mv	s2, s10
   1806e: 4e 85        	c.mv	a0, s3
   18070: ef 00 40 3b  	jal	ra, 0x18424 <emit_eobrun>
   18074: 83 a5 89 05  	lw	a1, 0x58(s3)
   18078: 13 06 00 0f  	addi	a2, zero, 0xf0
   1807c: 4e 85        	c.mv	a0, s3
   1807e: ef 00 80 2d  	jal	ra, 0x18356 <emit_symbol>
   18082: 41 3d        	c.addiw	s10, -0x10
   18084: 4e 85        	c.mv	a0, s3
   18086: d2 85        	c.mv	a1, s4
   18088: 22 86        	c.mv	a2, s0
   1808a: ef 00 20 51  	jal	ra, 0x1859c <emit_buffered_bits>
   1808e: 03 ba 89 06  	ld	s4, 0x68(s3)
   18092: 01 44        	c.li	s0, 0x0
   18094: 81 44        	c.li	s1, 0x0
   18096: e3 eb 2d fd  	bltu	s11, s2, 0x1806c <encode_mcu_AC_refine+0xd6>
   1809a: 21 a0        	c.j	0x180a2 <encode_mcu_AC_refine+0x10c>
   1809c: 05 2d        	c.addiw	s10, 0x1
   1809e: fd a0        	c.j	0x1818c <encode_mcu_AC_refine+0x1f6>
   180a0: a2 84        	c.mv	s1, s0
   180a2: 09 45        	c.li	a0, 0x2
   180a4: 63 4c ab 00  	blt	s6, a0, 0x180bc <encode_mcu_AC_refine+0x126>
   180a8: 13 75 1b 00  	andi	a0, s6, 0x1
   180ac: 1b 84 14 00  	addiw	s0, s1, 0x1
   180b0: 82 14        	c.slli	s1, 0x20
   180b2: 81 90        	c.srli	s1, 0x20
   180b4: d2 94        	c.add	s1, s4
   180b6: 23 80 a4 00  	sb	a0, 0x0(s1)
   180ba: c9 a8        	c.j	0x1818c <encode_mcu_AC_refine+0x1f6>
   180bc: 4e 85        	c.mv	a0, s3
   180be: ef 00 60 36  	jal	ra, 0x18424 <emit_eobrun>
   180c2: 83 a5 89 05  	lw	a1, 0x58(s3)
   180c6: 1b 16 4d 00  	slliw	a2, s10, 0x4
   180ca: 05 06        	c.addi	a2, 0x1
   180cc: 4e 85        	c.mv	a0, s3
   180ce: ef 00 80 28  	jal	ra, 0x18356 <emit_symbol>
   180d2: 03 a5 89 01  	lw	a0, 0x18(s3)
   180d6: 55 e1        	c.bnez	a0, 0x1817a <encode_mcu_AC_refine+0x1e4>
   180d8: 42 65        	c.ldsp	a0, 0x10(sp)
   180da: aa 9c        	c.add	s9, a0
   180dc: 03 a5 0c 00  	lw	a0, 0x0(s9)
   180e0: 06 05        	c.slli	a0, 0x1
   180e2: e2 65        	c.ldsp	a1, 0x18(sp)
   180e4: 2e 95        	c.add	a0, a1
   180e6: 03 15 05 00  	lh	a0, 0x0(a0)
   180ea: 03 a4 89 03  	lw	s0, 0x38(s3)
   180ee: 13 25 05 00  	slti	a0, a0, 0x0
   180f2: 83 b5 09 03  	ld	a1, 0x30(s3)
   180f6: 13 45 15 00  	xori	a0, a0, 0x1
   180fa: 5d 46        	c.li	a2, 0x17
   180fc: 01 9e        	c.subw	a2, s0
   180fe: 33 15 c5 00  	sll	a0, a0, a2
   18102: 33 69 b5 00  	or	s2, a0, a1
   18106: 1d 45        	c.li	a0, 0x7
   18108: 63 44 a4 06  	blt	s0, a0, 0x18170 <encode_mcu_AC_refine+0x1da>
   1810c: 25 04        	c.addi	s0, 0x9
   1810e: 37 0b ff 00  	lui	s6, 0xff0
   18112: bd 4c        	c.li	s9, 0xf
   18114: 03 b5 09 02  	ld	a0, 0x20(s3)
   18118: 93 55 09 01  	srli	a1, s2, 0x10
   1811c: 13 06 15 00  	addi	a2, a0, 0x1
   18120: 23 b0 c9 02  	sd	a2, 0x20(s3)
   18124: 23 00 b5 00  	sb	a1, 0x0(a0)
   18128: 03 b5 89 02  	ld	a0, 0x28(s3)
   1812c: 7d 15        	c.addi	a0, -0x1
   1812e: 23 b4 a9 02  	sd	a0, 0x28(s3)
   18132: 01 e5        	c.bnez	a0, 0x1813a <encode_mcu_AC_refine+0x1a4>
   18134: 4e 85        	c.mv	a0, s3
   18136: ef 00 e0 43  	jal	ra, 0x18574 <dump_buffer>
   1813a: 33 75 69 01  	and	a0, s2, s6
   1813e: 63 13 65 03  	bne	a0, s6, 0x18164 <encode_mcu_AC_refine+0x1ce>
   18142: 03 b5 09 02  	ld	a0, 0x20(s3)
   18146: 93 05 15 00  	addi	a1, a0, 0x1
   1814a: 23 b0 b9 02  	sd	a1, 0x20(s3)
   1814e: 23 00 05 00  	sb	zero, 0x0(a0)
   18152: 03 b5 89 02  	ld	a0, 0x28(s3)
   18156: 7d 15        	c.addi	a0, -0x1
   18158: 23 b4 a9 02  	sd	a0, 0x28(s3)
   1815c: 01 e5        	c.bnez	a0, 0x18164 <encode_mcu_AC_refine+0x1ce>
   1815e: 4e 85        	c.mv	a0, s3
   18160: ef 00 40 41  	jal	ra, 0x18574 <dump_buffer>
   18164: 61 34        	c.addiw	s0, -0x8
   18166: 22 09        	c.slli	s2, 0x8
   18168: e3 c6 8c fa  	blt	s9, s0, 0x18114 <encode_mcu_AC_refine+0x17e>
   1816c: 61 14        	c.addi	s0, -0x8
   1816e: 11 a0        	c.j	0x18172 <encode_mcu_AC_refine+0x1dc>
   18170: 05 04        	c.addi	s0, 0x1
   18172: 23 b8 29 03  	sd	s2, 0x30(s3)
   18176: 23 ac 89 02  	sw	s0, 0x38(s3)
   1817a: 4e 85        	c.mv	a0, s3
   1817c: d2 85        	c.mv	a1, s4
   1817e: 26 86        	c.mv	a2, s1
   18180: ef 00 c0 41  	jal	ra, 0x1859c <emit_buffered_bits>
   18184: 03 ba 89 06  	ld	s4, 0x68(s3)
   18188: 01 44        	c.li	s0, 0x0
   1818a: 01 4d        	c.li	s10, 0x0
   1818c: 1b 85 1a 00  	addiw	a0, s5, 0x1
   18190: 85 0a        	c.addi	s5, 0x1
   18192: e3 9f ab ea  	bne	s7, a0, 0x18050 <encode_mcu_AC_refine+0xba>
   18196: 33 25 a0 01  	slt	a0, zero, s10
   1819a: 22 6b        	c.ldsp	s6, 0x8(sp)
   1819c: 11 e1        	c.bnez	a0, 0x181a0 <encode_mcu_AC_refine+0x20a>
   1819e: 05 c8        	c.beqz	s0, 0x181ce <encode_mcu_AC_refine+0x238>
   181a0: 03 a5 c9 05  	lw	a0, 0x5c(s3)
   181a4: 83 a5 09 06  	lw	a1, 0x60(s3)
   181a8: 1b 06 15 00  	addiw	a2, a0, 0x1
   181ac: 23 ae c9 04  	sw	a2, 0x5c(s3)
   181b0: 3b 85 85 00  	addw	a0, a1, s0
   181b4: a1 65        	c.lui	a1, 0x8
   181b6: fd 35        	c.addiw	a1, -0x1
   181b8: 23 a0 a9 06  	sw	a0, 0x60(s3)
   181bc: 63 06 b6 00  	beq	a2, a1, 0x181c8 <encode_mcu_AC_refine+0x232>
   181c0: 93 05 a0 3a  	addi	a1, zero, 0x3aa
   181c4: 63 65 b5 00  	bltu	a0, a1, 0x181ce <encode_mcu_AC_refine+0x238>
   181c8: 4e 85        	c.mv	a0, s3
   181ca: ef 00 a0 25  	jal	ra, 0x18424 <emit_eobrun>
   181ce: 83 b5 09 02  	ld	a1, 0x20(s3)
   181d2: 03 36 0b 02  	ld	a2, 0x20(s6)
   181d6: 83 b6 89 02  	ld	a3, 0x28(s3)
   181da: 03 25 0b 11  	lw	a0, 0x110(s6)
   181de: 0c e2        	c.sd	a1, 0x0(a2)
   181e0: 14 e6        	c.sd	a3, 0x8(a2)
   181e2: 11 cd        	c.beqz	a0, 0x181fe <encode_mcu_AC_refine+0x268>
   181e4: 83 a5 09 07  	lw	a1, 0x70(s3)
   181e8: 81 e9        	c.bnez	a1, 0x181f8 <encode_mcu_AC_refine+0x262>
   181ea: 83 a5 49 07  	lw	a1, 0x74(s3)
   181ee: 85 05        	c.addi	a1, 0x1
   181f0: 9d 89        	c.andi	a1, 0x7
   181f2: 23 aa b9 06  	sw	a1, 0x74(s3)
   181f6: aa 85        	c.mv	a1, a0
   181f8: fd 15        	c.addi	a1, -0x1
   181fa: 23 a8 b9 06  	sw	a1, 0x70(s3)
   181fe: 05 45        	c.li	a0, 0x1
   18200: 15 61        	c.addi16sp	sp, 0x120
   18202: 6f 50 b1 45  	jal	zero, 0x2de5c <__riscv_restore_12>

0000000000018206 <finish_pass_gather_phuff>:
   18206: ef 52 51 41  	jal	t0, 0x2de1a <__riscv_save_11>
   1820a: 41 11        	c.addi	sp, -0x10
   1820c: 2a 8a        	c.mv	s4, a0
   1820e: 03 39 85 1e  	ld	s2, 0x1e8(a0)
   18212: 4a 85        	c.mv	a0, s2
   18214: ef 00 00 21  	jal	ra, 0x18424 <emit_eobrun>
   18218: 03 25 ca 13  	lw	a0, 0x13c(s4)
   1821c: 83 29 4a 19  	lw	s3, 0x194(s4)
   18220: 02 e0        	c.sdsp	zero, 0x0(sp)
   18222: 02 e4        	c.sdsp	zero, 0x8(sp)
   18224: 63 5b a0 06  	bge	zero, a0, 0x1829a <finish_pass_gather_phuff+0x94>
   18228: 81 44        	c.li	s1, 0x0
   1822a: 13 04 0a 14  	addi	s0, s4, 0x140
   1822e: 8a 8a        	c.mv	s5, sp
   18230: 05 4b        	c.li	s6, 0x1
   18232: 0c 60        	c.ld	a1, 0x0(s0)
   18234: 63 89 09 04  	beq	s3, zero, 0x18286 <finish_pass_gather_phuff+0x80>
   18238: e1 05        	c.addi	a1, 0x18
   1823a: 03 ac 05 00  	lw	s8, 0x0(a1)
   1823e: 93 1b 2c 00  	slli	s7, s8, 0x2
   18242: d6 9b        	c.add	s7, s5
   18244: 83 a5 0b 00  	lw	a1, 0x0(s7)
   18248: b1 e1        	c.bnez	a1, 0x1828c <finish_pass_gather_phuff+0x86>
   1824a: 13 05 80 07  	addi	a0, zero, 0x78
   1824e: 63 84 09 00  	beq	s3, zero, 0x18256 <finish_pass_gather_phuff+0x50>
   18252: 13 05 80 09  	addi	a0, zero, 0x98
   18256: 0e 0c        	c.slli	s8, 0x3
   18258: 52 95        	c.add	a0, s4
   1825a: b3 0c 85 01  	add	s9, a0, s8
   1825e: 83 b5 0c 00  	ld	a1, 0x0(s9)
   18262: 99 e5        	c.bnez	a1, 0x18270 <finish_pass_gather_phuff+0x6a>
   18264: 52 85        	c.mv	a0, s4
   18266: ef 00 10 70  	jal	ra, 0x19166 <jpeg_alloc_huff_table>
   1826a: aa 85        	c.mv	a1, a0
   1826c: 23 b0 ac 00  	sd	a0, 0x0(s9)
   18270: 4a 9c        	c.add	s8, s2
   18272: 03 36 8c 09  	ld	a2, 0x98(s8)
   18276: 52 85        	c.mv	a0, s4
   18278: ef e0 df 91  	jal	ra, 0x16b94 <jpeg_gen_optimal_table>
   1827c: 03 25 ca 13  	lw	a0, 0x13c(s4)
   18280: 23 a0 6b 01  	sw	s6, 0x0(s7)
   18284: 21 a0        	c.j	0x1828c <finish_pass_gather_phuff+0x86>
   18286: 03 26 ca 19  	lw	a2, 0x19c(s4)
   1828a: 11 c6        	c.beqz	a2, 0x18296 <finish_pass_gather_phuff+0x90>
   1828c: 85 04        	c.addi	s1, 0x1
   1828e: 21 04        	c.addi	s0, 0x8
   18290: e3 c1 a4 fa  	blt	s1, a0, 0x18232 <finish_pass_gather_phuff+0x2c>
   18294: 19 a0        	c.j	0x1829a <finish_pass_gather_phuff+0x94>
   18296: d1 05        	c.addi	a1, 0x14
   18298: 4d b7        	c.j	0x1823a <finish_pass_gather_phuff+0x34>
   1829a: 41 01        	c.addi	sp, 0x10
   1829c: 6f 50 51 3c  	jal	zero, 0x2de60 <__riscv_restore_11>

00000000000182a0 <finish_pass_phuff>:
   182a0: ef 52 31 3a  	jal	t0, 0x2de42 <__riscv_save_3>
   182a4: 2a 84        	c.mv	s0, a0
   182a6: 08 71        	c.ld	a0, 0x20(a0)
   182a8: 83 34 84 1e  	ld	s1, 0x1e8(s0)
   182ac: 0c 61        	c.ld	a1, 0x0(a0)
   182ae: 08 65        	c.ld	a0, 0x8(a0)
   182b0: 8c f0        	c.sd	a1, 0x20(s1)
   182b2: 88 f4        	c.sd	a0, 0x28(s1)
   182b4: 26 85        	c.mv	a0, s1
   182b6: ef 00 e0 16  	jal	ra, 0x18424 <emit_eobrun>
   182ba: 26 85        	c.mv	a0, s1
   182bc: ef 00 80 22  	jal	ra, 0x184e4 <flush_bits>
   182c0: 88 70        	c.ld	a0, 0x20(s1)
   182c2: 0c 70        	c.ld	a1, 0x20(s0)
   182c4: 90 74        	c.ld	a2, 0x28(s1)
   182c6: 88 e1        	c.sd	a0, 0x0(a1)
   182c8: 90 e5        	c.sd	a2, 0x8(a1)
   182ca: 6f 50 f1 3a  	jal	zero, 0x2de78 <__riscv_restore_3>

00000000000182ce <emit_restart>:
   182ce: ef 52 51 37  	jal	t0, 0x2de42 <__riscv_save_3>
   182d2: ae 84        	c.mv	s1, a1
   182d4: 2a 84        	c.mv	s0, a0
   182d6: ef 00 e0 14  	jal	ra, 0x18424 <emit_eobrun>
   182da: 08 4c        	c.lw	a0, 0x18(s0)
   182dc: 31 e1        	c.bnez	a0, 0x18320 <emit_restart+0x52>
   182de: 22 85        	c.mv	a0, s0
   182e0: ef 00 40 20  	jal	ra, 0x184e4 <flush_bits>
   182e4: 08 70        	c.ld	a0, 0x20(s0)
   182e6: 93 05 15 00  	addi	a1, a0, 0x1
   182ea: 0c f0        	c.sd	a1, 0x20(s0)
   182ec: 93 05 f0 0f  	addi	a1, zero, 0xff
   182f0: 23 00 b5 00  	sb	a1, 0x0(a0)
   182f4: 08 74        	c.ld	a0, 0x28(s0)
   182f6: 7d 15        	c.addi	a0, -0x1
   182f8: 08 f4        	c.sd	a0, 0x28(s0)
   182fa: 01 e5        	c.bnez	a0, 0x18302 <emit_restart+0x34>
   182fc: 22 85        	c.mv	a0, s0
   182fe: ef 00 60 27  	jal	ra, 0x18574 <dump_buffer>
   18302: 08 70        	c.ld	a0, 0x20(s0)
   18304: 93 85 04 fd  	addi	a1, s1, -0x30
   18308: 13 06 15 00  	addi	a2, a0, 0x1
   1830c: 10 f0        	c.sd	a2, 0x20(s0)
   1830e: 23 00 b5 00  	sb	a1, 0x0(a0)
   18312: 08 74        	c.ld	a0, 0x28(s0)
   18314: 7d 15        	c.addi	a0, -0x1
   18316: 08 f4        	c.sd	a0, 0x28(s0)
   18318: 01 e5        	c.bnez	a0, 0x18320 <emit_restart+0x52>
   1831a: 22 85        	c.mv	a0, s0
   1831c: ef 00 80 25  	jal	ra, 0x18574 <dump_buffer>
   18320: 28 60        	c.ld	a0, 0x40(s0)
   18322: 83 25 45 19  	lw	a1, 0x194(a0)
   18326: 99 c5        	c.beqz	a1, 0x18334 <emit_restart+0x66>
   18328: 23 2e 04 04  	sw	zero, 0x5c(s0)
   1832c: 23 20 04 06  	sw	zero, 0x60(s0)
   18330: 6f 50 91 34  	jal	zero, 0x2de78 <__riscv_restore_3>
   18334: 83 25 c5 13  	lw	a1, 0x13c(a0)
   18338: 63 5d b0 00  	bge	zero, a1, 0x18352 <emit_restart+0x84>
   1833c: 81 45        	c.li	a1, 0x0
   1833e: 13 06 84 04  	addi	a2, s0, 0x48
   18342: 23 20 06 00  	sw	zero, 0x0(a2)
   18346: 83 26 c5 13  	lw	a3, 0x13c(a0)
   1834a: 85 05        	c.addi	a1, 0x1
   1834c: 11 06        	c.addi	a2, 0x4
   1834e: e3 ca d5 fe  	blt	a1, a3, 0x18342 <emit_restart+0x74>
   18352: 6f 50 71 32  	jal	zero, 0x2de78 <__riscv_restore_3>

0000000000018356 <emit_symbol>:
   18356: ef 52 31 2e  	jal	t0, 0x2de38 <__riscv_save_5>
   1835a: 2a 84        	c.mv	s0, a0
   1835c: 08 4d        	c.lw	a0, 0x18(a0)
   1835e: 19 c9        	c.beqz	a0, 0x18374 <emit_symbol+0x1e>
   18360: 8e 05        	c.slli	a1, 0x3
   18362: a2 95        	c.add	a1, s0
   18364: c8 6d        	c.ld	a0, 0x98(a1)
   18366: 0e 06        	c.slli	a2, 0x3
   18368: 32 95        	c.add	a0, a2
   1836a: 0c 61        	c.ld	a1, 0x0(a0)
   1836c: 85 05        	c.addi	a1, 0x1
   1836e: 0c e1        	c.sd	a1, 0x0(a0)
   18370: 6f 50 31 30  	jal	zero, 0x2de72 <__riscv_restore_5>
   18374: 8e 05        	c.slli	a1, 0x3
   18376: a2 95        	c.add	a1, s0
   18378: a8 7d        	c.ld	a0, 0x78(a1)
   1837a: 93 15 26 00  	slli	a1, a2, 0x2
   1837e: aa 95        	c.add	a1, a0
   18380: 03 e9 05 00  	lwu	s2, 0x0(a1)
   18384: 32 95        	c.add	a0, a2
   18386: 83 44 05 40  	lbu	s1, 0x400(a0)
   1838a: 83 29 84 03  	lw	s3, 0x38(s0)
   1838e: c1 c0        	c.beqz	s1, 0x1840e <emit_symbol+0xb8>
   18390: 7d 55        	c.li	a0, -0x1
   18392: 33 15 95 00  	sll	a0, a0, s1
   18396: 13 45 f5 ff  	xori	a0, a0, -0x1
   1839a: b3 75 25 01  	and	a1, a0, s2
   1839e: 3b 85 99 00  	addw	a0, s3, s1
   183a2: 61 46        	c.li	a2, 0x18
   183a4: 14 78        	c.ld	a3, 0x30(s0)
   183a6: 09 9e        	c.subw	a2, a0
   183a8: b3 94 c5 00  	sll	s1, a1, a2
   183ac: a1 45        	c.li	a1, 0x8
   183ae: d5 8c        	c.or	s1, a3
   183b0: 63 4b b5 04  	blt	a0, a1, 0x18406 <emit_symbol+0xb0>
   183b4: 37 09 ff 00  	lui	s2, 0xff0
   183b8: bd 49        	c.li	s3, 0xf
   183ba: 0c 70        	c.ld	a1, 0x20(s0)
   183bc: 13 d6 04 01  	srli	a2, s1, 0x10
   183c0: 93 86 15 00  	addi	a3, a1, 0x1
   183c4: 14 f0        	c.sd	a3, 0x20(s0)
   183c6: 23 80 c5 00  	sb	a2, 0x0(a1)
   183ca: 0c 74        	c.ld	a1, 0x28(s0)
   183cc: 2a 8a        	c.mv	s4, a0
   183ce: fd 15        	c.addi	a1, -0x1
   183d0: 0c f4        	c.sd	a1, 0x28(s0)
   183d2: 81 e5        	c.bnez	a1, 0x183da <emit_symbol+0x84>
   183d4: 22 85        	c.mv	a0, s0
   183d6: ef 00 e0 19  	jal	ra, 0x18574 <dump_buffer>
   183da: 33 f5 24 01  	and	a0, s1, s2
   183de: 63 1f 25 01  	bne	a0, s2, 0x183fc <emit_symbol+0xa6>
   183e2: 08 70        	c.ld	a0, 0x20(s0)
   183e4: 93 05 15 00  	addi	a1, a0, 0x1
   183e8: 0c f0        	c.sd	a1, 0x20(s0)
   183ea: 23 00 05 00  	sb	zero, 0x0(a0)
   183ee: 08 74        	c.ld	a0, 0x28(s0)
   183f0: 7d 15        	c.addi	a0, -0x1
   183f2: 08 f4        	c.sd	a0, 0x28(s0)
   183f4: 01 e5        	c.bnez	a0, 0x183fc <emit_symbol+0xa6>
   183f6: 22 85        	c.mv	a0, s0
   183f8: ef 00 c0 17  	jal	ra, 0x18574 <dump_buffer>
   183fc: a2 04        	c.slli	s1, 0x8
   183fe: 1b 05 8a ff  	addiw	a0, s4, -0x8
   18402: e3 cc 49 fb  	blt	s3, s4, 0x183ba <emit_symbol+0x64>
   18406: 04 f8        	c.sd	s1, 0x30(s0)
   18408: 08 dc        	c.sw	a0, 0x38(s0)
   1840a: 6f 50 91 26  	jal	zero, 0x2de72 <__riscv_restore_5>
   1840e: 28 60        	c.ld	a0, 0x40(s0)
   18410: 0c 61        	c.ld	a1, 0x0(a0)
   18412: 90 61        	c.ld	a2, 0x0(a1)
   18414: 93 06 70 02  	addi	a3, zero, 0x27
   18418: 94 d5        	c.sw	a3, 0x28(a1)
   1841a: 02 96        	c.jalr	a2
   1841c: 08 4c        	c.lw	a0, 0x18(s0)
   1841e: 2d d9        	c.beqz	a0, 0x18390 <emit_symbol+0x3a>
   18420: 6f 50 31 25  	jal	zero, 0x2de72 <__riscv_restore_5>

0000000000018424 <emit_eobrun>:
   18424: ef 52 51 21  	jal	t0, 0x2de38 <__riscv_save_5>
   18428: 2a 84        	c.mv	s0, a0
   1842a: 68 4d        	c.lw	a0, 0x5c(a0)
   1842c: 55 c9        	c.beqz	a0, 0x184e0 <emit_eobrun+0xbc>
   1842e: 81 44        	c.li	s1, 0x0
   18430: 85 45        	c.li	a1, 0x1
   18432: 63 07 b5 00  	beq	a0, a1, 0x18440 <emit_eobrun+0x1c>
   18436: 1b 55 15 40  	sraiw	a0, a0, 0x1
   1843a: 85 24        	c.addiw	s1, 0x1
   1843c: e3 ed a5 fe  	bltu	a1, a0, 0x18436 <emit_eobrun+0x12>
   18440: 2c 4c        	c.lw	a1, 0x58(s0)
   18442: 1b 96 44 00  	slliw	a2, s1, 0x4
   18446: 22 85        	c.mv	a0, s0
   18448: ef f0 ff f0  	jal	ra, 0x18356 <emit_symbol>
   1844c: c9 c0        	c.beqz	s1, 0x184ce <emit_eobrun+0xaa>
   1844e: 08 4c        	c.lw	a0, 0x18(s0)
   18450: 3d ed        	c.bnez	a0, 0x184ce <emit_eobrun+0xaa>
   18452: 08 5c        	c.lw	a0, 0x38(s0)
   18454: 83 65 c4 05  	lwu	a1, 0x5c(s0)
   18458: 7d 56        	c.li	a2, -0x1
   1845a: 33 16 96 00  	sll	a2, a2, s1
   1845e: 13 46 f6 ff  	xori	a2, a2, -0x1
   18462: f1 8d        	c.and	a1, a2
   18464: 25 9d        	c.addw	a0, s1
   18466: 61 46        	c.li	a2, 0x18
   18468: 14 78        	c.ld	a3, 0x30(s0)
   1846a: 09 9e        	c.subw	a2, a0
   1846c: b3 94 c5 00  	sll	s1, a1, a2
   18470: a1 45        	c.li	a1, 0x8
   18472: d5 8c        	c.or	s1, a3
   18474: 63 4b b5 04  	blt	a0, a1, 0x184ca <emit_eobrun+0xa6>
   18478: 37 09 ff 00  	lui	s2, 0xff0
   1847c: bd 49        	c.li	s3, 0xf
   1847e: 0c 70        	c.ld	a1, 0x20(s0)
   18480: 13 d6 04 01  	srli	a2, s1, 0x10
   18484: 93 86 15 00  	addi	a3, a1, 0x1
   18488: 14 f0        	c.sd	a3, 0x20(s0)
   1848a: 23 80 c5 00  	sb	a2, 0x0(a1)
   1848e: 0c 74        	c.ld	a1, 0x28(s0)
   18490: 2a 8a        	c.mv	s4, a0
   18492: fd 15        	c.addi	a1, -0x1
   18494: 0c f4        	c.sd	a1, 0x28(s0)
   18496: 81 e5        	c.bnez	a1, 0x1849e <emit_eobrun+0x7a>
   18498: 22 85        	c.mv	a0, s0
   1849a: ef 00 a0 0d  	jal	ra, 0x18574 <dump_buffer>
   1849e: 33 f5 24 01  	and	a0, s1, s2
   184a2: 63 1f 25 01  	bne	a0, s2, 0x184c0 <emit_eobrun+0x9c>
   184a6: 08 70        	c.ld	a0, 0x20(s0)
   184a8: 93 05 15 00  	addi	a1, a0, 0x1
   184ac: 0c f0        	c.sd	a1, 0x20(s0)
   184ae: 23 00 05 00  	sb	zero, 0x0(a0)
   184b2: 08 74        	c.ld	a0, 0x28(s0)
   184b4: 7d 15        	c.addi	a0, -0x1
   184b6: 08 f4        	c.sd	a0, 0x28(s0)
   184b8: 01 e5        	c.bnez	a0, 0x184c0 <emit_eobrun+0x9c>
   184ba: 22 85        	c.mv	a0, s0
   184bc: ef 00 80 0b  	jal	ra, 0x18574 <dump_buffer>
   184c0: a2 04        	c.slli	s1, 0x8
   184c2: 1b 05 8a ff  	addiw	a0, s4, -0x8
   184c6: e3 cc 49 fb  	blt	s3, s4, 0x1847e <emit_eobrun+0x5a>
   184ca: 04 f8        	c.sd	s1, 0x30(s0)
   184cc: 08 dc        	c.sw	a0, 0x38(s0)
   184ce: 2c 74        	c.ld	a1, 0x68(s0)
   184d0: 30 50        	c.lw	a2, 0x60(s0)
   184d2: 23 2e 04 04  	sw	zero, 0x5c(s0)
   184d6: 22 85        	c.mv	a0, s0
   184d8: ef 00 40 0c  	jal	ra, 0x1859c <emit_buffered_bits>
   184dc: 23 20 04 06  	sw	zero, 0x60(s0)
   184e0: 6f 50 31 19  	jal	zero, 0x2de72 <__riscv_restore_5>

00000000000184e4 <flush_bits>:
   184e4: ef 52 51 15  	jal	t0, 0x2de38 <__riscv_save_5>
   184e8: 2a 89        	c.mv	s2, a0
   184ea: 08 4d        	c.lw	a0, 0x18(a0)
   184ec: 35 ed        	c.bnez	a0, 0x18568 <flush_bits+0x84>
   184ee: 03 24 89 03  	lw	s0, 0x38(s2)
   184f2: 63 5b 80 06  	bge	zero, s0, 0x18568 <flush_bits+0x84>
   184f6: 45 45        	c.li	a0, 0x11
   184f8: 83 35 09 03  	ld	a1, 0x30(s2)
   184fc: 01 9d        	c.subw	a0, s0
   184fe: 13 06 f0 07  	addi	a2, zero, 0x7f
   18502: b3 14 a6 00  	sll	s1, a2, a0
   18506: cd 8c        	c.or	s1, a1
   18508: 3d 04        	c.addi	s0, 0xf
   1850a: b7 09 ff 00  	lui	s3, 0xff0
   1850e: 3d 4a        	c.li	s4, 0xf
   18510: 03 35 09 02  	ld	a0, 0x20(s2)
   18514: 93 d5 04 01  	srli	a1, s1, 0x10
   18518: 13 06 15 00  	addi	a2, a0, 0x1
   1851c: 23 30 c9 02  	sd	a2, 0x20(s2)
   18520: 23 00 b5 00  	sb	a1, 0x0(a0)
   18524: 03 35 89 02  	ld	a0, 0x28(s2)
   18528: 7d 15        	c.addi	a0, -0x1
   1852a: 23 34 a9 02  	sd	a0, 0x28(s2)
   1852e: 01 e5        	c.bnez	a0, 0x18536 <flush_bits+0x52>
   18530: 4a 85        	c.mv	a0, s2
   18532: ef 00 20 04  	jal	ra, 0x18574 <dump_buffer>
   18536: 33 f5 34 01  	and	a0, s1, s3
   1853a: 63 13 35 03  	bne	a0, s3, 0x18560 <flush_bits+0x7c>
   1853e: 03 35 09 02  	ld	a0, 0x20(s2)
   18542: 93 05 15 00  	addi	a1, a0, 0x1
   18546: 23 30 b9 02  	sd	a1, 0x20(s2)
   1854a: 23 00 05 00  	sb	zero, 0x0(a0)
   1854e: 03 35 89 02  	ld	a0, 0x28(s2)
   18552: 7d 15        	c.addi	a0, -0x1
   18554: 23 34 a9 02  	sd	a0, 0x28(s2)
   18558: 01 e5        	c.bnez	a0, 0x18560 <flush_bits+0x7c>
   1855a: 4a 85        	c.mv	a0, s2
   1855c: ef 00 80 01  	jal	ra, 0x18574 <dump_buffer>
   18560: 61 34        	c.addiw	s0, -0x8
   18562: a2 04        	c.slli	s1, 0x8
   18564: e3 46 8a fa  	blt	s4, s0, 0x18510 <flush_bits+0x2c>
   18568: 23 38 09 02  	sd	zero, 0x30(s2)
   1856c: 23 2c 09 02  	sw	zero, 0x38(s2)
   18570: 6f 50 31 10  	jal	zero, 0x2de72 <__riscv_restore_5>

0000000000018574 <dump_buffer>:
   18574: ef 52 f1 0c  	jal	t0, 0x2de42 <__riscv_save_3>
   18578: 2a 84        	c.mv	s0, a0
   1857a: 28 61        	c.ld	a0, 0x40(a0)
   1857c: 04 71        	c.ld	s1, 0x20(a0)
   1857e: 8c 6c        	c.ld	a1, 0x18(s1)
   18580: 82 95        	c.jalr	a1
   18582: 19 e5        	c.bnez	a0, 0x18590 <dump_buffer+0x1c>
   18584: 28 60        	c.ld	a0, 0x40(s0)
   18586: 0c 61        	c.ld	a1, 0x0(a0)
   18588: 90 61        	c.ld	a2, 0x0(a1)
   1858a: d9 46        	c.li	a3, 0x16
   1858c: 94 d5        	c.sw	a3, 0x28(a1)
   1858e: 02 96        	c.jalr	a2
   18590: 88 60        	c.ld	a0, 0x0(s1)
   18592: 8c 64        	c.ld	a1, 0x8(s1)
   18594: 08 f0        	c.sd	a0, 0x20(s0)
   18596: 0c f4        	c.sd	a1, 0x28(s0)
   18598: 6f 50 11 0e  	jal	zero, 0x2de78 <__riscv_restore_3>

000000000001859c <emit_buffered_bits>:
   1859c: 4d ca        	c.beqz	a2, 0x1864e <emit_buffered_bits+0xb2>
   1859e: ef 52 71 08  	jal	t0, 0x2de24 <__riscv_save_9>
   185a2: 2a 8c        	c.mv	s8, a0
   185a4: 08 4d        	c.lw	a0, 0x18(a0)
   185a6: 4d e1        	c.bnez	a0, 0x18648 <emit_buffered_bits+0xac>
   185a8: b2 8b        	c.mv	s7, a2
   185aa: 2e 89        	c.mv	s2, a1
   185ac: dd 49        	c.li	s3, 0x17
   185ae: 1d 4a        	c.li	s4, 0x7
   185b0: b7 0a ff 00  	lui	s5, 0xff0
   185b4: 3d 4b        	c.li	s6, 0xf
   185b6: 03 25 8c 01  	lw	a0, 0x18(s8)
   185ba: 59 e1        	c.bnez	a0, 0x18640 <emit_buffered_bits+0xa4>
   185bc: 03 45 09 00  	lbu	a0, 0x0(s2)
   185c0: 83 24 8c 03  	lw	s1, 0x38(s8)
   185c4: 83 35 0c 03  	ld	a1, 0x30(s8)
   185c8: 05 89        	c.andi	a0, 0x1
   185ca: 3b 86 99 40  	subw	a2, s3, s1
   185ce: 33 14 c5 00  	sll	s0, a0, a2
   185d2: 4d 8c        	c.or	s0, a1
   185d4: 63 c1 44 07  	blt	s1, s4, 0x18636 <emit_buffered_bits+0x9a>
   185d8: a5 04        	c.addi	s1, 0x9
   185da: 03 35 0c 02  	ld	a0, 0x20(s8)
   185de: 93 55 04 01  	srli	a1, s0, 0x10
   185e2: 13 06 15 00  	addi	a2, a0, 0x1
   185e6: 23 30 cc 02  	sd	a2, 0x20(s8)
   185ea: 23 00 b5 00  	sb	a1, 0x0(a0)
   185ee: 03 35 8c 02  	ld	a0, 0x28(s8)
   185f2: 7d 15        	c.addi	a0, -0x1
   185f4: 23 34 ac 02  	sd	a0, 0x28(s8)
   185f8: 01 e5        	c.bnez	a0, 0x18600 <emit_buffered_bits+0x64>
   185fa: 62 85        	c.mv	a0, s8
   185fc: ef f0 9f f7  	jal	ra, 0x18574 <dump_buffer>
   18600: 33 75 54 01  	and	a0, s0, s5
   18604: 63 13 55 03  	bne	a0, s5, 0x1862a <emit_buffered_bits+0x8e>
   18608: 03 35 0c 02  	ld	a0, 0x20(s8)
   1860c: 93 05 15 00  	addi	a1, a0, 0x1
   18610: 23 30 bc 02  	sd	a1, 0x20(s8)
   18614: 23 00 05 00  	sb	zero, 0x0(a0)
   18618: 03 35 8c 02  	ld	a0, 0x28(s8)
   1861c: 7d 15        	c.addi	a0, -0x1
   1861e: 23 34 ac 02  	sd	a0, 0x28(s8)
   18622: 01 e5        	c.bnez	a0, 0x1862a <emit_buffered_bits+0x8e>
   18624: 62 85        	c.mv	a0, s8
   18626: ef f0 ff f4  	jal	ra, 0x18574 <dump_buffer>
   1862a: e1 34        	c.addiw	s1, -0x8
   1862c: 22 04        	c.slli	s0, 0x8
   1862e: e3 46 9b fa  	blt	s6, s1, 0x185da <emit_buffered_bits+0x3e>
   18632: e1 14        	c.addi	s1, -0x8
   18634: 11 a0        	c.j	0x18638 <emit_buffered_bits+0x9c>
   18636: 85 04        	c.addi	s1, 0x1
   18638: 23 38 8c 02  	sd	s0, 0x30(s8)
   1863c: 23 2c 9c 02  	sw	s1, 0x38(s8)
   18640: fd 3b        	c.addiw	s7, -0x1
   18642: 05 09        	c.addi	s2, 0x1
   18644: e3 99 0b f6  	bne	s7, zero, 0x185b6 <emit_buffered_bits+0x1a>
   18648: 6f 50 f1 01  	jal	zero, 0x2de66 <__riscv_restore_9>
   1864c: 09 a0        	c.j	0x1864e <emit_buffered_bits+0xb2>
   1864e: 82 80        	c.jr	ra

0000000000018650 <jinit_forward_dct>:
   18650: ef 52 21 7f  	jal	t0, 0x2de42 <__riscv_save_3>
   18654: aa 84        	c.mv	s1, a0
   18656: 08 65        	c.ld	a0, 0x8(a0)
   18658: 14 61        	c.ld	a3, 0x0(a0)
   1865a: 85 45        	c.li	a1, 0x1
   1865c: 13 06 00 06  	addi	a2, zero, 0x60
   18660: 05 49        	c.li	s2, 0x1
   18662: 26 85        	c.mv	a0, s1
   18664: 82 96        	c.jalr	a3
   18666: 2a 84        	c.mv	s0, a0
   18668: b7 85 01 00  	lui	a1, 0x18
   1866c: 03 a5 c4 10  	lw	a0, 0x10c(s1)
   18670: 93 85 85 6f  	addi	a1, a1, 0x6f8
   18674: 0c e0        	c.sd	a1, 0x0(s0)
   18676: 89 45        	c.li	a1, 0x2
   18678: 23 b0 84 1e  	sd	s0, 0x1e0(s1)
   1867c: 63 0a b5 02  	beq	a0, a1, 0x186b0 <jinit_forward_dct+0x60>
   18680: 63 0d 25 01  	beq	a0, s2, 0x1869a <jinit_forward_dct+0x4a>
   18684: 29 e1        	c.bnez	a0, 0x186c6 <jinit_forward_dct+0x76>
   18686: 37 95 01 00  	lui	a0, 0x19
   1868a: 13 05 85 88  	addi	a0, a0, -0x778
   1868e: 08 e4        	c.sd	a0, 0x8(s0)
   18690: 37 95 01 00  	lui	a0, 0x19
   18694: 13 05 e5 e2  	addi	a0, a0, -0x1d2
   18698: 11 a8        	c.j	0x186ac <jinit_forward_dct+0x5c>
   1869a: 37 95 01 00  	lui	a0, 0x19
   1869e: 13 05 85 88  	addi	a0, a0, -0x778
   186a2: 08 e4        	c.sd	a0, 0x8(s0)
   186a4: 37 95 01 00  	lui	a0, 0x19
   186a8: 13 05 25 ab  	addi	a0, a0, -0x54e
   186ac: 08 e8        	c.sd	a0, 0x10(s0)
   186ae: 1d a0        	c.j	0x186d4 <jinit_forward_dct+0x84>
   186b0: 37 95 01 00  	lui	a0, 0x19
   186b4: 13 05 c5 98  	addi	a0, a0, -0x674
   186b8: 08 e4        	c.sd	a0, 0x8(s0)
   186ba: 37 95 01 00  	lui	a0, 0x19
   186be: 13 05 45 c7  	addi	a0, a0, -0x38c
   186c2: 08 fc        	c.sd	a0, 0x38(s0)
   186c4: 01 a8        	c.j	0x186d4 <jinit_forward_dct+0x84>
   186c6: 88 60        	c.ld	a0, 0x0(s1)
   186c8: 0c 61        	c.ld	a1, 0x0(a0)
   186ca: 13 06 f0 02  	addi	a2, zero, 0x2f
   186ce: 10 d5        	c.sw	a2, 0x28(a0)
   186d0: 26 85        	c.mv	a0, s1
   186d2: 82 95        	c.jalr	a1
   186d4: 23 38 04 02  	sd	zero, 0x30(s0)
   186d8: 23 34 04 02  	sd	zero, 0x28(s0)
   186dc: 23 30 04 02  	sd	zero, 0x20(s0)
   186e0: 23 3c 04 00  	sd	zero, 0x18(s0)
   186e4: 23 30 04 04  	sd	zero, 0x40(s0)
   186e8: 23 34 04 04  	sd	zero, 0x48(s0)
   186ec: 23 38 04 04  	sd	zero, 0x50(s0)
   186f0: 23 3c 04 04  	sd	zero, 0x58(s0)
   186f4: 6f 50 41 78  	jal	zero, 0x2de78 <__riscv_restore_3>

00000000000186f8 <start_pass_fdctmgr>:
   186f8: ef 52 a1 71  	jal	t0, 0x2de12 <__riscv_save_12>
   186fc: 01 11        	c.addi	sp, -0x20
   186fe: 22 ac        	c.fsdsp	fs0, 0x18(sp)
   18700: 26 a8        	c.fsdsp	fs1, 0x10(sp)
   18702: 2a 89        	c.mv	s2, a0
   18704: 68 41        	c.lw	a0, 0x44(a0)
   18706: 63 5c a0 16  	bge	zero, a0, 0x1887e <start_pass_fdctmgr+0x186>
   1870a: 01 4a        	c.li	s4, 0x0
   1870c: 83 39 09 1e  	ld	s3, 0x1e0(s2)
   18710: 83 3c 09 05  	ld	s9, 0x50(s2)
   18714: 37 05 03 00  	lui	a0, 0x30
   18718: 13 0d 05 29  	addi	s10, a0, 0x290
   1871c: 07 b4 81 1c  	fld	fs0, 0x1c8(gp)
   18720: 87 b4 01 1d  	fld	fs1, 0x1d0(gp)
   18724: e1 5b        	c.li	s7, -0x8
   18726: a1 4d        	c.li	s11, 0x8
   18728: 37 05 03 00  	lui	a0, 0x30
   1872c: 13 05 05 21  	addi	a0, a0, 0x210
   18730: 2a e4        	c.sdsp	a0, 0x8(sp)
   18732: 83 a4 0c 01  	lw	s1, 0x10(s9)
   18736: 0d 45        	c.li	a0, 0x3
   18738: 63 67 95 00  	bltu	a0, s1, 0x18746 <start_pass_fdctmgr+0x4e>
   1873c: 13 95 34 00  	slli	a0, s1, 0x3
   18740: 4a 95        	c.add	a0, s2
   18742: 28 6d        	c.ld	a0, 0x58(a0)
   18744: 01 ed        	c.bnez	a0, 0x1875c <start_pass_fdctmgr+0x64>
   18746: 03 35 09 00  	ld	a0, 0x0(s2)
   1874a: 44 d5        	c.sw	s1, 0x2c(a0)
   1874c: 83 35 09 00  	ld	a1, 0x0(s2)
   18750: 8c 61        	c.ld	a1, 0x0(a1)
   18752: 13 06 30 03  	addi	a2, zero, 0x33
   18756: 10 d5        	c.sw	a2, 0x28(a0)
   18758: 4a 85        	c.mv	a0, s2
   1875a: 82 95        	c.jalr	a1
   1875c: 8e 04        	c.slli	s1, 0x3
   1875e: b3 05 99 00  	add	a1, s2, s1
   18762: 03 25 c9 10  	lw	a0, 0x10c(s2)
   18766: 03 bb 85 05  	ld	s6, 0x58(a1)
   1876a: 89 45        	c.li	a1, 0x2
   1876c: 63 02 b5 08  	beq	a0, a1, 0x187f0 <start_pass_fdctmgr+0xf8>
   18770: 85 45        	c.li	a1, 0x1
   18772: 63 0b b5 02  	beq	a0, a1, 0x187a8 <start_pass_fdctmgr+0xb0>
   18776: 6d e5        	c.bnez	a0, 0x18860 <start_pass_fdctmgr+0x168>
   18778: ce 94        	c.add	s1, s3
   1877a: 88 6c        	c.ld	a0, 0x18(s1)
   1877c: 19 e9        	c.bnez	a0, 0x18792 <start_pass_fdctmgr+0x9a>
   1877e: 03 35 89 00  	ld	a0, 0x8(s2)
   18782: 14 61        	c.ld	a3, 0x0(a0)
   18784: e1 04        	c.addi	s1, 0x18
   18786: 85 45        	c.li	a1, 0x1
   18788: 13 06 00 10  	addi	a2, zero, 0x100
   1878c: 4a 85        	c.mv	a0, s2
   1878e: 82 96        	c.jalr	a3
   18790: 88 e0        	c.sd	a0, 0x0(s1)
   18792: 93 05 05 10  	addi	a1, a0, 0x100
   18796: 03 56 0b 00  	lhu	a2, 0x0(s6)
   1879a: 0e 06        	c.slli	a2, 0x3
   1879c: 10 c1        	c.sw	a2, 0x0(a0)
   1879e: 11 05        	c.addi	a0, 0x4
   187a0: 09 0b        	c.addi	s6, 0x2
   187a2: e3 1a b5 fe  	bne	a0, a1, 0x18796 <start_pass_fdctmgr+0x9e>
   187a6: e9 a0        	c.j	0x18870 <start_pass_fdctmgr+0x178>
   187a8: 33 85 99 00  	add	a0, s3, s1
   187ac: 04 6d        	c.ld	s1, 0x18(a0)
   187ae: 91 ec        	c.bnez	s1, 0x187ca <start_pass_fdctmgr+0xd2>
   187b0: 83 35 89 00  	ld	a1, 0x8(s2)
   187b4: 94 61        	c.ld	a3, 0x0(a1)
   187b6: 93 0a 85 01  	addi	s5, a0, 0x18
   187ba: 85 45        	c.li	a1, 0x1
   187bc: 13 06 00 10  	addi	a2, zero, 0x100
   187c0: 4a 85        	c.mv	a0, s2
   187c2: 82 96        	c.jalr	a3
   187c4: aa 84        	c.mv	s1, a0
   187c6: 23 b0 aa 00  	sd	a0, 0x0(s5)
   187ca: 13 8c 04 10  	addi	s8, s1, 0x100
   187ce: a2 6a        	c.ldsp	s5, 0x8(sp)
   187d0: 83 55 0b 00  	lhu	a1, 0x0(s6)
   187d4: 03 95 0a 00  	lh	a0, 0x0(s5)
   187d8: ef 50 01 6b  	jal	ra, 0x2de88 <__muldi3>
   187dc: 13 05 05 40  	addi	a0, a0, 0x400
   187e0: 2d 81        	c.srli	a0, 0xb
   187e2: 88 c0        	c.sw	a0, 0x0(s1)
   187e4: 91 04        	c.addi	s1, 0x4
   187e6: 89 0a        	c.addi	s5, 0x2
   187e8: 09 0b        	c.addi	s6, 0x2
   187ea: e3 93 84 ff  	bne	s1, s8, 0x187d0 <start_pass_fdctmgr+0xd8>
   187ee: 49 a0        	c.j	0x18870 <start_pass_fdctmgr+0x178>
   187f0: ce 94        	c.add	s1, s3
   187f2: a8 60        	c.ld	a0, 0x40(s1)
   187f4: 01 ed        	c.bnez	a0, 0x1880c <start_pass_fdctmgr+0x114>
   187f6: 03 35 89 00  	ld	a0, 0x8(s2)
   187fa: 14 61        	c.ld	a3, 0x0(a0)
   187fc: 93 84 04 04  	addi	s1, s1, 0x40
   18800: 85 45        	c.li	a1, 0x1
   18802: 13 06 00 10  	addi	a2, zero, 0x100
   18806: 4a 85        	c.mv	a0, s2
   18808: 82 96        	c.jalr	a3
   1880a: 88 e0        	c.sd	a0, 0x0(s1)
   1880c: 81 45        	c.li	a1, 0x0
   1880e: 01 46        	c.li	a2, 0x0
   18810: 81 46        	c.li	a3, 0x0
   18812: 13 97 35 00  	slli	a4, a1, 0x3
   18816: 6a 97        	c.add	a4, s10
   18818: 1c 23        	c.fld	fa5, 0x0(a4)
   1881a: 13 17 16 00  	slli	a4, a2, 0x1
   1881e: 5a 97        	c.add	a4, s6
   18820: 93 17 26 00  	slli	a5, a2, 0x2
   18824: aa 97        	c.add	a5, a0
   18826: ea 84        	c.mv	s1, s10
   18828: 03 54 07 00  	lhu	s0, 0x0(a4)
   1882c: 98 20        	c.fld	fa4, 0x0(s1)
   1882e: d3 06 14 d2  	fcvt.d.wu	fa3, s0
   18832: d3 f6 d7 12  	fmul.d	fa3, fa5, fa3, dyn
   18836: 53 f7 e6 12  	fmul.d	fa4, fa3, fa4, dyn
   1883a: 53 77 87 12  	fmul.d	fa4, fa4, fs0, dyn
   1883e: 53 f7 e4 1a  	fdiv.d	fa4, fs1, fa4, dyn
   18842: 53 77 17 40  	fcvt.s.d	fa4, fa4, dyn
   18846: 27 a0 e7 00  	fsw	fa4, 0x0(a5)
   1884a: 09 07        	c.addi	a4, 0x2
   1884c: 91 07        	c.addi	a5, 0x4
   1884e: fd 16        	c.addi	a3, -0x1
   18850: a1 04        	c.addi	s1, 0x8
   18852: e3 9b 76 fd  	bne	a3, s7, 0x18828 <start_pass_fdctmgr+0x130>
   18856: 85 05        	c.addi	a1, 0x1
   18858: 15 9e        	c.subw	a2, a3
   1885a: e3 9b b5 fb  	bne	a1, s11, 0x18810 <start_pass_fdctmgr+0x118>
   1885e: 09 a8        	c.j	0x18870 <start_pass_fdctmgr+0x178>
   18860: 03 35 09 00  	ld	a0, 0x0(s2)
   18864: 0c 61        	c.ld	a1, 0x0(a0)
   18866: 13 06 f0 02  	addi	a2, zero, 0x2f
   1886a: 10 d5        	c.sw	a2, 0x28(a0)
   1886c: 4a 85        	c.mv	a0, s2
   1886e: 82 95        	c.jalr	a1
   18870: 03 25 49 04  	lw	a0, 0x44(s2)
   18874: 05 2a        	c.addiw	s4, 0x1
   18876: 93 8c 0c 06  	addi	s9, s9, 0x60
   1887a: e3 4c aa ea  	blt	s4, a0, 0x18732 <start_pass_fdctmgr+0x3a>
   1887e: 62 24        	c.fldsp	fs0, 0x18(sp)
   18880: c2 24        	c.fldsp	fs1, 0x10(sp)
   18882: 05 61        	c.addi16sp	sp, 0x20
   18884: 6f 50 81 5d  	jal	zero, 0x2de5c <__riscv_restore_12>

0000000000018888 <forward_DCT>:
   18888: ef 52 a1 58  	jal	t0, 0x2de12 <__riscv_save_12>
   1888c: 6d 71        	c.addi16sp	sp, -0x110
   1888e: 36 e4        	c.sdsp	a3, 0x8(sp)
   18890: 63 0b 08 0e  	beq	a6, zero, 0x18986 <forward_DCT+0xfe>
   18894: be 8b        	c.mv	s7, a5
   18896: 03 35 05 1e  	ld	a0, 0x1e0(a0)
   1889a: 8c 49        	c.lw	a1, 0x10(a1)
   1889c: 81 4c        	c.li	s9, 0x0
   1889e: 83 39 05 01  	ld	s3, 0x10(a0)
   188a2: 8e 05        	c.slli	a1, 0x3
   188a4: 2e 95        	c.add	a0, a1
   188a6: 03 3a 85 01  	ld	s4, 0x18(a0)
   188aa: 02 17        	c.slli	a4, 0x20
   188ac: 75 83        	c.srli	a4, 0x1d
   188ae: b3 0a e6 00  	add	s5, a2, a4
   188b2: 02 18        	c.slli	a6, 0x20
   188b4: 13 5b 08 02  	srli	s6, a6, 0x20
   188b8: 13 0d 01 11  	addi	s10, sp, 0x110
   188bc: 22 69        	c.ldsp	s2, 0x8(sp)
   188be: 13 95 7c 00  	slli	a0, s9, 0x7
   188c2: a2 65        	c.ldsp	a1, 0x8(sp)
   188c4: 2e 95        	c.add	a0, a1
   188c6: 93 0d 05 08  	addi	s11, a0, 0x80
   188ca: 13 95 0b 02  	slli	a0, s7, 0x20
   188ce: 01 91        	c.srli	a0, 0x20
   188d0: 0c 08        	c.addi4spn	a1, sp, 0x10
   188d2: 56 86        	c.mv	a2, s5
   188d4: 14 62        	c.ld	a3, 0x0(a2)
   188d6: aa 96        	c.add	a3, a0
   188d8: 03 c7 06 00  	lbu	a4, 0x0(a3)
   188dc: 13 07 07 f8  	addi	a4, a4, -0x80
   188e0: 98 c1        	c.sw	a4, 0x0(a1)
   188e2: 03 c7 16 00  	lbu	a4, 0x1(a3)
   188e6: 13 07 07 f8  	addi	a4, a4, -0x80
   188ea: d8 c1        	c.sw	a4, 0x4(a1)
   188ec: 03 c7 26 00  	lbu	a4, 0x2(a3)
   188f0: 13 07 07 f8  	addi	a4, a4, -0x80
   188f4: 98 c5        	c.sw	a4, 0x8(a1)
   188f6: 03 c7 36 00  	lbu	a4, 0x3(a3)
   188fa: 13 07 07 f8  	addi	a4, a4, -0x80
   188fe: d8 c5        	c.sw	a4, 0xc(a1)
   18900: 03 c7 46 00  	lbu	a4, 0x4(a3)
   18904: 13 07 07 f8  	addi	a4, a4, -0x80
   18908: 98 c9        	c.sw	a4, 0x10(a1)
   1890a: 03 c7 56 00  	lbu	a4, 0x5(a3)
   1890e: 13 07 07 f8  	addi	a4, a4, -0x80
   18912: d8 c9        	c.sw	a4, 0x14(a1)
   18914: 03 c7 66 00  	lbu	a4, 0x6(a3)
   18918: 13 07 07 f8  	addi	a4, a4, -0x80
   1891c: 98 cd        	c.sw	a4, 0x18(a1)
   1891e: 83 c6 76 00  	lbu	a3, 0x7(a3)
   18922: 93 86 06 f8  	addi	a3, a3, -0x80
   18926: d4 cd        	c.sw	a3, 0x1c(a1)
   18928: 93 85 05 02  	addi	a1, a1, 0x20
   1892c: 21 06        	c.addi	a2, 0x8
   1892e: e3 93 a5 fb  	bne	a1, s10, 0x188d4 <forward_DCT+0x4c>
   18932: 08 08        	c.addi4spn	a0, sp, 0x10
   18934: 00 08        	c.addi4spn	s0, sp, 0x10
   18936: 82 99        	c.jalr	s3
   18938: d2 84        	c.mv	s1, s4
   1893a: 4a 8c        	c.mv	s8, s2
   1893c: 8c 40        	c.lw	a1, 0x0(s1)
   1893e: 08 40        	c.lw	a0, 0x0(s0)
   18940: 13 d6 15 40  	srai	a2, a1, 0x1
   18944: 63 47 05 00  	blt	a0, zero, 0x18952 <forward_DCT+0xca>
   18948: 31 9d        	c.addw	a0, a2
   1894a: 63 5a b5 00  	bge	a0, a1, 0x1895e <forward_DCT+0xd6>
   1894e: 01 45        	c.li	a0, 0x0
   18950: 31 a8        	c.j	0x1896c <forward_DCT+0xe4>
   18952: 3b 05 a6 40  	subw	a0, a2, a0
   18956: 63 57 b5 00  	bge	a0, a1, 0x18964 <forward_DCT+0xdc>
   1895a: 01 45        	c.li	a0, 0x0
   1895c: 31 a0        	c.j	0x18968 <forward_DCT+0xe0>
   1895e: ef 50 a1 56  	jal	ra, 0x2dec8 <__divdi3>
   18962: 29 a0        	c.j	0x1896c <forward_DCT+0xe4>
   18964: ef 50 41 56  	jal	ra, 0x2dec8 <__divdi3>
   18968: 3b 05 a0 40  	subw	a0, zero, a0
   1896c: 23 10 ac 00  	sh	a0, 0x0(s8)
   18970: 09 0c        	c.addi	s8, 0x2
   18972: 11 04        	c.addi	s0, 0x4
   18974: 91 04        	c.addi	s1, 0x4
   18976: e3 13 bc fd  	bne	s8, s11, 0x1893c <forward_DCT+0xb4>
   1897a: 85 0c        	c.addi	s9, 0x1
   1897c: a1 0b        	c.addi	s7, 0x8
   1897e: 13 09 09 08  	addi	s2, s2, 0x80
   18982: e3 9e 6c f3  	bne	s9, s6, 0x188be <forward_DCT+0x36>
   18986: 51 61        	c.addi16sp	sp, 0x110
   18988: 6f 50 41 4d  	jal	zero, 0x2de5c <__riscv_restore_12>

000000000001898c <forward_DCT_float>:
   1898c: 63 02 08 12  	beq	a6, zero, 0x18ab0 <forward_DCT_float+0x124>
   18990: ef 52 21 48  	jal	t0, 0x2de12 <__riscv_save_12>
   18994: 6d 71        	c.addi16sp	sp, -0x110
   18996: 22 a6        	c.fsdsp	fs0, 0x108(sp)
   18998: be 8b        	c.mv	s7, a5
   1899a: 36 89        	c.mv	s2, a3
   1899c: 03 35 05 1e  	ld	a0, 0x1e0(a0)
   189a0: 8c 49        	c.lw	a1, 0x10(a1)
   189a2: 01 4c        	c.li	s8, 0x0
   189a4: 83 39 85 03  	ld	s3, 0x38(a0)
   189a8: 8e 05        	c.slli	a1, 0x3
   189aa: 2e 95        	c.add	a0, a1
   189ac: 03 3a 05 04  	ld	s4, 0x40(a0)
   189b0: 02 17        	c.slli	a4, 0x20
   189b2: 75 83        	c.srli	a4, 0x1d
   189b4: b3 0a e6 00  	add	s5, a2, a4
   189b8: 02 18        	c.slli	a6, 0x20
   189ba: 07 a4 81 1d  	flw	fs0, 0x1d8(gp)
   189be: 13 5b 08 02  	srli	s6, a6, 0x20
   189c2: 13 0d 81 10  	addi	s10, sp, 0x108
   189c6: f1 7d        	c.lui	s11, 0xffffc
   189c8: b6 8c        	c.mv	s9, a3
   189ca: 13 15 7c 00  	slli	a0, s8, 0x7
   189ce: 4a 95        	c.add	a0, s2
   189d0: 13 04 05 08  	addi	s0, a0, 0x80
   189d4: 13 95 0b 02  	slli	a0, s7, 0x20
   189d8: 01 91        	c.srli	a0, 0x20
   189da: 2c 00        	c.addi4spn	a1, sp, 0x8
   189dc: 56 86        	c.mv	a2, s5
   189de: 14 62        	c.ld	a3, 0x0(a2)
   189e0: aa 96        	c.add	a3, a0
   189e2: 03 c7 06 00  	lbu	a4, 0x0(a3)
   189e6: 13 07 07 f8  	addi	a4, a4, -0x80
   189ea: d3 77 07 d0  	fcvt.s.w	fa5, a4, dyn
   189ee: 27 a0 f5 00  	fsw	fa5, 0x0(a1)
   189f2: 03 c7 16 00  	lbu	a4, 0x1(a3)
   189f6: 13 07 07 f8  	addi	a4, a4, -0x80
   189fa: d3 77 07 d0  	fcvt.s.w	fa5, a4, dyn
   189fe: 27 a2 f5 00  	fsw	fa5, 0x4(a1)
   18a02: 03 c7 26 00  	lbu	a4, 0x2(a3)
   18a06: 13 07 07 f8  	addi	a4, a4, -0x80
   18a0a: d3 77 07 d0  	fcvt.s.w	fa5, a4, dyn
   18a0e: 27 a4 f5 00  	fsw	fa5, 0x8(a1)
   18a12: 03 c7 36 00  	lbu	a4, 0x3(a3)
   18a16: 13 07 07 f8  	addi	a4, a4, -0x80
   18a1a: d3 77 07 d0  	fcvt.s.w	fa5, a4, dyn
   18a1e: 27 a6 f5 00  	fsw	fa5, 0xc(a1)
   18a22: 03 c7 46 00  	lbu	a4, 0x4(a3)
   18a26: 13 07 07 f8  	addi	a4, a4, -0x80
   18a2a: d3 77 07 d0  	fcvt.s.w	fa5, a4, dyn
   18a2e: 27 a8 f5 00  	fsw	fa5, 0x10(a1)
   18a32: 03 c7 56 00  	lbu	a4, 0x5(a3)
   18a36: 13 07 07 f8  	addi	a4, a4, -0x80
   18a3a: d3 77 07 d0  	fcvt.s.w	fa5, a4, dyn
   18a3e: 27 aa f5 00  	fsw	fa5, 0x14(a1)
   18a42: 03 c7 66 00  	lbu	a4, 0x6(a3)
   18a46: 13 07 07 f8  	addi	a4, a4, -0x80
   18a4a: d3 77 07 d0  	fcvt.s.w	fa5, a4, dyn
   18a4e: 27 ac f5 00  	fsw	fa5, 0x18(a1)
   18a52: 83 c6 76 00  	lbu	a3, 0x7(a3)
   18a56: 93 86 06 f8  	addi	a3, a3, -0x80
   18a5a: d3 f7 06 d0  	fcvt.s.w	fa5, a3, dyn
   18a5e: 27 ae f5 00  	fsw	fa5, 0x1c(a1)
   18a62: 93 85 05 02  	addi	a1, a1, 0x20
   18a66: 21 06        	c.addi	a2, 0x8
   18a68: e3 9b a5 f7  	bne	a1, s10, 0x189de <forward_DCT_float+0x52>
   18a6c: 28 00        	c.addi4spn	a0, sp, 0x8
   18a6e: 24 00        	c.addi4spn	s1, sp, 0x8
   18a70: 82 99        	c.jalr	s3
   18a72: 52 85        	c.mv	a0, s4
   18a74: e6 85        	c.mv	a1, s9
   18a76: 87 a7 04 00  	flw	fa5, 0x0(s1)
   18a7a: 07 27 05 00  	flw	fa4, 0x0(a0)
   18a7e: d3 f7 e7 10  	fmul.s	fa5, fa5, fa4, dyn
   18a82: d3 f7 87 00  	fadd.s	fa5, fa5, fs0, dyn
   18a86: 53 96 07 c0  	fcvt.w.s	a2, fa5, rtz
   18a8a: 6e 96        	c.add	a2, s11
   18a8c: 23 90 c5 00  	sh	a2, 0x0(a1)
   18a90: 89 05        	c.addi	a1, 0x2
   18a92: 11 05        	c.addi	a0, 0x4
   18a94: 91 04        	c.addi	s1, 0x4
   18a96: e3 90 85 fe  	bne	a1, s0, 0x18a76 <forward_DCT_float+0xea>
   18a9a: 05 0c        	c.addi	s8, 0x1
   18a9c: a1 0b        	c.addi	s7, 0x8
   18a9e: 93 8c 0c 08  	addi	s9, s9, 0x80
   18aa2: e3 14 6c f3  	bne	s8, s6, 0x189ca <forward_DCT_float+0x3e>
   18aa6: 32 24        	c.fldsp	fs0, 0x108(sp)
   18aa8: 51 61        	c.addi16sp	sp, 0x110
   18aaa: 6f 50 21 3b  	jal	zero, 0x2de5c <__riscv_restore_12>
   18aae: 09 a0        	c.j	0x18ab0 <forward_DCT_float+0x124>
   18ab0: 82 80        	c.jr	ra

0000000000018ab2 <jpeg_fdct_ifast>:
   18ab2: ef 52 21 37  	jal	t0, 0x2de24 <__riscv_save_9>
   18ab6: aa 84        	c.mv	s1, a0
   18ab8: 13 0a 05 10  	addi	s4, a0, 0x100
   18abc: 2a 84        	c.mv	s0, a0
   18abe: 08 40        	c.lw	a0, 0x0(s0)
   18ac0: 4c 4c        	c.lw	a1, 0x1c(s0)
   18ac2: 50 40        	c.lw	a2, 0x4(s0)
   18ac4: 14 4c        	c.lw	a3, 0x18(s0)
   18ac6: b3 88 a5 00  	add	a7, a1, a0
   18aca: 3b 0b b5 40  	subw	s6, a0, a1
   18ace: 33 88 c6 00  	add	a6, a3, a2
   18ad2: 0c 44        	c.lw	a1, 0x8(s0)
   18ad4: 5c 48        	c.lw	a5, 0x14(s0)
   18ad6: 48 44        	c.lw	a0, 0xc(s0)
   18ad8: 18 48        	c.lw	a4, 0x10(s0)
   18ada: bb 09 d6 40  	subw	s3, a2, a3
   18ade: 33 86 b7 00  	add	a2, a5, a1
   18ae2: 3b 89 f5 40  	subw	s2, a1, a5
   18ae6: b3 05 a7 00  	add	a1, a4, a0
   18aea: bb 0a e5 40  	subw	s5, a0, a4
   18aee: 33 85 15 01  	add	a0, a1, a7
   18af2: bb 8b b8 40  	subw	s7, a7, a1
   18af6: b3 05 06 01  	add	a1, a2, a6
   18afa: 3b 06 c8 40  	subw	a2, a6, a2
   18afe: b3 06 b5 00  	add	a3, a0, a1
   18b02: 14 c0        	c.sw	a3, 0x0(s0)
   18b04: 0d 9d        	c.subw	a0, a1
   18b06: 08 c8        	c.sw	a0, 0x10(s0)
   18b08: 3b 05 76 01  	addw	a0, a2, s7
   18b0c: 93 05 50 0b  	addi	a1, zero, 0xb5
   18b10: ef 50 81 37  	jal	ra, 0x2de88 <__muldi3>
   18b14: 21 81        	c.srli	a0, 0x8
   18b16: b3 85 ab 00  	add	a1, s7, a0
   18b1a: 0c c4        	c.sw	a1, 0x8(s0)
   18b1c: 3b 85 ab 40  	subw	a0, s7, a0
   18b20: 08 cc        	c.sw	a0, 0x18(s0)
   18b22: bb 8a 2a 01  	addw	s5, s5, s2
   18b26: 3b 09 39 01  	addw	s2, s2, s3
   18b2a: bb 89 69 01  	addw	s3, s3, s6
   18b2e: 3b 85 3a 41  	subw	a0, s5, s3
   18b32: 93 05 20 06  	addi	a1, zero, 0x62
   18b36: ef 50 21 35  	jal	ra, 0x2de88 <__muldi3>
   18b3a: 93 5b 85 00  	srli	s7, a0, 0x8
   18b3e: 93 05 b0 08  	addi	a1, zero, 0x8b
   18b42: 56 85        	c.mv	a0, s5
   18b44: ef 50 41 34  	jal	ra, 0x2de88 <__muldi3>
   18b48: 21 81        	c.srli	a0, 0x8
   18b4a: b3 8a ab 00  	add	s5, s7, a0
   18b4e: 93 05 e0 14  	addi	a1, zero, 0x14e
   18b52: 4e 85        	c.mv	a0, s3
   18b54: ef 50 41 33  	jal	ra, 0x2de88 <__muldi3>
   18b58: 21 81        	c.srli	a0, 0x8
   18b5a: aa 9b        	c.add	s7, a0
   18b5c: 93 05 50 0b  	addi	a1, zero, 0xb5
   18b60: 4a 85        	c.mv	a0, s2
   18b62: ef 50 61 32  	jal	ra, 0x2de88 <__muldi3>
   18b66: 21 81        	c.srli	a0, 0x8
   18b68: b3 05 ab 00  	add	a1, s6, a0
   18b6c: 3b 05 ab 40  	subw	a0, s6, a0
   18b70: 33 86 aa 00  	add	a2, s5, a0
   18b74: 50 c8        	c.sw	a2, 0x14(s0)
   18b76: 3b 05 55 41  	subw	a0, a0, s5
   18b7a: 48 c4        	c.sw	a0, 0xc(s0)
   18b7c: 33 85 bb 00  	add	a0, s7, a1
   18b80: 48 c0        	c.sw	a0, 0x4(s0)
   18b82: 3b 85 75 41  	subw	a0, a1, s7
   18b86: 48 cc        	c.sw	a0, 0x1c(s0)
   18b88: 13 04 04 02  	addi	s0, s0, 0x20
   18b8c: e3 19 44 f3  	bne	s0, s4, 0x18abe <jpeg_fdct_ifast+0xc>
   18b90: 13 8a 04 02  	addi	s4, s1, 0x20
   18b94: 88 40        	c.lw	a0, 0x0(s1)
   18b96: 83 a5 04 0e  	lw	a1, 0xe0(s1)
   18b9a: 90 50        	c.lw	a2, 0x20(s1)
   18b9c: 83 a6 04 0c  	lw	a3, 0xc0(s1)
   18ba0: 33 87 a5 00  	add	a4, a1, a0
   18ba4: bb 0a b5 40  	subw	s5, a0, a1
   18ba8: 33 88 c6 00  	add	a6, a3, a2
   18bac: ac 40        	c.lw	a1, 0x40(s1)
   18bae: 83 a7 04 0a  	lw	a5, 0xa0(s1)
   18bb2: a0 50        	c.lw	s0, 0x60(s1)
   18bb4: 03 a5 04 08  	lw	a0, 0x80(s1)
   18bb8: bb 09 d6 40  	subw	s3, a2, a3
   18bbc: 33 86 b7 00  	add	a2, a5, a1
   18bc0: 3b 89 f5 40  	subw	s2, a1, a5
   18bc4: b3 05 85 00  	add	a1, a0, s0
   18bc8: 3b 0b a4 40  	subw	s6, s0, a0
   18bcc: 33 85 e5 00  	add	a0, a1, a4
   18bd0: 3b 04 b7 40  	subw	s0, a4, a1
   18bd4: b3 05 06 01  	add	a1, a2, a6
   18bd8: 3b 06 c8 40  	subw	a2, a6, a2
   18bdc: b3 06 b5 00  	add	a3, a0, a1
   18be0: 94 c0        	c.sw	a3, 0x0(s1)
   18be2: 0d 9d        	c.subw	a0, a1
   18be4: 23 a0 a4 08  	sw	a0, 0x80(s1)
   18be8: 3b 05 86 00  	addw	a0, a2, s0
   18bec: 93 05 50 0b  	addi	a1, zero, 0xb5
   18bf0: ef 50 81 29  	jal	ra, 0x2de88 <__muldi3>
   18bf4: 21 81        	c.srli	a0, 0x8
   18bf6: b3 05 a4 00  	add	a1, s0, a0
   18bfa: ac c0        	c.sw	a1, 0x40(s1)
   18bfc: 09 9c        	c.subw	s0, a0
   18bfe: 23 a0 84 0c  	sw	s0, 0xc0(s1)
   18c02: 3b 04 2b 01  	addw	s0, s6, s2
   18c06: 3b 09 39 01  	addw	s2, s2, s3
   18c0a: bb 89 59 01  	addw	s3, s3, s5
   18c0e: 3b 05 34 41  	subw	a0, s0, s3
   18c12: 93 05 20 06  	addi	a1, zero, 0x62
   18c16: ef 50 21 27  	jal	ra, 0x2de88 <__muldi3>
   18c1a: 13 5b 85 00  	srli	s6, a0, 0x8
   18c1e: 93 05 b0 08  	addi	a1, zero, 0x8b
   18c22: 22 85        	c.mv	a0, s0
   18c24: ef 50 41 26  	jal	ra, 0x2de88 <__muldi3>
   18c28: 21 81        	c.srli	a0, 0x8
   18c2a: 33 04 ab 00  	add	s0, s6, a0
   18c2e: 93 05 e0 14  	addi	a1, zero, 0x14e
   18c32: 4e 85        	c.mv	a0, s3
   18c34: ef 50 41 25  	jal	ra, 0x2de88 <__muldi3>
   18c38: 21 81        	c.srli	a0, 0x8
   18c3a: 2a 9b        	c.add	s6, a0
   18c3c: 93 05 50 0b  	addi	a1, zero, 0xb5
   18c40: 4a 85        	c.mv	a0, s2
   18c42: ef 50 61 24  	jal	ra, 0x2de88 <__muldi3>
   18c46: 21 81        	c.srli	a0, 0x8
   18c48: b3 85 aa 00  	add	a1, s5, a0
   18c4c: 3b 85 aa 40  	subw	a0, s5, a0
   18c50: 33 06 a4 00  	add	a2, s0, a0
   18c54: 23 a0 c4 0a  	sw	a2, 0xa0(s1)
   18c58: 01 9d        	c.subw	a0, s0
   18c5a: a8 d0        	c.sw	a0, 0x60(s1)
   18c5c: 33 05 bb 00  	add	a0, s6, a1
   18c60: 88 d0        	c.sw	a0, 0x20(s1)
   18c62: 3b 85 65 41  	subw	a0, a1, s6
   18c66: 23 a0 a4 0e  	sw	a0, 0xe0(s1)
   18c6a: 91 04        	c.addi	s1, 0x4
   18c6c: e3 94 44 f3  	bne	s1, s4, 0x18b94 <jpeg_fdct_ifast+0xe2>
   18c70: 6f 50 61 1f  	jal	zero, 0x2de66 <__riscv_restore_9>

0000000000018c74 <jpeg_fdct_float>:
   18c74: 87 a7 c1 1d  	flw	fa5, 0x1dc(gp)
   18c78: 07 a7 01 1e  	flw	fa4, 0x1e0(gp)
   18c7c: 87 a6 41 1e  	flw	fa3, 0x1e4(gp)
   18c80: 07 a6 81 1e  	flw	fa2, 0x1e8(gp)
   18c84: 93 05 05 10  	addi	a1, a0, 0x100
   18c88: 2a 86        	c.mv	a2, a0
   18c8a: 87 25 06 00  	flw	fa1, 0x0(a2)
   18c8e: 07 25 c6 01  	flw	fa0, 0x1c(a2)
   18c92: 07 20 46 00  	flw	ft0, 0x4(a2)
   18c96: 87 20 86 01  	flw	ft1, 0x18(a2)
   18c9a: 53 f1 a5 00  	fadd.s	ft2, fa1, fa0, dyn
   18c9e: d3 f5 a5 08  	fsub.s	fa1, fa1, fa0, dyn
   18ca2: 53 75 10 00  	fadd.s	fa0, ft0, ft1, dyn
   18ca6: 87 21 86 00  	flw	ft3, 0x8(a2)
   18caa: 07 22 46 01  	flw	ft4, 0x14(a2)
   18cae: 87 22 c6 00  	flw	ft5, 0xc(a2)
   18cb2: 07 23 06 01  	flw	ft6, 0x10(a2)
   18cb6: 53 70 10 08  	fsub.s	ft0, ft0, ft1, dyn
   18cba: d3 f0 41 00  	fadd.s	ft1, ft3, ft4, dyn
   18cbe: d3 f1 41 08  	fsub.s	ft3, ft3, ft4, dyn
   18cc2: 53 f2 62 00  	fadd.s	ft4, ft5, ft6, dyn
   18cc6: d3 f2 62 08  	fsub.s	ft5, ft5, ft6, dyn
   18cca: 53 73 41 00  	fadd.s	ft6, ft2, ft4, dyn
   18cce: 53 71 41 08  	fsub.s	ft2, ft2, ft4, dyn
   18cd2: 53 72 15 00  	fadd.s	ft4, fa0, ft1, dyn
   18cd6: 53 75 15 08  	fsub.s	fa0, fa0, ft1, dyn
   18cda: d3 70 62 00  	fadd.s	ft1, ft4, ft6, dyn
   18cde: 27 20 16 00  	fsw	ft1, 0x0(a2)
   18ce2: d3 70 43 08  	fsub.s	ft1, ft6, ft4, dyn
   18ce6: 27 28 16 00  	fsw	ft1, 0x10(a2)
   18cea: 53 75 25 00  	fadd.s	fa0, fa0, ft2, dyn
   18cee: 53 75 f5 10  	fmul.s	fa0, fa0, fa5, dyn
   18cf2: d3 70 a1 00  	fadd.s	ft1, ft2, fa0, dyn
   18cf6: 27 24 16 00  	fsw	ft1, 0x8(a2)
   18cfa: 53 75 a1 08  	fsub.s	fa0, ft2, fa0, dyn
   18cfe: 27 2c a6 00  	fsw	fa0, 0x18(a2)
   18d02: 53 f5 51 00  	fadd.s	fa0, ft3, ft5, dyn
   18d06: d3 70 30 00  	fadd.s	ft1, ft0, ft3, dyn
   18d0a: 53 f0 05 00  	fadd.s	ft0, fa1, ft0, dyn
   18d0e: 53 71 05 08  	fsub.s	ft2, fa0, ft0, dyn
   18d12: 53 71 e1 10  	fmul.s	ft2, ft2, fa4, dyn
   18d16: 43 75 d5 10  	fmadd.s	fa0, fa0, fa3, ft2, dyn
   18d1a: 43 70 c0 10  	fmadd.s	ft0, ft0, fa2, ft2, dyn
   18d1e: d3 f0 f0 10  	fmul.s	ft1, ft1, fa5, dyn
   18d22: 53 f1 15 00  	fadd.s	ft2, fa1, ft1, dyn
   18d26: d3 f5 15 08  	fsub.s	fa1, fa1, ft1, dyn
   18d2a: d3 f0 a5 00  	fadd.s	ft1, fa1, fa0, dyn
   18d2e: 27 2a 16 00  	fsw	ft1, 0x14(a2)
   18d32: d3 f5 a5 08  	fsub.s	fa1, fa1, fa0, dyn
   18d36: 27 26 b6 00  	fsw	fa1, 0xc(a2)
   18d3a: d3 75 01 00  	fadd.s	fa1, ft2, ft0, dyn
   18d3e: 27 22 b6 00  	fsw	fa1, 0x4(a2)
   18d42: d3 75 01 08  	fsub.s	fa1, ft2, ft0, dyn
   18d46: 27 2e b6 00  	fsw	fa1, 0x1c(a2)
   18d4a: 13 06 06 02  	addi	a2, a2, 0x20
   18d4e: e3 1e b6 f2  	bne	a2, a1, 0x18c8a <jpeg_fdct_float+0x16>
   18d52: 87 a7 c1 1d  	flw	fa5, 0x1dc(gp)
   18d56: 07 a7 01 1e  	flw	fa4, 0x1e0(gp)
   18d5a: 87 a6 41 1e  	flw	fa3, 0x1e4(gp)
   18d5e: 07 a6 81 1e  	flw	fa2, 0x1e8(gp)
   18d62: 93 05 05 02  	addi	a1, a0, 0x20
   18d66: 87 25 05 00  	flw	fa1, 0x0(a0)
   18d6a: 07 25 05 0e  	flw	fa0, 0xe0(a0)
   18d6e: 07 20 05 02  	flw	ft0, 0x20(a0)
   18d72: 87 20 05 0c  	flw	ft1, 0xc0(a0)
   18d76: 53 f1 a5 00  	fadd.s	ft2, fa1, fa0, dyn
   18d7a: d3 f5 a5 08  	fsub.s	fa1, fa1, fa0, dyn
   18d7e: 53 75 10 00  	fadd.s	fa0, ft0, ft1, dyn
   18d82: 87 21 05 04  	flw	ft3, 0x40(a0)
   18d86: 07 22 05 0a  	flw	ft4, 0xa0(a0)
   18d8a: 87 22 05 06  	flw	ft5, 0x60(a0)
   18d8e: 07 23 05 08  	flw	ft6, 0x80(a0)
   18d92: 53 70 10 08  	fsub.s	ft0, ft0, ft1, dyn
   18d96: d3 f0 41 00  	fadd.s	ft1, ft3, ft4, dyn
   18d9a: d3 f1 41 08  	fsub.s	ft3, ft3, ft4, dyn
   18d9e: 53 f2 62 00  	fadd.s	ft4, ft5, ft6, dyn
   18da2: d3 f2 62 08  	fsub.s	ft5, ft5, ft6, dyn
   18da6: 53 73 41 00  	fadd.s	ft6, ft2, ft4, dyn
   18daa: 53 71 41 08  	fsub.s	ft2, ft2, ft4, dyn
   18dae: 53 72 15 00  	fadd.s	ft4, fa0, ft1, dyn
   18db2: 53 75 15 08  	fsub.s	fa0, fa0, ft1, dyn
   18db6: d3 70 62 00  	fadd.s	ft1, ft4, ft6, dyn
   18dba: 27 20 15 00  	fsw	ft1, 0x0(a0)
   18dbe: d3 70 43 08  	fsub.s	ft1, ft6, ft4, dyn
   18dc2: 27 20 15 08  	fsw	ft1, 0x80(a0)
   18dc6: 53 75 25 00  	fadd.s	fa0, fa0, ft2, dyn
   18dca: 53 75 f5 10  	fmul.s	fa0, fa0, fa5, dyn
   18dce: d3 70 a1 00  	fadd.s	ft1, ft2, fa0, dyn
   18dd2: 27 20 15 04  	fsw	ft1, 0x40(a0)
   18dd6: 53 75 a1 08  	fsub.s	fa0, ft2, fa0, dyn
   18dda: 27 20 a5 0c  	fsw	fa0, 0xc0(a0)
   18dde: 53 f5 51 00  	fadd.s	fa0, ft3, ft5, dyn
   18de2: d3 70 30 00  	fadd.s	ft1, ft0, ft3, dyn
   18de6: 53 f0 05 00  	fadd.s	ft0, fa1, ft0, dyn
   18dea: 53 71 05 08  	fsub.s	ft2, fa0, ft0, dyn
   18dee: 53 71 e1 10  	fmul.s	ft2, ft2, fa4, dyn
   18df2: 43 75 d5 10  	fmadd.s	fa0, fa0, fa3, ft2, dyn
   18df6: 43 70 c0 10  	fmadd.s	ft0, ft0, fa2, ft2, dyn
   18dfa: d3 f0 f0 10  	fmul.s	ft1, ft1, fa5, dyn
   18dfe: 53 f1 15 00  	fadd.s	ft2, fa1, ft1, dyn
   18e02: d3 f5 15 08  	fsub.s	fa1, fa1, ft1, dyn
   18e06: d3 f0 a5 00  	fadd.s	ft1, fa1, fa0, dyn
   18e0a: 27 20 15 0a  	fsw	ft1, 0xa0(a0)
   18e0e: d3 f5 a5 08  	fsub.s	fa1, fa1, fa0, dyn
   18e12: 27 20 b5 06  	fsw	fa1, 0x60(a0)
   18e16: d3 75 01 00  	fadd.s	fa1, ft2, ft0, dyn
   18e1a: 27 20 b5 02  	fsw	fa1, 0x20(a0)
   18e1e: d3 75 01 08  	fsub.s	fa1, ft2, ft0, dyn
   18e22: 27 20 b5 0e  	fsw	fa1, 0xe0(a0)
   18e26: 11 05        	c.addi	a0, 0x4
   18e28: e3 1f b5 f2  	bne	a0, a1, 0x18d66 <jpeg_fdct_float+0xf2>
   18e2c: 82 80        	c.jr	ra

0000000000018e2e <jpeg_fdct_islow>:
   18e2e: ef 42 51 7e  	jal	t0, 0x2de12 <__riscv_save_12>
   18e32: 59 71        	c.addi16sp	sp, -0x70
   18e34: 2a 8a        	c.mv	s4, a0
   18e36: 7d 75        	c.lui	a0, 0xfffff
   18e38: 1b 05 45 38  	addiw	a0, a0, 0x384
   18e3c: aa f4        	c.sdsp	a0, 0x68(sp)
   18e3e: 79 75        	c.lui	a0, 0xffffe
   18e40: 1b 05 35 33  	addiw	a0, a0, 0x333
   18e44: aa f0        	c.sdsp	a0, 0x60(sp)
   18e46: 71 75        	c.lui	a0, 0xffffc
   18e48: 1b 05 b5 13  	addiw	a0, a0, 0x13b
   18e4c: aa ec        	c.sdsp	a0, 0x58(sp)
   18e4e: 6d 75        	c.lui	a0, 0xffffb
   18e50: 1b 05 d5 df  	addiw	a0, a0, -0x203
   18e54: aa e8        	c.sdsp	a0, 0x50(sp)
   18e56: 19 65        	c.lui	a0, 0x6
   18e58: 1b 05 45 25  	addiw	a0, a0, 0x254
   18e5c: aa e4        	c.sdsp	a0, 0x48(sp)
   18e5e: 11 65        	c.lui	a0, 0x4
   18e60: 1b 05 35 1b  	addiw	a0, a0, 0x1b3
   18e64: aa e0        	c.sdsp	a0, 0x40(sp)
   18e66: 0d 65        	c.lui	a0, 0x3
   18e68: 2d 25        	c.addiw	a0, 0xb
   18e6a: 2a fc        	c.sdsp	a0, 0x38(sp)
   18e6c: 09 65        	c.lui	a0, 0x2
   18e6e: 1b 0d 15 5a  	addiw	s10, a0, 0x5a1
   18e72: 1b 05 e5 87  	addiw	a0, a0, -0x782
   18e76: 2a f4        	c.sdsp	a0, 0x28(sp)
   18e78: 05 65        	c.lui	a0, 0x1
   18e7a: 1b 05 e5 98  	addiw	a0, a0, -0x672
   18e7e: 93 05 0a 10  	addi	a1, s4, 0x100
   18e82: 2e e8        	c.sdsp	a1, 0x10(sp)
   18e84: 2a f0        	c.sdsp	a0, 0x20(sp)
   18e86: 93 08 35 7c  	addi	a7, a0, 0x7c3
   18e8a: 37 f5 4d fc  	lui	a0, 0xfc4df
   18e8e: 26 05        	c.slli	a0, 0x9
   18e90: 55 81        	c.srli	a0, 0x15
   18e92: 2a e4        	c.sdsp	a0, 0x8(sp)
   18e94: 52 84        	c.mv	s0, s4
   18e96: 6a f8        	c.sdsp	s10, 0x30(sp)
   18e98: 46 ec        	c.sdsp	a7, 0x18(sp)
   18e9a: 08 40        	c.lw	a0, 0x0(s0)
   18e9c: 4c 4c        	c.lw	a1, 0x1c(s0)
   18e9e: 50 40        	c.lw	a2, 0x4(s0)
   18ea0: 14 4c        	c.lw	a3, 0x18(s0)
   18ea2: 3b 87 a5 00  	addw	a4, a1, a0
   18ea6: bb 0c b5 40  	subw	s9, a0, a1
   18eaa: 3b 88 c6 00  	addw	a6, a3, a2
   18eae: 0c 44        	c.lw	a1, 0x8(s0)
   18eb0: 5c 48        	c.lw	a5, 0x14(s0)
   18eb2: 44 44        	c.lw	s1, 0xc(s0)
   18eb4: 08 48        	c.lw	a0, 0x10(s0)
   18eb6: bb 0d d6 40  	subw	s11, a2, a3
   18eba: 3b 86 b7 00  	addw	a2, a5, a1
   18ebe: bb 8a f5 40  	subw	s5, a1, a5
   18ec2: bb 05 95 00  	addw	a1, a0, s1
   18ec6: 3b 8b a4 40  	subw	s6, s1, a0
   18eca: 33 85 e5 00  	add	a0, a1, a4
   18ece: 33 09 b7 40  	sub	s2, a4, a1
   18ed2: b3 05 06 01  	add	a1, a2, a6
   18ed6: b3 0b c8 40  	sub	s7, a6, a2
   18eda: 33 06 b5 00  	add	a2, a0, a1
   18ede: 0a 06        	c.slli	a2, 0x2
   18ee0: 10 c0        	c.sw	a2, 0x0(s0)
   18ee2: 0d 9d        	c.subw	a0, a1
   18ee4: 0a 05        	c.slli	a0, 0x2
   18ee6: 08 c8        	c.sw	a0, 0x10(s0)
   18ee8: 33 05 79 01  	add	a0, s2, s7
   18eec: c6 85        	c.mv	a1, a7
   18eee: ef 40 b1 79  	jal	ra, 0x2de88 <__muldi3>
   18ef2: 2a 8c        	c.mv	s8, a0
   18ef4: 4a 85        	c.mv	a0, s2
   18ef6: a2 75        	c.ldsp	a1, 0x28(sp)
   18ef8: ef 40 11 79  	jal	ra, 0x2de88 <__muldi3>
   18efc: 93 04 0c 40  	addi	s1, s8, 0x400
   18f00: 26 95        	c.add	a0, s1
   18f02: 2d 81        	c.srli	a0, 0xb
   18f04: 08 c4        	c.sw	a0, 0x8(s0)
   18f06: 5e 85        	c.mv	a0, s7
   18f08: a2 65        	c.ldsp	a1, 0x8(sp)
   18f0a: ef 40 f1 77  	jal	ra, 0x2de88 <__muldi3>
   18f0e: 26 95        	c.add	a0, s1
   18f10: 2d 81        	c.srli	a0, 0xb
   18f12: 08 cc        	c.sw	a0, 0x18(s0)
   18f14: 33 09 9b 01  	add	s2, s6, s9
   18f18: b3 8b ba 01  	add	s7, s5, s11
   18f1c: 33 0c bb 01  	add	s8, s6, s11
   18f20: b3 89 9a 01  	add	s3, s5, s9
   18f24: 33 05 3c 01  	add	a0, s8, s3
   18f28: ea 85        	c.mv	a1, s10
   18f2a: ef 40 f1 75  	jal	ra, 0x2de88 <__muldi3>
   18f2e: 2a 8d        	c.mv	s10, a0
   18f30: 5a 85        	c.mv	a0, s6
   18f32: 82 75        	c.ldsp	a1, 0x20(sp)
   18f34: ef 40 51 75  	jal	ra, 0x2de88 <__muldi3>
   18f38: 2a 8b        	c.mv	s6, a0
   18f3a: 56 85        	c.mv	a0, s5
   18f3c: 86 65        	c.ldsp	a1, 0x40(sp)
   18f3e: ef 40 b1 74  	jal	ra, 0x2de88 <__muldi3>
   18f42: aa 8a        	c.mv	s5, a0
   18f44: 6e 85        	c.mv	a0, s11
   18f46: a6 65        	c.ldsp	a1, 0x48(sp)
   18f48: ef 40 11 74  	jal	ra, 0x2de88 <__muldi3>
   18f4c: aa 8d        	c.mv	s11, a0
   18f4e: 66 85        	c.mv	a0, s9
   18f50: e2 75        	c.ldsp	a1, 0x38(sp)
   18f52: ef 40 71 73  	jal	ra, 0x2de88 <__muldi3>
   18f56: aa 8c        	c.mv	s9, a0
   18f58: 4a 85        	c.mv	a0, s2
   18f5a: 86 75        	c.ldsp	a1, 0x60(sp)
   18f5c: ef 40 d1 72  	jal	ra, 0x2de88 <__muldi3>
   18f60: 2a 89        	c.mv	s2, a0
   18f62: 5e 85        	c.mv	a0, s7
   18f64: c6 65        	c.ldsp	a1, 0x50(sp)
   18f66: ef 40 31 72  	jal	ra, 0x2de88 <__muldi3>
   18f6a: aa 8b        	c.mv	s7, a0
   18f6c: 62 85        	c.mv	a0, s8
   18f6e: e6 65        	c.ldsp	a1, 0x58(sp)
   18f70: ef 40 91 71  	jal	ra, 0x2de88 <__muldi3>
   18f74: aa 84        	c.mv	s1, a0
   18f76: 4e 85        	c.mv	a0, s3
   18f78: a6 75        	c.ldsp	a1, 0x68(sp)
   18f7a: ef 40 f1 70  	jal	ra, 0x2de88 <__muldi3>
   18f7e: e2 68        	c.ldsp	a7, 0x18(sp)
   18f80: ea 94        	c.add	s1, s10
   18f82: 6a 95        	c.add	a0, s10
   18f84: 42 7d        	c.ldsp	s10, 0x30(sp)
   18f86: 93 05 09 40  	addi	a1, s2, 0x400
   18f8a: 2e 9b        	c.add	s6, a1
   18f8c: 26 9b        	c.add	s6, s1
   18f8e: 13 56 bb 00  	srli	a2, s6, 0xb
   18f92: 50 cc        	c.sw	a2, 0x1c(s0)
   18f94: 13 86 0b 40  	addi	a2, s7, 0x400
   18f98: b2 9a        	c.add	s5, a2
   18f9a: aa 9a        	c.add	s5, a0
   18f9c: 93 d6 ba 00  	srli	a3, s5, 0xb
   18fa0: 54 c8        	c.sw	a3, 0x14(s0)
   18fa2: 6e 96        	c.add	a2, s11
   18fa4: 26 96        	c.add	a2, s1
   18fa6: 2d 82        	c.srli	a2, 0xb
   18fa8: 50 c4        	c.sw	a2, 0xc(s0)
   18faa: e6 95        	c.add	a1, s9
   18fac: 2e 95        	c.add	a0, a1
   18fae: 2d 81        	c.srli	a0, 0xb
   18fb0: 48 c0        	c.sw	a0, 0x4(s0)
   18fb2: 13 04 04 02  	addi	s0, s0, 0x20
   18fb6: 42 65        	c.ldsp	a0, 0x10(sp)
   18fb8: e3 11 a4 ee  	bne	s0, a0, 0x18e9a <jpeg_fdct_islow+0x6c>
   18fbc: 13 05 0a 02  	addi	a0, s4, 0x20
   18fc0: 2a e8        	c.sdsp	a0, 0x10(sp)
   18fc2: 37 05 be 89  	lui	a0, 0x89be0
   18fc6: 45 81        	c.srli	a0, 0x11
   18fc8: 2a e4        	c.sdsp	a0, 0x8(sp)
   18fca: 03 25 0a 00  	lw	a0, 0x0(s4)
   18fce: 83 25 0a 0e  	lw	a1, 0xe0(s4)
   18fd2: 03 26 0a 02  	lw	a2, 0x20(s4)
   18fd6: 83 26 0a 0c  	lw	a3, 0xc0(s4)
   18fda: 3b 87 a5 00  	addw	a4, a1, a0
   18fde: bb 09 b5 40  	subw	s3, a0, a1
   18fe2: 3b 85 c6 00  	addw	a0, a3, a2
   18fe6: 83 25 0a 04  	lw	a1, 0x40(s4)
   18fea: 83 27 0a 0a  	lw	a5, 0xa0(s4)
   18fee: 83 24 0a 06  	lw	s1, 0x60(s4)
   18ff2: 03 24 0a 08  	lw	s0, 0x80(s4)
   18ff6: bb 0a d6 40  	subw	s5, a2, a3
   18ffa: 3b 86 b7 00  	addw	a2, a5, a1
   18ffe: 3b 89 f5 40  	subw	s2, a1, a5
   19002: bb 05 94 00  	addw	a1, s0, s1
   19006: 3b 8b 84 40  	subw	s6, s1, s0
   1900a: b3 86 e5 00  	add	a3, a1, a4
   1900e: b3 04 b7 40  	sub	s1, a4, a1
   19012: b3 05 a6 00  	add	a1, a2, a0
   19016: b3 0b c5 40  	sub	s7, a0, a2
   1901a: 33 85 d5 00  	add	a0, a1, a3
   1901e: 09 05        	c.addi	a0, 0x2
   19020: 09 81        	c.srli	a0, 0x2
   19022: 23 20 aa 00  	sw	a0, 0x0(s4)
   19026: 8d 8e        	c.sub	a3, a1
   19028: 89 06        	c.addi	a3, 0x2
   1902a: 89 82        	c.srli	a3, 0x2
   1902c: 23 20 da 08  	sw	a3, 0x80(s4)
   19030: 33 85 74 01  	add	a0, s1, s7
   19034: c6 85        	c.mv	a1, a7
   19036: ef 40 31 65  	jal	ra, 0x2de88 <__muldi3>
   1903a: 2a 8c        	c.mv	s8, a0
   1903c: 26 85        	c.mv	a0, s1
   1903e: a2 75        	c.ldsp	a1, 0x28(sp)
   19040: ef 40 91 64  	jal	ra, 0x2de88 <__muldi3>
   19044: 11 64        	c.lui	s0, 0x4
   19046: 22 9c        	c.add	s8, s0
   19048: 62 95        	c.add	a0, s8
   1904a: 3d 81        	c.srli	a0, 0xf
   1904c: 23 20 aa 04  	sw	a0, 0x40(s4)
   19050: 5e 85        	c.mv	a0, s7
   19052: a2 65        	c.ldsp	a1, 0x8(sp)
   19054: ef 40 51 63  	jal	ra, 0x2de88 <__muldi3>
   19058: 62 95        	c.add	a0, s8
   1905a: 3d 81        	c.srli	a0, 0xf
   1905c: 23 20 aa 0c  	sw	a0, 0xc0(s4)
   19060: 33 0c 3b 01  	add	s8, s6, s3
   19064: b3 0b 59 01  	add	s7, s2, s5
   19068: b3 0d 5b 01  	add	s11, s6, s5
   1906c: b3 0c 39 01  	add	s9, s2, s3
   19070: 33 85 9d 01  	add	a0, s11, s9
   19074: ea 85        	c.mv	a1, s10
   19076: ef 40 31 61  	jal	ra, 0x2de88 <__muldi3>
   1907a: 2a 8d        	c.mv	s10, a0
   1907c: 5a 85        	c.mv	a0, s6
   1907e: 82 75        	c.ldsp	a1, 0x20(sp)
   19080: ef 40 91 60  	jal	ra, 0x2de88 <__muldi3>
   19084: 2a 8b        	c.mv	s6, a0
   19086: 4a 85        	c.mv	a0, s2
   19088: 86 65        	c.ldsp	a1, 0x40(sp)
   1908a: ef 40 f1 5f  	jal	ra, 0x2de88 <__muldi3>
   1908e: 2a 89        	c.mv	s2, a0
   19090: 56 85        	c.mv	a0, s5
   19092: a6 65        	c.ldsp	a1, 0x48(sp)
   19094: ef 40 51 5f  	jal	ra, 0x2de88 <__muldi3>
   19098: aa 8a        	c.mv	s5, a0
   1909a: 4e 85        	c.mv	a0, s3
   1909c: e2 75        	c.ldsp	a1, 0x38(sp)
   1909e: ef 40 b1 5e  	jal	ra, 0x2de88 <__muldi3>
   190a2: aa 89        	c.mv	s3, a0
   190a4: 62 85        	c.mv	a0, s8
   190a6: 86 75        	c.ldsp	a1, 0x60(sp)
   190a8: ef 40 11 5e  	jal	ra, 0x2de88 <__muldi3>
   190ac: 2a 8c        	c.mv	s8, a0
   190ae: 5e 85        	c.mv	a0, s7
   190b0: c6 65        	c.ldsp	a1, 0x50(sp)
   190b2: ef 40 71 5d  	jal	ra, 0x2de88 <__muldi3>
   190b6: aa 8b        	c.mv	s7, a0
   190b8: 6e 85        	c.mv	a0, s11
   190ba: e6 65        	c.ldsp	a1, 0x58(sp)
   190bc: ef 40 d1 5c  	jal	ra, 0x2de88 <__muldi3>
   190c0: aa 84        	c.mv	s1, a0
   190c2: 66 85        	c.mv	a0, s9
   190c4: a6 75        	c.ldsp	a1, 0x68(sp)
   190c6: ef 40 31 5c  	jal	ra, 0x2de88 <__muldi3>
   190ca: e2 68        	c.ldsp	a7, 0x18(sp)
   190cc: ea 94        	c.add	s1, s10
   190ce: 6a 95        	c.add	a0, s10
   190d0: 42 7d        	c.ldsp	s10, 0x30(sp)
   190d2: 22 9c        	c.add	s8, s0
   190d4: 62 9b        	c.add	s6, s8
   190d6: 26 9b        	c.add	s6, s1
   190d8: 93 55 fb 00  	srli	a1, s6, 0xf
   190dc: 23 20 ba 0e  	sw	a1, 0xe0(s4)
   190e0: a2 9b        	c.add	s7, s0
   190e2: 5e 99        	c.add	s2, s7
   190e4: 2a 99        	c.add	s2, a0
   190e6: 93 55 f9 00  	srli	a1, s2, 0xf
   190ea: 23 20 ba 0a  	sw	a1, 0xa0(s4)
   190ee: de 9a        	c.add	s5, s7
   190f0: d6 94        	c.add	s1, s5
   190f2: bd 80        	c.srli	s1, 0xf
   190f4: 23 20 9a 06  	sw	s1, 0x60(s4)
   190f8: e2 99        	c.add	s3, s8
   190fa: 4e 95        	c.add	a0, s3
   190fc: 3d 81        	c.srli	a0, 0xf
   190fe: 23 20 aa 02  	sw	a0, 0x20(s4)
   19102: 11 0a        	c.addi	s4, 0x4
   19104: 42 65        	c.ldsp	a0, 0x10(sp)
   19106: e3 12 aa ec  	bne	s4, a0, 0x18fca <jpeg_fdct_islow+0x19c>
   1910a: 65 61        	c.addi16sp	sp, 0x70
   1910c: 6f 40 11 55  	jal	zero, 0x2de5c <__riscv_restore_12>

0000000000019110 <jpeg_abort>:
   19110: ef 42 51 54  	jal	t0, 0x2de54 <__riscv_save_1>
   19114: 2a 84        	c.mv	s0, a0
   19116: 08 65        	c.ld	a0, 0x8(a0)
   19118: 30 65        	c.ld	a2, 0x48(a0)
   1911a: 85 45        	c.li	a1, 0x1
   1911c: 22 85        	c.mv	a0, s0
   1911e: 02 96        	c.jalr	a2
   19120: 0c 4c        	c.lw	a1, 0x18(s0)
   19122: 13 05 40 06  	addi	a0, zero, 0x64
   19126: 99 c1        	c.beqz	a1, 0x1912c <jpeg_abort+0x1c>
   19128: 13 05 80 0c  	addi	a0, zero, 0xc8
   1912c: 48 cc        	c.sw	a0, 0x1c(s0)
   1912e: 6f 40 11 55  	jal	zero, 0x2de7e <__riscv_restore_1>

0000000000019132 <jpeg_destroy>:
   19132: ef 42 31 52  	jal	t0, 0x2de54 <__riscv_save_1>
   19136: 2a 84        	c.mv	s0, a0
   19138: 08 65        	c.ld	a0, 0x8(a0)
   1913a: 01 c5        	c.beqz	a0, 0x19142 <jpeg_destroy+0x10>
   1913c: 2c 69        	c.ld	a1, 0x50(a0)
   1913e: 22 85        	c.mv	a0, s0
   19140: 82 95        	c.jalr	a1
   19142: 23 34 04 00  	sd	zero, 0x8(s0)
   19146: 23 2e 04 00  	sw	zero, 0x1c(s0)
   1914a: 6f 40 51 53  	jal	zero, 0x2de7e <__riscv_restore_1>

000000000001914e <jpeg_alloc_quant_table>:
   1914e: ef 42 71 50  	jal	t0, 0x2de54 <__riscv_save_1>
   19152: 0c 65        	c.ld	a1, 0x8(a0)
   19154: 94 61        	c.ld	a3, 0x0(a1)
   19156: 13 06 40 08  	addi	a2, zero, 0x84
   1915a: 81 45        	c.li	a1, 0x0
   1915c: 82 96        	c.jalr	a3
   1915e: 23 20 05 08  	sw	zero, 0x80(a0)
   19162: 6f 40 d1 51  	jal	zero, 0x2de7e <__riscv_restore_1>

0000000000019166 <jpeg_alloc_huff_table>:
   19166: ef 42 f1 4e  	jal	t0, 0x2de54 <__riscv_save_1>
   1916a: 0c 65        	c.ld	a1, 0x8(a0)
   1916c: 94 61        	c.ld	a3, 0x0(a1)
   1916e: 13 06 80 11  	addi	a2, zero, 0x118
   19172: 81 45        	c.li	a1, 0x0
   19174: 82 96        	c.jalr	a3
   19176: 23 2a 05 10  	sw	zero, 0x114(a0)
   1917a: 6f 40 51 50  	jal	zero, 0x2de7e <__riscv_restore_1>

000000000001917e <jdiv_round_up>:
   1917e: 2e 95        	c.add	a0, a1
   19180: 7d 15        	c.addi	a0, -0x1
   19182: 6f 40 71 54  	jal	zero, 0x2dec8 <__divdi3>

0000000000019186 <jround_up>:
   19186: ef 42 f1 4c  	jal	t0, 0x2de54 <__riscv_save_1>
   1918a: 2e 95        	c.add	a0, a1
   1918c: 13 04 f5 ff  	addi	s0, a0, -0x1
   19190: 22 85        	c.mv	a0, s0
   19192: ef 40 31 59  	jal	ra, 0x2df24 <__modsi3>
   19196: 33 05 a4 40  	sub	a0, s0, a0
   1919a: 6f 40 51 4e  	jal	zero, 0x2de7e <__riscv_restore_1>

000000000001919e <jcopy_sample_rows>:
   1919e: 63 55 e0 04  	bge	zero, a4, 0x191e8 <jcopy_sample_rows+0x4a>
   191a2: ef 42 71 49  	jal	t0, 0x2de38 <__riscv_save_5>
   191a6: 82 17        	c.slli	a5, 0x20
   191a8: 13 d9 07 02  	srli	s2, a5, 0x20
   191ac: 93 94 36 00  	slli	s1, a3, 0x3
   191b0: b3 06 96 00  	add	a3, a2, s1
   191b4: 8e 05        	c.slli	a1, 0x3
   191b6: b3 07 b5 00  	add	a5, a0, a1
   191ba: 7d 17        	c.addi	a4, -0x1
   191bc: 02 17        	c.slli	a4, 0x20
   191be: 75 83        	c.srli	a4, 0x1d
   191c0: 26 96        	c.add	a2, s1
   191c2: 3a 96        	c.add	a2, a4
   191c4: 93 09 86 00  	addi	s3, a2, 0x8
   191c8: 8c 63        	c.ld	a1, 0x0(a5)
   191ca: 88 62        	c.ld	a0, 0x0(a3)
   191cc: 13 84 87 00  	addi	s0, a5, 0x8
   191d0: 93 84 86 00  	addi	s1, a3, 0x8
   191d4: 4a 86        	c.mv	a2, s2
   191d6: ef 20 f0 34  	jal	ra, 0x1bd24 <memcpy>
   191da: a2 87        	c.mv	a5, s0
   191dc: a6 86        	c.mv	a3, s1
   191de: e3 95 34 ff  	bne	s1, s3, 0x191c8 <jcopy_sample_rows+0x2a>
   191e2: 6f 40 11 49  	jal	zero, 0x2de72 <__riscv_restore_5>
   191e6: 09 a0        	c.j	0x191e8 <jcopy_sample_rows+0x4a>
   191e8: 82 80        	c.jr	ra

00000000000191ea <jcopy_block_row>:
   191ea: 02 16        	c.slli	a2, 0x20
   191ec: 65 82        	c.srli	a2, 0x19
   191ee: aa 86        	c.mv	a3, a0
   191f0: 2e 85        	c.mv	a0, a1
   191f2: b6 85        	c.mv	a1, a3
   191f4: 6f 20 10 33  	jal	zero, 0x1bd24 <memcpy>

00000000000191f8 <jzero_far>:
   191f8: 2e 86        	c.mv	a2, a1
   191fa: 81 45        	c.li	a1, 0x0
   191fc: 6f 20 f0 27  	jal	zero, 0x1bc7a <memset>

0000000000019200 <jpeg_std_error>:
   19200: b7 95 01 00  	lui	a1, 0x19
   19204: 93 85 a5 25  	addi	a1, a1, 0x25a
   19208: 0c e1        	c.sd	a1, 0x0(a0)
   1920a: b7 95 01 00  	lui	a1, 0x19
   1920e: 93 85 45 27  	addi	a1, a1, 0x274
   19212: 0c e5        	c.sd	a1, 0x8(a0)
   19214: b7 95 01 00  	lui	a1, 0x19
   19218: 93 85 e5 2a  	addi	a1, a1, 0x2ae
   1921c: 0c e9        	c.sd	a1, 0x10(a0)
   1921e: b7 95 01 00  	lui	a1, 0x19
   19222: 93 85 65 2d  	addi	a1, a1, 0x2d6
   19226: 0c ed        	c.sd	a1, 0x18(a0)
   19228: b7 95 01 00  	lui	a1, 0x19
   1922c: 93 85 e5 37  	addi	a1, a1, 0x37e
   19230: 0c f1        	c.sd	a1, 0x20(a0)
   19232: 23 2e 05 06  	sw	zero, 0x7c(a0)
   19236: 23 30 05 08  	sd	zero, 0x80(a0)
   1923a: 23 24 05 02  	sw	zero, 0x28(a0)
   1923e: b7 05 03 00  	lui	a1, 0x30
   19242: 93 85 05 41  	addi	a1, a1, 0x410
   19246: 4c e5        	c.sd	a1, 0x88(a0)
   19248: 93 05 70 07  	addi	a1, zero, 0x77
   1924c: 23 28 b5 08  	sw	a1, 0x90(a0)
   19250: 23 3c 05 08  	sd	zero, 0x98(a0)
   19254: 23 30 05 0a  	sd	zero, 0xa0(a0)
   19258: 82 80        	c.jr	ra

000000000001925a <error_exit>:
   1925a: ef 42 b1 3f  	jal	t0, 0x2de54 <__riscv_save_1>
   1925e: 2a 84        	c.mv	s0, a0
   19260: 08 61        	c.ld	a0, 0x0(a0)
   19262: 0c 69        	c.ld	a1, 0x10(a0)
   19264: 22 85        	c.mv	a0, s0
   19266: 82 95        	c.jalr	a1
   19268: 22 85        	c.mv	a0, s0
   1926a: ef f0 9f ec  	jal	ra, 0x19132 <jpeg_destroy>
   1926e: 05 45        	c.li	a0, 0x1
   19270: ef 60 1f eb  	jal	ra, 0x10120 <exit>

0000000000019274 <emit_message>:
   19274: 41 11        	c.addi	sp, -0x10
   19276: 06 e4        	c.sdsp	ra, 0x8(sp)
   19278: 22 e0        	c.sdsp	s0, 0x0(sp)
   1927a: 00 61        	c.ld	s0, 0x0(a0)
   1927c: 63 ca 05 00  	blt	a1, zero, 0x19290 <emit_message+0x1c>
   19280: 70 5c        	c.lw	a2, 0x7c(s0)
   19282: 63 42 b6 02  	blt	a2, a1, 0x192a6 <emit_message+0x32>
   19286: 1c 68        	c.ld	a5, 0x10(s0)
   19288: a2 60        	c.ldsp	ra, 0x8(sp)
   1928a: 02 64        	c.ldsp	s0, 0x0(sp)
   1928c: 41 01        	c.addi	sp, 0x10
   1928e: 82 87        	c.jr	a5
   19290: 4c 60        	c.ld	a1, 0x80(s0)
   19292: 89 c5        	c.beqz	a1, 0x1929c <emit_message+0x28>
   19294: 70 5c        	c.lw	a2, 0x7c(s0)
   19296: 8d 46        	c.li	a3, 0x3
   19298: 63 45 d6 00  	blt	a2, a3, 0x192a2 <emit_message+0x2e>
   1929c: 0c 68        	c.ld	a1, 0x10(s0)
   1929e: 82 95        	c.jalr	a1
   192a0: 4c 60        	c.ld	a1, 0x80(s0)
   192a2: 85 05        	c.addi	a1, 0x1
   192a4: 4c e0        	c.sd	a1, 0x80(s0)
   192a6: a2 60        	c.ldsp	ra, 0x8(sp)
   192a8: 02 64        	c.ldsp	s0, 0x0(sp)
   192aa: 41 01        	c.addi	sp, 0x10
   192ac: 82 80        	c.jr	ra

00000000000192ae <output_message>:
   192ae: ef 42 71 3a  	jal	t0, 0x2de54 <__riscv_save_1>
   192b2: 55 71        	c.addi16sp	sp, -0xd0
   192b4: 0c 61        	c.ld	a1, 0x0(a0)
   192b6: 90 6d        	c.ld	a2, 0x18(a1)
   192b8: 2c 00        	c.addi4spn	a1, sp, 0x8
   192ba: 02 96        	c.jalr	a2
   192bc: 03 b5 01 20  	ld	a0, 0x200(gp)
   192c0: 08 6d        	c.ld	a0, 0x18(a0)
   192c2: b7 e5 02 00  	lui	a1, 0x2e
   192c6: 93 85 55 58  	addi	a1, a1, 0x585
   192ca: 30 00        	c.addi4spn	a2, sp, 0x8
   192cc: ef 10 b0 16  	jal	ra, 0x1ac36 <fprintf>
   192d0: 69 61        	c.addi16sp	sp, 0xd0
   192d2: 6f 40 d1 3a  	jal	zero, 0x2de7e <__riscv_restore_1>

00000000000192d6 <format_message>:
   192d6: 01 11        	c.addi	sp, -0x20
   192d8: 06 ec        	c.sdsp	ra, 0x18(sp)
   192da: 83 32 05 00  	ld	t0, 0x0(a0)
   192de: 03 a6 82 02  	lw	a2, 0x28(t0)
   192e2: 2e 85        	c.mv	a0, a1
   192e4: 63 56 c0 00  	bge	zero, a2, 0x192f0 <format_message+0x1a>
   192e8: 83 a5 02 09  	lw	a1, 0x90(t0)
   192ec: 63 d1 c5 02  	bge	a1, a2, 0x1930e <format_message+0x38>
   192f0: 83 b5 82 09  	ld	a1, 0x98(t0)
   192f4: 85 c5        	c.beqz	a1, 0x1931c <format_message+0x46>
   192f6: 83 a6 02 0a  	lw	a3, 0xa0(t0)
   192fa: 63 41 d6 02  	blt	a2, a3, 0x1931c <format_message+0x46>
   192fe: 03 a7 42 0a  	lw	a4, 0xa4(t0)
   19302: 63 4d c7 00  	blt	a4, a2, 0x1931c <format_message+0x46>
   19306: bb 06 d6 40  	subw	a3, a2, a3
   1930a: 8e 06        	c.slli	a3, 0x3
   1930c: 29 a0        	c.j	0x19316 <format_message+0x40>
   1930e: 83 b5 82 08  	ld	a1, 0x88(t0)
   19312: 93 16 36 00  	slli	a3, a2, 0x3
   19316: b6 95        	c.add	a1, a3
   19318: 8c 61        	c.ld	a1, 0x0(a1)
   1931a: 91 e5        	c.bnez	a1, 0x19326 <format_message+0x50>
   1931c: 83 b5 82 08  	ld	a1, 0x88(t0)
   19320: 23 a6 c2 02  	sw	a2, 0x2c(t0)
   19324: 8c 61        	c.ld	a1, 0x0(a1)
   19326: 93 06 50 02  	addi	a3, zero, 0x25
   1932a: 2e 86        	c.mv	a2, a1
   1932c: 03 47 06 00  	lbu	a4, 0x0(a2)
   19330: 05 c3        	c.beqz	a4, 0x19350 <format_message+0x7a>
   19332: 05 06        	c.addi	a2, 0x1
   19334: e3 1c d7 fe  	bne	a4, a3, 0x1932c <format_message+0x56>
   19338: 03 46 06 00  	lbu	a2, 0x0(a2)
   1933c: 93 06 30 07  	addi	a3, zero, 0x73
   19340: 63 18 d6 00  	bne	a2, a3, 0x19350 <format_message+0x7a>
   19344: 13 86 c2 02  	addi	a2, t0, 0x2c
   19348: e2 60        	c.ldsp	ra, 0x18(sp)
   1934a: 05 61        	c.addi16sp	sp, 0x20
   1934c: 6f 10 d0 73  	jal	zero, 0x1b288 <sprintf>
   19350: 03 a6 c2 02  	lw	a2, 0x2c(t0)
   19354: 83 a6 02 03  	lw	a3, 0x30(t0)
   19358: 03 a7 42 03  	lw	a4, 0x34(t0)
   1935c: 83 a7 82 03  	lw	a5, 0x38(t0)
   19360: 03 a8 c2 03  	lw	a6, 0x3c(t0)
   19364: 83 a8 02 04  	lw	a7, 0x40(t0)
   19368: 03 a3 42 04  	lw	t1, 0x44(t0)
   1936c: 83 a2 82 04  	lw	t0, 0x48(t0)
   19370: 16 e4        	c.sdsp	t0, 0x8(sp)
   19372: 1a e0        	c.sdsp	t1, 0x0(sp)
   19374: ef 10 50 71  	jal	ra, 0x1b288 <sprintf>
   19378: e2 60        	c.ldsp	ra, 0x18(sp)
   1937a: 05 61        	c.addi16sp	sp, 0x20
   1937c: 82 80        	c.jr	ra

000000000001937e <reset_error_mgr>:
   1937e: 08 61        	c.ld	a0, 0x0(a0)
   19380: 23 30 05 08  	sd	zero, 0x80(a0)
   19384: 23 24 05 02  	sw	zero, 0x28(a0)
   19388: 82 80        	c.jr	ra

000000000001938a <jinit_memory_mgr>:
   1938a: ef 42 f1 2a  	jal	t0, 0x2de38 <__riscv_save_5>
   1938e: 41 11        	c.addi	sp, -0x10
   19390: aa 84        	c.mv	s1, a0
   19392: 23 34 05 00  	sd	zero, 0x8(a0)
   19396: ef 00 d0 37  	jal	ra, 0x19f12 <jpeg_mem_init>
   1939a: 2a 89        	c.mv	s2, a0
   1939c: 2a e4        	c.sdsp	a0, 0x8(sp)
   1939e: 93 05 00 0a  	addi	a1, zero, 0xa0
   193a2: 93 09 00 0a  	addi	s3, zero, 0xa0
   193a6: 26 85        	c.mv	a0, s1
   193a8: ef 00 30 34  	jal	ra, 0x19eea <jpeg_get_small>
   193ac: 2a 84        	c.mv	s0, a0
   193ae: 01 ed        	c.bnez	a0, 0x193c6 <jinit_memory_mgr+0x3c>
   193b0: 26 85        	c.mv	a0, s1
   193b2: ef 00 50 36  	jal	ra, 0x19f16 <jpeg_mem_term>
   193b6: 88 60        	c.ld	a0, 0x0(s1)
   193b8: 93 05 50 03  	addi	a1, zero, 0x35
   193bc: 0c f5        	c.sd	a1, 0x28(a0)
   193be: 88 60        	c.ld	a0, 0x0(s1)
   193c0: 0c 61        	c.ld	a1, 0x0(a0)
   193c2: 26 85        	c.mv	a0, s1
   193c4: 82 95        	c.jalr	a1
   193c6: 37 95 01 00  	lui	a0, 0x19
   193ca: 13 05 65 4a  	addi	a0, a0, 0x4a6
   193ce: 08 e0        	c.sd	a0, 0x0(s0)
   193d0: 37 95 01 00  	lui	a0, 0x19
   193d4: 13 05 c5 5c  	addi	a0, a0, 0x5cc
   193d8: 08 e4        	c.sd	a0, 0x8(s0)
   193da: 37 95 01 00  	lui	a0, 0x19
   193de: 13 05 45 66  	addi	a0, a0, 0x664
   193e2: 08 e8        	c.sd	a0, 0x10(s0)
   193e4: 37 95 01 00  	lui	a0, 0x19
   193e8: 13 05 c5 70  	addi	a0, a0, 0x70c
   193ec: 08 ec        	c.sd	a0, 0x18(s0)
   193ee: 37 95 01 00  	lui	a0, 0x19
   193f2: 13 05 45 7c  	addi	a0, a0, 0x7c4
   193f6: 08 f0        	c.sd	a0, 0x20(s0)
   193f8: 37 a5 01 00  	lui	a0, 0x1a
   193fc: 13 05 05 82  	addi	a0, a0, -0x7e0
   19400: 08 f4        	c.sd	a0, 0x28(s0)
   19402: 37 a5 01 00  	lui	a0, 0x1a
   19406: 13 05 c5 87  	addi	a0, a0, -0x784
   1940a: 08 f8        	c.sd	a0, 0x30(s0)
   1940c: 37 a5 01 00  	lui	a0, 0x1a
   19410: 13 05 85 a0  	addi	a0, a0, -0x5f8
   19414: 08 fc        	c.sd	a0, 0x38(s0)
   19416: 37 a5 01 00  	lui	a0, 0x1a
   1941a: 13 05 a5 b4  	addi	a0, a0, -0x4b6
   1941e: 28 e0        	c.sd	a0, 0x40(s0)
   19420: 37 a5 01 00  	lui	a0, 0x1a
   19424: 13 05 e5 c8  	addi	a0, a0, -0x372
   19428: 28 e4        	c.sd	a0, 0x48(s0)
   1942a: 37 a5 01 00  	lui	a0, 0x1a
   1942e: 13 05 25 d6  	addi	a0, a0, -0x29e
   19432: 28 e8        	c.sd	a0, 0x50(s0)
   19434: 23 3c 24 05  	sd	s2, 0x58(s0)
   19438: 13 05 04 06  	addi	a0, s0, 0x60
   1943c: 13 06 00 03  	addi	a2, zero, 0x30
   19440: 81 45        	c.li	a1, 0x0
   19442: ef 20 90 03  	jal	ra, 0x1bc7a <memset>
   19446: 23 38 34 09  	sd	s3, 0x90(s0)
   1944a: 80 e4        	c.sd	s0, 0x8(s1)
   1944c: 37 05 03 00  	lui	a0, 0x30
   19450: 13 05 b5 ca  	addi	a0, a0, -0x355
   19454: ef 00 10 2d  	jal	ra, 0x19f24 <getenv>
   19458: 21 c5        	c.beqz	a0, 0x194a0 <jinit_memory_mgr+0x116>
   1945a: 93 05 80 07  	addi	a1, zero, 0x78
   1945e: a3 03 b1 00  	sb	a1, 0x7(sp)
   19462: b7 e5 02 00  	lui	a1, 0x2e
   19466: 93 85 75 5d  	addi	a1, a1, 0x5d7
   1946a: 30 00        	c.addi4spn	a2, sp, 0x8
   1946c: 93 06 71 00  	addi	a3, sp, 0x7
   19470: ef 10 10 66  	jal	ra, 0x1b2d0 <sscanf>
   19474: 63 56 a0 02  	bge	zero, a0, 0x194a0 <jinit_memory_mgr+0x116>
   19478: 03 45 71 00  	lbu	a0, 0x7(sp)
   1947c: a2 64        	c.ldsp	s1, 0x8(sp)
   1947e: 13 79 f5 0d  	andi	s2, a0, 0xdf
   19482: 93 05 80 3e  	addi	a1, zero, 0x3e8
   19486: 26 85        	c.mv	a0, s1
   19488: ef 40 11 20  	jal	ra, 0x2de88 <__muldi3>
   1948c: 93 05 d0 04  	addi	a1, zero, 0x4d
   19490: 63 03 b9 00  	beq	s2, a1, 0x19496 <jinit_memory_mgr+0x10c>
   19494: 26 85        	c.mv	a0, s1
   19496: 93 05 80 3e  	addi	a1, zero, 0x3e8
   1949a: ef 40 f1 1e  	jal	ra, 0x2de88 <__muldi3>
   1949e: 28 ec        	c.sd	a0, 0x58(s0)
   194a0: 41 01        	c.addi	sp, 0x10
   194a2: 6f 40 11 1d  	jal	zero, 0x2de72 <__riscv_restore_5>

00000000000194a6 <alloc_small>:
   194a6: ef 42 51 17  	jal	t0, 0x2de1a <__riscv_save_11>
   194aa: 2a 8b        	c.mv	s6, a0
   194ac: 83 39 85 00  	ld	s3, 0x8(a0)
   194b0: 37 d5 9a 3b  	lui	a0, 0x3b9ad
   194b4: 1b 05 95 9e  	addiw	a0, a0, -0x617
   194b8: b2 84        	c.mv	s1, a2
   194ba: 2e 89        	c.mv	s2, a1
   194bc: 63 6e a6 00  	bltu	a2, a0, 0x194d8 <alloc_small+0x32>
   194c0: 03 35 0b 00  	ld	a0, 0x0(s6)
   194c4: 85 45        	c.li	a1, 0x1
   194c6: 82 15        	c.slli	a1, 0x20
   194c8: 93 85 55 03  	addi	a1, a1, 0x35
   194cc: 0c f5        	c.sd	a1, 0x28(a0)
   194ce: 03 35 0b 00  	ld	a0, 0x0(s6)
   194d2: 0c 61        	c.ld	a1, 0x0(a0)
   194d4: 5a 85        	c.mv	a0, s6
   194d6: 82 95        	c.jalr	a1
   194d8: 09 45        	c.li	a0, 0x2
   194da: 9d 04        	c.addi	s1, 0x7
   194dc: 63 6d a9 00  	bltu	s2, a0, 0x194f6 <alloc_small+0x50>
   194e0: 03 35 0b 00  	ld	a0, 0x0(s6)
   194e4: 23 26 25 03  	sw	s2, 0x2c(a0)
   194e8: 83 35 0b 00  	ld	a1, 0x0(s6)
   194ec: 8c 61        	c.ld	a1, 0x0(a1)
   194ee: 31 46        	c.li	a2, 0xc
   194f0: 10 d5        	c.sw	a2, 0x28(a0)
   194f2: 5a 85        	c.mv	a0, s6
   194f4: 82 95        	c.jalr	a1
   194f6: 93 1a 39 00  	slli	s5, s2, 0x3
   194fa: ce 9a        	c.add	s5, s3
   194fc: 03 b5 0a 06  	ld	a0, 0x60(s5)
   19500: 13 fa 84 ff  	andi	s4, s1, -0x8
   19504: 19 cd        	c.beqz	a0, 0x19522 <alloc_small+0x7c>
   19506: aa 8b        	c.mv	s7, a0
   19508: 08 69        	c.ld	a0, 0x10(a0)
   1950a: 63 73 45 0b  	bgeu	a0, s4, 0x195b0 <alloc_small+0x10a>
   1950e: 03 b5 0b 00  	ld	a0, 0x0(s7)
   19512: 75 f9        	c.bnez	a0, 0x19506 <alloc_small+0x60>
   19514: 63 8a 0b 00  	beq	s7, zero, 0x19528 <alloc_small+0x82>
   19518: 37 05 03 00  	lui	a0, 0x30
   1951c: 13 05 85 7e  	addi	a0, a0, 0x7e8
   19520: 01 a8        	c.j	0x19530 <alloc_small+0x8a>
   19522: 81 4b        	c.li	s7, 0x0
   19524: e3 1a 00 fe  	bne	zero, zero, 0x19518 <alloc_small+0x72>
   19528: 37 05 03 00  	lui	a0, 0x30
   1952c: 13 05 85 7d  	addi	a0, a0, 0x7d8
   19530: 0e 09        	c.slli	s2, 0x3
   19532: 4a 95        	c.add	a0, s2
   19534: 04 61        	c.ld	s1, 0x0(a0)
   19536: 37 d5 9a 3b  	lui	a0, 0x3b9ad
   1953a: 1b 05 85 9e  	addiw	a0, a0, -0x618
   1953e: 33 05 45 41  	sub	a0, a0, s4
   19542: 13 09 8a 01  	addi	s2, s4, 0x18
   19546: 63 e3 a4 00  	bltu	s1, a0, 0x1954c <alloc_small+0xa6>
   1954a: aa 84        	c.mv	s1, a0
   1954c: 33 04 99 00  	add	s0, s2, s1
   19550: 5a 85        	c.mv	a0, s6
   19552: a2 85        	c.mv	a1, s0
   19554: ef 00 70 19  	jal	ra, 0x19eea <jpeg_get_small>
   19558: 15 e9        	c.bnez	a0, 0x1958c <alloc_small+0xe6>
   1955a: 13 0c 30 06  	addi	s8, zero, 0x63
   1955e: 05 45        	c.li	a0, 0x1
   19560: 06 15        	c.slli	a0, 0x21
   19562: 93 0c 55 03  	addi	s9, a0, 0x35
   19566: 63 6b 9c 00  	bltu	s8, s1, 0x1957c <alloc_small+0xd6>
   1956a: 03 35 0b 00  	ld	a0, 0x0(s6)
   1956e: 23 34 95 03  	sd	s9, 0x28(a0)
   19572: 03 35 0b 00  	ld	a0, 0x0(s6)
   19576: 0c 61        	c.ld	a1, 0x0(a0)
   19578: 5a 85        	c.mv	a0, s6
   1957a: 82 95        	c.jalr	a1
   1957c: 85 80        	c.srli	s1, 0x1
   1957e: 33 04 99 00  	add	s0, s2, s1
   19582: 5a 85        	c.mv	a0, s6
   19584: a2 85        	c.mv	a1, s0
   19586: ef 00 50 16  	jal	ra, 0x19eea <jpeg_get_small>
   1958a: 71 dd        	c.beqz	a0, 0x19566 <alloc_small+0xc0>
   1958c: 83 b5 09 09  	ld	a1, 0x90(s3)
   19590: a2 95        	c.add	a1, s0
   19592: 23 b8 b9 08  	sd	a1, 0x90(s3)
   19596: d2 94        	c.add	s1, s4
   19598: 23 34 05 00  	sd	zero, 0x8(a0)
   1959c: 23 30 05 00  	sd	zero, 0x0(a0)
   195a0: 04 e9        	c.sd	s1, 0x10(a0)
   195a2: 63 94 0b 00  	bne	s7, zero, 0x195aa <alloc_small+0x104>
   195a6: 93 8b 0a 06  	addi	s7, s5, 0x60
   195aa: 23 b0 ab 00  	sd	a0, 0x0(s7)
   195ae: 11 a0        	c.j	0x195b2 <alloc_small+0x10c>
   195b0: 5e 85        	c.mv	a0, s7
   195b2: 0c 65        	c.ld	a1, 0x8(a0)
   195b4: 33 86 45 01  	add	a2, a1, s4
   195b8: 14 69        	c.ld	a3, 0x10(a0)
   195ba: 10 e5        	c.sd	a2, 0x8(a0)
   195bc: aa 95        	c.add	a1, a0
   195be: e1 05        	c.addi	a1, 0x18
   195c0: 33 86 46 41  	sub	a2, a3, s4
   195c4: 10 e9        	c.sd	a2, 0x10(a0)
   195c6: 2e 85        	c.mv	a0, a1
   195c8: 6f 40 91 09  	jal	zero, 0x2de60 <__riscv_restore_11>

00000000000195cc <alloc_large>:
   195cc: ef 42 31 06  	jal	t0, 0x2de2e <__riscv_save_7>
   195d0: aa 84        	c.mv	s1, a0
   195d2: 03 3a 85 00  	ld	s4, 0x8(a0)
   195d6: 37 d5 9a 3b  	lui	a0, 0x3b9ad
   195da: 1b 05 95 9e  	addiw	a0, a0, -0x617
   195de: 32 84        	c.mv	s0, a2
   195e0: 2e 89        	c.mv	s2, a1
   195e2: 63 6c a6 00  	bltu	a2, a0, 0x195fa <alloc_large+0x2e>
   195e6: 88 60        	c.ld	a0, 0x0(s1)
   195e8: 8d 45        	c.li	a1, 0x3
   195ea: 82 15        	c.slli	a1, 0x20
   195ec: 93 85 55 03  	addi	a1, a1, 0x35
   195f0: 0c f5        	c.sd	a1, 0x28(a0)
   195f2: 88 60        	c.ld	a0, 0x0(s1)
   195f4: 0c 61        	c.ld	a1, 0x0(a0)
   195f6: 26 85        	c.mv	a0, s1
   195f8: 82 95        	c.jalr	a1
   195fa: 1d 04        	c.addi	s0, 0x7
   195fc: 09 45        	c.li	a0, 0x2
   195fe: 93 7a 84 ff  	andi	s5, s0, -0x8
   19602: 63 6b a9 00  	bltu	s2, a0, 0x19618 <alloc_large+0x4c>
   19606: 88 60        	c.ld	a0, 0x0(s1)
   19608: 23 26 25 03  	sw	s2, 0x2c(a0)
   1960c: 8c 60        	c.ld	a1, 0x0(s1)
   1960e: 8c 61        	c.ld	a1, 0x0(a1)
   19610: 31 46        	c.li	a2, 0xc
   19612: 10 d5        	c.sw	a2, 0x28(a0)
   19614: 26 85        	c.mv	a0, s1
   19616: 82 95        	c.jalr	a1
   19618: 93 89 8a 01  	addi	s3, s5, 0x18
   1961c: 26 85        	c.mv	a0, s1
   1961e: ce 85        	c.mv	a1, s3
   19620: ef 00 70 0d  	jal	ra, 0x19ef6 <jpeg_get_large>
   19624: 2a 84        	c.mv	s0, a0
   19626: 19 e9        	c.bnez	a0, 0x1963c <alloc_large+0x70>
   19628: 88 60        	c.ld	a0, 0x0(s1)
   1962a: 85 45        	c.li	a1, 0x1
   1962c: 8a 15        	c.slli	a1, 0x22
   1962e: 93 85 55 03  	addi	a1, a1, 0x35
   19632: 0c f5        	c.sd	a1, 0x28(a0)
   19634: 88 60        	c.ld	a0, 0x0(s1)
   19636: 0c 61        	c.ld	a1, 0x0(a0)
   19638: 26 85        	c.mv	a0, s1
   1963a: 82 95        	c.jalr	a1
   1963c: 03 35 0a 09  	ld	a0, 0x90(s4)
   19640: 0e 09        	c.slli	s2, 0x3
   19642: 52 99        	c.add	s2, s4
   19644: 83 35 09 07  	ld	a1, 0x70(s2)
   19648: 4e 95        	c.add	a0, s3
   1964a: 23 38 aa 08  	sd	a0, 0x90(s4)
   1964e: 0c e0        	c.sd	a1, 0x0(s0)
   19650: 23 34 54 01  	sd	s5, 0x8(s0)
   19654: 23 38 04 00  	sd	zero, 0x10(s0)
   19658: 13 05 84 01  	addi	a0, s0, 0x18
   1965c: 23 38 89 06  	sd	s0, 0x70(s2)
   19660: 6f 40 d1 00  	jal	zero, 0x2de6c <__riscv_restore_7>

0000000000019664 <alloc_sarray>:
   19664: ef 42 01 7c  	jal	t0, 0x2de24 <__riscv_save_9>
   19668: aa 89        	c.mv	s3, a0
   1966a: 83 3b 85 00  	ld	s7, 0x8(a0)
   1966e: 36 8a        	c.mv	s4, a3
   19670: b2 84        	c.mv	s1, a2
   19672: 2e 89        	c.mv	s2, a1
   19674: 13 15 06 02  	slli	a0, a2, 0x20
   19678: 13 5b 05 02  	srli	s6, a0, 0x20
   1967c: 37 d4 9a 3b  	lui	s0, 0x3b9ad
   19680: 1b 05 84 9e  	addiw	a0, s0, -0x618
   19684: da 85        	c.mv	a1, s6
   19686: ef 40 b1 04  	jal	ra, 0x2ded0 <__udivdi3>
   1968a: 9b 05 94 9e  	addiw	a1, s0, -0x617
   1968e: aa 8a        	c.mv	s5, a0
   19690: 63 ea b4 00  	bltu	s1, a1, 0x196a4 <alloc_sarray+0x40>
   19694: 03 b5 09 00  	ld	a0, 0x0(s3)
   19698: 0c 61        	c.ld	a1, 0x0(a0)
   1969a: 13 06 50 04  	addi	a2, zero, 0x45
   1969e: 10 d5        	c.sw	a2, 0x28(a0)
   196a0: 4e 85        	c.mv	a0, s3
   196a2: 82 95        	c.jalr	a1
   196a4: 81 2a        	c.addiw	s5, 0x0
   196a6: 63 e3 4a 01  	bltu	s5, s4, 0x196ac <alloc_sarray+0x48>
   196aa: d2 8a        	c.mv	s5, s4
   196ac: 23 ac 5b 09  	sw	s5, 0x98(s7)
   196b0: 13 16 0a 02  	slli	a2, s4, 0x20
   196b4: 75 82        	c.srli	a2, 0x1d
   196b6: 4e 85        	c.mv	a0, s3
   196b8: ca 85        	c.mv	a1, s2
   196ba: ef f0 df de  	jal	ra, 0x194a6 <alloc_small>
   196be: aa 84        	c.mv	s1, a0
   196c0: 63 03 0a 04  	beq	s4, zero, 0x19706 <alloc_sarray+0xa2>
   196c4: 01 44        	c.li	s0, 0x0
   196c6: 3b 05 8a 40  	subw	a0, s4, s0
   196ca: 63 e3 aa 00  	bltu	s5, a0, 0x196d0 <alloc_sarray+0x6c>
   196ce: aa 8a        	c.mv	s5, a0
   196d0: 56 85        	c.mv	a0, s5
   196d2: da 85        	c.mv	a1, s6
   196d4: ef 40 41 7b  	jal	ra, 0x2de88 <__muldi3>
   196d8: 2a 86        	c.mv	a2, a0
   196da: 4e 85        	c.mv	a0, s3
   196dc: ca 85        	c.mv	a1, s2
   196de: ef f0 ff ee  	jal	ra, 0x195cc <alloc_large>
   196e2: 63 8e 0a 00  	beq	s5, zero, 0x196fe <alloc_sarray+0x9a>
   196e6: 56 86        	c.mv	a2, s5
   196e8: 9b 05 14 00  	addiw	a1, s0, 0x1
   196ec: 02 14        	c.slli	s0, 0x20
   196ee: 75 80        	c.srli	s0, 0x1d
   196f0: 26 94        	c.add	s0, s1
   196f2: 08 e0        	c.sd	a0, 0x0(s0)
   196f4: 7d 36        	c.addiw	a2, -0x1
   196f6: 5a 95        	c.add	a0, s6
   196f8: 2e 84        	c.mv	s0, a1
   196fa: 7d f6        	c.bnez	a2, 0x196e8 <alloc_sarray+0x84>
   196fc: 11 a0        	c.j	0x19700 <alloc_sarray+0x9c>
   196fe: a2 85        	c.mv	a1, s0
   19700: 2e 84        	c.mv	s0, a1
   19702: e3 e2 45 fd  	bltu	a1, s4, 0x196c6 <alloc_sarray+0x62>
   19706: 26 85        	c.mv	a0, s1
   19708: 6f 40 e1 75  	jal	zero, 0x2de66 <__riscv_restore_9>

000000000001970c <alloc_barray>:
   1970c: ef 42 81 71  	jal	t0, 0x2de24 <__riscv_save_9>
   19710: 2a 8a        	c.mv	s4, a0
   19712: 83 3b 85 00  	ld	s7, 0x8(a0)
   19716: b6 8a        	c.mv	s5, a3
   19718: 32 84        	c.mv	s0, a2
   1971a: 2e 89        	c.mv	s2, a1
   1971c: 93 14 06 02  	slli	s1, a2, 0x20
   19720: 93 d9 94 01  	srli	s3, s1, 0x19
   19724: 37 d5 9a 3b  	lui	a0, 0x3b9ad
   19728: 1b 05 85 9e  	addiw	a0, a0, -0x618
   1972c: ce 85        	c.mv	a1, s3
   1972e: ef 40 21 7a  	jal	ra, 0x2ded0 <__udivdi3>
   19732: b7 35 77 00  	lui	a1, 0x773
   19736: 9b 85 45 59  	addiw	a1, a1, 0x594
   1973a: 2a 8b        	c.mv	s6, a0
   1973c: 63 6a b4 00  	bltu	s0, a1, 0x19750 <alloc_barray+0x44>
   19740: 03 35 0a 00  	ld	a0, 0x0(s4)
   19744: 0c 61        	c.ld	a1, 0x0(a0)
   19746: 13 06 50 04  	addi	a2, zero, 0x45
   1974a: 10 d5        	c.sw	a2, 0x28(a0)
   1974c: 52 85        	c.mv	a0, s4
   1974e: 82 95        	c.jalr	a1
   19750: 13 96 0a 02  	slli	a2, s5, 0x20
   19754: 13 55 06 02  	srli	a0, a2, 0x20
   19758: 63 63 ab 00  	bltu	s6, a0, 0x1975e <alloc_barray+0x52>
   1975c: 56 8b        	c.mv	s6, s5
   1975e: 23 ac 6b 09  	sw	s6, 0x98(s7)
   19762: 75 82        	c.srli	a2, 0x1d
   19764: 52 85        	c.mv	a0, s4
   19766: ca 85        	c.mv	a1, s2
   19768: ef f0 ff d3  	jal	ra, 0x194a6 <alloc_small>
   1976c: aa 8b        	c.mv	s7, a0
   1976e: 63 88 0a 04  	beq	s5, zero, 0x197be <alloc_barray+0xb2>
   19772: 01 44        	c.li	s0, 0x0
   19774: 81 90        	c.srli	s1, 0x20
   19776: 9e 04        	c.slli	s1, 0x7
   19778: 3b 85 8a 40  	subw	a0, s5, s0
   1977c: 01 2b        	c.addiw	s6, 0x0
   1977e: 63 63 ab 00  	bltu	s6, a0, 0x19784 <alloc_barray+0x78>
   19782: 2a 8b        	c.mv	s6, a0
   19784: 93 15 0b 02  	slli	a1, s6, 0x20
   19788: 81 91        	c.srli	a1, 0x20
   1978a: 4e 85        	c.mv	a0, s3
   1978c: ef 40 c1 6f  	jal	ra, 0x2de88 <__muldi3>
   19790: 2a 86        	c.mv	a2, a0
   19792: 52 85        	c.mv	a0, s4
   19794: ca 85        	c.mv	a1, s2
   19796: ef f0 7f e3  	jal	ra, 0x195cc <alloc_large>
   1979a: 63 0e 0b 00  	beq	s6, zero, 0x197b6 <alloc_barray+0xaa>
   1979e: 5a 86        	c.mv	a2, s6
   197a0: 9b 05 14 00  	addiw	a1, s0, 0x1
   197a4: 02 14        	c.slli	s0, 0x20
   197a6: 75 80        	c.srli	s0, 0x1d
   197a8: 5e 94        	c.add	s0, s7
   197aa: 08 e0        	c.sd	a0, 0x0(s0)
   197ac: 7d 36        	c.addiw	a2, -0x1
   197ae: 26 95        	c.add	a0, s1
   197b0: 2e 84        	c.mv	s0, a1
   197b2: 7d f6        	c.bnez	a2, 0x197a0 <alloc_barray+0x94>
   197b4: 11 a0        	c.j	0x197b8 <alloc_barray+0xac>
   197b6: a2 85        	c.mv	a1, s0
   197b8: 2e 84        	c.mv	s0, a1
   197ba: e3 ef 55 fb  	bltu	a1, s5, 0x19778 <alloc_barray+0x6c>
   197be: 5e 85        	c.mv	a0, s7
   197c0: 6f 40 61 6a  	jal	zero, 0x2de66 <__riscv_restore_9>

00000000000197c4 <request_virt_sarray>:
   197c4: ef 42 a1 66  	jal	t0, 0x2de2e <__riscv_save_7>
   197c8: 2a 84        	c.mv	s0, a0
   197ca: 03 3b 85 00  	ld	s6, 0x8(a0)
   197ce: 05 45        	c.li	a0, 0x1
   197d0: 3e 89        	c.mv	s2, a5
   197d2: 3a 8a        	c.mv	s4, a4
   197d4: b6 8a        	c.mv	s5, a3
   197d6: b2 89        	c.mv	s3, a2
   197d8: ae 84        	c.mv	s1, a1
   197da: 63 8a a5 00  	beq	a1, a0, 0x197ee <request_virt_sarray+0x2a>
   197de: 08 60        	c.ld	a0, 0x0(s0)
   197e0: 44 d5        	c.sw	s1, 0x2c(a0)
   197e2: 0c 60        	c.ld	a1, 0x0(s0)
   197e4: 8c 61        	c.ld	a1, 0x0(a1)
   197e6: 31 46        	c.li	a2, 0xc
   197e8: 10 d5        	c.sw	a2, 0x28(a0)
   197ea: 22 85        	c.mv	a0, s0
   197ec: 82 95        	c.jalr	a1
   197ee: 13 06 80 09  	addi	a2, zero, 0x98
   197f2: 22 85        	c.mv	a0, s0
   197f4: a6 85        	c.mv	a1, s1
   197f6: ef f0 1f cb  	jal	ra, 0x194a6 <alloc_small>
   197fa: 23 30 05 00  	sd	zero, 0x0(a0)
   197fe: 23 24 45 01  	sw	s4, 0x8(a0)
   19802: 23 26 55 01  	sw	s5, 0xc(a0)
   19806: 83 35 0b 08  	ld	a1, 0x80(s6)
   1980a: 23 28 25 01  	sw	s2, 0x10(a0)
   1980e: 23 22 35 03  	sw	s3, 0x24(a0)
   19812: 23 26 05 02  	sw	zero, 0x2c(a0)
   19816: 0c f9        	c.sd	a1, 0x30(a0)
   19818: 23 30 ab 08  	sd	a0, 0x80(s6)
   1981c: 6f 40 01 65  	jal	zero, 0x2de6c <__riscv_restore_7>

0000000000019820 <request_virt_barray>:
   19820: ef 42 e1 60  	jal	t0, 0x2de2e <__riscv_save_7>
   19824: 2a 84        	c.mv	s0, a0
   19826: 03 3b 85 00  	ld	s6, 0x8(a0)
   1982a: 05 45        	c.li	a0, 0x1
   1982c: 3e 89        	c.mv	s2, a5
   1982e: 3a 8a        	c.mv	s4, a4
   19830: b6 8a        	c.mv	s5, a3
   19832: b2 89        	c.mv	s3, a2
   19834: ae 84        	c.mv	s1, a1
   19836: 63 8a a5 00  	beq	a1, a0, 0x1984a <request_virt_barray+0x2a>
   1983a: 08 60        	c.ld	a0, 0x0(s0)
   1983c: 44 d5        	c.sw	s1, 0x2c(a0)
   1983e: 0c 60        	c.ld	a1, 0x0(s0)
   19840: 8c 61        	c.ld	a1, 0x0(a1)
   19842: 31 46        	c.li	a2, 0xc
   19844: 10 d5        	c.sw	a2, 0x28(a0)
   19846: 22 85        	c.mv	a0, s0
   19848: 82 95        	c.jalr	a1
   1984a: 13 06 80 09  	addi	a2, zero, 0x98
   1984e: 22 85        	c.mv	a0, s0
   19850: a6 85        	c.mv	a1, s1
   19852: ef f0 5f c5  	jal	ra, 0x194a6 <alloc_small>
   19856: 23 30 05 00  	sd	zero, 0x0(a0)
   1985a: 23 24 45 01  	sw	s4, 0x8(a0)
   1985e: 23 26 55 01  	sw	s5, 0xc(a0)
   19862: 83 35 8b 08  	ld	a1, 0x88(s6)
   19866: 23 28 25 01  	sw	s2, 0x10(a0)
   1986a: 23 22 35 03  	sw	s3, 0x24(a0)
   1986e: 23 26 05 02  	sw	zero, 0x2c(a0)
   19872: 0c f9        	c.sd	a1, 0x30(a0)
   19874: 23 34 ab 08  	sd	a0, 0x88(s6)
   19878: 6f 40 41 5f  	jal	zero, 0x2de6c <__riscv_restore_7>

000000000001987c <realize_virt_arrays>:
   1987c: ef 42 21 5b  	jal	t0, 0x2de2e <__riscv_save_7>
   19880: 2a 89        	c.mv	s2, a0
   19882: 03 3a 85 00  	ld	s4, 0x8(a0)
   19886: 03 34 0a 08  	ld	s0, 0x80(s4)
   1988a: 1d c4        	c.beqz	s0, 0x198b8 <realize_virt_arrays+0x3c>
   1988c: 81 49        	c.li	s3, 0x0
   1988e: 81 4a        	c.li	s5, 0x0
   19890: 08 60        	c.ld	a0, 0x0(s0)
   19892: 05 e1        	c.bnez	a0, 0x198b2 <realize_virt_arrays+0x36>
   19894: 83 65 04 01  	lwu	a1, 0x10(s0)
   19898: 83 64 c4 00  	lwu	s1, 0xc(s0)
   1989c: 26 85        	c.mv	a0, s1
   1989e: ef 40 a1 5e  	jal	ra, 0x2de88 <__muldi3>
   198a2: 83 65 84 00  	lwu	a1, 0x8(s0)
   198a6: aa 99        	c.add	s3, a0
   198a8: 2e 85        	c.mv	a0, a1
   198aa: a6 85        	c.mv	a1, s1
   198ac: ef 40 c1 5d  	jal	ra, 0x2de88 <__muldi3>
   198b0: aa 9a        	c.add	s5, a0
   198b2: 00 78        	c.ld	s0, 0x30(s0)
   198b4: 71 fc        	c.bnez	s0, 0x19890 <realize_virt_arrays+0x14>
   198b6: 19 a0        	c.j	0x198bc <realize_virt_arrays+0x40>
   198b8: 81 4a        	c.li	s5, 0x0
   198ba: 81 49        	c.li	s3, 0x0
   198bc: 03 34 8a 08  	ld	s0, 0x88(s4)
   198c0: 0d c4        	c.beqz	s0, 0x198ea <realize_virt_arrays+0x6e>
   198c2: 08 60        	c.ld	a0, 0x0(s0)
   198c4: 0d e1        	c.bnez	a0, 0x198e6 <realize_virt_arrays+0x6a>
   198c6: 03 65 04 01  	lwu	a0, 0x10(s0)
   198ca: 83 64 c4 00  	lwu	s1, 0xc(s0)
   198ce: a6 85        	c.mv	a1, s1
   198d0: ef 40 81 5b  	jal	ra, 0x2de88 <__muldi3>
   198d4: 83 65 84 00  	lwu	a1, 0x8(s0)
   198d8: 1e 05        	c.slli	a0, 0x7
   198da: aa 99        	c.add	s3, a0
   198dc: 26 85        	c.mv	a0, s1
   198de: ef 40 a1 5a  	jal	ra, 0x2de88 <__muldi3>
   198e2: 1e 05        	c.slli	a0, 0x7
   198e4: aa 9a        	c.add	s5, a0
   198e6: 00 78        	c.ld	s0, 0x30(s0)
   198e8: 69 fc        	c.bnez	s0, 0x198c2 <realize_virt_arrays+0x46>
   198ea: 63 5d 30 11  	bge	zero, s3, 0x19a04 <realize_virt_arrays+0x188>
   198ee: 83 36 0a 09  	ld	a3, 0x90(s4)
   198f2: 4a 85        	c.mv	a0, s2
   198f4: ce 85        	c.mv	a1, s3
   198f6: 56 86        	c.mv	a2, s5
   198f8: ef 00 a0 60  	jal	ra, 0x19f02 <jpeg_mem_available>
   198fc: 63 5a 55 01  	bge	a0, s5, 0x19910 <realize_virt_arrays+0x94>
   19900: ce 85        	c.mv	a1, s3
   19902: ef 40 61 5c  	jal	ra, 0x2dec8 <__divdi3>
   19906: aa 89        	c.mv	s3, a0
   19908: 63 48 a0 00  	blt	zero, a0, 0x19918 <realize_virt_arrays+0x9c>
   1990c: 85 49        	c.li	s3, 0x1
   1990e: 29 a0        	c.j	0x19918 <realize_virt_arrays+0x9c>
   19910: 37 d5 9a 3b  	lui	a0, 0x3b9ad
   19914: 9b 09 05 a0  	addiw	s3, a0, -0x600
   19918: 83 34 0a 08  	ld	s1, 0x80(s4)
   1991c: ad c8        	c.beqz	s1, 0x1998e <realize_virt_arrays+0x112>
   1991e: 05 4b        	c.li	s6, 0x1
   19920: 88 60        	c.ld	a0, 0x0(s1)
   19922: 25 e5        	c.bnez	a0, 0x1998a <realize_virt_arrays+0x10e>
   19924: 03 e4 84 00  	lwu	s0, 0x8(s1)
   19928: 83 ea 04 01  	lwu	s5, 0x10(s1)
   1992c: 13 05 f4 ff  	addi	a0, s0, -0x1
   19930: d6 85        	c.mv	a1, s5
   19932: ef 40 61 59  	jal	ra, 0x2dec8 <__divdi3>
   19936: 63 54 35 01  	bge	a0, s3, 0x1993e <realize_virt_arrays+0xc2>
   1993a: c0 c8        	c.sw	s0, 0x14(s1)
   1993c: 35 a0        	c.j	0x19968 <realize_virt_arrays+0xec>
   1993e: 56 85        	c.mv	a0, s5
   19940: ce 85        	c.mv	a1, s3
   19942: ef 40 61 54  	jal	ra, 0x2de88 <__muldi3>
   19946: 83 e5 c4 00  	lwu	a1, 0xc(s1)
   1994a: c8 c8        	c.sw	a0, 0x14(s1)
   1994c: 93 8a 84 03  	addi	s5, s1, 0x38
   19950: 2e 85        	c.mv	a0, a1
   19952: a2 85        	c.mv	a1, s0
   19954: ef 40 41 53  	jal	ra, 0x2de88 <__muldi3>
   19958: 2a 86        	c.mv	a2, a0
   1995a: 4a 85        	c.mv	a0, s2
   1995c: d6 85        	c.mv	a1, s5
   1995e: ef 00 80 5a  	jal	ra, 0x19f06 <jpeg_open_backing_store>
   19962: c0 48        	c.lw	s0, 0x14(s1)
   19964: 23 a6 64 03  	sw	s6, 0x2c(s1)
   19968: d0 44        	c.lw	a2, 0xc(s1)
   1996a: 9b 06 04 00  	addiw	a3, s0, 0x0
   1996e: 85 45        	c.li	a1, 0x1
   19970: 4a 85        	c.mv	a0, s2
   19972: ef f0 3f cf  	jal	ra, 0x19664 <alloc_sarray>
   19976: 83 25 8a 09  	lw	a1, 0x98(s4)
   1997a: 88 e0        	c.sd	a0, 0x0(s1)
   1997c: 8c cc        	c.sw	a1, 0x18(s1)
   1997e: 23 ae 04 00  	sw	zero, 0x1c(s1)
   19982: 23 a0 04 02  	sw	zero, 0x20(s1)
   19986: 23 a4 04 02  	sw	zero, 0x28(s1)
   1998a: 84 78        	c.ld	s1, 0x30(s1)
   1998c: d1 f8        	c.bnez	s1, 0x19920 <realize_virt_arrays+0xa4>
   1998e: 83 34 8a 08  	ld	s1, 0x88(s4)
   19992: ad c8        	c.beqz	s1, 0x19a04 <realize_virt_arrays+0x188>
   19994: 05 4b        	c.li	s6, 0x1
   19996: 88 60        	c.ld	a0, 0x0(s1)
   19998: 25 e5        	c.bnez	a0, 0x19a00 <realize_virt_arrays+0x184>
   1999a: 03 e4 84 00  	lwu	s0, 0x8(s1)
   1999e: 83 ea 04 01  	lwu	s5, 0x10(s1)
   199a2: 13 05 f4 ff  	addi	a0, s0, -0x1
   199a6: d6 85        	c.mv	a1, s5
   199a8: ef 40 01 52  	jal	ra, 0x2dec8 <__divdi3>
   199ac: 63 54 35 01  	bge	a0, s3, 0x199b4 <realize_virt_arrays+0x138>
   199b0: c0 c8        	c.sw	s0, 0x14(s1)
   199b2: 35 a0        	c.j	0x199de <realize_virt_arrays+0x162>
   199b4: 56 85        	c.mv	a0, s5
   199b6: ce 85        	c.mv	a1, s3
   199b8: ef 40 01 4d  	jal	ra, 0x2de88 <__muldi3>
   199bc: 83 e5 c4 00  	lwu	a1, 0xc(s1)
   199c0: c8 c8        	c.sw	a0, 0x14(s1)
   199c2: 93 8a 84 03  	addi	s5, s1, 0x38
   199c6: 22 85        	c.mv	a0, s0
   199c8: ef 40 01 4c  	jal	ra, 0x2de88 <__muldi3>
   199cc: 13 16 75 00  	slli	a2, a0, 0x7
   199d0: 4a 85        	c.mv	a0, s2
   199d2: d6 85        	c.mv	a1, s5
   199d4: ef 00 20 53  	jal	ra, 0x19f06 <jpeg_open_backing_store>
   199d8: c0 48        	c.lw	s0, 0x14(s1)
   199da: 23 a6 64 03  	sw	s6, 0x2c(s1)
   199de: d0 44        	c.lw	a2, 0xc(s1)
   199e0: 9b 06 04 00  	addiw	a3, s0, 0x0
   199e4: 85 45        	c.li	a1, 0x1
   199e6: 4a 85        	c.mv	a0, s2
   199e8: ef f0 5f d2  	jal	ra, 0x1970c <alloc_barray>
   199ec: 83 25 8a 09  	lw	a1, 0x98(s4)
   199f0: 88 e0        	c.sd	a0, 0x0(s1)
   199f2: 8c cc        	c.sw	a1, 0x18(s1)
   199f4: 23 ae 04 00  	sw	zero, 0x1c(s1)
   199f8: 23 a0 04 02  	sw	zero, 0x20(s1)
   199fc: 23 a4 04 02  	sw	zero, 0x28(s1)
   19a00: 84 78        	c.ld	s1, 0x30(s1)
   19a02: d1 f8        	c.bnez	s1, 0x19996 <realize_virt_arrays+0x11a>
   19a04: 6f 40 81 46  	jal	zero, 0x2de6c <__riscv_restore_7>

0000000000019a08 <access_virt_sarray>:
   19a08: ef 42 61 42  	jal	t0, 0x2de2e <__riscv_save_7>
   19a0c: ae 8a        	c.mv	s5, a1
   19a0e: 8c 45        	c.lw	a1, 0x8(a1)
   19a10: b2 89        	c.mv	s3, a2
   19a12: 3b 8a c6 00  	addw	s4, a3, a2
   19a16: 3a 89        	c.mv	s2, a4
   19a18: aa 84        	c.mv	s1, a0
   19a1a: 63 e9 45 01  	bltu	a1, s4, 0x19a2c <access_virt_sarray+0x24>
   19a1e: 03 a5 0a 01  	lw	a0, 0x10(s5)
   19a22: 63 65 d5 00  	bltu	a0, a3, 0x19a2c <access_virt_sarray+0x24>
   19a26: 03 b5 0a 00  	ld	a0, 0x0(s5)
   19a2a: 19 e5        	c.bnez	a0, 0x19a38 <access_virt_sarray+0x30>
   19a2c: 88 60        	c.ld	a0, 0x0(s1)
   19a2e: 0c 61        	c.ld	a1, 0x0(a0)
   19a30: 51 46        	c.li	a2, 0x14
   19a32: 10 d5        	c.sw	a2, 0x28(a0)
   19a34: 26 85        	c.mv	a0, s1
   19a36: 82 95        	c.jalr	a1
   19a38: 03 a5 ca 01  	lw	a0, 0x1c(s5)
   19a3c: 63 e7 a9 00  	bltu	s3, a0, 0x19a4a <access_virt_sarray+0x42>
   19a40: 83 a5 4a 01  	lw	a1, 0x14(s5)
   19a44: 2d 9d        	c.addw	a0, a1
   19a46: 63 7d 45 05  	bgeu	a0, s4, 0x19aa0 <access_virt_sarray+0x98>
   19a4a: 03 a5 ca 02  	lw	a0, 0x2c(s5)
   19a4e: 01 e9        	c.bnez	a0, 0x19a5e <access_virt_sarray+0x56>
   19a50: 88 60        	c.ld	a0, 0x0(s1)
   19a52: 0c 61        	c.ld	a1, 0x0(a0)
   19a54: 13 06 40 04  	addi	a2, zero, 0x44
   19a58: 10 d5        	c.sw	a2, 0x28(a0)
   19a5a: 26 85        	c.mv	a0, s1
   19a5c: 82 95        	c.jalr	a1
   19a5e: 03 a5 8a 02  	lw	a0, 0x28(s5)
   19a62: 01 c9        	c.beqz	a0, 0x19a72 <access_virt_sarray+0x6a>
   19a64: 05 46        	c.li	a2, 0x1
   19a66: 26 85        	c.mv	a0, s1
   19a68: d6 85        	c.mv	a1, s5
   19a6a: ef 00 60 33  	jal	ra, 0x19da0 <do_sarray_io>
   19a6e: 23 a4 0a 02  	sw	zero, 0x28(s5)
   19a72: 83 a5 ca 01  	lw	a1, 0x1c(s5)
   19a76: 4e 85        	c.mv	a0, s3
   19a78: 63 ed 35 01  	bltu	a1, s3, 0x19a92 <access_virt_sarray+0x8a>
   19a7c: 03 e5 4a 01  	lwu	a0, 0x14(s5)
   19a80: 93 15 0a 02  	slli	a1, s4, 0x20
   19a84: 81 91        	c.srli	a1, 0x20
   19a86: 89 8d        	c.sub	a1, a0
   19a88: 33 25 b0 00  	slt	a0, zero, a1
   19a8c: 33 05 a0 40  	sub	a0, zero, a0
   19a90: 6d 8d        	c.and	a0, a1
   19a92: 23 ae aa 00  	sw	a0, 0x1c(s5)
   19a96: 26 85        	c.mv	a0, s1
   19a98: d6 85        	c.mv	a1, s5
   19a9a: 01 46        	c.li	a2, 0x0
   19a9c: ef 00 40 30  	jal	ra, 0x19da0 <do_sarray_io>
   19aa0: 03 a5 0a 02  	lw	a0, 0x20(s5)
   19aa4: 63 79 45 07  	bgeu	a0, s4, 0x19b16 <access_virt_sarray+0x10e>
   19aa8: 63 7c 35 01  	bgeu	a0, s3, 0x19ac0 <access_virt_sarray+0xb8>
   19aac: 63 02 09 02  	beq	s2, zero, 0x19ad0 <access_virt_sarray+0xc8>
   19ab0: 88 60        	c.ld	a0, 0x0(s1)
   19ab2: 0c 61        	c.ld	a1, 0x0(a0)
   19ab4: 51 46        	c.li	a2, 0x14
   19ab6: 10 d5        	c.sw	a2, 0x28(a0)
   19ab8: 26 85        	c.mv	a0, s1
   19aba: 82 95        	c.jalr	a1
   19abc: 4e 85        	c.mv	a0, s3
   19abe: 19 a0        	c.j	0x19ac4 <access_virt_sarray+0xbc>
   19ac0: 63 0b 09 06  	beq	s2, zero, 0x19b36 <access_virt_sarray+0x12e>
   19ac4: 83 a5 4a 02  	lw	a1, 0x24(s5)
   19ac8: 23 a0 4a 03  	sw	s4, 0x20(s5)
   19acc: 91 e5        	c.bnez	a1, 0x19ad8 <access_virt_sarray+0xd0>
   19ace: b1 a0        	c.j	0x19b1a <access_virt_sarray+0x112>
   19ad0: 83 a5 4a 02  	lw	a1, 0x24(s5)
   19ad4: 4e 85        	c.mv	a0, s3
   19ad6: bd c1        	c.beqz	a1, 0x19b3c <access_virt_sarray+0x134>
   19ad8: 03 a6 ca 01  	lw	a2, 0x1c(s5)
   19adc: bb 05 c5 40  	subw	a1, a0, a2
   19ae0: 3b 06 ca 40  	subw	a2, s4, a2
   19ae4: 63 f9 c5 02  	bgeu	a1, a2, 0x19b16 <access_virt_sarray+0x10e>
   19ae8: 03 eb ca 00  	lwu	s6, 0xc(s5)
   19aec: 82 15        	c.slli	a1, 0x20
   19aee: 13 d4 d5 01  	srli	s0, a1, 0x1d
   19af2: 13 45 f5 ff  	xori	a0, a0, -0x1
   19af6: 52 95        	c.add	a0, s4
   19af8: 02 15        	c.slli	a0, 0x20
   19afa: 75 81        	c.srli	a0, 0x1d
   19afc: 22 95        	c.add	a0, s0
   19afe: 93 04 85 00  	addi	s1, a0, 0x8
   19b02: 03 b5 0a 00  	ld	a0, 0x0(s5)
   19b06: 22 95        	c.add	a0, s0
   19b08: 08 61        	c.ld	a0, 0x0(a0)
   19b0a: da 85        	c.mv	a1, s6
   19b0c: ef f0 cf ee  	jal	ra, 0x191f8 <jzero_far>
   19b10: 21 04        	c.addi	s0, 0x8
   19b12: e3 18 94 fe  	bne	s0, s1, 0x19b02 <access_virt_sarray+0xfa>
   19b16: 63 05 09 00  	beq	s2, zero, 0x19b20 <access_virt_sarray+0x118>
   19b1a: 05 45        	c.li	a0, 0x1
   19b1c: 23 a4 aa 02  	sw	a0, 0x28(s5)
   19b20: 03 a5 ca 01  	lw	a0, 0x1c(s5)
   19b24: 83 b5 0a 00  	ld	a1, 0x0(s5)
   19b28: 3b 85 a9 40  	subw	a0, s3, a0
   19b2c: 02 15        	c.slli	a0, 0x20
   19b2e: 75 81        	c.srli	a0, 0x1d
   19b30: 2e 95        	c.add	a0, a1
   19b32: 6f 40 a1 33  	jal	zero, 0x2de6c <__riscv_restore_7>
   19b36: 83 a5 4a 02  	lw	a1, 0x24(s5)
   19b3a: d9 fd        	c.bnez	a1, 0x19ad8 <access_virt_sarray+0xd0>
   19b3c: 88 60        	c.ld	a0, 0x0(s1)
   19b3e: 0c 61        	c.ld	a1, 0x0(a0)
   19b40: 51 46        	c.li	a2, 0x14
   19b42: 10 d5        	c.sw	a2, 0x28(a0)
   19b44: 26 85        	c.mv	a0, s1
   19b46: 82 95        	c.jalr	a1
   19b48: e1 bf        	c.j	0x19b20 <access_virt_sarray+0x118>

0000000000019b4a <access_virt_barray>:
   19b4a: ef 42 41 2e  	jal	t0, 0x2de2e <__riscv_save_7>
   19b4e: ae 8a        	c.mv	s5, a1
   19b50: 8c 45        	c.lw	a1, 0x8(a1)
   19b52: b2 89        	c.mv	s3, a2
   19b54: 3b 8a c6 00  	addw	s4, a3, a2
   19b58: 3a 89        	c.mv	s2, a4
   19b5a: aa 84        	c.mv	s1, a0
   19b5c: 63 e9 45 01  	bltu	a1, s4, 0x19b6e <access_virt_barray+0x24>
   19b60: 03 a5 0a 01  	lw	a0, 0x10(s5)
   19b64: 63 65 d5 00  	bltu	a0, a3, 0x19b6e <access_virt_barray+0x24>
   19b68: 03 b5 0a 00  	ld	a0, 0x0(s5)
   19b6c: 19 e5        	c.bnez	a0, 0x19b7a <access_virt_barray+0x30>
   19b6e: 88 60        	c.ld	a0, 0x0(s1)
   19b70: 0c 61        	c.ld	a1, 0x0(a0)
   19b72: 51 46        	c.li	a2, 0x14
   19b74: 10 d5        	c.sw	a2, 0x28(a0)
   19b76: 26 85        	c.mv	a0, s1
   19b78: 82 95        	c.jalr	a1
   19b7a: 03 a5 ca 01  	lw	a0, 0x1c(s5)
   19b7e: 63 e7 a9 00  	bltu	s3, a0, 0x19b8c <access_virt_barray+0x42>
   19b82: 83 a5 4a 01  	lw	a1, 0x14(s5)
   19b86: 2d 9d        	c.addw	a0, a1
   19b88: 63 7d 45 05  	bgeu	a0, s4, 0x19be2 <access_virt_barray+0x98>
   19b8c: 03 a5 ca 02  	lw	a0, 0x2c(s5)
   19b90: 01 e9        	c.bnez	a0, 0x19ba0 <access_virt_barray+0x56>
   19b92: 88 60        	c.ld	a0, 0x0(s1)
   19b94: 0c 61        	c.ld	a1, 0x0(a0)
   19b96: 13 06 40 04  	addi	a2, zero, 0x44
   19b9a: 10 d5        	c.sw	a2, 0x28(a0)
   19b9c: 26 85        	c.mv	a0, s1
   19b9e: 82 95        	c.jalr	a1
   19ba0: 03 a5 8a 02  	lw	a0, 0x28(s5)
   19ba4: 01 c9        	c.beqz	a0, 0x19bb4 <access_virt_barray+0x6a>
   19ba6: 05 46        	c.li	a2, 0x1
   19ba8: 26 85        	c.mv	a0, s1
   19baa: d6 85        	c.mv	a1, s5
   19bac: ef 00 80 29  	jal	ra, 0x19e44 <do_barray_io>
   19bb0: 23 a4 0a 02  	sw	zero, 0x28(s5)
   19bb4: 83 a5 ca 01  	lw	a1, 0x1c(s5)
   19bb8: 4e 85        	c.mv	a0, s3
   19bba: 63 ed 35 01  	bltu	a1, s3, 0x19bd4 <access_virt_barray+0x8a>
   19bbe: 03 e5 4a 01  	lwu	a0, 0x14(s5)
   19bc2: 93 15 0a 02  	slli	a1, s4, 0x20
   19bc6: 81 91        	c.srli	a1, 0x20
   19bc8: 89 8d        	c.sub	a1, a0
   19bca: 33 25 b0 00  	slt	a0, zero, a1
   19bce: 33 05 a0 40  	sub	a0, zero, a0
   19bd2: 6d 8d        	c.and	a0, a1
   19bd4: 23 ae aa 00  	sw	a0, 0x1c(s5)
   19bd8: 26 85        	c.mv	a0, s1
   19bda: d6 85        	c.mv	a1, s5
   19bdc: 01 46        	c.li	a2, 0x0
   19bde: ef 00 60 26  	jal	ra, 0x19e44 <do_barray_io>
   19be2: 03 a5 0a 02  	lw	a0, 0x20(s5)
   19be6: 63 7a 45 07  	bgeu	a0, s4, 0x19c5a <access_virt_barray+0x110>
   19bea: 63 7c 35 01  	bgeu	a0, s3, 0x19c02 <access_virt_barray+0xb8>
   19bee: 63 02 09 02  	beq	s2, zero, 0x19c12 <access_virt_barray+0xc8>
   19bf2: 88 60        	c.ld	a0, 0x0(s1)
   19bf4: 0c 61        	c.ld	a1, 0x0(a0)
   19bf6: 51 46        	c.li	a2, 0x14
   19bf8: 10 d5        	c.sw	a2, 0x28(a0)
   19bfa: 26 85        	c.mv	a0, s1
   19bfc: 82 95        	c.jalr	a1
   19bfe: 4e 85        	c.mv	a0, s3
   19c00: 19 a0        	c.j	0x19c06 <access_virt_barray+0xbc>
   19c02: 63 0c 09 06  	beq	s2, zero, 0x19c7a <access_virt_barray+0x130>
   19c06: 83 a5 4a 02  	lw	a1, 0x24(s5)
   19c0a: 23 a0 4a 03  	sw	s4, 0x20(s5)
   19c0e: 91 e5        	c.bnez	a1, 0x19c1a <access_virt_barray+0xd0>
   19c10: b9 a0        	c.j	0x19c5e <access_virt_barray+0x114>
   19c12: 83 a5 4a 02  	lw	a1, 0x24(s5)
   19c16: 4e 85        	c.mv	a0, s3
   19c18: a5 c5        	c.beqz	a1, 0x19c80 <access_virt_barray+0x136>
   19c1a: 03 a6 ca 01  	lw	a2, 0x1c(s5)
   19c1e: bb 05 c5 40  	subw	a1, a0, a2
   19c22: 3b 06 ca 40  	subw	a2, s4, a2
   19c26: 63 fa c5 02  	bgeu	a1, a2, 0x19c5a <access_virt_barray+0x110>
   19c2a: 03 eb ca 00  	lwu	s6, 0xc(s5)
   19c2e: 1e 0b        	c.slli	s6, 0x7
   19c30: 82 15        	c.slli	a1, 0x20
   19c32: 13 d4 d5 01  	srli	s0, a1, 0x1d
   19c36: 13 45 f5 ff  	xori	a0, a0, -0x1
   19c3a: 52 95        	c.add	a0, s4
   19c3c: 02 15        	c.slli	a0, 0x20
   19c3e: 75 81        	c.srli	a0, 0x1d
   19c40: 22 95        	c.add	a0, s0
   19c42: 93 04 85 00  	addi	s1, a0, 0x8
   19c46: 03 b5 0a 00  	ld	a0, 0x0(s5)
   19c4a: 22 95        	c.add	a0, s0
   19c4c: 08 61        	c.ld	a0, 0x0(a0)
   19c4e: da 85        	c.mv	a1, s6
   19c50: ef f0 8f da  	jal	ra, 0x191f8 <jzero_far>
   19c54: 21 04        	c.addi	s0, 0x8
   19c56: e3 18 94 fe  	bne	s0, s1, 0x19c46 <access_virt_barray+0xfc>
   19c5a: 63 05 09 00  	beq	s2, zero, 0x19c64 <access_virt_barray+0x11a>
   19c5e: 05 45        	c.li	a0, 0x1
   19c60: 23 a4 aa 02  	sw	a0, 0x28(s5)
   19c64: 03 a5 ca 01  	lw	a0, 0x1c(s5)
   19c68: 83 b5 0a 00  	ld	a1, 0x0(s5)
   19c6c: 3b 85 a9 40  	subw	a0, s3, a0
   19c70: 02 15        	c.slli	a0, 0x20
   19c72: 75 81        	c.srli	a0, 0x1d
   19c74: 2e 95        	c.add	a0, a1
   19c76: 6f 40 61 1f  	jal	zero, 0x2de6c <__riscv_restore_7>
   19c7a: 83 a5 4a 02  	lw	a1, 0x24(s5)
   19c7e: d1 fd        	c.bnez	a1, 0x19c1a <access_virt_barray+0xd0>
   19c80: 88 60        	c.ld	a0, 0x0(s1)
   19c82: 0c 61        	c.ld	a1, 0x0(a0)
   19c84: 51 46        	c.li	a2, 0x14
   19c86: 10 d5        	c.sw	a2, 0x28(a0)
   19c88: 26 85        	c.mv	a0, s1
   19c8a: 82 95        	c.jalr	a1
   19c8c: e1 bf        	c.j	0x19c64 <access_virt_barray+0x11a>

0000000000019c8e <free_pool>:
   19c8e: ef 42 a1 1a  	jal	t0, 0x2de38 <__riscv_save_5>
   19c92: aa 89        	c.mv	s3, a0
   19c94: 03 3a 85 00  	ld	s4, 0x8(a0)
   19c98: 09 45        	c.li	a0, 0x2
   19c9a: 2e 89        	c.mv	s2, a1
   19c9c: 63 ee a5 00  	bltu	a1, a0, 0x19cb8 <free_pool+0x2a>
   19ca0: 03 b5 09 00  	ld	a0, 0x0(s3)
   19ca4: 23 26 25 03  	sw	s2, 0x2c(a0)
   19ca8: 83 b5 09 00  	ld	a1, 0x0(s3)
   19cac: 8c 61        	c.ld	a1, 0x0(a1)
   19cae: 31 46        	c.li	a2, 0xc
   19cb0: 10 d5        	c.sw	a2, 0x28(a0)
   19cb2: 4e 85        	c.mv	a0, s3
   19cb4: 82 95        	c.jalr	a1
   19cb6: a1 a0        	c.j	0x19cfe <free_pool+0x70>
   19cb8: 05 45        	c.li	a0, 0x1
   19cba: 63 12 a9 04  	bne	s2, a0, 0x19cfe <free_pool+0x70>
   19cbe: 83 34 0a 08  	ld	s1, 0x80(s4)
   19cc2: 81 cc        	c.beqz	s1, 0x19cda <free_pool+0x4c>
   19cc4: c8 54        	c.lw	a0, 0x2c(s1)
   19cc6: 01 c9        	c.beqz	a0, 0x19cd6 <free_pool+0x48>
   19cc8: b0 64        	c.ld	a2, 0x48(s1)
   19cca: 23 a6 04 02  	sw	zero, 0x2c(s1)
   19cce: 93 85 84 03  	addi	a1, s1, 0x38
   19cd2: 4e 85        	c.mv	a0, s3
   19cd4: 02 96        	c.jalr	a2
   19cd6: 84 78        	c.ld	s1, 0x30(s1)
   19cd8: f5 f4        	c.bnez	s1, 0x19cc4 <free_pool+0x36>
   19cda: 83 34 8a 08  	ld	s1, 0x88(s4)
   19cde: 23 30 0a 08  	sd	zero, 0x80(s4)
   19ce2: 81 cc        	c.beqz	s1, 0x19cfa <free_pool+0x6c>
   19ce4: c8 54        	c.lw	a0, 0x2c(s1)
   19ce6: 01 c9        	c.beqz	a0, 0x19cf6 <free_pool+0x68>
   19ce8: b0 64        	c.ld	a2, 0x48(s1)
   19cea: 23 a6 04 02  	sw	zero, 0x2c(s1)
   19cee: 93 85 84 03  	addi	a1, s1, 0x38
   19cf2: 4e 85        	c.mv	a0, s3
   19cf4: 02 96        	c.jalr	a2
   19cf6: 84 78        	c.ld	s1, 0x30(s1)
   19cf8: f5 f4        	c.bnez	s1, 0x19ce4 <free_pool+0x56>
   19cfa: 23 34 0a 08  	sd	zero, 0x88(s4)
   19cfe: 13 15 39 00  	slli	a0, s2, 0x3
   19d02: 52 95        	c.add	a0, s4
   19d04: 2c 79        	c.ld	a1, 0x70(a0)
   19d06: 23 38 05 06  	sd	zero, 0x70(a0)
   19d0a: 95 c1        	c.beqz	a1, 0x19d2e <free_pool+0xa0>
   19d0c: 88 65        	c.ld	a0, 0x8(a1)
   19d0e: 90 69        	c.ld	a2, 0x10(a1)
   19d10: 80 61        	c.ld	s0, 0x0(a1)
   19d12: 32 95        	c.add	a0, a2
   19d14: 93 04 85 01  	addi	s1, a0, 0x18
   19d18: 4e 85        	c.mv	a0, s3
   19d1a: 26 86        	c.mv	a2, s1
   19d1c: ef 00 00 1e  	jal	ra, 0x19efc <jpeg_free_large>
   19d20: 03 35 0a 09  	ld	a0, 0x90(s4)
   19d24: 05 8d        	c.sub	a0, s1
   19d26: 23 38 aa 08  	sd	a0, 0x90(s4)
   19d2a: a2 85        	c.mv	a1, s0
   19d2c: 65 f0        	c.bnez	s0, 0x19d0c <free_pool+0x7e>
   19d2e: 0e 09        	c.slli	s2, 0x3
   19d30: 52 99        	c.add	s2, s4
   19d32: 83 35 09 06  	ld	a1, 0x60(s2)
   19d36: 23 30 09 06  	sd	zero, 0x60(s2)
   19d3a: 95 c1        	c.beqz	a1, 0x19d5e <free_pool+0xd0>
   19d3c: 88 65        	c.ld	a0, 0x8(a1)
   19d3e: 90 69        	c.ld	a2, 0x10(a1)
   19d40: 80 61        	c.ld	s0, 0x0(a1)
   19d42: 32 95        	c.add	a0, a2
   19d44: 93 04 85 01  	addi	s1, a0, 0x18
   19d48: 4e 85        	c.mv	a0, s3
   19d4a: 26 86        	c.mv	a2, s1
   19d4c: ef 00 40 1a  	jal	ra, 0x19ef0 <jpeg_free_small>
   19d50: 03 35 0a 09  	ld	a0, 0x90(s4)
   19d54: 05 8d        	c.sub	a0, s1
   19d56: 23 38 aa 08  	sd	a0, 0x90(s4)
   19d5a: a2 85        	c.mv	a1, s0
   19d5c: 65 f0        	c.bnez	s0, 0x19d3c <free_pool+0xae>
   19d5e: 6f 40 41 11  	jal	zero, 0x2de72 <__riscv_restore_5>

0000000000019d62 <self_destruct>:
   19d62: 01 11        	c.addi	sp, -0x20
   19d64: 06 ec        	c.sdsp	ra, 0x18(sp)
   19d66: 22 e8        	c.sdsp	s0, 0x10(sp)
   19d68: 26 e4        	c.sdsp	s1, 0x8(sp)
   19d6a: 4a e0        	c.sdsp	s2, 0x0(sp)
   19d6c: 2a 84        	c.mv	s0, a0
   19d6e: 85 44        	c.li	s1, 0x1
   19d70: 7d 59        	c.li	s2, -0x1
   19d72: 22 85        	c.mv	a0, s0
   19d74: a6 85        	c.mv	a1, s1
   19d76: ef f0 9f f1  	jal	ra, 0x19c8e <free_pool>
   19d7a: fd 34        	c.addiw	s1, -0x1
   19d7c: e3 9b 24 ff  	bne	s1, s2, 0x19d72 <self_destruct+0x10>
   19d80: 0c 64        	c.ld	a1, 0x8(s0)
   19d82: 13 06 00 0a  	addi	a2, zero, 0xa0
   19d86: 22 85        	c.mv	a0, s0
   19d88: ef 00 80 16  	jal	ra, 0x19ef0 <jpeg_free_small>
   19d8c: 23 34 04 00  	sd	zero, 0x8(s0)
   19d90: 22 85        	c.mv	a0, s0
   19d92: e2 60        	c.ldsp	ra, 0x18(sp)
   19d94: 42 64        	c.ldsp	s0, 0x10(sp)
   19d96: a2 64        	c.ldsp	s1, 0x8(sp)
   19d98: 02 69        	c.ldsp	s2, 0x0(sp)
   19d9a: 05 61        	c.addi16sp	sp, 0x20
   19d9c: 6f 00 a0 17  	jal	zero, 0x19f16 <jpeg_mem_term>

0000000000019da0 <do_sarray_io>:
   19da0: ef 42 41 08  	jal	t0, 0x2de24 <__riscv_save_9>
   19da4: 03 ec 45 01  	lwu	s8, 0x14(a1)
   19da8: 63 0c 0c 08  	beq	s8, zero, 0x19e40 <do_sarray_io+0xa0>
   19dac: ae 8a        	c.mv	s5, a1
   19dae: 32 8a        	c.mv	s4, a2
   19db0: 2a 89        	c.mv	s2, a0
   19db2: 83 e9 c5 00  	lwu	s3, 0xc(a1)
   19db6: 03 e5 c5 01  	lwu	a0, 0x1c(a1)
   19dba: ce 85        	c.mv	a1, s3
   19dbc: ef 40 c1 0c  	jal	ra, 0x2de88 <__muldi3>
   19dc0: 2a 8b        	c.mv	s6, a0
   19dc2: 93 0b 80 03  	addi	s7, zero, 0x38
   19dc6: 63 04 0a 00  	beq	s4, zero, 0x19dce <do_sarray_io+0x2e>
   19dca: 93 0b 00 04  	addi	s7, zero, 0x40
   19dce: 03 a5 8a 01  	lw	a0, 0x18(s5)
   19dd2: 01 44        	c.li	s0, 0x0
   19dd4: 13 8a 8a 03  	addi	s4, s5, 0x38
   19dd8: d6 9b        	c.add	s7, s5
   19dda: 02 15        	c.slli	a0, 0x20
   19ddc: 93 55 05 02  	srli	a1, a0, 0x20
   19de0: 33 05 8c 40  	sub	a0, s8, s0
   19de4: 63 43 b5 00  	blt	a0, a1, 0x19dea <do_sarray_io+0x4a>
   19de8: 2e 85        	c.mv	a0, a1
   19dea: 83 e5 ca 01  	lwu	a1, 0x1c(s5)
   19dee: 03 e6 0a 02  	lwu	a2, 0x20(s5)
   19df2: a2 95        	c.add	a1, s0
   19df4: 0d 8e        	c.sub	a2, a1
   19df6: 63 43 c5 00  	blt	a0, a2, 0x19dfc <do_sarray_io+0x5c>
   19dfa: 32 85        	c.mv	a0, a2
   19dfc: 03 e6 8a 00  	lwu	a2, 0x8(s5)
   19e00: b3 05 b6 40  	sub	a1, a2, a1
   19e04: 63 43 b5 00  	blt	a0, a1, 0x19e0a <do_sarray_io+0x6a>
   19e08: 2e 85        	c.mv	a0, a1
   19e0a: 63 5b a0 02  	bge	zero, a0, 0x19e40 <do_sarray_io+0xa0>
   19e0e: ce 85        	c.mv	a1, s3
   19e10: ef 40 81 07  	jal	ra, 0x2de88 <__muldi3>
   19e14: 83 b5 0a 00  	ld	a1, 0x0(s5)
   19e18: 13 16 34 00  	slli	a2, s0, 0x3
   19e1c: b2 95        	c.add	a1, a2
   19e1e: 90 61        	c.ld	a2, 0x0(a1)
   19e20: 83 b7 0b 00  	ld	a5, 0x0(s7)
   19e24: aa 84        	c.mv	s1, a0
   19e26: 4a 85        	c.mv	a0, s2
   19e28: d2 85        	c.mv	a1, s4
   19e2a: da 86        	c.mv	a3, s6
   19e2c: 26 87        	c.mv	a4, s1
   19e2e: 82 97        	c.jalr	a5
   19e30: 03 e5 8a 01  	lwu	a0, 0x18(s5)
   19e34: 03 ec 4a 01  	lwu	s8, 0x14(s5)
   19e38: 2a 94        	c.add	s0, a0
   19e3a: 26 9b        	c.add	s6, s1
   19e3c: e3 6f 84 f9  	bltu	s0, s8, 0x19dda <do_sarray_io+0x3a>
   19e40: 6f 40 61 02  	jal	zero, 0x2de66 <__riscv_restore_9>

0000000000019e44 <do_barray_io>:
   19e44: ef 32 11 7e  	jal	t0, 0x2de24 <__riscv_save_9>
   19e48: 03 ec 45 01  	lwu	s8, 0x14(a1)
   19e4c: 63 0d 0c 08  	beq	s8, zero, 0x19ee6 <do_barray_io+0xa2>
   19e50: ae 8a        	c.mv	s5, a1
   19e52: 32 8a        	c.mv	s4, a2
   19e54: 2a 89        	c.mv	s2, a0
   19e56: 83 e9 c5 00  	lwu	s3, 0xc(a1)
   19e5a: 83 e5 c5 01  	lwu	a1, 0x1c(a1)
   19e5e: 9e 09        	c.slli	s3, 0x7
   19e60: 4e 85        	c.mv	a0, s3
   19e62: ef 40 61 02  	jal	ra, 0x2de88 <__muldi3>
   19e66: 2a 8b        	c.mv	s6, a0
   19e68: 93 0b 80 03  	addi	s7, zero, 0x38
   19e6c: 63 04 0a 00  	beq	s4, zero, 0x19e74 <do_barray_io+0x30>
   19e70: 93 0b 00 04  	addi	s7, zero, 0x40
   19e74: 03 a5 8a 01  	lw	a0, 0x18(s5)
   19e78: 01 44        	c.li	s0, 0x0
   19e7a: 13 8a 8a 03  	addi	s4, s5, 0x38
   19e7e: d6 9b        	c.add	s7, s5
   19e80: 02 15        	c.slli	a0, 0x20
   19e82: 93 55 05 02  	srli	a1, a0, 0x20
   19e86: 33 05 8c 40  	sub	a0, s8, s0
   19e8a: 63 43 b5 00  	blt	a0, a1, 0x19e90 <do_barray_io+0x4c>
   19e8e: 2e 85        	c.mv	a0, a1
   19e90: 83 e5 ca 01  	lwu	a1, 0x1c(s5)
   19e94: 03 e6 0a 02  	lwu	a2, 0x20(s5)
   19e98: a2 95        	c.add	a1, s0
   19e9a: 0d 8e        	c.sub	a2, a1
   19e9c: 63 43 c5 00  	blt	a0, a2, 0x19ea2 <do_barray_io+0x5e>
   19ea0: 32 85        	c.mv	a0, a2
   19ea2: 03 e6 8a 00  	lwu	a2, 0x8(s5)
   19ea6: b3 05 b6 40  	sub	a1, a2, a1
   19eaa: 63 43 b5 00  	blt	a0, a1, 0x19eb0 <do_barray_io+0x6c>
   19eae: 2e 85        	c.mv	a0, a1
   19eb0: 63 5b a0 02  	bge	zero, a0, 0x19ee6 <do_barray_io+0xa2>
   19eb4: ce 85        	c.mv	a1, s3
   19eb6: ef 30 31 7d  	jal	ra, 0x2de88 <__muldi3>
   19eba: 83 b5 0a 00  	ld	a1, 0x0(s5)
   19ebe: 13 16 34 00  	slli	a2, s0, 0x3
   19ec2: b2 95        	c.add	a1, a2
   19ec4: 90 61        	c.ld	a2, 0x0(a1)
   19ec6: 83 b7 0b 00  	ld	a5, 0x0(s7)
   19eca: aa 84        	c.mv	s1, a0
   19ecc: 4a 85        	c.mv	a0, s2
   19ece: d2 85        	c.mv	a1, s4
   19ed0: da 86        	c.mv	a3, s6
   19ed2: 26 87        	c.mv	a4, s1
   19ed4: 82 97        	c.jalr	a5
   19ed6: 03 e5 8a 01  	lwu	a0, 0x18(s5)
   19eda: 03 ec 4a 01  	lwu	s8, 0x14(s5)
   19ede: 2a 94        	c.add	s0, a0
   19ee0: 26 9b        	c.add	s6, s1
   19ee2: e3 6f 84 f9  	bltu	s0, s8, 0x19e80 <do_barray_io+0x3c>
   19ee6: 6f 30 11 78  	jal	zero, 0x2de66 <__riscv_restore_9>

0000000000019eea <jpeg_get_small>:
   19eea: 2e 85        	c.mv	a0, a1
   19eec: 6f 00 60 11  	jal	zero, 0x1a002 <malloc>

0000000000019ef0 <jpeg_free_small>:
   19ef0: 2e 85        	c.mv	a0, a1
   19ef2: 6f 00 80 11  	jal	zero, 0x1a00a <free>

0000000000019ef6 <jpeg_get_large>:
   19ef6: 2e 85        	c.mv	a0, a1
   19ef8: 6f 00 a0 10  	jal	zero, 0x1a002 <malloc>

0000000000019efc <jpeg_free_large>:
   19efc: 2e 85        	c.mv	a0, a1
   19efe: 6f 00 c0 10  	jal	zero, 0x1a00a <free>

0000000000019f02 <jpeg_mem_available>:
   19f02: 32 85        	c.mv	a0, a2
   19f04: 82 80        	c.jr	ra

0000000000019f06 <jpeg_open_backing_store>:
   19f06: 0c 61        	c.ld	a1, 0x0(a0)
   19f08: 9c 61        	c.ld	a5, 0x0(a1)
   19f0a: 13 06 00 03  	addi	a2, zero, 0x30
   19f0e: 90 d5        	c.sw	a2, 0x28(a1)
   19f10: 82 87        	c.jr	a5

0000000000019f12 <jpeg_mem_init>:
   19f12: 01 45        	c.li	a0, 0x0
   19f14: 82 80        	c.jr	ra

0000000000019f16 <jpeg_mem_term>:
   19f16: 82 80        	c.jr	ra