
dynamic_baseISA_whet:	file format elf64-littleriscv

Disassembly of section .text:

0000000000010120 <exit>:
   10120: 41 11        	addi	sp, sp, -0x10
   10122: 81 45        	li	a1, 0x0
   10124: 22 e0        	sd	s0, 0x0(sp)
   10126: 06 e4        	sd	ra, 0x8(sp)
   10128: 2a 84        	mv	s0, a0
   1012a: ef 20 70 01  	jal	0x12940 <__call_exitprocs>
   1012e: 83 b7 01 21  	ld	a5, 0x210(gp)
   10132: 91 c3        	beqz	a5, 0x10136 <exit+0x16>
   10134: 82 97        	jalr	a5
   10136: 22 85        	mv	a0, s0
   10138: ef 90 10 28  	jal	0x19bb8 <_exit>

000000000001013c <register_fini>:
   1013c: 93 07 00 00  	li	a5, 0x0
   10140: 91 c7        	beqz	a5, 0x1014c <register_fini+0x10>
   10142: 5d 65        	lui	a0, 0x17
   10144: 13 05 25 98  	addi	a0, a0, -0x67e
   10148: 6f 20 b0 0c  	j	0x12a12 <atexit>
   1014c: 82 80        	ret

000000000001014e <_start>:
   1014e: 97 d1 00 00  	auipc	gp, 0xd
   10152: 93 81 a1 cf  	addi	gp, gp, -0x306
   10156: 13 85 81 1e  	addi	a0, gp, 0x1e8
   1015a: 17 d6 00 00  	auipc	a2, 0xd
   1015e: 13 06 e6 4e  	addi	a2, a2, 0x4ee
   10162: 09 8e        	sub	a2, a2, a0
   10164: 81 45        	li	a1, 0x0
   10166: ef 20 e0 68  	jal	0x127f4 <memset>
   1016a: 17 35 00 00  	auipc	a0, 0x3
   1016e: 13 05 85 8a  	addi	a0, a0, -0x758
   10172: 19 c5        	beqz	a0, 0x10180 <_start+0x32>
   10174: 17 75 00 00  	auipc	a0, 0x7
   10178: 13 05 e5 80  	addi	a0, a0, -0x7f2
   1017c: ef 20 70 09  	jal	0x12a12 <atexit>
   10180: ef 20 a0 60  	jal	0x1278a <__libc_init_array>
   10184: 02 45        	lw	a0, 0x0(sp)
   10186: 2c 00        	addi	a1, sp, 0x8
   10188: 01 46        	li	a2, 0x0
   1018a: ef 00 e0 04  	jal	0x101d8 <main>
   1018e: 49 bf        	j	0x10120 <exit>

0000000000010190 <__do_global_dtors_aux>:
   10190: 41 11        	addi	sp, sp, -0x10
   10192: 22 e0        	sd	s0, 0x0(sp)
   10194: 83 c7 01 25  	lbu	a5, 0x250(gp)
   10198: 06 e4        	sd	ra, 0x8(sp)
   1019a: 91 ef        	bnez	a5, 0x101b6 <__do_global_dtors_aux+0x26>
   1019c: 93 07 00 00  	li	a5, 0x0
   101a0: 81 cb        	beqz	a5, 0x101b0 <__do_global_dtors_aux+0x20>
   101a2: 71 65        	lui	a0, 0x1c
   101a4: 13 05 05 00  	mv	a0, a0
   101a8: 97 00 00 00  	auipc	ra, 0x0
   101ac: e7 00 00 00  	jalr	zero
   101b0: 85 47        	li	a5, 0x1
   101b2: 23 88 f1 24  	sb	a5, 0x250(gp)
   101b6: a2 60        	ld	ra, 0x8(sp)
   101b8: 02 64        	ld	s0, 0x0(sp)
   101ba: 41 01        	addi	sp, sp, 0x10
   101bc: 82 80        	ret

00000000000101be <frame_dummy>:
   101be: 93 07 00 00  	li	a5, 0x0
   101c2: 91 cb        	beqz	a5, 0x101d6 <frame_dummy+0x18>
   101c4: 71 65        	lui	a0, 0x1c
   101c6: 93 85 81 25  	addi	a1, gp, 0x258
   101ca: 13 05 05 00  	mv	a0, a0
   101ce: 17 03 00 00  	auipc	t1, 0x0
   101d2: 67 00 00 00  	jr	zero
   101d6: 82 80        	ret

00000000000101d8 <main>:
   101d8: ef a2 10 5a  	jal	t0, 0x1af78 <__riscv_save_12>
   101dc: 13 01 01 f2  	addi	sp, sp, -0xe0
   101e0: 27 3c 81 0c  	fsd	fs0, 0xd8(sp)
   101e4: 27 38 91 0c  	fsd	fs1, 0xd0(sp)
   101e8: 27 34 21 0d  	fsd	fs2, 0xc8(sp)
   101ec: 27 30 31 0d  	fsd	fs3, 0xc0(sp)
   101f0: 27 3c 41 0b  	fsd	fs4, 0xb8(sp)
   101f4: 27 38 51 0b  	fsd	fs5, 0xb0(sp)
   101f8: 27 34 61 0b  	fsd	fs6, 0xa8(sp)
   101fc: 27 30 71 0b  	fsd	fs7, 0xa0(sp)
   10200: 27 3c 81 09  	fsd	fs8, 0x98(sp)
   10204: 27 38 91 09  	fsd	fs9, 0x90(sp)
   10208: 27 34 a1 09  	fsd	fs10, 0x88(sp)
   1020c: 27 30 b1 09  	fsd	fs11, 0x80(sp)
   10210: 13 06 10 00  	li	a2, 0x1
   10214: 13 04 80 3e  	li	s0, 0x3e8
   10218: 93 06 10 00  	li	a3, 0x1
   1021c: 23 3c d1 06  	sd	a3, 0x78(sp)
   10220: 63 58 a6 06  	bge	a2, a0, 0x10290 <main+0xb8>
   10224: 13 06 00 00  	li	a2, 0x0
   10228: 93 89 85 00  	addi	s3, a1, 0x8
   1022c: 13 0a f5 ff  	addi	s4, a0, -0x1
   10230: 13 04 80 3e  	li	s0, 0x3e8
   10234: 37 b5 01 00  	lui	a0, 0x1b
   10238: 93 04 05 04  	addi	s1, a0, 0x40
   1023c: 93 0a 30 06  	li	s5, 0x63
   10240: 03 b9 09 00  	ld	s2, 0x0(s3)
   10244: 13 0b 06 00  	mv	s6, a2
   10248: 13 06 20 00  	li	a2, 0x2
   1024c: 13 05 09 00  	mv	a0, s2
   10250: 93 85 04 00  	mv	a1, s1
   10254: ef 20 c0 2b  	jal	0x12510 <strncmp>
   10258: 13 06 10 00  	li	a2, 0x1
   1025c: 63 00 05 02  	beqz	a0, 0x1027c <main+0xa4>
   10260: 03 45 09 00  	lbu	a0, 0x0(s2)
   10264: 63 0c 55 01  	beq	a0, s5, 0x1027c <main+0xa4>
   10268: 13 05 09 00  	mv	a0, s2
   1026c: ef 10 30 34  	jal	0x11dae <atol>
   10270: 13 04 05 00  	mv	s0, a0
   10274: 13 06 0b 00  	mv	a2, s6
   10278: 63 50 a0 40  	blez	a0, 0x10678 <main+0x4a0>
   1027c: 13 0a fa ff  	addi	s4, s4, -0x1
   10280: 93 89 89 00  	addi	s3, s3, 0x8
   10284: e3 1e 0a fa  	bnez	s4, 0x10240 <main+0x68>
   10288: 13 35 16 00  	seqz	a0, a2
   1028c: 23 3c a1 06  	sd	a0, 0x78(sp)
   10290: 93 05 c0 00  	li	a1, 0xc
   10294: 13 05 04 00  	mv	a0, s0
   10298: ef a0 50 55  	jal	0x1afec <__muldi3>
   1029c: 93 04 05 00  	mv	s1, a0
   102a0: 93 05 e0 00  	li	a1, 0xe
   102a4: 13 05 04 00  	mv	a0, s0
   102a8: ef a0 50 54  	jal	0x1afec <__muldi3>
   102ac: 23 38 a1 04  	sd	a0, 0x50(sp)
   102b0: 93 05 80 26  	li	a1, 0x268
   102b4: 13 05 04 00  	mv	a0, s0
   102b8: ef a0 50 53  	jal	0x1afec <__muldi3>
   102bc: 23 34 a1 02  	sd	a0, 0x28(sp)
   102c0: 93 05 d0 05  	li	a1, 0x5d
   102c4: 13 05 04 00  	mv	a0, s0
   102c8: ef a0 50 52  	jal	0x1afec <__muldi3>
   102cc: 23 30 a1 02  	sd	a0, 0x20(sp)
   102d0: 23 34 91 04  	sd	s1, 0x48(sp)
   102d4: 63 46 90 00  	bgtz	s1, 0x102e0 <main+0x108>
   102d8: 13 05 10 00  	li	a0, 0x1
   102dc: 23 34 a1 04  	sd	a0, 0x48(sp)
   102e0: 13 15 54 00  	slli	a0, s0, 0x5
   102e4: 23 38 a1 02  	sd	a0, 0x30(sp)
   102e8: 03 35 01 05  	ld	a0, 0x50(sp)
   102ec: 63 46 a0 00  	bgtz	a0, 0x102f8 <main+0x120>
   102f0: 13 05 10 00  	li	a0, 0x1
   102f4: 23 38 a1 04  	sd	a0, 0x50(sp)
   102f8: 03 35 01 03  	ld	a0, 0x30(sp)
   102fc: 63 46 a0 00  	bgtz	a0, 0x10308 <main+0x130>
   10300: 13 05 10 00  	li	a0, 0x1
   10304: 23 38 a1 02  	sd	a0, 0x30(sp)
   10308: 83 35 81 02  	ld	a1, 0x28(sp)
   1030c: 63 46 b0 00  	bgtz	a1, 0x10318 <main+0x140>
   10310: 93 05 10 00  	li	a1, 0x1
   10314: 23 34 b1 02  	sd	a1, 0x28(sp)
   10318: 87 b7 01 18  	fld	fa5, 0x180(gp)
   1031c: 53 77 24 d2  	fcvt.d.l	fa4, s0
   10320: 03 35 01 02  	ld	a0, 0x20(sp)
   10324: 63 46 a0 00  	bgtz	a0, 0x10330 <main+0x158>
   10328: 13 05 10 00  	li	a0, 0x1
   1032c: 23 30 a1 02  	sd	a0, 0x20(sp)
   10330: d3 79 f7 12  	fmul.d	fs3, fa4, fa5
   10334: 83 b5 81 18  	ld	a1, 0x188(gp)
   10338: 23 38 b1 06  	sd	a1, 0x70(sp)
   1033c: 83 b5 01 19  	ld	a1, 0x190(gp)
   10340: 23 34 b1 06  	sd	a1, 0x68(sp)
   10344: 13 09 10 00  	li	s2, 0x1
   10348: 13 19 e9 03  	slli	s2, s2, 0x3e
   1034c: 93 8a 81 28  	addi	s5, gp, 0x288
   10350: 93 0d f0 bf  	li	s11, -0x401
   10354: 93 9d 4d 03  	slli	s11, s11, 0x34
   10358: 23 30 b1 07  	sd	s11, 0x60(sp)
   1035c: 13 0c f0 3f  	li	s8, 0x3ff
   10360: 13 1c 4c 03  	slli	s8, s8, 0x34
   10364: 37 1a 80 00  	lui	s4, 0x801
   10368: 13 1a 7a 02  	slli	s4, s4, 0x27
   1036c: b7 b5 01 00  	lui	a1, 0x1b
   10370: 93 85 f5 05  	addi	a1, a1, 0x5f
   10374: 23 3c b1 04  	sd	a1, 0x58(sp)
   10378: b7 05 7a 44  	lui	a1, 0x447a0
   1037c: 53 8a 05 f0  	fmv.w.x	fs4, a1
   10380: b7 b5 01 00  	lui	a1, 0x1b
   10384: 87 ba 81 1c  	fld	fs5, 0x1c8(gp)
   10388: 07 bb 81 19  	fld	fs6, 0x198(gp)
   1038c: 87 bb 01 1a  	fld	fs7, 0x1a0(gp)
   10390: 07 bc 81 18  	fld	fs8, 0x188(gp)
   10394: 87 bc 81 1a  	fld	fs9, 0x1a8(gp)
   10398: 87 b7 01 1b  	fld	fa5, 0x1b0(gp)
   1039c: 27 3c f1 00  	fsd	fa5, 0x18(sp)
   103a0: 87 b7 81 1b  	fld	fa5, 0x1b8(gp)
   103a4: 27 38 f1 00  	fsd	fa5, 0x10(sp)
   103a8: 87 b7 01 1c  	fld	fa5, 0x1c0(gp)
   103ac: 27 34 f1 00  	fsd	fa5, 0x8(sp)
   103b0: 13 85 35 0c  	addi	a0, a1, 0xc3
   103b4: 23 30 a1 04  	sd	a0, 0x40(sp)
   103b8: 37 b5 01 00  	lui	a0, 0x1b
   103bc: 13 05 f5 08  	addi	a0, a0, 0x8f
   103c0: 23 3c a1 02  	sd	a0, 0x38(sp)
   103c4: 13 05 00 00  	li	a0, 0x0
   103c8: ef 20 60 1f  	jal	0x125be <time>
   103cc: 93 0c 05 00  	mv	s9, a0
   103d0: 03 35 01 07  	ld	a0, 0x70(sp)
   103d4: 23 b4 a1 1e  	sd	a0, 0x1e8(gp)
   103d8: 03 35 81 06  	ld	a0, 0x68(sp)
   103dc: 23 b8 a1 1e  	sd	a0, 0x1f0(gp)
   103e0: 23 bc 21 1f  	sd	s2, 0x1f8(gp)
   103e4: 03 35 01 06  	ld	a0, 0x60(sp)
   103e8: 23 b0 aa 02  	sd	a0, 0x20(s5)
   103ec: 63 5a 80 1c  	blez	s0, 0x105c0 <main+0x3e8>
   103f0: 03 35 81 04  	ld	a0, 0x48(sp)
   103f4: 53 87 7b 23  	fmv.d	fa4, fs7
   103f8: d3 06 6b 23  	fmv.d	fa3, fs6
   103fc: d3 07 6b 23  	fmv.d	fa5, fs6
   10400: 53 06 6b 23  	fmv.d	fa2, fs6
   10404: 53 77 d7 02  	fadd.d	fa4, fa4, fa3
   10408: 53 77 f7 02  	fadd.d	fa4, fa4, fa5
   1040c: 53 77 c7 0a  	fsub.d	fa4, fa4, fa2
   10410: 53 77 87 13  	fmul.d	fa4, fa4, fs8
   10414: d3 f6 e6 02  	fadd.d	fa3, fa3, fa4
   10418: d3 f6 f6 0a  	fsub.d	fa3, fa3, fa5
   1041c: d3 76 d6 02  	fadd.d	fa3, fa2, fa3
   10420: d3 f6 86 13  	fmul.d	fa3, fa3, fs8
   10424: d3 75 d7 0a  	fsub.d	fa1, fa4, fa3
   10428: d3 f7 b7 02  	fadd.d	fa5, fa5, fa1
   1042c: d3 77 f6 02  	fadd.d	fa5, fa2, fa5
   10430: d3 f7 87 13  	fmul.d	fa5, fa5, fs8
   10434: d3 f5 e6 0a  	fsub.d	fa1, fa3, fa4
   10438: d3 f5 f5 02  	fadd.d	fa1, fa1, fa5
   1043c: 53 76 b6 02  	fadd.d	fa2, fa2, fa1
   10440: 13 05 f5 ff  	addi	a0, a0, -0x1
   10444: 53 76 86 13  	fmul.d	fa2, fa2, fs8
   10448: e3 1e 05 fa  	bnez	a0, 0x10404 <main+0x22c>
   1044c: 27 b4 ea 00  	fsd	fa4, 0x8(s5)
   10450: 27 b8 da 00  	fsd	fa3, 0x10(s5)
   10454: 27 bc fa 00  	fsd	fa5, 0x18(s5)
   10458: 27 b0 ca 02  	fsd	fa2, 0x20(s5)
   1045c: 03 3d 01 05  	ld	s10, 0x50(sp)
   10460: 63 50 80 16  	blez	s0, 0x105c0 <main+0x3e8>
   10464: 13 85 0a 00  	mv	a0, s5
   10468: ef 00 c0 26  	jal	0x106d4 <PA>
   1046c: 13 0d fd ff  	addi	s10, s10, -0x1
   10470: e3 1a 0d fe  	bnez	s10, 0x10464 <main+0x28c>
   10474: 63 56 80 14  	blez	s0, 0x105c0 <main+0x3e8>
   10478: 13 05 10 00  	li	a0, 0x1
   1047c: 23 a0 a1 20  	sw	a0, 0x200(gp)
   10480: 13 05 20 00  	li	a0, 0x2
   10484: 23 a2 a1 20  	sw	a0, 0x204(gp)
   10488: 13 0b 20 00  	li	s6, 0x2
   1048c: 03 3d 01 03  	ld	s10, 0x30(sp)
   10490: 53 84 9c 23  	fmv.d	fs0, fs9
   10494: d3 84 9c 23  	fmv.d	fs1, fs9
   10498: 07 bd 81 1e  	fld	fs10, 0x1e8(gp)
   1049c: 07 b9 81 1f  	fld	fs2, 0x1f8(gp)
   104a0: 53 85 94 22  	fmv.d	fa0, fs1
   104a4: ef 00 c0 64  	jal	0x10af0 <sin>
   104a8: 53 79 a9 12  	fmul.d	fs2, fs2, fa0
   104ac: 53 85 94 22  	fmv.d	fa0, fs1
   104b0: ef 00 c0 5c  	jal	0x10a7c <cos>
   104b4: d3 7d a9 12  	fmul.d	fs11, fs2, fa0
   104b8: 53 f5 84 02  	fadd.d	fa0, fs1, fs0
   104bc: ef 00 00 5c  	jal	0x10a7c <cos>
   104c0: 53 09 a5 22  	fmv.d	fs2, fa0
   104c4: 53 f5 84 0a  	fsub.d	fa0, fs1, fs0
   104c8: ef 00 40 5b  	jal	0x10a7c <cos>
   104cc: d3 77 a9 02  	fadd.d	fa5, fs2, fa0
   104d0: d3 f7 67 03  	fadd.d	fa5, fa5, fs6
   104d4: 53 f5 fd 1a  	fdiv.d	fa0, fs11, fa5
   104d8: ef 00 80 3e  	jal	0x108c0 <atan>
   104dc: 87 bd 81 1e  	fld	fs11, 0x1e8(gp)
   104e0: 07 b9 81 1f  	fld	fs2, 0x1f8(gp)
   104e4: d3 74 ad 12  	fmul.d	fs1, fs10, fa0
   104e8: 53 05 84 22  	fmv.d	fa0, fs0
   104ec: ef 00 40 60  	jal	0x10af0 <sin>
   104f0: 53 79 a9 12  	fmul.d	fs2, fs2, fa0
   104f4: 53 05 84 22  	fmv.d	fa0, fs0
   104f8: ef 00 40 58  	jal	0x10a7c <cos>
   104fc: 53 7d a9 12  	fmul.d	fs10, fs2, fa0
   10500: 53 75 94 02  	fadd.d	fa0, fs0, fs1
   10504: ef 00 80 57  	jal	0x10a7c <cos>
   10508: 53 09 a5 22  	fmv.d	fs2, fa0
   1050c: 53 f5 84 0a  	fsub.d	fa0, fs1, fs0
   10510: ef 00 c0 56  	jal	0x10a7c <cos>
   10514: d3 77 a9 02  	fadd.d	fa5, fs2, fa0
   10518: d3 f7 67 03  	fadd.d	fa5, fa5, fs6
   1051c: 53 75 fd 1a  	fdiv.d	fa0, fs10, fa5
   10520: ef 00 00 3a  	jal	0x108c0 <atan>
   10524: 13 0d fd ff  	addi	s10, s10, -0x1
   10528: 53 f4 ad 12  	fmul.d	fs0, fs11, fa0
   1052c: e3 16 0d f6  	bnez	s10, 0x10498 <main+0x2c0>
   10530: 93 06 30 00  	li	a3, 0x3
   10534: 23 a4 d1 20  	sw	a3, 0x208(gp)
   10538: 23 b4 8a 01  	sd	s8, 0x8(s5)
   1053c: 23 b8 2a 01  	sd	s2, 0x10(s5)
   10540: 23 bc 4a 01  	sd	s4, 0x18(s5)
   10544: 63 50 80 0a  	blez	s0, 0x105e4 <main+0x40c>
   10548: 03 35 81 02  	ld	a0, 0x28(sp)
   1054c: 07 37 01 01  	fld	fa4, 0x10(sp)
   10550: 87 37 81 01  	fld	fa5, 0x18(sp)
   10554: 13 05 f5 ff  	addi	a0, a0, -0x1
   10558: d3 86 f7 22  	fmv.d	fa3, fa5
   1055c: d3 07 e7 22  	fmv.d	fa5, fa4
   10560: 53 87 d6 22  	fmv.d	fa4, fa3
   10564: e3 18 05 fe  	bnez	a0, 0x10554 <main+0x37c>
   10568: 27 b4 fa 00  	fsd	fa5, 0x8(s5)
   1056c: 27 b8 da 00  	fsd	fa3, 0x10(s5)
   10570: 27 bc fa 00  	fsd	fa5, 0x18(s5)
   10574: 23 a0 61 21  	sw	s6, 0x200(gp)
   10578: 23 a2 d1 20  	sw	a3, 0x204(gp)
   1057c: 63 58 80 06  	blez	s0, 0x105ec <main+0x414>
   10580: 03 3d 01 02  	ld	s10, 0x20(sp)
   10584: 07 35 81 00  	fld	fa0, 0x8(sp)
   10588: ef 00 40 2a  	jal	0x1082c <log>
   1058c: 87 b7 01 1f  	fld	fa5, 0x1f0(gp)
   10590: 53 75 f5 1a  	fdiv.d	fa0, fa0, fa5
   10594: ef 00 c0 22  	jal	0x107c0 <exp>
   10598: d3 07 a5 22  	fmv.d	fa5, fa0
   1059c: 53 75 05 5a  	fsqrt.d	fa0, fa0
   105a0: 53 25 a5 a2  	feq.d	a0, fa0, fa0
   105a4: 63 08 05 00  	beqz	a0, 0x105b4 <main+0x3dc>
   105a8: 13 0d fd ff  	addi	s10, s10, -0x1
   105ac: e3 1e 0d fc  	bnez	s10, 0x10588 <main+0x3b0>
   105b0: 6f 00 c0 03  	j	0x105ec <main+0x414>
   105b4: 53 85 f7 22  	fmv.d	fa0, fa5
   105b8: ef 00 60 2c  	jal	0x1087e <sqrt>
   105bc: 6f f0 df fe  	j	0x105a8 <main+0x3d0>
   105c0: 13 05 10 00  	li	a0, 0x1
   105c4: 23 a0 a1 20  	sw	a0, 0x200(gp)
   105c8: 13 0b 20 00  	li	s6, 0x2
   105cc: 23 a2 61 21  	sw	s6, 0x204(gp)
   105d0: 93 06 30 00  	li	a3, 0x3
   105d4: 23 a4 d1 20  	sw	a3, 0x208(gp)
   105d8: 23 b4 8a 01  	sd	s8, 0x8(s5)
   105dc: 23 b8 2a 01  	sd	s2, 0x10(s5)
   105e0: 23 bc 4a 01  	sd	s4, 0x18(s5)
   105e4: 23 a0 61 21  	sw	s6, 0x200(gp)
   105e8: 23 a2 d1 20  	sw	a3, 0x204(gp)
   105ec: 13 05 00 00  	li	a0, 0x0
   105f0: ef 10 f0 7c  	jal	0x125be <time>
   105f4: 13 0d 05 00  	mv	s10, a0
   105f8: 13 05 a0 00  	li	a0, 0xa
   105fc: ef 10 90 59  	jal	0x12394 <putchar>
   10600: b3 0c 9d 41  	sub	s9, s10, s9
   10604: 63 50 90 07  	blez	s9, 0x10664 <main+0x48c>
   10608: 13 06 10 00  	li	a2, 0x1
   1060c: 03 35 81 05  	ld	a0, 0x58(sp)
   10610: 93 05 04 00  	mv	a1, s0
   10614: 93 86 0c 00  	mv	a3, s9
   10618: ef 10 b0 54  	jal	0x12362 <printf>
   1061c: d3 f7 2c d0  	fcvt.s.l	fa5, s9
   10620: d3 87 07 42  	fcvt.d.s	fa5, fa5
   10624: d3 f7 f9 1a  	fdiv.d	fa5, fs3, fa5
   10628: d3 f7 17 40  	fcvt.s.d	fa5, fa5
   1062c: 53 05 fa a0  	fle.s	a0, fs4, fa5
   10630: d3 87 07 42  	fcvt.d.s	fa5, fa5
   10634: 63 18 05 00  	bnez	a0, 0x10644 <main+0x46c>
   10638: d3 85 07 e2  	fmv.x.d	a1, fa5
   1063c: 03 35 01 04  	ld	a0, 0x40(sp)
   10640: 6f 00 00 01  	j	0x10650 <main+0x478>
   10644: d3 f7 57 1b  	fdiv.d	fa5, fa5, fs5
   10648: d3 85 07 e2  	fmv.x.d	a1, fa5
   1064c: 03 35 81 03  	ld	a0, 0x38(sp)
   10650: ef 10 30 51  	jal	0x12362 <printf>
   10654: 03 35 81 07  	ld	a0, 0x78(sp)
   10658: e3 06 05 d6  	beqz	a0, 0x103c4 <main+0x1ec>
   1065c: 13 04 00 00  	li	s0, 0x0
   10660: 6f 00 80 03  	j	0x10698 <main+0x4c0>
   10664: 37 b5 01 00  	lui	a0, 0x1b
   10668: 13 05 75 0f  	addi	a0, a0, 0xf7
   1066c: ef 10 70 5b  	jal	0x12422 <puts>
   10670: 13 04 10 00  	li	s0, 0x1
   10674: 6f 00 40 02  	j	0x10698 <main+0x4c0>
   10678: 03 b5 01 1d  	ld	a0, 0x1d0(gp)
   1067c: 83 36 85 01  	ld	a3, 0x18(a0)
   10680: 37 b5 01 00  	lui	a0, 0x1b
   10684: 13 05 35 04  	addi	a0, a0, 0x43
   10688: 93 05 b0 01  	li	a1, 0x1b
   1068c: 13 06 10 00  	li	a2, 0x1
   10690: 13 04 10 00  	li	s0, 0x1
   10694: ef 10 b0 42  	jal	0x122be <fwrite>
   10698: 13 05 04 00  	mv	a0, s0
   1069c: 07 34 81 0d  	fld	fs0, 0xd8(sp)
   106a0: 87 34 01 0d  	fld	fs1, 0xd0(sp)
   106a4: 07 39 81 0c  	fld	fs2, 0xc8(sp)
   106a8: 87 39 01 0c  	fld	fs3, 0xc0(sp)
   106ac: 07 3a 81 0b  	fld	fs4, 0xb8(sp)
   106b0: 87 3a 01 0b  	fld	fs5, 0xb0(sp)
   106b4: 07 3b 81 0a  	fld	fs6, 0xa8(sp)
   106b8: 87 3b 01 0a  	fld	fs7, 0xa0(sp)
   106bc: 07 3c 81 09  	fld	fs8, 0x98(sp)
   106c0: 87 3c 01 09  	fld	fs9, 0x90(sp)
   106c4: 07 3d 81 08  	fld	fs10, 0x88(sp)
   106c8: 87 3d 01 08  	fld	fs11, 0x80(sp)
   106cc: 13 01 01 0e  	addi	sp, sp, 0xe0
   106d0: 6f a0 30 0f  	j	0x1afc2 <__riscv_restore_12>

00000000000106d4 <PA>:
   106d4: 87 b7 81 1e  	fld	fa5, 0x1e8(gp)
   106d8: 07 b7 81 1f  	fld	fa4, 0x1f8(gp)
   106dc: 07 35 85 00  	fld	fa0, 0x8(a0)
   106e0: 87 35 05 01  	fld	fa1, 0x10(a0)
   106e4: 87 36 85 01  	fld	fa3, 0x18(a0)
   106e8: 07 36 05 02  	fld	fa2, 0x20(a0)
   106ec: 93 05 60 00  	li	a1, 0x6
   106f0: 53 75 b5 02  	fadd.d	fa0, fa0, fa1
   106f4: 53 75 d5 02  	fadd.d	fa0, fa0, fa3
   106f8: 53 75 c5 0a  	fsub.d	fa0, fa0, fa2
   106fc: 53 75 f5 12  	fmul.d	fa0, fa0, fa5
   10700: d3 f5 a5 02  	fadd.d	fa1, fa1, fa0
   10704: d3 f5 d5 0a  	fsub.d	fa1, fa1, fa3
   10708: d3 75 b6 02  	fadd.d	fa1, fa2, fa1
   1070c: d3 f5 b7 12  	fmul.d	fa1, fa5, fa1
   10710: 53 70 b5 0a  	fsub.d	ft0, fa0, fa1
   10714: d3 f6 06 02  	fadd.d	fa3, fa3, ft0
   10718: d3 76 d6 02  	fadd.d	fa3, fa2, fa3
   1071c: d3 f6 d7 12  	fmul.d	fa3, fa5, fa3
   10720: 53 f0 a5 0a  	fsub.d	ft0, fa1, fa0
   10724: 53 70 d0 02  	fadd.d	ft0, ft0, fa3
   10728: 53 76 06 02  	fadd.d	fa2, fa2, ft0
   1072c: 9b 85 f5 ff  	addiw	a1, a1, -0x1
   10730: 53 76 e6 1a  	fdiv.d	fa2, fa2, fa4
   10734: e3 9e 05 fa  	bnez	a1, 0x106f0 <PA+0x1c>
   10738: 27 34 a5 00  	fsd	fa0, 0x8(a0)
   1073c: 27 38 b5 00  	fsd	fa1, 0x10(a0)
   10740: 27 3c d5 00  	fsd	fa3, 0x18(a0)
   10744: 27 30 c5 02  	fsd	fa2, 0x20(a0)
   10748: 93 05 60 00  	li	a1, 0x6
   1074c: 23 a0 b1 20  	sw	a1, 0x200(gp)
   10750: 67 80 00 00  	ret

0000000000010754 <P3>:
   10754: 87 b7 81 1e  	fld	fa5, 0x1e8(gp)
   10758: 53 77 b5 02  	fadd.d	fa4, fa0, fa1
   1075c: 53 77 f7 12  	fmul.d	fa4, fa4, fa5
   10760: 87 b6 81 1f  	fld	fa3, 0x1f8(gp)
   10764: 53 76 b7 02  	fadd.d	fa2, fa4, fa1
   10768: d3 f7 c7 12  	fmul.d	fa5, fa5, fa2
   1076c: d3 77 f7 02  	fadd.d	fa5, fa4, fa5
   10770: d3 f7 d7 1a  	fdiv.d	fa5, fa5, fa3
   10774: 27 30 f5 00  	fsd	fa5, 0x0(a0)
   10778: 67 80 00 00  	ret

000000000001077c <P0>:
   1077c: 03 a5 41 20  	lw	a0, 0x204(gp)
   10780: 93 85 81 28  	addi	a1, gp, 0x288
   10784: 13 15 35 00  	slli	a0, a0, 0x3
   10788: 33 85 a5 00  	add	a0, a1, a0
   1078c: 03 a6 01 20  	lw	a2, 0x200(gp)
   10790: 87 37 05 00  	fld	fa5, 0x0(a0)
   10794: 83 a6 81 20  	lw	a3, 0x208(gp)
   10798: 13 16 36 00  	slli	a2, a2, 0x3
   1079c: 33 86 c5 00  	add	a2, a1, a2
   107a0: 27 30 f6 00  	fsd	fa5, 0x0(a2)
   107a4: 93 96 36 00  	slli	a3, a3, 0x3
   107a8: b3 85 d5 00  	add	a1, a1, a3
   107ac: 87 b7 05 00  	fld	fa5, 0x0(a1)
   107b0: 27 30 f5 00  	fsd	fa5, 0x0(a0)
   107b4: 87 37 06 00  	fld	fa5, 0x0(a2)
   107b8: 27 b0 f5 00  	fsd	fa5, 0x0(a1)
   107bc: 67 80 00 00  	ret

00000000000107c0 <exp>:
   107c0: 01 11        	addi	sp, sp, -0x20
   107c2: 22 a4        	fsd	fs0, 0x8(sp)
   107c4: 53 04 a5 22  	fmv.d	fs0, fa0
   107c8: 26 a0        	fsd	fs1, 0x0(sp)
   107ca: 06 ec        	sd	ra, 0x18(sp)
   107cc: ef 00 a0 53  	jal	0x10d06 <__ieee754_exp>
   107d0: d3 04 a5 22  	fmv.d	fs1, fa0
   107d4: 53 05 84 22  	fmv.d	fa0, fs0
   107d8: ef 00 00 3a  	jal	0x10b78 <finite>
   107dc: 19 c9        	beqz	a0, 0x107f2 <exp+0x32>
   107de: 87 b7 01 ed  	fld	fa5, -0x130(gp)
   107e2: d3 97 87 a2  	flt.d	a5, fa5, fs0
   107e6: 89 ef        	bnez	a5, 0x10800 <exp+0x40>
   107e8: 87 b7 81 ed  	fld	fa5, -0x128(gp)
   107ec: d3 17 f4 a2  	flt.d	a5, fs0, fa5
   107f0: 95 e7        	bnez	a5, 0x1081c <exp+0x5c>
   107f2: e2 60        	ld	ra, 0x18(sp)
   107f4: 53 85 94 22  	fmv.d	fa0, fs1
   107f8: 22 24        	fld	fs0, 0x8(sp)
   107fa: 82 24        	fld	fs1, 0x0(sp)
   107fc: 05 61        	addi	sp, sp, 0x20
   107fe: 82 80        	ret
   10800: ef 10 50 78  	jal	0x12784 <__errno>
   10804: 87 b4 81 ec  	fld	fs1, -0x138(gp)
   10808: e2 60        	ld	ra, 0x18(sp)
   1080a: 93 07 20 02  	li	a5, 0x22
   1080e: 1c c1        	sw	a5, 0x0(a0)
   10810: 53 85 94 22  	fmv.d	fa0, fs1
   10814: 22 24        	fld	fs0, 0x8(sp)
   10816: 82 24        	fld	fs1, 0x0(sp)
   10818: 05 61        	addi	sp, sp, 0x20
   1081a: 82 80        	ret
   1081c: ef 10 90 76  	jal	0x12784 <__errno>
   10820: 93 07 20 02  	li	a5, 0x22
   10824: d3 04 00 f2  	fmv.d.x	fs1, zero
   10828: 1c c1        	sw	a5, 0x0(a0)
   1082a: e1 b7        	j	0x107f2 <exp+0x32>

000000000001082c <log>:
   1082c: 01 11        	addi	sp, sp, -0x20
   1082e: 22 a4        	fsd	fs0, 0x8(sp)
   10830: 53 04 a5 22  	fmv.d	fs0, fa0
   10834: 06 ec        	sd	ra, 0x18(sp)
   10836: ef 00 00 6e  	jal	0x10f16 <__ieee754_log>
   1083a: d3 27 84 a2  	feq.d	a5, fs0, fs0
   1083e: 85 c3        	beqz	a5, 0x1085e <log+0x32>
   10840: d3 07 00 f2  	fmv.d.x	fa5, zero
   10844: d3 97 87 a2  	flt.d	a5, fa5, fs0
   10848: 99 eb        	bnez	a5, 0x1085e <log+0x32>
   1084a: d3 27 f4 a2  	feq.d	a5, fs0, fa5
   1084e: 81 cf        	beqz	a5, 0x10866 <log+0x3a>
   10850: ef 10 50 73  	jal	0x12784 <__errno>
   10854: 07 b5 01 ee  	fld	fa0, -0x120(gp)
   10858: 93 07 20 02  	li	a5, 0x22
   1085c: 1c c1        	sw	a5, 0x0(a0)
   1085e: e2 60        	ld	ra, 0x18(sp)
   10860: 22 24        	fld	fs0, 0x8(sp)
   10862: 05 61        	addi	sp, sp, 0x20
   10864: 82 80        	ret
   10866: ef 10 f0 71  	jal	0x12784 <__errno>
   1086a: e2 60        	ld	ra, 0x18(sp)
   1086c: 22 24        	fld	fs0, 0x8(sp)
   1086e: 93 07 10 02  	li	a5, 0x21
   10872: 1c c1        	sw	a5, 0x0(a0)
   10874: 6d 65        	lui	a0, 0x1b
   10876: 13 05 85 17  	addi	a0, a0, 0x178
   1087a: 05 61        	addi	sp, sp, 0x20
   1087c: ed a4        	j	0x10b66 <nan>

000000000001087e <sqrt>:
   1087e: 01 11        	addi	sp, sp, -0x20
   10880: 22 a4        	fsd	fs0, 0x8(sp)
   10882: 53 04 a5 22  	fmv.d	fs0, fa0
   10886: 06 ec        	sd	ra, 0x18(sp)
   10888: ef 00 40 2e  	jal	0x10b6c <__ieee754_sqrt>
   1088c: d3 27 84 a2  	feq.d	a5, fs0, fs0
   10890: 81 cb        	beqz	a5, 0x108a0 <sqrt+0x22>
   10892: 26 a0        	fsd	fs1, 0x0(sp)
   10894: d3 04 00 f2  	fmv.d.x	fs1, zero
   10898: d3 17 94 a2  	flt.d	a5, fs0, fs1
   1089c: 91 e7        	bnez	a5, 0x108a8 <sqrt+0x2a>
   1089e: 82 24        	fld	fs1, 0x0(sp)
   108a0: e2 60        	ld	ra, 0x18(sp)
   108a2: 22 24        	fld	fs0, 0x8(sp)
   108a4: 05 61        	addi	sp, sp, 0x20
   108a6: 82 80        	ret
   108a8: ef 10 d0 6d  	jal	0x12784 <__errno>
   108ac: e2 60        	ld	ra, 0x18(sp)
   108ae: 93 07 10 02  	li	a5, 0x21
   108b2: 1c c1        	sw	a5, 0x0(a0)
   108b4: 53 f5 94 1a  	fdiv.d	fa0, fs1, fs1
   108b8: 22 24        	fld	fs0, 0x8(sp)
   108ba: 82 24        	fld	fs1, 0x0(sp)
   108bc: 05 61        	addi	sp, sp, 0x20
   108be: 82 80        	ret

00000000000108c0 <atan>:
   108c0: d3 07 05 e2  	fmv.x.d	a5, fa0
   108c4: 01 11        	addi	sp, sp, -0x20
   108c6: 22 e8        	sd	s0, 0x10(sp)
   108c8: 13 94 17 00  	slli	s0, a5, 0x1
   108cc: 26 e4        	sd	s1, 0x8(sp)
   108ce: 06 ec        	sd	ra, 0x18(sp)
   108d0: 37 07 10 44  	lui	a4, 0x44100
   108d4: 05 90        	srli	s0, s0, 0x21
   108d6: 93 d4 07 42  	srai	s1, a5, 0x20
   108da: 63 6d e4 02  	bltu	s0, a4, 0x10914 <atan+0x54>
   108de: 37 07 f0 7f  	lui	a4, 0x7ff00
   108e2: 63 60 87 02  	bltu	a4, s0, 0x10902 <atan+0x42>
   108e6: 63 0b e4 00  	beq	s0, a4, 0x108fc <atan+0x3c>
   108ea: 63 5d 90 0e  	blez	s1, 0x109e4 <atan+0x124>
   108ee: e2 60        	ld	ra, 0x18(sp)
   108f0: 42 64        	ld	s0, 0x10(sp)
   108f2: 07 b5 81 ee  	fld	fa0, -0x118(gp)
   108f6: a2 64        	ld	s1, 0x8(sp)
   108f8: 05 61        	addi	sp, sp, 0x20
   108fa: 82 80        	ret
   108fc: 9b 86 07 00  	sext.w	a3, a5
   10900: ed d6        	beqz	a3, 0x108ea <atan+0x2a>
   10902: d3 87 07 f2  	fmv.d.x	fa5, a5
   10906: 53 f5 f7 02  	fadd.d	fa0, fa5, fa5
   1090a: e2 60        	ld	ra, 0x18(sp)
   1090c: 42 64        	ld	s0, 0x10(sp)
   1090e: a2 64        	ld	s1, 0x8(sp)
   10910: 05 61        	addi	sp, sp, 0x20
   10912: 82 80        	ret
   10914: 37 07 dc 3f  	lui	a4, 0x3fdc0
   10918: 63 7d e4 0c  	bgeu	s0, a4, 0x109f2 <atan+0x132>
   1091c: 37 07 20 3e  	lui	a4, 0x3e200
   10920: 63 68 e4 0a  	bltu	s0, a4, 0x109d0 <atan+0x110>
   10924: 7d 57        	li	a4, -0x1
   10926: d3 87 07 f2  	fmv.d.x	fa5, a5
   1092a: 07 b5 01 f2  	fld	fa0, -0xe0(gp)
   1092e: d3 f6 f7 12  	fmul.d	fa3, fa5, fa5
   10932: 87 b7 81 f2  	fld	fa5, -0xd8(gp)
   10936: 53 f7 d6 12  	fmul.d	fa4, fa3, fa3
   1093a: 43 75 a7 7a  	fmadd.d	fa0, fa4, fa0, fa5
   1093e: 87 b7 01 f5  	fld	fa5, -0xb0(gp)
   10942: 07 b6 81 f5  	fld	fa2, -0xa8(gp)
   10946: c3 77 f7 62  	fmadd.d	fa5, fa4, fa5, fa2
   1094a: 07 b6 01 f3  	fld	fa2, -0xd0(gp)
   1094e: 43 75 e5 62  	fmadd.d	fa0, fa0, fa4, fa2
   10952: 07 b6 01 f6  	fld	fa2, -0xa0(gp)
   10956: c3 f7 e7 62  	fmadd.d	fa5, fa5, fa4, fa2
   1095a: 07 b6 81 f3  	fld	fa2, -0xc8(gp)
   1095e: 43 75 e5 62  	fmadd.d	fa0, fa0, fa4, fa2
   10962: 07 b6 81 f6  	fld	fa2, -0x98(gp)
   10966: fd 56        	li	a3, -0x1
   10968: c3 f7 e7 62  	fmadd.d	fa5, fa5, fa4, fa2
   1096c: 07 b6 01 f4  	fld	fa2, -0xc0(gp)
   10970: 43 75 e5 62  	fmadd.d	fa0, fa0, fa4, fa2
   10974: 07 b6 01 f7  	fld	fa2, -0x90(gp)
   10978: c3 f7 e7 62  	fmadd.d	fa5, fa5, fa4, fa2
   1097c: 07 b6 81 f4  	fld	fa2, -0xb8(gp)
   10980: 43 75 e5 62  	fmadd.d	fa0, fa0, fa4, fa2
   10984: d3 f7 e7 12  	fmul.d	fa5, fa5, fa4
   10988: 43 75 d5 7a  	fmadd.d	fa0, fa0, fa3, fa5
   1098c: d3 87 07 f2  	fmv.d.x	fa5, a5
   10990: 53 f5 a7 12  	fmul.d	fa0, fa5, fa0
   10994: 63 07 d7 08  	beq	a4, a3, 0x10a22 <atan+0x162>
   10998: ed 66        	lui	a3, 0x1b
   1099a: 0e 07        	slli	a4, a4, 0x3
   1099c: 93 86 86 27  	addi	a3, a3, 0x278
   109a0: ba 96        	add	a3, a3, a4
   109a2: 9c 22        	fld	fa5, 0x0(a3)
   109a4: 53 87 07 f2  	fmv.d.x	fa4, a5
   109a8: ed 66        	lui	a3, 0x1b
   109aa: 53 75 f5 0a  	fsub.d	fa0, fa0, fa5
   109ae: 93 86 86 29  	addi	a3, a3, 0x298
   109b2: 36 97        	add	a4, a4, a3
   109b4: 1c 23        	fld	fa5, 0x0(a4)
   109b6: 53 75 e5 0a  	fsub.d	fa0, fa0, fa4
   109ba: 53 f5 a7 0a  	fsub.d	fa0, fa5, fa0
   109be: e3 d6 04 f4  	bgez	s1, 0x1090a <atan+0x4a>
   109c2: e2 60        	ld	ra, 0x18(sp)
   109c4: 42 64        	ld	s0, 0x10(sp)
   109c6: a2 64        	ld	s1, 0x8(sp)
   109c8: 53 15 a5 22  	fneg.d	fa0, fa0
   109cc: 05 61        	addi	sp, sp, 0x20
   109ce: 82 80        	ret
   109d0: 87 b7 81 ef  	fld	fa5, -0x108(gp)
   109d4: 07 b7 01 f0  	fld	fa4, -0x100(gp)
   109d8: d3 77 f5 02  	fadd.d	fa5, fa0, fa5
   109dc: 53 17 f7 a2  	flt.d	a4, fa4, fa5
   109e0: 31 d3        	beqz	a4, 0x10924 <atan+0x64>
   109e2: 25 b7        	j	0x1090a <atan+0x4a>
   109e4: e2 60        	ld	ra, 0x18(sp)
   109e6: 42 64        	ld	s0, 0x10(sp)
   109e8: 07 b5 01 ef  	fld	fa0, -0x110(gp)
   109ec: a2 64        	ld	s1, 0x8(sp)
   109ee: 05 61        	addi	sp, sp, 0x20
   109f0: 82 80        	ret
   109f2: ef 00 00 18  	jal	0x10b72 <fabs>
   109f6: b7 07 f3 3f  	lui	a5, 0x3ff30
   109fa: 63 7b f4 02  	bgeu	s0, a5, 0x10a30 <atan+0x170>
   109fe: b7 07 e6 3f  	lui	a5, 0x3fe60
   10a02: 63 71 f4 06  	bgeu	s0, a5, 0x10a64 <atan+0x1a4>
   10a06: 87 b7 81 f0  	fld	fa5, -0xf8(gp)
   10a0a: 87 b6 01 f1  	fld	fa3, -0xf0(gp)
   10a0e: 53 77 f5 02  	fadd.d	fa4, fa0, fa5
   10a12: 01 47        	li	a4, 0x0
   10a14: 43 75 f5 6a  	fmadd.d	fa0, fa0, fa5, fa3
   10a18: d3 77 e5 1a  	fdiv.d	fa5, fa0, fa4
   10a1c: d3 87 07 e2  	fmv.x.d	a5, fa5
   10a20: 19 b7        	j	0x10926 <atan+0x66>
   10a22: e2 60        	ld	ra, 0x18(sp)
   10a24: 42 64        	ld	s0, 0x10(sp)
   10a26: a2 64        	ld	s1, 0x8(sp)
   10a28: 53 f5 a7 0a  	fsub.d	fa0, fa5, fa0
   10a2c: 05 61        	addi	sp, sp, 0x20
   10a2e: 82 80        	ret
   10a30: b7 87 03 40  	lui	a5, 0x40038
   10a34: 63 70 f4 02  	bgeu	s0, a5, 0x10a54 <atan+0x194>
   10a38: 87 b7 81 f1  	fld	fa5, -0xe8(gp)
   10a3c: 87 b6 01 f0  	fld	fa3, -0x100(gp)
   10a40: 53 77 f5 0a  	fsub.d	fa4, fa0, fa5
   10a44: 09 47        	li	a4, 0x2
   10a46: 43 75 f5 6a  	fmadd.d	fa0, fa0, fa5, fa3
   10a4a: d3 77 a7 1a  	fdiv.d	fa5, fa4, fa0
   10a4e: d3 87 07 e2  	fmv.x.d	a5, fa5
   10a52: d1 bd        	j	0x10926 <atan+0x66>
   10a54: 87 b7 01 f1  	fld	fa5, -0xf0(gp)
   10a58: 0d 47        	li	a4, 0x3
   10a5a: d3 f7 a7 1a  	fdiv.d	fa5, fa5, fa0
   10a5e: d3 87 07 e2  	fmv.x.d	a5, fa5
   10a62: d1 b5        	j	0x10926 <atan+0x66>
   10a64: 87 b7 01 f0  	fld	fa5, -0x100(gp)
   10a68: 05 47        	li	a4, 0x1
   10a6a: 53 77 f5 0a  	fsub.d	fa4, fa0, fa5
   10a6e: 53 75 f5 02  	fadd.d	fa0, fa0, fa5
   10a72: d3 77 a7 1a  	fdiv.d	fa5, fa4, fa0
   10a76: d3 87 07 e2  	fmv.x.d	a5, fa5
   10a7a: 75 b5        	j	0x10926 <atan+0x66>

0000000000010a7c <cos>:
   10a7c: d3 07 05 e2  	fmv.x.d	a5, fa0
   10a80: b7 26 e9 3f  	lui	a3, 0x3fe92
   10a84: 93 86 b6 1f  	addi	a3, a3, 0x1fb
   10a88: 13 97 17 00  	slli	a4, a5, 0x1
   10a8c: 05 93        	srli	a4, a4, 0x21
   10a8e: 63 fd e6 02  	bgeu	a3, a4, 0x10ac8 <cos+0x4c>
   10a92: b7 06 f0 7f  	lui	a3, 0x7ff00
   10a96: 63 65 d7 00  	bltu	a4, a3, 0x10aa0 <cos+0x24>
   10a9a: 53 75 a5 0a  	fsub.d	fa0, fa0, fa0
   10a9e: 82 80        	ret
   10aa0: 01 11        	addi	sp, sp, -0x20
   10aa2: 0a 85        	mv	a0, sp
   10aa4: 06 ec        	sd	ra, 0x18(sp)
   10aa6: ef 00 a0 66  	jal	0x11110 <__ieee754_rem_pio2>
   10aaa: 0d 89        	andi	a0, a0, 0x3
   10aac: 85 47        	li	a5, 0x1
   10aae: 63 05 f5 02  	beq	a0, a5, 0x10ad8 <cos+0x5c>
   10ab2: 89 47        	li	a5, 0x2
   10ab4: a2 25        	fld	fa1, 0x8(sp)
   10ab6: 02 25        	fld	fa0, 0x0(sp)
   10ab8: 63 0b f5 00  	beq	a0, a5, 0x10ace <cos+0x52>
   10abc: 15 e5        	bnez	a0, 0x10ae8 <cos+0x6c>
   10abe: ef 00 80 0c  	jal	0x10b86 <__kernel_cos>
   10ac2: e2 60        	ld	ra, 0x18(sp)
   10ac4: 05 61        	addi	sp, sp, 0x20
   10ac6: 82 80        	ret
   10ac8: d3 05 00 f2  	fmv.d.x	fa1, zero
   10acc: 6d a8        	j	0x10b86 <__kernel_cos>
   10ace: ef 00 80 0b  	jal	0x10b86 <__kernel_cos>
   10ad2: 53 15 a5 22  	fneg.d	fa0, fa0
   10ad6: f5 b7        	j	0x10ac2 <cos+0x46>
   10ad8: a2 25        	fld	fa1, 0x8(sp)
   10ada: 02 25        	fld	fa0, 0x0(sp)
   10adc: 05 45        	li	a0, 0x1
   10ade: ef 00 40 1a  	jal	0x10c82 <__kernel_sin>
   10ae2: 53 15 a5 22  	fneg.d	fa0, fa0
   10ae6: f1 bf        	j	0x10ac2 <cos+0x46>
   10ae8: 05 45        	li	a0, 0x1
   10aea: ef 00 80 19  	jal	0x10c82 <__kernel_sin>
   10aee: d1 bf        	j	0x10ac2 <cos+0x46>

0000000000010af0 <sin>:
   10af0: d3 07 05 e2  	fmv.x.d	a5, fa0
   10af4: b7 26 e9 3f  	lui	a3, 0x3fe92
   10af8: 93 86 b6 1f  	addi	a3, a3, 0x1fb
   10afc: 13 97 17 00  	slli	a4, a5, 0x1
   10b00: 05 93        	srli	a4, a4, 0x21
   10b02: 63 fe e6 02  	bgeu	a3, a4, 0x10b3e <sin+0x4e>
   10b06: b7 06 f0 7f  	lui	a3, 0x7ff00
   10b0a: 63 65 d7 00  	bltu	a4, a3, 0x10b14 <sin+0x24>
   10b0e: 53 75 a5 0a  	fsub.d	fa0, fa0, fa0
   10b12: 82 80        	ret
   10b14: 01 11        	addi	sp, sp, -0x20
   10b16: 0a 85        	mv	a0, sp
   10b18: 06 ec        	sd	ra, 0x18(sp)
   10b1a: ef 00 60 5f  	jal	0x11110 <__ieee754_rem_pio2>
   10b1e: 0d 89        	andi	a0, a0, 0x3
   10b20: 85 47        	li	a5, 0x1
   10b22: 63 08 f5 02  	beq	a0, a5, 0x10b52 <sin+0x62>
   10b26: 89 47        	li	a5, 0x2
   10b28: a2 25        	fld	fa1, 0x8(sp)
   10b2a: 02 25        	fld	fa0, 0x0(sp)
   10b2c: 63 0d f5 00  	beq	a0, a5, 0x10b46 <sin+0x56>
   10b30: 15 e5        	bnez	a0, 0x10b5c <sin+0x6c>
   10b32: 05 45        	li	a0, 0x1
   10b34: ef 00 e0 14  	jal	0x10c82 <__kernel_sin>
   10b38: e2 60        	ld	ra, 0x18(sp)
   10b3a: 05 61        	addi	sp, sp, 0x20
   10b3c: 82 80        	ret
   10b3e: d3 05 00 f2  	fmv.d.x	fa1, zero
   10b42: 01 45        	li	a0, 0x0
   10b44: 3d aa        	j	0x10c82 <__kernel_sin>
   10b46: 05 45        	li	a0, 0x1
   10b48: ef 00 a0 13  	jal	0x10c82 <__kernel_sin>
   10b4c: 53 15 a5 22  	fneg.d	fa0, fa0
   10b50: e5 b7        	j	0x10b38 <sin+0x48>
   10b52: a2 25        	fld	fa1, 0x8(sp)
   10b54: 02 25        	fld	fa0, 0x0(sp)
   10b56: ef 00 00 03  	jal	0x10b86 <__kernel_cos>
   10b5a: f9 bf        	j	0x10b38 <sin+0x48>
   10b5c: ef 00 a0 02  	jal	0x10b86 <__kernel_cos>
   10b60: 53 15 a5 22  	fneg.d	fa0, fa0
   10b64: d1 bf        	j	0x10b38 <sin+0x48>

0000000000010b66 <nan>:
   10b66: 07 b5 81 f7  	fld	fa0, -0x88(gp)
   10b6a: 82 80        	ret

0000000000010b6c <__ieee754_sqrt>:
   10b6c: 53 75 05 5a  	fsqrt.d	fa0, fa0
   10b70: 82 80        	ret

0000000000010b72 <fabs>:
   10b72: 53 25 a5 22  	fabs.d	fa0, fa0
   10b76: 82 80        	ret

0000000000010b78 <finite>:
   10b78: 53 15 05 e2  	fclass.d	a0, fa0
   10b7c: 13 75 15 38  	andi	a0, a0, 0x381
   10b80: 13 35 15 00  	seqz	a0, a0
   10b84: 82 80        	ret

0000000000010b86 <__kernel_cos>:
   10b86: d3 07 05 e2  	fmv.x.d	a5, fa0
   10b8a: b7 06 40 3e  	lui	a3, 0x3e400
   10b8e: 13 97 17 00  	slli	a4, a5, 0x1
   10b92: 05 93        	srli	a4, a4, 0x21
   10b94: 63 70 d7 06  	bgeu	a4, a3, 0x10bf4 <__kernel_cos+0x6e>
   10b98: 53 17 05 c2  	fcvt.w.d	a4, fa0, rtz
   10b9c: 01 27        	sext.w	a4, a4
   10b9e: 63 0f 07 0c  	beqz	a4, 0x10c7c <__kernel_cos+0xf6>
   10ba2: 53 77 a5 12  	fmul.d	fa4, fa0, fa0
   10ba6: 87 b7 01 f9  	fld	fa5, -0x70(gp)
   10baa: 87 b6 81 f9  	fld	fa3, -0x68(gp)
   10bae: c3 77 f7 6a  	fmadd.d	fa5, fa4, fa5, fa3
   10bb2: 87 b6 01 fa  	fld	fa3, -0x60(gp)
   10bb6: c3 77 f7 6a  	fmadd.d	fa5, fa4, fa5, fa3
   10bba: 87 b6 81 fa  	fld	fa3, -0x58(gp)
   10bbe: c3 77 f7 6a  	fmadd.d	fa5, fa4, fa5, fa3
   10bc2: 87 b6 01 fb  	fld	fa3, -0x50(gp)
   10bc6: c3 77 f7 6a  	fmadd.d	fa5, fa4, fa5, fa3
   10bca: 87 b6 81 fb  	fld	fa3, -0x48(gp)
   10bce: c3 77 f7 6a  	fmadd.d	fa5, fa4, fa5, fa3
   10bd2: d3 77 f7 12  	fmul.d	fa5, fa4, fa5
   10bd6: d3 86 07 f2  	fmv.d.x	fa3, a5
   10bda: d3 f5 b6 12  	fmul.d	fa1, fa3, fa1
   10bde: 87 b6 01 fc  	fld	fa3, -0x40(gp)
   10be2: 07 b5 01 f0  	fld	fa0, -0x100(gp)
   10be6: c7 77 f7 5a  	fmsub.d	fa5, fa4, fa5, fa1
   10bea: c7 77 d7 7a  	fmsub.d	fa5, fa4, fa3, fa5
   10bee: 53 75 f5 0a  	fsub.d	fa0, fa0, fa5
   10bf2: 82 80        	ret
   10bf4: 53 77 a5 12  	fmul.d	fa4, fa0, fa0
   10bf8: 87 b7 01 f9  	fld	fa5, -0x70(gp)
   10bfc: 87 b6 81 f9  	fld	fa3, -0x68(gp)
   10c00: c3 77 f7 6a  	fmadd.d	fa5, fa4, fa5, fa3
   10c04: 87 b6 01 fa  	fld	fa3, -0x60(gp)
   10c08: b7 36 d3 3f  	lui	a3, 0x3fd33
   10c0c: 93 86 26 33  	addi	a3, a3, 0x332
   10c10: c3 f7 e7 6a  	fmadd.d	fa5, fa5, fa4, fa3
   10c14: 87 b6 81 fa  	fld	fa3, -0x58(gp)
   10c18: c3 f7 e7 6a  	fmadd.d	fa5, fa5, fa4, fa3
   10c1c: 87 b6 01 fb  	fld	fa3, -0x50(gp)
   10c20: c3 f7 e7 6a  	fmadd.d	fa5, fa5, fa4, fa3
   10c24: 87 b6 81 fb  	fld	fa3, -0x48(gp)
   10c28: c3 f7 e7 6a  	fmadd.d	fa5, fa5, fa4, fa3
   10c2c: d3 f7 e7 12  	fmul.d	fa5, fa5, fa4
   10c30: e3 f3 e6 fa  	bgeu	a3, a4, 0x10bd6 <__kernel_cos+0x50>
   10c34: b7 06 e9 3f  	lui	a3, 0x3fe90
   10c38: 63 ed e6 02  	bltu	a3, a4, 0x10c72 <__kernel_cos+0xec>
   10c3c: b7 06 e0 ff  	lui	a3, 0xffe00
   10c40: 35 9f        	addw	a4, a4, a3
   10c42: 02 17        	slli	a4, a4, 0x20
   10c44: 07 b5 01 f0  	fld	fa0, -0x100(gp)
   10c48: d3 06 07 f2  	fmv.d.x	fa3, a4
   10c4c: 53 06 07 f2  	fmv.d.x	fa2, a4
   10c50: 53 75 d5 0a  	fsub.d	fa0, fa0, fa3
   10c54: d3 86 07 f2  	fmv.d.x	fa3, a5
   10c58: d3 f5 b6 12  	fmul.d	fa1, fa3, fa1
   10c5c: 87 b6 01 fc  	fld	fa3, -0x40(gp)
   10c60: c7 76 d7 62  	fmsub.d	fa3, fa4, fa3, fa2
   10c64: c7 77 f7 5a  	fmsub.d	fa5, fa4, fa5, fa1
   10c68: d3 f7 f6 0a  	fsub.d	fa5, fa3, fa5
   10c6c: 53 75 f5 0a  	fsub.d	fa0, fa0, fa5
   10c70: 82 80        	ret
   10c72: 07 b5 01 f8  	fld	fa0, -0x80(gp)
   10c76: 07 b6 81 f8  	fld	fa2, -0x78(gp)
   10c7a: e9 bf        	j	0x10c54 <__kernel_cos+0xce>
   10c7c: 07 b5 01 f0  	fld	fa0, -0x100(gp)
   10c80: 82 80        	ret

0000000000010c82 <__kernel_sin>:
   10c82: d3 07 05 e2  	fmv.x.d	a5, fa0
   10c86: b7 06 40 3e  	lui	a3, 0x3e400
   10c8a: 13 97 17 00  	slli	a4, a5, 0x1
   10c8e: 05 93        	srli	a4, a4, 0x21
   10c90: 63 76 d7 00  	bgeu	a4, a3, 0x10c9c <__kernel_sin+0x1a>
   10c94: 53 17 05 c2  	fcvt.w.d	a4, fa0, rtz
   10c98: 01 27        	sext.w	a4, a4
   10c9a: 2d c7        	beqz	a4, 0x10d04 <__kernel_sin+0x82>
   10c9c: d3 87 07 f2  	fmv.d.x	fa5, a5
   10ca0: 53 f7 f7 12  	fmul.d	fa4, fa5, fa5
   10ca4: 87 b7 81 fc  	fld	fa5, -0x38(gp)
   10ca8: 87 b6 01 fd  	fld	fa3, -0x30(gp)
   10cac: c3 77 f7 6a  	fmadd.d	fa5, fa4, fa5, fa3
   10cb0: d3 86 07 f2  	fmv.d.x	fa3, a5
   10cb4: 53 f5 e6 12  	fmul.d	fa0, fa3, fa4
   10cb8: 87 b6 81 fd  	fld	fa3, -0x28(gp)
   10cbc: c3 f7 e7 6a  	fmadd.d	fa5, fa5, fa4, fa3
   10cc0: 87 b6 01 fe  	fld	fa3, -0x20(gp)
   10cc4: c3 f7 e7 6a  	fmadd.d	fa5, fa5, fa4, fa3
   10cc8: 87 b6 81 fe  	fld	fa3, -0x18(gp)
   10ccc: c3 f7 e7 6a  	fmadd.d	fa5, fa5, fa4, fa3
   10cd0: 11 e9        	bnez	a0, 0x10ce4 <__kernel_sin+0x62>
   10cd2: 87 b6 01 ff  	fld	fa3, -0x10(gp)
   10cd6: 43 77 f7 6a  	fmadd.d	fa4, fa4, fa5, fa3
   10cda: d3 87 07 f2  	fmv.d.x	fa5, a5
   10cde: 43 75 a7 7a  	fmadd.d	fa0, fa4, fa0, fa5
   10ce2: 82 80        	ret
   10ce4: d3 77 f5 12  	fmul.d	fa5, fa0, fa5
   10ce8: 87 b6 01 fc  	fld	fa3, -0x40(gp)
   10cec: c7 f7 d5 7a  	fmsub.d	fa5, fa1, fa3, fa5
   10cf0: c7 f7 e7 5a  	fmsub.d	fa5, fa5, fa4, fa1
   10cf4: 07 b7 81 ff  	fld	fa4, -0x8(gp)
   10cf8: 43 75 e5 7a  	fmadd.d	fa0, fa0, fa4, fa5
   10cfc: d3 87 07 f2  	fmv.d.x	fa5, a5
   10d00: 53 f5 a7 0a  	fsub.d	fa0, fa5, fa0
   10d04: 82 80        	ret

0000000000010d06 <__ieee754_exp>:
   10d06: d3 07 05 e2  	fmv.x.d	a5, fa0
   10d0a: 37 36 86 40  	lui	a2, 0x40863
   10d0e: 13 06 16 e4  	addi	a2, a2, -0x1bf
   10d12: 93 d6 07 42  	srai	a3, a5, 0x20
   10d16: 13 97 16 02  	slli	a4, a3, 0x21
   10d1a: 13 d5 f7 03  	srli	a0, a5, 0x3f
   10d1e: 05 93        	srli	a4, a4, 0x21
   10d20: aa 85        	mv	a1, a0
   10d22: 63 74 e6 02  	bgeu	a2, a4, 0x10d4a <__ieee754_exp+0x44>
   10d26: 37 06 f0 7f  	lui	a2, 0x7ff00
   10d2a: 63 69 c7 08  	bltu	a4, a2, 0x10dbc <__ieee754_exp+0xb6>
   10d2e: 13 97 c6 02  	slli	a4, a3, 0x2c
   10d32: 31 93        	srli	a4, a4, 0x2c
   10d34: 5d 8f        	or	a4, a4, a5
   10d36: 01 27        	sext.w	a4, a4
   10d38: 63 1e 07 18  	bnez	a4, 0x10ed4 <__ieee754_exp+0x1ce>
   10d3c: 13 07 00 00  	li	a4, 0x0
   10d40: 63 10 05 14  	bnez	a0, 0x10e80 <__ieee754_exp+0x17a>
   10d44: 53 07 05 e2  	fmv.x.d	a4, fa0
   10d48: 25 aa        	j	0x10e80 <__ieee754_exp+0x17a>
   10d4a: b7 36 d6 3f  	lui	a3, 0x3fd63
   10d4e: 93 86 26 e4  	addi	a3, a3, -0x1be
   10d52: 63 e9 e6 14  	bltu	a3, a4, 0x10ea4 <__ieee754_exp+0x19e>
   10d56: b7 06 f0 3d  	lui	a3, 0x3df00
   10d5a: 63 66 d7 12  	bltu	a4, a3, 0x10e86 <__ieee754_exp+0x180>
   10d5e: d3 87 07 f2  	fmv.d.x	fa5, a5
   10d62: 07 b7 81 01  	fld	fa4, 0x18(gp)
   10d66: d3 f7 f7 12  	fmul.d	fa5, fa5, fa5
   10d6a: 87 b6 01 02  	fld	fa3, 0x20(gp)
   10d6e: 43 f7 e7 6a  	fmadd.d	fa4, fa5, fa4, fa3
   10d72: 87 b6 81 02  	fld	fa3, 0x28(gp)
   10d76: 43 f7 e7 6a  	fmadd.d	fa4, fa5, fa4, fa3
   10d7a: 87 b6 01 03  	fld	fa3, 0x30(gp)
   10d7e: 43 f7 e7 6a  	fmadd.d	fa4, fa5, fa4, fa3
   10d82: 87 b6 81 03  	fld	fa3, 0x38(gp)
   10d86: 43 f7 e7 6a  	fmadd.d	fa4, fa5, fa4, fa3
   10d8a: d3 86 07 f2  	fmv.d.x	fa3, a5
   10d8e: cb f7 e7 6a  	fnmsub.d	fa5, fa5, fa4, fa3
   10d92: d3 f6 f6 12  	fmul.d	fa3, fa3, fa5
   10d96: 07 b7 01 f0  	fld	fa4, -0x100(gp)
   10d9a: 07 b6 81 f0  	fld	fa2, -0xf8(gp)
   10d9e: d3 f7 c7 0a  	fsub.d	fa5, fa5, fa2
   10da2: d3 f6 f6 1a  	fdiv.d	fa3, fa3, fa5
   10da6: d3 87 07 f2  	fmv.d.x	fa5, a5
   10daa: d3 f6 f6 0a  	fsub.d	fa3, fa3, fa5
   10dae: d3 77 d7 0a  	fsub.d	fa5, fa4, fa3
   10db2: 53 87 07 e2  	fmv.x.d	a4, fa5
   10db6: 53 05 07 f2  	fmv.d.x	fa0, a4
   10dba: 82 80        	ret
   10dbc: 87 b7 01 ed  	fld	fa5, -0x130(gp)
   10dc0: 53 97 a7 a2  	flt.d	a4, fa5, fa0
   10dc4: 63 1f 07 10  	bnez	a4, 0x10ee2 <__ieee754_exp+0x1dc>
   10dc8: 87 b7 81 ed  	fld	fa5, -0x128(gp)
   10dcc: 53 17 f5 a2  	flt.d	a4, fa0, fa5
   10dd0: 63 10 07 14  	bnez	a4, 0x10f10 <__ieee754_exp+0x20a>
   10dd4: 6d 67        	lui	a4, 0x1b
   10dd6: 8e 05        	slli	a1, a1, 0x3
   10dd8: 13 07 87 2d  	addi	a4, a4, 0x2d8
   10ddc: 2e 97        	add	a4, a4, a1
   10dde: 18 23        	fld	fa4, 0x0(a4)
   10de0: d3 86 07 f2  	fmv.d.x	fa3, a5
   10de4: 87 b7 01 00  	fld	fa5, 0x0(gp)
   10de8: c3 f7 f6 72  	fmadd.d	fa5, fa3, fa5, fa4
   10dec: 07 b6 81 00  	fld	fa2, 0x8(gp)
   10df0: 53 97 07 c2  	fcvt.w.d	a4, fa5, rtz
   10df4: 87 b7 01 01  	fld	fa5, 0x10(gp)
   10df8: 53 07 07 d2  	fcvt.d.w	fa4, a4
   10dfc: 01 27        	sext.w	a4, a4
   10dfe: 4b 76 c7 6a  	fnmsub.d	fa2, fa4, fa2, fa3
   10e02: 53 77 f7 12  	fmul.d	fa4, fa4, fa5
   10e06: d3 77 e6 0a  	fsub.d	fa5, fa2, fa4
   10e0a: d3 f6 f7 12  	fmul.d	fa3, fa5, fa5
   10e0e: d3 87 07 e2  	fmv.x.d	a5, fa5
   10e12: 87 b7 81 01  	fld	fa5, 0x18(gp)
   10e16: 87 b5 01 02  	fld	fa1, 0x20(gp)
   10e1a: c3 f7 f6 5a  	fmadd.d	fa5, fa3, fa5, fa1
   10e1e: 87 b5 81 02  	fld	fa1, 0x28(gp)
   10e22: c3 f7 d7 5a  	fmadd.d	fa5, fa5, fa3, fa1
   10e26: 87 b5 01 03  	fld	fa1, 0x30(gp)
   10e2a: c3 f7 d7 5a  	fmadd.d	fa5, fa5, fa3, fa1
   10e2e: 87 b5 81 03  	fld	fa1, 0x38(gp)
   10e32: c3 f7 d7 5a  	fmadd.d	fa5, fa5, fa3, fa1
   10e36: d3 85 07 f2  	fmv.d.x	fa1, a5
   10e3a: cb f7 d7 5a  	fnmsub.d	fa5, fa5, fa3, fa1
   10e3e: d3 f6 f5 12  	fmul.d	fa3, fa1, fa5
   10e42: 69 cb        	beqz	a4, 0x10f14 <__ieee754_exp+0x20e>
   10e44: 87 b5 81 f0  	fld	fa1, -0xf8(gp)
   10e48: 93 07 30 c0  	li	a5, -0x3fd
   10e4c: d3 f7 f5 0a  	fsub.d	fa5, fa1, fa5
   10e50: d3 f6 f6 1a  	fdiv.d	fa3, fa3, fa5
   10e54: 87 b7 01 f0  	fld	fa5, -0x100(gp)
   10e58: 53 77 d7 0a  	fsub.d	fa4, fa4, fa3
   10e5c: 53 77 c7 0a  	fsub.d	fa4, fa4, fa2
   10e60: d3 f7 e7 0a  	fsub.d	fa5, fa5, fa4
   10e64: d3 86 07 e2  	fmv.x.d	a3, fa5
   10e68: 13 d6 06 42  	srai	a2, a3, 0x20
   10e6c: 63 4d f7 06  	blt	a4, a5, 0x10ee6 <__ieee754_exp+0x1e0>
   10e70: 1b 17 47 01  	slliw	a4, a4, 0x14
   10e74: fd 57        	li	a5, -0x1
   10e76: 31 9f        	addw	a4, a4, a2
   10e78: 81 93        	srli	a5, a5, 0x20
   10e7a: 02 17        	slli	a4, a4, 0x20
   10e7c: f5 8f        	and	a5, a5, a3
   10e7e: 5d 8f        	or	a4, a4, a5
   10e80: 53 05 07 f2  	fmv.d.x	fa0, a4
   10e84: 82 80        	ret
   10e86: 07 b7 81 ef  	fld	fa4, -0x108(gp)
   10e8a: 87 b7 01 f0  	fld	fa5, -0x100(gp)
   10e8e: 53 77 e5 02  	fadd.d	fa4, fa0, fa4
   10e92: d3 96 e7 a2  	flt.d	a3, fa5, fa4
   10e96: e3 84 06 ec  	beqz	a3, 0x10d5e <__ieee754_exp+0x58>
   10e9a: d3 77 f5 02  	fadd.d	fa5, fa0, fa5
   10e9e: 53 87 07 e2  	fmv.x.d	a4, fa5
   10ea2: f9 bf        	j	0x10e80 <__ieee754_exp+0x17a>
   10ea4: b7 a6 f0 3f  	lui	a3, 0x3ff0a
   10ea8: 93 86 16 2b  	addi	a3, a3, 0x2b1
   10eac: e3 e4 e6 f2  	bltu	a3, a4, 0x10dd4 <__ieee754_exp+0xce>
   10eb0: 6d 67        	lui	a4, 0x1b
   10eb2: 93 15 35 00  	slli	a1, a0, 0x3
   10eb6: 13 07 87 2c  	addi	a4, a4, 0x2c8
   10eba: 2e 97        	add	a4, a4, a1
   10ebc: 10 23        	fld	fa2, 0x0(a4)
   10ebe: ed 66        	lui	a3, 0x1b
   10ec0: 93 86 86 2b  	addi	a3, a3, 0x2b8
   10ec4: ae 96        	add	a3, a3, a1
   10ec6: 13 47 15 00  	xori	a4, a0, 0x1
   10eca: 53 76 c5 0a  	fsub.d	fa2, fa0, fa2
   10ece: 98 22        	fld	fa4, 0x0(a3)
   10ed0: 09 9f        	subw	a4, a4, a0
   10ed2: 15 bf        	j	0x10e06 <__ieee754_exp+0x100>
   10ed4: d3 77 a5 02  	fadd.d	fa5, fa0, fa0
   10ed8: 53 87 07 e2  	fmv.x.d	a4, fa5
   10edc: 53 05 07 f2  	fmv.d.x	fa0, a4
   10ee0: 82 80        	ret
   10ee2: 01 45        	li	a0, 0x0
   10ee4: fd a1        	j	0x113d2 <__math_oflow>
   10ee6: 9b 07 87 3e  	addiw	a5, a4, 0x3e8
   10eea: 9b 97 47 01  	slliw	a5, a5, 0x14
   10eee: 7d 57        	li	a4, -0x1
   10ef0: b1 9f        	addw	a5, a5, a2
   10ef2: 01 93        	srli	a4, a4, 0x20
   10ef4: 75 8f        	and	a4, a4, a3
   10ef6: 82 17        	slli	a5, a5, 0x20
   10ef8: d9 8f        	or	a5, a5, a4
   10efa: 87 b7 01 04  	fld	fa5, 0x40(gp)
   10efe: 53 87 07 f2  	fmv.d.x	fa4, a5
   10f02: d3 f7 e7 12  	fmul.d	fa5, fa5, fa4
   10f06: 53 87 07 e2  	fmv.x.d	a4, fa5
   10f0a: 53 05 07 f2  	fmv.d.x	fa0, a4
   10f0e: 82 80        	ret
   10f10: 01 45        	li	a0, 0x0
   10f12: 55 a9        	j	0x113c6 <__math_uflow>
   10f14: 49 b5        	j	0x10d96 <__ieee754_exp+0x90>

0000000000010f16 <__ieee754_log>:
   10f16: d3 07 05 e2  	fmv.x.d	a5, fa0
   10f1a: 37 06 10 00  	lui	a2, 0x100
   10f1e: 13 d7 07 42  	srai	a4, a5, 0x20
   10f22: 63 5f c7 0a  	bge	a4, a2, 0x10fe0 <__ieee754_log+0xca>
   10f26: 93 16 17 02  	slli	a3, a4, 0x21
   10f2a: 85 92        	srli	a3, a3, 0x21
   10f2c: dd 8e        	or	a3, a3, a5
   10f2e: 81 26        	sext.w	a3, a3
   10f30: 63 8a 06 14  	beqz	a3, 0x11084 <__ieee754_log+0x16e>
   10f34: 63 4a 07 1a  	bltz	a4, 0x110e8 <__ieee754_log+0x1d2>
   10f38: 87 b7 01 05  	fld	fa5, 0x50(gp)
   10f3c: b7 06 f0 7f  	lui	a3, 0x7ff00
   10f40: 13 06 a0 fc  	li	a2, -0x36
   10f44: d3 77 f5 12  	fmul.d	fa5, fa0, fa5
   10f48: d3 87 07 e2  	fmv.x.d	a5, fa5
   10f4c: 13 d7 07 42  	srai	a4, a5, 0x20
   10f50: 63 5d d7 08  	bge	a4, a3, 0x10fea <__ieee754_log+0xd4>
   10f54: 37 08 10 00  	lui	a6, 0x100
   10f58: 7d 18        	addi	a6, a6, -0x1
   10f5a: b7 66 09 00  	lui	a3, 0x96
   10f5e: b3 78 07 01  	and	a7, a4, a6
   10f62: 9b 86 46 f6  	addiw	a3, a3, -0x9c
   10f66: b7 05 10 00  	lui	a1, 0x100
   10f6a: bb 86 d8 00  	addw	a3, a7, a3
   10f6e: 1b 57 47 41  	sraiw	a4, a4, 0x14
   10f72: ed 8e        	and	a3, a3, a1
   10f74: 1b 07 17 c0  	addiw	a4, a4, -0x3ff
   10f78: b7 05 f0 3f  	lui	a1, 0x3ff00
   10f7c: 31 9f        	addw	a4, a4, a2
   10f7e: b5 8d        	xor	a1, a1, a3
   10f80: 7d 56        	li	a2, -0x1
   10f82: 01 92        	srli	a2, a2, 0x20
   10f84: b3 e5 b8 00  	or	a1, a7, a1
   10f88: 82 15        	slli	a1, a1, 0x20
   10f8a: f1 8f        	and	a5, a5, a2
   10f8c: cd 8f        	or	a5, a5, a1
   10f8e: 07 b5 01 f0  	fld	fa0, -0x100(gp)
   10f92: d3 87 07 f2  	fmv.d.x	fa5, a5
   10f96: 1b 85 28 00  	addiw	a0, a7, 0x2
   10f9a: 33 76 05 01  	and	a2, a0, a6
   10f9e: 9b d6 46 41  	sraiw	a3, a3, 0x14
   10fa2: b9 9e        	addw	a3, a3, a4
   10fa4: 1b 07 06 00  	sext.w	a4, a2
   10fa8: 09 46        	li	a2, 0x2
   10faa: 53 f5 a7 0a  	fsub.d	fa0, fa5, fa0
   10fae: 9b 85 06 00  	sext.w	a1, a3
   10fb2: 63 41 e6 04  	blt	a2, a4, 0x10ff4 <__ieee754_log+0xde>
   10fb6: d3 07 00 f2  	fmv.d.x	fa5, zero
   10fba: d3 27 f5 a2  	feq.d	a5, fa0, fa5
   10fbe: 63 8a 07 0c  	beqz	a5, 0x11092 <__ieee754_log+0x17c>
   10fc2: 53 85 f7 22  	fmv.d	fa0, fa5
   10fc6: 63 8d 05 10  	beqz	a1, 0x110e0 <__ieee754_log+0x1ca>
   10fca: 53 85 06 d2  	fcvt.d.w	fa0, a3
   10fce: 87 b7 01 01  	fld	fa5, 0x10(gp)
   10fd2: 07 b7 81 00  	fld	fa4, 0x8(gp)
   10fd6: d3 77 f5 12  	fmul.d	fa5, fa0, fa5
   10fda: 43 75 e5 7a  	fmadd.d	fa0, fa0, fa4, fa5
   10fde: 82 80        	ret
   10fe0: b7 06 f0 7f  	lui	a3, 0x7ff00
   10fe4: 01 46        	li	a2, 0x0
   10fe6: e3 47 d7 f6  	blt	a4, a3, 0x10f54 <__ieee754_log+0x3e>
   10fea: d3 87 07 f2  	fmv.d.x	fa5, a5
   10fee: 53 f5 f7 02  	fadd.d	fa0, fa5, fa5
   10ff2: 82 80        	ret
   10ff4: 87 b6 81 f0  	fld	fa3, -0xf8(gp)
   10ff8: 37 c7 06 00  	lui	a4, 0x6c
   10ffc: b7 f7 f9 ff  	lui	a5, 0xfff9f
   11000: d3 76 d5 02  	fadd.d	fa3, fa0, fa3
   11004: 9b 87 67 b8  	addiw	a5, a5, -0x47a
   11008: 1b 07 17 85  	addiw	a4, a4, -0x7af
   1100c: 3b 07 17 41  	subw	a4, a4, a7
   11010: bb 87 17 01  	addw	a5, a5, a7
   11014: d9 8f        	or	a5, a5, a4
   11016: d3 76 d5 1a  	fdiv.d	fa3, fa0, fa3
   1101a: 07 b7 81 07  	fld	fa4, 0x78(gp)
   1101e: 87 b7 01 08  	fld	fa5, 0x80(gp)
   11022: 81 27        	sext.w	a5, a5
   11024: d3 80 06 d2  	fcvt.d.w	ft1, a3
   11028: d3 f5 d6 12  	fmul.d	fa1, fa3, fa3
   1102c: 53 f6 b5 12  	fmul.d	fa2, fa1, fa1
   11030: 43 77 e6 7a  	fmadd.d	fa4, fa2, fa4, fa5
   11034: 87 b7 01 06  	fld	fa5, 0x60(gp)
   11038: 07 b0 81 06  	fld	ft0, 0x68(gp)
   1103c: c3 77 f6 02  	fmadd.d	fa5, fa2, fa5, ft0
   11040: 07 b0 81 08  	fld	ft0, 0x88(gp)
   11044: 43 77 c7 02  	fmadd.d	fa4, fa4, fa2, ft0
   11048: 07 b0 01 07  	fld	ft0, 0x70(gp)
   1104c: c3 f7 c7 02  	fmadd.d	fa5, fa5, fa2, ft0
   11050: 07 b0 01 09  	fld	ft0, 0x90(gp)
   11054: 43 77 c7 02  	fmadd.d	fa4, fa4, fa2, ft0
   11058: 53 77 b7 12  	fmul.d	fa4, fa4, fa1
   1105c: c3 f7 c7 72  	fmadd.d	fa5, fa5, fa2, fa4
   11060: 63 51 f0 06  	blez	a5, 0x110c2 <__ieee754_log+0x1ac>
   11064: 07 b7 01 fc  	fld	fa4, -0x40(gp)
   11068: 53 77 e5 12  	fmul.d	fa4, fa0, fa4
   1106c: 53 77 a7 12  	fmul.d	fa4, fa4, fa0
   11070: d3 f7 e7 02  	fadd.d	fa5, fa5, fa4
   11074: d3 f7 d7 12  	fmul.d	fa5, fa5, fa3
   11078: bd ed        	bnez	a1, 0x110f6 <__ieee754_log+0x1e0>
   1107a: 53 77 f7 0a  	fsub.d	fa4, fa4, fa5
   1107e: 53 75 e5 0a  	fsub.d	fa0, fa0, fa4
   11082: 82 80        	ret
   11084: d3 07 00 f2  	fmv.d.x	fa5, zero
   11088: 07 b5 81 04  	fld	fa0, 0x48(gp)
   1108c: 53 75 f5 1a  	fdiv.d	fa0, fa0, fa5
   11090: 82 80        	ret
   11092: 07 b7 81 05  	fld	fa4, 0x58(gp)
   11096: 87 b6 01 fc  	fld	fa3, -0x40(gp)
   1109a: d3 77 a5 12  	fmul.d	fa5, fa0, fa0
   1109e: 4b 77 e5 6a  	fnmsub.d	fa4, fa0, fa4, fa3
   110a2: d3 f7 e7 12  	fmul.d	fa5, fa5, fa4
   110a6: 95 cd        	beqz	a1, 0x110e2 <__ieee754_log+0x1cc>
   110a8: d3 86 06 d2  	fcvt.d.w	fa3, a3
   110ac: 07 b7 01 01  	fld	fa4, 0x10(gp)
   110b0: cb f7 e6 7a  	fnmsub.d	fa5, fa3, fa4, fa5
   110b4: d3 f7 a7 0a  	fsub.d	fa5, fa5, fa0
   110b8: 07 b5 81 00  	fld	fa0, 0x8(gp)
   110bc: 47 f5 a6 7a  	fmsub.d	fa0, fa3, fa0, fa5
   110c0: 82 80        	ret
   110c2: d3 77 f5 0a  	fsub.d	fa5, fa0, fa5
   110c6: d3 f7 d7 12  	fmul.d	fa5, fa5, fa3
   110ca: 81 cd        	beqz	a1, 0x110e2 <__ieee754_log+0x1cc>
   110cc: 07 b7 01 01  	fld	fa4, 0x10(gp)
   110d0: cb f7 e0 7a  	fnmsub.d	fa5, ft1, fa4, fa5
   110d4: d3 f7 a7 0a  	fsub.d	fa5, fa5, fa0
   110d8: 07 b5 81 00  	fld	fa0, 0x8(gp)
   110dc: 47 f5 a0 7a  	fmsub.d	fa0, ft1, fa0, fa5
   110e0: 82 80        	ret
   110e2: 53 75 f5 0a  	fsub.d	fa0, fa0, fa5
   110e6: 82 80        	ret
   110e8: 53 75 a5 0a  	fsub.d	fa0, fa0, fa0
   110ec: d3 07 00 f2  	fmv.d.x	fa5, zero
   110f0: 53 75 f5 1a  	fdiv.d	fa0, fa0, fa5
   110f4: 82 80        	ret
   110f6: 87 b6 01 01  	fld	fa3, 0x10(gp)
   110fa: c3 f7 d0 7a  	fmadd.d	fa5, ft1, fa3, fa5
   110fe: 53 77 f7 0a  	fsub.d	fa4, fa4, fa5
   11102: 53 77 a7 0a  	fsub.d	fa4, fa4, fa0
   11106: 07 b5 81 00  	fld	fa0, 0x8(gp)
   1110a: 47 f5 a0 72  	fmsub.d	fa0, ft1, fa0, fa4
   1110e: 82 80        	ret

0000000000011110 <__ieee754_rem_pio2>:
   11110: d3 07 05 e2  	fmv.x.d	a5, fa0
   11114: 39 71        	addi	sp, sp, -0x40
   11116: b7 26 e9 3f  	lui	a3, 0x3fe92
   1111a: 13 d6 07 42  	srai	a2, a5, 0x20
   1111e: 13 17 16 02  	slli	a4, a2, 0x21
   11122: 22 f8        	sd	s0, 0x30(sp)
   11124: 06 fc        	sd	ra, 0x38(sp)
   11126: 93 86 b6 1f  	addi	a3, a3, 0x1fb
   1112a: 05 93        	srli	a4, a4, 0x21
   1112c: 2a 84        	mv	s0, a0
   1112e: 63 f3 e6 0e  	bgeu	a3, a4, 0x11214 <__ieee754_rem_pio2+0x104>
   11132: b7 e6 02 40  	lui	a3, 0x4002e
   11136: 26 f4        	sd	s1, 0x28(sp)
   11138: 93 86 b6 97  	addi	a3, a3, -0x685
   1113c: 9b 04 06 00  	sext.w	s1, a2
   11140: 63 ee e6 02  	bltu	a3, a4, 0x1117c <__ieee754_rem_pio2+0x6c>
   11144: b7 26 f9 3f  	lui	a3, 0x3ff92
   11148: 87 b7 81 09  	fld	fa5, 0x98(gp)
   1114c: 93 86 b6 1f  	addi	a3, a3, 0x1fb
   11150: 63 5e 90 1e  	blez	s1, 0x1134c <__ieee754_rem_pio2+0x23c>
   11154: d3 77 f5 0a  	fsub.d	fa5, fa0, fa5
   11158: 63 0c d7 0c  	beq	a4, a3, 0x11230 <__ieee754_rem_pio2+0x120>
   1115c: 87 b6 01 0a  	fld	fa3, 0xa0(gp)
   11160: 53 f7 d7 0a  	fsub.d	fa4, fa5, fa3
   11164: d3 f7 e7 0a  	fsub.d	fa5, fa5, fa4
   11168: d3 f7 d7 0a  	fsub.d	fa5, fa5, fa3
   1116c: a2 74        	ld	s1, 0x28(sp)
   1116e: 18 a0        	fsd	fa4, 0x0(s0)
   11170: 1c a4        	fsd	fa5, 0x8(s0)
   11172: 05 45        	li	a0, 0x1
   11174: e2 70        	ld	ra, 0x38(sp)
   11176: 42 74        	ld	s0, 0x30(sp)
   11178: 21 61        	addi	sp, sp, 0x40
   1117a: 82 80        	ret
   1117c: b7 26 39 41  	lui	a3, 0x41392
   11180: 4a f0        	sd	s2, 0x20(sp)
   11182: 93 86 b6 1f  	addi	a3, a3, 0x1fb
   11186: 1b 09 07 00  	sext.w	s2, a4
   1118a: 63 f0 e6 0c  	bgeu	a3, a4, 0x1124a <__ieee754_rem_pio2+0x13a>
   1118e: b7 06 f0 7f  	lui	a3, 0x7ff00
   11192: 63 77 d7 08  	bgeu	a4, a3, 0x11220 <__ieee754_rem_pio2+0x110>
   11196: 1b 56 49 41  	sraiw	a2, s2, 0x14
   1119a: 1b 06 a6 be  	addiw	a2, a2, -0x416
   1119e: be 85        	mv	a1, a5
   111a0: 9b 17 46 01  	slliw	a5, a2, 0x14
   111a4: 3b 09 f9 40  	subw	s2, s2, a5
   111a8: 82 15        	slli	a1, a1, 0x20
   111aa: 02 19        	slli	s2, s2, 0x20
   111ac: 81 91        	srli	a1, a1, 0x20
   111ae: b3 e5 25 01  	or	a1, a1, s2
   111b2: d3 87 05 f2  	fmv.d.x	fa5, a1
   111b6: 07 b7 01 0d  	fld	fa4, 0xd0(gp)
   111ba: d3 97 07 c2  	fcvt.w.d	a5, fa5, rtz
   111be: 8d 46        	li	a3, 0x3
   111c0: d3 86 07 d2  	fcvt.d.w	fa3, a5
   111c4: d3 f7 d7 0a  	fsub.d	fa5, fa5, fa3
   111c8: 36 a4        	fsd	fa3, 0x8(sp)
   111ca: d3 f7 e7 12  	fmul.d	fa5, fa5, fa4
   111ce: d3 97 07 c2  	fcvt.w.d	a5, fa5, rtz
   111d2: d3 86 07 d2  	fcvt.d.w	fa3, a5
   111d6: 81 27        	sext.w	a5, a5
   111d8: d3 f7 d7 0a  	fsub.d	fa5, fa5, fa3
   111dc: 36 a8        	fsd	fa3, 0x10(sp)
   111de: d3 f7 e7 12  	fmul.d	fa5, fa5, fa4
   111e2: 53 07 00 f2  	fmv.d.x	fa4, zero
   111e6: 53 a7 e7 a2  	feq.d	a4, fa5, fa4
   111ea: 3e ac        	fsd	fa5, 0x18(sp)
   111ec: 01 c7        	beqz	a4, 0x111f4 <__ieee754_rem_pio2+0xe4>
   111ee: b3 36 f0 00  	snez	a3, a5
   111f2: 85 06        	addi	a3, a3, 0x1
   111f4: ed 67        	lui	a5, 0x1b
   111f6: 93 87 87 36  	addi	a5, a5, 0x368
   111fa: 09 47        	li	a4, 0x2
   111fc: a2 85        	mv	a1, s0
   111fe: 28 00        	addi	a0, sp, 0x8
   11200: ef 00 20 25  	jal	0x11452 <__kernel_rem_pio2>
   11204: 63 c7 04 12  	bltz	s1, 0x11332 <__ieee754_rem_pio2+0x222>
   11208: e2 70        	ld	ra, 0x38(sp)
   1120a: 42 74        	ld	s0, 0x30(sp)
   1120c: a2 74        	ld	s1, 0x28(sp)
   1120e: 02 79        	ld	s2, 0x20(sp)
   11210: 21 61        	addi	sp, sp, 0x40
   11212: 82 80        	ret
   11214: d3 07 00 f2  	fmv.d.x	fa5, zero
   11218: 08 a0        	fsd	fa0, 0x0(s0)
   1121a: 1c a5        	fsd	fa5, 0x8(a0)
   1121c: 01 45        	li	a0, 0x0
   1121e: 99 bf        	j	0x11174 <__ieee754_rem_pio2+0x64>
   11220: d3 77 a5 0a  	fsub.d	fa5, fa0, fa0
   11224: a2 74        	ld	s1, 0x28(sp)
   11226: 02 79        	ld	s2, 0x20(sp)
   11228: 1c a5        	fsd	fa5, 0x8(a0)
   1122a: 1c a1        	fsd	fa5, 0x0(a0)
   1122c: 01 45        	li	a0, 0x0
   1122e: 99 b7        	j	0x11174 <__ieee754_rem_pio2+0x64>
   11230: 87 b6 01 0b  	fld	fa3, 0xb0(gp)
   11234: 07 b7 81 0a  	fld	fa4, 0xa8(gp)
   11238: d3 f7 e7 0a  	fsub.d	fa5, fa5, fa4
   1123c: 53 f7 d7 0a  	fsub.d	fa4, fa5, fa3
   11240: d3 f7 e7 0a  	fsub.d	fa5, fa5, fa4
   11244: d3 f7 d7 0a  	fsub.d	fa5, fa5, fa3
   11248: 15 b7        	j	0x1116c <__ieee754_rem_pio2+0x5c>
   1124a: ef f0 9f 92  	jal	0x10b72 <fabs>
   1124e: 87 b7 81 0b  	fld	fa5, 0xb8(gp)
   11252: 07 b7 01 fc  	fld	fa4, -0x40(gp)
   11256: fd 47        	li	a5, 0x1f
   11258: c3 77 f5 72  	fmadd.d	fa5, fa0, fa5, fa4
   1125c: d3 96 07 c2  	fcvt.w.d	a3, fa5, rtz
   11260: 87 b7 81 09  	fld	fa5, 0x98(gp)
   11264: d3 86 06 d2  	fcvt.d.w	fa3, a3
   11268: 07 b7 01 0a  	fld	fa4, 0xa0(gp)
   1126c: 1b 85 06 00  	sext.w	a0, a3
   11270: cb f7 f6 52  	fnmsub.d	fa5, fa3, fa5, fa0
   11274: 53 f7 e6 12  	fmul.d	fa4, fa3, fa4
   11278: 63 c5 a7 04  	blt	a5, a0, 0x112c2 <__ieee754_rem_pio2+0x1b2>
   1127c: 1b 87 f6 ff  	addiw	a4, a3, -0x1
   11280: ed 67        	lui	a5, 0x1b
   11282: 0a 07        	slli	a4, a4, 0x2
   11284: 93 87 87 2e  	addi	a5, a5, 0x2e8
   11288: ba 97        	add	a5, a5, a4
   1128a: 9c 43        	lw	a5, 0x0(a5)
   1128c: 63 8b 27 03  	beq	a5, s2, 0x112c2 <__ieee754_rem_pio2+0x1b2>
   11290: d3 f6 e7 0a  	fsub.d	fa3, fa5, fa4
   11294: d3 87 06 e2  	fmv.x.d	a5, fa3
   11298: d3 86 07 f2  	fmv.d.x	fa3, a5
   1129c: 1c e0        	sd	a5, 0x0(s0)
   1129e: d3 f7 d7 0a  	fsub.d	fa5, fa5, fa3
   112a2: d3 f7 e7 0a  	fsub.d	fa5, fa5, fa4
   112a6: 1c a4        	fsd	fa5, 0x8(s0)
   112a8: e3 d0 04 f6  	bgez	s1, 0x11208 <__ieee754_rem_pio2+0xf8>
   112ac: 53 97 d6 22  	fneg.d	fa4, fa3
   112b0: d3 97 f7 22  	fneg.d	fa5, fa5
   112b4: a2 74        	ld	s1, 0x28(sp)
   112b6: 02 79        	ld	s2, 0x20(sp)
   112b8: 3b 05 d0 40  	negw	a0, a3
   112bc: 18 a0        	fsd	fa4, 0x0(s0)
   112be: 1c a4        	fsd	fa5, 0x8(s0)
   112c0: 55 bd        	j	0x11174 <__ieee754_rem_pio2+0x64>
   112c2: 53 f6 e7 0a  	fsub.d	fa2, fa5, fa4
   112c6: 1b 59 49 41  	sraiw	s2, s2, 0x14
   112ca: 41 46        	li	a2, 0x10
   112cc: d3 07 06 e2  	fmv.x.d	a5, fa2
   112d0: 13 d7 47 03  	srli	a4, a5, 0x34
   112d4: 13 77 f7 7f  	andi	a4, a4, 0x7ff
   112d8: 3b 07 e9 40  	subw	a4, s2, a4
   112dc: e3 5e e6 fa  	bge	a2, a4, 0x11298 <__ieee754_rem_pio2+0x188>
   112e0: 07 b7 81 0a  	fld	fa4, 0xa8(gp)
   112e4: 13 06 10 03  	li	a2, 0x31
   112e8: 4b f6 e6 7a  	fnmsub.d	fa2, fa3, fa4, fa5
   112ec: d3 f5 c7 0a  	fsub.d	fa1, fa5, fa2
   112f0: d3 07 c6 22  	fmv.d	fa5, fa2
   112f4: cb f5 e6 5a  	fnmsub.d	fa1, fa3, fa4, fa1
   112f8: 07 b7 01 0b  	fld	fa4, 0xb0(gp)
   112fc: 47 f7 e6 5a  	fmsub.d	fa4, fa3, fa4, fa1
   11300: d3 75 e6 0a  	fsub.d	fa1, fa2, fa4
   11304: d3 87 05 e2  	fmv.x.d	a5, fa1
   11308: 13 d7 47 03  	srli	a4, a5, 0x34
   1130c: 13 77 f7 7f  	andi	a4, a4, 0x7ff
   11310: 3b 09 e9 40  	subw	s2, s2, a4
   11314: e3 52 26 f9  	bge	a2, s2, 0x11298 <__ieee754_rem_pio2+0x188>
   11318: 07 b7 01 0c  	fld	fa4, 0xc0(gp)
   1131c: cb f7 e6 62  	fnmsub.d	fa5, fa3, fa4, fa2
   11320: 53 76 f6 0a  	fsub.d	fa2, fa2, fa5
   11324: 4b f6 e6 62  	fnmsub.d	fa2, fa3, fa4, fa2
   11328: 07 b7 81 0c  	fld	fa4, 0xc8(gp)
   1132c: 47 f7 e6 62  	fmsub.d	fa4, fa3, fa4, fa2
   11330: 85 b7        	j	0x11290 <__ieee754_rem_pio2+0x180>
   11332: 18 20        	fld	fa4, 0x0(s0)
   11334: 1c 24        	fld	fa5, 0x8(s0)
   11336: a2 74        	ld	s1, 0x28(sp)
   11338: 53 17 e7 22  	fneg.d	fa4, fa4
   1133c: d3 97 f7 22  	fneg.d	fa5, fa5
   11340: 02 79        	ld	s2, 0x20(sp)
   11342: 3b 05 a0 40  	negw	a0, a0
   11346: 18 a0        	fsd	fa4, 0x0(s0)
   11348: 1c a4        	fsd	fa5, 0x8(s0)
   1134a: 2d b5        	j	0x11174 <__ieee754_rem_pio2+0x64>
   1134c: d3 77 f5 02  	fadd.d	fa5, fa0, fa5
   11350: 63 0f d7 00  	beq	a4, a3, 0x1136e <__ieee754_rem_pio2+0x25e>
   11354: 87 b6 01 0a  	fld	fa3, 0xa0(gp)
   11358: 53 f7 d7 02  	fadd.d	fa4, fa5, fa3
   1135c: d3 f7 e7 0a  	fsub.d	fa5, fa5, fa4
   11360: d3 f7 d7 02  	fadd.d	fa5, fa5, fa3
   11364: a2 74        	ld	s1, 0x28(sp)
   11366: 18 a0        	fsd	fa4, 0x0(s0)
   11368: 1c a4        	fsd	fa5, 0x8(s0)
   1136a: 7d 55        	li	a0, -0x1
   1136c: 21 b5        	j	0x11174 <__ieee754_rem_pio2+0x64>
   1136e: 87 b6 01 0b  	fld	fa3, 0xb0(gp)
   11372: 07 b7 81 0a  	fld	fa4, 0xa8(gp)
   11376: d3 f7 e7 02  	fadd.d	fa5, fa5, fa4
   1137a: 53 f7 d7 02  	fadd.d	fa4, fa5, fa3
   1137e: d3 f7 e7 0a  	fsub.d	fa5, fa5, fa4
   11382: d3 f7 d7 02  	fadd.d	fa5, fa5, fa3
   11386: f9 bf        	j	0x11364 <__ieee754_rem_pio2+0x254>

0000000000011388 <with_errno>:
   11388: 01 11        	addi	sp, sp, -0x20
   1138a: 22 e8        	sd	s0, 0x10(sp)
   1138c: 22 a4        	fsd	fs0, 0x8(sp)
   1138e: 06 ec        	sd	ra, 0x18(sp)
   11390: 53 04 a5 22  	fmv.d	fs0, fa0
   11394: 2a 84        	mv	s0, a0
   11396: ef 10 e0 3e  	jal	0x12784 <__errno>
   1139a: e2 60        	ld	ra, 0x18(sp)
   1139c: 00 c1        	sw	s0, 0x0(a0)
   1139e: 42 64        	ld	s0, 0x10(sp)
   113a0: 53 05 84 22  	fmv.d	fa0, fs0
   113a4: 22 24        	fld	fs0, 0x8(sp)
   113a6: 05 61        	addi	sp, sp, 0x20
   113a8: 82 80        	ret

00000000000113aa <xflow>:
   113aa: d3 07 a5 22  	fmv.d	fa5, fa0
   113ae: 41 11        	addi	sp, sp, -0x10
   113b0: 19 c1        	beqz	a0, 0x113b6 <xflow+0xc>
   113b2: d3 17 a5 22  	fneg.d	fa5, fa0
   113b6: 3e a4        	fsd	fa5, 0x8(sp)
   113b8: a2 27        	fld	fa5, 0x8(sp)
   113ba: 13 05 20 02  	li	a0, 0x22
   113be: 53 75 f5 12  	fmul.d	fa0, fa0, fa5
   113c2: 41 01        	addi	sp, sp, 0x10
   113c4: d1 b7        	j	0x11388 <with_errno>

00000000000113c6 <__math_uflow>:
   113c6: 07 b5 81 0d  	fld	fa0, 0xd8(gp)
   113ca: c5 b7        	j	0x113aa <xflow>

00000000000113cc <__math_may_uflow>:
   113cc: 07 b5 01 0e  	fld	fa0, 0xe0(gp)
   113d0: e9 bf        	j	0x113aa <xflow>

00000000000113d2 <__math_oflow>:
   113d2: 07 b5 81 0e  	fld	fa0, 0xe8(gp)
   113d6: d1 bf        	j	0x113aa <xflow>

00000000000113d8 <__math_divzero>:
   113d8: 41 11        	addi	sp, sp, -0x10
   113da: 09 cd        	beqz	a0, 0x113f4 <__math_divzero+0x1c>
   113dc: 87 b7 01 f1  	fld	fa5, -0xf0(gp)
   113e0: 13 05 20 02  	li	a0, 0x22
   113e4: 3e a4        	fsd	fa5, 0x8(sp)
   113e6: 22 25        	fld	fa0, 0x8(sp)
   113e8: d3 07 00 f2  	fmv.d.x	fa5, zero
   113ec: 41 01        	addi	sp, sp, 0x10
   113ee: 53 75 f5 1a  	fdiv.d	fa0, fa0, fa5
   113f2: 59 bf        	j	0x11388 <with_errno>
   113f4: 87 b7 01 f0  	fld	fa5, -0x100(gp)
   113f8: 13 05 20 02  	li	a0, 0x22
   113fc: 3e a4        	fsd	fa5, 0x8(sp)
   113fe: 22 25        	fld	fa0, 0x8(sp)
   11400: d3 07 00 f2  	fmv.d.x	fa5, zero
   11404: 41 01        	addi	sp, sp, 0x10
   11406: 53 75 f5 1a  	fdiv.d	fa0, fa0, fa5
   1140a: bd bf        	j	0x11388 <with_errno>

000000000001140c <__math_invalid>:
   1140c: d3 77 a5 0a  	fsub.d	fa5, fa0, fa0
   11410: d3 27 a5 a2  	feq.d	a5, fa0, fa0
   11414: 53 f5 f7 1a  	fdiv.d	fa0, fa5, fa5
   11418: 81 c7        	beqz	a5, 0x11420 <__math_invalid+0x14>
   1141a: 13 05 10 02  	li	a0, 0x21
   1141e: ad b7        	j	0x11388 <with_errno>
   11420: 82 80        	ret

0000000000011422 <__math_check_uflow>:
   11422: d3 07 00 f2  	fmv.d.x	fa5, zero
   11426: d3 27 f5 a2  	feq.d	a5, fa0, fa5
   1142a: 91 e3        	bnez	a5, 0x1142e <__math_check_uflow+0xc>
   1142c: 82 80        	ret
   1142e: 13 05 20 02  	li	a0, 0x22
   11432: 99 bf        	j	0x11388 <with_errno>

0000000000011434 <__math_check_oflow>:
   11434: d3 27 a5 22  	fabs.d	fa5, fa0
   11438: 73 27 10 00  	frflags	a4
   1143c: 07 b7 01 0f  	fld	fa4, 0xf0(gp)
   11440: d3 17 f7 a2  	flt.d	a5, fa4, fa5
   11444: 73 10 17 00  	fsflags	a4
   11448: 91 e3        	bnez	a5, 0x1144c <__math_check_oflow+0x18>
   1144a: 82 80        	ret
   1144c: 13 05 20 02  	li	a0, 0x22
   11450: 25 bf        	j	0x11388 <with_errno>

0000000000011452 <__kernel_rem_pio2>:
   11452: 13 01 01 d1  	addi	sp, sp, -0x2f0
   11456: 23 30 81 2e  	sd	s0, 0x2e0(sp)
   1145a: 3a e4        	sd	a4, 0x8(sp)
   1145c: 3a 84        	mv	s0, a4
   1145e: 6d 67        	lui	a4, 0x1b
   11460: 13 07 07 4b  	addi	a4, a4, 0x4b0
   11464: 23 34 31 2d  	sd	s3, 0x2c8(sp)
   11468: b6 89        	mv	s3, a3
   1146a: 93 16 24 00  	slli	a3, s0, 0x2
   1146e: ba 96        	add	a3, a3, a4
   11470: 23 3c 51 2b  	sd	s5, 0x2b8(sp)
   11474: 23 38 61 2b  	sd	s6, 0x2b0(sp)
   11478: 23 30 81 2b  	sd	s8, 0x2a0(sp)
   1147c: 23 38 a1 29  	sd	s10, 0x290(sp)
   11480: 23 34 b1 29  	sd	s11, 0x288(sp)
   11484: 32 8c        	mv	s8, a2
   11486: 9b 8d f9 ff  	addiw	s11, s3, -0x1
   1148a: 23 34 11 2e  	sd	ra, 0x2e8(sp)
   1148e: 23 3c 91 2c  	sd	s1, 0x2d8(sp)
   11492: 23 38 21 2d  	sd	s2, 0x2d0(sp)
   11496: 23 30 41 2d  	sd	s4, 0x2c0(sp)
   1149a: 23 34 71 2b  	sd	s7, 0x2a8(sp)
   1149e: 23 3c 91 29  	sd	s9, 0x298(sp)
   114a2: 27 3c 81 26  	fsd	fs0, 0x278(sp)
   114a6: 27 38 91 26  	fsd	fs1, 0x270(sp)
   114aa: 27 34 21 27  	fsd	fs2, 0x268(sp)
   114ae: 27 30 31 27  	fsd	fs3, 0x260(sp)
   114b2: 27 3c 41 25  	fsd	fs4, 0x258(sp)
   114b6: 27 38 51 25  	fsd	fs5, 0x250(sp)
   114ba: 31 56        	li	a2, -0x14
   114bc: 2e e0        	sd	a1, 0x0(sp)
   114be: 03 ad 06 00  	lw	s10, 0x0(a3)
   114c2: 6e 87        	mv	a4, s11
   114c4: 2a 8b        	mv	s6, a0
   114c6: be 8a        	mv	s5, a5
   114c8: 63 47 cc 50  	blt	s8, a2, 0x119d6 <__kernel_rem_pio2+0x584>
   114cc: e1 47        	li	a5, 0x18
   114ce: 9b 04 dc ff  	addiw	s1, s8, -0x3
   114d2: bb c4 f4 02  	divw	s1, s1, a5
   114d6: 9b 87 14 00  	addiw	a5, s1, 0x1
   114da: 9b 96 27 00  	slliw	a3, a5, 0x2
   114de: 95 9f        	subw	a5, a5, a3
   114e0: 9b 97 37 00  	slliw	a5, a5, 0x3
   114e4: 3b 0c fc 00  	addw	s8, s8, a5
   114e8: 3b 85 e4 40  	subw	a0, s1, a4
   114ec: 3b 07 ed 00  	addw	a4, s10, a4
   114f0: 62 c8        	sw	s8, 0x10(sp)
   114f2: 93 16 07 02  	slli	a3, a4, 0x20
   114f6: 9b 07 05 00  	sext.w	a5, a0
   114fa: 63 c6 06 02  	bltz	a3, 0x11526 <__kernel_rem_pio2+0xd4>
   114fe: 1b 06 17 00  	addiw	a2, a4, 0x1
   11502: 93 96 27 00  	slli	a3, a5, 0x2
   11506: 98 18        	addi	a4, sp, 0x70
   11508: d6 96        	add	a3, a3, s5
   1150a: 29 9e        	addw	a2, a2, a0
   1150c: d3 07 00 f2  	fmv.d.x	fa5, zero
   11510: 63 c5 07 00  	bltz	a5, 0x1151a <__kernel_rem_pio2+0xc8>
   11514: 88 42        	lw	a0, 0x0(a3)
   11516: d3 07 05 d2  	fcvt.d.w	fa5, a0
   1151a: 85 27        	addiw	a5, a5, 0x1
   1151c: 1c a3        	fsd	fa5, 0x0(a4)
   1151e: 21 07        	addi	a4, a4, 0x8
   11520: 91 06        	addi	a3, a3, 0x4
   11522: e3 95 c7 fe  	bne	a5, a2, 0x1150c <__kernel_rem_pio2+0xba>
   11526: 13 94 39 00  	slli	s0, s3, 0x3
   1152a: 63 4e 0d 02  	bltz	s10, 0x11566 <__kernel_rem_pio2+0x114>
   1152e: 08 1b        	addi	a0, sp, 0x1b0
   11530: 6e 86        	mv	a2, s11
   11532: bb 08 3d 01  	addw	a7, s10, s3
   11536: b3 06 8b 00  	add	a3, s6, s0
   1153a: d3 07 00 f2  	fmv.d.x	fa5, zero
   1153e: 63 cf 0d 00  	bltz	s11, 0x1155c <__kernel_rem_pio2+0x10a>
   11542: 9c 18        	addi	a5, sp, 0x70
   11544: 13 17 36 00  	slli	a4, a2, 0x3
   11548: 3e 97        	add	a4, a4, a5
   1154a: da 87        	mv	a5, s6
   1154c: 94 23        	fld	fa3, 0x0(a5)
   1154e: 18 23        	fld	fa4, 0x0(a4)
   11550: a1 07        	addi	a5, a5, 0x8
   11552: 61 17        	addi	a4, a4, -0x8
   11554: c3 f7 e6 7a  	fmadd.d	fa5, fa3, fa4, fa5
   11558: e3 9a d7 fe  	bne	a5, a3, 0x1154c <__kernel_rem_pio2+0xfa>
   1155c: 1c a1        	fsd	fa5, 0x0(a0)
   1155e: 05 26        	addiw	a2, a2, 0x1
   11560: 21 05        	addi	a0, a0, 0x8
   11562: e3 1c 16 fd  	bne	a2, a7, 0x1153a <__kernel_rem_pio2+0xe8>
   11566: 07 ba 81 0f  	fld	fs4, 0xf8(gp)
   1156a: 87 b9 01 0d  	fld	fs3, 0xd0(gp)
   1156e: 87 b4 01 10  	fld	fs1, 0x100(gp)
   11572: 13 19 2d 00  	slli	s2, s10, 0x2
   11576: 07 b4 81 10  	fld	fs0, 0x108(gp)
   1157a: 07 b9 01 fc  	fld	fs2, -0x40(gp)
   1157e: 1b 0a fd ff  	addiw	s4, s10, -0x1
   11582: 93 07 89 01  	addi	a5, s2, 0x18
   11586: 33 89 27 00  	add	s2, a5, sp
   1158a: 5a 94        	add	s0, s0, s6
   1158c: ea 8b        	mv	s7, s10
   1158e: 0a 0a        	slli	s4, s4, 0x2
   11590: 93 97 3b 00  	slli	a5, s7, 0x3
   11594: 13 87 07 23  	addi	a4, a5, 0x230
   11598: 14 10        	addi	a3, sp, 0x20
   1159a: 36 97        	add	a4, a4, a3
   1159c: 07 35 07 f6  	fld	fa0, -0xa0(a4)
   115a0: 63 54 70 05  	blez	s7, 0x115e8 <__kernel_rem_pio2+0x196>
   115a4: 1b 85 fb ff  	addiw	a0, s7, -0x1
   115a8: 93 87 07 23  	addi	a5, a5, 0x230
   115ac: 33 87 d7 00  	add	a4, a5, a3
   115b0: 93 17 05 02  	slli	a5, a0, 0x20
   115b4: 13 d5 e7 01  	srli	a0, a5, 0x1e
   115b8: b6 87        	mv	a5, a3
   115ba: 54 10        	addi	a3, sp, 0x24
   115bc: 13 07 87 f5  	addi	a4, a4, -0xa8
   115c0: 36 95        	add	a0, a0, a3
   115c2: d3 77 45 13  	fmul.d	fa5, fa0, fs4
   115c6: 14 23        	fld	fa3, 0x0(a4)
   115c8: 91 07        	addi	a5, a5, 0x4
   115ca: 61 17        	addi	a4, a4, -0x8
   115cc: 53 96 07 c2  	fcvt.w.d	a2, fa5, rtz
   115d0: d3 07 06 d2  	fcvt.d.w	fa5, a2
   115d4: 4b f7 37 53  	fnmsub.d	fa4, fa5, fs3, fa0
   115d8: 53 f5 d7 02  	fadd.d	fa0, fa5, fa3
   115dc: 53 16 07 c2  	fcvt.w.d	a2, fa4, rtz
   115e0: 23 ae c7 fe  	sw	a2, -0x4(a5)
   115e4: e3 9f a7 fc  	bne	a5, a0, 0x115c2 <__kernel_rem_pio2+0x170>
   115e8: 62 85        	mv	a0, s8
   115ea: ef 00 20 6b  	jal	0x11c9c <scalbn>
   115ee: d3 0a a5 22  	fmv.d	fs5, fa0
   115f2: 53 75 95 12  	fmul.d	fa0, fa0, fs1
   115f6: ef 00 c0 57  	jal	0x11b72 <floor>
   115fa: cb 77 85 aa  	fnmsub.d	fa5, fa0, fs0, fs5
   115fe: 53 96 07 c2  	fcvt.w.d	a2, fa5, rtz
   11602: 53 07 06 d2  	fcvt.d.w	fa4, a2
   11606: 9b 0c 06 00  	sext.w	s9, a2
   1160a: d3 fa e7 0a  	fsub.d	fs5, fa5, fa4
   1160e: 63 53 80 11  	blez	s8, 0x11714 <__kernel_rem_pio2+0x2c2>
   11612: 9b 87 fb ff  	addiw	a5, s7, -0x1
   11616: 8a 07        	slli	a5, a5, 0x2
   11618: 18 10        	addi	a4, sp, 0x20
   1161a: 93 87 07 23  	addi	a5, a5, 0x230
   1161e: ba 97        	add	a5, a5, a4
   11620: 83 a8 07 dd  	lw	a7, -0x230(a5)
   11624: 61 47        	li	a4, 0x18
   11626: 3b 07 87 41  	subw	a4, a4, s8
   1162a: 3b d5 e8 40  	sraw	a0, a7, a4
   1162e: 3b 17 e5 00  	sllw	a4, a0, a4
   11632: bb 88 e8 40  	subw	a7, a7, a4
   11636: 5d 47        	li	a4, 0x17
   11638: 3b 07 87 41  	subw	a4, a4, s8
   1163c: 23 a8 17 dd  	sw	a7, -0x230(a5)
   11640: bb d8 e8 40  	sraw	a7, a7, a4
   11644: bb 0c a6 00  	addw	s9, a2, a0
   11648: 63 46 10 33  	bgtz	a7, 0x11974 <__kernel_rem_pio2+0x522>
   1164c: 53 07 00 f2  	fmv.d.x	fa4, zero
   11650: d3 a7 ea a2  	feq.d	a5, fs5, fa4
   11654: 63 83 07 16  	beqz	a5, 0x117ba <__kernel_rem_pio2+0x368>
   11658: 63 5a 7d 03  	bge	s10, s7, 0x1168c <__kernel_rem_pio2+0x23a>
   1165c: 3b 87 ab 41  	subw	a4, s7, s10
   11660: 7d 37        	addiw	a4, a4, -0x1
   11662: 13 9e 2b 00  	slli	t3, s7, 0x2
   11666: 34 08        	addi	a3, sp, 0x18
   11668: 13 16 07 02  	slli	a2, a4, 0x20
   1166c: 13 57 e6 01  	srli	a4, a2, 0x1e
   11670: 33 85 c6 01  	add	a0, a3, t3
   11674: 93 07 ce 01  	addi	a5, t3, 0x1c
   11678: 19 8d        	sub	a0, a0, a4
   1167a: 8a 97        	add	a5, a5, sp
   1167c: 01 47        	li	a4, 0x0
   1167e: 90 43        	lw	a2, 0x0(a5)
   11680: f1 17        	addi	a5, a5, -0x4
   11682: 51 8f        	or	a4, a4, a2
   11684: e3 9d a7 fe  	bne	a5, a0, 0x1167e <__kernel_rem_pio2+0x22c>
   11688: 63 1f 07 30  	bnez	a4, 0x119a6 <__kernel_rem_pio2+0x554>
   1168c: 93 07 0a 23  	addi	a5, s4, 0x230
   11690: 18 10        	addi	a4, sp, 0x20
   11692: ba 97        	add	a5, a5, a4
   11694: 83 a7 07 dd  	lw	a5, -0x230(a5)
   11698: 63 93 07 30  	bnez	a5, 0x1199e <__kernel_rem_pio2+0x54c>
   1169c: ca 87        	mv	a5, s2
   1169e: 05 46        	li	a2, 0x1
   116a0: 88 43        	lw	a0, 0x0(a5)
   116a2: 05 26        	addiw	a2, a2, 0x1
   116a4: f1 17        	addi	a5, a5, -0x4
   116a6: 6d dd        	beqz	a0, 0x116a0 <__kernel_rem_pio2+0x24e>
   116a8: 1b 85 1b 00  	addiw	a0, s7, 0x1
   116ac: 3b 03 76 01  	addw	t1, a2, s7
   116b0: bb 87 ad 00  	addw	a5, s11, a0
   116b4: 33 8e 3b 01  	add	t3, s7, s3
   116b8: 93 96 37 00  	slli	a3, a5, 0x3
   116bc: 13 17 35 00  	slli	a4, a0, 0x3
   116c0: 33 0e fe 40  	sub	t3, t3, a5
   116c4: 33 86 a4 00  	add	a2, s1, a0
   116c8: 9c 18        	addi	a5, sp, 0x70
   116ca: 0a 06        	slli	a2, a2, 0x2
   116cc: be 96        	add	a3, a3, a5
   116ce: ba 87        	mv	a5, a4
   116d0: 18 1b        	addi	a4, sp, 0x1b0
   116d2: 56 96        	add	a2, a2, s5
   116d4: b3 08 f7 00  	add	a7, a4, a5
   116d8: 0e 0e        	slli	t3, t3, 0x3
   116da: 1c 42        	lw	a5, 0x0(a2)
   116dc: d3 87 07 d2  	fcvt.d.w	fa5, a5
   116e0: 9c a2        	fsd	fa5, 0x0(a3)
   116e2: d3 07 00 f2  	fmv.d.x	fa5, zero
   116e6: 63 cd 0d 00  	bltz	s11, 0x11700 <__kernel_rem_pio2+0x2ae>
   116ea: 33 87 c6 01  	add	a4, a3, t3
   116ee: da 87        	mv	a5, s6
   116f0: 94 23        	fld	fa3, 0x0(a5)
   116f2: 18 23        	fld	fa4, 0x0(a4)
   116f4: a1 07        	addi	a5, a5, 0x8
   116f6: 61 17        	addi	a4, a4, -0x8
   116f8: c3 f7 e6 7a  	fmadd.d	fa5, fa3, fa4, fa5
   116fc: e3 9a 87 fe  	bne	a5, s0, 0x116f0 <__kernel_rem_pio2+0x29e>
   11700: 27 b0 f8 00  	fsd	fa5, 0x0(a7)
   11704: 05 25        	addiw	a0, a0, 0x1
   11706: 11 06        	addi	a2, a2, 0x4
   11708: a1 06        	addi	a3, a3, 0x8
   1170a: a1 08        	addi	a7, a7, 0x8
   1170c: e3 57 a3 fc  	bge	t1, a0, 0x116da <__kernel_rem_pio2+0x288>
   11710: 9a 8b        	mv	s7, t1
   11712: bd bd        	j	0x11590 <__kernel_rem_pio2+0x13e>
   11714: 63 11 0c 24  	bnez	s8, 0x11956 <__kernel_rem_pio2+0x504>
   11718: 9b 87 fb ff  	addiw	a5, s7, -0x1
   1171c: 8a 07        	slli	a5, a5, 0x2
   1171e: 93 87 07 23  	addi	a5, a5, 0x230
   11722: 18 10        	addi	a4, sp, 0x20
   11724: ba 97        	add	a5, a5, a4
   11726: 83 a8 07 dd  	lw	a7, -0x230(a5)
   1172a: 93 d8 78 41  	srai	a7, a7, 0x17
   1172e: e3 5f 10 f1  	blez	a7, 0x1164c <__kernel_rem_pio2+0x1fa>
   11732: 9b 0c 16 00  	addiw	s9, a2, 0x1
   11736: 63 54 70 41  	blez	s7, 0x11b3e <__kernel_rem_pio2+0x6ec>
   1173a: 02 56        	lw	a2, 0x20(sp)
   1173c: 1c 10        	addi	a5, sp, 0x20
   1173e: 01 47        	li	a4, 0x0
   11740: 63 05 06 20  	beqz	a2, 0x1194a <__kernel_rem_pio2+0x4f8>
   11744: 37 05 00 01  	lui	a0, 0x1000
   11748: 3b 06 c5 40  	subw	a2, a0, a2
   1174c: 90 c3        	sw	a2, 0x0(a5)
   1174e: 7d 35        	addiw	a0, a0, -0x1
   11750: 29 a0        	j	0x1175a <__kernel_rem_pio2+0x308>
   11752: 90 43        	lw	a2, 0x0(a5)
   11754: 3b 06 c5 40  	subw	a2, a0, a2
   11758: 90 c3        	sw	a2, 0x0(a5)
   1175a: 05 27        	addiw	a4, a4, 0x1
   1175c: 91 07        	addi	a5, a5, 0x4
   1175e: e3 4a 77 ff  	blt	a4, s7, 0x11752 <__kernel_rem_pio2+0x300>
   11762: 05 46        	li	a2, 0x1
   11764: 63 55 80 03  	blez	s8, 0x1178e <__kernel_rem_pio2+0x33c>
   11768: 85 47        	li	a5, 0x1
   1176a: 63 0c fc 20  	beq	s8, a5, 0x11982 <__kernel_rem_pio2+0x530>
   1176e: 89 47        	li	a5, 0x2
   11770: 63 1f fc 00  	bne	s8, a5, 0x1178e <__kernel_rem_pio2+0x33c>
   11774: 9b 87 fb ff  	addiw	a5, s7, -0x1
   11778: 8a 07        	slli	a5, a5, 0x2
   1177a: 18 10        	addi	a4, sp, 0x20
   1177c: 93 87 07 23  	addi	a5, a5, 0x230
   11780: ba 97        	add	a5, a5, a4
   11782: 03 a7 07 dd  	lw	a4, -0x230(a5)
   11786: 2a 17        	slli	a4, a4, 0x2a
   11788: 29 93        	srli	a4, a4, 0x2a
   1178a: 23 a8 e7 dc  	sw	a4, -0x230(a5)
   1178e: 89 47        	li	a5, 0x2
   11790: e3 9e f8 ea  	bne	a7, a5, 0x1164c <__kernel_rem_pio2+0x1fa>
   11794: 07 b5 01 f0  	fld	fa0, -0x100(gp)
   11798: d3 7a 55 0b  	fsub.d	fs5, fa0, fs5
   1179c: e3 08 06 ea  	beqz	a2, 0x1164c <__kernel_rem_pio2+0x1fa>
   117a0: 62 85        	mv	a0, s8
   117a2: 46 ec        	sd	a7, 0x18(sp)
   117a4: ef 00 80 4f  	jal	0x11c9c <scalbn>
   117a8: d3 fa aa 0a  	fsub.d	fs5, fs5, fa0
   117ac: 53 07 00 f2  	fmv.d.x	fa4, zero
   117b0: e2 68        	ld	a7, 0x18(sp)
   117b2: d3 a7 ea a2  	feq.d	a5, fs5, fa4
   117b6: e3 91 07 ea  	bnez	a5, 0x11658 <__kernel_rem_pio2+0x206>
   117ba: c2 44        	lw	s1, 0x10(sp)
   117bc: 53 85 5a 23  	fmv.d	fa0, fs5
   117c0: 46 ec        	sd	a7, 0x18(sp)
   117c2: 3b 05 90 40  	negw	a0, s1
   117c6: ef 00 60 4d  	jal	0x11c9c <scalbn>
   117ca: 87 b6 01 0d  	fld	fa3, 0xd0(gp)
   117ce: e2 68        	ld	a7, 0x18(sp)
   117d0: d3 87 a6 a2  	fle.d	a5, fa3, fa0
   117d4: 63 85 07 30  	beqz	a5, 0x11ade <__kernel_rem_pio2+0x68c>
   117d8: 07 b7 81 0f  	fld	fa4, 0xf8(gp)
   117dc: 13 97 2b 00  	slli	a4, s7, 0x2
   117e0: 93 07 07 23  	addi	a5, a4, 0x230
   117e4: 53 77 e5 12  	fmul.d	fa4, fa0, fa4
   117e8: 1b 84 1b 00  	addiw	s0, s7, 0x1
   117ec: 18 10        	addi	a4, sp, 0x20
   117ee: 3e 97        	add	a4, a4, a5
   117f0: 93 17 24 00  	slli	a5, s0, 0x2
   117f4: 14 10        	addi	a3, sp, 0x20
   117f6: 93 87 07 23  	addi	a5, a5, 0x230
   117fa: b6 97        	add	a5, a5, a3
   117fc: d3 16 07 c2  	fcvt.w.d	a3, fa4, rtz
   11800: 1b 8c 84 01  	addiw	s8, s1, 0x18
   11804: 53 87 06 d2  	fcvt.d.w	fa4, a3
   11808: cb 77 d7 52  	fnmsub.d	fa5, fa4, fa3, fa0
   1180c: 53 96 07 c2  	fcvt.w.d	a2, fa5, rtz
   11810: 23 28 c7 dc  	sw	a2, -0x230(a4)
   11814: 23 a8 d7 dc  	sw	a3, -0x230(a5)
   11818: 07 b5 01 f0  	fld	fa0, -0x100(gp)
   1181c: 62 85        	mv	a0, s8
   1181e: 46 e8        	sd	a7, 0x10(sp)
   11820: ef 00 c0 47  	jal	0x11c9c <scalbn>
   11824: 53 07 a5 22  	fmv.d	fa4, fa0
   11828: c2 68        	ld	a7, 0x10(sp)
   1182a: 63 4d 04 2e  	bltz	s0, 0x11b24 <__kernel_rem_pio2+0x6d2>
   1182e: 18 1b        	addi	a4, sp, 0x1b0
   11830: 87 b6 81 0f  	fld	fa3, 0xf8(gp)
   11834: 93 16 34 00  	slli	a3, s0, 0x3
   11838: 93 17 24 00  	slli	a5, s0, 0x2
   1183c: 33 08 d7 00  	add	a6, a4, a3
   11840: 93 87 07 02  	addi	a5, a5, 0x20
   11844: 8a 97        	add	a5, a5, sp
   11846: 9b 0e 04 00  	sext.w	t4, s0
   1184a: 6c 08        	addi	a1, sp, 0x1c
   1184c: 42 87        	mv	a4, a6
   1184e: 90 43        	lw	a2, 0x0(a5)
   11850: 61 17        	addi	a4, a4, -0x8
   11852: f1 17        	addi	a5, a5, -0x4
   11854: d3 07 06 d2  	fcvt.d.w	fa5, a2
   11858: d3 f7 e7 12  	fmul.d	fa5, fa5, fa4
   1185c: 53 77 d7 12  	fmul.d	fa4, fa4, fa3
   11860: 1c a7        	fsd	fa5, 0x8(a4)
   11862: e3 96 b7 fe  	bne	a5, a1, 0x1184e <__kernel_rem_pio2+0x3fc>
   11866: 13 0e 01 11  	addi	t3, sp, 0x110
   1186a: 01 45        	li	a0, 0x0
   1186c: 6d 6f        	lui	t5, 0x1b
   1186e: 63 43 0d 04  	bltz	s10, 0x118b4 <__kernel_rem_pio2+0x462>
   11872: 9b 05 05 00  	sext.w	a1, a0
   11876: 63 46 05 1a  	bltz	a0, 0x11a22 <__kernel_rem_pio2+0x5d0>
   1187a: d3 07 00 f2  	fmv.d.x	fa5, zero
   1187e: 13 07 0f 47  	addi	a4, t5, 0x470
   11882: 42 86        	mv	a2, a6
   11884: 81 47        	li	a5, 0x0
   11886: 21 a0        	j	0x1188e <__kernel_rem_pio2+0x43c>
   11888: 21 06        	addi	a2, a2, 0x8
   1188a: 63 ca f5 00  	blt	a1, a5, 0x1189e <__kernel_rem_pio2+0x44c>
   1188e: 14 23        	fld	fa3, 0x0(a4)
   11890: 18 22        	fld	fa4, 0x0(a2)
   11892: 85 27        	addiw	a5, a5, 0x1
   11894: 21 07        	addi	a4, a4, 0x8
   11896: c3 f7 e6 7a  	fmadd.d	fa5, fa3, fa4, fa5
   1189a: e3 57 fd fe  	bge	s10, a5, 0x11888 <__kernel_rem_pio2+0x436>
   1189e: 27 30 fe 00  	fsd	fa5, 0x0(t3)
   118a2: 9b 07 15 00  	addiw	a5, a0, 0x1
   118a6: 21 0e        	addi	t3, t3, 0x8
   118a8: 61 18        	addi	a6, a6, -0x8
   118aa: 63 0f d5 01  	beq	a0, t4, 0x118c8 <__kernel_rem_pio2+0x476>
   118ae: 3e 85        	mv	a0, a5
   118b0: e3 51 0d fc  	bgez	s10, 0x11872 <__kernel_rem_pio2+0x420>
   118b4: d3 07 00 f2  	fmv.d.x	fa5, zero
   118b8: 9b 07 15 00  	addiw	a5, a0, 0x1
   118bc: 21 0e        	addi	t3, t3, 0x8
   118be: 27 3c fe fe  	fsd	fa5, -0x8(t3)
   118c2: 61 18        	addi	a6, a6, -0x8
   118c4: e3 15 d5 ff  	bne	a0, t4, 0x118ae <__kernel_rem_pio2+0x45c>
   118c8: 22 67        	ld	a4, 0x8(sp)
   118ca: 89 47        	li	a5, 0x2
   118cc: 63 c3 e7 16  	blt	a5, a4, 0x11a32 <__kernel_rem_pio2+0x5e0>
   118d0: 63 46 e0 10  	bgtz	a4, 0x119dc <__kernel_rem_pio2+0x58a>
   118d4: 05 e3        	bnez	a4, 0x118f4 <__kernel_rem_pio2+0x4a2>
   118d6: d3 07 00 f2  	fmv.d.x	fa5, zero
   118da: 1c 0a        	addi	a5, sp, 0x110
   118dc: be 96        	add	a3, a3, a5
   118de: e1 17        	addi	a5, a5, -0x8
   118e0: 98 22        	fld	fa4, 0x0(a3)
   118e2: e1 16        	addi	a3, a3, -0x8
   118e4: d3 f7 e7 02  	fadd.d	fa5, fa5, fa4
   118e8: e3 9c d7 fe  	bne	a5, a3, 0x118e0 <__kernel_rem_pio2+0x48e>
   118ec: 63 99 08 22  	bnez	a7, 0x11b1e <__kernel_rem_pio2+0x6cc>
   118f0: 82 67        	ld	a5, 0x0(sp)
   118f2: 9c a3        	fsd	fa5, 0x0(a5)
   118f4: 83 30 81 2e  	ld	ra, 0x2e8(sp)
   118f8: 03 34 01 2e  	ld	s0, 0x2e0(sp)
   118fc: 83 34 81 2d  	ld	s1, 0x2d8(sp)
   11900: 03 39 01 2d  	ld	s2, 0x2d0(sp)
   11904: 83 39 81 2c  	ld	s3, 0x2c8(sp)
   11908: 03 3a 01 2c  	ld	s4, 0x2c0(sp)
   1190c: 83 3a 81 2b  	ld	s5, 0x2b8(sp)
   11910: 03 3b 01 2b  	ld	s6, 0x2b0(sp)
   11914: 83 3b 81 2a  	ld	s7, 0x2a8(sp)
   11918: 03 3c 01 2a  	ld	s8, 0x2a0(sp)
   1191c: 03 3d 01 29  	ld	s10, 0x290(sp)
   11920: 83 3d 81 28  	ld	s11, 0x288(sp)
   11924: 07 34 81 27  	fld	fs0, 0x278(sp)
   11928: 87 34 01 27  	fld	fs1, 0x270(sp)
   1192c: 07 39 81 26  	fld	fs2, 0x268(sp)
   11930: 87 39 01 26  	fld	fs3, 0x260(sp)
   11934: 07 3a 81 25  	fld	fs4, 0x258(sp)
   11938: 87 3a 01 25  	fld	fs5, 0x250(sp)
   1193c: 13 f5 7c 00  	andi	a0, s9, 0x7
   11940: 83 3c 81 29  	ld	s9, 0x298(sp)
   11944: 13 01 01 2f  	addi	sp, sp, 0x2f0
   11948: 82 80        	ret
   1194a: 05 27        	addiw	a4, a4, 0x1
   1194c: 91 07        	addi	a5, a5, 0x4
   1194e: e3 5b 77 e1  	bge	a4, s7, 0x11764 <__kernel_rem_pio2+0x312>
   11952: 90 43        	lw	a2, 0x0(a5)
   11954: f5 b3        	j	0x11740 <__kernel_rem_pio2+0x2ee>
   11956: d3 07 59 a3  	fle.d	a5, fs2, fs5
   1195a: 81 48        	li	a7, 0x0
   1195c: e3 88 07 ce  	beqz	a5, 0x1164c <__kernel_rem_pio2+0x1fa>
   11960: 9b 0c 16 00  	addiw	s9, a2, 0x1
   11964: 89 48        	li	a7, 0x2
   11966: e3 4a 70 dd  	bgtz	s7, 0x1173a <__kernel_rem_pio2+0x2e8>
   1196a: 07 b7 01 f0  	fld	fa4, -0x100(gp)
   1196e: d3 7a 57 0b  	fsub.d	fs5, fa4, fs5
   11972: e9 b9        	j	0x1164c <__kernel_rem_pio2+0x1fa>
   11974: 85 2c        	addiw	s9, s9, 0x1
   11976: 01 46        	li	a2, 0x0
   11978: e3 41 70 dd  	bgtz	s7, 0x1173a <__kernel_rem_pio2+0x2e8>
   1197c: 85 47        	li	a5, 0x1
   1197e: e3 18 fc de  	bne	s8, a5, 0x1176e <__kernel_rem_pio2+0x31c>
   11982: 9b 87 fb ff  	addiw	a5, s7, -0x1
   11986: 8a 07        	slli	a5, a5, 0x2
   11988: 18 10        	addi	a4, sp, 0x20
   1198a: 93 87 07 23  	addi	a5, a5, 0x230
   1198e: ba 97        	add	a5, a5, a4
   11990: 03 a7 07 dd  	lw	a4, -0x230(a5)
   11994: 26 17        	slli	a4, a4, 0x29
   11996: 25 93        	srli	a4, a4, 0x29
   11998: 23 a8 e7 dc  	sw	a4, -0x230(a5)
   1199c: cd bb        	j	0x1178e <__kernel_rem_pio2+0x33c>
   1199e: 1b 85 1b 00  	addiw	a0, s7, 0x1
   119a2: 2a 83        	mv	t1, a0
   119a4: 31 b3        	j	0x116b0 <__kernel_rem_pio2+0x25e>
   119a6: 1b 84 fb ff  	addiw	s0, s7, -0x1
   119aa: 93 17 24 00  	slli	a5, s0, 0x2
   119ae: 18 10        	addi	a4, sp, 0x20
   119b0: 93 87 07 23  	addi	a5, a5, 0x230
   119b4: ba 97        	add	a5, a5, a4
   119b6: 83 a7 07 dd  	lw	a5, -0x230(a5)
   119ba: 42 47        	lw	a4, 0x10(sp)
   119bc: 1b 0c 87 fe  	addiw	s8, a4, -0x18
   119c0: e3 9c 07 e4  	bnez	a5, 0x11818 <__kernel_rem_pio2+0x3c6>
   119c4: 93 07 8e 01  	addi	a5, t3, 0x18
   119c8: 8a 97        	add	a5, a5, sp
   119ca: 98 43        	lw	a4, 0x0(a5)
   119cc: 7d 34        	addiw	s0, s0, -0x1
   119ce: f1 17        	addi	a5, a5, -0x4
   119d0: 21 3c        	addiw	s8, s8, -0x18
   119d2: 65 df        	beqz	a4, 0x119ca <__kernel_rem_pio2+0x578>
   119d4: 91 b5        	j	0x11818 <__kernel_rem_pio2+0x3c6>
   119d6: a1 57        	li	a5, -0x18
   119d8: 81 44        	li	s1, 0x0
   119da: 29 b6        	j	0x114e4 <__kernel_rem_pio2+0x92>
   119dc: 53 07 00 f2  	fmv.d.x	fa4, zero
   119e0: 1c 0a        	addi	a5, sp, 0x110
   119e2: be 96        	add	a3, a3, a5
   119e4: e1 17        	addi	a5, a5, -0x8
   119e6: 9c 22        	fld	fa5, 0x0(a3)
   119e8: e1 16        	addi	a3, a3, -0x8
   119ea: 53 77 f7 02  	fadd.d	fa4, fa4, fa5
   119ee: e3 9c d7 fe  	bne	a5, a3, 0x119e6 <__kernel_rem_pio2+0x594>
   119f2: d2 27        	fld	fa5, 0x110(sp)
   119f4: d3 f7 e7 0a  	fsub.d	fa5, fa5, fa4
   119f8: 63 9a 08 10  	bnez	a7, 0x11b0c <__kernel_rem_pio2+0x6ba>
   119fc: 82 67        	ld	a5, 0x0(sp)
   119fe: 98 a3        	fsd	fa4, 0x0(a5)
   11a00: 11 cc        	beqz	s0, 0x11a1c <__kernel_rem_pio2+0x5ca>
   11a02: 38 0a        	addi	a4, sp, 0x118
   11a04: 85 47        	li	a5, 0x1
   11a06: 18 23        	fld	fa4, 0x0(a4)
   11a08: 85 27        	addiw	a5, a5, 0x1
   11a0a: 21 07        	addi	a4, a4, 0x8
   11a0c: d3 f7 e7 02  	fadd.d	fa5, fa5, fa4
   11a10: e3 5b f4 fe  	bge	s0, a5, 0x11a06 <__kernel_rem_pio2+0x5b4>
   11a14: 63 84 08 00  	beqz	a7, 0x11a1c <__kernel_rem_pio2+0x5ca>
   11a18: d3 97 f7 22  	fneg.d	fa5, fa5
   11a1c: 82 67        	ld	a5, 0x0(sp)
   11a1e: 9c a7        	fsd	fa5, 0x8(a5)
   11a20: d1 bd        	j	0x118f4 <__kernel_rem_pio2+0x4a2>
   11a22: d3 07 00 f2  	fmv.d.x	fa5, zero
   11a26: 21 0e        	addi	t3, t3, 0x8
   11a28: 05 25        	addiw	a0, a0, 0x1
   11a2a: 61 18        	addi	a6, a6, -0x8
   11a2c: 27 3c fe fe  	fsd	fa5, -0x8(t3)
   11a30: 89 b5        	j	0x11872 <__kernel_rem_pio2+0x420>
   11a32: 22 67        	ld	a4, 0x8(sp)
   11a34: 8d 47        	li	a5, 0x3
   11a36: e3 1f f7 ea  	bne	a4, a5, 0x118f4 <__kernel_rem_pio2+0x4a2>
   11a3a: 63 0a 04 10  	beqz	s0, 0x11b4e <__kernel_rem_pio2+0x6fc>
   11a3e: 1c 0a        	addi	a5, sp, 0x110
   11a40: 18 0a        	addi	a4, sp, 0x110
   11a42: 33 86 d7 00  	add	a2, a5, a3
   11a46: 1b 85 fe ff  	addiw	a0, t4, -0x1
   11a4a: 93 87 86 ff  	addi	a5, a3, -0x8
   11a4e: ba 97        	add	a5, a5, a4
   11a50: 93 05 07 ff  	addi	a1, a4, -0x10
   11a54: 18 22        	fld	fa4, 0x0(a2)
   11a56: 13 17 05 02  	slli	a4, a0, 0x20
   11a5a: 13 55 d7 01  	srli	a0, a4, 0x1d
   11a5e: b6 95        	add	a1, a1, a3
   11a60: 33 85 a5 40  	sub	a0, a1, a0
   11a64: 3e 87        	mv	a4, a5
   11a66: 1c 23        	fld	fa5, 0x0(a4)
   11a68: d3 06 e7 22  	fmv.d	fa3, fa4
   11a6c: 61 17        	addi	a4, a4, -0x8
   11a6e: 53 77 f7 02  	fadd.d	fa4, fa4, fa5
   11a72: d3 f7 e7 0a  	fsub.d	fa5, fa5, fa4
   11a76: 18 a7        	fsd	fa4, 0x8(a4)
   11a78: d3 f7 d7 02  	fadd.d	fa5, fa5, fa3
   11a7c: 1c ab        	fsd	fa5, 0x10(a4)
   11a7e: e3 14 a7 fe  	bne	a4, a0, 0x11a66 <__kernel_rem_pio2+0x614>
   11a82: 05 47        	li	a4, 0x1
   11a84: 63 05 e4 0c  	beq	s0, a4, 0x11b4e <__kernel_rem_pio2+0x6fc>
   11a88: 1b 87 ee ff  	addiw	a4, t4, -0x2
   11a8c: 13 15 07 02  	slli	a0, a4, 0x20
   11a90: 18 22        	fld	fa4, 0x0(a2)
   11a92: 13 57 d5 01  	srli	a4, a0, 0x1d
   11a96: 99 8d        	sub	a1, a1, a4
   11a98: 9c 23        	fld	fa5, 0x0(a5)
   11a9a: d3 06 e7 22  	fmv.d	fa3, fa4
   11a9e: e1 17        	addi	a5, a5, -0x8
   11aa0: 53 77 f7 02  	fadd.d	fa4, fa4, fa5
   11aa4: d3 f7 e7 0a  	fsub.d	fa5, fa5, fa4
   11aa8: 98 a7        	fsd	fa4, 0x8(a5)
   11aaa: d3 f7 d7 02  	fadd.d	fa5, fa5, fa3
   11aae: 9c ab        	fsd	fa5, 0x10(a5)
   11ab0: e3 94 b7 fe  	bne	a5, a1, 0x11a98 <__kernel_rem_pio2+0x646>
   11ab4: 3c 02        	addi	a5, sp, 0x108
   11ab6: d3 07 00 f2  	fmv.d.x	fa5, zero
   11aba: b6 97        	add	a5, a5, a3
   11abc: 99 8f        	sub	a5, a5, a4
   11abe: b2 86        	mv	a3, a2
   11ac0: 98 22        	fld	fa4, 0x0(a3)
   11ac2: e1 16        	addi	a3, a3, -0x8
   11ac4: d3 f7 e7 02  	fadd.d	fa5, fa5, fa4
   11ac8: e3 9c d7 fe  	bne	a5, a3, 0x11ac0 <__kernel_rem_pio2+0x66e>
   11acc: d2 26        	fld	fa3, 0x110(sp)
   11ace: 72 27        	fld	fa4, 0x118(sp)
   11ad0: 63 93 08 02  	bnez	a7, 0x11af6 <__kernel_rem_pio2+0x6a4>
   11ad4: 82 67        	ld	a5, 0x0(sp)
   11ad6: 94 a3        	fsd	fa3, 0x0(a5)
   11ad8: 98 a7        	fsd	fa4, 0x8(a5)
   11ada: 9c ab        	fsd	fa5, 0x10(a5)
   11adc: 21 bd        	j	0x118f4 <__kernel_rem_pio2+0x4a2>
   11ade: 53 17 05 c2  	fcvt.w.d	a4, fa0, rtz
   11ae2: 93 97 2b 00  	slli	a5, s7, 0x2
   11ae6: 93 87 07 23  	addi	a5, a5, 0x230
   11aea: 14 10        	addi	a3, sp, 0x20
   11aec: b6 97        	add	a5, a5, a3
   11aee: 23 a8 e7 dc  	sw	a4, -0x230(a5)
   11af2: 5e 84        	mv	s0, s7
   11af4: 15 b3        	j	0x11818 <__kernel_rem_pio2+0x3c6>
   11af6: 82 67        	ld	a5, 0x0(sp)
   11af8: d3 96 d6 22  	fneg.d	fa3, fa3
   11afc: 53 17 e7 22  	fneg.d	fa4, fa4
   11b00: d3 97 f7 22  	fneg.d	fa5, fa5
   11b04: 94 a3        	fsd	fa3, 0x0(a5)
   11b06: 98 a7        	fsd	fa4, 0x8(a5)
   11b08: 9c ab        	fsd	fa5, 0x10(a5)
   11b0a: ed b3        	j	0x118f4 <__kernel_rem_pio2+0x4a2>
   11b0c: 53 17 e7 22  	fneg.d	fa4, fa4
   11b10: 82 67        	ld	a5, 0x0(sp)
   11b12: 98 a3        	fsd	fa4, 0x0(a5)
   11b14: e3 17 04 ee  	bnez	s0, 0x11a02 <__kernel_rem_pio2+0x5b0>
   11b18: d3 97 f7 22  	fneg.d	fa5, fa5
   11b1c: 01 b7        	j	0x11a1c <__kernel_rem_pio2+0x5ca>
   11b1e: d3 97 f7 22  	fneg.d	fa5, fa5
   11b22: f9 b3        	j	0x118f0 <__kernel_rem_pio2+0x49e>
   11b24: 22 67        	ld	a4, 0x8(sp)
   11b26: 89 47        	li	a5, 0x2
   11b28: 63 cf e7 00  	blt	a5, a4, 0x11b46 <__kernel_rem_pio2+0x6f4>
   11b2c: 63 44 e0 02  	bgtz	a4, 0x11b54 <__kernel_rem_pio2+0x702>
   11b30: d3 07 00 f2  	fmv.d.x	fa5, zero
   11b34: e3 10 07 dc  	bnez	a4, 0x118f4 <__kernel_rem_pio2+0x4a2>
   11b38: e3 8c 08 da  	beqz	a7, 0x118f0 <__kernel_rem_pio2+0x49e>
   11b3c: cd b7        	j	0x11b1e <__kernel_rem_pio2+0x6cc>
   11b3e: 89 47        	li	a5, 0x2
   11b40: e3 96 f8 b0  	bne	a7, a5, 0x1164c <__kernel_rem_pio2+0x1fa>
   11b44: 1d b5        	j	0x1196a <__kernel_rem_pio2+0x518>
   11b46: 22 67        	ld	a4, 0x8(sp)
   11b48: 8d 47        	li	a5, 0x3
   11b4a: e3 15 f7 da  	bne	a4, a5, 0x118f4 <__kernel_rem_pio2+0x4a2>
   11b4e: d3 07 00 f2  	fmv.d.x	fa5, zero
   11b52: ad bf        	j	0x11acc <__kernel_rem_pio2+0x67a>
   11b54: d2 27        	fld	fa5, 0x110(sp)
   11b56: 63 97 08 00  	bnez	a7, 0x11b64 <__kernel_rem_pio2+0x712>
   11b5a: 53 07 00 f2  	fmv.d.x	fa4, zero
   11b5e: 82 67        	ld	a5, 0x0(sp)
   11b60: 98 a3        	fsd	fa4, 0x0(a5)
   11b62: 6d bd        	j	0x11a1c <__kernel_rem_pio2+0x5ca>
   11b64: 07 b7 01 11  	fld	fa4, 0x110(gp)
   11b68: 82 67        	ld	a5, 0x0(sp)
   11b6a: d3 97 f7 22  	fneg.d	fa5, fa5
   11b6e: 98 a3        	fsd	fa4, 0x0(a5)
   11b70: 75 b5        	j	0x11a1c <__kernel_rem_pio2+0x5ca>

0000000000011b72 <floor>:
   11b72: d3 07 05 e2  	fmv.x.d	a5, fa0
   11b76: 4d 45        	li	a0, 0x13
   11b78: 93 d6 47 43  	srai	a3, a5, 0x34
   11b7c: 93 f6 f6 7f  	andi	a3, a3, 0x7ff
   11b80: 1b 86 16 c0  	addiw	a2, a3, -0x3ff
   11b84: 13 d8 07 42  	srai	a6, a5, 0x20
   11b88: b2 85        	mv	a1, a2
   11b8a: c2 88        	mv	a7, a6
   11b8c: 1b 87 07 00  	sext.w	a4, a5
   11b90: 63 4e c5 06  	blt	a0, a2, 0x11c0c <floor+0x9a>
   11b94: 63 4e 06 04  	bltz	a2, 0x11bf0 <floor+0x7e>
   11b98: 37 03 10 00  	lui	t1, 0x100
   11b9c: 1b 05 f3 ff  	addiw	a0, t1, -0x1
   11ba0: 3b 55 c5 40  	sraw	a0, a0, a2
   11ba4: b3 75 a8 00  	and	a1, a6, a0
   11ba8: d9 8d        	or	a1, a1, a4
   11baa: 81 25        	sext.w	a1, a1
   11bac: d3 06 05 e2  	fmv.x.d	a3, fa0
   11bb0: 8d cd        	beqz	a1, 0x11bea <floor+0x78>
   11bb2: 87 b7 81 ef  	fld	fa5, -0x108(gp)
   11bb6: 53 07 00 f2  	fmv.d.x	fa4, zero
   11bba: d3 77 f5 02  	fadd.d	fa5, fa0, fa5
   11bbe: d3 17 f7 a2  	flt.d	a5, fa4, fa5
   11bc2: 91 cf        	beqz	a5, 0x11bde <floor+0x6c>
   11bc4: 63 56 08 00  	bgez	a6, 0x11bd0 <floor+0x5e>
   11bc8: 3b 53 c3 40  	sraw	t1, t1, a2
   11bcc: bb 08 03 01  	addw	a7, t1, a6
   11bd0: 13 45 f5 ff  	not	a0, a0
   11bd4: 33 75 15 01  	and	a0, a0, a7
   11bd8: 1b 08 05 00  	sext.w	a6, a0
   11bdc: 01 47        	li	a4, 0x0
   11bde: 02 17        	slli	a4, a4, 0x20
   11be0: 93 17 08 02  	slli	a5, a6, 0x20
   11be4: 01 93        	srli	a4, a4, 0x20
   11be6: b3 66 f7 00  	or	a3, a4, a5
   11bea: 53 85 06 f2  	fmv.d.x	fa0, a3
   11bee: 82 80        	ret
   11bf0: 87 b7 81 ef  	fld	fa5, -0x108(gp)
   11bf4: 53 07 00 f2  	fmv.d.x	fa4, zero
   11bf8: d3 77 f5 02  	fadd.d	fa5, fa0, fa5
   11bfc: d3 17 f7 a2  	flt.d	a5, fa4, fa5
   11c00: f9 df        	beqz	a5, 0x11bde <floor+0x6c>
   11c02: 63 43 08 06  	bltz	a6, 0x11c68 <floor+0xf6>
   11c06: 01 47        	li	a4, 0x0
   11c08: 01 48        	li	a6, 0x0
   11c0a: d1 bf        	j	0x11bde <floor+0x6c>
   11c0c: 13 05 30 03  	li	a0, 0x33
   11c10: 63 5d c5 00  	bge	a0, a2, 0x11c2a <floor+0xb8>
   11c14: 13 07 00 40  	li	a4, 0x400
   11c18: d3 06 05 e2  	fmv.x.d	a3, fa0
   11c1c: e3 17 e6 fc  	bne	a2, a4, 0x11bea <floor+0x78>
   11c20: d3 77 a5 02  	fadd.d	fa5, fa0, fa0
   11c24: d3 86 07 e2  	fmv.x.d	a3, fa5
   11c28: c9 b7        	j	0x11bea <floor+0x78>
   11c2a: 9b 86 d6 be  	addiw	a3, a3, -0x413
   11c2e: 7d 55        	li	a0, -0x1
   11c30: 3b 55 d5 00  	srlw	a0, a0, a3
   11c34: 33 73 a7 00  	and	t1, a4, a0
   11c38: 01 23        	sext.w	t1, t1
   11c3a: d3 06 05 e2  	fmv.x.d	a3, fa0
   11c3e: e3 06 03 fa  	beqz	t1, 0x11bea <floor+0x78>
   11c42: 87 b7 81 ef  	fld	fa5, -0x108(gp)
   11c46: 53 07 00 f2  	fmv.d.x	fa4, zero
   11c4a: d3 77 f5 02  	fadd.d	fa5, fa0, fa5
   11c4e: d3 17 f7 a2  	flt.d	a5, fa4, fa5
   11c52: d1 d7        	beqz	a5, 0x11bde <floor+0x6c>
   11c54: 9b 07 07 00  	sext.w	a5, a4
   11c58: 63 43 08 02  	bltz	a6, 0x11c7e <floor+0x10c>
   11c5c: 13 45 f5 ff  	not	a0, a0
   11c60: 7d 8d        	and	a0, a0, a5
   11c62: 1b 07 05 00  	sext.w	a4, a0
   11c66: a5 bf        	j	0x11bde <floor+0x6c>
   11c68: 93 17 18 02  	slli	a5, a6, 0x21
   11c6c: 85 93        	srli	a5, a5, 0x21
   11c6e: 5d 8f        	or	a4, a4, a5
   11c70: 37 08 00 80  	lui	a6, 0x80000
   11c74: 2d d7        	beqz	a4, 0x11bde <floor+0x6c>
   11c76: 01 47        	li	a4, 0x0
   11c78: 37 08 f0 bf  	lui	a6, 0xbff00
   11c7c: 8d b7        	j	0x11bde <floor+0x6c>
   11c7e: d1 46        	li	a3, 0x14
   11c80: 63 0b d6 00  	beq	a2, a3, 0x11c96 <floor+0x124>
   11c84: 13 06 40 03  	li	a2, 0x34
   11c88: 0d 9e        	subw	a2, a2, a1
   11c8a: 85 46        	li	a3, 0x1
   11c8c: bb 96 c6 00  	sllw	a3, a3, a2
   11c90: b5 9f        	addw	a5, a5, a3
   11c92: e3 f5 e7 fc  	bgeu	a5, a4, 0x11c5c <floor+0xea>
   11c96: 1b 88 18 00  	addiw	a6, a7, 0x1
   11c9a: c9 b7        	j	0x11c5c <floor+0xea>

0000000000011c9c <scalbn>:
   11c9c: d3 07 05 e2  	fmv.x.d	a5, fa0
   11ca0: 13 d7 47 43  	srai	a4, a5, 0x34
   11ca4: 93 d6 07 42  	srai	a3, a5, 0x20
   11ca8: 13 77 f7 7f  	andi	a4, a4, 0x7ff
   11cac: 36 86        	mv	a2, a3
   11cae: 59 e3        	bnez	a4, 0x11d34 <scalbn+0x98>
   11cb0: 86 16        	slli	a3, a3, 0x21
   11cb2: 85 92        	srli	a3, a3, 0x21
   11cb4: dd 8e        	or	a3, a3, a5
   11cb6: 81 26        	sext.w	a3, a3
   11cb8: bd ca        	beqz	a3, 0x11d2e <scalbn+0x92>
   11cba: 87 b7 01 05  	fld	fa5, 0x50(gp)
   11cbe: 51 77        	lui	a4, 0xffff4
   11cc0: 13 07 07 cb  	addi	a4, a4, -0x350
   11cc4: d3 77 f5 12  	fmul.d	fa5, fa0, fa5
   11cc8: d3 87 07 e2  	fmv.x.d	a5, fa5
   11ccc: 63 4b e5 0a  	blt	a0, a4, 0x11d82 <scalbn+0xe6>
   11cd0: 13 d7 47 43  	srai	a4, a5, 0x34
   11cd4: 13 77 f7 7f  	andi	a4, a4, 0x7ff
   11cd8: 13 d6 07 42  	srai	a2, a5, 0x20
   11cdc: 1b 07 a7 fc  	addiw	a4, a4, -0x36
   11ce0: b1 66        	lui	a3, 0xc
   11ce2: 93 86 06 35  	addi	a3, a3, 0x350
   11ce6: 63 c2 a6 06  	blt	a3, a0, 0x11d4a <scalbn+0xae>
   11cea: 29 9f        	addw	a4, a4, a0
   11cec: 93 06 e0 7f  	li	a3, 0x7fe
   11cf0: 3a 85        	mv	a0, a4
   11cf2: 63 cc e6 04  	blt	a3, a4, 0x11d4a <scalbn+0xae>
   11cf6: 63 47 e0 06  	bgtz	a4, 0x11d64 <scalbn+0xc8>
   11cfa: 93 06 b0 fc  	li	a3, -0x35
   11cfe: 63 4d d7 08  	blt	a4, a3, 0x11d98 <scalbn+0xfc>
   11d02: 37 07 10 80  	lui	a4, 0x80100
   11d06: 7d 17        	addi	a4, a4, -0x1
   11d08: 1b 05 65 03  	addiw	a0, a0, 0x36
   11d0c: 79 8e        	and	a2, a2, a4
   11d0e: 1b 15 45 01  	slliw	a0, a0, 0x14
   11d12: 7d 57        	li	a4, -0x1
   11d14: 01 93        	srli	a4, a4, 0x20
   11d16: 49 8e        	or	a2, a2, a0
   11d18: f9 8f        	and	a5, a5, a4
   11d1a: 02 16        	slli	a2, a2, 0x20
   11d1c: d1 8f        	or	a5, a5, a2
   11d1e: 53 87 07 f2  	fmv.d.x	fa4, a5
   11d22: 87 b7 01 12  	fld	fa5, 0x120(gp)
   11d26: d3 f7 e7 12  	fmul.d	fa5, fa5, fa4
   11d2a: d3 87 07 e2  	fmv.x.d	a5, fa5
   11d2e: 53 85 07 f2  	fmv.d.x	fa0, a5
   11d32: 82 80        	ret
   11d34: 93 06 f0 7f  	li	a3, 0x7ff
   11d38: e3 14 d7 fa  	bne	a4, a3, 0x11ce0 <scalbn+0x44>
   11d3c: d3 77 a5 02  	fadd.d	fa5, fa0, fa0
   11d40: d3 87 07 e2  	fmv.x.d	a5, fa5
   11d44: 53 85 07 f2  	fmv.d.x	fa0, a5
   11d48: 82 80        	ret
   11d4a: 07 b7 81 ef  	fld	fa4, -0x108(gp)
   11d4e: d3 87 07 f2  	fmv.d.x	fa5, a5
   11d52: d3 07 f7 22  	fsgnj.d	fa5, fa4, fa5
   11d56: d3 f7 e7 12  	fmul.d	fa5, fa5, fa4
   11d5a: d3 87 07 e2  	fmv.x.d	a5, fa5
   11d5e: 53 85 07 f2  	fmv.d.x	fa0, a5
   11d62: 82 80        	ret
   11d64: 37 07 10 80  	lui	a4, 0x80100
   11d68: 7d 17        	addi	a4, a4, -0x1
   11d6a: 79 8e        	and	a2, a2, a4
   11d6c: 1b 15 45 01  	slliw	a0, a0, 0x14
   11d70: 7d 57        	li	a4, -0x1
   11d72: 49 8e        	or	a2, a2, a0
   11d74: 01 93        	srli	a4, a4, 0x20
   11d76: 02 16        	slli	a2, a2, 0x20
   11d78: f9 8f        	and	a5, a5, a4
   11d7a: d1 8f        	or	a5, a5, a2
   11d7c: 53 85 07 f2  	fmv.d.x	fa0, a5
   11d80: 82 80        	ret
   11d82: 53 87 07 f2  	fmv.d.x	fa4, a5
   11d86: 87 b7 81 11  	fld	fa5, 0x118(gp)
   11d8a: d3 77 f7 12  	fmul.d	fa5, fa4, fa5
   11d8e: d3 87 07 e2  	fmv.x.d	a5, fa5
   11d92: 53 85 07 f2  	fmv.d.x	fa0, a5
   11d96: 82 80        	ret
   11d98: 07 b7 81 11  	fld	fa4, 0x118(gp)
   11d9c: d3 87 07 f2  	fmv.d.x	fa5, a5
   11da0: d3 07 f7 22  	fsgnj.d	fa5, fa4, fa5
   11da4: d3 f7 e7 12  	fmul.d	fa5, fa5, fa4
   11da8: d3 87 07 e2  	fmv.x.d	a5, fa5
   11dac: 49 b7        	j	0x11d2e <scalbn+0x92>

0000000000011dae <atol>:
   11dae: 29 46        	li	a2, 0xa
   11db0: 81 45        	li	a1, 0x0
   11db2: 51 aa        	j	0x11f46 <strtol>

0000000000011db4 <_atol_r>:
   11db4: a9 46        	li	a3, 0xa
   11db6: 01 46        	li	a2, 0x0
   11db8: bd aa        	j	0x11f36 <_strtol_r>

0000000000011dba <_strtol_l.isra.0>:
   11dba: 01 11        	addi	sp, sp, -0x20
   11dbc: 06 ec        	sd	ra, 0x18(sp)
   11dbe: 93 07 40 02  	li	a5, 0x24
   11dc2: 63 eb d7 0c  	bltu	a5, a3, 0x11e98 <_strtol_l.isra.0+0xde>
   11dc6: 85 47        	li	a5, 0x1
   11dc8: 63 88 f6 0c  	beq	a3, a5, 0x11e98 <_strtol_l.isra.0+0xde>
   11dcc: 6d 68        	lui	a6, 0x1b
   11dce: 22 e8        	sd	s0, 0x10(sp)
   11dd0: 26 e4        	sd	s1, 0x8(sp)
   11dd2: 4a e0        	sd	s2, 0x0(sp)
   11dd4: ae 88        	mv	a7, a1
   11dd6: 13 08 18 4c  	addi	a6, a6, 0x4c1
   11dda: 03 c7 08 00  	lbu	a4, 0x0(a7)
   11dde: 46 83        	mv	t1, a7
   11de0: 85 08        	addi	a7, a7, 0x1
   11de2: b3 07 e8 00  	add	a5, a6, a4
   11de6: 83 c7 07 00  	lbu	a5, 0x0(a5)
   11dea: a1 8b        	andi	a5, a5, 0x8
   11dec: fd f7        	bnez	a5, 0x11dda <_strtol_l.isra.0+0x20>
   11dee: 13 08 d0 02  	li	a6, 0x2d
   11df2: 9b 07 07 00  	sext.w	a5, a4
   11df6: 63 0b 07 11  	beq	a4, a6, 0x11f0c <_strtol_l.isra.0+0x152>
   11dfa: 13 07 b0 02  	li	a4, 0x2b
   11dfe: 63 85 e7 0a  	beq	a5, a4, 0x11ea8 <_strtol_l.isra.0+0xee>
   11e02: fd 54        	li	s1, -0x1
   11e04: 85 80        	srli	s1, s1, 0x1
   11e06: 01 49        	li	s2, 0x0
   11e08: c5 ea        	bnez	a3, 0x11eb8 <_strtol_l.isra.0+0xfe>
   11e0a: 13 07 00 03  	li	a4, 0x30
   11e0e: 63 87 e7 10  	beq	a5, a4, 0x11f1c <_strtol_l.isra.0+0x162>
   11e12: a9 43        	li	t2, 0xa
   11e14: a9 46        	li	a3, 0xa
   11e16: 33 f4 74 02  	remu	s0, s1, t2
   11e1a: a5 4e        	li	t4, 0x9
   11e1c: 1b 87 07 fd  	addiw	a4, a5, -0x30
   11e20: 01 4e        	li	t3, 0x0
   11e22: 01 48        	li	a6, 0x0
   11e24: e5 42        	li	t0, 0x19
   11e26: 7d 5f        	li	t5, -0x1
   11e28: 1b 83 07 00  	sext.w	t1, a5
   11e2c: b3 df 74 02  	divu	t6, s1, t2
   11e30: 01 24        	sext.w	s0, s0
   11e32: 63 e9 ee 02  	bltu	t4, a4, 0x11e64 <_strtol_l.isra.0+0xaa>
   11e36: ba 87        	mv	a5, a4
   11e38: 63 de d7 02  	bge	a5, a3, 0x11e74 <_strtol_l.isra.0+0xba>
   11e3c: 63 0b ee 01  	beq	t3, t5, 0x11e52 <_strtol_l.isra.0+0x98>
   11e40: 7d 5e        	li	t3, -0x1
   11e42: 63 e8 0f 01  	bltu	t6, a6, 0x11e52 <_strtol_l.isra.0+0x98>
   11e46: 63 87 0f 0b  	beq	t6, a6, 0x11ef4 <_strtol_l.isra.0+0x13a>
   11e4a: 05 4e        	li	t3, 0x1
   11e4c: 33 08 78 02  	mul	a6, a6, t2
   11e50: 3e 98        	add	a6, a6, a5
   11e52: 83 c7 08 00  	lbu	a5, 0x0(a7)
   11e56: 85 08        	addi	a7, a7, 0x1
   11e58: 1b 87 07 fd  	addiw	a4, a5, -0x30
   11e5c: 1b 83 07 00  	sext.w	t1, a5
   11e60: e3 fb ee fc  	bgeu	t4, a4, 0x11e36 <_strtol_l.isra.0+0x7c>
   11e64: 1b 07 f3 fb  	addiw	a4, t1, -0x41
   11e68: 63 ef e2 06  	bltu	t0, a4, 0x11ee6 <_strtol_l.isra.0+0x12c>
   11e6c: 9b 87 97 fc  	addiw	a5, a5, -0x37
   11e70: e3 c6 d7 fc  	blt	a5, a3, 0x11e3c <_strtol_l.isra.0+0x82>
   11e74: fd 57        	li	a5, -0x1
   11e76: 63 02 fe 08  	beq	t3, a5, 0x11efa <_strtol_l.isra.0+0x140>
   11e7a: 63 04 09 00  	beqz	s2, 0x11e82 <_strtol_l.isra.0+0xc8>
   11e7e: 33 08 00 41  	neg	a6, a6
   11e82: 01 c6        	beqz	a2, 0x11e8a <_strtol_l.isra.0+0xd0>
   11e84: 63 17 0e 0a  	bnez	t3, 0x11f32 <_strtol_l.isra.0+0x178>
   11e88: 0c e2        	sd	a1, 0x0(a2)
   11e8a: 42 64        	ld	s0, 0x10(sp)
   11e8c: e2 60        	ld	ra, 0x18(sp)
   11e8e: a2 64        	ld	s1, 0x8(sp)
   11e90: 02 69        	ld	s2, 0x0(sp)
   11e92: 42 85        	mv	a0, a6
   11e94: 05 61        	addi	sp, sp, 0x20
   11e96: 82 80        	ret
   11e98: ef 00 d0 0e  	jal	0x12784 <__errno>
   11e9c: e2 60        	ld	ra, 0x18(sp)
   11e9e: d9 47        	li	a5, 0x16
   11ea0: 1c c1        	sw	a5, 0x0(a0)
   11ea2: 01 45        	li	a0, 0x0
   11ea4: 05 61        	addi	sp, sp, 0x20
   11ea6: 82 80        	ret
   11ea8: fd 54        	li	s1, -0x1
   11eaa: 83 c7 08 00  	lbu	a5, 0x0(a7)
   11eae: 85 80        	srli	s1, s1, 0x1
   11eb0: 93 08 23 00  	addi	a7, t1, 0x2
   11eb4: 01 49        	li	s2, 0x0
   11eb6: b1 da        	beqz	a3, 0x11e0a <_strtol_l.isra.0+0x50>
   11eb8: 41 47        	li	a4, 0x10
   11eba: b6 83        	mv	t2, a3
   11ebc: e3 9d e6 f4  	bne	a3, a4, 0x11e16 <_strtol_l.isra.0+0x5c>
   11ec0: 13 07 00 03  	li	a4, 0x30
   11ec4: c1 43        	li	t2, 0x10
   11ec6: e3 98 e7 f4  	bne	a5, a4, 0x11e16 <_strtol_l.isra.0+0x5c>
   11eca: 03 c7 08 00  	lbu	a4, 0x0(a7)
   11ece: 13 08 80 05  	li	a6, 0x58
   11ed2: 13 77 f7 0d  	andi	a4, a4, 0xdf
   11ed6: e3 10 07 f5  	bne	a4, a6, 0x11e16 <_strtol_l.isra.0+0x5c>
   11eda: 83 c7 18 00  	lbu	a5, 0x1(a7)
   11ede: c1 43        	li	t2, 0x10
   11ee0: 89 08        	addi	a7, a7, 0x2
   11ee2: c1 46        	li	a3, 0x10
   11ee4: 0d bf        	j	0x11e16 <_strtol_l.isra.0+0x5c>
   11ee6: 1b 03 f3 f9  	addiw	t1, t1, -0x61
   11eea: e3 e5 62 f8  	bltu	t0, t1, 0x11e74 <_strtol_l.isra.0+0xba>
   11eee: 9b 87 97 fa  	addiw	a5, a5, -0x57
   11ef2: 99 b7        	j	0x11e38 <_strtol_l.isra.0+0x7e>
   11ef4: e3 4f f4 f4  	blt	s0, a5, 0x11e52 <_strtol_l.isra.0+0x98>
   11ef8: 89 bf        	j	0x11e4a <_strtol_l.isra.0+0x90>
   11efa: 93 07 20 02  	li	a5, 0x22
   11efe: 1c c1        	sw	a5, 0x0(a0)
   11f00: 26 88        	mv	a6, s1
   11f02: 41 d6        	beqz	a2, 0x11e8a <_strtol_l.isra.0+0xd0>
   11f04: 93 85 f8 ff  	addi	a1, a7, -0x1
   11f08: 26 88        	mv	a6, s1
   11f0a: bd bf        	j	0x11e88 <_strtol_l.isra.0+0xce>
   11f0c: fd 54        	li	s1, -0x1
   11f0e: 83 c7 08 00  	lbu	a5, 0x0(a7)
   11f12: fe 14        	slli	s1, s1, 0x3f
   11f14: 93 08 23 00  	addi	a7, t1, 0x2
   11f18: 05 49        	li	s2, 0x1
   11f1a: fd b5        	j	0x11e08 <_strtol_l.isra.0+0x4e>
   11f1c: 03 c7 08 00  	lbu	a4, 0x0(a7)
   11f20: 13 08 80 05  	li	a6, 0x58
   11f24: a1 43        	li	t2, 0x8
   11f26: 13 77 f7 0d  	andi	a4, a4, 0xdf
   11f2a: a1 46        	li	a3, 0x8
   11f2c: e3 15 07 ef  	bne	a4, a6, 0x11e16 <_strtol_l.isra.0+0x5c>
   11f30: 6d b7        	j	0x11eda <_strtol_l.isra.0+0x120>
   11f32: c2 84        	mv	s1, a6
   11f34: c1 bf        	j	0x11f04 <_strtol_l.isra.0+0x14a>

0000000000011f36 <_strtol_r>:
   11f36: 51 b5        	j	0x11dba <_strtol_l.isra.0>

0000000000011f38 <strtol_l>:
   11f38: aa 87        	mv	a5, a0
   11f3a: 03 b5 01 1d  	ld	a0, 0x1d0(gp)
   11f3e: b2 86        	mv	a3, a2
   11f40: 2e 86        	mv	a2, a1
   11f42: be 85        	mv	a1, a5
   11f44: 9d bd        	j	0x11dba <_strtol_l.isra.0>

0000000000011f46 <strtol>:
   11f46: aa 87        	mv	a5, a0
   11f48: 03 b5 01 1d  	ld	a0, 0x1d0(gp)
   11f4c: b2 86        	mv	a3, a2
   11f4e: 2e 86        	mv	a2, a1
   11f50: be 85        	mv	a1, a5
   11f52: a5 b5        	j	0x11dba <_strtol_l.isra.0>

0000000000011f54 <__fp_lock>:
   11f54: 01 45        	li	a0, 0x0
   11f56: 82 80        	ret

0000000000011f58 <stdio_exit_handler>:
   11f58: 71 66        	lui	a2, 0x1c
   11f5a: d9 65        	lui	a1, 0x16
   11f5c: 71 65        	lui	a0, 0x1c
   11f5e: 13 06 86 1e  	addi	a2, a2, 0x1e8
   11f62: 93 85 65 d5  	addi	a1, a1, -0x2aa
   11f66: 13 05 05 20  	addi	a0, a0, 0x200
   11f6a: 99 ac        	j	0x121c0 <_fwalk_sglue>

0000000000011f6c <cleanup_stdio>:
   11f6c: 0c 65        	ld	a1, 0x8(a0)
   11f6e: 41 11        	addi	sp, sp, -0x10
   11f70: 22 e0        	sd	s0, 0x0(sp)
   11f72: 06 e4        	sd	ra, 0x8(sp)
   11f74: 93 87 01 2b  	addi	a5, gp, 0x2b0
   11f78: 2a 84        	mv	s0, a0
   11f7a: 63 84 f5 00  	beq	a1, a5, 0x11f82 <cleanup_stdio+0x16>
   11f7e: ef 30 90 5d  	jal	0x15d56 <_fclose_r>
   11f82: 0c 68        	ld	a1, 0x10(s0)
   11f84: 93 87 01 36  	addi	a5, gp, 0x360
   11f88: 63 85 f5 00  	beq	a1, a5, 0x11f92 <cleanup_stdio+0x26>
   11f8c: 22 85        	mv	a0, s0
   11f8e: ef 30 90 5c  	jal	0x15d56 <_fclose_r>
   11f92: 0c 6c        	ld	a1, 0x18(s0)
   11f94: 93 87 01 41  	addi	a5, gp, 0x410
   11f98: 63 88 f5 00  	beq	a1, a5, 0x11fa8 <cleanup_stdio+0x3c>
   11f9c: 22 85        	mv	a0, s0
   11f9e: 02 64        	ld	s0, 0x0(sp)
   11fa0: a2 60        	ld	ra, 0x8(sp)
   11fa2: 41 01        	addi	sp, sp, 0x10
   11fa4: 6f 30 30 5b  	j	0x15d56 <_fclose_r>
   11fa8: a2 60        	ld	ra, 0x8(sp)
   11faa: 02 64        	ld	s0, 0x0(sp)
   11fac: 41 01        	addi	sp, sp, 0x10
   11fae: 82 80        	ret

0000000000011fb0 <__fp_unlock>:
   11fb0: 01 45        	li	a0, 0x0
   11fb2: 82 80        	ret

0000000000011fb4 <global_stdio_init.part.0>:
   11fb4: 79 71        	addi	sp, sp, -0x30
   11fb6: c9 67        	lui	a5, 0x12
   11fb8: 22 f0        	sd	s0, 0x20(sp)
   11fba: 93 87 87 f5  	addi	a5, a5, -0xa8
   11fbe: 13 84 01 2b  	addi	s0, gp, 0x2b0
   11fc2: 06 f4        	sd	ra, 0x28(sp)
   11fc4: 26 ec        	sd	s1, 0x18(sp)
   11fc6: 4a e8        	sd	s2, 0x10(sp)
   11fc8: 4e e4        	sd	s3, 0x8(sp)
   11fca: 52 e0        	sd	s4, 0x0(sp)
   11fcc: 23 b8 f1 20  	sd	a5, 0x210(gp)
   11fd0: 21 46        	li	a2, 0x8
   11fd2: 91 47        	li	a5, 0x4
   11fd4: 81 45        	li	a1, 0x0
   11fd6: 13 85 41 35  	addi	a0, gp, 0x354
   11fda: 1c c8        	sw	a5, 0x10(s0)
   11fdc: 23 30 04 00  	sd	zero, 0x0(s0)
   11fe0: 23 34 04 00  	sd	zero, 0x8(s0)
   11fe4: 23 26 04 0a  	sw	zero, 0xac(s0)
   11fe8: 23 3c 04 00  	sd	zero, 0x18(s0)
   11fec: 23 20 04 02  	sw	zero, 0x20(s0)
   11ff0: 23 24 04 02  	sw	zero, 0x28(s0)
   11ff4: ef 00 10 00  	jal	0x127f4 <memset>
   11ff8: c1 67        	lui	a5, 0x10
   11ffa: 49 6a        	lui	s4, 0x12
   11ffc: c9 69        	lui	s3, 0x12
   11ffe: 49 69        	lui	s2, 0x12
   12000: c9 64        	lui	s1, 0x12
   12002: 13 0a aa 42  	addi	s4, s4, 0x42a
   12006: 93 89 69 46  	addi	s3, s3, 0x466
   1200a: 13 09 89 4b  	addi	s2, s2, 0x4b8
   1200e: 93 84 a4 50  	addi	s1, s1, 0x50a
   12012: a5 07        	addi	a5, a5, 0x9
   12014: 21 46        	li	a2, 0x8
   12016: 81 45        	li	a1, 0x0
   12018: 13 85 41 40  	addi	a0, gp, 0x404
   1201c: 23 3c 44 03  	sd	s4, 0x38(s0)
   12020: 23 30 34 05  	sd	s3, 0x40(s0)
   12024: 23 34 24 05  	sd	s2, 0x48(s0)
   12028: 24 e8        	sd	s1, 0x50(s0)
   1202a: 23 20 f4 0c  	sw	a5, 0xc0(s0)
   1202e: 00 f8        	sd	s0, 0x30(s0)
   12030: 23 38 04 0a  	sd	zero, 0xb0(s0)
   12034: 23 3c 04 0a  	sd	zero, 0xb8(s0)
   12038: 23 2e 04 14  	sw	zero, 0x15c(s0)
   1203c: 23 34 04 0c  	sd	zero, 0xc8(s0)
   12040: 23 28 04 0c  	sw	zero, 0xd0(s0)
   12044: 23 2c 04 0c  	sw	zero, 0xd8(s0)
   12048: ef 00 c0 7a  	jal	0x127f4 <memset>
   1204c: b7 07 02 00  	lui	a5, 0x20
   12050: c9 07        	addi	a5, a5, 0x12
   12052: 13 87 01 36  	addi	a4, gp, 0x360
   12056: 21 46        	li	a2, 0x8
   12058: 81 45        	li	a1, 0x0
   1205a: 13 85 41 4b  	addi	a0, gp, 0x4b4
   1205e: 23 34 44 0f  	sd	s4, 0xe8(s0)
   12062: 23 38 34 0f  	sd	s3, 0xf0(s0)
   12066: 23 3c 24 0f  	sd	s2, 0xf8(s0)
   1206a: 23 30 94 10  	sd	s1, 0x100(s0)
   1206e: 23 28 f4 16  	sw	a5, 0x170(s0)
   12072: 78 f0        	sd	a4, 0xe0(s0)
   12074: 23 30 04 16  	sd	zero, 0x160(s0)
   12078: 23 34 04 16  	sd	zero, 0x168(s0)
   1207c: 23 26 04 20  	sw	zero, 0x20c(s0)
   12080: 23 3c 04 16  	sd	zero, 0x178(s0)
   12084: 23 20 04 18  	sw	zero, 0x180(s0)
   12088: 23 24 04 18  	sw	zero, 0x188(s0)
   1208c: ef 00 80 76  	jal	0x127f4 <memset>
   12090: 93 87 01 41  	addi	a5, gp, 0x410
   12094: 23 3c 44 19  	sd	s4, 0x198(s0)
   12098: 23 30 34 1b  	sd	s3, 0x1a0(s0)
   1209c: 23 34 24 1b  	sd	s2, 0x1a8(s0)
   120a0: 23 38 94 1a  	sd	s1, 0x1b0(s0)
   120a4: a2 70        	ld	ra, 0x28(sp)
   120a6: 23 38 f4 18  	sd	a5, 0x190(s0)
   120aa: 02 74        	ld	s0, 0x20(sp)
   120ac: e2 64        	ld	s1, 0x18(sp)
   120ae: 42 69        	ld	s2, 0x10(sp)
   120b0: a2 69        	ld	s3, 0x8(sp)
   120b2: 02 6a        	ld	s4, 0x0(sp)
   120b4: 45 61        	addi	sp, sp, 0x30
   120b6: 82 80        	ret

00000000000120b8 <__sfp>:
   120b8: 83 b7 01 21  	ld	a5, 0x210(gp)
   120bc: 79 71        	addi	sp, sp, -0x30
   120be: 4a e8        	sd	s2, 0x10(sp)
   120c0: 06 f4        	sd	ra, 0x28(sp)
   120c2: 22 f0        	sd	s0, 0x20(sp)
   120c4: 26 ec        	sd	s1, 0x18(sp)
   120c6: 4e e4        	sd	s3, 0x8(sp)
   120c8: 2a 89        	mv	s2, a0
   120ca: cd c7        	beqz	a5, 0x12174 <__sfp+0xbc>
   120cc: f1 64        	lui	s1, 0x1c
   120ce: 93 84 84 1e  	addi	s1, s1, 0x1e8
   120d2: 93 09 00 0b  	li	s3, 0xb0
   120d6: 98 44        	lw	a4, 0x8(s1)
   120d8: 80 68        	ld	s0, 0x10(s1)
   120da: 63 54 e0 06  	blez	a4, 0x12142 <__sfp+0x8a>
   120de: 02 17        	slli	a4, a4, 0x20
   120e0: 01 93        	srli	a4, a4, 0x20
   120e2: 33 07 37 03  	mul	a4, a4, s3
   120e6: 22 97        	add	a4, a4, s0
   120e8: 29 a0        	j	0x120f2 <__sfp+0x3a>
   120ea: 13 04 04 0b  	addi	s0, s0, 0xb0
   120ee: 63 0a 87 04  	beq	a4, s0, 0x12142 <__sfp+0x8a>
   120f2: 83 17 04 01  	lh	a5, 0x10(s0)
   120f6: f5 fb        	bnez	a5, 0x120ea <__sfp+0x32>
   120f8: c1 77        	lui	a5, 0xffff0
   120fa: 85 07        	addi	a5, a5, 0x1
   120fc: 1c c8        	sw	a5, 0x10(s0)
   120fe: 23 26 04 0a  	sw	zero, 0xac(s0)
   12102: 23 30 04 00  	sd	zero, 0x0(s0)
   12106: 23 34 04 00  	sd	zero, 0x8(s0)
   1210a: 23 3c 04 00  	sd	zero, 0x18(s0)
   1210e: 23 20 04 02  	sw	zero, 0x20(s0)
   12112: 23 24 04 02  	sw	zero, 0x28(s0)
   12116: 21 46        	li	a2, 0x8
   12118: 81 45        	li	a1, 0x0
   1211a: 13 05 44 0a  	addi	a0, s0, 0xa4
   1211e: ef 00 60 6d  	jal	0x127f4 <memset>
   12122: 23 3c 04 04  	sd	zero, 0x58(s0)
   12126: 23 20 04 06  	sw	zero, 0x60(s0)
   1212a: 23 3c 04 06  	sd	zero, 0x78(s0)
   1212e: 23 20 04 08  	sw	zero, 0x80(s0)
   12132: a2 70        	ld	ra, 0x28(sp)
   12134: 22 85        	mv	a0, s0
   12136: 02 74        	ld	s0, 0x20(sp)
   12138: e2 64        	ld	s1, 0x18(sp)
   1213a: 42 69        	ld	s2, 0x10(sp)
   1213c: a2 69        	ld	s3, 0x8(sp)
   1213e: 45 61        	addi	sp, sp, 0x30
   12140: 82 80        	ret
   12142: 80 60        	ld	s0, 0x0(s1)
   12144: 19 c0        	beqz	s0, 0x1214a <__sfp+0x92>
   12146: a2 84        	mv	s1, s0
   12148: 79 b7        	j	0x120d6 <__sfp+0x1e>
   1214a: 93 05 80 2d  	li	a1, 0x2d8
   1214e: 4a 85        	mv	a0, s2
   12150: ef 00 10 3e  	jal	0x12d30 <_malloc_r>
   12154: 2a 84        	mv	s0, a0
   12156: 15 c1        	beqz	a0, 0x1217a <__sfp+0xc2>
   12158: 61 05        	addi	a0, a0, 0x18
   1215a: 91 47        	li	a5, 0x4
   1215c: 23 30 04 00  	sd	zero, 0x0(s0)
   12160: 1c c4        	sw	a5, 0x8(s0)
   12162: 08 e8        	sd	a0, 0x10(s0)
   12164: 13 06 00 2c  	li	a2, 0x2c0
   12168: 81 45        	li	a1, 0x0
   1216a: ef 00 a0 68  	jal	0x127f4 <memset>
   1216e: 80 e0        	sd	s0, 0x0(s1)
   12170: a2 84        	mv	s1, s0
   12172: 95 b7        	j	0x120d6 <__sfp+0x1e>
   12174: ef f0 1f e4  	jal	0x11fb4 <global_stdio_init.part.0>
   12178: 91 bf        	j	0x120cc <__sfp+0x14>
   1217a: 23 b0 04 00  	sd	zero, 0x0(s1)
   1217e: b1 47        	li	a5, 0xc
   12180: 23 20 f9 00  	sw	a5, 0x0(s2)
   12184: 7d b7        	j	0x12132 <__sfp+0x7a>

0000000000012186 <__sinit>:
   12186: 3c 65        	ld	a5, 0x48(a0)
   12188: 91 c3        	beqz	a5, 0x1218c <__sinit+0x6>
   1218a: 82 80        	ret
   1218c: 03 b7 01 21  	ld	a4, 0x210(gp)
   12190: c9 67        	lui	a5, 0x12
   12192: 93 87 c7 f6  	addi	a5, a5, -0x94
   12196: 3c e5        	sd	a5, 0x48(a0)
   12198: 6d fb        	bnez	a4, 0x1218a <__sinit+0x4>
   1219a: 29 bd        	j	0x11fb4 <global_stdio_init.part.0>

000000000001219c <__sfp_lock_acquire>:
   1219c: 82 80        	ret

000000000001219e <__sfp_lock_release>:
   1219e: 82 80        	ret

00000000000121a0 <__fp_lock_all>:
   121a0: 71 66        	lui	a2, 0x1c
   121a2: c9 65        	lui	a1, 0x12
   121a4: 13 06 86 1e  	addi	a2, a2, 0x1e8
   121a8: 93 85 45 f5  	addi	a1, a1, -0xac
   121ac: 01 45        	li	a0, 0x0
   121ae: 09 a8        	j	0x121c0 <_fwalk_sglue>

00000000000121b0 <__fp_unlock_all>:
   121b0: 71 66        	lui	a2, 0x1c
   121b2: c9 65        	lui	a1, 0x12
   121b4: 13 06 86 1e  	addi	a2, a2, 0x1e8
   121b8: 93 85 05 fb  	addi	a1, a1, -0x50
   121bc: 01 45        	li	a0, 0x0
   121be: 09 a0        	j	0x121c0 <_fwalk_sglue>

00000000000121c0 <_fwalk_sglue>:
   121c0: 5d 71        	addi	sp, sp, -0x50
   121c2: 4a f8        	sd	s2, 0x30(sp)
   121c4: 4e f4        	sd	s3, 0x28(sp)
   121c6: 52 f0        	sd	s4, 0x20(sp)
   121c8: 56 ec        	sd	s5, 0x18(sp)
   121ca: 5a e8        	sd	s6, 0x10(sp)
   121cc: 5e e4        	sd	s7, 0x8(sp)
   121ce: 62 e0        	sd	s8, 0x0(sp)
   121d0: 86 e4        	sd	ra, 0x48(sp)
   121d2: a2 e0        	sd	s0, 0x40(sp)
   121d4: 26 fc        	sd	s1, 0x38(sp)
   121d6: 2a 8a        	mv	s4, a0
   121d8: 2e 8b        	mv	s6, a1
   121da: b2 89        	mv	s3, a2
   121dc: 01 49        	li	s2, 0x0
   121de: 93 0b 00 0b  	li	s7, 0xb0
   121e2: 05 4c        	li	s8, 0x1
   121e4: fd 5a        	li	s5, -0x1
   121e6: 83 a4 89 00  	lw	s1, 0x8(s3)
   121ea: 03 b4 09 01  	ld	s0, 0x10(s3)
   121ee: 63 59 90 02  	blez	s1, 0x12220 <_fwalk_sglue+0x60>
   121f2: 82 14        	slli	s1, s1, 0x20
   121f4: 81 90        	srli	s1, s1, 0x20
   121f6: b3 84 74 03  	mul	s1, s1, s7
   121fa: a2 94        	add	s1, s1, s0
   121fc: 83 57 04 01  	lhu	a5, 0x10(s0)
   12200: 63 7c fc 00  	bgeu	s8, a5, 0x12218 <_fwalk_sglue+0x58>
   12204: 83 17 24 01  	lh	a5, 0x12(s0)
   12208: a2 85        	mv	a1, s0
   1220a: 52 85        	mv	a0, s4
   1220c: 63 86 57 01  	beq	a5, s5, 0x12218 <_fwalk_sglue+0x58>
   12210: 02 9b        	jalr	s6
   12212: 33 69 25 01  	or	s2, a0, s2
   12216: 01 29        	sext.w	s2, s2
   12218: 13 04 04 0b  	addi	s0, s0, 0xb0
   1221c: e3 10 94 fe  	bne	s0, s1, 0x121fc <_fwalk_sglue+0x3c>
   12220: 83 b9 09 00  	ld	s3, 0x0(s3)
   12224: e3 91 09 fc  	bnez	s3, 0x121e6 <_fwalk_sglue+0x26>
   12228: a6 60        	ld	ra, 0x48(sp)
   1222a: 06 64        	ld	s0, 0x40(sp)
   1222c: e2 74        	ld	s1, 0x38(sp)
   1222e: a2 79        	ld	s3, 0x28(sp)
   12230: 02 7a        	ld	s4, 0x20(sp)
   12232: e2 6a        	ld	s5, 0x18(sp)
   12234: 42 6b        	ld	s6, 0x10(sp)
   12236: a2 6b        	ld	s7, 0x8(sp)
   12238: 02 6c        	ld	s8, 0x0(sp)
   1223a: 4a 85        	mv	a0, s2
   1223c: 42 79        	ld	s2, 0x30(sp)
   1223e: 61 61        	addi	sp, sp, 0x50
   12240: 82 80        	ret

0000000000012242 <_fwrite_r>:
   12242: 59 71        	addi	sp, sp, -0x70
   12244: ca e8        	sd	s2, 0x50(sp)
   12246: 33 89 c6 02  	mul	s2, a3, a2
   1224a: 3c 08        	addi	a5, sp, 0x18
   1224c: 3e f4        	sd	a5, 0x28(sp)
   1224e: 85 47        	li	a5, 0x1
   12250: a2 f0        	sd	s0, 0x60(sp)
   12252: a6 ec        	sd	s1, 0x58(sp)
   12254: ce e4        	sd	s3, 0x48(sp)
   12256: 2e ec        	sd	a1, 0x18(sp)
   12258: 86 f4        	sd	ra, 0x68(sp)
   1225a: 3e d8        	sw	a5, 0x30(sp)
   1225c: 4a f0        	sd	s2, 0x20(sp)
   1225e: 4a fc        	sd	s2, 0x38(sp)
   12260: b2 89        	mv	s3, a2
   12262: 36 84        	mv	s0, a3
   12264: aa 84        	mv	s1, a0
   12266: ba 85        	mv	a1, a4
   12268: 19 c1        	beqz	a0, 0x1226e <_fwrite_r+0x2c>
   1226a: 3c 65        	ld	a5, 0x48(a0)
   1226c: a1 c7        	beqz	a5, 0x122b4 <_fwrite_r+0x72>
   1226e: 83 97 05 01  	lh	a5, 0x10(a1)
   12272: 13 97 27 03  	slli	a4, a5, 0x32
   12276: 63 4d 07 00  	bltz	a4, 0x12290 <_fwrite_r+0x4e>
   1227a: 03 a7 c5 0a  	lw	a4, 0xac(a1)
   1227e: f9 76        	lui	a3, 0xffffe
   12280: fd 16        	addi	a3, a3, -0x1
   12282: 09 66        	lui	a2, 0x2
   12284: d1 8f        	or	a5, a5, a2
   12286: 75 8f        	and	a4, a4, a3
   12288: 23 98 f5 00  	sh	a5, 0x10(a1)
   1228c: 23 a6 e5 0a  	sw	a4, 0xac(a1)
   12290: 30 10        	addi	a2, sp, 0x28
   12292: 26 85        	mv	a0, s1
   12294: ef 30 90 59  	jal	0x1602c <__sfvwrite_r>
   12298: 11 c5        	beqz	a0, 0x122a4 <_fwrite_r+0x62>
   1229a: e2 77        	ld	a5, 0x38(sp)
   1229c: 33 09 f9 40  	sub	s2, s2, a5
   122a0: 33 54 39 03  	divu	s0, s2, s3
   122a4: a6 70        	ld	ra, 0x68(sp)
   122a6: 22 85        	mv	a0, s0
   122a8: 06 74        	ld	s0, 0x60(sp)
   122aa: e6 64        	ld	s1, 0x58(sp)
   122ac: 46 69        	ld	s2, 0x50(sp)
   122ae: a6 69        	ld	s3, 0x48(sp)
   122b0: 65 61        	addi	sp, sp, 0x70
   122b2: 82 80        	ret
   122b4: 3a e4        	sd	a4, 0x8(sp)
   122b6: ef f0 1f ed  	jal	0x12186 <__sinit>
   122ba: a2 65        	ld	a1, 0x8(sp)
   122bc: 4d bf        	j	0x1226e <_fwrite_r+0x2c>

00000000000122be <fwrite>:
   122be: 59 71        	addi	sp, sp, -0x70
   122c0: a6 ec        	sd	s1, 0x58(sp)
   122c2: b3 84 c5 02  	mul	s1, a1, a2
   122c6: ce e4        	sd	s3, 0x48(sp)
   122c8: 83 b9 01 1d  	ld	s3, 0x1d0(gp)
   122cc: 3c 08        	addi	a5, sp, 0x18
   122ce: 3e f4        	sd	a5, 0x28(sp)
   122d0: 85 47        	li	a5, 0x1
   122d2: a2 f0        	sd	s0, 0x60(sp)
   122d4: ca e8        	sd	s2, 0x50(sp)
   122d6: 86 f4        	sd	ra, 0x68(sp)
   122d8: 2a ec        	sd	a0, 0x18(sp)
   122da: 3e d8        	sw	a5, 0x30(sp)
   122dc: 26 f0        	sd	s1, 0x20(sp)
   122de: 26 fc        	sd	s1, 0x38(sp)
   122e0: 2e 89        	mv	s2, a1
   122e2: 32 84        	mv	s0, a2
   122e4: b6 85        	mv	a1, a3
   122e6: 63 85 09 00  	beqz	s3, 0x122f0 <fwrite+0x32>
   122ea: 83 b7 89 04  	ld	a5, 0x48(s3)
   122ee: b9 c3        	beqz	a5, 0x12334 <fwrite+0x76>
   122f0: 83 97 05 01  	lh	a5, 0x10(a1)
   122f4: 13 97 27 03  	slli	a4, a5, 0x32
   122f8: 63 4d 07 00  	bltz	a4, 0x12312 <fwrite+0x54>
   122fc: 03 a7 c5 0a  	lw	a4, 0xac(a1)
   12300: f9 76        	lui	a3, 0xffffe
   12302: fd 16        	addi	a3, a3, -0x1
   12304: 09 66        	lui	a2, 0x2
   12306: d1 8f        	or	a5, a5, a2
   12308: 75 8f        	and	a4, a4, a3
   1230a: 23 98 f5 00  	sh	a5, 0x10(a1)
   1230e: 23 a6 e5 0a  	sw	a4, 0xac(a1)
   12312: 30 10        	addi	a2, sp, 0x28
   12314: 4e 85        	mv	a0, s3
   12316: ef 30 70 51  	jal	0x1602c <__sfvwrite_r>
   1231a: 09 c5        	beqz	a0, 0x12324 <fwrite+0x66>
   1231c: e2 77        	ld	a5, 0x38(sp)
   1231e: 9d 8c        	sub	s1, s1, a5
   12320: 33 d4 24 03  	divu	s0, s1, s2
   12324: a6 70        	ld	ra, 0x68(sp)
   12326: 22 85        	mv	a0, s0
   12328: 06 74        	ld	s0, 0x60(sp)
   1232a: e6 64        	ld	s1, 0x58(sp)
   1232c: 46 69        	ld	s2, 0x50(sp)
   1232e: a6 69        	ld	s3, 0x48(sp)
   12330: 65 61        	addi	sp, sp, 0x70
   12332: 82 80        	ret
   12334: 4e 85        	mv	a0, s3
   12336: 36 e4        	sd	a3, 0x8(sp)
   12338: ef f0 ff e4  	jal	0x12186 <__sinit>
   1233c: a2 65        	ld	a1, 0x8(sp)
   1233e: 4d bf        	j	0x122f0 <fwrite+0x32>

0000000000012340 <_printf_r>:
   12340: 5d 71        	addi	sp, sp, -0x50
   12342: 32 f0        	sd	a2, 0x20(sp)
   12344: 36 f4        	sd	a3, 0x28(sp)
   12346: 3a f8        	sd	a4, 0x30(sp)
   12348: 3e fc        	sd	a5, 0x38(sp)
   1234a: c2 e0        	sd	a6, 0x40(sp)
   1234c: c6 e4        	sd	a7, 0x48(sp)
   1234e: 2e 86        	mv	a2, a1
   12350: 0c 69        	ld	a1, 0x10(a0)
   12352: 14 10        	addi	a3, sp, 0x20
   12354: 06 ec        	sd	ra, 0x18(sp)
   12356: 36 e4        	sd	a3, 0x8(sp)
   12358: ef 00 f0 7d  	jal	0x13336 <_vfprintf_r>
   1235c: e2 60        	ld	ra, 0x18(sp)
   1235e: 61 61        	addi	sp, sp, 0x50
   12360: 82 80        	ret

0000000000012362 <printf>:
   12362: 03 b3 01 1d  	ld	t1, 0x1d0(gp)
   12366: 1d 71        	addi	sp, sp, -0x60
   12368: 32 f8        	sd	a2, 0x30(sp)
   1236a: 36 fc        	sd	a3, 0x38(sp)
   1236c: 2e f4        	sd	a1, 0x28(sp)
   1236e: ba e0        	sd	a4, 0x40(sp)
   12370: be e4        	sd	a5, 0x48(sp)
   12372: c2 e8        	sd	a6, 0x50(sp)
   12374: c6 ec        	sd	a7, 0x58(sp)
   12376: 83 35 03 01  	ld	a1, 0x10(t1)
   1237a: 34 10        	addi	a3, sp, 0x28
   1237c: 2a 86        	mv	a2, a0
   1237e: 1a 85        	mv	a0, t1
   12380: 06 ec        	sd	ra, 0x18(sp)
   12382: 36 e4        	sd	a3, 0x8(sp)
   12384: ef 00 30 7b  	jal	0x13336 <_vfprintf_r>
   12388: e2 60        	ld	ra, 0x18(sp)
   1238a: 25 61        	addi	sp, sp, 0x60
   1238c: 82 80        	ret

000000000001238e <_putchar_r>:
   1238e: 10 69        	ld	a2, 0x10(a0)
   12390: 6f 30 f0 7f  	j	0x1638e <_putc_r>

0000000000012394 <putchar>:
   12394: 83 b7 01 1d  	ld	a5, 0x1d0(gp)
   12398: aa 85        	mv	a1, a0
   1239a: 90 6b        	ld	a2, 0x10(a5)
   1239c: 3e 85        	mv	a0, a5
   1239e: 6f 30 10 7f  	j	0x1638e <_putc_r>

00000000000123a2 <_puts_r>:
   123a2: 59 71        	addi	sp, sp, -0x70
   123a4: a2 f0        	sd	s0, 0x60(sp)
   123a6: 2a 84        	mv	s0, a0
   123a8: 2e 85        	mv	a0, a1
   123aa: a6 ec        	sd	s1, 0x58(sp)
   123ac: 86 f4        	sd	ra, 0x68(sp)
   123ae: ae 84        	mv	s1, a1
   123b0: ef 00 e0 4e  	jal	0x1289e <strlen>
   123b4: ed 67        	lui	a5, 0x1b
   123b6: 93 87 87 12  	addi	a5, a5, 0x128
   123ba: be e0        	sd	a5, 0x40(sp)
   123bc: 85 47        	li	a5, 0x1
   123be: be e4        	sd	a5, 0x48(sp)
   123c0: 38 64        	ld	a4, 0x48(s0)
   123c2: 1c 18        	addi	a5, sp, 0x30
   123c4: 93 06 15 00  	addi	a3, a0, 0x1
   123c8: 3e ec        	sd	a5, 0x18(sp)
   123ca: 89 47        	li	a5, 0x2
   123cc: 26 f8        	sd	s1, 0x30(sp)
   123ce: 2a fc        	sd	a0, 0x38(sp)
   123d0: 36 f4        	sd	a3, 0x28(sp)
   123d2: 3e d0        	sw	a5, 0x20(sp)
   123d4: 0c 68        	ld	a1, 0x10(s0)
   123d6: 15 cf        	beqz	a4, 0x12412 <_puts_r+0x70>
   123d8: 83 97 05 01  	lh	a5, 0x10(a1)
   123dc: 13 97 27 03  	slli	a4, a5, 0x32
   123e0: 63 4d 07 00  	bltz	a4, 0x123fa <_puts_r+0x58>
   123e4: 03 a7 c5 0a  	lw	a4, 0xac(a1)
   123e8: f9 76        	lui	a3, 0xffffe
   123ea: fd 16        	addi	a3, a3, -0x1
   123ec: 09 66        	lui	a2, 0x2
   123ee: d1 8f        	or	a5, a5, a2
   123f0: 75 8f        	and	a4, a4, a3
   123f2: 23 98 f5 00  	sh	a5, 0x10(a1)
   123f6: 23 a6 e5 0a  	sw	a4, 0xac(a1)
   123fa: 30 08        	addi	a2, sp, 0x18
   123fc: 22 85        	mv	a0, s0
   123fe: ef 30 f0 42  	jal	0x1602c <__sfvwrite_r>
   12402: a9 47        	li	a5, 0xa
   12404: 09 ed        	bnez	a0, 0x1241e <_puts_r+0x7c>
   12406: a6 70        	ld	ra, 0x68(sp)
   12408: 06 74        	ld	s0, 0x60(sp)
   1240a: e6 64        	ld	s1, 0x58(sp)
   1240c: 3e 85        	mv	a0, a5
   1240e: 65 61        	addi	sp, sp, 0x70
   12410: 82 80        	ret
   12412: 22 85        	mv	a0, s0
   12414: 2e e4        	sd	a1, 0x8(sp)
   12416: ef f0 1f d7  	jal	0x12186 <__sinit>
   1241a: a2 65        	ld	a1, 0x8(sp)
   1241c: 75 bf        	j	0x123d8 <_puts_r+0x36>
   1241e: fd 57        	li	a5, -0x1
   12420: dd b7        	j	0x12406 <_puts_r+0x64>

0000000000012422 <puts>:
   12422: aa 85        	mv	a1, a0
   12424: 03 b5 01 1d  	ld	a0, 0x1d0(gp)
   12428: ad bf        	j	0x123a2 <_puts_r>

000000000001242a <__sread>:
   1242a: 41 11        	addi	sp, sp, -0x10
   1242c: 22 e0        	sd	s0, 0x0(sp)
   1242e: 2e 84        	mv	s0, a1
   12430: 83 95 25 01  	lh	a1, 0x12(a1)
   12434: 06 e4        	sd	ra, 0x8(sp)
   12436: ef 00 60 2d  	jal	0x1270c <_read_r>
   1243a: 63 49 05 00  	bltz	a0, 0x1244c <__sread+0x22>
   1243e: 5c 68        	ld	a5, 0x90(s0)
   12440: a2 60        	ld	ra, 0x8(sp)
   12442: aa 97        	add	a5, a5, a0
   12444: 5c e8        	sd	a5, 0x90(s0)
   12446: 02 64        	ld	s0, 0x0(sp)
   12448: 41 01        	addi	sp, sp, 0x10
   1244a: 82 80        	ret
   1244c: 83 57 04 01  	lhu	a5, 0x10(s0)
   12450: 7d 77        	lui	a4, 0xfffff
   12452: 7d 17        	addi	a4, a4, -0x1
   12454: f9 8f        	and	a5, a5, a4
   12456: a2 60        	ld	ra, 0x8(sp)
   12458: 23 18 f4 00  	sh	a5, 0x10(s0)
   1245c: 02 64        	ld	s0, 0x0(sp)
   1245e: 41 01        	addi	sp, sp, 0x10
   12460: 82 80        	ret

0000000000012462 <__seofread>:
   12462: 01 45        	li	a0, 0x0
   12464: 82 80        	ret

0000000000012466 <__swrite>:
   12466: 83 97 05 01  	lh	a5, 0x10(a1)
   1246a: 79 71        	addi	sp, sp, -0x30
   1246c: 22 f0        	sd	s0, 0x20(sp)
   1246e: 26 ec        	sd	s1, 0x18(sp)
   12470: 4a e8        	sd	s2, 0x10(sp)
   12472: 4e e4        	sd	s3, 0x8(sp)
   12474: 06 f4        	sd	ra, 0x28(sp)
   12476: 13 f7 07 10  	andi	a4, a5, 0x100
   1247a: 2e 84        	mv	s0, a1
   1247c: aa 84        	mv	s1, a0
   1247e: 32 89        	mv	s2, a2
   12480: b6 89        	mv	s3, a3
   12482: 15 e3        	bnez	a4, 0x124a6 <__swrite+0x40>
   12484: 7d 77        	lui	a4, 0xfffff
   12486: 7d 17        	addi	a4, a4, -0x1
   12488: f9 8f        	and	a5, a5, a4
   1248a: 83 15 24 01  	lh	a1, 0x12(s0)
   1248e: 23 18 f4 00  	sh	a5, 0x10(s0)
   12492: 02 74        	ld	s0, 0x20(sp)
   12494: a2 70        	ld	ra, 0x28(sp)
   12496: ce 86        	mv	a3, s3
   12498: 4a 86        	mv	a2, s2
   1249a: a2 69        	ld	s3, 0x8(sp)
   1249c: 42 69        	ld	s2, 0x10(sp)
   1249e: 26 85        	mv	a0, s1
   124a0: e2 64        	ld	s1, 0x18(sp)
   124a2: 45 61        	addi	sp, sp, 0x30
   124a4: 55 a4        	j	0x12748 <_write_r>
   124a6: 83 95 25 01  	lh	a1, 0x12(a1)
   124aa: 89 46        	li	a3, 0x2
   124ac: 01 46        	li	a2, 0x0
   124ae: ef 00 20 22  	jal	0x126d0 <_lseek_r>
   124b2: 83 17 04 01  	lh	a5, 0x10(s0)
   124b6: f9 b7        	j	0x12484 <__swrite+0x1e>

00000000000124b8 <__sseek>:
   124b8: 41 11        	addi	sp, sp, -0x10
   124ba: 22 e0        	sd	s0, 0x0(sp)
   124bc: 2e 84        	mv	s0, a1
   124be: 83 95 25 01  	lh	a1, 0x12(a1)
   124c2: 06 e4        	sd	ra, 0x8(sp)
   124c4: ef 00 c0 20  	jal	0x126d0 <_lseek_r>
   124c8: fd 57        	li	a5, -0x1
   124ca: 63 01 f5 02  	beq	a0, a5, 0x124ec <__sseek+0x34>
   124ce: 83 57 04 01  	lhu	a5, 0x10(s0)
   124d2: 05 67        	lui	a4, 0x1
   124d4: a2 60        	ld	ra, 0x8(sp)
   124d6: d9 8f        	or	a5, a5, a4
   124d8: 9b 97 07 01  	slliw	a5, a5, 0x10
   124dc: 9b d7 07 41  	sraiw	a5, a5, 0x10
   124e0: 48 e8        	sd	a0, 0x90(s0)
   124e2: 23 18 f4 00  	sh	a5, 0x10(s0)
   124e6: 02 64        	ld	s0, 0x0(sp)
   124e8: 41 01        	addi	sp, sp, 0x10
   124ea: 82 80        	ret
   124ec: 83 57 04 01  	lhu	a5, 0x10(s0)
   124f0: 7d 77        	lui	a4, 0xfffff
   124f2: 7d 17        	addi	a4, a4, -0x1
   124f4: f9 8f        	and	a5, a5, a4
   124f6: 9b 97 07 01  	slliw	a5, a5, 0x10
   124fa: 9b d7 07 41  	sraiw	a5, a5, 0x10
   124fe: a2 60        	ld	ra, 0x8(sp)
   12500: 23 18 f4 00  	sh	a5, 0x10(s0)
   12504: 02 64        	ld	s0, 0x0(sp)
   12506: 41 01        	addi	sp, sp, 0x10
   12508: 82 80        	ret

000000000001250a <__sclose>:
   1250a: 83 95 25 01  	lh	a1, 0x12(a1)
   1250e: f9 a8        	j	0x125ec <_close_r>

0000000000012510 <strncmp>:
   12510: 4d c6        	beqz	a2, 0x125ba <strncmp+0xaa>
   12512: b3 67 b5 00  	or	a5, a0, a1
   12516: 9d 8b        	andi	a5, a5, 0x7
   12518: a5 eb        	bnez	a5, 0x12588 <strncmp+0x78>
   1251a: 9d 47        	li	a5, 0x7
   1251c: 63 f6 c7 06  	bgeu	a5, a2, 0x12588 <strncmp+0x78>
   12520: b7 16 10 f0  	lui	a3, 0xf0101
   12524: 37 08 ff fe  	lui	a6, 0xfeff0
   12528: 92 06        	slli	a3, a3, 0x4
   1252a: 13 08 f8 ef  	addi	a6, a6, -0x101
   1252e: 93 86 16 10  	addi	a3, a3, 0x101
   12532: 42 08        	slli	a6, a6, 0x10
   12534: c2 06        	slli	a3, a3, 0x10
   12536: 13 08 f8 ef  	addi	a6, a6, -0x101
   1253a: 93 86 16 10  	addi	a3, a3, 0x101
   1253e: 42 08        	slli	a6, a6, 0x10
   12540: be 06        	slli	a3, a3, 0xf
   12542: 13 08 f8 ef  	addi	a6, a6, -0x101
   12546: 93 86 06 08  	addi	a3, a3, 0x80
   1254a: 1d 4e        	li	t3, 0x7
   1254c: 01 a8        	j	0x1255c <strncmp+0x4c>
   1254e: 61 16        	addi	a2, a2, -0x8
   12550: 2d c6        	beqz	a2, 0x125ba <strncmp+0xaa>
   12552: a5 e7        	bnez	a5, 0x125ba <strncmp+0xaa>
   12554: 21 05        	addi	a0, a0, 0x8
   12556: a1 05        	addi	a1, a1, 0x8
   12558: 63 78 ce 02  	bgeu	t3, a2, 0x12588 <strncmp+0x78>
   1255c: 18 61        	ld	a4, 0x0(a0)
   1255e: 83 b8 05 00  	ld	a7, 0x0(a1)
   12562: b3 07 07 01  	add	a5, a4, a6
   12566: 13 43 f7 ff  	not	t1, a4
   1256a: b3 f7 67 00  	and	a5, a5, t1
   1256e: f5 8f        	and	a5, a5, a3
   12570: e3 0f 17 fd  	beq	a4, a7, 0x1254e <strncmp+0x3e>
   12574: 03 47 05 00  	lbu	a4, 0x0(a0)
   12578: 83 c6 05 00  	lbu	a3, 0x0(a1)
   1257c: 2a 88        	mv	a6, a0
   1257e: 63 07 d7 02  	beq	a4, a3, 0x125ac <strncmp+0x9c>
   12582: 3b 05 d7 40  	subw	a0, a4, a3
   12586: 82 80        	ret
   12588: 03 47 05 00  	lbu	a4, 0x0(a0)
   1258c: 83 c6 05 00  	lbu	a3, 0x0(a1)
   12590: e3 19 d7 fe  	bne	a4, a3, 0x12582 <strncmp+0x72>
   12594: 85 47        	li	a5, 0x1
   12596: 63 02 f6 02  	beq	a2, a5, 0x125ba <strncmp+0xaa>
   1259a: 2a 88        	mv	a6, a0
   1259c: 01 a8        	j	0x125ac <strncmp+0x9c>
   1259e: 03 47 05 00  	lbu	a4, 0x0(a0)
   125a2: 83 c6 05 00  	lbu	a3, 0x0(a1)
   125a6: e3 1e d7 fc  	bne	a4, a3, 0x12582 <strncmp+0x72>
   125aa: 81 cb        	beqz	a5, 0x125ba <strncmp+0xaa>
   125ac: 05 05        	addi	a0, a0, 0x1
   125ae: b3 07 a6 40  	sub	a5, a2, a0
   125b2: fd 17        	addi	a5, a5, -0x1
   125b4: 85 05        	addi	a1, a1, 0x1
   125b6: c2 97        	add	a5, a5, a6
   125b8: 7d f3        	bnez	a4, 0x1259e <strncmp+0x8e>
   125ba: 01 45        	li	a0, 0x0
   125bc: 82 80        	ret

00000000000125be <time>:
   125be: 01 11        	addi	sp, sp, -0x20
   125c0: 22 e8        	sd	s0, 0x10(sp)
   125c2: 2a 84        	mv	s0, a0
   125c4: 03 b5 01 1d  	ld	a0, 0x1d0(gp)
   125c8: 01 46        	li	a2, 0x0
   125ca: fd 57        	li	a5, -0x1
   125cc: 8a 85        	mv	a1, sp
   125ce: 3e e0        	sd	a5, 0x0(sp)
   125d0: 06 ec        	sd	ra, 0x18(sp)
   125d2: ef 00 40 0c  	jal	0x12696 <_gettimeofday_r>
   125d6: fd 57        	li	a5, -0x1
   125d8: 63 43 05 00  	bltz	a0, 0x125de <time+0x20>
   125dc: 82 67        	ld	a5, 0x0(sp)
   125de: 11 c0        	beqz	s0, 0x125e2 <time+0x24>
   125e0: 1c e0        	sd	a5, 0x0(s0)
   125e2: e2 60        	ld	ra, 0x18(sp)
   125e4: 42 64        	ld	s0, 0x10(sp)
   125e6: 3e 85        	mv	a0, a5
   125e8: 05 61        	addi	sp, sp, 0x20
   125ea: 82 80        	ret

00000000000125ec <_close_r>:
   125ec: 01 11        	addi	sp, sp, -0x20
   125ee: 22 e8        	sd	s0, 0x10(sp)
   125f0: 26 e4        	sd	s1, 0x8(sp)
   125f2: 2a 84        	mv	s0, a0
   125f4: 2e 85        	mv	a0, a1
   125f6: 06 ec        	sd	ra, 0x18(sp)
   125f8: 23 ac 01 20  	sw	zero, 0x218(gp)
   125fc: ef 70 00 59  	jal	0x19b8c <_close>
   12600: fd 57        	li	a5, -0x1
   12602: 63 07 f5 00  	beq	a0, a5, 0x12610 <_close_r+0x24>
   12606: e2 60        	ld	ra, 0x18(sp)
   12608: 42 64        	ld	s0, 0x10(sp)
   1260a: a2 64        	ld	s1, 0x8(sp)
   1260c: 05 61        	addi	sp, sp, 0x20
   1260e: 82 80        	ret
   12610: 83 a7 81 21  	lw	a5, 0x218(gp)
   12614: ed db        	beqz	a5, 0x12606 <_close_r+0x1a>
   12616: e2 60        	ld	ra, 0x18(sp)
   12618: 1c c0        	sw	a5, 0x0(s0)
   1261a: 42 64        	ld	s0, 0x10(sp)
   1261c: a2 64        	ld	s1, 0x8(sp)
   1261e: 05 61        	addi	sp, sp, 0x20
   12620: 82 80        	ret

0000000000012622 <_reclaim_reent>:
   12622: 83 b7 01 1d  	ld	a5, 0x1d0(gp)
   12626: 63 87 a7 06  	beq	a5, a0, 0x12694 <_reclaim_reent+0x72>
   1262a: 2c 75        	ld	a1, 0x68(a0)
   1262c: 79 71        	addi	sp, sp, -0x30
   1262e: 26 ec        	sd	s1, 0x18(sp)
   12630: 06 f4        	sd	ra, 0x28(sp)
   12632: aa 84        	mv	s1, a0
   12634: 9d c9        	beqz	a1, 0x1266a <_reclaim_reent+0x48>
   12636: 4a e8        	sd	s2, 0x10(sp)
   12638: 4e e4        	sd	s3, 0x8(sp)
   1263a: 22 f0        	sd	s0, 0x20(sp)
   1263c: 01 49        	li	s2, 0x0
   1263e: 93 09 00 20  	li	s3, 0x200
   12642: b3 87 25 01  	add	a5, a1, s2
   12646: 80 63        	ld	s0, 0x0(a5)
   12648: 01 c8        	beqz	s0, 0x12658 <_reclaim_reent+0x36>
   1264a: a2 85        	mv	a1, s0
   1264c: 00 60        	ld	s0, 0x0(s0)
   1264e: 26 85        	mv	a0, s1
   12650: ef 00 c0 49  	jal	0x12aec <_free_r>
   12654: 7d f8        	bnez	s0, 0x1264a <_reclaim_reent+0x28>
   12656: ac 74        	ld	a1, 0x68(s1)
   12658: 21 09        	addi	s2, s2, 0x8
   1265a: e3 14 39 ff  	bne	s2, s3, 0x12642 <_reclaim_reent+0x20>
   1265e: 26 85        	mv	a0, s1
   12660: ef 00 c0 48  	jal	0x12aec <_free_r>
   12664: 02 74        	ld	s0, 0x20(sp)
   12666: 42 69        	ld	s2, 0x10(sp)
   12668: a2 69        	ld	s3, 0x8(sp)
   1266a: ac 68        	ld	a1, 0x50(s1)
   1266c: 81 c5        	beqz	a1, 0x12674 <_reclaim_reent+0x52>
   1266e: 26 85        	mv	a0, s1
   12670: ef 00 c0 47  	jal	0x12aec <_free_r>
   12674: ac 7c        	ld	a1, 0x78(s1)
   12676: 81 c5        	beqz	a1, 0x1267e <_reclaim_reent+0x5c>
   12678: 26 85        	mv	a0, s1
   1267a: ef 00 20 47  	jal	0x12aec <_free_r>
   1267e: bc 64        	ld	a5, 0x48(s1)
   12680: 91 c7        	beqz	a5, 0x1268c <_reclaim_reent+0x6a>
   12682: a2 70        	ld	ra, 0x28(sp)
   12684: 26 85        	mv	a0, s1
   12686: e2 64        	ld	s1, 0x18(sp)
   12688: 45 61        	addi	sp, sp, 0x30
   1268a: 82 87        	jr	a5
   1268c: a2 70        	ld	ra, 0x28(sp)
   1268e: e2 64        	ld	s1, 0x18(sp)
   12690: 45 61        	addi	sp, sp, 0x30
   12692: 82 80        	ret
   12694: 82 80        	ret

0000000000012696 <_gettimeofday_r>:
   12696: 01 11        	addi	sp, sp, -0x20
   12698: 2e 87        	mv	a4, a1
   1269a: 22 e8        	sd	s0, 0x10(sp)
   1269c: 26 e4        	sd	s1, 0x8(sp)
   1269e: 2a 84        	mv	s0, a0
   126a0: b2 85        	mv	a1, a2
   126a2: 3a 85        	mv	a0, a4
   126a4: 06 ec        	sd	ra, 0x18(sp)
   126a6: 23 ac 01 20  	sw	zero, 0x218(gp)
   126aa: ef 70 40 57  	jal	0x19c1e <_gettimeofday>
   126ae: fd 57        	li	a5, -0x1
   126b0: 63 07 f5 00  	beq	a0, a5, 0x126be <_gettimeofday_r+0x28>
   126b4: e2 60        	ld	ra, 0x18(sp)
   126b6: 42 64        	ld	s0, 0x10(sp)
   126b8: a2 64        	ld	s1, 0x8(sp)
   126ba: 05 61        	addi	sp, sp, 0x20
   126bc: 82 80        	ret
   126be: 83 a7 81 21  	lw	a5, 0x218(gp)
   126c2: ed db        	beqz	a5, 0x126b4 <_gettimeofday_r+0x1e>
   126c4: e2 60        	ld	ra, 0x18(sp)
   126c6: 1c c0        	sw	a5, 0x0(s0)
   126c8: 42 64        	ld	s0, 0x10(sp)
   126ca: a2 64        	ld	s1, 0x8(sp)
   126cc: 05 61        	addi	sp, sp, 0x20
   126ce: 82 80        	ret

00000000000126d0 <_lseek_r>:
   126d0: 01 11        	addi	sp, sp, -0x20
   126d2: 2e 87        	mv	a4, a1
   126d4: 22 e8        	sd	s0, 0x10(sp)
   126d6: 26 e4        	sd	s1, 0x8(sp)
   126d8: b2 85        	mv	a1, a2
   126da: 2a 84        	mv	s0, a0
   126dc: 36 86        	mv	a2, a3
   126de: 3a 85        	mv	a0, a4
   126e0: 06 ec        	sd	ra, 0x18(sp)
   126e2: 23 ac 01 20  	sw	zero, 0x218(gp)
   126e6: ef 70 e0 59  	jal	0x19c84 <_lseek>
   126ea: fd 57        	li	a5, -0x1
   126ec: 63 07 f5 00  	beq	a0, a5, 0x126fa <_lseek_r+0x2a>
   126f0: e2 60        	ld	ra, 0x18(sp)
   126f2: 42 64        	ld	s0, 0x10(sp)
   126f4: a2 64        	ld	s1, 0x8(sp)
   126f6: 05 61        	addi	sp, sp, 0x20
   126f8: 82 80        	ret
   126fa: 83 a7 81 21  	lw	a5, 0x218(gp)
   126fe: ed db        	beqz	a5, 0x126f0 <_lseek_r+0x20>
   12700: e2 60        	ld	ra, 0x18(sp)
   12702: 1c c0        	sw	a5, 0x0(s0)
   12704: 42 64        	ld	s0, 0x10(sp)
   12706: a2 64        	ld	s1, 0x8(sp)
   12708: 05 61        	addi	sp, sp, 0x20
   1270a: 82 80        	ret

000000000001270c <_read_r>:
   1270c: 01 11        	addi	sp, sp, -0x20
   1270e: 2e 87        	mv	a4, a1
   12710: 22 e8        	sd	s0, 0x10(sp)
   12712: 26 e4        	sd	s1, 0x8(sp)
   12714: b2 85        	mv	a1, a2
   12716: 2a 84        	mv	s0, a0
   12718: 36 86        	mv	a2, a3
   1271a: 3a 85        	mv	a0, a4
   1271c: 06 ec        	sd	ra, 0x18(sp)
   1271e: 23 ac 01 20  	sw	zero, 0x218(gp)
   12722: ef 70 e0 58  	jal	0x19cb0 <_read>
   12726: fd 57        	li	a5, -0x1
   12728: 63 07 f5 00  	beq	a0, a5, 0x12736 <_read_r+0x2a>
   1272c: e2 60        	ld	ra, 0x18(sp)
   1272e: 42 64        	ld	s0, 0x10(sp)
   12730: a2 64        	ld	s1, 0x8(sp)
   12732: 05 61        	addi	sp, sp, 0x20
   12734: 82 80        	ret
   12736: 83 a7 81 21  	lw	a5, 0x218(gp)
   1273a: ed db        	beqz	a5, 0x1272c <_read_r+0x20>
   1273c: e2 60        	ld	ra, 0x18(sp)
   1273e: 1c c0        	sw	a5, 0x0(s0)
   12740: 42 64        	ld	s0, 0x10(sp)
   12742: a2 64        	ld	s1, 0x8(sp)
   12744: 05 61        	addi	sp, sp, 0x20
   12746: 82 80        	ret

0000000000012748 <_write_r>:
   12748: 01 11        	addi	sp, sp, -0x20
   1274a: 2e 87        	mv	a4, a1
   1274c: 22 e8        	sd	s0, 0x10(sp)
   1274e: 26 e4        	sd	s1, 0x8(sp)
   12750: b2 85        	mv	a1, a2
   12752: 2a 84        	mv	s0, a0
   12754: 36 86        	mv	a2, a3
   12756: 3a 85        	mv	a0, a4
   12758: 06 ec        	sd	ra, 0x18(sp)
   1275a: 23 ac 01 20  	sw	zero, 0x218(gp)
   1275e: ef 70 20 5d  	jal	0x19d30 <_write>
   12762: fd 57        	li	a5, -0x1
   12764: 63 07 f5 00  	beq	a0, a5, 0x12772 <_write_r+0x2a>
   12768: e2 60        	ld	ra, 0x18(sp)
   1276a: 42 64        	ld	s0, 0x10(sp)
   1276c: a2 64        	ld	s1, 0x8(sp)
   1276e: 05 61        	addi	sp, sp, 0x20
   12770: 82 80        	ret
   12772: 83 a7 81 21  	lw	a5, 0x218(gp)
   12776: ed db        	beqz	a5, 0x12768 <_write_r+0x20>
   12778: e2 60        	ld	ra, 0x18(sp)
   1277a: 1c c0        	sw	a5, 0x0(s0)
   1277c: 42 64        	ld	s0, 0x10(sp)
   1277e: a2 64        	ld	s1, 0x8(sp)
   12780: 05 61        	addi	sp, sp, 0x20
   12782: 82 80        	ret

0000000000012784 <__errno>:
   12784: 03 b5 01 1d  	ld	a0, 0x1d0(gp)
   12788: 82 80        	ret

000000000001278a <__libc_init_array>:
   1278a: 01 11        	addi	sp, sp, -0x20
   1278c: 22 e8        	sd	s0, 0x10(sp)
   1278e: f1 67        	lui	a5, 0x1c
   12790: 71 64        	lui	s0, 0x1c
   12792: 4a e0        	sd	s2, 0x0(sp)
   12794: 93 87 07 1d  	addi	a5, a5, 0x1d0
   12798: 13 07 04 1d  	addi	a4, s0, 0x1d0
   1279c: 06 ec        	sd	ra, 0x18(sp)
   1279e: 26 e4        	sd	s1, 0x8(sp)
   127a0: 33 89 e7 40  	sub	s2, a5, a4
   127a4: 63 8d e7 00  	beq	a5, a4, 0x127be <__libc_init_array+0x34>
   127a8: 13 59 39 40  	srai	s2, s2, 0x3
   127ac: 13 04 04 1d  	addi	s0, s0, 0x1d0
   127b0: 81 44        	li	s1, 0x0
   127b2: 1c 60        	ld	a5, 0x0(s0)
   127b4: 85 04        	addi	s1, s1, 0x1
   127b6: 21 04        	addi	s0, s0, 0x8
   127b8: 82 97        	jalr	a5
   127ba: e3 ec 24 ff  	bltu	s1, s2, 0x127b2 <__libc_init_array+0x28>
   127be: 71 64        	lui	s0, 0x1c
   127c0: f1 67        	lui	a5, 0x1c
   127c2: 93 87 07 1e  	addi	a5, a5, 0x1e0
   127c6: 13 07 04 1d  	addi	a4, s0, 0x1d0
   127ca: 33 89 e7 40  	sub	s2, a5, a4
   127ce: 13 59 39 40  	srai	s2, s2, 0x3
   127d2: 63 8b e7 00  	beq	a5, a4, 0x127e8 <__libc_init_array+0x5e>
   127d6: 13 04 04 1d  	addi	s0, s0, 0x1d0
   127da: 81 44        	li	s1, 0x0
   127dc: 1c 60        	ld	a5, 0x0(s0)
   127de: 85 04        	addi	s1, s1, 0x1
   127e0: 21 04        	addi	s0, s0, 0x8
   127e2: 82 97        	jalr	a5
   127e4: e3 ec 24 ff  	bltu	s1, s2, 0x127dc <__libc_init_array+0x52>
   127e8: e2 60        	ld	ra, 0x18(sp)
   127ea: 42 64        	ld	s0, 0x10(sp)
   127ec: a2 64        	ld	s1, 0x8(sp)
   127ee: 02 69        	ld	s2, 0x0(sp)
   127f0: 05 61        	addi	sp, sp, 0x20
   127f2: 82 80        	ret

00000000000127f4 <memset>:
   127f4: 3d 43        	li	t1, 0xf
   127f6: 2a 87        	mv	a4, a0
   127f8: 63 71 c3 02  	bgeu	t1, a2, 0x1281a <memset+0x26>
   127fc: 93 77 f7 00  	andi	a5, a4, 0xf
   12800: c1 e3        	bnez	a5, 0x12880 <memset+0x8c>
   12802: bd e1        	bnez	a1, 0x12868 <memset+0x74>
   12804: 93 76 06 ff  	andi	a3, a2, -0x10
   12808: 3d 8a        	andi	a2, a2, 0xf
   1280a: ba 96        	add	a3, a3, a4
   1280c: 0c e3        	sd	a1, 0x0(a4)
   1280e: 0c e7        	sd	a1, 0x8(a4)
   12810: 41 07        	addi	a4, a4, 0x10
   12812: e3 6d d7 fe  	bltu	a4, a3, 0x1280c <memset+0x18>
   12816: 11 e2        	bnez	a2, 0x1281a <memset+0x26>
   12818: 82 80        	ret
   1281a: b3 06 c3 40  	sub	a3, t1, a2
   1281e: 8a 06        	slli	a3, a3, 0x2
   12820: 97 02 00 00  	auipc	t0, 0x0
   12824: 96 96        	add	a3, a3, t0
   12826: 67 80 a6 00  	jr	0xa(a3)
   1282a: 23 07 b7 00  	sb	a1, 0xe(a4)
   1282e: a3 06 b7 00  	sb	a1, 0xd(a4)
   12832: 23 06 b7 00  	sb	a1, 0xc(a4)
   12836: a3 05 b7 00  	sb	a1, 0xb(a4)
   1283a: 23 05 b7 00  	sb	a1, 0xa(a4)
   1283e: a3 04 b7 00  	sb	a1, 0x9(a4)
   12842: 23 04 b7 00  	sb	a1, 0x8(a4)
   12846: a3 03 b7 00  	sb	a1, 0x7(a4)
   1284a: 23 03 b7 00  	sb	a1, 0x6(a4)
   1284e: a3 02 b7 00  	sb	a1, 0x5(a4)
   12852: 23 02 b7 00  	sb	a1, 0x4(a4)
   12856: a3 01 b7 00  	sb	a1, 0x3(a4)
   1285a: 23 01 b7 00  	sb	a1, 0x2(a4)
   1285e: a3 00 b7 00  	sb	a1, 0x1(a4)
   12862: 23 00 b7 00  	sb	a1, 0x0(a4)
   12866: 82 80        	ret
   12868: 93 f5 f5 0f  	andi	a1, a1, 0xff
   1286c: 93 96 85 00  	slli	a3, a1, 0x8
   12870: d5 8d        	or	a1, a1, a3
   12872: 93 96 05 01  	slli	a3, a1, 0x10
   12876: d5 8d        	or	a1, a1, a3
   12878: 93 96 05 02  	slli	a3, a1, 0x20
   1287c: d5 8d        	or	a1, a1, a3
   1287e: 59 b7        	j	0x12804 <memset+0x10>
   12880: 93 96 27 00  	slli	a3, a5, 0x2
   12884: 97 02 00 00  	auipc	t0, 0x0
   12888: 96 96        	add	a3, a3, t0
   1288a: 86 82        	mv	t0, ra
   1288c: e7 80 26 fa  	jalr	-0x5e(a3)
   12890: 96 80        	mv	ra, t0
   12892: c1 17        	addi	a5, a5, -0x10
   12894: 1d 8f        	sub	a4, a4, a5
   12896: 3e 96        	add	a2, a2, a5
   12898: e3 71 c3 f8  	bgeu	t1, a2, 0x1281a <memset+0x26>
   1289c: 9d b7        	j	0x12802 <memset+0xe>

000000000001289e <strlen>:
   1289e: 93 77 75 00  	andi	a5, a0, 0x7
   128a2: 2a 87        	mv	a4, a0
   128a4: b5 e3        	bnez	a5, 0x12908 <strlen+0x6a>
   128a6: b7 f6 ef 0f  	lui	a3, 0xfeff
   128aa: 92 06        	slli	a3, a3, 0x4
   128ac: 93 86 f6 ef  	addi	a3, a3, -0x101
   128b0: c2 06        	slli	a3, a3, 0x10
   128b2: 93 86 f6 ef  	addi	a3, a3, -0x101
   128b6: be 06        	slli	a3, a3, 0xf
   128b8: 93 86 f6 f7  	addi	a3, a3, -0x81
   128bc: fd 55        	li	a1, -0x1
   128be: 10 63        	ld	a2, 0x0(a4)
   128c0: 21 07        	addi	a4, a4, 0x8
   128c2: b3 77 d6 00  	and	a5, a2, a3
   128c6: b6 97        	add	a5, a5, a3
   128c8: d1 8f        	or	a5, a5, a2
   128ca: d5 8f        	or	a5, a5, a3
   128cc: e3 89 b7 fe  	beq	a5, a1, 0x128be <strlen+0x20>
   128d0: 83 46 87 ff  	lbu	a3, -0x8(a4)
   128d4: b3 07 a7 40  	sub	a5, a4, a0
   128d8: a9 c6        	beqz	a3, 0x12922 <strlen+0x84>
   128da: 83 46 97 ff  	lbu	a3, -0x7(a4)
   128de: 9d ce        	beqz	a3, 0x1291c <strlen+0x7e>
   128e0: 83 46 a7 ff  	lbu	a3, -0x6(a4)
   128e4: a9 c6        	beqz	a3, 0x1292e <strlen+0x90>
   128e6: 83 46 b7 ff  	lbu	a3, -0x5(a4)
   128ea: 9d ce        	beqz	a3, 0x12928 <strlen+0x8a>
   128ec: 83 46 c7 ff  	lbu	a3, -0x4(a4)
   128f0: b1 c2        	beqz	a3, 0x12934 <strlen+0x96>
   128f2: 83 46 d7 ff  	lbu	a3, -0x3(a4)
   128f6: b1 c2        	beqz	a3, 0x1293a <strlen+0x9c>
   128f8: 03 45 e7 ff  	lbu	a0, -0x2(a4)
   128fc: 33 35 a0 00  	snez	a0, a0
   12900: 3e 95        	add	a0, a0, a5
   12902: 79 15        	addi	a0, a0, -0x2
   12904: 82 80        	ret
   12906: c5 d2        	beqz	a3, 0x128a6 <strlen+0x8>
   12908: 83 47 07 00  	lbu	a5, 0x0(a4)
   1290c: 05 07        	addi	a4, a4, 0x1
   1290e: 93 76 77 00  	andi	a3, a4, 0x7
   12912: f5 fb        	bnez	a5, 0x12906 <strlen+0x68>
   12914: 09 8f        	sub	a4, a4, a0
   12916: 13 05 f7 ff  	addi	a0, a4, -0x1
   1291a: 82 80        	ret
   1291c: 13 85 97 ff  	addi	a0, a5, -0x7
   12920: 82 80        	ret
   12922: 13 85 87 ff  	addi	a0, a5, -0x8
   12926: 82 80        	ret
   12928: 13 85 b7 ff  	addi	a0, a5, -0x5
   1292c: 82 80        	ret
   1292e: 13 85 a7 ff  	addi	a0, a5, -0x6
   12932: 82 80        	ret
   12934: 13 85 c7 ff  	addi	a0, a5, -0x4
   12938: 82 80        	ret
   1293a: 13 85 d7 ff  	addi	a0, a5, -0x3
   1293e: 82 80        	ret

0000000000012940 <__call_exitprocs>:
   12940: 5d 71        	addi	sp, sp, -0x50
   12942: 52 f0        	sd	s4, 0x20(sp)
   12944: 4a f8        	sd	s2, 0x30(sp)
   12946: 03 b9 01 22  	ld	s2, 0x220(gp)
   1294a: 86 e4        	sd	ra, 0x48(sp)
   1294c: 63 0d 09 06  	beqz	s2, 0x129c6 <__call_exitprocs+0x86>
   12950: 4e f4        	sd	s3, 0x28(sp)
   12952: 56 ec        	sd	s5, 0x18(sp)
   12954: 5a e8        	sd	s6, 0x10(sp)
   12956: 5e e4        	sd	s7, 0x8(sp)
   12958: a2 e0        	sd	s0, 0x40(sp)
   1295a: 26 fc        	sd	s1, 0x38(sp)
   1295c: 62 e0        	sd	s8, 0x0(sp)
   1295e: 2a 8b        	mv	s6, a0
   12960: ae 8b        	mv	s7, a1
   12962: fd 59        	li	s3, -0x1
   12964: 85 4a        	li	s5, 0x1
   12966: 83 24 89 00  	lw	s1, 0x8(s2)
   1296a: 1b 84 f4 ff  	addiw	s0, s1, -0x1
   1296e: 63 45 04 04  	bltz	s0, 0x129b8 <__call_exitprocs+0x78>
   12972: 8e 04        	slli	s1, s1, 0x3
   12974: ca 94        	add	s1, s1, s2
   12976: 63 9d 0b 04  	bnez	s7, 0x129d0 <__call_exitprocs+0x90>
   1297a: 83 27 89 00  	lw	a5, 0x8(s2)
   1297e: 98 64        	ld	a4, 0x8(s1)
   12980: fd 37        	addiw	a5, a5, -0x1
   12982: 63 82 87 08  	beq	a5, s0, 0x12a06 <__call_exitprocs+0xc6>
   12986: 23 b4 04 00  	sd	zero, 0x8(s1)
   1298a: 1d c3        	beqz	a4, 0x129b0 <__call_exitprocs+0x70>
   1298c: 83 27 09 31  	lw	a5, 0x310(s2)
   12990: bb 96 8a 00  	sllw	a3, s5, s0
   12994: 03 2c 89 00  	lw	s8, 0x8(s2)
   12998: f5 8f        	and	a5, a5, a3
   1299a: 81 27        	sext.w	a5, a5
   1299c: b9 e3        	bnez	a5, 0x129e2 <__call_exitprocs+0xa2>
   1299e: 02 97        	jalr	a4
   129a0: 03 27 89 00  	lw	a4, 0x8(s2)
   129a4: 83 b7 01 22  	ld	a5, 0x220(gp)
   129a8: 63 1c 87 05  	bne	a4, s8, 0x12a00 <__call_exitprocs+0xc0>
   129ac: 63 9a 27 05  	bne	a5, s2, 0x12a00 <__call_exitprocs+0xc0>
   129b0: 7d 34        	addiw	s0, s0, -0x1
   129b2: e1 14        	addi	s1, s1, -0x8
   129b4: e3 11 34 fd  	bne	s0, s3, 0x12976 <__call_exitprocs+0x36>
   129b8: 06 64        	ld	s0, 0x40(sp)
   129ba: e2 74        	ld	s1, 0x38(sp)
   129bc: a2 79        	ld	s3, 0x28(sp)
   129be: e2 6a        	ld	s5, 0x18(sp)
   129c0: 42 6b        	ld	s6, 0x10(sp)
   129c2: a2 6b        	ld	s7, 0x8(sp)
   129c4: 02 6c        	ld	s8, 0x0(sp)
   129c6: a6 60        	ld	ra, 0x48(sp)
   129c8: 42 79        	ld	s2, 0x30(sp)
   129ca: 02 7a        	ld	s4, 0x20(sp)
   129cc: 61 61        	addi	sp, sp, 0x50
   129ce: 82 80        	ret
   129d0: 83 b7 84 20  	ld	a5, 0x208(s1)
   129d4: e3 83 77 fb  	beq	a5, s7, 0x1297a <__call_exitprocs+0x3a>
   129d8: 7d 34        	addiw	s0, s0, -0x1
   129da: e1 14        	addi	s1, s1, -0x8
   129dc: e3 1a 34 ff  	bne	s0, s3, 0x129d0 <__call_exitprocs+0x90>
   129e0: e1 bf        	j	0x129b8 <__call_exitprocs+0x78>
   129e2: 83 27 49 31  	lw	a5, 0x314(s2)
   129e6: 83 b5 84 10  	ld	a1, 0x108(s1)
   129ea: f5 8f        	and	a5, a5, a3
   129ec: 81 27        	sext.w	a5, a5
   129ee: 99 ef        	bnez	a5, 0x12a0c <__call_exitprocs+0xcc>
   129f0: 5a 85        	mv	a0, s6
   129f2: 02 97        	jalr	a4
   129f4: 03 27 89 00  	lw	a4, 0x8(s2)
   129f8: 83 b7 01 22  	ld	a5, 0x220(gp)
   129fc: e3 08 87 fb  	beq	a4, s8, 0x129ac <__call_exitprocs+0x6c>
   12a00: c5 df        	beqz	a5, 0x129b8 <__call_exitprocs+0x78>
   12a02: 3e 89        	mv	s2, a5
   12a04: 8d b7        	j	0x12966 <__call_exitprocs+0x26>
   12a06: 23 24 89 00  	sw	s0, 0x8(s2)
   12a0a: 41 b7        	j	0x1298a <__call_exitprocs+0x4a>
   12a0c: 2e 85        	mv	a0, a1
   12a0e: 02 97        	jalr	a4
   12a10: 41 bf        	j	0x129a0 <__call_exitprocs+0x60>

0000000000012a12 <atexit>:
   12a12: aa 85        	mv	a1, a0
   12a14: 81 46        	li	a3, 0x0
   12a16: 01 46        	li	a2, 0x0
   12a18: 01 45        	li	a0, 0x0
   12a1a: 6f 40 e0 34  	j	0x16d68 <__register_exitproc>

0000000000012a1e <_malloc_trim_r>:
   12a1e: 79 71        	addi	sp, sp, -0x30
   12a20: 4e e4        	sd	s3, 0x8(sp)
   12a22: f1 69        	lui	s3, 0x1c
   12a24: 22 f0        	sd	s0, 0x20(sp)
   12a26: 26 ec        	sd	s1, 0x18(sp)
   12a28: 4a e8        	sd	s2, 0x10(sp)
   12a2a: 52 e0        	sd	s4, 0x0(sp)
   12a2c: 06 f4        	sd	ra, 0x28(sp)
   12a2e: 2e 8a        	mv	s4, a1
   12a30: 2a 89        	mv	s2, a0
   12a32: 93 89 89 35  	addi	s3, s3, 0x358
   12a36: ef 00 d0 0f  	jal	0x13332 <__malloc_lock>
   12a3a: 03 b7 09 01  	ld	a4, 0x10(s3)
   12a3e: 85 67        	lui	a5, 0x1
   12a40: 93 87 f7 fd  	addi	a5, a5, -0x21
   12a44: 04 67        	ld	s1, 0x8(a4)
   12a46: 05 67        	lui	a4, 0x1
   12a48: f1 98        	andi	s1, s1, -0x4
   12a4a: 33 84 f4 00  	add	s0, s1, a5
   12a4e: 33 04 44 41  	sub	s0, s0, s4
   12a52: 31 80        	srli	s0, s0, 0xc
   12a54: 7d 14        	addi	s0, s0, -0x1
   12a56: 32 04        	slli	s0, s0, 0xc
   12a58: 63 4b e4 00  	blt	s0, a4, 0x12a6e <_malloc_trim_r+0x50>
   12a5c: 81 45        	li	a1, 0x0
   12a5e: 4a 85        	mv	a0, s2
   12a60: ef 30 d0 6e  	jal	0x1694c <_sbrk_r>
   12a64: 83 b7 09 01  	ld	a5, 0x10(s3)
   12a68: a6 97        	add	a5, a5, s1
   12a6a: 63 0e f5 00  	beq	a0, a5, 0x12a86 <_malloc_trim_r+0x68>
   12a6e: 4a 85        	mv	a0, s2
   12a70: ef 00 50 0c  	jal	0x13334 <__malloc_unlock>
   12a74: a2 70        	ld	ra, 0x28(sp)
   12a76: 02 74        	ld	s0, 0x20(sp)
   12a78: e2 64        	ld	s1, 0x18(sp)
   12a7a: 42 69        	ld	s2, 0x10(sp)
   12a7c: a2 69        	ld	s3, 0x8(sp)
   12a7e: 02 6a        	ld	s4, 0x0(sp)
   12a80: 01 45        	li	a0, 0x0
   12a82: 45 61        	addi	sp, sp, 0x30
   12a84: 82 80        	ret
   12a86: b3 05 80 40  	neg	a1, s0
   12a8a: 4a 85        	mv	a0, s2
   12a8c: ef 30 10 6c  	jal	0x1694c <_sbrk_r>
   12a90: fd 57        	li	a5, -0x1
   12a92: 63 09 f5 02  	beq	a0, a5, 0x12ac4 <_malloc_trim_r+0xa6>
   12a96: 93 87 01 4c  	addi	a5, gp, 0x4c0
   12a9a: 98 43        	lw	a4, 0x0(a5)
   12a9c: 83 b6 09 01  	ld	a3, 0x10(s3)
   12aa0: 81 8c        	sub	s1, s1, s0
   12aa2: 93 e4 14 00  	ori	s1, s1, 0x1
   12aa6: 01 9f        	subw	a4, a4, s0
   12aa8: 4a 85        	mv	a0, s2
   12aaa: 84 e6        	sd	s1, 0x8(a3)
   12aac: 98 c3        	sw	a4, 0x0(a5)
   12aae: ef 00 70 08  	jal	0x13334 <__malloc_unlock>
   12ab2: a2 70        	ld	ra, 0x28(sp)
   12ab4: 02 74        	ld	s0, 0x20(sp)
   12ab6: e2 64        	ld	s1, 0x18(sp)
   12ab8: 42 69        	ld	s2, 0x10(sp)
   12aba: a2 69        	ld	s3, 0x8(sp)
   12abc: 02 6a        	ld	s4, 0x0(sp)
   12abe: 05 45        	li	a0, 0x1
   12ac0: 45 61        	addi	sp, sp, 0x30
   12ac2: 82 80        	ret
   12ac4: 81 45        	li	a1, 0x0
   12ac6: 4a 85        	mv	a0, s2
   12ac8: ef 30 50 68  	jal	0x1694c <_sbrk_r>
   12acc: 03 b7 09 01  	ld	a4, 0x10(s3)
   12ad0: fd 46        	li	a3, 0x1f
   12ad2: b3 07 e5 40  	sub	a5, a0, a4
   12ad6: e3 dc f6 f8  	bge	a3, a5, 0x12a6e <_malloc_trim_r+0x50>
   12ada: 83 b6 81 1d  	ld	a3, 0x1d8(gp)
   12ade: 93 e7 17 00  	ori	a5, a5, 0x1
   12ae2: 1c e7        	sd	a5, 0x8(a4)
   12ae4: 15 8d        	sub	a0, a0, a3
   12ae6: 23 a0 a1 4c  	sw	a0, 0x4c0(gp)
   12aea: 51 b7        	j	0x12a6e <_malloc_trim_r+0x50>

0000000000012aec <_free_r>:
   12aec: 63 81 05 12  	beqz	a1, 0x12c0e <_free_r+0x122>
   12af0: 01 11        	addi	sp, sp, -0x20
   12af2: 22 e8        	sd	s0, 0x10(sp)
   12af4: 26 e4        	sd	s1, 0x8(sp)
   12af6: 2e 84        	mv	s0, a1
   12af8: aa 84        	mv	s1, a0
   12afa: 06 ec        	sd	ra, 0x18(sp)
   12afc: ef 00 70 03  	jal	0x13332 <__malloc_lock>
   12b00: 03 35 84 ff  	ld	a0, -0x8(s0)
   12b04: 13 07 04 ff  	addi	a4, s0, -0x10
   12b08: f1 65        	lui	a1, 0x1c
   12b0a: 93 77 e5 ff  	andi	a5, a0, -0x2
   12b0e: 33 06 f7 00  	add	a2, a4, a5
   12b12: 93 85 85 35  	addi	a1, a1, 0x358
   12b16: 14 66        	ld	a3, 0x8(a2)
   12b18: 03 b8 05 01  	ld	a6, 0x10(a1)
   12b1c: f1 9a        	andi	a3, a3, -0x4
   12b1e: 63 0a c8 12  	beq	a6, a2, 0x12c52 <_free_r+0x166>
   12b22: 14 e6        	sd	a3, 0x8(a2)
   12b24: 05 89        	andi	a0, a0, 0x1
   12b26: 33 08 d6 00  	add	a6, a2, a3
   12b2a: 3d ed        	bnez	a0, 0x12ba8 <_free_r+0xbc>
   12b2c: 03 33 04 ff  	ld	t1, -0x10(s0)
   12b30: 03 38 88 00  	ld	a6, 0x8(a6)
   12b34: 71 65        	lui	a0, 0x1c
   12b36: 33 07 67 40  	sub	a4, a4, t1
   12b3a: 83 38 07 01  	ld	a7, 0x10(a4)
   12b3e: 13 05 85 36  	addi	a0, a0, 0x368
   12b42: 9a 97        	add	a5, a5, t1
   12b44: 13 78 18 00  	andi	a6, a6, 0x1
   12b48: 63 88 a8 0e  	beq	a7, a0, 0x12c38 <_free_r+0x14c>
   12b4c: 03 33 87 01  	ld	t1, 0x18(a4)
   12b50: 23 bc 68 00  	sd	t1, 0x18(a7)
   12b54: 23 38 13 01  	sd	a7, 0x10(t1)
   12b58: 63 06 08 12  	beqz	a6, 0x12c84 <_free_r+0x198>
   12b5c: 93 e6 17 00  	ori	a3, a5, 0x1
   12b60: 14 e7        	sd	a3, 0x8(a4)
   12b62: 1c e2        	sd	a5, 0x0(a2)
   12b64: 93 06 f0 1f  	li	a3, 0x1ff
   12b68: 63 ed f6 04  	bltu	a3, a5, 0x12bc2 <_free_r+0xd6>
   12b6c: 8d 83        	srli	a5, a5, 0x3
   12b6e: 9b 86 17 00  	addiw	a3, a5, 0x1
   12b72: 9b 96 16 00  	slliw	a3, a3, 0x1
   12b76: 8e 06        	slli	a3, a3, 0x3
   12b78: 03 b8 85 00  	ld	a6, 0x8(a1)
   12b7c: ae 96        	add	a3, a3, a1
   12b7e: 88 62        	ld	a0, 0x0(a3)
   12b80: 1b d6 27 40  	sraiw	a2, a5, 0x2
   12b84: 85 47        	li	a5, 0x1
   12b86: b3 97 c7 00  	sll	a5, a5, a2
   12b8a: b3 e7 07 01  	or	a5, a5, a6
   12b8e: 13 86 06 ff  	addi	a2, a3, -0x10
   12b92: 10 ef        	sd	a2, 0x18(a4)
   12b94: 08 eb        	sd	a0, 0x10(a4)
   12b96: 9c e5        	sd	a5, 0x8(a1)
   12b98: 98 e2        	sd	a4, 0x0(a3)
   12b9a: 18 ed        	sd	a4, 0x18(a0)
   12b9c: 42 64        	ld	s0, 0x10(sp)
   12b9e: e2 60        	ld	ra, 0x18(sp)
   12ba0: 26 85        	mv	a0, s1
   12ba2: a2 64        	ld	s1, 0x8(sp)
   12ba4: 05 61        	addi	sp, sp, 0x20
   12ba6: 79 a7        	j	0x13334 <__malloc_unlock>
   12ba8: 03 35 88 00  	ld	a0, 0x8(a6)
   12bac: 05 89        	andi	a0, a0, 0x1
   12bae: 2d c1        	beqz	a0, 0x12c10 <_free_r+0x124>
   12bb0: 93 e6 17 00  	ori	a3, a5, 0x1
   12bb4: 23 3c d4 fe  	sd	a3, -0x8(s0)
   12bb8: 1c e2        	sd	a5, 0x0(a2)
   12bba: 93 06 f0 1f  	li	a3, 0x1ff
   12bbe: e3 f7 f6 fa  	bgeu	a3, a5, 0x12b6c <_free_r+0x80>
   12bc2: 93 d6 97 00  	srli	a3, a5, 0x9
   12bc6: 11 46        	li	a2, 0x4
   12bc8: 63 60 d6 0c  	bltu	a2, a3, 0x12c88 <_free_r+0x19c>
   12bcc: 93 d6 67 00  	srli	a3, a5, 0x6
   12bd0: 1b 85 96 03  	addiw	a0, a3, 0x39
   12bd4: 1b 15 15 00  	slliw	a0, a0, 0x1
   12bd8: 1b 86 86 03  	addiw	a2, a3, 0x38
   12bdc: 0e 05        	slli	a0, a0, 0x3
   12bde: 2e 95        	add	a0, a0, a1
   12be0: 14 61        	ld	a3, 0x0(a0)
   12be2: 41 15        	addi	a0, a0, -0x10
   12be4: 63 16 d5 00  	bne	a0, a3, 0x12bf0 <_free_r+0x104>
   12be8: dd a0        	j	0x12cce <_free_r+0x1e2>
   12bea: 94 6a        	ld	a3, 0x10(a3)
   12bec: 63 06 d5 00  	beq	a0, a3, 0x12bf8 <_free_r+0x10c>
   12bf0: 90 66        	ld	a2, 0x8(a3)
   12bf2: 71 9a        	andi	a2, a2, -0x4
   12bf4: e3 eb c7 fe  	bltu	a5, a2, 0x12bea <_free_r+0xfe>
   12bf8: 88 6e        	ld	a0, 0x18(a3)
   12bfa: 08 ef        	sd	a0, 0x18(a4)
   12bfc: 14 eb        	sd	a3, 0x10(a4)
   12bfe: 42 64        	ld	s0, 0x10(sp)
   12c00: 18 e9        	sd	a4, 0x10(a0)
   12c02: e2 60        	ld	ra, 0x18(sp)
   12c04: 26 85        	mv	a0, s1
   12c06: a2 64        	ld	s1, 0x8(sp)
   12c08: 98 ee        	sd	a4, 0x18(a3)
   12c0a: 05 61        	addi	sp, sp, 0x20
   12c0c: 25 a7        	j	0x13334 <__malloc_unlock>
   12c0e: 82 80        	ret
   12c10: 71 65        	lui	a0, 0x1c
   12c12: b6 97        	add	a5, a5, a3
   12c14: 13 05 85 36  	addi	a0, a0, 0x368
   12c18: 14 6a        	ld	a3, 0x10(a2)
   12c1a: 63 80 a6 0a  	beq	a3, a0, 0x12cba <_free_r+0x1ce>
   12c1e: 03 38 86 01  	ld	a6, 0x18(a2)
   12c22: 13 e5 17 00  	ori	a0, a5, 0x1
   12c26: 33 06 f7 00  	add	a2, a4, a5
   12c2a: 23 bc 06 01  	sd	a6, 0x18(a3)
   12c2e: 23 38 d8 00  	sd	a3, 0x10(a6)
   12c32: 08 e7        	sd	a0, 0x8(a4)
   12c34: 1c e2        	sd	a5, 0x0(a2)
   12c36: 3d b7        	j	0x12b64 <_free_r+0x78>
   12c38: 63 17 08 0e  	bnez	a6, 0x12d26 <_free_r+0x23a>
   12c3c: 0c 6a        	ld	a1, 0x10(a2)
   12c3e: 10 6e        	ld	a2, 0x18(a2)
   12c40: be 96        	add	a3, a3, a5
   12c42: 93 e7 16 00  	ori	a5, a3, 0x1
   12c46: 90 ed        	sd	a2, 0x18(a1)
   12c48: 0c ea        	sd	a1, 0x10(a2)
   12c4a: 1c e7        	sd	a5, 0x8(a4)
   12c4c: 36 97        	add	a4, a4, a3
   12c4e: 14 e3        	sd	a3, 0x0(a4)
   12c50: b1 b7        	j	0x12b9c <_free_r+0xb0>
   12c52: 05 89        	andi	a0, a0, 0x1
   12c54: be 96        	add	a3, a3, a5
   12c56: 09 e9        	bnez	a0, 0x12c68 <_free_r+0x17c>
   12c58: 03 35 04 ff  	ld	a0, -0x10(s0)
   12c5c: 09 8f        	sub	a4, a4, a0
   12c5e: 1c 6f        	ld	a5, 0x18(a4)
   12c60: 10 6b        	ld	a2, 0x10(a4)
   12c62: aa 96        	add	a3, a3, a0
   12c64: 1c ee        	sd	a5, 0x18(a2)
   12c66: 90 eb        	sd	a2, 0x10(a5)
   12c68: 13 e6 16 00  	ori	a2, a3, 0x1
   12c6c: 83 b7 01 1e  	ld	a5, 0x1e0(gp)
   12c70: 10 e7        	sd	a2, 0x8(a4)
   12c72: 98 e9        	sd	a4, 0x10(a1)
   12c74: e3 e4 f6 f2  	bltu	a3, a5, 0x12b9c <_free_r+0xb0>
   12c78: 83 b5 81 23  	ld	a1, 0x238(gp)
   12c7c: 26 85        	mv	a0, s1
   12c7e: ef f0 1f da  	jal	0x12a1e <_malloc_trim_r>
   12c82: 29 bf        	j	0x12b9c <_free_r+0xb0>
   12c84: b6 97        	add	a5, a5, a3
   12c86: 49 bf        	j	0x12c18 <_free_r+0x12c>
   12c88: 51 46        	li	a2, 0x14
   12c8a: 63 70 d6 02  	bgeu	a2, a3, 0x12caa <_free_r+0x1be>
   12c8e: 13 06 40 05  	li	a2, 0x54
   12c92: 63 69 d6 04  	bltu	a2, a3, 0x12ce4 <_free_r+0x1f8>
   12c96: 93 d6 c7 00  	srli	a3, a5, 0xc
   12c9a: 1b 85 f6 06  	addiw	a0, a3, 0x6f
   12c9e: 1b 15 15 00  	slliw	a0, a0, 0x1
   12ca2: 1b 86 e6 06  	addiw	a2, a3, 0x6e
   12ca6: 0e 05        	slli	a0, a0, 0x3
   12ca8: 1d bf        	j	0x12bde <_free_r+0xf2>
   12caa: 1b 85 c6 05  	addiw	a0, a3, 0x5c
   12cae: 1b 15 15 00  	slliw	a0, a0, 0x1
   12cb2: 1b 86 b6 05  	addiw	a2, a3, 0x5b
   12cb6: 0e 05        	slli	a0, a0, 0x3
   12cb8: 1d b7        	j	0x12bde <_free_r+0xf2>
   12cba: 98 f5        	sd	a4, 0x28(a1)
   12cbc: 98 f1        	sd	a4, 0x20(a1)
   12cbe: 93 e6 17 00  	ori	a3, a5, 0x1
   12cc2: 08 ef        	sd	a0, 0x18(a4)
   12cc4: 08 eb        	sd	a0, 0x10(a4)
   12cc6: 14 e7        	sd	a3, 0x8(a4)
   12cc8: 3e 97        	add	a4, a4, a5
   12cca: 1c e3        	sd	a5, 0x0(a4)
   12ccc: c1 bd        	j	0x12b9c <_free_r+0xb0>
   12cce: 03 b8 85 00  	ld	a6, 0x8(a1)
   12cd2: 1b 56 26 40  	sraiw	a2, a2, 0x2
   12cd6: 85 47        	li	a5, 0x1
   12cd8: b3 97 c7 00  	sll	a5, a5, a2
   12cdc: b3 e7 07 01  	or	a5, a5, a6
   12ce0: 9c e5        	sd	a5, 0x8(a1)
   12ce2: 21 bf        	j	0x12bfa <_free_r+0x10e>
   12ce4: 13 06 40 15  	li	a2, 0x154
   12ce8: 63 6c d6 00  	bltu	a2, a3, 0x12d00 <_free_r+0x214>
   12cec: 93 d6 f7 00  	srli	a3, a5, 0xf
   12cf0: 1b 85 86 07  	addiw	a0, a3, 0x78
   12cf4: 1b 15 15 00  	slliw	a0, a0, 0x1
   12cf8: 1b 86 76 07  	addiw	a2, a3, 0x77
   12cfc: 0e 05        	slli	a0, a0, 0x3
   12cfe: c5 b5        	j	0x12bde <_free_r+0xf2>
   12d00: 13 06 40 55  	li	a2, 0x554
   12d04: 63 6c d6 00  	bltu	a2, a3, 0x12d1c <_free_r+0x230>
   12d08: 93 d6 27 01  	srli	a3, a5, 0x12
   12d0c: 1b 85 d6 07  	addiw	a0, a3, 0x7d
   12d10: 1b 15 15 00  	slliw	a0, a0, 0x1
   12d14: 1b 86 c6 07  	addiw	a2, a3, 0x7c
   12d18: 0e 05        	slli	a0, a0, 0x3
   12d1a: d1 b5        	j	0x12bde <_free_r+0xf2>
   12d1c: 13 05 00 7f  	li	a0, 0x7f0
   12d20: 13 06 e0 07  	li	a2, 0x7e
   12d24: 6d bd        	j	0x12bde <_free_r+0xf2>
   12d26: 93 e6 17 00  	ori	a3, a5, 0x1
   12d2a: 14 e7        	sd	a3, 0x8(a4)
   12d2c: 1c e2        	sd	a5, 0x0(a2)
   12d2e: bd b5        	j	0x12b9c <_free_r+0xb0>

0000000000012d30 <_malloc_r>:
   12d30: 1d 71        	addi	sp, sp, -0x60
   12d32: a6 e4        	sd	s1, 0x48(sp)
   12d34: ca e0        	sd	s2, 0x40(sp)
   12d36: 86 ec        	sd	ra, 0x58(sp)
   12d38: a2 e8        	sd	s0, 0x50(sp)
   12d3a: 4e fc        	sd	s3, 0x38(sp)
   12d3c: 93 84 75 01  	addi	s1, a1, 0x17
   12d40: 93 07 e0 02  	li	a5, 0x2e
   12d44: 2a 89        	mv	s2, a0
   12d46: 63 ed 97 04  	bltu	a5, s1, 0x12da0 <_malloc_r+0x70>
   12d4a: 93 07 00 02  	li	a5, 0x20
   12d4e: 63 e9 b7 18  	bltu	a5, a1, 0x12ee0 <_malloc_r+0x1b0>
   12d52: ef 00 00 5e  	jal	0x13332 <__malloc_lock>
   12d56: 93 07 00 05  	li	a5, 0x50
   12d5a: 91 45        	li	a1, 0x4
   12d5c: 93 04 00 02  	li	s1, 0x20
   12d60: f1 69        	lui	s3, 0x1c
   12d62: 93 89 89 35  	addi	s3, s3, 0x358
   12d66: ce 97        	add	a5, a5, s3
   12d68: 80 67        	ld	s0, 0x8(a5)
   12d6a: 13 87 07 ff  	addi	a4, a5, -0x10
   12d6e: 63 0d e4 26  	beq	s0, a4, 0x12fe8 <_malloc_r+0x2b8>
   12d72: 1c 64        	ld	a5, 0x8(s0)
   12d74: 14 6c        	ld	a3, 0x18(s0)
   12d76: 10 68        	ld	a2, 0x10(s0)
   12d78: f1 9b        	andi	a5, a5, -0x4
   12d7a: a2 97        	add	a5, a5, s0
   12d7c: 98 67        	ld	a4, 0x8(a5)
   12d7e: 14 ee        	sd	a3, 0x18(a2)
   12d80: 90 ea        	sd	a2, 0x10(a3)
   12d82: 13 67 17 00  	ori	a4, a4, 0x1
   12d86: 4a 85        	mv	a0, s2
   12d88: 98 e7        	sd	a4, 0x8(a5)
   12d8a: ef 00 a0 5a  	jal	0x13334 <__malloc_unlock>
   12d8e: 13 05 04 01  	addi	a0, s0, 0x10
   12d92: e6 60        	ld	ra, 0x58(sp)
   12d94: 46 64        	ld	s0, 0x50(sp)
   12d96: a6 64        	ld	s1, 0x48(sp)
   12d98: 06 69        	ld	s2, 0x40(sp)
   12d9a: e2 79        	ld	s3, 0x38(sp)
   12d9c: 25 61        	addi	sp, sp, 0x60
   12d9e: 82 80        	ret
   12da0: b7 07 00 80  	lui	a5, 0x80000
   12da4: c1 98        	andi	s1, s1, -0x10
   12da6: 93 c7 f7 ff  	not	a5, a5
   12daa: 63 eb 97 12  	bltu	a5, s1, 0x12ee0 <_malloc_r+0x1b0>
   12dae: 63 e9 b4 12  	bltu	s1, a1, 0x12ee0 <_malloc_r+0x1b0>
   12db2: ef 00 00 58  	jal	0x13332 <__malloc_lock>
   12db6: 93 07 70 1f  	li	a5, 0x1f7
   12dba: 63 f2 97 32  	bgeu	a5, s1, 0x130de <_malloc_r+0x3ae>
   12dbe: 93 d7 94 00  	srli	a5, s1, 0x9
   12dc2: 63 84 07 12  	beqz	a5, 0x12eea <_malloc_r+0x1ba>
   12dc6: 11 47        	li	a4, 0x4
   12dc8: 63 67 f7 26  	bltu	a4, a5, 0x13036 <_malloc_r+0x306>
   12dcc: 93 d7 64 00  	srli	a5, s1, 0x6
   12dd0: 9b 85 97 03  	addiw	a1, a5, 0x39
   12dd4: 1b 96 15 00  	slliw	a2, a1, 0x1
   12dd8: 1b 88 87 03  	addiw	a6, a5, 0x38
   12ddc: 0e 06        	slli	a2, a2, 0x3
   12dde: f1 69        	lui	s3, 0x1c
   12de0: 93 89 89 35  	addi	s3, s3, 0x358
   12de4: 4e 96        	add	a2, a2, s3
   12de6: 00 66        	ld	s0, 0x8(a2)
   12de8: 41 16        	addi	a2, a2, -0x10
   12dea: 63 01 86 02  	beq	a2, s0, 0x12e0c <_malloc_r+0xdc>
   12dee: 7d 45        	li	a0, 0x1f
   12df0: 39 a0        	j	0x12dfe <_malloc_r+0xce>
   12df2: 14 6c        	ld	a3, 0x18(s0)
   12df4: 63 58 07 1e  	bgez	a4, 0x12fe4 <_malloc_r+0x2b4>
   12df8: 63 0a d6 00  	beq	a2, a3, 0x12e0c <_malloc_r+0xdc>
   12dfc: 36 84        	mv	s0, a3
   12dfe: 1c 64        	ld	a5, 0x8(s0)
   12e00: f1 9b        	andi	a5, a5, -0x4
   12e02: 33 87 97 40  	sub	a4, a5, s1
   12e06: e3 56 e5 fe  	bge	a0, a4, 0x12df2 <_malloc_r+0xc2>
   12e0a: c2 85        	mv	a1, a6
   12e0c: 03 b4 09 02  	ld	s0, 0x20(s3)
   12e10: 71 68        	lui	a6, 0x1c
   12e12: 13 08 88 36  	addi	a6, a6, 0x368
   12e16: 63 04 04 1d  	beq	s0, a6, 0x12fde <_malloc_r+0x2ae>
   12e1a: 1c 64        	ld	a5, 0x8(s0)
   12e1c: fd 46        	li	a3, 0x1f
   12e1e: f1 9b        	andi	a5, a5, -0x4
   12e20: 33 87 97 40  	sub	a4, a5, s1
   12e24: 63 c6 e6 28  	blt	a3, a4, 0x130b0 <_malloc_r+0x380>
   12e28: 23 b4 09 03  	sd	a6, 0x28(s3)
   12e2c: 23 b0 09 03  	sd	a6, 0x20(s3)
   12e30: 63 55 07 26  	bgez	a4, 0x1309a <_malloc_r+0x36a>
   12e34: 13 07 f0 1f  	li	a4, 0x1ff
   12e38: 03 b5 89 00  	ld	a0, 0x8(s3)
   12e3c: 63 6b f7 1a  	bltu	a4, a5, 0x12ff2 <_malloc_r+0x2c2>
   12e40: 8d 83        	srli	a5, a5, 0x3
   12e42: 1b 87 17 00  	addiw	a4, a5, 0x1
   12e46: 1b 17 17 00  	slliw	a4, a4, 0x1
   12e4a: 0e 07        	slli	a4, a4, 0x3
   12e4c: 4e 97        	add	a4, a4, s3
   12e4e: 10 63        	ld	a2, 0x0(a4)
   12e50: 9b d7 27 40  	sraiw	a5, a5, 0x2
   12e54: 85 46        	li	a3, 0x1
   12e56: b3 97 f6 00  	sll	a5, a3, a5
   12e5a: 5d 8d        	or	a0, a0, a5
   12e5c: 93 07 07 ff  	addi	a5, a4, -0x10
   12e60: 1c ec        	sd	a5, 0x18(s0)
   12e62: 10 e8        	sd	a2, 0x10(s0)
   12e64: 23 b4 a9 00  	sd	a0, 0x8(s3)
   12e68: 00 e3        	sd	s0, 0x0(a4)
   12e6a: 00 ee        	sd	s0, 0x18(a2)
   12e6c: 9b d7 25 40  	sraiw	a5, a1, 0x2
   12e70: 05 46        	li	a2, 0x1
   12e72: 33 16 f6 00  	sll	a2, a2, a5
   12e76: 63 61 c5 08  	bltu	a0, a2, 0x12ef8 <_malloc_r+0x1c8>
   12e7a: b3 77 a6 00  	and	a5, a2, a0
   12e7e: 81 ef        	bnez	a5, 0x12e96 <_malloc_r+0x166>
   12e80: 06 06        	slli	a2, a2, 0x1
   12e82: f1 99        	andi	a1, a1, -0x4
   12e84: b3 77 a6 00  	and	a5, a2, a0
   12e88: 91 25        	addiw	a1, a1, 0x4
   12e8a: 91 e7        	bnez	a5, 0x12e96 <_malloc_r+0x166>
   12e8c: 06 06        	slli	a2, a2, 0x1
   12e8e: b3 77 a6 00  	and	a5, a2, a0
   12e92: 91 25        	addiw	a1, a1, 0x4
   12e94: e5 df        	beqz	a5, 0x12e8c <_malloc_r+0x15c>
   12e96: fd 48        	li	a7, 0x1f
   12e98: 1b 83 15 00  	addiw	t1, a1, 0x1
   12e9c: 1b 13 13 00  	slliw	t1, t1, 0x1
   12ea0: 0e 03        	slli	t1, t1, 0x3
   12ea2: 41 13        	addi	t1, t1, -0x10
   12ea4: 4e 93        	add	t1, t1, s3
   12ea6: 1a 85        	mv	a0, t1
   12ea8: 1c 6d        	ld	a5, 0x18(a0)
   12eaa: 2e 8e        	mv	t3, a1
   12eac: 63 06 f5 1a  	beq	a0, a5, 0x13058 <_malloc_r+0x328>
   12eb0: 98 67        	ld	a4, 0x8(a5)
   12eb2: 3e 84        	mv	s0, a5
   12eb4: 9c 6f        	ld	a5, 0x18(a5)
   12eb6: 71 9b        	andi	a4, a4, -0x4
   12eb8: b3 06 97 40  	sub	a3, a4, s1
   12ebc: 63 c5 d8 1a  	blt	a7, a3, 0x13066 <_malloc_r+0x336>
   12ec0: e3 c6 06 fe  	bltz	a3, 0x12eac <_malloc_r+0x17c>
   12ec4: 22 97        	add	a4, a4, s0
   12ec6: 14 67        	ld	a3, 0x8(a4)
   12ec8: 10 68        	ld	a2, 0x10(s0)
   12eca: 4a 85        	mv	a0, s2
   12ecc: 93 e6 16 00  	ori	a3, a3, 0x1
   12ed0: 14 e7        	sd	a3, 0x8(a4)
   12ed2: 1c ee        	sd	a5, 0x18(a2)
   12ed4: 90 eb        	sd	a2, 0x10(a5)
   12ed6: ef 00 e0 45  	jal	0x13334 <__malloc_unlock>
   12eda: 13 05 04 01  	addi	a0, s0, 0x10
   12ede: 55 bd        	j	0x12d92 <_malloc_r+0x62>
   12ee0: b1 47        	li	a5, 0xc
   12ee2: 23 20 f9 00  	sw	a5, 0x0(s2)
   12ee6: 01 45        	li	a0, 0x0
   12ee8: 6d b5        	j	0x12d92 <_malloc_r+0x62>
   12eea: 13 06 00 40  	li	a2, 0x400
   12eee: 93 05 00 04  	li	a1, 0x40
   12ef2: 13 08 f0 03  	li	a6, 0x3f
   12ef6: e5 b5        	j	0x12dde <_malloc_r+0xae>
   12ef8: 03 b4 09 01  	ld	s0, 0x10(s3)
   12efc: 56 f4        	sd	s5, 0x28(sp)
   12efe: 1c 64        	ld	a5, 0x8(s0)
   12f00: 93 fa c7 ff  	andi	s5, a5, -0x4
   12f04: 63 e7 9a 00  	bltu	s5, s1, 0x12f12 <_malloc_r+0x1e2>
   12f08: 33 87 9a 40  	sub	a4, s5, s1
   12f0c: fd 47        	li	a5, 0x1f
   12f0e: 63 c2 e7 0a  	blt	a5, a4, 0x12fb2 <_malloc_r+0x282>
   12f12: 66 e4        	sd	s9, 0x8(sp)
   12f14: 52 f8        	sd	s4, 0x30(sp)
   12f16: 03 b7 81 1d  	ld	a4, 0x1d8(gp)
   12f1a: 03 ba 81 23  	ld	s4, 0x238(gp)
   12f1e: 62 e8        	sd	s8, 0x10(sp)
   12f20: 5a f0        	sd	s6, 0x20(sp)
   12f22: fd 57        	li	a5, -0x1
   12f24: 33 0c 54 01  	add	s8, s0, s5
   12f28: 26 9a        	add	s4, s4, s1
   12f2a: 63 08 f7 2e  	beq	a4, a5, 0x1321a <_malloc_r+0x4ea>
   12f2e: 85 67        	lui	a5, 0x1
   12f30: fd 07        	addi	a5, a5, 0x1f
   12f32: 3e 9a        	add	s4, s4, a5
   12f34: fd 77        	lui	a5, 0xfffff
   12f36: 33 7a fa 00  	and	s4, s4, a5
   12f3a: d2 85        	mv	a1, s4
   12f3c: 4a 85        	mv	a0, s2
   12f3e: ef 30 f0 20  	jal	0x1694c <_sbrk_r>
   12f42: fd 57        	li	a5, -0x1
   12f44: 2a 8b        	mv	s6, a0
   12f46: 63 00 f5 36  	beq	a0, a5, 0x132a6 <_malloc_r+0x576>
   12f4a: 5e ec        	sd	s7, 0x18(sp)
   12f4c: 63 6c 85 1b  	bltu	a0, s8, 0x13104 <_malloc_r+0x3d4>
   12f50: 93 8b 01 4c  	addi	s7, gp, 0x4c0
   12f54: 83 a7 0b 00  	lw	a5, 0x0(s7)
   12f58: 3b 87 47 01  	addw	a4, a5, s4
   12f5c: 23 a0 eb 00  	sw	a4, 0x0(s7)
   12f60: ba 86        	mv	a3, a4
   12f62: 63 17 ac 20  	bne	s8, a0, 0x13170 <_malloc_r+0x440>
   12f66: 93 17 45 03  	slli	a5, a0, 0x34
   12f6a: 63 93 07 20  	bnez	a5, 0x13170 <_malloc_r+0x440>
   12f6e: 03 bb 09 01  	ld	s6, 0x10(s3)
   12f72: b3 87 4a 01  	add	a5, s5, s4
   12f76: 93 e7 17 00  	ori	a5, a5, 0x1
   12f7a: 23 34 fb 00  	sd	a5, 0x8(s6)
   12f7e: 03 b6 01 23  	ld	a2, 0x230(gp)
   12f82: 63 74 e6 00  	bgeu	a2, a4, 0x12f8a <_malloc_r+0x25a>
   12f86: 23 b8 e1 22  	sd	a4, 0x230(gp)
   12f8a: 03 b6 81 22  	ld	a2, 0x228(gp)
   12f8e: 63 74 e6 00  	bgeu	a2, a4, 0x12f96 <_malloc_r+0x266>
   12f92: 23 b4 e1 22  	sd	a4, 0x228(gp)
   12f96: e2 6b        	ld	s7, 0x18(sp)
   12f98: 5a 84        	mv	s0, s6
   12f9a: f1 9b        	andi	a5, a5, -0x4
   12f9c: 33 87 97 40  	sub	a4, a5, s1
   12fa0: 63 ed 97 2a  	bltu	a5, s1, 0x1325a <_malloc_r+0x52a>
   12fa4: fd 47        	li	a5, 0x1f
   12fa6: 63 da e7 2a  	bge	a5, a4, 0x1325a <_malloc_r+0x52a>
   12faa: 42 7a        	ld	s4, 0x30(sp)
   12fac: 02 7b        	ld	s6, 0x20(sp)
   12fae: 42 6c        	ld	s8, 0x10(sp)
   12fb0: a2 6c        	ld	s9, 0x8(sp)
   12fb2: 93 e7 14 00  	ori	a5, s1, 0x1
   12fb6: 1c e4        	sd	a5, 0x8(s0)
   12fb8: a2 94        	add	s1, s1, s0
   12fba: 23 b8 99 00  	sd	s1, 0x10(s3)
   12fbe: 13 67 17 00  	ori	a4, a4, 0x1
   12fc2: 4a 85        	mv	a0, s2
   12fc4: 98 e4        	sd	a4, 0x8(s1)
   12fc6: ef 00 e0 36  	jal	0x13334 <__malloc_unlock>
   12fca: e6 60        	ld	ra, 0x58(sp)
   12fcc: 13 05 04 01  	addi	a0, s0, 0x10
   12fd0: 46 64        	ld	s0, 0x50(sp)
   12fd2: a2 7a        	ld	s5, 0x28(sp)
   12fd4: a6 64        	ld	s1, 0x48(sp)
   12fd6: 06 69        	ld	s2, 0x40(sp)
   12fd8: e2 79        	ld	s3, 0x38(sp)
   12fda: 25 61        	addi	sp, sp, 0x60
   12fdc: 82 80        	ret
   12fde: 03 b5 89 00  	ld	a0, 0x8(s3)
   12fe2: 69 b5        	j	0x12e6c <_malloc_r+0x13c>
   12fe4: 10 68        	ld	a2, 0x10(s0)
   12fe6: 51 bb        	j	0x12d7a <_malloc_r+0x4a>
   12fe8: 80 6f        	ld	s0, 0x18(a5)
   12fea: 89 25        	addiw	a1, a1, 0x2
   12fec: e3 80 87 e2  	beq	a5, s0, 0x12e0c <_malloc_r+0xdc>
   12ff0: 49 b3        	j	0x12d72 <_malloc_r+0x42>
   12ff2: 13 d7 97 00  	srli	a4, a5, 0x9
   12ff6: 91 46        	li	a3, 0x4
   12ff8: 63 fc e6 0e  	bgeu	a3, a4, 0x130f0 <_malloc_r+0x3c0>
   12ffc: d1 46        	li	a3, 0x14
   12ffe: 63 e8 e6 26  	bltu	a3, a4, 0x1326e <_malloc_r+0x53e>
   13002: 1b 06 c7 05  	addiw	a2, a4, 0x5c
   13006: 1b 16 16 00  	slliw	a2, a2, 0x1
   1300a: 9b 06 b7 05  	addiw	a3, a4, 0x5b
   1300e: 0e 06        	slli	a2, a2, 0x3
   13010: 4e 96        	add	a2, a2, s3
   13012: 18 62        	ld	a4, 0x0(a2)
   13014: 41 16        	addi	a2, a2, -0x10
   13016: 63 16 e6 00  	bne	a2, a4, 0x13022 <_malloc_r+0x2f2>
   1301a: 19 a4        	j	0x13220 <_malloc_r+0x4f0>
   1301c: 18 6b        	ld	a4, 0x10(a4)
   1301e: 63 06 e6 00  	beq	a2, a4, 0x1302a <_malloc_r+0x2fa>
   13022: 14 67        	ld	a3, 0x8(a4)
   13024: f1 9a        	andi	a3, a3, -0x4
   13026: e3 eb d7 fe  	bltu	a5, a3, 0x1301c <_malloc_r+0x2ec>
   1302a: 10 6f        	ld	a2, 0x18(a4)
   1302c: 10 ec        	sd	a2, 0x18(s0)
   1302e: 18 e8        	sd	a4, 0x10(s0)
   13030: 00 ea        	sd	s0, 0x10(a2)
   13032: 00 ef        	sd	s0, 0x18(a4)
   13034: 25 bd        	j	0x12e6c <_malloc_r+0x13c>
   13036: 51 47        	li	a4, 0x14
   13038: 63 7d f7 0c  	bgeu	a4, a5, 0x13112 <_malloc_r+0x3e2>
   1303c: 13 07 40 05  	li	a4, 0x54
   13040: 63 65 f7 24  	bltu	a4, a5, 0x1328a <_malloc_r+0x55a>
   13044: 93 d7 c4 00  	srli	a5, s1, 0xc
   13048: 9b 85 f7 06  	addiw	a1, a5, 0x6f
   1304c: 1b 96 15 00  	slliw	a2, a1, 0x1
   13050: 1b 88 e7 06  	addiw	a6, a5, 0x6e
   13054: 0e 06        	slli	a2, a2, 0x3
   13056: 61 b3        	j	0x12dde <_malloc_r+0xae>
   13058: 05 2e        	addiw	t3, t3, 0x1
   1305a: 93 77 3e 00  	andi	a5, t3, 0x3
   1305e: 41 05        	addi	a0, a0, 0x10
   13060: f1 c7        	beqz	a5, 0x1312c <_malloc_r+0x3fc>
   13062: 1c 6d        	ld	a5, 0x18(a0)
   13064: a1 b5        	j	0x12eac <_malloc_r+0x17c>
   13066: 10 68        	ld	a2, 0x10(s0)
   13068: 93 e5 14 00  	ori	a1, s1, 0x1
   1306c: 0c e4        	sd	a1, 0x8(s0)
   1306e: 1c ee        	sd	a5, 0x18(a2)
   13070: 90 eb        	sd	a2, 0x10(a5)
   13072: a2 94        	add	s1, s1, s0
   13074: 23 b4 99 02  	sd	s1, 0x28(s3)
   13078: 23 b0 99 02  	sd	s1, 0x20(s3)
   1307c: 93 e7 16 00  	ori	a5, a3, 0x1
   13080: 23 bc 04 01  	sd	a6, 0x18(s1)
   13084: 23 b8 04 01  	sd	a6, 0x10(s1)
   13088: 9c e4        	sd	a5, 0x8(s1)
   1308a: 22 97        	add	a4, a4, s0
   1308c: 4a 85        	mv	a0, s2
   1308e: 14 e3        	sd	a3, 0x0(a4)
   13090: ef 00 40 2a  	jal	0x13334 <__malloc_unlock>
   13094: 13 05 04 01  	addi	a0, s0, 0x10
   13098: ed b9        	j	0x12d92 <_malloc_r+0x62>
   1309a: a2 97        	add	a5, a5, s0
   1309c: 98 67        	ld	a4, 0x8(a5)
   1309e: 4a 85        	mv	a0, s2
   130a0: 13 67 17 00  	ori	a4, a4, 0x1
   130a4: 98 e7        	sd	a4, 0x8(a5)
   130a6: ef 00 e0 28  	jal	0x13334 <__malloc_unlock>
   130aa: 13 05 04 01  	addi	a0, s0, 0x10
   130ae: d5 b1        	j	0x12d92 <_malloc_r+0x62>
   130b0: 93 e6 14 00  	ori	a3, s1, 0x1
   130b4: 14 e4        	sd	a3, 0x8(s0)
   130b6: a2 94        	add	s1, s1, s0
   130b8: 23 b4 99 02  	sd	s1, 0x28(s3)
   130bc: 23 b0 99 02  	sd	s1, 0x20(s3)
   130c0: 93 66 17 00  	ori	a3, a4, 0x1
   130c4: 23 bc 04 01  	sd	a6, 0x18(s1)
   130c8: 23 b8 04 01  	sd	a6, 0x10(s1)
   130cc: 94 e4        	sd	a3, 0x8(s1)
   130ce: a2 97        	add	a5, a5, s0
   130d0: 4a 85        	mv	a0, s2
   130d2: 98 e3        	sd	a4, 0x0(a5)
   130d4: ef 00 00 26  	jal	0x13334 <__malloc_unlock>
   130d8: 13 05 04 01  	addi	a0, s0, 0x10
   130dc: 5d b9        	j	0x12d92 <_malloc_r+0x62>
   130de: 93 d5 34 00  	srli	a1, s1, 0x3
   130e2: 9b 87 15 00  	addiw	a5, a1, 0x1
   130e6: 9b 97 17 00  	slliw	a5, a5, 0x1
   130ea: 81 25        	sext.w	a1, a1
   130ec: 8e 07        	slli	a5, a5, 0x3
   130ee: 8d b9        	j	0x12d60 <_malloc_r+0x30>
   130f0: 13 d7 67 00  	srli	a4, a5, 0x6
   130f4: 1b 06 97 03  	addiw	a2, a4, 0x39
   130f8: 1b 16 16 00  	slliw	a2, a2, 0x1
   130fc: 9b 06 87 03  	addiw	a3, a4, 0x38
   13100: 0e 06        	slli	a2, a2, 0x3
   13102: 39 b7        	j	0x13010 <_malloc_r+0x2e0>
   13104: 63 0e 34 05  	beq	s0, s3, 0x13160 <_malloc_r+0x430>
   13108: 03 b4 09 01  	ld	s0, 0x10(s3)
   1310c: e2 6b        	ld	s7, 0x18(sp)
   1310e: 1c 64        	ld	a5, 0x8(s0)
   13110: 69 b5        	j	0x12f9a <_malloc_r+0x26a>
   13112: 9b 85 c7 05  	addiw	a1, a5, 0x5c
   13116: 1b 96 15 00  	slliw	a2, a1, 0x1
   1311a: 1b 88 b7 05  	addiw	a6, a5, 0x5b
   1311e: 0e 06        	slli	a2, a2, 0x3
   13120: 7d b9        	j	0x12dde <_malloc_r+0xae>
   13122: 83 37 03 01  	ld	a5, 0x10(t1)
   13126: fd 35        	addiw	a1, a1, -0x1
   13128: 63 92 67 20  	bne	a5, t1, 0x1332c <_malloc_r+0x5fc>
   1312c: 93 f7 35 00  	andi	a5, a1, 0x3
   13130: 41 13        	addi	t1, t1, -0x10
   13132: e5 fb        	bnez	a5, 0x13122 <_malloc_r+0x3f2>
   13134: 03 b7 89 00  	ld	a4, 0x8(s3)
   13138: 93 47 f6 ff  	not	a5, a2
   1313c: f9 8f        	and	a5, a5, a4
   1313e: 23 b4 f9 00  	sd	a5, 0x8(s3)
   13142: 06 06        	slli	a2, a2, 0x1
   13144: e3 ea c7 da  	bltu	a5, a2, 0x12ef8 <_malloc_r+0x1c8>
   13148: e3 08 06 da  	beqz	a2, 0x12ef8 <_malloc_r+0x1c8>
   1314c: 33 77 f6 00  	and	a4, a2, a5
   13150: 11 e7        	bnez	a4, 0x1315c <_malloc_r+0x42c>
   13152: 06 06        	slli	a2, a2, 0x1
   13154: 33 77 f6 00  	and	a4, a2, a5
   13158: 11 2e        	addiw	t3, t3, 0x4
   1315a: 65 df        	beqz	a4, 0x13152 <_malloc_r+0x422>
   1315c: f2 85        	mv	a1, t3
   1315e: 2d bb        	j	0x12e98 <_malloc_r+0x168>
   13160: 93 8b 01 4c  	addi	s7, gp, 0x4c0
   13164: 83 a7 0b 00  	lw	a5, 0x0(s7)
   13168: bb 86 47 01  	addw	a3, a5, s4
   1316c: 23 a0 db 00  	sw	a3, 0x0(s7)
   13170: 03 b7 81 1d  	ld	a4, 0x1d8(gp)
   13174: fd 57        	li	a5, -0x1
   13176: 63 0c f7 12  	beq	a4, a5, 0x132ae <_malloc_r+0x57e>
   1317a: b3 07 8b 41  	sub	a5, s6, s8
   1317e: b5 9f        	addw	a5, a5, a3
   13180: 23 a0 fb 00  	sw	a5, 0x0(s7)
   13184: 93 7c fb 00  	andi	s9, s6, 0xf
   13188: 63 85 0c 0a  	beqz	s9, 0x13232 <_malloc_r+0x502>
   1318c: 33 0b 9b 41  	sub	s6, s6, s9
   13190: 05 67        	lui	a4, 0x1
   13192: 41 07        	addi	a4, a4, 0x10
   13194: 41 0b        	addi	s6, s6, 0x10
   13196: 33 0c 97 41  	sub	s8, a4, s9
   1319a: 5a 9a        	add	s4, s4, s6
   1319c: 33 0c 4c 41  	sub	s8, s8, s4
   131a0: 52 1c        	slli	s8, s8, 0x34
   131a2: 13 5c 4c 03  	srli	s8, s8, 0x34
   131a6: e2 85        	mv	a1, s8
   131a8: 4a 85        	mv	a0, s2
   131aa: ef 30 20 7a  	jal	0x1694c <_sbrk_r>
   131ae: fd 57        	li	a5, -0x1
   131b0: 63 0e f5 12  	beq	a0, a5, 0x132ec <_malloc_r+0x5bc>
   131b4: 33 05 65 41  	sub	a0, a0, s6
   131b8: 9b 06 0c 00  	sext.w	a3, s8
   131bc: 33 0a 85 01  	add	s4, a0, s8
   131c0: 03 a7 0b 00  	lw	a4, 0x0(s7)
   131c4: 23 b8 69 01  	sd	s6, 0x10(s3)
   131c8: 93 67 1a 00  	ori	a5, s4, 0x1
   131cc: 35 9f        	addw	a4, a4, a3
   131ce: 23 a0 eb 00  	sw	a4, 0x0(s7)
   131d2: 23 34 fb 00  	sd	a5, 0x8(s6)
   131d6: e3 04 34 db  	beq	s0, s3, 0x12f7e <_malloc_r+0x24e>
   131da: 7d 46        	li	a2, 0x1f
   131dc: 63 7b 56 07  	bgeu	a2, s5, 0x13252 <_malloc_r+0x522>
   131e0: 14 64        	ld	a3, 0x8(s0)
   131e2: 93 87 8a fe  	addi	a5, s5, -0x18
   131e6: c1 9b        	andi	a5, a5, -0x10
   131e8: 85 8a        	andi	a3, a3, 0x1
   131ea: dd 8e        	or	a3, a3, a5
   131ec: 14 e4        	sd	a3, 0x8(s0)
   131ee: a5 45        	li	a1, 0x9
   131f0: b3 06 f4 00  	add	a3, s0, a5
   131f4: 8c e6        	sd	a1, 0x8(a3)
   131f6: 8c ea        	sd	a1, 0x10(a3)
   131f8: 63 65 f6 00  	bltu	a2, a5, 0x13202 <_malloc_r+0x4d2>
   131fc: 83 37 8b 00  	ld	a5, 0x8(s6)
   13200: bd bb        	j	0x12f7e <_malloc_r+0x24e>
   13202: 93 05 04 01  	addi	a1, s0, 0x10
   13206: 4a 85        	mv	a0, s2
   13208: ef f0 5f 8e  	jal	0x12aec <_free_r>
   1320c: 03 bb 09 01  	ld	s6, 0x10(s3)
   13210: 03 a7 0b 00  	lw	a4, 0x0(s7)
   13214: 83 37 8b 00  	ld	a5, 0x8(s6)
   13218: 9d b3        	j	0x12f7e <_malloc_r+0x24e>
   1321a: 13 0a 0a 02  	addi	s4, s4, 0x20
   1321e: 31 bb        	j	0x12f3a <_malloc_r+0x20a>
   13220: 9b d6 26 40  	sraiw	a3, a3, 0x2
   13224: 85 47        	li	a5, 0x1
   13226: b3 97 d7 00  	sll	a5, a5, a3
   1322a: 5d 8d        	or	a0, a0, a5
   1322c: 23 b4 a9 00  	sd	a0, 0x8(s3)
   13230: f5 bb        	j	0x1302c <_malloc_r+0x2fc>
   13232: 33 0c 4b 01  	add	s8, s6, s4
   13236: 33 0c 80 41  	neg	s8, s8
   1323a: 52 1c        	slli	s8, s8, 0x34
   1323c: 13 5c 4c 03  	srli	s8, s8, 0x34
   13240: e2 85        	mv	a1, s8
   13242: 4a 85        	mv	a0, s2
   13244: ef 30 80 70  	jal	0x1694c <_sbrk_r>
   13248: fd 57        	li	a5, -0x1
   1324a: 81 46        	li	a3, 0x0
   1324c: e3 14 f5 f6  	bne	a0, a5, 0x131b4 <_malloc_r+0x484>
   13250: 85 bf        	j	0x131c0 <_malloc_r+0x490>
   13252: e2 6b        	ld	s7, 0x18(sp)
   13254: 85 47        	li	a5, 0x1
   13256: 23 34 fb 00  	sd	a5, 0x8(s6)
   1325a: 4a 85        	mv	a0, s2
   1325c: ef 00 80 0d  	jal	0x13334 <__malloc_unlock>
   13260: 01 45        	li	a0, 0x0
   13262: 42 7a        	ld	s4, 0x30(sp)
   13264: a2 7a        	ld	s5, 0x28(sp)
   13266: 02 7b        	ld	s6, 0x20(sp)
   13268: 42 6c        	ld	s8, 0x10(sp)
   1326a: a2 6c        	ld	s9, 0x8(sp)
   1326c: 1d b6        	j	0x12d92 <_malloc_r+0x62>
   1326e: 93 06 40 05  	li	a3, 0x54
   13272: 63 e1 e6 04  	bltu	a3, a4, 0x132b4 <_malloc_r+0x584>
   13276: 13 d7 c7 00  	srli	a4, a5, 0xc
   1327a: 1b 06 f7 06  	addiw	a2, a4, 0x6f
   1327e: 1b 16 16 00  	slliw	a2, a2, 0x1
   13282: 9b 06 e7 06  	addiw	a3, a4, 0x6e
   13286: 0e 06        	slli	a2, a2, 0x3
   13288: 61 b3        	j	0x13010 <_malloc_r+0x2e0>
   1328a: 13 07 40 15  	li	a4, 0x154
   1328e: 63 61 f7 04  	bltu	a4, a5, 0x132d0 <_malloc_r+0x5a0>
   13292: 93 d7 f4 00  	srli	a5, s1, 0xf
   13296: 9b 85 87 07  	addiw	a1, a5, 0x78
   1329a: 1b 96 15 00  	slliw	a2, a1, 0x1
   1329e: 1b 88 77 07  	addiw	a6, a5, 0x77
   132a2: 0e 06        	slli	a2, a2, 0x3
   132a4: 2d be        	j	0x12dde <_malloc_r+0xae>
   132a6: 03 b4 09 01  	ld	s0, 0x10(s3)
   132aa: 1c 64        	ld	a5, 0x8(s0)
   132ac: fd b1        	j	0x12f9a <_malloc_r+0x26a>
   132ae: 23 bc 61 1d  	sd	s6, 0x1d8(gp)
   132b2: c9 bd        	j	0x13184 <_malloc_r+0x454>
   132b4: 93 06 40 15  	li	a3, 0x154
   132b8: 63 e0 e6 04  	bltu	a3, a4, 0x132f8 <_malloc_r+0x5c8>
   132bc: 13 d7 f7 00  	srli	a4, a5, 0xf
   132c0: 1b 06 87 07  	addiw	a2, a4, 0x78
   132c4: 1b 16 16 00  	slliw	a2, a2, 0x1
   132c8: 9b 06 77 07  	addiw	a3, a4, 0x77
   132cc: 0e 06        	slli	a2, a2, 0x3
   132ce: 89 b3        	j	0x13010 <_malloc_r+0x2e0>
   132d0: 13 07 40 55  	li	a4, 0x554
   132d4: 63 60 f7 04  	bltu	a4, a5, 0x13314 <_malloc_r+0x5e4>
   132d8: 93 d7 24 01  	srli	a5, s1, 0x12
   132dc: 9b 85 d7 07  	addiw	a1, a5, 0x7d
   132e0: 1b 96 15 00  	slliw	a2, a1, 0x1
   132e4: 1b 88 c7 07  	addiw	a6, a5, 0x7c
   132e8: 0e 06        	slli	a2, a2, 0x3
   132ea: d5 bc        	j	0x12dde <_malloc_r+0xae>
   132ec: c1 1c        	addi	s9, s9, -0x10
   132ee: 66 9a        	add	s4, s4, s9
   132f0: 33 0a 6a 41  	sub	s4, s4, s6
   132f4: 81 46        	li	a3, 0x0
   132f6: e9 b5        	j	0x131c0 <_malloc_r+0x490>
   132f8: 93 06 40 55  	li	a3, 0x554
   132fc: 63 e3 e6 02  	bltu	a3, a4, 0x13322 <_malloc_r+0x5f2>
   13300: 13 d7 27 01  	srli	a4, a5, 0x12
   13304: 1b 06 d7 07  	addiw	a2, a4, 0x7d
   13308: 1b 16 16 00  	slliw	a2, a2, 0x1
   1330c: 9b 06 c7 07  	addiw	a3, a4, 0x7c
   13310: 0e 06        	slli	a2, a2, 0x3
   13312: fd b9        	j	0x13010 <_malloc_r+0x2e0>
   13314: 13 06 00 7f  	li	a2, 0x7f0
   13318: 93 05 f0 07  	li	a1, 0x7f
   1331c: 13 08 e0 07  	li	a6, 0x7e
   13320: 7d bc        	j	0x12dde <_malloc_r+0xae>
   13322: 13 06 00 7f  	li	a2, 0x7f0
   13326: 93 06 e0 07  	li	a3, 0x7e
   1332a: dd b1        	j	0x13010 <_malloc_r+0x2e0>
   1332c: 83 b7 89 00  	ld	a5, 0x8(s3)
   13330: 09 bd        	j	0x13142 <_malloc_r+0x412>

0000000000013332 <__malloc_lock>:
   13332: 82 80        	ret

0000000000013334 <__malloc_unlock>:
   13334: 82 80        	ret

0000000000013336 <_vfprintf_r>:
   13336: 13 01 01 db  	addi	sp, sp, -0x250
   1333a: 23 34 11 24  	sd	ra, 0x248(sp)
   1333e: 23 30 81 24  	sd	s0, 0x240(sp)
   13342: 23 38 21 23  	sd	s2, 0x230(sp)
   13346: e6 ff        	sd	s9, 0x1f8(sp)
   13348: 2e 89        	mv	s2, a1
   1334a: b2 8c        	mv	s9, a2
   1334c: 36 f0        	sd	a3, 0x20(sp)
   1334e: 2a 84        	mv	s0, a0
   13350: 2a e4        	sd	a0, 0x8(sp)
   13352: ef 30 e0 5e  	jal	0x16940 <_localeconv_r>
   13356: 1c 61        	ld	a5, 0x0(a0)
   13358: 3e 85        	mv	a0, a5
   1335a: be ec        	sd	a5, 0x58(sp)
   1335c: ef f0 2f d4  	jal	0x1289e <strlen>
   13360: aa e8        	sd	a0, 0x50(sp)
   13362: 82 e9        	sd	zero, 0xd0(sp)
   13364: 82 ed        	sd	zero, 0xd8(sp)
   13366: 09 c4        	beqz	s0, 0x13370 <_vfprintf_r+0x3a>
   13368: 38 64        	ld	a4, 0x48(s0)
   1336a: 19 e3        	bnez	a4, 0x13370 <_vfprintf_r+0x3a>
   1336c: 6f 10 c0 21  	j	0x14588 <_vfprintf_r+0x1252>
   13370: 03 17 09 01  	lh	a4, 0x10(s2)
   13374: 93 16 27 03  	slli	a3, a4, 0x32
   13378: 63 c1 06 02  	bltz	a3, 0x1339a <_vfprintf_r+0x64>
   1337c: 83 26 c9 0a  	lw	a3, 0xac(s2)
   13380: 89 65        	lui	a1, 0x2
   13382: 79 76        	lui	a2, 0xffffe
   13384: 4d 8f        	or	a4, a4, a1
   13386: 7d 16        	addi	a2, a2, -0x1
   13388: 1b 17 07 01  	slliw	a4, a4, 0x10
   1338c: 1b 57 07 41  	sraiw	a4, a4, 0x10
   13390: f1 8e        	and	a3, a3, a2
   13392: 23 18 e9 00  	sh	a4, 0x10(s2)
   13396: 23 26 d9 0a  	sw	a3, 0xac(s2)
   1339a: 93 76 87 00  	andi	a3, a4, 0x8
   1339e: 63 8e 06 24  	beqz	a3, 0x135fa <_vfprintf_r+0x2c4>
   133a2: 83 36 89 01  	ld	a3, 0x18(s2)
   133a6: 63 8a 06 24  	beqz	a3, 0x135fa <_vfprintf_r+0x2c4>
   133aa: 69 8b        	andi	a4, a4, 0x1a
   133ac: a9 46        	li	a3, 0xa
   133ae: 63 03 d7 26  	beq	a4, a3, 0x13614 <_vfprintf_r+0x2de>
   133b2: 23 30 41 23  	sd	s4, 0x220(sp)
   133b6: 23 3c 51 21  	sd	s5, 0x218(sp)
   133ba: ea fb        	sd	s10, 0x1f0(sp)
   133bc: 6d 67        	lui	a4, 0x1b
   133be: 23 3c 91 22  	sd	s1, 0x238(sp)
   133c2: 23 34 31 23  	sd	s3, 0x228(sp)
   133c6: 23 38 61 21  	sd	s6, 0x210(sp)
   133ca: 23 34 71 21  	sd	s7, 0x208(sp)
   133ce: 23 30 81 21  	sd	s8, 0x200(sp)
   133d2: ee f7        	sd	s11, 0x1e8(sp)
   133d4: 66 8d        	mv	s10, s9
   133d6: 93 07 47 5c  	addi	a5, a4, 0x5c4
   133da: 03 47 0d 00  	lbu	a4, 0x0(s10)
   133de: 13 0a 01 16  	addi	s4, sp, 0x160
   133e2: ed 6a        	lui	s5, 0x1b
   133e4: d2 f1        	sd	s4, 0xe0(sp)
   133e6: 82 f9        	sd	zero, 0xf0(sp)
   133e8: 82 d5        	sw	zero, 0xe8(sp)
   133ea: 02 fc        	sd	zero, 0x38(sp)
   133ec: 82 f0        	sd	zero, 0x60(sp)
   133ee: 82 f8        	sd	zero, 0x70(sp)
   133f0: 02 e1        	sd	zero, 0x80(sp)
   133f2: 02 e5        	sd	zero, 0x88(sp)
   133f4: 82 fc        	sd	zero, 0x78(sp)
   133f6: 02 e8        	sd	zero, 0x10(sp)
   133f8: 3e f4        	sd	a5, 0x28(sp)
   133fa: 52 84        	mv	s0, s4
   133fc: 93 8a 0a 73  	addi	s5, s5, 0x730
   13400: 63 01 07 1a  	beqz	a4, 0x135a2 <_vfprintf_r+0x26c>
   13404: ea 89        	mv	s3, s10
   13406: 93 06 50 02  	li	a3, 0x25
   1340a: 63 0d d7 2c  	beq	a4, a3, 0x136e4 <_vfprintf_r+0x3ae>
   1340e: 03 c7 19 00  	lbu	a4, 0x1(s3)
   13412: 85 09        	addi	s3, s3, 0x1
   13414: 7d fb        	bnez	a4, 0x1340a <_vfprintf_r+0xd4>
   13416: bb 84 a9 41  	subw	s1, s3, s10
   1341a: 63 84 04 18  	beqz	s1, 0x135a2 <_vfprintf_r+0x26c>
   1341e: 2e 57        	lw	a4, 0xe8(sp)
   13420: ce 76        	ld	a3, 0xf0(sp)
   13422: 23 30 a4 01  	sd	s10, 0x0(s0)
   13426: 05 27        	addiw	a4, a4, 0x1
   13428: a6 96        	add	a3, a3, s1
   1342a: 04 e4        	sd	s1, 0x8(s0)
   1342c: b6 f9        	sd	a3, 0xf0(sp)
   1342e: ba d5        	sw	a4, 0xe8(sp)
   13430: 9b 06 07 00  	sext.w	a3, a4
   13434: 1d 47        	li	a4, 0x7
   13436: 41 04        	addi	s0, s0, 0x10
   13438: 63 4d d7 2a  	blt	a4, a3, 0x136f2 <_vfprintf_r+0x3bc>
   1343c: c2 67        	ld	a5, 0x10(sp)
   1343e: 03 c7 09 00  	lbu	a4, 0x0(s3)
   13442: a5 9f        	addw	a5, a5, s1
   13444: 3e e8        	sd	a5, 0x10(sp)
   13446: 63 0e 07 14  	beqz	a4, 0x135a2 <_vfprintf_r+0x26c>
   1344a: 03 c3 19 00  	lbu	t1, 0x1(s3)
   1344e: a3 07 01 0a  	sb	zero, 0xaf(sp)
   13452: 85 09        	addi	s3, s3, 0x1
   13454: 7d 5b        	li	s6, -0x1
   13456: 81 4b        	li	s7, 0x0
   13458: 81 4d        	li	s11, 0x0
   1345a: 93 04 a0 05  	li	s1, 0x5a
   1345e: 85 09        	addi	s3, s3, 0x1
   13460: 01 23        	sext.w	t1, t1
   13462: 9b 07 03 fe  	addiw	a5, t1, -0x20
   13466: 1b 87 07 00  	sext.w	a4, a5
   1346a: 63 e5 e4 04  	bltu	s1, a4, 0x134b4 <_vfprintf_r+0x17e>
   1346e: 13 97 07 02  	slli	a4, a5, 0x20
   13472: 93 57 e7 01  	srli	a5, a4, 0x1e
   13476: 22 77        	ld	a4, 0x28(sp)
   13478: ba 97        	add	a5, a5, a4
   1347a: 9c 43        	lw	a5, 0x0(a5)
   1347c: 82 87        	jr	a5
   1347e: 81 4b        	li	s7, 0x0
   13480: a5 46        	li	a3, 0x9
   13482: 03 c7 09 00  	lbu	a4, 0x0(s3)
   13486: 9b 97 2b 00  	slliw	a5, s7, 0x2
   1348a: bb 8b 77 01  	addw	s7, a5, s7
   1348e: 1b 03 03 fd  	addiw	t1, t1, -0x30
   13492: 9b 9b 1b 00  	slliw	s7, s7, 0x1
   13496: 9b 07 07 fd  	addiw	a5, a4, -0x30
   1349a: bb 0b 73 01  	addw	s7, t1, s7
   1349e: 85 09        	addi	s3, s3, 0x1
   134a0: 1b 03 07 00  	sext.w	t1, a4
   134a4: e3 ff f6 fc  	bgeu	a3, a5, 0x13482 <_vfprintf_r+0x14c>
   134a8: 9b 07 03 fe  	addiw	a5, t1, -0x20
   134ac: 1b 87 07 00  	sext.w	a4, a5
   134b0: e3 ff e4 fa  	bgeu	s1, a4, 0x1346e <_vfprintf_r+0x138>
   134b4: 63 07 03 0e  	beqz	t1, 0x135a2 <_vfprintf_r+0x26c>
   134b8: 23 0c 61 0e  	sb	t1, 0xf8(sp)
   134bc: a3 07 01 0a  	sb	zero, 0xaf(sp)
   134c0: 05 4c        	li	s8, 0x1
   134c2: 85 46        	li	a3, 0x1
   134c4: 13 0d 81 0f  	addi	s10, sp, 0xf8
   134c8: 02 ec        	sd	zero, 0x18(sp)
   134ca: 01 4b        	li	s6, 0x0
   134cc: 82 e4        	sd	zero, 0x48(sp)
   134ce: 82 e0        	sd	zero, 0x40(sp)
   134d0: 02 f8        	sd	zero, 0x30(sp)
   134d2: 93 f2 2d 00  	andi	t0, s11, 0x2
   134d6: 63 83 02 00  	beqz	t0, 0x134dc <_vfprintf_r+0x1a6>
   134da: 09 2c        	addiw	s8, s8, 0x2
   134dc: 93 fc 4d 08  	andi	s9, s11, 0x84
   134e0: ce 74        	ld	s1, 0xf0(sp)
   134e2: 63 96 0c 00  	bnez	s9, 0x134ee <_vfprintf_r+0x1b8>
   134e6: 3b 87 8b 41  	subw	a4, s7, s8
   134ea: e3 44 e0 2e  	bgtz	a4, 0x13fd2 <_vfprintf_r+0xc9c>
   134ee: 03 47 f1 0a  	lbu	a4, 0xaf(sp)
   134f2: 0d c3        	beqz	a4, 0x13514 <_vfprintf_r+0x1de>
   134f4: 2e 57        	lw	a4, 0xe8(sp)
   134f6: 13 06 f1 0a  	addi	a2, sp, 0xaf
   134fa: 10 e0        	sd	a2, 0x0(s0)
   134fc: 05 27        	addiw	a4, a4, 0x1
   134fe: 05 46        	li	a2, 0x1
   13500: 85 04        	addi	s1, s1, 0x1
   13502: 10 e4        	sd	a2, 0x8(s0)
   13504: ba d5        	sw	a4, 0xe8(sp)
   13506: 1b 06 07 00  	sext.w	a2, a4
   1350a: a6 f9        	sd	s1, 0xf0(sp)
   1350c: 1d 47        	li	a4, 0x7
   1350e: 41 04        	addi	s0, s0, 0x10
   13510: 63 4b c7 4e  	blt	a4, a2, 0x13a06 <_vfprintf_r+0x6d0>
   13514: 63 81 02 02  	beqz	t0, 0x13536 <_vfprintf_r+0x200>
   13518: 2e 57        	lw	a4, 0xe8(sp)
   1351a: 09 46        	li	a2, 0x2
   1351c: 89 04        	addi	s1, s1, 0x2
   1351e: 05 27        	addiw	a4, a4, 0x1
   13520: 1c 19        	addi	a5, sp, 0xb0
   13522: 10 e4        	sd	a2, 0x8(s0)
   13524: 1c e0        	sd	a5, 0x0(s0)
   13526: 1b 06 07 00  	sext.w	a2, a4
   1352a: ba d5        	sw	a4, 0xe8(sp)
   1352c: a6 f9        	sd	s1, 0xf0(sp)
   1352e: 1d 47        	li	a4, 0x7
   13530: 41 04        	addi	s0, s0, 0x10
   13532: e3 4f c7 32  	blt	a4, a2, 0x14070 <_vfprintf_r+0xd3a>
   13536: 13 07 00 08  	li	a4, 0x80
   1353a: e3 8c ec 10  	beq	s9, a4, 0x13e52 <_vfprintf_r+0xb1c>
   1353e: 3b 0b db 40  	subw	s6, s6, a3
   13542: e3 4b 60 1b  	bgtz	s6, 0x13ef8 <_vfprintf_r+0xbc2>
   13546: 13 f7 0d 10  	andi	a4, s11, 0x100
   1354a: e3 10 07 02  	bnez	a4, 0x13d6a <_vfprintf_r+0xa34>
   1354e: 2e 57        	lw	a4, 0xe8(sp)
   13550: b6 94        	add	s1, s1, a3
   13552: 23 30 a4 01  	sd	s10, 0x0(s0)
   13556: 05 27        	addiw	a4, a4, 0x1
   13558: 14 e4        	sd	a3, 0x8(s0)
   1355a: a6 f9        	sd	s1, 0xf0(sp)
   1355c: ba d5        	sw	a4, 0xe8(sp)
   1355e: 9d 47        	li	a5, 0x7
   13560: 63 cf e7 54  	blt	a5, a4, 0x13abe <_vfprintf_r+0x788>
   13564: 41 04        	addi	s0, s0, 0x10
   13566: 13 fe 4d 00  	andi	t3, s11, 0x4
   1356a: 63 06 0e 00  	beqz	t3, 0x13576 <_vfprintf_r+0x240>
   1356e: 3b 8b 8b 41  	subw	s6, s7, s8
   13572: e3 4d 60 31  	bgtz	s6, 0x1408c <_vfprintf_r+0xd56>
   13576: de 87        	mv	a5, s7
   13578: 63 d3 8b 01  	bge	s7, s8, 0x1357e <_vfprintf_r+0x248>
   1357c: e2 87        	mv	a5, s8
   1357e: 42 67        	ld	a4, 0x10(sp)
   13580: b9 9f        	addw	a5, a5, a4
   13582: 3e e8        	sd	a5, 0x10(sp)
   13584: e3 97 04 20  	bnez	s1, 0x13f92 <_vfprintf_r+0xc5c>
   13588: e2 67        	ld	a5, 0x18(sp)
   1358a: 82 d5        	sw	zero, 0xe8(sp)
   1358c: 89 c7        	beqz	a5, 0x13596 <_vfprintf_r+0x260>
   1358e: e2 65        	ld	a1, 0x18(sp)
   13590: 22 65        	ld	a0, 0x8(sp)
   13592: ef f0 af d5  	jal	0x12aec <_free_r>
   13596: 52 84        	mv	s0, s4
   13598: 4e 8d        	mv	s10, s3
   1359a: 03 47 0d 00  	lbu	a4, 0x0(s10)
   1359e: e3 13 07 e6  	bnez	a4, 0x13404 <_vfprintf_r+0xce>
   135a2: ce 77        	ld	a5, 0xf0(sp)
   135a4: 99 c3        	beqz	a5, 0x135aa <_vfprintf_r+0x274>
   135a6: 6f 10 20 3a  	j	0x14948 <_vfprintf_r+0x1612>
   135aa: 83 57 09 01  	lhu	a5, 0x10(s2)
   135ae: 83 34 81 23  	ld	s1, 0x238(sp)
   135b2: 83 39 81 22  	ld	s3, 0x228(sp)
   135b6: 93 f7 07 04  	andi	a5, a5, 0x40
   135ba: 03 3a 01 22  	ld	s4, 0x220(sp)
   135be: 83 3a 81 21  	ld	s5, 0x218(sp)
   135c2: 03 3b 01 21  	ld	s6, 0x210(sp)
   135c6: 83 3b 81 20  	ld	s7, 0x208(sp)
   135ca: 03 3c 01 20  	ld	s8, 0x200(sp)
   135ce: 5e 7d        	ld	s10, 0x1f0(sp)
   135d0: be 7d        	ld	s11, 0x1e8(sp)
   135d2: 99 c3        	beqz	a5, 0x135d8 <_vfprintf_r+0x2a2>
   135d4: 6f 10 80 67  	j	0x14c4c <_vfprintf_r+0x1916>
   135d8: 83 30 81 24  	ld	ra, 0x248(sp)
   135dc: 03 34 01 24  	ld	s0, 0x240(sp)
   135e0: 42 65        	ld	a0, 0x10(sp)
   135e2: 03 39 01 23  	ld	s2, 0x230(sp)
   135e6: fe 7c        	ld	s9, 0x1f8(sp)
   135e8: 13 01 01 25  	addi	sp, sp, 0x250
   135ec: 82 80        	ret
   135ee: 93 ed 0d 01  	ori	s11, s11, 0x10
   135f2: 03 c3 09 00  	lbu	t1, 0x0(s3)
   135f6: 81 2d        	sext.w	s11, s11
   135f8: 9d b5        	j	0x1345e <_vfprintf_r+0x128>
   135fa: 22 65        	ld	a0, 0x8(sp)
   135fc: ca 85        	mv	a1, s2
   135fe: ef 20 50 76  	jal	0x16562 <__swsetup_r>
   13602: 19 c1        	beqz	a0, 0x13608 <_vfprintf_r+0x2d2>
   13604: 6f 10 80 64  	j	0x14c4c <_vfprintf_r+0x1916>
   13608: 03 17 09 01  	lh	a4, 0x10(s2)
   1360c: a9 46        	li	a3, 0xa
   1360e: 69 8b        	andi	a4, a4, 0x1a
   13610: e3 11 d7 da  	bne	a4, a3, 0x133b2 <_vfprintf_r+0x7c>
   13614: 03 17 29 01  	lh	a4, 0x12(s2)
   13618: e3 4d 07 d8  	bltz	a4, 0x133b2 <_vfprintf_r+0x7c>
   1361c: 82 76        	ld	a3, 0x20(sp)
   1361e: 22 65        	ld	a0, 0x8(sp)
   13620: 66 86        	mv	a2, s9
   13622: ca 85        	mv	a1, s2
   13624: ef 10 d0 05  	jal	0x14e80 <__sbprintf>
   13628: 2a e8        	sd	a0, 0x10(sp)
   1362a: 7d b7        	j	0x135d8 <_vfprintf_r+0x2a2>
   1362c: 13 ee 0d 01  	ori	t3, s11, 0x10
   13630: 9b 0d 0e 00  	sext.w	s11, t3
   13634: 82 76        	ld	a3, 0x20(sp)
   13636: 93 f7 0d 02  	andi	a5, s11, 0x20
   1363a: 13 87 86 00  	addi	a4, a3, 0x8
   1363e: 63 87 07 4a  	beqz	a5, 0x13aec <_vfprintf_r+0x7b6>
   13642: 9c 62        	ld	a5, 0x0(a3)
   13644: be 84        	mv	s1, a5
   13646: 63 c4 07 4c  	bltz	a5, 0x13b0e <_vfprintf_r+0x7d8>
   1364a: e3 45 0b 4c  	bltz	s6, 0x14314 <_vfprintf_r+0xfde>
   1364e: 93 fc fd f7  	andi	s9, s11, -0x81
   13652: 81 2c        	sext.w	s9, s9
   13654: 99 c0        	beqz	s1, 0x1365a <_vfprintf_r+0x324>
   13656: 6f 00 90 77  	j	0x145ce <_vfprintf_r+0x1298>
   1365a: 63 04 0b 00  	beqz	s6, 0x13662 <_vfprintf_r+0x32c>
   1365e: 6f 10 20 68  	j	0x14ce0 <_vfprintf_r+0x19aa>
   13662: 81 46        	li	a3, 0x0
   13664: 3a f0        	sd	a4, 0x20(sp)
   13666: e6 8d        	mv	s11, s9
   13668: 13 0d c1 15  	addi	s10, sp, 0x15c
   1366c: 03 47 f1 0a  	lbu	a4, 0xaf(sp)
   13670: 5a 88        	mv	a6, s6
   13672: 63 53 db 00  	bge	s6, a3, 0x13678 <_vfprintf_r+0x342>
   13676: 36 88        	mv	a6, a3
   13678: 02 ec        	sd	zero, 0x18(sp)
   1367a: 82 e4        	sd	zero, 0x48(sp)
   1367c: 82 e0        	sd	zero, 0x40(sp)
   1367e: 02 f8        	sd	zero, 0x30(sp)
   13680: 1b 0c 08 00  	sext.w	s8, a6
   13684: e3 07 07 e4  	beqz	a4, 0x134d2 <_vfprintf_r+0x19c>
   13688: 05 2c        	addiw	s8, s8, 0x1
   1368a: a1 b5        	j	0x134d2 <_vfprintf_r+0x19c>
   1368c: 13 ee 0d 01  	ori	t3, s11, 0x10
   13690: 9b 0d 0e 00  	sext.w	s11, t3
   13694: 82 76        	ld	a3, 0x20(sp)
   13696: 93 f7 0d 02  	andi	a5, s11, 0x20
   1369a: 13 87 86 00  	addi	a4, a3, 0x8
   1369e: 63 8a 07 42  	beqz	a5, 0x13ad2 <_vfprintf_r+0x79c>
   136a2: 84 62        	ld	s1, 0x0(a3)
   136a4: 93 fc fd bf  	andi	s9, s11, -0x401
   136a8: 81 2c        	sext.w	s9, s9
   136aa: 3a f0        	sd	a4, 0x20(sp)
   136ac: 81 47        	li	a5, 0x0
   136ae: 01 47        	li	a4, 0x0
   136b0: a3 07 e1 0a  	sb	a4, 0xaf(sp)
   136b4: 63 48 0b 46  	bltz	s6, 0x13b24 <_vfprintf_r+0x7ee>
   136b8: 13 fe fc f7  	andi	t3, s9, -0x81
   136bc: 9b 0d 0e 00  	sext.w	s11, t3
   136c0: e3 98 04 0e  	bnez	s1, 0x13fb0 <_vfprintf_r+0xc7a>
   136c4: 63 1e 0b 74  	bnez	s6, 0x13e20 <_vfprintf_r+0xaea>
   136c8: e3 9a 07 3c  	bnez	a5, 0x1429c <_vfprintf_r+0xf66>
   136cc: 93 f6 1c 00  	andi	a3, s9, 0x1
   136d0: 13 0d c1 15  	addi	s10, sp, 0x15c
   136d4: c1 de        	beqz	a3, 0x1366c <_vfprintf_r+0x336>
   136d6: 93 07 00 03  	li	a5, 0x30
   136da: a3 0d f1 14  	sb	a5, 0x15b(sp)
   136de: 13 0d b1 15  	addi	s10, sp, 0x15b
   136e2: 69 b7        	j	0x1366c <_vfprintf_r+0x336>
   136e4: bb 84 a9 41  	subw	s1, s3, s10
   136e8: e3 9b 04 d2  	bnez	s1, 0x1341e <_vfprintf_r+0xe8>
   136ec: 03 c7 09 00  	lbu	a4, 0x0(s3)
   136f0: 99 bb        	j	0x13446 <_vfprintf_r+0x110>
   136f2: 22 65        	ld	a0, 0x8(sp)
   136f4: 90 11        	addi	a2, sp, 0xe0
   136f6: ca 85        	mv	a1, s2
   136f8: ef 10 30 0e  	jal	0x14fda <__sprint_r>
   136fc: e3 17 05 ea  	bnez	a0, 0x135aa <_vfprintf_r+0x274>
   13700: 52 84        	mv	s0, s4
   13702: 2d bb        	j	0x1343c <_vfprintf_r+0x106>
   13704: 13 f7 8d 00  	andi	a4, s11, 0x8
   13708: e3 18 07 3e  	bnez	a4, 0x142f8 <_vfprintf_r+0xfc2>
   1370c: 82 77        	ld	a5, 0x20(sp)
   1370e: 1a ec        	sd	t1, 0x18(sp)
   13710: 88 23        	fld	fa0, 0x0(a5)
   13712: 13 8c 87 00  	addi	s8, a5, 0x8
   13716: ef 70 20 7a  	jal	0x1aeb8 <__extenddftf2>
   1371a: 62 63        	ld	t1, 0x18(sp)
   1371c: 2a 87        	mv	a4, a0
   1371e: 62 f0        	sd	s8, 0x20(sp)
   13720: 88 09        	addi	a0, sp, 0xd0
   13722: 1a ec        	sd	t1, 0x18(sp)
   13724: ba e9        	sd	a4, 0xd0(sp)
   13726: ae ed        	sd	a1, 0xd8(sp)
   13728: ef 30 d0 02  	jal	0x16f54 <_ldcheck>
   1372c: 2a dd        	sw	a0, 0xb8(sp)
   1372e: 09 47        	li	a4, 0x2
   13730: 62 63        	ld	t1, 0x18(sp)
   13732: e3 00 e5 6a  	beq	a0, a4, 0x145d2 <_vfprintf_r+0x129c>
   13736: 05 47        	li	a4, 0x1
   13738: 63 14 e5 00  	bne	a0, a4, 0x13740 <_vfprintf_r+0x40a>
   1373c: 6f 00 b0 7b  	j	0x146f6 <_vfprintf_r+0x13c0>
   13740: 13 07 10 06  	li	a4, 0x61
   13744: e3 00 e3 56  	beq	t1, a4, 0x144a4 <_vfprintf_r+0x116e>
   13748: 13 07 10 04  	li	a4, 0x41
   1374c: 93 07 80 05  	li	a5, 0x58
   13750: e3 0c e3 54  	beq	t1, a4, 0x144a8 <_vfprintf_r+0x1172>
   13754: 7d 57        	li	a4, -0x1
   13756: 63 14 eb 00  	bne	s6, a4, 0x1375e <_vfprintf_r+0x428>
   1375a: 6f 10 20 56  	j	0x14cbc <_vfprintf_r+0x1986>
   1375e: 13 77 f3 fd  	andi	a4, t1, -0x21
   13762: 93 06 70 04  	li	a3, 0x47
   13766: 02 ec        	sd	zero, 0x18(sp)
   13768: 63 14 d7 00  	bne	a4, a3, 0x13770 <_vfprintf_r+0x43a>
   1376c: 6f 10 80 55  	j	0x14cc4 <_vfprintf_r+0x198e>
   13770: ce 67        	ld	a5, 0xd0(sp)
   13772: ee 6c        	ld	s9, 0xd8(sp)
   13774: 13 e7 0d 10  	ori	a4, s11, 0x100
   13778: 3e f8        	sd	a5, 0x30(sp)
   1377a: 82 f4        	sd	zero, 0x68(sp)
   1377c: 9b 04 07 00  	sext.w	s1, a4
   13780: 63 d4 0c 00  	bgez	s9, 0x13788 <_vfprintf_r+0x452>
   13784: 6f 10 20 37  	j	0x14af6 <_vfprintf_r+0x17c0>
   13788: 9b 06 f3 fb  	addiw	a3, t1, -0x41
   1378c: 13 07 50 02  	li	a4, 0x25
   13790: 63 74 d7 00  	bgeu	a4, a3, 0x13798 <_vfprintf_r+0x462>
   13794: 6f 10 60 3c  	j	0x14b5a <_vfprintf_r+0x1824>
   13798: 05 47        	li	a4, 0x1
   1379a: 05 4c        	li	s8, 0x1
   1379c: 16 17        	slli	a4, a4, 0x25
   1379e: b3 16 dc 00  	sll	a3, s8, a3
   137a2: 13 07 07 02  	addi	a4, a4, 0x20
   137a6: 75 8f        	and	a4, a4, a3
   137a8: 19 c3        	beqz	a4, 0x137ae <_vfprintf_r+0x478>
   137aa: 6f 10 80 26  	j	0x14a12 <_vfprintf_r+0x16dc>
   137ae: 05 47        	li	a4, 0x1
   137b0: 12 17        	slli	a4, a4, 0x24
   137b2: 41 07        	addi	a4, a4, 0x10
   137b4: 75 8f        	and	a4, a4, a3
   137b6: 19 c3        	beqz	a4, 0x137bc <_vfprintf_r+0x486>
   137b8: 6f 10 20 4a  	j	0x14c5a <_vfprintf_r+0x1924>
   137bc: 05 47        	li	a4, 0x1
   137be: 02 17        	slli	a4, a4, 0x20
   137c0: 05 07        	addi	a4, a4, 0x1
   137c2: f9 8e        	and	a3, a3, a4
   137c4: 1a fc        	sd	t1, 0x38(sp)
   137c6: 99 e2        	bnez	a3, 0x137cc <_vfprintf_r+0x496>
   137c8: 6f 10 40 1d  	j	0x1499c <_vfprintf_r+0x1666>
   137cc: 42 75        	ld	a0, 0x30(sp)
   137ce: 30 19        	addi	a2, sp, 0xb8
   137d0: e6 85        	mv	a1, s9
   137d2: ef 30 60 4e  	jal	0x16cb8 <frexpl>
   137d6: b7 f6 ff 00  	lui	a3, 0xfff
   137da: 01 46        	li	a2, 0x0
   137dc: 9a 16        	slli	a3, a3, 0x26
   137de: ef 60 00 7b  	jal	0x19f8e <__multf3>
   137e2: 01 46        	li	a2, 0x0
   137e4: 81 46        	li	a3, 0x0
   137e6: aa 8c        	mv	s9, a0
   137e8: ae 84        	mv	s1, a1
   137ea: ef 60 00 5c  	jal	0x19daa <__netf2>
   137ee: 62 73        	ld	t1, 0x38(sp)
   137f0: 11 e1        	bnez	a0, 0x137f4 <_vfprintf_r+0x4be>
   137f2: 62 dd        	sw	s8, 0xb8(sp)
   137f4: 13 07 10 06  	li	a4, 0x61
   137f8: 63 14 e3 00  	bne	t1, a4, 0x13800 <_vfprintf_r+0x4ca>
   137fc: 6f 10 a0 5e  	j	0x14de6 <_vfprintf_r+0x1ab0>
   13800: 6d 67        	lui	a4, 0x1b
   13802: 93 07 87 16  	addi	a5, a4, 0x168
   13806: 3e f8        	sd	a5, 0x30(sp)
   13808: 13 17 0b 02  	slli	a4, s6, 0x20
   1380c: 01 93        	srli	a4, a4, 0x20
   1380e: 05 07        	addi	a4, a4, 0x1
   13810: b7 36 00 04  	lui	a3, 0x4003
   13814: 1b 08 0b 00  	sext.w	a6, s6
   13818: b3 07 ed 00  	add	a5, s10, a4
   1381c: 92 16        	slli	a3, a3, 0x24
   1381e: 4e fc        	sd	s3, 0x38(sp)
   13820: a2 f8        	sd	s0, 0x70(sp)
   13822: 4a 8c        	mv	s8, s2
   13824: 42 7b        	ld	s6, 0x30(sp)
   13826: 9a e0        	sd	t1, 0x40(sp)
   13828: de e4        	sd	s7, 0x48(sp)
   1382a: 42 e9        	sd	a6, 0x90(sp)
   1382c: ea 89        	mv	s3, s10
   1382e: 3e 89        	mv	s2, a5
   13830: 36 84        	mv	s0, a3
   13832: 01 a8        	j	0x13842 <_vfprintf_r+0x50c>
   13834: 01 46        	li	a2, 0x0
   13836: 81 46        	li	a3, 0x0
   13838: ef 60 20 57  	jal	0x19daa <__netf2>
   1383c: 19 e1        	bnez	a0, 0x13842 <_vfprintf_r+0x50c>
   1383e: 6f 10 80 56  	j	0x14da6 <_vfprintf_r+0x1a70>
   13842: 01 46        	li	a2, 0x0
   13844: a2 86        	mv	a3, s0
   13846: 66 85        	mv	a0, s9
   13848: a6 85        	mv	a1, s1
   1384a: ef 60 40 74  	jal	0x19f8e <__multf3>
   1384e: ae 84        	mv	s1, a1
   13850: aa 8c        	mv	s9, a0
   13852: ef 70 a0 57  	jal	0x1adcc <__fixtfsi>
   13856: 9b 0b 05 00  	sext.w	s7, a0
   1385a: ef 70 80 60  	jal	0x1ae62 <__floatsitf>
   1385e: ae 86        	mv	a3, a1
   13860: 2a 86        	mv	a2, a0
   13862: a6 85        	mv	a1, s1
   13864: 66 85        	mv	a0, s9
   13866: ef 60 f0 51  	jal	0x1a584 <__subtf3>
   1386a: b3 06 7b 01  	add	a3, s6, s7
   1386e: 83 c6 06 00  	lbu	a3, 0x0(a3)
   13872: ce 88        	mv	a7, s3
   13874: 85 09        	addi	s3, s3, 0x1
   13876: a3 8f d9 fe  	sb	a3, -0x1(s3)
   1387a: aa 8c        	mv	s9, a0
   1387c: ae 84        	mv	s1, a1
   1387e: e3 1b 39 fb  	bne	s2, s3, 0x13834 <_vfprintf_r+0x4fe>
   13882: 06 63        	ld	t1, 0x40(sp)
   13884: b7 f6 ff 01  	lui	a3, 0x1fff
   13888: 96 16        	slli	a3, a3, 0x25
   1388a: 01 46        	li	a2, 0x0
   1388c: 1a e9        	sd	t1, 0x90(sp)
   1388e: c6 e0        	sd	a7, 0x40(sp)
   13890: 5e 8b        	mv	s6, s7
   13892: a6 6b        	ld	s7, 0x48(sp)
   13894: b6 e4        	sd	a3, 0x48(sp)
   13896: ef 60 c0 5b  	jal	0x19e52 <__gttf2>
   1389a: 62 89        	mv	s2, s8
   1389c: 46 74        	ld	s0, 0x70(sp)
   1389e: 4e 8c        	mv	s8, s3
   138a0: 86 68        	ld	a7, 0x40(sp)
   138a2: e2 79        	ld	s3, 0x38(sp)
   138a4: 4a 63        	ld	t1, 0x90(sp)
   138a6: 63 40 a0 02  	bgtz	a0, 0x138c6 <_vfprintf_r+0x590>
   138aa: a6 66        	ld	a3, 0x48(sp)
   138ac: 01 46        	li	a2, 0x0
   138ae: 66 85        	mv	a0, s9
   138b0: a6 85        	mv	a1, s1
   138b2: 1a fc        	sd	t1, 0x38(sp)
   138b4: ef 60 60 4f  	jal	0x19daa <__netf2>
   138b8: 62 73        	ld	t1, 0x38(sp)
   138ba: 39 e5        	bnez	a0, 0x13908 <_vfprintf_r+0x5d2>
   138bc: 13 7b 1b 00  	andi	s6, s6, 0x1
   138c0: 86 68        	ld	a7, 0x40(sp)
   138c2: 63 03 0b 04  	beqz	s6, 0x13908 <_vfprintf_r+0x5d2>
   138c6: c2 77        	ld	a5, 0x30(sp)
   138c8: c6 e5        	sd	a7, 0xc8(sp)
   138ca: 03 46 fc ff  	lbu	a2, -0x1(s8)
   138ce: 83 c5 f7 00  	lbu	a1, 0xf(a5)
   138d2: e2 86        	mv	a3, s8
   138d4: 63 1e b6 00  	bne	a2, a1, 0x138f0 <_vfprintf_r+0x5ba>
   138d8: 13 05 00 03  	li	a0, 0x30
   138dc: a3 8f a6 fe  	sb	a0, -0x1(a3)
   138e0: ae 66        	ld	a3, 0xc8(sp)
   138e2: 93 87 f6 ff  	addi	a5, a3, -0x1
   138e6: be e5        	sd	a5, 0xc8(sp)
   138e8: 03 c6 f6 ff  	lbu	a2, -0x1(a3)
   138ec: e3 88 c5 fe  	beq	a1, a2, 0x138dc <_vfprintf_r+0x5a6>
   138f0: 9b 05 16 00  	addiw	a1, a2, 0x1
   138f4: 13 05 90 03  	li	a0, 0x39
   138f8: 93 f5 f5 0f  	andi	a1, a1, 0xff
   138fc: 63 14 a6 00  	bne	a2, a0, 0x13904 <_vfprintf_r+0x5ce>
   13900: 6f 10 40 0f  	j	0x149f4 <_vfprintf_r+0x16be>
   13904: a3 8f b6 fe  	sb	a1, -0x1(a3)
   13908: e2 86        	mv	a3, s8
   1390a: ea 57        	lw	a5, 0xb8(sp)
   1390c: 3b 87 a6 41  	subw	a4, a3, s10
   13910: 3a fc        	sd	a4, 0x38(sp)
   13912: 1b 87 f7 ff  	addiw	a4, a5, -0x1
   13916: 3e f8        	sd	a5, 0x30(sp)
   13918: 13 06 10 06  	li	a2, 0x61
   1391c: 3a dd        	sw	a4, 0xb8(sp)
   1391e: 63 14 c3 00  	bne	t1, a2, 0x13926 <_vfprintf_r+0x5f0>
   13922: 6f 10 00 4d  	j	0x14df2 <_vfprintf_r+0x1abc>
   13926: 13 06 10 04  	li	a2, 0x41
   1392a: 93 06 00 05  	li	a3, 0x50
   1392e: 63 04 c3 00  	beq	t1, a2, 0x13936 <_vfprintf_r+0x600>
   13932: 6f 10 80 0b  	j	0x149ea <_vfprintf_r+0x16b4>
   13936: 05 46        	li	a2, 0x1
   13938: 23 00 d1 0c  	sb	a3, 0xc0(sp)
   1393c: 93 06 b0 02  	li	a3, 0x2b
   13940: 63 57 07 00  	bgez	a4, 0x1394e <_vfprintf_r+0x618>
   13944: c2 77        	ld	a5, 0x30(sp)
   13946: 05 47        	li	a4, 0x1
   13948: 93 06 d0 02  	li	a3, 0x2d
   1394c: 1d 9f        	subw	a4, a4, a5
   1394e: a3 00 d1 0c  	sb	a3, 0xc1(sp)
   13952: a5 46        	li	a3, 0x9
   13954: 63 c4 e6 00  	blt	a3, a4, 0x1395c <_vfprintf_r+0x626>
   13958: 6f 10 a0 33  	j	0x14c92 <_vfprintf_r+0x195c>
   1395c: 93 08 f1 0c  	addi	a7, sp, 0xcf
   13960: 46 85        	mv	a0, a7
   13962: 29 48        	li	a6, 0xa
   13964: 13 0f 30 06  	li	t5, 0x63
   13968: bb 67 07 03  	remw	a5, a4, a6
   1396c: aa 86        	mv	a3, a0
   1396e: 3a 86        	mv	a2, a4
   13970: 7d 15        	addi	a0, a0, -0x1
   13972: 9b 87 07 03  	addiw	a5, a5, 0x30
   13976: a3 8f f6 fe  	sb	a5, -0x1(a3)
   1397a: 3b 47 07 03  	divw	a4, a4, a6
   1397e: e3 45 cf fe  	blt	t5, a2, 0x13968 <_vfprintf_r+0x632>
   13982: 9b 05 07 03  	addiw	a1, a4, 0x30
   13986: a3 0f b5 fe  	sb	a1, -0x1(a0)
   1398a: 13 87 e6 ff  	addi	a4, a3, -0x2
   1398e: 63 64 17 01  	bltu	a4, a7, 0x13996 <_vfprintf_r+0x660>
   13992: 6f 10 00 4a  	j	0x14e32 <_vfprintf_r+0x1afc>
   13996: 13 06 21 0c  	addi	a2, sp, 0xc2
   1399a: 83 47 07 00  	lbu	a5, 0x0(a4)
   1399e: 05 07        	addi	a4, a4, 0x1
   139a0: 05 06        	addi	a2, a2, 0x1
   139a2: a3 0f f6 fe  	sb	a5, -0x1(a2)
   139a6: e3 1a 17 ff  	bne	a4, a7, 0x1399a <_vfprintf_r+0x664>
   139aa: 9c 13        	addi	a5, sp, 0x1e0
   139ac: b3 86 d7 40  	sub	a3, a5, a3
   139b0: 9b 87 36 ef  	addiw	a5, a3, -0x10d
   139b4: be f8        	sd	a5, 0x70(sp)
   139b6: 46 77        	ld	a4, 0x70(sp)
   139b8: e2 77        	ld	a5, 0x38(sp)
   139ba: 05 46        	li	a2, 0x1
   139bc: bb 86 e7 00  	addw	a3, a5, a4
   139c0: 36 87        	mv	a4, a3
   139c2: 63 44 f6 00  	blt	a2, a5, 0x139ca <_vfprintf_r+0x694>
   139c6: 6f 10 c0 30  	j	0x14cd2 <_vfprintf_r+0x199c>
   139ca: c6 67        	ld	a5, 0x50(sp)
   139cc: bb 06 f7 00  	addw	a3, a4, a5
   139d0: 13 c8 f6 ff  	not	a6, a3
   139d4: 13 fe fd bf  	andi	t3, s11, -0x401
   139d8: 13 58 f8 43  	srai	a6, a6, 0x3f
   139dc: 01 2e        	sext.w	t3, t3
   139de: 33 f8 06 01  	and	a6, a3, a6
   139e2: 93 6d 0e 10  	ori	s11, t3, 0x100
   139e6: 1b 0c 08 00  	sext.w	s8, a6
   139ea: 82 e4        	sd	zero, 0x48(sp)
   139ec: 82 e0        	sd	zero, 0x40(sp)
   139ee: 02 f8        	sd	zero, 0x30(sp)
   139f0: a6 77        	ld	a5, 0x68(sp)
   139f2: 99 e3        	bnez	a5, 0x139f8 <_vfprintf_r+0x6c2>
   139f4: 6f 10 e0 00  	j	0x14a02 <_vfprintf_r+0x16cc>
   139f8: 13 07 d0 02  	li	a4, 0x2d
   139fc: a3 07 e1 0a  	sb	a4, 0xaf(sp)
   13a00: 01 4b        	li	s6, 0x0
   13a02: 05 2c        	addiw	s8, s8, 0x1
   13a04: f9 b4        	j	0x134d2 <_vfprintf_r+0x19c>
   13a06: 22 65        	ld	a0, 0x8(sp)
   13a08: 90 11        	addi	a2, sp, 0xe0
   13a0a: ca 85        	mv	a1, s2
   13a0c: 36 ed        	sd	a3, 0x98(sp)
   13a0e: 1a e9        	sd	t1, 0x90(sp)
   13a10: 96 f4        	sd	t0, 0x68(sp)
   13a12: ef 10 80 5c  	jal	0x14fda <__sprint_r>
   13a16: 63 15 05 58  	bnez	a0, 0x13fa0 <_vfprintf_r+0xc6a>
   13a1a: ce 74        	ld	s1, 0xf0(sp)
   13a1c: ea 66        	ld	a3, 0x98(sp)
   13a1e: 4a 63        	ld	t1, 0x90(sp)
   13a20: a6 72        	ld	t0, 0x68(sp)
   13a22: 52 84        	mv	s0, s4
   13a24: c5 bc        	j	0x13514 <_vfprintf_r+0x1de>
   13a26: 2e 57        	lw	a4, 0xe8(sp)
   13a28: e2 77        	ld	a5, 0x38(sp)
   13a2a: 85 46        	li	a3, 0x1
   13a2c: 1b 0b 17 00  	addiw	s6, a4, 0x1
   13a30: 23 30 a4 01  	sd	s10, 0x0(s0)
   13a34: 85 04        	addi	s1, s1, 0x1
   13a36: 5a 87        	mv	a4, s6
   13a38: 93 0c 04 01  	addi	s9, s0, 0x10
   13a3c: 63 d3 f6 7c  	bge	a3, a5, 0x14202 <_vfprintf_r+0xecc>
   13a40: 85 46        	li	a3, 0x1
   13a42: ba d5        	sw	a4, 0xe8(sp)
   13a44: 14 e4        	sd	a3, 0x8(s0)
   13a46: a6 f9        	sd	s1, 0xf0(sp)
   13a48: 1d 47        	li	a4, 0x7
   13a4a: e3 44 67 2b  	blt	a4, s6, 0x144f2 <_vfprintf_r+0x11bc>
   13a4e: c6 67        	ld	a5, 0x50(sp)
   13a50: e6 66        	ld	a3, 0x58(sp)
   13a52: 05 2b        	addiw	s6, s6, 0x1
   13a54: be 94        	add	s1, s1, a5
   13a56: 23 b0 dc 00  	sd	a3, 0x0(s9)
   13a5a: 23 b4 fc 00  	sd	a5, 0x8(s9)
   13a5e: a6 f9        	sd	s1, 0xf0(sp)
   13a60: da d5        	sw	s6, 0xe8(sp)
   13a62: 1d 47        	li	a4, 0x7
   13a64: c1 0c        	addi	s9, s9, 0x10
   13a66: e3 42 67 2b  	blt	a4, s6, 0x1450a <_vfprintf_r+0x11d4>
   13a6a: e2 77        	ld	a5, 0x38(sp)
   13a6c: 4e 65        	ld	a0, 0xd0(sp)
   13a6e: ee 65        	ld	a1, 0xd8(sp)
   13a70: 01 46        	li	a2, 0x0
   13a72: 81 46        	li	a3, 0x0
   13a74: 1b 84 f7 ff  	addiw	s0, a5, -0x1
   13a78: ef 60 20 33  	jal	0x19daa <__netf2>
   13a7c: 63 08 05 7a  	beqz	a0, 0x1422c <_vfprintf_r+0xef6>
   13a80: 93 07 1d 00  	addi	a5, s10, 0x1
   13a84: 05 2b        	addiw	s6, s6, 0x1
   13a86: a2 94        	add	s1, s1, s0
   13a88: 23 b0 fc 00  	sd	a5, 0x0(s9)
   13a8c: 23 b4 8c 00  	sd	s0, 0x8(s9)
   13a90: a6 f9        	sd	s1, 0xf0(sp)
   13a92: da d5        	sw	s6, 0xe8(sp)
   13a94: 9d 47        	li	a5, 0x7
   13a96: 63 c0 67 79  	blt	a5, s6, 0x14216 <_vfprintf_r+0xee0>
   13a9a: c1 0c        	addi	s9, s9, 0x10
   13a9c: 46 77        	ld	a4, 0x70(sp)
   13a9e: 05 2b        	addiw	s6, s6, 0x1
   13aa0: 9c 01        	addi	a5, sp, 0xc0
   13aa2: ba 94        	add	s1, s1, a4
   13aa4: 23 b0 fc 00  	sd	a5, 0x0(s9)
   13aa8: 23 b4 ec 00  	sd	a4, 0x8(s9)
   13aac: a6 f9        	sd	s1, 0xf0(sp)
   13aae: 1b 07 0b 00  	sext.w	a4, s6
   13ab2: da d5        	sw	s6, 0xe8(sp)
   13ab4: 9d 47        	li	a5, 0x7
   13ab6: 13 84 0c 01  	addi	s0, s9, 0x10
   13aba: e3 d6 e7 aa  	bge	a5, a4, 0x13566 <_vfprintf_r+0x230>
   13abe: 22 65        	ld	a0, 0x8(sp)
   13ac0: 90 11        	addi	a2, sp, 0xe0
   13ac2: ca 85        	mv	a1, s2
   13ac4: ef 10 60 51  	jal	0x14fda <__sprint_r>
   13ac8: 63 1c 05 4c  	bnez	a0, 0x13fa0 <_vfprintf_r+0xc6a>
   13acc: ce 74        	ld	s1, 0xf0(sp)
   13ace: 52 84        	mv	s0, s4
   13ad0: 59 bc        	j	0x13566 <_vfprintf_r+0x230>
   13ad2: 93 f7 0d 01  	andi	a5, s11, 0x10
   13ad6: e3 9d 07 00  	bnez	a5, 0x142f0 <_vfprintf_r+0xfba>
   13ada: 82 76        	ld	a3, 0x20(sp)
   13adc: 93 f7 0d 04  	andi	a5, s11, 0x40
   13ae0: 84 42        	lw	s1, 0x0(a3)
   13ae2: e3 86 07 3c  	beqz	a5, 0x146ae <_vfprintf_r+0x1378>
   13ae6: c2 14        	slli	s1, s1, 0x30
   13ae8: c1 90        	srli	s1, s1, 0x30
   13aea: 6d be        	j	0x136a4 <_vfprintf_r+0x36e>
   13aec: 93 f7 0d 01  	andi	a5, s11, 0x10
   13af0: 63 95 07 7c  	bnez	a5, 0x142ba <_vfprintf_r+0xf84>
   13af4: 82 76        	ld	a3, 0x20(sp)
   13af6: 93 f7 0d 04  	andi	a5, s11, 0x40
   13afa: 84 42        	lw	s1, 0x0(a3)
   13afc: e3 81 07 3c  	beqz	a5, 0x146be <_vfprintf_r+0x1388>
   13b00: 9b 94 04 01  	slliw	s1, s1, 0x10
   13b04: 9b d4 04 41  	sraiw	s1, s1, 0x10
   13b08: a6 87        	mv	a5, s1
   13b0a: e3 d0 07 b4  	bgez	a5, 0x1364a <_vfprintf_r+0x314>
   13b0e: 3a f0        	sd	a4, 0x20(sp)
   13b10: 13 07 d0 02  	li	a4, 0x2d
   13b14: a3 07 e1 0a  	sb	a4, 0xaf(sp)
   13b18: b3 04 90 40  	neg	s1, s1
   13b1c: ee 8c        	mv	s9, s11
   13b1e: 85 47        	li	a5, 0x1
   13b20: e3 5c 0b b8  	bgez	s6, 0x136b8 <_vfprintf_r+0x382>
   13b24: 05 47        	li	a4, 0x1
   13b26: 63 89 e7 48  	beq	a5, a4, 0x13fb8 <_vfprintf_r+0xc82>
   13b2a: 09 47        	li	a4, 0x2
   13b2c: 63 81 e7 30  	beq	a5, a4, 0x13e2e <_vfprintf_r+0xaf8>
   13b30: f4 0a        	addi	a3, sp, 0x15c
   13b32: 36 8d        	mv	s10, a3
   13b34: 13 f7 74 00  	andi	a4, s1, 0x7
   13b38: 13 07 07 03  	addi	a4, a4, 0x30
   13b3c: a3 0f ed fe  	sb	a4, -0x1(s10)
   13b40: 8d 80        	srli	s1, s1, 0x3
   13b42: 6a 86        	mv	a2, s10
   13b44: 7d 1d        	addi	s10, s10, -0x1
   13b46: fd f4        	bnez	s1, 0x13b34 <_vfprintf_r+0x7fe>
   13b48: 93 f5 1c 00  	andi	a1, s9, 0x1
   13b4c: 63 8e 05 2e  	beqz	a1, 0x13e48 <_vfprintf_r+0xb12>
   13b50: 93 05 00 03  	li	a1, 0x30
   13b54: 63 0a b7 2e  	beq	a4, a1, 0x13e48 <_vfprintf_r+0xb12>
   13b58: 79 16        	addi	a2, a2, -0x2
   13b5a: a3 0f bd fe  	sb	a1, -0x1(s10)
   13b5e: 91 9e        	subw	a3, a3, a2
   13b60: e6 8d        	mv	s11, s9
   13b62: 32 8d        	mv	s10, a2
   13b64: 21 b6        	j	0x1366c <_vfprintf_r+0x336>
   13b66: 82 77        	ld	a5, 0x20(sp)
   13b68: a3 07 01 0a  	sb	zero, 0xaf(sp)
   13b6c: 03 bd 07 00  	ld	s10, 0x0(a5)
   13b70: 93 84 87 00  	addi	s1, a5, 0x8
   13b74: e3 0a 0d 08  	beqz	s10, 0x14408 <_vfprintf_r+0x10d2>
   13b78: e3 4f 0b 28  	bltz	s6, 0x14616 <_vfprintf_r+0x12e0>
   13b7c: 5a 86        	mv	a2, s6
   13b7e: 81 45        	li	a1, 0x0
   13b80: 6a 85        	mv	a0, s10
   13b82: 1a f0        	sd	t1, 0x20(sp)
   13b84: ef 20 30 3d  	jal	0x16756 <memchr>
   13b88: 2a ec        	sd	a0, 0x18(sp)
   13b8a: 02 73        	ld	t1, 0x20(sp)
   13b8c: 19 e1        	bnez	a0, 0x13b92 <_vfprintf_r+0x85c>
   13b8e: 6f 00 10 7b  	j	0x14b3e <_vfprintf_r+0x1808>
   13b92: e2 67        	ld	a5, 0x18(sp)
   13b94: 03 47 f1 0a  	lbu	a4, 0xaf(sp)
   13b98: 26 f0        	sd	s1, 0x20(sp)
   13b9a: bb 86 a7 41  	subw	a3, a5, s10
   13b9e: 13 c8 f6 ff  	not	a6, a3
   13ba2: 13 58 f8 43  	srai	a6, a6, 0x3f
   13ba6: 02 ec        	sd	zero, 0x18(sp)
   13ba8: 82 e4        	sd	zero, 0x48(sp)
   13baa: 82 e0        	sd	zero, 0x40(sp)
   13bac: 02 f8        	sd	zero, 0x30(sp)
   13bae: 33 7c d8 00  	and	s8, a6, a3
   13bb2: 01 4b        	li	s6, 0x0
   13bb4: e3 1a 07 ac  	bnez	a4, 0x13688 <_vfprintf_r+0x352>
   13bb8: 29 ba        	j	0x134d2 <_vfprintf_r+0x19c>
   13bba: 02 77        	ld	a4, 0x20(sp)
   13bbc: a3 07 01 0a  	sb	zero, 0xaf(sp)
   13bc0: 05 4c        	li	s8, 0x1
   13bc2: 1c 43        	lw	a5, 0x0(a4)
   13bc4: 21 07        	addi	a4, a4, 0x8
   13bc6: 3a f0        	sd	a4, 0x20(sp)
   13bc8: 23 0c f1 0e  	sb	a5, 0xf8(sp)
   13bcc: 85 46        	li	a3, 0x1
   13bce: 13 0d 81 0f  	addi	s10, sp, 0xf8
   13bd2: dd b8        	j	0x134c8 <_vfprintf_r+0x192>
   13bd4: 82 77        	ld	a5, 0x20(sp)
   13bd6: 83 ab 07 00  	lw	s7, 0x0(a5)
   13bda: a1 07        	addi	a5, a5, 0x8
   13bdc: 63 da 0b 6c  	bgez	s7, 0x142b0 <_vfprintf_r+0xf7a>
   13be0: bb 0b 70 41  	negw	s7, s7
   13be4: 3e f0        	sd	a5, 0x20(sp)
   13be6: 93 ed 4d 00  	ori	s11, s11, 0x4
   13bea: 03 c3 09 00  	lbu	t1, 0x0(s3)
   13bee: 81 2d        	sext.w	s11, s11
   13bf0: bd b0        	j	0x1345e <_vfprintf_r+0x128>
   13bf2: 93 07 b0 02  	li	a5, 0x2b
   13bf6: 03 c3 09 00  	lbu	t1, 0x0(s3)
   13bfa: a3 07 f1 0a  	sb	a5, 0xaf(sp)
   13bfe: 85 b0        	j	0x1345e <_vfprintf_r+0x128>
   13c00: 93 ed 0d 08  	ori	s11, s11, 0x80
   13c04: 03 c3 09 00  	lbu	t1, 0x0(s3)
   13c08: 81 2d        	sext.w	s11, s11
   13c0a: 91 b8        	j	0x1345e <_vfprintf_r+0x128>
   13c0c: 03 c3 09 00  	lbu	t1, 0x0(s3)
   13c10: 93 06 a0 02  	li	a3, 0x2a
   13c14: 13 87 19 00  	addi	a4, s3, 0x1
   13c18: 63 14 d3 00  	bne	t1, a3, 0x13c20 <_vfprintf_r+0x8ea>
   13c1c: 6f 10 e0 21  	j	0x14e3a <_vfprintf_r+0x1b04>
   13c20: 9b 07 03 fd  	addiw	a5, t1, -0x30
   13c24: a5 45        	li	a1, 0x9
   13c26: 81 46        	li	a3, 0x0
   13c28: 25 46        	li	a2, 0x9
   13c2a: ba 89        	mv	s3, a4
   13c2c: 01 4b        	li	s6, 0x0
   13c2e: e3 ea f5 82  	bltu	a1, a5, 0x13462 <_vfprintf_r+0x12c>
   13c32: 03 43 07 00  	lbu	t1, 0x0(a4)
   13c36: 1b 9b 26 00  	slliw	s6, a3, 0x2
   13c3a: 3b 0b db 00  	addw	s6, s6, a3
   13c3e: 1b 1b 1b 00  	slliw	s6, s6, 0x1
   13c42: bb 86 67 01  	addw	a3, a5, s6
   13c46: 9b 07 03 fd  	addiw	a5, t1, -0x30
   13c4a: 36 8b        	mv	s6, a3
   13c4c: 05 07        	addi	a4, a4, 0x1
   13c4e: e3 72 f6 fe  	bgeu	a2, a5, 0x13c32 <_vfprintf_r+0x8fc>
   13c52: 63 c5 06 72  	bltz	a3, 0x1437c <_vfprintf_r+0x1046>
   13c56: ba 89        	mv	s3, a4
   13c58: 6f f0 bf 80  	j	0x13462 <_vfprintf_r+0x12c>
   13c5c: 93 ec 0d 01  	ori	s9, s11, 0x10
   13c60: 81 2c        	sext.w	s9, s9
   13c62: 82 76        	ld	a3, 0x20(sp)
   13c64: 93 f7 0c 02  	andi	a5, s9, 0x20
   13c68: 13 87 86 00  	addi	a4, a3, 0x8
   13c6c: 63 89 07 60  	beqz	a5, 0x1427e <_vfprintf_r+0xf48>
   13c70: 84 62        	ld	s1, 0x0(a3)
   13c72: 85 47        	li	a5, 0x1
   13c74: 3a f0        	sd	a4, 0x20(sp)
   13c76: 25 bc        	j	0x136ae <_vfprintf_r+0x378>
   13c78: 22 6c        	ld	s8, 0x8(sp)
   13c7a: 62 85        	mv	a0, s8
   13c7c: ef 20 50 4c  	jal	0x16940 <_localeconv_r>
   13c80: 1c 65        	ld	a5, 0x8(a0)
   13c82: 3e 85        	mv	a0, a5
   13c84: be fc        	sd	a5, 0x78(sp)
   13c86: ef e0 9f c1  	jal	0x1289e <strlen>
   13c8a: aa 87        	mv	a5, a0
   13c8c: 62 85        	mv	a0, s8
   13c8e: 3e e5        	sd	a5, 0x88(sp)
   13c90: 3e 8c        	mv	s8, a5
   13c92: ef 20 f0 4a  	jal	0x16940 <_localeconv_r>
   13c96: 1c 69        	ld	a5, 0x10(a0)
   13c98: 03 c3 09 00  	lbu	t1, 0x0(s3)
   13c9c: 3e e1        	sd	a5, 0x80(sp)
   13c9e: 63 00 0c fc  	beqz	s8, 0x1345e <_vfprintf_r+0x128>
   13ca2: 63 8e 07 fa  	beqz	a5, 0x1345e <_vfprintf_r+0x128>
   13ca6: 83 c7 07 00  	lbu	a5, 0x0(a5)
   13caa: 63 8a 07 fa  	beqz	a5, 0x1345e <_vfprintf_r+0x128>
   13cae: 93 ed 0d 40  	ori	s11, s11, 0x400
   13cb2: 81 2d        	sext.w	s11, s11
   13cb4: 6f f0 af fa  	j	0x1345e <_vfprintf_r+0x128>
   13cb8: 93 ed 1d 00  	ori	s11, s11, 0x1
   13cbc: 03 c3 09 00  	lbu	t1, 0x0(s3)
   13cc0: 81 2d        	sext.w	s11, s11
   13cc2: 6f f0 cf f9  	j	0x1345e <_vfprintf_r+0x128>
   13cc6: 83 47 f1 0a  	lbu	a5, 0xaf(sp)
   13cca: 03 c3 09 00  	lbu	t1, 0x0(s3)
   13cce: 63 98 07 f8  	bnez	a5, 0x1345e <_vfprintf_r+0x128>
   13cd2: 93 07 00 02  	li	a5, 0x20
   13cd6: a3 07 f1 0a  	sb	a5, 0xaf(sp)
   13cda: 6f f0 4f f8  	j	0x1345e <_vfprintf_r+0x128>
   13cde: 93 ed 8d 00  	ori	s11, s11, 0x8
   13ce2: 03 c3 09 00  	lbu	t1, 0x0(s3)
   13ce6: 81 2d        	sext.w	s11, s11
   13ce8: 6f f0 6f f7  	j	0x1345e <_vfprintf_r+0x128>
   13cec: 93 ed 0d 02  	ori	s11, s11, 0x20
   13cf0: 03 c3 09 00  	lbu	t1, 0x0(s3)
   13cf4: 81 2d        	sext.w	s11, s11
   13cf6: 6f f0 8f f6  	j	0x1345e <_vfprintf_r+0x128>
   13cfa: 02 77        	ld	a4, 0x20(sp)
   13cfc: a1 67        	lui	a5, 0x8
   13cfe: 93 87 07 83  	addi	a5, a5, -0x7d0
   13d02: 23 18 f1 0a  	sh	a5, 0xb0(sp)
   13d06: 93 07 87 00  	addi	a5, a4, 0x8
   13d0a: 3e f0        	sd	a5, 0x20(sp)
   13d0c: ed 67        	lui	a5, 0x1b
   13d0e: 93 87 07 15  	addi	a5, a5, 0x150
   13d12: 93 ec 2d 00  	ori	s9, s11, 0x2
   13d16: be f0        	sd	a5, 0x60(sp)
   13d18: 04 63        	ld	s1, 0x0(a4)
   13d1a: 81 2c        	sext.w	s9, s9
   13d1c: 89 47        	li	a5, 0x2
   13d1e: 13 03 80 07  	li	t1, 0x78
   13d22: 71 b2        	j	0x136ae <_vfprintf_r+0x378>
   13d24: 02 77        	ld	a4, 0x20(sp)
   13d26: 93 f7 0d 02  	andi	a5, s11, 0x20
   13d2a: 18 63        	ld	a4, 0x0(a4)
   13d2c: 63 82 07 5a  	beqz	a5, 0x142d0 <_vfprintf_r+0xf9a>
   13d30: c2 67        	ld	a5, 0x10(sp)
   13d32: 1c e3        	sd	a5, 0x0(a4)
   13d34: 82 77        	ld	a5, 0x20(sp)
   13d36: 4e 8d        	mv	s10, s3
   13d38: a1 07        	addi	a5, a5, 0x8
   13d3a: 3e f0        	sd	a5, 0x20(sp)
   13d3c: b9 b8        	j	0x1359a <_vfprintf_r+0x264>
   13d3e: 03 c3 09 00  	lbu	t1, 0x0(s3)
   13d42: 93 07 c0 06  	li	a5, 0x6c
   13d46: 63 0f f3 68  	beq	t1, a5, 0x143e4 <_vfprintf_r+0x10ae>
   13d4a: 93 ed 0d 01  	ori	s11, s11, 0x10
   13d4e: 81 2d        	sext.w	s11, s11
   13d50: 6f f0 ef f0  	j	0x1345e <_vfprintf_r+0x128>
   13d54: 03 c3 09 00  	lbu	t1, 0x0(s3)
   13d58: 93 07 80 06  	li	a5, 0x68
   13d5c: 63 0c f3 66  	beq	t1, a5, 0x143d4 <_vfprintf_r+0x109e>
   13d60: 93 ed 0d 04  	ori	s11, s11, 0x40
   13d64: 81 2d        	sext.w	s11, s11
   13d66: 6f f0 8f ef  	j	0x1345e <_vfprintf_r+0x128>
   13d6a: 13 07 50 06  	li	a4, 0x65
   13d6e: e3 5c 67 ca  	bge	a4, t1, 0x13a26 <_vfprintf_r+0x6f0>
   13d72: 4e 65        	ld	a0, 0xd0(sp)
   13d74: ee 65        	ld	a1, 0xd8(sp)
   13d76: 01 46        	li	a2, 0x0
   13d78: 81 46        	li	a3, 0x0
   13d7a: ef 60 00 03  	jal	0x19daa <__netf2>
   13d7e: 63 14 05 38  	bnez	a0, 0x14106 <_vfprintf_r+0xdd0>
   13d82: ae 57        	lw	a5, 0xe8(sp)
   13d84: 6d 67        	lui	a4, 0x1b
   13d86: 13 07 87 18  	addi	a4, a4, 0x188
   13d8a: 85 27        	addiw	a5, a5, 0x1
   13d8c: 18 e0        	sd	a4, 0x0(s0)
   13d8e: 85 04        	addi	s1, s1, 0x1
   13d90: 05 47        	li	a4, 0x1
   13d92: 18 e4        	sd	a4, 0x8(s0)
   13d94: be d5        	sw	a5, 0xe8(sp)
   13d96: 1b 87 07 00  	sext.w	a4, a5
   13d9a: a6 f9        	sd	s1, 0xf0(sp)
   13d9c: 9d 47        	li	a5, 0x7
   13d9e: 41 04        	addi	s0, s0, 0x10
   13da0: 63 c9 e7 7e  	blt	a5, a4, 0x14592 <_vfprintf_r+0x125c>
   13da4: ea 57        	lw	a5, 0xb8(sp)
   13da6: 62 77        	ld	a4, 0x38(sp)
   13da8: 63 df e7 4e  	bge	a5, a4, 0x142a6 <_vfprintf_r+0xf70>
   13dac: 46 67        	ld	a4, 0x50(sp)
   13dae: ae 57        	lw	a5, 0xe8(sp)
   13db0: e6 66        	ld	a3, 0x58(sp)
   13db2: ba 94        	add	s1, s1, a4
   13db4: 85 27        	addiw	a5, a5, 0x1
   13db6: 18 e4        	sd	a4, 0x8(s0)
   13db8: 14 e0        	sd	a3, 0x0(s0)
   13dba: 1b 87 07 00  	sext.w	a4, a5
   13dbe: be d5        	sw	a5, 0xe8(sp)
   13dc0: a6 f9        	sd	s1, 0xf0(sp)
   13dc2: 9d 47        	li	a5, 0x7
   13dc4: 41 04        	addi	s0, s0, 0x10
   13dc6: 63 c7 e7 62  	blt	a5, a4, 0x143f4 <_vfprintf_r+0x10be>
   13dca: e2 77        	ld	a5, 0x38(sp)
   13dcc: 1b 8b f7 ff  	addiw	s6, a5, -0x1
   13dd0: 63 5b 60 f9  	blez	s6, 0x13566 <_vfprintf_r+0x230>
   13dd4: ed 68        	lui	a7, 0x1b
   13dd6: 41 47        	li	a4, 0x10
   13dd8: ae 57        	lw	a5, 0xe8(sp)
   13dda: 93 88 08 73  	addi	a7, a7, 0x730
   13dde: 63 58 67 7d  	bge	a4, s6, 0x145ae <_vfprintf_r+0x1278>
   13de2: 4e f8        	sd	s3, 0x30(sp)
   13de4: c1 4c        	li	s9, 0x10
   13de6: da 89        	mv	s3, s6
   13de8: 1d 4d        	li	s10, 0x7
   13dea: 46 8b        	mv	s6, a7
   13dec: 21 a0        	j	0x13df4 <_vfprintf_r+0xabe>
   13dee: c1 39        	addiw	s3, s3, -0x10
   13df0: 63 dc 3c 7b  	bge	s9, s3, 0x145a8 <_vfprintf_r+0x1272>
   13df4: 85 27        	addiw	a5, a5, 0x1
   13df6: c1 04        	addi	s1, s1, 0x10
   13df8: 23 30 64 01  	sd	s6, 0x0(s0)
   13dfc: 23 34 94 01  	sd	s9, 0x8(s0)
   13e00: a6 f9        	sd	s1, 0xf0(sp)
   13e02: be d5        	sw	a5, 0xe8(sp)
   13e04: 41 04        	addi	s0, s0, 0x10
   13e06: e3 54 fd fe  	bge	s10, a5, 0x13dee <_vfprintf_r+0xab8>
   13e0a: 22 65        	ld	a0, 0x8(sp)
   13e0c: 90 11        	addi	a2, sp, 0xe0
   13e0e: ca 85        	mv	a1, s2
   13e10: ef 10 a0 1c  	jal	0x14fda <__sprint_r>
   13e14: 63 16 05 18  	bnez	a0, 0x13fa0 <_vfprintf_r+0xc6a>
   13e18: ce 74        	ld	s1, 0xf0(sp)
   13e1a: ae 57        	lw	a5, 0xe8(sp)
   13e1c: 52 84        	mv	s0, s4
   13e1e: c1 bf        	j	0x13dee <_vfprintf_r+0xab8>
   13e20: 05 47        	li	a4, 0x1
   13e22: e3 89 e7 62  	beq	a5, a4, 0x14c54 <_vfprintf_r+0x191e>
   13e26: 09 47        	li	a4, 0x2
   13e28: ee 8c        	mv	s9, s11
   13e2a: e3 93 e7 d0  	bne	a5, a4, 0x13b30 <_vfprintf_r+0x7fa>
   13e2e: 06 77        	ld	a4, 0x60(sp)
   13e30: f4 0a        	addi	a3, sp, 0x15c
   13e32: 36 8d        	mv	s10, a3
   13e34: 93 f7 f4 00  	andi	a5, s1, 0xf
   13e38: ba 97        	add	a5, a5, a4
   13e3a: 83 c7 07 00  	lbu	a5, 0x0(a5)
   13e3e: 91 80        	srli	s1, s1, 0x4
   13e40: 7d 1d        	addi	s10, s10, -0x1
   13e42: 23 00 fd 00  	sb	a5, 0x0(s10)
   13e46: fd f4        	bnez	s1, 0x13e34 <_vfprintf_r+0xafe>
   13e48: bb 86 a6 41  	subw	a3, a3, s10
   13e4c: e6 8d        	mv	s11, s9
   13e4e: 6f f0 ff 81  	j	0x1366c <_vfprintf_r+0x336>
   13e52: bb 8c 8b 41  	subw	s9, s7, s8
   13e56: 63 54 90 ef  	blez	s9, 0x1353e <_vfprintf_r+0x208>
   13e5a: ed 68        	lui	a7, 0x1b
   13e5c: c1 45        	li	a1, 0x10
   13e5e: 2e 56        	lw	a2, 0xe8(sp)
   13e60: 93 88 08 73  	addi	a7, a7, 0x730
   13e64: 63 df 95 05  	bge	a1, s9, 0x13ec2 <_vfprintf_r+0xb8c>
   13e68: a2 87        	mv	a5, s0
   13e6a: 26 87        	mv	a4, s1
   13e6c: 66 84        	mv	s0, s9
   13e6e: 41 4f        	li	t5, 0x10
   13e70: e2 8c        	mv	s9, s8
   13e72: 9d 4f        	li	t6, 0x7
   13e74: 9a f4        	sd	t1, 0x68(sp)
   13e76: 36 8c        	mv	s8, a3
   13e78: c6 84        	mv	s1, a7
   13e7a: 21 a0        	j	0x13e82 <_vfprintf_r+0xb4c>
   13e7c: 41 34        	addiw	s0, s0, -0x10
   13e7e: 63 5b 8f 02  	bge	t5, s0, 0x13eb4 <_vfprintf_r+0xb7e>
   13e82: 05 26        	addiw	a2, a2, 0x1
   13e84: 41 07        	addi	a4, a4, 0x10
   13e86: 84 e3        	sd	s1, 0x0(a5)
   13e88: 23 b4 e7 01  	sd	t5, 0x8(a5)
   13e8c: ba f9        	sd	a4, 0xf0(sp)
   13e8e: b2 d5        	sw	a2, 0xe8(sp)
   13e90: c1 07        	addi	a5, a5, 0x10
   13e92: e3 d5 cf fe  	bge	t6, a2, 0x13e7c <_vfprintf_r+0xb46>
   13e96: 22 65        	ld	a0, 0x8(sp)
   13e98: 90 11        	addi	a2, sp, 0xe0
   13e9a: ca 85        	mv	a1, s2
   13e9c: ef 10 e0 13  	jal	0x14fda <__sprint_r>
   13ea0: 63 10 05 10  	bnez	a0, 0x13fa0 <_vfprintf_r+0xc6a>
   13ea4: 41 4f        	li	t5, 0x10
   13ea6: 41 34        	addiw	s0, s0, -0x10
   13ea8: 4e 77        	ld	a4, 0xf0(sp)
   13eaa: 2e 56        	lw	a2, 0xe8(sp)
   13eac: d2 87        	mv	a5, s4
   13eae: 9d 4f        	li	t6, 0x7
   13eb0: e3 49 8f fc  	blt	t5, s0, 0x13e82 <_vfprintf_r+0xb4c>
   13eb4: 26 73        	ld	t1, 0x68(sp)
   13eb6: e2 86        	mv	a3, s8
   13eb8: a6 88        	mv	a7, s1
   13eba: 66 8c        	mv	s8, s9
   13ebc: ba 84        	mv	s1, a4
   13ebe: a2 8c        	mv	s9, s0
   13ec0: 3e 84        	mv	s0, a5
   13ec2: 9b 05 16 00  	addiw	a1, a2, 0x1
   13ec6: e6 94        	add	s1, s1, s9
   13ec8: 23 30 14 01  	sd	a7, 0x0(s0)
   13ecc: 23 34 94 01  	sd	s9, 0x8(s0)
   13ed0: a6 f9        	sd	s1, 0xf0(sp)
   13ed2: ae d5        	sw	a1, 0xe8(sp)
   13ed4: 1d 47        	li	a4, 0x7
   13ed6: 41 04        	addi	s0, s0, 0x10
   13ed8: 63 53 b7 e6  	bge	a4, a1, 0x1353e <_vfprintf_r+0x208>
   13edc: 22 65        	ld	a0, 0x8(sp)
   13ede: 90 11        	addi	a2, sp, 0xe0
   13ee0: ca 85        	mv	a1, s2
   13ee2: 36 e9        	sd	a3, 0x90(sp)
   13ee4: 9a f4        	sd	t1, 0x68(sp)
   13ee6: ef 10 40 0f  	jal	0x14fda <__sprint_r>
   13eea: 5d e9        	bnez	a0, 0x13fa0 <_vfprintf_r+0xc6a>
   13eec: ce 74        	ld	s1, 0xf0(sp)
   13eee: ca 66        	ld	a3, 0x90(sp)
   13ef0: 26 73        	ld	t1, 0x68(sp)
   13ef2: 52 84        	mv	s0, s4
   13ef4: 6f f0 af e4  	j	0x1353e <_vfprintf_r+0x208>
   13ef8: ed 68        	lui	a7, 0x1b
   13efa: 41 47        	li	a4, 0x10
   13efc: 2e 56        	lw	a2, 0xe8(sp)
   13efe: 93 88 08 73  	addi	a7, a7, 0x730
   13f02: 63 5d 67 05  	bge	a4, s6, 0x13f5c <_vfprintf_r+0xc26>
   13f06: a6 85        	mv	a1, s1
   13f08: a2 87        	mv	a5, s0
   13f0a: b6 84        	mv	s1, a3
   13f0c: 5a 84        	mv	s0, s6
   13f0e: 41 47        	li	a4, 0x10
   13f10: 9d 4c        	li	s9, 0x7
   13f12: 9a f4        	sd	t1, 0x68(sp)
   13f14: 56 8b        	mv	s6, s5
   13f16: ae 86        	mv	a3, a1
   13f18: 21 a0        	j	0x13f20 <_vfprintf_r+0xbea>
   13f1a: 41 34        	addiw	s0, s0, -0x10
   13f1c: 63 59 87 02  	bge	a4, s0, 0x13f4e <_vfprintf_r+0xc18>
   13f20: 05 26        	addiw	a2, a2, 0x1
   13f22: c1 06        	addi	a3, a3, 0x10
   13f24: 23 b0 57 01  	sd	s5, 0x0(a5)
   13f28: 98 e7        	sd	a4, 0x8(a5)
   13f2a: b6 f9        	sd	a3, 0xf0(sp)
   13f2c: b2 d5        	sw	a2, 0xe8(sp)
   13f2e: c1 07        	addi	a5, a5, 0x10
   13f30: e3 d5 cc fe  	bge	s9, a2, 0x13f1a <_vfprintf_r+0xbe4>
   13f34: 22 65        	ld	a0, 0x8(sp)
   13f36: 90 11        	addi	a2, sp, 0xe0
   13f38: ca 85        	mv	a1, s2
   13f3a: ef 10 00 0a  	jal	0x14fda <__sprint_r>
   13f3e: 2d e1        	bnez	a0, 0x13fa0 <_vfprintf_r+0xc6a>
   13f40: 41 47        	li	a4, 0x10
   13f42: 41 34        	addiw	s0, s0, -0x10
   13f44: ce 76        	ld	a3, 0xf0(sp)
   13f46: 2e 56        	lw	a2, 0xe8(sp)
   13f48: d2 87        	mv	a5, s4
   13f4a: e3 4b 87 fc  	blt	a4, s0, 0x13f20 <_vfprintf_r+0xbea>
   13f4e: 26 73        	ld	t1, 0x68(sp)
   13f50: 36 87        	mv	a4, a3
   13f52: da 88        	mv	a7, s6
   13f54: a6 86        	mv	a3, s1
   13f56: 22 8b        	mv	s6, s0
   13f58: ba 84        	mv	s1, a4
   13f5a: 3e 84        	mv	s0, a5
   13f5c: 9b 05 16 00  	addiw	a1, a2, 0x1
   13f60: da 94        	add	s1, s1, s6
   13f62: 23 30 14 01  	sd	a7, 0x0(s0)
   13f66: 23 34 64 01  	sd	s6, 0x8(s0)
   13f6a: a6 f9        	sd	s1, 0xf0(sp)
   13f6c: ae d5        	sw	a1, 0xe8(sp)
   13f6e: 1d 47        	li	a4, 0x7
   13f70: 41 04        	addi	s0, s0, 0x10
   13f72: 63 5a b7 dc  	bge	a4, a1, 0x13546 <_vfprintf_r+0x210>
   13f76: 22 65        	ld	a0, 0x8(sp)
   13f78: 90 11        	addi	a2, sp, 0xe0
   13f7a: ca 85        	mv	a1, s2
   13f7c: 36 e9        	sd	a3, 0x90(sp)
   13f7e: 9a f4        	sd	t1, 0x68(sp)
   13f80: ef 10 a0 05  	jal	0x14fda <__sprint_r>
   13f84: 11 ed        	bnez	a0, 0x13fa0 <_vfprintf_r+0xc6a>
   13f86: ce 74        	ld	s1, 0xf0(sp)
   13f88: ca 66        	ld	a3, 0x90(sp)
   13f8a: 26 73        	ld	t1, 0x68(sp)
   13f8c: 52 84        	mv	s0, s4
   13f8e: 6f f0 8f db  	j	0x13546 <_vfprintf_r+0x210>
   13f92: 22 65        	ld	a0, 0x8(sp)
   13f94: 90 11        	addi	a2, sp, 0xe0
   13f96: ca 85        	mv	a1, s2
   13f98: ef 10 20 04  	jal	0x14fda <__sprint_r>
   13f9c: 63 06 05 de  	beqz	a0, 0x13588 <_vfprintf_r+0x252>
   13fa0: e2 65        	ld	a1, 0x18(sp)
   13fa2: 63 84 05 e0  	beqz	a1, 0x135aa <_vfprintf_r+0x274>
   13fa6: 22 65        	ld	a0, 0x8(sp)
   13fa8: ef e0 5f b4  	jal	0x12aec <_free_r>
   13fac: 6f f0 ef df  	j	0x135aa <_vfprintf_r+0x274>
   13fb0: 05 47        	li	a4, 0x1
   13fb2: ee 8c        	mv	s9, s11
   13fb4: e3 9b e7 b6  	bne	a5, a4, 0x13b2a <_vfprintf_r+0x7f4>
   13fb8: a5 47        	li	a5, 0x9
   13fba: 63 e2 97 36  	bltu	a5, s1, 0x1431e <_vfprintf_r+0xfe8>
   13fbe: 9b 84 04 03  	addiw	s1, s1, 0x30
   13fc2: a3 0d 91 14  	sb	s1, 0x15b(sp)
   13fc6: e6 8d        	mv	s11, s9
   13fc8: 85 46        	li	a3, 0x1
   13fca: 13 0d b1 15  	addi	s10, sp, 0x15b
   13fce: 6f f0 ef e9  	j	0x1366c <_vfprintf_r+0x336>
   13fd2: ed 68        	lui	a7, 0x1b
   13fd4: c1 45        	li	a1, 0x10
   13fd6: 2e 56        	lw	a2, 0xe8(sp)
   13fd8: 93 88 08 74  	addi	a7, a7, 0x740
   13fdc: 63 de e5 04  	bge	a1, a4, 0x14038 <_vfprintf_r+0xd02>
   13fe0: 36 ed        	sd	a3, 0x98(sp)
   13fe2: a2 87        	mv	a5, s0
   13fe4: a6 86        	mv	a3, s1
   13fe6: 41 4f        	li	t5, 0x10
   13fe8: 9d 43        	li	t2, 0x7
   13fea: 96 f4        	sd	t0, 0x68(sp)
   13fec: 1a e9        	sd	t1, 0x90(sp)
   13fee: 3a 84        	mv	s0, a4
   13ff0: c6 84        	mv	s1, a7
   13ff2: 21 a0        	j	0x13ffa <_vfprintf_r+0xcc4>
   13ff4: 41 34        	addiw	s0, s0, -0x10
   13ff6: 63 5a 8f 02  	bge	t5, s0, 0x1402a <_vfprintf_r+0xcf4>
   13ffa: 05 26        	addiw	a2, a2, 0x1
   13ffc: c1 06        	addi	a3, a3, 0x10
   13ffe: 84 e3        	sd	s1, 0x0(a5)
   14000: 23 b4 e7 01  	sd	t5, 0x8(a5)
   14004: b6 f9        	sd	a3, 0xf0(sp)
   14006: b2 d5        	sw	a2, 0xe8(sp)
   14008: c1 07        	addi	a5, a5, 0x10
   1400a: e3 d5 c3 fe  	bge	t2, a2, 0x13ff4 <_vfprintf_r+0xcbe>
   1400e: 22 65        	ld	a0, 0x8(sp)
   14010: 90 11        	addi	a2, sp, 0xe0
   14012: ca 85        	mv	a1, s2
   14014: ef 00 70 7c  	jal	0x14fda <__sprint_r>
   14018: 41 f5        	bnez	a0, 0x13fa0 <_vfprintf_r+0xc6a>
   1401a: 41 4f        	li	t5, 0x10
   1401c: 41 34        	addiw	s0, s0, -0x10
   1401e: ce 76        	ld	a3, 0xf0(sp)
   14020: 2e 56        	lw	a2, 0xe8(sp)
   14022: d2 87        	mv	a5, s4
   14024: 9d 43        	li	t2, 0x7
   14026: e3 4a 8f fc  	blt	t5, s0, 0x13ffa <_vfprintf_r+0xcc4>
   1402a: a6 88        	mv	a7, s1
   1402c: a6 72        	ld	t0, 0x68(sp)
   1402e: b6 84        	mv	s1, a3
   14030: 4a 63        	ld	t1, 0x90(sp)
   14032: ea 66        	ld	a3, 0x98(sp)
   14034: 22 87        	mv	a4, s0
   14036: 3e 84        	mv	s0, a5
   14038: ba 94        	add	s1, s1, a4
   1403a: 9b 05 16 00  	addiw	a1, a2, 0x1
   1403e: 18 e4        	sd	a4, 0x8(s0)
   14040: 23 30 14 01  	sd	a7, 0x0(s0)
   14044: a6 f9        	sd	s1, 0xf0(sp)
   14046: ae d5        	sw	a1, 0xe8(sp)
   14048: 1d 47        	li	a4, 0x7
   1404a: 41 04        	addi	s0, s0, 0x10
   1404c: 63 51 b7 ca  	bge	a4, a1, 0x134ee <_vfprintf_r+0x1b8>
   14050: 22 65        	ld	a0, 0x8(sp)
   14052: 90 11        	addi	a2, sp, 0xe0
   14054: ca 85        	mv	a1, s2
   14056: 36 ed        	sd	a3, 0x98(sp)
   14058: 1a e9        	sd	t1, 0x90(sp)
   1405a: 96 f4        	sd	t0, 0x68(sp)
   1405c: ef 00 f0 77  	jal	0x14fda <__sprint_r>
   14060: 21 f1        	bnez	a0, 0x13fa0 <_vfprintf_r+0xc6a>
   14062: ce 74        	ld	s1, 0xf0(sp)
   14064: ea 66        	ld	a3, 0x98(sp)
   14066: 4a 63        	ld	t1, 0x90(sp)
   14068: a6 72        	ld	t0, 0x68(sp)
   1406a: 52 84        	mv	s0, s4
   1406c: 6f f0 2f c8  	j	0x134ee <_vfprintf_r+0x1b8>
   14070: 22 65        	ld	a0, 0x8(sp)
   14072: 90 11        	addi	a2, sp, 0xe0
   14074: ca 85        	mv	a1, s2
   14076: 36 e9        	sd	a3, 0x90(sp)
   14078: 9a f4        	sd	t1, 0x68(sp)
   1407a: ef 00 10 76  	jal	0x14fda <__sprint_r>
   1407e: 0d f1        	bnez	a0, 0x13fa0 <_vfprintf_r+0xc6a>
   14080: ce 74        	ld	s1, 0xf0(sp)
   14082: ca 66        	ld	a3, 0x90(sp)
   14084: 26 73        	ld	t1, 0x68(sp)
   14086: 52 84        	mv	s0, s4
   14088: 6f f0 ef ca  	j	0x13536 <_vfprintf_r+0x200>
   1408c: ed 68        	lui	a7, 0x1b
   1408e: 93 88 08 74  	addi	a7, a7, 0x740
   14092: 41 47        	li	a4, 0x10
   14094: ae 57        	lw	a5, 0xe8(sp)
   14096: c1 4c        	li	s9, 0x10
   14098: 1d 4d        	li	s10, 0x7
   1409a: c6 8d        	mv	s11, a7
   1409c: 63 46 67 01  	blt	a4, s6, 0x140a8 <_vfprintf_r+0xd72>
   140a0: 2d a8        	j	0x140da <_vfprintf_r+0xda4>
   140a2: 41 3b        	addiw	s6, s6, -0x10
   140a4: 63 da 6c 03  	bge	s9, s6, 0x140d8 <_vfprintf_r+0xda2>
   140a8: 85 27        	addiw	a5, a5, 0x1
   140aa: c1 04        	addi	s1, s1, 0x10
   140ac: 23 30 b4 01  	sd	s11, 0x0(s0)
   140b0: 23 34 94 01  	sd	s9, 0x8(s0)
   140b4: a6 f9        	sd	s1, 0xf0(sp)
   140b6: be d5        	sw	a5, 0xe8(sp)
   140b8: 41 04        	addi	s0, s0, 0x10
   140ba: e3 54 fd fe  	bge	s10, a5, 0x140a2 <_vfprintf_r+0xd6c>
   140be: 22 65        	ld	a0, 0x8(sp)
   140c0: 90 11        	addi	a2, sp, 0xe0
   140c2: ca 85        	mv	a1, s2
   140c4: ef 00 70 71  	jal	0x14fda <__sprint_r>
   140c8: e3 1c 05 ec  	bnez	a0, 0x13fa0 <_vfprintf_r+0xc6a>
   140cc: 41 3b        	addiw	s6, s6, -0x10
   140ce: ce 74        	ld	s1, 0xf0(sp)
   140d0: ae 57        	lw	a5, 0xe8(sp)
   140d2: 52 84        	mv	s0, s4
   140d4: e3 ca 6c fd  	blt	s9, s6, 0x140a8 <_vfprintf_r+0xd72>
   140d8: ee 88        	mv	a7, s11
   140da: 1b 87 17 00  	addiw	a4, a5, 0x1
   140de: da 94        	add	s1, s1, s6
   140e0: 23 30 14 01  	sd	a7, 0x0(s0)
   140e4: 23 34 64 01  	sd	s6, 0x8(s0)
   140e8: a6 f9        	sd	s1, 0xf0(sp)
   140ea: ba d5        	sw	a4, 0xe8(sp)
   140ec: 9d 47        	li	a5, 0x7
   140ee: 63 d4 e7 c8  	bge	a5, a4, 0x13576 <_vfprintf_r+0x240>
   140f2: 22 65        	ld	a0, 0x8(sp)
   140f4: 90 11        	addi	a2, sp, 0xe0
   140f6: ca 85        	mv	a1, s2
   140f8: ef 00 30 6e  	jal	0x14fda <__sprint_r>
   140fc: e3 12 05 ea  	bnez	a0, 0x13fa0 <_vfprintf_r+0xc6a>
   14100: ce 74        	ld	s1, 0xf0(sp)
   14102: 6f f0 4f c7  	j	0x13576 <_vfprintf_r+0x240>
   14106: 6a 57        	lw	a4, 0xb8(sp)
   14108: 63 5d e0 40  	blez	a4, 0x14522 <_vfprintf_r+0x11ec>
   1410c: c2 77        	ld	a5, 0x30(sp)
   1410e: 62 77        	ld	a4, 0x38(sp)
   14110: 1b 8b 07 00  	sext.w	s6, a5
   14114: 63 4f f7 24  	blt	a4, a5, 0x14372 <_vfprintf_r+0x103c>
   14118: 63 50 60 03  	blez	s6, 0x14138 <_vfprintf_r+0xe02>
   1411c: 2e 57        	lw	a4, 0xe8(sp)
   1411e: da 94        	add	s1, s1, s6
   14120: 23 30 a4 01  	sd	s10, 0x0(s0)
   14124: 9b 06 17 00  	addiw	a3, a4, 0x1
   14128: 23 34 64 01  	sd	s6, 0x8(s0)
   1412c: a6 f9        	sd	s1, 0xf0(sp)
   1412e: b6 d5        	sw	a3, 0xe8(sp)
   14130: 1d 47        	li	a4, 0x7
   14132: 41 04        	addi	s0, s0, 0x10
   14134: 63 48 d7 7c  	blt	a4, a3, 0x14904 <_vfprintf_r+0x15ce>
   14138: 13 47 fb ff  	not	a4, s6
   1413c: c2 77        	ld	a5, 0x30(sp)
   1413e: 7d 97        	srai	a4, a4, 0x3f
   14140: 33 7b eb 00  	and	s6, s6, a4
   14144: 3b 8b 67 41  	subw	s6, a5, s6
   14148: 63 4c 60 2d  	bgtz	s6, 0x14420 <_vfprintf_r+0x10ea>
   1414c: c2 77        	ld	a5, 0x30(sp)
   1414e: 13 f7 0d 40  	andi	a4, s11, 0x400
   14152: 33 03 fd 00  	add	t1, s10, a5
   14156: 63 10 07 62  	bnez	a4, 0x14776 <_vfprintf_r+0x1440>
   1415a: 6a 57        	lw	a4, 0xb8(sp)
   1415c: e2 77        	ld	a5, 0x38(sp)
   1415e: 63 46 f7 30  	blt	a4, a5, 0x1446a <_vfprintf_r+0x1134>
   14162: 93 f6 1d 00  	andi	a3, s11, 0x1
   14166: 63 92 06 30  	bnez	a3, 0x1446a <_vfprintf_r+0x1134>
   1416a: e2 76        	ld	a3, 0x38(sp)
   1416c: b3 07 dd 00  	add	a5, s10, a3
   14170: 33 8b 67 40  	sub	s6, a5, t1
   14174: 99 9e        	subw	a3, a3, a4
   14176: 9b 07 0b 00  	sext.w	a5, s6
   1417a: 63 d3 f6 00  	bge	a3, a5, 0x14180 <_vfprintf_r+0xe4a>
   1417e: 36 8b        	mv	s6, a3
   14180: 01 2b        	sext.w	s6, s6
   14182: 63 50 60 03  	blez	s6, 0x141a2 <_vfprintf_r+0xe6c>
   14186: ae 57        	lw	a5, 0xe8(sp)
   14188: da 94        	add	s1, s1, s6
   1418a: 23 30 64 00  	sd	t1, 0x0(s0)
   1418e: 1b 87 17 00  	addiw	a4, a5, 0x1
   14192: 23 34 64 01  	sd	s6, 0x8(s0)
   14196: a6 f9        	sd	s1, 0xf0(sp)
   14198: ba d5        	sw	a4, 0xe8(sp)
   1419a: 9d 47        	li	a5, 0x7
   1419c: 41 04        	addi	s0, s0, 0x10
   1419e: e3 ca e7 1e  	blt	a5, a4, 0x14b92 <_vfprintf_r+0x185c>
   141a2: 93 47 fb ff  	not	a5, s6
   141a6: fd 97        	srai	a5, a5, 0x3f
   141a8: 33 7b fb 00  	and	s6, s6, a5
   141ac: 3b 8b 66 41  	subw	s6, a3, s6
   141b0: 63 5b 60 bb  	blez	s6, 0x13566 <_vfprintf_r+0x230>
   141b4: ed 68        	lui	a7, 0x1b
   141b6: 41 47        	li	a4, 0x10
   141b8: ae 57        	lw	a5, 0xe8(sp)
   141ba: 93 88 08 73  	addi	a7, a7, 0x730
   141be: 63 58 67 3f  	bge	a4, s6, 0x145ae <_vfprintf_r+0x1278>
   141c2: 4e f8        	sd	s3, 0x30(sp)
   141c4: c1 4c        	li	s9, 0x10
   141c6: ca 89        	mv	s3, s2
   141c8: 1d 4d        	li	s10, 0x7
   141ca: 5a 89        	mv	s2, s6
   141cc: 46 8b        	mv	s6, a7
   141ce: 21 a0        	j	0x141d6 <_vfprintf_r+0xea0>
   141d0: 41 39        	addiw	s2, s2, -0x10
   141d2: e3 d1 2c 17  	bge	s9, s2, 0x14b34 <_vfprintf_r+0x17fe>
   141d6: 85 27        	addiw	a5, a5, 0x1
   141d8: c1 04        	addi	s1, s1, 0x10
   141da: 23 30 64 01  	sd	s6, 0x0(s0)
   141de: 23 34 94 01  	sd	s9, 0x8(s0)
   141e2: a6 f9        	sd	s1, 0xf0(sp)
   141e4: be d5        	sw	a5, 0xe8(sp)
   141e6: 41 04        	addi	s0, s0, 0x10
   141e8: e3 54 fd fe  	bge	s10, a5, 0x141d0 <_vfprintf_r+0xe9a>
   141ec: 22 65        	ld	a0, 0x8(sp)
   141ee: 90 11        	addi	a2, sp, 0xe0
   141f0: ce 85        	mv	a1, s3
   141f2: ef 00 90 5e  	jal	0x14fda <__sprint_r>
   141f6: e3 14 05 3e  	bnez	a0, 0x14dde <_vfprintf_r+0x1aa8>
   141fa: ce 74        	ld	s1, 0xf0(sp)
   141fc: ae 57        	lw	a5, 0xe8(sp)
   141fe: 52 84        	mv	s0, s4
   14200: c1 bf        	j	0x141d0 <_vfprintf_r+0xe9a>
   14202: 13 f6 1d 00  	andi	a2, s11, 0x1
   14206: e3 1d 06 82  	bnez	a2, 0x13a40 <_vfprintf_r+0x70a>
   1420a: 14 e4        	sd	a3, 0x8(s0)
   1420c: a6 f9        	sd	s1, 0xf0(sp)
   1420e: da d5        	sw	s6, 0xe8(sp)
   14210: 9d 47        	li	a5, 0x7
   14212: e3 d5 67 89  	bge	a5, s6, 0x13a9c <_vfprintf_r+0x766>
   14216: 22 65        	ld	a0, 0x8(sp)
   14218: 90 11        	addi	a2, sp, 0xe0
   1421a: ca 85        	mv	a1, s2
   1421c: ef 00 f0 5b  	jal	0x14fda <__sprint_r>
   14220: e3 10 05 d8  	bnez	a0, 0x13fa0 <_vfprintf_r+0xc6a>
   14224: ce 74        	ld	s1, 0xf0(sp)
   14226: 2e 5b        	lw	s6, 0xe8(sp)
   14228: d2 8c        	mv	s9, s4
   1422a: 8d b8        	j	0x13a9c <_vfprintf_r+0x766>
   1422c: 62 77        	ld	a4, 0x38(sp)
   1422e: 85 47        	li	a5, 0x1
   14230: e3 d6 e7 86  	bge	a5, a4, 0x13a9c <_vfprintf_r+0x766>
   14234: ed 68        	lui	a7, 0x1b
   14236: c5 47        	li	a5, 0x11
   14238: 93 88 08 73  	addi	a7, a7, 0x730
   1423c: 63 dd e7 44  	bge	a5, a4, 0x14696 <_vfprintf_r+0x1360>
   14240: 4e f8        	sd	s3, 0x30(sp)
   14242: 41 47        	li	a4, 0x10
   14244: 1d 4d        	li	s10, 0x7
   14246: c6 89        	mv	s3, a7
   14248: 21 a0        	j	0x14250 <_vfprintf_r+0xf1a>
   1424a: 41 34        	addiw	s0, s0, -0x10
   1424c: 63 53 87 44  	bge	a4, s0, 0x14692 <_vfprintf_r+0x135c>
   14250: 05 2b        	addiw	s6, s6, 0x1
   14252: c1 04        	addi	s1, s1, 0x10
   14254: 23 b0 3c 01  	sd	s3, 0x0(s9)
   14258: 23 b4 ec 00  	sd	a4, 0x8(s9)
   1425c: a6 f9        	sd	s1, 0xf0(sp)
   1425e: da d5        	sw	s6, 0xe8(sp)
   14260: c1 0c        	addi	s9, s9, 0x10
   14262: e3 54 6d ff  	bge	s10, s6, 0x1424a <_vfprintf_r+0xf14>
   14266: 22 65        	ld	a0, 0x8(sp)
   14268: 90 11        	addi	a2, sp, 0xe0
   1426a: ca 85        	mv	a1, s2
   1426c: ef 00 f0 56  	jal	0x14fda <__sprint_r>
   14270: e3 18 05 d2  	bnez	a0, 0x13fa0 <_vfprintf_r+0xc6a>
   14274: ce 74        	ld	s1, 0xf0(sp)
   14276: 2e 5b        	lw	s6, 0xe8(sp)
   14278: d2 8c        	mv	s9, s4
   1427a: 41 47        	li	a4, 0x10
   1427c: f9 b7        	j	0x1424a <_vfprintf_r+0xf14>
   1427e: 93 f7 0c 01  	andi	a5, s9, 0x10
   14282: a9 e3        	bnez	a5, 0x142c4 <_vfprintf_r+0xf8e>
   14284: 82 76        	ld	a3, 0x20(sp)
   14286: 93 f7 0c 04  	andi	a5, s9, 0x40
   1428a: 84 42        	lw	s1, 0x0(a3)
   1428c: 63 84 07 44  	beqz	a5, 0x146d4 <_vfprintf_r+0x139e>
   14290: c2 14        	slli	s1, s1, 0x30
   14292: c1 90        	srli	s1, s1, 0x30
   14294: 3a f0        	sd	a4, 0x20(sp)
   14296: 85 47        	li	a5, 0x1
   14298: 6f f0 6f c1  	j	0x136ae <_vfprintf_r+0x378>
   1429c: 81 46        	li	a3, 0x0
   1429e: 13 0d c1 15  	addi	s10, sp, 0x15c
   142a2: 6f f0 af bc  	j	0x1366c <_vfprintf_r+0x336>
   142a6: 93 f7 1d 00  	andi	a5, s11, 0x1
   142aa: 63 8e 07 aa  	beqz	a5, 0x13566 <_vfprintf_r+0x230>
   142ae: fd bc        	j	0x13dac <_vfprintf_r+0xa76>
   142b0: 03 c3 09 00  	lbu	t1, 0x0(s3)
   142b4: 3e f0        	sd	a5, 0x20(sp)
   142b6: 6f f0 8f 9a  	j	0x1345e <_vfprintf_r+0x128>
   142ba: 82 77        	ld	a5, 0x20(sp)
   142bc: 9c 63        	ld	a5, 0x0(a5)
   142be: be 84        	mv	s1, a5
   142c0: 6f f0 6f b8  	j	0x13646 <_vfprintf_r+0x310>
   142c4: 82 77        	ld	a5, 0x20(sp)
   142c6: 3a f0        	sd	a4, 0x20(sp)
   142c8: 84 63        	ld	s1, 0x0(a5)
   142ca: 85 47        	li	a5, 0x1
   142cc: 6f f0 2f be  	j	0x136ae <_vfprintf_r+0x378>
   142d0: 93 f7 0d 01  	andi	a5, s11, 0x10
   142d4: e3 9e 07 a4  	bnez	a5, 0x13d30 <_vfprintf_r+0x9fa>
   142d8: 93 f7 0d 04  	andi	a5, s11, 0x40
   142dc: 63 91 07 66  	bnez	a5, 0x1493e <_vfprintf_r+0x1608>
   142e0: 13 fe 0d 20  	andi	t3, s11, 0x200
   142e4: c2 67        	ld	a5, 0x10(sp)
   142e6: e3 00 0e 20  	beqz	t3, 0x14ce6 <_vfprintf_r+0x19b0>
   142ea: 23 00 f7 00  	sb	a5, 0x0(a4)
   142ee: 99 b4        	j	0x13d34 <_vfprintf_r+0x9fe>
   142f0: 82 77        	ld	a5, 0x20(sp)
   142f2: 84 63        	ld	s1, 0x0(a5)
   142f4: 6f f0 0f bb  	j	0x136a4 <_vfprintf_r+0x36e>
   142f8: 82 77        	ld	a5, 0x20(sp)
   142fa: 13 8c f7 00  	addi	s8, a5, 0xf
   142fe: 13 7c 0c ff  	andi	s8, s8, -0x10
   14302: 93 07 0c 01  	addi	a5, s8, 0x10
   14306: 03 37 0c 00  	ld	a4, 0x0(s8)
   1430a: 83 35 8c 00  	ld	a1, 0x8(s8)
   1430e: 3e f0        	sd	a5, 0x20(sp)
   14310: 6f f0 0f c1  	j	0x13720 <_vfprintf_r+0x3ea>
   14314: 3a f0        	sd	a4, 0x20(sp)
   14316: a5 47        	li	a5, 0x9
   14318: ee 8c        	mv	s9, s11
   1431a: e3 f2 97 ca  	bgeu	a5, s1, 0x13fbe <_vfprintf_r+0xc88>
   1431e: f4 0a        	addi	a3, sp, 0x15c
   14320: 8a 68        	ld	a7, 0x80(sp)
   14322: 13 f7 0c 40  	andi	a4, s9, 0x400
   14326: 01 46        	li	a2, 0x0
   14328: b6 85        	mv	a1, a3
   1432a: a9 4d        	li	s11, 0xa
   1432c: 25 48        	li	a6, 0x9
   1432e: 13 0c f0 0f  	li	s8, 0xff
   14332: 39 a0        	j	0x14340 <_vfprintf_r+0x100a>
   14334: b3 d7 b4 03  	divu	a5, s1, s11
   14338: 63 76 98 02  	bgeu	a6, s1, 0x14364 <_vfprintf_r+0x102e>
   1433c: be 84        	mv	s1, a5
   1433e: ea 85        	mv	a1, s10
   14340: 13 8d f5 ff  	addi	s10, a1, -0x1
   14344: 05 26        	addiw	a2, a2, 0x1
   14346: b3 f7 b4 03  	remu	a5, s1, s11
   1434a: 9b 87 07 03  	addiw	a5, a5, 0x30
   1434e: a3 8f f5 fe  	sb	a5, -0x1(a1)
   14352: 6d d3        	beqz	a4, 0x14334 <_vfprintf_r+0xffe>
   14354: 83 c7 08 00  	lbu	a5, 0x0(a7)
   14358: e3 1e f6 fc  	bne	a2, a5, 0x14334 <_vfprintf_r+0xffe>
   1435c: e3 8c 87 fd  	beq	a5, s8, 0x14334 <_vfprintf_r+0xffe>
   14360: 63 60 98 3e  	bltu	a6, s1, 0x14740 <_vfprintf_r+0x140a>
   14364: 32 fc        	sd	a2, 0x38(sp)
   14366: 46 e1        	sd	a7, 0x80(sp)
   14368: bb 86 a6 41  	subw	a3, a3, s10
   1436c: e6 8d        	mv	s11, s9
   1436e: 6f f0 ef af  	j	0x1366c <_vfprintf_r+0x336>
   14372: 1b 0b 07 00  	sext.w	s6, a4
   14376: e3 43 60 db  	bgtz	s6, 0x1411c <_vfprintf_r+0xde6>
   1437a: 7d bb        	j	0x14138 <_vfprintf_r+0xe02>
   1437c: 7d 5b        	li	s6, -0x1
   1437e: ba 89        	mv	s3, a4
   14380: 6f f0 2f 8e  	j	0x13462 <_vfprintf_r+0x12c>
   14384: ee 8c        	mv	s9, s11
   14386: f1 b8        	j	0x13c62 <_vfprintf_r+0x92c>
   14388: ed 67        	lui	a5, 0x1b
   1438a: 93 87 87 16  	addi	a5, a5, 0x168
   1438e: be f0        	sd	a5, 0x60(sp)
   14390: 82 76        	ld	a3, 0x20(sp)
   14392: 93 f7 0d 02  	andi	a5, s11, 0x20
   14396: 13 87 86 00  	addi	a4, a3, 0x8
   1439a: 63 86 07 14  	beqz	a5, 0x144e6 <_vfprintf_r+0x11b0>
   1439e: 84 62        	ld	s1, 0x0(a3)
   143a0: 93 f7 1d 00  	andi	a5, s11, 0x1
   143a4: 81 cf        	beqz	a5, 0x143bc <_vfprintf_r+0x1086>
   143a6: 99 c8        	beqz	s1, 0x143bc <_vfprintf_r+0x1086>
   143a8: 13 ee 2d 00  	ori	t3, s11, 0x2
   143ac: 93 07 00 03  	li	a5, 0x30
   143b0: 23 08 f1 0a  	sb	a5, 0xb0(sp)
   143b4: a3 08 61 0a  	sb	t1, 0xb1(sp)
   143b8: 9b 0d 0e 00  	sext.w	s11, t3
   143bc: 93 fc fd bf  	andi	s9, s11, -0x401
   143c0: 81 2c        	sext.w	s9, s9
   143c2: 3a f0        	sd	a4, 0x20(sp)
   143c4: 89 47        	li	a5, 0x2
   143c6: 6f f0 8f ae  	j	0x136ae <_vfprintf_r+0x378>
   143ca: ed 67        	lui	a5, 0x1b
   143cc: 93 87 07 15  	addi	a5, a5, 0x150
   143d0: be f0        	sd	a5, 0x60(sp)
   143d2: 7d bf        	j	0x14390 <_vfprintf_r+0x105a>
   143d4: 93 ed 0d 20  	ori	s11, s11, 0x200
   143d8: 03 c3 19 00  	lbu	t1, 0x1(s3)
   143dc: 81 2d        	sext.w	s11, s11
   143de: 85 09        	addi	s3, s3, 0x1
   143e0: 6f f0 ef 87  	j	0x1345e <_vfprintf_r+0x128>
   143e4: 93 ed 0d 02  	ori	s11, s11, 0x20
   143e8: 03 c3 19 00  	lbu	t1, 0x1(s3)
   143ec: 81 2d        	sext.w	s11, s11
   143ee: 85 09        	addi	s3, s3, 0x1
   143f0: 6f f0 ef 86  	j	0x1345e <_vfprintf_r+0x128>
   143f4: 22 65        	ld	a0, 0x8(sp)
   143f6: 90 11        	addi	a2, sp, 0xe0
   143f8: ca 85        	mv	a1, s2
   143fa: ef 00 10 3e  	jal	0x14fda <__sprint_r>
   143fe: e3 11 05 ba  	bnez	a0, 0x13fa0 <_vfprintf_r+0xc6a>
   14402: ce 74        	ld	s1, 0xf0(sp)
   14404: 52 84        	mv	s0, s4
   14406: d1 b2        	j	0x13dca <_vfprintf_r+0xa94>
   14408: 99 47        	li	a5, 0x6
   1440a: 9b 06 0b 00  	sext.w	a3, s6
   1440e: 63 e6 67 51  	bltu	a5, s6, 0x1491a <_vfprintf_r+0x15e4>
   14412: ed 67        	lui	a5, 0x1b
   14414: 36 8c        	mv	s8, a3
   14416: 26 f0        	sd	s1, 0x20(sp)
   14418: 13 8d 07 18  	addi	s10, a5, 0x180
   1441c: 6f f0 cf 8a  	j	0x134c8 <_vfprintf_r+0x192>
   14420: ed 68        	lui	a7, 0x1b
   14422: c1 46        	li	a3, 0x10
   14424: 2e 57        	lw	a4, 0xe8(sp)
   14426: 93 88 08 73  	addi	a7, a7, 0x730
   1442a: 63 d4 66 2f  	bge	a3, s6, 0x14712 <_vfprintf_r+0x13dc>
   1442e: c1 46        	li	a3, 0x10
   14430: 1d 43        	li	t1, 0x7
   14432: c6 8c        	mv	s9, a7
   14434: 21 a0        	j	0x1443c <_vfprintf_r+0x1106>
   14436: 41 3b        	addiw	s6, s6, -0x10
   14438: 63 dc 66 2d  	bge	a3, s6, 0x14710 <_vfprintf_r+0x13da>
   1443c: 05 27        	addiw	a4, a4, 0x1
   1443e: c1 04        	addi	s1, s1, 0x10
   14440: 23 30 94 01  	sd	s9, 0x0(s0)
   14444: 14 e4        	sd	a3, 0x8(s0)
   14446: a6 f9        	sd	s1, 0xf0(sp)
   14448: ba d5        	sw	a4, 0xe8(sp)
   1444a: 41 04        	addi	s0, s0, 0x10
   1444c: e3 55 e3 fe  	bge	t1, a4, 0x14436 <_vfprintf_r+0x1100>
   14450: 22 65        	ld	a0, 0x8(sp)
   14452: 90 11        	addi	a2, sp, 0xe0
   14454: ca 85        	mv	a1, s2
   14456: ef 00 50 38  	jal	0x14fda <__sprint_r>
   1445a: e3 13 05 b4  	bnez	a0, 0x13fa0 <_vfprintf_r+0xc6a>
   1445e: ce 74        	ld	s1, 0xf0(sp)
   14460: 2e 57        	lw	a4, 0xe8(sp)
   14462: 52 84        	mv	s0, s4
   14464: 1d 43        	li	t1, 0x7
   14466: c1 46        	li	a3, 0x10
   14468: f9 b7        	j	0x14436 <_vfprintf_r+0x1100>
   1446a: ae 56        	lw	a3, 0xe8(sp)
   1446c: c6 67        	ld	a5, 0x50(sp)
   1446e: 66 66        	ld	a2, 0x58(sp)
   14470: 41 04        	addi	s0, s0, 0x10
   14472: be 94        	add	s1, s1, a5
   14474: 23 38 c4 fe  	sd	a2, -0x10(s0)
   14478: 1b 86 16 00  	addiw	a2, a3, 0x1
   1447c: 23 3c f4 fe  	sd	a5, -0x8(s0)
   14480: a6 f9        	sd	s1, 0xf0(sp)
   14482: b2 d5        	sw	a2, 0xe8(sp)
   14484: 9d 46        	li	a3, 0x7
   14486: e3 d2 c6 ce  	bge	a3, a2, 0x1416a <_vfprintf_r+0xe34>
   1448a: 22 65        	ld	a0, 0x8(sp)
   1448c: 90 11        	addi	a2, sp, 0xe0
   1448e: ca 85        	mv	a1, s2
   14490: 1a f8        	sd	t1, 0x30(sp)
   14492: ef 00 90 34  	jal	0x14fda <__sprint_r>
   14496: e3 15 05 b0  	bnez	a0, 0x13fa0 <_vfprintf_r+0xc6a>
   1449a: 6a 57        	lw	a4, 0xb8(sp)
   1449c: ce 74        	ld	s1, 0xf0(sp)
   1449e: 42 73        	ld	t1, 0x30(sp)
   144a0: 52 84        	mv	s0, s4
   144a2: e1 b1        	j	0x1416a <_vfprintf_r+0xe34>
   144a4: 93 07 80 07  	li	a5, 0x78
   144a8: 93 06 00 03  	li	a3, 0x30
   144ac: 13 e7 2d 00  	ori	a4, s11, 0x2
   144b0: a3 08 f1 0a  	sb	a5, 0xb1(sp)
   144b4: 23 08 d1 0a  	sb	a3, 0xb0(sp)
   144b8: 93 07 30 06  	li	a5, 0x63
   144bc: 01 27        	sext.w	a4, a4
   144be: 63 cf 67 4b  	blt	a5, s6, 0x1497c <_vfprintf_r+0x1646>
   144c2: ce 67        	ld	a5, 0xd0(sp)
   144c4: ee 6c        	ld	s9, 0xd8(sp)
   144c6: 13 ee 2d 10  	ori	t3, s11, 0x102
   144ca: 3e f8        	sd	a5, 0x30(sp)
   144cc: 9b 04 0e 00  	sext.w	s1, t3
   144d0: 63 cf 0c 60  	bltz	s9, 0x14aee <_vfprintf_r+0x17b8>
   144d4: 9b 06 f3 fb  	addiw	a3, t1, -0x41
   144d8: ba 8d        	mv	s11, a4
   144da: 82 f4        	sd	zero, 0x68(sp)
   144dc: 02 ec        	sd	zero, 0x18(sp)
   144de: 13 0d 81 0f  	addi	s10, sp, 0xf8
   144e2: 6f f0 6f ab  	j	0x13798 <_vfprintf_r+0x462>
   144e6: 93 f7 0d 01  	andi	a5, s11, 0x10
   144ea: d1 c7        	beqz	a5, 0x14576 <_vfprintf_r+0x1240>
   144ec: 82 77        	ld	a5, 0x20(sp)
   144ee: 84 63        	ld	s1, 0x0(a5)
   144f0: 45 bd        	j	0x143a0 <_vfprintf_r+0x106a>
   144f2: 22 65        	ld	a0, 0x8(sp)
   144f4: 90 11        	addi	a2, sp, 0xe0
   144f6: ca 85        	mv	a1, s2
   144f8: ef 00 30 2e  	jal	0x14fda <__sprint_r>
   144fc: e3 12 05 aa  	bnez	a0, 0x13fa0 <_vfprintf_r+0xc6a>
   14500: ce 74        	ld	s1, 0xf0(sp)
   14502: 2e 5b        	lw	s6, 0xe8(sp)
   14504: d2 8c        	mv	s9, s4
   14506: 6f f0 8f d4  	j	0x13a4e <_vfprintf_r+0x718>
   1450a: 22 65        	ld	a0, 0x8(sp)
   1450c: 90 11        	addi	a2, sp, 0xe0
   1450e: ca 85        	mv	a1, s2
   14510: ef 00 b0 2c  	jal	0x14fda <__sprint_r>
   14514: e3 16 05 a8  	bnez	a0, 0x13fa0 <_vfprintf_r+0xc6a>
   14518: ce 74        	ld	s1, 0xf0(sp)
   1451a: 2e 5b        	lw	s6, 0xe8(sp)
   1451c: d2 8c        	mv	s9, s4
   1451e: 6f f0 cf d4  	j	0x13a6a <_vfprintf_r+0x734>
   14522: ae 56        	lw	a3, 0xe8(sp)
   14524: 6d 66        	lui	a2, 0x1b
   14526: 13 06 86 18  	addi	a2, a2, 0x188
   1452a: 85 26        	addiw	a3, a3, 0x1
   1452c: 10 e0        	sd	a2, 0x0(s0)
   1452e: 85 04        	addi	s1, s1, 0x1
   14530: 05 46        	li	a2, 0x1
   14532: 10 e4        	sd	a2, 0x8(s0)
   14534: b6 d5        	sw	a3, 0xe8(sp)
   14536: 1b 86 06 00  	sext.w	a2, a3
   1453a: a6 f9        	sd	s1, 0xf0(sp)
   1453c: 9d 46        	li	a3, 0x7
   1453e: 41 04        	addi	s0, s0, 0x10
   14540: 63 c3 c6 3a  	blt	a3, a2, 0x148e6 <_vfprintf_r+0x15b0>
   14544: 63 13 07 10  	bnez	a4, 0x1464a <_vfprintf_r+0x1314>
   14548: e2 77        	ld	a5, 0x38(sp)
   1454a: 13 f7 1d 00  	andi	a4, s11, 0x1
   1454e: 5d 8f        	or	a4, a4, a5
   14550: 19 e3        	bnez	a4, 0x14556 <_vfprintf_r+0x1220>
   14552: 6f f0 4f 81  	j	0x13566 <_vfprintf_r+0x230>
   14556: 2e 57        	lw	a4, 0xe8(sp)
   14558: c6 67        	ld	a5, 0x50(sp)
   1455a: e6 66        	ld	a3, 0x58(sp)
   1455c: 33 86 97 00  	add	a2, a5, s1
   14560: 14 e0        	sd	a3, 0x0(s0)
   14562: 9b 06 17 00  	addiw	a3, a4, 0x1
   14566: 1c e4        	sd	a5, 0x8(s0)
   14568: b2 f9        	sd	a2, 0xf0(sp)
   1456a: b6 d5        	sw	a3, 0xe8(sp)
   1456c: 1d 47        	li	a4, 0x7
   1456e: 63 4b d7 3e  	blt	a4, a3, 0x14964 <_vfprintf_r+0x162e>
   14572: 41 04        	addi	s0, s0, 0x10
   14574: f5 a8        	j	0x14670 <_vfprintf_r+0x133a>
   14576: 82 76        	ld	a3, 0x20(sp)
   14578: 93 f7 0d 04  	andi	a5, s11, 0x40
   1457c: 84 42        	lw	s1, 0x0(a3)
   1457e: 63 85 07 16  	beqz	a5, 0x146e8 <_vfprintf_r+0x13b2>
   14582: c2 14        	slli	s1, s1, 0x30
   14584: c1 90        	srli	s1, s1, 0x30
   14586: 29 bd        	j	0x143a0 <_vfprintf_r+0x106a>
   14588: 22 65        	ld	a0, 0x8(sp)
   1458a: ef d0 df bf  	jal	0x12186 <__sinit>
   1458e: 6f e0 3f de  	j	0x13370 <_vfprintf_r+0x3a>
   14592: 22 65        	ld	a0, 0x8(sp)
   14594: 90 11        	addi	a2, sp, 0xe0
   14596: ca 85        	mv	a1, s2
   14598: ef 00 30 24  	jal	0x14fda <__sprint_r>
   1459c: e3 12 05 a0  	bnez	a0, 0x13fa0 <_vfprintf_r+0xc6a>
   145a0: ce 74        	ld	s1, 0xf0(sp)
   145a2: 52 84        	mv	s0, s4
   145a4: 6f f0 1f 80  	j	0x13da4 <_vfprintf_r+0xa6e>
   145a8: da 88        	mv	a7, s6
   145aa: 4e 8b        	mv	s6, s3
   145ac: c2 79        	ld	s3, 0x30(sp)
   145ae: 1b 87 17 00  	addiw	a4, a5, 0x1
   145b2: 23 30 14 01  	sd	a7, 0x0(s0)
   145b6: 23 34 64 01  	sd	s6, 0x8(s0)
   145ba: da 94        	add	s1, s1, s6
   145bc: a6 f9        	sd	s1, 0xf0(sp)
   145be: ba d5        	sw	a4, 0xe8(sp)
   145c0: 9d 47        	li	a5, 0x7
   145c2: 63 c4 e7 00  	blt	a5, a4, 0x145ca <_vfprintf_r+0x1294>
   145c6: 6f e0 ff f9  	j	0x13564 <_vfprintf_r+0x22e>
   145ca: 6f f0 4f cf  	j	0x13abe <_vfprintf_r+0x788>
   145ce: 3a f0        	sd	a4, 0x20(sp)
   145d0: e5 b2        	j	0x13fb8 <_vfprintf_r+0xc82>
   145d2: 4e 65        	ld	a0, 0xd0(sp)
   145d4: ee 65        	ld	a1, 0xd8(sp)
   145d6: 01 46        	li	a2, 0x0
   145d8: 81 46        	li	a3, 0x0
   145da: ef 50 70 11  	jal	0x19ef0 <__lttf2>
   145de: 62 63        	ld	t1, 0x18(sp)
   145e0: 63 43 05 54  	bltz	a0, 0x14b26 <_vfprintf_r+0x17f0>
   145e4: 03 47 f1 0a  	lbu	a4, 0xaf(sp)
   145e8: 93 07 70 04  	li	a5, 0x47
   145ec: 63 d8 67 30  	bge	a5, t1, 0x148fc <_vfprintf_r+0x15c6>
   145f0: ed 67        	lui	a5, 0x1b
   145f2: 13 8d 87 13  	addi	s10, a5, 0x138
   145f6: 13 fe fd f7  	andi	t3, s11, -0x81
   145fa: 02 ec        	sd	zero, 0x18(sp)
   145fc: 82 e4        	sd	zero, 0x48(sp)
   145fe: 82 e0        	sd	zero, 0x40(sp)
   14600: 02 f8        	sd	zero, 0x30(sp)
   14602: 9b 0d 0e 00  	sext.w	s11, t3
   14606: 0d 4c        	li	s8, 0x3
   14608: 8d 46        	li	a3, 0x3
   1460a: 01 4b        	li	s6, 0x0
   1460c: 19 c3        	beqz	a4, 0x14612 <_vfprintf_r+0x12dc>
   1460e: 6f f0 af 87  	j	0x13688 <_vfprintf_r+0x352>
   14612: 6f e0 1f ec  	j	0x134d2 <_vfprintf_r+0x19c>
   14616: 6a 85        	mv	a0, s10
   14618: 9a f4        	sd	t1, 0x68(sp)
   1461a: ef e0 4f a8  	jal	0x1289e <strlen>
   1461e: 9b 06 05 00  	sext.w	a3, a0
   14622: 03 47 f1 0a  	lbu	a4, 0xaf(sp)
   14626: 13 c8 f6 ff  	not	a6, a3
   1462a: 13 58 f8 43  	srai	a6, a6, 0x3f
   1462e: 26 f0        	sd	s1, 0x20(sp)
   14630: 02 ec        	sd	zero, 0x18(sp)
   14632: 82 e4        	sd	zero, 0x48(sp)
   14634: 82 e0        	sd	zero, 0x40(sp)
   14636: 02 f8        	sd	zero, 0x30(sp)
   14638: 26 73        	ld	t1, 0x68(sp)
   1463a: 33 7c d8 00  	and	s8, a6, a3
   1463e: 01 4b        	li	s6, 0x0
   14640: 19 c3        	beqz	a4, 0x14646 <_vfprintf_r+0x1310>
   14642: 6f f0 6f 84  	j	0x13688 <_vfprintf_r+0x352>
   14646: 6f e0 df e8  	j	0x134d2 <_vfprintf_r+0x19c>
   1464a: ae 55        	lw	a1, 0xe8(sp)
   1464c: c6 67        	ld	a5, 0x50(sp)
   1464e: e6 66        	ld	a3, 0x58(sp)
   14650: 41 04        	addi	s0, s0, 0x10
   14652: 33 86 97 00  	add	a2, a5, s1
   14656: 23 38 d4 fe  	sd	a3, -0x10(s0)
   1465a: 9b 86 15 00  	addiw	a3, a1, 0x1
   1465e: 23 3c f4 fe  	sd	a5, -0x8(s0)
   14662: b2 f9        	sd	a2, 0xf0(sp)
   14664: b6 d5        	sw	a3, 0xe8(sp)
   14666: 9d 45        	li	a1, 0x7
   14668: 63 ce d5 2e  	blt	a1, a3, 0x14964 <_vfprintf_r+0x162e>
   1466c: 63 46 07 54  	bltz	a4, 0x14bb8 <_vfprintf_r+0x1882>
   14670: e2 77        	ld	a5, 0x38(sp)
   14672: 1b 87 16 00  	addiw	a4, a3, 0x1
   14676: 23 30 a4 01  	sd	s10, 0x0(s0)
   1467a: b3 84 c7 00  	add	s1, a5, a2
   1467e: 1c e4        	sd	a5, 0x8(s0)
   14680: a6 f9        	sd	s1, 0xf0(sp)
   14682: ba d5        	sw	a4, 0xe8(sp)
   14684: 9d 47        	li	a5, 0x7
   14686: 63 c4 e7 00  	blt	a5, a4, 0x1468e <_vfprintf_r+0x1358>
   1468a: 6f e0 bf ed  	j	0x13564 <_vfprintf_r+0x22e>
   1468e: 6f f0 0f c3  	j	0x13abe <_vfprintf_r+0x788>
   14692: ce 88        	mv	a7, s3
   14694: c2 79        	ld	s3, 0x30(sp)
   14696: 05 2b        	addiw	s6, s6, 0x1
   14698: a2 94        	add	s1, s1, s0
   1469a: 23 b0 1c 01  	sd	a7, 0x0(s9)
   1469e: 23 b4 8c 00  	sd	s0, 0x8(s9)
   146a2: a6 f9        	sd	s1, 0xf0(sp)
   146a4: da d5        	sw	s6, 0xe8(sp)
   146a6: 9d 47        	li	a5, 0x7
   146a8: 63 d9 67 bf  	bge	a5, s6, 0x13a9a <_vfprintf_r+0x764>
   146ac: ad b6        	j	0x14216 <_vfprintf_r+0xee0>
   146ae: 93 f7 0d 20  	andi	a5, s11, 0x200
   146b2: 63 82 07 28  	beqz	a5, 0x14936 <_vfprintf_r+0x1600>
   146b6: 93 f4 f4 0f  	andi	s1, s1, 0xff
   146ba: 6f e0 bf fe  	j	0x136a4 <_vfprintf_r+0x36e>
   146be: 93 f7 0d 20  	andi	a5, s11, 0x200
   146c2: 63 87 07 26  	beqz	a5, 0x14930 <_vfprintf_r+0x15fa>
   146c6: 9b 94 84 01  	slliw	s1, s1, 0x18
   146ca: 9b d4 84 41  	sraiw	s1, s1, 0x18
   146ce: a6 87        	mv	a5, s1
   146d0: 6f e0 7f f7  	j	0x13646 <_vfprintf_r+0x310>
   146d4: 93 f7 0c 20  	andi	a5, s9, 0x200
   146d8: 63 86 07 24  	beqz	a5, 0x14924 <_vfprintf_r+0x15ee>
   146dc: 93 f4 f4 0f  	andi	s1, s1, 0xff
   146e0: 3a f0        	sd	a4, 0x20(sp)
   146e2: 85 47        	li	a5, 0x1
   146e4: 6f e0 bf fc  	j	0x136ae <_vfprintf_r+0x378>
   146e8: 93 f7 0d 20  	andi	a5, s11, 0x200
   146ec: 63 89 07 22  	beqz	a5, 0x1491e <_vfprintf_r+0x15e8>
   146f0: 93 f4 f4 0f  	andi	s1, s1, 0xff
   146f4: 75 b1        	j	0x143a0 <_vfprintf_r+0x106a>
   146f6: ee 67        	ld	a5, 0xd8(sp)
   146f8: 63 cf 07 24  	bltz	a5, 0x14956 <_vfprintf_r+0x1620>
   146fc: 03 47 f1 0a  	lbu	a4, 0xaf(sp)
   14700: 93 07 70 04  	li	a5, 0x47
   14704: 63 c6 67 4a  	blt	a5, t1, 0x14bb0 <_vfprintf_r+0x187a>
   14708: ed 67        	lui	a5, 0x1b
   1470a: 13 8d 07 14  	addi	s10, a5, 0x140
   1470e: e5 b5        	j	0x145f6 <_vfprintf_r+0x12c0>
   14710: e6 88        	mv	a7, s9
   14712: 9b 06 17 00  	addiw	a3, a4, 0x1
   14716: da 94        	add	s1, s1, s6
   14718: 23 30 14 01  	sd	a7, 0x0(s0)
   1471c: 23 34 64 01  	sd	s6, 0x8(s0)
   14720: a6 f9        	sd	s1, 0xf0(sp)
   14722: b6 d5        	sw	a3, 0xe8(sp)
   14724: 1d 47        	li	a4, 0x7
   14726: 41 04        	addi	s0, s0, 0x10
   14728: e3 52 d7 a2  	bge	a4, a3, 0x1414c <_vfprintf_r+0xe16>
   1472c: 22 65        	ld	a0, 0x8(sp)
   1472e: 90 11        	addi	a2, sp, 0xe0
   14730: ca 85        	mv	a1, s2
   14732: ef 00 90 0a  	jal	0x14fda <__sprint_r>
   14736: e3 15 05 86  	bnez	a0, 0x13fa0 <_vfprintf_r+0xc6a>
   1473a: ce 74        	ld	s1, 0xf0(sp)
   1473c: 52 84        	mv	s0, s4
   1473e: 39 b4        	j	0x1414c <_vfprintf_r+0xe16>
   14740: aa 67        	ld	a5, 0x88(sp)
   14742: e6 75        	ld	a1, 0x78(sp)
   14744: b6 e0        	sd	a3, 0x40(sp)
   14746: 33 0d fd 40  	sub	s10, s10, a5
   1474a: 3e 86        	mv	a2, a5
   1474c: 6a 85        	mv	a0, s10
   1474e: 3a fc        	sd	a4, 0x38(sp)
   14750: 1a f8        	sd	t1, 0x30(sp)
   14752: 46 ec        	sd	a7, 0x18(sp)
   14754: ef 20 00 0b  	jal	0x16804 <strncpy>
   14758: e2 68        	ld	a7, 0x18(sp)
   1475a: a9 47        	li	a5, 0xa
   1475c: b3 d7 f4 02  	divu	a5, s1, a5
   14760: 03 c6 18 00  	lbu	a2, 0x1(a7)
   14764: 42 73        	ld	t1, 0x30(sp)
   14766: 62 77        	ld	a4, 0x38(sp)
   14768: 33 36 c0 00  	snez	a2, a2
   1476c: b2 98        	add	a7, a7, a2
   1476e: 86 66        	ld	a3, 0x40(sp)
   14770: 01 46        	li	a2, 0x0
   14772: 25 48        	li	a6, 0x9
   14774: e1 b6        	j	0x1433c <_vfprintf_r+0x1006>
   14776: e2 77        	ld	a5, 0x38(sp)
   14778: 86 6c        	ld	s9, 0x40(sp)
   1477a: ed 68        	lui	a7, 0x1b
   1477c: b3 05 fd 00  	add	a1, s10, a5
   14780: ce f4        	sd	s3, 0x68(sp)
   14782: 6e e9        	sd	s11, 0x90(sp)
   14784: 5e ed        	sd	s7, 0x98(sp)
   14786: a6 6d        	ld	s11, 0x48(sp)
   14788: e2 e0        	sd	s8, 0x40(sp)
   1478a: ea e4        	sd	s10, 0x48(sp)
   1478c: 26 86        	mv	a2, s1
   1478e: aa 6b        	ld	s7, 0x88(sp)
   14790: 0a 6c        	ld	s8, 0x80(sp)
   14792: a2 69        	ld	s3, 0x8(sp)
   14794: 9d 46        	li	a3, 0x7
   14796: 41 47        	li	a4, 0x10
   14798: 13 8b 08 73  	addi	s6, a7, 0x730
   1479c: a2 87        	mv	a5, s0
   1479e: 1a 8d        	mv	s10, t1
   147a0: ae 84        	mv	s1, a1
   147a2: 63 5d 90 07  	blez	s9, 0x1481c <_vfprintf_r+0x14e6>
   147a6: 63 51 b0 11  	blez	s11, 0x148a8 <_vfprintf_r+0x1572>
   147aa: fd 3d        	addiw	s11, s11, -0x1
   147ac: ae 55        	lw	a1, 0xe8(sp)
   147ae: 66 75        	ld	a0, 0x78(sp)
   147b0: 5e 96        	add	a2, a2, s7
   147b2: 23 b4 77 01  	sd	s7, 0x8(a5)
   147b6: 88 e3        	sd	a0, 0x0(a5)
   147b8: 1b 85 15 00  	addiw	a0, a1, 0x1
   147bc: b2 f9        	sd	a2, 0xf0(sp)
   147be: aa d5        	sw	a0, 0xe8(sp)
   147c0: c1 07        	addi	a5, a5, 0x10
   147c2: 63 c6 a6 0e  	blt	a3, a0, 0x148ae <_vfprintf_r+0x1578>
   147c6: 83 45 0c 00  	lbu	a1, 0x0(s8)
   147ca: 33 8f a4 41  	sub	t5, s1, s10
   147ce: 1b 05 0f 00  	sext.w	a0, t5
   147d2: 1b 88 05 00  	sext.w	a6, a1
   147d6: 63 d3 a5 00  	bge	a1, a0, 0x147dc <_vfprintf_r+0x14a6>
   147da: 42 8f        	mv	t5, a6
   147dc: 1b 04 0f 00  	sext.w	s0, t5
   147e0: 63 52 80 02  	blez	s0, 0x14804 <_vfprintf_r+0x14ce>
   147e4: ae 55        	lw	a1, 0xe8(sp)
   147e6: 22 96        	add	a2, a2, s0
   147e8: 23 b0 a7 01  	sd	s10, 0x0(a5)
   147ec: 1b 85 15 00  	addiw	a0, a1, 0x1
   147f0: 80 e7        	sd	s0, 0x8(a5)
   147f2: b2 f9        	sd	a2, 0xf0(sp)
   147f4: aa d5        	sw	a0, 0xe8(sp)
   147f6: 63 c8 a6 0c  	blt	a3, a0, 0x148c6 <_vfprintf_r+0x1590>
   147fa: 83 45 0c 00  	lbu	a1, 0x0(s8)
   147fe: c1 07        	addi	a5, a5, 0x10
   14800: 1b 88 05 00  	sext.w	a6, a1
   14804: 13 45 f4 ff  	not	a0, s0
   14808: 7d 95        	srai	a0, a0, 0x3f
   1480a: 33 7f a4 00  	and	t5, s0, a0
   1480e: 3b 04 e8 41  	subw	s0, a6, t5
   14812: 63 47 80 02  	bgtz	s0, 0x14840 <_vfprintf_r+0x150a>
   14816: 2e 9d        	add	s10, s10, a1
   14818: e3 47 90 f9  	bgtz	s9, 0x147a6 <_vfprintf_r+0x1470>
   1481c: e3 47 b0 f9  	bgtz	s11, 0x147aa <_vfprintf_r+0x1474>
   14820: 6a 83        	mv	t1, s10
   14822: 3e 84        	mv	s0, a5
   14824: 26 6d        	ld	s10, 0x48(sp)
   14826: e2 77        	ld	a5, 0x38(sp)
   14828: 62 e1        	sd	s8, 0x80(sp)
   1482a: a6 79        	ld	s3, 0x68(sp)
   1482c: 33 07 fd 00  	add	a4, s10, a5
   14830: ca 6d        	ld	s11, 0x90(sp)
   14832: ea 6b        	ld	s7, 0x98(sp)
   14834: 06 6c        	ld	s8, 0x40(sp)
   14836: b2 84        	mv	s1, a2
   14838: e3 71 67 92  	bgeu	a4, t1, 0x1415a <_vfprintf_r+0xe24>
   1483c: 3a 83        	mv	t1, a4
   1483e: 31 ba        	j	0x1415a <_vfprintf_r+0xe24>
   14840: 6d 6f        	lui	t5, 0x1b
   14842: ae 55        	lw	a1, 0xe8(sp)
   14844: 13 0f 0f 73  	addi	t5, t5, 0x730
   14848: 63 51 87 04  	bge	a4, s0, 0x1488a <_vfprintf_r+0x1554>
   1484c: 5a f8        	sd	s6, 0x30(sp)
   1484e: 21 a0        	j	0x14856 <_vfprintf_r+0x1520>
   14850: 41 34        	addiw	s0, s0, -0x10
   14852: 63 5b 87 02  	bge	a4, s0, 0x14888 <_vfprintf_r+0x1552>
   14856: 85 25        	addiw	a1, a1, 0x1
   14858: 41 06        	addi	a2, a2, 0x10
   1485a: 23 b0 67 01  	sd	s6, 0x0(a5)
   1485e: 98 e7        	sd	a4, 0x8(a5)
   14860: b2 f9        	sd	a2, 0xf0(sp)
   14862: ae d5        	sw	a1, 0xe8(sp)
   14864: c1 07        	addi	a5, a5, 0x10
   14866: e3 d5 b6 fe  	bge	a3, a1, 0x14850 <_vfprintf_r+0x151a>
   1486a: 90 11        	addi	a2, sp, 0xe0
   1486c: ca 85        	mv	a1, s2
   1486e: 4e 85        	mv	a0, s3
   14870: ef 00 a0 76  	jal	0x14fda <__sprint_r>
   14874: 63 16 05 f2  	bnez	a0, 0x13fa0 <_vfprintf_r+0xc6a>
   14878: 41 47        	li	a4, 0x10
   1487a: 41 34        	addiw	s0, s0, -0x10
   1487c: 4e 76        	ld	a2, 0xf0(sp)
   1487e: ae 55        	lw	a1, 0xe8(sp)
   14880: d2 87        	mv	a5, s4
   14882: 9d 46        	li	a3, 0x7
   14884: e3 49 87 fc  	blt	a4, s0, 0x14856 <_vfprintf_r+0x1520>
   14888: 42 7f        	ld	t5, 0x30(sp)
   1488a: 1b 85 15 00  	addiw	a0, a1, 0x1
   1488e: 22 96        	add	a2, a2, s0
   14890: 23 b0 e7 01  	sd	t5, 0x0(a5)
   14894: 80 e7        	sd	s0, 0x8(a5)
   14896: b2 f9        	sd	a2, 0xf0(sp)
   14898: aa d5        	sw	a0, 0xe8(sp)
   1489a: 63 c7 a6 26  	blt	a3, a0, 0x14b08 <_vfprintf_r+0x17d2>
   1489e: 83 45 0c 00  	lbu	a1, 0x0(s8)
   148a2: c1 07        	addi	a5, a5, 0x10
   148a4: 2e 9d        	add	s10, s10, a1
   148a6: 8d bf        	j	0x14818 <_vfprintf_r+0x14e2>
   148a8: 7d 1c        	addi	s8, s8, -0x1
   148aa: fd 3c        	addiw	s9, s9, -0x1
   148ac: 01 b7        	j	0x147ac <_vfprintf_r+0x1476>
   148ae: 90 11        	addi	a2, sp, 0xe0
   148b0: ca 85        	mv	a1, s2
   148b2: 4e 85        	mv	a0, s3
   148b4: ef 00 60 72  	jal	0x14fda <__sprint_r>
   148b8: 63 14 05 ee  	bnez	a0, 0x13fa0 <_vfprintf_r+0xc6a>
   148bc: 4e 76        	ld	a2, 0xf0(sp)
   148be: d2 87        	mv	a5, s4
   148c0: 41 47        	li	a4, 0x10
   148c2: 9d 46        	li	a3, 0x7
   148c4: 09 b7        	j	0x147c6 <_vfprintf_r+0x1490>
   148c6: 90 11        	addi	a2, sp, 0xe0
   148c8: ca 85        	mv	a1, s2
   148ca: 4e 85        	mv	a0, s3
   148cc: ef 00 e0 70  	jal	0x14fda <__sprint_r>
   148d0: 63 18 05 ec  	bnez	a0, 0x13fa0 <_vfprintf_r+0xc6a>
   148d4: 83 45 0c 00  	lbu	a1, 0x0(s8)
   148d8: 4e 76        	ld	a2, 0xf0(sp)
   148da: d2 87        	mv	a5, s4
   148dc: 1b 88 05 00  	sext.w	a6, a1
   148e0: 41 47        	li	a4, 0x10
   148e2: 9d 46        	li	a3, 0x7
   148e4: 05 b7        	j	0x14804 <_vfprintf_r+0x14ce>
   148e6: 22 65        	ld	a0, 0x8(sp)
   148e8: 90 11        	addi	a2, sp, 0xe0
   148ea: ca 85        	mv	a1, s2
   148ec: ef 00 e0 6e  	jal	0x14fda <__sprint_r>
   148f0: 63 18 05 ea  	bnez	a0, 0x13fa0 <_vfprintf_r+0xc6a>
   148f4: 6a 57        	lw	a4, 0xb8(sp)
   148f6: ce 74        	ld	s1, 0xf0(sp)
   148f8: 52 84        	mv	s0, s4
   148fa: a9 b1        	j	0x14544 <_vfprintf_r+0x120e>
   148fc: ed 67        	lui	a5, 0x1b
   148fe: 13 8d 07 13  	addi	s10, a5, 0x130
   14902: d5 b9        	j	0x145f6 <_vfprintf_r+0x12c0>
   14904: 22 65        	ld	a0, 0x8(sp)
   14906: 90 11        	addi	a2, sp, 0xe0
   14908: ca 85        	mv	a1, s2
   1490a: ef 00 00 6d  	jal	0x14fda <__sprint_r>
   1490e: 63 19 05 e8  	bnez	a0, 0x13fa0 <_vfprintf_r+0xc6a>
   14912: ce 74        	ld	s1, 0xf0(sp)
   14914: 52 84        	mv	s0, s4
   14916: 6f f0 3f 82  	j	0x14138 <_vfprintf_r+0xe02>
   1491a: 99 46        	li	a3, 0x6
   1491c: dd bc        	j	0x14412 <_vfprintf_r+0x10dc>
   1491e: 82 14        	slli	s1, s1, 0x20
   14920: 81 90        	srli	s1, s1, 0x20
   14922: bd bc        	j	0x143a0 <_vfprintf_r+0x106a>
   14924: 82 14        	slli	s1, s1, 0x20
   14926: 81 90        	srli	s1, s1, 0x20
   14928: 3a f0        	sd	a4, 0x20(sp)
   1492a: 85 47        	li	a5, 0x1
   1492c: 6f e0 3f d8  	j	0x136ae <_vfprintf_r+0x378>
   14930: a6 87        	mv	a5, s1
   14932: 6f e0 5f d1  	j	0x13646 <_vfprintf_r+0x310>
   14936: 82 14        	slli	s1, s1, 0x20
   14938: 81 90        	srli	s1, s1, 0x20
   1493a: 6f e0 bf d6  	j	0x136a4 <_vfprintf_r+0x36e>
   1493e: c2 67        	ld	a5, 0x10(sp)
   14940: 23 10 f7 00  	sh	a5, 0x0(a4)
   14944: 6f f0 0f bf  	j	0x13d34 <_vfprintf_r+0x9fe>
   14948: 22 65        	ld	a0, 0x8(sp)
   1494a: 90 11        	addi	a2, sp, 0xe0
   1494c: ca 85        	mv	a1, s2
   1494e: ef 00 c0 68  	jal	0x14fda <__sprint_r>
   14952: 6f e0 9f c5  	j	0x135aa <_vfprintf_r+0x274>
   14956: 93 07 d0 02  	li	a5, 0x2d
   1495a: a3 07 f1 0a  	sb	a5, 0xaf(sp)
   1495e: 13 07 d0 02  	li	a4, 0x2d
   14962: 79 bb        	j	0x14700 <_vfprintf_r+0x13ca>
   14964: 22 65        	ld	a0, 0x8(sp)
   14966: 90 11        	addi	a2, sp, 0xe0
   14968: ca 85        	mv	a1, s2
   1496a: ef 00 00 67  	jal	0x14fda <__sprint_r>
   1496e: 63 19 05 e2  	bnez	a0, 0x13fa0 <_vfprintf_r+0xc6a>
   14972: 6a 57        	lw	a4, 0xb8(sp)
   14974: 4e 76        	ld	a2, 0xf0(sp)
   14976: ae 56        	lw	a3, 0xe8(sp)
   14978: 52 84        	mv	s0, s4
   1497a: cd b9        	j	0x1466c <_vfprintf_r+0x1336>
   1497c: 22 65        	ld	a0, 0x8(sp)
   1497e: 9b 05 1b 00  	addiw	a1, s6, 0x1
   14982: 3a f8        	sd	a4, 0x30(sp)
   14984: 1a ec        	sd	t1, 0x18(sp)
   14986: ef e0 af ba  	jal	0x12d30 <_malloc_r>
   1498a: 62 63        	ld	t1, 0x18(sp)
   1498c: 42 77        	ld	a4, 0x30(sp)
   1498e: 2a 8d        	mv	s10, a0
   14990: 63 03 05 4c  	beqz	a0, 0x14e56 <_vfprintf_r+0x1b20>
   14994: 2a ec        	sd	a0, 0x18(sp)
   14996: ba 8d        	mv	s11, a4
   14998: 6f e0 9f dd  	j	0x13770 <_vfprintf_r+0x43a>
   1499c: c2 75        	ld	a1, 0x30(sp)
   1499e: 22 65        	ld	a0, 0x8(sp)
   149a0: 5a 87        	mv	a4, s6
   149a2: 93 08 81 0c  	addi	a7, sp, 0xc8
   149a6: 13 08 c1 0b  	addi	a6, sp, 0xbc
   149aa: 3c 19        	addi	a5, sp, 0xb8
   149ac: 89 46        	li	a3, 0x2
   149ae: 66 86        	mv	a2, s9
   149b0: ef 20 00 43  	jal	0x16de0 <_ldtoa_r>
   149b4: 62 73        	ld	t1, 0x38(sp)
   149b6: 13 07 70 04  	li	a4, 0x47
   149ba: 2a 8d        	mv	s10, a0
   149bc: 63 15 e3 4a  	bne	t1, a4, 0x14e66 <_vfprintf_r+0x1b30>
   149c0: 13 f7 1d 00  	andi	a4, s11, 0x1
   149c4: 63 1e 07 1a  	bnez	a4, 0x14b80 <_vfprintf_r+0x184a>
   149c8: ea 57        	lw	a5, 0xb8(sp)
   149ca: 3e f8        	sd	a5, 0x30(sp)
   149cc: ae 67        	ld	a5, 0xc8(sp)
   149ce: bb 87 a7 41  	subw	a5, a5, s10
   149d2: 3e fc        	sd	a5, 0x38(sp)
   149d4: c2 77        	ld	a5, 0x30(sp)
   149d6: 75 57        	li	a4, -0x3
   149d8: 63 c4 e7 00  	blt	a5, a4, 0x149e0 <_vfprintf_r+0x16aa>
   149dc: 63 57 fb 0c  	bge	s6, a5, 0x14aaa <_vfprintf_r+0x1774>
   149e0: c2 77        	ld	a5, 0x30(sp)
   149e2: 79 33        	addiw	t1, t1, -0x2
   149e4: 1b 87 f7 ff  	addiw	a4, a5, -0x1
   149e8: 3a dd        	sw	a4, 0xb8(sp)
   149ea: 93 76 f3 0f  	andi	a3, t1, 0xff
   149ee: 01 46        	li	a2, 0x0
   149f0: 6f e0 9f f4  	j	0x13938 <_vfprintf_r+0x602>
   149f4: c2 77        	ld	a5, 0x30(sp)
   149f6: 83 c5 a7 00  	lbu	a1, 0xa(a5)
   149fa: a3 8f b6 fe  	sb	a1, -0x1(a3)
   149fe: 6f e0 bf f0  	j	0x13908 <_vfprintf_r+0x5d2>
   14a02: 03 47 f1 0a  	lbu	a4, 0xaf(sp)
   14a06: 01 4b        	li	s6, 0x0
   14a08: 19 c3        	beqz	a4, 0x14a0e <_vfprintf_r+0x16d8>
   14a0a: 6f e0 ff c7  	j	0x13688 <_vfprintf_r+0x352>
   14a0e: 6f e0 5f ac  	j	0x134d2 <_vfprintf_r+0x19c>
   14a12: 5a 87        	mv	a4, s6
   14a14: 8d 46        	li	a3, 0x3
   14a16: c2 75        	ld	a1, 0x30(sp)
   14a18: 22 65        	ld	a0, 0x8(sp)
   14a1a: 93 08 81 0c  	addi	a7, sp, 0xc8
   14a1e: 13 08 c1 0b  	addi	a6, sp, 0xbc
   14a22: 3c 19        	addi	a5, sp, 0xb8
   14a24: 66 86        	mv	a2, s9
   14a26: 9a e0        	sd	t1, 0x40(sp)
   14a28: 3a fc        	sd	a4, 0x38(sp)
   14a2a: ef 20 60 3b  	jal	0x16de0 <_ldtoa_r>
   14a2e: 62 77        	ld	a4, 0x38(sp)
   14a30: 06 63        	ld	t1, 0x40(sp)
   14a32: 2a 8d        	mv	s10, a0
   14a34: 13 7c f3 fd  	andi	s8, t1, -0x21
   14a38: 93 06 60 04  	li	a3, 0x46
   14a3c: 33 08 ed 00  	add	a6, s10, a4
   14a40: 63 1a dc 00  	bne	s8, a3, 0x14a54 <_vfprintf_r+0x171e>
   14a44: 03 46 0d 00  	lbu	a2, 0x0(s10)
   14a48: 93 06 00 03  	li	a3, 0x30
   14a4c: 63 05 d6 30  	beq	a2, a3, 0x14d56 <_vfprintf_r+0x1a20>
   14a50: ea 56        	lw	a3, 0xb8(sp)
   14a52: 36 98        	add	a6, a6, a3
   14a54: 42 75        	ld	a0, 0x30(sp)
   14a56: 01 46        	li	a2, 0x0
   14a58: 81 46        	li	a3, 0x0
   14a5a: e6 85        	mv	a1, s9
   14a5c: c2 e0        	sd	a6, 0x40(sp)
   14a5e: 1a fc        	sd	t1, 0x38(sp)
   14a60: ef 50 a0 34  	jal	0x19daa <__netf2>
   14a64: 62 73        	ld	t1, 0x38(sp)
   14a66: 06 68        	ld	a6, 0x40(sp)
   14a68: 63 01 05 12  	beqz	a0, 0x14b8a <_vfprintf_r+0x1854>
   14a6c: ae 67        	ld	a5, 0xc8(sp)
   14a6e: 63 fc 07 01  	bgeu	a5, a6, 0x14a86 <_vfprintf_r+0x1750>
   14a72: 93 06 00 03  	li	a3, 0x30
   14a76: 13 87 17 00  	addi	a4, a5, 0x1
   14a7a: ba e5        	sd	a4, 0xc8(sp)
   14a7c: 23 80 d7 00  	sb	a3, 0x0(a5)
   14a80: ae 67        	ld	a5, 0xc8(sp)
   14a82: e3 ea 07 ff  	bltu	a5, a6, 0x14a76 <_vfprintf_r+0x1740>
   14a86: 6a 57        	lw	a4, 0xb8(sp)
   14a88: 3a f8        	sd	a4, 0x30(sp)
   14a8a: bb 87 a7 41  	subw	a5, a5, s10
   14a8e: 13 07 70 04  	li	a4, 0x47
   14a92: 3e fc        	sd	a5, 0x38(sp)
   14a94: e3 00 ec f4  	beq	s8, a4, 0x149d4 <_vfprintf_r+0x169e>
   14a98: 13 07 60 04  	li	a4, 0x46
   14a9c: 63 0b ec 18  	beq	s8, a4, 0x14c32 <_vfprintf_r+0x18fc>
   14aa0: c2 77        	ld	a5, 0x30(sp)
   14aa2: 1b 87 f7 ff  	addiw	a4, a5, -0x1
   14aa6: 3a dd        	sw	a4, 0xb8(sp)
   14aa8: 89 b7        	j	0x149ea <_vfprintf_r+0x16b4>
   14aaa: e2 77        	ld	a5, 0x38(sp)
   14aac: 42 77        	ld	a4, 0x30(sp)
   14aae: 63 4b f7 14  	blt	a4, a5, 0x14c04 <_vfprintf_r+0x18ce>
   14ab2: c2 77        	ld	a5, 0x30(sp)
   14ab4: 13 f7 1d 00  	andi	a4, s11, 0x1
   14ab8: be 86        	mv	a3, a5
   14aba: 01 c7        	beqz	a4, 0x14ac2 <_vfprintf_r+0x178c>
   14abc: 46 67        	ld	a4, 0x50(sp)
   14abe: bb 06 f7 00  	addw	a3, a4, a5
   14ac2: 13 fe 0d 40  	andi	t3, s11, 0x400
   14ac6: 63 05 0e 00  	beqz	t3, 0x14ad0 <_vfprintf_r+0x179a>
   14aca: c2 77        	ld	a5, 0x30(sp)
   14acc: 63 40 f0 22  	bgtz	a5, 0x14cec <_vfprintf_r+0x19b6>
   14ad0: 13 c8 f6 ff  	not	a6, a3
   14ad4: 13 58 f8 43  	srai	a6, a6, 0x3f
   14ad8: 33 f8 06 01  	and	a6, a3, a6
   14adc: 1b 0c 08 00  	sext.w	s8, a6
   14ae0: a6 8d        	mv	s11, s1
   14ae2: 13 03 70 06  	li	t1, 0x67
   14ae6: 82 e4        	sd	zero, 0x48(sp)
   14ae8: 82 e0        	sd	zero, 0x40(sp)
   14aea: 6f e0 7f f0  	j	0x139f0 <_vfprintf_r+0x6ba>
   14aee: ba 8d        	mv	s11, a4
   14af0: 02 ec        	sd	zero, 0x18(sp)
   14af2: 13 0d 81 0f  	addi	s10, sp, 0xf8
   14af6: 7d 57        	li	a4, -0x1
   14af8: 7e 17        	slli	a4, a4, 0x3f
   14afa: 93 07 d0 02  	li	a5, 0x2d
   14afe: b3 cc ec 00  	xor	s9, s9, a4
   14b02: be f4        	sd	a5, 0x68(sp)
   14b04: 6f e0 5f c8  	j	0x13788 <_vfprintf_r+0x452>
   14b08: 90 11        	addi	a2, sp, 0xe0
   14b0a: ca 85        	mv	a1, s2
   14b0c: 4e 85        	mv	a0, s3
   14b0e: ef 00 c0 4c  	jal	0x14fda <__sprint_r>
   14b12: 63 17 05 c8  	bnez	a0, 0x13fa0 <_vfprintf_r+0xc6a>
   14b16: 83 45 0c 00  	lbu	a1, 0x0(s8)
   14b1a: 4e 76        	ld	a2, 0xf0(sp)
   14b1c: d2 87        	mv	a5, s4
   14b1e: 41 47        	li	a4, 0x10
   14b20: 9d 46        	li	a3, 0x7
   14b22: 2e 9d        	add	s10, s10, a1
   14b24: d5 b9        	j	0x14818 <_vfprintf_r+0x14e2>
   14b26: 93 07 d0 02  	li	a5, 0x2d
   14b2a: a3 07 f1 0a  	sb	a5, 0xaf(sp)
   14b2e: 13 07 d0 02  	li	a4, 0x2d
   14b32: 5d bc        	j	0x145e8 <_vfprintf_r+0x12b2>
   14b34: da 88        	mv	a7, s6
   14b36: 4a 8b        	mv	s6, s2
   14b38: 4e 89        	mv	s2, s3
   14b3a: c2 79        	ld	s3, 0x30(sp)
   14b3c: 8d bc        	j	0x145ae <_vfprintf_r+0x1278>
   14b3e: 03 47 f1 0a  	lbu	a4, 0xaf(sp)
   14b42: 26 f0        	sd	s1, 0x20(sp)
   14b44: 82 e4        	sd	zero, 0x48(sp)
   14b46: 82 e0        	sd	zero, 0x40(sp)
   14b48: 02 f8        	sd	zero, 0x30(sp)
   14b4a: 5a 8c        	mv	s8, s6
   14b4c: da 86        	mv	a3, s6
   14b4e: 01 4b        	li	s6, 0x0
   14b50: 19 c3        	beqz	a4, 0x14b56 <_vfprintf_r+0x1820>
   14b52: 6f e0 7f b3  	j	0x13688 <_vfprintf_r+0x352>
   14b56: 6f e0 df 97  	j	0x134d2 <_vfprintf_r+0x19c>
   14b5a: c2 75        	ld	a1, 0x30(sp)
   14b5c: 22 65        	ld	a0, 0x8(sp)
   14b5e: 5a 87        	mv	a4, s6
   14b60: 93 08 81 0c  	addi	a7, sp, 0xc8
   14b64: 13 08 c1 0b  	addi	a6, sp, 0xbc
   14b68: 3c 19        	addi	a5, sp, 0xb8
   14b6a: 89 46        	li	a3, 0x2
   14b6c: 66 86        	mv	a2, s9
   14b6e: 1a fc        	sd	t1, 0x38(sp)
   14b70: ef 20 00 27  	jal	0x16de0 <_ldtoa_r>
   14b74: 13 f7 1d 00  	andi	a4, s11, 0x1
   14b78: 62 73        	ld	t1, 0x38(sp)
   14b7a: 2a 8d        	mv	s10, a0
   14b7c: e3 06 07 e4  	beqz	a4, 0x149c8 <_vfprintf_r+0x1692>
   14b80: 33 08 6d 01  	add	a6, s10, s6
   14b84: 13 0c 70 04  	li	s8, 0x47
   14b88: f1 b5        	j	0x14a54 <_vfprintf_r+0x171e>
   14b8a: ea 57        	lw	a5, 0xb8(sp)
   14b8c: 3e f8        	sd	a5, 0x30(sp)
   14b8e: c2 87        	mv	a5, a6
   14b90: ed bd        	j	0x14a8a <_vfprintf_r+0x1754>
   14b92: 22 65        	ld	a0, 0x8(sp)
   14b94: 90 11        	addi	a2, sp, 0xe0
   14b96: ca 85        	mv	a1, s2
   14b98: ef 00 20 44  	jal	0x14fda <__sprint_r>
   14b9c: 63 12 05 c0  	bnez	a0, 0x13fa0 <_vfprintf_r+0xc6a>
   14ba0: ea 56        	lw	a3, 0xb8(sp)
   14ba2: e2 77        	ld	a5, 0x38(sp)
   14ba4: ce 74        	ld	s1, 0xf0(sp)
   14ba6: 52 84        	mv	s0, s4
   14ba8: bb 86 d7 40  	subw	a3, a5, a3
   14bac: 6f f0 6f df  	j	0x141a2 <_vfprintf_r+0xe6c>
   14bb0: ed 67        	lui	a5, 0x1b
   14bb2: 13 8d 87 14  	addi	s10, a5, 0x148
   14bb6: 81 b4        	j	0x145f6 <_vfprintf_r+0x12c0>
   14bb8: ed 68        	lui	a7, 0x1b
   14bba: c1 55        	li	a1, -0x10
   14bbc: 3b 0b e0 40  	negw	s6, a4
   14bc0: 93 88 08 73  	addi	a7, a7, 0x730
   14bc4: 63 51 b7 0a  	bge	a4, a1, 0x14c66 <_vfprintf_r+0x1930>
   14bc8: 4e f8        	sd	s3, 0x30(sp)
   14bca: c1 4c        	li	s9, 0x10
   14bcc: 9d 44        	li	s1, 0x7
   14bce: c6 89        	mv	s3, a7
   14bd0: 21 a0        	j	0x14bd8 <_vfprintf_r+0x18a2>
   14bd2: 41 3b        	addiw	s6, s6, -0x10
   14bd4: 63 d7 6c 09  	bge	s9, s6, 0x14c62 <_vfprintf_r+0x192c>
   14bd8: 85 26        	addiw	a3, a3, 0x1
   14bda: 41 06        	addi	a2, a2, 0x10
   14bdc: 23 30 34 01  	sd	s3, 0x0(s0)
   14be0: 23 34 94 01  	sd	s9, 0x8(s0)
   14be4: b2 f9        	sd	a2, 0xf0(sp)
   14be6: b6 d5        	sw	a3, 0xe8(sp)
   14be8: 41 04        	addi	s0, s0, 0x10
   14bea: e3 d4 d4 fe  	bge	s1, a3, 0x14bd2 <_vfprintf_r+0x189c>
   14bee: 22 65        	ld	a0, 0x8(sp)
   14bf0: 90 11        	addi	a2, sp, 0xe0
   14bf2: ca 85        	mv	a1, s2
   14bf4: ef 00 60 3e  	jal	0x14fda <__sprint_r>
   14bf8: 63 14 05 ba  	bnez	a0, 0x13fa0 <_vfprintf_r+0xc6a>
   14bfc: 4e 76        	ld	a2, 0xf0(sp)
   14bfe: ae 56        	lw	a3, 0xe8(sp)
   14c00: 52 84        	mv	s0, s4
   14c02: c1 bf        	j	0x14bd2 <_vfprintf_r+0x189c>
   14c04: c6 67        	ld	a5, 0x50(sp)
   14c06: 62 77        	ld	a4, 0x38(sp)
   14c08: 13 03 70 06  	li	t1, 0x67
   14c0c: bb 86 e7 00  	addw	a3, a5, a4
   14c10: c2 77        	ld	a5, 0x30(sp)
   14c12: 63 5d f0 16  	blez	a5, 0x14d8c <_vfprintf_r+0x1a56>
   14c16: 13 fe 0d 40  	andi	t3, s11, 0x400
   14c1a: 63 1b 0e 0c  	bnez	t3, 0x14cf0 <_vfprintf_r+0x19ba>
   14c1e: 13 c8 f6 ff  	not	a6, a3
   14c22: 13 58 f8 43  	srai	a6, a6, 0x3f
   14c26: 33 f8 06 01  	and	a6, a3, a6
   14c2a: 1b 0c 08 00  	sext.w	s8, a6
   14c2e: a6 8d        	mv	s11, s1
   14c30: 5d bd        	j	0x14ae6 <_vfprintf_r+0x17b0>
   14c32: c2 77        	ld	a5, 0x30(sp)
   14c34: 13 f7 1d 00  	andi	a4, s11, 0x1
   14c38: 33 67 eb 00  	or	a4, s6, a4
   14c3c: 63 53 f0 1c  	blez	a5, 0x14e02 <_vfprintf_r+0x1acc>
   14c40: 63 1f 07 12  	bnez	a4, 0x14d7e <_vfprintf_r+0x1a48>
   14c44: c2 76        	ld	a3, 0x30(sp)
   14c46: 13 03 60 06  	li	t1, 0x66
   14c4a: f1 b7        	j	0x14c16 <_vfprintf_r+0x18e0>
   14c4c: fd 57        	li	a5, -0x1
   14c4e: 3e e8        	sd	a5, 0x10(sp)
   14c50: 6f e0 9f 98  	j	0x135d8 <_vfprintf_r+0x2a2>
   14c54: ee 8c        	mv	s9, s11
   14c56: 6f f0 8f b6  	j	0x13fbe <_vfprintf_r+0xc88>
   14c5a: 1b 07 1b 00  	addiw	a4, s6, 0x1
   14c5e: 89 46        	li	a3, 0x2
   14c60: 5d bb        	j	0x14a16 <_vfprintf_r+0x16e0>
   14c62: ce 88        	mv	a7, s3
   14c64: c2 79        	ld	s3, 0x30(sp)
   14c66: 85 26        	addiw	a3, a3, 0x1
   14c68: 5a 96        	add	a2, a2, s6
   14c6a: 23 30 14 01  	sd	a7, 0x0(s0)
   14c6e: 23 34 64 01  	sd	s6, 0x8(s0)
   14c72: b2 f9        	sd	a2, 0xf0(sp)
   14c74: b6 d5        	sw	a3, 0xe8(sp)
   14c76: 1d 47        	li	a4, 0x7
   14c78: e3 5d d7 8e  	bge	a4, a3, 0x14572 <_vfprintf_r+0x123c>
   14c7c: 22 65        	ld	a0, 0x8(sp)
   14c7e: 90 11        	addi	a2, sp, 0xe0
   14c80: ca 85        	mv	a1, s2
   14c82: ef 00 80 35  	jal	0x14fda <__sprint_r>
   14c86: 63 1d 05 b0  	bnez	a0, 0x13fa0 <_vfprintf_r+0xc6a>
   14c8a: 4e 76        	ld	a2, 0xf0(sp)
   14c8c: ae 56        	lw	a3, 0xe8(sp)
   14c8e: 52 84        	mv	s0, s4
   14c90: c5 b2        	j	0x14670 <_vfprintf_r+0x133a>
   14c92: 93 06 21 0c  	addi	a3, sp, 0xc2
   14c96: 19 e6        	bnez	a2, 0x14ca4 <_vfprintf_r+0x196e>
   14c98: 93 06 00 03  	li	a3, 0x30
   14c9c: 23 01 d1 0c  	sb	a3, 0xc2(sp)
   14ca0: 93 06 31 0c  	addi	a3, sp, 0xc3
   14ca4: 9c 13        	addi	a5, sp, 0x1e0
   14ca6: 33 86 f6 40  	sub	a2, a3, a5
   14caa: 1b 07 07 03  	addiw	a4, a4, 0x30
   14cae: 9b 07 16 12  	addiw	a5, a2, 0x121
   14cb2: 23 80 e6 00  	sb	a4, 0x0(a3)
   14cb6: be f8        	sd	a5, 0x70(sp)
   14cb8: 6f e0 ff cf  	j	0x139b6 <_vfprintf_r+0x680>
   14cbc: 02 ec        	sd	zero, 0x18(sp)
   14cbe: 19 4b        	li	s6, 0x6
   14cc0: 6f e0 1f ab  	j	0x13770 <_vfprintf_r+0x43a>
   14cc4: 63 04 0b 00  	beqz	s6, 0x14ccc <_vfprintf_r+0x1996>
   14cc8: 6f e0 9f aa  	j	0x13770 <_vfprintf_r+0x43a>
   14ccc: 05 4b        	li	s6, 0x1
   14cce: 6f e0 3f aa  	j	0x13770 <_vfprintf_r+0x43a>
   14cd2: 13 f6 1d 00  	andi	a2, s11, 0x1
   14cd6: 19 e2        	bnez	a2, 0x14cdc <_vfprintf_r+0x19a6>
   14cd8: 6f e0 9f cf  	j	0x139d0 <_vfprintf_r+0x69a>
   14cdc: 6f e0 ff ce  	j	0x139ca <_vfprintf_r+0x694>
   14ce0: 3a f0        	sd	a4, 0x20(sp)
   14ce2: 6f f0 cf ad  	j	0x13fbe <_vfprintf_r+0xc88>
   14ce6: 1c c3        	sw	a5, 0x0(a4)
   14ce8: 6f f0 cf 84  	j	0x13d34 <_vfprintf_r+0x9fe>
   14cec: 13 03 70 06  	li	t1, 0x67
   14cf0: 8a 67        	ld	a5, 0x80(sp)
   14cf2: 13 06 f0 0f  	li	a2, 0xff
   14cf6: 03 c7 07 00  	lbu	a4, 0x0(a5)
   14cfa: 63 08 c7 16  	beq	a4, a2, 0x14e6a <_vfprintf_r+0x1b34>
   14cfe: 3e 86        	mv	a2, a5
   14d00: c2 77        	ld	a5, 0x30(sp)
   14d02: 81 48        	li	a7, 0x0
   14d04: 01 48        	li	a6, 0x0
   14d06: 93 05 f0 0f  	li	a1, 0xff
   14d0a: 1b 05 07 00  	sext.w	a0, a4
   14d0e: 63 5a f7 00  	bge	a4, a5, 0x14d22 <_vfprintf_r+0x19ec>
   14d12: 03 47 16 00  	lbu	a4, 0x1(a2)
   14d16: 89 9f        	subw	a5, a5, a0
   14d18: 1d cb        	beqz	a4, 0x14d4e <_vfprintf_r+0x1a18>
   14d1a: 05 28        	addiw	a6, a6, 0x1
   14d1c: 05 06        	addi	a2, a2, 0x1
   14d1e: e3 16 b7 fe  	bne	a4, a1, 0x14d0a <_vfprintf_r+0x19d4>
   14d22: 32 e1        	sd	a2, 0x80(sp)
   14d24: c2 e0        	sd	a6, 0x40(sp)
   14d26: c6 e4        	sd	a7, 0x48(sp)
   14d28: 3e f8        	sd	a5, 0x30(sp)
   14d2a: a6 67        	ld	a5, 0x48(sp)
   14d2c: 06 67        	ld	a4, 0x40(sp)
   14d2e: a6 8d        	mv	s11, s1
   14d30: 3d 9f        	addw	a4, a4, a5
   14d32: aa 67        	ld	a5, 0x88(sp)
   14d34: 3b 07 f7 02  	mulw	a4, a4, a5
   14d38: 35 9f        	addw	a4, a4, a3
   14d3a: 9b 06 07 00  	sext.w	a3, a4
   14d3e: 13 c6 f6 ff  	not	a2, a3
   14d42: 7d 96        	srai	a2, a2, 0x3f
   14d44: 71 8f        	and	a4, a4, a2
   14d46: 1b 0c 07 00  	sext.w	s8, a4
   14d4a: 6f e0 7f ca  	j	0x139f0 <_vfprintf_r+0x6ba>
   14d4e: 03 47 06 00  	lbu	a4, 0x0(a2)
   14d52: 85 28        	addiw	a7, a7, 0x1
   14d54: e9 b7        	j	0x14d1e <_vfprintf_r+0x19e8>
   14d56: 42 75        	ld	a0, 0x30(sp)
   14d58: 01 46        	li	a2, 0x0
   14d5a: 81 46        	li	a3, 0x0
   14d5c: e6 85        	mv	a1, s9
   14d5e: c2 e4        	sd	a6, 0x48(sp)
   14d60: 9a e0        	sd	t1, 0x40(sp)
   14d62: 3a fc        	sd	a4, 0x38(sp)
   14d64: ef 50 60 04  	jal	0x19daa <__netf2>
   14d68: 62 77        	ld	a4, 0x38(sp)
   14d6a: 06 63        	ld	t1, 0x40(sp)
   14d6c: 26 68        	ld	a6, 0x48(sp)
   14d6e: 51 e5        	bnez	a0, 0x14dfa <_vfprintf_r+0x1ac4>
   14d70: ea 57        	lw	a5, 0xb8(sp)
   14d72: 3e 98        	add	a6, a6, a5
   14d74: 3e f8        	sd	a5, 0x30(sp)
   14d76: bb 07 a8 41  	subw	a5, a6, s10
   14d7a: 3e fc        	sd	a5, 0x38(sp)
   14d7c: 31 bb        	j	0x14a98 <_vfprintf_r+0x1762>
   14d7e: 46 67        	ld	a4, 0x50(sp)
   14d80: 13 03 60 06  	li	t1, 0x66
   14d84: bb 06 67 01  	addw	a3, a4, s6
   14d88: bd 9e        	addw	a3, a3, a5
   14d8a: 71 b5        	j	0x14c16 <_vfprintf_r+0x18e0>
   14d8c: 3b 87 f6 40  	subw	a4, a3, a5
   14d90: 05 27        	addiw	a4, a4, 0x1
   14d92: 9b 06 07 00  	sext.w	a3, a4
   14d96: 13 c6 f6 ff  	not	a2, a3
   14d9a: 7d 96        	srai	a2, a2, 0x3f
   14d9c: 71 8f        	and	a4, a4, a2
   14d9e: 1b 0c 07 00  	sext.w	s8, a4
   14da2: a6 8d        	mv	s11, s1
   14da4: 89 b3        	j	0x14ae6 <_vfprintf_r+0x17b0>
   14da6: 4a 68        	ld	a6, 0x90(sp)
   14da8: 62 89        	mv	s2, s8
   14daa: 4e 8c        	mv	s8, s3
   14dac: bb 06 0d 01  	addw	a3, s10, a6
   14db0: bb 86 86 41  	subw	a3, a3, s8
   14db4: 13 96 06 02  	slli	a2, a3, 0x20
   14db8: 06 63        	ld	t1, 0x40(sp)
   14dba: a6 6b        	ld	s7, 0x48(sp)
   14dbc: 46 74        	ld	s0, 0x70(sp)
   14dbe: e2 79        	ld	s3, 0x38(sp)
   14dc0: 63 54 06 00  	bgez	a2, 0x14dc8 <_vfprintf_r+0x1a92>
   14dc4: 6f e0 5f b4  	j	0x13908 <_vfprintf_r+0x5d2>
   14dc8: 85 26        	addiw	a3, a3, 0x1
   14dca: e2 96        	add	a3, a3, s8
   14dcc: 13 06 00 03  	li	a2, 0x30
   14dd0: 05 0c        	addi	s8, s8, 0x1
   14dd2: a3 0f cc fe  	sb	a2, -0x1(s8)
   14dd6: e3 1d dc fe  	bne	s8, a3, 0x14dd0 <_vfprintf_r+0x1a9a>
   14dda: 6f e0 1f b3  	j	0x1390a <_vfprintf_r+0x5d4>
   14dde: e2 65        	ld	a1, 0x18(sp)
   14de0: 4e 89        	mv	s2, s3
   14de2: 6f f0 0f 9c  	j	0x13fa2 <_vfprintf_r+0xc6c>
   14de6: 6d 67        	lui	a4, 0x1b
   14de8: 93 07 07 15  	addi	a5, a4, 0x150
   14dec: 3e f8        	sd	a5, 0x30(sp)
   14dee: 6f e0 bf a1  	j	0x13808 <_vfprintf_r+0x4d2>
   14df2: 93 06 00 07  	li	a3, 0x70
   14df6: 6f e0 1f b4  	j	0x13936 <_vfprintf_r+0x600>
   14dfa: 85 46        	li	a3, 0x1
   14dfc: 99 9e        	subw	a3, a3, a4
   14dfe: 36 dd        	sw	a3, 0xb8(sp)
   14e00: 89 b9        	j	0x14a52 <_vfprintf_r+0x171c>
   14e02: 19 e7        	bnez	a4, 0x14e10 <_vfprintf_r+0x1ada>
   14e04: a6 8d        	mv	s11, s1
   14e06: 05 4c        	li	s8, 0x1
   14e08: 13 03 60 06  	li	t1, 0x66
   14e0c: 85 46        	li	a3, 0x1
   14e0e: e1 b9        	j	0x14ae6 <_vfprintf_r+0x17b0>
   14e10: c6 67        	ld	a5, 0x50(sp)
   14e12: a6 8d        	mv	s11, s1
   14e14: 13 03 60 06  	li	t1, 0x66
   14e18: 1b 87 17 00  	addiw	a4, a5, 0x1
   14e1c: 3b 07 67 01  	addw	a4, a4, s6
   14e20: 9b 06 07 00  	sext.w	a3, a4
   14e24: 13 c6 f6 ff  	not	a2, a3
   14e28: 7d 96        	srai	a2, a2, 0x3f
   14e2a: 71 8f        	and	a4, a4, a2
   14e2c: 1b 0c 07 00  	sext.w	s8, a4
   14e30: 5d b9        	j	0x14ae6 <_vfprintf_r+0x17b0>
   14e32: 89 47        	li	a5, 0x2
   14e34: be f8        	sd	a5, 0x70(sp)
   14e36: 6f e0 1f b8  	j	0x139b6 <_vfprintf_r+0x680>
   14e3a: 82 76        	ld	a3, 0x20(sp)
   14e3c: 9c 42        	lw	a5, 0x0(a3)
   14e3e: a1 06        	addi	a3, a3, 0x8
   14e40: 1b 8b 07 00  	sext.w	s6, a5
   14e44: 63 d3 07 00  	bgez	a5, 0x14e4a <_vfprintf_r+0x1b14>
   14e48: 7d 5b        	li	s6, -0x1
   14e4a: 03 c3 19 00  	lbu	t1, 0x1(s3)
   14e4e: 36 f0        	sd	a3, 0x20(sp)
   14e50: ba 89        	mv	s3, a4
   14e52: 6f e0 cf e0  	j	0x1345e <_vfprintf_r+0x128>
   14e56: 83 57 09 01  	lhu	a5, 0x10(s2)
   14e5a: 93 e7 07 04  	ori	a5, a5, 0x40
   14e5e: 23 18 f9 00  	sh	a5, 0x10(s2)
   14e62: 6f e0 8f f4  	j	0x135aa <_vfprintf_r+0x274>
   14e66: 5a 87        	mv	a4, s6
   14e68: f1 b6        	j	0x14a34 <_vfprintf_r+0x16fe>
   14e6a: 82 e4        	sd	zero, 0x48(sp)
   14e6c: 82 e0        	sd	zero, 0x40(sp)
   14e6e: 75 bd        	j	0x14d2a <_vfprintf_r+0x19f4>

0000000000014e70 <vfprintf>:
   14e70: aa 87        	mv	a5, a0
   14e72: 03 b5 01 1d  	ld	a0, 0x1d0(gp)
   14e76: b2 86        	mv	a3, a2
   14e78: 2e 86        	mv	a2, a1
   14e7a: be 85        	mv	a1, a5
   14e7c: 6f e0 af cb  	j	0x13336 <_vfprintf_r>

0000000000014e80 <__sbprintf>:
   14e80: 13 01 01 b3  	addi	sp, sp, -0x4d0
   14e84: 03 d7 25 01  	lhu	a4, 0x12(a1)
   14e88: 83 d7 05 01  	lhu	a5, 0x10(a1)
   14e8c: 23 30 81 4c  	sd	s0, 0x4c0(sp)
   14e90: 2e 84        	mv	s0, a1
   14e92: c1 65        	lui	a1, 0x10
   14e94: f5 35        	addiw	a1, a1, -0x3
   14e96: 03 2e c4 0a  	lw	t3, 0xac(s0)
   14e9a: 03 33 04 03  	ld	t1, 0x30(s0)
   14e9e: 83 38 04 04  	ld	a7, 0x40(s0)
   14ea2: 1b 17 07 01  	slliw	a4, a4, 0x10
   14ea6: ed 8f        	and	a5, a5, a1
   14ea8: d9 8f        	or	a5, a5, a4
   14eaa: 13 08 00 40  	li	a6, 0x400
   14eae: 3e c8        	sw	a5, 0x10(sp)
   14eb0: 8a 85        	mv	a1, sp
   14eb2: 1c 19        	addi	a5, sp, 0xb0
   14eb4: 23 3c 91 4a  	sd	s1, 0x4b8(sp)
   14eb8: 23 38 21 4b  	sd	s2, 0x4b0(sp)
   14ebc: 23 34 11 4c  	sd	ra, 0x4c8(sp)
   14ec0: 2a 89        	mv	s2, a0
   14ec2: 72 d7        	sw	t3, 0xac(sp)
   14ec4: 1a f8        	sd	t1, 0x30(sp)
   14ec6: c6 e0        	sd	a7, 0x40(sp)
   14ec8: 3e e0        	sd	a5, 0x0(sp)
   14eca: 3e ec        	sd	a5, 0x18(sp)
   14ecc: 42 c6        	sw	a6, 0xc(sp)
   14ece: 42 d0        	sw	a6, 0x20(sp)
   14ed0: 02 d4        	sw	zero, 0x28(sp)
   14ed2: ef e0 4f c6  	jal	0x13336 <_vfprintf_r>
   14ed6: aa 84        	mv	s1, a0
   14ed8: 63 59 05 02  	bgez	a0, 0x14f0a <__sbprintf+0x8a>
   14edc: 83 57 01 01  	lhu	a5, 0x10(sp)
   14ee0: 93 f7 07 04  	andi	a5, a5, 0x40
   14ee4: 99 c7        	beqz	a5, 0x14ef2 <__sbprintf+0x72>
   14ee6: 83 57 04 01  	lhu	a5, 0x10(s0)
   14eea: 93 e7 07 04  	ori	a5, a5, 0x40
   14eee: 23 18 f4 00  	sh	a5, 0x10(s0)
   14ef2: 83 30 81 4c  	ld	ra, 0x4c8(sp)
   14ef6: 03 34 01 4c  	ld	s0, 0x4c0(sp)
   14efa: 03 39 01 4b  	ld	s2, 0x4b0(sp)
   14efe: 26 85        	mv	a0, s1
   14f00: 83 34 81 4b  	ld	s1, 0x4b8(sp)
   14f04: 13 01 01 4d  	addi	sp, sp, 0x4d0
   14f08: 82 80        	ret
   14f0a: 8a 85        	mv	a1, sp
   14f0c: 4a 85        	mv	a0, s2
   14f0e: ef 10 20 09  	jal	0x15fa0 <_fflush_r>
   14f12: 69 d5        	beqz	a0, 0x14edc <__sbprintf+0x5c>
   14f14: fd 54        	li	s1, -0x1
   14f16: d9 b7        	j	0x14edc <__sbprintf+0x5c>

0000000000014f18 <__sprint_r.part.0>:
   14f18: 83 a7 c5 0a  	lw	a5, 0xac(a1)
   14f1c: 5d 71        	addi	sp, sp, -0x50
   14f1e: 56 ec        	sd	s5, 0x18(sp)
   14f20: 86 e4        	sd	ra, 0x48(sp)
   14f22: 13 97 27 03  	slli	a4, a5, 0x32
   14f26: b2 8a        	mv	s5, a2
   14f28: 63 5f 07 08  	bgez	a4, 0x14fc6 <__sprint_r.part.0+0xae>
   14f2c: 1c 6a        	ld	a5, 0x10(a2)
   14f2e: 4a f8        	sd	s2, 0x30(sp)
   14f30: 4e f4        	sd	s3, 0x28(sp)
   14f32: 52 f0        	sd	s4, 0x20(sp)
   14f34: 5a e8        	sd	s6, 0x10(sp)
   14f36: 2e 89        	mv	s2, a1
   14f38: 03 3b 06 00  	ld	s6, 0x0(a2)
   14f3c: aa 89        	mv	s3, a0
   14f3e: 7d 5a        	li	s4, -0x1
   14f40: ad cf        	beqz	a5, 0x14fba <__sprint_r.part.0+0xa2>
   14f42: a2 e0        	sd	s0, 0x40(sp)
   14f44: 26 fc        	sd	s1, 0x38(sp)
   14f46: 5e e4        	sd	s7, 0x8(sp)
   14f48: 83 34 8b 00  	ld	s1, 0x8(s6)
   14f4c: 03 34 0b 00  	ld	s0, 0x0(s6)
   14f50: 89 80        	srli	s1, s1, 0x2
   14f52: 9b 8b 04 00  	sext.w	s7, s1
   14f56: 63 58 70 05  	blez	s7, 0x14fa6 <__sprint_r.part.0+0x8e>
   14f5a: fd 34        	addiw	s1, s1, -0x1
   14f5c: 93 97 04 02  	slli	a5, s1, 0x20
   14f60: 93 d4 e7 01  	srli	s1, a5, 0x1e
   14f64: 93 07 44 00  	addi	a5, s0, 0x4
   14f68: be 94        	add	s1, s1, a5
   14f6a: 19 a0        	j	0x14f70 <__sprint_r.part.0+0x58>
   14f6c: 63 8b 84 02  	beq	s1, s0, 0x14fa2 <__sprint_r.part.0+0x8a>
   14f70: 0c 40        	lw	a1, 0x0(s0)
   14f72: 4a 86        	mv	a2, s2
   14f74: 4e 85        	mv	a0, s3
   14f76: ef 10 c0 76  	jal	0x166e2 <_fputwc_r>
   14f7a: 01 25        	sext.w	a0, a0
   14f7c: 11 04        	addi	s0, s0, 0x4
   14f7e: e3 17 45 ff  	bne	a0, s4, 0x14f6c <__sprint_r.part.0+0x54>
   14f82: 06 64        	ld	s0, 0x40(sp)
   14f84: e2 74        	ld	s1, 0x38(sp)
   14f86: 42 79        	ld	s2, 0x30(sp)
   14f88: a2 79        	ld	s3, 0x28(sp)
   14f8a: 02 7a        	ld	s4, 0x20(sp)
   14f8c: 42 6b        	ld	s6, 0x10(sp)
   14f8e: a2 6b        	ld	s7, 0x8(sp)
   14f90: 7d 55        	li	a0, -0x1
   14f92: a6 60        	ld	ra, 0x48(sp)
   14f94: 23 b8 0a 00  	sd	zero, 0x10(s5)
   14f98: 23 a4 0a 00  	sw	zero, 0x8(s5)
   14f9c: e2 6a        	ld	s5, 0x18(sp)
   14f9e: 61 61        	addi	sp, sp, 0x50
   14fa0: 82 80        	ret
   14fa2: 83 b7 0a 01  	ld	a5, 0x10(s5)
   14fa6: 8a 0b        	slli	s7, s7, 0x2
   14fa8: b3 87 77 41  	sub	a5, a5, s7
   14fac: 23 b8 fa 00  	sd	a5, 0x10(s5)
   14fb0: 41 0b        	addi	s6, s6, 0x10
   14fb2: d9 fb        	bnez	a5, 0x14f48 <__sprint_r.part.0+0x30>
   14fb4: 06 64        	ld	s0, 0x40(sp)
   14fb6: e2 74        	ld	s1, 0x38(sp)
   14fb8: a2 6b        	ld	s7, 0x8(sp)
   14fba: 42 79        	ld	s2, 0x30(sp)
   14fbc: a2 79        	ld	s3, 0x28(sp)
   14fbe: 02 7a        	ld	s4, 0x20(sp)
   14fc0: 42 6b        	ld	s6, 0x10(sp)
   14fc2: 01 45        	li	a0, 0x0
   14fc4: f9 b7        	j	0x14f92 <__sprint_r.part.0+0x7a>
   14fc6: ef 10 60 06  	jal	0x1602c <__sfvwrite_r>
   14fca: a6 60        	ld	ra, 0x48(sp)
   14fcc: 23 b8 0a 00  	sd	zero, 0x10(s5)
   14fd0: 23 a4 0a 00  	sw	zero, 0x8(s5)
   14fd4: e2 6a        	ld	s5, 0x18(sp)
   14fd6: 61 61        	addi	sp, sp, 0x50
   14fd8: 82 80        	ret

0000000000014fda <__sprint_r>:
   14fda: 18 6a        	ld	a4, 0x10(a2)
   14fdc: 19 c3        	beqz	a4, 0x14fe2 <__sprint_r+0x8>
   14fde: 6f f0 bf f3  	j	0x14f18 <__sprint_r.part.0>
   14fe2: 23 24 06 00  	sw	zero, 0x8(a2)
   14fe6: 01 45        	li	a0, 0x0
   14fe8: 82 80        	ret

0000000000014fea <_vfiprintf_r>:
   14fea: 05 71        	addi	sp, sp, -0x1e0
   14fec: 52 fb        	sd	s4, 0x1b0(sp)
   14fee: 56 f7        	sd	s5, 0x1a8(sp)
   14ff0: 5e ef        	sd	s7, 0x198(sp)
   14ff2: 6a e3        	sd	s10, 0x180(sp)
   14ff4: 86 ef        	sd	ra, 0x1d8(sp)
   14ff6: 62 eb        	sd	s8, 0x190(sp)
   14ff8: aa 8a        	mv	s5, a0
   14ffa: 2e 8a        	mv	s4, a1
   14ffc: 32 8d        	mv	s10, a2
   14ffe: b6 8b        	mv	s7, a3
   15000: 01 c5        	beqz	a0, 0x15008 <_vfiprintf_r+0x1e>
   15002: 3c 65        	ld	a5, 0x48(a0)
   15004: e3 8a 07 38  	beqz	a5, 0x15b98 <_vfiprintf_r+0xbae>
   15008: 83 17 0a 01  	lh	a5, 0x10(s4)
   1500c: 93 96 27 03  	slli	a3, a5, 0x32
   15010: 63 c1 06 02  	bltz	a3, 0x15032 <_vfiprintf_r+0x48>
   15014: 83 26 ca 0a  	lw	a3, 0xac(s4)
   15018: 89 65        	lui	a1, 0x2
   1501a: 79 76        	lui	a2, 0xffffe
   1501c: cd 8f        	or	a5, a5, a1
   1501e: 7d 16        	addi	a2, a2, -0x1
   15020: 9b 97 07 01  	slliw	a5, a5, 0x10
   15024: 9b d7 07 41  	sraiw	a5, a5, 0x10
   15028: f1 8e        	and	a3, a3, a2
   1502a: 23 18 fa 00  	sh	a5, 0x10(s4)
   1502e: 23 26 da 0a  	sw	a3, 0xac(s4)
   15032: 93 f6 87 00  	andi	a3, a5, 0x8
   15036: f1 ca        	beqz	a3, 0x1510a <_vfiprintf_r+0x120>
   15038: 83 36 8a 01  	ld	a3, 0x18(s4)
   1503c: f9 c6        	beqz	a3, 0x1510a <_vfiprintf_r+0x120>
   1503e: e9 8b        	andi	a5, a5, 0x1a
   15040: a9 46        	li	a3, 0xa
   15042: 63 80 d7 0e  	beq	a5, a3, 0x15122 <_vfiprintf_r+0x138>
   15046: ed 67        	lui	a5, 0x1b
   15048: 4e ff        	sd	s3, 0x1b8(sp)
   1504a: 5a f3        	sd	s6, 0x1a0(sp)
   1504c: 93 09 01 0f  	addi	s3, sp, 0xf0
   15050: 93 87 07 75  	addi	a5, a5, 0x750
   15054: 71 6b        	lui	s6, 0x1c
   15056: a2 eb        	sd	s0, 0x1d0(sp)
   15058: ca e3        	sd	s2, 0x1c0(sp)
   1505a: a6 e7        	sd	s1, 0x1c8(sp)
   1505c: 66 e7        	sd	s9, 0x188(sp)
   1505e: ee fe        	sd	s11, 0x178(sp)
   15060: ce f8        	sd	s3, 0x70(sp)
   15062: 02 e1        	sd	zero, 0x80(sp)
   15064: 82 dc        	sw	zero, 0x78(sp)
   15066: 4e 84        	mv	s0, s3
   15068: 02 e8        	sd	zero, 0x10(sp)
   1506a: 02 fc        	sd	zero, 0x38(sp)
   1506c: 02 f8        	sd	zero, 0x30(sp)
   1506e: 82 e0        	sd	zero, 0x40(sp)
   15070: 01 4c        	li	s8, 0x0
   15072: 3e e4        	sd	a5, 0x8(sp)
   15074: 41 49        	li	s2, 0x10
   15076: 13 0b 0b 8c  	addi	s6, s6, -0x740
   1507a: 83 47 0d 00  	lbu	a5, 0x0(s10)
   1507e: f9 c3        	beqz	a5, 0x15144 <_vfiprintf_r+0x15a>
   15080: ea 84        	mv	s1, s10
   15082: 13 07 50 02  	li	a4, 0x25
   15086: 63 8f e7 26  	beq	a5, a4, 0x15304 <_vfiprintf_r+0x31a>
   1508a: 83 c7 14 00  	lbu	a5, 0x1(s1)
   1508e: 85 04        	addi	s1, s1, 0x1
   15090: fd fb        	bnez	a5, 0x15086 <_vfiprintf_r+0x9c>
   15092: bb 8d a4 41  	subw	s11, s1, s10
   15096: 63 87 0d 0a  	beqz	s11, 0x15144 <_vfiprintf_r+0x15a>
   1509a: e6 57        	lw	a5, 0x78(sp)
   1509c: 0a 67        	ld	a4, 0x80(sp)
   1509e: 23 30 a4 01  	sd	s10, 0x0(s0)
   150a2: 9b 86 17 00  	addiw	a3, a5, 0x1
   150a6: 6e 97        	add	a4, a4, s11
   150a8: 23 34 b4 01  	sd	s11, 0x8(s0)
   150ac: 3a e1        	sd	a4, 0x80(sp)
   150ae: b6 dc        	sw	a3, 0x78(sp)
   150b0: 9d 47        	li	a5, 0x7
   150b2: 41 04        	addi	s0, s0, 0x10
   150b4: 63 db d7 00  	bge	a5, a3, 0x150ca <_vfiprintf_r+0xe0>
   150b8: e3 02 07 0e  	beqz	a4, 0x1599c <_vfiprintf_r+0x9b2>
   150bc: 90 18        	addi	a2, sp, 0x70
   150be: d2 85        	mv	a1, s4
   150c0: 56 85        	mv	a0, s5
   150c2: ef f0 7f e5  	jal	0x14f18 <__sprint_r.part.0>
   150c6: 51 e1        	bnez	a0, 0x1514a <_vfiprintf_r+0x160>
   150c8: 4e 84        	mv	s0, s3
   150ca: 83 c7 04 00  	lbu	a5, 0x0(s1)
   150ce: 3b 8c 8d 01  	addw	s8, s11, s8
   150d2: ad cb        	beqz	a5, 0x15144 <_vfiprintf_r+0x15a>
   150d4: 83 c7 14 00  	lbu	a5, 0x1(s1)
   150d8: 13 8d 14 00  	addi	s10, s1, 0x1
   150dc: a3 03 01 06  	sb	zero, 0x67(sp)
   150e0: fd 54        	li	s1, -0x1
   150e2: 81 48        	li	a7, 0x0
   150e4: 81 4c        	li	s9, 0x0
   150e6: 93 0d a0 05  	li	s11, 0x5a
   150ea: 05 0d        	addi	s10, s10, 0x1
   150ec: 81 27        	sext.w	a5, a5
   150ee: 1b 87 07 fe  	addiw	a4, a5, -0x20
   150f2: 9b 06 07 00  	sext.w	a3, a4
   150f6: 63 eb dd 0a  	bltu	s11, a3, 0x151ac <_vfiprintf_r+0x1c2>
   150fa: 93 16 07 02  	slli	a3, a4, 0x20
   150fe: 13 d7 e6 01  	srli	a4, a3, 0x1e
   15102: a2 66        	ld	a3, 0x8(sp)
   15104: 36 97        	add	a4, a4, a3
   15106: 18 43        	lw	a4, 0x0(a4)
   15108: 02 87        	jr	a4
   1510a: d2 85        	mv	a1, s4
   1510c: 56 85        	mv	a0, s5
   1510e: ef 10 40 45  	jal	0x16562 <__swsetup_r>
   15112: e3 19 05 36  	bnez	a0, 0x15c84 <_vfiprintf_r+0xc9a>
   15116: 83 17 0a 01  	lh	a5, 0x10(s4)
   1511a: a9 46        	li	a3, 0xa
   1511c: e9 8b        	andi	a5, a5, 0x1a
   1511e: e3 94 d7 f2  	bne	a5, a3, 0x15046 <_vfiprintf_r+0x5c>
   15122: 83 17 2a 01  	lh	a5, 0x12(s4)
   15126: e3 c0 07 f2  	bltz	a5, 0x15046 <_vfiprintf_r+0x5c>
   1512a: fe 60        	ld	ra, 0x1d8(sp)
   1512c: 5a 6c        	ld	s8, 0x190(sp)
   1512e: de 86        	mv	a3, s7
   15130: 6a 86        	mv	a2, s10
   15132: fa 6b        	ld	s7, 0x198(sp)
   15134: 1a 6d        	ld	s10, 0x180(sp)
   15136: d2 85        	mv	a1, s4
   15138: 56 85        	mv	a0, s5
   1513a: 5a 7a        	ld	s4, 0x1b0(sp)
   1513c: ba 7a        	ld	s5, 0x1a8(sp)
   1513e: 3d 61        	addi	sp, sp, 0x1e0
   15140: 6f 00 f0 37  	j	0x15cbe <__sbprintf>
   15144: 8a 67        	ld	a5, 0x80(sp)
   15146: e3 94 07 30  	bnez	a5, 0x15c4e <_vfiprintf_r+0xc64>
   1514a: 83 57 0a 01  	lhu	a5, 0x10(s4)
   1514e: 5e 64        	ld	s0, 0x1d0(sp)
   15150: be 64        	ld	s1, 0x1c8(sp)
   15152: 93 f7 07 04  	andi	a5, a5, 0x40
   15156: 1e 69        	ld	s2, 0x1c0(sp)
   15158: fa 79        	ld	s3, 0x1b8(sp)
   1515a: 1a 7b        	ld	s6, 0x1a0(sp)
   1515c: ba 6c        	ld	s9, 0x188(sp)
   1515e: f6 7d        	ld	s11, 0x178(sp)
   15160: e3 92 07 32  	bnez	a5, 0x15c84 <_vfiprintf_r+0xc9a>
   15164: fe 60        	ld	ra, 0x1d8(sp)
   15166: 5a 7a        	ld	s4, 0x1b0(sp)
   15168: ba 7a        	ld	s5, 0x1a8(sp)
   1516a: fa 6b        	ld	s7, 0x198(sp)
   1516c: 1a 6d        	ld	s10, 0x180(sp)
   1516e: 62 85        	mv	a0, s8
   15170: 5a 6c        	ld	s8, 0x190(sp)
   15172: 3d 61        	addi	sp, sp, 0x1e0
   15174: 82 80        	ret
   15176: 81 48        	li	a7, 0x0
   15178: 25 46        	li	a2, 0x9
   1517a: 83 46 0d 00  	lbu	a3, 0x0(s10)
   1517e: 1b 97 28 00  	slliw	a4, a7, 0x2
   15182: bb 08 17 01  	addw	a7, a4, a7
   15186: 9b 87 07 fd  	addiw	a5, a5, -0x30
   1518a: 9b 98 18 00  	slliw	a7, a7, 0x1
   1518e: 1b 87 06 fd  	addiw	a4, a3, -0x30
   15192: bb 88 17 01  	addw	a7, a5, a7
   15196: 05 0d        	addi	s10, s10, 0x1
   15198: 9b 87 06 00  	sext.w	a5, a3
   1519c: e3 7f e6 fc  	bgeu	a2, a4, 0x1517a <_vfiprintf_r+0x190>
   151a0: 1b 87 07 fe  	addiw	a4, a5, -0x20
   151a4: 9b 06 07 00  	sext.w	a3, a4
   151a8: e3 f9 dd f4  	bgeu	s11, a3, 0x150fa <_vfiprintf_r+0x110>
   151ac: c1 df        	beqz	a5, 0x15144 <_vfiprintf_r+0x15a>
   151ae: 23 04 f1 08  	sb	a5, 0x88(sp)
   151b2: a3 03 01 06  	sb	zero, 0x67(sp)
   151b6: 05 43        	li	t1, 0x1
   151b8: 05 4e        	li	t3, 0x1
   151ba: 93 0d 81 08  	addi	s11, sp, 0x88
   151be: 81 44        	li	s1, 0x0
   151c0: 81 4f        	li	t6, 0x0
   151c2: e6 56        	lw	a3, 0x78(sp)
   151c4: 93 f2 4c 08  	andi	t0, s9, 0x84
   151c8: 8a 67        	ld	a5, 0x80(sp)
   151ca: 9b 85 16 00  	addiw	a1, a3, 0x1
   151ce: 2e 86        	mv	a2, a1
   151d0: 63 96 02 00  	bnez	t0, 0x151dc <_vfiprintf_r+0x1f2>
   151d4: 3b 87 68 40  	subw	a4, a7, t1
   151d8: 63 4b e0 62  	bgtz	a4, 0x1580e <_vfiprintf_r+0x824>
   151dc: 03 47 71 06  	lbu	a4, 0x67(sp)
   151e0: 19 cf        	beqz	a4, 0x151fe <_vfiprintf_r+0x214>
   151e2: 13 07 71 06  	addi	a4, sp, 0x67
   151e6: 85 07        	addi	a5, a5, 0x1
   151e8: 18 e0        	sd	a4, 0x0(s0)
   151ea: 05 47        	li	a4, 0x1
   151ec: 18 e4        	sd	a4, 0x8(s0)
   151ee: 3e e1        	sd	a5, 0x80(sp)
   151f0: ae dc        	sw	a1, 0x78(sp)
   151f2: 1d 47        	li	a4, 0x7
   151f4: 63 4e b7 58  	blt	a4, a1, 0x15790 <_vfiprintf_r+0x7a6>
   151f8: ae 86        	mv	a3, a1
   151fa: 41 04        	addi	s0, s0, 0x10
   151fc: 85 25        	addiw	a1, a1, 0x1
   151fe: 63 81 0f 04  	beqz	t6, 0x15240 <_vfiprintf_r+0x256>
   15202: b8 10        	addi	a4, sp, 0x68
   15204: 89 07        	addi	a5, a5, 0x2
   15206: 18 e0        	sd	a4, 0x0(s0)
   15208: 09 47        	li	a4, 0x2
   1520a: 18 e4        	sd	a4, 0x8(s0)
   1520c: 3e e1        	sd	a5, 0x80(sp)
   1520e: ae dc        	sw	a1, 0x78(sp)
   15210: 1d 47        	li	a4, 0x7
   15212: 63 5f b7 5a  	bge	a4, a1, 0x157d0 <_vfiprintf_r+0x7e6>
   15216: 63 87 07 78  	beqz	a5, 0x159a4 <_vfiprintf_r+0x9ba>
   1521a: 90 18        	addi	a2, sp, 0x70
   1521c: d2 85        	mv	a1, s4
   1521e: 56 85        	mv	a0, s5
   15220: 9a e4        	sd	t1, 0x48(sp)
   15222: 46 f4        	sd	a7, 0x28(sp)
   15224: 72 f0        	sd	t3, 0x20(sp)
   15226: 16 ec        	sd	t0, 0x18(sp)
   15228: ef f0 1f cf  	jal	0x14f18 <__sprint_r.part.0>
   1522c: 19 fd        	bnez	a0, 0x1514a <_vfiprintf_r+0x160>
   1522e: e6 56        	lw	a3, 0x78(sp)
   15230: 8a 67        	ld	a5, 0x80(sp)
   15232: 26 63        	ld	t1, 0x48(sp)
   15234: a2 78        	ld	a7, 0x28(sp)
   15236: 02 7e        	ld	t3, 0x20(sp)
   15238: e2 62        	ld	t0, 0x18(sp)
   1523a: 4e 84        	mv	s0, s3
   1523c: 9b 85 16 00  	addiw	a1, a3, 0x1
   15240: 13 07 00 08  	li	a4, 0x80
   15244: 63 84 e2 3e  	beq	t0, a4, 0x1562c <_vfiprintf_r+0x642>
   15248: bb 84 c4 41  	subw	s1, s1, t3
   1524c: 63 40 90 4a  	bgtz	s1, 0x156ec <_vfiprintf_r+0x702>
   15250: f2 97        	add	a5, a5, t3
   15252: 23 30 b4 01  	sd	s11, 0x0(s0)
   15256: 23 34 c4 01  	sd	t3, 0x8(s0)
   1525a: 3e e1        	sd	a5, 0x80(sp)
   1525c: ae dc        	sw	a1, 0x78(sp)
   1525e: 1d 47        	li	a4, 0x7
   15260: 63 54 b7 3c  	bge	a4, a1, 0x15628 <_vfiprintf_r+0x63e>
   15264: 63 87 07 64  	beqz	a5, 0x158b2 <_vfiprintf_r+0x8c8>
   15268: 90 18        	addi	a2, sp, 0x70
   1526a: d2 85        	mv	a1, s4
   1526c: 56 85        	mv	a0, s5
   1526e: 1a f0        	sd	t1, 0x20(sp)
   15270: 46 ec        	sd	a7, 0x18(sp)
   15272: ef f0 7f ca  	jal	0x14f18 <__sprint_r.part.0>
   15276: e3 1a 05 ec  	bnez	a0, 0x1514a <_vfiprintf_r+0x160>
   1527a: 8a 67        	ld	a5, 0x80(sp)
   1527c: 02 73        	ld	t1, 0x20(sp)
   1527e: e2 68        	ld	a7, 0x18(sp)
   15280: 4e 84        	mv	s0, s3
   15282: 13 f8 4c 00  	andi	a6, s9, 0x4
   15286: 63 06 08 00  	beqz	a6, 0x15292 <_vfiprintf_r+0x2a8>
   1528a: bb 84 68 40  	subw	s1, a7, t1
   1528e: 63 4c 90 62  	bgtz	s1, 0x158c6 <_vfiprintf_r+0x8dc>
   15292: 46 87        	mv	a4, a7
   15294: 63 d3 68 00  	bge	a7, t1, 0x1529a <_vfiprintf_r+0x2b0>
   15298: 1a 87        	mv	a4, t1
   1529a: 3b 0c 87 01  	addw	s8, a4, s8
   1529e: 63 9d 07 4c  	bnez	a5, 0x15778 <_vfiprintf_r+0x78e>
   152a2: 82 dc        	sw	zero, 0x78(sp)
   152a4: 4e 84        	mv	s0, s3
   152a6: d1 bb        	j	0x1507a <_vfiprintf_r+0x90>
   152a8: 93 ec 0c 01  	ori	s9, s9, 0x10
   152ac: 83 47 0d 00  	lbu	a5, 0x0(s10)
   152b0: 81 2c        	sext.w	s9, s9
   152b2: 25 bd        	j	0x150ea <_vfiprintf_r+0x100>
   152b4: 13 e8 0c 01  	ori	a6, s9, 0x10
   152b8: 9b 0c 08 00  	sext.w	s9, a6
   152bc: 93 f7 0c 02  	andi	a5, s9, 0x20
   152c0: 93 8e 8b 00  	addi	t4, s7, 0x8
   152c4: b9 c7        	beqz	a5, 0x15312 <_vfiprintf_r+0x328>
   152c6: 83 b7 0b 00  	ld	a5, 0x0(s7)
   152ca: be 8b        	mv	s7, a5
   152cc: 63 c3 07 06  	bltz	a5, 0x15332 <_vfiprintf_r+0x348>
   152d0: 63 cd 04 06  	bltz	s1, 0x1534a <_vfiprintf_r+0x360>
   152d4: 13 f8 fc f7  	andi	a6, s9, -0x81
   152d8: 9b 0c 08 00  	sext.w	s9, a6
   152dc: 63 97 0b 06  	bnez	s7, 0x1534a <_vfiprintf_r+0x360>
   152e0: e3 92 04 18  	bnez	s1, 0x15c64 <_vfiprintf_r+0xc7a>
   152e4: 83 47 71 06  	lbu	a5, 0x67(sp)
   152e8: 01 43        	li	t1, 0x0
   152ea: 01 4e        	li	t3, 0x0
   152ec: f6 8b        	mv	s7, t4
   152ee: 93 0d c1 0e  	addi	s11, sp, 0xec
   152f2: 91 c3        	beqz	a5, 0x152f6 <_vfiprintf_r+0x30c>
   152f4: 05 23        	addiw	t1, t1, 0x1
   152f6: 93 ff 2c 00  	andi	t6, s9, 0x2
   152fa: e3 84 0f ec  	beqz	t6, 0x151c2 <_vfiprintf_r+0x1d8>
   152fe: 09 23        	addiw	t1, t1, 0x2
   15300: 89 4f        	li	t6, 0x2
   15302: c1 b5        	j	0x151c2 <_vfiprintf_r+0x1d8>
   15304: bb 8d a4 41  	subw	s11, s1, s10
   15308: e3 99 0d d8  	bnez	s11, 0x1509a <_vfiprintf_r+0xb0>
   1530c: 83 c7 04 00  	lbu	a5, 0x0(s1)
   15310: c9 b3        	j	0x150d2 <_vfiprintf_r+0xe8>
   15312: 93 f7 0c 01  	andi	a5, s9, 0x10
   15316: c5 fb        	bnez	a5, 0x152c6 <_vfiprintf_r+0x2dc>
   15318: 93 f7 0c 04  	andi	a5, s9, 0x40
   1531c: 83 ab 0b 00  	lw	s7, 0x0(s7)
   15320: e3 87 07 0c  	beqz	a5, 0x15bee <_vfiprintf_r+0xc04>
   15324: 9b 9b 0b 01  	slliw	s7, s7, 0x10
   15328: 9b db 0b 41  	sraiw	s7, s7, 0x10
   1532c: de 87        	mv	a5, s7
   1532e: e3 d1 07 fa  	bgez	a5, 0x152d0 <_vfiprintf_r+0x2e6>
   15332: 93 07 d0 02  	li	a5, 0x2d
   15336: a3 03 f1 06  	sb	a5, 0x67(sp)
   1533a: b3 0b 70 41  	neg	s7, s7
   1533e: 63 c6 04 00  	bltz	s1, 0x1534a <_vfiprintf_r+0x360>
   15342: 13 f8 fc f7  	andi	a6, s9, -0x81
   15346: 9b 0c 08 00  	sext.w	s9, a6
   1534a: a5 47        	li	a5, 0x9
   1534c: 63 ef 77 69  	bltu	a5, s7, 0x159ea <_vfiprintf_r+0xa00>
   15350: 9b 87 0b 03  	addiw	a5, s7, 0x30
   15354: 93 f7 f7 0f  	andi	a5, a5, 0xff
   15358: f6 8b        	mv	s7, t4
   1535a: a3 05 f1 0e  	sb	a5, 0xeb(sp)
   1535e: 1b 83 04 00  	sext.w	t1, s1
   15362: 63 43 90 00  	bgtz	s1, 0x15368 <_vfiprintf_r+0x37e>
   15366: 05 43        	li	t1, 0x1
   15368: 05 4e        	li	t3, 0x1
   1536a: 93 0d b1 0e  	addi	s11, sp, 0xeb
   1536e: 83 47 71 06  	lbu	a5, 0x67(sp)
   15372: c9 f3        	bnez	a5, 0x152f4 <_vfiprintf_r+0x30a>
   15374: 49 b7        	j	0x152f6 <_vfiprintf_r+0x30c>
   15376: 83 bd 0b 00  	ld	s11, 0x0(s7)
   1537a: a3 03 01 06  	sb	zero, 0x67(sp)
   1537e: a1 0b        	addi	s7, s7, 0x8
   15380: e3 80 0d 04  	beqz	s11, 0x15bc0 <_vfiprintf_r+0xbd6>
   15384: 46 ec        	sd	a7, 0x18(sp)
   15386: 63 c1 04 7a  	bltz	s1, 0x15b28 <_vfiprintf_r+0xb3e>
   1538a: 26 86        	mv	a2, s1
   1538c: 81 45        	li	a1, 0x0
   1538e: 6e 85        	mv	a0, s11
   15390: ef 10 60 3c  	jal	0x16756 <memchr>
   15394: e2 68        	ld	a7, 0x18(sp)
   15396: 26 8e        	mv	t3, s1
   15398: 19 c1        	beqz	a0, 0x1539e <_vfiprintf_r+0x3b4>
   1539a: 3b 0e b5 41  	subw	t3, a0, s11
   1539e: 13 43 fe ff  	not	t1, t3
   153a2: 83 47 71 06  	lbu	a5, 0x67(sp)
   153a6: 13 53 f3 43  	srai	t1, t1, 0x3f
   153aa: 33 73 6e 00  	and	t1, t3, t1
   153ae: 01 23        	sext.w	t1, t1
   153b0: 81 44        	li	s1, 0x0
   153b2: 81 4f        	li	t6, 0x0
   153b4: a1 f3        	bnez	a5, 0x152f4 <_vfiprintf_r+0x30a>
   153b6: 31 b5        	j	0x151c2 <_vfiprintf_r+0x1d8>
   153b8: 83 a7 0b 00  	lw	a5, 0x0(s7)
   153bc: a3 03 01 06  	sb	zero, 0x67(sp)
   153c0: a1 0b        	addi	s7, s7, 0x8
   153c2: 23 04 f1 08  	sb	a5, 0x88(sp)
   153c6: 05 43        	li	t1, 0x1
   153c8: 05 4e        	li	t3, 0x1
   153ca: 93 0d 81 08  	addi	s11, sp, 0x88
   153ce: c5 bb        	j	0x151be <_vfiprintf_r+0x1d4>
   153d0: 83 a8 0b 00  	lw	a7, 0x0(s7)
   153d4: a1 0b        	addi	s7, s7, 0x8
   153d6: 63 df 08 08  	bgez	a7, 0x15474 <_vfiprintf_r+0x48a>
   153da: bb 08 10 41  	negw	a7, a7
   153de: 93 ec 4c 00  	ori	s9, s9, 0x4
   153e2: 83 47 0d 00  	lbu	a5, 0x0(s10)
   153e6: 81 2c        	sext.w	s9, s9
   153e8: 09 b3        	j	0x150ea <_vfiprintf_r+0x100>
   153ea: 13 07 b0 02  	li	a4, 0x2b
   153ee: 83 47 0d 00  	lbu	a5, 0x0(s10)
   153f2: a3 03 e1 06  	sb	a4, 0x67(sp)
   153f6: d5 b9        	j	0x150ea <_vfiprintf_r+0x100>
   153f8: 93 ec 0c 08  	ori	s9, s9, 0x80
   153fc: 83 47 0d 00  	lbu	a5, 0x0(s10)
   15400: 81 2c        	sext.w	s9, s9
   15402: e5 b1        	j	0x150ea <_vfiprintf_r+0x100>
   15404: 83 47 0d 00  	lbu	a5, 0x0(s10)
   15408: 13 06 a0 02  	li	a2, 0x2a
   1540c: 93 06 1d 00  	addi	a3, s10, 0x1
   15410: e3 82 c7 08  	beq	a5, a2, 0x15c94 <_vfiprintf_r+0xcaa>
   15414: 1b 87 07 fd  	addiw	a4, a5, -0x30
   15418: 25 45        	li	a0, 0x9
   1541a: 01 46        	li	a2, 0x0
   1541c: a5 45        	li	a1, 0x9
   1541e: 36 8d        	mv	s10, a3
   15420: 81 44        	li	s1, 0x0
   15422: e3 66 e5 cc  	bltu	a0, a4, 0x150ee <_vfiprintf_r+0x104>
   15426: 83 c7 06 00  	lbu	a5, 0x0(a3)
   1542a: 9b 14 26 00  	slliw	s1, a2, 0x2
   1542e: b1 9c        	addw	s1, s1, a2
   15430: 9b 94 14 00  	slliw	s1, s1, 0x1
   15434: 3b 86 e4 00  	addw	a2, s1, a4
   15438: 1b 87 07 fd  	addiw	a4, a5, -0x30
   1543c: b2 84        	mv	s1, a2
   1543e: 85 06        	addi	a3, a3, 0x1
   15440: e3 f3 e5 fe  	bgeu	a1, a4, 0x15426 <_vfiprintf_r+0x43c>
   15444: 63 46 06 66  	bltz	a2, 0x15ab0 <_vfiprintf_r+0xac6>
   15448: 36 8d        	mv	s10, a3
   1544a: 55 b1        	j	0x150ee <_vfiprintf_r+0x104>
   1544c: 56 85        	mv	a0, s5
   1544e: 46 ec        	sd	a7, 0x18(sp)
   15450: ef 10 00 4f  	jal	0x16940 <_localeconv_r>
   15454: 1c 65        	ld	a5, 0x8(a0)
   15456: 3e 85        	mv	a0, a5
   15458: be e0        	sd	a5, 0x40(sp)
   1545a: ef d0 4f c4  	jal	0x1289e <strlen>
   1545e: aa 87        	mv	a5, a0
   15460: 56 85        	mv	a0, s5
   15462: 3e f8        	sd	a5, 0x30(sp)
   15464: ef 10 c0 4d  	jal	0x16940 <_localeconv_r>
   15468: 18 69        	ld	a4, 0x10(a0)
   1546a: c2 77        	ld	a5, 0x30(sp)
   1546c: e2 68        	ld	a7, 0x18(sp)
   1546e: 3a fc        	sd	a4, 0x38(sp)
   15470: 63 9a 07 60  	bnez	a5, 0x15a84 <_vfiprintf_r+0xa9a>
   15474: 83 47 0d 00  	lbu	a5, 0x0(s10)
   15478: 8d b9        	j	0x150ea <_vfiprintf_r+0x100>
   1547a: 93 ec 1c 00  	ori	s9, s9, 0x1
   1547e: 83 47 0d 00  	lbu	a5, 0x0(s10)
   15482: 81 2c        	sext.w	s9, s9
   15484: 9d b1        	j	0x150ea <_vfiprintf_r+0x100>
   15486: 03 47 71 06  	lbu	a4, 0x67(sp)
   1548a: 83 47 0d 00  	lbu	a5, 0x0(s10)
   1548e: e3 1e 07 c4  	bnez	a4, 0x150ea <_vfiprintf_r+0x100>
   15492: 13 07 00 02  	li	a4, 0x20
   15496: a3 03 e1 06  	sb	a4, 0x67(sp)
   1549a: 81 b9        	j	0x150ea <_vfiprintf_r+0x100>
   1549c: 93 e7 0c 01  	ori	a5, s9, 0x10
   154a0: 81 27        	sext.w	a5, a5
   154a2: 13 f7 07 02  	andi	a4, a5, 0x20
   154a6: 93 86 8b 00  	addi	a3, s7, 0x8
   154aa: 09 e7        	bnez	a4, 0x154b4 <_vfiprintf_r+0x4ca>
   154ac: 13 f7 07 01  	andi	a4, a5, 0x10
   154b0: 63 01 07 5c  	beqz	a4, 0x15a72 <_vfiprintf_r+0xa88>
   154b4: 03 b7 0b 00  	ld	a4, 0x0(s7)
   154b8: 13 f8 f7 bf  	andi	a6, a5, -0x401
   154bc: a3 03 01 06  	sb	zero, 0x67(sp)
   154c0: 9b 0c 08 00  	sext.w	s9, a6
   154c4: b6 8b        	mv	s7, a3
   154c6: 63 c5 04 08  	bltz	s1, 0x15550 <_vfiprintf_r+0x566>
   154ca: 93 f7 f7 b7  	andi	a5, a5, -0x481
   154ce: 81 27        	sext.w	a5, a5
   154d0: 63 1f 07 6a  	bnez	a4, 0x15b8e <_vfiprintf_r+0xba4>
   154d4: 66 8e        	mv	t3, s9
   154d6: be 8c        	mv	s9, a5
   154d8: ad e4        	bnez	s1, 0x15542 <_vfiprintf_r+0x558>
   154da: 63 13 07 50  	bnez	a4, 0x159e0 <_vfiprintf_r+0x9f6>
   154de: 13 7e 1e 00  	andi	t3, t3, 0x1
   154e2: 63 04 0e 56  	beqz	t3, 0x15a4a <_vfiprintf_r+0xa60>
   154e6: 93 07 00 03  	li	a5, 0x30
   154ea: a3 05 f1 0e  	sb	a5, 0xeb(sp)
   154ee: 72 83        	mv	t1, t3
   154f0: 93 0d b1 0e  	addi	s11, sp, 0xeb
   154f4: ad bd        	j	0x1536e <_vfiprintf_r+0x384>
   154f6: 83 47 0d 00  	lbu	a5, 0x0(s10)
   154fa: 13 07 c0 06  	li	a4, 0x6c
   154fe: 63 89 e7 6a  	beq	a5, a4, 0x15bb0 <_vfiprintf_r+0xbc6>
   15502: 93 ec 0c 01  	ori	s9, s9, 0x10
   15506: 81 2c        	sext.w	s9, s9
   15508: cd b6        	j	0x150ea <_vfiprintf_r+0x100>
   1550a: 13 ee 0c 01  	ori	t3, s9, 0x10
   1550e: 01 2e        	sext.w	t3, t3
   15510: 93 77 0e 02  	andi	a5, t3, 0x20
   15514: 93 8e 8b 00  	addi	t4, s7, 0x8
   15518: 89 e7        	bnez	a5, 0x15522 <_vfiprintf_r+0x538>
   1551a: 93 77 0e 01  	andi	a5, t3, 0x10
   1551e: 63 80 07 54  	beqz	a5, 0x15a5e <_vfiprintf_r+0xa74>
   15522: 83 bb 0b 00  	ld	s7, 0x0(s7)
   15526: a3 03 01 06  	sb	zero, 0x67(sp)
   1552a: f2 8c        	mv	s9, t3
   1552c: e3 cf 04 e0  	bltz	s1, 0x1534a <_vfiprintf_r+0x360>
   15530: 13 78 fe f7  	andi	a6, t3, -0x81
   15534: 9b 0c 08 00  	sext.w	s9, a6
   15538: e3 99 0b e0  	bnez	s7, 0x1534a <_vfiprintf_r+0x360>
   1553c: f6 8b        	mv	s7, t4
   1553e: 05 47        	li	a4, 0x1
   15540: c9 dc        	beqz	s1, 0x154da <_vfiprintf_r+0x4f0>
   15542: 85 47        	li	a5, 0x1
   15544: 63 01 f7 72  	beq	a4, a5, 0x15c66 <_vfiprintf_r+0xc7c>
   15548: 89 47        	li	a5, 0x2
   1554a: 63 02 f7 6c  	beq	a4, a5, 0x15c0e <_vfiprintf_r+0xc24>
   1554e: 01 47        	li	a4, 0x0
   15550: 13 0e c1 0e  	addi	t3, sp, 0xec
   15554: f2 8d        	mv	s11, t3
   15556: 93 77 77 00  	andi	a5, a4, 0x7
   1555a: 93 87 07 03  	addi	a5, a5, 0x30
   1555e: a3 8f fd fe  	sb	a5, -0x1(s11)
   15562: 0d 83        	srli	a4, a4, 0x3
   15564: ee 86        	mv	a3, s11
   15566: fd 1d        	addi	s11, s11, -0x1
   15568: 7d f7        	bnez	a4, 0x15556 <_vfiprintf_r+0x56c>
   1556a: 13 f7 1c 00  	andi	a4, s9, 0x1
   1556e: 63 07 07 28  	beqz	a4, 0x157fc <_vfiprintf_r+0x812>
   15572: 13 07 00 03  	li	a4, 0x30
   15576: 63 83 e7 28  	beq	a5, a4, 0x157fc <_vfiprintf_r+0x812>
   1557a: f9 16        	addi	a3, a3, -0x2
   1557c: a3 8f ed fe  	sb	a4, -0x1(s11)
   15580: 3b 0e de 40  	subw	t3, t3, a3
   15584: 1b 83 04 00  	sext.w	t1, s1
   15588: 63 c0 c4 53  	blt	s1, t3, 0x15aa8 <_vfiprintf_r+0xabe>
   1558c: b6 8d        	mv	s11, a3
   1558e: c5 b3        	j	0x1536e <_vfiprintf_r+0x384>
   15590: 83 47 0d 00  	lbu	a5, 0x0(s10)
   15594: 13 07 80 06  	li	a4, 0x68
   15598: 63 84 e7 60  	beq	a5, a4, 0x15ba0 <_vfiprintf_r+0xbb6>
   1559c: 93 ec 0c 04  	ori	s9, s9, 0x40
   155a0: 81 2c        	sext.w	s9, s9
   155a2: a1 b6        	j	0x150ea <_vfiprintf_r+0x100>
   155a4: 93 ec 0c 02  	ori	s9, s9, 0x20
   155a8: 83 47 0d 00  	lbu	a5, 0x0(s10)
   155ac: 81 2c        	sext.w	s9, s9
   155ae: 35 be        	j	0x150ea <_vfiprintf_r+0x100>
   155b0: a1 67        	lui	a5, 0x8
   155b2: 93 87 07 83  	addi	a5, a5, -0x7d0
   155b6: 23 14 f1 06  	sh	a5, 0x68(sp)
   155ba: ed 67        	lui	a5, 0x1b
   155bc: 13 e8 2c 00  	ori	a6, s9, 0x2
   155c0: 93 87 07 15  	addi	a5, a5, 0x150
   155c4: 03 b7 0b 00  	ld	a4, 0x0(s7)
   155c8: 9b 0c 08 00  	sext.w	s9, a6
   155cc: a1 0b        	addi	s7, s7, 0x8
   155ce: 3e e8        	sd	a5, 0x10(sp)
   155d0: a3 03 01 06  	sb	zero, 0x67(sp)
   155d4: 63 c6 04 20  	bltz	s1, 0x157e0 <_vfiprintf_r+0x7f6>
   155d8: 93 f7 fc f7  	andi	a5, s9, -0x81
   155dc: 81 27        	sext.w	a5, a5
   155de: 63 1d 07 1e  	bnez	a4, 0x157d8 <_vfiprintf_r+0x7ee>
   155e2: 66 8e        	mv	t3, s9
   155e4: 09 47        	li	a4, 0x2
   155e6: be 8c        	mv	s9, a5
   155e8: c5 bd        	j	0x154d8 <_vfiprintf_r+0x4ee>
   155ea: 93 f7 0c 02  	andi	a5, s9, 0x20
   155ee: 03 b7 0b 00  	ld	a4, 0x0(s7)
   155f2: 85 e3        	bnez	a5, 0x15612 <_vfiprintf_r+0x628>
   155f4: 93 f7 0c 01  	andi	a5, s9, 0x10
   155f8: 89 ef        	bnez	a5, 0x15612 <_vfiprintf_r+0x628>
   155fa: 93 f7 0c 04  	andi	a5, s9, 0x40
   155fe: 63 96 07 62  	bnez	a5, 0x15c2a <_vfiprintf_r+0xc40>
   15602: 13 f8 0c 20  	andi	a6, s9, 0x200
   15606: 63 02 08 68  	beqz	a6, 0x15c8a <_vfiprintf_r+0xca0>
   1560a: 23 00 87 01  	sb	s8, 0x0(a4)
   1560e: a1 0b        	addi	s7, s7, 0x8
   15610: ad b4        	j	0x1507a <_vfiprintf_r+0x90>
   15612: 23 30 87 01  	sd	s8, 0x0(a4)
   15616: a1 0b        	addi	s7, s7, 0x8
   15618: 8d b4        	j	0x1507a <_vfiprintf_r+0x90>
   1561a: 05 47        	li	a4, 0x1
   1561c: f2 87        	mv	a5, t3
   1561e: ee f9        	sd	s11, 0xf0(sp)
   15620: f2 fd        	sd	t3, 0xf8(sp)
   15622: 72 e1        	sd	t3, 0x80(sp)
   15624: ba dc        	sw	a4, 0x78(sp)
   15626: 4e 84        	mv	s0, s3
   15628: 41 04        	addi	s0, s0, 0x10
   1562a: a1 b9        	j	0x15282 <_vfiprintf_r+0x298>
   1562c: 3b 87 68 40  	subw	a4, a7, t1
   15630: e3 5c e0 c0  	blez	a4, 0x15248 <_vfiprintf_r+0x25e>
   15634: 41 46        	li	a2, 0x10
   15636: 63 52 e6 64  	bge	a2, a4, 0x15c7a <_vfiprintf_r+0xc90>
   1563a: f1 6e        	lui	t4, 0x1c
   1563c: 93 8e 0e 8c  	addi	t4, t4, -0x740
   15640: 26 f4        	sd	s1, 0x28(sp)
   15642: a2 85        	mv	a1, s0
   15644: 41 4f        	li	t5, 0x10
   15646: 9d 4f        	li	t6, 0x7
   15648: 72 ec        	sd	t3, 0x18(sp)
   1564a: 46 f0        	sd	a7, 0x20(sp)
   1564c: 9a e4        	sd	t1, 0x48(sp)
   1564e: 3a 84        	mv	s0, a4
   15650: f6 84        	mv	s1, t4
   15652: 01 a8        	j	0x15662 <_vfiprintf_r+0x678>
   15654: 1b 86 26 00  	addiw	a2, a3, 0x2
   15658: c1 05        	addi	a1, a1, 0x10
   1565a: aa 86        	mv	a3, a0
   1565c: 41 34        	addiw	s0, s0, -0x10
   1565e: 63 5f 8f 02  	bge	t5, s0, 0x1569c <_vfiprintf_r+0x6b2>
   15662: 1b 85 16 00  	addiw	a0, a3, 0x1
   15666: c1 07        	addi	a5, a5, 0x10
   15668: 84 e1        	sd	s1, 0x0(a1)
   1566a: 23 b4 e5 01  	sd	t5, 0x8(a1)
   1566e: 3e e1        	sd	a5, 0x80(sp)
   15670: aa dc        	sw	a0, 0x78(sp)
   15672: e3 d1 af fe  	bge	t6, a0, 0x15654 <_vfiprintf_r+0x66a>
   15676: 63 89 07 10  	beqz	a5, 0x15788 <_vfiprintf_r+0x79e>
   1567a: 90 18        	addi	a2, sp, 0x70
   1567c: d2 85        	mv	a1, s4
   1567e: 56 85        	mv	a0, s5
   15680: ef f0 9f 89  	jal	0x14f18 <__sprint_r.part.0>
   15684: e3 13 05 ac  	bnez	a0, 0x1514a <_vfiprintf_r+0x160>
   15688: e6 56        	lw	a3, 0x78(sp)
   1568a: 41 4f        	li	t5, 0x10
   1568c: 41 34        	addiw	s0, s0, -0x10
   1568e: 8a 67        	ld	a5, 0x80(sp)
   15690: ce 85        	mv	a1, s3
   15692: 1b 86 16 00  	addiw	a2, a3, 0x1
   15696: 9d 4f        	li	t6, 0x7
   15698: e3 45 8f fc  	blt	t5, s0, 0x15662 <_vfiprintf_r+0x678>
   1569c: a6 8e        	mv	t4, s1
   1569e: 62 6e        	ld	t3, 0x18(sp)
   156a0: 82 78        	ld	a7, 0x20(sp)
   156a2: 26 63        	ld	t1, 0x48(sp)
   156a4: a2 74        	ld	s1, 0x28(sp)
   156a6: 22 87        	mv	a4, s0
   156a8: 2e 84        	mv	s0, a1
   156aa: ba 97        	add	a5, a5, a4
   156ac: 18 e4        	sd	a4, 0x8(s0)
   156ae: 23 30 d4 01  	sd	t4, 0x0(s0)
   156b2: 3e e1        	sd	a5, 0x80(sp)
   156b4: b2 dc        	sw	a2, 0x78(sp)
   156b6: 1d 47        	li	a4, 0x7
   156b8: 63 5d c7 38  	bge	a4, a2, 0x15a52 <_vfiprintf_r+0xa68>
   156bc: 63 8b 07 54  	beqz	a5, 0x15c12 <_vfiprintf_r+0xc28>
   156c0: 90 18        	addi	a2, sp, 0x70
   156c2: d2 85        	mv	a1, s4
   156c4: 56 85        	mv	a0, s5
   156c6: 1a f4        	sd	t1, 0x28(sp)
   156c8: 46 f0        	sd	a7, 0x20(sp)
   156ca: 72 ec        	sd	t3, 0x18(sp)
   156cc: ef f0 df 84  	jal	0x14f18 <__sprint_r.part.0>
   156d0: e3 1d 05 a6  	bnez	a0, 0x1514a <_vfiprintf_r+0x160>
   156d4: 62 6e        	ld	t3, 0x18(sp)
   156d6: e6 56        	lw	a3, 0x78(sp)
   156d8: 8a 67        	ld	a5, 0x80(sp)
   156da: bb 84 c4 41  	subw	s1, s1, t3
   156de: 22 73        	ld	t1, 0x28(sp)
   156e0: 82 78        	ld	a7, 0x20(sp)
   156e2: 4e 84        	mv	s0, s3
   156e4: 9b 85 16 00  	addiw	a1, a3, 0x1
   156e8: e3 54 90 b6  	blez	s1, 0x15250 <_vfiprintf_r+0x266>
   156ec: f1 6e        	lui	t4, 0x1c
   156ee: 93 8e 0e 8c  	addi	t4, t4, -0x740
   156f2: 63 53 99 06  	bge	s2, s1, 0x15758 <_vfiprintf_r+0x76e>
   156f6: 22 87        	mv	a4, s0
   156f8: 1d 4f        	li	t5, 0x7
   156fa: 26 84        	mv	s0, s1
   156fc: 72 ec        	sd	t3, 0x18(sp)
   156fe: 46 f0        	sd	a7, 0x20(sp)
   15700: 1a f4        	sd	t1, 0x28(sp)
   15702: da 84        	mv	s1, s6
   15704: 01 a8        	j	0x15714 <_vfiprintf_r+0x72a>
   15706: 9b 85 26 00  	addiw	a1, a3, 0x2
   1570a: 41 07        	addi	a4, a4, 0x10
   1570c: aa 86        	mv	a3, a0
   1570e: 41 34        	addiw	s0, s0, -0x10
   15710: 63 5e 89 02  	bge	s2, s0, 0x1574c <_vfiprintf_r+0x762>
   15714: 1b 85 16 00  	addiw	a0, a3, 0x1
   15718: c1 07        	addi	a5, a5, 0x10
   1571a: 23 30 67 01  	sd	s6, 0x0(a4)
   1571e: 23 34 27 01  	sd	s2, 0x8(a4)
   15722: 3e e1        	sd	a5, 0x80(sp)
   15724: aa dc        	sw	a0, 0x78(sp)
   15726: e3 50 af fe  	bge	t5, a0, 0x15706 <_vfiprintf_r+0x71c>
   1572a: b9 c3        	beqz	a5, 0x15770 <_vfiprintf_r+0x786>
   1572c: 90 18        	addi	a2, sp, 0x70
   1572e: d2 85        	mv	a1, s4
   15730: 56 85        	mv	a0, s5
   15732: ef f0 6f fe  	jal	0x14f18 <__sprint_r.part.0>
   15736: e3 1a 05 a0  	bnez	a0, 0x1514a <_vfiprintf_r+0x160>
   1573a: e6 56        	lw	a3, 0x78(sp)
   1573c: 41 34        	addiw	s0, s0, -0x10
   1573e: 8a 67        	ld	a5, 0x80(sp)
   15740: 4e 87        	mv	a4, s3
   15742: 9b 85 16 00  	addiw	a1, a3, 0x1
   15746: 1d 4f        	li	t5, 0x7
   15748: e3 46 89 fc  	blt	s2, s0, 0x15714 <_vfiprintf_r+0x72a>
   1574c: 62 6e        	ld	t3, 0x18(sp)
   1574e: 82 78        	ld	a7, 0x20(sp)
   15750: 22 73        	ld	t1, 0x28(sp)
   15752: a6 8e        	mv	t4, s1
   15754: a2 84        	mv	s1, s0
   15756: 3a 84        	mv	s0, a4
   15758: a6 97        	add	a5, a5, s1
   1575a: 23 30 d4 01  	sd	t4, 0x0(s0)
   1575e: 04 e4        	sd	s1, 0x8(s0)
   15760: 3e e1        	sd	a5, 0x80(sp)
   15762: ae dc        	sw	a1, 0x78(sp)
   15764: 1d 47        	li	a4, 0x7
   15766: 63 47 b7 20  	blt	a4, a1, 0x15974 <_vfiprintf_r+0x98a>
   1576a: 41 04        	addi	s0, s0, 0x10
   1576c: 85 25        	addiw	a1, a1, 0x1
   1576e: cd b4        	j	0x15250 <_vfiprintf_r+0x266>
   15770: 85 45        	li	a1, 0x1
   15772: 81 46        	li	a3, 0x0
   15774: 4e 87        	mv	a4, s3
   15776: 61 bf        	j	0x1570e <_vfiprintf_r+0x724>
   15778: 90 18        	addi	a2, sp, 0x70
   1577a: d2 85        	mv	a1, s4
   1577c: 56 85        	mv	a0, s5
   1577e: ef f0 af f9  	jal	0x14f18 <__sprint_r.part.0>
   15782: e3 00 05 b2  	beqz	a0, 0x152a2 <_vfiprintf_r+0x2b8>
   15786: d1 b2        	j	0x1514a <_vfiprintf_r+0x160>
   15788: 05 46        	li	a2, 0x1
   1578a: 81 46        	li	a3, 0x0
   1578c: ce 85        	mv	a1, s3
   1578e: f9 b5        	j	0x1565c <_vfiprintf_r+0x672>
   15790: 85 cb        	beqz	a5, 0x157c0 <_vfiprintf_r+0x7d6>
   15792: 90 18        	addi	a2, sp, 0x70
   15794: d2 85        	mv	a1, s4
   15796: 56 85        	mv	a0, s5
   15798: 9a e8        	sd	t1, 0x50(sp)
   1579a: c6 e4        	sd	a7, 0x48(sp)
   1579c: 72 f4        	sd	t3, 0x28(sp)
   1579e: 16 f0        	sd	t0, 0x20(sp)
   157a0: 7e ec        	sd	t6, 0x18(sp)
   157a2: ef f0 6f f7  	jal	0x14f18 <__sprint_r.part.0>
   157a6: e3 12 05 9a  	bnez	a0, 0x1514a <_vfiprintf_r+0x160>
   157aa: e6 56        	lw	a3, 0x78(sp)
   157ac: 8a 67        	ld	a5, 0x80(sp)
   157ae: 46 63        	ld	t1, 0x50(sp)
   157b0: a6 68        	ld	a7, 0x48(sp)
   157b2: 22 7e        	ld	t3, 0x28(sp)
   157b4: 82 72        	ld	t0, 0x20(sp)
   157b6: e2 6f        	ld	t6, 0x18(sp)
   157b8: 4e 84        	mv	s0, s3
   157ba: 9b 85 16 00  	addiw	a1, a3, 0x1
   157be: 81 b4        	j	0x151fe <_vfiprintf_r+0x214>
   157c0: 63 8f 0f 2c  	beqz	t6, 0x15a9e <_vfiprintf_r+0xab4>
   157c4: bc 10        	addi	a5, sp, 0x68
   157c6: be f9        	sd	a5, 0xf0(sp)
   157c8: 89 47        	li	a5, 0x2
   157ca: be fd        	sd	a5, 0xf8(sp)
   157cc: 85 45        	li	a1, 0x1
   157ce: 4e 84        	mv	s0, s3
   157d0: ae 86        	mv	a3, a1
   157d2: 41 04        	addi	s0, s0, 0x10
   157d4: 85 25        	addiw	a1, a1, 0x1
   157d6: ad b4        	j	0x15240 <_vfiprintf_r+0x256>
   157d8: be 8c        	mv	s9, a5
   157da: 89 47        	li	a5, 0x2
   157dc: e3 8a 07 d6  	beqz	a5, 0x15550 <_vfiprintf_r+0x566>
   157e0: c2 66        	ld	a3, 0x10(sp)
   157e2: 13 0e c1 0e  	addi	t3, sp, 0xec
   157e6: f2 8d        	mv	s11, t3
   157e8: 93 77 f7 00  	andi	a5, a4, 0xf
   157ec: b6 97        	add	a5, a5, a3
   157ee: 83 c7 07 00  	lbu	a5, 0x0(a5)
   157f2: 11 83        	srli	a4, a4, 0x4
   157f4: fd 1d        	addi	s11, s11, -0x1
   157f6: 23 80 fd 00  	sb	a5, 0x0(s11)
   157fa: 7d f7        	bnez	a4, 0x157e8 <_vfiprintf_r+0x7fe>
   157fc: 3b 0e be 41  	subw	t3, t3, s11
   15800: 1b 83 04 00  	sext.w	t1, s1
   15804: e3 d5 c4 b7  	bge	s1, t3, 0x1536e <_vfiprintf_r+0x384>
   15808: 1b 03 0e 00  	sext.w	t1, t3
   1580c: 8d b6        	j	0x1536e <_vfiprintf_r+0x384>
   1580e: 41 45        	li	a0, 0x10
   15810: 63 56 e5 44  	bge	a0, a4, 0x15c5c <_vfiprintf_r+0xc72>
   15814: f1 6e        	lui	t4, 0x1c
   15816: 93 8e 0e 8d  	addi	t4, t4, -0x730
   1581a: a6 e8        	sd	s1, 0x50(sp)
   1581c: a2 85        	mv	a1, s0
   1581e: 41 4f        	li	t5, 0x10
   15820: 9d 43        	li	t2, 0x7
   15822: 7e ec        	sd	t6, 0x18(sp)
   15824: 16 f0        	sd	t0, 0x20(sp)
   15826: 72 f4        	sd	t3, 0x28(sp)
   15828: c6 e4        	sd	a7, 0x48(sp)
   1582a: 9a ec        	sd	t1, 0x58(sp)
   1582c: 3a 84        	mv	s0, a4
   1582e: f6 84        	mv	s1, t4
   15830: 11 a8        	j	0x15844 <_vfiprintf_r+0x85a>
   15832: 1b 86 26 00  	addiw	a2, a3, 0x2
   15836: c1 05        	addi	a1, a1, 0x10
   15838: aa 86        	mv	a3, a0
   1583a: 41 34        	addiw	s0, s0, -0x10
   1583c: 63 50 8f 04  	bge	t5, s0, 0x1587c <_vfiprintf_r+0x892>
   15840: 1b 86 16 00  	addiw	a2, a3, 0x1
   15844: c1 07        	addi	a5, a5, 0x10
   15846: 84 e1        	sd	s1, 0x0(a1)
   15848: 23 b4 e5 01  	sd	t5, 0x8(a1)
   1584c: 3e e1        	sd	a5, 0x80(sp)
   1584e: 1b 05 06 00  	sext.w	a0, a2
   15852: b2 dc        	sw	a2, 0x78(sp)
   15854: e3 df a3 fc  	bge	t2, a0, 0x15832 <_vfiprintf_r+0x848>
   15858: a9 cb        	beqz	a5, 0x158aa <_vfiprintf_r+0x8c0>
   1585a: 90 18        	addi	a2, sp, 0x70
   1585c: d2 85        	mv	a1, s4
   1585e: 56 85        	mv	a0, s5
   15860: ef f0 8f eb  	jal	0x14f18 <__sprint_r.part.0>
   15864: e3 13 05 8e  	bnez	a0, 0x1514a <_vfiprintf_r+0x160>
   15868: e6 56        	lw	a3, 0x78(sp)
   1586a: 41 4f        	li	t5, 0x10
   1586c: 41 34        	addiw	s0, s0, -0x10
   1586e: 8a 67        	ld	a5, 0x80(sp)
   15870: ce 85        	mv	a1, s3
   15872: 1b 86 16 00  	addiw	a2, a3, 0x1
   15876: 9d 43        	li	t2, 0x7
   15878: e3 44 8f fc  	blt	t5, s0, 0x15840 <_vfiprintf_r+0x856>
   1587c: a6 8e        	mv	t4, s1
   1587e: e2 6f        	ld	t6, 0x18(sp)
   15880: 82 72        	ld	t0, 0x20(sp)
   15882: 22 7e        	ld	t3, 0x28(sp)
   15884: a6 68        	ld	a7, 0x48(sp)
   15886: 66 63        	ld	t1, 0x58(sp)
   15888: c6 64        	ld	s1, 0x50(sp)
   1588a: 22 87        	mv	a4, s0
   1588c: 2e 84        	mv	s0, a1
   1588e: ba 97        	add	a5, a5, a4
   15890: 18 e4        	sd	a4, 0x8(s0)
   15892: 23 30 d4 01  	sd	t4, 0x0(s0)
   15896: 3e e1        	sd	a5, 0x80(sp)
   15898: b2 dc        	sw	a2, 0x78(sp)
   1589a: 1d 47        	li	a4, 0x7
   1589c: 63 48 c7 10  	blt	a4, a2, 0x159ac <_vfiprintf_r+0x9c2>
   158a0: 41 04        	addi	s0, s0, 0x10
   158a2: 9b 05 16 00  	addiw	a1, a2, 0x1
   158a6: b2 86        	mv	a3, a2
   158a8: 15 ba        	j	0x151dc <_vfiprintf_r+0x1f2>
   158aa: 81 46        	li	a3, 0x0
   158ac: 05 46        	li	a2, 0x1
   158ae: ce 85        	mv	a1, s3
   158b0: 69 b7        	j	0x1583a <_vfiprintf_r+0x850>
   158b2: 82 dc        	sw	zero, 0x78(sp)
   158b4: 13 f8 4c 00  	andi	a6, s9, 0x4
   158b8: 63 07 08 0a  	beqz	a6, 0x15966 <_vfiprintf_r+0x97c>
   158bc: bb 84 68 40  	subw	s1, a7, t1
   158c0: 63 53 90 0a  	blez	s1, 0x15966 <_vfiprintf_r+0x97c>
   158c4: 4e 84        	mv	s0, s3
   158c6: 41 47        	li	a4, 0x10
   158c8: e6 56        	lw	a3, 0x78(sp)
   158ca: 63 52 97 3a  	bge	a4, s1, 0x15c6e <_vfiprintf_r+0xc84>
   158ce: f1 6e        	lui	t4, 0x1c
   158d0: 93 8e 0e 8d  	addi	t4, t4, -0x730
   158d4: 22 86        	mv	a2, s0
   158d6: c1 4d        	li	s11, 0x10
   158d8: 26 84        	mv	s0, s1
   158da: 9d 4c        	li	s9, 0x7
   158dc: 46 ec        	sd	a7, 0x18(sp)
   158de: 1a f0        	sd	t1, 0x20(sp)
   158e0: f6 84        	mv	s1, t4
   158e2: 01 a8        	j	0x158f2 <_vfiprintf_r+0x908>
   158e4: 1b 87 26 00  	addiw	a4, a3, 0x2
   158e8: 41 06        	addi	a2, a2, 0x10
   158ea: ae 86        	mv	a3, a1
   158ec: 41 34        	addiw	s0, s0, -0x10
   158ee: 63 dc 8d 02  	bge	s11, s0, 0x15926 <_vfiprintf_r+0x93c>
   158f2: 9b 85 16 00  	addiw	a1, a3, 0x1
   158f6: c1 07        	addi	a5, a5, 0x10
   158f8: 04 e2        	sd	s1, 0x0(a2)
   158fa: 23 34 b6 01  	sd	s11, 0x8(a2)
   158fe: 3e e1        	sd	a5, 0x80(sp)
   15900: ae dc        	sw	a1, 0x78(sp)
   15902: e3 d1 bc fe  	bge	s9, a1, 0x158e4 <_vfiprintf_r+0x8fa>
   15906: a1 cf        	beqz	a5, 0x1595e <_vfiprintf_r+0x974>
   15908: 90 18        	addi	a2, sp, 0x70
   1590a: d2 85        	mv	a1, s4
   1590c: 56 85        	mv	a0, s5
   1590e: ef f0 af e0  	jal	0x14f18 <__sprint_r.part.0>
   15912: e3 1c 05 82  	bnez	a0, 0x1514a <_vfiprintf_r+0x160>
   15916: e6 56        	lw	a3, 0x78(sp)
   15918: 41 34        	addiw	s0, s0, -0x10
   1591a: 8a 67        	ld	a5, 0x80(sp)
   1591c: 4e 86        	mv	a2, s3
   1591e: 1b 87 16 00  	addiw	a4, a3, 0x1
   15922: e3 c8 8d fc  	blt	s11, s0, 0x158f2 <_vfiprintf_r+0x908>
   15926: e2 68        	ld	a7, 0x18(sp)
   15928: 02 73        	ld	t1, 0x20(sp)
   1592a: a6 8e        	mv	t4, s1
   1592c: a2 84        	mv	s1, s0
   1592e: 32 84        	mv	s0, a2
   15930: a6 97        	add	a5, a5, s1
   15932: 23 30 d4 01  	sd	t4, 0x0(s0)
   15936: 04 e4        	sd	s1, 0x8(s0)
   15938: 3e e1        	sd	a5, 0x80(sp)
   1593a: ba dc        	sw	a4, 0x78(sp)
   1593c: 9d 46        	li	a3, 0x7
   1593e: e3 da e6 94  	bge	a3, a4, 0x15292 <_vfiprintf_r+0x2a8>
   15942: 95 c3        	beqz	a5, 0x15966 <_vfiprintf_r+0x97c>
   15944: 90 18        	addi	a2, sp, 0x70
   15946: d2 85        	mv	a1, s4
   15948: 56 85        	mv	a0, s5
   1594a: 1a f0        	sd	t1, 0x20(sp)
   1594c: 46 ec        	sd	a7, 0x18(sp)
   1594e: ef f0 af dc  	jal	0x14f18 <__sprint_r.part.0>
   15952: 63 1c 05 fe  	bnez	a0, 0x1514a <_vfiprintf_r+0x160>
   15956: 8a 67        	ld	a5, 0x80(sp)
   15958: 02 73        	ld	t1, 0x20(sp)
   1595a: e2 68        	ld	a7, 0x18(sp)
   1595c: 1d ba        	j	0x15292 <_vfiprintf_r+0x2a8>
   1595e: 05 47        	li	a4, 0x1
   15960: 81 46        	li	a3, 0x0
   15962: 4e 86        	mv	a2, s3
   15964: 61 b7        	j	0x158ec <_vfiprintf_r+0x902>
   15966: c6 87        	mv	a5, a7
   15968: 63 d3 68 00  	bge	a7, t1, 0x1596e <_vfiprintf_r+0x984>
   1596c: 9a 87        	mv	a5, t1
   1596e: 3b 8c 87 01  	addw	s8, a5, s8
   15972: 05 ba        	j	0x152a2 <_vfiprintf_r+0x2b8>
   15974: e3 83 07 ca  	beqz	a5, 0x1561a <_vfiprintf_r+0x630>
   15978: 90 18        	addi	a2, sp, 0x70
   1597a: d2 85        	mv	a1, s4
   1597c: 56 85        	mv	a0, s5
   1597e: 1a f4        	sd	t1, 0x28(sp)
   15980: 46 f0        	sd	a7, 0x20(sp)
   15982: 72 ec        	sd	t3, 0x18(sp)
   15984: ef f0 4f d9  	jal	0x14f18 <__sprint_r.part.0>
   15988: 63 11 05 fc  	bnez	a0, 0x1514a <_vfiprintf_r+0x160>
   1598c: e6 55        	lw	a1, 0x78(sp)
   1598e: 8a 67        	ld	a5, 0x80(sp)
   15990: 22 73        	ld	t1, 0x28(sp)
   15992: 82 78        	ld	a7, 0x20(sp)
   15994: 62 6e        	ld	t3, 0x18(sp)
   15996: 4e 84        	mv	s0, s3
   15998: 85 25        	addiw	a1, a1, 0x1
   1599a: 5d b8        	j	0x15250 <_vfiprintf_r+0x266>
   1599c: 82 dc        	sw	zero, 0x78(sp)
   1599e: 4e 84        	mv	s0, s3
   159a0: 6f f0 af f2  	j	0x150ca <_vfiprintf_r+0xe0>
   159a4: 85 45        	li	a1, 0x1
   159a6: 81 46        	li	a3, 0x0
   159a8: 4e 84        	mv	s0, s3
   159aa: 59 b8        	j	0x15240 <_vfiprintf_r+0x256>
   159ac: 63 85 07 18  	beqz	a5, 0x15b36 <_vfiprintf_r+0xb4c>
   159b0: 90 18        	addi	a2, sp, 0x70
   159b2: d2 85        	mv	a1, s4
   159b4: 56 85        	mv	a0, s5
   159b6: 9a e8        	sd	t1, 0x50(sp)
   159b8: c6 e4        	sd	a7, 0x48(sp)
   159ba: 72 f4        	sd	t3, 0x28(sp)
   159bc: 16 f0        	sd	t0, 0x20(sp)
   159be: 7e ec        	sd	t6, 0x18(sp)
   159c0: ef f0 8f d5  	jal	0x14f18 <__sprint_r.part.0>
   159c4: 63 13 05 f8  	bnez	a0, 0x1514a <_vfiprintf_r+0x160>
   159c8: e6 56        	lw	a3, 0x78(sp)
   159ca: 8a 67        	ld	a5, 0x80(sp)
   159cc: 46 63        	ld	t1, 0x50(sp)
   159ce: a6 68        	ld	a7, 0x48(sp)
   159d0: 22 7e        	ld	t3, 0x28(sp)
   159d2: 82 72        	ld	t0, 0x20(sp)
   159d4: e2 6f        	ld	t6, 0x18(sp)
   159d6: 4e 84        	mv	s0, s3
   159d8: 9b 85 16 00  	addiw	a1, a3, 0x1
   159dc: 6f f0 1f 80  	j	0x151dc <_vfiprintf_r+0x1f2>
   159e0: 01 43        	li	t1, 0x0
   159e2: 01 4e        	li	t3, 0x0
   159e4: 93 0d c1 0e  	addi	s11, sp, 0xec
   159e8: 59 b2        	j	0x1536e <_vfiprintf_r+0x384>
   159ea: 13 0e c1 0e  	addi	t3, sp, 0xec
   159ee: 62 78        	ld	a6, 0x38(sp)
   159f0: 13 ff 0c 40  	andi	t5, s9, 0x400
   159f4: 01 46        	li	a2, 0x0
   159f6: 72 87        	mv	a4, t3
   159f8: a9 46        	li	a3, 0xa
   159fa: 25 43        	li	t1, 0x9
   159fc: 93 0f f0 0f  	li	t6, 0xff
   15a00: 39 a0        	j	0x15a0e <_vfiprintf_r+0xa24>
   15a02: b3 d7 db 02  	divu	a5, s7, a3
   15a06: 63 77 73 03  	bgeu	t1, s7, 0x15a34 <_vfiprintf_r+0xa4a>
   15a0a: be 8b        	mv	s7, a5
   15a0c: 6e 87        	mv	a4, s11
   15a0e: 93 0d f7 ff  	addi	s11, a4, -0x1
   15a12: 05 26        	addiw	a2, a2, 0x1
   15a14: b3 f7 db 02  	remu	a5, s7, a3
   15a18: 9b 87 07 03  	addiw	a5, a5, 0x30
   15a1c: a3 0f f7 fe  	sb	a5, -0x1(a4)
   15a20: e3 01 0f fe  	beqz	t5, 0x15a02 <_vfiprintf_r+0xa18>
   15a24: 83 47 08 00  	lbu	a5, 0x0(a6)
   15a28: e3 9d c7 fc  	bne	a5, a2, 0x15a02 <_vfiprintf_r+0xa18>
   15a2c: e3 8b f7 fd  	beq	a5, t6, 0x15a02 <_vfiprintf_r+0xa18>
   15a30: 63 6f 73 11  	bltu	t1, s7, 0x15b4e <_vfiprintf_r+0xb64>
   15a34: 42 fc        	sd	a6, 0x38(sp)
   15a36: 3b 0e be 41  	subw	t3, t3, s11
   15a3a: 1b 83 04 00  	sext.w	t1, s1
   15a3e: 63 d4 c4 01  	bge	s1, t3, 0x15a46 <_vfiprintf_r+0xa5c>
   15a42: 1b 03 0e 00  	sext.w	t1, t3
   15a46: f6 8b        	mv	s7, t4
   15a48: 1d b2        	j	0x1536e <_vfiprintf_r+0x384>
   15a4a: 01 43        	li	t1, 0x0
   15a4c: 93 0d c1 0e  	addi	s11, sp, 0xec
   15a50: 39 ba        	j	0x1536e <_vfiprintf_r+0x384>
   15a52: 41 04        	addi	s0, s0, 0x10
   15a54: 9b 05 16 00  	addiw	a1, a2, 0x1
   15a58: b2 86        	mv	a3, a2
   15a5a: 6f f0 ef fe  	j	0x15248 <_vfiprintf_r+0x25e>
   15a5e: 93 77 0e 04  	andi	a5, t3, 0x40
   15a62: 83 ab 0b 00  	lw	s7, 0x0(s7)
   15a66: 63 8e 07 18  	beqz	a5, 0x15c02 <_vfiprintf_r+0xc18>
   15a6a: c2 1b        	slli	s7, s7, 0x30
   15a6c: 93 db 0b 03  	srli	s7, s7, 0x30
   15a70: 5d bc        	j	0x15526 <_vfiprintf_r+0x53c>
   15a72: 13 f6 07 04  	andi	a2, a5, 0x40
   15a76: 03 a7 0b 00  	lw	a4, 0x0(s7)
   15a7a: 63 04 06 16  	beqz	a2, 0x15be2 <_vfiprintf_r+0xbf8>
   15a7e: 42 17        	slli	a4, a4, 0x30
   15a80: 41 93        	srli	a4, a4, 0x30
   15a82: 1d bc        	j	0x154b8 <_vfiprintf_r+0x4ce>
   15a84: 83 47 0d 00  	lbu	a5, 0x0(s10)
   15a88: 63 01 07 e6  	beqz	a4, 0x150ea <_vfiprintf_r+0x100>
   15a8c: 03 47 07 00  	lbu	a4, 0x0(a4)
   15a90: 63 0d 07 e4  	beqz	a4, 0x150ea <_vfiprintf_r+0x100>
   15a94: 93 ec 0c 40  	ori	s9, s9, 0x400
   15a98: 81 2c        	sext.w	s9, s9
   15a9a: 6f f0 0f e5  	j	0x150ea <_vfiprintf_r+0x100>
   15a9e: 81 46        	li	a3, 0x0
   15aa0: 85 45        	li	a1, 0x1
   15aa2: 4e 84        	mv	s0, s3
   15aa4: 6f f0 cf f9  	j	0x15240 <_vfiprintf_r+0x256>
   15aa8: 1b 03 0e 00  	sext.w	t1, t3
   15aac: b6 8d        	mv	s11, a3
   15aae: c1 b0        	j	0x1536e <_vfiprintf_r+0x384>
   15ab0: fd 54        	li	s1, -0x1
   15ab2: 36 8d        	mv	s10, a3
   15ab4: 6f f0 af e3  	j	0x150ee <_vfiprintf_r+0x104>
   15ab8: 6d 67        	lui	a4, 0x1b
   15aba: 13 07 87 16  	addi	a4, a4, 0x168
   15abe: 3a e8        	sd	a4, 0x10(sp)
   15ac0: 13 f7 0c 02  	andi	a4, s9, 0x20
   15ac4: 93 86 8b 00  	addi	a3, s7, 0x8
   15ac8: 29 ef        	bnez	a4, 0x15b22 <_vfiprintf_r+0xb38>
   15aca: 13 f7 0c 01  	andi	a4, s9, 0x10
   15ace: 31 eb        	bnez	a4, 0x15b22 <_vfiprintf_r+0xb38>
   15ad0: 13 f6 0c 04  	andi	a2, s9, 0x40
   15ad4: 03 a7 0b 00  	lw	a4, 0x0(s7)
   15ad8: 63 0f 06 0e  	beqz	a2, 0x15bd6 <_vfiprintf_r+0xbec>
   15adc: 42 17        	slli	a4, a4, 0x30
   15ade: 41 93        	srli	a4, a4, 0x30
   15ae0: 13 f6 1c 00  	andi	a2, s9, 0x1
   15ae4: 01 ce        	beqz	a2, 0x15afc <_vfiprintf_r+0xb12>
   15ae6: 19 cb        	beqz	a4, 0x15afc <_vfiprintf_r+0xb12>
   15ae8: 13 e8 2c 00  	ori	a6, s9, 0x2
   15aec: 13 06 00 03  	li	a2, 0x30
   15af0: 23 04 c1 06  	sb	a2, 0x68(sp)
   15af4: a3 04 f1 06  	sb	a5, 0x69(sp)
   15af8: 9b 0c 08 00  	sext.w	s9, a6
   15afc: 13 f8 fc bf  	andi	a6, s9, -0x401
   15b00: 9b 0c 08 00  	sext.w	s9, a6
   15b04: b6 8b        	mv	s7, a3
   15b06: e9 b4        	j	0x155d0 <_vfiprintf_r+0x5e6>
   15b08: 66 8e        	mv	t3, s9
   15b0a: 19 b4        	j	0x15510 <_vfiprintf_r+0x526>
   15b0c: e6 87        	mv	a5, s9
   15b0e: 51 ba        	j	0x154a2 <_vfiprintf_r+0x4b8>
   15b10: 6d 67        	lui	a4, 0x1b
   15b12: 13 07 07 15  	addi	a4, a4, 0x150
   15b16: 3a e8        	sd	a4, 0x10(sp)
   15b18: 13 f7 0c 02  	andi	a4, s9, 0x20
   15b1c: 93 86 8b 00  	addi	a3, s7, 0x8
   15b20: 4d d7        	beqz	a4, 0x15aca <_vfiprintf_r+0xae0>
   15b22: 03 b7 0b 00  	ld	a4, 0x0(s7)
   15b26: 6d bf        	j	0x15ae0 <_vfiprintf_r+0xaf6>
   15b28: 6e 85        	mv	a0, s11
   15b2a: ef c0 5f d7  	jal	0x1289e <strlen>
   15b2e: e2 68        	ld	a7, 0x18(sp)
   15b30: 1b 0e 05 00  	sext.w	t3, a0
   15b34: ad b0        	j	0x1539e <_vfiprintf_r+0x3b4>
   15b36: 03 47 71 06  	lbu	a4, 0x67(sp)
   15b3a: 7d c3        	beqz	a4, 0x15c20 <_vfiprintf_r+0xc36>
   15b3c: 93 07 71 06  	addi	a5, sp, 0x67
   15b40: be f9        	sd	a5, 0xf0(sp)
   15b42: 85 47        	li	a5, 0x1
   15b44: be fd        	sd	a5, 0xf8(sp)
   15b46: 85 45        	li	a1, 0x1
   15b48: 4e 84        	mv	s0, s3
   15b4a: 6f f0 ef ea  	j	0x151f8 <_vfiprintf_r+0x20e>
   15b4e: c2 77        	ld	a5, 0x30(sp)
   15b50: 86 65        	ld	a1, 0x40(sp)
   15b52: f2 e4        	sd	t3, 0x48(sp)
   15b54: b3 8d fd 40  	sub	s11, s11, a5
   15b58: 3e 86        	mv	a2, a5
   15b5a: 6e 85        	mv	a0, s11
   15b5c: 76 fc        	sd	t4, 0x38(sp)
   15b5e: 7a f4        	sd	t5, 0x28(sp)
   15b60: 46 f0        	sd	a7, 0x20(sp)
   15b62: 42 ec        	sd	a6, 0x18(sp)
   15b64: ef 00 10 4a  	jal	0x16804 <strncpy>
   15b68: 62 68        	ld	a6, 0x18(sp)
   15b6a: a9 47        	li	a5, 0xa
   15b6c: b3 d7 fb 02  	divu	a5, s7, a5
   15b70: 03 47 18 00  	lbu	a4, 0x1(a6)
   15b74: 82 78        	ld	a7, 0x20(sp)
   15b76: 22 7f        	ld	t5, 0x28(sp)
   15b78: 33 37 e0 00  	snez	a4, a4
   15b7c: e2 7e        	ld	t4, 0x38(sp)
   15b7e: 26 6e        	ld	t3, 0x48(sp)
   15b80: 3a 98        	add	a6, a6, a4
   15b82: 01 46        	li	a2, 0x0
   15b84: a9 46        	li	a3, 0xa
   15b86: 25 43        	li	t1, 0x9
   15b88: 93 0f f0 0f  	li	t6, 0xff
   15b8c: bd bd        	j	0x15a0a <_vfiprintf_r+0xa20>
   15b8e: be 8c        	mv	s9, a5
   15b90: 81 47        	li	a5, 0x0
   15b92: e3 8f 07 9a  	beqz	a5, 0x15550 <_vfiprintf_r+0x566>
   15b96: a9 b1        	j	0x157e0 <_vfiprintf_r+0x7f6>
   15b98: ef c0 ef de  	jal	0x12186 <__sinit>
   15b9c: 6f f0 cf c6  	j	0x15008 <_vfiprintf_r+0x1e>
   15ba0: 93 ec 0c 20  	ori	s9, s9, 0x200
   15ba4: 83 47 1d 00  	lbu	a5, 0x1(s10)
   15ba8: 81 2c        	sext.w	s9, s9
   15baa: 05 0d        	addi	s10, s10, 0x1
   15bac: 6f f0 ef d3  	j	0x150ea <_vfiprintf_r+0x100>
   15bb0: 93 ec 0c 02  	ori	s9, s9, 0x20
   15bb4: 83 47 1d 00  	lbu	a5, 0x1(s10)
   15bb8: 81 2c        	sext.w	s9, s9
   15bba: 05 0d        	addi	s10, s10, 0x1
   15bbc: 6f f0 ef d2  	j	0x150ea <_vfiprintf_r+0x100>
   15bc0: 99 47        	li	a5, 0x6
   15bc2: 1b 8e 04 00  	sext.w	t3, s1
   15bc6: 63 eb 97 04  	bltu	a5, s1, 0x15c1c <_vfiprintf_r+0xc32>
   15bca: ed 6d        	lui	s11, 0x1b
   15bcc: 72 83        	mv	t1, t3
   15bce: 93 8d 0d 18  	addi	s11, s11, 0x180
   15bd2: 6f f0 cf de  	j	0x151be <_vfiprintf_r+0x1d4>
   15bd6: 13 f6 0c 20  	andi	a2, s9, 0x200
   15bda: 3d c6        	beqz	a2, 0x15c48 <_vfiprintf_r+0xc5e>
   15bdc: 13 77 f7 0f  	andi	a4, a4, 0xff
   15be0: 01 b7        	j	0x15ae0 <_vfiprintf_r+0xaf6>
   15be2: 13 f6 07 20  	andi	a2, a5, 0x200
   15be6: 31 ce        	beqz	a2, 0x15c42 <_vfiprintf_r+0xc58>
   15be8: 13 77 f7 0f  	andi	a4, a4, 0xff
   15bec: f1 b0        	j	0x154b8 <_vfiprintf_r+0x4ce>
   15bee: 93 f7 0c 20  	andi	a5, s9, 0x200
   15bf2: a9 c7        	beqz	a5, 0x15c3c <_vfiprintf_r+0xc52>
   15bf4: 9b 9b 8b 01  	slliw	s7, s7, 0x18
   15bf8: 9b db 8b 41  	sraiw	s7, s7, 0x18
   15bfc: de 87        	mv	a5, s7
   15bfe: 6f f0 ef ec  	j	0x152cc <_vfiprintf_r+0x2e2>
   15c02: 93 77 0e 20  	andi	a5, t3, 0x200
   15c06: 9d c7        	beqz	a5, 0x15c34 <_vfiprintf_r+0xc4a>
   15c08: 93 fb fb 0f  	andi	s7, s7, 0xff
   15c0c: 29 ba        	j	0x15526 <_vfiprintf_r+0x53c>
   15c0e: 01 47        	li	a4, 0x0
   15c10: c1 be        	j	0x157e0 <_vfiprintf_r+0x7f6>
   15c12: 85 45        	li	a1, 0x1
   15c14: 81 46        	li	a3, 0x0
   15c16: 4e 84        	mv	s0, s3
   15c18: 6f f0 0f e3  	j	0x15248 <_vfiprintf_r+0x25e>
   15c1c: 19 4e        	li	t3, 0x6
   15c1e: 75 b7        	j	0x15bca <_vfiprintf_r+0xbe0>
   15c20: 81 46        	li	a3, 0x0
   15c22: 85 45        	li	a1, 0x1
   15c24: 4e 84        	mv	s0, s3
   15c26: 6f f0 8f dd  	j	0x151fe <_vfiprintf_r+0x214>
   15c2a: 23 10 87 01  	sh	s8, 0x0(a4)
   15c2e: a1 0b        	addi	s7, s7, 0x8
   15c30: 6f f0 af c4  	j	0x1507a <_vfiprintf_r+0x90>
   15c34: 82 1b        	slli	s7, s7, 0x20
   15c36: 93 db 0b 02  	srli	s7, s7, 0x20
   15c3a: f5 b0        	j	0x15526 <_vfiprintf_r+0x53c>
   15c3c: de 87        	mv	a5, s7
   15c3e: 6f f0 ef e8  	j	0x152cc <_vfiprintf_r+0x2e2>
   15c42: 02 17        	slli	a4, a4, 0x20
   15c44: 01 93        	srli	a4, a4, 0x20
   15c46: 8d b8        	j	0x154b8 <_vfiprintf_r+0x4ce>
   15c48: 02 17        	slli	a4, a4, 0x20
   15c4a: 01 93        	srli	a4, a4, 0x20
   15c4c: 51 bd        	j	0x15ae0 <_vfiprintf_r+0xaf6>
   15c4e: 90 18        	addi	a2, sp, 0x70
   15c50: d2 85        	mv	a1, s4
   15c52: 56 85        	mv	a0, s5
   15c54: ef f0 4f ac  	jal	0x14f18 <__sprint_r.part.0>
   15c58: 6f f0 2f cf  	j	0x1514a <_vfiprintf_r+0x160>
   15c5c: f1 6e        	lui	t4, 0x1c
   15c5e: 93 8e 0e 8d  	addi	t4, t4, -0x730
   15c62: 35 b1        	j	0x1588e <_vfiprintf_r+0x8a4>
   15c64: f6 8b        	mv	s7, t4
   15c66: 93 07 00 03  	li	a5, 0x30
   15c6a: 6f f0 0f ef  	j	0x1535a <_vfiprintf_r+0x370>
   15c6e: f1 6e        	lui	t4, 0x1c
   15c70: 1b 87 16 00  	addiw	a4, a3, 0x1
   15c74: 93 8e 0e 8d  	addi	t4, t4, -0x730
   15c78: 65 b9        	j	0x15930 <_vfiprintf_r+0x946>
   15c7a: f1 6e        	lui	t4, 0x1c
   15c7c: 2e 86        	mv	a2, a1
   15c7e: 93 8e 0e 8c  	addi	t4, t4, -0x740
   15c82: 25 b4        	j	0x156aa <_vfiprintf_r+0x6c0>
   15c84: 7d 5c        	li	s8, -0x1
   15c86: 6f f0 ef cd  	j	0x15164 <_vfiprintf_r+0x17a>
   15c8a: 23 20 87 01  	sw	s8, 0x0(a4)
   15c8e: a1 0b        	addi	s7, s7, 0x8
   15c90: 6f f0 af be  	j	0x1507a <_vfiprintf_r+0x90>
   15c94: 83 a7 0b 00  	lw	a5, 0x0(s7)
   15c98: a1 0b        	addi	s7, s7, 0x8
   15c9a: 9b 84 07 00  	sext.w	s1, a5
   15c9e: 63 d3 07 00  	bgez	a5, 0x15ca4 <_vfiprintf_r+0xcba>
   15ca2: fd 54        	li	s1, -0x1
   15ca4: 83 47 1d 00  	lbu	a5, 0x1(s10)
   15ca8: 36 8d        	mv	s10, a3
   15caa: 6f f0 0f c4  	j	0x150ea <_vfiprintf_r+0x100>

0000000000015cae <vfiprintf>:
   15cae: aa 87        	mv	a5, a0
   15cb0: 03 b5 01 1d  	ld	a0, 0x1d0(gp)
   15cb4: b2 86        	mv	a3, a2
   15cb6: 2e 86        	mv	a2, a1
   15cb8: be 85        	mv	a1, a5
   15cba: 6f f0 0f b3  	j	0x14fea <_vfiprintf_r>

0000000000015cbe <__sbprintf>:
   15cbe: 13 01 01 b3  	addi	sp, sp, -0x4d0
   15cc2: 03 d7 25 01  	lhu	a4, 0x12(a1)
   15cc6: 83 d7 05 01  	lhu	a5, 0x10(a1)
   15cca: 23 30 81 4c  	sd	s0, 0x4c0(sp)
   15cce: 2e 84        	mv	s0, a1
   15cd0: c1 65        	lui	a1, 0x10
   15cd2: f5 35        	addiw	a1, a1, -0x3
   15cd4: 03 2e c4 0a  	lw	t3, 0xac(s0)
   15cd8: 03 33 04 03  	ld	t1, 0x30(s0)
   15cdc: 83 38 04 04  	ld	a7, 0x40(s0)
   15ce0: 1b 17 07 01  	slliw	a4, a4, 0x10
   15ce4: ed 8f        	and	a5, a5, a1
   15ce6: d9 8f        	or	a5, a5, a4
   15ce8: 13 08 00 40  	li	a6, 0x400
   15cec: 3e c8        	sw	a5, 0x10(sp)
   15cee: 8a 85        	mv	a1, sp
   15cf0: 1c 19        	addi	a5, sp, 0xb0
   15cf2: 23 3c 91 4a  	sd	s1, 0x4b8(sp)
   15cf6: 23 38 21 4b  	sd	s2, 0x4b0(sp)
   15cfa: 23 34 11 4c  	sd	ra, 0x4c8(sp)
   15cfe: 2a 89        	mv	s2, a0
   15d00: 72 d7        	sw	t3, 0xac(sp)
   15d02: 1a f8        	sd	t1, 0x30(sp)
   15d04: c6 e0        	sd	a7, 0x40(sp)
   15d06: 3e e0        	sd	a5, 0x0(sp)
   15d08: 3e ec        	sd	a5, 0x18(sp)
   15d0a: 42 c6        	sw	a6, 0xc(sp)
   15d0c: 42 d0        	sw	a6, 0x20(sp)
   15d0e: 02 d4        	sw	zero, 0x28(sp)
   15d10: ef f0 af ad  	jal	0x14fea <_vfiprintf_r>
   15d14: aa 84        	mv	s1, a0
   15d16: 63 59 05 02  	bgez	a0, 0x15d48 <__sbprintf+0x8a>
   15d1a: 83 57 01 01  	lhu	a5, 0x10(sp)
   15d1e: 93 f7 07 04  	andi	a5, a5, 0x40
   15d22: 99 c7        	beqz	a5, 0x15d30 <__sbprintf+0x72>
   15d24: 83 57 04 01  	lhu	a5, 0x10(s0)
   15d28: 93 e7 07 04  	ori	a5, a5, 0x40
   15d2c: 23 18 f4 00  	sh	a5, 0x10(s0)
   15d30: 83 30 81 4c  	ld	ra, 0x4c8(sp)
   15d34: 03 34 01 4c  	ld	s0, 0x4c0(sp)
   15d38: 03 39 01 4b  	ld	s2, 0x4b0(sp)
   15d3c: 26 85        	mv	a0, s1
   15d3e: 83 34 81 4b  	ld	s1, 0x4b8(sp)
   15d42: 13 01 01 4d  	addi	sp, sp, 0x4d0
   15d46: 82 80        	ret
   15d48: 8a 85        	mv	a1, sp
   15d4a: 4a 85        	mv	a0, s2
   15d4c: ef 00 40 25  	jal	0x15fa0 <_fflush_r>
   15d50: 69 d5        	beqz	a0, 0x15d1a <__sbprintf+0x5c>
   15d52: fd 54        	li	s1, -0x1
   15d54: d9 b7        	j	0x15d1a <__sbprintf+0x5c>

0000000000015d56 <_fclose_r>:
   15d56: 01 11        	addi	sp, sp, -0x20
   15d58: 06 ec        	sd	ra, 0x18(sp)
   15d5a: 4a e0        	sd	s2, 0x0(sp)
   15d5c: 89 cd        	beqz	a1, 0x15d76 <_fclose_r+0x20>
   15d5e: 22 e8        	sd	s0, 0x10(sp)
   15d60: 26 e4        	sd	s1, 0x8(sp)
   15d62: 2e 84        	mv	s0, a1
   15d64: aa 84        	mv	s1, a0
   15d66: 19 c1        	beqz	a0, 0x15d6c <_fclose_r+0x16>
   15d68: 3c 65        	ld	a5, 0x48(a0)
   15d6a: d9 c7        	beqz	a5, 0x15df8 <_fclose_r+0xa2>
   15d6c: 83 17 04 01  	lh	a5, 0x10(s0)
   15d70: 89 eb        	bnez	a5, 0x15d82 <_fclose_r+0x2c>
   15d72: 42 64        	ld	s0, 0x10(sp)
   15d74: a2 64        	ld	s1, 0x8(sp)
   15d76: e2 60        	ld	ra, 0x18(sp)
   15d78: 01 49        	li	s2, 0x0
   15d7a: 4a 85        	mv	a0, s2
   15d7c: 02 69        	ld	s2, 0x0(sp)
   15d7e: 05 61        	addi	sp, sp, 0x20
   15d80: 82 80        	ret
   15d82: a2 85        	mv	a1, s0
   15d84: 26 85        	mv	a0, s1
   15d86: ef 00 20 08  	jal	0x15e08 <__sflush_r>
   15d8a: 3c 68        	ld	a5, 0x50(s0)
   15d8c: 2a 89        	mv	s2, a0
   15d8e: 91 c7        	beqz	a5, 0x15d9a <_fclose_r+0x44>
   15d90: 0c 78        	ld	a1, 0x30(s0)
   15d92: 26 85        	mv	a0, s1
   15d94: 82 97        	jalr	a5
   15d96: 63 46 05 04  	bltz	a0, 0x15de2 <_fclose_r+0x8c>
   15d9a: 83 57 04 01  	lhu	a5, 0x10(s0)
   15d9e: 93 f7 07 08  	andi	a5, a5, 0x80
   15da2: b1 e7        	bnez	a5, 0x15dee <_fclose_r+0x98>
   15da4: 2c 6c        	ld	a1, 0x58(s0)
   15da6: 91 c9        	beqz	a1, 0x15dba <_fclose_r+0x64>
   15da8: 93 07 44 07  	addi	a5, s0, 0x74
   15dac: 63 85 f5 00  	beq	a1, a5, 0x15db6 <_fclose_r+0x60>
   15db0: 26 85        	mv	a0, s1
   15db2: ef c0 bf d3  	jal	0x12aec <_free_r>
   15db6: 23 3c 04 04  	sd	zero, 0x58(s0)
   15dba: 2c 7c        	ld	a1, 0x78(s0)
   15dbc: 91 c5        	beqz	a1, 0x15dc8 <_fclose_r+0x72>
   15dbe: 26 85        	mv	a0, s1
   15dc0: ef c0 df d2  	jal	0x12aec <_free_r>
   15dc4: 23 3c 04 06  	sd	zero, 0x78(s0)
   15dc8: ef c0 4f bd  	jal	0x1219c <__sfp_lock_acquire>
   15dcc: 23 18 04 00  	sh	zero, 0x10(s0)
   15dd0: ef c0 ef bc  	jal	0x1219e <__sfp_lock_release>
   15dd4: e2 60        	ld	ra, 0x18(sp)
   15dd6: 42 64        	ld	s0, 0x10(sp)
   15dd8: a2 64        	ld	s1, 0x8(sp)
   15dda: 4a 85        	mv	a0, s2
   15ddc: 02 69        	ld	s2, 0x0(sp)
   15dde: 05 61        	addi	sp, sp, 0x20
   15de0: 82 80        	ret
   15de2: 83 57 04 01  	lhu	a5, 0x10(s0)
   15de6: 7d 59        	li	s2, -0x1
   15de8: 93 f7 07 08  	andi	a5, a5, 0x80
   15dec: c5 df        	beqz	a5, 0x15da4 <_fclose_r+0x4e>
   15dee: 0c 6c        	ld	a1, 0x18(s0)
   15df0: 26 85        	mv	a0, s1
   15df2: ef c0 bf cf  	jal	0x12aec <_free_r>
   15df6: 7d b7        	j	0x15da4 <_fclose_r+0x4e>
   15df8: ef c0 ef b8  	jal	0x12186 <__sinit>
   15dfc: 85 bf        	j	0x15d6c <_fclose_r+0x16>

0000000000015dfe <fclose>:
   15dfe: aa 85        	mv	a1, a0
   15e00: 03 b5 01 1d  	ld	a0, 0x1d0(gp)
   15e04: 6f f0 3f f5  	j	0x15d56 <_fclose_r>

0000000000015e08 <__sflush_r>:
   15e08: 03 97 05 01  	lh	a4, 0x10(a1)
   15e0c: 79 71        	addi	sp, sp, -0x30
   15e0e: 22 f0        	sd	s0, 0x20(sp)
   15e10: 4e e4        	sd	s3, 0x8(sp)
   15e12: 06 f4        	sd	ra, 0x28(sp)
   15e14: 93 77 87 00  	andi	a5, a4, 0x8
   15e18: 2e 84        	mv	s0, a1
   15e1a: aa 89        	mv	s3, a0
   15e1c: f1 e7        	bnez	a5, 0x15ee8 <__sflush_r+0xe0>
   15e1e: 85 67        	lui	a5, 0x1
   15e20: 93 87 07 80  	addi	a5, a5, -0x800
   15e24: 94 45        	lw	a3, 0x8(a1)
   15e26: d9 8f        	or	a5, a5, a4
   15e28: 23 98 f5 00  	sh	a5, 0x10(a1)
   15e2c: 63 57 d0 10  	blez	a3, 0x15f3a <__sflush_r+0x132>
   15e30: 03 38 84 04  	ld	a6, 0x48(s0)
   15e34: 63 04 08 0a  	beqz	a6, 0x15edc <__sflush_r+0xd4>
   15e38: 26 ec        	sd	s1, 0x18(sp)
   15e3a: 93 16 37 03  	slli	a3, a4, 0x33
   15e3e: 83 a4 09 00  	lw	s1, 0x0(s3)
   15e42: 23 a0 09 00  	sw	zero, 0x0(s3)
   15e46: 0c 78        	ld	a1, 0x30(s0)
   15e48: 63 c0 06 10  	bltz	a3, 0x15f48 <__sflush_r+0x140>
   15e4c: 01 46        	li	a2, 0x0
   15e4e: 85 46        	li	a3, 0x1
   15e50: 4e 85        	mv	a0, s3
   15e52: 02 98        	jalr	a6
   15e54: fd 57        	li	a5, -0x1
   15e56: 2a 86        	mv	a2, a0
   15e58: 63 01 f5 12  	beq	a0, a5, 0x15f7a <__sflush_r+0x172>
   15e5c: 83 17 04 01  	lh	a5, 0x10(s0)
   15e60: 03 38 84 04  	ld	a6, 0x48(s0)
   15e64: 0c 78        	ld	a1, 0x30(s0)
   15e66: 91 8b        	andi	a5, a5, 0x4
   15e68: 99 c7        	beqz	a5, 0x15e76 <__sflush_r+0x6e>
   15e6a: 18 44        	lw	a4, 0x8(s0)
   15e6c: 3c 6c        	ld	a5, 0x58(s0)
   15e6e: 19 8e        	sub	a2, a2, a4
   15e70: 99 c3        	beqz	a5, 0x15e76 <__sflush_r+0x6e>
   15e72: 3c 58        	lw	a5, 0x70(s0)
   15e74: 1d 8e        	sub	a2, a2, a5
   15e76: 81 46        	li	a3, 0x0
   15e78: 4e 85        	mv	a0, s3
   15e7a: 02 98        	jalr	a6
   15e7c: fd 57        	li	a5, -0x1
   15e7e: 63 17 f5 0c  	bne	a0, a5, 0x15f4c <__sflush_r+0x144>
   15e82: 83 a6 09 00  	lw	a3, 0x0(s3)
   15e86: f5 47        	li	a5, 0x1d
   15e88: 03 17 04 01  	lh	a4, 0x10(s0)
   15e8c: 1b 86 06 00  	sext.w	a2, a3
   15e90: 63 e1 d7 10  	bltu	a5, a3, 0x15f92 <__sflush_r+0x18a>
   15e94: b7 07 40 20  	lui	a5, 0x20400
   15e98: 85 07        	addi	a5, a5, 0x1
   15e9a: b3 d7 c7 00  	srl	a5, a5, a2
   15e9e: 85 8b        	andi	a5, a5, 0x1
   15ea0: ed cb        	beqz	a5, 0x15f92 <__sflush_r+0x18a>
   15ea2: 10 6c        	ld	a2, 0x18(s0)
   15ea4: fd 77        	lui	a5, 0xfffff
   15ea6: 93 87 f7 7f  	addi	a5, a5, 0x7ff
   15eaa: f9 8f        	and	a5, a5, a4
   15eac: 23 18 f4 00  	sh	a5, 0x10(s0)
   15eb0: 23 24 04 00  	sw	zero, 0x8(s0)
   15eb4: 10 e0        	sd	a2, 0x0(s0)
   15eb6: 93 17 37 03  	slli	a5, a4, 0x33
   15eba: 63 d3 07 00  	bgez	a5, 0x15ec0 <__sflush_r+0xb8>
   15ebe: dd c6        	beqz	a3, 0x15f6c <__sflush_r+0x164>
   15ec0: 2c 6c        	ld	a1, 0x58(s0)
   15ec2: 23 a0 99 00  	sw	s1, 0x0(s3)
   15ec6: c5 c9        	beqz	a1, 0x15f76 <__sflush_r+0x16e>
   15ec8: 93 07 44 07  	addi	a5, s0, 0x74
   15ecc: 63 85 f5 00  	beq	a1, a5, 0x15ed6 <__sflush_r+0xce>
   15ed0: 4e 85        	mv	a0, s3
   15ed2: ef c0 bf c1  	jal	0x12aec <_free_r>
   15ed6: e2 64        	ld	s1, 0x18(sp)
   15ed8: 23 3c 04 04  	sd	zero, 0x58(s0)
   15edc: 01 45        	li	a0, 0x0
   15ede: a2 70        	ld	ra, 0x28(sp)
   15ee0: 02 74        	ld	s0, 0x20(sp)
   15ee2: a2 69        	ld	s3, 0x8(sp)
   15ee4: 45 61        	addi	sp, sp, 0x30
   15ee6: 82 80        	ret
   15ee8: 4a e8        	sd	s2, 0x10(sp)
   15eea: 03 b9 85 01  	ld	s2, 0x18(a1)
   15eee: 63 0b 09 04  	beqz	s2, 0x15f44 <__sflush_r+0x13c>
   15ef2: 26 ec        	sd	s1, 0x18(sp)
   15ef4: 84 61        	ld	s1, 0x0(a1)
   15ef6: 0d 8b        	andi	a4, a4, 0x3
   15ef8: 23 b0 25 01  	sd	s2, 0x0(a1)
   15efc: bb 84 24 41  	subw	s1, s1, s2
   15f00: 81 47        	li	a5, 0x0
   15f02: 11 e3        	bnez	a4, 0x15f06 <__sflush_r+0xfe>
   15f04: 9c 51        	lw	a5, 0x20(a1)
   15f06: 5c c4        	sw	a5, 0xc(s0)
   15f08: 63 46 90 00  	bgtz	s1, 0x15f14 <__sflush_r+0x10c>
   15f0c: 1d a8        	j	0x15f42 <__sflush_r+0x13a>
   15f0e: 2a 99        	add	s2, s2, a0
   15f10: 63 59 90 02  	blez	s1, 0x15f42 <__sflush_r+0x13a>
   15f14: 3c 60        	ld	a5, 0x40(s0)
   15f16: 0c 78        	ld	a1, 0x30(s0)
   15f18: a6 86        	mv	a3, s1
   15f1a: 4a 86        	mv	a2, s2
   15f1c: 4e 85        	mv	a0, s3
   15f1e: 82 97        	jalr	a5
   15f20: 89 9c        	subw	s1, s1, a0
   15f22: e3 46 a0 fe  	bgtz	a0, 0x15f0e <__sflush_r+0x106>
   15f26: 03 17 04 01  	lh	a4, 0x10(s0)
   15f2a: 42 69        	ld	s2, 0x10(sp)
   15f2c: 13 67 07 04  	ori	a4, a4, 0x40
   15f30: e2 64        	ld	s1, 0x18(sp)
   15f32: 23 18 e4 00  	sh	a4, 0x10(s0)
   15f36: 7d 55        	li	a0, -0x1
   15f38: 5d b7        	j	0x15ede <__sflush_r+0xd6>
   15f3a: b4 59        	lw	a3, 0x70(a1)
   15f3c: e3 4a d0 ee  	bgtz	a3, 0x15e30 <__sflush_r+0x28>
   15f40: 71 bf        	j	0x15edc <__sflush_r+0xd4>
   15f42: e2 64        	ld	s1, 0x18(sp)
   15f44: 42 69        	ld	s2, 0x10(sp)
   15f46: 59 bf        	j	0x15edc <__sflush_r+0xd4>
   15f48: 50 68        	ld	a2, 0x90(s0)
   15f4a: 31 bf        	j	0x15e66 <__sflush_r+0x5e>
   15f4c: 03 17 04 01  	lh	a4, 0x10(s0)
   15f50: 14 6c        	ld	a3, 0x18(s0)
   15f52: fd 77        	lui	a5, 0xfffff
   15f54: 93 87 f7 7f  	addi	a5, a5, 0x7ff
   15f58: f9 8f        	and	a5, a5, a4
   15f5a: 23 18 f4 00  	sh	a5, 0x10(s0)
   15f5e: 23 24 04 00  	sw	zero, 0x8(s0)
   15f62: 14 e0        	sd	a3, 0x0(s0)
   15f64: 93 17 37 03  	slli	a5, a4, 0x33
   15f68: e3 dc 07 f4  	bgez	a5, 0x15ec0 <__sflush_r+0xb8>
   15f6c: 2c 6c        	ld	a1, 0x58(s0)
   15f6e: 48 e8        	sd	a0, 0x90(s0)
   15f70: 23 a0 99 00  	sw	s1, 0x0(s3)
   15f74: b1 f9        	bnez	a1, 0x15ec8 <__sflush_r+0xc0>
   15f76: e2 64        	ld	s1, 0x18(sp)
   15f78: 95 b7        	j	0x15edc <__sflush_r+0xd4>
   15f7a: 83 a7 09 00  	lw	a5, 0x0(s3)
   15f7e: e3 8f 07 ec  	beqz	a5, 0x15e5c <__sflush_r+0x54>
   15f82: 75 47        	li	a4, 0x1d
   15f84: 63 8a e7 00  	beq	a5, a4, 0x15f98 <__sflush_r+0x190>
   15f88: 59 47        	li	a4, 0x16
   15f8a: 63 87 e7 00  	beq	a5, a4, 0x15f98 <__sflush_r+0x190>
   15f8e: 03 17 04 01  	lh	a4, 0x10(s0)
   15f92: 13 67 07 04  	ori	a4, a4, 0x40
   15f96: 69 bf        	j	0x15f30 <__sflush_r+0x128>
   15f98: 23 a0 99 00  	sw	s1, 0x0(s3)
   15f9c: e2 64        	ld	s1, 0x18(sp)
   15f9e: 3d bf        	j	0x15edc <__sflush_r+0xd4>

0000000000015fa0 <_fflush_r>:
   15fa0: 01 11        	addi	sp, sp, -0x20
   15fa2: 22 e8        	sd	s0, 0x10(sp)
   15fa4: 06 ec        	sd	ra, 0x18(sp)
   15fa6: 2a 84        	mv	s0, a0
   15fa8: 19 c1        	beqz	a0, 0x15fae <_fflush_r+0xe>
   15faa: 3c 65        	ld	a5, 0x48(a0)
   15fac: 99 cf        	beqz	a5, 0x15fca <_fflush_r+0x2a>
   15fae: 83 97 05 01  	lh	a5, 0x10(a1)
   15fb2: 91 e7        	bnez	a5, 0x15fbe <_fflush_r+0x1e>
   15fb4: e2 60        	ld	ra, 0x18(sp)
   15fb6: 42 64        	ld	s0, 0x10(sp)
   15fb8: 01 45        	li	a0, 0x0
   15fba: 05 61        	addi	sp, sp, 0x20
   15fbc: 82 80        	ret
   15fbe: 22 85        	mv	a0, s0
   15fc0: 42 64        	ld	s0, 0x10(sp)
   15fc2: e2 60        	ld	ra, 0x18(sp)
   15fc4: 05 61        	addi	sp, sp, 0x20
   15fc6: 6f f0 3f e4  	j	0x15e08 <__sflush_r>
   15fca: 2e e4        	sd	a1, 0x8(sp)
   15fcc: ef c0 af 9b  	jal	0x12186 <__sinit>
   15fd0: a2 65        	ld	a1, 0x8(sp)
   15fd2: f1 bf        	j	0x15fae <_fflush_r+0xe>

0000000000015fd4 <fflush>:
   15fd4: 0d cd        	beqz	a0, 0x1600e <fflush+0x3a>
   15fd6: aa 85        	mv	a1, a0
   15fd8: 03 b5 01 1d  	ld	a0, 0x1d0(gp)
   15fdc: 19 c1        	beqz	a0, 0x15fe2 <fflush+0xe>
   15fde: 3c 65        	ld	a5, 0x48(a0)
   15fe0: 81 cb        	beqz	a5, 0x15ff0 <fflush+0x1c>
   15fe2: 83 97 05 01  	lh	a5, 0x10(a1)
   15fe6: 99 e3        	bnez	a5, 0x15fec <fflush+0x18>
   15fe8: 01 45        	li	a0, 0x0
   15fea: 82 80        	ret
   15fec: 6f f0 df e1  	j	0x15e08 <__sflush_r>
   15ff0: 01 11        	addi	sp, sp, -0x20
   15ff2: 2e e4        	sd	a1, 0x8(sp)
   15ff4: 2a e0        	sd	a0, 0x0(sp)
   15ff6: 06 ec        	sd	ra, 0x18(sp)
   15ff8: ef c0 ef 98  	jal	0x12186 <__sinit>
   15ffc: a2 65        	ld	a1, 0x8(sp)
   15ffe: 02 65        	ld	a0, 0x0(sp)
   16000: 83 97 05 01  	lh	a5, 0x10(a1)
   16004: 85 e3        	bnez	a5, 0x16024 <fflush+0x50>
   16006: e2 60        	ld	ra, 0x18(sp)
   16008: 01 45        	li	a0, 0x0
   1600a: 05 61        	addi	sp, sp, 0x20
   1600c: 82 80        	ret
   1600e: 71 66        	lui	a2, 0x1c
   16010: d9 65        	lui	a1, 0x16
   16012: 71 65        	lui	a0, 0x1c
   16014: 13 06 86 1e  	addi	a2, a2, 0x1e8
   16018: 93 85 05 fa  	addi	a1, a1, -0x60
   1601c: 13 05 05 20  	addi	a0, a0, 0x200
   16020: 6f c0 0f 9a  	j	0x121c0 <_fwalk_sglue>
   16024: e2 60        	ld	ra, 0x18(sp)
   16026: 05 61        	addi	sp, sp, 0x20
   16028: 6f f0 1f de  	j	0x15e08 <__sflush_r>

000000000001602c <__sfvwrite_r>:
   1602c: 1c 6a        	ld	a5, 0x10(a2)
   1602e: 63 8b 07 1c  	beqz	a5, 0x16204 <__sfvwrite_r+0x1d8>
   16032: 03 97 05 01  	lh	a4, 0x10(a1)
   16036: 1d 71        	addi	sp, sp, -0x60
   16038: a2 e8        	sd	s0, 0x50(sp)
   1603a: 56 f4        	sd	s5, 0x28(sp)
   1603c: 5e ec        	sd	s7, 0x18(sp)
   1603e: 86 ec        	sd	ra, 0x58(sp)
   16040: 93 77 87 00  	andi	a5, a4, 0x8
   16044: b2 8b        	mv	s7, a2
   16046: aa 8a        	mv	s5, a0
   16048: 2e 84        	mv	s0, a1
   1604a: b5 c7        	beqz	a5, 0x160b6 <__sfvwrite_r+0x8a>
   1604c: 9c 6d        	ld	a5, 0x18(a1)
   1604e: a5 c7        	beqz	a5, 0x160b6 <__sfvwrite_r+0x8a>
   16050: a6 e4        	sd	s1, 0x48(sp)
   16052: ca e0        	sd	s2, 0x40(sp)
   16054: 4e fc        	sd	s3, 0x38(sp)
   16056: 52 f8        	sd	s4, 0x30(sp)
   16058: 93 77 27 00  	andi	a5, a4, 0x2
   1605c: 83 b4 0b 00  	ld	s1, 0x0(s7)
   16060: a5 cf        	beqz	a5, 0x160d8 <__sfvwrite_r+0xac>
   16062: 3c 60        	ld	a5, 0x40(s0)
   16064: 0c 78        	ld	a1, 0x30(s0)
   16066: 37 0a 00 80  	lui	s4, 0x80000
   1606a: 81 49        	li	s3, 0x0
   1606c: 01 49        	li	s2, 0x0
   1606e: 13 4a 0a c0  	xori	s4, s4, -0x400
   16072: 4e 86        	mv	a2, s3
   16074: 56 85        	mv	a0, s5
   16076: 63 0a 09 02  	beqz	s2, 0x160aa <__sfvwrite_r+0x7e>
   1607a: ca 86        	mv	a3, s2
   1607c: 63 73 2a 01  	bgeu	s4, s2, 0x16082 <__sfvwrite_r+0x56>
   16080: d2 86        	mv	a3, s4
   16082: 81 26        	sext.w	a3, a3
   16084: 82 97        	jalr	a5
   16086: 63 58 a0 2e  	blez	a0, 0x16376 <__sfvwrite_r+0x34a>
   1608a: 83 b7 0b 01  	ld	a5, 0x10(s7)
   1608e: aa 99        	add	s3, s3, a0
   16090: 33 09 a9 40  	sub	s2, s2, a0
   16094: 89 8f        	sub	a5, a5, a0
   16096: 23 b8 fb 00  	sd	a5, 0x10(s7)
   1609a: 63 81 07 12  	beqz	a5, 0x161bc <__sfvwrite_r+0x190>
   1609e: 3c 60        	ld	a5, 0x40(s0)
   160a0: 0c 78        	ld	a1, 0x30(s0)
   160a2: 4e 86        	mv	a2, s3
   160a4: 56 85        	mv	a0, s5
   160a6: e3 1a 09 fc  	bnez	s2, 0x1607a <__sfvwrite_r+0x4e>
   160aa: 83 b9 04 00  	ld	s3, 0x0(s1)
   160ae: 03 b9 84 00  	ld	s2, 0x8(s1)
   160b2: c1 04        	addi	s1, s1, 0x10
   160b4: 7d bf        	j	0x16072 <__sfvwrite_r+0x46>
   160b6: a2 85        	mv	a1, s0
   160b8: 56 85        	mv	a0, s5
   160ba: ef 00 80 4a  	jal	0x16562 <__swsetup_r>
   160be: 63 1c 05 12  	bnez	a0, 0x161f6 <__sfvwrite_r+0x1ca>
   160c2: 03 17 04 01  	lh	a4, 0x10(s0)
   160c6: a6 e4        	sd	s1, 0x48(sp)
   160c8: ca e0        	sd	s2, 0x40(sp)
   160ca: 4e fc        	sd	s3, 0x38(sp)
   160cc: 52 f8        	sd	s4, 0x30(sp)
   160ce: 93 77 27 00  	andi	a5, a4, 0x2
   160d2: 83 b4 0b 00  	ld	s1, 0x0(s7)
   160d6: d1 f7        	bnez	a5, 0x16062 <__sfvwrite_r+0x36>
   160d8: 5a f0        	sd	s6, 0x20(sp)
   160da: 62 e8        	sd	s8, 0x10(sp)
   160dc: 66 e4        	sd	s9, 0x8(sp)
   160de: 93 77 17 00  	andi	a5, a4, 0x1
   160e2: ad eb        	bnez	a5, 0x16154 <__sfvwrite_r+0x128>
   160e4: 03 2a c4 00  	lw	s4, 0xc(s0)
   160e8: 1c 60        	ld	a5, 0x0(s0)
   160ea: 37 0b 00 80  	lui	s6, 0x80000
   160ee: 01 4c        	li	s8, 0x0
   160f0: 01 49        	li	s2, 0x0
   160f2: 13 4b fb ff  	not	s6, s6
   160f6: 3e 85        	mv	a0, a5
   160f8: 63 08 09 04  	beqz	s2, 0x16148 <__sfvwrite_r+0x11c>
   160fc: 93 76 07 20  	andi	a3, a4, 0x200
   16100: 63 86 06 14  	beqz	a3, 0x1624c <__sfvwrite_r+0x220>
   16104: 63 75 49 1b  	bgeu	s2, s4, 0x162ae <__sfvwrite_r+0x282>
   16108: ca 8c        	mv	s9, s2
   1610a: 4a 8a        	mv	s4, s2
   1610c: 52 86        	mv	a2, s4
   1610e: e2 85        	mv	a1, s8
   16110: ef 00 70 0a  	jal	0x169b6 <memmove>
   16114: 58 44        	lw	a4, 0xc(s0)
   16116: 1c 60        	ld	a5, 0x0(s0)
   16118: ca 89        	mv	s3, s2
   1611a: 3b 07 97 41  	subw	a4, a4, s9
   1611e: 3e 9a        	add	s4, s4, a5
   16120: 58 c4        	sw	a4, 0xc(s0)
   16122: 23 30 44 01  	sd	s4, 0x0(s0)
   16126: 01 49        	li	s2, 0x0
   16128: 83 b7 0b 01  	ld	a5, 0x10(s7)
   1612c: 4e 9c        	add	s8, s8, s3
   1612e: b3 87 37 41  	sub	a5, a5, s3
   16132: 23 b8 fb 00  	sd	a5, 0x10(s7)
   16136: c1 c3        	beqz	a5, 0x161b6 <__sfvwrite_r+0x18a>
   16138: 1c 60        	ld	a5, 0x0(s0)
   1613a: 03 17 04 01  	lh	a4, 0x10(s0)
   1613e: 03 2a c4 00  	lw	s4, 0xc(s0)
   16142: 3e 85        	mv	a0, a5
   16144: e3 1c 09 fa  	bnez	s2, 0x160fc <__sfvwrite_r+0xd0>
   16148: 03 bc 04 00  	ld	s8, 0x0(s1)
   1614c: 03 b9 84 00  	ld	s2, 0x8(s1)
   16150: c1 04        	addi	s1, s1, 0x10
   16152: 55 b7        	j	0x160f6 <__sfvwrite_r+0xca>
   16154: 01 4b        	li	s6, 0x0
   16156: 01 45        	li	a0, 0x0
   16158: 81 4c        	li	s9, 0x0
   1615a: 01 4c        	li	s8, 0x0
   1615c: 63 06 0c 0a  	beqz	s8, 0x16208 <__sfvwrite_r+0x1dc>
   16160: 45 cd        	beqz	a0, 0x16218 <__sfvwrite_r+0x1ec>
   16162: 5a 8a        	mv	s4, s6
   16164: 63 73 6c 01  	bgeu	s8, s6, 0x1616a <__sfvwrite_r+0x13e>
   16168: 62 8a        	mv	s4, s8
   1616a: 08 60        	ld	a0, 0x0(s0)
   1616c: 18 6c        	ld	a4, 0x18(s0)
   1616e: 5c 44        	lw	a5, 0xc(s0)
   16170: 14 50        	lw	a3, 0x20(s0)
   16172: 52 89        	mv	s2, s4
   16174: 63 76 a7 00  	bgeu	a4, a0, 0x16180 <__sfvwrite_r+0x154>
   16178: bb 89 d7 00  	addw	s3, a5, a3
   1617c: 63 c9 49 0b  	blt	s3, s4, 0x1622e <__sfvwrite_r+0x202>
   16180: 63 43 da 1a  	blt	s4, a3, 0x16326 <__sfvwrite_r+0x2fa>
   16184: 3c 60        	ld	a5, 0x40(s0)
   16186: 0c 78        	ld	a1, 0x30(s0)
   16188: 66 86        	mv	a2, s9
   1618a: 56 85        	mv	a0, s5
   1618c: 82 97        	jalr	a5
   1618e: 2a 89        	mv	s2, a0
   16190: 63 56 a0 04  	blez	a0, 0x161dc <__sfvwrite_r+0x1b0>
   16194: 9b 07 05 00  	sext.w	a5, a0
   16198: 3b 0b fb 40  	subw	s6, s6, a5
   1619c: 05 45        	li	a0, 0x1
   1619e: 63 0a 0b 02  	beqz	s6, 0x161d2 <__sfvwrite_r+0x1a6>
   161a2: 83 b7 0b 01  	ld	a5, 0x10(s7)
   161a6: ca 9c        	add	s9, s9, s2
   161a8: 33 0c 2c 41  	sub	s8, s8, s2
   161ac: b3 87 27 41  	sub	a5, a5, s2
   161b0: 23 b8 fb 00  	sd	a5, 0x10(s7)
   161b4: c5 f7        	bnez	a5, 0x1615c <__sfvwrite_r+0x130>
   161b6: 02 7b        	ld	s6, 0x20(sp)
   161b8: 42 6c        	ld	s8, 0x10(sp)
   161ba: a2 6c        	ld	s9, 0x8(sp)
   161bc: e6 60        	ld	ra, 0x58(sp)
   161be: 46 64        	ld	s0, 0x50(sp)
   161c0: a6 64        	ld	s1, 0x48(sp)
   161c2: 06 69        	ld	s2, 0x40(sp)
   161c4: e2 79        	ld	s3, 0x38(sp)
   161c6: 42 7a        	ld	s4, 0x30(sp)
   161c8: a2 7a        	ld	s5, 0x28(sp)
   161ca: e2 6b        	ld	s7, 0x18(sp)
   161cc: 01 45        	li	a0, 0x0
   161ce: 25 61        	addi	sp, sp, 0x60
   161d0: 82 80        	ret
   161d2: a2 85        	mv	a1, s0
   161d4: 56 85        	mv	a0, s5
   161d6: ef f0 bf dc  	jal	0x15fa0 <_fflush_r>
   161da: 61 d5        	beqz	a0, 0x161a2 <__sfvwrite_r+0x176>
   161dc: 83 17 04 01  	lh	a5, 0x10(s0)
   161e0: 02 7b        	ld	s6, 0x20(sp)
   161e2: 42 6c        	ld	s8, 0x10(sp)
   161e4: a2 6c        	ld	s9, 0x8(sp)
   161e6: a6 64        	ld	s1, 0x48(sp)
   161e8: 06 69        	ld	s2, 0x40(sp)
   161ea: e2 79        	ld	s3, 0x38(sp)
   161ec: 42 7a        	ld	s4, 0x30(sp)
   161ee: 93 e7 07 04  	ori	a5, a5, 0x40
   161f2: 23 18 f4 00  	sh	a5, 0x10(s0)
   161f6: e6 60        	ld	ra, 0x58(sp)
   161f8: 46 64        	ld	s0, 0x50(sp)
   161fa: a2 7a        	ld	s5, 0x28(sp)
   161fc: e2 6b        	ld	s7, 0x18(sp)
   161fe: 7d 55        	li	a0, -0x1
   16200: 25 61        	addi	sp, sp, 0x60
   16202: 82 80        	ret
   16204: 01 45        	li	a0, 0x0
   16206: 82 80        	ret
   16208: 03 bc 84 00  	ld	s8, 0x8(s1)
   1620c: a6 87        	mv	a5, s1
   1620e: c1 04        	addi	s1, s1, 0x10
   16210: e3 0c 0c fe  	beqz	s8, 0x16208 <__sfvwrite_r+0x1dc>
   16214: 83 bc 07 00  	ld	s9, 0x0(a5)
   16218: 62 86        	mv	a2, s8
   1621a: a9 45        	li	a1, 0xa
   1621c: 66 85        	mv	a0, s9
   1621e: ef 00 80 53  	jal	0x16756 <memchr>
   16222: 63 07 05 14  	beqz	a0, 0x16370 <__sfvwrite_r+0x344>
   16226: 05 05        	addi	a0, a0, 0x1
   16228: 3b 0b 95 41  	subw	s6, a0, s9
   1622c: 1d bf        	j	0x16162 <__sfvwrite_r+0x136>
   1622e: e6 85        	mv	a1, s9
   16230: 4e 86        	mv	a2, s3
   16232: ef 00 40 78  	jal	0x169b6 <memmove>
   16236: 1c 60        	ld	a5, 0x0(s0)
   16238: a2 85        	mv	a1, s0
   1623a: 56 85        	mv	a0, s5
   1623c: ce 97        	add	a5, a5, s3
   1623e: 1c e0        	sd	a5, 0x0(s0)
   16240: ef f0 1f d6  	jal	0x15fa0 <_fflush_r>
   16244: 41 fd        	bnez	a0, 0x161dc <__sfvwrite_r+0x1b0>
   16246: ce 87        	mv	a5, s3
   16248: 4e 89        	mv	s2, s3
   1624a: b9 b7        	j	0x16198 <__sfvwrite_r+0x16c>
   1624c: 18 6c        	ld	a4, 0x18(s0)
   1624e: 63 67 f7 02  	bltu	a4, a5, 0x1627c <__sfvwrite_r+0x250>
   16252: 18 50        	lw	a4, 0x20(s0)
   16254: 63 64 e9 02  	bltu	s2, a4, 0x1627c <__sfvwrite_r+0x250>
   16258: ca 86        	mv	a3, s2
   1625a: 63 73 2b 01  	bgeu	s6, s2, 0x16260 <__sfvwrite_r+0x234>
   1625e: da 86        	mv	a3, s6
   16260: 3b e7 e6 02  	remw	a4, a3, a4
   16264: 3c 60        	ld	a5, 0x40(s0)
   16266: 0c 78        	ld	a1, 0x30(s0)
   16268: 62 86        	mv	a2, s8
   1626a: 56 85        	mv	a0, s5
   1626c: 99 9e        	subw	a3, a3, a4
   1626e: 82 97        	jalr	a5
   16270: aa 89        	mv	s3, a0
   16272: e3 55 a0 f6  	blez	a0, 0x161dc <__sfvwrite_r+0x1b0>
   16276: 33 09 39 41  	sub	s2, s2, s3
   1627a: 7d b5        	j	0x16128 <__sfvwrite_r+0xfc>
   1627c: d2 89        	mv	s3, s4
   1627e: 63 73 49 01  	bgeu	s2, s4, 0x16284 <__sfvwrite_r+0x258>
   16282: ca 89        	mv	s3, s2
   16284: 3e 85        	mv	a0, a5
   16286: 4e 86        	mv	a2, s3
   16288: e2 85        	mv	a1, s8
   1628a: ef 00 c0 72  	jal	0x169b6 <memmove>
   1628e: 58 44        	lw	a4, 0xc(s0)
   16290: 1c 60        	ld	a5, 0x0(s0)
   16292: bb 06 37 41  	subw	a3, a4, s3
   16296: ce 97        	add	a5, a5, s3
   16298: 54 c4        	sw	a3, 0xc(s0)
   1629a: 1c e0        	sd	a5, 0x0(s0)
   1629c: e9 fe        	bnez	a3, 0x16276 <__sfvwrite_r+0x24a>
   1629e: a2 85        	mv	a1, s0
   162a0: 56 85        	mv	a0, s5
   162a2: ef f0 ff cf  	jal	0x15fa0 <_fflush_r>
   162a6: 1d f9        	bnez	a0, 0x161dc <__sfvwrite_r+0x1b0>
   162a8: 33 09 39 41  	sub	s2, s2, s3
   162ac: b5 bd        	j	0x16128 <__sfvwrite_r+0xfc>
   162ae: 93 76 07 48  	andi	a3, a4, 0x480
   162b2: c1 ca        	beqz	a3, 0x16342 <__sfvwrite_r+0x316>
   162b4: 10 50        	lw	a2, 0x20(s0)
   162b6: 0c 6c        	ld	a1, 0x18(s0)
   162b8: 9b 16 16 00  	slliw	a3, a2, 0x1
   162bc: b1 9e        	addw	a3, a3, a2
   162be: 8d 8f        	sub	a5, a5, a1
   162c0: 9b d9 f6 01  	srliw	s3, a3, 0x1f
   162c4: 9b 8c 07 00  	sext.w	s9, a5
   162c8: bb 89 d9 00  	addw	s3, s3, a3
   162cc: 93 86 1c 00  	addi	a3, s9, 0x1
   162d0: 9b d9 19 40  	sraiw	s3, s3, 0x1
   162d4: ca 96        	add	a3, a3, s2
   162d6: 63 f6 d9 00  	bgeu	s3, a3, 0x162e2 <__sfvwrite_r+0x2b6>
   162da: 9b 86 17 00  	addiw	a3, a5, 0x1
   162de: bb 89 26 01  	addw	s3, a3, s2
   162e2: 13 77 07 40  	andi	a4, a4, 0x400
   162e6: 25 c3        	beqz	a4, 0x16346 <__sfvwrite_r+0x31a>
   162e8: ce 85        	mv	a1, s3
   162ea: 56 85        	mv	a0, s5
   162ec: ef c0 5f a4  	jal	0x12d30 <_malloc_r>
   162f0: 2a 8a        	mv	s4, a0
   162f2: 49 c5        	beqz	a0, 0x1637c <__sfvwrite_r+0x350>
   162f4: 0c 6c        	ld	a1, 0x18(s0)
   162f6: 66 86        	mv	a2, s9
   162f8: ef 00 00 79  	jal	0x16a88 <memcpy>
   162fc: 83 57 04 01  	lhu	a5, 0x10(s0)
   16300: 93 f7 f7 b7  	andi	a5, a5, -0x481
   16304: 93 e7 07 08  	ori	a5, a5, 0x80
   16308: 23 18 f4 00  	sh	a5, 0x10(s0)
   1630c: 33 05 9a 01  	add	a0, s4, s9
   16310: bb 87 99 41  	subw	a5, s3, s9
   16314: 23 3c 44 01  	sd	s4, 0x18(s0)
   16318: 08 e0        	sd	a0, 0x0(s0)
   1631a: 23 20 34 03  	sw	s3, 0x20(s0)
   1631e: ca 8c        	mv	s9, s2
   16320: 5c c4        	sw	a5, 0xc(s0)
   16322: 4a 8a        	mv	s4, s2
   16324: e5 b3        	j	0x1610c <__sfvwrite_r+0xe0>
   16326: 52 86        	mv	a2, s4
   16328: e6 85        	mv	a1, s9
   1632a: ef 00 c0 68  	jal	0x169b6 <memmove>
   1632e: 54 44        	lw	a3, 0xc(s0)
   16330: 18 60        	ld	a4, 0x0(s0)
   16332: 9b 07 0a 00  	sext.w	a5, s4
   16336: bb 86 46 41  	subw	a3, a3, s4
   1633a: 52 97        	add	a4, a4, s4
   1633c: 54 c4        	sw	a3, 0xc(s0)
   1633e: 18 e0        	sd	a4, 0x0(s0)
   16340: a1 bd        	j	0x16198 <__sfvwrite_r+0x16c>
   16342: d2 8c        	mv	s9, s4
   16344: e1 b3        	j	0x1610c <__sfvwrite_r+0xe0>
   16346: 4e 86        	mv	a2, s3
   16348: 56 85        	mv	a0, s5
   1634a: ef 20 d0 4b  	jal	0x19006 <_realloc_r>
   1634e: 2a 8a        	mv	s4, a0
   16350: 55 fd        	bnez	a0, 0x1630c <__sfvwrite_r+0x2e0>
   16352: 0c 6c        	ld	a1, 0x18(s0)
   16354: 56 85        	mv	a0, s5
   16356: ef c0 6f f9  	jal	0x12aec <_free_r>
   1635a: 83 17 04 01  	lh	a5, 0x10(s0)
   1635e: 31 47        	li	a4, 0xc
   16360: 02 7b        	ld	s6, 0x20(sp)
   16362: 42 6c        	ld	s8, 0x10(sp)
   16364: a2 6c        	ld	s9, 0x8(sp)
   16366: 23 a0 ea 00  	sw	a4, 0x0(s5)
   1636a: 93 f7 f7 f7  	andi	a5, a5, -0x81
   1636e: a5 bd        	j	0x161e6 <__sfvwrite_r+0x1ba>
   16370: 1b 0b 1c 00  	addiw	s6, s8, 0x1
   16374: fd b3        	j	0x16162 <__sfvwrite_r+0x136>
   16376: 83 17 04 01  	lh	a5, 0x10(s0)
   1637a: b5 b5        	j	0x161e6 <__sfvwrite_r+0x1ba>
   1637c: 31 47        	li	a4, 0xc
   1637e: 83 17 04 01  	lh	a5, 0x10(s0)
   16382: 02 7b        	ld	s6, 0x20(sp)
   16384: 42 6c        	ld	s8, 0x10(sp)
   16386: a2 6c        	ld	s9, 0x8(sp)
   16388: 23 a0 ea 00  	sw	a4, 0x0(s5)
   1638c: a9 bd        	j	0x161e6 <__sfvwrite_r+0x1ba>

000000000001638e <_putc_r>:
   1638e: 01 11        	addi	sp, sp, -0x20
   16390: 22 e8        	sd	s0, 0x10(sp)
   16392: 06 ec        	sd	ra, 0x18(sp)
   16394: 2a 84        	mv	s0, a0
   16396: 19 c1        	beqz	a0, 0x1639c <_putc_r+0xe>
   16398: 3c 65        	ld	a5, 0x48(a0)
   1639a: a1 c3        	beqz	a5, 0x163da <_putc_r+0x4c>
   1639c: 5c 46        	lw	a5, 0xc(a2)
   1639e: 1b 87 f7 ff  	addiw	a4, a5, -0x1
   163a2: 58 c6        	sw	a4, 0xc(a2)
   163a4: 63 5a 07 00  	bgez	a4, 0x163b8 <_putc_r+0x2a>
   163a8: 1c 56        	lw	a5, 0x28(a2)
   163aa: 63 43 f7 02  	blt	a4, a5, 0x163d0 <_putc_r+0x42>
   163ae: 93 f7 f5 0f  	andi	a5, a1, 0xff
   163b2: 29 47        	li	a4, 0xa
   163b4: 63 8e e7 00  	beq	a5, a4, 0x163d0 <_putc_r+0x42>
   163b8: 1c 62        	ld	a5, 0x0(a2)
   163ba: 13 f5 f5 0f  	andi	a0, a1, 0xff
   163be: 13 87 17 00  	addi	a4, a5, 0x1
   163c2: 18 e2        	sd	a4, 0x0(a2)
   163c4: 23 80 b7 00  	sb	a1, 0x0(a5)
   163c8: e2 60        	ld	ra, 0x18(sp)
   163ca: 42 64        	ld	s0, 0x10(sp)
   163cc: 05 61        	addi	sp, sp, 0x20
   163ce: 82 80        	ret
   163d0: 22 85        	mv	a0, s0
   163d2: 42 64        	ld	s0, 0x10(sp)
   163d4: e2 60        	ld	ra, 0x18(sp)
   163d6: 05 61        	addi	sp, sp, 0x20
   163d8: ad a8        	j	0x16452 <__swbuf_r>
   163da: 32 e4        	sd	a2, 0x8(sp)
   163dc: 2e e0        	sd	a1, 0x0(sp)
   163de: ef b0 9f da  	jal	0x12186 <__sinit>
   163e2: 22 66        	ld	a2, 0x8(sp)
   163e4: 82 65        	ld	a1, 0x0(sp)
   163e6: 5d bf        	j	0x1639c <_putc_r+0xe>

00000000000163e8 <putc>:
   163e8: 79 71        	addi	sp, sp, -0x30
   163ea: 4a ec        	sd	s2, 0x18(sp)
   163ec: 03 b9 01 1d  	ld	s2, 0x1d0(gp)
   163f0: 26 f0        	sd	s1, 0x20(sp)
   163f2: 06 f4        	sd	ra, 0x28(sp)
   163f4: aa 84        	mv	s1, a0
   163f6: 63 05 09 00  	beqz	s2, 0x16400 <putc+0x18>
   163fa: 83 37 89 04  	ld	a5, 0x48(s2)
   163fe: a1 c7        	beqz	a5, 0x16446 <putc+0x5e>
   16400: dc 45        	lw	a5, 0xc(a1)
   16402: 1b 87 f7 ff  	addiw	a4, a5, -0x1
   16406: d8 c5        	sw	a4, 0xc(a1)
   16408: 63 5a 07 00  	bgez	a4, 0x1641c <putc+0x34>
   1640c: 9c 55        	lw	a5, 0x28(a1)
   1640e: 63 44 f7 02  	blt	a4, a5, 0x16436 <putc+0x4e>
   16412: 93 f7 f4 0f  	andi	a5, s1, 0xff
   16416: 29 47        	li	a4, 0xa
   16418: 63 8f e7 00  	beq	a5, a4, 0x16436 <putc+0x4e>
   1641c: 9c 61        	ld	a5, 0x0(a1)
   1641e: 13 f5 f4 0f  	andi	a0, s1, 0xff
   16422: 13 87 17 00  	addi	a4, a5, 0x1
   16426: 98 e1        	sd	a4, 0x0(a1)
   16428: 23 80 97 00  	sb	s1, 0x0(a5)
   1642c: a2 70        	ld	ra, 0x28(sp)
   1642e: 82 74        	ld	s1, 0x20(sp)
   16430: 62 69        	ld	s2, 0x18(sp)
   16432: 45 61        	addi	sp, sp, 0x30
   16434: 82 80        	ret
   16436: a2 70        	ld	ra, 0x28(sp)
   16438: 2e 86        	mv	a2, a1
   1643a: 4a 85        	mv	a0, s2
   1643c: a6 85        	mv	a1, s1
   1643e: 62 69        	ld	s2, 0x18(sp)
   16440: 82 74        	ld	s1, 0x20(sp)
   16442: 45 61        	addi	sp, sp, 0x30
   16444: 39 a0        	j	0x16452 <__swbuf_r>
   16446: 4a 85        	mv	a0, s2
   16448: 2e e4        	sd	a1, 0x8(sp)
   1644a: ef b0 df d3  	jal	0x12186 <__sinit>
   1644e: a2 65        	ld	a1, 0x8(sp)
   16450: 45 bf        	j	0x16400 <putc+0x18>

0000000000016452 <__swbuf_r>:
   16452: 79 71        	addi	sp, sp, -0x30
   16454: 22 f0        	sd	s0, 0x20(sp)
   16456: 26 ec        	sd	s1, 0x18(sp)
   16458: 4a e8        	sd	s2, 0x10(sp)
   1645a: 06 f4        	sd	ra, 0x28(sp)
   1645c: 2a 89        	mv	s2, a0
   1645e: ae 84        	mv	s1, a1
   16460: 32 84        	mv	s0, a2
   16462: 19 c1        	beqz	a0, 0x16468 <__swbuf_r+0x16>
   16464: 3c 65        	ld	a5, 0x48(a0)
   16466: e5 c7        	beqz	a5, 0x1654e <__swbuf_r+0xfc>
   16468: 1c 54        	lw	a5, 0x28(s0)
   1646a: 03 17 04 01  	lh	a4, 0x10(s0)
   1646e: 5c c4        	sw	a5, 0xc(s0)
   16470: 93 77 87 00  	andi	a5, a4, 0x8
   16474: a9 cb        	beqz	a5, 0x164c6 <__swbuf_r+0x74>
   16476: 1c 6c        	ld	a5, 0x18(s0)
   16478: b9 c7        	beqz	a5, 0x164c6 <__swbuf_r+0x74>
   1647a: 4e e4        	sd	s3, 0x8(sp)
   1647c: 93 16 27 03  	slli	a3, a4, 0x32
   16480: 93 f9 f4 0f  	andi	s3, s1, 0xff
   16484: ce 84        	mv	s1, s3
   16486: 63 d0 06 06  	bgez	a3, 0x164e6 <__swbuf_r+0x94>
   1648a: 18 60        	ld	a4, 0x0(s0)
   1648c: 14 50        	lw	a3, 0x20(s0)
   1648e: bb 07 f7 40  	subw	a5, a4, a5
   16492: 63 db d7 06  	bge	a5, a3, 0x16508 <__swbuf_r+0xb6>
   16496: 54 44        	lw	a3, 0xc(s0)
   16498: 13 06 17 00  	addi	a2, a4, 0x1
   1649c: 10 e0        	sd	a2, 0x0(s0)
   1649e: fd 36        	addiw	a3, a3, -0x1
   164a0: 54 c4        	sw	a3, 0xc(s0)
   164a2: 23 00 37 01  	sb	s3, 0x0(a4)
   164a6: 18 50        	lw	a4, 0x20(s0)
   164a8: 85 27        	addiw	a5, a5, 0x1
   164aa: 63 01 f7 08  	beq	a4, a5, 0x1652c <__swbuf_r+0xda>
   164ae: 83 57 04 01  	lhu	a5, 0x10(s0)
   164b2: 85 8b        	andi	a5, a5, 0x1
   164b4: c1 e7        	bnez	a5, 0x1653c <__swbuf_r+0xea>
   164b6: a2 69        	ld	s3, 0x8(sp)
   164b8: a2 70        	ld	ra, 0x28(sp)
   164ba: 02 74        	ld	s0, 0x20(sp)
   164bc: 42 69        	ld	s2, 0x10(sp)
   164be: 26 85        	mv	a0, s1
   164c0: e2 64        	ld	s1, 0x18(sp)
   164c2: 45 61        	addi	sp, sp, 0x30
   164c4: 82 80        	ret
   164c6: a2 85        	mv	a1, s0
   164c8: 4a 85        	mv	a0, s2
   164ca: ef 00 80 09  	jal	0x16562 <__swsetup_r>
   164ce: 2d e5        	bnez	a0, 0x16538 <__swbuf_r+0xe6>
   164d0: 03 17 04 01  	lh	a4, 0x10(s0)
   164d4: 4e e4        	sd	s3, 0x8(sp)
   164d6: 93 f9 f4 0f  	andi	s3, s1, 0xff
   164da: 93 16 27 03  	slli	a3, a4, 0x32
   164de: 1c 6c        	ld	a5, 0x18(s0)
   164e0: ce 84        	mv	s1, s3
   164e2: e3 c4 06 fa  	bltz	a3, 0x1648a <__swbuf_r+0x38>
   164e6: 83 26 c4 0a  	lw	a3, 0xac(s0)
   164ea: 79 76        	lui	a2, 0xffffe
   164ec: 89 65        	lui	a1, 0x2
   164ee: 4d 8f        	or	a4, a4, a1
   164f0: 7d 16        	addi	a2, a2, -0x1
   164f2: f1 8e        	and	a3, a3, a2
   164f4: 23 18 e4 00  	sh	a4, 0x10(s0)
   164f8: 18 60        	ld	a4, 0x0(s0)
   164fa: 23 26 d4 0a  	sw	a3, 0xac(s0)
   164fe: 14 50        	lw	a3, 0x20(s0)
   16500: bb 07 f7 40  	subw	a5, a4, a5
   16504: e3 c9 d7 f8  	blt	a5, a3, 0x16496 <__swbuf_r+0x44>
   16508: a2 85        	mv	a1, s0
   1650a: 4a 85        	mv	a0, s2
   1650c: ef f0 5f a9  	jal	0x15fa0 <_fflush_r>
   16510: 1d e1        	bnez	a0, 0x16536 <__swbuf_r+0xe4>
   16512: 18 60        	ld	a4, 0x0(s0)
   16514: 54 44        	lw	a3, 0xc(s0)
   16516: 85 47        	li	a5, 0x1
   16518: 13 06 17 00  	addi	a2, a4, 0x1
   1651c: fd 36        	addiw	a3, a3, -0x1
   1651e: 10 e0        	sd	a2, 0x0(s0)
   16520: 54 c4        	sw	a3, 0xc(s0)
   16522: 23 00 37 01  	sb	s3, 0x0(a4)
   16526: 18 50        	lw	a4, 0x20(s0)
   16528: e3 13 f7 f8  	bne	a4, a5, 0x164ae <__swbuf_r+0x5c>
   1652c: a2 85        	mv	a1, s0
   1652e: 4a 85        	mv	a0, s2
   16530: ef f0 1f a7  	jal	0x15fa0 <_fflush_r>
   16534: 49 d1        	beqz	a0, 0x164b6 <__swbuf_r+0x64>
   16536: a2 69        	ld	s3, 0x8(sp)
   16538: fd 54        	li	s1, -0x1
   1653a: bd bf        	j	0x164b8 <__swbuf_r+0x66>
   1653c: a9 47        	li	a5, 0xa
   1653e: e3 9c f4 f6  	bne	s1, a5, 0x164b6 <__swbuf_r+0x64>
   16542: a2 85        	mv	a1, s0
   16544: 4a 85        	mv	a0, s2
   16546: ef f0 bf a5  	jal	0x15fa0 <_fflush_r>
   1654a: 35 d5        	beqz	a0, 0x164b6 <__swbuf_r+0x64>
   1654c: ed b7        	j	0x16536 <__swbuf_r+0xe4>
   1654e: ef b0 9f c3  	jal	0x12186 <__sinit>
   16552: 19 bf        	j	0x16468 <__swbuf_r+0x16>

0000000000016554 <__swbuf>:
   16554: aa 87        	mv	a5, a0
   16556: 03 b5 01 1d  	ld	a0, 0x1d0(gp)
   1655a: 2e 86        	mv	a2, a1
   1655c: be 85        	mv	a1, a5
   1655e: 6f f0 5f ef  	j	0x16452 <__swbuf_r>

0000000000016562 <__swsetup_r>:
   16562: 83 b7 01 1d  	ld	a5, 0x1d0(gp)
   16566: 01 11        	addi	sp, sp, -0x20
   16568: 22 e8        	sd	s0, 0x10(sp)
   1656a: 26 e4        	sd	s1, 0x8(sp)
   1656c: 06 ec        	sd	ra, 0x18(sp)
   1656e: aa 84        	mv	s1, a0
   16570: 2e 84        	mv	s0, a1
   16572: 99 c3        	beqz	a5, 0x16578 <__swsetup_r+0x16>
   16574: b8 67        	ld	a4, 0x48(a5)
   16576: 5d c7        	beqz	a4, 0x16624 <__swsetup_r+0xc2>
   16578: 83 17 04 01  	lh	a5, 0x10(s0)
   1657c: 13 f7 87 00  	andi	a4, a5, 0x8
   16580: 21 c7        	beqz	a4, 0x165c8 <__swsetup_r+0x66>
   16582: 18 6c        	ld	a4, 0x18(s0)
   16584: 31 cf        	beqz	a4, 0x165e0 <__swsetup_r+0x7e>
   16586: 93 f6 17 00  	andi	a3, a5, 0x1
   1658a: 91 ce        	beqz	a3, 0x165a6 <__swsetup_r+0x44>
   1658c: 14 50        	lw	a3, 0x20(s0)
   1658e: 23 26 04 00  	sw	zero, 0xc(s0)
   16592: 01 45        	li	a0, 0x0
   16594: bb 06 d0 40  	negw	a3, a3
   16598: 14 d4        	sw	a3, 0x28(s0)
   1659a: 11 cf        	beqz	a4, 0x165b6 <__swsetup_r+0x54>
   1659c: e2 60        	ld	ra, 0x18(sp)
   1659e: 42 64        	ld	s0, 0x10(sp)
   165a0: a2 64        	ld	s1, 0x8(sp)
   165a2: 05 61        	addi	sp, sp, 0x20
   165a4: 82 80        	ret
   165a6: 93 f6 27 00  	andi	a3, a5, 0x2
   165aa: 01 46        	li	a2, 0x0
   165ac: 91 e2        	bnez	a3, 0x165b0 <__swsetup_r+0x4e>
   165ae: 10 50        	lw	a2, 0x20(s0)
   165b0: 50 c4        	sw	a2, 0xc(s0)
   165b2: 01 45        	li	a0, 0x0
   165b4: 65 f7        	bnez	a4, 0x1659c <__swsetup_r+0x3a>
   165b6: 13 f7 07 08  	andi	a4, a5, 0x80
   165ba: 6d d3        	beqz	a4, 0x1659c <__swsetup_r+0x3a>
   165bc: 93 e7 07 04  	ori	a5, a5, 0x40
   165c0: 23 18 f4 00  	sh	a5, 0x10(s0)
   165c4: 7d 55        	li	a0, -0x1
   165c6: d9 bf        	j	0x1659c <__swsetup_r+0x3a>
   165c8: 13 f7 07 01  	andi	a4, a5, 0x10
   165cc: 25 c3        	beqz	a4, 0x1662c <__swsetup_r+0xca>
   165ce: 13 f7 47 00  	andi	a4, a5, 0x4
   165d2: 0d e7        	bnez	a4, 0x165fc <__swsetup_r+0x9a>
   165d4: 18 6c        	ld	a4, 0x18(s0)
   165d6: 93 e7 87 00  	ori	a5, a5, 0x8
   165da: 23 18 f4 00  	sh	a5, 0x10(s0)
   165de: 45 f7        	bnez	a4, 0x16586 <__swsetup_r+0x24>
   165e0: 93 f6 07 28  	andi	a3, a5, 0x280
   165e4: 13 06 00 20  	li	a2, 0x200
   165e8: e3 8f c6 f8  	beq	a3, a2, 0x16586 <__swsetup_r+0x24>
   165ec: a2 85        	mv	a1, s0
   165ee: 26 85        	mv	a0, s1
   165f0: ef 20 f0 6c  	jal	0x194be <__smakebuf_r>
   165f4: 83 17 04 01  	lh	a5, 0x10(s0)
   165f8: 18 6c        	ld	a4, 0x18(s0)
   165fa: 71 b7        	j	0x16586 <__swsetup_r+0x24>
   165fc: 2c 6c        	ld	a1, 0x58(s0)
   165fe: 81 cd        	beqz	a1, 0x16616 <__swsetup_r+0xb4>
   16600: 13 07 44 07  	addi	a4, s0, 0x74
   16604: 63 87 e5 00  	beq	a1, a4, 0x16612 <__swsetup_r+0xb0>
   16608: 26 85        	mv	a0, s1
   1660a: ef c0 2f ce  	jal	0x12aec <_free_r>
   1660e: 83 17 04 01  	lh	a5, 0x10(s0)
   16612: 23 3c 04 04  	sd	zero, 0x58(s0)
   16616: 18 6c        	ld	a4, 0x18(s0)
   16618: 93 f7 b7 fd  	andi	a5, a5, -0x25
   1661c: 23 24 04 00  	sw	zero, 0x8(s0)
   16620: 18 e0        	sd	a4, 0x0(s0)
   16622: 55 bf        	j	0x165d6 <__swsetup_r+0x74>
   16624: 3e 85        	mv	a0, a5
   16626: ef b0 1f b6  	jal	0x12186 <__sinit>
   1662a: b9 b7        	j	0x16578 <__swsetup_r+0x16>
   1662c: 25 47        	li	a4, 0x9
   1662e: 98 c0        	sw	a4, 0x0(s1)
   16630: 93 e7 07 04  	ori	a5, a5, 0x40
   16634: 23 18 f4 00  	sh	a5, 0x10(s0)
   16638: 7d 55        	li	a0, -0x1
   1663a: 8d b7        	j	0x1659c <__swsetup_r+0x3a>

000000000001663c <__fputwc>:
   1663c: 79 71        	addi	sp, sp, -0x30
   1663e: 22 f0        	sd	s0, 0x20(sp)
   16640: 26 ec        	sd	s1, 0x18(sp)
   16642: 4a e8        	sd	s2, 0x10(sp)
   16644: 06 f4        	sd	ra, 0x28(sp)
   16646: 2a 89        	mv	s2, a0
   16648: ae 84        	mv	s1, a1
   1664a: 32 84        	mv	s0, a2
   1664c: ef 00 a0 29  	jal	0x168e6 <__locale_mb_cur_max>
   16650: 85 47        	li	a5, 0x1
   16652: 63 1b f5 00  	bne	a0, a5, 0x16668 <__fputwc+0x2c>
   16656: 9b 87 f4 ff  	addiw	a5, s1, -0x1
   1665a: 13 07 e0 0f  	li	a4, 0xfe
   1665e: 63 65 f7 00  	bltu	a4, a5, 0x16668 <__fputwc+0x2c>
   16662: 23 04 91 00  	sb	s1, 0x8(sp)
   16666: 21 a8        	j	0x1667e <__fputwc+0x42>
   16668: 93 06 44 0a  	addi	a3, s0, 0xa4
   1666c: 26 86        	mv	a2, s1
   1666e: 2c 00        	addi	a1, sp, 0x8
   16670: 4a 85        	mv	a0, s2
   16672: ef 20 70 5b  	jal	0x19428 <_wcrtomb_r>
   16676: fd 57        	li	a5, -0x1
   16678: 63 0d f5 04  	beq	a0, a5, 0x166d2 <__fputwc+0x96>
   1667c: 0d c5        	beqz	a0, 0x166a6 <__fputwc+0x6a>
   1667e: 5c 44        	lw	a5, 0xc(s0)
   16680: 83 45 81 00  	lbu	a1, 0x8(sp)
   16684: 1b 87 f7 ff  	addiw	a4, a5, -0x1
   16688: 58 c4        	sw	a4, 0xc(s0)
   1668a: 63 58 07 00  	bgez	a4, 0x1669a <__fputwc+0x5e>
   1668e: 1c 54        	lw	a5, 0x28(s0)
   16690: 63 43 f7 02  	blt	a4, a5, 0x166b6 <__fputwc+0x7a>
   16694: a9 47        	li	a5, 0xa
   16696: 63 80 f5 02  	beq	a1, a5, 0x166b6 <__fputwc+0x7a>
   1669a: 1c 60        	ld	a5, 0x0(s0)
   1669c: 13 87 17 00  	addi	a4, a5, 0x1
   166a0: 18 e0        	sd	a4, 0x0(s0)
   166a2: 23 80 b7 00  	sb	a1, 0x0(a5)
   166a6: a2 70        	ld	ra, 0x28(sp)
   166a8: 02 74        	ld	s0, 0x20(sp)
   166aa: 42 69        	ld	s2, 0x10(sp)
   166ac: 1b 85 04 00  	sext.w	a0, s1
   166b0: e2 64        	ld	s1, 0x18(sp)
   166b2: 45 61        	addi	sp, sp, 0x30
   166b4: 82 80        	ret
   166b6: 22 86        	mv	a2, s0
   166b8: 4a 85        	mv	a0, s2
   166ba: ef f0 9f d9  	jal	0x16452 <__swbuf_r>
   166be: fd 57        	li	a5, -0x1
   166c0: e3 13 f5 fe  	bne	a0, a5, 0x166a6 <__fputwc+0x6a>
   166c4: 7d 55        	li	a0, -0x1
   166c6: a2 70        	ld	ra, 0x28(sp)
   166c8: 02 74        	ld	s0, 0x20(sp)
   166ca: e2 64        	ld	s1, 0x18(sp)
   166cc: 42 69        	ld	s2, 0x10(sp)
   166ce: 45 61        	addi	sp, sp, 0x30
   166d0: 82 80        	ret
   166d2: 83 57 04 01  	lhu	a5, 0x10(s0)
   166d6: 7d 55        	li	a0, -0x1
   166d8: 93 e7 07 04  	ori	a5, a5, 0x40
   166dc: 23 18 f4 00  	sh	a5, 0x10(s0)
   166e0: dd b7        	j	0x166c6 <__fputwc+0x8a>

00000000000166e2 <_fputwc_r>:
   166e2: 83 17 06 01  	lh	a5, 0x10(a2)
   166e6: 13 97 27 03  	slli	a4, a5, 0x32
   166ea: 63 4c 07 00  	bltz	a4, 0x16702 <_fputwc_r+0x20>
   166ee: 03 27 c6 0a  	lw	a4, 0xac(a2)
   166f2: 89 66        	lui	a3, 0x2
   166f4: d5 8f        	or	a5, a5, a3
   166f6: 89 66        	lui	a3, 0x2
   166f8: 55 8f        	or	a4, a4, a3
   166fa: 23 18 f6 00  	sh	a5, 0x10(a2)
   166fe: 23 26 e6 0a  	sw	a4, 0xac(a2)
   16702: 6f f0 bf f3  	j	0x1663c <__fputwc>

0000000000016706 <fputwc>:
   16706: 01 11        	addi	sp, sp, -0x20
   16708: 22 e8        	sd	s0, 0x10(sp)
   1670a: 03 b4 01 1d  	ld	s0, 0x1d0(gp)
   1670e: 06 ec        	sd	ra, 0x18(sp)
   16710: 2e 86        	mv	a2, a1
   16712: aa 85        	mv	a1, a0
   16714: 19 c0        	beqz	s0, 0x1671a <fputwc+0x14>
   16716: 3c 64        	ld	a5, 0x48(s0)
   16718: 9d c7        	beqz	a5, 0x16746 <fputwc+0x40>
   1671a: 83 17 06 01  	lh	a5, 0x10(a2)
   1671e: 13 97 27 03  	slli	a4, a5, 0x32
   16722: 63 4c 07 00  	bltz	a4, 0x1673a <fputwc+0x34>
   16726: 03 27 c6 0a  	lw	a4, 0xac(a2)
   1672a: 89 66        	lui	a3, 0x2
   1672c: d5 8f        	or	a5, a5, a3
   1672e: 89 66        	lui	a3, 0x2
   16730: 55 8f        	or	a4, a4, a3
   16732: 23 18 f6 00  	sh	a5, 0x10(a2)
   16736: 23 26 e6 0a  	sw	a4, 0xac(a2)
   1673a: 22 85        	mv	a0, s0
   1673c: 42 64        	ld	s0, 0x10(sp)
   1673e: e2 60        	ld	ra, 0x18(sp)
   16740: 05 61        	addi	sp, sp, 0x20
   16742: 6f f0 bf ef  	j	0x1663c <__fputwc>
   16746: 2a e0        	sd	a0, 0x0(sp)
   16748: 22 85        	mv	a0, s0
   1674a: 32 e4        	sd	a2, 0x8(sp)
   1674c: ef b0 bf a3  	jal	0x12186 <__sinit>
   16750: 22 66        	ld	a2, 0x8(sp)
   16752: 82 65        	ld	a1, 0x0(sp)
   16754: d9 b7        	j	0x1671a <fputwc+0x14>

0000000000016756 <memchr>:
   16756: 93 77 75 00  	andi	a5, a0, 0x7
   1675a: 93 f6 f5 0f  	andi	a3, a1, 0xff
   1675e: 95 c3        	beqz	a5, 0x16782 <memchr+0x2c>
   16760: 93 07 f6 ff  	addi	a5, a2, -0x1
   16764: 05 c6        	beqz	a2, 0x1678c <memchr+0x36>
   16766: 7d 56        	li	a2, -0x1
   16768: 01 a8        	j	0x16778 <memchr+0x22>
   1676a: 05 05        	addi	a0, a0, 0x1
   1676c: 13 77 75 00  	andi	a4, a0, 0x7
   16770: 11 cb        	beqz	a4, 0x16784 <memchr+0x2e>
   16772: fd 17        	addi	a5, a5, -0x1
   16774: 63 8c c7 00  	beq	a5, a2, 0x1678c <memchr+0x36>
   16778: 03 47 05 00  	lbu	a4, 0x0(a0)
   1677c: e3 17 d7 fe  	bne	a4, a3, 0x1676a <memchr+0x14>
   16780: 82 80        	ret
   16782: b2 87        	mv	a5, a2
   16784: 1d 47        	li	a4, 0x7
   16786: 63 65 f7 00  	bltu	a4, a5, 0x16790 <memchr+0x3a>
   1678a: bd e3        	bnez	a5, 0x167f0 <memchr+0x9a>
   1678c: 01 45        	li	a0, 0x0
   1678e: 82 80        	ret
   16790: 93 f5 f5 0f  	andi	a1, a1, 0xff
   16794: 37 18 10 f0  	lui	a6, 0xf0101
   16798: 13 97 85 00  	slli	a4, a1, 0x8
   1679c: b7 08 ff fe  	lui	a7, 0xfeff0
   167a0: 12 08        	slli	a6, a6, 0x4
   167a2: 2e 97        	add	a4, a4, a1
   167a4: 93 88 f8 ef  	addi	a7, a7, -0x101
   167a8: 13 08 18 10  	addi	a6, a6, 0x101
   167ac: 93 15 07 01  	slli	a1, a4, 0x10
   167b0: c2 08        	slli	a7, a7, 0x10
   167b2: 42 08        	slli	a6, a6, 0x10
   167b4: ba 95        	add	a1, a1, a4
   167b6: 93 88 f8 ef  	addi	a7, a7, -0x101
   167ba: 13 08 18 10  	addi	a6, a6, 0x101
   167be: 13 97 05 02  	slli	a4, a1, 0x20
   167c2: c2 08        	slli	a7, a7, 0x10
   167c4: 3e 08        	slli	a6, a6, 0xf
   167c6: ba 95        	add	a1, a1, a4
   167c8: 93 88 f8 ef  	addi	a7, a7, -0x101
   167cc: 13 08 08 08  	addi	a6, a6, 0x80
   167d0: 1d 43        	li	t1, 0x7
   167d2: 29 a0        	j	0x167dc <memchr+0x86>
   167d4: e1 17        	addi	a5, a5, -0x8
   167d6: 21 05        	addi	a0, a0, 0x8
   167d8: e3 79 f3 fa  	bgeu	t1, a5, 0x1678a <memchr+0x34>
   167dc: 18 61        	ld	a4, 0x0(a0)
   167de: 2d 8f        	xor	a4, a4, a1
   167e0: 33 06 17 01  	add	a2, a4, a7
   167e4: 13 47 f7 ff  	not	a4, a4
   167e8: 71 8f        	and	a4, a4, a2
   167ea: 33 77 07 01  	and	a4, a4, a6
   167ee: 7d d3        	beqz	a4, 0x167d4 <memchr+0x7e>
   167f0: aa 97        	add	a5, a5, a0
   167f2: 21 a0        	j	0x167fa <memchr+0xa4>
   167f4: 05 05        	addi	a0, a0, 0x1
   167f6: e3 8b a7 f8  	beq	a5, a0, 0x1678c <memchr+0x36>
   167fa: 03 47 05 00  	lbu	a4, 0x0(a0)
   167fe: e3 1b d7 fe  	bne	a4, a3, 0x167f4 <memchr+0x9e>
   16802: 82 80        	ret

0000000000016804 <strncpy>:
   16804: b3 e7 a5 00  	or	a5, a1, a0
   16808: 9d 8b        	andi	a5, a5, 0x7
   1680a: 81 e7        	bnez	a5, 0x16812 <strncpy+0xe>
   1680c: 9d 47        	li	a5, 0x7
   1680e: 63 eb c7 02  	bltu	a5, a2, 0x16844 <strncpy+0x40>
   16812: 2a 87        	mv	a4, a0
   16814: 11 a8        	j	0x16828 <strncpy+0x24>
   16816: 83 c6 f5 ff  	lbu	a3, -0x1(a1)
   1681a: 13 08 f6 ff  	addi	a6, a2, -0x1
   1681e: a3 8f d7 fe  	sb	a3, -0x1(a5)
   16822: 81 ca        	beqz	a3, 0x16832 <strncpy+0x2e>
   16824: 3e 87        	mv	a4, a5
   16826: 42 86        	mv	a2, a6
   16828: 85 05        	addi	a1, a1, 0x1
   1682a: 93 07 17 00  	addi	a5, a4, 0x1
   1682e: 65 f6        	bnez	a2, 0x16816 <strncpy+0x12>
   16830: 82 80        	ret
   16832: 32 97        	add	a4, a4, a2
   16834: 63 01 08 06  	beqz	a6, 0x16896 <strncpy+0x92>
   16838: 85 07        	addi	a5, a5, 0x1
   1683a: a3 8f 07 fe  	sb	zero, -0x1(a5)
   1683e: e3 9d e7 fe  	bne	a5, a4, 0x16838 <strncpy+0x34>
   16842: 82 80        	ret
   16844: 37 18 10 f0  	lui	a6, 0xf0101
   16848: b7 08 ff fe  	lui	a7, 0xfeff0
   1684c: 12 08        	slli	a6, a6, 0x4
   1684e: 93 88 f8 ef  	addi	a7, a7, -0x101
   16852: 13 08 18 10  	addi	a6, a6, 0x101
   16856: c2 08        	slli	a7, a7, 0x10
   16858: 42 08        	slli	a6, a6, 0x10
   1685a: 93 88 f8 ef  	addi	a7, a7, -0x101
   1685e: 13 08 18 10  	addi	a6, a6, 0x101
   16862: c2 08        	slli	a7, a7, 0x10
   16864: 3e 08        	slli	a6, a6, 0xf
   16866: 2a 87        	mv	a4, a0
   16868: 93 88 f8 ef  	addi	a7, a7, -0x101
   1686c: 13 08 08 08  	addi	a6, a6, 0x80
   16870: 1d 4e        	li	t3, 0x7
   16872: 39 a0        	j	0x16880 <strncpy+0x7c>
   16874: 14 e3        	sd	a3, 0x0(a4)
   16876: 61 16        	addi	a2, a2, -0x8
   16878: 21 07        	addi	a4, a4, 0x8
   1687a: a1 05        	addi	a1, a1, 0x8
   1687c: e3 76 ce fa  	bgeu	t3, a2, 0x16828 <strncpy+0x24>
   16880: 94 61        	ld	a3, 0x0(a1)
   16882: b3 87 16 01  	add	a5, a3, a7
   16886: 13 c3 f6 ff  	not	t1, a3
   1688a: b3 f7 67 00  	and	a5, a5, t1
   1688e: b3 f7 07 01  	and	a5, a5, a6
   16892: ed d3        	beqz	a5, 0x16874 <strncpy+0x70>
   16894: 51 bf        	j	0x16828 <strncpy+0x24>
   16896: 82 80        	ret

0000000000016898 <_setlocale_r>:
   16898: 01 11        	addi	sp, sp, -0x20
   1689a: 06 ec        	sd	ra, 0x18(sp)
   1689c: 26 e4        	sd	s1, 0x8(sp)
   1689e: 15 c2        	beqz	a2, 0x168c2 <_setlocale_r+0x2a>
   168a0: ed 65        	lui	a1, 0x1b
   168a2: 93 85 85 19  	addi	a1, a1, 0x198
   168a6: 32 85        	mv	a0, a2
   168a8: 22 e8        	sd	s0, 0x10(sp)
   168aa: 32 84        	mv	s0, a2
   168ac: ef 00 20 32  	jal	0x16bce <strcmp>
   168b0: ed 64        	lui	s1, 0x1b
   168b2: 11 e9        	bnez	a0, 0x168c6 <_setlocale_r+0x2e>
   168b4: 42 64        	ld	s0, 0x10(sp)
   168b6: 13 85 04 19  	addi	a0, s1, 0x190
   168ba: e2 60        	ld	ra, 0x18(sp)
   168bc: a2 64        	ld	s1, 0x8(sp)
   168be: 05 61        	addi	sp, sp, 0x20
   168c0: 82 80        	ret
   168c2: ed 64        	lui	s1, 0x1b
   168c4: cd bf        	j	0x168b6 <_setlocale_r+0x1e>
   168c6: 93 85 04 19  	addi	a1, s1, 0x190
   168ca: 22 85        	mv	a0, s0
   168cc: ef 00 20 30  	jal	0x16bce <strcmp>
   168d0: 75 d1        	beqz	a0, 0x168b4 <_setlocale_r+0x1c>
   168d2: ed 65        	lui	a1, 0x1b
   168d4: 93 85 85 17  	addi	a1, a1, 0x178
   168d8: 22 85        	mv	a0, s0
   168da: ef 00 40 2f  	jal	0x16bce <strcmp>
   168de: 79 d9        	beqz	a0, 0x168b4 <_setlocale_r+0x1c>
   168e0: 42 64        	ld	s0, 0x10(sp)
   168e2: 01 45        	li	a0, 0x0
   168e4: d9 bf        	j	0x168ba <_setlocale_r+0x22>

00000000000168e6 <__locale_mb_cur_max>:
   168e6: 03 c5 01 e8  	lbu	a0, -0x180(gp)
   168ea: 82 80        	ret

00000000000168ec <setlocale>:
   168ec: 01 11        	addi	sp, sp, -0x20
   168ee: 06 ec        	sd	ra, 0x18(sp)
   168f0: 26 e4        	sd	s1, 0x8(sp)
   168f2: 95 c1        	beqz	a1, 0x16916 <setlocale+0x2a>
   168f4: 22 e8        	sd	s0, 0x10(sp)
   168f6: 2e 84        	mv	s0, a1
   168f8: ed 65        	lui	a1, 0x1b
   168fa: 93 85 85 19  	addi	a1, a1, 0x198
   168fe: 22 85        	mv	a0, s0
   16900: ef 00 e0 2c  	jal	0x16bce <strcmp>
   16904: ed 64        	lui	s1, 0x1b
   16906: 11 e9        	bnez	a0, 0x1691a <setlocale+0x2e>
   16908: 42 64        	ld	s0, 0x10(sp)
   1690a: 13 85 04 19  	addi	a0, s1, 0x190
   1690e: e2 60        	ld	ra, 0x18(sp)
   16910: a2 64        	ld	s1, 0x8(sp)
   16912: 05 61        	addi	sp, sp, 0x20
   16914: 82 80        	ret
   16916: ed 64        	lui	s1, 0x1b
   16918: cd bf        	j	0x1690a <setlocale+0x1e>
   1691a: 93 85 04 19  	addi	a1, s1, 0x190
   1691e: 22 85        	mv	a0, s0
   16920: ef 00 e0 2a  	jal	0x16bce <strcmp>
   16924: 75 d1        	beqz	a0, 0x16908 <setlocale+0x1c>
   16926: ed 65        	lui	a1, 0x1b
   16928: 93 85 85 17  	addi	a1, a1, 0x178
   1692c: 22 85        	mv	a0, s0
   1692e: ef 00 00 2a  	jal	0x16bce <strcmp>
   16932: 79 d9        	beqz	a0, 0x16908 <setlocale+0x1c>
   16934: 42 64        	ld	s0, 0x10(sp)
   16936: 01 45        	li	a0, 0x0
   16938: d9 bf        	j	0x1690e <setlocale+0x22>

000000000001693a <__localeconv_l>:
   1693a: 13 05 05 10  	addi	a0, a0, 0x100
   1693e: 82 80        	ret

0000000000016940 <_localeconv_r>:
   16940: 13 85 01 e2  	addi	a0, gp, -0x1e0
   16944: 82 80        	ret

0000000000016946 <localeconv>:
   16946: 13 85 01 e2  	addi	a0, gp, -0x1e0
   1694a: 82 80        	ret

000000000001694c <_sbrk_r>:
   1694c: 01 11        	addi	sp, sp, -0x20
   1694e: 22 e8        	sd	s0, 0x10(sp)
   16950: 26 e4        	sd	s1, 0x8(sp)
   16952: 2a 84        	mv	s0, a0
   16954: 2e 85        	mv	a0, a1
   16956: 06 ec        	sd	ra, 0x18(sp)
   16958: 23 ac 01 20  	sw	zero, 0x218(gp)
   1695c: ef 30 00 38  	jal	0x19cdc <_sbrk>
   16960: fd 57        	li	a5, -0x1
   16962: 63 07 f5 00  	beq	a0, a5, 0x16970 <_sbrk_r+0x24>
   16966: e2 60        	ld	ra, 0x18(sp)
   16968: 42 64        	ld	s0, 0x10(sp)
   1696a: a2 64        	ld	s1, 0x8(sp)
   1696c: 05 61        	addi	sp, sp, 0x20
   1696e: 82 80        	ret
   16970: 83 a7 81 21  	lw	a5, 0x218(gp)
   16974: ed db        	beqz	a5, 0x16966 <_sbrk_r+0x1a>
   16976: e2 60        	ld	ra, 0x18(sp)
   16978: 1c c0        	sw	a5, 0x0(s0)
   1697a: 42 64        	ld	s0, 0x10(sp)
   1697c: a2 64        	ld	s1, 0x8(sp)
   1697e: 05 61        	addi	sp, sp, 0x20
   16980: 82 80        	ret

0000000000016982 <__libc_fini_array>:
   16982: 01 11        	addi	sp, sp, -0x20
   16984: 22 e8        	sd	s0, 0x10(sp)
   16986: f1 67        	lui	a5, 0x1c
   16988: 71 64        	lui	s0, 0x1c
   1698a: 93 87 07 1e  	addi	a5, a5, 0x1e0
   1698e: 13 04 84 1e  	addi	s0, s0, 0x1e8
   16992: 1d 8c        	sub	s0, s0, a5
   16994: 26 e4        	sd	s1, 0x8(sp)
   16996: 06 ec        	sd	ra, 0x18(sp)
   16998: 93 54 34 40  	srai	s1, s0, 0x3
   1699c: 81 c8        	beqz	s1, 0x169ac <__libc_fini_array+0x2a>
   1699e: 61 14        	addi	s0, s0, -0x8
   169a0: 3e 94        	add	s0, s0, a5
   169a2: 1c 60        	ld	a5, 0x0(s0)
   169a4: fd 14        	addi	s1, s1, -0x1
   169a6: 61 14        	addi	s0, s0, -0x8
   169a8: 82 97        	jalr	a5
   169aa: e5 fc        	bnez	s1, 0x169a2 <__libc_fini_array+0x20>
   169ac: e2 60        	ld	ra, 0x18(sp)
   169ae: 42 64        	ld	s0, 0x10(sp)
   169b0: a2 64        	ld	s1, 0x8(sp)
   169b2: 05 61        	addi	sp, sp, 0x20
   169b4: 82 80        	ret

00000000000169b6 <memmove>:
   169b6: 63 f2 a5 02  	bgeu	a1, a0, 0x169da <memmove+0x24>
   169ba: 33 87 c5 00  	add	a4, a1, a2
   169be: 63 7e e5 00  	bgeu	a0, a4, 0x169da <memmove+0x24>
   169c2: b3 07 c5 00  	add	a5, a0, a2
   169c6: 1d ca        	beqz	a2, 0x169fc <memmove+0x46>
   169c8: 83 46 f7 ff  	lbu	a3, -0x1(a4)
   169cc: fd 17        	addi	a5, a5, -0x1
   169ce: 7d 17        	addi	a4, a4, -0x1
   169d0: 23 80 d7 00  	sb	a3, 0x0(a5)
   169d4: e3 1a f5 fe  	bne	a0, a5, 0x169c8 <memmove+0x12>
   169d8: 82 80        	ret
   169da: fd 47        	li	a5, 0x1f
   169dc: 63 e1 c7 02  	bltu	a5, a2, 0x169fe <memmove+0x48>
   169e0: aa 87        	mv	a5, a0
   169e2: 93 06 f6 ff  	addi	a3, a2, -0x1
   169e6: 51 ce        	beqz	a2, 0x16a82 <memmove+0xcc>
   169e8: 85 06        	addi	a3, a3, 0x1
   169ea: be 96        	add	a3, a3, a5
   169ec: 03 c7 05 00  	lbu	a4, 0x0(a1)
   169f0: 85 07        	addi	a5, a5, 0x1
   169f2: 85 05        	addi	a1, a1, 0x1
   169f4: a3 8f e7 fe  	sb	a4, -0x1(a5)
   169f8: e3 9a d7 fe  	bne	a5, a3, 0x169ec <memmove+0x36>
   169fc: 82 80        	ret
   169fe: b3 67 b5 00  	or	a5, a0, a1
   16a02: 9d 8b        	andi	a5, a5, 0x7
   16a04: bd eb        	bnez	a5, 0x16a7a <memmove+0xc4>
   16a06: 93 08 06 fe  	addi	a7, a2, -0x20
   16a0a: 93 f8 08 fe  	andi	a7, a7, -0x20
   16a0e: 93 88 08 02  	addi	a7, a7, 0x20
   16a12: b3 06 15 01  	add	a3, a0, a7
   16a16: 2e 87        	mv	a4, a1
   16a18: aa 87        	mv	a5, a0
   16a1a: 03 38 07 00  	ld	a6, 0x0(a4)
   16a1e: 13 07 07 02  	addi	a4, a4, 0x20
   16a22: 93 87 07 02  	addi	a5, a5, 0x20
   16a26: 23 b0 07 ff  	sd	a6, -0x20(a5)
   16a2a: 03 38 87 fe  	ld	a6, -0x18(a4)
   16a2e: 23 b4 07 ff  	sd	a6, -0x18(a5)
   16a32: 03 38 07 ff  	ld	a6, -0x10(a4)
   16a36: 23 b8 07 ff  	sd	a6, -0x10(a5)
   16a3a: 03 38 87 ff  	ld	a6, -0x8(a4)
   16a3e: 23 bc 07 ff  	sd	a6, -0x8(a5)
   16a42: e3 9c d7 fc  	bne	a5, a3, 0x16a1a <memmove+0x64>
   16a46: 13 78 86 01  	andi	a6, a2, 0x18
   16a4a: c6 95        	add	a1, a1, a7
   16a4c: 13 77 f6 01  	andi	a4, a2, 0x1f
   16a50: 63 0a 08 02  	beqz	a6, 0x16a84 <memmove+0xce>
   16a54: 13 08 87 ff  	addi	a6, a4, -0x8
   16a58: 13 78 88 ff  	andi	a6, a6, -0x8
   16a5c: 21 08        	addi	a6, a6, 0x8
   16a5e: b3 87 06 01  	add	a5, a3, a6
   16a62: 2e 87        	mv	a4, a1
   16a64: 83 38 07 00  	ld	a7, 0x0(a4)
   16a68: a1 06        	addi	a3, a3, 0x8
   16a6a: 21 07        	addi	a4, a4, 0x8
   16a6c: 23 bc 16 ff  	sd	a7, -0x8(a3)
   16a70: e3 9a f6 fe  	bne	a3, a5, 0x16a64 <memmove+0xae>
   16a74: 1d 8a        	andi	a2, a2, 0x7
   16a76: c2 95        	add	a1, a1, a6
   16a78: ad b7        	j	0x169e2 <memmove+0x2c>
   16a7a: 93 06 f6 ff  	addi	a3, a2, -0x1
   16a7e: aa 87        	mv	a5, a0
   16a80: a5 b7        	j	0x169e8 <memmove+0x32>
   16a82: 82 80        	ret
   16a84: 3a 86        	mv	a2, a4
   16a86: b1 bf        	j	0x169e2 <memmove+0x2c>

0000000000016a88 <memcpy>:
   16a88: b3 c7 a5 00  	xor	a5, a1, a0
   16a8c: 9d 8b        	andi	a5, a5, 0x7
   16a8e: b3 08 c5 00  	add	a7, a0, a2
   16a92: b1 e7        	bnez	a5, 0x16ade <memcpy+0x56>
   16a94: 9d 47        	li	a5, 0x7
   16a96: 63 f4 c7 04  	bgeu	a5, a2, 0x16ade <memcpy+0x56>
   16a9a: 93 77 75 00  	andi	a5, a0, 0x7
   16a9e: 2a 87        	mv	a4, a0
   16aa0: b9 eb        	bnez	a5, 0x16af6 <memcpy+0x6e>
   16aa2: 13 f6 88 ff  	andi	a2, a7, -0x8
   16aa6: b3 06 e6 40  	sub	a3, a2, a4
   16aaa: 93 07 00 04  	li	a5, 0x40
   16aae: 63 c8 d7 06  	blt	a5, a3, 0x16b1e <memcpy+0x96>
   16ab2: ae 86        	mv	a3, a1
   16ab4: ba 87        	mv	a5, a4
   16ab6: 63 71 c7 02  	bgeu	a4, a2, 0x16ad8 <memcpy+0x50>
   16aba: 03 b8 06 00  	ld	a6, 0x0(a3)
   16abe: a1 07        	addi	a5, a5, 0x8
   16ac0: a1 06        	addi	a3, a3, 0x8
   16ac2: 23 bc 07 ff  	sd	a6, -0x8(a5)
   16ac6: e3 ea c7 fe  	bltu	a5, a2, 0x16aba <memcpy+0x32>
   16aca: 93 07 f6 ff  	addi	a5, a2, -0x1
   16ace: 99 8f        	sub	a5, a5, a4
   16ad0: e1 9b        	andi	a5, a5, -0x8
   16ad2: a1 07        	addi	a5, a5, 0x8
   16ad4: 3e 97        	add	a4, a4, a5
   16ad6: be 95        	add	a1, a1, a5
   16ad8: 63 66 17 01  	bltu	a4, a7, 0x16ae4 <memcpy+0x5c>
   16adc: 82 80        	ret
   16ade: 2a 87        	mv	a4, a0
   16ae0: 63 7e 15 03  	bgeu	a0, a7, 0x16b1c <memcpy+0x94>
   16ae4: 83 c7 05 00  	lbu	a5, 0x0(a1)
   16ae8: 05 07        	addi	a4, a4, 0x1
   16aea: 85 05        	addi	a1, a1, 0x1
   16aec: a3 0f f7 fe  	sb	a5, -0x1(a4)
   16af0: e3 9a e8 fe  	bne	a7, a4, 0x16ae4 <memcpy+0x5c>
   16af4: 82 80        	ret
   16af6: 83 c6 05 00  	lbu	a3, 0x0(a1)
   16afa: 05 07        	addi	a4, a4, 0x1
   16afc: 93 77 77 00  	andi	a5, a4, 0x7
   16b00: a3 0f d7 fe  	sb	a3, -0x1(a4)
   16b04: 85 05        	addi	a1, a1, 0x1
   16b06: d1 df        	beqz	a5, 0x16aa2 <memcpy+0x1a>
   16b08: 83 c6 05 00  	lbu	a3, 0x0(a1)
   16b0c: 05 07        	addi	a4, a4, 0x1
   16b0e: 93 77 77 00  	andi	a5, a4, 0x7
   16b12: a3 0f d7 fe  	sb	a3, -0x1(a4)
   16b16: 85 05        	addi	a1, a1, 0x1
   16b18: f9 ff        	bnez	a5, 0x16af6 <memcpy+0x6e>
   16b1a: 61 b7        	j	0x16aa2 <memcpy+0x1a>
   16b1c: 82 80        	ret
   16b1e: 41 11        	addi	sp, sp, -0x10
   16b20: 22 e4        	sd	s0, 0x8(sp)
   16b22: 13 04 00 04  	li	s0, 0x40
   16b26: 83 b3 05 00  	ld	t2, 0x0(a1)
   16b2a: 83 b2 85 00  	ld	t0, 0x8(a1)
   16b2e: 83 bf 05 01  	ld	t6, 0x10(a1)
   16b32: 03 bf 85 01  	ld	t5, 0x18(a1)
   16b36: 83 be 05 02  	ld	t4, 0x20(a1)
   16b3a: 03 be 85 02  	ld	t3, 0x28(a1)
   16b3e: 03 b3 05 03  	ld	t1, 0x30(a1)
   16b42: 03 b8 85 03  	ld	a6, 0x38(a1)
   16b46: b4 61        	ld	a3, 0x40(a1)
   16b48: 13 07 87 04  	addi	a4, a4, 0x48
   16b4c: b3 07 e6 40  	sub	a5, a2, a4
   16b50: 23 3c 77 fa  	sd	t2, -0x48(a4)
   16b54: 23 30 57 fc  	sd	t0, -0x40(a4)
   16b58: 23 34 f7 fd  	sd	t6, -0x38(a4)
   16b5c: 23 38 e7 fd  	sd	t5, -0x30(a4)
   16b60: 23 3c d7 fd  	sd	t4, -0x28(a4)
   16b64: 23 30 c7 ff  	sd	t3, -0x20(a4)
   16b68: 23 34 67 fe  	sd	t1, -0x18(a4)
   16b6c: 23 38 07 ff  	sd	a6, -0x10(a4)
   16b70: 23 3c d7 fe  	sd	a3, -0x8(a4)
   16b74: 93 85 85 04  	addi	a1, a1, 0x48
   16b78: e3 47 f4 fa  	blt	s0, a5, 0x16b26 <memcpy+0x9e>
   16b7c: ae 86        	mv	a3, a1
   16b7e: ba 87        	mv	a5, a4
   16b80: 63 71 c7 02  	bgeu	a4, a2, 0x16ba2 <memcpy+0x11a>
   16b84: 03 b8 06 00  	ld	a6, 0x0(a3)
   16b88: a1 07        	addi	a5, a5, 0x8
   16b8a: a1 06        	addi	a3, a3, 0x8
   16b8c: 23 bc 07 ff  	sd	a6, -0x8(a5)
   16b90: e3 ea c7 fe  	bltu	a5, a2, 0x16b84 <memcpy+0xfc>
   16b94: 93 07 f6 ff  	addi	a5, a2, -0x1
   16b98: 99 8f        	sub	a5, a5, a4
   16b9a: e1 9b        	andi	a5, a5, -0x8
   16b9c: a1 07        	addi	a5, a5, 0x8
   16b9e: 3e 97        	add	a4, a4, a5
   16ba0: be 95        	add	a1, a1, a5
   16ba2: 63 65 17 01  	bltu	a4, a7, 0x16bac <memcpy+0x124>
   16ba6: 22 64        	ld	s0, 0x8(sp)
   16ba8: 41 01        	addi	sp, sp, 0x10
   16baa: 82 80        	ret
   16bac: 83 c7 05 00  	lbu	a5, 0x0(a1)
   16bb0: 05 07        	addi	a4, a4, 0x1
   16bb2: 85 05        	addi	a1, a1, 0x1
   16bb4: a3 0f f7 fe  	sb	a5, -0x1(a4)
   16bb8: e3 87 e8 fe  	beq	a7, a4, 0x16ba6 <memcpy+0x11e>
   16bbc: 83 c7 05 00  	lbu	a5, 0x0(a1)
   16bc0: 05 07        	addi	a4, a4, 0x1
   16bc2: 85 05        	addi	a1, a1, 0x1
   16bc4: a3 0f f7 fe  	sb	a5, -0x1(a4)
   16bc8: e3 92 e8 fe  	bne	a7, a4, 0x16bac <memcpy+0x124>
   16bcc: e9 bf        	j	0x16ba6 <memcpy+0x11e>

0000000000016bce <strcmp>:
   16bce: 33 67 b5 00  	or	a4, a0, a1
   16bd2: fd 53        	li	t2, -0x1
   16bd4: 1d 8b        	andi	a4, a4, 0x7
   16bd6: 4d eb        	bnez	a4, 0x16c88 <strcmp+0xba>
   16bd8: 97 67 00 00  	auipc	a5, 0x6
   16bdc: 83 b7 87 39  	ld	a5, 0x398(a5)
   16be0: 10 61        	ld	a2, 0x0(a0)
   16be2: 94 61        	ld	a3, 0x0(a1)
   16be4: b3 72 f6 00  	and	t0, a2, a5
   16be8: 33 63 f6 00  	or	t1, a2, a5
   16bec: be 92        	add	t0, t0, a5
   16bee: b3 e2 62 00  	or	t0, t0, t1
   16bf2: 63 99 72 0a  	bne	t0, t2, 0x16ca4 <strcmp+0xd6>
   16bf6: 63 1e d6 02  	bne	a2, a3, 0x16c32 <strcmp+0x64>
   16bfa: 10 65        	ld	a2, 0x8(a0)
   16bfc: 94 65        	ld	a3, 0x8(a1)
   16bfe: b3 72 f6 00  	and	t0, a2, a5
   16c02: 33 63 f6 00  	or	t1, a2, a5
   16c06: be 92        	add	t0, t0, a5
   16c08: b3 e2 62 00  	or	t0, t0, t1
   16c0c: 63 9a 72 08  	bne	t0, t2, 0x16ca0 <strcmp+0xd2>
   16c10: 63 11 d6 02  	bne	a2, a3, 0x16c32 <strcmp+0x64>
   16c14: 10 69        	ld	a2, 0x10(a0)
   16c16: 94 69        	ld	a3, 0x10(a1)
   16c18: b3 72 f6 00  	and	t0, a2, a5
   16c1c: 33 63 f6 00  	or	t1, a2, a5
   16c20: be 92        	add	t0, t0, a5
   16c22: b3 e2 62 00  	or	t0, t0, t1
   16c26: 63 93 72 08  	bne	t0, t2, 0x16cac <strcmp+0xde>
   16c2a: 61 05        	addi	a0, a0, 0x18
   16c2c: e1 05        	addi	a1, a1, 0x18
   16c2e: e3 09 d6 fa  	beq	a2, a3, 0x16be0 <strcmp+0x12>
   16c32: 13 17 06 03  	slli	a4, a2, 0x30
   16c36: 93 97 06 03  	slli	a5, a3, 0x30
   16c3a: 63 18 f7 02  	bne	a4, a5, 0x16c6a <strcmp+0x9c>
   16c3e: 13 17 06 02  	slli	a4, a2, 0x20
   16c42: 93 97 06 02  	slli	a5, a3, 0x20
   16c46: 63 12 f7 02  	bne	a4, a5, 0x16c6a <strcmp+0x9c>
   16c4a: 13 17 06 01  	slli	a4, a2, 0x10
   16c4e: 93 97 06 01  	slli	a5, a3, 0x10
   16c52: 63 1c f7 00  	bne	a4, a5, 0x16c6a <strcmp+0x9c>
   16c56: 13 57 06 03  	srli	a4, a2, 0x30
   16c5a: 93 d7 06 03  	srli	a5, a3, 0x30
   16c5e: 33 05 f7 40  	sub	a0, a4, a5
   16c62: 93 75 f5 0f  	andi	a1, a0, 0xff
   16c66: 91 e9        	bnez	a1, 0x16c7a <strcmp+0xac>
   16c68: 82 80        	ret
   16c6a: 41 93        	srli	a4, a4, 0x30
   16c6c: c1 93        	srli	a5, a5, 0x30
   16c6e: 33 05 f7 40  	sub	a0, a4, a5
   16c72: 93 75 f5 0f  	andi	a1, a0, 0xff
   16c76: 91 e1        	bnez	a1, 0x16c7a <strcmp+0xac>
   16c78: 82 80        	ret
   16c7a: 13 77 f7 0f  	andi	a4, a4, 0xff
   16c7e: 93 f7 f7 0f  	andi	a5, a5, 0xff
   16c82: 33 05 f7 40  	sub	a0, a4, a5
   16c86: 82 80        	ret
   16c88: 03 46 05 00  	lbu	a2, 0x0(a0)
   16c8c: 83 c6 05 00  	lbu	a3, 0x0(a1)
   16c90: 05 05        	addi	a0, a0, 0x1
   16c92: 85 05        	addi	a1, a1, 0x1
   16c94: 63 13 d6 00  	bne	a2, a3, 0x16c9a <strcmp+0xcc>
   16c98: 65 fa        	bnez	a2, 0x16c88 <strcmp+0xba>
   16c9a: 33 05 d6 40  	sub	a0, a2, a3
   16c9e: 82 80        	ret
   16ca0: 21 05        	addi	a0, a0, 0x8
   16ca2: a1 05        	addi	a1, a1, 0x8
   16ca4: e3 12 d6 fe  	bne	a2, a3, 0x16c88 <strcmp+0xba>
   16ca8: 01 45        	li	a0, 0x0
   16caa: 82 80        	ret
   16cac: 41 05        	addi	a0, a0, 0x10
   16cae: c1 05        	addi	a1, a1, 0x10
   16cb0: e3 1c d6 fc  	bne	a2, a3, 0x16c88 <strcmp+0xba>
   16cb4: 01 45        	li	a0, 0x0
   16cb6: 82 80        	ret

0000000000016cb8 <frexpl>:
   16cb8: 39 71        	addi	sp, sp, -0x40
   16cba: 4a f0        	sd	s2, 0x20(sp)
   16cbc: 21 69        	lui	s2, 0x8
   16cbe: 22 f8        	sd	s0, 0x30(sp)
   16cc0: 26 f4        	sd	s1, 0x28(sp)
   16cc2: 5a e0        	sd	s6, 0x0(sp)
   16cc4: 06 fc        	sd	ra, 0x38(sp)
   16cc6: 93 d4 05 03  	srli	s1, a1, 0x30
   16cca: 7d 19        	addi	s2, s2, -0x1
   16ccc: b3 f4 24 01  	and	s1, s1, s2
   16cd0: 23 20 06 00  	sw	zero, 0x0(a2)
   16cd4: 2e 84        	mv	s0, a1
   16cd6: 2a 8b        	mv	s6, a0
   16cd8: 63 84 24 05  	beq	s1, s2, 0x16d20 <frexpl+0x68>
   16cdc: 56 e4        	sd	s5, 0x8(sp)
   16cde: 81 46        	li	a3, 0x0
   16ce0: b2 8a        	mv	s5, a2
   16ce2: 01 46        	li	a2, 0x0
   16ce4: 4e ec        	sd	s3, 0x18(sp)
   16ce6: 52 e8        	sd	s4, 0x10(sp)
   16ce8: ae 89        	mv	s3, a1
   16cea: 2a 8a        	mv	s4, a0
   16cec: ef 30 e0 0b  	jal	0x19daa <__netf2>
   16cf0: 25 c1        	beqz	a0, 0x16d50 <frexpl+0x98>
   16cf2: 81 46        	li	a3, 0x0
   16cf4: 8d cc        	beqz	s1, 0x16d2e <frexpl+0x76>
   16cf6: 71 77        	lui	a4, 0xffffc
   16cf8: b7 17 00 f8  	lui	a5, 0xf8001
   16cfc: 09 27        	addiw	a4, a4, 0x2
   16cfe: 92 17        	slli	a5, a5, 0x24
   16d00: b9 9c        	addw	s1, s1, a4
   16d02: fd 17        	addi	a5, a5, -0x1
   16d04: 37 f4 ff 01  	lui	s0, 0x1fff
   16d08: b3 f9 f9 00  	and	s3, s3, a5
   16d0c: b5 9c        	addw	s1, s1, a3
   16d0e: 16 14        	slli	s0, s0, 0x25
   16d10: 23 a0 9a 00  	sw	s1, 0x0(s5)
   16d14: 52 85        	mv	a0, s4
   16d16: b3 e5 89 00  	or	a1, s3, s0
   16d1a: 42 6a        	ld	s4, 0x10(sp)
   16d1c: e2 69        	ld	s3, 0x18(sp)
   16d1e: a2 6a        	ld	s5, 0x8(sp)
   16d20: e2 70        	ld	ra, 0x38(sp)
   16d22: 42 74        	ld	s0, 0x30(sp)
   16d24: a2 74        	ld	s1, 0x28(sp)
   16d26: 02 79        	ld	s2, 0x20(sp)
   16d28: 02 6b        	ld	s6, 0x0(sp)
   16d2a: 21 61        	addi	sp, sp, 0x40
   16d2c: 82 80        	ret
   16d2e: b7 16 07 04  	lui	a3, 0x4071
   16d32: 92 16        	slli	a3, a3, 0x24
   16d34: 01 46        	li	a2, 0x0
   16d36: 5a 85        	mv	a0, s6
   16d38: a2 85        	mv	a1, s0
   16d3a: ef 30 40 25  	jal	0x19f8e <__multf3>
   16d3e: 93 d4 05 03  	srli	s1, a1, 0x30
   16d42: ae 89        	mv	s3, a1
   16d44: 2a 8a        	mv	s4, a0
   16d46: b3 f4 24 01  	and	s1, s1, s2
   16d4a: 93 06 e0 f8  	li	a3, -0x72
   16d4e: 65 b7        	j	0x16cf6 <frexpl+0x3e>
   16d50: e2 70        	ld	ra, 0x38(sp)
   16d52: a2 85        	mv	a1, s0
   16d54: 42 74        	ld	s0, 0x30(sp)
   16d56: e2 69        	ld	s3, 0x18(sp)
   16d58: 42 6a        	ld	s4, 0x10(sp)
   16d5a: a2 6a        	ld	s5, 0x8(sp)
   16d5c: a2 74        	ld	s1, 0x28(sp)
   16d5e: 02 79        	ld	s2, 0x20(sp)
   16d60: 5a 85        	mv	a0, s6
   16d62: 02 6b        	ld	s6, 0x0(sp)
   16d64: 21 61        	addi	sp, sp, 0x40
   16d66: 82 80        	ret

0000000000016d68 <__register_exitproc>:
   16d68: 83 b7 01 22  	ld	a5, 0x220(gp)
   16d6c: b1 c3        	beqz	a5, 0x16db0 <__register_exitproc+0x48>
   16d6e: 98 47        	lw	a4, 0x8(a5)
   16d70: 7d 48        	li	a6, 0x1f
   16d72: 63 45 e8 06  	blt	a6, a4, 0x16ddc <__register_exitproc+0x74>
   16d76: 05 c5        	beqz	a0, 0x16d9e <__register_exitproc+0x36>
   16d78: 13 18 37 00  	slli	a6, a4, 0x3
   16d7c: 3e 98        	add	a6, a6, a5
   16d7e: 23 38 c8 10  	sd	a2, 0x110(a6)
   16d82: 83 a8 07 31  	lw	a7, 0x310(a5)
   16d86: 05 46        	li	a2, 0x1
   16d88: 3b 16 e6 00  	sllw	a2, a2, a4
   16d8c: b3 e8 c8 00  	or	a7, a7, a2
   16d90: 23 a8 17 31  	sw	a7, 0x310(a5)
   16d94: 23 38 d8 20  	sd	a3, 0x210(a6)
   16d98: 89 46        	li	a3, 0x2
   16d9a: 63 03 d5 02  	beq	a0, a3, 0x16dc0 <__register_exitproc+0x58>
   16d9e: 93 06 27 00  	addi	a3, a4, 0x2
   16da2: 8e 06        	slli	a3, a3, 0x3
   16da4: 05 27        	addiw	a4, a4, 0x1
   16da6: 98 c7        	sw	a4, 0x8(a5)
   16da8: b6 97        	add	a5, a5, a3
   16daa: 8c e3        	sd	a1, 0x0(a5)
   16dac: 01 45        	li	a0, 0x0
   16dae: 82 80        	ret
   16db0: f5 67        	lui	a5, 0x1d
   16db2: 13 88 07 33  	addi	a6, a5, 0x330
   16db6: 23 b0 01 23  	sd	a6, 0x220(gp)
   16dba: 93 87 07 33  	addi	a5, a5, 0x330
   16dbe: 45 bf        	j	0x16d6e <__register_exitproc+0x6>
   16dc0: 83 a6 47 31  	lw	a3, 0x314(a5)
   16dc4: 01 45        	li	a0, 0x0
   16dc6: d1 8e        	or	a3, a3, a2
   16dc8: 23 aa d7 30  	sw	a3, 0x314(a5)
   16dcc: 93 06 27 00  	addi	a3, a4, 0x2
   16dd0: 8e 06        	slli	a3, a3, 0x3
   16dd2: 05 27        	addiw	a4, a4, 0x1
   16dd4: 98 c7        	sw	a4, 0x8(a5)
   16dd6: b6 97        	add	a5, a5, a3
   16dd8: 8c e3        	sd	a1, 0x0(a5)
   16dda: 82 80        	ret
   16ddc: 7d 55        	li	a0, -0x1
   16dde: 82 80        	ret

0000000000016de0 <_ldtoa_r>:
   16de0: 71 63        	lui	t1, 0x1c
   16de2: 13 03 03 8e  	addi	t1, t1, -0x720
   16de6: 03 3f 03 00  	ld	t5, 0x0(t1)
   16dea: 83 3e 83 00  	ld	t4, 0x8(t1)
   16dee: 03 2e 03 01  	lw	t3, 0x10(t1)
   16df2: 03 33 05 05  	ld	t1, 0x50(a0)
   16df6: 71 71        	addi	sp, sp, -0xb0
   16df8: 26 ed        	sd	s1, 0x98(sp)
   16dfa: 4a e9        	sd	s2, 0x90(sp)
   16dfc: 52 e1        	sd	s4, 0x80(sp)
   16dfe: da f8        	sd	s6, 0x70(sp)
   16e00: de f4        	sd	s7, 0x68(sp)
   16e02: e2 f0        	sd	s8, 0x60(sp)
   16e04: e6 ec        	sd	s9, 0x58(sp)
   16e06: ea e8        	sd	s10, 0x50(sp)
   16e08: 06 f5        	sd	ra, 0xa8(sp)
   16e0a: 22 f1        	sd	s0, 0xa0(sp)
   16e0c: 4e e5        	sd	s3, 0x88(sp)
   16e0e: d6 fc        	sd	s5, 0x78(sp)
   16e10: ee e4        	sd	s11, 0x48(sp)
   16e12: 7a f4        	sd	t5, 0x28(sp)
   16e14: 76 f8        	sd	t4, 0x30(sp)
   16e16: 72 dc        	sw	t3, 0x38(sp)
   16e18: 2a 8b        	mv	s6, a0
   16e1a: 2e 89        	mv	s2, a1
   16e1c: b2 84        	mv	s1, a2
   16e1e: 36 8c        	mv	s8, a3
   16e20: ba 8c        	mv	s9, a4
   16e22: be 8b        	mv	s7, a5
   16e24: 42 8a        	mv	s4, a6
   16e26: 46 8d        	mv	s10, a7
   16e28: 63 01 03 02  	beqz	t1, 0x16e4a <_ldtoa_r+0x6a>
   16e2c: 3c 4d        	lw	a5, 0x58(a0)
   16e2e: 05 47        	li	a4, 0x1
   16e30: 9a 85        	mv	a1, t1
   16e32: 3b 17 f7 00  	sllw	a4, a4, a5
   16e36: 82 17        	slli	a5, a5, 0x20
   16e38: 02 17        	slli	a4, a4, 0x20
   16e3a: 81 93        	srli	a5, a5, 0x20
   16e3c: d9 8f        	or	a5, a5, a4
   16e3e: 23 34 f3 00  	sd	a5, 0x8(t1)
   16e42: ef 10 40 57  	jal	0x183b6 <_Bfree>
   16e46: 23 38 0b 04  	sd	zero, 0x50(s6)
   16e4a: d2 57        	lw	a5, 0x34(sp)
   16e4c: 93 a5 04 00  	slti	a1, s1, 0x0
   16e50: 13 94 14 00  	slli	s0, s1, 0x1
   16e54: 1b d7 17 40  	sraiw	a4, a5, 0x1
   16e58: 93 d9 04 02  	srli	s3, s1, 0x20
   16e5c: f9 8d        	and	a1, a1, a4
   16e5e: 05 80        	srli	s0, s0, 0x1
   16e60: 93 a6 04 00  	slti	a3, s1, 0x0
   16e64: 93 9a 14 00  	slli	s5, s1, 0x1
   16e68: 71 77        	lui	a4, 0xffffc
   16e6a: 9b 99 09 01  	slliw	s3, s3, 0x10
   16e6e: ad 8f        	xor	a5, a5, a1
   16e70: 93 da 1a 03  	srli	s5, s5, 0x31
   16e74: 1b 07 17 f9  	addiw	a4, a4, -0x6f
   16e78: 9b d9 09 01  	srliw	s3, s3, 0x10
   16e7c: 23 20 da 00  	sw	a3, 0x0(s4)
   16e80: 4a 86        	mv	a2, s2
   16e82: a2 86        	mv	a3, s0
   16e84: 4a 85        	mv	a0, s2
   16e86: a2 85        	mv	a1, s0
   16e88: 3e da        	sw	a5, 0x34(sp)
   16e8a: bb 8d ea 00  	addw	s11, s5, a4
   16e8e: 4a ec        	sd	s2, 0x18(sp)
   16e90: 26 d0        	sw	s1, 0x20(sp)
   16e92: 4e d2        	sw	s3, 0x24(sp)
   16e94: ef 30 30 6c  	jal	0x1ad56 <__unordtf2>
   16e98: 5d e9        	bnez	a0, 0x16f4e <_ldtoa_r+0x16e>
   16e9a: 37 fa ff 07  	lui	s4, 0x7fff
   16e9e: 12 1a        	slli	s4, s4, 0x24
   16ea0: 7d 1a        	addi	s4, s4, -0x1
   16ea2: 7d 56        	li	a2, -0x1
   16ea4: d2 86        	mv	a3, s4
   16ea6: 4a 85        	mv	a0, s2
   16ea8: a2 85        	mv	a1, s0
   16eaa: ef 30 d0 6a  	jal	0x1ad56 <__unordtf2>
   16eae: 39 ed        	bnez	a0, 0x16f0c <_ldtoa_r+0x12c>
   16eb0: 7d 56        	li	a2, -0x1
   16eb2: d2 86        	mv	a3, s4
   16eb4: 4a 85        	mv	a0, s2
   16eb6: a2 85        	mv	a1, s0
   16eb8: ef 30 80 03  	jal	0x19ef0 <__lttf2>
   16ebc: 63 58 a0 04  	blez	a0, 0x16f0c <_ldtoa_r+0x12c>
   16ec0: 8d 47        	li	a5, 0x3
   16ec2: 3e ca        	sw	a5, 0x14(sp)
   16ec4: e2 87        	mv	a5, s8
   16ec6: 58 08        	addi	a4, sp, 0x14
   16ec8: 6a e0        	sd	s10, 0x0(sp)
   16eca: de 88        	mv	a7, s7
   16ecc: 66 88        	mv	a6, s9
   16ece: 34 08        	addi	a3, sp, 0x18
   16ed0: 6e 86        	mv	a2, s11
   16ed2: 2c 10        	addi	a1, sp, 0x28
   16ed4: 5a 85        	mv	a0, s6
   16ed6: ef 00 e0 0e  	jal	0x16fc4 <__gdtoa>
   16eda: 03 a7 0b 00  	lw	a4, 0x0(s7)
   16ede: e1 77        	lui	a5, 0xffff8
   16ee0: 63 17 f7 00  	bne	a4, a5, 0x16eee <_ldtoa_r+0x10e>
   16ee4: b7 07 00 80  	lui	a5, 0x80000
   16ee8: fd 17        	addi	a5, a5, -0x1
   16eea: 23 a0 fb 00  	sw	a5, 0x0(s7)
   16eee: aa 70        	ld	ra, 0xa8(sp)
   16ef0: 0a 74        	ld	s0, 0xa0(sp)
   16ef2: ea 64        	ld	s1, 0x98(sp)
   16ef4: 4a 69        	ld	s2, 0x90(sp)
   16ef6: aa 69        	ld	s3, 0x88(sp)
   16ef8: 0a 6a        	ld	s4, 0x80(sp)
   16efa: e6 7a        	ld	s5, 0x78(sp)
   16efc: 46 7b        	ld	s6, 0x70(sp)
   16efe: a6 7b        	ld	s7, 0x68(sp)
   16f00: 06 7c        	ld	s8, 0x60(sp)
   16f02: e6 6c        	ld	s9, 0x58(sp)
   16f04: 46 6d        	ld	s10, 0x50(sp)
   16f06: a6 6d        	ld	s11, 0x48(sp)
   16f08: 4d 61        	addi	sp, sp, 0xb0
   16f0a: 82 80        	ret
   16f0c: 85 46        	li	a3, 0x1
   16f0e: 01 46        	li	a2, 0x0
   16f10: c2 16        	slli	a3, a3, 0x30
   16f12: 4a 85        	mv	a0, s2
   16f14: a2 85        	mv	a1, s0
   16f16: ef 20 d0 73  	jal	0x19e52 <__gttf2>
   16f1a: 63 49 05 00  	bltz	a0, 0x16f2c <_ldtoa_r+0x14c>
   16f1e: c1 67        	lui	a5, 0x10
   16f20: b3 e9 f9 00  	or	s3, s3, a5
   16f24: 85 47        	li	a5, 0x1
   16f26: 3e ca        	sw	a5, 0x14(sp)
   16f28: 4e d2        	sw	s3, 0x24(sp)
   16f2a: 69 bf        	j	0x16ec4 <_ldtoa_r+0xe4>
   16f2c: 01 46        	li	a2, 0x0
   16f2e: 81 46        	li	a3, 0x0
   16f30: 4a 85        	mv	a0, s2
   16f32: a6 85        	mv	a1, s1
   16f34: ef 20 70 67  	jal	0x19daa <__netf2>
   16f38: 19 e1        	bnez	a0, 0x16f3e <_ldtoa_r+0x15e>
   16f3a: 02 ca        	sw	zero, 0x14(sp)
   16f3c: 61 b7        	j	0x16ec4 <_ldtoa_r+0xe4>
   16f3e: 71 77        	lui	a4, 0xffffc
   16f40: 1b 07 27 f9  	addiw	a4, a4, -0x6e
   16f44: 89 47        	li	a5, 0x2
   16f46: 3e ca        	sw	a5, 0x14(sp)
   16f48: bb 8d ea 00  	addw	s11, s5, a4
   16f4c: a5 bf        	j	0x16ec4 <_ldtoa_r+0xe4>
   16f4e: 91 47        	li	a5, 0x4
   16f50: 3e ca        	sw	a5, 0x14(sp)
   16f52: 8d bf        	j	0x16ec4 <_ldtoa_r+0xe4>

0000000000016f54 <_ldcheck>:
   16f54: 79 71        	addi	sp, sp, -0x30
   16f56: 26 ec        	sd	s1, 0x18(sp)
   16f58: 04 65        	ld	s1, 0x8(a0)
   16f5a: 4e e4        	sd	s3, 0x8(sp)
   16f5c: 83 39 05 00  	ld	s3, 0x0(a0)
   16f60: 86 04        	slli	s1, s1, 0x1
   16f62: 85 80        	srli	s1, s1, 0x1
   16f64: 4e 86        	mv	a2, s3
   16f66: a6 86        	mv	a3, s1
   16f68: 4e 85        	mv	a0, s3
   16f6a: a6 85        	mv	a1, s1
   16f6c: 06 f4        	sd	ra, 0x28(sp)
   16f6e: ef 30 90 5e  	jal	0x1ad56 <__unordtf2>
   16f72: 39 e1        	bnez	a0, 0x16fb8 <_ldcheck+0x64>
   16f74: 4a e8        	sd	s2, 0x10(sp)
   16f76: 37 f9 ff 07  	lui	s2, 0x7fff
   16f7a: 12 19        	slli	s2, s2, 0x24
   16f7c: 7d 19        	addi	s2, s2, -0x1
   16f7e: 7d 56        	li	a2, -0x1
   16f80: ca 86        	mv	a3, s2
   16f82: 4e 85        	mv	a0, s3
   16f84: a6 85        	mv	a1, s1
   16f86: 22 f0        	sd	s0, 0x20(sp)
   16f88: 05 44        	li	s0, 0x1
   16f8a: ef 30 d0 5c  	jal	0x1ad56 <__unordtf2>
   16f8e: 01 cd        	beqz	a0, 0x16fa6 <_ldcheck+0x52>
   16f90: a2 70        	ld	ra, 0x28(sp)
   16f92: 13 45 14 00  	xori	a0, s0, 0x1
   16f96: 02 74        	ld	s0, 0x20(sp)
   16f98: 06 05        	slli	a0, a0, 0x1
   16f9a: 42 69        	ld	s2, 0x10(sp)
   16f9c: e2 64        	ld	s1, 0x18(sp)
   16f9e: a2 69        	ld	s3, 0x8(sp)
   16fa0: 09 89        	andi	a0, a0, 0x2
   16fa2: 45 61        	addi	sp, sp, 0x30
   16fa4: 82 80        	ret
   16fa6: 7d 56        	li	a2, -0x1
   16fa8: ca 86        	mv	a3, s2
   16faa: 4e 85        	mv	a0, s3
   16fac: a6 85        	mv	a1, s1
   16fae: ef 20 30 74  	jal	0x19ef0 <__lttf2>
   16fb2: 13 24 15 00  	slti	s0, a0, 0x1
   16fb6: e9 bf        	j	0x16f90 <_ldcheck+0x3c>
   16fb8: a2 70        	ld	ra, 0x28(sp)
   16fba: e2 64        	ld	s1, 0x18(sp)
   16fbc: a2 69        	ld	s3, 0x8(sp)
   16fbe: 05 45        	li	a0, 0x1
   16fc0: 45 61        	addi	sp, sp, 0x30
   16fc2: 82 80        	ret

0000000000016fc4 <__gdtoa>:
   16fc4: 11 71        	addi	sp, sp, -0x100
   16fc6: 66 f5        	sd	s9, 0xa8(sp)
   16fc8: 83 2c 07 00  	lw	s9, 0x0(a4)
   16fcc: a6 f5        	sd	s1, 0xe8(sp)
   16fce: d2 e9        	sd	s4, 0xd0(sp)
   16fd0: 13 f3 fc fc  	andi	t1, s9, -0x31
   16fd4: 86 fd        	sd	ra, 0xf8(sp)
   16fd6: 23 20 67 00  	sw	t1, 0x0(a4)
   16fda: 3a 8a        	mv	s4, a4
   16fdc: 12 67        	ld	a4, 0x100(sp)
   16fde: 13 f3 fc 00  	andi	t1, s9, 0xf
   16fe2: 0d 4e        	li	t3, 0x3
   16fe4: 3a e4        	sd	a4, 0x8(sp)
   16fe6: 32 e8        	sd	a2, 0x10(sp)
   16fe8: c6 84        	mv	s1, a7
   16fea: 63 07 c3 53  	beq	t1, t3, 0x17518 <__gdtoa+0x554>
   16fee: ce ed        	sd	s3, 0xd8(sp)
   16ff0: 93 f9 cc 00  	andi	s3, s9, 0xc
   16ff4: 63 90 09 4c  	bnez	s3, 0x174b4 <__gdtoa+0x4f0>
   16ff8: a2 f9        	sd	s0, 0xf0(sp)
   16ffa: 2a 84        	mv	s0, a0
   16ffc: 63 0a 03 4e  	beqz	t1, 0x174f0 <__gdtoa+0x52c>
   17000: 6a f1        	sd	s10, 0xa0(sp)
   17002: 03 ad 05 00  	lw	s10, 0x0(a1)
   17006: ca f1        	sd	s2, 0xe0(sp)
   17008: da e1        	sd	s6, 0xc0(sp)
   1700a: 5e fd        	sd	s7, 0xb8(sp)
   1700c: 6e ed        	sd	s11, 0x98(sp)
   1700e: 62 f9        	sd	s8, 0xb0(sp)
   17010: b6 8d        	mv	s11, a3
   17012: 93 06 00 02  	li	a3, 0x20
   17016: 2e 8b        	mv	s6, a1
   17018: 3e 89        	mv	s2, a5
   1701a: c2 8b        	mv	s7, a6
   1701c: 81 45        	li	a1, 0x0
   1701e: 93 07 00 02  	li	a5, 0x20
   17022: 63 d7 a6 01  	bge	a3, s10, 0x17030 <__gdtoa+0x6c>
   17026: 9b 97 17 00  	slliw	a5, a5, 0x1
   1702a: 85 25        	addiw	a1, a1, 0x1
   1702c: e3 cd a7 ff  	blt	a5, s10, 0x17026 <__gdtoa+0x62>
   17030: 22 85        	mv	a0, s0
   17032: ef 10 00 32  	jal	0x18352 <_Balloc>
   17036: 2a 8c        	mv	s8, a0
   17038: 63 0a 05 6c  	beqz	a0, 0x1770c <__gdtoa+0x748>
   1703c: 1b 05 fd ff  	addiw	a0, s10, -0x1
   17040: 1b 55 55 40  	sraiw	a0, a0, 0x5
   17044: 93 15 25 00  	slli	a1, a0, 0x2
   17048: d6 e5        	sd	s5, 0xc8(sp)
   1704a: ee 95        	add	a1, a1, s11
   1704c: 93 06 8c 01  	addi	a3, s8, 0x18
   17050: ee 87        	mv	a5, s11
   17052: 98 43        	lw	a4, 0x0(a5)
   17054: 91 07        	addi	a5, a5, 0x4
   17056: 91 06        	addi	a3, a3, 0x4
   17058: 23 ae e6 fe  	sw	a4, -0x4(a3)
   1705c: e3 fb f5 fe  	bgeu	a1, a5, 0x17052 <__gdtoa+0x8e>
   17060: 85 05        	addi	a1, a1, 0x1
   17062: 93 87 1d 00  	addi	a5, s11, 0x1
   17066: 91 46        	li	a3, 0x4
   17068: 63 e5 f5 00  	bltu	a1, a5, 0x17072 <__gdtoa+0xae>
   1706c: 0a 05        	slli	a0, a0, 0x2
   1706e: 93 06 45 00  	addi	a3, a0, 0x4
   17072: 93 d7 26 40  	srai	a5, a3, 0x2
   17076: 81 27        	sext.w	a5, a5
   17078: e2 96        	add	a3, a3, s8
   1707a: 21 a0        	j	0x17082 <__gdtoa+0xbe>
   1707c: f1 16        	addi	a3, a3, -0x4
   1707e: 63 81 07 4e  	beqz	a5, 0x17560 <__gdtoa+0x59c>
   17082: d8 4a        	lw	a4, 0x14(a3)
   17084: be 8a        	mv	s5, a5
   17086: fd 37        	addiw	a5, a5, -0x1
   17088: 75 db        	beqz	a4, 0x1707c <__gdtoa+0xb8>
   1708a: 91 07        	addi	a5, a5, 0x4
   1708c: 8a 07        	slli	a5, a5, 0x2
   1708e: e2 97        	add	a5, a5, s8
   17090: 88 47        	lw	a0, 0x8(a5)
   17092: 23 2a 5c 01  	sw	s5, 0x14(s8)
   17096: 9b 9a 5a 00  	slliw	s5, s5, 0x5
   1709a: ef 10 a0 4f  	jal	0x18594 <__hi0bits>
   1709e: bb 87 aa 40  	subw	a5, s5, a0
   170a2: 62 85        	mv	a0, s8
   170a4: 3e ec        	sd	a5, 0x18(sp)
   170a6: ef 10 a0 22  	jal	0x182d0 <__trailz_D2A>
   170aa: 2a c7        	sw	a0, 0x8c(sp)
   170ac: 42 66        	ld	a2, 0x10(sp)
   170ae: e2 67        	ld	a5, 0x18(sp)
   170b0: 63 1c 05 4c  	bnez	a0, 0x17588 <__gdtoa+0x5c4>
   170b4: 83 26 4c 01  	lw	a3, 0x14(s8)
   170b8: 63 81 06 42  	beqz	a3, 0x174da <__gdtoa+0x516>
   170bc: 6c 01        	addi	a1, sp, 0x8c
   170be: 62 85        	mv	a0, s8
   170c0: 3e f0        	sd	a5, 0x20(sp)
   170c2: 32 ec        	sd	a2, 0x18(sp)
   170c4: ef 10 70 43  	jal	0x18cfa <__b2d>
   170c8: 53 05 05 e2  	fmv.x.d	a0, fa0
   170cc: 37 03 f0 3f  	lui	t1, 0x3ff00
   170d0: fd 56        	li	a3, -0x1
   170d2: 93 15 c5 00  	slli	a1, a0, 0xc
   170d6: b1 91        	srli	a1, a1, 0x2c
   170d8: b3 e8 65 00  	or	a7, a1, t1
   170dc: 81 92        	srli	a3, a3, 0x20
   170de: 82 18        	slli	a7, a7, 0x20
   170e0: e9 8e        	and	a3, a3, a0
   170e2: b3 e6 16 01  	or	a3, a3, a7
   170e6: 07 b7 81 f1  	fld	fa4, -0xe8(gp)
   170ea: d3 87 06 f2  	fmv.d.x	fa5, a3
   170ee: 87 b6 01 13  	fld	fa3, 0x130(gp)
   170f2: 53 f7 e7 0a  	fsub.d	fa4, fa5, fa4
   170f6: 87 b7 81 13  	fld	fa5, 0x138(gp)
   170fa: 62 66        	ld	a2, 0x18(sp)
   170fc: 82 77        	ld	a5, 0x20(sp)
   170fe: b3 ee 65 00  	or	t4, a1, t1
   17102: 43 77 d7 7a  	fmadd.d	fa4, fa4, fa3, fa5
   17106: bb 0a f6 00  	addw	s5, a2, a5
   1710a: 9b 88 fa ff  	addiw	a7, s5, -0x1
   1710e: d3 87 08 d2  	fcvt.d.w	fa5, a7
   17112: 87 b6 01 14  	fld	fa3, 0x140(gp)
   17116: 1b 85 08 00  	sext.w	a0, a7
   1711a: c3 f7 d7 72  	fmadd.d	fa5, fa5, fa3, fa4
   1711e: 63 55 05 00  	bgez	a0, 0x17128 <__gdtoa+0x164>
   17122: 05 45        	li	a0, 0x1
   17124: 3b 05 55 41  	subw	a0, a0, s5
   17128: 1b 03 b5 bc  	addiw	t1, a0, -0x435
   1712c: 63 58 60 00  	blez	t1, 0x1713c <__gdtoa+0x178>
   17130: d3 06 03 d2  	fcvt.d.w	fa3, t1
   17134: 07 b7 81 14  	fld	fa4, 0x148(gp)
   17138: c3 f7 e6 7a  	fmadd.d	fa5, fa3, fa4, fa5
   1713c: 53 07 00 f2  	fmv.d.x	fa4, zero
   17140: 53 95 07 c2  	fcvt.w.d	a0, fa5, rtz
   17144: 53 9e e7 a2  	flt.d	t3, fa5, fa4
   17148: 1b 03 05 00  	sext.w	t1, a0
   1714c: 63 1a 0e 6e  	bnez	t3, 0x17840 <__gdtoa+0x87c>
   17150: 9b 95 48 01  	slliw	a1, a7, 0x14
   17154: bb 85 d5 01  	addw	a1, a1, t4
   17158: 82 16        	slli	a3, a3, 0x20
   1715a: 3b 8f 17 41  	subw	t5, a5, a7
   1715e: 82 15        	slli	a1, a1, 0x20
   17160: 81 92        	srli	a3, a3, 0x20
   17162: 1b 05 03 00  	sext.w	a0, t1
   17166: d9 4e        	li	t4, 0x16
   17168: fa 88        	mv	a7, t5
   1716a: cd 8e        	or	a3, a3, a1
   1716c: 1b 0e ff ff  	addiw	t3, t5, -0x1
   17170: 63 eb ae 3e  	bltu	t4, a0, 0x17566 <__gdtoa+0x5a2>
   17174: f1 65        	lui	a1, 0x1c
   17176: 93 85 85 95  	addi	a1, a1, -0x6a8
   1717a: 13 15 33 00  	slli	a0, t1, 0x3
   1717e: aa 95        	add	a1, a1, a0
   17180: 9c 21        	fld	fa5, 0x0(a1)
   17182: 53 87 06 f2  	fmv.d.x	fa4, a3
   17186: d3 15 f7 a2  	flt.d	a1, fa4, fa5
   1718a: 63 90 05 5c  	bnez	a1, 0x1774a <__gdtoa+0x786>
   1718e: 82 f8        	sd	zero, 0x70(sp)
   17190: 02 ec        	sd	zero, 0x18(sp)
   17192: 63 47 e0 01  	bgtz	t5, 0x171a0 <__gdtoa+0x1dc>
   17196: 85 45        	li	a1, 0x1
   17198: 3b 87 e5 41  	subw	a4, a1, t5
   1719c: 3a ec        	sd	a4, 0x18(sp)
   1719e: 01 4e        	li	t3, 0x0
   171a0: 3b 0e c3 01  	addw	t3, t1, t3
   171a4: 1a fc        	sd	t1, 0x38(sp)
   171a6: 02 f8        	sd	zero, 0x30(sp)
   171a8: a5 45        	li	a1, 0x9
   171aa: 63 ea 25 3f  	bltu	a1, s2, 0x1759e <__gdtoa+0x5da>
   171ae: 95 45        	li	a1, 0x5
   171b0: 63 c0 25 59  	blt	a1, s2, 0x17730 <__gdtoa+0x76c>
   171b4: 9b 8a da 3f  	addiw	s5, s5, 0x3fd
   171b8: 11 45        	li	a0, 0x4
   171ba: 93 ba 8a 7f  	sltiu	s5, s5, 0x7f8
   171be: e3 04 a9 22  	beq	s2, a0, 0x17be6 <__gdtoa+0xc22>
   171c2: e3 0e b9 20  	beq	s2, a1, 0x17bde <__gdtoa+0xc1a>
   171c6: 89 45        	li	a1, 0x2
   171c8: e3 02 b9 22  	beq	s2, a1, 0x17bec <__gdtoa+0xc28>
   171cc: 8d 45        	li	a1, 0x3
   171ce: 82 e0        	sd	zero, 0x40(sp)
   171d0: 63 1c b9 3c  	bne	s2, a1, 0x175a8 <__gdtoa+0x5e4>
   171d4: 62 77        	ld	a4, 0x38(sp)
   171d6: bb 05 77 01  	addw	a1, a4, s7
   171da: 1b 87 15 00  	addiw	a4, a1, 0x1
   171de: 3a f4        	sd	a4, 0x28(sp)
   171e0: ae fc        	sd	a1, 0x78(sp)
   171e2: e3 53 e0 04  	blez	a4, 0x17a28 <__gdtoa+0xa64>
   171e6: ba 88        	mv	a7, a4
   171e8: ba 85        	mv	a1, a4
   171ea: 22 85        	mv	a0, s0
   171ec: b6 f4        	sd	a3, 0x68(sp)
   171ee: be f0        	sd	a5, 0x60(sp)
   171f0: f2 ec        	sd	t3, 0x58(sp)
   171f2: 9a e8        	sd	t1, 0x50(sp)
   171f4: b2 e4        	sd	a2, 0x48(sp)
   171f6: 46 c7        	sw	a7, 0x8c(sp)
   171f8: ef 00 d0 60  	jal	0x18004 <__rv_alloc_D2A>
   171fc: 2a 88        	mv	a6, a0
   171fe: 63 07 05 34  	beqz	a0, 0x1754c <__gdtoa+0x588>
   17202: 03 27 cb 00  	lw	a4, 0xc(s6)
   17206: 26 66        	ld	a2, 0x48(sp)
   17208: 46 63        	ld	t1, 0x50(sp)
   1720a: 7d 37        	addiw	a4, a4, -0x1
   1720c: 3a f0        	sd	a4, 0x20(sp)
   1720e: 66 6e        	ld	t3, 0x58(sp)
   17210: 86 77        	ld	a5, 0x60(sp)
   17212: a6 76        	ld	a3, 0x68(sp)
   17214: 63 00 07 3c  	beqz	a4, 0x175d4 <__gdtoa+0x610>
   17218: 63 49 07 50  	bltz	a4, 0x1772a <__gdtoa+0x766>
   1721c: 93 fc 0c 10  	andi	s9, s9, 0x100
   17220: 63 95 0c 3a  	bnez	s9, 0x175ca <__gdtoa+0x606>
   17224: 63 46 06 00  	bltz	a2, 0x17230 <__gdtoa+0x26c>
   17228: 62 77        	ld	a4, 0x38(sp)
   1722a: b9 45        	li	a1, 0xe
   1722c: 63 d2 e5 52  	bge	a1, a4, 0x17750 <__gdtoa+0x78c>
   17230: 06 67        	ld	a4, 0x40(sp)
   17232: 63 08 07 4e  	beqz	a4, 0x17722 <__gdtoa+0x75e>
   17236: 3b 0d fd 40  	subw	s10, s10, a5
   1723a: 83 26 4b 00  	lw	a3, 0x4(s6)
   1723e: 9b 05 1d 00  	addiw	a1, s10, 0x1
   17242: 2e c7        	sw	a1, 0x8c(sp)
   17244: 3b 0d a6 41  	subw	s10, a2, s10
   17248: e3 53 dd 02  	bge	s10, a3, 0x17a6e <__gdtoa+0xaaa>
   1724c: 9b 05 d9 ff  	addiw	a1, s2, -0x3
   17250: f5 99        	andi	a1, a1, -0x3
   17252: 81 25        	sext.w	a1, a1
   17254: 63 8d 05 74  	beqz	a1, 0x179ae <__gdtoa+0x9ea>
   17258: bb 06 d6 40  	subw	a3, a2, a3
   1725c: 9b 85 16 00  	addiw	a1, a3, 0x1
   17260: 2e c7        	sw	a1, 0x8c(sp)
   17262: 05 46        	li	a2, 0x1
   17264: ae 86        	mv	a3, a1
   17266: 63 58 26 01  	bge	a2, s2, 0x17276 <__gdtoa+0x2b2>
   1726a: 22 77        	ld	a4, 0x28(sp)
   1726c: 63 55 e0 00  	blez	a4, 0x17276 <__gdtoa+0x2b2>
   17270: 22 77        	ld	a4, 0x28(sp)
   17272: e3 4c b7 44  	blt	a4, a1, 0x17eca <__gdtoa+0xf06>
   17276: 62 67        	ld	a4, 0x18(sp)
   17278: 42 7d        	ld	s10, 0x30(sp)
   1727a: 3b 8e c6 01  	addw	t3, a3, t3
   1727e: ba 8c        	mv	s9, a4
   17280: 35 9f        	addw	a4, a4, a3
   17282: 3a ec        	sd	a4, 0x18(sp)
   17284: 85 45        	li	a1, 0x1
   17286: 22 85        	mv	a0, s0
   17288: c2 f0        	sd	a6, 0x60(sp)
   1728a: be ec        	sd	a5, 0x58(sp)
   1728c: f2 e8        	sd	t3, 0x50(sp)
   1728e: 9a e4        	sd	t1, 0x48(sp)
   17290: ef 10 a0 3f  	jal	0x1868a <__i2b>
   17294: 26 63        	ld	t1, 0x48(sp)
   17296: 46 6e        	ld	t3, 0x50(sp)
   17298: e6 67        	ld	a5, 0x58(sp)
   1729a: 06 78        	ld	a6, 0x60(sp)
   1729c: aa 8a        	mv	s5, a0
   1729e: 63 07 05 2a  	beqz	a0, 0x1754c <__gdtoa+0x588>
   172a2: 63 80 0c 02  	beqz	s9, 0x172c2 <__gdtoa+0x2fe>
   172a6: 63 5e c0 01  	blez	t3, 0x172c2 <__gdtoa+0x2fe>
   172aa: e6 86        	mv	a3, s9
   172ac: 63 53 9e 01  	bge	t3, s9, 0x172b2 <__gdtoa+0x2ee>
   172b0: f2 86        	mv	a3, t3
   172b2: 62 67        	ld	a4, 0x18(sp)
   172b4: 36 c7        	sw	a3, 0x8c(sp)
   172b6: bb 8c dc 40  	subw	s9, s9, a3
   172ba: 15 9f        	subw	a4, a4, a3
   172bc: 3a ec        	sd	a4, 0x18(sp)
   172be: 3b 0e de 40  	subw	t3, t3, a3
   172c2: 42 77        	ld	a4, 0x30(sp)
   172c4: 0d c7        	beqz	a4, 0x172ee <__gdtoa+0x32a>
   172c6: 06 67        	ld	a4, 0x40(sp)
   172c8: 19 c3        	beqz	a4, 0x172ce <__gdtoa+0x30a>
   172ca: e3 18 0d 06  	bnez	s10, 0x17b3a <__gdtoa+0xb76>
   172ce: 42 76        	ld	a2, 0x30(sp)
   172d0: e2 85        	mv	a1, s8
   172d2: 22 85        	mv	a0, s0
   172d4: c2 f0        	sd	a6, 0x60(sp)
   172d6: be ec        	sd	a5, 0x58(sp)
   172d8: f2 e8        	sd	t3, 0x50(sp)
   172da: 9a e4        	sd	t1, 0x48(sp)
   172dc: ef 10 e0 5b  	jal	0x1889a <__pow5mult>
   172e0: 26 63        	ld	t1, 0x48(sp)
   172e2: 46 6e        	ld	t3, 0x50(sp)
   172e4: e6 67        	ld	a5, 0x58(sp)
   172e6: 06 78        	ld	a6, 0x60(sp)
   172e8: 2a 8c        	mv	s8, a0
   172ea: 63 01 05 26  	beqz	a0, 0x1754c <__gdtoa+0x588>
   172ee: 85 45        	li	a1, 0x1
   172f0: 22 85        	mv	a0, s0
   172f2: c2 ec        	sd	a6, 0x58(sp)
   172f4: be e8        	sd	a5, 0x50(sp)
   172f6: f2 e4        	sd	t3, 0x48(sp)
   172f8: 1a f8        	sd	t1, 0x30(sp)
   172fa: ef 10 00 39  	jal	0x1868a <__i2b>
   172fe: 2a 8d        	mv	s10, a0
   17300: 63 06 05 24  	beqz	a0, 0x1754c <__gdtoa+0x588>
   17304: 42 73        	ld	t1, 0x30(sp)
   17306: 26 6e        	ld	t3, 0x48(sp)
   17308: c6 67        	ld	a5, 0x50(sp)
   1730a: 66 68        	ld	a6, 0x58(sp)
   1730c: 63 12 03 72  	bnez	t1, 0x17a30 <__gdtoa+0xa6c>
   17310: 85 46        	li	a3, 0x1
   17312: 63 d9 26 51  	bge	a3, s2, 0x17824 <__gdtoa+0x860>
   17316: 7d 45        	li	a0, 0x1f
   17318: e2 67        	ld	a5, 0x18(sp)
   1731a: bb 09 c5 41  	subw	s3, a0, t3
   1731e: f1 39        	addiw	s3, s3, -0x4
   17320: 93 f9 f9 01  	andi	s3, s3, 0x1f
   17324: 3b 86 f9 00  	addw	a2, s3, a5
   17328: 4e c7        	sw	s3, 0x8c(sp)
   1732a: ce 87        	mv	a5, s3
   1732c: 63 49 c0 5a  	bgtz	a2, 0x178de <__gdtoa+0x91a>
   17330: 3b 06 fe 00  	addw	a2, t3, a5
   17334: 63 41 c0 20  	bgtz	a2, 0x17536 <__gdtoa+0x572>
   17338: c6 77        	ld	a5, 0x70(sp)
   1733a: 63 91 07 5c  	bnez	a5, 0x178fc <__gdtoa+0x938>
   1733e: a2 77        	ld	a5, 0x28(sp)
   17340: 63 57 f0 68  	blez	a5, 0x179ce <__gdtoa+0xa0a>
   17344: 86 67        	ld	a5, 0x40(sp)
   17346: 63 89 07 5e  	beqz	a5, 0x17938 <__gdtoa+0x974>
   1734a: 3b 86 99 01  	addw	a2, s3, s9
   1734e: e3 47 c0 06  	bgtz	a2, 0x17bbc <__gdtoa+0xbf8>
   17352: 56 ec        	sd	s5, 0x18(sp)
   17354: e3 1d 03 0a  	bnez	t1, 0x17c0e <__gdtoa+0xc4a>
   17358: 6e e8        	sd	s11, 0x10(sp)
   1735a: a6 e0        	sd	s1, 0x40(sp)
   1735c: a2 7d        	ld	s11, 0x28(sp)
   1735e: e2 64        	ld	s1, 0x18(sp)
   17360: c2 8b        	mv	s7, a6
   17362: 85 46        	li	a3, 0x1
   17364: 42 f8        	sd	a6, 0x30(sp)
   17366: 52 f4        	sd	s4, 0x28(sp)
   17368: 8d a8        	j	0x173da <__gdtoa+0x416>
   1736a: 22 85        	mv	a0, s0
   1736c: ef 10 a0 04  	jal	0x183b6 <_Bfree>
   17370: e3 44 0b 12  	bltz	s6, 0x17c98 <__gdtoa+0xcd4>
   17374: 33 6b 69 01  	or	s6, s2, s6
   17378: 01 2b        	sext.w	s6, s6
   1737a: 63 17 0b 00  	bnez	s6, 0x17388 <__gdtoa+0x3c4>
   1737e: c2 67        	ld	a5, 0x10(sp)
   17380: 9c 43        	lw	a5, 0x0(a5)
   17382: 85 8b        	andi	a5, a5, 0x1
   17384: e3 8a 07 10  	beqz	a5, 0x17c98 <__gdtoa+0xcd4>
   17388: 82 77        	ld	a5, 0x20(sp)
   1738a: 09 47        	li	a4, 0x2
   1738c: e3 9c e7 2a  	bne	a5, a4, 0x17e44 <__gdtoa+0xe80>
   17390: 23 80 4b 01  	sb	s4, 0x0(s7)
   17394: ba 47        	lw	a5, 0x8c(sp)
   17396: 85 0b        	addi	s7, s7, 0x1
   17398: e3 80 b7 23  	beq	a5, s11, 0x17db8 <__gdtoa+0xdf4>
   1739c: e2 85        	mv	a1, s8
   1739e: 81 46        	li	a3, 0x0
   173a0: 29 46        	li	a2, 0xa
   173a2: 22 85        	mv	a0, s0
   173a4: ef 10 40 02  	jal	0x183c8 <__multadd>
   173a8: 2a 8c        	mv	s8, a0
   173aa: 63 01 05 1a  	beqz	a0, 0x1754c <__gdtoa+0x588>
   173ae: 81 46        	li	a3, 0x0
   173b0: 29 46        	li	a2, 0xa
   173b2: d6 85        	mv	a1, s5
   173b4: 22 85        	mv	a0, s0
   173b6: 63 8b 9a 4a  	beq	s5, s1, 0x1786c <__gdtoa+0x8a8>
   173ba: ef 10 e0 00  	jal	0x183c8 <__multadd>
   173be: aa 8a        	mv	s5, a0
   173c0: 63 06 05 18  	beqz	a0, 0x1754c <__gdtoa+0x588>
   173c4: a6 85        	mv	a1, s1
   173c6: 81 46        	li	a3, 0x0
   173c8: 29 46        	li	a2, 0xa
   173ca: 22 85        	mv	a0, s0
   173cc: ef 00 d0 7f  	jal	0x183c8 <__multadd>
   173d0: aa 84        	mv	s1, a0
   173d2: 63 0d 05 16  	beqz	a0, 0x1754c <__gdtoa+0x588>
   173d6: ba 46        	lw	a3, 0x8c(sp)
   173d8: 85 26        	addiw	a3, a3, 0x1
   173da: ea 85        	mv	a1, s10
   173dc: 62 85        	mv	a0, s8
   173de: 36 c7        	sw	a3, 0x8c(sp)
   173e0: ef 00 10 4e  	jal	0x180c0 <__quorem_D2A>
   173e4: 1b 0a 05 03  	addiw	s4, a0, 0x30
   173e8: d6 85        	mv	a1, s5
   173ea: aa 8c        	mv	s9, a0
   173ec: 62 85        	mv	a0, s8
   173ee: ef 10 40 6a  	jal	0x18a92 <__mcmp>
   173f2: ea 85        	mv	a1, s10
   173f4: 2a 8b        	mv	s6, a0
   173f6: 26 86        	mv	a2, s1
   173f8: 22 85        	mv	a0, s0
   173fa: ef 10 00 6d  	jal	0x18aca <__mdiff>
   173fe: d2 89        	mv	s3, s4
   17400: aa 85        	mv	a1, a0
   17402: 63 05 05 14  	beqz	a0, 0x1754c <__gdtoa+0x588>
   17406: 1c 49        	lw	a5, 0x10(a0)
   17408: ad f3        	bnez	a5, 0x1736a <__gdtoa+0x3a6>
   1740a: 2a ec        	sd	a0, 0x18(sp)
   1740c: 62 85        	mv	a0, s8
   1740e: ef 10 40 68  	jal	0x18a92 <__mcmp>
   17412: e2 65        	ld	a1, 0x18(sp)
   17414: aa 86        	mv	a3, a0
   17416: 22 85        	mv	a0, s0
   17418: 36 ec        	sd	a3, 0x18(sp)
   1741a: ef 00 d0 79  	jal	0x183b6 <_Bfree>
   1741e: e2 66        	ld	a3, 0x18(sp)
   17420: 33 67 d9 00  	or	a4, s2, a3
   17424: 01 27        	sext.w	a4, a4
   17426: e3 18 07 38  	bnez	a4, 0x17fb6 <__gdtoa+0xff2>
   1742a: c2 67        	ld	a5, 0x10(sp)
   1742c: 9c 43        	lw	a5, 0x0(a5)
   1742e: 85 8b        	andi	a5, a5, 0x1
   17430: 63 95 07 44  	bnez	a5, 0x1787a <__gdtoa+0x8b6>
   17434: 82 77        	ld	a5, 0x20(sp)
   17436: e3 8c 07 2a  	beqz	a5, 0x17eee <__gdtoa+0xf2a>
   1743a: e3 4b 60 f5  	bgtz	s6, 0x17390 <__gdtoa+0x3cc>
   1743e: 03 26 4c 01  	lw	a2, 0x14(s8)
   17442: 26 ec        	sd	s1, 0x18(sp)
   17444: 85 46        	li	a3, 0x1
   17446: 52 83        	mv	t1, s4
   17448: 42 78        	ld	a6, 0x30(sp)
   1744a: 22 7a        	ld	s4, 0x28(sp)
   1744c: 86 64        	ld	s1, 0x40(sp)
   1744e: ba 89        	mv	s3, a4
   17450: e3 d0 c6 34  	bge	a3, a2, 0x17f90 <__gdtoa+0xfcc>
   17454: 82 77        	ld	a5, 0x20(sp)
   17456: 89 46        	li	a3, 0x2
   17458: e3 8f d7 30  	beq	a5, a3, 0x17f76 <__gdtoa+0xfb2>
   1745c: 62 6b        	ld	s6, 0x18(sp)
   1745e: 9a 89        	mv	s3, t1
   17460: c2 8d        	mv	s11, a6
   17462: 29 a8        	j	0x1747c <__gdtoa+0x4b8>
   17464: ef 00 50 76  	jal	0x183c8 <__multadd>
   17468: ea 85        	mv	a1, s10
   1746a: 2a 8c        	mv	s8, a0
   1746c: 63 00 05 0e  	beqz	a0, 0x1754c <__gdtoa+0x588>
   17470: ef 00 10 45  	jal	0x180c0 <__quorem_D2A>
   17474: 9b 09 05 03  	addiw	s3, a0, 0x30
   17478: e6 8b        	mv	s7, s9
   1747a: 4a 8b        	mv	s6, s2
   1747c: da 85        	mv	a1, s6
   1747e: 6a 85        	mv	a0, s10
   17480: ef 10 20 61  	jal	0x18a92 <__mcmp>
   17484: aa 87        	mv	a5, a0
   17486: 81 46        	li	a3, 0x0
   17488: 29 46        	li	a2, 0xa
   1748a: da 85        	mv	a1, s6
   1748c: 22 85        	mv	a0, s0
   1748e: 93 8c 1b 00  	addi	s9, s7, 0x1
   17492: e3 57 f0 2c  	blez	a5, 0x17f60 <__gdtoa+0xf9c>
   17496: a3 8f 3c ff  	sb	s3, -0x1(s9)
   1749a: ef 00 f0 72  	jal	0x183c8 <__multadd>
   1749e: 2a 89        	mv	s2, a0
   174a0: 81 46        	li	a3, 0x0
   174a2: 29 46        	li	a2, 0xa
   174a4: e2 85        	mv	a1, s8
   174a6: 22 85        	mv	a0, s0
   174a8: 63 02 09 0a  	beqz	s2, 0x1754c <__gdtoa+0x588>
   174ac: e3 9c 6a fb  	bne	s5, s6, 0x17464 <__gdtoa+0x4a0>
   174b0: ca 8a        	mv	s5, s2
   174b2: 4d bf        	j	0x17464 <__gdtoa+0x4a0>
   174b4: 91 47        	li	a5, 0x4
   174b6: 63 13 f3 0a  	bne	t1, a5, 0x1755c <__gdtoa+0x598>
   174ba: 22 66        	ld	a2, 0x8(sp)
   174bc: ee 69        	ld	s3, 0xd8(sp)
   174be: ee 70        	ld	ra, 0xf8(sp)
   174c0: ae 74        	ld	s1, 0xe8(sp)
   174c2: 4e 6a        	ld	s4, 0xd0(sp)
   174c4: aa 7c        	ld	s9, 0xa8(sp)
   174c6: e1 77        	lui	a5, 0xffff8
   174c8: 23 a0 f8 00  	sw	a5, 0x0(a7)
   174cc: ed 65        	lui	a1, 0x1b
   174ce: 8d 46        	li	a3, 0x3
   174d0: 93 85 85 1b  	addi	a1, a1, 0x1b8
   174d4: 11 61        	addi	sp, sp, 0x100
   174d6: 6f 00 10 36  	j	0x18036 <__nrv_alloc_D2A>
   174da: e2 85        	mv	a1, s8
   174dc: 22 85        	mv	a0, s0
   174de: ef 00 90 6d  	jal	0x183b6 <_Bfree>
   174e2: 0e 79        	ld	s2, 0xe0(sp)
   174e4: ae 6a        	ld	s5, 0xc8(sp)
   174e6: 0e 6b        	ld	s6, 0xc0(sp)
   174e8: ea 7b        	ld	s7, 0xb8(sp)
   174ea: 4a 7c        	ld	s8, 0xb0(sp)
   174ec: 0a 7d        	ld	s10, 0xa0(sp)
   174ee: ea 6d        	ld	s11, 0x98(sp)
   174f0: 22 66        	ld	a2, 0x8(sp)
   174f2: 85 47        	li	a5, 0x1
   174f4: ed 65        	lui	a1, 0x1b
   174f6: 22 85        	mv	a0, s0
   174f8: 9c c0        	sw	a5, 0x0(s1)
   174fa: 85 46        	li	a3, 0x1
   174fc: 93 85 85 18  	addi	a1, a1, 0x188
   17500: ef 00 70 33  	jal	0x18036 <__nrv_alloc_D2A>
   17504: 4e 74        	ld	s0, 0xf0(sp)
   17506: 2a 88        	mv	a6, a0
   17508: ee 70        	ld	ra, 0xf8(sp)
   1750a: ee 69        	ld	s3, 0xd8(sp)
   1750c: ae 74        	ld	s1, 0xe8(sp)
   1750e: 4e 6a        	ld	s4, 0xd0(sp)
   17510: aa 7c        	ld	s9, 0xa8(sp)
   17512: 42 85        	mv	a0, a6
   17514: 11 61        	addi	sp, sp, 0x100
   17516: 82 80        	ret
   17518: 22 66        	ld	a2, 0x8(sp)
   1751a: ee 70        	ld	ra, 0xf8(sp)
   1751c: ae 74        	ld	s1, 0xe8(sp)
   1751e: 4e 6a        	ld	s4, 0xd0(sp)
   17520: aa 7c        	ld	s9, 0xa8(sp)
   17522: e1 77        	lui	a5, 0xffff8
   17524: 23 a0 f8 00  	sw	a5, 0x0(a7)
   17528: ed 65        	lui	a1, 0x1b
   1752a: a1 46        	li	a3, 0x8
   1752c: 93 85 85 1a  	addi	a1, a1, 0x1a8
   17530: 11 61        	addi	sp, sp, 0x100
   17532: 6f 00 50 30  	j	0x18036 <__nrv_alloc_D2A>
   17536: ea 85        	mv	a1, s10
   17538: 22 85        	mv	a0, s0
   1753a: 42 ec        	sd	a6, 0x18(sp)
   1753c: 1a e8        	sd	t1, 0x10(sp)
   1753e: ef 10 00 43  	jal	0x1896e <__lshift>
   17542: 42 63        	ld	t1, 0x10(sp)
   17544: 62 68        	ld	a6, 0x18(sp)
   17546: 2a 8d        	mv	s10, a0
   17548: e3 18 05 de  	bnez	a0, 0x17338 <__gdtoa+0x374>
   1754c: 4e 74        	ld	s0, 0xf0(sp)
   1754e: 0e 79        	ld	s2, 0xe0(sp)
   17550: ae 6a        	ld	s5, 0xc8(sp)
   17552: 0e 6b        	ld	s6, 0xc0(sp)
   17554: ea 7b        	ld	s7, 0xb8(sp)
   17556: 4a 7c        	ld	s8, 0xb0(sp)
   17558: 0a 7d        	ld	s10, 0xa0(sp)
   1755a: ea 6d        	ld	s11, 0x98(sp)
   1755c: 01 48        	li	a6, 0x0
   1755e: 6d b7        	j	0x17508 <__gdtoa+0x544>
   17560: 23 2a 0c 00  	sw	zero, 0x14(s8)
   17564: 3d be        	j	0x170a2 <__gdtoa+0xde>
   17566: 05 47        	li	a4, 0x1
   17568: ba f8        	sd	a4, 0x70(sp)
   1756a: 02 ec        	sd	zero, 0x18(sp)
   1756c: 63 43 0e 1a  	bltz	t3, 0x17712 <__gdtoa+0x74e>
   17570: e3 58 03 c2  	bgez	t1, 0x171a0 <__gdtoa+0x1dc>
   17574: 62 67        	ld	a4, 0x18(sp)
   17576: 1a fc        	sd	t1, 0x38(sp)
   17578: 3b 07 67 40  	subw	a4, a4, t1
   1757c: 3a ec        	sd	a4, 0x18(sp)
   1757e: 3b 07 60 40  	negw	a4, t1
   17582: 3a f8        	sd	a4, 0x30(sp)
   17584: 01 43        	li	t1, 0x0
   17586: 0d b1        	j	0x171a8 <__gdtoa+0x1e4>
   17588: aa 85        	mv	a1, a0
   1758a: 62 85        	mv	a0, s8
   1758c: ef 00 50 4a  	jal	0x18230 <__rshift_D2A>
   17590: ba 46        	lw	a3, 0x8c(sp)
   17592: c2 67        	ld	a5, 0x10(sp)
   17594: 3b 86 f6 00  	addw	a2, a3, a5
   17598: e2 67        	ld	a5, 0x18(sp)
   1759a: 95 9f        	subw	a5, a5, a3
   1759c: 21 be        	j	0x170b4 <__gdtoa+0xf0>
   1759e: 9b 8a da 3f  	addiw	s5, s5, 0x3fd
   175a2: 93 ba 8a 7f  	sltiu	s5, s5, 0x7f8
   175a6: 01 49        	li	s2, 0x0
   175a8: 07 b7 01 15  	fld	fa4, 0x150(gp)
   175ac: d3 07 0d d2  	fcvt.d.w	fa5, s10
   175b0: 05 47        	li	a4, 0x1
   175b2: ba e0        	sd	a4, 0x40(sp)
   175b4: d3 f7 e7 12  	fmul.d	fa5, fa5, fa4
   175b8: 7d 57        	li	a4, -0x1
   175ba: 81 4b        	li	s7, 0x0
   175bc: ba fc        	sd	a4, 0x78(sp)
   175be: 3a f4        	sd	a4, 0x28(sp)
   175c0: d3 95 07 c2  	fcvt.w.d	a1, fa5, rtz
   175c4: 8d 25        	addiw	a1, a1, 0x3
   175c6: ae 88        	mv	a7, a1
   175c8: 0d b1        	j	0x171ea <__gdtoa+0x226>
   175ca: 02 77        	ld	a4, 0x20(sp)
   175cc: 8d 45        	li	a1, 0x3
   175ce: 3b 87 e5 40  	subw	a4, a1, a4
   175d2: 3a f0        	sd	a4, 0x20(sp)
   175d4: 22 77        	ld	a4, 0x28(sp)
   175d6: 39 45        	li	a0, 0xe
   175d8: 9b 05 07 00  	sext.w	a1, a4
   175dc: e3 64 b5 c4  	bltu	a0, a1, 0x17224 <__gdtoa+0x260>
   175e0: e3 82 0a c4  	beqz	s5, 0x17224 <__gdtoa+0x260>
   175e4: e2 75        	ld	a1, 0x38(sp)
   175e6: 02 75        	ld	a0, 0x20(sp)
   175e8: c9 8d        	or	a1, a1, a0
   175ea: 81 25        	sext.w	a1, a1
   175ec: e3 9c 05 c2  	bnez	a1, 0x17224 <__gdtoa+0x260>
   175f0: c6 75        	ld	a1, 0x70(sp)
   175f2: 02 c7        	sw	zero, 0x8c(sp)
   175f4: b6 8e        	mv	t4, a3
   175f6: 89 c9        	beqz	a1, 0x17608 <__gdtoa+0x644>
   175f8: 87 b7 01 f0  	fld	fa5, -0x100(gp)
   175fc: 53 87 06 f2  	fmv.d.x	fa4, a3
   17600: d3 15 f7 a2  	flt.d	a1, fa4, fa5
   17604: 63 92 05 7c  	bnez	a1, 0x17dc8 <__gdtoa+0xe04>
   17608: 07 b7 81 f0  	fld	fa4, -0xf8(gp)
   1760c: 87 b7 81 16  	fld	fa5, 0x168(gp)
   17610: d3 86 0e f2  	fmv.d.x	fa3, t4
   17614: b7 05 c0 fc  	lui	a1, 0xfcc00
   17618: 22 77        	ld	a4, 0x28(sp)
   1761a: c3 f7 e6 7a  	fmadd.d	fa5, fa3, fa4, fa5
   1761e: 53 85 07 e2  	fmv.x.d	a0, fa5
   17622: 13 5f 05 02  	srli	t5, a0, 0x20
   17626: bb 85 e5 01  	addw	a1, a1, t5
   1762a: 7d 5f        	li	t5, -0x1
   1762c: 13 5f 0f 02  	srli	t5, t5, 0x20
   17630: 82 15        	slli	a1, a1, 0x20
   17632: 33 7f af 00  	and	t5, t5, a0
   17636: 33 6f bf 00  	or	t5, t5, a1
   1763a: 63 07 07 4c  	beqz	a4, 0x17b08 <__gdtoa+0xb44>
   1763e: a2 7f        	ld	t6, 0x28(sp)
   17640: 76 85        	mv	a0, t4
   17642: 81 43        	li	t2, 0x0
   17644: f1 65        	lui	a1, 0x1c
   17646: 9b 82 ff ff  	addiw	t0, t6, -0x1
   1764a: 06 67        	ld	a4, 0x40(sp)
   1764c: 93 85 85 95  	addi	a1, a1, -0x6a8
   17650: 8e 02        	slli	t0, t0, 0x3
   17652: ae 92        	add	t0, t0, a1
   17654: 87 b7 02 00  	fld	fa5, 0x0(t0)
   17658: 63 0a 07 6c  	beqz	a4, 0x17d2c <__gdtoa+0xd68>
   1765c: 53 07 05 f2  	fmv.d.x	fa4, a0
   17660: d3 06 05 f2  	fmv.d.x	fa3, a0
   17664: d3 16 07 c2  	fcvt.w.d	a3, fa4, rtz
   17668: 07 b7 01 fc  	fld	fa4, -0x40(gp)
   1766c: 93 0c 18 00  	addi	s9, a6, 0x1
   17670: 53 77 f7 1a  	fdiv.d	fa4, fa4, fa5
   17674: d3 87 06 d2  	fcvt.d.w	fa5, a3
   17678: 9b 86 06 03  	addiw	a3, a3, 0x30
   1767c: 23 00 d8 00  	sb	a3, 0x0(a6)
   17680: d3 f7 f6 0a  	fsub.d	fa5, fa3, fa5
   17684: d3 06 0f f2  	fmv.d.x	fa3, t5
   17688: 53 77 d7 0a  	fsub.d	fa4, fa4, fa3
   1768c: d3 96 e7 a2  	flt.d	a3, fa5, fa4
   17690: e3 9a 06 00  	bnez	a3, 0x17ea4 <__gdtoa+0xee0>
   17694: 87 b5 01 f0  	fld	fa1, -0x100(gp)
   17698: 07 b6 81 15  	fld	fa2, 0x158(gp)
   1769c: 0d a8        	j	0x176ce <__gdtoa+0x70a>
   1769e: 3a 47        	lw	a4, 0x8c(sp)
   176a0: 85 0c        	addi	s9, s9, 0x1
   176a2: 05 27        	addiw	a4, a4, 0x1
   176a4: 3a c7        	sw	a4, 0x8c(sp)
   176a6: e3 5c f7 01  	bge	a4, t6, 0x17ebe <__gdtoa+0xefa>
   176aa: d3 f7 c7 12  	fmul.d	fa5, fa5, fa2
   176ae: 53 77 c7 12  	fmul.d	fa4, fa4, fa2
   176b2: 53 97 07 c2  	fcvt.w.d	a4, fa5, rtz
   176b6: d3 06 07 d2  	fcvt.d.w	fa3, a4
   176ba: 1b 07 07 03  	addiw	a4, a4, 0x30
   176be: a3 8f ec fe  	sb	a4, -0x1(s9)
   176c2: d3 f7 d7 0a  	fsub.d	fa5, fa5, fa3
   176c6: 53 97 e7 a2  	flt.d	a4, fa5, fa4
   176ca: 63 1d 07 7c  	bnez	a4, 0x17ea4 <__gdtoa+0xee0>
   176ce: d3 f6 f5 0a  	fsub.d	fa3, fa1, fa5
   176d2: 53 97 e6 a2  	flt.d	a4, fa3, fa4
   176d6: 61 d7        	beqz	a4, 0x1769e <__gdtoa+0x6da>
   176d8: 83 c6 fc ff  	lbu	a3, -0x1(s9)
   176dc: 9b 85 13 00  	addiw	a1, t2, 0x1
   176e0: 13 06 90 03  	li	a2, 0x39
   176e4: 31 a0        	j	0x176f0 <__gdtoa+0x72c>
   176e6: 63 0f f8 62  	beq	a6, a5, 0x17d24 <__gdtoa+0xd60>
   176ea: 83 c6 f7 ff  	lbu	a3, -0x1(a5)
   176ee: be 8c        	mv	s9, a5
   176f0: 93 87 fc ff  	addi	a5, s9, -0x1
   176f4: e3 89 c6 fe  	beq	a3, a2, 0x176e6 <__gdtoa+0x722>
   176f8: 85 26        	addiw	a3, a3, 0x1
   176fa: 93 f6 f6 0f  	andi	a3, a3, 0xff
   176fe: 23 80 d7 00  	sb	a3, 0x0(a5)
   17702: 1b 89 05 00  	sext.w	s2, a1
   17706: 93 09 00 02  	li	s3, 0x20
   1770a: c5 a0        	j	0x177ea <__gdtoa+0x826>
   1770c: 4e 74        	ld	s0, 0xf0(sp)
   1770e: 0e 79        	ld	s2, 0xe0(sp)
   17710: 89 b5        	j	0x17552 <__gdtoa+0x58e>
   17712: 85 45        	li	a1, 0x1
   17714: 3b 87 15 41  	subw	a4, a1, a7
   17718: 3a ec        	sd	a4, 0x18(sp)
   1771a: 01 4e        	li	t3, 0x0
   1771c: e3 4c 03 e4  	bltz	t1, 0x17574 <__gdtoa+0x5b0>
   17720: 41 b4        	j	0x171a0 <__gdtoa+0x1dc>
   17722: 42 7d        	ld	s10, 0x30(sp)
   17724: e2 6c        	ld	s9, 0x18(sp)
   17726: 81 4a        	li	s5, 0x0
   17728: ad be        	j	0x172a2 <__gdtoa+0x2de>
   1772a: 09 47        	li	a4, 0x2
   1772c: 3a f0        	sd	a4, 0x20(sp)
   1772e: fd b4        	j	0x1721c <__gdtoa+0x258>
   17730: 71 39        	addiw	s2, s2, -0x4
   17732: 11 45        	li	a0, 0x4
   17734: 63 0f a9 10  	beq	s2, a0, 0x17852 <__gdtoa+0x88e>
   17738: 63 0e b9 48  	beq	s2, a1, 0x17bd4 <__gdtoa+0xc10>
   1773c: 89 45        	li	a1, 0x2
   1773e: 82 e0        	sd	zero, 0x40(sp)
   17740: 81 4a        	li	s5, 0x0
   17742: 63 0b b9 10  	beq	s2, a1, 0x17858 <__gdtoa+0x894>
   17746: 0d 49        	li	s2, 0x3
   17748: 71 b4        	j	0x171d4 <__gdtoa+0x210>
   1774a: 7d 33        	addiw	t1, t1, -0x1
   1774c: 82 f8        	sd	zero, 0x70(sp)
   1774e: 31 bd        	j	0x1756a <__gdtoa+0x5a6>
   17750: f1 67        	lui	a5, 0x1c
   17752: 13 16 37 00  	slli	a2, a4, 0x3
   17756: 93 87 87 95  	addi	a5, a5, -0x6a8
   1775a: b2 97        	add	a5, a5, a2
   1775c: 98 23        	fld	fa4, 0x0(a5)
   1775e: 63 ca 0b 32  	bltz	s7, 0x17a92 <__gdtoa+0xace>
   17762: d3 87 06 f2  	fmv.d.x	fa5, a3
   17766: 85 47        	li	a5, 0x1
   17768: 3e c7        	sw	a5, 0x8c(sp)
   1776a: d3 f7 e7 1a  	fdiv.d	fa5, fa5, fa4
   1776e: e2 77        	ld	a5, 0x38(sp)
   17770: d3 86 06 f2  	fmv.d.x	fa3, a3
   17774: 93 0c 18 00  	addi	s9, a6, 0x1
   17778: 1b 89 17 00  	addiw	s2, a5, 0x1
   1777c: ca 85        	mv	a1, s2
   1777e: d3 97 07 c2  	fcvt.w.d	a5, fa5, rtz
   17782: d3 87 07 d2  	fcvt.d.w	fa5, a5
   17786: 1b 86 07 03  	addiw	a2, a5, 0x30
   1778a: 23 00 c8 00  	sb	a2, 0x0(a6)
   1778e: cb 77 f7 6a  	fnmsub.d	fa5, fa4, fa5, fa3
   17792: d3 06 00 f2  	fmv.d.x	fa3, zero
   17796: 81 27        	sext.w	a5, a5
   17798: d3 a6 d7 a2  	feq.d	a3, fa5, fa3
   1779c: b9 e6        	bnez	a3, 0x177ea <__gdtoa+0x826>
   1779e: 87 b5 81 15  	fld	fa1, 0x158(gp)
   177a2: 53 86 d6 22  	fmv.d	fa2, fa3
   177a6: 22 76        	ld	a2, 0x28(sp)
   177a8: 2d a0        	j	0x177d2 <__gdtoa+0x80e>
   177aa: d3 f7 b7 12  	fmul.d	fa5, fa5, fa1
   177ae: 36 c7        	sw	a3, 0x8c(sp)
   177b0: 85 0c        	addi	s9, s9, 0x1
   177b2: d3 f6 e7 1a  	fdiv.d	fa3, fa5, fa4
   177b6: d3 97 06 c2  	fcvt.w.d	a5, fa3, rtz
   177ba: d3 86 07 d2  	fcvt.d.w	fa3, a5
   177be: 1b 87 07 03  	addiw	a4, a5, 0x30
   177c2: a3 8f ec fe  	sb	a4, -0x1(s9)
   177c6: cb f7 e6 7a  	fnmsub.d	fa5, fa3, fa4, fa5
   177ca: 81 27        	sext.w	a5, a5
   177cc: 53 a7 c7 a2  	feq.d	a4, fa5, fa2
   177d0: 09 ef        	bnez	a4, 0x177ea <__gdtoa+0x826>
   177d2: 3a 47        	lw	a4, 0x8c(sp)
   177d4: 9b 06 17 00  	addiw	a3, a4, 0x1
   177d8: e3 19 c7 fc  	bne	a4, a2, 0x177aa <__gdtoa+0x7e6>
   177dc: 02 77        	ld	a4, 0x20(sp)
   177de: 63 08 07 50  	beqz	a4, 0x17cee <__gdtoa+0xd2a>
   177e2: 85 47        	li	a5, 0x1
   177e4: c1 49        	li	s3, 0x10
   177e6: 63 08 f7 62  	beq	a4, a5, 0x17e16 <__gdtoa+0xe52>
   177ea: e2 85        	mv	a1, s8
   177ec: 22 85        	mv	a0, s0
   177ee: 42 e8        	sd	a6, 0x10(sp)
   177f0: ef 00 70 3c  	jal	0x183b6 <_Bfree>
   177f4: a2 67        	ld	a5, 0x8(sp)
   177f6: 23 80 0c 00  	sb	zero, 0x0(s9)
   177fa: 23 a0 24 01  	sw	s2, 0x0(s1)
   177fe: 42 68        	ld	a6, 0x10(sp)
   17800: 99 c3        	beqz	a5, 0x17806 <__gdtoa+0x842>
   17802: 23 b0 97 01  	sd	s9, 0x0(a5)
   17806: 83 27 0a 00  	lw	a5, 0x0(s4)
   1780a: 4e 74        	ld	s0, 0xf0(sp)
   1780c: 0e 79        	ld	s2, 0xe0(sp)
   1780e: b3 e7 f9 00  	or	a5, s3, a5
   17812: ae 6a        	ld	s5, 0xc8(sp)
   17814: 0e 6b        	ld	s6, 0xc0(sp)
   17816: ea 7b        	ld	s7, 0xb8(sp)
   17818: 4a 7c        	ld	s8, 0xb0(sp)
   1781a: 0a 7d        	ld	s10, 0xa0(sp)
   1781c: ea 6d        	ld	s11, 0x98(sp)
   1781e: 23 20 fa 00  	sw	a5, 0x0(s4)
   17822: dd b1        	j	0x17508 <__gdtoa+0x544>
   17824: e3 99 d7 ae  	bne	a5, a3, 0x17316 <__gdtoa+0x352>
   17828: 83 27 4b 00  	lw	a5, 0x4(s6)
   1782c: 42 67        	ld	a4, 0x10(sp)
   1782e: 85 27        	addiw	a5, a5, 0x1
   17830: e3 d3 e7 ae  	bge	a5, a4, 0x17316 <__gdtoa+0x352>
   17834: e2 67        	ld	a5, 0x18(sp)
   17836: 05 2e        	addiw	t3, t3, 0x1
   17838: 05 43        	li	t1, 0x1
   1783a: 85 27        	addiw	a5, a5, 0x1
   1783c: 3e ec        	sd	a5, 0x18(sp)
   1783e: e1 bc        	j	0x17316 <__gdtoa+0x352>
   17840: 53 07 05 d2  	fcvt.d.w	fa4, a0
   17844: d3 25 f7 a2  	feq.d	a1, fa4, fa5
   17848: e3 94 05 90  	bnez	a1, 0x17150 <__gdtoa+0x18c>
   1784c: 1b 03 f5 ff  	addiw	t1, a0, -0x1
   17850: 01 b2        	j	0x17150 <__gdtoa+0x18c>
   17852: 05 47        	li	a4, 0x1
   17854: 81 4a        	li	s5, 0x0
   17856: ba e0        	sd	a4, 0x40(sp)
   17858: 9b 85 0b 00  	sext.w	a1, s7
   1785c: 63 43 70 01  	bgtz	s7, 0x17862 <__gdtoa+0x89e>
   17860: 85 45        	li	a1, 0x1
   17862: ae 88        	mv	a7, a1
   17864: ae fc        	sd	a1, 0x78(sp)
   17866: 2e f4        	sd	a1, 0x28(sp)
   17868: ae 8b        	mv	s7, a1
   1786a: 41 b2        	j	0x171ea <__gdtoa+0x226>
   1786c: ef 00 d0 35  	jal	0x183c8 <__multadd>
   17870: aa 8a        	mv	s5, a0
   17872: e3 0d 05 cc  	beqz	a0, 0x1754c <__gdtoa+0x588>
   17876: aa 84        	mv	s1, a0
   17878: b9 be        	j	0x173d6 <__gdtoa+0x412>
   1787a: e3 5b 0b b0  	bgez	s6, 0x17390 <__gdtoa+0x3cc>
   1787e: 82 77        	ld	a5, 0x20(sp)
   17880: 26 ec        	sd	s1, 0x18(sp)
   17882: 52 83        	mv	t1, s4
   17884: 42 78        	ld	a6, 0x30(sp)
   17886: 22 7a        	ld	s4, 0x28(sp)
   17888: 86 64        	ld	s1, 0x40(sp)
   1788a: ba 89        	mv	s3, a4
   1788c: 63 9d 07 6e  	bnez	a5, 0x17f86 <__gdtoa+0xfc2>
   17890: 03 26 4c 01  	lw	a2, 0x14(s8)
   17894: 85 46        	li	a3, 0x1
   17896: c1 49        	li	s3, 0x10
   17898: 93 8c 1b 00  	addi	s9, s7, 0x1
   1789c: 63 da c6 68  	bge	a3, a2, 0x17f30 <__gdtoa+0xf6c>
   178a0: 23 80 6b 00  	sb	t1, 0x0(s7)
   178a4: 56 8b        	mv	s6, s5
   178a6: e2 6a        	ld	s5, 0x18(sp)
   178a8: ea 85        	mv	a1, s10
   178aa: 22 85        	mv	a0, s0
   178ac: 42 e8        	sd	a6, 0x10(sp)
   178ae: ef 00 90 30  	jal	0x183b6 <_Bfree>
   178b2: e2 77        	ld	a5, 0x38(sp)
   178b4: 42 68        	ld	a6, 0x10(sp)
   178b6: 1b 89 17 00  	addiw	s2, a5, 0x1
   178ba: e3 88 0a f2  	beqz	s5, 0x177ea <__gdtoa+0x826>
   178be: 63 09 0b 00  	beqz	s6, 0x178d0 <__gdtoa+0x90c>
   178c2: 63 07 5b 01  	beq	s6, s5, 0x178d0 <__gdtoa+0x90c>
   178c6: da 85        	mv	a1, s6
   178c8: 22 85        	mv	a0, s0
   178ca: ef 00 d0 2e  	jal	0x183b6 <_Bfree>
   178ce: 42 68        	ld	a6, 0x10(sp)
   178d0: d6 85        	mv	a1, s5
   178d2: 22 85        	mv	a0, s0
   178d4: 42 e8        	sd	a6, 0x10(sp)
   178d6: ef 00 10 2e  	jal	0x183b6 <_Bfree>
   178da: 42 68        	ld	a6, 0x10(sp)
   178dc: 39 b7        	j	0x177ea <__gdtoa+0x826>
   178de: e2 85        	mv	a1, s8
   178e0: 22 85        	mv	a0, s0
   178e2: 42 f8        	sd	a6, 0x30(sp)
   178e4: 72 ec        	sd	t3, 0x18(sp)
   178e6: 1a e8        	sd	t1, 0x10(sp)
   178e8: ef 10 60 08  	jal	0x1896e <__lshift>
   178ec: 2a 8c        	mv	s8, a0
   178ee: e3 0f 05 c4  	beqz	a0, 0x1754c <__gdtoa+0x588>
   178f2: ba 47        	lw	a5, 0x8c(sp)
   178f4: 42 78        	ld	a6, 0x30(sp)
   178f6: 62 6e        	ld	t3, 0x18(sp)
   178f8: 42 63        	ld	t1, 0x10(sp)
   178fa: 1d bc        	j	0x17330 <__gdtoa+0x36c>
   178fc: ea 85        	mv	a1, s10
   178fe: 62 85        	mv	a0, s8
   17900: 42 ec        	sd	a6, 0x18(sp)
   17902: 1a e8        	sd	t1, 0x10(sp)
   17904: ef 10 e0 18  	jal	0x18a92 <__mcmp>
   17908: 42 63        	ld	t1, 0x10(sp)
   1790a: 62 68        	ld	a6, 0x18(sp)
   1790c: e3 59 05 a2  	bgez	a0, 0x1733e <__gdtoa+0x37a>
   17910: e2 77        	ld	a5, 0x38(sp)
   17912: e2 85        	mv	a1, s8
   17914: 81 46        	li	a3, 0x0
   17916: fd 37        	addiw	a5, a5, -0x1
   17918: 29 46        	li	a2, 0xa
   1791a: 22 85        	mv	a0, s0
   1791c: 3e fc        	sd	a5, 0x38(sp)
   1791e: ef 00 b0 2a  	jal	0x183c8 <__multadd>
   17922: 2a 8c        	mv	s8, a0
   17924: e3 04 05 c2  	beqz	a0, 0x1754c <__gdtoa+0x588>
   17928: 86 67        	ld	a5, 0x40(sp)
   1792a: 62 68        	ld	a6, 0x18(sp)
   1792c: 63 90 07 54  	bnez	a5, 0x17e6c <__gdtoa+0xea8>
   17930: e6 77        	ld	a5, 0x78(sp)
   17932: 63 5a f0 14  	blez	a5, 0x17a86 <__gdtoa+0xac2>
   17936: 3e f4        	sd	a5, 0x28(sp)
   17938: 22 79        	ld	s2, 0x28(sp)
   1793a: c2 8b        	mv	s7, a6
   1793c: 85 46        	li	a3, 0x1
   1793e: c2 89        	mv	s3, a6
   17940: 01 a8        	j	0x17950 <__gdtoa+0x98c>
   17942: ef 00 70 28  	jal	0x183c8 <__multadd>
   17946: 2a 8c        	mv	s8, a0
   17948: e3 02 05 c0  	beqz	a0, 0x1754c <__gdtoa+0x588>
   1794c: ba 46        	lw	a3, 0x8c(sp)
   1794e: 85 26        	addiw	a3, a3, 0x1
   17950: ea 85        	mv	a1, s10
   17952: 62 85        	mv	a0, s8
   17954: 36 c7        	sw	a3, 0x8c(sp)
   17956: ef 00 a0 76  	jal	0x180c0 <__quorem_D2A>
   1795a: 1b 03 05 03  	addiw	t1, a0, 0x30
   1795e: 23 80 6b 00  	sb	t1, 0x0(s7)
   17962: ba 47        	lw	a5, 0x8c(sp)
   17964: 81 46        	li	a3, 0x0
   17966: 29 46        	li	a2, 0xa
   17968: e2 85        	mv	a1, s8
   1796a: 22 85        	mv	a0, s0
   1796c: 85 0b        	addi	s7, s7, 0x1
   1796e: e3 ca 27 fd  	blt	a5, s2, 0x17942 <__gdtoa+0x97e>
   17972: 4e 88        	mv	a6, s3
   17974: 01 4b        	li	s6, 0x0
   17976: 82 77        	ld	a5, 0x20(sp)
   17978: 63 87 07 2c  	beqz	a5, 0x17c46 <__gdtoa+0xc82>
   1797c: 89 46        	li	a3, 0x2
   1797e: 03 26 4c 01  	lw	a2, 0x14(s8)
   17982: 63 88 d7 2e  	beq	a5, a3, 0x17c72 <__gdtoa+0xcae>
   17986: 85 46        	li	a3, 0x1
   17988: 63 c9 c6 20  	blt	a3, a2, 0x17b9a <__gdtoa+0xbd6>
   1798c: 83 26 8c 01  	lw	a3, 0x18(s8)
   17990: 63 95 06 20  	bnez	a3, 0x17b9a <__gdtoa+0xbd6>
   17994: b3 36 d0 00  	snez	a3, a3
   17998: 93 99 46 00  	slli	s3, a3, 0x4
   1799c: 13 06 00 03  	li	a2, 0x30
   179a0: 83 c7 fb ff  	lbu	a5, -0x1(s7)
   179a4: de 8c        	mv	s9, s7
   179a6: fd 1b        	addi	s7, s7, -0x1
   179a8: e3 8c c7 fe  	beq	a5, a2, 0x179a0 <__gdtoa+0x9dc>
   179ac: f5 bd        	j	0x178a8 <__gdtoa+0x8e4>
   179ae: 22 77        	ld	a4, 0x28(sp)
   179b0: 42 76        	ld	a2, 0x30(sp)
   179b2: 9b 06 f7 ff  	addiw	a3, a4, -0x1
   179b6: 63 41 d6 10  	blt	a2, a3, 0x17ab8 <__gdtoa+0xaf4>
   179ba: 3b 0d d6 40  	subw	s10, a2, a3
   179be: 63 5a 07 46  	bgez	a4, 0x17e32 <__gdtoa+0xe6e>
   179c2: 62 67        	ld	a4, 0x18(sp)
   179c4: a2 76        	ld	a3, 0x28(sp)
   179c6: 02 c7        	sw	zero, 0x8c(sp)
   179c8: bb 0c d7 40  	subw	s9, a4, a3
   179cc: 65 b8        	j	0x17284 <__gdtoa+0x2c0>
   179ce: 89 47        	li	a5, 0x2
   179d0: e3 da 27 97  	bge	a5, s2, 0x17344 <__gdtoa+0x380>
   179d4: ea 85        	mv	a1, s10
   179d6: 81 46        	li	a3, 0x0
   179d8: 15 46        	li	a2, 0x5
   179da: 22 85        	mv	a0, s0
   179dc: 42 e8        	sd	a6, 0x10(sp)
   179de: ef 00 b0 1e  	jal	0x183c8 <__multadd>
   179e2: aa 85        	mv	a1, a0
   179e4: e3 04 05 b6  	beqz	a0, 0x1754c <__gdtoa+0x588>
   179e8: a2 77        	ld	a5, 0x28(sp)
   179ea: 42 68        	ld	a6, 0x10(sp)
   179ec: 63 92 07 14  	bnez	a5, 0x17b30 <__gdtoa+0xb6c>
   179f0: 2a e8        	sd	a0, 0x10(sp)
   179f2: 62 85        	mv	a0, s8
   179f4: 42 ec        	sd	a6, 0x18(sp)
   179f6: ef 10 c0 09  	jal	0x18a92 <__mcmp>
   179fa: e2 77        	ld	a5, 0x38(sp)
   179fc: c2 65        	ld	a1, 0x10(sp)
   179fe: 62 68        	ld	a6, 0x18(sp)
   17a00: 1b 89 27 00  	addiw	s2, a5, 0x2
   17a04: 63 56 a0 12  	blez	a0, 0x17b30 <__gdtoa+0xb6c>
   17a08: 93 07 10 03  	li	a5, 0x31
   17a0c: 93 0c 18 00  	addi	s9, a6, 0x1
   17a10: 23 00 f8 00  	sb	a5, 0x0(a6)
   17a14: 93 09 00 02  	li	s3, 0x20
   17a18: 22 85        	mv	a0, s0
   17a1a: 42 e8        	sd	a6, 0x10(sp)
   17a1c: ef 00 b0 19  	jal	0x183b6 <_Bfree>
   17a20: 42 68        	ld	a6, 0x10(sp)
   17a22: e3 84 0a dc  	beqz	s5, 0x177ea <__gdtoa+0x826>
   17a26: 6d b5        	j	0x178d0 <__gdtoa+0x90c>
   17a28: 85 48        	li	a7, 0x1
   17a2a: 85 45        	li	a1, 0x1
   17a2c: 6f f0 ef fb  	j	0x171ea <__gdtoa+0x226>
   17a30: aa 85        	mv	a1, a0
   17a32: 1a 86        	mv	a2, t1
   17a34: 22 85        	mv	a0, s0
   17a36: c2 e4        	sd	a6, 0x48(sp)
   17a38: 72 f8        	sd	t3, 0x30(sp)
   17a3a: ef 00 10 66  	jal	0x1889a <__pow5mult>
   17a3e: 2a 8d        	mv	s10, a0
   17a40: e3 06 05 b0  	beqz	a0, 0x1754c <__gdtoa+0x588>
   17a44: 85 46        	li	a3, 0x1
   17a46: 42 7e        	ld	t3, 0x30(sp)
   17a48: 26 68        	ld	a6, 0x48(sp)
   17a4a: 63 d3 26 1b  	bge	a3, s2, 0x17bf0 <__gdtoa+0xc2c>
   17a4e: 83 27 4d 01  	lw	a5, 0x14(s10)
   17a52: 42 f8        	sd	a6, 0x30(sp)
   17a54: 72 e8        	sd	t3, 0x10(sp)
   17a56: fd 37        	addiw	a5, a5, -0x1
   17a58: 91 07        	addi	a5, a5, 0x4
   17a5a: 8a 07        	slli	a5, a5, 0x2
   17a5c: ea 97        	add	a5, a5, s10
   17a5e: 88 47        	lw	a0, 0x8(a5)
   17a60: ef 00 50 33  	jal	0x18594 <__hi0bits>
   17a64: 42 78        	ld	a6, 0x30(sp)
   17a66: 42 6e        	ld	t3, 0x10(sp)
   17a68: 4e 83        	mv	t1, s3
   17a6a: 6f f0 ff 8a  	j	0x17318 <__gdtoa+0x354>
   17a6e: 85 46        	li	a3, 0x1
   17a70: e3 cf 26 f3  	blt	a3, s2, 0x179ae <__gdtoa+0x9ea>
   17a74: 62 67        	ld	a4, 0x18(sp)
   17a76: 42 7d        	ld	s10, 0x30(sp)
   17a78: 3b 8e c5 01  	addw	t3, a1, t3
   17a7c: ba 8c        	mv	s9, a4
   17a7e: 2d 9f        	addw	a4, a4, a1
   17a80: 3a ec        	sd	a4, 0x18(sp)
   17a82: 6f f0 3f 80  	j	0x17284 <__gdtoa+0x2c0>
   17a86: 89 47        	li	a5, 0x2
   17a88: 63 ca 27 4b  	blt	a5, s2, 0x17f3c <__gdtoa+0xf78>
   17a8c: e6 77        	ld	a5, 0x78(sp)
   17a8e: 3e f4        	sd	a5, 0x28(sp)
   17a90: 65 b5        	j	0x17938 <__gdtoa+0x974>
   17a92: a2 77        	ld	a5, 0x28(sp)
   17a94: e3 47 f0 cc  	bgtz	a5, 0x17762 <__gdtoa+0x79e>
   17a98: d1 eb        	bnez	a5, 0x17b2c <__gdtoa+0xb68>
   17a9a: 87 b7 01 17  	fld	fa5, 0x170(gp)
   17a9e: 53 77 f7 12  	fmul.d	fa4, fa4, fa5
   17aa2: d3 87 06 f2  	fmv.d.x	fa5, a3
   17aa6: d3 87 e7 a2  	fle.d	a5, fa5, fa4
   17aaa: c9 e3        	bnez	a5, 0x17b2c <__gdtoa+0xb68>
   17aac: e2 77        	ld	a5, 0x38(sp)
   17aae: 81 45        	li	a1, 0x0
   17ab0: 81 4a        	li	s5, 0x0
   17ab2: 1b 89 27 00  	addiw	s2, a5, 0x2
   17ab6: 89 bf        	j	0x17a08 <__gdtoa+0xa44>
   17ab8: 42 77        	ld	a4, 0x30(sp)
   17aba: e2 65        	ld	a1, 0x18(sp)
   17abc: 01 4d        	li	s10, 0x0
   17abe: 3b 86 e6 40  	subw	a2, a3, a4
   17ac2: 22 77        	ld	a4, 0x28(sp)
   17ac4: ae 8c        	mv	s9, a1
   17ac6: 3b 03 66 00  	addw	t1, a2, t1
   17aca: 3a c7        	sw	a4, 0x8c(sp)
   17acc: 3b 0e c7 01  	addw	t3, a4, t3
   17ad0: 2d 9f        	addw	a4, a4, a1
   17ad2: 3a ec        	sd	a4, 0x18(sp)
   17ad4: 36 f8        	sd	a3, 0x30(sp)
   17ad6: 6f f0 ef fa  	j	0x17284 <__gdtoa+0x2c0>
   17ada: 87 b7 81 f0  	fld	fa5, -0xf8(gp)
   17ade: 07 b7 81 16  	fld	fa4, 0x168(gp)
   17ae2: d3 86 0e f2  	fmv.d.x	fa3, t4
   17ae6: b7 06 c0 fc  	lui	a3, 0xfcc00
   17aea: 7d 5f        	li	t5, -0x1
   17aec: c3 f7 f6 72  	fmadd.d	fa5, fa3, fa5, fa4
   17af0: 13 5f 0f 02  	srli	t5, t5, 0x20
   17af4: d3 85 07 e2  	fmv.x.d	a1, fa5
   17af8: 13 d5 05 02  	srli	a0, a1, 0x20
   17afc: a9 9e        	addw	a3, a3, a0
   17afe: 82 16        	slli	a3, a3, 0x20
   17b00: 33 7f bf 00  	and	t5, t5, a1
   17b04: 33 6f df 00  	or	t5, t5, a3
   17b08: 87 b7 01 17  	fld	fa5, 0x170(gp)
   17b0c: 53 87 0e f2  	fmv.d.x	fa4, t4
   17b10: d3 77 f7 0a  	fsub.d	fa5, fa4, fa5
   17b14: 53 07 0f f2  	fmv.d.x	fa4, t5
   17b18: d3 16 f7 a2  	flt.d	a3, fa4, fa5
   17b1c: 63 97 06 30  	bnez	a3, 0x17e2a <__gdtoa+0xe66>
   17b20: 53 17 e7 22  	fneg.d	fa4, fa4
   17b24: d3 96 e7 a2  	flt.d	a3, fa5, fa4
   17b28: 63 8a 06 2e  	beqz	a3, 0x17e1c <__gdtoa+0xe58>
   17b2c: 81 45        	li	a1, 0x0
   17b2e: 81 4a        	li	s5, 0x0
   17b30: 3b 09 70 41  	negw	s2, s7
   17b34: c2 8c        	mv	s9, a6
   17b36: c1 49        	li	s3, 0x10
   17b38: c5 b5        	j	0x17a18 <__gdtoa+0xa54>
   17b3a: d6 85        	mv	a1, s5
   17b3c: 6a 86        	mv	a2, s10
   17b3e: 22 85        	mv	a0, s0
   17b40: c2 f0        	sd	a6, 0x60(sp)
   17b42: be ec        	sd	a5, 0x58(sp)
   17b44: f2 e8        	sd	t3, 0x50(sp)
   17b46: 9a e4        	sd	t1, 0x48(sp)
   17b48: ef 00 30 55  	jal	0x1889a <__pow5mult>
   17b4c: aa 8a        	mv	s5, a0
   17b4e: e3 0f 05 9e  	beqz	a0, 0x1754c <__gdtoa+0x588>
   17b52: aa 85        	mv	a1, a0
   17b54: 62 86        	mv	a2, s8
   17b56: 22 85        	mv	a0, s0
   17b58: ef 00 b0 39  	jal	0x186f2 <__multiply>
   17b5c: aa f4        	sd	a0, 0x68(sp)
   17b5e: e3 07 05 9e  	beqz	a0, 0x1754c <__gdtoa+0x588>
   17b62: e2 85        	mv	a1, s8
   17b64: 22 85        	mv	a0, s0
   17b66: ef 00 10 05  	jal	0x183b6 <_Bfree>
   17b6a: c2 77        	ld	a5, 0x30(sp)
   17b6c: a6 76        	ld	a3, 0x68(sp)
   17b6e: 26 63        	ld	t1, 0x48(sp)
   17b70: 3b 87 a7 41  	subw	a4, a5, s10
   17b74: 3a f8        	sd	a4, 0x30(sp)
   17b76: 46 6e        	ld	t3, 0x50(sp)
   17b78: e6 67        	ld	a5, 0x58(sp)
   17b7a: 06 78        	ld	a6, 0x60(sp)
   17b7c: 36 8c        	mv	s8, a3
   17b7e: 63 08 07 f6  	beqz	a4, 0x172ee <__gdtoa+0x32a>
   17b82: 6f f0 cf f4  	j	0x172ce <__gdtoa+0x30a>
   17b86: 56 8b        	mv	s6, s5
   17b88: e2 6a        	ld	s5, 0x18(sp)
   17b8a: de 86        	mv	a3, s7
   17b8c: 93 8c 1b 00  	addi	s9, s7, 0x1
   17b90: 13 06 90 03  	li	a2, 0x39
   17b94: e6 8b        	mv	s7, s9
   17b96: 23 80 c6 00  	sb	a2, 0x0(a3)
   17b9a: 13 06 90 03  	li	a2, 0x39
   17b9e: 19 a0        	j	0x17ba4 <__gdtoa+0xbe0>
   17ba0: 63 02 78 0f  	beq	a6, s7, 0x17c84 <__gdtoa+0xcc0>
   17ba4: 83 c6 fb ff  	lbu	a3, -0x1(s7)
   17ba8: de 8c        	mv	s9, s7
   17baa: fd 1b        	addi	s7, s7, -0x1
   17bac: e3 8a c6 fe  	beq	a3, a2, 0x17ba0 <__gdtoa+0xbdc>
   17bb0: 85 26        	addiw	a3, a3, 0x1
   17bb2: 23 80 db 00  	sb	a3, 0x0(s7)
   17bb6: 93 09 00 02  	li	s3, 0x20
   17bba: fd b1        	j	0x178a8 <__gdtoa+0x8e4>
   17bbc: d6 85        	mv	a1, s5
   17bbe: 22 85        	mv	a0, s0
   17bc0: 42 ec        	sd	a6, 0x18(sp)
   17bc2: 1a e8        	sd	t1, 0x10(sp)
   17bc4: ef 00 b0 5a  	jal	0x1896e <__lshift>
   17bc8: 42 63        	ld	t1, 0x10(sp)
   17bca: 62 68        	ld	a6, 0x18(sp)
   17bcc: aa 8a        	mv	s5, a0
   17bce: 63 12 05 f8  	bnez	a0, 0x17352 <__gdtoa+0x38e>
   17bd2: ad ba        	j	0x1754c <__gdtoa+0x588>
   17bd4: 05 47        	li	a4, 0x1
   17bd6: 81 4a        	li	s5, 0x0
   17bd8: ba e0        	sd	a4, 0x40(sp)
   17bda: 6f f0 af df  	j	0x171d4 <__gdtoa+0x210>
   17bde: 05 47        	li	a4, 0x1
   17be0: ba e0        	sd	a4, 0x40(sp)
   17be2: 6f f0 2f df  	j	0x171d4 <__gdtoa+0x210>
   17be6: 05 47        	li	a4, 0x1
   17be8: ba e0        	sd	a4, 0x40(sp)
   17bea: bd b1        	j	0x17858 <__gdtoa+0x894>
   17bec: 82 e0        	sd	zero, 0x40(sp)
   17bee: ad b1        	j	0x17858 <__gdtoa+0x894>
   17bf0: c6 67        	ld	a5, 0x50(sp)
   17bf2: e3 9e d7 e4  	bne	a5, a3, 0x17a4e <__gdtoa+0xa8a>
   17bf6: 83 27 4b 00  	lw	a5, 0x4(s6)
   17bfa: 42 67        	ld	a4, 0x10(sp)
   17bfc: 85 27        	addiw	a5, a5, 0x1
   17bfe: e3 d8 e7 e4  	bge	a5, a4, 0x17a4e <__gdtoa+0xa8a>
   17c02: e2 67        	ld	a5, 0x18(sp)
   17c04: 05 2e        	addiw	t3, t3, 0x1
   17c06: 85 49        	li	s3, 0x1
   17c08: 85 27        	addiw	a5, a5, 0x1
   17c0a: 3e ec        	sd	a5, 0x18(sp)
   17c0c: 89 b5        	j	0x17a4e <__gdtoa+0xa8a>
   17c0e: 83 a5 8a 00  	lw	a1, 0x8(s5)
   17c12: 22 85        	mv	a0, s0
   17c14: 42 e8        	sd	a6, 0x10(sp)
   17c16: ef 00 c0 73  	jal	0x18352 <_Balloc>
   17c1a: aa 89        	mv	s3, a0
   17c1c: e3 08 05 92  	beqz	a0, 0x1754c <__gdtoa+0x588>
   17c20: 03 a6 4a 01  	lw	a2, 0x14(s5)
   17c24: 93 85 0a 01  	addi	a1, s5, 0x10
   17c28: 41 05        	addi	a0, a0, 0x10
   17c2a: 09 06        	addi	a2, a2, 0x2
   17c2c: 0a 06        	slli	a2, a2, 0x2
   17c2e: ef e0 bf e5  	jal	0x16a88 <memcpy>
   17c32: 05 46        	li	a2, 0x1
   17c34: ce 85        	mv	a1, s3
   17c36: 22 85        	mv	a0, s0
   17c38: ef 00 70 53  	jal	0x1896e <__lshift>
   17c3c: 2a ec        	sd	a0, 0x18(sp)
   17c3e: 42 68        	ld	a6, 0x10(sp)
   17c40: 63 1c 05 f0  	bnez	a0, 0x17358 <__gdtoa+0x394>
   17c44: 21 b2        	j	0x1754c <__gdtoa+0x588>
   17c46: e2 85        	mv	a1, s8
   17c48: 05 46        	li	a2, 0x1
   17c4a: 22 85        	mv	a0, s0
   17c4c: 42 e8        	sd	a6, 0x10(sp)
   17c4e: 1a ec        	sd	t1, 0x18(sp)
   17c50: ef 00 f0 51  	jal	0x1896e <__lshift>
   17c54: 2a 8c        	mv	s8, a0
   17c56: e3 0b 05 8e  	beqz	a0, 0x1754c <__gdtoa+0x588>
   17c5a: ea 85        	mv	a1, s10
   17c5c: ef 00 70 63  	jal	0x18a92 <__mcmp>
   17c60: 42 68        	ld	a6, 0x10(sp)
   17c62: e3 4c a0 f2  	bgtz	a0, 0x17b9a <__gdtoa+0xbd6>
   17c66: 11 e5        	bnez	a0, 0x17c72 <__gdtoa+0xcae>
   17c68: 62 63        	ld	t1, 0x18(sp)
   17c6a: 13 73 13 00  	andi	t1, t1, 0x1
   17c6e: e3 16 03 f2  	bnez	t1, 0x17b9a <__gdtoa+0xbd6>
   17c72: 03 26 4c 01  	lw	a2, 0x14(s8)
   17c76: 85 46        	li	a3, 0x1
   17c78: c1 49        	li	s3, 0x10
   17c7a: e3 c1 c6 d2  	blt	a3, a2, 0x1799c <__gdtoa+0x9d8>
   17c7e: 83 26 8c 01  	lw	a3, 0x18(s8)
   17c82: 09 bb        	j	0x17994 <__gdtoa+0x9d0>
   17c84: e2 77        	ld	a5, 0x38(sp)
   17c86: 93 09 00 02  	li	s3, 0x20
   17c8a: 85 27        	addiw	a5, a5, 0x1
   17c8c: 3e fc        	sd	a5, 0x38(sp)
   17c8e: 93 07 10 03  	li	a5, 0x31
   17c92: 23 00 f8 00  	sb	a5, 0x0(a6)
   17c96: 09 b9        	j	0x178a8 <__gdtoa+0x8e4>
   17c98: 82 77        	ld	a5, 0x20(sp)
   17c9a: 26 ec        	sd	s1, 0x18(sp)
   17c9c: 52 83        	mv	t1, s4
   17c9e: 42 78        	ld	a6, 0x30(sp)
   17ca0: 22 7a        	ld	s4, 0x28(sp)
   17ca2: 86 64        	ld	s1, 0x40(sp)
   17ca4: 91 cb        	beqz	a5, 0x17cb8 <__gdtoa+0xcf4>
   17ca6: 03 26 4c 01  	lw	a2, 0x14(s8)
   17caa: 85 46        	li	a3, 0x1
   17cac: 63 c4 c6 fa  	blt	a3, a2, 0x17454 <__gdtoa+0x490>
   17cb0: 83 26 8c 01  	lw	a3, 0x18(s8)
   17cb4: 63 90 06 fa  	bnez	a3, 0x17454 <__gdtoa+0x490>
   17cb8: e2 85        	mv	a1, s8
   17cba: 05 46        	li	a2, 0x1
   17cbc: 22 85        	mv	a0, s0
   17cbe: 42 f0        	sd	a6, 0x20(sp)
   17cc0: 1a e8        	sd	t1, 0x10(sp)
   17cc2: ef 00 d0 4a  	jal	0x1896e <__lshift>
   17cc6: 2a 8c        	mv	s8, a0
   17cc8: e3 02 05 88  	beqz	a0, 0x1754c <__gdtoa+0x588>
   17ccc: ea 85        	mv	a1, s10
   17cce: ef 00 50 5c  	jal	0x18a92 <__mcmp>
   17cd2: 42 63        	ld	t1, 0x10(sp)
   17cd4: 02 78        	ld	a6, 0x20(sp)
   17cd6: 63 56 a0 26  	blez	a0, 0x17f42 <__gdtoa+0xf7e>
   17cda: 93 06 90 03  	li	a3, 0x39
   17cde: e3 04 d3 ea  	beq	t1, a3, 0x17b86 <__gdtoa+0xbc2>
   17ce2: 93 07 00 02  	li	a5, 0x20
   17ce6: 1b 83 1c 03  	addiw	t1, s9, 0x31
   17cea: 3e f0        	sd	a5, 0x20(sp)
   17cec: 55 b6        	j	0x17890 <__gdtoa+0x8cc>
   17cee: d3 f7 f7 02  	fadd.d	fa5, fa5, fa5
   17cf2: 83 c6 fc ff  	lbu	a3, -0x1(s9)
   17cf6: 53 16 f7 a2  	flt.d	a2, fa4, fa5
   17cfa: e3 13 06 9e  	bnez	a2, 0x176e0 <__gdtoa+0x71c>
   17cfe: 53 a6 e7 a2  	feq.d	a2, fa5, fa4
   17d02: 01 c6        	beqz	a2, 0x17d0a <__gdtoa+0xd46>
   17d04: 85 8b        	andi	a5, a5, 0x1
   17d06: e3 9d 07 9c  	bnez	a5, 0x176e0 <__gdtoa+0x71c>
   17d0a: e6 87        	mv	a5, s9
   17d0c: c1 49        	li	s3, 0x10
   17d0e: 13 06 00 03  	li	a2, 0x30
   17d12: 03 c7 f7 ff  	lbu	a4, -0x1(a5)
   17d16: be 8c        	mv	s9, a5
   17d18: fd 17        	addi	a5, a5, -0x1
   17d1a: e3 0c c7 fe  	beq	a4, a2, 0x17d12 <__gdtoa+0xd4e>
   17d1e: 1b 89 05 00  	sext.w	s2, a1
   17d22: e1 b4        	j	0x177ea <__gdtoa+0x826>
   17d24: 93 06 10 03  	li	a3, 0x31
   17d28: 85 25        	addiw	a1, a1, 0x1
   17d2a: d1 ba        	j	0x176fe <__gdtoa+0x73a>
   17d2c: 53 07 0f f2  	fmv.d.x	fa4, t5
   17d30: d3 85 06 f2  	fmv.d.x	fa1, a3
   17d34: c2 8c        	mv	s9, a6
   17d36: 53 f6 e7 12  	fmul.d	fa2, fa5, fa4
   17d3a: d3 87 06 f2  	fmv.d.x	fa5, a3
   17d3e: 07 b7 81 15  	fld	fa4, 0x158(gp)
   17d42: 85 46        	li	a3, 0x1
   17d44: 36 c7        	sw	a3, 0x8c(sp)
   17d46: 01 4f        	li	t5, 0x0
   17d48: 29 a0        	j	0x17d52 <__gdtoa+0xd8e>
   17d4a: d3 f7 e7 12  	fmul.d	fa5, fa5, fa4
   17d4e: 2a c7        	sw	a0, 0x8c(sp)
   17d50: 05 4f        	li	t5, 0x1
   17d52: 53 97 07 c2  	fcvt.w.d	a4, fa5, rtz
   17d56: 85 0c        	addi	s9, s9, 0x1
   17d58: 9b 06 07 03  	addiw	a3, a4, 0x30
   17d5c: 1b 05 07 00  	sext.w	a0, a4
   17d60: 93 f6 f6 0f  	andi	a3, a3, 0xff
   17d64: 11 c5        	beqz	a0, 0x17d70 <__gdtoa+0xdac>
   17d66: d3 06 07 d2  	fcvt.d.w	fa3, a4
   17d6a: 05 4f        	li	t5, 0x1
   17d6c: d3 f7 d7 0a  	fsub.d	fa5, fa5, fa3
   17d70: a3 8f dc fe  	sb	a3, -0x1(s9)
   17d74: 3a 47        	lw	a4, 0x8c(sp)
   17d76: 1b 05 17 00  	addiw	a0, a4, 0x1
   17d7a: e3 18 f7 fd  	bne	a4, t6, 0x17d4a <__gdtoa+0xd86>
   17d7e: 63 04 0f 00  	beqz	t5, 0x17d86 <__gdtoa+0xdc2>
   17d82: d3 85 f7 22  	fmv.d	fa1, fa5
   17d86: 87 b7 01 fc  	fld	fa5, -0x40(gp)
   17d8a: 53 77 f6 02  	fadd.d	fa4, fa2, fa5
   17d8e: 53 15 b7 a2  	flt.d	a0, fa4, fa1
   17d92: 63 15 05 10  	bnez	a0, 0x17e9c <__gdtoa+0xed8>
   17d96: d3 f7 c7 0a  	fsub.d	fa5, fa5, fa2
   17d9a: d3 96 f5 a2  	flt.d	a3, fa1, fa5
   17d9e: 63 9e 06 16  	bnez	a3, 0x17f1a <__gdtoa+0xf56>
   17da2: f6 86        	mv	a3, t4
   17da4: 63 48 06 1a  	bltz	a2, 0x17f54 <__gdtoa+0xf90>
   17da8: 02 f0        	sd	zero, 0x20(sp)
   17daa: 98 21        	fld	fa4, 0x0(a1)
   17dac: e3 db 0b 9a  	bgez	s7, 0x17762 <__gdtoa+0x79e>
   17db0: a2 77        	ld	a5, 0x28(sp)
   17db2: e3 98 07 9a  	bnez	a5, 0x17762 <__gdtoa+0x79e>
   17db6: d5 b1        	j	0x17a9a <__gdtoa+0xad6>
   17db8: a6 87        	mv	a5, s1
   17dba: 52 83        	mv	t1, s4
   17dbc: 56 8b        	mv	s6, s5
   17dbe: 42 78        	ld	a6, 0x30(sp)
   17dc0: 22 7a        	ld	s4, 0x28(sp)
   17dc2: 86 64        	ld	s1, 0x40(sp)
   17dc4: be 8a        	mv	s5, a5
   17dc6: 45 be        	j	0x17976 <__gdtoa+0x9b2>
   17dc8: e3 09 07 d0  	beqz	a4, 0x17ada <__gdtoa+0xb16>
   17dcc: e6 7f        	ld	t6, 0x78(sp)
   17dce: 63 57 f0 05  	blez	t6, 0x17e1c <__gdtoa+0xe58>
   17dd2: 87 b7 81 15  	fld	fa5, 0x158(gp)
   17dd6: b7 05 c0 fc  	lui	a1, 0xfcc00
   17dda: d3 77 f7 12  	fmul.d	fa5, fa4, fa5
   17dde: 07 b7 01 16  	fld	fa4, 0x160(gp)
   17de2: fd 53        	li	t2, -0x1
   17de4: 53 85 07 e2  	fmv.x.d	a0, fa5
   17de8: 87 b7 81 16  	fld	fa5, 0x168(gp)
   17dec: d3 06 05 f2  	fmv.d.x	fa3, a0
   17df0: aa 86        	mv	a3, a0
   17df2: c3 f7 e6 7a  	fmadd.d	fa5, fa3, fa4, fa5
   17df6: d3 8a 07 e2  	fmv.x.d	s5, fa5
   17dfa: 13 df 0a 02  	srli	t5, s5, 0x20
   17dfe: bb 85 e5 01  	addw	a1, a1, t5
   17e02: 7d 5f        	li	t5, -0x1
   17e04: 13 5f 0f 02  	srli	t5, t5, 0x20
   17e08: 82 15        	slli	a1, a1, 0x20
   17e0a: 33 7f 5f 01  	and	t5, t5, s5
   17e0e: 33 6f bf 00  	or	t5, t5, a1
   17e12: 6f f0 3f 83  	j	0x17644 <__gdtoa+0x680>
   17e16: 83 c6 fc ff  	lbu	a3, -0x1(s9)
   17e1a: d9 b0        	j	0x176e0 <__gdtoa+0x71c>
   17e1c: f6 86        	mv	a3, t4
   17e1e: 63 4d 06 08  	bltz	a2, 0x17eb8 <__gdtoa+0xef4>
   17e22: f1 65        	lui	a1, 0x1c
   17e24: 93 85 85 95  	addi	a1, a1, -0x6a8
   17e28: 41 b7        	j	0x17da8 <__gdtoa+0xde4>
   17e2a: 09 49        	li	s2, 0x2
   17e2c: 81 45        	li	a1, 0x0
   17e2e: 81 4a        	li	s5, 0x0
   17e30: e1 be        	j	0x17a08 <__gdtoa+0xa44>
   17e32: e2 66        	ld	a3, 0x18(sp)
   17e34: 3a c7        	sw	a4, 0x8c(sp)
   17e36: 3b 0e c7 01  	addw	t3, a4, t3
   17e3a: 35 9f        	addw	a4, a4, a3
   17e3c: b6 8c        	mv	s9, a3
   17e3e: 3a ec        	sd	a4, 0x18(sp)
   17e40: 6f f0 4f c4  	j	0x17284 <__gdtoa+0x2c0>
   17e44: 52 83        	mv	t1, s4
   17e46: 26 ec        	sd	s1, 0x18(sp)
   17e48: 93 06 90 03  	li	a3, 0x39
   17e4c: 42 78        	ld	a6, 0x30(sp)
   17e4e: 22 7a        	ld	s4, 0x28(sp)
   17e50: 86 64        	ld	s1, 0x40(sp)
   17e52: e3 0a d3 d2  	beq	t1, a3, 0x17b86 <__gdtoa+0xbc2>
   17e56: 9b 87 19 00  	addiw	a5, s3, 0x1
   17e5a: 56 8b        	mv	s6, s5
   17e5c: 93 8c 1b 00  	addi	s9, s7, 0x1
   17e60: e2 6a        	ld	s5, 0x18(sp)
   17e62: 23 80 fb 00  	sb	a5, 0x0(s7)
   17e66: 93 09 00 02  	li	s3, 0x20
   17e6a: 3d bc        	j	0x178a8 <__gdtoa+0x8e4>
   17e6c: d6 85        	mv	a1, s5
   17e6e: 81 46        	li	a3, 0x0
   17e70: 29 46        	li	a2, 0xa
   17e72: 22 85        	mv	a0, s0
   17e74: ef 00 40 55  	jal	0x183c8 <__multadd>
   17e78: aa 8a        	mv	s5, a0
   17e7a: 63 09 05 ec  	beqz	a0, 0x1754c <__gdtoa+0x588>
   17e7e: e6 77        	ld	a5, 0x78(sp)
   17e80: 42 63        	ld	t1, 0x10(sp)
   17e82: 62 68        	ld	a6, 0x18(sp)
   17e84: 63 55 f0 00  	blez	a5, 0x17e8e <__gdtoa+0xeca>
   17e88: 3e f4        	sd	a5, 0x28(sp)
   17e8a: 6f f0 0f cc  	j	0x1734a <__gdtoa+0x386>
   17e8e: 89 47        	li	a5, 0x2
   17e90: 63 c6 27 0b  	blt	a5, s2, 0x17f3c <__gdtoa+0xf78>
   17e94: e6 77        	ld	a5, 0x78(sp)
   17e96: 3e f4        	sd	a5, 0x28(sp)
   17e98: 6f f0 2f cb  	j	0x1734a <__gdtoa+0x386>
   17e9c: 9b 85 13 00  	addiw	a1, t2, 0x1
   17ea0: 6f f0 1f 84  	j	0x176e0 <__gdtoa+0x71c>
   17ea4: 53 07 00 f2  	fmv.d.x	fa4, zero
   17ea8: 13 89 13 00  	addi	s2, t2, 0x1
   17eac: d3 a9 e7 a2  	feq.d	s3, fa5, fa4
   17eb0: 93 b9 19 00  	seqz	s3, s3
   17eb4: 92 09        	slli	s3, s3, 0x4
   17eb6: 15 ba        	j	0x177ea <__gdtoa+0x826>
   17eb8: 02 f0        	sd	zero, 0x20(sp)
   17eba: 6f f0 6f b7  	j	0x17230 <__gdtoa+0x26c>
   17ebe: f6 86        	mv	a3, t4
   17ec0: e3 54 06 ee  	bgez	a2, 0x17da8 <__gdtoa+0xde4>
   17ec4: 02 f0        	sd	zero, 0x20(sp)
   17ec6: 6f f0 0f b7  	j	0x17236 <__gdtoa+0x272>
   17eca: 22 77        	ld	a4, 0x28(sp)
   17ecc: 42 76        	ld	a2, 0x30(sp)
   17ece: 9b 06 f7 ff  	addiw	a3, a4, -0x1
   17ed2: 36 8d        	mv	s10, a3
   17ed4: e3 42 d6 be  	blt	a2, a3, 0x17ab8 <__gdtoa+0xaf4>
   17ed8: e2 66        	ld	a3, 0x18(sp)
   17eda: 3b 0e c7 01  	addw	t3, a4, t3
   17ede: 3a c7        	sw	a4, 0x8c(sp)
   17ee0: 35 9f        	addw	a4, a4, a3
   17ee2: b6 8c        	mv	s9, a3
   17ee4: 3b 0d a6 41  	subw	s10, a2, s10
   17ee8: 3a ec        	sd	a4, 0x18(sp)
   17eea: 6f f0 af b9  	j	0x17284 <__gdtoa+0x2c0>
   17eee: 26 ec        	sd	s1, 0x18(sp)
   17ef0: 93 06 90 03  	li	a3, 0x39
   17ef4: 52 83        	mv	t1, s4
   17ef6: 42 78        	ld	a6, 0x30(sp)
   17ef8: 22 7a        	ld	s4, 0x28(sp)
   17efa: 86 64        	ld	s1, 0x40(sp)
   17efc: e3 85 d9 c8  	beq	s3, a3, 0x17b86 <__gdtoa+0xbc2>
   17f00: 63 5f 60 09  	blez	s6, 0x17f9e <__gdtoa+0xfda>
   17f04: 1b 83 1c 03  	addiw	t1, s9, 0x31
   17f08: 93 09 00 02  	li	s3, 0x20
   17f0c: 23 80 6b 00  	sb	t1, 0x0(s7)
   17f10: 56 8b        	mv	s6, s5
   17f12: 93 8c 1b 00  	addi	s9, s7, 0x1
   17f16: e2 6a        	ld	s5, 0x18(sp)
   17f18: 41 ba        	j	0x178a8 <__gdtoa+0x8e4>
   17f1a: d3 07 00 f2  	fmv.d.x	fa5, zero
   17f1e: e6 87        	mv	a5, s9
   17f20: 9b 85 13 00  	addiw	a1, t2, 0x1
   17f24: d3 a9 f5 a2  	feq.d	s3, fa1, fa5
   17f28: 93 b9 19 00  	seqz	s3, s3
   17f2c: 92 09        	slli	s3, s3, 0x4
   17f2e: c5 b3        	j	0x17d0e <__gdtoa+0xd4a>
   17f30: 83 26 8c 01  	lw	a3, 0x18(s8)
   17f34: e3 96 06 96  	bnez	a3, 0x178a0 <__gdtoa+0x8dc>
   17f38: 82 79        	ld	s3, 0x20(sp)
   17f3a: 9d b2        	j	0x178a0 <__gdtoa+0x8dc>
   17f3c: e6 77        	ld	a5, 0x78(sp)
   17f3e: 3e f4        	sd	a5, 0x28(sp)
   17f40: 51 bc        	j	0x179d4 <__gdtoa+0xa10>
   17f42: 09 e5        	bnez	a0, 0x17f4c <__gdtoa+0xf88>
   17f44: 93 76 13 00  	andi	a3, t1, 0x1
   17f48: e3 99 06 d8  	bnez	a3, 0x17cda <__gdtoa+0xd16>
   17f4c: 93 07 00 02  	li	a5, 0x20
   17f50: 3e f0        	sd	a5, 0x20(sp)
   17f52: 3d ba        	j	0x17890 <__gdtoa+0x8cc>
   17f54: 42 7d        	ld	s10, 0x30(sp)
   17f56: e2 6c        	ld	s9, 0x18(sp)
   17f58: 02 f0        	sd	zero, 0x20(sp)
   17f5a: 81 4a        	li	s5, 0x0
   17f5c: 6f f0 6f b4  	j	0x172a2 <__gdtoa+0x2de>
   17f60: 5a ec        	sd	s6, 0x18(sp)
   17f62: 93 06 90 03  	li	a3, 0x39
   17f66: 6e 88        	mv	a6, s11
   17f68: 63 8b d9 00  	beq	s3, a3, 0x17f7e <__gdtoa+0xfba>
   17f6c: 1b 83 19 00  	addiw	t1, s3, 0x1
   17f70: 93 09 00 02  	li	s3, 0x20
   17f74: 35 b2        	j	0x178a0 <__gdtoa+0x8dc>
   17f76: c1 49        	li	s3, 0x10
   17f78: 93 8c 1b 00  	addi	s9, s7, 0x1
   17f7c: 15 b2        	j	0x178a0 <__gdtoa+0x8dc>
   17f7e: 56 8b        	mv	s6, s5
   17f80: de 86        	mv	a3, s7
   17f82: e2 6a        	ld	s5, 0x18(sp)
   17f84: 31 b1        	j	0x17b90 <__gdtoa+0xbcc>
   17f86: 03 26 4c 01  	lw	a2, 0x14(s8)
   17f8a: 85 46        	li	a3, 0x1
   17f8c: 63 c4 c6 cc  	blt	a3, a2, 0x17454 <__gdtoa+0x490>
   17f90: 83 26 8c 01  	lw	a3, 0x18(s8)
   17f94: 63 90 06 cc  	bnez	a3, 0x17454 <__gdtoa+0x490>
   17f98: 93 8c 1b 00  	addi	s9, s7, 0x1
   17f9c: 11 b2        	j	0x178a0 <__gdtoa+0x8dc>
   17f9e: 03 26 4c 01  	lw	a2, 0x14(s8)
   17fa2: 85 46        	li	a3, 0x1
   17fa4: c1 49        	li	s3, 0x10
   17fa6: e3 c3 c6 f6  	blt	a3, a2, 0x17f0c <__gdtoa+0xf48>
   17faa: 83 29 8c 01  	lw	s3, 0x18(s8)
   17fae: b3 39 30 01  	snez	s3, s3
   17fb2: 92 09        	slli	s3, s3, 0x4
   17fb4: a1 bf        	j	0x17f0c <__gdtoa+0xf48>
   17fb6: 63 4e 0b 00  	bltz	s6, 0x17fd2 <__gdtoa+0x100e>
   17fba: b3 67 69 01  	or	a5, s2, s6
   17fbe: 81 27        	sext.w	a5, a5
   17fc0: 89 e7        	bnez	a5, 0x17fca <__gdtoa+0x1006>
   17fc2: c2 67        	ld	a5, 0x10(sp)
   17fc4: 9c 43        	lw	a5, 0x0(a5)
   17fc6: 85 8b        	andi	a5, a5, 0x1
   17fc8: 89 c7        	beqz	a5, 0x17fd2 <__gdtoa+0x100e>
   17fca: 63 53 d0 bc  	blez	a3, 0x17390 <__gdtoa+0x3cc>
   17fce: 6f f0 af bb  	j	0x17388 <__gdtoa+0x3c4>
   17fd2: 82 77        	ld	a5, 0x20(sp)
   17fd4: 26 ec        	sd	s1, 0x18(sp)
   17fd6: 52 83        	mv	t1, s4
   17fd8: 42 78        	ld	a6, 0x30(sp)
   17fda: 22 7a        	ld	s4, 0x28(sp)
   17fdc: 86 64        	ld	s1, 0x40(sp)
   17fde: 85 c3        	beqz	a5, 0x17ffe <__gdtoa+0x103a>
   17fe0: 83 25 4c 01  	lw	a1, 0x14(s8)
   17fe4: 05 46        	li	a2, 0x1
   17fe6: 63 47 b6 c6  	blt	a2, a1, 0x17454 <__gdtoa+0x490>
   17fea: 03 26 8c 01  	lw	a2, 0x18(s8)
   17fee: 63 13 06 c6  	bnez	a2, 0x17454 <__gdtoa+0x490>
   17ff2: e3 43 d0 cc  	bgtz	a3, 0x17cb8 <__gdtoa+0xcf4>
   17ff6: 81 49        	li	s3, 0x0
   17ff8: 93 8c 1b 00  	addi	s9, s7, 0x1
   17ffc: 55 b0        	j	0x178a0 <__gdtoa+0x8dc>
   17ffe: e3 59 d0 88  	blez	a3, 0x17890 <__gdtoa+0x8cc>
   18002: 5d b9        	j	0x17cb8 <__gdtoa+0xcf4>

0000000000018004 <__rv_alloc_D2A>:
   18004: 41 11        	addi	sp, sp, -0x10
   18006: 22 e0        	sd	s0, 0x0(sp)
   18008: 06 e4        	sd	ra, 0x8(sp)
   1800a: ed 47        	li	a5, 0x1b
   1800c: 01 44        	li	s0, 0x0
   1800e: 63 fa b7 00  	bgeu	a5, a1, 0x18022 <__rv_alloc_D2A+0x1e>
   18012: 91 47        	li	a5, 0x4
   18014: 9b 97 17 00  	slliw	a5, a5, 0x1
   18018: 13 87 87 01  	addi	a4, a5, 0x18
   1801c: 05 24        	addiw	s0, s0, 0x1
   1801e: e3 fb e5 fe  	bgeu	a1, a4, 0x18014 <__rv_alloc_D2A+0x10>
   18022: a2 85        	mv	a1, s0
   18024: ef 00 e0 32  	jal	0x18352 <_Balloc>
   18028: 19 c1        	beqz	a0, 0x1802e <__rv_alloc_D2A+0x2a>
   1802a: 00 c1        	sw	s0, 0x0(a0)
   1802c: 11 05        	addi	a0, a0, 0x4
   1802e: a2 60        	ld	ra, 0x8(sp)
   18030: 02 64        	ld	s0, 0x0(sp)
   18032: 41 01        	addi	sp, sp, 0x10
   18034: 82 80        	ret

0000000000018036 <__nrv_alloc_D2A>:
   18036: 01 11        	addi	sp, sp, -0x20
   18038: 22 e8        	sd	s0, 0x10(sp)
   1803a: 4a e0        	sd	s2, 0x0(sp)
   1803c: 06 ec        	sd	ra, 0x18(sp)
   1803e: 26 e4        	sd	s1, 0x8(sp)
   18040: ed 47        	li	a5, 0x1b
   18042: 2e 84        	mv	s0, a1
   18044: 32 89        	mv	s2, a2
   18046: 63 fb d7 04  	bgeu	a5, a3, 0x1809c <__nrv_alloc_D2A+0x66>
   1804a: 91 47        	li	a5, 0x4
   1804c: 81 44        	li	s1, 0x0
   1804e: 9b 97 17 00  	slliw	a5, a5, 0x1
   18052: 13 87 87 01  	addi	a4, a5, 0x18
   18056: 85 24        	addiw	s1, s1, 0x1
   18058: e3 fb e6 fe  	bgeu	a3, a4, 0x1804e <__nrv_alloc_D2A+0x18>
   1805c: a6 85        	mv	a1, s1
   1805e: ef 00 40 2f  	jal	0x18352 <_Balloc>
   18062: aa 87        	mv	a5, a0
   18064: 15 cd        	beqz	a0, 0x180a0 <__nrv_alloc_D2A+0x6a>
   18066: 04 c1        	sw	s1, 0x0(a0)
   18068: 03 47 04 00  	lbu	a4, 0x0(s0)
   1806c: 11 05        	addi	a0, a0, 0x4
   1806e: 93 05 14 00  	addi	a1, s0, 0x1
   18072: 23 82 e7 00  	sb	a4, 0x4(a5)
   18076: aa 87        	mv	a5, a0
   18078: 01 cb        	beqz	a4, 0x18088 <__nrv_alloc_D2A+0x52>
   1807a: 03 c7 05 00  	lbu	a4, 0x0(a1)
   1807e: 85 07        	addi	a5, a5, 0x1
   18080: 85 05        	addi	a1, a1, 0x1
   18082: 23 80 e7 00  	sb	a4, 0x0(a5)
   18086: 75 fb        	bnez	a4, 0x1807a <__nrv_alloc_D2A+0x44>
   18088: 63 04 09 00  	beqz	s2, 0x18090 <__nrv_alloc_D2A+0x5a>
   1808c: 23 30 f9 00  	sd	a5, 0x0(s2)
   18090: e2 60        	ld	ra, 0x18(sp)
   18092: 42 64        	ld	s0, 0x10(sp)
   18094: a2 64        	ld	s1, 0x8(sp)
   18096: 02 69        	ld	s2, 0x0(sp)
   18098: 05 61        	addi	sp, sp, 0x20
   1809a: 82 80        	ret
   1809c: 81 44        	li	s1, 0x0
   1809e: 7d bf        	j	0x1805c <__nrv_alloc_D2A+0x26>
   180a0: 01 45        	li	a0, 0x0
   180a2: fd b7        	j	0x18090 <__nrv_alloc_D2A+0x5a>

00000000000180a4 <__freedtoa>:
   180a4: 83 a7 c5 ff  	lw	a5, -0x4(a1)
   180a8: 85 46        	li	a3, 0x1
   180aa: 2e 87        	mv	a4, a1
   180ac: bb 96 f6 00  	sllw	a3, a3, a5
   180b0: 82 17        	slli	a5, a5, 0x20
   180b2: 82 16        	slli	a3, a3, 0x20
   180b4: 81 93        	srli	a5, a5, 0x20
   180b6: d5 8f        	or	a5, a5, a3
   180b8: f1 15        	addi	a1, a1, -0x4
   180ba: 23 32 f7 00  	sd	a5, 0x4(a4)
   180be: e5 ac        	j	0x183b6 <_Bfree>

00000000000180c0 <__quorem_D2A>:
   180c0: 39 71        	addi	sp, sp, -0x40
   180c2: 26 f4        	sd	s1, 0x28(sp)
   180c4: 5c 49        	lw	a5, 0x14(a0)
   180c6: c4 49        	lw	s1, 0x14(a1)
   180c8: 06 fc        	sd	ra, 0x38(sp)
   180ca: 63 ce 97 14  	blt	a5, s1, 0x18226 <__quorem_D2A+0x166>
   180ce: fd 34        	addiw	s1, s1, -0x1
   180d0: 13 93 24 00  	slli	t1, s1, 0x2
   180d4: 22 f8        	sd	s0, 0x30(sp)
   180d6: 13 84 85 01  	addi	s0, a1, 0x18
   180da: 4a f0        	sd	s2, 0x20(sp)
   180dc: 4e ec        	sd	s3, 0x18(sp)
   180de: 33 09 64 00  	add	s2, s0, t1
   180e2: 93 09 85 01  	addi	s3, a0, 0x18
   180e6: 56 e4        	sd	s5, 0x8(sp)
   180e8: 4e 93        	add	t1, t1, s3
   180ea: 83 2a 09 00  	lw	s5, 0x0(s2)
   180ee: 83 27 03 00  	lw	a5, 0x0(t1)
   180f2: 5a e0        	sd	s6, 0x0(sp)
   180f4: 1b 87 1a 00  	addiw	a4, s5, 0x1
   180f8: 3b db e7 02  	divuw	s6, a5, a4
   180fc: 52 e8        	sd	s4, 0x10(sp)
   180fe: 2a 8a        	mv	s4, a0
   18100: da 8a        	mv	s5, s6
   18102: 63 ea e7 08  	bltu	a5, a4, 0x18196 <__quorem_D2A+0xd6>
   18106: 41 68        	lui	a6, 0x10
   18108: 22 85        	mv	a0, s0
   1810a: ce 88        	mv	a7, s3
   1810c: 01 4f        	li	t5, 0x0
   1810e: 81 4e        	li	t4, 0x0
   18110: 7d 18        	addi	a6, a6, -0x1
   18112: 18 41        	lw	a4, 0x0(a0)
   18114: 03 a6 08 00  	lw	a2, 0x0(a7)
   18118: 91 08        	addi	a7, a7, 0x4
   1811a: b3 76 07 01  	and	a3, a4, a6
   1811e: bb 86 66 03  	mulw	a3, a3, s6
   18122: 1b 57 07 01  	srliw	a4, a4, 0x10
   18126: b3 77 06 01  	and	a5, a2, a6
   1812a: 1b 5e 06 01  	srliw	t3, a2, 0x10
   1812e: 11 05        	addi	a0, a0, 0x4
   18130: 3b 07 67 03  	mulw	a4, a4, s6
   18134: bb 86 e6 01  	addw	a3, a3, t5
   18138: 33 76 d8 00  	and	a2, a6, a3
   1813c: 91 9f        	subw	a5, a5, a2
   1813e: bb 87 d7 41  	subw	a5, a5, t4
   18142: 9b d6 06 01  	srliw	a3, a3, 0x10
   18146: 1b d6 07 01  	srliw	a2, a5, 0x10
   1814a: 05 8a        	andi	a2, a2, 0x1
   1814c: b3 77 f8 00  	and	a5, a6, a5
   18150: 35 9f        	addw	a4, a4, a3
   18152: b3 76 e8 00  	and	a3, a6, a4
   18156: 35 9e        	addw	a2, a2, a3
   18158: bb 06 ce 40  	subw	a3, t3, a2
   1815c: 1b 96 06 01  	slliw	a2, a3, 0x10
   18160: d1 8f        	or	a5, a5, a2
   18162: 9b d6 06 01  	srliw	a3, a3, 0x10
   18166: 23 ae f8 fe  	sw	a5, -0x4(a7)
   1816a: 1b 5f 07 01  	srliw	t5, a4, 0x10
   1816e: 93 fe 16 00  	andi	t4, a3, 0x1
   18172: e3 70 a9 fa  	bgeu	s2, a0, 0x18112 <__quorem_D2A+0x52>
   18176: 83 27 03 00  	lw	a5, 0x0(t1)
   1817a: 91 ef        	bnez	a5, 0x18196 <__quorem_D2A+0xd6>
   1817c: 71 13        	addi	t1, t1, -0x4
   1817e: 63 e6 69 00  	bltu	s3, t1, 0x1818a <__quorem_D2A+0xca>
   18182: 01 a8        	j	0x18192 <__quorem_D2A+0xd2>
   18184: fd 34        	addiw	s1, s1, -0x1
   18186: 63 f6 69 00  	bgeu	s3, t1, 0x18192 <__quorem_D2A+0xd2>
   1818a: 83 27 03 00  	lw	a5, 0x0(t1)
   1818e: 71 13        	addi	t1, t1, -0x4
   18190: f5 db        	beqz	a5, 0x18184 <__quorem_D2A+0xc4>
   18192: 23 2a 9a 00  	sw	s1, 0x14(s4)
   18196: 52 85        	mv	a0, s4
   18198: ef 00 b0 0f  	jal	0x18a92 <__mcmp>
   1819c: 63 49 05 06  	bltz	a0, 0x1820e <__quorem_D2A+0x14e>
   181a0: 41 65        	lui	a0, 0x10
   181a2: 4e 86        	mv	a2, s3
   181a4: 81 45        	li	a1, 0x0
   181a6: 7d 15        	addi	a0, a0, -0x1
   181a8: 18 42        	lw	a4, 0x0(a2)
   181aa: 14 40        	lw	a3, 0x0(s0)
   181ac: 11 06        	addi	a2, a2, 0x4
   181ae: b3 77 a7 00  	and	a5, a4, a0
   181b2: 33 f8 a6 00  	and	a6, a3, a0
   181b6: bb 87 07 41  	subw	a5, a5, a6
   181ba: 8d 9f        	subw	a5, a5, a1
   181bc: 9b d5 07 01  	srliw	a1, a5, 0x10
   181c0: 85 89        	andi	a1, a1, 0x1
   181c2: 9b d6 06 01  	srliw	a3, a3, 0x10
   181c6: ad 9e        	addw	a3, a3, a1
   181c8: 1b 57 07 01  	srliw	a4, a4, 0x10
   181cc: 15 9f        	subw	a4, a4, a3
   181ce: 9b 16 07 01  	slliw	a3, a4, 0x10
   181d2: e9 8f        	and	a5, a5, a0
   181d4: d5 8f        	or	a5, a5, a3
   181d6: 1b 57 07 01  	srliw	a4, a4, 0x10
   181da: 11 04        	addi	s0, s0, 0x4
   181dc: 23 2e f6 fe  	sw	a5, -0x4(a2)
   181e0: 93 75 17 00  	andi	a1, a4, 0x1
   181e4: e3 72 89 fc  	bgeu	s2, s0, 0x181a8 <__quorem_D2A+0xe8>
   181e8: 93 97 24 00  	slli	a5, s1, 0x2
   181ec: ce 97        	add	a5, a5, s3
   181ee: 98 43        	lw	a4, 0x0(a5)
   181f0: 09 ef        	bnez	a4, 0x1820a <__quorem_D2A+0x14a>
   181f2: f1 17        	addi	a5, a5, -0x4
   181f4: 63 e6 f9 00  	bltu	s3, a5, 0x18200 <__quorem_D2A+0x140>
   181f8: 39 a0        	j	0x18206 <__quorem_D2A+0x146>
   181fa: fd 34        	addiw	s1, s1, -0x1
   181fc: 63 f5 f9 00  	bgeu	s3, a5, 0x18206 <__quorem_D2A+0x146>
   18200: 98 43        	lw	a4, 0x0(a5)
   18202: f1 17        	addi	a5, a5, -0x4
   18204: 7d db        	beqz	a4, 0x181fa <__quorem_D2A+0x13a>
   18206: 23 2a 9a 00  	sw	s1, 0x14(s4)
   1820a: 1b 8b 1a 00  	addiw	s6, s5, 0x1
   1820e: 42 74        	ld	s0, 0x30(sp)
   18210: e2 70        	ld	ra, 0x38(sp)
   18212: 02 79        	ld	s2, 0x20(sp)
   18214: e2 69        	ld	s3, 0x18(sp)
   18216: 42 6a        	ld	s4, 0x10(sp)
   18218: a2 6a        	ld	s5, 0x8(sp)
   1821a: a2 74        	ld	s1, 0x28(sp)
   1821c: 1b 05 0b 00  	sext.w	a0, s6
   18220: 02 6b        	ld	s6, 0x0(sp)
   18222: 21 61        	addi	sp, sp, 0x40
   18224: 82 80        	ret
   18226: e2 70        	ld	ra, 0x38(sp)
   18228: a2 74        	ld	s1, 0x28(sp)
   1822a: 01 45        	li	a0, 0x0
   1822c: 21 61        	addi	sp, sp, 0x40
   1822e: 82 80        	ret

0000000000018230 <__rshift_D2A>:
   18230: 58 49        	lw	a4, 0x14(a0)
   18232: 13 de 55 40  	srai	t3, a1, 0x5
   18236: 63 47 ee 00  	blt	t3, a4, 0x18244 <__rshift_D2A+0x14>
   1823a: 23 2a 05 00  	sw	zero, 0x14(a0)
   1823e: 23 2c 05 00  	sw	zero, 0x18(a0)
   18242: 82 80        	ret
   18244: 13 03 85 01  	addi	t1, a0, 0x18
   18248: 13 18 27 00  	slli	a6, a4, 0x2
   1824c: 93 17 2e 00  	slli	a5, t3, 0x2
   18250: fd 89        	andi	a1, a1, 0x1f
   18252: 1a 98        	add	a6, a6, t1
   18254: 9a 97        	add	a5, a5, t1
   18256: b9 c1        	beqz	a1, 0x1829c <__rshift_D2A+0x6c>
   18258: 90 43        	lw	a2, 0x0(a5)
   1825a: 93 0e 00 02  	li	t4, 0x20
   1825e: 91 07        	addi	a5, a5, 0x4
   18260: bb 56 b6 00  	srlw	a3, a2, a1
   18264: bb 8e be 40  	subw	t4, t4, a1
   18268: 63 ff 07 05  	bgeu	a5, a6, 0x182c6 <__rshift_D2A+0x96>
   1826c: 9a 88        	mv	a7, t1
   1826e: 90 43        	lw	a2, 0x0(a5)
   18270: 91 08        	addi	a7, a7, 0x4
   18272: 91 07        	addi	a5, a5, 0x4
   18274: 3b 16 d6 01  	sllw	a2, a2, t4
   18278: d1 8e        	or	a3, a3, a2
   1827a: 23 ae d8 fe  	sw	a3, -0x4(a7)
   1827e: 03 a6 c7 ff  	lw	a2, -0x4(a5)
   18282: bb 56 b6 00  	srlw	a3, a2, a1
   18286: e3 e4 07 ff  	bltu	a5, a6, 0x1826e <__rshift_D2A+0x3e>
   1828a: 33 07 c7 41  	sub	a4, a4, t3
   1828e: 0a 07        	slli	a4, a4, 0x2
   18290: 71 17        	addi	a4, a4, -0x4
   18292: 1a 97        	add	a4, a4, t1
   18294: 14 c3        	sw	a3, 0x0(a4)
   18296: 8d c2        	beqz	a3, 0x182b8 <__rshift_D2A+0x88>
   18298: 11 07        	addi	a4, a4, 0x4
   1829a: 39 a8        	j	0x182b8 <__rshift_D2A+0x88>
   1829c: 9a 86        	mv	a3, t1
   1829e: e3 fe 07 f9  	bgeu	a5, a6, 0x1823a <__rshift_D2A+0xa>
   182a2: 90 43        	lw	a2, 0x0(a5)
   182a4: 91 07        	addi	a5, a5, 0x4
   182a6: 91 06        	addi	a3, a3, 0x4
   182a8: 23 ae c6 fe  	sw	a2, -0x4(a3)
   182ac: e3 eb 07 ff  	bltu	a5, a6, 0x182a2 <__rshift_D2A+0x72>
   182b0: 33 07 c7 41  	sub	a4, a4, t3
   182b4: 0a 07        	slli	a4, a4, 0x2
   182b6: 1a 97        	add	a4, a4, t1
   182b8: 33 07 67 40  	sub	a4, a4, t1
   182bc: 09 87        	srai	a4, a4, 0x2
   182be: 01 27        	sext.w	a4, a4
   182c0: 58 c9        	sw	a4, 0x14(a0)
   182c2: 35 df        	beqz	a4, 0x1823e <__rshift_D2A+0xe>
   182c4: 82 80        	ret
   182c6: 14 cd        	sw	a3, 0x18(a0)
   182c8: ad da        	beqz	a3, 0x1823a <__rshift_D2A+0xa>
   182ca: 1a 87        	mv	a4, t1
   182cc: 11 07        	addi	a4, a4, 0x4
   182ce: ed b7        	j	0x182b8 <__rshift_D2A+0x88>

00000000000182d0 <__trailz_D2A>:
   182d0: 58 49        	lw	a4, 0x14(a0)
   182d2: 01 11        	addi	sp, sp, -0x20
   182d4: 61 05        	addi	a0, a0, 0x18
   182d6: 0a 07        	slli	a4, a4, 0x2
   182d8: 22 e8        	sd	s0, 0x10(sp)
   182da: 06 ec        	sd	ra, 0x18(sp)
   182dc: 2a 97        	add	a4, a4, a0
   182de: 01 44        	li	s0, 0x0
   182e0: 63 68 e5 00  	bltu	a0, a4, 0x182f0 <__trailz_D2A+0x20>
   182e4: 39 a8        	j	0x18302 <__trailz_D2A+0x32>
   182e6: 11 05        	addi	a0, a0, 0x4
   182e8: 1b 04 04 02  	addiw	s0, s0, 0x20
   182ec: 63 7b e5 00  	bgeu	a0, a4, 0x18302 <__trailz_D2A+0x32>
   182f0: 1c 41        	lw	a5, 0x0(a0)
   182f2: f5 db        	beqz	a5, 0x182e6 <__trailz_D2A+0x16>
   182f4: 63 77 e5 00  	bgeu	a0, a4, 0x18302 <__trailz_D2A+0x32>
   182f8: 68 00        	addi	a0, sp, 0xc
   182fa: 3e c6        	sw	a5, 0xc(sp)
   182fc: ef 00 60 2f  	jal	0x185f2 <__lo0bits>
   18300: 29 9c        	addw	s0, s0, a0
   18302: e2 60        	ld	ra, 0x18(sp)
   18304: 22 85        	mv	a0, s0
   18306: 42 64        	ld	s0, 0x10(sp)
   18308: 05 61        	addi	sp, sp, 0x20
   1830a: 82 80        	ret

000000000001830c <_mbtowc_r>:
   1830c: 83 b7 81 e0  	ld	a5, -0x1f8(gp)
   18310: 82 87        	jr	a5

0000000000018312 <__ascii_mbtowc>:
   18312: 99 c9        	beqz	a1, 0x18328 <__ascii_mbtowc+0x16>
   18314: 1d c6        	beqz	a2, 0x18342 <__ascii_mbtowc+0x30>
   18316: 95 ca        	beqz	a3, 0x1834a <__ascii_mbtowc+0x38>
   18318: 83 47 06 00  	lbu	a5, 0x0(a2)
   1831c: 9c c1        	sw	a5, 0x0(a1)
   1831e: 03 45 06 00  	lbu	a0, 0x0(a2)
   18322: 33 35 a0 00  	snez	a0, a0
   18326: 82 80        	ret
   18328: 41 11        	addi	sp, sp, -0x10
   1832a: 6c 00        	addi	a1, sp, 0xc
   1832c: 09 ce        	beqz	a2, 0x18346 <__ascii_mbtowc+0x34>
   1832e: 85 c2        	beqz	a3, 0x1834e <__ascii_mbtowc+0x3c>
   18330: 83 47 06 00  	lbu	a5, 0x0(a2)
   18334: 9c c1        	sw	a5, 0x0(a1)
   18336: 03 45 06 00  	lbu	a0, 0x0(a2)
   1833a: 33 35 a0 00  	snez	a0, a0
   1833e: 41 01        	addi	sp, sp, 0x10
   18340: 82 80        	ret
   18342: 01 45        	li	a0, 0x0
   18344: 82 80        	ret
   18346: 01 45        	li	a0, 0x0
   18348: dd bf        	j	0x1833e <__ascii_mbtowc+0x2c>
   1834a: 79 55        	li	a0, -0x2
   1834c: 82 80        	ret
   1834e: 79 55        	li	a0, -0x2
   18350: fd b7        	j	0x1833e <__ascii_mbtowc+0x2c>

0000000000018352 <_Balloc>:
   18352: 3c 75        	ld	a5, 0x68(a0)
   18354: 01 11        	addi	sp, sp, -0x20
   18356: 22 e8        	sd	s0, 0x10(sp)
   18358: 26 e4        	sd	s1, 0x8(sp)
   1835a: 06 ec        	sd	ra, 0x18(sp)
   1835c: aa 84        	mv	s1, a0
   1835e: 2e 84        	mv	s0, a1
   18360: 99 cf        	beqz	a5, 0x1837e <_Balloc+0x2c>
   18362: 13 17 34 00  	slli	a4, s0, 0x3
   18366: ba 97        	add	a5, a5, a4
   18368: 88 63        	ld	a0, 0x0(a5)
   1836a: 05 c5        	beqz	a0, 0x18392 <_Balloc+0x40>
   1836c: 18 61        	ld	a4, 0x0(a0)
   1836e: 98 e3        	sd	a4, 0x0(a5)
   18370: 23 38 05 00  	sd	zero, 0x10(a0)
   18374: e2 60        	ld	ra, 0x18(sp)
   18376: 42 64        	ld	s0, 0x10(sp)
   18378: a2 64        	ld	s1, 0x8(sp)
   1837a: 05 61        	addi	sp, sp, 0x20
   1837c: 82 80        	ret
   1837e: 13 06 10 04  	li	a2, 0x41
   18382: a1 45        	li	a1, 0x8
   18384: ef 10 00 39  	jal	0x19714 <_calloc_r>
   18388: a8 f4        	sd	a0, 0x68(s1)
   1838a: aa 87        	mv	a5, a0
   1838c: 79 f9        	bnez	a0, 0x18362 <_Balloc+0x10>
   1838e: 01 45        	li	a0, 0x0
   18390: d5 b7        	j	0x18374 <_Balloc+0x22>
   18392: 85 47        	li	a5, 0x1
   18394: bb 97 87 00  	sllw	a5, a5, s0
   18398: 1b 86 07 00  	sext.w	a2, a5
   1839c: 1d 06        	addi	a2, a2, 0x7
   1839e: 02 14        	slli	s0, s0, 0x20
   183a0: 82 17        	slli	a5, a5, 0x20
   183a2: 01 90        	srli	s0, s0, 0x20
   183a4: 0a 06        	slli	a2, a2, 0x2
   183a6: 85 45        	li	a1, 0x1
   183a8: 26 85        	mv	a0, s1
   183aa: 5d 8c        	or	s0, s0, a5
   183ac: ef 10 80 36  	jal	0x19714 <_calloc_r>
   183b0: 79 dd        	beqz	a0, 0x1838e <_Balloc+0x3c>
   183b2: 00 e5        	sd	s0, 0x8(a0)
   183b4: 75 bf        	j	0x18370 <_Balloc+0x1e>

00000000000183b6 <_Bfree>:
   183b6: 81 c9        	beqz	a1, 0x183c6 <_Bfree+0x10>
   183b8: 98 45        	lw	a4, 0x8(a1)
   183ba: 3c 75        	ld	a5, 0x68(a0)
   183bc: 0e 07        	slli	a4, a4, 0x3
   183be: ba 97        	add	a5, a5, a4
   183c0: 98 63        	ld	a4, 0x0(a5)
   183c2: 98 e1        	sd	a4, 0x0(a1)
   183c4: 8c e3        	sd	a1, 0x0(a5)
   183c6: 82 80        	ret

00000000000183c8 <__multadd>:
   183c8: 79 71        	addi	sp, sp, -0x30
   183ca: 22 f0        	sd	s0, 0x20(sp)
   183cc: c0 49        	lw	s0, 0x14(a1)
   183ce: 41 63        	lui	t1, 0x10
   183d0: 4a e8        	sd	s2, 0x10(sp)
   183d2: 4e e4        	sd	s3, 0x8(sp)
   183d4: 06 f4        	sd	ra, 0x28(sp)
   183d6: 26 ec        	sd	s1, 0x18(sp)
   183d8: 2e 89        	mv	s2, a1
   183da: aa 89        	mv	s3, a0
   183dc: 13 88 85 01  	addi	a6, a1, 0x18
   183e0: 81 48        	li	a7, 0x0
   183e2: 7d 13        	addi	t1, t1, -0x1
   183e4: 83 27 08 00  	lw	a5, 0x0(a6)
   183e8: 11 08        	addi	a6, a6, 0x4
   183ea: 85 28        	addiw	a7, a7, 0x1
   183ec: 33 f7 67 00  	and	a4, a5, t1
   183f0: 3b 07 c7 02  	mulw	a4, a4, a2
   183f4: 9b d7 07 01  	srliw	a5, a5, 0x10
   183f8: bb 87 c7 02  	mulw	a5, a5, a2
   183fc: 35 9f        	addw	a4, a4, a3
   183fe: 9b 56 07 01  	srliw	a3, a4, 0x10
   18402: 33 77 e3 00  	and	a4, t1, a4
   18406: b5 9f        	addw	a5, a5, a3
   18408: 9b 96 07 01  	slliw	a3, a5, 0x10
   1840c: 35 9f        	addw	a4, a4, a3
   1840e: 23 2e e8 fe  	sw	a4, -0x4(a6)
   18412: 9b d4 07 01  	srliw	s1, a5, 0x10
   18416: 9b d6 07 01  	srliw	a3, a5, 0x10
   1841a: e3 c5 88 fc  	blt	a7, s0, 0x183e4 <__multadd+0x1c>
   1841e: 89 ce        	beqz	a3, 0x18438 <__multadd+0x70>
   18420: 83 27 c9 00  	lw	a5, 0xc(s2)
   18424: 63 52 f4 02  	bge	s0, a5, 0x18448 <__multadd+0x80>
   18428: 93 07 44 00  	addi	a5, s0, 0x4
   1842c: 8a 07        	slli	a5, a5, 0x2
   1842e: ca 97        	add	a5, a5, s2
   18430: 84 c7        	sw	s1, 0x8(a5)
   18432: 05 24        	addiw	s0, s0, 0x1
   18434: 23 2a 89 00  	sw	s0, 0x14(s2)
   18438: a2 70        	ld	ra, 0x28(sp)
   1843a: 02 74        	ld	s0, 0x20(sp)
   1843c: e2 64        	ld	s1, 0x18(sp)
   1843e: a2 69        	ld	s3, 0x8(sp)
   18440: 4a 85        	mv	a0, s2
   18442: 42 69        	ld	s2, 0x10(sp)
   18444: 45 61        	addi	sp, sp, 0x30
   18446: 82 80        	ret
   18448: 83 25 89 00  	lw	a1, 0x8(s2)
   1844c: 4e 85        	mv	a0, s3
   1844e: 52 e0        	sd	s4, 0x0(sp)
   18450: 85 25        	addiw	a1, a1, 0x1
   18452: ef f0 1f f0  	jal	0x18352 <_Balloc>
   18456: 2a 8a        	mv	s4, a0
   18458: 21 c1        	beqz	a0, 0x18498 <__multadd+0xd0>
   1845a: 03 26 49 01  	lw	a2, 0x14(s2)
   1845e: 93 05 09 01  	addi	a1, s2, 0x10
   18462: 41 05        	addi	a0, a0, 0x10
   18464: 09 06        	addi	a2, a2, 0x2
   18466: 0a 06        	slli	a2, a2, 0x2
   18468: ef e0 0f e2  	jal	0x16a88 <memcpy>
   1846c: 03 27 89 00  	lw	a4, 0x8(s2)
   18470: 83 b7 89 06  	ld	a5, 0x68(s3)
   18474: 0e 07        	slli	a4, a4, 0x3
   18476: ba 97        	add	a5, a5, a4
   18478: 98 63        	ld	a4, 0x0(a5)
   1847a: 23 30 e9 00  	sd	a4, 0x0(s2)
   1847e: 23 b0 27 01  	sd	s2, 0x0(a5)
   18482: 93 07 44 00  	addi	a5, s0, 0x4
   18486: 52 89        	mv	s2, s4
   18488: 8a 07        	slli	a5, a5, 0x2
   1848a: ca 97        	add	a5, a5, s2
   1848c: 02 6a        	ld	s4, 0x0(sp)
   1848e: 05 24        	addiw	s0, s0, 0x1
   18490: 84 c7        	sw	s1, 0x8(a5)
   18492: 23 2a 89 00  	sw	s0, 0x14(s2)
   18496: 4d b7        	j	0x18438 <__multadd+0x70>
   18498: ed 66        	lui	a3, 0x1b
   1849a: 6d 65        	lui	a0, 0x1b
   1849c: 93 86 06 1c  	addi	a3, a3, 0x1c0
   184a0: 01 46        	li	a2, 0x0
   184a2: 93 05 a0 0b  	li	a1, 0xba
   184a6: 13 05 85 1d  	addi	a0, a0, 0x1d8
   184aa: ef 10 20 22  	jal	0x196cc <__assert_func>

00000000000184ae <__s2b>:
   184ae: 39 71        	addi	sp, sp, -0x40
   184b0: 22 f8        	sd	s0, 0x30(sp)
   184b2: 26 f4        	sd	s1, 0x28(sp)
   184b4: 4a f0        	sd	s2, 0x20(sp)
   184b6: 4e ec        	sd	s3, 0x18(sp)
   184b8: 52 e8        	sd	s4, 0x10(sp)
   184ba: b6 84        	mv	s1, a3
   184bc: 2e 84        	mv	s0, a1
   184be: a1 26        	addiw	a3, a3, 0x8
   184c0: a5 45        	li	a1, 0x9
   184c2: 06 fc        	sd	ra, 0x38(sp)
   184c4: a5 47        	li	a5, 0x9
   184c6: bb c6 b6 02  	divw	a3, a3, a1
   184ca: 2a 89        	mv	s2, a0
   184cc: 32 8a        	mv	s4, a2
   184ce: ba 89        	mv	s3, a4
   184d0: 63 d3 97 0a  	bge	a5, s1, 0x18576 <__s2b+0xc8>
   184d4: 85 47        	li	a5, 0x1
   184d6: 81 45        	li	a1, 0x0
   184d8: 9b 97 17 00  	slliw	a5, a5, 0x1
   184dc: 85 25        	addiw	a1, a1, 0x1
   184de: e3 cd d7 fe  	blt	a5, a3, 0x184d8 <__s2b+0x2a>
   184e2: 4a 85        	mv	a0, s2
   184e4: ef f0 ff e6  	jal	0x18352 <_Balloc>
   184e8: aa 85        	mv	a1, a0
   184ea: 41 c9        	beqz	a0, 0x1857a <__s2b+0xcc>
   184ec: 85 47        	li	a5, 0x1
   184ee: 5c c9        	sw	a5, 0x14(a0)
   184f0: 23 2c 35 01  	sw	s3, 0x18(a0)
   184f4: a5 47        	li	a5, 0x9
   184f6: 63 dd 47 07  	bge	a5, s4, 0x18570 <__s2b+0xc2>
   184fa: 93 17 0a 02  	slli	a5, s4, 0x20
   184fe: 5a e0        	sd	s6, 0x0(sp)
   18500: 81 93        	srli	a5, a5, 0x20
   18502: 13 0b 94 00  	addi	s6, s0, 0x9
   18506: 56 e4        	sd	s5, 0x8(sp)
   18508: 3e 94        	add	s0, s0, a5
   1850a: 9b 0a 0a 00  	sext.w	s5, s4
   1850e: da 89        	mv	s3, s6
   18510: 83 c6 09 00  	lbu	a3, 0x0(s3)
   18514: 29 46        	li	a2, 0xa
   18516: 4a 85        	mv	a0, s2
   18518: 9b 86 06 fd  	addiw	a3, a3, -0x30
   1851c: ef f0 df ea  	jal	0x183c8 <__multadd>
   18520: 85 09        	addi	s3, s3, 0x1
   18522: aa 85        	mv	a1, a0
   18524: e3 96 89 fe  	bne	s3, s0, 0x18510 <__s2b+0x62>
   18528: e1 3a        	addiw	s5, s5, -0x8
   1852a: 82 1a        	slli	s5, s5, 0x20
   1852c: 93 da 0a 02  	srli	s5, s5, 0x20
   18530: 33 04 5b 01  	add	s0, s6, s5
   18534: a2 6a        	ld	s5, 0x8(sp)
   18536: 02 6b        	ld	s6, 0x0(sp)
   18538: 63 53 9a 02  	bge	s4, s1, 0x1855e <__s2b+0xb0>
   1853c: bb 84 44 41  	subw	s1, s1, s4
   18540: 82 14        	slli	s1, s1, 0x20
   18542: 81 90        	srli	s1, s1, 0x20
   18544: a2 94        	add	s1, s1, s0
   18546: 83 46 04 00  	lbu	a3, 0x0(s0)
   1854a: 29 46        	li	a2, 0xa
   1854c: 4a 85        	mv	a0, s2
   1854e: 9b 86 06 fd  	addiw	a3, a3, -0x30
   18552: ef f0 7f e7  	jal	0x183c8 <__multadd>
   18556: 05 04        	addi	s0, s0, 0x1
   18558: aa 85        	mv	a1, a0
   1855a: e3 16 94 fe  	bne	s0, s1, 0x18546 <__s2b+0x98>
   1855e: e2 70        	ld	ra, 0x38(sp)
   18560: 42 74        	ld	s0, 0x30(sp)
   18562: a2 74        	ld	s1, 0x28(sp)
   18564: 02 79        	ld	s2, 0x20(sp)
   18566: e2 69        	ld	s3, 0x18(sp)
   18568: 42 6a        	ld	s4, 0x10(sp)
   1856a: 2e 85        	mv	a0, a1
   1856c: 21 61        	addi	sp, sp, 0x40
   1856e: 82 80        	ret
   18570: 29 04        	addi	s0, s0, 0xa
   18572: 25 4a        	li	s4, 0x9
   18574: d1 b7        	j	0x18538 <__s2b+0x8a>
   18576: 81 45        	li	a1, 0x0
   18578: ad b7        	j	0x184e2 <__s2b+0x34>
   1857a: ed 66        	lui	a3, 0x1b
   1857c: 6d 65        	lui	a0, 0x1b
   1857e: 93 86 06 1c  	addi	a3, a3, 0x1c0
   18582: 01 46        	li	a2, 0x0
   18584: 93 05 30 0d  	li	a1, 0xd3
   18588: 13 05 85 1d  	addi	a0, a0, 0x1d8
   1858c: 56 e4        	sd	s5, 0x8(sp)
   1858e: 5a e0        	sd	s6, 0x0(sp)
   18590: ef 10 c0 13  	jal	0x196cc <__assert_func>

0000000000018594 <__hi0bits>:
   18594: aa 87        	mv	a5, a0
   18596: 41 67        	lui	a4, 0x10
   18598: 01 45        	li	a0, 0x0
   1859a: 63 f5 e7 00  	bgeu	a5, a4, 0x185a4 <__hi0bits+0x10>
   1859e: 9b 97 07 01  	slliw	a5, a5, 0x10
   185a2: 41 45        	li	a0, 0x10
   185a4: 37 07 00 01  	lui	a4, 0x1000
   185a8: 63 f5 e7 00  	bgeu	a5, a4, 0x185b2 <__hi0bits+0x1e>
   185ac: 9b 97 87 00  	slliw	a5, a5, 0x8
   185b0: 21 25        	addiw	a0, a0, 0x8
   185b2: 37 07 00 10  	lui	a4, 0x10000
   185b6: 63 f5 e7 00  	bgeu	a5, a4, 0x185c0 <__hi0bits+0x2c>
   185ba: 9b 97 47 00  	slliw	a5, a5, 0x4
   185be: 11 25        	addiw	a0, a0, 0x4
   185c0: 37 07 00 40  	lui	a4, 0x40000
   185c4: 63 e6 e7 00  	bltu	a5, a4, 0x185d0 <__hi0bits+0x3c>
   185c8: 63 c0 07 02  	bltz	a5, 0x185e8 <__hi0bits+0x54>
   185cc: 05 25        	addiw	a0, a0, 0x1
   185ce: 82 80        	ret
   185d0: 93 96 27 02  	slli	a3, a5, 0x22
   185d4: 1b 97 27 00  	slliw	a4, a5, 0x2
   185d8: 63 c9 06 00  	bltz	a3, 0x185ea <__hi0bits+0x56>
   185dc: 93 17 17 02  	slli	a5, a4, 0x21
   185e0: 63 c7 07 00  	bltz	a5, 0x185ee <__hi0bits+0x5a>
   185e4: 13 05 00 02  	li	a0, 0x20
   185e8: 82 80        	ret
   185ea: 09 25        	addiw	a0, a0, 0x2
   185ec: 82 80        	ret
   185ee: 0d 25        	addiw	a0, a0, 0x3
   185f0: 82 80        	ret

00000000000185f2 <__lo0bits>:
   185f2: 1c 41        	lw	a5, 0x0(a0)
   185f4: 2a 87        	mv	a4, a0
   185f6: 93 f6 77 00  	andi	a3, a5, 0x7
   185fa: 3e 86        	mv	a2, a5
   185fc: 81 ce        	beqz	a3, 0x18614 <__lo0bits+0x22>
   185fe: 93 f6 17 00  	andi	a3, a5, 0x1
   18602: 01 45        	li	a0, 0x0
   18604: 9d ee        	bnez	a3, 0x18642 <__lo0bits+0x50>
   18606: 09 8a        	andi	a2, a2, 0x2
   18608: 25 ce        	beqz	a2, 0x18680 <__lo0bits+0x8e>
   1860a: 9b d7 17 00  	srliw	a5, a5, 0x1
   1860e: 1c c3        	sw	a5, 0x0(a4)
   18610: 05 45        	li	a0, 0x1
   18612: 82 80        	ret
   18614: 93 96 07 03  	slli	a3, a5, 0x30
   18618: c1 92        	srli	a3, a3, 0x30
   1861a: 01 45        	li	a0, 0x0
   1861c: b9 ca        	beqz	a3, 0x18672 <__lo0bits+0x80>
   1861e: 93 f6 f7 0f  	andi	a3, a5, 0xff
   18622: a9 c2        	beqz	a3, 0x18664 <__lo0bits+0x72>
   18624: 93 f6 f7 00  	andi	a3, a5, 0xf
   18628: 9d c6        	beqz	a3, 0x18656 <__lo0bits+0x64>
   1862a: 93 f6 37 00  	andi	a3, a5, 0x3
   1862e: 89 ce        	beqz	a3, 0x18648 <__lo0bits+0x56>
   18630: 93 f6 17 00  	andi	a3, a5, 0x1
   18634: 81 ea        	bnez	a3, 0x18644 <__lo0bits+0x52>
   18636: 9b d7 17 00  	srliw	a5, a5, 0x1
   1863a: 05 25        	addiw	a0, a0, 0x1
   1863c: 81 e7        	bnez	a5, 0x18644 <__lo0bits+0x52>
   1863e: 13 05 00 02  	li	a0, 0x20
   18642: 82 80        	ret
   18644: 1c c3        	sw	a5, 0x0(a4)
   18646: 82 80        	ret
   18648: 9b d7 27 00  	srliw	a5, a5, 0x2
   1864c: 93 f6 17 00  	andi	a3, a5, 0x1
   18650: 09 25        	addiw	a0, a0, 0x2
   18652: ed fa        	bnez	a3, 0x18644 <__lo0bits+0x52>
   18654: cd b7        	j	0x18636 <__lo0bits+0x44>
   18656: 9b d7 47 00  	srliw	a5, a5, 0x4
   1865a: 93 f6 37 00  	andi	a3, a5, 0x3
   1865e: 11 25        	addiw	a0, a0, 0x4
   18660: e1 fa        	bnez	a3, 0x18630 <__lo0bits+0x3e>
   18662: dd b7        	j	0x18648 <__lo0bits+0x56>
   18664: 9b d7 87 00  	srliw	a5, a5, 0x8
   18668: 93 f6 f7 00  	andi	a3, a5, 0xf
   1866c: 21 25        	addiw	a0, a0, 0x8
   1866e: d5 fe        	bnez	a3, 0x1862a <__lo0bits+0x38>
   18670: dd b7        	j	0x18656 <__lo0bits+0x64>
   18672: 9b d7 07 01  	srliw	a5, a5, 0x10
   18676: 93 f6 f7 0f  	andi	a3, a5, 0xff
   1867a: 41 45        	li	a0, 0x10
   1867c: c5 f6        	bnez	a3, 0x18624 <__lo0bits+0x32>
   1867e: dd b7        	j	0x18664 <__lo0bits+0x72>
   18680: 9b d7 27 00  	srliw	a5, a5, 0x2
   18684: 1c c3        	sw	a5, 0x0(a4)
   18686: 09 45        	li	a0, 0x2
   18688: 82 80        	ret

000000000001868a <__i2b>:
   1868a: 3c 75        	ld	a5, 0x68(a0)
   1868c: 01 11        	addi	sp, sp, -0x20
   1868e: 22 e8        	sd	s0, 0x10(sp)
   18690: 26 e4        	sd	s1, 0x8(sp)
   18692: 06 ec        	sd	ra, 0x18(sp)
   18694: 2a 84        	mv	s0, a0
   18696: ae 84        	mv	s1, a1
   18698: 91 cf        	beqz	a5, 0x186b4 <__i2b+0x2a>
   1869a: 88 67        	ld	a0, 0x8(a5)
   1869c: 1d cd        	beqz	a0, 0x186da <__i2b+0x50>
   1869e: 18 61        	ld	a4, 0x0(a0)
   186a0: 98 e7        	sd	a4, 0x8(a5)
   186a2: e2 60        	ld	ra, 0x18(sp)
   186a4: 42 64        	ld	s0, 0x10(sp)
   186a6: 85 47        	li	a5, 0x1
   186a8: 82 17        	slli	a5, a5, 0x20
   186aa: 04 cd        	sw	s1, 0x18(a0)
   186ac: 1c e9        	sd	a5, 0x10(a0)
   186ae: a2 64        	ld	s1, 0x8(sp)
   186b0: 05 61        	addi	sp, sp, 0x20
   186b2: 82 80        	ret
   186b4: 13 06 10 04  	li	a2, 0x41
   186b8: a1 45        	li	a1, 0x8
   186ba: ef 10 a0 05  	jal	0x19714 <_calloc_r>
   186be: 28 f4        	sd	a0, 0x68(s0)
   186c0: aa 87        	mv	a5, a0
   186c2: 61 fd        	bnez	a0, 0x1869a <__i2b+0x10>
   186c4: ed 66        	lui	a3, 0x1b
   186c6: 6d 65        	lui	a0, 0x1b
   186c8: 93 86 06 1c  	addi	a3, a3, 0x1c0
   186cc: 01 46        	li	a2, 0x0
   186ce: 93 05 50 14  	li	a1, 0x145
   186d2: 13 05 85 1d  	addi	a0, a0, 0x1d8
   186d6: ef 00 70 7f  	jal	0x196cc <__assert_func>
   186da: 13 06 40 02  	li	a2, 0x24
   186de: 85 45        	li	a1, 0x1
   186e0: 22 85        	mv	a0, s0
   186e2: ef 10 20 03  	jal	0x19714 <_calloc_r>
   186e6: 79 dd        	beqz	a0, 0x186c4 <__i2b+0x3a>
   186e8: 85 47        	li	a5, 0x1
   186ea: 86 17        	slli	a5, a5, 0x21
   186ec: 85 07        	addi	a5, a5, 0x1
   186ee: 1c e5        	sd	a5, 0x8(a0)
   186f0: 4d bf        	j	0x186a2 <__i2b+0x18>

00000000000186f2 <__multiply>:
   186f2: 79 71        	addi	sp, sp, -0x30
   186f4: 4a e8        	sd	s2, 0x10(sp)
   186f6: 4e e4        	sd	s3, 0x8(sp)
   186f8: 03 29 46 01  	lw	s2, 0x14(a2)
   186fc: 83 a9 45 01  	lw	s3, 0x14(a1)
   18700: 26 ec        	sd	s1, 0x18(sp)
   18702: 52 e0        	sd	s4, 0x0(sp)
   18704: 06 f4        	sd	ra, 0x28(sp)
   18706: 22 f0        	sd	s0, 0x20(sp)
   18708: 2e 8a        	mv	s4, a1
   1870a: b2 84        	mv	s1, a2
   1870c: 63 c7 29 01  	blt	s3, s2, 0x1871a <__multiply+0x28>
   18710: ca 87        	mv	a5, s2
   18712: ae 84        	mv	s1, a1
   18714: 4e 89        	mv	s2, s3
   18716: 32 8a        	mv	s4, a2
   18718: be 89        	mv	s3, a5
   1871a: dc 44        	lw	a5, 0xc(s1)
   1871c: 3b 04 39 01  	addw	s0, s2, s3
   18720: 8c 44        	lw	a1, 0x8(s1)
   18722: 63 d3 87 00  	bge	a5, s0, 0x18728 <__multiply+0x36>
   18726: 85 25        	addiw	a1, a1, 0x1
   18728: ef f0 bf c2  	jal	0x18352 <_Balloc>
   1872c: 63 0c 05 14  	beqz	a0, 0x18884 <__multiply+0x192>
   18730: 13 03 85 01  	addi	t1, a0, 0x18
   18734: 93 18 24 00  	slli	a7, s0, 0x2
   18738: 9a 98        	add	a7, a7, t1
   1873a: 9a 87        	mv	a5, t1
   1873c: 63 77 13 01  	bgeu	t1, a7, 0x1874a <__multiply+0x58>
   18740: 23 a0 07 00  	sw	zero, 0x0(a5)
   18744: 91 07        	addi	a5, a5, 0x4
   18746: e3 ed 17 ff  	bltu	a5, a7, 0x18740 <__multiply+0x4e>
   1874a: 13 08 8a 01  	addi	a6, s4, 0x18
   1874e: 13 9e 29 00  	slli	t3, s3, 0x2
   18752: 93 8e 84 01  	addi	t4, s1, 0x18
   18756: 93 15 29 00  	slli	a1, s2, 0x2
   1875a: 42 9e        	add	t3, t3, a6
   1875c: f6 95        	add	a1, a1, t4
   1875e: 63 7a c8 0f  	bgeu	a6, t3, 0x18852 <__multiply+0x160>
   18762: 93 87 94 01  	addi	a5, s1, 0x19
   18766: 11 4f        	li	t5, 0x4
   18768: 63 f7 f5 10  	bgeu	a1, a5, 0x18876 <__multiply+0x184>
   1876c: c1 66        	lui	a3, 0x10
   1876e: fd 16        	addi	a3, a3, -0x1
   18770: 09 a8        	j	0x18782 <__multiply+0x90>
   18772: 9b df 0f 01  	srliw	t6, t6, 0x10
   18776: 63 9d 0f 06  	bnez	t6, 0x187f0 <__multiply+0xfe>
   1877a: 11 08        	addi	a6, a6, 0x4
   1877c: 11 03        	addi	t1, t1, 0x4
   1877e: 63 7a c8 0d  	bgeu	a6, t3, 0x18852 <__multiply+0x160>
   18782: 83 2f 08 00  	lw	t6, 0x0(a6)
   18786: b3 f3 df 00  	and	t2, t6, a3
   1878a: e3 84 03 fe  	beqz	t2, 0x18772 <__multiply+0x80>
   1878e: 9a 82        	mv	t0, t1
   18790: f6 8f        	mv	t6, t4
   18792: 81 44        	li	s1, 0x0
   18794: 83 a7 0f 00  	lw	a5, 0x0(t6)
   18798: 03 a6 02 00  	lw	a2, 0x0(t0)
   1879c: 91 02        	addi	t0, t0, 0x4
   1879e: 33 f7 d7 00  	and	a4, a5, a3
   187a2: 3b 07 77 02  	mulw	a4, a4, t2
   187a6: 9b d7 07 01  	srliw	a5, a5, 0x10
   187aa: 33 79 d6 00  	and	s2, a2, a3
   187ae: 1b 56 06 01  	srliw	a2, a2, 0x10
   187b2: 91 0f        	addi	t6, t6, 0x4
   187b4: bb 87 77 02  	mulw	a5, a5, t2
   187b8: 3b 07 27 01  	addw	a4, a4, s2
   187bc: 25 9f        	addw	a4, a4, s1
   187be: 9b 54 07 01  	srliw	s1, a4, 0x10
   187c2: 75 8f        	and	a4, a4, a3
   187c4: b1 9f        	addw	a5, a5, a2
   187c6: a5 9f        	addw	a5, a5, s1
   187c8: 1b 96 07 01  	slliw	a2, a5, 0x10
   187cc: 51 8f        	or	a4, a4, a2
   187ce: 23 ae e2 fe  	sw	a4, -0x4(t0)
   187d2: 9b d4 07 01  	srliw	s1, a5, 0x10
   187d6: 1b d7 07 01  	srliw	a4, a5, 0x10
   187da: e3 ed bf fa  	bltu	t6, a1, 0x18794 <__multiply+0xa2>
   187de: b3 07 e3 01  	add	a5, t1, t5
   187e2: 98 c3        	sw	a4, 0x0(a5)
   187e4: 83 2f 08 00  	lw	t6, 0x0(a6)
   187e8: 9b df 0f 01  	srliw	t6, t6, 0x10
   187ec: e3 87 0f f8  	beqz	t6, 0x1877a <__multiply+0x88>
   187f0: 03 27 03 00  	lw	a4, 0x0(t1)
   187f4: 9a 82        	mv	t0, t1
   187f6: 76 86        	mv	a2, t4
   187f8: ba 83        	mv	t2, a4
   187fa: 81 44        	li	s1, 0x0
   187fc: 1c 42        	lw	a5, 0x0(a2)
   187fe: 9b d9 03 01  	srliw	s3, t2, 0x10
   18802: 75 8f        	and	a4, a4, a3
   18804: f5 8f        	and	a5, a5, a3
   18806: bb 87 f7 03  	mulw	a5, a5, t6
   1880a: 83 a3 42 00  	lw	t2, 0x4(t0)
   1880e: 91 02        	addi	t0, t0, 0x4
   18810: 11 06        	addi	a2, a2, 0x4
   18812: 33 f9 d3 00  	and	s2, t2, a3
   18816: a5 9f        	addw	a5, a5, s1
   18818: bb 87 37 01  	addw	a5, a5, s3
   1881c: 9b 94 07 01  	slliw	s1, a5, 0x10
   18820: 45 8f        	or	a4, a4, s1
   18822: 23 ae e2 fe  	sw	a4, -0x4(t0)
   18826: 03 57 e6 ff  	lhu	a4, -0x2(a2)
   1882a: 9b d7 07 01  	srliw	a5, a5, 0x10
   1882e: 3b 07 f7 03  	mulw	a4, a4, t6
   18832: 3b 07 27 01  	addw	a4, a4, s2
   18836: b9 9f        	addw	a5, a5, a4
   18838: 1b 87 07 00  	sext.w	a4, a5
   1883c: 9b d4 07 01  	srliw	s1, a5, 0x10
   18840: e3 6e b6 fa  	bltu	a2, a1, 0x187fc <__multiply+0x10a>
   18844: 33 07 e3 01  	add	a4, t1, t5
   18848: 1c c3        	sw	a5, 0x0(a4)
   1884a: 11 08        	addi	a6, a6, 0x4
   1884c: 11 03        	addi	t1, t1, 0x4
   1884e: e3 6a c8 f3  	bltu	a6, t3, 0x18782 <__multiply+0x90>
   18852: 63 45 80 00  	bgtz	s0, 0x1885c <__multiply+0x16a>
   18856: 39 a0        	j	0x18864 <__multiply+0x172>
   18858: 7d 34        	addiw	s0, s0, -0x1
   1885a: 09 c4        	beqz	s0, 0x18864 <__multiply+0x172>
   1885c: 83 a7 c8 ff  	lw	a5, -0x4(a7)
   18860: f1 18        	addi	a7, a7, -0x4
   18862: fd db        	beqz	a5, 0x18858 <__multiply+0x166>
   18864: a2 70        	ld	ra, 0x28(sp)
   18866: 40 c9        	sw	s0, 0x14(a0)
   18868: 02 74        	ld	s0, 0x20(sp)
   1886a: e2 64        	ld	s1, 0x18(sp)
   1886c: 42 69        	ld	s2, 0x10(sp)
   1886e: a2 69        	ld	s3, 0x8(sp)
   18870: 02 6a        	ld	s4, 0x0(sp)
   18872: 45 61        	addi	sp, sp, 0x30
   18874: 82 80        	ret
   18876: b3 87 95 40  	sub	a5, a1, s1
   1887a: 9d 17        	addi	a5, a5, -0x19
   1887c: f1 9b        	andi	a5, a5, -0x4
   1887e: 13 8f 47 00  	addi	t5, a5, 0x4
   18882: ed b5        	j	0x1876c <__multiply+0x7a>
   18884: ed 66        	lui	a3, 0x1b
   18886: 6d 65        	lui	a0, 0x1b
   18888: 93 86 06 1c  	addi	a3, a3, 0x1c0
   1888c: 01 46        	li	a2, 0x0
   1888e: 93 05 20 16  	li	a1, 0x162
   18892: 13 05 85 1d  	addi	a0, a0, 0x1d8
   18896: ef 00 70 63  	jal	0x196cc <__assert_func>

000000000001889a <__pow5mult>:
   1889a: 79 71        	addi	sp, sp, -0x30
   1889c: 22 f0        	sd	s0, 0x20(sp)
   1889e: 4a e8        	sd	s2, 0x10(sp)
   188a0: 4e e4        	sd	s3, 0x8(sp)
   188a2: 06 f4        	sd	ra, 0x28(sp)
   188a4: 93 77 36 00  	andi	a5, a2, 0x3
   188a8: 32 84        	mv	s0, a2
   188aa: aa 89        	mv	s3, a0
   188ac: 2e 89        	mv	s2, a1
   188ae: ad eb        	bnez	a5, 0x18920 <__pow5mult+0x86>
   188b0: 09 84        	srai	s0, s0, 0x2
   188b2: 31 c4        	beqz	s0, 0x188fe <__pow5mult+0x64>
   188b4: 26 ec        	sd	s1, 0x18(sp)
   188b6: 83 b4 09 06  	ld	s1, 0x60(s3)
   188ba: bd cc        	beqz	s1, 0x18938 <__pow5mult+0x9e>
   188bc: 93 77 14 00  	andi	a5, s0, 0x1
   188c0: 89 eb        	bnez	a5, 0x188d2 <__pow5mult+0x38>
   188c2: 05 84        	srai	s0, s0, 0x1
   188c4: 05 cc        	beqz	s0, 0x188fc <__pow5mult+0x62>
   188c6: 88 60        	ld	a0, 0x0(s1)
   188c8: 31 c1        	beqz	a0, 0x1890c <__pow5mult+0x72>
   188ca: aa 84        	mv	s1, a0
   188cc: 93 77 14 00  	andi	a5, s0, 0x1
   188d0: ed db        	beqz	a5, 0x188c2 <__pow5mult+0x28>
   188d2: 26 86        	mv	a2, s1
   188d4: ca 85        	mv	a1, s2
   188d6: 4e 85        	mv	a0, s3
   188d8: ef f0 bf e1  	jal	0x186f2 <__multiply>
   188dc: 63 0d 09 00  	beqz	s2, 0x188f6 <__pow5mult+0x5c>
   188e0: 03 27 89 00  	lw	a4, 0x8(s2)
   188e4: 83 b7 89 06  	ld	a5, 0x68(s3)
   188e8: 0e 07        	slli	a4, a4, 0x3
   188ea: ba 97        	add	a5, a5, a4
   188ec: 98 63        	ld	a4, 0x0(a5)
   188ee: 23 30 e9 00  	sd	a4, 0x0(s2)
   188f2: 23 b0 27 01  	sd	s2, 0x0(a5)
   188f6: 05 84        	srai	s0, s0, 0x1
   188f8: 2a 89        	mv	s2, a0
   188fa: 71 f4        	bnez	s0, 0x188c6 <__pow5mult+0x2c>
   188fc: e2 64        	ld	s1, 0x18(sp)
   188fe: a2 70        	ld	ra, 0x28(sp)
   18900: 02 74        	ld	s0, 0x20(sp)
   18902: a2 69        	ld	s3, 0x8(sp)
   18904: 4a 85        	mv	a0, s2
   18906: 42 69        	ld	s2, 0x10(sp)
   18908: 45 61        	addi	sp, sp, 0x30
   1890a: 82 80        	ret
   1890c: 26 86        	mv	a2, s1
   1890e: a6 85        	mv	a1, s1
   18910: 4e 85        	mv	a0, s3
   18912: ef f0 1f de  	jal	0x186f2 <__multiply>
   18916: 88 e0        	sd	a0, 0x0(s1)
   18918: 23 30 05 00  	sd	zero, 0x0(a0)
   1891c: aa 84        	mv	s1, a0
   1891e: 7d b7        	j	0x188cc <__pow5mult+0x32>
   18920: fd 37        	addiw	a5, a5, -0x1
   18922: 71 67        	lui	a4, 0x1c
   18924: 13 07 87 8f  	addi	a4, a4, -0x708
   18928: 8a 07        	slli	a5, a5, 0x2
   1892a: ba 97        	add	a5, a5, a4
   1892c: 90 43        	lw	a2, 0x0(a5)
   1892e: 81 46        	li	a3, 0x0
   18930: ef f0 9f a9  	jal	0x183c8 <__multadd>
   18934: 2a 89        	mv	s2, a0
   18936: ad bf        	j	0x188b0 <__pow5mult+0x16>
   18938: 85 45        	li	a1, 0x1
   1893a: 4e 85        	mv	a0, s3
   1893c: ef f0 7f a1  	jal	0x18352 <_Balloc>
   18940: aa 84        	mv	s1, a0
   18942: 19 c9        	beqz	a0, 0x18958 <__pow5mult+0xbe>
   18944: 93 07 10 27  	li	a5, 0x271
   18948: 1c cd        	sw	a5, 0x18(a0)
   1894a: 85 47        	li	a5, 0x1
   1894c: 5c c9        	sw	a5, 0x14(a0)
   1894e: 23 b0 a9 06  	sd	a0, 0x60(s3)
   18952: 23 30 05 00  	sd	zero, 0x0(a0)
   18956: 9d b7        	j	0x188bc <__pow5mult+0x22>
   18958: ed 66        	lui	a3, 0x1b
   1895a: 6d 65        	lui	a0, 0x1b
   1895c: 93 86 06 1c  	addi	a3, a3, 0x1c0
   18960: 01 46        	li	a2, 0x0
   18962: 93 05 50 14  	li	a1, 0x145
   18966: 13 05 85 1d  	addi	a0, a0, 0x1d8
   1896a: ef 00 30 56  	jal	0x196cc <__assert_func>

000000000001896e <__lshift>:
   1896e: 39 71        	addi	sp, sp, -0x40
   18970: 22 f8        	sd	s0, 0x30(sp)
   18972: c0 49        	lw	s0, 0x14(a1)
   18974: dc 45        	lw	a5, 0xc(a1)
   18976: 56 e4        	sd	s5, 0x8(sp)
   18978: 9b 5a 56 40  	sraiw	s5, a2, 0x5
   1897c: 3b 84 8a 00  	addw	s0, s5, s0
   18980: 26 f4        	sd	s1, 0x28(sp)
   18982: 4a f0        	sd	s2, 0x20(sp)
   18984: 4e ec        	sd	s3, 0x18(sp)
   18986: 52 e8        	sd	s4, 0x10(sp)
   18988: 5a e0        	sd	s6, 0x0(sp)
   1898a: 06 fc        	sd	ra, 0x38(sp)
   1898c: 1b 09 14 00  	addiw	s2, s0, 0x1
   18990: ae 84        	mv	s1, a1
   18992: 32 8a        	mv	s4, a2
   18994: 8c 45        	lw	a1, 0x8(a1)
   18996: aa 89        	mv	s3, a0
   18998: 13 5b 56 40  	srai	s6, a2, 0x5
   1899c: 63 d7 27 01  	bge	a5, s2, 0x189aa <__lshift+0x3c>
   189a0: 9b 97 17 00  	slliw	a5, a5, 0x1
   189a4: 85 25        	addiw	a1, a1, 0x1
   189a6: e3 cd 27 ff  	blt	a5, s2, 0x189a0 <__lshift+0x32>
   189aa: 4e 85        	mv	a0, s3
   189ac: ef f0 7f 9a  	jal	0x18352 <_Balloc>
   189b0: 71 c5        	beqz	a0, 0x18a7c <__lshift+0x10e>
   189b2: 13 07 85 01  	addi	a4, a0, 0x18
   189b6: 63 51 60 03  	blez	s6, 0x189d8 <__lshift+0x6a>
   189ba: 9b 86 6a 00  	addiw	a3, s5, 0x6
   189be: 8a 06        	slli	a3, a3, 0x2
   189c0: aa 96        	add	a3, a3, a0
   189c2: ba 87        	mv	a5, a4
   189c4: 91 07        	addi	a5, a5, 0x4
   189c6: 23 ae 07 fe  	sw	zero, -0x4(a5)
   189ca: e3 9d d7 fe  	bne	a5, a3, 0x189c4 <__lshift+0x56>
   189ce: 93 97 0a 02  	slli	a5, s5, 0x20
   189d2: 93 da e7 01  	srli	s5, a5, 0x1e
   189d6: 56 97        	add	a4, a4, s5
   189d8: 83 a8 44 01  	lw	a7, 0x14(s1)
   189dc: 93 87 84 01  	addi	a5, s1, 0x18
   189e0: 13 76 fa 01  	andi	a2, s4, 0x1f
   189e4: 8a 08        	slli	a7, a7, 0x2
   189e6: be 98        	add	a7, a7, a5
   189e8: 3d ca        	beqz	a2, 0x18a5e <__lshift+0xf0>
   189ea: 93 05 00 02  	li	a1, 0x20
   189ee: 91 9d        	subw	a1, a1, a2
   189f0: 3a 83        	mv	t1, a4
   189f2: 81 46        	li	a3, 0x0
   189f4: 03 a8 07 00  	lw	a6, 0x0(a5)
   189f8: 11 03        	addi	t1, t1, 0x4
   189fa: 91 07        	addi	a5, a5, 0x4
   189fc: 3b 18 c8 00  	sllw	a6, a6, a2
   18a00: b3 e6 06 01  	or	a3, a3, a6
   18a04: 23 2e d3 fe  	sw	a3, -0x4(t1)
   18a08: 03 a8 c7 ff  	lw	a6, -0x4(a5)
   18a0c: bb 56 b8 00  	srlw	a3, a6, a1
   18a10: 36 88        	mv	a6, a3
   18a12: e3 e1 17 ff  	bltu	a5, a7, 0x189f4 <__lshift+0x86>
   18a16: 93 87 94 01  	addi	a5, s1, 0x19
   18a1a: 11 46        	li	a2, 0x4
   18a1c: 63 e8 f8 00  	bltu	a7, a5, 0x18a2c <__lshift+0xbe>
   18a20: b3 87 98 40  	sub	a5, a7, s1
   18a24: 9d 17        	addi	a5, a5, -0x19
   18a26: f1 9b        	andi	a5, a5, -0x4
   18a28: 13 86 47 00  	addi	a2, a5, 0x4
   18a2c: 32 97        	add	a4, a4, a2
   18a2e: 23 20 07 01  	sw	a6, 0x0(a4)
   18a32: 91 e2        	bnez	a3, 0x18a36 <__lshift+0xc8>
   18a34: 22 89        	mv	s2, s0
   18a36: 98 44        	lw	a4, 0x8(s1)
   18a38: 83 b7 89 06  	ld	a5, 0x68(s3)
   18a3c: e2 70        	ld	ra, 0x38(sp)
   18a3e: 0e 07        	slli	a4, a4, 0x3
   18a40: ba 97        	add	a5, a5, a4
   18a42: 98 63        	ld	a4, 0x0(a5)
   18a44: 23 2a 25 01  	sw	s2, 0x14(a0)
   18a48: 42 74        	ld	s0, 0x30(sp)
   18a4a: 98 e0        	sd	a4, 0x0(s1)
   18a4c: 84 e3        	sd	s1, 0x0(a5)
   18a4e: 02 79        	ld	s2, 0x20(sp)
   18a50: a2 74        	ld	s1, 0x28(sp)
   18a52: e2 69        	ld	s3, 0x18(sp)
   18a54: 42 6a        	ld	s4, 0x10(sp)
   18a56: a2 6a        	ld	s5, 0x8(sp)
   18a58: 02 6b        	ld	s6, 0x0(sp)
   18a5a: 21 61        	addi	sp, sp, 0x40
   18a5c: 82 80        	ret
   18a5e: 94 43        	lw	a3, 0x0(a5)
   18a60: 91 07        	addi	a5, a5, 0x4
   18a62: 11 07        	addi	a4, a4, 0x4
   18a64: 23 2e d7 fe  	sw	a3, -0x4(a4)
   18a68: e3 f6 17 fd  	bgeu	a5, a7, 0x18a34 <__lshift+0xc6>
   18a6c: 94 43        	lw	a3, 0x0(a5)
   18a6e: 91 07        	addi	a5, a5, 0x4
   18a70: 11 07        	addi	a4, a4, 0x4
   18a72: 23 2e d7 fe  	sw	a3, -0x4(a4)
   18a76: e3 e4 17 ff  	bltu	a5, a7, 0x18a5e <__lshift+0xf0>
   18a7a: 6d bf        	j	0x18a34 <__lshift+0xc6>
   18a7c: ed 66        	lui	a3, 0x1b
   18a7e: 6d 65        	lui	a0, 0x1b
   18a80: 93 86 06 1c  	addi	a3, a3, 0x1c0
   18a84: 01 46        	li	a2, 0x0
   18a86: 93 05 e0 1d  	li	a1, 0x1de
   18a8a: 13 05 85 1d  	addi	a0, a0, 0x1d8
   18a8e: ef 00 f0 43  	jal	0x196cc <__assert_func>

0000000000018a92 <__mcmp>:
   18a92: dc 49        	lw	a5, 0x14(a1)
   18a94: 2a 88        	mv	a6, a0
   18a96: 48 49        	lw	a0, 0x14(a0)
   18a98: 1d 9d        	subw	a0, a0, a5
   18a9a: 1d e5        	bnez	a0, 0x18ac8 <__mcmp+0x36>
   18a9c: 8a 07        	slli	a5, a5, 0x2
   18a9e: 61 08        	addi	a6, a6, 0x18
   18aa0: e1 05        	addi	a1, a1, 0x18
   18aa2: 33 07 f8 00  	add	a4, a6, a5
   18aa6: ae 97        	add	a5, a5, a1
   18aa8: 19 a0        	j	0x18aae <__mcmp+0x1c>
   18aaa: 63 7f e8 00  	bgeu	a6, a4, 0x18ac8 <__mcmp+0x36>
   18aae: 03 26 c7 ff  	lw	a2, -0x4(a4)
   18ab2: 83 a6 c7 ff  	lw	a3, -0x4(a5)
   18ab6: 71 17        	addi	a4, a4, -0x4
   18ab8: f1 17        	addi	a5, a5, -0x4
   18aba: e3 08 d6 fe  	beq	a2, a3, 0x18aaa <__mcmp+0x18>
   18abe: 05 45        	li	a0, 0x1
   18ac0: 63 74 d6 00  	bgeu	a2, a3, 0x18ac8 <__mcmp+0x36>
   18ac4: 7d 55        	li	a0, -0x1
   18ac6: 82 80        	ret
   18ac8: 82 80        	ret

0000000000018aca <__mdiff>:
   18aca: d8 49        	lw	a4, 0x14(a1)
   18acc: 5c 4a        	lw	a5, 0x14(a2)
   18ace: 01 11        	addi	sp, sp, -0x20
   18ad0: 22 e8        	sd	s0, 0x10(sp)
   18ad2: 26 e4        	sd	s1, 0x8(sp)
   18ad4: 06 ec        	sd	ra, 0x18(sp)
   18ad6: 4a e0        	sd	s2, 0x0(sp)
   18ad8: 1d 9f        	subw	a4, a4, a5
   18ada: 2e 84        	mv	s0, a1
   18adc: b2 84        	mv	s1, a2
   18ade: 63 10 07 14  	bnez	a4, 0x18c1e <__mdiff+0x154>
   18ae2: 93 96 27 00  	slli	a3, a5, 0x2
   18ae6: 13 86 85 01  	addi	a2, a1, 0x18
   18aea: 13 87 84 01  	addi	a4, s1, 0x18
   18aee: b3 07 d6 00  	add	a5, a2, a3
   18af2: 36 97        	add	a4, a4, a3
   18af4: 19 a0        	j	0x18afa <__mdiff+0x30>
   18af6: 63 7c f6 12  	bgeu	a2, a5, 0x18c2e <__mdiff+0x164>
   18afa: 83 a5 c7 ff  	lw	a1, -0x4(a5)
   18afe: 83 26 c7 ff  	lw	a3, -0x4(a4)
   18b02: f1 17        	addi	a5, a5, -0x4
   18b04: 71 17        	addi	a4, a4, -0x4
   18b06: e3 88 d5 fe  	beq	a1, a3, 0x18af6 <__mdiff+0x2c>
   18b0a: 05 49        	li	s2, 0x1
   18b0c: 63 e6 d5 00  	bltu	a1, a3, 0x18b18 <__mdiff+0x4e>
   18b10: a6 87        	mv	a5, s1
   18b12: 01 49        	li	s2, 0x0
   18b14: a2 84        	mv	s1, s0
   18b16: 3e 84        	mv	s0, a5
   18b18: 8c 44        	lw	a1, 0x8(s1)
   18b1a: ef f0 9f 83  	jal	0x18352 <_Balloc>
   18b1e: 63 0f 05 12  	beqz	a0, 0x18c5c <__mdiff+0x192>
   18b22: 03 a3 44 01  	lw	t1, 0x14(s1)
   18b26: 83 22 44 01  	lw	t0, 0x14(s0)
   18b2a: 13 8f 84 01  	addi	t5, s1, 0x18
   18b2e: 13 1e 23 00  	slli	t3, t1, 0x2
   18b32: 13 08 84 01  	addi	a6, s0, 0x18
   18b36: 8a 02        	slli	t0, t0, 0x2
   18b38: 93 0f 85 01  	addi	t6, a0, 0x18
   18b3c: c1 68        	lui	a7, 0x10
   18b3e: 23 28 25 01  	sw	s2, 0x10(a0)
   18b42: 7a 9e        	add	t3, t3, t5
   18b44: c2 92        	add	t0, t0, a6
   18b46: fe 85        	mv	a1, t6
   18b48: fa 8e        	mv	t4, t5
   18b4a: 01 46        	li	a2, 0x0
   18b4c: fd 18        	addi	a7, a7, -0x1
   18b4e: 03 a7 0e 00  	lw	a4, 0x0(t4)
   18b52: 83 26 08 00  	lw	a3, 0x0(a6)
   18b56: 91 05        	addi	a1, a1, 0x4
   18b58: b3 77 17 01  	and	a5, a4, a7
   18b5c: b3 f3 16 01  	and	t2, a3, a7
   18b60: bb 87 77 40  	subw	a5, a5, t2
   18b64: b1 9f        	addw	a5, a5, a2
   18b66: 9b d6 06 01  	srliw	a3, a3, 0x10
   18b6a: 1b 57 07 01  	srliw	a4, a4, 0x10
   18b6e: 15 9f        	subw	a4, a4, a3
   18b70: 9b d6 07 41  	sraiw	a3, a5, 0x10
   18b74: 35 9f        	addw	a4, a4, a3
   18b76: b3 f7 f8 00  	and	a5, a7, a5
   18b7a: 9b 16 07 01  	slliw	a3, a4, 0x10
   18b7e: d5 8f        	or	a5, a5, a3
   18b80: 81 27        	sext.w	a5, a5
   18b82: 11 08        	addi	a6, a6, 0x4
   18b84: 23 ae f5 fe  	sw	a5, -0x4(a1)
   18b88: 91 0e        	addi	t4, t4, 0x4
   18b8a: 1b 56 07 41  	sraiw	a2, a4, 0x10
   18b8e: e3 60 58 fc  	bltu	a6, t0, 0x18b4e <__mdiff+0x84>
   18b92: 13 07 94 01  	addi	a4, s0, 0x19
   18b96: 33 84 82 40  	sub	s0, t0, s0
   18b9a: 1d 14        	addi	s0, s0, -0x19
   18b9c: b3 b2 e2 00  	sltu	t0, t0, a4
   18ba0: 93 c8 12 00  	xori	a7, t0, 0x1
   18ba4: 09 80        	srli	s0, s0, 0x2
   18ba6: 11 47        	li	a4, 0x4
   18ba8: 63 8f 02 06  	beqz	t0, 0x18c26 <__mdiff+0x15c>
   18bac: 3a 9f        	add	t5, t5, a4
   18bae: b3 8e ef 00  	add	t4, t6, a4
   18bb2: 41 68        	lui	a6, 0x10
   18bb4: f6 85        	mv	a1, t4
   18bb6: fa 86        	mv	a3, t5
   18bb8: 7d 18        	addi	a6, a6, -0x1
   18bba: 63 78 cf 09  	bgeu	t5, t3, 0x18c4a <__mdiff+0x180>
   18bbe: 9c 42        	lw	a5, 0x0(a3)
   18bc0: 9b 08 06 00  	sext.w	a7, a2
   18bc4: 91 05        	addi	a1, a1, 0x4
   18bc6: 33 f7 07 01  	and	a4, a5, a6
   18bca: 31 9f        	addw	a4, a4, a2
   18bcc: 1b 57 07 41  	sraiw	a4, a4, 0x10
   18bd0: 1b d6 07 01  	srliw	a2, a5, 0x10
   18bd4: 31 9f        	addw	a4, a4, a2
   18bd6: bb 87 17 01  	addw	a5, a5, a7
   18bda: 1b 16 07 01  	slliw	a2, a4, 0x10
   18bde: b3 f7 07 01  	and	a5, a5, a6
   18be2: d1 8f        	or	a5, a5, a2
   18be4: 81 27        	sext.w	a5, a5
   18be6: 91 06        	addi	a3, a3, 0x4
   18be8: 23 ae f5 fe  	sw	a5, -0x4(a1)
   18bec: 1b 56 07 41  	sraiw	a2, a4, 0x10
   18bf0: e3 e7 c6 fd  	bltu	a3, t3, 0x18bbe <__mdiff+0xf4>
   18bf4: 7d 1e        	addi	t3, t3, -0x1
   18bf6: 33 0e ee 41  	sub	t3, t3, t5
   18bfa: 13 7e ce ff  	andi	t3, t3, -0x4
   18bfe: 33 87 ce 01  	add	a4, t4, t3
   18c02: 91 e7        	bnez	a5, 0x18c0e <__mdiff+0x144>
   18c04: 83 27 c7 ff  	lw	a5, -0x4(a4)
   18c08: 7d 33        	addiw	t1, t1, -0x1
   18c0a: 71 17        	addi	a4, a4, -0x4
   18c0c: e5 df        	beqz	a5, 0x18c04 <__mdiff+0x13a>
   18c0e: e2 60        	ld	ra, 0x18(sp)
   18c10: 42 64        	ld	s0, 0x10(sp)
   18c12: 23 2a 65 00  	sw	t1, 0x14(a0)
   18c16: a2 64        	ld	s1, 0x8(sp)
   18c18: 02 69        	ld	s2, 0x0(sp)
   18c1a: 05 61        	addi	sp, sp, 0x20
   18c1c: 82 80        	ret
   18c1e: 05 49        	li	s2, 0x1
   18c20: e3 58 07 ee  	bgez	a4, 0x18b10 <__mdiff+0x46>
   18c24: d5 bd        	j	0x18b18 <__mdiff+0x4e>
   18c26: 13 07 14 00  	addi	a4, s0, 0x1
   18c2a: 0a 07        	slli	a4, a4, 0x2
   18c2c: 41 b7        	j	0x18bac <__mdiff+0xe2>
   18c2e: 81 45        	li	a1, 0x0
   18c30: ef f0 2f f2  	jal	0x18352 <_Balloc>
   18c34: 1d cd        	beqz	a0, 0x18c72 <__mdiff+0x1a8>
   18c36: e2 60        	ld	ra, 0x18(sp)
   18c38: 42 64        	ld	s0, 0x10(sp)
   18c3a: 85 47        	li	a5, 0x1
   18c3c: 5c c9        	sw	a5, 0x14(a0)
   18c3e: 23 2c 05 00  	sw	zero, 0x18(a0)
   18c42: a2 64        	ld	s1, 0x8(sp)
   18c44: 02 69        	ld	s2, 0x0(sp)
   18c46: 05 61        	addi	sp, sp, 0x20
   18c48: 82 80        	ret
   18c4a: 01 47        	li	a4, 0x0
   18c4c: 63 94 08 00  	bnez	a7, 0x18c54 <__mdiff+0x18a>
   18c50: 7e 97        	add	a4, a4, t6
   18c52: 45 bf        	j	0x18c02 <__mdiff+0x138>
   18c54: 13 17 24 00  	slli	a4, s0, 0x2
   18c58: 7e 97        	add	a4, a4, t6
   18c5a: 65 b7        	j	0x18c02 <__mdiff+0x138>
   18c5c: ed 66        	lui	a3, 0x1b
   18c5e: 6d 65        	lui	a0, 0x1b
   18c60: 93 86 06 1c  	addi	a3, a3, 0x1c0
   18c64: 01 46        	li	a2, 0x0
   18c66: 93 05 50 24  	li	a1, 0x245
   18c6a: 13 05 85 1d  	addi	a0, a0, 0x1d8
   18c6e: ef 00 f0 25  	jal	0x196cc <__assert_func>
   18c72: ed 66        	lui	a3, 0x1b
   18c74: 6d 65        	lui	a0, 0x1b
   18c76: 93 86 06 1c  	addi	a3, a3, 0x1c0
   18c7a: 01 46        	li	a2, 0x0
   18c7c: 93 05 70 23  	li	a1, 0x237
   18c80: 13 05 85 1d  	addi	a0, a0, 0x1d8
   18c84: ef 00 90 24  	jal	0x196cc <__assert_func>

0000000000018c88 <__ulp>:
   18c88: 53 07 05 e2  	fmv.x.d	a4, fa0
   18c8c: b7 07 f0 7f  	lui	a5, 0x7ff00
   18c90: 01 93        	srli	a4, a4, 0x20
   18c92: 7d 8f        	and	a4, a4, a5
   18c94: b7 07 c0 fc  	lui	a5, 0xfcc00
   18c98: bb 86 e7 00  	addw	a3, a5, a4
   18c9c: 01 47        	li	a4, 0x0
   18c9e: 63 59 d0 00  	blez	a3, 0x18cb0 <__ulp+0x28>
   18ca2: 02 17        	slli	a4, a4, 0x20
   18ca4: 82 16        	slli	a3, a3, 0x20
   18ca6: 01 93        	srli	a4, a4, 0x20
   18ca8: 55 8f        	or	a4, a4, a3
   18caa: 53 05 07 f2  	fmv.d.x	fa0, a4
   18cae: 82 80        	ret
   18cb0: bb 07 d0 40  	negw	a5, a3
   18cb4: 1b d7 47 41  	sraiw	a4, a5, 0x14
   18cb8: cd 46        	li	a3, 0x13
   18cba: 63 ce e6 00  	blt	a3, a4, 0x18cd6 <__ulp+0x4e>
   18cbe: b7 06 08 00  	lui	a3, 0x80
   18cc2: bb d6 e6 40  	sraw	a3, a3, a4
   18cc6: 01 47        	li	a4, 0x0
   18cc8: 02 17        	slli	a4, a4, 0x20
   18cca: 82 16        	slli	a3, a3, 0x20
   18ccc: 01 93        	srli	a4, a4, 0x20
   18cce: 55 8f        	or	a4, a4, a3
   18cd0: 53 05 07 f2  	fmv.d.x	fa0, a4
   18cd4: 82 80        	ret
   18cd6: 9b 07 c7 fe  	addiw	a5, a4, -0x14
   18cda: f9 46        	li	a3, 0x1e
   18cdc: 05 47        	li	a4, 0x1
   18cde: 63 c6 f6 00  	blt	a3, a5, 0x18cea <__ulp+0x62>
   18ce2: 37 07 00 80  	lui	a4, 0x80000
   18ce6: 3b 57 f7 00  	srlw	a4, a4, a5
   18cea: 81 46        	li	a3, 0x0
   18cec: 02 17        	slli	a4, a4, 0x20
   18cee: 82 16        	slli	a3, a3, 0x20
   18cf0: 01 93        	srli	a4, a4, 0x20
   18cf2: 55 8f        	or	a4, a4, a3
   18cf4: 53 05 07 f2  	fmv.d.x	fa0, a4
   18cf8: 82 80        	ret

0000000000018cfa <__b2d>:
   18cfa: 79 71        	addi	sp, sp, -0x30
   18cfc: 26 ec        	sd	s1, 0x18(sp)
   18cfe: 44 49        	lw	s1, 0x14(a0)
   18d00: 22 f0        	sd	s0, 0x20(sp)
   18d02: 13 04 85 01  	addi	s0, a0, 0x18
   18d06: 8a 04        	slli	s1, s1, 0x2
   18d08: a2 94        	add	s1, s1, s0
   18d0a: 4a e8        	sd	s2, 0x10(sp)
   18d0c: 03 a9 c4 ff  	lw	s2, -0x4(s1)
   18d10: 4e e4        	sd	s3, 0x8(sp)
   18d12: 52 e0        	sd	s4, 0x0(sp)
   18d14: 4a 85        	mv	a0, s2
   18d16: ae 89        	mv	s3, a1
   18d18: 06 f4        	sd	ra, 0x28(sp)
   18d1a: ef f0 bf 87  	jal	0x18594 <__hi0bits>
   18d1e: 93 06 00 02  	li	a3, 0x20
   18d22: bb 87 a6 40  	subw	a5, a3, a0
   18d26: 23 a0 f9 00  	sw	a5, 0x0(s3)
   18d2a: a9 47        	li	a5, 0xa
   18d2c: 13 8a c4 ff  	addi	s4, s1, -0x4
   18d30: 63 d5 a7 08  	bge	a5, a0, 0x18dba <__b2d+0xc0>
   18d34: 9b 07 55 ff  	addiw	a5, a0, -0xb
   18d38: 63 71 44 05  	bgeu	s0, s4, 0x18d7a <__b2d+0x80>
   18d3c: 03 a7 84 ff  	lw	a4, -0x8(s1)
   18d40: a9 cb        	beqz	a5, 0x18d92 <__b2d+0x98>
   18d42: 9d 9e        	subw	a3, a3, a5
   18d44: 3b 56 d7 00  	srlw	a2, a4, a3
   18d48: 3b 19 f9 00  	sllw	s2, s2, a5
   18d4c: 33 69 c9 00  	or	s2, s2, a2
   18d50: 37 06 f0 3f  	lui	a2, 0x3ff00
   18d54: 33 69 c9 00  	or	s2, s2, a2
   18d58: bb 15 f7 00  	sllw	a1, a4, a5
   18d5c: 13 86 84 ff  	addi	a2, s1, -0x8
   18d60: 93 17 09 02  	slli	a5, s2, 0x20
   18d64: 1b 87 05 00  	sext.w	a4, a1
   18d68: 63 7a c4 02  	bgeu	s0, a2, 0x18d9c <__b2d+0xa2>
   18d6c: 03 a7 44 ff  	lw	a4, -0xc(s1)
   18d70: 3b 57 d7 00  	srlw	a4, a4, a3
   18d74: 4d 8f        	or	a4, a4, a1
   18d76: 01 27        	sext.w	a4, a4
   18d78: 15 a0        	j	0x18d9c <__b2d+0xa2>
   18d7a: 2d 47        	li	a4, 0xb
   18d7c: 63 0a e5 00  	beq	a0, a4, 0x18d90 <__b2d+0x96>
   18d80: 37 07 f0 3f  	lui	a4, 0x3ff00
   18d84: bb 17 f9 00  	sllw	a5, s2, a5
   18d88: d9 8f        	or	a5, a5, a4
   18d8a: 82 17        	slli	a5, a5, 0x20
   18d8c: 01 47        	li	a4, 0x0
   18d8e: 39 a0        	j	0x18d9c <__b2d+0xa2>
   18d90: 01 47        	li	a4, 0x0
   18d92: b7 07 f0 3f  	lui	a5, 0x3ff00
   18d96: b3 67 f9 00  	or	a5, s2, a5
   18d9a: 82 17        	slli	a5, a5, 0x20
   18d9c: a2 70        	ld	ra, 0x28(sp)
   18d9e: 02 74        	ld	s0, 0x20(sp)
   18da0: 81 93        	srli	a5, a5, 0x20
   18da2: 02 17        	slli	a4, a4, 0x20
   18da4: 01 93        	srli	a4, a4, 0x20
   18da6: 82 17        	slli	a5, a5, 0x20
   18da8: d9 8f        	or	a5, a5, a4
   18daa: e2 64        	ld	s1, 0x18(sp)
   18dac: 42 69        	ld	s2, 0x10(sp)
   18dae: a2 69        	ld	s3, 0x8(sp)
   18db0: 02 6a        	ld	s4, 0x0(sp)
   18db2: 53 85 07 f2  	fmv.d.x	fa0, a5
   18db6: 45 61        	addi	sp, sp, 0x30
   18db8: 82 80        	ret
   18dba: ad 46        	li	a3, 0xb
   18dbc: 89 9e        	subw	a3, a3, a0
   18dbe: 37 07 f0 3f  	lui	a4, 0x3ff00
   18dc2: bb 57 d9 00  	srlw	a5, s2, a3
   18dc6: d9 8f        	or	a5, a5, a4
   18dc8: 82 17        	slli	a5, a5, 0x20
   18dca: 01 47        	li	a4, 0x0
   18dcc: 63 76 44 01  	bgeu	s0, s4, 0x18dd8 <__b2d+0xde>
   18dd0: 03 a7 84 ff  	lw	a4, -0x8(s1)
   18dd4: 3b 57 d7 00  	srlw	a4, a4, a3
   18dd8: 55 25        	addiw	a0, a0, 0x15
   18dda: 3b 15 a9 00  	sllw	a0, s2, a0
   18dde: 49 8f        	or	a4, a4, a0
   18de0: 01 27        	sext.w	a4, a4
   18de2: 6d bf        	j	0x18d9c <__b2d+0xa2>

0000000000018de4 <__d2b>:
   18de4: 39 71        	addi	sp, sp, -0x40
   18de6: 52 e8        	sd	s4, 0x10(sp)
   18de8: 2e 8a        	mv	s4, a1
   18dea: 85 45        	li	a1, 0x1
   18dec: 22 f8        	sd	s0, 0x30(sp)
   18dee: 4a f0        	sd	s2, 0x20(sp)
   18df0: 06 fc        	sd	ra, 0x38(sp)
   18df2: 26 f4        	sd	s1, 0x28(sp)
   18df4: 4e ec        	sd	s3, 0x18(sp)
   18df6: 53 04 05 e2  	fmv.x.d	s0, fa0
   18dfa: 32 89        	mv	s2, a2
   18dfc: ef f0 6f d5  	jal	0x18352 <_Balloc>
   18e00: 55 c9        	beqz	a0, 0x18eb4 <__d2b+0xd0>
   18e02: 93 57 04 42  	srai	a5, s0, 0x20
   18e06: 9b d9 47 01  	srliw	s3, a5, 0x14
   18e0a: 93 f9 f9 7f  	andi	s3, s3, 0x7ff
   18e0e: b2 17        	slli	a5, a5, 0x2c
   18e10: aa 84        	mv	s1, a0
   18e12: b1 93        	srli	a5, a5, 0x2c
   18e14: 63 85 09 00  	beqz	s3, 0x18e1e <__d2b+0x3a>
   18e18: 37 07 10 00  	lui	a4, 0x100
   18e1c: d9 8f        	or	a5, a5, a4
   18e1e: 3e c6        	sw	a5, 0xc(sp)
   18e20: 01 24        	sext.w	s0, s0
   18e22: 29 e0        	bnez	s0, 0x18e64 <__d2b+0x80>
   18e24: 68 00        	addi	a0, sp, 0xc
   18e26: ef f0 cf fc  	jal	0x185f2 <__lo0bits>
   18e2a: b2 47        	lw	a5, 0xc(sp)
   18e2c: 05 44        	li	s0, 0x1
   18e2e: c0 c8        	sw	s0, 0x14(s1)
   18e30: 9c cc        	sw	a5, 0x18(s1)
   18e32: 1b 05 05 02  	addiw	a0, a0, 0x20
   18e36: 63 80 09 06  	beqz	s3, 0x18e96 <__d2b+0xb2>
   18e3a: 9b 89 d9 bc  	addiw	s3, s3, -0x433
   18e3e: bb 89 a9 00  	addw	s3, s3, a0
   18e42: 13 04 50 03  	li	s0, 0x35
   18e46: 23 20 3a 01  	sw	s3, 0x0(s4)
   18e4a: 3b 05 a4 40  	subw	a0, s0, a0
   18e4e: e2 70        	ld	ra, 0x38(sp)
   18e50: 42 74        	ld	s0, 0x30(sp)
   18e52: 23 20 a9 00  	sw	a0, 0x0(s2)
   18e56: e2 69        	ld	s3, 0x18(sp)
   18e58: 02 79        	ld	s2, 0x20(sp)
   18e5a: 42 6a        	ld	s4, 0x10(sp)
   18e5c: 26 85        	mv	a0, s1
   18e5e: a2 74        	ld	s1, 0x28(sp)
   18e60: 21 61        	addi	sp, sp, 0x40
   18e62: 82 80        	ret
   18e64: 28 00        	addi	a0, sp, 0x8
   18e66: 22 c4        	sw	s0, 0x8(sp)
   18e68: ef f0 af f8  	jal	0x185f2 <__lo0bits>
   18e6c: b2 47        	lw	a5, 0xc(sp)
   18e6e: 22 47        	lw	a4, 0x8(sp)
   18e70: 19 c9        	beqz	a0, 0x18e86 <__d2b+0xa2>
   18e72: 93 06 00 02  	li	a3, 0x20
   18e76: 89 9e        	subw	a3, a3, a0
   18e78: bb 96 d7 00  	sllw	a3, a5, a3
   18e7c: 55 8f        	or	a4, a4, a3
   18e7e: bb d7 a7 00  	srlw	a5, a5, a0
   18e82: 01 27        	sext.w	a4, a4
   18e84: 3e c6        	sw	a5, 0xc(sp)
   18e86: 33 34 f0 00  	snez	s0, a5
   18e8a: 05 04        	addi	s0, s0, 0x1
   18e8c: 98 cc        	sw	a4, 0x18(s1)
   18e8e: dc cc        	sw	a5, 0x1c(s1)
   18e90: c0 c8        	sw	s0, 0x14(s1)
   18e92: e3 94 09 fa  	bnez	s3, 0x18e3a <__d2b+0x56>
   18e96: 1b 05 e5 bc  	addiw	a0, a0, -0x432
   18e9a: 93 17 24 00  	slli	a5, s0, 0x2
   18e9e: 23 20 aa 00  	sw	a0, 0x0(s4)
   18ea2: a6 97        	add	a5, a5, s1
   18ea4: c8 4b        	lw	a0, 0x14(a5)
   18ea6: 1b 14 54 00  	slliw	s0, s0, 0x5
   18eaa: ef f0 af ee  	jal	0x18594 <__hi0bits>
   18eae: 3b 05 a4 40  	subw	a0, s0, a0
   18eb2: 71 bf        	j	0x18e4e <__d2b+0x6a>
   18eb4: ed 66        	lui	a3, 0x1b
   18eb6: 6d 65        	lui	a0, 0x1b
   18eb8: 93 86 06 1c  	addi	a3, a3, 0x1c0
   18ebc: 01 46        	li	a2, 0x0
   18ebe: 93 05 f0 30  	li	a1, 0x30f
   18ec2: 13 05 85 1d  	addi	a0, a0, 0x1d8
   18ec6: ef 00 70 00  	jal	0x196cc <__assert_func>

0000000000018eca <__ratio>:
   18eca: 79 71        	addi	sp, sp, -0x30
   18ecc: 26 ec        	sd	s1, 0x18(sp)
   18ece: ae 84        	mv	s1, a1
   18ed0: 2c 00        	addi	a1, sp, 0x8
   18ed2: 06 f4        	sd	ra, 0x28(sp)
   18ed4: 22 f0        	sd	s0, 0x20(sp)
   18ed6: 4a e8        	sd	s2, 0x10(sp)
   18ed8: 2a 89        	mv	s2, a0
   18eda: ef f0 1f e2  	jal	0x18cfa <__b2d>
   18ede: 6c 00        	addi	a1, sp, 0xc
   18ee0: 26 85        	mv	a0, s1
   18ee2: 53 04 05 e2  	fmv.x.d	s0, fa0
   18ee6: ef f0 5f e1  	jal	0x18cfa <__b2d>
   18eea: 83 27 49 01  	lw	a5, 0x14(s2)
   18eee: d0 48        	lw	a2, 0x14(s1)
   18ef0: b2 46        	lw	a3, 0xc(sp)
   18ef2: 22 47        	lw	a4, 0x8(sp)
   18ef4: 91 9f        	subw	a5, a5, a2
   18ef6: 9b 97 57 00  	slliw	a5, a5, 0x5
   18efa: 15 9f        	subw	a4, a4, a3
   18efc: bb 86 e7 00  	addw	a3, a5, a4
   18f00: b6 87        	mv	a5, a3
   18f02: 53 07 05 e2  	fmv.x.d	a4, fa0
   18f06: 63 59 d0 02  	blez	a3, 0x18f38 <__ratio+0x6e>
   18f0a: 93 56 04 02  	srli	a3, s0, 0x20
   18f0e: 9b 97 47 01  	slliw	a5, a5, 0x14
   18f12: b5 9f        	addw	a5, a5, a3
   18f14: fd 56        	li	a3, -0x1
   18f16: 81 92        	srli	a3, a3, 0x20
   18f18: 82 17        	slli	a5, a5, 0x20
   18f1a: e1 8e        	and	a3, a3, s0
   18f1c: 33 e4 f6 00  	or	s0, a3, a5
   18f20: d3 07 04 f2  	fmv.d.x	fa5, s0
   18f24: a2 70        	ld	ra, 0x28(sp)
   18f26: 02 74        	ld	s0, 0x20(sp)
   18f28: 53 07 07 f2  	fmv.d.x	fa4, a4
   18f2c: e2 64        	ld	s1, 0x18(sp)
   18f2e: 42 69        	ld	s2, 0x10(sp)
   18f30: 53 f5 e7 1a  	fdiv.d	fa0, fa5, fa4
   18f34: 45 61        	addi	sp, sp, 0x30
   18f36: 82 80        	ret
   18f38: 93 56 07 02  	srli	a3, a4, 0x20
   18f3c: 9b 97 47 01  	slliw	a5, a5, 0x14
   18f40: bb 87 f6 40  	subw	a5, a3, a5
   18f44: fd 56        	li	a3, -0x1
   18f46: 81 92        	srli	a3, a3, 0x20
   18f48: 82 17        	slli	a5, a5, 0x20
   18f4a: 75 8f        	and	a4, a4, a3
   18f4c: 5d 8f        	or	a4, a4, a5
   18f4e: c9 bf        	j	0x18f20 <__ratio+0x56>

0000000000018f50 <_mprec_log10>:
   18f50: dd 47        	li	a5, 0x17
   18f52: 63 db a7 00  	bge	a5, a0, 0x18f68 <_mprec_log10+0x18>
   18f56: 07 b5 01 f0  	fld	fa0, -0x100(gp)
   18f5a: 87 b7 81 15  	fld	fa5, 0x158(gp)
   18f5e: 7d 35        	addiw	a0, a0, -0x1
   18f60: 53 75 f5 12  	fmul.d	fa0, fa0, fa5
   18f64: 6d fd        	bnez	a0, 0x18f5e <_mprec_log10+0xe>
   18f66: 82 80        	ret
   18f68: f1 67        	lui	a5, 0x1c
   18f6a: 0e 05        	slli	a0, a0, 0x3
   18f6c: 93 87 87 95  	addi	a5, a5, -0x6a8
   18f70: aa 97        	add	a5, a5, a0
   18f72: 88 23        	fld	fa0, 0x0(a5)
   18f74: 82 80        	ret

0000000000018f76 <__copybits>:
   18f76: 54 4a        	lw	a3, 0x14(a2)
   18f78: fd 35        	addiw	a1, a1, -0x1
   18f7a: 9b d5 55 40  	sraiw	a1, a1, 0x5
   18f7e: 85 25        	addiw	a1, a1, 0x1
   18f80: 93 07 86 01  	addi	a5, a2, 0x18
   18f84: 8a 06        	slli	a3, a3, 0x2
   18f86: 8a 05        	slli	a1, a1, 0x2
   18f88: be 96        	add	a3, a3, a5
   18f8a: aa 95        	add	a1, a1, a0
   18f8c: 63 f1 d7 02  	bgeu	a5, a3, 0x18fae <__copybits+0x38>
   18f90: 2a 87        	mv	a4, a0
   18f92: 03 a8 07 00  	lw	a6, 0x0(a5)
   18f96: 91 07        	addi	a5, a5, 0x4
   18f98: 11 07        	addi	a4, a4, 0x4
   18f9a: 23 2e 07 ff  	sw	a6, -0x4(a4)
   18f9e: e3 ea d7 fe  	bltu	a5, a3, 0x18f92 <__copybits+0x1c>
   18fa2: b3 87 c6 40  	sub	a5, a3, a2
   18fa6: 9d 17        	addi	a5, a5, -0x19
   18fa8: f1 9b        	andi	a5, a5, -0x4
   18faa: 91 07        	addi	a5, a5, 0x4
   18fac: 3e 95        	add	a0, a0, a5
   18fae: 63 77 b5 00  	bgeu	a0, a1, 0x18fbc <__copybits+0x46>
   18fb2: 11 05        	addi	a0, a0, 0x4
   18fb4: 23 2e 05 fe  	sw	zero, -0x4(a0)
   18fb8: e3 6d b5 fe  	bltu	a0, a1, 0x18fb2 <__copybits+0x3c>
   18fbc: 82 80        	ret

0000000000018fbe <__any_on>:
   18fbe: 58 49        	lw	a4, 0x14(a0)
   18fc0: 13 d6 55 40  	srai	a2, a1, 0x5
   18fc4: 93 06 85 01  	addi	a3, a0, 0x18
   18fc8: 63 5d c7 00  	bge	a4, a2, 0x18fe2 <__any_on+0x24>
   18fcc: 0a 07        	slli	a4, a4, 0x2
   18fce: b3 87 e6 00  	add	a5, a3, a4
   18fd2: 63 f8 f6 02  	bgeu	a3, a5, 0x19002 <__any_on+0x44>
   18fd6: 03 a7 c7 ff  	lw	a4, -0x4(a5)
   18fda: f1 17        	addi	a5, a5, -0x4
   18fdc: 7d db        	beqz	a4, 0x18fd2 <__any_on+0x14>
   18fde: 05 45        	li	a0, 0x1
   18fe0: 82 80        	ret
   18fe2: 93 17 26 00  	slli	a5, a2, 0x2
   18fe6: b6 97        	add	a5, a5, a3
   18fe8: e3 55 e6 fe  	bge	a2, a4, 0x18fd2 <__any_on+0x14>
   18fec: fd 89        	andi	a1, a1, 0x1f
   18fee: f5 d1        	beqz	a1, 0x18fd2 <__any_on+0x14>
   18ff0: 90 43        	lw	a2, 0x0(a5)
   18ff2: 05 45        	li	a0, 0x1
   18ff4: 3b 57 b6 00  	srlw	a4, a2, a1
   18ff8: 3b 17 b7 00  	sllw	a4, a4, a1
   18ffc: e3 0b c7 fc  	beq	a4, a2, 0x18fd2 <__any_on+0x14>
   19000: 82 80        	ret
   19002: 01 45        	li	a0, 0x0
   19004: 82 80        	ret

0000000000019006 <_realloc_r>:
   19006: 5d 71        	addi	sp, sp, -0x50
   19008: 4a f8        	sd	s2, 0x30(sp)
   1900a: 86 e4        	sd	ra, 0x48(sp)
   1900c: 32 89        	mv	s2, a2
   1900e: 63 83 05 16  	beqz	a1, 0x19174 <_realloc_r+0x16e>
   19012: a2 e0        	sd	s0, 0x40(sp)
   19014: 26 fc        	sd	s1, 0x38(sp)
   19016: 2e 84        	mv	s0, a1
   19018: 4e f4        	sd	s3, 0x28(sp)
   1901a: 52 f0        	sd	s4, 0x20(sp)
   1901c: 56 ec        	sd	s5, 0x18(sp)
   1901e: aa 89        	mv	s3, a0
   19020: ef a0 2f b1  	jal	0x13332 <__malloc_lock>
   19024: 83 37 84 ff  	ld	a5, -0x8(s0)
   19028: 93 04 79 01  	addi	s1, s2, 0x17
   1902c: 13 07 e0 02  	li	a4, 0x2e
   19030: 93 0a 04 ff  	addi	s5, s0, -0x10
   19034: 13 fa c7 ff  	andi	s4, a5, -0x4
   19038: 63 73 97 0c  	bgeu	a4, s1, 0x190fe <_realloc_r+0xf8>
   1903c: 37 07 00 80  	lui	a4, 0x80000
   19040: c1 98        	andi	s1, s1, -0x10
   19042: 13 47 f7 ff  	not	a4, a4
   19046: 63 60 97 0c  	bltu	a4, s1, 0x19106 <_realloc_r+0x100>
   1904a: 63 ee 24 0b  	bltu	s1, s2, 0x19106 <_realloc_r+0x100>
   1904e: 63 57 9a 0c  	bge	s4, s1, 0x1911c <_realloc_r+0x116>
   19052: 71 67        	lui	a4, 0x1c
   19054: 62 e0        	sd	s8, 0x0(sp)
   19056: 13 0c 87 35  	addi	s8, a4, 0x358
   1905a: 03 36 0c 01  	ld	a2, 0x10(s8)
   1905e: b3 86 4a 01  	add	a3, s5, s4
   19062: 98 66        	ld	a4, 0x8(a3)
   19064: 63 0f d6 12  	beq	a2, a3, 0x191a2 <_realloc_r+0x19c>
   19068: 13 76 e7 ff  	andi	a2, a4, -0x2
   1906c: 36 96        	add	a2, a2, a3
   1906e: 10 66        	ld	a2, 0x8(a2)
   19070: 05 8a        	andi	a2, a2, 0x1
   19072: 6d e6        	bnez	a2, 0x1915c <_realloc_r+0x156>
   19074: 71 9b        	andi	a4, a4, -0x4
   19076: 33 06 ea 00  	add	a2, s4, a4
   1907a: 63 5b 96 08  	bge	a2, s1, 0x19110 <_realloc_r+0x10a>
   1907e: 85 8b        	andi	a5, a5, 0x1
   19080: 8d e7        	bnez	a5, 0x190aa <_realloc_r+0xa4>
   19082: 5e e4        	sd	s7, 0x8(sp)
   19084: 83 3b 04 ff  	ld	s7, -0x10(s0)
   19088: 5a e8        	sd	s6, 0x10(sp)
   1908a: b3 8b 7a 41  	sub	s7, s5, s7
   1908e: 83 b7 8b 00  	ld	a5, 0x8(s7)
   19092: f1 9b        	andi	a5, a5, -0x4
   19094: 3e 97        	add	a4, a4, a5
   19096: 33 0b 47 01  	add	s6, a4, s4
   1909a: 63 55 9b 24  	bge	s6, s1, 0x192e4 <_realloc_r+0x2de>
   1909e: 33 0b fa 00  	add	s6, s4, a5
   190a2: 63 57 9b 1c  	bge	s6, s1, 0x19270 <_realloc_r+0x26a>
   190a6: 42 6b        	ld	s6, 0x10(sp)
   190a8: a2 6b        	ld	s7, 0x8(sp)
   190aa: ca 85        	mv	a1, s2
   190ac: 4e 85        	mv	a0, s3
   190ae: ef 90 3f c8  	jal	0x12d30 <_malloc_r>
   190b2: 2a 89        	mv	s2, a0
   190b4: 63 08 05 2e  	beqz	a0, 0x193a4 <_realloc_r+0x39e>
   190b8: 83 37 84 ff  	ld	a5, -0x8(s0)
   190bc: 13 07 05 ff  	addi	a4, a0, -0x10
   190c0: f9 9b        	andi	a5, a5, -0x2
   190c2: d6 97        	add	a5, a5, s5
   190c4: 63 80 e7 1a  	beq	a5, a4, 0x19264 <_realloc_r+0x25e>
   190c8: 13 06 8a ff  	addi	a2, s4, -0x8
   190cc: 93 07 80 04  	li	a5, 0x48
   190d0: 63 e6 c7 20  	bltu	a5, a2, 0x192dc <_realloc_r+0x2d6>
   190d4: 13 07 70 02  	li	a4, 0x27
   190d8: 63 69 c7 16  	bltu	a4, a2, 0x1924a <_realloc_r+0x244>
   190dc: aa 87        	mv	a5, a0
   190de: 22 87        	mv	a4, s0
   190e0: 14 63        	ld	a3, 0x0(a4)
   190e2: 94 e3        	sd	a3, 0x0(a5)
   190e4: 14 67        	ld	a3, 0x8(a4)
   190e6: 94 e7        	sd	a3, 0x8(a5)
   190e8: 18 6b        	ld	a4, 0x10(a4)
   190ea: 98 eb        	sd	a4, 0x10(a5)
   190ec: a2 85        	mv	a1, s0
   190ee: 4e 85        	mv	a0, s3
   190f0: ef 90 df 9f  	jal	0x12aec <_free_r>
   190f4: 4e 85        	mv	a0, s3
   190f6: ef a0 ef a3  	jal	0x13334 <__malloc_unlock>
   190fa: 02 6c        	ld	s8, 0x0(sp)
   190fc: b1 a0        	j	0x19148 <_realloc_r+0x142>
   190fe: 93 04 00 02  	li	s1, 0x20
   19102: e3 f6 24 f5  	bgeu	s1, s2, 0x1904e <_realloc_r+0x48>
   19106: b1 47        	li	a5, 0xc
   19108: 23 a0 f9 00  	sw	a5, 0x0(s3)
   1910c: 01 49        	li	s2, 0x0
   1910e: 2d a8        	j	0x19148 <_realloc_r+0x142>
   19110: 9c 6e        	ld	a5, 0x18(a3)
   19112: 98 6a        	ld	a4, 0x10(a3)
   19114: 02 6c        	ld	s8, 0x0(sp)
   19116: 32 8a        	mv	s4, a2
   19118: 1c ef        	sd	a5, 0x18(a4)
   1911a: 98 eb        	sd	a4, 0x10(a5)
   1911c: 83 b7 8a 00  	ld	a5, 0x8(s5)
   19120: b3 06 9a 40  	sub	a3, s4, s1
   19124: 7d 46        	li	a2, 0x1f
   19126: 85 8b        	andi	a5, a5, 0x1
   19128: 33 87 4a 01  	add	a4, s5, s4
   1912c: 63 6a d6 04  	bltu	a2, a3, 0x19180 <_realloc_r+0x17a>
   19130: b3 e7 47 01  	or	a5, a5, s4
   19134: 23 b4 fa 00  	sd	a5, 0x8(s5)
   19138: 1c 67        	ld	a5, 0x8(a4)
   1913a: 93 e7 17 00  	ori	a5, a5, 0x1
   1913e: 1c e7        	sd	a5, 0x8(a4)
   19140: 4e 85        	mv	a0, s3
   19142: ef a0 2f 9f  	jal	0x13334 <__malloc_unlock>
   19146: 22 89        	mv	s2, s0
   19148: 06 64        	ld	s0, 0x40(sp)
   1914a: a6 60        	ld	ra, 0x48(sp)
   1914c: e2 74        	ld	s1, 0x38(sp)
   1914e: a2 79        	ld	s3, 0x28(sp)
   19150: 02 7a        	ld	s4, 0x20(sp)
   19152: e2 6a        	ld	s5, 0x18(sp)
   19154: 4a 85        	mv	a0, s2
   19156: 42 79        	ld	s2, 0x30(sp)
   19158: 61 61        	addi	sp, sp, 0x50
   1915a: 82 80        	ret
   1915c: 85 8b        	andi	a5, a5, 0x1
   1915e: b1 f7        	bnez	a5, 0x190aa <_realloc_r+0xa4>
   19160: 5e e4        	sd	s7, 0x8(sp)
   19162: 83 3b 04 ff  	ld	s7, -0x10(s0)
   19166: 5a e8        	sd	s6, 0x10(sp)
   19168: b3 8b 7a 41  	sub	s7, s5, s7
   1916c: 83 b7 8b 00  	ld	a5, 0x8(s7)
   19170: f1 9b        	andi	a5, a5, -0x4
   19172: 35 b7        	j	0x1909e <_realloc_r+0x98>
   19174: a6 60        	ld	ra, 0x48(sp)
   19176: 42 79        	ld	s2, 0x30(sp)
   19178: b2 85        	mv	a1, a2
   1917a: 61 61        	addi	sp, sp, 0x50
   1917c: 6f 90 5f bb  	j	0x12d30 <_malloc_r>
   19180: c5 8f        	or	a5, a5, s1
   19182: 23 b4 fa 00  	sd	a5, 0x8(s5)
   19186: b3 85 9a 00  	add	a1, s5, s1
   1918a: 93 e6 16 00  	ori	a3, a3, 0x1
   1918e: 94 e5        	sd	a3, 0x8(a1)
   19190: 1c 67        	ld	a5, 0x8(a4)
   19192: c1 05        	addi	a1, a1, 0x10
   19194: 4e 85        	mv	a0, s3
   19196: 93 e7 17 00  	ori	a5, a5, 0x1
   1919a: 1c e7        	sd	a5, 0x8(a4)
   1919c: ef 90 1f 95  	jal	0x12aec <_free_r>
   191a0: 45 b7        	j	0x19140 <_realloc_r+0x13a>
   191a2: 71 9b        	andi	a4, a4, -0x4
   191a4: b3 06 47 01  	add	a3, a4, s4
   191a8: 13 86 04 02  	addi	a2, s1, 0x20
   191ac: 63 d3 c6 1c  	bge	a3, a2, 0x19372 <_realloc_r+0x36c>
   191b0: 85 8b        	andi	a5, a5, 0x1
   191b2: e3 9c 07 ee  	bnez	a5, 0x190aa <_realloc_r+0xa4>
   191b6: 5e e4        	sd	s7, 0x8(sp)
   191b8: 83 3b 04 ff  	ld	s7, -0x10(s0)
   191bc: 5a e8        	sd	s6, 0x10(sp)
   191be: b3 8b 7a 41  	sub	s7, s5, s7
   191c2: 83 b7 8b 00  	ld	a5, 0x8(s7)
   191c6: f1 9b        	andi	a5, a5, -0x4
   191c8: 3e 97        	add	a4, a4, a5
   191ca: 33 0b 47 01  	add	s6, a4, s4
   191ce: e3 48 cb ec  	blt	s6, a2, 0x1909e <_realloc_r+0x98>
   191d2: 83 b7 8b 01  	ld	a5, 0x18(s7)
   191d6: 03 b7 0b 01  	ld	a4, 0x10(s7)
   191da: 13 06 8a ff  	addi	a2, s4, -0x8
   191de: 93 06 80 04  	li	a3, 0x48
   191e2: 1c ef        	sd	a5, 0x18(a4)
   191e4: 98 eb        	sd	a4, 0x10(a5)
   191e6: 13 89 0b 01  	addi	s2, s7, 0x10
   191ea: 63 ec c6 1c  	bltu	a3, a2, 0x193c2 <_realloc_r+0x3bc>
   191ee: 13 07 70 02  	li	a4, 0x27
   191f2: ca 87        	mv	a5, s2
   191f4: 63 7f c7 00  	bgeu	a4, a2, 0x19212 <_realloc_r+0x20c>
   191f8: 18 60        	ld	a4, 0x0(s0)
   191fa: 93 07 70 03  	li	a5, 0x37
   191fe: 23 b8 eb 00  	sd	a4, 0x10(s7)
   19202: 18 64        	ld	a4, 0x8(s0)
   19204: 23 bc eb 00  	sd	a4, 0x18(s7)
   19208: 63 e2 c7 1c  	bltu	a5, a2, 0x193cc <_realloc_r+0x3c6>
   1920c: 41 04        	addi	s0, s0, 0x10
   1920e: 93 87 0b 02  	addi	a5, s7, 0x20
   19212: 18 60        	ld	a4, 0x0(s0)
   19214: 98 e3        	sd	a4, 0x0(a5)
   19216: 18 64        	ld	a4, 0x8(s0)
   19218: 98 e7        	sd	a4, 0x8(a5)
   1921a: 18 68        	ld	a4, 0x10(s0)
   1921c: 98 eb        	sd	a4, 0x10(a5)
   1921e: 33 87 9b 00  	add	a4, s7, s1
   19222: b3 07 9b 40  	sub	a5, s6, s1
   19226: 23 38 ec 00  	sd	a4, 0x10(s8)
   1922a: 93 e7 17 00  	ori	a5, a5, 0x1
   1922e: 1c e7        	sd	a5, 0x8(a4)
   19230: 83 b7 8b 00  	ld	a5, 0x8(s7)
   19234: 4e 85        	mv	a0, s3
   19236: 85 8b        	andi	a5, a5, 0x1
   19238: c5 8f        	or	a5, a5, s1
   1923a: 23 b4 fb 00  	sd	a5, 0x8(s7)
   1923e: ef a0 6f 8f  	jal	0x13334 <__malloc_unlock>
   19242: 42 6b        	ld	s6, 0x10(sp)
   19244: a2 6b        	ld	s7, 0x8(sp)
   19246: 02 6c        	ld	s8, 0x0(sp)
   19248: 01 b7        	j	0x19148 <_realloc_r+0x142>
   1924a: 14 60        	ld	a3, 0x0(s0)
   1924c: 13 07 70 03  	li	a4, 0x37
   19250: 14 e1        	sd	a3, 0x0(a0)
   19252: 14 64        	ld	a3, 0x8(s0)
   19254: 14 e5        	sd	a3, 0x8(a0)
   19256: 63 63 c7 10  	bltu	a4, a2, 0x1935c <_realloc_r+0x356>
   1925a: 13 07 04 01  	addi	a4, s0, 0x10
   1925e: 93 07 05 01  	addi	a5, a0, 0x10
   19262: bd bd        	j	0x190e0 <_realloc_r+0xda>
   19264: 83 37 85 ff  	ld	a5, -0x8(a0)
   19268: 02 6c        	ld	s8, 0x0(sp)
   1926a: f1 9b        	andi	a5, a5, -0x4
   1926c: 3e 9a        	add	s4, s4, a5
   1926e: 7d b5        	j	0x1911c <_realloc_r+0x116>
   19270: 83 b7 8b 01  	ld	a5, 0x18(s7)
   19274: 03 b7 0b 01  	ld	a4, 0x10(s7)
   19278: 13 06 8a ff  	addi	a2, s4, -0x8
   1927c: 93 06 80 04  	li	a3, 0x48
   19280: 1c ef        	sd	a5, 0x18(a4)
   19282: 98 eb        	sd	a4, 0x10(a5)
   19284: 13 89 0b 01  	addi	s2, s7, 0x10
   19288: 63 e5 c6 0c  	bltu	a3, a2, 0x19352 <_realloc_r+0x34c>
   1928c: 13 07 70 02  	li	a4, 0x27
   19290: ca 87        	mv	a5, s2
   19292: 63 78 c7 02  	bgeu	a4, a2, 0x192c2 <_realloc_r+0x2bc>
   19296: 18 60        	ld	a4, 0x0(s0)
   19298: 93 07 70 03  	li	a5, 0x37
   1929c: 23 b8 eb 00  	sd	a4, 0x10(s7)
   192a0: 18 64        	ld	a4, 0x8(s0)
   192a2: 23 bc eb 00  	sd	a4, 0x18(s7)
   192a6: 63 fb c7 0e  	bgeu	a5, a2, 0x1939c <_realloc_r+0x396>
   192aa: 1c 68        	ld	a5, 0x10(s0)
   192ac: 23 b0 fb 02  	sd	a5, 0x20(s7)
   192b0: 1c 6c        	ld	a5, 0x18(s0)
   192b2: 23 b4 fb 02  	sd	a5, 0x28(s7)
   192b6: 63 02 d6 08  	beq	a2, a3, 0x1933a <_realloc_r+0x334>
   192ba: 13 04 04 02  	addi	s0, s0, 0x20
   192be: 93 87 0b 03  	addi	a5, s7, 0x30
   192c2: 18 60        	ld	a4, 0x0(s0)
   192c4: 98 e3        	sd	a4, 0x0(a5)
   192c6: 18 64        	ld	a4, 0x8(s0)
   192c8: 98 e7        	sd	a4, 0x8(a5)
   192ca: 18 68        	ld	a4, 0x10(s0)
   192cc: 98 eb        	sd	a4, 0x10(a5)
   192ce: 5a 8a        	mv	s4, s6
   192d0: de 8a        	mv	s5, s7
   192d2: 42 6b        	ld	s6, 0x10(sp)
   192d4: a2 6b        	ld	s7, 0x8(sp)
   192d6: 02 6c        	ld	s8, 0x0(sp)
   192d8: 4a 84        	mv	s0, s2
   192da: 89 b5        	j	0x1911c <_realloc_r+0x116>
   192dc: a2 85        	mv	a1, s0
   192de: ef d0 8f ed  	jal	0x169b6 <memmove>
   192e2: 29 b5        	j	0x190ec <_realloc_r+0xe6>
   192e4: 9c 6e        	ld	a5, 0x18(a3)
   192e6: 98 6a        	ld	a4, 0x10(a3)
   192e8: 13 06 8a ff  	addi	a2, s4, -0x8
   192ec: 93 06 80 04  	li	a3, 0x48
   192f0: 1c ef        	sd	a5, 0x18(a4)
   192f2: 98 eb        	sd	a4, 0x10(a5)
   192f4: 03 b7 0b 01  	ld	a4, 0x10(s7)
   192f8: 83 b7 8b 01  	ld	a5, 0x18(s7)
   192fc: 13 89 0b 01  	addi	s2, s7, 0x10
   19300: 1c ef        	sd	a5, 0x18(a4)
   19302: 98 eb        	sd	a4, 0x10(a5)
   19304: 63 e7 c6 04  	bltu	a3, a2, 0x19352 <_realloc_r+0x34c>
   19308: 13 07 70 02  	li	a4, 0x27
   1930c: ca 87        	mv	a5, s2
   1930e: e3 7a c7 fa  	bgeu	a4, a2, 0x192c2 <_realloc_r+0x2bc>
   19312: 18 60        	ld	a4, 0x0(s0)
   19314: 93 07 70 03  	li	a5, 0x37
   19318: 23 b8 eb 00  	sd	a4, 0x10(s7)
   1931c: 18 64        	ld	a4, 0x8(s0)
   1931e: 23 bc eb 00  	sd	a4, 0x18(s7)
   19322: 63 fd c7 06  	bgeu	a5, a2, 0x1939c <_realloc_r+0x396>
   19326: 18 68        	ld	a4, 0x10(s0)
   19328: 93 07 80 04  	li	a5, 0x48
   1932c: 23 b0 eb 02  	sd	a4, 0x20(s7)
   19330: 18 6c        	ld	a4, 0x18(s0)
   19332: 23 b4 eb 02  	sd	a4, 0x28(s7)
   19336: e3 12 f6 f8  	bne	a2, a5, 0x192ba <_realloc_r+0x2b4>
   1933a: 18 70        	ld	a4, 0x20(s0)
   1933c: 93 87 0b 04  	addi	a5, s7, 0x40
   19340: 13 04 04 03  	addi	s0, s0, 0x30
   19344: 23 b8 eb 02  	sd	a4, 0x30(s7)
   19348: 03 37 84 ff  	ld	a4, -0x8(s0)
   1934c: 23 bc eb 02  	sd	a4, 0x38(s7)
   19350: 8d bf        	j	0x192c2 <_realloc_r+0x2bc>
   19352: a2 85        	mv	a1, s0
   19354: 4a 85        	mv	a0, s2
   19356: ef d0 0f e6  	jal	0x169b6 <memmove>
   1935a: 95 bf        	j	0x192ce <_realloc_r+0x2c8>
   1935c: 18 68        	ld	a4, 0x10(s0)
   1935e: 18 e9        	sd	a4, 0x10(a0)
   19360: 18 6c        	ld	a4, 0x18(s0)
   19362: 18 ed        	sd	a4, 0x18(a0)
   19364: 63 06 f6 04  	beq	a2, a5, 0x193b0 <_realloc_r+0x3aa>
   19368: 13 07 04 02  	addi	a4, s0, 0x20
   1936c: 93 07 05 02  	addi	a5, a0, 0x20
   19370: 85 bb        	j	0x190e0 <_realloc_r+0xda>
   19372: a6 9a        	add	s5, s5, s1
   19374: b3 87 96 40  	sub	a5, a3, s1
   19378: 23 38 5c 01  	sd	s5, 0x10(s8)
   1937c: 93 e7 17 00  	ori	a5, a5, 0x1
   19380: 23 b4 fa 00  	sd	a5, 0x8(s5)
   19384: 83 37 84 ff  	ld	a5, -0x8(s0)
   19388: 4e 85        	mv	a0, s3
   1938a: 22 89        	mv	s2, s0
   1938c: 85 8b        	andi	a5, a5, 0x1
   1938e: c5 8f        	or	a5, a5, s1
   19390: 23 3c f4 fe  	sd	a5, -0x8(s0)
   19394: ef 90 1f fa  	jal	0x13334 <__malloc_unlock>
   19398: 02 6c        	ld	s8, 0x0(sp)
   1939a: 7d b3        	j	0x19148 <_realloc_r+0x142>
   1939c: 41 04        	addi	s0, s0, 0x10
   1939e: 93 87 0b 02  	addi	a5, s7, 0x20
   193a2: 05 b7        	j	0x192c2 <_realloc_r+0x2bc>
   193a4: 4e 85        	mv	a0, s3
   193a6: ef 90 ff f8  	jal	0x13334 <__malloc_unlock>
   193aa: 01 49        	li	s2, 0x0
   193ac: 02 6c        	ld	s8, 0x0(sp)
   193ae: 69 bb        	j	0x19148 <_realloc_r+0x142>
   193b0: 14 70        	ld	a3, 0x20(s0)
   193b2: 13 07 04 03  	addi	a4, s0, 0x30
   193b6: 93 07 05 03  	addi	a5, a0, 0x30
   193ba: 14 f1        	sd	a3, 0x20(a0)
   193bc: 14 74        	ld	a3, 0x28(s0)
   193be: 14 f5        	sd	a3, 0x28(a0)
   193c0: 05 b3        	j	0x190e0 <_realloc_r+0xda>
   193c2: a2 85        	mv	a1, s0
   193c4: 4a 85        	mv	a0, s2
   193c6: ef d0 0f df  	jal	0x169b6 <memmove>
   193ca: 91 bd        	j	0x1921e <_realloc_r+0x218>
   193cc: 1c 68        	ld	a5, 0x10(s0)
   193ce: 23 b0 fb 02  	sd	a5, 0x20(s7)
   193d2: 1c 6c        	ld	a5, 0x18(s0)
   193d4: 23 b4 fb 02  	sd	a5, 0x28(s7)
   193d8: 63 07 d6 00  	beq	a2, a3, 0x193e6 <_realloc_r+0x3e0>
   193dc: 13 04 04 02  	addi	s0, s0, 0x20
   193e0: 93 87 0b 03  	addi	a5, s7, 0x30
   193e4: 3d b5        	j	0x19212 <_realloc_r+0x20c>
   193e6: 18 70        	ld	a4, 0x20(s0)
   193e8: 93 87 0b 04  	addi	a5, s7, 0x40
   193ec: 13 04 04 03  	addi	s0, s0, 0x30
   193f0: 23 b8 eb 02  	sd	a4, 0x30(s7)
   193f4: 03 37 84 ff  	ld	a4, -0x8(s0)
   193f8: 23 bc eb 02  	sd	a4, 0x38(s7)
   193fc: 19 bd        	j	0x19212 <_realloc_r+0x20c>

00000000000193fe <_wctomb_r>:
   193fe: 83 b7 01 e0  	ld	a5, -0x200(gp)
   19402: 82 87        	jr	a5

0000000000019404 <__ascii_wctomb>:
   19404: 9b 07 06 00  	sext.w	a5, a2
   19408: 91 cd        	beqz	a1, 0x19424 <__ascii_wctomb+0x20>
   1940a: 13 07 f0 0f  	li	a4, 0xff
   1940e: 63 66 f7 00  	bltu	a4, a5, 0x1941a <__ascii_wctomb+0x16>
   19412: 23 80 c5 00  	sb	a2, 0x0(a1)
   19416: 05 45        	li	a0, 0x1
   19418: 82 80        	ret
   1941a: 93 07 a0 08  	li	a5, 0x8a
   1941e: 1c c1        	sw	a5, 0x0(a0)
   19420: 7d 55        	li	a0, -0x1
   19422: 82 80        	ret
   19424: 01 45        	li	a0, 0x0
   19426: 82 80        	ret

0000000000019428 <_wcrtomb_r>:
   19428: 79 71        	addi	sp, sp, -0x30
   1942a: 22 f0        	sd	s0, 0x20(sp)
   1942c: 26 ec        	sd	s1, 0x18(sp)
   1942e: 06 f4        	sd	ra, 0x28(sp)
   19430: 83 b7 01 e0  	ld	a5, -0x200(gp)
   19434: 2a 84        	mv	s0, a0
   19436: b6 84        	mv	s1, a3
   19438: 91 c9        	beqz	a1, 0x1944c <_wcrtomb_r+0x24>
   1943a: 82 97        	jalr	a5
   1943c: fd 57        	li	a5, -0x1
   1943e: 63 0d f5 00  	beq	a0, a5, 0x19458 <_wcrtomb_r+0x30>
   19442: a2 70        	ld	ra, 0x28(sp)
   19444: 02 74        	ld	s0, 0x20(sp)
   19446: e2 64        	ld	s1, 0x18(sp)
   19448: 45 61        	addi	sp, sp, 0x30
   1944a: 82 80        	ret
   1944c: 01 46        	li	a2, 0x0
   1944e: 8a 85        	mv	a1, sp
   19450: 82 97        	jalr	a5
   19452: fd 57        	li	a5, -0x1
   19454: e3 17 f5 fe  	bne	a0, a5, 0x19442 <_wcrtomb_r+0x1a>
   19458: 23 a0 04 00  	sw	zero, 0x0(s1)
   1945c: 93 07 a0 08  	li	a5, 0x8a
   19460: a2 70        	ld	ra, 0x28(sp)
   19462: 1c c0        	sw	a5, 0x0(s0)
   19464: 02 74        	ld	s0, 0x20(sp)
   19466: e2 64        	ld	s1, 0x18(sp)
   19468: 45 61        	addi	sp, sp, 0x30
   1946a: 82 80        	ret

000000000001946c <wcrtomb>:
   1946c: 79 71        	addi	sp, sp, -0x30
   1946e: 22 f0        	sd	s0, 0x20(sp)
   19470: 26 ec        	sd	s1, 0x18(sp)
   19472: 06 f4        	sd	ra, 0x28(sp)
   19474: 83 b4 01 1d  	ld	s1, 0x1d0(gp)
   19478: 83 b7 01 e0  	ld	a5, -0x200(gp)
   1947c: 32 84        	mv	s0, a2
   1947e: 11 cd        	beqz	a0, 0x1949a <wcrtomb+0x2e>
   19480: 2e 86        	mv	a2, a1
   19482: a2 86        	mv	a3, s0
   19484: aa 85        	mv	a1, a0
   19486: 26 85        	mv	a0, s1
   19488: 82 97        	jalr	a5
   1948a: fd 57        	li	a5, -0x1
   1948c: 63 0f f5 00  	beq	a0, a5, 0x194aa <wcrtomb+0x3e>
   19490: a2 70        	ld	ra, 0x28(sp)
   19492: 02 74        	ld	s0, 0x20(sp)
   19494: e2 64        	ld	s1, 0x18(sp)
   19496: 45 61        	addi	sp, sp, 0x30
   19498: 82 80        	ret
   1949a: b2 86        	mv	a3, a2
   1949c: 8a 85        	mv	a1, sp
   1949e: 01 46        	li	a2, 0x0
   194a0: 26 85        	mv	a0, s1
   194a2: 82 97        	jalr	a5
   194a4: fd 57        	li	a5, -0x1
   194a6: e3 15 f5 fe  	bne	a0, a5, 0x19490 <wcrtomb+0x24>
   194aa: 23 20 04 00  	sw	zero, 0x0(s0)
   194ae: a2 70        	ld	ra, 0x28(sp)
   194b0: 02 74        	ld	s0, 0x20(sp)
   194b2: 93 07 a0 08  	li	a5, 0x8a
   194b6: 9c c0        	sw	a5, 0x0(s1)
   194b8: e2 64        	ld	s1, 0x18(sp)
   194ba: 45 61        	addi	sp, sp, 0x30
   194bc: 82 80        	ret

00000000000194be <__smakebuf_r>:
   194be: 83 97 05 01  	lh	a5, 0x10(a1)
   194c2: 35 71        	addi	sp, sp, -0xa0
   194c4: 22 e9        	sd	s0, 0x90(sp)
   194c6: 06 ed        	sd	ra, 0x98(sp)
   194c8: 13 f7 27 00  	andi	a4, a5, 0x2
   194cc: 2e 84        	mv	s0, a1
   194ce: 19 cb        	beqz	a4, 0x194e4 <__smakebuf_r+0x26>
   194d0: 93 87 75 07  	addi	a5, a1, 0x77
   194d4: 9c e1        	sd	a5, 0x0(a1)
   194d6: 9c ed        	sd	a5, 0x18(a1)
   194d8: 85 47        	li	a5, 0x1
   194da: 9c d1        	sw	a5, 0x20(a1)
   194dc: ea 60        	ld	ra, 0x98(sp)
   194de: 4a 64        	ld	s0, 0x90(sp)
   194e0: 0d 61        	addi	sp, sp, 0xa0
   194e2: 82 80        	ret
   194e4: 83 95 25 01  	lh	a1, 0x12(a1)
   194e8: 26 e5        	sd	s1, 0x88(sp)
   194ea: 4a e1        	sd	s2, 0x80(sp)
   194ec: ce fc        	sd	s3, 0x78(sp)
   194ee: d2 f8        	sd	s4, 0x70(sp)
   194f0: aa 84        	mv	s1, a0
   194f2: 63 c4 05 06  	bltz	a1, 0x1955a <__smakebuf_r+0x9c>
   194f6: 30 00        	addi	a2, sp, 0x8
   194f8: ef 00 40 16  	jal	0x1965c <_fstat_r>
   194fc: 63 4d 05 04  	bltz	a0, 0x19556 <__smakebuf_r+0x98>
   19500: 32 49        	lw	s2, 0xc(sp)
   19502: bd 67        	lui	a5, 0xf
   19504: 85 69        	lui	s3, 0x1
   19506: 33 79 f9 00  	and	s2, s2, a5
   1950a: 89 67        	lui	a5, 0x2
   1950c: 33 09 f9 40  	sub	s2, s2, a5
   19510: 13 39 19 00  	seqz	s2, s2
   19514: 13 0a 00 40  	li	s4, 0x400
   19518: 93 89 09 80  	addi	s3, s3, -0x800
   1951c: d2 85        	mv	a1, s4
   1951e: 26 85        	mv	a0, s1
   19520: ef 90 1f 81  	jal	0x12d30 <_malloc_r>
   19524: 83 17 04 01  	lh	a5, 0x10(s0)
   19528: 39 c5        	beqz	a0, 0x19576 <__smakebuf_r+0xb8>
   1952a: 93 e7 07 08  	ori	a5, a5, 0x80
   1952e: 08 e0        	sd	a0, 0x0(s0)
   19530: 08 ec        	sd	a0, 0x18(s0)
   19532: 23 18 f4 00  	sh	a5, 0x10(s0)
   19536: 23 20 44 03  	sw	s4, 0x20(s0)
   1953a: 63 15 09 06  	bnez	s2, 0x195a4 <__smakebuf_r+0xe6>
   1953e: b3 e7 37 01  	or	a5, a5, s3
   19542: ea 60        	ld	ra, 0x98(sp)
   19544: 23 18 f4 00  	sh	a5, 0x10(s0)
   19548: 4a 64        	ld	s0, 0x90(sp)
   1954a: aa 64        	ld	s1, 0x88(sp)
   1954c: 0a 69        	ld	s2, 0x80(sp)
   1954e: e6 79        	ld	s3, 0x78(sp)
   19550: 46 7a        	ld	s4, 0x70(sp)
   19552: 0d 61        	addi	sp, sp, 0xa0
   19554: 82 80        	ret
   19556: 83 17 04 01  	lh	a5, 0x10(s0)
   1955a: 93 f7 07 08  	andi	a5, a5, 0x80
   1955e: 01 49        	li	s2, 0x0
   19560: 95 cf        	beqz	a5, 0x1959c <__smakebuf_r+0xde>
   19562: 13 0a 00 04  	li	s4, 0x40
   19566: d2 85        	mv	a1, s4
   19568: 26 85        	mv	a0, s1
   1956a: ef 90 6f fc  	jal	0x12d30 <_malloc_r>
   1956e: 83 17 04 01  	lh	a5, 0x10(s0)
   19572: 81 49        	li	s3, 0x0
   19574: 5d f9        	bnez	a0, 0x1952a <__smakebuf_r+0x6c>
   19576: 13 f7 07 20  	andi	a4, a5, 0x200
   1957a: 15 ef        	bnez	a4, 0x195b6 <__smakebuf_r+0xf8>
   1957c: f1 9b        	andi	a5, a5, -0x4
   1957e: 93 e7 27 00  	ori	a5, a5, 0x2
   19582: 13 07 74 07  	addi	a4, s0, 0x77
   19586: 23 18 f4 00  	sh	a5, 0x10(s0)
   1958a: 85 47        	li	a5, 0x1
   1958c: aa 64        	ld	s1, 0x88(sp)
   1958e: 0a 69        	ld	s2, 0x80(sp)
   19590: e6 79        	ld	s3, 0x78(sp)
   19592: 46 7a        	ld	s4, 0x70(sp)
   19594: 18 e0        	sd	a4, 0x0(s0)
   19596: 18 ec        	sd	a4, 0x18(s0)
   19598: 1c d0        	sw	a5, 0x20(s0)
   1959a: 89 b7        	j	0x194dc <__smakebuf_r+0x1e>
   1959c: 13 0a 00 40  	li	s4, 0x400
   195a0: 81 49        	li	s3, 0x0
   195a2: ad bf        	j	0x1951c <__smakebuf_r+0x5e>
   195a4: 83 15 24 01  	lh	a1, 0x12(s0)
   195a8: 26 85        	mv	a0, s1
   195aa: ef 00 c0 0e  	jal	0x19696 <_isatty_r>
   195ae: 09 e9        	bnez	a0, 0x195c0 <__smakebuf_r+0x102>
   195b0: 83 17 04 01  	lh	a5, 0x10(s0)
   195b4: 69 b7        	j	0x1953e <__smakebuf_r+0x80>
   195b6: aa 64        	ld	s1, 0x88(sp)
   195b8: 0a 69        	ld	s2, 0x80(sp)
   195ba: e6 79        	ld	s3, 0x78(sp)
   195bc: 46 7a        	ld	s4, 0x70(sp)
   195be: 39 bf        	j	0x194dc <__smakebuf_r+0x1e>
   195c0: 83 57 04 01  	lhu	a5, 0x10(s0)
   195c4: f1 9b        	andi	a5, a5, -0x4
   195c6: 93 e7 17 00  	ori	a5, a5, 0x1
   195ca: 9b 97 07 01  	slliw	a5, a5, 0x10
   195ce: 9b d7 07 41  	sraiw	a5, a5, 0x10
   195d2: b5 b7        	j	0x1953e <__smakebuf_r+0x80>

00000000000195d4 <__swhatbuf_r>:
   195d4: 75 71        	addi	sp, sp, -0x90
   195d6: 22 e1        	sd	s0, 0x80(sp)
   195d8: 2e 84        	mv	s0, a1
   195da: 83 95 25 01  	lh	a1, 0x12(a1)
   195de: a6 fc        	sd	s1, 0x78(sp)
   195e0: ca f8        	sd	s2, 0x70(sp)
   195e2: 06 e5        	sd	ra, 0x88(sp)
   195e4: b2 84        	mv	s1, a2
   195e6: 36 89        	mv	s2, a3
   195e8: 63 cc 05 02  	bltz	a1, 0x19620 <__swhatbuf_r+0x4c>
   195ec: 30 00        	addi	a2, sp, 0x8
   195ee: ef 00 e0 06  	jal	0x1965c <_fstat_r>
   195f2: 63 47 05 02  	bltz	a0, 0x19620 <__swhatbuf_r+0x4c>
   195f6: b2 47        	lw	a5, 0xc(sp)
   195f8: 3d 67        	lui	a4, 0xf
   195fa: aa 60        	ld	ra, 0x88(sp)
   195fc: f9 8f        	and	a5, a5, a4
   195fe: 09 67        	lui	a4, 0x2
   19600: 99 8f        	sub	a5, a5, a4
   19602: 0a 64        	ld	s0, 0x80(sp)
   19604: 93 b7 17 00  	seqz	a5, a5
   19608: 23 20 f9 00  	sw	a5, 0x0(s2)
   1960c: 13 07 00 40  	li	a4, 0x400
   19610: 98 e0        	sd	a4, 0x0(s1)
   19612: 05 65        	lui	a0, 0x1
   19614: e6 74        	ld	s1, 0x78(sp)
   19616: 46 79        	ld	s2, 0x70(sp)
   19618: 13 05 05 80  	addi	a0, a0, -0x800
   1961c: 49 61        	addi	sp, sp, 0x90
   1961e: 82 80        	ret
   19620: 83 57 04 01  	lhu	a5, 0x10(s0)
   19624: 93 f7 07 08  	andi	a5, a5, 0x80
   19628: 91 cf        	beqz	a5, 0x19644 <__swhatbuf_r+0x70>
   1962a: aa 60        	ld	ra, 0x88(sp)
   1962c: 0a 64        	ld	s0, 0x80(sp)
   1962e: 81 47        	li	a5, 0x0
   19630: 23 20 f9 00  	sw	a5, 0x0(s2)
   19634: 13 07 00 04  	li	a4, 0x40
   19638: 98 e0        	sd	a4, 0x0(s1)
   1963a: 46 79        	ld	s2, 0x70(sp)
   1963c: e6 74        	ld	s1, 0x78(sp)
   1963e: 01 45        	li	a0, 0x0
   19640: 49 61        	addi	sp, sp, 0x90
   19642: 82 80        	ret
   19644: aa 60        	ld	ra, 0x88(sp)
   19646: 0a 64        	ld	s0, 0x80(sp)
   19648: 23 20 f9 00  	sw	a5, 0x0(s2)
   1964c: 13 07 00 40  	li	a4, 0x400
   19650: 98 e0        	sd	a4, 0x0(s1)
   19652: 46 79        	ld	s2, 0x70(sp)
   19654: e6 74        	ld	s1, 0x78(sp)
   19656: 01 45        	li	a0, 0x0
   19658: 49 61        	addi	sp, sp, 0x90
   1965a: 82 80        	ret

000000000001965c <_fstat_r>:
   1965c: 01 11        	addi	sp, sp, -0x20
   1965e: 2e 87        	mv	a4, a1
   19660: 22 e8        	sd	s0, 0x10(sp)
   19662: 26 e4        	sd	s1, 0x8(sp)
   19664: 2a 84        	mv	s0, a0
   19666: b2 85        	mv	a1, a2
   19668: 3a 85        	mv	a0, a4
   1966a: 06 ec        	sd	ra, 0x18(sp)
   1966c: 23 ac 01 20  	sw	zero, 0x218(gp)
   19670: ef 00 a0 56  	jal	0x19bda <_fstat>
   19674: fd 57        	li	a5, -0x1
   19676: 63 07 f5 00  	beq	a0, a5, 0x19684 <_fstat_r+0x28>
   1967a: e2 60        	ld	ra, 0x18(sp)
   1967c: 42 64        	ld	s0, 0x10(sp)
   1967e: a2 64        	ld	s1, 0x8(sp)
   19680: 05 61        	addi	sp, sp, 0x20
   19682: 82 80        	ret
   19684: 83 a7 81 21  	lw	a5, 0x218(gp)
   19688: ed db        	beqz	a5, 0x1967a <_fstat_r+0x1e>
   1968a: e2 60        	ld	ra, 0x18(sp)
   1968c: 1c c0        	sw	a5, 0x0(s0)
   1968e: 42 64        	ld	s0, 0x10(sp)
   19690: a2 64        	ld	s1, 0x8(sp)
   19692: 05 61        	addi	sp, sp, 0x20
   19694: 82 80        	ret

0000000000019696 <_isatty_r>:
   19696: 01 11        	addi	sp, sp, -0x20
   19698: 22 e8        	sd	s0, 0x10(sp)
   1969a: 26 e4        	sd	s1, 0x8(sp)
   1969c: 2a 84        	mv	s0, a0
   1969e: 2e 85        	mv	a0, a1
   196a0: 06 ec        	sd	ra, 0x18(sp)
   196a2: 23 ac 01 20  	sw	zero, 0x218(gp)
   196a6: ef 00 40 5a  	jal	0x19c4a <_isatty>
   196aa: fd 57        	li	a5, -0x1
   196ac: 63 07 f5 00  	beq	a0, a5, 0x196ba <_isatty_r+0x24>
   196b0: e2 60        	ld	ra, 0x18(sp)
   196b2: 42 64        	ld	s0, 0x10(sp)
   196b4: a2 64        	ld	s1, 0x8(sp)
   196b6: 05 61        	addi	sp, sp, 0x20
   196b8: 82 80        	ret
   196ba: 83 a7 81 21  	lw	a5, 0x218(gp)
   196be: ed db        	beqz	a5, 0x196b0 <_isatty_r+0x1a>
   196c0: e2 60        	ld	ra, 0x18(sp)
   196c2: 1c c0        	sw	a5, 0x0(s0)
   196c4: 42 64        	ld	s0, 0x10(sp)
   196c6: a2 64        	ld	s1, 0x8(sp)
   196c8: 05 61        	addi	sp, sp, 0x20
   196ca: 82 80        	ret

00000000000196cc <__assert_func>:
   196cc: 03 b7 01 1d  	ld	a4, 0x1d0(gp)
   196d0: 41 11        	addi	sp, sp, -0x10
   196d2: b6 87        	mv	a5, a3
   196d4: 32 88        	mv	a6, a2
   196d6: 06 e4        	sd	ra, 0x8(sp)
   196d8: 83 38 87 01  	ld	a7, 0x18(a4)
   196dc: aa 86        	mv	a3, a0
   196de: 2e 87        	mv	a4, a1
   196e0: 3e 86        	mv	a2, a5
   196e2: 63 0d 08 00  	beqz	a6, 0x196fc <__assert_func+0x30>
   196e6: ed 67        	lui	a5, 0x1b
   196e8: 93 87 87 23  	addi	a5, a5, 0x238
   196ec: ed 65        	lui	a1, 0x1b
   196ee: 93 85 85 24  	addi	a1, a1, 0x248
   196f2: 46 85        	mv	a0, a7
   196f4: ef 00 c0 0e  	jal	0x197e0 <fiprintf>
   196f8: ef 00 40 11  	jal	0x1980c <abort>
   196fc: 6d 68        	lui	a6, 0x1b
   196fe: 93 07 88 17  	addi	a5, a6, 0x178
   19702: 13 08 88 17  	addi	a6, a6, 0x178
   19706: dd b7        	j	0x196ec <__assert_func+0x20>

0000000000019708 <__assert>:
   19708: 41 11        	addi	sp, sp, -0x10
   1970a: b2 86        	mv	a3, a2
   1970c: 01 46        	li	a2, 0x0
   1970e: 06 e4        	sd	ra, 0x8(sp)
   19710: ef f0 df fb  	jal	0x196cc <__assert_func>

0000000000019714 <_calloc_r>:
   19714: b3 b7 c5 02  	mulhu	a5, a1, a2
   19718: 41 11        	addi	sp, sp, -0x10
   1971a: 06 e4        	sd	ra, 0x8(sp)
   1971c: 22 e0        	sd	s0, 0x0(sp)
   1971e: b3 85 c5 02  	mul	a1, a1, a2
   19722: b5 ef        	bnez	a5, 0x1979e <_calloc_r+0x8a>
   19724: ef 90 cf e0  	jal	0x12d30 <_malloc_r>
   19728: 2a 84        	mv	s0, a0
   1972a: 35 cd        	beqz	a0, 0x197a6 <_calloc_r+0x92>
   1972c: 03 36 85 ff  	ld	a2, -0x8(a0)
   19730: 13 07 80 04  	li	a4, 0x48
   19734: 71 9a        	andi	a2, a2, -0x4
   19736: 61 16        	addi	a2, a2, -0x8
   19738: 63 62 c7 04  	bltu	a4, a2, 0x1977c <_calloc_r+0x68>
   1973c: 93 06 70 02  	li	a3, 0x27
   19740: aa 87        	mv	a5, a0
   19742: 63 f2 c6 02  	bgeu	a3, a2, 0x19766 <_calloc_r+0x52>
   19746: 23 30 05 00  	sd	zero, 0x0(a0)
   1974a: 23 34 05 00  	sd	zero, 0x8(a0)
   1974e: 93 07 70 03  	li	a5, 0x37
   19752: 63 fd c7 02  	bgeu	a5, a2, 0x1978c <_calloc_r+0x78>
   19756: 23 38 05 00  	sd	zero, 0x10(a0)
   1975a: 23 3c 05 00  	sd	zero, 0x18(a0)
   1975e: 93 07 05 02  	addi	a5, a0, 0x20
   19762: 63 08 e6 04  	beq	a2, a4, 0x197b2 <_calloc_r+0x9e>
   19766: 23 b0 07 00  	sd	zero, 0x0(a5)
   1976a: 23 b4 07 00  	sd	zero, 0x8(a5)
   1976e: 23 b8 07 00  	sd	zero, 0x10(a5)
   19772: a2 60        	ld	ra, 0x8(sp)
   19774: 22 85        	mv	a0, s0
   19776: 02 64        	ld	s0, 0x0(sp)
   19778: 41 01        	addi	sp, sp, 0x10
   1977a: 82 80        	ret
   1977c: 81 45        	li	a1, 0x0
   1977e: ef 90 6f 87  	jal	0x127f4 <memset>
   19782: a2 60        	ld	ra, 0x8(sp)
   19784: 22 85        	mv	a0, s0
   19786: 02 64        	ld	s0, 0x0(sp)
   19788: 41 01        	addi	sp, sp, 0x10
   1978a: 82 80        	ret
   1978c: 93 07 05 01  	addi	a5, a0, 0x10
   19790: 23 b0 07 00  	sd	zero, 0x0(a5)
   19794: 23 b4 07 00  	sd	zero, 0x8(a5)
   19798: 23 b8 07 00  	sd	zero, 0x10(a5)
   1979c: d9 bf        	j	0x19772 <_calloc_r+0x5e>
   1979e: ef 80 7f fe  	jal	0x12784 <__errno>
   197a2: b1 47        	li	a5, 0xc
   197a4: 1c c1        	sw	a5, 0x0(a0)
   197a6: 01 44        	li	s0, 0x0
   197a8: a2 60        	ld	ra, 0x8(sp)
   197aa: 22 85        	mv	a0, s0
   197ac: 02 64        	ld	s0, 0x0(sp)
   197ae: 41 01        	addi	sp, sp, 0x10
   197b0: 82 80        	ret
   197b2: 23 30 05 02  	sd	zero, 0x20(a0)
   197b6: 93 07 05 03  	addi	a5, a0, 0x30
   197ba: 23 34 05 02  	sd	zero, 0x28(a0)
   197be: 65 b7        	j	0x19766 <_calloc_r+0x52>

00000000000197c0 <_fiprintf_r>:
   197c0: 5d 71        	addi	sp, sp, -0x50
   197c2: 13 03 81 02  	addi	t1, sp, 0x28
   197c6: 36 f4        	sd	a3, 0x28(sp)
   197c8: 9a 86        	mv	a3, t1
   197ca: 06 ec        	sd	ra, 0x18(sp)
   197cc: 3a f8        	sd	a4, 0x30(sp)
   197ce: 3e fc        	sd	a5, 0x38(sp)
   197d0: c2 e0        	sd	a6, 0x40(sp)
   197d2: c6 e4        	sd	a7, 0x48(sp)
   197d4: 1a e4        	sd	t1, 0x8(sp)
   197d6: ef b0 5f 81  	jal	0x14fea <_vfiprintf_r>
   197da: e2 60        	ld	ra, 0x18(sp)
   197dc: 61 61        	addi	sp, sp, 0x50
   197de: 82 80        	ret

00000000000197e0 <fiprintf>:
   197e0: 2a 8e        	mv	t3, a0
   197e2: 5d 71        	addi	sp, sp, -0x50
   197e4: 03 b5 01 1d  	ld	a0, 0x1d0(gp)
   197e8: 13 03 01 02  	addi	t1, sp, 0x20
   197ec: 32 f0        	sd	a2, 0x20(sp)
   197ee: 36 f4        	sd	a3, 0x28(sp)
   197f0: 2e 86        	mv	a2, a1
   197f2: 9a 86        	mv	a3, t1
   197f4: f2 85        	mv	a1, t3
   197f6: 06 ec        	sd	ra, 0x18(sp)
   197f8: 3a f8        	sd	a4, 0x30(sp)
   197fa: 3e fc        	sd	a5, 0x38(sp)
   197fc: c2 e0        	sd	a6, 0x40(sp)
   197fe: c6 e4        	sd	a7, 0x48(sp)
   19800: 1a e4        	sd	t1, 0x8(sp)
   19802: ef b0 8f fe  	jal	0x14fea <_vfiprintf_r>
   19806: e2 60        	ld	ra, 0x18(sp)
   19808: 61 61        	addi	sp, sp, 0x50
   1980a: 82 80        	ret

000000000001980c <abort>:
   1980c: 41 11        	addi	sp, sp, -0x10
   1980e: 19 45        	li	a0, 0x6
   19810: 06 e4        	sd	ra, 0x8(sp)
   19812: ef 00 c0 19  	jal	0x199ae <raise>
   19816: 05 45        	li	a0, 0x1
   19818: ef 00 00 3a  	jal	0x19bb8 <_exit>

000000000001981c <_init_signal_r>:
   1981c: 83 37 05 15  	ld	a5, 0x150(a0)
   19820: 99 c3        	beqz	a5, 0x19826 <_init_signal_r+0xa>
   19822: 01 45        	li	a0, 0x0
   19824: 82 80        	ret
   19826: 41 11        	addi	sp, sp, -0x10
   19828: 93 05 00 10  	li	a1, 0x100
   1982c: 22 e0        	sd	s0, 0x0(sp)
   1982e: 06 e4        	sd	ra, 0x8(sp)
   19830: 2a 84        	mv	s0, a0
   19832: ef 90 ef cf  	jal	0x12d30 <_malloc_r>
   19836: 23 38 a4 14  	sd	a0, 0x150(s0)
   1983a: 09 cd        	beqz	a0, 0x19854 <_init_signal_r+0x38>
   1983c: 93 07 05 10  	addi	a5, a0, 0x100
   19840: 23 30 05 00  	sd	zero, 0x0(a0)
   19844: 21 05        	addi	a0, a0, 0x8
   19846: e3 1d f5 fe  	bne	a0, a5, 0x19840 <_init_signal_r+0x24>
   1984a: 01 45        	li	a0, 0x0
   1984c: a2 60        	ld	ra, 0x8(sp)
   1984e: 02 64        	ld	s0, 0x0(sp)
   19850: 41 01        	addi	sp, sp, 0x10
   19852: 82 80        	ret
   19854: 7d 55        	li	a0, -0x1
   19856: dd bf        	j	0x1984c <_init_signal_r+0x30>

0000000000019858 <_signal_r>:
   19858: 79 71        	addi	sp, sp, -0x30
   1985a: 26 ec        	sd	s1, 0x18(sp)
   1985c: 06 f4        	sd	ra, 0x28(sp)
   1985e: fd 47        	li	a5, 0x1f
   19860: aa 84        	mv	s1, a0
   19862: 63 e0 b7 02  	bltu	a5, a1, 0x19882 <_signal_r+0x2a>
   19866: 83 37 05 15  	ld	a5, 0x150(a0)
   1986a: 22 f0        	sd	s0, 0x20(sp)
   1986c: 2e 84        	mv	s0, a1
   1986e: 91 cf        	beqz	a5, 0x1988a <_signal_r+0x32>
   19870: 0e 04        	slli	s0, s0, 0x3
   19872: a2 97        	add	a5, a5, s0
   19874: 02 74        	ld	s0, 0x20(sp)
   19876: 88 63        	ld	a0, 0x0(a5)
   19878: 90 e3        	sd	a2, 0x0(a5)
   1987a: a2 70        	ld	ra, 0x28(sp)
   1987c: e2 64        	ld	s1, 0x18(sp)
   1987e: 45 61        	addi	sp, sp, 0x30
   19880: 82 80        	ret
   19882: d9 47        	li	a5, 0x16
   19884: 1c c1        	sw	a5, 0x0(a0)
   19886: 7d 55        	li	a0, -0x1
   19888: cd bf        	j	0x1987a <_signal_r+0x22>
   1988a: 93 05 00 10  	li	a1, 0x100
   1988e: 32 e4        	sd	a2, 0x8(sp)
   19890: ef 90 0f ca  	jal	0x12d30 <_malloc_r>
   19894: 23 b8 a4 14  	sd	a0, 0x150(s1)
   19898: 22 66        	ld	a2, 0x8(sp)
   1989a: aa 87        	mv	a5, a0
   1989c: 2a 87        	mv	a4, a0
   1989e: 93 06 05 10  	addi	a3, a0, 0x100
   198a2: 19 c5        	beqz	a0, 0x198b0 <_signal_r+0x58>
   198a4: 23 30 07 00  	sd	zero, 0x0(a4)
   198a8: 21 07        	addi	a4, a4, 0x8
   198aa: e3 1d d7 fe  	bne	a4, a3, 0x198a4 <_signal_r+0x4c>
   198ae: c9 b7        	j	0x19870 <_signal_r+0x18>
   198b0: 02 74        	ld	s0, 0x20(sp)
   198b2: 7d 55        	li	a0, -0x1
   198b4: d9 b7        	j	0x1987a <_signal_r+0x22>

00000000000198b6 <_raise_r>:
   198b6: 01 11        	addi	sp, sp, -0x20
   198b8: 26 e4        	sd	s1, 0x8(sp)
   198ba: 06 ec        	sd	ra, 0x18(sp)
   198bc: fd 47        	li	a5, 0x1f
   198be: aa 84        	mv	s1, a0
   198c0: 63 ef b7 04  	bltu	a5, a1, 0x1991e <_raise_r+0x68>
   198c4: 83 37 05 15  	ld	a5, 0x150(a0)
   198c8: 22 e8        	sd	s0, 0x10(sp)
   198ca: 2e 84        	mv	s0, a1
   198cc: 95 c7        	beqz	a5, 0x198f8 <_raise_r+0x42>
   198ce: 13 97 35 00  	slli	a4, a1, 0x3
   198d2: ba 97        	add	a5, a5, a4
   198d4: 98 63        	ld	a4, 0x0(a5)
   198d6: 0d c3        	beqz	a4, 0x198f8 <_raise_r+0x42>
   198d8: 85 46        	li	a3, 0x1
   198da: 63 09 d7 00  	beq	a4, a3, 0x198ec <_raise_r+0x36>
   198de: fd 56        	li	a3, -0x1
   198e0: 63 07 d7 02  	beq	a4, a3, 0x1990e <_raise_r+0x58>
   198e4: 23 b0 07 00  	sd	zero, 0x0(a5)
   198e8: 2e 85        	mv	a0, a1
   198ea: 02 97        	jalr	a4
   198ec: 42 64        	ld	s0, 0x10(sp)
   198ee: 01 45        	li	a0, 0x0
   198f0: e2 60        	ld	ra, 0x18(sp)
   198f2: a2 64        	ld	s1, 0x8(sp)
   198f4: 05 61        	addi	sp, sp, 0x20
   198f6: 82 80        	ret
   198f8: 26 85        	mv	a0, s1
   198fa: ef 00 00 29  	jal	0x19b8a <_getpid_r>
   198fe: 22 86        	mv	a2, s0
   19900: 42 64        	ld	s0, 0x10(sp)
   19902: e2 60        	ld	ra, 0x18(sp)
   19904: aa 85        	mv	a1, a0
   19906: 26 85        	mv	a0, s1
   19908: a2 64        	ld	s1, 0x8(sp)
   1990a: 05 61        	addi	sp, sp, 0x20
   1990c: 91 a4        	j	0x19b50 <_kill_r>
   1990e: 42 64        	ld	s0, 0x10(sp)
   19910: e2 60        	ld	ra, 0x18(sp)
   19912: d9 47        	li	a5, 0x16
   19914: 1c c1        	sw	a5, 0x0(a0)
   19916: a2 64        	ld	s1, 0x8(sp)
   19918: 05 45        	li	a0, 0x1
   1991a: 05 61        	addi	sp, sp, 0x20
   1991c: 82 80        	ret
   1991e: d9 47        	li	a5, 0x16
   19920: 1c c1        	sw	a5, 0x0(a0)
   19922: 7d 55        	li	a0, -0x1
   19924: f1 b7        	j	0x198f0 <_raise_r+0x3a>

0000000000019926 <__sigtramp_r>:
   19926: fd 47        	li	a5, 0x1f
   19928: 63 e1 b7 08  	bltu	a5, a1, 0x199aa <__sigtramp_r+0x84>
   1992c: 83 37 05 15  	ld	a5, 0x150(a0)
   19930: 01 11        	addi	sp, sp, -0x20
   19932: 22 e8        	sd	s0, 0x10(sp)
   19934: 26 e4        	sd	s1, 0x8(sp)
   19936: 06 ec        	sd	ra, 0x18(sp)
   19938: 2e 84        	mv	s0, a1
   1993a: aa 84        	mv	s1, a0
   1993c: a1 c7        	beqz	a5, 0x19984 <__sigtramp_r+0x5e>
   1993e: 13 17 34 00  	slli	a4, s0, 0x3
   19942: ba 97        	add	a5, a5, a4
   19944: 98 63        	ld	a4, 0x0(a5)
   19946: 0d c3        	beqz	a4, 0x19968 <__sigtramp_r+0x42>
   19948: fd 56        	li	a3, -0x1
   1994a: 63 0b d7 02  	beq	a4, a3, 0x19980 <__sigtramp_r+0x5a>
   1994e: 85 46        	li	a3, 0x1
   19950: 63 02 d7 02  	beq	a4, a3, 0x19974 <__sigtramp_r+0x4e>
   19954: 22 85        	mv	a0, s0
   19956: 23 b0 07 00  	sd	zero, 0x0(a5)
   1995a: 02 97        	jalr	a4
   1995c: 01 45        	li	a0, 0x0
   1995e: e2 60        	ld	ra, 0x18(sp)
   19960: 42 64        	ld	s0, 0x10(sp)
   19962: a2 64        	ld	s1, 0x8(sp)
   19964: 05 61        	addi	sp, sp, 0x20
   19966: 82 80        	ret
   19968: e2 60        	ld	ra, 0x18(sp)
   1996a: 42 64        	ld	s0, 0x10(sp)
   1996c: a2 64        	ld	s1, 0x8(sp)
   1996e: 05 45        	li	a0, 0x1
   19970: 05 61        	addi	sp, sp, 0x20
   19972: 82 80        	ret
   19974: e2 60        	ld	ra, 0x18(sp)
   19976: 42 64        	ld	s0, 0x10(sp)
   19978: a2 64        	ld	s1, 0x8(sp)
   1997a: 0d 45        	li	a0, 0x3
   1997c: 05 61        	addi	sp, sp, 0x20
   1997e: 82 80        	ret
   19980: 09 45        	li	a0, 0x2
   19982: f1 bf        	j	0x1995e <__sigtramp_r+0x38>
   19984: 93 05 00 10  	li	a1, 0x100
   19988: ef 90 8f ba  	jal	0x12d30 <_malloc_r>
   1998c: 23 b8 a4 14  	sd	a0, 0x150(s1)
   19990: aa 87        	mv	a5, a0
   19992: 11 c9        	beqz	a0, 0x199a6 <__sigtramp_r+0x80>
   19994: 2a 87        	mv	a4, a0
   19996: 93 06 05 10  	addi	a3, a0, 0x100
   1999a: 23 30 07 00  	sd	zero, 0x0(a4)
   1999e: 21 07        	addi	a4, a4, 0x8
   199a0: e3 1d d7 fe  	bne	a4, a3, 0x1999a <__sigtramp_r+0x74>
   199a4: 69 bf        	j	0x1993e <__sigtramp_r+0x18>
   199a6: 7d 55        	li	a0, -0x1
   199a8: 5d bf        	j	0x1995e <__sigtramp_r+0x38>
   199aa: 7d 55        	li	a0, -0x1
   199ac: 82 80        	ret

00000000000199ae <raise>:
   199ae: 01 11        	addi	sp, sp, -0x20
   199b0: 26 e4        	sd	s1, 0x8(sp)
   199b2: 06 ec        	sd	ra, 0x18(sp)
   199b4: fd 47        	li	a5, 0x1f
   199b6: 83 b4 01 1d  	ld	s1, 0x1d0(gp)
   199ba: 63 ee a7 04  	bltu	a5, a0, 0x19a16 <raise+0x68>
   199be: 83 b7 04 15  	ld	a5, 0x150(s1)
   199c2: 22 e8        	sd	s0, 0x10(sp)
   199c4: 2a 84        	mv	s0, a0
   199c6: 8d c7        	beqz	a5, 0x199f0 <raise+0x42>
   199c8: 13 17 35 00  	slli	a4, a0, 0x3
   199cc: ba 97        	add	a5, a5, a4
   199ce: 98 63        	ld	a4, 0x0(a5)
   199d0: 05 c3        	beqz	a4, 0x199f0 <raise+0x42>
   199d2: 85 46        	li	a3, 0x1
   199d4: 63 08 d7 00  	beq	a4, a3, 0x199e4 <raise+0x36>
   199d8: fd 56        	li	a3, -0x1
   199da: 63 06 d7 02  	beq	a4, a3, 0x19a06 <raise+0x58>
   199de: 23 b0 07 00  	sd	zero, 0x0(a5)
   199e2: 02 97        	jalr	a4
   199e4: 42 64        	ld	s0, 0x10(sp)
   199e6: 01 45        	li	a0, 0x0
   199e8: e2 60        	ld	ra, 0x18(sp)
   199ea: a2 64        	ld	s1, 0x8(sp)
   199ec: 05 61        	addi	sp, sp, 0x20
   199ee: 82 80        	ret
   199f0: 26 85        	mv	a0, s1
   199f2: ef 00 80 19  	jal	0x19b8a <_getpid_r>
   199f6: 22 86        	mv	a2, s0
   199f8: 42 64        	ld	s0, 0x10(sp)
   199fa: e2 60        	ld	ra, 0x18(sp)
   199fc: aa 85        	mv	a1, a0
   199fe: 26 85        	mv	a0, s1
   19a00: a2 64        	ld	s1, 0x8(sp)
   19a02: 05 61        	addi	sp, sp, 0x20
   19a04: b1 a2        	j	0x19b50 <_kill_r>
   19a06: 42 64        	ld	s0, 0x10(sp)
   19a08: e2 60        	ld	ra, 0x18(sp)
   19a0a: d9 47        	li	a5, 0x16
   19a0c: 9c c0        	sw	a5, 0x0(s1)
   19a0e: 05 45        	li	a0, 0x1
   19a10: a2 64        	ld	s1, 0x8(sp)
   19a12: 05 61        	addi	sp, sp, 0x20
   19a14: 82 80        	ret
   19a16: d9 47        	li	a5, 0x16
   19a18: 9c c0        	sw	a5, 0x0(s1)
   19a1a: 7d 55        	li	a0, -0x1
   19a1c: f1 b7        	j	0x199e8 <raise+0x3a>

0000000000019a1e <signal>:
   19a1e: 01 11        	addi	sp, sp, -0x20
   19a20: 4a e0        	sd	s2, 0x0(sp)
   19a22: 06 ec        	sd	ra, 0x18(sp)
   19a24: fd 47        	li	a5, 0x1f
   19a26: 03 b9 01 1d  	ld	s2, 0x1d0(gp)
   19a2a: 63 e4 a7 02  	bltu	a5, a0, 0x19a52 <signal+0x34>
   19a2e: 22 e8        	sd	s0, 0x10(sp)
   19a30: 2a 84        	mv	s0, a0
   19a32: 03 35 09 15  	ld	a0, 0x150(s2)
   19a36: 26 e4        	sd	s1, 0x8(sp)
   19a38: ae 84        	mv	s1, a1
   19a3a: 0d c1        	beqz	a0, 0x19a5c <signal+0x3e>
   19a3c: 0e 04        	slli	s0, s0, 0x3
   19a3e: b3 07 85 00  	add	a5, a0, s0
   19a42: 88 63        	ld	a0, 0x0(a5)
   19a44: 42 64        	ld	s0, 0x10(sp)
   19a46: 84 e3        	sd	s1, 0x0(a5)
   19a48: a2 64        	ld	s1, 0x8(sp)
   19a4a: e2 60        	ld	ra, 0x18(sp)
   19a4c: 02 69        	ld	s2, 0x0(sp)
   19a4e: 05 61        	addi	sp, sp, 0x20
   19a50: 82 80        	ret
   19a52: d9 47        	li	a5, 0x16
   19a54: 23 20 f9 00  	sw	a5, 0x0(s2)
   19a58: 7d 55        	li	a0, -0x1
   19a5a: c5 bf        	j	0x19a4a <signal+0x2c>
   19a5c: 93 05 00 10  	li	a1, 0x100
   19a60: 4a 85        	mv	a0, s2
   19a62: ef 90 ef ac  	jal	0x12d30 <_malloc_r>
   19a66: 23 38 a9 14  	sd	a0, 0x150(s2)
   19a6a: aa 87        	mv	a5, a0
   19a6c: 13 07 05 10  	addi	a4, a0, 0x100
   19a70: 19 c5        	beqz	a0, 0x19a7e <signal+0x60>
   19a72: 23 b0 07 00  	sd	zero, 0x0(a5)
   19a76: a1 07        	addi	a5, a5, 0x8
   19a78: e3 1d f7 fe  	bne	a4, a5, 0x19a72 <signal+0x54>
   19a7c: c1 b7        	j	0x19a3c <signal+0x1e>
   19a7e: 42 64        	ld	s0, 0x10(sp)
   19a80: a2 64        	ld	s1, 0x8(sp)
   19a82: 7d 55        	li	a0, -0x1
   19a84: d9 b7        	j	0x19a4a <signal+0x2c>

0000000000019a86 <_init_signal>:
   19a86: 41 11        	addi	sp, sp, -0x10
   19a88: 22 e0        	sd	s0, 0x0(sp)
   19a8a: 03 b4 01 1d  	ld	s0, 0x1d0(gp)
   19a8e: 06 e4        	sd	ra, 0x8(sp)
   19a90: 83 37 04 15  	ld	a5, 0x150(s0)
   19a94: 91 c7        	beqz	a5, 0x19aa0 <_init_signal+0x1a>
   19a96: 01 45        	li	a0, 0x0
   19a98: a2 60        	ld	ra, 0x8(sp)
   19a9a: 02 64        	ld	s0, 0x0(sp)
   19a9c: 41 01        	addi	sp, sp, 0x10
   19a9e: 82 80        	ret
   19aa0: 93 05 00 10  	li	a1, 0x100
   19aa4: 22 85        	mv	a0, s0
   19aa6: ef 90 af a8  	jal	0x12d30 <_malloc_r>
   19aaa: 23 38 a4 14  	sd	a0, 0x150(s0)
   19aae: 09 c9        	beqz	a0, 0x19ac0 <_init_signal+0x3a>
   19ab0: 93 07 05 10  	addi	a5, a0, 0x100
   19ab4: 23 30 05 00  	sd	zero, 0x0(a0)
   19ab8: 21 05        	addi	a0, a0, 0x8
   19aba: e3 1d f5 fe  	bne	a0, a5, 0x19ab4 <_init_signal+0x2e>
   19abe: e1 bf        	j	0x19a96 <_init_signal+0x10>
   19ac0: 7d 55        	li	a0, -0x1
   19ac2: d9 bf        	j	0x19a98 <_init_signal+0x12>

0000000000019ac4 <__sigtramp>:
   19ac4: 01 11        	addi	sp, sp, -0x20
   19ac6: 26 e4        	sd	s1, 0x8(sp)
   19ac8: 06 ec        	sd	ra, 0x18(sp)
   19aca: fd 47        	li	a5, 0x1f
   19acc: 83 b4 01 1d  	ld	s1, 0x1d0(gp)
   19ad0: 63 ee a7 06  	bltu	a5, a0, 0x19b4c <__sigtramp+0x88>
   19ad4: 83 b7 04 15  	ld	a5, 0x150(s1)
   19ad8: 22 e8        	sd	s0, 0x10(sp)
   19ada: 2a 84        	mv	s0, a0
   19adc: a9 c7        	beqz	a5, 0x19b26 <__sigtramp+0x62>
   19ade: 13 17 34 00  	slli	a4, s0, 0x3
   19ae2: ba 97        	add	a5, a5, a4
   19ae4: 98 63        	ld	a4, 0x0(a5)
   19ae6: 0d c3        	beqz	a4, 0x19b08 <__sigtramp+0x44>
   19ae8: fd 56        	li	a3, -0x1
   19aea: 63 0b d7 02  	beq	a4, a3, 0x19b20 <__sigtramp+0x5c>
   19aee: 85 46        	li	a3, 0x1
   19af0: 63 02 d7 02  	beq	a4, a3, 0x19b14 <__sigtramp+0x50>
   19af4: 22 85        	mv	a0, s0
   19af6: 23 b0 07 00  	sd	zero, 0x0(a5)
   19afa: 02 97        	jalr	a4
   19afc: 42 64        	ld	s0, 0x10(sp)
   19afe: 01 45        	li	a0, 0x0
   19b00: e2 60        	ld	ra, 0x18(sp)
   19b02: a2 64        	ld	s1, 0x8(sp)
   19b04: 05 61        	addi	sp, sp, 0x20
   19b06: 82 80        	ret
   19b08: 42 64        	ld	s0, 0x10(sp)
   19b0a: e2 60        	ld	ra, 0x18(sp)
   19b0c: a2 64        	ld	s1, 0x8(sp)
   19b0e: 05 45        	li	a0, 0x1
   19b10: 05 61        	addi	sp, sp, 0x20
   19b12: 82 80        	ret
   19b14: 42 64        	ld	s0, 0x10(sp)
   19b16: e2 60        	ld	ra, 0x18(sp)
   19b18: a2 64        	ld	s1, 0x8(sp)
   19b1a: 0d 45        	li	a0, 0x3
   19b1c: 05 61        	addi	sp, sp, 0x20
   19b1e: 82 80        	ret
   19b20: 42 64        	ld	s0, 0x10(sp)
   19b22: 09 45        	li	a0, 0x2
   19b24: f1 bf        	j	0x19b00 <__sigtramp+0x3c>
   19b26: 93 05 00 10  	li	a1, 0x100
   19b2a: 26 85        	mv	a0, s1
   19b2c: ef 90 4f a0  	jal	0x12d30 <_malloc_r>
   19b30: 23 b8 a4 14  	sd	a0, 0x150(s1)
   19b34: aa 87        	mv	a5, a0
   19b36: 11 c9        	beqz	a0, 0x19b4a <__sigtramp+0x86>
   19b38: 2a 87        	mv	a4, a0
   19b3a: 93 06 05 10  	addi	a3, a0, 0x100
   19b3e: 23 30 07 00  	sd	zero, 0x0(a4)
   19b42: 21 07        	addi	a4, a4, 0x8
   19b44: e3 9d e6 fe  	bne	a3, a4, 0x19b3e <__sigtramp+0x7a>
   19b48: 59 bf        	j	0x19ade <__sigtramp+0x1a>
   19b4a: 42 64        	ld	s0, 0x10(sp)
   19b4c: 7d 55        	li	a0, -0x1
   19b4e: 4d bf        	j	0x19b00 <__sigtramp+0x3c>

0000000000019b50 <_kill_r>:
   19b50: 01 11        	addi	sp, sp, -0x20
   19b52: 2e 87        	mv	a4, a1
   19b54: 22 e8        	sd	s0, 0x10(sp)
   19b56: 26 e4        	sd	s1, 0x8(sp)
   19b58: 2a 84        	mv	s0, a0
   19b5a: b2 85        	mv	a1, a2
   19b5c: 3a 85        	mv	a0, a4
   19b5e: 06 ec        	sd	ra, 0x18(sp)
   19b60: 23 ac 01 20  	sw	zero, 0x218(gp)
   19b64: ef 00 c0 10  	jal	0x19c70 <_kill>
   19b68: fd 57        	li	a5, -0x1
   19b6a: 63 07 f5 00  	beq	a0, a5, 0x19b78 <_kill_r+0x28>
   19b6e: e2 60        	ld	ra, 0x18(sp)
   19b70: 42 64        	ld	s0, 0x10(sp)
   19b72: a2 64        	ld	s1, 0x8(sp)
   19b74: 05 61        	addi	sp, sp, 0x20
   19b76: 82 80        	ret
   19b78: 83 a7 81 21  	lw	a5, 0x218(gp)
   19b7c: ed db        	beqz	a5, 0x19b6e <_kill_r+0x1e>
   19b7e: e2 60        	ld	ra, 0x18(sp)
   19b80: 1c c0        	sw	a5, 0x0(s0)
   19b82: 42 64        	ld	s0, 0x10(sp)
   19b84: a2 64        	ld	s1, 0x8(sp)
   19b86: 05 61        	addi	sp, sp, 0x20
   19b88: 82 80        	ret

0000000000019b8a <_getpid_r>:
   19b8a: 41 a8        	j	0x19c1a <_getpid>

0000000000019b8c <_close>:
   19b8c: 41 11        	addi	sp, sp, -0x10
   19b8e: 06 e4        	sd	ra, 0x8(sp)
   19b90: 22 e0        	sd	s0, 0x0(sp)
   19b92: 93 08 90 03  	li	a7, 0x39
   19b96: 73 00 00 00  	ecall
   19b9a: 2a 84        	mv	s0, a0
   19b9c: 63 47 05 00  	bltz	a0, 0x19baa <_close+0x1e>
   19ba0: 01 25        	sext.w	a0, a0
   19ba2: a2 60        	ld	ra, 0x8(sp)
   19ba4: 02 64        	ld	s0, 0x0(sp)
   19ba6: 41 01        	addi	sp, sp, 0x10
   19ba8: 82 80        	ret
   19baa: ef 80 bf bd  	jal	0x12784 <__errno>
   19bae: 3b 04 80 40  	negw	s0, s0
   19bb2: 00 c1        	sw	s0, 0x0(a0)
   19bb4: 7d 55        	li	a0, -0x1
   19bb6: f5 b7        	j	0x19ba2 <_close+0x16>

0000000000019bb8 <_exit>:
   19bb8: 93 08 d0 05  	li	a7, 0x5d
   19bbc: 73 00 00 00  	ecall
   19bc0: 63 43 05 00  	bltz	a0, 0x19bc6 <_exit+0xe>
   19bc4: 01 a0        	j	0x19bc4 <_exit+0xc>
   19bc6: 41 11        	addi	sp, sp, -0x10
   19bc8: 22 e0        	sd	s0, 0x0(sp)
   19bca: 2a 84        	mv	s0, a0
   19bcc: 06 e4        	sd	ra, 0x8(sp)
   19bce: 3b 04 80 40  	negw	s0, s0
   19bd2: ef 80 3f bb  	jal	0x12784 <__errno>
   19bd6: 00 c1        	sw	s0, 0x0(a0)
   19bd8: 01 a0        	j	0x19bd8 <_exit+0x20>

0000000000019bda <_fstat>:
   19bda: 35 71        	addi	sp, sp, -0xa0
   19bdc: 26 e5        	sd	s1, 0x88(sp)
   19bde: 06 ed        	sd	ra, 0x98(sp)
   19be0: ae 84        	mv	s1, a1
   19be2: 22 e9        	sd	s0, 0x90(sp)
   19be4: 93 08 00 05  	li	a7, 0x50
   19be8: 8a 85        	mv	a1, sp
   19bea: 73 00 00 00  	ecall
   19bee: 2a 84        	mv	s0, a0
   19bf0: 63 4e 05 00  	bltz	a0, 0x19c0c <_fstat+0x32>
   19bf4: 1b 04 05 00  	sext.w	s0, a0
   19bf8: 26 85        	mv	a0, s1
   19bfa: 8a 85        	mv	a1, sp
   19bfc: ef 00 00 16  	jal	0x19d5c <_conv_stat>
   19c00: ea 60        	ld	ra, 0x98(sp)
   19c02: 22 85        	mv	a0, s0
   19c04: 4a 64        	ld	s0, 0x90(sp)
   19c06: aa 64        	ld	s1, 0x88(sp)
   19c08: 0d 61        	addi	sp, sp, 0xa0
   19c0a: 82 80        	ret
   19c0c: 3b 04 80 40  	negw	s0, s0
   19c10: ef 80 5f b7  	jal	0x12784 <__errno>
   19c14: 00 c1        	sw	s0, 0x0(a0)
   19c16: 7d 54        	li	s0, -0x1
   19c18: c5 b7        	j	0x19bf8 <_fstat+0x1e>

0000000000019c1a <_getpid>:
   19c1a: 05 45        	li	a0, 0x1
   19c1c: 82 80        	ret

0000000000019c1e <_gettimeofday>:
   19c1e: 41 11        	addi	sp, sp, -0x10
   19c20: 06 e4        	sd	ra, 0x8(sp)
   19c22: 22 e0        	sd	s0, 0x0(sp)
   19c24: 93 08 90 0a  	li	a7, 0xa9
   19c28: 73 00 00 00  	ecall
   19c2c: 2a 84        	mv	s0, a0
   19c2e: 63 47 05 00  	bltz	a0, 0x19c3c <_gettimeofday+0x1e>
   19c32: 01 25        	sext.w	a0, a0
   19c34: a2 60        	ld	ra, 0x8(sp)
   19c36: 02 64        	ld	s0, 0x0(sp)
   19c38: 41 01        	addi	sp, sp, 0x10
   19c3a: 82 80        	ret
   19c3c: ef 80 9f b4  	jal	0x12784 <__errno>
   19c40: 3b 04 80 40  	negw	s0, s0
   19c44: 00 c1        	sw	s0, 0x0(a0)
   19c46: 7d 55        	li	a0, -0x1
   19c48: f5 b7        	j	0x19c34 <_gettimeofday+0x16>

0000000000019c4a <_isatty>:
   19c4a: 19 71        	addi	sp, sp, -0x80
   19c4c: 2c 00        	addi	a1, sp, 0x8
   19c4e: 86 fc        	sd	ra, 0x78(sp)
   19c50: ef f0 bf f8  	jal	0x19bda <_fstat>
   19c54: fd 57        	li	a5, -0x1
   19c56: 63 09 f5 00  	beq	a0, a5, 0x19c68 <_isatty+0x1e>
   19c5a: 32 45        	lw	a0, 0xc(sp)
   19c5c: e6 70        	ld	ra, 0x78(sp)
   19c5e: 1b 55 d5 40  	sraiw	a0, a0, 0xd
   19c62: 05 89        	andi	a0, a0, 0x1
   19c64: 09 61        	addi	sp, sp, 0x80
   19c66: 82 80        	ret
   19c68: e6 70        	ld	ra, 0x78(sp)
   19c6a: 01 45        	li	a0, 0x0
   19c6c: 09 61        	addi	sp, sp, 0x80
   19c6e: 82 80        	ret

0000000000019c70 <_kill>:
   19c70: 41 11        	addi	sp, sp, -0x10
   19c72: 06 e4        	sd	ra, 0x8(sp)
   19c74: ef 80 1f b1  	jal	0x12784 <__errno>
   19c78: a2 60        	ld	ra, 0x8(sp)
   19c7a: d9 47        	li	a5, 0x16
   19c7c: 1c c1        	sw	a5, 0x0(a0)
   19c7e: 7d 55        	li	a0, -0x1
   19c80: 41 01        	addi	sp, sp, 0x10
   19c82: 82 80        	ret

0000000000019c84 <_lseek>:
   19c84: 41 11        	addi	sp, sp, -0x10
   19c86: 06 e4        	sd	ra, 0x8(sp)
   19c88: 22 e0        	sd	s0, 0x0(sp)
   19c8a: 93 08 e0 03  	li	a7, 0x3e
   19c8e: 73 00 00 00  	ecall
   19c92: 2a 84        	mv	s0, a0
   19c94: 63 47 05 00  	bltz	a0, 0x19ca2 <_lseek+0x1e>
   19c98: a2 60        	ld	ra, 0x8(sp)
   19c9a: 22 85        	mv	a0, s0
   19c9c: 02 64        	ld	s0, 0x0(sp)
   19c9e: 41 01        	addi	sp, sp, 0x10
   19ca0: 82 80        	ret
   19ca2: 3b 04 80 40  	negw	s0, s0
   19ca6: ef 80 ff ad  	jal	0x12784 <__errno>
   19caa: 00 c1        	sw	s0, 0x0(a0)
   19cac: 7d 54        	li	s0, -0x1
   19cae: ed b7        	j	0x19c98 <_lseek+0x14>

0000000000019cb0 <_read>:
   19cb0: 41 11        	addi	sp, sp, -0x10
   19cb2: 06 e4        	sd	ra, 0x8(sp)
   19cb4: 22 e0        	sd	s0, 0x0(sp)
   19cb6: 93 08 f0 03  	li	a7, 0x3f
   19cba: 73 00 00 00  	ecall
   19cbe: 2a 84        	mv	s0, a0
   19cc0: 63 47 05 00  	bltz	a0, 0x19cce <_read+0x1e>
   19cc4: a2 60        	ld	ra, 0x8(sp)
   19cc6: 22 85        	mv	a0, s0
   19cc8: 02 64        	ld	s0, 0x0(sp)
   19cca: 41 01        	addi	sp, sp, 0x10
   19ccc: 82 80        	ret
   19cce: 3b 04 80 40  	negw	s0, s0
   19cd2: ef 80 3f ab  	jal	0x12784 <__errno>
   19cd6: 00 c1        	sw	s0, 0x0(a0)
   19cd8: 7d 54        	li	s0, -0x1
   19cda: ed b7        	j	0x19cc4 <_read+0x14>

0000000000019cdc <_sbrk>:
   19cdc: 03 b7 81 24  	ld	a4, 0x248(gp)
   19ce0: 41 11        	addi	sp, sp, -0x10
   19ce2: 06 e4        	sd	ra, 0x8(sp)
   19ce4: aa 87        	mv	a5, a0
   19ce6: 01 ef        	bnez	a4, 0x19cfe <_sbrk+0x22>
   19ce8: 93 08 60 0d  	li	a7, 0xd6
   19cec: 01 45        	li	a0, 0x0
   19cee: 73 00 00 00  	ecall
   19cf2: 7d 56        	li	a2, -0x1
   19cf4: 2a 87        	mv	a4, a0
   19cf6: 63 05 c5 02  	beq	a0, a2, 0x19d20 <_sbrk+0x44>
   19cfa: 23 b4 a1 24  	sd	a0, 0x248(gp)
   19cfe: 93 08 60 0d  	li	a7, 0xd6
   19d02: 33 85 e7 00  	add	a0, a5, a4
   19d06: 73 00 00 00  	ecall
   19d0a: 03 b7 81 24  	ld	a4, 0x248(gp)
   19d0e: ba 97        	add	a5, a5, a4
   19d10: 63 18 f5 00  	bne	a0, a5, 0x19d20 <_sbrk+0x44>
   19d14: a2 60        	ld	ra, 0x8(sp)
   19d16: 23 b4 a1 24  	sd	a0, 0x248(gp)
   19d1a: 3a 85        	mv	a0, a4
   19d1c: 41 01        	addi	sp, sp, 0x10
   19d1e: 82 80        	ret
   19d20: ef 80 5f a6  	jal	0x12784 <__errno>
   19d24: a2 60        	ld	ra, 0x8(sp)
   19d26: b1 47        	li	a5, 0xc
   19d28: 1c c1        	sw	a5, 0x0(a0)
   19d2a: 7d 55        	li	a0, -0x1
   19d2c: 41 01        	addi	sp, sp, 0x10
   19d2e: 82 80        	ret

0000000000019d30 <_write>:
   19d30: 41 11        	addi	sp, sp, -0x10
   19d32: 06 e4        	sd	ra, 0x8(sp)
   19d34: 22 e0        	sd	s0, 0x0(sp)
   19d36: 93 08 00 04  	li	a7, 0x40
   19d3a: 73 00 00 00  	ecall
   19d3e: 2a 84        	mv	s0, a0
   19d40: 63 47 05 00  	bltz	a0, 0x19d4e <_write+0x1e>
   19d44: a2 60        	ld	ra, 0x8(sp)
   19d46: 22 85        	mv	a0, s0
   19d48: 02 64        	ld	s0, 0x0(sp)
   19d4a: 41 01        	addi	sp, sp, 0x10
   19d4c: 82 80        	ret
   19d4e: 3b 04 80 40  	negw	s0, s0
   19d52: ef 80 3f a3  	jal	0x12784 <__errno>
   19d56: 00 c1        	sw	s0, 0x0(a0)
   19d58: 7d 54        	li	s0, -0x1
   19d5a: ed b7        	j	0x19d44 <_write+0x14>

0000000000019d5c <_conv_stat>:
   19d5c: 03 d7 85 01  	lhu	a4, 0x18(a1)
   19d60: 83 d7 45 01  	lhu	a5, 0x14(a1)
   19d64: d0 4d        	lw	a2, 0x1c(a1)
   19d66: 94 71        	ld	a3, 0x20(a1)
   19d68: 03 b3 05 00  	ld	t1, 0x0(a1)
   19d6c: 83 b8 85 00  	ld	a7, 0x8(a1)
   19d70: 03 a8 05 01  	lw	a6, 0x10(a1)
   19d74: 1b 17 07 01  	slliw	a4, a4, 0x10
   19d78: d9 8f        	or	a5, a5, a4
   19d7a: 23 16 c5 00  	sh	a2, 0xc(a0)
   19d7e: 23 17 d5 00  	sh	a3, 0xe(a0)
   19d82: 23 10 65 00  	sh	t1, 0x0(a0)
   19d86: 23 11 15 01  	sh	a7, 0x2(a0)
   19d8a: 23 22 05 01  	sw	a6, 0x4(a0)
   19d8e: 1c c5        	sw	a5, 0x8(a0)
   19d90: 98 79        	ld	a4, 0x30(a1)
   19d92: bc 65        	ld	a5, 0x48(a1)
   19d94: b0 61        	ld	a2, 0x40(a1)
   19d96: 94 5d        	lw	a3, 0x38(a1)
   19d98: 18 e9        	sd	a4, 0x10(a0)
   19d9a: 1c ed        	sd	a5, 0x18(a0)
   19d9c: b8 6d        	ld	a4, 0x58(a1)
   19d9e: bc 75        	ld	a5, 0x68(a1)
   19da0: 30 e9        	sd	a2, 0x50(a0)
   19da2: 34 e5        	sd	a3, 0x48(a0)
   19da4: 18 f5        	sd	a4, 0x28(a0)
   19da6: 1c fd        	sd	a5, 0x38(a0)
   19da8: 82 80        	ret

0000000000019daa <__netf2>:
   19daa: 2a 88        	mv	a6, a0
   19dac: f3 27 20 00  	frrm	a5
   19db0: 21 65        	lui	a0, 0x8
   19db2: 13 d7 05 03  	srli	a4, a1, 0x30
   19db6: 7d 15        	addi	a0, a0, -0x1
   19db8: 7d 5e        	li	t3, -0x1
   19dba: 93 58 0e 01  	srli	a7, t3, 0x10
   19dbe: 13 d3 06 03  	srli	t1, a3, 0x30
   19dc2: 69 8f        	and	a4, a4, a0
   19dc4: b3 f7 15 01  	and	a5, a1, a7
   19dc8: 33 73 a3 00  	and	t1, t1, a0
   19dcc: b3 f8 16 01  	and	a7, a3, a7
   19dd0: fd 91        	srli	a1, a1, 0x3f
   19dd2: fd 92        	srli	a3, a3, 0x3f
   19dd4: 63 18 a7 00  	bne	a4, a0, 0x19de4 <__netf2+0x3a>
   19dd8: 33 e5 07 01  	or	a0, a5, a6
   19ddc: 05 e9        	bnez	a0, 0x19e0c <__netf2+0x62>
   19dde: 63 16 e3 04  	bne	t1, a4, 0x19e2a <__netf2+0x80>
   19de2: 19 a0        	j	0x19de8 <__netf2+0x3e>
   19de4: 63 15 a3 04  	bne	t1, a0, 0x19e2e <__netf2+0x84>
   19de8: 33 e5 c8 00  	or	a0, a7, a2
   19dec: 29 c1        	beqz	a0, 0x19e2e <__netf2+0x84>
   19dee: a1 66        	lui	a3, 0x8
   19df0: fd 16        	addi	a3, a3, -0x1
   19df2: 63 18 d7 02  	bne	a4, a3, 0x19e22 <__netf2+0x78>
   19df6: 33 e8 07 01  	or	a6, a5, a6
   19dfa: 63 00 08 02  	beqz	a6, 0x19e1a <__netf2+0x70>
   19dfe: 7d 57        	li	a4, -0x1
   19e00: 45 83        	srli	a4, a4, 0x11
   19e02: 63 6c f7 00  	bltu	a4, a5, 0x19e1a <__netf2+0x70>
   19e06: 73 60 18 00  	csrsi	fflags, 0x10
   19e0a: 05 a0        	j	0x19e2a <__netf2+0x80>
   19e0c: 13 5e 1e 01  	srli	t3, t3, 0x11
   19e10: e3 7b fe fe  	bgeu	t3, a5, 0x19e06 <__netf2+0x5c>
   19e14: 05 45        	li	a0, 0x1
   19e16: 63 1d e3 02  	bne	t1, a4, 0x19e50 <__netf2+0xa6>
   19e1a: 33 e6 c8 00  	or	a2, a7, a2
   19e1e: 05 45        	li	a0, 0x1
   19e20: 05 ca        	beqz	a2, 0x19e50 <__netf2+0xa6>
   19e22: fd 57        	li	a5, -0x1
   19e24: c5 83        	srli	a5, a5, 0x11
   19e26: e3 f0 17 ff  	bgeu	a5, a7, 0x19e06 <__netf2+0x5c>
   19e2a: 05 45        	li	a0, 0x1
   19e2c: 82 80        	ret
   19e2e: 05 45        	li	a0, 0x1
   19e30: 63 10 67 02  	bne	a4, t1, 0x19e50 <__netf2+0xa6>
   19e34: 63 9e 17 01  	bne	a5, a7, 0x19e50 <__netf2+0xa6>
   19e38: 63 1c c8 00  	bne	a6, a2, 0x19e50 <__netf2+0xa6>
   19e3c: 63 88 d5 00  	beq	a1, a3, 0x19e4c <__netf2+0xa2>
   19e40: 01 eb        	bnez	a4, 0x19e50 <__netf2+0xa6>
   19e42: b3 e7 07 01  	or	a5, a5, a6
   19e46: 33 35 f0 00  	snez	a0, a5
   19e4a: 82 80        	ret
   19e4c: 01 45        	li	a0, 0x0
   19e4e: 82 80        	ret
   19e50: 82 80        	ret

0000000000019e52 <__gttf2>:
   19e52: aa 88        	mv	a7, a0
   19e54: f3 27 20 00  	frrm	a5
   19e58: 21 63        	lui	t1, 0x8
   19e5a: 13 d8 05 03  	srli	a6, a1, 0x30
   19e5e: 7d 13        	addi	t1, t1, -0x1
   19e60: 7d 57        	li	a4, -0x1
   19e62: 41 83        	srli	a4, a4, 0x10
   19e64: 93 d7 06 03  	srli	a5, a3, 0x30
   19e68: 33 78 68 00  	and	a6, a6, t1
   19e6c: 33 fe e5 00  	and	t3, a1, a4
   19e70: 33 f5 67 00  	and	a0, a5, t1
   19e74: 75 8f        	and	a4, a4, a3
   19e76: fd 91        	srli	a1, a1, 0x3f
   19e78: fd 92        	srli	a3, a3, 0x3f
   19e7a: 63 15 68 00  	bne	a6, t1, 0x19e84 <__gttf2+0x32>
   19e7e: b3 67 1e 01  	or	a5, t3, a7
   19e82: b1 eb        	bnez	a5, 0x19ed6 <__gttf2+0x84>
   19e84: 63 15 65 00  	bne	a0, t1, 0x19e8e <__gttf2+0x3c>
   19e88: b3 67 c7 00  	or	a5, a4, a2
   19e8c: a9 e7        	bnez	a5, 0x19ed6 <__gttf2+0x84>
   19e8e: 81 47        	li	a5, 0x0
   19e90: 63 16 08 00  	bnez	a6, 0x19e9c <__gttf2+0x4a>
   19e94: b3 67 1e 01  	or	a5, t3, a7
   19e98: 93 b7 17 00  	seqz	a5, a5
   19e9c: 29 e1        	bnez	a0, 0x19ede <__gttf2+0x8c>
   19e9e: 33 63 c7 00  	or	t1, a4, a2
   19ea2: 99 c7        	beqz	a5, 0x19eb0 <__gttf2+0x5e>
   19ea4: 63 0a 03 00  	beqz	t1, 0x19eb8 <__gttf2+0x66>
   19ea8: 05 45        	li	a0, 0x1
   19eaa: 99 e6        	bnez	a3, 0x19eb8 <__gttf2+0x66>
   19eac: 7d 55        	li	a0, -0x1
   19eae: 82 80        	ret
   19eb0: 63 18 03 02  	bnez	t1, 0x19ee0 <__gttf2+0x8e>
   19eb4: 7d 55        	li	a0, -0x1
   19eb6: 9d c9        	beqz	a1, 0x19eec <__gttf2+0x9a>
   19eb8: 82 80        	ret
   19eba: e3 47 a8 fe  	blt	a6, a0, 0x19ea8 <__gttf2+0x56>
   19ebe: e3 6b c7 ff  	bltu	a4, t3, 0x19eb4 <__gttf2+0x62>
   19ec2: 63 17 ee 00  	bne	t3, a4, 0x19ed0 <__gttf2+0x7e>
   19ec6: e3 67 16 ff  	bltu	a2, a7, 0x19eb4 <__gttf2+0x62>
   19eca: 01 45        	li	a0, 0x0
   19ecc: e3 f6 c8 fe  	bgeu	a7, a2, 0x19eb8 <__gttf2+0x66>
   19ed0: 05 45        	li	a0, 0x1
   19ed2: fd f1        	bnez	a1, 0x19eb8 <__gttf2+0x66>
   19ed4: e1 bf        	j	0x19eac <__gttf2+0x5a>
   19ed6: 73 60 18 00  	csrsi	fflags, 0x10
   19eda: 79 55        	li	a0, -0x2
   19edc: 82 80        	ret
   19ede: e9 f7        	bnez	a5, 0x19ea8 <__gttf2+0x56>
   19ee0: e3 9a b6 fc  	bne	a3, a1, 0x19eb4 <__gttf2+0x62>
   19ee4: e3 5b 05 fd  	bge	a0, a6, 0x19eba <__gttf2+0x68>
   19ee8: 7d 55        	li	a0, -0x1
   19eea: f9 f6        	bnez	a3, 0x19eb8 <__gttf2+0x66>
   19eec: 05 45        	li	a0, 0x1
   19eee: 82 80        	ret

0000000000019ef0 <__lttf2>:
   19ef0: aa 88        	mv	a7, a0
   19ef2: f3 27 20 00  	frrm	a5
   19ef6: 21 63        	lui	t1, 0x8
   19ef8: 13 d8 05 03  	srli	a6, a1, 0x30
   19efc: 7d 13        	addi	t1, t1, -0x1
   19efe: 7d 57        	li	a4, -0x1
   19f00: 41 83        	srli	a4, a4, 0x10
   19f02: 93 d7 06 03  	srli	a5, a3, 0x30
   19f06: 33 78 68 00  	and	a6, a6, t1
   19f0a: 33 fe e5 00  	and	t3, a1, a4
   19f0e: 33 f5 67 00  	and	a0, a5, t1
   19f12: 75 8f        	and	a4, a4, a3
   19f14: fd 91        	srli	a1, a1, 0x3f
   19f16: fd 92        	srli	a3, a3, 0x3f
   19f18: 63 15 68 00  	bne	a6, t1, 0x19f22 <__lttf2+0x32>
   19f1c: b3 67 1e 01  	or	a5, t3, a7
   19f20: b1 eb        	bnez	a5, 0x19f74 <__lttf2+0x84>
   19f22: 63 15 65 00  	bne	a0, t1, 0x19f2c <__lttf2+0x3c>
   19f26: b3 67 c7 00  	or	a5, a4, a2
   19f2a: a9 e7        	bnez	a5, 0x19f74 <__lttf2+0x84>
   19f2c: 81 47        	li	a5, 0x0
   19f2e: 63 16 08 00  	bnez	a6, 0x19f3a <__lttf2+0x4a>
   19f32: b3 67 1e 01  	or	a5, t3, a7
   19f36: 93 b7 17 00  	seqz	a5, a5
   19f3a: 29 e1        	bnez	a0, 0x19f7c <__lttf2+0x8c>
   19f3c: 33 63 c7 00  	or	t1, a4, a2
   19f40: 99 c7        	beqz	a5, 0x19f4e <__lttf2+0x5e>
   19f42: 63 0a 03 00  	beqz	t1, 0x19f56 <__lttf2+0x66>
   19f46: 05 45        	li	a0, 0x1
   19f48: 99 e6        	bnez	a3, 0x19f56 <__lttf2+0x66>
   19f4a: 7d 55        	li	a0, -0x1
   19f4c: 82 80        	ret
   19f4e: 63 18 03 02  	bnez	t1, 0x19f7e <__lttf2+0x8e>
   19f52: 7d 55        	li	a0, -0x1
   19f54: 9d c9        	beqz	a1, 0x19f8a <__lttf2+0x9a>
   19f56: 82 80        	ret
   19f58: e3 47 a8 fe  	blt	a6, a0, 0x19f46 <__lttf2+0x56>
   19f5c: e3 6b c7 ff  	bltu	a4, t3, 0x19f52 <__lttf2+0x62>
   19f60: 63 17 ee 00  	bne	t3, a4, 0x19f6e <__lttf2+0x7e>
   19f64: e3 67 16 ff  	bltu	a2, a7, 0x19f52 <__lttf2+0x62>
   19f68: 01 45        	li	a0, 0x0
   19f6a: e3 f6 c8 fe  	bgeu	a7, a2, 0x19f56 <__lttf2+0x66>
   19f6e: 05 45        	li	a0, 0x1
   19f70: fd f1        	bnez	a1, 0x19f56 <__lttf2+0x66>
   19f72: e1 bf        	j	0x19f4a <__lttf2+0x5a>
   19f74: 73 60 18 00  	csrsi	fflags, 0x10
   19f78: 09 45        	li	a0, 0x2
   19f7a: 82 80        	ret
   19f7c: e9 f7        	bnez	a5, 0x19f46 <__lttf2+0x56>
   19f7e: e3 9a b6 fc  	bne	a3, a1, 0x19f52 <__lttf2+0x62>
   19f82: e3 5b 05 fd  	bge	a0, a6, 0x19f58 <__lttf2+0x68>
   19f86: 7d 55        	li	a0, -0x1
   19f88: f9 f6        	bnez	a3, 0x19f56 <__lttf2+0x66>
   19f8a: 05 45        	li	a0, 0x1
   19f8c: 82 80        	ret

0000000000019f8e <__multf3>:
   19f8e: 1d 71        	addi	sp, sp, -0x60
   19f90: a2 e8        	sd	s0, 0x50(sp)
   19f92: 56 f4        	sd	s5, 0x28(sp)
   19f94: 62 e8        	sd	s8, 0x10(sp)
   19f96: 86 ec        	sd	ra, 0x58(sp)
   19f98: a6 e4        	sd	s1, 0x48(sp)
   19f9a: ca e0        	sd	s2, 0x40(sp)
   19f9c: 4e fc        	sd	s3, 0x38(sp)
   19f9e: 52 f8        	sd	s4, 0x30(sp)
   19fa0: 5a f0        	sd	s6, 0x20(sp)
   19fa2: 5e ec        	sd	s7, 0x18(sp)
   19fa4: 66 e4        	sd	s9, 0x8(sp)
   19fa6: 2a 84        	mv	s0, a0
   19fa8: 32 8c        	mv	s8, a2
   19faa: b6 8a        	mv	s5, a3
   19fac: f3 29 20 00  	frrm	s3
   19fb0: 21 67        	lui	a4, 0x8
   19fb2: 93 d7 05 03  	srli	a5, a1, 0x30
   19fb6: 7d 17        	addi	a4, a4, -0x1
   19fb8: 93 94 05 01  	slli	s1, a1, 0x10
   19fbc: f9 8f        	and	a5, a5, a4
   19fbe: 81 29        	sext.w	s3, s3
   19fc0: c1 80        	srli	s1, s1, 0x10
   19fc2: 13 db f5 03  	srli	s6, a1, 0x3f
   19fc6: 85 c7        	beqz	a5, 0x19fee <__multf3+0x60>
   19fc8: 1b 8a 07 00  	sext.w	s4, a5
   19fcc: 63 8f e7 06  	beq	a5, a4, 0x1a04a <__multf3+0xbc>
   19fd0: 8e 04        	slli	s1, s1, 0x3
   19fd2: 13 57 d5 03  	srli	a4, a0, 0x3d
   19fd6: 45 8f        	or	a4, a4, s1
   19fd8: 71 7a        	lui	s4, 0xffffc
   19fda: 85 44        	li	s1, 0x1
   19fdc: ce 14        	slli	s1, s1, 0x33
   19fde: 05 0a        	addi	s4, s4, 0x1
   19fe0: d9 8c        	or	s1, s1, a4
   19fe2: 93 1b 35 00  	slli	s7, a0, 0x3
   19fe6: 3e 9a        	add	s4, s4, a5
   19fe8: 81 4c        	li	s9, 0x0
   19fea: 01 49        	li	s2, 0x0
   19fec: 95 a8        	j	0x1a060 <__multf3+0xd2>
   19fee: b3 6b 95 00  	or	s7, a0, s1
   19ff2: 63 82 0b 28  	beqz	s7, 0x1a276 <__multf3+0x2e8>
   19ff6: 9d c8        	beqz	s1, 0x1a02c <__multf3+0x9e>
   19ff8: 26 85        	mv	a0, s1
   19ffa: ef 10 80 00  	jal	0x1b002 <__clzdi2>
   19ffe: 01 25        	sext.w	a0, a0
   1a000: 93 07 15 ff  	addi	a5, a0, -0xf
   1a004: 13 07 d0 03  	li	a4, 0x3d
   1a008: 9b 86 37 00  	addiw	a3, a5, 0x3
   1a00c: bb 07 f7 40  	subw	a5, a4, a5
   1a010: b3 94 d4 00  	sll	s1, s1, a3
   1a014: b3 57 f4 00  	srl	a5, s0, a5
   1a018: c5 8f        	or	a5, a5, s1
   1a01a: b3 14 d4 00  	sll	s1, s0, a3
   1a01e: 71 7a        	lui	s4, 0xffffc
   1a020: 45 0a        	addi	s4, s4, 0x11
   1a022: a6 8b        	mv	s7, s1
   1a024: 33 0a aa 40  	sub	s4, s4, a0
   1a028: be 84        	mv	s1, a5
   1a02a: 7d bf        	j	0x19fe8 <__multf3+0x5a>
   1a02c: ef 00 70 7d  	jal	0x1b002 <__clzdi2>
   1a030: 1b 05 05 04  	addiw	a0, a0, 0x40
   1a034: 93 07 15 ff  	addi	a5, a0, -0xf
   1a038: 13 07 c0 03  	li	a4, 0x3c
   1a03c: e3 54 f7 fc  	bge	a4, a5, 0x1a004 <__multf3+0x76>
   1a040: 9b 87 37 fc  	addiw	a5, a5, -0x3d
   1a044: b3 17 f4 00  	sll	a5, s0, a5
   1a048: d9 bf        	j	0x1a01e <__multf3+0x90>
   1a04a: b3 6b 95 00  	or	s7, a0, s1
   1a04e: 63 88 0b 22  	beqz	s7, 0x1a27e <__multf3+0x2f0>
   1a052: 05 49        	li	s2, 0x1
   1a054: 3e 19        	slli	s2, s2, 0x2f
   1a056: 33 b9 24 01  	sltu	s2, s1, s2
   1a05a: 12 09        	slli	s2, s2, 0x4
   1a05c: aa 8b        	mv	s7, a0
   1a05e: 8d 4c        	li	s9, 0x3
   1a060: 21 66        	lui	a2, 0x8
   1a062: 13 d7 0a 03  	srli	a4, s5, 0x30
   1a066: fd 56        	li	a3, -0x1
   1a068: 7d 16        	addi	a2, a2, -0x1
   1a06a: 13 d4 06 01  	srli	s0, a3, 0x10
   1a06e: 71 8f        	and	a4, a4, a2
   1a070: 33 f4 8a 00  	and	s0, s5, s0
   1a074: 62 85        	mv	a0, s8
   1a076: 93 da fa 03  	srli	s5, s5, 0x3f
   1a07a: 63 05 07 20  	beqz	a4, 0x1a284 <__multf3+0x2f6>
   1a07e: 9b 07 07 00  	sext.w	a5, a4
   1a082: 63 0e c7 24  	beq	a4, a2, 0x1a2de <__multf3+0x350>
   1a086: 0e 04        	slli	s0, s0, 0x3
   1a088: 93 57 dc 03  	srli	a5, s8, 0x3d
   1a08c: c1 8f        	or	a5, a5, s0
   1a08e: 05 44        	li	s0, 0x1
   1a090: 4e 14        	slli	s0, s0, 0x33
   1a092: 5d 8c        	or	s0, s0, a5
   1a094: f1 77        	lui	a5, 0xffffc
   1a096: 85 07        	addi	a5, a5, 0x1
   1a098: 13 15 3c 00  	slli	a0, s8, 0x3
   1a09c: ba 97        	add	a5, a5, a4
   1a09e: 01 47        	li	a4, 0x0
   1a0a0: b3 86 47 01  	add	a3, a5, s4
   1a0a4: 93 97 2c 00  	slli	a5, s9, 0x2
   1a0a8: d9 8f        	or	a5, a5, a4
   1a0aa: 29 46        	li	a2, 0xa
   1a0ac: 93 88 16 00  	addi	a7, a3, 0x1
   1a0b0: 63 4f f6 2a  	blt	a2, a5, 0x1a36e <__multf3+0x3e0>
   1a0b4: 89 45        	li	a1, 0x2
   1a0b6: 33 46 5b 01  	xor	a2, s6, s5
   1a0ba: 63 c4 f5 24  	blt	a1, a5, 0x1a302 <__multf3+0x374>
   1a0be: fd 17        	addi	a5, a5, -0x1
   1a0c0: 85 45        	li	a1, 0x1
   1a0c2: 63 ff f5 24  	bgeu	a1, a5, 0x1a320 <__multf3+0x392>
   1a0c6: fd 57        	li	a5, -0x1
   1a0c8: 81 93        	srli	a5, a5, 0x20
   1a0ca: 13 d7 0b 02  	srli	a4, s7, 0x20
   1a0ce: 93 55 05 02  	srli	a1, a0, 0x20
   1a0d2: b3 8f 74 01  	add	t6, s1, s7
   1a0d6: 33 0f 85 00  	add	t5, a0, s0
   1a0da: b3 fb fb 00  	and	s7, s7, a5
   1a0de: e9 8f        	and	a5, a5, a0
   1a0e0: b3 3e af 00  	sltu	t4, t5, a0
   1a0e4: 33 85 77 03  	mul	a0, a5, s7
   1a0e8: 33 be 9f 00  	sltu	t3, t6, s1
   1a0ec: b3 07 f7 02  	mul	a5, a4, a5
   1a0f0: 13 58 05 02  	srli	a6, a0, 0x20
   1a0f4: 33 07 b7 02  	mul	a4, a4, a1
   1a0f8: b3 85 75 03  	mul	a1, a1, s7
   1a0fc: be 95        	add	a1, a1, a5
   1a0fe: 2e 98        	add	a6, a6, a1
   1a100: 63 75 f8 00  	bgeu	a6, a5, 0x1a10a <__multf3+0x17c>
   1a104: 85 47        	li	a5, 0x1
   1a106: 82 17        	slli	a5, a5, 0x20
   1a108: 3e 97        	add	a4, a4, a5
   1a10a: fd 57        	li	a5, -0x1
   1a10c: 81 93        	srli	a5, a5, 0x20
   1a10e: 13 53 08 02  	srli	t1, a6, 0x20
   1a112: 33 78 f8 00  	and	a6, a6, a5
   1a116: 7d 8d        	and	a0, a0, a5
   1a118: 02 18        	slli	a6, a6, 0x20
   1a11a: 93 d3 0f 02  	srli	t2, t6, 0x20
   1a11e: 3a 93        	add	t1, t1, a4
   1a120: 2a 98        	add	a6, a6, a0
   1a122: 13 57 0f 02  	srli	a4, t5, 0x20
   1a126: 33 f5 ff 00  	and	a0, t6, a5
   1a12a: b3 77 ff 00  	and	a5, t5, a5
   1a12e: b3 85 a7 02  	mul	a1, a5, a0
   1a132: b3 87 f3 02  	mul	a5, t2, a5
   1a136: 93 d2 05 02  	srli	t0, a1, 0x20
   1a13a: b3 83 e3 02  	mul	t2, t2, a4
   1a13e: 33 07 a7 02  	mul	a4, a4, a0
   1a142: 3e 97        	add	a4, a4, a5
   1a144: ba 92        	add	t0, t0, a4
   1a146: 63 f5 f2 00  	bgeu	t0, a5, 0x1a150 <__multf3+0x1c2>
   1a14a: 85 47        	li	a5, 0x1
   1a14c: 82 17        	slli	a5, a5, 0x20
   1a14e: be 93        	add	t2, t2, a5
   1a150: fd 57        	li	a5, -0x1
   1a152: 81 93        	srli	a5, a5, 0x20
   1a154: 13 d7 02 02  	srli	a4, t0, 0x20
   1a158: b3 f2 f2 00  	and	t0, t0, a5
   1a15c: fd 8d        	and	a1, a1, a5
   1a15e: 82 12        	slli	t0, t0, 0x20
   1a160: 13 55 04 02  	srli	a0, s0, 0x20
   1a164: ae 92        	add	t0, t0, a1
   1a166: 93 d5 04 02  	srli	a1, s1, 0x20
   1a16a: fd 8c        	and	s1, s1, a5
   1a16c: e1 8f        	and	a5, a5, s0
   1a16e: 33 8a f4 02  	mul	s4, s1, a5
   1a172: 33 84 a5 02  	mul	s0, a1, a0
   1a176: b3 87 f5 02  	mul	a5, a1, a5
   1a17a: 33 05 95 02  	mul	a0, a0, s1
   1a17e: b3 05 f5 00  	add	a1, a0, a5
   1a182: 13 55 0a 02  	srli	a0, s4, 0x20
   1a186: 2e 95        	add	a0, a0, a1
   1a188: 63 75 f5 00  	bgeu	a0, a5, 0x1a192 <__multf3+0x204>
   1a18c: 85 47        	li	a5, 0x1
   1a18e: 82 17        	slli	a5, a5, 0x20
   1a190: 3e 94        	add	s0, s0, a5
   1a192: 93 55 05 02  	srli	a1, a0, 0x20
   1a196: a2 95        	add	a1, a1, s0
   1a198: 7d 54        	li	s0, -0x1
   1a19a: 01 90        	srli	s0, s0, 0x20
   1a19c: b3 77 85 00  	and	a5, a0, s0
   1a1a0: 82 17        	slli	a5, a5, 0x20
   1a1a2: 33 7a 8a 00  	and	s4, s4, s0
   1a1a6: d2 97        	add	a5, a5, s4
   1a1a8: 01 45        	li	a0, 0x0
   1a1aa: 63 83 0e 00  	beqz	t4, 0x1a1b0 <__multf3+0x222>
   1a1ae: 7e 85        	mv	a0, t6
   1a1b0: 81 4f        	li	t6, 0x0
   1a1b2: 63 03 0e 00  	beqz	t3, 0x1a1b8 <__multf3+0x22a>
   1a1b6: fa 8f        	mv	t6, t5
   1a1b8: 33 84 62 00  	add	s0, t0, t1
   1a1bc: 33 3f 54 00  	sltu	t5, s0, t0
   1a1c0: 7a 97        	add	a4, a4, t5
   1a1c2: 1e 97        	add	a4, a4, t2
   1a1c4: 33 7e de 01  	and	t3, t3, t4
   1a1c8: 33 3f e7 01  	sltu	t5, a4, t5
   1a1cc: 3a 95        	add	a0, a0, a4
   1a1ce: 72 9f        	add	t5, t5, t3
   1a1d0: 33 37 e5 00  	sltu	a4, a0, a4
   1a1d4: 7e 95        	add	a0, a0, t6
   1a1d6: 7a 97        	add	a4, a4, t5
   1a1d8: b3 3f f5 01  	sltu	t6, a0, t6
   1a1dc: 33 0e 04 41  	sub	t3, s0, a6
   1a1e0: b3 3e c4 01  	sltu	t4, s0, t3
   1a1e4: ba 9f        	add	t6, t6, a4
   1a1e6: 33 07 65 40  	sub	a4, a0, t1
   1a1ea: 33 3f e5 00  	sltu	t5, a0, a4
   1a1ee: 33 07 d7 41  	sub	a4, a4, t4
   1a1f2: 81 4e        	li	t4, 0x0
   1a1f4: 63 76 c4 01  	bgeu	s0, t3, 0x1a200 <__multf3+0x272>
   1a1f8: 33 03 a3 40  	sub	t1, t1, a0
   1a1fc: 93 3e 13 00  	seqz	t4, t1
   1a200: ae 9f        	add	t6, t6, a1
   1a202: 33 03 fe 40  	sub	t1, t3, a5
   1a206: b3 05 b7 40  	sub	a1, a4, a1
   1a20a: 33 35 b7 00  	sltu	a0, a4, a1
   1a20e: 33 37 6e 00  	sltu	a4, t3, t1
   1a212: 33 ef ee 01  	or	t5, t4, t5
   1a216: 33 87 e7 40  	sub	a4, a5, a4
   1a21a: 81 4e        	li	t4, 0x0
   1a21c: 63 74 6e 00  	bgeu	t3, t1, 0x1a224 <__multf3+0x296>
   1a220: 93 be 15 00  	seqz	t4, a1
   1a224: ba 95        	add	a1, a1, a4
   1a226: 33 b7 f5 00  	sltu	a4, a1, a5
   1a22a: 7e 97        	add	a4, a4, t6
   1a22c: b3 ee ae 00  	or	t4, t4, a0
   1a230: 33 07 e7 41  	sub	a4, a4, t5
   1a234: 13 15 d3 00  	slli	a0, t1, 0xd
   1a238: 33 07 d7 41  	sub	a4, a4, t4
   1a23c: 33 65 05 01  	or	a0, a0, a6
   1a240: 36 07        	slli	a4, a4, 0xd
   1a242: 33 35 a0 00  	snez	a0, a0
   1a246: 13 53 33 03  	srli	t1, t1, 0x33
   1a24a: 13 d4 35 03  	srli	s0, a1, 0x33
   1a24e: 33 65 65 00  	or	a0, a0, t1
   1a252: b6 05        	slli	a1, a1, 0xd
   1a254: 93 17 b7 00  	slli	a5, a4, 0xb
   1a258: 59 8c        	or	s0, s0, a4
   1a25a: 4d 8d        	or	a0, a0, a1
   1a25c: 63 db 07 00  	bgez	a5, 0x1a272 <__multf3+0x2e4>
   1a260: 93 57 15 00  	srli	a5, a0, 0x1
   1a264: 05 89        	andi	a0, a0, 0x1
   1a266: c9 8f        	or	a5, a5, a0
   1a268: 13 15 f4 03  	slli	a0, s0, 0x3f
   1a26c: 5d 8d        	or	a0, a0, a5
   1a26e: 05 80        	srli	s0, s0, 0x1
   1a270: c6 86        	mv	a3, a7
   1a272: b6 88        	mv	a7, a3
   1a274: 7d a8        	j	0x1a332 <__multf3+0x3a4>
   1a276: 81 44        	li	s1, 0x0
   1a278: 01 4a        	li	s4, 0x0
   1a27a: 85 4c        	li	s9, 0x1
   1a27c: bd b3        	j	0x19fea <__multf3+0x5c>
   1a27e: 81 44        	li	s1, 0x0
   1a280: 89 4c        	li	s9, 0x2
   1a282: a5 b3        	j	0x19fea <__multf3+0x5c>
   1a284: b3 67 8c 00  	or	a5, s8, s0
   1a288: a5 c7        	beqz	a5, 0x1a2f0 <__multf3+0x362>
   1a28a: 1d c8        	beqz	s0, 0x1a2c0 <__multf3+0x332>
   1a28c: 22 85        	mv	a0, s0
   1a28e: ef 00 50 57  	jal	0x1b002 <__clzdi2>
   1a292: 01 25        	sext.w	a0, a0
   1a294: 93 07 15 ff  	addi	a5, a0, -0xf
   1a298: 13 07 d0 03  	li	a4, 0x3d
   1a29c: 9b 86 37 00  	addiw	a3, a5, 0x3
   1a2a0: bb 07 f7 40  	subw	a5, a4, a5
   1a2a4: 33 14 d4 00  	sll	s0, s0, a3
   1a2a8: b3 57 fc 00  	srl	a5, s8, a5
   1a2ac: 33 e7 87 00  	or	a4, a5, s0
   1a2b0: 33 14 dc 00  	sll	s0, s8, a3
   1a2b4: f1 77        	lui	a5, 0xffffc
   1a2b6: c5 07        	addi	a5, a5, 0x11
   1a2b8: 89 8f        	sub	a5, a5, a0
   1a2ba: 22 85        	mv	a0, s0
   1a2bc: 3a 84        	mv	s0, a4
   1a2be: c5 b3        	j	0x1a09e <__multf3+0x110>
   1a2c0: ef 00 30 54  	jal	0x1b002 <__clzdi2>
   1a2c4: 1b 05 05 04  	addiw	a0, a0, 0x40
   1a2c8: 93 07 15 ff  	addi	a5, a0, -0xf
   1a2cc: 13 07 c0 03  	li	a4, 0x3c
   1a2d0: e3 54 f7 fc  	bge	a4, a5, 0x1a298 <__multf3+0x30a>
   1a2d4: 9b 87 37 fc  	addiw	a5, a5, -0x3d
   1a2d8: 33 17 fc 00  	sll	a4, s8, a5
   1a2dc: e1 bf        	j	0x1a2b4 <__multf3+0x326>
   1a2de: 33 67 8c 00  	or	a4, s8, s0
   1a2e2: 01 cf        	beqz	a4, 0x1a2fa <__multf3+0x36c>
   1a2e4: c5 82        	srli	a3, a3, 0x11
   1a2e6: 0d 47        	li	a4, 0x3
   1a2e8: e3 ec 86 da  	bltu	a3, s0, 0x1a0a0 <__multf3+0x112>
   1a2ec: 41 49        	li	s2, 0x10
   1a2ee: 4d bb        	j	0x1a0a0 <__multf3+0x112>
   1a2f0: 01 44        	li	s0, 0x0
   1a2f2: 01 45        	li	a0, 0x0
   1a2f4: 81 47        	li	a5, 0x0
   1a2f6: 05 47        	li	a4, 0x1
   1a2f8: 65 b3        	j	0x1a0a0 <__multf3+0x112>
   1a2fa: 01 44        	li	s0, 0x0
   1a2fc: 01 45        	li	a0, 0x0
   1a2fe: 09 47        	li	a4, 0x2
   1a300: 45 b3        	j	0x1a0a0 <__multf3+0x112>
   1a302: 85 45        	li	a1, 0x1
   1a304: b3 97 f5 00  	sll	a5, a1, a5
   1a308: 93 f5 07 53  	andi	a1, a5, 0x530
   1a30c: a5 e9        	bnez	a1, 0x1a37c <__multf3+0x3ee>
   1a30e: 93 f5 07 24  	andi	a1, a5, 0x240
   1a312: 63 99 05 24  	bnez	a1, 0x1a564 <__multf3+0x5d6>
   1a316: 93 f7 87 08  	andi	a5, a5, 0x88
   1a31a: e3 86 07 da  	beqz	a5, 0x1a0c6 <__multf3+0x138>
   1a31e: 56 86        	mv	a2, s5
   1a320: 89 47        	li	a5, 0x2
   1a322: 63 09 f7 24  	beq	a4, a5, 0x1a574 <__multf3+0x5e6>
   1a326: 8d 47        	li	a5, 0x3
   1a328: 63 0f f7 22  	beq	a4, a5, 0x1a566 <__multf3+0x5d8>
   1a32c: 85 47        	li	a5, 0x1
   1a32e: 63 08 f7 24  	beq	a4, a5, 0x1a57e <__multf3+0x5f0>
   1a332: 11 67        	lui	a4, 0x4
   1a334: 7d 17        	addi	a4, a4, -0x1
   1a336: 46 97        	add	a4, a4, a7
   1a338: 63 5f e0 0c  	blez	a4, 0x1a416 <__multf3+0x488>
   1a33c: 93 77 75 00  	andi	a5, a0, 0x7
   1a340: b9 c7        	beqz	a5, 0x1a38e <__multf3+0x400>
   1a342: 89 47        	li	a5, 0x2
   1a344: 13 69 19 00  	ori	s2, s2, 0x1
   1a348: 63 82 f9 04  	beq	s3, a5, 0x1a38c <__multf3+0x3fe>
   1a34c: 8d 47        	li	a5, 0x3
   1a34e: 63 8b f9 02  	beq	s3, a5, 0x1a384 <__multf3+0x3f6>
   1a352: 63 9e 09 02  	bnez	s3, 0x1a38e <__multf3+0x400>
   1a356: 93 77 f5 00  	andi	a5, a0, 0xf
   1a35a: 91 46        	li	a3, 0x4
   1a35c: 63 89 d7 02  	beq	a5, a3, 0x1a38e <__multf3+0x400>
   1a360: 93 07 45 00  	addi	a5, a0, 0x4
   1a364: b3 b6 a7 00  	sltu	a3, a5, a0
   1a368: 36 94        	add	s0, s0, a3
   1a36a: 3e 85        	mv	a0, a5
   1a36c: 0d a0        	j	0x1a38e <__multf3+0x400>
   1a36e: bd 46        	li	a3, 0xf
   1a370: 63 8b d7 1e  	beq	a5, a3, 0x1a566 <__multf3+0x5d8>
   1a374: ad 46        	li	a3, 0xb
   1a376: 5a 86        	mv	a2, s6
   1a378: e3 83 d7 fa  	beq	a5, a3, 0x1a31e <__multf3+0x390>
   1a37c: 26 84        	mv	s0, s1
   1a37e: 5e 85        	mv	a0, s7
   1a380: 66 87        	mv	a4, s9
   1a382: 79 bf        	j	0x1a320 <__multf3+0x392>
   1a384: 09 e6        	bnez	a2, 0x1a38e <__multf3+0x400>
   1a386: 93 07 85 00  	addi	a5, a0, 0x8
   1a38a: e9 bf        	j	0x1a364 <__multf3+0x3d6>
   1a38c: 6d fe        	bnez	a2, 0x1a386 <__multf3+0x3f8>
   1a38e: 93 17 b4 00  	slli	a5, s0, 0xb
   1a392: 63 d8 07 00  	bgez	a5, 0x1a3a2 <__multf3+0x414>
   1a396: fd 57        	li	a5, -0x1
   1a398: d2 17        	slli	a5, a5, 0x34
   1a39a: fd 17        	addi	a5, a5, -0x1
   1a39c: 11 67        	lui	a4, 0x4
   1a39e: 7d 8c        	and	s0, s0, a5
   1a3a0: 46 97        	add	a4, a4, a7
   1a3a2: a1 67        	lui	a5, 0x8
   1a3a4: f9 17        	addi	a5, a5, -0x2
   1a3a6: a1 66        	lui	a3, 0x8
   1a3a8: 63 c2 e7 04  	blt	a5, a4, 0x1a3ec <__multf3+0x45e>
   1a3ac: 93 57 35 00  	srli	a5, a0, 0x3
   1a3b0: 13 15 d4 03  	slli	a0, s0, 0x3d
   1a3b4: 5d 8d        	or	a0, a0, a5
   1a3b6: 93 57 34 00  	srli	a5, s0, 0x3
   1a3ba: 1b 16 f6 00  	slliw	a2, a2, 0xf
   1a3be: 93 95 07 01  	slli	a1, a5, 0x10
   1a3c2: 51 8f        	or	a4, a4, a2
   1a3c4: 42 17        	slli	a4, a4, 0x30
   1a3c6: c1 81        	srli	a1, a1, 0x10
   1a3c8: d9 8d        	or	a1, a1, a4
   1a3ca: 63 04 09 00  	beqz	s2, 0x1a3d2 <__multf3+0x444>
   1a3ce: 73 20 19 00  	csrs	fflags, s2
   1a3d2: e6 60        	ld	ra, 0x58(sp)
   1a3d4: 46 64        	ld	s0, 0x50(sp)
   1a3d6: a6 64        	ld	s1, 0x48(sp)
   1a3d8: 06 69        	ld	s2, 0x40(sp)
   1a3da: e2 79        	ld	s3, 0x38(sp)
   1a3dc: 42 7a        	ld	s4, 0x30(sp)
   1a3de: a2 7a        	ld	s5, 0x28(sp)
   1a3e0: 02 7b        	ld	s6, 0x20(sp)
   1a3e2: e2 6b        	ld	s7, 0x18(sp)
   1a3e4: 42 6c        	ld	s8, 0x10(sp)
   1a3e6: a2 6c        	ld	s9, 0x8(sp)
   1a3e8: 25 61        	addi	sp, sp, 0x60
   1a3ea: 82 80        	ret
   1a3ec: 09 47        	li	a4, 0x2
   1a3ee: 63 82 e9 02  	beq	s3, a4, 0x1a412 <__multf3+0x484>
   1a3f2: 0d 47        	li	a4, 0x3
   1a3f4: 63 88 e9 00  	beq	s3, a4, 0x1a404 <__multf3+0x476>
   1a3f8: 63 97 09 00  	bnez	s3, 0x1a406 <__multf3+0x478>
   1a3fc: 01 45        	li	a0, 0x0
   1a3fe: 13 87 f6 ff  	addi	a4, a3, -0x1
   1a402: 21 a0        	j	0x1a40a <__multf3+0x47c>
   1a404: 65 de        	beqz	a2, 0x1a3fc <__multf3+0x46e>
   1a406: 7d 55        	li	a0, -0x1
   1a408: 3e 87        	mv	a4, a5
   1a40a: 13 69 59 00  	ori	s2, s2, 0x5
   1a40e: aa 87        	mv	a5, a0
   1a410: 6d b7        	j	0x1a3ba <__multf3+0x42c>
   1a412: 6d f6        	bnez	a2, 0x1a3fc <__multf3+0x46e>
   1a414: cd bf        	j	0x1a406 <__multf3+0x478>
   1a416: 85 46        	li	a3, 0x1
   1a418: 21 e7        	bnez	a4, 0x1a460 <__multf3+0x4d2>
   1a41a: 93 76 75 00  	andi	a3, a0, 0x7
   1a41e: a2 87        	mv	a5, s0
   1a420: 9d ca        	beqz	a3, 0x1a456 <__multf3+0x4c8>
   1a422: 89 46        	li	a3, 0x2
   1a424: 13 69 19 00  	ori	s2, s2, 0x1
   1a428: 63 86 d9 02  	beq	s3, a3, 0x1a454 <__multf3+0x4c6>
   1a42c: 8d 46        	li	a3, 0x3
   1a42e: 63 8f d9 00  	beq	s3, a3, 0x1a44c <__multf3+0x4be>
   1a432: 63 92 09 02  	bnez	s3, 0x1a456 <__multf3+0x4c8>
   1a436: 93 76 f5 00  	andi	a3, a0, 0xf
   1a43a: 91 45        	li	a1, 0x4
   1a43c: 63 8d b6 00  	beq	a3, a1, 0x1a456 <__multf3+0x4c8>
   1a440: 93 37 c5 ff  	sltiu	a5, a0, -0x4
   1a444: 93 c7 17 00  	xori	a5, a5, 0x1
   1a448: a2 97        	add	a5, a5, s0
   1a44a: 31 a0        	j	0x1a456 <__multf3+0x4c8>
   1a44c: 09 e6        	bnez	a2, 0x1a456 <__multf3+0x4c8>
   1a44e: 93 37 85 ff  	sltiu	a5, a0, -0x8
   1a452: cd bf        	j	0x1a444 <__multf3+0x4b6>
   1a454: 6d fe        	bnez	a2, 0x1a44e <__multf3+0x4c0>
   1a456: 93 d6 47 03  	srli	a3, a5, 0x34
   1a45a: 93 c6 16 00  	xori	a3, a3, 0x1
   1a45e: 85 8a        	andi	a3, a3, 0x1
   1a460: 05 48        	li	a6, 0x1
   1a462: 33 08 e8 40  	sub	a6, a6, a4
   1a466: 93 07 40 07  	li	a5, 0x74
   1a46a: 63 c2 07 0d  	blt	a5, a6, 0x1a52e <__multf3+0x5a0>
   1a46e: 13 07 f0 03  	li	a4, 0x3f
   1a472: 9b 07 08 00  	sext.w	a5, a6
   1a476: 63 4b 07 05  	blt	a4, a6, 0x1a4cc <__multf3+0x53e>
   1a47a: 93 05 00 04  	li	a1, 0x40
   1a47e: 9d 9d        	subw	a1, a1, a5
   1a480: 33 17 b4 00  	sll	a4, s0, a1
   1a484: 33 58 f5 00  	srl	a6, a0, a5
   1a488: b3 15 b5 00  	sll	a1, a0, a1
   1a48c: 33 67 07 01  	or	a4, a4, a6
   1a490: b3 35 b0 00  	snez	a1, a1
   1a494: 4d 8f        	or	a4, a4, a1
   1a496: b3 57 f4 00  	srl	a5, s0, a5
   1a49a: 93 75 77 00  	andi	a1, a4, 0x7
   1a49e: a5 c1        	beqz	a1, 0x1a4fe <__multf3+0x570>
   1a4a0: 89 45        	li	a1, 0x2
   1a4a2: 13 69 19 00  	ori	s2, s2, 0x1
   1a4a6: 63 8b b9 04  	beq	s3, a1, 0x1a4fc <__multf3+0x56e>
   1a4aa: 8d 45        	li	a1, 0x3
   1a4ac: 63 84 b9 04  	beq	s3, a1, 0x1a4f4 <__multf3+0x566>
   1a4b0: 63 97 09 04  	bnez	s3, 0x1a4fe <__multf3+0x570>
   1a4b4: 93 75 f7 00  	andi	a1, a4, 0xf
   1a4b8: 11 45        	li	a0, 0x4
   1a4ba: 63 82 a5 04  	beq	a1, a0, 0x1a4fe <__multf3+0x570>
   1a4be: 93 05 47 00  	addi	a1, a4, 0x4
   1a4c2: 33 b5 e5 00  	sltu	a0, a1, a4
   1a4c6: aa 97        	add	a5, a5, a0
   1a4c8: 2e 87        	mv	a4, a1
   1a4ca: 15 a8        	j	0x1a4fe <__multf3+0x570>
   1a4cc: 1b 87 07 fc  	addiw	a4, a5, -0x40
   1a4d0: 93 08 00 04  	li	a7, 0x40
   1a4d4: 33 57 e4 00  	srl	a4, s0, a4
   1a4d8: 81 45        	li	a1, 0x0
   1a4da: 63 07 18 01  	beq	a6, a7, 0x1a4e8 <__multf3+0x55a>
   1a4de: 93 05 00 08  	li	a1, 0x80
   1a4e2: 9d 9d        	subw	a1, a1, a5
   1a4e4: b3 15 b4 00  	sll	a1, s0, a1
   1a4e8: c9 8d        	or	a1, a1, a0
   1a4ea: b3 35 b0 00  	snez	a1, a1
   1a4ee: 4d 8f        	or	a4, a4, a1
   1a4f0: 81 47        	li	a5, 0x0
   1a4f2: 65 b7        	j	0x1a49a <__multf3+0x50c>
   1a4f4: 09 e6        	bnez	a2, 0x1a4fe <__multf3+0x570>
   1a4f6: 93 05 87 00  	addi	a1, a4, 0x8
   1a4fa: e1 b7        	j	0x1a4c2 <__multf3+0x534>
   1a4fc: 6d fe        	bnez	a2, 0x1a4f6 <__multf3+0x568>
   1a4fe: 93 95 c7 00  	slli	a1, a5, 0xc
   1a502: 63 df 05 00  	bgez	a1, 0x1a520 <__multf3+0x592>
   1a506: 13 69 19 00  	ori	s2, s2, 0x1
   1a50a: 81 47        	li	a5, 0x0
   1a50c: 01 45        	li	a0, 0x0
   1a50e: 05 47        	li	a4, 0x1
   1a510: e3 85 06 ea  	beqz	a3, 0x1a3ba <__multf3+0x42c>
   1a514: 93 76 19 00  	andi	a3, s2, 0x1
   1a518: 86 06        	slli	a3, a3, 0x1
   1a51a: 33 e9 26 01  	or	s2, a3, s2
   1a51e: 71 bd        	j	0x1a3ba <__multf3+0x42c>
   1a520: 0d 83        	srli	a4, a4, 0x3
   1a522: 13 95 d7 03  	slli	a0, a5, 0x3d
   1a526: 59 8d        	or	a0, a0, a4
   1a528: 8d 83        	srli	a5, a5, 0x3
   1a52a: 01 47        	li	a4, 0x0
   1a52c: d5 b7        	j	0x1a510 <__multf3+0x582>
   1a52e: 41 8d        	or	a0, a0, s0
   1a530: 11 cd        	beqz	a0, 0x1a54c <__multf3+0x5be>
   1a532: 89 47        	li	a5, 0x2
   1a534: 13 69 19 00  	ori	s2, s2, 0x1
   1a538: 63 83 f9 02  	beq	s3, a5, 0x1a55e <__multf3+0x5d0>
   1a53c: 8d 47        	li	a5, 0x3
   1a53e: 63 8c f9 00  	beq	s3, a5, 0x1a556 <__multf3+0x5c8>
   1a542: 05 45        	li	a0, 0x1
   1a544: 63 93 09 00  	bnez	s3, 0x1a54a <__multf3+0x5bc>
   1a548: 15 45        	li	a0, 0x5
   1a54a: 0d 81        	srli	a0, a0, 0x3
   1a54c: 13 69 29 00  	ori	s2, s2, 0x2
   1a550: 81 47        	li	a5, 0x0
   1a552: 01 47        	li	a4, 0x0
   1a554: 9d b5        	j	0x1a3ba <__multf3+0x42c>
   1a556: 25 45        	li	a0, 0x9
   1a558: 6d da        	beqz	a2, 0x1a54a <__multf3+0x5bc>
   1a55a: 05 45        	li	a0, 0x1
   1a55c: fd b7        	j	0x1a54a <__multf3+0x5bc>
   1a55e: 25 45        	li	a0, 0x9
   1a560: 6d f6        	bnez	a2, 0x1a54a <__multf3+0x5bc>
   1a562: e5 bf        	j	0x1a55a <__multf3+0x5cc>
   1a564: 41 49        	li	s2, 0x10
   1a566: 85 47        	li	a5, 0x1
   1a568: 21 67        	lui	a4, 0x8
   1a56a: be 17        	slli	a5, a5, 0x2f
   1a56c: 01 45        	li	a0, 0x0
   1a56e: 7d 17        	addi	a4, a4, -0x1
   1a570: 01 46        	li	a2, 0x0
   1a572: a1 b5        	j	0x1a3ba <__multf3+0x42c>
   1a574: 21 67        	lui	a4, 0x8
   1a576: 81 47        	li	a5, 0x0
   1a578: 01 45        	li	a0, 0x0
   1a57a: 7d 17        	addi	a4, a4, -0x1
   1a57c: 3d bd        	j	0x1a3ba <__multf3+0x42c>
   1a57e: 81 47        	li	a5, 0x0
   1a580: 01 45        	li	a0, 0x0
   1a582: c1 bf        	j	0x1a552 <__multf3+0x5c4>

000000000001a584 <__subtf3>:
   1a584: 79 71        	addi	sp, sp, -0x30
   1a586: 06 f4        	sd	ra, 0x28(sp)
   1a588: 22 f0        	sd	s0, 0x20(sp)
   1a58a: 26 ec        	sd	s1, 0x18(sp)
   1a58c: 4a e8        	sd	s2, 0x10(sp)
   1a58e: 4e e4        	sd	s3, 0x8(sp)
   1a590: 52 e0        	sd	s4, 0x0(sp)
   1a592: f3 24 20 00  	frrm	s1
   1a596: 7d 57        	li	a4, -0x1
   1a598: 41 83        	srli	a4, a4, 0x10
   1a59a: 13 d8 05 03  	srli	a6, a1, 0x30
   1a59e: 13 d9 f5 03  	srli	s2, a1, 0x3f
   1a5a2: f9 8d        	and	a1, a1, a4
   1a5a4: 8e 05        	slli	a1, a1, 0x3
   1a5a6: 93 58 d5 03  	srli	a7, a0, 0x3d
   1a5aa: a1 67        	lui	a5, 0x8
   1a5ac: fd 17        	addi	a5, a5, -0x1
   1a5ae: 13 d3 06 03  	srli	t1, a3, 0x30
   1a5b2: b3 e8 b8 00  	or	a7, a7, a1
   1a5b6: 93 d5 f6 03  	srli	a1, a3, 0x3f
   1a5ba: f9 8e        	and	a3, a3, a4
   1a5bc: 33 78 f8 00  	and	a6, a6, a5
   1a5c0: 13 57 d6 03  	srli	a4, a2, 0x3d
   1a5c4: 8e 06        	slli	a3, a3, 0x3
   1a5c6: 33 73 f3 00  	and	t1, t1, a5
   1a5ca: 81 24        	sext.w	s1, s1
   1a5cc: c2 89        	mv	s3, a6
   1a5ce: 0e 05        	slli	a0, a0, 0x3
   1a5d0: 55 8f        	or	a4, a4, a3
   1a5d2: 0e 06        	slli	a2, a2, 0x3
   1a5d4: 63 15 f3 00  	bne	t1, a5, 0x1a5de <__subtf3+0x5a>
   1a5d8: b3 67 c7 00  	or	a5, a4, a2
   1a5dc: 99 e3        	bnez	a5, 0x1a5e2 <__subtf3+0x5e>
   1a5de: 93 c5 15 00  	xori	a1, a1, 0x1
   1a5e2: bb 06 68 40  	subw	a3, a6, t1
   1a5e6: 21 6e        	lui	t3, 0x8
   1a5e8: 9b 87 06 00  	sext.w	a5, a3
   1a5ec: 7d 1e        	addi	t3, t3, -0x1
   1a5ee: 63 97 25 2b  	bne	a1, s2, 0x1a89c <__subtf3+0x318>
   1a5f2: 63 58 f0 0e  	blez	a5, 0x1a6e2 <__subtf3+0x15e>
   1a5f6: 63 19 03 06  	bnez	t1, 0x1a668 <__subtf3+0xe4>
   1a5fa: b3 67 c7 00  	or	a5, a4, a2
   1a5fe: 91 e7        	bnez	a5, 0x1a60a <__subtf3+0x86>
   1a600: 63 07 c8 05  	beq	a6, t3, 0x1a64e <__subtf3+0xca>
   1a604: 46 87        	mv	a4, a7
   1a606: 2a 86        	mv	a2, a0
   1a608: f9 ab        	j	0x1abe6 <__subtf3+0x662>
   1a60a: 9b 87 f6 ff  	addiw	a5, a3, -0x1
   1a60e: 95 ef        	bnez	a5, 0x1a64a <__subtf3+0xc6>
   1a610: 2a 96        	add	a2, a2, a0
   1a612: 46 97        	add	a4, a4, a7
   1a614: 33 35 a6 00  	sltu	a0, a2, a0
   1a618: 2a 97        	add	a4, a4, a0
   1a61a: 93 16 c7 00  	slli	a3, a4, 0xc
   1a61e: 81 47        	li	a5, 0x0
   1a620: 63 d4 06 0e  	bgez	a3, 0x1a708 <__subtf3+0x184>
   1a624: a1 66        	lui	a3, 0x8
   1a626: 85 09        	addi	s3, s3, 0x1
   1a628: fd 16        	addi	a3, a3, -0x1
   1a62a: 63 85 d9 24  	beq	s3, a3, 0x1a874 <__subtf3+0x2f0>
   1a62e: fd 56        	li	a3, -0x1
   1a630: ce 16        	slli	a3, a3, 0x33
   1a632: fd 16        	addi	a3, a3, -0x1
   1a634: f9 8e        	and	a3, a3, a4
   1a636: 13 57 16 00  	srli	a4, a2, 0x1
   1a63a: 05 8a        	andi	a2, a2, 0x1
   1a63c: 51 8f        	or	a4, a4, a2
   1a63e: 13 96 f6 03  	slli	a2, a3, 0x3f
   1a642: 59 8e        	or	a2, a2, a4
   1a644: 13 d7 16 00  	srli	a4, a3, 0x1
   1a648: c1 a0        	j	0x1a708 <__subtf3+0x184>
   1a64a: 63 14 c8 03  	bne	a6, t3, 0x1a672 <__subtf3+0xee>
   1a64e: 33 e6 a8 00  	or	a2, a7, a0
   1a652: 63 0c 06 6c  	beqz	a2, 0x1ad2a <__subtf3+0x7a6>
   1a656: 93 d7 28 03  	srli	a5, a7, 0x32
   1a65a: 93 c7 17 00  	xori	a5, a5, 0x1
   1a65e: 85 8b        	andi	a5, a5, 0x1
   1a660: 92 07        	slli	a5, a5, 0x4
   1a662: 46 87        	mv	a4, a7
   1a664: 2a 86        	mv	a2, a0
   1a666: 4d a0        	j	0x1a708 <__subtf3+0x184>
   1a668: e3 03 c8 ff  	beq	a6, t3, 0x1a64e <__subtf3+0xca>
   1a66c: 85 46        	li	a3, 0x1
   1a66e: ce 16        	slli	a3, a3, 0x33
   1a670: 55 8f        	or	a4, a4, a3
   1a672: 93 06 40 07  	li	a3, 0x74
   1a676: 63 c1 f6 06  	blt	a3, a5, 0x1a6d8 <__subtf3+0x154>
   1a67a: 93 06 f0 03  	li	a3, 0x3f
   1a67e: 63 c9 f6 02  	blt	a3, a5, 0x1a6b0 <__subtf3+0x12c>
   1a682: 93 05 00 04  	li	a1, 0x40
   1a686: 9d 9d        	subw	a1, a1, a5
   1a688: b3 16 b7 00  	sll	a3, a4, a1
   1a68c: 33 58 f6 00  	srl	a6, a2, a5
   1a690: b3 15 b6 00  	sll	a1, a2, a1
   1a694: b3 e6 06 01  	or	a3, a3, a6
   1a698: b3 35 b0 00  	snez	a1, a1
   1a69c: cd 8e        	or	a3, a3, a1
   1a69e: 33 57 f7 00  	srl	a4, a4, a5
   1a6a2: 36 95        	add	a0, a0, a3
   1a6a4: 46 97        	add	a4, a4, a7
   1a6a6: b3 36 d5 00  	sltu	a3, a0, a3
   1a6aa: 2a 86        	mv	a2, a0
   1a6ac: 36 97        	add	a4, a4, a3
   1a6ae: b5 b7        	j	0x1a61a <__subtf3+0x96>
   1a6b0: 9b 86 07 fc  	addiw	a3, a5, -0x40
   1a6b4: 13 08 00 04  	li	a6, 0x40
   1a6b8: b3 56 d7 00  	srl	a3, a4, a3
   1a6bc: 81 45        	li	a1, 0x0
   1a6be: 63 87 07 01  	beq	a5, a6, 0x1a6cc <__subtf3+0x148>
   1a6c2: 93 05 00 08  	li	a1, 0x80
   1a6c6: 9d 9d        	subw	a1, a1, a5
   1a6c8: b3 15 b7 00  	sll	a1, a4, a1
   1a6cc: d1 8d        	or	a1, a1, a2
   1a6ce: b3 35 b0 00  	snez	a1, a1
   1a6d2: cd 8e        	or	a3, a3, a1
   1a6d4: 01 47        	li	a4, 0x0
   1a6d6: f1 b7        	j	0x1a6a2 <__subtf3+0x11e>
   1a6d8: b3 66 c7 00  	or	a3, a4, a2
   1a6dc: b3 36 d0 00  	snez	a3, a3
   1a6e0: d5 bf        	j	0x1a6d4 <__subtf3+0x150>
   1a6e2: e9 c7        	beqz	a5, 0x1a7ac <__subtf3+0x228>
   1a6e4: 63 12 08 08  	bnez	a6, 0x1a768 <__subtf3+0x1e4>
   1a6e8: b3 e7 a8 00  	or	a5, a7, a0
   1a6ec: 95 e3        	bnez	a5, 0x1a710 <__subtf3+0x18c>
   1a6ee: 63 1c c3 63  	bne	t1, t3, 0x1ad26 <__subtf3+0x7a2>
   1a6f2: b3 67 c7 00  	or	a5, a4, a2
   1a6f6: 63 86 07 62  	beqz	a5, 0x1ad22 <__subtf3+0x79e>
   1a6fa: 93 57 27 03  	srli	a5, a4, 0x32
   1a6fe: 93 c7 17 00  	xori	a5, a5, 0x1
   1a702: 85 8b        	andi	a5, a5, 0x1
   1a704: 92 07        	slli	a5, a5, 0x4
   1a706: 9a 89        	mv	s3, t1
   1a708: ba 88        	mv	a7, a4
   1a70a: 32 85        	mv	a0, a2
   1a70c: 01 47        	li	a4, 0x0
   1a70e: 31 ab        	j	0x1ac2a <__subtf3+0x6a6>
   1a710: 93 c7 f6 ff  	not	a5, a3
   1a714: 81 27        	sext.w	a5, a5
   1a716: 81 eb        	bnez	a5, 0x1a726 <__subtf3+0x1a2>
   1a718: 2a 96        	add	a2, a2, a0
   1a71a: 46 97        	add	a4, a4, a7
   1a71c: 33 35 a6 00  	sltu	a0, a2, a0
   1a720: 2a 97        	add	a4, a4, a0
   1a722: 9a 89        	mv	s3, t1
   1a724: dd bd        	j	0x1a61a <__subtf3+0x96>
   1a726: e3 06 c3 fd  	beq	t1, t3, 0x1a6f2 <__subtf3+0x16e>
   1a72a: 93 06 40 07  	li	a3, 0x74
   1a72e: 63 ca f6 06  	blt	a3, a5, 0x1a7a2 <__subtf3+0x21e>
   1a732: 93 06 f0 03  	li	a3, 0x3f
   1a736: 63 c2 f6 04  	blt	a3, a5, 0x1a77a <__subtf3+0x1f6>
   1a73a: 93 05 00 04  	li	a1, 0x40
   1a73e: 9d 9d        	subw	a1, a1, a5
   1a740: b3 96 b8 00  	sll	a3, a7, a1
   1a744: 33 58 f5 00  	srl	a6, a0, a5
   1a748: b3 15 b5 00  	sll	a1, a0, a1
   1a74c: b3 e6 06 01  	or	a3, a3, a6
   1a750: b3 35 b0 00  	snez	a1, a1
   1a754: cd 8e        	or	a3, a3, a1
   1a756: b3 d7 f8 00  	srl	a5, a7, a5
   1a75a: 36 96        	add	a2, a2, a3
   1a75c: ba 97        	add	a5, a5, a4
   1a75e: b3 36 d6 00  	sltu	a3, a2, a3
   1a762: 33 87 d7 00  	add	a4, a5, a3
   1a766: 75 bf        	j	0x1a722 <__subtf3+0x19e>
   1a768: e3 05 c3 f9  	beq	t1, t3, 0x1a6f2 <__subtf3+0x16e>
   1a76c: bb 07 d0 40  	negw	a5, a3
   1a770: 85 46        	li	a3, 0x1
   1a772: ce 16        	slli	a3, a3, 0x33
   1a774: b3 e8 d8 00  	or	a7, a7, a3
   1a778: 4d bf        	j	0x1a72a <__subtf3+0x1a6>
   1a77a: 9b 86 07 fc  	addiw	a3, a5, -0x40
   1a77e: 13 08 00 04  	li	a6, 0x40
   1a782: b3 d6 d8 00  	srl	a3, a7, a3
   1a786: 81 45        	li	a1, 0x0
   1a788: 63 87 07 01  	beq	a5, a6, 0x1a796 <__subtf3+0x212>
   1a78c: 93 05 00 08  	li	a1, 0x80
   1a790: 9d 9d        	subw	a1, a1, a5
   1a792: b3 95 b8 00  	sll	a1, a7, a1
   1a796: c9 8d        	or	a1, a1, a0
   1a798: b3 35 b0 00  	snez	a1, a1
   1a79c: cd 8e        	or	a3, a3, a1
   1a79e: 81 47        	li	a5, 0x0
   1a7a0: 6d bf        	j	0x1a75a <__subtf3+0x1d6>
   1a7a2: b3 e6 a8 00  	or	a3, a7, a0
   1a7a6: b3 36 d0 00  	snez	a3, a3
   1a7aa: d5 bf        	j	0x1a79e <__subtf3+0x21a>
   1a7ac: 93 06 18 00  	addi	a3, a6, 0x1
   1a7b0: 93 9e 16 03  	slli	t4, a3, 0x31
   1a7b4: a1 65        	lui	a1, 0x8
   1a7b6: 93 de 2e 03  	srli	t4, t4, 0x32
   1a7ba: f9 15        	addi	a1, a1, -0x2
   1a7bc: 63 9d 0e 06  	bnez	t4, 0x1a836 <__subtf3+0x2b2>
   1a7c0: b3 e6 a8 00  	or	a3, a7, a0
   1a7c4: 63 19 08 02  	bnez	a6, 0x1a7f6 <__subtf3+0x272>
   1a7c8: 63 88 06 56  	beqz	a3, 0x1ad38 <__subtf3+0x7b4>
   1a7cc: b3 66 c7 00  	or	a3, a4, a2
   1a7d0: 63 88 06 56  	beqz	a3, 0x1ad40 <__subtf3+0x7bc>
   1a7d4: 2a 96        	add	a2, a2, a0
   1a7d6: 46 97        	add	a4, a4, a7
   1a7d8: 33 35 a6 00  	sltu	a0, a2, a0
   1a7dc: b3 08 a7 00  	add	a7, a4, a0
   1a7e0: 13 97 c8 00  	slli	a4, a7, 0xc
   1a7e4: 63 5b 07 26  	bgez	a4, 0x1aa5a <__subtf3+0x4d6>
   1a7e8: 7d 57        	li	a4, -0x1
   1a7ea: 4e 17        	slli	a4, a4, 0x33
   1a7ec: 7d 17        	addi	a4, a4, -0x1
   1a7ee: 33 f7 e8 00  	and	a4, a7, a4
   1a7f2: 85 49        	li	s3, 0x1
   1a7f4: 11 bf        	j	0x1a708 <__subtf3+0x184>
   1a7f6: 63 15 c8 03  	bne	a6, t3, 0x1a820 <__subtf3+0x29c>
   1a7fa: 63 8b 06 54  	beqz	a3, 0x1ad50 <__subtf3+0x7cc>
   1a7fe: 93 d7 28 03  	srli	a5, a7, 0x32
   1a802: 93 c7 17 00  	xori	a5, a5, 0x1
   1a806: 85 8b        	andi	a5, a5, 0x1
   1a808: 92 07        	slli	a5, a5, 0x4
   1a80a: 63 1e 03 01  	bne	t1, a6, 0x1a826 <__subtf3+0x2a2>
   1a80e: b3 65 c7 00  	or	a1, a4, a2
   1a812: 89 c9        	beqz	a1, 0x1a824 <__subtf3+0x2a0>
   1a814: 93 15 d7 00  	slli	a1, a4, 0xd
   1a818: 63 c6 05 00  	bltz	a1, 0x1a824 <__subtf3+0x2a0>
   1a81c: c1 47        	li	a5, 0x10
   1a81e: 19 a0        	j	0x1a824 <__subtf3+0x2a0>
   1a820: e3 07 c3 ff  	beq	t1, t3, 0x1a80e <__subtf3+0x28a>
   1a824: 91 c6        	beqz	a3, 0x1a830 <__subtf3+0x2ac>
   1a826: 51 8f        	or	a4, a4, a2
   1a828: 63 1e 07 2c  	bnez	a4, 0x1ab04 <__subtf3+0x580>
   1a82c: 46 87        	mv	a4, a7
   1a82e: 2a 86        	mv	a2, a0
   1a830: a1 69        	lui	s3, 0x8
   1a832: fd 19        	addi	s3, s3, -0x1
   1a834: d1 bd        	j	0x1a708 <__subtf3+0x184>
   1a836: 63 8e c6 01  	beq	a3, t3, 0x1a852 <__subtf3+0x2ce>
   1a83a: 2a 96        	add	a2, a2, a0
   1a83c: 33 35 a6 00  	sltu	a0, a2, a0
   1a840: 46 97        	add	a4, a4, a7
   1a842: 2a 97        	add	a4, a4, a0
   1a844: 93 15 f7 03  	slli	a1, a4, 0x3f
   1a848: 05 82        	srli	a2, a2, 0x1
   1a84a: 4d 8e        	or	a2, a2, a1
   1a84c: 05 83        	srli	a4, a4, 0x1
   1a84e: b6 89        	mv	s3, a3
   1a850: 65 bd        	j	0x1a708 <__subtf3+0x184>
   1a852: 99 cc        	beqz	s1, 0x1a870 <__subtf3+0x2ec>
   1a854: 8d 47        	li	a5, 0x3
   1a856: 63 98 f4 00  	bne	s1, a5, 0x1a866 <__subtf3+0x2e2>
   1a85a: 63 0b 09 00  	beqz	s2, 0x1a870 <__subtf3+0x2ec>
   1a85e: 7d 57        	li	a4, -0x1
   1a860: 7d 56        	li	a2, -0x1
   1a862: ae 89        	mv	s3, a1
   1a864: 15 a8        	j	0x1a898 <__subtf3+0x314>
   1a866: 89 47        	li	a5, 0x2
   1a868: e3 9b f4 fe  	bne	s1, a5, 0x1a85e <__subtf3+0x2da>
   1a86c: e3 09 09 fe  	beqz	s2, 0x1a85e <__subtf3+0x2da>
   1a870: b6 89        	mv	s3, a3
   1a872: 0d a0        	j	0x1a894 <__subtf3+0x310>
   1a874: 85 c0        	beqz	s1, 0x1a894 <__subtf3+0x310>
   1a876: 8d 47        	li	a5, 0x3
   1a878: 63 99 f4 00  	bne	s1, a5, 0x1a88a <__subtf3+0x306>
   1a87c: 63 0c 09 00  	beqz	s2, 0x1a894 <__subtf3+0x310>
   1a880: a1 69        	lui	s3, 0x8
   1a882: 7d 57        	li	a4, -0x1
   1a884: 7d 56        	li	a2, -0x1
   1a886: f9 19        	addi	s3, s3, -0x2
   1a888: 01 a8        	j	0x1a898 <__subtf3+0x314>
   1a88a: 89 47        	li	a5, 0x2
   1a88c: e3 9a f4 fe  	bne	s1, a5, 0x1a880 <__subtf3+0x2fc>
   1a890: e3 08 09 fe  	beqz	s2, 0x1a880 <__subtf3+0x2fc>
   1a894: 01 47        	li	a4, 0x0
   1a896: 01 46        	li	a2, 0x0
   1a898: 95 47        	li	a5, 0x5
   1a89a: bd b5        	j	0x1a708 <__subtf3+0x184>
   1a89c: 63 58 f0 0a  	blez	a5, 0x1a94c <__subtf3+0x3c8>
   1a8a0: 63 17 03 06  	bnez	t1, 0x1a90e <__subtf3+0x38a>
   1a8a4: b3 67 c7 00  	or	a5, a4, a2
   1a8a8: e3 8c 07 d4  	beqz	a5, 0x1a600 <__subtf3+0x7c>
   1a8ac: 9b 87 f6 ff  	addiw	a5, a3, -0x1
   1a8b0: 8d e3        	bnez	a5, 0x1a8d2 <__subtf3+0x34e>
   1a8b2: 33 06 c5 40  	sub	a2, a0, a2
   1a8b6: 33 87 e8 40  	sub	a4, a7, a4
   1a8ba: 33 35 c5 00  	sltu	a0, a0, a2
   1a8be: 09 8f        	sub	a4, a4, a0
   1a8c0: 93 17 c7 00  	slli	a5, a4, 0xc
   1a8c4: 63 d1 07 32  	bgez	a5, 0x1abe6 <__subtf3+0x662>
   1a8c8: 13 14 d7 00  	slli	s0, a4, 0xd
   1a8cc: 35 80        	srli	s0, s0, 0xd
   1a8ce: 32 8a        	mv	s4, a2
   1a8d0: 9d a4        	j	0x1ab36 <__subtf3+0x5b2>
   1a8d2: e3 0e c8 d7  	beq	a6, t3, 0x1a64e <__subtf3+0xca>
   1a8d6: 93 06 40 07  	li	a3, 0x74
   1a8da: 63 c4 f6 06  	blt	a3, a5, 0x1a942 <__subtf3+0x3be>
   1a8de: 93 06 f0 03  	li	a3, 0x3f
   1a8e2: 63 cc f6 02  	blt	a3, a5, 0x1a91a <__subtf3+0x396>
   1a8e6: 93 05 00 04  	li	a1, 0x40
   1a8ea: 9d 9d        	subw	a1, a1, a5
   1a8ec: b3 16 b7 00  	sll	a3, a4, a1
   1a8f0: 33 58 f6 00  	srl	a6, a2, a5
   1a8f4: b3 15 b6 00  	sll	a1, a2, a1
   1a8f8: b3 e6 06 01  	or	a3, a3, a6
   1a8fc: b3 35 b0 00  	snez	a1, a1
   1a900: cd 8e        	or	a3, a3, a1
   1a902: 33 57 f7 00  	srl	a4, a4, a5
   1a906: b3 06 d5 40  	sub	a3, a0, a3
   1a90a: 36 86        	mv	a2, a3
   1a90c: 6d b7        	j	0x1a8b6 <__subtf3+0x332>
   1a90e: e3 00 c8 d5  	beq	a6, t3, 0x1a64e <__subtf3+0xca>
   1a912: 85 46        	li	a3, 0x1
   1a914: ce 16        	slli	a3, a3, 0x33
   1a916: 55 8f        	or	a4, a4, a3
   1a918: 7d bf        	j	0x1a8d6 <__subtf3+0x352>
   1a91a: 9b 86 07 fc  	addiw	a3, a5, -0x40
   1a91e: 13 08 00 04  	li	a6, 0x40
   1a922: b3 56 d7 00  	srl	a3, a4, a3
   1a926: 81 45        	li	a1, 0x0
   1a928: 63 87 07 01  	beq	a5, a6, 0x1a936 <__subtf3+0x3b2>
   1a92c: 93 05 00 08  	li	a1, 0x80
   1a930: 9d 9d        	subw	a1, a1, a5
   1a932: b3 15 b7 00  	sll	a1, a4, a1
   1a936: d1 8d        	or	a1, a1, a2
   1a938: b3 35 b0 00  	snez	a1, a1
   1a93c: cd 8e        	or	a3, a3, a1
   1a93e: 01 47        	li	a4, 0x0
   1a940: d9 b7        	j	0x1a906 <__subtf3+0x382>
   1a942: b3 66 c7 00  	or	a3, a4, a2
   1a946: b3 36 d0 00  	snez	a3, a3
   1a94a: d5 bf        	j	0x1a93e <__subtf3+0x3ba>
   1a94c: f9 cf        	beqz	a5, 0x1aa2a <__subtf3+0x4a6>
   1a94e: 63 19 08 08  	bnez	a6, 0x1a9e0 <__subtf3+0x45c>
   1a952: b3 e7 a8 00  	or	a5, a7, a0
   1a956: 85 e3        	bnez	a5, 0x1a976 <__subtf3+0x3f2>
   1a958: 63 1d c3 3d  	bne	t1, t3, 0x1ad32 <__subtf3+0x7ae>
   1a95c: b3 67 c7 00  	or	a5, a4, a2
   1a960: 63 87 07 3c  	beqz	a5, 0x1ad2e <__subtf3+0x7aa>
   1a964: 93 57 27 03  	srli	a5, a4, 0x32
   1a968: 93 c7 17 00  	xori	a5, a5, 0x1
   1a96c: 85 8b        	andi	a5, a5, 0x1
   1a96e: 92 07        	slli	a5, a5, 0x4
   1a970: 9a 89        	mv	s3, t1
   1a972: 2e 89        	mv	s2, a1
   1a974: 51 bb        	j	0x1a708 <__subtf3+0x184>
   1a976: 93 c7 f6 ff  	not	a5, a3
   1a97a: 81 27        	sext.w	a5, a5
   1a97c: 81 ef        	bnez	a5, 0x1a994 <__subtf3+0x410>
   1a97e: 33 05 a6 40  	sub	a0, a2, a0
   1a982: b3 37 a6 00  	sltu	a5, a2, a0
   1a986: 33 07 17 41  	sub	a4, a4, a7
   1a98a: 2a 86        	mv	a2, a0
   1a98c: 1d 8f        	sub	a4, a4, a5
   1a98e: 9a 89        	mv	s3, t1
   1a990: 2e 89        	mv	s2, a1
   1a992: 3d b7        	j	0x1a8c0 <__subtf3+0x33c>
   1a994: e3 04 c3 fd  	beq	t1, t3, 0x1a95c <__subtf3+0x3d8>
   1a998: 93 06 40 07  	li	a3, 0x74
   1a99c: 63 c2 f6 08  	blt	a3, a5, 0x1aa20 <__subtf3+0x49c>
   1a9a0: 93 06 f0 03  	li	a3, 0x3f
   1a9a4: 63 c7 f6 04  	blt	a3, a5, 0x1a9f2 <__subtf3+0x46e>
   1a9a8: 13 08 00 04  	li	a6, 0x40
   1a9ac: 3b 08 f8 40  	subw	a6, a6, a5
   1a9b0: b3 96 08 01  	sll	a3, a7, a6
   1a9b4: 33 5e f5 00  	srl	t3, a0, a5
   1a9b8: 33 18 05 01  	sll	a6, a0, a6
   1a9bc: b3 e6 c6 01  	or	a3, a3, t3
   1a9c0: 33 38 00 01  	snez	a6, a6
   1a9c4: b3 e6 06 01  	or	a3, a3, a6
   1a9c8: b3 d7 f8 00  	srl	a5, a7, a5
   1a9cc: b3 06 d6 40  	sub	a3, a2, a3
   1a9d0: 33 35 d6 00  	sltu	a0, a2, a3
   1a9d4: b3 07 f7 40  	sub	a5, a4, a5
   1a9d8: 36 86        	mv	a2, a3
   1a9da: 33 87 a7 40  	sub	a4, a5, a0
   1a9de: 45 bf        	j	0x1a98e <__subtf3+0x40a>
   1a9e0: e3 0e c3 f7  	beq	t1, t3, 0x1a95c <__subtf3+0x3d8>
   1a9e4: bb 07 d0 40  	negw	a5, a3
   1a9e8: 85 46        	li	a3, 0x1
   1a9ea: ce 16        	slli	a3, a3, 0x33
   1a9ec: b3 e8 d8 00  	or	a7, a7, a3
   1a9f0: 65 b7        	j	0x1a998 <__subtf3+0x414>
   1a9f2: 9b 86 07 fc  	addiw	a3, a5, -0x40
   1a9f6: 13 0e 00 04  	li	t3, 0x40
   1a9fa: b3 d6 d8 00  	srl	a3, a7, a3
   1a9fe: 01 48        	li	a6, 0x0
   1aa00: 63 88 c7 01  	beq	a5, t3, 0x1aa10 <__subtf3+0x48c>
   1aa04: 13 08 00 08  	li	a6, 0x80
   1aa08: 3b 08 f8 40  	subw	a6, a6, a5
   1aa0c: 33 98 08 01  	sll	a6, a7, a6
   1aa10: 33 68 a8 00  	or	a6, a6, a0
   1aa14: 33 38 00 01  	snez	a6, a6
   1aa18: b3 e6 06 01  	or	a3, a3, a6
   1aa1c: 81 47        	li	a5, 0x0
   1aa1e: 7d b7        	j	0x1a9cc <__subtf3+0x448>
   1aa20: b3 e6 a8 00  	or	a3, a7, a0
   1aa24: b3 36 d0 00  	snez	a3, a3
   1aa28: d5 bf        	j	0x1aa1c <__subtf3+0x498>
   1aa2a: 93 06 18 00  	addi	a3, a6, 0x1
   1aa2e: 93 9e 16 03  	slli	t4, a3, 0x31
   1aa32: 93 de 2e 03  	srli	t4, t4, 0x32
   1aa36: 63 9c 0e 0c  	bnez	t4, 0x1ab0e <__subtf3+0x58a>
   1aa3a: b3 66 c7 00  	or	a3, a4, a2
   1aa3e: b3 ee a8 00  	or	t4, a7, a0
   1aa42: 63 17 08 06  	bnez	a6, 0x1aab0 <__subtf3+0x52c>
   1aa46: 63 92 0e 02  	bnez	t4, 0x1aa6a <__subtf3+0x4e6>
   1aa4a: 63 99 06 2e  	bnez	a3, 0x1ad3c <__subtf3+0x7b8>
   1aa4e: 13 89 e4 ff  	addi	s2, s1, -0x2
   1aa52: 13 39 19 00  	seqz	s2, s2
   1aa56: 81 48        	li	a7, 0x0
   1aa58: 01 46        	li	a2, 0x0
   1aa5a: 33 e5 c8 00  	or	a0, a7, a2
   1aa5e: 63 16 05 18  	bnez	a0, 0x1abea <__subtf3+0x666>
   1aa62: 81 48        	li	a7, 0x0
   1aa64: 81 49        	li	s3, 0x0
   1aa66: 81 47        	li	a5, 0x0
   1aa68: 0d a4        	j	0x1ac8a <__subtf3+0x706>
   1aa6a: 63 8b 06 2c  	beqz	a3, 0x1ad40 <__subtf3+0x7bc>
   1aa6e: b3 06 c5 40  	sub	a3, a0, a2
   1aa72: 33 38 d5 00  	sltu	a6, a0, a3
   1aa76: b3 87 e8 40  	sub	a5, a7, a4
   1aa7a: b3 87 07 41  	sub	a5, a5, a6
   1aa7e: 13 98 c7 00  	slli	a6, a5, 0xc
   1aa82: 63 5d 08 00  	bgez	a6, 0x1aa9c <__subtf3+0x518>
   1aa86: 33 05 a6 40  	sub	a0, a2, a0
   1aa8a: b3 37 a6 00  	sltu	a5, a2, a0
   1aa8e: 33 07 17 41  	sub	a4, a4, a7
   1aa92: 2a 86        	mv	a2, a0
   1aa94: b3 08 f7 40  	sub	a7, a4, a5
   1aa98: 2e 89        	mv	s2, a1
   1aa9a: c1 b7        	j	0x1aa5a <__subtf3+0x4d6>
   1aa9c: 33 e6 f6 00  	or	a2, a3, a5
   1aaa0: 63 12 06 2a  	bnez	a2, 0x1ad44 <__subtf3+0x7c0>
   1aaa4: 13 89 e4 ff  	addi	s2, s1, -0x2
   1aaa8: 13 39 19 00  	seqz	s2, s2
   1aaac: 81 48        	li	a7, 0x0
   1aaae: 75 b7        	j	0x1aa5a <__subtf3+0x4d6>
   1aab0: 63 19 c8 03  	bne	a6, t3, 0x1aae2 <__subtf3+0x55e>
   1aab4: 63 8b 0e 28  	beqz	t4, 0x1ad4a <__subtf3+0x7c6>
   1aab8: 93 d7 28 03  	srli	a5, a7, 0x32
   1aabc: 93 c7 17 00  	xori	a5, a5, 0x1
   1aac0: 85 8b        	andi	a5, a5, 0x1
   1aac2: 92 07        	slli	a5, a5, 0x4
   1aac4: 63 1e 03 03  	bne	t1, a6, 0x1ab00 <__subtf3+0x57c>
   1aac8: 99 ce        	beqz	a3, 0x1aae6 <__subtf3+0x562>
   1aaca: 05 48        	li	a6, 0x1
   1aacc: 13 13 d7 00  	slli	t1, a4, 0xd
   1aad0: 4a 18        	slli	a6, a6, 0x32
   1aad2: 63 4a 03 00  	bltz	t1, 0x1aae6 <__subtf3+0x562>
   1aad6: 2e 89        	mv	s2, a1
   1aad8: 63 80 0e 02  	beqz	t4, 0x1aaf8 <__subtf3+0x574>
   1aadc: 01 49        	li	s2, 0x0
   1aade: 42 87        	mv	a4, a6
   1aae0: 19 a8        	j	0x1aaf6 <__subtf3+0x572>
   1aae2: e3 03 c3 ff  	beq	t1, t3, 0x1aac8 <__subtf3+0x544>
   1aae6: 63 9d 0e 00  	bnez	t4, 0x1ab00 <__subtf3+0x57c>
   1aaea: 2e 89        	mv	s2, a1
   1aaec: e3 92 06 d4  	bnez	a3, 0x1a830 <__subtf3+0x2ac>
   1aaf0: 05 47        	li	a4, 0x1
   1aaf2: 01 49        	li	s2, 0x0
   1aaf4: 4a 17        	slli	a4, a4, 0x32
   1aaf6: 01 46        	li	a2, 0x0
   1aaf8: a1 69        	lui	s3, 0x8
   1aafa: fd 19        	addi	s3, s3, -0x1
   1aafc: c1 47        	li	a5, 0x10
   1aafe: 29 b1        	j	0x1a708 <__subtf3+0x184>
   1ab00: e3 86 06 d2  	beqz	a3, 0x1a82c <__subtf3+0x2a8>
   1ab04: 05 47        	li	a4, 0x1
   1ab06: 01 49        	li	s2, 0x0
   1ab08: 4a 17        	slli	a4, a4, 0x32
   1ab0a: 01 46        	li	a2, 0x0
   1ab0c: 15 b3        	j	0x1a830 <__subtf3+0x2ac>
   1ab0e: b3 07 c5 40  	sub	a5, a0, a2
   1ab12: b3 36 f5 00  	sltu	a3, a0, a5
   1ab16: 33 84 e8 40  	sub	s0, a7, a4
   1ab1a: 15 8c        	sub	s0, s0, a3
   1ab1c: 93 16 c4 00  	slli	a3, s0, 0xc
   1ab20: 3e 8a        	mv	s4, a5
   1ab22: 63 d5 06 06  	bgez	a3, 0x1ab8c <__subtf3+0x608>
   1ab26: 33 0a a6 40  	sub	s4, a2, a0
   1ab2a: 33 04 17 41  	sub	s0, a4, a7
   1ab2e: 33 36 46 01  	sltu	a2, a2, s4
   1ab32: 11 8c        	sub	s0, s0, a2
   1ab34: 2e 89        	mv	s2, a1
   1ab36: 39 cc        	beqz	s0, 0x1ab94 <__subtf3+0x610>
   1ab38: 22 85        	mv	a0, s0
   1ab3a: ef 00 80 4c  	jal	0x1b002 <__clzdi2>
   1ab3e: 1b 06 45 ff  	addiw	a2, a0, -0xc
   1ab42: 13 07 00 04  	li	a4, 0x40
   1ab46: 11 9f        	subw	a4, a4, a2
   1ab48: 33 14 c4 00  	sll	s0, s0, a2
   1ab4c: 33 57 ea 00  	srl	a4, s4, a4
   1ab50: 41 8f        	or	a4, a4, s0
   1ab52: 33 14 ca 00  	sll	s0, s4, a2
   1ab56: 63 41 36 09  	blt	a2, s3, 0x1abd8 <__subtf3+0x654>
   1ab5a: 3b 06 36 41  	subw	a2, a2, s3
   1ab5e: 9b 08 16 00  	addiw	a7, a2, 0x1
   1ab62: 93 07 f0 03  	li	a5, 0x3f
   1ab66: 63 c5 17 05  	blt	a5, a7, 0x1abb0 <__subtf3+0x62c>
   1ab6a: 93 07 00 04  	li	a5, 0x40
   1ab6e: bb 87 17 41  	subw	a5, a5, a7
   1ab72: 33 16 f7 00  	sll	a2, a4, a5
   1ab76: b3 56 14 01  	srl	a3, s0, a7
   1ab7a: b3 17 f4 00  	sll	a5, s0, a5
   1ab7e: 55 8e        	or	a2, a2, a3
   1ab80: b3 37 f0 00  	snez	a5, a5
   1ab84: 5d 8e        	or	a2, a2, a5
   1ab86: b3 58 17 01  	srl	a7, a4, a7
   1ab8a: c1 bd        	j	0x1aa5a <__subtf3+0x4d6>
   1ab8c: 33 e6 87 00  	or	a2, a5, s0
   1ab90: 5d f2        	bnez	a2, 0x1ab36 <__subtf3+0x5b2>
   1ab92: 09 bf        	j	0x1aaa4 <__subtf3+0x520>
   1ab94: 52 85        	mv	a0, s4
   1ab96: ef 00 c0 46  	jal	0x1b002 <__clzdi2>
   1ab9a: 1b 06 45 03  	addiw	a2, a0, 0x34
   1ab9e: 93 07 f0 03  	li	a5, 0x3f
   1aba2: e3 d0 c7 fa  	bge	a5, a2, 0x1ab42 <__subtf3+0x5be>
   1aba6: 1b 07 45 ff  	addiw	a4, a0, -0xc
   1abaa: 33 17 ea 00  	sll	a4, s4, a4
   1abae: 65 b7        	j	0x1ab56 <__subtf3+0x5d2>
   1abb0: 1b 06 16 fc  	addiw	a2, a2, -0x3f
   1abb4: 93 05 00 04  	li	a1, 0x40
   1abb8: 33 56 c7 00  	srl	a2, a4, a2
   1abbc: 81 47        	li	a5, 0x0
   1abbe: 63 88 b8 00  	beq	a7, a1, 0x1abce <__subtf3+0x64a>
   1abc2: 93 07 00 08  	li	a5, 0x80
   1abc6: bb 87 17 41  	subw	a5, a5, a7
   1abca: b3 17 f7 00  	sll	a5, a4, a5
   1abce: c1 8f        	or	a5, a5, s0
   1abd0: b3 37 f0 00  	snez	a5, a5
   1abd4: 5d 8e        	or	a2, a2, a5
   1abd6: d9 bd        	j	0x1aaac <__subtf3+0x528>
   1abd8: fd 57        	li	a5, -0x1
   1abda: ce 17        	slli	a5, a5, 0x33
   1abdc: fd 17        	addi	a5, a5, -0x1
   1abde: b3 89 c9 40  	sub	s3, s3, a2
   1abe2: 7d 8f        	and	a4, a4, a5
   1abe4: 22 86        	mv	a2, s0
   1abe6: 81 47        	li	a5, 0x0
   1abe8: 05 b6        	j	0x1a708 <__subtf3+0x184>
   1abea: 93 16 16 00  	slli	a3, a2, 0x1
   1abee: 93 57 f6 03  	srli	a5, a2, 0x3f
   1abf2: 13 97 18 00  	slli	a4, a7, 0x1
   1abf6: 93 f5 76 00  	andi	a1, a3, 0x7
   1abfa: 3e 97        	add	a4, a4, a5
   1abfc: 81 47        	li	a5, 0x0
   1abfe: 85 c1        	beqz	a1, 0x1ac1e <__subtf3+0x69a>
   1ac00: 89 47        	li	a5, 0x2
   1ac02: 63 84 f4 06  	beq	s1, a5, 0x1ac6a <__subtf3+0x6e6>
   1ac06: 8d 47        	li	a5, 0x3
   1ac08: 63 88 f4 04  	beq	s1, a5, 0x1ac58 <__subtf3+0x6d4>
   1ac0c: 85 47        	li	a5, 0x1
   1ac0e: 81 e8        	bnez	s1, 0x1ac1e <__subtf3+0x69a>
   1ac10: 93 f5 f6 00  	andi	a1, a3, 0xf
   1ac14: 11 45        	li	a0, 0x4
   1ac16: 93 b6 c6 ff  	sltiu	a3, a3, -0x4
   1ac1a: 63 94 a5 04  	bne	a1, a0, 0x1ac62 <__subtf3+0x6de>
   1ac1e: 51 93        	srli	a4, a4, 0x34
   1ac20: 13 47 17 00  	xori	a4, a4, 0x1
   1ac24: 05 8b        	andi	a4, a4, 0x1
   1ac26: 32 85        	mv	a0, a2
   1ac28: 81 49        	li	s3, 0x0
   1ac2a: 93 76 76 00  	andi	a3, a2, 0x7
   1ac2e: a9 ca        	beqz	a3, 0x1ac80 <__subtf3+0x6fc>
   1ac30: 89 46        	li	a3, 0x2
   1ac32: 93 e7 17 00  	ori	a5, a5, 0x1
   1ac36: 63 83 d4 04  	beq	s1, a3, 0x1ac7c <__subtf3+0x6f8>
   1ac3a: 8d 46        	li	a3, 0x3
   1ac3c: 63 8b d4 02  	beq	s1, a3, 0x1ac72 <__subtf3+0x6ee>
   1ac40: a1 e0        	bnez	s1, 0x1ac80 <__subtf3+0x6fc>
   1ac42: 93 76 f6 00  	andi	a3, a2, 0xf
   1ac46: 91 45        	li	a1, 0x4
   1ac48: 63 8c b6 02  	beq	a3, a1, 0x1ac80 <__subtf3+0x6fc>
   1ac4c: 13 05 46 00  	addi	a0, a2, 0x4
   1ac50: 33 36 c5 00  	sltu	a2, a0, a2
   1ac54: b2 98        	add	a7, a7, a2
   1ac56: 2d a0        	j	0x1ac80 <__subtf3+0x6fc>
   1ac58: 85 47        	li	a5, 0x1
   1ac5a: e3 12 09 fc  	bnez	s2, 0x1ac1e <__subtf3+0x69a>
   1ac5e: 93 b6 86 ff  	sltiu	a3, a3, -0x8
   1ac62: 93 c6 16 00  	xori	a3, a3, 0x1
   1ac66: 36 97        	add	a4, a4, a3
   1ac68: 5d bf        	j	0x1ac1e <__subtf3+0x69a>
   1ac6a: 85 47        	li	a5, 0x1
   1ac6c: e3 09 09 fa  	beqz	s2, 0x1ac1e <__subtf3+0x69a>
   1ac70: fd b7        	j	0x1ac5e <__subtf3+0x6da>
   1ac72: 63 17 09 00  	bnez	s2, 0x1ac80 <__subtf3+0x6fc>
   1ac76: 13 05 86 00  	addi	a0, a2, 0x8
   1ac7a: d9 bf        	j	0x1ac50 <__subtf3+0x6cc>
   1ac7c: e3 1d 09 fe  	bnez	s2, 0x1ac76 <__subtf3+0x6f2>
   1ac80: 09 c7        	beqz	a4, 0x1ac8a <__subtf3+0x706>
   1ac82: 13 f7 17 00  	andi	a4, a5, 0x1
   1ac86: 06 07        	slli	a4, a4, 0x1
   1ac88: d9 8f        	or	a5, a5, a4
   1ac8a: 13 97 c8 00  	slli	a4, a7, 0xc
   1ac8e: 63 5c 07 00  	bgez	a4, 0x1aca6 <__subtf3+0x722>
   1ac92: 21 67        	lui	a4, 0x8
   1ac94: 85 09        	addi	s3, s3, 0x1
   1ac96: 7d 17        	addi	a4, a4, -0x1
   1ac98: 63 81 e9 06  	beq	s3, a4, 0x1acfa <__subtf3+0x776>
   1ac9c: 7d 57        	li	a4, -0x1
   1ac9e: 4e 17        	slli	a4, a4, 0x33
   1aca0: 7d 17        	addi	a4, a4, -0x1
   1aca2: b3 f8 e8 00  	and	a7, a7, a4
   1aca6: 13 97 d8 03  	slli	a4, a7, 0x3d
   1acaa: 0d 81        	srli	a0, a0, 0x3
   1acac: 59 8d        	or	a0, a0, a4
   1acae: 21 67        	lui	a4, 0x8
   1acb0: 7d 17        	addi	a4, a4, -0x1
   1acb2: 93 d8 38 00  	srli	a7, a7, 0x3
   1acb6: 63 9a e9 00  	bne	s3, a4, 0x1acca <__subtf3+0x746>
   1acba: 33 65 15 01  	or	a0, a0, a7
   1acbe: 81 48        	li	a7, 0x0
   1acc0: 09 c5        	beqz	a0, 0x1acca <__subtf3+0x746>
   1acc2: 85 48        	li	a7, 0x1
   1acc4: be 18        	slli	a7, a7, 0x2f
   1acc6: 01 45        	li	a0, 0x0
   1acc8: 01 49        	li	s2, 0x0
   1acca: c6 19        	slli	s3, s3, 0x31
   1accc: 1b 19 f9 00  	slliw	s2, s2, 0xf
   1acd0: 93 d9 19 03  	srli	s3, s3, 0x31
   1acd4: 93 95 08 01  	slli	a1, a7, 0x10
   1acd8: b3 e9 29 01  	or	s3, s3, s2
   1acdc: c2 19        	slli	s3, s3, 0x30
   1acde: c1 81        	srli	a1, a1, 0x10
   1ace0: b3 e5 35 01  	or	a1, a1, s3
   1ace4: 99 c3        	beqz	a5, 0x1acea <__subtf3+0x766>
   1ace6: 73 a0 17 00  	csrs	fflags, a5
   1acea: a2 70        	ld	ra, 0x28(sp)
   1acec: 02 74        	ld	s0, 0x20(sp)
   1acee: e2 64        	ld	s1, 0x18(sp)
   1acf0: 42 69        	ld	s2, 0x10(sp)
   1acf2: a2 69        	ld	s3, 0x8(sp)
   1acf4: 02 6a        	ld	s4, 0x0(sp)
   1acf6: 45 61        	addi	sp, sp, 0x30
   1acf8: 82 80        	ret
   1acfa: 01 45        	li	a0, 0x0
   1acfc: 99 cc        	beqz	s1, 0x1ad1a <__subtf3+0x796>
   1acfe: 0d 47        	li	a4, 0x3
   1ad00: 63 98 e4 00  	bne	s1, a4, 0x1ad10 <__subtf3+0x78c>
   1ad04: 63 0b 09 00  	beqz	s2, 0x1ad1a <__subtf3+0x796>
   1ad08: a1 69        	lui	s3, 0x8
   1ad0a: 7d 55        	li	a0, -0x1
   1ad0c: f9 19        	addi	s3, s3, -0x2
   1ad0e: 31 a0        	j	0x1ad1a <__subtf3+0x796>
   1ad10: 09 47        	li	a4, 0x2
   1ad12: e3 9b e4 fe  	bne	s1, a4, 0x1ad08 <__subtf3+0x784>
   1ad16: e3 09 09 fe  	beqz	s2, 0x1ad08 <__subtf3+0x784>
   1ad1a: 93 e7 57 00  	ori	a5, a5, 0x5
   1ad1e: aa 88        	mv	a7, a0
   1ad20: 59 b7        	j	0x1aca6 <__subtf3+0x722>
   1ad22: 01 47        	li	a4, 0x0
   1ad24: 01 46        	li	a2, 0x0
   1ad26: 9a 89        	mv	s3, t1
   1ad28: 7d bd        	j	0x1abe6 <__subtf3+0x662>
   1ad2a: 01 47        	li	a4, 0x0
   1ad2c: 6d bd        	j	0x1abe6 <__subtf3+0x662>
   1ad2e: 01 47        	li	a4, 0x0
   1ad30: 01 46        	li	a2, 0x0
   1ad32: 9a 89        	mv	s3, t1
   1ad34: 2e 89        	mv	s2, a1
   1ad36: 45 bd        	j	0x1abe6 <__subtf3+0x662>
   1ad38: ba 88        	mv	a7, a4
   1ad3a: 05 b3        	j	0x1aa5a <__subtf3+0x4d6>
   1ad3c: ba 88        	mv	a7, a4
   1ad3e: a9 bb        	j	0x1aa98 <__subtf3+0x514>
   1ad40: 2a 86        	mv	a2, a0
   1ad42: 21 bb        	j	0x1aa5a <__subtf3+0x4d6>
   1ad44: be 88        	mv	a7, a5
   1ad46: 36 86        	mv	a2, a3
   1ad48: 09 bb        	j	0x1aa5a <__subtf3+0x4d6>
   1ad4a: e3 10 03 db  	bne	t1, a6, 0x1aaea <__subtf3+0x566>
   1ad4e: ad bb        	j	0x1aac8 <__subtf3+0x544>
   1ad50: e3 1c 03 9b  	bne	t1, a6, 0x1a708 <__subtf3+0x184>
   1ad54: 6d bc        	j	0x1a80e <__subtf3+0x28a>

000000000001ad56 <__unordtf2>:
   1ad56: 2a 87        	mv	a4, a0
   1ad58: f3 27 20 00  	frrm	a5
   1ad5c: 7d 55        	li	a0, -0x1
   1ad5e: 93 57 05 01  	srli	a5, a0, 0x10
   1ad62: 21 68        	lui	a6, 0x8
   1ad64: b3 f8 f5 00  	and	a7, a1, a5
   1ad68: 7d 18        	addi	a6, a6, -0x1
   1ad6a: c1 91        	srli	a1, a1, 0x30
   1ad6c: f5 8f        	and	a5, a5, a3
   1ad6e: b3 f5 05 01  	and	a1, a1, a6
   1ad72: c1 92        	srli	a3, a3, 0x30
   1ad74: b3 f6 06 01  	and	a3, a3, a6
   1ad78: 63 96 05 01  	bne	a1, a6, 0x1ad84 <__unordtf2+0x2e>
   1ad7c: 33 63 17 01  	or	t1, a4, a7
   1ad80: 63 13 03 02  	bnez	t1, 0x1ada6 <__unordtf2+0x50>
   1ad84: 01 45        	li	a0, 0x0
   1ad86: 63 92 06 05  	bne	a3, a6, 0x1adca <__unordtf2+0x74>
   1ad8a: 33 68 f6 00  	or	a6, a2, a5
   1ad8e: 63 0e 08 02  	beqz	a6, 0x1adca <__unordtf2+0x74>
   1ad92: 63 93 d5 02  	bne	a1, a3, 0x1adb8 <__unordtf2+0x62>
   1ad96: 33 67 17 01  	or	a4, a4, a7
   1ad9a: 01 cf        	beqz	a4, 0x1adb2 <__unordtf2+0x5c>
   1ad9c: 7d 57        	li	a4, -0x1
   1ad9e: 45 83        	srli	a4, a4, 0x11
   1ada0: 63 71 17 03  	bgeu	a4, a7, 0x1adc2 <__unordtf2+0x6c>
   1ada4: 39 a0        	j	0x1adb2 <__unordtf2+0x5c>
   1ada6: 45 81        	srli	a0, a0, 0x11
   1ada8: 63 7d 15 01  	bgeu	a0, a7, 0x1adc2 <__unordtf2+0x6c>
   1adac: 05 45        	li	a0, 0x1
   1adae: 63 9e b6 00  	bne	a3, a1, 0x1adca <__unordtf2+0x74>
   1adb2: 5d 8e        	or	a2, a2, a5
   1adb4: 05 45        	li	a0, 0x1
   1adb6: 11 ca        	beqz	a2, 0x1adca <__unordtf2+0x74>
   1adb8: 7d 57        	li	a4, -0x1
   1adba: 45 83        	srli	a4, a4, 0x11
   1adbc: 05 45        	li	a0, 0x1
   1adbe: 63 66 f7 00  	bltu	a4, a5, 0x1adca <__unordtf2+0x74>
   1adc2: 73 60 18 00  	csrsi	fflags, 0x10
   1adc6: 05 45        	li	a0, 0x1
   1adc8: 82 80        	ret
   1adca: 82 80        	ret

000000000001adcc <__fixtfsi>:
   1adcc: f3 27 20 00  	frrm	a5
   1add0: 11 67        	lui	a4, 0x4
   1add2: 93 96 15 00  	slli	a3, a1, 0x1
   1add6: 93 97 05 01  	slli	a5, a1, 0x10
   1adda: c5 92        	srli	a3, a3, 0x31
   1addc: 79 17        	addi	a4, a4, -0x2
   1adde: c1 83        	srli	a5, a5, 0x10
   1ade0: fd 91        	srli	a1, a1, 0x3f
   1ade2: 63 47 d7 00  	blt	a4, a3, 0x1adf0 <__fixtfsi+0x24>
   1ade6: b1 ee        	bnez	a3, 0x1ae42 <__fixtfsi+0x76>
   1ade8: c9 8f        	or	a5, a5, a0
   1adea: 01 45        	li	a0, 0x0
   1adec: a9 eb        	bnez	a5, 0x1ae3e <__fixtfsi+0x72>
   1adee: 82 80        	ret
   1adf0: 11 67        	lui	a4, 0x4
   1adf2: 75 07        	addi	a4, a4, 0x1d
   1adf4: 63 50 d7 02  	bge	a4, a3, 0x1ae14 <__fixtfsi+0x48>
   1adf8: b9 c5        	beqz	a1, 0x1ae46 <__fixtfsi+0x7a>
   1adfa: 11 67        	lui	a4, 0x4
   1adfc: 79 07        	addi	a4, a4, 0x1e
   1adfe: 63 9c e6 04  	bne	a3, a4, 0x1ae56 <__fixtfsi+0x8a>
   1ae02: 13 d7 17 01  	srli	a4, a5, 0x11
   1ae06: 21 eb        	bnez	a4, 0x1ae56 <__fixtfsi+0x8a>
   1ae08: be 17        	slli	a5, a5, 0x2f
   1ae0a: 5d 8d        	or	a0, a0, a5
   1ae0c: 21 e9        	bnez	a0, 0x1ae5c <__fixtfsi+0x90>
   1ae0e: 37 05 00 80  	lui	a0, 0x80000
   1ae12: 82 80        	ret
   1ae14: 05 47        	li	a4, 0x1
   1ae16: 42 17        	slli	a4, a4, 0x30
   1ae18: d9 8f        	or	a5, a5, a4
   1ae1a: 11 66        	lui	a2, 0x4
   1ae1c: 71 77        	lui	a4, 0xffffc
   1ae1e: 45 27        	addiw	a4, a4, 0x11
   1ae20: 1b 06 f6 02  	addiw	a2, a2, 0x2f
   1ae24: 35 9f        	addw	a4, a4, a3
   1ae26: 15 9e        	subw	a2, a2, a3
   1ae28: 33 97 e7 00  	sll	a4, a5, a4
   1ae2c: b3 d7 c7 00  	srl	a5, a5, a2
   1ae30: 49 8f        	or	a4, a4, a0
   1ae32: 1b 85 07 00  	sext.w	a0, a5
   1ae36: 99 c1        	beqz	a1, 0x1ae3c <__fixtfsi+0x70>
   1ae38: 3b 05 a0 40  	negw	a0, a0
   1ae3c: 01 cf        	beqz	a4, 0x1ae54 <__fixtfsi+0x88>
   1ae3e: 85 47        	li	a5, 0x1
   1ae40: 01 a8        	j	0x1ae50 <__fixtfsi+0x84>
   1ae42: 01 45        	li	a0, 0x0
   1ae44: ed bf        	j	0x1ae3e <__fixtfsi+0x72>
   1ae46: 37 05 00 80  	lui	a0, 0x80000
   1ae4a: 13 45 f5 ff  	not	a0, a0
   1ae4e: c1 47        	li	a5, 0x10
   1ae50: 73 a0 17 00  	csrs	fflags, a5
   1ae54: 82 80        	ret
   1ae56: 37 05 00 80  	lui	a0, 0x80000
   1ae5a: d5 bf        	j	0x1ae4e <__fixtfsi+0x82>
   1ae5c: 37 05 00 80  	lui	a0, 0x80000
   1ae60: f9 bf        	j	0x1ae3e <__fixtfsi+0x72>

000000000001ae62 <__floatsitf>:
   1ae62: 01 11        	addi	sp, sp, -0x20
   1ae64: 06 ec        	sd	ra, 0x18(sp)
   1ae66: 22 e8        	sd	s0, 0x10(sp)
   1ae68: 26 e4        	sd	s1, 0x8(sp)
   1ae6a: 39 c1        	beqz	a0, 0x1aeb0 <__floatsitf+0x4e>
   1ae6c: 9b 07 05 00  	sext.w	a5, a0
   1ae70: 93 54 f5 03  	srli	s1, a0, 0x3f
   1ae74: 63 54 05 00  	bgez	a0, 0x1ae7c <__floatsitf+0x1a>
   1ae78: bb 07 f0 40  	negw	a5, a5
   1ae7c: 13 94 07 02  	slli	s0, a5, 0x20
   1ae80: 01 90        	srli	s0, s0, 0x20
   1ae82: 22 85        	mv	a0, s0
   1ae84: ef 00 e0 17  	jal	0x1b002 <__clzdi2>
   1ae88: 91 65        	lui	a1, 0x4
   1ae8a: 9b 85 e5 03  	addiw	a1, a1, 0x3e
   1ae8e: 89 9d        	subw	a1, a1, a0
   1ae90: 45 35        	addiw	a0, a0, -0xf
   1ae92: b3 17 a4 00  	sll	a5, s0, a0
   1ae96: e2 60        	ld	ra, 0x18(sp)
   1ae98: 42 64        	ld	s0, 0x10(sp)
   1ae9a: 9b 94 f4 00  	slliw	s1, s1, 0xf
   1ae9e: c5 8d        	or	a1, a1, s1
   1aea0: c2 07        	slli	a5, a5, 0x10
   1aea2: c2 15        	slli	a1, a1, 0x30
   1aea4: c1 83        	srli	a5, a5, 0x10
   1aea6: a2 64        	ld	s1, 0x8(sp)
   1aea8: 01 45        	li	a0, 0x0
   1aeaa: dd 8d        	or	a1, a1, a5
   1aeac: 05 61        	addi	sp, sp, 0x20
   1aeae: 82 80        	ret
   1aeb0: 81 47        	li	a5, 0x0
   1aeb2: 81 45        	li	a1, 0x0
   1aeb4: 81 44        	li	s1, 0x0
   1aeb6: c5 b7        	j	0x1ae96 <__floatsitf+0x34>

000000000001aeb8 <__extenddftf2>:
   1aeb8: 01 11        	addi	sp, sp, -0x20
   1aeba: d3 07 05 e2  	fmv.x.d	a5, fa0
   1aebe: 06 ec        	sd	ra, 0x18(sp)
   1aec0: 22 e8        	sd	s0, 0x10(sp)
   1aec2: 26 e4        	sd	s1, 0x8(sp)
   1aec4: 73 27 20 00  	frrm	a4
   1aec8: 13 d5 47 03  	srli	a0, a5, 0x34
   1aecc: 13 75 f5 7f  	andi	a0, a0, 0x7ff
   1aed0: 13 94 c7 00  	slli	s0, a5, 0xc
   1aed4: 93 d4 f7 03  	srli	s1, a5, 0x3f
   1aed8: 93 07 15 00  	addi	a5, a0, 0x1
   1aedc: 93 f7 e7 7f  	andi	a5, a5, 0x7fe
   1aee0: 31 80        	srli	s0, s0, 0xc
   1aee2: 91 cb        	beqz	a5, 0x1aef6 <__extenddftf2+0x3e>
   1aee4: 91 67        	lui	a5, 0x4
   1aee6: 93 87 07 c0  	addi	a5, a5, -0x400
   1aeea: 93 55 44 00  	srli	a1, s0, 0x4
   1aeee: 3e 95        	add	a0, a0, a5
   1aef0: 72 14        	slli	s0, s0, 0x3c
   1aef2: 81 47        	li	a5, 0x0
   1aef4: b1 a8        	j	0x1af50 <__extenddftf2+0x98>
   1aef6: 1d ed        	bnez	a0, 0x1af34 <__extenddftf2+0x7c>
   1aef8: 81 45        	li	a1, 0x0
   1aefa: 65 dc        	beqz	s0, 0x1aef2 <__extenddftf2+0x3a>
   1aefc: 22 85        	mv	a0, s0
   1aefe: ef 00 40 10  	jal	0x1b002 <__clzdi2>
   1af02: 1b 07 05 00  	sext.w	a4, a0
   1af06: b9 47        	li	a5, 0xe
   1af08: 63 c0 e7 02  	blt	a5, a4, 0x1af28 <__extenddftf2+0x70>
   1af0c: bd 45        	li	a1, 0xf
   1af0e: 89 9d        	subw	a1, a1, a0
   1af10: 9b 07 15 03  	addiw	a5, a0, 0x31
   1af14: b3 55 b4 00  	srl	a1, s0, a1
   1af18: 33 14 f4 00  	sll	s0, s0, a5
   1af1c: 91 67        	lui	a5, 0x4
   1af1e: 9b 87 c7 c0  	addiw	a5, a5, -0x3f4
   1af22: 3b 85 a7 40  	subw	a0, a5, a0
   1af26: f1 b7        	j	0x1aef2 <__extenddftf2+0x3a>
   1af28: 9b 05 15 ff  	addiw	a1, a0, -0xf
   1af2c: b3 15 b4 00  	sll	a1, s0, a1
   1af30: 01 44        	li	s0, 0x0
   1af32: ed b7        	j	0x1af1c <__extenddftf2+0x64>
   1af34: 15 cc        	beqz	s0, 0x1af70 <__extenddftf2+0xb8>
   1af36: 85 47        	li	a5, 0x1
   1af38: ce 17        	slli	a5, a5, 0x33
   1af3a: 05 47        	li	a4, 0x1
   1af3c: b3 37 f4 00  	sltu	a5, s0, a5
   1af40: 93 55 44 00  	srli	a1, s0, 0x4
   1af44: 3e 17        	slli	a4, a4, 0x2f
   1af46: 21 65        	lui	a0, 0x8
   1af48: 92 07        	slli	a5, a5, 0x4
   1af4a: 72 14        	slli	s0, s0, 0x3c
   1af4c: d9 8d        	or	a1, a1, a4
   1af4e: 7d 15        	addi	a0, a0, -0x1
   1af50: 9b 94 f4 00  	slliw	s1, s1, 0xf
   1af54: c2 05        	slli	a1, a1, 0x10
   1af56: 45 8d        	or	a0, a0, s1
   1af58: 42 15        	slli	a0, a0, 0x30
   1af5a: c1 81        	srli	a1, a1, 0x10
   1af5c: c9 8d        	or	a1, a1, a0
   1af5e: 99 c3        	beqz	a5, 0x1af64 <__extenddftf2+0xac>
   1af60: 73 60 18 00  	csrsi	fflags, 0x10
   1af64: e2 60        	ld	ra, 0x18(sp)
   1af66: 22 85        	mv	a0, s0
   1af68: 42 64        	ld	s0, 0x10(sp)
   1af6a: a2 64        	ld	s1, 0x8(sp)
   1af6c: 05 61        	addi	sp, sp, 0x20
   1af6e: 82 80        	ret
   1af70: 21 65        	lui	a0, 0x8
   1af72: 81 45        	li	a1, 0x0
   1af74: 7d 15        	addi	a0, a0, -0x1
   1af76: b5 bf        	j	0x1aef2 <__extenddftf2+0x3a>

000000000001af78 <__riscv_save_12>:
   1af78: 59 71        	addi	sp, sp, -0x70
   1af7a: 01 43        	li	t1, 0x0
   1af7c: 6e e4        	sd	s11, 0x8(sp)
   1af7e: 19 a0        	j	0x1af84 <__riscv_save_11+0x4>

000000000001af80 <__riscv_save_11>:
   1af80: 59 71        	addi	sp, sp, -0x70
   1af82: 05 43        	li	t1, 0x1
   1af84: 6a e8        	sd	s10, 0x10(sp)
   1af86: 66 ec        	sd	s9, 0x18(sp)
   1af88: 19 a0        	j	0x1af8e <__riscv_save_9+0x4>

000000000001af8a <__riscv_save_9>:
   1af8a: 59 71        	addi	sp, sp, -0x70
   1af8c: 09 43        	li	t1, 0x2
   1af8e: 62 f0        	sd	s8, 0x20(sp)
   1af90: 5e f4        	sd	s7, 0x28(sp)
   1af92: 19 a0        	j	0x1af98 <__riscv_save_7+0x4>

000000000001af94 <__riscv_save_7>:
   1af94: 59 71        	addi	sp, sp, -0x70
   1af96: 0d 43        	li	t1, 0x3
   1af98: 5a f8        	sd	s6, 0x30(sp)
   1af9a: 56 fc        	sd	s5, 0x38(sp)
   1af9c: 19 a0        	j	0x1afa2 <__riscv_save_5+0x4>

000000000001af9e <__riscv_save_5>:
   1af9e: 59 71        	addi	sp, sp, -0x70
   1afa0: 11 43        	li	t1, 0x4
   1afa2: d2 e0        	sd	s4, 0x40(sp)
   1afa4: ce e4        	sd	s3, 0x48(sp)
   1afa6: 19 a0        	j	0x1afac <__riscv_save_3+0x4>

000000000001afa8 <__riscv_save_3>:
   1afa8: 59 71        	addi	sp, sp, -0x70
   1afaa: 15 43        	li	t1, 0x5
   1afac: ca e8        	sd	s2, 0x50(sp)
   1afae: a6 ec        	sd	s1, 0x58(sp)
   1afb0: a2 f0        	sd	s0, 0x60(sp)
   1afb2: 86 f4        	sd	ra, 0x68(sp)
   1afb4: 12 03        	slli	t1, t1, 0x4
   1afb6: 1a 91        	add	sp, sp, t1
   1afb8: 82 82        	jr	t0

000000000001afba <__riscv_save_1>:
   1afba: 41 11        	addi	sp, sp, -0x10
   1afbc: 22 e0        	sd	s0, 0x0(sp)
   1afbe: 06 e4        	sd	ra, 0x8(sp)
   1afc0: 82 82        	jr	t0

000000000001afc2 <__riscv_restore_12>:
   1afc2: a2 6d        	ld	s11, 0x8(sp)
   1afc4: 41 01        	addi	sp, sp, 0x10

000000000001afc6 <__riscv_restore_11>:
   1afc6: 02 6d        	ld	s10, 0x0(sp)
   1afc8: a2 6c        	ld	s9, 0x8(sp)
   1afca: 41 01        	addi	sp, sp, 0x10

000000000001afcc <__riscv_restore_9>:
   1afcc: 02 6c        	ld	s8, 0x0(sp)
   1afce: a2 6b        	ld	s7, 0x8(sp)
   1afd0: 41 01        	addi	sp, sp, 0x10

000000000001afd2 <__riscv_restore_7>:
   1afd2: 02 6b        	ld	s6, 0x0(sp)
   1afd4: a2 6a        	ld	s5, 0x8(sp)
   1afd6: 41 01        	addi	sp, sp, 0x10

000000000001afd8 <__riscv_restore_5>:
   1afd8: 02 6a        	ld	s4, 0x0(sp)
   1afda: a2 69        	ld	s3, 0x8(sp)
   1afdc: 41 01        	addi	sp, sp, 0x10

000000000001afde <__riscv_restore_3>:
   1afde: 02 69        	ld	s2, 0x0(sp)
   1afe0: a2 64        	ld	s1, 0x8(sp)
   1afe2: 41 01        	addi	sp, sp, 0x10

000000000001afe4 <__riscv_restore_1>:
   1afe4: 02 64        	ld	s0, 0x0(sp)
   1afe6: a2 60        	ld	ra, 0x8(sp)
   1afe8: 41 01        	addi	sp, sp, 0x10
   1afea: 82 80        	ret

000000000001afec <__muldi3>:
   1afec: 2a 86        	mv	a2, a0
   1afee: 01 45        	li	a0, 0x0
   1aff0: 93 f6 15 00  	andi	a3, a1, 0x1
   1aff4: 91 c2        	beqz	a3, 0x1aff8 <__muldi3+0xc>
   1aff6: 32 95        	add	a0, a0, a2
   1aff8: 85 81        	srli	a1, a1, 0x1
   1affa: 06 06        	slli	a2, a2, 0x1
   1affc: f5 f9        	bnez	a1, 0x1aff0 <__muldi3+0x4>
   1affe: 82 80        	ret
   1b000: 00 00        	unimp

000000000001b002 <__clzdi2>:
   1b002: 93 57 85 03  	srli	a5, a0, 0x38
   1b006: 85 eb        	bnez	a5, 0x1b036 <__clzdi2+0x34>
   1b008: 93 07 80 03  	li	a5, 0x38
   1b00c: e1 17        	addi	a5, a5, -0x8
   1b00e: 91 c7        	beqz	a5, 0x1b01a <__clzdi2+0x18>
   1b010: 33 57 f5 00  	srl	a4, a0, a5
   1b014: 13 77 f7 0f  	andi	a4, a4, 0xff
   1b018: 75 db        	beqz	a4, 0x1b00c <__clzdi2+0xa>
   1b01a: 71 67        	lui	a4, 0x1c
   1b01c: 93 06 00 04  	li	a3, 0x40
   1b020: 9d 8e        	sub	a3, a3, a5
   1b022: 33 55 f5 00  	srl	a0, a0, a5
   1b026: 93 07 07 a2  	addi	a5, a4, -0x5e0
   1b02a: aa 97        	add	a5, a5, a0
   1b02c: 03 c5 07 00  	lbu	a0, 0x0(a5)
   1b030: 3b 85 a6 40  	subw	a0, a3, a0
   1b034: 82 80        	ret
   1b036: 93 07 80 03  	li	a5, 0x38
   1b03a: c5 b7        	j	0x1b01a <__clzdi2+0x18>
