00000000000101dc <set_key>:
   101dc: ef c2 f0 3a  	jal	t0, 0x1cd8a <__riscv_save_3>
   101e0: 13 f7 75 00  	andi	a4, a1, 0x7
   101e4: 63 10 07 04  	bne	a4, zero, 0x10224 <set_key+0x48>
   101e8: 13 87 f5 fd  	addi	a4, a1, -0x21
   101ec: 93 07 f0 fe  	addi	a5, zero, -0x11
   101f0: 63 6a f7 02  	bltu	a4, a5, 0x10224 <set_key+0x48>
   101f4: 13 76 36 00  	andi	a2, a2, 0x3
   101f8: 63 08 06 02  	beq	a2, zero, 0x10228 <set_key+0x4c>
   101fc: 03 c7 06 41  	lbu	a4, 0x410(a3)
   10200: 13 77 c7 0f  	andi	a4, a4, 0xfc
   10204: 33 67 c7 00  	or	a4, a4, a2
   10208: 23 88 e6 40  	sb	a4, 0x410(a3)
   1020c: 93 d7 25 00  	srli	a5, a1, 0x2
   10210: 13 07 30 01  	addi	a4, zero, 0x13
   10214: 23 b0 f6 00  	sd	a5, 0x0(a3)
   10218: 63 68 b7 02  	bltu	a4, a1, 0x10248 <set_key+0x6c>
   1021c: 13 07 a0 00  	addi	a4, zero, 0xa
   10220: 6f 00 c0 02  	jal	zero, 0x1024c <set_key+0x70>
   10224: 63 8c 05 00  	beq	a1, zero, 0x1023c <set_key+0x60>
   10228: 83 c5 06 41  	lbu	a1, 0x410(a3)
   1022c: 13 05 00 00  	addi	a0, zero, 0x0
   10230: 93 f5 c5 0f  	andi	a1, a1, 0xfc
   10234: 23 88 b6 40  	sb	a1, 0x410(a3)
   10238: 6f 00 40 56  	jal	zero, 0x1079c <set_key+0x5c0>
   1023c: 03 95 06 00  	lh	a0, 0x0(a3)
   10240: 13 15 25 00  	slli	a0, a0, 0x2
   10244: 6f 00 80 55  	jal	zero, 0x1079c <set_key+0x5c0>
   10248: 13 87 67 00  	addi	a4, a5, 0x6
   1024c: 23 b4 e6 00  	sd	a4, 0x8(a3)
   10250: 83 35 05 00  	ld	a1, 0x0(a0)
   10254: 23 b8 b6 00  	sd	a1, 0x10(a3)
   10258: 03 38 45 00  	ld	a6, 0x4(a0)
   1025c: 23 bc 06 01  	sd	a6, 0x18(a3)
   10260: 03 38 85 00  	ld	a6, 0x8(a0)
   10264: 23 b0 06 03  	sd	a6, 0x20(a3)
   10268: 03 38 c5 00  	ld	a6, 0xc(a0)
   1026c: 93 88 06 01  	addi	a7, a3, 0x10
   10270: 23 b4 06 03  	sd	a6, 0x28(a3)
   10274: 13 17 57 00  	slli	a4, a4, 0x5
   10278: 33 87 e8 00  	add	a4, a7, a4
   1027c: 13 98 37 00  	slli	a6, a5, 0x3
   10280: 33 07 07 41  	sub	a4, a4, a6
   10284: 13 08 80 00  	addi	a6, zero, 0x8
   10288: 13 07 07 02  	addi	a4, a4, 0x20
   1028c: 63 8a 07 1b  	beq	a5, a6, 0x10440 <set_key+0x264>
   10290: 13 08 60 00  	addi	a6, zero, 0x6
   10294: 63 84 07 0d  	beq	a5, a6, 0x1035c <set_key+0x180>
   10298: 13 05 40 00  	addi	a0, zero, 0x4
   1029c: 63 90 a7 30  	bne	a5, a0, 0x1059c <set_key+0x3c0>
   102a0: 37 d5 01 00  	lui	a0, 0x1d
   102a4: 13 05 85 02  	addi	a0, a0, 0x28
   102a8: 13 88 86 02  	addi	a6, a3, 0x28
   102ac: b7 17 02 00  	lui	a5, 0x21
   102b0: 93 87 07 11  	addi	a5, a5, 0x110
   102b4: b7 18 00 00  	lui	a7, 0x1
   102b8: b7 22 00 00  	lui	t0, 0x2
   102bc: 03 33 08 00  	ld	t1, 0x0(a6)
   102c0: 93 53 53 00  	srli	t2, t1, 0x5
   102c4: 93 f3 83 7f  	andi	t2, t2, 0x7f8
   102c8: b3 83 77 00  	add	t2, a5, t2
   102cc: 83 b3 03 00  	ld	t2, 0x0(t2)
   102d0: 13 5e d3 00  	srli	t3, t1, 0xd
   102d4: 13 7e 8e 7f  	andi	t3, t3, 0x7f8
   102d8: 33 8e c7 01  	add	t3, a5, t3
   102dc: 13 0e fe 7f  	addi	t3, t3, 0x7ff
   102e0: 03 3e 1e 00  	ld	t3, 0x1(t3)
   102e4: 9b 5e 83 01  	srliw	t4, t1, 0x18
   102e8: 93 9e 3e 00  	slli	t4, t4, 0x3
   102ec: 33 8f 17 01  	add	t5, a5, a7
   102f0: b3 0e df 01  	add	t4, t5, t4
   102f4: 83 be 0e 00  	ld	t4, 0x0(t4)
   102f8: 13 7f f3 0f  	andi	t5, t1, 0xff
   102fc: 13 1f 3f 00  	slli	t5, t5, 0x3
   10300: b3 8f 57 00  	add	t6, a5, t0
   10304: 33 8f ef 01  	add	t5, t6, t5
   10308: 03 3f 0f 80  	ld	t5, -0x800(t5)
   1030c: 83 3f 05 00  	ld	t6, 0x0(a0)
   10310: b3 c5 b3 00  	xor	a1, t2, a1
   10314: b3 c5 c5 01  	xor	a1, a1, t3
   10318: b3 c3 ee 01  	xor	t2, t4, t5
   1031c: b3 c3 f3 01  	xor	t2, t2, t6
   10320: b3 c5 75 00  	xor	a1, a1, t2
   10324: 83 33 08 ff  	ld	t2, -0x10(a6)
   10328: 13 0e 88 00  	addi	t3, a6, 0x8
   1032c: 83 3e 88 ff  	ld	t4, -0x8(a6)
   10330: 23 34 b8 00  	sd	a1, 0x8(a6)
   10334: b3 c3 b3 00  	xor	t2, t2, a1
   10338: 23 38 78 00  	sd	t2, 0x10(a6)
   1033c: b3 c3 7e 00  	xor	t2, t4, t2
   10340: 23 3c 78 00  	sd	t2, 0x18(a6)
   10344: 33 c3 63 00  	xor	t1, t2, t1
   10348: 23 30 68 02  	sd	t1, 0x20(a6)
   1034c: 13 08 08 02  	addi	a6, a6, 0x20
   10350: 13 05 85 00  	addi	a0, a0, 0x8
   10354: e3 64 ee f6  	bltu	t3, a4, 0x102bc <set_key+0xe0>
   10358: 6f 00 40 24  	jal	zero, 0x1059c <set_key+0x3c0>
   1035c: 83 37 05 01  	ld	a5, 0x10(a0)
   10360: 23 b8 f6 02  	sd	a5, 0x30(a3)
   10364: 03 35 45 01  	ld	a0, 0x14(a0)
   10368: 23 bc a6 02  	sd	a0, 0x38(a3)
   1036c: 37 d5 01 00  	lui	a0, 0x1d
   10370: 13 05 85 02  	addi	a0, a0, 0x28
   10374: 13 88 86 03  	addi	a6, a3, 0x38
   10378: b7 17 02 00  	lui	a5, 0x21
   1037c: 93 87 07 11  	addi	a5, a5, 0x110
   10380: b7 18 00 00  	lui	a7, 0x1
   10384: b7 22 00 00  	lui	t0, 0x2
   10388: 03 33 08 00  	ld	t1, 0x0(a6)
   1038c: 93 53 53 00  	srli	t2, t1, 0x5
   10390: 93 f3 83 7f  	andi	t2, t2, 0x7f8
   10394: b3 83 77 00  	add	t2, a5, t2
   10398: 83 b3 03 00  	ld	t2, 0x0(t2)
   1039c: 13 5e d3 00  	srli	t3, t1, 0xd
   103a0: 13 7e 8e 7f  	andi	t3, t3, 0x7f8
   103a4: 33 8e c7 01  	add	t3, a5, t3
   103a8: 13 0e fe 7f  	addi	t3, t3, 0x7ff
   103ac: 03 3e 1e 00  	ld	t3, 0x1(t3)
   103b0: 9b 5e 83 01  	srliw	t4, t1, 0x18
   103b4: 93 9e 3e 00  	slli	t4, t4, 0x3
   103b8: 33 8f 17 01  	add	t5, a5, a7
   103bc: b3 0e df 01  	add	t4, t5, t4
   103c0: 83 be 0e 00  	ld	t4, 0x0(t4)
   103c4: 13 7f f3 0f  	andi	t5, t1, 0xff
   103c8: 13 1f 3f 00  	slli	t5, t5, 0x3
   103cc: b3 8f 57 00  	add	t6, a5, t0
   103d0: 33 8f ef 01  	add	t5, t6, t5
   103d4: 03 3f 0f 80  	ld	t5, -0x800(t5)
   103d8: 83 3f 05 00  	ld	t6, 0x0(a0)
   103dc: b3 c5 b3 00  	xor	a1, t2, a1
   103e0: b3 c5 c5 01  	xor	a1, a1, t3
   103e4: b3 c3 ee 01  	xor	t2, t4, t5
   103e8: b3 c3 f3 01  	xor	t2, t2, t6
   103ec: b3 c5 75 00  	xor	a1, a1, t2
   103f0: 83 33 08 fe  	ld	t2, -0x20(a6)
   103f4: 13 0e 88 00  	addi	t3, a6, 0x8
   103f8: 23 34 b8 00  	sd	a1, 0x8(a6)
   103fc: 83 3e 88 fe  	ld	t4, -0x18(a6)
   10400: b3 c3 b3 00  	xor	t2, t2, a1
   10404: 23 38 78 00  	sd	t2, 0x10(a6)
   10408: 03 3f 08 ff  	ld	t5, -0x10(a6)
   1040c: b3 c3 7e 00  	xor	t2, t4, t2
   10410: 83 3e 88 ff  	ld	t4, -0x8(a6)
   10414: 23 3c 78 00  	sd	t2, 0x18(a6)
   10418: b3 43 7f 00  	xor	t2, t5, t2
   1041c: 23 30 78 02  	sd	t2, 0x20(a6)
   10420: b3 c3 7e 00  	xor	t2, t4, t2
   10424: 23 34 78 02  	sd	t2, 0x28(a6)
   10428: 33 c3 63 00  	xor	t1, t2, t1
   1042c: 23 38 68 02  	sd	t1, 0x30(a6)
   10430: 13 08 08 03  	addi	a6, a6, 0x30
   10434: 13 05 85 00  	addi	a0, a0, 0x8
   10438: e3 68 ee f4  	bltu	t3, a4, 0x10388 <set_key+0x1ac>
   1043c: 6f 00 00 16  	jal	zero, 0x1059c <set_key+0x3c0>
   10440: 83 37 05 01  	ld	a5, 0x10(a0)
   10444: 23 b8 f6 02  	sd	a5, 0x30(a3)
   10448: 83 37 45 01  	ld	a5, 0x14(a0)
   1044c: 23 bc f6 02  	sd	a5, 0x38(a3)
   10450: 83 37 85 01  	ld	a5, 0x18(a0)
   10454: 23 b0 f6 04  	sd	a5, 0x40(a3)
   10458: 03 35 c5 01  	ld	a0, 0x1c(a0)
   1045c: 23 b4 a6 04  	sd	a0, 0x48(a3)
   10460: 37 d5 01 00  	lui	a0, 0x1d
   10464: 13 05 85 02  	addi	a0, a0, 0x28
   10468: 13 88 86 04  	addi	a6, a3, 0x48
   1046c: b7 17 02 00  	lui	a5, 0x21
   10470: 93 87 07 11  	addi	a5, a5, 0x110
   10474: 93 88 f7 7f  	addi	a7, a5, 0x7ff
   10478: 93 88 18 00  	addi	a7, a7, 0x1
   1047c: b7 12 00 00  	lui	t0, 0x1
   10480: b3 82 57 00  	add	t0, a5, t0
   10484: 13 03 30 00  	addi	t1, zero, 0x3
   10488: 13 13 b3 00  	slli	t1, t1, 0xb
   1048c: 33 83 67 00  	add	t1, a5, t1
   10490: 83 33 08 00  	ld	t2, 0x0(a6)
   10494: 13 de 53 00  	srli	t3, t2, 0x5
   10498: 13 7e 8e 7f  	andi	t3, t3, 0x7f8
   1049c: 33 8e c7 01  	add	t3, a5, t3
   104a0: 03 3e 0e 00  	ld	t3, 0x0(t3)
   104a4: 93 de d3 00  	srli	t4, t2, 0xd
   104a8: 93 fe 8e 7f  	andi	t4, t4, 0x7f8
   104ac: b3 8e d8 01  	add	t4, a7, t4
   104b0: 83 be 0e 00  	ld	t4, 0x0(t4)
   104b4: 1b df 83 01  	srliw	t5, t2, 0x18
   104b8: 13 1f 3f 00  	slli	t5, t5, 0x3
   104bc: 33 8f e2 01  	add	t5, t0, t5
   104c0: 03 3f 0f 00  	ld	t5, 0x0(t5)
   104c4: 93 ff f3 0f  	andi	t6, t2, 0xff
   104c8: 93 9f 3f 00  	slli	t6, t6, 0x3
   104cc: b3 0f f3 01  	add	t6, t1, t6
   104d0: 83 bf 0f 00  	ld	t6, 0x0(t6)
   104d4: 03 34 05 00  	ld	s0, 0x0(a0)
   104d8: b3 45 be 00  	xor	a1, t3, a1
   104dc: 33 ce ee 01  	xor	t3, t4, t5
   104e0: b3 c5 c5 01  	xor	a1, a1, t3
   104e4: 33 ce 8f 00  	xor	t3, t6, s0
   104e8: b3 c5 c5 01  	xor	a1, a1, t3
   104ec: 03 3e 08 fd  	ld	t3, -0x30(a6)
   104f0: 93 0e 88 00  	addi	t4, a6, 0x8
   104f4: 23 34 b8 00  	sd	a1, 0x8(a6)
   104f8: 03 3f 88 fd  	ld	t5, -0x28(a6)
   104fc: 33 4e be 00  	xor	t3, t3, a1
   10500: 83 3f 08 fe  	ld	t6, -0x20(a6)
   10504: 23 38 c8 01  	sd	t3, 0x10(a6)
   10508: 33 4e cf 01  	xor	t3, t5, t3
   1050c: 23 3c c8 01  	sd	t3, 0x18(a6)
   10510: 33 ce cf 01  	xor	t3, t6, t3
   10514: 23 30 c8 03  	sd	t3, 0x20(a6)
   10518: 03 3f 88 fe  	ld	t5, -0x18(a6)
   1051c: 93 7f fe 0f  	andi	t6, t3, 0xff
   10520: 93 9f 3f 00  	slli	t6, t6, 0x3
   10524: b3 8f f7 01  	add	t6, a5, t6
   10528: 83 bf 0f 00  	ld	t6, 0x0(t6)
   1052c: 13 54 5e 00  	srli	s0, t3, 0x5
   10530: 13 74 84 7f  	andi	s0, s0, 0x7f8
   10534: 33 84 88 00  	add	s0, a7, s0
   10538: 03 34 04 00  	ld	s0, 0x0(s0)
   1053c: 93 54 de 00  	srli	s1, t3, 0xd
   10540: 93 f4 84 7f  	andi	s1, s1, 0x7f8
   10544: b3 84 92 00  	add	s1, t0, s1
   10548: 83 b4 04 00  	ld	s1, 0x0(s1)
   1054c: 1b 5e 8e 01  	srliw	t3, t3, 0x18
   10550: 13 1e 3e 00  	slli	t3, t3, 0x3
   10554: 33 0e c3 01  	add	t3, t1, t3
   10558: 03 3e 0e 00  	ld	t3, 0x0(t3)
   1055c: 33 cf ef 01  	xor	t5, t6, t5
   10560: 33 44 94 00  	xor	s0, s0, s1
   10564: 33 4f 8f 00  	xor	t5, t5, s0
   10568: 83 3f 08 ff  	ld	t6, -0x10(a6)
   1056c: 33 4e cf 01  	xor	t3, t5, t3
   10570: 03 3f 88 ff  	ld	t5, -0x8(a6)
   10574: 23 34 c8 03  	sd	t3, 0x28(a6)
   10578: 33 ce cf 01  	xor	t3, t6, t3
   1057c: 23 38 c8 03  	sd	t3, 0x30(a6)
   10580: 33 4e cf 01  	xor	t3, t5, t3
   10584: 23 3c c8 03  	sd	t3, 0x38(a6)
   10588: b3 43 7e 00  	xor	t2, t3, t2
   1058c: 23 30 78 04  	sd	t2, 0x40(a6)
   10590: 13 08 08 04  	addi	a6, a6, 0x40
   10594: 13 05 85 00  	addi	a0, a0, 0x8
   10598: e3 ec ee ee  	bltu	t4, a4, 0x10490 <set_key+0x2b4>
   1059c: 13 05 10 00  	addi	a0, zero, 0x1
   105a0: 63 0e a6 1e  	beq	a2, a0, 0x1079c <set_key+0x5c0>
   105a4: 83 b5 86 00  	ld	a1, 0x8(a3)
   105a8: 93 95 55 00  	slli	a1, a1, 0x5
   105ac: 03 b6 06 01  	ld	a2, 0x10(a3)
   105b0: 33 87 b6 00  	add	a4, a3, a1
   105b4: 83 b5 86 01  	ld	a1, 0x18(a3)
   105b8: 83 b7 86 02  	ld	a5, 0x28(a3)
   105bc: 23 38 c7 20  	sd	a2, 0x210(a4)
   105c0: 03 b6 06 02  	ld	a2, 0x20(a3)
   105c4: 23 3c b7 20  	sd	a1, 0x218(a4)
   105c8: 23 34 f7 22  	sd	a5, 0x228(a4)
   105cc: 83 b7 86 00  	ld	a5, 0x8(a3)
   105d0: 23 30 c7 22  	sd	a2, 0x220(a4)
   105d4: 93 85 06 03  	addi	a1, a3, 0x30
   105d8: 13 08 20 00  	addi	a6, zero, 0x2
   105dc: 13 06 07 1f  	addi	a2, a4, 0x1f0
   105e0: 63 ec 07 19  	bltu	a5, a6, 0x10778 <set_key+0x59c>
   105e4: 13 07 10 00  	addi	a4, zero, 0x1
   105e8: b7 57 02 00  	lui	a5, 0x25
   105ec: 93 87 07 11  	addi	a5, a5, 0x110
   105f0: 13 88 f7 7f  	addi	a6, a5, 0x7ff
   105f4: 13 08 18 00  	addi	a6, a6, 0x1
   105f8: b7 18 00 00  	lui	a7, 0x1
   105fc: b3 88 17 01  	add	a7, a5, a7
   10600: 93 02 30 00  	addi	t0, zero, 0x3
   10604: 93 92 b2 00  	slli	t0, t0, 0xb
   10608: b3 82 57 00  	add	t0, a5, t0
   1060c: 03 b3 05 00  	ld	t1, 0x0(a1)
   10610: 93 73 f3 0f  	andi	t2, t1, 0xff
   10614: 93 93 33 00  	slli	t2, t2, 0x3
   10618: b3 83 77 00  	add	t2, a5, t2
   1061c: 83 b3 03 00  	ld	t2, 0x0(t2)
   10620: 13 5e 53 00  	srli	t3, t1, 0x5
   10624: 13 7e 8e 7f  	andi	t3, t3, 0x7f8
   10628: 33 0e c8 01  	add	t3, a6, t3
   1062c: 03 3e 0e 00  	ld	t3, 0x0(t3)
   10630: 93 5e d3 00  	srli	t4, t1, 0xd
   10634: 93 fe 8e 7f  	andi	t4, t4, 0x7f8
   10638: b3 8e d8 01  	add	t4, a7, t4
   1063c: 83 be 0e 00  	ld	t4, 0x0(t4)
   10640: 1b 53 83 01  	srliw	t1, t1, 0x18
   10644: 13 13 33 00  	slli	t1, t1, 0x3
   10648: 33 83 62 00  	add	t1, t0, t1
   1064c: 03 33 03 00  	ld	t1, 0x0(t1)
   10650: b3 43 7e 00  	xor	t2, t3, t2
   10654: 33 c3 6e 00  	xor	t1, t4, t1
   10658: 33 c3 63 00  	xor	t1, t2, t1
   1065c: 23 30 66 00  	sd	t1, 0x0(a2)
   10660: 03 b3 85 00  	ld	t1, 0x8(a1)
   10664: 93 73 f3 0f  	andi	t2, t1, 0xff
   10668: 93 93 33 00  	slli	t2, t2, 0x3
   1066c: b3 83 77 00  	add	t2, a5, t2
   10670: 83 b3 03 00  	ld	t2, 0x0(t2)
   10674: 13 5e 53 00  	srli	t3, t1, 0x5
   10678: 13 7e 8e 7f  	andi	t3, t3, 0x7f8
   1067c: 33 0e c8 01  	add	t3, a6, t3
   10680: 03 3e 0e 00  	ld	t3, 0x0(t3)
   10684: 93 5e d3 00  	srli	t4, t1, 0xd
   10688: 93 fe 8e 7f  	andi	t4, t4, 0x7f8
   1068c: b3 8e d8 01  	add	t4, a7, t4
   10690: 83 be 0e 00  	ld	t4, 0x0(t4)
   10694: 1b 53 83 01  	srliw	t1, t1, 0x18
   10698: 13 13 33 00  	slli	t1, t1, 0x3
   1069c: 33 83 62 00  	add	t1, t0, t1
   106a0: 03 33 03 00  	ld	t1, 0x0(t1)
   106a4: b3 43 7e 00  	xor	t2, t3, t2
   106a8: 33 c3 6e 00  	xor	t1, t4, t1
   106ac: 33 c3 63 00  	xor	t1, t2, t1
   106b0: 23 34 66 00  	sd	t1, 0x8(a2)
   106b4: 03 b3 05 01  	ld	t1, 0x10(a1)
   106b8: 93 73 f3 0f  	andi	t2, t1, 0xff
   106bc: 93 93 33 00  	slli	t2, t2, 0x3
   106c0: b3 83 77 00  	add	t2, a5, t2
   106c4: 83 b3 03 00  	ld	t2, 0x0(t2)
   106c8: 13 5e 53 00  	srli	t3, t1, 0x5
   106cc: 13 7e 8e 7f  	andi	t3, t3, 0x7f8
   106d0: 33 0e c8 01  	add	t3, a6, t3
   106d4: 03 3e 0e 00  	ld	t3, 0x0(t3)
   106d8: 93 5e d3 00  	srli	t4, t1, 0xd
   106dc: 93 fe 8e 7f  	andi	t4, t4, 0x7f8
   106e0: b3 8e d8 01  	add	t4, a7, t4
   106e4: 83 be 0e 00  	ld	t4, 0x0(t4)
   106e8: 1b 53 83 01  	srliw	t1, t1, 0x18
   106ec: 13 13 33 00  	slli	t1, t1, 0x3
   106f0: 33 83 62 00  	add	t1, t0, t1
   106f4: 03 33 03 00  	ld	t1, 0x0(t1)
   106f8: b3 43 7e 00  	xor	t2, t3, t2
   106fc: 33 c3 6e 00  	xor	t1, t4, t1
   10700: 33 c3 63 00  	xor	t1, t2, t1
   10704: 23 38 66 00  	sd	t1, 0x10(a2)
   10708: 03 b3 85 01  	ld	t1, 0x18(a1)
   1070c: 93 73 f3 0f  	andi	t2, t1, 0xff
   10710: 93 93 33 00  	slli	t2, t2, 0x3
   10714: b3 83 77 00  	add	t2, a5, t2
   10718: 83 b3 03 00  	ld	t2, 0x0(t2)
   1071c: 13 5e 53 00  	srli	t3, t1, 0x5
   10720: 13 7e 8e 7f  	andi	t3, t3, 0x7f8
   10724: 33 0e c8 01  	add	t3, a6, t3
   10728: 03 3e 0e 00  	ld	t3, 0x0(t3)
   1072c: 93 5e d3 00  	srli	t4, t1, 0xd
   10730: 93 fe 8e 7f  	andi	t4, t4, 0x7f8
   10734: b3 8e d8 01  	add	t4, a7, t4
   10738: 83 be 0e 00  	ld	t4, 0x0(t4)
   1073c: 1b 53 83 01  	srliw	t1, t1, 0x18
   10740: 13 13 33 00  	slli	t1, t1, 0x3
   10744: 33 83 62 00  	add	t1, t0, t1
   10748: 03 33 03 00  	ld	t1, 0x0(t1)
   1074c: b3 43 7e 00  	xor	t2, t3, t2
   10750: 33 c3 6e 00  	xor	t1, t4, t1
   10754: 33 c3 63 00  	xor	t1, t2, t1
   10758: 23 3c 66 00  	sd	t1, 0x18(a2)
   1075c: 03 b3 86 00  	ld	t1, 0x8(a3)
   10760: 93 85 05 02  	addi	a1, a1, 0x20
   10764: 13 07 17 00  	addi	a4, a4, 0x1
   10768: 13 06 06 fe  	addi	a2, a2, -0x20
   1076c: e3 60 67 ea  	bltu	a4, t1, 0x1060c <set_key+0x430>
   10770: 93 06 06 02  	addi	a3, a2, 0x20
   10774: 6f 00 80 00  	jal	zero, 0x1077c <set_key+0x5a0>
   10778: 93 06 07 21  	addi	a3, a4, 0x210
   1077c: 03 b7 05 00  	ld	a4, 0x0(a1)
   10780: 23 30 e6 00  	sd	a4, 0x0(a2)
   10784: 03 b6 85 00  	ld	a2, 0x8(a1)
   10788: 23 b4 c6 fe  	sd	a2, -0x18(a3)
   1078c: 03 b6 05 01  	ld	a2, 0x10(a1)
   10790: 23 b8 c6 fe  	sd	a2, -0x10(a3)
   10794: 83 b5 85 01  	ld	a1, 0x18(a1)
   10798: 23 bc b6 fe  	sd	a1, -0x8(a3)
   1079c: 13 15 05 03  	slli	a0, a0, 0x30
   107a0: 13 55 05 43  	srai	a0, a0, 0x30
   107a4: 6f c0 c0 61  	jal	zero, 0x1cdc0 <__riscv_restore_3>

00000000000107a8 <encrypt>:
   107a8: 83 46 06 41  	lbu	a3, 0x410(a2)
   107ac: 93 f6 16 00  	andi	a3, a3, 0x1
   107b0: 63 96 06 00  	bne	a3, zero, 0x107bc <encrypt+0x14>
   107b4: 13 05 00 00  	addi	a0, zero, 0x0
   107b8: 67 80 00 00  	jalr	zero, 0x0(ra)
   107bc: ef c2 40 5c  	jal	t0, 0x1cd80 <__riscv_save_5>
   107c0: 83 36 05 00  	ld	a3, 0x0(a0)
   107c4: 03 37 06 01  	ld	a4, 0x10(a2)
   107c8: 33 43 d7 00  	xor	t1, a4, a3
   107cc: 83 36 45 00  	ld	a3, 0x4(a0)
   107d0: 03 37 86 01  	ld	a4, 0x18(a2)
   107d4: 83 37 85 00  	ld	a5, 0x8(a0)
   107d8: 03 38 06 02  	ld	a6, 0x20(a2)
   107dc: 03 35 c5 00  	ld	a0, 0xc(a0)
   107e0: 83 38 86 02  	ld	a7, 0x28(a2)
   107e4: b3 43 d7 00  	xor	t2, a4, a3
   107e8: 83 36 86 00  	ld	a3, 0x8(a2)
   107ec: 33 4e f8 00  	xor	t3, a6, a5
   107f0: b3 ce a8 00  	xor	t4, a7, a0
   107f4: 13 07 a0 00  	addi	a4, zero, 0xa
   107f8: 13 05 06 03  	addi	a0, a2, 0x30
   107fc: 63 84 e6 5a  	beq	a3, a4, 0x10da4 <encrypt+0x5fc>
   10800: 13 07 c0 00  	addi	a4, zero, 0xc
   10804: 63 8c e6 2c  	beq	a3, a4, 0x10adc <encrypt+0x334>
   10808: 13 05 e0 00  	addi	a0, zero, 0xe
   1080c: 63 84 a6 00  	beq	a3, a0, 0x10814 <encrypt+0x6c>
   10810: 6f 10 00 2f  	jal	zero, 0x11b00 <encrypt+0x1358>
   10814: 03 38 06 03  	ld	a6, 0x30(a2)
   10818: 93 76 f3 0f  	andi	a3, t1, 0xff
   1081c: 37 d5 01 00  	lui	a0, 0x1d
   10820: 13 05 05 11  	addi	a0, a0, 0x110
   10824: 93 96 36 00  	slli	a3, a3, 0x3
   10828: b3 06 d5 00  	add	a3, a0, a3
   1082c: 83 b8 06 00  	ld	a7, 0x0(a3)
   10830: 93 d6 53 00  	srli	a3, t2, 0x5
   10834: 13 f7 86 7f  	andi	a4, a3, 0x7f8
   10838: 93 06 f5 7f  	addi	a3, a0, 0x7ff
   1083c: 93 86 16 00  	addi	a3, a3, 0x1
   10840: 33 87 e6 00  	add	a4, a3, a4
   10844: 83 32 07 00  	ld	t0, 0x0(a4)
   10848: 37 17 00 00  	lui	a4, 0x1
   1084c: 33 07 e5 00  	add	a4, a0, a4
   10850: 93 57 de 00  	srli	a5, t3, 0xd
   10854: 93 f7 87 7f  	andi	a5, a5, 0x7f8
   10858: b3 07 f7 00  	add	a5, a4, a5
   1085c: 03 bf 07 00  	ld	t5, 0x0(a5)
   10860: 93 07 30 00  	addi	a5, zero, 0x3
   10864: 93 97 b7 00  	slli	a5, a5, 0xb
   10868: b3 07 f5 00  	add	a5, a0, a5
   1086c: 9b df 8e 01  	srliw	t6, t4, 0x18
   10870: 93 9f 3f 00  	slli	t6, t6, 0x3
   10874: b3 8f f7 01  	add	t6, a5, t6
   10878: 83 bf 0f 00  	ld	t6, 0x0(t6)
   1087c: 33 c8 08 01  	xor	a6, a7, a6
   10880: b3 c8 e2 01  	xor	a7, t0, t5
   10884: 33 48 18 01  	xor	a6, a6, a7
   10888: 33 48 f8 01  	xor	a6, a6, t6
   1088c: 83 38 86 03  	ld	a7, 0x38(a2)
   10890: 93 f2 f3 0f  	andi	t0, t2, 0xff
   10894: 93 92 32 00  	slli	t0, t0, 0x3
   10898: b3 02 55 00  	add	t0, a0, t0
   1089c: 83 b2 02 00  	ld	t0, 0x0(t0)
   108a0: 13 5f 5e 00  	srli	t5, t3, 0x5
   108a4: 13 7f 8f 7f  	andi	t5, t5, 0x7f8
   108a8: 33 8f e6 01  	add	t5, a3, t5
   108ac: 03 3f 0f 00  	ld	t5, 0x0(t5)
   108b0: 93 df de 00  	srli	t6, t4, 0xd
   108b4: 93 ff 8f 7f  	andi	t6, t6, 0x7f8
   108b8: b3 0f f7 01  	add	t6, a4, t6
   108bc: 83 bf 0f 00  	ld	t6, 0x0(t6)
   108c0: 1b 54 83 01  	srliw	s0, t1, 0x18
   108c4: 13 14 34 00  	slli	s0, s0, 0x3
   108c8: 33 84 87 00  	add	s0, a5, s0
   108cc: 03 34 04 00  	ld	s0, 0x0(s0)
   108d0: b3 c8 12 01  	xor	a7, t0, a7
   108d4: b3 42 ff 01  	xor	t0, t5, t6
   108d8: b3 c8 58 00  	xor	a7, a7, t0
   108dc: b3 c8 88 00  	xor	a7, a7, s0
   108e0: 83 32 06 04  	ld	t0, 0x40(a2)
   108e4: 13 7f fe 0f  	andi	t5, t3, 0xff
   108e8: 13 1f 3f 00  	slli	t5, t5, 0x3
   108ec: 33 0f e5 01  	add	t5, a0, t5
   108f0: 03 3f 0f 00  	ld	t5, 0x0(t5)
   108f4: 93 df 5e 00  	srli	t6, t4, 0x5
   108f8: 93 ff 8f 7f  	andi	t6, t6, 0x7f8
   108fc: b3 8f f6 01  	add	t6, a3, t6
   10900: 83 bf 0f 00  	ld	t6, 0x0(t6)
   10904: 13 54 d3 00  	srli	s0, t1, 0xd
   10908: 13 74 84 7f  	andi	s0, s0, 0x7f8
   1090c: 33 04 87 00  	add	s0, a4, s0
   10910: 03 34 04 00  	ld	s0, 0x0(s0)
   10914: 9b d4 83 01  	srliw	s1, t2, 0x18
   10918: 93 94 34 00  	slli	s1, s1, 0x3
   1091c: b3 84 97 00  	add	s1, a5, s1
   10920: 83 b4 04 00  	ld	s1, 0x0(s1)
   10924: b3 42 5f 00  	xor	t0, t5, t0
   10928: 33 cf 8f 00  	xor	t5, t6, s0
   1092c: b3 c2 e2 01  	xor	t0, t0, t5
   10930: b3 c2 92 00  	xor	t0, t0, s1
   10934: 03 3f 86 04  	ld	t5, 0x48(a2)
   10938: 93 fe fe 0f  	andi	t4, t4, 0xff
   1093c: 93 9e 3e 00  	slli	t4, t4, 0x3
   10940: b3 0e d5 01  	add	t4, a0, t4
   10944: 83 be 0e 00  	ld	t4, 0x0(t4)
   10948: 13 53 53 00  	srli	t1, t1, 0x5
   1094c: 13 73 83 7f  	andi	t1, t1, 0x7f8
   10950: 33 83 66 00  	add	t1, a3, t1
   10954: 03 33 03 00  	ld	t1, 0x0(t1)
   10958: 93 d3 d3 00  	srli	t2, t2, 0xd
   1095c: 93 f3 83 7f  	andi	t2, t2, 0x7f8
   10960: b3 03 77 00  	add	t2, a4, t2
   10964: 83 b3 03 00  	ld	t2, 0x0(t2)
   10968: 1b 5e 8e 01  	srliw	t3, t3, 0x18
   1096c: 13 1e 3e 00  	slli	t3, t3, 0x3
   10970: 33 8e c7 01  	add	t3, a5, t3
   10974: 03 3e 0e 00  	ld	t3, 0x0(t3)
   10978: b3 ce ee 01  	xor	t4, t4, t5
   1097c: 33 43 73 00  	xor	t1, t1, t2
   10980: 33 c3 6e 00  	xor	t1, t4, t1
   10984: b3 4e c3 01  	xor	t4, t1, t3
   10988: 03 33 06 05  	ld	t1, 0x50(a2)
   1098c: 93 73 f8 0f  	andi	t2, a6, 0xff
   10990: 93 93 33 00  	slli	t2, t2, 0x3
   10994: b3 03 75 00  	add	t2, a0, t2
   10998: 83 b3 03 00  	ld	t2, 0x0(t2)
   1099c: 13 de 58 00  	srli	t3, a7, 0x5
   109a0: 13 7e 8e 7f  	andi	t3, t3, 0x7f8
   109a4: 33 8e c6 01  	add	t3, a3, t3
   109a8: 03 3e 0e 00  	ld	t3, 0x0(t3)
   109ac: 13 df d2 00  	srli	t5, t0, 0xd
   109b0: 13 7f 8f 7f  	andi	t5, t5, 0x7f8
   109b4: 33 0f e7 01  	add	t5, a4, t5
   109b8: 03 3f 0f 00  	ld	t5, 0x0(t5)
   109bc: 9b df 8e 01  	srliw	t6, t4, 0x18
   109c0: 93 9f 3f 00  	slli	t6, t6, 0x3
   109c4: b3 8f f7 01  	add	t6, a5, t6
   109c8: 83 bf 0f 00  	ld	t6, 0x0(t6)
   109cc: 33 c3 63 00  	xor	t1, t2, t1
   109d0: b3 43 ee 01  	xor	t2, t3, t5
   109d4: 33 43 73 00  	xor	t1, t1, t2
   109d8: 33 43 f3 01  	xor	t1, t1, t6
   109dc: 83 33 86 05  	ld	t2, 0x58(a2)
   109e0: 13 fe f8 0f  	andi	t3, a7, 0xff
   109e4: 13 1e 3e 00  	slli	t3, t3, 0x3
   109e8: 33 0e c5 01  	add	t3, a0, t3
   109ec: 03 3e 0e 00  	ld	t3, 0x0(t3)
   109f0: 13 df 52 00  	srli	t5, t0, 0x5
   109f4: 13 7f 8f 7f  	andi	t5, t5, 0x7f8
   109f8: 33 8f e6 01  	add	t5, a3, t5
   109fc: 03 3f 0f 00  	ld	t5, 0x0(t5)
   10a00: 93 df de 00  	srli	t6, t4, 0xd
   10a04: 93 ff 8f 7f  	andi	t6, t6, 0x7f8
   10a08: b3 0f f7 01  	add	t6, a4, t6
   10a0c: 83 bf 0f 00  	ld	t6, 0x0(t6)
   10a10: 1b 54 88 01  	srliw	s0, a6, 0x18
   10a14: 13 14 34 00  	slli	s0, s0, 0x3
   10a18: 33 84 87 00  	add	s0, a5, s0
   10a1c: 03 34 04 00  	ld	s0, 0x0(s0)
   10a20: b3 43 7e 00  	xor	t2, t3, t2
   10a24: 33 4e ff 01  	xor	t3, t5, t6
   10a28: b3 c3 c3 01  	xor	t2, t2, t3
   10a2c: b3 c3 83 00  	xor	t2, t2, s0
   10a30: 03 3e 06 06  	ld	t3, 0x60(a2)
   10a34: 13 ff f2 0f  	andi	t5, t0, 0xff
   10a38: 13 1f 3f 00  	slli	t5, t5, 0x3
   10a3c: 33 0f e5 01  	add	t5, a0, t5
   10a40: 03 3f 0f 00  	ld	t5, 0x0(t5)
   10a44: 93 df 5e 00  	srli	t6, t4, 0x5
   10a48: 93 ff 8f 7f  	andi	t6, t6, 0x7f8
   10a4c: b3 8f f6 01  	add	t6, a3, t6
   10a50: 83 bf 0f 00  	ld	t6, 0x0(t6)
   10a54: 13 54 d8 00  	srli	s0, a6, 0xd
   10a58: 13 74 84 7f  	andi	s0, s0, 0x7f8
   10a5c: 33 04 87 00  	add	s0, a4, s0
   10a60: 03 34 04 00  	ld	s0, 0x0(s0)
   10a64: 9b d4 88 01  	srliw	s1, a7, 0x18
   10a68: 93 94 34 00  	slli	s1, s1, 0x3
   10a6c: b3 84 97 00  	add	s1, a5, s1
   10a70: 83 b4 04 00  	ld	s1, 0x0(s1)
   10a74: 33 4e cf 01  	xor	t3, t5, t3
   10a78: 33 cf 8f 00  	xor	t5, t6, s0
   10a7c: 33 4e ee 01  	xor	t3, t3, t5
   10a80: 33 4e 9e 00  	xor	t3, t3, s1
   10a84: 03 3f 86 06  	ld	t5, 0x68(a2)
   10a88: 93 fe fe 0f  	andi	t4, t4, 0xff
   10a8c: 93 9e 3e 00  	slli	t4, t4, 0x3
   10a90: 33 05 d5 01  	add	a0, a0, t4
   10a94: 03 35 05 00  	ld	a0, 0x0(a0)
   10a98: 13 58 58 00  	srli	a6, a6, 0x5
   10a9c: 13 78 88 7f  	andi	a6, a6, 0x7f8
   10aa0: b3 86 06 01  	add	a3, a3, a6
   10aa4: 83 b6 06 00  	ld	a3, 0x0(a3)
   10aa8: 13 d8 d8 00  	srli	a6, a7, 0xd
   10aac: 13 78 88 7f  	andi	a6, a6, 0x7f8
   10ab0: 33 07 07 01  	add	a4, a4, a6
   10ab4: 03 37 07 00  	ld	a4, 0x0(a4)
   10ab8: 1b d8 82 01  	srliw	a6, t0, 0x18
   10abc: 13 18 38 00  	slli	a6, a6, 0x3
   10ac0: b3 87 07 01  	add	a5, a5, a6
   10ac4: 83 b7 07 00  	ld	a5, 0x0(a5)
   10ac8: 33 45 e5 01  	xor	a0, a0, t5
   10acc: b3 c6 e6 00  	xor	a3, a3, a4
   10ad0: 33 45 d5 00  	xor	a0, a0, a3
   10ad4: b3 4e f5 00  	xor	t4, a0, a5
   10ad8: 13 05 06 07  	addi	a0, a2, 0x70
   10adc: 03 38 05 00  	ld	a6, 0x0(a0)
   10ae0: 93 76 f3 0f  	andi	a3, t1, 0xff
   10ae4: 37 d6 01 00  	lui	a2, 0x1d
   10ae8: 13 06 06 11  	addi	a2, a2, 0x110
   10aec: 93 96 36 00  	slli	a3, a3, 0x3
   10af0: b3 06 d6 00  	add	a3, a2, a3
   10af4: 83 b8 06 00  	ld	a7, 0x0(a3)
   10af8: 93 d6 53 00  	srli	a3, t2, 0x5
   10afc: 13 f7 86 7f  	andi	a4, a3, 0x7f8
   10b00: 93 06 f6 7f  	addi	a3, a2, 0x7ff
   10b04: 93 86 16 00  	addi	a3, a3, 0x1
   10b08: 33 87 e6 00  	add	a4, a3, a4
   10b0c: 83 32 07 00  	ld	t0, 0x0(a4)
   10b10: 37 17 00 00  	lui	a4, 0x1
   10b14: 33 07 e6 00  	add	a4, a2, a4
   10b18: 93 57 de 00  	srli	a5, t3, 0xd
   10b1c: 93 f7 87 7f  	andi	a5, a5, 0x7f8
   10b20: b3 07 f7 00  	add	a5, a4, a5
   10b24: 03 bf 07 00  	ld	t5, 0x0(a5)
   10b28: 93 07 30 00  	addi	a5, zero, 0x3
   10b2c: 93 97 b7 00  	slli	a5, a5, 0xb
   10b30: b3 07 f6 00  	add	a5, a2, a5
   10b34: 9b df 8e 01  	srliw	t6, t4, 0x18
   10b38: 93 9f 3f 00  	slli	t6, t6, 0x3
   10b3c: b3 8f f7 01  	add	t6, a5, t6
   10b40: 83 bf 0f 00  	ld	t6, 0x0(t6)
   10b44: 33 c8 08 01  	xor	a6, a7, a6
   10b48: b3 c8 e2 01  	xor	a7, t0, t5
   10b4c: 33 48 18 01  	xor	a6, a6, a7
   10b50: 33 48 f8 01  	xor	a6, a6, t6
   10b54: 83 38 85 00  	ld	a7, 0x8(a0)
   10b58: 93 f2 f3 0f  	andi	t0, t2, 0xff
   10b5c: 93 92 32 00  	slli	t0, t0, 0x3
   10b60: b3 02 56 00  	add	t0, a2, t0
   10b64: 83 b2 02 00  	ld	t0, 0x0(t0)
   10b68: 13 5f 5e 00  	srli	t5, t3, 0x5
   10b6c: 13 7f 8f 7f  	andi	t5, t5, 0x7f8
   10b70: 33 8f e6 01  	add	t5, a3, t5
   10b74: 03 3f 0f 00  	ld	t5, 0x0(t5)
   10b78: 93 df de 00  	srli	t6, t4, 0xd
   10b7c: 93 ff 8f 7f  	andi	t6, t6, 0x7f8
   10b80: b3 0f f7 01  	add	t6, a4, t6
   10b84: 83 bf 0f 00  	ld	t6, 0x0(t6)
   10b88: 1b 54 83 01  	srliw	s0, t1, 0x18
   10b8c: 13 14 34 00  	slli	s0, s0, 0x3
   10b90: 33 84 87 00  	add	s0, a5, s0
   10b94: 03 34 04 00  	ld	s0, 0x0(s0)
   10b98: b3 c8 12 01  	xor	a7, t0, a7
   10b9c: b3 42 ff 01  	xor	t0, t5, t6
   10ba0: b3 c8 58 00  	xor	a7, a7, t0
   10ba4: b3 c8 88 00  	xor	a7, a7, s0
   10ba8: 83 32 05 01  	ld	t0, 0x10(a0)
   10bac: 13 7f fe 0f  	andi	t5, t3, 0xff
   10bb0: 13 1f 3f 00  	slli	t5, t5, 0x3
   10bb4: 33 0f e6 01  	add	t5, a2, t5
   10bb8: 03 3f 0f 00  	ld	t5, 0x0(t5)
   10bbc: 93 df 5e 00  	srli	t6, t4, 0x5
   10bc0: 93 ff 8f 7f  	andi	t6, t6, 0x7f8
   10bc4: b3 8f f6 01  	add	t6, a3, t6
   10bc8: 83 bf 0f 00  	ld	t6, 0x0(t6)
   10bcc: 13 54 d3 00  	srli	s0, t1, 0xd
   10bd0: 13 74 84 7f  	andi	s0, s0, 0x7f8
   10bd4: 33 04 87 00  	add	s0, a4, s0
   10bd8: 03 34 04 00  	ld	s0, 0x0(s0)
   10bdc: 9b d4 83 01  	srliw	s1, t2, 0x18
   10be0: 93 94 34 00  	slli	s1, s1, 0x3
   10be4: b3 84 97 00  	add	s1, a5, s1
   10be8: 83 b4 04 00  	ld	s1, 0x0(s1)
   10bec: b3 42 5f 00  	xor	t0, t5, t0
   10bf0: 33 cf 8f 00  	xor	t5, t6, s0
   10bf4: b3 c2 e2 01  	xor	t0, t0, t5
   10bf8: b3 c2 92 00  	xor	t0, t0, s1
   10bfc: 03 3f 85 01  	ld	t5, 0x18(a0)
   10c00: 93 fe fe 0f  	andi	t4, t4, 0xff
   10c04: 93 9e 3e 00  	slli	t4, t4, 0x3
   10c08: b3 0e d6 01  	add	t4, a2, t4
   10c0c: 83 be 0e 00  	ld	t4, 0x0(t4)
   10c10: 13 53 53 00  	srli	t1, t1, 0x5
   10c14: 13 73 83 7f  	andi	t1, t1, 0x7f8
   10c18: 33 83 66 00  	add	t1, a3, t1
   10c1c: 03 33 03 00  	ld	t1, 0x0(t1)
   10c20: 93 d3 d3 00  	srli	t2, t2, 0xd
   10c24: 93 f3 83 7f  	andi	t2, t2, 0x7f8
   10c28: b3 03 77 00  	add	t2, a4, t2
   10c2c: 83 b3 03 00  	ld	t2, 0x0(t2)
   10c30: 1b 5e 8e 01  	srliw	t3, t3, 0x18
   10c34: 13 1e 3e 00  	slli	t3, t3, 0x3
   10c38: 33 8e c7 01  	add	t3, a5, t3
   10c3c: 03 3e 0e 00  	ld	t3, 0x0(t3)
   10c40: b3 ce ee 01  	xor	t4, t4, t5
   10c44: 33 43 73 00  	xor	t1, t1, t2
   10c48: 33 c3 6e 00  	xor	t1, t4, t1
   10c4c: b3 4e c3 01  	xor	t4, t1, t3
   10c50: 03 33 05 02  	ld	t1, 0x20(a0)
   10c54: 93 73 f8 0f  	andi	t2, a6, 0xff
   10c58: 93 93 33 00  	slli	t2, t2, 0x3
   10c5c: b3 03 76 00  	add	t2, a2, t2
   10c60: 83 b3 03 00  	ld	t2, 0x0(t2)
   10c64: 13 de 58 00  	srli	t3, a7, 0x5
   10c68: 13 7e 8e 7f  	andi	t3, t3, 0x7f8
   10c6c: 33 8e c6 01  	add	t3, a3, t3
   10c70: 03 3e 0e 00  	ld	t3, 0x0(t3)
   10c74: 13 df d2 00  	srli	t5, t0, 0xd
   10c78: 13 7f 8f 7f  	andi	t5, t5, 0x7f8
   10c7c: 33 0f e7 01  	add	t5, a4, t5
   10c80: 03 3f 0f 00  	ld	t5, 0x0(t5)
   10c84: 9b df 8e 01  	srliw	t6, t4, 0x18
   10c88: 93 9f 3f 00  	slli	t6, t6, 0x3
   10c8c: b3 8f f7 01  	add	t6, a5, t6
   10c90: 83 bf 0f 00  	ld	t6, 0x0(t6)
   10c94: 33 c3 63 00  	xor	t1, t2, t1
   10c98: b3 43 ee 01  	xor	t2, t3, t5
   10c9c: 33 43 73 00  	xor	t1, t1, t2
   10ca0: 33 43 f3 01  	xor	t1, t1, t6
   10ca4: 83 33 85 02  	ld	t2, 0x28(a0)
   10ca8: 13 fe f8 0f  	andi	t3, a7, 0xff
   10cac: 13 1e 3e 00  	slli	t3, t3, 0x3
   10cb0: 33 0e c6 01  	add	t3, a2, t3
   10cb4: 03 3e 0e 00  	ld	t3, 0x0(t3)
   10cb8: 13 df 52 00  	srli	t5, t0, 0x5
   10cbc: 13 7f 8f 7f  	andi	t5, t5, 0x7f8
   10cc0: 33 8f e6 01  	add	t5, a3, t5
   10cc4: 03 3f 0f 00  	ld	t5, 0x0(t5)
   10cc8: 93 df de 00  	srli	t6, t4, 0xd
   10ccc: 93 ff 8f 7f  	andi	t6, t6, 0x7f8
   10cd0: b3 0f f7 01  	add	t6, a4, t6
   10cd4: 83 bf 0f 00  	ld	t6, 0x0(t6)
   10cd8: 1b 54 88 01  	srliw	s0, a6, 0x18
   10cdc: 13 14 34 00  	slli	s0, s0, 0x3
   10ce0: 33 84 87 00  	add	s0, a5, s0
   10ce4: 03 34 04 00  	ld	s0, 0x0(s0)
   10ce8: b3 43 7e 00  	xor	t2, t3, t2
   10cec: 33 4e ff 01  	xor	t3, t5, t6
   10cf0: b3 c3 c3 01  	xor	t2, t2, t3
   10cf4: b3 c3 83 00  	xor	t2, t2, s0
   10cf8: 03 3e 05 03  	ld	t3, 0x30(a0)
   10cfc: 13 ff f2 0f  	andi	t5, t0, 0xff
   10d00: 13 1f 3f 00  	slli	t5, t5, 0x3
   10d04: 33 0f e6 01  	add	t5, a2, t5
   10d08: 03 3f 0f 00  	ld	t5, 0x0(t5)
   10d0c: 93 df 5e 00  	srli	t6, t4, 0x5
   10d10: 93 ff 8f 7f  	andi	t6, t6, 0x7f8
   10d14: b3 8f f6 01  	add	t6, a3, t6
   10d18: 83 bf 0f 00  	ld	t6, 0x0(t6)
   10d1c: 13 54 d8 00  	srli	s0, a6, 0xd
   10d20: 13 74 84 7f  	andi	s0, s0, 0x7f8
   10d24: 33 04 87 00  	add	s0, a4, s0
   10d28: 03 34 04 00  	ld	s0, 0x0(s0)
   10d2c: 9b d4 88 01  	srliw	s1, a7, 0x18
   10d30: 93 94 34 00  	slli	s1, s1, 0x3
   10d34: b3 84 97 00  	add	s1, a5, s1
   10d38: 83 b4 04 00  	ld	s1, 0x0(s1)
   10d3c: 33 4e cf 01  	xor	t3, t5, t3
   10d40: 33 cf 8f 00  	xor	t5, t6, s0
   10d44: 33 4e ee 01  	xor	t3, t3, t5
   10d48: 33 4e 9e 00  	xor	t3, t3, s1
   10d4c: 03 3f 85 03  	ld	t5, 0x38(a0)
   10d50: 93 fe fe 0f  	andi	t4, t4, 0xff
   10d54: 93 9e 3e 00  	slli	t4, t4, 0x3
   10d58: 33 06 d6 01  	add	a2, a2, t4
   10d5c: 03 36 06 00  	ld	a2, 0x0(a2)
   10d60: 13 58 58 00  	srli	a6, a6, 0x5
   10d64: 13 78 88 7f  	andi	a6, a6, 0x7f8
   10d68: b3 86 06 01  	add	a3, a3, a6
   10d6c: 83 b6 06 00  	ld	a3, 0x0(a3)
   10d70: 13 d8 d8 00  	srli	a6, a7, 0xd
   10d74: 13 78 88 7f  	andi	a6, a6, 0x7f8
   10d78: 33 07 07 01  	add	a4, a4, a6
   10d7c: 03 37 07 00  	ld	a4, 0x0(a4)
   10d80: 1b d8 82 01  	srliw	a6, t0, 0x18
   10d84: 13 18 38 00  	slli	a6, a6, 0x3
   10d88: b3 87 07 01  	add	a5, a5, a6
   10d8c: 83 b7 07 00  	ld	a5, 0x0(a5)
   10d90: 33 46 e6 01  	xor	a2, a2, t5
   10d94: b3 c6 e6 00  	xor	a3, a3, a4
   10d98: 33 46 d6 00  	xor	a2, a2, a3
   10d9c: b3 4e f6 00  	xor	t4, a2, a5
   10da0: 13 05 05 04  	addi	a0, a0, 0x40
   10da4: 03 3f 05 00  	ld	t5, 0x0(a0)
   10da8: 13 76 f3 0f  	andi	a2, t1, 0xff
   10dac: b7 d6 01 00  	lui	a3, 0x1d
   10db0: 93 87 06 11  	addi	a5, a3, 0x110
   10db4: 13 16 36 00  	slli	a2, a2, 0x3
   10db8: 33 86 c7 00  	add	a2, a5, a2
   10dbc: 83 3f 06 00  	ld	t6, 0x0(a2)
   10dc0: 13 06 10 00  	addi	a2, zero, 0x1
   10dc4: 13 16 b6 00  	slli	a2, a2, 0xb
   10dc8: 33 88 c7 00  	add	a6, a5, a2
   10dcc: 93 d6 53 00  	srli	a3, t2, 0x5
   10dd0: 93 f6 86 7f  	andi	a3, a3, 0x7f8
   10dd4: b3 06 d8 00  	add	a3, a6, a3
   10dd8: 03 b4 06 00  	ld	s0, 0x0(a3)
   10ddc: b7 16 00 00  	lui	a3, 0x1
   10de0: b3 88 d7 00  	add	a7, a5, a3
   10de4: 13 57 de 00  	srli	a4, t3, 0xd
   10de8: 13 77 87 7f  	andi	a4, a4, 0x7f8
   10dec: 33 87 e8 00  	add	a4, a7, a4
   10df0: 83 34 07 00  	ld	s1, 0x0(a4)
   10df4: 13 07 30 00  	addi	a4, zero, 0x3
   10df8: 13 17 b7 00  	slli	a4, a4, 0xb
   10dfc: b3 82 e7 00  	add	t0, a5, a4
   10e00: 1b d9 8e 01  	srliw	s2, t4, 0x18
   10e04: 13 19 39 00  	slli	s2, s2, 0x3
   10e08: 33 89 22 01  	add	s2, t0, s2
   10e0c: 03 39 09 00  	ld	s2, 0x0(s2)
   10e10: 33 cf ef 01  	xor	t5, t6, t5
   10e14: 33 44 94 00  	xor	s0, s0, s1
   10e18: 33 4f 8f 00  	xor	t5, t5, s0
   10e1c: 33 4f 2f 01  	xor	t5, t5, s2
   10e20: 83 3f 85 00  	ld	t6, 0x8(a0)
   10e24: 13 f4 f3 0f  	andi	s0, t2, 0xff
   10e28: 13 14 34 00  	slli	s0, s0, 0x3
   10e2c: 33 84 87 00  	add	s0, a5, s0
   10e30: 03 34 04 00  	ld	s0, 0x0(s0)
   10e34: 93 54 5e 00  	srli	s1, t3, 0x5
   10e38: 93 f4 84 7f  	andi	s1, s1, 0x7f8
   10e3c: b3 04 98 00  	add	s1, a6, s1
   10e40: 83 b4 04 00  	ld	s1, 0x0(s1)
   10e44: 13 d9 de 00  	srli	s2, t4, 0xd
   10e48: 13 79 89 7f  	andi	s2, s2, 0x7f8
   10e4c: 33 89 28 01  	add	s2, a7, s2
   10e50: 03 39 09 00  	ld	s2, 0x0(s2)
   10e54: 9b 59 83 01  	srliw	s3, t1, 0x18
   10e58: 93 99 39 00  	slli	s3, s3, 0x3
   10e5c: b3 89 32 01  	add	s3, t0, s3
   10e60: 83 b9 09 00  	ld	s3, 0x0(s3)
   10e64: b3 4f f4 01  	xor	t6, s0, t6
   10e68: 33 c4 24 01  	xor	s0, s1, s2
   10e6c: b3 cf 8f 00  	xor	t6, t6, s0
   10e70: b3 cf 3f 01  	xor	t6, t6, s3
   10e74: 03 34 05 01  	ld	s0, 0x10(a0)
   10e78: 93 74 fe 0f  	andi	s1, t3, 0xff
   10e7c: 93 94 34 00  	slli	s1, s1, 0x3
   10e80: b3 84 97 00  	add	s1, a5, s1
   10e84: 83 b4 04 00  	ld	s1, 0x0(s1)
   10e88: 13 d9 5e 00  	srli	s2, t4, 0x5
   10e8c: 13 79 89 7f  	andi	s2, s2, 0x7f8
   10e90: 33 09 28 01  	add	s2, a6, s2
   10e94: 03 39 09 00  	ld	s2, 0x0(s2)
   10e98: 93 59 d3 00  	srli	s3, t1, 0xd
   10e9c: 93 f9 89 7f  	andi	s3, s3, 0x7f8
   10ea0: b3 89 38 01  	add	s3, a7, s3
   10ea4: 83 b9 09 00  	ld	s3, 0x0(s3)
   10ea8: 1b da 83 01  	srliw	s4, t2, 0x18
   10eac: 13 1a 3a 00  	slli	s4, s4, 0x3
   10eb0: 33 8a 42 01  	add	s4, t0, s4
   10eb4: 03 3a 0a 00  	ld	s4, 0x0(s4)
   10eb8: 33 c4 84 00  	xor	s0, s1, s0
   10ebc: b3 44 39 01  	xor	s1, s2, s3
   10ec0: 33 44 94 00  	xor	s0, s0, s1
   10ec4: 33 44 44 01  	xor	s0, s0, s4
   10ec8: 83 34 85 01  	ld	s1, 0x18(a0)
   10ecc: 93 fe fe 0f  	andi	t4, t4, 0xff
   10ed0: 93 9e 3e 00  	slli	t4, t4, 0x3
   10ed4: b3 8e d7 01  	add	t4, a5, t4
   10ed8: 83 be 0e 00  	ld	t4, 0x0(t4)
   10edc: 13 53 53 00  	srli	t1, t1, 0x5
   10ee0: 13 73 83 7f  	andi	t1, t1, 0x7f8
   10ee4: 33 03 68 00  	add	t1, a6, t1
   10ee8: 03 33 03 00  	ld	t1, 0x0(t1)
   10eec: 93 d3 d3 00  	srli	t2, t2, 0xd
   10ef0: 93 f3 83 7f  	andi	t2, t2, 0x7f8
   10ef4: b3 83 78 00  	add	t2, a7, t2
   10ef8: 83 b3 03 00  	ld	t2, 0x0(t2)
   10efc: 1b 5e 8e 01  	srliw	t3, t3, 0x18
   10f00: 13 1e 3e 00  	slli	t3, t3, 0x3
   10f04: 33 8e c2 01  	add	t3, t0, t3
   10f08: 03 3e 0e 00  	ld	t3, 0x0(t3)
   10f0c: b3 ce 9e 00  	xor	t4, t4, s1
   10f10: 33 43 73 00  	xor	t1, t1, t2
   10f14: 33 c3 6e 00  	xor	t1, t4, t1
   10f18: b3 43 c3 01  	xor	t2, t1, t3
   10f1c: 03 33 05 02  	ld	t1, 0x20(a0)
   10f20: 13 7e ff 0f  	andi	t3, t5, 0xff
   10f24: 13 1e 3e 00  	slli	t3, t3, 0x3
   10f28: 33 8e c7 01  	add	t3, a5, t3
   10f2c: 03 3e 0e 00  	ld	t3, 0x0(t3)
   10f30: 93 de 5f 00  	srli	t4, t6, 0x5
   10f34: 93 fe 8e 7f  	andi	t4, t4, 0x7f8
   10f38: b3 0e d8 01  	add	t4, a6, t4
   10f3c: 83 be 0e 00  	ld	t4, 0x0(t4)
   10f40: 93 54 d4 00  	srli	s1, s0, 0xd
   10f44: 93 f4 84 7f  	andi	s1, s1, 0x7f8
   10f48: b3 84 98 00  	add	s1, a7, s1
   10f4c: 83 b4 04 00  	ld	s1, 0x0(s1)
   10f50: 1b d9 83 01  	srliw	s2, t2, 0x18
   10f54: 13 19 39 00  	slli	s2, s2, 0x3
   10f58: 33 89 22 01  	add	s2, t0, s2
   10f5c: 03 39 09 00  	ld	s2, 0x0(s2)
   10f60: 33 43 6e 00  	xor	t1, t3, t1
   10f64: 33 ce 9e 00  	xor	t3, t4, s1
   10f68: 33 43 c3 01  	xor	t1, t1, t3
   10f6c: 33 43 23 01  	xor	t1, t1, s2
   10f70: 03 3e 85 02  	ld	t3, 0x28(a0)
   10f74: 93 fe ff 0f  	andi	t4, t6, 0xff
   10f78: 93 9e 3e 00  	slli	t4, t4, 0x3
   10f7c: b3 8e d7 01  	add	t4, a5, t4
   10f80: 83 be 0e 00  	ld	t4, 0x0(t4)
   10f84: 93 54 54 00  	srli	s1, s0, 0x5
   10f88: 93 f4 84 7f  	andi	s1, s1, 0x7f8
   10f8c: b3 04 98 00  	add	s1, a6, s1
   10f90: 83 b4 04 00  	ld	s1, 0x0(s1)
   10f94: 13 d9 d3 00  	srli	s2, t2, 0xd
   10f98: 13 79 89 7f  	andi	s2, s2, 0x7f8
   10f9c: 33 89 28 01  	add	s2, a7, s2
   10fa0: 03 39 09 00  	ld	s2, 0x0(s2)
   10fa4: 9b 59 8f 01  	srliw	s3, t5, 0x18
   10fa8: 93 99 39 00  	slli	s3, s3, 0x3
   10fac: b3 89 32 01  	add	s3, t0, s3
   10fb0: 83 b9 09 00  	ld	s3, 0x0(s3)
   10fb4: 33 ce ce 01  	xor	t3, t4, t3
   10fb8: b3 ce 24 01  	xor	t4, s1, s2
   10fbc: 33 4e de 01  	xor	t3, t3, t4
   10fc0: 33 4e 3e 01  	xor	t3, t3, s3
   10fc4: 83 3e 05 03  	ld	t4, 0x30(a0)
   10fc8: 93 74 f4 0f  	andi	s1, s0, 0xff
   10fcc: 93 94 34 00  	slli	s1, s1, 0x3
   10fd0: b3 84 97 00  	add	s1, a5, s1
   10fd4: 83 b4 04 00  	ld	s1, 0x0(s1)
   10fd8: 13 d9 53 00  	srli	s2, t2, 0x5
   10fdc: 13 79 89 7f  	andi	s2, s2, 0x7f8
   10fe0: 33 09 28 01  	add	s2, a6, s2
   10fe4: 03 39 09 00  	ld	s2, 0x0(s2)
   10fe8: 93 59 df 00  	srli	s3, t5, 0xd
   10fec: 93 f9 89 7f  	andi	s3, s3, 0x7f8
   10ff0: b3 89 38 01  	add	s3, a7, s3
   10ff4: 83 b9 09 00  	ld	s3, 0x0(s3)
   10ff8: 1b da 8f 01  	srliw	s4, t6, 0x18
   10ffc: 13 1a 3a 00  	slli	s4, s4, 0x3
   11000: 33 8a 42 01  	add	s4, t0, s4
   11004: 03 3a 0a 00  	ld	s4, 0x0(s4)
   11008: b3 ce d4 01  	xor	t4, s1, t4
   1100c: b3 44 39 01  	xor	s1, s2, s3
   11010: b3 ce 9e 00  	xor	t4, t4, s1
   11014: b3 c4 4e 01  	xor	s1, t4, s4
   11018: 83 3e 85 03  	ld	t4, 0x38(a0)
   1101c: 93 f3 f3 0f  	andi	t2, t2, 0xff
   11020: 93 93 33 00  	slli	t2, t2, 0x3
   11024: b3 83 77 00  	add	t2, a5, t2
   11028: 83 b3 03 00  	ld	t2, 0x0(t2)
   1102c: 13 5f 5f 00  	srli	t5, t5, 0x5
   11030: 13 7f 8f 7f  	andi	t5, t5, 0x7f8
   11034: 33 0f e8 01  	add	t5, a6, t5
   11038: 03 3f 0f 00  	ld	t5, 0x0(t5)
   1103c: 93 df df 00  	srli	t6, t6, 0xd
   11040: 93 ff 8f 7f  	andi	t6, t6, 0x7f8
   11044: b3 8f f8 01  	add	t6, a7, t6
   11048: 83 bf 0f 00  	ld	t6, 0x0(t6)
   1104c: 1b 54 84 01  	srliw	s0, s0, 0x18
   11050: 13 14 34 00  	slli	s0, s0, 0x3
   11054: 33 84 82 00  	add	s0, t0, s0
   11058: 03 34 04 00  	ld	s0, 0x0(s0)
   1105c: b3 c3 d3 01  	xor	t2, t2, t4
   11060: b3 4e ff 01  	xor	t4, t5, t6
   11064: b3 c3 d3 01  	xor	t2, t2, t4
   11068: b3 cf 83 00  	xor	t6, t2, s0
   1106c: 83 33 05 04  	ld	t2, 0x40(a0)
   11070: 93 7e f3 0f  	andi	t4, t1, 0xff
   11074: 93 9e 3e 00  	slli	t4, t4, 0x3
   11078: b3 8e d7 01  	add	t4, a5, t4
   1107c: 83 be 0e 00  	ld	t4, 0x0(t4)
   11080: 13 5f 5e 00  	srli	t5, t3, 0x5
   11084: 13 7f 8f 7f  	andi	t5, t5, 0x7f8
   11088: 33 0f e8 01  	add	t5, a6, t5
   1108c: 03 3f 0f 00  	ld	t5, 0x0(t5)
   11090: 13 d4 d4 00  	srli	s0, s1, 0xd
   11094: 13 74 84 7f  	andi	s0, s0, 0x7f8
   11098: 33 84 88 00  	add	s0, a7, s0
   1109c: 03 34 04 00  	ld	s0, 0x0(s0)
   110a0: 1b d9 8f 01  	srliw	s2, t6, 0x18
   110a4: 13 19 39 00  	slli	s2, s2, 0x3
   110a8: 33 89 22 01  	add	s2, t0, s2
   110ac: 03 39 09 00  	ld	s2, 0x0(s2)
   110b0: b3 c3 7e 00  	xor	t2, t4, t2
   110b4: b3 4e 8f 00  	xor	t4, t5, s0
   110b8: b3 c3 d3 01  	xor	t2, t2, t4
   110bc: b3 c3 23 01  	xor	t2, t2, s2
   110c0: 83 3e 85 04  	ld	t4, 0x48(a0)
   110c4: 13 7f fe 0f  	andi	t5, t3, 0xff
   110c8: 13 1f 3f 00  	slli	t5, t5, 0x3
   110cc: 33 8f e7 01  	add	t5, a5, t5
   110d0: 03 3f 0f 00  	ld	t5, 0x0(t5)
   110d4: 13 d4 54 00  	srli	s0, s1, 0x5
   110d8: 13 74 84 7f  	andi	s0, s0, 0x7f8
   110dc: 33 04 88 00  	add	s0, a6, s0
   110e0: 03 34 04 00  	ld	s0, 0x0(s0)
   110e4: 13 d9 df 00  	srli	s2, t6, 0xd
   110e8: 13 79 89 7f  	andi	s2, s2, 0x7f8
   110ec: 33 89 28 01  	add	s2, a7, s2
   110f0: 03 39 09 00  	ld	s2, 0x0(s2)
   110f4: 9b 59 83 01  	srliw	s3, t1, 0x18
   110f8: 93 99 39 00  	slli	s3, s3, 0x3
   110fc: b3 89 32 01  	add	s3, t0, s3
   11100: 83 b9 09 00  	ld	s3, 0x0(s3)
   11104: b3 4e df 01  	xor	t4, t5, t4
   11108: 33 4f 24 01  	xor	t5, s0, s2
   1110c: b3 ce ee 01  	xor	t4, t4, t5
   11110: b3 ce 3e 01  	xor	t4, t4, s3
   11114: 03 3f 05 05  	ld	t5, 0x50(a0)
   11118: 13 f4 f4 0f  	andi	s0, s1, 0xff
   1111c: 13 14 34 00  	slli	s0, s0, 0x3
   11120: 33 84 87 00  	add	s0, a5, s0
   11124: 03 34 04 00  	ld	s0, 0x0(s0)
   11128: 13 d9 5f 00  	srli	s2, t6, 0x5
   1112c: 13 79 89 7f  	andi	s2, s2, 0x7f8
   11130: 33 09 28 01  	add	s2, a6, s2
   11134: 03 39 09 00  	ld	s2, 0x0(s2)
   11138: 93 59 d3 00  	srli	s3, t1, 0xd
   1113c: 93 f9 89 7f  	andi	s3, s3, 0x7f8
   11140: b3 89 38 01  	add	s3, a7, s3
   11144: 83 b9 09 00  	ld	s3, 0x0(s3)
   11148: 1b 5a 8e 01  	srliw	s4, t3, 0x18
   1114c: 13 1a 3a 00  	slli	s4, s4, 0x3
   11150: 33 8a 42 01  	add	s4, t0, s4
   11154: 03 3a 0a 00  	ld	s4, 0x0(s4)
   11158: 33 4f e4 01  	xor	t5, s0, t5
   1115c: 33 44 39 01  	xor	s0, s2, s3
   11160: 33 4f 8f 00  	xor	t5, t5, s0
   11164: 33 4f 4f 01  	xor	t5, t5, s4
   11168: 03 34 85 05  	ld	s0, 0x58(a0)
   1116c: 93 ff ff 0f  	andi	t6, t6, 0xff
   11170: 93 9f 3f 00  	slli	t6, t6, 0x3
   11174: b3 8f f7 01  	add	t6, a5, t6
   11178: 83 bf 0f 00  	ld	t6, 0x0(t6)
   1117c: 13 53 53 00  	srli	t1, t1, 0x5
   11180: 13 73 83 7f  	andi	t1, t1, 0x7f8
   11184: 33 03 68 00  	add	t1, a6, t1
   11188: 03 33 03 00  	ld	t1, 0x0(t1)
   1118c: 13 5e de 00  	srli	t3, t3, 0xd
   11190: 13 7e 8e 7f  	andi	t3, t3, 0x7f8
   11194: 33 8e c8 01  	add	t3, a7, t3
   11198: 03 3e 0e 00  	ld	t3, 0x0(t3)
   1119c: 9b d4 84 01  	srliw	s1, s1, 0x18
   111a0: 93 94 34 00  	slli	s1, s1, 0x3
   111a4: b3 84 92 00  	add	s1, t0, s1
   111a8: 83 b4 04 00  	ld	s1, 0x0(s1)
   111ac: b3 cf 8f 00  	xor	t6, t6, s0
   111b0: 33 43 c3 01  	xor	t1, t1, t3
   111b4: 33 c4 6f 00  	xor	s0, t6, t1
   111b8: 33 44 94 00  	xor	s0, s0, s1
   111bc: 03 33 05 06  	ld	t1, 0x60(a0)
   111c0: 13 fe f3 0f  	andi	t3, t2, 0xff
   111c4: 13 1e 3e 00  	slli	t3, t3, 0x3
   111c8: 33 8e c7 01  	add	t3, a5, t3
   111cc: 03 3e 0e 00  	ld	t3, 0x0(t3)
   111d0: 93 df 5e 00  	srli	t6, t4, 0x5
   111d4: 93 ff 8f 7f  	andi	t6, t6, 0x7f8
   111d8: b3 0f f8 01  	add	t6, a6, t6
   111dc: 83 bf 0f 00  	ld	t6, 0x0(t6)
   111e0: 93 54 df 00  	srli	s1, t5, 0xd
   111e4: 93 f4 84 7f  	andi	s1, s1, 0x7f8
   111e8: b3 84 98 00  	add	s1, a7, s1
   111ec: 83 b4 04 00  	ld	s1, 0x0(s1)
   111f0: 1b 59 84 01  	srliw	s2, s0, 0x18
   111f4: 13 19 39 00  	slli	s2, s2, 0x3
   111f8: 33 89 22 01  	add	s2, t0, s2
   111fc: 03 39 09 00  	ld	s2, 0x0(s2)
   11200: 33 43 6e 00  	xor	t1, t3, t1
   11204: 33 ce 9f 00  	xor	t3, t6, s1
   11208: 33 43 c3 01  	xor	t1, t1, t3
   1120c: 33 43 23 01  	xor	t1, t1, s2
   11210: 03 3e 85 06  	ld	t3, 0x68(a0)
   11214: 93 ff fe 0f  	andi	t6, t4, 0xff
   11218: 93 9f 3f 00  	slli	t6, t6, 0x3
   1121c: b3 8f f7 01  	add	t6, a5, t6
   11220: 83 bf 0f 00  	ld	t6, 0x0(t6)
   11224: 93 54 5f 00  	srli	s1, t5, 0x5
   11228: 93 f4 84 7f  	andi	s1, s1, 0x7f8
   1122c: b3 04 98 00  	add	s1, a6, s1
   11230: 83 b4 04 00  	ld	s1, 0x0(s1)
   11234: 13 59 d4 00  	srli	s2, s0, 0xd
   11238: 13 79 89 7f  	andi	s2, s2, 0x7f8
   1123c: 33 89 28 01  	add	s2, a7, s2
   11240: 03 39 09 00  	ld	s2, 0x0(s2)
   11244: 9b d9 83 01  	srliw	s3, t2, 0x18
   11248: 93 99 39 00  	slli	s3, s3, 0x3
   1124c: b3 89 32 01  	add	s3, t0, s3
   11250: 83 b9 09 00  	ld	s3, 0x0(s3)
   11254: 33 ce cf 01  	xor	t3, t6, t3
   11258: b3 cf 24 01  	xor	t6, s1, s2
   1125c: 33 4e fe 01  	xor	t3, t3, t6
   11260: 33 4e 3e 01  	xor	t3, t3, s3
   11264: 83 3f 05 07  	ld	t6, 0x70(a0)
   11268: 93 74 ff 0f  	andi	s1, t5, 0xff
   1126c: 93 94 34 00  	slli	s1, s1, 0x3
   11270: b3 84 97 00  	add	s1, a5, s1
   11274: 83 b4 04 00  	ld	s1, 0x0(s1)
   11278: 13 59 54 00  	srli	s2, s0, 0x5
   1127c: 13 79 89 7f  	andi	s2, s2, 0x7f8
   11280: 33 09 28 01  	add	s2, a6, s2
   11284: 03 39 09 00  	ld	s2, 0x0(s2)
   11288: 93 d9 d3 00  	srli	s3, t2, 0xd
   1128c: 93 f9 89 7f  	andi	s3, s3, 0x7f8
   11290: b3 89 38 01  	add	s3, a7, s3
   11294: 83 b9 09 00  	ld	s3, 0x0(s3)
   11298: 1b da 8e 01  	srliw	s4, t4, 0x18
   1129c: 13 1a 3a 00  	slli	s4, s4, 0x3
   112a0: 33 8a 42 01  	add	s4, t0, s4
   112a4: 03 3a 0a 00  	ld	s4, 0x0(s4)
   112a8: b3 cf f4 01  	xor	t6, s1, t6
   112ac: b3 44 39 01  	xor	s1, s2, s3
   112b0: b3 cf 9f 00  	xor	t6, t6, s1
   112b4: b3 cf 4f 01  	xor	t6, t6, s4
   112b8: 83 34 85 07  	ld	s1, 0x78(a0)
   112bc: 13 74 f4 0f  	andi	s0, s0, 0xff
   112c0: 13 14 34 00  	slli	s0, s0, 0x3
   112c4: 33 84 87 00  	add	s0, a5, s0
   112c8: 03 34 04 00  	ld	s0, 0x0(s0)
   112cc: 93 d3 53 00  	srli	t2, t2, 0x5
   112d0: 93 f3 83 7f  	andi	t2, t2, 0x7f8
   112d4: b3 03 78 00  	add	t2, a6, t2
   112d8: 83 b3 03 00  	ld	t2, 0x0(t2)
   112dc: 93 de de 00  	srli	t4, t4, 0xd
   112e0: 93 fe 8e 7f  	andi	t4, t4, 0x7f8
   112e4: b3 8e d8 01  	add	t4, a7, t4
   112e8: 83 be 0e 00  	ld	t4, 0x0(t4)
   112ec: 1b 5f 8f 01  	srliw	t5, t5, 0x18
   112f0: 13 1f 3f 00  	slli	t5, t5, 0x3
   112f4: 33 8f e2 01  	add	t5, t0, t5
   112f8: 03 3f 0f 00  	ld	t5, 0x0(t5)
   112fc: 33 44 94 00  	xor	s0, s0, s1
   11300: b3 c3 d3 01  	xor	t2, t2, t4
   11304: b3 43 74 00  	xor	t2, s0, t2
   11308: 33 c4 e3 01  	xor	s0, t2, t5
   1130c: 83 33 05 08  	ld	t2, 0x80(a0)
   11310: 93 7e f3 0f  	andi	t4, t1, 0xff
   11314: 93 9e 3e 00  	slli	t4, t4, 0x3
   11318: b3 8e d7 01  	add	t4, a5, t4
   1131c: 83 be 0e 00  	ld	t4, 0x0(t4)
   11320: 13 5f 5e 00  	srli	t5, t3, 0x5
   11324: 13 7f 8f 7f  	andi	t5, t5, 0x7f8
   11328: 33 0f e8 01  	add	t5, a6, t5
   1132c: 03 3f 0f 00  	ld	t5, 0x0(t5)
   11330: 93 d4 df 00  	srli	s1, t6, 0xd
   11334: 93 f4 84 7f  	andi	s1, s1, 0x7f8
   11338: b3 84 98 00  	add	s1, a7, s1
   1133c: 83 b4 04 00  	ld	s1, 0x0(s1)
   11340: 1b 59 84 01  	srliw	s2, s0, 0x18
   11344: 13 19 39 00  	slli	s2, s2, 0x3
   11348: 33 89 22 01  	add	s2, t0, s2
   1134c: 03 39 09 00  	ld	s2, 0x0(s2)
   11350: b3 c3 7e 00  	xor	t2, t4, t2
   11354: b3 4e 9f 00  	xor	t4, t5, s1
   11358: b3 c3 d3 01  	xor	t2, t2, t4
   1135c: b3 c3 23 01  	xor	t2, t2, s2
   11360: 83 3e 85 08  	ld	t4, 0x88(a0)
   11364: 13 7f fe 0f  	andi	t5, t3, 0xff
   11368: 13 1f 3f 00  	slli	t5, t5, 0x3
   1136c: 33 8f e7 01  	add	t5, a5, t5
   11370: 03 3f 0f 00  	ld	t5, 0x0(t5)
   11374: 93 d4 5f 00  	srli	s1, t6, 0x5
   11378: 93 f4 84 7f  	andi	s1, s1, 0x7f8
   1137c: b3 04 98 00  	add	s1, a6, s1
   11380: 83 b4 04 00  	ld	s1, 0x0(s1)
   11384: 13 59 d4 00  	srli	s2, s0, 0xd
   11388: 13 79 89 7f  	andi	s2, s2, 0x7f8
   1138c: 33 89 28 01  	add	s2, a7, s2
   11390: 03 39 09 00  	ld	s2, 0x0(s2)
   11394: 9b 59 83 01  	srliw	s3, t1, 0x18
   11398: 93 99 39 00  	slli	s3, s3, 0x3
   1139c: b3 89 32 01  	add	s3, t0, s3
   113a0: 83 b9 09 00  	ld	s3, 0x0(s3)
   113a4: b3 4e df 01  	xor	t4, t5, t4
   113a8: 33 cf 24 01  	xor	t5, s1, s2
   113ac: b3 ce ee 01  	xor	t4, t4, t5
   113b0: b3 ce 3e 01  	xor	t4, t4, s3
   113b4: 03 3f 05 09  	ld	t5, 0x90(a0)
   113b8: 93 f4 ff 0f  	andi	s1, t6, 0xff
   113bc: 93 94 34 00  	slli	s1, s1, 0x3
   113c0: b3 84 97 00  	add	s1, a5, s1
   113c4: 83 b4 04 00  	ld	s1, 0x0(s1)
   113c8: 13 59 54 00  	srli	s2, s0, 0x5
   113cc: 13 79 89 7f  	andi	s2, s2, 0x7f8
   113d0: 33 09 28 01  	add	s2, a6, s2
   113d4: 03 39 09 00  	ld	s2, 0x0(s2)
   113d8: 93 59 d3 00  	srli	s3, t1, 0xd
   113dc: 93 f9 89 7f  	andi	s3, s3, 0x7f8
   113e0: b3 89 38 01  	add	s3, a7, s3
   113e4: 83 b9 09 00  	ld	s3, 0x0(s3)
   113e8: 1b 5a 8e 01  	srliw	s4, t3, 0x18
   113ec: 13 1a 3a 00  	slli	s4, s4, 0x3
   113f0: 33 8a 42 01  	add	s4, t0, s4
   113f4: 03 3a 0a 00  	ld	s4, 0x0(s4)
   113f8: 33 cf e4 01  	xor	t5, s1, t5
   113fc: b3 44 39 01  	xor	s1, s2, s3
   11400: 33 4f 9f 00  	xor	t5, t5, s1
   11404: 33 4f 4f 01  	xor	t5, t5, s4
   11408: 83 34 85 09  	ld	s1, 0x98(a0)
   1140c: 13 74 f4 0f  	andi	s0, s0, 0xff
   11410: 13 14 34 00  	slli	s0, s0, 0x3
   11414: 33 84 87 00  	add	s0, a5, s0
   11418: 03 34 04 00  	ld	s0, 0x0(s0)
   1141c: 13 53 53 00  	srli	t1, t1, 0x5
   11420: 13 73 83 7f  	andi	t1, t1, 0x7f8
   11424: 33 03 68 00  	add	t1, a6, t1
   11428: 03 33 03 00  	ld	t1, 0x0(t1)
   1142c: 13 5e de 00  	srli	t3, t3, 0xd
   11430: 13 7e 8e 7f  	andi	t3, t3, 0x7f8
   11434: 33 8e c8 01  	add	t3, a7, t3
   11438: 03 3e 0e 00  	ld	t3, 0x0(t3)
   1143c: 9b df 8f 01  	srliw	t6, t6, 0x18
   11440: 93 9f 3f 00  	slli	t6, t6, 0x3
   11444: b3 8f f2 01  	add	t6, t0, t6
   11448: 83 bf 0f 00  	ld	t6, 0x0(t6)
   1144c: 33 44 94 00  	xor	s0, s0, s1
   11450: 33 43 c3 01  	xor	t1, t1, t3
   11454: 33 43 64 00  	xor	t1, s0, t1
   11458: 33 44 f3 01  	xor	s0, t1, t6
   1145c: 03 33 05 0a  	ld	t1, 0xa0(a0)
   11460: 13 fe f3 0f  	andi	t3, t2, 0xff
   11464: 13 1e 3e 00  	slli	t3, t3, 0x3
   11468: 33 8e c7 01  	add	t3, a5, t3
   1146c: 03 3e 0e 00  	ld	t3, 0x0(t3)
   11470: 93 df 5e 00  	srli	t6, t4, 0x5
   11474: 93 ff 8f 7f  	andi	t6, t6, 0x7f8
   11478: b3 0f f8 01  	add	t6, a6, t6
   1147c: 83 bf 0f 00  	ld	t6, 0x0(t6)
   11480: 93 54 df 00  	srli	s1, t5, 0xd
   11484: 93 f4 84 7f  	andi	s1, s1, 0x7f8
   11488: b3 84 98 00  	add	s1, a7, s1
   1148c: 83 b4 04 00  	ld	s1, 0x0(s1)
   11490: 1b 59 84 01  	srliw	s2, s0, 0x18
   11494: 13 19 39 00  	slli	s2, s2, 0x3
   11498: 33 89 22 01  	add	s2, t0, s2
   1149c: 03 39 09 00  	ld	s2, 0x0(s2)
   114a0: 33 43 6e 00  	xor	t1, t3, t1
   114a4: 33 ce 9f 00  	xor	t3, t6, s1
   114a8: 33 43 c3 01  	xor	t1, t1, t3
   114ac: 33 43 23 01  	xor	t1, t1, s2
   114b0: 03 3e 85 0a  	ld	t3, 0xa8(a0)
   114b4: 93 ff fe 0f  	andi	t6, t4, 0xff
   114b8: 93 9f 3f 00  	slli	t6, t6, 0x3
   114bc: b3 8f f7 01  	add	t6, a5, t6
   114c0: 83 bf 0f 00  	ld	t6, 0x0(t6)
   114c4: 93 54 5f 00  	srli	s1, t5, 0x5
   114c8: 93 f4 84 7f  	andi	s1, s1, 0x7f8
   114cc: b3 04 98 00  	add	s1, a6, s1
   114d0: 83 b4 04 00  	ld	s1, 0x0(s1)
   114d4: 13 59 d4 00  	srli	s2, s0, 0xd
   114d8: 13 79 89 7f  	andi	s2, s2, 0x7f8
   114dc: 33 89 28 01  	add	s2, a7, s2
   114e0: 03 39 09 00  	ld	s2, 0x0(s2)
   114e4: 9b d9 83 01  	srliw	s3, t2, 0x18
   114e8: 93 99 39 00  	slli	s3, s3, 0x3
   114ec: b3 89 32 01  	add	s3, t0, s3
   114f0: 83 b9 09 00  	ld	s3, 0x0(s3)
   114f4: 33 ce cf 01  	xor	t3, t6, t3
   114f8: b3 cf 24 01  	xor	t6, s1, s2
   114fc: 33 4e fe 01  	xor	t3, t3, t6
   11500: 33 4e 3e 01  	xor	t3, t3, s3
   11504: 83 3f 05 0b  	ld	t6, 0xb0(a0)
   11508: 93 74 ff 0f  	andi	s1, t5, 0xff
   1150c: 93 94 34 00  	slli	s1, s1, 0x3
   11510: b3 84 97 00  	add	s1, a5, s1
   11514: 83 b4 04 00  	ld	s1, 0x0(s1)
   11518: 13 59 54 00  	srli	s2, s0, 0x5
   1151c: 13 79 89 7f  	andi	s2, s2, 0x7f8
   11520: 33 09 28 01  	add	s2, a6, s2
   11524: 03 39 09 00  	ld	s2, 0x0(s2)
   11528: 93 d9 d3 00  	srli	s3, t2, 0xd
   1152c: 93 f9 89 7f  	andi	s3, s3, 0x7f8
   11530: b3 89 38 01  	add	s3, a7, s3
   11534: 83 b9 09 00  	ld	s3, 0x0(s3)
   11538: 1b da 8e 01  	srliw	s4, t4, 0x18
   1153c: 13 1a 3a 00  	slli	s4, s4, 0x3
   11540: 33 8a 42 01  	add	s4, t0, s4
   11544: 03 3a 0a 00  	ld	s4, 0x0(s4)
   11548: b3 cf f4 01  	xor	t6, s1, t6
   1154c: b3 44 39 01  	xor	s1, s2, s3
   11550: b3 cf 9f 00  	xor	t6, t6, s1
   11554: b3 cf 4f 01  	xor	t6, t6, s4
   11558: 83 34 85 0b  	ld	s1, 0xb8(a0)
   1155c: 13 74 f4 0f  	andi	s0, s0, 0xff
   11560: 13 14 34 00  	slli	s0, s0, 0x3
   11564: 33 84 87 00  	add	s0, a5, s0
   11568: 03 34 04 00  	ld	s0, 0x0(s0)
   1156c: 93 d3 53 00  	srli	t2, t2, 0x5
   11570: 93 f3 83 7f  	andi	t2, t2, 0x7f8
   11574: b3 03 78 00  	add	t2, a6, t2
   11578: 83 b3 03 00  	ld	t2, 0x0(t2)
   1157c: 93 de de 00  	srli	t4, t4, 0xd
   11580: 93 fe 8e 7f  	andi	t4, t4, 0x7f8
   11584: b3 8e d8 01  	add	t4, a7, t4
   11588: 83 be 0e 00  	ld	t4, 0x0(t4)
   1158c: 1b 5f 8f 01  	srliw	t5, t5, 0x18
   11590: 13 1f 3f 00  	slli	t5, t5, 0x3
   11594: 33 8f e2 01  	add	t5, t0, t5
   11598: 03 3f 0f 00  	ld	t5, 0x0(t5)
   1159c: 33 44 94 00  	xor	s0, s0, s1
   115a0: b3 c3 d3 01  	xor	t2, t2, t4
   115a4: b3 43 74 00  	xor	t2, s0, t2
   115a8: 33 c4 e3 01  	xor	s0, t2, t5
   115ac: 83 33 05 0c  	ld	t2, 0xc0(a0)
   115b0: 93 7e f3 0f  	andi	t4, t1, 0xff
   115b4: 93 9e 3e 00  	slli	t4, t4, 0x3
   115b8: b3 8e d7 01  	add	t4, a5, t4
   115bc: 83 be 0e 00  	ld	t4, 0x0(t4)
   115c0: 13 5f 5e 00  	srli	t5, t3, 0x5
   115c4: 13 7f 8f 7f  	andi	t5, t5, 0x7f8
   115c8: 33 0f e8 01  	add	t5, a6, t5
   115cc: 03 3f 0f 00  	ld	t5, 0x0(t5)
   115d0: 93 d4 df 00  	srli	s1, t6, 0xd
   115d4: 93 f4 84 7f  	andi	s1, s1, 0x7f8
   115d8: b3 84 98 00  	add	s1, a7, s1
   115dc: 83 b4 04 00  	ld	s1, 0x0(s1)
   115e0: 1b 59 84 01  	srliw	s2, s0, 0x18
   115e4: 13 19 39 00  	slli	s2, s2, 0x3
   115e8: 33 89 22 01  	add	s2, t0, s2
   115ec: 03 39 09 00  	ld	s2, 0x0(s2)
   115f0: b3 c3 7e 00  	xor	t2, t4, t2
   115f4: b3 4e 9f 00  	xor	t4, t5, s1
   115f8: b3 c3 d3 01  	xor	t2, t2, t4
   115fc: b3 c3 23 01  	xor	t2, t2, s2
   11600: 83 3e 85 0c  	ld	t4, 0xc8(a0)
   11604: 13 7f fe 0f  	andi	t5, t3, 0xff
   11608: 13 1f 3f 00  	slli	t5, t5, 0x3
   1160c: 33 8f e7 01  	add	t5, a5, t5
   11610: 03 3f 0f 00  	ld	t5, 0x0(t5)
   11614: 93 d4 5f 00  	srli	s1, t6, 0x5
   11618: 93 f4 84 7f  	andi	s1, s1, 0x7f8
   1161c: b3 04 98 00  	add	s1, a6, s1
   11620: 83 b4 04 00  	ld	s1, 0x0(s1)
   11624: 13 59 d4 00  	srli	s2, s0, 0xd
   11628: 13 79 89 7f  	andi	s2, s2, 0x7f8
   1162c: 33 89 28 01  	add	s2, a7, s2
   11630: 03 39 09 00  	ld	s2, 0x0(s2)
   11634: 9b 59 83 01  	srliw	s3, t1, 0x18
   11638: 93 99 39 00  	slli	s3, s3, 0x3
   1163c: b3 89 32 01  	add	s3, t0, s3
   11640: 83 b9 09 00  	ld	s3, 0x0(s3)
   11644: b3 4e df 01  	xor	t4, t5, t4
   11648: 33 cf 24 01  	xor	t5, s1, s2
   1164c: b3 ce ee 01  	xor	t4, t4, t5
   11650: b3 ce 3e 01  	xor	t4, t4, s3
   11654: 03 3f 05 0d  	ld	t5, 0xd0(a0)
   11658: 93 f4 ff 0f  	andi	s1, t6, 0xff
   1165c: 93 94 34 00  	slli	s1, s1, 0x3
   11660: b3 84 97 00  	add	s1, a5, s1
   11664: 83 b4 04 00  	ld	s1, 0x0(s1)
   11668: 13 59 54 00  	srli	s2, s0, 0x5
   1166c: 13 79 89 7f  	andi	s2, s2, 0x7f8
   11670: 33 09 28 01  	add	s2, a6, s2
   11674: 03 39 09 00  	ld	s2, 0x0(s2)
   11678: 93 59 d3 00  	srli	s3, t1, 0xd
   1167c: 93 f9 89 7f  	andi	s3, s3, 0x7f8
   11680: b3 89 38 01  	add	s3, a7, s3
   11684: 83 b9 09 00  	ld	s3, 0x0(s3)
   11688: 1b 5a 8e 01  	srliw	s4, t3, 0x18
   1168c: 13 1a 3a 00  	slli	s4, s4, 0x3
   11690: 33 8a 42 01  	add	s4, t0, s4
   11694: 03 3a 0a 00  	ld	s4, 0x0(s4)
   11698: 33 cf e4 01  	xor	t5, s1, t5
   1169c: b3 44 39 01  	xor	s1, s2, s3
   116a0: 33 4f 9f 00  	xor	t5, t5, s1
   116a4: 33 4f 4f 01  	xor	t5, t5, s4
   116a8: 83 34 85 0d  	ld	s1, 0xd8(a0)
   116ac: 13 74 f4 0f  	andi	s0, s0, 0xff
   116b0: 13 14 34 00  	slli	s0, s0, 0x3
   116b4: 33 84 87 00  	add	s0, a5, s0
   116b8: 03 34 04 00  	ld	s0, 0x0(s0)
   116bc: 13 53 53 00  	srli	t1, t1, 0x5
   116c0: 13 73 83 7f  	andi	t1, t1, 0x7f8
   116c4: 33 03 68 00  	add	t1, a6, t1
   116c8: 03 33 03 00  	ld	t1, 0x0(t1)
   116cc: 13 5e de 00  	srli	t3, t3, 0xd
   116d0: 13 7e 8e 7f  	andi	t3, t3, 0x7f8
   116d4: 33 8e c8 01  	add	t3, a7, t3
   116d8: 03 3e 0e 00  	ld	t3, 0x0(t3)
   116dc: 9b df 8f 01  	srliw	t6, t6, 0x18
   116e0: 93 9f 3f 00  	slli	t6, t6, 0x3
   116e4: b3 8f f2 01  	add	t6, t0, t6
   116e8: 83 bf 0f 00  	ld	t6, 0x0(t6)
   116ec: 33 44 94 00  	xor	s0, s0, s1
   116f0: 33 43 c3 01  	xor	t1, t1, t3
   116f4: 33 43 64 00  	xor	t1, s0, t1
   116f8: b3 4f f3 01  	xor	t6, t1, t6
   116fc: 03 33 05 0e  	ld	t1, 0xe0(a0)
   11700: 13 fe f3 0f  	andi	t3, t2, 0xff
   11704: 13 1e 3e 00  	slli	t3, t3, 0x3
   11708: 33 8e c7 01  	add	t3, a5, t3
   1170c: 03 3e 0e 00  	ld	t3, 0x0(t3)
   11710: 13 d4 5e 00  	srli	s0, t4, 0x5
   11714: 13 74 84 7f  	andi	s0, s0, 0x7f8
   11718: 33 04 88 00  	add	s0, a6, s0
   1171c: 03 34 04 00  	ld	s0, 0x0(s0)
   11720: 93 54 df 00  	srli	s1, t5, 0xd
   11724: 93 f4 84 7f  	andi	s1, s1, 0x7f8
   11728: b3 84 98 00  	add	s1, a7, s1
   1172c: 83 b4 04 00  	ld	s1, 0x0(s1)
   11730: 1b d9 8f 01  	srliw	s2, t6, 0x18
   11734: 13 19 39 00  	slli	s2, s2, 0x3
   11738: 33 89 22 01  	add	s2, t0, s2
   1173c: 03 39 09 00  	ld	s2, 0x0(s2)
   11740: 33 43 6e 00  	xor	t1, t3, t1
   11744: 33 44 94 00  	xor	s0, s0, s1
   11748: 33 43 83 00  	xor	t1, t1, s0
   1174c: 33 43 23 01  	xor	t1, t1, s2
   11750: 03 3e 85 0e  	ld	t3, 0xe8(a0)
   11754: 13 f4 fe 0f  	andi	s0, t4, 0xff
   11758: 13 14 34 00  	slli	s0, s0, 0x3
   1175c: 33 84 87 00  	add	s0, a5, s0
   11760: 03 34 04 00  	ld	s0, 0x0(s0)
   11764: 93 54 5f 00  	srli	s1, t5, 0x5
   11768: 93 f4 84 7f  	andi	s1, s1, 0x7f8
   1176c: b3 04 98 00  	add	s1, a6, s1
   11770: 83 b4 04 00  	ld	s1, 0x0(s1)
   11774: 13 d9 df 00  	srli	s2, t6, 0xd
   11778: 13 79 89 7f  	andi	s2, s2, 0x7f8
   1177c: 33 89 28 01  	add	s2, a7, s2
   11780: 03 39 09 00  	ld	s2, 0x0(s2)
   11784: 9b d9 83 01  	srliw	s3, t2, 0x18
   11788: 93 99 39 00  	slli	s3, s3, 0x3
   1178c: b3 89 32 01  	add	s3, t0, s3
   11790: 83 b9 09 00  	ld	s3, 0x0(s3)
   11794: 33 4e c4 01  	xor	t3, s0, t3
   11798: 33 c4 24 01  	xor	s0, s1, s2
   1179c: 33 4e 8e 00  	xor	t3, t3, s0
   117a0: 33 4e 3e 01  	xor	t3, t3, s3
   117a4: 03 34 05 0f  	ld	s0, 0xf0(a0)
   117a8: 93 74 ff 0f  	andi	s1, t5, 0xff
   117ac: 93 94 34 00  	slli	s1, s1, 0x3
   117b0: b3 84 97 00  	add	s1, a5, s1
   117b4: 83 b4 04 00  	ld	s1, 0x0(s1)
   117b8: 13 d9 5f 00  	srli	s2, t6, 0x5
   117bc: 13 79 89 7f  	andi	s2, s2, 0x7f8
   117c0: 33 09 28 01  	add	s2, a6, s2
   117c4: 03 39 09 00  	ld	s2, 0x0(s2)
   117c8: 93 d9 d3 00  	srli	s3, t2, 0xd
   117cc: 93 f9 89 7f  	andi	s3, s3, 0x7f8
   117d0: b3 89 38 01  	add	s3, a7, s3
   117d4: 83 b9 09 00  	ld	s3, 0x0(s3)
   117d8: 1b da 8e 01  	srliw	s4, t4, 0x18
   117dc: 13 1a 3a 00  	slli	s4, s4, 0x3
   117e0: 33 8a 42 01  	add	s4, t0, s4
   117e4: 03 3a 0a 00  	ld	s4, 0x0(s4)
   117e8: 33 c4 84 00  	xor	s0, s1, s0
   117ec: b3 44 39 01  	xor	s1, s2, s3
   117f0: 33 44 94 00  	xor	s0, s0, s1
   117f4: 33 44 44 01  	xor	s0, s0, s4
   117f8: 83 34 85 0f  	ld	s1, 0xf8(a0)
   117fc: 93 ff ff 0f  	andi	t6, t6, 0xff
   11800: 93 9f 3f 00  	slli	t6, t6, 0x3
   11804: b3 8f f7 01  	add	t6, a5, t6
   11808: 83 bf 0f 00  	ld	t6, 0x0(t6)
   1180c: 93 d3 53 00  	srli	t2, t2, 0x5
   11810: 93 f3 83 7f  	andi	t2, t2, 0x7f8
   11814: b3 03 78 00  	add	t2, a6, t2
   11818: 83 b3 03 00  	ld	t2, 0x0(t2)
   1181c: 93 de de 00  	srli	t4, t4, 0xd
   11820: 93 fe 8e 7f  	andi	t4, t4, 0x7f8
   11824: b3 8e d8 01  	add	t4, a7, t4
   11828: 83 be 0e 00  	ld	t4, 0x0(t4)
   1182c: 1b 5f 8f 01  	srliw	t5, t5, 0x18
   11830: 13 1f 3f 00  	slli	t5, t5, 0x3
   11834: 33 8f e2 01  	add	t5, t0, t5
   11838: 03 3f 0f 00  	ld	t5, 0x0(t5)
   1183c: b3 cf 9f 00  	xor	t6, t6, s1
   11840: b3 c3 d3 01  	xor	t2, t2, t4
   11844: b3 c3 7f 00  	xor	t2, t6, t2
   11848: b3 c3 e3 01  	xor	t2, t2, t5
   1184c: 83 3e 05 10  	ld	t4, 0x100(a0)
   11850: 13 7f f3 0f  	andi	t5, t1, 0xff
   11854: 13 1f 3f 00  	slli	t5, t5, 0x3
   11858: 33 8f e7 01  	add	t5, a5, t5
   1185c: 03 3f 0f 00  	ld	t5, 0x0(t5)
   11860: 93 5f 5e 00  	srli	t6, t3, 0x5
   11864: 93 ff 8f 7f  	andi	t6, t6, 0x7f8
   11868: b3 0f f8 01  	add	t6, a6, t6
   1186c: 83 bf 0f 00  	ld	t6, 0x0(t6)
   11870: 93 54 d4 00  	srli	s1, s0, 0xd
   11874: 93 f4 84 7f  	andi	s1, s1, 0x7f8
   11878: b3 84 98 00  	add	s1, a7, s1
   1187c: 83 b4 04 00  	ld	s1, 0x0(s1)
   11880: 1b d9 83 01  	srliw	s2, t2, 0x18
   11884: 13 19 39 00  	slli	s2, s2, 0x3
   11888: 33 89 22 01  	add	s2, t0, s2
   1188c: 03 39 09 00  	ld	s2, 0x0(s2)
   11890: b3 4e df 01  	xor	t4, t5, t4
   11894: 33 cf 9f 00  	xor	t5, t6, s1
   11898: b3 ce ee 01  	xor	t4, t4, t5
   1189c: b3 ce 2e 01  	xor	t4, t4, s2
   118a0: 03 3f 85 10  	ld	t5, 0x108(a0)
   118a4: 93 7f fe 0f  	andi	t6, t3, 0xff
   118a8: 93 9f 3f 00  	slli	t6, t6, 0x3
   118ac: b3 8f f7 01  	add	t6, a5, t6
   118b0: 83 bf 0f 00  	ld	t6, 0x0(t6)
   118b4: 93 54 54 00  	srli	s1, s0, 0x5
   118b8: 93 f4 84 7f  	andi	s1, s1, 0x7f8
   118bc: b3 04 98 00  	add	s1, a6, s1
   118c0: 83 b4 04 00  	ld	s1, 0x0(s1)
   118c4: 13 d9 d3 00  	srli	s2, t2, 0xd
   118c8: 13 79 89 7f  	andi	s2, s2, 0x7f8
   118cc: 33 89 28 01  	add	s2, a7, s2
   118d0: 03 39 09 00  	ld	s2, 0x0(s2)
   118d4: 9b 59 83 01  	srliw	s3, t1, 0x18
   118d8: 93 99 39 00  	slli	s3, s3, 0x3
   118dc: b3 89 32 01  	add	s3, t0, s3
   118e0: 83 b9 09 00  	ld	s3, 0x0(s3)
   118e4: 33 cf ef 01  	xor	t5, t6, t5
   118e8: b3 cf 24 01  	xor	t6, s1, s2
   118ec: 33 4f ff 01  	xor	t5, t5, t6
   118f0: 33 4f 3f 01  	xor	t5, t5, s3
   118f4: 83 3f 05 11  	ld	t6, 0x110(a0)
   118f8: 93 74 f4 0f  	andi	s1, s0, 0xff
   118fc: 93 94 34 00  	slli	s1, s1, 0x3
   11900: b3 84 97 00  	add	s1, a5, s1
   11904: 83 b4 04 00  	ld	s1, 0x0(s1)
   11908: 13 d9 53 00  	srli	s2, t2, 0x5
   1190c: 13 79 89 7f  	andi	s2, s2, 0x7f8
   11910: 33 09 28 01  	add	s2, a6, s2
   11914: 03 39 09 00  	ld	s2, 0x0(s2)
   11918: 93 59 d3 00  	srli	s3, t1, 0xd
   1191c: 93 f9 89 7f  	andi	s3, s3, 0x7f8
   11920: b3 89 38 01  	add	s3, a7, s3
   11924: 83 b9 09 00  	ld	s3, 0x0(s3)
   11928: 1b 5a 8e 01  	srliw	s4, t3, 0x18
   1192c: 13 1a 3a 00  	slli	s4, s4, 0x3
   11930: 33 8a 42 01  	add	s4, t0, s4
   11934: 03 3a 0a 00  	ld	s4, 0x0(s4)
   11938: b3 cf f4 01  	xor	t6, s1, t6
   1193c: b3 44 39 01  	xor	s1, s2, s3
   11940: b3 cf 9f 00  	xor	t6, t6, s1
   11944: b3 cf 4f 01  	xor	t6, t6, s4
   11948: 83 34 85 11  	ld	s1, 0x118(a0)
   1194c: 93 f3 f3 0f  	andi	t2, t2, 0xff
   11950: 93 93 33 00  	slli	t2, t2, 0x3
   11954: b3 87 77 00  	add	a5, a5, t2
   11958: 83 b7 07 00  	ld	a5, 0x0(a5)
   1195c: 13 53 53 00  	srli	t1, t1, 0x5
   11960: 13 73 83 7f  	andi	t1, t1, 0x7f8
   11964: 33 08 68 00  	add	a6, a6, t1
   11968: 03 38 08 00  	ld	a6, 0x0(a6)
   1196c: 13 53 de 00  	srli	t1, t3, 0xd
   11970: 13 73 83 7f  	andi	t1, t1, 0x7f8
   11974: b3 88 68 00  	add	a7, a7, t1
   11978: 83 b8 08 00  	ld	a7, 0x0(a7)
   1197c: 1b 53 84 01  	srliw	t1, s0, 0x18
   11980: 13 13 33 00  	slli	t1, t1, 0x3
   11984: b3 82 62 00  	add	t0, t0, t1
   11988: 83 b2 02 00  	ld	t0, 0x0(t0)
   1198c: b3 c7 97 00  	xor	a5, a5, s1
   11990: 33 48 18 01  	xor	a6, a6, a7
   11994: b3 c7 07 01  	xor	a5, a5, a6
   11998: b3 c7 57 00  	xor	a5, a5, t0
   1199c: 83 38 05 12  	ld	a7, 0x120(a0)
   119a0: 13 f8 fe 0f  	andi	a6, t4, 0xff
   119a4: 93 12 38 00  	slli	t0, a6, 0x3
   119a8: 37 18 02 00  	lui	a6, 0x21
   119ac: 13 08 08 11  	addi	a6, a6, 0x110
   119b0: b3 02 58 00  	add	t0, a6, t0
   119b4: 83 b2 02 00  	ld	t0, 0x0(t0)
   119b8: 13 53 5f 00  	srli	t1, t5, 0x5
   119bc: 13 73 83 7f  	andi	t1, t1, 0x7f8
   119c0: 33 06 c8 00  	add	a2, a6, a2
   119c4: 33 03 66 00  	add	t1, a2, t1
   119c8: 03 33 03 00  	ld	t1, 0x0(t1)
   119cc: 93 d3 df 00  	srli	t2, t6, 0xd
   119d0: 93 f3 83 7f  	andi	t2, t2, 0x7f8
   119d4: b3 06 d8 00  	add	a3, a6, a3
   119d8: b3 83 76 00  	add	t2, a3, t2
   119dc: 83 b3 03 00  	ld	t2, 0x0(t2)
   119e0: 1b de 87 01  	srliw	t3, a5, 0x18
   119e4: 13 1e 3e 00  	slli	t3, t3, 0x3
   119e8: 33 07 e8 00  	add	a4, a6, a4
   119ec: 33 0e c7 01  	add	t3, a4, t3
   119f0: 03 3e 0e 00  	ld	t3, 0x0(t3)
   119f4: b3 c8 12 01  	xor	a7, t0, a7
   119f8: b3 42 73 00  	xor	t0, t1, t2
   119fc: b3 c8 58 00  	xor	a7, a7, t0
   11a00: 33 c3 c8 01  	xor	t1, a7, t3
   11a04: 83 38 85 12  	ld	a7, 0x128(a0)
   11a08: 93 72 ff 0f  	andi	t0, t5, 0xff
   11a0c: 93 92 32 00  	slli	t0, t0, 0x3
   11a10: b3 02 58 00  	add	t0, a6, t0
   11a14: 83 b2 02 00  	ld	t0, 0x0(t0)
   11a18: 93 d3 5f 00  	srli	t2, t6, 0x5
   11a1c: 93 f3 83 7f  	andi	t2, t2, 0x7f8
   11a20: b3 03 76 00  	add	t2, a2, t2
   11a24: 83 b3 03 00  	ld	t2, 0x0(t2)
   11a28: 13 de d7 00  	srli	t3, a5, 0xd
   11a2c: 13 7e 8e 7f  	andi	t3, t3, 0x7f8
   11a30: 33 8e c6 01  	add	t3, a3, t3
   11a34: 03 3e 0e 00  	ld	t3, 0x0(t3)
   11a38: 1b d4 8e 01  	srliw	s0, t4, 0x18
   11a3c: 13 14 34 00  	slli	s0, s0, 0x3
   11a40: 33 04 87 00  	add	s0, a4, s0
   11a44: 03 34 04 00  	ld	s0, 0x0(s0)
   11a48: b3 c8 12 01  	xor	a7, t0, a7
   11a4c: b3 c2 c3 01  	xor	t0, t2, t3
   11a50: b3 c8 58 00  	xor	a7, a7, t0
   11a54: b3 c3 88 00  	xor	t2, a7, s0
   11a58: 83 38 05 13  	ld	a7, 0x130(a0)
   11a5c: 93 f2 ff 0f  	andi	t0, t6, 0xff
   11a60: 93 92 32 00  	slli	t0, t0, 0x3
   11a64: b3 02 58 00  	add	t0, a6, t0
   11a68: 83 b2 02 00  	ld	t0, 0x0(t0)
   11a6c: 13 de 57 00  	srli	t3, a5, 0x5
   11a70: 13 7e 8e 7f  	andi	t3, t3, 0x7f8
   11a74: 33 0e c6 01  	add	t3, a2, t3
   11a78: 03 3e 0e 00  	ld	t3, 0x0(t3)
   11a7c: 13 d4 de 00  	srli	s0, t4, 0xd
   11a80: 13 74 84 7f  	andi	s0, s0, 0x7f8
   11a84: 33 84 86 00  	add	s0, a3, s0
   11a88: 03 34 04 00  	ld	s0, 0x0(s0)
   11a8c: 9b 54 8f 01  	srliw	s1, t5, 0x18
   11a90: 93 94 34 00  	slli	s1, s1, 0x3
   11a94: b3 04 97 00  	add	s1, a4, s1
   11a98: 83 b4 04 00  	ld	s1, 0x0(s1)
   11a9c: b3 c8 12 01  	xor	a7, t0, a7
   11aa0: b3 42 8e 00  	xor	t0, t3, s0
   11aa4: b3 c8 58 00  	xor	a7, a7, t0
   11aa8: 33 ce 98 00  	xor	t3, a7, s1
   11aac: 03 35 85 13  	ld	a0, 0x138(a0)
   11ab0: 93 f7 f7 0f  	andi	a5, a5, 0xff
   11ab4: 93 97 37 00  	slli	a5, a5, 0x3
   11ab8: b3 07 f8 00  	add	a5, a6, a5
   11abc: 83 b7 07 00  	ld	a5, 0x0(a5)
   11ac0: 13 d8 5e 00  	srli	a6, t4, 0x5
   11ac4: 13 78 88 7f  	andi	a6, a6, 0x7f8
   11ac8: 33 06 06 01  	add	a2, a2, a6
   11acc: 03 36 06 00  	ld	a2, 0x0(a2)
   11ad0: 13 58 df 00  	srli	a6, t5, 0xd
   11ad4: 13 78 88 7f  	andi	a6, a6, 0x7f8
   11ad8: b3 86 06 01  	add	a3, a3, a6
   11adc: 83 b6 06 00  	ld	a3, 0x0(a3)
   11ae0: 1b d8 8f 01  	srliw	a6, t6, 0x18
   11ae4: 13 18 38 00  	slli	a6, a6, 0x3
   11ae8: 33 07 07 01  	add	a4, a4, a6
   11aec: 03 37 07 00  	ld	a4, 0x0(a4)
   11af0: 33 c5 a7 00  	xor	a0, a5, a0
   11af4: 33 46 d6 00  	xor	a2, a2, a3
   11af8: 33 45 c5 00  	xor	a0, a0, a2
   11afc: b3 4e e5 00  	xor	t4, a0, a4
   11b00: 23 b0 65 00  	sd	t1, 0x0(a1)
   11b04: 23 b2 75 00  	sd	t2, 0x4(a1)
   11b08: 23 b4 c5 01  	sd	t3, 0x8(a1)
   11b0c: 23 b6 d5 01  	sd	t4, 0xc(a1)
   11b10: 13 05 10 00  	addi	a0, zero, 0x1
   11b14: 6f b0 60 2a  	jal	zero, 0x1cdba <__riscv_restore_5>
   11b18: 67 80 00 00  	jalr	zero, 0x0(ra)

0000000000011b1c <decrypt>:
   11b1c: 83 46 06 41  	lbu	a3, 0x410(a2)
   11b20: 93 f6 26 00  	andi	a3, a3, 0x2
   11b24: 63 96 06 00  	bne	a3, zero, 0x11b30 <decrypt+0x14>
   11b28: 13 05 00 00  	addi	a0, zero, 0x0
   11b2c: 67 80 00 00  	jalr	zero, 0x0(ra)
   11b30: ef b2 00 25  	jal	t0, 0x1cd80 <__riscv_save_5>
   11b34: 83 36 05 00  	ld	a3, 0x0(a0)
   11b38: 03 37 06 21  	ld	a4, 0x210(a2)
   11b3c: 33 43 d7 00  	xor	t1, a4, a3
   11b40: 83 36 45 00  	ld	a3, 0x4(a0)
   11b44: 03 37 86 21  	ld	a4, 0x218(a2)
   11b48: 83 37 85 00  	ld	a5, 0x8(a0)
   11b4c: 03 38 06 22  	ld	a6, 0x220(a2)
   11b50: 03 35 c5 00  	ld	a0, 0xc(a0)
   11b54: 83 38 86 22  	ld	a7, 0x228(a2)
   11b58: b3 43 d7 00  	xor	t2, a4, a3
   11b5c: 83 36 86 00  	ld	a3, 0x8(a2)
   11b60: 33 4e f8 00  	xor	t3, a6, a5
   11b64: b3 ce a8 00  	xor	t4, a7, a0
   11b68: 13 07 a0 00  	addi	a4, zero, 0xa
   11b6c: 13 05 06 23  	addi	a0, a2, 0x230
   11b70: 63 84 e6 5a  	beq	a3, a4, 0x12118 <decrypt+0x5fc>
   11b74: 13 07 c0 00  	addi	a4, zero, 0xc
   11b78: 63 8c e6 2c  	beq	a3, a4, 0x11e50 <decrypt+0x334>
   11b7c: 13 05 e0 00  	addi	a0, zero, 0xe
   11b80: 63 84 a6 00  	beq	a3, a0, 0x11b88 <decrypt+0x6c>
   11b84: 6f 10 00 2f  	jal	zero, 0x12e74 <decrypt+0x1358>
   11b88: 03 38 06 23  	ld	a6, 0x230(a2)
   11b8c: 93 76 f3 0f  	andi	a3, t1, 0xff
   11b90: 37 f5 01 00  	lui	a0, 0x1f
   11b94: 13 05 05 11  	addi	a0, a0, 0x110
   11b98: 93 96 36 00  	slli	a3, a3, 0x3
   11b9c: b3 06 d5 00  	add	a3, a0, a3
   11ba0: 83 b8 06 00  	ld	a7, 0x0(a3)
   11ba4: 93 d6 5e 00  	srli	a3, t4, 0x5
   11ba8: 13 f7 86 7f  	andi	a4, a3, 0x7f8
   11bac: 93 06 f5 7f  	addi	a3, a0, 0x7ff
   11bb0: 93 86 16 00  	addi	a3, a3, 0x1
   11bb4: 33 87 e6 00  	add	a4, a3, a4
   11bb8: 83 32 07 00  	ld	t0, 0x0(a4)
   11bbc: 37 17 00 00  	lui	a4, 0x1
   11bc0: 33 07 e5 00  	add	a4, a0, a4
   11bc4: 93 57 de 00  	srli	a5, t3, 0xd
   11bc8: 93 f7 87 7f  	andi	a5, a5, 0x7f8
   11bcc: b3 07 f7 00  	add	a5, a4, a5
   11bd0: 03 bf 07 00  	ld	t5, 0x0(a5)
   11bd4: 93 07 30 00  	addi	a5, zero, 0x3
   11bd8: 93 97 b7 00  	slli	a5, a5, 0xb
   11bdc: b3 07 f5 00  	add	a5, a0, a5
   11be0: 9b df 83 01  	srliw	t6, t2, 0x18
   11be4: 93 9f 3f 00  	slli	t6, t6, 0x3
   11be8: b3 8f f7 01  	add	t6, a5, t6
   11bec: 83 bf 0f 00  	ld	t6, 0x0(t6)
   11bf0: 33 c8 08 01  	xor	a6, a7, a6
   11bf4: b3 c8 e2 01  	xor	a7, t0, t5
   11bf8: 33 48 18 01  	xor	a6, a6, a7
   11bfc: 33 48 f8 01  	xor	a6, a6, t6
   11c00: 83 38 86 23  	ld	a7, 0x238(a2)
   11c04: 93 f2 f3 0f  	andi	t0, t2, 0xff
   11c08: 93 92 32 00  	slli	t0, t0, 0x3
   11c0c: b3 02 55 00  	add	t0, a0, t0
   11c10: 83 b2 02 00  	ld	t0, 0x0(t0)
   11c14: 13 5f 53 00  	srli	t5, t1, 0x5
   11c18: 13 7f 8f 7f  	andi	t5, t5, 0x7f8
   11c1c: 33 8f e6 01  	add	t5, a3, t5
   11c20: 03 3f 0f 00  	ld	t5, 0x0(t5)
   11c24: 93 df de 00  	srli	t6, t4, 0xd
   11c28: 93 ff 8f 7f  	andi	t6, t6, 0x7f8
   11c2c: b3 0f f7 01  	add	t6, a4, t6
   11c30: 83 bf 0f 00  	ld	t6, 0x0(t6)
   11c34: 1b 54 8e 01  	srliw	s0, t3, 0x18
   11c38: 13 14 34 00  	slli	s0, s0, 0x3
   11c3c: 33 84 87 00  	add	s0, a5, s0
   11c40: 03 34 04 00  	ld	s0, 0x0(s0)
   11c44: b3 c8 12 01  	xor	a7, t0, a7
   11c48: b3 42 ff 01  	xor	t0, t5, t6
   11c4c: b3 c8 58 00  	xor	a7, a7, t0
   11c50: b3 c8 88 00  	xor	a7, a7, s0
   11c54: 83 32 06 24  	ld	t0, 0x240(a2)
   11c58: 13 7f fe 0f  	andi	t5, t3, 0xff
   11c5c: 13 1f 3f 00  	slli	t5, t5, 0x3
   11c60: 33 0f e5 01  	add	t5, a0, t5
   11c64: 03 3f 0f 00  	ld	t5, 0x0(t5)
   11c68: 93 df 53 00  	srli	t6, t2, 0x5
   11c6c: 93 ff 8f 7f  	andi	t6, t6, 0x7f8
   11c70: b3 8f f6 01  	add	t6, a3, t6
   11c74: 83 bf 0f 00  	ld	t6, 0x0(t6)
   11c78: 13 54 d3 00  	srli	s0, t1, 0xd
   11c7c: 13 74 84 7f  	andi	s0, s0, 0x7f8
   11c80: 33 04 87 00  	add	s0, a4, s0
   11c84: 03 34 04 00  	ld	s0, 0x0(s0)
   11c88: 9b d4 8e 01  	srliw	s1, t4, 0x18
   11c8c: 93 94 34 00  	slli	s1, s1, 0x3
   11c90: b3 84 97 00  	add	s1, a5, s1
   11c94: 83 b4 04 00  	ld	s1, 0x0(s1)
   11c98: b3 42 5f 00  	xor	t0, t5, t0
   11c9c: 33 cf 8f 00  	xor	t5, t6, s0
   11ca0: b3 c2 e2 01  	xor	t0, t0, t5
   11ca4: b3 c2 92 00  	xor	t0, t0, s1
   11ca8: 03 3f 86 24  	ld	t5, 0x248(a2)
   11cac: 93 fe fe 0f  	andi	t4, t4, 0xff
   11cb0: 93 9e 3e 00  	slli	t4, t4, 0x3
   11cb4: b3 0e d5 01  	add	t4, a0, t4
   11cb8: 83 be 0e 00  	ld	t4, 0x0(t4)
   11cbc: 13 5e 5e 00  	srli	t3, t3, 0x5
   11cc0: 13 7e 8e 7f  	andi	t3, t3, 0x7f8
   11cc4: 33 8e c6 01  	add	t3, a3, t3
   11cc8: 03 3e 0e 00  	ld	t3, 0x0(t3)
   11ccc: 93 d3 d3 00  	srli	t2, t2, 0xd
   11cd0: 93 f3 83 7f  	andi	t2, t2, 0x7f8
   11cd4: b3 03 77 00  	add	t2, a4, t2
   11cd8: 83 b3 03 00  	ld	t2, 0x0(t2)
   11cdc: 1b 53 83 01  	srliw	t1, t1, 0x18
   11ce0: 13 13 33 00  	slli	t1, t1, 0x3
   11ce4: 33 83 67 00  	add	t1, a5, t1
   11ce8: 03 33 03 00  	ld	t1, 0x0(t1)
   11cec: b3 ce ee 01  	xor	t4, t4, t5
   11cf0: b3 43 7e 00  	xor	t2, t3, t2
   11cf4: b3 c3 7e 00  	xor	t2, t4, t2
   11cf8: b3 ce 63 00  	xor	t4, t2, t1
   11cfc: 03 33 06 25  	ld	t1, 0x250(a2)
   11d00: 93 73 f8 0f  	andi	t2, a6, 0xff
   11d04: 93 93 33 00  	slli	t2, t2, 0x3
   11d08: b3 03 75 00  	add	t2, a0, t2
   11d0c: 83 b3 03 00  	ld	t2, 0x0(t2)
   11d10: 13 de 5e 00  	srli	t3, t4, 0x5
   11d14: 13 7e 8e 7f  	andi	t3, t3, 0x7f8
   11d18: 33 8e c6 01  	add	t3, a3, t3
   11d1c: 03 3e 0e 00  	ld	t3, 0x0(t3)
   11d20: 13 df d2 00  	srli	t5, t0, 0xd
   11d24: 13 7f 8f 7f  	andi	t5, t5, 0x7f8
   11d28: 33 0f e7 01  	add	t5, a4, t5
   11d2c: 03 3f 0f 00  	ld	t5, 0x0(t5)
   11d30: 9b df 88 01  	srliw	t6, a7, 0x18
   11d34: 93 9f 3f 00  	slli	t6, t6, 0x3
   11d38: b3 8f f7 01  	add	t6, a5, t6
   11d3c: 83 bf 0f 00  	ld	t6, 0x0(t6)
   11d40: 33 c3 63 00  	xor	t1, t2, t1
   11d44: b3 43 ee 01  	xor	t2, t3, t5
   11d48: 33 43 73 00  	xor	t1, t1, t2
   11d4c: 33 43 f3 01  	xor	t1, t1, t6
   11d50: 83 33 86 25  	ld	t2, 0x258(a2)
   11d54: 13 fe f8 0f  	andi	t3, a7, 0xff
   11d58: 13 1e 3e 00  	slli	t3, t3, 0x3
   11d5c: 33 0e c5 01  	add	t3, a0, t3
   11d60: 03 3e 0e 00  	ld	t3, 0x0(t3)
   11d64: 13 5f 58 00  	srli	t5, a6, 0x5
   11d68: 13 7f 8f 7f  	andi	t5, t5, 0x7f8
   11d6c: 33 8f e6 01  	add	t5, a3, t5
   11d70: 03 3f 0f 00  	ld	t5, 0x0(t5)
   11d74: 93 df de 00  	srli	t6, t4, 0xd
   11d78: 93 ff 8f 7f  	andi	t6, t6, 0x7f8
   11d7c: b3 0f f7 01  	add	t6, a4, t6
   11d80: 83 bf 0f 00  	ld	t6, 0x0(t6)
   11d84: 1b d4 82 01  	srliw	s0, t0, 0x18
   11d88: 13 14 34 00  	slli	s0, s0, 0x3
   11d8c: 33 84 87 00  	add	s0, a5, s0
   11d90: 03 34 04 00  	ld	s0, 0x0(s0)
   11d94: b3 43 7e 00  	xor	t2, t3, t2
   11d98: 33 4e ff 01  	xor	t3, t5, t6
   11d9c: b3 c3 c3 01  	xor	t2, t2, t3
   11da0: b3 c3 83 00  	xor	t2, t2, s0
   11da4: 03 3e 06 26  	ld	t3, 0x260(a2)
   11da8: 13 ff f2 0f  	andi	t5, t0, 0xff
   11dac: 13 1f 3f 00  	slli	t5, t5, 0x3
   11db0: 33 0f e5 01  	add	t5, a0, t5
   11db4: 03 3f 0f 00  	ld	t5, 0x0(t5)
   11db8: 93 df 58 00  	srli	t6, a7, 0x5
   11dbc: 93 ff 8f 7f  	andi	t6, t6, 0x7f8
   11dc0: b3 8f f6 01  	add	t6, a3, t6
   11dc4: 83 bf 0f 00  	ld	t6, 0x0(t6)
   11dc8: 13 54 d8 00  	srli	s0, a6, 0xd
   11dcc: 13 74 84 7f  	andi	s0, s0, 0x7f8
   11dd0: 33 04 87 00  	add	s0, a4, s0
   11dd4: 03 34 04 00  	ld	s0, 0x0(s0)
   11dd8: 9b d4 8e 01  	srliw	s1, t4, 0x18
   11ddc: 93 94 34 00  	slli	s1, s1, 0x3
   11de0: b3 84 97 00  	add	s1, a5, s1
   11de4: 83 b4 04 00  	ld	s1, 0x0(s1)
   11de8: 33 4e cf 01  	xor	t3, t5, t3
   11dec: 33 cf 8f 00  	xor	t5, t6, s0
   11df0: 33 4e ee 01  	xor	t3, t3, t5
   11df4: 33 4e 9e 00  	xor	t3, t3, s1
   11df8: 03 3f 86 26  	ld	t5, 0x268(a2)
   11dfc: 93 fe fe 0f  	andi	t4, t4, 0xff
   11e00: 93 9e 3e 00  	slli	t4, t4, 0x3
   11e04: 33 05 d5 01  	add	a0, a0, t4
   11e08: 03 35 05 00  	ld	a0, 0x0(a0)
   11e0c: 93 d2 52 00  	srli	t0, t0, 0x5
   11e10: 93 f2 82 7f  	andi	t0, t0, 0x7f8
   11e14: b3 86 56 00  	add	a3, a3, t0
   11e18: 83 b6 06 00  	ld	a3, 0x0(a3)
   11e1c: 93 d8 d8 00  	srli	a7, a7, 0xd
   11e20: 93 f8 88 7f  	andi	a7, a7, 0x7f8
   11e24: 33 07 17 01  	add	a4, a4, a7
   11e28: 03 37 07 00  	ld	a4, 0x0(a4)
   11e2c: 1b 58 88 01  	srliw	a6, a6, 0x18
   11e30: 13 18 38 00  	slli	a6, a6, 0x3
   11e34: b3 87 07 01  	add	a5, a5, a6
   11e38: 83 b7 07 00  	ld	a5, 0x0(a5)
   11e3c: 33 45 e5 01  	xor	a0, a0, t5
   11e40: b3 c6 e6 00  	xor	a3, a3, a4
   11e44: 33 45 d5 00  	xor	a0, a0, a3
   11e48: b3 4e f5 00  	xor	t4, a0, a5
   11e4c: 13 05 06 27  	addi	a0, a2, 0x270
   11e50: 03 38 05 00  	ld	a6, 0x0(a0)
   11e54: 93 76 f3 0f  	andi	a3, t1, 0xff
   11e58: 37 f6 01 00  	lui	a2, 0x1f
   11e5c: 13 06 06 11  	addi	a2, a2, 0x110
   11e60: 93 96 36 00  	slli	a3, a3, 0x3
   11e64: b3 06 d6 00  	add	a3, a2, a3
   11e68: 83 b8 06 00  	ld	a7, 0x0(a3)
   11e6c: 93 d6 5e 00  	srli	a3, t4, 0x5
   11e70: 13 f7 86 7f  	andi	a4, a3, 0x7f8
   11e74: 93 06 f6 7f  	addi	a3, a2, 0x7ff
   11e78: 93 86 16 00  	addi	a3, a3, 0x1
   11e7c: 33 87 e6 00  	add	a4, a3, a4
   11e80: 83 32 07 00  	ld	t0, 0x0(a4)
   11e84: 37 17 00 00  	lui	a4, 0x1
   11e88: 33 07 e6 00  	add	a4, a2, a4
   11e8c: 93 57 de 00  	srli	a5, t3, 0xd
   11e90: 93 f7 87 7f  	andi	a5, a5, 0x7f8
   11e94: b3 07 f7 00  	add	a5, a4, a5
   11e98: 03 bf 07 00  	ld	t5, 0x0(a5)
   11e9c: 93 07 30 00  	addi	a5, zero, 0x3
   11ea0: 93 97 b7 00  	slli	a5, a5, 0xb
   11ea4: b3 07 f6 00  	add	a5, a2, a5
   11ea8: 9b df 83 01  	srliw	t6, t2, 0x18
   11eac: 93 9f 3f 00  	slli	t6, t6, 0x3
   11eb0: b3 8f f7 01  	add	t6, a5, t6
   11eb4: 83 bf 0f 00  	ld	t6, 0x0(t6)
   11eb8: 33 c8 08 01  	xor	a6, a7, a6
   11ebc: b3 c8 e2 01  	xor	a7, t0, t5
   11ec0: 33 48 18 01  	xor	a6, a6, a7
   11ec4: 33 48 f8 01  	xor	a6, a6, t6
   11ec8: 83 38 85 00  	ld	a7, 0x8(a0)
   11ecc: 93 f2 f3 0f  	andi	t0, t2, 0xff
   11ed0: 93 92 32 00  	slli	t0, t0, 0x3
   11ed4: b3 02 56 00  	add	t0, a2, t0
   11ed8: 83 b2 02 00  	ld	t0, 0x0(t0)
   11edc: 13 5f 53 00  	srli	t5, t1, 0x5
   11ee0: 13 7f 8f 7f  	andi	t5, t5, 0x7f8
   11ee4: 33 8f e6 01  	add	t5, a3, t5
   11ee8: 03 3f 0f 00  	ld	t5, 0x0(t5)
   11eec: 93 df de 00  	srli	t6, t4, 0xd
   11ef0: 93 ff 8f 7f  	andi	t6, t6, 0x7f8
   11ef4: b3 0f f7 01  	add	t6, a4, t6
   11ef8: 83 bf 0f 00  	ld	t6, 0x0(t6)
   11efc: 1b 54 8e 01  	srliw	s0, t3, 0x18
   11f00: 13 14 34 00  	slli	s0, s0, 0x3
   11f04: 33 84 87 00  	add	s0, a5, s0
   11f08: 03 34 04 00  	ld	s0, 0x0(s0)
   11f0c: b3 c8 12 01  	xor	a7, t0, a7
   11f10: b3 42 ff 01  	xor	t0, t5, t6
   11f14: b3 c8 58 00  	xor	a7, a7, t0
   11f18: b3 c8 88 00  	xor	a7, a7, s0
   11f1c: 83 32 05 01  	ld	t0, 0x10(a0)
   11f20: 13 7f fe 0f  	andi	t5, t3, 0xff
   11f24: 13 1f 3f 00  	slli	t5, t5, 0x3
   11f28: 33 0f e6 01  	add	t5, a2, t5
   11f2c: 03 3f 0f 00  	ld	t5, 0x0(t5)
   11f30: 93 df 53 00  	srli	t6, t2, 0x5
   11f34: 93 ff 8f 7f  	andi	t6, t6, 0x7f8
   11f38: b3 8f f6 01  	add	t6, a3, t6
   11f3c: 83 bf 0f 00  	ld	t6, 0x0(t6)
   11f40: 13 54 d3 00  	srli	s0, t1, 0xd
   11f44: 13 74 84 7f  	andi	s0, s0, 0x7f8
   11f48: 33 04 87 00  	add	s0, a4, s0
   11f4c: 03 34 04 00  	ld	s0, 0x0(s0)
   11f50: 9b d4 8e 01  	srliw	s1, t4, 0x18
   11f54: 93 94 34 00  	slli	s1, s1, 0x3
   11f58: b3 84 97 00  	add	s1, a5, s1
   11f5c: 83 b4 04 00  	ld	s1, 0x0(s1)
   11f60: b3 42 5f 00  	xor	t0, t5, t0
   11f64: 33 cf 8f 00  	xor	t5, t6, s0
   11f68: b3 c2 e2 01  	xor	t0, t0, t5
   11f6c: b3 c2 92 00  	xor	t0, t0, s1
   11f70: 03 3f 85 01  	ld	t5, 0x18(a0)
   11f74: 93 fe fe 0f  	andi	t4, t4, 0xff
   11f78: 93 9e 3e 00  	slli	t4, t4, 0x3
   11f7c: b3 0e d6 01  	add	t4, a2, t4
   11f80: 83 be 0e 00  	ld	t4, 0x0(t4)
   11f84: 13 5e 5e 00  	srli	t3, t3, 0x5
   11f88: 13 7e 8e 7f  	andi	t3, t3, 0x7f8
   11f8c: 33 8e c6 01  	add	t3, a3, t3
   11f90: 03 3e 0e 00  	ld	t3, 0x0(t3)
   11f94: 93 d3 d3 00  	srli	t2, t2, 0xd
   11f98: 93 f3 83 7f  	andi	t2, t2, 0x7f8
   11f9c: b3 03 77 00  	add	t2, a4, t2
   11fa0: 83 b3 03 00  	ld	t2, 0x0(t2)
   11fa4: 1b 53 83 01  	srliw	t1, t1, 0x18
   11fa8: 13 13 33 00  	slli	t1, t1, 0x3
   11fac: 33 83 67 00  	add	t1, a5, t1
   11fb0: 03 33 03 00  	ld	t1, 0x0(t1)
   11fb4: b3 ce ee 01  	xor	t4, t4, t5
   11fb8: b3 43 7e 00  	xor	t2, t3, t2
   11fbc: b3 c3 7e 00  	xor	t2, t4, t2
   11fc0: b3 ce 63 00  	xor	t4, t2, t1
   11fc4: 03 33 05 02  	ld	t1, 0x20(a0)
   11fc8: 93 73 f8 0f  	andi	t2, a6, 0xff
   11fcc: 93 93 33 00  	slli	t2, t2, 0x3
   11fd0: b3 03 76 00  	add	t2, a2, t2
   11fd4: 83 b3 03 00  	ld	t2, 0x0(t2)
   11fd8: 13 de 5e 00  	srli	t3, t4, 0x5
   11fdc: 13 7e 8e 7f  	andi	t3, t3, 0x7f8
   11fe0: 33 8e c6 01  	add	t3, a3, t3
   11fe4: 03 3e 0e 00  	ld	t3, 0x0(t3)
   11fe8: 13 df d2 00  	srli	t5, t0, 0xd
   11fec: 13 7f 8f 7f  	andi	t5, t5, 0x7f8
   11ff0: 33 0f e7 01  	add	t5, a4, t5
   11ff4: 03 3f 0f 00  	ld	t5, 0x0(t5)
   11ff8: 9b df 88 01  	srliw	t6, a7, 0x18
   11ffc: 93 9f 3f 00  	slli	t6, t6, 0x3
   12000: b3 8f f7 01  	add	t6, a5, t6
   12004: 83 bf 0f 00  	ld	t6, 0x0(t6)
   12008: 33 c3 63 00  	xor	t1, t2, t1
   1200c: b3 43 ee 01  	xor	t2, t3, t5
   12010: 33 43 73 00  	xor	t1, t1, t2
   12014: 33 43 f3 01  	xor	t1, t1, t6
   12018: 83 33 85 02  	ld	t2, 0x28(a0)
   1201c: 13 fe f8 0f  	andi	t3, a7, 0xff
   12020: 13 1e 3e 00  	slli	t3, t3, 0x3
   12024: 33 0e c6 01  	add	t3, a2, t3
   12028: 03 3e 0e 00  	ld	t3, 0x0(t3)
   1202c: 13 5f 58 00  	srli	t5, a6, 0x5
   12030: 13 7f 8f 7f  	andi	t5, t5, 0x7f8
   12034: 33 8f e6 01  	add	t5, a3, t5
   12038: 03 3f 0f 00  	ld	t5, 0x0(t5)
   1203c: 93 df de 00  	srli	t6, t4, 0xd
   12040: 93 ff 8f 7f  	andi	t6, t6, 0x7f8
   12044: b3 0f f7 01  	add	t6, a4, t6
   12048: 83 bf 0f 00  	ld	t6, 0x0(t6)
   1204c: 1b d4 82 01  	srliw	s0, t0, 0x18
   12050: 13 14 34 00  	slli	s0, s0, 0x3
   12054: 33 84 87 00  	add	s0, a5, s0
   12058: 03 34 04 00  	ld	s0, 0x0(s0)
   1205c: b3 43 7e 00  	xor	t2, t3, t2
   12060: 33 4e ff 01  	xor	t3, t5, t6
   12064: b3 c3 c3 01  	xor	t2, t2, t3
   12068: b3 c3 83 00  	xor	t2, t2, s0
   1206c: 03 3e 05 03  	ld	t3, 0x30(a0)
   12070: 13 ff f2 0f  	andi	t5, t0, 0xff
   12074: 13 1f 3f 00  	slli	t5, t5, 0x3
   12078: 33 0f e6 01  	add	t5, a2, t5
   1207c: 03 3f 0f 00  	ld	t5, 0x0(t5)
   12080: 93 df 58 00  	srli	t6, a7, 0x5
   12084: 93 ff 8f 7f  	andi	t6, t6, 0x7f8
   12088: b3 8f f6 01  	add	t6, a3, t6
   1208c: 83 bf 0f 00  	ld	t6, 0x0(t6)
   12090: 13 54 d8 00  	srli	s0, a6, 0xd
   12094: 13 74 84 7f  	andi	s0, s0, 0x7f8
   12098: 33 04 87 00  	add	s0, a4, s0
   1209c: 03 34 04 00  	ld	s0, 0x0(s0)
   120a0: 9b d4 8e 01  	srliw	s1, t4, 0x18
   120a4: 93 94 34 00  	slli	s1, s1, 0x3
   120a8: b3 84 97 00  	add	s1, a5, s1
   120ac: 83 b4 04 00  	ld	s1, 0x0(s1)
   120b0: 33 4e cf 01  	xor	t3, t5, t3
   120b4: 33 cf 8f 00  	xor	t5, t6, s0
   120b8: 33 4e ee 01  	xor	t3, t3, t5
   120bc: 33 4e 9e 00  	xor	t3, t3, s1
   120c0: 03 3f 85 03  	ld	t5, 0x38(a0)
   120c4: 93 fe fe 0f  	andi	t4, t4, 0xff
   120c8: 93 9e 3e 00  	slli	t4, t4, 0x3
   120cc: 33 06 d6 01  	add	a2, a2, t4
   120d0: 03 36 06 00  	ld	a2, 0x0(a2)
   120d4: 93 d2 52 00  	srli	t0, t0, 0x5
   120d8: 93 f2 82 7f  	andi	t0, t0, 0x7f8
   120dc: b3 86 56 00  	add	a3, a3, t0
   120e0: 83 b6 06 00  	ld	a3, 0x0(a3)
   120e4: 93 d8 d8 00  	srli	a7, a7, 0xd
   120e8: 93 f8 88 7f  	andi	a7, a7, 0x7f8
   120ec: 33 07 17 01  	add	a4, a4, a7
   120f0: 03 37 07 00  	ld	a4, 0x0(a4)
   120f4: 1b 58 88 01  	srliw	a6, a6, 0x18
   120f8: 13 18 38 00  	slli	a6, a6, 0x3
   120fc: b3 87 07 01  	add	a5, a5, a6
   12100: 83 b7 07 00  	ld	a5, 0x0(a5)
   12104: 33 46 e6 01  	xor	a2, a2, t5
   12108: b3 c6 e6 00  	xor	a3, a3, a4
   1210c: 33 46 d6 00  	xor	a2, a2, a3
   12110: b3 4e f6 00  	xor	t4, a2, a5
   12114: 13 05 05 04  	addi	a0, a0, 0x40
   12118: 03 3f 05 00  	ld	t5, 0x0(a0)
   1211c: 13 76 f3 0f  	andi	a2, t1, 0xff
   12120: b7 f6 01 00  	lui	a3, 0x1f
   12124: 93 87 06 11  	addi	a5, a3, 0x110
   12128: 13 16 36 00  	slli	a2, a2, 0x3
   1212c: 33 86 c7 00  	add	a2, a5, a2
   12130: 83 3f 06 00  	ld	t6, 0x0(a2)
   12134: 13 06 10 00  	addi	a2, zero, 0x1
   12138: 13 16 b6 00  	slli	a2, a2, 0xb
   1213c: 33 88 c7 00  	add	a6, a5, a2
   12140: 93 d6 5e 00  	srli	a3, t4, 0x5
   12144: 93 f6 86 7f  	andi	a3, a3, 0x7f8
   12148: b3 06 d8 00  	add	a3, a6, a3
   1214c: 03 b4 06 00  	ld	s0, 0x0(a3)
   12150: b7 16 00 00  	lui	a3, 0x1
   12154: b3 88 d7 00  	add	a7, a5, a3
   12158: 13 57 de 00  	srli	a4, t3, 0xd
   1215c: 13 77 87 7f  	andi	a4, a4, 0x7f8
   12160: 33 87 e8 00  	add	a4, a7, a4
   12164: 83 34 07 00  	ld	s1, 0x0(a4)
   12168: 13 07 30 00  	addi	a4, zero, 0x3
   1216c: 13 17 b7 00  	slli	a4, a4, 0xb
   12170: b3 82 e7 00  	add	t0, a5, a4
   12174: 1b d9 83 01  	srliw	s2, t2, 0x18
   12178: 13 19 39 00  	slli	s2, s2, 0x3
   1217c: 33 89 22 01  	add	s2, t0, s2
   12180: 03 39 09 00  	ld	s2, 0x0(s2)
   12184: 33 cf ef 01  	xor	t5, t6, t5
   12188: 33 44 94 00  	xor	s0, s0, s1
   1218c: 33 4f 8f 00  	xor	t5, t5, s0
   12190: 33 4f 2f 01  	xor	t5, t5, s2
   12194: 83 3f 85 00  	ld	t6, 0x8(a0)
   12198: 13 f4 f3 0f  	andi	s0, t2, 0xff
   1219c: 13 14 34 00  	slli	s0, s0, 0x3
   121a0: 33 84 87 00  	add	s0, a5, s0
   121a4: 03 34 04 00  	ld	s0, 0x0(s0)
   121a8: 93 54 53 00  	srli	s1, t1, 0x5
   121ac: 93 f4 84 7f  	andi	s1, s1, 0x7f8
   121b0: b3 04 98 00  	add	s1, a6, s1
   121b4: 83 b4 04 00  	ld	s1, 0x0(s1)
   121b8: 13 d9 de 00  	srli	s2, t4, 0xd
   121bc: 13 79 89 7f  	andi	s2, s2, 0x7f8
   121c0: 33 89 28 01  	add	s2, a7, s2
   121c4: 03 39 09 00  	ld	s2, 0x0(s2)
   121c8: 9b 59 8e 01  	srliw	s3, t3, 0x18
   121cc: 93 99 39 00  	slli	s3, s3, 0x3
   121d0: b3 89 32 01  	add	s3, t0, s3
   121d4: 83 b9 09 00  	ld	s3, 0x0(s3)
   121d8: b3 4f f4 01  	xor	t6, s0, t6
   121dc: 33 c4 24 01  	xor	s0, s1, s2
   121e0: b3 cf 8f 00  	xor	t6, t6, s0
   121e4: b3 cf 3f 01  	xor	t6, t6, s3
   121e8: 03 34 05 01  	ld	s0, 0x10(a0)
   121ec: 93 74 fe 0f  	andi	s1, t3, 0xff
   121f0: 93 94 34 00  	slli	s1, s1, 0x3
   121f4: b3 84 97 00  	add	s1, a5, s1
   121f8: 83 b4 04 00  	ld	s1, 0x0(s1)
   121fc: 13 d9 53 00  	srli	s2, t2, 0x5
   12200: 13 79 89 7f  	andi	s2, s2, 0x7f8
   12204: 33 09 28 01  	add	s2, a6, s2
   12208: 03 39 09 00  	ld	s2, 0x0(s2)
   1220c: 93 59 d3 00  	srli	s3, t1, 0xd
   12210: 93 f9 89 7f  	andi	s3, s3, 0x7f8
   12214: b3 89 38 01  	add	s3, a7, s3
   12218: 83 b9 09 00  	ld	s3, 0x0(s3)
   1221c: 1b da 8e 01  	srliw	s4, t4, 0x18
   12220: 13 1a 3a 00  	slli	s4, s4, 0x3
   12224: 33 8a 42 01  	add	s4, t0, s4
   12228: 03 3a 0a 00  	ld	s4, 0x0(s4)
   1222c: 33 c4 84 00  	xor	s0, s1, s0
   12230: b3 44 39 01  	xor	s1, s2, s3
   12234: 33 44 94 00  	xor	s0, s0, s1
   12238: 33 44 44 01  	xor	s0, s0, s4
   1223c: 83 34 85 01  	ld	s1, 0x18(a0)
   12240: 93 fe fe 0f  	andi	t4, t4, 0xff
   12244: 93 9e 3e 00  	slli	t4, t4, 0x3
   12248: b3 8e d7 01  	add	t4, a5, t4
   1224c: 83 be 0e 00  	ld	t4, 0x0(t4)
   12250: 13 5e 5e 00  	srli	t3, t3, 0x5
   12254: 13 7e 8e 7f  	andi	t3, t3, 0x7f8
   12258: 33 0e c8 01  	add	t3, a6, t3
   1225c: 03 3e 0e 00  	ld	t3, 0x0(t3)
   12260: 93 d3 d3 00  	srli	t2, t2, 0xd
   12264: 93 f3 83 7f  	andi	t2, t2, 0x7f8
   12268: b3 83 78 00  	add	t2, a7, t2
   1226c: 83 b3 03 00  	ld	t2, 0x0(t2)
   12270: 1b 53 83 01  	srliw	t1, t1, 0x18
   12274: 13 13 33 00  	slli	t1, t1, 0x3
   12278: 33 83 62 00  	add	t1, t0, t1
   1227c: 03 33 03 00  	ld	t1, 0x0(t1)
   12280: b3 ce 9e 00  	xor	t4, t4, s1
   12284: b3 43 7e 00  	xor	t2, t3, t2
   12288: b3 c3 7e 00  	xor	t2, t4, t2
   1228c: b3 c3 63 00  	xor	t2, t2, t1
   12290: 03 33 05 02  	ld	t1, 0x20(a0)
   12294: 13 7e ff 0f  	andi	t3, t5, 0xff
   12298: 13 1e 3e 00  	slli	t3, t3, 0x3
   1229c: 33 8e c7 01  	add	t3, a5, t3
   122a0: 03 3e 0e 00  	ld	t3, 0x0(t3)
   122a4: 93 de 53 00  	srli	t4, t2, 0x5
   122a8: 93 fe 8e 7f  	andi	t4, t4, 0x7f8
   122ac: b3 0e d8 01  	add	t4, a6, t4
   122b0: 83 be 0e 00  	ld	t4, 0x0(t4)
   122b4: 93 54 d4 00  	srli	s1, s0, 0xd
   122b8: 93 f4 84 7f  	andi	s1, s1, 0x7f8
   122bc: b3 84 98 00  	add	s1, a7, s1
   122c0: 83 b4 04 00  	ld	s1, 0x0(s1)
   122c4: 1b d9 8f 01  	srliw	s2, t6, 0x18
   122c8: 13 19 39 00  	slli	s2, s2, 0x3
   122cc: 33 89 22 01  	add	s2, t0, s2
   122d0: 03 39 09 00  	ld	s2, 0x0(s2)
   122d4: 33 43 6e 00  	xor	t1, t3, t1
   122d8: 33 ce 9e 00  	xor	t3, t4, s1
   122dc: 33 43 c3 01  	xor	t1, t1, t3
   122e0: 33 43 23 01  	xor	t1, t1, s2
   122e4: 03 3e 85 02  	ld	t3, 0x28(a0)
   122e8: 93 fe ff 0f  	andi	t4, t6, 0xff
   122ec: 93 9e 3e 00  	slli	t4, t4, 0x3
   122f0: b3 8e d7 01  	add	t4, a5, t4
   122f4: 83 be 0e 00  	ld	t4, 0x0(t4)
   122f8: 93 54 5f 00  	srli	s1, t5, 0x5
   122fc: 93 f4 84 7f  	andi	s1, s1, 0x7f8
   12300: b3 04 98 00  	add	s1, a6, s1
   12304: 83 b4 04 00  	ld	s1, 0x0(s1)
   12308: 13 d9 d3 00  	srli	s2, t2, 0xd
   1230c: 13 79 89 7f  	andi	s2, s2, 0x7f8
   12310: 33 89 28 01  	add	s2, a7, s2
   12314: 03 39 09 00  	ld	s2, 0x0(s2)
   12318: 9b 59 84 01  	srliw	s3, s0, 0x18
   1231c: 93 99 39 00  	slli	s3, s3, 0x3
   12320: b3 89 32 01  	add	s3, t0, s3
   12324: 83 b9 09 00  	ld	s3, 0x0(s3)
   12328: 33 ce ce 01  	xor	t3, t4, t3
   1232c: b3 ce 24 01  	xor	t4, s1, s2
   12330: 33 4e de 01  	xor	t3, t3, t4
   12334: 33 4e 3e 01  	xor	t3, t3, s3
   12338: 83 3e 05 03  	ld	t4, 0x30(a0)
   1233c: 93 74 f4 0f  	andi	s1, s0, 0xff
   12340: 93 94 34 00  	slli	s1, s1, 0x3
   12344: b3 84 97 00  	add	s1, a5, s1
   12348: 83 b4 04 00  	ld	s1, 0x0(s1)
   1234c: 13 d9 5f 00  	srli	s2, t6, 0x5
   12350: 13 79 89 7f  	andi	s2, s2, 0x7f8
   12354: 33 09 28 01  	add	s2, a6, s2
   12358: 03 39 09 00  	ld	s2, 0x0(s2)
   1235c: 93 59 df 00  	srli	s3, t5, 0xd
   12360: 93 f9 89 7f  	andi	s3, s3, 0x7f8
   12364: b3 89 38 01  	add	s3, a7, s3
   12368: 83 b9 09 00  	ld	s3, 0x0(s3)
   1236c: 1b da 83 01  	srliw	s4, t2, 0x18
   12370: 13 1a 3a 00  	slli	s4, s4, 0x3
   12374: 33 8a 42 01  	add	s4, t0, s4
   12378: 03 3a 0a 00  	ld	s4, 0x0(s4)
   1237c: b3 ce d4 01  	xor	t4, s1, t4
   12380: b3 44 39 01  	xor	s1, s2, s3
   12384: b3 ce 9e 00  	xor	t4, t4, s1
   12388: b3 c4 4e 01  	xor	s1, t4, s4
   1238c: 83 3e 85 03  	ld	t4, 0x38(a0)
   12390: 93 f3 f3 0f  	andi	t2, t2, 0xff
   12394: 93 93 33 00  	slli	t2, t2, 0x3
   12398: b3 83 77 00  	add	t2, a5, t2
   1239c: 83 b3 03 00  	ld	t2, 0x0(t2)
   123a0: 13 54 54 00  	srli	s0, s0, 0x5
   123a4: 13 74 84 7f  	andi	s0, s0, 0x7f8
   123a8: 33 04 88 00  	add	s0, a6, s0
   123ac: 03 34 04 00  	ld	s0, 0x0(s0)
   123b0: 93 df df 00  	srli	t6, t6, 0xd
   123b4: 93 ff 8f 7f  	andi	t6, t6, 0x7f8
   123b8: b3 8f f8 01  	add	t6, a7, t6
   123bc: 83 bf 0f 00  	ld	t6, 0x0(t6)
   123c0: 1b 5f 8f 01  	srliw	t5, t5, 0x18
   123c4: 13 1f 3f 00  	slli	t5, t5, 0x3
   123c8: 33 8f e2 01  	add	t5, t0, t5
   123cc: 03 3f 0f 00  	ld	t5, 0x0(t5)
   123d0: b3 c3 d3 01  	xor	t2, t2, t4
   123d4: b3 4e f4 01  	xor	t4, s0, t6
   123d8: b3 c3 d3 01  	xor	t2, t2, t4
   123dc: b3 cf e3 01  	xor	t6, t2, t5
   123e0: 83 33 05 04  	ld	t2, 0x40(a0)
   123e4: 93 7e f3 0f  	andi	t4, t1, 0xff
   123e8: 93 9e 3e 00  	slli	t4, t4, 0x3
   123ec: b3 8e d7 01  	add	t4, a5, t4
   123f0: 83 be 0e 00  	ld	t4, 0x0(t4)
   123f4: 13 df 5f 00  	srli	t5, t6, 0x5
   123f8: 13 7f 8f 7f  	andi	t5, t5, 0x7f8
   123fc: 33 0f e8 01  	add	t5, a6, t5
   12400: 03 3f 0f 00  	ld	t5, 0x0(t5)
   12404: 13 d4 d4 00  	srli	s0, s1, 0xd
   12408: 13 74 84 7f  	andi	s0, s0, 0x7f8
   1240c: 33 84 88 00  	add	s0, a7, s0
   12410: 03 34 04 00  	ld	s0, 0x0(s0)
   12414: 1b 59 8e 01  	srliw	s2, t3, 0x18
   12418: 13 19 39 00  	slli	s2, s2, 0x3
   1241c: 33 89 22 01  	add	s2, t0, s2
   12420: 03 39 09 00  	ld	s2, 0x0(s2)
   12424: b3 c3 7e 00  	xor	t2, t4, t2
   12428: b3 4e 8f 00  	xor	t4, t5, s0
   1242c: b3 c3 d3 01  	xor	t2, t2, t4
   12430: b3 c3 23 01  	xor	t2, t2, s2
   12434: 83 3e 85 04  	ld	t4, 0x48(a0)
   12438: 13 7f fe 0f  	andi	t5, t3, 0xff
   1243c: 13 1f 3f 00  	slli	t5, t5, 0x3
   12440: 33 8f e7 01  	add	t5, a5, t5
   12444: 03 3f 0f 00  	ld	t5, 0x0(t5)
   12448: 13 54 53 00  	srli	s0, t1, 0x5
   1244c: 13 74 84 7f  	andi	s0, s0, 0x7f8
   12450: 33 04 88 00  	add	s0, a6, s0
   12454: 03 34 04 00  	ld	s0, 0x0(s0)
   12458: 13 d9 df 00  	srli	s2, t6, 0xd
   1245c: 13 79 89 7f  	andi	s2, s2, 0x7f8
   12460: 33 89 28 01  	add	s2, a7, s2
   12464: 03 39 09 00  	ld	s2, 0x0(s2)
   12468: 9b d9 84 01  	srliw	s3, s1, 0x18
   1246c: 93 99 39 00  	slli	s3, s3, 0x3
   12470: b3 89 32 01  	add	s3, t0, s3
   12474: 83 b9 09 00  	ld	s3, 0x0(s3)
   12478: b3 4e df 01  	xor	t4, t5, t4
   1247c: 33 4f 24 01  	xor	t5, s0, s2
   12480: b3 ce ee 01  	xor	t4, t4, t5
   12484: b3 ce 3e 01  	xor	t4, t4, s3
   12488: 03 3f 05 05  	ld	t5, 0x50(a0)
   1248c: 13 f4 f4 0f  	andi	s0, s1, 0xff
   12490: 13 14 34 00  	slli	s0, s0, 0x3
   12494: 33 84 87 00  	add	s0, a5, s0
   12498: 03 34 04 00  	ld	s0, 0x0(s0)
   1249c: 13 59 5e 00  	srli	s2, t3, 0x5
   124a0: 13 79 89 7f  	andi	s2, s2, 0x7f8
   124a4: 33 09 28 01  	add	s2, a6, s2
   124a8: 03 39 09 00  	ld	s2, 0x0(s2)
   124ac: 93 59 d3 00  	srli	s3, t1, 0xd
   124b0: 93 f9 89 7f  	andi	s3, s3, 0x7f8
   124b4: b3 89 38 01  	add	s3, a7, s3
   124b8: 83 b9 09 00  	ld	s3, 0x0(s3)
   124bc: 1b da 8f 01  	srliw	s4, t6, 0x18
   124c0: 13 1a 3a 00  	slli	s4, s4, 0x3
   124c4: 33 8a 42 01  	add	s4, t0, s4
   124c8: 03 3a 0a 00  	ld	s4, 0x0(s4)
   124cc: 33 4f e4 01  	xor	t5, s0, t5
   124d0: 33 44 39 01  	xor	s0, s2, s3
   124d4: 33 4f 8f 00  	xor	t5, t5, s0
   124d8: 33 4f 4f 01  	xor	t5, t5, s4
   124dc: 03 34 85 05  	ld	s0, 0x58(a0)
   124e0: 93 ff ff 0f  	andi	t6, t6, 0xff
   124e4: 93 9f 3f 00  	slli	t6, t6, 0x3
   124e8: b3 8f f7 01  	add	t6, a5, t6
   124ec: 83 bf 0f 00  	ld	t6, 0x0(t6)
   124f0: 93 d4 54 00  	srli	s1, s1, 0x5
   124f4: 93 f4 84 7f  	andi	s1, s1, 0x7f8
   124f8: b3 04 98 00  	add	s1, a6, s1
   124fc: 83 b4 04 00  	ld	s1, 0x0(s1)
   12500: 13 5e de 00  	srli	t3, t3, 0xd
   12504: 13 7e 8e 7f  	andi	t3, t3, 0x7f8
   12508: 33 8e c8 01  	add	t3, a7, t3
   1250c: 03 3e 0e 00  	ld	t3, 0x0(t3)
   12510: 1b 53 83 01  	srliw	t1, t1, 0x18
   12514: 13 13 33 00  	slli	t1, t1, 0x3
   12518: 33 83 62 00  	add	t1, t0, t1
   1251c: 03 33 03 00  	ld	t1, 0x0(t1)
   12520: b3 cf 8f 00  	xor	t6, t6, s0
   12524: 33 ce c4 01  	xor	t3, s1, t3
   12528: 33 ce cf 01  	xor	t3, t6, t3
   1252c: 33 44 6e 00  	xor	s0, t3, t1
   12530: 03 33 05 06  	ld	t1, 0x60(a0)
   12534: 13 fe f3 0f  	andi	t3, t2, 0xff
   12538: 13 1e 3e 00  	slli	t3, t3, 0x3
   1253c: 33 8e c7 01  	add	t3, a5, t3
   12540: 03 3e 0e 00  	ld	t3, 0x0(t3)
   12544: 93 5f 54 00  	srli	t6, s0, 0x5
   12548: 93 ff 8f 7f  	andi	t6, t6, 0x7f8
   1254c: b3 0f f8 01  	add	t6, a6, t6
   12550: 83 bf 0f 00  	ld	t6, 0x0(t6)
   12554: 93 54 df 00  	srli	s1, t5, 0xd
   12558: 93 f4 84 7f  	andi	s1, s1, 0x7f8
   1255c: b3 84 98 00  	add	s1, a7, s1
   12560: 83 b4 04 00  	ld	s1, 0x0(s1)
   12564: 1b d9 8e 01  	srliw	s2, t4, 0x18
   12568: 13 19 39 00  	slli	s2, s2, 0x3
   1256c: 33 89 22 01  	add	s2, t0, s2
   12570: 03 39 09 00  	ld	s2, 0x0(s2)
   12574: 33 43 6e 00  	xor	t1, t3, t1
   12578: 33 ce 9f 00  	xor	t3, t6, s1
   1257c: 33 43 c3 01  	xor	t1, t1, t3
   12580: 33 43 23 01  	xor	t1, t1, s2
   12584: 03 3e 85 06  	ld	t3, 0x68(a0)
   12588: 93 ff fe 0f  	andi	t6, t4, 0xff
   1258c: 93 9f 3f 00  	slli	t6, t6, 0x3
   12590: b3 8f f7 01  	add	t6, a5, t6
   12594: 83 bf 0f 00  	ld	t6, 0x0(t6)
   12598: 93 d4 53 00  	srli	s1, t2, 0x5
   1259c: 93 f4 84 7f  	andi	s1, s1, 0x7f8
   125a0: b3 04 98 00  	add	s1, a6, s1
   125a4: 83 b4 04 00  	ld	s1, 0x0(s1)
   125a8: 13 59 d4 00  	srli	s2, s0, 0xd
   125ac: 13 79 89 7f  	andi	s2, s2, 0x7f8
   125b0: 33 89 28 01  	add	s2, a7, s2
   125b4: 03 39 09 00  	ld	s2, 0x0(s2)
   125b8: 9b 59 8f 01  	srliw	s3, t5, 0x18
   125bc: 93 99 39 00  	slli	s3, s3, 0x3
   125c0: b3 89 32 01  	add	s3, t0, s3
   125c4: 83 b9 09 00  	ld	s3, 0x0(s3)
   125c8: 33 ce cf 01  	xor	t3, t6, t3
   125cc: b3 cf 24 01  	xor	t6, s1, s2
   125d0: 33 4e fe 01  	xor	t3, t3, t6
   125d4: 33 4e 3e 01  	xor	t3, t3, s3
   125d8: 83 3f 05 07  	ld	t6, 0x70(a0)
   125dc: 93 74 ff 0f  	andi	s1, t5, 0xff
   125e0: 93 94 34 00  	slli	s1, s1, 0x3
   125e4: b3 84 97 00  	add	s1, a5, s1
   125e8: 83 b4 04 00  	ld	s1, 0x0(s1)
   125ec: 13 d9 5e 00  	srli	s2, t4, 0x5
   125f0: 13 79 89 7f  	andi	s2, s2, 0x7f8
   125f4: 33 09 28 01  	add	s2, a6, s2
   125f8: 03 39 09 00  	ld	s2, 0x0(s2)
   125fc: 93 d9 d3 00  	srli	s3, t2, 0xd
   12600: 93 f9 89 7f  	andi	s3, s3, 0x7f8
   12604: b3 89 38 01  	add	s3, a7, s3
   12608: 83 b9 09 00  	ld	s3, 0x0(s3)
   1260c: 1b 5a 84 01  	srliw	s4, s0, 0x18
   12610: 13 1a 3a 00  	slli	s4, s4, 0x3
   12614: 33 8a 42 01  	add	s4, t0, s4
   12618: 03 3a 0a 00  	ld	s4, 0x0(s4)
   1261c: b3 cf f4 01  	xor	t6, s1, t6
   12620: b3 44 39 01  	xor	s1, s2, s3
   12624: b3 cf 9f 00  	xor	t6, t6, s1
   12628: b3 cf 4f 01  	xor	t6, t6, s4
   1262c: 83 34 85 07  	ld	s1, 0x78(a0)
   12630: 13 74 f4 0f  	andi	s0, s0, 0xff
   12634: 13 14 34 00  	slli	s0, s0, 0x3
   12638: 33 84 87 00  	add	s0, a5, s0
   1263c: 03 34 04 00  	ld	s0, 0x0(s0)
   12640: 13 5f 5f 00  	srli	t5, t5, 0x5
   12644: 13 7f 8f 7f  	andi	t5, t5, 0x7f8
   12648: 33 0f e8 01  	add	t5, a6, t5
   1264c: 03 3f 0f 00  	ld	t5, 0x0(t5)
   12650: 93 de de 00  	srli	t4, t4, 0xd
   12654: 93 fe 8e 7f  	andi	t4, t4, 0x7f8
   12658: b3 8e d8 01  	add	t4, a7, t4
   1265c: 83 be 0e 00  	ld	t4, 0x0(t4)
   12660: 9b d3 83 01  	srliw	t2, t2, 0x18
   12664: 93 93 33 00  	slli	t2, t2, 0x3
   12668: b3 83 72 00  	add	t2, t0, t2
   1266c: 83 b3 03 00  	ld	t2, 0x0(t2)
   12670: 33 44 94 00  	xor	s0, s0, s1
   12674: b3 4e df 01  	xor	t4, t5, t4
   12678: b3 4e d4 01  	xor	t4, s0, t4
   1267c: 33 c4 7e 00  	xor	s0, t4, t2
   12680: 83 33 05 08  	ld	t2, 0x80(a0)
   12684: 93 7e f3 0f  	andi	t4, t1, 0xff
   12688: 93 9e 3e 00  	slli	t4, t4, 0x3
   1268c: b3 8e d7 01  	add	t4, a5, t4
   12690: 83 be 0e 00  	ld	t4, 0x0(t4)
   12694: 13 5f 54 00  	srli	t5, s0, 0x5
   12698: 13 7f 8f 7f  	andi	t5, t5, 0x7f8
   1269c: 33 0f e8 01  	add	t5, a6, t5
   126a0: 03 3f 0f 00  	ld	t5, 0x0(t5)
   126a4: 93 d4 df 00  	srli	s1, t6, 0xd
   126a8: 93 f4 84 7f  	andi	s1, s1, 0x7f8
   126ac: b3 84 98 00  	add	s1, a7, s1
   126b0: 83 b4 04 00  	ld	s1, 0x0(s1)
   126b4: 1b 59 8e 01  	srliw	s2, t3, 0x18
   126b8: 13 19 39 00  	slli	s2, s2, 0x3
   126bc: 33 89 22 01  	add	s2, t0, s2
   126c0: 03 39 09 00  	ld	s2, 0x0(s2)
   126c4: b3 c3 7e 00  	xor	t2, t4, t2
   126c8: b3 4e 9f 00  	xor	t4, t5, s1
   126cc: b3 c3 d3 01  	xor	t2, t2, t4
   126d0: b3 c3 23 01  	xor	t2, t2, s2
   126d4: 83 3e 85 08  	ld	t4, 0x88(a0)
   126d8: 13 7f fe 0f  	andi	t5, t3, 0xff
   126dc: 13 1f 3f 00  	slli	t5, t5, 0x3
   126e0: 33 8f e7 01  	add	t5, a5, t5
   126e4: 03 3f 0f 00  	ld	t5, 0x0(t5)
   126e8: 93 54 53 00  	srli	s1, t1, 0x5
   126ec: 93 f4 84 7f  	andi	s1, s1, 0x7f8
   126f0: b3 04 98 00  	add	s1, a6, s1
   126f4: 83 b4 04 00  	ld	s1, 0x0(s1)
   126f8: 13 59 d4 00  	srli	s2, s0, 0xd
   126fc: 13 79 89 7f  	andi	s2, s2, 0x7f8
   12700: 33 89 28 01  	add	s2, a7, s2
   12704: 03 39 09 00  	ld	s2, 0x0(s2)
   12708: 9b d9 8f 01  	srliw	s3, t6, 0x18
   1270c: 93 99 39 00  	slli	s3, s3, 0x3
   12710: b3 89 32 01  	add	s3, t0, s3
   12714: 83 b9 09 00  	ld	s3, 0x0(s3)
   12718: b3 4e df 01  	xor	t4, t5, t4
   1271c: 33 cf 24 01  	xor	t5, s1, s2
   12720: b3 ce ee 01  	xor	t4, t4, t5
   12724: b3 ce 3e 01  	xor	t4, t4, s3
   12728: 03 3f 05 09  	ld	t5, 0x90(a0)
   1272c: 93 f4 ff 0f  	andi	s1, t6, 0xff
   12730: 93 94 34 00  	slli	s1, s1, 0x3
   12734: b3 84 97 00  	add	s1, a5, s1
   12738: 83 b4 04 00  	ld	s1, 0x0(s1)
   1273c: 13 59 5e 00  	srli	s2, t3, 0x5
   12740: 13 79 89 7f  	andi	s2, s2, 0x7f8
   12744: 33 09 28 01  	add	s2, a6, s2
   12748: 03 39 09 00  	ld	s2, 0x0(s2)
   1274c: 93 59 d3 00  	srli	s3, t1, 0xd
   12750: 93 f9 89 7f  	andi	s3, s3, 0x7f8
   12754: b3 89 38 01  	add	s3, a7, s3
   12758: 83 b9 09 00  	ld	s3, 0x0(s3)
   1275c: 1b 5a 84 01  	srliw	s4, s0, 0x18
   12760: 13 1a 3a 00  	slli	s4, s4, 0x3
   12764: 33 8a 42 01  	add	s4, t0, s4
   12768: 03 3a 0a 00  	ld	s4, 0x0(s4)
   1276c: 33 cf e4 01  	xor	t5, s1, t5
   12770: b3 44 39 01  	xor	s1, s2, s3
   12774: 33 4f 9f 00  	xor	t5, t5, s1
   12778: 33 4f 4f 01  	xor	t5, t5, s4
   1277c: 83 34 85 09  	ld	s1, 0x98(a0)
   12780: 13 74 f4 0f  	andi	s0, s0, 0xff
   12784: 13 14 34 00  	slli	s0, s0, 0x3
   12788: 33 84 87 00  	add	s0, a5, s0
   1278c: 03 34 04 00  	ld	s0, 0x0(s0)
   12790: 93 df 5f 00  	srli	t6, t6, 0x5
   12794: 93 ff 8f 7f  	andi	t6, t6, 0x7f8
   12798: b3 0f f8 01  	add	t6, a6, t6
   1279c: 83 bf 0f 00  	ld	t6, 0x0(t6)
   127a0: 13 5e de 00  	srli	t3, t3, 0xd
   127a4: 13 7e 8e 7f  	andi	t3, t3, 0x7f8
   127a8: 33 8e c8 01  	add	t3, a7, t3
   127ac: 03 3e 0e 00  	ld	t3, 0x0(t3)
   127b0: 1b 53 83 01  	srliw	t1, t1, 0x18
   127b4: 13 13 33 00  	slli	t1, t1, 0x3
   127b8: 33 83 62 00  	add	t1, t0, t1
   127bc: 03 33 03 00  	ld	t1, 0x0(t1)
   127c0: 33 44 94 00  	xor	s0, s0, s1
   127c4: 33 ce cf 01  	xor	t3, t6, t3
   127c8: 33 4e c4 01  	xor	t3, s0, t3
   127cc: 33 44 6e 00  	xor	s0, t3, t1
   127d0: 03 33 05 0a  	ld	t1, 0xa0(a0)
   127d4: 13 fe f3 0f  	andi	t3, t2, 0xff
   127d8: 13 1e 3e 00  	slli	t3, t3, 0x3
   127dc: 33 8e c7 01  	add	t3, a5, t3
   127e0: 03 3e 0e 00  	ld	t3, 0x0(t3)
   127e4: 93 5f 54 00  	srli	t6, s0, 0x5
   127e8: 93 ff 8f 7f  	andi	t6, t6, 0x7f8
   127ec: b3 0f f8 01  	add	t6, a6, t6
   127f0: 83 bf 0f 00  	ld	t6, 0x0(t6)
   127f4: 93 54 df 00  	srli	s1, t5, 0xd
   127f8: 93 f4 84 7f  	andi	s1, s1, 0x7f8
   127fc: b3 84 98 00  	add	s1, a7, s1
   12800: 83 b4 04 00  	ld	s1, 0x0(s1)
   12804: 1b d9 8e 01  	srliw	s2, t4, 0x18
   12808: 13 19 39 00  	slli	s2, s2, 0x3
   1280c: 33 89 22 01  	add	s2, t0, s2
   12810: 03 39 09 00  	ld	s2, 0x0(s2)
   12814: 33 43 6e 00  	xor	t1, t3, t1
   12818: 33 ce 9f 00  	xor	t3, t6, s1
   1281c: 33 43 c3 01  	xor	t1, t1, t3
   12820: 33 43 23 01  	xor	t1, t1, s2
   12824: 03 3e 85 0a  	ld	t3, 0xa8(a0)
   12828: 93 ff fe 0f  	andi	t6, t4, 0xff
   1282c: 93 9f 3f 00  	slli	t6, t6, 0x3
   12830: b3 8f f7 01  	add	t6, a5, t6
   12834: 83 bf 0f 00  	ld	t6, 0x0(t6)
   12838: 93 d4 53 00  	srli	s1, t2, 0x5
   1283c: 93 f4 84 7f  	andi	s1, s1, 0x7f8
   12840: b3 04 98 00  	add	s1, a6, s1
   12844: 83 b4 04 00  	ld	s1, 0x0(s1)
   12848: 13 59 d4 00  	srli	s2, s0, 0xd
   1284c: 13 79 89 7f  	andi	s2, s2, 0x7f8
   12850: 33 89 28 01  	add	s2, a7, s2
   12854: 03 39 09 00  	ld	s2, 0x0(s2)
   12858: 9b 59 8f 01  	srliw	s3, t5, 0x18
   1285c: 93 99 39 00  	slli	s3, s3, 0x3
   12860: b3 89 32 01  	add	s3, t0, s3
   12864: 83 b9 09 00  	ld	s3, 0x0(s3)
   12868: 33 ce cf 01  	xor	t3, t6, t3
   1286c: b3 cf 24 01  	xor	t6, s1, s2
   12870: 33 4e fe 01  	xor	t3, t3, t6
   12874: 33 4e 3e 01  	xor	t3, t3, s3
   12878: 83 3f 05 0b  	ld	t6, 0xb0(a0)
   1287c: 93 74 ff 0f  	andi	s1, t5, 0xff
   12880: 93 94 34 00  	slli	s1, s1, 0x3
   12884: b3 84 97 00  	add	s1, a5, s1
   12888: 83 b4 04 00  	ld	s1, 0x0(s1)
   1288c: 13 d9 5e 00  	srli	s2, t4, 0x5
   12890: 13 79 89 7f  	andi	s2, s2, 0x7f8
   12894: 33 09 28 01  	add	s2, a6, s2
   12898: 03 39 09 00  	ld	s2, 0x0(s2)
   1289c: 93 d9 d3 00  	srli	s3, t2, 0xd
   128a0: 93 f9 89 7f  	andi	s3, s3, 0x7f8
   128a4: b3 89 38 01  	add	s3, a7, s3
   128a8: 83 b9 09 00  	ld	s3, 0x0(s3)
   128ac: 1b 5a 84 01  	srliw	s4, s0, 0x18
   128b0: 13 1a 3a 00  	slli	s4, s4, 0x3
   128b4: 33 8a 42 01  	add	s4, t0, s4
   128b8: 03 3a 0a 00  	ld	s4, 0x0(s4)
   128bc: b3 cf f4 01  	xor	t6, s1, t6
   128c0: b3 44 39 01  	xor	s1, s2, s3
   128c4: b3 cf 9f 00  	xor	t6, t6, s1
   128c8: b3 cf 4f 01  	xor	t6, t6, s4
   128cc: 83 34 85 0b  	ld	s1, 0xb8(a0)
   128d0: 13 74 f4 0f  	andi	s0, s0, 0xff
   128d4: 13 14 34 00  	slli	s0, s0, 0x3
   128d8: 33 84 87 00  	add	s0, a5, s0
   128dc: 03 34 04 00  	ld	s0, 0x0(s0)
   128e0: 13 5f 5f 00  	srli	t5, t5, 0x5
   128e4: 13 7f 8f 7f  	andi	t5, t5, 0x7f8
   128e8: 33 0f e8 01  	add	t5, a6, t5
   128ec: 03 3f 0f 00  	ld	t5, 0x0(t5)
   128f0: 93 de de 00  	srli	t4, t4, 0xd
   128f4: 93 fe 8e 7f  	andi	t4, t4, 0x7f8
   128f8: b3 8e d8 01  	add	t4, a7, t4
   128fc: 83 be 0e 00  	ld	t4, 0x0(t4)
   12900: 9b d3 83 01  	srliw	t2, t2, 0x18
   12904: 93 93 33 00  	slli	t2, t2, 0x3
   12908: b3 83 72 00  	add	t2, t0, t2
   1290c: 83 b3 03 00  	ld	t2, 0x0(t2)
   12910: 33 44 94 00  	xor	s0, s0, s1
   12914: b3 4e df 01  	xor	t4, t5, t4
   12918: b3 4e d4 01  	xor	t4, s0, t4
   1291c: 33 c4 7e 00  	xor	s0, t4, t2
   12920: 83 33 05 0c  	ld	t2, 0xc0(a0)
   12924: 93 7e f3 0f  	andi	t4, t1, 0xff
   12928: 93 9e 3e 00  	slli	t4, t4, 0x3
   1292c: b3 8e d7 01  	add	t4, a5, t4
   12930: 83 be 0e 00  	ld	t4, 0x0(t4)
   12934: 13 5f 54 00  	srli	t5, s0, 0x5
   12938: 13 7f 8f 7f  	andi	t5, t5, 0x7f8
   1293c: 33 0f e8 01  	add	t5, a6, t5
   12940: 03 3f 0f 00  	ld	t5, 0x0(t5)
   12944: 93 d4 df 00  	srli	s1, t6, 0xd
   12948: 93 f4 84 7f  	andi	s1, s1, 0x7f8
   1294c: b3 84 98 00  	add	s1, a7, s1
   12950: 83 b4 04 00  	ld	s1, 0x0(s1)
   12954: 1b 59 8e 01  	srliw	s2, t3, 0x18
   12958: 13 19 39 00  	slli	s2, s2, 0x3
   1295c: 33 89 22 01  	add	s2, t0, s2
   12960: 03 39 09 00  	ld	s2, 0x0(s2)
   12964: b3 c3 7e 00  	xor	t2, t4, t2
   12968: b3 4e 9f 00  	xor	t4, t5, s1
   1296c: b3 c3 d3 01  	xor	t2, t2, t4
   12970: b3 c3 23 01  	xor	t2, t2, s2
   12974: 83 3e 85 0c  	ld	t4, 0xc8(a0)
   12978: 13 7f fe 0f  	andi	t5, t3, 0xff
   1297c: 13 1f 3f 00  	slli	t5, t5, 0x3
   12980: 33 8f e7 01  	add	t5, a5, t5
   12984: 03 3f 0f 00  	ld	t5, 0x0(t5)
   12988: 93 54 53 00  	srli	s1, t1, 0x5
   1298c: 93 f4 84 7f  	andi	s1, s1, 0x7f8
   12990: b3 04 98 00  	add	s1, a6, s1
   12994: 83 b4 04 00  	ld	s1, 0x0(s1)
   12998: 13 59 d4 00  	srli	s2, s0, 0xd
   1299c: 13 79 89 7f  	andi	s2, s2, 0x7f8
   129a0: 33 89 28 01  	add	s2, a7, s2
   129a4: 03 39 09 00  	ld	s2, 0x0(s2)
   129a8: 9b d9 8f 01  	srliw	s3, t6, 0x18
   129ac: 93 99 39 00  	slli	s3, s3, 0x3
   129b0: b3 89 32 01  	add	s3, t0, s3
   129b4: 83 b9 09 00  	ld	s3, 0x0(s3)
   129b8: b3 4e df 01  	xor	t4, t5, t4
   129bc: 33 cf 24 01  	xor	t5, s1, s2
   129c0: b3 ce ee 01  	xor	t4, t4, t5
   129c4: b3 ce 3e 01  	xor	t4, t4, s3
   129c8: 03 3f 05 0d  	ld	t5, 0xd0(a0)
   129cc: 93 f4 ff 0f  	andi	s1, t6, 0xff
   129d0: 93 94 34 00  	slli	s1, s1, 0x3
   129d4: b3 84 97 00  	add	s1, a5, s1
   129d8: 83 b4 04 00  	ld	s1, 0x0(s1)
   129dc: 13 59 5e 00  	srli	s2, t3, 0x5
   129e0: 13 79 89 7f  	andi	s2, s2, 0x7f8
   129e4: 33 09 28 01  	add	s2, a6, s2
   129e8: 03 39 09 00  	ld	s2, 0x0(s2)
   129ec: 93 59 d3 00  	srli	s3, t1, 0xd
   129f0: 93 f9 89 7f  	andi	s3, s3, 0x7f8
   129f4: b3 89 38 01  	add	s3, a7, s3
   129f8: 83 b9 09 00  	ld	s3, 0x0(s3)
   129fc: 1b 5a 84 01  	srliw	s4, s0, 0x18
   12a00: 13 1a 3a 00  	slli	s4, s4, 0x3
   12a04: 33 8a 42 01  	add	s4, t0, s4
   12a08: 03 3a 0a 00  	ld	s4, 0x0(s4)
   12a0c: 33 cf e4 01  	xor	t5, s1, t5
   12a10: b3 44 39 01  	xor	s1, s2, s3
   12a14: 33 4f 9f 00  	xor	t5, t5, s1
   12a18: 33 4f 4f 01  	xor	t5, t5, s4
   12a1c: 83 34 85 0d  	ld	s1, 0xd8(a0)
   12a20: 13 74 f4 0f  	andi	s0, s0, 0xff
   12a24: 13 14 34 00  	slli	s0, s0, 0x3
   12a28: 33 84 87 00  	add	s0, a5, s0
   12a2c: 03 34 04 00  	ld	s0, 0x0(s0)
   12a30: 93 df 5f 00  	srli	t6, t6, 0x5
   12a34: 93 ff 8f 7f  	andi	t6, t6, 0x7f8
   12a38: b3 0f f8 01  	add	t6, a6, t6
   12a3c: 83 bf 0f 00  	ld	t6, 0x0(t6)
   12a40: 13 5e de 00  	srli	t3, t3, 0xd
   12a44: 13 7e 8e 7f  	andi	t3, t3, 0x7f8
   12a48: 33 8e c8 01  	add	t3, a7, t3
   12a4c: 03 3e 0e 00  	ld	t3, 0x0(t3)
   12a50: 1b 53 83 01  	srliw	t1, t1, 0x18
   12a54: 13 13 33 00  	slli	t1, t1, 0x3
   12a58: 33 83 62 00  	add	t1, t0, t1
   12a5c: 03 33 03 00  	ld	t1, 0x0(t1)
   12a60: 33 44 94 00  	xor	s0, s0, s1
   12a64: 33 ce cf 01  	xor	t3, t6, t3
   12a68: 33 4e c4 01  	xor	t3, s0, t3
   12a6c: b3 4f 6e 00  	xor	t6, t3, t1
   12a70: 03 33 05 0e  	ld	t1, 0xe0(a0)
   12a74: 13 fe f3 0f  	andi	t3, t2, 0xff
   12a78: 13 1e 3e 00  	slli	t3, t3, 0x3
   12a7c: 33 8e c7 01  	add	t3, a5, t3
   12a80: 03 3e 0e 00  	ld	t3, 0x0(t3)
   12a84: 13 d4 5f 00  	srli	s0, t6, 0x5
   12a88: 13 74 84 7f  	andi	s0, s0, 0x7f8
   12a8c: 33 04 88 00  	add	s0, a6, s0
   12a90: 03 34 04 00  	ld	s0, 0x0(s0)
   12a94: 93 54 df 00  	srli	s1, t5, 0xd
   12a98: 93 f4 84 7f  	andi	s1, s1, 0x7f8
   12a9c: b3 84 98 00  	add	s1, a7, s1
   12aa0: 83 b4 04 00  	ld	s1, 0x0(s1)
   12aa4: 1b d9 8e 01  	srliw	s2, t4, 0x18
   12aa8: 13 19 39 00  	slli	s2, s2, 0x3
   12aac: 33 89 22 01  	add	s2, t0, s2
   12ab0: 03 39 09 00  	ld	s2, 0x0(s2)
   12ab4: 33 43 6e 00  	xor	t1, t3, t1
   12ab8: 33 44 94 00  	xor	s0, s0, s1
   12abc: 33 43 83 00  	xor	t1, t1, s0
   12ac0: 33 43 23 01  	xor	t1, t1, s2
   12ac4: 03 3e 85 0e  	ld	t3, 0xe8(a0)
   12ac8: 13 f4 fe 0f  	andi	s0, t4, 0xff
   12acc: 13 14 34 00  	slli	s0, s0, 0x3
   12ad0: 33 84 87 00  	add	s0, a5, s0
   12ad4: 03 34 04 00  	ld	s0, 0x0(s0)
   12ad8: 93 d4 53 00  	srli	s1, t2, 0x5
   12adc: 93 f4 84 7f  	andi	s1, s1, 0x7f8
   12ae0: b3 04 98 00  	add	s1, a6, s1
   12ae4: 83 b4 04 00  	ld	s1, 0x0(s1)
   12ae8: 13 d9 df 00  	srli	s2, t6, 0xd
   12aec: 13 79 89 7f  	andi	s2, s2, 0x7f8
   12af0: 33 89 28 01  	add	s2, a7, s2
   12af4: 03 39 09 00  	ld	s2, 0x0(s2)
   12af8: 9b 59 8f 01  	srliw	s3, t5, 0x18
   12afc: 93 99 39 00  	slli	s3, s3, 0x3
   12b00: b3 89 32 01  	add	s3, t0, s3
   12b04: 83 b9 09 00  	ld	s3, 0x0(s3)
   12b08: 33 4e c4 01  	xor	t3, s0, t3
   12b0c: 33 c4 24 01  	xor	s0, s1, s2
   12b10: 33 4e 8e 00  	xor	t3, t3, s0
   12b14: 33 4e 3e 01  	xor	t3, t3, s3
   12b18: 03 34 05 0f  	ld	s0, 0xf0(a0)
   12b1c: 93 74 ff 0f  	andi	s1, t5, 0xff
   12b20: 93 94 34 00  	slli	s1, s1, 0x3
   12b24: b3 84 97 00  	add	s1, a5, s1
   12b28: 83 b4 04 00  	ld	s1, 0x0(s1)
   12b2c: 13 d9 5e 00  	srli	s2, t4, 0x5
   12b30: 13 79 89 7f  	andi	s2, s2, 0x7f8
   12b34: 33 09 28 01  	add	s2, a6, s2
   12b38: 03 39 09 00  	ld	s2, 0x0(s2)
   12b3c: 93 d9 d3 00  	srli	s3, t2, 0xd
   12b40: 93 f9 89 7f  	andi	s3, s3, 0x7f8
   12b44: b3 89 38 01  	add	s3, a7, s3
   12b48: 83 b9 09 00  	ld	s3, 0x0(s3)
   12b4c: 1b da 8f 01  	srliw	s4, t6, 0x18
   12b50: 13 1a 3a 00  	slli	s4, s4, 0x3
   12b54: 33 8a 42 01  	add	s4, t0, s4
   12b58: 03 3a 0a 00  	ld	s4, 0x0(s4)
   12b5c: 33 c4 84 00  	xor	s0, s1, s0
   12b60: b3 44 39 01  	xor	s1, s2, s3
   12b64: 33 44 94 00  	xor	s0, s0, s1
   12b68: 33 44 44 01  	xor	s0, s0, s4
   12b6c: 83 34 85 0f  	ld	s1, 0xf8(a0)
   12b70: 93 ff ff 0f  	andi	t6, t6, 0xff
   12b74: 93 9f 3f 00  	slli	t6, t6, 0x3
   12b78: b3 8f f7 01  	add	t6, a5, t6
   12b7c: 83 bf 0f 00  	ld	t6, 0x0(t6)
   12b80: 13 5f 5f 00  	srli	t5, t5, 0x5
   12b84: 13 7f 8f 7f  	andi	t5, t5, 0x7f8
   12b88: 33 0f e8 01  	add	t5, a6, t5
   12b8c: 03 3f 0f 00  	ld	t5, 0x0(t5)
   12b90: 93 de de 00  	srli	t4, t4, 0xd
   12b94: 93 fe 8e 7f  	andi	t4, t4, 0x7f8
   12b98: b3 8e d8 01  	add	t4, a7, t4
   12b9c: 83 be 0e 00  	ld	t4, 0x0(t4)
   12ba0: 9b d3 83 01  	srliw	t2, t2, 0x18
   12ba4: 93 93 33 00  	slli	t2, t2, 0x3
   12ba8: b3 83 72 00  	add	t2, t0, t2
   12bac: 83 b3 03 00  	ld	t2, 0x0(t2)
   12bb0: b3 cf 9f 00  	xor	t6, t6, s1
   12bb4: b3 4e df 01  	xor	t4, t5, t4
   12bb8: b3 ce df 01  	xor	t4, t6, t4
   12bbc: b3 c3 7e 00  	xor	t2, t4, t2
   12bc0: 83 3e 05 10  	ld	t4, 0x100(a0)
   12bc4: 13 7f f3 0f  	andi	t5, t1, 0xff
   12bc8: 13 1f 3f 00  	slli	t5, t5, 0x3
   12bcc: 33 8f e7 01  	add	t5, a5, t5
   12bd0: 03 3f 0f 00  	ld	t5, 0x0(t5)
   12bd4: 93 df 53 00  	srli	t6, t2, 0x5
   12bd8: 93 ff 8f 7f  	andi	t6, t6, 0x7f8
   12bdc: b3 0f f8 01  	add	t6, a6, t6
   12be0: 83 bf 0f 00  	ld	t6, 0x0(t6)
   12be4: 93 54 d4 00  	srli	s1, s0, 0xd
   12be8: 93 f4 84 7f  	andi	s1, s1, 0x7f8
   12bec: b3 84 98 00  	add	s1, a7, s1
   12bf0: 83 b4 04 00  	ld	s1, 0x0(s1)
   12bf4: 1b 59 8e 01  	srliw	s2, t3, 0x18
   12bf8: 13 19 39 00  	slli	s2, s2, 0x3
   12bfc: 33 89 22 01  	add	s2, t0, s2
   12c00: 03 39 09 00  	ld	s2, 0x0(s2)
   12c04: b3 4e df 01  	xor	t4, t5, t4
   12c08: 33 cf 9f 00  	xor	t5, t6, s1
   12c0c: b3 ce ee 01  	xor	t4, t4, t5
   12c10: b3 ce 2e 01  	xor	t4, t4, s2
   12c14: 03 3f 85 10  	ld	t5, 0x108(a0)
   12c18: 93 7f fe 0f  	andi	t6, t3, 0xff
   12c1c: 93 9f 3f 00  	slli	t6, t6, 0x3
   12c20: b3 8f f7 01  	add	t6, a5, t6
   12c24: 83 bf 0f 00  	ld	t6, 0x0(t6)
   12c28: 93 54 53 00  	srli	s1, t1, 0x5
   12c2c: 93 f4 84 7f  	andi	s1, s1, 0x7f8
   12c30: b3 04 98 00  	add	s1, a6, s1
   12c34: 83 b4 04 00  	ld	s1, 0x0(s1)
   12c38: 13 d9 d3 00  	srli	s2, t2, 0xd
   12c3c: 13 79 89 7f  	andi	s2, s2, 0x7f8
   12c40: 33 89 28 01  	add	s2, a7, s2
   12c44: 03 39 09 00  	ld	s2, 0x0(s2)
   12c48: 9b 59 84 01  	srliw	s3, s0, 0x18
   12c4c: 93 99 39 00  	slli	s3, s3, 0x3
   12c50: b3 89 32 01  	add	s3, t0, s3
   12c54: 83 b9 09 00  	ld	s3, 0x0(s3)
   12c58: 33 cf ef 01  	xor	t5, t6, t5
   12c5c: b3 cf 24 01  	xor	t6, s1, s2
   12c60: 33 4f ff 01  	xor	t5, t5, t6
   12c64: 33 4f 3f 01  	xor	t5, t5, s3
   12c68: 83 3f 05 11  	ld	t6, 0x110(a0)
   12c6c: 93 74 f4 0f  	andi	s1, s0, 0xff
   12c70: 93 94 34 00  	slli	s1, s1, 0x3
   12c74: b3 84 97 00  	add	s1, a5, s1
   12c78: 83 b4 04 00  	ld	s1, 0x0(s1)
   12c7c: 13 59 5e 00  	srli	s2, t3, 0x5
   12c80: 13 79 89 7f  	andi	s2, s2, 0x7f8
   12c84: 33 09 28 01  	add	s2, a6, s2
   12c88: 03 39 09 00  	ld	s2, 0x0(s2)
   12c8c: 93 59 d3 00  	srli	s3, t1, 0xd
   12c90: 93 f9 89 7f  	andi	s3, s3, 0x7f8
   12c94: b3 89 38 01  	add	s3, a7, s3
   12c98: 83 b9 09 00  	ld	s3, 0x0(s3)
   12c9c: 1b da 83 01  	srliw	s4, t2, 0x18
   12ca0: 13 1a 3a 00  	slli	s4, s4, 0x3
   12ca4: 33 8a 42 01  	add	s4, t0, s4
   12ca8: 03 3a 0a 00  	ld	s4, 0x0(s4)
   12cac: b3 cf f4 01  	xor	t6, s1, t6
   12cb0: b3 44 39 01  	xor	s1, s2, s3
   12cb4: b3 cf 9f 00  	xor	t6, t6, s1
   12cb8: b3 cf 4f 01  	xor	t6, t6, s4
   12cbc: 83 34 85 11  	ld	s1, 0x118(a0)
   12cc0: 93 f3 f3 0f  	andi	t2, t2, 0xff
   12cc4: 93 93 33 00  	slli	t2, t2, 0x3
   12cc8: b3 87 77 00  	add	a5, a5, t2
   12ccc: 83 b7 07 00  	ld	a5, 0x0(a5)
   12cd0: 13 54 54 00  	srli	s0, s0, 0x5
   12cd4: 93 73 84 7f  	andi	t2, s0, 0x7f8
   12cd8: 33 08 78 00  	add	a6, a6, t2
   12cdc: 03 38 08 00  	ld	a6, 0x0(a6)
   12ce0: 93 53 de 00  	srli	t2, t3, 0xd
   12ce4: 93 f3 83 7f  	andi	t2, t2, 0x7f8
   12ce8: b3 88 78 00  	add	a7, a7, t2
   12cec: 83 b8 08 00  	ld	a7, 0x0(a7)
   12cf0: 1b 53 83 01  	srliw	t1, t1, 0x18
   12cf4: 13 13 33 00  	slli	t1, t1, 0x3
   12cf8: b3 82 62 00  	add	t0, t0, t1
   12cfc: 83 b2 02 00  	ld	t0, 0x0(t0)
   12d00: b3 c7 97 00  	xor	a5, a5, s1
   12d04: 33 48 18 01  	xor	a6, a6, a7
   12d08: b3 c7 07 01  	xor	a5, a5, a6
   12d0c: b3 c7 57 00  	xor	a5, a5, t0
   12d10: 83 38 05 12  	ld	a7, 0x120(a0)
   12d14: 13 f8 fe 0f  	andi	a6, t4, 0xff
   12d18: 93 12 38 00  	slli	t0, a6, 0x3
   12d1c: 37 38 02 00  	lui	a6, 0x23
   12d20: 13 08 08 11  	addi	a6, a6, 0x110
   12d24: b3 02 58 00  	add	t0, a6, t0
   12d28: 83 b2 02 00  	ld	t0, 0x0(t0)
   12d2c: 13 d3 57 00  	srli	t1, a5, 0x5
   12d30: 13 73 83 7f  	andi	t1, t1, 0x7f8
   12d34: 33 06 c8 00  	add	a2, a6, a2
   12d38: 33 03 66 00  	add	t1, a2, t1
   12d3c: 03 33 03 00  	ld	t1, 0x0(t1)
   12d40: 93 d3 df 00  	srli	t2, t6, 0xd
   12d44: 93 f3 83 7f  	andi	t2, t2, 0x7f8
   12d48: b3 06 d8 00  	add	a3, a6, a3
   12d4c: b3 83 76 00  	add	t2, a3, t2
   12d50: 83 b3 03 00  	ld	t2, 0x0(t2)
   12d54: 1b 5e 8f 01  	srliw	t3, t5, 0x18
   12d58: 13 1e 3e 00  	slli	t3, t3, 0x3
   12d5c: 33 07 e8 00  	add	a4, a6, a4
   12d60: 33 0e c7 01  	add	t3, a4, t3
   12d64: 03 3e 0e 00  	ld	t3, 0x0(t3)
   12d68: b3 c8 12 01  	xor	a7, t0, a7
   12d6c: b3 42 73 00  	xor	t0, t1, t2
   12d70: b3 c8 58 00  	xor	a7, a7, t0
   12d74: 33 c3 c8 01  	xor	t1, a7, t3
   12d78: 83 38 85 12  	ld	a7, 0x128(a0)
   12d7c: 93 72 ff 0f  	andi	t0, t5, 0xff
   12d80: 93 92 32 00  	slli	t0, t0, 0x3
   12d84: b3 02 58 00  	add	t0, a6, t0
   12d88: 83 b2 02 00  	ld	t0, 0x0(t0)
   12d8c: 93 d3 5e 00  	srli	t2, t4, 0x5
   12d90: 93 f3 83 7f  	andi	t2, t2, 0x7f8
   12d94: b3 03 76 00  	add	t2, a2, t2
   12d98: 83 b3 03 00  	ld	t2, 0x0(t2)
   12d9c: 13 de d7 00  	srli	t3, a5, 0xd
   12da0: 13 7e 8e 7f  	andi	t3, t3, 0x7f8
   12da4: 33 8e c6 01  	add	t3, a3, t3
   12da8: 03 3e 0e 00  	ld	t3, 0x0(t3)
   12dac: 1b d4 8f 01  	srliw	s0, t6, 0x18
   12db0: 13 14 34 00  	slli	s0, s0, 0x3
   12db4: 33 04 87 00  	add	s0, a4, s0
   12db8: 03 34 04 00  	ld	s0, 0x0(s0)
   12dbc: b3 c8 12 01  	xor	a7, t0, a7
   12dc0: b3 c2 c3 01  	xor	t0, t2, t3
   12dc4: b3 c8 58 00  	xor	a7, a7, t0
   12dc8: b3 c3 88 00  	xor	t2, a7, s0
   12dcc: 83 38 05 13  	ld	a7, 0x130(a0)
   12dd0: 93 f2 ff 0f  	andi	t0, t6, 0xff
   12dd4: 93 92 32 00  	slli	t0, t0, 0x3
   12dd8: b3 02 58 00  	add	t0, a6, t0
   12ddc: 83 b2 02 00  	ld	t0, 0x0(t0)
   12de0: 13 5e 5f 00  	srli	t3, t5, 0x5
   12de4: 13 7e 8e 7f  	andi	t3, t3, 0x7f8
   12de8: 33 0e c6 01  	add	t3, a2, t3
   12dec: 03 3e 0e 00  	ld	t3, 0x0(t3)
   12df0: 13 d4 de 00  	srli	s0, t4, 0xd
   12df4: 13 74 84 7f  	andi	s0, s0, 0x7f8
   12df8: 33 84 86 00  	add	s0, a3, s0
   12dfc: 03 34 04 00  	ld	s0, 0x0(s0)
   12e00: 9b d4 87 01  	srliw	s1, a5, 0x18
   12e04: 93 94 34 00  	slli	s1, s1, 0x3
   12e08: b3 04 97 00  	add	s1, a4, s1
   12e0c: 83 b4 04 00  	ld	s1, 0x0(s1)
   12e10: b3 c8 12 01  	xor	a7, t0, a7
   12e14: b3 42 8e 00  	xor	t0, t3, s0
   12e18: b3 c8 58 00  	xor	a7, a7, t0
   12e1c: 33 ce 98 00  	xor	t3, a7, s1
   12e20: 03 35 85 13  	ld	a0, 0x138(a0)
   12e24: 93 f7 f7 0f  	andi	a5, a5, 0xff
   12e28: 93 97 37 00  	slli	a5, a5, 0x3
   12e2c: b3 07 f8 00  	add	a5, a6, a5
   12e30: 83 b7 07 00  	ld	a5, 0x0(a5)
   12e34: 13 d8 5f 00  	srli	a6, t6, 0x5
   12e38: 13 78 88 7f  	andi	a6, a6, 0x7f8
   12e3c: 33 06 06 01  	add	a2, a2, a6
   12e40: 03 36 06 00  	ld	a2, 0x0(a2)
   12e44: 13 58 df 00  	srli	a6, t5, 0xd
   12e48: 13 78 88 7f  	andi	a6, a6, 0x7f8
   12e4c: b3 86 06 01  	add	a3, a3, a6
   12e50: 83 b6 06 00  	ld	a3, 0x0(a3)
   12e54: 1b d8 8e 01  	srliw	a6, t4, 0x18
   12e58: 13 18 38 00  	slli	a6, a6, 0x3
   12e5c: 33 07 07 01  	add	a4, a4, a6
   12e60: 03 37 07 00  	ld	a4, 0x0(a4)
   12e64: 33 c5 a7 00  	xor	a0, a5, a0
   12e68: 33 46 d6 00  	xor	a2, a2, a3
   12e6c: 33 45 c5 00  	xor	a0, a0, a2
   12e70: b3 4e e5 00  	xor	t4, a0, a4
   12e74: 23 b0 65 00  	sd	t1, 0x0(a1)
   12e78: 23 b2 75 00  	sd	t2, 0x4(a1)
   12e7c: 23 b4 c5 01  	sd	t3, 0x8(a1)
   12e80: 23 b6 d5 01  	sd	t4, 0xc(a1)
   12e84: 13 05 10 00  	addi	a0, zero, 0x1
   12e88: 6f 90 30 73  	jal	zero, 0x1cdba <__riscv_restore_5>
   12e8c: 67 80 00 00  	jalr	zero, 0x0(ra)

0000000000012e90 <fillrand>:
   12e90: ef 92 b0 6c  	jal	t0, 0x1cd5a <__riscv_save_12>
   12e94: 83 c6 81 22  	lbu	a3, 0x228(gp)
   12e98: 13 04 05 00  	addi	s0, a0, 0x0
   12e9c: 63 8a 06 00  	beq	a3, zero, 0x12eb0 <fillrand+0x20>
   12ea0: 03 bc 81 21  	ld	s8, 0x218(gp)
   12ea4: 03 ba 01 22  	ld	s4, 0x220(gp)
   12ea8: 63 46 b0 02  	blt	zero, a1, 0x12ed4 <fillrand+0x44>
   12eac: 6f 90 90 6f  	jal	zero, 0x1cda4 <__riscv_restore_12>
   12eb0: 13 05 10 00  	addi	a0, zero, 0x1
   12eb4: 23 84 a1 22  	sb	a0, 0x228(gp)
   12eb8: 37 f6 00 00  	lui	a2, 0xf
   12ebc: 1b 0c 36 af  	addiw	s8, a2, -0x50d
   12ec0: 23 bc 81 21  	sd	s8, 0x218(gp)
   12ec4: 37 36 00 00  	lui	a2, 0x3
   12ec8: 1b 0a e6 5f  	addiw	s4, a2, 0x5fe
   12ecc: 23 b0 41 23  	sd	s4, 0x220(gp)
   12ed0: e3 5e b0 fc  	bge	zero, a1, 0x12eac <fillrand+0x1c>
   12ed4: b7 0a 01 00  	lui	s5, 0x10
   12ed8: 9b 8a fa ff  	addiw	s5, s5, -0x1
   12edc: 03 b6 81 1f  	ld	a2, 0x1f8(gp)
   12ee0: 33 0b b4 00  	add	s6, s0, a1
   12ee4: 93 0b 40 00  	addi	s7, zero, 0x4
   12ee8: 37 95 00 00  	lui	a0, 0x9
   12eec: 9b 04 95 06  	addiw	s1, a0, 0x69
   12ef0: 37 45 00 00  	lui	a0, 0x4
   12ef4: 1b 09 05 65  	addiw	s2, a0, 0x650
   12ef8: 93 8d 01 23  	addi	s11, gp, 0x230
   12efc: 63 16 76 05  	bne	a2, s7, 0x12f48 <fillrand+0xb8>
   12f00: 33 75 5c 01  	and	a0, s8, s5
   12f04: 93 85 04 00  	addi	a1, s1, 0x0
   12f08: ef 90 90 6c  	jal	ra, 0x1cdd0 <__muldi3>
   12f0c: 93 59 0c 01  	srli	s3, s8, 0x10
   12f10: 33 0c 35 01  	add	s8, a0, s3
   12f14: 23 bc 81 21  	sd	s8, 0x218(gp)
   12f18: 93 19 0c 01  	slli	s3, s8, 0x10
   12f1c: 33 75 5a 01  	and	a0, s4, s5
   12f20: 93 05 09 00  	addi	a1, s2, 0x0
   12f24: ef 90 d0 6a  	jal	ra, 0x1cdd0 <__muldi3>
   12f28: 13 06 00 00  	addi	a2, zero, 0x0
   12f2c: 93 55 0a 01  	srli	a1, s4, 0x10
   12f30: 33 05 b5 00  	add	a0, a0, a1
   12f34: 23 b0 a1 22  	sd	a0, 0x220(gp)
   12f38: b3 09 35 01  	add	s3, a0, s3
   12f3c: 23 b8 31 23  	sd	s3, 0x230(gp)
   12f40: 13 0a 05 00  	addi	s4, a0, 0x0
   12f44: 6f 00 c0 00  	jal	zero, 0x12f50 <fillrand+0xc0>
   12f48: 33 85 cd 00  	add	a0, s11, a2
   12f4c: 03 45 05 00  	lbu	a0, 0x0(a0)
   12f50: 23 00 a4 00  	sb	a0, 0x0(s0)
   12f54: 13 04 14 00  	addi	s0, s0, 0x1
   12f58: 13 06 16 00  	addi	a2, a2, 0x1
   12f5c: e3 10 64 fb  	bne	s0, s6, 0x12efc <fillrand+0x6c>
   12f60: 23 bc c1 1e  	sd	a2, 0x1f8(gp)
   12f64: 6f 90 10 64  	jal	zero, 0x1cda4 <__riscv_restore_12>

0000000000012f68 <encfile>:
   12f68: ef 92 b0 5f  	jal	t0, 0x1cd62 <__riscv_save_11>
   12f6c: 13 01 01 fd  	addi	sp, sp, -0x30
   12f70: 13 84 06 00  	addi	s0, a3, 0x0
   12f74: 13 09 06 00  	addi	s2, a2, 0x0
   12f78: 93 84 05 00  	addi	s1, a1, 0x0
   12f7c: 93 09 05 00  	addi	s3, a0, 0x0
   12f80: 13 05 01 01  	addi	a0, sp, 0x10
   12f84: 93 05 00 01  	addi	a1, zero, 0x10
   12f88: 13 0a 00 01  	addi	s4, zero, 0x10
   12f8c: ef f0 5f f0  	jal	ra, 0x12e90 <fillrand>
   12f90: 13 06 20 00  	addi	a2, zero, 0x2
   12f94: 13 85 09 00  	addi	a0, s3, 0x0
   12f98: 93 05 00 00  	addi	a1, zero, 0x0
   12f9c: ef 00 50 60  	jal	ra, 0x13da0 <fseek>
   12fa0: 93 05 81 00  	addi	a1, sp, 0x8
   12fa4: 13 85 09 00  	addi	a0, s3, 0x0
   12fa8: ef 00 b0 0d  	jal	ra, 0x13882 <fgetpos>
   12fac: 13 85 09 00  	addi	a0, s3, 0x0
   12fb0: 93 05 00 00  	addi	a1, zero, 0x0
   12fb4: 13 06 00 00  	addi	a2, zero, 0x0
   12fb8: ef 00 90 5e  	jal	ra, 0x13da0 <fseek>
   12fbc: 13 05 01 01  	addi	a0, sp, 0x10
   12fc0: 93 05 10 00  	addi	a1, zero, 0x1
   12fc4: 13 06 00 01  	addi	a2, zero, 0x10
   12fc8: 13 0c 10 00  	addi	s8, zero, 0x1
   12fcc: 93 86 04 00  	addi	a3, s1, 0x0
   12fd0: ef 00 b0 6e  	jal	ra, 0x13eba <fwrite>
   12fd4: 13 05 01 02  	addi	a0, sp, 0x20
   12fd8: 93 05 10 00  	addi	a1, zero, 0x1
   12fdc: 93 0a 01 02  	addi	s5, sp, 0x20
   12fe0: ef f0 1f eb  	jal	ra, 0x12e90 <fillrand>
   12fe4: 03 45 81 00  	lbu	a0, 0x8(sp)
   12fe8: 83 45 01 02  	lbu	a1, 0x20(sp)
   12fec: 03 c6 09 01  	lbu	a2, 0x10(s3)
   12ff0: 13 75 f5 00  	andi	a0, a0, 0xf
   12ff4: 93 f5 05 0f  	andi	a1, a1, 0xf0
   12ff8: 33 65 b5 00  	or	a0, a0, a1
   12ffc: 93 75 06 02  	andi	a1, a2, 0x20
   13000: 23 00 a1 02  	sb	a0, 0x20(sp)
   13004: 63 94 05 0c  	bne	a1, zero, 0x130cc <encfile+0x164>
   13008: 13 05 11 02  	addi	a0, sp, 0x21
   1300c: 13 0c 10 00  	addi	s8, zero, 0x1
   13010: 93 05 10 00  	addi	a1, zero, 0x1
   13014: 13 06 f0 00  	addi	a2, zero, 0xf
   13018: 13 0b f0 00  	addi	s6, zero, 0xf
   1301c: 93 86 09 00  	addi	a3, s3, 0x0
   13020: ef 00 f0 56  	jal	ra, 0x13d8e <fread>
   13024: 63 6c 65 09  	bltu	a0, s6, 0x130bc <encfile+0x154>
   13028: 13 0c 00 00  	addi	s8, zero, 0x0
   1302c: 13 0b 01 01  	addi	s6, sp, 0x10
   13030: 93 0b 01 02  	addi	s7, sp, 0x20
   13034: 93 0c 00 01  	addi	s9, zero, 0x10
   13038: 33 05 8b 01  	add	a0, s6, s8
   1303c: 03 45 05 00  	lbu	a0, 0x0(a0)
   13040: b3 85 8b 01  	add	a1, s7, s8
   13044: 03 c6 05 00  	lbu	a2, 0x0(a1)
   13048: 33 45 a6 00  	xor	a0, a2, a0
   1304c: 13 0c 1c 00  	addi	s8, s8, 0x1
   13050: 23 80 a5 00  	sb	a0, 0x0(a1)
   13054: e3 12 9c ff  	bne	s8, s9, 0x13038 <encfile+0xd0>
   13058: 13 05 01 02  	addi	a0, sp, 0x20
   1305c: 93 05 01 01  	addi	a1, sp, 0x10
   13060: 13 06 09 00  	addi	a2, s2, 0x0
   13064: ef d0 4f f4  	jal	ra, 0x107a8 <encrypt>
   13068: 13 05 01 01  	addi	a0, sp, 0x10
   1306c: 93 05 10 00  	addi	a1, zero, 0x1
   13070: 13 06 00 01  	addi	a2, zero, 0x10
   13074: 93 86 04 00  	addi	a3, s1, 0x0
   13078: ef 00 30 64  	jal	ra, 0x13eba <fwrite>
   1307c: 63 18 95 03  	bne	a0, s9, 0x130ac <encfile+0x144>
   13080: 03 c5 09 01  	lbu	a0, 0x10(s3)
   13084: 13 75 05 02  	andi	a0, a0, 0x20
   13088: 63 16 05 02  	bne	a0, zero, 0x130b4 <encfile+0x14c>
   1308c: 13 05 01 02  	addi	a0, sp, 0x20
   13090: 93 05 10 00  	addi	a1, zero, 0x1
   13094: 13 06 00 01  	addi	a2, zero, 0x10
   13098: 93 86 09 00  	addi	a3, s3, 0x0
   1309c: ef 00 30 4f  	jal	ra, 0x13d8e <fread>
   130a0: 13 0c 00 00  	addi	s8, zero, 0x0
   130a4: e3 7a 95 f9  	bgeu	a0, s9, 0x13038 <encfile+0xd0>
   130a8: 6f 00 40 01  	jal	zero, 0x130bc <encfile+0x154>
   130ac: 93 04 90 ff  	addi	s1, zero, -0x7
   130b0: 6f 00 c0 08  	jal	zero, 0x1313c <encfile+0x1d4>
   130b4: 13 0c 00 00  	addi	s8, zero, 0x0
   130b8: 13 05 00 01  	addi	a0, zero, 0x10
   130bc: 33 0c 85 01  	add	s8, a0, s8
   130c0: 63 0a 0c 06  	beq	s8, zero, 0x13134 <encfile+0x1cc>
   130c4: 13 05 f0 00  	addi	a0, zero, 0xf
   130c8: 63 6a 85 01  	bltu	a0, s8, 0x130dc <encfile+0x174>
   130cc: 33 85 8a 01  	add	a0, s5, s8
   130d0: 33 06 8a 41  	sub	a2, s4, s8
   130d4: 93 05 00 00  	addi	a1, zero, 0x0
   130d8: ef 10 20 7a  	jal	ra, 0x1487a <memset>
   130dc: 13 05 01 02  	addi	a0, sp, 0x20
   130e0: 93 05 01 01  	addi	a1, sp, 0x10
   130e4: 13 06 01 03  	addi	a2, sp, 0x30
   130e8: 83 c6 05 00  	lbu	a3, 0x0(a1)
   130ec: 03 47 05 00  	lbu	a4, 0x0(a0)
   130f0: b3 46 d7 00  	xor	a3, a4, a3
   130f4: 23 00 d5 00  	sb	a3, 0x0(a0)
   130f8: 13 05 15 00  	addi	a0, a0, 0x1
   130fc: 93 85 15 00  	addi	a1, a1, 0x1
   13100: e3 14 c5 fe  	bne	a0, a2, 0x130e8 <encfile+0x180>
   13104: 13 05 01 02  	addi	a0, sp, 0x20
   13108: 93 05 01 01  	addi	a1, sp, 0x10
   1310c: 13 06 09 00  	addi	a2, s2, 0x0
   13110: ef d0 8f e9  	jal	ra, 0x107a8 <encrypt>
   13114: 13 05 01 01  	addi	a0, sp, 0x10
   13118: 93 05 10 00  	addi	a1, zero, 0x1
   1311c: 13 06 00 01  	addi	a2, zero, 0x10
   13120: 13 09 00 01  	addi	s2, zero, 0x10
   13124: 93 86 04 00  	addi	a3, s1, 0x0
   13128: ef 00 30 59  	jal	ra, 0x13eba <fwrite>
   1312c: 93 04 80 ff  	addi	s1, zero, -0x8
   13130: 63 16 25 01  	bne	a0, s2, 0x1313c <encfile+0x1d4>
   13134: 93 04 00 00  	addi	s1, zero, 0x0
   13138: 6f 00 40 01  	jal	zero, 0x1314c <encfile+0x1e4>
   1313c: 37 75 02 00  	lui	a0, 0x27
   13140: 13 05 05 11  	addi	a0, a0, 0x110
   13144: 93 05 04 00  	addi	a1, s0, 0x0
   13148: ef 00 70 61  	jal	ra, 0x13f5e <printf>
   1314c: 13 85 04 00  	addi	a0, s1, 0x0
   13150: 13 01 01 03  	addi	sp, sp, 0x30
   13154: 6f 90 50 45  	jal	zero, 0x1cda8 <__riscv_restore_11>

0000000000013158 <decfile>:
   13158: ef 92 b0 40  	jal	t0, 0x1cd62 <__riscv_save_11>
   1315c: 13 01 01 fd  	addi	sp, sp, -0x30
   13160: 13 04 07 00  	addi	s0, a4, 0x0
   13164: 13 8a 06 00  	addi	s4, a3, 0x0
   13168: 13 09 06 00  	addi	s2, a2, 0x0
   1316c: 93 84 05 00  	addi	s1, a1, 0x0
   13170: 93 09 05 00  	addi	s3, a0, 0x0
   13174: 13 05 01 02  	addi	a0, sp, 0x20
   13178: 93 05 10 00  	addi	a1, zero, 0x1
   1317c: 13 06 00 01  	addi	a2, zero, 0x10
   13180: 93 0a 00 01  	addi	s5, zero, 0x10
   13184: 93 86 09 00  	addi	a3, s3, 0x0
   13188: ef 00 70 40  	jal	ra, 0x13d8e <fread>
   1318c: 63 10 55 05  	bne	a0, s5, 0x131cc <decfile+0x74>
   13190: 13 05 f0 ff  	addi	a0, zero, -0x1
   13194: 93 5b 05 02  	srli	s7, a0, 0x20
   13198: 13 05 01 01  	addi	a0, sp, 0x10
   1319c: 93 05 10 00  	addi	a1, zero, 0x1
   131a0: 13 06 00 01  	addi	a2, zero, 0x10
   131a4: 93 86 09 00  	addi	a3, s3, 0x0
   131a8: ef 00 70 3e  	jal	ra, 0x13d8e <fread>
   131ac: 93 85 0b ff  	addi	a1, s7, -0x10
   131b0: 33 75 b5 00  	and	a0, a0, a1
   131b4: 63 0a 05 02  	beq	a0, zero, 0x131e8 <decfile+0x90>
   131b8: 37 75 02 00  	lui	a0, 0x27
   131bc: 13 05 55 15  	addi	a0, a0, 0x155
   131c0: ef 00 f0 59  	jal	ra, 0x13f5e <printf>
   131c4: 13 05 60 ff  	addi	a0, zero, -0xa
   131c8: 6f 00 80 01  	jal	zero, 0x131e0 <decfile+0x88>
   131cc: 37 75 02 00  	lui	a0, 0x27
   131d0: 13 05 25 13  	addi	a0, a0, 0x132
   131d4: 93 05 0a 00  	addi	a1, s4, 0x0
   131d8: ef 00 70 58  	jal	ra, 0x13f5e <printf>
   131dc: 13 05 90 00  	addi	a0, zero, 0x9
   131e0: 13 01 01 03  	addi	sp, sp, 0x30
   131e4: 6f 90 50 3c  	jal	zero, 0x1cda8 <__riscv_restore_11>
   131e8: 13 05 01 01  	addi	a0, sp, 0x10
   131ec: 93 05 01 00  	addi	a1, sp, 0x0
   131f0: 13 0a 01 00  	addi	s4, sp, 0x0
   131f4: 13 06 09 00  	addi	a2, s2, 0x0
   131f8: ef e0 5f 92  	jal	ra, 0x11b1c <decrypt>
   131fc: 13 05 01 02  	addi	a0, sp, 0x20
   13200: 13 0c 01 01  	addi	s8, sp, 0x10
   13204: 83 45 05 00  	lbu	a1, 0x0(a0)
   13208: 03 46 0a 00  	lbu	a2, 0x0(s4)
   1320c: b3 45 b6 00  	xor	a1, a2, a1
   13210: 23 00 ba 00  	sb	a1, 0x0(s4)
   13214: 13 0a 1a 00  	addi	s4, s4, 0x1
   13218: 13 05 15 00  	addi	a0, a0, 0x1
   1321c: e3 14 8a ff  	bne	s4, s8, 0x13204 <decfile+0xac>
   13220: 83 4c 01 00  	lbu	s9, 0x0(sp)
   13224: 13 0a 01 02  	addi	s4, sp, 0x20
   13228: 13 05 01 02  	addi	a0, sp, 0x20
   1322c: 93 05 10 00  	addi	a1, zero, 0x1
   13230: 13 06 00 01  	addi	a2, zero, 0x10
   13234: 93 0a 00 01  	addi	s5, zero, 0x10
   13238: 93 86 09 00  	addi	a3, s3, 0x0
   1323c: ef 00 30 35  	jal	ra, 0x13d8e <fread>
   13240: 33 7d 75 01  	and	s10, a0, s7
   13244: 63 12 5d 09  	bne	s10, s5, 0x132c8 <decfile+0x170>
   13248: 13 05 01 01  	addi	a0, sp, 0x10
   1324c: 13 0b f0 00  	addi	s6, zero, 0xf
   13250: 93 0a 05 00  	addi	s5, a0, 0x0
   13254: 33 05 6c 41  	sub	a0, s8, s6
   13258: 93 05 10 00  	addi	a1, zero, 0x1
   1325c: 13 06 0b 00  	addi	a2, s6, 0x0
   13260: 93 86 04 00  	addi	a3, s1, 0x0
   13264: ef 00 70 45  	jal	ra, 0x13eba <fwrite>
   13268: 63 1e 65 09  	bne	a0, s6, 0x13304 <decfile+0x1ac>
   1326c: 93 05 01 00  	addi	a1, sp, 0x0
   13270: 13 0b 01 00  	addi	s6, sp, 0x0
   13274: 13 05 0a 00  	addi	a0, s4, 0x0
   13278: 13 06 09 00  	addi	a2, s2, 0x0
   1327c: ef e0 1f 8a  	jal	ra, 0x11b1c <decrypt>
   13280: 13 85 0a 00  	addi	a0, s5, 0x0
   13284: 83 45 05 00  	lbu	a1, 0x0(a0)
   13288: 03 46 0b 00  	lbu	a2, 0x0(s6)
   1328c: b3 45 b6 00  	xor	a1, a2, a1
   13290: 23 00 bb 00  	sb	a1, 0x0(s6)
   13294: 13 0b 1b 00  	addi	s6, s6, 0x1
   13298: 13 05 15 00  	addi	a0, a0, 0x1
   1329c: e3 14 8b ff  	bne	s6, s8, 0x13284 <decfile+0x12c>
   132a0: 93 05 10 00  	addi	a1, zero, 0x1
   132a4: 13 06 00 01  	addi	a2, zero, 0x10
   132a8: 13 0b 00 01  	addi	s6, zero, 0x10
   132ac: 13 85 0a 00  	addi	a0, s5, 0x0
   132b0: 93 86 09 00  	addi	a3, s3, 0x0
   132b4: ef 00 b0 2d  	jal	ra, 0x13d8e <fread>
   132b8: b3 75 75 01  	and	a1, a0, s7
   132bc: 13 05 0a 00  	addi	a0, s4, 0x0
   132c0: 13 8a 0a 00  	addi	s4, s5, 0x0
   132c4: e3 86 65 f9  	beq	a1, s6, 0x13250 <decfile+0xf8>
   132c8: 13 f9 fc 00  	andi	s2, s9, 0xf
   132cc: 13 0d 0d ff  	addi	s10, s10, -0x10
   132d0: 13 35 1d 00  	sltiu	a0, s10, 0x1
   132d4: 33 09 25 01  	add	s2, a0, s2
   132d8: 63 02 09 02  	beq	s2, zero, 0x132fc <decfile+0x1a4>
   132dc: 33 35 a0 01  	sltu	a0, zero, s10
   132e0: 93 05 01 00  	addi	a1, sp, 0x0
   132e4: 33 85 a5 00  	add	a0, a1, a0
   132e8: 93 05 10 00  	addi	a1, zero, 0x1
   132ec: 13 06 09 00  	addi	a2, s2, 0x0
   132f0: 93 86 04 00  	addi	a3, s1, 0x0
   132f4: ef 00 70 3c  	jal	ra, 0x13eba <fwrite>
   132f8: 63 12 25 03  	bne	a0, s2, 0x1331c <decfile+0x1c4>
   132fc: 13 05 00 00  	addi	a0, zero, 0x0
   13300: 6f f0 1f ee  	jal	zero, 0x131e0 <decfile+0x88>
   13304: 37 75 02 00  	lui	a0, 0x27
   13308: 13 05 05 11  	addi	a0, a0, 0x110
   1330c: 93 05 04 00  	addi	a1, s0, 0x0
   13310: ef 00 f0 44  	jal	ra, 0x13f5e <printf>
   13314: 13 05 50 ff  	addi	a0, zero, -0xb
   13318: 6f f0 9f ec  	jal	zero, 0x131e0 <decfile+0x88>
   1331c: 37 75 02 00  	lui	a0, 0x27
   13320: 13 05 05 11  	addi	a0, a0, 0x110
   13324: 93 05 04 00  	addi	a1, s0, 0x0
   13328: ef 00 70 43  	jal	ra, 0x13f5e <printf>
   1332c: 13 05 40 ff  	addi	a0, zero, -0xc
   13330: 6f f0 1f eb  	jal	zero, 0x131e0 <decfile+0x88>

0000000000013334 <main>:
   13334: ef 92 d0 24  	jal	t0, 0x1cd80 <__riscv_save_5>
   13338: 13 01 01 bc  	addi	sp, sp, -0x440
   1333c: 13 06 50 00  	addi	a2, zero, 0x5
   13340: 63 1c c5 0e  	bne	a0, a2, 0x13438 <main+0x104>
   13344: 13 84 05 00  	addi	s0, a1, 0x0
   13348: 03 b5 85 01  	ld	a0, 0x18(a1)
   1334c: 83 45 05 00  	lbu	a1, 0x0(a0)
   13350: 37 75 02 00  	lui	a0, 0x27
   13354: 13 05 85 27  	addi	a0, a0, 0x278
   13358: 33 06 b5 00  	add	a2, a0, a1
   1335c: 03 46 16 00  	lbu	a2, 0x1(a2)
   13360: 13 76 36 00  	andi	a2, a2, 0x3
   13364: 13 06 e6 ff  	addi	a2, a2, -0x2
   13368: 33 36 c0 00  	sltu	a2, zero, a2
   1336c: 13 06 f6 ff  	addi	a2, a2, -0x1
   13370: 13 76 06 fe  	andi	a2, a2, -0x20
   13374: b3 85 c5 00  	add	a1, a1, a2
   13378: 93 f5 e5 ff  	andi	a1, a1, -0x2
   1337c: 13 06 40 04  	addi	a2, zero, 0x44
   13380: 63 9c c5 0a  	bne	a1, a2, 0x13438 <main+0x104>
   13384: 93 09 00 00  	addi	s3, zero, 0x0
   13388: 13 06 00 00  	addi	a2, zero, 0x0
   1338c: 83 35 04 02  	ld	a1, 0x20(s0)
   13390: 93 06 a0 00  	addi	a3, zero, 0xa
   13394: 13 07 00 04  	addi	a4, zero, 0x40
   13398: 93 07 01 42  	addi	a5, sp, 0x420
   1339c: 13 08 60 00  	addi	a6, zero, 0x6
   133a0: 83 c8 05 00  	lbu	a7, 0x0(a1)
   133a4: 63 84 08 0c  	beq	a7, zero, 0x1346c <main+0x138>
   133a8: b3 02 15 01  	add	t0, a0, a7
   133ac: 83 c2 12 00  	lbu	t0, 0x1(t0)
   133b0: 93 f2 32 00  	andi	t0, t0, 0x3
   133b4: 93 82 e2 ff  	addi	t0, t0, -0x2
   133b8: b3 32 50 00  	sltu	t0, zero, t0
   133bc: 93 82 f2 ff  	addi	t0, t0, -0x1
   133c0: 93 f2 02 fe  	andi	t0, t0, -0x20
   133c4: b3 88 58 00  	add	a7, a7, t0
   133c8: 93 82 08 fd  	addi	t0, a7, -0x30
   133cc: 13 f3 f2 0f  	andi	t1, t0, 0xff
   133d0: 93 02 00 fd  	addi	t0, zero, -0x30
   133d4: 63 6a d3 00  	bltu	t1, a3, 0x133e8 <main+0xb4>
   133d8: 93 82 f8 fb  	addi	t0, a7, -0x41
   133dc: 13 f3 f2 0f  	andi	t1, t0, 0xff
   133e0: 93 02 90 fc  	addi	t0, zero, -0x37
   133e4: 63 78 03 07  	bgeu	t1, a6, 0x13454 <main+0x120>
   133e8: 93 f8 f8 0f  	andi	a7, a7, 0xff
   133ec: 13 16 46 00  	slli	a2, a2, 0x4
   133f0: 33 06 56 00  	add	a2, a2, t0
   133f4: 33 06 16 01  	add	a2, a2, a7
   133f8: 93 f2 19 00  	andi	t0, s3, 0x1
   133fc: 9b 88 19 00  	addiw	a7, s3, 0x1
   13400: 63 88 02 00  	beq	t0, zero, 0x13410 <main+0xdc>
   13404: 9b d2 18 00  	srliw	t0, a7, 0x1
   13408: b3 82 f2 00  	add	t0, t0, a5
   1340c: a3 8f c2 fe  	sb	a2, -0x1(t0)
   13410: 93 85 15 00  	addi	a1, a1, 0x1
   13414: 93 89 08 00  	addi	s3, a7, 0x0
   13418: e3 94 e8 f8  	bne	a7, a4, 0x133a0 <main+0x6c>
   1341c: 03 c5 05 00  	lbu	a0, 0x0(a1)
   13420: 63 04 05 04  	beq	a0, zero, 0x13468 <main+0x134>
   13424: 37 75 02 00  	lui	a0, 0x27
   13428: 13 05 e5 1f  	addi	a0, a0, 0x1fe
   1342c: ef 00 10 3e  	jal	ra, 0x1400c <puts>
   13430: 13 04 d0 ff  	addi	s0, zero, -0x3
   13434: 6f 00 40 01  	jal	zero, 0x13448 <main+0x114>
   13438: 37 75 02 00  	lui	a0, 0x27
   1343c: 13 05 c5 23  	addi	a0, a0, 0x23c
   13440: ef 00 d0 3c  	jal	ra, 0x1400c <puts>
   13444: 13 04 f0 ff  	addi	s0, zero, -0x1
   13448: 13 05 04 00  	addi	a0, s0, 0x0
   1344c: 13 01 01 44  	addi	sp, sp, 0x440
   13450: 6f 90 b0 16  	jal	zero, 0x1cdba <__riscv_restore_5>
   13454: 37 75 02 00  	lui	a0, 0x27
   13458: 13 05 85 21  	addi	a0, a0, 0x218
   1345c: ef 00 10 3b  	jal	ra, 0x1400c <puts>
   13460: 13 04 e0 ff  	addi	s0, zero, -0x2
   13464: 6f f0 5f fe  	jal	zero, 0x13448 <main+0x114>
   13468: 93 09 00 04  	addi	s3, zero, 0x40
   1346c: 13 05 00 02  	addi	a0, zero, 0x20
   13470: 63 e0 a9 0a  	bltu	s3, a0, 0x13510 <main+0x1dc>
   13474: 13 f5 f9 00  	andi	a0, s3, 0xf
   13478: 63 1c 05 08  	bne	a0, zero, 0x13510 <main+0x1dc>
   1347c: 03 35 84 00  	ld	a0, 0x8(s0)
   13480: b7 75 02 00  	lui	a1, 0x27
   13484: 93 85 05 17  	addi	a1, a1, 0x170
   13488: ef 00 80 74  	jal	ra, 0x13bd0 <fopen>
   1348c: 63 0c 05 08  	beq	a0, zero, 0x13524 <main+0x1f0>
   13490: 93 04 05 00  	addi	s1, a0, 0x0
   13494: 03 35 04 01  	ld	a0, 0x10(s0)
   13498: b7 75 02 00  	lui	a1, 0x27
   1349c: 93 85 b5 19  	addi	a1, a1, 0x19b
   134a0: ef 00 00 73  	jal	ra, 0x13bd0 <fopen>
   134a4: 63 0c 05 08  	beq	a0, zero, 0x1353c <main+0x208>
   134a8: 13 09 05 00  	addi	s2, a0, 0x0
   134ac: 03 35 84 01  	ld	a0, 0x18(s0)
   134b0: 03 45 05 00  	lbu	a0, 0x0(a0)
   134b4: b7 75 02 00  	lui	a1, 0x27
   134b8: 93 85 85 27  	addi	a1, a1, 0x278
   134bc: b3 85 a5 00  	add	a1, a1, a0
   134c0: 83 c5 15 00  	lbu	a1, 0x1(a1)
   134c4: 93 f5 35 00  	andi	a1, a1, 0x3
   134c8: 93 85 e5 ff  	addi	a1, a1, -0x2
   134cc: b3 35 b0 00  	sltu	a1, zero, a1
   134d0: 93 85 f5 ff  	addi	a1, a1, -0x1
   134d4: 93 f5 05 fe  	andi	a1, a1, -0x20
   134d8: 33 05 b5 00  	add	a0, a0, a1
   134dc: 13 06 50 04  	addi	a2, zero, 0x45
   134e0: 9b d5 19 00  	srliw	a1, s3, 0x1
   134e4: 63 18 c5 06  	bne	a0, a2, 0x13554 <main+0x220>
   134e8: 13 05 01 42  	addi	a0, sp, 0x420
   134ec: 13 06 10 00  	addi	a2, zero, 0x1
   134f0: 93 06 81 00  	addi	a3, sp, 0x8
   134f4: ef c0 9f ce  	jal	ra, 0x101dc <set_key>
   134f8: 83 36 84 00  	ld	a3, 0x8(s0)
   134fc: 13 06 81 00  	addi	a2, sp, 0x8
   13500: 13 85 04 00  	addi	a0, s1, 0x0
   13504: 93 05 09 00  	addi	a1, s2, 0x0
   13508: ef f0 1f a6  	jal	ra, 0x12f68 <encfile>
   1350c: 6f 00 00 07  	jal	zero, 0x1357c <main+0x248>
   13510: 37 75 02 00  	lui	a0, 0x27
   13514: 13 05 75 1c  	addi	a0, a0, 0x1c7
   13518: ef 00 50 2f  	jal	ra, 0x1400c <puts>
   1351c: 13 04 c0 ff  	addi	s0, zero, -0x4
   13520: 6f f0 9f f2  	jal	zero, 0x13448 <main+0x114>
   13524: 83 35 84 00  	ld	a1, 0x8(s0)
   13528: 37 75 02 00  	lui	a0, 0x27
   1352c: 13 05 35 17  	addi	a0, a0, 0x173
   13530: ef 00 f0 22  	jal	ra, 0x13f5e <printf>
   13534: 13 04 b0 ff  	addi	s0, zero, -0x5
   13538: 6f f0 1f f1  	jal	zero, 0x13448 <main+0x114>
   1353c: 83 35 84 00  	ld	a1, 0x8(s0)
   13540: 37 75 02 00  	lui	a0, 0x27
   13544: 13 05 e5 19  	addi	a0, a0, 0x19e
   13548: ef 00 70 21  	jal	ra, 0x13f5e <printf>
   1354c: 13 04 a0 ff  	addi	s0, zero, -0x6
   13550: 6f 00 80 03  	jal	zero, 0x13588 <main+0x254>
   13554: 13 05 01 42  	addi	a0, sp, 0x420
   13558: 13 06 20 00  	addi	a2, zero, 0x2
   1355c: 93 06 81 00  	addi	a3, sp, 0x8
   13560: ef c0 df c7  	jal	ra, 0x101dc <set_key>
   13564: 83 36 84 00  	ld	a3, 0x8(s0)
   13568: 03 37 04 01  	ld	a4, 0x10(s0)
   1356c: 13 06 81 00  	addi	a2, sp, 0x8
   13570: 13 85 04 00  	addi	a0, s1, 0x0
   13574: 93 05 09 00  	addi	a1, s2, 0x0
   13578: ef f0 1f be  	jal	ra, 0x13158 <decfile>
   1357c: 13 04 05 00  	addi	s0, a0, 0x0
   13580: 13 05 09 00  	addi	a0, s2, 0x0
   13584: ef 00 80 0b  	jal	ra, 0x1363c <fclose>
   13588: 13 85 04 00  	addi	a0, s1, 0x0
   1358c: ef 00 00 0b  	jal	ra, 0x1363c <fclose>
   13590: 6f f0 9f eb  	jal	zero, 0x13448 <main+0x114>