00000000000101d8 <updateCRC32>:
   101d8: 33 c5 a5 00  	xor	a0, a1, a0
   101dc: 13 75 f5 0f  	andi	a0, a0, 0xff
   101e0: 13 15 35 00  	slli	a0, a0, 0x3
   101e4: 37 a6 01 00  	lui	a2, 0x1a
   101e8: 13 06 86 c4  	addi	a2, a2, -0x3b8
   101ec: 33 05 a6 00  	add	a0, a2, a0
   101f0: 03 35 05 00  	ld	a0, 0x0(a0)
   101f4: 93 d5 85 00  	srli	a1, a1, 0x8
   101f8: 33 45 b5 00  	xor	a0, a0, a1
   101fc: 67 80 00 00  	jalr	zero, 0x0(ra)

0000000000010200 <crc32file>:
   10200: ef 92 30 1b  	jal	t0, 0x19bb2 <__riscv_save_7>
   10204: 93 04 06 00  	addi	s1, a2, 0x0
   10208: 13 84 05 00  	addi	s0, a1, 0x0
   1020c: 13 09 05 00  	addi	s2, a0, 0x0
   10210: 23 30 06 00  	sd	zero, 0x0(a2)
   10214: 37 a5 01 00  	lui	a0, 0x1a
   10218: 93 05 85 44  	addi	a1, a0, 0x448
   1021c: 13 05 09 00  	addi	a0, s2, 0x0
   10220: ef 00 e0 75  	jal	ra, 0x1097e <fopen>
   10224: 63 00 05 08  	beq	a0, zero, 0x102a4 <crc32file+0xa4>
   10228: 93 09 05 00  	addi	s3, a0, 0x0
   1022c: ef 00 50 03  	jal	ra, 0x10a60 <getc>
   10230: 13 0a f0 ff  	addi	s4, zero, -0x1
   10234: 63 06 45 05  	beq	a0, s4, 0x10280 <crc32file+0x80>
   10238: 93 5a 0a 02  	srli	s5, s4, 0x20
   1023c: b7 a5 01 00  	lui	a1, 0x1a
   10240: 13 8b 85 c4  	addi	s6, a1, -0x3b8
   10244: 83 b5 04 00  	ld	a1, 0x0(s1)
   10248: 93 85 15 00  	addi	a1, a1, 0x1
   1024c: 23 b0 b4 00  	sd	a1, 0x0(s1)
   10250: 33 c5 aa 00  	xor	a0, s5, a0
   10254: 13 75 f5 0f  	andi	a0, a0, 0xff
   10258: 13 15 35 00  	slli	a0, a0, 0x3
   1025c: 33 05 ab 00  	add	a0, s6, a0
   10260: 03 35 05 00  	ld	a0, 0x0(a0)
   10264: 93 d5 8a 00  	srli	a1, s5, 0x8
   10268: b3 4a b5 00  	xor	s5, a0, a1
   1026c: 13 85 09 00  	addi	a0, s3, 0x0
   10270: ef 00 00 7f  	jal	ra, 0x10a60 <getc>
   10274: e3 18 45 fd  	bne	a0, s4, 0x10244 <crc32file+0x44>
   10278: 13 ca fa ff  	xori	s4, s5, -0x1
   1027c: 6f 00 80 00  	jal	zero, 0x10284 <crc32file+0x84>
   10280: 13 1a 0a 02  	slli	s4, s4, 0x20
   10284: 03 c5 09 01  	lbu	a0, 0x10(s3)
   10288: 13 75 05 04  	andi	a0, a0, 0x40
   1028c: 63 14 05 02  	bne	a0, zero, 0x102b4 <crc32file+0xb4>
   10290: 13 85 09 00  	addi	a0, s3, 0x0
   10294: ef 00 80 1a  	jal	ra, 0x1043c <fclose>
   10298: 13 05 00 00  	addi	a0, zero, 0x0
   1029c: 23 30 44 01  	sd	s4, 0x0(s0)
   102a0: 6f 90 10 15  	jal	zero, 0x19bf0 <__riscv_restore_7>
   102a4: 13 05 09 00  	addi	a0, s2, 0x0
   102a8: ef 00 50 11  	jal	ra, 0x10bbc <perror>
   102ac: 13 05 f0 ff  	addi	a0, zero, -0x1
   102b0: 6f 90 10 14  	jal	zero, 0x19bf0 <__riscv_restore_7>
   102b4: 13 05 09 00  	addi	a0, s2, 0x0
   102b8: ef 00 50 10  	jal	ra, 0x10bbc <perror>
   102bc: 13 05 f0 ff  	addi	a0, zero, -0x1
   102c0: 23 b0 a4 00  	sd	a0, 0x0(s1)
   102c4: 6f f0 df fc  	jal	zero, 0x10290 <crc32file+0x90>

00000000000102c8 <crc32buf>:
   102c8: 13 06 f0 ff  	addi	a2, zero, -0x1
   102cc: 63 82 05 04  	beq	a1, zero, 0x10310 <crc32buf+0x48>
   102d0: b3 05 b5 00  	add	a1, a0, a1
   102d4: 13 56 06 02  	srli	a2, a2, 0x20
   102d8: b7 a6 01 00  	lui	a3, 0x1a
   102dc: 93 86 86 c4  	addi	a3, a3, -0x3b8
   102e0: 03 47 05 00  	lbu	a4, 0x0(a0)
   102e4: 33 47 c7 00  	xor	a4, a4, a2
   102e8: 13 77 f7 0f  	andi	a4, a4, 0xff
   102ec: 13 17 37 00  	slli	a4, a4, 0x3
   102f0: 33 87 e6 00  	add	a4, a3, a4
   102f4: 03 37 07 00  	ld	a4, 0x0(a4)
   102f8: 13 56 86 00  	srli	a2, a2, 0x8
   102fc: 13 05 15 00  	addi	a0, a0, 0x1
   10300: 33 46 c7 00  	xor	a2, a4, a2
   10304: e3 1e b5 fc  	bne	a0, a1, 0x102e0 <crc32buf+0x18>
   10308: 13 45 f6 ff  	xori	a0, a2, -0x1
   1030c: 67 80 00 00  	jalr	zero, 0x0(ra)
   10310: 13 15 06 02  	slli	a0, a2, 0x20
   10314: 67 80 00 00  	jalr	zero, 0x0(ra)

0000000000010318 <main>:
   10318: 13 06 20 00  	addi	a2, zero, 0x2
   1031c: 63 48 c5 06  	blt	a0, a2, 0x1038c <main+0x74>
   10320: ef 92 d0 09  	jal	t0, 0x19bbc <__riscv_save_5>
   10324: 13 01 01 ff  	addi	sp, sp, -0x10
   10328: 93 04 00 00  	addi	s1, zero, 0x0
   1032c: 13 89 85 00  	addi	s2, a1, 0x8
   10330: 13 05 e5 ff  	addi	a0, a0, -0x2
   10334: 13 15 05 02  	slli	a0, a0, 0x20
   10338: 13 55 d5 01  	srli	a0, a0, 0x1d
   1033c: 33 05 b5 00  	add	a0, a0, a1
   10340: 93 09 05 01  	addi	s3, a0, 0x10
   10344: 37 a5 01 00  	lui	a0, 0x1a
   10348: 13 04 a5 44  	addi	s0, a0, 0x44a
   1034c: 03 35 09 00  	ld	a0, 0x0(s2)
   10350: 93 05 81 00  	addi	a1, sp, 0x8
   10354: 13 06 01 00  	addi	a2, sp, 0x0
   10358: ef f0 9f ea  	jal	ra, 0x10200 <crc32file>
   1035c: 83 35 81 00  	ld	a1, 0x8(sp)
   10360: 03 36 01 00  	ld	a2, 0x0(sp)
   10364: 83 36 09 00  	ld	a3, 0x0(s2)
   10368: b3 64 95 00  	or	s1, a0, s1
   1036c: 13 05 04 00  	addi	a0, s0, 0x0
   10370: ef 00 70 07  	jal	ra, 0x10be6 <printf>
   10374: 13 09 89 00  	addi	s2, s2, 0x8
   10378: e3 1a 39 fd  	bne	s2, s3, 0x1034c <main+0x34>
   1037c: 33 35 90 00  	sltu	a0, zero, s1
   10380: 13 01 01 01  	addi	sp, sp, 0x10
   10384: 6f 90 30 07  	jal	zero, 0x19bf6 <__riscv_restore_5>
   10388: 67 80 00 00  	jalr	zero, 0x0(ra)
   1038c: 13 05 00 00  	addi	a0, zero, 0x0
   10390: 67 80 00 00  	jalr	zero, 0x0(ra)