
dynamic_baseISA_bf:	file format elf64-littleriscv

Disassembly of section .text:

0000000000010120 <exit>:
   10120: 41 11        	c.addi	sp, -0x10
   10122: 81 45        	c.li	a1, 0x0
   10124: 22 e0        	c.sdsp	s0, 0x0(sp)
   10126: 06 e4        	c.sdsp	ra, 0x8(sp)
   10128: 2a 84        	c.mv	s0, a0
   1012a: ef 20 a0 59  	jal	ra, 0x126c4 <__call_exitprocs>
   1012e: 83 b7 01 1a  	ld	a5, 0x1a0(gp)
   10132: 91 c3        	c.beqz	a5, 0x10136 <exit+0x16>
   10134: 82 97        	c.jalr	a5
   10136: 22 85        	c.mv	a0, s0
   10138: ef 40 20 00  	jal	ra, 0x1413a <_exit>

000000000001013c <register_fini>:
   1013c: 93 07 00 00  	addi	a5, zero, 0x0
   10140: 91 c7        	c.beqz	a5, 0x1014c <register_fini+0x10>
   10142: 51 65        	c.lui	a0, 0x14
   10144: 13 05 a5 b9  	addi	a0, a0, -0x466
   10148: 6f 20 e0 64  	jal	zero, 0x12796 <atexit>
   1014c: 82 80        	c.jr	ra

000000000001014e <_start>:
   1014e: 97 81 00 00  	auipc	gp, 0x8
   10152: 93 81 a1 e3  	addi	gp, gp, -0x1c6
   10156: 13 85 01 1a  	addi	a0, gp, 0x1a0
   1015a: 13 86 01 76  	addi	a2, gp, 0x760
   1015e: 09 8e        	c.sub	a2, a0
   10160: 81 45        	c.li	a1, 0x0
   10162: ef 20 00 2d  	jal	ra, 0x12432 <memset>
   10166: 17 25 00 00  	auipc	a0, 0x2
   1016a: 13 05 05 63  	addi	a0, a0, 0x630
   1016e: 19 c5        	c.beqz	a0, 0x1017c <_start+0x2e>
   10170: 17 45 00 00  	auipc	a0, 0x4
   10174: 13 05 a5 a2  	addi	a0, a0, -0x5d6
   10178: ef 20 e0 61  	jal	ra, 0x12796 <atexit>
   1017c: ef 20 40 24  	jal	ra, 0x123c0 <__libc_init_array>
   10180: 02 45        	c.lwsp	a0, 0x0(sp)
   10182: 2c 00        	c.addi4spn	a1, sp, 0x8
   10184: 01 46        	c.li	a2, 0x0
   10186: ef 00 e0 04  	jal	ra, 0x101d4 <main>
   1018a: 59 bf        	c.j	0x10120 <exit>

000000000001018c <__do_global_dtors_aux>:
   1018c: 41 11        	c.addi	sp, -0x10
   1018e: 22 e0        	c.sdsp	s0, 0x0(sp)
   10190: 83 c7 81 1d  	lbu	a5, 0x1d8(gp)
   10194: 06 e4        	c.sdsp	ra, 0x8(sp)
   10196: 91 ef        	c.bnez	a5, 0x101b2 <__do_global_dtors_aux+0x26>
   10198: 93 07 00 00  	addi	a5, zero, 0x0
   1019c: 81 cb        	c.beqz	a5, 0x101ac <__do_global_dtors_aux+0x20>
   1019e: 5d 65        	c.lui	a0, 0x17
   101a0: 13 05 85 59  	addi	a0, a0, 0x598
   101a4: 97 00 00 00  	auipc	ra, 0x0
   101a8: e7 00 00 00  	jalr	ra, 0x0(zero)
   101ac: 85 47        	c.li	a5, 0x1
   101ae: 23 8c f1 1c  	sb	a5, 0x1d8(gp)
   101b2: a2 60        	c.ldsp	ra, 0x8(sp)
   101b4: 02 64        	c.ldsp	s0, 0x0(sp)
   101b6: 41 01        	c.addi	sp, 0x10
   101b8: 82 80        	c.jr	ra

00000000000101ba <frame_dummy>:
   101ba: 93 07 00 00  	addi	a5, zero, 0x0
   101be: 91 cb        	c.beqz	a5, 0x101d2 <frame_dummy+0x18>
   101c0: 5d 65        	c.lui	a0, 0x17
   101c2: 93 85 01 1e  	addi	a1, gp, 0x1e0
   101c6: 13 05 85 59  	addi	a0, a0, 0x598
   101ca: 17 03 00 00  	auipc	t1, 0x0
   101ce: 67 00 00 00  	jalr	zero, 0x0(zero)
   101d2: 82 80        	c.jr	ra

00000000000101d4 <main>:
   101d4: ef 42 80 15  	jal	t0, 0x1432c <__riscv_save_9>
   101d8: 37 26 00 00  	lui	a2, 0x2
   101dc: 1b 06 06 10  	addiw	a2, a2, 0x100
   101e0: 33 01 c1 40  	sub	sp, sp, a2
   101e4: 13 06 20 00  	addi	a2, zero, 0x2
   101e8: 63 4c a6 00  	blt	a2, a0, 0x10200 <main+0x2c>
   101ec: 37 45 01 00  	lui	a0, 0x14
   101f0: 13 05 75 3c  	addi	a0, a0, 0x3c7
   101f4: ef 10 70 18  	jal	ra, 0x11b7a <puts>
   101f8: 13 05 f0 ff  	addi	a0, zero, -0x1
   101fc: ef f0 5f f2  	jal	ra, 0x10120 <exit>
   10200: 93 84 05 00  	addi	s1, a1, 0x0
   10204: 03 b5 85 00  	ld	a0, 0x8(a1)
   10208: 03 45 05 00  	lbu	a0, 0x0(a0)
   1020c: 93 05 30 06  	addi	a1, zero, 0x63
   10210: 13 04 10 00  	addi	s0, zero, 0x1
   10214: 63 cc a5 00  	blt	a1, a0, 0x1022c <main+0x58>
   10218: 93 05 40 04  	addi	a1, zero, 0x44
   1021c: 63 00 b5 02  	beq	a0, a1, 0x1023c <main+0x68>
   10220: 93 05 50 04  	addi	a1, zero, 0x45
   10224: 63 0e b5 00  	beq	a0, a1, 0x10240 <main+0x6c>
   10228: 6f f0 5f fc  	jal	zero, 0x101ec <main+0x18>
   1022c: 93 05 50 06  	addi	a1, zero, 0x65
   10230: 63 08 b5 00  	beq	a0, a1, 0x10240 <main+0x6c>
   10234: 93 05 40 06  	addi	a1, zero, 0x64
   10238: e3 1a b5 fa  	bne	a0, a1, 0x101ec <main+0x18>
   1023c: 13 04 00 00  	addi	s0, zero, 0x0
   10240: 13 05 00 00  	addi	a0, zero, 0x0
   10244: 13 08 00 00  	addi	a6, zero, 0x0
   10248: 03 b9 04 02  	ld	s2, 0x20(s1)
   1024c: b7 65 01 00  	lui	a1, 0x16
   10250: 93 85 85 48  	addi	a1, a1, 0x488
   10254: 13 06 a0 00  	addi	a2, zero, 0xa
   10258: 93 06 00 04  	addi	a3, zero, 0x40
   1025c: 13 07 81 06  	addi	a4, sp, 0x68
   10260: 93 07 60 00  	addi	a5, zero, 0x6
   10264: 83 48 09 00  	lbu	a7, 0x0(s2)
   10268: 63 8c 08 06  	beq	a7, zero, 0x102e0 <main+0x10c>
   1026c: b3 82 15 01  	add	t0, a1, a7
   10270: 83 c2 12 00  	lbu	t0, 0x1(t0)
   10274: 93 f2 32 00  	andi	t0, t0, 0x3
   10278: 93 82 e2 ff  	addi	t0, t0, -0x2
   1027c: b3 32 50 00  	sltu	t0, zero, t0
   10280: 93 82 f2 ff  	addi	t0, t0, -0x1
   10284: 93 f2 02 fe  	andi	t0, t0, -0x20
   10288: b3 88 58 00  	add	a7, a7, t0
   1028c: 93 82 08 fd  	addi	t0, a7, -0x30
   10290: 13 f3 f2 0f  	andi	t1, t0, 0xff
   10294: 93 02 00 fd  	addi	t0, zero, -0x30
   10298: 63 6a c3 00  	bltu	t1, a2, 0x102ac <main+0xd8>
   1029c: 93 82 f8 fb  	addi	t0, a7, -0x41
   102a0: 13 f3 f2 0f  	andi	t1, t0, 0xff
   102a4: 93 02 90 fc  	addi	t0, zero, -0x37
   102a8: 63 7a f3 14  	bgeu	t1, a5, 0x103fc <main+0x228>
   102ac: 93 f8 f8 0f  	andi	a7, a7, 0xff
   102b0: 13 15 45 00  	slli	a0, a0, 0x4
   102b4: 33 05 55 00  	add	a0, a0, t0
   102b8: 33 05 15 01  	add	a0, a0, a7
   102bc: 93 72 18 00  	andi	t0, a6, 0x1
   102c0: 9b 08 18 00  	addiw	a7, a6, 0x1
   102c4: 63 88 02 00  	beq	t0, zero, 0x102d4 <main+0x100>
   102c8: 1b d8 18 00  	srliw	a6, a7, 0x1
   102cc: 33 08 e8 00  	add	a6, a6, a4
   102d0: a3 0f a8 fe  	sb	a0, -0x1(a6)
   102d4: 13 09 19 00  	addi	s2, s2, 0x1
   102d8: 13 88 08 00  	addi	a6, a7, 0x0
   102dc: e3 94 d8 f8  	bne	a7, a3, 0x10264 <main+0x90>
   102e0: 13 05 01 07  	addi	a0, sp, 0x70
   102e4: 93 05 80 00  	addi	a1, zero, 0x8
   102e8: 13 06 81 06  	addi	a2, sp, 0x68
   102ec: ef 00 c0 11  	jal	ra, 0x10408 <BF_set_key>
   102f0: 03 45 09 00  	lbu	a0, 0x0(s2)
   102f4: 63 1e 05 0e  	bne	a0, zero, 0x103f0 <main+0x21c>
   102f8: 03 b5 04 01  	ld	a0, 0x10(s1)
   102fc: b7 45 01 00  	lui	a1, 0x14
   10300: 93 85 05 39  	addi	a1, a1, 0x390
   10304: ef 10 80 59  	jal	ra, 0x1189c <fopen>
   10308: e3 02 05 ee  	beq	a0, zero, 0x101ec <main+0x18>
   1030c: 13 09 05 00  	addi	s2, a0, 0x0
   10310: 03 b5 84 01  	ld	a0, 0x18(s1)
   10314: b7 45 01 00  	lui	a1, 0x14
   10318: 93 85 25 39  	addi	a1, a1, 0x392
   1031c: ef 10 00 58  	jal	ra, 0x1189c <fopen>
   10320: e3 06 05 ec  	beq	a0, zero, 0x101ec <main+0x18>
   10324: 93 04 05 00  	addi	s1, a0, 0x0
   10328: 83 5a 09 01  	lhu	s5, 0x10(s2)
   1032c: 13 f5 0a 02  	andi	a0, s5, 0x20
   10330: 63 14 05 0a  	bne	a0, zero, 0x103d8 <main+0x204>
   10334: 93 09 01 04  	addi	s3, sp, 0x40
   10338: 13 0a 70 02  	addi	s4, zero, 0x27
   1033c: 13 f5 0a 02  	andi	a0, s5, 0x20
   10340: 63 18 05 06  	bne	a0, zero, 0x103b0 <main+0x1dc>
   10344: 13 06 00 00  	addi	a2, zero, 0x0
   10348: 13 0b 06 00  	addi	s6, a2, 0x0
   1034c: 13 05 09 00  	addi	a0, s2, 0x0
   10350: ef 10 80 69  	jal	ra, 0x119e8 <getc>
   10354: 83 5a 09 01  	lhu	s5, 0x10(s2)
   10358: b3 85 69 01  	add	a1, s3, s6
   1035c: 23 80 a5 00  	sb	a0, 0x0(a1)
   10360: 13 f5 0a 02  	andi	a0, s5, 0x20
   10364: 13 06 1b 00  	addi	a2, s6, 0x1
   10368: 63 14 05 00  	bne	a0, zero, 0x10370 <main+0x19c>
   1036c: e3 6e 4b fd  	bltu	s6, s4, 0x10348 <main+0x174>
   10370: 13 05 01 04  	addi	a0, sp, 0x40
   10374: 93 05 81 01  	addi	a1, sp, 0x18
   10378: 93 06 01 07  	addi	a3, sp, 0x70
   1037c: 13 07 01 01  	addi	a4, sp, 0x10
   10380: 93 07 c1 00  	addi	a5, sp, 0xc
   10384: 93 0b 81 01  	addi	s7, sp, 0x18
   10388: 13 08 04 00  	addi	a6, s0, 0x0
   1038c: ef 00 50 7f  	jal	ra, 0x11380 <BF_cfb64_encrypt>
   10390: 33 0b 7b 01  	add	s6, s6, s7
   10394: 13 0b 1b 00  	addi	s6, s6, 0x1
   10398: 03 c5 0b 00  	lbu	a0, 0x0(s7)
   1039c: 93 85 04 00  	addi	a1, s1, 0x0
   103a0: ef 10 60 53  	jal	ra, 0x118d6 <fputc>
   103a4: 93 8b 1b 00  	addi	s7, s7, 0x1
   103a8: e3 98 6b ff  	bne	s7, s6, 0x10398 <main+0x1c4>
   103ac: 6f 00 40 02  	jal	zero, 0x103d0 <main+0x1fc>
   103b0: 13 05 01 04  	addi	a0, sp, 0x40
   103b4: 93 05 81 01  	addi	a1, sp, 0x18
   103b8: 93 06 01 07  	addi	a3, sp, 0x70
   103bc: 13 07 01 01  	addi	a4, sp, 0x10
   103c0: 93 07 c1 00  	addi	a5, sp, 0xc
   103c4: 13 06 00 00  	addi	a2, zero, 0x0
   103c8: 13 08 04 00  	addi	a6, s0, 0x0
   103cc: ef 00 50 7b  	jal	ra, 0x11380 <BF_cfb64_encrypt>
   103d0: 13 f5 0a 02  	andi	a0, s5, 0x20
   103d4: e3 04 05 f6  	beq	a0, zero, 0x1033c <main+0x168>
   103d8: 1b 05 09 00  	addiw	a0, s2, 0x0
   103dc: ef 20 e0 04  	jal	ra, 0x1242a <close>
   103e0: 1b 85 04 00  	addiw	a0, s1, 0x0
   103e4: ef 20 60 04  	jal	ra, 0x1242a <close>
   103e8: 13 05 10 00  	addi	a0, zero, 0x1
   103ec: ef f0 5f d3  	jal	ra, 0x10120 <exit>
   103f0: 37 45 01 00  	lui	a0, 0x14
   103f4: 13 05 45 39  	addi	a0, a0, 0x394
   103f8: 6f f0 df df  	jal	zero, 0x101f4 <main+0x20>
   103fc: 37 45 01 00  	lui	a0, 0x14
   10400: 13 05 35 3a  	addi	a0, a0, 0x3a3
   10404: 6f f0 1f df  	jal	zero, 0x101f4 <main+0x20>

0000000000010408 <BF_set_key>:
   10408: ef 32 30 74  	jal	t0, 0x1434a <__riscv_save_3>
   1040c: 13 01 01 ff  	addi	sp, sp, -0x10
   10410: 93 04 06 00  	addi	s1, a2, 0x0
   10414: 13 89 05 00  	addi	s2, a1, 0x0
   10418: 13 04 05 00  	addi	s0, a0, 0x0
   1041c: 37 45 01 00  	lui	a0, 0x14
   10420: 93 05 85 3f  	addi	a1, a0, 0x3f8
   10424: 37 25 00 00  	lui	a0, 0x2
   10428: 1b 06 05 09  	addiw	a2, a0, 0x90
   1042c: 13 05 04 00  	addi	a0, s0, 0x0
   10430: ef 20 c0 0a  	jal	ra, 0x124dc <memcpy>
   10434: 13 05 80 04  	addi	a0, zero, 0x48
   10438: 63 44 a9 00  	blt	s2, a0, 0x10440 <BF_set_key+0x38>
   1043c: 13 09 80 04  	addi	s2, zero, 0x48
   10440: 33 89 24 01  	add	s2, s1, s2
   10444: 13 05 04 09  	addi	a0, s0, 0x90
   10448: 93 05 04 00  	addi	a1, s0, 0x0
   1044c: 13 86 04 00  	addi	a2, s1, 0x0
   10450: 93 06 16 00  	addi	a3, a2, 0x1
   10454: 63 e4 26 01  	bltu	a3, s2, 0x1045c <BF_set_key+0x54>
   10458: 93 86 04 00  	addi	a3, s1, 0x0
   1045c: 13 87 16 00  	addi	a4, a3, 0x1
   10460: 63 64 27 01  	bltu	a4, s2, 0x10468 <BF_set_key+0x60>
   10464: 13 87 04 00  	addi	a4, s1, 0x0
   10468: 13 08 17 00  	addi	a6, a4, 0x1
   1046c: 63 64 28 01  	bltu	a6, s2, 0x10474 <BF_set_key+0x6c>
   10470: 13 88 04 00  	addi	a6, s1, 0x0
   10474: 93 07 18 00  	addi	a5, a6, 0x1
   10478: 63 e4 27 01  	bltu	a5, s2, 0x10480 <BF_set_key+0x78>
   1047c: 93 87 04 00  	addi	a5, s1, 0x0
   10480: 03 46 06 00  	lbu	a2, 0x0(a2)
   10484: 83 c6 06 00  	lbu	a3, 0x0(a3)
   10488: 13 16 06 01  	slli	a2, a2, 0x10
   1048c: 93 96 86 00  	slli	a3, a3, 0x8
   10490: 03 47 07 00  	lbu	a4, 0x0(a4)
   10494: 33 e6 c6 00  	or	a2, a3, a2
   10498: 83 46 08 00  	lbu	a3, 0x0(a6)
   1049c: 03 b8 05 00  	ld	a6, 0x0(a1)
   104a0: 33 66 e6 00  	or	a2, a2, a4
   104a4: 13 16 86 00  	slli	a2, a2, 0x8
   104a8: 33 66 d6 00  	or	a2, a2, a3
   104ac: 33 46 06 01  	xor	a2, a2, a6
   104b0: 23 b0 c5 00  	sd	a2, 0x0(a1)
   104b4: 93 85 85 00  	addi	a1, a1, 0x8
   104b8: 13 86 07 00  	addi	a2, a5, 0x0
   104bc: e3 9a a5 f8  	bne	a1, a0, 0x10450 <BF_set_key+0x48>
   104c0: 23 34 01 00  	sd	zero, 0x8(sp)
   104c4: 23 30 01 00  	sd	zero, 0x0(sp)
   104c8: 13 09 84 00  	addi	s2, s0, 0x8
   104cc: 93 04 84 09  	addi	s1, s0, 0x98
   104d0: 13 05 01 00  	addi	a0, sp, 0x0
   104d4: 13 06 10 00  	addi	a2, zero, 0x1
   104d8: 93 05 04 00  	addi	a1, s0, 0x0
   104dc: ef 00 80 05  	jal	ra, 0x10534 <BF_encrypt>
   104e0: 03 35 01 00  	ld	a0, 0x0(sp)
   104e4: 83 35 81 00  	ld	a1, 0x8(sp)
   104e8: 23 3c a9 fe  	sd	a0, -0x8(s2)
   104ec: 23 30 b9 00  	sd	a1, 0x0(s2)
   104f0: 13 09 09 01  	addi	s2, s2, 0x10
   104f4: e3 1e 99 fc  	bne	s2, s1, 0x104d0 <BF_set_key+0xc8>
   104f8: 37 25 00 00  	lui	a0, 0x2
   104fc: 1b 09 85 09  	addiw	s2, a0, 0x98
   10500: 33 09 24 01  	add	s2, s0, s2
   10504: 13 05 01 00  	addi	a0, sp, 0x0
   10508: 13 06 10 00  	addi	a2, zero, 0x1
   1050c: 93 05 04 00  	addi	a1, s0, 0x0
   10510: ef 00 40 02  	jal	ra, 0x10534 <BF_encrypt>
   10514: 03 35 01 00  	ld	a0, 0x0(sp)
   10518: 83 35 81 00  	ld	a1, 0x8(sp)
   1051c: 23 bc a4 fe  	sd	a0, -0x8(s1)
   10520: 23 b0 b4 00  	sd	a1, 0x0(s1)
   10524: 93 84 04 01  	addi	s1, s1, 0x10
   10528: e3 9e 24 fd  	bne	s1, s2, 0x10504 <BF_set_key+0xfc>
   1052c: 13 01 01 01  	addi	sp, sp, 0x10
   10530: 6f 30 10 65  	jal	zero, 0x14380 <__riscv_restore_3>

0000000000010534 <BF_encrypt>:
   10534: 03 38 05 00  	ld	a6, 0x0(a0)
   10538: 83 37 85 00  	ld	a5, 0x8(a0)
   1053c: 93 06 f0 ff  	addi	a3, zero, -0x1
   10540: 93 d6 06 02  	srli	a3, a3, 0x20
   10544: 13 87 05 09  	addi	a4, a1, 0x90
   10548: 63 0a 06 70  	beq	a2, zero, 0x10c5c <BF_encrypt+0x728>
   1054c: 03 b6 05 00  	ld	a2, 0x0(a1)
   10550: 33 46 06 01  	xor	a2, a2, a6
   10554: 13 58 56 01  	srli	a6, a2, 0x15
   10558: 13 78 88 ff  	andi	a6, a6, -0x8
   1055c: 33 08 07 01  	add	a6, a4, a6
   10560: 03 38 08 00  	ld	a6, 0x0(a6)
   10564: 93 18 86 02  	slli	a7, a2, 0x28
   10568: 93 d8 88 03  	srli	a7, a7, 0x38
   1056c: 93 88 08 10  	addi	a7, a7, 0x100
   10570: 93 98 38 00  	slli	a7, a7, 0x3
   10574: b3 08 17 01  	add	a7, a4, a7
   10578: 83 b8 08 00  	ld	a7, 0x0(a7)
   1057c: 93 12 06 03  	slli	t0, a2, 0x30
   10580: 93 d2 82 03  	srli	t0, t0, 0x38
   10584: 93 82 02 20  	addi	t0, t0, 0x200
   10588: 93 92 32 00  	slli	t0, t0, 0x3
   1058c: b3 02 57 00  	add	t0, a4, t0
   10590: 83 b2 02 00  	ld	t0, 0x0(t0)
   10594: 13 73 f6 0f  	andi	t1, a2, 0xff
   10598: 13 03 03 30  	addi	t1, t1, 0x300
   1059c: 13 13 33 00  	slli	t1, t1, 0x3
   105a0: 33 03 67 00  	add	t1, a4, t1
   105a4: 03 33 03 00  	ld	t1, 0x0(t1)
   105a8: 33 88 08 01  	add	a6, a7, a6
   105ac: 83 b8 85 00  	ld	a7, 0x8(a1)
   105b0: 33 48 58 00  	xor	a6, a6, t0
   105b4: 33 08 68 00  	add	a6, a6, t1
   105b8: 33 78 d8 00  	and	a6, a6, a3
   105bc: b3 c7 f8 00  	xor	a5, a7, a5
   105c0: b3 c7 07 01  	xor	a5, a5, a6
   105c4: 13 d8 57 01  	srli	a6, a5, 0x15
   105c8: 13 78 88 ff  	andi	a6, a6, -0x8
   105cc: 33 08 07 01  	add	a6, a4, a6
   105d0: 03 38 08 00  	ld	a6, 0x0(a6)
   105d4: 93 98 87 02  	slli	a7, a5, 0x28
   105d8: 93 d8 88 03  	srli	a7, a7, 0x38
   105dc: 93 88 08 10  	addi	a7, a7, 0x100
   105e0: 93 98 38 00  	slli	a7, a7, 0x3
   105e4: b3 08 17 01  	add	a7, a4, a7
   105e8: 83 b8 08 00  	ld	a7, 0x0(a7)
   105ec: 93 92 07 03  	slli	t0, a5, 0x30
   105f0: 93 d2 82 03  	srli	t0, t0, 0x38
   105f4: 93 82 02 20  	addi	t0, t0, 0x200
   105f8: 93 92 32 00  	slli	t0, t0, 0x3
   105fc: b3 02 57 00  	add	t0, a4, t0
   10600: 83 b2 02 00  	ld	t0, 0x0(t0)
   10604: 13 f3 f7 0f  	andi	t1, a5, 0xff
   10608: 13 03 03 30  	addi	t1, t1, 0x300
   1060c: 13 13 33 00  	slli	t1, t1, 0x3
   10610: 33 03 67 00  	add	t1, a4, t1
   10614: 03 33 03 00  	ld	t1, 0x0(t1)
   10618: 33 88 08 01  	add	a6, a7, a6
   1061c: 83 b8 05 01  	ld	a7, 0x10(a1)
   10620: 33 48 58 00  	xor	a6, a6, t0
   10624: 33 08 68 00  	add	a6, a6, t1
   10628: 33 78 d8 00  	and	a6, a6, a3
   1062c: 33 c6 c8 00  	xor	a2, a7, a2
   10630: 33 46 06 01  	xor	a2, a2, a6
   10634: 13 58 56 01  	srli	a6, a2, 0x15
   10638: 13 78 88 ff  	andi	a6, a6, -0x8
   1063c: 33 08 07 01  	add	a6, a4, a6
   10640: 03 38 08 00  	ld	a6, 0x0(a6)
   10644: 93 18 86 02  	slli	a7, a2, 0x28
   10648: 93 d8 88 03  	srli	a7, a7, 0x38
   1064c: 93 88 08 10  	addi	a7, a7, 0x100
   10650: 93 98 38 00  	slli	a7, a7, 0x3
   10654: b3 08 17 01  	add	a7, a4, a7
   10658: 83 b8 08 00  	ld	a7, 0x0(a7)
   1065c: 93 12 06 03  	slli	t0, a2, 0x30
   10660: 93 d2 82 03  	srli	t0, t0, 0x38
   10664: 93 82 02 20  	addi	t0, t0, 0x200
   10668: 93 92 32 00  	slli	t0, t0, 0x3
   1066c: b3 02 57 00  	add	t0, a4, t0
   10670: 83 b2 02 00  	ld	t0, 0x0(t0)
   10674: 13 73 f6 0f  	andi	t1, a2, 0xff
   10678: 13 03 03 30  	addi	t1, t1, 0x300
   1067c: 13 13 33 00  	slli	t1, t1, 0x3
   10680: 33 03 67 00  	add	t1, a4, t1
   10684: 03 33 03 00  	ld	t1, 0x0(t1)
   10688: 33 88 08 01  	add	a6, a7, a6
   1068c: 83 b8 85 01  	ld	a7, 0x18(a1)
   10690: 33 48 58 00  	xor	a6, a6, t0
   10694: 33 08 68 00  	add	a6, a6, t1
   10698: 33 78 d8 00  	and	a6, a6, a3
   1069c: b3 c7 f8 00  	xor	a5, a7, a5
   106a0: b3 c7 07 01  	xor	a5, a5, a6
   106a4: 13 d8 57 01  	srli	a6, a5, 0x15
   106a8: 13 78 88 ff  	andi	a6, a6, -0x8
   106ac: 33 08 07 01  	add	a6, a4, a6
   106b0: 03 38 08 00  	ld	a6, 0x0(a6)
   106b4: 93 98 87 02  	slli	a7, a5, 0x28
   106b8: 93 d8 88 03  	srli	a7, a7, 0x38
   106bc: 93 88 08 10  	addi	a7, a7, 0x100
   106c0: 93 98 38 00  	slli	a7, a7, 0x3
   106c4: b3 08 17 01  	add	a7, a4, a7
   106c8: 83 b8 08 00  	ld	a7, 0x0(a7)
   106cc: 93 92 07 03  	slli	t0, a5, 0x30
   106d0: 93 d2 82 03  	srli	t0, t0, 0x38
   106d4: 93 82 02 20  	addi	t0, t0, 0x200
   106d8: 93 92 32 00  	slli	t0, t0, 0x3
   106dc: b3 02 57 00  	add	t0, a4, t0
   106e0: 83 b2 02 00  	ld	t0, 0x0(t0)
   106e4: 13 f3 f7 0f  	andi	t1, a5, 0xff
   106e8: 13 03 03 30  	addi	t1, t1, 0x300
   106ec: 13 13 33 00  	slli	t1, t1, 0x3
   106f0: 33 03 67 00  	add	t1, a4, t1
   106f4: 03 33 03 00  	ld	t1, 0x0(t1)
   106f8: 33 88 08 01  	add	a6, a7, a6
   106fc: 83 b8 05 02  	ld	a7, 0x20(a1)
   10700: 33 48 58 00  	xor	a6, a6, t0
   10704: 33 08 68 00  	add	a6, a6, t1
   10708: 33 78 d8 00  	and	a6, a6, a3
   1070c: 33 c6 c8 00  	xor	a2, a7, a2
   10710: 33 46 06 01  	xor	a2, a2, a6
   10714: 13 58 56 01  	srli	a6, a2, 0x15
   10718: 13 78 88 ff  	andi	a6, a6, -0x8
   1071c: 33 08 07 01  	add	a6, a4, a6
   10720: 03 38 08 00  	ld	a6, 0x0(a6)
   10724: 93 18 86 02  	slli	a7, a2, 0x28
   10728: 93 d8 88 03  	srli	a7, a7, 0x38
   1072c: 93 88 08 10  	addi	a7, a7, 0x100
   10730: 93 98 38 00  	slli	a7, a7, 0x3
   10734: b3 08 17 01  	add	a7, a4, a7
   10738: 83 b8 08 00  	ld	a7, 0x0(a7)
   1073c: 93 12 06 03  	slli	t0, a2, 0x30
   10740: 93 d2 82 03  	srli	t0, t0, 0x38
   10744: 93 82 02 20  	addi	t0, t0, 0x200
   10748: 93 92 32 00  	slli	t0, t0, 0x3
   1074c: b3 02 57 00  	add	t0, a4, t0
   10750: 83 b2 02 00  	ld	t0, 0x0(t0)
   10754: 13 73 f6 0f  	andi	t1, a2, 0xff
   10758: 13 03 03 30  	addi	t1, t1, 0x300
   1075c: 13 13 33 00  	slli	t1, t1, 0x3
   10760: 33 03 67 00  	add	t1, a4, t1
   10764: 03 33 03 00  	ld	t1, 0x0(t1)
   10768: 33 88 08 01  	add	a6, a7, a6
   1076c: 83 b8 85 02  	ld	a7, 0x28(a1)
   10770: 33 48 58 00  	xor	a6, a6, t0
   10774: 33 08 68 00  	add	a6, a6, t1
   10778: 33 78 d8 00  	and	a6, a6, a3
   1077c: b3 c7 f8 00  	xor	a5, a7, a5
   10780: b3 c7 07 01  	xor	a5, a5, a6
   10784: 13 d8 57 01  	srli	a6, a5, 0x15
   10788: 13 78 88 ff  	andi	a6, a6, -0x8
   1078c: 33 08 07 01  	add	a6, a4, a6
   10790: 03 38 08 00  	ld	a6, 0x0(a6)
   10794: 93 98 87 02  	slli	a7, a5, 0x28
   10798: 93 d8 88 03  	srli	a7, a7, 0x38
   1079c: 93 88 08 10  	addi	a7, a7, 0x100
   107a0: 93 98 38 00  	slli	a7, a7, 0x3
   107a4: b3 08 17 01  	add	a7, a4, a7
   107a8: 83 b8 08 00  	ld	a7, 0x0(a7)
   107ac: 93 92 07 03  	slli	t0, a5, 0x30
   107b0: 93 d2 82 03  	srli	t0, t0, 0x38
   107b4: 93 82 02 20  	addi	t0, t0, 0x200
   107b8: 93 92 32 00  	slli	t0, t0, 0x3
   107bc: b3 02 57 00  	add	t0, a4, t0
   107c0: 83 b2 02 00  	ld	t0, 0x0(t0)
   107c4: 13 f3 f7 0f  	andi	t1, a5, 0xff
   107c8: 13 03 03 30  	addi	t1, t1, 0x300
   107cc: 13 13 33 00  	slli	t1, t1, 0x3
   107d0: 33 03 67 00  	add	t1, a4, t1
   107d4: 03 33 03 00  	ld	t1, 0x0(t1)
   107d8: 33 88 08 01  	add	a6, a7, a6
   107dc: 83 b8 05 03  	ld	a7, 0x30(a1)
   107e0: 33 48 58 00  	xor	a6, a6, t0
   107e4: 33 08 68 00  	add	a6, a6, t1
   107e8: 33 78 d8 00  	and	a6, a6, a3
   107ec: 33 c6 c8 00  	xor	a2, a7, a2
   107f0: 33 46 06 01  	xor	a2, a2, a6
   107f4: 13 58 56 01  	srli	a6, a2, 0x15
   107f8: 13 78 88 ff  	andi	a6, a6, -0x8
   107fc: 33 08 07 01  	add	a6, a4, a6
   10800: 03 38 08 00  	ld	a6, 0x0(a6)
   10804: 93 18 86 02  	slli	a7, a2, 0x28
   10808: 93 d8 88 03  	srli	a7, a7, 0x38
   1080c: 93 88 08 10  	addi	a7, a7, 0x100
   10810: 93 98 38 00  	slli	a7, a7, 0x3
   10814: b3 08 17 01  	add	a7, a4, a7
   10818: 83 b8 08 00  	ld	a7, 0x0(a7)
   1081c: 93 12 06 03  	slli	t0, a2, 0x30
   10820: 93 d2 82 03  	srli	t0, t0, 0x38
   10824: 93 82 02 20  	addi	t0, t0, 0x200
   10828: 93 92 32 00  	slli	t0, t0, 0x3
   1082c: b3 02 57 00  	add	t0, a4, t0
   10830: 83 b2 02 00  	ld	t0, 0x0(t0)
   10834: 13 73 f6 0f  	andi	t1, a2, 0xff
   10838: 13 03 03 30  	addi	t1, t1, 0x300
   1083c: 13 13 33 00  	slli	t1, t1, 0x3
   10840: 33 03 67 00  	add	t1, a4, t1
   10844: 03 33 03 00  	ld	t1, 0x0(t1)
   10848: 33 88 08 01  	add	a6, a7, a6
   1084c: 83 b8 85 03  	ld	a7, 0x38(a1)
   10850: 33 48 58 00  	xor	a6, a6, t0
   10854: 33 08 68 00  	add	a6, a6, t1
   10858: 33 78 d8 00  	and	a6, a6, a3
   1085c: b3 c7 f8 00  	xor	a5, a7, a5
   10860: b3 c7 07 01  	xor	a5, a5, a6
   10864: 13 d8 57 01  	srli	a6, a5, 0x15
   10868: 13 78 88 ff  	andi	a6, a6, -0x8
   1086c: 33 08 07 01  	add	a6, a4, a6
   10870: 03 38 08 00  	ld	a6, 0x0(a6)
   10874: 93 98 87 02  	slli	a7, a5, 0x28
   10878: 93 d8 88 03  	srli	a7, a7, 0x38
   1087c: 93 88 08 10  	addi	a7, a7, 0x100
   10880: 93 98 38 00  	slli	a7, a7, 0x3
   10884: b3 08 17 01  	add	a7, a4, a7
   10888: 83 b8 08 00  	ld	a7, 0x0(a7)
   1088c: 93 92 07 03  	slli	t0, a5, 0x30
   10890: 93 d2 82 03  	srli	t0, t0, 0x38
   10894: 93 82 02 20  	addi	t0, t0, 0x200
   10898: 93 92 32 00  	slli	t0, t0, 0x3
   1089c: b3 02 57 00  	add	t0, a4, t0
   108a0: 83 b2 02 00  	ld	t0, 0x0(t0)
   108a4: 13 f3 f7 0f  	andi	t1, a5, 0xff
   108a8: 13 03 03 30  	addi	t1, t1, 0x300
   108ac: 13 13 33 00  	slli	t1, t1, 0x3
   108b0: 33 03 67 00  	add	t1, a4, t1
   108b4: 03 33 03 00  	ld	t1, 0x0(t1)
   108b8: 33 88 08 01  	add	a6, a7, a6
   108bc: 83 b8 05 04  	ld	a7, 0x40(a1)
   108c0: 33 48 58 00  	xor	a6, a6, t0
   108c4: 33 08 68 00  	add	a6, a6, t1
   108c8: 33 78 d8 00  	and	a6, a6, a3
   108cc: 33 c6 c8 00  	xor	a2, a7, a2
   108d0: 33 46 06 01  	xor	a2, a2, a6
   108d4: 13 58 56 01  	srli	a6, a2, 0x15
   108d8: 13 78 88 ff  	andi	a6, a6, -0x8
   108dc: 33 08 07 01  	add	a6, a4, a6
   108e0: 03 38 08 00  	ld	a6, 0x0(a6)
   108e4: 93 18 86 02  	slli	a7, a2, 0x28
   108e8: 93 d8 88 03  	srli	a7, a7, 0x38
   108ec: 93 88 08 10  	addi	a7, a7, 0x100
   108f0: 93 98 38 00  	slli	a7, a7, 0x3
   108f4: b3 08 17 01  	add	a7, a4, a7
   108f8: 83 b8 08 00  	ld	a7, 0x0(a7)
   108fc: 93 12 06 03  	slli	t0, a2, 0x30
   10900: 93 d2 82 03  	srli	t0, t0, 0x38
   10904: 93 82 02 20  	addi	t0, t0, 0x200
   10908: 93 92 32 00  	slli	t0, t0, 0x3
   1090c: b3 02 57 00  	add	t0, a4, t0
   10910: 83 b2 02 00  	ld	t0, 0x0(t0)
   10914: 13 73 f6 0f  	andi	t1, a2, 0xff
   10918: 13 03 03 30  	addi	t1, t1, 0x300
   1091c: 13 13 33 00  	slli	t1, t1, 0x3
   10920: 33 03 67 00  	add	t1, a4, t1
   10924: 03 33 03 00  	ld	t1, 0x0(t1)
   10928: 33 88 08 01  	add	a6, a7, a6
   1092c: 83 b8 85 04  	ld	a7, 0x48(a1)
   10930: 33 48 58 00  	xor	a6, a6, t0
   10934: 33 08 68 00  	add	a6, a6, t1
   10938: 33 78 d8 00  	and	a6, a6, a3
   1093c: b3 c7 f8 00  	xor	a5, a7, a5
   10940: b3 c7 07 01  	xor	a5, a5, a6
   10944: 13 d8 57 01  	srli	a6, a5, 0x15
   10948: 13 78 88 ff  	andi	a6, a6, -0x8
   1094c: 33 08 07 01  	add	a6, a4, a6
   10950: 03 38 08 00  	ld	a6, 0x0(a6)
   10954: 93 98 87 02  	slli	a7, a5, 0x28
   10958: 93 d8 88 03  	srli	a7, a7, 0x38
   1095c: 93 88 08 10  	addi	a7, a7, 0x100
   10960: 93 98 38 00  	slli	a7, a7, 0x3
   10964: b3 08 17 01  	add	a7, a4, a7
   10968: 83 b8 08 00  	ld	a7, 0x0(a7)
   1096c: 93 92 07 03  	slli	t0, a5, 0x30
   10970: 93 d2 82 03  	srli	t0, t0, 0x38
   10974: 93 82 02 20  	addi	t0, t0, 0x200
   10978: 93 92 32 00  	slli	t0, t0, 0x3
   1097c: b3 02 57 00  	add	t0, a4, t0
   10980: 83 b2 02 00  	ld	t0, 0x0(t0)
   10984: 13 f3 f7 0f  	andi	t1, a5, 0xff
   10988: 13 03 03 30  	addi	t1, t1, 0x300
   1098c: 13 13 33 00  	slli	t1, t1, 0x3
   10990: 33 03 67 00  	add	t1, a4, t1
   10994: 03 33 03 00  	ld	t1, 0x0(t1)
   10998: 33 88 08 01  	add	a6, a7, a6
   1099c: 83 b8 05 05  	ld	a7, 0x50(a1)
   109a0: 33 48 58 00  	xor	a6, a6, t0
   109a4: 33 08 68 00  	add	a6, a6, t1
   109a8: 33 78 d8 00  	and	a6, a6, a3
   109ac: 33 c6 c8 00  	xor	a2, a7, a2
   109b0: 33 46 06 01  	xor	a2, a2, a6
   109b4: 13 58 56 01  	srli	a6, a2, 0x15
   109b8: 13 78 88 ff  	andi	a6, a6, -0x8
   109bc: 33 08 07 01  	add	a6, a4, a6
   109c0: 03 38 08 00  	ld	a6, 0x0(a6)
   109c4: 93 18 86 02  	slli	a7, a2, 0x28
   109c8: 93 d8 88 03  	srli	a7, a7, 0x38
   109cc: 93 88 08 10  	addi	a7, a7, 0x100
   109d0: 93 98 38 00  	slli	a7, a7, 0x3
   109d4: b3 08 17 01  	add	a7, a4, a7
   109d8: 83 b8 08 00  	ld	a7, 0x0(a7)
   109dc: 93 12 06 03  	slli	t0, a2, 0x30
   109e0: 93 d2 82 03  	srli	t0, t0, 0x38
   109e4: 93 82 02 20  	addi	t0, t0, 0x200
   109e8: 93 92 32 00  	slli	t0, t0, 0x3
   109ec: b3 02 57 00  	add	t0, a4, t0
   109f0: 83 b2 02 00  	ld	t0, 0x0(t0)
   109f4: 13 73 f6 0f  	andi	t1, a2, 0xff
   109f8: 13 03 03 30  	addi	t1, t1, 0x300
   109fc: 13 13 33 00  	slli	t1, t1, 0x3
   10a00: 33 03 67 00  	add	t1, a4, t1
   10a04: 03 33 03 00  	ld	t1, 0x0(t1)
   10a08: 33 88 08 01  	add	a6, a7, a6
   10a0c: 83 b8 85 05  	ld	a7, 0x58(a1)
   10a10: 33 48 58 00  	xor	a6, a6, t0
   10a14: 33 08 68 00  	add	a6, a6, t1
   10a18: 33 78 d8 00  	and	a6, a6, a3
   10a1c: b3 c7 f8 00  	xor	a5, a7, a5
   10a20: b3 c7 07 01  	xor	a5, a5, a6
   10a24: 13 d8 57 01  	srli	a6, a5, 0x15
   10a28: 13 78 88 ff  	andi	a6, a6, -0x8
   10a2c: 33 08 07 01  	add	a6, a4, a6
   10a30: 03 38 08 00  	ld	a6, 0x0(a6)
   10a34: 93 98 87 02  	slli	a7, a5, 0x28
   10a38: 93 d8 88 03  	srli	a7, a7, 0x38
   10a3c: 93 88 08 10  	addi	a7, a7, 0x100
   10a40: 93 98 38 00  	slli	a7, a7, 0x3
   10a44: b3 08 17 01  	add	a7, a4, a7
   10a48: 83 b8 08 00  	ld	a7, 0x0(a7)
   10a4c: 93 92 07 03  	slli	t0, a5, 0x30
   10a50: 93 d2 82 03  	srli	t0, t0, 0x38
   10a54: 93 82 02 20  	addi	t0, t0, 0x200
   10a58: 93 92 32 00  	slli	t0, t0, 0x3
   10a5c: b3 02 57 00  	add	t0, a4, t0
   10a60: 83 b2 02 00  	ld	t0, 0x0(t0)
   10a64: 13 f3 f7 0f  	andi	t1, a5, 0xff
   10a68: 13 03 03 30  	addi	t1, t1, 0x300
   10a6c: 13 13 33 00  	slli	t1, t1, 0x3
   10a70: 33 03 67 00  	add	t1, a4, t1
   10a74: 03 33 03 00  	ld	t1, 0x0(t1)
   10a78: 33 88 08 01  	add	a6, a7, a6
   10a7c: 83 b8 05 06  	ld	a7, 0x60(a1)
   10a80: 33 48 58 00  	xor	a6, a6, t0
   10a84: 33 08 68 00  	add	a6, a6, t1
   10a88: 33 78 d8 00  	and	a6, a6, a3
   10a8c: 33 c6 c8 00  	xor	a2, a7, a2
   10a90: 33 46 06 01  	xor	a2, a2, a6
   10a94: 13 58 56 01  	srli	a6, a2, 0x15
   10a98: 13 78 88 ff  	andi	a6, a6, -0x8
   10a9c: 33 08 07 01  	add	a6, a4, a6
   10aa0: 03 38 08 00  	ld	a6, 0x0(a6)
   10aa4: 93 18 86 02  	slli	a7, a2, 0x28
   10aa8: 93 d8 88 03  	srli	a7, a7, 0x38
   10aac: 93 88 08 10  	addi	a7, a7, 0x100
   10ab0: 93 98 38 00  	slli	a7, a7, 0x3
   10ab4: b3 08 17 01  	add	a7, a4, a7
   10ab8: 83 b8 08 00  	ld	a7, 0x0(a7)
   10abc: 93 12 06 03  	slli	t0, a2, 0x30
   10ac0: 93 d2 82 03  	srli	t0, t0, 0x38
   10ac4: 93 82 02 20  	addi	t0, t0, 0x200
   10ac8: 93 92 32 00  	slli	t0, t0, 0x3
   10acc: b3 02 57 00  	add	t0, a4, t0
   10ad0: 83 b2 02 00  	ld	t0, 0x0(t0)
   10ad4: 13 73 f6 0f  	andi	t1, a2, 0xff
   10ad8: 13 03 03 30  	addi	t1, t1, 0x300
   10adc: 13 13 33 00  	slli	t1, t1, 0x3
   10ae0: 33 03 67 00  	add	t1, a4, t1
   10ae4: 03 33 03 00  	ld	t1, 0x0(t1)
   10ae8: 33 88 08 01  	add	a6, a7, a6
   10aec: 83 b8 85 06  	ld	a7, 0x68(a1)
   10af0: 33 48 58 00  	xor	a6, a6, t0
   10af4: 33 08 68 00  	add	a6, a6, t1
   10af8: 33 78 d8 00  	and	a6, a6, a3
   10afc: b3 c7 f8 00  	xor	a5, a7, a5
   10b00: 33 c8 07 01  	xor	a6, a5, a6
   10b04: 93 57 58 01  	srli	a5, a6, 0x15
   10b08: 93 f7 87 ff  	andi	a5, a5, -0x8
   10b0c: b3 07 f7 00  	add	a5, a4, a5
   10b10: 83 b7 07 00  	ld	a5, 0x0(a5)
   10b14: 93 18 88 02  	slli	a7, a6, 0x28
   10b18: 93 d8 88 03  	srli	a7, a7, 0x38
   10b1c: 93 88 08 10  	addi	a7, a7, 0x100
   10b20: 93 98 38 00  	slli	a7, a7, 0x3
   10b24: b3 08 17 01  	add	a7, a4, a7
   10b28: 83 b8 08 00  	ld	a7, 0x0(a7)
   10b2c: 93 12 08 03  	slli	t0, a6, 0x30
   10b30: 93 d2 82 03  	srli	t0, t0, 0x38
   10b34: 93 82 02 20  	addi	t0, t0, 0x200
   10b38: 93 92 32 00  	slli	t0, t0, 0x3
   10b3c: b3 02 57 00  	add	t0, a4, t0
   10b40: 83 b2 02 00  	ld	t0, 0x0(t0)
   10b44: 13 73 f8 0f  	andi	t1, a6, 0xff
   10b48: 13 03 03 30  	addi	t1, t1, 0x300
   10b4c: 13 13 33 00  	slli	t1, t1, 0x3
   10b50: 33 03 67 00  	add	t1, a4, t1
   10b54: 03 33 03 00  	ld	t1, 0x0(t1)
   10b58: b3 87 f8 00  	add	a5, a7, a5
   10b5c: 83 b8 05 07  	ld	a7, 0x70(a1)
   10b60: b3 c7 57 00  	xor	a5, a5, t0
   10b64: b3 87 67 00  	add	a5, a5, t1
   10b68: b3 f7 d7 00  	and	a5, a5, a3
   10b6c: 33 c6 c8 00  	xor	a2, a7, a2
   10b70: b3 47 f6 00  	xor	a5, a2, a5
   10b74: 13 d6 57 01  	srli	a2, a5, 0x15
   10b78: 13 76 86 ff  	andi	a2, a2, -0x8
   10b7c: 33 06 c7 00  	add	a2, a4, a2
   10b80: 03 36 06 00  	ld	a2, 0x0(a2)
   10b84: 93 98 87 02  	slli	a7, a5, 0x28
   10b88: 93 d8 88 03  	srli	a7, a7, 0x38
   10b8c: 93 88 08 10  	addi	a7, a7, 0x100
   10b90: 93 98 38 00  	slli	a7, a7, 0x3
   10b94: b3 08 17 01  	add	a7, a4, a7
   10b98: 83 b8 08 00  	ld	a7, 0x0(a7)
   10b9c: 93 92 07 03  	slli	t0, a5, 0x30
   10ba0: 93 d2 82 03  	srli	t0, t0, 0x38
   10ba4: 93 82 02 20  	addi	t0, t0, 0x200
   10ba8: 93 92 32 00  	slli	t0, t0, 0x3
   10bac: b3 02 57 00  	add	t0, a4, t0
   10bb0: 83 b2 02 00  	ld	t0, 0x0(t0)
   10bb4: 13 f3 f7 0f  	andi	t1, a5, 0xff
   10bb8: 13 03 03 30  	addi	t1, t1, 0x300
   10bbc: 13 13 33 00  	slli	t1, t1, 0x3
   10bc0: 33 03 67 00  	add	t1, a4, t1
   10bc4: 03 33 03 00  	ld	t1, 0x0(t1)
   10bc8: 33 86 c8 00  	add	a2, a7, a2
   10bcc: 83 b8 85 07  	ld	a7, 0x78(a1)
   10bd0: 33 46 56 00  	xor	a2, a2, t0
   10bd4: 33 06 66 00  	add	a2, a2, t1
   10bd8: 33 76 d6 00  	and	a2, a2, a3
   10bdc: 33 c8 08 01  	xor	a6, a7, a6
   10be0: 33 46 c8 00  	xor	a2, a6, a2
   10be4: 13 58 56 01  	srli	a6, a2, 0x15
   10be8: 13 78 88 ff  	andi	a6, a6, -0x8
   10bec: 33 08 07 01  	add	a6, a4, a6
   10bf0: 03 38 08 00  	ld	a6, 0x0(a6)
   10bf4: 93 18 86 02  	slli	a7, a2, 0x28
   10bf8: 93 d8 88 03  	srli	a7, a7, 0x38
   10bfc: 93 88 08 10  	addi	a7, a7, 0x100
   10c00: 93 98 38 00  	slli	a7, a7, 0x3
   10c04: b3 08 17 01  	add	a7, a4, a7
   10c08: 83 b8 08 00  	ld	a7, 0x0(a7)
   10c0c: 93 12 06 03  	slli	t0, a2, 0x30
   10c10: 93 d2 82 03  	srli	t0, t0, 0x38
   10c14: 93 82 02 20  	addi	t0, t0, 0x200
   10c18: 93 92 32 00  	slli	t0, t0, 0x3
   10c1c: b3 02 57 00  	add	t0, a4, t0
   10c20: 13 73 f6 0f  	andi	t1, a2, 0xff
   10c24: 13 03 03 30  	addi	t1, t1, 0x300
   10c28: 13 13 33 00  	slli	t1, t1, 0x3
   10c2c: 33 07 67 00  	add	a4, a4, t1
   10c30: 83 b2 02 00  	ld	t0, 0x0(t0)
   10c34: 03 37 07 00  	ld	a4, 0x0(a4)
   10c38: 33 88 08 01  	add	a6, a7, a6
   10c3c: 83 b8 05 08  	ld	a7, 0x80(a1)
   10c40: 33 48 58 00  	xor	a6, a6, t0
   10c44: 33 07 e8 00  	add	a4, a6, a4
   10c48: 33 77 d7 00  	and	a4, a4, a3
   10c4c: b3 c7 f8 00  	xor	a5, a7, a5
   10c50: 33 c7 e7 00  	xor	a4, a5, a4
   10c54: 93 85 85 08  	addi	a1, a1, 0x88
   10c58: 6f 00 c0 70  	jal	zero, 0x11364 <BF_encrypt+0xe30>
   10c5c: 03 b6 85 08  	ld	a2, 0x88(a1)
   10c60: 33 46 06 01  	xor	a2, a2, a6
   10c64: 13 58 56 01  	srli	a6, a2, 0x15
   10c68: 13 78 88 ff  	andi	a6, a6, -0x8
   10c6c: 33 08 07 01  	add	a6, a4, a6
   10c70: 03 38 08 00  	ld	a6, 0x0(a6)
   10c74: 93 18 86 02  	slli	a7, a2, 0x28
   10c78: 93 d8 88 03  	srli	a7, a7, 0x38
   10c7c: 93 88 08 10  	addi	a7, a7, 0x100
   10c80: 93 98 38 00  	slli	a7, a7, 0x3
   10c84: b3 08 17 01  	add	a7, a4, a7
   10c88: 83 b8 08 00  	ld	a7, 0x0(a7)
   10c8c: 93 12 06 03  	slli	t0, a2, 0x30
   10c90: 93 d2 82 03  	srli	t0, t0, 0x38
   10c94: 93 82 02 20  	addi	t0, t0, 0x200
   10c98: 93 92 32 00  	slli	t0, t0, 0x3
   10c9c: b3 02 57 00  	add	t0, a4, t0
   10ca0: 83 b2 02 00  	ld	t0, 0x0(t0)
   10ca4: 13 73 f6 0f  	andi	t1, a2, 0xff
   10ca8: 13 03 03 30  	addi	t1, t1, 0x300
   10cac: 13 13 33 00  	slli	t1, t1, 0x3
   10cb0: 33 03 67 00  	add	t1, a4, t1
   10cb4: 03 33 03 00  	ld	t1, 0x0(t1)
   10cb8: 33 88 08 01  	add	a6, a7, a6
   10cbc: 83 b8 05 08  	ld	a7, 0x80(a1)
   10cc0: 33 48 58 00  	xor	a6, a6, t0
   10cc4: 33 08 68 00  	add	a6, a6, t1
   10cc8: 33 78 d8 00  	and	a6, a6, a3
   10ccc: b3 c7 f8 00  	xor	a5, a7, a5
   10cd0: b3 c7 07 01  	xor	a5, a5, a6
   10cd4: 13 d8 57 01  	srli	a6, a5, 0x15
   10cd8: 13 78 88 ff  	andi	a6, a6, -0x8
   10cdc: 33 08 07 01  	add	a6, a4, a6
   10ce0: 03 38 08 00  	ld	a6, 0x0(a6)
   10ce4: 93 98 87 02  	slli	a7, a5, 0x28
   10ce8: 93 d8 88 03  	srli	a7, a7, 0x38
   10cec: 93 88 08 10  	addi	a7, a7, 0x100
   10cf0: 93 98 38 00  	slli	a7, a7, 0x3
   10cf4: b3 08 17 01  	add	a7, a4, a7
   10cf8: 83 b8 08 00  	ld	a7, 0x0(a7)
   10cfc: 93 92 07 03  	slli	t0, a5, 0x30
   10d00: 93 d2 82 03  	srli	t0, t0, 0x38
   10d04: 93 82 02 20  	addi	t0, t0, 0x200
   10d08: 93 92 32 00  	slli	t0, t0, 0x3
   10d0c: b3 02 57 00  	add	t0, a4, t0
   10d10: 83 b2 02 00  	ld	t0, 0x0(t0)
   10d14: 13 f3 f7 0f  	andi	t1, a5, 0xff
   10d18: 13 03 03 30  	addi	t1, t1, 0x300
   10d1c: 13 13 33 00  	slli	t1, t1, 0x3
   10d20: 33 03 67 00  	add	t1, a4, t1
   10d24: 03 33 03 00  	ld	t1, 0x0(t1)
   10d28: 33 88 08 01  	add	a6, a7, a6
   10d2c: 83 b8 85 07  	ld	a7, 0x78(a1)
   10d30: 33 48 58 00  	xor	a6, a6, t0
   10d34: 33 08 68 00  	add	a6, a6, t1
   10d38: 33 78 d8 00  	and	a6, a6, a3
   10d3c: 33 c6 c8 00  	xor	a2, a7, a2
   10d40: 33 46 06 01  	xor	a2, a2, a6
   10d44: 13 58 56 01  	srli	a6, a2, 0x15
   10d48: 13 78 88 ff  	andi	a6, a6, -0x8
   10d4c: 33 08 07 01  	add	a6, a4, a6
   10d50: 03 38 08 00  	ld	a6, 0x0(a6)
   10d54: 93 18 86 02  	slli	a7, a2, 0x28
   10d58: 93 d8 88 03  	srli	a7, a7, 0x38
   10d5c: 93 88 08 10  	addi	a7, a7, 0x100
   10d60: 93 98 38 00  	slli	a7, a7, 0x3
   10d64: b3 08 17 01  	add	a7, a4, a7
   10d68: 83 b8 08 00  	ld	a7, 0x0(a7)
   10d6c: 93 12 06 03  	slli	t0, a2, 0x30
   10d70: 93 d2 82 03  	srli	t0, t0, 0x38
   10d74: 93 82 02 20  	addi	t0, t0, 0x200
   10d78: 93 92 32 00  	slli	t0, t0, 0x3
   10d7c: b3 02 57 00  	add	t0, a4, t0
   10d80: 83 b2 02 00  	ld	t0, 0x0(t0)
   10d84: 13 73 f6 0f  	andi	t1, a2, 0xff
   10d88: 13 03 03 30  	addi	t1, t1, 0x300
   10d8c: 13 13 33 00  	slli	t1, t1, 0x3
   10d90: 33 03 67 00  	add	t1, a4, t1
   10d94: 03 33 03 00  	ld	t1, 0x0(t1)
   10d98: 33 88 08 01  	add	a6, a7, a6
   10d9c: 83 b8 05 07  	ld	a7, 0x70(a1)
   10da0: 33 48 58 00  	xor	a6, a6, t0
   10da4: 33 08 68 00  	add	a6, a6, t1
   10da8: 33 78 d8 00  	and	a6, a6, a3
   10dac: b3 c7 f8 00  	xor	a5, a7, a5
   10db0: b3 c7 07 01  	xor	a5, a5, a6
   10db4: 13 d8 57 01  	srli	a6, a5, 0x15
   10db8: 13 78 88 ff  	andi	a6, a6, -0x8
   10dbc: 33 08 07 01  	add	a6, a4, a6
   10dc0: 03 38 08 00  	ld	a6, 0x0(a6)
   10dc4: 93 98 87 02  	slli	a7, a5, 0x28
   10dc8: 93 d8 88 03  	srli	a7, a7, 0x38
   10dcc: 93 88 08 10  	addi	a7, a7, 0x100
   10dd0: 93 98 38 00  	slli	a7, a7, 0x3
   10dd4: b3 08 17 01  	add	a7, a4, a7
   10dd8: 83 b8 08 00  	ld	a7, 0x0(a7)
   10ddc: 93 92 07 03  	slli	t0, a5, 0x30
   10de0: 93 d2 82 03  	srli	t0, t0, 0x38
   10de4: 93 82 02 20  	addi	t0, t0, 0x200
   10de8: 93 92 32 00  	slli	t0, t0, 0x3
   10dec: b3 02 57 00  	add	t0, a4, t0
   10df0: 83 b2 02 00  	ld	t0, 0x0(t0)
   10df4: 13 f3 f7 0f  	andi	t1, a5, 0xff
   10df8: 13 03 03 30  	addi	t1, t1, 0x300
   10dfc: 13 13 33 00  	slli	t1, t1, 0x3
   10e00: 33 03 67 00  	add	t1, a4, t1
   10e04: 03 33 03 00  	ld	t1, 0x0(t1)
   10e08: 33 88 08 01  	add	a6, a7, a6
   10e0c: 83 b8 85 06  	ld	a7, 0x68(a1)
   10e10: 33 48 58 00  	xor	a6, a6, t0
   10e14: 33 08 68 00  	add	a6, a6, t1
   10e18: 33 78 d8 00  	and	a6, a6, a3
   10e1c: 33 c6 c8 00  	xor	a2, a7, a2
   10e20: 33 46 06 01  	xor	a2, a2, a6
   10e24: 13 58 56 01  	srli	a6, a2, 0x15
   10e28: 13 78 88 ff  	andi	a6, a6, -0x8
   10e2c: 33 08 07 01  	add	a6, a4, a6
   10e30: 03 38 08 00  	ld	a6, 0x0(a6)
   10e34: 93 18 86 02  	slli	a7, a2, 0x28
   10e38: 93 d8 88 03  	srli	a7, a7, 0x38
   10e3c: 93 88 08 10  	addi	a7, a7, 0x100
   10e40: 93 98 38 00  	slli	a7, a7, 0x3
   10e44: b3 08 17 01  	add	a7, a4, a7
   10e48: 83 b8 08 00  	ld	a7, 0x0(a7)
   10e4c: 93 12 06 03  	slli	t0, a2, 0x30
   10e50: 93 d2 82 03  	srli	t0, t0, 0x38
   10e54: 93 82 02 20  	addi	t0, t0, 0x200
   10e58: 93 92 32 00  	slli	t0, t0, 0x3
   10e5c: b3 02 57 00  	add	t0, a4, t0
   10e60: 83 b2 02 00  	ld	t0, 0x0(t0)
   10e64: 13 73 f6 0f  	andi	t1, a2, 0xff
   10e68: 13 03 03 30  	addi	t1, t1, 0x300
   10e6c: 13 13 33 00  	slli	t1, t1, 0x3
   10e70: 33 03 67 00  	add	t1, a4, t1
   10e74: 03 33 03 00  	ld	t1, 0x0(t1)
   10e78: 33 88 08 01  	add	a6, a7, a6
   10e7c: 83 b8 05 06  	ld	a7, 0x60(a1)
   10e80: 33 48 58 00  	xor	a6, a6, t0
   10e84: 33 08 68 00  	add	a6, a6, t1
   10e88: 33 78 d8 00  	and	a6, a6, a3
   10e8c: b3 c7 f8 00  	xor	a5, a7, a5
   10e90: b3 c7 07 01  	xor	a5, a5, a6
   10e94: 13 d8 57 01  	srli	a6, a5, 0x15
   10e98: 13 78 88 ff  	andi	a6, a6, -0x8
   10e9c: 33 08 07 01  	add	a6, a4, a6
   10ea0: 03 38 08 00  	ld	a6, 0x0(a6)
   10ea4: 93 98 87 02  	slli	a7, a5, 0x28
   10ea8: 93 d8 88 03  	srli	a7, a7, 0x38
   10eac: 93 88 08 10  	addi	a7, a7, 0x100
   10eb0: 93 98 38 00  	slli	a7, a7, 0x3
   10eb4: b3 08 17 01  	add	a7, a4, a7
   10eb8: 83 b8 08 00  	ld	a7, 0x0(a7)
   10ebc: 93 92 07 03  	slli	t0, a5, 0x30
   10ec0: 93 d2 82 03  	srli	t0, t0, 0x38
   10ec4: 93 82 02 20  	addi	t0, t0, 0x200
   10ec8: 93 92 32 00  	slli	t0, t0, 0x3
   10ecc: b3 02 57 00  	add	t0, a4, t0
   10ed0: 83 b2 02 00  	ld	t0, 0x0(t0)
   10ed4: 13 f3 f7 0f  	andi	t1, a5, 0xff
   10ed8: 13 03 03 30  	addi	t1, t1, 0x300
   10edc: 13 13 33 00  	slli	t1, t1, 0x3
   10ee0: 33 03 67 00  	add	t1, a4, t1
   10ee4: 03 33 03 00  	ld	t1, 0x0(t1)
   10ee8: 33 88 08 01  	add	a6, a7, a6
   10eec: 83 b8 85 05  	ld	a7, 0x58(a1)
   10ef0: 33 48 58 00  	xor	a6, a6, t0
   10ef4: 33 08 68 00  	add	a6, a6, t1
   10ef8: 33 78 d8 00  	and	a6, a6, a3
   10efc: 33 c6 c8 00  	xor	a2, a7, a2
   10f00: 33 46 06 01  	xor	a2, a2, a6
   10f04: 13 58 56 01  	srli	a6, a2, 0x15
   10f08: 13 78 88 ff  	andi	a6, a6, -0x8
   10f0c: 33 08 07 01  	add	a6, a4, a6
   10f10: 03 38 08 00  	ld	a6, 0x0(a6)
   10f14: 93 18 86 02  	slli	a7, a2, 0x28
   10f18: 93 d8 88 03  	srli	a7, a7, 0x38
   10f1c: 93 88 08 10  	addi	a7, a7, 0x100
   10f20: 93 98 38 00  	slli	a7, a7, 0x3
   10f24: b3 08 17 01  	add	a7, a4, a7
   10f28: 83 b8 08 00  	ld	a7, 0x0(a7)
   10f2c: 93 12 06 03  	slli	t0, a2, 0x30
   10f30: 93 d2 82 03  	srli	t0, t0, 0x38
   10f34: 93 82 02 20  	addi	t0, t0, 0x200
   10f38: 93 92 32 00  	slli	t0, t0, 0x3
   10f3c: b3 02 57 00  	add	t0, a4, t0
   10f40: 83 b2 02 00  	ld	t0, 0x0(t0)
   10f44: 13 73 f6 0f  	andi	t1, a2, 0xff
   10f48: 13 03 03 30  	addi	t1, t1, 0x300
   10f4c: 13 13 33 00  	slli	t1, t1, 0x3
   10f50: 33 03 67 00  	add	t1, a4, t1
   10f54: 03 33 03 00  	ld	t1, 0x0(t1)
   10f58: 33 88 08 01  	add	a6, a7, a6
   10f5c: 83 b8 05 05  	ld	a7, 0x50(a1)
   10f60: 33 48 58 00  	xor	a6, a6, t0
   10f64: 33 08 68 00  	add	a6, a6, t1
   10f68: 33 78 d8 00  	and	a6, a6, a3
   10f6c: b3 c7 f8 00  	xor	a5, a7, a5
   10f70: b3 c7 07 01  	xor	a5, a5, a6
   10f74: 13 d8 57 01  	srli	a6, a5, 0x15
   10f78: 13 78 88 ff  	andi	a6, a6, -0x8
   10f7c: 33 08 07 01  	add	a6, a4, a6
   10f80: 03 38 08 00  	ld	a6, 0x0(a6)
   10f84: 93 98 87 02  	slli	a7, a5, 0x28
   10f88: 93 d8 88 03  	srli	a7, a7, 0x38
   10f8c: 93 88 08 10  	addi	a7, a7, 0x100
   10f90: 93 98 38 00  	slli	a7, a7, 0x3
   10f94: b3 08 17 01  	add	a7, a4, a7
   10f98: 83 b8 08 00  	ld	a7, 0x0(a7)
   10f9c: 93 92 07 03  	slli	t0, a5, 0x30
   10fa0: 93 d2 82 03  	srli	t0, t0, 0x38
   10fa4: 93 82 02 20  	addi	t0, t0, 0x200
   10fa8: 93 92 32 00  	slli	t0, t0, 0x3
   10fac: b3 02 57 00  	add	t0, a4, t0
   10fb0: 83 b2 02 00  	ld	t0, 0x0(t0)
   10fb4: 13 f3 f7 0f  	andi	t1, a5, 0xff
   10fb8: 13 03 03 30  	addi	t1, t1, 0x300
   10fbc: 13 13 33 00  	slli	t1, t1, 0x3
   10fc0: 33 03 67 00  	add	t1, a4, t1
   10fc4: 03 33 03 00  	ld	t1, 0x0(t1)
   10fc8: 33 88 08 01  	add	a6, a7, a6
   10fcc: 83 b8 85 04  	ld	a7, 0x48(a1)
   10fd0: 33 48 58 00  	xor	a6, a6, t0
   10fd4: 33 08 68 00  	add	a6, a6, t1
   10fd8: 33 78 d8 00  	and	a6, a6, a3
   10fdc: 33 c6 c8 00  	xor	a2, a7, a2
   10fe0: 33 46 06 01  	xor	a2, a2, a6
   10fe4: 13 58 56 01  	srli	a6, a2, 0x15
   10fe8: 13 78 88 ff  	andi	a6, a6, -0x8
   10fec: 33 08 07 01  	add	a6, a4, a6
   10ff0: 03 38 08 00  	ld	a6, 0x0(a6)
   10ff4: 93 18 86 02  	slli	a7, a2, 0x28
   10ff8: 93 d8 88 03  	srli	a7, a7, 0x38
   10ffc: 93 88 08 10  	addi	a7, a7, 0x100
   11000: 93 98 38 00  	slli	a7, a7, 0x3
   11004: b3 08 17 01  	add	a7, a4, a7
   11008: 83 b8 08 00  	ld	a7, 0x0(a7)
   1100c: 93 12 06 03  	slli	t0, a2, 0x30
   11010: 93 d2 82 03  	srli	t0, t0, 0x38
   11014: 93 82 02 20  	addi	t0, t0, 0x200
   11018: 93 92 32 00  	slli	t0, t0, 0x3
   1101c: b3 02 57 00  	add	t0, a4, t0
   11020: 83 b2 02 00  	ld	t0, 0x0(t0)
   11024: 13 73 f6 0f  	andi	t1, a2, 0xff
   11028: 13 03 03 30  	addi	t1, t1, 0x300
   1102c: 13 13 33 00  	slli	t1, t1, 0x3
   11030: 33 03 67 00  	add	t1, a4, t1
   11034: 03 33 03 00  	ld	t1, 0x0(t1)
   11038: 33 88 08 01  	add	a6, a7, a6
   1103c: 83 b8 05 04  	ld	a7, 0x40(a1)
   11040: 33 48 58 00  	xor	a6, a6, t0
   11044: 33 08 68 00  	add	a6, a6, t1
   11048: 33 78 d8 00  	and	a6, a6, a3
   1104c: b3 c7 f8 00  	xor	a5, a7, a5
   11050: b3 c7 07 01  	xor	a5, a5, a6
   11054: 13 d8 57 01  	srli	a6, a5, 0x15
   11058: 13 78 88 ff  	andi	a6, a6, -0x8
   1105c: 33 08 07 01  	add	a6, a4, a6
   11060: 03 38 08 00  	ld	a6, 0x0(a6)
   11064: 93 98 87 02  	slli	a7, a5, 0x28
   11068: 93 d8 88 03  	srli	a7, a7, 0x38
   1106c: 93 88 08 10  	addi	a7, a7, 0x100
   11070: 93 98 38 00  	slli	a7, a7, 0x3
   11074: b3 08 17 01  	add	a7, a4, a7
   11078: 83 b8 08 00  	ld	a7, 0x0(a7)
   1107c: 93 92 07 03  	slli	t0, a5, 0x30
   11080: 93 d2 82 03  	srli	t0, t0, 0x38
   11084: 93 82 02 20  	addi	t0, t0, 0x200
   11088: 93 92 32 00  	slli	t0, t0, 0x3
   1108c: b3 02 57 00  	add	t0, a4, t0
   11090: 83 b2 02 00  	ld	t0, 0x0(t0)
   11094: 13 f3 f7 0f  	andi	t1, a5, 0xff
   11098: 13 03 03 30  	addi	t1, t1, 0x300
   1109c: 13 13 33 00  	slli	t1, t1, 0x3
   110a0: 33 03 67 00  	add	t1, a4, t1
   110a4: 03 33 03 00  	ld	t1, 0x0(t1)
   110a8: 33 88 08 01  	add	a6, a7, a6
   110ac: 83 b8 85 03  	ld	a7, 0x38(a1)
   110b0: 33 48 58 00  	xor	a6, a6, t0
   110b4: 33 08 68 00  	add	a6, a6, t1
   110b8: 33 78 d8 00  	and	a6, a6, a3
   110bc: 33 c6 c8 00  	xor	a2, a7, a2
   110c0: 33 46 06 01  	xor	a2, a2, a6
   110c4: 13 58 56 01  	srli	a6, a2, 0x15
   110c8: 13 78 88 ff  	andi	a6, a6, -0x8
   110cc: 33 08 07 01  	add	a6, a4, a6
   110d0: 03 38 08 00  	ld	a6, 0x0(a6)
   110d4: 93 18 86 02  	slli	a7, a2, 0x28
   110d8: 93 d8 88 03  	srli	a7, a7, 0x38
   110dc: 93 88 08 10  	addi	a7, a7, 0x100
   110e0: 93 98 38 00  	slli	a7, a7, 0x3
   110e4: b3 08 17 01  	add	a7, a4, a7
   110e8: 83 b8 08 00  	ld	a7, 0x0(a7)
   110ec: 93 12 06 03  	slli	t0, a2, 0x30
   110f0: 93 d2 82 03  	srli	t0, t0, 0x38
   110f4: 93 82 02 20  	addi	t0, t0, 0x200
   110f8: 93 92 32 00  	slli	t0, t0, 0x3
   110fc: b3 02 57 00  	add	t0, a4, t0
   11100: 83 b2 02 00  	ld	t0, 0x0(t0)
   11104: 13 73 f6 0f  	andi	t1, a2, 0xff
   11108: 13 03 03 30  	addi	t1, t1, 0x300
   1110c: 13 13 33 00  	slli	t1, t1, 0x3
   11110: 33 03 67 00  	add	t1, a4, t1
   11114: 03 33 03 00  	ld	t1, 0x0(t1)
   11118: 33 88 08 01  	add	a6, a7, a6
   1111c: 83 b8 05 03  	ld	a7, 0x30(a1)
   11120: 33 48 58 00  	xor	a6, a6, t0
   11124: 33 08 68 00  	add	a6, a6, t1
   11128: 33 78 d8 00  	and	a6, a6, a3
   1112c: b3 c7 f8 00  	xor	a5, a7, a5
   11130: b3 c7 07 01  	xor	a5, a5, a6
   11134: 13 d8 57 01  	srli	a6, a5, 0x15
   11138: 13 78 88 ff  	andi	a6, a6, -0x8
   1113c: 33 08 07 01  	add	a6, a4, a6
   11140: 03 38 08 00  	ld	a6, 0x0(a6)
   11144: 93 98 87 02  	slli	a7, a5, 0x28
   11148: 93 d8 88 03  	srli	a7, a7, 0x38
   1114c: 93 88 08 10  	addi	a7, a7, 0x100
   11150: 93 98 38 00  	slli	a7, a7, 0x3
   11154: b3 08 17 01  	add	a7, a4, a7
   11158: 83 b8 08 00  	ld	a7, 0x0(a7)
   1115c: 93 92 07 03  	slli	t0, a5, 0x30
   11160: 93 d2 82 03  	srli	t0, t0, 0x38
   11164: 93 82 02 20  	addi	t0, t0, 0x200
   11168: 93 92 32 00  	slli	t0, t0, 0x3
   1116c: b3 02 57 00  	add	t0, a4, t0
   11170: 83 b2 02 00  	ld	t0, 0x0(t0)
   11174: 13 f3 f7 0f  	andi	t1, a5, 0xff
   11178: 13 03 03 30  	addi	t1, t1, 0x300
   1117c: 13 13 33 00  	slli	t1, t1, 0x3
   11180: 33 03 67 00  	add	t1, a4, t1
   11184: 03 33 03 00  	ld	t1, 0x0(t1)
   11188: 33 88 08 01  	add	a6, a7, a6
   1118c: 83 b8 85 02  	ld	a7, 0x28(a1)
   11190: 33 48 58 00  	xor	a6, a6, t0
   11194: 33 08 68 00  	add	a6, a6, t1
   11198: 33 78 d8 00  	and	a6, a6, a3
   1119c: 33 c6 c8 00  	xor	a2, a7, a2
   111a0: 33 46 06 01  	xor	a2, a2, a6
   111a4: 13 58 56 01  	srli	a6, a2, 0x15
   111a8: 13 78 88 ff  	andi	a6, a6, -0x8
   111ac: 33 08 07 01  	add	a6, a4, a6
   111b0: 03 38 08 00  	ld	a6, 0x0(a6)
   111b4: 93 18 86 02  	slli	a7, a2, 0x28
   111b8: 93 d8 88 03  	srli	a7, a7, 0x38
   111bc: 93 88 08 10  	addi	a7, a7, 0x100
   111c0: 93 98 38 00  	slli	a7, a7, 0x3
   111c4: b3 08 17 01  	add	a7, a4, a7
   111c8: 83 b8 08 00  	ld	a7, 0x0(a7)
   111cc: 93 12 06 03  	slli	t0, a2, 0x30
   111d0: 93 d2 82 03  	srli	t0, t0, 0x38
   111d4: 93 82 02 20  	addi	t0, t0, 0x200
   111d8: 93 92 32 00  	slli	t0, t0, 0x3
   111dc: b3 02 57 00  	add	t0, a4, t0
   111e0: 83 b2 02 00  	ld	t0, 0x0(t0)
   111e4: 13 73 f6 0f  	andi	t1, a2, 0xff
   111e8: 13 03 03 30  	addi	t1, t1, 0x300
   111ec: 13 13 33 00  	slli	t1, t1, 0x3
   111f0: 33 03 67 00  	add	t1, a4, t1
   111f4: 03 33 03 00  	ld	t1, 0x0(t1)
   111f8: 33 88 08 01  	add	a6, a7, a6
   111fc: 83 b8 05 02  	ld	a7, 0x20(a1)
   11200: 33 48 58 00  	xor	a6, a6, t0
   11204: 33 08 68 00  	add	a6, a6, t1
   11208: 33 78 d8 00  	and	a6, a6, a3
   1120c: b3 c7 f8 00  	xor	a5, a7, a5
   11210: 33 c8 07 01  	xor	a6, a5, a6
   11214: 93 57 58 01  	srli	a5, a6, 0x15
   11218: 93 f7 87 ff  	andi	a5, a5, -0x8
   1121c: b3 07 f7 00  	add	a5, a4, a5
   11220: 83 b7 07 00  	ld	a5, 0x0(a5)
   11224: 93 18 88 02  	slli	a7, a6, 0x28
   11228: 93 d8 88 03  	srli	a7, a7, 0x38
   1122c: 93 88 08 10  	addi	a7, a7, 0x100
   11230: 93 98 38 00  	slli	a7, a7, 0x3
   11234: b3 08 17 01  	add	a7, a4, a7
   11238: 83 b8 08 00  	ld	a7, 0x0(a7)
   1123c: 93 12 08 03  	slli	t0, a6, 0x30
   11240: 93 d2 82 03  	srli	t0, t0, 0x38
   11244: 93 82 02 20  	addi	t0, t0, 0x200
   11248: 93 92 32 00  	slli	t0, t0, 0x3
   1124c: b3 02 57 00  	add	t0, a4, t0
   11250: 83 b2 02 00  	ld	t0, 0x0(t0)
   11254: 13 73 f8 0f  	andi	t1, a6, 0xff
   11258: 13 03 03 30  	addi	t1, t1, 0x300
   1125c: 13 13 33 00  	slli	t1, t1, 0x3
   11260: 33 03 67 00  	add	t1, a4, t1
   11264: 03 33 03 00  	ld	t1, 0x0(t1)
   11268: b3 87 f8 00  	add	a5, a7, a5
   1126c: 83 b8 85 01  	ld	a7, 0x18(a1)
   11270: b3 c7 57 00  	xor	a5, a5, t0
   11274: b3 87 67 00  	add	a5, a5, t1
   11278: b3 f7 d7 00  	and	a5, a5, a3
   1127c: 33 c6 c8 00  	xor	a2, a7, a2
   11280: b3 47 f6 00  	xor	a5, a2, a5
   11284: 13 d6 57 01  	srli	a2, a5, 0x15
   11288: 13 76 86 ff  	andi	a2, a2, -0x8
   1128c: 33 06 c7 00  	add	a2, a4, a2
   11290: 03 36 06 00  	ld	a2, 0x0(a2)
   11294: 93 98 87 02  	slli	a7, a5, 0x28
   11298: 93 d8 88 03  	srli	a7, a7, 0x38
   1129c: 93 88 08 10  	addi	a7, a7, 0x100
   112a0: 93 98 38 00  	slli	a7, a7, 0x3
   112a4: b3 08 17 01  	add	a7, a4, a7
   112a8: 83 b8 08 00  	ld	a7, 0x0(a7)
   112ac: 93 92 07 03  	slli	t0, a5, 0x30
   112b0: 93 d2 82 03  	srli	t0, t0, 0x38
   112b4: 93 82 02 20  	addi	t0, t0, 0x200
   112b8: 93 92 32 00  	slli	t0, t0, 0x3
   112bc: b3 02 57 00  	add	t0, a4, t0
   112c0: 83 b2 02 00  	ld	t0, 0x0(t0)
   112c4: 13 f3 f7 0f  	andi	t1, a5, 0xff
   112c8: 13 03 03 30  	addi	t1, t1, 0x300
   112cc: 13 13 33 00  	slli	t1, t1, 0x3
   112d0: 33 03 67 00  	add	t1, a4, t1
   112d4: 03 33 03 00  	ld	t1, 0x0(t1)
   112d8: 33 86 c8 00  	add	a2, a7, a2
   112dc: 83 b8 05 01  	ld	a7, 0x10(a1)
   112e0: 33 46 56 00  	xor	a2, a2, t0
   112e4: 33 06 66 00  	add	a2, a2, t1
   112e8: 33 76 d6 00  	and	a2, a2, a3
   112ec: 33 c8 08 01  	xor	a6, a7, a6
   112f0: 33 46 c8 00  	xor	a2, a6, a2
   112f4: 13 58 56 01  	srli	a6, a2, 0x15
   112f8: 13 78 88 ff  	andi	a6, a6, -0x8
   112fc: 33 08 07 01  	add	a6, a4, a6
   11300: 03 38 08 00  	ld	a6, 0x0(a6)
   11304: 93 18 86 02  	slli	a7, a2, 0x28
   11308: 93 d8 88 03  	srli	a7, a7, 0x38
   1130c: 93 88 08 10  	addi	a7, a7, 0x100
   11310: 93 98 38 00  	slli	a7, a7, 0x3
   11314: b3 08 17 01  	add	a7, a4, a7
   11318: 83 b8 08 00  	ld	a7, 0x0(a7)
   1131c: 93 12 06 03  	slli	t0, a2, 0x30
   11320: 93 d2 82 03  	srli	t0, t0, 0x38
   11324: 93 82 02 20  	addi	t0, t0, 0x200
   11328: 93 92 32 00  	slli	t0, t0, 0x3
   1132c: b3 02 57 00  	add	t0, a4, t0
   11330: 13 73 f6 0f  	andi	t1, a2, 0xff
   11334: 13 03 03 30  	addi	t1, t1, 0x300
   11338: 13 13 33 00  	slli	t1, t1, 0x3
   1133c: 33 07 67 00  	add	a4, a4, t1
   11340: 83 b2 02 00  	ld	t0, 0x0(t0)
   11344: 03 37 07 00  	ld	a4, 0x0(a4)
   11348: 33 88 08 01  	add	a6, a7, a6
   1134c: 83 b8 85 00  	ld	a7, 0x8(a1)
   11350: 33 48 58 00  	xor	a6, a6, t0
   11354: 33 07 e8 00  	add	a4, a6, a4
   11358: 33 77 d7 00  	and	a4, a4, a3
   1135c: b3 c7 f8 00  	xor	a5, a7, a5
   11360: 33 c7 e7 00  	xor	a4, a5, a4
   11364: 83 b5 05 00  	ld	a1, 0x0(a1)
   11368: b3 c5 c5 00  	xor	a1, a1, a2
   1136c: 33 77 d7 00  	and	a4, a4, a3
   11370: 23 34 e5 00  	sd	a4, 0x8(a0)
   11374: b3 f5 d5 00  	and	a1, a1, a3
   11378: 23 30 b5 00  	sd	a1, 0x0(a0)
   1137c: 67 80 00 00  	jalr	zero, 0x0(ra)

0000000000011380 <BF_cfb64_encrypt>:
   11380: ef 22 70 7b  	jal	t0, 0x14336 <__riscv_save_7>
   11384: 13 01 01 ff  	addi	sp, sp, -0x10
   11388: 13 84 07 00  	addi	s0, a5, 0x0
   1138c: 83 aa 07 00  	lw	s5, 0x0(a5)
   11390: 93 04 07 00  	addi	s1, a4, 0x0
   11394: 13 89 06 00  	addi	s2, a3, 0x0
   11398: 93 89 05 00  	addi	s3, a1, 0x0
   1139c: 13 0a 05 00  	addi	s4, a0, 0x0
   113a0: 63 06 08 0e  	beq	a6, zero, 0x1148c <BF_cfb64_encrypt+0x10c>
   113a4: 63 06 06 1c  	beq	a2, zero, 0x11570 <BF_cfb64_encrypt+0x1f0>
   113a8: 33 8b c9 00  	add	s6, s3, a2
   113ac: 63 96 0a 0a  	bne	s5, zero, 0x11458 <BF_cfb64_encrypt+0xd8>
   113b0: 03 c5 04 00  	lbu	a0, 0x0(s1)
   113b4: 83 c5 14 00  	lbu	a1, 0x1(s1)
   113b8: 13 15 85 01  	slli	a0, a0, 0x18
   113bc: 03 c6 24 00  	lbu	a2, 0x2(s1)
   113c0: 83 c6 34 00  	lbu	a3, 0x3(s1)
   113c4: 93 95 05 01  	slli	a1, a1, 0x10
   113c8: 33 e5 a5 00  	or	a0, a1, a0
   113cc: 13 16 86 00  	slli	a2, a2, 0x8
   113d0: 33 66 d6 00  	or	a2, a2, a3
   113d4: 83 c5 44 00  	lbu	a1, 0x4(s1)
   113d8: 33 65 c5 00  	or	a0, a0, a2
   113dc: 23 30 a1 00  	sd	a0, 0x0(sp)
   113e0: 03 c5 54 00  	lbu	a0, 0x5(s1)
   113e4: 93 95 85 01  	slli	a1, a1, 0x18
   113e8: 03 c6 64 00  	lbu	a2, 0x6(s1)
   113ec: 83 c6 74 00  	lbu	a3, 0x7(s1)
   113f0: 13 15 05 01  	slli	a0, a0, 0x10
   113f4: 33 65 b5 00  	or	a0, a0, a1
   113f8: 13 16 86 00  	slli	a2, a2, 0x8
   113fc: 33 66 d6 00  	or	a2, a2, a3
   11400: 33 65 c5 00  	or	a0, a0, a2
   11404: 23 34 a1 00  	sd	a0, 0x8(sp)
   11408: 13 05 01 00  	addi	a0, sp, 0x0
   1140c: 13 06 10 00  	addi	a2, zero, 0x1
   11410: 93 05 09 00  	addi	a1, s2, 0x0
   11414: ef f0 0f 92  	jal	ra, 0x10534 <BF_encrypt>
   11418: 03 35 01 00  	ld	a0, 0x0(sp)
   1141c: 93 55 85 01  	srli	a1, a0, 0x18
   11420: 23 80 b4 00  	sb	a1, 0x0(s1)
   11424: 93 55 05 01  	srli	a1, a0, 0x10
   11428: a3 80 b4 00  	sb	a1, 0x1(s1)
   1142c: 83 35 81 00  	ld	a1, 0x8(sp)
   11430: 13 56 85 00  	srli	a2, a0, 0x8
   11434: 23 81 c4 00  	sb	a2, 0x2(s1)
   11438: a3 81 a4 00  	sb	a0, 0x3(s1)
   1143c: 13 d5 85 01  	srli	a0, a1, 0x18
   11440: 23 82 a4 00  	sb	a0, 0x4(s1)
   11444: 13 d5 05 01  	srli	a0, a1, 0x10
   11448: a3 82 a4 00  	sb	a0, 0x5(s1)
   1144c: 13 d5 85 00  	srli	a0, a1, 0x8
   11450: 23 83 a4 00  	sb	a0, 0x6(s1)
   11454: a3 83 b4 00  	sb	a1, 0x7(s1)
   11458: 03 45 0a 00  	lbu	a0, 0x0(s4)
   1145c: b3 85 54 01  	add	a1, s1, s5
   11460: 03 c6 05 00  	lbu	a2, 0x0(a1)
   11464: 13 0a 1a 00  	addi	s4, s4, 0x1
   11468: 33 45 a6 00  	xor	a0, a2, a0
   1146c: 13 86 19 00  	addi	a2, s3, 0x1
   11470: 23 80 a9 00  	sb	a0, 0x0(s3)
   11474: 23 80 a5 00  	sb	a0, 0x0(a1)
   11478: 93 8a 1a 00  	addi	s5, s5, 0x1
   1147c: 93 fa 7a 00  	andi	s5, s5, 0x7
   11480: 93 09 06 00  	addi	s3, a2, 0x0
   11484: e3 14 66 f3  	bne	a2, s6, 0x113ac <BF_cfb64_encrypt+0x2c>
   11488: 6f 00 80 0e  	jal	zero, 0x11570 <BF_cfb64_encrypt+0x1f0>
   1148c: 63 02 06 0e  	beq	a2, zero, 0x11570 <BF_cfb64_encrypt+0x1f0>
   11490: 33 8b c9 00  	add	s6, s3, a2
   11494: 63 96 0a 0a  	bne	s5, zero, 0x11540 <BF_cfb64_encrypt+0x1c0>
   11498: 03 c5 04 00  	lbu	a0, 0x0(s1)
   1149c: 83 c5 14 00  	lbu	a1, 0x1(s1)
   114a0: 13 15 85 01  	slli	a0, a0, 0x18
   114a4: 03 c6 24 00  	lbu	a2, 0x2(s1)
   114a8: 83 c6 34 00  	lbu	a3, 0x3(s1)
   114ac: 93 95 05 01  	slli	a1, a1, 0x10
   114b0: 33 e5 a5 00  	or	a0, a1, a0
   114b4: 13 16 86 00  	slli	a2, a2, 0x8
   114b8: 33 66 d6 00  	or	a2, a2, a3
   114bc: 83 c5 44 00  	lbu	a1, 0x4(s1)
   114c0: 33 65 c5 00  	or	a0, a0, a2
   114c4: 23 30 a1 00  	sd	a0, 0x0(sp)
   114c8: 03 c5 54 00  	lbu	a0, 0x5(s1)
   114cc: 93 95 85 01  	slli	a1, a1, 0x18
   114d0: 03 c6 64 00  	lbu	a2, 0x6(s1)
   114d4: 83 c6 74 00  	lbu	a3, 0x7(s1)
   114d8: 13 15 05 01  	slli	a0, a0, 0x10
   114dc: 33 65 b5 00  	or	a0, a0, a1
   114e0: 13 16 86 00  	slli	a2, a2, 0x8
   114e4: 33 66 d6 00  	or	a2, a2, a3
   114e8: 33 65 c5 00  	or	a0, a0, a2
   114ec: 23 34 a1 00  	sd	a0, 0x8(sp)
   114f0: 13 05 01 00  	addi	a0, sp, 0x0
   114f4: 13 06 10 00  	addi	a2, zero, 0x1
   114f8: 93 05 09 00  	addi	a1, s2, 0x0
   114fc: ef f0 8f 83  	jal	ra, 0x10534 <BF_encrypt>
   11500: 03 35 01 00  	ld	a0, 0x0(sp)
   11504: 93 55 85 01  	srli	a1, a0, 0x18
   11508: 23 80 b4 00  	sb	a1, 0x0(s1)
   1150c: 93 55 05 01  	srli	a1, a0, 0x10
   11510: a3 80 b4 00  	sb	a1, 0x1(s1)
   11514: 83 35 81 00  	ld	a1, 0x8(sp)
   11518: 13 56 85 00  	srli	a2, a0, 0x8
   1151c: 23 81 c4 00  	sb	a2, 0x2(s1)
   11520: a3 81 a4 00  	sb	a0, 0x3(s1)
   11524: 13 d5 85 01  	srli	a0, a1, 0x18
   11528: 23 82 a4 00  	sb	a0, 0x4(s1)
   1152c: 13 d5 05 01  	srli	a0, a1, 0x10
   11530: a3 82 a4 00  	sb	a0, 0x5(s1)
   11534: 13 d5 85 00  	srli	a0, a1, 0x8
   11538: 23 83 a4 00  	sb	a0, 0x6(s1)
   1153c: a3 83 b4 00  	sb	a1, 0x7(s1)
   11540: 03 45 0a 00  	lbu	a0, 0x0(s4)
   11544: b3 85 54 01  	add	a1, s1, s5
   11548: 03 c6 05 00  	lbu	a2, 0x0(a1)
   1154c: 13 0a 1a 00  	addi	s4, s4, 0x1
   11550: 23 80 a5 00  	sb	a0, 0x0(a1)
   11554: 33 45 a6 00  	xor	a0, a2, a0
   11558: 93 85 19 00  	addi	a1, s3, 0x1
   1155c: 23 80 a9 00  	sb	a0, 0x0(s3)
   11560: 93 8a 1a 00  	addi	s5, s5, 0x1
   11564: 93 fa 7a 00  	andi	s5, s5, 0x7
   11568: 93 89 05 00  	addi	s3, a1, 0x0
   1156c: e3 94 65 f3  	bne	a1, s6, 0x11494 <BF_cfb64_encrypt+0x114>
   11570: 23 20 54 01  	sw	s5, 0x0(s0)
   11574: 13 01 01 01  	addi	sp, sp, 0x10
   11578: 6f 20 d0 5f  	jal	zero, 0x14374 <__riscv_restore_7>

000000000001157c <__fp_lock>:
   1157c: 01 45        	c.li	a0, 0x0
   1157e: 82 80        	c.jr	ra

0000000000011580 <stdio_exit_handler>:
   11580: 5d 66        	c.lui	a2, 0x17
   11582: cd 65        	c.lui	a1, 0x13
   11584: 5d 65        	c.lui	a0, 0x17
   11586: 13 06 86 78  	addi	a2, a2, 0x788
   1158a: 93 85 a5 0b  	addi	a1, a1, 0xba
   1158e: 13 05 05 7a  	addi	a0, a0, 0x7a0
   11592: 41 ae        	c.j	0x11922 <_fwalk_sglue>

0000000000011594 <cleanup_stdio>:
   11594: 0c 65        	c.ld	a1, 0x8(a0)
   11596: 41 11        	c.addi	sp, -0x10
   11598: 22 e0        	c.sdsp	s0, 0x0(sp)
   1159a: 06 e4        	c.sdsp	ra, 0x8(sp)
   1159c: 93 87 01 21  	addi	a5, gp, 0x210
   115a0: 2a 84        	c.mv	s0, a0
   115a2: 63 84 f5 00  	beq	a1, a5, 0x115aa <cleanup_stdio+0x16>
   115a6: ef 10 50 31  	jal	ra, 0x130ba <_fclose_r>
   115aa: 0c 68        	c.ld	a1, 0x10(s0)
   115ac: 93 87 01 2c  	addi	a5, gp, 0x2c0
   115b0: 63 85 f5 00  	beq	a1, a5, 0x115ba <cleanup_stdio+0x26>
   115b4: 22 85        	c.mv	a0, s0
   115b6: ef 10 50 30  	jal	ra, 0x130ba <_fclose_r>
   115ba: 0c 6c        	c.ld	a1, 0x18(s0)
   115bc: 93 87 01 37  	addi	a5, gp, 0x370
   115c0: 63 88 f5 00  	beq	a1, a5, 0x115d0 <cleanup_stdio+0x3c>
   115c4: 22 85        	c.mv	a0, s0
   115c6: 02 64        	c.ldsp	s0, 0x0(sp)
   115c8: a2 60        	c.ldsp	ra, 0x8(sp)
   115ca: 41 01        	c.addi	sp, 0x10
   115cc: 6f 10 f0 2e  	jal	zero, 0x130ba <_fclose_r>
   115d0: a2 60        	c.ldsp	ra, 0x8(sp)
   115d2: 02 64        	c.ldsp	s0, 0x0(sp)
   115d4: 41 01        	c.addi	sp, 0x10
   115d6: 82 80        	c.jr	ra

00000000000115d8 <__fp_unlock>:
   115d8: 01 45        	c.li	a0, 0x0
   115da: 82 80        	c.jr	ra

00000000000115dc <global_stdio_init.part.0>:
   115dc: 79 71        	c.addi16sp	sp, -0x30
   115de: c5 67        	c.lui	a5, 0x11
   115e0: 22 f0        	c.sdsp	s0, 0x20(sp)
   115e2: 93 87 07 58  	addi	a5, a5, 0x580
   115e6: 13 84 01 21  	addi	s0, gp, 0x210
   115ea: 06 f4        	c.sdsp	ra, 0x28(sp)
   115ec: 26 ec        	c.sdsp	s1, 0x18(sp)
   115ee: 4a e8        	c.sdsp	s2, 0x10(sp)
   115f0: 4e e4        	c.sdsp	s3, 0x8(sp)
   115f2: 52 e0        	c.sdsp	s4, 0x0(sp)
   115f4: 23 b0 f1 1a  	sd	a5, 0x1a0(gp)
   115f8: 21 46        	c.li	a2, 0x8
   115fa: 91 47        	c.li	a5, 0x4
   115fc: 81 45        	c.li	a1, 0x0
   115fe: 13 85 41 2b  	addi	a0, gp, 0x2b4
   11602: 1c c8        	c.sw	a5, 0x10(s0)
   11604: 23 30 04 00  	sd	zero, 0x0(s0)
   11608: 23 34 04 00  	sd	zero, 0x8(s0)
   1160c: 23 26 04 0a  	sw	zero, 0xac(s0)
   11610: 23 3c 04 00  	sd	zero, 0x18(s0)
   11614: 23 20 04 02  	sw	zero, 0x20(s0)
   11618: 23 24 04 02  	sw	zero, 0x28(s0)
   1161c: ef 00 70 61  	jal	ra, 0x12432 <memset>
   11620: c1 67        	c.lui	a5, 0x10
   11622: 49 6a        	c.lui	s4, 0x12
   11624: c9 69        	c.lui	s3, 0x12
   11626: 49 69        	c.lui	s2, 0x12
   11628: c9 64        	c.lui	s1, 0x12
   1162a: 13 0a aa c0  	addi	s4, s4, -0x3f6
   1162e: 93 89 69 c4  	addi	s3, s3, -0x3ba
   11632: 13 09 89 c9  	addi	s2, s2, -0x368
   11636: 93 84 a4 ce  	addi	s1, s1, -0x316
   1163a: a5 07        	c.addi	a5, 0x9
   1163c: 21 46        	c.li	a2, 0x8
   1163e: 81 45        	c.li	a1, 0x0
   11640: 13 85 41 36  	addi	a0, gp, 0x364
   11644: 23 3c 44 03  	sd	s4, 0x38(s0)
   11648: 23 30 34 05  	sd	s3, 0x40(s0)
   1164c: 23 34 24 05  	sd	s2, 0x48(s0)
   11650: 24 e8        	c.sd	s1, 0x50(s0)
   11652: 23 20 f4 0c  	sw	a5, 0xc0(s0)
   11656: 00 f8        	c.sd	s0, 0x30(s0)
   11658: 23 38 04 0a  	sd	zero, 0xb0(s0)
   1165c: 23 3c 04 0a  	sd	zero, 0xb8(s0)
   11660: 23 2e 04 14  	sw	zero, 0x15c(s0)
   11664: 23 34 04 0c  	sd	zero, 0xc8(s0)
   11668: 23 28 04 0c  	sw	zero, 0xd0(s0)
   1166c: 23 2c 04 0c  	sw	zero, 0xd8(s0)
   11670: ef 00 30 5c  	jal	ra, 0x12432 <memset>
   11674: b7 07 02 00  	lui	a5, 0x20
   11678: c9 07        	c.addi	a5, 0x12
   1167a: 13 87 01 2c  	addi	a4, gp, 0x2c0
   1167e: 21 46        	c.li	a2, 0x8
   11680: 81 45        	c.li	a1, 0x0
   11682: 13 85 41 41  	addi	a0, gp, 0x414
   11686: 23 34 44 0f  	sd	s4, 0xe8(s0)
   1168a: 23 38 34 0f  	sd	s3, 0xf0(s0)
   1168e: 23 3c 24 0f  	sd	s2, 0xf8(s0)
   11692: 23 30 94 10  	sd	s1, 0x100(s0)
   11696: 23 28 f4 16  	sw	a5, 0x170(s0)
   1169a: 78 f0        	c.sd	a4, 0xe0(s0)
   1169c: 23 30 04 16  	sd	zero, 0x160(s0)
   116a0: 23 34 04 16  	sd	zero, 0x168(s0)
   116a4: 23 26 04 20  	sw	zero, 0x20c(s0)
   116a8: 23 3c 04 16  	sd	zero, 0x178(s0)
   116ac: 23 20 04 18  	sw	zero, 0x180(s0)
   116b0: 23 24 04 18  	sw	zero, 0x188(s0)
   116b4: ef 00 f0 57  	jal	ra, 0x12432 <memset>
   116b8: 93 87 01 37  	addi	a5, gp, 0x370
   116bc: 23 3c 44 19  	sd	s4, 0x198(s0)
   116c0: 23 30 34 1b  	sd	s3, 0x1a0(s0)
   116c4: 23 34 24 1b  	sd	s2, 0x1a8(s0)
   116c8: 23 38 94 1a  	sd	s1, 0x1b0(s0)
   116cc: a2 70        	c.ldsp	ra, 0x28(sp)
   116ce: 23 38 f4 18  	sd	a5, 0x190(s0)
   116d2: 02 74        	c.ldsp	s0, 0x20(sp)
   116d4: e2 64        	c.ldsp	s1, 0x18(sp)
   116d6: 42 69        	c.ldsp	s2, 0x10(sp)
   116d8: a2 69        	c.ldsp	s3, 0x8(sp)
   116da: 02 6a        	c.ldsp	s4, 0x0(sp)
   116dc: 45 61        	c.addi16sp	sp, 0x30
   116de: 82 80        	c.jr	ra

00000000000116e0 <__sfp>:
   116e0: 83 b7 01 1a  	ld	a5, 0x1a0(gp)
   116e4: 79 71        	c.addi16sp	sp, -0x30
   116e6: 4a e8        	c.sdsp	s2, 0x10(sp)
   116e8: 06 f4        	c.sdsp	ra, 0x28(sp)
   116ea: 22 f0        	c.sdsp	s0, 0x20(sp)
   116ec: 26 ec        	c.sdsp	s1, 0x18(sp)
   116ee: 4e e4        	c.sdsp	s3, 0x8(sp)
   116f0: 2a 89        	c.mv	s2, a0
   116f2: cd c7        	c.beqz	a5, 0x1179c <__sfp+0xbc>
   116f4: dd 64        	c.lui	s1, 0x17
   116f6: 93 84 84 78  	addi	s1, s1, 0x788
   116fa: 93 09 00 0b  	addi	s3, zero, 0xb0
   116fe: 98 44        	c.lw	a4, 0x8(s1)
   11700: 80 68        	c.ld	s0, 0x10(s1)
   11702: 63 54 e0 06  	bge	zero, a4, 0x1176a <__sfp+0x8a>
   11706: 02 17        	c.slli	a4, 0x20
   11708: 01 93        	c.srli	a4, 0x20
   1170a: 33 07 37 03  	mul	a4, a4, s3
   1170e: 22 97        	c.add	a4, s0
   11710: 29 a0        	c.j	0x1171a <__sfp+0x3a>
   11712: 13 04 04 0b  	addi	s0, s0, 0xb0
   11716: 63 0a 87 04  	beq	a4, s0, 0x1176a <__sfp+0x8a>
   1171a: 83 17 04 01  	lh	a5, 0x10(s0)
   1171e: f5 fb        	c.bnez	a5, 0x11712 <__sfp+0x32>
   11720: c1 77        	c.lui	a5, 0xffff0
   11722: 85 07        	c.addi	a5, 0x1
   11724: 1c c8        	c.sw	a5, 0x10(s0)
   11726: 23 26 04 0a  	sw	zero, 0xac(s0)
   1172a: 23 30 04 00  	sd	zero, 0x0(s0)
   1172e: 23 34 04 00  	sd	zero, 0x8(s0)
   11732: 23 3c 04 00  	sd	zero, 0x18(s0)
   11736: 23 20 04 02  	sw	zero, 0x20(s0)
   1173a: 23 24 04 02  	sw	zero, 0x28(s0)
   1173e: 21 46        	c.li	a2, 0x8
   11740: 81 45        	c.li	a1, 0x0
   11742: 13 05 44 0a  	addi	a0, s0, 0xa4
   11746: ef 00 d0 4e  	jal	ra, 0x12432 <memset>
   1174a: 23 3c 04 04  	sd	zero, 0x58(s0)
   1174e: 23 20 04 06  	sw	zero, 0x60(s0)
   11752: 23 3c 04 06  	sd	zero, 0x78(s0)
   11756: 23 20 04 08  	sw	zero, 0x80(s0)
   1175a: a2 70        	c.ldsp	ra, 0x28(sp)
   1175c: 22 85        	c.mv	a0, s0
   1175e: 02 74        	c.ldsp	s0, 0x20(sp)
   11760: e2 64        	c.ldsp	s1, 0x18(sp)
   11762: 42 69        	c.ldsp	s2, 0x10(sp)
   11764: a2 69        	c.ldsp	s3, 0x8(sp)
   11766: 45 61        	c.addi16sp	sp, 0x30
   11768: 82 80        	c.jr	ra
   1176a: 80 60        	c.ld	s0, 0x0(s1)
   1176c: 19 c0        	c.beqz	s0, 0x11772 <__sfp+0x92>
   1176e: a2 84        	c.mv	s1, s0
   11770: 79 b7        	c.j	0x116fe <__sfp+0x1e>
   11772: 93 05 80 2d  	addi	a1, zero, 0x2d8
   11776: 4a 85        	c.mv	a0, s2
   11778: ef 10 c0 33  	jal	ra, 0x12ab4 <_malloc_r>
   1177c: 2a 84        	c.mv	s0, a0
   1177e: 15 c1        	c.beqz	a0, 0x117a2 <__sfp+0xc2>
   11780: 61 05        	c.addi	a0, 0x18
   11782: 91 47        	c.li	a5, 0x4
   11784: 23 30 04 00  	sd	zero, 0x0(s0)
   11788: 1c c4        	c.sw	a5, 0x8(s0)
   1178a: 08 e8        	c.sd	a0, 0x10(s0)
   1178c: 13 06 00 2c  	addi	a2, zero, 0x2c0
   11790: 81 45        	c.li	a1, 0x0
   11792: ef 00 10 4a  	jal	ra, 0x12432 <memset>
   11796: 80 e0        	c.sd	s0, 0x0(s1)
   11798: a2 84        	c.mv	s1, s0
   1179a: 95 b7        	c.j	0x116fe <__sfp+0x1e>
   1179c: ef f0 1f e4  	jal	ra, 0x115dc <global_stdio_init.part.0>
   117a0: 91 bf        	c.j	0x116f4 <__sfp+0x14>
   117a2: 23 b0 04 00  	sd	zero, 0x0(s1)
   117a6: b1 47        	c.li	a5, 0xc
   117a8: 23 20 f9 00  	sw	a5, 0x0(s2)
   117ac: 7d b7        	c.j	0x1175a <__sfp+0x7a>

00000000000117ae <__sinit>:
   117ae: 3c 65        	c.ld	a5, 0x48(a0)
   117b0: 91 c3        	c.beqz	a5, 0x117b4 <__sinit+0x6>
   117b2: 82 80        	c.jr	ra
   117b4: 03 b7 01 1a  	ld	a4, 0x1a0(gp)
   117b8: c5 67        	c.lui	a5, 0x11
   117ba: 93 87 47 59  	addi	a5, a5, 0x594
   117be: 3c e5        	c.sd	a5, 0x48(a0)
   117c0: 6d fb        	c.bnez	a4, 0x117b2 <__sinit+0x4>
   117c2: 29 bd        	c.j	0x115dc <global_stdio_init.part.0>

00000000000117c4 <__sfp_lock_acquire>:
   117c4: 82 80        	c.jr	ra

00000000000117c6 <__sfp_lock_release>:
   117c6: 82 80        	c.jr	ra

00000000000117c8 <__fp_lock_all>:
   117c8: 5d 66        	c.lui	a2, 0x17
   117ca: c5 65        	c.lui	a1, 0x11
   117cc: 13 06 86 78  	addi	a2, a2, 0x788
   117d0: 93 85 c5 57  	addi	a1, a1, 0x57c
   117d4: 01 45        	c.li	a0, 0x0
   117d6: b1 a2        	c.j	0x11922 <_fwalk_sglue>

00000000000117d8 <__fp_unlock_all>:
   117d8: 5d 66        	c.lui	a2, 0x17
   117da: c5 65        	c.lui	a1, 0x11
   117dc: 13 06 86 78  	addi	a2, a2, 0x788
   117e0: 93 85 85 5d  	addi	a1, a1, 0x5d8
   117e4: 01 45        	c.li	a0, 0x0
   117e6: 35 aa        	c.j	0x11922 <_fwalk_sglue>

00000000000117e8 <_fopen_r>:
   117e8: 39 71        	c.addi16sp	sp, -0x40
   117ea: 32 87        	c.mv	a4, a2
   117ec: 4e ec        	c.sdsp	s3, 0x18(sp)
   117ee: 70 00        	c.addi4spn	a2, sp, 0xc
   117f0: ae 89        	c.mv	s3, a1
   117f2: ba 85        	c.mv	a1, a4
   117f4: 4a f0        	c.sdsp	s2, 0x20(sp)
   117f6: 06 fc        	c.sdsp	ra, 0x38(sp)
   117f8: 22 f8        	c.sdsp	s0, 0x30(sp)
   117fa: 2a 89        	c.mv	s2, a0
   117fc: ef 10 d0 38  	jal	ra, 0x13388 <__sflags>
   11800: 59 c1        	c.beqz	a0, 0x11886 <_fopen_r+0x9e>
   11802: 26 f4        	c.sdsp	s1, 0x28(sp)
   11804: aa 84        	c.mv	s1, a0
   11806: 4a 85        	c.mv	a0, s2
   11808: ef f0 9f ed  	jal	ra, 0x116e0 <__sfp>
   1180c: 2a 84        	c.mv	s0, a0
   1180e: 3d c9        	c.beqz	a0, 0x11884 <_fopen_r+0x9c>
   11810: 32 46        	c.lwsp	a2, 0xc(sp)
   11812: 93 06 60 1b  	addi	a3, zero, 0x1b6
   11816: ce 85        	c.mv	a1, s3
   11818: 4a 85        	c.mv	a0, s2
   1181a: ef 00 30 2f  	jal	ra, 0x1230c <_open_r>
   1181e: 63 46 05 06  	blt	a0, zero, 0x1188a <_fopen_r+0xa2>
   11822: 93 97 04 03  	slli	a5, s1, 0x30
   11826: 1b 15 05 01  	slliw	a0, a0, 0x10
   1182a: c1 93        	c.srli	a5, 0x30
   1182c: c9 8f        	c.or	a5, a0
   1182e: 1c c8        	c.sw	a5, 0x10(s0)
   11830: c9 67        	c.lui	a5, 0x12
   11832: 93 87 a7 c0  	addi	a5, a5, -0x3f6
   11836: 1c fc        	c.sd	a5, 0x38(s0)
   11838: c9 67        	c.lui	a5, 0x12
   1183a: 93 87 67 c4  	addi	a5, a5, -0x3ba
   1183e: 3c e0        	c.sd	a5, 0x40(s0)
   11840: c9 67        	c.lui	a5, 0x12
   11842: 93 87 87 c9  	addi	a5, a5, -0x368
   11846: 3c e4        	c.sd	a5, 0x48(s0)
   11848: c9 67        	c.lui	a5, 0x12
   1184a: 93 87 a7 ce  	addi	a5, a5, -0x316
   1184e: 00 f8        	c.sd	s0, 0x30(s0)
   11850: 3c e8        	c.sd	a5, 0x50(s0)
   11852: 93 f4 04 10  	andi	s1, s1, 0x100
   11856: 89 e8        	c.bnez	s1, 0x11868 <_fopen_r+0x80>
   11858: a2 74        	c.ldsp	s1, 0x28(sp)
   1185a: e2 70        	c.ldsp	ra, 0x38(sp)
   1185c: 22 85        	c.mv	a0, s0
   1185e: 42 74        	c.ldsp	s0, 0x30(sp)
   11860: 02 79        	c.ldsp	s2, 0x20(sp)
   11862: e2 69        	c.ldsp	s3, 0x18(sp)
   11864: 21 61        	c.addi16sp	sp, 0x40
   11866: 82 80        	c.jr	ra
   11868: a2 85        	c.mv	a1, s0
   1186a: 4a 85        	c.mv	a0, s2
   1186c: 89 46        	c.li	a3, 0x2
   1186e: 01 46        	c.li	a2, 0x0
   11870: ef 00 20 0a  	jal	ra, 0x11912 <_fseek_r>
   11874: e2 70        	c.ldsp	ra, 0x38(sp)
   11876: 22 85        	c.mv	a0, s0
   11878: 42 74        	c.ldsp	s0, 0x30(sp)
   1187a: a2 74        	c.ldsp	s1, 0x28(sp)
   1187c: 02 79        	c.ldsp	s2, 0x20(sp)
   1187e: e2 69        	c.ldsp	s3, 0x18(sp)
   11880: 21 61        	c.addi16sp	sp, 0x40
   11882: 82 80        	c.jr	ra
   11884: a2 74        	c.ldsp	s1, 0x28(sp)
   11886: 01 44        	c.li	s0, 0x0
   11888: c9 bf        	c.j	0x1185a <_fopen_r+0x72>
   1188a: ef f0 bf f3  	jal	ra, 0x117c4 <__sfp_lock_acquire>
   1188e: 23 18 04 00  	sh	zero, 0x10(s0)
   11892: ef f0 5f f3  	jal	ra, 0x117c6 <__sfp_lock_release>
   11896: 01 44        	c.li	s0, 0x0
   11898: a2 74        	c.ldsp	s1, 0x28(sp)
   1189a: c1 b7        	c.j	0x1185a <_fopen_r+0x72>

000000000001189c <fopen>:
   1189c: aa 87        	c.mv	a5, a0
   1189e: 03 b5 81 18  	ld	a0, 0x188(gp)
   118a2: 2e 86        	c.mv	a2, a1
   118a4: be 85        	c.mv	a1, a5
   118a6: 89 b7        	c.j	0x117e8 <_fopen_r>

00000000000118a8 <_fputc_r>:
   118a8: 01 11        	c.addi	sp, -0x20
   118aa: 22 e8        	c.sdsp	s0, 0x10(sp)
   118ac: 06 ec        	c.sdsp	ra, 0x18(sp)
   118ae: 2a 84        	c.mv	s0, a0
   118b0: 19 c1        	c.beqz	a0, 0x118b6 <_fputc_r+0xe>
   118b2: 3c 65        	c.ld	a5, 0x48(a0)
   118b4: 91 c7        	c.beqz	a5, 0x118c0 <_fputc_r+0x18>
   118b6: 22 85        	c.mv	a0, s0
   118b8: 42 64        	c.ldsp	s0, 0x10(sp)
   118ba: e2 60        	c.ldsp	ra, 0x18(sp)
   118bc: 05 61        	c.addi16sp	sp, 0x20
   118be: a5 aa        	c.j	0x11a36 <_putc_r>
   118c0: 32 e4        	c.sdsp	a2, 0x8(sp)
   118c2: 2e e0        	c.sdsp	a1, 0x0(sp)
   118c4: ef f0 bf ee  	jal	ra, 0x117ae <__sinit>
   118c8: 22 85        	c.mv	a0, s0
   118ca: 42 64        	c.ldsp	s0, 0x10(sp)
   118cc: 22 66        	c.ldsp	a2, 0x8(sp)
   118ce: 82 65        	c.ldsp	a1, 0x0(sp)
   118d0: e2 60        	c.ldsp	ra, 0x18(sp)
   118d2: 05 61        	c.addi16sp	sp, 0x20
   118d4: 8d a2        	c.j	0x11a36 <_putc_r>

00000000000118d6 <fputc>:
   118d6: 79 71        	c.addi16sp	sp, -0x30
   118d8: 26 ec        	c.sdsp	s1, 0x18(sp)
   118da: 83 b4 81 18  	ld	s1, 0x188(gp)
   118de: 22 f0        	c.sdsp	s0, 0x20(sp)
   118e0: 06 f4        	c.sdsp	ra, 0x28(sp)
   118e2: 2a 84        	c.mv	s0, a0
   118e4: 2e 86        	c.mv	a2, a1
   118e6: 99 c0        	c.beqz	s1, 0x118ec <fputc+0x16>
   118e8: bc 64        	c.ld	a5, 0x48(s1)
   118ea: 81 cb        	c.beqz	a5, 0x118fa <fputc+0x24>
   118ec: a2 85        	c.mv	a1, s0
   118ee: 02 74        	c.ldsp	s0, 0x20(sp)
   118f0: a2 70        	c.ldsp	ra, 0x28(sp)
   118f2: 26 85        	c.mv	a0, s1
   118f4: e2 64        	c.ldsp	s1, 0x18(sp)
   118f6: 45 61        	c.addi16sp	sp, 0x30
   118f8: 3d aa        	c.j	0x11a36 <_putc_r>
   118fa: 26 85        	c.mv	a0, s1
   118fc: 2e e4        	c.sdsp	a1, 0x8(sp)
   118fe: ef f0 1f eb  	jal	ra, 0x117ae <__sinit>
   11902: a2 85        	c.mv	a1, s0
   11904: 02 74        	c.ldsp	s0, 0x20(sp)
   11906: 22 66        	c.ldsp	a2, 0x8(sp)
   11908: a2 70        	c.ldsp	ra, 0x28(sp)
   1190a: 26 85        	c.mv	a0, s1
   1190c: e2 64        	c.ldsp	s1, 0x18(sp)
   1190e: 45 61        	c.addi16sp	sp, 0x30
   11910: 1d a2        	c.j	0x11a36 <_putc_r>

0000000000011912 <_fseek_r>:
   11912: d9 a3        	c.j	0x11ed8 <_fseeko_r>

0000000000011914 <fseek>:
   11914: aa 87        	c.mv	a5, a0
   11916: 03 b5 81 18  	ld	a0, 0x188(gp)
   1191a: b2 86        	c.mv	a3, a2
   1191c: 2e 86        	c.mv	a2, a1
   1191e: be 85        	c.mv	a1, a5
   11920: 65 ab        	c.j	0x11ed8 <_fseeko_r>

0000000000011922 <_fwalk_sglue>:
   11922: 5d 71        	c.addi16sp	sp, -0x50
   11924: 4a f8        	c.sdsp	s2, 0x30(sp)
   11926: 4e f4        	c.sdsp	s3, 0x28(sp)
   11928: 52 f0        	c.sdsp	s4, 0x20(sp)
   1192a: 56 ec        	c.sdsp	s5, 0x18(sp)
   1192c: 5a e8        	c.sdsp	s6, 0x10(sp)
   1192e: 5e e4        	c.sdsp	s7, 0x8(sp)
   11930: 62 e0        	c.sdsp	s8, 0x0(sp)
   11932: 86 e4        	c.sdsp	ra, 0x48(sp)
   11934: a2 e0        	c.sdsp	s0, 0x40(sp)
   11936: 26 fc        	c.sdsp	s1, 0x38(sp)
   11938: 2a 8a        	c.mv	s4, a0
   1193a: 2e 8b        	c.mv	s6, a1
   1193c: b2 89        	c.mv	s3, a2
   1193e: 01 49        	c.li	s2, 0x0
   11940: 93 0b 00 0b  	addi	s7, zero, 0xb0
   11944: 05 4c        	c.li	s8, 0x1
   11946: fd 5a        	c.li	s5, -0x1
   11948: 83 a4 89 00  	lw	s1, 0x8(s3)
   1194c: 03 b4 09 01  	ld	s0, 0x10(s3)
   11950: 63 59 90 02  	bge	zero, s1, 0x11982 <_fwalk_sglue+0x60>
   11954: 82 14        	c.slli	s1, 0x20
   11956: 81 90        	c.srli	s1, 0x20
   11958: b3 84 74 03  	mul	s1, s1, s7
   1195c: a2 94        	c.add	s1, s0
   1195e: 83 57 04 01  	lhu	a5, 0x10(s0)
   11962: 63 7c fc 00  	bgeu	s8, a5, 0x1197a <_fwalk_sglue+0x58>
   11966: 83 17 24 01  	lh	a5, 0x12(s0)
   1196a: a2 85        	c.mv	a1, s0
   1196c: 52 85        	c.mv	a0, s4
   1196e: 63 86 57 01  	beq	a5, s5, 0x1197a <_fwalk_sglue+0x58>
   11972: 02 9b        	c.jalr	s6
   11974: 33 69 25 01  	or	s2, a0, s2
   11978: 01 29        	c.addiw	s2, 0x0
   1197a: 13 04 04 0b  	addi	s0, s0, 0xb0
   1197e: e3 10 94 fe  	bne	s0, s1, 0x1195e <_fwalk_sglue+0x3c>
   11982: 83 b9 09 00  	ld	s3, 0x0(s3)
   11986: e3 91 09 fc  	bne	s3, zero, 0x11948 <_fwalk_sglue+0x26>
   1198a: a6 60        	c.ldsp	ra, 0x48(sp)
   1198c: 06 64        	c.ldsp	s0, 0x40(sp)
   1198e: e2 74        	c.ldsp	s1, 0x38(sp)
   11990: a2 79        	c.ldsp	s3, 0x28(sp)
   11992: 02 7a        	c.ldsp	s4, 0x20(sp)
   11994: e2 6a        	c.ldsp	s5, 0x18(sp)
   11996: 42 6b        	c.ldsp	s6, 0x10(sp)
   11998: a2 6b        	c.ldsp	s7, 0x8(sp)
   1199a: 02 6c        	c.ldsp	s8, 0x0(sp)
   1199c: 4a 85        	c.mv	a0, s2
   1199e: 42 79        	c.ldsp	s2, 0x30(sp)
   119a0: 61 61        	c.addi16sp	sp, 0x50
   119a2: 82 80        	c.jr	ra

00000000000119a4 <_getc_r>:
   119a4: 01 11        	c.addi	sp, -0x20
   119a6: 22 e8        	c.sdsp	s0, 0x10(sp)
   119a8: 06 ec        	c.sdsp	ra, 0x18(sp)
   119aa: 2a 84        	c.mv	s0, a0
   119ac: 19 c1        	c.beqz	a0, 0x119b2 <_getc_r+0xe>
   119ae: 3c 65        	c.ld	a5, 0x48(a0)
   119b0: 9d c7        	c.beqz	a5, 0x119de <_getc_r+0x3a>
   119b2: 9c 45        	c.lw	a5, 0x8(a1)
   119b4: fd 37        	c.addiw	a5, -0x1
   119b6: 9c c5        	c.sw	a5, 0x8(a1)
   119b8: 13 97 07 02  	slli	a4, a5, 0x20
   119bc: 63 4c 07 00  	blt	a4, zero, 0x119d4 <_getc_r+0x30>
   119c0: 9c 61        	c.ld	a5, 0x0(a1)
   119c2: e2 60        	c.ldsp	ra, 0x18(sp)
   119c4: 42 64        	c.ldsp	s0, 0x10(sp)
   119c6: 13 87 17 00  	addi	a4, a5, 0x1
   119ca: 98 e1        	c.sd	a4, 0x0(a1)
   119cc: 03 c5 07 00  	lbu	a0, 0x0(a5)
   119d0: 05 61        	c.addi16sp	sp, 0x20
   119d2: 82 80        	c.jr	ra
   119d4: 22 85        	c.mv	a0, s0
   119d6: 42 64        	c.ldsp	s0, 0x10(sp)
   119d8: e2 60        	c.ldsp	ra, 0x18(sp)
   119da: 05 61        	c.addi16sp	sp, 0x20
   119dc: 5d a2        	c.j	0x11b82 <__srget_r>
   119de: 2e e4        	c.sdsp	a1, 0x8(sp)
   119e0: ef f0 ff dc  	jal	ra, 0x117ae <__sinit>
   119e4: a2 65        	c.ldsp	a1, 0x8(sp)
   119e6: f1 b7        	c.j	0x119b2 <_getc_r+0xe>

00000000000119e8 <getc>:
   119e8: 01 11        	c.addi	sp, -0x20
   119ea: 26 e4        	c.sdsp	s1, 0x8(sp)
   119ec: 83 b4 81 18  	ld	s1, 0x188(gp)
   119f0: 22 e8        	c.sdsp	s0, 0x10(sp)
   119f2: 06 ec        	c.sdsp	ra, 0x18(sp)
   119f4: 2a 84        	c.mv	s0, a0
   119f6: 99 c0        	c.beqz	s1, 0x119fc <getc+0x14>
   119f8: bc 64        	c.ld	a5, 0x48(s1)
   119fa: 95 cb        	c.beqz	a5, 0x11a2e <getc+0x46>
   119fc: 1c 44        	c.lw	a5, 0x8(s0)
   119fe: fd 37        	c.addiw	a5, -0x1
   11a00: 1c c4        	c.sw	a5, 0x8(s0)
   11a02: 13 97 07 02  	slli	a4, a5, 0x20
   11a06: 63 4d 07 00  	blt	a4, zero, 0x11a20 <getc+0x38>
   11a0a: 1c 60        	c.ld	a5, 0x0(s0)
   11a0c: e2 60        	c.ldsp	ra, 0x18(sp)
   11a0e: a2 64        	c.ldsp	s1, 0x8(sp)
   11a10: 13 87 17 00  	addi	a4, a5, 0x1
   11a14: 18 e0        	c.sd	a4, 0x0(s0)
   11a16: 42 64        	c.ldsp	s0, 0x10(sp)
   11a18: 03 c5 07 00  	lbu	a0, 0x0(a5)
   11a1c: 05 61        	c.addi16sp	sp, 0x20
   11a1e: 82 80        	c.jr	ra
   11a20: a2 85        	c.mv	a1, s0
   11a22: 42 64        	c.ldsp	s0, 0x10(sp)
   11a24: e2 60        	c.ldsp	ra, 0x18(sp)
   11a26: 26 85        	c.mv	a0, s1
   11a28: a2 64        	c.ldsp	s1, 0x8(sp)
   11a2a: 05 61        	c.addi16sp	sp, 0x20
   11a2c: 99 aa        	c.j	0x11b82 <__srget_r>
   11a2e: 26 85        	c.mv	a0, s1
   11a30: ef f0 ff d7  	jal	ra, 0x117ae <__sinit>
   11a34: e1 b7        	c.j	0x119fc <getc+0x14>

0000000000011a36 <_putc_r>:
   11a36: 01 11        	c.addi	sp, -0x20
   11a38: 22 e8        	c.sdsp	s0, 0x10(sp)
   11a3a: 06 ec        	c.sdsp	ra, 0x18(sp)
   11a3c: 2a 84        	c.mv	s0, a0
   11a3e: 19 c1        	c.beqz	a0, 0x11a44 <_putc_r+0xe>
   11a40: 3c 65        	c.ld	a5, 0x48(a0)
   11a42: a1 c3        	c.beqz	a5, 0x11a82 <_putc_r+0x4c>
   11a44: 5c 46        	c.lw	a5, 0xc(a2)
   11a46: 1b 87 f7 ff  	addiw	a4, a5, -0x1
   11a4a: 58 c6        	c.sw	a4, 0xc(a2)
   11a4c: 63 5a 07 00  	bge	a4, zero, 0x11a60 <_putc_r+0x2a>
   11a50: 1c 56        	c.lw	a5, 0x28(a2)
   11a52: 63 43 f7 02  	blt	a4, a5, 0x11a78 <_putc_r+0x42>
   11a56: 93 f7 f5 0f  	andi	a5, a1, 0xff
   11a5a: 29 47        	c.li	a4, 0xa
   11a5c: 63 8e e7 00  	beq	a5, a4, 0x11a78 <_putc_r+0x42>
   11a60: 1c 62        	c.ld	a5, 0x0(a2)
   11a62: 13 f5 f5 0f  	andi	a0, a1, 0xff
   11a66: 13 87 17 00  	addi	a4, a5, 0x1
   11a6a: 18 e2        	c.sd	a4, 0x0(a2)
   11a6c: 23 80 b7 00  	sb	a1, 0x0(a5)
   11a70: e2 60        	c.ldsp	ra, 0x18(sp)
   11a72: 42 64        	c.ldsp	s0, 0x10(sp)
   11a74: 05 61        	c.addi16sp	sp, 0x20
   11a76: 82 80        	c.jr	ra
   11a78: 22 85        	c.mv	a0, s0
   11a7a: 42 64        	c.ldsp	s0, 0x10(sp)
   11a7c: e2 60        	c.ldsp	ra, 0x18(sp)
   11a7e: 05 61        	c.addi16sp	sp, 0x20
   11a80: 85 ac        	c.j	0x11cf0 <__swbuf_r>
   11a82: 32 e4        	c.sdsp	a2, 0x8(sp)
   11a84: 2e e0        	c.sdsp	a1, 0x0(sp)
   11a86: ef f0 9f d2  	jal	ra, 0x117ae <__sinit>
   11a8a: 22 66        	c.ldsp	a2, 0x8(sp)
   11a8c: 82 65        	c.ldsp	a1, 0x0(sp)
   11a8e: 5d bf        	c.j	0x11a44 <_putc_r+0xe>

0000000000011a90 <putc>:
   11a90: 79 71        	c.addi16sp	sp, -0x30
   11a92: 4a ec        	c.sdsp	s2, 0x18(sp)
   11a94: 03 b9 81 18  	ld	s2, 0x188(gp)
   11a98: 26 f0        	c.sdsp	s1, 0x20(sp)
   11a9a: 06 f4        	c.sdsp	ra, 0x28(sp)
   11a9c: aa 84        	c.mv	s1, a0
   11a9e: 63 05 09 00  	beq	s2, zero, 0x11aa8 <putc+0x18>
   11aa2: 83 37 89 04  	ld	a5, 0x48(s2)
   11aa6: a1 c7        	c.beqz	a5, 0x11aee <putc+0x5e>
   11aa8: dc 45        	c.lw	a5, 0xc(a1)
   11aaa: 1b 87 f7 ff  	addiw	a4, a5, -0x1
   11aae: d8 c5        	c.sw	a4, 0xc(a1)
   11ab0: 63 5a 07 00  	bge	a4, zero, 0x11ac4 <putc+0x34>
   11ab4: 9c 55        	c.lw	a5, 0x28(a1)
   11ab6: 63 44 f7 02  	blt	a4, a5, 0x11ade <putc+0x4e>
   11aba: 93 f7 f4 0f  	andi	a5, s1, 0xff
   11abe: 29 47        	c.li	a4, 0xa
   11ac0: 63 8f e7 00  	beq	a5, a4, 0x11ade <putc+0x4e>
   11ac4: 9c 61        	c.ld	a5, 0x0(a1)
   11ac6: 13 f5 f4 0f  	andi	a0, s1, 0xff
   11aca: 13 87 17 00  	addi	a4, a5, 0x1
   11ace: 98 e1        	c.sd	a4, 0x0(a1)
   11ad0: 23 80 97 00  	sb	s1, 0x0(a5)
   11ad4: a2 70        	c.ldsp	ra, 0x28(sp)
   11ad6: 82 74        	c.ldsp	s1, 0x20(sp)
   11ad8: 62 69        	c.ldsp	s2, 0x18(sp)
   11ada: 45 61        	c.addi16sp	sp, 0x30
   11adc: 82 80        	c.jr	ra
   11ade: a2 70        	c.ldsp	ra, 0x28(sp)
   11ae0: 2e 86        	c.mv	a2, a1
   11ae2: 4a 85        	c.mv	a0, s2
   11ae4: a6 85        	c.mv	a1, s1
   11ae6: 62 69        	c.ldsp	s2, 0x18(sp)
   11ae8: 82 74        	c.ldsp	s1, 0x20(sp)
   11aea: 45 61        	c.addi16sp	sp, 0x30
   11aec: 11 a4        	c.j	0x11cf0 <__swbuf_r>
   11aee: 4a 85        	c.mv	a0, s2
   11af0: 2e e4        	c.sdsp	a1, 0x8(sp)
   11af2: ef f0 df cb  	jal	ra, 0x117ae <__sinit>
   11af6: a2 65        	c.ldsp	a1, 0x8(sp)
   11af8: 45 bf        	c.j	0x11aa8 <putc+0x18>

0000000000011afa <_puts_r>:
   11afa: 59 71        	c.addi16sp	sp, -0x70
   11afc: a2 f0        	c.sdsp	s0, 0x60(sp)
   11afe: 2a 84        	c.mv	s0, a0
   11b00: 2e 85        	c.mv	a0, a1
   11b02: a6 ec        	c.sdsp	s1, 0x58(sp)
   11b04: 86 f4        	c.sdsp	ra, 0x68(sp)
   11b06: ae 84        	c.mv	s1, a1
   11b08: ef 00 b0 31  	jal	ra, 0x12622 <strlen>
   11b0c: d9 67        	c.lui	a5, 0x16
   11b0e: 93 87 07 59  	addi	a5, a5, 0x590
   11b12: be e0        	c.sdsp	a5, 0x40(sp)
   11b14: 85 47        	c.li	a5, 0x1
   11b16: be e4        	c.sdsp	a5, 0x48(sp)
   11b18: 38 64        	c.ld	a4, 0x48(s0)
   11b1a: 1c 18        	c.addi4spn	a5, sp, 0x30
   11b1c: 93 06 15 00  	addi	a3, a0, 0x1
   11b20: 3e ec        	c.sdsp	a5, 0x18(sp)
   11b22: 89 47        	c.li	a5, 0x2
   11b24: 26 f8        	c.sdsp	s1, 0x30(sp)
   11b26: 2a fc        	c.sdsp	a0, 0x38(sp)
   11b28: 36 f4        	c.sdsp	a3, 0x28(sp)
   11b2a: 3e d0        	c.swsp	a5, 0x20(sp)
   11b2c: 0c 68        	c.ld	a1, 0x10(s0)
   11b2e: 15 cf        	c.beqz	a4, 0x11b6a <_puts_r+0x70>
   11b30: 83 97 05 01  	lh	a5, 0x10(a1)
   11b34: 13 97 27 03  	slli	a4, a5, 0x32
   11b38: 63 4d 07 00  	blt	a4, zero, 0x11b52 <_puts_r+0x58>
   11b3c: 03 a7 c5 0a  	lw	a4, 0xac(a1)
   11b40: f9 76        	c.lui	a3, 0xffffe
   11b42: fd 16        	c.addi	a3, -0x1
   11b44: 09 66        	c.lui	a2, 0x2
   11b46: d1 8f        	c.or	a5, a2
   11b48: 75 8f        	c.and	a4, a3
   11b4a: 23 98 f5 00  	sh	a5, 0x10(a1)
   11b4e: 23 a6 e5 0a  	sw	a4, 0xac(a1)
   11b52: 30 08        	c.addi4spn	a2, sp, 0x18
   11b54: 22 85        	c.mv	a0, s0
   11b56: ef 10 30 0b  	jal	ra, 0x13408 <__sfvwrite_r>
   11b5a: a9 47        	c.li	a5, 0xa
   11b5c: 09 ed        	c.bnez	a0, 0x11b76 <_puts_r+0x7c>
   11b5e: a6 70        	c.ldsp	ra, 0x68(sp)
   11b60: 06 74        	c.ldsp	s0, 0x60(sp)
   11b62: e6 64        	c.ldsp	s1, 0x58(sp)
   11b64: 3e 85        	c.mv	a0, a5
   11b66: 65 61        	c.addi16sp	sp, 0x70
   11b68: 82 80        	c.jr	ra
   11b6a: 22 85        	c.mv	a0, s0
   11b6c: 2e e4        	c.sdsp	a1, 0x8(sp)
   11b6e: ef f0 1f c4  	jal	ra, 0x117ae <__sinit>
   11b72: a2 65        	c.ldsp	a1, 0x8(sp)
   11b74: 75 bf        	c.j	0x11b30 <_puts_r+0x36>
   11b76: fd 57        	c.li	a5, -0x1
   11b78: dd b7        	c.j	0x11b5e <_puts_r+0x64>

0000000000011b7a <puts>:
   11b7a: aa 85        	c.mv	a1, a0
   11b7c: 03 b5 81 18  	ld	a0, 0x188(gp)
   11b80: ad bf        	c.j	0x11afa <_puts_r>

0000000000011b82 <__srget_r>:
   11b82: 01 11        	c.addi	sp, -0x20
   11b84: 22 e8        	c.sdsp	s0, 0x10(sp)
   11b86: 26 e4        	c.sdsp	s1, 0x8(sp)
   11b88: 06 ec        	c.sdsp	ra, 0x18(sp)
   11b8a: aa 84        	c.mv	s1, a0
   11b8c: 2e 84        	c.mv	s0, a1
   11b8e: 19 c1        	c.beqz	a0, 0x11b94 <__srget_r+0x12>
   11b90: 3c 65        	c.ld	a5, 0x48(a0)
   11b92: 85 c7        	c.beqz	a5, 0x11bba <__srget_r+0x38>
   11b94: a2 85        	c.mv	a1, s0
   11b96: 26 85        	c.mv	a0, s1
   11b98: ef 10 90 58  	jal	ra, 0x13920 <__srefill_r>
   11b9c: 15 e1        	c.bnez	a0, 0x11bc0 <__srget_r+0x3e>
   11b9e: 18 60        	c.ld	a4, 0x0(s0)
   11ba0: 1c 44        	c.lw	a5, 0x8(s0)
   11ba2: 93 06 17 00  	addi	a3, a4, 0x1
   11ba6: fd 37        	c.addiw	a5, -0x1
   11ba8: 1c c4        	c.sw	a5, 0x8(s0)
   11baa: 14 e0        	c.sd	a3, 0x0(s0)
   11bac: 03 45 07 00  	lbu	a0, 0x0(a4)
   11bb0: e2 60        	c.ldsp	ra, 0x18(sp)
   11bb2: 42 64        	c.ldsp	s0, 0x10(sp)
   11bb4: a2 64        	c.ldsp	s1, 0x8(sp)
   11bb6: 05 61        	c.addi16sp	sp, 0x20
   11bb8: 82 80        	c.jr	ra
   11bba: ef f0 5f bf  	jal	ra, 0x117ae <__sinit>
   11bbe: d9 bf        	c.j	0x11b94 <__srget_r+0x12>
   11bc0: 7d 55        	c.li	a0, -0x1
   11bc2: fd b7        	c.j	0x11bb0 <__srget_r+0x2e>

0000000000011bc4 <__srget>:
   11bc4: 01 11        	c.addi	sp, -0x20
   11bc6: 26 e4        	c.sdsp	s1, 0x8(sp)
   11bc8: 83 b4 81 18  	ld	s1, 0x188(gp)
   11bcc: 22 e8        	c.sdsp	s0, 0x10(sp)
   11bce: 06 ec        	c.sdsp	ra, 0x18(sp)
   11bd0: 2a 84        	c.mv	s0, a0
   11bd2: 99 c0        	c.beqz	s1, 0x11bd8 <__srget+0x14>
   11bd4: bc 64        	c.ld	a5, 0x48(s1)
   11bd6: 85 c7        	c.beqz	a5, 0x11bfe <__srget+0x3a>
   11bd8: a2 85        	c.mv	a1, s0
   11bda: 26 85        	c.mv	a0, s1
   11bdc: ef 10 50 54  	jal	ra, 0x13920 <__srefill_r>
   11be0: 1d e1        	c.bnez	a0, 0x11c06 <__srget+0x42>
   11be2: 18 60        	c.ld	a4, 0x0(s0)
   11be4: 1c 44        	c.lw	a5, 0x8(s0)
   11be6: 93 06 17 00  	addi	a3, a4, 0x1
   11bea: fd 37        	c.addiw	a5, -0x1
   11bec: 1c c4        	c.sw	a5, 0x8(s0)
   11bee: 14 e0        	c.sd	a3, 0x0(s0)
   11bf0: 03 45 07 00  	lbu	a0, 0x0(a4)
   11bf4: e2 60        	c.ldsp	ra, 0x18(sp)
   11bf6: 42 64        	c.ldsp	s0, 0x10(sp)
   11bf8: a2 64        	c.ldsp	s1, 0x8(sp)
   11bfa: 05 61        	c.addi16sp	sp, 0x20
   11bfc: 82 80        	c.jr	ra
   11bfe: 26 85        	c.mv	a0, s1
   11c00: ef f0 ff ba  	jal	ra, 0x117ae <__sinit>
   11c04: d1 bf        	c.j	0x11bd8 <__srget+0x14>
   11c06: 7d 55        	c.li	a0, -0x1
   11c08: f5 b7        	c.j	0x11bf4 <__srget+0x30>

0000000000011c0a <__sread>:
   11c0a: 41 11        	c.addi	sp, -0x10
   11c0c: 22 e0        	c.sdsp	s0, 0x0(sp)
   11c0e: 2e 84        	c.mv	s0, a1
   11c10: 83 95 25 01  	lh	a1, 0x12(a1)
   11c14: 06 e4        	c.sdsp	ra, 0x8(sp)
   11c16: ef 00 20 73  	jal	ra, 0x12348 <_read_r>
   11c1a: 63 49 05 00  	blt	a0, zero, 0x11c2c <__sread+0x22>
   11c1e: 5c 68        	c.ld	a5, 0x90(s0)
   11c20: a2 60        	c.ldsp	ra, 0x8(sp)
   11c22: aa 97        	c.add	a5, a0
   11c24: 5c e8        	c.sd	a5, 0x90(s0)
   11c26: 02 64        	c.ldsp	s0, 0x0(sp)
   11c28: 41 01        	c.addi	sp, 0x10
   11c2a: 82 80        	c.jr	ra
   11c2c: 83 57 04 01  	lhu	a5, 0x10(s0)
   11c30: 7d 77        	c.lui	a4, 0xfffff
   11c32: 7d 17        	c.addi	a4, -0x1
   11c34: f9 8f        	c.and	a5, a4
   11c36: a2 60        	c.ldsp	ra, 0x8(sp)
   11c38: 23 18 f4 00  	sh	a5, 0x10(s0)
   11c3c: 02 64        	c.ldsp	s0, 0x0(sp)
   11c3e: 41 01        	c.addi	sp, 0x10
   11c40: 82 80        	c.jr	ra

0000000000011c42 <__seofread>:
   11c42: 01 45        	c.li	a0, 0x0
   11c44: 82 80        	c.jr	ra

0000000000011c46 <__swrite>:
   11c46: 83 97 05 01  	lh	a5, 0x10(a1)
   11c4a: 79 71        	c.addi16sp	sp, -0x30
   11c4c: 22 f0        	c.sdsp	s0, 0x20(sp)
   11c4e: 26 ec        	c.sdsp	s1, 0x18(sp)
   11c50: 4a e8        	c.sdsp	s2, 0x10(sp)
   11c52: 4e e4        	c.sdsp	s3, 0x8(sp)
   11c54: 06 f4        	c.sdsp	ra, 0x28(sp)
   11c56: 13 f7 07 10  	andi	a4, a5, 0x100
   11c5a: 2e 84        	c.mv	s0, a1
   11c5c: aa 84        	c.mv	s1, a0
   11c5e: 32 89        	c.mv	s2, a2
   11c60: b6 89        	c.mv	s3, a3
   11c62: 15 e3        	c.bnez	a4, 0x11c86 <__swrite+0x40>
   11c64: 7d 77        	c.lui	a4, 0xfffff
   11c66: 7d 17        	c.addi	a4, -0x1
   11c68: f9 8f        	c.and	a5, a4
   11c6a: 83 15 24 01  	lh	a1, 0x12(s0)
   11c6e: 23 18 f4 00  	sh	a5, 0x10(s0)
   11c72: 02 74        	c.ldsp	s0, 0x20(sp)
   11c74: a2 70        	c.ldsp	ra, 0x28(sp)
   11c76: ce 86        	c.mv	a3, s3
   11c78: 4a 86        	c.mv	a2, s2
   11c7a: a2 69        	c.ldsp	s3, 0x8(sp)
   11c7c: 42 69        	c.ldsp	s2, 0x10(sp)
   11c7e: 26 85        	c.mv	a0, s1
   11c80: e2 64        	c.ldsp	s1, 0x18(sp)
   11c82: 45 61        	c.addi16sp	sp, 0x30
   11c84: 01 a7        	c.j	0x12384 <_write_r>
   11c86: 83 95 25 01  	lh	a1, 0x12(a1)
   11c8a: 89 46        	c.li	a3, 0x2
   11c8c: 01 46        	c.li	a2, 0x0
   11c8e: ef 00 20 64  	jal	ra, 0x122d0 <_lseek_r>
   11c92: 83 17 04 01  	lh	a5, 0x10(s0)
   11c96: f9 b7        	c.j	0x11c64 <__swrite+0x1e>

0000000000011c98 <__sseek>:
   11c98: 41 11        	c.addi	sp, -0x10
   11c9a: 22 e0        	c.sdsp	s0, 0x0(sp)
   11c9c: 2e 84        	c.mv	s0, a1
   11c9e: 83 95 25 01  	lh	a1, 0x12(a1)
   11ca2: 06 e4        	c.sdsp	ra, 0x8(sp)
   11ca4: ef 00 c0 62  	jal	ra, 0x122d0 <_lseek_r>
   11ca8: fd 57        	c.li	a5, -0x1
   11caa: 63 01 f5 02  	beq	a0, a5, 0x11ccc <__sseek+0x34>
   11cae: 83 57 04 01  	lhu	a5, 0x10(s0)
   11cb2: 05 67        	c.lui	a4, 0x1
   11cb4: a2 60        	c.ldsp	ra, 0x8(sp)
   11cb6: d9 8f        	c.or	a5, a4
   11cb8: 9b 97 07 01  	slliw	a5, a5, 0x10
   11cbc: 9b d7 07 41  	sraiw	a5, a5, 0x10
   11cc0: 48 e8        	c.sd	a0, 0x90(s0)
   11cc2: 23 18 f4 00  	sh	a5, 0x10(s0)
   11cc6: 02 64        	c.ldsp	s0, 0x0(sp)
   11cc8: 41 01        	c.addi	sp, 0x10
   11cca: 82 80        	c.jr	ra
   11ccc: 83 57 04 01  	lhu	a5, 0x10(s0)
   11cd0: 7d 77        	c.lui	a4, 0xfffff
   11cd2: 7d 17        	c.addi	a4, -0x1
   11cd4: f9 8f        	c.and	a5, a4
   11cd6: 9b 97 07 01  	slliw	a5, a5, 0x10
   11cda: 9b d7 07 41  	sraiw	a5, a5, 0x10
   11cde: a2 60        	c.ldsp	ra, 0x8(sp)
   11ce0: 23 18 f4 00  	sh	a5, 0x10(s0)
   11ce4: 02 64        	c.ldsp	s0, 0x0(sp)
   11ce6: 41 01        	c.addi	sp, 0x10
   11ce8: 82 80        	c.jr	ra

0000000000011cea <__sclose>:
   11cea: 83 95 25 01  	lh	a1, 0x12(a1)
   11cee: fd a9        	c.j	0x121ec <_close_r>

0000000000011cf0 <__swbuf_r>:
   11cf0: 79 71        	c.addi16sp	sp, -0x30
   11cf2: 22 f0        	c.sdsp	s0, 0x20(sp)
   11cf4: 26 ec        	c.sdsp	s1, 0x18(sp)
   11cf6: 4a e8        	c.sdsp	s2, 0x10(sp)
   11cf8: 06 f4        	c.sdsp	ra, 0x28(sp)
   11cfa: 2a 89        	c.mv	s2, a0
   11cfc: ae 84        	c.mv	s1, a1
   11cfe: 32 84        	c.mv	s0, a2
   11d00: 19 c1        	c.beqz	a0, 0x11d06 <__swbuf_r+0x16>
   11d02: 3c 65        	c.ld	a5, 0x48(a0)
   11d04: e5 c7        	c.beqz	a5, 0x11dec <__swbuf_r+0xfc>
   11d06: 1c 54        	c.lw	a5, 0x28(s0)
   11d08: 03 17 04 01  	lh	a4, 0x10(s0)
   11d0c: 5c c4        	c.sw	a5, 0xc(s0)
   11d0e: 93 77 87 00  	andi	a5, a4, 0x8
   11d12: a9 cb        	c.beqz	a5, 0x11d64 <__swbuf_r+0x74>
   11d14: 1c 6c        	c.ld	a5, 0x18(s0)
   11d16: b9 c7        	c.beqz	a5, 0x11d64 <__swbuf_r+0x74>
   11d18: 4e e4        	c.sdsp	s3, 0x8(sp)
   11d1a: 93 16 27 03  	slli	a3, a4, 0x32
   11d1e: 93 f9 f4 0f  	andi	s3, s1, 0xff
   11d22: ce 84        	c.mv	s1, s3
   11d24: 63 d0 06 06  	bge	a3, zero, 0x11d84 <__swbuf_r+0x94>
   11d28: 18 60        	c.ld	a4, 0x0(s0)
   11d2a: 14 50        	c.lw	a3, 0x20(s0)
   11d2c: bb 07 f7 40  	subw	a5, a4, a5
   11d30: 63 db d7 06  	bge	a5, a3, 0x11da6 <__swbuf_r+0xb6>
   11d34: 54 44        	c.lw	a3, 0xc(s0)
   11d36: 13 06 17 00  	addi	a2, a4, 0x1
   11d3a: 10 e0        	c.sd	a2, 0x0(s0)
   11d3c: fd 36        	c.addiw	a3, -0x1
   11d3e: 54 c4        	c.sw	a3, 0xc(s0)
   11d40: 23 00 37 01  	sb	s3, 0x0(a4)
   11d44: 18 50        	c.lw	a4, 0x20(s0)
   11d46: 85 27        	c.addiw	a5, 0x1
   11d48: 63 01 f7 08  	beq	a4, a5, 0x11dca <__swbuf_r+0xda>
   11d4c: 83 57 04 01  	lhu	a5, 0x10(s0)
   11d50: 85 8b        	c.andi	a5, 0x1
   11d52: c1 e7        	c.bnez	a5, 0x11dda <__swbuf_r+0xea>
   11d54: a2 69        	c.ldsp	s3, 0x8(sp)
   11d56: a2 70        	c.ldsp	ra, 0x28(sp)
   11d58: 02 74        	c.ldsp	s0, 0x20(sp)
   11d5a: 42 69        	c.ldsp	s2, 0x10(sp)
   11d5c: 26 85        	c.mv	a0, s1
   11d5e: e2 64        	c.ldsp	s1, 0x18(sp)
   11d60: 45 61        	c.addi16sp	sp, 0x30
   11d62: 82 80        	c.jr	ra
   11d64: a2 85        	c.mv	a1, s0
   11d66: 4a 85        	c.mv	a0, s2
   11d68: ef 00 60 09  	jal	ra, 0x11dfe <__swsetup_r>
   11d6c: 2d e5        	c.bnez	a0, 0x11dd6 <__swbuf_r+0xe6>
   11d6e: 03 17 04 01  	lh	a4, 0x10(s0)
   11d72: 4e e4        	c.sdsp	s3, 0x8(sp)
   11d74: 93 f9 f4 0f  	andi	s3, s1, 0xff
   11d78: 93 16 27 03  	slli	a3, a4, 0x32
   11d7c: 1c 6c        	c.ld	a5, 0x18(s0)
   11d7e: ce 84        	c.mv	s1, s3
   11d80: e3 c4 06 fa  	blt	a3, zero, 0x11d28 <__swbuf_r+0x38>
   11d84: 83 26 c4 0a  	lw	a3, 0xac(s0)
   11d88: 79 76        	c.lui	a2, 0xffffe
   11d8a: 89 65        	c.lui	a1, 0x2
   11d8c: 4d 8f        	c.or	a4, a1
   11d8e: 7d 16        	c.addi	a2, -0x1
   11d90: f1 8e        	c.and	a3, a2
   11d92: 23 18 e4 00  	sh	a4, 0x10(s0)
   11d96: 18 60        	c.ld	a4, 0x0(s0)
   11d98: 23 26 d4 0a  	sw	a3, 0xac(s0)
   11d9c: 14 50        	c.lw	a3, 0x20(s0)
   11d9e: bb 07 f7 40  	subw	a5, a4, a5
   11da2: e3 c9 d7 f8  	blt	a5, a3, 0x11d34 <__swbuf_r+0x44>
   11da6: a2 85        	c.mv	a1, s0
   11da8: 4a 85        	c.mv	a0, s2
   11daa: ef 10 80 55  	jal	ra, 0x13302 <_fflush_r>
   11dae: 1d e1        	c.bnez	a0, 0x11dd4 <__swbuf_r+0xe4>
   11db0: 18 60        	c.ld	a4, 0x0(s0)
   11db2: 54 44        	c.lw	a3, 0xc(s0)
   11db4: 85 47        	c.li	a5, 0x1
   11db6: 13 06 17 00  	addi	a2, a4, 0x1
   11dba: fd 36        	c.addiw	a3, -0x1
   11dbc: 10 e0        	c.sd	a2, 0x0(s0)
   11dbe: 54 c4        	c.sw	a3, 0xc(s0)
   11dc0: 23 00 37 01  	sb	s3, 0x0(a4)
   11dc4: 18 50        	c.lw	a4, 0x20(s0)
   11dc6: e3 13 f7 f8  	bne	a4, a5, 0x11d4c <__swbuf_r+0x5c>
   11dca: a2 85        	c.mv	a1, s0
   11dcc: 4a 85        	c.mv	a0, s2
   11dce: ef 10 40 53  	jal	ra, 0x13302 <_fflush_r>
   11dd2: 49 d1        	c.beqz	a0, 0x11d54 <__swbuf_r+0x64>
   11dd4: a2 69        	c.ldsp	s3, 0x8(sp)
   11dd6: fd 54        	c.li	s1, -0x1
   11dd8: bd bf        	c.j	0x11d56 <__swbuf_r+0x66>
   11dda: a9 47        	c.li	a5, 0xa
   11ddc: e3 9c f4 f6  	bne	s1, a5, 0x11d54 <__swbuf_r+0x64>
   11de0: a2 85        	c.mv	a1, s0
   11de2: 4a 85        	c.mv	a0, s2
   11de4: ef 10 e0 51  	jal	ra, 0x13302 <_fflush_r>
   11de8: 35 d5        	c.beqz	a0, 0x11d54 <__swbuf_r+0x64>
   11dea: ed b7        	c.j	0x11dd4 <__swbuf_r+0xe4>
   11dec: ef f0 3f 9c  	jal	ra, 0x117ae <__sinit>
   11df0: 19 bf        	c.j	0x11d06 <__swbuf_r+0x16>

0000000000011df2 <__swbuf>:
   11df2: aa 87        	c.mv	a5, a0
   11df4: 03 b5 81 18  	ld	a0, 0x188(gp)
   11df8: 2e 86        	c.mv	a2, a1
   11dfa: be 85        	c.mv	a1, a5
   11dfc: d5 bd        	c.j	0x11cf0 <__swbuf_r>

0000000000011dfe <__swsetup_r>:
   11dfe: 83 b7 81 18  	ld	a5, 0x188(gp)
   11e02: 01 11        	c.addi	sp, -0x20
   11e04: 22 e8        	c.sdsp	s0, 0x10(sp)
   11e06: 26 e4        	c.sdsp	s1, 0x8(sp)
   11e08: 06 ec        	c.sdsp	ra, 0x18(sp)
   11e0a: aa 84        	c.mv	s1, a0
   11e0c: 2e 84        	c.mv	s0, a1
   11e0e: 99 c3        	c.beqz	a5, 0x11e14 <__swsetup_r+0x16>
   11e10: b8 67        	c.ld	a4, 0x48(a5)
   11e12: 5d c7        	c.beqz	a4, 0x11ec0 <__swsetup_r+0xc2>
   11e14: 83 17 04 01  	lh	a5, 0x10(s0)
   11e18: 13 f7 87 00  	andi	a4, a5, 0x8
   11e1c: 21 c7        	c.beqz	a4, 0x11e64 <__swsetup_r+0x66>
   11e1e: 18 6c        	c.ld	a4, 0x18(s0)
   11e20: 31 cf        	c.beqz	a4, 0x11e7c <__swsetup_r+0x7e>
   11e22: 93 f6 17 00  	andi	a3, a5, 0x1
   11e26: 91 ce        	c.beqz	a3, 0x11e42 <__swsetup_r+0x44>
   11e28: 14 50        	c.lw	a3, 0x20(s0)
   11e2a: 23 26 04 00  	sw	zero, 0xc(s0)
   11e2e: 01 45        	c.li	a0, 0x0
   11e30: bb 06 d0 40  	subw	a3, zero, a3
   11e34: 14 d4        	c.sw	a3, 0x28(s0)
   11e36: 11 cf        	c.beqz	a4, 0x11e52 <__swsetup_r+0x54>
   11e38: e2 60        	c.ldsp	ra, 0x18(sp)
   11e3a: 42 64        	c.ldsp	s0, 0x10(sp)
   11e3c: a2 64        	c.ldsp	s1, 0x8(sp)
   11e3e: 05 61        	c.addi16sp	sp, 0x20
   11e40: 82 80        	c.jr	ra
   11e42: 93 f6 27 00  	andi	a3, a5, 0x2
   11e46: 01 46        	c.li	a2, 0x0
   11e48: 91 e2        	c.bnez	a3, 0x11e4c <__swsetup_r+0x4e>
   11e4a: 10 50        	c.lw	a2, 0x20(s0)
   11e4c: 50 c4        	c.sw	a2, 0xc(s0)
   11e4e: 01 45        	c.li	a0, 0x0
   11e50: 65 f7        	c.bnez	a4, 0x11e38 <__swsetup_r+0x3a>
   11e52: 13 f7 07 08  	andi	a4, a5, 0x80
   11e56: 6d d3        	c.beqz	a4, 0x11e38 <__swsetup_r+0x3a>
   11e58: 93 e7 07 04  	ori	a5, a5, 0x40
   11e5c: 23 18 f4 00  	sh	a5, 0x10(s0)
   11e60: 7d 55        	c.li	a0, -0x1
   11e62: d9 bf        	c.j	0x11e38 <__swsetup_r+0x3a>
   11e64: 13 f7 07 01  	andi	a4, a5, 0x10
   11e68: 25 c3        	c.beqz	a4, 0x11ec8 <__swsetup_r+0xca>
   11e6a: 13 f7 47 00  	andi	a4, a5, 0x4
   11e6e: 0d e7        	c.bnez	a4, 0x11e98 <__swsetup_r+0x9a>
   11e70: 18 6c        	c.ld	a4, 0x18(s0)
   11e72: 93 e7 87 00  	ori	a5, a5, 0x8
   11e76: 23 18 f4 00  	sh	a5, 0x10(s0)
   11e7a: 45 f7        	c.bnez	a4, 0x11e22 <__swsetup_r+0x24>
   11e7c: 93 f6 07 28  	andi	a3, a5, 0x280
   11e80: 13 06 00 20  	addi	a2, zero, 0x200
   11e84: e3 8f c6 f8  	beq	a3, a2, 0x11e22 <__swsetup_r+0x24>
   11e88: a2 85        	c.mv	a1, s0
   11e8a: 26 85        	c.mv	a0, s1
   11e8c: ef 10 f0 0d  	jal	ra, 0x1376a <__smakebuf_r>
   11e90: 83 17 04 01  	lh	a5, 0x10(s0)
   11e94: 18 6c        	c.ld	a4, 0x18(s0)
   11e96: 71 b7        	c.j	0x11e22 <__swsetup_r+0x24>
   11e98: 2c 6c        	c.ld	a1, 0x58(s0)
   11e9a: 81 cd        	c.beqz	a1, 0x11eb2 <__swsetup_r+0xb4>
   11e9c: 13 07 44 07  	addi	a4, s0, 0x74
   11ea0: 63 87 e5 00  	beq	a1, a4, 0x11eae <__swsetup_r+0xb0>
   11ea4: 26 85        	c.mv	a0, s1
   11ea6: ef 00 b0 1c  	jal	ra, 0x12870 <_free_r>
   11eaa: 83 17 04 01  	lh	a5, 0x10(s0)
   11eae: 23 3c 04 04  	sd	zero, 0x58(s0)
   11eb2: 18 6c        	c.ld	a4, 0x18(s0)
   11eb4: 93 f7 b7 fd  	andi	a5, a5, -0x25
   11eb8: 23 24 04 00  	sw	zero, 0x8(s0)
   11ebc: 18 e0        	c.sd	a4, 0x0(s0)
   11ebe: 55 bf        	c.j	0x11e72 <__swsetup_r+0x74>
   11ec0: 3e 85        	c.mv	a0, a5
   11ec2: ef f0 df 8e  	jal	ra, 0x117ae <__sinit>
   11ec6: b9 b7        	c.j	0x11e14 <__swsetup_r+0x16>
   11ec8: 25 47        	c.li	a4, 0x9
   11eca: 98 c0        	c.sw	a4, 0x0(s1)
   11ecc: 93 e7 07 04  	ori	a5, a5, 0x40
   11ed0: 23 18 f4 00  	sh	a5, 0x10(s0)
   11ed4: 7d 55        	c.li	a0, -0x1
   11ed6: 8d b7        	c.j	0x11e38 <__swsetup_r+0x3a>

0000000000011ed8 <_fseeko_r>:
   11ed8: 31 71        	c.addi16sp	sp, -0xc0
   11eda: 22 f9        	c.sdsp	s0, 0xb0(sp)
   11edc: 26 f5        	c.sdsp	s1, 0xa8(sp)
   11ede: 4a f1        	c.sdsp	s2, 0xa0(sp)
   11ee0: 52 e9        	c.sdsp	s4, 0x90(sp)
   11ee2: 06 fd        	c.sdsp	ra, 0xb8(sp)
   11ee4: 56 e5        	c.sdsp	s5, 0x88(sp)
   11ee6: aa 84        	c.mv	s1, a0
   11ee8: 2e 84        	c.mv	s0, a1
   11eea: 32 8a        	c.mv	s4, a2
   11eec: 36 89        	c.mv	s2, a3
   11eee: 01 c5        	c.beqz	a0, 0x11ef6 <_fseeko_r+0x1e>
   11ef0: 3c 65        	c.ld	a5, 0x48(a0)
   11ef2: 63 80 07 28  	beq	a5, zero, 0x12172 <_fseeko_r+0x29a>
   11ef6: 83 57 04 01  	lhu	a5, 0x10(s0)
   11efa: 13 07 80 10  	addi	a4, zero, 0x108
   11efe: 93 f7 87 10  	andi	a5, a5, 0x108
   11f02: 63 8c e7 12  	beq	a5, a4, 0x1203a <_fseeko_r+0x162>
   11f06: 83 3a 84 04  	ld	s5, 0x48(s0)
   11f0a: 63 86 0a 2c  	beq	s5, zero, 0x121d6 <_fseeko_r+0x2fe>
   11f0e: 4e ed        	c.sdsp	s3, 0x98(sp)
   11f10: 5a e1        	c.sdsp	s6, 0x80(sp)
   11f12: 85 47        	c.li	a5, 0x1
   11f14: 63 0a f9 0a  	beq	s2, a5, 0x11fc8 <_fseeko_r+0xf0>
   11f18: 13 7b d9 ff  	andi	s6, s2, -0x3
   11f1c: 63 0f 0b 00  	beq	s6, zero, 0x11f3a <_fseeko_r+0x62>
   11f20: ea 69        	c.ldsp	s3, 0x98(sp)
   11f22: 0a 6b        	c.ldsp	s6, 0x80(sp)
   11f24: d9 47        	c.li	a5, 0x16
   11f26: 9c c0        	c.sw	a5, 0x0(s1)
   11f28: 7d 55        	c.li	a0, -0x1
   11f2a: ea 70        	c.ldsp	ra, 0xb8(sp)
   11f2c: 4a 74        	c.ldsp	s0, 0xb0(sp)
   11f2e: aa 74        	c.ldsp	s1, 0xa8(sp)
   11f30: 0a 79        	c.ldsp	s2, 0xa0(sp)
   11f32: 4a 6a        	c.ldsp	s4, 0x90(sp)
   11f34: aa 6a        	c.ldsp	s5, 0x88(sp)
   11f36: 29 61        	c.addi16sp	sp, 0xc0
   11f38: 82 80        	c.jr	ra
   11f3a: 18 6c        	c.ld	a4, 0x18(s0)
   11f3c: 81 49        	c.li	s3, 0x0
   11f3e: 69 c3        	c.beqz	a4, 0x12000 <_fseeko_r+0x128>
   11f40: 83 17 04 01  	lh	a5, 0x10(s0)
   11f44: 13 d7 17 00  	srli	a4, a5, 0x1
   11f48: 13 77 d7 40  	andi	a4, a4, 0x40d
   11f4c: 19 ef        	c.bnez	a4, 0x11f6a <_fseeko_r+0x92>
   11f4e: 13 f7 07 40  	andi	a4, a5, 0x400
   11f52: 45 ef        	c.bnez	a4, 0x1200a <_fseeko_r+0x132>
   11f54: 49 67        	c.lui	a4, 0x12
   11f56: 13 07 87 c9  	addi	a4, a4, -0x368
   11f5a: 63 8b ea 1a  	beq	s5, a4, 0x12110 <_fseeko_r+0x238>
   11f5e: 05 67        	c.lui	a4, 0x1
   11f60: 13 07 07 80  	addi	a4, a4, -0x800
   11f64: d9 8f        	c.or	a5, a4
   11f66: 23 18 f4 00  	sh	a5, 0x10(s0)
   11f6a: a2 85        	c.mv	a1, s0
   11f6c: 26 85        	c.mv	a0, s1
   11f6e: ef 10 40 39  	jal	ra, 0x13302 <_fflush_r>
   11f72: 63 1e 05 24  	bne	a0, zero, 0x121ce <_fseeko_r+0x2f6>
   11f76: 0c 78        	c.ld	a1, 0x30(s0)
   11f78: ca 86        	c.mv	a3, s2
   11f7a: 52 86        	c.mv	a2, s4
   11f7c: 26 85        	c.mv	a0, s1
   11f7e: 82 9a        	c.jalr	s5
   11f80: fd 57        	c.li	a5, -0x1
   11f82: 63 06 f5 24  	beq	a0, a5, 0x121ce <_fseeko_r+0x2f6>
   11f86: 2c 6c        	c.ld	a1, 0x58(s0)
   11f88: 91 c9        	c.beqz	a1, 0x11f9c <_fseeko_r+0xc4>
   11f8a: 93 07 44 07  	addi	a5, s0, 0x74
   11f8e: 63 85 f5 00  	beq	a1, a5, 0x11f98 <_fseeko_r+0xc0>
   11f92: 26 85        	c.mv	a0, s1
   11f94: ef 00 d0 0d  	jal	ra, 0x12870 <_free_r>
   11f98: 23 3c 04 04  	sd	zero, 0x58(s0)
   11f9c: 83 57 04 01  	lhu	a5, 0x10(s0)
   11fa0: 14 6c        	c.ld	a3, 0x18(s0)
   11fa2: 7d 77        	c.lui	a4, 0xfffff
   11fa4: 13 07 f7 7d  	addi	a4, a4, 0x7df
   11fa8: f9 8f        	c.and	a5, a4
   11faa: 14 e0        	c.sd	a3, 0x0(s0)
   11fac: 23 24 04 00  	sw	zero, 0x8(s0)
   11fb0: 23 18 f4 00  	sh	a5, 0x10(s0)
   11fb4: 21 46        	c.li	a2, 0x8
   11fb6: 81 45        	c.li	a1, 0x0
   11fb8: 13 05 44 0a  	addi	a0, s0, 0xa4
   11fbc: ef 00 60 47  	jal	ra, 0x12432 <memset>
   11fc0: ea 69        	c.ldsp	s3, 0x98(sp)
   11fc2: 0a 6b        	c.ldsp	s6, 0x80(sp)
   11fc4: 01 45        	c.li	a0, 0x0
   11fc6: 95 b7        	c.j	0x11f2a <_fseeko_r+0x52>
   11fc8: a2 85        	c.mv	a1, s0
   11fca: 26 85        	c.mv	a0, s1
   11fcc: ef 10 60 33  	jal	ra, 0x13302 <_fflush_r>
   11fd0: 83 17 04 01  	lh	a5, 0x10(s0)
   11fd4: 13 97 37 03  	slli	a4, a5, 0x33
   11fd8: 63 56 07 06  	bge	a4, zero, 0x12044 <_fseeko_r+0x16c>
   11fdc: 93 f6 47 00  	andi	a3, a5, 0x4
   11fe0: 83 39 04 09  	ld	s3, 0x90(s0)
   11fe4: 18 6c        	c.ld	a4, 0x18(s0)
   11fe6: b5 ce        	c.beqz	a3, 0x12062 <_fseeko_r+0x18a>
   11fe8: 14 44        	c.lw	a3, 0x8(s0)
   11fea: 3c 6c        	c.ld	a5, 0x58(s0)
   11fec: b3 89 d9 40  	sub	s3, s3, a3
   11ff0: 81 c7        	c.beqz	a5, 0x11ff8 <_fseeko_r+0x120>
   11ff2: 3c 58        	c.lw	a5, 0x70(s0)
   11ff4: b3 89 f9 40  	sub	s3, s3, a5
   11ff8: 4a 8b        	c.mv	s6, s2
   11ffa: 4e 9a        	c.add	s4, s3
   11ffc: 01 49        	c.li	s2, 0x0
   11ffe: 29 f3        	c.bnez	a4, 0x11f40 <_fseeko_r+0x68>
   12000: a2 85        	c.mv	a1, s0
   12002: 26 85        	c.mv	a0, s1
   12004: ef 10 60 76  	jal	ra, 0x1376a <__smakebuf_r>
   12008: 25 bf        	c.j	0x11f40 <_fseeko_r+0x68>
   1200a: de fc        	c.sdsp	s7, 0x78(sp)
   1200c: d2 8b        	c.mv	s7, s4
   1200e: 63 1c 09 12  	bne	s2, zero, 0x12146 <_fseeko_r+0x26e>
   12012: 63 1f 0b 04  	bne	s6, zero, 0x12070 <_fseeko_r+0x198>
   12016: 83 57 04 01  	lhu	a5, 0x10(s0)
   1201a: 13 97 37 03  	slli	a4, a5, 0x33
   1201e: 63 50 07 14  	bge	a4, zero, 0x1215e <_fseeko_r+0x286>
   12022: 48 68        	c.ld	a0, 0x90(s0)
   12024: 1c 44        	c.lw	a5, 0x8(s0)
   12026: 2c 6c        	c.ld	a1, 0x58(s0)
   12028: be 86        	c.mv	a3, a5
   1202a: b3 09 f5 40  	sub	s3, a0, a5
   1202e: 63 85 05 14  	beq	a1, zero, 0x12178 <_fseeko_r+0x2a0>
   12032: 38 58        	c.lw	a4, 0x70(s0)
   12034: b3 89 e9 40  	sub	s3, s3, a4
   12038: 91 a0        	c.j	0x1207c <_fseeko_r+0x1a4>
   1203a: a2 85        	c.mv	a1, s0
   1203c: 26 85        	c.mv	a0, s1
   1203e: ef 10 40 2c  	jal	ra, 0x13302 <_fflush_r>
   12042: d1 b5        	c.j	0x11f06 <_fseeko_r+0x2e>
   12044: 0c 78        	c.ld	a1, 0x30(s0)
   12046: 85 46        	c.li	a3, 0x1
   12048: 01 46        	c.li	a2, 0x0
   1204a: 26 85        	c.mv	a0, s1
   1204c: 82 9a        	c.jalr	s5
   1204e: fd 57        	c.li	a5, -0x1
   12050: aa 89        	c.mv	s3, a0
   12052: 63 0e f5 16  	beq	a0, a5, 0x121ce <_fseeko_r+0x2f6>
   12056: 83 17 04 01  	lh	a5, 0x10(s0)
   1205a: 18 6c        	c.ld	a4, 0x18(s0)
   1205c: 93 f6 47 00  	andi	a3, a5, 0x4
   12060: c1 f6        	c.bnez	a3, 0x11fe8 <_fseeko_r+0x110>
   12062: a1 8b        	c.andi	a5, 0x8
   12064: d1 db        	c.beqz	a5, 0x11ff8 <_fseeko_r+0x120>
   12066: 1c 60        	c.ld	a5, 0x0(s0)
   12068: c1 db        	c.beqz	a5, 0x11ff8 <_fseeko_r+0x120>
   1206a: 99 8f        	c.sub	a5, a4
   1206c: be 99        	c.add	s3, a5
   1206e: 69 b7        	c.j	0x11ff8 <_fseeko_r+0x120>
   12070: 2c 6c        	c.ld	a1, 0x58(s0)
   12072: 14 44        	c.lw	a3, 0x8(s0)
   12074: 63 82 05 10  	beq	a1, zero, 0x12178 <_fseeko_r+0x2a0>
   12078: 38 58        	c.lw	a4, 0x70(s0)
   1207a: b6 87        	c.mv	a5, a3
   1207c: 34 74        	c.ld	a3, 0x68(s0)
   1207e: 10 6c        	c.ld	a2, 0x18(s0)
   12080: ce 97        	c.add	a5, s3
   12082: 91 8e        	c.sub	a3, a2
   12084: 95 8f        	c.sub	a5, a3
   12086: 36 97        	c.add	a4, a3
   12088: 63 c6 fb 00  	blt	s7, a5, 0x12094 <_fseeko_r+0x1bc>
   1208c: b3 86 e7 00  	add	a3, a5, a4
   12090: 63 ef db 0e  	bltu	s7, a3, 0x1218e <_fseeko_r+0x2b6>
   12094: 83 29 84 08  	lw	s3, 0x88(s0)
   12098: 0c 78        	c.ld	a1, 0x30(s0)
   1209a: 81 46        	c.li	a3, 0x0
   1209c: bb 09 30 41  	subw	s3, zero, s3
   120a0: b3 f9 79 01  	and	s3, s3, s7
   120a4: 4e 86        	c.mv	a2, s3
   120a6: 26 85        	c.mv	a0, s1
   120a8: 82 9a        	c.jalr	s5
   120aa: fd 57        	c.li	a5, -0x1
   120ac: 63 01 f5 0c  	beq	a0, a5, 0x1216e <_fseeko_r+0x296>
   120b0: 1c 6c        	c.ld	a5, 0x18(s0)
   120b2: 2c 6c        	c.ld	a1, 0x58(s0)
   120b4: 23 24 04 00  	sw	zero, 0x8(s0)
   120b8: 1c e0        	c.sd	a5, 0x0(s0)
   120ba: 91 c9        	c.beqz	a1, 0x120ce <_fseeko_r+0x1f6>
   120bc: 93 07 44 07  	addi	a5, s0, 0x74
   120c0: 63 85 f5 00  	beq	a1, a5, 0x120ca <_fseeko_r+0x1f2>
   120c4: 26 85        	c.mv	a0, s1
   120c6: ef 00 a0 7a  	jal	ra, 0x12870 <_free_r>
   120ca: 23 3c 04 04  	sd	zero, 0x58(s0)
   120ce: 83 57 04 01  	lhu	a5, 0x10(s0)
   120d2: 33 8b 3b 41  	sub	s6, s7, s3
   120d6: 93 f7 f7 fd  	andi	a5, a5, -0x21
   120da: 23 18 f4 00  	sh	a5, 0x10(s0)
   120de: 63 81 3b 03  	beq	s7, s3, 0x12100 <_fseeko_r+0x228>
   120e2: a2 85        	c.mv	a1, s0
   120e4: 26 85        	c.mv	a0, s1
   120e6: ef 10 b0 03  	jal	ra, 0x13920 <__srefill_r>
   120ea: 51 e1        	c.bnez	a0, 0x1216e <_fseeko_r+0x296>
   120ec: 1c 44        	c.lw	a5, 0x8(s0)
   120ee: 63 e0 67 09  	bltu	a5, s6, 0x1216e <_fseeko_r+0x296>
   120f2: 18 60        	c.ld	a4, 0x0(s0)
   120f4: bb 87 67 41  	subw	a5, a5, s6
   120f8: 1c c4        	c.sw	a5, 0x8(s0)
   120fa: b3 07 67 01  	add	a5, a4, s6
   120fe: 1c e0        	c.sd	a5, 0x0(s0)
   12100: 21 46        	c.li	a2, 0x8
   12102: 81 45        	c.li	a1, 0x0
   12104: 13 05 44 0a  	addi	a0, s0, 0xa4
   12108: ef 00 a0 32  	jal	ra, 0x12432 <memset>
   1210c: e6 7b        	c.ldsp	s7, 0x78(sp)
   1210e: 4d bd        	c.j	0x11fc0 <_fseeko_r+0xe8>
   12110: 83 15 24 01  	lh	a1, 0x12(s0)
   12114: e3 c5 05 e4  	blt	a1, zero, 0x11f5e <_fseeko_r+0x86>
   12118: 30 00        	c.addi4spn	a2, sp, 0x8
   1211a: 26 85        	c.mv	a0, s1
   1211c: ef 00 a0 17  	jal	ra, 0x12296 <_fstat_r>
   12120: 25 e5        	c.bnez	a0, 0x12188 <_fseeko_r+0x2b0>
   12122: 32 47        	c.lwsp	a4, 0xc(sp)
   12124: bd 67        	c.lui	a5, 0xf
   12126: a1 66        	c.lui	a3, 0x8
   12128: 7d 8f        	c.and	a4, a5
   1212a: 83 17 04 01  	lh	a5, 0x10(s0)
   1212e: e3 18 d7 e2  	bne	a4, a3, 0x11f5e <_fseeko_r+0x86>
   12132: de fc        	c.sdsp	s7, 0x78(sp)
   12134: 93 e7 07 40  	ori	a5, a5, 0x400
   12138: 13 07 00 40  	addi	a4, zero, 0x400
   1213c: 23 24 e4 08  	sw	a4, 0x88(s0)
   12140: 23 18 f4 00  	sh	a5, 0x10(s0)
   12144: e1 b5        	c.j	0x1200c <_fseeko_r+0x134>
   12146: 83 15 24 01  	lh	a1, 0x12(s0)
   1214a: 30 00        	c.addi4spn	a2, sp, 0x8
   1214c: 26 85        	c.mv	a0, s1
   1214e: ef 00 80 14  	jal	ra, 0x12296 <_fstat_r>
   12152: 11 ed        	c.bnez	a0, 0x1216e <_fseeko_r+0x296>
   12154: e2 6b        	c.ldsp	s7, 0x18(sp)
   12156: d2 9b        	c.add	s7, s4
   12158: e3 1c 0b f0  	bne	s6, zero, 0x12070 <_fseeko_r+0x198>
   1215c: 6d bd        	c.j	0x12016 <_fseeko_r+0x13e>
   1215e: 0c 78        	c.ld	a1, 0x30(s0)
   12160: 85 46        	c.li	a3, 0x1
   12162: 01 46        	c.li	a2, 0x0
   12164: 26 85        	c.mv	a0, s1
   12166: 82 9a        	c.jalr	s5
   12168: fd 57        	c.li	a5, -0x1
   1216a: e3 1d f5 ea  	bne	a0, a5, 0x12024 <_fseeko_r+0x14c>
   1216e: e6 7b        	c.ldsp	s7, 0x78(sp)
   12170: ed bb        	c.j	0x11f6a <_fseeko_r+0x92>
   12172: ef f0 cf e3  	jal	ra, 0x117ae <__sinit>
   12176: 41 b3        	c.j	0x11ef6 <_fseeko_r+0x1e>
   12178: 18 60        	c.ld	a4, 0x0(s0)
   1217a: 10 6c        	c.ld	a2, 0x18(s0)
   1217c: 81 45        	c.li	a1, 0x0
   1217e: 11 8f        	c.sub	a4, a2
   12180: b3 87 e9 40  	sub	a5, s3, a4
   12184: 36 97        	c.add	a4, a3
   12186: 09 b7        	c.j	0x12088 <_fseeko_r+0x1b0>
   12188: 83 17 04 01  	lh	a5, 0x10(s0)
   1218c: c9 bb        	c.j	0x11f5e <_fseeko_r+0x86>
   1218e: bb 86 fb 40  	subw	a3, s7, a5
   12192: b9 9f        	c.addw	a5, a4
   12194: 36 96        	c.add	a2, a3
   12196: bb 87 77 41  	subw	a5, a5, s7
   1219a: 10 e0        	c.sd	a2, 0x0(s0)
   1219c: 1c c4        	c.sw	a5, 0x8(s0)
   1219e: 91 c9        	c.beqz	a1, 0x121b2 <_fseeko_r+0x2da>
   121a0: 93 07 44 07  	addi	a5, s0, 0x74
   121a4: 63 85 f5 00  	beq	a1, a5, 0x121ae <_fseeko_r+0x2d6>
   121a8: 26 85        	c.mv	a0, s1
   121aa: ef 00 60 6c  	jal	ra, 0x12870 <_free_r>
   121ae: 23 3c 04 04  	sd	zero, 0x58(s0)
   121b2: 83 57 04 01  	lhu	a5, 0x10(s0)
   121b6: 21 46        	c.li	a2, 0x8
   121b8: 81 45        	c.li	a1, 0x0
   121ba: 93 f7 f7 fd  	andi	a5, a5, -0x21
   121be: 23 18 f4 00  	sh	a5, 0x10(s0)
   121c2: 13 05 44 0a  	addi	a0, s0, 0xa4
   121c6: ef 00 c0 26  	jal	ra, 0x12432 <memset>
   121ca: e6 7b        	c.ldsp	s7, 0x78(sp)
   121cc: d5 bb        	c.j	0x11fc0 <_fseeko_r+0xe8>
   121ce: ea 69        	c.ldsp	s3, 0x98(sp)
   121d0: 0a 6b        	c.ldsp	s6, 0x80(sp)
   121d2: 7d 55        	c.li	a0, -0x1
   121d4: 99 bb        	c.j	0x11f2a <_fseeko_r+0x52>
   121d6: f5 47        	c.li	a5, 0x1d
   121d8: 9c c0        	c.sw	a5, 0x0(s1)
   121da: 7d 55        	c.li	a0, -0x1
   121dc: b9 b3        	c.j	0x11f2a <_fseeko_r+0x52>

00000000000121de <fseeko>:
   121de: aa 87        	c.mv	a5, a0
   121e0: 03 b5 81 18  	ld	a0, 0x188(gp)
   121e4: b2 86        	c.mv	a3, a2
   121e6: 2e 86        	c.mv	a2, a1
   121e8: be 85        	c.mv	a1, a5
   121ea: fd b1        	c.j	0x11ed8 <_fseeko_r>

00000000000121ec <_close_r>:
   121ec: 01 11        	c.addi	sp, -0x20
   121ee: 22 e8        	c.sdsp	s0, 0x10(sp)
   121f0: 26 e4        	c.sdsp	s1, 0x8(sp)
   121f2: 2a 84        	c.mv	s0, a0
   121f4: 2e 85        	c.mv	a0, a1
   121f6: 06 ec        	c.sdsp	ra, 0x18(sp)
   121f8: 23 a4 01 1a  	sw	zero, 0x1a8(gp)
   121fc: ef 10 30 71  	jal	ra, 0x1410e <_close>
   12200: fd 57        	c.li	a5, -0x1
   12202: 63 07 f5 00  	beq	a0, a5, 0x12210 <_close_r+0x24>
   12206: e2 60        	c.ldsp	ra, 0x18(sp)
   12208: 42 64        	c.ldsp	s0, 0x10(sp)
   1220a: a2 64        	c.ldsp	s1, 0x8(sp)
   1220c: 05 61        	c.addi16sp	sp, 0x20
   1220e: 82 80        	c.jr	ra
   12210: 83 a7 81 1a  	lw	a5, 0x1a8(gp)
   12214: ed db        	c.beqz	a5, 0x12206 <_close_r+0x1a>
   12216: e2 60        	c.ldsp	ra, 0x18(sp)
   12218: 1c c0        	c.sw	a5, 0x0(s0)
   1221a: 42 64        	c.ldsp	s0, 0x10(sp)
   1221c: a2 64        	c.ldsp	s1, 0x8(sp)
   1221e: 05 61        	c.addi16sp	sp, 0x20
   12220: 82 80        	c.jr	ra

0000000000012222 <_reclaim_reent>:
   12222: 83 b7 81 18  	ld	a5, 0x188(gp)
   12226: 63 87 a7 06  	beq	a5, a0, 0x12294 <_reclaim_reent+0x72>
   1222a: 2c 75        	c.ld	a1, 0x68(a0)
   1222c: 79 71        	c.addi16sp	sp, -0x30
   1222e: 26 ec        	c.sdsp	s1, 0x18(sp)
   12230: 06 f4        	c.sdsp	ra, 0x28(sp)
   12232: aa 84        	c.mv	s1, a0
   12234: 9d c9        	c.beqz	a1, 0x1226a <_reclaim_reent+0x48>
   12236: 4a e8        	c.sdsp	s2, 0x10(sp)
   12238: 4e e4        	c.sdsp	s3, 0x8(sp)
   1223a: 22 f0        	c.sdsp	s0, 0x20(sp)
   1223c: 01 49        	c.li	s2, 0x0
   1223e: 93 09 00 20  	addi	s3, zero, 0x200
   12242: b3 87 25 01  	add	a5, a1, s2
   12246: 80 63        	c.ld	s0, 0x0(a5)
   12248: 01 c8        	c.beqz	s0, 0x12258 <_reclaim_reent+0x36>
   1224a: a2 85        	c.mv	a1, s0
   1224c: 00 60        	c.ld	s0, 0x0(s0)
   1224e: 26 85        	c.mv	a0, s1
   12250: ef 00 00 62  	jal	ra, 0x12870 <_free_r>
   12254: 7d f8        	c.bnez	s0, 0x1224a <_reclaim_reent+0x28>
   12256: ac 74        	c.ld	a1, 0x68(s1)
   12258: 21 09        	c.addi	s2, 0x8
   1225a: e3 14 39 ff  	bne	s2, s3, 0x12242 <_reclaim_reent+0x20>
   1225e: 26 85        	c.mv	a0, s1
   12260: ef 00 00 61  	jal	ra, 0x12870 <_free_r>
   12264: 02 74        	c.ldsp	s0, 0x20(sp)
   12266: 42 69        	c.ldsp	s2, 0x10(sp)
   12268: a2 69        	c.ldsp	s3, 0x8(sp)
   1226a: ac 68        	c.ld	a1, 0x50(s1)
   1226c: 81 c5        	c.beqz	a1, 0x12274 <_reclaim_reent+0x52>
   1226e: 26 85        	c.mv	a0, s1
   12270: ef 00 00 60  	jal	ra, 0x12870 <_free_r>
   12274: ac 7c        	c.ld	a1, 0x78(s1)
   12276: 81 c5        	c.beqz	a1, 0x1227e <_reclaim_reent+0x5c>
   12278: 26 85        	c.mv	a0, s1
   1227a: ef 00 60 5f  	jal	ra, 0x12870 <_free_r>
   1227e: bc 64        	c.ld	a5, 0x48(s1)
   12280: 91 c7        	c.beqz	a5, 0x1228c <_reclaim_reent+0x6a>
   12282: a2 70        	c.ldsp	ra, 0x28(sp)
   12284: 26 85        	c.mv	a0, s1
   12286: e2 64        	c.ldsp	s1, 0x18(sp)
   12288: 45 61        	c.addi16sp	sp, 0x30
   1228a: 82 87        	c.jr	a5
   1228c: a2 70        	c.ldsp	ra, 0x28(sp)
   1228e: e2 64        	c.ldsp	s1, 0x18(sp)
   12290: 45 61        	c.addi16sp	sp, 0x30
   12292: 82 80        	c.jr	ra
   12294: 82 80        	c.jr	ra

0000000000012296 <_fstat_r>:
   12296: 01 11        	c.addi	sp, -0x20
   12298: 2e 87        	c.mv	a4, a1
   1229a: 22 e8        	c.sdsp	s0, 0x10(sp)
   1229c: 26 e4        	c.sdsp	s1, 0x8(sp)
   1229e: 2a 84        	c.mv	s0, a0
   122a0: b2 85        	c.mv	a1, a2
   122a2: 3a 85        	c.mv	a0, a4
   122a4: 06 ec        	c.sdsp	ra, 0x18(sp)
   122a6: 23 a4 01 1a  	sw	zero, 0x1a8(gp)
   122aa: ef 10 30 6b  	jal	ra, 0x1415c <_fstat>
   122ae: fd 57        	c.li	a5, -0x1
   122b0: 63 07 f5 00  	beq	a0, a5, 0x122be <_fstat_r+0x28>
   122b4: e2 60        	c.ldsp	ra, 0x18(sp)
   122b6: 42 64        	c.ldsp	s0, 0x10(sp)
   122b8: a2 64        	c.ldsp	s1, 0x8(sp)
   122ba: 05 61        	c.addi16sp	sp, 0x20
   122bc: 82 80        	c.jr	ra
   122be: 83 a7 81 1a  	lw	a5, 0x1a8(gp)
   122c2: ed db        	c.beqz	a5, 0x122b4 <_fstat_r+0x1e>
   122c4: e2 60        	c.ldsp	ra, 0x18(sp)
   122c6: 1c c0        	c.sw	a5, 0x0(s0)
   122c8: 42 64        	c.ldsp	s0, 0x10(sp)
   122ca: a2 64        	c.ldsp	s1, 0x8(sp)
   122cc: 05 61        	c.addi16sp	sp, 0x20
   122ce: 82 80        	c.jr	ra

00000000000122d0 <_lseek_r>:
   122d0: 01 11        	c.addi	sp, -0x20
   122d2: 2e 87        	c.mv	a4, a1
   122d4: 22 e8        	c.sdsp	s0, 0x10(sp)
   122d6: 26 e4        	c.sdsp	s1, 0x8(sp)
   122d8: b2 85        	c.mv	a1, a2
   122da: 2a 84        	c.mv	s0, a0
   122dc: 36 86        	c.mv	a2, a3
   122de: 3a 85        	c.mv	a0, a4
   122e0: 06 ec        	c.sdsp	ra, 0x18(sp)
   122e2: 23 a4 01 1a  	sw	zero, 0x1a8(gp)
   122e6: ef 10 d0 6d  	jal	ra, 0x141c2 <_lseek>
   122ea: fd 57        	c.li	a5, -0x1
   122ec: 63 07 f5 00  	beq	a0, a5, 0x122fa <_lseek_r+0x2a>
   122f0: e2 60        	c.ldsp	ra, 0x18(sp)
   122f2: 42 64        	c.ldsp	s0, 0x10(sp)
   122f4: a2 64        	c.ldsp	s1, 0x8(sp)
   122f6: 05 61        	c.addi16sp	sp, 0x20
   122f8: 82 80        	c.jr	ra
   122fa: 83 a7 81 1a  	lw	a5, 0x1a8(gp)
   122fe: ed db        	c.beqz	a5, 0x122f0 <_lseek_r+0x20>
   12300: e2 60        	c.ldsp	ra, 0x18(sp)
   12302: 1c c0        	c.sw	a5, 0x0(s0)
   12304: 42 64        	c.ldsp	s0, 0x10(sp)
   12306: a2 64        	c.ldsp	s1, 0x8(sp)
   12308: 05 61        	c.addi16sp	sp, 0x20
   1230a: 82 80        	c.jr	ra

000000000001230c <_open_r>:
   1230c: 01 11        	c.addi	sp, -0x20
   1230e: 2e 87        	c.mv	a4, a1
   12310: 22 e8        	c.sdsp	s0, 0x10(sp)
   12312: 26 e4        	c.sdsp	s1, 0x8(sp)
   12314: b2 85        	c.mv	a1, a2
   12316: 2a 84        	c.mv	s0, a0
   12318: 36 86        	c.mv	a2, a3
   1231a: 3a 85        	c.mv	a0, a4
   1231c: 06 ec        	c.sdsp	ra, 0x18(sp)
   1231e: 23 a4 01 1a  	sw	zero, 0x1a8(gp)
   12322: ef 10 d0 6c  	jal	ra, 0x141ee <_open>
   12326: fd 57        	c.li	a5, -0x1
   12328: 63 07 f5 00  	beq	a0, a5, 0x12336 <_open_r+0x2a>
   1232c: e2 60        	c.ldsp	ra, 0x18(sp)
   1232e: 42 64        	c.ldsp	s0, 0x10(sp)
   12330: a2 64        	c.ldsp	s1, 0x8(sp)
   12332: 05 61        	c.addi16sp	sp, 0x20
   12334: 82 80        	c.jr	ra
   12336: 83 a7 81 1a  	lw	a5, 0x1a8(gp)
   1233a: ed db        	c.beqz	a5, 0x1232c <_open_r+0x20>
   1233c: e2 60        	c.ldsp	ra, 0x18(sp)
   1233e: 1c c0        	c.sw	a5, 0x0(s0)
   12340: 42 64        	c.ldsp	s0, 0x10(sp)
   12342: a2 64        	c.ldsp	s1, 0x8(sp)
   12344: 05 61        	c.addi16sp	sp, 0x20
   12346: 82 80        	c.jr	ra

0000000000012348 <_read_r>:
   12348: 01 11        	c.addi	sp, -0x20
   1234a: 2e 87        	c.mv	a4, a1
   1234c: 22 e8        	c.sdsp	s0, 0x10(sp)
   1234e: 26 e4        	c.sdsp	s1, 0x8(sp)
   12350: b2 85        	c.mv	a1, a2
   12352: 2a 84        	c.mv	s0, a0
   12354: 36 86        	c.mv	a2, a3
   12356: 3a 85        	c.mv	a0, a4
   12358: 06 ec        	c.sdsp	ra, 0x18(sp)
   1235a: 23 a4 01 1a  	sw	zero, 0x1a8(gp)
   1235e: ef 10 d0 6b  	jal	ra, 0x1421a <_read>
   12362: fd 57        	c.li	a5, -0x1
   12364: 63 07 f5 00  	beq	a0, a5, 0x12372 <_read_r+0x2a>
   12368: e2 60        	c.ldsp	ra, 0x18(sp)
   1236a: 42 64        	c.ldsp	s0, 0x10(sp)
   1236c: a2 64        	c.ldsp	s1, 0x8(sp)
   1236e: 05 61        	c.addi16sp	sp, 0x20
   12370: 82 80        	c.jr	ra
   12372: 83 a7 81 1a  	lw	a5, 0x1a8(gp)
   12376: ed db        	c.beqz	a5, 0x12368 <_read_r+0x20>
   12378: e2 60        	c.ldsp	ra, 0x18(sp)
   1237a: 1c c0        	c.sw	a5, 0x0(s0)
   1237c: 42 64        	c.ldsp	s0, 0x10(sp)
   1237e: a2 64        	c.ldsp	s1, 0x8(sp)
   12380: 05 61        	c.addi16sp	sp, 0x20
   12382: 82 80        	c.jr	ra

0000000000012384 <_write_r>:
   12384: 01 11        	c.addi	sp, -0x20
   12386: 2e 87        	c.mv	a4, a1
   12388: 22 e8        	c.sdsp	s0, 0x10(sp)
   1238a: 26 e4        	c.sdsp	s1, 0x8(sp)
   1238c: b2 85        	c.mv	a1, a2
   1238e: 2a 84        	c.mv	s0, a0
   12390: 36 86        	c.mv	a2, a3
   12392: 3a 85        	c.mv	a0, a4
   12394: 06 ec        	c.sdsp	ra, 0x18(sp)
   12396: 23 a4 01 1a  	sw	zero, 0x1a8(gp)
   1239a: ef 10 10 70  	jal	ra, 0x1429a <_write>
   1239e: fd 57        	c.li	a5, -0x1
   123a0: 63 07 f5 00  	beq	a0, a5, 0x123ae <_write_r+0x2a>
   123a4: e2 60        	c.ldsp	ra, 0x18(sp)
   123a6: 42 64        	c.ldsp	s0, 0x10(sp)
   123a8: a2 64        	c.ldsp	s1, 0x8(sp)
   123aa: 05 61        	c.addi16sp	sp, 0x20
   123ac: 82 80        	c.jr	ra
   123ae: 83 a7 81 1a  	lw	a5, 0x1a8(gp)
   123b2: ed db        	c.beqz	a5, 0x123a4 <_write_r+0x20>
   123b4: e2 60        	c.ldsp	ra, 0x18(sp)
   123b6: 1c c0        	c.sw	a5, 0x0(s0)
   123b8: 42 64        	c.ldsp	s0, 0x10(sp)
   123ba: a2 64        	c.ldsp	s1, 0x8(sp)
   123bc: 05 61        	c.addi16sp	sp, 0x20
   123be: 82 80        	c.jr	ra

00000000000123c0 <__libc_init_array>:
   123c0: 01 11        	c.addi	sp, -0x20
   123c2: 22 e8        	c.sdsp	s0, 0x10(sp)
   123c4: dd 67        	c.lui	a5, 0x17
   123c6: 5d 64        	c.lui	s0, 0x17
   123c8: 4a e0        	c.sdsp	s2, 0x0(sp)
   123ca: 93 87 07 77  	addi	a5, a5, 0x770
   123ce: 13 07 04 77  	addi	a4, s0, 0x770
   123d2: 06 ec        	c.sdsp	ra, 0x18(sp)
   123d4: 26 e4        	c.sdsp	s1, 0x8(sp)
   123d6: 33 89 e7 40  	sub	s2, a5, a4
   123da: 63 8d e7 00  	beq	a5, a4, 0x123f4 <__libc_init_array+0x34>
   123de: 13 59 39 40  	srai	s2, s2, 0x3
   123e2: 13 04 04 77  	addi	s0, s0, 0x770
   123e6: 81 44        	c.li	s1, 0x0
   123e8: 1c 60        	c.ld	a5, 0x0(s0)
   123ea: 85 04        	c.addi	s1, 0x1
   123ec: 21 04        	c.addi	s0, 0x8
   123ee: 82 97        	c.jalr	a5
   123f0: e3 ec 24 ff  	bltu	s1, s2, 0x123e8 <__libc_init_array+0x28>
   123f4: 5d 64        	c.lui	s0, 0x17
   123f6: dd 67        	c.lui	a5, 0x17
   123f8: 93 87 07 78  	addi	a5, a5, 0x780
   123fc: 13 07 04 77  	addi	a4, s0, 0x770
   12400: 33 89 e7 40  	sub	s2, a5, a4
   12404: 13 59 39 40  	srai	s2, s2, 0x3
   12408: 63 8b e7 00  	beq	a5, a4, 0x1241e <__libc_init_array+0x5e>
   1240c: 13 04 04 77  	addi	s0, s0, 0x770
   12410: 81 44        	c.li	s1, 0x0
   12412: 1c 60        	c.ld	a5, 0x0(s0)
   12414: 85 04        	c.addi	s1, 0x1
   12416: 21 04        	c.addi	s0, 0x8
   12418: 82 97        	c.jalr	a5
   1241a: e3 ec 24 ff  	bltu	s1, s2, 0x12412 <__libc_init_array+0x52>
   1241e: e2 60        	c.ldsp	ra, 0x18(sp)
   12420: 42 64        	c.ldsp	s0, 0x10(sp)
   12422: a2 64        	c.ldsp	s1, 0x8(sp)
   12424: 02 69        	c.ldsp	s2, 0x0(sp)
   12426: 05 61        	c.addi16sp	sp, 0x20
   12428: 82 80        	c.jr	ra

000000000001242a <close>:
   1242a: aa 85        	c.mv	a1, a0
   1242c: 03 b5 81 18  	ld	a0, 0x188(gp)
   12430: 75 bb        	c.j	0x121ec <_close_r>

0000000000012432 <memset>:
   12432: 3d 43        	c.li	t1, 0xf
   12434: 2a 87        	c.mv	a4, a0
   12436: 63 71 c3 02  	bgeu	t1, a2, 0x12458 <memset+0x26>
   1243a: 93 77 f7 00  	andi	a5, a4, 0xf
   1243e: c1 e3        	c.bnez	a5, 0x124be <memset+0x8c>
   12440: bd e1        	c.bnez	a1, 0x124a6 <memset+0x74>
   12442: 93 76 06 ff  	andi	a3, a2, -0x10
   12446: 3d 8a        	c.andi	a2, 0xf
   12448: ba 96        	c.add	a3, a4
   1244a: 0c e3        	c.sd	a1, 0x0(a4)
   1244c: 0c e7        	c.sd	a1, 0x8(a4)
   1244e: 41 07        	c.addi	a4, 0x10
   12450: e3 6d d7 fe  	bltu	a4, a3, 0x1244a <memset+0x18>
   12454: 11 e2        	c.bnez	a2, 0x12458 <memset+0x26>
   12456: 82 80        	c.jr	ra
   12458: b3 06 c3 40  	sub	a3, t1, a2
   1245c: 8a 06        	c.slli	a3, 0x2
   1245e: 97 02 00 00  	auipc	t0, 0x0
   12462: 96 96        	c.add	a3, t0
   12464: 67 80 a6 00  	jalr	zero, 0xa(a3)
   12468: 23 07 b7 00  	sb	a1, 0xe(a4)
   1246c: a3 06 b7 00  	sb	a1, 0xd(a4)
   12470: 23 06 b7 00  	sb	a1, 0xc(a4)
   12474: a3 05 b7 00  	sb	a1, 0xb(a4)
   12478: 23 05 b7 00  	sb	a1, 0xa(a4)
   1247c: a3 04 b7 00  	sb	a1, 0x9(a4)
   12480: 23 04 b7 00  	sb	a1, 0x8(a4)
   12484: a3 03 b7 00  	sb	a1, 0x7(a4)
   12488: 23 03 b7 00  	sb	a1, 0x6(a4)
   1248c: a3 02 b7 00  	sb	a1, 0x5(a4)
   12490: 23 02 b7 00  	sb	a1, 0x4(a4)
   12494: a3 01 b7 00  	sb	a1, 0x3(a4)
   12498: 23 01 b7 00  	sb	a1, 0x2(a4)
   1249c: a3 00 b7 00  	sb	a1, 0x1(a4)
   124a0: 23 00 b7 00  	sb	a1, 0x0(a4)
   124a4: 82 80        	c.jr	ra
   124a6: 93 f5 f5 0f  	andi	a1, a1, 0xff
   124aa: 93 96 85 00  	slli	a3, a1, 0x8
   124ae: d5 8d        	c.or	a1, a3
   124b0: 93 96 05 01  	slli	a3, a1, 0x10
   124b4: d5 8d        	c.or	a1, a3
   124b6: 93 96 05 02  	slli	a3, a1, 0x20
   124ba: d5 8d        	c.or	a1, a3
   124bc: 59 b7        	c.j	0x12442 <memset+0x10>
   124be: 93 96 27 00  	slli	a3, a5, 0x2
   124c2: 97 02 00 00  	auipc	t0, 0x0
   124c6: 96 96        	c.add	a3, t0
   124c8: 86 82        	c.mv	t0, ra
   124ca: e7 80 26 fa  	jalr	ra, -0x5e(a3)
   124ce: 96 80        	c.mv	ra, t0
   124d0: c1 17        	c.addi	a5, -0x10
   124d2: 1d 8f        	c.sub	a4, a5
   124d4: 3e 96        	c.add	a2, a5
   124d6: e3 71 c3 f8  	bgeu	t1, a2, 0x12458 <memset+0x26>
   124da: 9d b7        	c.j	0x12440 <memset+0xe>

00000000000124dc <memcpy>:
   124dc: b3 c7 a5 00  	xor	a5, a1, a0
   124e0: 9d 8b        	c.andi	a5, 0x7
   124e2: b3 08 c5 00  	add	a7, a0, a2
   124e6: b1 e7        	c.bnez	a5, 0x12532 <memcpy+0x56>
   124e8: 9d 47        	c.li	a5, 0x7
   124ea: 63 f4 c7 04  	bgeu	a5, a2, 0x12532 <memcpy+0x56>
   124ee: 93 77 75 00  	andi	a5, a0, 0x7
   124f2: 2a 87        	c.mv	a4, a0
   124f4: b9 eb        	c.bnez	a5, 0x1254a <memcpy+0x6e>
   124f6: 13 f6 88 ff  	andi	a2, a7, -0x8
   124fa: b3 06 e6 40  	sub	a3, a2, a4
   124fe: 93 07 00 04  	addi	a5, zero, 0x40
   12502: 63 c8 d7 06  	blt	a5, a3, 0x12572 <memcpy+0x96>
   12506: ae 86        	c.mv	a3, a1
   12508: ba 87        	c.mv	a5, a4
   1250a: 63 71 c7 02  	bgeu	a4, a2, 0x1252c <memcpy+0x50>
   1250e: 03 b8 06 00  	ld	a6, 0x0(a3)
   12512: a1 07        	c.addi	a5, 0x8
   12514: a1 06        	c.addi	a3, 0x8
   12516: 23 bc 07 ff  	sd	a6, -0x8(a5)
   1251a: e3 ea c7 fe  	bltu	a5, a2, 0x1250e <memcpy+0x32>
   1251e: 93 07 f6 ff  	addi	a5, a2, -0x1
   12522: 99 8f        	c.sub	a5, a4
   12524: e1 9b        	c.andi	a5, -0x8
   12526: a1 07        	c.addi	a5, 0x8
   12528: 3e 97        	c.add	a4, a5
   1252a: be 95        	c.add	a1, a5
   1252c: 63 66 17 01  	bltu	a4, a7, 0x12538 <memcpy+0x5c>
   12530: 82 80        	c.jr	ra
   12532: 2a 87        	c.mv	a4, a0
   12534: 63 7e 15 03  	bgeu	a0, a7, 0x12570 <memcpy+0x94>
   12538: 83 c7 05 00  	lbu	a5, 0x0(a1)
   1253c: 05 07        	c.addi	a4, 0x1
   1253e: 85 05        	c.addi	a1, 0x1
   12540: a3 0f f7 fe  	sb	a5, -0x1(a4)
   12544: e3 9a e8 fe  	bne	a7, a4, 0x12538 <memcpy+0x5c>
   12548: 82 80        	c.jr	ra
   1254a: 83 c6 05 00  	lbu	a3, 0x0(a1)
   1254e: 05 07        	c.addi	a4, 0x1
   12550: 93 77 77 00  	andi	a5, a4, 0x7
   12554: a3 0f d7 fe  	sb	a3, -0x1(a4)
   12558: 85 05        	c.addi	a1, 0x1
   1255a: d1 df        	c.beqz	a5, 0x124f6 <memcpy+0x1a>
   1255c: 83 c6 05 00  	lbu	a3, 0x0(a1)
   12560: 05 07        	c.addi	a4, 0x1
   12562: 93 77 77 00  	andi	a5, a4, 0x7
   12566: a3 0f d7 fe  	sb	a3, -0x1(a4)
   1256a: 85 05        	c.addi	a1, 0x1
   1256c: f9 ff        	c.bnez	a5, 0x1254a <memcpy+0x6e>
   1256e: 61 b7        	c.j	0x124f6 <memcpy+0x1a>
   12570: 82 80        	c.jr	ra
   12572: 41 11        	c.addi	sp, -0x10
   12574: 22 e4        	c.sdsp	s0, 0x8(sp)
   12576: 13 04 00 04  	addi	s0, zero, 0x40
   1257a: 83 b3 05 00  	ld	t2, 0x0(a1)
   1257e: 83 b2 85 00  	ld	t0, 0x8(a1)
   12582: 83 bf 05 01  	ld	t6, 0x10(a1)
   12586: 03 bf 85 01  	ld	t5, 0x18(a1)
   1258a: 83 be 05 02  	ld	t4, 0x20(a1)
   1258e: 03 be 85 02  	ld	t3, 0x28(a1)
   12592: 03 b3 05 03  	ld	t1, 0x30(a1)
   12596: 03 b8 85 03  	ld	a6, 0x38(a1)
   1259a: b4 61        	c.ld	a3, 0x40(a1)
   1259c: 13 07 87 04  	addi	a4, a4, 0x48
   125a0: b3 07 e6 40  	sub	a5, a2, a4
   125a4: 23 3c 77 fa  	sd	t2, -0x48(a4)
   125a8: 23 30 57 fc  	sd	t0, -0x40(a4)
   125ac: 23 34 f7 fd  	sd	t6, -0x38(a4)
   125b0: 23 38 e7 fd  	sd	t5, -0x30(a4)
   125b4: 23 3c d7 fd  	sd	t4, -0x28(a4)
   125b8: 23 30 c7 ff  	sd	t3, -0x20(a4)
   125bc: 23 34 67 fe  	sd	t1, -0x18(a4)
   125c0: 23 38 07 ff  	sd	a6, -0x10(a4)
   125c4: 23 3c d7 fe  	sd	a3, -0x8(a4)
   125c8: 93 85 85 04  	addi	a1, a1, 0x48
   125cc: e3 47 f4 fa  	blt	s0, a5, 0x1257a <memcpy+0x9e>
   125d0: ae 86        	c.mv	a3, a1
   125d2: ba 87        	c.mv	a5, a4
   125d4: 63 71 c7 02  	bgeu	a4, a2, 0x125f6 <memcpy+0x11a>
   125d8: 03 b8 06 00  	ld	a6, 0x0(a3)
   125dc: a1 07        	c.addi	a5, 0x8
   125de: a1 06        	c.addi	a3, 0x8
   125e0: 23 bc 07 ff  	sd	a6, -0x8(a5)
   125e4: e3 ea c7 fe  	bltu	a5, a2, 0x125d8 <memcpy+0xfc>
   125e8: 93 07 f6 ff  	addi	a5, a2, -0x1
   125ec: 99 8f        	c.sub	a5, a4
   125ee: e1 9b        	c.andi	a5, -0x8
   125f0: a1 07        	c.addi	a5, 0x8
   125f2: 3e 97        	c.add	a4, a5
   125f4: be 95        	c.add	a1, a5
   125f6: 63 65 17 01  	bltu	a4, a7, 0x12600 <memcpy+0x124>
   125fa: 22 64        	c.ldsp	s0, 0x8(sp)
   125fc: 41 01        	c.addi	sp, 0x10
   125fe: 82 80        	c.jr	ra
   12600: 83 c7 05 00  	lbu	a5, 0x0(a1)
   12604: 05 07        	c.addi	a4, 0x1
   12606: 85 05        	c.addi	a1, 0x1
   12608: a3 0f f7 fe  	sb	a5, -0x1(a4)
   1260c: e3 87 e8 fe  	beq	a7, a4, 0x125fa <memcpy+0x11e>
   12610: 83 c7 05 00  	lbu	a5, 0x0(a1)
   12614: 05 07        	c.addi	a4, 0x1
   12616: 85 05        	c.addi	a1, 0x1
   12618: a3 0f f7 fe  	sb	a5, -0x1(a4)
   1261c: e3 92 e8 fe  	bne	a7, a4, 0x12600 <memcpy+0x124>
   12620: e9 bf        	c.j	0x125fa <memcpy+0x11e>

0000000000012622 <strlen>:
   12622: 93 77 75 00  	andi	a5, a0, 0x7
   12626: 2a 87        	c.mv	a4, a0
   12628: b5 e3        	c.bnez	a5, 0x1268c <strlen+0x6a>
   1262a: b7 f6 ef 0f  	lui	a3, 0xfeff
   1262e: 92 06        	c.slli	a3, 0x4
   12630: 93 86 f6 ef  	addi	a3, a3, -0x101
   12634: c2 06        	c.slli	a3, 0x10
   12636: 93 86 f6 ef  	addi	a3, a3, -0x101
   1263a: be 06        	c.slli	a3, 0xf
   1263c: 93 86 f6 f7  	addi	a3, a3, -0x81
   12640: fd 55        	c.li	a1, -0x1
   12642: 10 63        	c.ld	a2, 0x0(a4)
   12644: 21 07        	c.addi	a4, 0x8
   12646: b3 77 d6 00  	and	a5, a2, a3
   1264a: b6 97        	c.add	a5, a3
   1264c: d1 8f        	c.or	a5, a2
   1264e: d5 8f        	c.or	a5, a3
   12650: e3 89 b7 fe  	beq	a5, a1, 0x12642 <strlen+0x20>
   12654: 83 46 87 ff  	lbu	a3, -0x8(a4)
   12658: b3 07 a7 40  	sub	a5, a4, a0
   1265c: a9 c6        	c.beqz	a3, 0x126a6 <strlen+0x84>
   1265e: 83 46 97 ff  	lbu	a3, -0x7(a4)
   12662: 9d ce        	c.beqz	a3, 0x126a0 <strlen+0x7e>
   12664: 83 46 a7 ff  	lbu	a3, -0x6(a4)
   12668: a9 c6        	c.beqz	a3, 0x126b2 <strlen+0x90>
   1266a: 83 46 b7 ff  	lbu	a3, -0x5(a4)
   1266e: 9d ce        	c.beqz	a3, 0x126ac <strlen+0x8a>
   12670: 83 46 c7 ff  	lbu	a3, -0x4(a4)
   12674: b1 c2        	c.beqz	a3, 0x126b8 <strlen+0x96>
   12676: 83 46 d7 ff  	lbu	a3, -0x3(a4)
   1267a: b1 c2        	c.beqz	a3, 0x126be <strlen+0x9c>
   1267c: 03 45 e7 ff  	lbu	a0, -0x2(a4)
   12680: 33 35 a0 00  	sltu	a0, zero, a0
   12684: 3e 95        	c.add	a0, a5
   12686: 79 15        	c.addi	a0, -0x2
   12688: 82 80        	c.jr	ra
   1268a: c5 d2        	c.beqz	a3, 0x1262a <strlen+0x8>
   1268c: 83 47 07 00  	lbu	a5, 0x0(a4)
   12690: 05 07        	c.addi	a4, 0x1
   12692: 93 76 77 00  	andi	a3, a4, 0x7
   12696: f5 fb        	c.bnez	a5, 0x1268a <strlen+0x68>
   12698: 09 8f        	c.sub	a4, a0
   1269a: 13 05 f7 ff  	addi	a0, a4, -0x1
   1269e: 82 80        	c.jr	ra
   126a0: 13 85 97 ff  	addi	a0, a5, -0x7
   126a4: 82 80        	c.jr	ra
   126a6: 13 85 87 ff  	addi	a0, a5, -0x8
   126aa: 82 80        	c.jr	ra
   126ac: 13 85 b7 ff  	addi	a0, a5, -0x5
   126b0: 82 80        	c.jr	ra
   126b2: 13 85 a7 ff  	addi	a0, a5, -0x6
   126b6: 82 80        	c.jr	ra
   126b8: 13 85 c7 ff  	addi	a0, a5, -0x4
   126bc: 82 80        	c.jr	ra
   126be: 13 85 d7 ff  	addi	a0, a5, -0x3
   126c2: 82 80        	c.jr	ra

00000000000126c4 <__call_exitprocs>:
   126c4: 5d 71        	c.addi16sp	sp, -0x50
   126c6: 52 f0        	c.sdsp	s4, 0x20(sp)
   126c8: 4a f8        	c.sdsp	s2, 0x30(sp)
   126ca: 03 b9 01 1b  	ld	s2, 0x1b0(gp)
   126ce: 86 e4        	c.sdsp	ra, 0x48(sp)
   126d0: 63 0d 09 06  	beq	s2, zero, 0x1274a <__call_exitprocs+0x86>
   126d4: 4e f4        	c.sdsp	s3, 0x28(sp)
   126d6: 56 ec        	c.sdsp	s5, 0x18(sp)
   126d8: 5a e8        	c.sdsp	s6, 0x10(sp)
   126da: 5e e4        	c.sdsp	s7, 0x8(sp)
   126dc: a2 e0        	c.sdsp	s0, 0x40(sp)
   126de: 26 fc        	c.sdsp	s1, 0x38(sp)
   126e0: 62 e0        	c.sdsp	s8, 0x0(sp)
   126e2: 2a 8b        	c.mv	s6, a0
   126e4: ae 8b        	c.mv	s7, a1
   126e6: fd 59        	c.li	s3, -0x1
   126e8: 85 4a        	c.li	s5, 0x1
   126ea: 83 24 89 00  	lw	s1, 0x8(s2)
   126ee: 1b 84 f4 ff  	addiw	s0, s1, -0x1
   126f2: 63 45 04 04  	blt	s0, zero, 0x1273c <__call_exitprocs+0x78>
   126f6: 8e 04        	c.slli	s1, 0x3
   126f8: ca 94        	c.add	s1, s2
   126fa: 63 9d 0b 04  	bne	s7, zero, 0x12754 <__call_exitprocs+0x90>
   126fe: 83 27 89 00  	lw	a5, 0x8(s2)
   12702: 98 64        	c.ld	a4, 0x8(s1)
   12704: fd 37        	c.addiw	a5, -0x1
   12706: 63 82 87 08  	beq	a5, s0, 0x1278a <__call_exitprocs+0xc6>
   1270a: 23 b4 04 00  	sd	zero, 0x8(s1)
   1270e: 1d c3        	c.beqz	a4, 0x12734 <__call_exitprocs+0x70>
   12710: 83 27 09 31  	lw	a5, 0x310(s2)
   12714: bb 96 8a 00  	sllw	a3, s5, s0
   12718: 03 2c 89 00  	lw	s8, 0x8(s2)
   1271c: f5 8f        	c.and	a5, a3
   1271e: 81 27        	c.addiw	a5, 0x0
   12720: b9 e3        	c.bnez	a5, 0x12766 <__call_exitprocs+0xa2>
   12722: 02 97        	c.jalr	a4
   12724: 03 27 89 00  	lw	a4, 0x8(s2)
   12728: 83 b7 01 1b  	ld	a5, 0x1b0(gp)
   1272c: 63 1c 87 05  	bne	a4, s8, 0x12784 <__call_exitprocs+0xc0>
   12730: 63 9a 27 05  	bne	a5, s2, 0x12784 <__call_exitprocs+0xc0>
   12734: 7d 34        	c.addiw	s0, -0x1
   12736: e1 14        	c.addi	s1, -0x8
   12738: e3 11 34 fd  	bne	s0, s3, 0x126fa <__call_exitprocs+0x36>
   1273c: 06 64        	c.ldsp	s0, 0x40(sp)
   1273e: e2 74        	c.ldsp	s1, 0x38(sp)
   12740: a2 79        	c.ldsp	s3, 0x28(sp)
   12742: e2 6a        	c.ldsp	s5, 0x18(sp)
   12744: 42 6b        	c.ldsp	s6, 0x10(sp)
   12746: a2 6b        	c.ldsp	s7, 0x8(sp)
   12748: 02 6c        	c.ldsp	s8, 0x0(sp)
   1274a: a6 60        	c.ldsp	ra, 0x48(sp)
   1274c: 42 79        	c.ldsp	s2, 0x30(sp)
   1274e: 02 7a        	c.ldsp	s4, 0x20(sp)
   12750: 61 61        	c.addi16sp	sp, 0x50
   12752: 82 80        	c.jr	ra
   12754: 83 b7 84 20  	ld	a5, 0x208(s1)
   12758: e3 83 77 fb  	beq	a5, s7, 0x126fe <__call_exitprocs+0x3a>
   1275c: 7d 34        	c.addiw	s0, -0x1
   1275e: e1 14        	c.addi	s1, -0x8
   12760: e3 1a 34 ff  	bne	s0, s3, 0x12754 <__call_exitprocs+0x90>
   12764: e1 bf        	c.j	0x1273c <__call_exitprocs+0x78>
   12766: 83 27 49 31  	lw	a5, 0x314(s2)
   1276a: 83 b5 84 10  	ld	a1, 0x108(s1)
   1276e: f5 8f        	c.and	a5, a3
   12770: 81 27        	c.addiw	a5, 0x0
   12772: 99 ef        	c.bnez	a5, 0x12790 <__call_exitprocs+0xcc>
   12774: 5a 85        	c.mv	a0, s6
   12776: 02 97        	c.jalr	a4
   12778: 03 27 89 00  	lw	a4, 0x8(s2)
   1277c: 83 b7 01 1b  	ld	a5, 0x1b0(gp)
   12780: e3 08 87 fb  	beq	a4, s8, 0x12730 <__call_exitprocs+0x6c>
   12784: c5 df        	c.beqz	a5, 0x1273c <__call_exitprocs+0x78>
   12786: 3e 89        	c.mv	s2, a5
   12788: 8d b7        	c.j	0x126ea <__call_exitprocs+0x26>
   1278a: 23 24 89 00  	sw	s0, 0x8(s2)
   1278e: 41 b7        	c.j	0x1270e <__call_exitprocs+0x4a>
   12790: 2e 85        	c.mv	a0, a1
   12792: 02 97        	c.jalr	a4
   12794: 41 bf        	c.j	0x12724 <__call_exitprocs+0x60>

0000000000012796 <atexit>:
   12796: aa 85        	c.mv	a1, a0
   12798: 81 46        	c.li	a3, 0x0
   1279a: 01 46        	c.li	a2, 0x0
   1279c: 01 45        	c.li	a0, 0x0
   1279e: 6f 10 20 50  	jal	zero, 0x13ca0 <__register_exitproc>

00000000000127a2 <_malloc_trim_r>:
   127a2: 79 71        	c.addi16sp	sp, -0x30
   127a4: 4e e4        	c.sdsp	s3, 0x8(sp)
   127a6: e1 69        	c.lui	s3, 0x18
   127a8: 22 f0        	c.sdsp	s0, 0x20(sp)
   127aa: 26 ec        	c.sdsp	s1, 0x18(sp)
   127ac: 4a e8        	c.sdsp	s2, 0x10(sp)
   127ae: 52 e0        	c.sdsp	s4, 0x0(sp)
   127b0: 06 f4        	c.sdsp	ra, 0x28(sp)
   127b2: 2e 8a        	c.mv	s4, a1
   127b4: 2a 89        	c.mv	s2, a0
   127b6: 93 89 89 8f  	addi	s3, s3, -0x708
   127ba: ef 00 d0 0f  	jal	ra, 0x130b6 <__malloc_lock>
   127be: 03 b7 09 01  	ld	a4, 0x10(s3)
   127c2: 85 67        	c.lui	a5, 0x1
   127c4: 93 87 f7 fd  	addi	a5, a5, -0x21
   127c8: 04 67        	c.ld	s1, 0x8(a4)
   127ca: 05 67        	c.lui	a4, 0x1
   127cc: f1 98        	c.andi	s1, -0x4
   127ce: 33 84 f4 00  	add	s0, s1, a5
   127d2: 33 04 44 41  	sub	s0, s0, s4
   127d6: 31 80        	c.srli	s0, 0xc
   127d8: 7d 14        	c.addi	s0, -0x1
   127da: 32 04        	c.slli	s0, 0xc
   127dc: 63 4b e4 00  	blt	s0, a4, 0x127f2 <_malloc_trim_r+0x50>
   127e0: 81 45        	c.li	a1, 0x0
   127e2: 4a 85        	c.mv	a0, s2
   127e4: ef 10 00 38  	jal	ra, 0x13b64 <_sbrk_r>
   127e8: 83 b7 09 01  	ld	a5, 0x10(s3)
   127ec: a6 97        	c.add	a5, s1
   127ee: 63 0e f5 00  	beq	a0, a5, 0x1280a <_malloc_trim_r+0x68>
   127f2: 4a 85        	c.mv	a0, s2
   127f4: ef 00 50 0c  	jal	ra, 0x130b8 <__malloc_unlock>
   127f8: a2 70        	c.ldsp	ra, 0x28(sp)
   127fa: 02 74        	c.ldsp	s0, 0x20(sp)
   127fc: e2 64        	c.ldsp	s1, 0x18(sp)
   127fe: 42 69        	c.ldsp	s2, 0x10(sp)
   12800: a2 69        	c.ldsp	s3, 0x8(sp)
   12802: 02 6a        	c.ldsp	s4, 0x0(sp)
   12804: 01 45        	c.li	a0, 0x0
   12806: 45 61        	c.addi16sp	sp, 0x30
   12808: 82 80        	c.jr	ra
   1280a: b3 05 80 40  	sub	a1, zero, s0
   1280e: 4a 85        	c.mv	a0, s2
   12810: ef 10 40 35  	jal	ra, 0x13b64 <_sbrk_r>
   12814: fd 57        	c.li	a5, -0x1
   12816: 63 09 f5 02  	beq	a0, a5, 0x12848 <_malloc_trim_r+0xa6>
   1281a: 93 87 01 42  	addi	a5, gp, 0x420
   1281e: 98 43        	c.lw	a4, 0x0(a5)
   12820: 83 b6 09 01  	ld	a3, 0x10(s3)
   12824: 81 8c        	c.sub	s1, s0
   12826: 93 e4 14 00  	ori	s1, s1, 0x1
   1282a: 01 9f        	c.subw	a4, s0
   1282c: 4a 85        	c.mv	a0, s2
   1282e: 84 e6        	c.sd	s1, 0x8(a3)
   12830: 98 c3        	c.sw	a4, 0x0(a5)
   12832: ef 00 70 08  	jal	ra, 0x130b8 <__malloc_unlock>
   12836: a2 70        	c.ldsp	ra, 0x28(sp)
   12838: 02 74        	c.ldsp	s0, 0x20(sp)
   1283a: e2 64        	c.ldsp	s1, 0x18(sp)
   1283c: 42 69        	c.ldsp	s2, 0x10(sp)
   1283e: a2 69        	c.ldsp	s3, 0x8(sp)
   12840: 02 6a        	c.ldsp	s4, 0x0(sp)
   12842: 05 45        	c.li	a0, 0x1
   12844: 45 61        	c.addi16sp	sp, 0x30
   12846: 82 80        	c.jr	ra
   12848: 81 45        	c.li	a1, 0x0
   1284a: 4a 85        	c.mv	a0, s2
   1284c: ef 10 80 31  	jal	ra, 0x13b64 <_sbrk_r>
   12850: 03 b7 09 01  	ld	a4, 0x10(s3)
   12854: fd 46        	c.li	a3, 0x1f
   12856: b3 07 e5 40  	sub	a5, a0, a4
   1285a: e3 dc f6 f8  	bge	a3, a5, 0x127f2 <_malloc_trim_r+0x50>
   1285e: 83 b6 01 19  	ld	a3, 0x190(gp)
   12862: 93 e7 17 00  	ori	a5, a5, 0x1
   12866: 1c e7        	c.sd	a5, 0x8(a4)
   12868: 15 8d        	c.sub	a0, a3
   1286a: 23 a0 a1 42  	sw	a0, 0x420(gp)
   1286e: 51 b7        	c.j	0x127f2 <_malloc_trim_r+0x50>

0000000000012870 <_free_r>:
   12870: 63 81 05 12  	beq	a1, zero, 0x12992 <_free_r+0x122>
   12874: 01 11        	c.addi	sp, -0x20
   12876: 22 e8        	c.sdsp	s0, 0x10(sp)
   12878: 26 e4        	c.sdsp	s1, 0x8(sp)
   1287a: 2e 84        	c.mv	s0, a1
   1287c: aa 84        	c.mv	s1, a0
   1287e: 06 ec        	c.sdsp	ra, 0x18(sp)
   12880: ef 00 70 03  	jal	ra, 0x130b6 <__malloc_lock>
   12884: 03 35 84 ff  	ld	a0, -0x8(s0)
   12888: 13 07 04 ff  	addi	a4, s0, -0x10
   1288c: e1 65        	c.lui	a1, 0x18
   1288e: 93 77 e5 ff  	andi	a5, a0, -0x2
   12892: 33 06 f7 00  	add	a2, a4, a5
   12896: 93 85 85 8f  	addi	a1, a1, -0x708
   1289a: 14 66        	c.ld	a3, 0x8(a2)
   1289c: 03 b8 05 01  	ld	a6, 0x10(a1)
   128a0: f1 9a        	c.andi	a3, -0x4
   128a2: 63 0a c8 12  	beq	a6, a2, 0x129d6 <_free_r+0x166>
   128a6: 14 e6        	c.sd	a3, 0x8(a2)
   128a8: 05 89        	c.andi	a0, 0x1
   128aa: 33 08 d6 00  	add	a6, a2, a3
   128ae: 3d ed        	c.bnez	a0, 0x1292c <_free_r+0xbc>
   128b0: 03 33 04 ff  	ld	t1, -0x10(s0)
   128b4: 03 38 88 00  	ld	a6, 0x8(a6)
   128b8: 61 65        	c.lui	a0, 0x18
   128ba: 33 07 67 40  	sub	a4, a4, t1
   128be: 83 38 07 01  	ld	a7, 0x10(a4)
   128c2: 13 05 85 90  	addi	a0, a0, -0x6f8
   128c6: 9a 97        	c.add	a5, t1
   128c8: 13 78 18 00  	andi	a6, a6, 0x1
   128cc: 63 88 a8 0e  	beq	a7, a0, 0x129bc <_free_r+0x14c>
   128d0: 03 33 87 01  	ld	t1, 0x18(a4)
   128d4: 23 bc 68 00  	sd	t1, 0x18(a7)
   128d8: 23 38 13 01  	sd	a7, 0x10(t1)
   128dc: 63 06 08 12  	beq	a6, zero, 0x12a08 <_free_r+0x198>
   128e0: 93 e6 17 00  	ori	a3, a5, 0x1
   128e4: 14 e7        	c.sd	a3, 0x8(a4)
   128e6: 1c e2        	c.sd	a5, 0x0(a2)
   128e8: 93 06 f0 1f  	addi	a3, zero, 0x1ff
   128ec: 63 ed f6 04  	bltu	a3, a5, 0x12946 <_free_r+0xd6>
   128f0: 8d 83        	c.srli	a5, 0x3
   128f2: 9b 86 17 00  	addiw	a3, a5, 0x1
   128f6: 9b 96 16 00  	slliw	a3, a3, 0x1
   128fa: 8e 06        	c.slli	a3, 0x3
   128fc: 03 b8 85 00  	ld	a6, 0x8(a1)
   12900: ae 96        	c.add	a3, a1
   12902: 88 62        	c.ld	a0, 0x0(a3)
   12904: 1b d6 27 40  	sraiw	a2, a5, 0x2
   12908: 85 47        	c.li	a5, 0x1
   1290a: b3 97 c7 00  	sll	a5, a5, a2
   1290e: b3 e7 07 01  	or	a5, a5, a6
   12912: 13 86 06 ff  	addi	a2, a3, -0x10
   12916: 10 ef        	c.sd	a2, 0x18(a4)
   12918: 08 eb        	c.sd	a0, 0x10(a4)
   1291a: 9c e5        	c.sd	a5, 0x8(a1)
   1291c: 98 e2        	c.sd	a4, 0x0(a3)
   1291e: 18 ed        	c.sd	a4, 0x18(a0)
   12920: 42 64        	c.ldsp	s0, 0x10(sp)
   12922: e2 60        	c.ldsp	ra, 0x18(sp)
   12924: 26 85        	c.mv	a0, s1
   12926: a2 64        	c.ldsp	s1, 0x8(sp)
   12928: 05 61        	c.addi16sp	sp, 0x20
   1292a: 79 a7        	c.j	0x130b8 <__malloc_unlock>
   1292c: 03 35 88 00  	ld	a0, 0x8(a6)
   12930: 05 89        	c.andi	a0, 0x1
   12932: 2d c1        	c.beqz	a0, 0x12994 <_free_r+0x124>
   12934: 93 e6 17 00  	ori	a3, a5, 0x1
   12938: 23 3c d4 fe  	sd	a3, -0x8(s0)
   1293c: 1c e2        	c.sd	a5, 0x0(a2)
   1293e: 93 06 f0 1f  	addi	a3, zero, 0x1ff
   12942: e3 f7 f6 fa  	bgeu	a3, a5, 0x128f0 <_free_r+0x80>
   12946: 93 d6 97 00  	srli	a3, a5, 0x9
   1294a: 11 46        	c.li	a2, 0x4
   1294c: 63 60 d6 0c  	bltu	a2, a3, 0x12a0c <_free_r+0x19c>
   12950: 93 d6 67 00  	srli	a3, a5, 0x6
   12954: 1b 85 96 03  	addiw	a0, a3, 0x39
   12958: 1b 15 15 00  	slliw	a0, a0, 0x1
   1295c: 1b 86 86 03  	addiw	a2, a3, 0x38
   12960: 0e 05        	c.slli	a0, 0x3
   12962: 2e 95        	c.add	a0, a1
   12964: 14 61        	c.ld	a3, 0x0(a0)
   12966: 41 15        	c.addi	a0, -0x10
   12968: 63 16 d5 00  	bne	a0, a3, 0x12974 <_free_r+0x104>
   1296c: dd a0        	c.j	0x12a52 <_free_r+0x1e2>
   1296e: 94 6a        	c.ld	a3, 0x10(a3)
   12970: 63 06 d5 00  	beq	a0, a3, 0x1297c <_free_r+0x10c>
   12974: 90 66        	c.ld	a2, 0x8(a3)
   12976: 71 9a        	c.andi	a2, -0x4
   12978: e3 eb c7 fe  	bltu	a5, a2, 0x1296e <_free_r+0xfe>
   1297c: 88 6e        	c.ld	a0, 0x18(a3)
   1297e: 08 ef        	c.sd	a0, 0x18(a4)
   12980: 14 eb        	c.sd	a3, 0x10(a4)
   12982: 42 64        	c.ldsp	s0, 0x10(sp)
   12984: 18 e9        	c.sd	a4, 0x10(a0)
   12986: e2 60        	c.ldsp	ra, 0x18(sp)
   12988: 26 85        	c.mv	a0, s1
   1298a: a2 64        	c.ldsp	s1, 0x8(sp)
   1298c: 98 ee        	c.sd	a4, 0x18(a3)
   1298e: 05 61        	c.addi16sp	sp, 0x20
   12990: 25 a7        	c.j	0x130b8 <__malloc_unlock>
   12992: 82 80        	c.jr	ra
   12994: 61 65        	c.lui	a0, 0x18
   12996: b6 97        	c.add	a5, a3
   12998: 13 05 85 90  	addi	a0, a0, -0x6f8
   1299c: 14 6a        	c.ld	a3, 0x10(a2)
   1299e: 63 80 a6 0a  	beq	a3, a0, 0x12a3e <_free_r+0x1ce>
   129a2: 03 38 86 01  	ld	a6, 0x18(a2)
   129a6: 13 e5 17 00  	ori	a0, a5, 0x1
   129aa: 33 06 f7 00  	add	a2, a4, a5
   129ae: 23 bc 06 01  	sd	a6, 0x18(a3)
   129b2: 23 38 d8 00  	sd	a3, 0x10(a6)
   129b6: 08 e7        	c.sd	a0, 0x8(a4)
   129b8: 1c e2        	c.sd	a5, 0x0(a2)
   129ba: 3d b7        	c.j	0x128e8 <_free_r+0x78>
   129bc: 63 17 08 0e  	bne	a6, zero, 0x12aaa <_free_r+0x23a>
   129c0: 0c 6a        	c.ld	a1, 0x10(a2)
   129c2: 10 6e        	c.ld	a2, 0x18(a2)
   129c4: be 96        	c.add	a3, a5
   129c6: 93 e7 16 00  	ori	a5, a3, 0x1
   129ca: 90 ed        	c.sd	a2, 0x18(a1)
   129cc: 0c ea        	c.sd	a1, 0x10(a2)
   129ce: 1c e7        	c.sd	a5, 0x8(a4)
   129d0: 36 97        	c.add	a4, a3
   129d2: 14 e3        	c.sd	a3, 0x0(a4)
   129d4: b1 b7        	c.j	0x12920 <_free_r+0xb0>
   129d6: 05 89        	c.andi	a0, 0x1
   129d8: be 96        	c.add	a3, a5
   129da: 09 e9        	c.bnez	a0, 0x129ec <_free_r+0x17c>
   129dc: 03 35 04 ff  	ld	a0, -0x10(s0)
   129e0: 09 8f        	c.sub	a4, a0
   129e2: 1c 6f        	c.ld	a5, 0x18(a4)
   129e4: 10 6b        	c.ld	a2, 0x10(a4)
   129e6: aa 96        	c.add	a3, a0
   129e8: 1c ee        	c.sd	a5, 0x18(a2)
   129ea: 90 eb        	c.sd	a2, 0x10(a5)
   129ec: 13 e6 16 00  	ori	a2, a3, 0x1
   129f0: 83 b7 81 19  	ld	a5, 0x198(gp)
   129f4: 10 e7        	c.sd	a2, 0x8(a4)
   129f6: 98 e9        	c.sd	a4, 0x10(a1)
   129f8: e3 e4 f6 f2  	bltu	a3, a5, 0x12920 <_free_r+0xb0>
   129fc: 83 b5 81 1c  	ld	a1, 0x1c8(gp)
   12a00: 26 85        	c.mv	a0, s1
   12a02: ef f0 1f da  	jal	ra, 0x127a2 <_malloc_trim_r>
   12a06: 29 bf        	c.j	0x12920 <_free_r+0xb0>
   12a08: b6 97        	c.add	a5, a3
   12a0a: 49 bf        	c.j	0x1299c <_free_r+0x12c>
   12a0c: 51 46        	c.li	a2, 0x14
   12a0e: 63 70 d6 02  	bgeu	a2, a3, 0x12a2e <_free_r+0x1be>
   12a12: 13 06 40 05  	addi	a2, zero, 0x54
   12a16: 63 69 d6 04  	bltu	a2, a3, 0x12a68 <_free_r+0x1f8>
   12a1a: 93 d6 c7 00  	srli	a3, a5, 0xc
   12a1e: 1b 85 f6 06  	addiw	a0, a3, 0x6f
   12a22: 1b 15 15 00  	slliw	a0, a0, 0x1
   12a26: 1b 86 e6 06  	addiw	a2, a3, 0x6e
   12a2a: 0e 05        	c.slli	a0, 0x3
   12a2c: 1d bf        	c.j	0x12962 <_free_r+0xf2>
   12a2e: 1b 85 c6 05  	addiw	a0, a3, 0x5c
   12a32: 1b 15 15 00  	slliw	a0, a0, 0x1
   12a36: 1b 86 b6 05  	addiw	a2, a3, 0x5b
   12a3a: 0e 05        	c.slli	a0, 0x3
   12a3c: 1d b7        	c.j	0x12962 <_free_r+0xf2>
   12a3e: 98 f5        	c.sd	a4, 0x28(a1)
   12a40: 98 f1        	c.sd	a4, 0x20(a1)
   12a42: 93 e6 17 00  	ori	a3, a5, 0x1
   12a46: 08 ef        	c.sd	a0, 0x18(a4)
   12a48: 08 eb        	c.sd	a0, 0x10(a4)
   12a4a: 14 e7        	c.sd	a3, 0x8(a4)
   12a4c: 3e 97        	c.add	a4, a5
   12a4e: 1c e3        	c.sd	a5, 0x0(a4)
   12a50: c1 bd        	c.j	0x12920 <_free_r+0xb0>
   12a52: 03 b8 85 00  	ld	a6, 0x8(a1)
   12a56: 1b 56 26 40  	sraiw	a2, a2, 0x2
   12a5a: 85 47        	c.li	a5, 0x1
   12a5c: b3 97 c7 00  	sll	a5, a5, a2
   12a60: b3 e7 07 01  	or	a5, a5, a6
   12a64: 9c e5        	c.sd	a5, 0x8(a1)
   12a66: 21 bf        	c.j	0x1297e <_free_r+0x10e>
   12a68: 13 06 40 15  	addi	a2, zero, 0x154
   12a6c: 63 6c d6 00  	bltu	a2, a3, 0x12a84 <_free_r+0x214>
   12a70: 93 d6 f7 00  	srli	a3, a5, 0xf
   12a74: 1b 85 86 07  	addiw	a0, a3, 0x78
   12a78: 1b 15 15 00  	slliw	a0, a0, 0x1
   12a7c: 1b 86 76 07  	addiw	a2, a3, 0x77
   12a80: 0e 05        	c.slli	a0, 0x3
   12a82: c5 b5        	c.j	0x12962 <_free_r+0xf2>
   12a84: 13 06 40 55  	addi	a2, zero, 0x554
   12a88: 63 6c d6 00  	bltu	a2, a3, 0x12aa0 <_free_r+0x230>
   12a8c: 93 d6 27 01  	srli	a3, a5, 0x12
   12a90: 1b 85 d6 07  	addiw	a0, a3, 0x7d
   12a94: 1b 15 15 00  	slliw	a0, a0, 0x1
   12a98: 1b 86 c6 07  	addiw	a2, a3, 0x7c
   12a9c: 0e 05        	c.slli	a0, 0x3
   12a9e: d1 b5        	c.j	0x12962 <_free_r+0xf2>
   12aa0: 13 05 00 7f  	addi	a0, zero, 0x7f0
   12aa4: 13 06 e0 07  	addi	a2, zero, 0x7e
   12aa8: 6d bd        	c.j	0x12962 <_free_r+0xf2>
   12aaa: 93 e6 17 00  	ori	a3, a5, 0x1
   12aae: 14 e7        	c.sd	a3, 0x8(a4)
   12ab0: 1c e2        	c.sd	a5, 0x0(a2)
   12ab2: bd b5        	c.j	0x12920 <_free_r+0xb0>

0000000000012ab4 <_malloc_r>:
   12ab4: 1d 71        	c.addi16sp	sp, -0x60
   12ab6: a6 e4        	c.sdsp	s1, 0x48(sp)
   12ab8: ca e0        	c.sdsp	s2, 0x40(sp)
   12aba: 86 ec        	c.sdsp	ra, 0x58(sp)
   12abc: a2 e8        	c.sdsp	s0, 0x50(sp)
   12abe: 4e fc        	c.sdsp	s3, 0x38(sp)
   12ac0: 93 84 75 01  	addi	s1, a1, 0x17
   12ac4: 93 07 e0 02  	addi	a5, zero, 0x2e
   12ac8: 2a 89        	c.mv	s2, a0
   12aca: 63 ed 97 04  	bltu	a5, s1, 0x12b24 <_malloc_r+0x70>
   12ace: 93 07 00 02  	addi	a5, zero, 0x20
   12ad2: 63 e9 b7 18  	bltu	a5, a1, 0x12c64 <_malloc_r+0x1b0>
   12ad6: ef 00 00 5e  	jal	ra, 0x130b6 <__malloc_lock>
   12ada: 93 07 00 05  	addi	a5, zero, 0x50
   12ade: 91 45        	c.li	a1, 0x4
   12ae0: 93 04 00 02  	addi	s1, zero, 0x20
   12ae4: e1 69        	c.lui	s3, 0x18
   12ae6: 93 89 89 8f  	addi	s3, s3, -0x708
   12aea: ce 97        	c.add	a5, s3
   12aec: 80 67        	c.ld	s0, 0x8(a5)
   12aee: 13 87 07 ff  	addi	a4, a5, -0x10
   12af2: 63 0d e4 26  	beq	s0, a4, 0x12d6c <_malloc_r+0x2b8>
   12af6: 1c 64        	c.ld	a5, 0x8(s0)
   12af8: 14 6c        	c.ld	a3, 0x18(s0)
   12afa: 10 68        	c.ld	a2, 0x10(s0)
   12afc: f1 9b        	c.andi	a5, -0x4
   12afe: a2 97        	c.add	a5, s0
   12b00: 98 67        	c.ld	a4, 0x8(a5)
   12b02: 14 ee        	c.sd	a3, 0x18(a2)
   12b04: 90 ea        	c.sd	a2, 0x10(a3)
   12b06: 13 67 17 00  	ori	a4, a4, 0x1
   12b0a: 4a 85        	c.mv	a0, s2
   12b0c: 98 e7        	c.sd	a4, 0x8(a5)
   12b0e: ef 00 a0 5a  	jal	ra, 0x130b8 <__malloc_unlock>
   12b12: 13 05 04 01  	addi	a0, s0, 0x10
   12b16: e6 60        	c.ldsp	ra, 0x58(sp)
   12b18: 46 64        	c.ldsp	s0, 0x50(sp)
   12b1a: a6 64        	c.ldsp	s1, 0x48(sp)
   12b1c: 06 69        	c.ldsp	s2, 0x40(sp)
   12b1e: e2 79        	c.ldsp	s3, 0x38(sp)
   12b20: 25 61        	c.addi16sp	sp, 0x60
   12b22: 82 80        	c.jr	ra
   12b24: b7 07 00 80  	lui	a5, 0x80000
   12b28: c1 98        	c.andi	s1, -0x10
   12b2a: 93 c7 f7 ff  	xori	a5, a5, -0x1
   12b2e: 63 eb 97 12  	bltu	a5, s1, 0x12c64 <_malloc_r+0x1b0>
   12b32: 63 e9 b4 12  	bltu	s1, a1, 0x12c64 <_malloc_r+0x1b0>
   12b36: ef 00 00 58  	jal	ra, 0x130b6 <__malloc_lock>
   12b3a: 93 07 70 1f  	addi	a5, zero, 0x1f7
   12b3e: 63 f2 97 32  	bgeu	a5, s1, 0x12e62 <_malloc_r+0x3ae>
   12b42: 93 d7 94 00  	srli	a5, s1, 0x9
   12b46: 63 84 07 12  	beq	a5, zero, 0x12c6e <_malloc_r+0x1ba>
   12b4a: 11 47        	c.li	a4, 0x4
   12b4c: 63 67 f7 26  	bltu	a4, a5, 0x12dba <_malloc_r+0x306>
   12b50: 93 d7 64 00  	srli	a5, s1, 0x6
   12b54: 9b 85 97 03  	addiw	a1, a5, 0x39
   12b58: 1b 96 15 00  	slliw	a2, a1, 0x1
   12b5c: 1b 88 87 03  	addiw	a6, a5, 0x38
   12b60: 0e 06        	c.slli	a2, 0x3
   12b62: e1 69        	c.lui	s3, 0x18
   12b64: 93 89 89 8f  	addi	s3, s3, -0x708
   12b68: 4e 96        	c.add	a2, s3
   12b6a: 00 66        	c.ld	s0, 0x8(a2)
   12b6c: 41 16        	c.addi	a2, -0x10
   12b6e: 63 01 86 02  	beq	a2, s0, 0x12b90 <_malloc_r+0xdc>
   12b72: 7d 45        	c.li	a0, 0x1f
   12b74: 39 a0        	c.j	0x12b82 <_malloc_r+0xce>
   12b76: 14 6c        	c.ld	a3, 0x18(s0)
   12b78: 63 58 07 1e  	bge	a4, zero, 0x12d68 <_malloc_r+0x2b4>
   12b7c: 63 0a d6 00  	beq	a2, a3, 0x12b90 <_malloc_r+0xdc>
   12b80: 36 84        	c.mv	s0, a3
   12b82: 1c 64        	c.ld	a5, 0x8(s0)
   12b84: f1 9b        	c.andi	a5, -0x4
   12b86: 33 87 97 40  	sub	a4, a5, s1
   12b8a: e3 56 e5 fe  	bge	a0, a4, 0x12b76 <_malloc_r+0xc2>
   12b8e: c2 85        	c.mv	a1, a6
   12b90: 03 b4 09 02  	ld	s0, 0x20(s3)
   12b94: 61 68        	c.lui	a6, 0x18
   12b96: 13 08 88 90  	addi	a6, a6, -0x6f8
   12b9a: 63 04 04 1d  	beq	s0, a6, 0x12d62 <_malloc_r+0x2ae>
   12b9e: 1c 64        	c.ld	a5, 0x8(s0)
   12ba0: fd 46        	c.li	a3, 0x1f
   12ba2: f1 9b        	c.andi	a5, -0x4
   12ba4: 33 87 97 40  	sub	a4, a5, s1
   12ba8: 63 c6 e6 28  	blt	a3, a4, 0x12e34 <_malloc_r+0x380>
   12bac: 23 b4 09 03  	sd	a6, 0x28(s3)
   12bb0: 23 b0 09 03  	sd	a6, 0x20(s3)
   12bb4: 63 55 07 26  	bge	a4, zero, 0x12e1e <_malloc_r+0x36a>
   12bb8: 13 07 f0 1f  	addi	a4, zero, 0x1ff
   12bbc: 03 b5 89 00  	ld	a0, 0x8(s3)
   12bc0: 63 6b f7 1a  	bltu	a4, a5, 0x12d76 <_malloc_r+0x2c2>
   12bc4: 8d 83        	c.srli	a5, 0x3
   12bc6: 1b 87 17 00  	addiw	a4, a5, 0x1
   12bca: 1b 17 17 00  	slliw	a4, a4, 0x1
   12bce: 0e 07        	c.slli	a4, 0x3
   12bd0: 4e 97        	c.add	a4, s3
   12bd2: 10 63        	c.ld	a2, 0x0(a4)
   12bd4: 9b d7 27 40  	sraiw	a5, a5, 0x2
   12bd8: 85 46        	c.li	a3, 0x1
   12bda: b3 97 f6 00  	sll	a5, a3, a5
   12bde: 5d 8d        	c.or	a0, a5
   12be0: 93 07 07 ff  	addi	a5, a4, -0x10
   12be4: 1c ec        	c.sd	a5, 0x18(s0)
   12be6: 10 e8        	c.sd	a2, 0x10(s0)
   12be8: 23 b4 a9 00  	sd	a0, 0x8(s3)
   12bec: 00 e3        	c.sd	s0, 0x0(a4)
   12bee: 00 ee        	c.sd	s0, 0x18(a2)
   12bf0: 9b d7 25 40  	sraiw	a5, a1, 0x2
   12bf4: 05 46        	c.li	a2, 0x1
   12bf6: 33 16 f6 00  	sll	a2, a2, a5
   12bfa: 63 61 c5 08  	bltu	a0, a2, 0x12c7c <_malloc_r+0x1c8>
   12bfe: b3 77 a6 00  	and	a5, a2, a0
   12c02: 81 ef        	c.bnez	a5, 0x12c1a <_malloc_r+0x166>
   12c04: 06 06        	c.slli	a2, 0x1
   12c06: f1 99        	c.andi	a1, -0x4
   12c08: b3 77 a6 00  	and	a5, a2, a0
   12c0c: 91 25        	c.addiw	a1, 0x4
   12c0e: 91 e7        	c.bnez	a5, 0x12c1a <_malloc_r+0x166>
   12c10: 06 06        	c.slli	a2, 0x1
   12c12: b3 77 a6 00  	and	a5, a2, a0
   12c16: 91 25        	c.addiw	a1, 0x4
   12c18: e5 df        	c.beqz	a5, 0x12c10 <_malloc_r+0x15c>
   12c1a: fd 48        	c.li	a7, 0x1f
   12c1c: 1b 83 15 00  	addiw	t1, a1, 0x1
   12c20: 1b 13 13 00  	slliw	t1, t1, 0x1
   12c24: 0e 03        	c.slli	t1, 0x3
   12c26: 41 13        	c.addi	t1, -0x10
   12c28: 4e 93        	c.add	t1, s3
   12c2a: 1a 85        	c.mv	a0, t1
   12c2c: 1c 6d        	c.ld	a5, 0x18(a0)
   12c2e: 2e 8e        	c.mv	t3, a1
   12c30: 63 06 f5 1a  	beq	a0, a5, 0x12ddc <_malloc_r+0x328>
   12c34: 98 67        	c.ld	a4, 0x8(a5)
   12c36: 3e 84        	c.mv	s0, a5
   12c38: 9c 6f        	c.ld	a5, 0x18(a5)
   12c3a: 71 9b        	c.andi	a4, -0x4
   12c3c: b3 06 97 40  	sub	a3, a4, s1
   12c40: 63 c5 d8 1a  	blt	a7, a3, 0x12dea <_malloc_r+0x336>
   12c44: e3 c6 06 fe  	blt	a3, zero, 0x12c30 <_malloc_r+0x17c>
   12c48: 22 97        	c.add	a4, s0
   12c4a: 14 67        	c.ld	a3, 0x8(a4)
   12c4c: 10 68        	c.ld	a2, 0x10(s0)
   12c4e: 4a 85        	c.mv	a0, s2
   12c50: 93 e6 16 00  	ori	a3, a3, 0x1
   12c54: 14 e7        	c.sd	a3, 0x8(a4)
   12c56: 1c ee        	c.sd	a5, 0x18(a2)
   12c58: 90 eb        	c.sd	a2, 0x10(a5)
   12c5a: ef 00 e0 45  	jal	ra, 0x130b8 <__malloc_unlock>
   12c5e: 13 05 04 01  	addi	a0, s0, 0x10
   12c62: 55 bd        	c.j	0x12b16 <_malloc_r+0x62>
   12c64: b1 47        	c.li	a5, 0xc
   12c66: 23 20 f9 00  	sw	a5, 0x0(s2)
   12c6a: 01 45        	c.li	a0, 0x0
   12c6c: 6d b5        	c.j	0x12b16 <_malloc_r+0x62>
   12c6e: 13 06 00 40  	addi	a2, zero, 0x400
   12c72: 93 05 00 04  	addi	a1, zero, 0x40
   12c76: 13 08 f0 03  	addi	a6, zero, 0x3f
   12c7a: e5 b5        	c.j	0x12b62 <_malloc_r+0xae>
   12c7c: 03 b4 09 01  	ld	s0, 0x10(s3)
   12c80: 56 f4        	c.sdsp	s5, 0x28(sp)
   12c82: 1c 64        	c.ld	a5, 0x8(s0)
   12c84: 93 fa c7 ff  	andi	s5, a5, -0x4
   12c88: 63 e7 9a 00  	bltu	s5, s1, 0x12c96 <_malloc_r+0x1e2>
   12c8c: 33 87 9a 40  	sub	a4, s5, s1
   12c90: fd 47        	c.li	a5, 0x1f
   12c92: 63 c2 e7 0a  	blt	a5, a4, 0x12d36 <_malloc_r+0x282>
   12c96: 66 e4        	c.sdsp	s9, 0x8(sp)
   12c98: 52 f8        	c.sdsp	s4, 0x30(sp)
   12c9a: 03 b7 01 19  	ld	a4, 0x190(gp)
   12c9e: 03 ba 81 1c  	ld	s4, 0x1c8(gp)
   12ca2: 62 e8        	c.sdsp	s8, 0x10(sp)
   12ca4: 5a f0        	c.sdsp	s6, 0x20(sp)
   12ca6: fd 57        	c.li	a5, -0x1
   12ca8: 33 0c 54 01  	add	s8, s0, s5
   12cac: 26 9a        	c.add	s4, s1
   12cae: 63 08 f7 2e  	beq	a4, a5, 0x12f9e <_malloc_r+0x4ea>
   12cb2: 85 67        	c.lui	a5, 0x1
   12cb4: fd 07        	c.addi	a5, 0x1f
   12cb6: 3e 9a        	c.add	s4, a5
   12cb8: fd 77        	c.lui	a5, 0xfffff
   12cba: 33 7a fa 00  	and	s4, s4, a5
   12cbe: d2 85        	c.mv	a1, s4
   12cc0: 4a 85        	c.mv	a0, s2
   12cc2: ef 00 30 6a  	jal	ra, 0x13b64 <_sbrk_r>
   12cc6: fd 57        	c.li	a5, -0x1
   12cc8: 2a 8b        	c.mv	s6, a0
   12cca: 63 00 f5 36  	beq	a0, a5, 0x1302a <_malloc_r+0x576>
   12cce: 5e ec        	c.sdsp	s7, 0x18(sp)
   12cd0: 63 6c 85 1b  	bltu	a0, s8, 0x12e88 <_malloc_r+0x3d4>
   12cd4: 93 8b 01 42  	addi	s7, gp, 0x420
   12cd8: 83 a7 0b 00  	lw	a5, 0x0(s7)
   12cdc: 3b 87 47 01  	addw	a4, a5, s4
   12ce0: 23 a0 eb 00  	sw	a4, 0x0(s7)
   12ce4: ba 86        	c.mv	a3, a4
   12ce6: 63 17 ac 20  	bne	s8, a0, 0x12ef4 <_malloc_r+0x440>
   12cea: 93 17 45 03  	slli	a5, a0, 0x34
   12cee: 63 93 07 20  	bne	a5, zero, 0x12ef4 <_malloc_r+0x440>
   12cf2: 03 bb 09 01  	ld	s6, 0x10(s3)
   12cf6: b3 87 4a 01  	add	a5, s5, s4
   12cfa: 93 e7 17 00  	ori	a5, a5, 0x1
   12cfe: 23 34 fb 00  	sd	a5, 0x8(s6)
   12d02: 03 b6 01 1c  	ld	a2, 0x1c0(gp)
   12d06: 63 74 e6 00  	bgeu	a2, a4, 0x12d0e <_malloc_r+0x25a>
   12d0a: 23 b0 e1 1c  	sd	a4, 0x1c0(gp)
   12d0e: 03 b6 81 1b  	ld	a2, 0x1b8(gp)
   12d12: 63 74 e6 00  	bgeu	a2, a4, 0x12d1a <_malloc_r+0x266>
   12d16: 23 bc e1 1a  	sd	a4, 0x1b8(gp)
   12d1a: e2 6b        	c.ldsp	s7, 0x18(sp)
   12d1c: 5a 84        	c.mv	s0, s6
   12d1e: f1 9b        	c.andi	a5, -0x4
   12d20: 33 87 97 40  	sub	a4, a5, s1
   12d24: 63 ed 97 2a  	bltu	a5, s1, 0x12fde <_malloc_r+0x52a>
   12d28: fd 47        	c.li	a5, 0x1f
   12d2a: 63 da e7 2a  	bge	a5, a4, 0x12fde <_malloc_r+0x52a>
   12d2e: 42 7a        	c.ldsp	s4, 0x30(sp)
   12d30: 02 7b        	c.ldsp	s6, 0x20(sp)
   12d32: 42 6c        	c.ldsp	s8, 0x10(sp)
   12d34: a2 6c        	c.ldsp	s9, 0x8(sp)
   12d36: 93 e7 14 00  	ori	a5, s1, 0x1
   12d3a: 1c e4        	c.sd	a5, 0x8(s0)
   12d3c: a2 94        	c.add	s1, s0
   12d3e: 23 b8 99 00  	sd	s1, 0x10(s3)
   12d42: 13 67 17 00  	ori	a4, a4, 0x1
   12d46: 4a 85        	c.mv	a0, s2
   12d48: 98 e4        	c.sd	a4, 0x8(s1)
   12d4a: ef 00 e0 36  	jal	ra, 0x130b8 <__malloc_unlock>
   12d4e: e6 60        	c.ldsp	ra, 0x58(sp)
   12d50: 13 05 04 01  	addi	a0, s0, 0x10
   12d54: 46 64        	c.ldsp	s0, 0x50(sp)
   12d56: a2 7a        	c.ldsp	s5, 0x28(sp)
   12d58: a6 64        	c.ldsp	s1, 0x48(sp)
   12d5a: 06 69        	c.ldsp	s2, 0x40(sp)
   12d5c: e2 79        	c.ldsp	s3, 0x38(sp)
   12d5e: 25 61        	c.addi16sp	sp, 0x60
   12d60: 82 80        	c.jr	ra
   12d62: 03 b5 89 00  	ld	a0, 0x8(s3)
   12d66: 69 b5        	c.j	0x12bf0 <_malloc_r+0x13c>
   12d68: 10 68        	c.ld	a2, 0x10(s0)
   12d6a: 51 bb        	c.j	0x12afe <_malloc_r+0x4a>
   12d6c: 80 6f        	c.ld	s0, 0x18(a5)
   12d6e: 89 25        	c.addiw	a1, 0x2
   12d70: e3 80 87 e2  	beq	a5, s0, 0x12b90 <_malloc_r+0xdc>
   12d74: 49 b3        	c.j	0x12af6 <_malloc_r+0x42>
   12d76: 13 d7 97 00  	srli	a4, a5, 0x9
   12d7a: 91 46        	c.li	a3, 0x4
   12d7c: 63 fc e6 0e  	bgeu	a3, a4, 0x12e74 <_malloc_r+0x3c0>
   12d80: d1 46        	c.li	a3, 0x14
   12d82: 63 e8 e6 26  	bltu	a3, a4, 0x12ff2 <_malloc_r+0x53e>
   12d86: 1b 06 c7 05  	addiw	a2, a4, 0x5c
   12d8a: 1b 16 16 00  	slliw	a2, a2, 0x1
   12d8e: 9b 06 b7 05  	addiw	a3, a4, 0x5b
   12d92: 0e 06        	c.slli	a2, 0x3
   12d94: 4e 96        	c.add	a2, s3
   12d96: 18 62        	c.ld	a4, 0x0(a2)
   12d98: 41 16        	c.addi	a2, -0x10
   12d9a: 63 16 e6 00  	bne	a2, a4, 0x12da6 <_malloc_r+0x2f2>
   12d9e: 19 a4        	c.j	0x12fa4 <_malloc_r+0x4f0>
   12da0: 18 6b        	c.ld	a4, 0x10(a4)
   12da2: 63 06 e6 00  	beq	a2, a4, 0x12dae <_malloc_r+0x2fa>
   12da6: 14 67        	c.ld	a3, 0x8(a4)
   12da8: f1 9a        	c.andi	a3, -0x4
   12daa: e3 eb d7 fe  	bltu	a5, a3, 0x12da0 <_malloc_r+0x2ec>
   12dae: 10 6f        	c.ld	a2, 0x18(a4)
   12db0: 10 ec        	c.sd	a2, 0x18(s0)
   12db2: 18 e8        	c.sd	a4, 0x10(s0)
   12db4: 00 ea        	c.sd	s0, 0x10(a2)
   12db6: 00 ef        	c.sd	s0, 0x18(a4)
   12db8: 25 bd        	c.j	0x12bf0 <_malloc_r+0x13c>
   12dba: 51 47        	c.li	a4, 0x14
   12dbc: 63 7d f7 0c  	bgeu	a4, a5, 0x12e96 <_malloc_r+0x3e2>
   12dc0: 13 07 40 05  	addi	a4, zero, 0x54
   12dc4: 63 65 f7 24  	bltu	a4, a5, 0x1300e <_malloc_r+0x55a>
   12dc8: 93 d7 c4 00  	srli	a5, s1, 0xc
   12dcc: 9b 85 f7 06  	addiw	a1, a5, 0x6f
   12dd0: 1b 96 15 00  	slliw	a2, a1, 0x1
   12dd4: 1b 88 e7 06  	addiw	a6, a5, 0x6e
   12dd8: 0e 06        	c.slli	a2, 0x3
   12dda: 61 b3        	c.j	0x12b62 <_malloc_r+0xae>
   12ddc: 05 2e        	c.addiw	t3, 0x1
   12dde: 93 77 3e 00  	andi	a5, t3, 0x3
   12de2: 41 05        	c.addi	a0, 0x10
   12de4: f1 c7        	c.beqz	a5, 0x12eb0 <_malloc_r+0x3fc>
   12de6: 1c 6d        	c.ld	a5, 0x18(a0)
   12de8: a1 b5        	c.j	0x12c30 <_malloc_r+0x17c>
   12dea: 10 68        	c.ld	a2, 0x10(s0)
   12dec: 93 e5 14 00  	ori	a1, s1, 0x1
   12df0: 0c e4        	c.sd	a1, 0x8(s0)
   12df2: 1c ee        	c.sd	a5, 0x18(a2)
   12df4: 90 eb        	c.sd	a2, 0x10(a5)
   12df6: a2 94        	c.add	s1, s0
   12df8: 23 b4 99 02  	sd	s1, 0x28(s3)
   12dfc: 23 b0 99 02  	sd	s1, 0x20(s3)
   12e00: 93 e7 16 00  	ori	a5, a3, 0x1
   12e04: 23 bc 04 01  	sd	a6, 0x18(s1)
   12e08: 23 b8 04 01  	sd	a6, 0x10(s1)
   12e0c: 9c e4        	c.sd	a5, 0x8(s1)
   12e0e: 22 97        	c.add	a4, s0
   12e10: 4a 85        	c.mv	a0, s2
   12e12: 14 e3        	c.sd	a3, 0x0(a4)
   12e14: ef 00 40 2a  	jal	ra, 0x130b8 <__malloc_unlock>
   12e18: 13 05 04 01  	addi	a0, s0, 0x10
   12e1c: ed b9        	c.j	0x12b16 <_malloc_r+0x62>
   12e1e: a2 97        	c.add	a5, s0
   12e20: 98 67        	c.ld	a4, 0x8(a5)
   12e22: 4a 85        	c.mv	a0, s2
   12e24: 13 67 17 00  	ori	a4, a4, 0x1
   12e28: 98 e7        	c.sd	a4, 0x8(a5)
   12e2a: ef 00 e0 28  	jal	ra, 0x130b8 <__malloc_unlock>
   12e2e: 13 05 04 01  	addi	a0, s0, 0x10
   12e32: d5 b1        	c.j	0x12b16 <_malloc_r+0x62>
   12e34: 93 e6 14 00  	ori	a3, s1, 0x1
   12e38: 14 e4        	c.sd	a3, 0x8(s0)
   12e3a: a2 94        	c.add	s1, s0
   12e3c: 23 b4 99 02  	sd	s1, 0x28(s3)
   12e40: 23 b0 99 02  	sd	s1, 0x20(s3)
   12e44: 93 66 17 00  	ori	a3, a4, 0x1
   12e48: 23 bc 04 01  	sd	a6, 0x18(s1)
   12e4c: 23 b8 04 01  	sd	a6, 0x10(s1)
   12e50: 94 e4        	c.sd	a3, 0x8(s1)
   12e52: a2 97        	c.add	a5, s0
   12e54: 4a 85        	c.mv	a0, s2
   12e56: 98 e3        	c.sd	a4, 0x0(a5)
   12e58: ef 00 00 26  	jal	ra, 0x130b8 <__malloc_unlock>
   12e5c: 13 05 04 01  	addi	a0, s0, 0x10
   12e60: 5d b9        	c.j	0x12b16 <_malloc_r+0x62>
   12e62: 93 d5 34 00  	srli	a1, s1, 0x3
   12e66: 9b 87 15 00  	addiw	a5, a1, 0x1
   12e6a: 9b 97 17 00  	slliw	a5, a5, 0x1
   12e6e: 81 25        	c.addiw	a1, 0x0
   12e70: 8e 07        	c.slli	a5, 0x3
   12e72: 8d b9        	c.j	0x12ae4 <_malloc_r+0x30>
   12e74: 13 d7 67 00  	srli	a4, a5, 0x6
   12e78: 1b 06 97 03  	addiw	a2, a4, 0x39
   12e7c: 1b 16 16 00  	slliw	a2, a2, 0x1
   12e80: 9b 06 87 03  	addiw	a3, a4, 0x38
   12e84: 0e 06        	c.slli	a2, 0x3
   12e86: 39 b7        	c.j	0x12d94 <_malloc_r+0x2e0>
   12e88: 63 0e 34 05  	beq	s0, s3, 0x12ee4 <_malloc_r+0x430>
   12e8c: 03 b4 09 01  	ld	s0, 0x10(s3)
   12e90: e2 6b        	c.ldsp	s7, 0x18(sp)
   12e92: 1c 64        	c.ld	a5, 0x8(s0)
   12e94: 69 b5        	c.j	0x12d1e <_malloc_r+0x26a>
   12e96: 9b 85 c7 05  	addiw	a1, a5, 0x5c
   12e9a: 1b 96 15 00  	slliw	a2, a1, 0x1
   12e9e: 1b 88 b7 05  	addiw	a6, a5, 0x5b
   12ea2: 0e 06        	c.slli	a2, 0x3
   12ea4: 7d b9        	c.j	0x12b62 <_malloc_r+0xae>
   12ea6: 83 37 03 01  	ld	a5, 0x10(t1)
   12eaa: fd 35        	c.addiw	a1, -0x1
   12eac: 63 92 67 20  	bne	a5, t1, 0x130b0 <_malloc_r+0x5fc>
   12eb0: 93 f7 35 00  	andi	a5, a1, 0x3
   12eb4: 41 13        	c.addi	t1, -0x10
   12eb6: e5 fb        	c.bnez	a5, 0x12ea6 <_malloc_r+0x3f2>
   12eb8: 03 b7 89 00  	ld	a4, 0x8(s3)
   12ebc: 93 47 f6 ff  	xori	a5, a2, -0x1
   12ec0: f9 8f        	c.and	a5, a4
   12ec2: 23 b4 f9 00  	sd	a5, 0x8(s3)
   12ec6: 06 06        	c.slli	a2, 0x1
   12ec8: e3 ea c7 da  	bltu	a5, a2, 0x12c7c <_malloc_r+0x1c8>
   12ecc: e3 08 06 da  	beq	a2, zero, 0x12c7c <_malloc_r+0x1c8>
   12ed0: 33 77 f6 00  	and	a4, a2, a5
   12ed4: 11 e7        	c.bnez	a4, 0x12ee0 <_malloc_r+0x42c>
   12ed6: 06 06        	c.slli	a2, 0x1
   12ed8: 33 77 f6 00  	and	a4, a2, a5
   12edc: 11 2e        	c.addiw	t3, 0x4
   12ede: 65 df        	c.beqz	a4, 0x12ed6 <_malloc_r+0x422>
   12ee0: f2 85        	c.mv	a1, t3
   12ee2: 2d bb        	c.j	0x12c1c <_malloc_r+0x168>
   12ee4: 93 8b 01 42  	addi	s7, gp, 0x420
   12ee8: 83 a7 0b 00  	lw	a5, 0x0(s7)
   12eec: bb 86 47 01  	addw	a3, a5, s4
   12ef0: 23 a0 db 00  	sw	a3, 0x0(s7)
   12ef4: 03 b7 01 19  	ld	a4, 0x190(gp)
   12ef8: fd 57        	c.li	a5, -0x1
   12efa: 63 0c f7 12  	beq	a4, a5, 0x13032 <_malloc_r+0x57e>
   12efe: b3 07 8b 41  	sub	a5, s6, s8
   12f02: b5 9f        	c.addw	a5, a3
   12f04: 23 a0 fb 00  	sw	a5, 0x0(s7)
   12f08: 93 7c fb 00  	andi	s9, s6, 0xf
   12f0c: 63 85 0c 0a  	beq	s9, zero, 0x12fb6 <_malloc_r+0x502>
   12f10: 33 0b 9b 41  	sub	s6, s6, s9
   12f14: 05 67        	c.lui	a4, 0x1
   12f16: 41 07        	c.addi	a4, 0x10
   12f18: 41 0b        	c.addi	s6, 0x10
   12f1a: 33 0c 97 41  	sub	s8, a4, s9
   12f1e: 5a 9a        	c.add	s4, s6
   12f20: 33 0c 4c 41  	sub	s8, s8, s4
   12f24: 52 1c        	c.slli	s8, 0x34
   12f26: 13 5c 4c 03  	srli	s8, s8, 0x34
   12f2a: e2 85        	c.mv	a1, s8
   12f2c: 4a 85        	c.mv	a0, s2
   12f2e: ef 00 70 43  	jal	ra, 0x13b64 <_sbrk_r>
   12f32: fd 57        	c.li	a5, -0x1
   12f34: 63 0e f5 12  	beq	a0, a5, 0x13070 <_malloc_r+0x5bc>
   12f38: 33 05 65 41  	sub	a0, a0, s6
   12f3c: 9b 06 0c 00  	addiw	a3, s8, 0x0
   12f40: 33 0a 85 01  	add	s4, a0, s8
   12f44: 03 a7 0b 00  	lw	a4, 0x0(s7)
   12f48: 23 b8 69 01  	sd	s6, 0x10(s3)
   12f4c: 93 67 1a 00  	ori	a5, s4, 0x1
   12f50: 35 9f        	c.addw	a4, a3
   12f52: 23 a0 eb 00  	sw	a4, 0x0(s7)
   12f56: 23 34 fb 00  	sd	a5, 0x8(s6)
   12f5a: e3 04 34 db  	beq	s0, s3, 0x12d02 <_malloc_r+0x24e>
   12f5e: 7d 46        	c.li	a2, 0x1f
   12f60: 63 7b 56 07  	bgeu	a2, s5, 0x12fd6 <_malloc_r+0x522>
   12f64: 14 64        	c.ld	a3, 0x8(s0)
   12f66: 93 87 8a fe  	addi	a5, s5, -0x18
   12f6a: c1 9b        	c.andi	a5, -0x10
   12f6c: 85 8a        	c.andi	a3, 0x1
   12f6e: dd 8e        	c.or	a3, a5
   12f70: 14 e4        	c.sd	a3, 0x8(s0)
   12f72: a5 45        	c.li	a1, 0x9
   12f74: b3 06 f4 00  	add	a3, s0, a5
   12f78: 8c e6        	c.sd	a1, 0x8(a3)
   12f7a: 8c ea        	c.sd	a1, 0x10(a3)
   12f7c: 63 65 f6 00  	bltu	a2, a5, 0x12f86 <_malloc_r+0x4d2>
   12f80: 83 37 8b 00  	ld	a5, 0x8(s6)
   12f84: bd bb        	c.j	0x12d02 <_malloc_r+0x24e>
   12f86: 93 05 04 01  	addi	a1, s0, 0x10
   12f8a: 4a 85        	c.mv	a0, s2
   12f8c: ef f0 5f 8e  	jal	ra, 0x12870 <_free_r>
   12f90: 03 bb 09 01  	ld	s6, 0x10(s3)
   12f94: 03 a7 0b 00  	lw	a4, 0x0(s7)
   12f98: 83 37 8b 00  	ld	a5, 0x8(s6)
   12f9c: 9d b3        	c.j	0x12d02 <_malloc_r+0x24e>
   12f9e: 13 0a 0a 02  	addi	s4, s4, 0x20
   12fa2: 31 bb        	c.j	0x12cbe <_malloc_r+0x20a>
   12fa4: 9b d6 26 40  	sraiw	a3, a3, 0x2
   12fa8: 85 47        	c.li	a5, 0x1
   12faa: b3 97 d7 00  	sll	a5, a5, a3
   12fae: 5d 8d        	c.or	a0, a5
   12fb0: 23 b4 a9 00  	sd	a0, 0x8(s3)
   12fb4: f5 bb        	c.j	0x12db0 <_malloc_r+0x2fc>
   12fb6: 33 0c 4b 01  	add	s8, s6, s4
   12fba: 33 0c 80 41  	sub	s8, zero, s8
   12fbe: 52 1c        	c.slli	s8, 0x34
   12fc0: 13 5c 4c 03  	srli	s8, s8, 0x34
   12fc4: e2 85        	c.mv	a1, s8
   12fc6: 4a 85        	c.mv	a0, s2
   12fc8: ef 00 d0 39  	jal	ra, 0x13b64 <_sbrk_r>
   12fcc: fd 57        	c.li	a5, -0x1
   12fce: 81 46        	c.li	a3, 0x0
   12fd0: e3 14 f5 f6  	bne	a0, a5, 0x12f38 <_malloc_r+0x484>
   12fd4: 85 bf        	c.j	0x12f44 <_malloc_r+0x490>
   12fd6: e2 6b        	c.ldsp	s7, 0x18(sp)
   12fd8: 85 47        	c.li	a5, 0x1
   12fda: 23 34 fb 00  	sd	a5, 0x8(s6)
   12fde: 4a 85        	c.mv	a0, s2
   12fe0: ef 00 80 0d  	jal	ra, 0x130b8 <__malloc_unlock>
   12fe4: 01 45        	c.li	a0, 0x0
   12fe6: 42 7a        	c.ldsp	s4, 0x30(sp)
   12fe8: a2 7a        	c.ldsp	s5, 0x28(sp)
   12fea: 02 7b        	c.ldsp	s6, 0x20(sp)
   12fec: 42 6c        	c.ldsp	s8, 0x10(sp)
   12fee: a2 6c        	c.ldsp	s9, 0x8(sp)
   12ff0: 1d b6        	c.j	0x12b16 <_malloc_r+0x62>
   12ff2: 93 06 40 05  	addi	a3, zero, 0x54
   12ff6: 63 e1 e6 04  	bltu	a3, a4, 0x13038 <_malloc_r+0x584>
   12ffa: 13 d7 c7 00  	srli	a4, a5, 0xc
   12ffe: 1b 06 f7 06  	addiw	a2, a4, 0x6f
   13002: 1b 16 16 00  	slliw	a2, a2, 0x1
   13006: 9b 06 e7 06  	addiw	a3, a4, 0x6e
   1300a: 0e 06        	c.slli	a2, 0x3
   1300c: 61 b3        	c.j	0x12d94 <_malloc_r+0x2e0>
   1300e: 13 07 40 15  	addi	a4, zero, 0x154
   13012: 63 61 f7 04  	bltu	a4, a5, 0x13054 <_malloc_r+0x5a0>
   13016: 93 d7 f4 00  	srli	a5, s1, 0xf
   1301a: 9b 85 87 07  	addiw	a1, a5, 0x78
   1301e: 1b 96 15 00  	slliw	a2, a1, 0x1
   13022: 1b 88 77 07  	addiw	a6, a5, 0x77
   13026: 0e 06        	c.slli	a2, 0x3
   13028: 2d be        	c.j	0x12b62 <_malloc_r+0xae>
   1302a: 03 b4 09 01  	ld	s0, 0x10(s3)
   1302e: 1c 64        	c.ld	a5, 0x8(s0)
   13030: fd b1        	c.j	0x12d1e <_malloc_r+0x26a>
   13032: 23 b8 61 19  	sd	s6, 0x190(gp)
   13036: c9 bd        	c.j	0x12f08 <_malloc_r+0x454>
   13038: 93 06 40 15  	addi	a3, zero, 0x154
   1303c: 63 e0 e6 04  	bltu	a3, a4, 0x1307c <_malloc_r+0x5c8>
   13040: 13 d7 f7 00  	srli	a4, a5, 0xf
   13044: 1b 06 87 07  	addiw	a2, a4, 0x78
   13048: 1b 16 16 00  	slliw	a2, a2, 0x1
   1304c: 9b 06 77 07  	addiw	a3, a4, 0x77
   13050: 0e 06        	c.slli	a2, 0x3
   13052: 89 b3        	c.j	0x12d94 <_malloc_r+0x2e0>
   13054: 13 07 40 55  	addi	a4, zero, 0x554
   13058: 63 60 f7 04  	bltu	a4, a5, 0x13098 <_malloc_r+0x5e4>
   1305c: 93 d7 24 01  	srli	a5, s1, 0x12
   13060: 9b 85 d7 07  	addiw	a1, a5, 0x7d
   13064: 1b 96 15 00  	slliw	a2, a1, 0x1
   13068: 1b 88 c7 07  	addiw	a6, a5, 0x7c
   1306c: 0e 06        	c.slli	a2, 0x3
   1306e: d5 bc        	c.j	0x12b62 <_malloc_r+0xae>
   13070: c1 1c        	c.addi	s9, -0x10
   13072: 66 9a        	c.add	s4, s9
   13074: 33 0a 6a 41  	sub	s4, s4, s6
   13078: 81 46        	c.li	a3, 0x0
   1307a: e9 b5        	c.j	0x12f44 <_malloc_r+0x490>
   1307c: 93 06 40 55  	addi	a3, zero, 0x554
   13080: 63 e3 e6 02  	bltu	a3, a4, 0x130a6 <_malloc_r+0x5f2>
   13084: 13 d7 27 01  	srli	a4, a5, 0x12
   13088: 1b 06 d7 07  	addiw	a2, a4, 0x7d
   1308c: 1b 16 16 00  	slliw	a2, a2, 0x1
   13090: 9b 06 c7 07  	addiw	a3, a4, 0x7c
   13094: 0e 06        	c.slli	a2, 0x3
   13096: fd b9        	c.j	0x12d94 <_malloc_r+0x2e0>
   13098: 13 06 00 7f  	addi	a2, zero, 0x7f0
   1309c: 93 05 f0 07  	addi	a1, zero, 0x7f
   130a0: 13 08 e0 07  	addi	a6, zero, 0x7e
   130a4: 7d bc        	c.j	0x12b62 <_malloc_r+0xae>
   130a6: 13 06 00 7f  	addi	a2, zero, 0x7f0
   130aa: 93 06 e0 07  	addi	a3, zero, 0x7e
   130ae: dd b1        	c.j	0x12d94 <_malloc_r+0x2e0>
   130b0: 83 b7 89 00  	ld	a5, 0x8(s3)
   130b4: 09 bd        	c.j	0x12ec6 <_malloc_r+0x412>

00000000000130b6 <__malloc_lock>:
   130b6: 82 80        	c.jr	ra

00000000000130b8 <__malloc_unlock>:
   130b8: 82 80        	c.jr	ra

00000000000130ba <_fclose_r>:
   130ba: 01 11        	c.addi	sp, -0x20
   130bc: 06 ec        	c.sdsp	ra, 0x18(sp)
   130be: 4a e0        	c.sdsp	s2, 0x0(sp)
   130c0: 89 cd        	c.beqz	a1, 0x130da <_fclose_r+0x20>
   130c2: 22 e8        	c.sdsp	s0, 0x10(sp)
   130c4: 26 e4        	c.sdsp	s1, 0x8(sp)
   130c6: 2e 84        	c.mv	s0, a1
   130c8: aa 84        	c.mv	s1, a0
   130ca: 19 c1        	c.beqz	a0, 0x130d0 <_fclose_r+0x16>
   130cc: 3c 65        	c.ld	a5, 0x48(a0)
   130ce: d9 c7        	c.beqz	a5, 0x1315c <_fclose_r+0xa2>
   130d0: 83 17 04 01  	lh	a5, 0x10(s0)
   130d4: 89 eb        	c.bnez	a5, 0x130e6 <_fclose_r+0x2c>
   130d6: 42 64        	c.ldsp	s0, 0x10(sp)
   130d8: a2 64        	c.ldsp	s1, 0x8(sp)
   130da: e2 60        	c.ldsp	ra, 0x18(sp)
   130dc: 01 49        	c.li	s2, 0x0
   130de: 4a 85        	c.mv	a0, s2
   130e0: 02 69        	c.ldsp	s2, 0x0(sp)
   130e2: 05 61        	c.addi16sp	sp, 0x20
   130e4: 82 80        	c.jr	ra
   130e6: a2 85        	c.mv	a1, s0
   130e8: 26 85        	c.mv	a0, s1
   130ea: ef 00 00 08  	jal	ra, 0x1316a <__sflush_r>
   130ee: 3c 68        	c.ld	a5, 0x50(s0)
   130f0: 2a 89        	c.mv	s2, a0
   130f2: 91 c7        	c.beqz	a5, 0x130fe <_fclose_r+0x44>
   130f4: 0c 78        	c.ld	a1, 0x30(s0)
   130f6: 26 85        	c.mv	a0, s1
   130f8: 82 97        	c.jalr	a5
   130fa: 63 46 05 04  	blt	a0, zero, 0x13146 <_fclose_r+0x8c>
   130fe: 83 57 04 01  	lhu	a5, 0x10(s0)
   13102: 93 f7 07 08  	andi	a5, a5, 0x80
   13106: b1 e7        	c.bnez	a5, 0x13152 <_fclose_r+0x98>
   13108: 2c 6c        	c.ld	a1, 0x58(s0)
   1310a: 91 c9        	c.beqz	a1, 0x1311e <_fclose_r+0x64>
   1310c: 93 07 44 07  	addi	a5, s0, 0x74
   13110: 63 85 f5 00  	beq	a1, a5, 0x1311a <_fclose_r+0x60>
   13114: 26 85        	c.mv	a0, s1
   13116: ef f0 af f5  	jal	ra, 0x12870 <_free_r>
   1311a: 23 3c 04 04  	sd	zero, 0x58(s0)
   1311e: 2c 7c        	c.ld	a1, 0x78(s0)
   13120: 91 c5        	c.beqz	a1, 0x1312c <_fclose_r+0x72>
   13122: 26 85        	c.mv	a0, s1
   13124: ef f0 cf f4  	jal	ra, 0x12870 <_free_r>
   13128: 23 3c 04 06  	sd	zero, 0x78(s0)
   1312c: ef e0 8f e9  	jal	ra, 0x117c4 <__sfp_lock_acquire>
   13130: 23 18 04 00  	sh	zero, 0x10(s0)
   13134: ef e0 2f e9  	jal	ra, 0x117c6 <__sfp_lock_release>
   13138: e2 60        	c.ldsp	ra, 0x18(sp)
   1313a: 42 64        	c.ldsp	s0, 0x10(sp)
   1313c: a2 64        	c.ldsp	s1, 0x8(sp)
   1313e: 4a 85        	c.mv	a0, s2
   13140: 02 69        	c.ldsp	s2, 0x0(sp)
   13142: 05 61        	c.addi16sp	sp, 0x20
   13144: 82 80        	c.jr	ra
   13146: 83 57 04 01  	lhu	a5, 0x10(s0)
   1314a: 7d 59        	c.li	s2, -0x1
   1314c: 93 f7 07 08  	andi	a5, a5, 0x80
   13150: c5 df        	c.beqz	a5, 0x13108 <_fclose_r+0x4e>
   13152: 0c 6c        	c.ld	a1, 0x18(s0)
   13154: 26 85        	c.mv	a0, s1
   13156: ef f0 af f1  	jal	ra, 0x12870 <_free_r>
   1315a: 7d b7        	c.j	0x13108 <_fclose_r+0x4e>
   1315c: ef e0 2f e5  	jal	ra, 0x117ae <__sinit>
   13160: 85 bf        	c.j	0x130d0 <_fclose_r+0x16>

0000000000013162 <fclose>:
   13162: aa 85        	c.mv	a1, a0
   13164: 03 b5 81 18  	ld	a0, 0x188(gp)
   13168: 89 bf        	c.j	0x130ba <_fclose_r>

000000000001316a <__sflush_r>:
   1316a: 03 97 05 01  	lh	a4, 0x10(a1)
   1316e: 79 71        	c.addi16sp	sp, -0x30
   13170: 22 f0        	c.sdsp	s0, 0x20(sp)
   13172: 4e e4        	c.sdsp	s3, 0x8(sp)
   13174: 06 f4        	c.sdsp	ra, 0x28(sp)
   13176: 93 77 87 00  	andi	a5, a4, 0x8
   1317a: 2e 84        	c.mv	s0, a1
   1317c: aa 89        	c.mv	s3, a0
   1317e: f1 e7        	c.bnez	a5, 0x1324a <__sflush_r+0xe0>
   13180: 85 67        	c.lui	a5, 0x1
   13182: 93 87 07 80  	addi	a5, a5, -0x800
   13186: 94 45        	c.lw	a3, 0x8(a1)
   13188: d9 8f        	c.or	a5, a4
   1318a: 23 98 f5 00  	sh	a5, 0x10(a1)
   1318e: 63 57 d0 10  	bge	zero, a3, 0x1329c <__sflush_r+0x132>
   13192: 03 38 84 04  	ld	a6, 0x48(s0)
   13196: 63 04 08 0a  	beq	a6, zero, 0x1323e <__sflush_r+0xd4>
   1319a: 26 ec        	c.sdsp	s1, 0x18(sp)
   1319c: 93 16 37 03  	slli	a3, a4, 0x33
   131a0: 83 a4 09 00  	lw	s1, 0x0(s3)
   131a4: 23 a0 09 00  	sw	zero, 0x0(s3)
   131a8: 0c 78        	c.ld	a1, 0x30(s0)
   131aa: 63 c0 06 10  	blt	a3, zero, 0x132aa <__sflush_r+0x140>
   131ae: 01 46        	c.li	a2, 0x0
   131b0: 85 46        	c.li	a3, 0x1
   131b2: 4e 85        	c.mv	a0, s3
   131b4: 02 98        	c.jalr	a6
   131b6: fd 57        	c.li	a5, -0x1
   131b8: 2a 86        	c.mv	a2, a0
   131ba: 63 01 f5 12  	beq	a0, a5, 0x132dc <__sflush_r+0x172>
   131be: 83 17 04 01  	lh	a5, 0x10(s0)
   131c2: 03 38 84 04  	ld	a6, 0x48(s0)
   131c6: 0c 78        	c.ld	a1, 0x30(s0)
   131c8: 91 8b        	c.andi	a5, 0x4
   131ca: 99 c7        	c.beqz	a5, 0x131d8 <__sflush_r+0x6e>
   131cc: 18 44        	c.lw	a4, 0x8(s0)
   131ce: 3c 6c        	c.ld	a5, 0x58(s0)
   131d0: 19 8e        	c.sub	a2, a4
   131d2: 99 c3        	c.beqz	a5, 0x131d8 <__sflush_r+0x6e>
   131d4: 3c 58        	c.lw	a5, 0x70(s0)
   131d6: 1d 8e        	c.sub	a2, a5
   131d8: 81 46        	c.li	a3, 0x0
   131da: 4e 85        	c.mv	a0, s3
   131dc: 02 98        	c.jalr	a6
   131de: fd 57        	c.li	a5, -0x1
   131e0: 63 17 f5 0c  	bne	a0, a5, 0x132ae <__sflush_r+0x144>
   131e4: 83 a6 09 00  	lw	a3, 0x0(s3)
   131e8: f5 47        	c.li	a5, 0x1d
   131ea: 03 17 04 01  	lh	a4, 0x10(s0)
   131ee: 1b 86 06 00  	addiw	a2, a3, 0x0
   131f2: 63 e1 d7 10  	bltu	a5, a3, 0x132f4 <__sflush_r+0x18a>
   131f6: b7 07 40 20  	lui	a5, 0x20400
   131fa: 85 07        	c.addi	a5, 0x1
   131fc: b3 d7 c7 00  	srl	a5, a5, a2
   13200: 85 8b        	c.andi	a5, 0x1
   13202: ed cb        	c.beqz	a5, 0x132f4 <__sflush_r+0x18a>
   13204: 10 6c        	c.ld	a2, 0x18(s0)
   13206: fd 77        	c.lui	a5, 0xfffff
   13208: 93 87 f7 7f  	addi	a5, a5, 0x7ff
   1320c: f9 8f        	c.and	a5, a4
   1320e: 23 18 f4 00  	sh	a5, 0x10(s0)
   13212: 23 24 04 00  	sw	zero, 0x8(s0)
   13216: 10 e0        	c.sd	a2, 0x0(s0)
   13218: 93 17 37 03  	slli	a5, a4, 0x33
   1321c: 63 d3 07 00  	bge	a5, zero, 0x13222 <__sflush_r+0xb8>
   13220: dd c6        	c.beqz	a3, 0x132ce <__sflush_r+0x164>
   13222: 2c 6c        	c.ld	a1, 0x58(s0)
   13224: 23 a0 99 00  	sw	s1, 0x0(s3)
   13228: c5 c9        	c.beqz	a1, 0x132d8 <__sflush_r+0x16e>
   1322a: 93 07 44 07  	addi	a5, s0, 0x74
   1322e: 63 85 f5 00  	beq	a1, a5, 0x13238 <__sflush_r+0xce>
   13232: 4e 85        	c.mv	a0, s3
   13234: ef f0 cf e3  	jal	ra, 0x12870 <_free_r>
   13238: e2 64        	c.ldsp	s1, 0x18(sp)
   1323a: 23 3c 04 04  	sd	zero, 0x58(s0)
   1323e: 01 45        	c.li	a0, 0x0
   13240: a2 70        	c.ldsp	ra, 0x28(sp)
   13242: 02 74        	c.ldsp	s0, 0x20(sp)
   13244: a2 69        	c.ldsp	s3, 0x8(sp)
   13246: 45 61        	c.addi16sp	sp, 0x30
   13248: 82 80        	c.jr	ra
   1324a: 4a e8        	c.sdsp	s2, 0x10(sp)
   1324c: 03 b9 85 01  	ld	s2, 0x18(a1)
   13250: 63 0b 09 04  	beq	s2, zero, 0x132a6 <__sflush_r+0x13c>
   13254: 26 ec        	c.sdsp	s1, 0x18(sp)
   13256: 84 61        	c.ld	s1, 0x0(a1)
   13258: 0d 8b        	c.andi	a4, 0x3
   1325a: 23 b0 25 01  	sd	s2, 0x0(a1)
   1325e: bb 84 24 41  	subw	s1, s1, s2
   13262: 81 47        	c.li	a5, 0x0
   13264: 11 e3        	c.bnez	a4, 0x13268 <__sflush_r+0xfe>
   13266: 9c 51        	c.lw	a5, 0x20(a1)
   13268: 5c c4        	c.sw	a5, 0xc(s0)
   1326a: 63 46 90 00  	blt	zero, s1, 0x13276 <__sflush_r+0x10c>
   1326e: 1d a8        	c.j	0x132a4 <__sflush_r+0x13a>
   13270: 2a 99        	c.add	s2, a0
   13272: 63 59 90 02  	bge	zero, s1, 0x132a4 <__sflush_r+0x13a>
   13276: 3c 60        	c.ld	a5, 0x40(s0)
   13278: 0c 78        	c.ld	a1, 0x30(s0)
   1327a: a6 86        	c.mv	a3, s1
   1327c: 4a 86        	c.mv	a2, s2
   1327e: 4e 85        	c.mv	a0, s3
   13280: 82 97        	c.jalr	a5
   13282: 89 9c        	c.subw	s1, a0
   13284: e3 46 a0 fe  	blt	zero, a0, 0x13270 <__sflush_r+0x106>
   13288: 03 17 04 01  	lh	a4, 0x10(s0)
   1328c: 42 69        	c.ldsp	s2, 0x10(sp)
   1328e: 13 67 07 04  	ori	a4, a4, 0x40
   13292: e2 64        	c.ldsp	s1, 0x18(sp)
   13294: 23 18 e4 00  	sh	a4, 0x10(s0)
   13298: 7d 55        	c.li	a0, -0x1
   1329a: 5d b7        	c.j	0x13240 <__sflush_r+0xd6>
   1329c: b4 59        	c.lw	a3, 0x70(a1)
   1329e: e3 4a d0 ee  	blt	zero, a3, 0x13192 <__sflush_r+0x28>
   132a2: 71 bf        	c.j	0x1323e <__sflush_r+0xd4>
   132a4: e2 64        	c.ldsp	s1, 0x18(sp)
   132a6: 42 69        	c.ldsp	s2, 0x10(sp)
   132a8: 59 bf        	c.j	0x1323e <__sflush_r+0xd4>
   132aa: 50 68        	c.ld	a2, 0x90(s0)
   132ac: 31 bf        	c.j	0x131c8 <__sflush_r+0x5e>
   132ae: 03 17 04 01  	lh	a4, 0x10(s0)
   132b2: 14 6c        	c.ld	a3, 0x18(s0)
   132b4: fd 77        	c.lui	a5, 0xfffff
   132b6: 93 87 f7 7f  	addi	a5, a5, 0x7ff
   132ba: f9 8f        	c.and	a5, a4
   132bc: 23 18 f4 00  	sh	a5, 0x10(s0)
   132c0: 23 24 04 00  	sw	zero, 0x8(s0)
   132c4: 14 e0        	c.sd	a3, 0x0(s0)
   132c6: 93 17 37 03  	slli	a5, a4, 0x33
   132ca: e3 dc 07 f4  	bge	a5, zero, 0x13222 <__sflush_r+0xb8>
   132ce: 2c 6c        	c.ld	a1, 0x58(s0)
   132d0: 48 e8        	c.sd	a0, 0x90(s0)
   132d2: 23 a0 99 00  	sw	s1, 0x0(s3)
   132d6: b1 f9        	c.bnez	a1, 0x1322a <__sflush_r+0xc0>
   132d8: e2 64        	c.ldsp	s1, 0x18(sp)
   132da: 95 b7        	c.j	0x1323e <__sflush_r+0xd4>
   132dc: 83 a7 09 00  	lw	a5, 0x0(s3)
   132e0: e3 8f 07 ec  	beq	a5, zero, 0x131be <__sflush_r+0x54>
   132e4: 75 47        	c.li	a4, 0x1d
   132e6: 63 8a e7 00  	beq	a5, a4, 0x132fa <__sflush_r+0x190>
   132ea: 59 47        	c.li	a4, 0x16
   132ec: 63 87 e7 00  	beq	a5, a4, 0x132fa <__sflush_r+0x190>
   132f0: 03 17 04 01  	lh	a4, 0x10(s0)
   132f4: 13 67 07 04  	ori	a4, a4, 0x40
   132f8: 69 bf        	c.j	0x13292 <__sflush_r+0x128>
   132fa: 23 a0 99 00  	sw	s1, 0x0(s3)
   132fe: e2 64        	c.ldsp	s1, 0x18(sp)
   13300: 3d bf        	c.j	0x1323e <__sflush_r+0xd4>

0000000000013302 <_fflush_r>:
   13302: 01 11        	c.addi	sp, -0x20
   13304: 22 e8        	c.sdsp	s0, 0x10(sp)
   13306: 06 ec        	c.sdsp	ra, 0x18(sp)
   13308: 2a 84        	c.mv	s0, a0
   1330a: 19 c1        	c.beqz	a0, 0x13310 <_fflush_r+0xe>
   1330c: 3c 65        	c.ld	a5, 0x48(a0)
   1330e: 91 cf        	c.beqz	a5, 0x1332a <_fflush_r+0x28>
   13310: 83 97 05 01  	lh	a5, 0x10(a1)
   13314: 91 e7        	c.bnez	a5, 0x13320 <_fflush_r+0x1e>
   13316: e2 60        	c.ldsp	ra, 0x18(sp)
   13318: 42 64        	c.ldsp	s0, 0x10(sp)
   1331a: 01 45        	c.li	a0, 0x0
   1331c: 05 61        	c.addi16sp	sp, 0x20
   1331e: 82 80        	c.jr	ra
   13320: 22 85        	c.mv	a0, s0
   13322: 42 64        	c.ldsp	s0, 0x10(sp)
   13324: e2 60        	c.ldsp	ra, 0x18(sp)
   13326: 05 61        	c.addi16sp	sp, 0x20
   13328: 89 b5        	c.j	0x1316a <__sflush_r>
   1332a: 2e e4        	c.sdsp	a1, 0x8(sp)
   1332c: ef e0 2f c8  	jal	ra, 0x117ae <__sinit>
   13330: a2 65        	c.ldsp	a1, 0x8(sp)
   13332: f9 bf        	c.j	0x13310 <_fflush_r+0xe>

0000000000013334 <fflush>:
   13334: 05 cd        	c.beqz	a0, 0x1336c <fflush+0x38>
   13336: aa 85        	c.mv	a1, a0
   13338: 03 b5 81 18  	ld	a0, 0x188(gp)
   1333c: 19 c1        	c.beqz	a0, 0x13342 <fflush+0xe>
   1333e: 3c 65        	c.ld	a5, 0x48(a0)
   13340: 99 c7        	c.beqz	a5, 0x1334e <fflush+0x1a>
   13342: 83 97 05 01  	lh	a5, 0x10(a1)
   13346: 99 e3        	c.bnez	a5, 0x1334c <fflush+0x18>
   13348: 01 45        	c.li	a0, 0x0
   1334a: 82 80        	c.jr	ra
   1334c: 39 bd        	c.j	0x1316a <__sflush_r>
   1334e: 01 11        	c.addi	sp, -0x20
   13350: 2e e4        	c.sdsp	a1, 0x8(sp)
   13352: 2a e0        	c.sdsp	a0, 0x0(sp)
   13354: 06 ec        	c.sdsp	ra, 0x18(sp)
   13356: ef e0 8f c5  	jal	ra, 0x117ae <__sinit>
   1335a: a2 65        	c.ldsp	a1, 0x8(sp)
   1335c: 02 65        	c.ldsp	a0, 0x0(sp)
   1335e: 83 97 05 01  	lh	a5, 0x10(a1)
   13362: 85 e3        	c.bnez	a5, 0x13382 <fflush+0x4e>
   13364: e2 60        	c.ldsp	ra, 0x18(sp)
   13366: 01 45        	c.li	a0, 0x0
   13368: 05 61        	c.addi16sp	sp, 0x20
   1336a: 82 80        	c.jr	ra
   1336c: 5d 66        	c.lui	a2, 0x17
   1336e: cd 65        	c.lui	a1, 0x13
   13370: 5d 65        	c.lui	a0, 0x17
   13372: 13 06 86 78  	addi	a2, a2, 0x788
   13376: 93 85 25 30  	addi	a1, a1, 0x302
   1337a: 13 05 05 7a  	addi	a0, a0, 0x7a0
   1337e: 6f e0 4f da  	jal	zero, 0x11922 <_fwalk_sglue>
   13382: e2 60        	c.ldsp	ra, 0x18(sp)
   13384: 05 61        	c.addi16sp	sp, 0x20
   13386: d5 b3        	c.j	0x1316a <__sflush_r>

0000000000013388 <__sflags>:
   13388: 83 c7 05 00  	lbu	a5, 0x0(a1)
   1338c: 13 07 20 07  	addi	a4, zero, 0x72
   13390: 63 82 e7 06  	beq	a5, a4, 0x133f4 <__sflags+0x6c>
   13394: 13 07 70 07  	addi	a4, zero, 0x77
   13398: 63 8a e7 00  	beq	a5, a4, 0x133ac <__sflags+0x24>
   1339c: 13 07 10 06  	addi	a4, zero, 0x61
   133a0: 63 8e e7 04  	beq	a5, a4, 0x133fc <__sflags+0x74>
   133a4: d9 47        	c.li	a5, 0x16
   133a6: 1c c1        	c.sw	a5, 0x0(a0)
   133a8: 01 45        	c.li	a0, 0x0
   133aa: 82 80        	c.jr	ra
   133ac: 13 03 00 60  	addi	t1, zero, 0x600
   133b0: 05 47        	c.li	a4, 0x1
   133b2: 21 45        	c.li	a0, 0x8
   133b4: 83 c7 15 00  	lbu	a5, 0x1(a1)
   133b8: 85 68        	c.lui	a7, 0x1
   133ba: 85 05        	c.addi	a1, 0x1
   133bc: 93 06 b0 02  	addi	a3, zero, 0x2b
   133c0: 13 08 80 07  	addi	a6, zero, 0x78
   133c4: 93 88 08 80  	addi	a7, a7, -0x800
   133c8: 99 cb        	c.beqz	a5, 0x133de <__sflags+0x56>
   133ca: 63 8e d7 00  	beq	a5, a3, 0x133e6 <__sflags+0x5e>
   133ce: 63 94 07 01  	bne	a5, a6, 0x133d6 <__sflags+0x4e>
   133d2: 33 67 17 01  	or	a4, a4, a7
   133d6: 83 c7 15 00  	lbu	a5, 0x1(a1)
   133da: 85 05        	c.addi	a1, 0x1
   133dc: fd f7        	c.bnez	a5, 0x133ca <__sflags+0x42>
   133de: b3 67 e3 00  	or	a5, t1, a4
   133e2: 1c c2        	c.sw	a5, 0x0(a2)
   133e4: 82 80        	c.jr	ra
   133e6: 0d 99        	c.andi	a0, -0x1d
   133e8: 71 9b        	c.andi	a4, -0x4
   133ea: 13 65 05 01  	ori	a0, a0, 0x10
   133ee: 13 67 27 00  	ori	a4, a4, 0x2
   133f2: d5 b7        	c.j	0x133d6 <__sflags+0x4e>
   133f4: 01 43        	c.li	t1, 0x0
   133f6: 01 47        	c.li	a4, 0x0
   133f8: 11 45        	c.li	a0, 0x4
   133fa: 6d bf        	c.j	0x133b4 <__sflags+0x2c>
   133fc: 13 03 80 20  	addi	t1, zero, 0x208
   13400: 05 47        	c.li	a4, 0x1
   13402: 13 05 80 10  	addi	a0, zero, 0x108
   13406: 7d b7        	c.j	0x133b4 <__sflags+0x2c>

0000000000013408 <__sfvwrite_r>:
   13408: 1c 6a        	c.ld	a5, 0x10(a2)
   1340a: 63 8b 07 1c  	beq	a5, zero, 0x135e0 <__sfvwrite_r+0x1d8>
   1340e: 03 97 05 01  	lh	a4, 0x10(a1)
   13412: 1d 71        	c.addi16sp	sp, -0x60
   13414: a2 e8        	c.sdsp	s0, 0x50(sp)
   13416: 56 f4        	c.sdsp	s5, 0x28(sp)
   13418: 5e ec        	c.sdsp	s7, 0x18(sp)
   1341a: 86 ec        	c.sdsp	ra, 0x58(sp)
   1341c: 93 77 87 00  	andi	a5, a4, 0x8
   13420: b2 8b        	c.mv	s7, a2
   13422: aa 8a        	c.mv	s5, a0
   13424: 2e 84        	c.mv	s0, a1
   13426: b5 c7        	c.beqz	a5, 0x13492 <__sfvwrite_r+0x8a>
   13428: 9c 6d        	c.ld	a5, 0x18(a1)
   1342a: a5 c7        	c.beqz	a5, 0x13492 <__sfvwrite_r+0x8a>
   1342c: a6 e4        	c.sdsp	s1, 0x48(sp)
   1342e: ca e0        	c.sdsp	s2, 0x40(sp)
   13430: 4e fc        	c.sdsp	s3, 0x38(sp)
   13432: 52 f8        	c.sdsp	s4, 0x30(sp)
   13434: 93 77 27 00  	andi	a5, a4, 0x2
   13438: 83 b4 0b 00  	ld	s1, 0x0(s7)
   1343c: a5 cf        	c.beqz	a5, 0x134b4 <__sfvwrite_r+0xac>
   1343e: 3c 60        	c.ld	a5, 0x40(s0)
   13440: 0c 78        	c.ld	a1, 0x30(s0)
   13442: 37 0a 00 80  	lui	s4, 0x80000
   13446: 81 49        	c.li	s3, 0x0
   13448: 01 49        	c.li	s2, 0x0
   1344a: 13 4a 0a c0  	xori	s4, s4, -0x400
   1344e: 4e 86        	c.mv	a2, s3
   13450: 56 85        	c.mv	a0, s5
   13452: 63 0a 09 02  	beq	s2, zero, 0x13486 <__sfvwrite_r+0x7e>
   13456: ca 86        	c.mv	a3, s2
   13458: 63 73 2a 01  	bgeu	s4, s2, 0x1345e <__sfvwrite_r+0x56>
   1345c: d2 86        	c.mv	a3, s4
   1345e: 81 26        	c.addiw	a3, 0x0
   13460: 82 97        	c.jalr	a5
   13462: 63 58 a0 2e  	bge	zero, a0, 0x13752 <__sfvwrite_r+0x34a>
   13466: 83 b7 0b 01  	ld	a5, 0x10(s7)
   1346a: aa 99        	c.add	s3, a0
   1346c: 33 09 a9 40  	sub	s2, s2, a0
   13470: 89 8f        	c.sub	a5, a0
   13472: 23 b8 fb 00  	sd	a5, 0x10(s7)
   13476: 63 81 07 12  	beq	a5, zero, 0x13598 <__sfvwrite_r+0x190>
   1347a: 3c 60        	c.ld	a5, 0x40(s0)
   1347c: 0c 78        	c.ld	a1, 0x30(s0)
   1347e: 4e 86        	c.mv	a2, s3
   13480: 56 85        	c.mv	a0, s5
   13482: e3 1a 09 fc  	bne	s2, zero, 0x13456 <__sfvwrite_r+0x4e>
   13486: 83 b9 04 00  	ld	s3, 0x0(s1)
   1348a: 03 b9 84 00  	ld	s2, 0x8(s1)
   1348e: c1 04        	c.addi	s1, 0x10
   13490: 7d bf        	c.j	0x1344e <__sfvwrite_r+0x46>
   13492: a2 85        	c.mv	a1, s0
   13494: 56 85        	c.mv	a0, s5
   13496: ef e0 9f 96  	jal	ra, 0x11dfe <__swsetup_r>
   1349a: 63 1c 05 12  	bne	a0, zero, 0x135d2 <__sfvwrite_r+0x1ca>
   1349e: 03 17 04 01  	lh	a4, 0x10(s0)
   134a2: a6 e4        	c.sdsp	s1, 0x48(sp)
   134a4: ca e0        	c.sdsp	s2, 0x40(sp)
   134a6: 4e fc        	c.sdsp	s3, 0x38(sp)
   134a8: 52 f8        	c.sdsp	s4, 0x30(sp)
   134aa: 93 77 27 00  	andi	a5, a4, 0x2
   134ae: 83 b4 0b 00  	ld	s1, 0x0(s7)
   134b2: d1 f7        	c.bnez	a5, 0x1343e <__sfvwrite_r+0x36>
   134b4: 5a f0        	c.sdsp	s6, 0x20(sp)
   134b6: 62 e8        	c.sdsp	s8, 0x10(sp)
   134b8: 66 e4        	c.sdsp	s9, 0x8(sp)
   134ba: 93 77 17 00  	andi	a5, a4, 0x1
   134be: ad eb        	c.bnez	a5, 0x13530 <__sfvwrite_r+0x128>
   134c0: 03 2a c4 00  	lw	s4, 0xc(s0)
   134c4: 1c 60        	c.ld	a5, 0x0(s0)
   134c6: 37 0b 00 80  	lui	s6, 0x80000
   134ca: 01 4c        	c.li	s8, 0x0
   134cc: 01 49        	c.li	s2, 0x0
   134ce: 13 4b fb ff  	xori	s6, s6, -0x1
   134d2: 3e 85        	c.mv	a0, a5
   134d4: 63 08 09 04  	beq	s2, zero, 0x13524 <__sfvwrite_r+0x11c>
   134d8: 93 76 07 20  	andi	a3, a4, 0x200
   134dc: 63 86 06 14  	beq	a3, zero, 0x13628 <__sfvwrite_r+0x220>
   134e0: 63 75 49 1b  	bgeu	s2, s4, 0x1368a <__sfvwrite_r+0x282>
   134e4: ca 8c        	c.mv	s9, s2
   134e6: 4a 8a        	c.mv	s4, s2
   134e8: 52 86        	c.mv	a2, s4
   134ea: e2 85        	c.mv	a1, s8
   134ec: ef 00 20 6e  	jal	ra, 0x13bce <memmove>
   134f0: 58 44        	c.lw	a4, 0xc(s0)
   134f2: 1c 60        	c.ld	a5, 0x0(s0)
   134f4: ca 89        	c.mv	s3, s2
   134f6: 3b 07 97 41  	subw	a4, a4, s9
   134fa: 3e 9a        	c.add	s4, a5
   134fc: 58 c4        	c.sw	a4, 0xc(s0)
   134fe: 23 30 44 01  	sd	s4, 0x0(s0)
   13502: 01 49        	c.li	s2, 0x0
   13504: 83 b7 0b 01  	ld	a5, 0x10(s7)
   13508: 4e 9c        	c.add	s8, s3
   1350a: b3 87 37 41  	sub	a5, a5, s3
   1350e: 23 b8 fb 00  	sd	a5, 0x10(s7)
   13512: c1 c3        	c.beqz	a5, 0x13592 <__sfvwrite_r+0x18a>
   13514: 1c 60        	c.ld	a5, 0x0(s0)
   13516: 03 17 04 01  	lh	a4, 0x10(s0)
   1351a: 03 2a c4 00  	lw	s4, 0xc(s0)
   1351e: 3e 85        	c.mv	a0, a5
   13520: e3 1c 09 fa  	bne	s2, zero, 0x134d8 <__sfvwrite_r+0xd0>
   13524: 03 bc 04 00  	ld	s8, 0x0(s1)
   13528: 03 b9 84 00  	ld	s2, 0x8(s1)
   1352c: c1 04        	c.addi	s1, 0x10
   1352e: 55 b7        	c.j	0x134d2 <__sfvwrite_r+0xca>
   13530: 01 4b        	c.li	s6, 0x0
   13532: 01 45        	c.li	a0, 0x0
   13534: 81 4c        	c.li	s9, 0x0
   13536: 01 4c        	c.li	s8, 0x0
   13538: 63 06 0c 0a  	beq	s8, zero, 0x135e4 <__sfvwrite_r+0x1dc>
   1353c: 45 cd        	c.beqz	a0, 0x135f4 <__sfvwrite_r+0x1ec>
   1353e: 5a 8a        	c.mv	s4, s6
   13540: 63 73 6c 01  	bgeu	s8, s6, 0x13546 <__sfvwrite_r+0x13e>
   13544: 62 8a        	c.mv	s4, s8
   13546: 08 60        	c.ld	a0, 0x0(s0)
   13548: 18 6c        	c.ld	a4, 0x18(s0)
   1354a: 5c 44        	c.lw	a5, 0xc(s0)
   1354c: 14 50        	c.lw	a3, 0x20(s0)
   1354e: 52 89        	c.mv	s2, s4
   13550: 63 76 a7 00  	bgeu	a4, a0, 0x1355c <__sfvwrite_r+0x154>
   13554: bb 89 d7 00  	addw	s3, a5, a3
   13558: 63 c9 49 0b  	blt	s3, s4, 0x1360a <__sfvwrite_r+0x202>
   1355c: 63 43 da 1a  	blt	s4, a3, 0x13702 <__sfvwrite_r+0x2fa>
   13560: 3c 60        	c.ld	a5, 0x40(s0)
   13562: 0c 78        	c.ld	a1, 0x30(s0)
   13564: 66 86        	c.mv	a2, s9
   13566: 56 85        	c.mv	a0, s5
   13568: 82 97        	c.jalr	a5
   1356a: 2a 89        	c.mv	s2, a0
   1356c: 63 56 a0 04  	bge	zero, a0, 0x135b8 <__sfvwrite_r+0x1b0>
   13570: 9b 07 05 00  	addiw	a5, a0, 0x0
   13574: 3b 0b fb 40  	subw	s6, s6, a5
   13578: 05 45        	c.li	a0, 0x1
   1357a: 63 0a 0b 02  	beq	s6, zero, 0x135ae <__sfvwrite_r+0x1a6>
   1357e: 83 b7 0b 01  	ld	a5, 0x10(s7)
   13582: ca 9c        	c.add	s9, s2
   13584: 33 0c 2c 41  	sub	s8, s8, s2
   13588: b3 87 27 41  	sub	a5, a5, s2
   1358c: 23 b8 fb 00  	sd	a5, 0x10(s7)
   13590: c5 f7        	c.bnez	a5, 0x13538 <__sfvwrite_r+0x130>
   13592: 02 7b        	c.ldsp	s6, 0x20(sp)
   13594: 42 6c        	c.ldsp	s8, 0x10(sp)
   13596: a2 6c        	c.ldsp	s9, 0x8(sp)
   13598: e6 60        	c.ldsp	ra, 0x58(sp)
   1359a: 46 64        	c.ldsp	s0, 0x50(sp)
   1359c: a6 64        	c.ldsp	s1, 0x48(sp)
   1359e: 06 69        	c.ldsp	s2, 0x40(sp)
   135a0: e2 79        	c.ldsp	s3, 0x38(sp)
   135a2: 42 7a        	c.ldsp	s4, 0x30(sp)
   135a4: a2 7a        	c.ldsp	s5, 0x28(sp)
   135a6: e2 6b        	c.ldsp	s7, 0x18(sp)
   135a8: 01 45        	c.li	a0, 0x0
   135aa: 25 61        	c.addi16sp	sp, 0x60
   135ac: 82 80        	c.jr	ra
   135ae: a2 85        	c.mv	a1, s0
   135b0: 56 85        	c.mv	a0, s5
   135b2: ef f0 1f d5  	jal	ra, 0x13302 <_fflush_r>
   135b6: 61 d5        	c.beqz	a0, 0x1357e <__sfvwrite_r+0x176>
   135b8: 83 17 04 01  	lh	a5, 0x10(s0)
   135bc: 02 7b        	c.ldsp	s6, 0x20(sp)
   135be: 42 6c        	c.ldsp	s8, 0x10(sp)
   135c0: a2 6c        	c.ldsp	s9, 0x8(sp)
   135c2: a6 64        	c.ldsp	s1, 0x48(sp)
   135c4: 06 69        	c.ldsp	s2, 0x40(sp)
   135c6: e2 79        	c.ldsp	s3, 0x38(sp)
   135c8: 42 7a        	c.ldsp	s4, 0x30(sp)
   135ca: 93 e7 07 04  	ori	a5, a5, 0x40
   135ce: 23 18 f4 00  	sh	a5, 0x10(s0)
   135d2: e6 60        	c.ldsp	ra, 0x58(sp)
   135d4: 46 64        	c.ldsp	s0, 0x50(sp)
   135d6: a2 7a        	c.ldsp	s5, 0x28(sp)
   135d8: e2 6b        	c.ldsp	s7, 0x18(sp)
   135da: 7d 55        	c.li	a0, -0x1
   135dc: 25 61        	c.addi16sp	sp, 0x60
   135de: 82 80        	c.jr	ra
   135e0: 01 45        	c.li	a0, 0x0
   135e2: 82 80        	c.jr	ra
   135e4: 03 bc 84 00  	ld	s8, 0x8(s1)
   135e8: a6 87        	c.mv	a5, s1
   135ea: c1 04        	c.addi	s1, 0x10
   135ec: e3 0c 0c fe  	beq	s8, zero, 0x135e4 <__sfvwrite_r+0x1dc>
   135f0: 83 bc 07 00  	ld	s9, 0x0(a5)
   135f4: 62 86        	c.mv	a2, s8
   135f6: a9 45        	c.li	a1, 0xa
   135f8: 66 85        	c.mv	a0, s9
   135fa: ef 00 60 48  	jal	ra, 0x13a80 <memchr>
   135fe: 63 07 05 14  	beq	a0, zero, 0x1374c <__sfvwrite_r+0x344>
   13602: 05 05        	c.addi	a0, 0x1
   13604: 3b 0b 95 41  	subw	s6, a0, s9
   13608: 1d bf        	c.j	0x1353e <__sfvwrite_r+0x136>
   1360a: e6 85        	c.mv	a1, s9
   1360c: 4e 86        	c.mv	a2, s3
   1360e: ef 00 00 5c  	jal	ra, 0x13bce <memmove>
   13612: 1c 60        	c.ld	a5, 0x0(s0)
   13614: a2 85        	c.mv	a1, s0
   13616: 56 85        	c.mv	a0, s5
   13618: ce 97        	c.add	a5, s3
   1361a: 1c e0        	c.sd	a5, 0x0(s0)
   1361c: ef f0 7f ce  	jal	ra, 0x13302 <_fflush_r>
   13620: 41 fd        	c.bnez	a0, 0x135b8 <__sfvwrite_r+0x1b0>
   13622: ce 87        	c.mv	a5, s3
   13624: 4e 89        	c.mv	s2, s3
   13626: b9 b7        	c.j	0x13574 <__sfvwrite_r+0x16c>
   13628: 18 6c        	c.ld	a4, 0x18(s0)
   1362a: 63 67 f7 02  	bltu	a4, a5, 0x13658 <__sfvwrite_r+0x250>
   1362e: 18 50        	c.lw	a4, 0x20(s0)
   13630: 63 64 e9 02  	bltu	s2, a4, 0x13658 <__sfvwrite_r+0x250>
   13634: ca 86        	c.mv	a3, s2
   13636: 63 73 2b 01  	bgeu	s6, s2, 0x1363c <__sfvwrite_r+0x234>
   1363a: da 86        	c.mv	a3, s6
   1363c: 3b e7 e6 02  	remw	a4, a3, a4
   13640: 3c 60        	c.ld	a5, 0x40(s0)
   13642: 0c 78        	c.ld	a1, 0x30(s0)
   13644: 62 86        	c.mv	a2, s8
   13646: 56 85        	c.mv	a0, s5
   13648: 99 9e        	c.subw	a3, a4
   1364a: 82 97        	c.jalr	a5
   1364c: aa 89        	c.mv	s3, a0
   1364e: e3 55 a0 f6  	bge	zero, a0, 0x135b8 <__sfvwrite_r+0x1b0>
   13652: 33 09 39 41  	sub	s2, s2, s3
   13656: 7d b5        	c.j	0x13504 <__sfvwrite_r+0xfc>
   13658: d2 89        	c.mv	s3, s4
   1365a: 63 73 49 01  	bgeu	s2, s4, 0x13660 <__sfvwrite_r+0x258>
   1365e: ca 89        	c.mv	s3, s2
   13660: 3e 85        	c.mv	a0, a5
   13662: 4e 86        	c.mv	a2, s3
   13664: e2 85        	c.mv	a1, s8
   13666: ef 00 80 56  	jal	ra, 0x13bce <memmove>
   1366a: 58 44        	c.lw	a4, 0xc(s0)
   1366c: 1c 60        	c.ld	a5, 0x0(s0)
   1366e: bb 06 37 41  	subw	a3, a4, s3
   13672: ce 97        	c.add	a5, s3
   13674: 54 c4        	c.sw	a3, 0xc(s0)
   13676: 1c e0        	c.sd	a5, 0x0(s0)
   13678: e9 fe        	c.bnez	a3, 0x13652 <__sfvwrite_r+0x24a>
   1367a: a2 85        	c.mv	a1, s0
   1367c: 56 85        	c.mv	a0, s5
   1367e: ef f0 5f c8  	jal	ra, 0x13302 <_fflush_r>
   13682: 1d f9        	c.bnez	a0, 0x135b8 <__sfvwrite_r+0x1b0>
   13684: 33 09 39 41  	sub	s2, s2, s3
   13688: b5 bd        	c.j	0x13504 <__sfvwrite_r+0xfc>
   1368a: 93 76 07 48  	andi	a3, a4, 0x480
   1368e: c1 ca        	c.beqz	a3, 0x1371e <__sfvwrite_r+0x316>
   13690: 10 50        	c.lw	a2, 0x20(s0)
   13692: 0c 6c        	c.ld	a1, 0x18(s0)
   13694: 9b 16 16 00  	slliw	a3, a2, 0x1
   13698: b1 9e        	c.addw	a3, a2
   1369a: 8d 8f        	c.sub	a5, a1
   1369c: 9b d9 f6 01  	srliw	s3, a3, 0x1f
   136a0: 9b 8c 07 00  	addiw	s9, a5, 0x0
   136a4: bb 89 d9 00  	addw	s3, s3, a3
   136a8: 93 86 1c 00  	addi	a3, s9, 0x1
   136ac: 9b d9 19 40  	sraiw	s3, s3, 0x1
   136b0: ca 96        	c.add	a3, s2
   136b2: 63 f6 d9 00  	bgeu	s3, a3, 0x136be <__sfvwrite_r+0x2b6>
   136b6: 9b 86 17 00  	addiw	a3, a5, 0x1
   136ba: bb 89 26 01  	addw	s3, a3, s2
   136be: 13 77 07 40  	andi	a4, a4, 0x400
   136c2: 25 c3        	c.beqz	a4, 0x13722 <__sfvwrite_r+0x31a>
   136c4: ce 85        	c.mv	a1, s3
   136c6: 56 85        	c.mv	a0, s5
   136c8: ef f0 cf be  	jal	ra, 0x12ab4 <_malloc_r>
   136cc: 2a 8a        	c.mv	s4, a0
   136ce: 49 c5        	c.beqz	a0, 0x13758 <__sfvwrite_r+0x350>
   136d0: 0c 6c        	c.ld	a1, 0x18(s0)
   136d2: 66 86        	c.mv	a2, s9
   136d4: ef e0 9f e0  	jal	ra, 0x124dc <memcpy>
   136d8: 83 57 04 01  	lhu	a5, 0x10(s0)
   136dc: 93 f7 f7 b7  	andi	a5, a5, -0x481
   136e0: 93 e7 07 08  	ori	a5, a5, 0x80
   136e4: 23 18 f4 00  	sh	a5, 0x10(s0)
   136e8: 33 05 9a 01  	add	a0, s4, s9
   136ec: bb 87 99 41  	subw	a5, s3, s9
   136f0: 23 3c 44 01  	sd	s4, 0x18(s0)
   136f4: 08 e0        	c.sd	a0, 0x0(s0)
   136f6: 23 20 34 03  	sw	s3, 0x20(s0)
   136fa: ca 8c        	c.mv	s9, s2
   136fc: 5c c4        	c.sw	a5, 0xc(s0)
   136fe: 4a 8a        	c.mv	s4, s2
   13700: e5 b3        	c.j	0x134e8 <__sfvwrite_r+0xe0>
   13702: 52 86        	c.mv	a2, s4
   13704: e6 85        	c.mv	a1, s9
   13706: ef 00 80 4c  	jal	ra, 0x13bce <memmove>
   1370a: 54 44        	c.lw	a3, 0xc(s0)
   1370c: 18 60        	c.ld	a4, 0x0(s0)
   1370e: 9b 07 0a 00  	addiw	a5, s4, 0x0
   13712: bb 86 46 41  	subw	a3, a3, s4
   13716: 52 97        	c.add	a4, s4
   13718: 54 c4        	c.sw	a3, 0xc(s0)
   1371a: 18 e0        	c.sd	a4, 0x0(s0)
   1371c: a1 bd        	c.j	0x13574 <__sfvwrite_r+0x16c>
   1371e: d2 8c        	c.mv	s9, s4
   13720: e1 b3        	c.j	0x134e8 <__sfvwrite_r+0xe0>
   13722: 4e 86        	c.mv	a2, s3
   13724: 56 85        	c.mv	a0, s5
   13726: ef 00 00 5f  	jal	ra, 0x13d16 <_realloc_r>
   1372a: 2a 8a        	c.mv	s4, a0
   1372c: 55 fd        	c.bnez	a0, 0x136e8 <__sfvwrite_r+0x2e0>
   1372e: 0c 6c        	c.ld	a1, 0x18(s0)
   13730: 56 85        	c.mv	a0, s5
   13732: ef f0 ef 93  	jal	ra, 0x12870 <_free_r>
   13736: 83 17 04 01  	lh	a5, 0x10(s0)
   1373a: 31 47        	c.li	a4, 0xc
   1373c: 02 7b        	c.ldsp	s6, 0x20(sp)
   1373e: 42 6c        	c.ldsp	s8, 0x10(sp)
   13740: a2 6c        	c.ldsp	s9, 0x8(sp)
   13742: 23 a0 ea 00  	sw	a4, 0x0(s5)
   13746: 93 f7 f7 f7  	andi	a5, a5, -0x81
   1374a: a5 bd        	c.j	0x135c2 <__sfvwrite_r+0x1ba>
   1374c: 1b 0b 1c 00  	addiw	s6, s8, 0x1
   13750: fd b3        	c.j	0x1353e <__sfvwrite_r+0x136>
   13752: 83 17 04 01  	lh	a5, 0x10(s0)
   13756: b5 b5        	c.j	0x135c2 <__sfvwrite_r+0x1ba>
   13758: 31 47        	c.li	a4, 0xc
   1375a: 83 17 04 01  	lh	a5, 0x10(s0)
   1375e: 02 7b        	c.ldsp	s6, 0x20(sp)
   13760: 42 6c        	c.ldsp	s8, 0x10(sp)
   13762: a2 6c        	c.ldsp	s9, 0x8(sp)
   13764: 23 a0 ea 00  	sw	a4, 0x0(s5)
   13768: a9 bd        	c.j	0x135c2 <__sfvwrite_r+0x1ba>

000000000001376a <__smakebuf_r>:
   1376a: 83 97 05 01  	lh	a5, 0x10(a1)
   1376e: 35 71        	c.addi16sp	sp, -0xa0
   13770: 22 e9        	c.sdsp	s0, 0x90(sp)
   13772: 06 ed        	c.sdsp	ra, 0x98(sp)
   13774: 13 f7 27 00  	andi	a4, a5, 0x2
   13778: 2e 84        	c.mv	s0, a1
   1377a: 19 cb        	c.beqz	a4, 0x13790 <__smakebuf_r+0x26>
   1377c: 93 87 75 07  	addi	a5, a1, 0x77
   13780: 9c e1        	c.sd	a5, 0x0(a1)
   13782: 9c ed        	c.sd	a5, 0x18(a1)
   13784: 85 47        	c.li	a5, 0x1
   13786: 9c d1        	c.sw	a5, 0x20(a1)
   13788: ea 60        	c.ldsp	ra, 0x98(sp)
   1378a: 4a 64        	c.ldsp	s0, 0x90(sp)
   1378c: 0d 61        	c.addi16sp	sp, 0xa0
   1378e: 82 80        	c.jr	ra
   13790: 83 95 25 01  	lh	a1, 0x12(a1)
   13794: 26 e5        	c.sdsp	s1, 0x88(sp)
   13796: 4a e1        	c.sdsp	s2, 0x80(sp)
   13798: ce fc        	c.sdsp	s3, 0x78(sp)
   1379a: d2 f8        	c.sdsp	s4, 0x70(sp)
   1379c: aa 84        	c.mv	s1, a0
   1379e: 63 c4 05 06  	blt	a1, zero, 0x13806 <__smakebuf_r+0x9c>
   137a2: 30 00        	c.addi4spn	a2, sp, 0x8
   137a4: ef e0 3f af  	jal	ra, 0x12296 <_fstat_r>
   137a8: 63 4d 05 04  	blt	a0, zero, 0x13802 <__smakebuf_r+0x98>
   137ac: 32 49        	c.lwsp	s2, 0xc(sp)
   137ae: bd 67        	c.lui	a5, 0xf
   137b0: 85 69        	c.lui	s3, 0x1
   137b2: 33 79 f9 00  	and	s2, s2, a5
   137b6: 89 67        	c.lui	a5, 0x2
   137b8: 33 09 f9 40  	sub	s2, s2, a5
   137bc: 13 39 19 00  	sltiu	s2, s2, 0x1
   137c0: 13 0a 00 40  	addi	s4, zero, 0x400
   137c4: 93 89 09 80  	addi	s3, s3, -0x800
   137c8: d2 85        	c.mv	a1, s4
   137ca: 26 85        	c.mv	a0, s1
   137cc: ef f0 8f ae  	jal	ra, 0x12ab4 <_malloc_r>
   137d0: 83 17 04 01  	lh	a5, 0x10(s0)
   137d4: 39 c5        	c.beqz	a0, 0x13822 <__smakebuf_r+0xb8>
   137d6: 93 e7 07 08  	ori	a5, a5, 0x80
   137da: 08 e0        	c.sd	a0, 0x0(s0)
   137dc: 08 ec        	c.sd	a0, 0x18(s0)
   137de: 23 18 f4 00  	sh	a5, 0x10(s0)
   137e2: 23 20 44 03  	sw	s4, 0x20(s0)
   137e6: 63 15 09 06  	bne	s2, zero, 0x13850 <__smakebuf_r+0xe6>
   137ea: b3 e7 37 01  	or	a5, a5, s3
   137ee: ea 60        	c.ldsp	ra, 0x98(sp)
   137f0: 23 18 f4 00  	sh	a5, 0x10(s0)
   137f4: 4a 64        	c.ldsp	s0, 0x90(sp)
   137f6: aa 64        	c.ldsp	s1, 0x88(sp)
   137f8: 0a 69        	c.ldsp	s2, 0x80(sp)
   137fa: e6 79        	c.ldsp	s3, 0x78(sp)
   137fc: 46 7a        	c.ldsp	s4, 0x70(sp)
   137fe: 0d 61        	c.addi16sp	sp, 0xa0
   13800: 82 80        	c.jr	ra
   13802: 83 17 04 01  	lh	a5, 0x10(s0)
   13806: 93 f7 07 08  	andi	a5, a5, 0x80
   1380a: 01 49        	c.li	s2, 0x0
   1380c: 95 cf        	c.beqz	a5, 0x13848 <__smakebuf_r+0xde>
   1380e: 13 0a 00 04  	addi	s4, zero, 0x40
   13812: d2 85        	c.mv	a1, s4
   13814: 26 85        	c.mv	a0, s1
   13816: ef f0 ef a9  	jal	ra, 0x12ab4 <_malloc_r>
   1381a: 83 17 04 01  	lh	a5, 0x10(s0)
   1381e: 81 49        	c.li	s3, 0x0
   13820: 5d f9        	c.bnez	a0, 0x137d6 <__smakebuf_r+0x6c>
   13822: 13 f7 07 20  	andi	a4, a5, 0x200
   13826: 15 ef        	c.bnez	a4, 0x13862 <__smakebuf_r+0xf8>
   13828: f1 9b        	c.andi	a5, -0x4
   1382a: 93 e7 27 00  	ori	a5, a5, 0x2
   1382e: 13 07 74 07  	addi	a4, s0, 0x77
   13832: 23 18 f4 00  	sh	a5, 0x10(s0)
   13836: 85 47        	c.li	a5, 0x1
   13838: aa 64        	c.ldsp	s1, 0x88(sp)
   1383a: 0a 69        	c.ldsp	s2, 0x80(sp)
   1383c: e6 79        	c.ldsp	s3, 0x78(sp)
   1383e: 46 7a        	c.ldsp	s4, 0x70(sp)
   13840: 18 e0        	c.sd	a4, 0x0(s0)
   13842: 18 ec        	c.sd	a4, 0x18(s0)
   13844: 1c d0        	c.sw	a5, 0x20(s0)
   13846: 89 b7        	c.j	0x13788 <__smakebuf_r+0x1e>
   13848: 13 0a 00 40  	addi	s4, zero, 0x400
   1384c: 81 49        	c.li	s3, 0x0
   1384e: ad bf        	c.j	0x137c8 <__smakebuf_r+0x5e>
   13850: 83 15 24 01  	lh	a1, 0x12(s0)
   13854: 26 85        	c.mv	a0, s1
   13856: ef 00 80 2d  	jal	ra, 0x13b2e <_isatty_r>
   1385a: 09 e9        	c.bnez	a0, 0x1386c <__smakebuf_r+0x102>
   1385c: 83 17 04 01  	lh	a5, 0x10(s0)
   13860: 69 b7        	c.j	0x137ea <__smakebuf_r+0x80>
   13862: aa 64        	c.ldsp	s1, 0x88(sp)
   13864: 0a 69        	c.ldsp	s2, 0x80(sp)
   13866: e6 79        	c.ldsp	s3, 0x78(sp)
   13868: 46 7a        	c.ldsp	s4, 0x70(sp)
   1386a: 39 bf        	c.j	0x13788 <__smakebuf_r+0x1e>
   1386c: 83 57 04 01  	lhu	a5, 0x10(s0)
   13870: f1 9b        	c.andi	a5, -0x4
   13872: 93 e7 17 00  	ori	a5, a5, 0x1
   13876: 9b 97 07 01  	slliw	a5, a5, 0x10
   1387a: 9b d7 07 41  	sraiw	a5, a5, 0x10
   1387e: b5 b7        	c.j	0x137ea <__smakebuf_r+0x80>

0000000000013880 <__swhatbuf_r>:
   13880: 75 71        	c.addi16sp	sp, -0x90
   13882: 22 e1        	c.sdsp	s0, 0x80(sp)
   13884: 2e 84        	c.mv	s0, a1
   13886: 83 95 25 01  	lh	a1, 0x12(a1)
   1388a: a6 fc        	c.sdsp	s1, 0x78(sp)
   1388c: ca f8        	c.sdsp	s2, 0x70(sp)
   1388e: 06 e5        	c.sdsp	ra, 0x88(sp)
   13890: b2 84        	c.mv	s1, a2
   13892: 36 89        	c.mv	s2, a3
   13894: 63 cc 05 02  	blt	a1, zero, 0x138cc <__swhatbuf_r+0x4c>
   13898: 30 00        	c.addi4spn	a2, sp, 0x8
   1389a: ef e0 df 9f  	jal	ra, 0x12296 <_fstat_r>
   1389e: 63 47 05 02  	blt	a0, zero, 0x138cc <__swhatbuf_r+0x4c>
   138a2: b2 47        	c.lwsp	a5, 0xc(sp)
   138a4: 3d 67        	c.lui	a4, 0xf
   138a6: aa 60        	c.ldsp	ra, 0x88(sp)
   138a8: f9 8f        	c.and	a5, a4
   138aa: 09 67        	c.lui	a4, 0x2
   138ac: 99 8f        	c.sub	a5, a4
   138ae: 0a 64        	c.ldsp	s0, 0x80(sp)
   138b0: 93 b7 17 00  	sltiu	a5, a5, 0x1
   138b4: 23 20 f9 00  	sw	a5, 0x0(s2)
   138b8: 13 07 00 40  	addi	a4, zero, 0x400
   138bc: 98 e0        	c.sd	a4, 0x0(s1)
   138be: 05 65        	c.lui	a0, 0x1
   138c0: e6 74        	c.ldsp	s1, 0x78(sp)
   138c2: 46 79        	c.ldsp	s2, 0x70(sp)
   138c4: 13 05 05 80  	addi	a0, a0, -0x800
   138c8: 49 61        	c.addi16sp	sp, 0x90
   138ca: 82 80        	c.jr	ra
   138cc: 83 57 04 01  	lhu	a5, 0x10(s0)
   138d0: 93 f7 07 08  	andi	a5, a5, 0x80
   138d4: 91 cf        	c.beqz	a5, 0x138f0 <__swhatbuf_r+0x70>
   138d6: aa 60        	c.ldsp	ra, 0x88(sp)
   138d8: 0a 64        	c.ldsp	s0, 0x80(sp)
   138da: 81 47        	c.li	a5, 0x0
   138dc: 23 20 f9 00  	sw	a5, 0x0(s2)
   138e0: 13 07 00 04  	addi	a4, zero, 0x40
   138e4: 98 e0        	c.sd	a4, 0x0(s1)
   138e6: 46 79        	c.ldsp	s2, 0x70(sp)
   138e8: e6 74        	c.ldsp	s1, 0x78(sp)
   138ea: 01 45        	c.li	a0, 0x0
   138ec: 49 61        	c.addi16sp	sp, 0x90
   138ee: 82 80        	c.jr	ra
   138f0: aa 60        	c.ldsp	ra, 0x88(sp)
   138f2: 0a 64        	c.ldsp	s0, 0x80(sp)
   138f4: 23 20 f9 00  	sw	a5, 0x0(s2)
   138f8: 13 07 00 40  	addi	a4, zero, 0x400
   138fc: 98 e0        	c.sd	a4, 0x0(s1)
   138fe: 46 79        	c.ldsp	s2, 0x70(sp)
   13900: e6 74        	c.ldsp	s1, 0x78(sp)
   13902: 01 45        	c.li	a0, 0x0
   13904: 49 61        	c.addi16sp	sp, 0x90
   13906: 82 80        	c.jr	ra

0000000000013908 <lflush>:
   13908: 83 d7 05 01  	lhu	a5, 0x10(a1)
   1390c: 25 47        	c.li	a4, 0x9
   1390e: a5 8b        	c.andi	a5, 0x9
   13910: 63 84 e7 00  	beq	a5, a4, 0x13918 <lflush+0x10>
   13914: 01 45        	c.li	a0, 0x0
   13916: 82 80        	c.jr	ra
   13918: 03 b5 81 18  	ld	a0, 0x188(gp)
   1391c: 6f f0 7f 9e  	jal	zero, 0x13302 <_fflush_r>

0000000000013920 <__srefill_r>:
   13920: 01 11        	c.addi	sp, -0x20
   13922: 22 e8        	c.sdsp	s0, 0x10(sp)
   13924: 26 e4        	c.sdsp	s1, 0x8(sp)
   13926: 06 ec        	c.sdsp	ra, 0x18(sp)
   13928: aa 84        	c.mv	s1, a0
   1392a: 2e 84        	c.mv	s0, a1
   1392c: 01 c5        	c.beqz	a0, 0x13934 <__srefill_r+0x14>
   1392e: 3c 65        	c.ld	a5, 0x48(a0)
   13930: 63 8a 07 10  	beq	a5, zero, 0x13a44 <__srefill_r+0x124>
   13934: 83 17 04 01  	lh	a5, 0x10(s0)
   13938: 13 97 27 03  	slli	a4, a5, 0x32
   1393c: 63 41 07 02  	blt	a4, zero, 0x1395e <__srefill_r+0x3e>
   13940: 03 27 c4 0a  	lw	a4, 0xac(s0)
   13944: 09 66        	c.lui	a2, 0x2
   13946: f9 76        	c.lui	a3, 0xffffe
   13948: d1 8f        	c.or	a5, a2
   1394a: fd 16        	c.addi	a3, -0x1
   1394c: 9b 97 07 01  	slliw	a5, a5, 0x10
   13950: 9b d7 07 41  	sraiw	a5, a5, 0x10
   13954: 75 8f        	c.and	a4, a3
   13956: 23 18 f4 00  	sh	a5, 0x10(s0)
   1395a: 23 26 e4 0a  	sw	a4, 0xac(s0)
   1395e: 23 24 04 00  	sw	zero, 0x8(s0)
   13962: 13 f7 07 02  	andi	a4, a5, 0x20
   13966: 63 1a 07 0e  	bne	a4, zero, 0x13a5a <__srefill_r+0x13a>
   1396a: 13 f7 47 00  	andi	a4, a5, 0x4
   1396e: 31 e7        	c.bnez	a4, 0x139ba <__srefill_r+0x9a>
   13970: 13 f7 07 01  	andi	a4, a5, 0x10
   13974: 63 05 07 0e  	beq	a4, zero, 0x13a5e <__srefill_r+0x13e>
   13978: 13 f7 87 00  	andi	a4, a5, 0x8
   1397c: 55 e7        	c.bnez	a4, 0x13a28 <__srefill_r+0x108>
   1397e: 4a e0        	c.sdsp	s2, 0x0(sp)
   13980: 93 e7 47 00  	ori	a5, a5, 0x4
   13984: 23 18 f4 00  	sh	a5, 0x10(s0)
   13988: 1c 6c        	c.ld	a5, 0x18(s0)
   1398a: a9 cb        	c.beqz	a5, 0x139dc <__srefill_r+0xbc>
   1398c: 03 19 04 01  	lh	s2, 0x10(s0)
   13990: 93 77 39 00  	andi	a5, s2, 0x3
   13994: a9 ef        	c.bnez	a5, 0x139ee <__srefill_r+0xce>
   13996: 10 6c        	c.ld	a2, 0x18(s0)
   13998: 1c 7c        	c.ld	a5, 0x38(s0)
   1399a: 14 50        	c.lw	a3, 0x20(s0)
   1399c: 0c 78        	c.ld	a1, 0x30(s0)
   1399e: 10 e0        	c.sd	a2, 0x0(s0)
   139a0: 26 85        	c.mv	a0, s1
   139a2: 82 97        	c.jalr	a5
   139a4: 01 25        	c.addiw	a0, 0x0
   139a6: 08 c4        	c.sw	a0, 0x8(s0)
   139a8: 63 51 a0 0a  	bge	zero, a0, 0x13a4a <__srefill_r+0x12a>
   139ac: 02 69        	c.ldsp	s2, 0x0(sp)
   139ae: 01 45        	c.li	a0, 0x0
   139b0: e2 60        	c.ldsp	ra, 0x18(sp)
   139b2: 42 64        	c.ldsp	s0, 0x10(sp)
   139b4: a2 64        	c.ldsp	s1, 0x8(sp)
   139b6: 05 61        	c.addi16sp	sp, 0x20
   139b8: 82 80        	c.jr	ra
   139ba: 2c 6c        	c.ld	a1, 0x58(s0)
   139bc: 89 cd        	c.beqz	a1, 0x139d6 <__srefill_r+0xb6>
   139be: 93 07 44 07  	addi	a5, s0, 0x74
   139c2: 63 85 f5 00  	beq	a1, a5, 0x139cc <__srefill_r+0xac>
   139c6: 26 85        	c.mv	a0, s1
   139c8: ef e0 9f ea  	jal	ra, 0x12870 <_free_r>
   139cc: 3c 58        	c.lw	a5, 0x70(s0)
   139ce: 23 3c 04 04  	sd	zero, 0x58(s0)
   139d2: 1c c4        	c.sw	a5, 0x8(s0)
   139d4: b9 e7        	c.bnez	a5, 0x13a22 <__srefill_r+0x102>
   139d6: 1c 6c        	c.ld	a5, 0x18(s0)
   139d8: 4a e0        	c.sdsp	s2, 0x0(sp)
   139da: cd fb        	c.bnez	a5, 0x1398c <__srefill_r+0x6c>
   139dc: a2 85        	c.mv	a1, s0
   139de: 26 85        	c.mv	a0, s1
   139e0: ef f0 bf d8  	jal	ra, 0x1376a <__smakebuf_r>
   139e4: 03 19 04 01  	lh	s2, 0x10(s0)
   139e8: 93 77 39 00  	andi	a5, s2, 0x3
   139ec: cd d7        	c.beqz	a5, 0x13996 <__srefill_r+0x76>
   139ee: 85 47        	c.li	a5, 0x1
   139f0: 5d 66        	c.lui	a2, 0x17
   139f2: d1 65        	c.lui	a1, 0x14
   139f4: 5d 65        	c.lui	a0, 0x17
   139f6: 23 18 f4 00  	sh	a5, 0x10(s0)
   139fa: 13 06 86 78  	addi	a2, a2, 0x788
   139fe: 93 85 85 90  	addi	a1, a1, -0x6f8
   13a02: 13 05 05 7a  	addi	a0, a0, 0x7a0
   13a06: ef d0 df f1  	jal	ra, 0x11922 <_fwalk_sglue>
   13a0a: a5 47        	c.li	a5, 0x9
   13a0c: 23 18 24 01  	sh	s2, 0x10(s0)
   13a10: 13 79 99 00  	andi	s2, s2, 0x9
   13a14: e3 11 f9 f8  	bne	s2, a5, 0x13996 <__srefill_r+0x76>
   13a18: a2 85        	c.mv	a1, s0
   13a1a: 26 85        	c.mv	a0, s1
   13a1c: ef f0 ef f4  	jal	ra, 0x1316a <__sflush_r>
   13a20: 9d bf        	c.j	0x13996 <__srefill_r+0x76>
   13a22: 3c 74        	c.ld	a5, 0x68(s0)
   13a24: 1c e0        	c.sd	a5, 0x0(s0)
   13a26: 61 b7        	c.j	0x139ae <__srefill_r+0x8e>
   13a28: a2 85        	c.mv	a1, s0
   13a2a: 26 85        	c.mv	a0, s1
   13a2c: ef f0 7f 8d  	jal	ra, 0x13302 <_fflush_r>
   13a30: 0d e5        	c.bnez	a0, 0x13a5a <__srefill_r+0x13a>
   13a32: 83 17 04 01  	lh	a5, 0x10(s0)
   13a36: 4a e0        	c.sdsp	s2, 0x0(sp)
   13a38: 23 26 04 00  	sw	zero, 0xc(s0)
   13a3c: 23 24 04 02  	sw	zero, 0x28(s0)
   13a40: dd 9b        	c.andi	a5, -0x9
   13a42: 3d bf        	c.j	0x13980 <__srefill_r+0x60>
   13a44: ef d0 bf d6  	jal	ra, 0x117ae <__sinit>
   13a48: f5 b5        	c.j	0x13934 <__srefill_r+0x14>
   13a4a: 83 17 04 01  	lh	a5, 0x10(s0)
   13a4e: 05 e1        	c.bnez	a0, 0x13a6e <__srefill_r+0x14e>
   13a50: 02 69        	c.ldsp	s2, 0x0(sp)
   13a52: 93 e7 07 02  	ori	a5, a5, 0x20
   13a56: 23 18 f4 00  	sh	a5, 0x10(s0)
   13a5a: 7d 55        	c.li	a0, -0x1
   13a5c: 91 bf        	c.j	0x139b0 <__srefill_r+0x90>
   13a5e: 25 47        	c.li	a4, 0x9
   13a60: 98 c0        	c.sw	a4, 0x0(s1)
   13a62: 93 e7 07 04  	ori	a5, a5, 0x40
   13a66: 23 18 f4 00  	sh	a5, 0x10(s0)
   13a6a: 7d 55        	c.li	a0, -0x1
   13a6c: 91 b7        	c.j	0x139b0 <__srefill_r+0x90>
   13a6e: 93 e7 07 04  	ori	a5, a5, 0x40
   13a72: 02 69        	c.ldsp	s2, 0x0(sp)
   13a74: 23 24 04 00  	sw	zero, 0x8(s0)
   13a78: 23 18 f4 00  	sh	a5, 0x10(s0)
   13a7c: 7d 55        	c.li	a0, -0x1
   13a7e: 0d bf        	c.j	0x139b0 <__srefill_r+0x90>

0000000000013a80 <memchr>:
   13a80: 93 77 75 00  	andi	a5, a0, 0x7
   13a84: 93 f6 f5 0f  	andi	a3, a1, 0xff
   13a88: 95 c3        	c.beqz	a5, 0x13aac <memchr+0x2c>
   13a8a: 93 07 f6 ff  	addi	a5, a2, -0x1
   13a8e: 05 c6        	c.beqz	a2, 0x13ab6 <memchr+0x36>
   13a90: 7d 56        	c.li	a2, -0x1
   13a92: 01 a8        	c.j	0x13aa2 <memchr+0x22>
   13a94: 05 05        	c.addi	a0, 0x1
   13a96: 13 77 75 00  	andi	a4, a0, 0x7
   13a9a: 11 cb        	c.beqz	a4, 0x13aae <memchr+0x2e>
   13a9c: fd 17        	c.addi	a5, -0x1
   13a9e: 63 8c c7 00  	beq	a5, a2, 0x13ab6 <memchr+0x36>
   13aa2: 03 47 05 00  	lbu	a4, 0x0(a0)
   13aa6: e3 17 d7 fe  	bne	a4, a3, 0x13a94 <memchr+0x14>
   13aaa: 82 80        	c.jr	ra
   13aac: b2 87        	c.mv	a5, a2
   13aae: 1d 47        	c.li	a4, 0x7
   13ab0: 63 65 f7 00  	bltu	a4, a5, 0x13aba <memchr+0x3a>
   13ab4: bd e3        	c.bnez	a5, 0x13b1a <memchr+0x9a>
   13ab6: 01 45        	c.li	a0, 0x0
   13ab8: 82 80        	c.jr	ra
   13aba: 93 f5 f5 0f  	andi	a1, a1, 0xff
   13abe: 37 18 10 f0  	lui	a6, 0xf0101
   13ac2: 13 97 85 00  	slli	a4, a1, 0x8
   13ac6: b7 08 ff fe  	lui	a7, 0xfeff0
   13aca: 12 08        	c.slli	a6, 0x4
   13acc: 2e 97        	c.add	a4, a1
   13ace: 93 88 f8 ef  	addi	a7, a7, -0x101
   13ad2: 13 08 18 10  	addi	a6, a6, 0x101
   13ad6: 93 15 07 01  	slli	a1, a4, 0x10
   13ada: c2 08        	c.slli	a7, 0x10
   13adc: 42 08        	c.slli	a6, 0x10
   13ade: ba 95        	c.add	a1, a4
   13ae0: 93 88 f8 ef  	addi	a7, a7, -0x101
   13ae4: 13 08 18 10  	addi	a6, a6, 0x101
   13ae8: 13 97 05 02  	slli	a4, a1, 0x20
   13aec: c2 08        	c.slli	a7, 0x10
   13aee: 3e 08        	c.slli	a6, 0xf
   13af0: ba 95        	c.add	a1, a4
   13af2: 93 88 f8 ef  	addi	a7, a7, -0x101
   13af6: 13 08 08 08  	addi	a6, a6, 0x80
   13afa: 1d 43        	c.li	t1, 0x7
   13afc: 29 a0        	c.j	0x13b06 <memchr+0x86>
   13afe: e1 17        	c.addi	a5, -0x8
   13b00: 21 05        	c.addi	a0, 0x8
   13b02: e3 79 f3 fa  	bgeu	t1, a5, 0x13ab4 <memchr+0x34>
   13b06: 18 61        	c.ld	a4, 0x0(a0)
   13b08: 2d 8f        	c.xor	a4, a1
   13b0a: 33 06 17 01  	add	a2, a4, a7
   13b0e: 13 47 f7 ff  	xori	a4, a4, -0x1
   13b12: 71 8f        	c.and	a4, a2
   13b14: 33 77 07 01  	and	a4, a4, a6
   13b18: 7d d3        	c.beqz	a4, 0x13afe <memchr+0x7e>
   13b1a: aa 97        	c.add	a5, a0
   13b1c: 21 a0        	c.j	0x13b24 <memchr+0xa4>
   13b1e: 05 05        	c.addi	a0, 0x1
   13b20: e3 8b a7 f8  	beq	a5, a0, 0x13ab6 <memchr+0x36>
   13b24: 03 47 05 00  	lbu	a4, 0x0(a0)
   13b28: e3 1b d7 fe  	bne	a4, a3, 0x13b1e <memchr+0x9e>
   13b2c: 82 80        	c.jr	ra

0000000000013b2e <_isatty_r>:
   13b2e: 01 11        	c.addi	sp, -0x20
   13b30: 22 e8        	c.sdsp	s0, 0x10(sp)
   13b32: 26 e4        	c.sdsp	s1, 0x8(sp)
   13b34: 2a 84        	c.mv	s0, a0
   13b36: 2e 85        	c.mv	a0, a1
   13b38: 06 ec        	c.sdsp	ra, 0x18(sp)
   13b3a: 23 a4 01 1a  	sw	zero, 0x1a8(gp)
   13b3e: ef 00 e0 65  	jal	ra, 0x1419c <_isatty>
   13b42: fd 57        	c.li	a5, -0x1
   13b44: 63 07 f5 00  	beq	a0, a5, 0x13b52 <_isatty_r+0x24>
   13b48: e2 60        	c.ldsp	ra, 0x18(sp)
   13b4a: 42 64        	c.ldsp	s0, 0x10(sp)
   13b4c: a2 64        	c.ldsp	s1, 0x8(sp)
   13b4e: 05 61        	c.addi16sp	sp, 0x20
   13b50: 82 80        	c.jr	ra
   13b52: 83 a7 81 1a  	lw	a5, 0x1a8(gp)
   13b56: ed db        	c.beqz	a5, 0x13b48 <_isatty_r+0x1a>
   13b58: e2 60        	c.ldsp	ra, 0x18(sp)
   13b5a: 1c c0        	c.sw	a5, 0x0(s0)
   13b5c: 42 64        	c.ldsp	s0, 0x10(sp)
   13b5e: a2 64        	c.ldsp	s1, 0x8(sp)
   13b60: 05 61        	c.addi16sp	sp, 0x20
   13b62: 82 80        	c.jr	ra

0000000000013b64 <_sbrk_r>:
   13b64: 01 11        	c.addi	sp, -0x20
   13b66: 22 e8        	c.sdsp	s0, 0x10(sp)
   13b68: 26 e4        	c.sdsp	s1, 0x8(sp)
   13b6a: 2a 84        	c.mv	s0, a0
   13b6c: 2e 85        	c.mv	a0, a1
   13b6e: 06 ec        	c.sdsp	ra, 0x18(sp)
   13b70: 23 a4 01 1a  	sw	zero, 0x1a8(gp)
   13b74: ef 00 20 6d  	jal	ra, 0x14246 <_sbrk>
   13b78: fd 57        	c.li	a5, -0x1
   13b7a: 63 07 f5 00  	beq	a0, a5, 0x13b88 <_sbrk_r+0x24>
   13b7e: e2 60        	c.ldsp	ra, 0x18(sp)
   13b80: 42 64        	c.ldsp	s0, 0x10(sp)
   13b82: a2 64        	c.ldsp	s1, 0x8(sp)
   13b84: 05 61        	c.addi16sp	sp, 0x20
   13b86: 82 80        	c.jr	ra
   13b88: 83 a7 81 1a  	lw	a5, 0x1a8(gp)
   13b8c: ed db        	c.beqz	a5, 0x13b7e <_sbrk_r+0x1a>
   13b8e: e2 60        	c.ldsp	ra, 0x18(sp)
   13b90: 1c c0        	c.sw	a5, 0x0(s0)
   13b92: 42 64        	c.ldsp	s0, 0x10(sp)
   13b94: a2 64        	c.ldsp	s1, 0x8(sp)
   13b96: 05 61        	c.addi16sp	sp, 0x20
   13b98: 82 80        	c.jr	ra

0000000000013b9a <__libc_fini_array>:
   13b9a: 01 11        	c.addi	sp, -0x20
   13b9c: 22 e8        	c.sdsp	s0, 0x10(sp)
   13b9e: dd 67        	c.lui	a5, 0x17
   13ba0: 5d 64        	c.lui	s0, 0x17
   13ba2: 93 87 07 78  	addi	a5, a5, 0x780
   13ba6: 13 04 84 78  	addi	s0, s0, 0x788
   13baa: 1d 8c        	c.sub	s0, a5
   13bac: 26 e4        	c.sdsp	s1, 0x8(sp)
   13bae: 06 ec        	c.sdsp	ra, 0x18(sp)
   13bb0: 93 54 34 40  	srai	s1, s0, 0x3
   13bb4: 81 c8        	c.beqz	s1, 0x13bc4 <__libc_fini_array+0x2a>
   13bb6: 61 14        	c.addi	s0, -0x8
   13bb8: 3e 94        	c.add	s0, a5
   13bba: 1c 60        	c.ld	a5, 0x0(s0)
   13bbc: fd 14        	c.addi	s1, -0x1
   13bbe: 61 14        	c.addi	s0, -0x8
   13bc0: 82 97        	c.jalr	a5
   13bc2: e5 fc        	c.bnez	s1, 0x13bba <__libc_fini_array+0x20>
   13bc4: e2 60        	c.ldsp	ra, 0x18(sp)
   13bc6: 42 64        	c.ldsp	s0, 0x10(sp)
   13bc8: a2 64        	c.ldsp	s1, 0x8(sp)
   13bca: 05 61        	c.addi16sp	sp, 0x20
   13bcc: 82 80        	c.jr	ra

0000000000013bce <memmove>:
   13bce: 63 f2 a5 02  	bgeu	a1, a0, 0x13bf2 <memmove+0x24>
   13bd2: 33 87 c5 00  	add	a4, a1, a2
   13bd6: 63 7e e5 00  	bgeu	a0, a4, 0x13bf2 <memmove+0x24>
   13bda: b3 07 c5 00  	add	a5, a0, a2
   13bde: 1d ca        	c.beqz	a2, 0x13c14 <memmove+0x46>
   13be0: 83 46 f7 ff  	lbu	a3, -0x1(a4)
   13be4: fd 17        	c.addi	a5, -0x1
   13be6: 7d 17        	c.addi	a4, -0x1
   13be8: 23 80 d7 00  	sb	a3, 0x0(a5)
   13bec: e3 1a f5 fe  	bne	a0, a5, 0x13be0 <memmove+0x12>
   13bf0: 82 80        	c.jr	ra
   13bf2: fd 47        	c.li	a5, 0x1f
   13bf4: 63 e1 c7 02  	bltu	a5, a2, 0x13c16 <memmove+0x48>
   13bf8: aa 87        	c.mv	a5, a0
   13bfa: 93 06 f6 ff  	addi	a3, a2, -0x1
   13bfe: 51 ce        	c.beqz	a2, 0x13c9a <memmove+0xcc>
   13c00: 85 06        	c.addi	a3, 0x1
   13c02: be 96        	c.add	a3, a5
   13c04: 03 c7 05 00  	lbu	a4, 0x0(a1)
   13c08: 85 07        	c.addi	a5, 0x1
   13c0a: 85 05        	c.addi	a1, 0x1
   13c0c: a3 8f e7 fe  	sb	a4, -0x1(a5)
   13c10: e3 9a d7 fe  	bne	a5, a3, 0x13c04 <memmove+0x36>
   13c14: 82 80        	c.jr	ra
   13c16: b3 67 b5 00  	or	a5, a0, a1
   13c1a: 9d 8b        	c.andi	a5, 0x7
   13c1c: bd eb        	c.bnez	a5, 0x13c92 <memmove+0xc4>
   13c1e: 93 08 06 fe  	addi	a7, a2, -0x20
   13c22: 93 f8 08 fe  	andi	a7, a7, -0x20
   13c26: 93 88 08 02  	addi	a7, a7, 0x20
   13c2a: b3 06 15 01  	add	a3, a0, a7
   13c2e: 2e 87        	c.mv	a4, a1
   13c30: aa 87        	c.mv	a5, a0
   13c32: 03 38 07 00  	ld	a6, 0x0(a4)
   13c36: 13 07 07 02  	addi	a4, a4, 0x20
   13c3a: 93 87 07 02  	addi	a5, a5, 0x20
   13c3e: 23 b0 07 ff  	sd	a6, -0x20(a5)
   13c42: 03 38 87 fe  	ld	a6, -0x18(a4)
   13c46: 23 b4 07 ff  	sd	a6, -0x18(a5)
   13c4a: 03 38 07 ff  	ld	a6, -0x10(a4)
   13c4e: 23 b8 07 ff  	sd	a6, -0x10(a5)
   13c52: 03 38 87 ff  	ld	a6, -0x8(a4)
   13c56: 23 bc 07 ff  	sd	a6, -0x8(a5)
   13c5a: e3 9c d7 fc  	bne	a5, a3, 0x13c32 <memmove+0x64>
   13c5e: 13 78 86 01  	andi	a6, a2, 0x18
   13c62: c6 95        	c.add	a1, a7
   13c64: 13 77 f6 01  	andi	a4, a2, 0x1f
   13c68: 63 0a 08 02  	beq	a6, zero, 0x13c9c <memmove+0xce>
   13c6c: 13 08 87 ff  	addi	a6, a4, -0x8
   13c70: 13 78 88 ff  	andi	a6, a6, -0x8
   13c74: 21 08        	c.addi	a6, 0x8
   13c76: b3 87 06 01  	add	a5, a3, a6
   13c7a: 2e 87        	c.mv	a4, a1
   13c7c: 83 38 07 00  	ld	a7, 0x0(a4)
   13c80: a1 06        	c.addi	a3, 0x8
   13c82: 21 07        	c.addi	a4, 0x8
   13c84: 23 bc 16 ff  	sd	a7, -0x8(a3)
   13c88: e3 9a f6 fe  	bne	a3, a5, 0x13c7c <memmove+0xae>
   13c8c: 1d 8a        	c.andi	a2, 0x7
   13c8e: c2 95        	c.add	a1, a6
   13c90: ad b7        	c.j	0x13bfa <memmove+0x2c>
   13c92: 93 06 f6 ff  	addi	a3, a2, -0x1
   13c96: aa 87        	c.mv	a5, a0
   13c98: a5 b7        	c.j	0x13c00 <memmove+0x32>
   13c9a: 82 80        	c.jr	ra
   13c9c: 3a 86        	c.mv	a2, a4
   13c9e: b1 bf        	c.j	0x13bfa <memmove+0x2c>

0000000000013ca0 <__register_exitproc>:
   13ca0: 83 b7 01 1b  	ld	a5, 0x1b0(gp)
   13ca4: b1 c3        	c.beqz	a5, 0x13ce8 <__register_exitproc+0x48>
   13ca6: 98 47        	c.lw	a4, 0x8(a5)
   13ca8: 7d 48        	c.li	a6, 0x1f
   13caa: 63 44 e8 06  	blt	a6, a4, 0x13d12 <__register_exitproc+0x72>
   13cae: 05 c5        	c.beqz	a0, 0x13cd6 <__register_exitproc+0x36>
   13cb0: 13 18 37 00  	slli	a6, a4, 0x3
   13cb4: 3e 98        	c.add	a6, a5
   13cb6: 23 38 c8 10  	sd	a2, 0x110(a6)
   13cba: 83 a8 07 31  	lw	a7, 0x310(a5)
   13cbe: 05 46        	c.li	a2, 0x1
   13cc0: 3b 16 e6 00  	sllw	a2, a2, a4
   13cc4: b3 e8 c8 00  	or	a7, a7, a2
   13cc8: 23 a8 17 31  	sw	a7, 0x310(a5)
   13ccc: 23 38 d8 20  	sd	a3, 0x210(a6)
   13cd0: 89 46        	c.li	a3, 0x2
   13cd2: 63 02 d5 02  	beq	a0, a3, 0x13cf6 <__register_exitproc+0x56>
   13cd6: 93 06 27 00  	addi	a3, a4, 0x2
   13cda: 8e 06        	c.slli	a3, 0x3
   13cdc: 05 27        	c.addiw	a4, 0x1
   13cde: 98 c7        	c.sw	a4, 0x8(a5)
   13ce0: b6 97        	c.add	a5, a3
   13ce2: 8c e3        	c.sd	a1, 0x0(a5)
   13ce4: 01 45        	c.li	a0, 0x0
   13ce6: 82 80        	c.jr	ra
   13ce8: 13 88 81 44  	addi	a6, gp, 0x448
   13cec: 23 b8 01 1b  	sd	a6, 0x1b0(gp)
   13cf0: 93 87 81 44  	addi	a5, gp, 0x448
   13cf4: 4d bf        	c.j	0x13ca6 <__register_exitproc+0x6>
   13cf6: 83 a6 47 31  	lw	a3, 0x314(a5)
   13cfa: 01 45        	c.li	a0, 0x0
   13cfc: d1 8e        	c.or	a3, a2
   13cfe: 23 aa d7 30  	sw	a3, 0x314(a5)
   13d02: 93 06 27 00  	addi	a3, a4, 0x2
   13d06: 8e 06        	c.slli	a3, 0x3
   13d08: 05 27        	c.addiw	a4, 0x1
   13d0a: 98 c7        	c.sw	a4, 0x8(a5)
   13d0c: b6 97        	c.add	a5, a3
   13d0e: 8c e3        	c.sd	a1, 0x0(a5)
   13d10: 82 80        	c.jr	ra
   13d12: 7d 55        	c.li	a0, -0x1
   13d14: 82 80        	c.jr	ra

0000000000013d16 <_realloc_r>:
   13d16: 5d 71        	c.addi16sp	sp, -0x50
   13d18: 4a f8        	c.sdsp	s2, 0x30(sp)
   13d1a: 86 e4        	c.sdsp	ra, 0x48(sp)
   13d1c: 32 89        	c.mv	s2, a2
   13d1e: 63 83 05 16  	beq	a1, zero, 0x13e84 <_realloc_r+0x16e>
   13d22: a2 e0        	c.sdsp	s0, 0x40(sp)
   13d24: 26 fc        	c.sdsp	s1, 0x38(sp)
   13d26: 2e 84        	c.mv	s0, a1
   13d28: 4e f4        	c.sdsp	s3, 0x28(sp)
   13d2a: 52 f0        	c.sdsp	s4, 0x20(sp)
   13d2c: 56 ec        	c.sdsp	s5, 0x18(sp)
   13d2e: aa 89        	c.mv	s3, a0
   13d30: ef f0 6f b8  	jal	ra, 0x130b6 <__malloc_lock>
   13d34: 83 37 84 ff  	ld	a5, -0x8(s0)
   13d38: 93 04 79 01  	addi	s1, s2, 0x17
   13d3c: 13 07 e0 02  	addi	a4, zero, 0x2e
   13d40: 93 0a 04 ff  	addi	s5, s0, -0x10
   13d44: 13 fa c7 ff  	andi	s4, a5, -0x4
   13d48: 63 73 97 0c  	bgeu	a4, s1, 0x13e0e <_realloc_r+0xf8>
   13d4c: 37 07 00 80  	lui	a4, 0x80000
   13d50: c1 98        	c.andi	s1, -0x10
   13d52: 13 47 f7 ff  	xori	a4, a4, -0x1
   13d56: 63 60 97 0c  	bltu	a4, s1, 0x13e16 <_realloc_r+0x100>
   13d5a: 63 ee 24 0b  	bltu	s1, s2, 0x13e16 <_realloc_r+0x100>
   13d5e: 63 57 9a 0c  	bge	s4, s1, 0x13e2c <_realloc_r+0x116>
   13d62: 61 67        	c.lui	a4, 0x18
   13d64: 62 e0        	c.sdsp	s8, 0x0(sp)
   13d66: 13 0c 87 8f  	addi	s8, a4, -0x708
   13d6a: 03 36 0c 01  	ld	a2, 0x10(s8)
   13d6e: b3 86 4a 01  	add	a3, s5, s4
   13d72: 98 66        	c.ld	a4, 0x8(a3)
   13d74: 63 0f d6 12  	beq	a2, a3, 0x13eb2 <_realloc_r+0x19c>
   13d78: 13 76 e7 ff  	andi	a2, a4, -0x2
   13d7c: 36 96        	c.add	a2, a3
   13d7e: 10 66        	c.ld	a2, 0x8(a2)
   13d80: 05 8a        	c.andi	a2, 0x1
   13d82: 6d e6        	c.bnez	a2, 0x13e6c <_realloc_r+0x156>
   13d84: 71 9b        	c.andi	a4, -0x4
   13d86: 33 06 ea 00  	add	a2, s4, a4
   13d8a: 63 5b 96 08  	bge	a2, s1, 0x13e20 <_realloc_r+0x10a>
   13d8e: 85 8b        	c.andi	a5, 0x1
   13d90: 8d e7        	c.bnez	a5, 0x13dba <_realloc_r+0xa4>
   13d92: 5e e4        	c.sdsp	s7, 0x8(sp)
   13d94: 83 3b 04 ff  	ld	s7, -0x10(s0)
   13d98: 5a e8        	c.sdsp	s6, 0x10(sp)
   13d9a: b3 8b 7a 41  	sub	s7, s5, s7
   13d9e: 83 b7 8b 00  	ld	a5, 0x8(s7)
   13da2: f1 9b        	c.andi	a5, -0x4
   13da4: 3e 97        	c.add	a4, a5
   13da6: 33 0b 47 01  	add	s6, a4, s4
   13daa: 63 55 9b 24  	bge	s6, s1, 0x13ff4 <_realloc_r+0x2de>
   13dae: 33 0b fa 00  	add	s6, s4, a5
   13db2: 63 57 9b 1c  	bge	s6, s1, 0x13f80 <_realloc_r+0x26a>
   13db6: 42 6b        	c.ldsp	s6, 0x10(sp)
   13db8: a2 6b        	c.ldsp	s7, 0x8(sp)
   13dba: ca 85        	c.mv	a1, s2
   13dbc: 4e 85        	c.mv	a0, s3
   13dbe: ef e0 7f cf  	jal	ra, 0x12ab4 <_malloc_r>
   13dc2: 2a 89        	c.mv	s2, a0
   13dc4: 63 08 05 2e  	beq	a0, zero, 0x140b4 <_realloc_r+0x39e>
   13dc8: 83 37 84 ff  	ld	a5, -0x8(s0)
   13dcc: 13 07 05 ff  	addi	a4, a0, -0x10
   13dd0: f9 9b        	c.andi	a5, -0x2
   13dd2: d6 97        	c.add	a5, s5
   13dd4: 63 80 e7 1a  	beq	a5, a4, 0x13f74 <_realloc_r+0x25e>
   13dd8: 13 06 8a ff  	addi	a2, s4, -0x8
   13ddc: 93 07 80 04  	addi	a5, zero, 0x48
   13de0: 63 e6 c7 20  	bltu	a5, a2, 0x13fec <_realloc_r+0x2d6>
   13de4: 13 07 70 02  	addi	a4, zero, 0x27
   13de8: 63 69 c7 16  	bltu	a4, a2, 0x13f5a <_realloc_r+0x244>
   13dec: aa 87        	c.mv	a5, a0
   13dee: 22 87        	c.mv	a4, s0
   13df0: 14 63        	c.ld	a3, 0x0(a4)
   13df2: 94 e3        	c.sd	a3, 0x0(a5)
   13df4: 14 67        	c.ld	a3, 0x8(a4)
   13df6: 94 e7        	c.sd	a3, 0x8(a5)
   13df8: 18 6b        	c.ld	a4, 0x10(a4)
   13dfa: 98 eb        	c.sd	a4, 0x10(a5)
   13dfc: a2 85        	c.mv	a1, s0
   13dfe: 4e 85        	c.mv	a0, s3
   13e00: ef e0 1f a7  	jal	ra, 0x12870 <_free_r>
   13e04: 4e 85        	c.mv	a0, s3
   13e06: ef f0 2f ab  	jal	ra, 0x130b8 <__malloc_unlock>
   13e0a: 02 6c        	c.ldsp	s8, 0x0(sp)
   13e0c: b1 a0        	c.j	0x13e58 <_realloc_r+0x142>
   13e0e: 93 04 00 02  	addi	s1, zero, 0x20
   13e12: e3 f6 24 f5  	bgeu	s1, s2, 0x13d5e <_realloc_r+0x48>
   13e16: b1 47        	c.li	a5, 0xc
   13e18: 23 a0 f9 00  	sw	a5, 0x0(s3)
   13e1c: 01 49        	c.li	s2, 0x0
   13e1e: 2d a8        	c.j	0x13e58 <_realloc_r+0x142>
   13e20: 9c 6e        	c.ld	a5, 0x18(a3)
   13e22: 98 6a        	c.ld	a4, 0x10(a3)
   13e24: 02 6c        	c.ldsp	s8, 0x0(sp)
   13e26: 32 8a        	c.mv	s4, a2
   13e28: 1c ef        	c.sd	a5, 0x18(a4)
   13e2a: 98 eb        	c.sd	a4, 0x10(a5)
   13e2c: 83 b7 8a 00  	ld	a5, 0x8(s5)
   13e30: b3 06 9a 40  	sub	a3, s4, s1
   13e34: 7d 46        	c.li	a2, 0x1f
   13e36: 85 8b        	c.andi	a5, 0x1
   13e38: 33 87 4a 01  	add	a4, s5, s4
   13e3c: 63 6a d6 04  	bltu	a2, a3, 0x13e90 <_realloc_r+0x17a>
   13e40: b3 e7 47 01  	or	a5, a5, s4
   13e44: 23 b4 fa 00  	sd	a5, 0x8(s5)
   13e48: 1c 67        	c.ld	a5, 0x8(a4)
   13e4a: 93 e7 17 00  	ori	a5, a5, 0x1
   13e4e: 1c e7        	c.sd	a5, 0x8(a4)
   13e50: 4e 85        	c.mv	a0, s3
   13e52: ef f0 6f a6  	jal	ra, 0x130b8 <__malloc_unlock>
   13e56: 22 89        	c.mv	s2, s0
   13e58: 06 64        	c.ldsp	s0, 0x40(sp)
   13e5a: a6 60        	c.ldsp	ra, 0x48(sp)
   13e5c: e2 74        	c.ldsp	s1, 0x38(sp)
   13e5e: a2 79        	c.ldsp	s3, 0x28(sp)
   13e60: 02 7a        	c.ldsp	s4, 0x20(sp)
   13e62: e2 6a        	c.ldsp	s5, 0x18(sp)
   13e64: 4a 85        	c.mv	a0, s2
   13e66: 42 79        	c.ldsp	s2, 0x30(sp)
   13e68: 61 61        	c.addi16sp	sp, 0x50
   13e6a: 82 80        	c.jr	ra
   13e6c: 85 8b        	c.andi	a5, 0x1
   13e6e: b1 f7        	c.bnez	a5, 0x13dba <_realloc_r+0xa4>
   13e70: 5e e4        	c.sdsp	s7, 0x8(sp)
   13e72: 83 3b 04 ff  	ld	s7, -0x10(s0)
   13e76: 5a e8        	c.sdsp	s6, 0x10(sp)
   13e78: b3 8b 7a 41  	sub	s7, s5, s7
   13e7c: 83 b7 8b 00  	ld	a5, 0x8(s7)
   13e80: f1 9b        	c.andi	a5, -0x4
   13e82: 35 b7        	c.j	0x13dae <_realloc_r+0x98>
   13e84: a6 60        	c.ldsp	ra, 0x48(sp)
   13e86: 42 79        	c.ldsp	s2, 0x30(sp)
   13e88: b2 85        	c.mv	a1, a2
   13e8a: 61 61        	c.addi16sp	sp, 0x50
   13e8c: 6f e0 9f c2  	jal	zero, 0x12ab4 <_malloc_r>
   13e90: c5 8f        	c.or	a5, s1
   13e92: 23 b4 fa 00  	sd	a5, 0x8(s5)
   13e96: b3 85 9a 00  	add	a1, s5, s1
   13e9a: 93 e6 16 00  	ori	a3, a3, 0x1
   13e9e: 94 e5        	c.sd	a3, 0x8(a1)
   13ea0: 1c 67        	c.ld	a5, 0x8(a4)
   13ea2: c1 05        	c.addi	a1, 0x10
   13ea4: 4e 85        	c.mv	a0, s3
   13ea6: 93 e7 17 00  	ori	a5, a5, 0x1
   13eaa: 1c e7        	c.sd	a5, 0x8(a4)
   13eac: ef e0 5f 9c  	jal	ra, 0x12870 <_free_r>
   13eb0: 45 b7        	c.j	0x13e50 <_realloc_r+0x13a>
   13eb2: 71 9b        	c.andi	a4, -0x4
   13eb4: b3 06 47 01  	add	a3, a4, s4
   13eb8: 13 86 04 02  	addi	a2, s1, 0x20
   13ebc: 63 d3 c6 1c  	bge	a3, a2, 0x14082 <_realloc_r+0x36c>
   13ec0: 85 8b        	c.andi	a5, 0x1
   13ec2: e3 9c 07 ee  	bne	a5, zero, 0x13dba <_realloc_r+0xa4>
   13ec6: 5e e4        	c.sdsp	s7, 0x8(sp)
   13ec8: 83 3b 04 ff  	ld	s7, -0x10(s0)
   13ecc: 5a e8        	c.sdsp	s6, 0x10(sp)
   13ece: b3 8b 7a 41  	sub	s7, s5, s7
   13ed2: 83 b7 8b 00  	ld	a5, 0x8(s7)
   13ed6: f1 9b        	c.andi	a5, -0x4
   13ed8: 3e 97        	c.add	a4, a5
   13eda: 33 0b 47 01  	add	s6, a4, s4
   13ede: e3 48 cb ec  	blt	s6, a2, 0x13dae <_realloc_r+0x98>
   13ee2: 83 b7 8b 01  	ld	a5, 0x18(s7)
   13ee6: 03 b7 0b 01  	ld	a4, 0x10(s7)
   13eea: 13 06 8a ff  	addi	a2, s4, -0x8
   13eee: 93 06 80 04  	addi	a3, zero, 0x48
   13ef2: 1c ef        	c.sd	a5, 0x18(a4)
   13ef4: 98 eb        	c.sd	a4, 0x10(a5)
   13ef6: 13 89 0b 01  	addi	s2, s7, 0x10
   13efa: 63 ec c6 1c  	bltu	a3, a2, 0x140d2 <_realloc_r+0x3bc>
   13efe: 13 07 70 02  	addi	a4, zero, 0x27
   13f02: ca 87        	c.mv	a5, s2
   13f04: 63 7f c7 00  	bgeu	a4, a2, 0x13f22 <_realloc_r+0x20c>
   13f08: 18 60        	c.ld	a4, 0x0(s0)
   13f0a: 93 07 70 03  	addi	a5, zero, 0x37
   13f0e: 23 b8 eb 00  	sd	a4, 0x10(s7)
   13f12: 18 64        	c.ld	a4, 0x8(s0)
   13f14: 23 bc eb 00  	sd	a4, 0x18(s7)
   13f18: 63 e2 c7 1c  	bltu	a5, a2, 0x140dc <_realloc_r+0x3c6>
   13f1c: 41 04        	c.addi	s0, 0x10
   13f1e: 93 87 0b 02  	addi	a5, s7, 0x20
   13f22: 18 60        	c.ld	a4, 0x0(s0)
   13f24: 98 e3        	c.sd	a4, 0x0(a5)
   13f26: 18 64        	c.ld	a4, 0x8(s0)
   13f28: 98 e7        	c.sd	a4, 0x8(a5)
   13f2a: 18 68        	c.ld	a4, 0x10(s0)
   13f2c: 98 eb        	c.sd	a4, 0x10(a5)
   13f2e: 33 87 9b 00  	add	a4, s7, s1
   13f32: b3 07 9b 40  	sub	a5, s6, s1
   13f36: 23 38 ec 00  	sd	a4, 0x10(s8)
   13f3a: 93 e7 17 00  	ori	a5, a5, 0x1
   13f3e: 1c e7        	c.sd	a5, 0x8(a4)
   13f40: 83 b7 8b 00  	ld	a5, 0x8(s7)
   13f44: 4e 85        	c.mv	a0, s3
   13f46: 85 8b        	c.andi	a5, 0x1
   13f48: c5 8f        	c.or	a5, s1
   13f4a: 23 b4 fb 00  	sd	a5, 0x8(s7)
   13f4e: ef f0 af 96  	jal	ra, 0x130b8 <__malloc_unlock>
   13f52: 42 6b        	c.ldsp	s6, 0x10(sp)
   13f54: a2 6b        	c.ldsp	s7, 0x8(sp)
   13f56: 02 6c        	c.ldsp	s8, 0x0(sp)
   13f58: 01 b7        	c.j	0x13e58 <_realloc_r+0x142>
   13f5a: 14 60        	c.ld	a3, 0x0(s0)
   13f5c: 13 07 70 03  	addi	a4, zero, 0x37
   13f60: 14 e1        	c.sd	a3, 0x0(a0)
   13f62: 14 64        	c.ld	a3, 0x8(s0)
   13f64: 14 e5        	c.sd	a3, 0x8(a0)
   13f66: 63 63 c7 10  	bltu	a4, a2, 0x1406c <_realloc_r+0x356>
   13f6a: 13 07 04 01  	addi	a4, s0, 0x10
   13f6e: 93 07 05 01  	addi	a5, a0, 0x10
   13f72: bd bd        	c.j	0x13df0 <_realloc_r+0xda>
   13f74: 83 37 85 ff  	ld	a5, -0x8(a0)
   13f78: 02 6c        	c.ldsp	s8, 0x0(sp)
   13f7a: f1 9b        	c.andi	a5, -0x4
   13f7c: 3e 9a        	c.add	s4, a5
   13f7e: 7d b5        	c.j	0x13e2c <_realloc_r+0x116>
   13f80: 83 b7 8b 01  	ld	a5, 0x18(s7)
   13f84: 03 b7 0b 01  	ld	a4, 0x10(s7)
   13f88: 13 06 8a ff  	addi	a2, s4, -0x8
   13f8c: 93 06 80 04  	addi	a3, zero, 0x48
   13f90: 1c ef        	c.sd	a5, 0x18(a4)
   13f92: 98 eb        	c.sd	a4, 0x10(a5)
   13f94: 13 89 0b 01  	addi	s2, s7, 0x10
   13f98: 63 e5 c6 0c  	bltu	a3, a2, 0x14062 <_realloc_r+0x34c>
   13f9c: 13 07 70 02  	addi	a4, zero, 0x27
   13fa0: ca 87        	c.mv	a5, s2
   13fa2: 63 78 c7 02  	bgeu	a4, a2, 0x13fd2 <_realloc_r+0x2bc>
   13fa6: 18 60        	c.ld	a4, 0x0(s0)
   13fa8: 93 07 70 03  	addi	a5, zero, 0x37
   13fac: 23 b8 eb 00  	sd	a4, 0x10(s7)
   13fb0: 18 64        	c.ld	a4, 0x8(s0)
   13fb2: 23 bc eb 00  	sd	a4, 0x18(s7)
   13fb6: 63 fb c7 0e  	bgeu	a5, a2, 0x140ac <_realloc_r+0x396>
   13fba: 1c 68        	c.ld	a5, 0x10(s0)
   13fbc: 23 b0 fb 02  	sd	a5, 0x20(s7)
   13fc0: 1c 6c        	c.ld	a5, 0x18(s0)
   13fc2: 23 b4 fb 02  	sd	a5, 0x28(s7)
   13fc6: 63 02 d6 08  	beq	a2, a3, 0x1404a <_realloc_r+0x334>
   13fca: 13 04 04 02  	addi	s0, s0, 0x20
   13fce: 93 87 0b 03  	addi	a5, s7, 0x30
   13fd2: 18 60        	c.ld	a4, 0x0(s0)
   13fd4: 98 e3        	c.sd	a4, 0x0(a5)
   13fd6: 18 64        	c.ld	a4, 0x8(s0)
   13fd8: 98 e7        	c.sd	a4, 0x8(a5)
   13fda: 18 68        	c.ld	a4, 0x10(s0)
   13fdc: 98 eb        	c.sd	a4, 0x10(a5)
   13fde: 5a 8a        	c.mv	s4, s6
   13fe0: de 8a        	c.mv	s5, s7
   13fe2: 42 6b        	c.ldsp	s6, 0x10(sp)
   13fe4: a2 6b        	c.ldsp	s7, 0x8(sp)
   13fe6: 02 6c        	c.ldsp	s8, 0x0(sp)
   13fe8: 4a 84        	c.mv	s0, s2
   13fea: 89 b5        	c.j	0x13e2c <_realloc_r+0x116>
   13fec: a2 85        	c.mv	a1, s0
   13fee: ef f0 1f be  	jal	ra, 0x13bce <memmove>
   13ff2: 29 b5        	c.j	0x13dfc <_realloc_r+0xe6>
   13ff4: 9c 6e        	c.ld	a5, 0x18(a3)
   13ff6: 98 6a        	c.ld	a4, 0x10(a3)
   13ff8: 13 06 8a ff  	addi	a2, s4, -0x8
   13ffc: 93 06 80 04  	addi	a3, zero, 0x48
   14000: 1c ef        	c.sd	a5, 0x18(a4)
   14002: 98 eb        	c.sd	a4, 0x10(a5)
   14004: 03 b7 0b 01  	ld	a4, 0x10(s7)
   14008: 83 b7 8b 01  	ld	a5, 0x18(s7)
   1400c: 13 89 0b 01  	addi	s2, s7, 0x10
   14010: 1c ef        	c.sd	a5, 0x18(a4)
   14012: 98 eb        	c.sd	a4, 0x10(a5)
   14014: 63 e7 c6 04  	bltu	a3, a2, 0x14062 <_realloc_r+0x34c>
   14018: 13 07 70 02  	addi	a4, zero, 0x27
   1401c: ca 87        	c.mv	a5, s2
   1401e: e3 7a c7 fa  	bgeu	a4, a2, 0x13fd2 <_realloc_r+0x2bc>
   14022: 18 60        	c.ld	a4, 0x0(s0)
   14024: 93 07 70 03  	addi	a5, zero, 0x37
   14028: 23 b8 eb 00  	sd	a4, 0x10(s7)
   1402c: 18 64        	c.ld	a4, 0x8(s0)
   1402e: 23 bc eb 00  	sd	a4, 0x18(s7)
   14032: 63 fd c7 06  	bgeu	a5, a2, 0x140ac <_realloc_r+0x396>
   14036: 18 68        	c.ld	a4, 0x10(s0)
   14038: 93 07 80 04  	addi	a5, zero, 0x48
   1403c: 23 b0 eb 02  	sd	a4, 0x20(s7)
   14040: 18 6c        	c.ld	a4, 0x18(s0)
   14042: 23 b4 eb 02  	sd	a4, 0x28(s7)
   14046: e3 12 f6 f8  	bne	a2, a5, 0x13fca <_realloc_r+0x2b4>
   1404a: 18 70        	c.ld	a4, 0x20(s0)
   1404c: 93 87 0b 04  	addi	a5, s7, 0x40
   14050: 13 04 04 03  	addi	s0, s0, 0x30
   14054: 23 b8 eb 02  	sd	a4, 0x30(s7)
   14058: 03 37 84 ff  	ld	a4, -0x8(s0)
   1405c: 23 bc eb 02  	sd	a4, 0x38(s7)
   14060: 8d bf        	c.j	0x13fd2 <_realloc_r+0x2bc>
   14062: a2 85        	c.mv	a1, s0
   14064: 4a 85        	c.mv	a0, s2
   14066: ef f0 9f b6  	jal	ra, 0x13bce <memmove>
   1406a: 95 bf        	c.j	0x13fde <_realloc_r+0x2c8>
   1406c: 18 68        	c.ld	a4, 0x10(s0)
   1406e: 18 e9        	c.sd	a4, 0x10(a0)
   14070: 18 6c        	c.ld	a4, 0x18(s0)
   14072: 18 ed        	c.sd	a4, 0x18(a0)
   14074: 63 06 f6 04  	beq	a2, a5, 0x140c0 <_realloc_r+0x3aa>
   14078: 13 07 04 02  	addi	a4, s0, 0x20
   1407c: 93 07 05 02  	addi	a5, a0, 0x20
   14080: 85 bb        	c.j	0x13df0 <_realloc_r+0xda>
   14082: a6 9a        	c.add	s5, s1
   14084: b3 87 96 40  	sub	a5, a3, s1
   14088: 23 38 5c 01  	sd	s5, 0x10(s8)
   1408c: 93 e7 17 00  	ori	a5, a5, 0x1
   14090: 23 b4 fa 00  	sd	a5, 0x8(s5)
   14094: 83 37 84 ff  	ld	a5, -0x8(s0)
   14098: 4e 85        	c.mv	a0, s3
   1409a: 22 89        	c.mv	s2, s0
   1409c: 85 8b        	c.andi	a5, 0x1
   1409e: c5 8f        	c.or	a5, s1
   140a0: 23 3c f4 fe  	sd	a5, -0x8(s0)
   140a4: ef f0 4f 81  	jal	ra, 0x130b8 <__malloc_unlock>
   140a8: 02 6c        	c.ldsp	s8, 0x0(sp)
   140aa: 7d b3        	c.j	0x13e58 <_realloc_r+0x142>
   140ac: 41 04        	c.addi	s0, 0x10
   140ae: 93 87 0b 02  	addi	a5, s7, 0x20
   140b2: 05 b7        	c.j	0x13fd2 <_realloc_r+0x2bc>
   140b4: 4e 85        	c.mv	a0, s3
   140b6: ef f0 2f 80  	jal	ra, 0x130b8 <__malloc_unlock>
   140ba: 01 49        	c.li	s2, 0x0
   140bc: 02 6c        	c.ldsp	s8, 0x0(sp)
   140be: 69 bb        	c.j	0x13e58 <_realloc_r+0x142>
   140c0: 14 70        	c.ld	a3, 0x20(s0)
   140c2: 13 07 04 03  	addi	a4, s0, 0x30
   140c6: 93 07 05 03  	addi	a5, a0, 0x30
   140ca: 14 f1        	c.sd	a3, 0x20(a0)
   140cc: 14 74        	c.ld	a3, 0x28(s0)
   140ce: 14 f5        	c.sd	a3, 0x28(a0)
   140d0: 05 b3        	c.j	0x13df0 <_realloc_r+0xda>
   140d2: a2 85        	c.mv	a1, s0
   140d4: 4a 85        	c.mv	a0, s2
   140d6: ef f0 9f af  	jal	ra, 0x13bce <memmove>
   140da: 91 bd        	c.j	0x13f2e <_realloc_r+0x218>
   140dc: 1c 68        	c.ld	a5, 0x10(s0)
   140de: 23 b0 fb 02  	sd	a5, 0x20(s7)
   140e2: 1c 6c        	c.ld	a5, 0x18(s0)
   140e4: 23 b4 fb 02  	sd	a5, 0x28(s7)
   140e8: 63 07 d6 00  	beq	a2, a3, 0x140f6 <_realloc_r+0x3e0>
   140ec: 13 04 04 02  	addi	s0, s0, 0x20
   140f0: 93 87 0b 03  	addi	a5, s7, 0x30
   140f4: 3d b5        	c.j	0x13f22 <_realloc_r+0x20c>
   140f6: 18 70        	c.ld	a4, 0x20(s0)
   140f8: 93 87 0b 04  	addi	a5, s7, 0x40
   140fc: 13 04 04 03  	addi	s0, s0, 0x30
   14100: 23 b8 eb 02  	sd	a4, 0x30(s7)
   14104: 03 37 84 ff  	ld	a4, -0x8(s0)
   14108: 23 bc eb 02  	sd	a4, 0x38(s7)
   1410c: 19 bd        	c.j	0x13f22 <_realloc_r+0x20c>

000000000001410e <_close>:
   1410e: 41 11        	c.addi	sp, -0x10
   14110: 06 e4        	c.sdsp	ra, 0x8(sp)
   14112: 22 e0        	c.sdsp	s0, 0x0(sp)
   14114: 93 08 90 03  	addi	a7, zero, 0x39
   14118: 73 00 00 00  	ecall
   1411c: 2a 84        	c.mv	s0, a0
   1411e: 63 47 05 00  	blt	a0, zero, 0x1412c <_close+0x1e>
   14122: 01 25        	c.addiw	a0, 0x0
   14124: a2 60        	c.ldsp	ra, 0x8(sp)
   14126: 02 64        	c.ldsp	s0, 0x0(sp)
   14128: 41 01        	c.addi	sp, 0x10
   1412a: 82 80        	c.jr	ra
   1412c: ef 00 80 1e  	jal	ra, 0x14314 <__errno>
   14130: 3b 04 80 40  	subw	s0, zero, s0
   14134: 00 c1        	c.sw	s0, 0x0(a0)
   14136: 7d 55        	c.li	a0, -0x1
   14138: f5 b7        	c.j	0x14124 <_close+0x16>

000000000001413a <_exit>:
   1413a: 93 08 d0 05  	addi	a7, zero, 0x5d
   1413e: 73 00 00 00  	ecall
   14142: 63 43 05 00  	blt	a0, zero, 0x14148 <_exit+0xe>
   14146: 01 a0        	c.j	0x14146 <_exit+0xc>
   14148: 41 11        	c.addi	sp, -0x10
   1414a: 22 e0        	c.sdsp	s0, 0x0(sp)
   1414c: 2a 84        	c.mv	s0, a0
   1414e: 06 e4        	c.sdsp	ra, 0x8(sp)
   14150: 3b 04 80 40  	subw	s0, zero, s0
   14154: ef 00 00 1c  	jal	ra, 0x14314 <__errno>
   14158: 00 c1        	c.sw	s0, 0x0(a0)
   1415a: 01 a0        	c.j	0x1415a <_exit+0x20>

000000000001415c <_fstat>:
   1415c: 35 71        	c.addi16sp	sp, -0xa0
   1415e: 26 e5        	c.sdsp	s1, 0x88(sp)
   14160: 06 ed        	c.sdsp	ra, 0x98(sp)
   14162: ae 84        	c.mv	s1, a1
   14164: 22 e9        	c.sdsp	s0, 0x90(sp)
   14166: 93 08 00 05  	addi	a7, zero, 0x50
   1416a: 8a 85        	c.mv	a1, sp
   1416c: 73 00 00 00  	ecall
   14170: 2a 84        	c.mv	s0, a0
   14172: 63 4e 05 00  	blt	a0, zero, 0x1418e <_fstat+0x32>
   14176: 1b 04 05 00  	addiw	s0, a0, 0x0
   1417a: 26 85        	c.mv	a0, s1
   1417c: 8a 85        	c.mv	a1, sp
   1417e: ef 00 80 14  	jal	ra, 0x142c6 <_conv_stat>
   14182: ea 60        	c.ldsp	ra, 0x98(sp)
   14184: 22 85        	c.mv	a0, s0
   14186: 4a 64        	c.ldsp	s0, 0x90(sp)
   14188: aa 64        	c.ldsp	s1, 0x88(sp)
   1418a: 0d 61        	c.addi16sp	sp, 0xa0
   1418c: 82 80        	c.jr	ra
   1418e: 3b 04 80 40  	subw	s0, zero, s0
   14192: ef 00 20 18  	jal	ra, 0x14314 <__errno>
   14196: 00 c1        	c.sw	s0, 0x0(a0)
   14198: 7d 54        	c.li	s0, -0x1
   1419a: c5 b7        	c.j	0x1417a <_fstat+0x1e>

000000000001419c <_isatty>:
   1419c: 19 71        	c.addi16sp	sp, -0x80
   1419e: 2c 00        	c.addi4spn	a1, sp, 0x8
   141a0: 86 fc        	c.sdsp	ra, 0x78(sp)
   141a2: ef f0 bf fb  	jal	ra, 0x1415c <_fstat>
   141a6: fd 57        	c.li	a5, -0x1
   141a8: 63 09 f5 00  	beq	a0, a5, 0x141ba <_isatty+0x1e>
   141ac: 32 45        	c.lwsp	a0, 0xc(sp)
   141ae: e6 70        	c.ldsp	ra, 0x78(sp)
   141b0: 1b 55 d5 40  	sraiw	a0, a0, 0xd
   141b4: 05 89        	c.andi	a0, 0x1
   141b6: 09 61        	c.addi16sp	sp, 0x80
   141b8: 82 80        	c.jr	ra
   141ba: e6 70        	c.ldsp	ra, 0x78(sp)
   141bc: 01 45        	c.li	a0, 0x0
   141be: 09 61        	c.addi16sp	sp, 0x80
   141c0: 82 80        	c.jr	ra

00000000000141c2 <_lseek>:
   141c2: 41 11        	c.addi	sp, -0x10
   141c4: 06 e4        	c.sdsp	ra, 0x8(sp)
   141c6: 22 e0        	c.sdsp	s0, 0x0(sp)
   141c8: 93 08 e0 03  	addi	a7, zero, 0x3e
   141cc: 73 00 00 00  	ecall
   141d0: 2a 84        	c.mv	s0, a0
   141d2: 63 47 05 00  	blt	a0, zero, 0x141e0 <_lseek+0x1e>
   141d6: a2 60        	c.ldsp	ra, 0x8(sp)
   141d8: 22 85        	c.mv	a0, s0
   141da: 02 64        	c.ldsp	s0, 0x0(sp)
   141dc: 41 01        	c.addi	sp, 0x10
   141de: 82 80        	c.jr	ra
   141e0: 3b 04 80 40  	subw	s0, zero, s0
   141e4: ef 00 00 13  	jal	ra, 0x14314 <__errno>
   141e8: 00 c1        	c.sw	s0, 0x0(a0)
   141ea: 7d 54        	c.li	s0, -0x1
   141ec: ed b7        	c.j	0x141d6 <_lseek+0x14>

00000000000141ee <_open>:
   141ee: 41 11        	c.addi	sp, -0x10
   141f0: 06 e4        	c.sdsp	ra, 0x8(sp)
   141f2: 22 e0        	c.sdsp	s0, 0x0(sp)
   141f4: 93 08 00 40  	addi	a7, zero, 0x400
   141f8: 73 00 00 00  	ecall
   141fc: 2a 84        	c.mv	s0, a0
   141fe: 63 47 05 00  	blt	a0, zero, 0x1420c <_open+0x1e>
   14202: 01 25        	c.addiw	a0, 0x0
   14204: a2 60        	c.ldsp	ra, 0x8(sp)
   14206: 02 64        	c.ldsp	s0, 0x0(sp)
   14208: 41 01        	c.addi	sp, 0x10
   1420a: 82 80        	c.jr	ra
   1420c: ef 00 80 10  	jal	ra, 0x14314 <__errno>
   14210: 3b 04 80 40  	subw	s0, zero, s0
   14214: 00 c1        	c.sw	s0, 0x0(a0)
   14216: 7d 55        	c.li	a0, -0x1
   14218: f5 b7        	c.j	0x14204 <_open+0x16>

000000000001421a <_read>:
   1421a: 41 11        	c.addi	sp, -0x10
   1421c: 06 e4        	c.sdsp	ra, 0x8(sp)
   1421e: 22 e0        	c.sdsp	s0, 0x0(sp)
   14220: 93 08 f0 03  	addi	a7, zero, 0x3f
   14224: 73 00 00 00  	ecall
   14228: 2a 84        	c.mv	s0, a0
   1422a: 63 47 05 00  	blt	a0, zero, 0x14238 <_read+0x1e>
   1422e: a2 60        	c.ldsp	ra, 0x8(sp)
   14230: 22 85        	c.mv	a0, s0
   14232: 02 64        	c.ldsp	s0, 0x0(sp)
   14234: 41 01        	c.addi	sp, 0x10
   14236: 82 80        	c.jr	ra
   14238: 3b 04 80 40  	subw	s0, zero, s0
   1423c: ef 00 80 0d  	jal	ra, 0x14314 <__errno>
   14240: 00 c1        	c.sw	s0, 0x0(a0)
   14242: 7d 54        	c.li	s0, -0x1
   14244: ed b7        	c.j	0x1422e <_read+0x14>

0000000000014246 <_sbrk>:
   14246: 03 b7 01 1d  	ld	a4, 0x1d0(gp)
   1424a: 41 11        	c.addi	sp, -0x10
   1424c: 06 e4        	c.sdsp	ra, 0x8(sp)
   1424e: aa 87        	c.mv	a5, a0
   14250: 01 ef        	c.bnez	a4, 0x14268 <_sbrk+0x22>
   14252: 93 08 60 0d  	addi	a7, zero, 0xd6
   14256: 01 45        	c.li	a0, 0x0
   14258: 73 00 00 00  	ecall
   1425c: 7d 56        	c.li	a2, -0x1
   1425e: 2a 87        	c.mv	a4, a0
   14260: 63 05 c5 02  	beq	a0, a2, 0x1428a <_sbrk+0x44>
   14264: 23 b8 a1 1c  	sd	a0, 0x1d0(gp)
   14268: 93 08 60 0d  	addi	a7, zero, 0xd6
   1426c: 33 85 e7 00  	add	a0, a5, a4
   14270: 73 00 00 00  	ecall
   14274: 03 b7 01 1d  	ld	a4, 0x1d0(gp)
   14278: ba 97        	c.add	a5, a4
   1427a: 63 18 f5 00  	bne	a0, a5, 0x1428a <_sbrk+0x44>
   1427e: a2 60        	c.ldsp	ra, 0x8(sp)
   14280: 23 b8 a1 1c  	sd	a0, 0x1d0(gp)
   14284: 3a 85        	c.mv	a0, a4
   14286: 41 01        	c.addi	sp, 0x10
   14288: 82 80        	c.jr	ra
   1428a: ef 00 a0 08  	jal	ra, 0x14314 <__errno>
   1428e: a2 60        	c.ldsp	ra, 0x8(sp)
   14290: b1 47        	c.li	a5, 0xc
   14292: 1c c1        	c.sw	a5, 0x0(a0)
   14294: 7d 55        	c.li	a0, -0x1
   14296: 41 01        	c.addi	sp, 0x10
   14298: 82 80        	c.jr	ra

000000000001429a <_write>:
   1429a: 41 11        	c.addi	sp, -0x10
   1429c: 06 e4        	c.sdsp	ra, 0x8(sp)
   1429e: 22 e0        	c.sdsp	s0, 0x0(sp)
   142a0: 93 08 00 04  	addi	a7, zero, 0x40
   142a4: 73 00 00 00  	ecall
   142a8: 2a 84        	c.mv	s0, a0
   142aa: 63 47 05 00  	blt	a0, zero, 0x142b8 <_write+0x1e>
   142ae: a2 60        	c.ldsp	ra, 0x8(sp)
   142b0: 22 85        	c.mv	a0, s0
   142b2: 02 64        	c.ldsp	s0, 0x0(sp)
   142b4: 41 01        	c.addi	sp, 0x10
   142b6: 82 80        	c.jr	ra
   142b8: 3b 04 80 40  	subw	s0, zero, s0
   142bc: ef 00 80 05  	jal	ra, 0x14314 <__errno>
   142c0: 00 c1        	c.sw	s0, 0x0(a0)
   142c2: 7d 54        	c.li	s0, -0x1
   142c4: ed b7        	c.j	0x142ae <_write+0x14>

00000000000142c6 <_conv_stat>:
   142c6: 03 d7 85 01  	lhu	a4, 0x18(a1)
   142ca: 83 d7 45 01  	lhu	a5, 0x14(a1)
   142ce: d0 4d        	c.lw	a2, 0x1c(a1)
   142d0: 94 71        	c.ld	a3, 0x20(a1)
   142d2: 03 b3 05 00  	ld	t1, 0x0(a1)
   142d6: 83 b8 85 00  	ld	a7, 0x8(a1)
   142da: 03 a8 05 01  	lw	a6, 0x10(a1)
   142de: 1b 17 07 01  	slliw	a4, a4, 0x10
   142e2: d9 8f        	c.or	a5, a4
   142e4: 23 16 c5 00  	sh	a2, 0xc(a0)
   142e8: 23 17 d5 00  	sh	a3, 0xe(a0)
   142ec: 23 10 65 00  	sh	t1, 0x0(a0)
   142f0: 23 11 15 01  	sh	a7, 0x2(a0)
   142f4: 23 22 05 01  	sw	a6, 0x4(a0)
   142f8: 1c c5        	c.sw	a5, 0x8(a0)
   142fa: 98 79        	c.ld	a4, 0x30(a1)
   142fc: bc 65        	c.ld	a5, 0x48(a1)
   142fe: b0 61        	c.ld	a2, 0x40(a1)
   14300: 94 5d        	c.lw	a3, 0x38(a1)
   14302: 18 e9        	c.sd	a4, 0x10(a0)
   14304: 1c ed        	c.sd	a5, 0x18(a0)
   14306: b8 6d        	c.ld	a4, 0x58(a1)
   14308: bc 75        	c.ld	a5, 0x68(a1)
   1430a: 30 e9        	c.sd	a2, 0x50(a0)
   1430c: 34 e5        	c.sd	a3, 0x48(a0)
   1430e: 18 f5        	c.sd	a4, 0x28(a0)
   14310: 1c fd        	c.sd	a5, 0x38(a0)
   14312: 82 80        	c.jr	ra

0000000000014314 <__errno>:
   14314: 03 b5 81 18  	ld	a0, 0x188(gp)
   14318: 82 80        	c.jr	ra

000000000001431a <__riscv_save_12>:
   1431a: 59 71        	c.addi16sp	sp, -0x70
   1431c: 01 43        	c.li	t1, 0x0
   1431e: 6e e4        	c.sdsp	s11, 0x8(sp)
   14320: 19 a0        	c.j	0x14326 <__riscv_save_11+0x4>

0000000000014322 <__riscv_save_11>:
   14322: 59 71        	c.addi16sp	sp, -0x70
   14324: 05 43        	c.li	t1, 0x1
   14326: 6a e8        	c.sdsp	s10, 0x10(sp)
   14328: 66 ec        	c.sdsp	s9, 0x18(sp)
   1432a: 19 a0        	c.j	0x14330 <__riscv_save_9+0x4>

000000000001432c <__riscv_save_9>:
   1432c: 59 71        	c.addi16sp	sp, -0x70
   1432e: 09 43        	c.li	t1, 0x2
   14330: 62 f0        	c.sdsp	s8, 0x20(sp)
   14332: 5e f4        	c.sdsp	s7, 0x28(sp)
   14334: 19 a0        	c.j	0x1433a <__riscv_save_7+0x4>

0000000000014336 <__riscv_save_7>:
   14336: 59 71        	c.addi16sp	sp, -0x70
   14338: 0d 43        	c.li	t1, 0x3
   1433a: 5a f8        	c.sdsp	s6, 0x30(sp)
   1433c: 56 fc        	c.sdsp	s5, 0x38(sp)
   1433e: 19 a0        	c.j	0x14344 <__riscv_save_5+0x4>

0000000000014340 <__riscv_save_5>:
   14340: 59 71        	c.addi16sp	sp, -0x70
   14342: 11 43        	c.li	t1, 0x4
   14344: d2 e0        	c.sdsp	s4, 0x40(sp)
   14346: ce e4        	c.sdsp	s3, 0x48(sp)
   14348: 19 a0        	c.j	0x1434e <__riscv_save_3+0x4>

000000000001434a <__riscv_save_3>:
   1434a: 59 71        	c.addi16sp	sp, -0x70
   1434c: 15 43        	c.li	t1, 0x5
   1434e: ca e8        	c.sdsp	s2, 0x50(sp)
   14350: a6 ec        	c.sdsp	s1, 0x58(sp)
   14352: a2 f0        	c.sdsp	s0, 0x60(sp)
   14354: 86 f4        	c.sdsp	ra, 0x68(sp)
   14356: 12 03        	c.slli	t1, 0x4
   14358: 1a 91        	c.add	sp, t1
   1435a: 82 82        	c.jr	t0

000000000001435c <__riscv_save_1>:
   1435c: 41 11        	c.addi	sp, -0x10
   1435e: 22 e0        	c.sdsp	s0, 0x0(sp)
   14360: 06 e4        	c.sdsp	ra, 0x8(sp)
   14362: 82 82        	c.jr	t0

0000000000014364 <__riscv_restore_12>:
   14364: a2 6d        	c.ldsp	s11, 0x8(sp)
   14366: 41 01        	c.addi	sp, 0x10

0000000000014368 <__riscv_restore_11>:
   14368: 02 6d        	c.ldsp	s10, 0x0(sp)
   1436a: a2 6c        	c.ldsp	s9, 0x8(sp)
   1436c: 41 01        	c.addi	sp, 0x10

000000000001436e <__riscv_restore_9>:
   1436e: 02 6c        	c.ldsp	s8, 0x0(sp)
   14370: a2 6b        	c.ldsp	s7, 0x8(sp)
   14372: 41 01        	c.addi	sp, 0x10

0000000000014374 <__riscv_restore_7>:
   14374: 02 6b        	c.ldsp	s6, 0x0(sp)
   14376: a2 6a        	c.ldsp	s5, 0x8(sp)
   14378: 41 01        	c.addi	sp, 0x10

000000000001437a <__riscv_restore_5>:
   1437a: 02 6a        	c.ldsp	s4, 0x0(sp)
   1437c: a2 69        	c.ldsp	s3, 0x8(sp)
   1437e: 41 01        	c.addi	sp, 0x10

0000000000014380 <__riscv_restore_3>:
   14380: 02 69        	c.ldsp	s2, 0x0(sp)
   14382: a2 64        	c.ldsp	s1, 0x8(sp)
   14384: 41 01        	c.addi	sp, 0x10

0000000000014386 <__riscv_restore_1>:
   14386: 02 64        	c.ldsp	s0, 0x0(sp)
   14388: a2 60        	c.ldsp	ra, 0x8(sp)
   1438a: 41 01        	c.addi	sp, 0x10
   1438c: 82 80        	c.jr	ra
