
dynamic_Zcb_bf:	file format elf64-littleriscv

Disassembly of section .text:

0000000000010120 <exit>:
   10120: 41 11        	addi	sp, sp, -0x10
   10122: 81 45        	li	a1, 0x0
   10124: 22 e0        	sd	s0, 0x0(sp)
   10126: 06 e4        	sd	ra, 0x8(sp)
   10128: 2a 84        	mv	s0, a0
   1012a: ef 20 40 03  	jal	0x1215e <__call_exitprocs>
   1012e: 83 b7 01 1a  	ld	a5, 0x1a0(gp)
   10132: 91 c3        	beqz	a5, 0x10136 <exit+0x16>
   10134: 82 97        	jalr	a5
   10136: 22 85        	mv	a0, s0
   10138: ef 30 d0 29  	jal	0x13bd4 <_exit>

000000000001013c <register_fini>:
   1013c: 93 07 00 00  	li	a5, 0x0
   10140: 91 c7        	beqz	a5, 0x1014c <register_fini+0x10>
   10142: 4d 65        	lui	a0, 0x13
   10144: 13 05 45 63  	addi	a0, a0, 0x634
   10148: 6f 20 80 0e  	j	0x12230 <atexit>
   1014c: 82 80        	ret

000000000001014e <_start>:
   1014e: 97 81 00 00  	auipc	gp, 0x8
   10152: 93 81 21 8d  	addi	gp, gp, -0x72e
   10156: 13 85 01 1a  	addi	a0, gp, 0x1a0
   1015a: 13 86 01 76  	addi	a2, gp, 0x760
   1015e: 09 8e        	sub	a2, a2, a0
   10160: 81 45        	li	a1, 0x0
   10162: ef 10 b0 56  	jal	0x11ecc <memset>
   10166: 17 25 00 00  	auipc	a0, 0x2
   1016a: 13 05 a5 0c  	addi	a0, a0, 0xca
   1016e: 19 c5        	beqz	a0, 0x1017c <_start+0x2e>
   10170: 17 35 00 00  	auipc	a0, 0x3
   10174: 13 05 45 4c  	addi	a0, a0, 0x4c4
   10178: ef 20 80 0b  	jal	0x12230 <atexit>
   1017c: ef 10 f0 4d  	jal	0x11e5a <__libc_init_array>
   10180: 02 45        	lw	a0, 0x0(sp)
   10182: 2c 00        	addi	a1, sp, 0x8
   10184: 01 46        	li	a2, 0x0
   10186: ef 00 e0 04  	jal	0x101d4 <main>
   1018a: 59 bf        	j	0x10120 <exit>

000000000001018c <__do_global_dtors_aux>:
   1018c: 41 11        	addi	sp, sp, -0x10
   1018e: 22 e0        	sd	s0, 0x0(sp)
   10190: 83 c7 81 1d  	lbu	a5, 0x1d8(gp)
   10194: 06 e4        	sd	ra, 0x8(sp)
   10196: 91 ef        	bnez	a5, 0x101b2 <__do_global_dtors_aux+0x26>
   10198: 93 07 00 00  	li	a5, 0x0
   1019c: 81 cb        	beqz	a5, 0x101ac <__do_global_dtors_aux+0x20>
   1019e: 5d 65        	lui	a0, 0x17
   101a0: 13 05 05 03  	addi	a0, a0, 0x30
   101a4: 97 00 00 00  	auipc	ra, 0x0
   101a8: e7 00 00 00  	jalr	zero
   101ac: 85 47        	li	a5, 0x1
   101ae: 23 8c f1 1c  	sb	a5, 0x1d8(gp)
   101b2: a2 60        	ld	ra, 0x8(sp)
   101b4: 02 64        	ld	s0, 0x0(sp)
   101b6: 41 01        	addi	sp, sp, 0x10
   101b8: 82 80        	ret

00000000000101ba <frame_dummy>:
   101ba: 93 07 00 00  	li	a5, 0x0
   101be: 91 cb        	beqz	a5, 0x101d2 <frame_dummy+0x18>
   101c0: 5d 65        	lui	a0, 0x17
   101c2: 93 85 01 1e  	addi	a1, gp, 0x1e0
   101c6: 13 05 05 03  	addi	a0, a0, 0x30
   101ca: 17 03 00 00  	auipc	t1, 0x0
   101ce: 67 00 00 00  	jr	zero
   101d2: 82 80        	ret

00000000000101d4 <main>:
   101d4: ef 32 30 3f  	jal	t0, 0x13dc6 <__riscv_save_9>
   101d8: 09 66        	lui	a2, 0x2
   101da: 1b 06 06 10  	addiw	a2, a2, 0x100
   101de: 33 01 c1 40  	sub	sp, sp, a2
   101e2: 09 46        	li	a2, 0x2
   101e4: 63 4b a6 00  	blt	a2, a0, 0x101fa <main+0x26>
   101e8: 37 45 01 00  	lui	a0, 0x14
   101ec: 13 05 f5 e5  	addi	a0, a0, -0x1a1
   101f0: ef 10 40 42  	jal	0x11614 <puts>
   101f4: 7d 55        	li	a0, -0x1
   101f6: ef f0 bf f2  	jal	0x10120 <exit>
   101fa: 2e 89        	mv	s2, a1
   101fc: 88 65        	ld	a0, 0x8(a1)
   101fe: 08 81        	lbu	a0, 0x0(a0)
   10200: 93 05 30 06  	li	a1, 0x63
   10204: 85 49        	li	s3, 0x1
   10206: 63 cb a5 00  	blt	a1, a0, 0x1021c <main+0x48>
   1020a: 93 05 40 04  	li	a1, 0x44
   1020e: 63 0f b5 00  	beq	a0, a1, 0x1022c <main+0x58>
   10212: 93 05 50 04  	li	a1, 0x45
   10216: 63 0c b5 00  	beq	a0, a1, 0x1022e <main+0x5a>
   1021a: f9 b7        	j	0x101e8 <main+0x14>
   1021c: 93 05 50 06  	li	a1, 0x65
   10220: 63 07 b5 00  	beq	a0, a1, 0x1022e <main+0x5a>
   10224: 93 05 40 06  	li	a1, 0x64
   10228: e3 10 b5 fc  	bne	a0, a1, 0x101e8 <main+0x14>
   1022c: 81 49        	li	s3, 0x0
   1022e: 01 45        	li	a0, 0x0
   10230: 81 44        	li	s1, 0x0
   10232: 03 34 09 02  	ld	s0, 0x20(s2)
   10236: b7 65 01 00  	lui	a1, 0x16
   1023a: 93 85 05 f2  	addi	a1, a1, -0xe0
   1023e: a9 42        	li	t0, 0xa
   10240: 93 06 00 04  	li	a3, 0x40
   10244: 13 08 81 06  	addi	a6, sp, 0x68
   10248: 99 48        	li	a7, 0x6
   1024a: 18 80        	lbu	a4, 0x0(s0)
   1024c: 21 cf        	beqz	a4, 0x102a4 <main+0xd0>
   1024e: b3 87 e5 00  	add	a5, a1, a4
   10252: dc 83        	lbu	a5, 0x1(a5)
   10254: 8d 8b        	andi	a5, a5, 0x3
   10256: f9 17        	addi	a5, a5, -0x2
   10258: b3 37 f0 00  	snez	a5, a5
   1025c: fd 17        	addi	a5, a5, -0x1
   1025e: 81 9b        	andi	a5, a5, -0x20
   10260: 3e 97        	add	a4, a4, a5
   10262: 93 07 07 fd  	addi	a5, a4, -0x30
   10266: 13 f6 f7 0f  	andi	a2, a5, 0xff
   1026a: 93 07 00 fd  	li	a5, -0x30
   1026e: 63 69 56 00  	bltu	a2, t0, 0x10280 <main+0xac>
   10272: 13 06 f7 fb  	addi	a2, a4, -0x41
   10276: 61 9e        	andi	a2, a2, 0xff
   10278: 93 07 90 fc  	li	a5, -0x37
   1027c: 63 7c 16 0f  	bgeu	a2, a7, 0x10374 <main+0x1a0>
   10280: 61 9f        	andi	a4, a4, 0xff
   10282: 12 05        	slli	a0, a0, 0x4
   10284: 3e 95        	add	a0, a0, a5
   10286: 3a 95        	add	a0, a0, a4
   10288: 13 f6 14 00  	andi	a2, s1, 0x1
   1028c: 1b 87 14 00  	addiw	a4, s1, 0x1
   10290: 11 c6        	beqz	a2, 0x1029c <main+0xc8>
   10292: 1b 56 17 00  	srliw	a2, a4, 0x1
   10296: 42 96        	add	a2, a2, a6
   10298: a3 0f a6 fe  	sb	a0, -0x1(a2)
   1029c: 05 04        	addi	s0, s0, 0x1
   1029e: ba 84        	mv	s1, a4
   102a0: e3 15 d7 fa  	bne	a4, a3, 0x1024a <main+0x76>
   102a4: 88 18        	addi	a0, sp, 0x70
   102a6: a1 45        	li	a1, 0x8
   102a8: b0 10        	addi	a2, sp, 0x68
   102aa: ef 00 40 0d  	jal	0x1037e <BF_set_key>
   102ae: 08 80        	lbu	a0, 0x0(s0)
   102b0: 4d ed        	bnez	a0, 0x1036a <main+0x196>
   102b2: 03 35 09 01  	ld	a0, 0x10(s2)
   102b6: b7 45 01 00  	lui	a1, 0x14
   102ba: 93 85 85 e2  	addi	a1, a1, -0x1d8
   102be: ef 10 80 07  	jal	0x11336 <fopen>
   102c2: 1d d1        	beqz	a0, 0x101e8 <main+0x14>
   102c4: 2a 8b        	mv	s6, a0
   102c6: 03 35 89 01  	ld	a0, 0x18(s2)
   102ca: b7 45 01 00  	lui	a1, 0x14
   102ce: 93 85 a5 e2  	addi	a1, a1, -0x1d6
   102d2: ef 10 40 06  	jal	0x11336 <fopen>
   102d6: e3 09 05 f0  	beqz	a0, 0x101e8 <main+0x14>
   102da: aa 8a        	mv	s5, a0
   102dc: 83 5b 0b 01  	lhu	s7, 0x10(s6)
   102e0: 13 f5 0b 02  	andi	a0, s7, 0x20
   102e4: 25 e9        	bnez	a0, 0x10354 <main+0x180>
   102e6: 13 09 01 04  	addi	s2, sp, 0x40
   102ea: 13 0a 70 02  	li	s4, 0x27
   102ee: 13 f5 0b 02  	andi	a0, s7, 0x20
   102f2: 29 e5        	bnez	a0, 0x1033c <main+0x168>
   102f4: 01 46        	li	a2, 0x0
   102f6: b2 84        	mv	s1, a2
   102f8: 5a 85        	mv	a0, s6
   102fa: ef 10 80 18  	jal	0x11482 <getc>
   102fe: 83 5b 0b 01  	lhu	s7, 0x10(s6)
   10302: b3 05 99 00  	add	a1, s2, s1
   10306: 88 89        	sb	a0, 0x0(a1)
   10308: 13 f5 0b 02  	andi	a0, s7, 0x20
   1030c: 13 86 14 00  	addi	a2, s1, 0x1
   10310: 19 e1        	bnez	a0, 0x10316 <main+0x142>
   10312: e3 e2 44 ff  	bltu	s1, s4, 0x102f6 <main+0x122>
   10316: 88 00        	addi	a0, sp, 0x40
   10318: 2c 08        	addi	a1, sp, 0x18
   1031a: 94 18        	addi	a3, sp, 0x70
   1031c: 18 08        	addi	a4, sp, 0x10
   1031e: 7c 00        	addi	a5, sp, 0xc
   10320: 20 08        	addi	s0, sp, 0x18
   10322: 4e 88        	mv	a6, s3
   10324: ef 00 70 39  	jal	0x10eba <BF_cfb64_encrypt>
   10328: a2 94        	add	s1, s1, s0
   1032a: 85 04        	addi	s1, s1, 0x1
   1032c: 08 80        	lbu	a0, 0x0(s0)
   1032e: d6 85        	mv	a1, s5
   10330: ef 10 00 04  	jal	0x11370 <fputc>
   10334: 05 04        	addi	s0, s0, 0x1
   10336: e3 1b 94 fe  	bne	s0, s1, 0x1032c <main+0x158>
   1033a: 11 a8        	j	0x1034e <main+0x17a>
   1033c: 88 00        	addi	a0, sp, 0x40
   1033e: 2c 08        	addi	a1, sp, 0x18
   10340: 94 18        	addi	a3, sp, 0x70
   10342: 18 08        	addi	a4, sp, 0x10
   10344: 7c 00        	addi	a5, sp, 0xc
   10346: 01 46        	li	a2, 0x0
   10348: 4e 88        	mv	a6, s3
   1034a: ef 00 10 37  	jal	0x10eba <BF_cfb64_encrypt>
   1034e: 13 f5 0b 02  	andi	a0, s7, 0x20
   10352: 51 dd        	beqz	a0, 0x102ee <main+0x11a>
   10354: 1b 05 0b 00  	sext.w	a0, s6
   10358: ef 10 d0 36  	jal	0x11ec4 <close>
   1035c: 1b 85 0a 00  	sext.w	a0, s5
   10360: ef 10 50 36  	jal	0x11ec4 <close>
   10364: 05 45        	li	a0, 0x1
   10366: ef f0 bf db  	jal	0x10120 <exit>
   1036a: 37 45 01 00  	lui	a0, 0x14
   1036e: 13 05 c5 e2  	addi	a0, a0, -0x1d4
   10372: bd bd        	j	0x101f0 <main+0x1c>
   10374: 37 45 01 00  	lui	a0, 0x14
   10378: 13 05 b5 e3  	addi	a0, a0, -0x1c5
   1037c: 95 bd        	j	0x101f0 <main+0x1c>

000000000001037e <BF_set_key>:
   1037e: ef 32 d0 25  	jal	t0, 0x13dda <__riscv_save_5>
   10382: 41 11        	addi	sp, sp, -0x10
   10384: 32 84        	mv	s0, a2
   10386: 2e 89        	mv	s2, a1
   10388: aa 89        	mv	s3, a0
   1038a: 37 45 01 00  	lui	a0, 0x14
   1038e: 93 05 05 e9  	addi	a1, a0, -0x170
   10392: 09 65        	lui	a0, 0x2
   10394: 1b 06 05 09  	addiw	a2, a0, 0x90
   10398: 4e 85        	mv	a0, s3
   1039a: ef 10 d0 3d  	jal	0x11f76 <memcpy>
   1039e: 13 05 80 04  	li	a0, 0x48
   103a2: 63 44 a9 00  	blt	s2, a0, 0x103aa <BF_set_key+0x2c>
   103a6: 13 09 80 04  	li	s2, 0x48
   103aa: 22 99        	add	s2, s2, s0
   103ac: 13 85 09 09  	addi	a0, s3, 0x90
   103b0: ce 85        	mv	a1, s3
   103b2: 22 86        	mv	a2, s0
   103b4: 93 06 16 00  	addi	a3, a2, 0x1
   103b8: 63 e3 26 01  	bltu	a3, s2, 0x103be <BF_set_key+0x40>
   103bc: a2 86        	mv	a3, s0
   103be: 13 87 16 00  	addi	a4, a3, 0x1
   103c2: 63 63 27 01  	bltu	a4, s2, 0x103c8 <BF_set_key+0x4a>
   103c6: 22 87        	mv	a4, s0
   103c8: 93 04 17 00  	addi	s1, a4, 0x1
   103cc: 63 e3 24 01  	bltu	s1, s2, 0x103d2 <BF_set_key+0x54>
   103d0: a2 84        	mv	s1, s0
   103d2: 93 87 14 00  	addi	a5, s1, 0x1
   103d6: 63 e3 27 01  	bltu	a5, s2, 0x103dc <BF_set_key+0x5e>
   103da: a2 87        	mv	a5, s0
   103dc: 10 82        	lbu	a2, 0x0(a2)
   103de: 94 82        	lbu	a3, 0x0(a3)
   103e0: 42 06        	slli	a2, a2, 0x10
   103e2: a2 06        	slli	a3, a3, 0x8
   103e4: 18 83        	lbu	a4, 0x0(a4)
   103e6: 55 8e        	or	a2, a2, a3
   103e8: 94 80        	lbu	a3, 0x0(s1)
   103ea: 84 61        	ld	s1, 0x0(a1)
   103ec: 59 8e        	or	a2, a2, a4
   103ee: 22 06        	slli	a2, a2, 0x8
   103f0: 55 8e        	or	a2, a2, a3
   103f2: 25 8e        	xor	a2, a2, s1
   103f4: 90 e1        	sd	a2, 0x0(a1)
   103f6: a1 05        	addi	a1, a1, 0x8
   103f8: 3e 86        	mv	a2, a5
   103fa: e3 9d a5 fa  	bne	a1, a0, 0x103b4 <BF_set_key+0x36>
   103fe: 02 e4        	sd	zero, 0x8(sp)
   10400: 02 e0        	sd	zero, 0x0(sp)
   10402: 13 84 89 00  	addi	s0, s3, 0x8
   10406: 93 84 89 09  	addi	s1, s3, 0x98
   1040a: 0a 85        	mv	a0, sp
   1040c: 05 46        	li	a2, 0x1
   1040e: ce 85        	mv	a1, s3
   10410: ef 00 c0 03  	jal	0x1044c <BF_encrypt>
   10414: 02 65        	ld	a0, 0x0(sp)
   10416: a2 65        	ld	a1, 0x8(sp)
   10418: 23 3c a4 fe  	sd	a0, -0x8(s0)
   1041c: 0c e0        	sd	a1, 0x0(s0)
   1041e: 41 04        	addi	s0, s0, 0x10
   10420: e3 15 94 fe  	bne	s0, s1, 0x1040a <BF_set_key+0x8c>
   10424: 09 65        	lui	a0, 0x2
   10426: 1b 04 85 09  	addiw	s0, a0, 0x98
   1042a: 4e 94        	add	s0, s0, s3
   1042c: 0a 85        	mv	a0, sp
   1042e: 05 46        	li	a2, 0x1
   10430: ce 85        	mv	a1, s3
   10432: ef 00 a0 01  	jal	0x1044c <BF_encrypt>
   10436: 02 65        	ld	a0, 0x0(sp)
   10438: a2 65        	ld	a1, 0x8(sp)
   1043a: 23 bc a4 fe  	sd	a0, -0x8(s1)
   1043e: 8c e0        	sd	a1, 0x0(s1)
   10440: c1 04        	addi	s1, s1, 0x10
   10442: e3 95 84 fe  	bne	s1, s0, 0x1042c <BF_set_key+0xae>
   10446: 41 01        	addi	sp, sp, 0x10
   10448: 6f 30 d0 1c  	j	0x13e14 <__riscv_restore_5>

000000000001044c <BF_encrypt>:
   1044c: 14 61        	ld	a3, 0x0(a0)
   1044e: 83 32 85 00  	ld	t0, 0x8(a0)
   10452: 7d 57        	li	a4, -0x1
   10454: 13 58 07 02  	srli	a6, a4, 0x20
   10458: 13 87 05 09  	addi	a4, a1, 0x90
   1045c: 63 05 06 52  	beqz	a2, 0x10986 <BF_encrypt+0x53a>
   10460: 90 61        	ld	a2, 0x0(a1)
   10462: b3 48 d6 00  	xor	a7, a2, a3
   10466: 93 d6 58 01  	srli	a3, a7, 0x15
   1046a: e1 9a        	andi	a3, a3, -0x8
   1046c: ba 96        	add	a3, a3, a4
   1046e: 03 b3 06 00  	ld	t1, 0x0(a3)
   10472: 13 96 88 02  	slli	a2, a7, 0x28
   10476: 61 92        	srli	a2, a2, 0x38
   10478: 13 06 06 10  	addi	a2, a2, 0x100
   1047c: 0e 06        	slli	a2, a2, 0x3
   1047e: 3a 96        	add	a2, a2, a4
   10480: 10 62        	ld	a2, 0x0(a2)
   10482: 93 97 08 03  	slli	a5, a7, 0x30
   10486: e1 93        	srli	a5, a5, 0x38
   10488: 93 87 07 20  	addi	a5, a5, 0x200
   1048c: 8e 07        	slli	a5, a5, 0x3
   1048e: ba 97        	add	a5, a5, a4
   10490: 83 b3 07 00  	ld	t2, 0x0(a5)
   10494: 93 f6 f8 0f  	andi	a3, a7, 0xff
   10498: 93 86 06 30  	addi	a3, a3, 0x300
   1049c: 8e 06        	slli	a3, a3, 0x3
   1049e: ba 96        	add	a3, a3, a4
   104a0: 94 62        	ld	a3, 0x0(a3)
   104a2: 1a 96        	add	a2, a2, t1
   104a4: 9c 65        	ld	a5, 0x8(a1)
   104a6: 33 46 76 00  	xor	a2, a2, t2
   104aa: 36 96        	add	a2, a2, a3
   104ac: 33 76 06 01  	and	a2, a2, a6
   104b0: b3 c7 57 00  	xor	a5, a5, t0
   104b4: b3 c2 c7 00  	xor	t0, a5, a2
   104b8: 13 d6 52 01  	srli	a2, t0, 0x15
   104bc: 61 9a        	andi	a2, a2, -0x8
   104be: 3a 96        	add	a2, a2, a4
   104c0: 03 33 06 00  	ld	t1, 0x0(a2)
   104c4: 93 96 82 02  	slli	a3, t0, 0x28
   104c8: e1 92        	srli	a3, a3, 0x38
   104ca: 93 86 06 10  	addi	a3, a3, 0x100
   104ce: 8e 06        	slli	a3, a3, 0x3
   104d0: ba 96        	add	a3, a3, a4
   104d2: 94 62        	ld	a3, 0x0(a3)
   104d4: 93 97 02 03  	slli	a5, t0, 0x30
   104d8: e1 93        	srli	a5, a5, 0x38
   104da: 93 87 07 20  	addi	a5, a5, 0x200
   104de: 8e 07        	slli	a5, a5, 0x3
   104e0: ba 97        	add	a5, a5, a4
   104e2: 83 b3 07 00  	ld	t2, 0x0(a5)
   104e6: 13 f6 f2 0f  	andi	a2, t0, 0xff
   104ea: 13 06 06 30  	addi	a2, a2, 0x300
   104ee: 0e 06        	slli	a2, a2, 0x3
   104f0: 3a 96        	add	a2, a2, a4
   104f2: 10 62        	ld	a2, 0x0(a2)
   104f4: 9a 96        	add	a3, a3, t1
   104f6: 9c 69        	ld	a5, 0x10(a1)
   104f8: b3 c6 76 00  	xor	a3, a3, t2
   104fc: 36 96        	add	a2, a2, a3
   104fe: 33 76 06 01  	and	a2, a2, a6
   10502: b3 c6 17 01  	xor	a3, a5, a7
   10506: b3 c8 c6 00  	xor	a7, a3, a2
   1050a: 93 d6 58 01  	srli	a3, a7, 0x15
   1050e: e1 9a        	andi	a3, a3, -0x8
   10510: ba 96        	add	a3, a3, a4
   10512: 03 b3 06 00  	ld	t1, 0x0(a3)
   10516: 93 97 88 02  	slli	a5, a7, 0x28
   1051a: e1 93        	srli	a5, a5, 0x38
   1051c: 93 87 07 10  	addi	a5, a5, 0x100
   10520: 8e 07        	slli	a5, a5, 0x3
   10522: ba 97        	add	a5, a5, a4
   10524: 9c 63        	ld	a5, 0x0(a5)
   10526: 13 96 08 03  	slli	a2, a7, 0x30
   1052a: 61 92        	srli	a2, a2, 0x38
   1052c: 13 06 06 20  	addi	a2, a2, 0x200
   10530: 0e 06        	slli	a2, a2, 0x3
   10532: 3a 96        	add	a2, a2, a4
   10534: 83 33 06 00  	ld	t2, 0x0(a2)
   10538: 93 f6 f8 0f  	andi	a3, a7, 0xff
   1053c: 93 86 06 30  	addi	a3, a3, 0x300
   10540: 8e 06        	slli	a3, a3, 0x3
   10542: ba 96        	add	a3, a3, a4
   10544: 94 62        	ld	a3, 0x0(a3)
   10546: 9a 97        	add	a5, a5, t1
   10548: 90 6d        	ld	a2, 0x18(a1)
   1054a: b3 c7 77 00  	xor	a5, a5, t2
   1054e: be 96        	add	a3, a3, a5
   10550: b3 f6 06 01  	and	a3, a3, a6
   10554: b3 47 56 00  	xor	a5, a2, t0
   10558: b3 c2 d7 00  	xor	t0, a5, a3
   1055c: 13 d6 52 01  	srli	a2, t0, 0x15
   10560: 61 9a        	andi	a2, a2, -0x8
   10562: 3a 96        	add	a2, a2, a4
   10564: 03 33 06 00  	ld	t1, 0x0(a2)
   10568: 93 96 82 02  	slli	a3, t0, 0x28
   1056c: e1 92        	srli	a3, a3, 0x38
   1056e: 93 86 06 10  	addi	a3, a3, 0x100
   10572: 8e 06        	slli	a3, a3, 0x3
   10574: ba 96        	add	a3, a3, a4
   10576: 94 62        	ld	a3, 0x0(a3)
   10578: 93 97 02 03  	slli	a5, t0, 0x30
   1057c: e1 93        	srli	a5, a5, 0x38
   1057e: 93 87 07 20  	addi	a5, a5, 0x200
   10582: 8e 07        	slli	a5, a5, 0x3
   10584: ba 97        	add	a5, a5, a4
   10586: 83 b3 07 00  	ld	t2, 0x0(a5)
   1058a: 13 f6 f2 0f  	andi	a2, t0, 0xff
   1058e: 13 06 06 30  	addi	a2, a2, 0x300
   10592: 0e 06        	slli	a2, a2, 0x3
   10594: 3a 96        	add	a2, a2, a4
   10596: 10 62        	ld	a2, 0x0(a2)
   10598: 9a 96        	add	a3, a3, t1
   1059a: 9c 71        	ld	a5, 0x20(a1)
   1059c: b3 c6 76 00  	xor	a3, a3, t2
   105a0: 36 96        	add	a2, a2, a3
   105a2: 33 76 06 01  	and	a2, a2, a6
   105a6: b3 c6 17 01  	xor	a3, a5, a7
   105aa: b3 c8 c6 00  	xor	a7, a3, a2
   105ae: 93 d6 58 01  	srli	a3, a7, 0x15
   105b2: e1 9a        	andi	a3, a3, -0x8
   105b4: ba 96        	add	a3, a3, a4
   105b6: 03 b3 06 00  	ld	t1, 0x0(a3)
   105ba: 93 97 88 02  	slli	a5, a7, 0x28
   105be: e1 93        	srli	a5, a5, 0x38
   105c0: 93 87 07 10  	addi	a5, a5, 0x100
   105c4: 8e 07        	slli	a5, a5, 0x3
   105c6: ba 97        	add	a5, a5, a4
   105c8: 9c 63        	ld	a5, 0x0(a5)
   105ca: 13 96 08 03  	slli	a2, a7, 0x30
   105ce: 61 92        	srli	a2, a2, 0x38
   105d0: 13 06 06 20  	addi	a2, a2, 0x200
   105d4: 0e 06        	slli	a2, a2, 0x3
   105d6: 3a 96        	add	a2, a2, a4
   105d8: 83 33 06 00  	ld	t2, 0x0(a2)
   105dc: 93 f6 f8 0f  	andi	a3, a7, 0xff
   105e0: 93 86 06 30  	addi	a3, a3, 0x300
   105e4: 8e 06        	slli	a3, a3, 0x3
   105e6: ba 96        	add	a3, a3, a4
   105e8: 94 62        	ld	a3, 0x0(a3)
   105ea: 9a 97        	add	a5, a5, t1
   105ec: 90 75        	ld	a2, 0x28(a1)
   105ee: b3 c7 77 00  	xor	a5, a5, t2
   105f2: be 96        	add	a3, a3, a5
   105f4: b3 f6 06 01  	and	a3, a3, a6
   105f8: b3 47 56 00  	xor	a5, a2, t0
   105fc: b3 c2 d7 00  	xor	t0, a5, a3
   10600: 13 d6 52 01  	srli	a2, t0, 0x15
   10604: 61 9a        	andi	a2, a2, -0x8
   10606: 3a 96        	add	a2, a2, a4
   10608: 03 33 06 00  	ld	t1, 0x0(a2)
   1060c: 93 96 82 02  	slli	a3, t0, 0x28
   10610: e1 92        	srli	a3, a3, 0x38
   10612: 93 86 06 10  	addi	a3, a3, 0x100
   10616: 8e 06        	slli	a3, a3, 0x3
   10618: ba 96        	add	a3, a3, a4
   1061a: 94 62        	ld	a3, 0x0(a3)
   1061c: 93 97 02 03  	slli	a5, t0, 0x30
   10620: e1 93        	srli	a5, a5, 0x38
   10622: 93 87 07 20  	addi	a5, a5, 0x200
   10626: 8e 07        	slli	a5, a5, 0x3
   10628: ba 97        	add	a5, a5, a4
   1062a: 83 b3 07 00  	ld	t2, 0x0(a5)
   1062e: 13 f6 f2 0f  	andi	a2, t0, 0xff
   10632: 13 06 06 30  	addi	a2, a2, 0x300
   10636: 0e 06        	slli	a2, a2, 0x3
   10638: 3a 96        	add	a2, a2, a4
   1063a: 10 62        	ld	a2, 0x0(a2)
   1063c: 9a 96        	add	a3, a3, t1
   1063e: 9c 79        	ld	a5, 0x30(a1)
   10640: b3 c6 76 00  	xor	a3, a3, t2
   10644: 36 96        	add	a2, a2, a3
   10646: 33 76 06 01  	and	a2, a2, a6
   1064a: b3 c6 17 01  	xor	a3, a5, a7
   1064e: b3 c8 c6 00  	xor	a7, a3, a2
   10652: 93 d6 58 01  	srli	a3, a7, 0x15
   10656: e1 9a        	andi	a3, a3, -0x8
   10658: ba 96        	add	a3, a3, a4
   1065a: 03 b3 06 00  	ld	t1, 0x0(a3)
   1065e: 93 97 88 02  	slli	a5, a7, 0x28
   10662: e1 93        	srli	a5, a5, 0x38
   10664: 93 87 07 10  	addi	a5, a5, 0x100
   10668: 8e 07        	slli	a5, a5, 0x3
   1066a: ba 97        	add	a5, a5, a4
   1066c: 9c 63        	ld	a5, 0x0(a5)
   1066e: 13 96 08 03  	slli	a2, a7, 0x30
   10672: 61 92        	srli	a2, a2, 0x38
   10674: 13 06 06 20  	addi	a2, a2, 0x200
   10678: 0e 06        	slli	a2, a2, 0x3
   1067a: 3a 96        	add	a2, a2, a4
   1067c: 83 33 06 00  	ld	t2, 0x0(a2)
   10680: 93 f6 f8 0f  	andi	a3, a7, 0xff
   10684: 93 86 06 30  	addi	a3, a3, 0x300
   10688: 8e 06        	slli	a3, a3, 0x3
   1068a: ba 96        	add	a3, a3, a4
   1068c: 94 62        	ld	a3, 0x0(a3)
   1068e: 9a 97        	add	a5, a5, t1
   10690: 90 7d        	ld	a2, 0x38(a1)
   10692: b3 c7 77 00  	xor	a5, a5, t2
   10696: be 96        	add	a3, a3, a5
   10698: b3 f6 06 01  	and	a3, a3, a6
   1069c: b3 47 56 00  	xor	a5, a2, t0
   106a0: b3 c2 d7 00  	xor	t0, a5, a3
   106a4: 13 d6 52 01  	srli	a2, t0, 0x15
   106a8: 61 9a        	andi	a2, a2, -0x8
   106aa: 3a 96        	add	a2, a2, a4
   106ac: 03 33 06 00  	ld	t1, 0x0(a2)
   106b0: 93 96 82 02  	slli	a3, t0, 0x28
   106b4: e1 92        	srli	a3, a3, 0x38
   106b6: 93 86 06 10  	addi	a3, a3, 0x100
   106ba: 8e 06        	slli	a3, a3, 0x3
   106bc: ba 96        	add	a3, a3, a4
   106be: 94 62        	ld	a3, 0x0(a3)
   106c0: 93 97 02 03  	slli	a5, t0, 0x30
   106c4: e1 93        	srli	a5, a5, 0x38
   106c6: 93 87 07 20  	addi	a5, a5, 0x200
   106ca: 8e 07        	slli	a5, a5, 0x3
   106cc: ba 97        	add	a5, a5, a4
   106ce: 83 b3 07 00  	ld	t2, 0x0(a5)
   106d2: 13 f6 f2 0f  	andi	a2, t0, 0xff
   106d6: 13 06 06 30  	addi	a2, a2, 0x300
   106da: 0e 06        	slli	a2, a2, 0x3
   106dc: 3a 96        	add	a2, a2, a4
   106de: 10 62        	ld	a2, 0x0(a2)
   106e0: 9a 96        	add	a3, a3, t1
   106e2: bc 61        	ld	a5, 0x40(a1)
   106e4: b3 c6 76 00  	xor	a3, a3, t2
   106e8: 36 96        	add	a2, a2, a3
   106ea: 33 76 06 01  	and	a2, a2, a6
   106ee: b3 c6 17 01  	xor	a3, a5, a7
   106f2: b3 c8 c6 00  	xor	a7, a3, a2
   106f6: 93 d6 58 01  	srli	a3, a7, 0x15
   106fa: e1 9a        	andi	a3, a3, -0x8
   106fc: ba 96        	add	a3, a3, a4
   106fe: 03 b3 06 00  	ld	t1, 0x0(a3)
   10702: 93 97 88 02  	slli	a5, a7, 0x28
   10706: e1 93        	srli	a5, a5, 0x38
   10708: 93 87 07 10  	addi	a5, a5, 0x100
   1070c: 8e 07        	slli	a5, a5, 0x3
   1070e: ba 97        	add	a5, a5, a4
   10710: 9c 63        	ld	a5, 0x0(a5)
   10712: 13 96 08 03  	slli	a2, a7, 0x30
   10716: 61 92        	srli	a2, a2, 0x38
   10718: 13 06 06 20  	addi	a2, a2, 0x200
   1071c: 0e 06        	slli	a2, a2, 0x3
   1071e: 3a 96        	add	a2, a2, a4
   10720: 83 33 06 00  	ld	t2, 0x0(a2)
   10724: 93 f6 f8 0f  	andi	a3, a7, 0xff
   10728: 93 86 06 30  	addi	a3, a3, 0x300
   1072c: 8e 06        	slli	a3, a3, 0x3
   1072e: ba 96        	add	a3, a3, a4
   10730: 94 62        	ld	a3, 0x0(a3)
   10732: 9a 97        	add	a5, a5, t1
   10734: b0 65        	ld	a2, 0x48(a1)
   10736: b3 c7 77 00  	xor	a5, a5, t2
   1073a: be 96        	add	a3, a3, a5
   1073c: b3 f6 06 01  	and	a3, a3, a6
   10740: b3 47 56 00  	xor	a5, a2, t0
   10744: b3 c2 d7 00  	xor	t0, a5, a3
   10748: 13 d6 52 01  	srli	a2, t0, 0x15
   1074c: 61 9a        	andi	a2, a2, -0x8
   1074e: 3a 96        	add	a2, a2, a4
   10750: 03 33 06 00  	ld	t1, 0x0(a2)
   10754: 93 96 82 02  	slli	a3, t0, 0x28
   10758: e1 92        	srli	a3, a3, 0x38
   1075a: 93 86 06 10  	addi	a3, a3, 0x100
   1075e: 8e 06        	slli	a3, a3, 0x3
   10760: ba 96        	add	a3, a3, a4
   10762: 94 62        	ld	a3, 0x0(a3)
   10764: 93 97 02 03  	slli	a5, t0, 0x30
   10768: e1 93        	srli	a5, a5, 0x38
   1076a: 93 87 07 20  	addi	a5, a5, 0x200
   1076e: 8e 07        	slli	a5, a5, 0x3
   10770: ba 97        	add	a5, a5, a4
   10772: 83 b3 07 00  	ld	t2, 0x0(a5)
   10776: 13 f6 f2 0f  	andi	a2, t0, 0xff
   1077a: 13 06 06 30  	addi	a2, a2, 0x300
   1077e: 0e 06        	slli	a2, a2, 0x3
   10780: 3a 96        	add	a2, a2, a4
   10782: 10 62        	ld	a2, 0x0(a2)
   10784: 9a 96        	add	a3, a3, t1
   10786: bc 69        	ld	a5, 0x50(a1)
   10788: b3 c6 76 00  	xor	a3, a3, t2
   1078c: 36 96        	add	a2, a2, a3
   1078e: 33 76 06 01  	and	a2, a2, a6
   10792: b3 c6 17 01  	xor	a3, a5, a7
   10796: b3 c8 c6 00  	xor	a7, a3, a2
   1079a: 93 d6 58 01  	srli	a3, a7, 0x15
   1079e: e1 9a        	andi	a3, a3, -0x8
   107a0: ba 96        	add	a3, a3, a4
   107a2: 03 b3 06 00  	ld	t1, 0x0(a3)
   107a6: 93 97 88 02  	slli	a5, a7, 0x28
   107aa: e1 93        	srli	a5, a5, 0x38
   107ac: 93 87 07 10  	addi	a5, a5, 0x100
   107b0: 8e 07        	slli	a5, a5, 0x3
   107b2: ba 97        	add	a5, a5, a4
   107b4: 9c 63        	ld	a5, 0x0(a5)
   107b6: 13 96 08 03  	slli	a2, a7, 0x30
   107ba: 61 92        	srli	a2, a2, 0x38
   107bc: 13 06 06 20  	addi	a2, a2, 0x200
   107c0: 0e 06        	slli	a2, a2, 0x3
   107c2: 3a 96        	add	a2, a2, a4
   107c4: 83 33 06 00  	ld	t2, 0x0(a2)
   107c8: 93 f6 f8 0f  	andi	a3, a7, 0xff
   107cc: 93 86 06 30  	addi	a3, a3, 0x300
   107d0: 8e 06        	slli	a3, a3, 0x3
   107d2: ba 96        	add	a3, a3, a4
   107d4: 94 62        	ld	a3, 0x0(a3)
   107d6: 9a 97        	add	a5, a5, t1
   107d8: b0 6d        	ld	a2, 0x58(a1)
   107da: b3 c7 77 00  	xor	a5, a5, t2
   107de: be 96        	add	a3, a3, a5
   107e0: b3 f6 06 01  	and	a3, a3, a6
   107e4: b3 47 56 00  	xor	a5, a2, t0
   107e8: b3 c2 d7 00  	xor	t0, a5, a3
   107ec: 13 d6 52 01  	srli	a2, t0, 0x15
   107f0: 61 9a        	andi	a2, a2, -0x8
   107f2: 3a 96        	add	a2, a2, a4
   107f4: 03 33 06 00  	ld	t1, 0x0(a2)
   107f8: 93 96 82 02  	slli	a3, t0, 0x28
   107fc: e1 92        	srli	a3, a3, 0x38
   107fe: 93 86 06 10  	addi	a3, a3, 0x100
   10802: 8e 06        	slli	a3, a3, 0x3
   10804: ba 96        	add	a3, a3, a4
   10806: 94 62        	ld	a3, 0x0(a3)
   10808: 93 97 02 03  	slli	a5, t0, 0x30
   1080c: e1 93        	srli	a5, a5, 0x38
   1080e: 93 87 07 20  	addi	a5, a5, 0x200
   10812: 8e 07        	slli	a5, a5, 0x3
   10814: ba 97        	add	a5, a5, a4
   10816: 83 b3 07 00  	ld	t2, 0x0(a5)
   1081a: 13 f6 f2 0f  	andi	a2, t0, 0xff
   1081e: 13 06 06 30  	addi	a2, a2, 0x300
   10822: 0e 06        	slli	a2, a2, 0x3
   10824: 3a 96        	add	a2, a2, a4
   10826: 10 62        	ld	a2, 0x0(a2)
   10828: 9a 96        	add	a3, a3, t1
   1082a: bc 71        	ld	a5, 0x60(a1)
   1082c: b3 c6 76 00  	xor	a3, a3, t2
   10830: 36 96        	add	a2, a2, a3
   10832: 33 76 06 01  	and	a2, a2, a6
   10836: b3 c6 17 01  	xor	a3, a5, a7
   1083a: b3 c8 c6 00  	xor	a7, a3, a2
   1083e: 93 d6 58 01  	srli	a3, a7, 0x15
   10842: e1 9a        	andi	a3, a3, -0x8
   10844: ba 96        	add	a3, a3, a4
   10846: 03 b3 06 00  	ld	t1, 0x0(a3)
   1084a: 93 97 88 02  	slli	a5, a7, 0x28
   1084e: e1 93        	srli	a5, a5, 0x38
   10850: 93 87 07 10  	addi	a5, a5, 0x100
   10854: 8e 07        	slli	a5, a5, 0x3
   10856: ba 97        	add	a5, a5, a4
   10858: 9c 63        	ld	a5, 0x0(a5)
   1085a: 13 96 08 03  	slli	a2, a7, 0x30
   1085e: 61 92        	srli	a2, a2, 0x38
   10860: 13 06 06 20  	addi	a2, a2, 0x200
   10864: 0e 06        	slli	a2, a2, 0x3
   10866: 3a 96        	add	a2, a2, a4
   10868: 83 33 06 00  	ld	t2, 0x0(a2)
   1086c: 93 f6 f8 0f  	andi	a3, a7, 0xff
   10870: 93 86 06 30  	addi	a3, a3, 0x300
   10874: 8e 06        	slli	a3, a3, 0x3
   10876: ba 96        	add	a3, a3, a4
   10878: 94 62        	ld	a3, 0x0(a3)
   1087a: 9a 97        	add	a5, a5, t1
   1087c: b0 75        	ld	a2, 0x68(a1)
   1087e: b3 c7 77 00  	xor	a5, a5, t2
   10882: be 96        	add	a3, a3, a5
   10884: b3 f6 06 01  	and	a3, a3, a6
   10888: 33 46 56 00  	xor	a2, a2, t0
   1088c: b3 42 d6 00  	xor	t0, a2, a3
   10890: 13 d6 52 01  	srli	a2, t0, 0x15
   10894: 61 9a        	andi	a2, a2, -0x8
   10896: 3a 96        	add	a2, a2, a4
   10898: 03 33 06 00  	ld	t1, 0x0(a2)
   1089c: 93 97 82 02  	slli	a5, t0, 0x28
   108a0: e1 93        	srli	a5, a5, 0x38
   108a2: 93 87 07 10  	addi	a5, a5, 0x100
   108a6: 8e 07        	slli	a5, a5, 0x3
   108a8: ba 97        	add	a5, a5, a4
   108aa: 9c 63        	ld	a5, 0x0(a5)
   108ac: 93 96 02 03  	slli	a3, t0, 0x30
   108b0: e1 92        	srli	a3, a3, 0x38
   108b2: 93 86 06 20  	addi	a3, a3, 0x200
   108b6: 8e 06        	slli	a3, a3, 0x3
   108b8: ba 96        	add	a3, a3, a4
   108ba: 83 b3 06 00  	ld	t2, 0x0(a3)
   108be: 13 f6 f2 0f  	andi	a2, t0, 0xff
   108c2: 13 06 06 30  	addi	a2, a2, 0x300
   108c6: 0e 06        	slli	a2, a2, 0x3
   108c8: 3a 96        	add	a2, a2, a4
   108ca: 10 62        	ld	a2, 0x0(a2)
   108cc: 9a 97        	add	a5, a5, t1
   108ce: b4 79        	ld	a3, 0x70(a1)
   108d0: b3 c7 77 00  	xor	a5, a5, t2
   108d4: 3e 96        	add	a2, a2, a5
   108d6: 33 76 06 01  	and	a2, a2, a6
   108da: b3 c7 16 01  	xor	a5, a3, a7
   108de: b3 c8 c7 00  	xor	a7, a5, a2
   108e2: 13 d6 58 01  	srli	a2, a7, 0x15
   108e6: 61 9a        	andi	a2, a2, -0x8
   108e8: 3a 96        	add	a2, a2, a4
   108ea: 03 33 06 00  	ld	t1, 0x0(a2)
   108ee: 93 96 88 02  	slli	a3, a7, 0x28
   108f2: e1 92        	srli	a3, a3, 0x38
   108f4: 93 86 06 10  	addi	a3, a3, 0x100
   108f8: 8e 06        	slli	a3, a3, 0x3
   108fa: ba 96        	add	a3, a3, a4
   108fc: 94 62        	ld	a3, 0x0(a3)
   108fe: 93 97 08 03  	slli	a5, a7, 0x30
   10902: e1 93        	srli	a5, a5, 0x38
   10904: 93 87 07 20  	addi	a5, a5, 0x200
   10908: 8e 07        	slli	a5, a5, 0x3
   1090a: ba 97        	add	a5, a5, a4
   1090c: 83 b3 07 00  	ld	t2, 0x0(a5)
   10910: 13 f6 f8 0f  	andi	a2, a7, 0xff
   10914: 13 06 06 30  	addi	a2, a2, 0x300
   10918: 0e 06        	slli	a2, a2, 0x3
   1091a: 3a 96        	add	a2, a2, a4
   1091c: 10 62        	ld	a2, 0x0(a2)
   1091e: 9a 96        	add	a3, a3, t1
   10920: bc 7d        	ld	a5, 0x78(a1)
   10922: b3 c6 76 00  	xor	a3, a3, t2
   10926: 36 96        	add	a2, a2, a3
   10928: 33 76 06 01  	and	a2, a2, a6
   1092c: b3 c6 57 00  	xor	a3, a5, t0
   10930: b3 c2 c6 00  	xor	t0, a3, a2
   10934: 93 d6 52 01  	srli	a3, t0, 0x15
   10938: e1 9a        	andi	a3, a3, -0x8
   1093a: ba 96        	add	a3, a3, a4
   1093c: 03 b3 06 00  	ld	t1, 0x0(a3)
   10940: 93 97 82 02  	slli	a5, t0, 0x28
   10944: e1 93        	srli	a5, a5, 0x38
   10946: 93 87 07 10  	addi	a5, a5, 0x100
   1094a: 8e 07        	slli	a5, a5, 0x3
   1094c: ba 97        	add	a5, a5, a4
   1094e: 9c 63        	ld	a5, 0x0(a5)
   10950: 13 96 02 03  	slli	a2, t0, 0x30
   10954: 61 92        	srli	a2, a2, 0x38
   10956: 13 06 06 20  	addi	a2, a2, 0x200
   1095a: 0e 06        	slli	a2, a2, 0x3
   1095c: 3a 96        	add	a2, a2, a4
   1095e: 93 f6 f2 0f  	andi	a3, t0, 0xff
   10962: 93 86 06 30  	addi	a3, a3, 0x300
   10966: 8e 06        	slli	a3, a3, 0x3
   10968: ba 96        	add	a3, a3, a4
   1096a: 10 62        	ld	a2, 0x0(a2)
   1096c: 94 62        	ld	a3, 0x0(a3)
   1096e: 9a 97        	add	a5, a5, t1
   10970: d8 61        	ld	a4, 0x80(a1)
   10972: 3d 8e        	xor	a2, a2, a5
   10974: 36 96        	add	a2, a2, a3
   10976: 33 76 06 01  	and	a2, a2, a6
   1097a: b3 46 17 01  	xor	a3, a4, a7
   1097e: b1 8e        	xor	a3, a3, a2
   10980: 93 85 85 08  	addi	a1, a1, 0x88
   10984: 0d a3        	j	0x10ea6 <BF_encrypt+0xa5a>
   10986: d0 65        	ld	a2, 0x88(a1)
   10988: b3 48 d6 00  	xor	a7, a2, a3
   1098c: 93 d6 58 01  	srli	a3, a7, 0x15
   10990: e1 9a        	andi	a3, a3, -0x8
   10992: ba 96        	add	a3, a3, a4
   10994: 03 b3 06 00  	ld	t1, 0x0(a3)
   10998: 93 97 88 02  	slli	a5, a7, 0x28
   1099c: e1 93        	srli	a5, a5, 0x38
   1099e: 93 87 07 10  	addi	a5, a5, 0x100
   109a2: 8e 07        	slli	a5, a5, 0x3
   109a4: ba 97        	add	a5, a5, a4
   109a6: 9c 63        	ld	a5, 0x0(a5)
   109a8: 13 96 08 03  	slli	a2, a7, 0x30
   109ac: 61 92        	srli	a2, a2, 0x38
   109ae: 13 06 06 20  	addi	a2, a2, 0x200
   109b2: 0e 06        	slli	a2, a2, 0x3
   109b4: 3a 96        	add	a2, a2, a4
   109b6: 83 33 06 00  	ld	t2, 0x0(a2)
   109ba: 93 f6 f8 0f  	andi	a3, a7, 0xff
   109be: 93 86 06 30  	addi	a3, a3, 0x300
   109c2: 8e 06        	slli	a3, a3, 0x3
   109c4: ba 96        	add	a3, a3, a4
   109c6: 94 62        	ld	a3, 0x0(a3)
   109c8: 9a 97        	add	a5, a5, t1
   109ca: d0 61        	ld	a2, 0x80(a1)
   109cc: b3 c7 77 00  	xor	a5, a5, t2
   109d0: be 96        	add	a3, a3, a5
   109d2: b3 f6 06 01  	and	a3, a3, a6
   109d6: 33 46 56 00  	xor	a2, a2, t0
   109da: b3 42 d6 00  	xor	t0, a2, a3
   109de: 13 d6 52 01  	srli	a2, t0, 0x15
   109e2: 61 9a        	andi	a2, a2, -0x8
   109e4: 3a 96        	add	a2, a2, a4
   109e6: 03 33 06 00  	ld	t1, 0x0(a2)
   109ea: 93 97 82 02  	slli	a5, t0, 0x28
   109ee: e1 93        	srli	a5, a5, 0x38
   109f0: 93 87 07 10  	addi	a5, a5, 0x100
   109f4: 8e 07        	slli	a5, a5, 0x3
   109f6: ba 97        	add	a5, a5, a4
   109f8: 9c 63        	ld	a5, 0x0(a5)
   109fa: 93 96 02 03  	slli	a3, t0, 0x30
   109fe: e1 92        	srli	a3, a3, 0x38
   10a00: 93 86 06 20  	addi	a3, a3, 0x200
   10a04: 8e 06        	slli	a3, a3, 0x3
   10a06: ba 96        	add	a3, a3, a4
   10a08: 83 b3 06 00  	ld	t2, 0x0(a3)
   10a0c: 13 f6 f2 0f  	andi	a2, t0, 0xff
   10a10: 13 06 06 30  	addi	a2, a2, 0x300
   10a14: 0e 06        	slli	a2, a2, 0x3
   10a16: 3a 96        	add	a2, a2, a4
   10a18: 10 62        	ld	a2, 0x0(a2)
   10a1a: 9a 97        	add	a5, a5, t1
   10a1c: b4 7d        	ld	a3, 0x78(a1)
   10a1e: b3 c7 77 00  	xor	a5, a5, t2
   10a22: 3e 96        	add	a2, a2, a5
   10a24: 33 76 06 01  	and	a2, a2, a6
   10a28: b3 c6 16 01  	xor	a3, a3, a7
   10a2c: b3 c8 c6 00  	xor	a7, a3, a2
   10a30: 93 d6 58 01  	srli	a3, a7, 0x15
   10a34: e1 9a        	andi	a3, a3, -0x8
   10a36: ba 96        	add	a3, a3, a4
   10a38: 03 b3 06 00  	ld	t1, 0x0(a3)
   10a3c: 93 97 88 02  	slli	a5, a7, 0x28
   10a40: e1 93        	srli	a5, a5, 0x38
   10a42: 93 87 07 10  	addi	a5, a5, 0x100
   10a46: 8e 07        	slli	a5, a5, 0x3
   10a48: ba 97        	add	a5, a5, a4
   10a4a: 9c 63        	ld	a5, 0x0(a5)
   10a4c: 13 96 08 03  	slli	a2, a7, 0x30
   10a50: 61 92        	srli	a2, a2, 0x38
   10a52: 13 06 06 20  	addi	a2, a2, 0x200
   10a56: 0e 06        	slli	a2, a2, 0x3
   10a58: 3a 96        	add	a2, a2, a4
   10a5a: 83 33 06 00  	ld	t2, 0x0(a2)
   10a5e: 93 f6 f8 0f  	andi	a3, a7, 0xff
   10a62: 93 86 06 30  	addi	a3, a3, 0x300
   10a66: 8e 06        	slli	a3, a3, 0x3
   10a68: ba 96        	add	a3, a3, a4
   10a6a: 94 62        	ld	a3, 0x0(a3)
   10a6c: 9a 97        	add	a5, a5, t1
   10a6e: b0 79        	ld	a2, 0x70(a1)
   10a70: b3 c7 77 00  	xor	a5, a5, t2
   10a74: be 96        	add	a3, a3, a5
   10a76: b3 f6 06 01  	and	a3, a3, a6
   10a7a: 33 46 56 00  	xor	a2, a2, t0
   10a7e: b3 42 d6 00  	xor	t0, a2, a3
   10a82: 13 d6 52 01  	srli	a2, t0, 0x15
   10a86: 61 9a        	andi	a2, a2, -0x8
   10a88: 3a 96        	add	a2, a2, a4
   10a8a: 03 33 06 00  	ld	t1, 0x0(a2)
   10a8e: 93 97 82 02  	slli	a5, t0, 0x28
   10a92: e1 93        	srli	a5, a5, 0x38
   10a94: 93 87 07 10  	addi	a5, a5, 0x100
   10a98: 8e 07        	slli	a5, a5, 0x3
   10a9a: ba 97        	add	a5, a5, a4
   10a9c: 9c 63        	ld	a5, 0x0(a5)
   10a9e: 93 96 02 03  	slli	a3, t0, 0x30
   10aa2: e1 92        	srli	a3, a3, 0x38
   10aa4: 93 86 06 20  	addi	a3, a3, 0x200
   10aa8: 8e 06        	slli	a3, a3, 0x3
   10aaa: ba 96        	add	a3, a3, a4
   10aac: 83 b3 06 00  	ld	t2, 0x0(a3)
   10ab0: 13 f6 f2 0f  	andi	a2, t0, 0xff
   10ab4: 13 06 06 30  	addi	a2, a2, 0x300
   10ab8: 0e 06        	slli	a2, a2, 0x3
   10aba: 3a 96        	add	a2, a2, a4
   10abc: 10 62        	ld	a2, 0x0(a2)
   10abe: 9a 97        	add	a5, a5, t1
   10ac0: b4 75        	ld	a3, 0x68(a1)
   10ac2: b3 c7 77 00  	xor	a5, a5, t2
   10ac6: 3e 96        	add	a2, a2, a5
   10ac8: 33 76 06 01  	and	a2, a2, a6
   10acc: b3 c6 16 01  	xor	a3, a3, a7
   10ad0: b3 c8 c6 00  	xor	a7, a3, a2
   10ad4: 93 d6 58 01  	srli	a3, a7, 0x15
   10ad8: e1 9a        	andi	a3, a3, -0x8
   10ada: ba 96        	add	a3, a3, a4
   10adc: 03 b3 06 00  	ld	t1, 0x0(a3)
   10ae0: 93 97 88 02  	slli	a5, a7, 0x28
   10ae4: e1 93        	srli	a5, a5, 0x38
   10ae6: 93 87 07 10  	addi	a5, a5, 0x100
   10aea: 8e 07        	slli	a5, a5, 0x3
   10aec: ba 97        	add	a5, a5, a4
   10aee: 9c 63        	ld	a5, 0x0(a5)
   10af0: 13 96 08 03  	slli	a2, a7, 0x30
   10af4: 61 92        	srli	a2, a2, 0x38
   10af6: 13 06 06 20  	addi	a2, a2, 0x200
   10afa: 0e 06        	slli	a2, a2, 0x3
   10afc: 3a 96        	add	a2, a2, a4
   10afe: 83 33 06 00  	ld	t2, 0x0(a2)
   10b02: 93 f6 f8 0f  	andi	a3, a7, 0xff
   10b06: 93 86 06 30  	addi	a3, a3, 0x300
   10b0a: 8e 06        	slli	a3, a3, 0x3
   10b0c: ba 96        	add	a3, a3, a4
   10b0e: 94 62        	ld	a3, 0x0(a3)
   10b10: 9a 97        	add	a5, a5, t1
   10b12: b0 71        	ld	a2, 0x60(a1)
   10b14: b3 c7 77 00  	xor	a5, a5, t2
   10b18: be 96        	add	a3, a3, a5
   10b1a: b3 f6 06 01  	and	a3, a3, a6
   10b1e: 33 46 56 00  	xor	a2, a2, t0
   10b22: b3 42 d6 00  	xor	t0, a2, a3
   10b26: 13 d6 52 01  	srli	a2, t0, 0x15
   10b2a: 61 9a        	andi	a2, a2, -0x8
   10b2c: 3a 96        	add	a2, a2, a4
   10b2e: 03 33 06 00  	ld	t1, 0x0(a2)
   10b32: 93 97 82 02  	slli	a5, t0, 0x28
   10b36: e1 93        	srli	a5, a5, 0x38
   10b38: 93 87 07 10  	addi	a5, a5, 0x100
   10b3c: 8e 07        	slli	a5, a5, 0x3
   10b3e: ba 97        	add	a5, a5, a4
   10b40: 9c 63        	ld	a5, 0x0(a5)
   10b42: 93 96 02 03  	slli	a3, t0, 0x30
   10b46: e1 92        	srli	a3, a3, 0x38
   10b48: 93 86 06 20  	addi	a3, a3, 0x200
   10b4c: 8e 06        	slli	a3, a3, 0x3
   10b4e: ba 96        	add	a3, a3, a4
   10b50: 83 b3 06 00  	ld	t2, 0x0(a3)
   10b54: 13 f6 f2 0f  	andi	a2, t0, 0xff
   10b58: 13 06 06 30  	addi	a2, a2, 0x300
   10b5c: 0e 06        	slli	a2, a2, 0x3
   10b5e: 3a 96        	add	a2, a2, a4
   10b60: 10 62        	ld	a2, 0x0(a2)
   10b62: 9a 97        	add	a5, a5, t1
   10b64: b4 6d        	ld	a3, 0x58(a1)
   10b66: b3 c7 77 00  	xor	a5, a5, t2
   10b6a: 3e 96        	add	a2, a2, a5
   10b6c: 33 76 06 01  	and	a2, a2, a6
   10b70: b3 c6 16 01  	xor	a3, a3, a7
   10b74: b3 c8 c6 00  	xor	a7, a3, a2
   10b78: 93 d6 58 01  	srli	a3, a7, 0x15
   10b7c: e1 9a        	andi	a3, a3, -0x8
   10b7e: ba 96        	add	a3, a3, a4
   10b80: 03 b3 06 00  	ld	t1, 0x0(a3)
   10b84: 93 97 88 02  	slli	a5, a7, 0x28
   10b88: e1 93        	srli	a5, a5, 0x38
   10b8a: 93 87 07 10  	addi	a5, a5, 0x100
   10b8e: 8e 07        	slli	a5, a5, 0x3
   10b90: ba 97        	add	a5, a5, a4
   10b92: 9c 63        	ld	a5, 0x0(a5)
   10b94: 13 96 08 03  	slli	a2, a7, 0x30
   10b98: 61 92        	srli	a2, a2, 0x38
   10b9a: 13 06 06 20  	addi	a2, a2, 0x200
   10b9e: 0e 06        	slli	a2, a2, 0x3
   10ba0: 3a 96        	add	a2, a2, a4
   10ba2: 83 33 06 00  	ld	t2, 0x0(a2)
   10ba6: 93 f6 f8 0f  	andi	a3, a7, 0xff
   10baa: 93 86 06 30  	addi	a3, a3, 0x300
   10bae: 8e 06        	slli	a3, a3, 0x3
   10bb0: ba 96        	add	a3, a3, a4
   10bb2: 94 62        	ld	a3, 0x0(a3)
   10bb4: 9a 97        	add	a5, a5, t1
   10bb6: b0 69        	ld	a2, 0x50(a1)
   10bb8: b3 c7 77 00  	xor	a5, a5, t2
   10bbc: be 96        	add	a3, a3, a5
   10bbe: b3 f6 06 01  	and	a3, a3, a6
   10bc2: 33 46 56 00  	xor	a2, a2, t0
   10bc6: b3 42 d6 00  	xor	t0, a2, a3
   10bca: 13 d6 52 01  	srli	a2, t0, 0x15
   10bce: 61 9a        	andi	a2, a2, -0x8
   10bd0: 3a 96        	add	a2, a2, a4
   10bd2: 03 33 06 00  	ld	t1, 0x0(a2)
   10bd6: 93 97 82 02  	slli	a5, t0, 0x28
   10bda: e1 93        	srli	a5, a5, 0x38
   10bdc: 93 87 07 10  	addi	a5, a5, 0x100
   10be0: 8e 07        	slli	a5, a5, 0x3
   10be2: ba 97        	add	a5, a5, a4
   10be4: 9c 63        	ld	a5, 0x0(a5)
   10be6: 93 96 02 03  	slli	a3, t0, 0x30
   10bea: e1 92        	srli	a3, a3, 0x38
   10bec: 93 86 06 20  	addi	a3, a3, 0x200
   10bf0: 8e 06        	slli	a3, a3, 0x3
   10bf2: ba 96        	add	a3, a3, a4
   10bf4: 83 b3 06 00  	ld	t2, 0x0(a3)
   10bf8: 13 f6 f2 0f  	andi	a2, t0, 0xff
   10bfc: 13 06 06 30  	addi	a2, a2, 0x300
   10c00: 0e 06        	slli	a2, a2, 0x3
   10c02: 3a 96        	add	a2, a2, a4
   10c04: 10 62        	ld	a2, 0x0(a2)
   10c06: 9a 97        	add	a5, a5, t1
   10c08: b4 65        	ld	a3, 0x48(a1)
   10c0a: b3 c7 77 00  	xor	a5, a5, t2
   10c0e: 3e 96        	add	a2, a2, a5
   10c10: 33 76 06 01  	and	a2, a2, a6
   10c14: b3 c6 16 01  	xor	a3, a3, a7
   10c18: b3 c8 c6 00  	xor	a7, a3, a2
   10c1c: 93 d6 58 01  	srli	a3, a7, 0x15
   10c20: e1 9a        	andi	a3, a3, -0x8
   10c22: ba 96        	add	a3, a3, a4
   10c24: 03 b3 06 00  	ld	t1, 0x0(a3)
   10c28: 93 97 88 02  	slli	a5, a7, 0x28
   10c2c: e1 93        	srli	a5, a5, 0x38
   10c2e: 93 87 07 10  	addi	a5, a5, 0x100
   10c32: 8e 07        	slli	a5, a5, 0x3
   10c34: ba 97        	add	a5, a5, a4
   10c36: 9c 63        	ld	a5, 0x0(a5)
   10c38: 13 96 08 03  	slli	a2, a7, 0x30
   10c3c: 61 92        	srli	a2, a2, 0x38
   10c3e: 13 06 06 20  	addi	a2, a2, 0x200
   10c42: 0e 06        	slli	a2, a2, 0x3
   10c44: 3a 96        	add	a2, a2, a4
   10c46: 83 33 06 00  	ld	t2, 0x0(a2)
   10c4a: 93 f6 f8 0f  	andi	a3, a7, 0xff
   10c4e: 93 86 06 30  	addi	a3, a3, 0x300
   10c52: 8e 06        	slli	a3, a3, 0x3
   10c54: ba 96        	add	a3, a3, a4
   10c56: 94 62        	ld	a3, 0x0(a3)
   10c58: 9a 97        	add	a5, a5, t1
   10c5a: b0 61        	ld	a2, 0x40(a1)
   10c5c: b3 c7 77 00  	xor	a5, a5, t2
   10c60: be 96        	add	a3, a3, a5
   10c62: b3 f6 06 01  	and	a3, a3, a6
   10c66: 33 46 56 00  	xor	a2, a2, t0
   10c6a: b3 42 d6 00  	xor	t0, a2, a3
   10c6e: 13 d6 52 01  	srli	a2, t0, 0x15
   10c72: 61 9a        	andi	a2, a2, -0x8
   10c74: 3a 96        	add	a2, a2, a4
   10c76: 03 33 06 00  	ld	t1, 0x0(a2)
   10c7a: 93 97 82 02  	slli	a5, t0, 0x28
   10c7e: e1 93        	srli	a5, a5, 0x38
   10c80: 93 87 07 10  	addi	a5, a5, 0x100
   10c84: 8e 07        	slli	a5, a5, 0x3
   10c86: ba 97        	add	a5, a5, a4
   10c88: 9c 63        	ld	a5, 0x0(a5)
   10c8a: 93 96 02 03  	slli	a3, t0, 0x30
   10c8e: e1 92        	srli	a3, a3, 0x38
   10c90: 93 86 06 20  	addi	a3, a3, 0x200
   10c94: 8e 06        	slli	a3, a3, 0x3
   10c96: ba 96        	add	a3, a3, a4
   10c98: 83 b3 06 00  	ld	t2, 0x0(a3)
   10c9c: 13 f6 f2 0f  	andi	a2, t0, 0xff
   10ca0: 13 06 06 30  	addi	a2, a2, 0x300
   10ca4: 0e 06        	slli	a2, a2, 0x3
   10ca6: 3a 96        	add	a2, a2, a4
   10ca8: 10 62        	ld	a2, 0x0(a2)
   10caa: 9a 97        	add	a5, a5, t1
   10cac: 94 7d        	ld	a3, 0x38(a1)
   10cae: b3 c7 77 00  	xor	a5, a5, t2
   10cb2: 3e 96        	add	a2, a2, a5
   10cb4: 33 76 06 01  	and	a2, a2, a6
   10cb8: b3 c6 16 01  	xor	a3, a3, a7
   10cbc: b3 c8 c6 00  	xor	a7, a3, a2
   10cc0: 93 d6 58 01  	srli	a3, a7, 0x15
   10cc4: e1 9a        	andi	a3, a3, -0x8
   10cc6: ba 96        	add	a3, a3, a4
   10cc8: 03 b3 06 00  	ld	t1, 0x0(a3)
   10ccc: 93 97 88 02  	slli	a5, a7, 0x28
   10cd0: e1 93        	srli	a5, a5, 0x38
   10cd2: 93 87 07 10  	addi	a5, a5, 0x100
   10cd6: 8e 07        	slli	a5, a5, 0x3
   10cd8: ba 97        	add	a5, a5, a4
   10cda: 9c 63        	ld	a5, 0x0(a5)
   10cdc: 13 96 08 03  	slli	a2, a7, 0x30
   10ce0: 61 92        	srli	a2, a2, 0x38
   10ce2: 13 06 06 20  	addi	a2, a2, 0x200
   10ce6: 0e 06        	slli	a2, a2, 0x3
   10ce8: 3a 96        	add	a2, a2, a4
   10cea: 83 33 06 00  	ld	t2, 0x0(a2)
   10cee: 93 f6 f8 0f  	andi	a3, a7, 0xff
   10cf2: 93 86 06 30  	addi	a3, a3, 0x300
   10cf6: 8e 06        	slli	a3, a3, 0x3
   10cf8: ba 96        	add	a3, a3, a4
   10cfa: 94 62        	ld	a3, 0x0(a3)
   10cfc: 9a 97        	add	a5, a5, t1
   10cfe: 90 79        	ld	a2, 0x30(a1)
   10d00: b3 c7 77 00  	xor	a5, a5, t2
   10d04: be 96        	add	a3, a3, a5
   10d06: b3 f6 06 01  	and	a3, a3, a6
   10d0a: 33 46 56 00  	xor	a2, a2, t0
   10d0e: b3 42 d6 00  	xor	t0, a2, a3
   10d12: 13 d6 52 01  	srli	a2, t0, 0x15
   10d16: 61 9a        	andi	a2, a2, -0x8
   10d18: 3a 96        	add	a2, a2, a4
   10d1a: 03 33 06 00  	ld	t1, 0x0(a2)
   10d1e: 93 97 82 02  	slli	a5, t0, 0x28
   10d22: e1 93        	srli	a5, a5, 0x38
   10d24: 93 87 07 10  	addi	a5, a5, 0x100
   10d28: 8e 07        	slli	a5, a5, 0x3
   10d2a: ba 97        	add	a5, a5, a4
   10d2c: 9c 63        	ld	a5, 0x0(a5)
   10d2e: 93 96 02 03  	slli	a3, t0, 0x30
   10d32: e1 92        	srli	a3, a3, 0x38
   10d34: 93 86 06 20  	addi	a3, a3, 0x200
   10d38: 8e 06        	slli	a3, a3, 0x3
   10d3a: ba 96        	add	a3, a3, a4
   10d3c: 83 b3 06 00  	ld	t2, 0x0(a3)
   10d40: 13 f6 f2 0f  	andi	a2, t0, 0xff
   10d44: 13 06 06 30  	addi	a2, a2, 0x300
   10d48: 0e 06        	slli	a2, a2, 0x3
   10d4a: 3a 96        	add	a2, a2, a4
   10d4c: 10 62        	ld	a2, 0x0(a2)
   10d4e: 9a 97        	add	a5, a5, t1
   10d50: 94 75        	ld	a3, 0x28(a1)
   10d52: b3 c7 77 00  	xor	a5, a5, t2
   10d56: 3e 96        	add	a2, a2, a5
   10d58: 33 76 06 01  	and	a2, a2, a6
   10d5c: b3 c6 16 01  	xor	a3, a3, a7
   10d60: b3 c8 c6 00  	xor	a7, a3, a2
   10d64: 93 d6 58 01  	srli	a3, a7, 0x15
   10d68: e1 9a        	andi	a3, a3, -0x8
   10d6a: ba 96        	add	a3, a3, a4
   10d6c: 03 b3 06 00  	ld	t1, 0x0(a3)
   10d70: 93 97 88 02  	slli	a5, a7, 0x28
   10d74: e1 93        	srli	a5, a5, 0x38
   10d76: 93 87 07 10  	addi	a5, a5, 0x100
   10d7a: 8e 07        	slli	a5, a5, 0x3
   10d7c: ba 97        	add	a5, a5, a4
   10d7e: 9c 63        	ld	a5, 0x0(a5)
   10d80: 13 96 08 03  	slli	a2, a7, 0x30
   10d84: 61 92        	srli	a2, a2, 0x38
   10d86: 13 06 06 20  	addi	a2, a2, 0x200
   10d8a: 0e 06        	slli	a2, a2, 0x3
   10d8c: 3a 96        	add	a2, a2, a4
   10d8e: 83 33 06 00  	ld	t2, 0x0(a2)
   10d92: 93 f6 f8 0f  	andi	a3, a7, 0xff
   10d96: 93 86 06 30  	addi	a3, a3, 0x300
   10d9a: 8e 06        	slli	a3, a3, 0x3
   10d9c: ba 96        	add	a3, a3, a4
   10d9e: 94 62        	ld	a3, 0x0(a3)
   10da0: 9a 97        	add	a5, a5, t1
   10da2: 90 71        	ld	a2, 0x20(a1)
   10da4: b3 c7 77 00  	xor	a5, a5, t2
   10da8: be 96        	add	a3, a3, a5
   10daa: b3 f6 06 01  	and	a3, a3, a6
   10dae: 33 46 56 00  	xor	a2, a2, t0
   10db2: b3 42 d6 00  	xor	t0, a2, a3
   10db6: 13 d6 52 01  	srli	a2, t0, 0x15
   10dba: 61 9a        	andi	a2, a2, -0x8
   10dbc: 3a 96        	add	a2, a2, a4
   10dbe: 03 33 06 00  	ld	t1, 0x0(a2)
   10dc2: 93 97 82 02  	slli	a5, t0, 0x28
   10dc6: e1 93        	srli	a5, a5, 0x38
   10dc8: 93 87 07 10  	addi	a5, a5, 0x100
   10dcc: 8e 07        	slli	a5, a5, 0x3
   10dce: ba 97        	add	a5, a5, a4
   10dd0: 9c 63        	ld	a5, 0x0(a5)
   10dd2: 93 96 02 03  	slli	a3, t0, 0x30
   10dd6: e1 92        	srli	a3, a3, 0x38
   10dd8: 93 86 06 20  	addi	a3, a3, 0x200
   10ddc: 8e 06        	slli	a3, a3, 0x3
   10dde: ba 96        	add	a3, a3, a4
   10de0: 83 b3 06 00  	ld	t2, 0x0(a3)
   10de4: 13 f6 f2 0f  	andi	a2, t0, 0xff
   10de8: 13 06 06 30  	addi	a2, a2, 0x300
   10dec: 0e 06        	slli	a2, a2, 0x3
   10dee: 3a 96        	add	a2, a2, a4
   10df0: 10 62        	ld	a2, 0x0(a2)
   10df2: 9a 97        	add	a5, a5, t1
   10df4: 94 6d        	ld	a3, 0x18(a1)
   10df6: b3 c7 77 00  	xor	a5, a5, t2
   10dfa: 3e 96        	add	a2, a2, a5
   10dfc: 33 76 06 01  	and	a2, a2, a6
   10e00: b3 c7 16 01  	xor	a5, a3, a7
   10e04: b3 c8 c7 00  	xor	a7, a5, a2
   10e08: 13 d6 58 01  	srli	a2, a7, 0x15
   10e0c: 61 9a        	andi	a2, a2, -0x8
   10e0e: 3a 96        	add	a2, a2, a4
   10e10: 03 33 06 00  	ld	t1, 0x0(a2)
   10e14: 93 96 88 02  	slli	a3, a7, 0x28
   10e18: e1 92        	srli	a3, a3, 0x38
   10e1a: 93 86 06 10  	addi	a3, a3, 0x100
   10e1e: 8e 06        	slli	a3, a3, 0x3
   10e20: ba 96        	add	a3, a3, a4
   10e22: 94 62        	ld	a3, 0x0(a3)
   10e24: 93 97 08 03  	slli	a5, a7, 0x30
   10e28: e1 93        	srli	a5, a5, 0x38
   10e2a: 93 87 07 20  	addi	a5, a5, 0x200
   10e2e: 8e 07        	slli	a5, a5, 0x3
   10e30: ba 97        	add	a5, a5, a4
   10e32: 83 b3 07 00  	ld	t2, 0x0(a5)
   10e36: 13 f6 f8 0f  	andi	a2, a7, 0xff
   10e3a: 13 06 06 30  	addi	a2, a2, 0x300
   10e3e: 0e 06        	slli	a2, a2, 0x3
   10e40: 3a 96        	add	a2, a2, a4
   10e42: 10 62        	ld	a2, 0x0(a2)
   10e44: 9a 96        	add	a3, a3, t1
   10e46: 9c 69        	ld	a5, 0x10(a1)
   10e48: b3 c6 76 00  	xor	a3, a3, t2
   10e4c: 36 96        	add	a2, a2, a3
   10e4e: 33 76 06 01  	and	a2, a2, a6
   10e52: b3 c6 57 00  	xor	a3, a5, t0
   10e56: b3 c2 c6 00  	xor	t0, a3, a2
   10e5a: 13 d6 52 01  	srli	a2, t0, 0x15
   10e5e: 61 9a        	andi	a2, a2, -0x8
   10e60: 3a 96        	add	a2, a2, a4
   10e62: 03 33 06 00  	ld	t1, 0x0(a2)
   10e66: 93 96 82 02  	slli	a3, t0, 0x28
   10e6a: e1 92        	srli	a3, a3, 0x38
   10e6c: 93 86 06 10  	addi	a3, a3, 0x100
   10e70: 8e 06        	slli	a3, a3, 0x3
   10e72: ba 96        	add	a3, a3, a4
   10e74: 94 62        	ld	a3, 0x0(a3)
   10e76: 93 97 02 03  	slli	a5, t0, 0x30
   10e7a: e1 93        	srli	a5, a5, 0x38
   10e7c: 93 87 07 20  	addi	a5, a5, 0x200
   10e80: 8e 07        	slli	a5, a5, 0x3
   10e82: ba 97        	add	a5, a5, a4
   10e84: 13 f6 f2 0f  	andi	a2, t0, 0xff
   10e88: 13 06 06 30  	addi	a2, a2, 0x300
   10e8c: 0e 06        	slli	a2, a2, 0x3
   10e8e: 3a 96        	add	a2, a2, a4
   10e90: 98 63        	ld	a4, 0x0(a5)
   10e92: 10 62        	ld	a2, 0x0(a2)
   10e94: 9a 96        	add	a3, a3, t1
   10e96: 9c 65        	ld	a5, 0x8(a1)
   10e98: b9 8e        	xor	a3, a3, a4
   10e9a: 36 96        	add	a2, a2, a3
   10e9c: 33 76 06 01  	and	a2, a2, a6
   10ea0: b3 c6 17 01  	xor	a3, a5, a7
   10ea4: b1 8e        	xor	a3, a3, a2
   10ea6: 8c 61        	ld	a1, 0x0(a1)
   10ea8: b3 c5 55 00  	xor	a1, a1, t0
   10eac: 33 f6 06 01  	and	a2, a3, a6
   10eb0: 10 e5        	sd	a2, 0x8(a0)
   10eb2: b3 f5 05 01  	and	a1, a1, a6
   10eb6: 0c e1        	sd	a1, 0x0(a0)
   10eb8: 82 80        	ret

0000000000010eba <BF_cfb64_encrypt>:
   10eba: ef 22 70 71  	jal	t0, 0x13dd0 <__riscv_save_7>
   10ebe: 41 11        	addi	sp, sp, -0x10
   10ec0: 3e 89        	mv	s2, a5
   10ec2: 80 43        	lw	s0, 0x0(a5)
   10ec4: ba 84        	mv	s1, a4
   10ec6: b6 89        	mv	s3, a3
   10ec8: 2e 8a        	mv	s4, a1
   10eca: aa 8a        	mv	s5, a0
   10ecc: 63 02 08 0a  	beqz	a6, 0x10f70 <BF_cfb64_encrypt+0xb6>
   10ed0: 63 0e 06 12  	beqz	a2, 0x1100c <BF_cfb64_encrypt+0x152>
   10ed4: 33 0b ca 00  	add	s6, s4, a2
   10ed8: 35 e8        	bnez	s0, 0x10f4c <BF_cfb64_encrypt+0x92>
   10eda: 88 80        	lbu	a0, 0x0(s1)
   10edc: cc 80        	lbu	a1, 0x1(s1)
   10ede: 62 05        	slli	a0, a0, 0x18
   10ee0: b0 80        	lbu	a2, 0x2(s1)
   10ee2: f4 80        	lbu	a3, 0x3(s1)
   10ee4: c2 05        	slli	a1, a1, 0x10
   10ee6: 4d 8d        	or	a0, a0, a1
   10ee8: 22 06        	slli	a2, a2, 0x8
   10eea: 55 8e        	or	a2, a2, a3
   10eec: 83 c5 44 00  	lbu	a1, 0x4(s1)
   10ef0: 51 8d        	or	a0, a0, a2
   10ef2: 2a e0        	sd	a0, 0x0(sp)
   10ef4: 03 c5 54 00  	lbu	a0, 0x5(s1)
   10ef8: e2 05        	slli	a1, a1, 0x18
   10efa: 03 c6 64 00  	lbu	a2, 0x6(s1)
   10efe: 83 c6 74 00  	lbu	a3, 0x7(s1)
   10f02: 42 05        	slli	a0, a0, 0x10
   10f04: 4d 8d        	or	a0, a0, a1
   10f06: 22 06        	slli	a2, a2, 0x8
   10f08: 55 8e        	or	a2, a2, a3
   10f0a: 51 8d        	or	a0, a0, a2
   10f0c: 2a e4        	sd	a0, 0x8(sp)
   10f0e: 0a 85        	mv	a0, sp
   10f10: 05 46        	li	a2, 0x1
   10f12: ce 85        	mv	a1, s3
   10f14: ef f0 8f d3  	jal	0x1044c <BF_encrypt>
   10f18: 02 65        	ld	a0, 0x0(sp)
   10f1a: 93 55 85 01  	srli	a1, a0, 0x18
   10f1e: 8c 88        	sb	a1, 0x0(s1)
   10f20: 93 55 05 01  	srli	a1, a0, 0x10
   10f24: cc 88        	sb	a1, 0x1(s1)
   10f26: a2 65        	ld	a1, 0x8(sp)
   10f28: 13 56 85 00  	srli	a2, a0, 0x8
   10f2c: b0 88        	sb	a2, 0x2(s1)
   10f2e: e8 88        	sb	a0, 0x3(s1)
   10f30: 13 d5 85 01  	srli	a0, a1, 0x18
   10f34: 23 82 a4 00  	sb	a0, 0x4(s1)
   10f38: 13 d5 05 01  	srli	a0, a1, 0x10
   10f3c: a3 82 a4 00  	sb	a0, 0x5(s1)
   10f40: 13 d5 85 00  	srli	a0, a1, 0x8
   10f44: 23 83 a4 00  	sb	a0, 0x6(s1)
   10f48: a3 83 b4 00  	sb	a1, 0x7(s1)
   10f4c: 03 c5 0a 00  	lbu	a0, 0x0(s5)
   10f50: b3 85 84 00  	add	a1, s1, s0
   10f54: 90 81        	lbu	a2, 0x0(a1)
   10f56: 85 0a        	addi	s5, s5, 0x1
   10f58: 31 8d        	xor	a0, a0, a2
   10f5a: 13 06 1a 00  	addi	a2, s4, 0x1
   10f5e: 23 00 aa 00  	sb	a0, 0x0(s4)
   10f62: 88 89        	sb	a0, 0x0(a1)
   10f64: 05 04        	addi	s0, s0, 0x1
   10f66: 1d 88        	andi	s0, s0, 0x7
   10f68: 32 8a        	mv	s4, a2
   10f6a: e3 17 66 f7  	bne	a2, s6, 0x10ed8 <BF_cfb64_encrypt+0x1e>
   10f6e: 79 a8        	j	0x1100c <BF_cfb64_encrypt+0x152>
   10f70: 51 ce        	beqz	a2, 0x1100c <BF_cfb64_encrypt+0x152>
   10f72: 33 0b ca 00  	add	s6, s4, a2
   10f76: 35 e8        	bnez	s0, 0x10fea <BF_cfb64_encrypt+0x130>
   10f78: 88 80        	lbu	a0, 0x0(s1)
   10f7a: cc 80        	lbu	a1, 0x1(s1)
   10f7c: 62 05        	slli	a0, a0, 0x18
   10f7e: b0 80        	lbu	a2, 0x2(s1)
   10f80: f4 80        	lbu	a3, 0x3(s1)
   10f82: c2 05        	slli	a1, a1, 0x10
   10f84: 4d 8d        	or	a0, a0, a1
   10f86: 22 06        	slli	a2, a2, 0x8
   10f88: 55 8e        	or	a2, a2, a3
   10f8a: 83 c5 44 00  	lbu	a1, 0x4(s1)
   10f8e: 51 8d        	or	a0, a0, a2
   10f90: 2a e0        	sd	a0, 0x0(sp)
   10f92: 03 c5 54 00  	lbu	a0, 0x5(s1)
   10f96: e2 05        	slli	a1, a1, 0x18
   10f98: 03 c6 64 00  	lbu	a2, 0x6(s1)
   10f9c: 83 c6 74 00  	lbu	a3, 0x7(s1)
   10fa0: 42 05        	slli	a0, a0, 0x10
   10fa2: 4d 8d        	or	a0, a0, a1
   10fa4: 22 06        	slli	a2, a2, 0x8
   10fa6: 55 8e        	or	a2, a2, a3
   10fa8: 51 8d        	or	a0, a0, a2
   10faa: 2a e4        	sd	a0, 0x8(sp)
   10fac: 0a 85        	mv	a0, sp
   10fae: 05 46        	li	a2, 0x1
   10fb0: ce 85        	mv	a1, s3
   10fb2: ef f0 af c9  	jal	0x1044c <BF_encrypt>
   10fb6: 02 65        	ld	a0, 0x0(sp)
   10fb8: 93 55 85 01  	srli	a1, a0, 0x18
   10fbc: 8c 88        	sb	a1, 0x0(s1)
   10fbe: 93 55 05 01  	srli	a1, a0, 0x10
   10fc2: cc 88        	sb	a1, 0x1(s1)
   10fc4: a2 65        	ld	a1, 0x8(sp)
   10fc6: 13 56 85 00  	srli	a2, a0, 0x8
   10fca: b0 88        	sb	a2, 0x2(s1)
   10fcc: e8 88        	sb	a0, 0x3(s1)
   10fce: 13 d5 85 01  	srli	a0, a1, 0x18
   10fd2: 23 82 a4 00  	sb	a0, 0x4(s1)
   10fd6: 13 d5 05 01  	srli	a0, a1, 0x10
   10fda: a3 82 a4 00  	sb	a0, 0x5(s1)
   10fde: 13 d5 85 00  	srli	a0, a1, 0x8
   10fe2: 23 83 a4 00  	sb	a0, 0x6(s1)
   10fe6: a3 83 b4 00  	sb	a1, 0x7(s1)
   10fea: 03 c5 0a 00  	lbu	a0, 0x0(s5)
   10fee: b3 85 84 00  	add	a1, s1, s0
   10ff2: 90 81        	lbu	a2, 0x0(a1)
   10ff4: 85 0a        	addi	s5, s5, 0x1
   10ff6: 88 89        	sb	a0, 0x0(a1)
   10ff8: 31 8d        	xor	a0, a0, a2
   10ffa: 93 05 1a 00  	addi	a1, s4, 0x1
   10ffe: 23 00 aa 00  	sb	a0, 0x0(s4)
   11002: 05 04        	addi	s0, s0, 0x1
   11004: 1d 88        	andi	s0, s0, 0x7
   11006: 2e 8a        	mv	s4, a1
   11008: e3 97 65 f7  	bne	a1, s6, 0x10f76 <BF_cfb64_encrypt+0xbc>
   1100c: 23 20 89 00  	sw	s0, 0x0(s2)
   11010: 41 01        	addi	sp, sp, 0x10
   11012: 6f 20 d0 5f  	j	0x13e0e <__riscv_restore_7>

0000000000011016 <__fp_lock>:
   11016: 01 45        	li	a0, 0x0
   11018: 82 80        	ret

000000000001101a <stdio_exit_handler>:
   1101a: 5d 66        	lui	a2, 0x17
   1101c: cd 65        	lui	a1, 0x13
   1101e: 5d 65        	lui	a0, 0x17
   11020: 13 06 06 22  	addi	a2, a2, 0x220
   11024: 93 85 45 b5  	addi	a1, a1, -0x4ac
   11028: 13 05 85 23  	addi	a0, a0, 0x238
   1102c: 41 ae        	j	0x113bc <_fwalk_sglue>

000000000001102e <cleanup_stdio>:
   1102e: 0c 65        	ld	a1, 0x8(a0)
   11030: 41 11        	addi	sp, sp, -0x10
   11032: 22 e0        	sd	s0, 0x0(sp)
   11034: 06 e4        	sd	ra, 0x8(sp)
   11036: 93 87 01 21  	addi	a5, gp, 0x210
   1103a: 2a 84        	mv	s0, a0
   1103c: 63 84 f5 00  	beq	a1, a5, 0x11044 <cleanup_stdio+0x16>
   11040: ef 10 50 31  	jal	0x12b54 <_fclose_r>
   11044: 0c 68        	ld	a1, 0x10(s0)
   11046: 93 87 01 2c  	addi	a5, gp, 0x2c0
   1104a: 63 85 f5 00  	beq	a1, a5, 0x11054 <cleanup_stdio+0x26>
   1104e: 22 85        	mv	a0, s0
   11050: ef 10 50 30  	jal	0x12b54 <_fclose_r>
   11054: 0c 6c        	ld	a1, 0x18(s0)
   11056: 93 87 01 37  	addi	a5, gp, 0x370
   1105a: 63 88 f5 00  	beq	a1, a5, 0x1106a <cleanup_stdio+0x3c>
   1105e: 22 85        	mv	a0, s0
   11060: 02 64        	ld	s0, 0x0(sp)
   11062: a2 60        	ld	ra, 0x8(sp)
   11064: 41 01        	addi	sp, sp, 0x10
   11066: 6f 10 f0 2e  	j	0x12b54 <_fclose_r>
   1106a: a2 60        	ld	ra, 0x8(sp)
   1106c: 02 64        	ld	s0, 0x0(sp)
   1106e: 41 01        	addi	sp, sp, 0x10
   11070: 82 80        	ret

0000000000011072 <__fp_unlock>:
   11072: 01 45        	li	a0, 0x0
   11074: 82 80        	ret

0000000000011076 <global_stdio_init.part.0>:
   11076: 79 71        	addi	sp, sp, -0x30
   11078: c5 67        	lui	a5, 0x11
   1107a: 22 f0        	sd	s0, 0x20(sp)
   1107c: 93 87 a7 01  	addi	a5, a5, 0x1a
   11080: 13 84 01 21  	addi	s0, gp, 0x210
   11084: 06 f4        	sd	ra, 0x28(sp)
   11086: 26 ec        	sd	s1, 0x18(sp)
   11088: 4a e8        	sd	s2, 0x10(sp)
   1108a: 4e e4        	sd	s3, 0x8(sp)
   1108c: 52 e0        	sd	s4, 0x0(sp)
   1108e: 23 b0 f1 1a  	sd	a5, 0x1a0(gp)
   11092: 21 46        	li	a2, 0x8
   11094: 91 47        	li	a5, 0x4
   11096: 81 45        	li	a1, 0x0
   11098: 13 85 41 2b  	addi	a0, gp, 0x2b4
   1109c: 1c c8        	sw	a5, 0x10(s0)
   1109e: 23 30 04 00  	sd	zero, 0x0(s0)
   110a2: 23 34 04 00  	sd	zero, 0x8(s0)
   110a6: 23 26 04 0a  	sw	zero, 0xac(s0)
   110aa: 23 3c 04 00  	sd	zero, 0x18(s0)
   110ae: 23 20 04 02  	sw	zero, 0x20(s0)
   110b2: 23 24 04 02  	sw	zero, 0x28(s0)
   110b6: ef 00 70 61  	jal	0x11ecc <memset>
   110ba: c1 67        	lui	a5, 0x10
   110bc: 45 6a        	lui	s4, 0x11
   110be: c5 69        	lui	s3, 0x11
   110c0: 45 69        	lui	s2, 0x11
   110c2: c5 64        	lui	s1, 0x11
   110c4: 13 0a 4a 6a  	addi	s4, s4, 0x6a4
   110c8: 93 89 09 6e  	addi	s3, s3, 0x6e0
   110cc: 13 09 29 73  	addi	s2, s2, 0x732
   110d0: 93 84 44 78  	addi	s1, s1, 0x784
   110d4: a5 07        	addi	a5, a5, 0x9
   110d6: 21 46        	li	a2, 0x8
   110d8: 81 45        	li	a1, 0x0
   110da: 13 85 41 36  	addi	a0, gp, 0x364
   110de: 23 3c 44 03  	sd	s4, 0x38(s0)
   110e2: 23 30 34 05  	sd	s3, 0x40(s0)
   110e6: 23 34 24 05  	sd	s2, 0x48(s0)
   110ea: 24 e8        	sd	s1, 0x50(s0)
   110ec: 23 20 f4 0c  	sw	a5, 0xc0(s0)
   110f0: 00 f8        	sd	s0, 0x30(s0)
   110f2: 23 38 04 0a  	sd	zero, 0xb0(s0)
   110f6: 23 3c 04 0a  	sd	zero, 0xb8(s0)
   110fa: 23 2e 04 14  	sw	zero, 0x15c(s0)
   110fe: 23 34 04 0c  	sd	zero, 0xc8(s0)
   11102: 23 28 04 0c  	sw	zero, 0xd0(s0)
   11106: 23 2c 04 0c  	sw	zero, 0xd8(s0)
   1110a: ef 00 30 5c  	jal	0x11ecc <memset>
   1110e: b7 07 02 00  	lui	a5, 0x20
   11112: c9 07        	addi	a5, a5, 0x12
   11114: 13 87 01 2c  	addi	a4, gp, 0x2c0
   11118: 21 46        	li	a2, 0x8
   1111a: 81 45        	li	a1, 0x0
   1111c: 13 85 41 41  	addi	a0, gp, 0x414
   11120: 23 34 44 0f  	sd	s4, 0xe8(s0)
   11124: 23 38 34 0f  	sd	s3, 0xf0(s0)
   11128: 23 3c 24 0f  	sd	s2, 0xf8(s0)
   1112c: 23 30 94 10  	sd	s1, 0x100(s0)
   11130: 23 28 f4 16  	sw	a5, 0x170(s0)
   11134: 78 f0        	sd	a4, 0xe0(s0)
   11136: 23 30 04 16  	sd	zero, 0x160(s0)
   1113a: 23 34 04 16  	sd	zero, 0x168(s0)
   1113e: 23 26 04 20  	sw	zero, 0x20c(s0)
   11142: 23 3c 04 16  	sd	zero, 0x178(s0)
   11146: 23 20 04 18  	sw	zero, 0x180(s0)
   1114a: 23 24 04 18  	sw	zero, 0x188(s0)
   1114e: ef 00 f0 57  	jal	0x11ecc <memset>
   11152: 93 87 01 37  	addi	a5, gp, 0x370
   11156: 23 3c 44 19  	sd	s4, 0x198(s0)
   1115a: 23 30 34 1b  	sd	s3, 0x1a0(s0)
   1115e: 23 34 24 1b  	sd	s2, 0x1a8(s0)
   11162: 23 38 94 1a  	sd	s1, 0x1b0(s0)
   11166: a2 70        	ld	ra, 0x28(sp)
   11168: 23 38 f4 18  	sd	a5, 0x190(s0)
   1116c: 02 74        	ld	s0, 0x20(sp)
   1116e: e2 64        	ld	s1, 0x18(sp)
   11170: 42 69        	ld	s2, 0x10(sp)
   11172: a2 69        	ld	s3, 0x8(sp)
   11174: 02 6a        	ld	s4, 0x0(sp)
   11176: 45 61        	addi	sp, sp, 0x30
   11178: 82 80        	ret

000000000001117a <__sfp>:
   1117a: 83 b7 01 1a  	ld	a5, 0x1a0(gp)
   1117e: 79 71        	addi	sp, sp, -0x30
   11180: 4a e8        	sd	s2, 0x10(sp)
   11182: 06 f4        	sd	ra, 0x28(sp)
   11184: 22 f0        	sd	s0, 0x20(sp)
   11186: 26 ec        	sd	s1, 0x18(sp)
   11188: 4e e4        	sd	s3, 0x8(sp)
   1118a: 2a 89        	mv	s2, a0
   1118c: cd c7        	beqz	a5, 0x11236 <__sfp+0xbc>
   1118e: dd 64        	lui	s1, 0x17
   11190: 93 84 04 22  	addi	s1, s1, 0x220
   11194: 93 09 00 0b  	li	s3, 0xb0
   11198: 98 44        	lw	a4, 0x8(s1)
   1119a: 80 68        	ld	s0, 0x10(s1)
   1119c: 63 54 e0 06  	blez	a4, 0x11204 <__sfp+0x8a>
   111a0: 02 17        	slli	a4, a4, 0x20
   111a2: 01 93        	srli	a4, a4, 0x20
   111a4: 33 07 37 03  	mul	a4, a4, s3
   111a8: 22 97        	add	a4, a4, s0
   111aa: 29 a0        	j	0x111b4 <__sfp+0x3a>
   111ac: 13 04 04 0b  	addi	s0, s0, 0xb0
   111b0: 63 0a 87 04  	beq	a4, s0, 0x11204 <__sfp+0x8a>
   111b4: 83 17 04 01  	lh	a5, 0x10(s0)
   111b8: f5 fb        	bnez	a5, 0x111ac <__sfp+0x32>
   111ba: c1 77        	lui	a5, 0xffff0
   111bc: 85 07        	addi	a5, a5, 0x1
   111be: 1c c8        	sw	a5, 0x10(s0)
   111c0: 23 26 04 0a  	sw	zero, 0xac(s0)
   111c4: 23 30 04 00  	sd	zero, 0x0(s0)
   111c8: 23 34 04 00  	sd	zero, 0x8(s0)
   111cc: 23 3c 04 00  	sd	zero, 0x18(s0)
   111d0: 23 20 04 02  	sw	zero, 0x20(s0)
   111d4: 23 24 04 02  	sw	zero, 0x28(s0)
   111d8: 21 46        	li	a2, 0x8
   111da: 81 45        	li	a1, 0x0
   111dc: 13 05 44 0a  	addi	a0, s0, 0xa4
   111e0: ef 00 d0 4e  	jal	0x11ecc <memset>
   111e4: 23 3c 04 04  	sd	zero, 0x58(s0)
   111e8: 23 20 04 06  	sw	zero, 0x60(s0)
   111ec: 23 3c 04 06  	sd	zero, 0x78(s0)
   111f0: 23 20 04 08  	sw	zero, 0x80(s0)
   111f4: a2 70        	ld	ra, 0x28(sp)
   111f6: 22 85        	mv	a0, s0
   111f8: 02 74        	ld	s0, 0x20(sp)
   111fa: e2 64        	ld	s1, 0x18(sp)
   111fc: 42 69        	ld	s2, 0x10(sp)
   111fe: a2 69        	ld	s3, 0x8(sp)
   11200: 45 61        	addi	sp, sp, 0x30
   11202: 82 80        	ret
   11204: 80 60        	ld	s0, 0x0(s1)
   11206: 19 c0        	beqz	s0, 0x1120c <__sfp+0x92>
   11208: a2 84        	mv	s1, s0
   1120a: 79 b7        	j	0x11198 <__sfp+0x1e>
   1120c: 93 05 80 2d  	li	a1, 0x2d8
   11210: 4a 85        	mv	a0, s2
   11212: ef 10 c0 33  	jal	0x1254e <_malloc_r>
   11216: 2a 84        	mv	s0, a0
   11218: 15 c1        	beqz	a0, 0x1123c <__sfp+0xc2>
   1121a: 61 05        	addi	a0, a0, 0x18
   1121c: 91 47        	li	a5, 0x4
   1121e: 23 30 04 00  	sd	zero, 0x0(s0)
   11222: 1c c4        	sw	a5, 0x8(s0)
   11224: 08 e8        	sd	a0, 0x10(s0)
   11226: 13 06 00 2c  	li	a2, 0x2c0
   1122a: 81 45        	li	a1, 0x0
   1122c: ef 00 10 4a  	jal	0x11ecc <memset>
   11230: 80 e0        	sd	s0, 0x0(s1)
   11232: a2 84        	mv	s1, s0
   11234: 95 b7        	j	0x11198 <__sfp+0x1e>
   11236: ef f0 1f e4  	jal	0x11076 <global_stdio_init.part.0>
   1123a: 91 bf        	j	0x1118e <__sfp+0x14>
   1123c: 23 b0 04 00  	sd	zero, 0x0(s1)
   11240: b1 47        	li	a5, 0xc
   11242: 23 20 f9 00  	sw	a5, 0x0(s2)
   11246: 7d b7        	j	0x111f4 <__sfp+0x7a>

0000000000011248 <__sinit>:
   11248: 3c 65        	ld	a5, 0x48(a0)
   1124a: 91 c3        	beqz	a5, 0x1124e <__sinit+0x6>
   1124c: 82 80        	ret
   1124e: 03 b7 01 1a  	ld	a4, 0x1a0(gp)
   11252: c5 67        	lui	a5, 0x11
   11254: 93 87 e7 02  	addi	a5, a5, 0x2e
   11258: 3c e5        	sd	a5, 0x48(a0)
   1125a: 6d fb        	bnez	a4, 0x1124c <__sinit+0x4>
   1125c: 29 bd        	j	0x11076 <global_stdio_init.part.0>

000000000001125e <__sfp_lock_acquire>:
   1125e: 82 80        	ret

0000000000011260 <__sfp_lock_release>:
   11260: 82 80        	ret

0000000000011262 <__fp_lock_all>:
   11262: 5d 66        	lui	a2, 0x17
   11264: c5 65        	lui	a1, 0x11
   11266: 13 06 06 22  	addi	a2, a2, 0x220
   1126a: 93 85 65 01  	addi	a1, a1, 0x16
   1126e: 01 45        	li	a0, 0x0
   11270: b1 a2        	j	0x113bc <_fwalk_sglue>

0000000000011272 <__fp_unlock_all>:
   11272: 5d 66        	lui	a2, 0x17
   11274: c5 65        	lui	a1, 0x11
   11276: 13 06 06 22  	addi	a2, a2, 0x220
   1127a: 93 85 25 07  	addi	a1, a1, 0x72
   1127e: 01 45        	li	a0, 0x0
   11280: 35 aa        	j	0x113bc <_fwalk_sglue>

0000000000011282 <_fopen_r>:
   11282: 39 71        	addi	sp, sp, -0x40
   11284: 32 87        	mv	a4, a2
   11286: 4e ec        	sd	s3, 0x18(sp)
   11288: 70 00        	addi	a2, sp, 0xc
   1128a: ae 89        	mv	s3, a1
   1128c: ba 85        	mv	a1, a4
   1128e: 4a f0        	sd	s2, 0x20(sp)
   11290: 06 fc        	sd	ra, 0x38(sp)
   11292: 22 f8        	sd	s0, 0x30(sp)
   11294: 2a 89        	mv	s2, a0
   11296: ef 10 d0 38  	jal	0x12e22 <__sflags>
   1129a: 59 c1        	beqz	a0, 0x11320 <_fopen_r+0x9e>
   1129c: 26 f4        	sd	s1, 0x28(sp)
   1129e: aa 84        	mv	s1, a0
   112a0: 4a 85        	mv	a0, s2
   112a2: ef f0 9f ed  	jal	0x1117a <__sfp>
   112a6: 2a 84        	mv	s0, a0
   112a8: 3d c9        	beqz	a0, 0x1131e <_fopen_r+0x9c>
   112aa: 32 46        	lw	a2, 0xc(sp)
   112ac: 93 06 60 1b  	li	a3, 0x1b6
   112b0: ce 85        	mv	a1, s3
   112b2: 4a 85        	mv	a0, s2
   112b4: ef 00 30 2f  	jal	0x11da6 <_open_r>
   112b8: 63 46 05 06  	bltz	a0, 0x11324 <_fopen_r+0xa2>
   112bc: 93 97 04 03  	slli	a5, s1, 0x30
   112c0: 1b 15 05 01  	slliw	a0, a0, 0x10
   112c4: c1 93        	srli	a5, a5, 0x30
   112c6: c9 8f        	or	a5, a5, a0
   112c8: 1c c8        	sw	a5, 0x10(s0)
   112ca: c5 67        	lui	a5, 0x11
   112cc: 93 87 47 6a  	addi	a5, a5, 0x6a4
   112d0: 1c fc        	sd	a5, 0x38(s0)
   112d2: c5 67        	lui	a5, 0x11
   112d4: 93 87 07 6e  	addi	a5, a5, 0x6e0
   112d8: 3c e0        	sd	a5, 0x40(s0)
   112da: c5 67        	lui	a5, 0x11
   112dc: 93 87 27 73  	addi	a5, a5, 0x732
   112e0: 3c e4        	sd	a5, 0x48(s0)
   112e2: c5 67        	lui	a5, 0x11
   112e4: 93 87 47 78  	addi	a5, a5, 0x784
   112e8: 00 f8        	sd	s0, 0x30(s0)
   112ea: 3c e8        	sd	a5, 0x50(s0)
   112ec: 93 f4 04 10  	andi	s1, s1, 0x100
   112f0: 89 e8        	bnez	s1, 0x11302 <_fopen_r+0x80>
   112f2: a2 74        	ld	s1, 0x28(sp)
   112f4: e2 70        	ld	ra, 0x38(sp)
   112f6: 22 85        	mv	a0, s0
   112f8: 42 74        	ld	s0, 0x30(sp)
   112fa: 02 79        	ld	s2, 0x20(sp)
   112fc: e2 69        	ld	s3, 0x18(sp)
   112fe: 21 61        	addi	sp, sp, 0x40
   11300: 82 80        	ret
   11302: a2 85        	mv	a1, s0
   11304: 4a 85        	mv	a0, s2
   11306: 89 46        	li	a3, 0x2
   11308: 01 46        	li	a2, 0x0
   1130a: ef 00 20 0a  	jal	0x113ac <_fseek_r>
   1130e: e2 70        	ld	ra, 0x38(sp)
   11310: 22 85        	mv	a0, s0
   11312: 42 74        	ld	s0, 0x30(sp)
   11314: a2 74        	ld	s1, 0x28(sp)
   11316: 02 79        	ld	s2, 0x20(sp)
   11318: e2 69        	ld	s3, 0x18(sp)
   1131a: 21 61        	addi	sp, sp, 0x40
   1131c: 82 80        	ret
   1131e: a2 74        	ld	s1, 0x28(sp)
   11320: 01 44        	li	s0, 0x0
   11322: c9 bf        	j	0x112f4 <_fopen_r+0x72>
   11324: ef f0 bf f3  	jal	0x1125e <__sfp_lock_acquire>
   11328: 23 18 04 00  	sh	zero, 0x10(s0)
   1132c: ef f0 5f f3  	jal	0x11260 <__sfp_lock_release>
   11330: 01 44        	li	s0, 0x0
   11332: a2 74        	ld	s1, 0x28(sp)
   11334: c1 b7        	j	0x112f4 <_fopen_r+0x72>

0000000000011336 <fopen>:
   11336: aa 87        	mv	a5, a0
   11338: 03 b5 81 18  	ld	a0, 0x188(gp)
   1133c: 2e 86        	mv	a2, a1
   1133e: be 85        	mv	a1, a5
   11340: 89 b7        	j	0x11282 <_fopen_r>

0000000000011342 <_fputc_r>:
   11342: 01 11        	addi	sp, sp, -0x20
   11344: 22 e8        	sd	s0, 0x10(sp)
   11346: 06 ec        	sd	ra, 0x18(sp)
   11348: 2a 84        	mv	s0, a0
   1134a: 19 c1        	beqz	a0, 0x11350 <_fputc_r+0xe>
   1134c: 3c 65        	ld	a5, 0x48(a0)
   1134e: 91 c7        	beqz	a5, 0x1135a <_fputc_r+0x18>
   11350: 22 85        	mv	a0, s0
   11352: 42 64        	ld	s0, 0x10(sp)
   11354: e2 60        	ld	ra, 0x18(sp)
   11356: 05 61        	addi	sp, sp, 0x20
   11358: a5 aa        	j	0x114d0 <_putc_r>
   1135a: 32 e4        	sd	a2, 0x8(sp)
   1135c: 2e e0        	sd	a1, 0x0(sp)
   1135e: ef f0 bf ee  	jal	0x11248 <__sinit>
   11362: 22 85        	mv	a0, s0
   11364: 42 64        	ld	s0, 0x10(sp)
   11366: 22 66        	ld	a2, 0x8(sp)
   11368: 82 65        	ld	a1, 0x0(sp)
   1136a: e2 60        	ld	ra, 0x18(sp)
   1136c: 05 61        	addi	sp, sp, 0x20
   1136e: 8d a2        	j	0x114d0 <_putc_r>

0000000000011370 <fputc>:
   11370: 79 71        	addi	sp, sp, -0x30
   11372: 26 ec        	sd	s1, 0x18(sp)
   11374: 83 b4 81 18  	ld	s1, 0x188(gp)
   11378: 22 f0        	sd	s0, 0x20(sp)
   1137a: 06 f4        	sd	ra, 0x28(sp)
   1137c: 2a 84        	mv	s0, a0
   1137e: 2e 86        	mv	a2, a1
   11380: 99 c0        	beqz	s1, 0x11386 <fputc+0x16>
   11382: bc 64        	ld	a5, 0x48(s1)
   11384: 81 cb        	beqz	a5, 0x11394 <fputc+0x24>
   11386: a2 85        	mv	a1, s0
   11388: 02 74        	ld	s0, 0x20(sp)
   1138a: a2 70        	ld	ra, 0x28(sp)
   1138c: 26 85        	mv	a0, s1
   1138e: e2 64        	ld	s1, 0x18(sp)
   11390: 45 61        	addi	sp, sp, 0x30
   11392: 3d aa        	j	0x114d0 <_putc_r>
   11394: 26 85        	mv	a0, s1
   11396: 2e e4        	sd	a1, 0x8(sp)
   11398: ef f0 1f eb  	jal	0x11248 <__sinit>
   1139c: a2 85        	mv	a1, s0
   1139e: 02 74        	ld	s0, 0x20(sp)
   113a0: 22 66        	ld	a2, 0x8(sp)
   113a2: a2 70        	ld	ra, 0x28(sp)
   113a4: 26 85        	mv	a0, s1
   113a6: e2 64        	ld	s1, 0x18(sp)
   113a8: 45 61        	addi	sp, sp, 0x30
   113aa: 1d a2        	j	0x114d0 <_putc_r>

00000000000113ac <_fseek_r>:
   113ac: d9 a3        	j	0x11972 <_fseeko_r>

00000000000113ae <fseek>:
   113ae: aa 87        	mv	a5, a0
   113b0: 03 b5 81 18  	ld	a0, 0x188(gp)
   113b4: b2 86        	mv	a3, a2
   113b6: 2e 86        	mv	a2, a1
   113b8: be 85        	mv	a1, a5
   113ba: 65 ab        	j	0x11972 <_fseeko_r>

00000000000113bc <_fwalk_sglue>:
   113bc: 5d 71        	addi	sp, sp, -0x50
   113be: 4a f8        	sd	s2, 0x30(sp)
   113c0: 4e f4        	sd	s3, 0x28(sp)
   113c2: 52 f0        	sd	s4, 0x20(sp)
   113c4: 56 ec        	sd	s5, 0x18(sp)
   113c6: 5a e8        	sd	s6, 0x10(sp)
   113c8: 5e e4        	sd	s7, 0x8(sp)
   113ca: 62 e0        	sd	s8, 0x0(sp)
   113cc: 86 e4        	sd	ra, 0x48(sp)
   113ce: a2 e0        	sd	s0, 0x40(sp)
   113d0: 26 fc        	sd	s1, 0x38(sp)
   113d2: 2a 8a        	mv	s4, a0
   113d4: 2e 8b        	mv	s6, a1
   113d6: b2 89        	mv	s3, a2
   113d8: 01 49        	li	s2, 0x0
   113da: 93 0b 00 0b  	li	s7, 0xb0
   113de: 05 4c        	li	s8, 0x1
   113e0: fd 5a        	li	s5, -0x1
   113e2: 83 a4 89 00  	lw	s1, 0x8(s3)
   113e6: 03 b4 09 01  	ld	s0, 0x10(s3)
   113ea: 63 59 90 02  	blez	s1, 0x1141c <_fwalk_sglue+0x60>
   113ee: 82 14        	slli	s1, s1, 0x20
   113f0: 81 90        	srli	s1, s1, 0x20
   113f2: b3 84 74 03  	mul	s1, s1, s7
   113f6: a2 94        	add	s1, s1, s0
   113f8: 83 57 04 01  	lhu	a5, 0x10(s0)
   113fc: 63 7c fc 00  	bgeu	s8, a5, 0x11414 <_fwalk_sglue+0x58>
   11400: 83 17 24 01  	lh	a5, 0x12(s0)
   11404: a2 85        	mv	a1, s0
   11406: 52 85        	mv	a0, s4
   11408: 63 86 57 01  	beq	a5, s5, 0x11414 <_fwalk_sglue+0x58>
   1140c: 02 9b        	jalr	s6
   1140e: 33 69 25 01  	or	s2, a0, s2
   11412: 01 29        	sext.w	s2, s2
   11414: 13 04 04 0b  	addi	s0, s0, 0xb0
   11418: e3 10 94 fe  	bne	s0, s1, 0x113f8 <_fwalk_sglue+0x3c>
   1141c: 83 b9 09 00  	ld	s3, 0x0(s3)
   11420: e3 91 09 fc  	bnez	s3, 0x113e2 <_fwalk_sglue+0x26>
   11424: a6 60        	ld	ra, 0x48(sp)
   11426: 06 64        	ld	s0, 0x40(sp)
   11428: e2 74        	ld	s1, 0x38(sp)
   1142a: a2 79        	ld	s3, 0x28(sp)
   1142c: 02 7a        	ld	s4, 0x20(sp)
   1142e: e2 6a        	ld	s5, 0x18(sp)
   11430: 42 6b        	ld	s6, 0x10(sp)
   11432: a2 6b        	ld	s7, 0x8(sp)
   11434: 02 6c        	ld	s8, 0x0(sp)
   11436: 4a 85        	mv	a0, s2
   11438: 42 79        	ld	s2, 0x30(sp)
   1143a: 61 61        	addi	sp, sp, 0x50
   1143c: 82 80        	ret

000000000001143e <_getc_r>:
   1143e: 01 11        	addi	sp, sp, -0x20
   11440: 22 e8        	sd	s0, 0x10(sp)
   11442: 06 ec        	sd	ra, 0x18(sp)
   11444: 2a 84        	mv	s0, a0
   11446: 19 c1        	beqz	a0, 0x1144c <_getc_r+0xe>
   11448: 3c 65        	ld	a5, 0x48(a0)
   1144a: 9d c7        	beqz	a5, 0x11478 <_getc_r+0x3a>
   1144c: 9c 45        	lw	a5, 0x8(a1)
   1144e: fd 37        	addiw	a5, a5, -0x1
   11450: 9c c5        	sw	a5, 0x8(a1)
   11452: 13 97 07 02  	slli	a4, a5, 0x20
   11456: 63 4c 07 00  	bltz	a4, 0x1146e <_getc_r+0x30>
   1145a: 9c 61        	ld	a5, 0x0(a1)
   1145c: e2 60        	ld	ra, 0x18(sp)
   1145e: 42 64        	ld	s0, 0x10(sp)
   11460: 13 87 17 00  	addi	a4, a5, 0x1
   11464: 98 e1        	sd	a4, 0x0(a1)
   11466: 03 c5 07 00  	lbu	a0, 0x0(a5)
   1146a: 05 61        	addi	sp, sp, 0x20
   1146c: 82 80        	ret
   1146e: 22 85        	mv	a0, s0
   11470: 42 64        	ld	s0, 0x10(sp)
   11472: e2 60        	ld	ra, 0x18(sp)
   11474: 05 61        	addi	sp, sp, 0x20
   11476: 5d a2        	j	0x1161c <__srget_r>
   11478: 2e e4        	sd	a1, 0x8(sp)
   1147a: ef f0 ff dc  	jal	0x11248 <__sinit>
   1147e: a2 65        	ld	a1, 0x8(sp)
   11480: f1 b7        	j	0x1144c <_getc_r+0xe>

0000000000011482 <getc>:
   11482: 01 11        	addi	sp, sp, -0x20
   11484: 26 e4        	sd	s1, 0x8(sp)
   11486: 83 b4 81 18  	ld	s1, 0x188(gp)
   1148a: 22 e8        	sd	s0, 0x10(sp)
   1148c: 06 ec        	sd	ra, 0x18(sp)
   1148e: 2a 84        	mv	s0, a0
   11490: 99 c0        	beqz	s1, 0x11496 <getc+0x14>
   11492: bc 64        	ld	a5, 0x48(s1)
   11494: 95 cb        	beqz	a5, 0x114c8 <getc+0x46>
   11496: 1c 44        	lw	a5, 0x8(s0)
   11498: fd 37        	addiw	a5, a5, -0x1
   1149a: 1c c4        	sw	a5, 0x8(s0)
   1149c: 13 97 07 02  	slli	a4, a5, 0x20
   114a0: 63 4d 07 00  	bltz	a4, 0x114ba <getc+0x38>
   114a4: 1c 60        	ld	a5, 0x0(s0)
   114a6: e2 60        	ld	ra, 0x18(sp)
   114a8: a2 64        	ld	s1, 0x8(sp)
   114aa: 13 87 17 00  	addi	a4, a5, 0x1
   114ae: 18 e0        	sd	a4, 0x0(s0)
   114b0: 42 64        	ld	s0, 0x10(sp)
   114b2: 03 c5 07 00  	lbu	a0, 0x0(a5)
   114b6: 05 61        	addi	sp, sp, 0x20
   114b8: 82 80        	ret
   114ba: a2 85        	mv	a1, s0
   114bc: 42 64        	ld	s0, 0x10(sp)
   114be: e2 60        	ld	ra, 0x18(sp)
   114c0: 26 85        	mv	a0, s1
   114c2: a2 64        	ld	s1, 0x8(sp)
   114c4: 05 61        	addi	sp, sp, 0x20
   114c6: 99 aa        	j	0x1161c <__srget_r>
   114c8: 26 85        	mv	a0, s1
   114ca: ef f0 ff d7  	jal	0x11248 <__sinit>
   114ce: e1 b7        	j	0x11496 <getc+0x14>

00000000000114d0 <_putc_r>:
   114d0: 01 11        	addi	sp, sp, -0x20
   114d2: 22 e8        	sd	s0, 0x10(sp)
   114d4: 06 ec        	sd	ra, 0x18(sp)
   114d6: 2a 84        	mv	s0, a0
   114d8: 19 c1        	beqz	a0, 0x114de <_putc_r+0xe>
   114da: 3c 65        	ld	a5, 0x48(a0)
   114dc: a1 c3        	beqz	a5, 0x1151c <_putc_r+0x4c>
   114de: 5c 46        	lw	a5, 0xc(a2)
   114e0: 1b 87 f7 ff  	addiw	a4, a5, -0x1
   114e4: 58 c6        	sw	a4, 0xc(a2)
   114e6: 63 5a 07 00  	bgez	a4, 0x114fa <_putc_r+0x2a>
   114ea: 1c 56        	lw	a5, 0x28(a2)
   114ec: 63 43 f7 02  	blt	a4, a5, 0x11512 <_putc_r+0x42>
   114f0: 93 f7 f5 0f  	andi	a5, a1, 0xff
   114f4: 29 47        	li	a4, 0xa
   114f6: 63 8e e7 00  	beq	a5, a4, 0x11512 <_putc_r+0x42>
   114fa: 1c 62        	ld	a5, 0x0(a2)
   114fc: 13 f5 f5 0f  	andi	a0, a1, 0xff
   11500: 13 87 17 00  	addi	a4, a5, 0x1
   11504: 18 e2        	sd	a4, 0x0(a2)
   11506: 23 80 b7 00  	sb	a1, 0x0(a5)
   1150a: e2 60        	ld	ra, 0x18(sp)
   1150c: 42 64        	ld	s0, 0x10(sp)
   1150e: 05 61        	addi	sp, sp, 0x20
   11510: 82 80        	ret
   11512: 22 85        	mv	a0, s0
   11514: 42 64        	ld	s0, 0x10(sp)
   11516: e2 60        	ld	ra, 0x18(sp)
   11518: 05 61        	addi	sp, sp, 0x20
   1151a: 85 ac        	j	0x1178a <__swbuf_r>
   1151c: 32 e4        	sd	a2, 0x8(sp)
   1151e: 2e e0        	sd	a1, 0x0(sp)
   11520: ef f0 9f d2  	jal	0x11248 <__sinit>
   11524: 22 66        	ld	a2, 0x8(sp)
   11526: 82 65        	ld	a1, 0x0(sp)
   11528: 5d bf        	j	0x114de <_putc_r+0xe>

000000000001152a <putc>:
   1152a: 79 71        	addi	sp, sp, -0x30
   1152c: 4a ec        	sd	s2, 0x18(sp)
   1152e: 03 b9 81 18  	ld	s2, 0x188(gp)
   11532: 26 f0        	sd	s1, 0x20(sp)
   11534: 06 f4        	sd	ra, 0x28(sp)
   11536: aa 84        	mv	s1, a0
   11538: 63 05 09 00  	beqz	s2, 0x11542 <putc+0x18>
   1153c: 83 37 89 04  	ld	a5, 0x48(s2)
   11540: a1 c7        	beqz	a5, 0x11588 <putc+0x5e>
   11542: dc 45        	lw	a5, 0xc(a1)
   11544: 1b 87 f7 ff  	addiw	a4, a5, -0x1
   11548: d8 c5        	sw	a4, 0xc(a1)
   1154a: 63 5a 07 00  	bgez	a4, 0x1155e <putc+0x34>
   1154e: 9c 55        	lw	a5, 0x28(a1)
   11550: 63 44 f7 02  	blt	a4, a5, 0x11578 <putc+0x4e>
   11554: 93 f7 f4 0f  	andi	a5, s1, 0xff
   11558: 29 47        	li	a4, 0xa
   1155a: 63 8f e7 00  	beq	a5, a4, 0x11578 <putc+0x4e>
   1155e: 9c 61        	ld	a5, 0x0(a1)
   11560: 13 f5 f4 0f  	andi	a0, s1, 0xff
   11564: 13 87 17 00  	addi	a4, a5, 0x1
   11568: 98 e1        	sd	a4, 0x0(a1)
   1156a: 23 80 97 00  	sb	s1, 0x0(a5)
   1156e: a2 70        	ld	ra, 0x28(sp)
   11570: 82 74        	ld	s1, 0x20(sp)
   11572: 62 69        	ld	s2, 0x18(sp)
   11574: 45 61        	addi	sp, sp, 0x30
   11576: 82 80        	ret
   11578: a2 70        	ld	ra, 0x28(sp)
   1157a: 2e 86        	mv	a2, a1
   1157c: 4a 85        	mv	a0, s2
   1157e: a6 85        	mv	a1, s1
   11580: 62 69        	ld	s2, 0x18(sp)
   11582: 82 74        	ld	s1, 0x20(sp)
   11584: 45 61        	addi	sp, sp, 0x30
   11586: 11 a4        	j	0x1178a <__swbuf_r>
   11588: 4a 85        	mv	a0, s2
   1158a: 2e e4        	sd	a1, 0x8(sp)
   1158c: ef f0 df cb  	jal	0x11248 <__sinit>
   11590: a2 65        	ld	a1, 0x8(sp)
   11592: 45 bf        	j	0x11542 <putc+0x18>

0000000000011594 <_puts_r>:
   11594: 59 71        	addi	sp, sp, -0x70
   11596: a2 f0        	sd	s0, 0x60(sp)
   11598: 2a 84        	mv	s0, a0
   1159a: 2e 85        	mv	a0, a1
   1159c: a6 ec        	sd	s1, 0x58(sp)
   1159e: 86 f4        	sd	ra, 0x68(sp)
   115a0: ae 84        	mv	s1, a1
   115a2: ef 00 b0 31  	jal	0x120bc <strlen>
   115a6: d9 67        	lui	a5, 0x16
   115a8: 93 87 87 02  	addi	a5, a5, 0x28
   115ac: be e0        	sd	a5, 0x40(sp)
   115ae: 85 47        	li	a5, 0x1
   115b0: be e4        	sd	a5, 0x48(sp)
   115b2: 38 64        	ld	a4, 0x48(s0)
   115b4: 1c 18        	addi	a5, sp, 0x30
   115b6: 93 06 15 00  	addi	a3, a0, 0x1
   115ba: 3e ec        	sd	a5, 0x18(sp)
   115bc: 89 47        	li	a5, 0x2
   115be: 26 f8        	sd	s1, 0x30(sp)
   115c0: 2a fc        	sd	a0, 0x38(sp)
   115c2: 36 f4        	sd	a3, 0x28(sp)
   115c4: 3e d0        	sw	a5, 0x20(sp)
   115c6: 0c 68        	ld	a1, 0x10(s0)
   115c8: 15 cf        	beqz	a4, 0x11604 <_puts_r+0x70>
   115ca: 83 97 05 01  	lh	a5, 0x10(a1)
   115ce: 13 97 27 03  	slli	a4, a5, 0x32
   115d2: 63 4d 07 00  	bltz	a4, 0x115ec <_puts_r+0x58>
   115d6: 03 a7 c5 0a  	lw	a4, 0xac(a1)
   115da: f9 76        	lui	a3, 0xffffe
   115dc: fd 16        	addi	a3, a3, -0x1
   115de: 09 66        	lui	a2, 0x2
   115e0: d1 8f        	or	a5, a5, a2
   115e2: 75 8f        	and	a4, a4, a3
   115e4: 23 98 f5 00  	sh	a5, 0x10(a1)
   115e8: 23 a6 e5 0a  	sw	a4, 0xac(a1)
   115ec: 30 08        	addi	a2, sp, 0x18
   115ee: 22 85        	mv	a0, s0
   115f0: ef 10 30 0b  	jal	0x12ea2 <__sfvwrite_r>
   115f4: a9 47        	li	a5, 0xa
   115f6: 09 ed        	bnez	a0, 0x11610 <_puts_r+0x7c>
   115f8: a6 70        	ld	ra, 0x68(sp)
   115fa: 06 74        	ld	s0, 0x60(sp)
   115fc: e6 64        	ld	s1, 0x58(sp)
   115fe: 3e 85        	mv	a0, a5
   11600: 65 61        	addi	sp, sp, 0x70
   11602: 82 80        	ret
   11604: 22 85        	mv	a0, s0
   11606: 2e e4        	sd	a1, 0x8(sp)
   11608: ef f0 1f c4  	jal	0x11248 <__sinit>
   1160c: a2 65        	ld	a1, 0x8(sp)
   1160e: 75 bf        	j	0x115ca <_puts_r+0x36>
   11610: fd 57        	li	a5, -0x1
   11612: dd b7        	j	0x115f8 <_puts_r+0x64>

0000000000011614 <puts>:
   11614: aa 85        	mv	a1, a0
   11616: 03 b5 81 18  	ld	a0, 0x188(gp)
   1161a: ad bf        	j	0x11594 <_puts_r>

000000000001161c <__srget_r>:
   1161c: 01 11        	addi	sp, sp, -0x20
   1161e: 22 e8        	sd	s0, 0x10(sp)
   11620: 26 e4        	sd	s1, 0x8(sp)
   11622: 06 ec        	sd	ra, 0x18(sp)
   11624: aa 84        	mv	s1, a0
   11626: 2e 84        	mv	s0, a1
   11628: 19 c1        	beqz	a0, 0x1162e <__srget_r+0x12>
   1162a: 3c 65        	ld	a5, 0x48(a0)
   1162c: 85 c7        	beqz	a5, 0x11654 <__srget_r+0x38>
   1162e: a2 85        	mv	a1, s0
   11630: 26 85        	mv	a0, s1
   11632: ef 10 90 58  	jal	0x133ba <__srefill_r>
   11636: 15 e1        	bnez	a0, 0x1165a <__srget_r+0x3e>
   11638: 18 60        	ld	a4, 0x0(s0)
   1163a: 1c 44        	lw	a5, 0x8(s0)
   1163c: 93 06 17 00  	addi	a3, a4, 0x1
   11640: fd 37        	addiw	a5, a5, -0x1
   11642: 1c c4        	sw	a5, 0x8(s0)
   11644: 14 e0        	sd	a3, 0x0(s0)
   11646: 03 45 07 00  	lbu	a0, 0x0(a4)
   1164a: e2 60        	ld	ra, 0x18(sp)
   1164c: 42 64        	ld	s0, 0x10(sp)
   1164e: a2 64        	ld	s1, 0x8(sp)
   11650: 05 61        	addi	sp, sp, 0x20
   11652: 82 80        	ret
   11654: ef f0 5f bf  	jal	0x11248 <__sinit>
   11658: d9 bf        	j	0x1162e <__srget_r+0x12>
   1165a: 7d 55        	li	a0, -0x1
   1165c: fd b7        	j	0x1164a <__srget_r+0x2e>

000000000001165e <__srget>:
   1165e: 01 11        	addi	sp, sp, -0x20
   11660: 26 e4        	sd	s1, 0x8(sp)
   11662: 83 b4 81 18  	ld	s1, 0x188(gp)
   11666: 22 e8        	sd	s0, 0x10(sp)
   11668: 06 ec        	sd	ra, 0x18(sp)
   1166a: 2a 84        	mv	s0, a0
   1166c: 99 c0        	beqz	s1, 0x11672 <__srget+0x14>
   1166e: bc 64        	ld	a5, 0x48(s1)
   11670: 85 c7        	beqz	a5, 0x11698 <__srget+0x3a>
   11672: a2 85        	mv	a1, s0
   11674: 26 85        	mv	a0, s1
   11676: ef 10 50 54  	jal	0x133ba <__srefill_r>
   1167a: 1d e1        	bnez	a0, 0x116a0 <__srget+0x42>
   1167c: 18 60        	ld	a4, 0x0(s0)
   1167e: 1c 44        	lw	a5, 0x8(s0)
   11680: 93 06 17 00  	addi	a3, a4, 0x1
   11684: fd 37        	addiw	a5, a5, -0x1
   11686: 1c c4        	sw	a5, 0x8(s0)
   11688: 14 e0        	sd	a3, 0x0(s0)
   1168a: 03 45 07 00  	lbu	a0, 0x0(a4)
   1168e: e2 60        	ld	ra, 0x18(sp)
   11690: 42 64        	ld	s0, 0x10(sp)
   11692: a2 64        	ld	s1, 0x8(sp)
   11694: 05 61        	addi	sp, sp, 0x20
   11696: 82 80        	ret
   11698: 26 85        	mv	a0, s1
   1169a: ef f0 ff ba  	jal	0x11248 <__sinit>
   1169e: d1 bf        	j	0x11672 <__srget+0x14>
   116a0: 7d 55        	li	a0, -0x1
   116a2: f5 b7        	j	0x1168e <__srget+0x30>

00000000000116a4 <__sread>:
   116a4: 41 11        	addi	sp, sp, -0x10
   116a6: 22 e0        	sd	s0, 0x0(sp)
   116a8: 2e 84        	mv	s0, a1
   116aa: 83 95 25 01  	lh	a1, 0x12(a1)
   116ae: 06 e4        	sd	ra, 0x8(sp)
   116b0: ef 00 20 73  	jal	0x11de2 <_read_r>
   116b4: 63 49 05 00  	bltz	a0, 0x116c6 <__sread+0x22>
   116b8: 5c 68        	ld	a5, 0x90(s0)
   116ba: a2 60        	ld	ra, 0x8(sp)
   116bc: aa 97        	add	a5, a5, a0
   116be: 5c e8        	sd	a5, 0x90(s0)
   116c0: 02 64        	ld	s0, 0x0(sp)
   116c2: 41 01        	addi	sp, sp, 0x10
   116c4: 82 80        	ret
   116c6: 83 57 04 01  	lhu	a5, 0x10(s0)
   116ca: 7d 77        	lui	a4, 0xfffff
   116cc: 7d 17        	addi	a4, a4, -0x1
   116ce: f9 8f        	and	a5, a5, a4
   116d0: a2 60        	ld	ra, 0x8(sp)
   116d2: 23 18 f4 00  	sh	a5, 0x10(s0)
   116d6: 02 64        	ld	s0, 0x0(sp)
   116d8: 41 01        	addi	sp, sp, 0x10
   116da: 82 80        	ret

00000000000116dc <__seofread>:
   116dc: 01 45        	li	a0, 0x0
   116de: 82 80        	ret

00000000000116e0 <__swrite>:
   116e0: 83 97 05 01  	lh	a5, 0x10(a1)
   116e4: 79 71        	addi	sp, sp, -0x30
   116e6: 22 f0        	sd	s0, 0x20(sp)
   116e8: 26 ec        	sd	s1, 0x18(sp)
   116ea: 4a e8        	sd	s2, 0x10(sp)
   116ec: 4e e4        	sd	s3, 0x8(sp)
   116ee: 06 f4        	sd	ra, 0x28(sp)
   116f0: 13 f7 07 10  	andi	a4, a5, 0x100
   116f4: 2e 84        	mv	s0, a1
   116f6: aa 84        	mv	s1, a0
   116f8: 32 89        	mv	s2, a2
   116fa: b6 89        	mv	s3, a3
   116fc: 15 e3        	bnez	a4, 0x11720 <__swrite+0x40>
   116fe: 7d 77        	lui	a4, 0xfffff
   11700: 7d 17        	addi	a4, a4, -0x1
   11702: f9 8f        	and	a5, a5, a4
   11704: 83 15 24 01  	lh	a1, 0x12(s0)
   11708: 23 18 f4 00  	sh	a5, 0x10(s0)
   1170c: 02 74        	ld	s0, 0x20(sp)
   1170e: a2 70        	ld	ra, 0x28(sp)
   11710: ce 86        	mv	a3, s3
   11712: 4a 86        	mv	a2, s2
   11714: a2 69        	ld	s3, 0x8(sp)
   11716: 42 69        	ld	s2, 0x10(sp)
   11718: 26 85        	mv	a0, s1
   1171a: e2 64        	ld	s1, 0x18(sp)
   1171c: 45 61        	addi	sp, sp, 0x30
   1171e: 01 a7        	j	0x11e1e <_write_r>
   11720: 83 95 25 01  	lh	a1, 0x12(a1)
   11724: 89 46        	li	a3, 0x2
   11726: 01 46        	li	a2, 0x0
   11728: ef 00 20 64  	jal	0x11d6a <_lseek_r>
   1172c: 83 17 04 01  	lh	a5, 0x10(s0)
   11730: f9 b7        	j	0x116fe <__swrite+0x1e>

0000000000011732 <__sseek>:
   11732: 41 11        	addi	sp, sp, -0x10
   11734: 22 e0        	sd	s0, 0x0(sp)
   11736: 2e 84        	mv	s0, a1
   11738: 83 95 25 01  	lh	a1, 0x12(a1)
   1173c: 06 e4        	sd	ra, 0x8(sp)
   1173e: ef 00 c0 62  	jal	0x11d6a <_lseek_r>
   11742: fd 57        	li	a5, -0x1
   11744: 63 01 f5 02  	beq	a0, a5, 0x11766 <__sseek+0x34>
   11748: 83 57 04 01  	lhu	a5, 0x10(s0)
   1174c: 05 67        	lui	a4, 0x1
   1174e: a2 60        	ld	ra, 0x8(sp)
   11750: d9 8f        	or	a5, a5, a4
   11752: 9b 97 07 01  	slliw	a5, a5, 0x10
   11756: 9b d7 07 41  	sraiw	a5, a5, 0x10
   1175a: 48 e8        	sd	a0, 0x90(s0)
   1175c: 23 18 f4 00  	sh	a5, 0x10(s0)
   11760: 02 64        	ld	s0, 0x0(sp)
   11762: 41 01        	addi	sp, sp, 0x10
   11764: 82 80        	ret
   11766: 83 57 04 01  	lhu	a5, 0x10(s0)
   1176a: 7d 77        	lui	a4, 0xfffff
   1176c: 7d 17        	addi	a4, a4, -0x1
   1176e: f9 8f        	and	a5, a5, a4
   11770: 9b 97 07 01  	slliw	a5, a5, 0x10
   11774: 9b d7 07 41  	sraiw	a5, a5, 0x10
   11778: a2 60        	ld	ra, 0x8(sp)
   1177a: 23 18 f4 00  	sh	a5, 0x10(s0)
   1177e: 02 64        	ld	s0, 0x0(sp)
   11780: 41 01        	addi	sp, sp, 0x10
   11782: 82 80        	ret

0000000000011784 <__sclose>:
   11784: 83 95 25 01  	lh	a1, 0x12(a1)
   11788: fd a9        	j	0x11c86 <_close_r>

000000000001178a <__swbuf_r>:
   1178a: 79 71        	addi	sp, sp, -0x30
   1178c: 22 f0        	sd	s0, 0x20(sp)
   1178e: 26 ec        	sd	s1, 0x18(sp)
   11790: 4a e8        	sd	s2, 0x10(sp)
   11792: 06 f4        	sd	ra, 0x28(sp)
   11794: 2a 89        	mv	s2, a0
   11796: ae 84        	mv	s1, a1
   11798: 32 84        	mv	s0, a2
   1179a: 19 c1        	beqz	a0, 0x117a0 <__swbuf_r+0x16>
   1179c: 3c 65        	ld	a5, 0x48(a0)
   1179e: e5 c7        	beqz	a5, 0x11886 <__swbuf_r+0xfc>
   117a0: 1c 54        	lw	a5, 0x28(s0)
   117a2: 03 17 04 01  	lh	a4, 0x10(s0)
   117a6: 5c c4        	sw	a5, 0xc(s0)
   117a8: 93 77 87 00  	andi	a5, a4, 0x8
   117ac: a9 cb        	beqz	a5, 0x117fe <__swbuf_r+0x74>
   117ae: 1c 6c        	ld	a5, 0x18(s0)
   117b0: b9 c7        	beqz	a5, 0x117fe <__swbuf_r+0x74>
   117b2: 4e e4        	sd	s3, 0x8(sp)
   117b4: 93 16 27 03  	slli	a3, a4, 0x32
   117b8: 93 f9 f4 0f  	andi	s3, s1, 0xff
   117bc: ce 84        	mv	s1, s3
   117be: 63 d0 06 06  	bgez	a3, 0x1181e <__swbuf_r+0x94>
   117c2: 18 60        	ld	a4, 0x0(s0)
   117c4: 14 50        	lw	a3, 0x20(s0)
   117c6: bb 07 f7 40  	subw	a5, a4, a5
   117ca: 63 db d7 06  	bge	a5, a3, 0x11840 <__swbuf_r+0xb6>
   117ce: 54 44        	lw	a3, 0xc(s0)
   117d0: 13 06 17 00  	addi	a2, a4, 0x1
   117d4: 10 e0        	sd	a2, 0x0(s0)
   117d6: fd 36        	addiw	a3, a3, -0x1
   117d8: 54 c4        	sw	a3, 0xc(s0)
   117da: 23 00 37 01  	sb	s3, 0x0(a4)
   117de: 18 50        	lw	a4, 0x20(s0)
   117e0: 85 27        	addiw	a5, a5, 0x1
   117e2: 63 01 f7 08  	beq	a4, a5, 0x11864 <__swbuf_r+0xda>
   117e6: 83 57 04 01  	lhu	a5, 0x10(s0)
   117ea: 85 8b        	andi	a5, a5, 0x1
   117ec: c1 e7        	bnez	a5, 0x11874 <__swbuf_r+0xea>
   117ee: a2 69        	ld	s3, 0x8(sp)
   117f0: a2 70        	ld	ra, 0x28(sp)
   117f2: 02 74        	ld	s0, 0x20(sp)
   117f4: 42 69        	ld	s2, 0x10(sp)
   117f6: 26 85        	mv	a0, s1
   117f8: e2 64        	ld	s1, 0x18(sp)
   117fa: 45 61        	addi	sp, sp, 0x30
   117fc: 82 80        	ret
   117fe: a2 85        	mv	a1, s0
   11800: 4a 85        	mv	a0, s2
   11802: ef 00 60 09  	jal	0x11898 <__swsetup_r>
   11806: 2d e5        	bnez	a0, 0x11870 <__swbuf_r+0xe6>
   11808: 03 17 04 01  	lh	a4, 0x10(s0)
   1180c: 4e e4        	sd	s3, 0x8(sp)
   1180e: 93 f9 f4 0f  	andi	s3, s1, 0xff
   11812: 93 16 27 03  	slli	a3, a4, 0x32
   11816: 1c 6c        	ld	a5, 0x18(s0)
   11818: ce 84        	mv	s1, s3
   1181a: e3 c4 06 fa  	bltz	a3, 0x117c2 <__swbuf_r+0x38>
   1181e: 83 26 c4 0a  	lw	a3, 0xac(s0)
   11822: 79 76        	lui	a2, 0xffffe
   11824: 89 65        	lui	a1, 0x2
   11826: 4d 8f        	or	a4, a4, a1
   11828: 7d 16        	addi	a2, a2, -0x1
   1182a: f1 8e        	and	a3, a3, a2
   1182c: 23 18 e4 00  	sh	a4, 0x10(s0)
   11830: 18 60        	ld	a4, 0x0(s0)
   11832: 23 26 d4 0a  	sw	a3, 0xac(s0)
   11836: 14 50        	lw	a3, 0x20(s0)
   11838: bb 07 f7 40  	subw	a5, a4, a5
   1183c: e3 c9 d7 f8  	blt	a5, a3, 0x117ce <__swbuf_r+0x44>
   11840: a2 85        	mv	a1, s0
   11842: 4a 85        	mv	a0, s2
   11844: ef 10 80 55  	jal	0x12d9c <_fflush_r>
   11848: 1d e1        	bnez	a0, 0x1186e <__swbuf_r+0xe4>
   1184a: 18 60        	ld	a4, 0x0(s0)
   1184c: 54 44        	lw	a3, 0xc(s0)
   1184e: 85 47        	li	a5, 0x1
   11850: 13 06 17 00  	addi	a2, a4, 0x1
   11854: fd 36        	addiw	a3, a3, -0x1
   11856: 10 e0        	sd	a2, 0x0(s0)
   11858: 54 c4        	sw	a3, 0xc(s0)
   1185a: 23 00 37 01  	sb	s3, 0x0(a4)
   1185e: 18 50        	lw	a4, 0x20(s0)
   11860: e3 13 f7 f8  	bne	a4, a5, 0x117e6 <__swbuf_r+0x5c>
   11864: a2 85        	mv	a1, s0
   11866: 4a 85        	mv	a0, s2
   11868: ef 10 40 53  	jal	0x12d9c <_fflush_r>
   1186c: 49 d1        	beqz	a0, 0x117ee <__swbuf_r+0x64>
   1186e: a2 69        	ld	s3, 0x8(sp)
   11870: fd 54        	li	s1, -0x1
   11872: bd bf        	j	0x117f0 <__swbuf_r+0x66>
   11874: a9 47        	li	a5, 0xa
   11876: e3 9c f4 f6  	bne	s1, a5, 0x117ee <__swbuf_r+0x64>
   1187a: a2 85        	mv	a1, s0
   1187c: 4a 85        	mv	a0, s2
   1187e: ef 10 e0 51  	jal	0x12d9c <_fflush_r>
   11882: 35 d5        	beqz	a0, 0x117ee <__swbuf_r+0x64>
   11884: ed b7        	j	0x1186e <__swbuf_r+0xe4>
   11886: ef f0 3f 9c  	jal	0x11248 <__sinit>
   1188a: 19 bf        	j	0x117a0 <__swbuf_r+0x16>

000000000001188c <__swbuf>:
   1188c: aa 87        	mv	a5, a0
   1188e: 03 b5 81 18  	ld	a0, 0x188(gp)
   11892: 2e 86        	mv	a2, a1
   11894: be 85        	mv	a1, a5
   11896: d5 bd        	j	0x1178a <__swbuf_r>

0000000000011898 <__swsetup_r>:
   11898: 83 b7 81 18  	ld	a5, 0x188(gp)
   1189c: 01 11        	addi	sp, sp, -0x20
   1189e: 22 e8        	sd	s0, 0x10(sp)
   118a0: 26 e4        	sd	s1, 0x8(sp)
   118a2: 06 ec        	sd	ra, 0x18(sp)
   118a4: aa 84        	mv	s1, a0
   118a6: 2e 84        	mv	s0, a1
   118a8: 99 c3        	beqz	a5, 0x118ae <__swsetup_r+0x16>
   118aa: b8 67        	ld	a4, 0x48(a5)
   118ac: 5d c7        	beqz	a4, 0x1195a <__swsetup_r+0xc2>
   118ae: 83 17 04 01  	lh	a5, 0x10(s0)
   118b2: 13 f7 87 00  	andi	a4, a5, 0x8
   118b6: 21 c7        	beqz	a4, 0x118fe <__swsetup_r+0x66>
   118b8: 18 6c        	ld	a4, 0x18(s0)
   118ba: 31 cf        	beqz	a4, 0x11916 <__swsetup_r+0x7e>
   118bc: 93 f6 17 00  	andi	a3, a5, 0x1
   118c0: 91 ce        	beqz	a3, 0x118dc <__swsetup_r+0x44>
   118c2: 14 50        	lw	a3, 0x20(s0)
   118c4: 23 26 04 00  	sw	zero, 0xc(s0)
   118c8: 01 45        	li	a0, 0x0
   118ca: bb 06 d0 40  	negw	a3, a3
   118ce: 14 d4        	sw	a3, 0x28(s0)
   118d0: 11 cf        	beqz	a4, 0x118ec <__swsetup_r+0x54>
   118d2: e2 60        	ld	ra, 0x18(sp)
   118d4: 42 64        	ld	s0, 0x10(sp)
   118d6: a2 64        	ld	s1, 0x8(sp)
   118d8: 05 61        	addi	sp, sp, 0x20
   118da: 82 80        	ret
   118dc: 93 f6 27 00  	andi	a3, a5, 0x2
   118e0: 01 46        	li	a2, 0x0
   118e2: 91 e2        	bnez	a3, 0x118e6 <__swsetup_r+0x4e>
   118e4: 10 50        	lw	a2, 0x20(s0)
   118e6: 50 c4        	sw	a2, 0xc(s0)
   118e8: 01 45        	li	a0, 0x0
   118ea: 65 f7        	bnez	a4, 0x118d2 <__swsetup_r+0x3a>
   118ec: 13 f7 07 08  	andi	a4, a5, 0x80
   118f0: 6d d3        	beqz	a4, 0x118d2 <__swsetup_r+0x3a>
   118f2: 93 e7 07 04  	ori	a5, a5, 0x40
   118f6: 23 18 f4 00  	sh	a5, 0x10(s0)
   118fa: 7d 55        	li	a0, -0x1
   118fc: d9 bf        	j	0x118d2 <__swsetup_r+0x3a>
   118fe: 13 f7 07 01  	andi	a4, a5, 0x10
   11902: 25 c3        	beqz	a4, 0x11962 <__swsetup_r+0xca>
   11904: 13 f7 47 00  	andi	a4, a5, 0x4
   11908: 0d e7        	bnez	a4, 0x11932 <__swsetup_r+0x9a>
   1190a: 18 6c        	ld	a4, 0x18(s0)
   1190c: 93 e7 87 00  	ori	a5, a5, 0x8
   11910: 23 18 f4 00  	sh	a5, 0x10(s0)
   11914: 45 f7        	bnez	a4, 0x118bc <__swsetup_r+0x24>
   11916: 93 f6 07 28  	andi	a3, a5, 0x280
   1191a: 13 06 00 20  	li	a2, 0x200
   1191e: e3 8f c6 f8  	beq	a3, a2, 0x118bc <__swsetup_r+0x24>
   11922: a2 85        	mv	a1, s0
   11924: 26 85        	mv	a0, s1
   11926: ef 10 f0 0d  	jal	0x13204 <__smakebuf_r>
   1192a: 83 17 04 01  	lh	a5, 0x10(s0)
   1192e: 18 6c        	ld	a4, 0x18(s0)
   11930: 71 b7        	j	0x118bc <__swsetup_r+0x24>
   11932: 2c 6c        	ld	a1, 0x58(s0)
   11934: 81 cd        	beqz	a1, 0x1194c <__swsetup_r+0xb4>
   11936: 13 07 44 07  	addi	a4, s0, 0x74
   1193a: 63 87 e5 00  	beq	a1, a4, 0x11948 <__swsetup_r+0xb0>
   1193e: 26 85        	mv	a0, s1
   11940: ef 00 b0 1c  	jal	0x1230a <_free_r>
   11944: 83 17 04 01  	lh	a5, 0x10(s0)
   11948: 23 3c 04 04  	sd	zero, 0x58(s0)
   1194c: 18 6c        	ld	a4, 0x18(s0)
   1194e: 93 f7 b7 fd  	andi	a5, a5, -0x25
   11952: 23 24 04 00  	sw	zero, 0x8(s0)
   11956: 18 e0        	sd	a4, 0x0(s0)
   11958: 55 bf        	j	0x1190c <__swsetup_r+0x74>
   1195a: 3e 85        	mv	a0, a5
   1195c: ef f0 df 8e  	jal	0x11248 <__sinit>
   11960: b9 b7        	j	0x118ae <__swsetup_r+0x16>
   11962: 25 47        	li	a4, 0x9
   11964: 98 c0        	sw	a4, 0x0(s1)
   11966: 93 e7 07 04  	ori	a5, a5, 0x40
   1196a: 23 18 f4 00  	sh	a5, 0x10(s0)
   1196e: 7d 55        	li	a0, -0x1
   11970: 8d b7        	j	0x118d2 <__swsetup_r+0x3a>

0000000000011972 <_fseeko_r>:
   11972: 31 71        	addi	sp, sp, -0xc0
   11974: 22 f9        	sd	s0, 0xb0(sp)
   11976: 26 f5        	sd	s1, 0xa8(sp)
   11978: 4a f1        	sd	s2, 0xa0(sp)
   1197a: 52 e9        	sd	s4, 0x90(sp)
   1197c: 06 fd        	sd	ra, 0xb8(sp)
   1197e: 56 e5        	sd	s5, 0x88(sp)
   11980: aa 84        	mv	s1, a0
   11982: 2e 84        	mv	s0, a1
   11984: 32 8a        	mv	s4, a2
   11986: 36 89        	mv	s2, a3
   11988: 01 c5        	beqz	a0, 0x11990 <_fseeko_r+0x1e>
   1198a: 3c 65        	ld	a5, 0x48(a0)
   1198c: 63 80 07 28  	beqz	a5, 0x11c0c <_fseeko_r+0x29a>
   11990: 83 57 04 01  	lhu	a5, 0x10(s0)
   11994: 13 07 80 10  	li	a4, 0x108
   11998: 93 f7 87 10  	andi	a5, a5, 0x108
   1199c: 63 8c e7 12  	beq	a5, a4, 0x11ad4 <_fseeko_r+0x162>
   119a0: 83 3a 84 04  	ld	s5, 0x48(s0)
   119a4: 63 86 0a 2c  	beqz	s5, 0x11c70 <_fseeko_r+0x2fe>
   119a8: 4e ed        	sd	s3, 0x98(sp)
   119aa: 5a e1        	sd	s6, 0x80(sp)
   119ac: 85 47        	li	a5, 0x1
   119ae: 63 0a f9 0a  	beq	s2, a5, 0x11a62 <_fseeko_r+0xf0>
   119b2: 13 7b d9 ff  	andi	s6, s2, -0x3
   119b6: 63 0f 0b 00  	beqz	s6, 0x119d4 <_fseeko_r+0x62>
   119ba: ea 69        	ld	s3, 0x98(sp)
   119bc: 0a 6b        	ld	s6, 0x80(sp)
   119be: d9 47        	li	a5, 0x16
   119c0: 9c c0        	sw	a5, 0x0(s1)
   119c2: 7d 55        	li	a0, -0x1
   119c4: ea 70        	ld	ra, 0xb8(sp)
   119c6: 4a 74        	ld	s0, 0xb0(sp)
   119c8: aa 74        	ld	s1, 0xa8(sp)
   119ca: 0a 79        	ld	s2, 0xa0(sp)
   119cc: 4a 6a        	ld	s4, 0x90(sp)
   119ce: aa 6a        	ld	s5, 0x88(sp)
   119d0: 29 61        	addi	sp, sp, 0xc0
   119d2: 82 80        	ret
   119d4: 18 6c        	ld	a4, 0x18(s0)
   119d6: 81 49        	li	s3, 0x0
   119d8: 69 c3        	beqz	a4, 0x11a9a <_fseeko_r+0x128>
   119da: 83 17 04 01  	lh	a5, 0x10(s0)
   119de: 13 d7 17 00  	srli	a4, a5, 0x1
   119e2: 13 77 d7 40  	andi	a4, a4, 0x40d
   119e6: 19 ef        	bnez	a4, 0x11a04 <_fseeko_r+0x92>
   119e8: 13 f7 07 40  	andi	a4, a5, 0x400
   119ec: 45 ef        	bnez	a4, 0x11aa4 <_fseeko_r+0x132>
   119ee: 45 67        	lui	a4, 0x11
   119f0: 13 07 27 73  	addi	a4, a4, 0x732
   119f4: 63 8b ea 1a  	beq	s5, a4, 0x11baa <_fseeko_r+0x238>
   119f8: 05 67        	lui	a4, 0x1
   119fa: 13 07 07 80  	addi	a4, a4, -0x800
   119fe: d9 8f        	or	a5, a5, a4
   11a00: 23 18 f4 00  	sh	a5, 0x10(s0)
   11a04: a2 85        	mv	a1, s0
   11a06: 26 85        	mv	a0, s1
   11a08: ef 10 40 39  	jal	0x12d9c <_fflush_r>
   11a0c: 63 1e 05 24  	bnez	a0, 0x11c68 <_fseeko_r+0x2f6>
   11a10: 0c 78        	ld	a1, 0x30(s0)
   11a12: ca 86        	mv	a3, s2
   11a14: 52 86        	mv	a2, s4
   11a16: 26 85        	mv	a0, s1
   11a18: 82 9a        	jalr	s5
   11a1a: fd 57        	li	a5, -0x1
   11a1c: 63 06 f5 24  	beq	a0, a5, 0x11c68 <_fseeko_r+0x2f6>
   11a20: 2c 6c        	ld	a1, 0x58(s0)
   11a22: 91 c9        	beqz	a1, 0x11a36 <_fseeko_r+0xc4>
   11a24: 93 07 44 07  	addi	a5, s0, 0x74
   11a28: 63 85 f5 00  	beq	a1, a5, 0x11a32 <_fseeko_r+0xc0>
   11a2c: 26 85        	mv	a0, s1
   11a2e: ef 00 d0 0d  	jal	0x1230a <_free_r>
   11a32: 23 3c 04 04  	sd	zero, 0x58(s0)
   11a36: 83 57 04 01  	lhu	a5, 0x10(s0)
   11a3a: 14 6c        	ld	a3, 0x18(s0)
   11a3c: 7d 77        	lui	a4, 0xfffff
   11a3e: 13 07 f7 7d  	addi	a4, a4, 0x7df
   11a42: f9 8f        	and	a5, a5, a4
   11a44: 14 e0        	sd	a3, 0x0(s0)
   11a46: 23 24 04 00  	sw	zero, 0x8(s0)
   11a4a: 23 18 f4 00  	sh	a5, 0x10(s0)
   11a4e: 21 46        	li	a2, 0x8
   11a50: 81 45        	li	a1, 0x0
   11a52: 13 05 44 0a  	addi	a0, s0, 0xa4
   11a56: ef 00 60 47  	jal	0x11ecc <memset>
   11a5a: ea 69        	ld	s3, 0x98(sp)
   11a5c: 0a 6b        	ld	s6, 0x80(sp)
   11a5e: 01 45        	li	a0, 0x0
   11a60: 95 b7        	j	0x119c4 <_fseeko_r+0x52>
   11a62: a2 85        	mv	a1, s0
   11a64: 26 85        	mv	a0, s1
   11a66: ef 10 60 33  	jal	0x12d9c <_fflush_r>
   11a6a: 83 17 04 01  	lh	a5, 0x10(s0)
   11a6e: 13 97 37 03  	slli	a4, a5, 0x33
   11a72: 63 56 07 06  	bgez	a4, 0x11ade <_fseeko_r+0x16c>
   11a76: 93 f6 47 00  	andi	a3, a5, 0x4
   11a7a: 83 39 04 09  	ld	s3, 0x90(s0)
   11a7e: 18 6c        	ld	a4, 0x18(s0)
   11a80: b5 ce        	beqz	a3, 0x11afc <_fseeko_r+0x18a>
   11a82: 14 44        	lw	a3, 0x8(s0)
   11a84: 3c 6c        	ld	a5, 0x58(s0)
   11a86: b3 89 d9 40  	sub	s3, s3, a3
   11a8a: 81 c7        	beqz	a5, 0x11a92 <_fseeko_r+0x120>
   11a8c: 3c 58        	lw	a5, 0x70(s0)
   11a8e: b3 89 f9 40  	sub	s3, s3, a5
   11a92: 4a 8b        	mv	s6, s2
   11a94: 4e 9a        	add	s4, s4, s3
   11a96: 01 49        	li	s2, 0x0
   11a98: 29 f3        	bnez	a4, 0x119da <_fseeko_r+0x68>
   11a9a: a2 85        	mv	a1, s0
   11a9c: 26 85        	mv	a0, s1
   11a9e: ef 10 60 76  	jal	0x13204 <__smakebuf_r>
   11aa2: 25 bf        	j	0x119da <_fseeko_r+0x68>
   11aa4: de fc        	sd	s7, 0x78(sp)
   11aa6: d2 8b        	mv	s7, s4
   11aa8: 63 1c 09 12  	bnez	s2, 0x11be0 <_fseeko_r+0x26e>
   11aac: 63 1f 0b 04  	bnez	s6, 0x11b0a <_fseeko_r+0x198>
   11ab0: 83 57 04 01  	lhu	a5, 0x10(s0)
   11ab4: 13 97 37 03  	slli	a4, a5, 0x33
   11ab8: 63 50 07 14  	bgez	a4, 0x11bf8 <_fseeko_r+0x286>
   11abc: 48 68        	ld	a0, 0x90(s0)
   11abe: 1c 44        	lw	a5, 0x8(s0)
   11ac0: 2c 6c        	ld	a1, 0x58(s0)
   11ac2: be 86        	mv	a3, a5
   11ac4: b3 09 f5 40  	sub	s3, a0, a5
   11ac8: 63 85 05 14  	beqz	a1, 0x11c12 <_fseeko_r+0x2a0>
   11acc: 38 58        	lw	a4, 0x70(s0)
   11ace: b3 89 e9 40  	sub	s3, s3, a4
   11ad2: 91 a0        	j	0x11b16 <_fseeko_r+0x1a4>
   11ad4: a2 85        	mv	a1, s0
   11ad6: 26 85        	mv	a0, s1
   11ad8: ef 10 40 2c  	jal	0x12d9c <_fflush_r>
   11adc: d1 b5        	j	0x119a0 <_fseeko_r+0x2e>
   11ade: 0c 78        	ld	a1, 0x30(s0)
   11ae0: 85 46        	li	a3, 0x1
   11ae2: 01 46        	li	a2, 0x0
   11ae4: 26 85        	mv	a0, s1
   11ae6: 82 9a        	jalr	s5
   11ae8: fd 57        	li	a5, -0x1
   11aea: aa 89        	mv	s3, a0
   11aec: 63 0e f5 16  	beq	a0, a5, 0x11c68 <_fseeko_r+0x2f6>
   11af0: 83 17 04 01  	lh	a5, 0x10(s0)
   11af4: 18 6c        	ld	a4, 0x18(s0)
   11af6: 93 f6 47 00  	andi	a3, a5, 0x4
   11afa: c1 f6        	bnez	a3, 0x11a82 <_fseeko_r+0x110>
   11afc: a1 8b        	andi	a5, a5, 0x8
   11afe: d1 db        	beqz	a5, 0x11a92 <_fseeko_r+0x120>
   11b00: 1c 60        	ld	a5, 0x0(s0)
   11b02: c1 db        	beqz	a5, 0x11a92 <_fseeko_r+0x120>
   11b04: 99 8f        	sub	a5, a5, a4
   11b06: be 99        	add	s3, s3, a5
   11b08: 69 b7        	j	0x11a92 <_fseeko_r+0x120>
   11b0a: 2c 6c        	ld	a1, 0x58(s0)
   11b0c: 14 44        	lw	a3, 0x8(s0)
   11b0e: 63 82 05 10  	beqz	a1, 0x11c12 <_fseeko_r+0x2a0>
   11b12: 38 58        	lw	a4, 0x70(s0)
   11b14: b6 87        	mv	a5, a3
   11b16: 34 74        	ld	a3, 0x68(s0)
   11b18: 10 6c        	ld	a2, 0x18(s0)
   11b1a: ce 97        	add	a5, a5, s3
   11b1c: 91 8e        	sub	a3, a3, a2
   11b1e: 95 8f        	sub	a5, a5, a3
   11b20: 36 97        	add	a4, a4, a3
   11b22: 63 c6 fb 00  	blt	s7, a5, 0x11b2e <_fseeko_r+0x1bc>
   11b26: b3 86 e7 00  	add	a3, a5, a4
   11b2a: 63 ef db 0e  	bltu	s7, a3, 0x11c28 <_fseeko_r+0x2b6>
   11b2e: 83 29 84 08  	lw	s3, 0x88(s0)
   11b32: 0c 78        	ld	a1, 0x30(s0)
   11b34: 81 46        	li	a3, 0x0
   11b36: bb 09 30 41  	negw	s3, s3
   11b3a: b3 f9 79 01  	and	s3, s3, s7
   11b3e: 4e 86        	mv	a2, s3
   11b40: 26 85        	mv	a0, s1
   11b42: 82 9a        	jalr	s5
   11b44: fd 57        	li	a5, -0x1
   11b46: 63 01 f5 0c  	beq	a0, a5, 0x11c08 <_fseeko_r+0x296>
   11b4a: 1c 6c        	ld	a5, 0x18(s0)
   11b4c: 2c 6c        	ld	a1, 0x58(s0)
   11b4e: 23 24 04 00  	sw	zero, 0x8(s0)
   11b52: 1c e0        	sd	a5, 0x0(s0)
   11b54: 91 c9        	beqz	a1, 0x11b68 <_fseeko_r+0x1f6>
   11b56: 93 07 44 07  	addi	a5, s0, 0x74
   11b5a: 63 85 f5 00  	beq	a1, a5, 0x11b64 <_fseeko_r+0x1f2>
   11b5e: 26 85        	mv	a0, s1
   11b60: ef 00 a0 7a  	jal	0x1230a <_free_r>
   11b64: 23 3c 04 04  	sd	zero, 0x58(s0)
   11b68: 83 57 04 01  	lhu	a5, 0x10(s0)
   11b6c: 33 8b 3b 41  	sub	s6, s7, s3
   11b70: 93 f7 f7 fd  	andi	a5, a5, -0x21
   11b74: 23 18 f4 00  	sh	a5, 0x10(s0)
   11b78: 63 81 3b 03  	beq	s7, s3, 0x11b9a <_fseeko_r+0x228>
   11b7c: a2 85        	mv	a1, s0
   11b7e: 26 85        	mv	a0, s1
   11b80: ef 10 b0 03  	jal	0x133ba <__srefill_r>
   11b84: 51 e1        	bnez	a0, 0x11c08 <_fseeko_r+0x296>
   11b86: 1c 44        	lw	a5, 0x8(s0)
   11b88: 63 e0 67 09  	bltu	a5, s6, 0x11c08 <_fseeko_r+0x296>
   11b8c: 18 60        	ld	a4, 0x0(s0)
   11b8e: bb 87 67 41  	subw	a5, a5, s6
   11b92: 1c c4        	sw	a5, 0x8(s0)
   11b94: b3 07 67 01  	add	a5, a4, s6
   11b98: 1c e0        	sd	a5, 0x0(s0)
   11b9a: 21 46        	li	a2, 0x8
   11b9c: 81 45        	li	a1, 0x0
   11b9e: 13 05 44 0a  	addi	a0, s0, 0xa4
   11ba2: ef 00 a0 32  	jal	0x11ecc <memset>
   11ba6: e6 7b        	ld	s7, 0x78(sp)
   11ba8: 4d bd        	j	0x11a5a <_fseeko_r+0xe8>
   11baa: 83 15 24 01  	lh	a1, 0x12(s0)
   11bae: e3 c5 05 e4  	bltz	a1, 0x119f8 <_fseeko_r+0x86>
   11bb2: 30 00        	addi	a2, sp, 0x8
   11bb4: 26 85        	mv	a0, s1
   11bb6: ef 00 a0 17  	jal	0x11d30 <_fstat_r>
   11bba: 25 e5        	bnez	a0, 0x11c22 <_fseeko_r+0x2b0>
   11bbc: 32 47        	lw	a4, 0xc(sp)
   11bbe: bd 67        	lui	a5, 0xf
   11bc0: a1 66        	lui	a3, 0x8
   11bc2: 7d 8f        	and	a4, a4, a5
   11bc4: 83 17 04 01  	lh	a5, 0x10(s0)
   11bc8: e3 18 d7 e2  	bne	a4, a3, 0x119f8 <_fseeko_r+0x86>
   11bcc: de fc        	sd	s7, 0x78(sp)
   11bce: 93 e7 07 40  	ori	a5, a5, 0x400
   11bd2: 13 07 00 40  	li	a4, 0x400
   11bd6: 23 24 e4 08  	sw	a4, 0x88(s0)
   11bda: 23 18 f4 00  	sh	a5, 0x10(s0)
   11bde: e1 b5        	j	0x11aa6 <_fseeko_r+0x134>
   11be0: 83 15 24 01  	lh	a1, 0x12(s0)
   11be4: 30 00        	addi	a2, sp, 0x8
   11be6: 26 85        	mv	a0, s1
   11be8: ef 00 80 14  	jal	0x11d30 <_fstat_r>
   11bec: 11 ed        	bnez	a0, 0x11c08 <_fseeko_r+0x296>
   11bee: e2 6b        	ld	s7, 0x18(sp)
   11bf0: d2 9b        	add	s7, s7, s4
   11bf2: e3 1c 0b f0  	bnez	s6, 0x11b0a <_fseeko_r+0x198>
   11bf6: 6d bd        	j	0x11ab0 <_fseeko_r+0x13e>
   11bf8: 0c 78        	ld	a1, 0x30(s0)
   11bfa: 85 46        	li	a3, 0x1
   11bfc: 01 46        	li	a2, 0x0
   11bfe: 26 85        	mv	a0, s1
   11c00: 82 9a        	jalr	s5
   11c02: fd 57        	li	a5, -0x1
   11c04: e3 1d f5 ea  	bne	a0, a5, 0x11abe <_fseeko_r+0x14c>
   11c08: e6 7b        	ld	s7, 0x78(sp)
   11c0a: ed bb        	j	0x11a04 <_fseeko_r+0x92>
   11c0c: ef f0 cf e3  	jal	0x11248 <__sinit>
   11c10: 41 b3        	j	0x11990 <_fseeko_r+0x1e>
   11c12: 18 60        	ld	a4, 0x0(s0)
   11c14: 10 6c        	ld	a2, 0x18(s0)
   11c16: 81 45        	li	a1, 0x0
   11c18: 11 8f        	sub	a4, a4, a2
   11c1a: b3 87 e9 40  	sub	a5, s3, a4
   11c1e: 36 97        	add	a4, a4, a3
   11c20: 09 b7        	j	0x11b22 <_fseeko_r+0x1b0>
   11c22: 83 17 04 01  	lh	a5, 0x10(s0)
   11c26: c9 bb        	j	0x119f8 <_fseeko_r+0x86>
   11c28: bb 86 fb 40  	subw	a3, s7, a5
   11c2c: b9 9f        	addw	a5, a5, a4
   11c2e: 36 96        	add	a2, a2, a3
   11c30: bb 87 77 41  	subw	a5, a5, s7
   11c34: 10 e0        	sd	a2, 0x0(s0)
   11c36: 1c c4        	sw	a5, 0x8(s0)
   11c38: 91 c9        	beqz	a1, 0x11c4c <_fseeko_r+0x2da>
   11c3a: 93 07 44 07  	addi	a5, s0, 0x74
   11c3e: 63 85 f5 00  	beq	a1, a5, 0x11c48 <_fseeko_r+0x2d6>
   11c42: 26 85        	mv	a0, s1
   11c44: ef 00 60 6c  	jal	0x1230a <_free_r>
   11c48: 23 3c 04 04  	sd	zero, 0x58(s0)
   11c4c: 83 57 04 01  	lhu	a5, 0x10(s0)
   11c50: 21 46        	li	a2, 0x8
   11c52: 81 45        	li	a1, 0x0
   11c54: 93 f7 f7 fd  	andi	a5, a5, -0x21
   11c58: 23 18 f4 00  	sh	a5, 0x10(s0)
   11c5c: 13 05 44 0a  	addi	a0, s0, 0xa4
   11c60: ef 00 c0 26  	jal	0x11ecc <memset>
   11c64: e6 7b        	ld	s7, 0x78(sp)
   11c66: d5 bb        	j	0x11a5a <_fseeko_r+0xe8>
   11c68: ea 69        	ld	s3, 0x98(sp)
   11c6a: 0a 6b        	ld	s6, 0x80(sp)
   11c6c: 7d 55        	li	a0, -0x1
   11c6e: 99 bb        	j	0x119c4 <_fseeko_r+0x52>
   11c70: f5 47        	li	a5, 0x1d
   11c72: 9c c0        	sw	a5, 0x0(s1)
   11c74: 7d 55        	li	a0, -0x1
   11c76: b9 b3        	j	0x119c4 <_fseeko_r+0x52>

0000000000011c78 <fseeko>:
   11c78: aa 87        	mv	a5, a0
   11c7a: 03 b5 81 18  	ld	a0, 0x188(gp)
   11c7e: b2 86        	mv	a3, a2
   11c80: 2e 86        	mv	a2, a1
   11c82: be 85        	mv	a1, a5
   11c84: fd b1        	j	0x11972 <_fseeko_r>

0000000000011c86 <_close_r>:
   11c86: 01 11        	addi	sp, sp, -0x20
   11c88: 22 e8        	sd	s0, 0x10(sp)
   11c8a: 26 e4        	sd	s1, 0x8(sp)
   11c8c: 2a 84        	mv	s0, a0
   11c8e: 2e 85        	mv	a0, a1
   11c90: 06 ec        	sd	ra, 0x18(sp)
   11c92: 23 a4 01 1a  	sw	zero, 0x1a8(gp)
   11c96: ef 10 30 71  	jal	0x13ba8 <_close>
   11c9a: fd 57        	li	a5, -0x1
   11c9c: 63 07 f5 00  	beq	a0, a5, 0x11caa <_close_r+0x24>
   11ca0: e2 60        	ld	ra, 0x18(sp)
   11ca2: 42 64        	ld	s0, 0x10(sp)
   11ca4: a2 64        	ld	s1, 0x8(sp)
   11ca6: 05 61        	addi	sp, sp, 0x20
   11ca8: 82 80        	ret
   11caa: 83 a7 81 1a  	lw	a5, 0x1a8(gp)
   11cae: ed db        	beqz	a5, 0x11ca0 <_close_r+0x1a>
   11cb0: e2 60        	ld	ra, 0x18(sp)
   11cb2: 1c c0        	sw	a5, 0x0(s0)
   11cb4: 42 64        	ld	s0, 0x10(sp)
   11cb6: a2 64        	ld	s1, 0x8(sp)
   11cb8: 05 61        	addi	sp, sp, 0x20
   11cba: 82 80        	ret

0000000000011cbc <_reclaim_reent>:
   11cbc: 83 b7 81 18  	ld	a5, 0x188(gp)
   11cc0: 63 87 a7 06  	beq	a5, a0, 0x11d2e <_reclaim_reent+0x72>
   11cc4: 2c 75        	ld	a1, 0x68(a0)
   11cc6: 79 71        	addi	sp, sp, -0x30
   11cc8: 26 ec        	sd	s1, 0x18(sp)
   11cca: 06 f4        	sd	ra, 0x28(sp)
   11ccc: aa 84        	mv	s1, a0
   11cce: 9d c9        	beqz	a1, 0x11d04 <_reclaim_reent+0x48>
   11cd0: 4a e8        	sd	s2, 0x10(sp)
   11cd2: 4e e4        	sd	s3, 0x8(sp)
   11cd4: 22 f0        	sd	s0, 0x20(sp)
   11cd6: 01 49        	li	s2, 0x0
   11cd8: 93 09 00 20  	li	s3, 0x200
   11cdc: b3 87 25 01  	add	a5, a1, s2
   11ce0: 80 63        	ld	s0, 0x0(a5)
   11ce2: 01 c8        	beqz	s0, 0x11cf2 <_reclaim_reent+0x36>
   11ce4: a2 85        	mv	a1, s0
   11ce6: 00 60        	ld	s0, 0x0(s0)
   11ce8: 26 85        	mv	a0, s1
   11cea: ef 00 00 62  	jal	0x1230a <_free_r>
   11cee: 7d f8        	bnez	s0, 0x11ce4 <_reclaim_reent+0x28>
   11cf0: ac 74        	ld	a1, 0x68(s1)
   11cf2: 21 09        	addi	s2, s2, 0x8
   11cf4: e3 14 39 ff  	bne	s2, s3, 0x11cdc <_reclaim_reent+0x20>
   11cf8: 26 85        	mv	a0, s1
   11cfa: ef 00 00 61  	jal	0x1230a <_free_r>
   11cfe: 02 74        	ld	s0, 0x20(sp)
   11d00: 42 69        	ld	s2, 0x10(sp)
   11d02: a2 69        	ld	s3, 0x8(sp)
   11d04: ac 68        	ld	a1, 0x50(s1)
   11d06: 81 c5        	beqz	a1, 0x11d0e <_reclaim_reent+0x52>
   11d08: 26 85        	mv	a0, s1
   11d0a: ef 00 00 60  	jal	0x1230a <_free_r>
   11d0e: ac 7c        	ld	a1, 0x78(s1)
   11d10: 81 c5        	beqz	a1, 0x11d18 <_reclaim_reent+0x5c>
   11d12: 26 85        	mv	a0, s1
   11d14: ef 00 60 5f  	jal	0x1230a <_free_r>
   11d18: bc 64        	ld	a5, 0x48(s1)
   11d1a: 91 c7        	beqz	a5, 0x11d26 <_reclaim_reent+0x6a>
   11d1c: a2 70        	ld	ra, 0x28(sp)
   11d1e: 26 85        	mv	a0, s1
   11d20: e2 64        	ld	s1, 0x18(sp)
   11d22: 45 61        	addi	sp, sp, 0x30
   11d24: 82 87        	jr	a5
   11d26: a2 70        	ld	ra, 0x28(sp)
   11d28: e2 64        	ld	s1, 0x18(sp)
   11d2a: 45 61        	addi	sp, sp, 0x30
   11d2c: 82 80        	ret
   11d2e: 82 80        	ret

0000000000011d30 <_fstat_r>:
   11d30: 01 11        	addi	sp, sp, -0x20
   11d32: 2e 87        	mv	a4, a1
   11d34: 22 e8        	sd	s0, 0x10(sp)
   11d36: 26 e4        	sd	s1, 0x8(sp)
   11d38: 2a 84        	mv	s0, a0
   11d3a: b2 85        	mv	a1, a2
   11d3c: 3a 85        	mv	a0, a4
   11d3e: 06 ec        	sd	ra, 0x18(sp)
   11d40: 23 a4 01 1a  	sw	zero, 0x1a8(gp)
   11d44: ef 10 30 6b  	jal	0x13bf6 <_fstat>
   11d48: fd 57        	li	a5, -0x1
   11d4a: 63 07 f5 00  	beq	a0, a5, 0x11d58 <_fstat_r+0x28>
   11d4e: e2 60        	ld	ra, 0x18(sp)
   11d50: 42 64        	ld	s0, 0x10(sp)
   11d52: a2 64        	ld	s1, 0x8(sp)
   11d54: 05 61        	addi	sp, sp, 0x20
   11d56: 82 80        	ret
   11d58: 83 a7 81 1a  	lw	a5, 0x1a8(gp)
   11d5c: ed db        	beqz	a5, 0x11d4e <_fstat_r+0x1e>
   11d5e: e2 60        	ld	ra, 0x18(sp)
   11d60: 1c c0        	sw	a5, 0x0(s0)
   11d62: 42 64        	ld	s0, 0x10(sp)
   11d64: a2 64        	ld	s1, 0x8(sp)
   11d66: 05 61        	addi	sp, sp, 0x20
   11d68: 82 80        	ret

0000000000011d6a <_lseek_r>:
   11d6a: 01 11        	addi	sp, sp, -0x20
   11d6c: 2e 87        	mv	a4, a1
   11d6e: 22 e8        	sd	s0, 0x10(sp)
   11d70: 26 e4        	sd	s1, 0x8(sp)
   11d72: b2 85        	mv	a1, a2
   11d74: 2a 84        	mv	s0, a0
   11d76: 36 86        	mv	a2, a3
   11d78: 3a 85        	mv	a0, a4
   11d7a: 06 ec        	sd	ra, 0x18(sp)
   11d7c: 23 a4 01 1a  	sw	zero, 0x1a8(gp)
   11d80: ef 10 d0 6d  	jal	0x13c5c <_lseek>
   11d84: fd 57        	li	a5, -0x1
   11d86: 63 07 f5 00  	beq	a0, a5, 0x11d94 <_lseek_r+0x2a>
   11d8a: e2 60        	ld	ra, 0x18(sp)
   11d8c: 42 64        	ld	s0, 0x10(sp)
   11d8e: a2 64        	ld	s1, 0x8(sp)
   11d90: 05 61        	addi	sp, sp, 0x20
   11d92: 82 80        	ret
   11d94: 83 a7 81 1a  	lw	a5, 0x1a8(gp)
   11d98: ed db        	beqz	a5, 0x11d8a <_lseek_r+0x20>
   11d9a: e2 60        	ld	ra, 0x18(sp)
   11d9c: 1c c0        	sw	a5, 0x0(s0)
   11d9e: 42 64        	ld	s0, 0x10(sp)
   11da0: a2 64        	ld	s1, 0x8(sp)
   11da2: 05 61        	addi	sp, sp, 0x20
   11da4: 82 80        	ret

0000000000011da6 <_open_r>:
   11da6: 01 11        	addi	sp, sp, -0x20
   11da8: 2e 87        	mv	a4, a1
   11daa: 22 e8        	sd	s0, 0x10(sp)
   11dac: 26 e4        	sd	s1, 0x8(sp)
   11dae: b2 85        	mv	a1, a2
   11db0: 2a 84        	mv	s0, a0
   11db2: 36 86        	mv	a2, a3
   11db4: 3a 85        	mv	a0, a4
   11db6: 06 ec        	sd	ra, 0x18(sp)
   11db8: 23 a4 01 1a  	sw	zero, 0x1a8(gp)
   11dbc: ef 10 d0 6c  	jal	0x13c88 <_open>
   11dc0: fd 57        	li	a5, -0x1
   11dc2: 63 07 f5 00  	beq	a0, a5, 0x11dd0 <_open_r+0x2a>
   11dc6: e2 60        	ld	ra, 0x18(sp)
   11dc8: 42 64        	ld	s0, 0x10(sp)
   11dca: a2 64        	ld	s1, 0x8(sp)
   11dcc: 05 61        	addi	sp, sp, 0x20
   11dce: 82 80        	ret
   11dd0: 83 a7 81 1a  	lw	a5, 0x1a8(gp)
   11dd4: ed db        	beqz	a5, 0x11dc6 <_open_r+0x20>
   11dd6: e2 60        	ld	ra, 0x18(sp)
   11dd8: 1c c0        	sw	a5, 0x0(s0)
   11dda: 42 64        	ld	s0, 0x10(sp)
   11ddc: a2 64        	ld	s1, 0x8(sp)
   11dde: 05 61        	addi	sp, sp, 0x20
   11de0: 82 80        	ret

0000000000011de2 <_read_r>:
   11de2: 01 11        	addi	sp, sp, -0x20
   11de4: 2e 87        	mv	a4, a1
   11de6: 22 e8        	sd	s0, 0x10(sp)
   11de8: 26 e4        	sd	s1, 0x8(sp)
   11dea: b2 85        	mv	a1, a2
   11dec: 2a 84        	mv	s0, a0
   11dee: 36 86        	mv	a2, a3
   11df0: 3a 85        	mv	a0, a4
   11df2: 06 ec        	sd	ra, 0x18(sp)
   11df4: 23 a4 01 1a  	sw	zero, 0x1a8(gp)
   11df8: ef 10 d0 6b  	jal	0x13cb4 <_read>
   11dfc: fd 57        	li	a5, -0x1
   11dfe: 63 07 f5 00  	beq	a0, a5, 0x11e0c <_read_r+0x2a>
   11e02: e2 60        	ld	ra, 0x18(sp)
   11e04: 42 64        	ld	s0, 0x10(sp)
   11e06: a2 64        	ld	s1, 0x8(sp)
   11e08: 05 61        	addi	sp, sp, 0x20
   11e0a: 82 80        	ret
   11e0c: 83 a7 81 1a  	lw	a5, 0x1a8(gp)
   11e10: ed db        	beqz	a5, 0x11e02 <_read_r+0x20>
   11e12: e2 60        	ld	ra, 0x18(sp)
   11e14: 1c c0        	sw	a5, 0x0(s0)
   11e16: 42 64        	ld	s0, 0x10(sp)
   11e18: a2 64        	ld	s1, 0x8(sp)
   11e1a: 05 61        	addi	sp, sp, 0x20
   11e1c: 82 80        	ret

0000000000011e1e <_write_r>:
   11e1e: 01 11        	addi	sp, sp, -0x20
   11e20: 2e 87        	mv	a4, a1
   11e22: 22 e8        	sd	s0, 0x10(sp)
   11e24: 26 e4        	sd	s1, 0x8(sp)
   11e26: b2 85        	mv	a1, a2
   11e28: 2a 84        	mv	s0, a0
   11e2a: 36 86        	mv	a2, a3
   11e2c: 3a 85        	mv	a0, a4
   11e2e: 06 ec        	sd	ra, 0x18(sp)
   11e30: 23 a4 01 1a  	sw	zero, 0x1a8(gp)
   11e34: ef 10 10 70  	jal	0x13d34 <_write>
   11e38: fd 57        	li	a5, -0x1
   11e3a: 63 07 f5 00  	beq	a0, a5, 0x11e48 <_write_r+0x2a>
   11e3e: e2 60        	ld	ra, 0x18(sp)
   11e40: 42 64        	ld	s0, 0x10(sp)
   11e42: a2 64        	ld	s1, 0x8(sp)
   11e44: 05 61        	addi	sp, sp, 0x20
   11e46: 82 80        	ret
   11e48: 83 a7 81 1a  	lw	a5, 0x1a8(gp)
   11e4c: ed db        	beqz	a5, 0x11e3e <_write_r+0x20>
   11e4e: e2 60        	ld	ra, 0x18(sp)
   11e50: 1c c0        	sw	a5, 0x0(s0)
   11e52: 42 64        	ld	s0, 0x10(sp)
   11e54: a2 64        	ld	s1, 0x8(sp)
   11e56: 05 61        	addi	sp, sp, 0x20
   11e58: 82 80        	ret

0000000000011e5a <__libc_init_array>:
   11e5a: 01 11        	addi	sp, sp, -0x20
   11e5c: 22 e8        	sd	s0, 0x10(sp)
   11e5e: dd 67        	lui	a5, 0x17
   11e60: 5d 64        	lui	s0, 0x17
   11e62: 4a e0        	sd	s2, 0x0(sp)
   11e64: 93 87 87 20  	addi	a5, a5, 0x208
   11e68: 13 07 84 20  	addi	a4, s0, 0x208
   11e6c: 06 ec        	sd	ra, 0x18(sp)
   11e6e: 26 e4        	sd	s1, 0x8(sp)
   11e70: 33 89 e7 40  	sub	s2, a5, a4
   11e74: 63 8d e7 00  	beq	a5, a4, 0x11e8e <__libc_init_array+0x34>
   11e78: 13 59 39 40  	srai	s2, s2, 0x3
   11e7c: 13 04 84 20  	addi	s0, s0, 0x208
   11e80: 81 44        	li	s1, 0x0
   11e82: 1c 60        	ld	a5, 0x0(s0)
   11e84: 85 04        	addi	s1, s1, 0x1
   11e86: 21 04        	addi	s0, s0, 0x8
   11e88: 82 97        	jalr	a5
   11e8a: e3 ec 24 ff  	bltu	s1, s2, 0x11e82 <__libc_init_array+0x28>
   11e8e: 5d 64        	lui	s0, 0x17
   11e90: dd 67        	lui	a5, 0x17
   11e92: 93 87 87 21  	addi	a5, a5, 0x218
   11e96: 13 07 84 20  	addi	a4, s0, 0x208
   11e9a: 33 89 e7 40  	sub	s2, a5, a4
   11e9e: 13 59 39 40  	srai	s2, s2, 0x3
   11ea2: 63 8b e7 00  	beq	a5, a4, 0x11eb8 <__libc_init_array+0x5e>
   11ea6: 13 04 84 20  	addi	s0, s0, 0x208
   11eaa: 81 44        	li	s1, 0x0
   11eac: 1c 60        	ld	a5, 0x0(s0)
   11eae: 85 04        	addi	s1, s1, 0x1
   11eb0: 21 04        	addi	s0, s0, 0x8
   11eb2: 82 97        	jalr	a5
   11eb4: e3 ec 24 ff  	bltu	s1, s2, 0x11eac <__libc_init_array+0x52>
   11eb8: e2 60        	ld	ra, 0x18(sp)
   11eba: 42 64        	ld	s0, 0x10(sp)
   11ebc: a2 64        	ld	s1, 0x8(sp)
   11ebe: 02 69        	ld	s2, 0x0(sp)
   11ec0: 05 61        	addi	sp, sp, 0x20
   11ec2: 82 80        	ret

0000000000011ec4 <close>:
   11ec4: aa 85        	mv	a1, a0
   11ec6: 03 b5 81 18  	ld	a0, 0x188(gp)
   11eca: 75 bb        	j	0x11c86 <_close_r>

0000000000011ecc <memset>:
   11ecc: 3d 43        	li	t1, 0xf
   11ece: 2a 87        	mv	a4, a0
   11ed0: 63 71 c3 02  	bgeu	t1, a2, 0x11ef2 <memset+0x26>
   11ed4: 93 77 f7 00  	andi	a5, a4, 0xf
   11ed8: c1 e3        	bnez	a5, 0x11f58 <memset+0x8c>
   11eda: bd e1        	bnez	a1, 0x11f40 <memset+0x74>
   11edc: 93 76 06 ff  	andi	a3, a2, -0x10
   11ee0: 3d 8a        	andi	a2, a2, 0xf
   11ee2: ba 96        	add	a3, a3, a4
   11ee4: 0c e3        	sd	a1, 0x0(a4)
   11ee6: 0c e7        	sd	a1, 0x8(a4)
   11ee8: 41 07        	addi	a4, a4, 0x10
   11eea: e3 6d d7 fe  	bltu	a4, a3, 0x11ee4 <memset+0x18>
   11eee: 11 e2        	bnez	a2, 0x11ef2 <memset+0x26>
   11ef0: 82 80        	ret
   11ef2: b3 06 c3 40  	sub	a3, t1, a2
   11ef6: 8a 06        	slli	a3, a3, 0x2
   11ef8: 97 02 00 00  	auipc	t0, 0x0
   11efc: 96 96        	add	a3, a3, t0
   11efe: 67 80 a6 00  	jr	0xa(a3)
   11f02: 23 07 b7 00  	sb	a1, 0xe(a4)
   11f06: a3 06 b7 00  	sb	a1, 0xd(a4)
   11f0a: 23 06 b7 00  	sb	a1, 0xc(a4)
   11f0e: a3 05 b7 00  	sb	a1, 0xb(a4)
   11f12: 23 05 b7 00  	sb	a1, 0xa(a4)
   11f16: a3 04 b7 00  	sb	a1, 0x9(a4)
   11f1a: 23 04 b7 00  	sb	a1, 0x8(a4)
   11f1e: a3 03 b7 00  	sb	a1, 0x7(a4)
   11f22: 23 03 b7 00  	sb	a1, 0x6(a4)
   11f26: a3 02 b7 00  	sb	a1, 0x5(a4)
   11f2a: 23 02 b7 00  	sb	a1, 0x4(a4)
   11f2e: a3 01 b7 00  	sb	a1, 0x3(a4)
   11f32: 23 01 b7 00  	sb	a1, 0x2(a4)
   11f36: a3 00 b7 00  	sb	a1, 0x1(a4)
   11f3a: 23 00 b7 00  	sb	a1, 0x0(a4)
   11f3e: 82 80        	ret
   11f40: 93 f5 f5 0f  	andi	a1, a1, 0xff
   11f44: 93 96 85 00  	slli	a3, a1, 0x8
   11f48: d5 8d        	or	a1, a1, a3
   11f4a: 93 96 05 01  	slli	a3, a1, 0x10
   11f4e: d5 8d        	or	a1, a1, a3
   11f50: 93 96 05 02  	slli	a3, a1, 0x20
   11f54: d5 8d        	or	a1, a1, a3
   11f56: 59 b7        	j	0x11edc <memset+0x10>
   11f58: 93 96 27 00  	slli	a3, a5, 0x2
   11f5c: 97 02 00 00  	auipc	t0, 0x0
   11f60: 96 96        	add	a3, a3, t0
   11f62: 86 82        	mv	t0, ra
   11f64: e7 80 26 fa  	jalr	-0x5e(a3)
   11f68: 96 80        	mv	ra, t0
   11f6a: c1 17        	addi	a5, a5, -0x10
   11f6c: 1d 8f        	sub	a4, a4, a5
   11f6e: 3e 96        	add	a2, a2, a5
   11f70: e3 71 c3 f8  	bgeu	t1, a2, 0x11ef2 <memset+0x26>
   11f74: 9d b7        	j	0x11eda <memset+0xe>

0000000000011f76 <memcpy>:
   11f76: b3 c7 a5 00  	xor	a5, a1, a0
   11f7a: 9d 8b        	andi	a5, a5, 0x7
   11f7c: b3 08 c5 00  	add	a7, a0, a2
   11f80: b1 e7        	bnez	a5, 0x11fcc <memcpy+0x56>
   11f82: 9d 47        	li	a5, 0x7
   11f84: 63 f4 c7 04  	bgeu	a5, a2, 0x11fcc <memcpy+0x56>
   11f88: 93 77 75 00  	andi	a5, a0, 0x7
   11f8c: 2a 87        	mv	a4, a0
   11f8e: b9 eb        	bnez	a5, 0x11fe4 <memcpy+0x6e>
   11f90: 13 f6 88 ff  	andi	a2, a7, -0x8
   11f94: b3 06 e6 40  	sub	a3, a2, a4
   11f98: 93 07 00 04  	li	a5, 0x40
   11f9c: 63 c8 d7 06  	blt	a5, a3, 0x1200c <memcpy+0x96>
   11fa0: ae 86        	mv	a3, a1
   11fa2: ba 87        	mv	a5, a4
   11fa4: 63 71 c7 02  	bgeu	a4, a2, 0x11fc6 <memcpy+0x50>
   11fa8: 03 b8 06 00  	ld	a6, 0x0(a3)
   11fac: a1 07        	addi	a5, a5, 0x8
   11fae: a1 06        	addi	a3, a3, 0x8
   11fb0: 23 bc 07 ff  	sd	a6, -0x8(a5)
   11fb4: e3 ea c7 fe  	bltu	a5, a2, 0x11fa8 <memcpy+0x32>
   11fb8: 93 07 f6 ff  	addi	a5, a2, -0x1
   11fbc: 99 8f        	sub	a5, a5, a4
   11fbe: e1 9b        	andi	a5, a5, -0x8
   11fc0: a1 07        	addi	a5, a5, 0x8
   11fc2: 3e 97        	add	a4, a4, a5
   11fc4: be 95        	add	a1, a1, a5
   11fc6: 63 66 17 01  	bltu	a4, a7, 0x11fd2 <memcpy+0x5c>
   11fca: 82 80        	ret
   11fcc: 2a 87        	mv	a4, a0
   11fce: 63 7e 15 03  	bgeu	a0, a7, 0x1200a <memcpy+0x94>
   11fd2: 83 c7 05 00  	lbu	a5, 0x0(a1)
   11fd6: 05 07        	addi	a4, a4, 0x1
   11fd8: 85 05        	addi	a1, a1, 0x1
   11fda: a3 0f f7 fe  	sb	a5, -0x1(a4)
   11fde: e3 9a e8 fe  	bne	a7, a4, 0x11fd2 <memcpy+0x5c>
   11fe2: 82 80        	ret
   11fe4: 83 c6 05 00  	lbu	a3, 0x0(a1)
   11fe8: 05 07        	addi	a4, a4, 0x1
   11fea: 93 77 77 00  	andi	a5, a4, 0x7
   11fee: a3 0f d7 fe  	sb	a3, -0x1(a4)
   11ff2: 85 05        	addi	a1, a1, 0x1
   11ff4: d1 df        	beqz	a5, 0x11f90 <memcpy+0x1a>
   11ff6: 83 c6 05 00  	lbu	a3, 0x0(a1)
   11ffa: 05 07        	addi	a4, a4, 0x1
   11ffc: 93 77 77 00  	andi	a5, a4, 0x7
   12000: a3 0f d7 fe  	sb	a3, -0x1(a4)
   12004: 85 05        	addi	a1, a1, 0x1
   12006: f9 ff        	bnez	a5, 0x11fe4 <memcpy+0x6e>
   12008: 61 b7        	j	0x11f90 <memcpy+0x1a>
   1200a: 82 80        	ret
   1200c: 41 11        	addi	sp, sp, -0x10
   1200e: 22 e4        	sd	s0, 0x8(sp)
   12010: 13 04 00 04  	li	s0, 0x40
   12014: 83 b3 05 00  	ld	t2, 0x0(a1)
   12018: 83 b2 85 00  	ld	t0, 0x8(a1)
   1201c: 83 bf 05 01  	ld	t6, 0x10(a1)
   12020: 03 bf 85 01  	ld	t5, 0x18(a1)
   12024: 83 be 05 02  	ld	t4, 0x20(a1)
   12028: 03 be 85 02  	ld	t3, 0x28(a1)
   1202c: 03 b3 05 03  	ld	t1, 0x30(a1)
   12030: 03 b8 85 03  	ld	a6, 0x38(a1)
   12034: b4 61        	ld	a3, 0x40(a1)
   12036: 13 07 87 04  	addi	a4, a4, 0x48
   1203a: b3 07 e6 40  	sub	a5, a2, a4
   1203e: 23 3c 77 fa  	sd	t2, -0x48(a4)
   12042: 23 30 57 fc  	sd	t0, -0x40(a4)
   12046: 23 34 f7 fd  	sd	t6, -0x38(a4)
   1204a: 23 38 e7 fd  	sd	t5, -0x30(a4)
   1204e: 23 3c d7 fd  	sd	t4, -0x28(a4)
   12052: 23 30 c7 ff  	sd	t3, -0x20(a4)
   12056: 23 34 67 fe  	sd	t1, -0x18(a4)
   1205a: 23 38 07 ff  	sd	a6, -0x10(a4)
   1205e: 23 3c d7 fe  	sd	a3, -0x8(a4)
   12062: 93 85 85 04  	addi	a1, a1, 0x48
   12066: e3 47 f4 fa  	blt	s0, a5, 0x12014 <memcpy+0x9e>
   1206a: ae 86        	mv	a3, a1
   1206c: ba 87        	mv	a5, a4
   1206e: 63 71 c7 02  	bgeu	a4, a2, 0x12090 <memcpy+0x11a>
   12072: 03 b8 06 00  	ld	a6, 0x0(a3)
   12076: a1 07        	addi	a5, a5, 0x8
   12078: a1 06        	addi	a3, a3, 0x8
   1207a: 23 bc 07 ff  	sd	a6, -0x8(a5)
   1207e: e3 ea c7 fe  	bltu	a5, a2, 0x12072 <memcpy+0xfc>
   12082: 93 07 f6 ff  	addi	a5, a2, -0x1
   12086: 99 8f        	sub	a5, a5, a4
   12088: e1 9b        	andi	a5, a5, -0x8
   1208a: a1 07        	addi	a5, a5, 0x8
   1208c: 3e 97        	add	a4, a4, a5
   1208e: be 95        	add	a1, a1, a5
   12090: 63 65 17 01  	bltu	a4, a7, 0x1209a <memcpy+0x124>
   12094: 22 64        	ld	s0, 0x8(sp)
   12096: 41 01        	addi	sp, sp, 0x10
   12098: 82 80        	ret
   1209a: 83 c7 05 00  	lbu	a5, 0x0(a1)
   1209e: 05 07        	addi	a4, a4, 0x1
   120a0: 85 05        	addi	a1, a1, 0x1
   120a2: a3 0f f7 fe  	sb	a5, -0x1(a4)
   120a6: e3 87 e8 fe  	beq	a7, a4, 0x12094 <memcpy+0x11e>
   120aa: 83 c7 05 00  	lbu	a5, 0x0(a1)
   120ae: 05 07        	addi	a4, a4, 0x1
   120b0: 85 05        	addi	a1, a1, 0x1
   120b2: a3 0f f7 fe  	sb	a5, -0x1(a4)
   120b6: e3 92 e8 fe  	bne	a7, a4, 0x1209a <memcpy+0x124>
   120ba: e9 bf        	j	0x12094 <memcpy+0x11e>

00000000000120bc <strlen>:
   120bc: 93 77 75 00  	andi	a5, a0, 0x7
   120c0: 2a 87        	mv	a4, a0
   120c2: b5 e3        	bnez	a5, 0x12126 <strlen+0x6a>
   120c4: b7 f6 ef 0f  	lui	a3, 0xfeff
   120c8: 92 06        	slli	a3, a3, 0x4
   120ca: 93 86 f6 ef  	addi	a3, a3, -0x101
   120ce: c2 06        	slli	a3, a3, 0x10
   120d0: 93 86 f6 ef  	addi	a3, a3, -0x101
   120d4: be 06        	slli	a3, a3, 0xf
   120d6: 93 86 f6 f7  	addi	a3, a3, -0x81
   120da: fd 55        	li	a1, -0x1
   120dc: 10 63        	ld	a2, 0x0(a4)
   120de: 21 07        	addi	a4, a4, 0x8
   120e0: b3 77 d6 00  	and	a5, a2, a3
   120e4: b6 97        	add	a5, a5, a3
   120e6: d1 8f        	or	a5, a5, a2
   120e8: d5 8f        	or	a5, a5, a3
   120ea: e3 89 b7 fe  	beq	a5, a1, 0x120dc <strlen+0x20>
   120ee: 83 46 87 ff  	lbu	a3, -0x8(a4)
   120f2: b3 07 a7 40  	sub	a5, a4, a0
   120f6: a9 c6        	beqz	a3, 0x12140 <strlen+0x84>
   120f8: 83 46 97 ff  	lbu	a3, -0x7(a4)
   120fc: 9d ce        	beqz	a3, 0x1213a <strlen+0x7e>
   120fe: 83 46 a7 ff  	lbu	a3, -0x6(a4)
   12102: a9 c6        	beqz	a3, 0x1214c <strlen+0x90>
   12104: 83 46 b7 ff  	lbu	a3, -0x5(a4)
   12108: 9d ce        	beqz	a3, 0x12146 <strlen+0x8a>
   1210a: 83 46 c7 ff  	lbu	a3, -0x4(a4)
   1210e: b1 c2        	beqz	a3, 0x12152 <strlen+0x96>
   12110: 83 46 d7 ff  	lbu	a3, -0x3(a4)
   12114: b1 c2        	beqz	a3, 0x12158 <strlen+0x9c>
   12116: 03 45 e7 ff  	lbu	a0, -0x2(a4)
   1211a: 33 35 a0 00  	snez	a0, a0
   1211e: 3e 95        	add	a0, a0, a5
   12120: 79 15        	addi	a0, a0, -0x2
   12122: 82 80        	ret
   12124: c5 d2        	beqz	a3, 0x120c4 <strlen+0x8>
   12126: 83 47 07 00  	lbu	a5, 0x0(a4)
   1212a: 05 07        	addi	a4, a4, 0x1
   1212c: 93 76 77 00  	andi	a3, a4, 0x7
   12130: f5 fb        	bnez	a5, 0x12124 <strlen+0x68>
   12132: 09 8f        	sub	a4, a4, a0
   12134: 13 05 f7 ff  	addi	a0, a4, -0x1
   12138: 82 80        	ret
   1213a: 13 85 97 ff  	addi	a0, a5, -0x7
   1213e: 82 80        	ret
   12140: 13 85 87 ff  	addi	a0, a5, -0x8
   12144: 82 80        	ret
   12146: 13 85 b7 ff  	addi	a0, a5, -0x5
   1214a: 82 80        	ret
   1214c: 13 85 a7 ff  	addi	a0, a5, -0x6
   12150: 82 80        	ret
   12152: 13 85 c7 ff  	addi	a0, a5, -0x4
   12156: 82 80        	ret
   12158: 13 85 d7 ff  	addi	a0, a5, -0x3
   1215c: 82 80        	ret

000000000001215e <__call_exitprocs>:
   1215e: 5d 71        	addi	sp, sp, -0x50
   12160: 52 f0        	sd	s4, 0x20(sp)
   12162: 4a f8        	sd	s2, 0x30(sp)
   12164: 03 b9 01 1b  	ld	s2, 0x1b0(gp)
   12168: 86 e4        	sd	ra, 0x48(sp)
   1216a: 63 0d 09 06  	beqz	s2, 0x121e4 <__call_exitprocs+0x86>
   1216e: 4e f4        	sd	s3, 0x28(sp)
   12170: 56 ec        	sd	s5, 0x18(sp)
   12172: 5a e8        	sd	s6, 0x10(sp)
   12174: 5e e4        	sd	s7, 0x8(sp)
   12176: a2 e0        	sd	s0, 0x40(sp)
   12178: 26 fc        	sd	s1, 0x38(sp)
   1217a: 62 e0        	sd	s8, 0x0(sp)
   1217c: 2a 8b        	mv	s6, a0
   1217e: ae 8b        	mv	s7, a1
   12180: fd 59        	li	s3, -0x1
   12182: 85 4a        	li	s5, 0x1
   12184: 83 24 89 00  	lw	s1, 0x8(s2)
   12188: 1b 84 f4 ff  	addiw	s0, s1, -0x1
   1218c: 63 45 04 04  	bltz	s0, 0x121d6 <__call_exitprocs+0x78>
   12190: 8e 04        	slli	s1, s1, 0x3
   12192: ca 94        	add	s1, s1, s2
   12194: 63 9d 0b 04  	bnez	s7, 0x121ee <__call_exitprocs+0x90>
   12198: 83 27 89 00  	lw	a5, 0x8(s2)
   1219c: 98 64        	ld	a4, 0x8(s1)
   1219e: fd 37        	addiw	a5, a5, -0x1
   121a0: 63 82 87 08  	beq	a5, s0, 0x12224 <__call_exitprocs+0xc6>
   121a4: 23 b4 04 00  	sd	zero, 0x8(s1)
   121a8: 1d c3        	beqz	a4, 0x121ce <__call_exitprocs+0x70>
   121aa: 83 27 09 31  	lw	a5, 0x310(s2)
   121ae: bb 96 8a 00  	sllw	a3, s5, s0
   121b2: 03 2c 89 00  	lw	s8, 0x8(s2)
   121b6: f5 8f        	and	a5, a5, a3
   121b8: 81 27        	sext.w	a5, a5
   121ba: b9 e3        	bnez	a5, 0x12200 <__call_exitprocs+0xa2>
   121bc: 02 97        	jalr	a4
   121be: 03 27 89 00  	lw	a4, 0x8(s2)
   121c2: 83 b7 01 1b  	ld	a5, 0x1b0(gp)
   121c6: 63 1c 87 05  	bne	a4, s8, 0x1221e <__call_exitprocs+0xc0>
   121ca: 63 9a 27 05  	bne	a5, s2, 0x1221e <__call_exitprocs+0xc0>
   121ce: 7d 34        	addiw	s0, s0, -0x1
   121d0: e1 14        	addi	s1, s1, -0x8
   121d2: e3 11 34 fd  	bne	s0, s3, 0x12194 <__call_exitprocs+0x36>
   121d6: 06 64        	ld	s0, 0x40(sp)
   121d8: e2 74        	ld	s1, 0x38(sp)
   121da: a2 79        	ld	s3, 0x28(sp)
   121dc: e2 6a        	ld	s5, 0x18(sp)
   121de: 42 6b        	ld	s6, 0x10(sp)
   121e0: a2 6b        	ld	s7, 0x8(sp)
   121e2: 02 6c        	ld	s8, 0x0(sp)
   121e4: a6 60        	ld	ra, 0x48(sp)
   121e6: 42 79        	ld	s2, 0x30(sp)
   121e8: 02 7a        	ld	s4, 0x20(sp)
   121ea: 61 61        	addi	sp, sp, 0x50
   121ec: 82 80        	ret
   121ee: 83 b7 84 20  	ld	a5, 0x208(s1)
   121f2: e3 83 77 fb  	beq	a5, s7, 0x12198 <__call_exitprocs+0x3a>
   121f6: 7d 34        	addiw	s0, s0, -0x1
   121f8: e1 14        	addi	s1, s1, -0x8
   121fa: e3 1a 34 ff  	bne	s0, s3, 0x121ee <__call_exitprocs+0x90>
   121fe: e1 bf        	j	0x121d6 <__call_exitprocs+0x78>
   12200: 83 27 49 31  	lw	a5, 0x314(s2)
   12204: 83 b5 84 10  	ld	a1, 0x108(s1)
   12208: f5 8f        	and	a5, a5, a3
   1220a: 81 27        	sext.w	a5, a5
   1220c: 99 ef        	bnez	a5, 0x1222a <__call_exitprocs+0xcc>
   1220e: 5a 85        	mv	a0, s6
   12210: 02 97        	jalr	a4
   12212: 03 27 89 00  	lw	a4, 0x8(s2)
   12216: 83 b7 01 1b  	ld	a5, 0x1b0(gp)
   1221a: e3 08 87 fb  	beq	a4, s8, 0x121ca <__call_exitprocs+0x6c>
   1221e: c5 df        	beqz	a5, 0x121d6 <__call_exitprocs+0x78>
   12220: 3e 89        	mv	s2, a5
   12222: 8d b7        	j	0x12184 <__call_exitprocs+0x26>
   12224: 23 24 89 00  	sw	s0, 0x8(s2)
   12228: 41 b7        	j	0x121a8 <__call_exitprocs+0x4a>
   1222a: 2e 85        	mv	a0, a1
   1222c: 02 97        	jalr	a4
   1222e: 41 bf        	j	0x121be <__call_exitprocs+0x60>

0000000000012230 <atexit>:
   12230: aa 85        	mv	a1, a0
   12232: 81 46        	li	a3, 0x0
   12234: 01 46        	li	a2, 0x0
   12236: 01 45        	li	a0, 0x0
   12238: 6f 10 20 50  	j	0x1373a <__register_exitproc>

000000000001223c <_malloc_trim_r>:
   1223c: 79 71        	addi	sp, sp, -0x30
   1223e: 4e e4        	sd	s3, 0x8(sp)
   12240: dd 69        	lui	s3, 0x17
   12242: 22 f0        	sd	s0, 0x20(sp)
   12244: 26 ec        	sd	s1, 0x18(sp)
   12246: 4a e8        	sd	s2, 0x10(sp)
   12248: 52 e0        	sd	s4, 0x0(sp)
   1224a: 06 f4        	sd	ra, 0x28(sp)
   1224c: 2e 8a        	mv	s4, a1
   1224e: 2a 89        	mv	s2, a0
   12250: 93 89 09 39  	addi	s3, s3, 0x390
   12254: ef 00 d0 0f  	jal	0x12b50 <__malloc_lock>
   12258: 03 b7 09 01  	ld	a4, 0x10(s3)
   1225c: 85 67        	lui	a5, 0x1
   1225e: 93 87 f7 fd  	addi	a5, a5, -0x21
   12262: 04 67        	ld	s1, 0x8(a4)
   12264: 05 67        	lui	a4, 0x1
   12266: f1 98        	andi	s1, s1, -0x4
   12268: 33 84 f4 00  	add	s0, s1, a5
   1226c: 33 04 44 41  	sub	s0, s0, s4
   12270: 31 80        	srli	s0, s0, 0xc
   12272: 7d 14        	addi	s0, s0, -0x1
   12274: 32 04        	slli	s0, s0, 0xc
   12276: 63 4b e4 00  	blt	s0, a4, 0x1228c <_malloc_trim_r+0x50>
   1227a: 81 45        	li	a1, 0x0
   1227c: 4a 85        	mv	a0, s2
   1227e: ef 10 00 38  	jal	0x135fe <_sbrk_r>
   12282: 83 b7 09 01  	ld	a5, 0x10(s3)
   12286: a6 97        	add	a5, a5, s1
   12288: 63 0e f5 00  	beq	a0, a5, 0x122a4 <_malloc_trim_r+0x68>
   1228c: 4a 85        	mv	a0, s2
   1228e: ef 00 50 0c  	jal	0x12b52 <__malloc_unlock>
   12292: a2 70        	ld	ra, 0x28(sp)
   12294: 02 74        	ld	s0, 0x20(sp)
   12296: e2 64        	ld	s1, 0x18(sp)
   12298: 42 69        	ld	s2, 0x10(sp)
   1229a: a2 69        	ld	s3, 0x8(sp)
   1229c: 02 6a        	ld	s4, 0x0(sp)
   1229e: 01 45        	li	a0, 0x0
   122a0: 45 61        	addi	sp, sp, 0x30
   122a2: 82 80        	ret
   122a4: b3 05 80 40  	neg	a1, s0
   122a8: 4a 85        	mv	a0, s2
   122aa: ef 10 40 35  	jal	0x135fe <_sbrk_r>
   122ae: fd 57        	li	a5, -0x1
   122b0: 63 09 f5 02  	beq	a0, a5, 0x122e2 <_malloc_trim_r+0xa6>
   122b4: 93 87 01 42  	addi	a5, gp, 0x420
   122b8: 98 43        	lw	a4, 0x0(a5)
   122ba: 83 b6 09 01  	ld	a3, 0x10(s3)
   122be: 81 8c        	sub	s1, s1, s0
   122c0: 93 e4 14 00  	ori	s1, s1, 0x1
   122c4: 01 9f        	subw	a4, a4, s0
   122c6: 4a 85        	mv	a0, s2
   122c8: 84 e6        	sd	s1, 0x8(a3)
   122ca: 98 c3        	sw	a4, 0x0(a5)
   122cc: ef 00 70 08  	jal	0x12b52 <__malloc_unlock>
   122d0: a2 70        	ld	ra, 0x28(sp)
   122d2: 02 74        	ld	s0, 0x20(sp)
   122d4: e2 64        	ld	s1, 0x18(sp)
   122d6: 42 69        	ld	s2, 0x10(sp)
   122d8: a2 69        	ld	s3, 0x8(sp)
   122da: 02 6a        	ld	s4, 0x0(sp)
   122dc: 05 45        	li	a0, 0x1
   122de: 45 61        	addi	sp, sp, 0x30
   122e0: 82 80        	ret
   122e2: 81 45        	li	a1, 0x0
   122e4: 4a 85        	mv	a0, s2
   122e6: ef 10 80 31  	jal	0x135fe <_sbrk_r>
   122ea: 03 b7 09 01  	ld	a4, 0x10(s3)
   122ee: fd 46        	li	a3, 0x1f
   122f0: b3 07 e5 40  	sub	a5, a0, a4
   122f4: e3 dc f6 f8  	bge	a3, a5, 0x1228c <_malloc_trim_r+0x50>
   122f8: 83 b6 01 19  	ld	a3, 0x190(gp)
   122fc: 93 e7 17 00  	ori	a5, a5, 0x1
   12300: 1c e7        	sd	a5, 0x8(a4)
   12302: 15 8d        	sub	a0, a0, a3
   12304: 23 a0 a1 42  	sw	a0, 0x420(gp)
   12308: 51 b7        	j	0x1228c <_malloc_trim_r+0x50>

000000000001230a <_free_r>:
   1230a: 63 81 05 12  	beqz	a1, 0x1242c <_free_r+0x122>
   1230e: 01 11        	addi	sp, sp, -0x20
   12310: 22 e8        	sd	s0, 0x10(sp)
   12312: 26 e4        	sd	s1, 0x8(sp)
   12314: 2e 84        	mv	s0, a1
   12316: aa 84        	mv	s1, a0
   12318: 06 ec        	sd	ra, 0x18(sp)
   1231a: ef 00 70 03  	jal	0x12b50 <__malloc_lock>
   1231e: 03 35 84 ff  	ld	a0, -0x8(s0)
   12322: 13 07 04 ff  	addi	a4, s0, -0x10
   12326: dd 65        	lui	a1, 0x17
   12328: 93 77 e5 ff  	andi	a5, a0, -0x2
   1232c: 33 06 f7 00  	add	a2, a4, a5
   12330: 93 85 05 39  	addi	a1, a1, 0x390
   12334: 14 66        	ld	a3, 0x8(a2)
   12336: 03 b8 05 01  	ld	a6, 0x10(a1)
   1233a: f1 9a        	andi	a3, a3, -0x4
   1233c: 63 0a c8 12  	beq	a6, a2, 0x12470 <_free_r+0x166>
   12340: 14 e6        	sd	a3, 0x8(a2)
   12342: 05 89        	andi	a0, a0, 0x1
   12344: 33 08 d6 00  	add	a6, a2, a3
   12348: 3d ed        	bnez	a0, 0x123c6 <_free_r+0xbc>
   1234a: 03 33 04 ff  	ld	t1, -0x10(s0)
   1234e: 03 38 88 00  	ld	a6, 0x8(a6)
   12352: 5d 65        	lui	a0, 0x17
   12354: 33 07 67 40  	sub	a4, a4, t1
   12358: 83 38 07 01  	ld	a7, 0x10(a4)
   1235c: 13 05 05 3a  	addi	a0, a0, 0x3a0
   12360: 9a 97        	add	a5, a5, t1
   12362: 13 78 18 00  	andi	a6, a6, 0x1
   12366: 63 88 a8 0e  	beq	a7, a0, 0x12456 <_free_r+0x14c>
   1236a: 03 33 87 01  	ld	t1, 0x18(a4)
   1236e: 23 bc 68 00  	sd	t1, 0x18(a7)
   12372: 23 38 13 01  	sd	a7, 0x10(t1)
   12376: 63 06 08 12  	beqz	a6, 0x124a2 <_free_r+0x198>
   1237a: 93 e6 17 00  	ori	a3, a5, 0x1
   1237e: 14 e7        	sd	a3, 0x8(a4)
   12380: 1c e2        	sd	a5, 0x0(a2)
   12382: 93 06 f0 1f  	li	a3, 0x1ff
   12386: 63 ed f6 04  	bltu	a3, a5, 0x123e0 <_free_r+0xd6>
   1238a: 8d 83        	srli	a5, a5, 0x3
   1238c: 9b 86 17 00  	addiw	a3, a5, 0x1
   12390: 9b 96 16 00  	slliw	a3, a3, 0x1
   12394: 8e 06        	slli	a3, a3, 0x3
   12396: 03 b8 85 00  	ld	a6, 0x8(a1)
   1239a: ae 96        	add	a3, a3, a1
   1239c: 88 62        	ld	a0, 0x0(a3)
   1239e: 1b d6 27 40  	sraiw	a2, a5, 0x2
   123a2: 85 47        	li	a5, 0x1
   123a4: b3 97 c7 00  	sll	a5, a5, a2
   123a8: b3 e7 07 01  	or	a5, a5, a6
   123ac: 13 86 06 ff  	addi	a2, a3, -0x10
   123b0: 10 ef        	sd	a2, 0x18(a4)
   123b2: 08 eb        	sd	a0, 0x10(a4)
   123b4: 9c e5        	sd	a5, 0x8(a1)
   123b6: 98 e2        	sd	a4, 0x0(a3)
   123b8: 18 ed        	sd	a4, 0x18(a0)
   123ba: 42 64        	ld	s0, 0x10(sp)
   123bc: e2 60        	ld	ra, 0x18(sp)
   123be: 26 85        	mv	a0, s1
   123c0: a2 64        	ld	s1, 0x8(sp)
   123c2: 05 61        	addi	sp, sp, 0x20
   123c4: 79 a7        	j	0x12b52 <__malloc_unlock>
   123c6: 03 35 88 00  	ld	a0, 0x8(a6)
   123ca: 05 89        	andi	a0, a0, 0x1
   123cc: 2d c1        	beqz	a0, 0x1242e <_free_r+0x124>
   123ce: 93 e6 17 00  	ori	a3, a5, 0x1
   123d2: 23 3c d4 fe  	sd	a3, -0x8(s0)
   123d6: 1c e2        	sd	a5, 0x0(a2)
   123d8: 93 06 f0 1f  	li	a3, 0x1ff
   123dc: e3 f7 f6 fa  	bgeu	a3, a5, 0x1238a <_free_r+0x80>
   123e0: 93 d6 97 00  	srli	a3, a5, 0x9
   123e4: 11 46        	li	a2, 0x4
   123e6: 63 60 d6 0c  	bltu	a2, a3, 0x124a6 <_free_r+0x19c>
   123ea: 93 d6 67 00  	srli	a3, a5, 0x6
   123ee: 1b 85 96 03  	addiw	a0, a3, 0x39
   123f2: 1b 15 15 00  	slliw	a0, a0, 0x1
   123f6: 1b 86 86 03  	addiw	a2, a3, 0x38
   123fa: 0e 05        	slli	a0, a0, 0x3
   123fc: 2e 95        	add	a0, a0, a1
   123fe: 14 61        	ld	a3, 0x0(a0)
   12400: 41 15        	addi	a0, a0, -0x10
   12402: 63 16 d5 00  	bne	a0, a3, 0x1240e <_free_r+0x104>
   12406: dd a0        	j	0x124ec <_free_r+0x1e2>
   12408: 94 6a        	ld	a3, 0x10(a3)
   1240a: 63 06 d5 00  	beq	a0, a3, 0x12416 <_free_r+0x10c>
   1240e: 90 66        	ld	a2, 0x8(a3)
   12410: 71 9a        	andi	a2, a2, -0x4
   12412: e3 eb c7 fe  	bltu	a5, a2, 0x12408 <_free_r+0xfe>
   12416: 88 6e        	ld	a0, 0x18(a3)
   12418: 08 ef        	sd	a0, 0x18(a4)
   1241a: 14 eb        	sd	a3, 0x10(a4)
   1241c: 42 64        	ld	s0, 0x10(sp)
   1241e: 18 e9        	sd	a4, 0x10(a0)
   12420: e2 60        	ld	ra, 0x18(sp)
   12422: 26 85        	mv	a0, s1
   12424: a2 64        	ld	s1, 0x8(sp)
   12426: 98 ee        	sd	a4, 0x18(a3)
   12428: 05 61        	addi	sp, sp, 0x20
   1242a: 25 a7        	j	0x12b52 <__malloc_unlock>
   1242c: 82 80        	ret
   1242e: 5d 65        	lui	a0, 0x17
   12430: b6 97        	add	a5, a5, a3
   12432: 13 05 05 3a  	addi	a0, a0, 0x3a0
   12436: 14 6a        	ld	a3, 0x10(a2)
   12438: 63 80 a6 0a  	beq	a3, a0, 0x124d8 <_free_r+0x1ce>
   1243c: 03 38 86 01  	ld	a6, 0x18(a2)
   12440: 13 e5 17 00  	ori	a0, a5, 0x1
   12444: 33 06 f7 00  	add	a2, a4, a5
   12448: 23 bc 06 01  	sd	a6, 0x18(a3)
   1244c: 23 38 d8 00  	sd	a3, 0x10(a6)
   12450: 08 e7        	sd	a0, 0x8(a4)
   12452: 1c e2        	sd	a5, 0x0(a2)
   12454: 3d b7        	j	0x12382 <_free_r+0x78>
   12456: 63 17 08 0e  	bnez	a6, 0x12544 <_free_r+0x23a>
   1245a: 0c 6a        	ld	a1, 0x10(a2)
   1245c: 10 6e        	ld	a2, 0x18(a2)
   1245e: be 96        	add	a3, a3, a5
   12460: 93 e7 16 00  	ori	a5, a3, 0x1
   12464: 90 ed        	sd	a2, 0x18(a1)
   12466: 0c ea        	sd	a1, 0x10(a2)
   12468: 1c e7        	sd	a5, 0x8(a4)
   1246a: 36 97        	add	a4, a4, a3
   1246c: 14 e3        	sd	a3, 0x0(a4)
   1246e: b1 b7        	j	0x123ba <_free_r+0xb0>
   12470: 05 89        	andi	a0, a0, 0x1
   12472: be 96        	add	a3, a3, a5
   12474: 09 e9        	bnez	a0, 0x12486 <_free_r+0x17c>
   12476: 03 35 04 ff  	ld	a0, -0x10(s0)
   1247a: 09 8f        	sub	a4, a4, a0
   1247c: 1c 6f        	ld	a5, 0x18(a4)
   1247e: 10 6b        	ld	a2, 0x10(a4)
   12480: aa 96        	add	a3, a3, a0
   12482: 1c ee        	sd	a5, 0x18(a2)
   12484: 90 eb        	sd	a2, 0x10(a5)
   12486: 13 e6 16 00  	ori	a2, a3, 0x1
   1248a: 83 b7 81 19  	ld	a5, 0x198(gp)
   1248e: 10 e7        	sd	a2, 0x8(a4)
   12490: 98 e9        	sd	a4, 0x10(a1)
   12492: e3 e4 f6 f2  	bltu	a3, a5, 0x123ba <_free_r+0xb0>
   12496: 83 b5 81 1c  	ld	a1, 0x1c8(gp)
   1249a: 26 85        	mv	a0, s1
   1249c: ef f0 1f da  	jal	0x1223c <_malloc_trim_r>
   124a0: 29 bf        	j	0x123ba <_free_r+0xb0>
   124a2: b6 97        	add	a5, a5, a3
   124a4: 49 bf        	j	0x12436 <_free_r+0x12c>
   124a6: 51 46        	li	a2, 0x14
   124a8: 63 70 d6 02  	bgeu	a2, a3, 0x124c8 <_free_r+0x1be>
   124ac: 13 06 40 05  	li	a2, 0x54
   124b0: 63 69 d6 04  	bltu	a2, a3, 0x12502 <_free_r+0x1f8>
   124b4: 93 d6 c7 00  	srli	a3, a5, 0xc
   124b8: 1b 85 f6 06  	addiw	a0, a3, 0x6f
   124bc: 1b 15 15 00  	slliw	a0, a0, 0x1
   124c0: 1b 86 e6 06  	addiw	a2, a3, 0x6e
   124c4: 0e 05        	slli	a0, a0, 0x3
   124c6: 1d bf        	j	0x123fc <_free_r+0xf2>
   124c8: 1b 85 c6 05  	addiw	a0, a3, 0x5c
   124cc: 1b 15 15 00  	slliw	a0, a0, 0x1
   124d0: 1b 86 b6 05  	addiw	a2, a3, 0x5b
   124d4: 0e 05        	slli	a0, a0, 0x3
   124d6: 1d b7        	j	0x123fc <_free_r+0xf2>
   124d8: 98 f5        	sd	a4, 0x28(a1)
   124da: 98 f1        	sd	a4, 0x20(a1)
   124dc: 93 e6 17 00  	ori	a3, a5, 0x1
   124e0: 08 ef        	sd	a0, 0x18(a4)
   124e2: 08 eb        	sd	a0, 0x10(a4)
   124e4: 14 e7        	sd	a3, 0x8(a4)
   124e6: 3e 97        	add	a4, a4, a5
   124e8: 1c e3        	sd	a5, 0x0(a4)
   124ea: c1 bd        	j	0x123ba <_free_r+0xb0>
   124ec: 03 b8 85 00  	ld	a6, 0x8(a1)
   124f0: 1b 56 26 40  	sraiw	a2, a2, 0x2
   124f4: 85 47        	li	a5, 0x1
   124f6: b3 97 c7 00  	sll	a5, a5, a2
   124fa: b3 e7 07 01  	or	a5, a5, a6
   124fe: 9c e5        	sd	a5, 0x8(a1)
   12500: 21 bf        	j	0x12418 <_free_r+0x10e>
   12502: 13 06 40 15  	li	a2, 0x154
   12506: 63 6c d6 00  	bltu	a2, a3, 0x1251e <_free_r+0x214>
   1250a: 93 d6 f7 00  	srli	a3, a5, 0xf
   1250e: 1b 85 86 07  	addiw	a0, a3, 0x78
   12512: 1b 15 15 00  	slliw	a0, a0, 0x1
   12516: 1b 86 76 07  	addiw	a2, a3, 0x77
   1251a: 0e 05        	slli	a0, a0, 0x3
   1251c: c5 b5        	j	0x123fc <_free_r+0xf2>
   1251e: 13 06 40 55  	li	a2, 0x554
   12522: 63 6c d6 00  	bltu	a2, a3, 0x1253a <_free_r+0x230>
   12526: 93 d6 27 01  	srli	a3, a5, 0x12
   1252a: 1b 85 d6 07  	addiw	a0, a3, 0x7d
   1252e: 1b 15 15 00  	slliw	a0, a0, 0x1
   12532: 1b 86 c6 07  	addiw	a2, a3, 0x7c
   12536: 0e 05        	slli	a0, a0, 0x3
   12538: d1 b5        	j	0x123fc <_free_r+0xf2>
   1253a: 13 05 00 7f  	li	a0, 0x7f0
   1253e: 13 06 e0 07  	li	a2, 0x7e
   12542: 6d bd        	j	0x123fc <_free_r+0xf2>
   12544: 93 e6 17 00  	ori	a3, a5, 0x1
   12548: 14 e7        	sd	a3, 0x8(a4)
   1254a: 1c e2        	sd	a5, 0x0(a2)
   1254c: bd b5        	j	0x123ba <_free_r+0xb0>

000000000001254e <_malloc_r>:
   1254e: 1d 71        	addi	sp, sp, -0x60
   12550: a6 e4        	sd	s1, 0x48(sp)
   12552: ca e0        	sd	s2, 0x40(sp)
   12554: 86 ec        	sd	ra, 0x58(sp)
   12556: a2 e8        	sd	s0, 0x50(sp)
   12558: 4e fc        	sd	s3, 0x38(sp)
   1255a: 93 84 75 01  	addi	s1, a1, 0x17
   1255e: 93 07 e0 02  	li	a5, 0x2e
   12562: 2a 89        	mv	s2, a0
   12564: 63 ed 97 04  	bltu	a5, s1, 0x125be <_malloc_r+0x70>
   12568: 93 07 00 02  	li	a5, 0x20
   1256c: 63 e9 b7 18  	bltu	a5, a1, 0x126fe <_malloc_r+0x1b0>
   12570: ef 00 00 5e  	jal	0x12b50 <__malloc_lock>
   12574: 93 07 00 05  	li	a5, 0x50
   12578: 91 45        	li	a1, 0x4
   1257a: 93 04 00 02  	li	s1, 0x20
   1257e: dd 69        	lui	s3, 0x17
   12580: 93 89 09 39  	addi	s3, s3, 0x390
   12584: ce 97        	add	a5, a5, s3
   12586: 80 67        	ld	s0, 0x8(a5)
   12588: 13 87 07 ff  	addi	a4, a5, -0x10
   1258c: 63 0d e4 26  	beq	s0, a4, 0x12806 <_malloc_r+0x2b8>
   12590: 1c 64        	ld	a5, 0x8(s0)
   12592: 14 6c        	ld	a3, 0x18(s0)
   12594: 10 68        	ld	a2, 0x10(s0)
   12596: f1 9b        	andi	a5, a5, -0x4
   12598: a2 97        	add	a5, a5, s0
   1259a: 98 67        	ld	a4, 0x8(a5)
   1259c: 14 ee        	sd	a3, 0x18(a2)
   1259e: 90 ea        	sd	a2, 0x10(a3)
   125a0: 13 67 17 00  	ori	a4, a4, 0x1
   125a4: 4a 85        	mv	a0, s2
   125a6: 98 e7        	sd	a4, 0x8(a5)
   125a8: ef 00 a0 5a  	jal	0x12b52 <__malloc_unlock>
   125ac: 13 05 04 01  	addi	a0, s0, 0x10
   125b0: e6 60        	ld	ra, 0x58(sp)
   125b2: 46 64        	ld	s0, 0x50(sp)
   125b4: a6 64        	ld	s1, 0x48(sp)
   125b6: 06 69        	ld	s2, 0x40(sp)
   125b8: e2 79        	ld	s3, 0x38(sp)
   125ba: 25 61        	addi	sp, sp, 0x60
   125bc: 82 80        	ret
   125be: b7 07 00 80  	lui	a5, 0x80000
   125c2: c1 98        	andi	s1, s1, -0x10
   125c4: 93 c7 f7 ff  	not	a5, a5
   125c8: 63 eb 97 12  	bltu	a5, s1, 0x126fe <_malloc_r+0x1b0>
   125cc: 63 e9 b4 12  	bltu	s1, a1, 0x126fe <_malloc_r+0x1b0>
   125d0: ef 00 00 58  	jal	0x12b50 <__malloc_lock>
   125d4: 93 07 70 1f  	li	a5, 0x1f7
   125d8: 63 f2 97 32  	bgeu	a5, s1, 0x128fc <_malloc_r+0x3ae>
   125dc: 93 d7 94 00  	srli	a5, s1, 0x9
   125e0: 63 84 07 12  	beqz	a5, 0x12708 <_malloc_r+0x1ba>
   125e4: 11 47        	li	a4, 0x4
   125e6: 63 67 f7 26  	bltu	a4, a5, 0x12854 <_malloc_r+0x306>
   125ea: 93 d7 64 00  	srli	a5, s1, 0x6
   125ee: 9b 85 97 03  	addiw	a1, a5, 0x39
   125f2: 1b 96 15 00  	slliw	a2, a1, 0x1
   125f6: 1b 88 87 03  	addiw	a6, a5, 0x38
   125fa: 0e 06        	slli	a2, a2, 0x3
   125fc: dd 69        	lui	s3, 0x17
   125fe: 93 89 09 39  	addi	s3, s3, 0x390
   12602: 4e 96        	add	a2, a2, s3
   12604: 00 66        	ld	s0, 0x8(a2)
   12606: 41 16        	addi	a2, a2, -0x10
   12608: 63 01 86 02  	beq	a2, s0, 0x1262a <_malloc_r+0xdc>
   1260c: 7d 45        	li	a0, 0x1f
   1260e: 39 a0        	j	0x1261c <_malloc_r+0xce>
   12610: 14 6c        	ld	a3, 0x18(s0)
   12612: 63 58 07 1e  	bgez	a4, 0x12802 <_malloc_r+0x2b4>
   12616: 63 0a d6 00  	beq	a2, a3, 0x1262a <_malloc_r+0xdc>
   1261a: 36 84        	mv	s0, a3
   1261c: 1c 64        	ld	a5, 0x8(s0)
   1261e: f1 9b        	andi	a5, a5, -0x4
   12620: 33 87 97 40  	sub	a4, a5, s1
   12624: e3 56 e5 fe  	bge	a0, a4, 0x12610 <_malloc_r+0xc2>
   12628: c2 85        	mv	a1, a6
   1262a: 03 b4 09 02  	ld	s0, 0x20(s3)
   1262e: 5d 68        	lui	a6, 0x17
   12630: 13 08 08 3a  	addi	a6, a6, 0x3a0
   12634: 63 04 04 1d  	beq	s0, a6, 0x127fc <_malloc_r+0x2ae>
   12638: 1c 64        	ld	a5, 0x8(s0)
   1263a: fd 46        	li	a3, 0x1f
   1263c: f1 9b        	andi	a5, a5, -0x4
   1263e: 33 87 97 40  	sub	a4, a5, s1
   12642: 63 c6 e6 28  	blt	a3, a4, 0x128ce <_malloc_r+0x380>
   12646: 23 b4 09 03  	sd	a6, 0x28(s3)
   1264a: 23 b0 09 03  	sd	a6, 0x20(s3)
   1264e: 63 55 07 26  	bgez	a4, 0x128b8 <_malloc_r+0x36a>
   12652: 13 07 f0 1f  	li	a4, 0x1ff
   12656: 03 b5 89 00  	ld	a0, 0x8(s3)
   1265a: 63 6b f7 1a  	bltu	a4, a5, 0x12810 <_malloc_r+0x2c2>
   1265e: 8d 83        	srli	a5, a5, 0x3
   12660: 1b 87 17 00  	addiw	a4, a5, 0x1
   12664: 1b 17 17 00  	slliw	a4, a4, 0x1
   12668: 0e 07        	slli	a4, a4, 0x3
   1266a: 4e 97        	add	a4, a4, s3
   1266c: 10 63        	ld	a2, 0x0(a4)
   1266e: 9b d7 27 40  	sraiw	a5, a5, 0x2
   12672: 85 46        	li	a3, 0x1
   12674: b3 97 f6 00  	sll	a5, a3, a5
   12678: 5d 8d        	or	a0, a0, a5
   1267a: 93 07 07 ff  	addi	a5, a4, -0x10
   1267e: 1c ec        	sd	a5, 0x18(s0)
   12680: 10 e8        	sd	a2, 0x10(s0)
   12682: 23 b4 a9 00  	sd	a0, 0x8(s3)
   12686: 00 e3        	sd	s0, 0x0(a4)
   12688: 00 ee        	sd	s0, 0x18(a2)
   1268a: 9b d7 25 40  	sraiw	a5, a1, 0x2
   1268e: 05 46        	li	a2, 0x1
   12690: 33 16 f6 00  	sll	a2, a2, a5
   12694: 63 61 c5 08  	bltu	a0, a2, 0x12716 <_malloc_r+0x1c8>
   12698: b3 77 a6 00  	and	a5, a2, a0
   1269c: 81 ef        	bnez	a5, 0x126b4 <_malloc_r+0x166>
   1269e: 06 06        	slli	a2, a2, 0x1
   126a0: f1 99        	andi	a1, a1, -0x4
   126a2: b3 77 a6 00  	and	a5, a2, a0
   126a6: 91 25        	addiw	a1, a1, 0x4
   126a8: 91 e7        	bnez	a5, 0x126b4 <_malloc_r+0x166>
   126aa: 06 06        	slli	a2, a2, 0x1
   126ac: b3 77 a6 00  	and	a5, a2, a0
   126b0: 91 25        	addiw	a1, a1, 0x4
   126b2: e5 df        	beqz	a5, 0x126aa <_malloc_r+0x15c>
   126b4: fd 48        	li	a7, 0x1f
   126b6: 1b 83 15 00  	addiw	t1, a1, 0x1
   126ba: 1b 13 13 00  	slliw	t1, t1, 0x1
   126be: 0e 03        	slli	t1, t1, 0x3
   126c0: 41 13        	addi	t1, t1, -0x10
   126c2: 4e 93        	add	t1, t1, s3
   126c4: 1a 85        	mv	a0, t1
   126c6: 1c 6d        	ld	a5, 0x18(a0)
   126c8: 2e 8e        	mv	t3, a1
   126ca: 63 06 f5 1a  	beq	a0, a5, 0x12876 <_malloc_r+0x328>
   126ce: 98 67        	ld	a4, 0x8(a5)
   126d0: 3e 84        	mv	s0, a5
   126d2: 9c 6f        	ld	a5, 0x18(a5)
   126d4: 71 9b        	andi	a4, a4, -0x4
   126d6: b3 06 97 40  	sub	a3, a4, s1
   126da: 63 c5 d8 1a  	blt	a7, a3, 0x12884 <_malloc_r+0x336>
   126de: e3 c6 06 fe  	bltz	a3, 0x126ca <_malloc_r+0x17c>
   126e2: 22 97        	add	a4, a4, s0
   126e4: 14 67        	ld	a3, 0x8(a4)
   126e6: 10 68        	ld	a2, 0x10(s0)
   126e8: 4a 85        	mv	a0, s2
   126ea: 93 e6 16 00  	ori	a3, a3, 0x1
   126ee: 14 e7        	sd	a3, 0x8(a4)
   126f0: 1c ee        	sd	a5, 0x18(a2)
   126f2: 90 eb        	sd	a2, 0x10(a5)
   126f4: ef 00 e0 45  	jal	0x12b52 <__malloc_unlock>
   126f8: 13 05 04 01  	addi	a0, s0, 0x10
   126fc: 55 bd        	j	0x125b0 <_malloc_r+0x62>
   126fe: b1 47        	li	a5, 0xc
   12700: 23 20 f9 00  	sw	a5, 0x0(s2)
   12704: 01 45        	li	a0, 0x0
   12706: 6d b5        	j	0x125b0 <_malloc_r+0x62>
   12708: 13 06 00 40  	li	a2, 0x400
   1270c: 93 05 00 04  	li	a1, 0x40
   12710: 13 08 f0 03  	li	a6, 0x3f
   12714: e5 b5        	j	0x125fc <_malloc_r+0xae>
   12716: 03 b4 09 01  	ld	s0, 0x10(s3)
   1271a: 56 f4        	sd	s5, 0x28(sp)
   1271c: 1c 64        	ld	a5, 0x8(s0)
   1271e: 93 fa c7 ff  	andi	s5, a5, -0x4
   12722: 63 e7 9a 00  	bltu	s5, s1, 0x12730 <_malloc_r+0x1e2>
   12726: 33 87 9a 40  	sub	a4, s5, s1
   1272a: fd 47        	li	a5, 0x1f
   1272c: 63 c2 e7 0a  	blt	a5, a4, 0x127d0 <_malloc_r+0x282>
   12730: 66 e4        	sd	s9, 0x8(sp)
   12732: 52 f8        	sd	s4, 0x30(sp)
   12734: 03 b7 01 19  	ld	a4, 0x190(gp)
   12738: 03 ba 81 1c  	ld	s4, 0x1c8(gp)
   1273c: 62 e8        	sd	s8, 0x10(sp)
   1273e: 5a f0        	sd	s6, 0x20(sp)
   12740: fd 57        	li	a5, -0x1
   12742: 33 0c 54 01  	add	s8, s0, s5
   12746: 26 9a        	add	s4, s4, s1
   12748: 63 08 f7 2e  	beq	a4, a5, 0x12a38 <_malloc_r+0x4ea>
   1274c: 85 67        	lui	a5, 0x1
   1274e: fd 07        	addi	a5, a5, 0x1f
   12750: 3e 9a        	add	s4, s4, a5
   12752: fd 77        	lui	a5, 0xfffff
   12754: 33 7a fa 00  	and	s4, s4, a5
   12758: d2 85        	mv	a1, s4
   1275a: 4a 85        	mv	a0, s2
   1275c: ef 00 30 6a  	jal	0x135fe <_sbrk_r>
   12760: fd 57        	li	a5, -0x1
   12762: 2a 8b        	mv	s6, a0
   12764: 63 00 f5 36  	beq	a0, a5, 0x12ac4 <_malloc_r+0x576>
   12768: 5e ec        	sd	s7, 0x18(sp)
   1276a: 63 6c 85 1b  	bltu	a0, s8, 0x12922 <_malloc_r+0x3d4>
   1276e: 93 8b 01 42  	addi	s7, gp, 0x420
   12772: 83 a7 0b 00  	lw	a5, 0x0(s7)
   12776: 3b 87 47 01  	addw	a4, a5, s4
   1277a: 23 a0 eb 00  	sw	a4, 0x0(s7)
   1277e: ba 86        	mv	a3, a4
   12780: 63 17 ac 20  	bne	s8, a0, 0x1298e <_malloc_r+0x440>
   12784: 93 17 45 03  	slli	a5, a0, 0x34
   12788: 63 93 07 20  	bnez	a5, 0x1298e <_malloc_r+0x440>
   1278c: 03 bb 09 01  	ld	s6, 0x10(s3)
   12790: b3 87 4a 01  	add	a5, s5, s4
   12794: 93 e7 17 00  	ori	a5, a5, 0x1
   12798: 23 34 fb 00  	sd	a5, 0x8(s6)
   1279c: 03 b6 01 1c  	ld	a2, 0x1c0(gp)
   127a0: 63 74 e6 00  	bgeu	a2, a4, 0x127a8 <_malloc_r+0x25a>
   127a4: 23 b0 e1 1c  	sd	a4, 0x1c0(gp)
   127a8: 03 b6 81 1b  	ld	a2, 0x1b8(gp)
   127ac: 63 74 e6 00  	bgeu	a2, a4, 0x127b4 <_malloc_r+0x266>
   127b0: 23 bc e1 1a  	sd	a4, 0x1b8(gp)
   127b4: e2 6b        	ld	s7, 0x18(sp)
   127b6: 5a 84        	mv	s0, s6
   127b8: f1 9b        	andi	a5, a5, -0x4
   127ba: 33 87 97 40  	sub	a4, a5, s1
   127be: 63 ed 97 2a  	bltu	a5, s1, 0x12a78 <_malloc_r+0x52a>
   127c2: fd 47        	li	a5, 0x1f
   127c4: 63 da e7 2a  	bge	a5, a4, 0x12a78 <_malloc_r+0x52a>
   127c8: 42 7a        	ld	s4, 0x30(sp)
   127ca: 02 7b        	ld	s6, 0x20(sp)
   127cc: 42 6c        	ld	s8, 0x10(sp)
   127ce: a2 6c        	ld	s9, 0x8(sp)
   127d0: 93 e7 14 00  	ori	a5, s1, 0x1
   127d4: 1c e4        	sd	a5, 0x8(s0)
   127d6: a2 94        	add	s1, s1, s0
   127d8: 23 b8 99 00  	sd	s1, 0x10(s3)
   127dc: 13 67 17 00  	ori	a4, a4, 0x1
   127e0: 4a 85        	mv	a0, s2
   127e2: 98 e4        	sd	a4, 0x8(s1)
   127e4: ef 00 e0 36  	jal	0x12b52 <__malloc_unlock>
   127e8: e6 60        	ld	ra, 0x58(sp)
   127ea: 13 05 04 01  	addi	a0, s0, 0x10
   127ee: 46 64        	ld	s0, 0x50(sp)
   127f0: a2 7a        	ld	s5, 0x28(sp)
   127f2: a6 64        	ld	s1, 0x48(sp)
   127f4: 06 69        	ld	s2, 0x40(sp)
   127f6: e2 79        	ld	s3, 0x38(sp)
   127f8: 25 61        	addi	sp, sp, 0x60
   127fa: 82 80        	ret
   127fc: 03 b5 89 00  	ld	a0, 0x8(s3)
   12800: 69 b5        	j	0x1268a <_malloc_r+0x13c>
   12802: 10 68        	ld	a2, 0x10(s0)
   12804: 51 bb        	j	0x12598 <_malloc_r+0x4a>
   12806: 80 6f        	ld	s0, 0x18(a5)
   12808: 89 25        	addiw	a1, a1, 0x2
   1280a: e3 80 87 e2  	beq	a5, s0, 0x1262a <_malloc_r+0xdc>
   1280e: 49 b3        	j	0x12590 <_malloc_r+0x42>
   12810: 13 d7 97 00  	srli	a4, a5, 0x9
   12814: 91 46        	li	a3, 0x4
   12816: 63 fc e6 0e  	bgeu	a3, a4, 0x1290e <_malloc_r+0x3c0>
   1281a: d1 46        	li	a3, 0x14
   1281c: 63 e8 e6 26  	bltu	a3, a4, 0x12a8c <_malloc_r+0x53e>
   12820: 1b 06 c7 05  	addiw	a2, a4, 0x5c
   12824: 1b 16 16 00  	slliw	a2, a2, 0x1
   12828: 9b 06 b7 05  	addiw	a3, a4, 0x5b
   1282c: 0e 06        	slli	a2, a2, 0x3
   1282e: 4e 96        	add	a2, a2, s3
   12830: 18 62        	ld	a4, 0x0(a2)
   12832: 41 16        	addi	a2, a2, -0x10
   12834: 63 16 e6 00  	bne	a2, a4, 0x12840 <_malloc_r+0x2f2>
   12838: 19 a4        	j	0x12a3e <_malloc_r+0x4f0>
   1283a: 18 6b        	ld	a4, 0x10(a4)
   1283c: 63 06 e6 00  	beq	a2, a4, 0x12848 <_malloc_r+0x2fa>
   12840: 14 67        	ld	a3, 0x8(a4)
   12842: f1 9a        	andi	a3, a3, -0x4
   12844: e3 eb d7 fe  	bltu	a5, a3, 0x1283a <_malloc_r+0x2ec>
   12848: 10 6f        	ld	a2, 0x18(a4)
   1284a: 10 ec        	sd	a2, 0x18(s0)
   1284c: 18 e8        	sd	a4, 0x10(s0)
   1284e: 00 ea        	sd	s0, 0x10(a2)
   12850: 00 ef        	sd	s0, 0x18(a4)
   12852: 25 bd        	j	0x1268a <_malloc_r+0x13c>
   12854: 51 47        	li	a4, 0x14
   12856: 63 7d f7 0c  	bgeu	a4, a5, 0x12930 <_malloc_r+0x3e2>
   1285a: 13 07 40 05  	li	a4, 0x54
   1285e: 63 65 f7 24  	bltu	a4, a5, 0x12aa8 <_malloc_r+0x55a>
   12862: 93 d7 c4 00  	srli	a5, s1, 0xc
   12866: 9b 85 f7 06  	addiw	a1, a5, 0x6f
   1286a: 1b 96 15 00  	slliw	a2, a1, 0x1
   1286e: 1b 88 e7 06  	addiw	a6, a5, 0x6e
   12872: 0e 06        	slli	a2, a2, 0x3
   12874: 61 b3        	j	0x125fc <_malloc_r+0xae>
   12876: 05 2e        	addiw	t3, t3, 0x1
   12878: 93 77 3e 00  	andi	a5, t3, 0x3
   1287c: 41 05        	addi	a0, a0, 0x10
   1287e: f1 c7        	beqz	a5, 0x1294a <_malloc_r+0x3fc>
   12880: 1c 6d        	ld	a5, 0x18(a0)
   12882: a1 b5        	j	0x126ca <_malloc_r+0x17c>
   12884: 10 68        	ld	a2, 0x10(s0)
   12886: 93 e5 14 00  	ori	a1, s1, 0x1
   1288a: 0c e4        	sd	a1, 0x8(s0)
   1288c: 1c ee        	sd	a5, 0x18(a2)
   1288e: 90 eb        	sd	a2, 0x10(a5)
   12890: a2 94        	add	s1, s1, s0
   12892: 23 b4 99 02  	sd	s1, 0x28(s3)
   12896: 23 b0 99 02  	sd	s1, 0x20(s3)
   1289a: 93 e7 16 00  	ori	a5, a3, 0x1
   1289e: 23 bc 04 01  	sd	a6, 0x18(s1)
   128a2: 23 b8 04 01  	sd	a6, 0x10(s1)
   128a6: 9c e4        	sd	a5, 0x8(s1)
   128a8: 22 97        	add	a4, a4, s0
   128aa: 4a 85        	mv	a0, s2
   128ac: 14 e3        	sd	a3, 0x0(a4)
   128ae: ef 00 40 2a  	jal	0x12b52 <__malloc_unlock>
   128b2: 13 05 04 01  	addi	a0, s0, 0x10
   128b6: ed b9        	j	0x125b0 <_malloc_r+0x62>
   128b8: a2 97        	add	a5, a5, s0
   128ba: 98 67        	ld	a4, 0x8(a5)
   128bc: 4a 85        	mv	a0, s2
   128be: 13 67 17 00  	ori	a4, a4, 0x1
   128c2: 98 e7        	sd	a4, 0x8(a5)
   128c4: ef 00 e0 28  	jal	0x12b52 <__malloc_unlock>
   128c8: 13 05 04 01  	addi	a0, s0, 0x10
   128cc: d5 b1        	j	0x125b0 <_malloc_r+0x62>
   128ce: 93 e6 14 00  	ori	a3, s1, 0x1
   128d2: 14 e4        	sd	a3, 0x8(s0)
   128d4: a2 94        	add	s1, s1, s0
   128d6: 23 b4 99 02  	sd	s1, 0x28(s3)
   128da: 23 b0 99 02  	sd	s1, 0x20(s3)
   128de: 93 66 17 00  	ori	a3, a4, 0x1
   128e2: 23 bc 04 01  	sd	a6, 0x18(s1)
   128e6: 23 b8 04 01  	sd	a6, 0x10(s1)
   128ea: 94 e4        	sd	a3, 0x8(s1)
   128ec: a2 97        	add	a5, a5, s0
   128ee: 4a 85        	mv	a0, s2
   128f0: 98 e3        	sd	a4, 0x0(a5)
   128f2: ef 00 00 26  	jal	0x12b52 <__malloc_unlock>
   128f6: 13 05 04 01  	addi	a0, s0, 0x10
   128fa: 5d b9        	j	0x125b0 <_malloc_r+0x62>
   128fc: 93 d5 34 00  	srli	a1, s1, 0x3
   12900: 9b 87 15 00  	addiw	a5, a1, 0x1
   12904: 9b 97 17 00  	slliw	a5, a5, 0x1
   12908: 81 25        	sext.w	a1, a1
   1290a: 8e 07        	slli	a5, a5, 0x3
   1290c: 8d b9        	j	0x1257e <_malloc_r+0x30>
   1290e: 13 d7 67 00  	srli	a4, a5, 0x6
   12912: 1b 06 97 03  	addiw	a2, a4, 0x39
   12916: 1b 16 16 00  	slliw	a2, a2, 0x1
   1291a: 9b 06 87 03  	addiw	a3, a4, 0x38
   1291e: 0e 06        	slli	a2, a2, 0x3
   12920: 39 b7        	j	0x1282e <_malloc_r+0x2e0>
   12922: 63 0e 34 05  	beq	s0, s3, 0x1297e <_malloc_r+0x430>
   12926: 03 b4 09 01  	ld	s0, 0x10(s3)
   1292a: e2 6b        	ld	s7, 0x18(sp)
   1292c: 1c 64        	ld	a5, 0x8(s0)
   1292e: 69 b5        	j	0x127b8 <_malloc_r+0x26a>
   12930: 9b 85 c7 05  	addiw	a1, a5, 0x5c
   12934: 1b 96 15 00  	slliw	a2, a1, 0x1
   12938: 1b 88 b7 05  	addiw	a6, a5, 0x5b
   1293c: 0e 06        	slli	a2, a2, 0x3
   1293e: 7d b9        	j	0x125fc <_malloc_r+0xae>
   12940: 83 37 03 01  	ld	a5, 0x10(t1)
   12944: fd 35        	addiw	a1, a1, -0x1
   12946: 63 92 67 20  	bne	a5, t1, 0x12b4a <_malloc_r+0x5fc>
   1294a: 93 f7 35 00  	andi	a5, a1, 0x3
   1294e: 41 13        	addi	t1, t1, -0x10
   12950: e5 fb        	bnez	a5, 0x12940 <_malloc_r+0x3f2>
   12952: 03 b7 89 00  	ld	a4, 0x8(s3)
   12956: 93 47 f6 ff  	not	a5, a2
   1295a: f9 8f        	and	a5, a5, a4
   1295c: 23 b4 f9 00  	sd	a5, 0x8(s3)
   12960: 06 06        	slli	a2, a2, 0x1
   12962: e3 ea c7 da  	bltu	a5, a2, 0x12716 <_malloc_r+0x1c8>
   12966: e3 08 06 da  	beqz	a2, 0x12716 <_malloc_r+0x1c8>
   1296a: 33 77 f6 00  	and	a4, a2, a5
   1296e: 11 e7        	bnez	a4, 0x1297a <_malloc_r+0x42c>
   12970: 06 06        	slli	a2, a2, 0x1
   12972: 33 77 f6 00  	and	a4, a2, a5
   12976: 11 2e        	addiw	t3, t3, 0x4
   12978: 65 df        	beqz	a4, 0x12970 <_malloc_r+0x422>
   1297a: f2 85        	mv	a1, t3
   1297c: 2d bb        	j	0x126b6 <_malloc_r+0x168>
   1297e: 93 8b 01 42  	addi	s7, gp, 0x420
   12982: 83 a7 0b 00  	lw	a5, 0x0(s7)
   12986: bb 86 47 01  	addw	a3, a5, s4
   1298a: 23 a0 db 00  	sw	a3, 0x0(s7)
   1298e: 03 b7 01 19  	ld	a4, 0x190(gp)
   12992: fd 57        	li	a5, -0x1
   12994: 63 0c f7 12  	beq	a4, a5, 0x12acc <_malloc_r+0x57e>
   12998: b3 07 8b 41  	sub	a5, s6, s8
   1299c: b5 9f        	addw	a5, a5, a3
   1299e: 23 a0 fb 00  	sw	a5, 0x0(s7)
   129a2: 93 7c fb 00  	andi	s9, s6, 0xf
   129a6: 63 85 0c 0a  	beqz	s9, 0x12a50 <_malloc_r+0x502>
   129aa: 33 0b 9b 41  	sub	s6, s6, s9
   129ae: 05 67        	lui	a4, 0x1
   129b0: 41 07        	addi	a4, a4, 0x10
   129b2: 41 0b        	addi	s6, s6, 0x10
   129b4: 33 0c 97 41  	sub	s8, a4, s9
   129b8: 5a 9a        	add	s4, s4, s6
   129ba: 33 0c 4c 41  	sub	s8, s8, s4
   129be: 52 1c        	slli	s8, s8, 0x34
   129c0: 13 5c 4c 03  	srli	s8, s8, 0x34
   129c4: e2 85        	mv	a1, s8
   129c6: 4a 85        	mv	a0, s2
   129c8: ef 00 70 43  	jal	0x135fe <_sbrk_r>
   129cc: fd 57        	li	a5, -0x1
   129ce: 63 0e f5 12  	beq	a0, a5, 0x12b0a <_malloc_r+0x5bc>
   129d2: 33 05 65 41  	sub	a0, a0, s6
   129d6: 9b 06 0c 00  	sext.w	a3, s8
   129da: 33 0a 85 01  	add	s4, a0, s8
   129de: 03 a7 0b 00  	lw	a4, 0x0(s7)
   129e2: 23 b8 69 01  	sd	s6, 0x10(s3)
   129e6: 93 67 1a 00  	ori	a5, s4, 0x1
   129ea: 35 9f        	addw	a4, a4, a3
   129ec: 23 a0 eb 00  	sw	a4, 0x0(s7)
   129f0: 23 34 fb 00  	sd	a5, 0x8(s6)
   129f4: e3 04 34 db  	beq	s0, s3, 0x1279c <_malloc_r+0x24e>
   129f8: 7d 46        	li	a2, 0x1f
   129fa: 63 7b 56 07  	bgeu	a2, s5, 0x12a70 <_malloc_r+0x522>
   129fe: 14 64        	ld	a3, 0x8(s0)
   12a00: 93 87 8a fe  	addi	a5, s5, -0x18
   12a04: c1 9b        	andi	a5, a5, -0x10
   12a06: 85 8a        	andi	a3, a3, 0x1
   12a08: dd 8e        	or	a3, a3, a5
   12a0a: 14 e4        	sd	a3, 0x8(s0)
   12a0c: a5 45        	li	a1, 0x9
   12a0e: b3 06 f4 00  	add	a3, s0, a5
   12a12: 8c e6        	sd	a1, 0x8(a3)
   12a14: 8c ea        	sd	a1, 0x10(a3)
   12a16: 63 65 f6 00  	bltu	a2, a5, 0x12a20 <_malloc_r+0x4d2>
   12a1a: 83 37 8b 00  	ld	a5, 0x8(s6)
   12a1e: bd bb        	j	0x1279c <_malloc_r+0x24e>
   12a20: 93 05 04 01  	addi	a1, s0, 0x10
   12a24: 4a 85        	mv	a0, s2
   12a26: ef f0 5f 8e  	jal	0x1230a <_free_r>
   12a2a: 03 bb 09 01  	ld	s6, 0x10(s3)
   12a2e: 03 a7 0b 00  	lw	a4, 0x0(s7)
   12a32: 83 37 8b 00  	ld	a5, 0x8(s6)
   12a36: 9d b3        	j	0x1279c <_malloc_r+0x24e>
   12a38: 13 0a 0a 02  	addi	s4, s4, 0x20
   12a3c: 31 bb        	j	0x12758 <_malloc_r+0x20a>
   12a3e: 9b d6 26 40  	sraiw	a3, a3, 0x2
   12a42: 85 47        	li	a5, 0x1
   12a44: b3 97 d7 00  	sll	a5, a5, a3
   12a48: 5d 8d        	or	a0, a0, a5
   12a4a: 23 b4 a9 00  	sd	a0, 0x8(s3)
   12a4e: f5 bb        	j	0x1284a <_malloc_r+0x2fc>
   12a50: 33 0c 4b 01  	add	s8, s6, s4
   12a54: 33 0c 80 41  	neg	s8, s8
   12a58: 52 1c        	slli	s8, s8, 0x34
   12a5a: 13 5c 4c 03  	srli	s8, s8, 0x34
   12a5e: e2 85        	mv	a1, s8
   12a60: 4a 85        	mv	a0, s2
   12a62: ef 00 d0 39  	jal	0x135fe <_sbrk_r>
   12a66: fd 57        	li	a5, -0x1
   12a68: 81 46        	li	a3, 0x0
   12a6a: e3 14 f5 f6  	bne	a0, a5, 0x129d2 <_malloc_r+0x484>
   12a6e: 85 bf        	j	0x129de <_malloc_r+0x490>
   12a70: e2 6b        	ld	s7, 0x18(sp)
   12a72: 85 47        	li	a5, 0x1
   12a74: 23 34 fb 00  	sd	a5, 0x8(s6)
   12a78: 4a 85        	mv	a0, s2
   12a7a: ef 00 80 0d  	jal	0x12b52 <__malloc_unlock>
   12a7e: 01 45        	li	a0, 0x0
   12a80: 42 7a        	ld	s4, 0x30(sp)
   12a82: a2 7a        	ld	s5, 0x28(sp)
   12a84: 02 7b        	ld	s6, 0x20(sp)
   12a86: 42 6c        	ld	s8, 0x10(sp)
   12a88: a2 6c        	ld	s9, 0x8(sp)
   12a8a: 1d b6        	j	0x125b0 <_malloc_r+0x62>
   12a8c: 93 06 40 05  	li	a3, 0x54
   12a90: 63 e1 e6 04  	bltu	a3, a4, 0x12ad2 <_malloc_r+0x584>
   12a94: 13 d7 c7 00  	srli	a4, a5, 0xc
   12a98: 1b 06 f7 06  	addiw	a2, a4, 0x6f
   12a9c: 1b 16 16 00  	slliw	a2, a2, 0x1
   12aa0: 9b 06 e7 06  	addiw	a3, a4, 0x6e
   12aa4: 0e 06        	slli	a2, a2, 0x3
   12aa6: 61 b3        	j	0x1282e <_malloc_r+0x2e0>
   12aa8: 13 07 40 15  	li	a4, 0x154
   12aac: 63 61 f7 04  	bltu	a4, a5, 0x12aee <_malloc_r+0x5a0>
   12ab0: 93 d7 f4 00  	srli	a5, s1, 0xf
   12ab4: 9b 85 87 07  	addiw	a1, a5, 0x78
   12ab8: 1b 96 15 00  	slliw	a2, a1, 0x1
   12abc: 1b 88 77 07  	addiw	a6, a5, 0x77
   12ac0: 0e 06        	slli	a2, a2, 0x3
   12ac2: 2d be        	j	0x125fc <_malloc_r+0xae>
   12ac4: 03 b4 09 01  	ld	s0, 0x10(s3)
   12ac8: 1c 64        	ld	a5, 0x8(s0)
   12aca: fd b1        	j	0x127b8 <_malloc_r+0x26a>
   12acc: 23 b8 61 19  	sd	s6, 0x190(gp)
   12ad0: c9 bd        	j	0x129a2 <_malloc_r+0x454>
   12ad2: 93 06 40 15  	li	a3, 0x154
   12ad6: 63 e0 e6 04  	bltu	a3, a4, 0x12b16 <_malloc_r+0x5c8>
   12ada: 13 d7 f7 00  	srli	a4, a5, 0xf
   12ade: 1b 06 87 07  	addiw	a2, a4, 0x78
   12ae2: 1b 16 16 00  	slliw	a2, a2, 0x1
   12ae6: 9b 06 77 07  	addiw	a3, a4, 0x77
   12aea: 0e 06        	slli	a2, a2, 0x3
   12aec: 89 b3        	j	0x1282e <_malloc_r+0x2e0>
   12aee: 13 07 40 55  	li	a4, 0x554
   12af2: 63 60 f7 04  	bltu	a4, a5, 0x12b32 <_malloc_r+0x5e4>
   12af6: 93 d7 24 01  	srli	a5, s1, 0x12
   12afa: 9b 85 d7 07  	addiw	a1, a5, 0x7d
   12afe: 1b 96 15 00  	slliw	a2, a1, 0x1
   12b02: 1b 88 c7 07  	addiw	a6, a5, 0x7c
   12b06: 0e 06        	slli	a2, a2, 0x3
   12b08: d5 bc        	j	0x125fc <_malloc_r+0xae>
   12b0a: c1 1c        	addi	s9, s9, -0x10
   12b0c: 66 9a        	add	s4, s4, s9
   12b0e: 33 0a 6a 41  	sub	s4, s4, s6
   12b12: 81 46        	li	a3, 0x0
   12b14: e9 b5        	j	0x129de <_malloc_r+0x490>
   12b16: 93 06 40 55  	li	a3, 0x554
   12b1a: 63 e3 e6 02  	bltu	a3, a4, 0x12b40 <_malloc_r+0x5f2>
   12b1e: 13 d7 27 01  	srli	a4, a5, 0x12
   12b22: 1b 06 d7 07  	addiw	a2, a4, 0x7d
   12b26: 1b 16 16 00  	slliw	a2, a2, 0x1
   12b2a: 9b 06 c7 07  	addiw	a3, a4, 0x7c
   12b2e: 0e 06        	slli	a2, a2, 0x3
   12b30: fd b9        	j	0x1282e <_malloc_r+0x2e0>
   12b32: 13 06 00 7f  	li	a2, 0x7f0
   12b36: 93 05 f0 07  	li	a1, 0x7f
   12b3a: 13 08 e0 07  	li	a6, 0x7e
   12b3e: 7d bc        	j	0x125fc <_malloc_r+0xae>
   12b40: 13 06 00 7f  	li	a2, 0x7f0
   12b44: 93 06 e0 07  	li	a3, 0x7e
   12b48: dd b1        	j	0x1282e <_malloc_r+0x2e0>
   12b4a: 83 b7 89 00  	ld	a5, 0x8(s3)
   12b4e: 09 bd        	j	0x12960 <_malloc_r+0x412>

0000000000012b50 <__malloc_lock>:
   12b50: 82 80        	ret

0000000000012b52 <__malloc_unlock>:
   12b52: 82 80        	ret

0000000000012b54 <_fclose_r>:
   12b54: 01 11        	addi	sp, sp, -0x20
   12b56: 06 ec        	sd	ra, 0x18(sp)
   12b58: 4a e0        	sd	s2, 0x0(sp)
   12b5a: 89 cd        	beqz	a1, 0x12b74 <_fclose_r+0x20>
   12b5c: 22 e8        	sd	s0, 0x10(sp)
   12b5e: 26 e4        	sd	s1, 0x8(sp)
   12b60: 2e 84        	mv	s0, a1
   12b62: aa 84        	mv	s1, a0
   12b64: 19 c1        	beqz	a0, 0x12b6a <_fclose_r+0x16>
   12b66: 3c 65        	ld	a5, 0x48(a0)
   12b68: d9 c7        	beqz	a5, 0x12bf6 <_fclose_r+0xa2>
   12b6a: 83 17 04 01  	lh	a5, 0x10(s0)
   12b6e: 89 eb        	bnez	a5, 0x12b80 <_fclose_r+0x2c>
   12b70: 42 64        	ld	s0, 0x10(sp)
   12b72: a2 64        	ld	s1, 0x8(sp)
   12b74: e2 60        	ld	ra, 0x18(sp)
   12b76: 01 49        	li	s2, 0x0
   12b78: 4a 85        	mv	a0, s2
   12b7a: 02 69        	ld	s2, 0x0(sp)
   12b7c: 05 61        	addi	sp, sp, 0x20
   12b7e: 82 80        	ret
   12b80: a2 85        	mv	a1, s0
   12b82: 26 85        	mv	a0, s1
   12b84: ef 00 00 08  	jal	0x12c04 <__sflush_r>
   12b88: 3c 68        	ld	a5, 0x50(s0)
   12b8a: 2a 89        	mv	s2, a0
   12b8c: 91 c7        	beqz	a5, 0x12b98 <_fclose_r+0x44>
   12b8e: 0c 78        	ld	a1, 0x30(s0)
   12b90: 26 85        	mv	a0, s1
   12b92: 82 97        	jalr	a5
   12b94: 63 46 05 04  	bltz	a0, 0x12be0 <_fclose_r+0x8c>
   12b98: 83 57 04 01  	lhu	a5, 0x10(s0)
   12b9c: 93 f7 07 08  	andi	a5, a5, 0x80
   12ba0: b1 e7        	bnez	a5, 0x12bec <_fclose_r+0x98>
   12ba2: 2c 6c        	ld	a1, 0x58(s0)
   12ba4: 91 c9        	beqz	a1, 0x12bb8 <_fclose_r+0x64>
   12ba6: 93 07 44 07  	addi	a5, s0, 0x74
   12baa: 63 85 f5 00  	beq	a1, a5, 0x12bb4 <_fclose_r+0x60>
   12bae: 26 85        	mv	a0, s1
   12bb0: ef f0 af f5  	jal	0x1230a <_free_r>
   12bb4: 23 3c 04 04  	sd	zero, 0x58(s0)
   12bb8: 2c 7c        	ld	a1, 0x78(s0)
   12bba: 91 c5        	beqz	a1, 0x12bc6 <_fclose_r+0x72>
   12bbc: 26 85        	mv	a0, s1
   12bbe: ef f0 cf f4  	jal	0x1230a <_free_r>
   12bc2: 23 3c 04 06  	sd	zero, 0x78(s0)
   12bc6: ef e0 8f e9  	jal	0x1125e <__sfp_lock_acquire>
   12bca: 23 18 04 00  	sh	zero, 0x10(s0)
   12bce: ef e0 2f e9  	jal	0x11260 <__sfp_lock_release>
   12bd2: e2 60        	ld	ra, 0x18(sp)
   12bd4: 42 64        	ld	s0, 0x10(sp)
   12bd6: a2 64        	ld	s1, 0x8(sp)
   12bd8: 4a 85        	mv	a0, s2
   12bda: 02 69        	ld	s2, 0x0(sp)
   12bdc: 05 61        	addi	sp, sp, 0x20
   12bde: 82 80        	ret
   12be0: 83 57 04 01  	lhu	a5, 0x10(s0)
   12be4: 7d 59        	li	s2, -0x1
   12be6: 93 f7 07 08  	andi	a5, a5, 0x80
   12bea: c5 df        	beqz	a5, 0x12ba2 <_fclose_r+0x4e>
   12bec: 0c 6c        	ld	a1, 0x18(s0)
   12bee: 26 85        	mv	a0, s1
   12bf0: ef f0 af f1  	jal	0x1230a <_free_r>
   12bf4: 7d b7        	j	0x12ba2 <_fclose_r+0x4e>
   12bf6: ef e0 2f e5  	jal	0x11248 <__sinit>
   12bfa: 85 bf        	j	0x12b6a <_fclose_r+0x16>

0000000000012bfc <fclose>:
   12bfc: aa 85        	mv	a1, a0
   12bfe: 03 b5 81 18  	ld	a0, 0x188(gp)
   12c02: 89 bf        	j	0x12b54 <_fclose_r>

0000000000012c04 <__sflush_r>:
   12c04: 03 97 05 01  	lh	a4, 0x10(a1)
   12c08: 79 71        	addi	sp, sp, -0x30
   12c0a: 22 f0        	sd	s0, 0x20(sp)
   12c0c: 4e e4        	sd	s3, 0x8(sp)
   12c0e: 06 f4        	sd	ra, 0x28(sp)
   12c10: 93 77 87 00  	andi	a5, a4, 0x8
   12c14: 2e 84        	mv	s0, a1
   12c16: aa 89        	mv	s3, a0
   12c18: f1 e7        	bnez	a5, 0x12ce4 <__sflush_r+0xe0>
   12c1a: 85 67        	lui	a5, 0x1
   12c1c: 93 87 07 80  	addi	a5, a5, -0x800
   12c20: 94 45        	lw	a3, 0x8(a1)
   12c22: d9 8f        	or	a5, a5, a4
   12c24: 23 98 f5 00  	sh	a5, 0x10(a1)
   12c28: 63 57 d0 10  	blez	a3, 0x12d36 <__sflush_r+0x132>
   12c2c: 03 38 84 04  	ld	a6, 0x48(s0)
   12c30: 63 04 08 0a  	beqz	a6, 0x12cd8 <__sflush_r+0xd4>
   12c34: 26 ec        	sd	s1, 0x18(sp)
   12c36: 93 16 37 03  	slli	a3, a4, 0x33
   12c3a: 83 a4 09 00  	lw	s1, 0x0(s3)
   12c3e: 23 a0 09 00  	sw	zero, 0x0(s3)
   12c42: 0c 78        	ld	a1, 0x30(s0)
   12c44: 63 c0 06 10  	bltz	a3, 0x12d44 <__sflush_r+0x140>
   12c48: 01 46        	li	a2, 0x0
   12c4a: 85 46        	li	a3, 0x1
   12c4c: 4e 85        	mv	a0, s3
   12c4e: 02 98        	jalr	a6
   12c50: fd 57        	li	a5, -0x1
   12c52: 2a 86        	mv	a2, a0
   12c54: 63 01 f5 12  	beq	a0, a5, 0x12d76 <__sflush_r+0x172>
   12c58: 83 17 04 01  	lh	a5, 0x10(s0)
   12c5c: 03 38 84 04  	ld	a6, 0x48(s0)
   12c60: 0c 78        	ld	a1, 0x30(s0)
   12c62: 91 8b        	andi	a5, a5, 0x4
   12c64: 99 c7        	beqz	a5, 0x12c72 <__sflush_r+0x6e>
   12c66: 18 44        	lw	a4, 0x8(s0)
   12c68: 3c 6c        	ld	a5, 0x58(s0)
   12c6a: 19 8e        	sub	a2, a2, a4
   12c6c: 99 c3        	beqz	a5, 0x12c72 <__sflush_r+0x6e>
   12c6e: 3c 58        	lw	a5, 0x70(s0)
   12c70: 1d 8e        	sub	a2, a2, a5
   12c72: 81 46        	li	a3, 0x0
   12c74: 4e 85        	mv	a0, s3
   12c76: 02 98        	jalr	a6
   12c78: fd 57        	li	a5, -0x1
   12c7a: 63 17 f5 0c  	bne	a0, a5, 0x12d48 <__sflush_r+0x144>
   12c7e: 83 a6 09 00  	lw	a3, 0x0(s3)
   12c82: f5 47        	li	a5, 0x1d
   12c84: 03 17 04 01  	lh	a4, 0x10(s0)
   12c88: 1b 86 06 00  	sext.w	a2, a3
   12c8c: 63 e1 d7 10  	bltu	a5, a3, 0x12d8e <__sflush_r+0x18a>
   12c90: b7 07 40 20  	lui	a5, 0x20400
   12c94: 85 07        	addi	a5, a5, 0x1
   12c96: b3 d7 c7 00  	srl	a5, a5, a2
   12c9a: 85 8b        	andi	a5, a5, 0x1
   12c9c: ed cb        	beqz	a5, 0x12d8e <__sflush_r+0x18a>
   12c9e: 10 6c        	ld	a2, 0x18(s0)
   12ca0: fd 77        	lui	a5, 0xfffff
   12ca2: 93 87 f7 7f  	addi	a5, a5, 0x7ff
   12ca6: f9 8f        	and	a5, a5, a4
   12ca8: 23 18 f4 00  	sh	a5, 0x10(s0)
   12cac: 23 24 04 00  	sw	zero, 0x8(s0)
   12cb0: 10 e0        	sd	a2, 0x0(s0)
   12cb2: 93 17 37 03  	slli	a5, a4, 0x33
   12cb6: 63 d3 07 00  	bgez	a5, 0x12cbc <__sflush_r+0xb8>
   12cba: dd c6        	beqz	a3, 0x12d68 <__sflush_r+0x164>
   12cbc: 2c 6c        	ld	a1, 0x58(s0)
   12cbe: 23 a0 99 00  	sw	s1, 0x0(s3)
   12cc2: c5 c9        	beqz	a1, 0x12d72 <__sflush_r+0x16e>
   12cc4: 93 07 44 07  	addi	a5, s0, 0x74
   12cc8: 63 85 f5 00  	beq	a1, a5, 0x12cd2 <__sflush_r+0xce>
   12ccc: 4e 85        	mv	a0, s3
   12cce: ef f0 cf e3  	jal	0x1230a <_free_r>
   12cd2: e2 64        	ld	s1, 0x18(sp)
   12cd4: 23 3c 04 04  	sd	zero, 0x58(s0)
   12cd8: 01 45        	li	a0, 0x0
   12cda: a2 70        	ld	ra, 0x28(sp)
   12cdc: 02 74        	ld	s0, 0x20(sp)
   12cde: a2 69        	ld	s3, 0x8(sp)
   12ce0: 45 61        	addi	sp, sp, 0x30
   12ce2: 82 80        	ret
   12ce4: 4a e8        	sd	s2, 0x10(sp)
   12ce6: 03 b9 85 01  	ld	s2, 0x18(a1)
   12cea: 63 0b 09 04  	beqz	s2, 0x12d40 <__sflush_r+0x13c>
   12cee: 26 ec        	sd	s1, 0x18(sp)
   12cf0: 84 61        	ld	s1, 0x0(a1)
   12cf2: 0d 8b        	andi	a4, a4, 0x3
   12cf4: 23 b0 25 01  	sd	s2, 0x0(a1)
   12cf8: bb 84 24 41  	subw	s1, s1, s2
   12cfc: 81 47        	li	a5, 0x0
   12cfe: 11 e3        	bnez	a4, 0x12d02 <__sflush_r+0xfe>
   12d00: 9c 51        	lw	a5, 0x20(a1)
   12d02: 5c c4        	sw	a5, 0xc(s0)
   12d04: 63 46 90 00  	bgtz	s1, 0x12d10 <__sflush_r+0x10c>
   12d08: 1d a8        	j	0x12d3e <__sflush_r+0x13a>
   12d0a: 2a 99        	add	s2, s2, a0
   12d0c: 63 59 90 02  	blez	s1, 0x12d3e <__sflush_r+0x13a>
   12d10: 3c 60        	ld	a5, 0x40(s0)
   12d12: 0c 78        	ld	a1, 0x30(s0)
   12d14: a6 86        	mv	a3, s1
   12d16: 4a 86        	mv	a2, s2
   12d18: 4e 85        	mv	a0, s3
   12d1a: 82 97        	jalr	a5
   12d1c: 89 9c        	subw	s1, s1, a0
   12d1e: e3 46 a0 fe  	bgtz	a0, 0x12d0a <__sflush_r+0x106>
   12d22: 03 17 04 01  	lh	a4, 0x10(s0)
   12d26: 42 69        	ld	s2, 0x10(sp)
   12d28: 13 67 07 04  	ori	a4, a4, 0x40
   12d2c: e2 64        	ld	s1, 0x18(sp)
   12d2e: 23 18 e4 00  	sh	a4, 0x10(s0)
   12d32: 7d 55        	li	a0, -0x1
   12d34: 5d b7        	j	0x12cda <__sflush_r+0xd6>
   12d36: b4 59        	lw	a3, 0x70(a1)
   12d38: e3 4a d0 ee  	bgtz	a3, 0x12c2c <__sflush_r+0x28>
   12d3c: 71 bf        	j	0x12cd8 <__sflush_r+0xd4>
   12d3e: e2 64        	ld	s1, 0x18(sp)
   12d40: 42 69        	ld	s2, 0x10(sp)
   12d42: 59 bf        	j	0x12cd8 <__sflush_r+0xd4>
   12d44: 50 68        	ld	a2, 0x90(s0)
   12d46: 31 bf        	j	0x12c62 <__sflush_r+0x5e>
   12d48: 03 17 04 01  	lh	a4, 0x10(s0)
   12d4c: 14 6c        	ld	a3, 0x18(s0)
   12d4e: fd 77        	lui	a5, 0xfffff
   12d50: 93 87 f7 7f  	addi	a5, a5, 0x7ff
   12d54: f9 8f        	and	a5, a5, a4
   12d56: 23 18 f4 00  	sh	a5, 0x10(s0)
   12d5a: 23 24 04 00  	sw	zero, 0x8(s0)
   12d5e: 14 e0        	sd	a3, 0x0(s0)
   12d60: 93 17 37 03  	slli	a5, a4, 0x33
   12d64: e3 dc 07 f4  	bgez	a5, 0x12cbc <__sflush_r+0xb8>
   12d68: 2c 6c        	ld	a1, 0x58(s0)
   12d6a: 48 e8        	sd	a0, 0x90(s0)
   12d6c: 23 a0 99 00  	sw	s1, 0x0(s3)
   12d70: b1 f9        	bnez	a1, 0x12cc4 <__sflush_r+0xc0>
   12d72: e2 64        	ld	s1, 0x18(sp)
   12d74: 95 b7        	j	0x12cd8 <__sflush_r+0xd4>
   12d76: 83 a7 09 00  	lw	a5, 0x0(s3)
   12d7a: e3 8f 07 ec  	beqz	a5, 0x12c58 <__sflush_r+0x54>
   12d7e: 75 47        	li	a4, 0x1d
   12d80: 63 8a e7 00  	beq	a5, a4, 0x12d94 <__sflush_r+0x190>
   12d84: 59 47        	li	a4, 0x16
   12d86: 63 87 e7 00  	beq	a5, a4, 0x12d94 <__sflush_r+0x190>
   12d8a: 03 17 04 01  	lh	a4, 0x10(s0)
   12d8e: 13 67 07 04  	ori	a4, a4, 0x40
   12d92: 69 bf        	j	0x12d2c <__sflush_r+0x128>
   12d94: 23 a0 99 00  	sw	s1, 0x0(s3)
   12d98: e2 64        	ld	s1, 0x18(sp)
   12d9a: 3d bf        	j	0x12cd8 <__sflush_r+0xd4>

0000000000012d9c <_fflush_r>:
   12d9c: 01 11        	addi	sp, sp, -0x20
   12d9e: 22 e8        	sd	s0, 0x10(sp)
   12da0: 06 ec        	sd	ra, 0x18(sp)
   12da2: 2a 84        	mv	s0, a0
   12da4: 19 c1        	beqz	a0, 0x12daa <_fflush_r+0xe>
   12da6: 3c 65        	ld	a5, 0x48(a0)
   12da8: 91 cf        	beqz	a5, 0x12dc4 <_fflush_r+0x28>
   12daa: 83 97 05 01  	lh	a5, 0x10(a1)
   12dae: 91 e7        	bnez	a5, 0x12dba <_fflush_r+0x1e>
   12db0: e2 60        	ld	ra, 0x18(sp)
   12db2: 42 64        	ld	s0, 0x10(sp)
   12db4: 01 45        	li	a0, 0x0
   12db6: 05 61        	addi	sp, sp, 0x20
   12db8: 82 80        	ret
   12dba: 22 85        	mv	a0, s0
   12dbc: 42 64        	ld	s0, 0x10(sp)
   12dbe: e2 60        	ld	ra, 0x18(sp)
   12dc0: 05 61        	addi	sp, sp, 0x20
   12dc2: 89 b5        	j	0x12c04 <__sflush_r>
   12dc4: 2e e4        	sd	a1, 0x8(sp)
   12dc6: ef e0 2f c8  	jal	0x11248 <__sinit>
   12dca: a2 65        	ld	a1, 0x8(sp)
   12dcc: f9 bf        	j	0x12daa <_fflush_r+0xe>

0000000000012dce <fflush>:
   12dce: 05 cd        	beqz	a0, 0x12e06 <fflush+0x38>
   12dd0: aa 85        	mv	a1, a0
   12dd2: 03 b5 81 18  	ld	a0, 0x188(gp)
   12dd6: 19 c1        	beqz	a0, 0x12ddc <fflush+0xe>
   12dd8: 3c 65        	ld	a5, 0x48(a0)
   12dda: 99 c7        	beqz	a5, 0x12de8 <fflush+0x1a>
   12ddc: 83 97 05 01  	lh	a5, 0x10(a1)
   12de0: 99 e3        	bnez	a5, 0x12de6 <fflush+0x18>
   12de2: 01 45        	li	a0, 0x0
   12de4: 82 80        	ret
   12de6: 39 bd        	j	0x12c04 <__sflush_r>
   12de8: 01 11        	addi	sp, sp, -0x20
   12dea: 2e e4        	sd	a1, 0x8(sp)
   12dec: 2a e0        	sd	a0, 0x0(sp)
   12dee: 06 ec        	sd	ra, 0x18(sp)
   12df0: ef e0 8f c5  	jal	0x11248 <__sinit>
   12df4: a2 65        	ld	a1, 0x8(sp)
   12df6: 02 65        	ld	a0, 0x0(sp)
   12df8: 83 97 05 01  	lh	a5, 0x10(a1)
   12dfc: 85 e3        	bnez	a5, 0x12e1c <fflush+0x4e>
   12dfe: e2 60        	ld	ra, 0x18(sp)
   12e00: 01 45        	li	a0, 0x0
   12e02: 05 61        	addi	sp, sp, 0x20
   12e04: 82 80        	ret
   12e06: 5d 66        	lui	a2, 0x17
   12e08: cd 65        	lui	a1, 0x13
   12e0a: 5d 65        	lui	a0, 0x17
   12e0c: 13 06 06 22  	addi	a2, a2, 0x220
   12e10: 93 85 c5 d9  	addi	a1, a1, -0x264
   12e14: 13 05 85 23  	addi	a0, a0, 0x238
   12e18: 6f e0 4f da  	j	0x113bc <_fwalk_sglue>
   12e1c: e2 60        	ld	ra, 0x18(sp)
   12e1e: 05 61        	addi	sp, sp, 0x20
   12e20: d5 b3        	j	0x12c04 <__sflush_r>

0000000000012e22 <__sflags>:
   12e22: 83 c7 05 00  	lbu	a5, 0x0(a1)
   12e26: 13 07 20 07  	li	a4, 0x72
   12e2a: 63 82 e7 06  	beq	a5, a4, 0x12e8e <__sflags+0x6c>
   12e2e: 13 07 70 07  	li	a4, 0x77
   12e32: 63 8a e7 00  	beq	a5, a4, 0x12e46 <__sflags+0x24>
   12e36: 13 07 10 06  	li	a4, 0x61
   12e3a: 63 8e e7 04  	beq	a5, a4, 0x12e96 <__sflags+0x74>
   12e3e: d9 47        	li	a5, 0x16
   12e40: 1c c1        	sw	a5, 0x0(a0)
   12e42: 01 45        	li	a0, 0x0
   12e44: 82 80        	ret
   12e46: 13 03 00 60  	li	t1, 0x600
   12e4a: 05 47        	li	a4, 0x1
   12e4c: 21 45        	li	a0, 0x8
   12e4e: 83 c7 15 00  	lbu	a5, 0x1(a1)
   12e52: 85 68        	lui	a7, 0x1
   12e54: 85 05        	addi	a1, a1, 0x1
   12e56: 93 06 b0 02  	li	a3, 0x2b
   12e5a: 13 08 80 07  	li	a6, 0x78
   12e5e: 93 88 08 80  	addi	a7, a7, -0x800
   12e62: 99 cb        	beqz	a5, 0x12e78 <__sflags+0x56>
   12e64: 63 8e d7 00  	beq	a5, a3, 0x12e80 <__sflags+0x5e>
   12e68: 63 94 07 01  	bne	a5, a6, 0x12e70 <__sflags+0x4e>
   12e6c: 33 67 17 01  	or	a4, a4, a7
   12e70: 83 c7 15 00  	lbu	a5, 0x1(a1)
   12e74: 85 05        	addi	a1, a1, 0x1
   12e76: fd f7        	bnez	a5, 0x12e64 <__sflags+0x42>
   12e78: b3 67 e3 00  	or	a5, t1, a4
   12e7c: 1c c2        	sw	a5, 0x0(a2)
   12e7e: 82 80        	ret
   12e80: 0d 99        	andi	a0, a0, -0x1d
   12e82: 71 9b        	andi	a4, a4, -0x4
   12e84: 13 65 05 01  	ori	a0, a0, 0x10
   12e88: 13 67 27 00  	ori	a4, a4, 0x2
   12e8c: d5 b7        	j	0x12e70 <__sflags+0x4e>
   12e8e: 01 43        	li	t1, 0x0
   12e90: 01 47        	li	a4, 0x0
   12e92: 11 45        	li	a0, 0x4
   12e94: 6d bf        	j	0x12e4e <__sflags+0x2c>
   12e96: 13 03 80 20  	li	t1, 0x208
   12e9a: 05 47        	li	a4, 0x1
   12e9c: 13 05 80 10  	li	a0, 0x108
   12ea0: 7d b7        	j	0x12e4e <__sflags+0x2c>

0000000000012ea2 <__sfvwrite_r>:
   12ea2: 1c 6a        	ld	a5, 0x10(a2)
   12ea4: 63 8b 07 1c  	beqz	a5, 0x1307a <__sfvwrite_r+0x1d8>
   12ea8: 03 97 05 01  	lh	a4, 0x10(a1)
   12eac: 1d 71        	addi	sp, sp, -0x60
   12eae: a2 e8        	sd	s0, 0x50(sp)
   12eb0: 56 f4        	sd	s5, 0x28(sp)
   12eb2: 5e ec        	sd	s7, 0x18(sp)
   12eb4: 86 ec        	sd	ra, 0x58(sp)
   12eb6: 93 77 87 00  	andi	a5, a4, 0x8
   12eba: b2 8b        	mv	s7, a2
   12ebc: aa 8a        	mv	s5, a0
   12ebe: 2e 84        	mv	s0, a1
   12ec0: b5 c7        	beqz	a5, 0x12f2c <__sfvwrite_r+0x8a>
   12ec2: 9c 6d        	ld	a5, 0x18(a1)
   12ec4: a5 c7        	beqz	a5, 0x12f2c <__sfvwrite_r+0x8a>
   12ec6: a6 e4        	sd	s1, 0x48(sp)
   12ec8: ca e0        	sd	s2, 0x40(sp)
   12eca: 4e fc        	sd	s3, 0x38(sp)
   12ecc: 52 f8        	sd	s4, 0x30(sp)
   12ece: 93 77 27 00  	andi	a5, a4, 0x2
   12ed2: 83 b4 0b 00  	ld	s1, 0x0(s7)
   12ed6: a5 cf        	beqz	a5, 0x12f4e <__sfvwrite_r+0xac>
   12ed8: 3c 60        	ld	a5, 0x40(s0)
   12eda: 0c 78        	ld	a1, 0x30(s0)
   12edc: 37 0a 00 80  	lui	s4, 0x80000
   12ee0: 81 49        	li	s3, 0x0
   12ee2: 01 49        	li	s2, 0x0
   12ee4: 13 4a 0a c0  	xori	s4, s4, -0x400
   12ee8: 4e 86        	mv	a2, s3
   12eea: 56 85        	mv	a0, s5
   12eec: 63 0a 09 02  	beqz	s2, 0x12f20 <__sfvwrite_r+0x7e>
   12ef0: ca 86        	mv	a3, s2
   12ef2: 63 73 2a 01  	bgeu	s4, s2, 0x12ef8 <__sfvwrite_r+0x56>
   12ef6: d2 86        	mv	a3, s4
   12ef8: 81 26        	sext.w	a3, a3
   12efa: 82 97        	jalr	a5
   12efc: 63 58 a0 2e  	blez	a0, 0x131ec <__sfvwrite_r+0x34a>
   12f00: 83 b7 0b 01  	ld	a5, 0x10(s7)
   12f04: aa 99        	add	s3, s3, a0
   12f06: 33 09 a9 40  	sub	s2, s2, a0
   12f0a: 89 8f        	sub	a5, a5, a0
   12f0c: 23 b8 fb 00  	sd	a5, 0x10(s7)
   12f10: 63 81 07 12  	beqz	a5, 0x13032 <__sfvwrite_r+0x190>
   12f14: 3c 60        	ld	a5, 0x40(s0)
   12f16: 0c 78        	ld	a1, 0x30(s0)
   12f18: 4e 86        	mv	a2, s3
   12f1a: 56 85        	mv	a0, s5
   12f1c: e3 1a 09 fc  	bnez	s2, 0x12ef0 <__sfvwrite_r+0x4e>
   12f20: 83 b9 04 00  	ld	s3, 0x0(s1)
   12f24: 03 b9 84 00  	ld	s2, 0x8(s1)
   12f28: c1 04        	addi	s1, s1, 0x10
   12f2a: 7d bf        	j	0x12ee8 <__sfvwrite_r+0x46>
   12f2c: a2 85        	mv	a1, s0
   12f2e: 56 85        	mv	a0, s5
   12f30: ef e0 9f 96  	jal	0x11898 <__swsetup_r>
   12f34: 63 1c 05 12  	bnez	a0, 0x1306c <__sfvwrite_r+0x1ca>
   12f38: 03 17 04 01  	lh	a4, 0x10(s0)
   12f3c: a6 e4        	sd	s1, 0x48(sp)
   12f3e: ca e0        	sd	s2, 0x40(sp)
   12f40: 4e fc        	sd	s3, 0x38(sp)
   12f42: 52 f8        	sd	s4, 0x30(sp)
   12f44: 93 77 27 00  	andi	a5, a4, 0x2
   12f48: 83 b4 0b 00  	ld	s1, 0x0(s7)
   12f4c: d1 f7        	bnez	a5, 0x12ed8 <__sfvwrite_r+0x36>
   12f4e: 5a f0        	sd	s6, 0x20(sp)
   12f50: 62 e8        	sd	s8, 0x10(sp)
   12f52: 66 e4        	sd	s9, 0x8(sp)
   12f54: 93 77 17 00  	andi	a5, a4, 0x1
   12f58: ad eb        	bnez	a5, 0x12fca <__sfvwrite_r+0x128>
   12f5a: 03 2a c4 00  	lw	s4, 0xc(s0)
   12f5e: 1c 60        	ld	a5, 0x0(s0)
   12f60: 37 0b 00 80  	lui	s6, 0x80000
   12f64: 01 4c        	li	s8, 0x0
   12f66: 01 49        	li	s2, 0x0
   12f68: 13 4b fb ff  	not	s6, s6
   12f6c: 3e 85        	mv	a0, a5
   12f6e: 63 08 09 04  	beqz	s2, 0x12fbe <__sfvwrite_r+0x11c>
   12f72: 93 76 07 20  	andi	a3, a4, 0x200
   12f76: 63 86 06 14  	beqz	a3, 0x130c2 <__sfvwrite_r+0x220>
   12f7a: 63 75 49 1b  	bgeu	s2, s4, 0x13124 <__sfvwrite_r+0x282>
   12f7e: ca 8c        	mv	s9, s2
   12f80: 4a 8a        	mv	s4, s2
   12f82: 52 86        	mv	a2, s4
   12f84: e2 85        	mv	a1, s8
   12f86: ef 00 20 6e  	jal	0x13668 <memmove>
   12f8a: 58 44        	lw	a4, 0xc(s0)
   12f8c: 1c 60        	ld	a5, 0x0(s0)
   12f8e: ca 89        	mv	s3, s2
   12f90: 3b 07 97 41  	subw	a4, a4, s9
   12f94: 3e 9a        	add	s4, s4, a5
   12f96: 58 c4        	sw	a4, 0xc(s0)
   12f98: 23 30 44 01  	sd	s4, 0x0(s0)
   12f9c: 01 49        	li	s2, 0x0
   12f9e: 83 b7 0b 01  	ld	a5, 0x10(s7)
   12fa2: 4e 9c        	add	s8, s8, s3
   12fa4: b3 87 37 41  	sub	a5, a5, s3
   12fa8: 23 b8 fb 00  	sd	a5, 0x10(s7)
   12fac: c1 c3        	beqz	a5, 0x1302c <__sfvwrite_r+0x18a>
   12fae: 1c 60        	ld	a5, 0x0(s0)
   12fb0: 03 17 04 01  	lh	a4, 0x10(s0)
   12fb4: 03 2a c4 00  	lw	s4, 0xc(s0)
   12fb8: 3e 85        	mv	a0, a5
   12fba: e3 1c 09 fa  	bnez	s2, 0x12f72 <__sfvwrite_r+0xd0>
   12fbe: 03 bc 04 00  	ld	s8, 0x0(s1)
   12fc2: 03 b9 84 00  	ld	s2, 0x8(s1)
   12fc6: c1 04        	addi	s1, s1, 0x10
   12fc8: 55 b7        	j	0x12f6c <__sfvwrite_r+0xca>
   12fca: 01 4b        	li	s6, 0x0
   12fcc: 01 45        	li	a0, 0x0
   12fce: 81 4c        	li	s9, 0x0
   12fd0: 01 4c        	li	s8, 0x0
   12fd2: 63 06 0c 0a  	beqz	s8, 0x1307e <__sfvwrite_r+0x1dc>
   12fd6: 45 cd        	beqz	a0, 0x1308e <__sfvwrite_r+0x1ec>
   12fd8: 5a 8a        	mv	s4, s6
   12fda: 63 73 6c 01  	bgeu	s8, s6, 0x12fe0 <__sfvwrite_r+0x13e>
   12fde: 62 8a        	mv	s4, s8
   12fe0: 08 60        	ld	a0, 0x0(s0)
   12fe2: 18 6c        	ld	a4, 0x18(s0)
   12fe4: 5c 44        	lw	a5, 0xc(s0)
   12fe6: 14 50        	lw	a3, 0x20(s0)
   12fe8: 52 89        	mv	s2, s4
   12fea: 63 76 a7 00  	bgeu	a4, a0, 0x12ff6 <__sfvwrite_r+0x154>
   12fee: bb 89 d7 00  	addw	s3, a5, a3
   12ff2: 63 c9 49 0b  	blt	s3, s4, 0x130a4 <__sfvwrite_r+0x202>
   12ff6: 63 43 da 1a  	blt	s4, a3, 0x1319c <__sfvwrite_r+0x2fa>
   12ffa: 3c 60        	ld	a5, 0x40(s0)
   12ffc: 0c 78        	ld	a1, 0x30(s0)
   12ffe: 66 86        	mv	a2, s9
   13000: 56 85        	mv	a0, s5
   13002: 82 97        	jalr	a5
   13004: 2a 89        	mv	s2, a0
   13006: 63 56 a0 04  	blez	a0, 0x13052 <__sfvwrite_r+0x1b0>
   1300a: 9b 07 05 00  	sext.w	a5, a0
   1300e: 3b 0b fb 40  	subw	s6, s6, a5
   13012: 05 45        	li	a0, 0x1
   13014: 63 0a 0b 02  	beqz	s6, 0x13048 <__sfvwrite_r+0x1a6>
   13018: 83 b7 0b 01  	ld	a5, 0x10(s7)
   1301c: ca 9c        	add	s9, s9, s2
   1301e: 33 0c 2c 41  	sub	s8, s8, s2
   13022: b3 87 27 41  	sub	a5, a5, s2
   13026: 23 b8 fb 00  	sd	a5, 0x10(s7)
   1302a: c5 f7        	bnez	a5, 0x12fd2 <__sfvwrite_r+0x130>
   1302c: 02 7b        	ld	s6, 0x20(sp)
   1302e: 42 6c        	ld	s8, 0x10(sp)
   13030: a2 6c        	ld	s9, 0x8(sp)
   13032: e6 60        	ld	ra, 0x58(sp)
   13034: 46 64        	ld	s0, 0x50(sp)
   13036: a6 64        	ld	s1, 0x48(sp)
   13038: 06 69        	ld	s2, 0x40(sp)
   1303a: e2 79        	ld	s3, 0x38(sp)
   1303c: 42 7a        	ld	s4, 0x30(sp)
   1303e: a2 7a        	ld	s5, 0x28(sp)
   13040: e2 6b        	ld	s7, 0x18(sp)
   13042: 01 45        	li	a0, 0x0
   13044: 25 61        	addi	sp, sp, 0x60
   13046: 82 80        	ret
   13048: a2 85        	mv	a1, s0
   1304a: 56 85        	mv	a0, s5
   1304c: ef f0 1f d5  	jal	0x12d9c <_fflush_r>
   13050: 61 d5        	beqz	a0, 0x13018 <__sfvwrite_r+0x176>
   13052: 83 17 04 01  	lh	a5, 0x10(s0)
   13056: 02 7b        	ld	s6, 0x20(sp)
   13058: 42 6c        	ld	s8, 0x10(sp)
   1305a: a2 6c        	ld	s9, 0x8(sp)
   1305c: a6 64        	ld	s1, 0x48(sp)
   1305e: 06 69        	ld	s2, 0x40(sp)
   13060: e2 79        	ld	s3, 0x38(sp)
   13062: 42 7a        	ld	s4, 0x30(sp)
   13064: 93 e7 07 04  	ori	a5, a5, 0x40
   13068: 23 18 f4 00  	sh	a5, 0x10(s0)
   1306c: e6 60        	ld	ra, 0x58(sp)
   1306e: 46 64        	ld	s0, 0x50(sp)
   13070: a2 7a        	ld	s5, 0x28(sp)
   13072: e2 6b        	ld	s7, 0x18(sp)
   13074: 7d 55        	li	a0, -0x1
   13076: 25 61        	addi	sp, sp, 0x60
   13078: 82 80        	ret
   1307a: 01 45        	li	a0, 0x0
   1307c: 82 80        	ret
   1307e: 03 bc 84 00  	ld	s8, 0x8(s1)
   13082: a6 87        	mv	a5, s1
   13084: c1 04        	addi	s1, s1, 0x10
   13086: e3 0c 0c fe  	beqz	s8, 0x1307e <__sfvwrite_r+0x1dc>
   1308a: 83 bc 07 00  	ld	s9, 0x0(a5)
   1308e: 62 86        	mv	a2, s8
   13090: a9 45        	li	a1, 0xa
   13092: 66 85        	mv	a0, s9
   13094: ef 00 60 48  	jal	0x1351a <memchr>
   13098: 63 07 05 14  	beqz	a0, 0x131e6 <__sfvwrite_r+0x344>
   1309c: 05 05        	addi	a0, a0, 0x1
   1309e: 3b 0b 95 41  	subw	s6, a0, s9
   130a2: 1d bf        	j	0x12fd8 <__sfvwrite_r+0x136>
   130a4: e6 85        	mv	a1, s9
   130a6: 4e 86        	mv	a2, s3
   130a8: ef 00 00 5c  	jal	0x13668 <memmove>
   130ac: 1c 60        	ld	a5, 0x0(s0)
   130ae: a2 85        	mv	a1, s0
   130b0: 56 85        	mv	a0, s5
   130b2: ce 97        	add	a5, a5, s3
   130b4: 1c e0        	sd	a5, 0x0(s0)
   130b6: ef f0 7f ce  	jal	0x12d9c <_fflush_r>
   130ba: 41 fd        	bnez	a0, 0x13052 <__sfvwrite_r+0x1b0>
   130bc: ce 87        	mv	a5, s3
   130be: 4e 89        	mv	s2, s3
   130c0: b9 b7        	j	0x1300e <__sfvwrite_r+0x16c>
   130c2: 18 6c        	ld	a4, 0x18(s0)
   130c4: 63 67 f7 02  	bltu	a4, a5, 0x130f2 <__sfvwrite_r+0x250>
   130c8: 18 50        	lw	a4, 0x20(s0)
   130ca: 63 64 e9 02  	bltu	s2, a4, 0x130f2 <__sfvwrite_r+0x250>
   130ce: ca 86        	mv	a3, s2
   130d0: 63 73 2b 01  	bgeu	s6, s2, 0x130d6 <__sfvwrite_r+0x234>
   130d4: da 86        	mv	a3, s6
   130d6: 3b e7 e6 02  	remw	a4, a3, a4
   130da: 3c 60        	ld	a5, 0x40(s0)
   130dc: 0c 78        	ld	a1, 0x30(s0)
   130de: 62 86        	mv	a2, s8
   130e0: 56 85        	mv	a0, s5
   130e2: 99 9e        	subw	a3, a3, a4
   130e4: 82 97        	jalr	a5
   130e6: aa 89        	mv	s3, a0
   130e8: e3 55 a0 f6  	blez	a0, 0x13052 <__sfvwrite_r+0x1b0>
   130ec: 33 09 39 41  	sub	s2, s2, s3
   130f0: 7d b5        	j	0x12f9e <__sfvwrite_r+0xfc>
   130f2: d2 89        	mv	s3, s4
   130f4: 63 73 49 01  	bgeu	s2, s4, 0x130fa <__sfvwrite_r+0x258>
   130f8: ca 89        	mv	s3, s2
   130fa: 3e 85        	mv	a0, a5
   130fc: 4e 86        	mv	a2, s3
   130fe: e2 85        	mv	a1, s8
   13100: ef 00 80 56  	jal	0x13668 <memmove>
   13104: 58 44        	lw	a4, 0xc(s0)
   13106: 1c 60        	ld	a5, 0x0(s0)
   13108: bb 06 37 41  	subw	a3, a4, s3
   1310c: ce 97        	add	a5, a5, s3
   1310e: 54 c4        	sw	a3, 0xc(s0)
   13110: 1c e0        	sd	a5, 0x0(s0)
   13112: e9 fe        	bnez	a3, 0x130ec <__sfvwrite_r+0x24a>
   13114: a2 85        	mv	a1, s0
   13116: 56 85        	mv	a0, s5
   13118: ef f0 5f c8  	jal	0x12d9c <_fflush_r>
   1311c: 1d f9        	bnez	a0, 0x13052 <__sfvwrite_r+0x1b0>
   1311e: 33 09 39 41  	sub	s2, s2, s3
   13122: b5 bd        	j	0x12f9e <__sfvwrite_r+0xfc>
   13124: 93 76 07 48  	andi	a3, a4, 0x480
   13128: c1 ca        	beqz	a3, 0x131b8 <__sfvwrite_r+0x316>
   1312a: 10 50        	lw	a2, 0x20(s0)
   1312c: 0c 6c        	ld	a1, 0x18(s0)
   1312e: 9b 16 16 00  	slliw	a3, a2, 0x1
   13132: b1 9e        	addw	a3, a3, a2
   13134: 8d 8f        	sub	a5, a5, a1
   13136: 9b d9 f6 01  	srliw	s3, a3, 0x1f
   1313a: 9b 8c 07 00  	sext.w	s9, a5
   1313e: bb 89 d9 00  	addw	s3, s3, a3
   13142: 93 86 1c 00  	addi	a3, s9, 0x1
   13146: 9b d9 19 40  	sraiw	s3, s3, 0x1
   1314a: ca 96        	add	a3, a3, s2
   1314c: 63 f6 d9 00  	bgeu	s3, a3, 0x13158 <__sfvwrite_r+0x2b6>
   13150: 9b 86 17 00  	addiw	a3, a5, 0x1
   13154: bb 89 26 01  	addw	s3, a3, s2
   13158: 13 77 07 40  	andi	a4, a4, 0x400
   1315c: 25 c3        	beqz	a4, 0x131bc <__sfvwrite_r+0x31a>
   1315e: ce 85        	mv	a1, s3
   13160: 56 85        	mv	a0, s5
   13162: ef f0 cf be  	jal	0x1254e <_malloc_r>
   13166: 2a 8a        	mv	s4, a0
   13168: 49 c5        	beqz	a0, 0x131f2 <__sfvwrite_r+0x350>
   1316a: 0c 6c        	ld	a1, 0x18(s0)
   1316c: 66 86        	mv	a2, s9
   1316e: ef e0 9f e0  	jal	0x11f76 <memcpy>
   13172: 83 57 04 01  	lhu	a5, 0x10(s0)
   13176: 93 f7 f7 b7  	andi	a5, a5, -0x481
   1317a: 93 e7 07 08  	ori	a5, a5, 0x80
   1317e: 23 18 f4 00  	sh	a5, 0x10(s0)
   13182: 33 05 9a 01  	add	a0, s4, s9
   13186: bb 87 99 41  	subw	a5, s3, s9
   1318a: 23 3c 44 01  	sd	s4, 0x18(s0)
   1318e: 08 e0        	sd	a0, 0x0(s0)
   13190: 23 20 34 03  	sw	s3, 0x20(s0)
   13194: ca 8c        	mv	s9, s2
   13196: 5c c4        	sw	a5, 0xc(s0)
   13198: 4a 8a        	mv	s4, s2
   1319a: e5 b3        	j	0x12f82 <__sfvwrite_r+0xe0>
   1319c: 52 86        	mv	a2, s4
   1319e: e6 85        	mv	a1, s9
   131a0: ef 00 80 4c  	jal	0x13668 <memmove>
   131a4: 54 44        	lw	a3, 0xc(s0)
   131a6: 18 60        	ld	a4, 0x0(s0)
   131a8: 9b 07 0a 00  	sext.w	a5, s4
   131ac: bb 86 46 41  	subw	a3, a3, s4
   131b0: 52 97        	add	a4, a4, s4
   131b2: 54 c4        	sw	a3, 0xc(s0)
   131b4: 18 e0        	sd	a4, 0x0(s0)
   131b6: a1 bd        	j	0x1300e <__sfvwrite_r+0x16c>
   131b8: d2 8c        	mv	s9, s4
   131ba: e1 b3        	j	0x12f82 <__sfvwrite_r+0xe0>
   131bc: 4e 86        	mv	a2, s3
   131be: 56 85        	mv	a0, s5
   131c0: ef 00 00 5f  	jal	0x137b0 <_realloc_r>
   131c4: 2a 8a        	mv	s4, a0
   131c6: 55 fd        	bnez	a0, 0x13182 <__sfvwrite_r+0x2e0>
   131c8: 0c 6c        	ld	a1, 0x18(s0)
   131ca: 56 85        	mv	a0, s5
   131cc: ef f0 ef 93  	jal	0x1230a <_free_r>
   131d0: 83 17 04 01  	lh	a5, 0x10(s0)
   131d4: 31 47        	li	a4, 0xc
   131d6: 02 7b        	ld	s6, 0x20(sp)
   131d8: 42 6c        	ld	s8, 0x10(sp)
   131da: a2 6c        	ld	s9, 0x8(sp)
   131dc: 23 a0 ea 00  	sw	a4, 0x0(s5)
   131e0: 93 f7 f7 f7  	andi	a5, a5, -0x81
   131e4: a5 bd        	j	0x1305c <__sfvwrite_r+0x1ba>
   131e6: 1b 0b 1c 00  	addiw	s6, s8, 0x1
   131ea: fd b3        	j	0x12fd8 <__sfvwrite_r+0x136>
   131ec: 83 17 04 01  	lh	a5, 0x10(s0)
   131f0: b5 b5        	j	0x1305c <__sfvwrite_r+0x1ba>
   131f2: 31 47        	li	a4, 0xc
   131f4: 83 17 04 01  	lh	a5, 0x10(s0)
   131f8: 02 7b        	ld	s6, 0x20(sp)
   131fa: 42 6c        	ld	s8, 0x10(sp)
   131fc: a2 6c        	ld	s9, 0x8(sp)
   131fe: 23 a0 ea 00  	sw	a4, 0x0(s5)
   13202: a9 bd        	j	0x1305c <__sfvwrite_r+0x1ba>

0000000000013204 <__smakebuf_r>:
   13204: 83 97 05 01  	lh	a5, 0x10(a1)
   13208: 35 71        	addi	sp, sp, -0xa0
   1320a: 22 e9        	sd	s0, 0x90(sp)
   1320c: 06 ed        	sd	ra, 0x98(sp)
   1320e: 13 f7 27 00  	andi	a4, a5, 0x2
   13212: 2e 84        	mv	s0, a1
   13214: 19 cb        	beqz	a4, 0x1322a <__smakebuf_r+0x26>
   13216: 93 87 75 07  	addi	a5, a1, 0x77
   1321a: 9c e1        	sd	a5, 0x0(a1)
   1321c: 9c ed        	sd	a5, 0x18(a1)
   1321e: 85 47        	li	a5, 0x1
   13220: 9c d1        	sw	a5, 0x20(a1)
   13222: ea 60        	ld	ra, 0x98(sp)
   13224: 4a 64        	ld	s0, 0x90(sp)
   13226: 0d 61        	addi	sp, sp, 0xa0
   13228: 82 80        	ret
   1322a: 83 95 25 01  	lh	a1, 0x12(a1)
   1322e: 26 e5        	sd	s1, 0x88(sp)
   13230: 4a e1        	sd	s2, 0x80(sp)
   13232: ce fc        	sd	s3, 0x78(sp)
   13234: d2 f8        	sd	s4, 0x70(sp)
   13236: aa 84        	mv	s1, a0
   13238: 63 c4 05 06  	bltz	a1, 0x132a0 <__smakebuf_r+0x9c>
   1323c: 30 00        	addi	a2, sp, 0x8
   1323e: ef e0 3f af  	jal	0x11d30 <_fstat_r>
   13242: 63 4d 05 04  	bltz	a0, 0x1329c <__smakebuf_r+0x98>
   13246: 32 49        	lw	s2, 0xc(sp)
   13248: bd 67        	lui	a5, 0xf
   1324a: 85 69        	lui	s3, 0x1
   1324c: 33 79 f9 00  	and	s2, s2, a5
   13250: 89 67        	lui	a5, 0x2
   13252: 33 09 f9 40  	sub	s2, s2, a5
   13256: 13 39 19 00  	seqz	s2, s2
   1325a: 13 0a 00 40  	li	s4, 0x400
   1325e: 93 89 09 80  	addi	s3, s3, -0x800
   13262: d2 85        	mv	a1, s4
   13264: 26 85        	mv	a0, s1
   13266: ef f0 8f ae  	jal	0x1254e <_malloc_r>
   1326a: 83 17 04 01  	lh	a5, 0x10(s0)
   1326e: 39 c5        	beqz	a0, 0x132bc <__smakebuf_r+0xb8>
   13270: 93 e7 07 08  	ori	a5, a5, 0x80
   13274: 08 e0        	sd	a0, 0x0(s0)
   13276: 08 ec        	sd	a0, 0x18(s0)
   13278: 23 18 f4 00  	sh	a5, 0x10(s0)
   1327c: 23 20 44 03  	sw	s4, 0x20(s0)
   13280: 63 15 09 06  	bnez	s2, 0x132ea <__smakebuf_r+0xe6>
   13284: b3 e7 37 01  	or	a5, a5, s3
   13288: ea 60        	ld	ra, 0x98(sp)
   1328a: 23 18 f4 00  	sh	a5, 0x10(s0)
   1328e: 4a 64        	ld	s0, 0x90(sp)
   13290: aa 64        	ld	s1, 0x88(sp)
   13292: 0a 69        	ld	s2, 0x80(sp)
   13294: e6 79        	ld	s3, 0x78(sp)
   13296: 46 7a        	ld	s4, 0x70(sp)
   13298: 0d 61        	addi	sp, sp, 0xa0
   1329a: 82 80        	ret
   1329c: 83 17 04 01  	lh	a5, 0x10(s0)
   132a0: 93 f7 07 08  	andi	a5, a5, 0x80
   132a4: 01 49        	li	s2, 0x0
   132a6: 95 cf        	beqz	a5, 0x132e2 <__smakebuf_r+0xde>
   132a8: 13 0a 00 04  	li	s4, 0x40
   132ac: d2 85        	mv	a1, s4
   132ae: 26 85        	mv	a0, s1
   132b0: ef f0 ef a9  	jal	0x1254e <_malloc_r>
   132b4: 83 17 04 01  	lh	a5, 0x10(s0)
   132b8: 81 49        	li	s3, 0x0
   132ba: 5d f9        	bnez	a0, 0x13270 <__smakebuf_r+0x6c>
   132bc: 13 f7 07 20  	andi	a4, a5, 0x200
   132c0: 15 ef        	bnez	a4, 0x132fc <__smakebuf_r+0xf8>
   132c2: f1 9b        	andi	a5, a5, -0x4
   132c4: 93 e7 27 00  	ori	a5, a5, 0x2
   132c8: 13 07 74 07  	addi	a4, s0, 0x77
   132cc: 23 18 f4 00  	sh	a5, 0x10(s0)
   132d0: 85 47        	li	a5, 0x1
   132d2: aa 64        	ld	s1, 0x88(sp)
   132d4: 0a 69        	ld	s2, 0x80(sp)
   132d6: e6 79        	ld	s3, 0x78(sp)
   132d8: 46 7a        	ld	s4, 0x70(sp)
   132da: 18 e0        	sd	a4, 0x0(s0)
   132dc: 18 ec        	sd	a4, 0x18(s0)
   132de: 1c d0        	sw	a5, 0x20(s0)
   132e0: 89 b7        	j	0x13222 <__smakebuf_r+0x1e>
   132e2: 13 0a 00 40  	li	s4, 0x400
   132e6: 81 49        	li	s3, 0x0
   132e8: ad bf        	j	0x13262 <__smakebuf_r+0x5e>
   132ea: 83 15 24 01  	lh	a1, 0x12(s0)
   132ee: 26 85        	mv	a0, s1
   132f0: ef 00 80 2d  	jal	0x135c8 <_isatty_r>
   132f4: 09 e9        	bnez	a0, 0x13306 <__smakebuf_r+0x102>
   132f6: 83 17 04 01  	lh	a5, 0x10(s0)
   132fa: 69 b7        	j	0x13284 <__smakebuf_r+0x80>
   132fc: aa 64        	ld	s1, 0x88(sp)
   132fe: 0a 69        	ld	s2, 0x80(sp)
   13300: e6 79        	ld	s3, 0x78(sp)
   13302: 46 7a        	ld	s4, 0x70(sp)
   13304: 39 bf        	j	0x13222 <__smakebuf_r+0x1e>
   13306: 83 57 04 01  	lhu	a5, 0x10(s0)
   1330a: f1 9b        	andi	a5, a5, -0x4
   1330c: 93 e7 17 00  	ori	a5, a5, 0x1
   13310: 9b 97 07 01  	slliw	a5, a5, 0x10
   13314: 9b d7 07 41  	sraiw	a5, a5, 0x10
   13318: b5 b7        	j	0x13284 <__smakebuf_r+0x80>

000000000001331a <__swhatbuf_r>:
   1331a: 75 71        	addi	sp, sp, -0x90
   1331c: 22 e1        	sd	s0, 0x80(sp)
   1331e: 2e 84        	mv	s0, a1
   13320: 83 95 25 01  	lh	a1, 0x12(a1)
   13324: a6 fc        	sd	s1, 0x78(sp)
   13326: ca f8        	sd	s2, 0x70(sp)
   13328: 06 e5        	sd	ra, 0x88(sp)
   1332a: b2 84        	mv	s1, a2
   1332c: 36 89        	mv	s2, a3
   1332e: 63 cc 05 02  	bltz	a1, 0x13366 <__swhatbuf_r+0x4c>
   13332: 30 00        	addi	a2, sp, 0x8
   13334: ef e0 df 9f  	jal	0x11d30 <_fstat_r>
   13338: 63 47 05 02  	bltz	a0, 0x13366 <__swhatbuf_r+0x4c>
   1333c: b2 47        	lw	a5, 0xc(sp)
   1333e: 3d 67        	lui	a4, 0xf
   13340: aa 60        	ld	ra, 0x88(sp)
   13342: f9 8f        	and	a5, a5, a4
   13344: 09 67        	lui	a4, 0x2
   13346: 99 8f        	sub	a5, a5, a4
   13348: 0a 64        	ld	s0, 0x80(sp)
   1334a: 93 b7 17 00  	seqz	a5, a5
   1334e: 23 20 f9 00  	sw	a5, 0x0(s2)
   13352: 13 07 00 40  	li	a4, 0x400
   13356: 98 e0        	sd	a4, 0x0(s1)
   13358: 05 65        	lui	a0, 0x1
   1335a: e6 74        	ld	s1, 0x78(sp)
   1335c: 46 79        	ld	s2, 0x70(sp)
   1335e: 13 05 05 80  	addi	a0, a0, -0x800
   13362: 49 61        	addi	sp, sp, 0x90
   13364: 82 80        	ret
   13366: 83 57 04 01  	lhu	a5, 0x10(s0)
   1336a: 93 f7 07 08  	andi	a5, a5, 0x80
   1336e: 91 cf        	beqz	a5, 0x1338a <__swhatbuf_r+0x70>
   13370: aa 60        	ld	ra, 0x88(sp)
   13372: 0a 64        	ld	s0, 0x80(sp)
   13374: 81 47        	li	a5, 0x0
   13376: 23 20 f9 00  	sw	a5, 0x0(s2)
   1337a: 13 07 00 04  	li	a4, 0x40
   1337e: 98 e0        	sd	a4, 0x0(s1)
   13380: 46 79        	ld	s2, 0x70(sp)
   13382: e6 74        	ld	s1, 0x78(sp)
   13384: 01 45        	li	a0, 0x0
   13386: 49 61        	addi	sp, sp, 0x90
   13388: 82 80        	ret
   1338a: aa 60        	ld	ra, 0x88(sp)
   1338c: 0a 64        	ld	s0, 0x80(sp)
   1338e: 23 20 f9 00  	sw	a5, 0x0(s2)
   13392: 13 07 00 40  	li	a4, 0x400
   13396: 98 e0        	sd	a4, 0x0(s1)
   13398: 46 79        	ld	s2, 0x70(sp)
   1339a: e6 74        	ld	s1, 0x78(sp)
   1339c: 01 45        	li	a0, 0x0
   1339e: 49 61        	addi	sp, sp, 0x90
   133a0: 82 80        	ret

00000000000133a2 <lflush>:
   133a2: 83 d7 05 01  	lhu	a5, 0x10(a1)
   133a6: 25 47        	li	a4, 0x9
   133a8: a5 8b        	andi	a5, a5, 0x9
   133aa: 63 84 e7 00  	beq	a5, a4, 0x133b2 <lflush+0x10>
   133ae: 01 45        	li	a0, 0x0
   133b0: 82 80        	ret
   133b2: 03 b5 81 18  	ld	a0, 0x188(gp)
   133b6: 6f f0 7f 9e  	j	0x12d9c <_fflush_r>

00000000000133ba <__srefill_r>:
   133ba: 01 11        	addi	sp, sp, -0x20
   133bc: 22 e8        	sd	s0, 0x10(sp)
   133be: 26 e4        	sd	s1, 0x8(sp)
   133c0: 06 ec        	sd	ra, 0x18(sp)
   133c2: aa 84        	mv	s1, a0
   133c4: 2e 84        	mv	s0, a1
   133c6: 01 c5        	beqz	a0, 0x133ce <__srefill_r+0x14>
   133c8: 3c 65        	ld	a5, 0x48(a0)
   133ca: 63 8a 07 10  	beqz	a5, 0x134de <__srefill_r+0x124>
   133ce: 83 17 04 01  	lh	a5, 0x10(s0)
   133d2: 13 97 27 03  	slli	a4, a5, 0x32
   133d6: 63 41 07 02  	bltz	a4, 0x133f8 <__srefill_r+0x3e>
   133da: 03 27 c4 0a  	lw	a4, 0xac(s0)
   133de: 09 66        	lui	a2, 0x2
   133e0: f9 76        	lui	a3, 0xffffe
   133e2: d1 8f        	or	a5, a5, a2
   133e4: fd 16        	addi	a3, a3, -0x1
   133e6: 9b 97 07 01  	slliw	a5, a5, 0x10
   133ea: 9b d7 07 41  	sraiw	a5, a5, 0x10
   133ee: 75 8f        	and	a4, a4, a3
   133f0: 23 18 f4 00  	sh	a5, 0x10(s0)
   133f4: 23 26 e4 0a  	sw	a4, 0xac(s0)
   133f8: 23 24 04 00  	sw	zero, 0x8(s0)
   133fc: 13 f7 07 02  	andi	a4, a5, 0x20
   13400: 63 1a 07 0e  	bnez	a4, 0x134f4 <__srefill_r+0x13a>
   13404: 13 f7 47 00  	andi	a4, a5, 0x4
   13408: 31 e7        	bnez	a4, 0x13454 <__srefill_r+0x9a>
   1340a: 13 f7 07 01  	andi	a4, a5, 0x10
   1340e: 63 05 07 0e  	beqz	a4, 0x134f8 <__srefill_r+0x13e>
   13412: 13 f7 87 00  	andi	a4, a5, 0x8
   13416: 55 e7        	bnez	a4, 0x134c2 <__srefill_r+0x108>
   13418: 4a e0        	sd	s2, 0x0(sp)
   1341a: 93 e7 47 00  	ori	a5, a5, 0x4
   1341e: 23 18 f4 00  	sh	a5, 0x10(s0)
   13422: 1c 6c        	ld	a5, 0x18(s0)
   13424: a9 cb        	beqz	a5, 0x13476 <__srefill_r+0xbc>
   13426: 03 19 04 01  	lh	s2, 0x10(s0)
   1342a: 93 77 39 00  	andi	a5, s2, 0x3
   1342e: a9 ef        	bnez	a5, 0x13488 <__srefill_r+0xce>
   13430: 10 6c        	ld	a2, 0x18(s0)
   13432: 1c 7c        	ld	a5, 0x38(s0)
   13434: 14 50        	lw	a3, 0x20(s0)
   13436: 0c 78        	ld	a1, 0x30(s0)
   13438: 10 e0        	sd	a2, 0x0(s0)
   1343a: 26 85        	mv	a0, s1
   1343c: 82 97        	jalr	a5
   1343e: 01 25        	sext.w	a0, a0
   13440: 08 c4        	sw	a0, 0x8(s0)
   13442: 63 51 a0 0a  	blez	a0, 0x134e4 <__srefill_r+0x12a>
   13446: 02 69        	ld	s2, 0x0(sp)
   13448: 01 45        	li	a0, 0x0
   1344a: e2 60        	ld	ra, 0x18(sp)
   1344c: 42 64        	ld	s0, 0x10(sp)
   1344e: a2 64        	ld	s1, 0x8(sp)
   13450: 05 61        	addi	sp, sp, 0x20
   13452: 82 80        	ret
   13454: 2c 6c        	ld	a1, 0x58(s0)
   13456: 89 cd        	beqz	a1, 0x13470 <__srefill_r+0xb6>
   13458: 93 07 44 07  	addi	a5, s0, 0x74
   1345c: 63 85 f5 00  	beq	a1, a5, 0x13466 <__srefill_r+0xac>
   13460: 26 85        	mv	a0, s1
   13462: ef e0 9f ea  	jal	0x1230a <_free_r>
   13466: 3c 58        	lw	a5, 0x70(s0)
   13468: 23 3c 04 04  	sd	zero, 0x58(s0)
   1346c: 1c c4        	sw	a5, 0x8(s0)
   1346e: b9 e7        	bnez	a5, 0x134bc <__srefill_r+0x102>
   13470: 1c 6c        	ld	a5, 0x18(s0)
   13472: 4a e0        	sd	s2, 0x0(sp)
   13474: cd fb        	bnez	a5, 0x13426 <__srefill_r+0x6c>
   13476: a2 85        	mv	a1, s0
   13478: 26 85        	mv	a0, s1
   1347a: ef f0 bf d8  	jal	0x13204 <__smakebuf_r>
   1347e: 03 19 04 01  	lh	s2, 0x10(s0)
   13482: 93 77 39 00  	andi	a5, s2, 0x3
   13486: cd d7        	beqz	a5, 0x13430 <__srefill_r+0x76>
   13488: 85 47        	li	a5, 0x1
   1348a: 5d 66        	lui	a2, 0x17
   1348c: cd 65        	lui	a1, 0x13
   1348e: 5d 65        	lui	a0, 0x17
   13490: 23 18 f4 00  	sh	a5, 0x10(s0)
   13494: 13 06 06 22  	addi	a2, a2, 0x220
   13498: 93 85 25 3a  	addi	a1, a1, 0x3a2
   1349c: 13 05 85 23  	addi	a0, a0, 0x238
   134a0: ef d0 df f1  	jal	0x113bc <_fwalk_sglue>
   134a4: a5 47        	li	a5, 0x9
   134a6: 23 18 24 01  	sh	s2, 0x10(s0)
   134aa: 13 79 99 00  	andi	s2, s2, 0x9
   134ae: e3 11 f9 f8  	bne	s2, a5, 0x13430 <__srefill_r+0x76>
   134b2: a2 85        	mv	a1, s0
   134b4: 26 85        	mv	a0, s1
   134b6: ef f0 ef f4  	jal	0x12c04 <__sflush_r>
   134ba: 9d bf        	j	0x13430 <__srefill_r+0x76>
   134bc: 3c 74        	ld	a5, 0x68(s0)
   134be: 1c e0        	sd	a5, 0x0(s0)
   134c0: 61 b7        	j	0x13448 <__srefill_r+0x8e>
   134c2: a2 85        	mv	a1, s0
   134c4: 26 85        	mv	a0, s1
   134c6: ef f0 7f 8d  	jal	0x12d9c <_fflush_r>
   134ca: 0d e5        	bnez	a0, 0x134f4 <__srefill_r+0x13a>
   134cc: 83 17 04 01  	lh	a5, 0x10(s0)
   134d0: 4a e0        	sd	s2, 0x0(sp)
   134d2: 23 26 04 00  	sw	zero, 0xc(s0)
   134d6: 23 24 04 02  	sw	zero, 0x28(s0)
   134da: dd 9b        	andi	a5, a5, -0x9
   134dc: 3d bf        	j	0x1341a <__srefill_r+0x60>
   134de: ef d0 bf d6  	jal	0x11248 <__sinit>
   134e2: f5 b5        	j	0x133ce <__srefill_r+0x14>
   134e4: 83 17 04 01  	lh	a5, 0x10(s0)
   134e8: 05 e1        	bnez	a0, 0x13508 <__srefill_r+0x14e>
   134ea: 02 69        	ld	s2, 0x0(sp)
   134ec: 93 e7 07 02  	ori	a5, a5, 0x20
   134f0: 23 18 f4 00  	sh	a5, 0x10(s0)
   134f4: 7d 55        	li	a0, -0x1
   134f6: 91 bf        	j	0x1344a <__srefill_r+0x90>
   134f8: 25 47        	li	a4, 0x9
   134fa: 98 c0        	sw	a4, 0x0(s1)
   134fc: 93 e7 07 04  	ori	a5, a5, 0x40
   13500: 23 18 f4 00  	sh	a5, 0x10(s0)
   13504: 7d 55        	li	a0, -0x1
   13506: 91 b7        	j	0x1344a <__srefill_r+0x90>
   13508: 93 e7 07 04  	ori	a5, a5, 0x40
   1350c: 02 69        	ld	s2, 0x0(sp)
   1350e: 23 24 04 00  	sw	zero, 0x8(s0)
   13512: 23 18 f4 00  	sh	a5, 0x10(s0)
   13516: 7d 55        	li	a0, -0x1
   13518: 0d bf        	j	0x1344a <__srefill_r+0x90>

000000000001351a <memchr>:
   1351a: 93 77 75 00  	andi	a5, a0, 0x7
   1351e: 93 f6 f5 0f  	andi	a3, a1, 0xff
   13522: 95 c3        	beqz	a5, 0x13546 <memchr+0x2c>
   13524: 93 07 f6 ff  	addi	a5, a2, -0x1
   13528: 05 c6        	beqz	a2, 0x13550 <memchr+0x36>
   1352a: 7d 56        	li	a2, -0x1
   1352c: 01 a8        	j	0x1353c <memchr+0x22>
   1352e: 05 05        	addi	a0, a0, 0x1
   13530: 13 77 75 00  	andi	a4, a0, 0x7
   13534: 11 cb        	beqz	a4, 0x13548 <memchr+0x2e>
   13536: fd 17        	addi	a5, a5, -0x1
   13538: 63 8c c7 00  	beq	a5, a2, 0x13550 <memchr+0x36>
   1353c: 03 47 05 00  	lbu	a4, 0x0(a0)
   13540: e3 17 d7 fe  	bne	a4, a3, 0x1352e <memchr+0x14>
   13544: 82 80        	ret
   13546: b2 87        	mv	a5, a2
   13548: 1d 47        	li	a4, 0x7
   1354a: 63 65 f7 00  	bltu	a4, a5, 0x13554 <memchr+0x3a>
   1354e: bd e3        	bnez	a5, 0x135b4 <memchr+0x9a>
   13550: 01 45        	li	a0, 0x0
   13552: 82 80        	ret
   13554: 93 f5 f5 0f  	andi	a1, a1, 0xff
   13558: 37 18 10 f0  	lui	a6, 0xf0101
   1355c: 13 97 85 00  	slli	a4, a1, 0x8
   13560: b7 08 ff fe  	lui	a7, 0xfeff0
   13564: 12 08        	slli	a6, a6, 0x4
   13566: 2e 97        	add	a4, a4, a1
   13568: 93 88 f8 ef  	addi	a7, a7, -0x101
   1356c: 13 08 18 10  	addi	a6, a6, 0x101
   13570: 93 15 07 01  	slli	a1, a4, 0x10
   13574: c2 08        	slli	a7, a7, 0x10
   13576: 42 08        	slli	a6, a6, 0x10
   13578: ba 95        	add	a1, a1, a4
   1357a: 93 88 f8 ef  	addi	a7, a7, -0x101
   1357e: 13 08 18 10  	addi	a6, a6, 0x101
   13582: 13 97 05 02  	slli	a4, a1, 0x20
   13586: c2 08        	slli	a7, a7, 0x10
   13588: 3e 08        	slli	a6, a6, 0xf
   1358a: ba 95        	add	a1, a1, a4
   1358c: 93 88 f8 ef  	addi	a7, a7, -0x101
   13590: 13 08 08 08  	addi	a6, a6, 0x80
   13594: 1d 43        	li	t1, 0x7
   13596: 29 a0        	j	0x135a0 <memchr+0x86>
   13598: e1 17        	addi	a5, a5, -0x8
   1359a: 21 05        	addi	a0, a0, 0x8
   1359c: e3 79 f3 fa  	bgeu	t1, a5, 0x1354e <memchr+0x34>
   135a0: 18 61        	ld	a4, 0x0(a0)
   135a2: 2d 8f        	xor	a4, a4, a1
   135a4: 33 06 17 01  	add	a2, a4, a7
   135a8: 13 47 f7 ff  	not	a4, a4
   135ac: 71 8f        	and	a4, a4, a2
   135ae: 33 77 07 01  	and	a4, a4, a6
   135b2: 7d d3        	beqz	a4, 0x13598 <memchr+0x7e>
   135b4: aa 97        	add	a5, a5, a0
   135b6: 21 a0        	j	0x135be <memchr+0xa4>
   135b8: 05 05        	addi	a0, a0, 0x1
   135ba: e3 8b a7 f8  	beq	a5, a0, 0x13550 <memchr+0x36>
   135be: 03 47 05 00  	lbu	a4, 0x0(a0)
   135c2: e3 1b d7 fe  	bne	a4, a3, 0x135b8 <memchr+0x9e>
   135c6: 82 80        	ret

00000000000135c8 <_isatty_r>:
   135c8: 01 11        	addi	sp, sp, -0x20
   135ca: 22 e8        	sd	s0, 0x10(sp)
   135cc: 26 e4        	sd	s1, 0x8(sp)
   135ce: 2a 84        	mv	s0, a0
   135d0: 2e 85        	mv	a0, a1
   135d2: 06 ec        	sd	ra, 0x18(sp)
   135d4: 23 a4 01 1a  	sw	zero, 0x1a8(gp)
   135d8: ef 00 e0 65  	jal	0x13c36 <_isatty>
   135dc: fd 57        	li	a5, -0x1
   135de: 63 07 f5 00  	beq	a0, a5, 0x135ec <_isatty_r+0x24>
   135e2: e2 60        	ld	ra, 0x18(sp)
   135e4: 42 64        	ld	s0, 0x10(sp)
   135e6: a2 64        	ld	s1, 0x8(sp)
   135e8: 05 61        	addi	sp, sp, 0x20
   135ea: 82 80        	ret
   135ec: 83 a7 81 1a  	lw	a5, 0x1a8(gp)
   135f0: ed db        	beqz	a5, 0x135e2 <_isatty_r+0x1a>
   135f2: e2 60        	ld	ra, 0x18(sp)
   135f4: 1c c0        	sw	a5, 0x0(s0)
   135f6: 42 64        	ld	s0, 0x10(sp)
   135f8: a2 64        	ld	s1, 0x8(sp)
   135fa: 05 61        	addi	sp, sp, 0x20
   135fc: 82 80        	ret

00000000000135fe <_sbrk_r>:
   135fe: 01 11        	addi	sp, sp, -0x20
   13600: 22 e8        	sd	s0, 0x10(sp)
   13602: 26 e4        	sd	s1, 0x8(sp)
   13604: 2a 84        	mv	s0, a0
   13606: 2e 85        	mv	a0, a1
   13608: 06 ec        	sd	ra, 0x18(sp)
   1360a: 23 a4 01 1a  	sw	zero, 0x1a8(gp)
   1360e: ef 00 20 6d  	jal	0x13ce0 <_sbrk>
   13612: fd 57        	li	a5, -0x1
   13614: 63 07 f5 00  	beq	a0, a5, 0x13622 <_sbrk_r+0x24>
   13618: e2 60        	ld	ra, 0x18(sp)
   1361a: 42 64        	ld	s0, 0x10(sp)
   1361c: a2 64        	ld	s1, 0x8(sp)
   1361e: 05 61        	addi	sp, sp, 0x20
   13620: 82 80        	ret
   13622: 83 a7 81 1a  	lw	a5, 0x1a8(gp)
   13626: ed db        	beqz	a5, 0x13618 <_sbrk_r+0x1a>
   13628: e2 60        	ld	ra, 0x18(sp)
   1362a: 1c c0        	sw	a5, 0x0(s0)
   1362c: 42 64        	ld	s0, 0x10(sp)
   1362e: a2 64        	ld	s1, 0x8(sp)
   13630: 05 61        	addi	sp, sp, 0x20
   13632: 82 80        	ret

0000000000013634 <__libc_fini_array>:
   13634: 01 11        	addi	sp, sp, -0x20
   13636: 22 e8        	sd	s0, 0x10(sp)
   13638: dd 67        	lui	a5, 0x17
   1363a: 5d 64        	lui	s0, 0x17
   1363c: 93 87 87 21  	addi	a5, a5, 0x218
   13640: 13 04 04 22  	addi	s0, s0, 0x220
   13644: 1d 8c        	sub	s0, s0, a5
   13646: 26 e4        	sd	s1, 0x8(sp)
   13648: 06 ec        	sd	ra, 0x18(sp)
   1364a: 93 54 34 40  	srai	s1, s0, 0x3
   1364e: 81 c8        	beqz	s1, 0x1365e <__libc_fini_array+0x2a>
   13650: 61 14        	addi	s0, s0, -0x8
   13652: 3e 94        	add	s0, s0, a5
   13654: 1c 60        	ld	a5, 0x0(s0)
   13656: fd 14        	addi	s1, s1, -0x1
   13658: 61 14        	addi	s0, s0, -0x8
   1365a: 82 97        	jalr	a5
   1365c: e5 fc        	bnez	s1, 0x13654 <__libc_fini_array+0x20>
   1365e: e2 60        	ld	ra, 0x18(sp)
   13660: 42 64        	ld	s0, 0x10(sp)
   13662: a2 64        	ld	s1, 0x8(sp)
   13664: 05 61        	addi	sp, sp, 0x20
   13666: 82 80        	ret

0000000000013668 <memmove>:
   13668: 63 f2 a5 02  	bgeu	a1, a0, 0x1368c <memmove+0x24>
   1366c: 33 87 c5 00  	add	a4, a1, a2
   13670: 63 7e e5 00  	bgeu	a0, a4, 0x1368c <memmove+0x24>
   13674: b3 07 c5 00  	add	a5, a0, a2
   13678: 1d ca        	beqz	a2, 0x136ae <memmove+0x46>
   1367a: 83 46 f7 ff  	lbu	a3, -0x1(a4)
   1367e: fd 17        	addi	a5, a5, -0x1
   13680: 7d 17        	addi	a4, a4, -0x1
   13682: 23 80 d7 00  	sb	a3, 0x0(a5)
   13686: e3 1a f5 fe  	bne	a0, a5, 0x1367a <memmove+0x12>
   1368a: 82 80        	ret
   1368c: fd 47        	li	a5, 0x1f
   1368e: 63 e1 c7 02  	bltu	a5, a2, 0x136b0 <memmove+0x48>
   13692: aa 87        	mv	a5, a0
   13694: 93 06 f6 ff  	addi	a3, a2, -0x1
   13698: 51 ce        	beqz	a2, 0x13734 <memmove+0xcc>
   1369a: 85 06        	addi	a3, a3, 0x1
   1369c: be 96        	add	a3, a3, a5
   1369e: 03 c7 05 00  	lbu	a4, 0x0(a1)
   136a2: 85 07        	addi	a5, a5, 0x1
   136a4: 85 05        	addi	a1, a1, 0x1
   136a6: a3 8f e7 fe  	sb	a4, -0x1(a5)
   136aa: e3 9a d7 fe  	bne	a5, a3, 0x1369e <memmove+0x36>
   136ae: 82 80        	ret
   136b0: b3 67 b5 00  	or	a5, a0, a1
   136b4: 9d 8b        	andi	a5, a5, 0x7
   136b6: bd eb        	bnez	a5, 0x1372c <memmove+0xc4>
   136b8: 93 08 06 fe  	addi	a7, a2, -0x20
   136bc: 93 f8 08 fe  	andi	a7, a7, -0x20
   136c0: 93 88 08 02  	addi	a7, a7, 0x20
   136c4: b3 06 15 01  	add	a3, a0, a7
   136c8: 2e 87        	mv	a4, a1
   136ca: aa 87        	mv	a5, a0
   136cc: 03 38 07 00  	ld	a6, 0x0(a4)
   136d0: 13 07 07 02  	addi	a4, a4, 0x20
   136d4: 93 87 07 02  	addi	a5, a5, 0x20
   136d8: 23 b0 07 ff  	sd	a6, -0x20(a5)
   136dc: 03 38 87 fe  	ld	a6, -0x18(a4)
   136e0: 23 b4 07 ff  	sd	a6, -0x18(a5)
   136e4: 03 38 07 ff  	ld	a6, -0x10(a4)
   136e8: 23 b8 07 ff  	sd	a6, -0x10(a5)
   136ec: 03 38 87 ff  	ld	a6, -0x8(a4)
   136f0: 23 bc 07 ff  	sd	a6, -0x8(a5)
   136f4: e3 9c d7 fc  	bne	a5, a3, 0x136cc <memmove+0x64>
   136f8: 13 78 86 01  	andi	a6, a2, 0x18
   136fc: c6 95        	add	a1, a1, a7
   136fe: 13 77 f6 01  	andi	a4, a2, 0x1f
   13702: 63 0a 08 02  	beqz	a6, 0x13736 <memmove+0xce>
   13706: 13 08 87 ff  	addi	a6, a4, -0x8
   1370a: 13 78 88 ff  	andi	a6, a6, -0x8
   1370e: 21 08        	addi	a6, a6, 0x8
   13710: b3 87 06 01  	add	a5, a3, a6
   13714: 2e 87        	mv	a4, a1
   13716: 83 38 07 00  	ld	a7, 0x0(a4)
   1371a: a1 06        	addi	a3, a3, 0x8
   1371c: 21 07        	addi	a4, a4, 0x8
   1371e: 23 bc 16 ff  	sd	a7, -0x8(a3)
   13722: e3 9a f6 fe  	bne	a3, a5, 0x13716 <memmove+0xae>
   13726: 1d 8a        	andi	a2, a2, 0x7
   13728: c2 95        	add	a1, a1, a6
   1372a: ad b7        	j	0x13694 <memmove+0x2c>
   1372c: 93 06 f6 ff  	addi	a3, a2, -0x1
   13730: aa 87        	mv	a5, a0
   13732: a5 b7        	j	0x1369a <memmove+0x32>
   13734: 82 80        	ret
   13736: 3a 86        	mv	a2, a4
   13738: b1 bf        	j	0x13694 <memmove+0x2c>

000000000001373a <__register_exitproc>:
   1373a: 83 b7 01 1b  	ld	a5, 0x1b0(gp)
   1373e: b1 c3        	beqz	a5, 0x13782 <__register_exitproc+0x48>
   13740: 98 47        	lw	a4, 0x8(a5)
   13742: 7d 48        	li	a6, 0x1f
   13744: 63 44 e8 06  	blt	a6, a4, 0x137ac <__register_exitproc+0x72>
   13748: 05 c5        	beqz	a0, 0x13770 <__register_exitproc+0x36>
   1374a: 13 18 37 00  	slli	a6, a4, 0x3
   1374e: 3e 98        	add	a6, a6, a5
   13750: 23 38 c8 10  	sd	a2, 0x110(a6)
   13754: 83 a8 07 31  	lw	a7, 0x310(a5)
   13758: 05 46        	li	a2, 0x1
   1375a: 3b 16 e6 00  	sllw	a2, a2, a4
   1375e: b3 e8 c8 00  	or	a7, a7, a2
   13762: 23 a8 17 31  	sw	a7, 0x310(a5)
   13766: 23 38 d8 20  	sd	a3, 0x210(a6)
   1376a: 89 46        	li	a3, 0x2
   1376c: 63 02 d5 02  	beq	a0, a3, 0x13790 <__register_exitproc+0x56>
   13770: 93 06 27 00  	addi	a3, a4, 0x2
   13774: 8e 06        	slli	a3, a3, 0x3
   13776: 05 27        	addiw	a4, a4, 0x1
   13778: 98 c7        	sw	a4, 0x8(a5)
   1377a: b6 97        	add	a5, a5, a3
   1377c: 8c e3        	sd	a1, 0x0(a5)
   1377e: 01 45        	li	a0, 0x0
   13780: 82 80        	ret
   13782: 13 88 81 44  	addi	a6, gp, 0x448
   13786: 23 b8 01 1b  	sd	a6, 0x1b0(gp)
   1378a: 93 87 81 44  	addi	a5, gp, 0x448
   1378e: 4d bf        	j	0x13740 <__register_exitproc+0x6>
   13790: 83 a6 47 31  	lw	a3, 0x314(a5)
   13794: 01 45        	li	a0, 0x0
   13796: d1 8e        	or	a3, a3, a2
   13798: 23 aa d7 30  	sw	a3, 0x314(a5)
   1379c: 93 06 27 00  	addi	a3, a4, 0x2
   137a0: 8e 06        	slli	a3, a3, 0x3
   137a2: 05 27        	addiw	a4, a4, 0x1
   137a4: 98 c7        	sw	a4, 0x8(a5)
   137a6: b6 97        	add	a5, a5, a3
   137a8: 8c e3        	sd	a1, 0x0(a5)
   137aa: 82 80        	ret
   137ac: 7d 55        	li	a0, -0x1
   137ae: 82 80        	ret

00000000000137b0 <_realloc_r>:
   137b0: 5d 71        	addi	sp, sp, -0x50
   137b2: 4a f8        	sd	s2, 0x30(sp)
   137b4: 86 e4        	sd	ra, 0x48(sp)
   137b6: 32 89        	mv	s2, a2
   137b8: 63 83 05 16  	beqz	a1, 0x1391e <_realloc_r+0x16e>
   137bc: a2 e0        	sd	s0, 0x40(sp)
   137be: 26 fc        	sd	s1, 0x38(sp)
   137c0: 2e 84        	mv	s0, a1
   137c2: 4e f4        	sd	s3, 0x28(sp)
   137c4: 52 f0        	sd	s4, 0x20(sp)
   137c6: 56 ec        	sd	s5, 0x18(sp)
   137c8: aa 89        	mv	s3, a0
   137ca: ef f0 6f b8  	jal	0x12b50 <__malloc_lock>
   137ce: 83 37 84 ff  	ld	a5, -0x8(s0)
   137d2: 93 04 79 01  	addi	s1, s2, 0x17
   137d6: 13 07 e0 02  	li	a4, 0x2e
   137da: 93 0a 04 ff  	addi	s5, s0, -0x10
   137de: 13 fa c7 ff  	andi	s4, a5, -0x4
   137e2: 63 73 97 0c  	bgeu	a4, s1, 0x138a8 <_realloc_r+0xf8>
   137e6: 37 07 00 80  	lui	a4, 0x80000
   137ea: c1 98        	andi	s1, s1, -0x10
   137ec: 13 47 f7 ff  	not	a4, a4
   137f0: 63 60 97 0c  	bltu	a4, s1, 0x138b0 <_realloc_r+0x100>
   137f4: 63 ee 24 0b  	bltu	s1, s2, 0x138b0 <_realloc_r+0x100>
   137f8: 63 57 9a 0c  	bge	s4, s1, 0x138c6 <_realloc_r+0x116>
   137fc: 5d 67        	lui	a4, 0x17
   137fe: 62 e0        	sd	s8, 0x0(sp)
   13800: 13 0c 07 39  	addi	s8, a4, 0x390
   13804: 03 36 0c 01  	ld	a2, 0x10(s8)
   13808: b3 86 4a 01  	add	a3, s5, s4
   1380c: 98 66        	ld	a4, 0x8(a3)
   1380e: 63 0f d6 12  	beq	a2, a3, 0x1394c <_realloc_r+0x19c>
   13812: 13 76 e7 ff  	andi	a2, a4, -0x2
   13816: 36 96        	add	a2, a2, a3
   13818: 10 66        	ld	a2, 0x8(a2)
   1381a: 05 8a        	andi	a2, a2, 0x1
   1381c: 6d e6        	bnez	a2, 0x13906 <_realloc_r+0x156>
   1381e: 71 9b        	andi	a4, a4, -0x4
   13820: 33 06 ea 00  	add	a2, s4, a4
   13824: 63 5b 96 08  	bge	a2, s1, 0x138ba <_realloc_r+0x10a>
   13828: 85 8b        	andi	a5, a5, 0x1
   1382a: 8d e7        	bnez	a5, 0x13854 <_realloc_r+0xa4>
   1382c: 5e e4        	sd	s7, 0x8(sp)
   1382e: 83 3b 04 ff  	ld	s7, -0x10(s0)
   13832: 5a e8        	sd	s6, 0x10(sp)
   13834: b3 8b 7a 41  	sub	s7, s5, s7
   13838: 83 b7 8b 00  	ld	a5, 0x8(s7)
   1383c: f1 9b        	andi	a5, a5, -0x4
   1383e: 3e 97        	add	a4, a4, a5
   13840: 33 0b 47 01  	add	s6, a4, s4
   13844: 63 55 9b 24  	bge	s6, s1, 0x13a8e <_realloc_r+0x2de>
   13848: 33 0b fa 00  	add	s6, s4, a5
   1384c: 63 57 9b 1c  	bge	s6, s1, 0x13a1a <_realloc_r+0x26a>
   13850: 42 6b        	ld	s6, 0x10(sp)
   13852: a2 6b        	ld	s7, 0x8(sp)
   13854: ca 85        	mv	a1, s2
   13856: 4e 85        	mv	a0, s3
   13858: ef e0 7f cf  	jal	0x1254e <_malloc_r>
   1385c: 2a 89        	mv	s2, a0
   1385e: 63 08 05 2e  	beqz	a0, 0x13b4e <_realloc_r+0x39e>
   13862: 83 37 84 ff  	ld	a5, -0x8(s0)
   13866: 13 07 05 ff  	addi	a4, a0, -0x10
   1386a: f9 9b        	andi	a5, a5, -0x2
   1386c: d6 97        	add	a5, a5, s5
   1386e: 63 80 e7 1a  	beq	a5, a4, 0x13a0e <_realloc_r+0x25e>
   13872: 13 06 8a ff  	addi	a2, s4, -0x8
   13876: 93 07 80 04  	li	a5, 0x48
   1387a: 63 e6 c7 20  	bltu	a5, a2, 0x13a86 <_realloc_r+0x2d6>
   1387e: 13 07 70 02  	li	a4, 0x27
   13882: 63 69 c7 16  	bltu	a4, a2, 0x139f4 <_realloc_r+0x244>
   13886: aa 87        	mv	a5, a0
   13888: 22 87        	mv	a4, s0
   1388a: 14 63        	ld	a3, 0x0(a4)
   1388c: 94 e3        	sd	a3, 0x0(a5)
   1388e: 14 67        	ld	a3, 0x8(a4)
   13890: 94 e7        	sd	a3, 0x8(a5)
   13892: 18 6b        	ld	a4, 0x10(a4)
   13894: 98 eb        	sd	a4, 0x10(a5)
   13896: a2 85        	mv	a1, s0
   13898: 4e 85        	mv	a0, s3
   1389a: ef e0 1f a7  	jal	0x1230a <_free_r>
   1389e: 4e 85        	mv	a0, s3
   138a0: ef f0 2f ab  	jal	0x12b52 <__malloc_unlock>
   138a4: 02 6c        	ld	s8, 0x0(sp)
   138a6: b1 a0        	j	0x138f2 <_realloc_r+0x142>
   138a8: 93 04 00 02  	li	s1, 0x20
   138ac: e3 f6 24 f5  	bgeu	s1, s2, 0x137f8 <_realloc_r+0x48>
   138b0: b1 47        	li	a5, 0xc
   138b2: 23 a0 f9 00  	sw	a5, 0x0(s3)
   138b6: 01 49        	li	s2, 0x0
   138b8: 2d a8        	j	0x138f2 <_realloc_r+0x142>
   138ba: 9c 6e        	ld	a5, 0x18(a3)
   138bc: 98 6a        	ld	a4, 0x10(a3)
   138be: 02 6c        	ld	s8, 0x0(sp)
   138c0: 32 8a        	mv	s4, a2
   138c2: 1c ef        	sd	a5, 0x18(a4)
   138c4: 98 eb        	sd	a4, 0x10(a5)
   138c6: 83 b7 8a 00  	ld	a5, 0x8(s5)
   138ca: b3 06 9a 40  	sub	a3, s4, s1
   138ce: 7d 46        	li	a2, 0x1f
   138d0: 85 8b        	andi	a5, a5, 0x1
   138d2: 33 87 4a 01  	add	a4, s5, s4
   138d6: 63 6a d6 04  	bltu	a2, a3, 0x1392a <_realloc_r+0x17a>
   138da: b3 e7 47 01  	or	a5, a5, s4
   138de: 23 b4 fa 00  	sd	a5, 0x8(s5)
   138e2: 1c 67        	ld	a5, 0x8(a4)
   138e4: 93 e7 17 00  	ori	a5, a5, 0x1
   138e8: 1c e7        	sd	a5, 0x8(a4)
   138ea: 4e 85        	mv	a0, s3
   138ec: ef f0 6f a6  	jal	0x12b52 <__malloc_unlock>
   138f0: 22 89        	mv	s2, s0
   138f2: 06 64        	ld	s0, 0x40(sp)
   138f4: a6 60        	ld	ra, 0x48(sp)
   138f6: e2 74        	ld	s1, 0x38(sp)
   138f8: a2 79        	ld	s3, 0x28(sp)
   138fa: 02 7a        	ld	s4, 0x20(sp)
   138fc: e2 6a        	ld	s5, 0x18(sp)
   138fe: 4a 85        	mv	a0, s2
   13900: 42 79        	ld	s2, 0x30(sp)
   13902: 61 61        	addi	sp, sp, 0x50
   13904: 82 80        	ret
   13906: 85 8b        	andi	a5, a5, 0x1
   13908: b1 f7        	bnez	a5, 0x13854 <_realloc_r+0xa4>
   1390a: 5e e4        	sd	s7, 0x8(sp)
   1390c: 83 3b 04 ff  	ld	s7, -0x10(s0)
   13910: 5a e8        	sd	s6, 0x10(sp)
   13912: b3 8b 7a 41  	sub	s7, s5, s7
   13916: 83 b7 8b 00  	ld	a5, 0x8(s7)
   1391a: f1 9b        	andi	a5, a5, -0x4
   1391c: 35 b7        	j	0x13848 <_realloc_r+0x98>
   1391e: a6 60        	ld	ra, 0x48(sp)
   13920: 42 79        	ld	s2, 0x30(sp)
   13922: b2 85        	mv	a1, a2
   13924: 61 61        	addi	sp, sp, 0x50
   13926: 6f e0 9f c2  	j	0x1254e <_malloc_r>
   1392a: c5 8f        	or	a5, a5, s1
   1392c: 23 b4 fa 00  	sd	a5, 0x8(s5)
   13930: b3 85 9a 00  	add	a1, s5, s1
   13934: 93 e6 16 00  	ori	a3, a3, 0x1
   13938: 94 e5        	sd	a3, 0x8(a1)
   1393a: 1c 67        	ld	a5, 0x8(a4)
   1393c: c1 05        	addi	a1, a1, 0x10
   1393e: 4e 85        	mv	a0, s3
   13940: 93 e7 17 00  	ori	a5, a5, 0x1
   13944: 1c e7        	sd	a5, 0x8(a4)
   13946: ef e0 5f 9c  	jal	0x1230a <_free_r>
   1394a: 45 b7        	j	0x138ea <_realloc_r+0x13a>
   1394c: 71 9b        	andi	a4, a4, -0x4
   1394e: b3 06 47 01  	add	a3, a4, s4
   13952: 13 86 04 02  	addi	a2, s1, 0x20
   13956: 63 d3 c6 1c  	bge	a3, a2, 0x13b1c <_realloc_r+0x36c>
   1395a: 85 8b        	andi	a5, a5, 0x1
   1395c: e3 9c 07 ee  	bnez	a5, 0x13854 <_realloc_r+0xa4>
   13960: 5e e4        	sd	s7, 0x8(sp)
   13962: 83 3b 04 ff  	ld	s7, -0x10(s0)
   13966: 5a e8        	sd	s6, 0x10(sp)
   13968: b3 8b 7a 41  	sub	s7, s5, s7
   1396c: 83 b7 8b 00  	ld	a5, 0x8(s7)
   13970: f1 9b        	andi	a5, a5, -0x4
   13972: 3e 97        	add	a4, a4, a5
   13974: 33 0b 47 01  	add	s6, a4, s4
   13978: e3 48 cb ec  	blt	s6, a2, 0x13848 <_realloc_r+0x98>
   1397c: 83 b7 8b 01  	ld	a5, 0x18(s7)
   13980: 03 b7 0b 01  	ld	a4, 0x10(s7)
   13984: 13 06 8a ff  	addi	a2, s4, -0x8
   13988: 93 06 80 04  	li	a3, 0x48
   1398c: 1c ef        	sd	a5, 0x18(a4)
   1398e: 98 eb        	sd	a4, 0x10(a5)
   13990: 13 89 0b 01  	addi	s2, s7, 0x10
   13994: 63 ec c6 1c  	bltu	a3, a2, 0x13b6c <_realloc_r+0x3bc>
   13998: 13 07 70 02  	li	a4, 0x27
   1399c: ca 87        	mv	a5, s2
   1399e: 63 7f c7 00  	bgeu	a4, a2, 0x139bc <_realloc_r+0x20c>
   139a2: 18 60        	ld	a4, 0x0(s0)
   139a4: 93 07 70 03  	li	a5, 0x37
   139a8: 23 b8 eb 00  	sd	a4, 0x10(s7)
   139ac: 18 64        	ld	a4, 0x8(s0)
   139ae: 23 bc eb 00  	sd	a4, 0x18(s7)
   139b2: 63 e2 c7 1c  	bltu	a5, a2, 0x13b76 <_realloc_r+0x3c6>
   139b6: 41 04        	addi	s0, s0, 0x10
   139b8: 93 87 0b 02  	addi	a5, s7, 0x20
   139bc: 18 60        	ld	a4, 0x0(s0)
   139be: 98 e3        	sd	a4, 0x0(a5)
   139c0: 18 64        	ld	a4, 0x8(s0)
   139c2: 98 e7        	sd	a4, 0x8(a5)
   139c4: 18 68        	ld	a4, 0x10(s0)
   139c6: 98 eb        	sd	a4, 0x10(a5)
   139c8: 33 87 9b 00  	add	a4, s7, s1
   139cc: b3 07 9b 40  	sub	a5, s6, s1
   139d0: 23 38 ec 00  	sd	a4, 0x10(s8)
   139d4: 93 e7 17 00  	ori	a5, a5, 0x1
   139d8: 1c e7        	sd	a5, 0x8(a4)
   139da: 83 b7 8b 00  	ld	a5, 0x8(s7)
   139de: 4e 85        	mv	a0, s3
   139e0: 85 8b        	andi	a5, a5, 0x1
   139e2: c5 8f        	or	a5, a5, s1
   139e4: 23 b4 fb 00  	sd	a5, 0x8(s7)
   139e8: ef f0 af 96  	jal	0x12b52 <__malloc_unlock>
   139ec: 42 6b        	ld	s6, 0x10(sp)
   139ee: a2 6b        	ld	s7, 0x8(sp)
   139f0: 02 6c        	ld	s8, 0x0(sp)
   139f2: 01 b7        	j	0x138f2 <_realloc_r+0x142>
   139f4: 14 60        	ld	a3, 0x0(s0)
   139f6: 13 07 70 03  	li	a4, 0x37
   139fa: 14 e1        	sd	a3, 0x0(a0)
   139fc: 14 64        	ld	a3, 0x8(s0)
   139fe: 14 e5        	sd	a3, 0x8(a0)
   13a00: 63 63 c7 10  	bltu	a4, a2, 0x13b06 <_realloc_r+0x356>
   13a04: 13 07 04 01  	addi	a4, s0, 0x10
   13a08: 93 07 05 01  	addi	a5, a0, 0x10
   13a0c: bd bd        	j	0x1388a <_realloc_r+0xda>
   13a0e: 83 37 85 ff  	ld	a5, -0x8(a0)
   13a12: 02 6c        	ld	s8, 0x0(sp)
   13a14: f1 9b        	andi	a5, a5, -0x4
   13a16: 3e 9a        	add	s4, s4, a5
   13a18: 7d b5        	j	0x138c6 <_realloc_r+0x116>
   13a1a: 83 b7 8b 01  	ld	a5, 0x18(s7)
   13a1e: 03 b7 0b 01  	ld	a4, 0x10(s7)
   13a22: 13 06 8a ff  	addi	a2, s4, -0x8
   13a26: 93 06 80 04  	li	a3, 0x48
   13a2a: 1c ef        	sd	a5, 0x18(a4)
   13a2c: 98 eb        	sd	a4, 0x10(a5)
   13a2e: 13 89 0b 01  	addi	s2, s7, 0x10
   13a32: 63 e5 c6 0c  	bltu	a3, a2, 0x13afc <_realloc_r+0x34c>
   13a36: 13 07 70 02  	li	a4, 0x27
   13a3a: ca 87        	mv	a5, s2
   13a3c: 63 78 c7 02  	bgeu	a4, a2, 0x13a6c <_realloc_r+0x2bc>
   13a40: 18 60        	ld	a4, 0x0(s0)
   13a42: 93 07 70 03  	li	a5, 0x37
   13a46: 23 b8 eb 00  	sd	a4, 0x10(s7)
   13a4a: 18 64        	ld	a4, 0x8(s0)
   13a4c: 23 bc eb 00  	sd	a4, 0x18(s7)
   13a50: 63 fb c7 0e  	bgeu	a5, a2, 0x13b46 <_realloc_r+0x396>
   13a54: 1c 68        	ld	a5, 0x10(s0)
   13a56: 23 b0 fb 02  	sd	a5, 0x20(s7)
   13a5a: 1c 6c        	ld	a5, 0x18(s0)
   13a5c: 23 b4 fb 02  	sd	a5, 0x28(s7)
   13a60: 63 02 d6 08  	beq	a2, a3, 0x13ae4 <_realloc_r+0x334>
   13a64: 13 04 04 02  	addi	s0, s0, 0x20
   13a68: 93 87 0b 03  	addi	a5, s7, 0x30
   13a6c: 18 60        	ld	a4, 0x0(s0)
   13a6e: 98 e3        	sd	a4, 0x0(a5)
   13a70: 18 64        	ld	a4, 0x8(s0)
   13a72: 98 e7        	sd	a4, 0x8(a5)
   13a74: 18 68        	ld	a4, 0x10(s0)
   13a76: 98 eb        	sd	a4, 0x10(a5)
   13a78: 5a 8a        	mv	s4, s6
   13a7a: de 8a        	mv	s5, s7
   13a7c: 42 6b        	ld	s6, 0x10(sp)
   13a7e: a2 6b        	ld	s7, 0x8(sp)
   13a80: 02 6c        	ld	s8, 0x0(sp)
   13a82: 4a 84        	mv	s0, s2
   13a84: 89 b5        	j	0x138c6 <_realloc_r+0x116>
   13a86: a2 85        	mv	a1, s0
   13a88: ef f0 1f be  	jal	0x13668 <memmove>
   13a8c: 29 b5        	j	0x13896 <_realloc_r+0xe6>
   13a8e: 9c 6e        	ld	a5, 0x18(a3)
   13a90: 98 6a        	ld	a4, 0x10(a3)
   13a92: 13 06 8a ff  	addi	a2, s4, -0x8
   13a96: 93 06 80 04  	li	a3, 0x48
   13a9a: 1c ef        	sd	a5, 0x18(a4)
   13a9c: 98 eb        	sd	a4, 0x10(a5)
   13a9e: 03 b7 0b 01  	ld	a4, 0x10(s7)
   13aa2: 83 b7 8b 01  	ld	a5, 0x18(s7)
   13aa6: 13 89 0b 01  	addi	s2, s7, 0x10
   13aaa: 1c ef        	sd	a5, 0x18(a4)
   13aac: 98 eb        	sd	a4, 0x10(a5)
   13aae: 63 e7 c6 04  	bltu	a3, a2, 0x13afc <_realloc_r+0x34c>
   13ab2: 13 07 70 02  	li	a4, 0x27
   13ab6: ca 87        	mv	a5, s2
   13ab8: e3 7a c7 fa  	bgeu	a4, a2, 0x13a6c <_realloc_r+0x2bc>
   13abc: 18 60        	ld	a4, 0x0(s0)
   13abe: 93 07 70 03  	li	a5, 0x37
   13ac2: 23 b8 eb 00  	sd	a4, 0x10(s7)
   13ac6: 18 64        	ld	a4, 0x8(s0)
   13ac8: 23 bc eb 00  	sd	a4, 0x18(s7)
   13acc: 63 fd c7 06  	bgeu	a5, a2, 0x13b46 <_realloc_r+0x396>
   13ad0: 18 68        	ld	a4, 0x10(s0)
   13ad2: 93 07 80 04  	li	a5, 0x48
   13ad6: 23 b0 eb 02  	sd	a4, 0x20(s7)
   13ada: 18 6c        	ld	a4, 0x18(s0)
   13adc: 23 b4 eb 02  	sd	a4, 0x28(s7)
   13ae0: e3 12 f6 f8  	bne	a2, a5, 0x13a64 <_realloc_r+0x2b4>
   13ae4: 18 70        	ld	a4, 0x20(s0)
   13ae6: 93 87 0b 04  	addi	a5, s7, 0x40
   13aea: 13 04 04 03  	addi	s0, s0, 0x30
   13aee: 23 b8 eb 02  	sd	a4, 0x30(s7)
   13af2: 03 37 84 ff  	ld	a4, -0x8(s0)
   13af6: 23 bc eb 02  	sd	a4, 0x38(s7)
   13afa: 8d bf        	j	0x13a6c <_realloc_r+0x2bc>
   13afc: a2 85        	mv	a1, s0
   13afe: 4a 85        	mv	a0, s2
   13b00: ef f0 9f b6  	jal	0x13668 <memmove>
   13b04: 95 bf        	j	0x13a78 <_realloc_r+0x2c8>
   13b06: 18 68        	ld	a4, 0x10(s0)
   13b08: 18 e9        	sd	a4, 0x10(a0)
   13b0a: 18 6c        	ld	a4, 0x18(s0)
   13b0c: 18 ed        	sd	a4, 0x18(a0)
   13b0e: 63 06 f6 04  	beq	a2, a5, 0x13b5a <_realloc_r+0x3aa>
   13b12: 13 07 04 02  	addi	a4, s0, 0x20
   13b16: 93 07 05 02  	addi	a5, a0, 0x20
   13b1a: 85 bb        	j	0x1388a <_realloc_r+0xda>
   13b1c: a6 9a        	add	s5, s5, s1
   13b1e: b3 87 96 40  	sub	a5, a3, s1
   13b22: 23 38 5c 01  	sd	s5, 0x10(s8)
   13b26: 93 e7 17 00  	ori	a5, a5, 0x1
   13b2a: 23 b4 fa 00  	sd	a5, 0x8(s5)
   13b2e: 83 37 84 ff  	ld	a5, -0x8(s0)
   13b32: 4e 85        	mv	a0, s3
   13b34: 22 89        	mv	s2, s0
   13b36: 85 8b        	andi	a5, a5, 0x1
   13b38: c5 8f        	or	a5, a5, s1
   13b3a: 23 3c f4 fe  	sd	a5, -0x8(s0)
   13b3e: ef f0 4f 81  	jal	0x12b52 <__malloc_unlock>
   13b42: 02 6c        	ld	s8, 0x0(sp)
   13b44: 7d b3        	j	0x138f2 <_realloc_r+0x142>
   13b46: 41 04        	addi	s0, s0, 0x10
   13b48: 93 87 0b 02  	addi	a5, s7, 0x20
   13b4c: 05 b7        	j	0x13a6c <_realloc_r+0x2bc>
   13b4e: 4e 85        	mv	a0, s3
   13b50: ef f0 2f 80  	jal	0x12b52 <__malloc_unlock>
   13b54: 01 49        	li	s2, 0x0
   13b56: 02 6c        	ld	s8, 0x0(sp)
   13b58: 69 bb        	j	0x138f2 <_realloc_r+0x142>
   13b5a: 14 70        	ld	a3, 0x20(s0)
   13b5c: 13 07 04 03  	addi	a4, s0, 0x30
   13b60: 93 07 05 03  	addi	a5, a0, 0x30
   13b64: 14 f1        	sd	a3, 0x20(a0)
   13b66: 14 74        	ld	a3, 0x28(s0)
   13b68: 14 f5        	sd	a3, 0x28(a0)
   13b6a: 05 b3        	j	0x1388a <_realloc_r+0xda>
   13b6c: a2 85        	mv	a1, s0
   13b6e: 4a 85        	mv	a0, s2
   13b70: ef f0 9f af  	jal	0x13668 <memmove>
   13b74: 91 bd        	j	0x139c8 <_realloc_r+0x218>
   13b76: 1c 68        	ld	a5, 0x10(s0)
   13b78: 23 b0 fb 02  	sd	a5, 0x20(s7)
   13b7c: 1c 6c        	ld	a5, 0x18(s0)
   13b7e: 23 b4 fb 02  	sd	a5, 0x28(s7)
   13b82: 63 07 d6 00  	beq	a2, a3, 0x13b90 <_realloc_r+0x3e0>
   13b86: 13 04 04 02  	addi	s0, s0, 0x20
   13b8a: 93 87 0b 03  	addi	a5, s7, 0x30
   13b8e: 3d b5        	j	0x139bc <_realloc_r+0x20c>
   13b90: 18 70        	ld	a4, 0x20(s0)
   13b92: 93 87 0b 04  	addi	a5, s7, 0x40
   13b96: 13 04 04 03  	addi	s0, s0, 0x30
   13b9a: 23 b8 eb 02  	sd	a4, 0x30(s7)
   13b9e: 03 37 84 ff  	ld	a4, -0x8(s0)
   13ba2: 23 bc eb 02  	sd	a4, 0x38(s7)
   13ba6: 19 bd        	j	0x139bc <_realloc_r+0x20c>

0000000000013ba8 <_close>:
   13ba8: 41 11        	addi	sp, sp, -0x10
   13baa: 06 e4        	sd	ra, 0x8(sp)
   13bac: 22 e0        	sd	s0, 0x0(sp)
   13bae: 93 08 90 03  	li	a7, 0x39
   13bb2: 73 00 00 00  	ecall
   13bb6: 2a 84        	mv	s0, a0
   13bb8: 63 47 05 00  	bltz	a0, 0x13bc6 <_close+0x1e>
   13bbc: 01 25        	sext.w	a0, a0
   13bbe: a2 60        	ld	ra, 0x8(sp)
   13bc0: 02 64        	ld	s0, 0x0(sp)
   13bc2: 41 01        	addi	sp, sp, 0x10
   13bc4: 82 80        	ret
   13bc6: ef 00 80 1e  	jal	0x13dae <__errno>
   13bca: 3b 04 80 40  	negw	s0, s0
   13bce: 00 c1        	sw	s0, 0x0(a0)
   13bd0: 7d 55        	li	a0, -0x1
   13bd2: f5 b7        	j	0x13bbe <_close+0x16>

0000000000013bd4 <_exit>:
   13bd4: 93 08 d0 05  	li	a7, 0x5d
   13bd8: 73 00 00 00  	ecall
   13bdc: 63 43 05 00  	bltz	a0, 0x13be2 <_exit+0xe>
   13be0: 01 a0        	j	0x13be0 <_exit+0xc>
   13be2: 41 11        	addi	sp, sp, -0x10
   13be4: 22 e0        	sd	s0, 0x0(sp)
   13be6: 2a 84        	mv	s0, a0
   13be8: 06 e4        	sd	ra, 0x8(sp)
   13bea: 3b 04 80 40  	negw	s0, s0
   13bee: ef 00 00 1c  	jal	0x13dae <__errno>
   13bf2: 00 c1        	sw	s0, 0x0(a0)
   13bf4: 01 a0        	j	0x13bf4 <_exit+0x20>

0000000000013bf6 <_fstat>:
   13bf6: 35 71        	addi	sp, sp, -0xa0
   13bf8: 26 e5        	sd	s1, 0x88(sp)
   13bfa: 06 ed        	sd	ra, 0x98(sp)
   13bfc: ae 84        	mv	s1, a1
   13bfe: 22 e9        	sd	s0, 0x90(sp)
   13c00: 93 08 00 05  	li	a7, 0x50
   13c04: 8a 85        	mv	a1, sp
   13c06: 73 00 00 00  	ecall
   13c0a: 2a 84        	mv	s0, a0
   13c0c: 63 4e 05 00  	bltz	a0, 0x13c28 <_fstat+0x32>
   13c10: 1b 04 05 00  	sext.w	s0, a0
   13c14: 26 85        	mv	a0, s1
   13c16: 8a 85        	mv	a1, sp
   13c18: ef 00 80 14  	jal	0x13d60 <_conv_stat>
   13c1c: ea 60        	ld	ra, 0x98(sp)
   13c1e: 22 85        	mv	a0, s0
   13c20: 4a 64        	ld	s0, 0x90(sp)
   13c22: aa 64        	ld	s1, 0x88(sp)
   13c24: 0d 61        	addi	sp, sp, 0xa0
   13c26: 82 80        	ret
   13c28: 3b 04 80 40  	negw	s0, s0
   13c2c: ef 00 20 18  	jal	0x13dae <__errno>
   13c30: 00 c1        	sw	s0, 0x0(a0)
   13c32: 7d 54        	li	s0, -0x1
   13c34: c5 b7        	j	0x13c14 <_fstat+0x1e>

0000000000013c36 <_isatty>:
   13c36: 19 71        	addi	sp, sp, -0x80
   13c38: 2c 00        	addi	a1, sp, 0x8
   13c3a: 86 fc        	sd	ra, 0x78(sp)
   13c3c: ef f0 bf fb  	jal	0x13bf6 <_fstat>
   13c40: fd 57        	li	a5, -0x1
   13c42: 63 09 f5 00  	beq	a0, a5, 0x13c54 <_isatty+0x1e>
   13c46: 32 45        	lw	a0, 0xc(sp)
   13c48: e6 70        	ld	ra, 0x78(sp)
   13c4a: 1b 55 d5 40  	sraiw	a0, a0, 0xd
   13c4e: 05 89        	andi	a0, a0, 0x1
   13c50: 09 61        	addi	sp, sp, 0x80
   13c52: 82 80        	ret
   13c54: e6 70        	ld	ra, 0x78(sp)
   13c56: 01 45        	li	a0, 0x0
   13c58: 09 61        	addi	sp, sp, 0x80
   13c5a: 82 80        	ret

0000000000013c5c <_lseek>:
   13c5c: 41 11        	addi	sp, sp, -0x10
   13c5e: 06 e4        	sd	ra, 0x8(sp)
   13c60: 22 e0        	sd	s0, 0x0(sp)
   13c62: 93 08 e0 03  	li	a7, 0x3e
   13c66: 73 00 00 00  	ecall
   13c6a: 2a 84        	mv	s0, a0
   13c6c: 63 47 05 00  	bltz	a0, 0x13c7a <_lseek+0x1e>
   13c70: a2 60        	ld	ra, 0x8(sp)
   13c72: 22 85        	mv	a0, s0
   13c74: 02 64        	ld	s0, 0x0(sp)
   13c76: 41 01        	addi	sp, sp, 0x10
   13c78: 82 80        	ret
   13c7a: 3b 04 80 40  	negw	s0, s0
   13c7e: ef 00 00 13  	jal	0x13dae <__errno>
   13c82: 00 c1        	sw	s0, 0x0(a0)
   13c84: 7d 54        	li	s0, -0x1
   13c86: ed b7        	j	0x13c70 <_lseek+0x14>

0000000000013c88 <_open>:
   13c88: 41 11        	addi	sp, sp, -0x10
   13c8a: 06 e4        	sd	ra, 0x8(sp)
   13c8c: 22 e0        	sd	s0, 0x0(sp)
   13c8e: 93 08 00 40  	li	a7, 0x400
   13c92: 73 00 00 00  	ecall
   13c96: 2a 84        	mv	s0, a0
   13c98: 63 47 05 00  	bltz	a0, 0x13ca6 <_open+0x1e>
   13c9c: 01 25        	sext.w	a0, a0
   13c9e: a2 60        	ld	ra, 0x8(sp)
   13ca0: 02 64        	ld	s0, 0x0(sp)
   13ca2: 41 01        	addi	sp, sp, 0x10
   13ca4: 82 80        	ret
   13ca6: ef 00 80 10  	jal	0x13dae <__errno>
   13caa: 3b 04 80 40  	negw	s0, s0
   13cae: 00 c1        	sw	s0, 0x0(a0)
   13cb0: 7d 55        	li	a0, -0x1
   13cb2: f5 b7        	j	0x13c9e <_open+0x16>

0000000000013cb4 <_read>:
   13cb4: 41 11        	addi	sp, sp, -0x10
   13cb6: 06 e4        	sd	ra, 0x8(sp)
   13cb8: 22 e0        	sd	s0, 0x0(sp)
   13cba: 93 08 f0 03  	li	a7, 0x3f
   13cbe: 73 00 00 00  	ecall
   13cc2: 2a 84        	mv	s0, a0
   13cc4: 63 47 05 00  	bltz	a0, 0x13cd2 <_read+0x1e>
   13cc8: a2 60        	ld	ra, 0x8(sp)
   13cca: 22 85        	mv	a0, s0
   13ccc: 02 64        	ld	s0, 0x0(sp)
   13cce: 41 01        	addi	sp, sp, 0x10
   13cd0: 82 80        	ret
   13cd2: 3b 04 80 40  	negw	s0, s0
   13cd6: ef 00 80 0d  	jal	0x13dae <__errno>
   13cda: 00 c1        	sw	s0, 0x0(a0)
   13cdc: 7d 54        	li	s0, -0x1
   13cde: ed b7        	j	0x13cc8 <_read+0x14>

0000000000013ce0 <_sbrk>:
   13ce0: 03 b7 01 1d  	ld	a4, 0x1d0(gp)
   13ce4: 41 11        	addi	sp, sp, -0x10
   13ce6: 06 e4        	sd	ra, 0x8(sp)
   13ce8: aa 87        	mv	a5, a0
   13cea: 01 ef        	bnez	a4, 0x13d02 <_sbrk+0x22>
   13cec: 93 08 60 0d  	li	a7, 0xd6
   13cf0: 01 45        	li	a0, 0x0
   13cf2: 73 00 00 00  	ecall
   13cf6: 7d 56        	li	a2, -0x1
   13cf8: 2a 87        	mv	a4, a0
   13cfa: 63 05 c5 02  	beq	a0, a2, 0x13d24 <_sbrk+0x44>
   13cfe: 23 b8 a1 1c  	sd	a0, 0x1d0(gp)
   13d02: 93 08 60 0d  	li	a7, 0xd6
   13d06: 33 85 e7 00  	add	a0, a5, a4
   13d0a: 73 00 00 00  	ecall
   13d0e: 03 b7 01 1d  	ld	a4, 0x1d0(gp)
   13d12: ba 97        	add	a5, a5, a4
   13d14: 63 18 f5 00  	bne	a0, a5, 0x13d24 <_sbrk+0x44>
   13d18: a2 60        	ld	ra, 0x8(sp)
   13d1a: 23 b8 a1 1c  	sd	a0, 0x1d0(gp)
   13d1e: 3a 85        	mv	a0, a4
   13d20: 41 01        	addi	sp, sp, 0x10
   13d22: 82 80        	ret
   13d24: ef 00 a0 08  	jal	0x13dae <__errno>
   13d28: a2 60        	ld	ra, 0x8(sp)
   13d2a: b1 47        	li	a5, 0xc
   13d2c: 1c c1        	sw	a5, 0x0(a0)
   13d2e: 7d 55        	li	a0, -0x1
   13d30: 41 01        	addi	sp, sp, 0x10
   13d32: 82 80        	ret

0000000000013d34 <_write>:
   13d34: 41 11        	addi	sp, sp, -0x10
   13d36: 06 e4        	sd	ra, 0x8(sp)
   13d38: 22 e0        	sd	s0, 0x0(sp)
   13d3a: 93 08 00 04  	li	a7, 0x40
   13d3e: 73 00 00 00  	ecall
   13d42: 2a 84        	mv	s0, a0
   13d44: 63 47 05 00  	bltz	a0, 0x13d52 <_write+0x1e>
   13d48: a2 60        	ld	ra, 0x8(sp)
   13d4a: 22 85        	mv	a0, s0
   13d4c: 02 64        	ld	s0, 0x0(sp)
   13d4e: 41 01        	addi	sp, sp, 0x10
   13d50: 82 80        	ret
   13d52: 3b 04 80 40  	negw	s0, s0
   13d56: ef 00 80 05  	jal	0x13dae <__errno>
   13d5a: 00 c1        	sw	s0, 0x0(a0)
   13d5c: 7d 54        	li	s0, -0x1
   13d5e: ed b7        	j	0x13d48 <_write+0x14>

0000000000013d60 <_conv_stat>:
   13d60: 03 d7 85 01  	lhu	a4, 0x18(a1)
   13d64: 83 d7 45 01  	lhu	a5, 0x14(a1)
   13d68: d0 4d        	lw	a2, 0x1c(a1)
   13d6a: 94 71        	ld	a3, 0x20(a1)
   13d6c: 03 b3 05 00  	ld	t1, 0x0(a1)
   13d70: 83 b8 85 00  	ld	a7, 0x8(a1)
   13d74: 03 a8 05 01  	lw	a6, 0x10(a1)
   13d78: 1b 17 07 01  	slliw	a4, a4, 0x10
   13d7c: d9 8f        	or	a5, a5, a4
   13d7e: 23 16 c5 00  	sh	a2, 0xc(a0)
   13d82: 23 17 d5 00  	sh	a3, 0xe(a0)
   13d86: 23 10 65 00  	sh	t1, 0x0(a0)
   13d8a: 23 11 15 01  	sh	a7, 0x2(a0)
   13d8e: 23 22 05 01  	sw	a6, 0x4(a0)
   13d92: 1c c5        	sw	a5, 0x8(a0)
   13d94: 98 79        	ld	a4, 0x30(a1)
   13d96: bc 65        	ld	a5, 0x48(a1)
   13d98: b0 61        	ld	a2, 0x40(a1)
   13d9a: 94 5d        	lw	a3, 0x38(a1)
   13d9c: 18 e9        	sd	a4, 0x10(a0)
   13d9e: 1c ed        	sd	a5, 0x18(a0)
   13da0: b8 6d        	ld	a4, 0x58(a1)
   13da2: bc 75        	ld	a5, 0x68(a1)
   13da4: 30 e9        	sd	a2, 0x50(a0)
   13da6: 34 e5        	sd	a3, 0x48(a0)
   13da8: 18 f5        	sd	a4, 0x28(a0)
   13daa: 1c fd        	sd	a5, 0x38(a0)
   13dac: 82 80        	ret

0000000000013dae <__errno>:
   13dae: 03 b5 81 18  	ld	a0, 0x188(gp)
   13db2: 82 80        	ret

0000000000013db4 <__riscv_save_12>:
   13db4: 59 71        	addi	sp, sp, -0x70
   13db6: 01 43        	li	t1, 0x0
   13db8: 6e e4        	sd	s11, 0x8(sp)
   13dba: 19 a0        	j	0x13dc0 <__riscv_save_11+0x4>

0000000000013dbc <__riscv_save_11>:
   13dbc: 59 71        	addi	sp, sp, -0x70
   13dbe: 05 43        	li	t1, 0x1
   13dc0: 6a e8        	sd	s10, 0x10(sp)
   13dc2: 66 ec        	sd	s9, 0x18(sp)
   13dc4: 19 a0        	j	0x13dca <__riscv_save_9+0x4>

0000000000013dc6 <__riscv_save_9>:
   13dc6: 59 71        	addi	sp, sp, -0x70
   13dc8: 09 43        	li	t1, 0x2
   13dca: 62 f0        	sd	s8, 0x20(sp)
   13dcc: 5e f4        	sd	s7, 0x28(sp)
   13dce: 19 a0        	j	0x13dd4 <__riscv_save_7+0x4>

0000000000013dd0 <__riscv_save_7>:
   13dd0: 59 71        	addi	sp, sp, -0x70
   13dd2: 0d 43        	li	t1, 0x3
   13dd4: 5a f8        	sd	s6, 0x30(sp)
   13dd6: 56 fc        	sd	s5, 0x38(sp)
   13dd8: 19 a0        	j	0x13dde <__riscv_save_5+0x4>

0000000000013dda <__riscv_save_5>:
   13dda: 59 71        	addi	sp, sp, -0x70
   13ddc: 11 43        	li	t1, 0x4
   13dde: d2 e0        	sd	s4, 0x40(sp)
   13de0: ce e4        	sd	s3, 0x48(sp)
   13de2: 19 a0        	j	0x13de8 <__riscv_save_3+0x4>

0000000000013de4 <__riscv_save_3>:
   13de4: 59 71        	addi	sp, sp, -0x70
   13de6: 15 43        	li	t1, 0x5
   13de8: ca e8        	sd	s2, 0x50(sp)
   13dea: a6 ec        	sd	s1, 0x58(sp)
   13dec: a2 f0        	sd	s0, 0x60(sp)
   13dee: 86 f4        	sd	ra, 0x68(sp)
   13df0: 12 03        	slli	t1, t1, 0x4
   13df2: 1a 91        	add	sp, sp, t1
   13df4: 82 82        	jr	t0

0000000000013df6 <__riscv_save_1>:
   13df6: 41 11        	addi	sp, sp, -0x10
   13df8: 22 e0        	sd	s0, 0x0(sp)
   13dfa: 06 e4        	sd	ra, 0x8(sp)
   13dfc: 82 82        	jr	t0

0000000000013dfe <__riscv_restore_12>:
   13dfe: a2 6d        	ld	s11, 0x8(sp)
   13e00: 41 01        	addi	sp, sp, 0x10

0000000000013e02 <__riscv_restore_11>:
   13e02: 02 6d        	ld	s10, 0x0(sp)
   13e04: a2 6c        	ld	s9, 0x8(sp)
   13e06: 41 01        	addi	sp, sp, 0x10

0000000000013e08 <__riscv_restore_9>:
   13e08: 02 6c        	ld	s8, 0x0(sp)
   13e0a: a2 6b        	ld	s7, 0x8(sp)
   13e0c: 41 01        	addi	sp, sp, 0x10

0000000000013e0e <__riscv_restore_7>:
   13e0e: 02 6b        	ld	s6, 0x0(sp)
   13e10: a2 6a        	ld	s5, 0x8(sp)
   13e12: 41 01        	addi	sp, sp, 0x10

0000000000013e14 <__riscv_restore_5>:
   13e14: 02 6a        	ld	s4, 0x0(sp)
   13e16: a2 69        	ld	s3, 0x8(sp)
   13e18: 41 01        	addi	sp, sp, 0x10

0000000000013e1a <__riscv_restore_3>:
   13e1a: 02 69        	ld	s2, 0x0(sp)
   13e1c: a2 64        	ld	s1, 0x8(sp)
   13e1e: 41 01        	addi	sp, sp, 0x10

0000000000013e20 <__riscv_restore_1>:
   13e20: 02 64        	ld	s0, 0x0(sp)
   13e22: a2 60        	ld	ra, 0x8(sp)
   13e24: 41 01        	addi	sp, sp, 0x10
   13e26: 82 80        	ret
