
dynamic_baseISA_search_large:	file format elf64-littleriscv

Disassembly of section .text:

0000000000010120 <exit>:
   10120: 41 11        	c.addi	sp, -0x10
   10122: 81 45        	c.li	a1, 0x0
   10124: 22 e0        	c.sdsp	s0, 0x0(sp)
   10126: 06 e4        	c.sdsp	ra, 0x8(sp)
   10128: 2a 84        	c.mv	s0, a0
   1012a: ef 10 f0 41  	jal	ra, 0x11d48 <__call_exitprocs>
   1012e: 83 b7 01 8f  	ld	a5, -0x710(gp)
   10132: 91 c3        	c.beqz	a5, 0x10136 <exit+0x16>
   10134: 82 97        	c.jalr	a5
   10136: 22 85        	c.mv	a0, s0
   10138: ef 80 60 3c  	jal	ra, 0x184fe <_exit>

000000000001013c <register_fini>:
   1013c: 93 07 00 00  	addi	a5, zero, 0x0
   10140: 91 c7        	c.beqz	a5, 0x1014c <register_fini+0x10>
   10142: 55 65        	c.lui	a0, 0x15
   10144: 13 05 25 7b  	addi	a0, a0, 0x7b2
   10148: 6f 00 90 01  	jal	zero, 0x10960 <atexit>
   1014c: 82 80        	c.jr	ra

000000000001014e <_start>:
   1014e: 97 31 01 00  	auipc	gp, 0x13
   10152: 93 81 21 94  	addi	gp, gp, -0x6be
   10156: 13 85 01 89  	addi	a0, gp, -0x770
   1015a: 17 46 01 00  	auipc	a2, 0x14
   1015e: 13 06 66 bd  	addi	a2, a2, -0x42a
   10162: 09 8e        	c.sub	a2, a0
   10164: 81 45        	c.li	a1, 0x0
   10166: ef 10 d0 21  	jal	ra, 0x11b82 <memset>
   1016a: 17 05 00 00  	auipc	a0, 0x0
   1016e: 13 05 65 7f  	addi	a0, a0, 0x7f6
   10172: 19 c5        	c.beqz	a0, 0x10180 <_start+0x32>
   10174: 17 55 00 00  	auipc	a0, 0x5
   10178: 13 05 e5 63  	addi	a0, a0, 0x63e
   1017c: ef 00 40 7e  	jal	ra, 0x10960 <atexit>
   10180: ef 10 f0 0b  	jal	ra, 0x11a3e <__libc_init_array>
   10184: 02 45        	c.lwsp	a0, 0x0(sp)
   10186: 2c 00        	c.addi4spn	a1, sp, 0x8
   10188: 01 46        	c.li	a2, 0x0
   1018a: ef 00 60 73  	jal	ra, 0x108c0 <main>
   1018e: 49 bf        	c.j	0x10120 <exit>

0000000000010190 <__do_global_dtors_aux>:
   10190: 41 11        	c.addi	sp, -0x10
   10192: 22 e0        	c.sdsp	s0, 0x0(sp)
   10194: 83 c7 81 91  	lbu	a5, -0x6e8(gp)
   10198: 06 e4        	c.sdsp	ra, 0x8(sp)
   1019a: 99 ef        	c.bnez	a5, 0x101b8 <__do_global_dtors_aux+0x28>
   1019c: 93 07 00 00  	addi	a5, zero, 0x0
   101a0: 89 cb        	c.beqz	a5, 0x101b2 <__do_global_dtors_aux+0x22>
   101a2: 37 15 02 00  	lui	a0, 0x21
   101a6: 13 05 05 3f  	addi	a0, a0, 0x3f0
   101aa: 97 00 00 00  	auipc	ra, 0x0
   101ae: e7 00 00 00  	jalr	ra, 0x0(zero)
   101b2: 85 47        	c.li	a5, 0x1
   101b4: 23 8c f1 90  	sb	a5, -0x6e8(gp)
   101b8: a2 60        	c.ldsp	ra, 0x8(sp)
   101ba: 02 64        	c.ldsp	s0, 0x0(sp)
   101bc: 41 01        	c.addi	sp, 0x10
   101be: 82 80        	c.jr	ra

00000000000101c0 <frame_dummy>:
   101c0: 93 07 00 00  	addi	a5, zero, 0x0
   101c4: 99 cb        	c.beqz	a5, 0x101da <frame_dummy+0x1a>
   101c6: 37 15 02 00  	lui	a0, 0x21
   101ca: 93 85 01 92  	addi	a1, gp, -0x6e0
   101ce: 13 05 05 3f  	addi	a0, a0, 0x3f0
   101d2: 17 03 00 00  	auipc	t1, 0x0
   101d6: 67 00 00 00  	jalr	zero, 0x0(zero)
   101da: 82 80        	c.jr	ra

00000000000101dc <bmha_init>:
   101dc: ef 92 80 6f  	jal	t0, 0x198d4 <__riscv_save_1>
   101e0: 13 04 05 00  	addi	s0, a0, 0x0
   101e4: 23 b8 81 88  	sd	s0, -0x770(gp)
   101e8: 13 05 04 00  	addi	a0, s0, 0x0
   101ec: ef 10 10 24  	jal	ra, 0x11c2c <strlen>
   101f0: 93 05 00 00  	addi	a1, zero, 0x0
   101f4: 23 ac a1 88  	sw	a0, -0x768(gp)
   101f8: 13 16 05 02  	slli	a2, a0, 0x20
   101fc: 13 56 06 02  	srli	a2, a2, 0x20
   10200: 33 06 86 00  	add	a2, a2, s0
   10204: 13 06 f6 ff  	addi	a2, a2, -0x1
   10208: b7 26 02 00  	lui	a3, 0x22
   1020c: 93 86 06 3e  	addi	a3, a3, 0x3e0
   10210: 37 17 02 00  	lui	a4, 0x21
   10214: 13 07 87 66  	addi	a4, a4, 0x668
   10218: b7 87 00 00  	lui	a5, 0x8
   1021c: 93 87 f7 ff  	addi	a5, a5, -0x1
   10220: 13 08 00 10  	addi	a6, zero, 0x100
   10224: 13 0e 00 00  	addi	t3, zero, 0x0
   10228: 93 98 25 00  	slli	a7, a1, 0x2
   1022c: b3 88 16 01  	add	a7, a3, a7
   10230: 23 a0 a8 00  	sw	a0, 0x0(a7)
   10234: 33 03 b7 00  	add	t1, a4, a1
   10238: 93 03 06 00  	addi	t2, a2, 0x0
   1023c: 93 02 0e 00  	addi	t0, t3, 0x0
   10240: 3b 0e c5 01  	addw	t3, a0, t3
   10244: 63 54 c0 03  	bge	zero, t3, 0x1026c <bmha_init+0x90>
   10248: 03 ce 03 00  	lbu	t3, 0x0(t2)
   1024c: 83 4e 03 00  	lbu	t4, 0x0(t1)
   10250: 33 0e c7 01  	add	t3, a4, t3
   10254: 03 4f 0e 00  	lbu	t5, 0x0(t3)
   10258: 1b 8e f2 ff  	addiw	t3, t0, -0x1
   1025c: 93 83 f3 ff  	addi	t2, t2, -0x1
   10260: e3 9e ee fd  	bne	t4, t5, 0x1023c <bmha_init+0x60>
   10264: 13 43 fe ff  	xori	t1, t3, -0x1
   10268: 23 a0 68 00  	sw	t1, 0x0(a7)
   1026c: 63 94 02 00  	bne	t0, zero, 0x10274 <bmha_init+0x98>
   10270: 23 a0 f8 00  	sw	a5, 0x0(a7)
   10274: 93 85 15 00  	addi	a1, a1, 0x1
   10278: e3 96 05 fb  	bne	a1, a6, 0x10224 <bmha_init+0x48>
   1027c: 1b 06 05 00  	addiw	a2, a0, 0x0
   10280: 93 06 20 00  	addi	a3, zero, 0x2
   10284: 23 ae a1 88  	sw	a0, -0x764(gp)
   10288: 63 46 d6 04  	blt	a2, a3, 0x102d4 <bmha_init+0xf8>
   1028c: 1b 05 f5 ff  	addiw	a0, a0, -0x1
   10290: 33 06 a4 00  	add	a2, s0, a0
   10294: 83 46 06 00  	lbu	a3, 0x0(a2)
   10298: 37 16 02 00  	lui	a2, 0x21
   1029c: 13 06 86 66  	addi	a2, a2, 0x668
   102a0: b3 06 d6 00  	add	a3, a2, a3
   102a4: 83 c6 06 00  	lbu	a3, 0x0(a3)
   102a8: 13 17 05 02  	slli	a4, a0, 0x20
   102ac: 13 57 07 02  	srli	a4, a4, 0x20
   102b0: 33 07 e4 00  	add	a4, s0, a4
   102b4: 83 47 04 00  	lbu	a5, 0x0(s0)
   102b8: b3 07 f6 00  	add	a5, a2, a5
   102bc: 83 c7 07 00  	lbu	a5, 0x0(a5)
   102c0: 63 94 d7 00  	bne	a5, a3, 0x102c8 <bmha_init+0xec>
   102c4: 23 ae a1 88  	sw	a0, -0x764(gp)
   102c8: 13 04 14 00  	addi	s0, s0, 0x1
   102cc: 13 05 f5 ff  	addi	a0, a0, -0x1
   102d0: e3 12 e4 fe  	bne	s0, a4, 0x102b4 <bmha_init+0xd8>
   102d4: 6f 90 a0 62  	jal	zero, 0x198fe <__riscv_restore_1>

00000000000102d8 <bmha_search>:
   102d8: 03 a7 81 89  	lw	a4, -0x768(gp)
   102dc: 13 c6 f5 ff  	xori	a2, a1, -0x1
   102e0: bb 03 c7 00  	addw	t2, a4, a2
   102e4: 63 c6 03 00  	blt	t2, zero, 0x102f0 <bmha_search+0x18>
   102e8: 13 05 00 00  	addi	a0, zero, 0x0
   102ec: 67 80 00 00  	jalr	zero, 0x0(ra)
   102f0: ef 92 40 5e  	jal	t0, 0x198d4 <__riscv_save_1>
   102f4: 33 06 b5 00  	add	a2, a0, a1
   102f8: b7 86 00 00  	lui	a3, 0x8
   102fc: 93 86 f6 ff  	addi	a3, a3, -0x1
   10300: bb 86 b6 40  	subw	a3, a3, a1
   10304: 1b 07 f7 ff  	addiw	a4, a4, -0x1
   10308: 03 b8 01 89  	ld	a6, -0x770(gp)
   1030c: 83 a7 c1 89  	lw	a5, -0x764(gp)
   10310: 93 18 07 02  	slli	a7, a4, 0x20
   10314: 93 d8 08 02  	srli	a7, a7, 0x20
   10318: 33 88 08 01  	add	a6, a7, a6
   1031c: 13 08 f8 ff  	addi	a6, a6, -0x1
   10320: 93 42 f7 ff  	xori	t0, a4, -0x1
   10324: b3 85 b2 00  	add	a1, t0, a1
   10328: b3 85 15 01  	add	a1, a1, a7
   1032c: b3 05 b5 00  	add	a1, a0, a1
   10330: 37 25 02 00  	lui	a0, 0x22
   10334: 93 08 05 3e  	addi	a7, a0, 0x3e0
   10338: b7 82 ff ff  	lui	t0, 0xffff8
   1033c: 93 82 12 00  	addi	t0, t0, 0x1
   10340: 37 15 02 00  	lui	a0, 0x21
   10344: 13 03 85 66  	addi	t1, a0, 0x668
   10348: 33 05 76 00  	add	a0, a2, t2
   1034c: 03 45 05 00  	lbu	a0, 0x0(a0)
   10350: 13 15 25 00  	slli	a0, a0, 0x2
   10354: 33 85 a8 00  	add	a0, a7, a0
   10358: 03 25 05 00  	lw	a0, 0x0(a0)
   1035c: bb 03 75 00  	addw	t2, a0, t2
   10360: e3 c4 03 fe  	blt	t2, zero, 0x10348 <bmha_search+0x70>
   10364: 63 c8 d3 04  	blt	t2, a3, 0x103b4 <bmha_search+0xdc>
   10368: bb 83 53 00  	addw	t2, t2, t0
   1036c: 3b 85 e3 40  	subw	a0, t2, a4
   10370: 33 05 a6 00  	add	a0, a2, a0
   10374: 33 8e 75 00  	add	t3, a1, t2
   10378: 93 0e 08 00  	addi	t4, a6, 0x0
   1037c: 13 0f 07 00  	addi	t5, a4, 0x0
   10380: 63 5c e0 03  	bge	zero, t5, 0x103b8 <bmha_search+0xe0>
   10384: 83 4f 0e 00  	lbu	t6, 0x0(t3)
   10388: 03 c4 0e 00  	lbu	s0, 0x0(t4)
   1038c: b3 0f f3 01  	add	t6, t1, t6
   10390: 83 cf 0f 00  	lbu	t6, 0x0(t6)
   10394: 33 04 83 00  	add	s0, t1, s0
   10398: 03 44 04 00  	lbu	s0, 0x0(s0)
   1039c: 1b 0f ff ff  	addiw	t5, t5, -0x1
   103a0: 93 8e fe ff  	addi	t4, t4, -0x1
   103a4: 13 0e fe ff  	addi	t3, t3, -0x1
   103a8: e3 8c 8f fc  	beq	t6, s0, 0x10380 <bmha_search+0xa8>
   103ac: bb 83 77 00  	addw	t2, a5, t2
   103b0: e3 cc 03 f8  	blt	t2, zero, 0x10348 <bmha_search+0x70>
   103b4: 13 05 00 00  	addi	a0, zero, 0x0
   103b8: 6f 90 60 54  	jal	zero, 0x198fe <__riscv_restore_1>
   103bc: 6f 00 40 00  	jal	zero, 0x103c0 <bmha_search+0xe8>
   103c0: 67 80 00 00  	jalr	zero, 0x0(ra)

00000000000103c4 <bmhi_init>:
   103c4: ef 92 e0 4f  	jal	t0, 0x198c2 <__riscv_save_3>
   103c8: 13 04 05 00  	addi	s0, a0, 0x0
   103cc: ef 10 10 06  	jal	ra, 0x11c2c <strlen>
   103d0: 03 b6 81 8a  	ld	a2, -0x758(gp)
   103d4: 23 a0 a1 8a  	sw	a0, -0x760(gp)
   103d8: 9b 05 05 00  	addiw	a1, a0, 0x0
   103dc: 13 05 06 00  	addi	a0, a2, 0x0
   103e0: ef 00 30 3b  	jal	ra, 0x10f92 <realloc>
   103e4: 23 b4 a1 8a  	sd	a0, -0x758(gp)
   103e8: 63 00 05 16  	beq	a0, zero, 0x10548 <bmhi_init+0x184>
   103ec: 37 05 01 00  	lui	a0, 0x10
   103f0: 13 05 05 55  	addi	a0, a0, 0x550
   103f4: ef 00 c0 56  	jal	ra, 0x10960 <atexit>
   103f8: 03 a5 01 8a  	lw	a0, -0x760(gp)
   103fc: 63 54 a0 04  	bge	zero, a0, 0x10444 <bmhi_init+0x80>
   10400: 83 b5 81 8a  	ld	a1, -0x758(gp)
   10404: 33 86 a5 00  	add	a2, a1, a0
   10408: b7 06 02 00  	lui	a3, 0x20
   1040c: 93 86 06 c4  	addi	a3, a3, -0x3c0
   10410: 03 47 04 00  	lbu	a4, 0x0(s0)
   10414: b3 87 e6 00  	add	a5, a3, a4
   10418: 83 c7 17 00  	lbu	a5, 0x1(a5)
   1041c: 93 f7 37 00  	andi	a5, a5, 0x3
   10420: 93 87 e7 ff  	addi	a5, a5, -0x2
   10424: b3 37 f0 00  	sltu	a5, zero, a5
   10428: 93 87 f7 ff  	addi	a5, a5, -0x1
   1042c: 93 f7 07 0e  	andi	a5, a5, 0xe0
   10430: 33 07 f7 00  	add	a4, a4, a5
   10434: 23 80 e5 00  	sb	a4, 0x0(a1)
   10438: 93 85 15 00  	addi	a1, a1, 0x1
   1043c: 13 04 14 00  	addi	s0, s0, 0x1
   10440: e3 98 c5 fc  	bne	a1, a2, 0x10410 <bmhi_init+0x4c>
   10444: 93 85 01 d5  	addi	a1, gp, -0x2b0
   10448: 13 86 05 40  	addi	a2, a1, 0x400
   1044c: 23 a0 a5 00  	sw	a0, 0x0(a1)
   10450: 93 85 45 00  	addi	a1, a1, 0x4
   10454: e3 9c c5 fe  	bne	a1, a2, 0x1044c <bmhi_init+0x88>
   10458: 83 b5 81 8a  	ld	a1, -0x758(gp)
   1045c: 1b 06 f5 ff  	addiw	a2, a0, -0x1
   10460: 13 07 20 00  	addi	a4, zero, 0x2
   10464: 93 16 06 02  	slli	a3, a2, 0x20
   10468: 63 42 e5 06  	blt	a0, a4, 0x104cc <bmhi_init+0x108>
   1046c: 93 d7 06 02  	srli	a5, a3, 0x20
   10470: b3 87 f5 00  	add	a5, a1, a5
   10474: 13 88 01 d5  	addi	a6, gp, -0x2b0
   10478: b7 08 02 00  	lui	a7, 0x20
   1047c: 93 88 08 c4  	addi	a7, a7, -0x3c0
   10480: 93 82 05 00  	addi	t0, a1, 0x0
   10484: 13 03 06 00  	addi	t1, a2, 0x0
   10488: 83 c3 02 00  	lbu	t2, 0x0(t0)
   1048c: 33 8e 78 00  	add	t3, a7, t2
   10490: 03 4e 1e 00  	lbu	t3, 0x1(t3)
   10494: 93 9e 23 00  	slli	t4, t2, 0x2
   10498: b3 0e d8 01  	add	t4, a6, t4
   1049c: 23 a0 6e 00  	sw	t1, 0x0(t4)
   104a0: 13 7e 3e 00  	andi	t3, t3, 0x3
   104a4: 13 0e fe ff  	addi	t3, t3, -0x1
   104a8: 13 3e 1e 00  	sltiu	t3, t3, 0x1
   104ac: 13 1e 5e 00  	slli	t3, t3, 0x5
   104b0: b3 83 c3 01  	add	t2, t2, t3
   104b4: 93 93 23 00  	slli	t2, t2, 0x2
   104b8: b3 03 78 00  	add	t2, a6, t2
   104bc: 23 a0 63 00  	sw	t1, 0x0(t2)
   104c0: 93 82 12 00  	addi	t0, t0, 0x1
   104c4: 13 03 f3 ff  	addi	t1, t1, -0x1
   104c8: e3 90 f2 fc  	bne	t0, a5, 0x10488 <bmhi_init+0xc4>
   104cc: b3 87 c5 00  	add	a5, a1, a2
   104d0: 83 c7 07 00  	lbu	a5, 0x0(a5)
   104d4: 13 98 27 00  	slli	a6, a5, 0x2
   104d8: 93 88 01 d5  	addi	a7, gp, -0x2b0
   104dc: 33 88 08 01  	add	a6, a7, a6
   104e0: b7 02 02 00  	lui	t0, 0x20
   104e4: 93 82 02 c4  	addi	t0, t0, -0x3c0
   104e8: b3 82 f2 00  	add	t0, t0, a5
   104ec: 83 c2 12 00  	lbu	t0, 0x1(t0)
   104f0: 37 83 00 00  	lui	t1, 0x8
   104f4: 13 03 f3 ff  	addi	t1, t1, -0x1
   104f8: 23 20 68 00  	sw	t1, 0x0(a6)
   104fc: 13 f8 32 00  	andi	a6, t0, 0x3
   10500: 13 08 f8 ff  	addi	a6, a6, -0x1
   10504: 13 38 18 00  	sltiu	a6, a6, 0x1
   10508: 13 18 58 00  	slli	a6, a6, 0x5
   1050c: 33 88 07 01  	add	a6, a5, a6
   10510: 13 18 28 00  	slli	a6, a6, 0x2
   10514: 33 88 08 01  	add	a6, a7, a6
   10518: 23 20 68 00  	sw	t1, 0x0(a6)
   1051c: 23 a8 a1 8a  	sw	a0, -0x750(gp)
   10520: 63 42 e5 02  	blt	a0, a4, 0x10544 <bmhi_init+0x180>
   10524: 13 d5 06 02  	srli	a0, a3, 0x20
   10528: 33 85 a5 00  	add	a0, a1, a0
   1052c: 83 c6 05 00  	lbu	a3, 0x0(a1)
   10530: 63 94 f6 00  	bne	a3, a5, 0x10538 <bmhi_init+0x174>
   10534: 23 a8 c1 8a  	sw	a2, -0x750(gp)
   10538: 93 85 15 00  	addi	a1, a1, 0x1
   1053c: 13 06 f6 ff  	addi	a2, a2, -0x1
   10540: e3 96 a5 fe  	bne	a1, a0, 0x1052c <bmhi_init+0x168>
   10544: 6f 90 40 3b  	jal	zero, 0x198f8 <__riscv_restore_3>
   10548: 13 05 10 00  	addi	a0, zero, 0x1
   1054c: ef f0 5f bd  	jal	ra, 0x10120 <exit>

0000000000010550 <bhmi_cleanup>:
   10550: 03 b5 81 8a  	ld	a0, -0x758(gp)
   10554: 6f 00 00 42  	jal	zero, 0x10974 <free>

0000000000010558 <bmhi_search>:
   10558: 03 a7 01 8a  	lw	a4, -0x760(gp)
   1055c: 13 c6 f5 ff  	xori	a2, a1, -0x1
   10560: bb 03 c7 00  	addw	t2, a4, a2
   10564: 63 c6 03 00  	blt	t2, zero, 0x10570 <bmhi_search+0x18>
   10568: 13 05 00 00  	addi	a0, zero, 0x0
   1056c: 67 80 00 00  	jalr	zero, 0x0(ra)
   10570: ef 92 20 35  	jal	t0, 0x198c2 <__riscv_save_3>
   10574: 33 06 b5 00  	add	a2, a0, a1
   10578: b7 86 00 00  	lui	a3, 0x8
   1057c: 93 86 f6 ff  	addi	a3, a3, -0x1
   10580: bb 86 b6 40  	subw	a3, a3, a1
   10584: 1b 07 f7 ff  	addiw	a4, a4, -0x1
   10588: 03 b8 81 8a  	ld	a6, -0x758(gp)
   1058c: 83 a7 01 8b  	lw	a5, -0x750(gp)
   10590: 93 18 07 02  	slli	a7, a4, 0x20
   10594: 93 d8 08 02  	srli	a7, a7, 0x20
   10598: 33 88 08 01  	add	a6, a7, a6
   1059c: 13 08 f8 ff  	addi	a6, a6, -0x1
   105a0: 93 42 f7 ff  	xori	t0, a4, -0x1
   105a4: b3 85 b2 00  	add	a1, t0, a1
   105a8: b3 85 15 01  	add	a1, a1, a7
   105ac: b3 05 b5 00  	add	a1, a0, a1
   105b0: 93 88 01 d5  	addi	a7, gp, -0x2b0
   105b4: b7 82 ff ff  	lui	t0, 0xffff8
   105b8: 93 82 12 00  	addi	t0, t0, 0x1
   105bc: 37 05 02 00  	lui	a0, 0x20
   105c0: 13 03 05 c4  	addi	t1, a0, -0x3c0
   105c4: 33 05 76 00  	add	a0, a2, t2
   105c8: 03 45 05 00  	lbu	a0, 0x0(a0)
   105cc: 13 15 25 00  	slli	a0, a0, 0x2
   105d0: 33 85 a8 00  	add	a0, a7, a0
   105d4: 03 25 05 00  	lw	a0, 0x0(a0)
   105d8: bb 03 75 00  	addw	t2, a0, t2
   105dc: e3 c4 03 fe  	blt	t2, zero, 0x105c4 <bmhi_search+0x6c>
   105e0: 63 c0 d3 06  	blt	t2, a3, 0x10640 <bmhi_search+0xe8>
   105e4: bb 83 53 00  	addw	t2, t2, t0
   105e8: 3b 85 e3 40  	subw	a0, t2, a4
   105ec: 33 05 a6 00  	add	a0, a2, a0
   105f0: 33 8e 75 00  	add	t3, a1, t2
   105f4: 93 0e 08 00  	addi	t4, a6, 0x0
   105f8: 13 0f 07 00  	addi	t5, a4, 0x0
   105fc: 63 54 e0 05  	bge	zero, t5, 0x10644 <bmhi_search+0xec>
   10600: 83 4f 0e 00  	lbu	t6, 0x0(t3)
   10604: 33 04 f3 01  	add	s0, t1, t6
   10608: 03 44 14 00  	lbu	s0, 0x1(s0)
   1060c: 13 74 34 00  	andi	s0, s0, 0x3
   10610: 13 04 e4 ff  	addi	s0, s0, -0x2
   10614: 33 34 80 00  	sltu	s0, zero, s0
   10618: 13 04 f4 ff  	addi	s0, s0, -0x1
   1061c: 13 74 04 fe  	andi	s0, s0, -0x20
   10620: 83 c4 0e 00  	lbu	s1, 0x0(t4)
   10624: b3 8f 8f 00  	add	t6, t6, s0
   10628: 1b 0f ff ff  	addiw	t5, t5, -0x1
   1062c: 93 8e fe ff  	addi	t4, t4, -0x1
   10630: 13 0e fe ff  	addi	t3, t3, -0x1
   10634: e3 84 9f fc  	beq	t6, s1, 0x105fc <bmhi_search+0xa4>
   10638: bb 83 77 00  	addw	t2, a5, t2
   1063c: e3 c4 03 f8  	blt	t2, zero, 0x105c4 <bmhi_search+0x6c>
   10640: 13 05 00 00  	addi	a0, zero, 0x0
   10644: 6f 90 40 2b  	jal	zero, 0x198f8 <__riscv_restore_3>
   10648: 6f 00 40 00  	jal	zero, 0x1064c <bmhi_search+0xf4>
   1064c: 67 80 00 00  	jalr	zero, 0x0(ra)

0000000000010650 <bmh_init>:
   10650: ef 92 40 28  	jal	t0, 0x198d4 <__riscv_save_1>
   10654: 13 04 05 00  	addi	s0, a0, 0x0
   10658: 23 bc 81 8a  	sd	s0, -0x748(gp)
   1065c: 13 05 04 00  	addi	a0, s0, 0x0
   10660: ef 10 c0 5c  	jal	ra, 0x11c2c <strlen>
   10664: 23 a0 a1 8c  	sw	a0, -0x740(gp)
   10668: 93 85 01 15  	addi	a1, gp, 0x150
   1066c: 13 86 05 40  	addi	a2, a1, 0x400
   10670: 23 a0 a5 00  	sw	a0, 0x0(a1)
   10674: 93 85 45 00  	addi	a1, a1, 0x4
   10678: e3 9c c5 fe  	bne	a1, a2, 0x10670 <bmh_init+0x20>
   1067c: 1b 06 05 00  	addiw	a2, a0, 0x0
   10680: 93 05 f0 ff  	addi	a1, zero, -0x1
   10684: 93 d5 05 02  	srli	a1, a1, 0x20
   10688: 63 5a c0 02  	bge	zero, a2, 0x106bc <bmh_init+0x6c>
   1068c: 33 77 b5 00  	and	a4, a0, a1
   10690: 93 06 f5 ff  	addi	a3, a0, -0x1
   10694: 33 07 e4 00  	add	a4, s0, a4
   10698: 93 87 01 15  	addi	a5, gp, 0x150
   1069c: 13 08 04 00  	addi	a6, s0, 0x0
   106a0: 83 48 08 00  	lbu	a7, 0x0(a6)
   106a4: 93 98 28 00  	slli	a7, a7, 0x2
   106a8: b3 88 17 01  	add	a7, a5, a7
   106ac: 23 a0 d8 00  	sw	a3, 0x0(a7)
   106b0: 13 08 18 00  	addi	a6, a6, 0x1
   106b4: 93 86 f6 ff  	addi	a3, a3, -0x1
   106b8: e3 14 e8 fe  	bne	a6, a4, 0x106a0 <bmh_init+0x50>
   106bc: b3 06 c4 00  	add	a3, s0, a2
   106c0: 83 c6 f6 ff  	lbu	a3, -0x1(a3)
   106c4: 13 97 26 00  	slli	a4, a3, 0x2
   106c8: 93 87 01 15  	addi	a5, gp, 0x150
   106cc: 33 87 e7 00  	add	a4, a5, a4
   106d0: b7 87 00 00  	lui	a5, 0x8
   106d4: 93 87 f7 ff  	addi	a5, a5, -0x1
   106d8: 23 20 f7 00  	sw	a5, 0x0(a4)
   106dc: 93 07 20 00  	addi	a5, zero, 0x2
   106e0: 23 a2 a1 8c  	sw	a0, -0x73c(gp)
   106e4: 63 46 f6 02  	blt	a2, a5, 0x10710 <bmh_init+0xc0>
   106e8: 13 06 f5 ff  	addi	a2, a0, -0x1
   106ec: 33 05 b5 00  	add	a0, a0, a1
   106f0: 33 75 b5 00  	and	a0, a0, a1
   106f4: 33 05 a4 00  	add	a0, s0, a0
   106f8: 83 45 04 00  	lbu	a1, 0x0(s0)
   106fc: 63 94 d5 00  	bne	a1, a3, 0x10704 <bmh_init+0xb4>
   10700: 23 a2 c1 8c  	sw	a2, -0x73c(gp)
   10704: 13 04 14 00  	addi	s0, s0, 0x1
   10708: 13 06 f6 ff  	addi	a2, a2, -0x1
   1070c: e3 16 a4 fe  	bne	s0, a0, 0x106f8 <bmh_init+0xa8>
   10710: 6f 90 e0 1e  	jal	zero, 0x198fe <__riscv_restore_1>

0000000000010714 <bmh_search>:
   10714: 03 a7 01 8c  	lw	a4, -0x740(gp)
   10718: 13 c6 f5 ff  	xori	a2, a1, -0x1
   1071c: 3b 03 c7 00  	addw	t1, a4, a2
   10720: 63 46 03 00  	blt	t1, zero, 0x1072c <bmh_search+0x18>
   10724: 13 05 00 00  	addi	a0, zero, 0x0
   10728: 67 80 00 00  	jalr	zero, 0x0(ra)
   1072c: 33 06 b5 00  	add	a2, a0, a1
   10730: b7 86 00 00  	lui	a3, 0x8
   10734: 93 86 f6 ff  	addi	a3, a3, -0x1
   10738: bb 86 b6 40  	subw	a3, a3, a1
   1073c: 1b 07 f7 ff  	addiw	a4, a4, -0x1
   10740: 03 b8 81 8b  	ld	a6, -0x748(gp)
   10744: 83 a7 41 8c  	lw	a5, -0x73c(gp)
   10748: 93 18 07 02  	slli	a7, a4, 0x20
   1074c: 93 d8 08 02  	srli	a7, a7, 0x20
   10750: 33 88 08 01  	add	a6, a7, a6
   10754: 13 08 f8 ff  	addi	a6, a6, -0x1
   10758: 93 42 f7 ff  	xori	t0, a4, -0x1
   1075c: b3 85 b2 00  	add	a1, t0, a1
   10760: b3 85 15 01  	add	a1, a1, a7
   10764: b3 05 b5 00  	add	a1, a0, a1
   10768: 93 88 01 15  	addi	a7, gp, 0x150
   1076c: b7 82 ff ff  	lui	t0, 0xffff8
   10770: 93 82 12 00  	addi	t0, t0, 0x1
   10774: 33 05 66 00  	add	a0, a2, t1
   10778: 03 45 05 00  	lbu	a0, 0x0(a0)
   1077c: 13 15 25 00  	slli	a0, a0, 0x2
   10780: 33 85 a8 00  	add	a0, a7, a0
   10784: 03 25 05 00  	lw	a0, 0x0(a0)
   10788: 3b 03 65 00  	addw	t1, a0, t1
   1078c: e3 44 03 fe  	blt	t1, zero, 0x10774 <bmh_search+0x60>
   10790: e3 4a d3 f8  	blt	t1, a3, 0x10724 <bmh_search+0x10>
   10794: 3b 03 53 00  	addw	t1, t1, t0
   10798: 3b 05 e3 40  	subw	a0, t1, a4
   1079c: 33 05 a6 00  	add	a0, a2, a0
   107a0: b3 83 65 00  	add	t2, a1, t1
   107a4: 13 0e 08 00  	addi	t3, a6, 0x0
   107a8: 93 0e 07 00  	addi	t4, a4, 0x0
   107ac: e3 5e d0 f7  	bge	zero, t4, 0x10728 <bmh_search+0x14>
   107b0: 03 cf 03 00  	lbu	t5, 0x0(t2)
   107b4: 83 4f 0e 00  	lbu	t6, 0x0(t3)
   107b8: 9b 8e fe ff  	addiw	t4, t4, -0x1
   107bc: 13 0e fe ff  	addi	t3, t3, -0x1
   107c0: 93 83 f3 ff  	addi	t2, t2, -0x1
   107c4: e3 04 ff ff  	beq	t5, t6, 0x107ac <bmh_search+0x98>
   107c8: 3b 83 67 00  	addw	t1, a5, t1
   107cc: e3 44 03 fa  	blt	t1, zero, 0x10774 <bmh_search+0x60>
   107d0: 6f f0 5f f5  	jal	zero, 0x10724 <bmh_search+0x10>

00000000000107d4 <init_search>:
   107d4: ef 92 00 10  	jal	t0, 0x198d4 <__riscv_save_1>
   107d8: 13 04 05 00  	addi	s0, a0, 0x0
   107dc: ef 10 00 45  	jal	ra, 0x11c2c <strlen>
   107e0: 23 b4 a1 8c  	sd	a0, -0x738(gp)
   107e4: b7 35 02 00  	lui	a1, 0x23
   107e8: 93 85 05 fe  	addi	a1, a1, -0x20
   107ec: 13 86 f5 7f  	addi	a2, a1, 0x7ff
   107f0: 13 06 16 00  	addi	a2, a2, 0x1
   107f4: 23 b0 a5 00  	sd	a0, 0x0(a1)
   107f8: 93 85 85 00  	addi	a1, a1, 0x8
   107fc: e3 9c c5 fe  	bne	a1, a2, 0x107f4 <init_search+0x20>
   10800: 63 0a 05 02  	beq	a0, zero, 0x10834 <init_search+0x60>
   10804: 13 05 f5 ff  	addi	a0, a0, -0x1
   10808: b7 35 02 00  	lui	a1, 0x23
   1080c: 93 85 05 fe  	addi	a1, a1, -0x20
   10810: 13 06 f0 ff  	addi	a2, zero, -0x1
   10814: 93 06 04 00  	addi	a3, s0, 0x0
   10818: 03 c7 06 00  	lbu	a4, 0x0(a3)
   1081c: 13 17 37 00  	slli	a4, a4, 0x3
   10820: 33 87 e5 00  	add	a4, a1, a4
   10824: 23 30 a7 00  	sd	a0, 0x0(a4)
   10828: 13 05 f5 ff  	addi	a0, a0, -0x1
   1082c: 93 86 16 00  	addi	a3, a3, 0x1
   10830: e3 14 c5 fe  	bne	a0, a2, 0x10818 <init_search+0x44>
   10834: 23 b8 81 8c  	sd	s0, -0x730(gp)
   10838: 6f 90 60 0c  	jal	zero, 0x198fe <__riscv_restore_1>

000000000001083c <strsearch>:
   1083c: ef 92 80 06  	jal	t0, 0x198a4 <__riscv_save_9>
   10840: 03 b4 81 8c  	ld	s0, -0x738(gp)
   10844: 93 04 05 00  	addi	s1, a0, 0x0
   10848: 93 0a f4 ff  	addi	s5, s0, -0x1
   1084c: ef 10 00 3e  	jal	ra, 0x11c2c <strlen>
   10850: 63 f2 aa 06  	bgeu	s5, a0, 0x108b4 <strsearch+0x78>
   10854: 13 09 05 00  	addi	s2, a0, 0x0
   10858: 83 b9 01 8d  	ld	s3, -0x730(gp)
   1085c: 13 8b 14 00  	addi	s6, s1, 0x1
   10860: 37 35 02 00  	lui	a0, 0x23
   10864: 93 0b 05 fe  	addi	s7, a0, -0x20
   10868: 33 85 54 01  	add	a0, s1, s5
   1086c: 03 45 05 00  	lbu	a0, 0x0(a0)
   10870: 13 15 35 00  	slli	a0, a0, 0x3
   10874: 33 85 ab 00  	add	a0, s7, a0
   10878: 03 35 05 00  	ld	a0, 0x0(a0)
   1087c: 63 0a 05 00  	beq	a0, zero, 0x10890 <strsearch+0x54>
   10880: b3 0a 55 01  	add	s5, a0, s5
   10884: e3 e2 2a ff  	bltu	s5, s2, 0x10868 <strsearch+0x2c>
   10888: e3 e0 2a ff  	bltu	s5, s2, 0x10868 <strsearch+0x2c>
   1088c: 6f 00 80 02  	jal	zero, 0x108b4 <strsearch+0x78>
   10890: 33 8a 8a 40  	sub	s4, s5, s0
   10894: 33 0a 4b 01  	add	s4, s6, s4
   10898: 13 85 09 00  	addi	a0, s3, 0x0
   1089c: 93 05 0a 00  	addi	a1, s4, 0x0
   108a0: 13 06 04 00  	addi	a2, s0, 0x0
   108a4: ef 00 90 75  	jal	ra, 0x117fc <strncmp>
   108a8: 63 08 05 00  	beq	a0, zero, 0x108b8 <strsearch+0x7c>
   108ac: 93 8a 1a 00  	addi	s5, s5, 0x1
   108b0: e3 ec 2a fb  	bltu	s5, s2, 0x10868 <strsearch+0x2c>
   108b4: 13 0a 00 00  	addi	s4, zero, 0x0
   108b8: 13 05 0a 00  	addi	a0, s4, 0x0
   108bc: 6f 90 a0 02  	jal	zero, 0x198e6 <__riscv_restore_9>

00000000000108c0 <main>:
   108c0: ef 82 50 7e  	jal	t0, 0x198a4 <__riscv_save_9>
   108c4: 37 a5 01 00  	lui	a0, 0x1a
   108c8: 13 09 85 94  	addi	s2, a0, -0x6b8
   108cc: 37 d5 01 00  	lui	a0, 0x1d
   108d0: 93 0a 05 2a  	addi	s5, a0, 0x2a0
   108d4: 37 b5 01 00  	lui	a0, 0x1b
   108d8: 13 0b 05 90  	addi	s6, a0, -0x700
   108dc: 37 b5 01 00  	lui	a0, 0x1b
   108e0: 93 0b 35 8e  	addi	s7, a0, -0x71d
   108e4: 37 b5 01 00  	lui	a0, 0x1b
   108e8: 13 0c 45 8e  	addi	s8, a0, -0x71c
   108ec: 37 b5 01 00  	lui	a0, 0x1b
   108f0: 13 04 25 8d  	addi	s0, a0, -0x72e
   108f4: 37 b5 01 00  	lui	a0, 0x1b
   108f8: 93 04 95 8e  	addi	s1, a0, -0x717
   108fc: 13 05 09 00  	addi	a0, s2, 0x0
   10900: ef f0 5f ed  	jal	ra, 0x107d4 <init_search>
   10904: 03 ba 0a 00  	ld	s4, 0x0(s5)
   10908: 13 05 0a 00  	addi	a0, s4, 0x0
   1090c: ef f0 1f f3  	jal	ra, 0x1083c <strsearch>
   10910: 93 09 05 00  	addi	s3, a0, 0x0
   10914: 13 06 0c 00  	addi	a2, s8, 0x0
   10918: 63 04 05 00  	beq	a0, zero, 0x10920 <main+0x60>
   1091c: 13 86 0b 00  	addi	a2, s7, 0x0
   10920: 13 05 04 00  	addi	a0, s0, 0x0
   10924: 93 05 09 00  	addi	a1, s2, 0x0
   10928: 93 06 0a 00  	addi	a3, s4, 0x0
   1092c: ef 00 b0 5a  	jal	ra, 0x116d6 <printf>
   10930: 63 88 09 00  	beq	s3, zero, 0x10940 <main+0x80>
   10934: 13 85 04 00  	addi	a0, s1, 0x0
   10938: 93 85 09 00  	addi	a1, s3, 0x0
   1093c: ef 00 b0 59  	jal	ra, 0x116d6 <printf>
   10940: 13 05 a0 00  	addi	a0, zero, 0xa
   10944: ef 00 50 5c  	jal	ra, 0x11708 <putchar>
   10948: 03 39 0b 00  	ld	s2, 0x0(s6)
   1094c: 93 8a 8a 00  	addi	s5, s5, 0x8
   10950: 13 0b 8b 00  	addi	s6, s6, 0x8
   10954: e3 14 09 fa  	bne	s2, zero, 0x108fc <main+0x3c>
   10958: 13 05 00 00  	addi	a0, zero, 0x0
   1095c: 6f 80 b0 78  	jal	zero, 0x198e6 <__riscv_restore_9>

0000000000010960 <atexit>:
   10960: aa 85        	c.mv	a1, a0
   10962: 81 46        	c.li	a3, 0x0
   10964: 01 46        	c.li	a2, 0x0
   10966: 01 45        	c.li	a0, 0x0
   10968: 6f 10 60 36  	jal	zero, 0x11cce <__register_exitproc>

000000000001096c <malloc>:
   1096c: aa 85        	c.mv	a1, a0
   1096e: 03 b5 81 88  	ld	a0, -0x778(gp)
   10972: 31 a0        	c.j	0x1097e <_malloc_r>

0000000000010974 <free>:
   10974: aa 85        	c.mv	a1, a0
   10976: 03 b5 81 88  	ld	a0, -0x778(gp)
   1097a: 6f 10 80 57  	jal	zero, 0x11ef2 <_free_r>

000000000001097e <_malloc_r>:
   1097e: 1d 71        	c.addi16sp	sp, -0x60
   10980: a6 e4        	c.sdsp	s1, 0x48(sp)
   10982: ca e0        	c.sdsp	s2, 0x40(sp)
   10984: 86 ec        	c.sdsp	ra, 0x58(sp)
   10986: a2 e8        	c.sdsp	s0, 0x50(sp)
   10988: 4e fc        	c.sdsp	s3, 0x38(sp)
   1098a: 93 84 75 01  	addi	s1, a1, 0x17
   1098e: 93 07 e0 02  	addi	a5, zero, 0x2e
   10992: 2a 89        	c.mv	s2, a0
   10994: 63 ee 97 04  	bltu	a5, s1, 0x109f0 <_malloc_r+0x72>
   10998: 93 07 00 02  	addi	a5, zero, 0x20
   1099c: 63 ec b7 18  	bltu	a5, a1, 0x10b34 <_malloc_r+0x1b6>
   109a0: ef 00 e0 5e  	jal	ra, 0x10f8e <__malloc_lock>
   109a4: 93 07 00 05  	addi	a5, zero, 0x50
   109a8: 91 45        	c.li	a1, 0x4
   109aa: 93 04 00 02  	addi	s1, zero, 0x20
   109ae: b7 19 02 00  	lui	s3, 0x21
   109b2: 93 89 89 76  	addi	s3, s3, 0x768
   109b6: ce 97        	c.add	a5, s3
   109b8: 80 67        	c.ld	s0, 0x8(a5)
   109ba: 13 87 07 ff  	addi	a4, a5, -0x10
   109be: 63 01 e4 28  	beq	s0, a4, 0x10c40 <_malloc_r+0x2c2>
   109c2: 1c 64        	c.ld	a5, 0x8(s0)
   109c4: 14 6c        	c.ld	a3, 0x18(s0)
   109c6: 10 68        	c.ld	a2, 0x10(s0)
   109c8: f1 9b        	c.andi	a5, -0x4
   109ca: a2 97        	c.add	a5, s0
   109cc: 98 67        	c.ld	a4, 0x8(a5)
   109ce: 14 ee        	c.sd	a3, 0x18(a2)
   109d0: 90 ea        	c.sd	a2, 0x10(a3)
   109d2: 13 67 17 00  	ori	a4, a4, 0x1
   109d6: 4a 85        	c.mv	a0, s2
   109d8: 98 e7        	c.sd	a4, 0x8(a5)
   109da: ef 00 60 5b  	jal	ra, 0x10f90 <__malloc_unlock>
   109de: 13 05 04 01  	addi	a0, s0, 0x10
   109e2: e6 60        	c.ldsp	ra, 0x58(sp)
   109e4: 46 64        	c.ldsp	s0, 0x50(sp)
   109e6: a6 64        	c.ldsp	s1, 0x48(sp)
   109e8: 06 69        	c.ldsp	s2, 0x40(sp)
   109ea: e2 79        	c.ldsp	s3, 0x38(sp)
   109ec: 25 61        	c.addi16sp	sp, 0x60
   109ee: 82 80        	c.jr	ra
   109f0: b7 07 00 80  	lui	a5, 0x80000
   109f4: c1 98        	c.andi	s1, -0x10
   109f6: 93 c7 f7 ff  	xori	a5, a5, -0x1
   109fa: 63 ed 97 12  	bltu	a5, s1, 0x10b34 <_malloc_r+0x1b6>
   109fe: 63 eb b4 12  	bltu	s1, a1, 0x10b34 <_malloc_r+0x1b6>
   10a02: ef 00 c0 58  	jal	ra, 0x10f8e <__malloc_lock>
   10a06: 93 07 70 1f  	addi	a5, zero, 0x1f7
   10a0a: 63 f6 97 32  	bgeu	a5, s1, 0x10d36 <_malloc_r+0x3b8>
   10a0e: 93 d7 94 00  	srli	a5, s1, 0x9
   10a12: 63 86 07 12  	beq	a5, zero, 0x10b3e <_malloc_r+0x1c0>
   10a16: 11 47        	c.li	a4, 0x4
   10a18: 63 6b f7 26  	bltu	a4, a5, 0x10c8e <_malloc_r+0x310>
   10a1c: 93 d7 64 00  	srli	a5, s1, 0x6
   10a20: 9b 85 97 03  	addiw	a1, a5, 0x39
   10a24: 1b 96 15 00  	slliw	a2, a1, 0x1
   10a28: 1b 88 87 03  	addiw	a6, a5, 0x38
   10a2c: 0e 06        	c.slli	a2, 0x3
   10a2e: b7 19 02 00  	lui	s3, 0x21
   10a32: 93 89 89 76  	addi	s3, s3, 0x768
   10a36: 4e 96        	c.add	a2, s3
   10a38: 00 66        	c.ld	s0, 0x8(a2)
   10a3a: 41 16        	c.addi	a2, -0x10
   10a3c: 63 01 86 02  	beq	a2, s0, 0x10a5e <_malloc_r+0xe0>
   10a40: 7d 45        	c.li	a0, 0x1f
   10a42: 39 a0        	c.j	0x10a50 <_malloc_r+0xd2>
   10a44: 14 6c        	c.ld	a3, 0x18(s0)
   10a46: 63 5b 07 1e  	bge	a4, zero, 0x10c3c <_malloc_r+0x2be>
   10a4a: 63 0a d6 00  	beq	a2, a3, 0x10a5e <_malloc_r+0xe0>
   10a4e: 36 84        	c.mv	s0, a3
   10a50: 1c 64        	c.ld	a5, 0x8(s0)
   10a52: f1 9b        	c.andi	a5, -0x4
   10a54: 33 87 97 40  	sub	a4, a5, s1
   10a58: e3 56 e5 fe  	bge	a0, a4, 0x10a44 <_malloc_r+0xc6>
   10a5c: c2 85        	c.mv	a1, a6
   10a5e: 03 b4 09 02  	ld	s0, 0x20(s3)
   10a62: 37 18 02 00  	lui	a6, 0x21
   10a66: 13 08 88 77  	addi	a6, a6, 0x778
   10a6a: 63 06 04 1d  	beq	s0, a6, 0x10c36 <_malloc_r+0x2b8>
   10a6e: 1c 64        	c.ld	a5, 0x8(s0)
   10a70: fd 46        	c.li	a3, 0x1f
   10a72: f1 9b        	c.andi	a5, -0x4
   10a74: 33 87 97 40  	sub	a4, a5, s1
   10a78: 63 c8 e6 28  	blt	a3, a4, 0x10d08 <_malloc_r+0x38a>
   10a7c: 23 b4 09 03  	sd	a6, 0x28(s3)
   10a80: 23 b0 09 03  	sd	a6, 0x20(s3)
   10a84: 63 57 07 26  	bge	a4, zero, 0x10cf2 <_malloc_r+0x374>
   10a88: 13 07 f0 1f  	addi	a4, zero, 0x1ff
   10a8c: 03 b5 89 00  	ld	a0, 0x8(s3)
   10a90: 63 6d f7 1a  	bltu	a4, a5, 0x10c4a <_malloc_r+0x2cc>
   10a94: 8d 83        	c.srli	a5, 0x3
   10a96: 1b 87 17 00  	addiw	a4, a5, 0x1
   10a9a: 1b 17 17 00  	slliw	a4, a4, 0x1
   10a9e: 0e 07        	c.slli	a4, 0x3
   10aa0: 4e 97        	c.add	a4, s3
   10aa2: 10 63        	c.ld	a2, 0x0(a4)
   10aa4: 9b d7 27 40  	sraiw	a5, a5, 0x2
   10aa8: 85 46        	c.li	a3, 0x1
   10aaa: b3 97 f6 00  	sll	a5, a3, a5
   10aae: 5d 8d        	c.or	a0, a5
   10ab0: 93 07 07 ff  	addi	a5, a4, -0x10
   10ab4: 1c ec        	c.sd	a5, 0x18(s0)
   10ab6: 10 e8        	c.sd	a2, 0x10(s0)
   10ab8: 23 b4 a9 00  	sd	a0, 0x8(s3)
   10abc: 00 e3        	c.sd	s0, 0x0(a4)
   10abe: 00 ee        	c.sd	s0, 0x18(a2)
   10ac0: 9b d7 25 40  	sraiw	a5, a1, 0x2
   10ac4: 05 46        	c.li	a2, 0x1
   10ac6: 33 16 f6 00  	sll	a2, a2, a5
   10aca: 63 61 c5 08  	bltu	a0, a2, 0x10b4c <_malloc_r+0x1ce>
   10ace: b3 77 a6 00  	and	a5, a2, a0
   10ad2: 81 ef        	c.bnez	a5, 0x10aea <_malloc_r+0x16c>
   10ad4: 06 06        	c.slli	a2, 0x1
   10ad6: f1 99        	c.andi	a1, -0x4
   10ad8: b3 77 a6 00  	and	a5, a2, a0
   10adc: 91 25        	c.addiw	a1, 0x4
   10ade: 91 e7        	c.bnez	a5, 0x10aea <_malloc_r+0x16c>
   10ae0: 06 06        	c.slli	a2, 0x1
   10ae2: b3 77 a6 00  	and	a5, a2, a0
   10ae6: 91 25        	c.addiw	a1, 0x4
   10ae8: e5 df        	c.beqz	a5, 0x10ae0 <_malloc_r+0x162>
   10aea: fd 48        	c.li	a7, 0x1f
   10aec: 1b 83 15 00  	addiw	t1, a1, 0x1
   10af0: 1b 13 13 00  	slliw	t1, t1, 0x1
   10af4: 0e 03        	c.slli	t1, 0x3
   10af6: 41 13        	c.addi	t1, -0x10
   10af8: 4e 93        	c.add	t1, s3
   10afa: 1a 85        	c.mv	a0, t1
   10afc: 1c 6d        	c.ld	a5, 0x18(a0)
   10afe: 2e 8e        	c.mv	t3, a1
   10b00: 63 08 f5 1a  	beq	a0, a5, 0x10cb0 <_malloc_r+0x332>
   10b04: 98 67        	c.ld	a4, 0x8(a5)
   10b06: 3e 84        	c.mv	s0, a5
   10b08: 9c 6f        	c.ld	a5, 0x18(a5)
   10b0a: 71 9b        	c.andi	a4, -0x4
   10b0c: b3 06 97 40  	sub	a3, a4, s1
   10b10: 63 c7 d8 1a  	blt	a7, a3, 0x10cbe <_malloc_r+0x340>
   10b14: e3 c6 06 fe  	blt	a3, zero, 0x10b00 <_malloc_r+0x182>
   10b18: 22 97        	c.add	a4, s0
   10b1a: 14 67        	c.ld	a3, 0x8(a4)
   10b1c: 10 68        	c.ld	a2, 0x10(s0)
   10b1e: 4a 85        	c.mv	a0, s2
   10b20: 93 e6 16 00  	ori	a3, a3, 0x1
   10b24: 14 e7        	c.sd	a3, 0x8(a4)
   10b26: 1c ee        	c.sd	a5, 0x18(a2)
   10b28: 90 eb        	c.sd	a2, 0x10(a5)
   10b2a: ef 00 60 46  	jal	ra, 0x10f90 <__malloc_unlock>
   10b2e: 13 05 04 01  	addi	a0, s0, 0x10
   10b32: 45 bd        	c.j	0x109e2 <_malloc_r+0x64>
   10b34: b1 47        	c.li	a5, 0xc
   10b36: 23 20 f9 00  	sw	a5, 0x0(s2)
   10b3a: 01 45        	c.li	a0, 0x0
   10b3c: 5d b5        	c.j	0x109e2 <_malloc_r+0x64>
   10b3e: 13 06 00 40  	addi	a2, zero, 0x400
   10b42: 93 05 00 04  	addi	a1, zero, 0x40
   10b46: 13 08 f0 03  	addi	a6, zero, 0x3f
   10b4a: d5 b5        	c.j	0x10a2e <_malloc_r+0xb0>
   10b4c: 03 b4 09 01  	ld	s0, 0x10(s3)
   10b50: 56 f4        	c.sdsp	s5, 0x28(sp)
   10b52: 1c 64        	c.ld	a5, 0x8(s0)
   10b54: 93 fa c7 ff  	andi	s5, a5, -0x4
   10b58: 63 e7 9a 00  	bltu	s5, s1, 0x10b66 <_malloc_r+0x1e8>
   10b5c: 33 87 9a 40  	sub	a4, s5, s1
   10b60: fd 47        	c.li	a5, 0x1f
   10b62: 63 c4 e7 0a  	blt	a5, a4, 0x10c0a <_malloc_r+0x28c>
   10b66: 66 e4        	c.sdsp	s9, 0x8(sp)
   10b68: 52 f8        	c.sdsp	s4, 0x30(sp)
   10b6a: 03 b7 81 87  	ld	a4, -0x788(gp)
   10b6e: 03 ba 81 8e  	ld	s4, -0x718(gp)
   10b72: 62 e8        	c.sdsp	s8, 0x10(sp)
   10b74: 5a f0        	c.sdsp	s6, 0x20(sp)
   10b76: fd 57        	c.li	a5, -0x1
   10b78: 33 0c 54 01  	add	s8, s0, s5
   10b7c: 26 9a        	c.add	s4, s1
   10b7e: 63 0c f7 2e  	beq	a4, a5, 0x10e76 <_malloc_r+0x4f8>
   10b82: 85 67        	c.lui	a5, 0x1
   10b84: fd 07        	c.addi	a5, 0x1f
   10b86: 3e 9a        	c.add	s4, a5
   10b88: fd 77        	c.lui	a5, 0xfffff
   10b8a: 33 7a fa 00  	and	s4, s4, a5
   10b8e: d2 85        	c.mv	a1, s4
   10b90: 4a 85        	c.mv	a0, s2
   10b92: ef 00 b0 63  	jal	ra, 0x119cc <_sbrk_r>
   10b96: fd 57        	c.li	a5, -0x1
   10b98: 2a 8b        	c.mv	s6, a0
   10b9a: 63 04 f5 36  	beq	a0, a5, 0x10f02 <_malloc_r+0x584>
   10b9e: 5e ec        	c.sdsp	s7, 0x18(sp)
   10ba0: 63 6e 85 1b  	bltu	a0, s8, 0x10d5c <_malloc_r+0x3de>
   10ba4: b7 3b 02 00  	lui	s7, 0x23
   10ba8: 93 8b 0b 7e  	addi	s7, s7, 0x7e0
   10bac: 83 a7 0b 00  	lw	a5, 0x0(s7)
   10bb0: 3b 87 47 01  	addw	a4, a5, s4
   10bb4: 23 a0 eb 00  	sw	a4, 0x0(s7)
   10bb8: ba 86        	c.mv	a3, a4
   10bba: 63 19 ac 20  	bne	s8, a0, 0x10dcc <_malloc_r+0x44e>
   10bbe: 93 17 45 03  	slli	a5, a0, 0x34
   10bc2: 63 95 07 20  	bne	a5, zero, 0x10dcc <_malloc_r+0x44e>
   10bc6: 03 bb 09 01  	ld	s6, 0x10(s3)
   10bca: b3 87 4a 01  	add	a5, s5, s4
   10bce: 93 e7 17 00  	ori	a5, a5, 0x1
   10bd2: 23 34 fb 00  	sd	a5, 0x8(s6)
   10bd6: 03 b6 01 8e  	ld	a2, -0x720(gp)
   10bda: 63 74 e6 00  	bgeu	a2, a4, 0x10be2 <_malloc_r+0x264>
   10bde: 23 b0 e1 8e  	sd	a4, -0x720(gp)
   10be2: 03 b6 81 8d  	ld	a2, -0x728(gp)
   10be6: 63 74 e6 00  	bgeu	a2, a4, 0x10bee <_malloc_r+0x270>
   10bea: 23 bc e1 8c  	sd	a4, -0x728(gp)
   10bee: e2 6b        	c.ldsp	s7, 0x18(sp)
   10bf0: 5a 84        	c.mv	s0, s6
   10bf2: f1 9b        	c.andi	a5, -0x4
   10bf4: 33 87 97 40  	sub	a4, a5, s1
   10bf8: 63 ef 97 2a  	bltu	a5, s1, 0x10eb6 <_malloc_r+0x538>
   10bfc: fd 47        	c.li	a5, 0x1f
   10bfe: 63 dc e7 2a  	bge	a5, a4, 0x10eb6 <_malloc_r+0x538>
   10c02: 42 7a        	c.ldsp	s4, 0x30(sp)
   10c04: 02 7b        	c.ldsp	s6, 0x20(sp)
   10c06: 42 6c        	c.ldsp	s8, 0x10(sp)
   10c08: a2 6c        	c.ldsp	s9, 0x8(sp)
   10c0a: 93 e7 14 00  	ori	a5, s1, 0x1
   10c0e: 1c e4        	c.sd	a5, 0x8(s0)
   10c10: a2 94        	c.add	s1, s0
   10c12: 23 b8 99 00  	sd	s1, 0x10(s3)
   10c16: 13 67 17 00  	ori	a4, a4, 0x1
   10c1a: 4a 85        	c.mv	a0, s2
   10c1c: 98 e4        	c.sd	a4, 0x8(s1)
   10c1e: ef 00 20 37  	jal	ra, 0x10f90 <__malloc_unlock>
   10c22: e6 60        	c.ldsp	ra, 0x58(sp)
   10c24: 13 05 04 01  	addi	a0, s0, 0x10
   10c28: 46 64        	c.ldsp	s0, 0x50(sp)
   10c2a: a2 7a        	c.ldsp	s5, 0x28(sp)
   10c2c: a6 64        	c.ldsp	s1, 0x48(sp)
   10c2e: 06 69        	c.ldsp	s2, 0x40(sp)
   10c30: e2 79        	c.ldsp	s3, 0x38(sp)
   10c32: 25 61        	c.addi16sp	sp, 0x60
   10c34: 82 80        	c.jr	ra
   10c36: 03 b5 89 00  	ld	a0, 0x8(s3)
   10c3a: 59 b5        	c.j	0x10ac0 <_malloc_r+0x142>
   10c3c: 10 68        	c.ld	a2, 0x10(s0)
   10c3e: 71 b3        	c.j	0x109ca <_malloc_r+0x4c>
   10c40: 80 6f        	c.ld	s0, 0x18(a5)
   10c42: 89 25        	c.addiw	a1, 0x2
   10c44: e3 8d 87 e0  	beq	a5, s0, 0x10a5e <_malloc_r+0xe0>
   10c48: ad bb        	c.j	0x109c2 <_malloc_r+0x44>
   10c4a: 13 d7 97 00  	srli	a4, a5, 0x9
   10c4e: 91 46        	c.li	a3, 0x4
   10c50: 63 fc e6 0e  	bgeu	a3, a4, 0x10d48 <_malloc_r+0x3ca>
   10c54: d1 46        	c.li	a3, 0x14
   10c56: 63 ea e6 26  	bltu	a3, a4, 0x10eca <_malloc_r+0x54c>
   10c5a: 1b 06 c7 05  	addiw	a2, a4, 0x5c
   10c5e: 1b 16 16 00  	slliw	a2, a2, 0x1
   10c62: 9b 06 b7 05  	addiw	a3, a4, 0x5b
   10c66: 0e 06        	c.slli	a2, 0x3
   10c68: 4e 96        	c.add	a2, s3
   10c6a: 18 62        	c.ld	a4, 0x0(a2)
   10c6c: 41 16        	c.addi	a2, -0x10
   10c6e: 63 16 e6 00  	bne	a2, a4, 0x10c7a <_malloc_r+0x2fc>
   10c72: 29 a4        	c.j	0x10e7c <_malloc_r+0x4fe>
   10c74: 18 6b        	c.ld	a4, 0x10(a4)
   10c76: 63 06 e6 00  	beq	a2, a4, 0x10c82 <_malloc_r+0x304>
   10c7a: 14 67        	c.ld	a3, 0x8(a4)
   10c7c: f1 9a        	c.andi	a3, -0x4
   10c7e: e3 eb d7 fe  	bltu	a5, a3, 0x10c74 <_malloc_r+0x2f6>
   10c82: 10 6f        	c.ld	a2, 0x18(a4)
   10c84: 10 ec        	c.sd	a2, 0x18(s0)
   10c86: 18 e8        	c.sd	a4, 0x10(s0)
   10c88: 00 ea        	c.sd	s0, 0x10(a2)
   10c8a: 00 ef        	c.sd	s0, 0x18(a4)
   10c8c: 15 bd        	c.j	0x10ac0 <_malloc_r+0x142>
   10c8e: 51 47        	c.li	a4, 0x14
   10c90: 63 7d f7 0c  	bgeu	a4, a5, 0x10d6a <_malloc_r+0x3ec>
   10c94: 13 07 40 05  	addi	a4, zero, 0x54
   10c98: 63 67 f7 24  	bltu	a4, a5, 0x10ee6 <_malloc_r+0x568>
   10c9c: 93 d7 c4 00  	srli	a5, s1, 0xc
   10ca0: 9b 85 f7 06  	addiw	a1, a5, 0x6f
   10ca4: 1b 96 15 00  	slliw	a2, a1, 0x1
   10ca8: 1b 88 e7 06  	addiw	a6, a5, 0x6e
   10cac: 0e 06        	c.slli	a2, 0x3
   10cae: 41 b3        	c.j	0x10a2e <_malloc_r+0xb0>
   10cb0: 05 2e        	c.addiw	t3, 0x1
   10cb2: 93 77 3e 00  	andi	a5, t3, 0x3
   10cb6: 41 05        	c.addi	a0, 0x10
   10cb8: f1 c7        	c.beqz	a5, 0x10d84 <_malloc_r+0x406>
   10cba: 1c 6d        	c.ld	a5, 0x18(a0)
   10cbc: 91 b5        	c.j	0x10b00 <_malloc_r+0x182>
   10cbe: 10 68        	c.ld	a2, 0x10(s0)
   10cc0: 93 e5 14 00  	ori	a1, s1, 0x1
   10cc4: 0c e4        	c.sd	a1, 0x8(s0)
   10cc6: 1c ee        	c.sd	a5, 0x18(a2)
   10cc8: 90 eb        	c.sd	a2, 0x10(a5)
   10cca: a2 94        	c.add	s1, s0
   10ccc: 23 b4 99 02  	sd	s1, 0x28(s3)
   10cd0: 23 b0 99 02  	sd	s1, 0x20(s3)
   10cd4: 93 e7 16 00  	ori	a5, a3, 0x1
   10cd8: 23 bc 04 01  	sd	a6, 0x18(s1)
   10cdc: 23 b8 04 01  	sd	a6, 0x10(s1)
   10ce0: 9c e4        	c.sd	a5, 0x8(s1)
   10ce2: 22 97        	c.add	a4, s0
   10ce4: 4a 85        	c.mv	a0, s2
   10ce6: 14 e3        	c.sd	a3, 0x0(a4)
   10ce8: ef 00 80 2a  	jal	ra, 0x10f90 <__malloc_unlock>
   10cec: 13 05 04 01  	addi	a0, s0, 0x10
   10cf0: cd b9        	c.j	0x109e2 <_malloc_r+0x64>
   10cf2: a2 97        	c.add	a5, s0
   10cf4: 98 67        	c.ld	a4, 0x8(a5)
   10cf6: 4a 85        	c.mv	a0, s2
   10cf8: 13 67 17 00  	ori	a4, a4, 0x1
   10cfc: 98 e7        	c.sd	a4, 0x8(a5)
   10cfe: ef 00 20 29  	jal	ra, 0x10f90 <__malloc_unlock>
   10d02: 13 05 04 01  	addi	a0, s0, 0x10
   10d06: f1 b9        	c.j	0x109e2 <_malloc_r+0x64>
   10d08: 93 e6 14 00  	ori	a3, s1, 0x1
   10d0c: 14 e4        	c.sd	a3, 0x8(s0)
   10d0e: a2 94        	c.add	s1, s0
   10d10: 23 b4 99 02  	sd	s1, 0x28(s3)
   10d14: 23 b0 99 02  	sd	s1, 0x20(s3)
   10d18: 93 66 17 00  	ori	a3, a4, 0x1
   10d1c: 23 bc 04 01  	sd	a6, 0x18(s1)
   10d20: 23 b8 04 01  	sd	a6, 0x10(s1)
   10d24: 94 e4        	c.sd	a3, 0x8(s1)
   10d26: a2 97        	c.add	a5, s0
   10d28: 4a 85        	c.mv	a0, s2
   10d2a: 98 e3        	c.sd	a4, 0x0(a5)
   10d2c: ef 00 40 26  	jal	ra, 0x10f90 <__malloc_unlock>
   10d30: 13 05 04 01  	addi	a0, s0, 0x10
   10d34: 7d b1        	c.j	0x109e2 <_malloc_r+0x64>
   10d36: 93 d5 34 00  	srli	a1, s1, 0x3
   10d3a: 9b 87 15 00  	addiw	a5, a1, 0x1
   10d3e: 9b 97 17 00  	slliw	a5, a5, 0x1
   10d42: 81 25        	c.addiw	a1, 0x0
   10d44: 8e 07        	c.slli	a5, 0x3
   10d46: a5 b1        	c.j	0x109ae <_malloc_r+0x30>
   10d48: 13 d7 67 00  	srli	a4, a5, 0x6
   10d4c: 1b 06 97 03  	addiw	a2, a4, 0x39
   10d50: 1b 16 16 00  	slliw	a2, a2, 0x1
   10d54: 9b 06 87 03  	addiw	a3, a4, 0x38
   10d58: 0e 06        	c.slli	a2, 0x3
   10d5a: 39 b7        	c.j	0x10c68 <_malloc_r+0x2ea>
   10d5c: 63 0e 34 05  	beq	s0, s3, 0x10db8 <_malloc_r+0x43a>
   10d60: 03 b4 09 01  	ld	s0, 0x10(s3)
   10d64: e2 6b        	c.ldsp	s7, 0x18(sp)
   10d66: 1c 64        	c.ld	a5, 0x8(s0)
   10d68: 69 b5        	c.j	0x10bf2 <_malloc_r+0x274>
   10d6a: 9b 85 c7 05  	addiw	a1, a5, 0x5c
   10d6e: 1b 96 15 00  	slliw	a2, a1, 0x1
   10d72: 1b 88 b7 05  	addiw	a6, a5, 0x5b
   10d76: 0e 06        	c.slli	a2, 0x3
   10d78: 5d b9        	c.j	0x10a2e <_malloc_r+0xb0>
   10d7a: 83 37 03 01  	ld	a5, 0x10(t1)
   10d7e: fd 35        	c.addiw	a1, -0x1
   10d80: 63 94 67 20  	bne	a5, t1, 0x10f88 <_malloc_r+0x60a>
   10d84: 93 f7 35 00  	andi	a5, a1, 0x3
   10d88: 41 13        	c.addi	t1, -0x10
   10d8a: e5 fb        	c.bnez	a5, 0x10d7a <_malloc_r+0x3fc>
   10d8c: 03 b7 89 00  	ld	a4, 0x8(s3)
   10d90: 93 47 f6 ff  	xori	a5, a2, -0x1
   10d94: f9 8f        	c.and	a5, a4
   10d96: 23 b4 f9 00  	sd	a5, 0x8(s3)
   10d9a: 06 06        	c.slli	a2, 0x1
   10d9c: e3 e8 c7 da  	bltu	a5, a2, 0x10b4c <_malloc_r+0x1ce>
   10da0: e3 06 06 da  	beq	a2, zero, 0x10b4c <_malloc_r+0x1ce>
   10da4: 33 77 f6 00  	and	a4, a2, a5
   10da8: 11 e7        	c.bnez	a4, 0x10db4 <_malloc_r+0x436>
   10daa: 06 06        	c.slli	a2, 0x1
   10dac: 33 77 f6 00  	and	a4, a2, a5
   10db0: 11 2e        	c.addiw	t3, 0x4
   10db2: 65 df        	c.beqz	a4, 0x10daa <_malloc_r+0x42c>
   10db4: f2 85        	c.mv	a1, t3
   10db6: 1d bb        	c.j	0x10aec <_malloc_r+0x16e>
   10db8: b7 3b 02 00  	lui	s7, 0x23
   10dbc: 93 8b 0b 7e  	addi	s7, s7, 0x7e0
   10dc0: 83 a7 0b 00  	lw	a5, 0x0(s7)
   10dc4: bb 86 47 01  	addw	a3, a5, s4
   10dc8: 23 a0 db 00  	sw	a3, 0x0(s7)
   10dcc: 03 b7 81 87  	ld	a4, -0x788(gp)
   10dd0: fd 57        	c.li	a5, -0x1
   10dd2: 63 0c f7 12  	beq	a4, a5, 0x10f0a <_malloc_r+0x58c>
   10dd6: b3 07 8b 41  	sub	a5, s6, s8
   10dda: b5 9f        	c.addw	a5, a3
   10ddc: 23 a0 fb 00  	sw	a5, 0x0(s7)
   10de0: 93 7c fb 00  	andi	s9, s6, 0xf
   10de4: 63 85 0c 0a  	beq	s9, zero, 0x10e8e <_malloc_r+0x510>
   10de8: 33 0b 9b 41  	sub	s6, s6, s9
   10dec: 05 67        	c.lui	a4, 0x1
   10dee: 41 07        	c.addi	a4, 0x10
   10df0: 41 0b        	c.addi	s6, 0x10
   10df2: 33 0c 97 41  	sub	s8, a4, s9
   10df6: 5a 9a        	c.add	s4, s6
   10df8: 33 0c 4c 41  	sub	s8, s8, s4
   10dfc: 52 1c        	c.slli	s8, 0x34
   10dfe: 13 5c 4c 03  	srli	s8, s8, 0x34
   10e02: e2 85        	c.mv	a1, s8
   10e04: 4a 85        	c.mv	a0, s2
   10e06: ef 00 70 3c  	jal	ra, 0x119cc <_sbrk_r>
   10e0a: fd 57        	c.li	a5, -0x1
   10e0c: 63 0e f5 12  	beq	a0, a5, 0x10f48 <_malloc_r+0x5ca>
   10e10: 33 05 65 41  	sub	a0, a0, s6
   10e14: 9b 06 0c 00  	addiw	a3, s8, 0x0
   10e18: 33 0a 85 01  	add	s4, a0, s8
   10e1c: 03 a7 0b 00  	lw	a4, 0x0(s7)
   10e20: 23 b8 69 01  	sd	s6, 0x10(s3)
   10e24: 93 67 1a 00  	ori	a5, s4, 0x1
   10e28: 35 9f        	c.addw	a4, a3
   10e2a: 23 a0 eb 00  	sw	a4, 0x0(s7)
   10e2e: 23 34 fb 00  	sd	a5, 0x8(s6)
   10e32: e3 02 34 db  	beq	s0, s3, 0x10bd6 <_malloc_r+0x258>
   10e36: 7d 46        	c.li	a2, 0x1f
   10e38: 63 7b 56 07  	bgeu	a2, s5, 0x10eae <_malloc_r+0x530>
   10e3c: 14 64        	c.ld	a3, 0x8(s0)
   10e3e: 93 87 8a fe  	addi	a5, s5, -0x18
   10e42: c1 9b        	c.andi	a5, -0x10
   10e44: 85 8a        	c.andi	a3, 0x1
   10e46: dd 8e        	c.or	a3, a5
   10e48: 14 e4        	c.sd	a3, 0x8(s0)
   10e4a: a5 45        	c.li	a1, 0x9
   10e4c: b3 06 f4 00  	add	a3, s0, a5
   10e50: 8c e6        	c.sd	a1, 0x8(a3)
   10e52: 8c ea        	c.sd	a1, 0x10(a3)
   10e54: 63 65 f6 00  	bltu	a2, a5, 0x10e5e <_malloc_r+0x4e0>
   10e58: 83 37 8b 00  	ld	a5, 0x8(s6)
   10e5c: ad bb        	c.j	0x10bd6 <_malloc_r+0x258>
   10e5e: 93 05 04 01  	addi	a1, s0, 0x10
   10e62: 4a 85        	c.mv	a0, s2
   10e64: ef 10 e0 08  	jal	ra, 0x11ef2 <_free_r>
   10e68: 03 bb 09 01  	ld	s6, 0x10(s3)
   10e6c: 03 a7 0b 00  	lw	a4, 0x0(s7)
   10e70: 83 37 8b 00  	ld	a5, 0x8(s6)
   10e74: 8d b3        	c.j	0x10bd6 <_malloc_r+0x258>
   10e76: 13 0a 0a 02  	addi	s4, s4, 0x20
   10e7a: 11 bb        	c.j	0x10b8e <_malloc_r+0x210>
   10e7c: 9b d6 26 40  	sraiw	a3, a3, 0x2
   10e80: 85 47        	c.li	a5, 0x1
   10e82: b3 97 d7 00  	sll	a5, a5, a3
   10e86: 5d 8d        	c.or	a0, a5
   10e88: 23 b4 a9 00  	sd	a0, 0x8(s3)
   10e8c: e5 bb        	c.j	0x10c84 <_malloc_r+0x306>
   10e8e: 33 0c 4b 01  	add	s8, s6, s4
   10e92: 33 0c 80 41  	sub	s8, zero, s8
   10e96: 52 1c        	c.slli	s8, 0x34
   10e98: 13 5c 4c 03  	srli	s8, s8, 0x34
   10e9c: e2 85        	c.mv	a1, s8
   10e9e: 4a 85        	c.mv	a0, s2
   10ea0: ef 00 d0 32  	jal	ra, 0x119cc <_sbrk_r>
   10ea4: fd 57        	c.li	a5, -0x1
   10ea6: 81 46        	c.li	a3, 0x0
   10ea8: e3 14 f5 f6  	bne	a0, a5, 0x10e10 <_malloc_r+0x492>
   10eac: 85 bf        	c.j	0x10e1c <_malloc_r+0x49e>
   10eae: e2 6b        	c.ldsp	s7, 0x18(sp)
   10eb0: 85 47        	c.li	a5, 0x1
   10eb2: 23 34 fb 00  	sd	a5, 0x8(s6)
   10eb6: 4a 85        	c.mv	a0, s2
   10eb8: ef 00 80 0d  	jal	ra, 0x10f90 <__malloc_unlock>
   10ebc: 01 45        	c.li	a0, 0x0
   10ebe: 42 7a        	c.ldsp	s4, 0x30(sp)
   10ec0: a2 7a        	c.ldsp	s5, 0x28(sp)
   10ec2: 02 7b        	c.ldsp	s6, 0x20(sp)
   10ec4: 42 6c        	c.ldsp	s8, 0x10(sp)
   10ec6: a2 6c        	c.ldsp	s9, 0x8(sp)
   10ec8: 29 be        	c.j	0x109e2 <_malloc_r+0x64>
   10eca: 93 06 40 05  	addi	a3, zero, 0x54
   10ece: 63 e1 e6 04  	bltu	a3, a4, 0x10f10 <_malloc_r+0x592>
   10ed2: 13 d7 c7 00  	srli	a4, a5, 0xc
   10ed6: 1b 06 f7 06  	addiw	a2, a4, 0x6f
   10eda: 1b 16 16 00  	slliw	a2, a2, 0x1
   10ede: 9b 06 e7 06  	addiw	a3, a4, 0x6e
   10ee2: 0e 06        	c.slli	a2, 0x3
   10ee4: 51 b3        	c.j	0x10c68 <_malloc_r+0x2ea>
   10ee6: 13 07 40 15  	addi	a4, zero, 0x154
   10eea: 63 61 f7 04  	bltu	a4, a5, 0x10f2c <_malloc_r+0x5ae>
   10eee: 93 d7 f4 00  	srli	a5, s1, 0xf
   10ef2: 9b 85 87 07  	addiw	a1, a5, 0x78
   10ef6: 1b 96 15 00  	slliw	a2, a1, 0x1
   10efa: 1b 88 77 07  	addiw	a6, a5, 0x77
   10efe: 0e 06        	c.slli	a2, 0x3
   10f00: 3d b6        	c.j	0x10a2e <_malloc_r+0xb0>
   10f02: 03 b4 09 01  	ld	s0, 0x10(s3)
   10f06: 1c 64        	c.ld	a5, 0x8(s0)
   10f08: ed b1        	c.j	0x10bf2 <_malloc_r+0x274>
   10f0a: 23 bc 61 87  	sd	s6, -0x788(gp)
   10f0e: c9 bd        	c.j	0x10de0 <_malloc_r+0x462>
   10f10: 93 06 40 15  	addi	a3, zero, 0x154
   10f14: 63 e0 e6 04  	bltu	a3, a4, 0x10f54 <_malloc_r+0x5d6>
   10f18: 13 d7 f7 00  	srli	a4, a5, 0xf
   10f1c: 1b 06 87 07  	addiw	a2, a4, 0x78
   10f20: 1b 16 16 00  	slliw	a2, a2, 0x1
   10f24: 9b 06 77 07  	addiw	a3, a4, 0x77
   10f28: 0e 06        	c.slli	a2, 0x3
   10f2a: 3d bb        	c.j	0x10c68 <_malloc_r+0x2ea>
   10f2c: 13 07 40 55  	addi	a4, zero, 0x554
   10f30: 63 60 f7 04  	bltu	a4, a5, 0x10f70 <_malloc_r+0x5f2>
   10f34: 93 d7 24 01  	srli	a5, s1, 0x12
   10f38: 9b 85 d7 07  	addiw	a1, a5, 0x7d
   10f3c: 1b 96 15 00  	slliw	a2, a1, 0x1
   10f40: 1b 88 c7 07  	addiw	a6, a5, 0x7c
   10f44: 0e 06        	c.slli	a2, 0x3
   10f46: e5 b4        	c.j	0x10a2e <_malloc_r+0xb0>
   10f48: c1 1c        	c.addi	s9, -0x10
   10f4a: 66 9a        	c.add	s4, s9
   10f4c: 33 0a 6a 41  	sub	s4, s4, s6
   10f50: 81 46        	c.li	a3, 0x0
   10f52: e9 b5        	c.j	0x10e1c <_malloc_r+0x49e>
   10f54: 93 06 40 55  	addi	a3, zero, 0x554
   10f58: 63 e3 e6 02  	bltu	a3, a4, 0x10f7e <_malloc_r+0x600>
   10f5c: 13 d7 27 01  	srli	a4, a5, 0x12
   10f60: 1b 06 d7 07  	addiw	a2, a4, 0x7d
   10f64: 1b 16 16 00  	slliw	a2, a2, 0x1
   10f68: 9b 06 c7 07  	addiw	a3, a4, 0x7c
   10f6c: 0e 06        	c.slli	a2, 0x3
   10f6e: ed b9        	c.j	0x10c68 <_malloc_r+0x2ea>
   10f70: 13 06 00 7f  	addi	a2, zero, 0x7f0
   10f74: 93 05 f0 07  	addi	a1, zero, 0x7f
   10f78: 13 08 e0 07  	addi	a6, zero, 0x7e
   10f7c: 4d bc        	c.j	0x10a2e <_malloc_r+0xb0>
   10f7e: 13 06 00 7f  	addi	a2, zero, 0x7f0
   10f82: 93 06 e0 07  	addi	a3, zero, 0x7e
   10f86: cd b1        	c.j	0x10c68 <_malloc_r+0x2ea>
   10f88: 83 b7 89 00  	ld	a5, 0x8(s3)
   10f8c: 39 b5        	c.j	0x10d9a <_malloc_r+0x41c>

0000000000010f8e <__malloc_lock>:
   10f8e: 82 80        	c.jr	ra

0000000000010f90 <__malloc_unlock>:
   10f90: 82 80        	c.jr	ra

0000000000010f92 <realloc>:
   10f92: aa 87        	c.mv	a5, a0
   10f94: 03 b5 81 88  	ld	a0, -0x778(gp)
   10f98: 2e 86        	c.mv	a2, a1
   10f9a: be 85        	c.mv	a1, a5
   10f9c: 09 a0        	c.j	0x10f9e <_realloc_r>

0000000000010f9e <_realloc_r>:
   10f9e: 5d 71        	c.addi16sp	sp, -0x50
   10fa0: 4a f8        	c.sdsp	s2, 0x30(sp)
   10fa2: 86 e4        	c.sdsp	ra, 0x48(sp)
   10fa4: 32 89        	c.mv	s2, a2
   10fa6: 63 84 05 16  	beq	a1, zero, 0x1110e <_realloc_r+0x170>
   10faa: a2 e0        	c.sdsp	s0, 0x40(sp)
   10fac: 26 fc        	c.sdsp	s1, 0x38(sp)
   10fae: 2e 84        	c.mv	s0, a1
   10fb0: 4e f4        	c.sdsp	s3, 0x28(sp)
   10fb2: 52 f0        	c.sdsp	s4, 0x20(sp)
   10fb4: 56 ec        	c.sdsp	s5, 0x18(sp)
   10fb6: aa 89        	c.mv	s3, a0
   10fb8: ef f0 7f fd  	jal	ra, 0x10f8e <__malloc_lock>
   10fbc: 83 37 84 ff  	ld	a5, -0x8(s0)
   10fc0: 93 04 79 01  	addi	s1, s2, 0x17
   10fc4: 13 07 e0 02  	addi	a4, zero, 0x2e
   10fc8: 93 0a 04 ff  	addi	s5, s0, -0x10
   10fcc: 13 fa c7 ff  	andi	s4, a5, -0x4
   10fd0: 63 74 97 0c  	bgeu	a4, s1, 0x11098 <_realloc_r+0xfa>
   10fd4: 37 07 00 80  	lui	a4, 0x80000
   10fd8: c1 98        	c.andi	s1, -0x10
   10fda: 13 47 f7 ff  	xori	a4, a4, -0x1
   10fde: 63 61 97 0c  	bltu	a4, s1, 0x110a0 <_realloc_r+0x102>
   10fe2: 63 ef 24 0b  	bltu	s1, s2, 0x110a0 <_realloc_r+0x102>
   10fe6: 63 58 9a 0c  	bge	s4, s1, 0x110b6 <_realloc_r+0x118>
   10fea: 37 17 02 00  	lui	a4, 0x21
   10fee: 62 e0        	c.sdsp	s8, 0x0(sp)
   10ff0: 13 0c 87 76  	addi	s8, a4, 0x768
   10ff4: 03 36 0c 01  	ld	a2, 0x10(s8)
   10ff8: b3 86 4a 01  	add	a3, s5, s4
   10ffc: 98 66        	c.ld	a4, 0x8(a3)
   10ffe: 63 0f d6 12  	beq	a2, a3, 0x1113c <_realloc_r+0x19e>
   11002: 13 76 e7 ff  	andi	a2, a4, -0x2
   11006: 36 96        	c.add	a2, a3
   11008: 10 66        	c.ld	a2, 0x8(a2)
   1100a: 05 8a        	c.andi	a2, 0x1
   1100c: 6d e6        	c.bnez	a2, 0x110f6 <_realloc_r+0x158>
   1100e: 71 9b        	c.andi	a4, -0x4
   11010: 33 06 ea 00  	add	a2, s4, a4
   11014: 63 5b 96 08  	bge	a2, s1, 0x110aa <_realloc_r+0x10c>
   11018: 85 8b        	c.andi	a5, 0x1
   1101a: 8d e7        	c.bnez	a5, 0x11044 <_realloc_r+0xa6>
   1101c: 5e e4        	c.sdsp	s7, 0x8(sp)
   1101e: 83 3b 04 ff  	ld	s7, -0x10(s0)
   11022: 5a e8        	c.sdsp	s6, 0x10(sp)
   11024: b3 8b 7a 41  	sub	s7, s5, s7
   11028: 83 b7 8b 00  	ld	a5, 0x8(s7)
   1102c: f1 9b        	c.andi	a5, -0x4
   1102e: 3e 97        	c.add	a4, a5
   11030: 33 0b 47 01  	add	s6, a4, s4
   11034: 63 55 9b 24  	bge	s6, s1, 0x1127e <_realloc_r+0x2e0>
   11038: 33 0b fa 00  	add	s6, s4, a5
   1103c: 63 57 9b 1c  	bge	s6, s1, 0x1120a <_realloc_r+0x26c>
   11040: 42 6b        	c.ldsp	s6, 0x10(sp)
   11042: a2 6b        	c.ldsp	s7, 0x8(sp)
   11044: ca 85        	c.mv	a1, s2
   11046: 4e 85        	c.mv	a0, s3
   11048: ef f0 7f 93  	jal	ra, 0x1097e <_malloc_r>
   1104c: 2a 89        	c.mv	s2, a0
   1104e: 63 08 05 2e  	beq	a0, zero, 0x1133e <_realloc_r+0x3a0>
   11052: 83 37 84 ff  	ld	a5, -0x8(s0)
   11056: 13 07 05 ff  	addi	a4, a0, -0x10
   1105a: f9 9b        	c.andi	a5, -0x2
   1105c: d6 97        	c.add	a5, s5
   1105e: 63 80 e7 1a  	beq	a5, a4, 0x111fe <_realloc_r+0x260>
   11062: 13 06 8a ff  	addi	a2, s4, -0x8
   11066: 93 07 80 04  	addi	a5, zero, 0x48
   1106a: 63 e6 c7 20  	bltu	a5, a2, 0x11276 <_realloc_r+0x2d8>
   1106e: 13 07 70 02  	addi	a4, zero, 0x27
   11072: 63 69 c7 16  	bltu	a4, a2, 0x111e4 <_realloc_r+0x246>
   11076: aa 87        	c.mv	a5, a0
   11078: 22 87        	c.mv	a4, s0
   1107a: 14 63        	c.ld	a3, 0x0(a4)
   1107c: 94 e3        	c.sd	a3, 0x0(a5)
   1107e: 14 67        	c.ld	a3, 0x8(a4)
   11080: 94 e7        	c.sd	a3, 0x8(a5)
   11082: 18 6b        	c.ld	a4, 0x10(a4)
   11084: 98 eb        	c.sd	a4, 0x10(a5)
   11086: a2 85        	c.mv	a1, s0
   11088: 4e 85        	c.mv	a0, s3
   1108a: ef 00 90 66  	jal	ra, 0x11ef2 <_free_r>
   1108e: 4e 85        	c.mv	a0, s3
   11090: ef f0 1f f0  	jal	ra, 0x10f90 <__malloc_unlock>
   11094: 02 6c        	c.ldsp	s8, 0x0(sp)
   11096: b1 a0        	c.j	0x110e2 <_realloc_r+0x144>
   11098: 93 04 00 02  	addi	s1, zero, 0x20
   1109c: e3 f5 24 f5  	bgeu	s1, s2, 0x10fe6 <_realloc_r+0x48>
   110a0: b1 47        	c.li	a5, 0xc
   110a2: 23 a0 f9 00  	sw	a5, 0x0(s3)
   110a6: 01 49        	c.li	s2, 0x0
   110a8: 2d a8        	c.j	0x110e2 <_realloc_r+0x144>
   110aa: 9c 6e        	c.ld	a5, 0x18(a3)
   110ac: 98 6a        	c.ld	a4, 0x10(a3)
   110ae: 02 6c        	c.ldsp	s8, 0x0(sp)
   110b0: 32 8a        	c.mv	s4, a2
   110b2: 1c ef        	c.sd	a5, 0x18(a4)
   110b4: 98 eb        	c.sd	a4, 0x10(a5)
   110b6: 83 b7 8a 00  	ld	a5, 0x8(s5)
   110ba: b3 06 9a 40  	sub	a3, s4, s1
   110be: 7d 46        	c.li	a2, 0x1f
   110c0: 85 8b        	c.andi	a5, 0x1
   110c2: 33 87 4a 01  	add	a4, s5, s4
   110c6: 63 6a d6 04  	bltu	a2, a3, 0x1111a <_realloc_r+0x17c>
   110ca: b3 e7 47 01  	or	a5, a5, s4
   110ce: 23 b4 fa 00  	sd	a5, 0x8(s5)
   110d2: 1c 67        	c.ld	a5, 0x8(a4)
   110d4: 93 e7 17 00  	ori	a5, a5, 0x1
   110d8: 1c e7        	c.sd	a5, 0x8(a4)
   110da: 4e 85        	c.mv	a0, s3
   110dc: ef f0 5f eb  	jal	ra, 0x10f90 <__malloc_unlock>
   110e0: 22 89        	c.mv	s2, s0
   110e2: 06 64        	c.ldsp	s0, 0x40(sp)
   110e4: a6 60        	c.ldsp	ra, 0x48(sp)
   110e6: e2 74        	c.ldsp	s1, 0x38(sp)
   110e8: a2 79        	c.ldsp	s3, 0x28(sp)
   110ea: 02 7a        	c.ldsp	s4, 0x20(sp)
   110ec: e2 6a        	c.ldsp	s5, 0x18(sp)
   110ee: 4a 85        	c.mv	a0, s2
   110f0: 42 79        	c.ldsp	s2, 0x30(sp)
   110f2: 61 61        	c.addi16sp	sp, 0x50
   110f4: 82 80        	c.jr	ra
   110f6: 85 8b        	c.andi	a5, 0x1
   110f8: b1 f7        	c.bnez	a5, 0x11044 <_realloc_r+0xa6>
   110fa: 5e e4        	c.sdsp	s7, 0x8(sp)
   110fc: 83 3b 04 ff  	ld	s7, -0x10(s0)
   11100: 5a e8        	c.sdsp	s6, 0x10(sp)
   11102: b3 8b 7a 41  	sub	s7, s5, s7
   11106: 83 b7 8b 00  	ld	a5, 0x8(s7)
   1110a: f1 9b        	c.andi	a5, -0x4
   1110c: 35 b7        	c.j	0x11038 <_realloc_r+0x9a>
   1110e: a6 60        	c.ldsp	ra, 0x48(sp)
   11110: 42 79        	c.ldsp	s2, 0x30(sp)
   11112: b2 85        	c.mv	a1, a2
   11114: 61 61        	c.addi16sp	sp, 0x50
   11116: 6f f0 9f 86  	jal	zero, 0x1097e <_malloc_r>
   1111a: c5 8f        	c.or	a5, s1
   1111c: 23 b4 fa 00  	sd	a5, 0x8(s5)
   11120: b3 85 9a 00  	add	a1, s5, s1
   11124: 93 e6 16 00  	ori	a3, a3, 0x1
   11128: 94 e5        	c.sd	a3, 0x8(a1)
   1112a: 1c 67        	c.ld	a5, 0x8(a4)
   1112c: c1 05        	c.addi	a1, 0x10
   1112e: 4e 85        	c.mv	a0, s3
   11130: 93 e7 17 00  	ori	a5, a5, 0x1
   11134: 1c e7        	c.sd	a5, 0x8(a4)
   11136: ef 00 d0 5b  	jal	ra, 0x11ef2 <_free_r>
   1113a: 45 b7        	c.j	0x110da <_realloc_r+0x13c>
   1113c: 71 9b        	c.andi	a4, -0x4
   1113e: b3 06 47 01  	add	a3, a4, s4
   11142: 13 86 04 02  	addi	a2, s1, 0x20
   11146: 63 d3 c6 1c  	bge	a3, a2, 0x1130c <_realloc_r+0x36e>
   1114a: 85 8b        	c.andi	a5, 0x1
   1114c: e3 9c 07 ee  	bne	a5, zero, 0x11044 <_realloc_r+0xa6>
   11150: 5e e4        	c.sdsp	s7, 0x8(sp)
   11152: 83 3b 04 ff  	ld	s7, -0x10(s0)
   11156: 5a e8        	c.sdsp	s6, 0x10(sp)
   11158: b3 8b 7a 41  	sub	s7, s5, s7
   1115c: 83 b7 8b 00  	ld	a5, 0x8(s7)
   11160: f1 9b        	c.andi	a5, -0x4
   11162: 3e 97        	c.add	a4, a5
   11164: 33 0b 47 01  	add	s6, a4, s4
   11168: e3 48 cb ec  	blt	s6, a2, 0x11038 <_realloc_r+0x9a>
   1116c: 83 b7 8b 01  	ld	a5, 0x18(s7)
   11170: 03 b7 0b 01  	ld	a4, 0x10(s7)
   11174: 13 06 8a ff  	addi	a2, s4, -0x8
   11178: 93 06 80 04  	addi	a3, zero, 0x48
   1117c: 1c ef        	c.sd	a5, 0x18(a4)
   1117e: 98 eb        	c.sd	a4, 0x10(a5)
   11180: 13 89 0b 01  	addi	s2, s7, 0x10
   11184: 63 ec c6 1c  	bltu	a3, a2, 0x1135c <_realloc_r+0x3be>
   11188: 13 07 70 02  	addi	a4, zero, 0x27
   1118c: ca 87        	c.mv	a5, s2
   1118e: 63 7f c7 00  	bgeu	a4, a2, 0x111ac <_realloc_r+0x20e>
   11192: 18 60        	c.ld	a4, 0x0(s0)
   11194: 93 07 70 03  	addi	a5, zero, 0x37
   11198: 23 b8 eb 00  	sd	a4, 0x10(s7)
   1119c: 18 64        	c.ld	a4, 0x8(s0)
   1119e: 23 bc eb 00  	sd	a4, 0x18(s7)
   111a2: 63 e2 c7 1c  	bltu	a5, a2, 0x11366 <_realloc_r+0x3c8>
   111a6: 41 04        	c.addi	s0, 0x10
   111a8: 93 87 0b 02  	addi	a5, s7, 0x20
   111ac: 18 60        	c.ld	a4, 0x0(s0)
   111ae: 98 e3        	c.sd	a4, 0x0(a5)
   111b0: 18 64        	c.ld	a4, 0x8(s0)
   111b2: 98 e7        	c.sd	a4, 0x8(a5)
   111b4: 18 68        	c.ld	a4, 0x10(s0)
   111b6: 98 eb        	c.sd	a4, 0x10(a5)
   111b8: 33 87 9b 00  	add	a4, s7, s1
   111bc: b3 07 9b 40  	sub	a5, s6, s1
   111c0: 23 38 ec 00  	sd	a4, 0x10(s8)
   111c4: 93 e7 17 00  	ori	a5, a5, 0x1
   111c8: 1c e7        	c.sd	a5, 0x8(a4)
   111ca: 83 b7 8b 00  	ld	a5, 0x8(s7)
   111ce: 4e 85        	c.mv	a0, s3
   111d0: 85 8b        	c.andi	a5, 0x1
   111d2: c5 8f        	c.or	a5, s1
   111d4: 23 b4 fb 00  	sd	a5, 0x8(s7)
   111d8: ef f0 9f db  	jal	ra, 0x10f90 <__malloc_unlock>
   111dc: 42 6b        	c.ldsp	s6, 0x10(sp)
   111de: a2 6b        	c.ldsp	s7, 0x8(sp)
   111e0: 02 6c        	c.ldsp	s8, 0x0(sp)
   111e2: 01 b7        	c.j	0x110e2 <_realloc_r+0x144>
   111e4: 14 60        	c.ld	a3, 0x0(s0)
   111e6: 13 07 70 03  	addi	a4, zero, 0x37
   111ea: 14 e1        	c.sd	a3, 0x0(a0)
   111ec: 14 64        	c.ld	a3, 0x8(s0)
   111ee: 14 e5        	c.sd	a3, 0x8(a0)
   111f0: 63 63 c7 10  	bltu	a4, a2, 0x112f6 <_realloc_r+0x358>
   111f4: 13 07 04 01  	addi	a4, s0, 0x10
   111f8: 93 07 05 01  	addi	a5, a0, 0x10
   111fc: bd bd        	c.j	0x1107a <_realloc_r+0xdc>
   111fe: 83 37 85 ff  	ld	a5, -0x8(a0)
   11202: 02 6c        	c.ldsp	s8, 0x0(sp)
   11204: f1 9b        	c.andi	a5, -0x4
   11206: 3e 9a        	c.add	s4, a5
   11208: 7d b5        	c.j	0x110b6 <_realloc_r+0x118>
   1120a: 83 b7 8b 01  	ld	a5, 0x18(s7)
   1120e: 03 b7 0b 01  	ld	a4, 0x10(s7)
   11212: 13 06 8a ff  	addi	a2, s4, -0x8
   11216: 93 06 80 04  	addi	a3, zero, 0x48
   1121a: 1c ef        	c.sd	a5, 0x18(a4)
   1121c: 98 eb        	c.sd	a4, 0x10(a5)
   1121e: 13 89 0b 01  	addi	s2, s7, 0x10
   11222: 63 e5 c6 0c  	bltu	a3, a2, 0x112ec <_realloc_r+0x34e>
   11226: 13 07 70 02  	addi	a4, zero, 0x27
   1122a: ca 87        	c.mv	a5, s2
   1122c: 63 78 c7 02  	bgeu	a4, a2, 0x1125c <_realloc_r+0x2be>
   11230: 18 60        	c.ld	a4, 0x0(s0)
   11232: 93 07 70 03  	addi	a5, zero, 0x37
   11236: 23 b8 eb 00  	sd	a4, 0x10(s7)
   1123a: 18 64        	c.ld	a4, 0x8(s0)
   1123c: 23 bc eb 00  	sd	a4, 0x18(s7)
   11240: 63 fb c7 0e  	bgeu	a5, a2, 0x11336 <_realloc_r+0x398>
   11244: 1c 68        	c.ld	a5, 0x10(s0)
   11246: 23 b0 fb 02  	sd	a5, 0x20(s7)
   1124a: 1c 6c        	c.ld	a5, 0x18(s0)
   1124c: 23 b4 fb 02  	sd	a5, 0x28(s7)
   11250: 63 02 d6 08  	beq	a2, a3, 0x112d4 <_realloc_r+0x336>
   11254: 13 04 04 02  	addi	s0, s0, 0x20
   11258: 93 87 0b 03  	addi	a5, s7, 0x30
   1125c: 18 60        	c.ld	a4, 0x0(s0)
   1125e: 98 e3        	c.sd	a4, 0x0(a5)
   11260: 18 64        	c.ld	a4, 0x8(s0)
   11262: 98 e7        	c.sd	a4, 0x8(a5)
   11264: 18 68        	c.ld	a4, 0x10(s0)
   11266: 98 eb        	c.sd	a4, 0x10(a5)
   11268: 5a 8a        	c.mv	s4, s6
   1126a: de 8a        	c.mv	s5, s7
   1126c: 42 6b        	c.ldsp	s6, 0x10(sp)
   1126e: a2 6b        	c.ldsp	s7, 0x8(sp)
   11270: 02 6c        	c.ldsp	s8, 0x0(sp)
   11272: 4a 84        	c.mv	s0, s2
   11274: 89 b5        	c.j	0x110b6 <_realloc_r+0x118>
   11276: a2 85        	c.mv	a1, s0
   11278: ef 00 90 03  	jal	ra, 0x11ab0 <memmove>
   1127c: 29 b5        	c.j	0x11086 <_realloc_r+0xe8>
   1127e: 9c 6e        	c.ld	a5, 0x18(a3)
   11280: 98 6a        	c.ld	a4, 0x10(a3)
   11282: 13 06 8a ff  	addi	a2, s4, -0x8
   11286: 93 06 80 04  	addi	a3, zero, 0x48
   1128a: 1c ef        	c.sd	a5, 0x18(a4)
   1128c: 98 eb        	c.sd	a4, 0x10(a5)
   1128e: 03 b7 0b 01  	ld	a4, 0x10(s7)
   11292: 83 b7 8b 01  	ld	a5, 0x18(s7)
   11296: 13 89 0b 01  	addi	s2, s7, 0x10
   1129a: 1c ef        	c.sd	a5, 0x18(a4)
   1129c: 98 eb        	c.sd	a4, 0x10(a5)
   1129e: 63 e7 c6 04  	bltu	a3, a2, 0x112ec <_realloc_r+0x34e>
   112a2: 13 07 70 02  	addi	a4, zero, 0x27
   112a6: ca 87        	c.mv	a5, s2
   112a8: e3 7a c7 fa  	bgeu	a4, a2, 0x1125c <_realloc_r+0x2be>
   112ac: 18 60        	c.ld	a4, 0x0(s0)
   112ae: 93 07 70 03  	addi	a5, zero, 0x37
   112b2: 23 b8 eb 00  	sd	a4, 0x10(s7)
   112b6: 18 64        	c.ld	a4, 0x8(s0)
   112b8: 23 bc eb 00  	sd	a4, 0x18(s7)
   112bc: 63 fd c7 06  	bgeu	a5, a2, 0x11336 <_realloc_r+0x398>
   112c0: 18 68        	c.ld	a4, 0x10(s0)
   112c2: 93 07 80 04  	addi	a5, zero, 0x48
   112c6: 23 b0 eb 02  	sd	a4, 0x20(s7)
   112ca: 18 6c        	c.ld	a4, 0x18(s0)
   112cc: 23 b4 eb 02  	sd	a4, 0x28(s7)
   112d0: e3 12 f6 f8  	bne	a2, a5, 0x11254 <_realloc_r+0x2b6>
   112d4: 18 70        	c.ld	a4, 0x20(s0)
   112d6: 93 87 0b 04  	addi	a5, s7, 0x40
   112da: 13 04 04 03  	addi	s0, s0, 0x30
   112de: 23 b8 eb 02  	sd	a4, 0x30(s7)
   112e2: 03 37 84 ff  	ld	a4, -0x8(s0)
   112e6: 23 bc eb 02  	sd	a4, 0x38(s7)
   112ea: 8d bf        	c.j	0x1125c <_realloc_r+0x2be>
   112ec: a2 85        	c.mv	a1, s0
   112ee: 4a 85        	c.mv	a0, s2
   112f0: ef 00 00 7c  	jal	ra, 0x11ab0 <memmove>
   112f4: 95 bf        	c.j	0x11268 <_realloc_r+0x2ca>
   112f6: 18 68        	c.ld	a4, 0x10(s0)
   112f8: 18 e9        	c.sd	a4, 0x10(a0)
   112fa: 18 6c        	c.ld	a4, 0x18(s0)
   112fc: 18 ed        	c.sd	a4, 0x18(a0)
   112fe: 63 06 f6 04  	beq	a2, a5, 0x1134a <_realloc_r+0x3ac>
   11302: 13 07 04 02  	addi	a4, s0, 0x20
   11306: 93 07 05 02  	addi	a5, a0, 0x20
   1130a: 85 bb        	c.j	0x1107a <_realloc_r+0xdc>
   1130c: a6 9a        	c.add	s5, s1
   1130e: b3 87 96 40  	sub	a5, a3, s1
   11312: 23 38 5c 01  	sd	s5, 0x10(s8)
   11316: 93 e7 17 00  	ori	a5, a5, 0x1
   1131a: 23 b4 fa 00  	sd	a5, 0x8(s5)
   1131e: 83 37 84 ff  	ld	a5, -0x8(s0)
   11322: 4e 85        	c.mv	a0, s3
   11324: 22 89        	c.mv	s2, s0
   11326: 85 8b        	c.andi	a5, 0x1
   11328: c5 8f        	c.or	a5, s1
   1132a: 23 3c f4 fe  	sd	a5, -0x8(s0)
   1132e: ef f0 3f c6  	jal	ra, 0x10f90 <__malloc_unlock>
   11332: 02 6c        	c.ldsp	s8, 0x0(sp)
   11334: 7d b3        	c.j	0x110e2 <_realloc_r+0x144>
   11336: 41 04        	c.addi	s0, 0x10
   11338: 93 87 0b 02  	addi	a5, s7, 0x20
   1133c: 05 b7        	c.j	0x1125c <_realloc_r+0x2be>
   1133e: 4e 85        	c.mv	a0, s3
   11340: ef f0 1f c5  	jal	ra, 0x10f90 <__malloc_unlock>
   11344: 01 49        	c.li	s2, 0x0
   11346: 02 6c        	c.ldsp	s8, 0x0(sp)
   11348: 69 bb        	c.j	0x110e2 <_realloc_r+0x144>
   1134a: 14 70        	c.ld	a3, 0x20(s0)
   1134c: 13 07 04 03  	addi	a4, s0, 0x30
   11350: 93 07 05 03  	addi	a5, a0, 0x30
   11354: 14 f1        	c.sd	a3, 0x20(a0)
   11356: 14 74        	c.ld	a3, 0x28(s0)
   11358: 14 f5        	c.sd	a3, 0x28(a0)
   1135a: 05 b3        	c.j	0x1107a <_realloc_r+0xdc>
   1135c: a2 85        	c.mv	a1, s0
   1135e: 4a 85        	c.mv	a0, s2
   11360: ef 00 00 75  	jal	ra, 0x11ab0 <memmove>
   11364: 91 bd        	c.j	0x111b8 <_realloc_r+0x21a>
   11366: 1c 68        	c.ld	a5, 0x10(s0)
   11368: 23 b0 fb 02  	sd	a5, 0x20(s7)
   1136c: 1c 6c        	c.ld	a5, 0x18(s0)
   1136e: 23 b4 fb 02  	sd	a5, 0x28(s7)
   11372: 63 07 d6 00  	beq	a2, a3, 0x11380 <_realloc_r+0x3e2>
   11376: 13 04 04 02  	addi	s0, s0, 0x20
   1137a: 93 87 0b 03  	addi	a5, s7, 0x30
   1137e: 3d b5        	c.j	0x111ac <_realloc_r+0x20e>
   11380: 18 70        	c.ld	a4, 0x20(s0)
   11382: 93 87 0b 04  	addi	a5, s7, 0x40
   11386: 13 04 04 03  	addi	s0, s0, 0x30
   1138a: 23 b8 eb 02  	sd	a4, 0x30(s7)
   1138e: 03 37 84 ff  	ld	a4, -0x8(s0)
   11392: 23 bc eb 02  	sd	a4, 0x38(s7)
   11396: 19 bd        	c.j	0x111ac <_realloc_r+0x20e>

0000000000011398 <__fp_lock>:
   11398: 01 45        	c.li	a0, 0x0
   1139a: 82 80        	c.jr	ra

000000000001139c <stdio_exit_handler>:
   1139c: 37 26 02 00  	lui	a2, 0x22
   113a0: d5 65        	c.lui	a1, 0x15
   113a2: 37 25 02 00  	lui	a0, 0x22
   113a6: 13 06 86 f7  	addi	a2, a2, -0x88
   113aa: 93 85 a5 ba  	addi	a1, a1, -0x456
   113ae: 13 05 05 f9  	addi	a0, a0, -0x70
   113b2: 41 a4        	c.j	0x11632 <_fwalk_sglue>

00000000000113b4 <cleanup_stdio>:
   113b4: 0c 65        	c.ld	a1, 0x8(a0)
   113b6: 41 11        	c.addi	sp, -0x10
   113b8: b7 47 02 00  	lui	a5, 0x24
   113bc: 22 e0        	c.sdsp	s0, 0x0(sp)
   113be: 06 e4        	c.sdsp	ra, 0x8(sp)
   113c0: 93 87 87 80  	addi	a5, a5, -0x7f8
   113c4: 2a 84        	c.mv	s0, a0
   113c6: 63 84 f5 00  	beq	a1, a5, 0x113ce <cleanup_stdio+0x1a>
   113ca: ef 30 00 7e  	jal	ra, 0x14baa <_fclose_r>
   113ce: 0c 68        	c.ld	a1, 0x10(s0)
   113d0: b7 47 02 00  	lui	a5, 0x24
   113d4: 93 87 87 8b  	addi	a5, a5, -0x748
   113d8: 63 85 f5 00  	beq	a1, a5, 0x113e2 <cleanup_stdio+0x2e>
   113dc: 22 85        	c.mv	a0, s0
   113de: ef 30 c0 7c  	jal	ra, 0x14baa <_fclose_r>
   113e2: 0c 6c        	c.ld	a1, 0x18(s0)
   113e4: b7 47 02 00  	lui	a5, 0x24
   113e8: 93 87 87 96  	addi	a5, a5, -0x698
   113ec: 63 88 f5 00  	beq	a1, a5, 0x113fc <cleanup_stdio+0x48>
   113f0: 22 85        	c.mv	a0, s0
   113f2: 02 64        	c.ldsp	s0, 0x0(sp)
   113f4: a2 60        	c.ldsp	ra, 0x8(sp)
   113f6: 41 01        	c.addi	sp, 0x10
   113f8: 6f 30 20 7b  	jal	zero, 0x14baa <_fclose_r>
   113fc: a2 60        	c.ldsp	ra, 0x8(sp)
   113fe: 02 64        	c.ldsp	s0, 0x0(sp)
   11400: 41 01        	c.addi	sp, 0x10
   11402: 82 80        	c.jr	ra

0000000000011404 <__fp_unlock>:
   11404: 01 45        	c.li	a0, 0x0
   11406: 82 80        	c.jr	ra

0000000000011408 <global_stdio_init.part.0>:
   11408: 79 71        	c.addi16sp	sp, -0x30
   1140a: c5 67        	c.lui	a5, 0x11
   1140c: 22 f0        	c.sdsp	s0, 0x20(sp)
   1140e: 93 87 c7 39  	addi	a5, a5, 0x39c
   11412: 37 44 02 00  	lui	s0, 0x24
   11416: 37 45 02 00  	lui	a0, 0x24
   1141a: 13 04 84 80  	addi	s0, s0, -0x7f8
   1141e: 06 f4        	c.sdsp	ra, 0x28(sp)
   11420: 26 ec        	c.sdsp	s1, 0x18(sp)
   11422: 4a e8        	c.sdsp	s2, 0x10(sp)
   11424: 4e e4        	c.sdsp	s3, 0x8(sp)
   11426: 52 e0        	c.sdsp	s4, 0x0(sp)
   11428: 23 b8 f1 8e  	sd	a5, -0x710(gp)
   1142c: 21 46        	c.li	a2, 0x8
   1142e: 91 47        	c.li	a5, 0x4
   11430: 81 45        	c.li	a1, 0x0
   11432: 13 05 c5 8a  	addi	a0, a0, -0x754
   11436: 1c c8        	c.sw	a5, 0x10(s0)
   11438: 23 30 04 00  	sd	zero, 0x0(s0)
   1143c: 23 34 04 00  	sd	zero, 0x8(s0)
   11440: 23 26 04 0a  	sw	zero, 0xac(s0)
   11444: 23 3c 04 00  	sd	zero, 0x18(s0)
   11448: 23 20 04 02  	sw	zero, 0x20(s0)
   1144c: 23 24 04 02  	sw	zero, 0x28(s0)
   11450: ef 00 20 73  	jal	ra, 0x11b82 <memset>
   11454: c1 67        	c.lui	a5, 0x10
   11456: 45 6a        	c.lui	s4, 0x11
   11458: c5 69        	c.lui	s3, 0x11
   1145a: 45 69        	c.lui	s2, 0x11
   1145c: c5 64        	c.lui	s1, 0x11
   1145e: 37 45 02 00  	lui	a0, 0x24
   11462: 13 0a 6a 71  	addi	s4, s4, 0x716
   11466: 93 89 29 75  	addi	s3, s3, 0x752
   1146a: 13 09 49 7a  	addi	s2, s2, 0x7a4
   1146e: 93 84 64 7f  	addi	s1, s1, 0x7f6
   11472: a5 07        	c.addi	a5, 0x9
   11474: 21 46        	c.li	a2, 0x8
   11476: 81 45        	c.li	a1, 0x0
   11478: 13 05 c5 95  	addi	a0, a0, -0x6a4
   1147c: 23 3c 44 03  	sd	s4, 0x38(s0)
   11480: 23 30 34 05  	sd	s3, 0x40(s0)
   11484: 23 34 24 05  	sd	s2, 0x48(s0)
   11488: 24 e8        	c.sd	s1, 0x50(s0)
   1148a: 23 20 f4 0c  	sw	a5, 0xc0(s0)
   1148e: 00 f8        	c.sd	s0, 0x30(s0)
   11490: 23 38 04 0a  	sd	zero, 0xb0(s0)
   11494: 23 3c 04 0a  	sd	zero, 0xb8(s0)
   11498: 23 2e 04 14  	sw	zero, 0x15c(s0)
   1149c: 23 34 04 0c  	sd	zero, 0xc8(s0)
   114a0: 23 28 04 0c  	sw	zero, 0xd0(s0)
   114a4: 23 2c 04 0c  	sw	zero, 0xd8(s0)
   114a8: ef 00 a0 6d  	jal	ra, 0x11b82 <memset>
   114ac: b7 07 02 00  	lui	a5, 0x20
   114b0: 37 45 02 00  	lui	a0, 0x24
   114b4: 37 47 02 00  	lui	a4, 0x24
   114b8: c9 07        	c.addi	a5, 0x12
   114ba: 13 07 87 8b  	addi	a4, a4, -0x748
   114be: 21 46        	c.li	a2, 0x8
   114c0: 81 45        	c.li	a1, 0x0
   114c2: 13 05 c5 a0  	addi	a0, a0, -0x5f4
   114c6: 23 34 44 0f  	sd	s4, 0xe8(s0)
   114ca: 23 38 34 0f  	sd	s3, 0xf0(s0)
   114ce: 23 3c 24 0f  	sd	s2, 0xf8(s0)
   114d2: 23 30 94 10  	sd	s1, 0x100(s0)
   114d6: 23 28 f4 16  	sw	a5, 0x170(s0)
   114da: 78 f0        	c.sd	a4, 0xe0(s0)
   114dc: 23 30 04 16  	sd	zero, 0x160(s0)
   114e0: 23 34 04 16  	sd	zero, 0x168(s0)
   114e4: 23 26 04 20  	sw	zero, 0x20c(s0)
   114e8: 23 3c 04 16  	sd	zero, 0x178(s0)
   114ec: 23 20 04 18  	sw	zero, 0x180(s0)
   114f0: 23 24 04 18  	sw	zero, 0x188(s0)
   114f4: ef 00 e0 68  	jal	ra, 0x11b82 <memset>
   114f8: b7 47 02 00  	lui	a5, 0x24
   114fc: 93 87 87 96  	addi	a5, a5, -0x698
   11500: 23 3c 44 19  	sd	s4, 0x198(s0)
   11504: 23 30 34 1b  	sd	s3, 0x1a0(s0)
   11508: 23 34 24 1b  	sd	s2, 0x1a8(s0)
   1150c: 23 38 94 1a  	sd	s1, 0x1b0(s0)
   11510: a2 70        	c.ldsp	ra, 0x28(sp)
   11512: 23 38 f4 18  	sd	a5, 0x190(s0)
   11516: 02 74        	c.ldsp	s0, 0x20(sp)
   11518: e2 64        	c.ldsp	s1, 0x18(sp)
   1151a: 42 69        	c.ldsp	s2, 0x10(sp)
   1151c: a2 69        	c.ldsp	s3, 0x8(sp)
   1151e: 02 6a        	c.ldsp	s4, 0x0(sp)
   11520: 45 61        	c.addi16sp	sp, 0x30
   11522: 82 80        	c.jr	ra

0000000000011524 <__sfp>:
   11524: 83 b7 01 8f  	ld	a5, -0x710(gp)
   11528: 79 71        	c.addi16sp	sp, -0x30
   1152a: 4a e8        	c.sdsp	s2, 0x10(sp)
   1152c: 06 f4        	c.sdsp	ra, 0x28(sp)
   1152e: 22 f0        	c.sdsp	s0, 0x20(sp)
   11530: 26 ec        	c.sdsp	s1, 0x18(sp)
   11532: 4e e4        	c.sdsp	s3, 0x8(sp)
   11534: 2a 89        	c.mv	s2, a0
   11536: d5 c7        	c.beqz	a5, 0x115e2 <__sfp+0xbe>
   11538: b7 24 02 00  	lui	s1, 0x22
   1153c: 93 84 84 f7  	addi	s1, s1, -0x88
   11540: 93 09 00 0b  	addi	s3, zero, 0xb0
   11544: 98 44        	c.lw	a4, 0x8(s1)
   11546: 80 68        	c.ld	s0, 0x10(s1)
   11548: 63 54 e0 06  	bge	zero, a4, 0x115b0 <__sfp+0x8c>
   1154c: 02 17        	c.slli	a4, 0x20
   1154e: 01 93        	c.srli	a4, 0x20
   11550: 33 07 37 03  	mul	a4, a4, s3
   11554: 22 97        	c.add	a4, s0
   11556: 29 a0        	c.j	0x11560 <__sfp+0x3c>
   11558: 13 04 04 0b  	addi	s0, s0, 0xb0
   1155c: 63 0a 87 04  	beq	a4, s0, 0x115b0 <__sfp+0x8c>
   11560: 83 17 04 01  	lh	a5, 0x10(s0)
   11564: f5 fb        	c.bnez	a5, 0x11558 <__sfp+0x34>
   11566: c1 77        	c.lui	a5, 0xffff0
   11568: 85 07        	c.addi	a5, 0x1
   1156a: 1c c8        	c.sw	a5, 0x10(s0)
   1156c: 23 26 04 0a  	sw	zero, 0xac(s0)
   11570: 23 30 04 00  	sd	zero, 0x0(s0)
   11574: 23 34 04 00  	sd	zero, 0x8(s0)
   11578: 23 3c 04 00  	sd	zero, 0x18(s0)
   1157c: 23 20 04 02  	sw	zero, 0x20(s0)
   11580: 23 24 04 02  	sw	zero, 0x28(s0)
   11584: 21 46        	c.li	a2, 0x8
   11586: 81 45        	c.li	a1, 0x0
   11588: 13 05 44 0a  	addi	a0, s0, 0xa4
   1158c: ef 00 60 5f  	jal	ra, 0x11b82 <memset>
   11590: 23 3c 04 04  	sd	zero, 0x58(s0)
   11594: 23 20 04 06  	sw	zero, 0x60(s0)
   11598: 23 3c 04 06  	sd	zero, 0x78(s0)
   1159c: 23 20 04 08  	sw	zero, 0x80(s0)
   115a0: a2 70        	c.ldsp	ra, 0x28(sp)
   115a2: 22 85        	c.mv	a0, s0
   115a4: 02 74        	c.ldsp	s0, 0x20(sp)
   115a6: e2 64        	c.ldsp	s1, 0x18(sp)
   115a8: 42 69        	c.ldsp	s2, 0x10(sp)
   115aa: a2 69        	c.ldsp	s3, 0x8(sp)
   115ac: 45 61        	c.addi16sp	sp, 0x30
   115ae: 82 80        	c.jr	ra
   115b0: 80 60        	c.ld	s0, 0x0(s1)
   115b2: 19 c0        	c.beqz	s0, 0x115b8 <__sfp+0x94>
   115b4: a2 84        	c.mv	s1, s0
   115b6: 79 b7        	c.j	0x11544 <__sfp+0x20>
   115b8: 93 05 80 2d  	addi	a1, zero, 0x2d8
   115bc: 4a 85        	c.mv	a0, s2
   115be: ef f0 0f bc  	jal	ra, 0x1097e <_malloc_r>
   115c2: 2a 84        	c.mv	s0, a0
   115c4: 15 c1        	c.beqz	a0, 0x115e8 <__sfp+0xc4>
   115c6: 61 05        	c.addi	a0, 0x18
   115c8: 91 47        	c.li	a5, 0x4
   115ca: 23 30 04 00  	sd	zero, 0x0(s0)
   115ce: 1c c4        	c.sw	a5, 0x8(s0)
   115d0: 08 e8        	c.sd	a0, 0x10(s0)
   115d2: 13 06 00 2c  	addi	a2, zero, 0x2c0
   115d6: 81 45        	c.li	a1, 0x0
   115d8: ef 00 a0 5a  	jal	ra, 0x11b82 <memset>
   115dc: 80 e0        	c.sd	s0, 0x0(s1)
   115de: a2 84        	c.mv	s1, s0
   115e0: 95 b7        	c.j	0x11544 <__sfp+0x20>
   115e2: ef f0 7f e2  	jal	ra, 0x11408 <global_stdio_init.part.0>
   115e6: 89 bf        	c.j	0x11538 <__sfp+0x14>
   115e8: 23 b0 04 00  	sd	zero, 0x0(s1)
   115ec: b1 47        	c.li	a5, 0xc
   115ee: 23 20 f9 00  	sw	a5, 0x0(s2)
   115f2: 7d b7        	c.j	0x115a0 <__sfp+0x7c>

00000000000115f4 <__sinit>:
   115f4: 3c 65        	c.ld	a5, 0x48(a0)
   115f6: 91 c3        	c.beqz	a5, 0x115fa <__sinit+0x6>
   115f8: 82 80        	c.jr	ra
   115fa: 03 b7 01 8f  	ld	a4, -0x710(gp)
   115fe: c5 67        	c.lui	a5, 0x11
   11600: 93 87 47 3b  	addi	a5, a5, 0x3b4
   11604: 3c e5        	c.sd	a5, 0x48(a0)
   11606: 6d fb        	c.bnez	a4, 0x115f8 <__sinit+0x4>
   11608: 01 b5        	c.j	0x11408 <global_stdio_init.part.0>

000000000001160a <__sfp_lock_acquire>:
   1160a: 82 80        	c.jr	ra

000000000001160c <__sfp_lock_release>:
   1160c: 82 80        	c.jr	ra

000000000001160e <__fp_lock_all>:
   1160e: 37 26 02 00  	lui	a2, 0x22
   11612: c5 65        	c.lui	a1, 0x11
   11614: 13 06 86 f7  	addi	a2, a2, -0x88
   11618: 93 85 85 39  	addi	a1, a1, 0x398
   1161c: 01 45        	c.li	a0, 0x0
   1161e: 11 a8        	c.j	0x11632 <_fwalk_sglue>

0000000000011620 <__fp_unlock_all>:
   11620: 37 26 02 00  	lui	a2, 0x22
   11624: c5 65        	c.lui	a1, 0x11
   11626: 13 06 86 f7  	addi	a2, a2, -0x88
   1162a: 93 85 45 40  	addi	a1, a1, 0x404
   1162e: 01 45        	c.li	a0, 0x0
   11630: 09 a0        	c.j	0x11632 <_fwalk_sglue>

0000000000011632 <_fwalk_sglue>:
   11632: 5d 71        	c.addi16sp	sp, -0x50
   11634: 4a f8        	c.sdsp	s2, 0x30(sp)
   11636: 4e f4        	c.sdsp	s3, 0x28(sp)
   11638: 52 f0        	c.sdsp	s4, 0x20(sp)
   1163a: 56 ec        	c.sdsp	s5, 0x18(sp)
   1163c: 5a e8        	c.sdsp	s6, 0x10(sp)
   1163e: 5e e4        	c.sdsp	s7, 0x8(sp)
   11640: 62 e0        	c.sdsp	s8, 0x0(sp)
   11642: 86 e4        	c.sdsp	ra, 0x48(sp)
   11644: a2 e0        	c.sdsp	s0, 0x40(sp)
   11646: 26 fc        	c.sdsp	s1, 0x38(sp)
   11648: 2a 8a        	c.mv	s4, a0
   1164a: 2e 8b        	c.mv	s6, a1
   1164c: b2 89        	c.mv	s3, a2
   1164e: 01 49        	c.li	s2, 0x0
   11650: 93 0b 00 0b  	addi	s7, zero, 0xb0
   11654: 05 4c        	c.li	s8, 0x1
   11656: fd 5a        	c.li	s5, -0x1
   11658: 83 a4 89 00  	lw	s1, 0x8(s3)
   1165c: 03 b4 09 01  	ld	s0, 0x10(s3)
   11660: 63 59 90 02  	bge	zero, s1, 0x11692 <_fwalk_sglue+0x60>
   11664: 82 14        	c.slli	s1, 0x20
   11666: 81 90        	c.srli	s1, 0x20
   11668: b3 84 74 03  	mul	s1, s1, s7
   1166c: a2 94        	c.add	s1, s0
   1166e: 83 57 04 01  	lhu	a5, 0x10(s0)
   11672: 63 7c fc 00  	bgeu	s8, a5, 0x1168a <_fwalk_sglue+0x58>
   11676: 83 17 24 01  	lh	a5, 0x12(s0)
   1167a: a2 85        	c.mv	a1, s0
   1167c: 52 85        	c.mv	a0, s4
   1167e: 63 86 57 01  	beq	a5, s5, 0x1168a <_fwalk_sglue+0x58>
   11682: 02 9b        	c.jalr	s6
   11684: 33 69 25 01  	or	s2, a0, s2
   11688: 01 29        	c.addiw	s2, 0x0
   1168a: 13 04 04 0b  	addi	s0, s0, 0xb0
   1168e: e3 10 94 fe  	bne	s0, s1, 0x1166e <_fwalk_sglue+0x3c>
   11692: 83 b9 09 00  	ld	s3, 0x0(s3)
   11696: e3 91 09 fc  	bne	s3, zero, 0x11658 <_fwalk_sglue+0x26>
   1169a: a6 60        	c.ldsp	ra, 0x48(sp)
   1169c: 06 64        	c.ldsp	s0, 0x40(sp)
   1169e: e2 74        	c.ldsp	s1, 0x38(sp)
   116a0: a2 79        	c.ldsp	s3, 0x28(sp)
   116a2: 02 7a        	c.ldsp	s4, 0x20(sp)
   116a4: e2 6a        	c.ldsp	s5, 0x18(sp)
   116a6: 42 6b        	c.ldsp	s6, 0x10(sp)
   116a8: a2 6b        	c.ldsp	s7, 0x8(sp)
   116aa: 02 6c        	c.ldsp	s8, 0x0(sp)
   116ac: 4a 85        	c.mv	a0, s2
   116ae: 42 79        	c.ldsp	s2, 0x30(sp)
   116b0: 61 61        	c.addi16sp	sp, 0x50
   116b2: 82 80        	c.jr	ra

00000000000116b4 <_printf_r>:
   116b4: 5d 71        	c.addi16sp	sp, -0x50
   116b6: 32 f0        	c.sdsp	a2, 0x20(sp)
   116b8: 36 f4        	c.sdsp	a3, 0x28(sp)
   116ba: 3a f8        	c.sdsp	a4, 0x30(sp)
   116bc: 3e fc        	c.sdsp	a5, 0x38(sp)
   116be: c2 e0        	c.sdsp	a6, 0x40(sp)
   116c0: c6 e4        	c.sdsp	a7, 0x48(sp)
   116c2: 2e 86        	c.mv	a2, a1
   116c4: 0c 69        	c.ld	a1, 0x10(a0)
   116c6: 14 10        	c.addi4spn	a3, sp, 0x20
   116c8: 06 ec        	c.sdsp	ra, 0x18(sp)
   116ca: 36 e4        	c.sdsp	a3, 0x8(sp)
   116cc: ef 00 50 27  	jal	ra, 0x12140 <_vfprintf_r>
   116d0: e2 60        	c.ldsp	ra, 0x18(sp)
   116d2: 61 61        	c.addi16sp	sp, 0x50
   116d4: 82 80        	c.jr	ra

00000000000116d6 <printf>:
   116d6: 03 b3 81 88  	ld	t1, -0x778(gp)
   116da: 1d 71        	c.addi16sp	sp, -0x60
   116dc: 32 f8        	c.sdsp	a2, 0x30(sp)
   116de: 36 fc        	c.sdsp	a3, 0x38(sp)
   116e0: 2e f4        	c.sdsp	a1, 0x28(sp)
   116e2: ba e0        	c.sdsp	a4, 0x40(sp)
   116e4: be e4        	c.sdsp	a5, 0x48(sp)
   116e6: c2 e8        	c.sdsp	a6, 0x50(sp)
   116e8: c6 ec        	c.sdsp	a7, 0x58(sp)
   116ea: 83 35 03 01  	ld	a1, 0x10(t1)
   116ee: 34 10        	c.addi4spn	a3, sp, 0x28
   116f0: 2a 86        	c.mv	a2, a0
   116f2: 1a 85        	c.mv	a0, t1
   116f4: 06 ec        	c.sdsp	ra, 0x18(sp)
   116f6: 36 e4        	c.sdsp	a3, 0x8(sp)
   116f8: ef 00 90 24  	jal	ra, 0x12140 <_vfprintf_r>
   116fc: e2 60        	c.ldsp	ra, 0x18(sp)
   116fe: 25 61        	c.addi16sp	sp, 0x60
   11700: 82 80        	c.jr	ra

0000000000011702 <_putchar_r>:
   11702: 10 69        	c.ld	a2, 0x10(a0)
   11704: 6f 30 b0 2d  	jal	zero, 0x151de <_putc_r>

0000000000011708 <putchar>:
   11708: 83 b7 81 88  	ld	a5, -0x778(gp)
   1170c: aa 85        	c.mv	a1, a0
   1170e: 90 6b        	c.ld	a2, 0x10(a5)
   11710: 3e 85        	c.mv	a0, a5
   11712: 6f 30 d0 2c  	jal	zero, 0x151de <_putc_r>

0000000000011716 <__sread>:
   11716: 41 11        	c.addi	sp, -0x10
   11718: 22 e0        	c.sdsp	s0, 0x0(sp)
   1171a: 2e 84        	c.mv	s0, a1
   1171c: 83 95 25 01  	lh	a1, 0x12(a1)
   11720: 06 e4        	c.sdsp	ra, 0x8(sp)
   11722: ef 00 e0 26  	jal	ra, 0x11990 <_read_r>
   11726: 63 49 05 00  	blt	a0, zero, 0x11738 <__sread+0x22>
   1172a: 5c 68        	c.ld	a5, 0x90(s0)
   1172c: a2 60        	c.ldsp	ra, 0x8(sp)
   1172e: aa 97        	c.add	a5, a0
   11730: 5c e8        	c.sd	a5, 0x90(s0)
   11732: 02 64        	c.ldsp	s0, 0x0(sp)
   11734: 41 01        	c.addi	sp, 0x10
   11736: 82 80        	c.jr	ra
   11738: 83 57 04 01  	lhu	a5, 0x10(s0)
   1173c: 7d 77        	c.lui	a4, 0xfffff
   1173e: 7d 17        	c.addi	a4, -0x1
   11740: f9 8f        	c.and	a5, a4
   11742: a2 60        	c.ldsp	ra, 0x8(sp)
   11744: 23 18 f4 00  	sh	a5, 0x10(s0)
   11748: 02 64        	c.ldsp	s0, 0x0(sp)
   1174a: 41 01        	c.addi	sp, 0x10
   1174c: 82 80        	c.jr	ra

000000000001174e <__seofread>:
   1174e: 01 45        	c.li	a0, 0x0
   11750: 82 80        	c.jr	ra

0000000000011752 <__swrite>:
   11752: 83 97 05 01  	lh	a5, 0x10(a1)
   11756: 79 71        	c.addi16sp	sp, -0x30
   11758: 22 f0        	c.sdsp	s0, 0x20(sp)
   1175a: 26 ec        	c.sdsp	s1, 0x18(sp)
   1175c: 4a e8        	c.sdsp	s2, 0x10(sp)
   1175e: 4e e4        	c.sdsp	s3, 0x8(sp)
   11760: 06 f4        	c.sdsp	ra, 0x28(sp)
   11762: 13 f7 07 10  	andi	a4, a5, 0x100
   11766: 2e 84        	c.mv	s0, a1
   11768: aa 84        	c.mv	s1, a0
   1176a: 32 89        	c.mv	s2, a2
   1176c: b6 89        	c.mv	s3, a3
   1176e: 15 e3        	c.bnez	a4, 0x11792 <__swrite+0x40>
   11770: 7d 77        	c.lui	a4, 0xfffff
   11772: 7d 17        	c.addi	a4, -0x1
   11774: f9 8f        	c.and	a5, a4
   11776: 83 15 24 01  	lh	a1, 0x12(s0)
   1177a: 23 18 f4 00  	sh	a5, 0x10(s0)
   1177e: 02 74        	c.ldsp	s0, 0x20(sp)
   11780: a2 70        	c.ldsp	ra, 0x28(sp)
   11782: ce 86        	c.mv	a3, s3
   11784: 4a 86        	c.mv	a2, s2
   11786: a2 69        	c.ldsp	s3, 0x8(sp)
   11788: 42 69        	c.ldsp	s2, 0x10(sp)
   1178a: 26 85        	c.mv	a0, s1
   1178c: e2 64        	c.ldsp	s1, 0x18(sp)
   1178e: 45 61        	c.addi16sp	sp, 0x30
   11790: 8d ac        	c.j	0x11a02 <_write_r>
   11792: 83 95 25 01  	lh	a1, 0x12(a1)
   11796: 89 46        	c.li	a3, 0x2
   11798: 01 46        	c.li	a2, 0x0
   1179a: ef 00 a0 1b  	jal	ra, 0x11954 <_lseek_r>
   1179e: 83 17 04 01  	lh	a5, 0x10(s0)
   117a2: f9 b7        	c.j	0x11770 <__swrite+0x1e>

00000000000117a4 <__sseek>:
   117a4: 41 11        	c.addi	sp, -0x10
   117a6: 22 e0        	c.sdsp	s0, 0x0(sp)
   117a8: 2e 84        	c.mv	s0, a1
   117aa: 83 95 25 01  	lh	a1, 0x12(a1)
   117ae: 06 e4        	c.sdsp	ra, 0x8(sp)
   117b0: ef 00 40 1a  	jal	ra, 0x11954 <_lseek_r>
   117b4: fd 57        	c.li	a5, -0x1
   117b6: 63 01 f5 02  	beq	a0, a5, 0x117d8 <__sseek+0x34>
   117ba: 83 57 04 01  	lhu	a5, 0x10(s0)
   117be: 05 67        	c.lui	a4, 0x1
   117c0: a2 60        	c.ldsp	ra, 0x8(sp)
   117c2: d9 8f        	c.or	a5, a4
   117c4: 9b 97 07 01  	slliw	a5, a5, 0x10
   117c8: 9b d7 07 41  	sraiw	a5, a5, 0x10
   117cc: 48 e8        	c.sd	a0, 0x90(s0)
   117ce: 23 18 f4 00  	sh	a5, 0x10(s0)
   117d2: 02 64        	c.ldsp	s0, 0x0(sp)
   117d4: 41 01        	c.addi	sp, 0x10
   117d6: 82 80        	c.jr	ra
   117d8: 83 57 04 01  	lhu	a5, 0x10(s0)
   117dc: 7d 77        	c.lui	a4, 0xfffff
   117de: 7d 17        	c.addi	a4, -0x1
   117e0: f9 8f        	c.and	a5, a4
   117e2: 9b 97 07 01  	slliw	a5, a5, 0x10
   117e6: 9b d7 07 41  	sraiw	a5, a5, 0x10
   117ea: a2 60        	c.ldsp	ra, 0x8(sp)
   117ec: 23 18 f4 00  	sh	a5, 0x10(s0)
   117f0: 02 64        	c.ldsp	s0, 0x0(sp)
   117f2: 41 01        	c.addi	sp, 0x10
   117f4: 82 80        	c.jr	ra

00000000000117f6 <__sclose>:
   117f6: 83 95 25 01  	lh	a1, 0x12(a1)
   117fa: 45 a8        	c.j	0x118aa <_close_r>

00000000000117fc <strncmp>:
   117fc: 4d c6        	c.beqz	a2, 0x118a6 <strncmp+0xaa>
   117fe: b3 67 b5 00  	or	a5, a0, a1
   11802: 9d 8b        	c.andi	a5, 0x7
   11804: a5 eb        	c.bnez	a5, 0x11874 <strncmp+0x78>
   11806: 9d 47        	c.li	a5, 0x7
   11808: 63 f6 c7 06  	bgeu	a5, a2, 0x11874 <strncmp+0x78>
   1180c: b7 16 10 f0  	lui	a3, 0xf0101
   11810: 37 08 ff fe  	lui	a6, 0xfeff0
   11814: 92 06        	c.slli	a3, 0x4
   11816: 13 08 f8 ef  	addi	a6, a6, -0x101
   1181a: 93 86 16 10  	addi	a3, a3, 0x101
   1181e: 42 08        	c.slli	a6, 0x10
   11820: c2 06        	c.slli	a3, 0x10
   11822: 13 08 f8 ef  	addi	a6, a6, -0x101
   11826: 93 86 16 10  	addi	a3, a3, 0x101
   1182a: 42 08        	c.slli	a6, 0x10
   1182c: be 06        	c.slli	a3, 0xf
   1182e: 13 08 f8 ef  	addi	a6, a6, -0x101
   11832: 93 86 06 08  	addi	a3, a3, 0x80
   11836: 1d 4e        	c.li	t3, 0x7
   11838: 01 a8        	c.j	0x11848 <strncmp+0x4c>
   1183a: 61 16        	c.addi	a2, -0x8
   1183c: 2d c6        	c.beqz	a2, 0x118a6 <strncmp+0xaa>
   1183e: a5 e7        	c.bnez	a5, 0x118a6 <strncmp+0xaa>
   11840: 21 05        	c.addi	a0, 0x8
   11842: a1 05        	c.addi	a1, 0x8
   11844: 63 78 ce 02  	bgeu	t3, a2, 0x11874 <strncmp+0x78>
   11848: 18 61        	c.ld	a4, 0x0(a0)
   1184a: 83 b8 05 00  	ld	a7, 0x0(a1)
   1184e: b3 07 07 01  	add	a5, a4, a6
   11852: 13 43 f7 ff  	xori	t1, a4, -0x1
   11856: b3 f7 67 00  	and	a5, a5, t1
   1185a: f5 8f        	c.and	a5, a3
   1185c: e3 0f 17 fd  	beq	a4, a7, 0x1183a <strncmp+0x3e>
   11860: 03 47 05 00  	lbu	a4, 0x0(a0)
   11864: 83 c6 05 00  	lbu	a3, 0x0(a1)
   11868: 2a 88        	c.mv	a6, a0
   1186a: 63 07 d7 02  	beq	a4, a3, 0x11898 <strncmp+0x9c>
   1186e: 3b 05 d7 40  	subw	a0, a4, a3
   11872: 82 80        	c.jr	ra
   11874: 03 47 05 00  	lbu	a4, 0x0(a0)
   11878: 83 c6 05 00  	lbu	a3, 0x0(a1)
   1187c: e3 19 d7 fe  	bne	a4, a3, 0x1186e <strncmp+0x72>
   11880: 85 47        	c.li	a5, 0x1
   11882: 63 02 f6 02  	beq	a2, a5, 0x118a6 <strncmp+0xaa>
   11886: 2a 88        	c.mv	a6, a0
   11888: 01 a8        	c.j	0x11898 <strncmp+0x9c>
   1188a: 03 47 05 00  	lbu	a4, 0x0(a0)
   1188e: 83 c6 05 00  	lbu	a3, 0x0(a1)
   11892: e3 1e d7 fc  	bne	a4, a3, 0x1186e <strncmp+0x72>
   11896: 81 cb        	c.beqz	a5, 0x118a6 <strncmp+0xaa>
   11898: 05 05        	c.addi	a0, 0x1
   1189a: b3 07 a6 40  	sub	a5, a2, a0
   1189e: fd 17        	c.addi	a5, -0x1
   118a0: 85 05        	c.addi	a1, 0x1
   118a2: c2 97        	c.add	a5, a6
   118a4: 7d f3        	c.bnez	a4, 0x1188a <strncmp+0x8e>
   118a6: 01 45        	c.li	a0, 0x0
   118a8: 82 80        	c.jr	ra

00000000000118aa <_close_r>:
   118aa: 01 11        	c.addi	sp, -0x20
   118ac: 22 e8        	c.sdsp	s0, 0x10(sp)
   118ae: 26 e4        	c.sdsp	s1, 0x8(sp)
   118b0: 2a 84        	c.mv	s0, a0
   118b2: 2e 85        	c.mv	a0, a1
   118b4: 06 ec        	c.sdsp	ra, 0x18(sp)
   118b6: 23 ac 01 8e  	sw	zero, -0x708(gp)
   118ba: ef 60 90 41  	jal	ra, 0x184d2 <_close>
   118be: fd 57        	c.li	a5, -0x1
   118c0: 63 07 f5 00  	beq	a0, a5, 0x118ce <_close_r+0x24>
   118c4: e2 60        	c.ldsp	ra, 0x18(sp)
   118c6: 42 64        	c.ldsp	s0, 0x10(sp)
   118c8: a2 64        	c.ldsp	s1, 0x8(sp)
   118ca: 05 61        	c.addi16sp	sp, 0x20
   118cc: 82 80        	c.jr	ra
   118ce: 83 a7 81 8f  	lw	a5, -0x708(gp)
   118d2: ed db        	c.beqz	a5, 0x118c4 <_close_r+0x1a>
   118d4: e2 60        	c.ldsp	ra, 0x18(sp)
   118d6: 1c c0        	c.sw	a5, 0x0(s0)
   118d8: 42 64        	c.ldsp	s0, 0x10(sp)
   118da: a2 64        	c.ldsp	s1, 0x8(sp)
   118dc: 05 61        	c.addi16sp	sp, 0x20
   118de: 82 80        	c.jr	ra

00000000000118e0 <_reclaim_reent>:
   118e0: 83 b7 81 88  	ld	a5, -0x778(gp)
   118e4: 63 87 a7 06  	beq	a5, a0, 0x11952 <_reclaim_reent+0x72>
   118e8: 2c 75        	c.ld	a1, 0x68(a0)
   118ea: 79 71        	c.addi16sp	sp, -0x30
   118ec: 26 ec        	c.sdsp	s1, 0x18(sp)
   118ee: 06 f4        	c.sdsp	ra, 0x28(sp)
   118f0: aa 84        	c.mv	s1, a0
   118f2: 9d c9        	c.beqz	a1, 0x11928 <_reclaim_reent+0x48>
   118f4: 4a e8        	c.sdsp	s2, 0x10(sp)
   118f6: 4e e4        	c.sdsp	s3, 0x8(sp)
   118f8: 22 f0        	c.sdsp	s0, 0x20(sp)
   118fa: 01 49        	c.li	s2, 0x0
   118fc: 93 09 00 20  	addi	s3, zero, 0x200
   11900: b3 87 25 01  	add	a5, a1, s2
   11904: 80 63        	c.ld	s0, 0x0(a5)
   11906: 01 c8        	c.beqz	s0, 0x11916 <_reclaim_reent+0x36>
   11908: a2 85        	c.mv	a1, s0
   1190a: 00 60        	c.ld	s0, 0x0(s0)
   1190c: 26 85        	c.mv	a0, s1
   1190e: ef 00 40 5e  	jal	ra, 0x11ef2 <_free_r>
   11912: 7d f8        	c.bnez	s0, 0x11908 <_reclaim_reent+0x28>
   11914: ac 74        	c.ld	a1, 0x68(s1)
   11916: 21 09        	c.addi	s2, 0x8
   11918: e3 14 39 ff  	bne	s2, s3, 0x11900 <_reclaim_reent+0x20>
   1191c: 26 85        	c.mv	a0, s1
   1191e: ef 00 40 5d  	jal	ra, 0x11ef2 <_free_r>
   11922: 02 74        	c.ldsp	s0, 0x20(sp)
   11924: 42 69        	c.ldsp	s2, 0x10(sp)
   11926: a2 69        	c.ldsp	s3, 0x8(sp)
   11928: ac 68        	c.ld	a1, 0x50(s1)
   1192a: 81 c5        	c.beqz	a1, 0x11932 <_reclaim_reent+0x52>
   1192c: 26 85        	c.mv	a0, s1
   1192e: ef 00 40 5c  	jal	ra, 0x11ef2 <_free_r>
   11932: ac 7c        	c.ld	a1, 0x78(s1)
   11934: 81 c5        	c.beqz	a1, 0x1193c <_reclaim_reent+0x5c>
   11936: 26 85        	c.mv	a0, s1
   11938: ef 00 a0 5b  	jal	ra, 0x11ef2 <_free_r>
   1193c: bc 64        	c.ld	a5, 0x48(s1)
   1193e: 91 c7        	c.beqz	a5, 0x1194a <_reclaim_reent+0x6a>
   11940: a2 70        	c.ldsp	ra, 0x28(sp)
   11942: 26 85        	c.mv	a0, s1
   11944: e2 64        	c.ldsp	s1, 0x18(sp)
   11946: 45 61        	c.addi16sp	sp, 0x30
   11948: 82 87        	c.jr	a5
   1194a: a2 70        	c.ldsp	ra, 0x28(sp)
   1194c: e2 64        	c.ldsp	s1, 0x18(sp)
   1194e: 45 61        	c.addi16sp	sp, 0x30
   11950: 82 80        	c.jr	ra
   11952: 82 80        	c.jr	ra

0000000000011954 <_lseek_r>:
   11954: 01 11        	c.addi	sp, -0x20
   11956: 2e 87        	c.mv	a4, a1
   11958: 22 e8        	c.sdsp	s0, 0x10(sp)
   1195a: 26 e4        	c.sdsp	s1, 0x8(sp)
   1195c: b2 85        	c.mv	a1, a2
   1195e: 2a 84        	c.mv	s0, a0
   11960: 36 86        	c.mv	a2, a3
   11962: 3a 85        	c.mv	a0, a4
   11964: 06 ec        	c.sdsp	ra, 0x18(sp)
   11966: 23 ac 01 8e  	sw	zero, -0x708(gp)
   1196a: ef 60 50 43  	jal	ra, 0x1859e <_lseek>
   1196e: fd 57        	c.li	a5, -0x1
   11970: 63 07 f5 00  	beq	a0, a5, 0x1197e <_lseek_r+0x2a>
   11974: e2 60        	c.ldsp	ra, 0x18(sp)
   11976: 42 64        	c.ldsp	s0, 0x10(sp)
   11978: a2 64        	c.ldsp	s1, 0x8(sp)
   1197a: 05 61        	c.addi16sp	sp, 0x20
   1197c: 82 80        	c.jr	ra
   1197e: 83 a7 81 8f  	lw	a5, -0x708(gp)
   11982: ed db        	c.beqz	a5, 0x11974 <_lseek_r+0x20>
   11984: e2 60        	c.ldsp	ra, 0x18(sp)
   11986: 1c c0        	c.sw	a5, 0x0(s0)
   11988: 42 64        	c.ldsp	s0, 0x10(sp)
   1198a: a2 64        	c.ldsp	s1, 0x8(sp)
   1198c: 05 61        	c.addi16sp	sp, 0x20
   1198e: 82 80        	c.jr	ra

0000000000011990 <_read_r>:
   11990: 01 11        	c.addi	sp, -0x20
   11992: 2e 87        	c.mv	a4, a1
   11994: 22 e8        	c.sdsp	s0, 0x10(sp)
   11996: 26 e4        	c.sdsp	s1, 0x8(sp)
   11998: b2 85        	c.mv	a1, a2
   1199a: 2a 84        	c.mv	s0, a0
   1199c: 36 86        	c.mv	a2, a3
   1199e: 3a 85        	c.mv	a0, a4
   119a0: 06 ec        	c.sdsp	ra, 0x18(sp)
   119a2: 23 ac 01 8e  	sw	zero, -0x708(gp)
   119a6: ef 60 50 42  	jal	ra, 0x185ca <_read>
   119aa: fd 57        	c.li	a5, -0x1
   119ac: 63 07 f5 00  	beq	a0, a5, 0x119ba <_read_r+0x2a>
   119b0: e2 60        	c.ldsp	ra, 0x18(sp)
   119b2: 42 64        	c.ldsp	s0, 0x10(sp)
   119b4: a2 64        	c.ldsp	s1, 0x8(sp)
   119b6: 05 61        	c.addi16sp	sp, 0x20
   119b8: 82 80        	c.jr	ra
   119ba: 83 a7 81 8f  	lw	a5, -0x708(gp)
   119be: ed db        	c.beqz	a5, 0x119b0 <_read_r+0x20>
   119c0: e2 60        	c.ldsp	ra, 0x18(sp)
   119c2: 1c c0        	c.sw	a5, 0x0(s0)
   119c4: 42 64        	c.ldsp	s0, 0x10(sp)
   119c6: a2 64        	c.ldsp	s1, 0x8(sp)
   119c8: 05 61        	c.addi16sp	sp, 0x20
   119ca: 82 80        	c.jr	ra

00000000000119cc <_sbrk_r>:
   119cc: 01 11        	c.addi	sp, -0x20
   119ce: 22 e8        	c.sdsp	s0, 0x10(sp)
   119d0: 26 e4        	c.sdsp	s1, 0x8(sp)
   119d2: 2a 84        	c.mv	s0, a0
   119d4: 2e 85        	c.mv	a0, a1
   119d6: 06 ec        	c.sdsp	ra, 0x18(sp)
   119d8: 23 ac 01 8e  	sw	zero, -0x708(gp)
   119dc: ef 60 b0 41  	jal	ra, 0x185f6 <_sbrk>
   119e0: fd 57        	c.li	a5, -0x1
   119e2: 63 07 f5 00  	beq	a0, a5, 0x119f0 <_sbrk_r+0x24>
   119e6: e2 60        	c.ldsp	ra, 0x18(sp)
   119e8: 42 64        	c.ldsp	s0, 0x10(sp)
   119ea: a2 64        	c.ldsp	s1, 0x8(sp)
   119ec: 05 61        	c.addi16sp	sp, 0x20
   119ee: 82 80        	c.jr	ra
   119f0: 83 a7 81 8f  	lw	a5, -0x708(gp)
   119f4: ed db        	c.beqz	a5, 0x119e6 <_sbrk_r+0x1a>
   119f6: e2 60        	c.ldsp	ra, 0x18(sp)
   119f8: 1c c0        	c.sw	a5, 0x0(s0)
   119fa: 42 64        	c.ldsp	s0, 0x10(sp)
   119fc: a2 64        	c.ldsp	s1, 0x8(sp)
   119fe: 05 61        	c.addi16sp	sp, 0x20
   11a00: 82 80        	c.jr	ra

0000000000011a02 <_write_r>:
   11a02: 01 11        	c.addi	sp, -0x20
   11a04: 2e 87        	c.mv	a4, a1
   11a06: 22 e8        	c.sdsp	s0, 0x10(sp)
   11a08: 26 e4        	c.sdsp	s1, 0x8(sp)
   11a0a: b2 85        	c.mv	a1, a2
   11a0c: 2a 84        	c.mv	s0, a0
   11a0e: 36 86        	c.mv	a2, a3
   11a10: 3a 85        	c.mv	a0, a4
   11a12: 06 ec        	c.sdsp	ra, 0x18(sp)
   11a14: 23 ac 01 8e  	sw	zero, -0x708(gp)
   11a18: ef 60 30 43  	jal	ra, 0x1864a <_write>
   11a1c: fd 57        	c.li	a5, -0x1
   11a1e: 63 07 f5 00  	beq	a0, a5, 0x11a2c <_write_r+0x2a>
   11a22: e2 60        	c.ldsp	ra, 0x18(sp)
   11a24: 42 64        	c.ldsp	s0, 0x10(sp)
   11a26: a2 64        	c.ldsp	s1, 0x8(sp)
   11a28: 05 61        	c.addi16sp	sp, 0x20
   11a2a: 82 80        	c.jr	ra
   11a2c: 83 a7 81 8f  	lw	a5, -0x708(gp)
   11a30: ed db        	c.beqz	a5, 0x11a22 <_write_r+0x20>
   11a32: e2 60        	c.ldsp	ra, 0x18(sp)
   11a34: 1c c0        	c.sw	a5, 0x0(s0)
   11a36: 42 64        	c.ldsp	s0, 0x10(sp)
   11a38: a2 64        	c.ldsp	s1, 0x8(sp)
   11a3a: 05 61        	c.addi16sp	sp, 0x20
   11a3c: 82 80        	c.jr	ra

0000000000011a3e <__libc_init_array>:
   11a3e: 01 11        	c.addi	sp, -0x20
   11a40: 22 e8        	c.sdsp	s0, 0x10(sp)
   11a42: b7 17 02 00  	lui	a5, 0x21
   11a46: 37 14 02 00  	lui	s0, 0x21
   11a4a: 4a e0        	c.sdsp	s2, 0x0(sp)
   11a4c: 93 87 07 65  	addi	a5, a5, 0x650
   11a50: 13 07 04 65  	addi	a4, s0, 0x650
   11a54: 06 ec        	c.sdsp	ra, 0x18(sp)
   11a56: 26 e4        	c.sdsp	s1, 0x8(sp)
   11a58: 33 89 e7 40  	sub	s2, a5, a4
   11a5c: 63 8d e7 00  	beq	a5, a4, 0x11a76 <__libc_init_array+0x38>
   11a60: 13 59 39 40  	srai	s2, s2, 0x3
   11a64: 13 04 04 65  	addi	s0, s0, 0x650
   11a68: 81 44        	c.li	s1, 0x0
   11a6a: 1c 60        	c.ld	a5, 0x0(s0)
   11a6c: 85 04        	c.addi	s1, 0x1
   11a6e: 21 04        	c.addi	s0, 0x8
   11a70: 82 97        	c.jalr	a5
   11a72: e3 ec 24 ff  	bltu	s1, s2, 0x11a6a <__libc_init_array+0x2c>
   11a76: 37 14 02 00  	lui	s0, 0x21
   11a7a: b7 17 02 00  	lui	a5, 0x21
   11a7e: 93 87 07 66  	addi	a5, a5, 0x660
   11a82: 13 07 04 65  	addi	a4, s0, 0x650
   11a86: 33 89 e7 40  	sub	s2, a5, a4
   11a8a: 13 59 39 40  	srai	s2, s2, 0x3
   11a8e: 63 8b e7 00  	beq	a5, a4, 0x11aa4 <__libc_init_array+0x66>
   11a92: 13 04 04 65  	addi	s0, s0, 0x650
   11a96: 81 44        	c.li	s1, 0x0
   11a98: 1c 60        	c.ld	a5, 0x0(s0)
   11a9a: 85 04        	c.addi	s1, 0x1
   11a9c: 21 04        	c.addi	s0, 0x8
   11a9e: 82 97        	c.jalr	a5
   11aa0: e3 ec 24 ff  	bltu	s1, s2, 0x11a98 <__libc_init_array+0x5a>
   11aa4: e2 60        	c.ldsp	ra, 0x18(sp)
   11aa6: 42 64        	c.ldsp	s0, 0x10(sp)
   11aa8: a2 64        	c.ldsp	s1, 0x8(sp)
   11aaa: 02 69        	c.ldsp	s2, 0x0(sp)
   11aac: 05 61        	c.addi16sp	sp, 0x20
   11aae: 82 80        	c.jr	ra

0000000000011ab0 <memmove>:
   11ab0: 63 f2 a5 02  	bgeu	a1, a0, 0x11ad4 <memmove+0x24>
   11ab4: 33 87 c5 00  	add	a4, a1, a2
   11ab8: 63 7e e5 00  	bgeu	a0, a4, 0x11ad4 <memmove+0x24>
   11abc: b3 07 c5 00  	add	a5, a0, a2
   11ac0: 1d ca        	c.beqz	a2, 0x11af6 <memmove+0x46>
   11ac2: 83 46 f7 ff  	lbu	a3, -0x1(a4)
   11ac6: fd 17        	c.addi	a5, -0x1
   11ac8: 7d 17        	c.addi	a4, -0x1
   11aca: 23 80 d7 00  	sb	a3, 0x0(a5)
   11ace: e3 1a f5 fe  	bne	a0, a5, 0x11ac2 <memmove+0x12>
   11ad2: 82 80        	c.jr	ra
   11ad4: fd 47        	c.li	a5, 0x1f
   11ad6: 63 e1 c7 02  	bltu	a5, a2, 0x11af8 <memmove+0x48>
   11ada: aa 87        	c.mv	a5, a0
   11adc: 93 06 f6 ff  	addi	a3, a2, -0x1
   11ae0: 51 ce        	c.beqz	a2, 0x11b7c <memmove+0xcc>
   11ae2: 85 06        	c.addi	a3, 0x1
   11ae4: be 96        	c.add	a3, a5
   11ae6: 03 c7 05 00  	lbu	a4, 0x0(a1)
   11aea: 85 07        	c.addi	a5, 0x1
   11aec: 85 05        	c.addi	a1, 0x1
   11aee: a3 8f e7 fe  	sb	a4, -0x1(a5)
   11af2: e3 9a d7 fe  	bne	a5, a3, 0x11ae6 <memmove+0x36>
   11af6: 82 80        	c.jr	ra
   11af8: b3 67 b5 00  	or	a5, a0, a1
   11afc: 9d 8b        	c.andi	a5, 0x7
   11afe: bd eb        	c.bnez	a5, 0x11b74 <memmove+0xc4>
   11b00: 93 08 06 fe  	addi	a7, a2, -0x20
   11b04: 93 f8 08 fe  	andi	a7, a7, -0x20
   11b08: 93 88 08 02  	addi	a7, a7, 0x20
   11b0c: b3 06 15 01  	add	a3, a0, a7
   11b10: 2e 87        	c.mv	a4, a1
   11b12: aa 87        	c.mv	a5, a0
   11b14: 03 38 07 00  	ld	a6, 0x0(a4)
   11b18: 13 07 07 02  	addi	a4, a4, 0x20
   11b1c: 93 87 07 02  	addi	a5, a5, 0x20
   11b20: 23 b0 07 ff  	sd	a6, -0x20(a5)
   11b24: 03 38 87 fe  	ld	a6, -0x18(a4)
   11b28: 23 b4 07 ff  	sd	a6, -0x18(a5)
   11b2c: 03 38 07 ff  	ld	a6, -0x10(a4)
   11b30: 23 b8 07 ff  	sd	a6, -0x10(a5)
   11b34: 03 38 87 ff  	ld	a6, -0x8(a4)
   11b38: 23 bc 07 ff  	sd	a6, -0x8(a5)
   11b3c: e3 9c d7 fc  	bne	a5, a3, 0x11b14 <memmove+0x64>
   11b40: 13 78 86 01  	andi	a6, a2, 0x18
   11b44: c6 95        	c.add	a1, a7
   11b46: 13 77 f6 01  	andi	a4, a2, 0x1f
   11b4a: 63 0a 08 02  	beq	a6, zero, 0x11b7e <memmove+0xce>
   11b4e: 13 08 87 ff  	addi	a6, a4, -0x8
   11b52: 13 78 88 ff  	andi	a6, a6, -0x8
   11b56: 21 08        	c.addi	a6, 0x8
   11b58: b3 87 06 01  	add	a5, a3, a6
   11b5c: 2e 87        	c.mv	a4, a1
   11b5e: 83 38 07 00  	ld	a7, 0x0(a4)
   11b62: a1 06        	c.addi	a3, 0x8
   11b64: 21 07        	c.addi	a4, 0x8
   11b66: 23 bc 16 ff  	sd	a7, -0x8(a3)
   11b6a: e3 9a f6 fe  	bne	a3, a5, 0x11b5e <memmove+0xae>
   11b6e: 1d 8a        	c.andi	a2, 0x7
   11b70: c2 95        	c.add	a1, a6
   11b72: ad b7        	c.j	0x11adc <memmove+0x2c>
   11b74: 93 06 f6 ff  	addi	a3, a2, -0x1
   11b78: aa 87        	c.mv	a5, a0
   11b7a: a5 b7        	c.j	0x11ae2 <memmove+0x32>
   11b7c: 82 80        	c.jr	ra
   11b7e: 3a 86        	c.mv	a2, a4
   11b80: b1 bf        	c.j	0x11adc <memmove+0x2c>

0000000000011b82 <memset>:
   11b82: 3d 43        	c.li	t1, 0xf
   11b84: 2a 87        	c.mv	a4, a0
   11b86: 63 71 c3 02  	bgeu	t1, a2, 0x11ba8 <memset+0x26>
   11b8a: 93 77 f7 00  	andi	a5, a4, 0xf
   11b8e: c1 e3        	c.bnez	a5, 0x11c0e <memset+0x8c>
   11b90: bd e1        	c.bnez	a1, 0x11bf6 <memset+0x74>
   11b92: 93 76 06 ff  	andi	a3, a2, -0x10
   11b96: 3d 8a        	c.andi	a2, 0xf
   11b98: ba 96        	c.add	a3, a4
   11b9a: 0c e3        	c.sd	a1, 0x0(a4)
   11b9c: 0c e7        	c.sd	a1, 0x8(a4)
   11b9e: 41 07        	c.addi	a4, 0x10
   11ba0: e3 6d d7 fe  	bltu	a4, a3, 0x11b9a <memset+0x18>
   11ba4: 11 e2        	c.bnez	a2, 0x11ba8 <memset+0x26>
   11ba6: 82 80        	c.jr	ra
   11ba8: b3 06 c3 40  	sub	a3, t1, a2
   11bac: 8a 06        	c.slli	a3, 0x2
   11bae: 97 02 00 00  	auipc	t0, 0x0
   11bb2: 96 96        	c.add	a3, t0
   11bb4: 67 80 a6 00  	jalr	zero, 0xa(a3)
   11bb8: 23 07 b7 00  	sb	a1, 0xe(a4)
   11bbc: a3 06 b7 00  	sb	a1, 0xd(a4)
   11bc0: 23 06 b7 00  	sb	a1, 0xc(a4)
   11bc4: a3 05 b7 00  	sb	a1, 0xb(a4)
   11bc8: 23 05 b7 00  	sb	a1, 0xa(a4)
   11bcc: a3 04 b7 00  	sb	a1, 0x9(a4)
   11bd0: 23 04 b7 00  	sb	a1, 0x8(a4)
   11bd4: a3 03 b7 00  	sb	a1, 0x7(a4)
   11bd8: 23 03 b7 00  	sb	a1, 0x6(a4)
   11bdc: a3 02 b7 00  	sb	a1, 0x5(a4)
   11be0: 23 02 b7 00  	sb	a1, 0x4(a4)
   11be4: a3 01 b7 00  	sb	a1, 0x3(a4)
   11be8: 23 01 b7 00  	sb	a1, 0x2(a4)
   11bec: a3 00 b7 00  	sb	a1, 0x1(a4)
   11bf0: 23 00 b7 00  	sb	a1, 0x0(a4)
   11bf4: 82 80        	c.jr	ra
   11bf6: 93 f5 f5 0f  	andi	a1, a1, 0xff
   11bfa: 93 96 85 00  	slli	a3, a1, 0x8
   11bfe: d5 8d        	c.or	a1, a3
   11c00: 93 96 05 01  	slli	a3, a1, 0x10
   11c04: d5 8d        	c.or	a1, a3
   11c06: 93 96 05 02  	slli	a3, a1, 0x20
   11c0a: d5 8d        	c.or	a1, a3
   11c0c: 59 b7        	c.j	0x11b92 <memset+0x10>
   11c0e: 93 96 27 00  	slli	a3, a5, 0x2
   11c12: 97 02 00 00  	auipc	t0, 0x0
   11c16: 96 96        	c.add	a3, t0
   11c18: 86 82        	c.mv	t0, ra
   11c1a: e7 80 26 fa  	jalr	ra, -0x5e(a3)
   11c1e: 96 80        	c.mv	ra, t0
   11c20: c1 17        	c.addi	a5, -0x10
   11c22: 1d 8f        	c.sub	a4, a5
   11c24: 3e 96        	c.add	a2, a5
   11c26: e3 71 c3 f8  	bgeu	t1, a2, 0x11ba8 <memset+0x26>
   11c2a: 9d b7        	c.j	0x11b90 <memset+0xe>

0000000000011c2c <strlen>:
   11c2c: 93 77 75 00  	andi	a5, a0, 0x7
   11c30: 2a 87        	c.mv	a4, a0
   11c32: b5 e3        	c.bnez	a5, 0x11c96 <strlen+0x6a>
   11c34: b7 f6 ef 0f  	lui	a3, 0xfeff
   11c38: 92 06        	c.slli	a3, 0x4
   11c3a: 93 86 f6 ef  	addi	a3, a3, -0x101
   11c3e: c2 06        	c.slli	a3, 0x10
   11c40: 93 86 f6 ef  	addi	a3, a3, -0x101
   11c44: be 06        	c.slli	a3, 0xf
   11c46: 93 86 f6 f7  	addi	a3, a3, -0x81
   11c4a: fd 55        	c.li	a1, -0x1
   11c4c: 10 63        	c.ld	a2, 0x0(a4)
   11c4e: 21 07        	c.addi	a4, 0x8
   11c50: b3 77 d6 00  	and	a5, a2, a3
   11c54: b6 97        	c.add	a5, a3
   11c56: d1 8f        	c.or	a5, a2
   11c58: d5 8f        	c.or	a5, a3
   11c5a: e3 89 b7 fe  	beq	a5, a1, 0x11c4c <strlen+0x20>
   11c5e: 83 46 87 ff  	lbu	a3, -0x8(a4)
   11c62: b3 07 a7 40  	sub	a5, a4, a0
   11c66: a9 c6        	c.beqz	a3, 0x11cb0 <strlen+0x84>
   11c68: 83 46 97 ff  	lbu	a3, -0x7(a4)
   11c6c: 9d ce        	c.beqz	a3, 0x11caa <strlen+0x7e>
   11c6e: 83 46 a7 ff  	lbu	a3, -0x6(a4)
   11c72: a9 c6        	c.beqz	a3, 0x11cbc <strlen+0x90>
   11c74: 83 46 b7 ff  	lbu	a3, -0x5(a4)
   11c78: 9d ce        	c.beqz	a3, 0x11cb6 <strlen+0x8a>
   11c7a: 83 46 c7 ff  	lbu	a3, -0x4(a4)
   11c7e: b1 c2        	c.beqz	a3, 0x11cc2 <strlen+0x96>
   11c80: 83 46 d7 ff  	lbu	a3, -0x3(a4)
   11c84: b1 c2        	c.beqz	a3, 0x11cc8 <strlen+0x9c>
   11c86: 03 45 e7 ff  	lbu	a0, -0x2(a4)
   11c8a: 33 35 a0 00  	sltu	a0, zero, a0
   11c8e: 3e 95        	c.add	a0, a5
   11c90: 79 15        	c.addi	a0, -0x2
   11c92: 82 80        	c.jr	ra
   11c94: c5 d2        	c.beqz	a3, 0x11c34 <strlen+0x8>
   11c96: 83 47 07 00  	lbu	a5, 0x0(a4)
   11c9a: 05 07        	c.addi	a4, 0x1
   11c9c: 93 76 77 00  	andi	a3, a4, 0x7
   11ca0: f5 fb        	c.bnez	a5, 0x11c94 <strlen+0x68>
   11ca2: 09 8f        	c.sub	a4, a0
   11ca4: 13 05 f7 ff  	addi	a0, a4, -0x1
   11ca8: 82 80        	c.jr	ra
   11caa: 13 85 97 ff  	addi	a0, a5, -0x7
   11cae: 82 80        	c.jr	ra
   11cb0: 13 85 87 ff  	addi	a0, a5, -0x8
   11cb4: 82 80        	c.jr	ra
   11cb6: 13 85 b7 ff  	addi	a0, a5, -0x5
   11cba: 82 80        	c.jr	ra
   11cbc: 13 85 a7 ff  	addi	a0, a5, -0x6
   11cc0: 82 80        	c.jr	ra
   11cc2: 13 85 c7 ff  	addi	a0, a5, -0x4
   11cc6: 82 80        	c.jr	ra
   11cc8: 13 85 d7 ff  	addi	a0, a5, -0x3
   11ccc: 82 80        	c.jr	ra

0000000000011cce <__register_exitproc>:
   11cce: 83 b7 01 90  	ld	a5, -0x700(gp)
   11cd2: b1 c3        	c.beqz	a5, 0x11d16 <__register_exitproc+0x48>
   11cd4: 98 47        	c.lw	a4, 0x8(a5)
   11cd6: 7d 48        	c.li	a6, 0x1f
   11cd8: 63 46 e8 06  	blt	a6, a4, 0x11d44 <__register_exitproc+0x76>
   11cdc: 05 c5        	c.beqz	a0, 0x11d04 <__register_exitproc+0x36>
   11cde: 13 18 37 00  	slli	a6, a4, 0x3
   11ce2: 3e 98        	c.add	a6, a5
   11ce4: 23 38 c8 10  	sd	a2, 0x110(a6)
   11ce8: 83 a8 07 31  	lw	a7, 0x310(a5)
   11cec: 05 46        	c.li	a2, 0x1
   11cee: 3b 16 e6 00  	sllw	a2, a2, a4
   11cf2: b3 e8 c8 00  	or	a7, a7, a2
   11cf6: 23 a8 17 31  	sw	a7, 0x310(a5)
   11cfa: 23 38 d8 20  	sd	a3, 0x210(a6)
   11cfe: 89 46        	c.li	a3, 0x2
   11d00: 63 04 d5 02  	beq	a0, a3, 0x11d28 <__register_exitproc+0x5a>
   11d04: 93 06 27 00  	addi	a3, a4, 0x2
   11d08: 8e 06        	c.slli	a3, 0x3
   11d0a: 05 27        	c.addiw	a4, 0x1
   11d0c: 98 c7        	c.sw	a4, 0x8(a5)
   11d0e: b6 97        	c.add	a5, a3
   11d10: 8c e3        	c.sd	a1, 0x0(a5)
   11d12: 01 45        	c.li	a0, 0x0
   11d14: 82 80        	c.jr	ra
   11d16: b7 47 02 00  	lui	a5, 0x24
   11d1a: 13 88 87 a1  	addi	a6, a5, -0x5e8
   11d1e: 23 b0 01 91  	sd	a6, -0x700(gp)
   11d22: 93 87 87 a1  	addi	a5, a5, -0x5e8
   11d26: 7d b7        	c.j	0x11cd4 <__register_exitproc+0x6>
   11d28: 83 a6 47 31  	lw	a3, 0x314(a5)
   11d2c: 01 45        	c.li	a0, 0x0
   11d2e: d1 8e        	c.or	a3, a2
   11d30: 23 aa d7 30  	sw	a3, 0x314(a5)
   11d34: 93 06 27 00  	addi	a3, a4, 0x2
   11d38: 8e 06        	c.slli	a3, 0x3
   11d3a: 05 27        	c.addiw	a4, 0x1
   11d3c: 98 c7        	c.sw	a4, 0x8(a5)
   11d3e: b6 97        	c.add	a5, a3
   11d40: 8c e3        	c.sd	a1, 0x0(a5)
   11d42: 82 80        	c.jr	ra
   11d44: 7d 55        	c.li	a0, -0x1
   11d46: 82 80        	c.jr	ra

0000000000011d48 <__call_exitprocs>:
   11d48: 5d 71        	c.addi16sp	sp, -0x50
   11d4a: 52 f0        	c.sdsp	s4, 0x20(sp)
   11d4c: 4a f8        	c.sdsp	s2, 0x30(sp)
   11d4e: 03 b9 01 90  	ld	s2, -0x700(gp)
   11d52: 86 e4        	c.sdsp	ra, 0x48(sp)
   11d54: 63 0d 09 06  	beq	s2, zero, 0x11dce <__call_exitprocs+0x86>
   11d58: 4e f4        	c.sdsp	s3, 0x28(sp)
   11d5a: 56 ec        	c.sdsp	s5, 0x18(sp)
   11d5c: 5a e8        	c.sdsp	s6, 0x10(sp)
   11d5e: 5e e4        	c.sdsp	s7, 0x8(sp)
   11d60: a2 e0        	c.sdsp	s0, 0x40(sp)
   11d62: 26 fc        	c.sdsp	s1, 0x38(sp)
   11d64: 62 e0        	c.sdsp	s8, 0x0(sp)
   11d66: 2a 8b        	c.mv	s6, a0
   11d68: ae 8b        	c.mv	s7, a1
   11d6a: fd 59        	c.li	s3, -0x1
   11d6c: 85 4a        	c.li	s5, 0x1
   11d6e: 83 24 89 00  	lw	s1, 0x8(s2)
   11d72: 1b 84 f4 ff  	addiw	s0, s1, -0x1
   11d76: 63 45 04 04  	blt	s0, zero, 0x11dc0 <__call_exitprocs+0x78>
   11d7a: 8e 04        	c.slli	s1, 0x3
   11d7c: ca 94        	c.add	s1, s2
   11d7e: 63 9d 0b 04  	bne	s7, zero, 0x11dd8 <__call_exitprocs+0x90>
   11d82: 83 27 89 00  	lw	a5, 0x8(s2)
   11d86: 98 64        	c.ld	a4, 0x8(s1)
   11d88: fd 37        	c.addiw	a5, -0x1
   11d8a: 63 82 87 08  	beq	a5, s0, 0x11e0e <__call_exitprocs+0xc6>
   11d8e: 23 b4 04 00  	sd	zero, 0x8(s1)
   11d92: 1d c3        	c.beqz	a4, 0x11db8 <__call_exitprocs+0x70>
   11d94: 83 27 09 31  	lw	a5, 0x310(s2)
   11d98: bb 96 8a 00  	sllw	a3, s5, s0
   11d9c: 03 2c 89 00  	lw	s8, 0x8(s2)
   11da0: f5 8f        	c.and	a5, a3
   11da2: 81 27        	c.addiw	a5, 0x0
   11da4: b9 e3        	c.bnez	a5, 0x11dea <__call_exitprocs+0xa2>
   11da6: 02 97        	c.jalr	a4
   11da8: 03 27 89 00  	lw	a4, 0x8(s2)
   11dac: 83 b7 01 90  	ld	a5, -0x700(gp)
   11db0: 63 1c 87 05  	bne	a4, s8, 0x11e08 <__call_exitprocs+0xc0>
   11db4: 63 9a 27 05  	bne	a5, s2, 0x11e08 <__call_exitprocs+0xc0>
   11db8: 7d 34        	c.addiw	s0, -0x1
   11dba: e1 14        	c.addi	s1, -0x8
   11dbc: e3 11 34 fd  	bne	s0, s3, 0x11d7e <__call_exitprocs+0x36>
   11dc0: 06 64        	c.ldsp	s0, 0x40(sp)
   11dc2: e2 74        	c.ldsp	s1, 0x38(sp)
   11dc4: a2 79        	c.ldsp	s3, 0x28(sp)
   11dc6: e2 6a        	c.ldsp	s5, 0x18(sp)
   11dc8: 42 6b        	c.ldsp	s6, 0x10(sp)
   11dca: a2 6b        	c.ldsp	s7, 0x8(sp)
   11dcc: 02 6c        	c.ldsp	s8, 0x0(sp)
   11dce: a6 60        	c.ldsp	ra, 0x48(sp)
   11dd0: 42 79        	c.ldsp	s2, 0x30(sp)
   11dd2: 02 7a        	c.ldsp	s4, 0x20(sp)
   11dd4: 61 61        	c.addi16sp	sp, 0x50
   11dd6: 82 80        	c.jr	ra
   11dd8: 83 b7 84 20  	ld	a5, 0x208(s1)
   11ddc: e3 83 77 fb  	beq	a5, s7, 0x11d82 <__call_exitprocs+0x3a>
   11de0: 7d 34        	c.addiw	s0, -0x1
   11de2: e1 14        	c.addi	s1, -0x8
   11de4: e3 1a 34 ff  	bne	s0, s3, 0x11dd8 <__call_exitprocs+0x90>
   11de8: e1 bf        	c.j	0x11dc0 <__call_exitprocs+0x78>
   11dea: 83 27 49 31  	lw	a5, 0x314(s2)
   11dee: 83 b5 84 10  	ld	a1, 0x108(s1)
   11df2: f5 8f        	c.and	a5, a3
   11df4: 81 27        	c.addiw	a5, 0x0
   11df6: 99 ef        	c.bnez	a5, 0x11e14 <__call_exitprocs+0xcc>
   11df8: 5a 85        	c.mv	a0, s6
   11dfa: 02 97        	c.jalr	a4
   11dfc: 03 27 89 00  	lw	a4, 0x8(s2)
   11e00: 83 b7 01 90  	ld	a5, -0x700(gp)
   11e04: e3 08 87 fb  	beq	a4, s8, 0x11db4 <__call_exitprocs+0x6c>
   11e08: c5 df        	c.beqz	a5, 0x11dc0 <__call_exitprocs+0x78>
   11e0a: 3e 89        	c.mv	s2, a5
   11e0c: 8d b7        	c.j	0x11d6e <__call_exitprocs+0x26>
   11e0e: 23 24 89 00  	sw	s0, 0x8(s2)
   11e12: 41 b7        	c.j	0x11d92 <__call_exitprocs+0x4a>
   11e14: 2e 85        	c.mv	a0, a1
   11e16: 02 97        	c.jalr	a4
   11e18: 41 bf        	c.j	0x11da8 <__call_exitprocs+0x60>

0000000000011e1a <_malloc_trim_r>:
   11e1a: 79 71        	c.addi16sp	sp, -0x30
   11e1c: 4e e4        	c.sdsp	s3, 0x8(sp)
   11e1e: b7 19 02 00  	lui	s3, 0x21
   11e22: 22 f0        	c.sdsp	s0, 0x20(sp)
   11e24: 26 ec        	c.sdsp	s1, 0x18(sp)
   11e26: 4a e8        	c.sdsp	s2, 0x10(sp)
   11e28: 52 e0        	c.sdsp	s4, 0x0(sp)
   11e2a: 06 f4        	c.sdsp	ra, 0x28(sp)
   11e2c: 2e 8a        	c.mv	s4, a1
   11e2e: 2a 89        	c.mv	s2, a0
   11e30: 93 89 89 76  	addi	s3, s3, 0x768
   11e34: ef f0 af 95  	jal	ra, 0x10f8e <__malloc_lock>
   11e38: 03 b7 09 01  	ld	a4, 0x10(s3)
   11e3c: 85 67        	c.lui	a5, 0x1
   11e3e: 93 87 f7 fd  	addi	a5, a5, -0x21
   11e42: 04 67        	c.ld	s1, 0x8(a4)
   11e44: 05 67        	c.lui	a4, 0x1
   11e46: f1 98        	c.andi	s1, -0x4
   11e48: 33 84 f4 00  	add	s0, s1, a5
   11e4c: 33 04 44 41  	sub	s0, s0, s4
   11e50: 31 80        	c.srli	s0, 0xc
   11e52: 7d 14        	c.addi	s0, -0x1
   11e54: 32 04        	c.slli	s0, 0xc
   11e56: 63 4b e4 00  	blt	s0, a4, 0x11e6c <_malloc_trim_r+0x52>
   11e5a: 81 45        	c.li	a1, 0x0
   11e5c: 4a 85        	c.mv	a0, s2
   11e5e: ef f0 ff b6  	jal	ra, 0x119cc <_sbrk_r>
   11e62: 83 b7 09 01  	ld	a5, 0x10(s3)
   11e66: a6 97        	c.add	a5, s1
   11e68: 63 0e f5 00  	beq	a0, a5, 0x11e84 <_malloc_trim_r+0x6a>
   11e6c: 4a 85        	c.mv	a0, s2
   11e6e: ef f0 2f 92  	jal	ra, 0x10f90 <__malloc_unlock>
   11e72: a2 70        	c.ldsp	ra, 0x28(sp)
   11e74: 02 74        	c.ldsp	s0, 0x20(sp)
   11e76: e2 64        	c.ldsp	s1, 0x18(sp)
   11e78: 42 69        	c.ldsp	s2, 0x10(sp)
   11e7a: a2 69        	c.ldsp	s3, 0x8(sp)
   11e7c: 02 6a        	c.ldsp	s4, 0x0(sp)
   11e7e: 01 45        	c.li	a0, 0x0
   11e80: 45 61        	c.addi16sp	sp, 0x30
   11e82: 82 80        	c.jr	ra
   11e84: b3 05 80 40  	sub	a1, zero, s0
   11e88: 4a 85        	c.mv	a0, s2
   11e8a: ef f0 3f b4  	jal	ra, 0x119cc <_sbrk_r>
   11e8e: fd 57        	c.li	a5, -0x1
   11e90: 63 0b f5 02  	beq	a0, a5, 0x11ec6 <_malloc_trim_r+0xac>
   11e94: b7 37 02 00  	lui	a5, 0x23
   11e98: 93 87 07 7e  	addi	a5, a5, 0x7e0
   11e9c: 98 43        	c.lw	a4, 0x0(a5)
   11e9e: 83 b6 09 01  	ld	a3, 0x10(s3)
   11ea2: 81 8c        	c.sub	s1, s0
   11ea4: 93 e4 14 00  	ori	s1, s1, 0x1
   11ea8: 01 9f        	c.subw	a4, s0
   11eaa: 4a 85        	c.mv	a0, s2
   11eac: 84 e6        	c.sd	s1, 0x8(a3)
   11eae: 98 c3        	c.sw	a4, 0x0(a5)
   11eb0: ef f0 0f 8e  	jal	ra, 0x10f90 <__malloc_unlock>
   11eb4: a2 70        	c.ldsp	ra, 0x28(sp)
   11eb6: 02 74        	c.ldsp	s0, 0x20(sp)
   11eb8: e2 64        	c.ldsp	s1, 0x18(sp)
   11eba: 42 69        	c.ldsp	s2, 0x10(sp)
   11ebc: a2 69        	c.ldsp	s3, 0x8(sp)
   11ebe: 02 6a        	c.ldsp	s4, 0x0(sp)
   11ec0: 05 45        	c.li	a0, 0x1
   11ec2: 45 61        	c.addi16sp	sp, 0x30
   11ec4: 82 80        	c.jr	ra
   11ec6: 81 45        	c.li	a1, 0x0
   11ec8: 4a 85        	c.mv	a0, s2
   11eca: ef f0 3f b0  	jal	ra, 0x119cc <_sbrk_r>
   11ece: 03 b7 09 01  	ld	a4, 0x10(s3)
   11ed2: fd 46        	c.li	a3, 0x1f
   11ed4: b3 07 e5 40  	sub	a5, a0, a4
   11ed8: e3 da f6 f8  	bge	a3, a5, 0x11e6c <_malloc_trim_r+0x52>
   11edc: 83 b6 81 87  	ld	a3, -0x788(gp)
   11ee0: 93 e7 17 00  	ori	a5, a5, 0x1
   11ee4: 1c e7        	c.sd	a5, 0x8(a4)
   11ee6: 15 8d        	c.sub	a0, a3
   11ee8: b7 36 02 00  	lui	a3, 0x23
   11eec: 23 a0 a6 7e  	sw	a0, 0x7e0(a3)
   11ef0: b5 bf        	c.j	0x11e6c <_malloc_trim_r+0x52>

0000000000011ef2 <_free_r>:
   11ef2: 63 85 05 12  	beq	a1, zero, 0x1201c <_free_r+0x12a>
   11ef6: 01 11        	c.addi	sp, -0x20
   11ef8: 22 e8        	c.sdsp	s0, 0x10(sp)
   11efa: 26 e4        	c.sdsp	s1, 0x8(sp)
   11efc: 2e 84        	c.mv	s0, a1
   11efe: aa 84        	c.mv	s1, a0
   11f00: 06 ec        	c.sdsp	ra, 0x18(sp)
   11f02: ef f0 cf 88  	jal	ra, 0x10f8e <__malloc_lock>
   11f06: 03 35 84 ff  	ld	a0, -0x8(s0)
   11f0a: 13 07 04 ff  	addi	a4, s0, -0x10
   11f0e: b7 15 02 00  	lui	a1, 0x21
   11f12: 93 77 e5 ff  	andi	a5, a0, -0x2
   11f16: 33 06 f7 00  	add	a2, a4, a5
   11f1a: 93 85 85 76  	addi	a1, a1, 0x768
   11f1e: 14 66        	c.ld	a3, 0x8(a2)
   11f20: 03 b8 05 01  	ld	a6, 0x10(a1)
   11f24: f1 9a        	c.andi	a3, -0x4
   11f26: 63 0e c8 12  	beq	a6, a2, 0x12062 <_free_r+0x170>
   11f2a: 14 e6        	c.sd	a3, 0x8(a2)
   11f2c: 05 89        	c.andi	a0, 0x1
   11f2e: 33 08 d6 00  	add	a6, a2, a3
   11f32: 49 e1        	c.bnez	a0, 0x11fb4 <_free_r+0xc2>
   11f34: 03 33 04 ff  	ld	t1, -0x10(s0)
   11f38: 03 38 88 00  	ld	a6, 0x8(a6)
   11f3c: 37 15 02 00  	lui	a0, 0x21
   11f40: 33 07 67 40  	sub	a4, a4, t1
   11f44: 83 38 07 01  	ld	a7, 0x10(a4)
   11f48: 13 05 85 77  	addi	a0, a0, 0x778
   11f4c: 9a 97        	c.add	a5, t1
   11f4e: 13 78 18 00  	andi	a6, a6, 0x1
   11f52: 63 8b a8 0e  	beq	a7, a0, 0x12048 <_free_r+0x156>
   11f56: 03 33 87 01  	ld	t1, 0x18(a4)
   11f5a: 23 bc 68 00  	sd	t1, 0x18(a7)
   11f5e: 23 38 13 01  	sd	a7, 0x10(t1)
   11f62: 63 09 08 12  	beq	a6, zero, 0x12094 <_free_r+0x1a2>
   11f66: 93 e6 17 00  	ori	a3, a5, 0x1
   11f6a: 14 e7        	c.sd	a3, 0x8(a4)
   11f6c: 1c e2        	c.sd	a5, 0x0(a2)
   11f6e: 93 06 f0 1f  	addi	a3, zero, 0x1ff
   11f72: 63 ee f6 04  	bltu	a3, a5, 0x11fce <_free_r+0xdc>
   11f76: 8d 83        	c.srli	a5, 0x3
   11f78: 9b 86 17 00  	addiw	a3, a5, 0x1
   11f7c: 9b 96 16 00  	slliw	a3, a3, 0x1
   11f80: 8e 06        	c.slli	a3, 0x3
   11f82: 03 b8 85 00  	ld	a6, 0x8(a1)
   11f86: ae 96        	c.add	a3, a1
   11f88: 88 62        	c.ld	a0, 0x0(a3)
   11f8a: 1b d6 27 40  	sraiw	a2, a5, 0x2
   11f8e: 85 47        	c.li	a5, 0x1
   11f90: b3 97 c7 00  	sll	a5, a5, a2
   11f94: b3 e7 07 01  	or	a5, a5, a6
   11f98: 13 86 06 ff  	addi	a2, a3, -0x10
   11f9c: 10 ef        	c.sd	a2, 0x18(a4)
   11f9e: 08 eb        	c.sd	a0, 0x10(a4)
   11fa0: 9c e5        	c.sd	a5, 0x8(a1)
   11fa2: 98 e2        	c.sd	a4, 0x0(a3)
   11fa4: 18 ed        	c.sd	a4, 0x18(a0)
   11fa6: 42 64        	c.ldsp	s0, 0x10(sp)
   11fa8: e2 60        	c.ldsp	ra, 0x18(sp)
   11faa: 26 85        	c.mv	a0, s1
   11fac: a2 64        	c.ldsp	s1, 0x8(sp)
   11fae: 05 61        	c.addi16sp	sp, 0x20
   11fb0: 6f e0 1f fe  	jal	zero, 0x10f90 <__malloc_unlock>
   11fb4: 03 35 88 00  	ld	a0, 0x8(a6)
   11fb8: 05 89        	c.andi	a0, 0x1
   11fba: 35 c1        	c.beqz	a0, 0x1201e <_free_r+0x12c>
   11fbc: 93 e6 17 00  	ori	a3, a5, 0x1
   11fc0: 23 3c d4 fe  	sd	a3, -0x8(s0)
   11fc4: 1c e2        	c.sd	a5, 0x0(a2)
   11fc6: 93 06 f0 1f  	addi	a3, zero, 0x1ff
   11fca: e3 f6 f6 fa  	bgeu	a3, a5, 0x11f76 <_free_r+0x84>
   11fce: 93 d6 97 00  	srli	a3, a5, 0x9
   11fd2: 11 46        	c.li	a2, 0x4
   11fd4: 63 62 d6 0c  	bltu	a2, a3, 0x12098 <_free_r+0x1a6>
   11fd8: 93 d6 67 00  	srli	a3, a5, 0x6
   11fdc: 1b 85 96 03  	addiw	a0, a3, 0x39
   11fe0: 1b 15 15 00  	slliw	a0, a0, 0x1
   11fe4: 1b 86 86 03  	addiw	a2, a3, 0x38
   11fe8: 0e 05        	c.slli	a0, 0x3
   11fea: 2e 95        	c.add	a0, a1
   11fec: 14 61        	c.ld	a3, 0x0(a0)
   11fee: 41 15        	c.addi	a0, -0x10
   11ff0: 63 16 d5 00  	bne	a0, a3, 0x11ffc <_free_r+0x10a>
   11ff4: ed a0        	c.j	0x120de <_free_r+0x1ec>
   11ff6: 94 6a        	c.ld	a3, 0x10(a3)
   11ff8: 63 06 d5 00  	beq	a0, a3, 0x12004 <_free_r+0x112>
   11ffc: 90 66        	c.ld	a2, 0x8(a3)
   11ffe: 71 9a        	c.andi	a2, -0x4
   12000: e3 eb c7 fe  	bltu	a5, a2, 0x11ff6 <_free_r+0x104>
   12004: 88 6e        	c.ld	a0, 0x18(a3)
   12006: 08 ef        	c.sd	a0, 0x18(a4)
   12008: 14 eb        	c.sd	a3, 0x10(a4)
   1200a: 42 64        	c.ldsp	s0, 0x10(sp)
   1200c: 18 e9        	c.sd	a4, 0x10(a0)
   1200e: e2 60        	c.ldsp	ra, 0x18(sp)
   12010: 26 85        	c.mv	a0, s1
   12012: a2 64        	c.ldsp	s1, 0x8(sp)
   12014: 98 ee        	c.sd	a4, 0x18(a3)
   12016: 05 61        	c.addi16sp	sp, 0x20
   12018: 6f e0 9f f7  	jal	zero, 0x10f90 <__malloc_unlock>
   1201c: 82 80        	c.jr	ra
   1201e: 37 15 02 00  	lui	a0, 0x21
   12022: b6 97        	c.add	a5, a3
   12024: 13 05 85 77  	addi	a0, a0, 0x778
   12028: 14 6a        	c.ld	a3, 0x10(a2)
   1202a: 63 80 a6 0a  	beq	a3, a0, 0x120ca <_free_r+0x1d8>
   1202e: 03 38 86 01  	ld	a6, 0x18(a2)
   12032: 13 e5 17 00  	ori	a0, a5, 0x1
   12036: 33 06 f7 00  	add	a2, a4, a5
   1203a: 23 bc 06 01  	sd	a6, 0x18(a3)
   1203e: 23 38 d8 00  	sd	a3, 0x10(a6)
   12042: 08 e7        	c.sd	a0, 0x8(a4)
   12044: 1c e2        	c.sd	a5, 0x0(a2)
   12046: 25 b7        	c.j	0x11f6e <_free_r+0x7c>
   12048: 63 17 08 0e  	bne	a6, zero, 0x12136 <_free_r+0x244>
   1204c: 0c 6a        	c.ld	a1, 0x10(a2)
   1204e: 10 6e        	c.ld	a2, 0x18(a2)
   12050: be 96        	c.add	a3, a5
   12052: 93 e7 16 00  	ori	a5, a3, 0x1
   12056: 90 ed        	c.sd	a2, 0x18(a1)
   12058: 0c ea        	c.sd	a1, 0x10(a2)
   1205a: 1c e7        	c.sd	a5, 0x8(a4)
   1205c: 36 97        	c.add	a4, a3
   1205e: 14 e3        	c.sd	a3, 0x0(a4)
   12060: 99 b7        	c.j	0x11fa6 <_free_r+0xb4>
   12062: 05 89        	c.andi	a0, 0x1
   12064: be 96        	c.add	a3, a5
   12066: 09 e9        	c.bnez	a0, 0x12078 <_free_r+0x186>
   12068: 03 35 04 ff  	ld	a0, -0x10(s0)
   1206c: 09 8f        	c.sub	a4, a0
   1206e: 1c 6f        	c.ld	a5, 0x18(a4)
   12070: 10 6b        	c.ld	a2, 0x10(a4)
   12072: aa 96        	c.add	a3, a0
   12074: 1c ee        	c.sd	a5, 0x18(a2)
   12076: 90 eb        	c.sd	a2, 0x10(a5)
   12078: 13 e6 16 00  	ori	a2, a3, 0x1
   1207c: 83 b7 01 88  	ld	a5, -0x780(gp)
   12080: 10 e7        	c.sd	a2, 0x8(a4)
   12082: 98 e9        	c.sd	a4, 0x10(a1)
   12084: e3 e1 f6 f2  	bltu	a3, a5, 0x11fa6 <_free_r+0xb4>
   12088: 83 b5 81 8e  	ld	a1, -0x718(gp)
   1208c: 26 85        	c.mv	a0, s1
   1208e: ef f0 df d8  	jal	ra, 0x11e1a <_malloc_trim_r>
   12092: 11 bf        	c.j	0x11fa6 <_free_r+0xb4>
   12094: b6 97        	c.add	a5, a3
   12096: 49 bf        	c.j	0x12028 <_free_r+0x136>
   12098: 51 46        	c.li	a2, 0x14
   1209a: 63 70 d6 02  	bgeu	a2, a3, 0x120ba <_free_r+0x1c8>
   1209e: 13 06 40 05  	addi	a2, zero, 0x54
   120a2: 63 69 d6 04  	bltu	a2, a3, 0x120f4 <_free_r+0x202>
   120a6: 93 d6 c7 00  	srli	a3, a5, 0xc
   120aa: 1b 85 f6 06  	addiw	a0, a3, 0x6f
   120ae: 1b 15 15 00  	slliw	a0, a0, 0x1
   120b2: 1b 86 e6 06  	addiw	a2, a3, 0x6e
   120b6: 0e 05        	c.slli	a0, 0x3
   120b8: 0d bf        	c.j	0x11fea <_free_r+0xf8>
   120ba: 1b 85 c6 05  	addiw	a0, a3, 0x5c
   120be: 1b 15 15 00  	slliw	a0, a0, 0x1
   120c2: 1b 86 b6 05  	addiw	a2, a3, 0x5b
   120c6: 0e 05        	c.slli	a0, 0x3
   120c8: 0d b7        	c.j	0x11fea <_free_r+0xf8>
   120ca: 98 f5        	c.sd	a4, 0x28(a1)
   120cc: 98 f1        	c.sd	a4, 0x20(a1)
   120ce: 93 e6 17 00  	ori	a3, a5, 0x1
   120d2: 08 ef        	c.sd	a0, 0x18(a4)
   120d4: 08 eb        	c.sd	a0, 0x10(a4)
   120d6: 14 e7        	c.sd	a3, 0x8(a4)
   120d8: 3e 97        	c.add	a4, a5
   120da: 1c e3        	c.sd	a5, 0x0(a4)
   120dc: e9 b5        	c.j	0x11fa6 <_free_r+0xb4>
   120de: 03 b8 85 00  	ld	a6, 0x8(a1)
   120e2: 1b 56 26 40  	sraiw	a2, a2, 0x2
   120e6: 85 47        	c.li	a5, 0x1
   120e8: b3 97 c7 00  	sll	a5, a5, a2
   120ec: b3 e7 07 01  	or	a5, a5, a6
   120f0: 9c e5        	c.sd	a5, 0x8(a1)
   120f2: 11 bf        	c.j	0x12006 <_free_r+0x114>
   120f4: 13 06 40 15  	addi	a2, zero, 0x154
   120f8: 63 6c d6 00  	bltu	a2, a3, 0x12110 <_free_r+0x21e>
   120fc: 93 d6 f7 00  	srli	a3, a5, 0xf
   12100: 1b 85 86 07  	addiw	a0, a3, 0x78
   12104: 1b 15 15 00  	slliw	a0, a0, 0x1
   12108: 1b 86 76 07  	addiw	a2, a3, 0x77
   1210c: 0e 05        	c.slli	a0, 0x3
   1210e: f1 bd        	c.j	0x11fea <_free_r+0xf8>
   12110: 13 06 40 55  	addi	a2, zero, 0x554
   12114: 63 6c d6 00  	bltu	a2, a3, 0x1212c <_free_r+0x23a>
   12118: 93 d6 27 01  	srli	a3, a5, 0x12
   1211c: 1b 85 d6 07  	addiw	a0, a3, 0x7d
   12120: 1b 15 15 00  	slliw	a0, a0, 0x1
   12124: 1b 86 c6 07  	addiw	a2, a3, 0x7c
   12128: 0e 05        	c.slli	a0, 0x3
   1212a: c1 b5        	c.j	0x11fea <_free_r+0xf8>
   1212c: 13 05 00 7f  	addi	a0, zero, 0x7f0
   12130: 13 06 e0 07  	addi	a2, zero, 0x7e
   12134: 5d bd        	c.j	0x11fea <_free_r+0xf8>
   12136: 93 e6 17 00  	ori	a3, a5, 0x1
   1213a: 14 e7        	c.sd	a3, 0x8(a4)
   1213c: 1c e2        	c.sd	a5, 0x0(a2)
   1213e: a5 b5        	c.j	0x11fa6 <_free_r+0xb4>

0000000000012140 <_vfprintf_r>:
   12140: 13 01 01 db  	addi	sp, sp, -0x250
   12144: 23 34 11 24  	sd	ra, 0x248(sp)
   12148: 23 30 81 24  	sd	s0, 0x240(sp)
   1214c: 23 38 21 23  	sd	s2, 0x230(sp)
   12150: e6 ff        	c.sdsp	s9, 0x1f8(sp)
   12152: 2e 89        	c.mv	s2, a1
   12154: b2 8c        	c.mv	s9, a2
   12156: 36 f0        	c.sdsp	a3, 0x20(sp)
   12158: 2a 84        	c.mv	s0, a0
   1215a: 2a e4        	c.sdsp	a0, 0x8(sp)
   1215c: ef 30 20 64  	jal	ra, 0x1579e <_localeconv_r>
   12160: 1c 61        	c.ld	a5, 0x0(a0)
   12162: 3e 85        	c.mv	a0, a5
   12164: be ec        	c.sdsp	a5, 0x58(sp)
   12166: ef f0 7f ac  	jal	ra, 0x11c2c <strlen>
   1216a: aa e8        	c.sdsp	a0, 0x50(sp)
   1216c: 82 e9        	c.sdsp	zero, 0xd0(sp)
   1216e: 82 ed        	c.sdsp	zero, 0xd8(sp)
   12170: 09 c4        	c.beqz	s0, 0x1217a <_vfprintf_r+0x3a>
   12172: 38 64        	c.ld	a4, 0x48(s0)
   12174: 19 e3        	c.bnez	a4, 0x1217a <_vfprintf_r+0x3a>
   12176: 6f 10 e0 23  	jal	zero, 0x133b4 <_vfprintf_r+0x1274>
   1217a: 03 17 09 01  	lh	a4, 0x10(s2)
   1217e: 93 16 27 03  	slli	a3, a4, 0x32
   12182: 63 c1 06 02  	blt	a3, zero, 0x121a4 <_vfprintf_r+0x64>
   12186: 83 26 c9 0a  	lw	a3, 0xac(s2)
   1218a: 89 65        	c.lui	a1, 0x2
   1218c: 79 76        	c.lui	a2, 0xffffe
   1218e: 4d 8f        	c.or	a4, a1
   12190: 7d 16        	c.addi	a2, -0x1
   12192: 1b 17 07 01  	slliw	a4, a4, 0x10
   12196: 1b 57 07 41  	sraiw	a4, a4, 0x10
   1219a: f1 8e        	c.and	a3, a2
   1219c: 23 18 e9 00  	sh	a4, 0x10(s2)
   121a0: 23 26 d9 0a  	sw	a3, 0xac(s2)
   121a4: 93 76 87 00  	andi	a3, a4, 0x8
   121a8: 63 80 06 26  	beq	a3, zero, 0x12408 <_vfprintf_r+0x2c8>
   121ac: 83 36 89 01  	ld	a3, 0x18(s2)
   121b0: 63 8c 06 24  	beq	a3, zero, 0x12408 <_vfprintf_r+0x2c8>
   121b4: 69 8b        	c.andi	a4, 0x1a
   121b6: a9 46        	c.li	a3, 0xa
   121b8: 63 05 d7 26  	beq	a4, a3, 0x12422 <_vfprintf_r+0x2e2>
   121bc: 23 30 41 23  	sd	s4, 0x220(sp)
   121c0: 23 3c 51 21  	sd	s5, 0x218(sp)
   121c4: ea fb        	c.sdsp	s10, 0x1f0(sp)
   121c6: 37 07 02 00  	lui	a4, 0x20
   121ca: 23 3c 91 22  	sd	s1, 0x238(sp)
   121ce: 23 34 31 23  	sd	s3, 0x228(sp)
   121d2: 23 38 61 21  	sd	s6, 0x210(sp)
   121d6: 23 34 71 21  	sd	s7, 0x208(sp)
   121da: 23 30 81 21  	sd	s8, 0x200(sp)
   121de: ee f7        	c.sdsp	s11, 0x1e8(sp)
   121e0: 66 8d        	c.mv	s10, s9
   121e2: 93 07 07 e9  	addi	a5, a4, -0x170
   121e6: 03 47 0d 00  	lbu	a4, 0x0(s10)
   121ea: 13 0a 01 16  	addi	s4, sp, 0x160
   121ee: b7 0a 02 00  	lui	s5, 0x20
   121f2: d2 f1        	c.sdsp	s4, 0xe0(sp)
   121f4: 82 f9        	c.sdsp	zero, 0xf0(sp)
   121f6: 82 d5        	c.swsp	zero, 0xe8(sp)
   121f8: 02 fc        	c.sdsp	zero, 0x38(sp)
   121fa: 82 f0        	c.sdsp	zero, 0x60(sp)
   121fc: 82 f8        	c.sdsp	zero, 0x70(sp)
   121fe: 02 e1        	c.sdsp	zero, 0x80(sp)
   12200: 02 e5        	c.sdsp	zero, 0x88(sp)
   12202: 82 fc        	c.sdsp	zero, 0x78(sp)
   12204: 02 e8        	c.sdsp	zero, 0x10(sp)
   12206: 3e f4        	c.sdsp	a5, 0x28(sp)
   12208: 52 84        	c.mv	s0, s4
   1220a: 93 8a 0a 00  	addi	s5, s5, 0x0
   1220e: 63 01 07 1a  	beq	a4, zero, 0x123b0 <_vfprintf_r+0x270>
   12212: ea 89        	c.mv	s3, s10
   12214: 93 06 50 02  	addi	a3, zero, 0x25
   12218: 63 0d d7 2c  	beq	a4, a3, 0x124f2 <_vfprintf_r+0x3b2>
   1221c: 03 c7 19 00  	lbu	a4, 0x1(s3)
   12220: 85 09        	c.addi	s3, 0x1
   12222: 7d fb        	c.bnez	a4, 0x12218 <_vfprintf_r+0xd8>
   12224: bb 84 a9 41  	subw	s1, s3, s10
   12228: 63 84 04 18  	beq	s1, zero, 0x123b0 <_vfprintf_r+0x270>
   1222c: 2e 57        	c.lwsp	a4, 0xe8(sp)
   1222e: ce 76        	c.ldsp	a3, 0xf0(sp)
   12230: 23 30 a4 01  	sd	s10, 0x0(s0)
   12234: 05 27        	c.addiw	a4, 0x1
   12236: a6 96        	c.add	a3, s1
   12238: 04 e4        	c.sd	s1, 0x8(s0)
   1223a: b6 f9        	c.sdsp	a3, 0xf0(sp)
   1223c: ba d5        	c.swsp	a4, 0xe8(sp)
   1223e: 9b 06 07 00  	addiw	a3, a4, 0x0
   12242: 1d 47        	c.li	a4, 0x7
   12244: 41 04        	c.addi	s0, 0x10
   12246: 63 4d d7 2a  	blt	a4, a3, 0x12500 <_vfprintf_r+0x3c0>
   1224a: c2 67        	c.ldsp	a5, 0x10(sp)
   1224c: 03 c7 09 00  	lbu	a4, 0x0(s3)
   12250: a5 9f        	c.addw	a5, s1
   12252: 3e e8        	c.sdsp	a5, 0x10(sp)
   12254: 63 0e 07 14  	beq	a4, zero, 0x123b0 <_vfprintf_r+0x270>
   12258: 03 c3 19 00  	lbu	t1, 0x1(s3)
   1225c: a3 07 01 0a  	sb	zero, 0xaf(sp)
   12260: 85 09        	c.addi	s3, 0x1
   12262: 7d 5b        	c.li	s6, -0x1
   12264: 81 4b        	c.li	s7, 0x0
   12266: 81 4d        	c.li	s11, 0x0
   12268: 93 04 a0 05  	addi	s1, zero, 0x5a
   1226c: 85 09        	c.addi	s3, 0x1
   1226e: 01 23        	c.addiw	t1, 0x0
   12270: 9b 07 03 fe  	addiw	a5, t1, -0x20
   12274: 1b 87 07 00  	addiw	a4, a5, 0x0
   12278: 63 e5 e4 04  	bltu	s1, a4, 0x122c2 <_vfprintf_r+0x182>
   1227c: 13 97 07 02  	slli	a4, a5, 0x20
   12280: 93 57 e7 01  	srli	a5, a4, 0x1e
   12284: 22 77        	c.ldsp	a4, 0x28(sp)
   12286: ba 97        	c.add	a5, a4
   12288: 9c 43        	c.lw	a5, 0x0(a5)
   1228a: 82 87        	c.jr	a5
   1228c: 81 4b        	c.li	s7, 0x0
   1228e: a5 46        	c.li	a3, 0x9
   12290: 03 c7 09 00  	lbu	a4, 0x0(s3)
   12294: 9b 97 2b 00  	slliw	a5, s7, 0x2
   12298: bb 8b 77 01  	addw	s7, a5, s7
   1229c: 1b 03 03 fd  	addiw	t1, t1, -0x30
   122a0: 9b 9b 1b 00  	slliw	s7, s7, 0x1
   122a4: 9b 07 07 fd  	addiw	a5, a4, -0x30
   122a8: bb 0b 73 01  	addw	s7, t1, s7
   122ac: 85 09        	c.addi	s3, 0x1
   122ae: 1b 03 07 00  	addiw	t1, a4, 0x0
   122b2: e3 ff f6 fc  	bgeu	a3, a5, 0x12290 <_vfprintf_r+0x150>
   122b6: 9b 07 03 fe  	addiw	a5, t1, -0x20
   122ba: 1b 87 07 00  	addiw	a4, a5, 0x0
   122be: e3 ff e4 fa  	bgeu	s1, a4, 0x1227c <_vfprintf_r+0x13c>
   122c2: 63 07 03 0e  	beq	t1, zero, 0x123b0 <_vfprintf_r+0x270>
   122c6: 23 0c 61 0e  	sb	t1, 0xf8(sp)
   122ca: a3 07 01 0a  	sb	zero, 0xaf(sp)
   122ce: 05 4c        	c.li	s8, 0x1
   122d0: 85 46        	c.li	a3, 0x1
   122d2: 13 0d 81 0f  	addi	s10, sp, 0xf8
   122d6: 02 ec        	c.sdsp	zero, 0x18(sp)
   122d8: 01 4b        	c.li	s6, 0x0
   122da: 82 e4        	c.sdsp	zero, 0x48(sp)
   122dc: 82 e0        	c.sdsp	zero, 0x40(sp)
   122de: 02 f8        	c.sdsp	zero, 0x30(sp)
   122e0: 93 f2 2d 00  	andi	t0, s11, 0x2
   122e4: 63 83 02 00  	beq	t0, zero, 0x122ea <_vfprintf_r+0x1aa>
   122e8: 09 2c        	c.addiw	s8, 0x2
   122ea: 93 fc 4d 08  	andi	s9, s11, 0x84
   122ee: ce 74        	c.ldsp	s1, 0xf0(sp)
   122f0: 63 96 0c 00  	bne	s9, zero, 0x122fc <_vfprintf_r+0x1bc>
   122f4: 3b 87 8b 41  	subw	a4, s7, s8
   122f8: e3 4a e0 2e  	blt	zero, a4, 0x12dec <_vfprintf_r+0xcac>
   122fc: 03 47 f1 0a  	lbu	a4, 0xaf(sp)
   12300: 0d c3        	c.beqz	a4, 0x12322 <_vfprintf_r+0x1e2>
   12302: 2e 57        	c.lwsp	a4, 0xe8(sp)
   12304: 13 06 f1 0a  	addi	a2, sp, 0xaf
   12308: 10 e0        	c.sd	a2, 0x0(s0)
   1230a: 05 27        	c.addiw	a4, 0x1
   1230c: 05 46        	c.li	a2, 0x1
   1230e: 85 04        	c.addi	s1, 0x1
   12310: 10 e4        	c.sd	a2, 0x8(s0)
   12312: ba d5        	c.swsp	a4, 0xe8(sp)
   12314: 1b 06 07 00  	addiw	a2, a4, 0x0
   12318: a6 f9        	c.sdsp	s1, 0xf0(sp)
   1231a: 1d 47        	c.li	a4, 0x7
   1231c: 41 04        	c.addi	s0, 0x10
   1231e: 63 4c c7 4e  	blt	a4, a2, 0x12816 <_vfprintf_r+0x6d6>
   12322: 63 81 02 02  	beq	t0, zero, 0x12344 <_vfprintf_r+0x204>
   12326: 2e 57        	c.lwsp	a4, 0xe8(sp)
   12328: 09 46        	c.li	a2, 0x2
   1232a: 89 04        	c.addi	s1, 0x2
   1232c: 05 27        	c.addiw	a4, 0x1
   1232e: 1c 19        	c.addi4spn	a5, sp, 0xb0
   12330: 10 e4        	c.sd	a2, 0x8(s0)
   12332: 1c e0        	c.sd	a5, 0x0(s0)
   12334: 1b 06 07 00  	addiw	a2, a4, 0x0
   12338: ba d5        	c.swsp	a4, 0xe8(sp)
   1233a: a6 f9        	c.sdsp	s1, 0xf0(sp)
   1233c: 1d 47        	c.li	a4, 0x7
   1233e: 41 04        	c.addi	s0, 0x10
   12340: e3 46 c7 34  	blt	a4, a2, 0x12e8c <_vfprintf_r+0xd4c>
   12344: 13 07 00 08  	addi	a4, zero, 0x80
   12348: e3 80 ec 12  	beq	s9, a4, 0x12c68 <_vfprintf_r+0xb28>
   1234c: 3b 0b db 40  	subw	s6, s6, a3
   12350: e3 40 60 1d  	blt	zero, s6, 0x12d10 <_vfprintf_r+0xbd0>
   12354: 13 f7 0d 10  	andi	a4, s11, 0x100
   12358: e3 12 07 02  	bne	a4, zero, 0x12b7c <_vfprintf_r+0xa3c>
   1235c: 2e 57        	c.lwsp	a4, 0xe8(sp)
   1235e: b6 94        	c.add	s1, a3
   12360: 23 30 a4 01  	sd	s10, 0x0(s0)
   12364: 05 27        	c.addiw	a4, 0x1
   12366: 14 e4        	c.sd	a3, 0x8(s0)
   12368: a6 f9        	c.sdsp	s1, 0xf0(sp)
   1236a: ba d5        	c.swsp	a4, 0xe8(sp)
   1236c: 9d 47        	c.li	a5, 0x7
   1236e: 63 c0 e7 56  	blt	a5, a4, 0x128ce <_vfprintf_r+0x78e>
   12372: 41 04        	c.addi	s0, 0x10
   12374: 13 fe 4d 00  	andi	t3, s11, 0x4
   12378: 63 06 0e 00  	beq	t3, zero, 0x12384 <_vfprintf_r+0x244>
   1237c: 3b 8b 8b 41  	subw	s6, s7, s8
   12380: e3 44 60 33  	blt	zero, s6, 0x12ea8 <_vfprintf_r+0xd68>
   12384: de 87        	c.mv	a5, s7
   12386: 63 d3 8b 01  	bge	s7, s8, 0x1238c <_vfprintf_r+0x24c>
   1238a: e2 87        	c.mv	a5, s8
   1238c: 42 67        	c.ldsp	a4, 0x10(sp)
   1238e: b9 9f        	c.addw	a5, a4
   12390: 3e e8        	c.sdsp	a5, 0x10(sp)
   12392: e3 9d 04 20  	bne	s1, zero, 0x12dac <_vfprintf_r+0xc6c>
   12396: e2 67        	c.ldsp	a5, 0x18(sp)
   12398: 82 d5        	c.swsp	zero, 0xe8(sp)
   1239a: 89 c7        	c.beqz	a5, 0x123a4 <_vfprintf_r+0x264>
   1239c: e2 65        	c.ldsp	a1, 0x18(sp)
   1239e: 22 65        	c.ldsp	a0, 0x8(sp)
   123a0: ef f0 3f b5  	jal	ra, 0x11ef2 <_free_r>
   123a4: 52 84        	c.mv	s0, s4
   123a6: 4e 8d        	c.mv	s10, s3
   123a8: 03 47 0d 00  	lbu	a4, 0x0(s10)
   123ac: e3 13 07 e6  	bne	a4, zero, 0x12212 <_vfprintf_r+0xd2>
   123b0: ce 77        	c.ldsp	a5, 0xf0(sp)
   123b2: 99 c3        	c.beqz	a5, 0x123b8 <_vfprintf_r+0x278>
   123b4: 6f 10 a0 3c  	jal	zero, 0x1377e <_vfprintf_r+0x163e>
   123b8: 83 57 09 01  	lhu	a5, 0x10(s2)
   123bc: 83 34 81 23  	ld	s1, 0x238(sp)
   123c0: 83 39 81 22  	ld	s3, 0x228(sp)
   123c4: 93 f7 07 04  	andi	a5, a5, 0x40
   123c8: 03 3a 01 22  	ld	s4, 0x220(sp)
   123cc: 83 3a 81 21  	ld	s5, 0x218(sp)
   123d0: 03 3b 01 21  	ld	s6, 0x210(sp)
   123d4: 83 3b 81 20  	ld	s7, 0x208(sp)
   123d8: 03 3c 01 20  	ld	s8, 0x200(sp)
   123dc: 5e 7d        	c.ldsp	s10, 0x1f0(sp)
   123de: be 7d        	c.ldsp	s11, 0x1e8(sp)
   123e0: 99 c3        	c.beqz	a5, 0x123e6 <_vfprintf_r+0x2a6>
   123e2: 6f 10 40 6a  	jal	zero, 0x13a86 <_vfprintf_r+0x1946>
   123e6: 83 30 81 24  	ld	ra, 0x248(sp)
   123ea: 03 34 01 24  	ld	s0, 0x240(sp)
   123ee: 42 65        	c.ldsp	a0, 0x10(sp)
   123f0: 03 39 01 23  	ld	s2, 0x230(sp)
   123f4: fe 7c        	c.ldsp	s9, 0x1f8(sp)
   123f6: 13 01 01 25  	addi	sp, sp, 0x250
   123fa: 82 80        	c.jr	ra
   123fc: 93 ed 0d 01  	ori	s11, s11, 0x10
   12400: 03 c3 09 00  	lbu	t1, 0x0(s3)
   12404: 81 2d        	c.addiw	s11, 0x0
   12406: 9d b5        	c.j	0x1226c <_vfprintf_r+0x12c>
   12408: 22 65        	c.ldsp	a0, 0x8(sp)
   1240a: ca 85        	c.mv	a1, s2
   1240c: ef 20 50 7a  	jal	ra, 0x153b0 <__swsetup_r>
   12410: 19 c1        	c.beqz	a0, 0x12416 <_vfprintf_r+0x2d6>
   12412: 6f 10 40 67  	jal	zero, 0x13a86 <_vfprintf_r+0x1946>
   12416: 03 17 09 01  	lh	a4, 0x10(s2)
   1241a: a9 46        	c.li	a3, 0xa
   1241c: 69 8b        	c.andi	a4, 0x1a
   1241e: e3 1f d7 d8  	bne	a4, a3, 0x121bc <_vfprintf_r+0x7c>
   12422: 03 17 29 01  	lh	a4, 0x12(s2)
   12426: e3 4b 07 d8  	blt	a4, zero, 0x121bc <_vfprintf_r+0x7c>
   1242a: 82 76        	c.ldsp	a3, 0x20(sp)
   1242c: 22 65        	c.ldsp	a0, 0x8(sp)
   1242e: 66 86        	c.mv	a2, s9
   12430: ca 85        	c.mv	a1, s2
   12432: ef 10 b0 08  	jal	ra, 0x13cbc <__sbprintf>
   12436: 2a e8        	c.sdsp	a0, 0x10(sp)
   12438: 7d b7        	c.j	0x123e6 <_vfprintf_r+0x2a6>
   1243a: 13 ee 0d 01  	ori	t3, s11, 0x10
   1243e: 9b 0d 0e 00  	addiw	s11, t3, 0x0
   12442: 82 76        	c.ldsp	a3, 0x20(sp)
   12444: 93 f7 0d 02  	andi	a5, s11, 0x20
   12448: 13 87 86 00  	addi	a4, a3, 0x8
   1244c: 63 88 07 4a  	beq	a5, zero, 0x128fc <_vfprintf_r+0x7bc>
   12450: 9c 62        	c.ld	a5, 0x0(a3)
   12452: be 84        	c.mv	s1, a5
   12454: 63 c5 07 4c  	blt	a5, zero, 0x1291e <_vfprintf_r+0x7de>
   12458: e3 4f 0b 4c  	blt	s6, zero, 0x13136 <_vfprintf_r+0xff6>
   1245c: 93 fc fd f7  	andi	s9, s11, -0x81
   12460: 81 2c        	c.addiw	s9, 0x0
   12462: 99 c0        	c.beqz	s1, 0x12468 <_vfprintf_r+0x328>
   12464: 6f 00 70 79  	jal	zero, 0x133fa <_vfprintf_r+0x12ba>
   12468: 63 04 0b 00  	beq	s6, zero, 0x12470 <_vfprintf_r+0x330>
   1246c: 6f 10 e0 6a  	jal	zero, 0x13b1a <_vfprintf_r+0x19da>
   12470: 81 46        	c.li	a3, 0x0
   12472: 3a f0        	c.sdsp	a4, 0x20(sp)
   12474: e6 8d        	c.mv	s11, s9
   12476: 13 0d c1 15  	addi	s10, sp, 0x15c
   1247a: 03 47 f1 0a  	lbu	a4, 0xaf(sp)
   1247e: 5a 88        	c.mv	a6, s6
   12480: 63 53 db 00  	bge	s6, a3, 0x12486 <_vfprintf_r+0x346>
   12484: 36 88        	c.mv	a6, a3
   12486: 02 ec        	c.sdsp	zero, 0x18(sp)
   12488: 82 e4        	c.sdsp	zero, 0x48(sp)
   1248a: 82 e0        	c.sdsp	zero, 0x40(sp)
   1248c: 02 f8        	c.sdsp	zero, 0x30(sp)
   1248e: 1b 0c 08 00  	addiw	s8, a6, 0x0
   12492: e3 07 07 e4  	beq	a4, zero, 0x122e0 <_vfprintf_r+0x1a0>
   12496: 05 2c        	c.addiw	s8, 0x1
   12498: a1 b5        	c.j	0x122e0 <_vfprintf_r+0x1a0>
   1249a: 13 ee 0d 01  	ori	t3, s11, 0x10
   1249e: 9b 0d 0e 00  	addiw	s11, t3, 0x0
   124a2: 82 76        	c.ldsp	a3, 0x20(sp)
   124a4: 93 f7 0d 02  	andi	a5, s11, 0x20
   124a8: 13 87 86 00  	addi	a4, a3, 0x8
   124ac: 63 8b 07 42  	beq	a5, zero, 0x128e2 <_vfprintf_r+0x7a2>
   124b0: 84 62        	c.ld	s1, 0x0(a3)
   124b2: 93 fc fd bf  	andi	s9, s11, -0x401
   124b6: 81 2c        	c.addiw	s9, 0x0
   124b8: 3a f0        	c.sdsp	a4, 0x20(sp)
   124ba: 81 47        	c.li	a5, 0x0
   124bc: 01 47        	c.li	a4, 0x0
   124be: a3 07 e1 0a  	sb	a4, 0xaf(sp)
   124c2: 63 49 0b 46  	blt	s6, zero, 0x12934 <_vfprintf_r+0x7f4>
   124c6: 13 fe fc f7  	andi	t3, s9, -0x81
   124ca: 9b 0d 0e 00  	addiw	s11, t3, 0x0
   124ce: e3 9e 04 0e  	bne	s1, zero, 0x12dca <_vfprintf_r+0xc8a>
   124d2: 63 12 0b 76  	bne	s6, zero, 0x12c36 <_vfprintf_r+0xaf6>
   124d6: e3 94 07 3e  	bne	a5, zero, 0x130be <_vfprintf_r+0xf7e>
   124da: 93 f6 1c 00  	andi	a3, s9, 0x1
   124de: 13 0d c1 15  	addi	s10, sp, 0x15c
   124e2: c1 de        	c.beqz	a3, 0x1247a <_vfprintf_r+0x33a>
   124e4: 93 07 00 03  	addi	a5, zero, 0x30
   124e8: a3 0d f1 14  	sb	a5, 0x15b(sp)
   124ec: 13 0d b1 15  	addi	s10, sp, 0x15b
   124f0: 69 b7        	c.j	0x1247a <_vfprintf_r+0x33a>
   124f2: bb 84 a9 41  	subw	s1, s3, s10
   124f6: e3 9b 04 d2  	bne	s1, zero, 0x1222c <_vfprintf_r+0xec>
   124fa: 03 c7 09 00  	lbu	a4, 0x0(s3)
   124fe: 99 bb        	c.j	0x12254 <_vfprintf_r+0x114>
   12500: 22 65        	c.ldsp	a0, 0x8(sp)
   12502: 90 11        	c.addi4spn	a2, sp, 0xe0
   12504: ca 85        	c.mv	a1, s2
   12506: ef 10 10 11  	jal	ra, 0x13e16 <__sprint_r>
   1250a: e3 17 05 ea  	bne	a0, zero, 0x123b8 <_vfprintf_r+0x278>
   1250e: 52 84        	c.mv	s0, s4
   12510: 2d bb        	c.j	0x1224a <_vfprintf_r+0x10a>
   12512: 13 f7 8d 00  	andi	a4, s11, 0x8
   12516: e3 12 07 40  	bne	a4, zero, 0x1311a <_vfprintf_r+0xfda>
   1251a: 82 77        	c.ldsp	a5, 0x20(sp)
   1251c: 1a ec        	c.sdsp	t1, 0x18(sp)
   1251e: 88 23        	c.fld	fa0, 0x0(a5)
   12520: 13 8c 87 00  	addi	s8, a5, 0x8
   12524: ef 70 e0 2a  	jal	ra, 0x197d2 <__extenddftf2>
   12528: 62 63        	c.ldsp	t1, 0x18(sp)
   1252a: 2a 87        	c.mv	a4, a0
   1252c: 62 f0        	c.sdsp	s8, 0x20(sp)
   1252e: 88 09        	c.addi4spn	a0, sp, 0xd0
   12530: 1a ec        	c.sdsp	t1, 0x18(sp)
   12532: ba e9        	c.sdsp	a4, 0xd0(sp)
   12534: ae ed        	c.sdsp	a1, 0xd8(sp)
   12536: ef 30 a0 70  	jal	ra, 0x15c40 <_ldcheck>
   1253a: 2a dd        	c.swsp	a0, 0xb8(sp)
   1253c: 09 47        	c.li	a4, 0x2
   1253e: 62 63        	c.ldsp	t1, 0x18(sp)
   12540: e3 0f e5 6a  	beq	a0, a4, 0x133fe <_vfprintf_r+0x12be>
   12544: 05 47        	c.li	a4, 0x1
   12546: 63 14 e5 00  	bne	a0, a4, 0x1254e <_vfprintf_r+0x40e>
   1254a: 6f 00 b0 7d  	jal	zero, 0x13524 <_vfprintf_r+0x13e4>
   1254e: 13 07 10 06  	addi	a4, zero, 0x61
   12552: e3 0e e3 56  	beq	t1, a4, 0x132ce <_vfprintf_r+0x118e>
   12556: 13 07 10 04  	addi	a4, zero, 0x41
   1255a: 93 07 80 05  	addi	a5, zero, 0x58
   1255e: e3 0a e3 56  	beq	t1, a4, 0x132d2 <_vfprintf_r+0x1192>
   12562: 7d 57        	c.li	a4, -0x1
   12564: 63 14 eb 00  	bne	s6, a4, 0x1256c <_vfprintf_r+0x42c>
   12568: 6f 10 e0 58  	jal	zero, 0x13af6 <_vfprintf_r+0x19b6>
   1256c: 13 77 f3 fd  	andi	a4, t1, -0x21
   12570: 93 06 70 04  	addi	a3, zero, 0x47
   12574: 02 ec        	c.sdsp	zero, 0x18(sp)
   12576: 63 14 d7 00  	bne	a4, a3, 0x1257e <_vfprintf_r+0x43e>
   1257a: 6f 10 40 58  	jal	zero, 0x13afe <_vfprintf_r+0x19be>
   1257e: ce 67        	c.ldsp	a5, 0xd0(sp)
   12580: ee 6c        	c.ldsp	s9, 0xd8(sp)
   12582: 13 e7 0d 10  	ori	a4, s11, 0x100
   12586: 3e f8        	c.sdsp	a5, 0x30(sp)
   12588: 82 f4        	c.sdsp	zero, 0x68(sp)
   1258a: 9b 04 07 00  	addiw	s1, a4, 0x0
   1258e: 63 d4 0c 00  	bge	s9, zero, 0x12596 <_vfprintf_r+0x456>
   12592: 6f 10 a0 39  	jal	zero, 0x1392c <_vfprintf_r+0x17ec>
   12596: 9b 06 f3 fb  	addiw	a3, t1, -0x41
   1259a: 13 07 50 02  	addi	a4, zero, 0x25
   1259e: 63 74 d7 00  	bgeu	a4, a3, 0x125a6 <_vfprintf_r+0x466>
   125a2: 6f 10 e0 3e  	jal	zero, 0x13990 <_vfprintf_r+0x1850>
   125a6: 05 47        	c.li	a4, 0x1
   125a8: 05 4c        	c.li	s8, 0x1
   125aa: 16 17        	c.slli	a4, 0x25
   125ac: b3 16 dc 00  	sll	a3, s8, a3
   125b0: 13 07 07 02  	addi	a4, a4, 0x20
   125b4: 75 8f        	c.and	a4, a3
   125b6: 19 c3        	c.beqz	a4, 0x125bc <_vfprintf_r+0x47c>
   125b8: 6f 10 00 29  	jal	zero, 0x13848 <_vfprintf_r+0x1708>
   125bc: 05 47        	c.li	a4, 0x1
   125be: 12 17        	c.slli	a4, 0x24
   125c0: 41 07        	c.addi	a4, 0x10
   125c2: 75 8f        	c.and	a4, a3
   125c4: 19 c3        	c.beqz	a4, 0x125ca <_vfprintf_r+0x48a>
   125c6: 6f 10 e0 4c  	jal	zero, 0x13a94 <_vfprintf_r+0x1954>
   125ca: 05 47        	c.li	a4, 0x1
   125cc: 02 17        	c.slli	a4, 0x20
   125ce: 05 07        	c.addi	a4, 0x1
   125d0: f9 8e        	c.and	a3, a4
   125d2: 1a fc        	c.sdsp	t1, 0x38(sp)
   125d4: 99 e2        	c.bnez	a3, 0x125da <_vfprintf_r+0x49a>
   125d6: 6f 10 c0 1f  	jal	zero, 0x137d2 <_vfprintf_r+0x1692>
   125da: 42 75        	c.ldsp	a0, 0x30(sp)
   125dc: 30 19        	c.addi4spn	a2, sp, 0xb8
   125de: e6 85        	c.mv	a1, s9
   125e0: ef 30 a0 43  	jal	ra, 0x15a1a <frexpl>
   125e4: b7 f6 ff 00  	lui	a3, 0xfff
   125e8: 01 46        	c.li	a2, 0x0
   125ea: 9a 16        	c.slli	a3, 0x26
   125ec: ef 60 c0 2b  	jal	ra, 0x188a8 <__multf3>
   125f0: 01 46        	c.li	a2, 0x0
   125f2: 81 46        	c.li	a3, 0x0
   125f4: aa 8c        	c.mv	s9, a0
   125f6: ae 84        	c.mv	s1, a1
   125f8: ef 60 c0 0c  	jal	ra, 0x186c4 <__netf2>
   125fc: 62 73        	c.ldsp	t1, 0x38(sp)
   125fe: 11 e1        	c.bnez	a0, 0x12602 <_vfprintf_r+0x4c2>
   12600: 62 dd        	c.swsp	s8, 0xb8(sp)
   12602: 13 07 10 06  	addi	a4, zero, 0x61
   12606: 63 14 e3 00  	bne	t1, a4, 0x1260e <_vfprintf_r+0x4ce>
   1260a: 6f 10 60 61  	jal	zero, 0x13c20 <_vfprintf_r+0x1ae0>
   1260e: 37 07 02 00  	lui	a4, 0x20
   12612: 93 07 07 d8  	addi	a5, a4, -0x280
   12616: 3e f8        	c.sdsp	a5, 0x30(sp)
   12618: 13 17 0b 02  	slli	a4, s6, 0x20
   1261c: 01 93        	c.srli	a4, 0x20
   1261e: 05 07        	c.addi	a4, 0x1
   12620: b7 36 00 04  	lui	a3, 0x4003
   12624: 1b 08 0b 00  	addiw	a6, s6, 0x0
   12628: b3 07 ed 00  	add	a5, s10, a4
   1262c: 92 16        	c.slli	a3, 0x24
   1262e: 4e fc        	c.sdsp	s3, 0x38(sp)
   12630: a2 f8        	c.sdsp	s0, 0x70(sp)
   12632: 4a 8c        	c.mv	s8, s2
   12634: 42 7b        	c.ldsp	s6, 0x30(sp)
   12636: 9a e0        	c.sdsp	t1, 0x40(sp)
   12638: de e4        	c.sdsp	s7, 0x48(sp)
   1263a: 42 e9        	c.sdsp	a6, 0x90(sp)
   1263c: ea 89        	c.mv	s3, s10
   1263e: 3e 89        	c.mv	s2, a5
   12640: 36 84        	c.mv	s0, a3
   12642: 01 a8        	c.j	0x12652 <_vfprintf_r+0x512>
   12644: 01 46        	c.li	a2, 0x0
   12646: 81 46        	c.li	a3, 0x0
   12648: ef 60 c0 07  	jal	ra, 0x186c4 <__netf2>
   1264c: 19 e1        	c.bnez	a0, 0x12652 <_vfprintf_r+0x512>
   1264e: 6f 10 20 59  	jal	zero, 0x13be0 <_vfprintf_r+0x1aa0>
   12652: 01 46        	c.li	a2, 0x0
   12654: a2 86        	c.mv	a3, s0
   12656: 66 85        	c.mv	a0, s9
   12658: a6 85        	c.mv	a1, s1
   1265a: ef 60 e0 24  	jal	ra, 0x188a8 <__multf3>
   1265e: ae 84        	c.mv	s1, a1
   12660: aa 8c        	c.mv	s9, a0
   12662: ef 70 40 08  	jal	ra, 0x196e6 <__fixtfsi>
   12666: 9b 0b 05 00  	addiw	s7, a0, 0x0
   1266a: ef 70 20 11  	jal	ra, 0x1977c <__floatsitf>
   1266e: ae 86        	c.mv	a3, a1
   12670: 2a 86        	c.mv	a2, a0
   12672: a6 85        	c.mv	a1, s1
   12674: 66 85        	c.mv	a0, s9
   12676: ef 60 90 02  	jal	ra, 0x18e9e <__subtf3>
   1267a: b3 06 7b 01  	add	a3, s6, s7
   1267e: 83 c6 06 00  	lbu	a3, 0x0(a3)
   12682: ce 88        	c.mv	a7, s3
   12684: 85 09        	c.addi	s3, 0x1
   12686: a3 8f d9 fe  	sb	a3, -0x1(s3)
   1268a: aa 8c        	c.mv	s9, a0
   1268c: ae 84        	c.mv	s1, a1
   1268e: e3 1b 39 fb  	bne	s2, s3, 0x12644 <_vfprintf_r+0x504>
   12692: 06 63        	c.ldsp	t1, 0x40(sp)
   12694: b7 f6 ff 01  	lui	a3, 0x1fff
   12698: 96 16        	c.slli	a3, 0x25
   1269a: 01 46        	c.li	a2, 0x0
   1269c: 1a e9        	c.sdsp	t1, 0x90(sp)
   1269e: c6 e0        	c.sdsp	a7, 0x40(sp)
   126a0: 5e 8b        	c.mv	s6, s7
   126a2: a6 6b        	c.ldsp	s7, 0x48(sp)
   126a4: b6 e4        	c.sdsp	a3, 0x48(sp)
   126a6: ef 60 60 0c  	jal	ra, 0x1876c <__gttf2>
   126aa: 62 89        	c.mv	s2, s8
   126ac: 46 74        	c.ldsp	s0, 0x70(sp)
   126ae: 4e 8c        	c.mv	s8, s3
   126b0: 86 68        	c.ldsp	a7, 0x40(sp)
   126b2: e2 79        	c.ldsp	s3, 0x38(sp)
   126b4: 4a 63        	c.ldsp	t1, 0x90(sp)
   126b6: 63 40 a0 02  	blt	zero, a0, 0x126d6 <_vfprintf_r+0x596>
   126ba: a6 66        	c.ldsp	a3, 0x48(sp)
   126bc: 01 46        	c.li	a2, 0x0
   126be: 66 85        	c.mv	a0, s9
   126c0: a6 85        	c.mv	a1, s1
   126c2: 1a fc        	c.sdsp	t1, 0x38(sp)
   126c4: ef 60 00 00  	jal	ra, 0x186c4 <__netf2>
   126c8: 62 73        	c.ldsp	t1, 0x38(sp)
   126ca: 39 e5        	c.bnez	a0, 0x12718 <_vfprintf_r+0x5d8>
   126cc: 13 7b 1b 00  	andi	s6, s6, 0x1
   126d0: 86 68        	c.ldsp	a7, 0x40(sp)
   126d2: 63 03 0b 04  	beq	s6, zero, 0x12718 <_vfprintf_r+0x5d8>
   126d6: c2 77        	c.ldsp	a5, 0x30(sp)
   126d8: c6 e5        	c.sdsp	a7, 0xc8(sp)
   126da: 03 46 fc ff  	lbu	a2, -0x1(s8)
   126de: 83 c5 f7 00  	lbu	a1, 0xf(a5)
   126e2: e2 86        	c.mv	a3, s8
   126e4: 63 1e b6 00  	bne	a2, a1, 0x12700 <_vfprintf_r+0x5c0>
   126e8: 13 05 00 03  	addi	a0, zero, 0x30
   126ec: a3 8f a6 fe  	sb	a0, -0x1(a3)
   126f0: ae 66        	c.ldsp	a3, 0xc8(sp)
   126f2: 93 87 f6 ff  	addi	a5, a3, -0x1
   126f6: be e5        	c.sdsp	a5, 0xc8(sp)
   126f8: 03 c6 f6 ff  	lbu	a2, -0x1(a3)
   126fc: e3 88 c5 fe  	beq	a1, a2, 0x126ec <_vfprintf_r+0x5ac>
   12700: 9b 05 16 00  	addiw	a1, a2, 0x1
   12704: 13 05 90 03  	addi	a0, zero, 0x39
   12708: 93 f5 f5 0f  	andi	a1, a1, 0xff
   1270c: 63 14 a6 00  	bne	a2, a0, 0x12714 <_vfprintf_r+0x5d4>
   12710: 6f 10 a0 11  	jal	zero, 0x1382a <_vfprintf_r+0x16ea>
   12714: a3 8f b6 fe  	sb	a1, -0x1(a3)
   12718: e2 86        	c.mv	a3, s8
   1271a: ea 57        	c.lwsp	a5, 0xb8(sp)
   1271c: 3b 87 a6 41  	subw	a4, a3, s10
   12720: 3a fc        	c.sdsp	a4, 0x38(sp)
   12722: 1b 87 f7 ff  	addiw	a4, a5, -0x1
   12726: 3e f8        	c.sdsp	a5, 0x30(sp)
   12728: 13 06 10 06  	addi	a2, zero, 0x61
   1272c: 3a dd        	c.swsp	a4, 0xb8(sp)
   1272e: 63 14 c3 00  	bne	t1, a2, 0x12736 <_vfprintf_r+0x5f6>
   12732: 6f 10 c0 4f  	jal	zero, 0x13c2e <_vfprintf_r+0x1aee>
   12736: 13 06 10 04  	addi	a2, zero, 0x41
   1273a: 93 06 00 05  	addi	a3, zero, 0x50
   1273e: 63 04 c3 00  	beq	t1, a2, 0x12746 <_vfprintf_r+0x606>
   12742: 6f 10 e0 0d  	jal	zero, 0x13820 <_vfprintf_r+0x16e0>
   12746: 05 46        	c.li	a2, 0x1
   12748: 23 00 d1 0c  	sb	a3, 0xc0(sp)
   1274c: 93 06 b0 02  	addi	a3, zero, 0x2b
   12750: 63 57 07 00  	bge	a4, zero, 0x1275e <_vfprintf_r+0x61e>
   12754: c2 77        	c.ldsp	a5, 0x30(sp)
   12756: 05 47        	c.li	a4, 0x1
   12758: 93 06 d0 02  	addi	a3, zero, 0x2d
   1275c: 1d 9f        	c.subw	a4, a5
   1275e: a3 00 d1 0c  	sb	a3, 0xc1(sp)
   12762: a5 46        	c.li	a3, 0x9
   12764: 63 c4 e6 00  	blt	a3, a4, 0x1276c <_vfprintf_r+0x62c>
   12768: 6f 10 40 36  	jal	zero, 0x13acc <_vfprintf_r+0x198c>
   1276c: 93 08 f1 0c  	addi	a7, sp, 0xcf
   12770: 46 85        	c.mv	a0, a7
   12772: 29 48        	c.li	a6, 0xa
   12774: 13 0f 30 06  	addi	t5, zero, 0x63
   12778: bb 67 07 03  	remw	a5, a4, a6
   1277c: aa 86        	c.mv	a3, a0
   1277e: 3a 86        	c.mv	a2, a4
   12780: 7d 15        	c.addi	a0, -0x1
   12782: 9b 87 07 03  	addiw	a5, a5, 0x30
   12786: a3 8f f6 fe  	sb	a5, -0x1(a3)
   1278a: 3b 47 07 03  	divw	a4, a4, a6
   1278e: e3 45 cf fe  	blt	t5, a2, 0x12778 <_vfprintf_r+0x638>
   12792: 9b 05 07 03  	addiw	a1, a4, 0x30
   12796: a3 0f b5 fe  	sb	a1, -0x1(a0)
   1279a: 13 87 e6 ff  	addi	a4, a3, -0x2
   1279e: 63 64 17 01  	bltu	a4, a7, 0x127a6 <_vfprintf_r+0x666>
   127a2: 6f 10 c0 4c  	jal	zero, 0x13c6e <_vfprintf_r+0x1b2e>
   127a6: 13 06 21 0c  	addi	a2, sp, 0xc2
   127aa: 83 47 07 00  	lbu	a5, 0x0(a4)
   127ae: 05 07        	c.addi	a4, 0x1
   127b0: 05 06        	c.addi	a2, 0x1
   127b2: a3 0f f6 fe  	sb	a5, -0x1(a2)
   127b6: e3 1a 17 ff  	bne	a4, a7, 0x127aa <_vfprintf_r+0x66a>
   127ba: 9c 13        	c.addi4spn	a5, sp, 0x1e0
   127bc: b3 86 d7 40  	sub	a3, a5, a3
   127c0: 9b 87 36 ef  	addiw	a5, a3, -0x10d
   127c4: be f8        	c.sdsp	a5, 0x70(sp)
   127c6: 46 77        	c.ldsp	a4, 0x70(sp)
   127c8: e2 77        	c.ldsp	a5, 0x38(sp)
   127ca: 05 46        	c.li	a2, 0x1
   127cc: bb 86 e7 00  	addw	a3, a5, a4
   127d0: 36 87        	c.mv	a4, a3
   127d2: 63 44 f6 00  	blt	a2, a5, 0x127da <_vfprintf_r+0x69a>
   127d6: 6f 10 60 33  	jal	zero, 0x13b0c <_vfprintf_r+0x19cc>
   127da: c6 67        	c.ldsp	a5, 0x50(sp)
   127dc: bb 06 f7 00  	addw	a3, a4, a5
   127e0: 13 c8 f6 ff  	xori	a6, a3, -0x1
   127e4: 13 fe fd bf  	andi	t3, s11, -0x401
   127e8: 13 58 f8 43  	srai	a6, a6, 0x3f
   127ec: 01 2e        	c.addiw	t3, 0x0
   127ee: 33 f8 06 01  	and	a6, a3, a6
   127f2: 93 6d 0e 10  	ori	s11, t3, 0x100
   127f6: 1b 0c 08 00  	addiw	s8, a6, 0x0
   127fa: 82 e4        	c.sdsp	zero, 0x48(sp)
   127fc: 82 e0        	c.sdsp	zero, 0x40(sp)
   127fe: 02 f8        	c.sdsp	zero, 0x30(sp)
   12800: a6 77        	c.ldsp	a5, 0x68(sp)
   12802: 99 e3        	c.bnez	a5, 0x12808 <_vfprintf_r+0x6c8>
   12804: 6f 10 40 03  	jal	zero, 0x13838 <_vfprintf_r+0x16f8>
   12808: 13 07 d0 02  	addi	a4, zero, 0x2d
   1280c: a3 07 e1 0a  	sb	a4, 0xaf(sp)
   12810: 01 4b        	c.li	s6, 0x0
   12812: 05 2c        	c.addiw	s8, 0x1
   12814: f1 b4        	c.j	0x122e0 <_vfprintf_r+0x1a0>
   12816: 22 65        	c.ldsp	a0, 0x8(sp)
   12818: 90 11        	c.addi4spn	a2, sp, 0xe0
   1281a: ca 85        	c.mv	a1, s2
   1281c: 36 ed        	c.sdsp	a3, 0x98(sp)
   1281e: 1a e9        	c.sdsp	t1, 0x90(sp)
   12820: 96 f4        	c.sdsp	t0, 0x68(sp)
   12822: ef 10 40 5f  	jal	ra, 0x13e16 <__sprint_r>
   12826: 63 1a 05 58  	bne	a0, zero, 0x12dba <_vfprintf_r+0xc7a>
   1282a: ce 74        	c.ldsp	s1, 0xf0(sp)
   1282c: ea 66        	c.ldsp	a3, 0x98(sp)
   1282e: 4a 63        	c.ldsp	t1, 0x90(sp)
   12830: a6 72        	c.ldsp	t0, 0x68(sp)
   12832: 52 84        	c.mv	s0, s4
   12834: fd b4        	c.j	0x12322 <_vfprintf_r+0x1e2>
   12836: 2e 57        	c.lwsp	a4, 0xe8(sp)
   12838: e2 77        	c.ldsp	a5, 0x38(sp)
   1283a: 85 46        	c.li	a3, 0x1
   1283c: 1b 0b 17 00  	addiw	s6, a4, 0x1
   12840: 23 30 a4 01  	sd	s10, 0x0(s0)
   12844: 85 04        	c.addi	s1, 0x1
   12846: 5a 87        	c.mv	a4, s6
   12848: 93 0c 04 01  	addi	s9, s0, 0x10
   1284c: 63 db f6 7c  	bge	a3, a5, 0x13022 <_vfprintf_r+0xee2>
   12850: 85 46        	c.li	a3, 0x1
   12852: ba d5        	c.swsp	a4, 0xe8(sp)
   12854: 14 e4        	c.sd	a3, 0x8(s0)
   12856: a6 f9        	c.sdsp	s1, 0xf0(sp)
   12858: 1d 47        	c.li	a4, 0x7
   1285a: e3 41 67 2d  	blt	a4, s6, 0x1331c <_vfprintf_r+0x11dc>
   1285e: c6 67        	c.ldsp	a5, 0x50(sp)
   12860: e6 66        	c.ldsp	a3, 0x58(sp)
   12862: 05 2b        	c.addiw	s6, 0x1
   12864: be 94        	c.add	s1, a5
   12866: 23 b0 dc 00  	sd	a3, 0x0(s9)
   1286a: 23 b4 fc 00  	sd	a5, 0x8(s9)
   1286e: a6 f9        	c.sdsp	s1, 0xf0(sp)
   12870: da d5        	c.swsp	s6, 0xe8(sp)
   12872: 1d 47        	c.li	a4, 0x7
   12874: c1 0c        	c.addi	s9, 0x10
   12876: e3 4f 67 2b  	blt	a4, s6, 0x13334 <_vfprintf_r+0x11f4>
   1287a: e2 77        	c.ldsp	a5, 0x38(sp)
   1287c: 4e 65        	c.ldsp	a0, 0xd0(sp)
   1287e: ee 65        	c.ldsp	a1, 0xd8(sp)
   12880: 01 46        	c.li	a2, 0x0
   12882: 81 46        	c.li	a3, 0x0
   12884: 1b 84 f7 ff  	addiw	s0, a5, -0x1
   12888: ef 50 d0 63  	jal	ra, 0x186c4 <__netf2>
   1288c: 63 00 05 7c  	beq	a0, zero, 0x1304c <_vfprintf_r+0xf0c>
   12890: 93 07 1d 00  	addi	a5, s10, 0x1
   12894: 05 2b        	c.addiw	s6, 0x1
   12896: a2 94        	c.add	s1, s0
   12898: 23 b0 fc 00  	sd	a5, 0x0(s9)
   1289c: 23 b4 8c 00  	sd	s0, 0x8(s9)
   128a0: a6 f9        	c.sdsp	s1, 0xf0(sp)
   128a2: da d5        	c.swsp	s6, 0xe8(sp)
   128a4: 9d 47        	c.li	a5, 0x7
   128a6: 63 c8 67 79  	blt	a5, s6, 0x13036 <_vfprintf_r+0xef6>
   128aa: c1 0c        	c.addi	s9, 0x10
   128ac: 46 77        	c.ldsp	a4, 0x70(sp)
   128ae: 05 2b        	c.addiw	s6, 0x1
   128b0: 9c 01        	c.addi4spn	a5, sp, 0xc0
   128b2: ba 94        	c.add	s1, a4
   128b4: 23 b0 fc 00  	sd	a5, 0x0(s9)
   128b8: 23 b4 ec 00  	sd	a4, 0x8(s9)
   128bc: a6 f9        	c.sdsp	s1, 0xf0(sp)
   128be: 1b 07 0b 00  	addiw	a4, s6, 0x0
   128c2: da d5        	c.swsp	s6, 0xe8(sp)
   128c4: 9d 47        	c.li	a5, 0x7
   128c6: 13 84 0c 01  	addi	s0, s9, 0x10
   128ca: e3 d5 e7 aa  	bge	a5, a4, 0x12374 <_vfprintf_r+0x234>
   128ce: 22 65        	c.ldsp	a0, 0x8(sp)
   128d0: 90 11        	c.addi4spn	a2, sp, 0xe0
   128d2: ca 85        	c.mv	a1, s2
   128d4: ef 10 20 54  	jal	ra, 0x13e16 <__sprint_r>
   128d8: 63 11 05 4e  	bne	a0, zero, 0x12dba <_vfprintf_r+0xc7a>
   128dc: ce 74        	c.ldsp	s1, 0xf0(sp)
   128de: 52 84        	c.mv	s0, s4
   128e0: 51 bc        	c.j	0x12374 <_vfprintf_r+0x234>
   128e2: 93 f7 0d 01  	andi	a5, s11, 0x10
   128e6: e3 96 07 02  	bne	a5, zero, 0x13112 <_vfprintf_r+0xfd2>
   128ea: 82 76        	c.ldsp	a3, 0x20(sp)
   128ec: 93 f7 0d 04  	andi	a5, s11, 0x40
   128f0: 84 42        	c.lw	s1, 0x0(a3)
   128f2: e3 85 07 3e  	beq	a5, zero, 0x134dc <_vfprintf_r+0x139c>
   128f6: c2 14        	c.slli	s1, 0x30
   128f8: c1 90        	c.srli	s1, 0x30
   128fa: 65 be        	c.j	0x124b2 <_vfprintf_r+0x372>
   128fc: 93 f7 0d 01  	andi	a5, s11, 0x10
   12900: 63 9e 07 7c  	bne	a5, zero, 0x130dc <_vfprintf_r+0xf9c>
   12904: 82 76        	c.ldsp	a3, 0x20(sp)
   12906: 93 f7 0d 04  	andi	a5, s11, 0x40
   1290a: 84 42        	c.lw	s1, 0x0(a3)
   1290c: e3 80 07 3e  	beq	a5, zero, 0x134ec <_vfprintf_r+0x13ac>
   12910: 9b 94 04 01  	slliw	s1, s1, 0x10
   12914: 9b d4 04 41  	sraiw	s1, s1, 0x10
   12918: a6 87        	c.mv	a5, s1
   1291a: e3 df 07 b2  	bge	a5, zero, 0x12458 <_vfprintf_r+0x318>
   1291e: 3a f0        	c.sdsp	a4, 0x20(sp)
   12920: 13 07 d0 02  	addi	a4, zero, 0x2d
   12924: a3 07 e1 0a  	sb	a4, 0xaf(sp)
   12928: b3 04 90 40  	sub	s1, zero, s1
   1292c: ee 8c        	c.mv	s9, s11
   1292e: 85 47        	c.li	a5, 0x1
   12930: e3 5b 0b b8  	bge	s6, zero, 0x124c6 <_vfprintf_r+0x386>
   12934: 05 47        	c.li	a4, 0x1
   12936: 63 8e e7 48  	beq	a5, a4, 0x12dd2 <_vfprintf_r+0xc92>
   1293a: 09 47        	c.li	a4, 0x2
   1293c: 63 84 e7 30  	beq	a5, a4, 0x12c44 <_vfprintf_r+0xb04>
   12940: f4 0a        	c.addi4spn	a3, sp, 0x15c
   12942: 36 8d        	c.mv	s10, a3
   12944: 13 f7 74 00  	andi	a4, s1, 0x7
   12948: 13 07 07 03  	addi	a4, a4, 0x30
   1294c: a3 0f ed fe  	sb	a4, -0x1(s10)
   12950: 8d 80        	c.srli	s1, 0x3
   12952: 6a 86        	c.mv	a2, s10
   12954: 7d 1d        	c.addi	s10, -0x1
   12956: fd f4        	c.bnez	s1, 0x12944 <_vfprintf_r+0x804>
   12958: 93 f5 1c 00  	andi	a1, s9, 0x1
   1295c: 63 81 05 30  	beq	a1, zero, 0x12c5e <_vfprintf_r+0xb1e>
   12960: 93 05 00 03  	addi	a1, zero, 0x30
   12964: 63 0d b7 2e  	beq	a4, a1, 0x12c5e <_vfprintf_r+0xb1e>
   12968: 79 16        	c.addi	a2, -0x2
   1296a: a3 0f bd fe  	sb	a1, -0x1(s10)
   1296e: 91 9e        	c.subw	a3, a2
   12970: e6 8d        	c.mv	s11, s9
   12972: 32 8d        	c.mv	s10, a2
   12974: 19 b6        	c.j	0x1247a <_vfprintf_r+0x33a>
   12976: 82 77        	c.ldsp	a5, 0x20(sp)
   12978: a3 07 01 0a  	sb	zero, 0xaf(sp)
   1297c: 03 bd 07 00  	ld	s10, 0x0(a5)
   12980: 93 84 87 00  	addi	s1, a5, 0x8
   12984: e3 05 0d 0a  	beq	s10, zero, 0x1322e <_vfprintf_r+0x10ee>
   12988: e3 4e 0b 2a  	blt	s6, zero, 0x13444 <_vfprintf_r+0x1304>
   1298c: 5a 86        	c.mv	a2, s6
   1298e: 81 45        	c.li	a1, 0x0
   12990: 6a 85        	c.mv	a0, s10
   12992: 1a f0        	c.sdsp	t1, 0x20(sp)
   12994: ef 20 d0 40  	jal	ra, 0x155a0 <memchr>
   12998: 2a ec        	c.sdsp	a0, 0x18(sp)
   1299a: 02 73        	c.ldsp	t1, 0x20(sp)
   1299c: 19 e1        	c.bnez	a0, 0x129a2 <_vfprintf_r+0x862>
   1299e: 6f 00 70 7d  	jal	zero, 0x13974 <_vfprintf_r+0x1834>
   129a2: e2 67        	c.ldsp	a5, 0x18(sp)
   129a4: 03 47 f1 0a  	lbu	a4, 0xaf(sp)
   129a8: 26 f0        	c.sdsp	s1, 0x20(sp)
   129aa: bb 86 a7 41  	subw	a3, a5, s10
   129ae: 13 c8 f6 ff  	xori	a6, a3, -0x1
   129b2: 13 58 f8 43  	srai	a6, a6, 0x3f
   129b6: 02 ec        	c.sdsp	zero, 0x18(sp)
   129b8: 82 e4        	c.sdsp	zero, 0x48(sp)
   129ba: 82 e0        	c.sdsp	zero, 0x40(sp)
   129bc: 02 f8        	c.sdsp	zero, 0x30(sp)
   129be: 33 7c d8 00  	and	s8, a6, a3
   129c2: 01 4b        	c.li	s6, 0x0
   129c4: e3 19 07 ac  	bne	a4, zero, 0x12496 <_vfprintf_r+0x356>
   129c8: 21 ba        	c.j	0x122e0 <_vfprintf_r+0x1a0>
   129ca: 02 77        	c.ldsp	a4, 0x20(sp)
   129cc: a3 07 01 0a  	sb	zero, 0xaf(sp)
   129d0: 05 4c        	c.li	s8, 0x1
   129d2: 1c 43        	c.lw	a5, 0x0(a4)
   129d4: 21 07        	c.addi	a4, 0x8
   129d6: 3a f0        	c.sdsp	a4, 0x20(sp)
   129d8: 23 0c f1 0e  	sb	a5, 0xf8(sp)
   129dc: 85 46        	c.li	a3, 0x1
   129de: 13 0d 81 0f  	addi	s10, sp, 0xf8
   129e2: d5 b8        	c.j	0x122d6 <_vfprintf_r+0x196>
   129e4: 82 77        	c.ldsp	a5, 0x20(sp)
   129e6: 83 ab 07 00  	lw	s7, 0x0(a5)
   129ea: a1 07        	c.addi	a5, 0x8
   129ec: 63 d3 0b 6e  	bge	s7, zero, 0x130d2 <_vfprintf_r+0xf92>
   129f0: bb 0b 70 41  	subw	s7, zero, s7
   129f4: 3e f0        	c.sdsp	a5, 0x20(sp)
   129f6: 93 ed 4d 00  	ori	s11, s11, 0x4
   129fa: 03 c3 09 00  	lbu	t1, 0x0(s3)
   129fe: 81 2d        	c.addiw	s11, 0x0
   12a00: b5 b0        	c.j	0x1226c <_vfprintf_r+0x12c>
   12a02: 93 07 b0 02  	addi	a5, zero, 0x2b
   12a06: 03 c3 09 00  	lbu	t1, 0x0(s3)
   12a0a: a3 07 f1 0a  	sb	a5, 0xaf(sp)
   12a0e: b9 b8        	c.j	0x1226c <_vfprintf_r+0x12c>
   12a10: 93 ed 0d 08  	ori	s11, s11, 0x80
   12a14: 03 c3 09 00  	lbu	t1, 0x0(s3)
   12a18: 81 2d        	c.addiw	s11, 0x0
   12a1a: 89 b8        	c.j	0x1226c <_vfprintf_r+0x12c>
   12a1c: 03 c3 09 00  	lbu	t1, 0x0(s3)
   12a20: 93 06 a0 02  	addi	a3, zero, 0x2a
   12a24: 13 87 19 00  	addi	a4, s3, 0x1
   12a28: 63 14 d3 00  	bne	t1, a3, 0x12a30 <_vfprintf_r+0x8f0>
   12a2c: 6f 10 a0 24  	jal	zero, 0x13c76 <_vfprintf_r+0x1b36>
   12a30: 9b 07 03 fd  	addiw	a5, t1, -0x30
   12a34: a5 45        	c.li	a1, 0x9
   12a36: 81 46        	c.li	a3, 0x0
   12a38: 25 46        	c.li	a2, 0x9
   12a3a: ba 89        	c.mv	s3, a4
   12a3c: 01 4b        	c.li	s6, 0x0
   12a3e: e3 e9 f5 82  	bltu	a1, a5, 0x12270 <_vfprintf_r+0x130>
   12a42: 03 43 07 00  	lbu	t1, 0x0(a4)
   12a46: 1b 9b 26 00  	slliw	s6, a3, 0x2
   12a4a: 3b 0b db 00  	addw	s6, s6, a3
   12a4e: 1b 1b 1b 00  	slliw	s6, s6, 0x1
   12a52: bb 86 67 01  	addw	a3, a5, s6
   12a56: 9b 07 03 fd  	addiw	a5, t1, -0x30
   12a5a: 36 8b        	c.mv	s6, a3
   12a5c: 05 07        	c.addi	a4, 0x1
   12a5e: e3 72 f6 fe  	bgeu	a2, a5, 0x12a42 <_vfprintf_r+0x902>
   12a62: 63 ce 06 72  	blt	a3, zero, 0x1319e <_vfprintf_r+0x105e>
   12a66: ba 89        	c.mv	s3, a4
   12a68: 6f f0 9f 80  	jal	zero, 0x12270 <_vfprintf_r+0x130>
   12a6c: 93 ec 0d 01  	ori	s9, s11, 0x10
   12a70: 81 2c        	c.addiw	s9, 0x0
   12a72: 82 76        	c.ldsp	a3, 0x20(sp)
   12a74: 93 f7 0c 02  	andi	a5, s9, 0x20
   12a78: 13 87 86 00  	addi	a4, a3, 0x8
   12a7c: 63 82 07 62  	beq	a5, zero, 0x130a0 <_vfprintf_r+0xf60>
   12a80: 84 62        	c.ld	s1, 0x0(a3)
   12a82: 85 47        	c.li	a5, 0x1
   12a84: 3a f0        	c.sdsp	a4, 0x20(sp)
   12a86: 1d bc        	c.j	0x124bc <_vfprintf_r+0x37c>
   12a88: 22 6c        	c.ldsp	s8, 0x8(sp)
   12a8a: 62 85        	c.mv	a0, s8
   12a8c: ef 20 30 51  	jal	ra, 0x1579e <_localeconv_r>
   12a90: 1c 65        	c.ld	a5, 0x8(a0)
   12a92: 3e 85        	c.mv	a0, a5
   12a94: be fc        	c.sdsp	a5, 0x78(sp)
   12a96: ef f0 6f 99  	jal	ra, 0x11c2c <strlen>
   12a9a: aa 87        	c.mv	a5, a0
   12a9c: 62 85        	c.mv	a0, s8
   12a9e: 3e e5        	c.sdsp	a5, 0x88(sp)
   12aa0: 3e 8c        	c.mv	s8, a5
   12aa2: ef 20 d0 4f  	jal	ra, 0x1579e <_localeconv_r>
   12aa6: 1c 69        	c.ld	a5, 0x10(a0)
   12aa8: 03 c3 09 00  	lbu	t1, 0x0(s3)
   12aac: 3e e1        	c.sdsp	a5, 0x80(sp)
   12aae: 63 0f 0c fa  	beq	s8, zero, 0x1226c <_vfprintf_r+0x12c>
   12ab2: 63 8d 07 fa  	beq	a5, zero, 0x1226c <_vfprintf_r+0x12c>
   12ab6: 83 c7 07 00  	lbu	a5, 0x0(a5)
   12aba: 63 89 07 fa  	beq	a5, zero, 0x1226c <_vfprintf_r+0x12c>
   12abe: 93 ed 0d 40  	ori	s11, s11, 0x400
   12ac2: 81 2d        	c.addiw	s11, 0x0
   12ac4: 6f f0 8f fa  	jal	zero, 0x1226c <_vfprintf_r+0x12c>
   12ac8: 93 ed 1d 00  	ori	s11, s11, 0x1
   12acc: 03 c3 09 00  	lbu	t1, 0x0(s3)
   12ad0: 81 2d        	c.addiw	s11, 0x0
   12ad2: 6f f0 af f9  	jal	zero, 0x1226c <_vfprintf_r+0x12c>
   12ad6: 83 47 f1 0a  	lbu	a5, 0xaf(sp)
   12ada: 03 c3 09 00  	lbu	t1, 0x0(s3)
   12ade: 63 97 07 f8  	bne	a5, zero, 0x1226c <_vfprintf_r+0x12c>
   12ae2: 93 07 00 02  	addi	a5, zero, 0x20
   12ae6: a3 07 f1 0a  	sb	a5, 0xaf(sp)
   12aea: 6f f0 2f f8  	jal	zero, 0x1226c <_vfprintf_r+0x12c>
   12aee: 93 ed 8d 00  	ori	s11, s11, 0x8
   12af2: 03 c3 09 00  	lbu	t1, 0x0(s3)
   12af6: 81 2d        	c.addiw	s11, 0x0
   12af8: 6f f0 4f f7  	jal	zero, 0x1226c <_vfprintf_r+0x12c>
   12afc: 93 ed 0d 02  	ori	s11, s11, 0x20
   12b00: 03 c3 09 00  	lbu	t1, 0x0(s3)
   12b04: 81 2d        	c.addiw	s11, 0x0
   12b06: 6f f0 6f f6  	jal	zero, 0x1226c <_vfprintf_r+0x12c>
   12b0a: 02 77        	c.ldsp	a4, 0x20(sp)
   12b0c: a1 67        	c.lui	a5, 0x8
   12b0e: 93 87 07 83  	addi	a5, a5, -0x7d0
   12b12: 23 18 f1 0a  	sh	a5, 0xb0(sp)
   12b16: 93 07 87 00  	addi	a5, a4, 0x8
   12b1a: 3e f0        	c.sdsp	a5, 0x20(sp)
   12b1c: b7 07 02 00  	lui	a5, 0x20
   12b20: 93 87 87 d6  	addi	a5, a5, -0x298
   12b24: 93 ec 2d 00  	ori	s9, s11, 0x2
   12b28: be f0        	c.sdsp	a5, 0x60(sp)
   12b2a: 04 63        	c.ld	s1, 0x0(a4)
   12b2c: 81 2c        	c.addiw	s9, 0x0
   12b2e: 89 47        	c.li	a5, 0x2
   12b30: 13 03 80 07  	addi	t1, zero, 0x78
   12b34: 61 b2        	c.j	0x124bc <_vfprintf_r+0x37c>
   12b36: 02 77        	c.ldsp	a4, 0x20(sp)
   12b38: 93 f7 0d 02  	andi	a5, s11, 0x20
   12b3c: 18 63        	c.ld	a4, 0x0(a4)
   12b3e: 63 8a 07 5a  	beq	a5, zero, 0x130f2 <_vfprintf_r+0xfb2>
   12b42: c2 67        	c.ldsp	a5, 0x10(sp)
   12b44: 1c e3        	c.sd	a5, 0x0(a4)
   12b46: 82 77        	c.ldsp	a5, 0x20(sp)
   12b48: 4e 8d        	c.mv	s10, s3
   12b4a: a1 07        	c.addi	a5, 0x8
   12b4c: 3e f0        	c.sdsp	a5, 0x20(sp)
   12b4e: a9 b8        	c.j	0x123a8 <_vfprintf_r+0x268>
   12b50: 03 c3 09 00  	lbu	t1, 0x0(s3)
   12b54: 93 07 c0 06  	addi	a5, zero, 0x6c
   12b58: 63 09 f3 6a  	beq	t1, a5, 0x1320a <_vfprintf_r+0x10ca>
   12b5c: 93 ed 0d 01  	ori	s11, s11, 0x10
   12b60: 81 2d        	c.addiw	s11, 0x0
   12b62: 6f f0 af f0  	jal	zero, 0x1226c <_vfprintf_r+0x12c>
   12b66: 03 c3 09 00  	lbu	t1, 0x0(s3)
   12b6a: 93 07 80 06  	addi	a5, zero, 0x68
   12b6e: 63 06 f3 68  	beq	t1, a5, 0x131fa <_vfprintf_r+0x10ba>
   12b72: 93 ed 0d 04  	ori	s11, s11, 0x40
   12b76: 81 2d        	c.addiw	s11, 0x0
   12b78: 6f f0 4f ef  	jal	zero, 0x1226c <_vfprintf_r+0x12c>
   12b7c: 13 07 50 06  	addi	a4, zero, 0x65
   12b80: e3 5b 67 ca  	bge	a4, t1, 0x12836 <_vfprintf_r+0x6f6>
   12b84: 4e 65        	c.ldsp	a0, 0xd0(sp)
   12b86: ee 65        	c.ldsp	a1, 0xd8(sp)
   12b88: 01 46        	c.li	a2, 0x0
   12b8a: 81 46        	c.li	a3, 0x0
   12b8c: ef 50 90 33  	jal	ra, 0x186c4 <__netf2>
   12b90: 63 1a 05 38  	bne	a0, zero, 0x12f24 <_vfprintf_r+0xde4>
   12b94: ae 57        	c.lwsp	a5, 0xe8(sp)
   12b96: 37 07 02 00  	lui	a4, 0x20
   12b9a: 13 07 07 da  	addi	a4, a4, -0x260
   12b9e: 85 27        	c.addiw	a5, 0x1
   12ba0: 18 e0        	c.sd	a4, 0x0(s0)
   12ba2: 85 04        	c.addi	s1, 0x1
   12ba4: 05 47        	c.li	a4, 0x1
   12ba6: 18 e4        	c.sd	a4, 0x8(s0)
   12ba8: be d5        	c.swsp	a5, 0xe8(sp)
   12baa: 1b 87 07 00  	addiw	a4, a5, 0x0
   12bae: a6 f9        	c.sdsp	s1, 0xf0(sp)
   12bb0: 9d 47        	c.li	a5, 0x7
   12bb2: 41 04        	c.addi	s0, 0x10
   12bb4: e3 c5 e7 00  	blt	a5, a4, 0x133be <_vfprintf_r+0x127e>
   12bb8: ea 57        	c.lwsp	a5, 0xb8(sp)
   12bba: 62 77        	c.ldsp	a4, 0x38(sp)
   12bbc: 63 d6 e7 50  	bge	a5, a4, 0x130c8 <_vfprintf_r+0xf88>
   12bc0: 46 67        	c.ldsp	a4, 0x50(sp)
   12bc2: ae 57        	c.lwsp	a5, 0xe8(sp)
   12bc4: e6 66        	c.ldsp	a3, 0x58(sp)
   12bc6: ba 94        	c.add	s1, a4
   12bc8: 85 27        	c.addiw	a5, 0x1
   12bca: 18 e4        	c.sd	a4, 0x8(s0)
   12bcc: 14 e0        	c.sd	a3, 0x0(s0)
   12bce: 1b 87 07 00  	addiw	a4, a5, 0x0
   12bd2: be d5        	c.swsp	a5, 0xe8(sp)
   12bd4: a6 f9        	c.sdsp	s1, 0xf0(sp)
   12bd6: 9d 47        	c.li	a5, 0x7
   12bd8: 41 04        	c.addi	s0, 0x10
   12bda: 63 c0 e7 64  	blt	a5, a4, 0x1321a <_vfprintf_r+0x10da>
   12bde: e2 77        	c.ldsp	a5, 0x38(sp)
   12be0: 1b 8b f7 ff  	addiw	s6, a5, -0x1
   12be4: 63 58 60 f9  	bge	zero, s6, 0x12374 <_vfprintf_r+0x234>
   12be8: b7 08 02 00  	lui	a7, 0x20
   12bec: 41 47        	c.li	a4, 0x10
   12bee: ae 57        	c.lwsp	a5, 0xe8(sp)
   12bf0: 93 88 08 00  	addi	a7, a7, 0x0
   12bf4: 63 53 67 7f  	bge	a4, s6, 0x133da <_vfprintf_r+0x129a>
   12bf8: 4e f8        	c.sdsp	s3, 0x30(sp)
   12bfa: c1 4c        	c.li	s9, 0x10
   12bfc: da 89        	c.mv	s3, s6
   12bfe: 1d 4d        	c.li	s10, 0x7
   12c00: 46 8b        	c.mv	s6, a7
   12c02: 21 a0        	c.j	0x12c0a <_vfprintf_r+0xaca>
   12c04: c1 39        	c.addiw	s3, -0x10
   12c06: 63 d7 3c 7d  	bge	s9, s3, 0x133d4 <_vfprintf_r+0x1294>
   12c0a: 85 27        	c.addiw	a5, 0x1
   12c0c: c1 04        	c.addi	s1, 0x10
   12c0e: 23 30 64 01  	sd	s6, 0x0(s0)
   12c12: 23 34 94 01  	sd	s9, 0x8(s0)
   12c16: a6 f9        	c.sdsp	s1, 0xf0(sp)
   12c18: be d5        	c.swsp	a5, 0xe8(sp)
   12c1a: 41 04        	c.addi	s0, 0x10
   12c1c: e3 54 fd fe  	bge	s10, a5, 0x12c04 <_vfprintf_r+0xac4>
   12c20: 22 65        	c.ldsp	a0, 0x8(sp)
   12c22: 90 11        	c.addi4spn	a2, sp, 0xe0
   12c24: ca 85        	c.mv	a1, s2
   12c26: ef 10 00 1f  	jal	ra, 0x13e16 <__sprint_r>
   12c2a: 63 18 05 18  	bne	a0, zero, 0x12dba <_vfprintf_r+0xc7a>
   12c2e: ce 74        	c.ldsp	s1, 0xf0(sp)
   12c30: ae 57        	c.lwsp	a5, 0xe8(sp)
   12c32: 52 84        	c.mv	s0, s4
   12c34: c1 bf        	c.j	0x12c04 <_vfprintf_r+0xac4>
   12c36: 05 47        	c.li	a4, 0x1
   12c38: e3 8b e7 64  	beq	a5, a4, 0x13a8e <_vfprintf_r+0x194e>
   12c3c: 09 47        	c.li	a4, 0x2
   12c3e: ee 8c        	c.mv	s9, s11
   12c40: e3 90 e7 d0  	bne	a5, a4, 0x12940 <_vfprintf_r+0x800>
   12c44: 06 77        	c.ldsp	a4, 0x60(sp)
   12c46: f4 0a        	c.addi4spn	a3, sp, 0x15c
   12c48: 36 8d        	c.mv	s10, a3
   12c4a: 93 f7 f4 00  	andi	a5, s1, 0xf
   12c4e: ba 97        	c.add	a5, a4
   12c50: 83 c7 07 00  	lbu	a5, 0x0(a5)
   12c54: 91 80        	c.srli	s1, 0x4
   12c56: 7d 1d        	c.addi	s10, -0x1
   12c58: 23 00 fd 00  	sb	a5, 0x0(s10)
   12c5c: fd f4        	c.bnez	s1, 0x12c4a <_vfprintf_r+0xb0a>
   12c5e: bb 86 a6 41  	subw	a3, a3, s10
   12c62: e6 8d        	c.mv	s11, s9
   12c64: 6f f0 7f 81  	jal	zero, 0x1247a <_vfprintf_r+0x33a>
   12c68: bb 8c 8b 41  	subw	s9, s7, s8
   12c6c: 63 50 90 ef  	bge	zero, s9, 0x1234c <_vfprintf_r+0x20c>
   12c70: b7 08 02 00  	lui	a7, 0x20
   12c74: c1 45        	c.li	a1, 0x10
   12c76: 2e 56        	c.lwsp	a2, 0xe8(sp)
   12c78: 93 88 08 00  	addi	a7, a7, 0x0
   12c7c: 63 df 95 05  	bge	a1, s9, 0x12cda <_vfprintf_r+0xb9a>
   12c80: a2 87        	c.mv	a5, s0
   12c82: 26 87        	c.mv	a4, s1
   12c84: 66 84        	c.mv	s0, s9
   12c86: 41 4f        	c.li	t5, 0x10
   12c88: e2 8c        	c.mv	s9, s8
   12c8a: 9d 4f        	c.li	t6, 0x7
   12c8c: 9a f4        	c.sdsp	t1, 0x68(sp)
   12c8e: 36 8c        	c.mv	s8, a3
   12c90: c6 84        	c.mv	s1, a7
   12c92: 21 a0        	c.j	0x12c9a <_vfprintf_r+0xb5a>
   12c94: 41 34        	c.addiw	s0, -0x10
   12c96: 63 5b 8f 02  	bge	t5, s0, 0x12ccc <_vfprintf_r+0xb8c>
   12c9a: 05 26        	c.addiw	a2, 0x1
   12c9c: 41 07        	c.addi	a4, 0x10
   12c9e: 84 e3        	c.sd	s1, 0x0(a5)
   12ca0: 23 b4 e7 01  	sd	t5, 0x8(a5)
   12ca4: ba f9        	c.sdsp	a4, 0xf0(sp)
   12ca6: b2 d5        	c.swsp	a2, 0xe8(sp)
   12ca8: c1 07        	c.addi	a5, 0x10
   12caa: e3 d5 cf fe  	bge	t6, a2, 0x12c94 <_vfprintf_r+0xb54>
   12cae: 22 65        	c.ldsp	a0, 0x8(sp)
   12cb0: 90 11        	c.addi4spn	a2, sp, 0xe0
   12cb2: ca 85        	c.mv	a1, s2
   12cb4: ef 10 20 16  	jal	ra, 0x13e16 <__sprint_r>
   12cb8: 63 11 05 10  	bne	a0, zero, 0x12dba <_vfprintf_r+0xc7a>
   12cbc: 41 4f        	c.li	t5, 0x10
   12cbe: 41 34        	c.addiw	s0, -0x10
   12cc0: 4e 77        	c.ldsp	a4, 0xf0(sp)
   12cc2: 2e 56        	c.lwsp	a2, 0xe8(sp)
   12cc4: d2 87        	c.mv	a5, s4
   12cc6: 9d 4f        	c.li	t6, 0x7
   12cc8: e3 49 8f fc  	blt	t5, s0, 0x12c9a <_vfprintf_r+0xb5a>
   12ccc: 26 73        	c.ldsp	t1, 0x68(sp)
   12cce: e2 86        	c.mv	a3, s8
   12cd0: a6 88        	c.mv	a7, s1
   12cd2: 66 8c        	c.mv	s8, s9
   12cd4: ba 84        	c.mv	s1, a4
   12cd6: a2 8c        	c.mv	s9, s0
   12cd8: 3e 84        	c.mv	s0, a5
   12cda: 9b 05 16 00  	addiw	a1, a2, 0x1
   12cde: e6 94        	c.add	s1, s9
   12ce0: 23 30 14 01  	sd	a7, 0x0(s0)
   12ce4: 23 34 94 01  	sd	s9, 0x8(s0)
   12ce8: a6 f9        	c.sdsp	s1, 0xf0(sp)
   12cea: ae d5        	c.swsp	a1, 0xe8(sp)
   12cec: 1d 47        	c.li	a4, 0x7
   12cee: 41 04        	c.addi	s0, 0x10
   12cf0: 63 5e b7 e4  	bge	a4, a1, 0x1234c <_vfprintf_r+0x20c>
   12cf4: 22 65        	c.ldsp	a0, 0x8(sp)
   12cf6: 90 11        	c.addi4spn	a2, sp, 0xe0
   12cf8: ca 85        	c.mv	a1, s2
   12cfa: 36 e9        	c.sdsp	a3, 0x90(sp)
   12cfc: 9a f4        	c.sdsp	t1, 0x68(sp)
   12cfe: ef 10 80 11  	jal	ra, 0x13e16 <__sprint_r>
   12d02: 45 ed        	c.bnez	a0, 0x12dba <_vfprintf_r+0xc7a>
   12d04: ce 74        	c.ldsp	s1, 0xf0(sp)
   12d06: ca 66        	c.ldsp	a3, 0x90(sp)
   12d08: 26 73        	c.ldsp	t1, 0x68(sp)
   12d0a: 52 84        	c.mv	s0, s4
   12d0c: 6f f0 0f e4  	jal	zero, 0x1234c <_vfprintf_r+0x20c>
   12d10: b7 08 02 00  	lui	a7, 0x20
   12d14: 41 47        	c.li	a4, 0x10
   12d16: 2e 56        	c.lwsp	a2, 0xe8(sp)
   12d18: 93 88 08 00  	addi	a7, a7, 0x0
   12d1c: 63 5d 67 05  	bge	a4, s6, 0x12d76 <_vfprintf_r+0xc36>
   12d20: a6 85        	c.mv	a1, s1
   12d22: a2 87        	c.mv	a5, s0
   12d24: b6 84        	c.mv	s1, a3
   12d26: 5a 84        	c.mv	s0, s6
   12d28: 41 47        	c.li	a4, 0x10
   12d2a: 9d 4c        	c.li	s9, 0x7
   12d2c: 9a f4        	c.sdsp	t1, 0x68(sp)
   12d2e: 56 8b        	c.mv	s6, s5
   12d30: ae 86        	c.mv	a3, a1
   12d32: 21 a0        	c.j	0x12d3a <_vfprintf_r+0xbfa>
   12d34: 41 34        	c.addiw	s0, -0x10
   12d36: 63 59 87 02  	bge	a4, s0, 0x12d68 <_vfprintf_r+0xc28>
   12d3a: 05 26        	c.addiw	a2, 0x1
   12d3c: c1 06        	c.addi	a3, 0x10
   12d3e: 23 b0 57 01  	sd	s5, 0x0(a5)
   12d42: 98 e7        	c.sd	a4, 0x8(a5)
   12d44: b6 f9        	c.sdsp	a3, 0xf0(sp)
   12d46: b2 d5        	c.swsp	a2, 0xe8(sp)
   12d48: c1 07        	c.addi	a5, 0x10
   12d4a: e3 d5 cc fe  	bge	s9, a2, 0x12d34 <_vfprintf_r+0xbf4>
   12d4e: 22 65        	c.ldsp	a0, 0x8(sp)
   12d50: 90 11        	c.addi4spn	a2, sp, 0xe0
   12d52: ca 85        	c.mv	a1, s2
   12d54: ef 10 20 0c  	jal	ra, 0x13e16 <__sprint_r>
   12d58: 2d e1        	c.bnez	a0, 0x12dba <_vfprintf_r+0xc7a>
   12d5a: 41 47        	c.li	a4, 0x10
   12d5c: 41 34        	c.addiw	s0, -0x10
   12d5e: ce 76        	c.ldsp	a3, 0xf0(sp)
   12d60: 2e 56        	c.lwsp	a2, 0xe8(sp)
   12d62: d2 87        	c.mv	a5, s4
   12d64: e3 4b 87 fc  	blt	a4, s0, 0x12d3a <_vfprintf_r+0xbfa>
   12d68: 26 73        	c.ldsp	t1, 0x68(sp)
   12d6a: 36 87        	c.mv	a4, a3
   12d6c: da 88        	c.mv	a7, s6
   12d6e: a6 86        	c.mv	a3, s1
   12d70: 22 8b        	c.mv	s6, s0
   12d72: ba 84        	c.mv	s1, a4
   12d74: 3e 84        	c.mv	s0, a5
   12d76: 9b 05 16 00  	addiw	a1, a2, 0x1
   12d7a: da 94        	c.add	s1, s6
   12d7c: 23 30 14 01  	sd	a7, 0x0(s0)
   12d80: 23 34 64 01  	sd	s6, 0x8(s0)
   12d84: a6 f9        	c.sdsp	s1, 0xf0(sp)
   12d86: ae d5        	c.swsp	a1, 0xe8(sp)
   12d88: 1d 47        	c.li	a4, 0x7
   12d8a: 41 04        	c.addi	s0, 0x10
   12d8c: 63 54 b7 dc  	bge	a4, a1, 0x12354 <_vfprintf_r+0x214>
   12d90: 22 65        	c.ldsp	a0, 0x8(sp)
   12d92: 90 11        	c.addi4spn	a2, sp, 0xe0
   12d94: ca 85        	c.mv	a1, s2
   12d96: 36 e9        	c.sdsp	a3, 0x90(sp)
   12d98: 9a f4        	c.sdsp	t1, 0x68(sp)
   12d9a: ef 10 c0 07  	jal	ra, 0x13e16 <__sprint_r>
   12d9e: 11 ed        	c.bnez	a0, 0x12dba <_vfprintf_r+0xc7a>
   12da0: ce 74        	c.ldsp	s1, 0xf0(sp)
   12da2: ca 66        	c.ldsp	a3, 0x90(sp)
   12da4: 26 73        	c.ldsp	t1, 0x68(sp)
   12da6: 52 84        	c.mv	s0, s4
   12da8: 6f f0 cf da  	jal	zero, 0x12354 <_vfprintf_r+0x214>
   12dac: 22 65        	c.ldsp	a0, 0x8(sp)
   12dae: 90 11        	c.addi4spn	a2, sp, 0xe0
   12db0: ca 85        	c.mv	a1, s2
   12db2: ef 10 40 06  	jal	ra, 0x13e16 <__sprint_r>
   12db6: 63 00 05 de  	beq	a0, zero, 0x12396 <_vfprintf_r+0x256>
   12dba: e2 65        	c.ldsp	a1, 0x18(sp)
   12dbc: 63 8e 05 de  	beq	a1, zero, 0x123b8 <_vfprintf_r+0x278>
   12dc0: 22 65        	c.ldsp	a0, 0x8(sp)
   12dc2: ef f0 0f 93  	jal	ra, 0x11ef2 <_free_r>
   12dc6: 6f f0 2f df  	jal	zero, 0x123b8 <_vfprintf_r+0x278>
   12dca: 05 47        	c.li	a4, 0x1
   12dcc: ee 8c        	c.mv	s9, s11
   12dce: e3 96 e7 b6  	bne	a5, a4, 0x1293a <_vfprintf_r+0x7fa>
   12dd2: a5 47        	c.li	a5, 0x9
   12dd4: 63 e6 97 36  	bltu	a5, s1, 0x13140 <_vfprintf_r+0x1000>
   12dd8: 9b 84 04 03  	addiw	s1, s1, 0x30
   12ddc: a3 0d 91 14  	sb	s1, 0x15b(sp)
   12de0: e6 8d        	c.mv	s11, s9
   12de2: 85 46        	c.li	a3, 0x1
   12de4: 13 0d b1 15  	addi	s10, sp, 0x15b
   12de8: 6f f0 2f e9  	jal	zero, 0x1247a <_vfprintf_r+0x33a>
   12dec: b7 08 02 00  	lui	a7, 0x20
   12df0: c1 45        	c.li	a1, 0x10
   12df2: 2e 56        	c.lwsp	a2, 0xe8(sp)
   12df4: 93 88 08 01  	addi	a7, a7, 0x10
   12df8: 63 de e5 04  	bge	a1, a4, 0x12e54 <_vfprintf_r+0xd14>
   12dfc: 36 ed        	c.sdsp	a3, 0x98(sp)
   12dfe: a2 87        	c.mv	a5, s0
   12e00: a6 86        	c.mv	a3, s1
   12e02: 41 4f        	c.li	t5, 0x10
   12e04: 9d 43        	c.li	t2, 0x7
   12e06: 96 f4        	c.sdsp	t0, 0x68(sp)
   12e08: 1a e9        	c.sdsp	t1, 0x90(sp)
   12e0a: 3a 84        	c.mv	s0, a4
   12e0c: c6 84        	c.mv	s1, a7
   12e0e: 21 a0        	c.j	0x12e16 <_vfprintf_r+0xcd6>
   12e10: 41 34        	c.addiw	s0, -0x10
   12e12: 63 5a 8f 02  	bge	t5, s0, 0x12e46 <_vfprintf_r+0xd06>
   12e16: 05 26        	c.addiw	a2, 0x1
   12e18: c1 06        	c.addi	a3, 0x10
   12e1a: 84 e3        	c.sd	s1, 0x0(a5)
   12e1c: 23 b4 e7 01  	sd	t5, 0x8(a5)
   12e20: b6 f9        	c.sdsp	a3, 0xf0(sp)
   12e22: b2 d5        	c.swsp	a2, 0xe8(sp)
   12e24: c1 07        	c.addi	a5, 0x10
   12e26: e3 d5 c3 fe  	bge	t2, a2, 0x12e10 <_vfprintf_r+0xcd0>
   12e2a: 22 65        	c.ldsp	a0, 0x8(sp)
   12e2c: 90 11        	c.addi4spn	a2, sp, 0xe0
   12e2e: ca 85        	c.mv	a1, s2
   12e30: ef 00 70 7e  	jal	ra, 0x13e16 <__sprint_r>
   12e34: 59 f1        	c.bnez	a0, 0x12dba <_vfprintf_r+0xc7a>
   12e36: 41 4f        	c.li	t5, 0x10
   12e38: 41 34        	c.addiw	s0, -0x10
   12e3a: ce 76        	c.ldsp	a3, 0xf0(sp)
   12e3c: 2e 56        	c.lwsp	a2, 0xe8(sp)
   12e3e: d2 87        	c.mv	a5, s4
   12e40: 9d 43        	c.li	t2, 0x7
   12e42: e3 4a 8f fc  	blt	t5, s0, 0x12e16 <_vfprintf_r+0xcd6>
   12e46: a6 88        	c.mv	a7, s1
   12e48: a6 72        	c.ldsp	t0, 0x68(sp)
   12e4a: b6 84        	c.mv	s1, a3
   12e4c: 4a 63        	c.ldsp	t1, 0x90(sp)
   12e4e: ea 66        	c.ldsp	a3, 0x98(sp)
   12e50: 22 87        	c.mv	a4, s0
   12e52: 3e 84        	c.mv	s0, a5
   12e54: ba 94        	c.add	s1, a4
   12e56: 9b 05 16 00  	addiw	a1, a2, 0x1
   12e5a: 18 e4        	c.sd	a4, 0x8(s0)
   12e5c: 23 30 14 01  	sd	a7, 0x0(s0)
   12e60: a6 f9        	c.sdsp	s1, 0xf0(sp)
   12e62: ae d5        	c.swsp	a1, 0xe8(sp)
   12e64: 1d 47        	c.li	a4, 0x7
   12e66: 41 04        	c.addi	s0, 0x10
   12e68: 63 5a b7 c8  	bge	a4, a1, 0x122fc <_vfprintf_r+0x1bc>
   12e6c: 22 65        	c.ldsp	a0, 0x8(sp)
   12e6e: 90 11        	c.addi4spn	a2, sp, 0xe0
   12e70: ca 85        	c.mv	a1, s2
   12e72: 36 ed        	c.sdsp	a3, 0x98(sp)
   12e74: 1a e9        	c.sdsp	t1, 0x90(sp)
   12e76: 96 f4        	c.sdsp	t0, 0x68(sp)
   12e78: ef 00 f0 79  	jal	ra, 0x13e16 <__sprint_r>
   12e7c: 1d fd        	c.bnez	a0, 0x12dba <_vfprintf_r+0xc7a>
   12e7e: ce 74        	c.ldsp	s1, 0xf0(sp)
   12e80: ea 66        	c.ldsp	a3, 0x98(sp)
   12e82: 4a 63        	c.ldsp	t1, 0x90(sp)
   12e84: a6 72        	c.ldsp	t0, 0x68(sp)
   12e86: 52 84        	c.mv	s0, s4
   12e88: 6f f0 4f c7  	jal	zero, 0x122fc <_vfprintf_r+0x1bc>
   12e8c: 22 65        	c.ldsp	a0, 0x8(sp)
   12e8e: 90 11        	c.addi4spn	a2, sp, 0xe0
   12e90: ca 85        	c.mv	a1, s2
   12e92: 36 e9        	c.sdsp	a3, 0x90(sp)
   12e94: 9a f4        	c.sdsp	t1, 0x68(sp)
   12e96: ef 00 10 78  	jal	ra, 0x13e16 <__sprint_r>
   12e9a: 05 f1        	c.bnez	a0, 0x12dba <_vfprintf_r+0xc7a>
   12e9c: ce 74        	c.ldsp	s1, 0xf0(sp)
   12e9e: ca 66        	c.ldsp	a3, 0x90(sp)
   12ea0: 26 73        	c.ldsp	t1, 0x68(sp)
   12ea2: 52 84        	c.mv	s0, s4
   12ea4: 6f f0 0f ca  	jal	zero, 0x12344 <_vfprintf_r+0x204>
   12ea8: b7 08 02 00  	lui	a7, 0x20
   12eac: 93 88 08 01  	addi	a7, a7, 0x10
   12eb0: 41 47        	c.li	a4, 0x10
   12eb2: ae 57        	c.lwsp	a5, 0xe8(sp)
   12eb4: c1 4c        	c.li	s9, 0x10
   12eb6: 1d 4d        	c.li	s10, 0x7
   12eb8: c6 8d        	c.mv	s11, a7
   12eba: 63 46 67 01  	blt	a4, s6, 0x12ec6 <_vfprintf_r+0xd86>
   12ebe: 2d a8        	c.j	0x12ef8 <_vfprintf_r+0xdb8>
   12ec0: 41 3b        	c.addiw	s6, -0x10
   12ec2: 63 da 6c 03  	bge	s9, s6, 0x12ef6 <_vfprintf_r+0xdb6>
   12ec6: 85 27        	c.addiw	a5, 0x1
   12ec8: c1 04        	c.addi	s1, 0x10
   12eca: 23 30 b4 01  	sd	s11, 0x0(s0)
   12ece: 23 34 94 01  	sd	s9, 0x8(s0)
   12ed2: a6 f9        	c.sdsp	s1, 0xf0(sp)
   12ed4: be d5        	c.swsp	a5, 0xe8(sp)
   12ed6: 41 04        	c.addi	s0, 0x10
   12ed8: e3 54 fd fe  	bge	s10, a5, 0x12ec0 <_vfprintf_r+0xd80>
   12edc: 22 65        	c.ldsp	a0, 0x8(sp)
   12ede: 90 11        	c.addi4spn	a2, sp, 0xe0
   12ee0: ca 85        	c.mv	a1, s2
   12ee2: ef 00 50 73  	jal	ra, 0x13e16 <__sprint_r>
   12ee6: e3 1a 05 ec  	bne	a0, zero, 0x12dba <_vfprintf_r+0xc7a>
   12eea: 41 3b        	c.addiw	s6, -0x10
   12eec: ce 74        	c.ldsp	s1, 0xf0(sp)
   12eee: ae 57        	c.lwsp	a5, 0xe8(sp)
   12ef0: 52 84        	c.mv	s0, s4
   12ef2: e3 ca 6c fd  	blt	s9, s6, 0x12ec6 <_vfprintf_r+0xd86>
   12ef6: ee 88        	c.mv	a7, s11
   12ef8: 1b 87 17 00  	addiw	a4, a5, 0x1
   12efc: da 94        	c.add	s1, s6
   12efe: 23 30 14 01  	sd	a7, 0x0(s0)
   12f02: 23 34 64 01  	sd	s6, 0x8(s0)
   12f06: a6 f9        	c.sdsp	s1, 0xf0(sp)
   12f08: ba d5        	c.swsp	a4, 0xe8(sp)
   12f0a: 9d 47        	c.li	a5, 0x7
   12f0c: 63 dc e7 c6  	bge	a5, a4, 0x12384 <_vfprintf_r+0x244>
   12f10: 22 65        	c.ldsp	a0, 0x8(sp)
   12f12: 90 11        	c.addi4spn	a2, sp, 0xe0
   12f14: ca 85        	c.mv	a1, s2
   12f16: ef 00 10 70  	jal	ra, 0x13e16 <__sprint_r>
   12f1a: e3 10 05 ea  	bne	a0, zero, 0x12dba <_vfprintf_r+0xc7a>
   12f1e: ce 74        	c.ldsp	s1, 0xf0(sp)
   12f20: 6f f0 4f c6  	jal	zero, 0x12384 <_vfprintf_r+0x244>
   12f24: 6a 57        	c.lwsp	a4, 0xb8(sp)
   12f26: 63 53 e0 42  	bge	zero, a4, 0x1334c <_vfprintf_r+0x120c>
   12f2a: c2 77        	c.ldsp	a5, 0x30(sp)
   12f2c: 62 77        	c.ldsp	a4, 0x38(sp)
   12f2e: 1b 8b 07 00  	addiw	s6, a5, 0x0
   12f32: 63 41 f7 26  	blt	a4, a5, 0x13194 <_vfprintf_r+0x1054>
   12f36: 63 50 60 03  	bge	zero, s6, 0x12f56 <_vfprintf_r+0xe16>
   12f3a: 2e 57        	c.lwsp	a4, 0xe8(sp)
   12f3c: da 94        	c.add	s1, s6
   12f3e: 23 30 a4 01  	sd	s10, 0x0(s0)
   12f42: 9b 06 17 00  	addiw	a3, a4, 0x1
   12f46: 23 34 64 01  	sd	s6, 0x8(s0)
   12f4a: a6 f9        	c.sdsp	s1, 0xf0(sp)
   12f4c: b6 d5        	c.swsp	a3, 0xe8(sp)
   12f4e: 1d 47        	c.li	a4, 0x7
   12f50: 41 04        	c.addi	s0, 0x10
   12f52: 63 44 d7 7e  	blt	a4, a3, 0x1373a <_vfprintf_r+0x15fa>
   12f56: 13 47 fb ff  	xori	a4, s6, -0x1
   12f5a: c2 77        	c.ldsp	a5, 0x30(sp)
   12f5c: 7d 97        	c.srai	a4, 0x3f
   12f5e: 33 7b eb 00  	and	s6, s6, a4
   12f62: 3b 8b 67 41  	subw	s6, a5, s6
   12f66: 63 41 60 2f  	blt	zero, s6, 0x13248 <_vfprintf_r+0x1108>
   12f6a: c2 77        	c.ldsp	a5, 0x30(sp)
   12f6c: 13 f7 0d 40  	andi	a4, s11, 0x400
   12f70: 33 03 fd 00  	add	t1, s10, a5
   12f74: 63 19 07 62  	bne	a4, zero, 0x135a6 <_vfprintf_r+0x1466>
   12f78: 6a 57        	c.lwsp	a4, 0xb8(sp)
   12f7a: e2 77        	c.ldsp	a5, 0x38(sp)
   12f7c: 63 4c f7 30  	blt	a4, a5, 0x13294 <_vfprintf_r+0x1154>
   12f80: 93 f6 1d 00  	andi	a3, s11, 0x1
   12f84: 63 98 06 30  	bne	a3, zero, 0x13294 <_vfprintf_r+0x1154>
   12f88: e2 76        	c.ldsp	a3, 0x38(sp)
   12f8a: b3 07 dd 00  	add	a5, s10, a3
   12f8e: 33 8b 67 40  	sub	s6, a5, t1
   12f92: 99 9e        	c.subw	a3, a4
   12f94: 9b 07 0b 00  	addiw	a5, s6, 0x0
   12f98: 63 d3 f6 00  	bge	a3, a5, 0x12f9e <_vfprintf_r+0xe5e>
   12f9c: 36 8b        	c.mv	s6, a3
   12f9e: 01 2b        	c.addiw	s6, 0x0
   12fa0: 63 50 60 03  	bge	zero, s6, 0x12fc0 <_vfprintf_r+0xe80>
   12fa4: ae 57        	c.lwsp	a5, 0xe8(sp)
   12fa6: da 94        	c.add	s1, s6
   12fa8: 23 30 64 00  	sd	t1, 0x0(s0)
   12fac: 1b 87 17 00  	addiw	a4, a5, 0x1
   12fb0: 23 34 64 01  	sd	s6, 0x8(s0)
   12fb4: a6 f9        	c.sdsp	s1, 0xf0(sp)
   12fb6: ba d5        	c.swsp	a4, 0xe8(sp)
   12fb8: 9d 47        	c.li	a5, 0x7
   12fba: 41 04        	c.addi	s0, 0x10
   12fbc: e3 c6 e7 20  	blt	a5, a4, 0x139c8 <_vfprintf_r+0x1888>
   12fc0: 93 47 fb ff  	xori	a5, s6, -0x1
   12fc4: fd 97        	c.srai	a5, 0x3f
   12fc6: 33 7b fb 00  	and	s6, s6, a5
   12fca: 3b 8b 66 41  	subw	s6, a3, s6
   12fce: 63 53 60 bb  	bge	zero, s6, 0x12374 <_vfprintf_r+0x234>
   12fd2: b7 08 02 00  	lui	a7, 0x20
   12fd6: 41 47        	c.li	a4, 0x10
   12fd8: ae 57        	c.lwsp	a5, 0xe8(sp)
   12fda: 93 88 08 00  	addi	a7, a7, 0x0
   12fde: 63 5e 67 3f  	bge	a4, s6, 0x133da <_vfprintf_r+0x129a>
   12fe2: 4e f8        	c.sdsp	s3, 0x30(sp)
   12fe4: c1 4c        	c.li	s9, 0x10
   12fe6: ca 89        	c.mv	s3, s2
   12fe8: 1d 4d        	c.li	s10, 0x7
   12fea: 5a 89        	c.mv	s2, s6
   12fec: 46 8b        	c.mv	s6, a7
   12fee: 21 a0        	c.j	0x12ff6 <_vfprintf_r+0xeb6>
   12ff0: 41 39        	c.addiw	s2, -0x10
   12ff2: e3 dc 2c 17  	bge	s9, s2, 0x1396a <_vfprintf_r+0x182a>
   12ff6: 85 27        	c.addiw	a5, 0x1
   12ff8: c1 04        	c.addi	s1, 0x10
   12ffa: 23 30 64 01  	sd	s6, 0x0(s0)
   12ffe: 23 34 94 01  	sd	s9, 0x8(s0)
   13002: a6 f9        	c.sdsp	s1, 0xf0(sp)
   13004: be d5        	c.swsp	a5, 0xe8(sp)
   13006: 41 04        	c.addi	s0, 0x10
   13008: e3 54 fd fe  	bge	s10, a5, 0x12ff0 <_vfprintf_r+0xeb0>
   1300c: 22 65        	c.ldsp	a0, 0x8(sp)
   1300e: 90 11        	c.addi4spn	a2, sp, 0xe0
   13010: ce 85        	c.mv	a1, s3
   13012: ef 00 50 60  	jal	ra, 0x13e16 <__sprint_r>
   13016: e3 11 05 40  	bne	a0, zero, 0x13c18 <_vfprintf_r+0x1ad8>
   1301a: ce 74        	c.ldsp	s1, 0xf0(sp)
   1301c: ae 57        	c.lwsp	a5, 0xe8(sp)
   1301e: 52 84        	c.mv	s0, s4
   13020: c1 bf        	c.j	0x12ff0 <_vfprintf_r+0xeb0>
   13022: 13 f6 1d 00  	andi	a2, s11, 0x1
   13026: e3 15 06 82  	bne	a2, zero, 0x12850 <_vfprintf_r+0x710>
   1302a: 14 e4        	c.sd	a3, 0x8(s0)
   1302c: a6 f9        	c.sdsp	s1, 0xf0(sp)
   1302e: da d5        	c.swsp	s6, 0xe8(sp)
   13030: 9d 47        	c.li	a5, 0x7
   13032: e3 dd 67 87  	bge	a5, s6, 0x128ac <_vfprintf_r+0x76c>
   13036: 22 65        	c.ldsp	a0, 0x8(sp)
   13038: 90 11        	c.addi4spn	a2, sp, 0xe0
   1303a: ca 85        	c.mv	a1, s2
   1303c: ef 00 b0 5d  	jal	ra, 0x13e16 <__sprint_r>
   13040: e3 1d 05 d6  	bne	a0, zero, 0x12dba <_vfprintf_r+0xc7a>
   13044: ce 74        	c.ldsp	s1, 0xf0(sp)
   13046: 2e 5b        	c.lwsp	s6, 0xe8(sp)
   13048: d2 8c        	c.mv	s9, s4
   1304a: 8d b0        	c.j	0x128ac <_vfprintf_r+0x76c>
   1304c: 62 77        	c.ldsp	a4, 0x38(sp)
   1304e: 85 47        	c.li	a5, 0x1
   13050: e3 de e7 84  	bge	a5, a4, 0x128ac <_vfprintf_r+0x76c>
   13054: b7 08 02 00  	lui	a7, 0x20
   13058: c5 47        	c.li	a5, 0x11
   1305a: 93 88 08 00  	addi	a7, a7, 0x0
   1305e: 63 d3 e7 46  	bge	a5, a4, 0x134c4 <_vfprintf_r+0x1384>
   13062: 4e f8        	c.sdsp	s3, 0x30(sp)
   13064: 41 47        	c.li	a4, 0x10
   13066: 1d 4d        	c.li	s10, 0x7
   13068: c6 89        	c.mv	s3, a7
   1306a: 21 a0        	c.j	0x13072 <_vfprintf_r+0xf32>
   1306c: 41 34        	c.addiw	s0, -0x10
   1306e: 63 59 87 44  	bge	a4, s0, 0x134c0 <_vfprintf_r+0x1380>
   13072: 05 2b        	c.addiw	s6, 0x1
   13074: c1 04        	c.addi	s1, 0x10
   13076: 23 b0 3c 01  	sd	s3, 0x0(s9)
   1307a: 23 b4 ec 00  	sd	a4, 0x8(s9)
   1307e: a6 f9        	c.sdsp	s1, 0xf0(sp)
   13080: da d5        	c.swsp	s6, 0xe8(sp)
   13082: c1 0c        	c.addi	s9, 0x10
   13084: e3 54 6d ff  	bge	s10, s6, 0x1306c <_vfprintf_r+0xf2c>
   13088: 22 65        	c.ldsp	a0, 0x8(sp)
   1308a: 90 11        	c.addi4spn	a2, sp, 0xe0
   1308c: ca 85        	c.mv	a1, s2
   1308e: ef 00 90 58  	jal	ra, 0x13e16 <__sprint_r>
   13092: e3 14 05 d2  	bne	a0, zero, 0x12dba <_vfprintf_r+0xc7a>
   13096: ce 74        	c.ldsp	s1, 0xf0(sp)
   13098: 2e 5b        	c.lwsp	s6, 0xe8(sp)
   1309a: d2 8c        	c.mv	s9, s4
   1309c: 41 47        	c.li	a4, 0x10
   1309e: f9 b7        	c.j	0x1306c <_vfprintf_r+0xf2c>
   130a0: 93 f7 0c 01  	andi	a5, s9, 0x10
   130a4: a9 e3        	c.bnez	a5, 0x130e6 <_vfprintf_r+0xfa6>
   130a6: 82 76        	c.ldsp	a3, 0x20(sp)
   130a8: 93 f7 0c 04  	andi	a5, s9, 0x40
   130ac: 84 42        	c.lw	s1, 0x0(a3)
   130ae: 63 8a 07 44  	beq	a5, zero, 0x13502 <_vfprintf_r+0x13c2>
   130b2: c2 14        	c.slli	s1, 0x30
   130b4: c1 90        	c.srli	s1, 0x30
   130b6: 3a f0        	c.sdsp	a4, 0x20(sp)
   130b8: 85 47        	c.li	a5, 0x1
   130ba: 6f f0 2f c0  	jal	zero, 0x124bc <_vfprintf_r+0x37c>
   130be: 81 46        	c.li	a3, 0x0
   130c0: 13 0d c1 15  	addi	s10, sp, 0x15c
   130c4: 6f f0 6f bb  	jal	zero, 0x1247a <_vfprintf_r+0x33a>
   130c8: 93 f7 1d 00  	andi	a5, s11, 0x1
   130cc: 63 84 07 aa  	beq	a5, zero, 0x12374 <_vfprintf_r+0x234>
   130d0: c5 bc        	c.j	0x12bc0 <_vfprintf_r+0xa80>
   130d2: 03 c3 09 00  	lbu	t1, 0x0(s3)
   130d6: 3e f0        	c.sdsp	a5, 0x20(sp)
   130d8: 6f f0 4f 99  	jal	zero, 0x1226c <_vfprintf_r+0x12c>
   130dc: 82 77        	c.ldsp	a5, 0x20(sp)
   130de: 9c 63        	c.ld	a5, 0x0(a5)
   130e0: be 84        	c.mv	s1, a5
   130e2: 6f f0 2f b7  	jal	zero, 0x12454 <_vfprintf_r+0x314>
   130e6: 82 77        	c.ldsp	a5, 0x20(sp)
   130e8: 3a f0        	c.sdsp	a4, 0x20(sp)
   130ea: 84 63        	c.ld	s1, 0x0(a5)
   130ec: 85 47        	c.li	a5, 0x1
   130ee: 6f f0 ef bc  	jal	zero, 0x124bc <_vfprintf_r+0x37c>
   130f2: 93 f7 0d 01  	andi	a5, s11, 0x10
   130f6: e3 96 07 a4  	bne	a5, zero, 0x12b42 <_vfprintf_r+0xa02>
   130fa: 93 f7 0d 04  	andi	a5, s11, 0x40
   130fe: 63 9b 07 66  	bne	a5, zero, 0x13774 <_vfprintf_r+0x1634>
   13102: 13 fe 0d 20  	andi	t3, s11, 0x200
   13106: c2 67        	c.ldsp	a5, 0x10(sp)
   13108: e3 0c 0e 20  	beq	t3, zero, 0x13b20 <_vfprintf_r+0x19e0>
   1310c: 23 00 f7 00  	sb	a5, 0x0(a4)
   13110: 1d bc        	c.j	0x12b46 <_vfprintf_r+0xa06>
   13112: 82 77        	c.ldsp	a5, 0x20(sp)
   13114: 84 63        	c.ld	s1, 0x0(a5)
   13116: 6f f0 cf b9  	jal	zero, 0x124b2 <_vfprintf_r+0x372>
   1311a: 82 77        	c.ldsp	a5, 0x20(sp)
   1311c: 13 8c f7 00  	addi	s8, a5, 0xf
   13120: 13 7c 0c ff  	andi	s8, s8, -0x10
   13124: 93 07 0c 01  	addi	a5, s8, 0x10
   13128: 03 37 0c 00  	ld	a4, 0x0(s8)
   1312c: 83 35 8c 00  	ld	a1, 0x8(s8)
   13130: 3e f0        	c.sdsp	a5, 0x20(sp)
   13132: 6f f0 cf bf  	jal	zero, 0x1252e <_vfprintf_r+0x3ee>
   13136: 3a f0        	c.sdsp	a4, 0x20(sp)
   13138: a5 47        	c.li	a5, 0x9
   1313a: ee 8c        	c.mv	s9, s11
   1313c: e3 fe 97 c8  	bgeu	a5, s1, 0x12dd8 <_vfprintf_r+0xc98>
   13140: f4 0a        	c.addi4spn	a3, sp, 0x15c
   13142: 8a 68        	c.ldsp	a7, 0x80(sp)
   13144: 13 f7 0c 40  	andi	a4, s9, 0x400
   13148: 01 46        	c.li	a2, 0x0
   1314a: b6 85        	c.mv	a1, a3
   1314c: a9 4d        	c.li	s11, 0xa
   1314e: 25 48        	c.li	a6, 0x9
   13150: 13 0c f0 0f  	addi	s8, zero, 0xff
   13154: 39 a0        	c.j	0x13162 <_vfprintf_r+0x1022>
   13156: b3 d7 b4 03  	divu	a5, s1, s11
   1315a: 63 76 98 02  	bgeu	a6, s1, 0x13186 <_vfprintf_r+0x1046>
   1315e: be 84        	c.mv	s1, a5
   13160: ea 85        	c.mv	a1, s10
   13162: 13 8d f5 ff  	addi	s10, a1, -0x1
   13166: 05 26        	c.addiw	a2, 0x1
   13168: b3 f7 b4 03  	remu	a5, s1, s11
   1316c: 9b 87 07 03  	addiw	a5, a5, 0x30
   13170: a3 8f f5 fe  	sb	a5, -0x1(a1)
   13174: 6d d3        	c.beqz	a4, 0x13156 <_vfprintf_r+0x1016>
   13176: 83 c7 08 00  	lbu	a5, 0x0(a7)
   1317a: e3 1e f6 fc  	bne	a2, a5, 0x13156 <_vfprintf_r+0x1016>
   1317e: e3 8c 87 fd  	beq	a5, s8, 0x13156 <_vfprintf_r+0x1016>
   13182: 63 67 98 3e  	bltu	a6, s1, 0x13570 <_vfprintf_r+0x1430>
   13186: 32 fc        	c.sdsp	a2, 0x38(sp)
   13188: 46 e1        	c.sdsp	a7, 0x80(sp)
   1318a: bb 86 a6 41  	subw	a3, a3, s10
   1318e: e6 8d        	c.mv	s11, s9
   13190: 6f f0 af ae  	jal	zero, 0x1247a <_vfprintf_r+0x33a>
   13194: 1b 0b 07 00  	addiw	s6, a4, 0x0
   13198: e3 41 60 db  	blt	zero, s6, 0x12f3a <_vfprintf_r+0xdfa>
   1319c: 6d bb        	c.j	0x12f56 <_vfprintf_r+0xe16>
   1319e: 7d 5b        	c.li	s6, -0x1
   131a0: ba 89        	c.mv	s3, a4
   131a2: 6f f0 ef 8c  	jal	zero, 0x12270 <_vfprintf_r+0x130>
   131a6: ee 8c        	c.mv	s9, s11
   131a8: e9 b0        	c.j	0x12a72 <_vfprintf_r+0x932>
   131aa: b7 07 02 00  	lui	a5, 0x20
   131ae: 93 87 07 d8  	addi	a5, a5, -0x280
   131b2: be f0        	c.sdsp	a5, 0x60(sp)
   131b4: 82 76        	c.ldsp	a3, 0x20(sp)
   131b6: 93 f7 0d 02  	andi	a5, s11, 0x20
   131ba: 13 87 86 00  	addi	a4, a3, 0x8
   131be: 63 89 07 14  	beq	a5, zero, 0x13310 <_vfprintf_r+0x11d0>
   131c2: 84 62        	c.ld	s1, 0x0(a3)
   131c4: 93 f7 1d 00  	andi	a5, s11, 0x1
   131c8: 81 cf        	c.beqz	a5, 0x131e0 <_vfprintf_r+0x10a0>
   131ca: 99 c8        	c.beqz	s1, 0x131e0 <_vfprintf_r+0x10a0>
   131cc: 13 ee 2d 00  	ori	t3, s11, 0x2
   131d0: 93 07 00 03  	addi	a5, zero, 0x30
   131d4: 23 08 f1 0a  	sb	a5, 0xb0(sp)
   131d8: a3 08 61 0a  	sb	t1, 0xb1(sp)
   131dc: 9b 0d 0e 00  	addiw	s11, t3, 0x0
   131e0: 93 fc fd bf  	andi	s9, s11, -0x401
   131e4: 81 2c        	c.addiw	s9, 0x0
   131e6: 3a f0        	c.sdsp	a4, 0x20(sp)
   131e8: 89 47        	c.li	a5, 0x2
   131ea: 6f f0 2f ad  	jal	zero, 0x124bc <_vfprintf_r+0x37c>
   131ee: b7 07 02 00  	lui	a5, 0x20
   131f2: 93 87 87 d6  	addi	a5, a5, -0x298
   131f6: be f0        	c.sdsp	a5, 0x60(sp)
   131f8: 75 bf        	c.j	0x131b4 <_vfprintf_r+0x1074>
   131fa: 93 ed 0d 20  	ori	s11, s11, 0x200
   131fe: 03 c3 19 00  	lbu	t1, 0x1(s3)
   13202: 81 2d        	c.addiw	s11, 0x0
   13204: 85 09        	c.addi	s3, 0x1
   13206: 6f f0 6f 86  	jal	zero, 0x1226c <_vfprintf_r+0x12c>
   1320a: 93 ed 0d 02  	ori	s11, s11, 0x20
   1320e: 03 c3 19 00  	lbu	t1, 0x1(s3)
   13212: 81 2d        	c.addiw	s11, 0x0
   13214: 85 09        	c.addi	s3, 0x1
   13216: 6f f0 6f 85  	jal	zero, 0x1226c <_vfprintf_r+0x12c>
   1321a: 22 65        	c.ldsp	a0, 0x8(sp)
   1321c: 90 11        	c.addi4spn	a2, sp, 0xe0
   1321e: ca 85        	c.mv	a1, s2
   13220: ef 00 70 3f  	jal	ra, 0x13e16 <__sprint_r>
   13224: e3 1b 05 b8  	bne	a0, zero, 0x12dba <_vfprintf_r+0xc7a>
   13228: ce 74        	c.ldsp	s1, 0xf0(sp)
   1322a: 52 84        	c.mv	s0, s4
   1322c: 4d ba        	c.j	0x12bde <_vfprintf_r+0xa9e>
   1322e: 99 47        	c.li	a5, 0x6
   13230: 9b 06 0b 00  	addiw	a3, s6, 0x0
   13234: 63 ee 67 51  	bltu	a5, s6, 0x13750 <_vfprintf_r+0x1610>
   13238: b7 07 02 00  	lui	a5, 0x20
   1323c: 36 8c        	c.mv	s8, a3
   1323e: 26 f0        	c.sdsp	s1, 0x20(sp)
   13240: 13 8d 87 d9  	addi	s10, a5, -0x268
   13244: 6f f0 2f 89  	jal	zero, 0x122d6 <_vfprintf_r+0x196>
   13248: b7 08 02 00  	lui	a7, 0x20
   1324c: c1 46        	c.li	a3, 0x10
   1324e: 2e 57        	c.lwsp	a4, 0xe8(sp)
   13250: 93 88 08 00  	addi	a7, a7, 0x0
   13254: 63 d7 66 2f  	bge	a3, s6, 0x13542 <_vfprintf_r+0x1402>
   13258: c1 46        	c.li	a3, 0x10
   1325a: 1d 43        	c.li	t1, 0x7
   1325c: c6 8c        	c.mv	s9, a7
   1325e: 21 a0        	c.j	0x13266 <_vfprintf_r+0x1126>
   13260: 41 3b        	c.addiw	s6, -0x10
   13262: 63 df 66 2d  	bge	a3, s6, 0x13540 <_vfprintf_r+0x1400>
   13266: 05 27        	c.addiw	a4, 0x1
   13268: c1 04        	c.addi	s1, 0x10
   1326a: 23 30 94 01  	sd	s9, 0x0(s0)
   1326e: 14 e4        	c.sd	a3, 0x8(s0)
   13270: a6 f9        	c.sdsp	s1, 0xf0(sp)
   13272: ba d5        	c.swsp	a4, 0xe8(sp)
   13274: 41 04        	c.addi	s0, 0x10
   13276: e3 55 e3 fe  	bge	t1, a4, 0x13260 <_vfprintf_r+0x1120>
   1327a: 22 65        	c.ldsp	a0, 0x8(sp)
   1327c: 90 11        	c.addi4spn	a2, sp, 0xe0
   1327e: ca 85        	c.mv	a1, s2
   13280: ef 00 70 39  	jal	ra, 0x13e16 <__sprint_r>
   13284: e3 1b 05 b2  	bne	a0, zero, 0x12dba <_vfprintf_r+0xc7a>
   13288: ce 74        	c.ldsp	s1, 0xf0(sp)
   1328a: 2e 57        	c.lwsp	a4, 0xe8(sp)
   1328c: 52 84        	c.mv	s0, s4
   1328e: 1d 43        	c.li	t1, 0x7
   13290: c1 46        	c.li	a3, 0x10
   13292: f9 b7        	c.j	0x13260 <_vfprintf_r+0x1120>
   13294: ae 56        	c.lwsp	a3, 0xe8(sp)
   13296: c6 67        	c.ldsp	a5, 0x50(sp)
   13298: 66 66        	c.ldsp	a2, 0x58(sp)
   1329a: 41 04        	c.addi	s0, 0x10
   1329c: be 94        	c.add	s1, a5
   1329e: 23 38 c4 fe  	sd	a2, -0x10(s0)
   132a2: 1b 86 16 00  	addiw	a2, a3, 0x1
   132a6: 23 3c f4 fe  	sd	a5, -0x8(s0)
   132aa: a6 f9        	c.sdsp	s1, 0xf0(sp)
   132ac: b2 d5        	c.swsp	a2, 0xe8(sp)
   132ae: 9d 46        	c.li	a3, 0x7
   132b0: e3 dc c6 cc  	bge	a3, a2, 0x12f88 <_vfprintf_r+0xe48>
   132b4: 22 65        	c.ldsp	a0, 0x8(sp)
   132b6: 90 11        	c.addi4spn	a2, sp, 0xe0
   132b8: ca 85        	c.mv	a1, s2
   132ba: 1a f8        	c.sdsp	t1, 0x30(sp)
   132bc: ef 00 b0 35  	jal	ra, 0x13e16 <__sprint_r>
   132c0: e3 1d 05 ae  	bne	a0, zero, 0x12dba <_vfprintf_r+0xc7a>
   132c4: 6a 57        	c.lwsp	a4, 0xb8(sp)
   132c6: ce 74        	c.ldsp	s1, 0xf0(sp)
   132c8: 42 73        	c.ldsp	t1, 0x30(sp)
   132ca: 52 84        	c.mv	s0, s4
   132cc: 75 b9        	c.j	0x12f88 <_vfprintf_r+0xe48>
   132ce: 93 07 80 07  	addi	a5, zero, 0x78
   132d2: 93 06 00 03  	addi	a3, zero, 0x30
   132d6: 13 e7 2d 00  	ori	a4, s11, 0x2
   132da: a3 08 f1 0a  	sb	a5, 0xb1(sp)
   132de: 23 08 d1 0a  	sb	a3, 0xb0(sp)
   132e2: 93 07 30 06  	addi	a5, zero, 0x63
   132e6: 01 27        	c.addiw	a4, 0x0
   132e8: 63 c5 67 4d  	blt	a5, s6, 0x137b2 <_vfprintf_r+0x1672>
   132ec: ce 67        	c.ldsp	a5, 0xd0(sp)
   132ee: ee 6c        	c.ldsp	s9, 0xd8(sp)
   132f0: 13 ee 2d 10  	ori	t3, s11, 0x102
   132f4: 3e f8        	c.sdsp	a5, 0x30(sp)
   132f6: 9b 04 0e 00  	addiw	s1, t3, 0x0
   132fa: 63 c5 0c 62  	blt	s9, zero, 0x13924 <_vfprintf_r+0x17e4>
   132fe: 9b 06 f3 fb  	addiw	a3, t1, -0x41
   13302: ba 8d        	c.mv	s11, a4
   13304: 82 f4        	c.sdsp	zero, 0x68(sp)
   13306: 02 ec        	c.sdsp	zero, 0x18(sp)
   13308: 13 0d 81 0f  	addi	s10, sp, 0xf8
   1330c: 6f f0 af a9  	jal	zero, 0x125a6 <_vfprintf_r+0x466>
   13310: 93 f7 0d 01  	andi	a5, s11, 0x10
   13314: d9 c7        	c.beqz	a5, 0x133a2 <_vfprintf_r+0x1262>
   13316: 82 77        	c.ldsp	a5, 0x20(sp)
   13318: 84 63        	c.ld	s1, 0x0(a5)
   1331a: 6d b5        	c.j	0x131c4 <_vfprintf_r+0x1084>
   1331c: 22 65        	c.ldsp	a0, 0x8(sp)
   1331e: 90 11        	c.addi4spn	a2, sp, 0xe0
   13320: ca 85        	c.mv	a1, s2
   13322: ef 00 50 2f  	jal	ra, 0x13e16 <__sprint_r>
   13326: e3 1a 05 a8  	bne	a0, zero, 0x12dba <_vfprintf_r+0xc7a>
   1332a: ce 74        	c.ldsp	s1, 0xf0(sp)
   1332c: 2e 5b        	c.lwsp	s6, 0xe8(sp)
   1332e: d2 8c        	c.mv	s9, s4
   13330: 6f f0 ef d2  	jal	zero, 0x1285e <_vfprintf_r+0x71e>
   13334: 22 65        	c.ldsp	a0, 0x8(sp)
   13336: 90 11        	c.addi4spn	a2, sp, 0xe0
   13338: ca 85        	c.mv	a1, s2
   1333a: ef 00 d0 2d  	jal	ra, 0x13e16 <__sprint_r>
   1333e: e3 1e 05 a6  	bne	a0, zero, 0x12dba <_vfprintf_r+0xc7a>
   13342: ce 74        	c.ldsp	s1, 0xf0(sp)
   13344: 2e 5b        	c.lwsp	s6, 0xe8(sp)
   13346: d2 8c        	c.mv	s9, s4
   13348: 6f f0 2f d3  	jal	zero, 0x1287a <_vfprintf_r+0x73a>
   1334c: ae 56        	c.lwsp	a3, 0xe8(sp)
   1334e: 37 06 02 00  	lui	a2, 0x20
   13352: 13 06 06 da  	addi	a2, a2, -0x260
   13356: 85 26        	c.addiw	a3, 0x1
   13358: 10 e0        	c.sd	a2, 0x0(s0)
   1335a: 85 04        	c.addi	s1, 0x1
   1335c: 05 46        	c.li	a2, 0x1
   1335e: 10 e4        	c.sd	a2, 0x8(s0)
   13360: b6 d5        	c.swsp	a3, 0xe8(sp)
   13362: 1b 86 06 00  	addiw	a2, a3, 0x0
   13366: a6 f9        	c.sdsp	s1, 0xf0(sp)
   13368: 9d 46        	c.li	a3, 0x7
   1336a: 41 04        	c.addi	s0, 0x10
   1336c: 63 c7 c6 3a  	blt	a3, a2, 0x1371a <_vfprintf_r+0x15da>
   13370: 63 14 07 10  	bne	a4, zero, 0x13478 <_vfprintf_r+0x1338>
   13374: e2 77        	c.ldsp	a5, 0x38(sp)
   13376: 13 f7 1d 00  	andi	a4, s11, 0x1
   1337a: 5d 8f        	c.or	a4, a5
   1337c: 19 e3        	c.bnez	a4, 0x13382 <_vfprintf_r+0x1242>
   1337e: 6f e0 7f ff  	jal	zero, 0x12374 <_vfprintf_r+0x234>
   13382: 2e 57        	c.lwsp	a4, 0xe8(sp)
   13384: c6 67        	c.ldsp	a5, 0x50(sp)
   13386: e6 66        	c.ldsp	a3, 0x58(sp)
   13388: 33 86 97 00  	add	a2, a5, s1
   1338c: 14 e0        	c.sd	a3, 0x0(s0)
   1338e: 9b 06 17 00  	addiw	a3, a4, 0x1
   13392: 1c e4        	c.sd	a5, 0x8(s0)
   13394: b2 f9        	c.sdsp	a2, 0xf0(sp)
   13396: b6 d5        	c.swsp	a3, 0xe8(sp)
   13398: 1d 47        	c.li	a4, 0x7
   1339a: 63 40 d7 40  	blt	a4, a3, 0x1379a <_vfprintf_r+0x165a>
   1339e: 41 04        	c.addi	s0, 0x10
   133a0: fd a8        	c.j	0x1349e <_vfprintf_r+0x135e>
   133a2: 82 76        	c.ldsp	a3, 0x20(sp)
   133a4: 93 f7 0d 04  	andi	a5, s11, 0x40
   133a8: 84 42        	c.lw	s1, 0x0(a3)
   133aa: 63 86 07 16  	beq	a5, zero, 0x13516 <_vfprintf_r+0x13d6>
   133ae: c2 14        	c.slli	s1, 0x30
   133b0: c1 90        	c.srli	s1, 0x30
   133b2: 09 bd        	c.j	0x131c4 <_vfprintf_r+0x1084>
   133b4: 22 65        	c.ldsp	a0, 0x8(sp)
   133b6: ef e0 ef a3  	jal	ra, 0x115f4 <__sinit>
   133ba: 6f e0 1f dc  	jal	zero, 0x1217a <_vfprintf_r+0x3a>
   133be: 22 65        	c.ldsp	a0, 0x8(sp)
   133c0: 90 11        	c.addi4spn	a2, sp, 0xe0
   133c2: ca 85        	c.mv	a1, s2
   133c4: ef 00 30 25  	jal	ra, 0x13e16 <__sprint_r>
   133c8: e3 19 05 9e  	bne	a0, zero, 0x12dba <_vfprintf_r+0xc7a>
   133cc: ce 74        	c.ldsp	s1, 0xf0(sp)
   133ce: 52 84        	c.mv	s0, s4
   133d0: 6f f0 8f fe  	jal	zero, 0x12bb8 <_vfprintf_r+0xa78>
   133d4: da 88        	c.mv	a7, s6
   133d6: 4e 8b        	c.mv	s6, s3
   133d8: c2 79        	c.ldsp	s3, 0x30(sp)
   133da: 1b 87 17 00  	addiw	a4, a5, 0x1
   133de: 23 30 14 01  	sd	a7, 0x0(s0)
   133e2: 23 34 64 01  	sd	s6, 0x8(s0)
   133e6: da 94        	c.add	s1, s6
   133e8: a6 f9        	c.sdsp	s1, 0xf0(sp)
   133ea: ba d5        	c.swsp	a4, 0xe8(sp)
   133ec: 9d 47        	c.li	a5, 0x7
   133ee: 63 c4 e7 00  	blt	a5, a4, 0x133f6 <_vfprintf_r+0x12b6>
   133f2: 6f e0 1f f8  	jal	zero, 0x12372 <_vfprintf_r+0x232>
   133f6: 6f f0 8f cd  	jal	zero, 0x128ce <_vfprintf_r+0x78e>
   133fa: 3a f0        	c.sdsp	a4, 0x20(sp)
   133fc: d9 ba        	c.j	0x12dd2 <_vfprintf_r+0xc92>
   133fe: 4e 65        	c.ldsp	a0, 0xd0(sp)
   13400: ee 65        	c.ldsp	a1, 0xd8(sp)
   13402: 01 46        	c.li	a2, 0x0
   13404: 81 46        	c.li	a3, 0x0
   13406: ef 50 40 40  	jal	ra, 0x1880a <__lttf2>
   1340a: 62 63        	c.ldsp	t1, 0x18(sp)
   1340c: 63 48 05 54  	blt	a0, zero, 0x1395c <_vfprintf_r+0x181c>
   13410: 03 47 f1 0a  	lbu	a4, 0xaf(sp)
   13414: 93 07 70 04  	addi	a5, zero, 0x47
   13418: 63 dc 67 30  	bge	a5, t1, 0x13730 <_vfprintf_r+0x15f0>
   1341c: b7 07 02 00  	lui	a5, 0x20
   13420: 13 8d 07 d5  	addi	s10, a5, -0x2b0
   13424: 13 fe fd f7  	andi	t3, s11, -0x81
   13428: 02 ec        	c.sdsp	zero, 0x18(sp)
   1342a: 82 e4        	c.sdsp	zero, 0x48(sp)
   1342c: 82 e0        	c.sdsp	zero, 0x40(sp)
   1342e: 02 f8        	c.sdsp	zero, 0x30(sp)
   13430: 9b 0d 0e 00  	addiw	s11, t3, 0x0
   13434: 0d 4c        	c.li	s8, 0x3
   13436: 8d 46        	c.li	a3, 0x3
   13438: 01 4b        	c.li	s6, 0x0
   1343a: 19 c3        	c.beqz	a4, 0x13440 <_vfprintf_r+0x1300>
   1343c: 6f f0 af 85  	jal	zero, 0x12496 <_vfprintf_r+0x356>
   13440: 6f e0 1f ea  	jal	zero, 0x122e0 <_vfprintf_r+0x1a0>
   13444: 6a 85        	c.mv	a0, s10
   13446: 9a f4        	c.sdsp	t1, 0x68(sp)
   13448: ef e0 4f fe  	jal	ra, 0x11c2c <strlen>
   1344c: 9b 06 05 00  	addiw	a3, a0, 0x0
   13450: 03 47 f1 0a  	lbu	a4, 0xaf(sp)
   13454: 13 c8 f6 ff  	xori	a6, a3, -0x1
   13458: 13 58 f8 43  	srai	a6, a6, 0x3f
   1345c: 26 f0        	c.sdsp	s1, 0x20(sp)
   1345e: 02 ec        	c.sdsp	zero, 0x18(sp)
   13460: 82 e4        	c.sdsp	zero, 0x48(sp)
   13462: 82 e0        	c.sdsp	zero, 0x40(sp)
   13464: 02 f8        	c.sdsp	zero, 0x30(sp)
   13466: 26 73        	c.ldsp	t1, 0x68(sp)
   13468: 33 7c d8 00  	and	s8, a6, a3
   1346c: 01 4b        	c.li	s6, 0x0
   1346e: 19 c3        	c.beqz	a4, 0x13474 <_vfprintf_r+0x1334>
   13470: 6f f0 6f 82  	jal	zero, 0x12496 <_vfprintf_r+0x356>
   13474: 6f e0 df e6  	jal	zero, 0x122e0 <_vfprintf_r+0x1a0>
   13478: ae 55        	c.lwsp	a1, 0xe8(sp)
   1347a: c6 67        	c.ldsp	a5, 0x50(sp)
   1347c: e6 66        	c.ldsp	a3, 0x58(sp)
   1347e: 41 04        	c.addi	s0, 0x10
   13480: 33 86 97 00  	add	a2, a5, s1
   13484: 23 38 d4 fe  	sd	a3, -0x10(s0)
   13488: 9b 86 15 00  	addiw	a3, a1, 0x1
   1348c: 23 3c f4 fe  	sd	a5, -0x8(s0)
   13490: b2 f9        	c.sdsp	a2, 0xf0(sp)
   13492: b6 d5        	c.swsp	a3, 0xe8(sp)
   13494: 9d 45        	c.li	a1, 0x7
   13496: 63 c2 d5 30  	blt	a1, a3, 0x1379a <_vfprintf_r+0x165a>
   1349a: 63 4b 07 54  	blt	a4, zero, 0x139f0 <_vfprintf_r+0x18b0>
   1349e: e2 77        	c.ldsp	a5, 0x38(sp)
   134a0: 1b 87 16 00  	addiw	a4, a3, 0x1
   134a4: 23 30 a4 01  	sd	s10, 0x0(s0)
   134a8: b3 84 c7 00  	add	s1, a5, a2
   134ac: 1c e4        	c.sd	a5, 0x8(s0)
   134ae: a6 f9        	c.sdsp	s1, 0xf0(sp)
   134b0: ba d5        	c.swsp	a4, 0xe8(sp)
   134b2: 9d 47        	c.li	a5, 0x7
   134b4: 63 c4 e7 00  	blt	a5, a4, 0x134bc <_vfprintf_r+0x137c>
   134b8: 6f e0 bf eb  	jal	zero, 0x12372 <_vfprintf_r+0x232>
   134bc: 6f f0 2f c1  	jal	zero, 0x128ce <_vfprintf_r+0x78e>
   134c0: ce 88        	c.mv	a7, s3
   134c2: c2 79        	c.ldsp	s3, 0x30(sp)
   134c4: 05 2b        	c.addiw	s6, 0x1
   134c6: a2 94        	c.add	s1, s0
   134c8: 23 b0 1c 01  	sd	a7, 0x0(s9)
   134cc: 23 b4 8c 00  	sd	s0, 0x8(s9)
   134d0: a6 f9        	c.sdsp	s1, 0xf0(sp)
   134d2: da d5        	c.swsp	s6, 0xe8(sp)
   134d4: 9d 47        	c.li	a5, 0x7
   134d6: 63 da 67 bd  	bge	a5, s6, 0x128aa <_vfprintf_r+0x76a>
   134da: b1 be        	c.j	0x13036 <_vfprintf_r+0xef6>
   134dc: 93 f7 0d 20  	andi	a5, s11, 0x200
   134e0: 63 86 07 28  	beq	a5, zero, 0x1376c <_vfprintf_r+0x162c>
   134e4: 93 f4 f4 0f  	andi	s1, s1, 0xff
   134e8: 6f e0 bf fc  	jal	zero, 0x124b2 <_vfprintf_r+0x372>
   134ec: 93 f7 0d 20  	andi	a5, s11, 0x200
   134f0: 63 8b 07 26  	beq	a5, zero, 0x13766 <_vfprintf_r+0x1626>
   134f4: 9b 94 84 01  	slliw	s1, s1, 0x18
   134f8: 9b d4 84 41  	sraiw	s1, s1, 0x18
   134fc: a6 87        	c.mv	a5, s1
   134fe: 6f e0 7f f5  	jal	zero, 0x12454 <_vfprintf_r+0x314>
   13502: 93 f7 0c 20  	andi	a5, s9, 0x200
   13506: 63 8a 07 24  	beq	a5, zero, 0x1375a <_vfprintf_r+0x161a>
   1350a: 93 f4 f4 0f  	andi	s1, s1, 0xff
   1350e: 3a f0        	c.sdsp	a4, 0x20(sp)
   13510: 85 47        	c.li	a5, 0x1
   13512: 6f e0 bf fa  	jal	zero, 0x124bc <_vfprintf_r+0x37c>
   13516: 93 f7 0d 20  	andi	a5, s11, 0x200
   1351a: 63 8d 07 22  	beq	a5, zero, 0x13754 <_vfprintf_r+0x1614>
   1351e: 93 f4 f4 0f  	andi	s1, s1, 0xff
   13522: 4d b1        	c.j	0x131c4 <_vfprintf_r+0x1084>
   13524: ee 67        	c.ldsp	a5, 0xd8(sp)
   13526: 63 c3 07 26  	blt	a5, zero, 0x1378c <_vfprintf_r+0x164c>
   1352a: 03 47 f1 0a  	lbu	a4, 0xaf(sp)
   1352e: 93 07 70 04  	addi	a5, zero, 0x47
   13532: 63 ca 67 4a  	blt	a5, t1, 0x139e6 <_vfprintf_r+0x18a6>
   13536: b7 07 02 00  	lui	a5, 0x20
   1353a: 13 8d 87 d5  	addi	s10, a5, -0x2a8
   1353e: dd b5        	c.j	0x13424 <_vfprintf_r+0x12e4>
   13540: e6 88        	c.mv	a7, s9
   13542: 9b 06 17 00  	addiw	a3, a4, 0x1
   13546: da 94        	c.add	s1, s6
   13548: 23 30 14 01  	sd	a7, 0x0(s0)
   1354c: 23 34 64 01  	sd	s6, 0x8(s0)
   13550: a6 f9        	c.sdsp	s1, 0xf0(sp)
   13552: b6 d5        	c.swsp	a3, 0xe8(sp)
   13554: 1d 47        	c.li	a4, 0x7
   13556: 41 04        	c.addi	s0, 0x10
   13558: e3 59 d7 a0  	bge	a4, a3, 0x12f6a <_vfprintf_r+0xe2a>
   1355c: 22 65        	c.ldsp	a0, 0x8(sp)
   1355e: 90 11        	c.addi4spn	a2, sp, 0xe0
   13560: ca 85        	c.mv	a1, s2
   13562: ef 00 50 0b  	jal	ra, 0x13e16 <__sprint_r>
   13566: e3 1a 05 84  	bne	a0, zero, 0x12dba <_vfprintf_r+0xc7a>
   1356a: ce 74        	c.ldsp	s1, 0xf0(sp)
   1356c: 52 84        	c.mv	s0, s4
   1356e: f5 ba        	c.j	0x12f6a <_vfprintf_r+0xe2a>
   13570: aa 67        	c.ldsp	a5, 0x88(sp)
   13572: e6 75        	c.ldsp	a1, 0x78(sp)
   13574: b6 e0        	c.sdsp	a3, 0x40(sp)
   13576: 33 0d fd 40  	sub	s10, s10, a5
   1357a: 3e 86        	c.mv	a2, a5
   1357c: 6a 85        	c.mv	a0, s10
   1357e: 3a fc        	c.sdsp	a4, 0x38(sp)
   13580: 1a f8        	c.sdsp	t1, 0x30(sp)
   13582: 46 ec        	c.sdsp	a7, 0x18(sp)
   13584: ef 20 a0 0c  	jal	ra, 0x1564e <strncpy>
   13588: e2 68        	c.ldsp	a7, 0x18(sp)
   1358a: a9 47        	c.li	a5, 0xa
   1358c: b3 d7 f4 02  	divu	a5, s1, a5
   13590: 03 c6 18 00  	lbu	a2, 0x1(a7)
   13594: 42 73        	c.ldsp	t1, 0x30(sp)
   13596: 62 77        	c.ldsp	a4, 0x38(sp)
   13598: 33 36 c0 00  	sltu	a2, zero, a2
   1359c: b2 98        	c.add	a7, a2
   1359e: 86 66        	c.ldsp	a3, 0x40(sp)
   135a0: 01 46        	c.li	a2, 0x0
   135a2: 25 48        	c.li	a6, 0x9
   135a4: 6d be        	c.j	0x1315e <_vfprintf_r+0x101e>
   135a6: e2 77        	c.ldsp	a5, 0x38(sp)
   135a8: 86 6c        	c.ldsp	s9, 0x40(sp)
   135aa: b7 08 02 00  	lui	a7, 0x20
   135ae: b3 05 fd 00  	add	a1, s10, a5
   135b2: ce f4        	c.sdsp	s3, 0x68(sp)
   135b4: 6e e9        	c.sdsp	s11, 0x90(sp)
   135b6: 5e ed        	c.sdsp	s7, 0x98(sp)
   135b8: a6 6d        	c.ldsp	s11, 0x48(sp)
   135ba: e2 e0        	c.sdsp	s8, 0x40(sp)
   135bc: ea e4        	c.sdsp	s10, 0x48(sp)
   135be: 26 86        	c.mv	a2, s1
   135c0: aa 6b        	c.ldsp	s7, 0x88(sp)
   135c2: 0a 6c        	c.ldsp	s8, 0x80(sp)
   135c4: a2 69        	c.ldsp	s3, 0x8(sp)
   135c6: 9d 46        	c.li	a3, 0x7
   135c8: 41 47        	c.li	a4, 0x10
   135ca: 13 8b 08 00  	addi	s6, a7, 0x0
   135ce: a2 87        	c.mv	a5, s0
   135d0: 1a 8d        	c.mv	s10, t1
   135d2: ae 84        	c.mv	s1, a1
   135d4: 63 5d 90 07  	bge	zero, s9, 0x1364e <_vfprintf_r+0x150e>
   135d8: 63 52 b0 11  	bge	zero, s11, 0x136dc <_vfprintf_r+0x159c>
   135dc: fd 3d        	c.addiw	s11, -0x1
   135de: ae 55        	c.lwsp	a1, 0xe8(sp)
   135e0: 66 75        	c.ldsp	a0, 0x78(sp)
   135e2: 5e 96        	c.add	a2, s7
   135e4: 23 b4 77 01  	sd	s7, 0x8(a5)
   135e8: 88 e3        	c.sd	a0, 0x0(a5)
   135ea: 1b 85 15 00  	addiw	a0, a1, 0x1
   135ee: b2 f9        	c.sdsp	a2, 0xf0(sp)
   135f0: aa d5        	c.swsp	a0, 0xe8(sp)
   135f2: c1 07        	c.addi	a5, 0x10
   135f4: 63 c7 a6 0e  	blt	a3, a0, 0x136e2 <_vfprintf_r+0x15a2>
   135f8: 83 45 0c 00  	lbu	a1, 0x0(s8)
   135fc: 33 8f a4 41  	sub	t5, s1, s10
   13600: 1b 05 0f 00  	addiw	a0, t5, 0x0
   13604: 1b 88 05 00  	addiw	a6, a1, 0x0
   13608: 63 d3 a5 00  	bge	a1, a0, 0x1360e <_vfprintf_r+0x14ce>
   1360c: 42 8f        	c.mv	t5, a6
   1360e: 1b 04 0f 00  	addiw	s0, t5, 0x0
   13612: 63 52 80 02  	bge	zero, s0, 0x13636 <_vfprintf_r+0x14f6>
   13616: ae 55        	c.lwsp	a1, 0xe8(sp)
   13618: 22 96        	c.add	a2, s0
   1361a: 23 b0 a7 01  	sd	s10, 0x0(a5)
   1361e: 1b 85 15 00  	addiw	a0, a1, 0x1
   13622: 80 e7        	c.sd	s0, 0x8(a5)
   13624: b2 f9        	c.sdsp	a2, 0xf0(sp)
   13626: aa d5        	c.swsp	a0, 0xe8(sp)
   13628: 63 c9 a6 0c  	blt	a3, a0, 0x136fa <_vfprintf_r+0x15ba>
   1362c: 83 45 0c 00  	lbu	a1, 0x0(s8)
   13630: c1 07        	c.addi	a5, 0x10
   13632: 1b 88 05 00  	addiw	a6, a1, 0x0
   13636: 13 45 f4 ff  	xori	a0, s0, -0x1
   1363a: 7d 95        	c.srai	a0, 0x3f
   1363c: 33 7f a4 00  	and	t5, s0, a0
   13640: 3b 04 e8 41  	subw	s0, a6, t5
   13644: 63 47 80 02  	blt	zero, s0, 0x13672 <_vfprintf_r+0x1532>
   13648: 2e 9d        	c.add	s10, a1
   1364a: e3 47 90 f9  	blt	zero, s9, 0x135d8 <_vfprintf_r+0x1498>
   1364e: e3 47 b0 f9  	blt	zero, s11, 0x135dc <_vfprintf_r+0x149c>
   13652: 6a 83        	c.mv	t1, s10
   13654: 3e 84        	c.mv	s0, a5
   13656: 26 6d        	c.ldsp	s10, 0x48(sp)
   13658: e2 77        	c.ldsp	a5, 0x38(sp)
   1365a: 62 e1        	c.sdsp	s8, 0x80(sp)
   1365c: a6 79        	c.ldsp	s3, 0x68(sp)
   1365e: 33 07 fd 00  	add	a4, s10, a5
   13662: ca 6d        	c.ldsp	s11, 0x90(sp)
   13664: ea 6b        	c.ldsp	s7, 0x98(sp)
   13666: 06 6c        	c.ldsp	s8, 0x40(sp)
   13668: b2 84        	c.mv	s1, a2
   1366a: e3 77 67 90  	bgeu	a4, t1, 0x12f78 <_vfprintf_r+0xe38>
   1366e: 3a 83        	c.mv	t1, a4
   13670: 21 b2        	c.j	0x12f78 <_vfprintf_r+0xe38>
   13672: 37 0f 02 00  	lui	t5, 0x20
   13676: ae 55        	c.lwsp	a1, 0xe8(sp)
   13678: 13 0f 0f 00  	addi	t5, t5, 0x0
   1367c: 63 51 87 04  	bge	a4, s0, 0x136be <_vfprintf_r+0x157e>
   13680: 5a f8        	c.sdsp	s6, 0x30(sp)
   13682: 21 a0        	c.j	0x1368a <_vfprintf_r+0x154a>
   13684: 41 34        	c.addiw	s0, -0x10
   13686: 63 5b 87 02  	bge	a4, s0, 0x136bc <_vfprintf_r+0x157c>
   1368a: 85 25        	c.addiw	a1, 0x1
   1368c: 41 06        	c.addi	a2, 0x10
   1368e: 23 b0 67 01  	sd	s6, 0x0(a5)
   13692: 98 e7        	c.sd	a4, 0x8(a5)
   13694: b2 f9        	c.sdsp	a2, 0xf0(sp)
   13696: ae d5        	c.swsp	a1, 0xe8(sp)
   13698: c1 07        	c.addi	a5, 0x10
   1369a: e3 d5 b6 fe  	bge	a3, a1, 0x13684 <_vfprintf_r+0x1544>
   1369e: 90 11        	c.addi4spn	a2, sp, 0xe0
   136a0: ca 85        	c.mv	a1, s2
   136a2: 4e 85        	c.mv	a0, s3
   136a4: ef 00 20 77  	jal	ra, 0x13e16 <__sprint_r>
   136a8: 63 19 05 f0  	bne	a0, zero, 0x12dba <_vfprintf_r+0xc7a>
   136ac: 41 47        	c.li	a4, 0x10
   136ae: 41 34        	c.addiw	s0, -0x10
   136b0: 4e 76        	c.ldsp	a2, 0xf0(sp)
   136b2: ae 55        	c.lwsp	a1, 0xe8(sp)
   136b4: d2 87        	c.mv	a5, s4
   136b6: 9d 46        	c.li	a3, 0x7
   136b8: e3 49 87 fc  	blt	a4, s0, 0x1368a <_vfprintf_r+0x154a>
   136bc: 42 7f        	c.ldsp	t5, 0x30(sp)
   136be: 1b 85 15 00  	addiw	a0, a1, 0x1
   136c2: 22 96        	c.add	a2, s0
   136c4: 23 b0 e7 01  	sd	t5, 0x0(a5)
   136c8: 80 e7        	c.sd	s0, 0x8(a5)
   136ca: b2 f9        	c.sdsp	a2, 0xf0(sp)
   136cc: aa d5        	c.swsp	a0, 0xe8(sp)
   136ce: 63 c8 a6 26  	blt	a3, a0, 0x1393e <_vfprintf_r+0x17fe>
   136d2: 83 45 0c 00  	lbu	a1, 0x0(s8)
   136d6: c1 07        	c.addi	a5, 0x10
   136d8: 2e 9d        	c.add	s10, a1
   136da: 85 bf        	c.j	0x1364a <_vfprintf_r+0x150a>
   136dc: 7d 1c        	c.addi	s8, -0x1
   136de: fd 3c        	c.addiw	s9, -0x1
   136e0: fd bd        	c.j	0x135de <_vfprintf_r+0x149e>
   136e2: 90 11        	c.addi4spn	a2, sp, 0xe0
   136e4: ca 85        	c.mv	a1, s2
   136e6: 4e 85        	c.mv	a0, s3
   136e8: ef 00 e0 72  	jal	ra, 0x13e16 <__sprint_r>
   136ec: 63 17 05 ec  	bne	a0, zero, 0x12dba <_vfprintf_r+0xc7a>
   136f0: 4e 76        	c.ldsp	a2, 0xf0(sp)
   136f2: d2 87        	c.mv	a5, s4
   136f4: 41 47        	c.li	a4, 0x10
   136f6: 9d 46        	c.li	a3, 0x7
   136f8: 01 b7        	c.j	0x135f8 <_vfprintf_r+0x14b8>
   136fa: 90 11        	c.addi4spn	a2, sp, 0xe0
   136fc: ca 85        	c.mv	a1, s2
   136fe: 4e 85        	c.mv	a0, s3
   13700: ef 00 60 71  	jal	ra, 0x13e16 <__sprint_r>
   13704: 63 1b 05 ea  	bne	a0, zero, 0x12dba <_vfprintf_r+0xc7a>
   13708: 83 45 0c 00  	lbu	a1, 0x0(s8)
   1370c: 4e 76        	c.ldsp	a2, 0xf0(sp)
   1370e: d2 87        	c.mv	a5, s4
   13710: 1b 88 05 00  	addiw	a6, a1, 0x0
   13714: 41 47        	c.li	a4, 0x10
   13716: 9d 46        	c.li	a3, 0x7
   13718: 39 bf        	c.j	0x13636 <_vfprintf_r+0x14f6>
   1371a: 22 65        	c.ldsp	a0, 0x8(sp)
   1371c: 90 11        	c.addi4spn	a2, sp, 0xe0
   1371e: ca 85        	c.mv	a1, s2
   13720: ef 00 60 6f  	jal	ra, 0x13e16 <__sprint_r>
   13724: 63 1b 05 e8  	bne	a0, zero, 0x12dba <_vfprintf_r+0xc7a>
   13728: 6a 57        	c.lwsp	a4, 0xb8(sp)
   1372a: ce 74        	c.ldsp	s1, 0xf0(sp)
   1372c: 52 84        	c.mv	s0, s4
   1372e: 89 b1        	c.j	0x13370 <_vfprintf_r+0x1230>
   13730: b7 07 02 00  	lui	a5, 0x20
   13734: 13 8d 87 d4  	addi	s10, a5, -0x2b8
   13738: f5 b1        	c.j	0x13424 <_vfprintf_r+0x12e4>
   1373a: 22 65        	c.ldsp	a0, 0x8(sp)
   1373c: 90 11        	c.addi4spn	a2, sp, 0xe0
   1373e: ca 85        	c.mv	a1, s2
   13740: ef 00 60 6d  	jal	ra, 0x13e16 <__sprint_r>
   13744: 63 1b 05 e6  	bne	a0, zero, 0x12dba <_vfprintf_r+0xc7a>
   13748: ce 74        	c.ldsp	s1, 0xf0(sp)
   1374a: 52 84        	c.mv	s0, s4
   1374c: 6f f0 bf 80  	jal	zero, 0x12f56 <_vfprintf_r+0xe16>
   13750: 99 46        	c.li	a3, 0x6
   13752: dd b4        	c.j	0x13238 <_vfprintf_r+0x10f8>
   13754: 82 14        	c.slli	s1, 0x20
   13756: 81 90        	c.srli	s1, 0x20
   13758: b5 b4        	c.j	0x131c4 <_vfprintf_r+0x1084>
   1375a: 82 14        	c.slli	s1, 0x20
   1375c: 81 90        	c.srli	s1, 0x20
   1375e: 3a f0        	c.sdsp	a4, 0x20(sp)
   13760: 85 47        	c.li	a5, 0x1
   13762: 6f e0 bf d5  	jal	zero, 0x124bc <_vfprintf_r+0x37c>
   13766: a6 87        	c.mv	a5, s1
   13768: 6f e0 df ce  	jal	zero, 0x12454 <_vfprintf_r+0x314>
   1376c: 82 14        	c.slli	s1, 0x20
   1376e: 81 90        	c.srli	s1, 0x20
   13770: 6f e0 3f d4  	jal	zero, 0x124b2 <_vfprintf_r+0x372>
   13774: c2 67        	c.ldsp	a5, 0x10(sp)
   13776: 23 10 f7 00  	sh	a5, 0x0(a4)
   1377a: 6f f0 cf bc  	jal	zero, 0x12b46 <_vfprintf_r+0xa06>
   1377e: 22 65        	c.ldsp	a0, 0x8(sp)
   13780: 90 11        	c.addi4spn	a2, sp, 0xe0
   13782: ca 85        	c.mv	a1, s2
   13784: ef 00 20 69  	jal	ra, 0x13e16 <__sprint_r>
   13788: 6f e0 1f c3  	jal	zero, 0x123b8 <_vfprintf_r+0x278>
   1378c: 93 07 d0 02  	addi	a5, zero, 0x2d
   13790: a3 07 f1 0a  	sb	a5, 0xaf(sp)
   13794: 13 07 d0 02  	addi	a4, zero, 0x2d
   13798: 59 bb        	c.j	0x1352e <_vfprintf_r+0x13ee>
   1379a: 22 65        	c.ldsp	a0, 0x8(sp)
   1379c: 90 11        	c.addi4spn	a2, sp, 0xe0
   1379e: ca 85        	c.mv	a1, s2
   137a0: ef 00 60 67  	jal	ra, 0x13e16 <__sprint_r>
   137a4: 63 1b 05 e0  	bne	a0, zero, 0x12dba <_vfprintf_r+0xc7a>
   137a8: 6a 57        	c.lwsp	a4, 0xb8(sp)
   137aa: 4e 76        	c.ldsp	a2, 0xf0(sp)
   137ac: ae 56        	c.lwsp	a3, 0xe8(sp)
   137ae: 52 84        	c.mv	s0, s4
   137b0: ed b1        	c.j	0x1349a <_vfprintf_r+0x135a>
   137b2: 22 65        	c.ldsp	a0, 0x8(sp)
   137b4: 9b 05 1b 00  	addiw	a1, s6, 0x1
   137b8: 3a f8        	c.sdsp	a4, 0x30(sp)
   137ba: 1a ec        	c.sdsp	t1, 0x18(sp)
   137bc: ef d0 2f 9c  	jal	ra, 0x1097e <_malloc_r>
   137c0: 62 63        	c.ldsp	t1, 0x18(sp)
   137c2: 42 77        	c.ldsp	a4, 0x30(sp)
   137c4: 2a 8d        	c.mv	s10, a0
   137c6: 63 06 05 4c  	beq	a0, zero, 0x13c92 <_vfprintf_r+0x1b52>
   137ca: 2a ec        	c.sdsp	a0, 0x18(sp)
   137cc: ba 8d        	c.mv	s11, a4
   137ce: 6f e0 1f db  	jal	zero, 0x1257e <_vfprintf_r+0x43e>
   137d2: c2 75        	c.ldsp	a1, 0x30(sp)
   137d4: 22 65        	c.ldsp	a0, 0x8(sp)
   137d6: 5a 87        	c.mv	a4, s6
   137d8: 93 08 81 0c  	addi	a7, sp, 0xc8
   137dc: 13 08 c1 0b  	addi	a6, sp, 0xbc
   137e0: 3c 19        	c.addi4spn	a5, sp, 0xb8
   137e2: 89 46        	c.li	a3, 0x2
   137e4: 66 86        	c.mv	a2, s9
   137e6: ef 20 40 2e  	jal	ra, 0x15aca <_ldtoa_r>
   137ea: 62 73        	c.ldsp	t1, 0x38(sp)
   137ec: 13 07 70 04  	addi	a4, zero, 0x47
   137f0: 2a 8d        	c.mv	s10, a0
   137f2: 63 18 e3 4a  	bne	t1, a4, 0x13ca2 <_vfprintf_r+0x1b62>
   137f6: 13 f7 1d 00  	andi	a4, s11, 0x1
   137fa: 63 1e 07 1a  	bne	a4, zero, 0x139b6 <_vfprintf_r+0x1876>
   137fe: ea 57        	c.lwsp	a5, 0xb8(sp)
   13800: 3e f8        	c.sdsp	a5, 0x30(sp)
   13802: ae 67        	c.ldsp	a5, 0xc8(sp)
   13804: bb 87 a7 41  	subw	a5, a5, s10
   13808: 3e fc        	c.sdsp	a5, 0x38(sp)
   1380a: c2 77        	c.ldsp	a5, 0x30(sp)
   1380c: 75 57        	c.li	a4, -0x3
   1380e: 63 c4 e7 00  	blt	a5, a4, 0x13816 <_vfprintf_r+0x16d6>
   13812: 63 57 fb 0c  	bge	s6, a5, 0x138e0 <_vfprintf_r+0x17a0>
   13816: c2 77        	c.ldsp	a5, 0x30(sp)
   13818: 79 33        	c.addiw	t1, -0x2
   1381a: 1b 87 f7 ff  	addiw	a4, a5, -0x1
   1381e: 3a dd        	c.swsp	a4, 0xb8(sp)
   13820: 93 76 f3 0f  	andi	a3, t1, 0xff
   13824: 01 46        	c.li	a2, 0x0
   13826: 6f e0 3f f2  	jal	zero, 0x12748 <_vfprintf_r+0x608>
   1382a: c2 77        	c.ldsp	a5, 0x30(sp)
   1382c: 83 c5 a7 00  	lbu	a1, 0xa(a5)
   13830: a3 8f b6 fe  	sb	a1, -0x1(a3)
   13834: 6f e0 5f ee  	jal	zero, 0x12718 <_vfprintf_r+0x5d8>
   13838: 03 47 f1 0a  	lbu	a4, 0xaf(sp)
   1383c: 01 4b        	c.li	s6, 0x0
   1383e: 19 c3        	c.beqz	a4, 0x13844 <_vfprintf_r+0x1704>
   13840: 6f e0 7f c5  	jal	zero, 0x12496 <_vfprintf_r+0x356>
   13844: 6f e0 df a9  	jal	zero, 0x122e0 <_vfprintf_r+0x1a0>
   13848: 5a 87        	c.mv	a4, s6
   1384a: 8d 46        	c.li	a3, 0x3
   1384c: c2 75        	c.ldsp	a1, 0x30(sp)
   1384e: 22 65        	c.ldsp	a0, 0x8(sp)
   13850: 93 08 81 0c  	addi	a7, sp, 0xc8
   13854: 13 08 c1 0b  	addi	a6, sp, 0xbc
   13858: 3c 19        	c.addi4spn	a5, sp, 0xb8
   1385a: 66 86        	c.mv	a2, s9
   1385c: 9a e0        	c.sdsp	t1, 0x40(sp)
   1385e: 3a fc        	c.sdsp	a4, 0x38(sp)
   13860: ef 20 a0 26  	jal	ra, 0x15aca <_ldtoa_r>
   13864: 62 77        	c.ldsp	a4, 0x38(sp)
   13866: 06 63        	c.ldsp	t1, 0x40(sp)
   13868: 2a 8d        	c.mv	s10, a0
   1386a: 13 7c f3 fd  	andi	s8, t1, -0x21
   1386e: 93 06 60 04  	addi	a3, zero, 0x46
   13872: 33 08 ed 00  	add	a6, s10, a4
   13876: 63 1a dc 00  	bne	s8, a3, 0x1388a <_vfprintf_r+0x174a>
   1387a: 03 46 0d 00  	lbu	a2, 0x0(s10)
   1387e: 93 06 00 03  	addi	a3, zero, 0x30
   13882: 63 07 d6 30  	beq	a2, a3, 0x13b90 <_vfprintf_r+0x1a50>
   13886: ea 56        	c.lwsp	a3, 0xb8(sp)
   13888: 36 98        	c.add	a6, a3
   1388a: 42 75        	c.ldsp	a0, 0x30(sp)
   1388c: 01 46        	c.li	a2, 0x0
   1388e: 81 46        	c.li	a3, 0x0
   13890: e6 85        	c.mv	a1, s9
   13892: c2 e0        	c.sdsp	a6, 0x40(sp)
   13894: 1a fc        	c.sdsp	t1, 0x38(sp)
   13896: ef 40 f0 62  	jal	ra, 0x186c4 <__netf2>
   1389a: 62 73        	c.ldsp	t1, 0x38(sp)
   1389c: 06 68        	c.ldsp	a6, 0x40(sp)
   1389e: 63 01 05 12  	beq	a0, zero, 0x139c0 <_vfprintf_r+0x1880>
   138a2: ae 67        	c.ldsp	a5, 0xc8(sp)
   138a4: 63 fc 07 01  	bgeu	a5, a6, 0x138bc <_vfprintf_r+0x177c>
   138a8: 93 06 00 03  	addi	a3, zero, 0x30
   138ac: 13 87 17 00  	addi	a4, a5, 0x1
   138b0: ba e5        	c.sdsp	a4, 0xc8(sp)
   138b2: 23 80 d7 00  	sb	a3, 0x0(a5)
   138b6: ae 67        	c.ldsp	a5, 0xc8(sp)
   138b8: e3 ea 07 ff  	bltu	a5, a6, 0x138ac <_vfprintf_r+0x176c>
   138bc: 6a 57        	c.lwsp	a4, 0xb8(sp)
   138be: 3a f8        	c.sdsp	a4, 0x30(sp)
   138c0: bb 87 a7 41  	subw	a5, a5, s10
   138c4: 13 07 70 04  	addi	a4, zero, 0x47
   138c8: 3e fc        	c.sdsp	a5, 0x38(sp)
   138ca: e3 00 ec f4  	beq	s8, a4, 0x1380a <_vfprintf_r+0x16ca>
   138ce: 13 07 60 04  	addi	a4, zero, 0x46
   138d2: 63 0d ec 18  	beq	s8, a4, 0x13a6c <_vfprintf_r+0x192c>
   138d6: c2 77        	c.ldsp	a5, 0x30(sp)
   138d8: 1b 87 f7 ff  	addiw	a4, a5, -0x1
   138dc: 3a dd        	c.swsp	a4, 0xb8(sp)
   138de: 89 b7        	c.j	0x13820 <_vfprintf_r+0x16e0>
   138e0: e2 77        	c.ldsp	a5, 0x38(sp)
   138e2: 42 77        	c.ldsp	a4, 0x30(sp)
   138e4: 63 4d f7 14  	blt	a4, a5, 0x13a3e <_vfprintf_r+0x18fe>
   138e8: c2 77        	c.ldsp	a5, 0x30(sp)
   138ea: 13 f7 1d 00  	andi	a4, s11, 0x1
   138ee: be 86        	c.mv	a3, a5
   138f0: 01 c7        	c.beqz	a4, 0x138f8 <_vfprintf_r+0x17b8>
   138f2: 46 67        	c.ldsp	a4, 0x50(sp)
   138f4: bb 06 f7 00  	addw	a3, a4, a5
   138f8: 13 fe 0d 40  	andi	t3, s11, 0x400
   138fc: 63 05 0e 00  	beq	t3, zero, 0x13906 <_vfprintf_r+0x17c6>
   13900: c2 77        	c.ldsp	a5, 0x30(sp)
   13902: 63 42 f0 22  	blt	zero, a5, 0x13b26 <_vfprintf_r+0x19e6>
   13906: 13 c8 f6 ff  	xori	a6, a3, -0x1
   1390a: 13 58 f8 43  	srai	a6, a6, 0x3f
   1390e: 33 f8 06 01  	and	a6, a3, a6
   13912: 1b 0c 08 00  	addiw	s8, a6, 0x0
   13916: a6 8d        	c.mv	s11, s1
   13918: 13 03 70 06  	addi	t1, zero, 0x67
   1391c: 82 e4        	c.sdsp	zero, 0x48(sp)
   1391e: 82 e0        	c.sdsp	zero, 0x40(sp)
   13920: 6f e0 1f ee  	jal	zero, 0x12800 <_vfprintf_r+0x6c0>
   13924: ba 8d        	c.mv	s11, a4
   13926: 02 ec        	c.sdsp	zero, 0x18(sp)
   13928: 13 0d 81 0f  	addi	s10, sp, 0xf8
   1392c: 7d 57        	c.li	a4, -0x1
   1392e: 7e 17        	c.slli	a4, 0x3f
   13930: 93 07 d0 02  	addi	a5, zero, 0x2d
   13934: b3 cc ec 00  	xor	s9, s9, a4
   13938: be f4        	c.sdsp	a5, 0x68(sp)
   1393a: 6f e0 df c5  	jal	zero, 0x12596 <_vfprintf_r+0x456>
   1393e: 90 11        	c.addi4spn	a2, sp, 0xe0
   13940: ca 85        	c.mv	a1, s2
   13942: 4e 85        	c.mv	a0, s3
   13944: ef 00 20 4d  	jal	ra, 0x13e16 <__sprint_r>
   13948: 63 19 05 c6  	bne	a0, zero, 0x12dba <_vfprintf_r+0xc7a>
   1394c: 83 45 0c 00  	lbu	a1, 0x0(s8)
   13950: 4e 76        	c.ldsp	a2, 0xf0(sp)
   13952: d2 87        	c.mv	a5, s4
   13954: 41 47        	c.li	a4, 0x10
   13956: 9d 46        	c.li	a3, 0x7
   13958: 2e 9d        	c.add	s10, a1
   1395a: c5 b9        	c.j	0x1364a <_vfprintf_r+0x150a>
   1395c: 93 07 d0 02  	addi	a5, zero, 0x2d
   13960: a3 07 f1 0a  	sb	a5, 0xaf(sp)
   13964: 13 07 d0 02  	addi	a4, zero, 0x2d
   13968: 75 b4        	c.j	0x13414 <_vfprintf_r+0x12d4>
   1396a: da 88        	c.mv	a7, s6
   1396c: 4a 8b        	c.mv	s6, s2
   1396e: 4e 89        	c.mv	s2, s3
   13970: c2 79        	c.ldsp	s3, 0x30(sp)
   13972: a5 b4        	c.j	0x133da <_vfprintf_r+0x129a>
   13974: 03 47 f1 0a  	lbu	a4, 0xaf(sp)
   13978: 26 f0        	c.sdsp	s1, 0x20(sp)
   1397a: 82 e4        	c.sdsp	zero, 0x48(sp)
   1397c: 82 e0        	c.sdsp	zero, 0x40(sp)
   1397e: 02 f8        	c.sdsp	zero, 0x30(sp)
   13980: 5a 8c        	c.mv	s8, s6
   13982: da 86        	c.mv	a3, s6
   13984: 01 4b        	c.li	s6, 0x0
   13986: 19 c3        	c.beqz	a4, 0x1398c <_vfprintf_r+0x184c>
   13988: 6f e0 ff b0  	jal	zero, 0x12496 <_vfprintf_r+0x356>
   1398c: 6f e0 5f 95  	jal	zero, 0x122e0 <_vfprintf_r+0x1a0>
   13990: c2 75        	c.ldsp	a1, 0x30(sp)
   13992: 22 65        	c.ldsp	a0, 0x8(sp)
   13994: 5a 87        	c.mv	a4, s6
   13996: 93 08 81 0c  	addi	a7, sp, 0xc8
   1399a: 13 08 c1 0b  	addi	a6, sp, 0xbc
   1399e: 3c 19        	c.addi4spn	a5, sp, 0xb8
   139a0: 89 46        	c.li	a3, 0x2
   139a2: 66 86        	c.mv	a2, s9
   139a4: 1a fc        	c.sdsp	t1, 0x38(sp)
   139a6: ef 20 40 12  	jal	ra, 0x15aca <_ldtoa_r>
   139aa: 13 f7 1d 00  	andi	a4, s11, 0x1
   139ae: 62 73        	c.ldsp	t1, 0x38(sp)
   139b0: 2a 8d        	c.mv	s10, a0
   139b2: e3 06 07 e4  	beq	a4, zero, 0x137fe <_vfprintf_r+0x16be>
   139b6: 33 08 6d 01  	add	a6, s10, s6
   139ba: 13 0c 70 04  	addi	s8, zero, 0x47
   139be: f1 b5        	c.j	0x1388a <_vfprintf_r+0x174a>
   139c0: ea 57        	c.lwsp	a5, 0xb8(sp)
   139c2: 3e f8        	c.sdsp	a5, 0x30(sp)
   139c4: c2 87        	c.mv	a5, a6
   139c6: ed bd        	c.j	0x138c0 <_vfprintf_r+0x1780>
   139c8: 22 65        	c.ldsp	a0, 0x8(sp)
   139ca: 90 11        	c.addi4spn	a2, sp, 0xe0
   139cc: ca 85        	c.mv	a1, s2
   139ce: ef 00 80 44  	jal	ra, 0x13e16 <__sprint_r>
   139d2: 63 14 05 be  	bne	a0, zero, 0x12dba <_vfprintf_r+0xc7a>
   139d6: ea 56        	c.lwsp	a3, 0xb8(sp)
   139d8: e2 77        	c.ldsp	a5, 0x38(sp)
   139da: ce 74        	c.ldsp	s1, 0xf0(sp)
   139dc: 52 84        	c.mv	s0, s4
   139de: bb 86 d7 40  	subw	a3, a5, a3
   139e2: 6f f0 ef dd  	jal	zero, 0x12fc0 <_vfprintf_r+0xe80>
   139e6: b7 07 02 00  	lui	a5, 0x20
   139ea: 13 8d 07 d6  	addi	s10, a5, -0x2a0
   139ee: 1d bc        	c.j	0x13424 <_vfprintf_r+0x12e4>
   139f0: b7 08 02 00  	lui	a7, 0x20
   139f4: c1 55        	c.li	a1, -0x10
   139f6: 3b 0b e0 40  	subw	s6, zero, a4
   139fa: 93 88 08 00  	addi	a7, a7, 0x0
   139fe: 63 51 b7 0a  	bge	a4, a1, 0x13aa0 <_vfprintf_r+0x1960>
   13a02: 4e f8        	c.sdsp	s3, 0x30(sp)
   13a04: c1 4c        	c.li	s9, 0x10
   13a06: 9d 44        	c.li	s1, 0x7
   13a08: c6 89        	c.mv	s3, a7
   13a0a: 21 a0        	c.j	0x13a12 <_vfprintf_r+0x18d2>
   13a0c: 41 3b        	c.addiw	s6, -0x10
   13a0e: 63 d7 6c 09  	bge	s9, s6, 0x13a9c <_vfprintf_r+0x195c>
   13a12: 85 26        	c.addiw	a3, 0x1
   13a14: 41 06        	c.addi	a2, 0x10
   13a16: 23 30 34 01  	sd	s3, 0x0(s0)
   13a1a: 23 34 94 01  	sd	s9, 0x8(s0)
   13a1e: b2 f9        	c.sdsp	a2, 0xf0(sp)
   13a20: b6 d5        	c.swsp	a3, 0xe8(sp)
   13a22: 41 04        	c.addi	s0, 0x10
   13a24: e3 d4 d4 fe  	bge	s1, a3, 0x13a0c <_vfprintf_r+0x18cc>
   13a28: 22 65        	c.ldsp	a0, 0x8(sp)
   13a2a: 90 11        	c.addi4spn	a2, sp, 0xe0
   13a2c: ca 85        	c.mv	a1, s2
   13a2e: ef 00 80 3e  	jal	ra, 0x13e16 <__sprint_r>
   13a32: 63 14 05 b8  	bne	a0, zero, 0x12dba <_vfprintf_r+0xc7a>
   13a36: 4e 76        	c.ldsp	a2, 0xf0(sp)
   13a38: ae 56        	c.lwsp	a3, 0xe8(sp)
   13a3a: 52 84        	c.mv	s0, s4
   13a3c: c1 bf        	c.j	0x13a0c <_vfprintf_r+0x18cc>
   13a3e: c6 67        	c.ldsp	a5, 0x50(sp)
   13a40: 62 77        	c.ldsp	a4, 0x38(sp)
   13a42: 13 03 70 06  	addi	t1, zero, 0x67
   13a46: bb 86 e7 00  	addw	a3, a5, a4
   13a4a: c2 77        	c.ldsp	a5, 0x30(sp)
   13a4c: 63 5d f0 16  	bge	zero, a5, 0x13bc6 <_vfprintf_r+0x1a86>
   13a50: 13 fe 0d 40  	andi	t3, s11, 0x400
   13a54: 63 1b 0e 0c  	bne	t3, zero, 0x13b2a <_vfprintf_r+0x19ea>
   13a58: 13 c8 f6 ff  	xori	a6, a3, -0x1
   13a5c: 13 58 f8 43  	srai	a6, a6, 0x3f
   13a60: 33 f8 06 01  	and	a6, a3, a6
   13a64: 1b 0c 08 00  	addiw	s8, a6, 0x0
   13a68: a6 8d        	c.mv	s11, s1
   13a6a: 4d bd        	c.j	0x1391c <_vfprintf_r+0x17dc>
   13a6c: c2 77        	c.ldsp	a5, 0x30(sp)
   13a6e: 13 f7 1d 00  	andi	a4, s11, 0x1
   13a72: 33 67 eb 00  	or	a4, s6, a4
   13a76: 63 54 f0 1c  	bge	zero, a5, 0x13c3e <_vfprintf_r+0x1afe>
   13a7a: 63 1f 07 12  	bne	a4, zero, 0x13bb8 <_vfprintf_r+0x1a78>
   13a7e: c2 76        	c.ldsp	a3, 0x30(sp)
   13a80: 13 03 60 06  	addi	t1, zero, 0x66
   13a84: f1 b7        	c.j	0x13a50 <_vfprintf_r+0x1910>
   13a86: fd 57        	c.li	a5, -0x1
   13a88: 3e e8        	c.sdsp	a5, 0x10(sp)
   13a8a: 6f e0 df 95  	jal	zero, 0x123e6 <_vfprintf_r+0x2a6>
   13a8e: ee 8c        	c.mv	s9, s11
   13a90: 6f f0 8f b4  	jal	zero, 0x12dd8 <_vfprintf_r+0xc98>
   13a94: 1b 07 1b 00  	addiw	a4, s6, 0x1
   13a98: 89 46        	c.li	a3, 0x2
   13a9a: 4d bb        	c.j	0x1384c <_vfprintf_r+0x170c>
   13a9c: ce 88        	c.mv	a7, s3
   13a9e: c2 79        	c.ldsp	s3, 0x30(sp)
   13aa0: 85 26        	c.addiw	a3, 0x1
   13aa2: 5a 96        	c.add	a2, s6
   13aa4: 23 30 14 01  	sd	a7, 0x0(s0)
   13aa8: 23 34 64 01  	sd	s6, 0x8(s0)
   13aac: b2 f9        	c.sdsp	a2, 0xf0(sp)
   13aae: b6 d5        	c.swsp	a3, 0xe8(sp)
   13ab0: 1d 47        	c.li	a4, 0x7
   13ab2: e3 56 d7 8e  	bge	a4, a3, 0x1339e <_vfprintf_r+0x125e>
   13ab6: 22 65        	c.ldsp	a0, 0x8(sp)
   13ab8: 90 11        	c.addi4spn	a2, sp, 0xe0
   13aba: ca 85        	c.mv	a1, s2
   13abc: ef 00 a0 35  	jal	ra, 0x13e16 <__sprint_r>
   13ac0: 63 1d 05 ae  	bne	a0, zero, 0x12dba <_vfprintf_r+0xc7a>
   13ac4: 4e 76        	c.ldsp	a2, 0xf0(sp)
   13ac6: ae 56        	c.lwsp	a3, 0xe8(sp)
   13ac8: 52 84        	c.mv	s0, s4
   13aca: d1 ba        	c.j	0x1349e <_vfprintf_r+0x135e>
   13acc: 93 06 21 0c  	addi	a3, sp, 0xc2
   13ad0: 19 e6        	c.bnez	a2, 0x13ade <_vfprintf_r+0x199e>
   13ad2: 93 06 00 03  	addi	a3, zero, 0x30
   13ad6: 23 01 d1 0c  	sb	a3, 0xc2(sp)
   13ada: 93 06 31 0c  	addi	a3, sp, 0xc3
   13ade: 9c 13        	c.addi4spn	a5, sp, 0x1e0
   13ae0: 33 86 f6 40  	sub	a2, a3, a5
   13ae4: 1b 07 07 03  	addiw	a4, a4, 0x30
   13ae8: 9b 07 16 12  	addiw	a5, a2, 0x121
   13aec: 23 80 e6 00  	sb	a4, 0x0(a3)
   13af0: be f8        	c.sdsp	a5, 0x70(sp)
   13af2: 6f e0 5f cd  	jal	zero, 0x127c6 <_vfprintf_r+0x686>
   13af6: 02 ec        	c.sdsp	zero, 0x18(sp)
   13af8: 19 4b        	c.li	s6, 0x6
   13afa: 6f e0 5f a8  	jal	zero, 0x1257e <_vfprintf_r+0x43e>
   13afe: 63 04 0b 00  	beq	s6, zero, 0x13b06 <_vfprintf_r+0x19c6>
   13b02: 6f e0 df a7  	jal	zero, 0x1257e <_vfprintf_r+0x43e>
   13b06: 05 4b        	c.li	s6, 0x1
   13b08: 6f e0 7f a7  	jal	zero, 0x1257e <_vfprintf_r+0x43e>
   13b0c: 13 f6 1d 00  	andi	a2, s11, 0x1
   13b10: 19 e2        	c.bnez	a2, 0x13b16 <_vfprintf_r+0x19d6>
   13b12: 6f e0 ff cc  	jal	zero, 0x127e0 <_vfprintf_r+0x6a0>
   13b16: 6f e0 5f cc  	jal	zero, 0x127da <_vfprintf_r+0x69a>
   13b1a: 3a f0        	c.sdsp	a4, 0x20(sp)
   13b1c: 6f f0 cf ab  	jal	zero, 0x12dd8 <_vfprintf_r+0xc98>
   13b20: 1c c3        	c.sw	a5, 0x0(a4)
   13b22: 6f f0 4f 82  	jal	zero, 0x12b46 <_vfprintf_r+0xa06>
   13b26: 13 03 70 06  	addi	t1, zero, 0x67
   13b2a: 8a 67        	c.ldsp	a5, 0x80(sp)
   13b2c: 13 06 f0 0f  	addi	a2, zero, 0xff
   13b30: 03 c7 07 00  	lbu	a4, 0x0(a5)
   13b34: 63 09 c7 16  	beq	a4, a2, 0x13ca6 <_vfprintf_r+0x1b66>
   13b38: 3e 86        	c.mv	a2, a5
   13b3a: c2 77        	c.ldsp	a5, 0x30(sp)
   13b3c: 81 48        	c.li	a7, 0x0
   13b3e: 01 48        	c.li	a6, 0x0
   13b40: 93 05 f0 0f  	addi	a1, zero, 0xff
   13b44: 1b 05 07 00  	addiw	a0, a4, 0x0
   13b48: 63 5a f7 00  	bge	a4, a5, 0x13b5c <_vfprintf_r+0x1a1c>
   13b4c: 03 47 16 00  	lbu	a4, 0x1(a2)
   13b50: 89 9f        	c.subw	a5, a0
   13b52: 1d cb        	c.beqz	a4, 0x13b88 <_vfprintf_r+0x1a48>
   13b54: 05 28        	c.addiw	a6, 0x1
   13b56: 05 06        	c.addi	a2, 0x1
   13b58: e3 16 b7 fe  	bne	a4, a1, 0x13b44 <_vfprintf_r+0x1a04>
   13b5c: 32 e1        	c.sdsp	a2, 0x80(sp)
   13b5e: c2 e0        	c.sdsp	a6, 0x40(sp)
   13b60: c6 e4        	c.sdsp	a7, 0x48(sp)
   13b62: 3e f8        	c.sdsp	a5, 0x30(sp)
   13b64: a6 67        	c.ldsp	a5, 0x48(sp)
   13b66: 06 67        	c.ldsp	a4, 0x40(sp)
   13b68: a6 8d        	c.mv	s11, s1
   13b6a: 3d 9f        	c.addw	a4, a5
   13b6c: aa 67        	c.ldsp	a5, 0x88(sp)
   13b6e: 3b 07 f7 02  	mulw	a4, a4, a5
   13b72: 35 9f        	c.addw	a4, a3
   13b74: 9b 06 07 00  	addiw	a3, a4, 0x0
   13b78: 13 c6 f6 ff  	xori	a2, a3, -0x1
   13b7c: 7d 96        	c.srai	a2, 0x3f
   13b7e: 71 8f        	c.and	a4, a2
   13b80: 1b 0c 07 00  	addiw	s8, a4, 0x0
   13b84: 6f e0 df c7  	jal	zero, 0x12800 <_vfprintf_r+0x6c0>
   13b88: 03 47 06 00  	lbu	a4, 0x0(a2)
   13b8c: 85 28        	c.addiw	a7, 0x1
   13b8e: e9 b7        	c.j	0x13b58 <_vfprintf_r+0x1a18>
   13b90: 42 75        	c.ldsp	a0, 0x30(sp)
   13b92: 01 46        	c.li	a2, 0x0
   13b94: 81 46        	c.li	a3, 0x0
   13b96: e6 85        	c.mv	a1, s9
   13b98: c2 e4        	c.sdsp	a6, 0x48(sp)
   13b9a: 9a e0        	c.sdsp	t1, 0x40(sp)
   13b9c: 3a fc        	c.sdsp	a4, 0x38(sp)
   13b9e: ef 40 70 32  	jal	ra, 0x186c4 <__netf2>
   13ba2: 62 77        	c.ldsp	a4, 0x38(sp)
   13ba4: 06 63        	c.ldsp	t1, 0x40(sp)
   13ba6: 26 68        	c.ldsp	a6, 0x48(sp)
   13ba8: 59 e5        	c.bnez	a0, 0x13c36 <_vfprintf_r+0x1af6>
   13baa: ea 57        	c.lwsp	a5, 0xb8(sp)
   13bac: 3e 98        	c.add	a6, a5
   13bae: 3e f8        	c.sdsp	a5, 0x30(sp)
   13bb0: bb 07 a8 41  	subw	a5, a6, s10
   13bb4: 3e fc        	c.sdsp	a5, 0x38(sp)
   13bb6: 21 bb        	c.j	0x138ce <_vfprintf_r+0x178e>
   13bb8: 46 67        	c.ldsp	a4, 0x50(sp)
   13bba: 13 03 60 06  	addi	t1, zero, 0x66
   13bbe: bb 06 67 01  	addw	a3, a4, s6
   13bc2: bd 9e        	c.addw	a3, a5
   13bc4: 71 b5        	c.j	0x13a50 <_vfprintf_r+0x1910>
   13bc6: 3b 87 f6 40  	subw	a4, a3, a5
   13bca: 05 27        	c.addiw	a4, 0x1
   13bcc: 9b 06 07 00  	addiw	a3, a4, 0x0
   13bd0: 13 c6 f6 ff  	xori	a2, a3, -0x1
   13bd4: 7d 96        	c.srai	a2, 0x3f
   13bd6: 71 8f        	c.and	a4, a2
   13bd8: 1b 0c 07 00  	addiw	s8, a4, 0x0
   13bdc: a6 8d        	c.mv	s11, s1
   13bde: 3d bb        	c.j	0x1391c <_vfprintf_r+0x17dc>
   13be0: 4a 68        	c.ldsp	a6, 0x90(sp)
   13be2: 62 89        	c.mv	s2, s8
   13be4: 4e 8c        	c.mv	s8, s3
   13be6: bb 06 0d 01  	addw	a3, s10, a6
   13bea: bb 86 86 41  	subw	a3, a3, s8
   13bee: 13 96 06 02  	slli	a2, a3, 0x20
   13bf2: 06 63        	c.ldsp	t1, 0x40(sp)
   13bf4: a6 6b        	c.ldsp	s7, 0x48(sp)
   13bf6: 46 74        	c.ldsp	s0, 0x70(sp)
   13bf8: e2 79        	c.ldsp	s3, 0x38(sp)
   13bfa: 63 54 06 00  	bge	a2, zero, 0x13c02 <_vfprintf_r+0x1ac2>
   13bfe: 6f e0 bf b1  	jal	zero, 0x12718 <_vfprintf_r+0x5d8>
   13c02: 85 26        	c.addiw	a3, 0x1
   13c04: e2 96        	c.add	a3, s8
   13c06: 13 06 00 03  	addi	a2, zero, 0x30
   13c0a: 05 0c        	c.addi	s8, 0x1
   13c0c: a3 0f cc fe  	sb	a2, -0x1(s8)
   13c10: e3 1d dc fe  	bne	s8, a3, 0x13c0a <_vfprintf_r+0x1aca>
   13c14: 6f e0 7f b0  	jal	zero, 0x1271a <_vfprintf_r+0x5da>
   13c18: e2 65        	c.ldsp	a1, 0x18(sp)
   13c1a: 4e 89        	c.mv	s2, s3
   13c1c: 6f f0 0f 9a  	jal	zero, 0x12dbc <_vfprintf_r+0xc7c>
   13c20: 37 07 02 00  	lui	a4, 0x20
   13c24: 93 07 87 d6  	addi	a5, a4, -0x298
   13c28: 3e f8        	c.sdsp	a5, 0x30(sp)
   13c2a: 6f e0 ff 9e  	jal	zero, 0x12618 <_vfprintf_r+0x4d8>
   13c2e: 93 06 00 07  	addi	a3, zero, 0x70
   13c32: 6f e0 5f b1  	jal	zero, 0x12746 <_vfprintf_r+0x606>
   13c36: 85 46        	c.li	a3, 0x1
   13c38: 99 9e        	c.subw	a3, a4
   13c3a: 36 dd        	c.swsp	a3, 0xb8(sp)
   13c3c: b1 b1        	c.j	0x13888 <_vfprintf_r+0x1748>
   13c3e: 19 e7        	c.bnez	a4, 0x13c4c <_vfprintf_r+0x1b0c>
   13c40: a6 8d        	c.mv	s11, s1
   13c42: 05 4c        	c.li	s8, 0x1
   13c44: 13 03 60 06  	addi	t1, zero, 0x66
   13c48: 85 46        	c.li	a3, 0x1
   13c4a: c9 b9        	c.j	0x1391c <_vfprintf_r+0x17dc>
   13c4c: c6 67        	c.ldsp	a5, 0x50(sp)
   13c4e: a6 8d        	c.mv	s11, s1
   13c50: 13 03 60 06  	addi	t1, zero, 0x66
   13c54: 1b 87 17 00  	addiw	a4, a5, 0x1
   13c58: 3b 07 67 01  	addw	a4, a4, s6
   13c5c: 9b 06 07 00  	addiw	a3, a4, 0x0
   13c60: 13 c6 f6 ff  	xori	a2, a3, -0x1
   13c64: 7d 96        	c.srai	a2, 0x3f
   13c66: 71 8f        	c.and	a4, a2
   13c68: 1b 0c 07 00  	addiw	s8, a4, 0x0
   13c6c: 45 b9        	c.j	0x1391c <_vfprintf_r+0x17dc>
   13c6e: 89 47        	c.li	a5, 0x2
   13c70: be f8        	c.sdsp	a5, 0x70(sp)
   13c72: 6f e0 5f b5  	jal	zero, 0x127c6 <_vfprintf_r+0x686>
   13c76: 82 76        	c.ldsp	a3, 0x20(sp)
   13c78: 9c 42        	c.lw	a5, 0x0(a3)
   13c7a: a1 06        	c.addi	a3, 0x8
   13c7c: 1b 8b 07 00  	addiw	s6, a5, 0x0
   13c80: 63 d3 07 00  	bge	a5, zero, 0x13c86 <_vfprintf_r+0x1b46>
   13c84: 7d 5b        	c.li	s6, -0x1
   13c86: 03 c3 19 00  	lbu	t1, 0x1(s3)
   13c8a: 36 f0        	c.sdsp	a3, 0x20(sp)
   13c8c: ba 89        	c.mv	s3, a4
   13c8e: 6f e0 ef dd  	jal	zero, 0x1226c <_vfprintf_r+0x12c>
   13c92: 83 57 09 01  	lhu	a5, 0x10(s2)
   13c96: 93 e7 07 04  	ori	a5, a5, 0x40
   13c9a: 23 18 f9 00  	sh	a5, 0x10(s2)
   13c9e: 6f e0 af f1  	jal	zero, 0x123b8 <_vfprintf_r+0x278>
   13ca2: 5a 87        	c.mv	a4, s6
   13ca4: d9 b6        	c.j	0x1386a <_vfprintf_r+0x172a>
   13ca6: 82 e4        	c.sdsp	zero, 0x48(sp)
   13ca8: 82 e0        	c.sdsp	zero, 0x40(sp)
   13caa: 6d bd        	c.j	0x13b64 <_vfprintf_r+0x1a24>

0000000000013cac <vfprintf>:
   13cac: aa 87        	c.mv	a5, a0
   13cae: 03 b5 81 88  	ld	a0, -0x778(gp)
   13cb2: b2 86        	c.mv	a3, a2
   13cb4: 2e 86        	c.mv	a2, a1
   13cb6: be 85        	c.mv	a1, a5
   13cb8: 6f e0 8f c8  	jal	zero, 0x12140 <_vfprintf_r>

0000000000013cbc <__sbprintf>:
   13cbc: 13 01 01 b3  	addi	sp, sp, -0x4d0
   13cc0: 03 d7 25 01  	lhu	a4, 0x12(a1)
   13cc4: 83 d7 05 01  	lhu	a5, 0x10(a1)
   13cc8: 23 30 81 4c  	sd	s0, 0x4c0(sp)
   13ccc: 2e 84        	c.mv	s0, a1
   13cce: c1 65        	c.lui	a1, 0x10
   13cd0: f5 35        	c.addiw	a1, -0x3
   13cd2: 03 2e c4 0a  	lw	t3, 0xac(s0)
   13cd6: 03 33 04 03  	ld	t1, 0x30(s0)
   13cda: 83 38 04 04  	ld	a7, 0x40(s0)
   13cde: 1b 17 07 01  	slliw	a4, a4, 0x10
   13ce2: ed 8f        	c.and	a5, a1
   13ce4: d9 8f        	c.or	a5, a4
   13ce6: 13 08 00 40  	addi	a6, zero, 0x400
   13cea: 3e c8        	c.swsp	a5, 0x10(sp)
   13cec: 8a 85        	c.mv	a1, sp
   13cee: 1c 19        	c.addi4spn	a5, sp, 0xb0
   13cf0: 23 3c 91 4a  	sd	s1, 0x4b8(sp)
   13cf4: 23 38 21 4b  	sd	s2, 0x4b0(sp)
   13cf8: 23 34 11 4c  	sd	ra, 0x4c8(sp)
   13cfc: 2a 89        	c.mv	s2, a0
   13cfe: 72 d7        	c.swsp	t3, 0xac(sp)
   13d00: 1a f8        	c.sdsp	t1, 0x30(sp)
   13d02: c6 e0        	c.sdsp	a7, 0x40(sp)
   13d04: 3e e0        	c.sdsp	a5, 0x0(sp)
   13d06: 3e ec        	c.sdsp	a5, 0x18(sp)
   13d08: 42 c6        	c.swsp	a6, 0xc(sp)
   13d0a: 42 d0        	c.swsp	a6, 0x20(sp)
   13d0c: 02 d4        	c.swsp	zero, 0x28(sp)
   13d0e: ef e0 2f c3  	jal	ra, 0x12140 <_vfprintf_r>
   13d12: aa 84        	c.mv	s1, a0
   13d14: 63 59 05 02  	bge	a0, zero, 0x13d46 <__sbprintf+0x8a>
   13d18: 83 57 01 01  	lhu	a5, 0x10(sp)
   13d1c: 93 f7 07 04  	andi	a5, a5, 0x40
   13d20: 99 c7        	c.beqz	a5, 0x13d2e <__sbprintf+0x72>
   13d22: 83 57 04 01  	lhu	a5, 0x10(s0)
   13d26: 93 e7 07 04  	ori	a5, a5, 0x40
   13d2a: 23 18 f4 00  	sh	a5, 0x10(s0)
   13d2e: 83 30 81 4c  	ld	ra, 0x4c8(sp)
   13d32: 03 34 01 4c  	ld	s0, 0x4c0(sp)
   13d36: 03 39 01 4b  	ld	s2, 0x4b0(sp)
   13d3a: 26 85        	c.mv	a0, s1
   13d3c: 83 34 81 4b  	ld	s1, 0x4b8(sp)
   13d40: 13 01 01 4d  	addi	sp, sp, 0x4d0
   13d44: 82 80        	c.jr	ra
   13d46: 8a 85        	c.mv	a1, sp
   13d48: 4a 85        	c.mv	a0, s2
   13d4a: ef 10 80 0a  	jal	ra, 0x14df2 <_fflush_r>
   13d4e: 69 d5        	c.beqz	a0, 0x13d18 <__sbprintf+0x5c>
   13d50: fd 54        	c.li	s1, -0x1
   13d52: d9 b7        	c.j	0x13d18 <__sbprintf+0x5c>

0000000000013d54 <__sprint_r.part.0>:
   13d54: 83 a7 c5 0a  	lw	a5, 0xac(a1)
   13d58: 5d 71        	c.addi16sp	sp, -0x50
   13d5a: 56 ec        	c.sdsp	s5, 0x18(sp)
   13d5c: 86 e4        	c.sdsp	ra, 0x48(sp)
   13d5e: 13 97 27 03  	slli	a4, a5, 0x32
   13d62: b2 8a        	c.mv	s5, a2
   13d64: 63 5f 07 08  	bge	a4, zero, 0x13e02 <__sprint_r.part.0+0xae>
   13d68: 1c 6a        	c.ld	a5, 0x10(a2)
   13d6a: 4a f8        	c.sdsp	s2, 0x30(sp)
   13d6c: 4e f4        	c.sdsp	s3, 0x28(sp)
   13d6e: 52 f0        	c.sdsp	s4, 0x20(sp)
   13d70: 5a e8        	c.sdsp	s6, 0x10(sp)
   13d72: 2e 89        	c.mv	s2, a1
   13d74: 03 3b 06 00  	ld	s6, 0x0(a2)
   13d78: aa 89        	c.mv	s3, a0
   13d7a: 7d 5a        	c.li	s4, -0x1
   13d7c: ad cf        	c.beqz	a5, 0x13df6 <__sprint_r.part.0+0xa2>
   13d7e: a2 e0        	c.sdsp	s0, 0x40(sp)
   13d80: 26 fc        	c.sdsp	s1, 0x38(sp)
   13d82: 5e e4        	c.sdsp	s7, 0x8(sp)
   13d84: 83 34 8b 00  	ld	s1, 0x8(s6)
   13d88: 03 34 0b 00  	ld	s0, 0x0(s6)
   13d8c: 89 80        	c.srli	s1, 0x2
   13d8e: 9b 8b 04 00  	addiw	s7, s1, 0x0
   13d92: 63 58 70 05  	bge	zero, s7, 0x13de2 <__sprint_r.part.0+0x8e>
   13d96: fd 34        	c.addiw	s1, -0x1
   13d98: 93 97 04 02  	slli	a5, s1, 0x20
   13d9c: 93 d4 e7 01  	srli	s1, a5, 0x1e
   13da0: 93 07 44 00  	addi	a5, s0, 0x4
   13da4: be 94        	c.add	s1, a5
   13da6: 19 a0        	c.j	0x13dac <__sprint_r.part.0+0x58>
   13da8: 63 8b 84 02  	beq	s1, s0, 0x13dde <__sprint_r.part.0+0x8a>
   13dac: 0c 40        	c.lw	a1, 0x0(s0)
   13dae: 4a 86        	c.mv	a2, s2
   13db0: 4e 85        	c.mv	a0, s3
   13db2: ef 10 e0 77  	jal	ra, 0x15530 <_fputwc_r>
   13db6: 01 25        	c.addiw	a0, 0x0
   13db8: 11 04        	c.addi	s0, 0x4
   13dba: e3 17 45 ff  	bne	a0, s4, 0x13da8 <__sprint_r.part.0+0x54>
   13dbe: 06 64        	c.ldsp	s0, 0x40(sp)
   13dc0: e2 74        	c.ldsp	s1, 0x38(sp)
   13dc2: 42 79        	c.ldsp	s2, 0x30(sp)
   13dc4: a2 79        	c.ldsp	s3, 0x28(sp)
   13dc6: 02 7a        	c.ldsp	s4, 0x20(sp)
   13dc8: 42 6b        	c.ldsp	s6, 0x10(sp)
   13dca: a2 6b        	c.ldsp	s7, 0x8(sp)
   13dcc: 7d 55        	c.li	a0, -0x1
   13dce: a6 60        	c.ldsp	ra, 0x48(sp)
   13dd0: 23 b8 0a 00  	sd	zero, 0x10(s5)
   13dd4: 23 a4 0a 00  	sw	zero, 0x8(s5)
   13dd8: e2 6a        	c.ldsp	s5, 0x18(sp)
   13dda: 61 61        	c.addi16sp	sp, 0x50
   13ddc: 82 80        	c.jr	ra
   13dde: 83 b7 0a 01  	ld	a5, 0x10(s5)
   13de2: 8a 0b        	c.slli	s7, 0x2
   13de4: b3 87 77 41  	sub	a5, a5, s7
   13de8: 23 b8 fa 00  	sd	a5, 0x10(s5)
   13dec: 41 0b        	c.addi	s6, 0x10
   13dee: d9 fb        	c.bnez	a5, 0x13d84 <__sprint_r.part.0+0x30>
   13df0: 06 64        	c.ldsp	s0, 0x40(sp)
   13df2: e2 74        	c.ldsp	s1, 0x38(sp)
   13df4: a2 6b        	c.ldsp	s7, 0x8(sp)
   13df6: 42 79        	c.ldsp	s2, 0x30(sp)
   13df8: a2 79        	c.ldsp	s3, 0x28(sp)
   13dfa: 02 7a        	c.ldsp	s4, 0x20(sp)
   13dfc: 42 6b        	c.ldsp	s6, 0x10(sp)
   13dfe: 01 45        	c.li	a0, 0x0
   13e00: f9 b7        	c.j	0x13dce <__sprint_r.part.0+0x7a>
   13e02: ef 10 a0 07  	jal	ra, 0x14e7c <__sfvwrite_r>
   13e06: a6 60        	c.ldsp	ra, 0x48(sp)
   13e08: 23 b8 0a 00  	sd	zero, 0x10(s5)
   13e0c: 23 a4 0a 00  	sw	zero, 0x8(s5)
   13e10: e2 6a        	c.ldsp	s5, 0x18(sp)
   13e12: 61 61        	c.addi16sp	sp, 0x50
   13e14: 82 80        	c.jr	ra

0000000000013e16 <__sprint_r>:
   13e16: 18 6a        	c.ld	a4, 0x10(a2)
   13e18: 11 c3        	c.beqz	a4, 0x13e1c <__sprint_r+0x6>
   13e1a: 2d bf        	c.j	0x13d54 <__sprint_r.part.0>
   13e1c: 23 24 06 00  	sw	zero, 0x8(a2)
   13e20: 01 45        	c.li	a0, 0x0
   13e22: 82 80        	c.jr	ra

0000000000013e24 <_vfiprintf_r>:
   13e24: 05 71        	c.addi16sp	sp, -0x1e0
   13e26: 52 fb        	c.sdsp	s4, 0x1b0(sp)
   13e28: 56 f7        	c.sdsp	s5, 0x1a8(sp)
   13e2a: 5e ef        	c.sdsp	s7, 0x198(sp)
   13e2c: 6a e3        	c.sdsp	s10, 0x180(sp)
   13e2e: 86 ef        	c.sdsp	ra, 0x1d8(sp)
   13e30: 62 eb        	c.sdsp	s8, 0x190(sp)
   13e32: aa 8a        	c.mv	s5, a0
   13e34: 2e 8a        	c.mv	s4, a1
   13e36: 32 8d        	c.mv	s10, a2
   13e38: b6 8b        	c.mv	s7, a3
   13e3a: 01 c5        	c.beqz	a0, 0x13e42 <_vfiprintf_r+0x1e>
   13e3c: 3c 65        	c.ld	a5, 0x48(a0)
   13e3e: e3 83 07 3a  	beq	a5, zero, 0x149e4 <_vfiprintf_r+0xbc0>
   13e42: 83 17 0a 01  	lh	a5, 0x10(s4)
   13e46: 93 96 27 03  	slli	a3, a5, 0x32
   13e4a: 63 c1 06 02  	blt	a3, zero, 0x13e6c <_vfiprintf_r+0x48>
   13e4e: 83 26 ca 0a  	lw	a3, 0xac(s4)
   13e52: 89 65        	c.lui	a1, 0x2
   13e54: 79 76        	c.lui	a2, 0xffffe
   13e56: cd 8f        	c.or	a5, a1
   13e58: 7d 16        	c.addi	a2, -0x1
   13e5a: 9b 97 07 01  	slliw	a5, a5, 0x10
   13e5e: 9b d7 07 41  	sraiw	a5, a5, 0x10
   13e62: f1 8e        	c.and	a3, a2
   13e64: 23 18 fa 00  	sh	a5, 0x10(s4)
   13e68: 23 26 da 0a  	sw	a3, 0xac(s4)
   13e6c: 93 f6 87 00  	andi	a3, a5, 0x8
   13e70: e1 ce        	c.beqz	a3, 0x13f48 <_vfiprintf_r+0x124>
   13e72: 83 36 8a 01  	ld	a3, 0x18(s4)
   13e76: e9 ca        	c.beqz	a3, 0x13f48 <_vfiprintf_r+0x124>
   13e78: e9 8b        	c.andi	a5, 0x1a
   13e7a: a9 46        	c.li	a3, 0xa
   13e7c: 63 82 d7 0e  	beq	a5, a3, 0x13f60 <_vfiprintf_r+0x13c>
   13e80: b7 07 02 00  	lui	a5, 0x20
   13e84: 4e ff        	c.sdsp	s3, 0x1b8(sp)
   13e86: 5a f3        	c.sdsp	s6, 0x1a0(sp)
   13e88: 93 09 01 0f  	addi	s3, sp, 0xf0
   13e8c: 93 87 07 02  	addi	a5, a5, 0x20
   13e90: 37 0b 02 00  	lui	s6, 0x20
   13e94: a2 eb        	c.sdsp	s0, 0x1d0(sp)
   13e96: ca e3        	c.sdsp	s2, 0x1c0(sp)
   13e98: a6 e7        	c.sdsp	s1, 0x1c8(sp)
   13e9a: 66 e7        	c.sdsp	s9, 0x188(sp)
   13e9c: ee fe        	c.sdsp	s11, 0x178(sp)
   13e9e: ce f8        	c.sdsp	s3, 0x70(sp)
   13ea0: 02 e1        	c.sdsp	zero, 0x80(sp)
   13ea2: 82 dc        	c.swsp	zero, 0x78(sp)
   13ea4: 4e 84        	c.mv	s0, s3
   13ea6: 02 e8        	c.sdsp	zero, 0x10(sp)
   13ea8: 02 fc        	c.sdsp	zero, 0x38(sp)
   13eaa: 02 f8        	c.sdsp	zero, 0x30(sp)
   13eac: 82 e0        	c.sdsp	zero, 0x40(sp)
   13eae: 01 4c        	c.li	s8, 0x0
   13eb0: 3e e4        	c.sdsp	a5, 0x8(sp)
   13eb2: 41 49        	c.li	s2, 0x10
   13eb4: 13 0b 0b 19  	addi	s6, s6, 0x190
   13eb8: 83 47 0d 00  	lbu	a5, 0x0(s10)
   13ebc: f9 c3        	c.beqz	a5, 0x13f82 <_vfiprintf_r+0x15e>
   13ebe: ea 84        	c.mv	s1, s10
   13ec0: 13 07 50 02  	addi	a4, zero, 0x25
   13ec4: 63 8f e7 26  	beq	a5, a4, 0x14142 <_vfiprintf_r+0x31e>
   13ec8: 83 c7 14 00  	lbu	a5, 0x1(s1)
   13ecc: 85 04        	c.addi	s1, 0x1
   13ece: fd fb        	c.bnez	a5, 0x13ec4 <_vfiprintf_r+0xa0>
   13ed0: bb 8d a4 41  	subw	s11, s1, s10
   13ed4: 63 87 0d 0a  	beq	s11, zero, 0x13f82 <_vfiprintf_r+0x15e>
   13ed8: e6 57        	c.lwsp	a5, 0x78(sp)
   13eda: 0a 67        	c.ldsp	a4, 0x80(sp)
   13edc: 23 30 a4 01  	sd	s10, 0x0(s0)
   13ee0: 9b 86 17 00  	addiw	a3, a5, 0x1
   13ee4: 6e 97        	c.add	a4, s11
   13ee6: 23 34 b4 01  	sd	s11, 0x8(s0)
   13eea: 3a e1        	c.sdsp	a4, 0x80(sp)
   13eec: b6 dc        	c.swsp	a3, 0x78(sp)
   13eee: 9d 47        	c.li	a5, 0x7
   13ef0: 41 04        	c.addi	s0, 0x10
   13ef2: 63 db d7 00  	bge	a5, a3, 0x13f08 <_vfiprintf_r+0xe4>
   13ef6: e3 07 07 0e  	beq	a4, zero, 0x147e4 <_vfiprintf_r+0x9c0>
   13efa: 90 18        	c.addi4spn	a2, sp, 0x70
   13efc: d2 85        	c.mv	a1, s4
   13efe: 56 85        	c.mv	a0, s5
   13f00: ef f0 5f e5  	jal	ra, 0x13d54 <__sprint_r.part.0>
   13f04: 51 e1        	c.bnez	a0, 0x13f88 <_vfiprintf_r+0x164>
   13f06: 4e 84        	c.mv	s0, s3
   13f08: 83 c7 04 00  	lbu	a5, 0x0(s1)
   13f0c: 3b 8c 8d 01  	addw	s8, s11, s8
   13f10: ad cb        	c.beqz	a5, 0x13f82 <_vfiprintf_r+0x15e>
   13f12: 83 c7 14 00  	lbu	a5, 0x1(s1)
   13f16: 13 8d 14 00  	addi	s10, s1, 0x1
   13f1a: a3 03 01 06  	sb	zero, 0x67(sp)
   13f1e: fd 54        	c.li	s1, -0x1
   13f20: 81 48        	c.li	a7, 0x0
   13f22: 81 4c        	c.li	s9, 0x0
   13f24: 93 0d a0 05  	addi	s11, zero, 0x5a
   13f28: 05 0d        	c.addi	s10, 0x1
   13f2a: 81 27        	c.addiw	a5, 0x0
   13f2c: 1b 87 07 fe  	addiw	a4, a5, -0x20
   13f30: 9b 06 07 00  	addiw	a3, a4, 0x0
   13f34: 63 eb dd 0a  	bltu	s11, a3, 0x13fea <_vfiprintf_r+0x1c6>
   13f38: 93 16 07 02  	slli	a3, a4, 0x20
   13f3c: 13 d7 e6 01  	srli	a4, a3, 0x1e
   13f40: a2 66        	c.ldsp	a3, 0x8(sp)
   13f42: 36 97        	c.add	a4, a3
   13f44: 18 43        	c.lw	a4, 0x0(a4)
   13f46: 02 87        	c.jr	a4
   13f48: d2 85        	c.mv	a1, s4
   13f4a: 56 85        	c.mv	a0, s5
   13f4c: ef 10 40 46  	jal	ra, 0x153b0 <__swsetup_r>
   13f50: e3 14 05 38  	bne	a0, zero, 0x14ad8 <_vfiprintf_r+0xcb4>
   13f54: 83 17 0a 01  	lh	a5, 0x10(s4)
   13f58: a9 46        	c.li	a3, 0xa
   13f5a: e9 8b        	c.andi	a5, 0x1a
   13f5c: e3 92 d7 f2  	bne	a5, a3, 0x13e80 <_vfiprintf_r+0x5c>
   13f60: 83 17 2a 01  	lh	a5, 0x12(s4)
   13f64: e3 ce 07 f0  	blt	a5, zero, 0x13e80 <_vfiprintf_r+0x5c>
   13f68: fe 60        	c.ldsp	ra, 0x1d8(sp)
   13f6a: 5a 6c        	c.ldsp	s8, 0x190(sp)
   13f6c: de 86        	c.mv	a3, s7
   13f6e: 6a 86        	c.mv	a2, s10
   13f70: fa 6b        	c.ldsp	s7, 0x198(sp)
   13f72: 1a 6d        	c.ldsp	s10, 0x180(sp)
   13f74: d2 85        	c.mv	a1, s4
   13f76: 56 85        	c.mv	a0, s5
   13f78: 5a 7a        	c.ldsp	s4, 0x1b0(sp)
   13f7a: ba 7a        	c.ldsp	s5, 0x1a8(sp)
   13f7c: 3d 61        	c.addi16sp	sp, 0x1e0
   13f7e: 6f 00 50 39  	jal	zero, 0x14b12 <__sbprintf>
   13f82: 8a 67        	c.ldsp	a5, 0x80(sp)
   13f84: e3 9c 07 30  	bne	a5, zero, 0x14a9c <_vfiprintf_r+0xc78>
   13f88: 83 57 0a 01  	lhu	a5, 0x10(s4)
   13f8c: 5e 64        	c.ldsp	s0, 0x1d0(sp)
   13f8e: be 64        	c.ldsp	s1, 0x1c8(sp)
   13f90: 93 f7 07 04  	andi	a5, a5, 0x40
   13f94: 1e 69        	c.ldsp	s2, 0x1c0(sp)
   13f96: fa 79        	c.ldsp	s3, 0x1b8(sp)
   13f98: 1a 7b        	c.ldsp	s6, 0x1a0(sp)
   13f9a: ba 6c        	c.ldsp	s9, 0x188(sp)
   13f9c: f6 7d        	c.ldsp	s11, 0x178(sp)
   13f9e: e3 9d 07 32  	bne	a5, zero, 0x14ad8 <_vfiprintf_r+0xcb4>
   13fa2: fe 60        	c.ldsp	ra, 0x1d8(sp)
   13fa4: 5a 7a        	c.ldsp	s4, 0x1b0(sp)
   13fa6: ba 7a        	c.ldsp	s5, 0x1a8(sp)
   13fa8: fa 6b        	c.ldsp	s7, 0x198(sp)
   13faa: 1a 6d        	c.ldsp	s10, 0x180(sp)
   13fac: 62 85        	c.mv	a0, s8
   13fae: 5a 6c        	c.ldsp	s8, 0x190(sp)
   13fb0: 3d 61        	c.addi16sp	sp, 0x1e0
   13fb2: 82 80        	c.jr	ra
   13fb4: 81 48        	c.li	a7, 0x0
   13fb6: 25 46        	c.li	a2, 0x9
   13fb8: 83 46 0d 00  	lbu	a3, 0x0(s10)
   13fbc: 1b 97 28 00  	slliw	a4, a7, 0x2
   13fc0: bb 08 17 01  	addw	a7, a4, a7
   13fc4: 9b 87 07 fd  	addiw	a5, a5, -0x30
   13fc8: 9b 98 18 00  	slliw	a7, a7, 0x1
   13fcc: 1b 87 06 fd  	addiw	a4, a3, -0x30
   13fd0: bb 88 17 01  	addw	a7, a5, a7
   13fd4: 05 0d        	c.addi	s10, 0x1
   13fd6: 9b 87 06 00  	addiw	a5, a3, 0x0
   13fda: e3 7f e6 fc  	bgeu	a2, a4, 0x13fb8 <_vfiprintf_r+0x194>
   13fde: 1b 87 07 fe  	addiw	a4, a5, -0x20
   13fe2: 9b 06 07 00  	addiw	a3, a4, 0x0
   13fe6: e3 f9 dd f4  	bgeu	s11, a3, 0x13f38 <_vfiprintf_r+0x114>
   13fea: c1 df        	c.beqz	a5, 0x13f82 <_vfiprintf_r+0x15e>
   13fec: 23 04 f1 08  	sb	a5, 0x88(sp)
   13ff0: a3 03 01 06  	sb	zero, 0x67(sp)
   13ff4: 05 43        	c.li	t1, 0x1
   13ff6: 05 4e        	c.li	t3, 0x1
   13ff8: 93 0d 81 08  	addi	s11, sp, 0x88
   13ffc: 81 44        	c.li	s1, 0x0
   13ffe: 81 4f        	c.li	t6, 0x0
   14000: e6 56        	c.lwsp	a3, 0x78(sp)
   14002: 93 f2 4c 08  	andi	t0, s9, 0x84
   14006: 8a 67        	c.ldsp	a5, 0x80(sp)
   14008: 9b 85 16 00  	addiw	a1, a3, 0x1
   1400c: 2e 86        	c.mv	a2, a1
   1400e: 63 96 02 00  	bne	t0, zero, 0x1401a <_vfiprintf_r+0x1f6>
   14012: 3b 87 68 40  	subw	a4, a7, t1
   14016: 63 4e e0 62  	blt	zero, a4, 0x14652 <_vfiprintf_r+0x82e>
   1401a: 03 47 71 06  	lbu	a4, 0x67(sp)
   1401e: 19 cf        	c.beqz	a4, 0x1403c <_vfiprintf_r+0x218>
   14020: 13 07 71 06  	addi	a4, sp, 0x67
   14024: 85 07        	c.addi	a5, 0x1
   14026: 18 e0        	c.sd	a4, 0x0(s0)
   14028: 05 47        	c.li	a4, 0x1
   1402a: 18 e4        	c.sd	a4, 0x8(s0)
   1402c: 3e e1        	c.sdsp	a5, 0x80(sp)
   1402e: ae dc        	c.swsp	a1, 0x78(sp)
   14030: 1d 47        	c.li	a4, 0x7
   14032: 63 41 b7 5a  	blt	a4, a1, 0x145d4 <_vfiprintf_r+0x7b0>
   14036: ae 86        	c.mv	a3, a1
   14038: 41 04        	c.addi	s0, 0x10
   1403a: 85 25        	c.addiw	a1, 0x1
   1403c: 63 81 0f 04  	beq	t6, zero, 0x1407e <_vfiprintf_r+0x25a>
   14040: b8 10        	c.addi4spn	a4, sp, 0x68
   14042: 89 07        	c.addi	a5, 0x2
   14044: 18 e0        	c.sd	a4, 0x0(s0)
   14046: 09 47        	c.li	a4, 0x2
   14048: 18 e4        	c.sd	a4, 0x8(s0)
   1404a: 3e e1        	c.sdsp	a5, 0x80(sp)
   1404c: ae dc        	c.swsp	a1, 0x78(sp)
   1404e: 1d 47        	c.li	a4, 0x7
   14050: 63 52 b7 5c  	bge	a4, a1, 0x14614 <_vfiprintf_r+0x7f0>
   14054: 63 8c 07 78  	beq	a5, zero, 0x147ec <_vfiprintf_r+0x9c8>
   14058: 90 18        	c.addi4spn	a2, sp, 0x70
   1405a: d2 85        	c.mv	a1, s4
   1405c: 56 85        	c.mv	a0, s5
   1405e: 9a e4        	c.sdsp	t1, 0x48(sp)
   14060: 46 f4        	c.sdsp	a7, 0x28(sp)
   14062: 72 f0        	c.sdsp	t3, 0x20(sp)
   14064: 16 ec        	c.sdsp	t0, 0x18(sp)
   14066: ef f0 ff ce  	jal	ra, 0x13d54 <__sprint_r.part.0>
   1406a: 19 fd        	c.bnez	a0, 0x13f88 <_vfiprintf_r+0x164>
   1406c: e6 56        	c.lwsp	a3, 0x78(sp)
   1406e: 8a 67        	c.ldsp	a5, 0x80(sp)
   14070: 26 63        	c.ldsp	t1, 0x48(sp)
   14072: a2 78        	c.ldsp	a7, 0x28(sp)
   14074: 02 7e        	c.ldsp	t3, 0x20(sp)
   14076: e2 62        	c.ldsp	t0, 0x18(sp)
   14078: 4e 84        	c.mv	s0, s3
   1407a: 9b 85 16 00  	addiw	a1, a3, 0x1
   1407e: 13 07 00 08  	addi	a4, zero, 0x80
   14082: 63 85 e2 3e  	beq	t0, a4, 0x1446c <_vfiprintf_r+0x648>
   14086: bb 84 c4 41  	subw	s1, s1, t3
   1408a: 63 42 90 4a  	blt	zero, s1, 0x1452e <_vfiprintf_r+0x70a>
   1408e: f2 97        	c.add	a5, t3
   14090: 23 30 b4 01  	sd	s11, 0x0(s0)
   14094: 23 34 c4 01  	sd	t3, 0x8(s0)
   14098: 3e e1        	c.sdsp	a5, 0x80(sp)
   1409a: ae dc        	c.swsp	a1, 0x78(sp)
   1409c: 1d 47        	c.li	a4, 0x7
   1409e: 63 55 b7 3c  	bge	a4, a1, 0x14468 <_vfiprintf_r+0x644>
   140a2: 63 8b 07 64  	beq	a5, zero, 0x146f8 <_vfiprintf_r+0x8d4>
   140a6: 90 18        	c.addi4spn	a2, sp, 0x70
   140a8: d2 85        	c.mv	a1, s4
   140aa: 56 85        	c.mv	a0, s5
   140ac: 1a f0        	c.sdsp	t1, 0x20(sp)
   140ae: 46 ec        	c.sdsp	a7, 0x18(sp)
   140b0: ef f0 5f ca  	jal	ra, 0x13d54 <__sprint_r.part.0>
   140b4: e3 1a 05 ec  	bne	a0, zero, 0x13f88 <_vfiprintf_r+0x164>
   140b8: 8a 67        	c.ldsp	a5, 0x80(sp)
   140ba: 02 73        	c.ldsp	t1, 0x20(sp)
   140bc: e2 68        	c.ldsp	a7, 0x18(sp)
   140be: 4e 84        	c.mv	s0, s3
   140c0: 13 f8 4c 00  	andi	a6, s9, 0x4
   140c4: 63 06 08 00  	beq	a6, zero, 0x140d0 <_vfiprintf_r+0x2ac>
   140c8: bb 84 68 40  	subw	s1, a7, t1
   140cc: 63 40 90 64  	blt	zero, s1, 0x1470c <_vfiprintf_r+0x8e8>
   140d0: 46 87        	c.mv	a4, a7
   140d2: 63 d3 68 00  	bge	a7, t1, 0x140d8 <_vfiprintf_r+0x2b4>
   140d6: 1a 87        	c.mv	a4, t1
   140d8: 3b 0c 87 01  	addw	s8, a4, s8
   140dc: 63 90 07 4e  	bne	a5, zero, 0x145bc <_vfiprintf_r+0x798>
   140e0: 82 dc        	c.swsp	zero, 0x78(sp)
   140e2: 4e 84        	c.mv	s0, s3
   140e4: d1 bb        	c.j	0x13eb8 <_vfiprintf_r+0x94>
   140e6: 93 ec 0c 01  	ori	s9, s9, 0x10
   140ea: 83 47 0d 00  	lbu	a5, 0x0(s10)
   140ee: 81 2c        	c.addiw	s9, 0x0
   140f0: 25 bd        	c.j	0x13f28 <_vfiprintf_r+0x104>
   140f2: 13 e8 0c 01  	ori	a6, s9, 0x10
   140f6: 9b 0c 08 00  	addiw	s9, a6, 0x0
   140fa: 93 f7 0c 02  	andi	a5, s9, 0x20
   140fe: 93 8e 8b 00  	addi	t4, s7, 0x8
   14102: b9 c7        	c.beqz	a5, 0x14150 <_vfiprintf_r+0x32c>
   14104: 83 b7 0b 00  	ld	a5, 0x0(s7)
   14108: be 8b        	c.mv	s7, a5
   1410a: 63 c3 07 06  	blt	a5, zero, 0x14170 <_vfiprintf_r+0x34c>
   1410e: 63 cd 04 06  	blt	s1, zero, 0x14188 <_vfiprintf_r+0x364>
   14112: 13 f8 fc f7  	andi	a6, s9, -0x81
   14116: 9b 0c 08 00  	addiw	s9, a6, 0x0
   1411a: 63 97 0b 06  	bne	s7, zero, 0x14188 <_vfiprintf_r+0x364>
   1411e: e3 9b 04 18  	bne	s1, zero, 0x14ab4 <_vfiprintf_r+0xc90>
   14122: 83 47 71 06  	lbu	a5, 0x67(sp)
   14126: 01 43        	c.li	t1, 0x0
   14128: 01 4e        	c.li	t3, 0x0
   1412a: f6 8b        	c.mv	s7, t4
   1412c: 93 0d c1 0e  	addi	s11, sp, 0xec
   14130: 91 c3        	c.beqz	a5, 0x14134 <_vfiprintf_r+0x310>
   14132: 05 23        	c.addiw	t1, 0x1
   14134: 93 ff 2c 00  	andi	t6, s9, 0x2
   14138: e3 84 0f ec  	beq	t6, zero, 0x14000 <_vfiprintf_r+0x1dc>
   1413c: 09 23        	c.addiw	t1, 0x2
   1413e: 89 4f        	c.li	t6, 0x2
   14140: c1 b5        	c.j	0x14000 <_vfiprintf_r+0x1dc>
   14142: bb 8d a4 41  	subw	s11, s1, s10
   14146: e3 99 0d d8  	bne	s11, zero, 0x13ed8 <_vfiprintf_r+0xb4>
   1414a: 83 c7 04 00  	lbu	a5, 0x0(s1)
   1414e: c9 b3        	c.j	0x13f10 <_vfiprintf_r+0xec>
   14150: 93 f7 0c 01  	andi	a5, s9, 0x10
   14154: c5 fb        	c.bnez	a5, 0x14104 <_vfiprintf_r+0x2e0>
   14156: 93 f7 0c 04  	andi	a5, s9, 0x40
   1415a: 83 ab 0b 00  	lw	s7, 0x0(s7)
   1415e: e3 8f 07 0c  	beq	a5, zero, 0x14a3c <_vfiprintf_r+0xc18>
   14162: 9b 9b 0b 01  	slliw	s7, s7, 0x10
   14166: 9b db 0b 41  	sraiw	s7, s7, 0x10
   1416a: de 87        	c.mv	a5, s7
   1416c: e3 d1 07 fa  	bge	a5, zero, 0x1410e <_vfiprintf_r+0x2ea>
   14170: 93 07 d0 02  	addi	a5, zero, 0x2d
   14174: a3 03 f1 06  	sb	a5, 0x67(sp)
   14178: b3 0b 70 41  	sub	s7, zero, s7
   1417c: 63 c6 04 00  	blt	s1, zero, 0x14188 <_vfiprintf_r+0x364>
   14180: 13 f8 fc f7  	andi	a6, s9, -0x81
   14184: 9b 0c 08 00  	addiw	s9, a6, 0x0
   14188: a5 47        	c.li	a5, 0x9
   1418a: 63 e4 77 6b  	bltu	a5, s7, 0x14832 <_vfiprintf_r+0xa0e>
   1418e: 9b 87 0b 03  	addiw	a5, s7, 0x30
   14192: 93 f7 f7 0f  	andi	a5, a5, 0xff
   14196: f6 8b        	c.mv	s7, t4
   14198: a3 05 f1 0e  	sb	a5, 0xeb(sp)
   1419c: 1b 83 04 00  	addiw	t1, s1, 0x0
   141a0: 63 43 90 00  	blt	zero, s1, 0x141a6 <_vfiprintf_r+0x382>
   141a4: 05 43        	c.li	t1, 0x1
   141a6: 05 4e        	c.li	t3, 0x1
   141a8: 93 0d b1 0e  	addi	s11, sp, 0xeb
   141ac: 83 47 71 06  	lbu	a5, 0x67(sp)
   141b0: c9 f3        	c.bnez	a5, 0x14132 <_vfiprintf_r+0x30e>
   141b2: 49 b7        	c.j	0x14134 <_vfiprintf_r+0x310>
   141b4: 83 bd 0b 00  	ld	s11, 0x0(s7)
   141b8: a3 03 01 06  	sb	zero, 0x67(sp)
   141bc: a1 0b        	c.addi	s7, 0x8
   141be: e3 87 0d 04  	beq	s11, zero, 0x14a0c <_vfiprintf_r+0xbe8>
   141c2: 46 ec        	c.sdsp	a7, 0x18(sp)
   141c4: 63 c8 04 7a  	blt	s1, zero, 0x14974 <_vfiprintf_r+0xb50>
   141c8: 26 86        	c.mv	a2, s1
   141ca: 81 45        	c.li	a1, 0x0
   141cc: 6e 85        	c.mv	a0, s11
   141ce: ef 10 20 3d  	jal	ra, 0x155a0 <memchr>
   141d2: e2 68        	c.ldsp	a7, 0x18(sp)
   141d4: 26 8e        	c.mv	t3, s1
   141d6: 19 c1        	c.beqz	a0, 0x141dc <_vfiprintf_r+0x3b8>
   141d8: 3b 0e b5 41  	subw	t3, a0, s11
   141dc: 13 43 fe ff  	xori	t1, t3, -0x1
   141e0: 83 47 71 06  	lbu	a5, 0x67(sp)
   141e4: 13 53 f3 43  	srai	t1, t1, 0x3f
   141e8: 33 73 6e 00  	and	t1, t3, t1
   141ec: 01 23        	c.addiw	t1, 0x0
   141ee: 81 44        	c.li	s1, 0x0
   141f0: 81 4f        	c.li	t6, 0x0
   141f2: a1 f3        	c.bnez	a5, 0x14132 <_vfiprintf_r+0x30e>
   141f4: 31 b5        	c.j	0x14000 <_vfiprintf_r+0x1dc>
   141f6: 83 a7 0b 00  	lw	a5, 0x0(s7)
   141fa: a3 03 01 06  	sb	zero, 0x67(sp)
   141fe: a1 0b        	c.addi	s7, 0x8
   14200: 23 04 f1 08  	sb	a5, 0x88(sp)
   14204: 05 43        	c.li	t1, 0x1
   14206: 05 4e        	c.li	t3, 0x1
   14208: 93 0d 81 08  	addi	s11, sp, 0x88
   1420c: c5 bb        	c.j	0x13ffc <_vfiprintf_r+0x1d8>
   1420e: 83 a8 0b 00  	lw	a7, 0x0(s7)
   14212: a1 0b        	c.addi	s7, 0x8
   14214: 63 df 08 08  	bge	a7, zero, 0x142b2 <_vfiprintf_r+0x48e>
   14218: bb 08 10 41  	subw	a7, zero, a7
   1421c: 93 ec 4c 00  	ori	s9, s9, 0x4
   14220: 83 47 0d 00  	lbu	a5, 0x0(s10)
   14224: 81 2c        	c.addiw	s9, 0x0
   14226: 09 b3        	c.j	0x13f28 <_vfiprintf_r+0x104>
   14228: 13 07 b0 02  	addi	a4, zero, 0x2b
   1422c: 83 47 0d 00  	lbu	a5, 0x0(s10)
   14230: a3 03 e1 06  	sb	a4, 0x67(sp)
   14234: d5 b9        	c.j	0x13f28 <_vfiprintf_r+0x104>
   14236: 93 ec 0c 08  	ori	s9, s9, 0x80
   1423a: 83 47 0d 00  	lbu	a5, 0x0(s10)
   1423e: 81 2c        	c.addiw	s9, 0x0
   14240: e5 b1        	c.j	0x13f28 <_vfiprintf_r+0x104>
   14242: 83 47 0d 00  	lbu	a5, 0x0(s10)
   14246: 13 06 a0 02  	addi	a2, zero, 0x2a
   1424a: 93 06 1d 00  	addi	a3, s10, 0x1
   1424e: e3 8d c7 08  	beq	a5, a2, 0x14ae8 <_vfiprintf_r+0xcc4>
   14252: 1b 87 07 fd  	addiw	a4, a5, -0x30
   14256: 25 45        	c.li	a0, 0x9
   14258: 01 46        	c.li	a2, 0x0
   1425a: a5 45        	c.li	a1, 0x9
   1425c: 36 8d        	c.mv	s10, a3
   1425e: 81 44        	c.li	s1, 0x0
   14260: e3 66 e5 cc  	bltu	a0, a4, 0x13f2c <_vfiprintf_r+0x108>
   14264: 83 c7 06 00  	lbu	a5, 0x0(a3)
   14268: 9b 14 26 00  	slliw	s1, a2, 0x2
   1426c: b1 9c        	c.addw	s1, a2
   1426e: 9b 94 14 00  	slliw	s1, s1, 0x1
   14272: 3b 86 e4 00  	addw	a2, s1, a4
   14276: 1b 87 07 fd  	addiw	a4, a5, -0x30
   1427a: b2 84        	c.mv	s1, a2
   1427c: 85 06        	c.addi	a3, 0x1
   1427e: e3 f3 e5 fe  	bgeu	a1, a4, 0x14264 <_vfiprintf_r+0x440>
   14282: 63 4b 06 66  	blt	a2, zero, 0x148f8 <_vfiprintf_r+0xad4>
   14286: 36 8d        	c.mv	s10, a3
   14288: 55 b1        	c.j	0x13f2c <_vfiprintf_r+0x108>
   1428a: 56 85        	c.mv	a0, s5
   1428c: 46 ec        	c.sdsp	a7, 0x18(sp)
   1428e: ef 10 00 51  	jal	ra, 0x1579e <_localeconv_r>
   14292: 1c 65        	c.ld	a5, 0x8(a0)
   14294: 3e 85        	c.mv	a0, a5
   14296: be e0        	c.sdsp	a5, 0x40(sp)
   14298: ef d0 5f 99  	jal	ra, 0x11c2c <strlen>
   1429c: aa 87        	c.mv	a5, a0
   1429e: 56 85        	c.mv	a0, s5
   142a0: 3e f8        	c.sdsp	a5, 0x30(sp)
   142a2: ef 10 c0 4f  	jal	ra, 0x1579e <_localeconv_r>
   142a6: 18 69        	c.ld	a4, 0x10(a0)
   142a8: c2 77        	c.ldsp	a5, 0x30(sp)
   142aa: e2 68        	c.ldsp	a7, 0x18(sp)
   142ac: 3a fc        	c.sdsp	a4, 0x38(sp)
   142ae: 63 9f 07 60  	bne	a5, zero, 0x148cc <_vfiprintf_r+0xaa8>
   142b2: 83 47 0d 00  	lbu	a5, 0x0(s10)
   142b6: 8d b9        	c.j	0x13f28 <_vfiprintf_r+0x104>
   142b8: 93 ec 1c 00  	ori	s9, s9, 0x1
   142bc: 83 47 0d 00  	lbu	a5, 0x0(s10)
   142c0: 81 2c        	c.addiw	s9, 0x0
   142c2: 9d b1        	c.j	0x13f28 <_vfiprintf_r+0x104>
   142c4: 03 47 71 06  	lbu	a4, 0x67(sp)
   142c8: 83 47 0d 00  	lbu	a5, 0x0(s10)
   142cc: e3 1e 07 c4  	bne	a4, zero, 0x13f28 <_vfiprintf_r+0x104>
   142d0: 13 07 00 02  	addi	a4, zero, 0x20
   142d4: a3 03 e1 06  	sb	a4, 0x67(sp)
   142d8: 81 b9        	c.j	0x13f28 <_vfiprintf_r+0x104>
   142da: 93 e7 0c 01  	ori	a5, s9, 0x10
   142de: 81 27        	c.addiw	a5, 0x0
   142e0: 13 f7 07 02  	andi	a4, a5, 0x20
   142e4: 93 86 8b 00  	addi	a3, s7, 0x8
   142e8: 09 e7        	c.bnez	a4, 0x142f2 <_vfiprintf_r+0x4ce>
   142ea: 13 f7 07 01  	andi	a4, a5, 0x10
   142ee: 63 06 07 5c  	beq	a4, zero, 0x148ba <_vfiprintf_r+0xa96>
   142f2: 03 b7 0b 00  	ld	a4, 0x0(s7)
   142f6: 13 f8 f7 bf  	andi	a6, a5, -0x401
   142fa: a3 03 01 06  	sb	zero, 0x67(sp)
   142fe: 9b 0c 08 00  	addiw	s9, a6, 0x0
   14302: b6 8b        	c.mv	s7, a3
   14304: 63 c5 04 08  	blt	s1, zero, 0x1438e <_vfiprintf_r+0x56a>
   14308: 93 f7 f7 b7  	andi	a5, a5, -0x481
   1430c: 81 27        	c.addiw	a5, 0x0
   1430e: 63 16 07 6c  	bne	a4, zero, 0x149da <_vfiprintf_r+0xbb6>
   14312: 66 8e        	c.mv	t3, s9
   14314: be 8c        	c.mv	s9, a5
   14316: ad e4        	c.bnez	s1, 0x14380 <_vfiprintf_r+0x55c>
   14318: 63 18 07 50  	bne	a4, zero, 0x14828 <_vfiprintf_r+0xa04>
   1431c: 13 7e 1e 00  	andi	t3, t3, 0x1
   14320: 63 09 0e 56  	beq	t3, zero, 0x14892 <_vfiprintf_r+0xa6e>
   14324: 93 07 00 03  	addi	a5, zero, 0x30
   14328: a3 05 f1 0e  	sb	a5, 0xeb(sp)
   1432c: 72 83        	c.mv	t1, t3
   1432e: 93 0d b1 0e  	addi	s11, sp, 0xeb
   14332: ad bd        	c.j	0x141ac <_vfiprintf_r+0x388>
   14334: 83 47 0d 00  	lbu	a5, 0x0(s10)
   14338: 13 07 c0 06  	addi	a4, zero, 0x6c
   1433c: 63 80 e7 6c  	beq	a5, a4, 0x149fc <_vfiprintf_r+0xbd8>
   14340: 93 ec 0c 01  	ori	s9, s9, 0x10
   14344: 81 2c        	c.addiw	s9, 0x0
   14346: cd b6        	c.j	0x13f28 <_vfiprintf_r+0x104>
   14348: 13 ee 0c 01  	ori	t3, s9, 0x10
   1434c: 01 2e        	c.addiw	t3, 0x0
   1434e: 93 77 0e 02  	andi	a5, t3, 0x20
   14352: 93 8e 8b 00  	addi	t4, s7, 0x8
   14356: 89 e7        	c.bnez	a5, 0x14360 <_vfiprintf_r+0x53c>
   14358: 93 77 0e 01  	andi	a5, t3, 0x10
   1435c: 63 85 07 54  	beq	a5, zero, 0x148a6 <_vfiprintf_r+0xa82>
   14360: 83 bb 0b 00  	ld	s7, 0x0(s7)
   14364: a3 03 01 06  	sb	zero, 0x67(sp)
   14368: f2 8c        	c.mv	s9, t3
   1436a: e3 cf 04 e0  	blt	s1, zero, 0x14188 <_vfiprintf_r+0x364>
   1436e: 13 78 fe f7  	andi	a6, t3, -0x81
   14372: 9b 0c 08 00  	addiw	s9, a6, 0x0
   14376: e3 99 0b e0  	bne	s7, zero, 0x14188 <_vfiprintf_r+0x364>
   1437a: f6 8b        	c.mv	s7, t4
   1437c: 05 47        	c.li	a4, 0x1
   1437e: c9 dc        	c.beqz	s1, 0x14318 <_vfiprintf_r+0x4f4>
   14380: 85 47        	c.li	a5, 0x1
   14382: 63 0a f7 72  	beq	a4, a5, 0x14ab6 <_vfiprintf_r+0xc92>
   14386: 89 47        	c.li	a5, 0x2
   14388: 63 0a f7 6c  	beq	a4, a5, 0x14a5c <_vfiprintf_r+0xc38>
   1438c: 01 47        	c.li	a4, 0x0
   1438e: 13 0e c1 0e  	addi	t3, sp, 0xec
   14392: f2 8d        	c.mv	s11, t3
   14394: 93 77 77 00  	andi	a5, a4, 0x7
   14398: 93 87 07 03  	addi	a5, a5, 0x30
   1439c: a3 8f fd fe  	sb	a5, -0x1(s11)
   143a0: 0d 83        	c.srli	a4, 0x3
   143a2: ee 86        	c.mv	a3, s11
   143a4: fd 1d        	c.addi	s11, -0x1
   143a6: 7d f7        	c.bnez	a4, 0x14394 <_vfiprintf_r+0x570>
   143a8: 13 f7 1c 00  	andi	a4, s9, 0x1
   143ac: 63 0a 07 28  	beq	a4, zero, 0x14640 <_vfiprintf_r+0x81c>
   143b0: 13 07 00 03  	addi	a4, zero, 0x30
   143b4: 63 86 e7 28  	beq	a5, a4, 0x14640 <_vfiprintf_r+0x81c>
   143b8: f9 16        	c.addi	a3, -0x2
   143ba: a3 8f ed fe  	sb	a4, -0x1(s11)
   143be: 3b 0e de 40  	subw	t3, t3, a3
   143c2: 1b 83 04 00  	addiw	t1, s1, 0x0
   143c6: 63 c5 c4 53  	blt	s1, t3, 0x148f0 <_vfiprintf_r+0xacc>
   143ca: b6 8d        	c.mv	s11, a3
   143cc: c5 b3        	c.j	0x141ac <_vfiprintf_r+0x388>
   143ce: 83 47 0d 00  	lbu	a5, 0x0(s10)
   143d2: 13 07 80 06  	addi	a4, zero, 0x68
   143d6: 63 8b e7 60  	beq	a5, a4, 0x149ec <_vfiprintf_r+0xbc8>
   143da: 93 ec 0c 04  	ori	s9, s9, 0x40
   143de: 81 2c        	c.addiw	s9, 0x0
   143e0: a1 b6        	c.j	0x13f28 <_vfiprintf_r+0x104>
   143e2: 93 ec 0c 02  	ori	s9, s9, 0x20
   143e6: 83 47 0d 00  	lbu	a5, 0x0(s10)
   143ea: 81 2c        	c.addiw	s9, 0x0
   143ec: 35 be        	c.j	0x13f28 <_vfiprintf_r+0x104>
   143ee: a1 67        	c.lui	a5, 0x8
   143f0: 93 87 07 83  	addi	a5, a5, -0x7d0
   143f4: 23 14 f1 06  	sh	a5, 0x68(sp)
   143f8: b7 07 02 00  	lui	a5, 0x20
   143fc: 13 e8 2c 00  	ori	a6, s9, 0x2
   14400: 93 87 87 d6  	addi	a5, a5, -0x298
   14404: 03 b7 0b 00  	ld	a4, 0x0(s7)
   14408: 9b 0c 08 00  	addiw	s9, a6, 0x0
   1440c: a1 0b        	c.addi	s7, 0x8
   1440e: 3e e8        	c.sdsp	a5, 0x10(sp)
   14410: a3 03 01 06  	sb	zero, 0x67(sp)
   14414: 63 c8 04 20  	blt	s1, zero, 0x14624 <_vfiprintf_r+0x800>
   14418: 93 f7 fc f7  	andi	a5, s9, -0x81
   1441c: 81 27        	c.addiw	a5, 0x0
   1441e: 63 1f 07 1e  	bne	a4, zero, 0x1461c <_vfiprintf_r+0x7f8>
   14422: 66 8e        	c.mv	t3, s9
   14424: 09 47        	c.li	a4, 0x2
   14426: be 8c        	c.mv	s9, a5
   14428: fd b5        	c.j	0x14316 <_vfiprintf_r+0x4f2>
   1442a: 93 f7 0c 02  	andi	a5, s9, 0x20
   1442e: 03 b7 0b 00  	ld	a4, 0x0(s7)
   14432: 85 e3        	c.bnez	a5, 0x14452 <_vfiprintf_r+0x62e>
   14434: 93 f7 0c 01  	andi	a5, s9, 0x10
   14438: 89 ef        	c.bnez	a5, 0x14452 <_vfiprintf_r+0x62e>
   1443a: 93 f7 0c 04  	andi	a5, s9, 0x40
   1443e: 63 9d 07 62  	bne	a5, zero, 0x14a78 <_vfiprintf_r+0xc54>
   14442: 13 f8 0c 20  	andi	a6, s9, 0x200
   14446: 63 0c 08 68  	beq	a6, zero, 0x14ade <_vfiprintf_r+0xcba>
   1444a: 23 00 87 01  	sb	s8, 0x0(a4)
   1444e: a1 0b        	c.addi	s7, 0x8
   14450: a5 b4        	c.j	0x13eb8 <_vfiprintf_r+0x94>
   14452: 23 30 87 01  	sd	s8, 0x0(a4)
   14456: a1 0b        	c.addi	s7, 0x8
   14458: 85 b4        	c.j	0x13eb8 <_vfiprintf_r+0x94>
   1445a: 05 47        	c.li	a4, 0x1
   1445c: f2 87        	c.mv	a5, t3
   1445e: ee f9        	c.sdsp	s11, 0xf0(sp)
   14460: f2 fd        	c.sdsp	t3, 0xf8(sp)
   14462: 72 e1        	c.sdsp	t3, 0x80(sp)
   14464: ba dc        	c.swsp	a4, 0x78(sp)
   14466: 4e 84        	c.mv	s0, s3
   14468: 41 04        	c.addi	s0, 0x10
   1446a: 99 b9        	c.j	0x140c0 <_vfiprintf_r+0x29c>
   1446c: 3b 87 68 40  	subw	a4, a7, t1
   14470: e3 5b e0 c0  	bge	zero, a4, 0x14086 <_vfiprintf_r+0x262>
   14474: 41 46        	c.li	a2, 0x10
   14476: 63 5b e6 64  	bge	a2, a4, 0x14acc <_vfiprintf_r+0xca8>
   1447a: b7 0e 02 00  	lui	t4, 0x20
   1447e: 93 8e 0e 19  	addi	t4, t4, 0x190
   14482: 26 f4        	c.sdsp	s1, 0x28(sp)
   14484: a2 85        	c.mv	a1, s0
   14486: 41 4f        	c.li	t5, 0x10
   14488: 9d 4f        	c.li	t6, 0x7
   1448a: 72 ec        	c.sdsp	t3, 0x18(sp)
   1448c: 46 f0        	c.sdsp	a7, 0x20(sp)
   1448e: 9a e4        	c.sdsp	t1, 0x48(sp)
   14490: 3a 84        	c.mv	s0, a4
   14492: f6 84        	c.mv	s1, t4
   14494: 01 a8        	c.j	0x144a4 <_vfiprintf_r+0x680>
   14496: 1b 86 26 00  	addiw	a2, a3, 0x2
   1449a: c1 05        	c.addi	a1, 0x10
   1449c: aa 86        	c.mv	a3, a0
   1449e: 41 34        	c.addiw	s0, -0x10
   144a0: 63 5f 8f 02  	bge	t5, s0, 0x144de <_vfiprintf_r+0x6ba>
   144a4: 1b 85 16 00  	addiw	a0, a3, 0x1
   144a8: c1 07        	c.addi	a5, 0x10
   144aa: 84 e1        	c.sd	s1, 0x0(a1)
   144ac: 23 b4 e5 01  	sd	t5, 0x8(a1)
   144b0: 3e e1        	c.sdsp	a5, 0x80(sp)
   144b2: aa dc        	c.swsp	a0, 0x78(sp)
   144b4: e3 d1 af fe  	bge	t6, a0, 0x14496 <_vfiprintf_r+0x672>
   144b8: 63 8a 07 10  	beq	a5, zero, 0x145cc <_vfiprintf_r+0x7a8>
   144bc: 90 18        	c.addi4spn	a2, sp, 0x70
   144be: d2 85        	c.mv	a1, s4
   144c0: 56 85        	c.mv	a0, s5
   144c2: ef f0 3f 89  	jal	ra, 0x13d54 <__sprint_r.part.0>
   144c6: e3 11 05 ac  	bne	a0, zero, 0x13f88 <_vfiprintf_r+0x164>
   144ca: e6 56        	c.lwsp	a3, 0x78(sp)
   144cc: 41 4f        	c.li	t5, 0x10
   144ce: 41 34        	c.addiw	s0, -0x10
   144d0: 8a 67        	c.ldsp	a5, 0x80(sp)
   144d2: ce 85        	c.mv	a1, s3
   144d4: 1b 86 16 00  	addiw	a2, a3, 0x1
   144d8: 9d 4f        	c.li	t6, 0x7
   144da: e3 45 8f fc  	blt	t5, s0, 0x144a4 <_vfiprintf_r+0x680>
   144de: a6 8e        	c.mv	t4, s1
   144e0: 62 6e        	c.ldsp	t3, 0x18(sp)
   144e2: 82 78        	c.ldsp	a7, 0x20(sp)
   144e4: 26 63        	c.ldsp	t1, 0x48(sp)
   144e6: a2 74        	c.ldsp	s1, 0x28(sp)
   144e8: 22 87        	c.mv	a4, s0
   144ea: 2e 84        	c.mv	s0, a1
   144ec: ba 97        	c.add	a5, a4
   144ee: 18 e4        	c.sd	a4, 0x8(s0)
   144f0: 23 30 d4 01  	sd	t4, 0x0(s0)
   144f4: 3e e1        	c.sdsp	a5, 0x80(sp)
   144f6: b2 dc        	c.swsp	a2, 0x78(sp)
   144f8: 1d 47        	c.li	a4, 0x7
   144fa: 63 50 c7 3a  	bge	a4, a2, 0x1489a <_vfiprintf_r+0xa76>
   144fe: 63 81 07 56  	beq	a5, zero, 0x14a60 <_vfiprintf_r+0xc3c>
   14502: 90 18        	c.addi4spn	a2, sp, 0x70
   14504: d2 85        	c.mv	a1, s4
   14506: 56 85        	c.mv	a0, s5
   14508: 1a f4        	c.sdsp	t1, 0x28(sp)
   1450a: 46 f0        	c.sdsp	a7, 0x20(sp)
   1450c: 72 ec        	c.sdsp	t3, 0x18(sp)
   1450e: ef f0 7f 84  	jal	ra, 0x13d54 <__sprint_r.part.0>
   14512: e3 1b 05 a6  	bne	a0, zero, 0x13f88 <_vfiprintf_r+0x164>
   14516: 62 6e        	c.ldsp	t3, 0x18(sp)
   14518: e6 56        	c.lwsp	a3, 0x78(sp)
   1451a: 8a 67        	c.ldsp	a5, 0x80(sp)
   1451c: bb 84 c4 41  	subw	s1, s1, t3
   14520: 22 73        	c.ldsp	t1, 0x28(sp)
   14522: 82 78        	c.ldsp	a7, 0x20(sp)
   14524: 4e 84        	c.mv	s0, s3
   14526: 9b 85 16 00  	addiw	a1, a3, 0x1
   1452a: e3 52 90 b6  	bge	zero, s1, 0x1408e <_vfiprintf_r+0x26a>
   1452e: b7 0e 02 00  	lui	t4, 0x20
   14532: 93 8e 0e 19  	addi	t4, t4, 0x190
   14536: 63 53 99 06  	bge	s2, s1, 0x1459c <_vfiprintf_r+0x778>
   1453a: 22 87        	c.mv	a4, s0
   1453c: 1d 4f        	c.li	t5, 0x7
   1453e: 26 84        	c.mv	s0, s1
   14540: 72 ec        	c.sdsp	t3, 0x18(sp)
   14542: 46 f0        	c.sdsp	a7, 0x20(sp)
   14544: 1a f4        	c.sdsp	t1, 0x28(sp)
   14546: da 84        	c.mv	s1, s6
   14548: 01 a8        	c.j	0x14558 <_vfiprintf_r+0x734>
   1454a: 9b 85 26 00  	addiw	a1, a3, 0x2
   1454e: 41 07        	c.addi	a4, 0x10
   14550: aa 86        	c.mv	a3, a0
   14552: 41 34        	c.addiw	s0, -0x10
   14554: 63 5e 89 02  	bge	s2, s0, 0x14590 <_vfiprintf_r+0x76c>
   14558: 1b 85 16 00  	addiw	a0, a3, 0x1
   1455c: c1 07        	c.addi	a5, 0x10
   1455e: 23 30 67 01  	sd	s6, 0x0(a4)
   14562: 23 34 27 01  	sd	s2, 0x8(a4)
   14566: 3e e1        	c.sdsp	a5, 0x80(sp)
   14568: aa dc        	c.swsp	a0, 0x78(sp)
   1456a: e3 50 af fe  	bge	t5, a0, 0x1454a <_vfiprintf_r+0x726>
   1456e: b9 c3        	c.beqz	a5, 0x145b4 <_vfiprintf_r+0x790>
   14570: 90 18        	c.addi4spn	a2, sp, 0x70
   14572: d2 85        	c.mv	a1, s4
   14574: 56 85        	c.mv	a0, s5
   14576: ef f0 ef fd  	jal	ra, 0x13d54 <__sprint_r.part.0>
   1457a: e3 17 05 a0  	bne	a0, zero, 0x13f88 <_vfiprintf_r+0x164>
   1457e: e6 56        	c.lwsp	a3, 0x78(sp)
   14580: 41 34        	c.addiw	s0, -0x10
   14582: 8a 67        	c.ldsp	a5, 0x80(sp)
   14584: 4e 87        	c.mv	a4, s3
   14586: 9b 85 16 00  	addiw	a1, a3, 0x1
   1458a: 1d 4f        	c.li	t5, 0x7
   1458c: e3 46 89 fc  	blt	s2, s0, 0x14558 <_vfiprintf_r+0x734>
   14590: 62 6e        	c.ldsp	t3, 0x18(sp)
   14592: 82 78        	c.ldsp	a7, 0x20(sp)
   14594: 22 73        	c.ldsp	t1, 0x28(sp)
   14596: a6 8e        	c.mv	t4, s1
   14598: a2 84        	c.mv	s1, s0
   1459a: 3a 84        	c.mv	s0, a4
   1459c: a6 97        	c.add	a5, s1
   1459e: 23 30 d4 01  	sd	t4, 0x0(s0)
   145a2: 04 e4        	c.sd	s1, 0x8(s0)
   145a4: 3e e1        	c.sdsp	a5, 0x80(sp)
   145a6: ae dc        	c.swsp	a1, 0x78(sp)
   145a8: 1d 47        	c.li	a4, 0x7
   145aa: 63 49 b7 20  	blt	a4, a1, 0x147bc <_vfiprintf_r+0x998>
   145ae: 41 04        	c.addi	s0, 0x10
   145b0: 85 25        	c.addiw	a1, 0x1
   145b2: f1 bc        	c.j	0x1408e <_vfiprintf_r+0x26a>
   145b4: 85 45        	c.li	a1, 0x1
   145b6: 81 46        	c.li	a3, 0x0
   145b8: 4e 87        	c.mv	a4, s3
   145ba: 61 bf        	c.j	0x14552 <_vfiprintf_r+0x72e>
   145bc: 90 18        	c.addi4spn	a2, sp, 0x70
   145be: d2 85        	c.mv	a1, s4
   145c0: 56 85        	c.mv	a0, s5
   145c2: ef f0 2f f9  	jal	ra, 0x13d54 <__sprint_r.part.0>
   145c6: e3 0d 05 b0  	beq	a0, zero, 0x140e0 <_vfiprintf_r+0x2bc>
   145ca: 7d ba        	c.j	0x13f88 <_vfiprintf_r+0x164>
   145cc: 05 46        	c.li	a2, 0x1
   145ce: 81 46        	c.li	a3, 0x0
   145d0: ce 85        	c.mv	a1, s3
   145d2: f1 b5        	c.j	0x1449e <_vfiprintf_r+0x67a>
   145d4: 85 cb        	c.beqz	a5, 0x14604 <_vfiprintf_r+0x7e0>
   145d6: 90 18        	c.addi4spn	a2, sp, 0x70
   145d8: d2 85        	c.mv	a1, s4
   145da: 56 85        	c.mv	a0, s5
   145dc: 9a e8        	c.sdsp	t1, 0x50(sp)
   145de: c6 e4        	c.sdsp	a7, 0x48(sp)
   145e0: 72 f4        	c.sdsp	t3, 0x28(sp)
   145e2: 16 f0        	c.sdsp	t0, 0x20(sp)
   145e4: 7e ec        	c.sdsp	t6, 0x18(sp)
   145e6: ef f0 ef f6  	jal	ra, 0x13d54 <__sprint_r.part.0>
   145ea: e3 1f 05 98  	bne	a0, zero, 0x13f88 <_vfiprintf_r+0x164>
   145ee: e6 56        	c.lwsp	a3, 0x78(sp)
   145f0: 8a 67        	c.ldsp	a5, 0x80(sp)
   145f2: 46 63        	c.ldsp	t1, 0x50(sp)
   145f4: a6 68        	c.ldsp	a7, 0x48(sp)
   145f6: 22 7e        	c.ldsp	t3, 0x28(sp)
   145f8: 82 72        	c.ldsp	t0, 0x20(sp)
   145fa: e2 6f        	c.ldsp	t6, 0x18(sp)
   145fc: 4e 84        	c.mv	s0, s3
   145fe: 9b 85 16 00  	addiw	a1, a3, 0x1
   14602: 2d bc        	c.j	0x1403c <_vfiprintf_r+0x218>
   14604: 63 81 0f 2e  	beq	t6, zero, 0x148e6 <_vfiprintf_r+0xac2>
   14608: bc 10        	c.addi4spn	a5, sp, 0x68
   1460a: be f9        	c.sdsp	a5, 0xf0(sp)
   1460c: 89 47        	c.li	a5, 0x2
   1460e: be fd        	c.sdsp	a5, 0xf8(sp)
   14610: 85 45        	c.li	a1, 0x1
   14612: 4e 84        	c.mv	s0, s3
   14614: ae 86        	c.mv	a3, a1
   14616: 41 04        	c.addi	s0, 0x10
   14618: 85 25        	c.addiw	a1, 0x1
   1461a: 95 b4        	c.j	0x1407e <_vfiprintf_r+0x25a>
   1461c: be 8c        	c.mv	s9, a5
   1461e: 89 47        	c.li	a5, 0x2
   14620: e3 87 07 d6  	beq	a5, zero, 0x1438e <_vfiprintf_r+0x56a>
   14624: c2 66        	c.ldsp	a3, 0x10(sp)
   14626: 13 0e c1 0e  	addi	t3, sp, 0xec
   1462a: f2 8d        	c.mv	s11, t3
   1462c: 93 77 f7 00  	andi	a5, a4, 0xf
   14630: b6 97        	c.add	a5, a3
   14632: 83 c7 07 00  	lbu	a5, 0x0(a5)
   14636: 11 83        	c.srli	a4, 0x4
   14638: fd 1d        	c.addi	s11, -0x1
   1463a: 23 80 fd 00  	sb	a5, 0x0(s11)
   1463e: 7d f7        	c.bnez	a4, 0x1462c <_vfiprintf_r+0x808>
   14640: 3b 0e be 41  	subw	t3, t3, s11
   14644: 1b 83 04 00  	addiw	t1, s1, 0x0
   14648: e3 d2 c4 b7  	bge	s1, t3, 0x141ac <_vfiprintf_r+0x388>
   1464c: 1b 03 0e 00  	addiw	t1, t3, 0x0
   14650: b1 be        	c.j	0x141ac <_vfiprintf_r+0x388>
   14652: 41 45        	c.li	a0, 0x10
   14654: 63 5b e5 44  	bge	a0, a4, 0x14aaa <_vfiprintf_r+0xc86>
   14658: b7 0e 02 00  	lui	t4, 0x20
   1465c: 93 8e 0e 1a  	addi	t4, t4, 0x1a0
   14660: a6 e8        	c.sdsp	s1, 0x50(sp)
   14662: a2 85        	c.mv	a1, s0
   14664: 41 4f        	c.li	t5, 0x10
   14666: 9d 43        	c.li	t2, 0x7
   14668: 7e ec        	c.sdsp	t6, 0x18(sp)
   1466a: 16 f0        	c.sdsp	t0, 0x20(sp)
   1466c: 72 f4        	c.sdsp	t3, 0x28(sp)
   1466e: c6 e4        	c.sdsp	a7, 0x48(sp)
   14670: 9a ec        	c.sdsp	t1, 0x58(sp)
   14672: 3a 84        	c.mv	s0, a4
   14674: f6 84        	c.mv	s1, t4
   14676: 11 a8        	c.j	0x1468a <_vfiprintf_r+0x866>
   14678: 1b 86 26 00  	addiw	a2, a3, 0x2
   1467c: c1 05        	c.addi	a1, 0x10
   1467e: aa 86        	c.mv	a3, a0
   14680: 41 34        	c.addiw	s0, -0x10
   14682: 63 50 8f 04  	bge	t5, s0, 0x146c2 <_vfiprintf_r+0x89e>
   14686: 1b 86 16 00  	addiw	a2, a3, 0x1
   1468a: c1 07        	c.addi	a5, 0x10
   1468c: 84 e1        	c.sd	s1, 0x0(a1)
   1468e: 23 b4 e5 01  	sd	t5, 0x8(a1)
   14692: 3e e1        	c.sdsp	a5, 0x80(sp)
   14694: 1b 05 06 00  	addiw	a0, a2, 0x0
   14698: b2 dc        	c.swsp	a2, 0x78(sp)
   1469a: e3 df a3 fc  	bge	t2, a0, 0x14678 <_vfiprintf_r+0x854>
   1469e: a9 cb        	c.beqz	a5, 0x146f0 <_vfiprintf_r+0x8cc>
   146a0: 90 18        	c.addi4spn	a2, sp, 0x70
   146a2: d2 85        	c.mv	a1, s4
   146a4: 56 85        	c.mv	a0, s5
   146a6: ef f0 ef ea  	jal	ra, 0x13d54 <__sprint_r.part.0>
   146aa: e3 1f 05 8c  	bne	a0, zero, 0x13f88 <_vfiprintf_r+0x164>
   146ae: e6 56        	c.lwsp	a3, 0x78(sp)
   146b0: 41 4f        	c.li	t5, 0x10
   146b2: 41 34        	c.addiw	s0, -0x10
   146b4: 8a 67        	c.ldsp	a5, 0x80(sp)
   146b6: ce 85        	c.mv	a1, s3
   146b8: 1b 86 16 00  	addiw	a2, a3, 0x1
   146bc: 9d 43        	c.li	t2, 0x7
   146be: e3 44 8f fc  	blt	t5, s0, 0x14686 <_vfiprintf_r+0x862>
   146c2: a6 8e        	c.mv	t4, s1
   146c4: e2 6f        	c.ldsp	t6, 0x18(sp)
   146c6: 82 72        	c.ldsp	t0, 0x20(sp)
   146c8: 22 7e        	c.ldsp	t3, 0x28(sp)
   146ca: a6 68        	c.ldsp	a7, 0x48(sp)
   146cc: 66 63        	c.ldsp	t1, 0x58(sp)
   146ce: c6 64        	c.ldsp	s1, 0x50(sp)
   146d0: 22 87        	c.mv	a4, s0
   146d2: 2e 84        	c.mv	s0, a1
   146d4: ba 97        	c.add	a5, a4
   146d6: 18 e4        	c.sd	a4, 0x8(s0)
   146d8: 23 30 d4 01  	sd	t4, 0x0(s0)
   146dc: 3e e1        	c.sdsp	a5, 0x80(sp)
   146de: b2 dc        	c.swsp	a2, 0x78(sp)
   146e0: 1d 47        	c.li	a4, 0x7
   146e2: 63 49 c7 10  	blt	a4, a2, 0x147f4 <_vfiprintf_r+0x9d0>
   146e6: 41 04        	c.addi	s0, 0x10
   146e8: 9b 05 16 00  	addiw	a1, a2, 0x1
   146ec: b2 86        	c.mv	a3, a2
   146ee: 35 b2        	c.j	0x1401a <_vfiprintf_r+0x1f6>
   146f0: 81 46        	c.li	a3, 0x0
   146f2: 05 46        	c.li	a2, 0x1
   146f4: ce 85        	c.mv	a1, s3
   146f6: 69 b7        	c.j	0x14680 <_vfiprintf_r+0x85c>
   146f8: 82 dc        	c.swsp	zero, 0x78(sp)
   146fa: 13 f8 4c 00  	andi	a6, s9, 0x4
   146fe: 63 08 08 0a  	beq	a6, zero, 0x147ae <_vfiprintf_r+0x98a>
   14702: bb 84 68 40  	subw	s1, a7, t1
   14706: 63 54 90 0a  	bge	zero, s1, 0x147ae <_vfiprintf_r+0x98a>
   1470a: 4e 84        	c.mv	s0, s3
   1470c: 41 47        	c.li	a4, 0x10
   1470e: e6 56        	c.lwsp	a3, 0x78(sp)
   14710: 63 57 97 3a  	bge	a4, s1, 0x14abe <_vfiprintf_r+0xc9a>
   14714: b7 0e 02 00  	lui	t4, 0x20
   14718: 93 8e 0e 1a  	addi	t4, t4, 0x1a0
   1471c: 22 86        	c.mv	a2, s0
   1471e: c1 4d        	c.li	s11, 0x10
   14720: 26 84        	c.mv	s0, s1
   14722: 9d 4c        	c.li	s9, 0x7
   14724: 46 ec        	c.sdsp	a7, 0x18(sp)
   14726: 1a f0        	c.sdsp	t1, 0x20(sp)
   14728: f6 84        	c.mv	s1, t4
   1472a: 01 a8        	c.j	0x1473a <_vfiprintf_r+0x916>
   1472c: 1b 87 26 00  	addiw	a4, a3, 0x2
   14730: 41 06        	c.addi	a2, 0x10
   14732: ae 86        	c.mv	a3, a1
   14734: 41 34        	c.addiw	s0, -0x10
   14736: 63 dc 8d 02  	bge	s11, s0, 0x1476e <_vfiprintf_r+0x94a>
   1473a: 9b 85 16 00  	addiw	a1, a3, 0x1
   1473e: c1 07        	c.addi	a5, 0x10
   14740: 04 e2        	c.sd	s1, 0x0(a2)
   14742: 23 34 b6 01  	sd	s11, 0x8(a2)
   14746: 3e e1        	c.sdsp	a5, 0x80(sp)
   14748: ae dc        	c.swsp	a1, 0x78(sp)
   1474a: e3 d1 bc fe  	bge	s9, a1, 0x1472c <_vfiprintf_r+0x908>
   1474e: a1 cf        	c.beqz	a5, 0x147a6 <_vfiprintf_r+0x982>
   14750: 90 18        	c.addi4spn	a2, sp, 0x70
   14752: d2 85        	c.mv	a1, s4
   14754: 56 85        	c.mv	a0, s5
   14756: ef f0 ef df  	jal	ra, 0x13d54 <__sprint_r.part.0>
   1475a: e3 17 05 82  	bne	a0, zero, 0x13f88 <_vfiprintf_r+0x164>
   1475e: e6 56        	c.lwsp	a3, 0x78(sp)
   14760: 41 34        	c.addiw	s0, -0x10
   14762: 8a 67        	c.ldsp	a5, 0x80(sp)
   14764: 4e 86        	c.mv	a2, s3
   14766: 1b 87 16 00  	addiw	a4, a3, 0x1
   1476a: e3 c8 8d fc  	blt	s11, s0, 0x1473a <_vfiprintf_r+0x916>
   1476e: e2 68        	c.ldsp	a7, 0x18(sp)
   14770: 02 73        	c.ldsp	t1, 0x20(sp)
   14772: a6 8e        	c.mv	t4, s1
   14774: a2 84        	c.mv	s1, s0
   14776: 32 84        	c.mv	s0, a2
   14778: a6 97        	c.add	a5, s1
   1477a: 23 30 d4 01  	sd	t4, 0x0(s0)
   1477e: 04 e4        	c.sd	s1, 0x8(s0)
   14780: 3e e1        	c.sdsp	a5, 0x80(sp)
   14782: ba dc        	c.swsp	a4, 0x78(sp)
   14784: 9d 46        	c.li	a3, 0x7
   14786: e3 d5 e6 94  	bge	a3, a4, 0x140d0 <_vfiprintf_r+0x2ac>
   1478a: 95 c3        	c.beqz	a5, 0x147ae <_vfiprintf_r+0x98a>
   1478c: 90 18        	c.addi4spn	a2, sp, 0x70
   1478e: d2 85        	c.mv	a1, s4
   14790: 56 85        	c.mv	a0, s5
   14792: 1a f0        	c.sdsp	t1, 0x20(sp)
   14794: 46 ec        	c.sdsp	a7, 0x18(sp)
   14796: ef f0 ef db  	jal	ra, 0x13d54 <__sprint_r.part.0>
   1479a: 63 17 05 fe  	bne	a0, zero, 0x13f88 <_vfiprintf_r+0x164>
   1479e: 8a 67        	c.ldsp	a5, 0x80(sp)
   147a0: 02 73        	c.ldsp	t1, 0x20(sp)
   147a2: e2 68        	c.ldsp	a7, 0x18(sp)
   147a4: 35 b2        	c.j	0x140d0 <_vfiprintf_r+0x2ac>
   147a6: 05 47        	c.li	a4, 0x1
   147a8: 81 46        	c.li	a3, 0x0
   147aa: 4e 86        	c.mv	a2, s3
   147ac: 61 b7        	c.j	0x14734 <_vfiprintf_r+0x910>
   147ae: c6 87        	c.mv	a5, a7
   147b0: 63 d3 68 00  	bge	a7, t1, 0x147b6 <_vfiprintf_r+0x992>
   147b4: 9a 87        	c.mv	a5, t1
   147b6: 3b 8c 87 01  	addw	s8, a5, s8
   147ba: 1d b2        	c.j	0x140e0 <_vfiprintf_r+0x2bc>
   147bc: e3 8f 07 c8  	beq	a5, zero, 0x1445a <_vfiprintf_r+0x636>
   147c0: 90 18        	c.addi4spn	a2, sp, 0x70
   147c2: d2 85        	c.mv	a1, s4
   147c4: 56 85        	c.mv	a0, s5
   147c6: 1a f4        	c.sdsp	t1, 0x28(sp)
   147c8: 46 f0        	c.sdsp	a7, 0x20(sp)
   147ca: 72 ec        	c.sdsp	t3, 0x18(sp)
   147cc: ef f0 8f d8  	jal	ra, 0x13d54 <__sprint_r.part.0>
   147d0: 63 1c 05 fa  	bne	a0, zero, 0x13f88 <_vfiprintf_r+0x164>
   147d4: e6 55        	c.lwsp	a1, 0x78(sp)
   147d6: 8a 67        	c.ldsp	a5, 0x80(sp)
   147d8: 22 73        	c.ldsp	t1, 0x28(sp)
   147da: 82 78        	c.ldsp	a7, 0x20(sp)
   147dc: 62 6e        	c.ldsp	t3, 0x18(sp)
   147de: 4e 84        	c.mv	s0, s3
   147e0: 85 25        	c.addiw	a1, 0x1
   147e2: 75 b0        	c.j	0x1408e <_vfiprintf_r+0x26a>
   147e4: 82 dc        	c.swsp	zero, 0x78(sp)
   147e6: 4e 84        	c.mv	s0, s3
   147e8: 6f f0 0f f2  	jal	zero, 0x13f08 <_vfiprintf_r+0xe4>
   147ec: 85 45        	c.li	a1, 0x1
   147ee: 81 46        	c.li	a3, 0x0
   147f0: 4e 84        	c.mv	s0, s3
   147f2: 71 b0        	c.j	0x1407e <_vfiprintf_r+0x25a>
   147f4: 63 87 07 18  	beq	a5, zero, 0x14982 <_vfiprintf_r+0xb5e>
   147f8: 90 18        	c.addi4spn	a2, sp, 0x70
   147fa: d2 85        	c.mv	a1, s4
   147fc: 56 85        	c.mv	a0, s5
   147fe: 9a e8        	c.sdsp	t1, 0x50(sp)
   14800: c6 e4        	c.sdsp	a7, 0x48(sp)
   14802: 72 f4        	c.sdsp	t3, 0x28(sp)
   14804: 16 f0        	c.sdsp	t0, 0x20(sp)
   14806: 7e ec        	c.sdsp	t6, 0x18(sp)
   14808: ef f0 cf d4  	jal	ra, 0x13d54 <__sprint_r.part.0>
   1480c: 63 1e 05 f6  	bne	a0, zero, 0x13f88 <_vfiprintf_r+0x164>
   14810: e6 56        	c.lwsp	a3, 0x78(sp)
   14812: 8a 67        	c.ldsp	a5, 0x80(sp)
   14814: 46 63        	c.ldsp	t1, 0x50(sp)
   14816: a6 68        	c.ldsp	a7, 0x48(sp)
   14818: 22 7e        	c.ldsp	t3, 0x28(sp)
   1481a: 82 72        	c.ldsp	t0, 0x20(sp)
   1481c: e2 6f        	c.ldsp	t6, 0x18(sp)
   1481e: 4e 84        	c.mv	s0, s3
   14820: 9b 85 16 00  	addiw	a1, a3, 0x1
   14824: 6f f0 6f ff  	jal	zero, 0x1401a <_vfiprintf_r+0x1f6>
   14828: 01 43        	c.li	t1, 0x0
   1482a: 01 4e        	c.li	t3, 0x0
   1482c: 93 0d c1 0e  	addi	s11, sp, 0xec
   14830: b5 ba        	c.j	0x141ac <_vfiprintf_r+0x388>
   14832: 13 0e c1 0e  	addi	t3, sp, 0xec
   14836: 62 78        	c.ldsp	a6, 0x38(sp)
   14838: 13 ff 0c 40  	andi	t5, s9, 0x400
   1483c: 01 46        	c.li	a2, 0x0
   1483e: 72 87        	c.mv	a4, t3
   14840: a9 46        	c.li	a3, 0xa
   14842: 25 43        	c.li	t1, 0x9
   14844: 93 0f f0 0f  	addi	t6, zero, 0xff
   14848: 39 a0        	c.j	0x14856 <_vfiprintf_r+0xa32>
   1484a: b3 d7 db 02  	divu	a5, s7, a3
   1484e: 63 77 73 03  	bgeu	t1, s7, 0x1487c <_vfiprintf_r+0xa58>
   14852: be 8b        	c.mv	s7, a5
   14854: 6e 87        	c.mv	a4, s11
   14856: 93 0d f7 ff  	addi	s11, a4, -0x1
   1485a: 05 26        	c.addiw	a2, 0x1
   1485c: b3 f7 db 02  	remu	a5, s7, a3
   14860: 9b 87 07 03  	addiw	a5, a5, 0x30
   14864: a3 0f f7 fe  	sb	a5, -0x1(a4)
   14868: e3 01 0f fe  	beq	t5, zero, 0x1484a <_vfiprintf_r+0xa26>
   1486c: 83 47 08 00  	lbu	a5, 0x0(a6)
   14870: e3 9d c7 fc  	bne	a5, a2, 0x1484a <_vfiprintf_r+0xa26>
   14874: e3 8b f7 fd  	beq	a5, t6, 0x1484a <_vfiprintf_r+0xa26>
   14878: 63 61 73 13  	bltu	t1, s7, 0x1499a <_vfiprintf_r+0xb76>
   1487c: 42 fc        	c.sdsp	a6, 0x38(sp)
   1487e: 3b 0e be 41  	subw	t3, t3, s11
   14882: 1b 83 04 00  	addiw	t1, s1, 0x0
   14886: 63 d4 c4 01  	bge	s1, t3, 0x1488e <_vfiprintf_r+0xa6a>
   1488a: 1b 03 0e 00  	addiw	t1, t3, 0x0
   1488e: f6 8b        	c.mv	s7, t4
   14890: 31 ba        	c.j	0x141ac <_vfiprintf_r+0x388>
   14892: 01 43        	c.li	t1, 0x0
   14894: 93 0d c1 0e  	addi	s11, sp, 0xec
   14898: 11 ba        	c.j	0x141ac <_vfiprintf_r+0x388>
   1489a: 41 04        	c.addi	s0, 0x10
   1489c: 9b 05 16 00  	addiw	a1, a2, 0x1
   148a0: b2 86        	c.mv	a3, a2
   148a2: 6f f0 4f fe  	jal	zero, 0x14086 <_vfiprintf_r+0x262>
   148a6: 93 77 0e 04  	andi	a5, t3, 0x40
   148aa: 83 ab 0b 00  	lw	s7, 0x0(s7)
   148ae: 63 81 07 1a  	beq	a5, zero, 0x14a50 <_vfiprintf_r+0xc2c>
   148b2: c2 1b        	c.slli	s7, 0x30
   148b4: 93 db 0b 03  	srli	s7, s7, 0x30
   148b8: 75 b4        	c.j	0x14364 <_vfiprintf_r+0x540>
   148ba: 13 f6 07 04  	andi	a2, a5, 0x40
   148be: 03 a7 0b 00  	lw	a4, 0x0(s7)
   148c2: 63 07 06 16  	beq	a2, zero, 0x14a30 <_vfiprintf_r+0xc0c>
   148c6: 42 17        	c.slli	a4, 0x30
   148c8: 41 93        	c.srli	a4, 0x30
   148ca: 35 b4        	c.j	0x142f6 <_vfiprintf_r+0x4d2>
   148cc: 83 47 0d 00  	lbu	a5, 0x0(s10)
   148d0: 63 0c 07 e4  	beq	a4, zero, 0x13f28 <_vfiprintf_r+0x104>
   148d4: 03 47 07 00  	lbu	a4, 0x0(a4)
   148d8: 63 08 07 e4  	beq	a4, zero, 0x13f28 <_vfiprintf_r+0x104>
   148dc: 93 ec 0c 40  	ori	s9, s9, 0x400
   148e0: 81 2c        	c.addiw	s9, 0x0
   148e2: 6f f0 6f e4  	jal	zero, 0x13f28 <_vfiprintf_r+0x104>
   148e6: 81 46        	c.li	a3, 0x0
   148e8: 85 45        	c.li	a1, 0x1
   148ea: 4e 84        	c.mv	s0, s3
   148ec: 6f f0 2f f9  	jal	zero, 0x1407e <_vfiprintf_r+0x25a>
   148f0: 1b 03 0e 00  	addiw	t1, t3, 0x0
   148f4: b6 8d        	c.mv	s11, a3
   148f6: 5d b8        	c.j	0x141ac <_vfiprintf_r+0x388>
   148f8: fd 54        	c.li	s1, -0x1
   148fa: 36 8d        	c.mv	s10, a3
   148fc: 6f f0 0f e3  	jal	zero, 0x13f2c <_vfiprintf_r+0x108>
   14900: 37 07 02 00  	lui	a4, 0x20
   14904: 13 07 07 d8  	addi	a4, a4, -0x280
   14908: 3a e8        	c.sdsp	a4, 0x10(sp)
   1490a: 13 f7 0c 02  	andi	a4, s9, 0x20
   1490e: 93 86 8b 00  	addi	a3, s7, 0x8
   14912: 31 ef        	c.bnez	a4, 0x1496e <_vfiprintf_r+0xb4a>
   14914: 13 f7 0c 01  	andi	a4, s9, 0x10
   14918: 39 eb        	c.bnez	a4, 0x1496e <_vfiprintf_r+0xb4a>
   1491a: 13 f6 0c 04  	andi	a2, s9, 0x40
   1491e: 03 a7 0b 00  	lw	a4, 0x0(s7)
   14922: 63 01 06 10  	beq	a2, zero, 0x14a24 <_vfiprintf_r+0xc00>
   14926: 42 17        	c.slli	a4, 0x30
   14928: 41 93        	c.srli	a4, 0x30
   1492a: 13 f6 1c 00  	andi	a2, s9, 0x1
   1492e: 01 ce        	c.beqz	a2, 0x14946 <_vfiprintf_r+0xb22>
   14930: 19 cb        	c.beqz	a4, 0x14946 <_vfiprintf_r+0xb22>
   14932: 13 e8 2c 00  	ori	a6, s9, 0x2
   14936: 13 06 00 03  	addi	a2, zero, 0x30
   1493a: 23 04 c1 06  	sb	a2, 0x68(sp)
   1493e: a3 04 f1 06  	sb	a5, 0x69(sp)
   14942: 9b 0c 08 00  	addiw	s9, a6, 0x0
   14946: 13 f8 fc bf  	andi	a6, s9, -0x401
   1494a: 9b 0c 08 00  	addiw	s9, a6, 0x0
   1494e: b6 8b        	c.mv	s7, a3
   14950: c1 b4        	c.j	0x14410 <_vfiprintf_r+0x5ec>
   14952: 66 8e        	c.mv	t3, s9
   14954: ed ba        	c.j	0x1434e <_vfiprintf_r+0x52a>
   14956: e6 87        	c.mv	a5, s9
   14958: 61 b2        	c.j	0x142e0 <_vfiprintf_r+0x4bc>
   1495a: 37 07 02 00  	lui	a4, 0x20
   1495e: 13 07 87 d6  	addi	a4, a4, -0x298
   14962: 3a e8        	c.sdsp	a4, 0x10(sp)
   14964: 13 f7 0c 02  	andi	a4, s9, 0x20
   14968: 93 86 8b 00  	addi	a3, s7, 0x8
   1496c: 45 d7        	c.beqz	a4, 0x14914 <_vfiprintf_r+0xaf0>
   1496e: 03 b7 0b 00  	ld	a4, 0x0(s7)
   14972: 65 bf        	c.j	0x1492a <_vfiprintf_r+0xb06>
   14974: 6e 85        	c.mv	a0, s11
   14976: ef d0 6f ab  	jal	ra, 0x11c2c <strlen>
   1497a: e2 68        	c.ldsp	a7, 0x18(sp)
   1497c: 1b 0e 05 00  	addiw	t3, a0, 0x0
   14980: b1 b8        	c.j	0x141dc <_vfiprintf_r+0x3b8>
   14982: 03 47 71 06  	lbu	a4, 0x67(sp)
   14986: 65 c7        	c.beqz	a4, 0x14a6e <_vfiprintf_r+0xc4a>
   14988: 93 07 71 06  	addi	a5, sp, 0x67
   1498c: be f9        	c.sdsp	a5, 0xf0(sp)
   1498e: 85 47        	c.li	a5, 0x1
   14990: be fd        	c.sdsp	a5, 0xf8(sp)
   14992: 85 45        	c.li	a1, 0x1
   14994: 4e 84        	c.mv	s0, s3
   14996: 6f f0 0f ea  	jal	zero, 0x14036 <_vfiprintf_r+0x212>
   1499a: c2 77        	c.ldsp	a5, 0x30(sp)
   1499c: 86 65        	c.ldsp	a1, 0x40(sp)
   1499e: f2 e4        	c.sdsp	t3, 0x48(sp)
   149a0: b3 8d fd 40  	sub	s11, s11, a5
   149a4: 3e 86        	c.mv	a2, a5
   149a6: 6e 85        	c.mv	a0, s11
   149a8: 76 fc        	c.sdsp	t4, 0x38(sp)
   149aa: 7a f4        	c.sdsp	t5, 0x28(sp)
   149ac: 46 f0        	c.sdsp	a7, 0x20(sp)
   149ae: 42 ec        	c.sdsp	a6, 0x18(sp)
   149b0: ef 00 f0 49  	jal	ra, 0x1564e <strncpy>
   149b4: 62 68        	c.ldsp	a6, 0x18(sp)
   149b6: a9 47        	c.li	a5, 0xa
   149b8: b3 d7 fb 02  	divu	a5, s7, a5
   149bc: 03 47 18 00  	lbu	a4, 0x1(a6)
   149c0: 82 78        	c.ldsp	a7, 0x20(sp)
   149c2: 22 7f        	c.ldsp	t5, 0x28(sp)
   149c4: 33 37 e0 00  	sltu	a4, zero, a4
   149c8: e2 7e        	c.ldsp	t4, 0x38(sp)
   149ca: 26 6e        	c.ldsp	t3, 0x48(sp)
   149cc: 3a 98        	c.add	a6, a4
   149ce: 01 46        	c.li	a2, 0x0
   149d0: a9 46        	c.li	a3, 0xa
   149d2: 25 43        	c.li	t1, 0x9
   149d4: 93 0f f0 0f  	addi	t6, zero, 0xff
   149d8: ad bd        	c.j	0x14852 <_vfiprintf_r+0xa2e>
   149da: be 8c        	c.mv	s9, a5
   149dc: 81 47        	c.li	a5, 0x0
   149de: e3 88 07 9a  	beq	a5, zero, 0x1438e <_vfiprintf_r+0x56a>
   149e2: 89 b1        	c.j	0x14624 <_vfiprintf_r+0x800>
   149e4: ef c0 1f c1  	jal	ra, 0x115f4 <__sinit>
   149e8: 6f f0 af c5  	jal	zero, 0x13e42 <_vfiprintf_r+0x1e>
   149ec: 93 ec 0c 20  	ori	s9, s9, 0x200
   149f0: 83 47 1d 00  	lbu	a5, 0x1(s10)
   149f4: 81 2c        	c.addiw	s9, 0x0
   149f6: 05 0d        	c.addi	s10, 0x1
   149f8: 6f f0 0f d3  	jal	zero, 0x13f28 <_vfiprintf_r+0x104>
   149fc: 93 ec 0c 02  	ori	s9, s9, 0x20
   14a00: 83 47 1d 00  	lbu	a5, 0x1(s10)
   14a04: 81 2c        	c.addiw	s9, 0x0
   14a06: 05 0d        	c.addi	s10, 0x1
   14a08: 6f f0 0f d2  	jal	zero, 0x13f28 <_vfiprintf_r+0x104>
   14a0c: 99 47        	c.li	a5, 0x6
   14a0e: 1b 8e 04 00  	addiw	t3, s1, 0x0
   14a12: 63 ec 97 04  	bltu	a5, s1, 0x14a6a <_vfiprintf_r+0xc46>
   14a16: b7 0d 02 00  	lui	s11, 0x20
   14a1a: 72 83        	c.mv	t1, t3
   14a1c: 93 8d 8d d9  	addi	s11, s11, -0x268
   14a20: 6f f0 cf dd  	jal	zero, 0x13ffc <_vfiprintf_r+0x1d8>
   14a24: 13 f6 0c 20  	andi	a2, s9, 0x200
   14a28: 3d c6        	c.beqz	a2, 0x14a96 <_vfiprintf_r+0xc72>
   14a2a: 13 77 f7 0f  	andi	a4, a4, 0xff
   14a2e: f5 bd        	c.j	0x1492a <_vfiprintf_r+0xb06>
   14a30: 13 f6 07 20  	andi	a2, a5, 0x200
   14a34: 31 ce        	c.beqz	a2, 0x14a90 <_vfiprintf_r+0xc6c>
   14a36: 13 77 f7 0f  	andi	a4, a4, 0xff
   14a3a: 75 b8        	c.j	0x142f6 <_vfiprintf_r+0x4d2>
   14a3c: 93 f7 0c 20  	andi	a5, s9, 0x200
   14a40: a9 c7        	c.beqz	a5, 0x14a8a <_vfiprintf_r+0xc66>
   14a42: 9b 9b 8b 01  	slliw	s7, s7, 0x18
   14a46: 9b db 8b 41  	sraiw	s7, s7, 0x18
   14a4a: de 87        	c.mv	a5, s7
   14a4c: 6f f0 ef eb  	jal	zero, 0x1410a <_vfiprintf_r+0x2e6>
   14a50: 93 77 0e 20  	andi	a5, t3, 0x200
   14a54: 9d c7        	c.beqz	a5, 0x14a82 <_vfiprintf_r+0xc5e>
   14a56: 93 fb fb 0f  	andi	s7, s7, 0xff
   14a5a: 29 b2        	c.j	0x14364 <_vfiprintf_r+0x540>
   14a5c: 01 47        	c.li	a4, 0x0
   14a5e: d9 b6        	c.j	0x14624 <_vfiprintf_r+0x800>
   14a60: 85 45        	c.li	a1, 0x1
   14a62: 81 46        	c.li	a3, 0x0
   14a64: 4e 84        	c.mv	s0, s3
   14a66: 6f f0 0f e2  	jal	zero, 0x14086 <_vfiprintf_r+0x262>
   14a6a: 19 4e        	c.li	t3, 0x6
   14a6c: 6d b7        	c.j	0x14a16 <_vfiprintf_r+0xbf2>
   14a6e: 81 46        	c.li	a3, 0x0
   14a70: 85 45        	c.li	a1, 0x1
   14a72: 4e 84        	c.mv	s0, s3
   14a74: 6f f0 8f dc  	jal	zero, 0x1403c <_vfiprintf_r+0x218>
   14a78: 23 10 87 01  	sh	s8, 0x0(a4)
   14a7c: a1 0b        	c.addi	s7, 0x8
   14a7e: 6f f0 af c3  	jal	zero, 0x13eb8 <_vfiprintf_r+0x94>
   14a82: 82 1b        	c.slli	s7, 0x20
   14a84: 93 db 0b 02  	srli	s7, s7, 0x20
   14a88: f1 b8        	c.j	0x14364 <_vfiprintf_r+0x540>
   14a8a: de 87        	c.mv	a5, s7
   14a8c: 6f f0 ef e7  	jal	zero, 0x1410a <_vfiprintf_r+0x2e6>
   14a90: 02 17        	c.slli	a4, 0x20
   14a92: 01 93        	c.srli	a4, 0x20
   14a94: 8d b0        	c.j	0x142f6 <_vfiprintf_r+0x4d2>
   14a96: 02 17        	c.slli	a4, 0x20
   14a98: 01 93        	c.srli	a4, 0x20
   14a9a: 41 bd        	c.j	0x1492a <_vfiprintf_r+0xb06>
   14a9c: 90 18        	c.addi4spn	a2, sp, 0x70
   14a9e: d2 85        	c.mv	a1, s4
   14aa0: 56 85        	c.mv	a0, s5
   14aa2: ef f0 2f ab  	jal	ra, 0x13d54 <__sprint_r.part.0>
   14aa6: 6f f0 2f ce  	jal	zero, 0x13f88 <_vfiprintf_r+0x164>
   14aaa: b7 0e 02 00  	lui	t4, 0x20
   14aae: 93 8e 0e 1a  	addi	t4, t4, 0x1a0
   14ab2: 0d b1        	c.j	0x146d4 <_vfiprintf_r+0x8b0>
   14ab4: f6 8b        	c.mv	s7, t4
   14ab6: 93 07 00 03  	addi	a5, zero, 0x30
   14aba: 6f f0 ef ed  	jal	zero, 0x14198 <_vfiprintf_r+0x374>
   14abe: b7 0e 02 00  	lui	t4, 0x20
   14ac2: 1b 87 16 00  	addiw	a4, a3, 0x1
   14ac6: 93 8e 0e 1a  	addi	t4, t4, 0x1a0
   14aca: 7d b1        	c.j	0x14778 <_vfiprintf_r+0x954>
   14acc: b7 0e 02 00  	lui	t4, 0x20
   14ad0: 2e 86        	c.mv	a2, a1
   14ad2: 93 8e 0e 19  	addi	t4, t4, 0x190
   14ad6: 19 bc        	c.j	0x144ec <_vfiprintf_r+0x6c8>
   14ad8: 7d 5c        	c.li	s8, -0x1
   14ada: 6f f0 8f cc  	jal	zero, 0x13fa2 <_vfiprintf_r+0x17e>
   14ade: 23 20 87 01  	sw	s8, 0x0(a4)
   14ae2: a1 0b        	c.addi	s7, 0x8
   14ae4: 6f f0 4f bd  	jal	zero, 0x13eb8 <_vfiprintf_r+0x94>
   14ae8: 83 a7 0b 00  	lw	a5, 0x0(s7)
   14aec: a1 0b        	c.addi	s7, 0x8
   14aee: 9b 84 07 00  	addiw	s1, a5, 0x0
   14af2: 63 d3 07 00  	bge	a5, zero, 0x14af8 <_vfiprintf_r+0xcd4>
   14af6: fd 54        	c.li	s1, -0x1
   14af8: 83 47 1d 00  	lbu	a5, 0x1(s10)
   14afc: 36 8d        	c.mv	s10, a3
   14afe: 6f f0 af c2  	jal	zero, 0x13f28 <_vfiprintf_r+0x104>

0000000000014b02 <vfiprintf>:
   14b02: aa 87        	c.mv	a5, a0
   14b04: 03 b5 81 88  	ld	a0, -0x778(gp)
   14b08: b2 86        	c.mv	a3, a2
   14b0a: 2e 86        	c.mv	a2, a1
   14b0c: be 85        	c.mv	a1, a5
   14b0e: 6f f0 6f b1  	jal	zero, 0x13e24 <_vfiprintf_r>

0000000000014b12 <__sbprintf>:
   14b12: 13 01 01 b3  	addi	sp, sp, -0x4d0
   14b16: 03 d7 25 01  	lhu	a4, 0x12(a1)
   14b1a: 83 d7 05 01  	lhu	a5, 0x10(a1)
   14b1e: 23 30 81 4c  	sd	s0, 0x4c0(sp)
   14b22: 2e 84        	c.mv	s0, a1
   14b24: c1 65        	c.lui	a1, 0x10
   14b26: f5 35        	c.addiw	a1, -0x3
   14b28: 03 2e c4 0a  	lw	t3, 0xac(s0)
   14b2c: 03 33 04 03  	ld	t1, 0x30(s0)
   14b30: 83 38 04 04  	ld	a7, 0x40(s0)
   14b34: 1b 17 07 01  	slliw	a4, a4, 0x10
   14b38: ed 8f        	c.and	a5, a1
   14b3a: d9 8f        	c.or	a5, a4
   14b3c: 13 08 00 40  	addi	a6, zero, 0x400
   14b40: 3e c8        	c.swsp	a5, 0x10(sp)
   14b42: 8a 85        	c.mv	a1, sp
   14b44: 1c 19        	c.addi4spn	a5, sp, 0xb0
   14b46: 23 3c 91 4a  	sd	s1, 0x4b8(sp)
   14b4a: 23 38 21 4b  	sd	s2, 0x4b0(sp)
   14b4e: 23 34 11 4c  	sd	ra, 0x4c8(sp)
   14b52: 2a 89        	c.mv	s2, a0
   14b54: 72 d7        	c.swsp	t3, 0xac(sp)
   14b56: 1a f8        	c.sdsp	t1, 0x30(sp)
   14b58: c6 e0        	c.sdsp	a7, 0x40(sp)
   14b5a: 3e e0        	c.sdsp	a5, 0x0(sp)
   14b5c: 3e ec        	c.sdsp	a5, 0x18(sp)
   14b5e: 42 c6        	c.swsp	a6, 0xc(sp)
   14b60: 42 d0        	c.swsp	a6, 0x20(sp)
   14b62: 02 d4        	c.swsp	zero, 0x28(sp)
   14b64: ef f0 0f ac  	jal	ra, 0x13e24 <_vfiprintf_r>
   14b68: aa 84        	c.mv	s1, a0
   14b6a: 63 59 05 02  	bge	a0, zero, 0x14b9c <__sbprintf+0x8a>
   14b6e: 83 57 01 01  	lhu	a5, 0x10(sp)
   14b72: 93 f7 07 04  	andi	a5, a5, 0x40
   14b76: 99 c7        	c.beqz	a5, 0x14b84 <__sbprintf+0x72>
   14b78: 83 57 04 01  	lhu	a5, 0x10(s0)
   14b7c: 93 e7 07 04  	ori	a5, a5, 0x40
   14b80: 23 18 f4 00  	sh	a5, 0x10(s0)
   14b84: 83 30 81 4c  	ld	ra, 0x4c8(sp)
   14b88: 03 34 01 4c  	ld	s0, 0x4c0(sp)
   14b8c: 03 39 01 4b  	ld	s2, 0x4b0(sp)
   14b90: 26 85        	c.mv	a0, s1
   14b92: 83 34 81 4b  	ld	s1, 0x4b8(sp)
   14b96: 13 01 01 4d  	addi	sp, sp, 0x4d0
   14b9a: 82 80        	c.jr	ra
   14b9c: 8a 85        	c.mv	a1, sp
   14b9e: 4a 85        	c.mv	a0, s2
   14ba0: ef 00 20 25  	jal	ra, 0x14df2 <_fflush_r>
   14ba4: 69 d5        	c.beqz	a0, 0x14b6e <__sbprintf+0x5c>
   14ba6: fd 54        	c.li	s1, -0x1
   14ba8: d9 b7        	c.j	0x14b6e <__sbprintf+0x5c>

0000000000014baa <_fclose_r>:
   14baa: 01 11        	c.addi	sp, -0x20
   14bac: 06 ec        	c.sdsp	ra, 0x18(sp)
   14bae: 4a e0        	c.sdsp	s2, 0x0(sp)
   14bb0: 89 cd        	c.beqz	a1, 0x14bca <_fclose_r+0x20>
   14bb2: 22 e8        	c.sdsp	s0, 0x10(sp)
   14bb4: 26 e4        	c.sdsp	s1, 0x8(sp)
   14bb6: 2e 84        	c.mv	s0, a1
   14bb8: aa 84        	c.mv	s1, a0
   14bba: 19 c1        	c.beqz	a0, 0x14bc0 <_fclose_r+0x16>
   14bbc: 3c 65        	c.ld	a5, 0x48(a0)
   14bbe: d9 c7        	c.beqz	a5, 0x14c4c <_fclose_r+0xa2>
   14bc0: 83 17 04 01  	lh	a5, 0x10(s0)
   14bc4: 89 eb        	c.bnez	a5, 0x14bd6 <_fclose_r+0x2c>
   14bc6: 42 64        	c.ldsp	s0, 0x10(sp)
   14bc8: a2 64        	c.ldsp	s1, 0x8(sp)
   14bca: e2 60        	c.ldsp	ra, 0x18(sp)
   14bcc: 01 49        	c.li	s2, 0x0
   14bce: 4a 85        	c.mv	a0, s2
   14bd0: 02 69        	c.ldsp	s2, 0x0(sp)
   14bd2: 05 61        	c.addi16sp	sp, 0x20
   14bd4: 82 80        	c.jr	ra
   14bd6: a2 85        	c.mv	a1, s0
   14bd8: 26 85        	c.mv	a0, s1
   14bda: ef 00 00 08  	jal	ra, 0x14c5a <__sflush_r>
   14bde: 3c 68        	c.ld	a5, 0x50(s0)
   14be0: 2a 89        	c.mv	s2, a0
   14be2: 91 c7        	c.beqz	a5, 0x14bee <_fclose_r+0x44>
   14be4: 0c 78        	c.ld	a1, 0x30(s0)
   14be6: 26 85        	c.mv	a0, s1
   14be8: 82 97        	c.jalr	a5
   14bea: 63 46 05 04  	blt	a0, zero, 0x14c36 <_fclose_r+0x8c>
   14bee: 83 57 04 01  	lhu	a5, 0x10(s0)
   14bf2: 93 f7 07 08  	andi	a5, a5, 0x80
   14bf6: b1 e7        	c.bnez	a5, 0x14c42 <_fclose_r+0x98>
   14bf8: 2c 6c        	c.ld	a1, 0x58(s0)
   14bfa: 91 c9        	c.beqz	a1, 0x14c0e <_fclose_r+0x64>
   14bfc: 93 07 44 07  	addi	a5, s0, 0x74
   14c00: 63 85 f5 00  	beq	a1, a5, 0x14c0a <_fclose_r+0x60>
   14c04: 26 85        	c.mv	a0, s1
   14c06: ef d0 cf ae  	jal	ra, 0x11ef2 <_free_r>
   14c0a: 23 3c 04 04  	sd	zero, 0x58(s0)
   14c0e: 2c 7c        	c.ld	a1, 0x78(s0)
   14c10: 91 c5        	c.beqz	a1, 0x14c1c <_fclose_r+0x72>
   14c12: 26 85        	c.mv	a0, s1
   14c14: ef d0 ef ad  	jal	ra, 0x11ef2 <_free_r>
   14c18: 23 3c 04 06  	sd	zero, 0x78(s0)
   14c1c: ef c0 ff 9e  	jal	ra, 0x1160a <__sfp_lock_acquire>
   14c20: 23 18 04 00  	sh	zero, 0x10(s0)
   14c24: ef c0 9f 9e  	jal	ra, 0x1160c <__sfp_lock_release>
   14c28: e2 60        	c.ldsp	ra, 0x18(sp)
   14c2a: 42 64        	c.ldsp	s0, 0x10(sp)
   14c2c: a2 64        	c.ldsp	s1, 0x8(sp)
   14c2e: 4a 85        	c.mv	a0, s2
   14c30: 02 69        	c.ldsp	s2, 0x0(sp)
   14c32: 05 61        	c.addi16sp	sp, 0x20
   14c34: 82 80        	c.jr	ra
   14c36: 83 57 04 01  	lhu	a5, 0x10(s0)
   14c3a: 7d 59        	c.li	s2, -0x1
   14c3c: 93 f7 07 08  	andi	a5, a5, 0x80
   14c40: c5 df        	c.beqz	a5, 0x14bf8 <_fclose_r+0x4e>
   14c42: 0c 6c        	c.ld	a1, 0x18(s0)
   14c44: 26 85        	c.mv	a0, s1
   14c46: ef d0 cf aa  	jal	ra, 0x11ef2 <_free_r>
   14c4a: 7d b7        	c.j	0x14bf8 <_fclose_r+0x4e>
   14c4c: ef c0 9f 9a  	jal	ra, 0x115f4 <__sinit>
   14c50: 85 bf        	c.j	0x14bc0 <_fclose_r+0x16>

0000000000014c52 <fclose>:
   14c52: aa 85        	c.mv	a1, a0
   14c54: 03 b5 81 88  	ld	a0, -0x778(gp)
   14c58: 89 bf        	c.j	0x14baa <_fclose_r>

0000000000014c5a <__sflush_r>:
   14c5a: 03 97 05 01  	lh	a4, 0x10(a1)
   14c5e: 79 71        	c.addi16sp	sp, -0x30
   14c60: 22 f0        	c.sdsp	s0, 0x20(sp)
   14c62: 4e e4        	c.sdsp	s3, 0x8(sp)
   14c64: 06 f4        	c.sdsp	ra, 0x28(sp)
   14c66: 93 77 87 00  	andi	a5, a4, 0x8
   14c6a: 2e 84        	c.mv	s0, a1
   14c6c: aa 89        	c.mv	s3, a0
   14c6e: f1 e7        	c.bnez	a5, 0x14d3a <__sflush_r+0xe0>
   14c70: 85 67        	c.lui	a5, 0x1
   14c72: 93 87 07 80  	addi	a5, a5, -0x800
   14c76: 94 45        	c.lw	a3, 0x8(a1)
   14c78: d9 8f        	c.or	a5, a4
   14c7a: 23 98 f5 00  	sh	a5, 0x10(a1)
   14c7e: 63 57 d0 10  	bge	zero, a3, 0x14d8c <__sflush_r+0x132>
   14c82: 03 38 84 04  	ld	a6, 0x48(s0)
   14c86: 63 04 08 0a  	beq	a6, zero, 0x14d2e <__sflush_r+0xd4>
   14c8a: 26 ec        	c.sdsp	s1, 0x18(sp)
   14c8c: 93 16 37 03  	slli	a3, a4, 0x33
   14c90: 83 a4 09 00  	lw	s1, 0x0(s3)
   14c94: 23 a0 09 00  	sw	zero, 0x0(s3)
   14c98: 0c 78        	c.ld	a1, 0x30(s0)
   14c9a: 63 c0 06 10  	blt	a3, zero, 0x14d9a <__sflush_r+0x140>
   14c9e: 01 46        	c.li	a2, 0x0
   14ca0: 85 46        	c.li	a3, 0x1
   14ca2: 4e 85        	c.mv	a0, s3
   14ca4: 02 98        	c.jalr	a6
   14ca6: fd 57        	c.li	a5, -0x1
   14ca8: 2a 86        	c.mv	a2, a0
   14caa: 63 01 f5 12  	beq	a0, a5, 0x14dcc <__sflush_r+0x172>
   14cae: 83 17 04 01  	lh	a5, 0x10(s0)
   14cb2: 03 38 84 04  	ld	a6, 0x48(s0)
   14cb6: 0c 78        	c.ld	a1, 0x30(s0)
   14cb8: 91 8b        	c.andi	a5, 0x4
   14cba: 99 c7        	c.beqz	a5, 0x14cc8 <__sflush_r+0x6e>
   14cbc: 18 44        	c.lw	a4, 0x8(s0)
   14cbe: 3c 6c        	c.ld	a5, 0x58(s0)
   14cc0: 19 8e        	c.sub	a2, a4
   14cc2: 99 c3        	c.beqz	a5, 0x14cc8 <__sflush_r+0x6e>
   14cc4: 3c 58        	c.lw	a5, 0x70(s0)
   14cc6: 1d 8e        	c.sub	a2, a5
   14cc8: 81 46        	c.li	a3, 0x0
   14cca: 4e 85        	c.mv	a0, s3
   14ccc: 02 98        	c.jalr	a6
   14cce: fd 57        	c.li	a5, -0x1
   14cd0: 63 17 f5 0c  	bne	a0, a5, 0x14d9e <__sflush_r+0x144>
   14cd4: 83 a6 09 00  	lw	a3, 0x0(s3)
   14cd8: f5 47        	c.li	a5, 0x1d
   14cda: 03 17 04 01  	lh	a4, 0x10(s0)
   14cde: 1b 86 06 00  	addiw	a2, a3, 0x0
   14ce2: 63 e1 d7 10  	bltu	a5, a3, 0x14de4 <__sflush_r+0x18a>
   14ce6: b7 07 40 20  	lui	a5, 0x20400
   14cea: 85 07        	c.addi	a5, 0x1
   14cec: b3 d7 c7 00  	srl	a5, a5, a2
   14cf0: 85 8b        	c.andi	a5, 0x1
   14cf2: ed cb        	c.beqz	a5, 0x14de4 <__sflush_r+0x18a>
   14cf4: 10 6c        	c.ld	a2, 0x18(s0)
   14cf6: fd 77        	c.lui	a5, 0xfffff
   14cf8: 93 87 f7 7f  	addi	a5, a5, 0x7ff
   14cfc: f9 8f        	c.and	a5, a4
   14cfe: 23 18 f4 00  	sh	a5, 0x10(s0)
   14d02: 23 24 04 00  	sw	zero, 0x8(s0)
   14d06: 10 e0        	c.sd	a2, 0x0(s0)
   14d08: 93 17 37 03  	slli	a5, a4, 0x33
   14d0c: 63 d3 07 00  	bge	a5, zero, 0x14d12 <__sflush_r+0xb8>
   14d10: dd c6        	c.beqz	a3, 0x14dbe <__sflush_r+0x164>
   14d12: 2c 6c        	c.ld	a1, 0x58(s0)
   14d14: 23 a0 99 00  	sw	s1, 0x0(s3)
   14d18: c5 c9        	c.beqz	a1, 0x14dc8 <__sflush_r+0x16e>
   14d1a: 93 07 44 07  	addi	a5, s0, 0x74
   14d1e: 63 85 f5 00  	beq	a1, a5, 0x14d28 <__sflush_r+0xce>
   14d22: 4e 85        	c.mv	a0, s3
   14d24: ef d0 ef 9c  	jal	ra, 0x11ef2 <_free_r>
   14d28: e2 64        	c.ldsp	s1, 0x18(sp)
   14d2a: 23 3c 04 04  	sd	zero, 0x58(s0)
   14d2e: 01 45        	c.li	a0, 0x0
   14d30: a2 70        	c.ldsp	ra, 0x28(sp)
   14d32: 02 74        	c.ldsp	s0, 0x20(sp)
   14d34: a2 69        	c.ldsp	s3, 0x8(sp)
   14d36: 45 61        	c.addi16sp	sp, 0x30
   14d38: 82 80        	c.jr	ra
   14d3a: 4a e8        	c.sdsp	s2, 0x10(sp)
   14d3c: 03 b9 85 01  	ld	s2, 0x18(a1)
   14d40: 63 0b 09 04  	beq	s2, zero, 0x14d96 <__sflush_r+0x13c>
   14d44: 26 ec        	c.sdsp	s1, 0x18(sp)
   14d46: 84 61        	c.ld	s1, 0x0(a1)
   14d48: 0d 8b        	c.andi	a4, 0x3
   14d4a: 23 b0 25 01  	sd	s2, 0x0(a1)
   14d4e: bb 84 24 41  	subw	s1, s1, s2
   14d52: 81 47        	c.li	a5, 0x0
   14d54: 11 e3        	c.bnez	a4, 0x14d58 <__sflush_r+0xfe>
   14d56: 9c 51        	c.lw	a5, 0x20(a1)
   14d58: 5c c4        	c.sw	a5, 0xc(s0)
   14d5a: 63 46 90 00  	blt	zero, s1, 0x14d66 <__sflush_r+0x10c>
   14d5e: 1d a8        	c.j	0x14d94 <__sflush_r+0x13a>
   14d60: 2a 99        	c.add	s2, a0
   14d62: 63 59 90 02  	bge	zero, s1, 0x14d94 <__sflush_r+0x13a>
   14d66: 3c 60        	c.ld	a5, 0x40(s0)
   14d68: 0c 78        	c.ld	a1, 0x30(s0)
   14d6a: a6 86        	c.mv	a3, s1
   14d6c: 4a 86        	c.mv	a2, s2
   14d6e: 4e 85        	c.mv	a0, s3
   14d70: 82 97        	c.jalr	a5
   14d72: 89 9c        	c.subw	s1, a0
   14d74: e3 46 a0 fe  	blt	zero, a0, 0x14d60 <__sflush_r+0x106>
   14d78: 03 17 04 01  	lh	a4, 0x10(s0)
   14d7c: 42 69        	c.ldsp	s2, 0x10(sp)
   14d7e: 13 67 07 04  	ori	a4, a4, 0x40
   14d82: e2 64        	c.ldsp	s1, 0x18(sp)
   14d84: 23 18 e4 00  	sh	a4, 0x10(s0)
   14d88: 7d 55        	c.li	a0, -0x1
   14d8a: 5d b7        	c.j	0x14d30 <__sflush_r+0xd6>
   14d8c: b4 59        	c.lw	a3, 0x70(a1)
   14d8e: e3 4a d0 ee  	blt	zero, a3, 0x14c82 <__sflush_r+0x28>
   14d92: 71 bf        	c.j	0x14d2e <__sflush_r+0xd4>
   14d94: e2 64        	c.ldsp	s1, 0x18(sp)
   14d96: 42 69        	c.ldsp	s2, 0x10(sp)
   14d98: 59 bf        	c.j	0x14d2e <__sflush_r+0xd4>
   14d9a: 50 68        	c.ld	a2, 0x90(s0)
   14d9c: 31 bf        	c.j	0x14cb8 <__sflush_r+0x5e>
   14d9e: 03 17 04 01  	lh	a4, 0x10(s0)
   14da2: 14 6c        	c.ld	a3, 0x18(s0)
   14da4: fd 77        	c.lui	a5, 0xfffff
   14da6: 93 87 f7 7f  	addi	a5, a5, 0x7ff
   14daa: f9 8f        	c.and	a5, a4
   14dac: 23 18 f4 00  	sh	a5, 0x10(s0)
   14db0: 23 24 04 00  	sw	zero, 0x8(s0)
   14db4: 14 e0        	c.sd	a3, 0x0(s0)
   14db6: 93 17 37 03  	slli	a5, a4, 0x33
   14dba: e3 dc 07 f4  	bge	a5, zero, 0x14d12 <__sflush_r+0xb8>
   14dbe: 2c 6c        	c.ld	a1, 0x58(s0)
   14dc0: 48 e8        	c.sd	a0, 0x90(s0)
   14dc2: 23 a0 99 00  	sw	s1, 0x0(s3)
   14dc6: b1 f9        	c.bnez	a1, 0x14d1a <__sflush_r+0xc0>
   14dc8: e2 64        	c.ldsp	s1, 0x18(sp)
   14dca: 95 b7        	c.j	0x14d2e <__sflush_r+0xd4>
   14dcc: 83 a7 09 00  	lw	a5, 0x0(s3)
   14dd0: e3 8f 07 ec  	beq	a5, zero, 0x14cae <__sflush_r+0x54>
   14dd4: 75 47        	c.li	a4, 0x1d
   14dd6: 63 8a e7 00  	beq	a5, a4, 0x14dea <__sflush_r+0x190>
   14dda: 59 47        	c.li	a4, 0x16
   14ddc: 63 87 e7 00  	beq	a5, a4, 0x14dea <__sflush_r+0x190>
   14de0: 03 17 04 01  	lh	a4, 0x10(s0)
   14de4: 13 67 07 04  	ori	a4, a4, 0x40
   14de8: 69 bf        	c.j	0x14d82 <__sflush_r+0x128>
   14dea: 23 a0 99 00  	sw	s1, 0x0(s3)
   14dee: e2 64        	c.ldsp	s1, 0x18(sp)
   14df0: 3d bf        	c.j	0x14d2e <__sflush_r+0xd4>

0000000000014df2 <_fflush_r>:
   14df2: 01 11        	c.addi	sp, -0x20
   14df4: 22 e8        	c.sdsp	s0, 0x10(sp)
   14df6: 06 ec        	c.sdsp	ra, 0x18(sp)
   14df8: 2a 84        	c.mv	s0, a0
   14dfa: 19 c1        	c.beqz	a0, 0x14e00 <_fflush_r+0xe>
   14dfc: 3c 65        	c.ld	a5, 0x48(a0)
   14dfe: 91 cf        	c.beqz	a5, 0x14e1a <_fflush_r+0x28>
   14e00: 83 97 05 01  	lh	a5, 0x10(a1)
   14e04: 91 e7        	c.bnez	a5, 0x14e10 <_fflush_r+0x1e>
   14e06: e2 60        	c.ldsp	ra, 0x18(sp)
   14e08: 42 64        	c.ldsp	s0, 0x10(sp)
   14e0a: 01 45        	c.li	a0, 0x0
   14e0c: 05 61        	c.addi16sp	sp, 0x20
   14e0e: 82 80        	c.jr	ra
   14e10: 22 85        	c.mv	a0, s0
   14e12: 42 64        	c.ldsp	s0, 0x10(sp)
   14e14: e2 60        	c.ldsp	ra, 0x18(sp)
   14e16: 05 61        	c.addi16sp	sp, 0x20
   14e18: 89 b5        	c.j	0x14c5a <__sflush_r>
   14e1a: 2e e4        	c.sdsp	a1, 0x8(sp)
   14e1c: ef c0 8f fd  	jal	ra, 0x115f4 <__sinit>
   14e20: a2 65        	c.ldsp	a1, 0x8(sp)
   14e22: f9 bf        	c.j	0x14e00 <_fflush_r+0xe>

0000000000014e24 <fflush>:
   14e24: 05 cd        	c.beqz	a0, 0x14e5c <fflush+0x38>
   14e26: aa 85        	c.mv	a1, a0
   14e28: 03 b5 81 88  	ld	a0, -0x778(gp)
   14e2c: 19 c1        	c.beqz	a0, 0x14e32 <fflush+0xe>
   14e2e: 3c 65        	c.ld	a5, 0x48(a0)
   14e30: 99 c7        	c.beqz	a5, 0x14e3e <fflush+0x1a>
   14e32: 83 97 05 01  	lh	a5, 0x10(a1)
   14e36: 99 e3        	c.bnez	a5, 0x14e3c <fflush+0x18>
   14e38: 01 45        	c.li	a0, 0x0
   14e3a: 82 80        	c.jr	ra
   14e3c: 39 bd        	c.j	0x14c5a <__sflush_r>
   14e3e: 01 11        	c.addi	sp, -0x20
   14e40: 2e e4        	c.sdsp	a1, 0x8(sp)
   14e42: 2a e0        	c.sdsp	a0, 0x0(sp)
   14e44: 06 ec        	c.sdsp	ra, 0x18(sp)
   14e46: ef c0 ef fa  	jal	ra, 0x115f4 <__sinit>
   14e4a: a2 65        	c.ldsp	a1, 0x8(sp)
   14e4c: 02 65        	c.ldsp	a0, 0x0(sp)
   14e4e: 83 97 05 01  	lh	a5, 0x10(a1)
   14e52: 95 e3        	c.bnez	a5, 0x14e76 <fflush+0x52>
   14e54: e2 60        	c.ldsp	ra, 0x18(sp)
   14e56: 01 45        	c.li	a0, 0x0
   14e58: 05 61        	c.addi16sp	sp, 0x20
   14e5a: 82 80        	c.jr	ra
   14e5c: 37 26 02 00  	lui	a2, 0x22
   14e60: d5 65        	c.lui	a1, 0x15
   14e62: 37 25 02 00  	lui	a0, 0x22
   14e66: 13 06 86 f7  	addi	a2, a2, -0x88
   14e6a: 93 85 25 df  	addi	a1, a1, -0x20e
   14e6e: 13 05 05 f9  	addi	a0, a0, -0x70
   14e72: 6f c0 0f fc  	jal	zero, 0x11632 <_fwalk_sglue>
   14e76: e2 60        	c.ldsp	ra, 0x18(sp)
   14e78: 05 61        	c.addi16sp	sp, 0x20
   14e7a: c5 b3        	c.j	0x14c5a <__sflush_r>

0000000000014e7c <__sfvwrite_r>:
   14e7c: 1c 6a        	c.ld	a5, 0x10(a2)
   14e7e: 63 8b 07 1c  	beq	a5, zero, 0x15054 <__sfvwrite_r+0x1d8>
   14e82: 03 97 05 01  	lh	a4, 0x10(a1)
   14e86: 1d 71        	c.addi16sp	sp, -0x60
   14e88: a2 e8        	c.sdsp	s0, 0x50(sp)
   14e8a: 56 f4        	c.sdsp	s5, 0x28(sp)
   14e8c: 5e ec        	c.sdsp	s7, 0x18(sp)
   14e8e: 86 ec        	c.sdsp	ra, 0x58(sp)
   14e90: 93 77 87 00  	andi	a5, a4, 0x8
   14e94: b2 8b        	c.mv	s7, a2
   14e96: aa 8a        	c.mv	s5, a0
   14e98: 2e 84        	c.mv	s0, a1
   14e9a: b5 c7        	c.beqz	a5, 0x14f06 <__sfvwrite_r+0x8a>
   14e9c: 9c 6d        	c.ld	a5, 0x18(a1)
   14e9e: a5 c7        	c.beqz	a5, 0x14f06 <__sfvwrite_r+0x8a>
   14ea0: a6 e4        	c.sdsp	s1, 0x48(sp)
   14ea2: ca e0        	c.sdsp	s2, 0x40(sp)
   14ea4: 4e fc        	c.sdsp	s3, 0x38(sp)
   14ea6: 52 f8        	c.sdsp	s4, 0x30(sp)
   14ea8: 93 77 27 00  	andi	a5, a4, 0x2
   14eac: 83 b4 0b 00  	ld	s1, 0x0(s7)
   14eb0: a5 cf        	c.beqz	a5, 0x14f28 <__sfvwrite_r+0xac>
   14eb2: 3c 60        	c.ld	a5, 0x40(s0)
   14eb4: 0c 78        	c.ld	a1, 0x30(s0)
   14eb6: 37 0a 00 80  	lui	s4, 0x80000
   14eba: 81 49        	c.li	s3, 0x0
   14ebc: 01 49        	c.li	s2, 0x0
   14ebe: 13 4a 0a c0  	xori	s4, s4, -0x400
   14ec2: 4e 86        	c.mv	a2, s3
   14ec4: 56 85        	c.mv	a0, s5
   14ec6: 63 0a 09 02  	beq	s2, zero, 0x14efa <__sfvwrite_r+0x7e>
   14eca: ca 86        	c.mv	a3, s2
   14ecc: 63 73 2a 01  	bgeu	s4, s2, 0x14ed2 <__sfvwrite_r+0x56>
   14ed0: d2 86        	c.mv	a3, s4
   14ed2: 81 26        	c.addiw	a3, 0x0
   14ed4: 82 97        	c.jalr	a5
   14ed6: 63 58 a0 2e  	bge	zero, a0, 0x151c6 <__sfvwrite_r+0x34a>
   14eda: 83 b7 0b 01  	ld	a5, 0x10(s7)
   14ede: aa 99        	c.add	s3, a0
   14ee0: 33 09 a9 40  	sub	s2, s2, a0
   14ee4: 89 8f        	c.sub	a5, a0
   14ee6: 23 b8 fb 00  	sd	a5, 0x10(s7)
   14eea: 63 81 07 12  	beq	a5, zero, 0x1500c <__sfvwrite_r+0x190>
   14eee: 3c 60        	c.ld	a5, 0x40(s0)
   14ef0: 0c 78        	c.ld	a1, 0x30(s0)
   14ef2: 4e 86        	c.mv	a2, s3
   14ef4: 56 85        	c.mv	a0, s5
   14ef6: e3 1a 09 fc  	bne	s2, zero, 0x14eca <__sfvwrite_r+0x4e>
   14efa: 83 b9 04 00  	ld	s3, 0x0(s1)
   14efe: 03 b9 84 00  	ld	s2, 0x8(s1)
   14f02: c1 04        	c.addi	s1, 0x10
   14f04: 7d bf        	c.j	0x14ec2 <__sfvwrite_r+0x46>
   14f06: a2 85        	c.mv	a1, s0
   14f08: 56 85        	c.mv	a0, s5
   14f0a: ef 00 60 4a  	jal	ra, 0x153b0 <__swsetup_r>
   14f0e: 63 1c 05 12  	bne	a0, zero, 0x15046 <__sfvwrite_r+0x1ca>
   14f12: 03 17 04 01  	lh	a4, 0x10(s0)
   14f16: a6 e4        	c.sdsp	s1, 0x48(sp)
   14f18: ca e0        	c.sdsp	s2, 0x40(sp)
   14f1a: 4e fc        	c.sdsp	s3, 0x38(sp)
   14f1c: 52 f8        	c.sdsp	s4, 0x30(sp)
   14f1e: 93 77 27 00  	andi	a5, a4, 0x2
   14f22: 83 b4 0b 00  	ld	s1, 0x0(s7)
   14f26: d1 f7        	c.bnez	a5, 0x14eb2 <__sfvwrite_r+0x36>
   14f28: 5a f0        	c.sdsp	s6, 0x20(sp)
   14f2a: 62 e8        	c.sdsp	s8, 0x10(sp)
   14f2c: 66 e4        	c.sdsp	s9, 0x8(sp)
   14f2e: 93 77 17 00  	andi	a5, a4, 0x1
   14f32: ad eb        	c.bnez	a5, 0x14fa4 <__sfvwrite_r+0x128>
   14f34: 03 2a c4 00  	lw	s4, 0xc(s0)
   14f38: 1c 60        	c.ld	a5, 0x0(s0)
   14f3a: 37 0b 00 80  	lui	s6, 0x80000
   14f3e: 01 4c        	c.li	s8, 0x0
   14f40: 01 49        	c.li	s2, 0x0
   14f42: 13 4b fb ff  	xori	s6, s6, -0x1
   14f46: 3e 85        	c.mv	a0, a5
   14f48: 63 08 09 04  	beq	s2, zero, 0x14f98 <__sfvwrite_r+0x11c>
   14f4c: 93 76 07 20  	andi	a3, a4, 0x200
   14f50: 63 86 06 14  	beq	a3, zero, 0x1509c <__sfvwrite_r+0x220>
   14f54: 63 75 49 1b  	bgeu	s2, s4, 0x150fe <__sfvwrite_r+0x282>
   14f58: ca 8c        	c.mv	s9, s2
   14f5a: 4a 8a        	c.mv	s4, s2
   14f5c: 52 86        	c.mv	a2, s4
   14f5e: e2 85        	c.mv	a1, s8
   14f60: ef c0 1f b5  	jal	ra, 0x11ab0 <memmove>
   14f64: 58 44        	c.lw	a4, 0xc(s0)
   14f66: 1c 60        	c.ld	a5, 0x0(s0)
   14f68: ca 89        	c.mv	s3, s2
   14f6a: 3b 07 97 41  	subw	a4, a4, s9
   14f6e: 3e 9a        	c.add	s4, a5
   14f70: 58 c4        	c.sw	a4, 0xc(s0)
   14f72: 23 30 44 01  	sd	s4, 0x0(s0)
   14f76: 01 49        	c.li	s2, 0x0
   14f78: 83 b7 0b 01  	ld	a5, 0x10(s7)
   14f7c: 4e 9c        	c.add	s8, s3
   14f7e: b3 87 37 41  	sub	a5, a5, s3
   14f82: 23 b8 fb 00  	sd	a5, 0x10(s7)
   14f86: c1 c3        	c.beqz	a5, 0x15006 <__sfvwrite_r+0x18a>
   14f88: 1c 60        	c.ld	a5, 0x0(s0)
   14f8a: 03 17 04 01  	lh	a4, 0x10(s0)
   14f8e: 03 2a c4 00  	lw	s4, 0xc(s0)
   14f92: 3e 85        	c.mv	a0, a5
   14f94: e3 1c 09 fa  	bne	s2, zero, 0x14f4c <__sfvwrite_r+0xd0>
   14f98: 03 bc 04 00  	ld	s8, 0x0(s1)
   14f9c: 03 b9 84 00  	ld	s2, 0x8(s1)
   14fa0: c1 04        	c.addi	s1, 0x10
   14fa2: 55 b7        	c.j	0x14f46 <__sfvwrite_r+0xca>
   14fa4: 01 4b        	c.li	s6, 0x0
   14fa6: 01 45        	c.li	a0, 0x0
   14fa8: 81 4c        	c.li	s9, 0x0
   14faa: 01 4c        	c.li	s8, 0x0
   14fac: 63 06 0c 0a  	beq	s8, zero, 0x15058 <__sfvwrite_r+0x1dc>
   14fb0: 45 cd        	c.beqz	a0, 0x15068 <__sfvwrite_r+0x1ec>
   14fb2: 5a 8a        	c.mv	s4, s6
   14fb4: 63 73 6c 01  	bgeu	s8, s6, 0x14fba <__sfvwrite_r+0x13e>
   14fb8: 62 8a        	c.mv	s4, s8
   14fba: 08 60        	c.ld	a0, 0x0(s0)
   14fbc: 18 6c        	c.ld	a4, 0x18(s0)
   14fbe: 5c 44        	c.lw	a5, 0xc(s0)
   14fc0: 14 50        	c.lw	a3, 0x20(s0)
   14fc2: 52 89        	c.mv	s2, s4
   14fc4: 63 76 a7 00  	bgeu	a4, a0, 0x14fd0 <__sfvwrite_r+0x154>
   14fc8: bb 89 d7 00  	addw	s3, a5, a3
   14fcc: 63 c9 49 0b  	blt	s3, s4, 0x1507e <__sfvwrite_r+0x202>
   14fd0: 63 43 da 1a  	blt	s4, a3, 0x15176 <__sfvwrite_r+0x2fa>
   14fd4: 3c 60        	c.ld	a5, 0x40(s0)
   14fd6: 0c 78        	c.ld	a1, 0x30(s0)
   14fd8: 66 86        	c.mv	a2, s9
   14fda: 56 85        	c.mv	a0, s5
   14fdc: 82 97        	c.jalr	a5
   14fde: 2a 89        	c.mv	s2, a0
   14fe0: 63 56 a0 04  	bge	zero, a0, 0x1502c <__sfvwrite_r+0x1b0>
   14fe4: 9b 07 05 00  	addiw	a5, a0, 0x0
   14fe8: 3b 0b fb 40  	subw	s6, s6, a5
   14fec: 05 45        	c.li	a0, 0x1
   14fee: 63 0a 0b 02  	beq	s6, zero, 0x15022 <__sfvwrite_r+0x1a6>
   14ff2: 83 b7 0b 01  	ld	a5, 0x10(s7)
   14ff6: ca 9c        	c.add	s9, s2
   14ff8: 33 0c 2c 41  	sub	s8, s8, s2
   14ffc: b3 87 27 41  	sub	a5, a5, s2
   15000: 23 b8 fb 00  	sd	a5, 0x10(s7)
   15004: c5 f7        	c.bnez	a5, 0x14fac <__sfvwrite_r+0x130>
   15006: 02 7b        	c.ldsp	s6, 0x20(sp)
   15008: 42 6c        	c.ldsp	s8, 0x10(sp)
   1500a: a2 6c        	c.ldsp	s9, 0x8(sp)
   1500c: e6 60        	c.ldsp	ra, 0x58(sp)
   1500e: 46 64        	c.ldsp	s0, 0x50(sp)
   15010: a6 64        	c.ldsp	s1, 0x48(sp)
   15012: 06 69        	c.ldsp	s2, 0x40(sp)
   15014: e2 79        	c.ldsp	s3, 0x38(sp)
   15016: 42 7a        	c.ldsp	s4, 0x30(sp)
   15018: a2 7a        	c.ldsp	s5, 0x28(sp)
   1501a: e2 6b        	c.ldsp	s7, 0x18(sp)
   1501c: 01 45        	c.li	a0, 0x0
   1501e: 25 61        	c.addi16sp	sp, 0x60
   15020: 82 80        	c.jr	ra
   15022: a2 85        	c.mv	a1, s0
   15024: 56 85        	c.mv	a0, s5
   15026: ef f0 df dc  	jal	ra, 0x14df2 <_fflush_r>
   1502a: 61 d5        	c.beqz	a0, 0x14ff2 <__sfvwrite_r+0x176>
   1502c: 83 17 04 01  	lh	a5, 0x10(s0)
   15030: 02 7b        	c.ldsp	s6, 0x20(sp)
   15032: 42 6c        	c.ldsp	s8, 0x10(sp)
   15034: a2 6c        	c.ldsp	s9, 0x8(sp)
   15036: a6 64        	c.ldsp	s1, 0x48(sp)
   15038: 06 69        	c.ldsp	s2, 0x40(sp)
   1503a: e2 79        	c.ldsp	s3, 0x38(sp)
   1503c: 42 7a        	c.ldsp	s4, 0x30(sp)
   1503e: 93 e7 07 04  	ori	a5, a5, 0x40
   15042: 23 18 f4 00  	sh	a5, 0x10(s0)
   15046: e6 60        	c.ldsp	ra, 0x58(sp)
   15048: 46 64        	c.ldsp	s0, 0x50(sp)
   1504a: a2 7a        	c.ldsp	s5, 0x28(sp)
   1504c: e2 6b        	c.ldsp	s7, 0x18(sp)
   1504e: 7d 55        	c.li	a0, -0x1
   15050: 25 61        	c.addi16sp	sp, 0x60
   15052: 82 80        	c.jr	ra
   15054: 01 45        	c.li	a0, 0x0
   15056: 82 80        	c.jr	ra
   15058: 03 bc 84 00  	ld	s8, 0x8(s1)
   1505c: a6 87        	c.mv	a5, s1
   1505e: c1 04        	c.addi	s1, 0x10
   15060: e3 0c 0c fe  	beq	s8, zero, 0x15058 <__sfvwrite_r+0x1dc>
   15064: 83 bc 07 00  	ld	s9, 0x0(a5)
   15068: 62 86        	c.mv	a2, s8
   1506a: a9 45        	c.li	a1, 0xa
   1506c: 66 85        	c.mv	a0, s9
   1506e: ef 00 20 53  	jal	ra, 0x155a0 <memchr>
   15072: 63 07 05 14  	beq	a0, zero, 0x151c0 <__sfvwrite_r+0x344>
   15076: 05 05        	c.addi	a0, 0x1
   15078: 3b 0b 95 41  	subw	s6, a0, s9
   1507c: 1d bf        	c.j	0x14fb2 <__sfvwrite_r+0x136>
   1507e: e6 85        	c.mv	a1, s9
   15080: 4e 86        	c.mv	a2, s3
   15082: ef c0 ff a2  	jal	ra, 0x11ab0 <memmove>
   15086: 1c 60        	c.ld	a5, 0x0(s0)
   15088: a2 85        	c.mv	a1, s0
   1508a: 56 85        	c.mv	a0, s5
   1508c: ce 97        	c.add	a5, s3
   1508e: 1c e0        	c.sd	a5, 0x0(s0)
   15090: ef f0 3f d6  	jal	ra, 0x14df2 <_fflush_r>
   15094: 41 fd        	c.bnez	a0, 0x1502c <__sfvwrite_r+0x1b0>
   15096: ce 87        	c.mv	a5, s3
   15098: 4e 89        	c.mv	s2, s3
   1509a: b9 b7        	c.j	0x14fe8 <__sfvwrite_r+0x16c>
   1509c: 18 6c        	c.ld	a4, 0x18(s0)
   1509e: 63 67 f7 02  	bltu	a4, a5, 0x150cc <__sfvwrite_r+0x250>
   150a2: 18 50        	c.lw	a4, 0x20(s0)
   150a4: 63 64 e9 02  	bltu	s2, a4, 0x150cc <__sfvwrite_r+0x250>
   150a8: ca 86        	c.mv	a3, s2
   150aa: 63 73 2b 01  	bgeu	s6, s2, 0x150b0 <__sfvwrite_r+0x234>
   150ae: da 86        	c.mv	a3, s6
   150b0: 3b e7 e6 02  	remw	a4, a3, a4
   150b4: 3c 60        	c.ld	a5, 0x40(s0)
   150b6: 0c 78        	c.ld	a1, 0x30(s0)
   150b8: 62 86        	c.mv	a2, s8
   150ba: 56 85        	c.mv	a0, s5
   150bc: 99 9e        	c.subw	a3, a4
   150be: 82 97        	c.jalr	a5
   150c0: aa 89        	c.mv	s3, a0
   150c2: e3 55 a0 f6  	bge	zero, a0, 0x1502c <__sfvwrite_r+0x1b0>
   150c6: 33 09 39 41  	sub	s2, s2, s3
   150ca: 7d b5        	c.j	0x14f78 <__sfvwrite_r+0xfc>
   150cc: d2 89        	c.mv	s3, s4
   150ce: 63 73 49 01  	bgeu	s2, s4, 0x150d4 <__sfvwrite_r+0x258>
   150d2: ca 89        	c.mv	s3, s2
   150d4: 3e 85        	c.mv	a0, a5
   150d6: 4e 86        	c.mv	a2, s3
   150d8: e2 85        	c.mv	a1, s8
   150da: ef c0 7f 9d  	jal	ra, 0x11ab0 <memmove>
   150de: 58 44        	c.lw	a4, 0xc(s0)
   150e0: 1c 60        	c.ld	a5, 0x0(s0)
   150e2: bb 06 37 41  	subw	a3, a4, s3
   150e6: ce 97        	c.add	a5, s3
   150e8: 54 c4        	c.sw	a3, 0xc(s0)
   150ea: 1c e0        	c.sd	a5, 0x0(s0)
   150ec: e9 fe        	c.bnez	a3, 0x150c6 <__sfvwrite_r+0x24a>
   150ee: a2 85        	c.mv	a1, s0
   150f0: 56 85        	c.mv	a0, s5
   150f2: ef f0 1f d0  	jal	ra, 0x14df2 <_fflush_r>
   150f6: 1d f9        	c.bnez	a0, 0x1502c <__sfvwrite_r+0x1b0>
   150f8: 33 09 39 41  	sub	s2, s2, s3
   150fc: b5 bd        	c.j	0x14f78 <__sfvwrite_r+0xfc>
   150fe: 93 76 07 48  	andi	a3, a4, 0x480
   15102: c1 ca        	c.beqz	a3, 0x15192 <__sfvwrite_r+0x316>
   15104: 10 50        	c.lw	a2, 0x20(s0)
   15106: 0c 6c        	c.ld	a1, 0x18(s0)
   15108: 9b 16 16 00  	slliw	a3, a2, 0x1
   1510c: b1 9e        	c.addw	a3, a2
   1510e: 8d 8f        	c.sub	a5, a1
   15110: 9b d9 f6 01  	srliw	s3, a3, 0x1f
   15114: 9b 8c 07 00  	addiw	s9, a5, 0x0
   15118: bb 89 d9 00  	addw	s3, s3, a3
   1511c: 93 86 1c 00  	addi	a3, s9, 0x1
   15120: 9b d9 19 40  	sraiw	s3, s3, 0x1
   15124: ca 96        	c.add	a3, s2
   15126: 63 f6 d9 00  	bgeu	s3, a3, 0x15132 <__sfvwrite_r+0x2b6>
   1512a: 9b 86 17 00  	addiw	a3, a5, 0x1
   1512e: bb 89 26 01  	addw	s3, a3, s2
   15132: 13 77 07 40  	andi	a4, a4, 0x400
   15136: 25 c3        	c.beqz	a4, 0x15196 <__sfvwrite_r+0x31a>
   15138: ce 85        	c.mv	a1, s3
   1513a: 56 85        	c.mv	a0, s5
   1513c: ef b0 3f 84  	jal	ra, 0x1097e <_malloc_r>
   15140: 2a 8a        	c.mv	s4, a0
   15142: 49 c5        	c.beqz	a0, 0x151cc <__sfvwrite_r+0x350>
   15144: 0c 6c        	c.ld	a1, 0x18(s0)
   15146: 66 86        	c.mv	a2, s9
   15148: ef 00 20 6a  	jal	ra, 0x157ea <memcpy>
   1514c: 83 57 04 01  	lhu	a5, 0x10(s0)
   15150: 93 f7 f7 b7  	andi	a5, a5, -0x481
   15154: 93 e7 07 08  	ori	a5, a5, 0x80
   15158: 23 18 f4 00  	sh	a5, 0x10(s0)
   1515c: 33 05 9a 01  	add	a0, s4, s9
   15160: bb 87 99 41  	subw	a5, s3, s9
   15164: 23 3c 44 01  	sd	s4, 0x18(s0)
   15168: 08 e0        	c.sd	a0, 0x0(s0)
   1516a: 23 20 34 03  	sw	s3, 0x20(s0)
   1516e: ca 8c        	c.mv	s9, s2
   15170: 5c c4        	c.sw	a5, 0xc(s0)
   15172: 4a 8a        	c.mv	s4, s2
   15174: e5 b3        	c.j	0x14f5c <__sfvwrite_r+0xe0>
   15176: 52 86        	c.mv	a2, s4
   15178: e6 85        	c.mv	a1, s9
   1517a: ef c0 7f 93  	jal	ra, 0x11ab0 <memmove>
   1517e: 54 44        	c.lw	a3, 0xc(s0)
   15180: 18 60        	c.ld	a4, 0x0(s0)
   15182: 9b 07 0a 00  	addiw	a5, s4, 0x0
   15186: bb 86 46 41  	subw	a3, a3, s4
   1518a: 52 97        	c.add	a4, s4
   1518c: 54 c4        	c.sw	a3, 0xc(s0)
   1518e: 18 e0        	c.sd	a4, 0x0(s0)
   15190: a1 bd        	c.j	0x14fe8 <__sfvwrite_r+0x16c>
   15192: d2 8c        	c.mv	s9, s4
   15194: e1 b3        	c.j	0x14f5c <__sfvwrite_r+0xe0>
   15196: 4e 86        	c.mv	a2, s3
   15198: 56 85        	c.mv	a0, s5
   1519a: ef b0 5f e0  	jal	ra, 0x10f9e <_realloc_r>
   1519e: 2a 8a        	c.mv	s4, a0
   151a0: 55 fd        	c.bnez	a0, 0x1515c <__sfvwrite_r+0x2e0>
   151a2: 0c 6c        	c.ld	a1, 0x18(s0)
   151a4: 56 85        	c.mv	a0, s5
   151a6: ef c0 df d4  	jal	ra, 0x11ef2 <_free_r>
   151aa: 83 17 04 01  	lh	a5, 0x10(s0)
   151ae: 31 47        	c.li	a4, 0xc
   151b0: 02 7b        	c.ldsp	s6, 0x20(sp)
   151b2: 42 6c        	c.ldsp	s8, 0x10(sp)
   151b4: a2 6c        	c.ldsp	s9, 0x8(sp)
   151b6: 23 a0 ea 00  	sw	a4, 0x0(s5)
   151ba: 93 f7 f7 f7  	andi	a5, a5, -0x81
   151be: a5 bd        	c.j	0x15036 <__sfvwrite_r+0x1ba>
   151c0: 1b 0b 1c 00  	addiw	s6, s8, 0x1
   151c4: fd b3        	c.j	0x14fb2 <__sfvwrite_r+0x136>
   151c6: 83 17 04 01  	lh	a5, 0x10(s0)
   151ca: b5 b5        	c.j	0x15036 <__sfvwrite_r+0x1ba>
   151cc: 31 47        	c.li	a4, 0xc
   151ce: 83 17 04 01  	lh	a5, 0x10(s0)
   151d2: 02 7b        	c.ldsp	s6, 0x20(sp)
   151d4: 42 6c        	c.ldsp	s8, 0x10(sp)
   151d6: a2 6c        	c.ldsp	s9, 0x8(sp)
   151d8: 23 a0 ea 00  	sw	a4, 0x0(s5)
   151dc: a9 bd        	c.j	0x15036 <__sfvwrite_r+0x1ba>

00000000000151de <_putc_r>:
   151de: 01 11        	c.addi	sp, -0x20
   151e0: 22 e8        	c.sdsp	s0, 0x10(sp)
   151e2: 06 ec        	c.sdsp	ra, 0x18(sp)
   151e4: 2a 84        	c.mv	s0, a0
   151e6: 19 c1        	c.beqz	a0, 0x151ec <_putc_r+0xe>
   151e8: 3c 65        	c.ld	a5, 0x48(a0)
   151ea: a1 c3        	c.beqz	a5, 0x1522a <_putc_r+0x4c>
   151ec: 5c 46        	c.lw	a5, 0xc(a2)
   151ee: 1b 87 f7 ff  	addiw	a4, a5, -0x1
   151f2: 58 c6        	c.sw	a4, 0xc(a2)
   151f4: 63 5a 07 00  	bge	a4, zero, 0x15208 <_putc_r+0x2a>
   151f8: 1c 56        	c.lw	a5, 0x28(a2)
   151fa: 63 43 f7 02  	blt	a4, a5, 0x15220 <_putc_r+0x42>
   151fe: 93 f7 f5 0f  	andi	a5, a1, 0xff
   15202: 29 47        	c.li	a4, 0xa
   15204: 63 8e e7 00  	beq	a5, a4, 0x15220 <_putc_r+0x42>
   15208: 1c 62        	c.ld	a5, 0x0(a2)
   1520a: 13 f5 f5 0f  	andi	a0, a1, 0xff
   1520e: 13 87 17 00  	addi	a4, a5, 0x1
   15212: 18 e2        	c.sd	a4, 0x0(a2)
   15214: 23 80 b7 00  	sb	a1, 0x0(a5)
   15218: e2 60        	c.ldsp	ra, 0x18(sp)
   1521a: 42 64        	c.ldsp	s0, 0x10(sp)
   1521c: 05 61        	c.addi16sp	sp, 0x20
   1521e: 82 80        	c.jr	ra
   15220: 22 85        	c.mv	a0, s0
   15222: 42 64        	c.ldsp	s0, 0x10(sp)
   15224: e2 60        	c.ldsp	ra, 0x18(sp)
   15226: 05 61        	c.addi16sp	sp, 0x20
   15228: ad a8        	c.j	0x152a2 <__swbuf_r>
   1522a: 32 e4        	c.sdsp	a2, 0x8(sp)
   1522c: 2e e0        	c.sdsp	a1, 0x0(sp)
   1522e: ef c0 6f bc  	jal	ra, 0x115f4 <__sinit>
   15232: 22 66        	c.ldsp	a2, 0x8(sp)
   15234: 82 65        	c.ldsp	a1, 0x0(sp)
   15236: 5d bf        	c.j	0x151ec <_putc_r+0xe>

0000000000015238 <putc>:
   15238: 79 71        	c.addi16sp	sp, -0x30
   1523a: 4a ec        	c.sdsp	s2, 0x18(sp)
   1523c: 03 b9 81 88  	ld	s2, -0x778(gp)
   15240: 26 f0        	c.sdsp	s1, 0x20(sp)
   15242: 06 f4        	c.sdsp	ra, 0x28(sp)
   15244: aa 84        	c.mv	s1, a0
   15246: 63 05 09 00  	beq	s2, zero, 0x15250 <putc+0x18>
   1524a: 83 37 89 04  	ld	a5, 0x48(s2)
   1524e: a1 c7        	c.beqz	a5, 0x15296 <putc+0x5e>
   15250: dc 45        	c.lw	a5, 0xc(a1)
   15252: 1b 87 f7 ff  	addiw	a4, a5, -0x1
   15256: d8 c5        	c.sw	a4, 0xc(a1)
   15258: 63 5a 07 00  	bge	a4, zero, 0x1526c <putc+0x34>
   1525c: 9c 55        	c.lw	a5, 0x28(a1)
   1525e: 63 44 f7 02  	blt	a4, a5, 0x15286 <putc+0x4e>
   15262: 93 f7 f4 0f  	andi	a5, s1, 0xff
   15266: 29 47        	c.li	a4, 0xa
   15268: 63 8f e7 00  	beq	a5, a4, 0x15286 <putc+0x4e>
   1526c: 9c 61        	c.ld	a5, 0x0(a1)
   1526e: 13 f5 f4 0f  	andi	a0, s1, 0xff
   15272: 13 87 17 00  	addi	a4, a5, 0x1
   15276: 98 e1        	c.sd	a4, 0x0(a1)
   15278: 23 80 97 00  	sb	s1, 0x0(a5)
   1527c: a2 70        	c.ldsp	ra, 0x28(sp)
   1527e: 82 74        	c.ldsp	s1, 0x20(sp)
   15280: 62 69        	c.ldsp	s2, 0x18(sp)
   15282: 45 61        	c.addi16sp	sp, 0x30
   15284: 82 80        	c.jr	ra
   15286: a2 70        	c.ldsp	ra, 0x28(sp)
   15288: 2e 86        	c.mv	a2, a1
   1528a: 4a 85        	c.mv	a0, s2
   1528c: a6 85        	c.mv	a1, s1
   1528e: 62 69        	c.ldsp	s2, 0x18(sp)
   15290: 82 74        	c.ldsp	s1, 0x20(sp)
   15292: 45 61        	c.addi16sp	sp, 0x30
   15294: 39 a0        	c.j	0x152a2 <__swbuf_r>
   15296: 4a 85        	c.mv	a0, s2
   15298: 2e e4        	c.sdsp	a1, 0x8(sp)
   1529a: ef c0 af b5  	jal	ra, 0x115f4 <__sinit>
   1529e: a2 65        	c.ldsp	a1, 0x8(sp)
   152a0: 45 bf        	c.j	0x15250 <putc+0x18>

00000000000152a2 <__swbuf_r>:
   152a2: 79 71        	c.addi16sp	sp, -0x30
   152a4: 22 f0        	c.sdsp	s0, 0x20(sp)
   152a6: 26 ec        	c.sdsp	s1, 0x18(sp)
   152a8: 4a e8        	c.sdsp	s2, 0x10(sp)
   152aa: 06 f4        	c.sdsp	ra, 0x28(sp)
   152ac: 2a 89        	c.mv	s2, a0
   152ae: ae 84        	c.mv	s1, a1
   152b0: 32 84        	c.mv	s0, a2
   152b2: 19 c1        	c.beqz	a0, 0x152b8 <__swbuf_r+0x16>
   152b4: 3c 65        	c.ld	a5, 0x48(a0)
   152b6: e5 c7        	c.beqz	a5, 0x1539e <__swbuf_r+0xfc>
   152b8: 1c 54        	c.lw	a5, 0x28(s0)
   152ba: 03 17 04 01  	lh	a4, 0x10(s0)
   152be: 5c c4        	c.sw	a5, 0xc(s0)
   152c0: 93 77 87 00  	andi	a5, a4, 0x8
   152c4: a9 cb        	c.beqz	a5, 0x15316 <__swbuf_r+0x74>
   152c6: 1c 6c        	c.ld	a5, 0x18(s0)
   152c8: b9 c7        	c.beqz	a5, 0x15316 <__swbuf_r+0x74>
   152ca: 4e e4        	c.sdsp	s3, 0x8(sp)
   152cc: 93 16 27 03  	slli	a3, a4, 0x32
   152d0: 93 f9 f4 0f  	andi	s3, s1, 0xff
   152d4: ce 84        	c.mv	s1, s3
   152d6: 63 d0 06 06  	bge	a3, zero, 0x15336 <__swbuf_r+0x94>
   152da: 18 60        	c.ld	a4, 0x0(s0)
   152dc: 14 50        	c.lw	a3, 0x20(s0)
   152de: bb 07 f7 40  	subw	a5, a4, a5
   152e2: 63 db d7 06  	bge	a5, a3, 0x15358 <__swbuf_r+0xb6>
   152e6: 54 44        	c.lw	a3, 0xc(s0)
   152e8: 13 06 17 00  	addi	a2, a4, 0x1
   152ec: 10 e0        	c.sd	a2, 0x0(s0)
   152ee: fd 36        	c.addiw	a3, -0x1
   152f0: 54 c4        	c.sw	a3, 0xc(s0)
   152f2: 23 00 37 01  	sb	s3, 0x0(a4)
   152f6: 18 50        	c.lw	a4, 0x20(s0)
   152f8: 85 27        	c.addiw	a5, 0x1
   152fa: 63 01 f7 08  	beq	a4, a5, 0x1537c <__swbuf_r+0xda>
   152fe: 83 57 04 01  	lhu	a5, 0x10(s0)
   15302: 85 8b        	c.andi	a5, 0x1
   15304: c1 e7        	c.bnez	a5, 0x1538c <__swbuf_r+0xea>
   15306: a2 69        	c.ldsp	s3, 0x8(sp)
   15308: a2 70        	c.ldsp	ra, 0x28(sp)
   1530a: 02 74        	c.ldsp	s0, 0x20(sp)
   1530c: 42 69        	c.ldsp	s2, 0x10(sp)
   1530e: 26 85        	c.mv	a0, s1
   15310: e2 64        	c.ldsp	s1, 0x18(sp)
   15312: 45 61        	c.addi16sp	sp, 0x30
   15314: 82 80        	c.jr	ra
   15316: a2 85        	c.mv	a1, s0
   15318: 4a 85        	c.mv	a0, s2
   1531a: ef 00 60 09  	jal	ra, 0x153b0 <__swsetup_r>
   1531e: 2d e5        	c.bnez	a0, 0x15388 <__swbuf_r+0xe6>
   15320: 03 17 04 01  	lh	a4, 0x10(s0)
   15324: 4e e4        	c.sdsp	s3, 0x8(sp)
   15326: 93 f9 f4 0f  	andi	s3, s1, 0xff
   1532a: 93 16 27 03  	slli	a3, a4, 0x32
   1532e: 1c 6c        	c.ld	a5, 0x18(s0)
   15330: ce 84        	c.mv	s1, s3
   15332: e3 c4 06 fa  	blt	a3, zero, 0x152da <__swbuf_r+0x38>
   15336: 83 26 c4 0a  	lw	a3, 0xac(s0)
   1533a: 79 76        	c.lui	a2, 0xffffe
   1533c: 89 65        	c.lui	a1, 0x2
   1533e: 4d 8f        	c.or	a4, a1
   15340: 7d 16        	c.addi	a2, -0x1
   15342: f1 8e        	c.and	a3, a2
   15344: 23 18 e4 00  	sh	a4, 0x10(s0)
   15348: 18 60        	c.ld	a4, 0x0(s0)
   1534a: 23 26 d4 0a  	sw	a3, 0xac(s0)
   1534e: 14 50        	c.lw	a3, 0x20(s0)
   15350: bb 07 f7 40  	subw	a5, a4, a5
   15354: e3 c9 d7 f8  	blt	a5, a3, 0x152e6 <__swbuf_r+0x44>
   15358: a2 85        	c.mv	a1, s0
   1535a: 4a 85        	c.mv	a0, s2
   1535c: ef f0 7f a9  	jal	ra, 0x14df2 <_fflush_r>
   15360: 1d e1        	c.bnez	a0, 0x15386 <__swbuf_r+0xe4>
   15362: 18 60        	c.ld	a4, 0x0(s0)
   15364: 54 44        	c.lw	a3, 0xc(s0)
   15366: 85 47        	c.li	a5, 0x1
   15368: 13 06 17 00  	addi	a2, a4, 0x1
   1536c: fd 36        	c.addiw	a3, -0x1
   1536e: 10 e0        	c.sd	a2, 0x0(s0)
   15370: 54 c4        	c.sw	a3, 0xc(s0)
   15372: 23 00 37 01  	sb	s3, 0x0(a4)
   15376: 18 50        	c.lw	a4, 0x20(s0)
   15378: e3 13 f7 f8  	bne	a4, a5, 0x152fe <__swbuf_r+0x5c>
   1537c: a2 85        	c.mv	a1, s0
   1537e: 4a 85        	c.mv	a0, s2
   15380: ef f0 3f a7  	jal	ra, 0x14df2 <_fflush_r>
   15384: 49 d1        	c.beqz	a0, 0x15306 <__swbuf_r+0x64>
   15386: a2 69        	c.ldsp	s3, 0x8(sp)
   15388: fd 54        	c.li	s1, -0x1
   1538a: bd bf        	c.j	0x15308 <__swbuf_r+0x66>
   1538c: a9 47        	c.li	a5, 0xa
   1538e: e3 9c f4 f6  	bne	s1, a5, 0x15306 <__swbuf_r+0x64>
   15392: a2 85        	c.mv	a1, s0
   15394: 4a 85        	c.mv	a0, s2
   15396: ef f0 df a5  	jal	ra, 0x14df2 <_fflush_r>
   1539a: 35 d5        	c.beqz	a0, 0x15306 <__swbuf_r+0x64>
   1539c: ed b7        	c.j	0x15386 <__swbuf_r+0xe4>
   1539e: ef c0 6f a5  	jal	ra, 0x115f4 <__sinit>
   153a2: 19 bf        	c.j	0x152b8 <__swbuf_r+0x16>

00000000000153a4 <__swbuf>:
   153a4: aa 87        	c.mv	a5, a0
   153a6: 03 b5 81 88  	ld	a0, -0x778(gp)
   153aa: 2e 86        	c.mv	a2, a1
   153ac: be 85        	c.mv	a1, a5
   153ae: d5 bd        	c.j	0x152a2 <__swbuf_r>

00000000000153b0 <__swsetup_r>:
   153b0: 83 b7 81 88  	ld	a5, -0x778(gp)
   153b4: 01 11        	c.addi	sp, -0x20
   153b6: 22 e8        	c.sdsp	s0, 0x10(sp)
   153b8: 26 e4        	c.sdsp	s1, 0x8(sp)
   153ba: 06 ec        	c.sdsp	ra, 0x18(sp)
   153bc: aa 84        	c.mv	s1, a0
   153be: 2e 84        	c.mv	s0, a1
   153c0: 99 c3        	c.beqz	a5, 0x153c6 <__swsetup_r+0x16>
   153c2: b8 67        	c.ld	a4, 0x48(a5)
   153c4: 5d c7        	c.beqz	a4, 0x15472 <__swsetup_r+0xc2>
   153c6: 83 17 04 01  	lh	a5, 0x10(s0)
   153ca: 13 f7 87 00  	andi	a4, a5, 0x8
   153ce: 21 c7        	c.beqz	a4, 0x15416 <__swsetup_r+0x66>
   153d0: 18 6c        	c.ld	a4, 0x18(s0)
   153d2: 31 cf        	c.beqz	a4, 0x1542e <__swsetup_r+0x7e>
   153d4: 93 f6 17 00  	andi	a3, a5, 0x1
   153d8: 91 ce        	c.beqz	a3, 0x153f4 <__swsetup_r+0x44>
   153da: 14 50        	c.lw	a3, 0x20(s0)
   153dc: 23 26 04 00  	sw	zero, 0xc(s0)
   153e0: 01 45        	c.li	a0, 0x0
   153e2: bb 06 d0 40  	subw	a3, zero, a3
   153e6: 14 d4        	c.sw	a3, 0x28(s0)
   153e8: 11 cf        	c.beqz	a4, 0x15404 <__swsetup_r+0x54>
   153ea: e2 60        	c.ldsp	ra, 0x18(sp)
   153ec: 42 64        	c.ldsp	s0, 0x10(sp)
   153ee: a2 64        	c.ldsp	s1, 0x8(sp)
   153f0: 05 61        	c.addi16sp	sp, 0x20
   153f2: 82 80        	c.jr	ra
   153f4: 93 f6 27 00  	andi	a3, a5, 0x2
   153f8: 01 46        	c.li	a2, 0x0
   153fa: 91 e2        	c.bnez	a3, 0x153fe <__swsetup_r+0x4e>
   153fc: 10 50        	c.lw	a2, 0x20(s0)
   153fe: 50 c4        	c.sw	a2, 0xc(s0)
   15400: 01 45        	c.li	a0, 0x0
   15402: 65 f7        	c.bnez	a4, 0x153ea <__swsetup_r+0x3a>
   15404: 13 f7 07 08  	andi	a4, a5, 0x80
   15408: 6d d3        	c.beqz	a4, 0x153ea <__swsetup_r+0x3a>
   1540a: 93 e7 07 04  	ori	a5, a5, 0x40
   1540e: 23 18 f4 00  	sh	a5, 0x10(s0)
   15412: 7d 55        	c.li	a0, -0x1
   15414: d9 bf        	c.j	0x153ea <__swsetup_r+0x3a>
   15416: 13 f7 07 01  	andi	a4, a5, 0x10
   1541a: 25 c3        	c.beqz	a4, 0x1547a <__swsetup_r+0xca>
   1541c: 13 f7 47 00  	andi	a4, a5, 0x4
   15420: 0d e7        	c.bnez	a4, 0x1544a <__swsetup_r+0x9a>
   15422: 18 6c        	c.ld	a4, 0x18(s0)
   15424: 93 e7 87 00  	ori	a5, a5, 0x8
   15428: 23 18 f4 00  	sh	a5, 0x10(s0)
   1542c: 45 f7        	c.bnez	a4, 0x153d4 <__swsetup_r+0x24>
   1542e: 93 f6 07 28  	andi	a3, a5, 0x280
   15432: 13 06 00 20  	addi	a2, zero, 0x200
   15436: e3 8f c6 f8  	beq	a3, a2, 0x153d4 <__swsetup_r+0x24>
   1543a: a2 85        	c.mv	a1, s0
   1543c: 26 85        	c.mv	a0, s1
   1543e: ef 20 b0 1b  	jal	ra, 0x17df8 <__smakebuf_r>
   15442: 83 17 04 01  	lh	a5, 0x10(s0)
   15446: 18 6c        	c.ld	a4, 0x18(s0)
   15448: 71 b7        	c.j	0x153d4 <__swsetup_r+0x24>
   1544a: 2c 6c        	c.ld	a1, 0x58(s0)
   1544c: 81 cd        	c.beqz	a1, 0x15464 <__swsetup_r+0xb4>
   1544e: 13 07 44 07  	addi	a4, s0, 0x74
   15452: 63 87 e5 00  	beq	a1, a4, 0x15460 <__swsetup_r+0xb0>
   15456: 26 85        	c.mv	a0, s1
   15458: ef c0 bf a9  	jal	ra, 0x11ef2 <_free_r>
   1545c: 83 17 04 01  	lh	a5, 0x10(s0)
   15460: 23 3c 04 04  	sd	zero, 0x58(s0)
   15464: 18 6c        	c.ld	a4, 0x18(s0)
   15466: 93 f7 b7 fd  	andi	a5, a5, -0x25
   1546a: 23 24 04 00  	sw	zero, 0x8(s0)
   1546e: 18 e0        	c.sd	a4, 0x0(s0)
   15470: 55 bf        	c.j	0x15424 <__swsetup_r+0x74>
   15472: 3e 85        	c.mv	a0, a5
   15474: ef c0 0f 98  	jal	ra, 0x115f4 <__sinit>
   15478: b9 b7        	c.j	0x153c6 <__swsetup_r+0x16>
   1547a: 25 47        	c.li	a4, 0x9
   1547c: 98 c0        	c.sw	a4, 0x0(s1)
   1547e: 93 e7 07 04  	ori	a5, a5, 0x40
   15482: 23 18 f4 00  	sh	a5, 0x10(s0)
   15486: 7d 55        	c.li	a0, -0x1
   15488: 8d b7        	c.j	0x153ea <__swsetup_r+0x3a>

000000000001548a <__fputwc>:
   1548a: 79 71        	c.addi16sp	sp, -0x30
   1548c: 22 f0        	c.sdsp	s0, 0x20(sp)
   1548e: 26 ec        	c.sdsp	s1, 0x18(sp)
   15490: 4a e8        	c.sdsp	s2, 0x10(sp)
   15492: 06 f4        	c.sdsp	ra, 0x28(sp)
   15494: 2a 89        	c.mv	s2, a0
   15496: ae 84        	c.mv	s1, a1
   15498: 32 84        	c.mv	s0, a2
   1549a: ef 00 e0 29  	jal	ra, 0x15738 <__locale_mb_cur_max>
   1549e: 85 47        	c.li	a5, 0x1
   154a0: 63 1b f5 00  	bne	a0, a5, 0x154b6 <__fputwc+0x2c>
   154a4: 9b 87 f4 ff  	addiw	a5, s1, -0x1
   154a8: 13 07 e0 0f  	addi	a4, zero, 0xfe
   154ac: 63 65 f7 00  	bltu	a4, a5, 0x154b6 <__fputwc+0x2c>
   154b0: 23 04 91 00  	sb	s1, 0x8(sp)
   154b4: 21 a8        	c.j	0x154cc <__fputwc+0x42>
   154b6: 93 06 44 0a  	addi	a3, s0, 0xa4
   154ba: 26 86        	c.mv	a2, s1
   154bc: 2c 00        	c.addi4spn	a1, sp, 0x8
   154be: 4a 85        	c.mv	a0, s2
   154c0: ef 20 b0 09  	jal	ra, 0x17d5a <_wcrtomb_r>
   154c4: fd 57        	c.li	a5, -0x1
   154c6: 63 0d f5 04  	beq	a0, a5, 0x15520 <__fputwc+0x96>
   154ca: 0d c5        	c.beqz	a0, 0x154f4 <__fputwc+0x6a>
   154cc: 5c 44        	c.lw	a5, 0xc(s0)
   154ce: 83 45 81 00  	lbu	a1, 0x8(sp)
   154d2: 1b 87 f7 ff  	addiw	a4, a5, -0x1
   154d6: 58 c4        	c.sw	a4, 0xc(s0)
   154d8: 63 58 07 00  	bge	a4, zero, 0x154e8 <__fputwc+0x5e>
   154dc: 1c 54        	c.lw	a5, 0x28(s0)
   154de: 63 43 f7 02  	blt	a4, a5, 0x15504 <__fputwc+0x7a>
   154e2: a9 47        	c.li	a5, 0xa
   154e4: 63 80 f5 02  	beq	a1, a5, 0x15504 <__fputwc+0x7a>
   154e8: 1c 60        	c.ld	a5, 0x0(s0)
   154ea: 13 87 17 00  	addi	a4, a5, 0x1
   154ee: 18 e0        	c.sd	a4, 0x0(s0)
   154f0: 23 80 b7 00  	sb	a1, 0x0(a5)
   154f4: a2 70        	c.ldsp	ra, 0x28(sp)
   154f6: 02 74        	c.ldsp	s0, 0x20(sp)
   154f8: 42 69        	c.ldsp	s2, 0x10(sp)
   154fa: 1b 85 04 00  	addiw	a0, s1, 0x0
   154fe: e2 64        	c.ldsp	s1, 0x18(sp)
   15500: 45 61        	c.addi16sp	sp, 0x30
   15502: 82 80        	c.jr	ra
   15504: 22 86        	c.mv	a2, s0
   15506: 4a 85        	c.mv	a0, s2
   15508: ef f0 bf d9  	jal	ra, 0x152a2 <__swbuf_r>
   1550c: fd 57        	c.li	a5, -0x1
   1550e: e3 13 f5 fe  	bne	a0, a5, 0x154f4 <__fputwc+0x6a>
   15512: 7d 55        	c.li	a0, -0x1
   15514: a2 70        	c.ldsp	ra, 0x28(sp)
   15516: 02 74        	c.ldsp	s0, 0x20(sp)
   15518: e2 64        	c.ldsp	s1, 0x18(sp)
   1551a: 42 69        	c.ldsp	s2, 0x10(sp)
   1551c: 45 61        	c.addi16sp	sp, 0x30
   1551e: 82 80        	c.jr	ra
   15520: 83 57 04 01  	lhu	a5, 0x10(s0)
   15524: 7d 55        	c.li	a0, -0x1
   15526: 93 e7 07 04  	ori	a5, a5, 0x40
   1552a: 23 18 f4 00  	sh	a5, 0x10(s0)
   1552e: dd b7        	c.j	0x15514 <__fputwc+0x8a>

0000000000015530 <_fputwc_r>:
   15530: 83 17 06 01  	lh	a5, 0x10(a2)
   15534: 13 97 27 03  	slli	a4, a5, 0x32
   15538: 63 4c 07 00  	blt	a4, zero, 0x15550 <_fputwc_r+0x20>
   1553c: 03 27 c6 0a  	lw	a4, 0xac(a2)
   15540: 89 66        	c.lui	a3, 0x2
   15542: d5 8f        	c.or	a5, a3
   15544: 89 66        	c.lui	a3, 0x2
   15546: 55 8f        	c.or	a4, a3
   15548: 23 18 f6 00  	sh	a5, 0x10(a2)
   1554c: 23 26 e6 0a  	sw	a4, 0xac(a2)
   15550: 2d bf        	c.j	0x1548a <__fputwc>

0000000000015552 <fputwc>:
   15552: 01 11        	c.addi	sp, -0x20
   15554: 22 e8        	c.sdsp	s0, 0x10(sp)
   15556: 03 b4 81 88  	ld	s0, -0x778(gp)
   1555a: 06 ec        	c.sdsp	ra, 0x18(sp)
   1555c: 2e 86        	c.mv	a2, a1
   1555e: aa 85        	c.mv	a1, a0
   15560: 19 c0        	c.beqz	s0, 0x15566 <fputwc+0x14>
   15562: 3c 64        	c.ld	a5, 0x48(s0)
   15564: 95 c7        	c.beqz	a5, 0x15590 <fputwc+0x3e>
   15566: 83 17 06 01  	lh	a5, 0x10(a2)
   1556a: 13 97 27 03  	slli	a4, a5, 0x32
   1556e: 63 4c 07 00  	blt	a4, zero, 0x15586 <fputwc+0x34>
   15572: 03 27 c6 0a  	lw	a4, 0xac(a2)
   15576: 89 66        	c.lui	a3, 0x2
   15578: d5 8f        	c.or	a5, a3
   1557a: 89 66        	c.lui	a3, 0x2
   1557c: 55 8f        	c.or	a4, a3
   1557e: 23 18 f6 00  	sh	a5, 0x10(a2)
   15582: 23 26 e6 0a  	sw	a4, 0xac(a2)
   15586: 22 85        	c.mv	a0, s0
   15588: 42 64        	c.ldsp	s0, 0x10(sp)
   1558a: e2 60        	c.ldsp	ra, 0x18(sp)
   1558c: 05 61        	c.addi16sp	sp, 0x20
   1558e: f5 bd        	c.j	0x1548a <__fputwc>
   15590: 2a e0        	c.sdsp	a0, 0x0(sp)
   15592: 22 85        	c.mv	a0, s0
   15594: 32 e4        	c.sdsp	a2, 0x8(sp)
   15596: ef c0 ef 85  	jal	ra, 0x115f4 <__sinit>
   1559a: 22 66        	c.ldsp	a2, 0x8(sp)
   1559c: 82 65        	c.ldsp	a1, 0x0(sp)
   1559e: e1 b7        	c.j	0x15566 <fputwc+0x14>

00000000000155a0 <memchr>:
   155a0: 93 77 75 00  	andi	a5, a0, 0x7
   155a4: 93 f6 f5 0f  	andi	a3, a1, 0xff
   155a8: 95 c3        	c.beqz	a5, 0x155cc <memchr+0x2c>
   155aa: 93 07 f6 ff  	addi	a5, a2, -0x1
   155ae: 05 c6        	c.beqz	a2, 0x155d6 <memchr+0x36>
   155b0: 7d 56        	c.li	a2, -0x1
   155b2: 01 a8        	c.j	0x155c2 <memchr+0x22>
   155b4: 05 05        	c.addi	a0, 0x1
   155b6: 13 77 75 00  	andi	a4, a0, 0x7
   155ba: 11 cb        	c.beqz	a4, 0x155ce <memchr+0x2e>
   155bc: fd 17        	c.addi	a5, -0x1
   155be: 63 8c c7 00  	beq	a5, a2, 0x155d6 <memchr+0x36>
   155c2: 03 47 05 00  	lbu	a4, 0x0(a0)
   155c6: e3 17 d7 fe  	bne	a4, a3, 0x155b4 <memchr+0x14>
   155ca: 82 80        	c.jr	ra
   155cc: b2 87        	c.mv	a5, a2
   155ce: 1d 47        	c.li	a4, 0x7
   155d0: 63 65 f7 00  	bltu	a4, a5, 0x155da <memchr+0x3a>
   155d4: bd e3        	c.bnez	a5, 0x1563a <memchr+0x9a>
   155d6: 01 45        	c.li	a0, 0x0
   155d8: 82 80        	c.jr	ra
   155da: 93 f5 f5 0f  	andi	a1, a1, 0xff
   155de: 37 18 10 f0  	lui	a6, 0xf0101
   155e2: 13 97 85 00  	slli	a4, a1, 0x8
   155e6: b7 08 ff fe  	lui	a7, 0xfeff0
   155ea: 12 08        	c.slli	a6, 0x4
   155ec: 2e 97        	c.add	a4, a1
   155ee: 93 88 f8 ef  	addi	a7, a7, -0x101
   155f2: 13 08 18 10  	addi	a6, a6, 0x101
   155f6: 93 15 07 01  	slli	a1, a4, 0x10
   155fa: c2 08        	c.slli	a7, 0x10
   155fc: 42 08        	c.slli	a6, 0x10
   155fe: ba 95        	c.add	a1, a4
   15600: 93 88 f8 ef  	addi	a7, a7, -0x101
   15604: 13 08 18 10  	addi	a6, a6, 0x101
   15608: 13 97 05 02  	slli	a4, a1, 0x20
   1560c: c2 08        	c.slli	a7, 0x10
   1560e: 3e 08        	c.slli	a6, 0xf
   15610: ba 95        	c.add	a1, a4
   15612: 93 88 f8 ef  	addi	a7, a7, -0x101
   15616: 13 08 08 08  	addi	a6, a6, 0x80
   1561a: 1d 43        	c.li	t1, 0x7
   1561c: 29 a0        	c.j	0x15626 <memchr+0x86>
   1561e: e1 17        	c.addi	a5, -0x8
   15620: 21 05        	c.addi	a0, 0x8
   15622: e3 79 f3 fa  	bgeu	t1, a5, 0x155d4 <memchr+0x34>
   15626: 18 61        	c.ld	a4, 0x0(a0)
   15628: 2d 8f        	c.xor	a4, a1
   1562a: 33 06 17 01  	add	a2, a4, a7
   1562e: 13 47 f7 ff  	xori	a4, a4, -0x1
   15632: 71 8f        	c.and	a4, a2
   15634: 33 77 07 01  	and	a4, a4, a6
   15638: 7d d3        	c.beqz	a4, 0x1561e <memchr+0x7e>
   1563a: aa 97        	c.add	a5, a0
   1563c: 21 a0        	c.j	0x15644 <memchr+0xa4>
   1563e: 05 05        	c.addi	a0, 0x1
   15640: e3 8b a7 f8  	beq	a5, a0, 0x155d6 <memchr+0x36>
   15644: 03 47 05 00  	lbu	a4, 0x0(a0)
   15648: e3 1b d7 fe  	bne	a4, a3, 0x1563e <memchr+0x9e>
   1564c: 82 80        	c.jr	ra

000000000001564e <strncpy>:
   1564e: b3 e7 a5 00  	or	a5, a1, a0
   15652: 9d 8b        	c.andi	a5, 0x7
   15654: 81 e7        	c.bnez	a5, 0x1565c <strncpy+0xe>
   15656: 9d 47        	c.li	a5, 0x7
   15658: 63 eb c7 02  	bltu	a5, a2, 0x1568e <strncpy+0x40>
   1565c: 2a 87        	c.mv	a4, a0
   1565e: 11 a8        	c.j	0x15672 <strncpy+0x24>
   15660: 83 c6 f5 ff  	lbu	a3, -0x1(a1)
   15664: 13 08 f6 ff  	addi	a6, a2, -0x1
   15668: a3 8f d7 fe  	sb	a3, -0x1(a5)
   1566c: 81 ca        	c.beqz	a3, 0x1567c <strncpy+0x2e>
   1566e: 3e 87        	c.mv	a4, a5
   15670: 42 86        	c.mv	a2, a6
   15672: 85 05        	c.addi	a1, 0x1
   15674: 93 07 17 00  	addi	a5, a4, 0x1
   15678: 65 f6        	c.bnez	a2, 0x15660 <strncpy+0x12>
   1567a: 82 80        	c.jr	ra
   1567c: 32 97        	c.add	a4, a2
   1567e: 63 01 08 06  	beq	a6, zero, 0x156e0 <strncpy+0x92>
   15682: 85 07        	c.addi	a5, 0x1
   15684: a3 8f 07 fe  	sb	zero, -0x1(a5)
   15688: e3 9d e7 fe  	bne	a5, a4, 0x15682 <strncpy+0x34>
   1568c: 82 80        	c.jr	ra
   1568e: 37 18 10 f0  	lui	a6, 0xf0101
   15692: b7 08 ff fe  	lui	a7, 0xfeff0
   15696: 12 08        	c.slli	a6, 0x4
   15698: 93 88 f8 ef  	addi	a7, a7, -0x101
   1569c: 13 08 18 10  	addi	a6, a6, 0x101
   156a0: c2 08        	c.slli	a7, 0x10
   156a2: 42 08        	c.slli	a6, 0x10
   156a4: 93 88 f8 ef  	addi	a7, a7, -0x101
   156a8: 13 08 18 10  	addi	a6, a6, 0x101
   156ac: c2 08        	c.slli	a7, 0x10
   156ae: 3e 08        	c.slli	a6, 0xf
   156b0: 2a 87        	c.mv	a4, a0
   156b2: 93 88 f8 ef  	addi	a7, a7, -0x101
   156b6: 13 08 08 08  	addi	a6, a6, 0x80
   156ba: 1d 4e        	c.li	t3, 0x7
   156bc: 39 a0        	c.j	0x156ca <strncpy+0x7c>
   156be: 14 e3        	c.sd	a3, 0x0(a4)
   156c0: 61 16        	c.addi	a2, -0x8
   156c2: 21 07        	c.addi	a4, 0x8
   156c4: a1 05        	c.addi	a1, 0x8
   156c6: e3 76 ce fa  	bgeu	t3, a2, 0x15672 <strncpy+0x24>
   156ca: 94 61        	c.ld	a3, 0x0(a1)
   156cc: b3 87 16 01  	add	a5, a3, a7
   156d0: 13 c3 f6 ff  	xori	t1, a3, -0x1
   156d4: b3 f7 67 00  	and	a5, a5, t1
   156d8: b3 f7 07 01  	and	a5, a5, a6
   156dc: ed d3        	c.beqz	a5, 0x156be <strncpy+0x70>
   156de: 51 bf        	c.j	0x15672 <strncpy+0x24>
   156e0: 82 80        	c.jr	ra

00000000000156e2 <_setlocale_r>:
   156e2: 01 11        	c.addi	sp, -0x20
   156e4: 06 ec        	c.sdsp	ra, 0x18(sp)
   156e6: 26 e4        	c.sdsp	s1, 0x8(sp)
   156e8: 05 c6        	c.beqz	a2, 0x15710 <_setlocale_r+0x2e>
   156ea: b7 05 02 00  	lui	a1, 0x20
   156ee: 93 85 05 db  	addi	a1, a1, -0x250
   156f2: 32 85        	c.mv	a0, a2
   156f4: 22 e8        	c.sdsp	s0, 0x10(sp)
   156f6: 32 84        	c.mv	s0, a2
   156f8: ef 00 80 23  	jal	ra, 0x15930 <strcmp>
   156fc: b7 04 02 00  	lui	s1, 0x20
   15700: 19 e9        	c.bnez	a0, 0x15716 <_setlocale_r+0x34>
   15702: 42 64        	c.ldsp	s0, 0x10(sp)
   15704: 13 85 84 da  	addi	a0, s1, -0x258
   15708: e2 60        	c.ldsp	ra, 0x18(sp)
   1570a: a2 64        	c.ldsp	s1, 0x8(sp)
   1570c: 05 61        	c.addi16sp	sp, 0x20
   1570e: 82 80        	c.jr	ra
   15710: b7 04 02 00  	lui	s1, 0x20
   15714: c5 bf        	c.j	0x15704 <_setlocale_r+0x22>
   15716: 93 85 84 da  	addi	a1, s1, -0x258
   1571a: 22 85        	c.mv	a0, s0
   1571c: ef 00 40 21  	jal	ra, 0x15930 <strcmp>
   15720: 6d d1        	c.beqz	a0, 0x15702 <_setlocale_r+0x20>
   15722: b7 05 02 00  	lui	a1, 0x20
   15726: 93 85 05 d9  	addi	a1, a1, -0x270
   1572a: 22 85        	c.mv	a0, s0
   1572c: ef 00 40 20  	jal	ra, 0x15930 <strcmp>
   15730: 69 d9        	c.beqz	a0, 0x15702 <_setlocale_r+0x20>
   15732: 42 64        	c.ldsp	s0, 0x10(sp)
   15734: 01 45        	c.li	a0, 0x0
   15736: c9 bf        	c.j	0x15708 <_setlocale_r+0x26>

0000000000015738 <__locale_mb_cur_max>:
   15738: b7 27 02 00  	lui	a5, 0x22
   1573c: 03 c5 87 24  	lbu	a0, 0x248(a5)
   15740: 82 80        	c.jr	ra

0000000000015742 <setlocale>:
   15742: 01 11        	c.addi	sp, -0x20
   15744: 06 ec        	c.sdsp	ra, 0x18(sp)
   15746: 26 e4        	c.sdsp	s1, 0x8(sp)
   15748: 85 c5        	c.beqz	a1, 0x15770 <setlocale+0x2e>
   1574a: 22 e8        	c.sdsp	s0, 0x10(sp)
   1574c: 2e 84        	c.mv	s0, a1
   1574e: b7 05 02 00  	lui	a1, 0x20
   15752: 93 85 05 db  	addi	a1, a1, -0x250
   15756: 22 85        	c.mv	a0, s0
   15758: ef 00 80 1d  	jal	ra, 0x15930 <strcmp>
   1575c: b7 04 02 00  	lui	s1, 0x20
   15760: 19 e9        	c.bnez	a0, 0x15776 <setlocale+0x34>
   15762: 42 64        	c.ldsp	s0, 0x10(sp)
   15764: 13 85 84 da  	addi	a0, s1, -0x258
   15768: e2 60        	c.ldsp	ra, 0x18(sp)
   1576a: a2 64        	c.ldsp	s1, 0x8(sp)
   1576c: 05 61        	c.addi16sp	sp, 0x20
   1576e: 82 80        	c.jr	ra
   15770: b7 04 02 00  	lui	s1, 0x20
   15774: c5 bf        	c.j	0x15764 <setlocale+0x22>
   15776: 93 85 84 da  	addi	a1, s1, -0x258
   1577a: 22 85        	c.mv	a0, s0
   1577c: ef 00 40 1b  	jal	ra, 0x15930 <strcmp>
   15780: 6d d1        	c.beqz	a0, 0x15762 <setlocale+0x20>
   15782: b7 05 02 00  	lui	a1, 0x20
   15786: 93 85 05 d9  	addi	a1, a1, -0x270
   1578a: 22 85        	c.mv	a0, s0
   1578c: ef 00 40 1a  	jal	ra, 0x15930 <strcmp>
   15790: 69 d9        	c.beqz	a0, 0x15762 <setlocale+0x20>
   15792: 42 64        	c.ldsp	s0, 0x10(sp)
   15794: 01 45        	c.li	a0, 0x0
   15796: c9 bf        	c.j	0x15768 <setlocale+0x26>

0000000000015798 <__localeconv_l>:
   15798: 13 05 05 10  	addi	a0, a0, 0x100
   1579c: 82 80        	c.jr	ra

000000000001579e <_localeconv_r>:
   1579e: 37 25 02 00  	lui	a0, 0x22
   157a2: 13 05 85 1e  	addi	a0, a0, 0x1e8
   157a6: 82 80        	c.jr	ra

00000000000157a8 <localeconv>:
   157a8: 37 25 02 00  	lui	a0, 0x22
   157ac: 13 05 85 1e  	addi	a0, a0, 0x1e8
   157b0: 82 80        	c.jr	ra

00000000000157b2 <__libc_fini_array>:
   157b2: 01 11        	c.addi	sp, -0x20
   157b4: 22 e8        	c.sdsp	s0, 0x10(sp)
   157b6: b7 17 02 00  	lui	a5, 0x21
   157ba: 37 14 02 00  	lui	s0, 0x21
   157be: 93 87 07 66  	addi	a5, a5, 0x660
   157c2: 13 04 84 66  	addi	s0, s0, 0x668
   157c6: 1d 8c        	c.sub	s0, a5
   157c8: 26 e4        	c.sdsp	s1, 0x8(sp)
   157ca: 06 ec        	c.sdsp	ra, 0x18(sp)
   157cc: 93 54 34 40  	srai	s1, s0, 0x3
   157d0: 81 c8        	c.beqz	s1, 0x157e0 <__libc_fini_array+0x2e>
   157d2: 61 14        	c.addi	s0, -0x8
   157d4: 3e 94        	c.add	s0, a5
   157d6: 1c 60        	c.ld	a5, 0x0(s0)
   157d8: fd 14        	c.addi	s1, -0x1
   157da: 61 14        	c.addi	s0, -0x8
   157dc: 82 97        	c.jalr	a5
   157de: e5 fc        	c.bnez	s1, 0x157d6 <__libc_fini_array+0x24>
   157e0: e2 60        	c.ldsp	ra, 0x18(sp)
   157e2: 42 64        	c.ldsp	s0, 0x10(sp)
   157e4: a2 64        	c.ldsp	s1, 0x8(sp)
   157e6: 05 61        	c.addi16sp	sp, 0x20
   157e8: 82 80        	c.jr	ra

00000000000157ea <memcpy>:
   157ea: b3 c7 a5 00  	xor	a5, a1, a0
   157ee: 9d 8b        	c.andi	a5, 0x7
   157f0: b3 08 c5 00  	add	a7, a0, a2
   157f4: b1 e7        	c.bnez	a5, 0x15840 <memcpy+0x56>
   157f6: 9d 47        	c.li	a5, 0x7
   157f8: 63 f4 c7 04  	bgeu	a5, a2, 0x15840 <memcpy+0x56>
   157fc: 93 77 75 00  	andi	a5, a0, 0x7
   15800: 2a 87        	c.mv	a4, a0
   15802: b9 eb        	c.bnez	a5, 0x15858 <memcpy+0x6e>
   15804: 13 f6 88 ff  	andi	a2, a7, -0x8
   15808: b3 06 e6 40  	sub	a3, a2, a4
   1580c: 93 07 00 04  	addi	a5, zero, 0x40
   15810: 63 c8 d7 06  	blt	a5, a3, 0x15880 <memcpy+0x96>
   15814: ae 86        	c.mv	a3, a1
   15816: ba 87        	c.mv	a5, a4
   15818: 63 71 c7 02  	bgeu	a4, a2, 0x1583a <memcpy+0x50>
   1581c: 03 b8 06 00  	ld	a6, 0x0(a3)
   15820: a1 07        	c.addi	a5, 0x8
   15822: a1 06        	c.addi	a3, 0x8
   15824: 23 bc 07 ff  	sd	a6, -0x8(a5)
   15828: e3 ea c7 fe  	bltu	a5, a2, 0x1581c <memcpy+0x32>
   1582c: 93 07 f6 ff  	addi	a5, a2, -0x1
   15830: 99 8f        	c.sub	a5, a4
   15832: e1 9b        	c.andi	a5, -0x8
   15834: a1 07        	c.addi	a5, 0x8
   15836: 3e 97        	c.add	a4, a5
   15838: be 95        	c.add	a1, a5
   1583a: 63 66 17 01  	bltu	a4, a7, 0x15846 <memcpy+0x5c>
   1583e: 82 80        	c.jr	ra
   15840: 2a 87        	c.mv	a4, a0
   15842: 63 7e 15 03  	bgeu	a0, a7, 0x1587e <memcpy+0x94>
   15846: 83 c7 05 00  	lbu	a5, 0x0(a1)
   1584a: 05 07        	c.addi	a4, 0x1
   1584c: 85 05        	c.addi	a1, 0x1
   1584e: a3 0f f7 fe  	sb	a5, -0x1(a4)
   15852: e3 9a e8 fe  	bne	a7, a4, 0x15846 <memcpy+0x5c>
   15856: 82 80        	c.jr	ra
   15858: 83 c6 05 00  	lbu	a3, 0x0(a1)
   1585c: 05 07        	c.addi	a4, 0x1
   1585e: 93 77 77 00  	andi	a5, a4, 0x7
   15862: a3 0f d7 fe  	sb	a3, -0x1(a4)
   15866: 85 05        	c.addi	a1, 0x1
   15868: d1 df        	c.beqz	a5, 0x15804 <memcpy+0x1a>
   1586a: 83 c6 05 00  	lbu	a3, 0x0(a1)
   1586e: 05 07        	c.addi	a4, 0x1
   15870: 93 77 77 00  	andi	a5, a4, 0x7
   15874: a3 0f d7 fe  	sb	a3, -0x1(a4)
   15878: 85 05        	c.addi	a1, 0x1
   1587a: f9 ff        	c.bnez	a5, 0x15858 <memcpy+0x6e>
   1587c: 61 b7        	c.j	0x15804 <memcpy+0x1a>
   1587e: 82 80        	c.jr	ra
   15880: 41 11        	c.addi	sp, -0x10
   15882: 22 e4        	c.sdsp	s0, 0x8(sp)
   15884: 13 04 00 04  	addi	s0, zero, 0x40
   15888: 83 b3 05 00  	ld	t2, 0x0(a1)
   1588c: 83 b2 85 00  	ld	t0, 0x8(a1)
   15890: 83 bf 05 01  	ld	t6, 0x10(a1)
   15894: 03 bf 85 01  	ld	t5, 0x18(a1)
   15898: 83 be 05 02  	ld	t4, 0x20(a1)
   1589c: 03 be 85 02  	ld	t3, 0x28(a1)
   158a0: 03 b3 05 03  	ld	t1, 0x30(a1)
   158a4: 03 b8 85 03  	ld	a6, 0x38(a1)
   158a8: b4 61        	c.ld	a3, 0x40(a1)
   158aa: 13 07 87 04  	addi	a4, a4, 0x48
   158ae: b3 07 e6 40  	sub	a5, a2, a4
   158b2: 23 3c 77 fa  	sd	t2, -0x48(a4)
   158b6: 23 30 57 fc  	sd	t0, -0x40(a4)
   158ba: 23 34 f7 fd  	sd	t6, -0x38(a4)
   158be: 23 38 e7 fd  	sd	t5, -0x30(a4)
   158c2: 23 3c d7 fd  	sd	t4, -0x28(a4)
   158c6: 23 30 c7 ff  	sd	t3, -0x20(a4)
   158ca: 23 34 67 fe  	sd	t1, -0x18(a4)
   158ce: 23 38 07 ff  	sd	a6, -0x10(a4)
   158d2: 23 3c d7 fe  	sd	a3, -0x8(a4)
   158d6: 93 85 85 04  	addi	a1, a1, 0x48
   158da: e3 47 f4 fa  	blt	s0, a5, 0x15888 <memcpy+0x9e>
   158de: ae 86        	c.mv	a3, a1
   158e0: ba 87        	c.mv	a5, a4
   158e2: 63 71 c7 02  	bgeu	a4, a2, 0x15904 <memcpy+0x11a>
   158e6: 03 b8 06 00  	ld	a6, 0x0(a3)
   158ea: a1 07        	c.addi	a5, 0x8
   158ec: a1 06        	c.addi	a3, 0x8
   158ee: 23 bc 07 ff  	sd	a6, -0x8(a5)
   158f2: e3 ea c7 fe  	bltu	a5, a2, 0x158e6 <memcpy+0xfc>
   158f6: 93 07 f6 ff  	addi	a5, a2, -0x1
   158fa: 99 8f        	c.sub	a5, a4
   158fc: e1 9b        	c.andi	a5, -0x8
   158fe: a1 07        	c.addi	a5, 0x8
   15900: 3e 97        	c.add	a4, a5
   15902: be 95        	c.add	a1, a5
   15904: 63 65 17 01  	bltu	a4, a7, 0x1590e <memcpy+0x124>
   15908: 22 64        	c.ldsp	s0, 0x8(sp)
   1590a: 41 01        	c.addi	sp, 0x10
   1590c: 82 80        	c.jr	ra
   1590e: 83 c7 05 00  	lbu	a5, 0x0(a1)
   15912: 05 07        	c.addi	a4, 0x1
   15914: 85 05        	c.addi	a1, 0x1
   15916: a3 0f f7 fe  	sb	a5, -0x1(a4)
   1591a: e3 87 e8 fe  	beq	a7, a4, 0x15908 <memcpy+0x11e>
   1591e: 83 c7 05 00  	lbu	a5, 0x0(a1)
   15922: 05 07        	c.addi	a4, 0x1
   15924: 85 05        	c.addi	a1, 0x1
   15926: a3 0f f7 fe  	sb	a5, -0x1(a4)
   1592a: e3 92 e8 fe  	bne	a7, a4, 0x1590e <memcpy+0x124>
   1592e: e9 bf        	c.j	0x15908 <memcpy+0x11e>

0000000000015930 <strcmp>:
   15930: 33 67 b5 00  	or	a4, a0, a1
   15934: fd 53        	c.li	t2, -0x1
   15936: 1d 8b        	c.andi	a4, 0x7
   15938: 4d eb        	c.bnez	a4, 0x159ea <strcmp+0xba>
   1593a: 97 d7 00 00  	auipc	a5, 0xd
   1593e: 83 b7 67 95  	ld	a5, -0x6aa(a5)
   15942: 10 61        	c.ld	a2, 0x0(a0)
   15944: 94 61        	c.ld	a3, 0x0(a1)
   15946: b3 72 f6 00  	and	t0, a2, a5
   1594a: 33 63 f6 00  	or	t1, a2, a5
   1594e: be 92        	c.add	t0, a5
   15950: b3 e2 62 00  	or	t0, t0, t1
   15954: 63 99 72 0a  	bne	t0, t2, 0x15a06 <strcmp+0xd6>
   15958: 63 1e d6 02  	bne	a2, a3, 0x15994 <strcmp+0x64>
   1595c: 10 65        	c.ld	a2, 0x8(a0)
   1595e: 94 65        	c.ld	a3, 0x8(a1)
   15960: b3 72 f6 00  	and	t0, a2, a5
   15964: 33 63 f6 00  	or	t1, a2, a5
   15968: be 92        	c.add	t0, a5
   1596a: b3 e2 62 00  	or	t0, t0, t1
   1596e: 63 9a 72 08  	bne	t0, t2, 0x15a02 <strcmp+0xd2>
   15972: 63 11 d6 02  	bne	a2, a3, 0x15994 <strcmp+0x64>
   15976: 10 69        	c.ld	a2, 0x10(a0)
   15978: 94 69        	c.ld	a3, 0x10(a1)
   1597a: b3 72 f6 00  	and	t0, a2, a5
   1597e: 33 63 f6 00  	or	t1, a2, a5
   15982: be 92        	c.add	t0, a5
   15984: b3 e2 62 00  	or	t0, t0, t1
   15988: 63 93 72 08  	bne	t0, t2, 0x15a0e <strcmp+0xde>
   1598c: 61 05        	c.addi	a0, 0x18
   1598e: e1 05        	c.addi	a1, 0x18
   15990: e3 09 d6 fa  	beq	a2, a3, 0x15942 <strcmp+0x12>
   15994: 13 17 06 03  	slli	a4, a2, 0x30
   15998: 93 97 06 03  	slli	a5, a3, 0x30
   1599c: 63 18 f7 02  	bne	a4, a5, 0x159cc <strcmp+0x9c>
   159a0: 13 17 06 02  	slli	a4, a2, 0x20
   159a4: 93 97 06 02  	slli	a5, a3, 0x20
   159a8: 63 12 f7 02  	bne	a4, a5, 0x159cc <strcmp+0x9c>
   159ac: 13 17 06 01  	slli	a4, a2, 0x10
   159b0: 93 97 06 01  	slli	a5, a3, 0x10
   159b4: 63 1c f7 00  	bne	a4, a5, 0x159cc <strcmp+0x9c>
   159b8: 13 57 06 03  	srli	a4, a2, 0x30
   159bc: 93 d7 06 03  	srli	a5, a3, 0x30
   159c0: 33 05 f7 40  	sub	a0, a4, a5
   159c4: 93 75 f5 0f  	andi	a1, a0, 0xff
   159c8: 91 e9        	c.bnez	a1, 0x159dc <strcmp+0xac>
   159ca: 82 80        	c.jr	ra
   159cc: 41 93        	c.srli	a4, 0x30
   159ce: c1 93        	c.srli	a5, 0x30
   159d0: 33 05 f7 40  	sub	a0, a4, a5
   159d4: 93 75 f5 0f  	andi	a1, a0, 0xff
   159d8: 91 e1        	c.bnez	a1, 0x159dc <strcmp+0xac>
   159da: 82 80        	c.jr	ra
   159dc: 13 77 f7 0f  	andi	a4, a4, 0xff
   159e0: 93 f7 f7 0f  	andi	a5, a5, 0xff
   159e4: 33 05 f7 40  	sub	a0, a4, a5
   159e8: 82 80        	c.jr	ra
   159ea: 03 46 05 00  	lbu	a2, 0x0(a0)
   159ee: 83 c6 05 00  	lbu	a3, 0x0(a1)
   159f2: 05 05        	c.addi	a0, 0x1
   159f4: 85 05        	c.addi	a1, 0x1
   159f6: 63 13 d6 00  	bne	a2, a3, 0x159fc <strcmp+0xcc>
   159fa: 65 fa        	c.bnez	a2, 0x159ea <strcmp+0xba>
   159fc: 33 05 d6 40  	sub	a0, a2, a3
   15a00: 82 80        	c.jr	ra
   15a02: 21 05        	c.addi	a0, 0x8
   15a04: a1 05        	c.addi	a1, 0x8
   15a06: e3 12 d6 fe  	bne	a2, a3, 0x159ea <strcmp+0xba>
   15a0a: 01 45        	c.li	a0, 0x0
   15a0c: 82 80        	c.jr	ra
   15a0e: 41 05        	c.addi	a0, 0x10
   15a10: c1 05        	c.addi	a1, 0x10
   15a12: e3 1c d6 fc  	bne	a2, a3, 0x159ea <strcmp+0xba>
   15a16: 01 45        	c.li	a0, 0x0
   15a18: 82 80        	c.jr	ra

0000000000015a1a <frexpl>:
   15a1a: 39 71        	c.addi16sp	sp, -0x40
   15a1c: 4a f0        	c.sdsp	s2, 0x20(sp)
   15a1e: 21 69        	c.lui	s2, 0x8
   15a20: 22 f8        	c.sdsp	s0, 0x30(sp)
   15a22: 26 f4        	c.sdsp	s1, 0x28(sp)
   15a24: 5a e0        	c.sdsp	s6, 0x0(sp)
   15a26: 06 fc        	c.sdsp	ra, 0x38(sp)
   15a28: 93 d4 05 03  	srli	s1, a1, 0x30
   15a2c: 7d 19        	c.addi	s2, -0x1
   15a2e: b3 f4 24 01  	and	s1, s1, s2
   15a32: 23 20 06 00  	sw	zero, 0x0(a2)
   15a36: 2e 84        	c.mv	s0, a1
   15a38: 2a 8b        	c.mv	s6, a0
   15a3a: 63 84 24 05  	beq	s1, s2, 0x15a82 <frexpl+0x68>
   15a3e: 56 e4        	c.sdsp	s5, 0x8(sp)
   15a40: 81 46        	c.li	a3, 0x0
   15a42: b2 8a        	c.mv	s5, a2
   15a44: 01 46        	c.li	a2, 0x0
   15a46: 4e ec        	c.sdsp	s3, 0x18(sp)
   15a48: 52 e8        	c.sdsp	s4, 0x10(sp)
   15a4a: ae 89        	c.mv	s3, a1
   15a4c: 2a 8a        	c.mv	s4, a0
   15a4e: ef 20 70 47  	jal	ra, 0x186c4 <__netf2>
   15a52: 25 c1        	c.beqz	a0, 0x15ab2 <frexpl+0x98>
   15a54: 81 46        	c.li	a3, 0x0
   15a56: 8d cc        	c.beqz	s1, 0x15a90 <frexpl+0x76>
   15a58: 71 77        	c.lui	a4, 0xffffc
   15a5a: b7 17 00 f8  	lui	a5, 0xf8001
   15a5e: 09 27        	c.addiw	a4, 0x2
   15a60: 92 17        	c.slli	a5, 0x24
   15a62: b9 9c        	c.addw	s1, a4
   15a64: fd 17        	c.addi	a5, -0x1
   15a66: 37 f4 ff 01  	lui	s0, 0x1fff
   15a6a: b3 f9 f9 00  	and	s3, s3, a5
   15a6e: b5 9c        	c.addw	s1, a3
   15a70: 16 14        	c.slli	s0, 0x25
   15a72: 23 a0 9a 00  	sw	s1, 0x0(s5)
   15a76: 52 85        	c.mv	a0, s4
   15a78: b3 e5 89 00  	or	a1, s3, s0
   15a7c: 42 6a        	c.ldsp	s4, 0x10(sp)
   15a7e: e2 69        	c.ldsp	s3, 0x18(sp)
   15a80: a2 6a        	c.ldsp	s5, 0x8(sp)
   15a82: e2 70        	c.ldsp	ra, 0x38(sp)
   15a84: 42 74        	c.ldsp	s0, 0x30(sp)
   15a86: a2 74        	c.ldsp	s1, 0x28(sp)
   15a88: 02 79        	c.ldsp	s2, 0x20(sp)
   15a8a: 02 6b        	c.ldsp	s6, 0x0(sp)
   15a8c: 21 61        	c.addi16sp	sp, 0x40
   15a8e: 82 80        	c.jr	ra
   15a90: b7 16 07 04  	lui	a3, 0x4071
   15a94: 92 16        	c.slli	a3, 0x24
   15a96: 01 46        	c.li	a2, 0x0
   15a98: 5a 85        	c.mv	a0, s6
   15a9a: a2 85        	c.mv	a1, s0
   15a9c: ef 20 d0 60  	jal	ra, 0x188a8 <__multf3>
   15aa0: 93 d4 05 03  	srli	s1, a1, 0x30
   15aa4: ae 89        	c.mv	s3, a1
   15aa6: 2a 8a        	c.mv	s4, a0
   15aa8: b3 f4 24 01  	and	s1, s1, s2
   15aac: 93 06 e0 f8  	addi	a3, zero, -0x72
   15ab0: 65 b7        	c.j	0x15a58 <frexpl+0x3e>
   15ab2: e2 70        	c.ldsp	ra, 0x38(sp)
   15ab4: a2 85        	c.mv	a1, s0
   15ab6: 42 74        	c.ldsp	s0, 0x30(sp)
   15ab8: e2 69        	c.ldsp	s3, 0x18(sp)
   15aba: 42 6a        	c.ldsp	s4, 0x10(sp)
   15abc: a2 6a        	c.ldsp	s5, 0x8(sp)
   15abe: a2 74        	c.ldsp	s1, 0x28(sp)
   15ac0: 02 79        	c.ldsp	s2, 0x20(sp)
   15ac2: 5a 85        	c.mv	a0, s6
   15ac4: 02 6b        	c.ldsp	s6, 0x0(sp)
   15ac6: 21 61        	c.addi16sp	sp, 0x40
   15ac8: 82 80        	c.jr	ra

0000000000015aca <_ldtoa_r>:
   15aca: 37 03 02 00  	lui	t1, 0x20
   15ace: 13 03 03 1b  	addi	t1, t1, 0x1b0
   15ad2: 03 3f 03 00  	ld	t5, 0x0(t1)
   15ad6: 83 3e 83 00  	ld	t4, 0x8(t1)
   15ada: 03 2e 03 01  	lw	t3, 0x10(t1)
   15ade: 03 33 05 05  	ld	t1, 0x50(a0)
   15ae2: 71 71        	c.addi16sp	sp, -0xb0
   15ae4: 26 ed        	c.sdsp	s1, 0x98(sp)
   15ae6: 4a e9        	c.sdsp	s2, 0x90(sp)
   15ae8: 52 e1        	c.sdsp	s4, 0x80(sp)
   15aea: da f8        	c.sdsp	s6, 0x70(sp)
   15aec: de f4        	c.sdsp	s7, 0x68(sp)
   15aee: e2 f0        	c.sdsp	s8, 0x60(sp)
   15af0: e6 ec        	c.sdsp	s9, 0x58(sp)
   15af2: ea e8        	c.sdsp	s10, 0x50(sp)
   15af4: 06 f5        	c.sdsp	ra, 0xa8(sp)
   15af6: 22 f1        	c.sdsp	s0, 0xa0(sp)
   15af8: 4e e5        	c.sdsp	s3, 0x88(sp)
   15afa: d6 fc        	c.sdsp	s5, 0x78(sp)
   15afc: ee e4        	c.sdsp	s11, 0x48(sp)
   15afe: 7a f4        	c.sdsp	t5, 0x28(sp)
   15b00: 76 f8        	c.sdsp	t4, 0x30(sp)
   15b02: 72 dc        	c.swsp	t3, 0x38(sp)
   15b04: 2a 8b        	c.mv	s6, a0
   15b06: 2e 89        	c.mv	s2, a1
   15b08: b2 84        	c.mv	s1, a2
   15b0a: 36 8c        	c.mv	s8, a3
   15b0c: ba 8c        	c.mv	s9, a4
   15b0e: be 8b        	c.mv	s7, a5
   15b10: 42 8a        	c.mv	s4, a6
   15b12: 46 8d        	c.mv	s10, a7
   15b14: 63 01 03 02  	beq	t1, zero, 0x15b36 <_ldtoa_r+0x6c>
   15b18: 3c 4d        	c.lw	a5, 0x58(a0)
   15b1a: 05 47        	c.li	a4, 0x1
   15b1c: 9a 85        	c.mv	a1, t1
   15b1e: 3b 17 f7 00  	sllw	a4, a4, a5
   15b22: 82 17        	c.slli	a5, 0x20
   15b24: 02 17        	c.slli	a4, 0x20
   15b26: 81 93        	c.srli	a5, 0x20
   15b28: d9 8f        	c.or	a5, a4
   15b2a: 23 34 f3 00  	sd	a5, 0x8(t1)
   15b2e: ef 10 60 58  	jal	ra, 0x170b4 <_Bfree>
   15b32: 23 38 0b 04  	sd	zero, 0x50(s6)
   15b36: d2 57        	c.lwsp	a5, 0x34(sp)
   15b38: 93 a5 04 00  	slti	a1, s1, 0x0
   15b3c: 13 94 14 00  	slli	s0, s1, 0x1
   15b40: 1b d7 17 40  	sraiw	a4, a5, 0x1
   15b44: 93 d9 04 02  	srli	s3, s1, 0x20
   15b48: f9 8d        	c.and	a1, a4
   15b4a: 05 80        	c.srli	s0, 0x1
   15b4c: 93 a6 04 00  	slti	a3, s1, 0x0
   15b50: 93 9a 14 00  	slli	s5, s1, 0x1
   15b54: 71 77        	c.lui	a4, 0xffffc
   15b56: 9b 99 09 01  	slliw	s3, s3, 0x10
   15b5a: ad 8f        	c.xor	a5, a1
   15b5c: 93 da 1a 03  	srli	s5, s5, 0x31
   15b60: 1b 07 17 f9  	addiw	a4, a4, -0x6f
   15b64: 9b d9 09 01  	srliw	s3, s3, 0x10
   15b68: 23 20 da 00  	sw	a3, 0x0(s4)
   15b6c: 4a 86        	c.mv	a2, s2
   15b6e: a2 86        	c.mv	a3, s0
   15b70: 4a 85        	c.mv	a0, s2
   15b72: a2 85        	c.mv	a1, s0
   15b74: 3e da        	c.swsp	a5, 0x34(sp)
   15b76: bb 8d ea 00  	addw	s11, s5, a4
   15b7a: 4a ec        	c.sdsp	s2, 0x18(sp)
   15b7c: 26 d0        	c.swsp	s1, 0x20(sp)
   15b7e: 4e d2        	c.swsp	s3, 0x24(sp)
   15b80: ef 30 10 2f  	jal	ra, 0x19670 <__unordtf2>
   15b84: 5d e9        	c.bnez	a0, 0x15c3a <_ldtoa_r+0x170>
   15b86: 37 fa ff 07  	lui	s4, 0x7fff
   15b8a: 12 1a        	c.slli	s4, 0x24
   15b8c: 7d 1a        	c.addi	s4, -0x1
   15b8e: 7d 56        	c.li	a2, -0x1
   15b90: d2 86        	c.mv	a3, s4
   15b92: 4a 85        	c.mv	a0, s2
   15b94: a2 85        	c.mv	a1, s0
   15b96: ef 30 b0 2d  	jal	ra, 0x19670 <__unordtf2>
   15b9a: 39 ed        	c.bnez	a0, 0x15bf8 <_ldtoa_r+0x12e>
   15b9c: 7d 56        	c.li	a2, -0x1
   15b9e: d2 86        	c.mv	a3, s4
   15ba0: 4a 85        	c.mv	a0, s2
   15ba2: a2 85        	c.mv	a1, s0
   15ba4: ef 20 70 46  	jal	ra, 0x1880a <__lttf2>
   15ba8: 63 58 a0 04  	bge	zero, a0, 0x15bf8 <_ldtoa_r+0x12e>
   15bac: 8d 47        	c.li	a5, 0x3
   15bae: 3e ca        	c.swsp	a5, 0x14(sp)
   15bb0: e2 87        	c.mv	a5, s8
   15bb2: 58 08        	c.addi4spn	a4, sp, 0x14
   15bb4: 6a e0        	c.sdsp	s10, 0x0(sp)
   15bb6: de 88        	c.mv	a7, s7
   15bb8: 66 88        	c.mv	a6, s9
   15bba: 34 08        	c.addi4spn	a3, sp, 0x18
   15bbc: 6e 86        	c.mv	a2, s11
   15bbe: 2c 10        	c.addi4spn	a1, sp, 0x28
   15bc0: 5a 85        	c.mv	a0, s6
   15bc2: ef 00 e0 0e  	jal	ra, 0x15cb0 <__gdtoa>
   15bc6: 03 a7 0b 00  	lw	a4, 0x0(s7)
   15bca: e1 77        	c.lui	a5, 0xffff8
   15bcc: 63 17 f7 00  	bne	a4, a5, 0x15bda <_ldtoa_r+0x110>
   15bd0: b7 07 00 80  	lui	a5, 0x80000
   15bd4: fd 17        	c.addi	a5, -0x1
   15bd6: 23 a0 fb 00  	sw	a5, 0x0(s7)
   15bda: aa 70        	c.ldsp	ra, 0xa8(sp)
   15bdc: 0a 74        	c.ldsp	s0, 0xa0(sp)
   15bde: ea 64        	c.ldsp	s1, 0x98(sp)
   15be0: 4a 69        	c.ldsp	s2, 0x90(sp)
   15be2: aa 69        	c.ldsp	s3, 0x88(sp)
   15be4: 0a 6a        	c.ldsp	s4, 0x80(sp)
   15be6: e6 7a        	c.ldsp	s5, 0x78(sp)
   15be8: 46 7b        	c.ldsp	s6, 0x70(sp)
   15bea: a6 7b        	c.ldsp	s7, 0x68(sp)
   15bec: 06 7c        	c.ldsp	s8, 0x60(sp)
   15bee: e6 6c        	c.ldsp	s9, 0x58(sp)
   15bf0: 46 6d        	c.ldsp	s10, 0x50(sp)
   15bf2: a6 6d        	c.ldsp	s11, 0x48(sp)
   15bf4: 4d 61        	c.addi16sp	sp, 0xb0
   15bf6: 82 80        	c.jr	ra
   15bf8: 85 46        	c.li	a3, 0x1
   15bfa: 01 46        	c.li	a2, 0x0
   15bfc: c2 16        	c.slli	a3, 0x30
   15bfe: 4a 85        	c.mv	a0, s2
   15c00: a2 85        	c.mv	a1, s0
   15c02: ef 20 b0 36  	jal	ra, 0x1876c <__gttf2>
   15c06: 63 49 05 00  	blt	a0, zero, 0x15c18 <_ldtoa_r+0x14e>
   15c0a: c1 67        	c.lui	a5, 0x10
   15c0c: b3 e9 f9 00  	or	s3, s3, a5
   15c10: 85 47        	c.li	a5, 0x1
   15c12: 3e ca        	c.swsp	a5, 0x14(sp)
   15c14: 4e d2        	c.swsp	s3, 0x24(sp)
   15c16: 69 bf        	c.j	0x15bb0 <_ldtoa_r+0xe6>
   15c18: 01 46        	c.li	a2, 0x0
   15c1a: 81 46        	c.li	a3, 0x0
   15c1c: 4a 85        	c.mv	a0, s2
   15c1e: a6 85        	c.mv	a1, s1
   15c20: ef 20 50 2a  	jal	ra, 0x186c4 <__netf2>
   15c24: 19 e1        	c.bnez	a0, 0x15c2a <_ldtoa_r+0x160>
   15c26: 02 ca        	c.swsp	zero, 0x14(sp)
   15c28: 61 b7        	c.j	0x15bb0 <_ldtoa_r+0xe6>
   15c2a: 71 77        	c.lui	a4, 0xffffc
   15c2c: 1b 07 27 f9  	addiw	a4, a4, -0x6e
   15c30: 89 47        	c.li	a5, 0x2
   15c32: 3e ca        	c.swsp	a5, 0x14(sp)
   15c34: bb 8d ea 00  	addw	s11, s5, a4
   15c38: a5 bf        	c.j	0x15bb0 <_ldtoa_r+0xe6>
   15c3a: 91 47        	c.li	a5, 0x4
   15c3c: 3e ca        	c.swsp	a5, 0x14(sp)
   15c3e: 8d bf        	c.j	0x15bb0 <_ldtoa_r+0xe6>

0000000000015c40 <_ldcheck>:
   15c40: 79 71        	c.addi16sp	sp, -0x30
   15c42: 26 ec        	c.sdsp	s1, 0x18(sp)
   15c44: 04 65        	c.ld	s1, 0x8(a0)
   15c46: 4e e4        	c.sdsp	s3, 0x8(sp)
   15c48: 83 39 05 00  	ld	s3, 0x0(a0)
   15c4c: 86 04        	c.slli	s1, 0x1
   15c4e: 85 80        	c.srli	s1, 0x1
   15c50: 4e 86        	c.mv	a2, s3
   15c52: a6 86        	c.mv	a3, s1
   15c54: 4e 85        	c.mv	a0, s3
   15c56: a6 85        	c.mv	a1, s1
   15c58: 06 f4        	c.sdsp	ra, 0x28(sp)
   15c5a: ef 30 70 21  	jal	ra, 0x19670 <__unordtf2>
   15c5e: 39 e1        	c.bnez	a0, 0x15ca4 <_ldcheck+0x64>
   15c60: 4a e8        	c.sdsp	s2, 0x10(sp)
   15c62: 37 f9 ff 07  	lui	s2, 0x7fff
   15c66: 12 19        	c.slli	s2, 0x24
   15c68: 7d 19        	c.addi	s2, -0x1
   15c6a: 7d 56        	c.li	a2, -0x1
   15c6c: ca 86        	c.mv	a3, s2
   15c6e: 4e 85        	c.mv	a0, s3
   15c70: a6 85        	c.mv	a1, s1
   15c72: 22 f0        	c.sdsp	s0, 0x20(sp)
   15c74: 05 44        	c.li	s0, 0x1
   15c76: ef 30 b0 1f  	jal	ra, 0x19670 <__unordtf2>
   15c7a: 01 cd        	c.beqz	a0, 0x15c92 <_ldcheck+0x52>
   15c7c: a2 70        	c.ldsp	ra, 0x28(sp)
   15c7e: 13 45 14 00  	xori	a0, s0, 0x1
   15c82: 02 74        	c.ldsp	s0, 0x20(sp)
   15c84: 06 05        	c.slli	a0, 0x1
   15c86: 42 69        	c.ldsp	s2, 0x10(sp)
   15c88: e2 64        	c.ldsp	s1, 0x18(sp)
   15c8a: a2 69        	c.ldsp	s3, 0x8(sp)
   15c8c: 09 89        	c.andi	a0, 0x2
   15c8e: 45 61        	c.addi16sp	sp, 0x30
   15c90: 82 80        	c.jr	ra
   15c92: 7d 56        	c.li	a2, -0x1
   15c94: ca 86        	c.mv	a3, s2
   15c96: 4e 85        	c.mv	a0, s3
   15c98: a6 85        	c.mv	a1, s1
   15c9a: ef 20 10 37  	jal	ra, 0x1880a <__lttf2>
   15c9e: 13 24 15 00  	slti	s0, a0, 0x1
   15ca2: e9 bf        	c.j	0x15c7c <_ldcheck+0x3c>
   15ca4: a2 70        	c.ldsp	ra, 0x28(sp)
   15ca6: e2 64        	c.ldsp	s1, 0x18(sp)
   15ca8: a2 69        	c.ldsp	s3, 0x8(sp)
   15caa: 05 45        	c.li	a0, 0x1
   15cac: 45 61        	c.addi16sp	sp, 0x30
   15cae: 82 80        	c.jr	ra

0000000000015cb0 <__gdtoa>:
   15cb0: 11 71        	c.addi16sp	sp, -0x100
   15cb2: 66 f5        	c.sdsp	s9, 0xa8(sp)
   15cb4: 83 2c 07 00  	lw	s9, 0x0(a4)
   15cb8: a6 f5        	c.sdsp	s1, 0xe8(sp)
   15cba: d2 e9        	c.sdsp	s4, 0xd0(sp)
   15cbc: 13 f3 fc fc  	andi	t1, s9, -0x31
   15cc0: 86 fd        	c.sdsp	ra, 0xf8(sp)
   15cc2: 23 20 67 00  	sw	t1, 0x0(a4)
   15cc6: 3a 8a        	c.mv	s4, a4
   15cc8: 12 67        	c.ldsp	a4, 0x100(sp)
   15cca: 13 f3 fc 00  	andi	t1, s9, 0xf
   15cce: 0d 4e        	c.li	t3, 0x3
   15cd0: 3a e4        	c.sdsp	a4, 0x8(sp)
   15cd2: 32 e8        	c.sdsp	a2, 0x10(sp)
   15cd4: c6 84        	c.mv	s1, a7
   15cd6: 63 0a c3 53  	beq	t1, t3, 0x1620a <__gdtoa+0x55a>
   15cda: ce ed        	c.sdsp	s3, 0xd8(sp)
   15cdc: 93 f9 cc 00  	andi	s3, s9, 0xc
   15ce0: 63 91 09 4c  	bne	s3, zero, 0x161a2 <__gdtoa+0x4f2>
   15ce4: a2 f9        	c.sdsp	s0, 0xf0(sp)
   15ce6: 2a 84        	c.mv	s0, a0
   15ce8: 63 0c 03 4e  	beq	t1, zero, 0x161e0 <__gdtoa+0x530>
   15cec: 6a f1        	c.sdsp	s10, 0xa0(sp)
   15cee: 03 ad 05 00  	lw	s10, 0x0(a1)
   15cf2: ca f1        	c.sdsp	s2, 0xe0(sp)
   15cf4: da e1        	c.sdsp	s6, 0xc0(sp)
   15cf6: 5e fd        	c.sdsp	s7, 0xb8(sp)
   15cf8: 6e ed        	c.sdsp	s11, 0x98(sp)
   15cfa: 62 f9        	c.sdsp	s8, 0xb0(sp)
   15cfc: b6 8d        	c.mv	s11, a3
   15cfe: 93 06 00 02  	addi	a3, zero, 0x20
   15d02: 2e 8b        	c.mv	s6, a1
   15d04: 3e 89        	c.mv	s2, a5
   15d06: c2 8b        	c.mv	s7, a6
   15d08: 81 45        	c.li	a1, 0x0
   15d0a: 93 07 00 02  	addi	a5, zero, 0x20
   15d0e: 63 d7 a6 01  	bge	a3, s10, 0x15d1c <__gdtoa+0x6c>
   15d12: 9b 97 17 00  	slliw	a5, a5, 0x1
   15d16: 85 25        	c.addiw	a1, 0x1
   15d18: e3 cd a7 ff  	blt	a5, s10, 0x15d12 <__gdtoa+0x62>
   15d1c: 22 85        	c.mv	a0, s0
   15d1e: ef 10 20 33  	jal	ra, 0x17050 <_Balloc>
   15d22: 2a 8c        	c.mv	s8, a0
   15d24: 63 0f 05 6c  	beq	a0, zero, 0x16402 <__gdtoa+0x752>
   15d28: 1b 05 fd ff  	addiw	a0, s10, -0x1
   15d2c: 1b 55 55 40  	sraiw	a0, a0, 0x5
   15d30: 93 15 25 00  	slli	a1, a0, 0x2
   15d34: d6 e5        	c.sdsp	s5, 0xc8(sp)
   15d36: ee 95        	c.add	a1, s11
   15d38: 93 06 8c 01  	addi	a3, s8, 0x18
   15d3c: ee 87        	c.mv	a5, s11
   15d3e: 98 43        	c.lw	a4, 0x0(a5)
   15d40: 91 07        	c.addi	a5, 0x4
   15d42: 91 06        	c.addi	a3, 0x4
   15d44: 23 ae e6 fe  	sw	a4, -0x4(a3)
   15d48: e3 fb f5 fe  	bgeu	a1, a5, 0x15d3e <__gdtoa+0x8e>
   15d4c: 85 05        	c.addi	a1, 0x1
   15d4e: 93 87 1d 00  	addi	a5, s11, 0x1
   15d52: 91 46        	c.li	a3, 0x4
   15d54: 63 e5 f5 00  	bltu	a1, a5, 0x15d5e <__gdtoa+0xae>
   15d58: 0a 05        	c.slli	a0, 0x2
   15d5a: 93 06 45 00  	addi	a3, a0, 0x4
   15d5e: 93 d7 26 40  	srai	a5, a3, 0x2
   15d62: 81 27        	c.addiw	a5, 0x0
   15d64: e2 96        	c.add	a3, s8
   15d66: 21 a0        	c.j	0x15d6e <__gdtoa+0xbe>
   15d68: f1 16        	c.addi	a3, -0x4
   15d6a: 63 85 07 4e  	beq	a5, zero, 0x16254 <__gdtoa+0x5a4>
   15d6e: d8 4a        	c.lw	a4, 0x14(a3)
   15d70: be 8a        	c.mv	s5, a5
   15d72: fd 37        	c.addiw	a5, -0x1
   15d74: 75 db        	c.beqz	a4, 0x15d68 <__gdtoa+0xb8>
   15d76: 91 07        	c.addi	a5, 0x4
   15d78: 8a 07        	c.slli	a5, 0x2
   15d7a: e2 97        	c.add	a5, s8
   15d7c: 88 47        	c.lw	a0, 0x8(a5)
   15d7e: 23 2a 5c 01  	sw	s5, 0x14(s8)
   15d82: 9b 9a 5a 00  	slliw	s5, s5, 0x5
   15d86: ef 10 40 51  	jal	ra, 0x1729a <__hi0bits>
   15d8a: bb 87 aa 40  	subw	a5, s5, a0
   15d8e: 62 85        	c.mv	a0, s8
   15d90: 3e ec        	c.sdsp	a5, 0x18(sp)
   15d92: ef 10 80 23  	jal	ra, 0x16fca <__trailz_D2A>
   15d96: 2a c7        	c.swsp	a0, 0x8c(sp)
   15d98: 42 66        	c.ldsp	a2, 0x10(sp)
   15d9a: e2 67        	c.ldsp	a5, 0x18(sp)
   15d9c: 63 10 05 4e  	bne	a0, zero, 0x1627c <__gdtoa+0x5cc>
   15da0: 83 26 4c 01  	lw	a3, 0x14(s8)
   15da4: 63 83 06 42  	beq	a3, zero, 0x161ca <__gdtoa+0x51a>
   15da8: 6c 01        	c.addi4spn	a1, sp, 0x8c
   15daa: 62 85        	c.mv	a0, s8
   15dac: 3e f0        	c.sdsp	a5, 0x20(sp)
   15dae: 32 ec        	c.sdsp	a2, 0x18(sp)
   15db0: ef 10 b0 46  	jal	ra, 0x17a1a <__b2d>
   15db4: 53 05 05 e2  	fmv.x.d	a0, fa0
   15db8: 37 03 f0 3f  	lui	t1, 0x3ff00
   15dbc: fd 56        	c.li	a3, -0x1
   15dbe: 93 15 c5 00  	slli	a1, a0, 0xc
   15dc2: b1 91        	c.srli	a1, 0x2c
   15dc4: b3 e8 65 00  	or	a7, a1, t1
   15dc8: 81 92        	c.srli	a3, 0x20
   15dca: 82 18        	c.slli	a7, 0x20
   15dcc: e9 8e        	c.and	a3, a0
   15dce: b3 e6 16 01  	or	a3, a3, a7
   15dd2: 07 b7 81 80  	fld	fa4, -0x7f8(gp)
   15dd6: d3 87 06 f2  	fmv.d.x	fa5, a3
   15dda: 87 b6 01 81  	fld	fa3, -0x7f0(gp)
   15dde: 53 f7 e7 0a  	fsub.d	fa4, fa5, fa4, dyn
   15de2: 87 b7 81 81  	fld	fa5, -0x7e8(gp)
   15de6: 62 66        	c.ldsp	a2, 0x18(sp)
   15de8: 82 77        	c.ldsp	a5, 0x20(sp)
   15dea: b3 ee 65 00  	or	t4, a1, t1
   15dee: 43 77 d7 7a  	fmadd.d	fa4, fa4, fa3, fa5, dyn
   15df2: bb 0a f6 00  	addw	s5, a2, a5
   15df6: 9b 88 fa ff  	addiw	a7, s5, -0x1
   15dfa: d3 87 08 d2  	fcvt.d.w	fa5, a7
   15dfe: 87 b6 01 82  	fld	fa3, -0x7e0(gp)
   15e02: 1b 85 08 00  	addiw	a0, a7, 0x0
   15e06: c3 f7 d7 72  	fmadd.d	fa5, fa5, fa3, fa4, dyn
   15e0a: 63 55 05 00  	bge	a0, zero, 0x15e14 <__gdtoa+0x164>
   15e0e: 05 45        	c.li	a0, 0x1
   15e10: 3b 05 55 41  	subw	a0, a0, s5
   15e14: 1b 03 b5 bc  	addiw	t1, a0, -0x435
   15e18: 63 58 60 00  	bge	zero, t1, 0x15e28 <__gdtoa+0x178>
   15e1c: d3 06 03 d2  	fcvt.d.w	fa3, t1
   15e20: 07 b7 81 82  	fld	fa4, -0x7d8(gp)
   15e24: c3 f7 e6 7a  	fmadd.d	fa5, fa3, fa4, fa5, dyn
   15e28: 53 07 00 f2  	fmv.d.x	fa4, zero
   15e2c: 53 95 07 c2  	fcvt.w.d	a0, fa5, rtz
   15e30: 53 9e e7 a2  	flt.d	t3, fa5, fa4
   15e34: 1b 03 05 00  	addiw	t1, a0, 0x0
   15e38: 63 10 0e 70  	bne	t3, zero, 0x16538 <__gdtoa+0x888>
   15e3c: 9b 95 48 01  	slliw	a1, a7, 0x14
   15e40: bb 85 d5 01  	addw	a1, a1, t4
   15e44: 82 16        	c.slli	a3, 0x20
   15e46: 3b 8f 17 41  	subw	t5, a5, a7
   15e4a: 82 15        	c.slli	a1, 0x20
   15e4c: 81 92        	c.srli	a3, 0x20
   15e4e: 1b 05 03 00  	addiw	a0, t1, 0x0
   15e52: d9 4e        	c.li	t4, 0x16
   15e54: fa 88        	c.mv	a7, t5
   15e56: cd 8e        	c.or	a3, a1
   15e58: 1b 0e ff ff  	addiw	t3, t5, -0x1
   15e5c: 63 ef ae 3e  	bltu	t4, a0, 0x1625a <__gdtoa+0x5aa>
   15e60: b7 05 02 00  	lui	a1, 0x20
   15e64: 93 85 85 22  	addi	a1, a1, 0x228
   15e68: 13 15 33 00  	slli	a0, t1, 0x3
   15e6c: aa 95        	c.add	a1, a0
   15e6e: 9c 21        	c.fld	fa5, 0x0(a1)
   15e70: 53 87 06 f2  	fmv.d.x	fa4, a3
   15e74: d3 15 f7 a2  	flt.d	a1, fa4, fa5
   15e78: 63 94 05 5c  	bne	a1, zero, 0x16440 <__gdtoa+0x790>
   15e7c: 82 f8        	c.sdsp	zero, 0x70(sp)
   15e7e: 02 ec        	c.sdsp	zero, 0x18(sp)
   15e80: 63 47 e0 01  	blt	zero, t5, 0x15e8e <__gdtoa+0x1de>
   15e84: 85 45        	c.li	a1, 0x1
   15e86: 3b 87 e5 41  	subw	a4, a1, t5
   15e8a: 3a ec        	c.sdsp	a4, 0x18(sp)
   15e8c: 01 4e        	c.li	t3, 0x0
   15e8e: 3b 0e c3 01  	addw	t3, t1, t3
   15e92: 1a fc        	c.sdsp	t1, 0x38(sp)
   15e94: 02 f8        	c.sdsp	zero, 0x30(sp)
   15e96: a5 45        	c.li	a1, 0x9
   15e98: 63 ed 25 3f  	bltu	a1, s2, 0x16292 <__gdtoa+0x5e2>
   15e9c: 95 45        	c.li	a1, 0x5
   15e9e: 63 c4 25 59  	blt	a1, s2, 0x16426 <__gdtoa+0x776>
   15ea2: 9b 8a da 3f  	addiw	s5, s5, 0x3fd
   15ea6: 11 45        	c.li	a0, 0x4
   15ea8: 93 ba 8a 7f  	sltiu	s5, s5, 0x7f8
   15eac: e3 09 a9 22  	beq	s2, a0, 0x168de <__gdtoa+0xc2e>
   15eb0: e3 03 b9 22  	beq	s2, a1, 0x168d6 <__gdtoa+0xc26>
   15eb4: 89 45        	c.li	a1, 0x2
   15eb6: e3 07 b9 22  	beq	s2, a1, 0x168e4 <__gdtoa+0xc34>
   15eba: 8d 45        	c.li	a1, 0x3
   15ebc: 82 e0        	c.sdsp	zero, 0x40(sp)
   15ebe: 63 1f b9 3c  	bne	s2, a1, 0x1629c <__gdtoa+0x5ec>
   15ec2: 62 77        	c.ldsp	a4, 0x38(sp)
   15ec4: bb 05 77 01  	addw	a1, a4, s7
   15ec8: 1b 87 15 00  	addiw	a4, a1, 0x1
   15ecc: 3a f4        	c.sdsp	a4, 0x28(sp)
   15ece: ae fc        	c.sdsp	a1, 0x78(sp)
   15ed0: e3 58 e0 04  	bge	zero, a4, 0x16720 <__gdtoa+0xa70>
   15ed4: ba 88        	c.mv	a7, a4
   15ed6: ba 85        	c.mv	a1, a4
   15ed8: 22 85        	c.mv	a0, s0
   15eda: b6 f4        	c.sdsp	a3, 0x68(sp)
   15edc: be f0        	c.sdsp	a5, 0x60(sp)
   15ede: f2 ec        	c.sdsp	t3, 0x58(sp)
   15ee0: 9a e8        	c.sdsp	t1, 0x50(sp)
   15ee2: b2 e4        	c.sdsp	a2, 0x48(sp)
   15ee4: 46 c7        	c.swsp	a7, 0x8c(sp)
   15ee6: ef 00 90 61  	jal	ra, 0x16cfe <__rv_alloc_D2A>
   15eea: 2a 88        	c.mv	a6, a0
   15eec: 63 0a 05 34  	beq	a0, zero, 0x16240 <__gdtoa+0x590>
   15ef0: 03 27 cb 00  	lw	a4, 0xc(s6)
   15ef4: 26 66        	c.ldsp	a2, 0x48(sp)
   15ef6: 46 63        	c.ldsp	t1, 0x50(sp)
   15ef8: 7d 37        	c.addiw	a4, -0x1
   15efa: 3a f0        	c.sdsp	a4, 0x20(sp)
   15efc: 66 6e        	c.ldsp	t3, 0x58(sp)
   15efe: 86 77        	c.ldsp	a5, 0x60(sp)
   15f00: a6 76        	c.ldsp	a3, 0x68(sp)
   15f02: 63 03 07 3c  	beq	a4, zero, 0x162c8 <__gdtoa+0x618>
   15f06: 63 4d 07 50  	blt	a4, zero, 0x16420 <__gdtoa+0x770>
   15f0a: 93 fc 0c 10  	andi	s9, s9, 0x100
   15f0e: 63 98 0c 3a  	bne	s9, zero, 0x162be <__gdtoa+0x60e>
   15f12: 63 46 06 00  	blt	a2, zero, 0x15f1e <__gdtoa+0x26e>
   15f16: 62 77        	c.ldsp	a4, 0x38(sp)
   15f18: b9 45        	c.li	a1, 0xe
   15f1a: 63 d6 e5 52  	bge	a1, a4, 0x16446 <__gdtoa+0x796>
   15f1e: 06 67        	c.ldsp	a4, 0x40(sp)
   15f20: 63 0c 07 4e  	beq	a4, zero, 0x16418 <__gdtoa+0x768>
   15f24: 3b 0d fd 40  	subw	s10, s10, a5
   15f28: 83 26 4b 00  	lw	a3, 0x4(s6)
   15f2c: 9b 05 1d 00  	addiw	a1, s10, 0x1
   15f30: 2e c7        	c.swsp	a1, 0x8c(sp)
   15f32: 3b 0d a6 41  	subw	s10, a2, s10
   15f36: e3 58 dd 02  	bge	s10, a3, 0x16766 <__gdtoa+0xab6>
   15f3a: 9b 05 d9 ff  	addiw	a1, s2, -0x3
   15f3e: f5 99        	c.andi	a1, -0x3
   15f40: 81 25        	c.addiw	a1, 0x0
   15f42: 63 82 05 76  	beq	a1, zero, 0x166a6 <__gdtoa+0x9f6>
   15f46: bb 06 d6 40  	subw	a3, a2, a3
   15f4a: 9b 85 16 00  	addiw	a1, a3, 0x1
   15f4e: 2e c7        	c.swsp	a1, 0x8c(sp)
   15f50: 05 46        	c.li	a2, 0x1
   15f52: ae 86        	c.mv	a3, a1
   15f54: 63 58 26 01  	bge	a2, s2, 0x15f64 <__gdtoa+0x2b4>
   15f58: 22 77        	c.ldsp	a4, 0x28(sp)
   15f5a: 63 55 e0 00  	bge	zero, a4, 0x15f64 <__gdtoa+0x2b4>
   15f5e: 22 77        	c.ldsp	a4, 0x28(sp)
   15f60: e3 42 b7 46  	blt	a4, a1, 0x16bc4 <__gdtoa+0xf14>
   15f64: 62 67        	c.ldsp	a4, 0x18(sp)
   15f66: 42 7d        	c.ldsp	s10, 0x30(sp)
   15f68: 3b 8e c6 01  	addw	t3, a3, t3
   15f6c: ba 8c        	c.mv	s9, a4
   15f6e: 35 9f        	c.addw	a4, a3
   15f70: 3a ec        	c.sdsp	a4, 0x18(sp)
   15f72: 85 45        	c.li	a1, 0x1
   15f74: 22 85        	c.mv	a0, s0
   15f76: c2 f0        	c.sdsp	a6, 0x60(sp)
   15f78: be ec        	c.sdsp	a5, 0x58(sp)
   15f7a: f2 e8        	c.sdsp	t3, 0x50(sp)
   15f7c: 9a e4        	c.sdsp	t1, 0x48(sp)
   15f7e: ef 10 20 41  	jal	ra, 0x17390 <__i2b>
   15f82: 26 63        	c.ldsp	t1, 0x48(sp)
   15f84: 46 6e        	c.ldsp	t3, 0x50(sp)
   15f86: e6 67        	c.ldsp	a5, 0x58(sp)
   15f88: 06 78        	c.ldsp	a6, 0x60(sp)
   15f8a: aa 8a        	c.mv	s5, a0
   15f8c: 63 0a 05 2a  	beq	a0, zero, 0x16240 <__gdtoa+0x590>
   15f90: 63 80 0c 02  	beq	s9, zero, 0x15fb0 <__gdtoa+0x300>
   15f94: 63 5e c0 01  	bge	zero, t3, 0x15fb0 <__gdtoa+0x300>
   15f98: e6 86        	c.mv	a3, s9
   15f9a: 63 53 9e 01  	bge	t3, s9, 0x15fa0 <__gdtoa+0x2f0>
   15f9e: f2 86        	c.mv	a3, t3
   15fa0: 62 67        	c.ldsp	a4, 0x18(sp)
   15fa2: 36 c7        	c.swsp	a3, 0x8c(sp)
   15fa4: bb 8c dc 40  	subw	s9, s9, a3
   15fa8: 15 9f        	c.subw	a4, a3
   15faa: 3a ec        	c.sdsp	a4, 0x18(sp)
   15fac: 3b 0e de 40  	subw	t3, t3, a3
   15fb0: 42 77        	c.ldsp	a4, 0x30(sp)
   15fb2: 0d c7        	c.beqz	a4, 0x15fdc <__gdtoa+0x32c>
   15fb4: 06 67        	c.ldsp	a4, 0x40(sp)
   15fb6: 19 c3        	c.beqz	a4, 0x15fbc <__gdtoa+0x30c>
   15fb8: e3 1d 0d 06  	bne	s10, zero, 0x16832 <__gdtoa+0xb82>
   15fbc: 42 76        	c.ldsp	a2, 0x30(sp)
   15fbe: e2 85        	c.mv	a1, s8
   15fc0: 22 85        	c.mv	a0, s0
   15fc2: c2 f0        	c.sdsp	a6, 0x60(sp)
   15fc4: be ec        	c.sdsp	a5, 0x58(sp)
   15fc6: f2 e8        	c.sdsp	t3, 0x50(sp)
   15fc8: 9a e4        	c.sdsp	t1, 0x48(sp)
   15fca: ef 10 e0 5d  	jal	ra, 0x175a8 <__pow5mult>
   15fce: 26 63        	c.ldsp	t1, 0x48(sp)
   15fd0: 46 6e        	c.ldsp	t3, 0x50(sp)
   15fd2: e6 67        	c.ldsp	a5, 0x58(sp)
   15fd4: 06 78        	c.ldsp	a6, 0x60(sp)
   15fd6: 2a 8c        	c.mv	s8, a0
   15fd8: 63 04 05 26  	beq	a0, zero, 0x16240 <__gdtoa+0x590>
   15fdc: 85 45        	c.li	a1, 0x1
   15fde: 22 85        	c.mv	a0, s0
   15fe0: c2 ec        	c.sdsp	a6, 0x58(sp)
   15fe2: be e8        	c.sdsp	a5, 0x50(sp)
   15fe4: f2 e4        	c.sdsp	t3, 0x48(sp)
   15fe6: 1a f8        	c.sdsp	t1, 0x30(sp)
   15fe8: ef 10 80 3a  	jal	ra, 0x17390 <__i2b>
   15fec: 2a 8d        	c.mv	s10, a0
   15fee: 63 09 05 24  	beq	a0, zero, 0x16240 <__gdtoa+0x590>
   15ff2: 42 73        	c.ldsp	t1, 0x30(sp)
   15ff4: 26 6e        	c.ldsp	t3, 0x48(sp)
   15ff6: c6 67        	c.ldsp	a5, 0x50(sp)
   15ff8: 66 68        	c.ldsp	a6, 0x58(sp)
   15ffa: 63 17 03 72  	bne	t1, zero, 0x16728 <__gdtoa+0xa78>
   15ffe: 85 46        	c.li	a3, 0x1
   16000: 63 de 26 51  	bge	a3, s2, 0x1651c <__gdtoa+0x86c>
   16004: 7d 45        	c.li	a0, 0x1f
   16006: e2 67        	c.ldsp	a5, 0x18(sp)
   16008: bb 09 c5 41  	subw	s3, a0, t3
   1600c: f1 39        	c.addiw	s3, -0x4
   1600e: 93 f9 f9 01  	andi	s3, s3, 0x1f
   16012: 3b 86 f9 00  	addw	a2, s3, a5
   16016: 4e c7        	c.swsp	s3, 0x8c(sp)
   16018: ce 87        	c.mv	a5, s3
   1601a: 63 4e c0 5a  	blt	zero, a2, 0x165d6 <__gdtoa+0x926>
   1601e: 3b 06 fe 00  	addw	a2, t3, a5
   16022: 63 44 c0 20  	blt	zero, a2, 0x1622a <__gdtoa+0x57a>
   16026: c6 77        	c.ldsp	a5, 0x70(sp)
   16028: 63 96 07 5c  	bne	a5, zero, 0x165f4 <__gdtoa+0x944>
   1602c: a2 77        	c.ldsp	a5, 0x28(sp)
   1602e: 63 5c f0 68  	bge	zero, a5, 0x166c6 <__gdtoa+0xa16>
   16032: 86 67        	c.ldsp	a5, 0x40(sp)
   16034: 63 8e 07 5e  	beq	a5, zero, 0x16630 <__gdtoa+0x980>
   16038: 3b 86 99 01  	addw	a2, s3, s9
   1603c: e3 4c c0 06  	blt	zero, a2, 0x168b4 <__gdtoa+0xc04>
   16040: 56 ec        	c.sdsp	s5, 0x18(sp)
   16042: e3 12 03 0c  	bne	t1, zero, 0x16906 <__gdtoa+0xc56>
   16046: 6e e8        	c.sdsp	s11, 0x10(sp)
   16048: a6 e0        	c.sdsp	s1, 0x40(sp)
   1604a: a2 7d        	c.ldsp	s11, 0x28(sp)
   1604c: e2 64        	c.ldsp	s1, 0x18(sp)
   1604e: c2 8b        	c.mv	s7, a6
   16050: 85 46        	c.li	a3, 0x1
   16052: 42 f8        	c.sdsp	a6, 0x30(sp)
   16054: 52 f4        	c.sdsp	s4, 0x28(sp)
   16056: 8d a8        	c.j	0x160c8 <__gdtoa+0x418>
   16058: 22 85        	c.mv	a0, s0
   1605a: ef 10 a0 05  	jal	ra, 0x170b4 <_Bfree>
   1605e: e3 49 0b 12  	blt	s6, zero, 0x16990 <__gdtoa+0xce0>
   16062: 33 6b 69 01  	or	s6, s2, s6
   16066: 01 2b        	c.addiw	s6, 0x0
   16068: 63 17 0b 00  	bne	s6, zero, 0x16076 <__gdtoa+0x3c6>
   1606c: c2 67        	c.ldsp	a5, 0x10(sp)
   1606e: 9c 43        	c.lw	a5, 0x0(a5)
   16070: 85 8b        	c.andi	a5, 0x1
   16072: e3 8f 07 10  	beq	a5, zero, 0x16990 <__gdtoa+0xce0>
   16076: 82 77        	c.ldsp	a5, 0x20(sp)
   16078: 09 47        	c.li	a4, 0x2
   1607a: e3 92 e7 2c  	bne	a5, a4, 0x16b3e <__gdtoa+0xe8e>
   1607e: 23 80 4b 01  	sb	s4, 0x0(s7)
   16082: ba 47        	c.lwsp	a5, 0x8c(sp)
   16084: 85 0b        	c.addi	s7, 0x1
   16086: e3 85 b7 23  	beq	a5, s11, 0x16ab0 <__gdtoa+0xe00>
   1608a: e2 85        	c.mv	a1, s8
   1608c: 81 46        	c.li	a3, 0x0
   1608e: 29 46        	c.li	a2, 0xa
   16090: 22 85        	c.mv	a0, s0
   16092: ef 10 40 03  	jal	ra, 0x170c6 <__multadd>
   16096: 2a 8c        	c.mv	s8, a0
   16098: 63 04 05 1a  	beq	a0, zero, 0x16240 <__gdtoa+0x590>
   1609c: 81 46        	c.li	a3, 0x0
   1609e: 29 46        	c.li	a2, 0xa
   160a0: d6 85        	c.mv	a1, s5
   160a2: 22 85        	c.mv	a0, s0
   160a4: 63 80 9a 4c  	beq	s5, s1, 0x16564 <__gdtoa+0x8b4>
   160a8: ef 10 e0 01  	jal	ra, 0x170c6 <__multadd>
   160ac: aa 8a        	c.mv	s5, a0
   160ae: 63 09 05 18  	beq	a0, zero, 0x16240 <__gdtoa+0x590>
   160b2: a6 85        	c.mv	a1, s1
   160b4: 81 46        	c.li	a3, 0x0
   160b6: 29 46        	c.li	a2, 0xa
   160b8: 22 85        	c.mv	a0, s0
   160ba: ef 10 c0 00  	jal	ra, 0x170c6 <__multadd>
   160be: aa 84        	c.mv	s1, a0
   160c0: 63 00 05 18  	beq	a0, zero, 0x16240 <__gdtoa+0x590>
   160c4: ba 46        	c.lwsp	a3, 0x8c(sp)
   160c6: 85 26        	c.addiw	a3, 0x1
   160c8: ea 85        	c.mv	a1, s10
   160ca: 62 85        	c.mv	a0, s8
   160cc: 36 c7        	c.swsp	a3, 0x8c(sp)
   160ce: ef 00 d0 4e  	jal	ra, 0x16dba <__quorem_D2A>
   160d2: 1b 0a 05 03  	addiw	s4, a0, 0x30
   160d6: d6 85        	c.mv	a1, s5
   160d8: aa 8c        	c.mv	s9, a0
   160da: 62 85        	c.mv	a0, s8
   160dc: ef 10 e0 6c  	jal	ra, 0x177aa <__mcmp>
   160e0: ea 85        	c.mv	a1, s10
   160e2: 2a 8b        	c.mv	s6, a0
   160e4: 26 86        	c.mv	a2, s1
   160e6: 22 85        	c.mv	a0, s0
   160e8: ef 10 a0 6f  	jal	ra, 0x177e2 <__mdiff>
   160ec: d2 89        	c.mv	s3, s4
   160ee: aa 85        	c.mv	a1, a0
   160f0: 63 08 05 14  	beq	a0, zero, 0x16240 <__gdtoa+0x590>
   160f4: 1c 49        	c.lw	a5, 0x10(a0)
   160f6: ad f3        	c.bnez	a5, 0x16058 <__gdtoa+0x3a8>
   160f8: 2a ec        	c.sdsp	a0, 0x18(sp)
   160fa: 62 85        	c.mv	a0, s8
   160fc: ef 10 e0 6a  	jal	ra, 0x177aa <__mcmp>
   16100: e2 65        	c.ldsp	a1, 0x18(sp)
   16102: aa 86        	c.mv	a3, a0
   16104: 22 85        	c.mv	a0, s0
   16106: 36 ec        	c.sdsp	a3, 0x18(sp)
   16108: ef 00 d0 7a  	jal	ra, 0x170b4 <_Bfree>
   1610c: e2 66        	c.ldsp	a3, 0x18(sp)
   1610e: 33 67 d9 00  	or	a4, s2, a3
   16112: 01 27        	c.addiw	a4, 0x0
   16114: e3 1e 07 38  	bne	a4, zero, 0x16cb0 <__gdtoa+0x1000>
   16118: c2 67        	c.ldsp	a5, 0x10(sp)
   1611a: 9c 43        	c.lw	a5, 0x0(a5)
   1611c: 85 8b        	c.andi	a5, 0x1
   1611e: 63 9a 07 44  	bne	a5, zero, 0x16572 <__gdtoa+0x8c2>
   16122: 82 77        	c.ldsp	a5, 0x20(sp)
   16124: e3 82 07 2c  	beq	a5, zero, 0x16be8 <__gdtoa+0xf38>
   16128: e3 4b 60 f5  	blt	zero, s6, 0x1607e <__gdtoa+0x3ce>
   1612c: 03 26 4c 01  	lw	a2, 0x14(s8)
   16130: 26 ec        	c.sdsp	s1, 0x18(sp)
   16132: 85 46        	c.li	a3, 0x1
   16134: 52 83        	c.mv	t1, s4
   16136: 42 78        	c.ldsp	a6, 0x30(sp)
   16138: 22 7a        	c.ldsp	s4, 0x28(sp)
   1613a: 86 64        	c.ldsp	s1, 0x40(sp)
   1613c: ba 89        	c.mv	s3, a4
   1613e: e3 d6 c6 34  	bge	a3, a2, 0x16c8a <__gdtoa+0xfda>
   16142: 82 77        	c.ldsp	a5, 0x20(sp)
   16144: 89 46        	c.li	a3, 0x2
   16146: e3 85 d7 32  	beq	a5, a3, 0x16c70 <__gdtoa+0xfc0>
   1614a: 62 6b        	c.ldsp	s6, 0x18(sp)
   1614c: 9a 89        	c.mv	s3, t1
   1614e: c2 8d        	c.mv	s11, a6
   16150: 29 a8        	c.j	0x1616a <__gdtoa+0x4ba>
   16152: ef 00 50 77  	jal	ra, 0x170c6 <__multadd>
   16156: ea 85        	c.mv	a1, s10
   16158: 2a 8c        	c.mv	s8, a0
   1615a: 63 03 05 0e  	beq	a0, zero, 0x16240 <__gdtoa+0x590>
   1615e: ef 00 d0 45  	jal	ra, 0x16dba <__quorem_D2A>
   16162: 9b 09 05 03  	addiw	s3, a0, 0x30
   16166: e6 8b        	c.mv	s7, s9
   16168: 4a 8b        	c.mv	s6, s2
   1616a: da 85        	c.mv	a1, s6
   1616c: 6a 85        	c.mv	a0, s10
   1616e: ef 10 c0 63  	jal	ra, 0x177aa <__mcmp>
   16172: aa 87        	c.mv	a5, a0
   16174: 81 46        	c.li	a3, 0x0
   16176: 29 46        	c.li	a2, 0xa
   16178: da 85        	c.mv	a1, s6
   1617a: 22 85        	c.mv	a0, s0
   1617c: 93 8c 1b 00  	addi	s9, s7, 0x1
   16180: e3 5d f0 2c  	bge	zero, a5, 0x16c5a <__gdtoa+0xfaa>
   16184: a3 8f 3c ff  	sb	s3, -0x1(s9)
   16188: ef 00 f0 73  	jal	ra, 0x170c6 <__multadd>
   1618c: 2a 89        	c.mv	s2, a0
   1618e: 81 46        	c.li	a3, 0x0
   16190: 29 46        	c.li	a2, 0xa
   16192: e2 85        	c.mv	a1, s8
   16194: 22 85        	c.mv	a0, s0
   16196: 63 05 09 0a  	beq	s2, zero, 0x16240 <__gdtoa+0x590>
   1619a: e3 9c 6a fb  	bne	s5, s6, 0x16152 <__gdtoa+0x4a2>
   1619e: ca 8a        	c.mv	s5, s2
   161a0: 4d bf        	c.j	0x16152 <__gdtoa+0x4a2>
   161a2: 91 47        	c.li	a5, 0x4
   161a4: 63 16 f3 0a  	bne	t1, a5, 0x16250 <__gdtoa+0x5a0>
   161a8: 22 66        	c.ldsp	a2, 0x8(sp)
   161aa: ee 69        	c.ldsp	s3, 0xd8(sp)
   161ac: ee 70        	c.ldsp	ra, 0xf8(sp)
   161ae: ae 74        	c.ldsp	s1, 0xe8(sp)
   161b0: 4e 6a        	c.ldsp	s4, 0xd0(sp)
   161b2: aa 7c        	c.ldsp	s9, 0xa8(sp)
   161b4: e1 77        	c.lui	a5, 0xffff8
   161b6: 23 a0 f8 00  	sw	a5, 0x0(a7)
   161ba: b7 05 02 00  	lui	a1, 0x20
   161be: 8d 46        	c.li	a3, 0x3
   161c0: 93 85 05 dd  	addi	a1, a1, -0x230
   161c4: 11 61        	c.addi16sp	sp, 0x100
   161c6: 6f 00 b0 36  	jal	zero, 0x16d30 <__nrv_alloc_D2A>
   161ca: e2 85        	c.mv	a1, s8
   161cc: 22 85        	c.mv	a0, s0
   161ce: ef 00 70 6e  	jal	ra, 0x170b4 <_Bfree>
   161d2: 0e 79        	c.ldsp	s2, 0xe0(sp)
   161d4: ae 6a        	c.ldsp	s5, 0xc8(sp)
   161d6: 0e 6b        	c.ldsp	s6, 0xc0(sp)
   161d8: ea 7b        	c.ldsp	s7, 0xb8(sp)
   161da: 4a 7c        	c.ldsp	s8, 0xb0(sp)
   161dc: 0a 7d        	c.ldsp	s10, 0xa0(sp)
   161de: ea 6d        	c.ldsp	s11, 0x98(sp)
   161e0: 22 66        	c.ldsp	a2, 0x8(sp)
   161e2: 85 47        	c.li	a5, 0x1
   161e4: b7 05 02 00  	lui	a1, 0x20
   161e8: 22 85        	c.mv	a0, s0
   161ea: 9c c0        	c.sw	a5, 0x0(s1)
   161ec: 85 46        	c.li	a3, 0x1
   161ee: 93 85 05 da  	addi	a1, a1, -0x260
   161f2: ef 00 f0 33  	jal	ra, 0x16d30 <__nrv_alloc_D2A>
   161f6: 4e 74        	c.ldsp	s0, 0xf0(sp)
   161f8: 2a 88        	c.mv	a6, a0
   161fa: ee 70        	c.ldsp	ra, 0xf8(sp)
   161fc: ee 69        	c.ldsp	s3, 0xd8(sp)
   161fe: ae 74        	c.ldsp	s1, 0xe8(sp)
   16200: 4e 6a        	c.ldsp	s4, 0xd0(sp)
   16202: aa 7c        	c.ldsp	s9, 0xa8(sp)
   16204: 42 85        	c.mv	a0, a6
   16206: 11 61        	c.addi16sp	sp, 0x100
   16208: 82 80        	c.jr	ra
   1620a: 22 66        	c.ldsp	a2, 0x8(sp)
   1620c: ee 70        	c.ldsp	ra, 0xf8(sp)
   1620e: ae 74        	c.ldsp	s1, 0xe8(sp)
   16210: 4e 6a        	c.ldsp	s4, 0xd0(sp)
   16212: aa 7c        	c.ldsp	s9, 0xa8(sp)
   16214: e1 77        	c.lui	a5, 0xffff8
   16216: 23 a0 f8 00  	sw	a5, 0x0(a7)
   1621a: b7 05 02 00  	lui	a1, 0x20
   1621e: a1 46        	c.li	a3, 0x8
   16220: 93 85 05 dc  	addi	a1, a1, -0x240
   16224: 11 61        	c.addi16sp	sp, 0x100
   16226: 6f 00 b0 30  	jal	zero, 0x16d30 <__nrv_alloc_D2A>
   1622a: ea 85        	c.mv	a1, s10
   1622c: 22 85        	c.mv	a0, s0
   1622e: 42 ec        	c.sdsp	a6, 0x18(sp)
   16230: 1a e8        	c.sdsp	t1, 0x10(sp)
   16232: ef 10 00 45  	jal	ra, 0x17682 <__lshift>
   16236: 42 63        	c.ldsp	t1, 0x10(sp)
   16238: 62 68        	c.ldsp	a6, 0x18(sp)
   1623a: 2a 8d        	c.mv	s10, a0
   1623c: e3 15 05 de  	bne	a0, zero, 0x16026 <__gdtoa+0x376>
   16240: 4e 74        	c.ldsp	s0, 0xf0(sp)
   16242: 0e 79        	c.ldsp	s2, 0xe0(sp)
   16244: ae 6a        	c.ldsp	s5, 0xc8(sp)
   16246: 0e 6b        	c.ldsp	s6, 0xc0(sp)
   16248: ea 7b        	c.ldsp	s7, 0xb8(sp)
   1624a: 4a 7c        	c.ldsp	s8, 0xb0(sp)
   1624c: 0a 7d        	c.ldsp	s10, 0xa0(sp)
   1624e: ea 6d        	c.ldsp	s11, 0x98(sp)
   16250: 01 48        	c.li	a6, 0x0
   16252: 65 b7        	c.j	0x161fa <__gdtoa+0x54a>
   16254: 23 2a 0c 00  	sw	zero, 0x14(s8)
   16258: 1d be        	c.j	0x15d8e <__gdtoa+0xde>
   1625a: 05 47        	c.li	a4, 0x1
   1625c: ba f8        	c.sdsp	a4, 0x70(sp)
   1625e: 02 ec        	c.sdsp	zero, 0x18(sp)
   16260: 63 44 0e 1a  	blt	t3, zero, 0x16408 <__gdtoa+0x758>
   16264: e3 55 03 c2  	bge	t1, zero, 0x15e8e <__gdtoa+0x1de>
   16268: 62 67        	c.ldsp	a4, 0x18(sp)
   1626a: 1a fc        	c.sdsp	t1, 0x38(sp)
   1626c: 3b 07 67 40  	subw	a4, a4, t1
   16270: 3a ec        	c.sdsp	a4, 0x18(sp)
   16272: 3b 07 60 40  	subw	a4, zero, t1
   16276: 3a f8        	c.sdsp	a4, 0x30(sp)
   16278: 01 43        	c.li	t1, 0x0
   1627a: 31 b9        	c.j	0x15e96 <__gdtoa+0x1e6>
   1627c: aa 85        	c.mv	a1, a0
   1627e: 62 85        	c.mv	a0, s8
   16280: ef 00 b0 4a  	jal	ra, 0x16f2a <__rshift_D2A>
   16284: ba 46        	c.lwsp	a3, 0x8c(sp)
   16286: c2 67        	c.ldsp	a5, 0x10(sp)
   16288: 3b 86 f6 00  	addw	a2, a3, a5
   1628c: e2 67        	c.ldsp	a5, 0x18(sp)
   1628e: 95 9f        	c.subw	a5, a3
   16290: 01 be        	c.j	0x15da0 <__gdtoa+0xf0>
   16292: 9b 8a da 3f  	addiw	s5, s5, 0x3fd
   16296: 93 ba 8a 7f  	sltiu	s5, s5, 0x7f8
   1629a: 01 49        	c.li	s2, 0x0
   1629c: 07 b7 01 83  	fld	fa4, -0x7d0(gp)
   162a0: d3 07 0d d2  	fcvt.d.w	fa5, s10
   162a4: 05 47        	c.li	a4, 0x1
   162a6: ba e0        	c.sdsp	a4, 0x40(sp)
   162a8: d3 f7 e7 12  	fmul.d	fa5, fa5, fa4, dyn
   162ac: 7d 57        	c.li	a4, -0x1
   162ae: 81 4b        	c.li	s7, 0x0
   162b0: ba fc        	c.sdsp	a4, 0x78(sp)
   162b2: 3a f4        	c.sdsp	a4, 0x28(sp)
   162b4: d3 95 07 c2  	fcvt.w.d	a1, fa5, rtz
   162b8: 8d 25        	c.addiw	a1, 0x3
   162ba: ae 88        	c.mv	a7, a1
   162bc: 31 b9        	c.j	0x15ed8 <__gdtoa+0x228>
   162be: 02 77        	c.ldsp	a4, 0x20(sp)
   162c0: 8d 45        	c.li	a1, 0x3
   162c2: 3b 87 e5 40  	subw	a4, a1, a4
   162c6: 3a f0        	c.sdsp	a4, 0x20(sp)
   162c8: 22 77        	c.ldsp	a4, 0x28(sp)
   162ca: 39 45        	c.li	a0, 0xe
   162cc: 9b 05 07 00  	addiw	a1, a4, 0x0
   162d0: e3 61 b5 c4  	bltu	a0, a1, 0x15f12 <__gdtoa+0x262>
   162d4: e3 8f 0a c2  	beq	s5, zero, 0x15f12 <__gdtoa+0x262>
   162d8: e2 75        	c.ldsp	a1, 0x38(sp)
   162da: 02 75        	c.ldsp	a0, 0x20(sp)
   162dc: c9 8d        	c.or	a1, a0
   162de: 81 25        	c.addiw	a1, 0x0
   162e0: e3 99 05 c2  	bne	a1, zero, 0x15f12 <__gdtoa+0x262>
   162e4: c6 75        	c.ldsp	a1, 0x70(sp)
   162e6: 02 c7        	c.swsp	zero, 0x8c(sp)
   162e8: b6 8e        	c.mv	t4, a3
   162ea: 89 c9        	c.beqz	a1, 0x162fc <__gdtoa+0x64c>
   162ec: 87 b7 81 83  	fld	fa5, -0x7c8(gp)
   162f0: 53 87 06 f2  	fmv.d.x	fa4, a3
   162f4: d3 15 f7 a2  	flt.d	a1, fa4, fa5
   162f8: 63 94 05 7c  	bne	a1, zero, 0x16ac0 <__gdtoa+0xe10>
   162fc: 07 b7 81 85  	fld	fa4, -0x7a8(gp)
   16300: 87 b7 01 85  	fld	fa5, -0x7b0(gp)
   16304: d3 86 0e f2  	fmv.d.x	fa3, t4
   16308: b7 05 c0 fc  	lui	a1, 0xfcc00
   1630c: 22 77        	c.ldsp	a4, 0x28(sp)
   1630e: c3 f7 e6 7a  	fmadd.d	fa5, fa3, fa4, fa5, dyn
   16312: 53 85 07 e2  	fmv.x.d	a0, fa5
   16316: 13 5f 05 02  	srli	t5, a0, 0x20
   1631a: bb 85 e5 01  	addw	a1, a1, t5
   1631e: 7d 5f        	c.li	t5, -0x1
   16320: 13 5f 0f 02  	srli	t5, t5, 0x20
   16324: 82 15        	c.slli	a1, 0x20
   16326: 33 7f af 00  	and	t5, t5, a0
   1632a: 33 6f bf 00  	or	t5, t5, a1
   1632e: 63 09 07 4c  	beq	a4, zero, 0x16800 <__gdtoa+0xb50>
   16332: a2 7f        	c.ldsp	t6, 0x28(sp)
   16334: 76 85        	c.mv	a0, t4
   16336: 81 43        	c.li	t2, 0x0
   16338: b7 05 02 00  	lui	a1, 0x20
   1633c: 9b 82 ff ff  	addiw	t0, t6, -0x1
   16340: 06 67        	c.ldsp	a4, 0x40(sp)
   16342: 93 85 85 22  	addi	a1, a1, 0x228
   16346: 8e 02        	c.slli	t0, 0x3
   16348: ae 92        	c.add	t0, a1
   1634a: 87 b7 02 00  	fld	fa5, 0x0(t0)
   1634e: 63 0b 07 6c  	beq	a4, zero, 0x16a24 <__gdtoa+0xd74>
   16352: 53 07 05 f2  	fmv.d.x	fa4, a0
   16356: d3 06 05 f2  	fmv.d.x	fa3, a0
   1635a: d3 16 07 c2  	fcvt.w.d	a3, fa4, rtz
   1635e: 07 b7 81 86  	fld	fa4, -0x798(gp)
   16362: 93 0c 18 00  	addi	s9, a6, 0x1
   16366: 53 77 f7 1a  	fdiv.d	fa4, fa4, fa5, dyn
   1636a: d3 87 06 d2  	fcvt.d.w	fa5, a3
   1636e: 9b 86 06 03  	addiw	a3, a3, 0x30
   16372: 23 00 d8 00  	sb	a3, 0x0(a6)
   16376: d3 f7 f6 0a  	fsub.d	fa5, fa3, fa5, dyn
   1637a: d3 06 0f f2  	fmv.d.x	fa3, t5
   1637e: 53 77 d7 0a  	fsub.d	fa4, fa4, fa3, dyn
   16382: d3 96 e7 a2  	flt.d	a3, fa5, fa4
   16386: e3 9c 06 00  	bne	a3, zero, 0x16b9e <__gdtoa+0xeee>
   1638a: 87 b5 81 83  	fld	fa1, -0x7c8(gp)
   1638e: 07 b6 01 84  	fld	fa2, -0x7c0(gp)
   16392: 0d a8        	c.j	0x163c4 <__gdtoa+0x714>
   16394: 3a 47        	c.lwsp	a4, 0x8c(sp)
   16396: 85 0c        	c.addi	s9, 0x1
   16398: 05 27        	c.addiw	a4, 0x1
   1639a: 3a c7        	c.swsp	a4, 0x8c(sp)
   1639c: e3 5e f7 01  	bge	a4, t6, 0x16bb8 <__gdtoa+0xf08>
   163a0: d3 f7 c7 12  	fmul.d	fa5, fa5, fa2, dyn
   163a4: 53 77 c7 12  	fmul.d	fa4, fa4, fa2, dyn
   163a8: 53 97 07 c2  	fcvt.w.d	a4, fa5, rtz
   163ac: d3 06 07 d2  	fcvt.d.w	fa3, a4
   163b0: 1b 07 07 03  	addiw	a4, a4, 0x30
   163b4: a3 8f ec fe  	sb	a4, -0x1(s9)
   163b8: d3 f7 d7 0a  	fsub.d	fa5, fa5, fa3, dyn
   163bc: 53 97 e7 a2  	flt.d	a4, fa5, fa4
   163c0: 63 1f 07 7c  	bne	a4, zero, 0x16b9e <__gdtoa+0xeee>
   163c4: d3 f6 f5 0a  	fsub.d	fa3, fa1, fa5, dyn
   163c8: 53 97 e6 a2  	flt.d	a4, fa3, fa4
   163cc: 61 d7        	c.beqz	a4, 0x16394 <__gdtoa+0x6e4>
   163ce: 83 c6 fc ff  	lbu	a3, -0x1(s9)
   163d2: 9b 85 13 00  	addiw	a1, t2, 0x1
   163d6: 13 06 90 03  	addi	a2, zero, 0x39
   163da: 31 a0        	c.j	0x163e6 <__gdtoa+0x736>
   163dc: 63 00 f8 64  	beq	a6, a5, 0x16a1c <__gdtoa+0xd6c>
   163e0: 83 c6 f7 ff  	lbu	a3, -0x1(a5)
   163e4: be 8c        	c.mv	s9, a5
   163e6: 93 87 fc ff  	addi	a5, s9, -0x1
   163ea: e3 89 c6 fe  	beq	a3, a2, 0x163dc <__gdtoa+0x72c>
   163ee: 85 26        	c.addiw	a3, 0x1
   163f0: 93 f6 f6 0f  	andi	a3, a3, 0xff
   163f4: 23 80 d7 00  	sb	a3, 0x0(a5)
   163f8: 1b 89 05 00  	addiw	s2, a1, 0x0
   163fc: 93 09 00 02  	addi	s3, zero, 0x20
   16400: cd a0        	c.j	0x164e2 <__gdtoa+0x832>
   16402: 4e 74        	c.ldsp	s0, 0xf0(sp)
   16404: 0e 79        	c.ldsp	s2, 0xe0(sp)
   16406: 81 b5        	c.j	0x16246 <__gdtoa+0x596>
   16408: 85 45        	c.li	a1, 0x1
   1640a: 3b 87 15 41  	subw	a4, a1, a7
   1640e: 3a ec        	c.sdsp	a4, 0x18(sp)
   16410: 01 4e        	c.li	t3, 0x0
   16412: e3 4b 03 e4  	blt	t1, zero, 0x16268 <__gdtoa+0x5b8>
   16416: a5 bc        	c.j	0x15e8e <__gdtoa+0x1de>
   16418: 42 7d        	c.ldsp	s10, 0x30(sp)
   1641a: e2 6c        	c.ldsp	s9, 0x18(sp)
   1641c: 81 4a        	c.li	s5, 0x0
   1641e: 8d be        	c.j	0x15f90 <__gdtoa+0x2e0>
   16420: 09 47        	c.li	a4, 0x2
   16422: 3a f0        	c.sdsp	a4, 0x20(sp)
   16424: dd b4        	c.j	0x15f0a <__gdtoa+0x25a>
   16426: 71 39        	c.addiw	s2, -0x4
   16428: 11 45        	c.li	a0, 0x4
   1642a: 63 00 a9 12  	beq	s2, a0, 0x1654a <__gdtoa+0x89a>
   1642e: 63 0f b9 48  	beq	s2, a1, 0x168cc <__gdtoa+0xc1c>
   16432: 89 45        	c.li	a1, 0x2
   16434: 82 e0        	c.sdsp	zero, 0x40(sp)
   16436: 81 4a        	c.li	s5, 0x0
   16438: 63 0c b9 10  	beq	s2, a1, 0x16550 <__gdtoa+0x8a0>
   1643c: 0d 49        	c.li	s2, 0x3
   1643e: 51 b4        	c.j	0x15ec2 <__gdtoa+0x212>
   16440: 7d 33        	c.addiw	t1, -0x1
   16442: 82 f8        	c.sdsp	zero, 0x70(sp)
   16444: 29 bd        	c.j	0x1625e <__gdtoa+0x5ae>
   16446: b7 07 02 00  	lui	a5, 0x20
   1644a: 13 16 37 00  	slli	a2, a4, 0x3
   1644e: 93 87 87 22  	addi	a5, a5, 0x228
   16452: b2 97        	c.add	a5, a2
   16454: 98 23        	c.fld	fa4, 0x0(a5)
   16456: 63 ca 0b 32  	blt	s7, zero, 0x1678a <__gdtoa+0xada>
   1645a: d3 87 06 f2  	fmv.d.x	fa5, a3
   1645e: 85 47        	c.li	a5, 0x1
   16460: 3e c7        	c.swsp	a5, 0x8c(sp)
   16462: d3 f7 e7 1a  	fdiv.d	fa5, fa5, fa4, dyn
   16466: e2 77        	c.ldsp	a5, 0x38(sp)
   16468: d3 86 06 f2  	fmv.d.x	fa3, a3
   1646c: 93 0c 18 00  	addi	s9, a6, 0x1
   16470: 1b 89 17 00  	addiw	s2, a5, 0x1
   16474: ca 85        	c.mv	a1, s2
   16476: d3 97 07 c2  	fcvt.w.d	a5, fa5, rtz
   1647a: d3 87 07 d2  	fcvt.d.w	fa5, a5
   1647e: 1b 86 07 03  	addiw	a2, a5, 0x30
   16482: 23 00 c8 00  	sb	a2, 0x0(a6)
   16486: cb 77 f7 6a  	fnmsub.d	fa5, fa4, fa5, fa3, dyn
   1648a: d3 06 00 f2  	fmv.d.x	fa3, zero
   1648e: 81 27        	c.addiw	a5, 0x0
   16490: d3 a6 d7 a2  	feq.d	a3, fa5, fa3
   16494: b9 e6        	c.bnez	a3, 0x164e2 <__gdtoa+0x832>
   16496: 87 b5 01 84  	fld	fa1, -0x7c0(gp)
   1649a: 53 86 d6 22  	fsgnj.d	fa2, fa3, fa3
   1649e: 22 76        	c.ldsp	a2, 0x28(sp)
   164a0: 2d a0        	c.j	0x164ca <__gdtoa+0x81a>
   164a2: d3 f7 b7 12  	fmul.d	fa5, fa5, fa1, dyn
   164a6: 36 c7        	c.swsp	a3, 0x8c(sp)
   164a8: 85 0c        	c.addi	s9, 0x1
   164aa: d3 f6 e7 1a  	fdiv.d	fa3, fa5, fa4, dyn
   164ae: d3 97 06 c2  	fcvt.w.d	a5, fa3, rtz
   164b2: d3 86 07 d2  	fcvt.d.w	fa3, a5
   164b6: 1b 87 07 03  	addiw	a4, a5, 0x30
   164ba: a3 8f ec fe  	sb	a4, -0x1(s9)
   164be: cb f7 e6 7a  	fnmsub.d	fa5, fa3, fa4, fa5, dyn
   164c2: 81 27        	c.addiw	a5, 0x0
   164c4: 53 a7 c7 a2  	feq.d	a4, fa5, fa2
   164c8: 09 ef        	c.bnez	a4, 0x164e2 <__gdtoa+0x832>
   164ca: 3a 47        	c.lwsp	a4, 0x8c(sp)
   164cc: 9b 06 17 00  	addiw	a3, a4, 0x1
   164d0: e3 19 c7 fc  	bne	a4, a2, 0x164a2 <__gdtoa+0x7f2>
   164d4: 02 77        	c.ldsp	a4, 0x20(sp)
   164d6: 63 08 07 50  	beq	a4, zero, 0x169e6 <__gdtoa+0xd36>
   164da: 85 47        	c.li	a5, 0x1
   164dc: c1 49        	c.li	s3, 0x10
   164de: 63 08 f7 62  	beq	a4, a5, 0x16b0e <__gdtoa+0xe5e>
   164e2: e2 85        	c.mv	a1, s8
   164e4: 22 85        	c.mv	a0, s0
   164e6: 42 e8        	c.sdsp	a6, 0x10(sp)
   164e8: ef 00 d0 3c  	jal	ra, 0x170b4 <_Bfree>
   164ec: a2 67        	c.ldsp	a5, 0x8(sp)
   164ee: 23 80 0c 00  	sb	zero, 0x0(s9)
   164f2: 23 a0 24 01  	sw	s2, 0x0(s1)
   164f6: 42 68        	c.ldsp	a6, 0x10(sp)
   164f8: 99 c3        	c.beqz	a5, 0x164fe <__gdtoa+0x84e>
   164fa: 23 b0 97 01  	sd	s9, 0x0(a5)
   164fe: 83 27 0a 00  	lw	a5, 0x0(s4)
   16502: 4e 74        	c.ldsp	s0, 0xf0(sp)
   16504: 0e 79        	c.ldsp	s2, 0xe0(sp)
   16506: b3 e7 f9 00  	or	a5, s3, a5
   1650a: ae 6a        	c.ldsp	s5, 0xc8(sp)
   1650c: 0e 6b        	c.ldsp	s6, 0xc0(sp)
   1650e: ea 7b        	c.ldsp	s7, 0xb8(sp)
   16510: 4a 7c        	c.ldsp	s8, 0xb0(sp)
   16512: 0a 7d        	c.ldsp	s10, 0xa0(sp)
   16514: ea 6d        	c.ldsp	s11, 0x98(sp)
   16516: 23 20 fa 00  	sw	a5, 0x0(s4)
   1651a: c5 b1        	c.j	0x161fa <__gdtoa+0x54a>
   1651c: e3 94 d7 ae  	bne	a5, a3, 0x16004 <__gdtoa+0x354>
   16520: 83 27 4b 00  	lw	a5, 0x4(s6)
   16524: 42 67        	c.ldsp	a4, 0x10(sp)
   16526: 85 27        	c.addiw	a5, 0x1
   16528: e3 de e7 ac  	bge	a5, a4, 0x16004 <__gdtoa+0x354>
   1652c: e2 67        	c.ldsp	a5, 0x18(sp)
   1652e: 05 2e        	c.addiw	t3, 0x1
   16530: 05 43        	c.li	t1, 0x1
   16532: 85 27        	c.addiw	a5, 0x1
   16534: 3e ec        	c.sdsp	a5, 0x18(sp)
   16536: f9 b4        	c.j	0x16004 <__gdtoa+0x354>
   16538: 53 07 05 d2  	fcvt.d.w	fa4, a0
   1653c: d3 25 f7 a2  	feq.d	a1, fa4, fa5
   16540: e3 9e 05 8e  	bne	a1, zero, 0x15e3c <__gdtoa+0x18c>
   16544: 1b 03 f5 ff  	addiw	t1, a0, -0x1
   16548: d5 b8        	c.j	0x15e3c <__gdtoa+0x18c>
   1654a: 05 47        	c.li	a4, 0x1
   1654c: 81 4a        	c.li	s5, 0x0
   1654e: ba e0        	c.sdsp	a4, 0x40(sp)
   16550: 9b 85 0b 00  	addiw	a1, s7, 0x0
   16554: 63 43 70 01  	blt	zero, s7, 0x1655a <__gdtoa+0x8aa>
   16558: 85 45        	c.li	a1, 0x1
   1655a: ae 88        	c.mv	a7, a1
   1655c: ae fc        	c.sdsp	a1, 0x78(sp)
   1655e: 2e f4        	c.sdsp	a1, 0x28(sp)
   16560: ae 8b        	c.mv	s7, a1
   16562: 9d ba        	c.j	0x15ed8 <__gdtoa+0x228>
   16564: ef 00 30 36  	jal	ra, 0x170c6 <__multadd>
   16568: aa 8a        	c.mv	s5, a0
   1656a: e3 0b 05 cc  	beq	a0, zero, 0x16240 <__gdtoa+0x590>
   1656e: aa 84        	c.mv	s1, a0
   16570: 91 be        	c.j	0x160c4 <__gdtoa+0x414>
   16572: e3 56 0b b0  	bge	s6, zero, 0x1607e <__gdtoa+0x3ce>
   16576: 82 77        	c.ldsp	a5, 0x20(sp)
   16578: 26 ec        	c.sdsp	s1, 0x18(sp)
   1657a: 52 83        	c.mv	t1, s4
   1657c: 42 78        	c.ldsp	a6, 0x30(sp)
   1657e: 22 7a        	c.ldsp	s4, 0x28(sp)
   16580: 86 64        	c.ldsp	s1, 0x40(sp)
   16582: ba 89        	c.mv	s3, a4
   16584: 63 9e 07 6e  	bne	a5, zero, 0x16c80 <__gdtoa+0xfd0>
   16588: 03 26 4c 01  	lw	a2, 0x14(s8)
   1658c: 85 46        	c.li	a3, 0x1
   1658e: c1 49        	c.li	s3, 0x10
   16590: 93 8c 1b 00  	addi	s9, s7, 0x1
   16594: 63 db c6 68  	bge	a3, a2, 0x16c2a <__gdtoa+0xf7a>
   16598: 23 80 6b 00  	sb	t1, 0x0(s7)
   1659c: 56 8b        	c.mv	s6, s5
   1659e: e2 6a        	c.ldsp	s5, 0x18(sp)
   165a0: ea 85        	c.mv	a1, s10
   165a2: 22 85        	c.mv	a0, s0
   165a4: 42 e8        	c.sdsp	a6, 0x10(sp)
   165a6: ef 00 f0 30  	jal	ra, 0x170b4 <_Bfree>
   165aa: e2 77        	c.ldsp	a5, 0x38(sp)
   165ac: 42 68        	c.ldsp	a6, 0x10(sp)
   165ae: 1b 89 17 00  	addiw	s2, a5, 0x1
   165b2: e3 88 0a f2  	beq	s5, zero, 0x164e2 <__gdtoa+0x832>
   165b6: 63 09 0b 00  	beq	s6, zero, 0x165c8 <__gdtoa+0x918>
   165ba: 63 07 5b 01  	beq	s6, s5, 0x165c8 <__gdtoa+0x918>
   165be: da 85        	c.mv	a1, s6
   165c0: 22 85        	c.mv	a0, s0
   165c2: ef 00 30 2f  	jal	ra, 0x170b4 <_Bfree>
   165c6: 42 68        	c.ldsp	a6, 0x10(sp)
   165c8: d6 85        	c.mv	a1, s5
   165ca: 22 85        	c.mv	a0, s0
   165cc: 42 e8        	c.sdsp	a6, 0x10(sp)
   165ce: ef 00 70 2e  	jal	ra, 0x170b4 <_Bfree>
   165d2: 42 68        	c.ldsp	a6, 0x10(sp)
   165d4: 39 b7        	c.j	0x164e2 <__gdtoa+0x832>
   165d6: e2 85        	c.mv	a1, s8
   165d8: 22 85        	c.mv	a0, s0
   165da: 42 f8        	c.sdsp	a6, 0x30(sp)
   165dc: 72 ec        	c.sdsp	t3, 0x18(sp)
   165de: 1a e8        	c.sdsp	t1, 0x10(sp)
   165e0: ef 10 20 0a  	jal	ra, 0x17682 <__lshift>
   165e4: 2a 8c        	c.mv	s8, a0
   165e6: e3 0d 05 c4  	beq	a0, zero, 0x16240 <__gdtoa+0x590>
   165ea: ba 47        	c.lwsp	a5, 0x8c(sp)
   165ec: 42 78        	c.ldsp	a6, 0x30(sp)
   165ee: 62 6e        	c.ldsp	t3, 0x18(sp)
   165f0: 42 63        	c.ldsp	t1, 0x10(sp)
   165f2: 35 b4        	c.j	0x1601e <__gdtoa+0x36e>
   165f4: ea 85        	c.mv	a1, s10
   165f6: 62 85        	c.mv	a0, s8
   165f8: 42 ec        	c.sdsp	a6, 0x18(sp)
   165fa: 1a e8        	c.sdsp	t1, 0x10(sp)
   165fc: ef 10 e0 1a  	jal	ra, 0x177aa <__mcmp>
   16600: 42 63        	c.ldsp	t1, 0x10(sp)
   16602: 62 68        	c.ldsp	a6, 0x18(sp)
   16604: e3 54 05 a2  	bge	a0, zero, 0x1602c <__gdtoa+0x37c>
   16608: e2 77        	c.ldsp	a5, 0x38(sp)
   1660a: e2 85        	c.mv	a1, s8
   1660c: 81 46        	c.li	a3, 0x0
   1660e: fd 37        	c.addiw	a5, -0x1
   16610: 29 46        	c.li	a2, 0xa
   16612: 22 85        	c.mv	a0, s0
   16614: 3e fc        	c.sdsp	a5, 0x38(sp)
   16616: ef 00 10 2b  	jal	ra, 0x170c6 <__multadd>
   1661a: 2a 8c        	c.mv	s8, a0
   1661c: e3 02 05 c2  	beq	a0, zero, 0x16240 <__gdtoa+0x590>
   16620: 86 67        	c.ldsp	a5, 0x40(sp)
   16622: 62 68        	c.ldsp	a6, 0x18(sp)
   16624: 63 91 07 54  	bne	a5, zero, 0x16b66 <__gdtoa+0xeb6>
   16628: e6 77        	c.ldsp	a5, 0x78(sp)
   1662a: 63 5a f0 14  	bge	zero, a5, 0x1677e <__gdtoa+0xace>
   1662e: 3e f4        	c.sdsp	a5, 0x28(sp)
   16630: 22 79        	c.ldsp	s2, 0x28(sp)
   16632: c2 8b        	c.mv	s7, a6
   16634: 85 46        	c.li	a3, 0x1
   16636: c2 89        	c.mv	s3, a6
   16638: 01 a8        	c.j	0x16648 <__gdtoa+0x998>
   1663a: ef 00 d0 28  	jal	ra, 0x170c6 <__multadd>
   1663e: 2a 8c        	c.mv	s8, a0
   16640: e3 00 05 c0  	beq	a0, zero, 0x16240 <__gdtoa+0x590>
   16644: ba 46        	c.lwsp	a3, 0x8c(sp)
   16646: 85 26        	c.addiw	a3, 0x1
   16648: ea 85        	c.mv	a1, s10
   1664a: 62 85        	c.mv	a0, s8
   1664c: 36 c7        	c.swsp	a3, 0x8c(sp)
   1664e: ef 00 c0 76  	jal	ra, 0x16dba <__quorem_D2A>
   16652: 1b 03 05 03  	addiw	t1, a0, 0x30
   16656: 23 80 6b 00  	sb	t1, 0x0(s7)
   1665a: ba 47        	c.lwsp	a5, 0x8c(sp)
   1665c: 81 46        	c.li	a3, 0x0
   1665e: 29 46        	c.li	a2, 0xa
   16660: e2 85        	c.mv	a1, s8
   16662: 22 85        	c.mv	a0, s0
   16664: 85 0b        	c.addi	s7, 0x1
   16666: e3 ca 27 fd  	blt	a5, s2, 0x1663a <__gdtoa+0x98a>
   1666a: 4e 88        	c.mv	a6, s3
   1666c: 01 4b        	c.li	s6, 0x0
   1666e: 82 77        	c.ldsp	a5, 0x20(sp)
   16670: 63 87 07 2c  	beq	a5, zero, 0x1693e <__gdtoa+0xc8e>
   16674: 89 46        	c.li	a3, 0x2
   16676: 03 26 4c 01  	lw	a2, 0x14(s8)
   1667a: 63 88 d7 2e  	beq	a5, a3, 0x1696a <__gdtoa+0xcba>
   1667e: 85 46        	c.li	a3, 0x1
   16680: 63 c9 c6 20  	blt	a3, a2, 0x16892 <__gdtoa+0xbe2>
   16684: 83 26 8c 01  	lw	a3, 0x18(s8)
   16688: 63 95 06 20  	bne	a3, zero, 0x16892 <__gdtoa+0xbe2>
   1668c: b3 36 d0 00  	sltu	a3, zero, a3
   16690: 93 99 46 00  	slli	s3, a3, 0x4
   16694: 13 06 00 03  	addi	a2, zero, 0x30
   16698: 83 c7 fb ff  	lbu	a5, -0x1(s7)
   1669c: de 8c        	c.mv	s9, s7
   1669e: fd 1b        	c.addi	s7, -0x1
   166a0: e3 8c c7 fe  	beq	a5, a2, 0x16698 <__gdtoa+0x9e8>
   166a4: f5 bd        	c.j	0x165a0 <__gdtoa+0x8f0>
   166a6: 22 77        	c.ldsp	a4, 0x28(sp)
   166a8: 42 76        	c.ldsp	a2, 0x30(sp)
   166aa: 9b 06 f7 ff  	addiw	a3, a4, -0x1
   166ae: 63 41 d6 10  	blt	a2, a3, 0x167b0 <__gdtoa+0xb00>
   166b2: 3b 0d d6 40  	subw	s10, a2, a3
   166b6: 63 5b 07 46  	bge	a4, zero, 0x16b2c <__gdtoa+0xe7c>
   166ba: 62 67        	c.ldsp	a4, 0x18(sp)
   166bc: a2 76        	c.ldsp	a3, 0x28(sp)
   166be: 02 c7        	c.swsp	zero, 0x8c(sp)
   166c0: bb 0c d7 40  	subw	s9, a4, a3
   166c4: 7d b0        	c.j	0x15f72 <__gdtoa+0x2c2>
   166c6: 89 47        	c.li	a5, 0x2
   166c8: e3 d5 27 97  	bge	a5, s2, 0x16032 <__gdtoa+0x382>
   166cc: ea 85        	c.mv	a1, s10
   166ce: 81 46        	c.li	a3, 0x0
   166d0: 15 46        	c.li	a2, 0x5
   166d2: 22 85        	c.mv	a0, s0
   166d4: 42 e8        	c.sdsp	a6, 0x10(sp)
   166d6: ef 00 10 1f  	jal	ra, 0x170c6 <__multadd>
   166da: aa 85        	c.mv	a1, a0
   166dc: e3 02 05 b6  	beq	a0, zero, 0x16240 <__gdtoa+0x590>
   166e0: a2 77        	c.ldsp	a5, 0x28(sp)
   166e2: 42 68        	c.ldsp	a6, 0x10(sp)
   166e4: 63 92 07 14  	bne	a5, zero, 0x16828 <__gdtoa+0xb78>
   166e8: 2a e8        	c.sdsp	a0, 0x10(sp)
   166ea: 62 85        	c.mv	a0, s8
   166ec: 42 ec        	c.sdsp	a6, 0x18(sp)
   166ee: ef 10 c0 0b  	jal	ra, 0x177aa <__mcmp>
   166f2: e2 77        	c.ldsp	a5, 0x38(sp)
   166f4: c2 65        	c.ldsp	a1, 0x10(sp)
   166f6: 62 68        	c.ldsp	a6, 0x18(sp)
   166f8: 1b 89 27 00  	addiw	s2, a5, 0x2
   166fc: 63 56 a0 12  	bge	zero, a0, 0x16828 <__gdtoa+0xb78>
   16700: 93 07 10 03  	addi	a5, zero, 0x31
   16704: 93 0c 18 00  	addi	s9, a6, 0x1
   16708: 23 00 f8 00  	sb	a5, 0x0(a6)
   1670c: 93 09 00 02  	addi	s3, zero, 0x20
   16710: 22 85        	c.mv	a0, s0
   16712: 42 e8        	c.sdsp	a6, 0x10(sp)
   16714: ef 00 10 1a  	jal	ra, 0x170b4 <_Bfree>
   16718: 42 68        	c.ldsp	a6, 0x10(sp)
   1671a: e3 84 0a dc  	beq	s5, zero, 0x164e2 <__gdtoa+0x832>
   1671e: 6d b5        	c.j	0x165c8 <__gdtoa+0x918>
   16720: 85 48        	c.li	a7, 0x1
   16722: 85 45        	c.li	a1, 0x1
   16724: 6f f0 4f fb  	jal	zero, 0x15ed8 <__gdtoa+0x228>
   16728: aa 85        	c.mv	a1, a0
   1672a: 1a 86        	c.mv	a2, t1
   1672c: 22 85        	c.mv	a0, s0
   1672e: c2 e4        	c.sdsp	a6, 0x48(sp)
   16730: 72 f8        	c.sdsp	t3, 0x30(sp)
   16732: ef 00 70 67  	jal	ra, 0x175a8 <__pow5mult>
   16736: 2a 8d        	c.mv	s10, a0
   16738: e3 04 05 b0  	beq	a0, zero, 0x16240 <__gdtoa+0x590>
   1673c: 85 46        	c.li	a3, 0x1
   1673e: 42 7e        	c.ldsp	t3, 0x30(sp)
   16740: 26 68        	c.ldsp	a6, 0x48(sp)
   16742: 63 d3 26 1b  	bge	a3, s2, 0x168e8 <__gdtoa+0xc38>
   16746: 83 27 4d 01  	lw	a5, 0x14(s10)
   1674a: 42 f8        	c.sdsp	a6, 0x30(sp)
   1674c: 72 e8        	c.sdsp	t3, 0x10(sp)
   1674e: fd 37        	c.addiw	a5, -0x1
   16750: 91 07        	c.addi	a5, 0x4
   16752: 8a 07        	c.slli	a5, 0x2
   16754: ea 97        	c.add	a5, s10
   16756: 88 47        	c.lw	a0, 0x8(a5)
   16758: ef 00 30 34  	jal	ra, 0x1729a <__hi0bits>
   1675c: 42 78        	c.ldsp	a6, 0x30(sp)
   1675e: 42 6e        	c.ldsp	t3, 0x10(sp)
   16760: 4e 83        	c.mv	t1, s3
   16762: 6f f0 5f 8a  	jal	zero, 0x16006 <__gdtoa+0x356>
   16766: 85 46        	c.li	a3, 0x1
   16768: e3 cf 26 f3  	blt	a3, s2, 0x166a6 <__gdtoa+0x9f6>
   1676c: 62 67        	c.ldsp	a4, 0x18(sp)
   1676e: 42 7d        	c.ldsp	s10, 0x30(sp)
   16770: 3b 8e c5 01  	addw	t3, a1, t3
   16774: ba 8c        	c.mv	s9, a4
   16776: 2d 9f        	c.addw	a4, a1
   16778: 3a ec        	c.sdsp	a4, 0x18(sp)
   1677a: 6f f0 8f ff  	jal	zero, 0x15f72 <__gdtoa+0x2c2>
   1677e: 89 47        	c.li	a5, 0x2
   16780: 63 cb 27 4b  	blt	a5, s2, 0x16c36 <__gdtoa+0xf86>
   16784: e6 77        	c.ldsp	a5, 0x78(sp)
   16786: 3e f4        	c.sdsp	a5, 0x28(sp)
   16788: 65 b5        	c.j	0x16630 <__gdtoa+0x980>
   1678a: a2 77        	c.ldsp	a5, 0x28(sp)
   1678c: e3 47 f0 cc  	blt	zero, a5, 0x1645a <__gdtoa+0x7aa>
   16790: d1 eb        	c.bnez	a5, 0x16824 <__gdtoa+0xb74>
   16792: 87 b7 01 86  	fld	fa5, -0x7a0(gp)
   16796: 53 77 f7 12  	fmul.d	fa4, fa4, fa5, dyn
   1679a: d3 87 06 f2  	fmv.d.x	fa5, a3
   1679e: d3 87 e7 a2  	fle.d	a5, fa5, fa4
   167a2: c9 e3        	c.bnez	a5, 0x16824 <__gdtoa+0xb74>
   167a4: e2 77        	c.ldsp	a5, 0x38(sp)
   167a6: 81 45        	c.li	a1, 0x0
   167a8: 81 4a        	c.li	s5, 0x0
   167aa: 1b 89 27 00  	addiw	s2, a5, 0x2
   167ae: 89 bf        	c.j	0x16700 <__gdtoa+0xa50>
   167b0: 42 77        	c.ldsp	a4, 0x30(sp)
   167b2: e2 65        	c.ldsp	a1, 0x18(sp)
   167b4: 01 4d        	c.li	s10, 0x0
   167b6: 3b 86 e6 40  	subw	a2, a3, a4
   167ba: 22 77        	c.ldsp	a4, 0x28(sp)
   167bc: ae 8c        	c.mv	s9, a1
   167be: 3b 03 66 00  	addw	t1, a2, t1
   167c2: 3a c7        	c.swsp	a4, 0x8c(sp)
   167c4: 3b 0e c7 01  	addw	t3, a4, t3
   167c8: 2d 9f        	c.addw	a4, a1
   167ca: 3a ec        	c.sdsp	a4, 0x18(sp)
   167cc: 36 f8        	c.sdsp	a3, 0x30(sp)
   167ce: 6f f0 4f fa  	jal	zero, 0x15f72 <__gdtoa+0x2c2>
   167d2: 87 b7 81 85  	fld	fa5, -0x7a8(gp)
   167d6: 07 b7 01 85  	fld	fa4, -0x7b0(gp)
   167da: d3 86 0e f2  	fmv.d.x	fa3, t4
   167de: b7 06 c0 fc  	lui	a3, 0xfcc00
   167e2: 7d 5f        	c.li	t5, -0x1
   167e4: c3 f7 f6 72  	fmadd.d	fa5, fa3, fa5, fa4, dyn
   167e8: 13 5f 0f 02  	srli	t5, t5, 0x20
   167ec: d3 85 07 e2  	fmv.x.d	a1, fa5
   167f0: 13 d5 05 02  	srli	a0, a1, 0x20
   167f4: a9 9e        	c.addw	a3, a0
   167f6: 82 16        	c.slli	a3, 0x20
   167f8: 33 7f bf 00  	and	t5, t5, a1
   167fc: 33 6f df 00  	or	t5, t5, a3
   16800: 87 b7 01 86  	fld	fa5, -0x7a0(gp)
   16804: 53 87 0e f2  	fmv.d.x	fa4, t4
   16808: d3 77 f7 0a  	fsub.d	fa5, fa4, fa5, dyn
   1680c: 53 07 0f f2  	fmv.d.x	fa4, t5
   16810: d3 16 f7 a2  	flt.d	a3, fa4, fa5
   16814: 63 98 06 30  	bne	a3, zero, 0x16b24 <__gdtoa+0xe74>
   16818: 53 17 e7 22  	fsgnjn.d	fa4, fa4, fa4
   1681c: d3 96 e7 a2  	flt.d	a3, fa5, fa4
   16820: 63 8a 06 2e  	beq	a3, zero, 0x16b14 <__gdtoa+0xe64>
   16824: 81 45        	c.li	a1, 0x0
   16826: 81 4a        	c.li	s5, 0x0
   16828: 3b 09 70 41  	subw	s2, zero, s7
   1682c: c2 8c        	c.mv	s9, a6
   1682e: c1 49        	c.li	s3, 0x10
   16830: c5 b5        	c.j	0x16710 <__gdtoa+0xa60>
   16832: d6 85        	c.mv	a1, s5
   16834: 6a 86        	c.mv	a2, s10
   16836: 22 85        	c.mv	a0, s0
   16838: c2 f0        	c.sdsp	a6, 0x60(sp)
   1683a: be ec        	c.sdsp	a5, 0x58(sp)
   1683c: f2 e8        	c.sdsp	t3, 0x50(sp)
   1683e: 9a e4        	c.sdsp	t1, 0x48(sp)
   16840: ef 00 90 56  	jal	ra, 0x175a8 <__pow5mult>
   16844: aa 8a        	c.mv	s5, a0
   16846: e3 0d 05 9e  	beq	a0, zero, 0x16240 <__gdtoa+0x590>
   1684a: aa 85        	c.mv	a1, a0
   1684c: 62 86        	c.mv	a2, s8
   1684e: 22 85        	c.mv	a0, s0
   16850: ef 00 d0 3a  	jal	ra, 0x173fc <__multiply>
   16854: aa f4        	c.sdsp	a0, 0x68(sp)
   16856: e3 05 05 9e  	beq	a0, zero, 0x16240 <__gdtoa+0x590>
   1685a: e2 85        	c.mv	a1, s8
   1685c: 22 85        	c.mv	a0, s0
   1685e: ef 00 70 05  	jal	ra, 0x170b4 <_Bfree>
   16862: c2 77        	c.ldsp	a5, 0x30(sp)
   16864: a6 76        	c.ldsp	a3, 0x68(sp)
   16866: 26 63        	c.ldsp	t1, 0x48(sp)
   16868: 3b 87 a7 41  	subw	a4, a5, s10
   1686c: 3a f8        	c.sdsp	a4, 0x30(sp)
   1686e: 46 6e        	c.ldsp	t3, 0x50(sp)
   16870: e6 67        	c.ldsp	a5, 0x58(sp)
   16872: 06 78        	c.ldsp	a6, 0x60(sp)
   16874: 36 8c        	c.mv	s8, a3
   16876: 63 03 07 f6  	beq	a4, zero, 0x15fdc <__gdtoa+0x32c>
   1687a: 6f f0 2f f4  	jal	zero, 0x15fbc <__gdtoa+0x30c>
   1687e: 56 8b        	c.mv	s6, s5
   16880: e2 6a        	c.ldsp	s5, 0x18(sp)
   16882: de 86        	c.mv	a3, s7
   16884: 93 8c 1b 00  	addi	s9, s7, 0x1
   16888: 13 06 90 03  	addi	a2, zero, 0x39
   1688c: e6 8b        	c.mv	s7, s9
   1688e: 23 80 c6 00  	sb	a2, 0x0(a3)
   16892: 13 06 90 03  	addi	a2, zero, 0x39
   16896: 19 a0        	c.j	0x1689c <__gdtoa+0xbec>
   16898: 63 02 78 0f  	beq	a6, s7, 0x1697c <__gdtoa+0xccc>
   1689c: 83 c6 fb ff  	lbu	a3, -0x1(s7)
   168a0: de 8c        	c.mv	s9, s7
   168a2: fd 1b        	c.addi	s7, -0x1
   168a4: e3 8a c6 fe  	beq	a3, a2, 0x16898 <__gdtoa+0xbe8>
   168a8: 85 26        	c.addiw	a3, 0x1
   168aa: 23 80 db 00  	sb	a3, 0x0(s7)
   168ae: 93 09 00 02  	addi	s3, zero, 0x20
   168b2: fd b1        	c.j	0x165a0 <__gdtoa+0x8f0>
   168b4: d6 85        	c.mv	a1, s5
   168b6: 22 85        	c.mv	a0, s0
   168b8: 42 ec        	c.sdsp	a6, 0x18(sp)
   168ba: 1a e8        	c.sdsp	t1, 0x10(sp)
   168bc: ef 00 70 5c  	jal	ra, 0x17682 <__lshift>
   168c0: 42 63        	c.ldsp	t1, 0x10(sp)
   168c2: 62 68        	c.ldsp	a6, 0x18(sp)
   168c4: aa 8a        	c.mv	s5, a0
   168c6: 63 1d 05 f6  	bne	a0, zero, 0x16040 <__gdtoa+0x390>
   168ca: 9d ba        	c.j	0x16240 <__gdtoa+0x590>
   168cc: 05 47        	c.li	a4, 0x1
   168ce: 81 4a        	c.li	s5, 0x0
   168d0: ba e0        	c.sdsp	a4, 0x40(sp)
   168d2: 6f f0 0f df  	jal	zero, 0x15ec2 <__gdtoa+0x212>
   168d6: 05 47        	c.li	a4, 0x1
   168d8: ba e0        	c.sdsp	a4, 0x40(sp)
   168da: 6f f0 8f de  	jal	zero, 0x15ec2 <__gdtoa+0x212>
   168de: 05 47        	c.li	a4, 0x1
   168e0: ba e0        	c.sdsp	a4, 0x40(sp)
   168e2: bd b1        	c.j	0x16550 <__gdtoa+0x8a0>
   168e4: 82 e0        	c.sdsp	zero, 0x40(sp)
   168e6: ad b1        	c.j	0x16550 <__gdtoa+0x8a0>
   168e8: c6 67        	c.ldsp	a5, 0x50(sp)
   168ea: e3 9e d7 e4  	bne	a5, a3, 0x16746 <__gdtoa+0xa96>
   168ee: 83 27 4b 00  	lw	a5, 0x4(s6)
   168f2: 42 67        	c.ldsp	a4, 0x10(sp)
   168f4: 85 27        	c.addiw	a5, 0x1
   168f6: e3 d8 e7 e4  	bge	a5, a4, 0x16746 <__gdtoa+0xa96>
   168fa: e2 67        	c.ldsp	a5, 0x18(sp)
   168fc: 05 2e        	c.addiw	t3, 0x1
   168fe: 85 49        	c.li	s3, 0x1
   16900: 85 27        	c.addiw	a5, 0x1
   16902: 3e ec        	c.sdsp	a5, 0x18(sp)
   16904: 89 b5        	c.j	0x16746 <__gdtoa+0xa96>
   16906: 83 a5 8a 00  	lw	a1, 0x8(s5)
   1690a: 22 85        	c.mv	a0, s0
   1690c: 42 e8        	c.sdsp	a6, 0x10(sp)
   1690e: ef 00 20 74  	jal	ra, 0x17050 <_Balloc>
   16912: aa 89        	c.mv	s3, a0
   16914: e3 06 05 92  	beq	a0, zero, 0x16240 <__gdtoa+0x590>
   16918: 03 a6 4a 01  	lw	a2, 0x14(s5)
   1691c: 93 85 0a 01  	addi	a1, s5, 0x10
   16920: 41 05        	c.addi	a0, 0x10
   16922: 09 06        	c.addi	a2, 0x2
   16924: 0a 06        	c.slli	a2, 0x2
   16926: ef e0 5f ec  	jal	ra, 0x157ea <memcpy>
   1692a: 05 46        	c.li	a2, 0x1
   1692c: ce 85        	c.mv	a1, s3
   1692e: 22 85        	c.mv	a0, s0
   16930: ef 00 30 55  	jal	ra, 0x17682 <__lshift>
   16934: 2a ec        	c.sdsp	a0, 0x18(sp)
   16936: 42 68        	c.ldsp	a6, 0x10(sp)
   16938: 63 17 05 f0  	bne	a0, zero, 0x16046 <__gdtoa+0x396>
   1693c: 11 b2        	c.j	0x16240 <__gdtoa+0x590>
   1693e: e2 85        	c.mv	a1, s8
   16940: 05 46        	c.li	a2, 0x1
   16942: 22 85        	c.mv	a0, s0
   16944: 42 e8        	c.sdsp	a6, 0x10(sp)
   16946: 1a ec        	c.sdsp	t1, 0x18(sp)
   16948: ef 00 b0 53  	jal	ra, 0x17682 <__lshift>
   1694c: 2a 8c        	c.mv	s8, a0
   1694e: e3 09 05 8e  	beq	a0, zero, 0x16240 <__gdtoa+0x590>
   16952: ea 85        	c.mv	a1, s10
   16954: ef 00 70 65  	jal	ra, 0x177aa <__mcmp>
   16958: 42 68        	c.ldsp	a6, 0x10(sp)
   1695a: e3 4c a0 f2  	blt	zero, a0, 0x16892 <__gdtoa+0xbe2>
   1695e: 11 e5        	c.bnez	a0, 0x1696a <__gdtoa+0xcba>
   16960: 62 63        	c.ldsp	t1, 0x18(sp)
   16962: 13 73 13 00  	andi	t1, t1, 0x1
   16966: e3 16 03 f2  	bne	t1, zero, 0x16892 <__gdtoa+0xbe2>
   1696a: 03 26 4c 01  	lw	a2, 0x14(s8)
   1696e: 85 46        	c.li	a3, 0x1
   16970: c1 49        	c.li	s3, 0x10
   16972: e3 c1 c6 d2  	blt	a3, a2, 0x16694 <__gdtoa+0x9e4>
   16976: 83 26 8c 01  	lw	a3, 0x18(s8)
   1697a: 09 bb        	c.j	0x1668c <__gdtoa+0x9dc>
   1697c: e2 77        	c.ldsp	a5, 0x38(sp)
   1697e: 93 09 00 02  	addi	s3, zero, 0x20
   16982: 85 27        	c.addiw	a5, 0x1
   16984: 3e fc        	c.sdsp	a5, 0x38(sp)
   16986: 93 07 10 03  	addi	a5, zero, 0x31
   1698a: 23 00 f8 00  	sb	a5, 0x0(a6)
   1698e: 09 b9        	c.j	0x165a0 <__gdtoa+0x8f0>
   16990: 82 77        	c.ldsp	a5, 0x20(sp)
   16992: 26 ec        	c.sdsp	s1, 0x18(sp)
   16994: 52 83        	c.mv	t1, s4
   16996: 42 78        	c.ldsp	a6, 0x30(sp)
   16998: 22 7a        	c.ldsp	s4, 0x28(sp)
   1699a: 86 64        	c.ldsp	s1, 0x40(sp)
   1699c: 91 cb        	c.beqz	a5, 0x169b0 <__gdtoa+0xd00>
   1699e: 03 26 4c 01  	lw	a2, 0x14(s8)
   169a2: 85 46        	c.li	a3, 0x1
   169a4: 63 cf c6 f8  	blt	a3, a2, 0x16142 <__gdtoa+0x492>
   169a8: 83 26 8c 01  	lw	a3, 0x18(s8)
   169ac: 63 9b 06 f8  	bne	a3, zero, 0x16142 <__gdtoa+0x492>
   169b0: e2 85        	c.mv	a1, s8
   169b2: 05 46        	c.li	a2, 0x1
   169b4: 22 85        	c.mv	a0, s0
   169b6: 42 f0        	c.sdsp	a6, 0x20(sp)
   169b8: 1a e8        	c.sdsp	t1, 0x10(sp)
   169ba: ef 00 90 4c  	jal	ra, 0x17682 <__lshift>
   169be: 2a 8c        	c.mv	s8, a0
   169c0: e3 00 05 88  	beq	a0, zero, 0x16240 <__gdtoa+0x590>
   169c4: ea 85        	c.mv	a1, s10
   169c6: ef 00 50 5e  	jal	ra, 0x177aa <__mcmp>
   169ca: 42 63        	c.ldsp	t1, 0x10(sp)
   169cc: 02 78        	c.ldsp	a6, 0x20(sp)
   169ce: 63 57 a0 26  	bge	zero, a0, 0x16c3c <__gdtoa+0xf8c>
   169d2: 93 06 90 03  	addi	a3, zero, 0x39
   169d6: e3 04 d3 ea  	beq	t1, a3, 0x1687e <__gdtoa+0xbce>
   169da: 93 07 00 02  	addi	a5, zero, 0x20
   169de: 1b 83 1c 03  	addiw	t1, s9, 0x31
   169e2: 3e f0        	c.sdsp	a5, 0x20(sp)
   169e4: 55 b6        	c.j	0x16588 <__gdtoa+0x8d8>
   169e6: d3 f7 f7 02  	fadd.d	fa5, fa5, fa5, dyn
   169ea: 83 c6 fc ff  	lbu	a3, -0x1(s9)
   169ee: 53 16 f7 a2  	flt.d	a2, fa4, fa5
   169f2: e3 12 06 9e  	bne	a2, zero, 0x163d6 <__gdtoa+0x726>
   169f6: 53 a6 e7 a2  	feq.d	a2, fa5, fa4
   169fa: 01 c6        	c.beqz	a2, 0x16a02 <__gdtoa+0xd52>
   169fc: 85 8b        	c.andi	a5, 0x1
   169fe: e3 9c 07 9c  	bne	a5, zero, 0x163d6 <__gdtoa+0x726>
   16a02: e6 87        	c.mv	a5, s9
   16a04: c1 49        	c.li	s3, 0x10
   16a06: 13 06 00 03  	addi	a2, zero, 0x30
   16a0a: 03 c7 f7 ff  	lbu	a4, -0x1(a5)
   16a0e: be 8c        	c.mv	s9, a5
   16a10: fd 17        	c.addi	a5, -0x1
   16a12: e3 0c c7 fe  	beq	a4, a2, 0x16a0a <__gdtoa+0xd5a>
   16a16: 1b 89 05 00  	addiw	s2, a1, 0x0
   16a1a: e1 b4        	c.j	0x164e2 <__gdtoa+0x832>
   16a1c: 93 06 10 03  	addi	a3, zero, 0x31
   16a20: 85 25        	c.addiw	a1, 0x1
   16a22: c9 ba        	c.j	0x163f4 <__gdtoa+0x744>
   16a24: 53 07 0f f2  	fmv.d.x	fa4, t5
   16a28: d3 85 06 f2  	fmv.d.x	fa1, a3
   16a2c: c2 8c        	c.mv	s9, a6
   16a2e: 53 f6 e7 12  	fmul.d	fa2, fa5, fa4, dyn
   16a32: d3 87 06 f2  	fmv.d.x	fa5, a3
   16a36: 07 b7 01 84  	fld	fa4, -0x7c0(gp)
   16a3a: 85 46        	c.li	a3, 0x1
   16a3c: 36 c7        	c.swsp	a3, 0x8c(sp)
   16a3e: 01 4f        	c.li	t5, 0x0
   16a40: 29 a0        	c.j	0x16a4a <__gdtoa+0xd9a>
   16a42: d3 f7 e7 12  	fmul.d	fa5, fa5, fa4, dyn
   16a46: 2a c7        	c.swsp	a0, 0x8c(sp)
   16a48: 05 4f        	c.li	t5, 0x1
   16a4a: 53 97 07 c2  	fcvt.w.d	a4, fa5, rtz
   16a4e: 85 0c        	c.addi	s9, 0x1
   16a50: 9b 06 07 03  	addiw	a3, a4, 0x30
   16a54: 1b 05 07 00  	addiw	a0, a4, 0x0
   16a58: 93 f6 f6 0f  	andi	a3, a3, 0xff
   16a5c: 11 c5        	c.beqz	a0, 0x16a68 <__gdtoa+0xdb8>
   16a5e: d3 06 07 d2  	fcvt.d.w	fa3, a4
   16a62: 05 4f        	c.li	t5, 0x1
   16a64: d3 f7 d7 0a  	fsub.d	fa5, fa5, fa3, dyn
   16a68: a3 8f dc fe  	sb	a3, -0x1(s9)
   16a6c: 3a 47        	c.lwsp	a4, 0x8c(sp)
   16a6e: 1b 05 17 00  	addiw	a0, a4, 0x1
   16a72: e3 18 f7 fd  	bne	a4, t6, 0x16a42 <__gdtoa+0xd92>
   16a76: 63 04 0f 00  	beq	t5, zero, 0x16a7e <__gdtoa+0xdce>
   16a7a: d3 85 f7 22  	fsgnj.d	fa1, fa5, fa5
   16a7e: 87 b7 81 86  	fld	fa5, -0x798(gp)
   16a82: 53 77 f6 02  	fadd.d	fa4, fa2, fa5, dyn
   16a86: 53 15 b7 a2  	flt.d	a0, fa4, fa1
   16a8a: 63 16 05 10  	bne	a0, zero, 0x16b96 <__gdtoa+0xee6>
   16a8e: d3 f7 c7 0a  	fsub.d	fa5, fa5, fa2, dyn
   16a92: d3 96 f5 a2  	flt.d	a3, fa1, fa5
   16a96: 63 9f 06 16  	bne	a3, zero, 0x16c14 <__gdtoa+0xf64>
   16a9a: f6 86        	c.mv	a3, t4
   16a9c: 63 49 06 1a  	blt	a2, zero, 0x16c4e <__gdtoa+0xf9e>
   16aa0: 02 f0        	c.sdsp	zero, 0x20(sp)
   16aa2: 98 21        	c.fld	fa4, 0x0(a1)
   16aa4: e3 db 0b 9a  	bge	s7, zero, 0x1645a <__gdtoa+0x7aa>
   16aa8: a2 77        	c.ldsp	a5, 0x28(sp)
   16aaa: e3 98 07 9a  	bne	a5, zero, 0x1645a <__gdtoa+0x7aa>
   16aae: d5 b1        	c.j	0x16792 <__gdtoa+0xae2>
   16ab0: a6 87        	c.mv	a5, s1
   16ab2: 52 83        	c.mv	t1, s4
   16ab4: 56 8b        	c.mv	s6, s5
   16ab6: 42 78        	c.ldsp	a6, 0x30(sp)
   16ab8: 22 7a        	c.ldsp	s4, 0x28(sp)
   16aba: 86 64        	c.ldsp	s1, 0x40(sp)
   16abc: be 8a        	c.mv	s5, a5
   16abe: 45 be        	c.j	0x1666e <__gdtoa+0x9be>
   16ac0: e3 09 07 d0  	beq	a4, zero, 0x167d2 <__gdtoa+0xb22>
   16ac4: e6 7f        	c.ldsp	t6, 0x78(sp)
   16ac6: 63 57 f0 05  	bge	zero, t6, 0x16b14 <__gdtoa+0xe64>
   16aca: 87 b7 01 84  	fld	fa5, -0x7c0(gp)
   16ace: b7 05 c0 fc  	lui	a1, 0xfcc00
   16ad2: d3 77 f7 12  	fmul.d	fa5, fa4, fa5, dyn
   16ad6: 07 b7 81 84  	fld	fa4, -0x7b8(gp)
   16ada: fd 53        	c.li	t2, -0x1
   16adc: 53 85 07 e2  	fmv.x.d	a0, fa5
   16ae0: 87 b7 01 85  	fld	fa5, -0x7b0(gp)
   16ae4: d3 06 05 f2  	fmv.d.x	fa3, a0
   16ae8: aa 86        	c.mv	a3, a0
   16aea: c3 f7 e6 7a  	fmadd.d	fa5, fa3, fa4, fa5, dyn
   16aee: d3 8a 07 e2  	fmv.x.d	s5, fa5
   16af2: 13 df 0a 02  	srli	t5, s5, 0x20
   16af6: bb 85 e5 01  	addw	a1, a1, t5
   16afa: 7d 5f        	c.li	t5, -0x1
   16afc: 13 5f 0f 02  	srli	t5, t5, 0x20
   16b00: 82 15        	c.slli	a1, 0x20
   16b02: 33 7f 5f 01  	and	t5, t5, s5
   16b06: 33 6f bf 00  	or	t5, t5, a1
   16b0a: 6f f0 ff 82  	jal	zero, 0x16338 <__gdtoa+0x688>
   16b0e: 83 c6 fc ff  	lbu	a3, -0x1(s9)
   16b12: d1 b0        	c.j	0x163d6 <__gdtoa+0x726>
   16b14: f6 86        	c.mv	a3, t4
   16b16: 63 4e 06 08  	blt	a2, zero, 0x16bb2 <__gdtoa+0xf02>
   16b1a: b7 05 02 00  	lui	a1, 0x20
   16b1e: 93 85 85 22  	addi	a1, a1, 0x228
   16b22: bd bf        	c.j	0x16aa0 <__gdtoa+0xdf0>
   16b24: 09 49        	c.li	s2, 0x2
   16b26: 81 45        	c.li	a1, 0x0
   16b28: 81 4a        	c.li	s5, 0x0
   16b2a: d9 be        	c.j	0x16700 <__gdtoa+0xa50>
   16b2c: e2 66        	c.ldsp	a3, 0x18(sp)
   16b2e: 3a c7        	c.swsp	a4, 0x8c(sp)
   16b30: 3b 0e c7 01  	addw	t3, a4, t3
   16b34: 35 9f        	c.addw	a4, a3
   16b36: b6 8c        	c.mv	s9, a3
   16b38: 3a ec        	c.sdsp	a4, 0x18(sp)
   16b3a: 6f f0 8f c3  	jal	zero, 0x15f72 <__gdtoa+0x2c2>
   16b3e: 52 83        	c.mv	t1, s4
   16b40: 26 ec        	c.sdsp	s1, 0x18(sp)
   16b42: 93 06 90 03  	addi	a3, zero, 0x39
   16b46: 42 78        	c.ldsp	a6, 0x30(sp)
   16b48: 22 7a        	c.ldsp	s4, 0x28(sp)
   16b4a: 86 64        	c.ldsp	s1, 0x40(sp)
   16b4c: e3 09 d3 d2  	beq	t1, a3, 0x1687e <__gdtoa+0xbce>
   16b50: 9b 87 19 00  	addiw	a5, s3, 0x1
   16b54: 56 8b        	c.mv	s6, s5
   16b56: 93 8c 1b 00  	addi	s9, s7, 0x1
   16b5a: e2 6a        	c.ldsp	s5, 0x18(sp)
   16b5c: 23 80 fb 00  	sb	a5, 0x0(s7)
   16b60: 93 09 00 02  	addi	s3, zero, 0x20
   16b64: 35 bc        	c.j	0x165a0 <__gdtoa+0x8f0>
   16b66: d6 85        	c.mv	a1, s5
   16b68: 81 46        	c.li	a3, 0x0
   16b6a: 29 46        	c.li	a2, 0xa
   16b6c: 22 85        	c.mv	a0, s0
   16b6e: ef 00 80 55  	jal	ra, 0x170c6 <__multadd>
   16b72: aa 8a        	c.mv	s5, a0
   16b74: 63 06 05 ec  	beq	a0, zero, 0x16240 <__gdtoa+0x590>
   16b78: e6 77        	c.ldsp	a5, 0x78(sp)
   16b7a: 42 63        	c.ldsp	t1, 0x10(sp)
   16b7c: 62 68        	c.ldsp	a6, 0x18(sp)
   16b7e: 63 55 f0 00  	bge	zero, a5, 0x16b88 <__gdtoa+0xed8>
   16b82: 3e f4        	c.sdsp	a5, 0x28(sp)
   16b84: 6f f0 4f cb  	jal	zero, 0x16038 <__gdtoa+0x388>
   16b88: 89 47        	c.li	a5, 0x2
   16b8a: 63 c6 27 0b  	blt	a5, s2, 0x16c36 <__gdtoa+0xf86>
   16b8e: e6 77        	c.ldsp	a5, 0x78(sp)
   16b90: 3e f4        	c.sdsp	a5, 0x28(sp)
   16b92: 6f f0 6f ca  	jal	zero, 0x16038 <__gdtoa+0x388>
   16b96: 9b 85 13 00  	addiw	a1, t2, 0x1
   16b9a: 6f f0 df 83  	jal	zero, 0x163d6 <__gdtoa+0x726>
   16b9e: 53 07 00 f2  	fmv.d.x	fa4, zero
   16ba2: 13 89 13 00  	addi	s2, t2, 0x1
   16ba6: d3 a9 e7 a2  	feq.d	s3, fa5, fa4
   16baa: 93 b9 19 00  	sltiu	s3, s3, 0x1
   16bae: 92 09        	c.slli	s3, 0x4
   16bb0: 0d ba        	c.j	0x164e2 <__gdtoa+0x832>
   16bb2: 02 f0        	c.sdsp	zero, 0x20(sp)
   16bb4: 6f f0 af b6  	jal	zero, 0x15f1e <__gdtoa+0x26e>
   16bb8: f6 86        	c.mv	a3, t4
   16bba: e3 53 06 ee  	bge	a2, zero, 0x16aa0 <__gdtoa+0xdf0>
   16bbe: 02 f0        	c.sdsp	zero, 0x20(sp)
   16bc0: 6f f0 4f b6  	jal	zero, 0x15f24 <__gdtoa+0x274>
   16bc4: 22 77        	c.ldsp	a4, 0x28(sp)
   16bc6: 42 76        	c.ldsp	a2, 0x30(sp)
   16bc8: 9b 06 f7 ff  	addiw	a3, a4, -0x1
   16bcc: 36 8d        	c.mv	s10, a3
   16bce: e3 41 d6 be  	blt	a2, a3, 0x167b0 <__gdtoa+0xb00>
   16bd2: e2 66        	c.ldsp	a3, 0x18(sp)
   16bd4: 3b 0e c7 01  	addw	t3, a4, t3
   16bd8: 3a c7        	c.swsp	a4, 0x8c(sp)
   16bda: 35 9f        	c.addw	a4, a3
   16bdc: b6 8c        	c.mv	s9, a3
   16bde: 3b 0d a6 41  	subw	s10, a2, s10
   16be2: 3a ec        	c.sdsp	a4, 0x18(sp)
   16be4: 6f f0 ef b8  	jal	zero, 0x15f72 <__gdtoa+0x2c2>
   16be8: 26 ec        	c.sdsp	s1, 0x18(sp)
   16bea: 93 06 90 03  	addi	a3, zero, 0x39
   16bee: 52 83        	c.mv	t1, s4
   16bf0: 42 78        	c.ldsp	a6, 0x30(sp)
   16bf2: 22 7a        	c.ldsp	s4, 0x28(sp)
   16bf4: 86 64        	c.ldsp	s1, 0x40(sp)
   16bf6: e3 84 d9 c8  	beq	s3, a3, 0x1687e <__gdtoa+0xbce>
   16bfa: 63 5f 60 09  	bge	zero, s6, 0x16c98 <__gdtoa+0xfe8>
   16bfe: 1b 83 1c 03  	addiw	t1, s9, 0x31
   16c02: 93 09 00 02  	addi	s3, zero, 0x20
   16c06: 23 80 6b 00  	sb	t1, 0x0(s7)
   16c0a: 56 8b        	c.mv	s6, s5
   16c0c: 93 8c 1b 00  	addi	s9, s7, 0x1
   16c10: e2 6a        	c.ldsp	s5, 0x18(sp)
   16c12: 79 b2        	c.j	0x165a0 <__gdtoa+0x8f0>
   16c14: d3 07 00 f2  	fmv.d.x	fa5, zero
   16c18: e6 87        	c.mv	a5, s9
   16c1a: 9b 85 13 00  	addiw	a1, t2, 0x1
   16c1e: d3 a9 f5 a2  	feq.d	s3, fa1, fa5
   16c22: 93 b9 19 00  	sltiu	s3, s3, 0x1
   16c26: 92 09        	c.slli	s3, 0x4
   16c28: f9 bb        	c.j	0x16a06 <__gdtoa+0xd56>
   16c2a: 83 26 8c 01  	lw	a3, 0x18(s8)
   16c2e: e3 95 06 96  	bne	a3, zero, 0x16598 <__gdtoa+0x8e8>
   16c32: 82 79        	c.ldsp	s3, 0x20(sp)
   16c34: 95 b2        	c.j	0x16598 <__gdtoa+0x8e8>
   16c36: e6 77        	c.ldsp	a5, 0x78(sp)
   16c38: 3e f4        	c.sdsp	a5, 0x28(sp)
   16c3a: 49 bc        	c.j	0x166cc <__gdtoa+0xa1c>
   16c3c: 09 e5        	c.bnez	a0, 0x16c46 <__gdtoa+0xf96>
   16c3e: 93 76 13 00  	andi	a3, t1, 0x1
   16c42: e3 98 06 d8  	bne	a3, zero, 0x169d2 <__gdtoa+0xd22>
   16c46: 93 07 00 02  	addi	a5, zero, 0x20
   16c4a: 3e f0        	c.sdsp	a5, 0x20(sp)
   16c4c: 35 ba        	c.j	0x16588 <__gdtoa+0x8d8>
   16c4e: 42 7d        	c.ldsp	s10, 0x30(sp)
   16c50: e2 6c        	c.ldsp	s9, 0x18(sp)
   16c52: 02 f0        	c.sdsp	zero, 0x20(sp)
   16c54: 81 4a        	c.li	s5, 0x0
   16c56: 6f f0 af b3  	jal	zero, 0x15f90 <__gdtoa+0x2e0>
   16c5a: 5a ec        	c.sdsp	s6, 0x18(sp)
   16c5c: 93 06 90 03  	addi	a3, zero, 0x39
   16c60: 6e 88        	c.mv	a6, s11
   16c62: 63 8b d9 00  	beq	s3, a3, 0x16c78 <__gdtoa+0xfc8>
   16c66: 1b 83 19 00  	addiw	t1, s3, 0x1
   16c6a: 93 09 00 02  	addi	s3, zero, 0x20
   16c6e: 2d b2        	c.j	0x16598 <__gdtoa+0x8e8>
   16c70: c1 49        	c.li	s3, 0x10
   16c72: 93 8c 1b 00  	addi	s9, s7, 0x1
   16c76: 0d b2        	c.j	0x16598 <__gdtoa+0x8e8>
   16c78: 56 8b        	c.mv	s6, s5
   16c7a: de 86        	c.mv	a3, s7
   16c7c: e2 6a        	c.ldsp	s5, 0x18(sp)
   16c7e: 29 b1        	c.j	0x16888 <__gdtoa+0xbd8>
   16c80: 03 26 4c 01  	lw	a2, 0x14(s8)
   16c84: 85 46        	c.li	a3, 0x1
   16c86: 63 ce c6 ca  	blt	a3, a2, 0x16142 <__gdtoa+0x492>
   16c8a: 83 26 8c 01  	lw	a3, 0x18(s8)
   16c8e: 63 9a 06 ca  	bne	a3, zero, 0x16142 <__gdtoa+0x492>
   16c92: 93 8c 1b 00  	addi	s9, s7, 0x1
   16c96: 09 b2        	c.j	0x16598 <__gdtoa+0x8e8>
   16c98: 03 26 4c 01  	lw	a2, 0x14(s8)
   16c9c: 85 46        	c.li	a3, 0x1
   16c9e: c1 49        	c.li	s3, 0x10
   16ca0: e3 c3 c6 f6  	blt	a3, a2, 0x16c06 <__gdtoa+0xf56>
   16ca4: 83 29 8c 01  	lw	s3, 0x18(s8)
   16ca8: b3 39 30 01  	sltu	s3, zero, s3
   16cac: 92 09        	c.slli	s3, 0x4
   16cae: a1 bf        	c.j	0x16c06 <__gdtoa+0xf56>
   16cb0: 63 4e 0b 00  	blt	s6, zero, 0x16ccc <__gdtoa+0x101c>
   16cb4: b3 67 69 01  	or	a5, s2, s6
   16cb8: 81 27        	c.addiw	a5, 0x0
   16cba: 89 e7        	c.bnez	a5, 0x16cc4 <__gdtoa+0x1014>
   16cbc: c2 67        	c.ldsp	a5, 0x10(sp)
   16cbe: 9c 43        	c.lw	a5, 0x0(a5)
   16cc0: 85 8b        	c.andi	a5, 0x1
   16cc2: 89 c7        	c.beqz	a5, 0x16ccc <__gdtoa+0x101c>
   16cc4: 63 5d d0 ba  	bge	zero, a3, 0x1607e <__gdtoa+0x3ce>
   16cc8: 6f f0 ef ba  	jal	zero, 0x16076 <__gdtoa+0x3c6>
   16ccc: 82 77        	c.ldsp	a5, 0x20(sp)
   16cce: 26 ec        	c.sdsp	s1, 0x18(sp)
   16cd0: 52 83        	c.mv	t1, s4
   16cd2: 42 78        	c.ldsp	a6, 0x30(sp)
   16cd4: 22 7a        	c.ldsp	s4, 0x28(sp)
   16cd6: 86 64        	c.ldsp	s1, 0x40(sp)
   16cd8: 85 c3        	c.beqz	a5, 0x16cf8 <__gdtoa+0x1048>
   16cda: 83 25 4c 01  	lw	a1, 0x14(s8)
   16cde: 05 46        	c.li	a2, 0x1
   16ce0: 63 41 b6 c6  	blt	a2, a1, 0x16142 <__gdtoa+0x492>
   16ce4: 03 26 8c 01  	lw	a2, 0x18(s8)
   16ce8: 63 1d 06 c4  	bne	a2, zero, 0x16142 <__gdtoa+0x492>
   16cec: e3 42 d0 cc  	blt	zero, a3, 0x169b0 <__gdtoa+0xd00>
   16cf0: 81 49        	c.li	s3, 0x0
   16cf2: 93 8c 1b 00  	addi	s9, s7, 0x1
   16cf6: 4d b0        	c.j	0x16598 <__gdtoa+0x8e8>
   16cf8: e3 58 d0 88  	bge	zero, a3, 0x16588 <__gdtoa+0x8d8>
   16cfc: 55 b9        	c.j	0x169b0 <__gdtoa+0xd00>

0000000000016cfe <__rv_alloc_D2A>:
   16cfe: 41 11        	c.addi	sp, -0x10
   16d00: 22 e0        	c.sdsp	s0, 0x0(sp)
   16d02: 06 e4        	c.sdsp	ra, 0x8(sp)
   16d04: ed 47        	c.li	a5, 0x1b
   16d06: 01 44        	c.li	s0, 0x0
   16d08: 63 fa b7 00  	bgeu	a5, a1, 0x16d1c <__rv_alloc_D2A+0x1e>
   16d0c: 91 47        	c.li	a5, 0x4
   16d0e: 9b 97 17 00  	slliw	a5, a5, 0x1
   16d12: 13 87 87 01  	addi	a4, a5, 0x18
   16d16: 05 24        	c.addiw	s0, 0x1
   16d18: e3 fb e5 fe  	bgeu	a1, a4, 0x16d0e <__rv_alloc_D2A+0x10>
   16d1c: a2 85        	c.mv	a1, s0
   16d1e: ef 00 20 33  	jal	ra, 0x17050 <_Balloc>
   16d22: 19 c1        	c.beqz	a0, 0x16d28 <__rv_alloc_D2A+0x2a>
   16d24: 00 c1        	c.sw	s0, 0x0(a0)
   16d26: 11 05        	c.addi	a0, 0x4
   16d28: a2 60        	c.ldsp	ra, 0x8(sp)
   16d2a: 02 64        	c.ldsp	s0, 0x0(sp)
   16d2c: 41 01        	c.addi	sp, 0x10
   16d2e: 82 80        	c.jr	ra

0000000000016d30 <__nrv_alloc_D2A>:
   16d30: 01 11        	c.addi	sp, -0x20
   16d32: 22 e8        	c.sdsp	s0, 0x10(sp)
   16d34: 4a e0        	c.sdsp	s2, 0x0(sp)
   16d36: 06 ec        	c.sdsp	ra, 0x18(sp)
   16d38: 26 e4        	c.sdsp	s1, 0x8(sp)
   16d3a: ed 47        	c.li	a5, 0x1b
   16d3c: 2e 84        	c.mv	s0, a1
   16d3e: 32 89        	c.mv	s2, a2
   16d40: 63 fb d7 04  	bgeu	a5, a3, 0x16d96 <__nrv_alloc_D2A+0x66>
   16d44: 91 47        	c.li	a5, 0x4
   16d46: 81 44        	c.li	s1, 0x0
   16d48: 9b 97 17 00  	slliw	a5, a5, 0x1
   16d4c: 13 87 87 01  	addi	a4, a5, 0x18
   16d50: 85 24        	c.addiw	s1, 0x1
   16d52: e3 fb e6 fe  	bgeu	a3, a4, 0x16d48 <__nrv_alloc_D2A+0x18>
   16d56: a6 85        	c.mv	a1, s1
   16d58: ef 00 80 2f  	jal	ra, 0x17050 <_Balloc>
   16d5c: aa 87        	c.mv	a5, a0
   16d5e: 15 cd        	c.beqz	a0, 0x16d9a <__nrv_alloc_D2A+0x6a>
   16d60: 04 c1        	c.sw	s1, 0x0(a0)
   16d62: 03 47 04 00  	lbu	a4, 0x0(s0)
   16d66: 11 05        	c.addi	a0, 0x4
   16d68: 93 05 14 00  	addi	a1, s0, 0x1
   16d6c: 23 82 e7 00  	sb	a4, 0x4(a5)
   16d70: aa 87        	c.mv	a5, a0
   16d72: 01 cb        	c.beqz	a4, 0x16d82 <__nrv_alloc_D2A+0x52>
   16d74: 03 c7 05 00  	lbu	a4, 0x0(a1)
   16d78: 85 07        	c.addi	a5, 0x1
   16d7a: 85 05        	c.addi	a1, 0x1
   16d7c: 23 80 e7 00  	sb	a4, 0x0(a5)
   16d80: 75 fb        	c.bnez	a4, 0x16d74 <__nrv_alloc_D2A+0x44>
   16d82: 63 04 09 00  	beq	s2, zero, 0x16d8a <__nrv_alloc_D2A+0x5a>
   16d86: 23 30 f9 00  	sd	a5, 0x0(s2)
   16d8a: e2 60        	c.ldsp	ra, 0x18(sp)
   16d8c: 42 64        	c.ldsp	s0, 0x10(sp)
   16d8e: a2 64        	c.ldsp	s1, 0x8(sp)
   16d90: 02 69        	c.ldsp	s2, 0x0(sp)
   16d92: 05 61        	c.addi16sp	sp, 0x20
   16d94: 82 80        	c.jr	ra
   16d96: 81 44        	c.li	s1, 0x0
   16d98: 7d bf        	c.j	0x16d56 <__nrv_alloc_D2A+0x26>
   16d9a: 01 45        	c.li	a0, 0x0
   16d9c: fd b7        	c.j	0x16d8a <__nrv_alloc_D2A+0x5a>

0000000000016d9e <__freedtoa>:
   16d9e: 83 a7 c5 ff  	lw	a5, -0x4(a1)
   16da2: 85 46        	c.li	a3, 0x1
   16da4: 2e 87        	c.mv	a4, a1
   16da6: bb 96 f6 00  	sllw	a3, a3, a5
   16daa: 82 17        	c.slli	a5, 0x20
   16dac: 82 16        	c.slli	a3, 0x20
   16dae: 81 93        	c.srli	a5, 0x20
   16db0: d5 8f        	c.or	a5, a3
   16db2: f1 15        	c.addi	a1, -0x4
   16db4: 23 32 f7 00  	sd	a5, 0x4(a4)
   16db8: f5 ac        	c.j	0x170b4 <_Bfree>

0000000000016dba <__quorem_D2A>:
   16dba: 39 71        	c.addi16sp	sp, -0x40
   16dbc: 26 f4        	c.sdsp	s1, 0x28(sp)
   16dbe: 5c 49        	c.lw	a5, 0x14(a0)
   16dc0: c4 49        	c.lw	s1, 0x14(a1)
   16dc2: 06 fc        	c.sdsp	ra, 0x38(sp)
   16dc4: 63 ce 97 14  	blt	a5, s1, 0x16f20 <__quorem_D2A+0x166>
   16dc8: fd 34        	c.addiw	s1, -0x1
   16dca: 13 93 24 00  	slli	t1, s1, 0x2
   16dce: 22 f8        	c.sdsp	s0, 0x30(sp)
   16dd0: 13 84 85 01  	addi	s0, a1, 0x18
   16dd4: 4a f0        	c.sdsp	s2, 0x20(sp)
   16dd6: 4e ec        	c.sdsp	s3, 0x18(sp)
   16dd8: 33 09 64 00  	add	s2, s0, t1
   16ddc: 93 09 85 01  	addi	s3, a0, 0x18
   16de0: 56 e4        	c.sdsp	s5, 0x8(sp)
   16de2: 4e 93        	c.add	t1, s3
   16de4: 83 2a 09 00  	lw	s5, 0x0(s2)
   16de8: 83 27 03 00  	lw	a5, 0x0(t1)
   16dec: 5a e0        	c.sdsp	s6, 0x0(sp)
   16dee: 1b 87 1a 00  	addiw	a4, s5, 0x1
   16df2: 3b db e7 02  	divuw	s6, a5, a4
   16df6: 52 e8        	c.sdsp	s4, 0x10(sp)
   16df8: 2a 8a        	c.mv	s4, a0
   16dfa: da 8a        	c.mv	s5, s6
   16dfc: 63 ea e7 08  	bltu	a5, a4, 0x16e90 <__quorem_D2A+0xd6>
   16e00: 41 68        	c.lui	a6, 0x10
   16e02: 22 85        	c.mv	a0, s0
   16e04: ce 88        	c.mv	a7, s3
   16e06: 01 4f        	c.li	t5, 0x0
   16e08: 81 4e        	c.li	t4, 0x0
   16e0a: 7d 18        	c.addi	a6, -0x1
   16e0c: 18 41        	c.lw	a4, 0x0(a0)
   16e0e: 03 a6 08 00  	lw	a2, 0x0(a7)
   16e12: 91 08        	c.addi	a7, 0x4
   16e14: b3 76 07 01  	and	a3, a4, a6
   16e18: bb 86 66 03  	mulw	a3, a3, s6
   16e1c: 1b 57 07 01  	srliw	a4, a4, 0x10
   16e20: b3 77 06 01  	and	a5, a2, a6
   16e24: 1b 5e 06 01  	srliw	t3, a2, 0x10
   16e28: 11 05        	c.addi	a0, 0x4
   16e2a: 3b 07 67 03  	mulw	a4, a4, s6
   16e2e: bb 86 e6 01  	addw	a3, a3, t5
   16e32: 33 76 d8 00  	and	a2, a6, a3
   16e36: 91 9f        	c.subw	a5, a2
   16e38: bb 87 d7 41  	subw	a5, a5, t4
   16e3c: 9b d6 06 01  	srliw	a3, a3, 0x10
   16e40: 1b d6 07 01  	srliw	a2, a5, 0x10
   16e44: 05 8a        	c.andi	a2, 0x1
   16e46: b3 77 f8 00  	and	a5, a6, a5
   16e4a: 35 9f        	c.addw	a4, a3
   16e4c: b3 76 e8 00  	and	a3, a6, a4
   16e50: 35 9e        	c.addw	a2, a3
   16e52: bb 06 ce 40  	subw	a3, t3, a2
   16e56: 1b 96 06 01  	slliw	a2, a3, 0x10
   16e5a: d1 8f        	c.or	a5, a2
   16e5c: 9b d6 06 01  	srliw	a3, a3, 0x10
   16e60: 23 ae f8 fe  	sw	a5, -0x4(a7)
   16e64: 1b 5f 07 01  	srliw	t5, a4, 0x10
   16e68: 93 fe 16 00  	andi	t4, a3, 0x1
   16e6c: e3 70 a9 fa  	bgeu	s2, a0, 0x16e0c <__quorem_D2A+0x52>
   16e70: 83 27 03 00  	lw	a5, 0x0(t1)
   16e74: 91 ef        	c.bnez	a5, 0x16e90 <__quorem_D2A+0xd6>
   16e76: 71 13        	c.addi	t1, -0x4
   16e78: 63 e6 69 00  	bltu	s3, t1, 0x16e84 <__quorem_D2A+0xca>
   16e7c: 01 a8        	c.j	0x16e8c <__quorem_D2A+0xd2>
   16e7e: fd 34        	c.addiw	s1, -0x1
   16e80: 63 f6 69 00  	bgeu	s3, t1, 0x16e8c <__quorem_D2A+0xd2>
   16e84: 83 27 03 00  	lw	a5, 0x0(t1)
   16e88: 71 13        	c.addi	t1, -0x4
   16e8a: f5 db        	c.beqz	a5, 0x16e7e <__quorem_D2A+0xc4>
   16e8c: 23 2a 9a 00  	sw	s1, 0x14(s4)
   16e90: 52 85        	c.mv	a0, s4
   16e92: ef 00 90 11  	jal	ra, 0x177aa <__mcmp>
   16e96: 63 49 05 06  	blt	a0, zero, 0x16f08 <__quorem_D2A+0x14e>
   16e9a: 41 65        	c.lui	a0, 0x10
   16e9c: 4e 86        	c.mv	a2, s3
   16e9e: 81 45        	c.li	a1, 0x0
   16ea0: 7d 15        	c.addi	a0, -0x1
   16ea2: 18 42        	c.lw	a4, 0x0(a2)
   16ea4: 14 40        	c.lw	a3, 0x0(s0)
   16ea6: 11 06        	c.addi	a2, 0x4
   16ea8: b3 77 a7 00  	and	a5, a4, a0
   16eac: 33 f8 a6 00  	and	a6, a3, a0
   16eb0: bb 87 07 41  	subw	a5, a5, a6
   16eb4: 8d 9f        	c.subw	a5, a1
   16eb6: 9b d5 07 01  	srliw	a1, a5, 0x10
   16eba: 85 89        	c.andi	a1, 0x1
   16ebc: 9b d6 06 01  	srliw	a3, a3, 0x10
   16ec0: ad 9e        	c.addw	a3, a1
   16ec2: 1b 57 07 01  	srliw	a4, a4, 0x10
   16ec6: 15 9f        	c.subw	a4, a3
   16ec8: 9b 16 07 01  	slliw	a3, a4, 0x10
   16ecc: e9 8f        	c.and	a5, a0
   16ece: d5 8f        	c.or	a5, a3
   16ed0: 1b 57 07 01  	srliw	a4, a4, 0x10
   16ed4: 11 04        	c.addi	s0, 0x4
   16ed6: 23 2e f6 fe  	sw	a5, -0x4(a2)
   16eda: 93 75 17 00  	andi	a1, a4, 0x1
   16ede: e3 72 89 fc  	bgeu	s2, s0, 0x16ea2 <__quorem_D2A+0xe8>
   16ee2: 93 97 24 00  	slli	a5, s1, 0x2
   16ee6: ce 97        	c.add	a5, s3
   16ee8: 98 43        	c.lw	a4, 0x0(a5)
   16eea: 09 ef        	c.bnez	a4, 0x16f04 <__quorem_D2A+0x14a>
   16eec: f1 17        	c.addi	a5, -0x4
   16eee: 63 e6 f9 00  	bltu	s3, a5, 0x16efa <__quorem_D2A+0x140>
   16ef2: 39 a0        	c.j	0x16f00 <__quorem_D2A+0x146>
   16ef4: fd 34        	c.addiw	s1, -0x1
   16ef6: 63 f5 f9 00  	bgeu	s3, a5, 0x16f00 <__quorem_D2A+0x146>
   16efa: 98 43        	c.lw	a4, 0x0(a5)
   16efc: f1 17        	c.addi	a5, -0x4
   16efe: 7d db        	c.beqz	a4, 0x16ef4 <__quorem_D2A+0x13a>
   16f00: 23 2a 9a 00  	sw	s1, 0x14(s4)
   16f04: 1b 8b 1a 00  	addiw	s6, s5, 0x1
   16f08: 42 74        	c.ldsp	s0, 0x30(sp)
   16f0a: e2 70        	c.ldsp	ra, 0x38(sp)
   16f0c: 02 79        	c.ldsp	s2, 0x20(sp)
   16f0e: e2 69        	c.ldsp	s3, 0x18(sp)
   16f10: 42 6a        	c.ldsp	s4, 0x10(sp)
   16f12: a2 6a        	c.ldsp	s5, 0x8(sp)
   16f14: a2 74        	c.ldsp	s1, 0x28(sp)
   16f16: 1b 05 0b 00  	addiw	a0, s6, 0x0
   16f1a: 02 6b        	c.ldsp	s6, 0x0(sp)
   16f1c: 21 61        	c.addi16sp	sp, 0x40
   16f1e: 82 80        	c.jr	ra
   16f20: e2 70        	c.ldsp	ra, 0x38(sp)
   16f22: a2 74        	c.ldsp	s1, 0x28(sp)
   16f24: 01 45        	c.li	a0, 0x0
   16f26: 21 61        	c.addi16sp	sp, 0x40
   16f28: 82 80        	c.jr	ra

0000000000016f2a <__rshift_D2A>:
   16f2a: 58 49        	c.lw	a4, 0x14(a0)
   16f2c: 13 de 55 40  	srai	t3, a1, 0x5
   16f30: 63 47 ee 00  	blt	t3, a4, 0x16f3e <__rshift_D2A+0x14>
   16f34: 23 2a 05 00  	sw	zero, 0x14(a0)
   16f38: 23 2c 05 00  	sw	zero, 0x18(a0)
   16f3c: 82 80        	c.jr	ra
   16f3e: 13 03 85 01  	addi	t1, a0, 0x18
   16f42: 13 18 27 00  	slli	a6, a4, 0x2
   16f46: 93 17 2e 00  	slli	a5, t3, 0x2
   16f4a: fd 89        	c.andi	a1, 0x1f
   16f4c: 1a 98        	c.add	a6, t1
   16f4e: 9a 97        	c.add	a5, t1
   16f50: b9 c1        	c.beqz	a1, 0x16f96 <__rshift_D2A+0x6c>
   16f52: 90 43        	c.lw	a2, 0x0(a5)
   16f54: 93 0e 00 02  	addi	t4, zero, 0x20
   16f58: 91 07        	c.addi	a5, 0x4
   16f5a: bb 56 b6 00  	srlw	a3, a2, a1
   16f5e: bb 8e be 40  	subw	t4, t4, a1
   16f62: 63 ff 07 05  	bgeu	a5, a6, 0x16fc0 <__rshift_D2A+0x96>
   16f66: 9a 88        	c.mv	a7, t1
   16f68: 90 43        	c.lw	a2, 0x0(a5)
   16f6a: 91 08        	c.addi	a7, 0x4
   16f6c: 91 07        	c.addi	a5, 0x4
   16f6e: 3b 16 d6 01  	sllw	a2, a2, t4
   16f72: d1 8e        	c.or	a3, a2
   16f74: 23 ae d8 fe  	sw	a3, -0x4(a7)
   16f78: 03 a6 c7 ff  	lw	a2, -0x4(a5)
   16f7c: bb 56 b6 00  	srlw	a3, a2, a1
   16f80: e3 e4 07 ff  	bltu	a5, a6, 0x16f68 <__rshift_D2A+0x3e>
   16f84: 33 07 c7 41  	sub	a4, a4, t3
   16f88: 0a 07        	c.slli	a4, 0x2
   16f8a: 71 17        	c.addi	a4, -0x4
   16f8c: 1a 97        	c.add	a4, t1
   16f8e: 14 c3        	c.sw	a3, 0x0(a4)
   16f90: 8d c2        	c.beqz	a3, 0x16fb2 <__rshift_D2A+0x88>
   16f92: 11 07        	c.addi	a4, 0x4
   16f94: 39 a8        	c.j	0x16fb2 <__rshift_D2A+0x88>
   16f96: 9a 86        	c.mv	a3, t1
   16f98: e3 fe 07 f9  	bgeu	a5, a6, 0x16f34 <__rshift_D2A+0xa>
   16f9c: 90 43        	c.lw	a2, 0x0(a5)
   16f9e: 91 07        	c.addi	a5, 0x4
   16fa0: 91 06        	c.addi	a3, 0x4
   16fa2: 23 ae c6 fe  	sw	a2, -0x4(a3)
   16fa6: e3 eb 07 ff  	bltu	a5, a6, 0x16f9c <__rshift_D2A+0x72>
   16faa: 33 07 c7 41  	sub	a4, a4, t3
   16fae: 0a 07        	c.slli	a4, 0x2
   16fb0: 1a 97        	c.add	a4, t1
   16fb2: 33 07 67 40  	sub	a4, a4, t1
   16fb6: 09 87        	c.srai	a4, 0x2
   16fb8: 01 27        	c.addiw	a4, 0x0
   16fba: 58 c9        	c.sw	a4, 0x14(a0)
   16fbc: 35 df        	c.beqz	a4, 0x16f38 <__rshift_D2A+0xe>
   16fbe: 82 80        	c.jr	ra
   16fc0: 14 cd        	c.sw	a3, 0x18(a0)
   16fc2: ad da        	c.beqz	a3, 0x16f34 <__rshift_D2A+0xa>
   16fc4: 1a 87        	c.mv	a4, t1
   16fc6: 11 07        	c.addi	a4, 0x4
   16fc8: ed b7        	c.j	0x16fb2 <__rshift_D2A+0x88>

0000000000016fca <__trailz_D2A>:
   16fca: 58 49        	c.lw	a4, 0x14(a0)
   16fcc: 01 11        	c.addi	sp, -0x20
   16fce: 61 05        	c.addi	a0, 0x18
   16fd0: 0a 07        	c.slli	a4, 0x2
   16fd2: 22 e8        	c.sdsp	s0, 0x10(sp)
   16fd4: 06 ec        	c.sdsp	ra, 0x18(sp)
   16fd6: 2a 97        	c.add	a4, a0
   16fd8: 01 44        	c.li	s0, 0x0
   16fda: 63 68 e5 00  	bltu	a0, a4, 0x16fea <__trailz_D2A+0x20>
   16fde: 39 a8        	c.j	0x16ffc <__trailz_D2A+0x32>
   16fe0: 11 05        	c.addi	a0, 0x4
   16fe2: 1b 04 04 02  	addiw	s0, s0, 0x20
   16fe6: 63 7b e5 00  	bgeu	a0, a4, 0x16ffc <__trailz_D2A+0x32>
   16fea: 1c 41        	c.lw	a5, 0x0(a0)
   16fec: f5 db        	c.beqz	a5, 0x16fe0 <__trailz_D2A+0x16>
   16fee: 63 77 e5 00  	bgeu	a0, a4, 0x16ffc <__trailz_D2A+0x32>
   16ff2: 68 00        	c.addi4spn	a0, sp, 0xc
   16ff4: 3e c6        	c.swsp	a5, 0xc(sp)
   16ff6: ef 00 20 30  	jal	ra, 0x172f8 <__lo0bits>
   16ffa: 29 9c        	c.addw	s0, a0
   16ffc: e2 60        	c.ldsp	ra, 0x18(sp)
   16ffe: 22 85        	c.mv	a0, s0
   17000: 42 64        	c.ldsp	s0, 0x10(sp)
   17002: 05 61        	c.addi16sp	sp, 0x20
   17004: 82 80        	c.jr	ra

0000000000017006 <_mbtowc_r>:
   17006: b7 27 02 00  	lui	a5, 0x22
   1700a: 83 b7 07 1d  	ld	a5, 0x1d0(a5)
   1700e: 82 87        	c.jr	a5

0000000000017010 <__ascii_mbtowc>:
   17010: 99 c9        	c.beqz	a1, 0x17026 <__ascii_mbtowc+0x16>
   17012: 1d c6        	c.beqz	a2, 0x17040 <__ascii_mbtowc+0x30>
   17014: 95 ca        	c.beqz	a3, 0x17048 <__ascii_mbtowc+0x38>
   17016: 83 47 06 00  	lbu	a5, 0x0(a2)
   1701a: 9c c1        	c.sw	a5, 0x0(a1)
   1701c: 03 45 06 00  	lbu	a0, 0x0(a2)
   17020: 33 35 a0 00  	sltu	a0, zero, a0
   17024: 82 80        	c.jr	ra
   17026: 41 11        	c.addi	sp, -0x10
   17028: 6c 00        	c.addi4spn	a1, sp, 0xc
   1702a: 09 ce        	c.beqz	a2, 0x17044 <__ascii_mbtowc+0x34>
   1702c: 85 c2        	c.beqz	a3, 0x1704c <__ascii_mbtowc+0x3c>
   1702e: 83 47 06 00  	lbu	a5, 0x0(a2)
   17032: 9c c1        	c.sw	a5, 0x0(a1)
   17034: 03 45 06 00  	lbu	a0, 0x0(a2)
   17038: 33 35 a0 00  	sltu	a0, zero, a0
   1703c: 41 01        	c.addi	sp, 0x10
   1703e: 82 80        	c.jr	ra
   17040: 01 45        	c.li	a0, 0x0
   17042: 82 80        	c.jr	ra
   17044: 01 45        	c.li	a0, 0x0
   17046: dd bf        	c.j	0x1703c <__ascii_mbtowc+0x2c>
   17048: 79 55        	c.li	a0, -0x2
   1704a: 82 80        	c.jr	ra
   1704c: 79 55        	c.li	a0, -0x2
   1704e: fd b7        	c.j	0x1703c <__ascii_mbtowc+0x2c>

0000000000017050 <_Balloc>:
   17050: 3c 75        	c.ld	a5, 0x68(a0)
   17052: 01 11        	c.addi	sp, -0x20
   17054: 22 e8        	c.sdsp	s0, 0x10(sp)
   17056: 26 e4        	c.sdsp	s1, 0x8(sp)
   17058: 06 ec        	c.sdsp	ra, 0x18(sp)
   1705a: aa 84        	c.mv	s1, a0
   1705c: 2e 84        	c.mv	s0, a1
   1705e: 99 cf        	c.beqz	a5, 0x1707c <_Balloc+0x2c>
   17060: 13 17 34 00  	slli	a4, s0, 0x3
   17064: ba 97        	c.add	a5, a4
   17066: 88 63        	c.ld	a0, 0x0(a5)
   17068: 05 c5        	c.beqz	a0, 0x17090 <_Balloc+0x40>
   1706a: 18 61        	c.ld	a4, 0x0(a0)
   1706c: 98 e3        	c.sd	a4, 0x0(a5)
   1706e: 23 38 05 00  	sd	zero, 0x10(a0)
   17072: e2 60        	c.ldsp	ra, 0x18(sp)
   17074: 42 64        	c.ldsp	s0, 0x10(sp)
   17076: a2 64        	c.ldsp	s1, 0x8(sp)
   17078: 05 61        	c.addi16sp	sp, 0x20
   1707a: 82 80        	c.jr	ra
   1707c: 13 06 10 04  	addi	a2, zero, 0x41
   17080: a1 45        	c.li	a1, 0x8
   17082: ef 00 30 7d  	jal	ra, 0x18054 <_calloc_r>
   17086: a8 f4        	c.sd	a0, 0x68(s1)
   17088: aa 87        	c.mv	a5, a0
   1708a: 79 f9        	c.bnez	a0, 0x17060 <_Balloc+0x10>
   1708c: 01 45        	c.li	a0, 0x0
   1708e: d5 b7        	c.j	0x17072 <_Balloc+0x22>
   17090: 85 47        	c.li	a5, 0x1
   17092: bb 97 87 00  	sllw	a5, a5, s0
   17096: 1b 86 07 00  	addiw	a2, a5, 0x0
   1709a: 1d 06        	c.addi	a2, 0x7
   1709c: 02 14        	c.slli	s0, 0x20
   1709e: 82 17        	c.slli	a5, 0x20
   170a0: 01 90        	c.srli	s0, 0x20
   170a2: 0a 06        	c.slli	a2, 0x2
   170a4: 85 45        	c.li	a1, 0x1
   170a6: 26 85        	c.mv	a0, s1
   170a8: 5d 8c        	c.or	s0, a5
   170aa: ef 00 b0 7a  	jal	ra, 0x18054 <_calloc_r>
   170ae: 79 dd        	c.beqz	a0, 0x1708c <_Balloc+0x3c>
   170b0: 00 e5        	c.sd	s0, 0x8(a0)
   170b2: 75 bf        	c.j	0x1706e <_Balloc+0x1e>

00000000000170b4 <_Bfree>:
   170b4: 81 c9        	c.beqz	a1, 0x170c4 <_Bfree+0x10>
   170b6: 98 45        	c.lw	a4, 0x8(a1)
   170b8: 3c 75        	c.ld	a5, 0x68(a0)
   170ba: 0e 07        	c.slli	a4, 0x3
   170bc: ba 97        	c.add	a5, a4
   170be: 98 63        	c.ld	a4, 0x0(a5)
   170c0: 98 e1        	c.sd	a4, 0x0(a1)
   170c2: 8c e3        	c.sd	a1, 0x0(a5)
   170c4: 82 80        	c.jr	ra

00000000000170c6 <__multadd>:
   170c6: 79 71        	c.addi16sp	sp, -0x30
   170c8: 22 f0        	c.sdsp	s0, 0x20(sp)
   170ca: c0 49        	c.lw	s0, 0x14(a1)
   170cc: 41 63        	c.lui	t1, 0x10
   170ce: 4a e8        	c.sdsp	s2, 0x10(sp)
   170d0: 4e e4        	c.sdsp	s3, 0x8(sp)
   170d2: 06 f4        	c.sdsp	ra, 0x28(sp)
   170d4: 26 ec        	c.sdsp	s1, 0x18(sp)
   170d6: 2e 89        	c.mv	s2, a1
   170d8: aa 89        	c.mv	s3, a0
   170da: 13 88 85 01  	addi	a6, a1, 0x18
   170de: 81 48        	c.li	a7, 0x0
   170e0: 7d 13        	c.addi	t1, -0x1
   170e2: 83 27 08 00  	lw	a5, 0x0(a6)
   170e6: 11 08        	c.addi	a6, 0x4
   170e8: 85 28        	c.addiw	a7, 0x1
   170ea: 33 f7 67 00  	and	a4, a5, t1
   170ee: 3b 07 c7 02  	mulw	a4, a4, a2
   170f2: 9b d7 07 01  	srliw	a5, a5, 0x10
   170f6: bb 87 c7 02  	mulw	a5, a5, a2
   170fa: 35 9f        	c.addw	a4, a3
   170fc: 9b 56 07 01  	srliw	a3, a4, 0x10
   17100: 33 77 e3 00  	and	a4, t1, a4
   17104: b5 9f        	c.addw	a5, a3
   17106: 9b 96 07 01  	slliw	a3, a5, 0x10
   1710a: 35 9f        	c.addw	a4, a3
   1710c: 23 2e e8 fe  	sw	a4, -0x4(a6)
   17110: 9b d4 07 01  	srliw	s1, a5, 0x10
   17114: 9b d6 07 01  	srliw	a3, a5, 0x10
   17118: e3 c5 88 fc  	blt	a7, s0, 0x170e2 <__multadd+0x1c>
   1711c: 89 ce        	c.beqz	a3, 0x17136 <__multadd+0x70>
   1711e: 83 27 c9 00  	lw	a5, 0xc(s2)
   17122: 63 52 f4 02  	bge	s0, a5, 0x17146 <__multadd+0x80>
   17126: 93 07 44 00  	addi	a5, s0, 0x4
   1712a: 8a 07        	c.slli	a5, 0x2
   1712c: ca 97        	c.add	a5, s2
   1712e: 84 c7        	c.sw	s1, 0x8(a5)
   17130: 05 24        	c.addiw	s0, 0x1
   17132: 23 2a 89 00  	sw	s0, 0x14(s2)
   17136: a2 70        	c.ldsp	ra, 0x28(sp)
   17138: 02 74        	c.ldsp	s0, 0x20(sp)
   1713a: e2 64        	c.ldsp	s1, 0x18(sp)
   1713c: a2 69        	c.ldsp	s3, 0x8(sp)
   1713e: 4a 85        	c.mv	a0, s2
   17140: 42 69        	c.ldsp	s2, 0x10(sp)
   17142: 45 61        	c.addi16sp	sp, 0x30
   17144: 82 80        	c.jr	ra
   17146: 83 25 89 00  	lw	a1, 0x8(s2)
   1714a: 4e 85        	c.mv	a0, s3
   1714c: 52 e0        	c.sdsp	s4, 0x0(sp)
   1714e: 85 25        	c.addiw	a1, 0x1
   17150: ef f0 1f f0  	jal	ra, 0x17050 <_Balloc>
   17154: 2a 8a        	c.mv	s4, a0
   17156: 21 c1        	c.beqz	a0, 0x17196 <__multadd+0xd0>
   17158: 03 26 49 01  	lw	a2, 0x14(s2)
   1715c: 93 05 09 01  	addi	a1, s2, 0x10
   17160: 41 05        	c.addi	a0, 0x10
   17162: 09 06        	c.addi	a2, 0x2
   17164: 0a 06        	c.slli	a2, 0x2
   17166: ef e0 4f e8  	jal	ra, 0x157ea <memcpy>
   1716a: 03 27 89 00  	lw	a4, 0x8(s2)
   1716e: 83 b7 89 06  	ld	a5, 0x68(s3)
   17172: 0e 07        	c.slli	a4, 0x3
   17174: ba 97        	c.add	a5, a4
   17176: 98 63        	c.ld	a4, 0x0(a5)
   17178: 23 30 e9 00  	sd	a4, 0x0(s2)
   1717c: 23 b0 27 01  	sd	s2, 0x0(a5)
   17180: 93 07 44 00  	addi	a5, s0, 0x4
   17184: 52 89        	c.mv	s2, s4
   17186: 8a 07        	c.slli	a5, 0x2
   17188: ca 97        	c.add	a5, s2
   1718a: 02 6a        	c.ldsp	s4, 0x0(sp)
   1718c: 05 24        	c.addiw	s0, 0x1
   1718e: 84 c7        	c.sw	s1, 0x8(a5)
   17190: 23 2a 89 00  	sw	s0, 0x14(s2)
   17194: 4d b7        	c.j	0x17136 <__multadd+0x70>
   17196: b7 06 02 00  	lui	a3, 0x20
   1719a: 37 05 02 00  	lui	a0, 0x20
   1719e: 93 86 86 dd  	addi	a3, a3, -0x228
   171a2: 01 46        	c.li	a2, 0x0
   171a4: 93 05 a0 0b  	addi	a1, zero, 0xba
   171a8: 13 05 05 df  	addi	a0, a0, -0x210
   171ac: ef 00 b0 65  	jal	ra, 0x18006 <__assert_func>

00000000000171b0 <__s2b>:
   171b0: 39 71        	c.addi16sp	sp, -0x40
   171b2: 22 f8        	c.sdsp	s0, 0x30(sp)
   171b4: 26 f4        	c.sdsp	s1, 0x28(sp)
   171b6: 4a f0        	c.sdsp	s2, 0x20(sp)
   171b8: 4e ec        	c.sdsp	s3, 0x18(sp)
   171ba: 52 e8        	c.sdsp	s4, 0x10(sp)
   171bc: b6 84        	c.mv	s1, a3
   171be: 2e 84        	c.mv	s0, a1
   171c0: a1 26        	c.addiw	a3, 0x8
   171c2: a5 45        	c.li	a1, 0x9
   171c4: 06 fc        	c.sdsp	ra, 0x38(sp)
   171c6: a5 47        	c.li	a5, 0x9
   171c8: bb c6 b6 02  	divw	a3, a3, a1
   171cc: 2a 89        	c.mv	s2, a0
   171ce: 32 8a        	c.mv	s4, a2
   171d0: ba 89        	c.mv	s3, a4
   171d2: 63 d3 97 0a  	bge	a5, s1, 0x17278 <__s2b+0xc8>
   171d6: 85 47        	c.li	a5, 0x1
   171d8: 81 45        	c.li	a1, 0x0
   171da: 9b 97 17 00  	slliw	a5, a5, 0x1
   171de: 85 25        	c.addiw	a1, 0x1
   171e0: e3 cd d7 fe  	blt	a5, a3, 0x171da <__s2b+0x2a>
   171e4: 4a 85        	c.mv	a0, s2
   171e6: ef f0 bf e6  	jal	ra, 0x17050 <_Balloc>
   171ea: aa 85        	c.mv	a1, a0
   171ec: 41 c9        	c.beqz	a0, 0x1727c <__s2b+0xcc>
   171ee: 85 47        	c.li	a5, 0x1
   171f0: 5c c9        	c.sw	a5, 0x14(a0)
   171f2: 23 2c 35 01  	sw	s3, 0x18(a0)
   171f6: a5 47        	c.li	a5, 0x9
   171f8: 63 dd 47 07  	bge	a5, s4, 0x17272 <__s2b+0xc2>
   171fc: 93 17 0a 02  	slli	a5, s4, 0x20
   17200: 5a e0        	c.sdsp	s6, 0x0(sp)
   17202: 81 93        	c.srli	a5, 0x20
   17204: 13 0b 94 00  	addi	s6, s0, 0x9
   17208: 56 e4        	c.sdsp	s5, 0x8(sp)
   1720a: 3e 94        	c.add	s0, a5
   1720c: 9b 0a 0a 00  	addiw	s5, s4, 0x0
   17210: da 89        	c.mv	s3, s6
   17212: 83 c6 09 00  	lbu	a3, 0x0(s3)
   17216: 29 46        	c.li	a2, 0xa
   17218: 4a 85        	c.mv	a0, s2
   1721a: 9b 86 06 fd  	addiw	a3, a3, -0x30
   1721e: ef f0 9f ea  	jal	ra, 0x170c6 <__multadd>
   17222: 85 09        	c.addi	s3, 0x1
   17224: aa 85        	c.mv	a1, a0
   17226: e3 96 89 fe  	bne	s3, s0, 0x17212 <__s2b+0x62>
   1722a: e1 3a        	c.addiw	s5, -0x8
   1722c: 82 1a        	c.slli	s5, 0x20
   1722e: 93 da 0a 02  	srli	s5, s5, 0x20
   17232: 33 04 5b 01  	add	s0, s6, s5
   17236: a2 6a        	c.ldsp	s5, 0x8(sp)
   17238: 02 6b        	c.ldsp	s6, 0x0(sp)
   1723a: 63 53 9a 02  	bge	s4, s1, 0x17260 <__s2b+0xb0>
   1723e: bb 84 44 41  	subw	s1, s1, s4
   17242: 82 14        	c.slli	s1, 0x20
   17244: 81 90        	c.srli	s1, 0x20
   17246: a2 94        	c.add	s1, s0
   17248: 83 46 04 00  	lbu	a3, 0x0(s0)
   1724c: 29 46        	c.li	a2, 0xa
   1724e: 4a 85        	c.mv	a0, s2
   17250: 9b 86 06 fd  	addiw	a3, a3, -0x30
   17254: ef f0 3f e7  	jal	ra, 0x170c6 <__multadd>
   17258: 05 04        	c.addi	s0, 0x1
   1725a: aa 85        	c.mv	a1, a0
   1725c: e3 16 94 fe  	bne	s0, s1, 0x17248 <__s2b+0x98>
   17260: e2 70        	c.ldsp	ra, 0x38(sp)
   17262: 42 74        	c.ldsp	s0, 0x30(sp)
   17264: a2 74        	c.ldsp	s1, 0x28(sp)
   17266: 02 79        	c.ldsp	s2, 0x20(sp)
   17268: e2 69        	c.ldsp	s3, 0x18(sp)
   1726a: 42 6a        	c.ldsp	s4, 0x10(sp)
   1726c: 2e 85        	c.mv	a0, a1
   1726e: 21 61        	c.addi16sp	sp, 0x40
   17270: 82 80        	c.jr	ra
   17272: 29 04        	c.addi	s0, 0xa
   17274: 25 4a        	c.li	s4, 0x9
   17276: d1 b7        	c.j	0x1723a <__s2b+0x8a>
   17278: 81 45        	c.li	a1, 0x0
   1727a: ad b7        	c.j	0x171e4 <__s2b+0x34>
   1727c: b7 06 02 00  	lui	a3, 0x20
   17280: 37 05 02 00  	lui	a0, 0x20
   17284: 93 86 86 dd  	addi	a3, a3, -0x228
   17288: 01 46        	c.li	a2, 0x0
   1728a: 93 05 30 0d  	addi	a1, zero, 0xd3
   1728e: 13 05 05 df  	addi	a0, a0, -0x210
   17292: 56 e4        	c.sdsp	s5, 0x8(sp)
   17294: 5a e0        	c.sdsp	s6, 0x0(sp)
   17296: ef 00 10 57  	jal	ra, 0x18006 <__assert_func>

000000000001729a <__hi0bits>:
   1729a: aa 87        	c.mv	a5, a0
   1729c: 41 67        	c.lui	a4, 0x10
   1729e: 01 45        	c.li	a0, 0x0
   172a0: 63 f5 e7 00  	bgeu	a5, a4, 0x172aa <__hi0bits+0x10>
   172a4: 9b 97 07 01  	slliw	a5, a5, 0x10
   172a8: 41 45        	c.li	a0, 0x10
   172aa: 37 07 00 01  	lui	a4, 0x1000
   172ae: 63 f5 e7 00  	bgeu	a5, a4, 0x172b8 <__hi0bits+0x1e>
   172b2: 9b 97 87 00  	slliw	a5, a5, 0x8
   172b6: 21 25        	c.addiw	a0, 0x8
   172b8: 37 07 00 10  	lui	a4, 0x10000
   172bc: 63 f5 e7 00  	bgeu	a5, a4, 0x172c6 <__hi0bits+0x2c>
   172c0: 9b 97 47 00  	slliw	a5, a5, 0x4
   172c4: 11 25        	c.addiw	a0, 0x4
   172c6: 37 07 00 40  	lui	a4, 0x40000
   172ca: 63 e6 e7 00  	bltu	a5, a4, 0x172d6 <__hi0bits+0x3c>
   172ce: 63 c0 07 02  	blt	a5, zero, 0x172ee <__hi0bits+0x54>
   172d2: 05 25        	c.addiw	a0, 0x1
   172d4: 82 80        	c.jr	ra
   172d6: 93 96 27 02  	slli	a3, a5, 0x22
   172da: 1b 97 27 00  	slliw	a4, a5, 0x2
   172de: 63 c9 06 00  	blt	a3, zero, 0x172f0 <__hi0bits+0x56>
   172e2: 93 17 17 02  	slli	a5, a4, 0x21
   172e6: 63 c7 07 00  	blt	a5, zero, 0x172f4 <__hi0bits+0x5a>
   172ea: 13 05 00 02  	addi	a0, zero, 0x20
   172ee: 82 80        	c.jr	ra
   172f0: 09 25        	c.addiw	a0, 0x2
   172f2: 82 80        	c.jr	ra
   172f4: 0d 25        	c.addiw	a0, 0x3
   172f6: 82 80        	c.jr	ra

00000000000172f8 <__lo0bits>:
   172f8: 1c 41        	c.lw	a5, 0x0(a0)
   172fa: 2a 87        	c.mv	a4, a0
   172fc: 93 f6 77 00  	andi	a3, a5, 0x7
   17300: 3e 86        	c.mv	a2, a5
   17302: 81 ce        	c.beqz	a3, 0x1731a <__lo0bits+0x22>
   17304: 93 f6 17 00  	andi	a3, a5, 0x1
   17308: 01 45        	c.li	a0, 0x0
   1730a: 9d ee        	c.bnez	a3, 0x17348 <__lo0bits+0x50>
   1730c: 09 8a        	c.andi	a2, 0x2
   1730e: 25 ce        	c.beqz	a2, 0x17386 <__lo0bits+0x8e>
   17310: 9b d7 17 00  	srliw	a5, a5, 0x1
   17314: 1c c3        	c.sw	a5, 0x0(a4)
   17316: 05 45        	c.li	a0, 0x1
   17318: 82 80        	c.jr	ra
   1731a: 93 96 07 03  	slli	a3, a5, 0x30
   1731e: c1 92        	c.srli	a3, 0x30
   17320: 01 45        	c.li	a0, 0x0
   17322: b9 ca        	c.beqz	a3, 0x17378 <__lo0bits+0x80>
   17324: 93 f6 f7 0f  	andi	a3, a5, 0xff
   17328: a9 c2        	c.beqz	a3, 0x1736a <__lo0bits+0x72>
   1732a: 93 f6 f7 00  	andi	a3, a5, 0xf
   1732e: 9d c6        	c.beqz	a3, 0x1735c <__lo0bits+0x64>
   17330: 93 f6 37 00  	andi	a3, a5, 0x3
   17334: 89 ce        	c.beqz	a3, 0x1734e <__lo0bits+0x56>
   17336: 93 f6 17 00  	andi	a3, a5, 0x1
   1733a: 81 ea        	c.bnez	a3, 0x1734a <__lo0bits+0x52>
   1733c: 9b d7 17 00  	srliw	a5, a5, 0x1
   17340: 05 25        	c.addiw	a0, 0x1
   17342: 81 e7        	c.bnez	a5, 0x1734a <__lo0bits+0x52>
   17344: 13 05 00 02  	addi	a0, zero, 0x20
   17348: 82 80        	c.jr	ra
   1734a: 1c c3        	c.sw	a5, 0x0(a4)
   1734c: 82 80        	c.jr	ra
   1734e: 9b d7 27 00  	srliw	a5, a5, 0x2
   17352: 93 f6 17 00  	andi	a3, a5, 0x1
   17356: 09 25        	c.addiw	a0, 0x2
   17358: ed fa        	c.bnez	a3, 0x1734a <__lo0bits+0x52>
   1735a: cd b7        	c.j	0x1733c <__lo0bits+0x44>
   1735c: 9b d7 47 00  	srliw	a5, a5, 0x4
   17360: 93 f6 37 00  	andi	a3, a5, 0x3
   17364: 11 25        	c.addiw	a0, 0x4
   17366: e1 fa        	c.bnez	a3, 0x17336 <__lo0bits+0x3e>
   17368: dd b7        	c.j	0x1734e <__lo0bits+0x56>
   1736a: 9b d7 87 00  	srliw	a5, a5, 0x8
   1736e: 93 f6 f7 00  	andi	a3, a5, 0xf
   17372: 21 25        	c.addiw	a0, 0x8
   17374: d5 fe        	c.bnez	a3, 0x17330 <__lo0bits+0x38>
   17376: dd b7        	c.j	0x1735c <__lo0bits+0x64>
   17378: 9b d7 07 01  	srliw	a5, a5, 0x10
   1737c: 93 f6 f7 0f  	andi	a3, a5, 0xff
   17380: 41 45        	c.li	a0, 0x10
   17382: c5 f6        	c.bnez	a3, 0x1732a <__lo0bits+0x32>
   17384: dd b7        	c.j	0x1736a <__lo0bits+0x72>
   17386: 9b d7 27 00  	srliw	a5, a5, 0x2
   1738a: 1c c3        	c.sw	a5, 0x0(a4)
   1738c: 09 45        	c.li	a0, 0x2
   1738e: 82 80        	c.jr	ra

0000000000017390 <__i2b>:
   17390: 3c 75        	c.ld	a5, 0x68(a0)
   17392: 01 11        	c.addi	sp, -0x20
   17394: 22 e8        	c.sdsp	s0, 0x10(sp)
   17396: 26 e4        	c.sdsp	s1, 0x8(sp)
   17398: 06 ec        	c.sdsp	ra, 0x18(sp)
   1739a: 2a 84        	c.mv	s0, a0
   1739c: ae 84        	c.mv	s1, a1
   1739e: 91 cf        	c.beqz	a5, 0x173ba <__i2b+0x2a>
   173a0: 88 67        	c.ld	a0, 0x8(a5)
   173a2: 29 c1        	c.beqz	a0, 0x173e4 <__i2b+0x54>
   173a4: 18 61        	c.ld	a4, 0x0(a0)
   173a6: 98 e7        	c.sd	a4, 0x8(a5)
   173a8: e2 60        	c.ldsp	ra, 0x18(sp)
   173aa: 42 64        	c.ldsp	s0, 0x10(sp)
   173ac: 85 47        	c.li	a5, 0x1
   173ae: 82 17        	c.slli	a5, 0x20
   173b0: 04 cd        	c.sw	s1, 0x18(a0)
   173b2: 1c e9        	c.sd	a5, 0x10(a0)
   173b4: a2 64        	c.ldsp	s1, 0x8(sp)
   173b6: 05 61        	c.addi16sp	sp, 0x20
   173b8: 82 80        	c.jr	ra
   173ba: 13 06 10 04  	addi	a2, zero, 0x41
   173be: a1 45        	c.li	a1, 0x8
   173c0: ef 00 50 49  	jal	ra, 0x18054 <_calloc_r>
   173c4: 28 f4        	c.sd	a0, 0x68(s0)
   173c6: aa 87        	c.mv	a5, a0
   173c8: 61 fd        	c.bnez	a0, 0x173a0 <__i2b+0x10>
   173ca: b7 06 02 00  	lui	a3, 0x20
   173ce: 37 05 02 00  	lui	a0, 0x20
   173d2: 93 86 86 dd  	addi	a3, a3, -0x228
   173d6: 01 46        	c.li	a2, 0x0
   173d8: 93 05 50 14  	addi	a1, zero, 0x145
   173dc: 13 05 05 df  	addi	a0, a0, -0x210
   173e0: ef 00 70 42  	jal	ra, 0x18006 <__assert_func>
   173e4: 13 06 40 02  	addi	a2, zero, 0x24
   173e8: 85 45        	c.li	a1, 0x1
   173ea: 22 85        	c.mv	a0, s0
   173ec: ef 00 90 46  	jal	ra, 0x18054 <_calloc_r>
   173f0: 69 dd        	c.beqz	a0, 0x173ca <__i2b+0x3a>
   173f2: 85 47        	c.li	a5, 0x1
   173f4: 86 17        	c.slli	a5, 0x21
   173f6: 85 07        	c.addi	a5, 0x1
   173f8: 1c e5        	c.sd	a5, 0x8(a0)
   173fa: 7d b7        	c.j	0x173a8 <__i2b+0x18>

00000000000173fc <__multiply>:
   173fc: 79 71        	c.addi16sp	sp, -0x30
   173fe: 4a e8        	c.sdsp	s2, 0x10(sp)
   17400: 4e e4        	c.sdsp	s3, 0x8(sp)
   17402: 03 29 46 01  	lw	s2, 0x14(a2)
   17406: 83 a9 45 01  	lw	s3, 0x14(a1)
   1740a: 26 ec        	c.sdsp	s1, 0x18(sp)
   1740c: 52 e0        	c.sdsp	s4, 0x0(sp)
   1740e: 06 f4        	c.sdsp	ra, 0x28(sp)
   17410: 22 f0        	c.sdsp	s0, 0x20(sp)
   17412: 2e 8a        	c.mv	s4, a1
   17414: b2 84        	c.mv	s1, a2
   17416: 63 c7 29 01  	blt	s3, s2, 0x17424 <__multiply+0x28>
   1741a: ca 87        	c.mv	a5, s2
   1741c: ae 84        	c.mv	s1, a1
   1741e: 4e 89        	c.mv	s2, s3
   17420: 32 8a        	c.mv	s4, a2
   17422: be 89        	c.mv	s3, a5
   17424: dc 44        	c.lw	a5, 0xc(s1)
   17426: 3b 04 39 01  	addw	s0, s2, s3
   1742a: 8c 44        	c.lw	a1, 0x8(s1)
   1742c: 63 d3 87 00  	bge	a5, s0, 0x17432 <__multiply+0x36>
   17430: 85 25        	c.addiw	a1, 0x1
   17432: ef f0 ff c1  	jal	ra, 0x17050 <_Balloc>
   17436: 63 0c 05 14  	beq	a0, zero, 0x1758e <__multiply+0x192>
   1743a: 13 03 85 01  	addi	t1, a0, 0x18
   1743e: 93 18 24 00  	slli	a7, s0, 0x2
   17442: 9a 98        	c.add	a7, t1
   17444: 9a 87        	c.mv	a5, t1
   17446: 63 77 13 01  	bgeu	t1, a7, 0x17454 <__multiply+0x58>
   1744a: 23 a0 07 00  	sw	zero, 0x0(a5)
   1744e: 91 07        	c.addi	a5, 0x4
   17450: e3 ed 17 ff  	bltu	a5, a7, 0x1744a <__multiply+0x4e>
   17454: 13 08 8a 01  	addi	a6, s4, 0x18
   17458: 13 9e 29 00  	slli	t3, s3, 0x2
   1745c: 93 8e 84 01  	addi	t4, s1, 0x18
   17460: 93 15 29 00  	slli	a1, s2, 0x2
   17464: 42 9e        	c.add	t3, a6
   17466: f6 95        	c.add	a1, t4
   17468: 63 7a c8 0f  	bgeu	a6, t3, 0x1755c <__multiply+0x160>
   1746c: 93 87 94 01  	addi	a5, s1, 0x19
   17470: 11 4f        	c.li	t5, 0x4
   17472: 63 f7 f5 10  	bgeu	a1, a5, 0x17580 <__multiply+0x184>
   17476: c1 66        	c.lui	a3, 0x10
   17478: fd 16        	c.addi	a3, -0x1
   1747a: 09 a8        	c.j	0x1748c <__multiply+0x90>
   1747c: 9b df 0f 01  	srliw	t6, t6, 0x10
   17480: 63 9d 0f 06  	bne	t6, zero, 0x174fa <__multiply+0xfe>
   17484: 11 08        	c.addi	a6, 0x4
   17486: 11 03        	c.addi	t1, 0x4
   17488: 63 7a c8 0d  	bgeu	a6, t3, 0x1755c <__multiply+0x160>
   1748c: 83 2f 08 00  	lw	t6, 0x0(a6)
   17490: b3 f3 df 00  	and	t2, t6, a3
   17494: e3 84 03 fe  	beq	t2, zero, 0x1747c <__multiply+0x80>
   17498: 9a 82        	c.mv	t0, t1
   1749a: f6 8f        	c.mv	t6, t4
   1749c: 81 44        	c.li	s1, 0x0
   1749e: 83 a7 0f 00  	lw	a5, 0x0(t6)
   174a2: 03 a6 02 00  	lw	a2, 0x0(t0)
   174a6: 91 02        	c.addi	t0, 0x4
   174a8: 33 f7 d7 00  	and	a4, a5, a3
   174ac: 3b 07 77 02  	mulw	a4, a4, t2
   174b0: 9b d7 07 01  	srliw	a5, a5, 0x10
   174b4: 33 79 d6 00  	and	s2, a2, a3
   174b8: 1b 56 06 01  	srliw	a2, a2, 0x10
   174bc: 91 0f        	c.addi	t6, 0x4
   174be: bb 87 77 02  	mulw	a5, a5, t2
   174c2: 3b 07 27 01  	addw	a4, a4, s2
   174c6: 25 9f        	c.addw	a4, s1
   174c8: 9b 54 07 01  	srliw	s1, a4, 0x10
   174cc: 75 8f        	c.and	a4, a3
   174ce: b1 9f        	c.addw	a5, a2
   174d0: a5 9f        	c.addw	a5, s1
   174d2: 1b 96 07 01  	slliw	a2, a5, 0x10
   174d6: 51 8f        	c.or	a4, a2
   174d8: 23 ae e2 fe  	sw	a4, -0x4(t0)
   174dc: 9b d4 07 01  	srliw	s1, a5, 0x10
   174e0: 1b d7 07 01  	srliw	a4, a5, 0x10
   174e4: e3 ed bf fa  	bltu	t6, a1, 0x1749e <__multiply+0xa2>
   174e8: b3 07 e3 01  	add	a5, t1, t5
   174ec: 98 c3        	c.sw	a4, 0x0(a5)
   174ee: 83 2f 08 00  	lw	t6, 0x0(a6)
   174f2: 9b df 0f 01  	srliw	t6, t6, 0x10
   174f6: e3 87 0f f8  	beq	t6, zero, 0x17484 <__multiply+0x88>
   174fa: 03 27 03 00  	lw	a4, 0x0(t1)
   174fe: 9a 82        	c.mv	t0, t1
   17500: 76 86        	c.mv	a2, t4
   17502: ba 83        	c.mv	t2, a4
   17504: 81 44        	c.li	s1, 0x0
   17506: 1c 42        	c.lw	a5, 0x0(a2)
   17508: 9b d9 03 01  	srliw	s3, t2, 0x10
   1750c: 75 8f        	c.and	a4, a3
   1750e: f5 8f        	c.and	a5, a3
   17510: bb 87 f7 03  	mulw	a5, a5, t6
   17514: 83 a3 42 00  	lw	t2, 0x4(t0)
   17518: 91 02        	c.addi	t0, 0x4
   1751a: 11 06        	c.addi	a2, 0x4
   1751c: 33 f9 d3 00  	and	s2, t2, a3
   17520: a5 9f        	c.addw	a5, s1
   17522: bb 87 37 01  	addw	a5, a5, s3
   17526: 9b 94 07 01  	slliw	s1, a5, 0x10
   1752a: 45 8f        	c.or	a4, s1
   1752c: 23 ae e2 fe  	sw	a4, -0x4(t0)
   17530: 03 57 e6 ff  	lhu	a4, -0x2(a2)
   17534: 9b d7 07 01  	srliw	a5, a5, 0x10
   17538: 3b 07 f7 03  	mulw	a4, a4, t6
   1753c: 3b 07 27 01  	addw	a4, a4, s2
   17540: b9 9f        	c.addw	a5, a4
   17542: 1b 87 07 00  	addiw	a4, a5, 0x0
   17546: 9b d4 07 01  	srliw	s1, a5, 0x10
   1754a: e3 6e b6 fa  	bltu	a2, a1, 0x17506 <__multiply+0x10a>
   1754e: 33 07 e3 01  	add	a4, t1, t5
   17552: 1c c3        	c.sw	a5, 0x0(a4)
   17554: 11 08        	c.addi	a6, 0x4
   17556: 11 03        	c.addi	t1, 0x4
   17558: e3 6a c8 f3  	bltu	a6, t3, 0x1748c <__multiply+0x90>
   1755c: 63 45 80 00  	blt	zero, s0, 0x17566 <__multiply+0x16a>
   17560: 39 a0        	c.j	0x1756e <__multiply+0x172>
   17562: 7d 34        	c.addiw	s0, -0x1
   17564: 09 c4        	c.beqz	s0, 0x1756e <__multiply+0x172>
   17566: 83 a7 c8 ff  	lw	a5, -0x4(a7)
   1756a: f1 18        	c.addi	a7, -0x4
   1756c: fd db        	c.beqz	a5, 0x17562 <__multiply+0x166>
   1756e: a2 70        	c.ldsp	ra, 0x28(sp)
   17570: 40 c9        	c.sw	s0, 0x14(a0)
   17572: 02 74        	c.ldsp	s0, 0x20(sp)
   17574: e2 64        	c.ldsp	s1, 0x18(sp)
   17576: 42 69        	c.ldsp	s2, 0x10(sp)
   17578: a2 69        	c.ldsp	s3, 0x8(sp)
   1757a: 02 6a        	c.ldsp	s4, 0x0(sp)
   1757c: 45 61        	c.addi16sp	sp, 0x30
   1757e: 82 80        	c.jr	ra
   17580: b3 87 95 40  	sub	a5, a1, s1
   17584: 9d 17        	c.addi	a5, -0x19
   17586: f1 9b        	c.andi	a5, -0x4
   17588: 13 8f 47 00  	addi	t5, a5, 0x4
   1758c: ed b5        	c.j	0x17476 <__multiply+0x7a>
   1758e: b7 06 02 00  	lui	a3, 0x20
   17592: 37 05 02 00  	lui	a0, 0x20
   17596: 93 86 86 dd  	addi	a3, a3, -0x228
   1759a: 01 46        	c.li	a2, 0x0
   1759c: 93 05 20 16  	addi	a1, zero, 0x162
   175a0: 13 05 05 df  	addi	a0, a0, -0x210
   175a4: ef 00 30 26  	jal	ra, 0x18006 <__assert_func>

00000000000175a8 <__pow5mult>:
   175a8: 79 71        	c.addi16sp	sp, -0x30
   175aa: 22 f0        	c.sdsp	s0, 0x20(sp)
   175ac: 4a e8        	c.sdsp	s2, 0x10(sp)
   175ae: 4e e4        	c.sdsp	s3, 0x8(sp)
   175b0: 06 f4        	c.sdsp	ra, 0x28(sp)
   175b2: 93 77 36 00  	andi	a5, a2, 0x3
   175b6: 32 84        	c.mv	s0, a2
   175b8: aa 89        	c.mv	s3, a0
   175ba: 2e 89        	c.mv	s2, a1
   175bc: ad eb        	c.bnez	a5, 0x1762e <__pow5mult+0x86>
   175be: 09 84        	c.srai	s0, 0x2
   175c0: 31 c4        	c.beqz	s0, 0x1760c <__pow5mult+0x64>
   175c2: 26 ec        	c.sdsp	s1, 0x18(sp)
   175c4: 83 b4 09 06  	ld	s1, 0x60(s3)
   175c8: c1 c0        	c.beqz	s1, 0x17648 <__pow5mult+0xa0>
   175ca: 93 77 14 00  	andi	a5, s0, 0x1
   175ce: 89 eb        	c.bnez	a5, 0x175e0 <__pow5mult+0x38>
   175d0: 05 84        	c.srai	s0, 0x1
   175d2: 05 cc        	c.beqz	s0, 0x1760a <__pow5mult+0x62>
   175d4: 88 60        	c.ld	a0, 0x0(s1)
   175d6: 31 c1        	c.beqz	a0, 0x1761a <__pow5mult+0x72>
   175d8: aa 84        	c.mv	s1, a0
   175da: 93 77 14 00  	andi	a5, s0, 0x1
   175de: ed db        	c.beqz	a5, 0x175d0 <__pow5mult+0x28>
   175e0: 26 86        	c.mv	a2, s1
   175e2: ca 85        	c.mv	a1, s2
   175e4: 4e 85        	c.mv	a0, s3
   175e6: ef f0 7f e1  	jal	ra, 0x173fc <__multiply>
   175ea: 63 0d 09 00  	beq	s2, zero, 0x17604 <__pow5mult+0x5c>
   175ee: 03 27 89 00  	lw	a4, 0x8(s2)
   175f2: 83 b7 89 06  	ld	a5, 0x68(s3)
   175f6: 0e 07        	c.slli	a4, 0x3
   175f8: ba 97        	c.add	a5, a4
   175fa: 98 63        	c.ld	a4, 0x0(a5)
   175fc: 23 30 e9 00  	sd	a4, 0x0(s2)
   17600: 23 b0 27 01  	sd	s2, 0x0(a5)
   17604: 05 84        	c.srai	s0, 0x1
   17606: 2a 89        	c.mv	s2, a0
   17608: 71 f4        	c.bnez	s0, 0x175d4 <__pow5mult+0x2c>
   1760a: e2 64        	c.ldsp	s1, 0x18(sp)
   1760c: a2 70        	c.ldsp	ra, 0x28(sp)
   1760e: 02 74        	c.ldsp	s0, 0x20(sp)
   17610: a2 69        	c.ldsp	s3, 0x8(sp)
   17612: 4a 85        	c.mv	a0, s2
   17614: 42 69        	c.ldsp	s2, 0x10(sp)
   17616: 45 61        	c.addi16sp	sp, 0x30
   17618: 82 80        	c.jr	ra
   1761a: 26 86        	c.mv	a2, s1
   1761c: a6 85        	c.mv	a1, s1
   1761e: 4e 85        	c.mv	a0, s3
   17620: ef f0 df dd  	jal	ra, 0x173fc <__multiply>
   17624: 88 e0        	c.sd	a0, 0x0(s1)
   17626: 23 30 05 00  	sd	zero, 0x0(a0)
   1762a: aa 84        	c.mv	s1, a0
   1762c: 7d b7        	c.j	0x175da <__pow5mult+0x32>
   1762e: fd 37        	c.addiw	a5, -0x1
   17630: 37 07 02 00  	lui	a4, 0x20
   17634: 13 07 87 1c  	addi	a4, a4, 0x1c8
   17638: 8a 07        	c.slli	a5, 0x2
   1763a: ba 97        	c.add	a5, a4
   1763c: 90 43        	c.lw	a2, 0x0(a5)
   1763e: 81 46        	c.li	a3, 0x0
   17640: ef f0 7f a8  	jal	ra, 0x170c6 <__multadd>
   17644: 2a 89        	c.mv	s2, a0
   17646: a5 bf        	c.j	0x175be <__pow5mult+0x16>
   17648: 85 45        	c.li	a1, 0x1
   1764a: 4e 85        	c.mv	a0, s3
   1764c: ef f0 5f a0  	jal	ra, 0x17050 <_Balloc>
   17650: aa 84        	c.mv	s1, a0
   17652: 19 c9        	c.beqz	a0, 0x17668 <__pow5mult+0xc0>
   17654: 93 07 10 27  	addi	a5, zero, 0x271
   17658: 1c cd        	c.sw	a5, 0x18(a0)
   1765a: 85 47        	c.li	a5, 0x1
   1765c: 5c c9        	c.sw	a5, 0x14(a0)
   1765e: 23 b0 a9 06  	sd	a0, 0x60(s3)
   17662: 23 30 05 00  	sd	zero, 0x0(a0)
   17666: 95 b7        	c.j	0x175ca <__pow5mult+0x22>
   17668: b7 06 02 00  	lui	a3, 0x20
   1766c: 37 05 02 00  	lui	a0, 0x20
   17670: 93 86 86 dd  	addi	a3, a3, -0x228
   17674: 01 46        	c.li	a2, 0x0
   17676: 93 05 50 14  	addi	a1, zero, 0x145
   1767a: 13 05 05 df  	addi	a0, a0, -0x210
   1767e: ef 00 90 18  	jal	ra, 0x18006 <__assert_func>

0000000000017682 <__lshift>:
   17682: 39 71        	c.addi16sp	sp, -0x40
   17684: 22 f8        	c.sdsp	s0, 0x30(sp)
   17686: c0 49        	c.lw	s0, 0x14(a1)
   17688: dc 45        	c.lw	a5, 0xc(a1)
   1768a: 56 e4        	c.sdsp	s5, 0x8(sp)
   1768c: 9b 5a 56 40  	sraiw	s5, a2, 0x5
   17690: 3b 84 8a 00  	addw	s0, s5, s0
   17694: 26 f4        	c.sdsp	s1, 0x28(sp)
   17696: 4a f0        	c.sdsp	s2, 0x20(sp)
   17698: 4e ec        	c.sdsp	s3, 0x18(sp)
   1769a: 52 e8        	c.sdsp	s4, 0x10(sp)
   1769c: 5a e0        	c.sdsp	s6, 0x0(sp)
   1769e: 06 fc        	c.sdsp	ra, 0x38(sp)
   176a0: 1b 09 14 00  	addiw	s2, s0, 0x1
   176a4: ae 84        	c.mv	s1, a1
   176a6: 32 8a        	c.mv	s4, a2
   176a8: 8c 45        	c.lw	a1, 0x8(a1)
   176aa: aa 89        	c.mv	s3, a0
   176ac: 13 5b 56 40  	srai	s6, a2, 0x5
   176b0: 63 d7 27 01  	bge	a5, s2, 0x176be <__lshift+0x3c>
   176b4: 9b 97 17 00  	slliw	a5, a5, 0x1
   176b8: 85 25        	c.addiw	a1, 0x1
   176ba: e3 cd 27 ff  	blt	a5, s2, 0x176b4 <__lshift+0x32>
   176be: 4e 85        	c.mv	a0, s3
   176c0: ef f0 1f 99  	jal	ra, 0x17050 <_Balloc>
   176c4: 71 c5        	c.beqz	a0, 0x17790 <__lshift+0x10e>
   176c6: 13 07 85 01  	addi	a4, a0, 0x18
   176ca: 63 51 60 03  	bge	zero, s6, 0x176ec <__lshift+0x6a>
   176ce: 9b 86 6a 00  	addiw	a3, s5, 0x6
   176d2: 8a 06        	c.slli	a3, 0x2
   176d4: aa 96        	c.add	a3, a0
   176d6: ba 87        	c.mv	a5, a4
   176d8: 91 07        	c.addi	a5, 0x4
   176da: 23 ae 07 fe  	sw	zero, -0x4(a5)
   176de: e3 9d d7 fe  	bne	a5, a3, 0x176d8 <__lshift+0x56>
   176e2: 93 97 0a 02  	slli	a5, s5, 0x20
   176e6: 93 da e7 01  	srli	s5, a5, 0x1e
   176ea: 56 97        	c.add	a4, s5
   176ec: 83 a8 44 01  	lw	a7, 0x14(s1)
   176f0: 93 87 84 01  	addi	a5, s1, 0x18
   176f4: 13 76 fa 01  	andi	a2, s4, 0x1f
   176f8: 8a 08        	c.slli	a7, 0x2
   176fa: be 98        	c.add	a7, a5
   176fc: 3d ca        	c.beqz	a2, 0x17772 <__lshift+0xf0>
   176fe: 93 05 00 02  	addi	a1, zero, 0x20
   17702: 91 9d        	c.subw	a1, a2
   17704: 3a 83        	c.mv	t1, a4
   17706: 81 46        	c.li	a3, 0x0
   17708: 03 a8 07 00  	lw	a6, 0x0(a5)
   1770c: 11 03        	c.addi	t1, 0x4
   1770e: 91 07        	c.addi	a5, 0x4
   17710: 3b 18 c8 00  	sllw	a6, a6, a2
   17714: b3 e6 06 01  	or	a3, a3, a6
   17718: 23 2e d3 fe  	sw	a3, -0x4(t1)
   1771c: 03 a8 c7 ff  	lw	a6, -0x4(a5)
   17720: bb 56 b8 00  	srlw	a3, a6, a1
   17724: 36 88        	c.mv	a6, a3
   17726: e3 e1 17 ff  	bltu	a5, a7, 0x17708 <__lshift+0x86>
   1772a: 93 87 94 01  	addi	a5, s1, 0x19
   1772e: 11 46        	c.li	a2, 0x4
   17730: 63 e8 f8 00  	bltu	a7, a5, 0x17740 <__lshift+0xbe>
   17734: b3 87 98 40  	sub	a5, a7, s1
   17738: 9d 17        	c.addi	a5, -0x19
   1773a: f1 9b        	c.andi	a5, -0x4
   1773c: 13 86 47 00  	addi	a2, a5, 0x4
   17740: 32 97        	c.add	a4, a2
   17742: 23 20 07 01  	sw	a6, 0x0(a4)
   17746: 91 e2        	c.bnez	a3, 0x1774a <__lshift+0xc8>
   17748: 22 89        	c.mv	s2, s0
   1774a: 98 44        	c.lw	a4, 0x8(s1)
   1774c: 83 b7 89 06  	ld	a5, 0x68(s3)
   17750: e2 70        	c.ldsp	ra, 0x38(sp)
   17752: 0e 07        	c.slli	a4, 0x3
   17754: ba 97        	c.add	a5, a4
   17756: 98 63        	c.ld	a4, 0x0(a5)
   17758: 23 2a 25 01  	sw	s2, 0x14(a0)
   1775c: 42 74        	c.ldsp	s0, 0x30(sp)
   1775e: 98 e0        	c.sd	a4, 0x0(s1)
   17760: 84 e3        	c.sd	s1, 0x0(a5)
   17762: 02 79        	c.ldsp	s2, 0x20(sp)
   17764: a2 74        	c.ldsp	s1, 0x28(sp)
   17766: e2 69        	c.ldsp	s3, 0x18(sp)
   17768: 42 6a        	c.ldsp	s4, 0x10(sp)
   1776a: a2 6a        	c.ldsp	s5, 0x8(sp)
   1776c: 02 6b        	c.ldsp	s6, 0x0(sp)
   1776e: 21 61        	c.addi16sp	sp, 0x40
   17770: 82 80        	c.jr	ra
   17772: 94 43        	c.lw	a3, 0x0(a5)
   17774: 91 07        	c.addi	a5, 0x4
   17776: 11 07        	c.addi	a4, 0x4
   17778: 23 2e d7 fe  	sw	a3, -0x4(a4)
   1777c: e3 f6 17 fd  	bgeu	a5, a7, 0x17748 <__lshift+0xc6>
   17780: 94 43        	c.lw	a3, 0x0(a5)
   17782: 91 07        	c.addi	a5, 0x4
   17784: 11 07        	c.addi	a4, 0x4
   17786: 23 2e d7 fe  	sw	a3, -0x4(a4)
   1778a: e3 e4 17 ff  	bltu	a5, a7, 0x17772 <__lshift+0xf0>
   1778e: 6d bf        	c.j	0x17748 <__lshift+0xc6>
   17790: b7 06 02 00  	lui	a3, 0x20
   17794: 37 05 02 00  	lui	a0, 0x20
   17798: 93 86 86 dd  	addi	a3, a3, -0x228
   1779c: 01 46        	c.li	a2, 0x0
   1779e: 93 05 e0 1d  	addi	a1, zero, 0x1de
   177a2: 13 05 05 df  	addi	a0, a0, -0x210
   177a6: ef 00 10 06  	jal	ra, 0x18006 <__assert_func>

00000000000177aa <__mcmp>:
   177aa: dc 49        	c.lw	a5, 0x14(a1)
   177ac: 2a 88        	c.mv	a6, a0
   177ae: 48 49        	c.lw	a0, 0x14(a0)
   177b0: 1d 9d        	c.subw	a0, a5
   177b2: 1d e5        	c.bnez	a0, 0x177e0 <__mcmp+0x36>
   177b4: 8a 07        	c.slli	a5, 0x2
   177b6: 61 08        	c.addi	a6, 0x18
   177b8: e1 05        	c.addi	a1, 0x18
   177ba: 33 07 f8 00  	add	a4, a6, a5
   177be: ae 97        	c.add	a5, a1
   177c0: 19 a0        	c.j	0x177c6 <__mcmp+0x1c>
   177c2: 63 7f e8 00  	bgeu	a6, a4, 0x177e0 <__mcmp+0x36>
   177c6: 03 26 c7 ff  	lw	a2, -0x4(a4)
   177ca: 83 a6 c7 ff  	lw	a3, -0x4(a5)
   177ce: 71 17        	c.addi	a4, -0x4
   177d0: f1 17        	c.addi	a5, -0x4
   177d2: e3 08 d6 fe  	beq	a2, a3, 0x177c2 <__mcmp+0x18>
   177d6: 05 45        	c.li	a0, 0x1
   177d8: 63 74 d6 00  	bgeu	a2, a3, 0x177e0 <__mcmp+0x36>
   177dc: 7d 55        	c.li	a0, -0x1
   177de: 82 80        	c.jr	ra
   177e0: 82 80        	c.jr	ra

00000000000177e2 <__mdiff>:
   177e2: d8 49        	c.lw	a4, 0x14(a1)
   177e4: 5c 4a        	c.lw	a5, 0x14(a2)
   177e6: 01 11        	c.addi	sp, -0x20
   177e8: 22 e8        	c.sdsp	s0, 0x10(sp)
   177ea: 26 e4        	c.sdsp	s1, 0x8(sp)
   177ec: 06 ec        	c.sdsp	ra, 0x18(sp)
   177ee: 4a e0        	c.sdsp	s2, 0x0(sp)
   177f0: 1d 9f        	c.subw	a4, a5
   177f2: 2e 84        	c.mv	s0, a1
   177f4: b2 84        	c.mv	s1, a2
   177f6: 63 10 07 14  	bne	a4, zero, 0x17936 <__mdiff+0x154>
   177fa: 93 96 27 00  	slli	a3, a5, 0x2
   177fe: 13 86 85 01  	addi	a2, a1, 0x18
   17802: 13 87 84 01  	addi	a4, s1, 0x18
   17806: b3 07 d6 00  	add	a5, a2, a3
   1780a: 36 97        	c.add	a4, a3
   1780c: 19 a0        	c.j	0x17812 <__mdiff+0x30>
   1780e: 63 7c f6 12  	bgeu	a2, a5, 0x17946 <__mdiff+0x164>
   17812: 83 a5 c7 ff  	lw	a1, -0x4(a5)
   17816: 83 26 c7 ff  	lw	a3, -0x4(a4)
   1781a: f1 17        	c.addi	a5, -0x4
   1781c: 71 17        	c.addi	a4, -0x4
   1781e: e3 88 d5 fe  	beq	a1, a3, 0x1780e <__mdiff+0x2c>
   17822: 05 49        	c.li	s2, 0x1
   17824: 63 e6 d5 00  	bltu	a1, a3, 0x17830 <__mdiff+0x4e>
   17828: a6 87        	c.mv	a5, s1
   1782a: 01 49        	c.li	s2, 0x0
   1782c: a2 84        	c.mv	s1, s0
   1782e: 3e 84        	c.mv	s0, a5
   17830: 8c 44        	c.lw	a1, 0x8(s1)
   17832: ef f0 ff 81  	jal	ra, 0x17050 <_Balloc>
   17836: 63 0f 05 12  	beq	a0, zero, 0x17974 <__mdiff+0x192>
   1783a: 03 a3 44 01  	lw	t1, 0x14(s1)
   1783e: 83 22 44 01  	lw	t0, 0x14(s0)
   17842: 13 8f 84 01  	addi	t5, s1, 0x18
   17846: 13 1e 23 00  	slli	t3, t1, 0x2
   1784a: 13 08 84 01  	addi	a6, s0, 0x18
   1784e: 8a 02        	c.slli	t0, 0x2
   17850: 93 0f 85 01  	addi	t6, a0, 0x18
   17854: c1 68        	c.lui	a7, 0x10
   17856: 23 28 25 01  	sw	s2, 0x10(a0)
   1785a: 7a 9e        	c.add	t3, t5
   1785c: c2 92        	c.add	t0, a6
   1785e: fe 85        	c.mv	a1, t6
   17860: fa 8e        	c.mv	t4, t5
   17862: 01 46        	c.li	a2, 0x0
   17864: fd 18        	c.addi	a7, -0x1
   17866: 03 a7 0e 00  	lw	a4, 0x0(t4)
   1786a: 83 26 08 00  	lw	a3, 0x0(a6)
   1786e: 91 05        	c.addi	a1, 0x4
   17870: b3 77 17 01  	and	a5, a4, a7
   17874: b3 f3 16 01  	and	t2, a3, a7
   17878: bb 87 77 40  	subw	a5, a5, t2
   1787c: b1 9f        	c.addw	a5, a2
   1787e: 9b d6 06 01  	srliw	a3, a3, 0x10
   17882: 1b 57 07 01  	srliw	a4, a4, 0x10
   17886: 15 9f        	c.subw	a4, a3
   17888: 9b d6 07 41  	sraiw	a3, a5, 0x10
   1788c: 35 9f        	c.addw	a4, a3
   1788e: b3 f7 f8 00  	and	a5, a7, a5
   17892: 9b 16 07 01  	slliw	a3, a4, 0x10
   17896: d5 8f        	c.or	a5, a3
   17898: 81 27        	c.addiw	a5, 0x0
   1789a: 11 08        	c.addi	a6, 0x4
   1789c: 23 ae f5 fe  	sw	a5, -0x4(a1)
   178a0: 91 0e        	c.addi	t4, 0x4
   178a2: 1b 56 07 41  	sraiw	a2, a4, 0x10
   178a6: e3 60 58 fc  	bltu	a6, t0, 0x17866 <__mdiff+0x84>
   178aa: 13 07 94 01  	addi	a4, s0, 0x19
   178ae: 33 84 82 40  	sub	s0, t0, s0
   178b2: 1d 14        	c.addi	s0, -0x19
   178b4: b3 b2 e2 00  	sltu	t0, t0, a4
   178b8: 93 c8 12 00  	xori	a7, t0, 0x1
   178bc: 09 80        	c.srli	s0, 0x2
   178be: 11 47        	c.li	a4, 0x4
   178c0: 63 8f 02 06  	beq	t0, zero, 0x1793e <__mdiff+0x15c>
   178c4: 3a 9f        	c.add	t5, a4
   178c6: b3 8e ef 00  	add	t4, t6, a4
   178ca: 41 68        	c.lui	a6, 0x10
   178cc: f6 85        	c.mv	a1, t4
   178ce: fa 86        	c.mv	a3, t5
   178d0: 7d 18        	c.addi	a6, -0x1
   178d2: 63 78 cf 09  	bgeu	t5, t3, 0x17962 <__mdiff+0x180>
   178d6: 9c 42        	c.lw	a5, 0x0(a3)
   178d8: 9b 08 06 00  	addiw	a7, a2, 0x0
   178dc: 91 05        	c.addi	a1, 0x4
   178de: 33 f7 07 01  	and	a4, a5, a6
   178e2: 31 9f        	c.addw	a4, a2
   178e4: 1b 57 07 41  	sraiw	a4, a4, 0x10
   178e8: 1b d6 07 01  	srliw	a2, a5, 0x10
   178ec: 31 9f        	c.addw	a4, a2
   178ee: bb 87 17 01  	addw	a5, a5, a7
   178f2: 1b 16 07 01  	slliw	a2, a4, 0x10
   178f6: b3 f7 07 01  	and	a5, a5, a6
   178fa: d1 8f        	c.or	a5, a2
   178fc: 81 27        	c.addiw	a5, 0x0
   178fe: 91 06        	c.addi	a3, 0x4
   17900: 23 ae f5 fe  	sw	a5, -0x4(a1)
   17904: 1b 56 07 41  	sraiw	a2, a4, 0x10
   17908: e3 e7 c6 fd  	bltu	a3, t3, 0x178d6 <__mdiff+0xf4>
   1790c: 7d 1e        	c.addi	t3, -0x1
   1790e: 33 0e ee 41  	sub	t3, t3, t5
   17912: 13 7e ce ff  	andi	t3, t3, -0x4
   17916: 33 87 ce 01  	add	a4, t4, t3
   1791a: 91 e7        	c.bnez	a5, 0x17926 <__mdiff+0x144>
   1791c: 83 27 c7 ff  	lw	a5, -0x4(a4)
   17920: 7d 33        	c.addiw	t1, -0x1
   17922: 71 17        	c.addi	a4, -0x4
   17924: e5 df        	c.beqz	a5, 0x1791c <__mdiff+0x13a>
   17926: e2 60        	c.ldsp	ra, 0x18(sp)
   17928: 42 64        	c.ldsp	s0, 0x10(sp)
   1792a: 23 2a 65 00  	sw	t1, 0x14(a0)
   1792e: a2 64        	c.ldsp	s1, 0x8(sp)
   17930: 02 69        	c.ldsp	s2, 0x0(sp)
   17932: 05 61        	c.addi16sp	sp, 0x20
   17934: 82 80        	c.jr	ra
   17936: 05 49        	c.li	s2, 0x1
   17938: e3 58 07 ee  	bge	a4, zero, 0x17828 <__mdiff+0x46>
   1793c: d5 bd        	c.j	0x17830 <__mdiff+0x4e>
   1793e: 13 07 14 00  	addi	a4, s0, 0x1
   17942: 0a 07        	c.slli	a4, 0x2
   17944: 41 b7        	c.j	0x178c4 <__mdiff+0xe2>
   17946: 81 45        	c.li	a1, 0x0
   17948: ef f0 8f f0  	jal	ra, 0x17050 <_Balloc>
   1794c: 29 c1        	c.beqz	a0, 0x1798e <__mdiff+0x1ac>
   1794e: e2 60        	c.ldsp	ra, 0x18(sp)
   17950: 42 64        	c.ldsp	s0, 0x10(sp)
   17952: 85 47        	c.li	a5, 0x1
   17954: 5c c9        	c.sw	a5, 0x14(a0)
   17956: 23 2c 05 00  	sw	zero, 0x18(a0)
   1795a: a2 64        	c.ldsp	s1, 0x8(sp)
   1795c: 02 69        	c.ldsp	s2, 0x0(sp)
   1795e: 05 61        	c.addi16sp	sp, 0x20
   17960: 82 80        	c.jr	ra
   17962: 01 47        	c.li	a4, 0x0
   17964: 63 94 08 00  	bne	a7, zero, 0x1796c <__mdiff+0x18a>
   17968: 7e 97        	c.add	a4, t6
   1796a: 45 bf        	c.j	0x1791a <__mdiff+0x138>
   1796c: 13 17 24 00  	slli	a4, s0, 0x2
   17970: 7e 97        	c.add	a4, t6
   17972: 65 b7        	c.j	0x1791a <__mdiff+0x138>
   17974: b7 06 02 00  	lui	a3, 0x20
   17978: 37 05 02 00  	lui	a0, 0x20
   1797c: 93 86 86 dd  	addi	a3, a3, -0x228
   17980: 01 46        	c.li	a2, 0x0
   17982: 93 05 50 24  	addi	a1, zero, 0x245
   17986: 13 05 05 df  	addi	a0, a0, -0x210
   1798a: ef 00 c0 67  	jal	ra, 0x18006 <__assert_func>
   1798e: b7 06 02 00  	lui	a3, 0x20
   17992: 37 05 02 00  	lui	a0, 0x20
   17996: 93 86 86 dd  	addi	a3, a3, -0x228
   1799a: 01 46        	c.li	a2, 0x0
   1799c: 93 05 70 23  	addi	a1, zero, 0x237
   179a0: 13 05 05 df  	addi	a0, a0, -0x210
   179a4: ef 00 20 66  	jal	ra, 0x18006 <__assert_func>

00000000000179a8 <__ulp>:
   179a8: 53 07 05 e2  	fmv.x.d	a4, fa0
   179ac: b7 07 f0 7f  	lui	a5, 0x7ff00
   179b0: 01 93        	c.srli	a4, 0x20
   179b2: 7d 8f        	c.and	a4, a5
   179b4: b7 07 c0 fc  	lui	a5, 0xfcc00
   179b8: bb 86 e7 00  	addw	a3, a5, a4
   179bc: 01 47        	c.li	a4, 0x0
   179be: 63 59 d0 00  	bge	zero, a3, 0x179d0 <__ulp+0x28>
   179c2: 02 17        	c.slli	a4, 0x20
   179c4: 82 16        	c.slli	a3, 0x20
   179c6: 01 93        	c.srli	a4, 0x20
   179c8: 55 8f        	c.or	a4, a3
   179ca: 53 05 07 f2  	fmv.d.x	fa0, a4
   179ce: 82 80        	c.jr	ra
   179d0: bb 07 d0 40  	subw	a5, zero, a3
   179d4: 1b d7 47 41  	sraiw	a4, a5, 0x14
   179d8: cd 46        	c.li	a3, 0x13
   179da: 63 ce e6 00  	blt	a3, a4, 0x179f6 <__ulp+0x4e>
   179de: b7 06 08 00  	lui	a3, 0x80
   179e2: bb d6 e6 40  	sraw	a3, a3, a4
   179e6: 01 47        	c.li	a4, 0x0
   179e8: 02 17        	c.slli	a4, 0x20
   179ea: 82 16        	c.slli	a3, 0x20
   179ec: 01 93        	c.srli	a4, 0x20
   179ee: 55 8f        	c.or	a4, a3
   179f0: 53 05 07 f2  	fmv.d.x	fa0, a4
   179f4: 82 80        	c.jr	ra
   179f6: 9b 07 c7 fe  	addiw	a5, a4, -0x14
   179fa: f9 46        	c.li	a3, 0x1e
   179fc: 05 47        	c.li	a4, 0x1
   179fe: 63 c6 f6 00  	blt	a3, a5, 0x17a0a <__ulp+0x62>
   17a02: 37 07 00 80  	lui	a4, 0x80000
   17a06: 3b 57 f7 00  	srlw	a4, a4, a5
   17a0a: 81 46        	c.li	a3, 0x0
   17a0c: 02 17        	c.slli	a4, 0x20
   17a0e: 82 16        	c.slli	a3, 0x20
   17a10: 01 93        	c.srli	a4, 0x20
   17a12: 55 8f        	c.or	a4, a3
   17a14: 53 05 07 f2  	fmv.d.x	fa0, a4
   17a18: 82 80        	c.jr	ra

0000000000017a1a <__b2d>:
   17a1a: 79 71        	c.addi16sp	sp, -0x30
   17a1c: 26 ec        	c.sdsp	s1, 0x18(sp)
   17a1e: 44 49        	c.lw	s1, 0x14(a0)
   17a20: 22 f0        	c.sdsp	s0, 0x20(sp)
   17a22: 13 04 85 01  	addi	s0, a0, 0x18
   17a26: 8a 04        	c.slli	s1, 0x2
   17a28: a2 94        	c.add	s1, s0
   17a2a: 4a e8        	c.sdsp	s2, 0x10(sp)
   17a2c: 03 a9 c4 ff  	lw	s2, -0x4(s1)
   17a30: 4e e4        	c.sdsp	s3, 0x8(sp)
   17a32: 52 e0        	c.sdsp	s4, 0x0(sp)
   17a34: 4a 85        	c.mv	a0, s2
   17a36: ae 89        	c.mv	s3, a1
   17a38: 06 f4        	c.sdsp	ra, 0x28(sp)
   17a3a: ef f0 1f 86  	jal	ra, 0x1729a <__hi0bits>
   17a3e: 93 06 00 02  	addi	a3, zero, 0x20
   17a42: bb 87 a6 40  	subw	a5, a3, a0
   17a46: 23 a0 f9 00  	sw	a5, 0x0(s3)
   17a4a: a9 47        	c.li	a5, 0xa
   17a4c: 13 8a c4 ff  	addi	s4, s1, -0x4
   17a50: 63 d5 a7 08  	bge	a5, a0, 0x17ada <__b2d+0xc0>
   17a54: 9b 07 55 ff  	addiw	a5, a0, -0xb
   17a58: 63 71 44 05  	bgeu	s0, s4, 0x17a9a <__b2d+0x80>
   17a5c: 03 a7 84 ff  	lw	a4, -0x8(s1)
   17a60: a9 cb        	c.beqz	a5, 0x17ab2 <__b2d+0x98>
   17a62: 9d 9e        	c.subw	a3, a5
   17a64: 3b 56 d7 00  	srlw	a2, a4, a3
   17a68: 3b 19 f9 00  	sllw	s2, s2, a5
   17a6c: 33 69 c9 00  	or	s2, s2, a2
   17a70: 37 06 f0 3f  	lui	a2, 0x3ff00
   17a74: 33 69 c9 00  	or	s2, s2, a2
   17a78: bb 15 f7 00  	sllw	a1, a4, a5
   17a7c: 13 86 84 ff  	addi	a2, s1, -0x8
   17a80: 93 17 09 02  	slli	a5, s2, 0x20
   17a84: 1b 87 05 00  	addiw	a4, a1, 0x0
   17a88: 63 7a c4 02  	bgeu	s0, a2, 0x17abc <__b2d+0xa2>
   17a8c: 03 a7 44 ff  	lw	a4, -0xc(s1)
   17a90: 3b 57 d7 00  	srlw	a4, a4, a3
   17a94: 4d 8f        	c.or	a4, a1
   17a96: 01 27        	c.addiw	a4, 0x0
   17a98: 15 a0        	c.j	0x17abc <__b2d+0xa2>
   17a9a: 2d 47        	c.li	a4, 0xb
   17a9c: 63 0a e5 00  	beq	a0, a4, 0x17ab0 <__b2d+0x96>
   17aa0: 37 07 f0 3f  	lui	a4, 0x3ff00
   17aa4: bb 17 f9 00  	sllw	a5, s2, a5
   17aa8: d9 8f        	c.or	a5, a4
   17aaa: 82 17        	c.slli	a5, 0x20
   17aac: 01 47        	c.li	a4, 0x0
   17aae: 39 a0        	c.j	0x17abc <__b2d+0xa2>
   17ab0: 01 47        	c.li	a4, 0x0
   17ab2: b7 07 f0 3f  	lui	a5, 0x3ff00
   17ab6: b3 67 f9 00  	or	a5, s2, a5
   17aba: 82 17        	c.slli	a5, 0x20
   17abc: a2 70        	c.ldsp	ra, 0x28(sp)
   17abe: 02 74        	c.ldsp	s0, 0x20(sp)
   17ac0: 81 93        	c.srli	a5, 0x20
   17ac2: 02 17        	c.slli	a4, 0x20
   17ac4: 01 93        	c.srli	a4, 0x20
   17ac6: 82 17        	c.slli	a5, 0x20
   17ac8: d9 8f        	c.or	a5, a4
   17aca: e2 64        	c.ldsp	s1, 0x18(sp)
   17acc: 42 69        	c.ldsp	s2, 0x10(sp)
   17ace: a2 69        	c.ldsp	s3, 0x8(sp)
   17ad0: 02 6a        	c.ldsp	s4, 0x0(sp)
   17ad2: 53 85 07 f2  	fmv.d.x	fa0, a5
   17ad6: 45 61        	c.addi16sp	sp, 0x30
   17ad8: 82 80        	c.jr	ra
   17ada: ad 46        	c.li	a3, 0xb
   17adc: 89 9e        	c.subw	a3, a0
   17ade: 37 07 f0 3f  	lui	a4, 0x3ff00
   17ae2: bb 57 d9 00  	srlw	a5, s2, a3
   17ae6: d9 8f        	c.or	a5, a4
   17ae8: 82 17        	c.slli	a5, 0x20
   17aea: 01 47        	c.li	a4, 0x0
   17aec: 63 76 44 01  	bgeu	s0, s4, 0x17af8 <__b2d+0xde>
   17af0: 03 a7 84 ff  	lw	a4, -0x8(s1)
   17af4: 3b 57 d7 00  	srlw	a4, a4, a3
   17af8: 55 25        	c.addiw	a0, 0x15
   17afa: 3b 15 a9 00  	sllw	a0, s2, a0
   17afe: 49 8f        	c.or	a4, a0
   17b00: 01 27        	c.addiw	a4, 0x0
   17b02: 6d bf        	c.j	0x17abc <__b2d+0xa2>

0000000000017b04 <__d2b>:
   17b04: 39 71        	c.addi16sp	sp, -0x40
   17b06: 52 e8        	c.sdsp	s4, 0x10(sp)
   17b08: 2e 8a        	c.mv	s4, a1
   17b0a: 85 45        	c.li	a1, 0x1
   17b0c: 22 f8        	c.sdsp	s0, 0x30(sp)
   17b0e: 4a f0        	c.sdsp	s2, 0x20(sp)
   17b10: 06 fc        	c.sdsp	ra, 0x38(sp)
   17b12: 26 f4        	c.sdsp	s1, 0x28(sp)
   17b14: 4e ec        	c.sdsp	s3, 0x18(sp)
   17b16: 53 04 05 e2  	fmv.x.d	s0, fa0
   17b1a: 32 89        	c.mv	s2, a2
   17b1c: ef f0 4f d3  	jal	ra, 0x17050 <_Balloc>
   17b20: 55 c9        	c.beqz	a0, 0x17bd4 <__d2b+0xd0>
   17b22: 93 57 04 42  	srai	a5, s0, 0x20
   17b26: 9b d9 47 01  	srliw	s3, a5, 0x14
   17b2a: 93 f9 f9 7f  	andi	s3, s3, 0x7ff
   17b2e: b2 17        	c.slli	a5, 0x2c
   17b30: aa 84        	c.mv	s1, a0
   17b32: b1 93        	c.srli	a5, 0x2c
   17b34: 63 85 09 00  	beq	s3, zero, 0x17b3e <__d2b+0x3a>
   17b38: 37 07 10 00  	lui	a4, 0x100
   17b3c: d9 8f        	c.or	a5, a4
   17b3e: 3e c6        	c.swsp	a5, 0xc(sp)
   17b40: 01 24        	c.addiw	s0, 0x0
   17b42: 29 e0        	c.bnez	s0, 0x17b84 <__d2b+0x80>
   17b44: 68 00        	c.addi4spn	a0, sp, 0xc
   17b46: ef f0 2f fb  	jal	ra, 0x172f8 <__lo0bits>
   17b4a: b2 47        	c.lwsp	a5, 0xc(sp)
   17b4c: 05 44        	c.li	s0, 0x1
   17b4e: c0 c8        	c.sw	s0, 0x14(s1)
   17b50: 9c cc        	c.sw	a5, 0x18(s1)
   17b52: 1b 05 05 02  	addiw	a0, a0, 0x20
   17b56: 63 80 09 06  	beq	s3, zero, 0x17bb6 <__d2b+0xb2>
   17b5a: 9b 89 d9 bc  	addiw	s3, s3, -0x433
   17b5e: bb 89 a9 00  	addw	s3, s3, a0
   17b62: 13 04 50 03  	addi	s0, zero, 0x35
   17b66: 23 20 3a 01  	sw	s3, 0x0(s4)
   17b6a: 3b 05 a4 40  	subw	a0, s0, a0
   17b6e: e2 70        	c.ldsp	ra, 0x38(sp)
   17b70: 42 74        	c.ldsp	s0, 0x30(sp)
   17b72: 23 20 a9 00  	sw	a0, 0x0(s2)
   17b76: e2 69        	c.ldsp	s3, 0x18(sp)
   17b78: 02 79        	c.ldsp	s2, 0x20(sp)
   17b7a: 42 6a        	c.ldsp	s4, 0x10(sp)
   17b7c: 26 85        	c.mv	a0, s1
   17b7e: a2 74        	c.ldsp	s1, 0x28(sp)
   17b80: 21 61        	c.addi16sp	sp, 0x40
   17b82: 82 80        	c.jr	ra
   17b84: 28 00        	c.addi4spn	a0, sp, 0x8
   17b86: 22 c4        	c.swsp	s0, 0x8(sp)
   17b88: ef f0 0f f7  	jal	ra, 0x172f8 <__lo0bits>
   17b8c: b2 47        	c.lwsp	a5, 0xc(sp)
   17b8e: 22 47        	c.lwsp	a4, 0x8(sp)
   17b90: 19 c9        	c.beqz	a0, 0x17ba6 <__d2b+0xa2>
   17b92: 93 06 00 02  	addi	a3, zero, 0x20
   17b96: 89 9e        	c.subw	a3, a0
   17b98: bb 96 d7 00  	sllw	a3, a5, a3
   17b9c: 55 8f        	c.or	a4, a3
   17b9e: bb d7 a7 00  	srlw	a5, a5, a0
   17ba2: 01 27        	c.addiw	a4, 0x0
   17ba4: 3e c6        	c.swsp	a5, 0xc(sp)
   17ba6: 33 34 f0 00  	sltu	s0, zero, a5
   17baa: 05 04        	c.addi	s0, 0x1
   17bac: 98 cc        	c.sw	a4, 0x18(s1)
   17bae: dc cc        	c.sw	a5, 0x1c(s1)
   17bb0: c0 c8        	c.sw	s0, 0x14(s1)
   17bb2: e3 94 09 fa  	bne	s3, zero, 0x17b5a <__d2b+0x56>
   17bb6: 1b 05 e5 bc  	addiw	a0, a0, -0x432
   17bba: 93 17 24 00  	slli	a5, s0, 0x2
   17bbe: 23 20 aa 00  	sw	a0, 0x0(s4)
   17bc2: a6 97        	c.add	a5, s1
   17bc4: c8 4b        	c.lw	a0, 0x14(a5)
   17bc6: 1b 14 54 00  	slliw	s0, s0, 0x5
   17bca: ef f0 0f ed  	jal	ra, 0x1729a <__hi0bits>
   17bce: 3b 05 a4 40  	subw	a0, s0, a0
   17bd2: 71 bf        	c.j	0x17b6e <__d2b+0x6a>
   17bd4: b7 06 02 00  	lui	a3, 0x20
   17bd8: 37 05 02 00  	lui	a0, 0x20
   17bdc: 93 86 86 dd  	addi	a3, a3, -0x228
   17be0: 01 46        	c.li	a2, 0x0
   17be2: 93 05 f0 30  	addi	a1, zero, 0x30f
   17be6: 13 05 05 df  	addi	a0, a0, -0x210
   17bea: ef 00 c0 41  	jal	ra, 0x18006 <__assert_func>

0000000000017bee <__ratio>:
   17bee: 79 71        	c.addi16sp	sp, -0x30
   17bf0: 26 ec        	c.sdsp	s1, 0x18(sp)
   17bf2: ae 84        	c.mv	s1, a1
   17bf4: 2c 00        	c.addi4spn	a1, sp, 0x8
   17bf6: 06 f4        	c.sdsp	ra, 0x28(sp)
   17bf8: 22 f0        	c.sdsp	s0, 0x20(sp)
   17bfa: 4a e8        	c.sdsp	s2, 0x10(sp)
   17bfc: 2a 89        	c.mv	s2, a0
   17bfe: ef f0 df e1  	jal	ra, 0x17a1a <__b2d>
   17c02: 6c 00        	c.addi4spn	a1, sp, 0xc
   17c04: 26 85        	c.mv	a0, s1
   17c06: 53 04 05 e2  	fmv.x.d	s0, fa0
   17c0a: ef f0 1f e1  	jal	ra, 0x17a1a <__b2d>
   17c0e: 83 27 49 01  	lw	a5, 0x14(s2)
   17c12: d0 48        	c.lw	a2, 0x14(s1)
   17c14: b2 46        	c.lwsp	a3, 0xc(sp)
   17c16: 22 47        	c.lwsp	a4, 0x8(sp)
   17c18: 91 9f        	c.subw	a5, a2
   17c1a: 9b 97 57 00  	slliw	a5, a5, 0x5
   17c1e: 15 9f        	c.subw	a4, a3
   17c20: bb 86 e7 00  	addw	a3, a5, a4
   17c24: b6 87        	c.mv	a5, a3
   17c26: 53 07 05 e2  	fmv.x.d	a4, fa0
   17c2a: 63 59 d0 02  	bge	zero, a3, 0x17c5c <__ratio+0x6e>
   17c2e: 93 56 04 02  	srli	a3, s0, 0x20
   17c32: 9b 97 47 01  	slliw	a5, a5, 0x14
   17c36: b5 9f        	c.addw	a5, a3
   17c38: fd 56        	c.li	a3, -0x1
   17c3a: 81 92        	c.srli	a3, 0x20
   17c3c: 82 17        	c.slli	a5, 0x20
   17c3e: e1 8e        	c.and	a3, s0
   17c40: 33 e4 f6 00  	or	s0, a3, a5
   17c44: d3 07 04 f2  	fmv.d.x	fa5, s0
   17c48: a2 70        	c.ldsp	ra, 0x28(sp)
   17c4a: 02 74        	c.ldsp	s0, 0x20(sp)
   17c4c: 53 07 07 f2  	fmv.d.x	fa4, a4
   17c50: e2 64        	c.ldsp	s1, 0x18(sp)
   17c52: 42 69        	c.ldsp	s2, 0x10(sp)
   17c54: 53 f5 e7 1a  	fdiv.d	fa0, fa5, fa4, dyn
   17c58: 45 61        	c.addi16sp	sp, 0x30
   17c5a: 82 80        	c.jr	ra
   17c5c: 93 56 07 02  	srli	a3, a4, 0x20
   17c60: 9b 97 47 01  	slliw	a5, a5, 0x14
   17c64: bb 87 f6 40  	subw	a5, a3, a5
   17c68: fd 56        	c.li	a3, -0x1
   17c6a: 81 92        	c.srli	a3, 0x20
   17c6c: 82 17        	c.slli	a5, 0x20
   17c6e: 75 8f        	c.and	a4, a3
   17c70: 5d 8f        	c.or	a4, a5
   17c72: c9 bf        	c.j	0x17c44 <__ratio+0x56>

0000000000017c74 <_mprec_log10>:
   17c74: dd 47        	c.li	a5, 0x17
   17c76: 63 db a7 00  	bge	a5, a0, 0x17c8c <_mprec_log10+0x18>
   17c7a: 07 b5 81 83  	fld	fa0, -0x7c8(gp)
   17c7e: 87 b7 01 84  	fld	fa5, -0x7c0(gp)
   17c82: 7d 35        	c.addiw	a0, -0x1
   17c84: 53 75 f5 12  	fmul.d	fa0, fa0, fa5, dyn
   17c88: 6d fd        	c.bnez	a0, 0x17c82 <_mprec_log10+0xe>
   17c8a: 82 80        	c.jr	ra
   17c8c: b7 07 02 00  	lui	a5, 0x20
   17c90: 0e 05        	c.slli	a0, 0x3
   17c92: 93 87 87 22  	addi	a5, a5, 0x228
   17c96: aa 97        	c.add	a5, a0
   17c98: 88 23        	c.fld	fa0, 0x0(a5)
   17c9a: 82 80        	c.jr	ra

0000000000017c9c <__copybits>:
   17c9c: 54 4a        	c.lw	a3, 0x14(a2)
   17c9e: fd 35        	c.addiw	a1, -0x1
   17ca0: 9b d5 55 40  	sraiw	a1, a1, 0x5
   17ca4: 85 25        	c.addiw	a1, 0x1
   17ca6: 93 07 86 01  	addi	a5, a2, 0x18
   17caa: 8a 06        	c.slli	a3, 0x2
   17cac: 8a 05        	c.slli	a1, 0x2
   17cae: be 96        	c.add	a3, a5
   17cb0: aa 95        	c.add	a1, a0
   17cb2: 63 f1 d7 02  	bgeu	a5, a3, 0x17cd4 <__copybits+0x38>
   17cb6: 2a 87        	c.mv	a4, a0
   17cb8: 03 a8 07 00  	lw	a6, 0x0(a5)
   17cbc: 91 07        	c.addi	a5, 0x4
   17cbe: 11 07        	c.addi	a4, 0x4
   17cc0: 23 2e 07 ff  	sw	a6, -0x4(a4)
   17cc4: e3 ea d7 fe  	bltu	a5, a3, 0x17cb8 <__copybits+0x1c>
   17cc8: b3 87 c6 40  	sub	a5, a3, a2
   17ccc: 9d 17        	c.addi	a5, -0x19
   17cce: f1 9b        	c.andi	a5, -0x4
   17cd0: 91 07        	c.addi	a5, 0x4
   17cd2: 3e 95        	c.add	a0, a5
   17cd4: 63 77 b5 00  	bgeu	a0, a1, 0x17ce2 <__copybits+0x46>
   17cd8: 11 05        	c.addi	a0, 0x4
   17cda: 23 2e 05 fe  	sw	zero, -0x4(a0)
   17cde: e3 6d b5 fe  	bltu	a0, a1, 0x17cd8 <__copybits+0x3c>
   17ce2: 82 80        	c.jr	ra

0000000000017ce4 <__any_on>:
   17ce4: 58 49        	c.lw	a4, 0x14(a0)
   17ce6: 13 d6 55 40  	srai	a2, a1, 0x5
   17cea: 93 06 85 01  	addi	a3, a0, 0x18
   17cee: 63 5d c7 00  	bge	a4, a2, 0x17d08 <__any_on+0x24>
   17cf2: 0a 07        	c.slli	a4, 0x2
   17cf4: b3 87 e6 00  	add	a5, a3, a4
   17cf8: 63 f8 f6 02  	bgeu	a3, a5, 0x17d28 <__any_on+0x44>
   17cfc: 03 a7 c7 ff  	lw	a4, -0x4(a5)
   17d00: f1 17        	c.addi	a5, -0x4
   17d02: 7d db        	c.beqz	a4, 0x17cf8 <__any_on+0x14>
   17d04: 05 45        	c.li	a0, 0x1
   17d06: 82 80        	c.jr	ra
   17d08: 93 17 26 00  	slli	a5, a2, 0x2
   17d0c: b6 97        	c.add	a5, a3
   17d0e: e3 55 e6 fe  	bge	a2, a4, 0x17cf8 <__any_on+0x14>
   17d12: fd 89        	c.andi	a1, 0x1f
   17d14: f5 d1        	c.beqz	a1, 0x17cf8 <__any_on+0x14>
   17d16: 90 43        	c.lw	a2, 0x0(a5)
   17d18: 05 45        	c.li	a0, 0x1
   17d1a: 3b 57 b6 00  	srlw	a4, a2, a1
   17d1e: 3b 17 b7 00  	sllw	a4, a4, a1
   17d22: e3 0b c7 fc  	beq	a4, a2, 0x17cf8 <__any_on+0x14>
   17d26: 82 80        	c.jr	ra
   17d28: 01 45        	c.li	a0, 0x0
   17d2a: 82 80        	c.jr	ra

0000000000017d2c <_wctomb_r>:
   17d2c: b7 27 02 00  	lui	a5, 0x22
   17d30: 83 b7 87 1c  	ld	a5, 0x1c8(a5)
   17d34: 82 87        	c.jr	a5

0000000000017d36 <__ascii_wctomb>:
   17d36: 9b 07 06 00  	addiw	a5, a2, 0x0
   17d3a: 91 cd        	c.beqz	a1, 0x17d56 <__ascii_wctomb+0x20>
   17d3c: 13 07 f0 0f  	addi	a4, zero, 0xff
   17d40: 63 66 f7 00  	bltu	a4, a5, 0x17d4c <__ascii_wctomb+0x16>
   17d44: 23 80 c5 00  	sb	a2, 0x0(a1)
   17d48: 05 45        	c.li	a0, 0x1
   17d4a: 82 80        	c.jr	ra
   17d4c: 93 07 a0 08  	addi	a5, zero, 0x8a
   17d50: 1c c1        	c.sw	a5, 0x0(a0)
   17d52: 7d 55        	c.li	a0, -0x1
   17d54: 82 80        	c.jr	ra
   17d56: 01 45        	c.li	a0, 0x0
   17d58: 82 80        	c.jr	ra

0000000000017d5a <_wcrtomb_r>:
   17d5a: 79 71        	c.addi16sp	sp, -0x30
   17d5c: 22 f0        	c.sdsp	s0, 0x20(sp)
   17d5e: 26 ec        	c.sdsp	s1, 0x18(sp)
   17d60: b7 27 02 00  	lui	a5, 0x22
   17d64: 06 f4        	c.sdsp	ra, 0x28(sp)
   17d66: 83 b7 87 1c  	ld	a5, 0x1c8(a5)
   17d6a: 2a 84        	c.mv	s0, a0
   17d6c: b6 84        	c.mv	s1, a3
   17d6e: 91 c9        	c.beqz	a1, 0x17d82 <_wcrtomb_r+0x28>
   17d70: 82 97        	c.jalr	a5
   17d72: fd 57        	c.li	a5, -0x1
   17d74: 63 0d f5 00  	beq	a0, a5, 0x17d8e <_wcrtomb_r+0x34>
   17d78: a2 70        	c.ldsp	ra, 0x28(sp)
   17d7a: 02 74        	c.ldsp	s0, 0x20(sp)
   17d7c: e2 64        	c.ldsp	s1, 0x18(sp)
   17d7e: 45 61        	c.addi16sp	sp, 0x30
   17d80: 82 80        	c.jr	ra
   17d82: 01 46        	c.li	a2, 0x0
   17d84: 8a 85        	c.mv	a1, sp
   17d86: 82 97        	c.jalr	a5
   17d88: fd 57        	c.li	a5, -0x1
   17d8a: e3 17 f5 fe  	bne	a0, a5, 0x17d78 <_wcrtomb_r+0x1e>
   17d8e: 23 a0 04 00  	sw	zero, 0x0(s1)
   17d92: 93 07 a0 08  	addi	a5, zero, 0x8a
   17d96: a2 70        	c.ldsp	ra, 0x28(sp)
   17d98: 1c c0        	c.sw	a5, 0x0(s0)
   17d9a: 02 74        	c.ldsp	s0, 0x20(sp)
   17d9c: e2 64        	c.ldsp	s1, 0x18(sp)
   17d9e: 45 61        	c.addi16sp	sp, 0x30
   17da0: 82 80        	c.jr	ra

0000000000017da2 <wcrtomb>:
   17da2: 79 71        	c.addi16sp	sp, -0x30
   17da4: 22 f0        	c.sdsp	s0, 0x20(sp)
   17da6: 26 ec        	c.sdsp	s1, 0x18(sp)
   17da8: 06 f4        	c.sdsp	ra, 0x28(sp)
   17daa: 83 b4 81 88  	ld	s1, -0x778(gp)
   17dae: b7 27 02 00  	lui	a5, 0x22
   17db2: 83 b7 87 1c  	ld	a5, 0x1c8(a5)
   17db6: 32 84        	c.mv	s0, a2
   17db8: 11 cd        	c.beqz	a0, 0x17dd4 <wcrtomb+0x32>
   17dba: 2e 86        	c.mv	a2, a1
   17dbc: a2 86        	c.mv	a3, s0
   17dbe: aa 85        	c.mv	a1, a0
   17dc0: 26 85        	c.mv	a0, s1
   17dc2: 82 97        	c.jalr	a5
   17dc4: fd 57        	c.li	a5, -0x1
   17dc6: 63 0f f5 00  	beq	a0, a5, 0x17de4 <wcrtomb+0x42>
   17dca: a2 70        	c.ldsp	ra, 0x28(sp)
   17dcc: 02 74        	c.ldsp	s0, 0x20(sp)
   17dce: e2 64        	c.ldsp	s1, 0x18(sp)
   17dd0: 45 61        	c.addi16sp	sp, 0x30
   17dd2: 82 80        	c.jr	ra
   17dd4: b2 86        	c.mv	a3, a2
   17dd6: 8a 85        	c.mv	a1, sp
   17dd8: 01 46        	c.li	a2, 0x0
   17dda: 26 85        	c.mv	a0, s1
   17ddc: 82 97        	c.jalr	a5
   17dde: fd 57        	c.li	a5, -0x1
   17de0: e3 15 f5 fe  	bne	a0, a5, 0x17dca <wcrtomb+0x28>
   17de4: 23 20 04 00  	sw	zero, 0x0(s0)
   17de8: a2 70        	c.ldsp	ra, 0x28(sp)
   17dea: 02 74        	c.ldsp	s0, 0x20(sp)
   17dec: 93 07 a0 08  	addi	a5, zero, 0x8a
   17df0: 9c c0        	c.sw	a5, 0x0(s1)
   17df2: e2 64        	c.ldsp	s1, 0x18(sp)
   17df4: 45 61        	c.addi16sp	sp, 0x30
   17df6: 82 80        	c.jr	ra

0000000000017df8 <__smakebuf_r>:
   17df8: 83 97 05 01  	lh	a5, 0x10(a1)
   17dfc: 35 71        	c.addi16sp	sp, -0xa0
   17dfe: 22 e9        	c.sdsp	s0, 0x90(sp)
   17e00: 06 ed        	c.sdsp	ra, 0x98(sp)
   17e02: 13 f7 27 00  	andi	a4, a5, 0x2
   17e06: 2e 84        	c.mv	s0, a1
   17e08: 19 cb        	c.beqz	a4, 0x17e1e <__smakebuf_r+0x26>
   17e0a: 93 87 75 07  	addi	a5, a1, 0x77
   17e0e: 9c e1        	c.sd	a5, 0x0(a1)
   17e10: 9c ed        	c.sd	a5, 0x18(a1)
   17e12: 85 47        	c.li	a5, 0x1
   17e14: 9c d1        	c.sw	a5, 0x20(a1)
   17e16: ea 60        	c.ldsp	ra, 0x98(sp)
   17e18: 4a 64        	c.ldsp	s0, 0x90(sp)
   17e1a: 0d 61        	c.addi16sp	sp, 0xa0
   17e1c: 82 80        	c.jr	ra
   17e1e: 83 95 25 01  	lh	a1, 0x12(a1)
   17e22: 26 e5        	c.sdsp	s1, 0x88(sp)
   17e24: 4a e1        	c.sdsp	s2, 0x80(sp)
   17e26: ce fc        	c.sdsp	s3, 0x78(sp)
   17e28: d2 f8        	c.sdsp	s4, 0x70(sp)
   17e2a: aa 84        	c.mv	s1, a0
   17e2c: 63 c4 05 06  	blt	a1, zero, 0x17e94 <__smakebuf_r+0x9c>
   17e30: 30 00        	c.addi4spn	a2, sp, 0x8
   17e32: ef 00 40 16  	jal	ra, 0x17f96 <_fstat_r>
   17e36: 63 4d 05 04  	blt	a0, zero, 0x17e90 <__smakebuf_r+0x98>
   17e3a: 32 49        	c.lwsp	s2, 0xc(sp)
   17e3c: bd 67        	c.lui	a5, 0xf
   17e3e: 85 69        	c.lui	s3, 0x1
   17e40: 33 79 f9 00  	and	s2, s2, a5
   17e44: 89 67        	c.lui	a5, 0x2
   17e46: 33 09 f9 40  	sub	s2, s2, a5
   17e4a: 13 39 19 00  	sltiu	s2, s2, 0x1
   17e4e: 13 0a 00 40  	addi	s4, zero, 0x400
   17e52: 93 89 09 80  	addi	s3, s3, -0x800
   17e56: d2 85        	c.mv	a1, s4
   17e58: 26 85        	c.mv	a0, s1
   17e5a: ef 80 5f b2  	jal	ra, 0x1097e <_malloc_r>
   17e5e: 83 17 04 01  	lh	a5, 0x10(s0)
   17e62: 39 c5        	c.beqz	a0, 0x17eb0 <__smakebuf_r+0xb8>
   17e64: 93 e7 07 08  	ori	a5, a5, 0x80
   17e68: 08 e0        	c.sd	a0, 0x0(s0)
   17e6a: 08 ec        	c.sd	a0, 0x18(s0)
   17e6c: 23 18 f4 00  	sh	a5, 0x10(s0)
   17e70: 23 20 44 03  	sw	s4, 0x20(s0)
   17e74: 63 15 09 06  	bne	s2, zero, 0x17ede <__smakebuf_r+0xe6>
   17e78: b3 e7 37 01  	or	a5, a5, s3
   17e7c: ea 60        	c.ldsp	ra, 0x98(sp)
   17e7e: 23 18 f4 00  	sh	a5, 0x10(s0)
   17e82: 4a 64        	c.ldsp	s0, 0x90(sp)
   17e84: aa 64        	c.ldsp	s1, 0x88(sp)
   17e86: 0a 69        	c.ldsp	s2, 0x80(sp)
   17e88: e6 79        	c.ldsp	s3, 0x78(sp)
   17e8a: 46 7a        	c.ldsp	s4, 0x70(sp)
   17e8c: 0d 61        	c.addi16sp	sp, 0xa0
   17e8e: 82 80        	c.jr	ra
   17e90: 83 17 04 01  	lh	a5, 0x10(s0)
   17e94: 93 f7 07 08  	andi	a5, a5, 0x80
   17e98: 01 49        	c.li	s2, 0x0
   17e9a: 95 cf        	c.beqz	a5, 0x17ed6 <__smakebuf_r+0xde>
   17e9c: 13 0a 00 04  	addi	s4, zero, 0x40
   17ea0: d2 85        	c.mv	a1, s4
   17ea2: 26 85        	c.mv	a0, s1
   17ea4: ef 80 bf ad  	jal	ra, 0x1097e <_malloc_r>
   17ea8: 83 17 04 01  	lh	a5, 0x10(s0)
   17eac: 81 49        	c.li	s3, 0x0
   17eae: 5d f9        	c.bnez	a0, 0x17e64 <__smakebuf_r+0x6c>
   17eb0: 13 f7 07 20  	andi	a4, a5, 0x200
   17eb4: 15 ef        	c.bnez	a4, 0x17ef0 <__smakebuf_r+0xf8>
   17eb6: f1 9b        	c.andi	a5, -0x4
   17eb8: 93 e7 27 00  	ori	a5, a5, 0x2
   17ebc: 13 07 74 07  	addi	a4, s0, 0x77
   17ec0: 23 18 f4 00  	sh	a5, 0x10(s0)
   17ec4: 85 47        	c.li	a5, 0x1
   17ec6: aa 64        	c.ldsp	s1, 0x88(sp)
   17ec8: 0a 69        	c.ldsp	s2, 0x80(sp)
   17eca: e6 79        	c.ldsp	s3, 0x78(sp)
   17ecc: 46 7a        	c.ldsp	s4, 0x70(sp)
   17ece: 18 e0        	c.sd	a4, 0x0(s0)
   17ed0: 18 ec        	c.sd	a4, 0x18(s0)
   17ed2: 1c d0        	c.sw	a5, 0x20(s0)
   17ed4: 89 b7        	c.j	0x17e16 <__smakebuf_r+0x1e>
   17ed6: 13 0a 00 40  	addi	s4, zero, 0x400
   17eda: 81 49        	c.li	s3, 0x0
   17edc: ad bf        	c.j	0x17e56 <__smakebuf_r+0x5e>
   17ede: 83 15 24 01  	lh	a1, 0x12(s0)
   17ee2: 26 85        	c.mv	a0, s1
   17ee4: ef 00 c0 0e  	jal	ra, 0x17fd0 <_isatty_r>
   17ee8: 09 e9        	c.bnez	a0, 0x17efa <__smakebuf_r+0x102>
   17eea: 83 17 04 01  	lh	a5, 0x10(s0)
   17eee: 69 b7        	c.j	0x17e78 <__smakebuf_r+0x80>
   17ef0: aa 64        	c.ldsp	s1, 0x88(sp)
   17ef2: 0a 69        	c.ldsp	s2, 0x80(sp)
   17ef4: e6 79        	c.ldsp	s3, 0x78(sp)
   17ef6: 46 7a        	c.ldsp	s4, 0x70(sp)
   17ef8: 39 bf        	c.j	0x17e16 <__smakebuf_r+0x1e>
   17efa: 83 57 04 01  	lhu	a5, 0x10(s0)
   17efe: f1 9b        	c.andi	a5, -0x4
   17f00: 93 e7 17 00  	ori	a5, a5, 0x1
   17f04: 9b 97 07 01  	slliw	a5, a5, 0x10
   17f08: 9b d7 07 41  	sraiw	a5, a5, 0x10
   17f0c: b5 b7        	c.j	0x17e78 <__smakebuf_r+0x80>

0000000000017f0e <__swhatbuf_r>:
   17f0e: 75 71        	c.addi16sp	sp, -0x90
   17f10: 22 e1        	c.sdsp	s0, 0x80(sp)
   17f12: 2e 84        	c.mv	s0, a1
   17f14: 83 95 25 01  	lh	a1, 0x12(a1)
   17f18: a6 fc        	c.sdsp	s1, 0x78(sp)
   17f1a: ca f8        	c.sdsp	s2, 0x70(sp)
   17f1c: 06 e5        	c.sdsp	ra, 0x88(sp)
   17f1e: b2 84        	c.mv	s1, a2
   17f20: 36 89        	c.mv	s2, a3
   17f22: 63 cc 05 02  	blt	a1, zero, 0x17f5a <__swhatbuf_r+0x4c>
   17f26: 30 00        	c.addi4spn	a2, sp, 0x8
   17f28: ef 00 e0 06  	jal	ra, 0x17f96 <_fstat_r>
   17f2c: 63 47 05 02  	blt	a0, zero, 0x17f5a <__swhatbuf_r+0x4c>
   17f30: b2 47        	c.lwsp	a5, 0xc(sp)
   17f32: 3d 67        	c.lui	a4, 0xf
   17f34: aa 60        	c.ldsp	ra, 0x88(sp)
   17f36: f9 8f        	c.and	a5, a4
   17f38: 09 67        	c.lui	a4, 0x2
   17f3a: 99 8f        	c.sub	a5, a4
   17f3c: 0a 64        	c.ldsp	s0, 0x80(sp)
   17f3e: 93 b7 17 00  	sltiu	a5, a5, 0x1
   17f42: 23 20 f9 00  	sw	a5, 0x0(s2)
   17f46: 13 07 00 40  	addi	a4, zero, 0x400
   17f4a: 98 e0        	c.sd	a4, 0x0(s1)
   17f4c: 05 65        	c.lui	a0, 0x1
   17f4e: e6 74        	c.ldsp	s1, 0x78(sp)
   17f50: 46 79        	c.ldsp	s2, 0x70(sp)
   17f52: 13 05 05 80  	addi	a0, a0, -0x800
   17f56: 49 61        	c.addi16sp	sp, 0x90
   17f58: 82 80        	c.jr	ra
   17f5a: 83 57 04 01  	lhu	a5, 0x10(s0)
   17f5e: 93 f7 07 08  	andi	a5, a5, 0x80
   17f62: 91 cf        	c.beqz	a5, 0x17f7e <__swhatbuf_r+0x70>
   17f64: aa 60        	c.ldsp	ra, 0x88(sp)
   17f66: 0a 64        	c.ldsp	s0, 0x80(sp)
   17f68: 81 47        	c.li	a5, 0x0
   17f6a: 23 20 f9 00  	sw	a5, 0x0(s2)
   17f6e: 13 07 00 04  	addi	a4, zero, 0x40
   17f72: 98 e0        	c.sd	a4, 0x0(s1)
   17f74: 46 79        	c.ldsp	s2, 0x70(sp)
   17f76: e6 74        	c.ldsp	s1, 0x78(sp)
   17f78: 01 45        	c.li	a0, 0x0
   17f7a: 49 61        	c.addi16sp	sp, 0x90
   17f7c: 82 80        	c.jr	ra
   17f7e: aa 60        	c.ldsp	ra, 0x88(sp)
   17f80: 0a 64        	c.ldsp	s0, 0x80(sp)
   17f82: 23 20 f9 00  	sw	a5, 0x0(s2)
   17f86: 13 07 00 40  	addi	a4, zero, 0x400
   17f8a: 98 e0        	c.sd	a4, 0x0(s1)
   17f8c: 46 79        	c.ldsp	s2, 0x70(sp)
   17f8e: e6 74        	c.ldsp	s1, 0x78(sp)
   17f90: 01 45        	c.li	a0, 0x0
   17f92: 49 61        	c.addi16sp	sp, 0x90
   17f94: 82 80        	c.jr	ra

0000000000017f96 <_fstat_r>:
   17f96: 01 11        	c.addi	sp, -0x20
   17f98: 2e 87        	c.mv	a4, a1
   17f9a: 22 e8        	c.sdsp	s0, 0x10(sp)
   17f9c: 26 e4        	c.sdsp	s1, 0x8(sp)
   17f9e: 2a 84        	c.mv	s0, a0
   17fa0: b2 85        	c.mv	a1, a2
   17fa2: 3a 85        	c.mv	a0, a4
   17fa4: 06 ec        	c.sdsp	ra, 0x18(sp)
   17fa6: 23 ac 01 8e  	sw	zero, -0x708(gp)
   17faa: ef 00 60 57  	jal	ra, 0x18520 <_fstat>
   17fae: fd 57        	c.li	a5, -0x1
   17fb0: 63 07 f5 00  	beq	a0, a5, 0x17fbe <_fstat_r+0x28>
   17fb4: e2 60        	c.ldsp	ra, 0x18(sp)
   17fb6: 42 64        	c.ldsp	s0, 0x10(sp)
   17fb8: a2 64        	c.ldsp	s1, 0x8(sp)
   17fba: 05 61        	c.addi16sp	sp, 0x20
   17fbc: 82 80        	c.jr	ra
   17fbe: 83 a7 81 8f  	lw	a5, -0x708(gp)
   17fc2: ed db        	c.beqz	a5, 0x17fb4 <_fstat_r+0x1e>
   17fc4: e2 60        	c.ldsp	ra, 0x18(sp)
   17fc6: 1c c0        	c.sw	a5, 0x0(s0)
   17fc8: 42 64        	c.ldsp	s0, 0x10(sp)
   17fca: a2 64        	c.ldsp	s1, 0x8(sp)
   17fcc: 05 61        	c.addi16sp	sp, 0x20
   17fce: 82 80        	c.jr	ra

0000000000017fd0 <_isatty_r>:
   17fd0: 01 11        	c.addi	sp, -0x20
   17fd2: 22 e8        	c.sdsp	s0, 0x10(sp)
   17fd4: 26 e4        	c.sdsp	s1, 0x8(sp)
   17fd6: 2a 84        	c.mv	s0, a0
   17fd8: 2e 85        	c.mv	a0, a1
   17fda: 06 ec        	c.sdsp	ra, 0x18(sp)
   17fdc: 23 ac 01 8e  	sw	zero, -0x708(gp)
   17fe0: ef 00 40 58  	jal	ra, 0x18564 <_isatty>
   17fe4: fd 57        	c.li	a5, -0x1
   17fe6: 63 07 f5 00  	beq	a0, a5, 0x17ff4 <_isatty_r+0x24>
   17fea: e2 60        	c.ldsp	ra, 0x18(sp)
   17fec: 42 64        	c.ldsp	s0, 0x10(sp)
   17fee: a2 64        	c.ldsp	s1, 0x8(sp)
   17ff0: 05 61        	c.addi16sp	sp, 0x20
   17ff2: 82 80        	c.jr	ra
   17ff4: 83 a7 81 8f  	lw	a5, -0x708(gp)
   17ff8: ed db        	c.beqz	a5, 0x17fea <_isatty_r+0x1a>
   17ffa: e2 60        	c.ldsp	ra, 0x18(sp)
   17ffc: 1c c0        	c.sw	a5, 0x0(s0)
   17ffe: 42 64        	c.ldsp	s0, 0x10(sp)
   18000: a2 64        	c.ldsp	s1, 0x8(sp)
   18002: 05 61        	c.addi16sp	sp, 0x20
   18004: 82 80        	c.jr	ra

0000000000018006 <__assert_func>:
   18006: 03 b7 81 88  	ld	a4, -0x778(gp)
   1800a: 41 11        	c.addi	sp, -0x10
   1800c: b6 87        	c.mv	a5, a3
   1800e: 32 88        	c.mv	a6, a2
   18010: 06 e4        	c.sdsp	ra, 0x8(sp)
   18012: 83 38 87 01  	ld	a7, 0x18(a4)
   18016: aa 86        	c.mv	a3, a0
   18018: 2e 87        	c.mv	a4, a1
   1801a: 3e 86        	c.mv	a2, a5
   1801c: 63 0f 08 00  	beq	a6, zero, 0x1803a <__assert_func+0x34>
   18020: b7 07 02 00  	lui	a5, 0x20
   18024: 93 87 07 e5  	addi	a5, a5, -0x1b0
   18028: b7 05 02 00  	lui	a1, 0x20
   1802c: 93 85 05 e6  	addi	a1, a1, -0x1a0
   18030: 46 85        	c.mv	a0, a7
   18032: ef 00 e0 0e  	jal	ra, 0x18120 <fiprintf>
   18036: ef 00 c0 11  	jal	ra, 0x18152 <abort>
   1803a: 37 08 02 00  	lui	a6, 0x20
   1803e: 93 07 08 d9  	addi	a5, a6, -0x270
   18042: 13 08 08 d9  	addi	a6, a6, -0x270
   18046: cd b7        	c.j	0x18028 <__assert_func+0x22>

0000000000018048 <__assert>:
   18048: 41 11        	c.addi	sp, -0x10
   1804a: b2 86        	c.mv	a3, a2
   1804c: 01 46        	c.li	a2, 0x0
   1804e: 06 e4        	c.sdsp	ra, 0x8(sp)
   18050: ef f0 7f fb  	jal	ra, 0x18006 <__assert_func>

0000000000018054 <_calloc_r>:
   18054: b3 b7 c5 02  	mulhu	a5, a1, a2
   18058: 41 11        	c.addi	sp, -0x10
   1805a: 06 e4        	c.sdsp	ra, 0x8(sp)
   1805c: 22 e0        	c.sdsp	s0, 0x0(sp)
   1805e: b3 85 c5 02  	mul	a1, a1, a2
   18062: b5 ef        	c.bnez	a5, 0x180de <_calloc_r+0x8a>
   18064: ef 80 bf 91  	jal	ra, 0x1097e <_malloc_r>
   18068: 2a 84        	c.mv	s0, a0
   1806a: 35 cd        	c.beqz	a0, 0x180e6 <_calloc_r+0x92>
   1806c: 03 36 85 ff  	ld	a2, -0x8(a0)
   18070: 13 07 80 04  	addi	a4, zero, 0x48
   18074: 71 9a        	c.andi	a2, -0x4
   18076: 61 16        	c.addi	a2, -0x8
   18078: 63 62 c7 04  	bltu	a4, a2, 0x180bc <_calloc_r+0x68>
   1807c: 93 06 70 02  	addi	a3, zero, 0x27
   18080: aa 87        	c.mv	a5, a0
   18082: 63 f2 c6 02  	bgeu	a3, a2, 0x180a6 <_calloc_r+0x52>
   18086: 23 30 05 00  	sd	zero, 0x0(a0)
   1808a: 23 34 05 00  	sd	zero, 0x8(a0)
   1808e: 93 07 70 03  	addi	a5, zero, 0x37
   18092: 63 fd c7 02  	bgeu	a5, a2, 0x180cc <_calloc_r+0x78>
   18096: 23 38 05 00  	sd	zero, 0x10(a0)
   1809a: 23 3c 05 00  	sd	zero, 0x18(a0)
   1809e: 93 07 05 02  	addi	a5, a0, 0x20
   180a2: 63 08 e6 04  	beq	a2, a4, 0x180f2 <_calloc_r+0x9e>
   180a6: 23 b0 07 00  	sd	zero, 0x0(a5)
   180aa: 23 b4 07 00  	sd	zero, 0x8(a5)
   180ae: 23 b8 07 00  	sd	zero, 0x10(a5)
   180b2: a2 60        	c.ldsp	ra, 0x8(sp)
   180b4: 22 85        	c.mv	a0, s0
   180b6: 02 64        	c.ldsp	s0, 0x0(sp)
   180b8: 41 01        	c.addi	sp, 0x10
   180ba: 82 80        	c.jr	ra
   180bc: 81 45        	c.li	a1, 0x0
   180be: ef 90 5f ac  	jal	ra, 0x11b82 <memset>
   180c2: a2 60        	c.ldsp	ra, 0x8(sp)
   180c4: 22 85        	c.mv	a0, s0
   180c6: 02 64        	c.ldsp	s0, 0x0(sp)
   180c8: 41 01        	c.addi	sp, 0x10
   180ca: 82 80        	c.jr	ra
   180cc: 93 07 05 01  	addi	a5, a0, 0x10
   180d0: 23 b0 07 00  	sd	zero, 0x0(a5)
   180d4: 23 b4 07 00  	sd	zero, 0x8(a5)
   180d8: 23 b8 07 00  	sd	zero, 0x10(a5)
   180dc: d9 bf        	c.j	0x180b2 <_calloc_r+0x5e>
   180de: ef 00 e0 06  	jal	ra, 0x1814c <__errno>
   180e2: b1 47        	c.li	a5, 0xc
   180e4: 1c c1        	c.sw	a5, 0x0(a0)
   180e6: 01 44        	c.li	s0, 0x0
   180e8: a2 60        	c.ldsp	ra, 0x8(sp)
   180ea: 22 85        	c.mv	a0, s0
   180ec: 02 64        	c.ldsp	s0, 0x0(sp)
   180ee: 41 01        	c.addi	sp, 0x10
   180f0: 82 80        	c.jr	ra
   180f2: 23 30 05 02  	sd	zero, 0x20(a0)
   180f6: 93 07 05 03  	addi	a5, a0, 0x30
   180fa: 23 34 05 02  	sd	zero, 0x28(a0)
   180fe: 65 b7        	c.j	0x180a6 <_calloc_r+0x52>

0000000000018100 <_fiprintf_r>:
   18100: 5d 71        	c.addi16sp	sp, -0x50
   18102: 13 03 81 02  	addi	t1, sp, 0x28
   18106: 36 f4        	c.sdsp	a3, 0x28(sp)
   18108: 9a 86        	c.mv	a3, t1
   1810a: 06 ec        	c.sdsp	ra, 0x18(sp)
   1810c: 3a f8        	c.sdsp	a4, 0x30(sp)
   1810e: 3e fc        	c.sdsp	a5, 0x38(sp)
   18110: c2 e0        	c.sdsp	a6, 0x40(sp)
   18112: c6 e4        	c.sdsp	a7, 0x48(sp)
   18114: 1a e4        	c.sdsp	t1, 0x8(sp)
   18116: ef b0 ff d0  	jal	ra, 0x13e24 <_vfiprintf_r>
   1811a: e2 60        	c.ldsp	ra, 0x18(sp)
   1811c: 61 61        	c.addi16sp	sp, 0x50
   1811e: 82 80        	c.jr	ra

0000000000018120 <fiprintf>:
   18120: 2a 8e        	c.mv	t3, a0
   18122: 5d 71        	c.addi16sp	sp, -0x50
   18124: 03 b5 81 88  	ld	a0, -0x778(gp)
   18128: 13 03 01 02  	addi	t1, sp, 0x20
   1812c: 32 f0        	c.sdsp	a2, 0x20(sp)
   1812e: 36 f4        	c.sdsp	a3, 0x28(sp)
   18130: 2e 86        	c.mv	a2, a1
   18132: 9a 86        	c.mv	a3, t1
   18134: f2 85        	c.mv	a1, t3
   18136: 06 ec        	c.sdsp	ra, 0x18(sp)
   18138: 3a f8        	c.sdsp	a4, 0x30(sp)
   1813a: 3e fc        	c.sdsp	a5, 0x38(sp)
   1813c: c2 e0        	c.sdsp	a6, 0x40(sp)
   1813e: c6 e4        	c.sdsp	a7, 0x48(sp)
   18140: 1a e4        	c.sdsp	t1, 0x8(sp)
   18142: ef b0 3f ce  	jal	ra, 0x13e24 <_vfiprintf_r>
   18146: e2 60        	c.ldsp	ra, 0x18(sp)
   18148: 61 61        	c.addi16sp	sp, 0x50
   1814a: 82 80        	c.jr	ra

000000000001814c <__errno>:
   1814c: 03 b5 81 88  	ld	a0, -0x778(gp)
   18150: 82 80        	c.jr	ra

0000000000018152 <abort>:
   18152: 41 11        	c.addi	sp, -0x10
   18154: 19 45        	c.li	a0, 0x6
   18156: 06 e4        	c.sdsp	ra, 0x8(sp)
   18158: ef 00 c0 19  	jal	ra, 0x182f4 <raise>
   1815c: 05 45        	c.li	a0, 0x1
   1815e: ef 00 00 3a  	jal	ra, 0x184fe <_exit>

0000000000018162 <_init_signal_r>:
   18162: 83 37 05 15  	ld	a5, 0x150(a0)
   18166: 99 c3        	c.beqz	a5, 0x1816c <_init_signal_r+0xa>
   18168: 01 45        	c.li	a0, 0x0
   1816a: 82 80        	c.jr	ra
   1816c: 41 11        	c.addi	sp, -0x10
   1816e: 93 05 00 10  	addi	a1, zero, 0x100
   18172: 22 e0        	c.sdsp	s0, 0x0(sp)
   18174: 06 e4        	c.sdsp	ra, 0x8(sp)
   18176: 2a 84        	c.mv	s0, a0
   18178: ef 80 7f 80  	jal	ra, 0x1097e <_malloc_r>
   1817c: 23 38 a4 14  	sd	a0, 0x150(s0)
   18180: 09 cd        	c.beqz	a0, 0x1819a <_init_signal_r+0x38>
   18182: 93 07 05 10  	addi	a5, a0, 0x100
   18186: 23 30 05 00  	sd	zero, 0x0(a0)
   1818a: 21 05        	c.addi	a0, 0x8
   1818c: e3 1d f5 fe  	bne	a0, a5, 0x18186 <_init_signal_r+0x24>
   18190: 01 45        	c.li	a0, 0x0
   18192: a2 60        	c.ldsp	ra, 0x8(sp)
   18194: 02 64        	c.ldsp	s0, 0x0(sp)
   18196: 41 01        	c.addi	sp, 0x10
   18198: 82 80        	c.jr	ra
   1819a: 7d 55        	c.li	a0, -0x1
   1819c: dd bf        	c.j	0x18192 <_init_signal_r+0x30>

000000000001819e <_signal_r>:
   1819e: 79 71        	c.addi16sp	sp, -0x30
   181a0: 26 ec        	c.sdsp	s1, 0x18(sp)
   181a2: 06 f4        	c.sdsp	ra, 0x28(sp)
   181a4: fd 47        	c.li	a5, 0x1f
   181a6: aa 84        	c.mv	s1, a0
   181a8: 63 e0 b7 02  	bltu	a5, a1, 0x181c8 <_signal_r+0x2a>
   181ac: 83 37 05 15  	ld	a5, 0x150(a0)
   181b0: 22 f0        	c.sdsp	s0, 0x20(sp)
   181b2: 2e 84        	c.mv	s0, a1
   181b4: 91 cf        	c.beqz	a5, 0x181d0 <_signal_r+0x32>
   181b6: 0e 04        	c.slli	s0, 0x3
   181b8: a2 97        	c.add	a5, s0
   181ba: 02 74        	c.ldsp	s0, 0x20(sp)
   181bc: 88 63        	c.ld	a0, 0x0(a5)
   181be: 90 e3        	c.sd	a2, 0x0(a5)
   181c0: a2 70        	c.ldsp	ra, 0x28(sp)
   181c2: e2 64        	c.ldsp	s1, 0x18(sp)
   181c4: 45 61        	c.addi16sp	sp, 0x30
   181c6: 82 80        	c.jr	ra
   181c8: d9 47        	c.li	a5, 0x16
   181ca: 1c c1        	c.sw	a5, 0x0(a0)
   181cc: 7d 55        	c.li	a0, -0x1
   181ce: cd bf        	c.j	0x181c0 <_signal_r+0x22>
   181d0: 93 05 00 10  	addi	a1, zero, 0x100
   181d4: 32 e4        	c.sdsp	a2, 0x8(sp)
   181d6: ef 80 8f fa  	jal	ra, 0x1097e <_malloc_r>
   181da: 23 b8 a4 14  	sd	a0, 0x150(s1)
   181de: 22 66        	c.ldsp	a2, 0x8(sp)
   181e0: aa 87        	c.mv	a5, a0
   181e2: 2a 87        	c.mv	a4, a0
   181e4: 93 06 05 10  	addi	a3, a0, 0x100
   181e8: 19 c5        	c.beqz	a0, 0x181f6 <_signal_r+0x58>
   181ea: 23 30 07 00  	sd	zero, 0x0(a4)
   181ee: 21 07        	c.addi	a4, 0x8
   181f0: e3 1d d7 fe  	bne	a4, a3, 0x181ea <_signal_r+0x4c>
   181f4: c9 b7        	c.j	0x181b6 <_signal_r+0x18>
   181f6: 02 74        	c.ldsp	s0, 0x20(sp)
   181f8: 7d 55        	c.li	a0, -0x1
   181fa: d9 b7        	c.j	0x181c0 <_signal_r+0x22>

00000000000181fc <_raise_r>:
   181fc: 01 11        	c.addi	sp, -0x20
   181fe: 26 e4        	c.sdsp	s1, 0x8(sp)
   18200: 06 ec        	c.sdsp	ra, 0x18(sp)
   18202: fd 47        	c.li	a5, 0x1f
   18204: aa 84        	c.mv	s1, a0
   18206: 63 ef b7 04  	bltu	a5, a1, 0x18264 <_raise_r+0x68>
   1820a: 83 37 05 15  	ld	a5, 0x150(a0)
   1820e: 22 e8        	c.sdsp	s0, 0x10(sp)
   18210: 2e 84        	c.mv	s0, a1
   18212: 95 c7        	c.beqz	a5, 0x1823e <_raise_r+0x42>
   18214: 13 97 35 00  	slli	a4, a1, 0x3
   18218: ba 97        	c.add	a5, a4
   1821a: 98 63        	c.ld	a4, 0x0(a5)
   1821c: 0d c3        	c.beqz	a4, 0x1823e <_raise_r+0x42>
   1821e: 85 46        	c.li	a3, 0x1
   18220: 63 09 d7 00  	beq	a4, a3, 0x18232 <_raise_r+0x36>
   18224: fd 56        	c.li	a3, -0x1
   18226: 63 07 d7 02  	beq	a4, a3, 0x18254 <_raise_r+0x58>
   1822a: 23 b0 07 00  	sd	zero, 0x0(a5)
   1822e: 2e 85        	c.mv	a0, a1
   18230: 02 97        	c.jalr	a4
   18232: 42 64        	c.ldsp	s0, 0x10(sp)
   18234: 01 45        	c.li	a0, 0x0
   18236: e2 60        	c.ldsp	ra, 0x18(sp)
   18238: a2 64        	c.ldsp	s1, 0x8(sp)
   1823a: 05 61        	c.addi16sp	sp, 0x20
   1823c: 82 80        	c.jr	ra
   1823e: 26 85        	c.mv	a0, s1
   18240: ef 00 00 29  	jal	ra, 0x184d0 <_getpid_r>
   18244: 22 86        	c.mv	a2, s0
   18246: 42 64        	c.ldsp	s0, 0x10(sp)
   18248: e2 60        	c.ldsp	ra, 0x18(sp)
   1824a: aa 85        	c.mv	a1, a0
   1824c: 26 85        	c.mv	a0, s1
   1824e: a2 64        	c.ldsp	s1, 0x8(sp)
   18250: 05 61        	c.addi16sp	sp, 0x20
   18252: 91 a4        	c.j	0x18496 <_kill_r>
   18254: 42 64        	c.ldsp	s0, 0x10(sp)
   18256: e2 60        	c.ldsp	ra, 0x18(sp)
   18258: d9 47        	c.li	a5, 0x16
   1825a: 1c c1        	c.sw	a5, 0x0(a0)
   1825c: a2 64        	c.ldsp	s1, 0x8(sp)
   1825e: 05 45        	c.li	a0, 0x1
   18260: 05 61        	c.addi16sp	sp, 0x20
   18262: 82 80        	c.jr	ra
   18264: d9 47        	c.li	a5, 0x16
   18266: 1c c1        	c.sw	a5, 0x0(a0)
   18268: 7d 55        	c.li	a0, -0x1
   1826a: f1 b7        	c.j	0x18236 <_raise_r+0x3a>

000000000001826c <__sigtramp_r>:
   1826c: fd 47        	c.li	a5, 0x1f
   1826e: 63 e1 b7 08  	bltu	a5, a1, 0x182f0 <__sigtramp_r+0x84>
   18272: 83 37 05 15  	ld	a5, 0x150(a0)
   18276: 01 11        	c.addi	sp, -0x20
   18278: 22 e8        	c.sdsp	s0, 0x10(sp)
   1827a: 26 e4        	c.sdsp	s1, 0x8(sp)
   1827c: 06 ec        	c.sdsp	ra, 0x18(sp)
   1827e: 2e 84        	c.mv	s0, a1
   18280: aa 84        	c.mv	s1, a0
   18282: a1 c7        	c.beqz	a5, 0x182ca <__sigtramp_r+0x5e>
   18284: 13 17 34 00  	slli	a4, s0, 0x3
   18288: ba 97        	c.add	a5, a4
   1828a: 98 63        	c.ld	a4, 0x0(a5)
   1828c: 0d c3        	c.beqz	a4, 0x182ae <__sigtramp_r+0x42>
   1828e: fd 56        	c.li	a3, -0x1
   18290: 63 0b d7 02  	beq	a4, a3, 0x182c6 <__sigtramp_r+0x5a>
   18294: 85 46        	c.li	a3, 0x1
   18296: 63 02 d7 02  	beq	a4, a3, 0x182ba <__sigtramp_r+0x4e>
   1829a: 22 85        	c.mv	a0, s0
   1829c: 23 b0 07 00  	sd	zero, 0x0(a5)
   182a0: 02 97        	c.jalr	a4
   182a2: 01 45        	c.li	a0, 0x0
   182a4: e2 60        	c.ldsp	ra, 0x18(sp)
   182a6: 42 64        	c.ldsp	s0, 0x10(sp)
   182a8: a2 64        	c.ldsp	s1, 0x8(sp)
   182aa: 05 61        	c.addi16sp	sp, 0x20
   182ac: 82 80        	c.jr	ra
   182ae: e2 60        	c.ldsp	ra, 0x18(sp)
   182b0: 42 64        	c.ldsp	s0, 0x10(sp)
   182b2: a2 64        	c.ldsp	s1, 0x8(sp)
   182b4: 05 45        	c.li	a0, 0x1
   182b6: 05 61        	c.addi16sp	sp, 0x20
   182b8: 82 80        	c.jr	ra
   182ba: e2 60        	c.ldsp	ra, 0x18(sp)
   182bc: 42 64        	c.ldsp	s0, 0x10(sp)
   182be: a2 64        	c.ldsp	s1, 0x8(sp)
   182c0: 0d 45        	c.li	a0, 0x3
   182c2: 05 61        	c.addi16sp	sp, 0x20
   182c4: 82 80        	c.jr	ra
   182c6: 09 45        	c.li	a0, 0x2
   182c8: f1 bf        	c.j	0x182a4 <__sigtramp_r+0x38>
   182ca: 93 05 00 10  	addi	a1, zero, 0x100
   182ce: ef 80 0f eb  	jal	ra, 0x1097e <_malloc_r>
   182d2: 23 b8 a4 14  	sd	a0, 0x150(s1)
   182d6: aa 87        	c.mv	a5, a0
   182d8: 11 c9        	c.beqz	a0, 0x182ec <__sigtramp_r+0x80>
   182da: 2a 87        	c.mv	a4, a0
   182dc: 93 06 05 10  	addi	a3, a0, 0x100
   182e0: 23 30 07 00  	sd	zero, 0x0(a4)
   182e4: 21 07        	c.addi	a4, 0x8
   182e6: e3 1d d7 fe  	bne	a4, a3, 0x182e0 <__sigtramp_r+0x74>
   182ea: 69 bf        	c.j	0x18284 <__sigtramp_r+0x18>
   182ec: 7d 55        	c.li	a0, -0x1
   182ee: 5d bf        	c.j	0x182a4 <__sigtramp_r+0x38>
   182f0: 7d 55        	c.li	a0, -0x1
   182f2: 82 80        	c.jr	ra

00000000000182f4 <raise>:
   182f4: 01 11        	c.addi	sp, -0x20
   182f6: 26 e4        	c.sdsp	s1, 0x8(sp)
   182f8: 06 ec        	c.sdsp	ra, 0x18(sp)
   182fa: fd 47        	c.li	a5, 0x1f
   182fc: 83 b4 81 88  	ld	s1, -0x778(gp)
   18300: 63 ee a7 04  	bltu	a5, a0, 0x1835c <raise+0x68>
   18304: 83 b7 04 15  	ld	a5, 0x150(s1)
   18308: 22 e8        	c.sdsp	s0, 0x10(sp)
   1830a: 2a 84        	c.mv	s0, a0
   1830c: 8d c7        	c.beqz	a5, 0x18336 <raise+0x42>
   1830e: 13 17 35 00  	slli	a4, a0, 0x3
   18312: ba 97        	c.add	a5, a4
   18314: 98 63        	c.ld	a4, 0x0(a5)
   18316: 05 c3        	c.beqz	a4, 0x18336 <raise+0x42>
   18318: 85 46        	c.li	a3, 0x1
   1831a: 63 08 d7 00  	beq	a4, a3, 0x1832a <raise+0x36>
   1831e: fd 56        	c.li	a3, -0x1
   18320: 63 06 d7 02  	beq	a4, a3, 0x1834c <raise+0x58>
   18324: 23 b0 07 00  	sd	zero, 0x0(a5)
   18328: 02 97        	c.jalr	a4
   1832a: 42 64        	c.ldsp	s0, 0x10(sp)
   1832c: 01 45        	c.li	a0, 0x0
   1832e: e2 60        	c.ldsp	ra, 0x18(sp)
   18330: a2 64        	c.ldsp	s1, 0x8(sp)
   18332: 05 61        	c.addi16sp	sp, 0x20
   18334: 82 80        	c.jr	ra
   18336: 26 85        	c.mv	a0, s1
   18338: ef 00 80 19  	jal	ra, 0x184d0 <_getpid_r>
   1833c: 22 86        	c.mv	a2, s0
   1833e: 42 64        	c.ldsp	s0, 0x10(sp)
   18340: e2 60        	c.ldsp	ra, 0x18(sp)
   18342: aa 85        	c.mv	a1, a0
   18344: 26 85        	c.mv	a0, s1
   18346: a2 64        	c.ldsp	s1, 0x8(sp)
   18348: 05 61        	c.addi16sp	sp, 0x20
   1834a: b1 a2        	c.j	0x18496 <_kill_r>
   1834c: 42 64        	c.ldsp	s0, 0x10(sp)
   1834e: e2 60        	c.ldsp	ra, 0x18(sp)
   18350: d9 47        	c.li	a5, 0x16
   18352: 9c c0        	c.sw	a5, 0x0(s1)
   18354: 05 45        	c.li	a0, 0x1
   18356: a2 64        	c.ldsp	s1, 0x8(sp)
   18358: 05 61        	c.addi16sp	sp, 0x20
   1835a: 82 80        	c.jr	ra
   1835c: d9 47        	c.li	a5, 0x16
   1835e: 9c c0        	c.sw	a5, 0x0(s1)
   18360: 7d 55        	c.li	a0, -0x1
   18362: f1 b7        	c.j	0x1832e <raise+0x3a>

0000000000018364 <signal>:
   18364: 01 11        	c.addi	sp, -0x20
   18366: 4a e0        	c.sdsp	s2, 0x0(sp)
   18368: 06 ec        	c.sdsp	ra, 0x18(sp)
   1836a: fd 47        	c.li	a5, 0x1f
   1836c: 03 b9 81 88  	ld	s2, -0x778(gp)
   18370: 63 e4 a7 02  	bltu	a5, a0, 0x18398 <signal+0x34>
   18374: 22 e8        	c.sdsp	s0, 0x10(sp)
   18376: 2a 84        	c.mv	s0, a0
   18378: 03 35 09 15  	ld	a0, 0x150(s2)
   1837c: 26 e4        	c.sdsp	s1, 0x8(sp)
   1837e: ae 84        	c.mv	s1, a1
   18380: 0d c1        	c.beqz	a0, 0x183a2 <signal+0x3e>
   18382: 0e 04        	c.slli	s0, 0x3
   18384: b3 07 85 00  	add	a5, a0, s0
   18388: 88 63        	c.ld	a0, 0x0(a5)
   1838a: 42 64        	c.ldsp	s0, 0x10(sp)
   1838c: 84 e3        	c.sd	s1, 0x0(a5)
   1838e: a2 64        	c.ldsp	s1, 0x8(sp)
   18390: e2 60        	c.ldsp	ra, 0x18(sp)
   18392: 02 69        	c.ldsp	s2, 0x0(sp)
   18394: 05 61        	c.addi16sp	sp, 0x20
   18396: 82 80        	c.jr	ra
   18398: d9 47        	c.li	a5, 0x16
   1839a: 23 20 f9 00  	sw	a5, 0x0(s2)
   1839e: 7d 55        	c.li	a0, -0x1
   183a0: c5 bf        	c.j	0x18390 <signal+0x2c>
   183a2: 93 05 00 10  	addi	a1, zero, 0x100
   183a6: 4a 85        	c.mv	a0, s2
   183a8: ef 80 6f dd  	jal	ra, 0x1097e <_malloc_r>
   183ac: 23 38 a9 14  	sd	a0, 0x150(s2)
   183b0: aa 87        	c.mv	a5, a0
   183b2: 13 07 05 10  	addi	a4, a0, 0x100
   183b6: 19 c5        	c.beqz	a0, 0x183c4 <signal+0x60>
   183b8: 23 b0 07 00  	sd	zero, 0x0(a5)
   183bc: a1 07        	c.addi	a5, 0x8
   183be: e3 1d f7 fe  	bne	a4, a5, 0x183b8 <signal+0x54>
   183c2: c1 b7        	c.j	0x18382 <signal+0x1e>
   183c4: 42 64        	c.ldsp	s0, 0x10(sp)
   183c6: a2 64        	c.ldsp	s1, 0x8(sp)
   183c8: 7d 55        	c.li	a0, -0x1
   183ca: d9 b7        	c.j	0x18390 <signal+0x2c>

00000000000183cc <_init_signal>:
   183cc: 41 11        	c.addi	sp, -0x10
   183ce: 22 e0        	c.sdsp	s0, 0x0(sp)
   183d0: 03 b4 81 88  	ld	s0, -0x778(gp)
   183d4: 06 e4        	c.sdsp	ra, 0x8(sp)
   183d6: 83 37 04 15  	ld	a5, 0x150(s0)
   183da: 91 c7        	c.beqz	a5, 0x183e6 <_init_signal+0x1a>
   183dc: 01 45        	c.li	a0, 0x0
   183de: a2 60        	c.ldsp	ra, 0x8(sp)
   183e0: 02 64        	c.ldsp	s0, 0x0(sp)
   183e2: 41 01        	c.addi	sp, 0x10
   183e4: 82 80        	c.jr	ra
   183e6: 93 05 00 10  	addi	a1, zero, 0x100
   183ea: 22 85        	c.mv	a0, s0
   183ec: ef 80 2f d9  	jal	ra, 0x1097e <_malloc_r>
   183f0: 23 38 a4 14  	sd	a0, 0x150(s0)
   183f4: 09 c9        	c.beqz	a0, 0x18406 <_init_signal+0x3a>
   183f6: 93 07 05 10  	addi	a5, a0, 0x100
   183fa: 23 30 05 00  	sd	zero, 0x0(a0)
   183fe: 21 05        	c.addi	a0, 0x8
   18400: e3 1d f5 fe  	bne	a0, a5, 0x183fa <_init_signal+0x2e>
   18404: e1 bf        	c.j	0x183dc <_init_signal+0x10>
   18406: 7d 55        	c.li	a0, -0x1
   18408: d9 bf        	c.j	0x183de <_init_signal+0x12>

000000000001840a <__sigtramp>:
   1840a: 01 11        	c.addi	sp, -0x20
   1840c: 26 e4        	c.sdsp	s1, 0x8(sp)
   1840e: 06 ec        	c.sdsp	ra, 0x18(sp)
   18410: fd 47        	c.li	a5, 0x1f
   18412: 83 b4 81 88  	ld	s1, -0x778(gp)
   18416: 63 ee a7 06  	bltu	a5, a0, 0x18492 <__sigtramp+0x88>
   1841a: 83 b7 04 15  	ld	a5, 0x150(s1)
   1841e: 22 e8        	c.sdsp	s0, 0x10(sp)
   18420: 2a 84        	c.mv	s0, a0
   18422: a9 c7        	c.beqz	a5, 0x1846c <__sigtramp+0x62>
   18424: 13 17 34 00  	slli	a4, s0, 0x3
   18428: ba 97        	c.add	a5, a4
   1842a: 98 63        	c.ld	a4, 0x0(a5)
   1842c: 0d c3        	c.beqz	a4, 0x1844e <__sigtramp+0x44>
   1842e: fd 56        	c.li	a3, -0x1
   18430: 63 0b d7 02  	beq	a4, a3, 0x18466 <__sigtramp+0x5c>
   18434: 85 46        	c.li	a3, 0x1
   18436: 63 02 d7 02  	beq	a4, a3, 0x1845a <__sigtramp+0x50>
   1843a: 22 85        	c.mv	a0, s0
   1843c: 23 b0 07 00  	sd	zero, 0x0(a5)
   18440: 02 97        	c.jalr	a4
   18442: 42 64        	c.ldsp	s0, 0x10(sp)
   18444: 01 45        	c.li	a0, 0x0
   18446: e2 60        	c.ldsp	ra, 0x18(sp)
   18448: a2 64        	c.ldsp	s1, 0x8(sp)
   1844a: 05 61        	c.addi16sp	sp, 0x20
   1844c: 82 80        	c.jr	ra
   1844e: 42 64        	c.ldsp	s0, 0x10(sp)
   18450: e2 60        	c.ldsp	ra, 0x18(sp)
   18452: a2 64        	c.ldsp	s1, 0x8(sp)
   18454: 05 45        	c.li	a0, 0x1
   18456: 05 61        	c.addi16sp	sp, 0x20
   18458: 82 80        	c.jr	ra
   1845a: 42 64        	c.ldsp	s0, 0x10(sp)
   1845c: e2 60        	c.ldsp	ra, 0x18(sp)
   1845e: a2 64        	c.ldsp	s1, 0x8(sp)
   18460: 0d 45        	c.li	a0, 0x3
   18462: 05 61        	c.addi16sp	sp, 0x20
   18464: 82 80        	c.jr	ra
   18466: 42 64        	c.ldsp	s0, 0x10(sp)
   18468: 09 45        	c.li	a0, 0x2
   1846a: f1 bf        	c.j	0x18446 <__sigtramp+0x3c>
   1846c: 93 05 00 10  	addi	a1, zero, 0x100
   18470: 26 85        	c.mv	a0, s1
   18472: ef 80 cf d0  	jal	ra, 0x1097e <_malloc_r>
   18476: 23 b8 a4 14  	sd	a0, 0x150(s1)
   1847a: aa 87        	c.mv	a5, a0
   1847c: 11 c9        	c.beqz	a0, 0x18490 <__sigtramp+0x86>
   1847e: 2a 87        	c.mv	a4, a0
   18480: 93 06 05 10  	addi	a3, a0, 0x100
   18484: 23 30 07 00  	sd	zero, 0x0(a4)
   18488: 21 07        	c.addi	a4, 0x8
   1848a: e3 9d e6 fe  	bne	a3, a4, 0x18484 <__sigtramp+0x7a>
   1848e: 59 bf        	c.j	0x18424 <__sigtramp+0x1a>
   18490: 42 64        	c.ldsp	s0, 0x10(sp)
   18492: 7d 55        	c.li	a0, -0x1
   18494: 4d bf        	c.j	0x18446 <__sigtramp+0x3c>

0000000000018496 <_kill_r>:
   18496: 01 11        	c.addi	sp, -0x20
   18498: 2e 87        	c.mv	a4, a1
   1849a: 22 e8        	c.sdsp	s0, 0x10(sp)
   1849c: 26 e4        	c.sdsp	s1, 0x8(sp)
   1849e: 2a 84        	c.mv	s0, a0
   184a0: b2 85        	c.mv	a1, a2
   184a2: 3a 85        	c.mv	a0, a4
   184a4: 06 ec        	c.sdsp	ra, 0x18(sp)
   184a6: 23 ac 01 8e  	sw	zero, -0x708(gp)
   184aa: ef 00 00 0e  	jal	ra, 0x1858a <_kill>
   184ae: fd 57        	c.li	a5, -0x1
   184b0: 63 07 f5 00  	beq	a0, a5, 0x184be <_kill_r+0x28>
   184b4: e2 60        	c.ldsp	ra, 0x18(sp)
   184b6: 42 64        	c.ldsp	s0, 0x10(sp)
   184b8: a2 64        	c.ldsp	s1, 0x8(sp)
   184ba: 05 61        	c.addi16sp	sp, 0x20
   184bc: 82 80        	c.jr	ra
   184be: 83 a7 81 8f  	lw	a5, -0x708(gp)
   184c2: ed db        	c.beqz	a5, 0x184b4 <_kill_r+0x1e>
   184c4: e2 60        	c.ldsp	ra, 0x18(sp)
   184c6: 1c c0        	c.sw	a5, 0x0(s0)
   184c8: 42 64        	c.ldsp	s0, 0x10(sp)
   184ca: a2 64        	c.ldsp	s1, 0x8(sp)
   184cc: 05 61        	c.addi16sp	sp, 0x20
   184ce: 82 80        	c.jr	ra

00000000000184d0 <_getpid_r>:
   184d0: 41 a8        	c.j	0x18560 <_getpid>

00000000000184d2 <_close>:
   184d2: 41 11        	c.addi	sp, -0x10
   184d4: 06 e4        	c.sdsp	ra, 0x8(sp)
   184d6: 22 e0        	c.sdsp	s0, 0x0(sp)
   184d8: 93 08 90 03  	addi	a7, zero, 0x39
   184dc: 73 00 00 00  	ecall
   184e0: 2a 84        	c.mv	s0, a0
   184e2: 63 47 05 00  	blt	a0, zero, 0x184f0 <_close+0x1e>
   184e6: 01 25        	c.addiw	a0, 0x0
   184e8: a2 60        	c.ldsp	ra, 0x8(sp)
   184ea: 02 64        	c.ldsp	s0, 0x0(sp)
   184ec: 41 01        	c.addi	sp, 0x10
   184ee: 82 80        	c.jr	ra
   184f0: ef f0 df c5  	jal	ra, 0x1814c <__errno>
   184f4: 3b 04 80 40  	subw	s0, zero, s0
   184f8: 00 c1        	c.sw	s0, 0x0(a0)
   184fa: 7d 55        	c.li	a0, -0x1
   184fc: f5 b7        	c.j	0x184e8 <_close+0x16>

00000000000184fe <_exit>:
   184fe: 93 08 d0 05  	addi	a7, zero, 0x5d
   18502: 73 00 00 00  	ecall
   18506: 63 43 05 00  	blt	a0, zero, 0x1850c <_exit+0xe>
   1850a: 01 a0        	c.j	0x1850a <_exit+0xc>
   1850c: 41 11        	c.addi	sp, -0x10
   1850e: 22 e0        	c.sdsp	s0, 0x0(sp)
   18510: 2a 84        	c.mv	s0, a0
   18512: 06 e4        	c.sdsp	ra, 0x8(sp)
   18514: 3b 04 80 40  	subw	s0, zero, s0
   18518: ef f0 5f c3  	jal	ra, 0x1814c <__errno>
   1851c: 00 c1        	c.sw	s0, 0x0(a0)
   1851e: 01 a0        	c.j	0x1851e <_exit+0x20>

0000000000018520 <_fstat>:
   18520: 35 71        	c.addi16sp	sp, -0xa0
   18522: 26 e5        	c.sdsp	s1, 0x88(sp)
   18524: 06 ed        	c.sdsp	ra, 0x98(sp)
   18526: ae 84        	c.mv	s1, a1
   18528: 22 e9        	c.sdsp	s0, 0x90(sp)
   1852a: 93 08 00 05  	addi	a7, zero, 0x50
   1852e: 8a 85        	c.mv	a1, sp
   18530: 73 00 00 00  	ecall
   18534: 2a 84        	c.mv	s0, a0
   18536: 63 4e 05 00  	blt	a0, zero, 0x18552 <_fstat+0x32>
   1853a: 1b 04 05 00  	addiw	s0, a0, 0x0
   1853e: 26 85        	c.mv	a0, s1
   18540: 8a 85        	c.mv	a1, sp
   18542: ef 00 40 13  	jal	ra, 0x18676 <_conv_stat>
   18546: ea 60        	c.ldsp	ra, 0x98(sp)
   18548: 22 85        	c.mv	a0, s0
   1854a: 4a 64        	c.ldsp	s0, 0x90(sp)
   1854c: aa 64        	c.ldsp	s1, 0x88(sp)
   1854e: 0d 61        	c.addi16sp	sp, 0xa0
   18550: 82 80        	c.jr	ra
   18552: 3b 04 80 40  	subw	s0, zero, s0
   18556: ef f0 7f bf  	jal	ra, 0x1814c <__errno>
   1855a: 00 c1        	c.sw	s0, 0x0(a0)
   1855c: 7d 54        	c.li	s0, -0x1
   1855e: c5 b7        	c.j	0x1853e <_fstat+0x1e>

0000000000018560 <_getpid>:
   18560: 05 45        	c.li	a0, 0x1
   18562: 82 80        	c.jr	ra

0000000000018564 <_isatty>:
   18564: 19 71        	c.addi16sp	sp, -0x80
   18566: 2c 00        	c.addi4spn	a1, sp, 0x8
   18568: 86 fc        	c.sdsp	ra, 0x78(sp)
   1856a: ef f0 7f fb  	jal	ra, 0x18520 <_fstat>
   1856e: fd 57        	c.li	a5, -0x1
   18570: 63 09 f5 00  	beq	a0, a5, 0x18582 <_isatty+0x1e>
   18574: 32 45        	c.lwsp	a0, 0xc(sp)
   18576: e6 70        	c.ldsp	ra, 0x78(sp)
   18578: 1b 55 d5 40  	sraiw	a0, a0, 0xd
   1857c: 05 89        	c.andi	a0, 0x1
   1857e: 09 61        	c.addi16sp	sp, 0x80
   18580: 82 80        	c.jr	ra
   18582: e6 70        	c.ldsp	ra, 0x78(sp)
   18584: 01 45        	c.li	a0, 0x0
   18586: 09 61        	c.addi16sp	sp, 0x80
   18588: 82 80        	c.jr	ra

000000000001858a <_kill>:
   1858a: 41 11        	c.addi	sp, -0x10
   1858c: 06 e4        	c.sdsp	ra, 0x8(sp)
   1858e: ef f0 ff bb  	jal	ra, 0x1814c <__errno>
   18592: a2 60        	c.ldsp	ra, 0x8(sp)
   18594: d9 47        	c.li	a5, 0x16
   18596: 1c c1        	c.sw	a5, 0x0(a0)
   18598: 7d 55        	c.li	a0, -0x1
   1859a: 41 01        	c.addi	sp, 0x10
   1859c: 82 80        	c.jr	ra

000000000001859e <_lseek>:
   1859e: 41 11        	c.addi	sp, -0x10
   185a0: 06 e4        	c.sdsp	ra, 0x8(sp)
   185a2: 22 e0        	c.sdsp	s0, 0x0(sp)
   185a4: 93 08 e0 03  	addi	a7, zero, 0x3e
   185a8: 73 00 00 00  	ecall
   185ac: 2a 84        	c.mv	s0, a0
   185ae: 63 47 05 00  	blt	a0, zero, 0x185bc <_lseek+0x1e>
   185b2: a2 60        	c.ldsp	ra, 0x8(sp)
   185b4: 22 85        	c.mv	a0, s0
   185b6: 02 64        	c.ldsp	s0, 0x0(sp)
   185b8: 41 01        	c.addi	sp, 0x10
   185ba: 82 80        	c.jr	ra
   185bc: 3b 04 80 40  	subw	s0, zero, s0
   185c0: ef f0 df b8  	jal	ra, 0x1814c <__errno>
   185c4: 00 c1        	c.sw	s0, 0x0(a0)
   185c6: 7d 54        	c.li	s0, -0x1
   185c8: ed b7        	c.j	0x185b2 <_lseek+0x14>

00000000000185ca <_read>:
   185ca: 41 11        	c.addi	sp, -0x10
   185cc: 06 e4        	c.sdsp	ra, 0x8(sp)
   185ce: 22 e0        	c.sdsp	s0, 0x0(sp)
   185d0: 93 08 f0 03  	addi	a7, zero, 0x3f
   185d4: 73 00 00 00  	ecall
   185d8: 2a 84        	c.mv	s0, a0
   185da: 63 47 05 00  	blt	a0, zero, 0x185e8 <_read+0x1e>
   185de: a2 60        	c.ldsp	ra, 0x8(sp)
   185e0: 22 85        	c.mv	a0, s0
   185e2: 02 64        	c.ldsp	s0, 0x0(sp)
   185e4: 41 01        	c.addi	sp, 0x10
   185e6: 82 80        	c.jr	ra
   185e8: 3b 04 80 40  	subw	s0, zero, s0
   185ec: ef f0 1f b6  	jal	ra, 0x1814c <__errno>
   185f0: 00 c1        	c.sw	s0, 0x0(a0)
   185f2: 7d 54        	c.li	s0, -0x1
   185f4: ed b7        	c.j	0x185de <_read+0x14>

00000000000185f6 <_sbrk>:
   185f6: 03 b7 01 91  	ld	a4, -0x6f0(gp)
   185fa: 41 11        	c.addi	sp, -0x10
   185fc: 06 e4        	c.sdsp	ra, 0x8(sp)
   185fe: aa 87        	c.mv	a5, a0
   18600: 01 ef        	c.bnez	a4, 0x18618 <_sbrk+0x22>
   18602: 93 08 60 0d  	addi	a7, zero, 0xd6
   18606: 01 45        	c.li	a0, 0x0
   18608: 73 00 00 00  	ecall
   1860c: 7d 56        	c.li	a2, -0x1
   1860e: 2a 87        	c.mv	a4, a0
   18610: 63 05 c5 02  	beq	a0, a2, 0x1863a <_sbrk+0x44>
   18614: 23 b8 a1 90  	sd	a0, -0x6f0(gp)
   18618: 93 08 60 0d  	addi	a7, zero, 0xd6
   1861c: 33 85 e7 00  	add	a0, a5, a4
   18620: 73 00 00 00  	ecall
   18624: 03 b7 01 91  	ld	a4, -0x6f0(gp)
   18628: ba 97        	c.add	a5, a4
   1862a: 63 18 f5 00  	bne	a0, a5, 0x1863a <_sbrk+0x44>
   1862e: a2 60        	c.ldsp	ra, 0x8(sp)
   18630: 23 b8 a1 90  	sd	a0, -0x6f0(gp)
   18634: 3a 85        	c.mv	a0, a4
   18636: 41 01        	c.addi	sp, 0x10
   18638: 82 80        	c.jr	ra
   1863a: ef f0 3f b1  	jal	ra, 0x1814c <__errno>
   1863e: a2 60        	c.ldsp	ra, 0x8(sp)
   18640: b1 47        	c.li	a5, 0xc
   18642: 1c c1        	c.sw	a5, 0x0(a0)
   18644: 7d 55        	c.li	a0, -0x1
   18646: 41 01        	c.addi	sp, 0x10
   18648: 82 80        	c.jr	ra

000000000001864a <_write>:
   1864a: 41 11        	c.addi	sp, -0x10
   1864c: 06 e4        	c.sdsp	ra, 0x8(sp)
   1864e: 22 e0        	c.sdsp	s0, 0x0(sp)
   18650: 93 08 00 04  	addi	a7, zero, 0x40
   18654: 73 00 00 00  	ecall
   18658: 2a 84        	c.mv	s0, a0
   1865a: 63 47 05 00  	blt	a0, zero, 0x18668 <_write+0x1e>
   1865e: a2 60        	c.ldsp	ra, 0x8(sp)
   18660: 22 85        	c.mv	a0, s0
   18662: 02 64        	c.ldsp	s0, 0x0(sp)
   18664: 41 01        	c.addi	sp, 0x10
   18666: 82 80        	c.jr	ra
   18668: 3b 04 80 40  	subw	s0, zero, s0
   1866c: ef f0 1f ae  	jal	ra, 0x1814c <__errno>
   18670: 00 c1        	c.sw	s0, 0x0(a0)
   18672: 7d 54        	c.li	s0, -0x1
   18674: ed b7        	c.j	0x1865e <_write+0x14>

0000000000018676 <_conv_stat>:
   18676: 03 d7 85 01  	lhu	a4, 0x18(a1)
   1867a: 83 d7 45 01  	lhu	a5, 0x14(a1)
   1867e: d0 4d        	c.lw	a2, 0x1c(a1)
   18680: 94 71        	c.ld	a3, 0x20(a1)
   18682: 03 b3 05 00  	ld	t1, 0x0(a1)
   18686: 83 b8 85 00  	ld	a7, 0x8(a1)
   1868a: 03 a8 05 01  	lw	a6, 0x10(a1)
   1868e: 1b 17 07 01  	slliw	a4, a4, 0x10
   18692: d9 8f        	c.or	a5, a4
   18694: 23 16 c5 00  	sh	a2, 0xc(a0)
   18698: 23 17 d5 00  	sh	a3, 0xe(a0)
   1869c: 23 10 65 00  	sh	t1, 0x0(a0)
   186a0: 23 11 15 01  	sh	a7, 0x2(a0)
   186a4: 23 22 05 01  	sw	a6, 0x4(a0)
   186a8: 1c c5        	c.sw	a5, 0x8(a0)
   186aa: 98 79        	c.ld	a4, 0x30(a1)
   186ac: bc 65        	c.ld	a5, 0x48(a1)
   186ae: b0 61        	c.ld	a2, 0x40(a1)
   186b0: 94 5d        	c.lw	a3, 0x38(a1)
   186b2: 18 e9        	c.sd	a4, 0x10(a0)
   186b4: 1c ed        	c.sd	a5, 0x18(a0)
   186b6: b8 6d        	c.ld	a4, 0x58(a1)
   186b8: bc 75        	c.ld	a5, 0x68(a1)
   186ba: 30 e9        	c.sd	a2, 0x50(a0)
   186bc: 34 e5        	c.sd	a3, 0x48(a0)
   186be: 18 f5        	c.sd	a4, 0x28(a0)
   186c0: 1c fd        	c.sd	a5, 0x38(a0)
   186c2: 82 80        	c.jr	ra

00000000000186c4 <__netf2>:
   186c4: 2a 88        	c.mv	a6, a0
   186c6: f3 27 20 00  	csrrs	a5, frm, zero
   186ca: 21 65        	c.lui	a0, 0x8
   186cc: 13 d7 05 03  	srli	a4, a1, 0x30
   186d0: 7d 15        	c.addi	a0, -0x1
   186d2: 7d 5e        	c.li	t3, -0x1
   186d4: 93 58 0e 01  	srli	a7, t3, 0x10
   186d8: 13 d3 06 03  	srli	t1, a3, 0x30
   186dc: 69 8f        	c.and	a4, a0
   186de: b3 f7 15 01  	and	a5, a1, a7
   186e2: 33 73 a3 00  	and	t1, t1, a0
   186e6: b3 f8 16 01  	and	a7, a3, a7
   186ea: fd 91        	c.srli	a1, 0x3f
   186ec: fd 92        	c.srli	a3, 0x3f
   186ee: 63 18 a7 00  	bne	a4, a0, 0x186fe <__netf2+0x3a>
   186f2: 33 e5 07 01  	or	a0, a5, a6
   186f6: 05 e9        	c.bnez	a0, 0x18726 <__netf2+0x62>
   186f8: 63 16 e3 04  	bne	t1, a4, 0x18744 <__netf2+0x80>
   186fc: 19 a0        	c.j	0x18702 <__netf2+0x3e>
   186fe: 63 15 a3 04  	bne	t1, a0, 0x18748 <__netf2+0x84>
   18702: 33 e5 c8 00  	or	a0, a7, a2
   18706: 29 c1        	c.beqz	a0, 0x18748 <__netf2+0x84>
   18708: a1 66        	c.lui	a3, 0x8
   1870a: fd 16        	c.addi	a3, -0x1
   1870c: 63 18 d7 02  	bne	a4, a3, 0x1873c <__netf2+0x78>
   18710: 33 e8 07 01  	or	a6, a5, a6
   18714: 63 00 08 02  	beq	a6, zero, 0x18734 <__netf2+0x70>
   18718: 7d 57        	c.li	a4, -0x1
   1871a: 45 83        	c.srli	a4, 0x11
   1871c: 63 6c f7 00  	bltu	a4, a5, 0x18734 <__netf2+0x70>
   18720: 73 60 18 00  	csrrsi	zero, fflags, 0x10
   18724: 05 a0        	c.j	0x18744 <__netf2+0x80>
   18726: 13 5e 1e 01  	srli	t3, t3, 0x11
   1872a: e3 7b fe fe  	bgeu	t3, a5, 0x18720 <__netf2+0x5c>
   1872e: 05 45        	c.li	a0, 0x1
   18730: 63 1d e3 02  	bne	t1, a4, 0x1876a <__netf2+0xa6>
   18734: 33 e6 c8 00  	or	a2, a7, a2
   18738: 05 45        	c.li	a0, 0x1
   1873a: 05 ca        	c.beqz	a2, 0x1876a <__netf2+0xa6>
   1873c: fd 57        	c.li	a5, -0x1
   1873e: c5 83        	c.srli	a5, 0x11
   18740: e3 f0 17 ff  	bgeu	a5, a7, 0x18720 <__netf2+0x5c>
   18744: 05 45        	c.li	a0, 0x1
   18746: 82 80        	c.jr	ra
   18748: 05 45        	c.li	a0, 0x1
   1874a: 63 10 67 02  	bne	a4, t1, 0x1876a <__netf2+0xa6>
   1874e: 63 9e 17 01  	bne	a5, a7, 0x1876a <__netf2+0xa6>
   18752: 63 1c c8 00  	bne	a6, a2, 0x1876a <__netf2+0xa6>
   18756: 63 88 d5 00  	beq	a1, a3, 0x18766 <__netf2+0xa2>
   1875a: 01 eb        	c.bnez	a4, 0x1876a <__netf2+0xa6>
   1875c: b3 e7 07 01  	or	a5, a5, a6
   18760: 33 35 f0 00  	sltu	a0, zero, a5
   18764: 82 80        	c.jr	ra
   18766: 01 45        	c.li	a0, 0x0
   18768: 82 80        	c.jr	ra
   1876a: 82 80        	c.jr	ra

000000000001876c <__gttf2>:
   1876c: aa 88        	c.mv	a7, a0
   1876e: f3 27 20 00  	csrrs	a5, frm, zero
   18772: 21 63        	c.lui	t1, 0x8
   18774: 13 d8 05 03  	srli	a6, a1, 0x30
   18778: 7d 13        	c.addi	t1, -0x1
   1877a: 7d 57        	c.li	a4, -0x1
   1877c: 41 83        	c.srli	a4, 0x10
   1877e: 93 d7 06 03  	srli	a5, a3, 0x30
   18782: 33 78 68 00  	and	a6, a6, t1
   18786: 33 fe e5 00  	and	t3, a1, a4
   1878a: 33 f5 67 00  	and	a0, a5, t1
   1878e: 75 8f        	c.and	a4, a3
   18790: fd 91        	c.srli	a1, 0x3f
   18792: fd 92        	c.srli	a3, 0x3f
   18794: 63 15 68 00  	bne	a6, t1, 0x1879e <__gttf2+0x32>
   18798: b3 67 1e 01  	or	a5, t3, a7
   1879c: b1 eb        	c.bnez	a5, 0x187f0 <__gttf2+0x84>
   1879e: 63 15 65 00  	bne	a0, t1, 0x187a8 <__gttf2+0x3c>
   187a2: b3 67 c7 00  	or	a5, a4, a2
   187a6: a9 e7        	c.bnez	a5, 0x187f0 <__gttf2+0x84>
   187a8: 81 47        	c.li	a5, 0x0
   187aa: 63 16 08 00  	bne	a6, zero, 0x187b6 <__gttf2+0x4a>
   187ae: b3 67 1e 01  	or	a5, t3, a7
   187b2: 93 b7 17 00  	sltiu	a5, a5, 0x1
   187b6: 29 e1        	c.bnez	a0, 0x187f8 <__gttf2+0x8c>
   187b8: 33 63 c7 00  	or	t1, a4, a2
   187bc: 99 c7        	c.beqz	a5, 0x187ca <__gttf2+0x5e>
   187be: 63 0a 03 00  	beq	t1, zero, 0x187d2 <__gttf2+0x66>
   187c2: 05 45        	c.li	a0, 0x1
   187c4: 99 e6        	c.bnez	a3, 0x187d2 <__gttf2+0x66>
   187c6: 7d 55        	c.li	a0, -0x1
   187c8: 82 80        	c.jr	ra
   187ca: 63 18 03 02  	bne	t1, zero, 0x187fa <__gttf2+0x8e>
   187ce: 7d 55        	c.li	a0, -0x1
   187d0: 9d c9        	c.beqz	a1, 0x18806 <__gttf2+0x9a>
   187d2: 82 80        	c.jr	ra
   187d4: e3 47 a8 fe  	blt	a6, a0, 0x187c2 <__gttf2+0x56>
   187d8: e3 6b c7 ff  	bltu	a4, t3, 0x187ce <__gttf2+0x62>
   187dc: 63 17 ee 00  	bne	t3, a4, 0x187ea <__gttf2+0x7e>
   187e0: e3 67 16 ff  	bltu	a2, a7, 0x187ce <__gttf2+0x62>
   187e4: 01 45        	c.li	a0, 0x0
   187e6: e3 f6 c8 fe  	bgeu	a7, a2, 0x187d2 <__gttf2+0x66>
   187ea: 05 45        	c.li	a0, 0x1
   187ec: fd f1        	c.bnez	a1, 0x187d2 <__gttf2+0x66>
   187ee: e1 bf        	c.j	0x187c6 <__gttf2+0x5a>
   187f0: 73 60 18 00  	csrrsi	zero, fflags, 0x10
   187f4: 79 55        	c.li	a0, -0x2
   187f6: 82 80        	c.jr	ra
   187f8: e9 f7        	c.bnez	a5, 0x187c2 <__gttf2+0x56>
   187fa: e3 9a b6 fc  	bne	a3, a1, 0x187ce <__gttf2+0x62>
   187fe: e3 5b 05 fd  	bge	a0, a6, 0x187d4 <__gttf2+0x68>
   18802: 7d 55        	c.li	a0, -0x1
   18804: f9 f6        	c.bnez	a3, 0x187d2 <__gttf2+0x66>
   18806: 05 45        	c.li	a0, 0x1
   18808: 82 80        	c.jr	ra

000000000001880a <__lttf2>:
   1880a: aa 88        	c.mv	a7, a0
   1880c: f3 27 20 00  	csrrs	a5, frm, zero
   18810: 21 63        	c.lui	t1, 0x8
   18812: 13 d8 05 03  	srli	a6, a1, 0x30
   18816: 7d 13        	c.addi	t1, -0x1
   18818: 7d 57        	c.li	a4, -0x1
   1881a: 41 83        	c.srli	a4, 0x10
   1881c: 93 d7 06 03  	srli	a5, a3, 0x30
   18820: 33 78 68 00  	and	a6, a6, t1
   18824: 33 fe e5 00  	and	t3, a1, a4
   18828: 33 f5 67 00  	and	a0, a5, t1
   1882c: 75 8f        	c.and	a4, a3
   1882e: fd 91        	c.srli	a1, 0x3f
   18830: fd 92        	c.srli	a3, 0x3f
   18832: 63 15 68 00  	bne	a6, t1, 0x1883c <__lttf2+0x32>
   18836: b3 67 1e 01  	or	a5, t3, a7
   1883a: b1 eb        	c.bnez	a5, 0x1888e <__lttf2+0x84>
   1883c: 63 15 65 00  	bne	a0, t1, 0x18846 <__lttf2+0x3c>
   18840: b3 67 c7 00  	or	a5, a4, a2
   18844: a9 e7        	c.bnez	a5, 0x1888e <__lttf2+0x84>
   18846: 81 47        	c.li	a5, 0x0
   18848: 63 16 08 00  	bne	a6, zero, 0x18854 <__lttf2+0x4a>
   1884c: b3 67 1e 01  	or	a5, t3, a7
   18850: 93 b7 17 00  	sltiu	a5, a5, 0x1
   18854: 29 e1        	c.bnez	a0, 0x18896 <__lttf2+0x8c>
   18856: 33 63 c7 00  	or	t1, a4, a2
   1885a: 99 c7        	c.beqz	a5, 0x18868 <__lttf2+0x5e>
   1885c: 63 0a 03 00  	beq	t1, zero, 0x18870 <__lttf2+0x66>
   18860: 05 45        	c.li	a0, 0x1
   18862: 99 e6        	c.bnez	a3, 0x18870 <__lttf2+0x66>
   18864: 7d 55        	c.li	a0, -0x1
   18866: 82 80        	c.jr	ra
   18868: 63 18 03 02  	bne	t1, zero, 0x18898 <__lttf2+0x8e>
   1886c: 7d 55        	c.li	a0, -0x1
   1886e: 9d c9        	c.beqz	a1, 0x188a4 <__lttf2+0x9a>
   18870: 82 80        	c.jr	ra
   18872: e3 47 a8 fe  	blt	a6, a0, 0x18860 <__lttf2+0x56>
   18876: e3 6b c7 ff  	bltu	a4, t3, 0x1886c <__lttf2+0x62>
   1887a: 63 17 ee 00  	bne	t3, a4, 0x18888 <__lttf2+0x7e>
   1887e: e3 67 16 ff  	bltu	a2, a7, 0x1886c <__lttf2+0x62>
   18882: 01 45        	c.li	a0, 0x0
   18884: e3 f6 c8 fe  	bgeu	a7, a2, 0x18870 <__lttf2+0x66>
   18888: 05 45        	c.li	a0, 0x1
   1888a: fd f1        	c.bnez	a1, 0x18870 <__lttf2+0x66>
   1888c: e1 bf        	c.j	0x18864 <__lttf2+0x5a>
   1888e: 73 60 18 00  	csrrsi	zero, fflags, 0x10
   18892: 09 45        	c.li	a0, 0x2
   18894: 82 80        	c.jr	ra
   18896: e9 f7        	c.bnez	a5, 0x18860 <__lttf2+0x56>
   18898: e3 9a b6 fc  	bne	a3, a1, 0x1886c <__lttf2+0x62>
   1889c: e3 5b 05 fd  	bge	a0, a6, 0x18872 <__lttf2+0x68>
   188a0: 7d 55        	c.li	a0, -0x1
   188a2: f9 f6        	c.bnez	a3, 0x18870 <__lttf2+0x66>
   188a4: 05 45        	c.li	a0, 0x1
   188a6: 82 80        	c.jr	ra

00000000000188a8 <__multf3>:
   188a8: 1d 71        	c.addi16sp	sp, -0x60
   188aa: a2 e8        	c.sdsp	s0, 0x50(sp)
   188ac: 56 f4        	c.sdsp	s5, 0x28(sp)
   188ae: 62 e8        	c.sdsp	s8, 0x10(sp)
   188b0: 86 ec        	c.sdsp	ra, 0x58(sp)
   188b2: a6 e4        	c.sdsp	s1, 0x48(sp)
   188b4: ca e0        	c.sdsp	s2, 0x40(sp)
   188b6: 4e fc        	c.sdsp	s3, 0x38(sp)
   188b8: 52 f8        	c.sdsp	s4, 0x30(sp)
   188ba: 5a f0        	c.sdsp	s6, 0x20(sp)
   188bc: 5e ec        	c.sdsp	s7, 0x18(sp)
   188be: 66 e4        	c.sdsp	s9, 0x8(sp)
   188c0: 2a 84        	c.mv	s0, a0
   188c2: 32 8c        	c.mv	s8, a2
   188c4: b6 8a        	c.mv	s5, a3
   188c6: f3 29 20 00  	csrrs	s3, frm, zero
   188ca: 21 67        	c.lui	a4, 0x8
   188cc: 93 d7 05 03  	srli	a5, a1, 0x30
   188d0: 7d 17        	c.addi	a4, -0x1
   188d2: 93 94 05 01  	slli	s1, a1, 0x10
   188d6: f9 8f        	c.and	a5, a4
   188d8: 81 29        	c.addiw	s3, 0x0
   188da: c1 80        	c.srli	s1, 0x10
   188dc: 13 db f5 03  	srli	s6, a1, 0x3f
   188e0: 85 c7        	c.beqz	a5, 0x18908 <__multf3+0x60>
   188e2: 1b 8a 07 00  	addiw	s4, a5, 0x0
   188e6: 63 8f e7 06  	beq	a5, a4, 0x18964 <__multf3+0xbc>
   188ea: 8e 04        	c.slli	s1, 0x3
   188ec: 13 57 d5 03  	srli	a4, a0, 0x3d
   188f0: 45 8f        	c.or	a4, s1
   188f2: 71 7a        	c.lui	s4, 0xffffc
   188f4: 85 44        	c.li	s1, 0x1
   188f6: ce 14        	c.slli	s1, 0x33
   188f8: 05 0a        	c.addi	s4, 0x1
   188fa: d9 8c        	c.or	s1, a4
   188fc: 93 1b 35 00  	slli	s7, a0, 0x3
   18900: 3e 9a        	c.add	s4, a5
   18902: 81 4c        	c.li	s9, 0x0
   18904: 01 49        	c.li	s2, 0x0
   18906: 95 a8        	c.j	0x1897a <__multf3+0xd2>
   18908: b3 6b 95 00  	or	s7, a0, s1
   1890c: 63 82 0b 28  	beq	s7, zero, 0x18b90 <__multf3+0x2e8>
   18910: 9d c8        	c.beqz	s1, 0x18946 <__multf3+0x9e>
   18912: 26 85        	c.mv	a0, s1
   18914: ef 00 30 7f  	jal	ra, 0x19906 <__clzdi2>
   18918: 01 25        	c.addiw	a0, 0x0
   1891a: 93 07 15 ff  	addi	a5, a0, -0xf
   1891e: 13 07 d0 03  	addi	a4, zero, 0x3d
   18922: 9b 86 37 00  	addiw	a3, a5, 0x3
   18926: bb 07 f7 40  	subw	a5, a4, a5
   1892a: b3 94 d4 00  	sll	s1, s1, a3
   1892e: b3 57 f4 00  	srl	a5, s0, a5
   18932: c5 8f        	c.or	a5, s1
   18934: b3 14 d4 00  	sll	s1, s0, a3
   18938: 71 7a        	c.lui	s4, 0xffffc
   1893a: 45 0a        	c.addi	s4, 0x11
   1893c: a6 8b        	c.mv	s7, s1
   1893e: 33 0a aa 40  	sub	s4, s4, a0
   18942: be 84        	c.mv	s1, a5
   18944: 7d bf        	c.j	0x18902 <__multf3+0x5a>
   18946: ef 00 10 7c  	jal	ra, 0x19906 <__clzdi2>
   1894a: 1b 05 05 04  	addiw	a0, a0, 0x40
   1894e: 93 07 15 ff  	addi	a5, a0, -0xf
   18952: 13 07 c0 03  	addi	a4, zero, 0x3c
   18956: e3 54 f7 fc  	bge	a4, a5, 0x1891e <__multf3+0x76>
   1895a: 9b 87 37 fc  	addiw	a5, a5, -0x3d
   1895e: b3 17 f4 00  	sll	a5, s0, a5
   18962: d9 bf        	c.j	0x18938 <__multf3+0x90>
   18964: b3 6b 95 00  	or	s7, a0, s1
   18968: 63 88 0b 22  	beq	s7, zero, 0x18b98 <__multf3+0x2f0>
   1896c: 05 49        	c.li	s2, 0x1
   1896e: 3e 19        	c.slli	s2, 0x2f
   18970: 33 b9 24 01  	sltu	s2, s1, s2
   18974: 12 09        	c.slli	s2, 0x4
   18976: aa 8b        	c.mv	s7, a0
   18978: 8d 4c        	c.li	s9, 0x3
   1897a: 21 66        	c.lui	a2, 0x8
   1897c: 13 d7 0a 03  	srli	a4, s5, 0x30
   18980: fd 56        	c.li	a3, -0x1
   18982: 7d 16        	c.addi	a2, -0x1
   18984: 13 d4 06 01  	srli	s0, a3, 0x10
   18988: 71 8f        	c.and	a4, a2
   1898a: 33 f4 8a 00  	and	s0, s5, s0
   1898e: 62 85        	c.mv	a0, s8
   18990: 93 da fa 03  	srli	s5, s5, 0x3f
   18994: 63 05 07 20  	beq	a4, zero, 0x18b9e <__multf3+0x2f6>
   18998: 9b 07 07 00  	addiw	a5, a4, 0x0
   1899c: 63 0e c7 24  	beq	a4, a2, 0x18bf8 <__multf3+0x350>
   189a0: 0e 04        	c.slli	s0, 0x3
   189a2: 93 57 dc 03  	srli	a5, s8, 0x3d
   189a6: c1 8f        	c.or	a5, s0
   189a8: 05 44        	c.li	s0, 0x1
   189aa: 4e 14        	c.slli	s0, 0x33
   189ac: 5d 8c        	c.or	s0, a5
   189ae: f1 77        	c.lui	a5, 0xffffc
   189b0: 85 07        	c.addi	a5, 0x1
   189b2: 13 15 3c 00  	slli	a0, s8, 0x3
   189b6: ba 97        	c.add	a5, a4
   189b8: 01 47        	c.li	a4, 0x0
   189ba: b3 86 47 01  	add	a3, a5, s4
   189be: 93 97 2c 00  	slli	a5, s9, 0x2
   189c2: d9 8f        	c.or	a5, a4
   189c4: 29 46        	c.li	a2, 0xa
   189c6: 93 88 16 00  	addi	a7, a3, 0x1
   189ca: 63 4f f6 2a  	blt	a2, a5, 0x18c88 <__multf3+0x3e0>
   189ce: 89 45        	c.li	a1, 0x2
   189d0: 33 46 5b 01  	xor	a2, s6, s5
   189d4: 63 c4 f5 24  	blt	a1, a5, 0x18c1c <__multf3+0x374>
   189d8: fd 17        	c.addi	a5, -0x1
   189da: 85 45        	c.li	a1, 0x1
   189dc: 63 ff f5 24  	bgeu	a1, a5, 0x18c3a <__multf3+0x392>
   189e0: fd 57        	c.li	a5, -0x1
   189e2: 81 93        	c.srli	a5, 0x20
   189e4: 13 d7 0b 02  	srli	a4, s7, 0x20
   189e8: 93 55 05 02  	srli	a1, a0, 0x20
   189ec: b3 8f 74 01  	add	t6, s1, s7
   189f0: 33 0f 85 00  	add	t5, a0, s0
   189f4: b3 fb fb 00  	and	s7, s7, a5
   189f8: e9 8f        	c.and	a5, a0
   189fa: b3 3e af 00  	sltu	t4, t5, a0
   189fe: 33 85 77 03  	mul	a0, a5, s7
   18a02: 33 be 9f 00  	sltu	t3, t6, s1
   18a06: b3 07 f7 02  	mul	a5, a4, a5
   18a0a: 13 58 05 02  	srli	a6, a0, 0x20
   18a0e: 33 07 b7 02  	mul	a4, a4, a1
   18a12: b3 85 75 03  	mul	a1, a1, s7
   18a16: be 95        	c.add	a1, a5
   18a18: 2e 98        	c.add	a6, a1
   18a1a: 63 75 f8 00  	bgeu	a6, a5, 0x18a24 <__multf3+0x17c>
   18a1e: 85 47        	c.li	a5, 0x1
   18a20: 82 17        	c.slli	a5, 0x20
   18a22: 3e 97        	c.add	a4, a5
   18a24: fd 57        	c.li	a5, -0x1
   18a26: 81 93        	c.srli	a5, 0x20
   18a28: 13 53 08 02  	srli	t1, a6, 0x20
   18a2c: 33 78 f8 00  	and	a6, a6, a5
   18a30: 7d 8d        	c.and	a0, a5
   18a32: 02 18        	c.slli	a6, 0x20
   18a34: 93 d3 0f 02  	srli	t2, t6, 0x20
   18a38: 3a 93        	c.add	t1, a4
   18a3a: 2a 98        	c.add	a6, a0
   18a3c: 13 57 0f 02  	srli	a4, t5, 0x20
   18a40: 33 f5 ff 00  	and	a0, t6, a5
   18a44: b3 77 ff 00  	and	a5, t5, a5
   18a48: b3 85 a7 02  	mul	a1, a5, a0
   18a4c: b3 87 f3 02  	mul	a5, t2, a5
   18a50: 93 d2 05 02  	srli	t0, a1, 0x20
   18a54: b3 83 e3 02  	mul	t2, t2, a4
   18a58: 33 07 a7 02  	mul	a4, a4, a0
   18a5c: 3e 97        	c.add	a4, a5
   18a5e: ba 92        	c.add	t0, a4
   18a60: 63 f5 f2 00  	bgeu	t0, a5, 0x18a6a <__multf3+0x1c2>
   18a64: 85 47        	c.li	a5, 0x1
   18a66: 82 17        	c.slli	a5, 0x20
   18a68: be 93        	c.add	t2, a5
   18a6a: fd 57        	c.li	a5, -0x1
   18a6c: 81 93        	c.srli	a5, 0x20
   18a6e: 13 d7 02 02  	srli	a4, t0, 0x20
   18a72: b3 f2 f2 00  	and	t0, t0, a5
   18a76: fd 8d        	c.and	a1, a5
   18a78: 82 12        	c.slli	t0, 0x20
   18a7a: 13 55 04 02  	srli	a0, s0, 0x20
   18a7e: ae 92        	c.add	t0, a1
   18a80: 93 d5 04 02  	srli	a1, s1, 0x20
   18a84: fd 8c        	c.and	s1, a5
   18a86: e1 8f        	c.and	a5, s0
   18a88: 33 8a f4 02  	mul	s4, s1, a5
   18a8c: 33 84 a5 02  	mul	s0, a1, a0
   18a90: b3 87 f5 02  	mul	a5, a1, a5
   18a94: 33 05 95 02  	mul	a0, a0, s1
   18a98: b3 05 f5 00  	add	a1, a0, a5
   18a9c: 13 55 0a 02  	srli	a0, s4, 0x20
   18aa0: 2e 95        	c.add	a0, a1
   18aa2: 63 75 f5 00  	bgeu	a0, a5, 0x18aac <__multf3+0x204>
   18aa6: 85 47        	c.li	a5, 0x1
   18aa8: 82 17        	c.slli	a5, 0x20
   18aaa: 3e 94        	c.add	s0, a5
   18aac: 93 55 05 02  	srli	a1, a0, 0x20
   18ab0: a2 95        	c.add	a1, s0
   18ab2: 7d 54        	c.li	s0, -0x1
   18ab4: 01 90        	c.srli	s0, 0x20
   18ab6: b3 77 85 00  	and	a5, a0, s0
   18aba: 82 17        	c.slli	a5, 0x20
   18abc: 33 7a 8a 00  	and	s4, s4, s0
   18ac0: d2 97        	c.add	a5, s4
   18ac2: 01 45        	c.li	a0, 0x0
   18ac4: 63 83 0e 00  	beq	t4, zero, 0x18aca <__multf3+0x222>
   18ac8: 7e 85        	c.mv	a0, t6
   18aca: 81 4f        	c.li	t6, 0x0
   18acc: 63 03 0e 00  	beq	t3, zero, 0x18ad2 <__multf3+0x22a>
   18ad0: fa 8f        	c.mv	t6, t5
   18ad2: 33 84 62 00  	add	s0, t0, t1
   18ad6: 33 3f 54 00  	sltu	t5, s0, t0
   18ada: 7a 97        	c.add	a4, t5
   18adc: 1e 97        	c.add	a4, t2
   18ade: 33 7e de 01  	and	t3, t3, t4
   18ae2: 33 3f e7 01  	sltu	t5, a4, t5
   18ae6: 3a 95        	c.add	a0, a4
   18ae8: 72 9f        	c.add	t5, t3
   18aea: 33 37 e5 00  	sltu	a4, a0, a4
   18aee: 7e 95        	c.add	a0, t6
   18af0: 7a 97        	c.add	a4, t5
   18af2: b3 3f f5 01  	sltu	t6, a0, t6
   18af6: 33 0e 04 41  	sub	t3, s0, a6
   18afa: b3 3e c4 01  	sltu	t4, s0, t3
   18afe: ba 9f        	c.add	t6, a4
   18b00: 33 07 65 40  	sub	a4, a0, t1
   18b04: 33 3f e5 00  	sltu	t5, a0, a4
   18b08: 33 07 d7 41  	sub	a4, a4, t4
   18b0c: 81 4e        	c.li	t4, 0x0
   18b0e: 63 76 c4 01  	bgeu	s0, t3, 0x18b1a <__multf3+0x272>
   18b12: 33 03 a3 40  	sub	t1, t1, a0
   18b16: 93 3e 13 00  	sltiu	t4, t1, 0x1
   18b1a: ae 9f        	c.add	t6, a1
   18b1c: 33 03 fe 40  	sub	t1, t3, a5
   18b20: b3 05 b7 40  	sub	a1, a4, a1
   18b24: 33 35 b7 00  	sltu	a0, a4, a1
   18b28: 33 37 6e 00  	sltu	a4, t3, t1
   18b2c: 33 ef ee 01  	or	t5, t4, t5
   18b30: 33 87 e7 40  	sub	a4, a5, a4
   18b34: 81 4e        	c.li	t4, 0x0
   18b36: 63 74 6e 00  	bgeu	t3, t1, 0x18b3e <__multf3+0x296>
   18b3a: 93 be 15 00  	sltiu	t4, a1, 0x1
   18b3e: ba 95        	c.add	a1, a4
   18b40: 33 b7 f5 00  	sltu	a4, a1, a5
   18b44: 7e 97        	c.add	a4, t6
   18b46: b3 ee ae 00  	or	t4, t4, a0
   18b4a: 33 07 e7 41  	sub	a4, a4, t5
   18b4e: 13 15 d3 00  	slli	a0, t1, 0xd
   18b52: 33 07 d7 41  	sub	a4, a4, t4
   18b56: 33 65 05 01  	or	a0, a0, a6
   18b5a: 36 07        	c.slli	a4, 0xd
   18b5c: 33 35 a0 00  	sltu	a0, zero, a0
   18b60: 13 53 33 03  	srli	t1, t1, 0x33
   18b64: 13 d4 35 03  	srli	s0, a1, 0x33
   18b68: 33 65 65 00  	or	a0, a0, t1
   18b6c: b6 05        	c.slli	a1, 0xd
   18b6e: 93 17 b7 00  	slli	a5, a4, 0xb
   18b72: 59 8c        	c.or	s0, a4
   18b74: 4d 8d        	c.or	a0, a1
   18b76: 63 db 07 00  	bge	a5, zero, 0x18b8c <__multf3+0x2e4>
   18b7a: 93 57 15 00  	srli	a5, a0, 0x1
   18b7e: 05 89        	c.andi	a0, 0x1
   18b80: c9 8f        	c.or	a5, a0
   18b82: 13 15 f4 03  	slli	a0, s0, 0x3f
   18b86: 5d 8d        	c.or	a0, a5
   18b88: 05 80        	c.srli	s0, 0x1
   18b8a: c6 86        	c.mv	a3, a7
   18b8c: b6 88        	c.mv	a7, a3
   18b8e: 7d a8        	c.j	0x18c4c <__multf3+0x3a4>
   18b90: 81 44        	c.li	s1, 0x0
   18b92: 01 4a        	c.li	s4, 0x0
   18b94: 85 4c        	c.li	s9, 0x1
   18b96: bd b3        	c.j	0x18904 <__multf3+0x5c>
   18b98: 81 44        	c.li	s1, 0x0
   18b9a: 89 4c        	c.li	s9, 0x2
   18b9c: a5 b3        	c.j	0x18904 <__multf3+0x5c>
   18b9e: b3 67 8c 00  	or	a5, s8, s0
   18ba2: a5 c7        	c.beqz	a5, 0x18c0a <__multf3+0x362>
   18ba4: 1d c8        	c.beqz	s0, 0x18bda <__multf3+0x332>
   18ba6: 22 85        	c.mv	a0, s0
   18ba8: ef 00 f0 55  	jal	ra, 0x19906 <__clzdi2>
   18bac: 01 25        	c.addiw	a0, 0x0
   18bae: 93 07 15 ff  	addi	a5, a0, -0xf
   18bb2: 13 07 d0 03  	addi	a4, zero, 0x3d
   18bb6: 9b 86 37 00  	addiw	a3, a5, 0x3
   18bba: bb 07 f7 40  	subw	a5, a4, a5
   18bbe: 33 14 d4 00  	sll	s0, s0, a3
   18bc2: b3 57 fc 00  	srl	a5, s8, a5
   18bc6: 33 e7 87 00  	or	a4, a5, s0
   18bca: 33 14 dc 00  	sll	s0, s8, a3
   18bce: f1 77        	c.lui	a5, 0xffffc
   18bd0: c5 07        	c.addi	a5, 0x11
   18bd2: 89 8f        	c.sub	a5, a0
   18bd4: 22 85        	c.mv	a0, s0
   18bd6: 3a 84        	c.mv	s0, a4
   18bd8: c5 b3        	c.j	0x189b8 <__multf3+0x110>
   18bda: ef 00 d0 52  	jal	ra, 0x19906 <__clzdi2>
   18bde: 1b 05 05 04  	addiw	a0, a0, 0x40
   18be2: 93 07 15 ff  	addi	a5, a0, -0xf
   18be6: 13 07 c0 03  	addi	a4, zero, 0x3c
   18bea: e3 54 f7 fc  	bge	a4, a5, 0x18bb2 <__multf3+0x30a>
   18bee: 9b 87 37 fc  	addiw	a5, a5, -0x3d
   18bf2: 33 17 fc 00  	sll	a4, s8, a5
   18bf6: e1 bf        	c.j	0x18bce <__multf3+0x326>
   18bf8: 33 67 8c 00  	or	a4, s8, s0
   18bfc: 01 cf        	c.beqz	a4, 0x18c14 <__multf3+0x36c>
   18bfe: c5 82        	c.srli	a3, 0x11
   18c00: 0d 47        	c.li	a4, 0x3
   18c02: e3 ec 86 da  	bltu	a3, s0, 0x189ba <__multf3+0x112>
   18c06: 41 49        	c.li	s2, 0x10
   18c08: 4d bb        	c.j	0x189ba <__multf3+0x112>
   18c0a: 01 44        	c.li	s0, 0x0
   18c0c: 01 45        	c.li	a0, 0x0
   18c0e: 81 47        	c.li	a5, 0x0
   18c10: 05 47        	c.li	a4, 0x1
   18c12: 65 b3        	c.j	0x189ba <__multf3+0x112>
   18c14: 01 44        	c.li	s0, 0x0
   18c16: 01 45        	c.li	a0, 0x0
   18c18: 09 47        	c.li	a4, 0x2
   18c1a: 45 b3        	c.j	0x189ba <__multf3+0x112>
   18c1c: 85 45        	c.li	a1, 0x1
   18c1e: b3 97 f5 00  	sll	a5, a1, a5
   18c22: 93 f5 07 53  	andi	a1, a5, 0x530
   18c26: a5 e9        	c.bnez	a1, 0x18c96 <__multf3+0x3ee>
   18c28: 93 f5 07 24  	andi	a1, a5, 0x240
   18c2c: 63 99 05 24  	bne	a1, zero, 0x18e7e <__multf3+0x5d6>
   18c30: 93 f7 87 08  	andi	a5, a5, 0x88
   18c34: e3 86 07 da  	beq	a5, zero, 0x189e0 <__multf3+0x138>
   18c38: 56 86        	c.mv	a2, s5
   18c3a: 89 47        	c.li	a5, 0x2
   18c3c: 63 09 f7 24  	beq	a4, a5, 0x18e8e <__multf3+0x5e6>
   18c40: 8d 47        	c.li	a5, 0x3
   18c42: 63 0f f7 22  	beq	a4, a5, 0x18e80 <__multf3+0x5d8>
   18c46: 85 47        	c.li	a5, 0x1
   18c48: 63 08 f7 24  	beq	a4, a5, 0x18e98 <__multf3+0x5f0>
   18c4c: 11 67        	c.lui	a4, 0x4
   18c4e: 7d 17        	c.addi	a4, -0x1
   18c50: 46 97        	c.add	a4, a7
   18c52: 63 5f e0 0c  	bge	zero, a4, 0x18d30 <__multf3+0x488>
   18c56: 93 77 75 00  	andi	a5, a0, 0x7
   18c5a: b9 c7        	c.beqz	a5, 0x18ca8 <__multf3+0x400>
   18c5c: 89 47        	c.li	a5, 0x2
   18c5e: 13 69 19 00  	ori	s2, s2, 0x1
   18c62: 63 82 f9 04  	beq	s3, a5, 0x18ca6 <__multf3+0x3fe>
   18c66: 8d 47        	c.li	a5, 0x3
   18c68: 63 8b f9 02  	beq	s3, a5, 0x18c9e <__multf3+0x3f6>
   18c6c: 63 9e 09 02  	bne	s3, zero, 0x18ca8 <__multf3+0x400>
   18c70: 93 77 f5 00  	andi	a5, a0, 0xf
   18c74: 91 46        	c.li	a3, 0x4
   18c76: 63 89 d7 02  	beq	a5, a3, 0x18ca8 <__multf3+0x400>
   18c7a: 93 07 45 00  	addi	a5, a0, 0x4
   18c7e: b3 b6 a7 00  	sltu	a3, a5, a0
   18c82: 36 94        	c.add	s0, a3
   18c84: 3e 85        	c.mv	a0, a5
   18c86: 0d a0        	c.j	0x18ca8 <__multf3+0x400>
   18c88: bd 46        	c.li	a3, 0xf
   18c8a: 63 8b d7 1e  	beq	a5, a3, 0x18e80 <__multf3+0x5d8>
   18c8e: ad 46        	c.li	a3, 0xb
   18c90: 5a 86        	c.mv	a2, s6
   18c92: e3 83 d7 fa  	beq	a5, a3, 0x18c38 <__multf3+0x390>
   18c96: 26 84        	c.mv	s0, s1
   18c98: 5e 85        	c.mv	a0, s7
   18c9a: 66 87        	c.mv	a4, s9
   18c9c: 79 bf        	c.j	0x18c3a <__multf3+0x392>
   18c9e: 09 e6        	c.bnez	a2, 0x18ca8 <__multf3+0x400>
   18ca0: 93 07 85 00  	addi	a5, a0, 0x8
   18ca4: e9 bf        	c.j	0x18c7e <__multf3+0x3d6>
   18ca6: 6d fe        	c.bnez	a2, 0x18ca0 <__multf3+0x3f8>
   18ca8: 93 17 b4 00  	slli	a5, s0, 0xb
   18cac: 63 d8 07 00  	bge	a5, zero, 0x18cbc <__multf3+0x414>
   18cb0: fd 57        	c.li	a5, -0x1
   18cb2: d2 17        	c.slli	a5, 0x34
   18cb4: fd 17        	c.addi	a5, -0x1
   18cb6: 11 67        	c.lui	a4, 0x4
   18cb8: 7d 8c        	c.and	s0, a5
   18cba: 46 97        	c.add	a4, a7
   18cbc: a1 67        	c.lui	a5, 0x8
   18cbe: f9 17        	c.addi	a5, -0x2
   18cc0: a1 66        	c.lui	a3, 0x8
   18cc2: 63 c2 e7 04  	blt	a5, a4, 0x18d06 <__multf3+0x45e>
   18cc6: 93 57 35 00  	srli	a5, a0, 0x3
   18cca: 13 15 d4 03  	slli	a0, s0, 0x3d
   18cce: 5d 8d        	c.or	a0, a5
   18cd0: 93 57 34 00  	srli	a5, s0, 0x3
   18cd4: 1b 16 f6 00  	slliw	a2, a2, 0xf
   18cd8: 93 95 07 01  	slli	a1, a5, 0x10
   18cdc: 51 8f        	c.or	a4, a2
   18cde: 42 17        	c.slli	a4, 0x30
   18ce0: c1 81        	c.srli	a1, 0x10
   18ce2: d9 8d        	c.or	a1, a4
   18ce4: 63 04 09 00  	beq	s2, zero, 0x18cec <__multf3+0x444>
   18ce8: 73 20 19 00  	csrrs	zero, fflags, s2
   18cec: e6 60        	c.ldsp	ra, 0x58(sp)
   18cee: 46 64        	c.ldsp	s0, 0x50(sp)
   18cf0: a6 64        	c.ldsp	s1, 0x48(sp)
   18cf2: 06 69        	c.ldsp	s2, 0x40(sp)
   18cf4: e2 79        	c.ldsp	s3, 0x38(sp)
   18cf6: 42 7a        	c.ldsp	s4, 0x30(sp)
   18cf8: a2 7a        	c.ldsp	s5, 0x28(sp)
   18cfa: 02 7b        	c.ldsp	s6, 0x20(sp)
   18cfc: e2 6b        	c.ldsp	s7, 0x18(sp)
   18cfe: 42 6c        	c.ldsp	s8, 0x10(sp)
   18d00: a2 6c        	c.ldsp	s9, 0x8(sp)
   18d02: 25 61        	c.addi16sp	sp, 0x60
   18d04: 82 80        	c.jr	ra
   18d06: 09 47        	c.li	a4, 0x2
   18d08: 63 82 e9 02  	beq	s3, a4, 0x18d2c <__multf3+0x484>
   18d0c: 0d 47        	c.li	a4, 0x3
   18d0e: 63 88 e9 00  	beq	s3, a4, 0x18d1e <__multf3+0x476>
   18d12: 63 97 09 00  	bne	s3, zero, 0x18d20 <__multf3+0x478>
   18d16: 01 45        	c.li	a0, 0x0
   18d18: 13 87 f6 ff  	addi	a4, a3, -0x1
   18d1c: 21 a0        	c.j	0x18d24 <__multf3+0x47c>
   18d1e: 65 de        	c.beqz	a2, 0x18d16 <__multf3+0x46e>
   18d20: 7d 55        	c.li	a0, -0x1
   18d22: 3e 87        	c.mv	a4, a5
   18d24: 13 69 59 00  	ori	s2, s2, 0x5
   18d28: aa 87        	c.mv	a5, a0
   18d2a: 6d b7        	c.j	0x18cd4 <__multf3+0x42c>
   18d2c: 6d f6        	c.bnez	a2, 0x18d16 <__multf3+0x46e>
   18d2e: cd bf        	c.j	0x18d20 <__multf3+0x478>
   18d30: 85 46        	c.li	a3, 0x1
   18d32: 21 e7        	c.bnez	a4, 0x18d7a <__multf3+0x4d2>
   18d34: 93 76 75 00  	andi	a3, a0, 0x7
   18d38: a2 87        	c.mv	a5, s0
   18d3a: 9d ca        	c.beqz	a3, 0x18d70 <__multf3+0x4c8>
   18d3c: 89 46        	c.li	a3, 0x2
   18d3e: 13 69 19 00  	ori	s2, s2, 0x1
   18d42: 63 86 d9 02  	beq	s3, a3, 0x18d6e <__multf3+0x4c6>
   18d46: 8d 46        	c.li	a3, 0x3
   18d48: 63 8f d9 00  	beq	s3, a3, 0x18d66 <__multf3+0x4be>
   18d4c: 63 92 09 02  	bne	s3, zero, 0x18d70 <__multf3+0x4c8>
   18d50: 93 76 f5 00  	andi	a3, a0, 0xf
   18d54: 91 45        	c.li	a1, 0x4
   18d56: 63 8d b6 00  	beq	a3, a1, 0x18d70 <__multf3+0x4c8>
   18d5a: 93 37 c5 ff  	sltiu	a5, a0, -0x4
   18d5e: 93 c7 17 00  	xori	a5, a5, 0x1
   18d62: a2 97        	c.add	a5, s0
   18d64: 31 a0        	c.j	0x18d70 <__multf3+0x4c8>
   18d66: 09 e6        	c.bnez	a2, 0x18d70 <__multf3+0x4c8>
   18d68: 93 37 85 ff  	sltiu	a5, a0, -0x8
   18d6c: cd bf        	c.j	0x18d5e <__multf3+0x4b6>
   18d6e: 6d fe        	c.bnez	a2, 0x18d68 <__multf3+0x4c0>
   18d70: 93 d6 47 03  	srli	a3, a5, 0x34
   18d74: 93 c6 16 00  	xori	a3, a3, 0x1
   18d78: 85 8a        	c.andi	a3, 0x1
   18d7a: 05 48        	c.li	a6, 0x1
   18d7c: 33 08 e8 40  	sub	a6, a6, a4
   18d80: 93 07 40 07  	addi	a5, zero, 0x74
   18d84: 63 c2 07 0d  	blt	a5, a6, 0x18e48 <__multf3+0x5a0>
   18d88: 13 07 f0 03  	addi	a4, zero, 0x3f
   18d8c: 9b 07 08 00  	addiw	a5, a6, 0x0
   18d90: 63 4b 07 05  	blt	a4, a6, 0x18de6 <__multf3+0x53e>
   18d94: 93 05 00 04  	addi	a1, zero, 0x40
   18d98: 9d 9d        	c.subw	a1, a5
   18d9a: 33 17 b4 00  	sll	a4, s0, a1
   18d9e: 33 58 f5 00  	srl	a6, a0, a5
   18da2: b3 15 b5 00  	sll	a1, a0, a1
   18da6: 33 67 07 01  	or	a4, a4, a6
   18daa: b3 35 b0 00  	sltu	a1, zero, a1
   18dae: 4d 8f        	c.or	a4, a1
   18db0: b3 57 f4 00  	srl	a5, s0, a5
   18db4: 93 75 77 00  	andi	a1, a4, 0x7
   18db8: a5 c1        	c.beqz	a1, 0x18e18 <__multf3+0x570>
   18dba: 89 45        	c.li	a1, 0x2
   18dbc: 13 69 19 00  	ori	s2, s2, 0x1
   18dc0: 63 8b b9 04  	beq	s3, a1, 0x18e16 <__multf3+0x56e>
   18dc4: 8d 45        	c.li	a1, 0x3
   18dc6: 63 84 b9 04  	beq	s3, a1, 0x18e0e <__multf3+0x566>
   18dca: 63 97 09 04  	bne	s3, zero, 0x18e18 <__multf3+0x570>
   18dce: 93 75 f7 00  	andi	a1, a4, 0xf
   18dd2: 11 45        	c.li	a0, 0x4
   18dd4: 63 82 a5 04  	beq	a1, a0, 0x18e18 <__multf3+0x570>
   18dd8: 93 05 47 00  	addi	a1, a4, 0x4
   18ddc: 33 b5 e5 00  	sltu	a0, a1, a4
   18de0: aa 97        	c.add	a5, a0
   18de2: 2e 87        	c.mv	a4, a1
   18de4: 15 a8        	c.j	0x18e18 <__multf3+0x570>
   18de6: 1b 87 07 fc  	addiw	a4, a5, -0x40
   18dea: 93 08 00 04  	addi	a7, zero, 0x40
   18dee: 33 57 e4 00  	srl	a4, s0, a4
   18df2: 81 45        	c.li	a1, 0x0
   18df4: 63 07 18 01  	beq	a6, a7, 0x18e02 <__multf3+0x55a>
   18df8: 93 05 00 08  	addi	a1, zero, 0x80
   18dfc: 9d 9d        	c.subw	a1, a5
   18dfe: b3 15 b4 00  	sll	a1, s0, a1
   18e02: c9 8d        	c.or	a1, a0
   18e04: b3 35 b0 00  	sltu	a1, zero, a1
   18e08: 4d 8f        	c.or	a4, a1
   18e0a: 81 47        	c.li	a5, 0x0
   18e0c: 65 b7        	c.j	0x18db4 <__multf3+0x50c>
   18e0e: 09 e6        	c.bnez	a2, 0x18e18 <__multf3+0x570>
   18e10: 93 05 87 00  	addi	a1, a4, 0x8
   18e14: e1 b7        	c.j	0x18ddc <__multf3+0x534>
   18e16: 6d fe        	c.bnez	a2, 0x18e10 <__multf3+0x568>
   18e18: 93 95 c7 00  	slli	a1, a5, 0xc
   18e1c: 63 df 05 00  	bge	a1, zero, 0x18e3a <__multf3+0x592>
   18e20: 13 69 19 00  	ori	s2, s2, 0x1
   18e24: 81 47        	c.li	a5, 0x0
   18e26: 01 45        	c.li	a0, 0x0
   18e28: 05 47        	c.li	a4, 0x1
   18e2a: e3 85 06 ea  	beq	a3, zero, 0x18cd4 <__multf3+0x42c>
   18e2e: 93 76 19 00  	andi	a3, s2, 0x1
   18e32: 86 06        	c.slli	a3, 0x1
   18e34: 33 e9 26 01  	or	s2, a3, s2
   18e38: 71 bd        	c.j	0x18cd4 <__multf3+0x42c>
   18e3a: 0d 83        	c.srli	a4, 0x3
   18e3c: 13 95 d7 03  	slli	a0, a5, 0x3d
   18e40: 59 8d        	c.or	a0, a4
   18e42: 8d 83        	c.srli	a5, 0x3
   18e44: 01 47        	c.li	a4, 0x0
   18e46: d5 b7        	c.j	0x18e2a <__multf3+0x582>
   18e48: 41 8d        	c.or	a0, s0
   18e4a: 11 cd        	c.beqz	a0, 0x18e66 <__multf3+0x5be>
   18e4c: 89 47        	c.li	a5, 0x2
   18e4e: 13 69 19 00  	ori	s2, s2, 0x1
   18e52: 63 83 f9 02  	beq	s3, a5, 0x18e78 <__multf3+0x5d0>
   18e56: 8d 47        	c.li	a5, 0x3
   18e58: 63 8c f9 00  	beq	s3, a5, 0x18e70 <__multf3+0x5c8>
   18e5c: 05 45        	c.li	a0, 0x1
   18e5e: 63 93 09 00  	bne	s3, zero, 0x18e64 <__multf3+0x5bc>
   18e62: 15 45        	c.li	a0, 0x5
   18e64: 0d 81        	c.srli	a0, 0x3
   18e66: 13 69 29 00  	ori	s2, s2, 0x2
   18e6a: 81 47        	c.li	a5, 0x0
   18e6c: 01 47        	c.li	a4, 0x0
   18e6e: 9d b5        	c.j	0x18cd4 <__multf3+0x42c>
   18e70: 25 45        	c.li	a0, 0x9
   18e72: 6d da        	c.beqz	a2, 0x18e64 <__multf3+0x5bc>
   18e74: 05 45        	c.li	a0, 0x1
   18e76: fd b7        	c.j	0x18e64 <__multf3+0x5bc>
   18e78: 25 45        	c.li	a0, 0x9
   18e7a: 6d f6        	c.bnez	a2, 0x18e64 <__multf3+0x5bc>
   18e7c: e5 bf        	c.j	0x18e74 <__multf3+0x5cc>
   18e7e: 41 49        	c.li	s2, 0x10
   18e80: 85 47        	c.li	a5, 0x1
   18e82: 21 67        	c.lui	a4, 0x8
   18e84: be 17        	c.slli	a5, 0x2f
   18e86: 01 45        	c.li	a0, 0x0
   18e88: 7d 17        	c.addi	a4, -0x1
   18e8a: 01 46        	c.li	a2, 0x0
   18e8c: a1 b5        	c.j	0x18cd4 <__multf3+0x42c>
   18e8e: 21 67        	c.lui	a4, 0x8
   18e90: 81 47        	c.li	a5, 0x0
   18e92: 01 45        	c.li	a0, 0x0
   18e94: 7d 17        	c.addi	a4, -0x1
   18e96: 3d bd        	c.j	0x18cd4 <__multf3+0x42c>
   18e98: 81 47        	c.li	a5, 0x0
   18e9a: 01 45        	c.li	a0, 0x0
   18e9c: c1 bf        	c.j	0x18e6c <__multf3+0x5c4>

0000000000018e9e <__subtf3>:
   18e9e: 79 71        	c.addi16sp	sp, -0x30
   18ea0: 06 f4        	c.sdsp	ra, 0x28(sp)
   18ea2: 22 f0        	c.sdsp	s0, 0x20(sp)
   18ea4: 26 ec        	c.sdsp	s1, 0x18(sp)
   18ea6: 4a e8        	c.sdsp	s2, 0x10(sp)
   18ea8: 4e e4        	c.sdsp	s3, 0x8(sp)
   18eaa: 52 e0        	c.sdsp	s4, 0x0(sp)
   18eac: f3 24 20 00  	csrrs	s1, frm, zero
   18eb0: 7d 57        	c.li	a4, -0x1
   18eb2: 41 83        	c.srli	a4, 0x10
   18eb4: 13 d8 05 03  	srli	a6, a1, 0x30
   18eb8: 13 d9 f5 03  	srli	s2, a1, 0x3f
   18ebc: f9 8d        	c.and	a1, a4
   18ebe: 8e 05        	c.slli	a1, 0x3
   18ec0: 93 58 d5 03  	srli	a7, a0, 0x3d
   18ec4: a1 67        	c.lui	a5, 0x8
   18ec6: fd 17        	c.addi	a5, -0x1
   18ec8: 13 d3 06 03  	srli	t1, a3, 0x30
   18ecc: b3 e8 b8 00  	or	a7, a7, a1
   18ed0: 93 d5 f6 03  	srli	a1, a3, 0x3f
   18ed4: f9 8e        	c.and	a3, a4
   18ed6: 33 78 f8 00  	and	a6, a6, a5
   18eda: 13 57 d6 03  	srli	a4, a2, 0x3d
   18ede: 8e 06        	c.slli	a3, 0x3
   18ee0: 33 73 f3 00  	and	t1, t1, a5
   18ee4: 81 24        	c.addiw	s1, 0x0
   18ee6: c2 89        	c.mv	s3, a6
   18ee8: 0e 05        	c.slli	a0, 0x3
   18eea: 55 8f        	c.or	a4, a3
   18eec: 0e 06        	c.slli	a2, 0x3
   18eee: 63 15 f3 00  	bne	t1, a5, 0x18ef8 <__subtf3+0x5a>
   18ef2: b3 67 c7 00  	or	a5, a4, a2
   18ef6: 99 e3        	c.bnez	a5, 0x18efc <__subtf3+0x5e>
   18ef8: 93 c5 15 00  	xori	a1, a1, 0x1
   18efc: bb 06 68 40  	subw	a3, a6, t1
   18f00: 21 6e        	c.lui	t3, 0x8
   18f02: 9b 87 06 00  	addiw	a5, a3, 0x0
   18f06: 7d 1e        	c.addi	t3, -0x1
   18f08: 63 97 25 2b  	bne	a1, s2, 0x191b6 <__subtf3+0x318>
   18f0c: 63 58 f0 0e  	bge	zero, a5, 0x18ffc <__subtf3+0x15e>
   18f10: 63 19 03 06  	bne	t1, zero, 0x18f82 <__subtf3+0xe4>
   18f14: b3 67 c7 00  	or	a5, a4, a2
   18f18: 91 e7        	c.bnez	a5, 0x18f24 <__subtf3+0x86>
   18f1a: 63 07 c8 05  	beq	a6, t3, 0x18f68 <__subtf3+0xca>
   18f1e: 46 87        	c.mv	a4, a7
   18f20: 2a 86        	c.mv	a2, a0
   18f22: f9 ab        	c.j	0x19500 <__subtf3+0x662>
   18f24: 9b 87 f6 ff  	addiw	a5, a3, -0x1
   18f28: 95 ef        	c.bnez	a5, 0x18f64 <__subtf3+0xc6>
   18f2a: 2a 96        	c.add	a2, a0
   18f2c: 46 97        	c.add	a4, a7
   18f2e: 33 35 a6 00  	sltu	a0, a2, a0
   18f32: 2a 97        	c.add	a4, a0
   18f34: 93 16 c7 00  	slli	a3, a4, 0xc
   18f38: 81 47        	c.li	a5, 0x0
   18f3a: 63 d4 06 0e  	bge	a3, zero, 0x19022 <__subtf3+0x184>
   18f3e: a1 66        	c.lui	a3, 0x8
   18f40: 85 09        	c.addi	s3, 0x1
   18f42: fd 16        	c.addi	a3, -0x1
   18f44: 63 85 d9 24  	beq	s3, a3, 0x1918e <__subtf3+0x2f0>
   18f48: fd 56        	c.li	a3, -0x1
   18f4a: ce 16        	c.slli	a3, 0x33
   18f4c: fd 16        	c.addi	a3, -0x1
   18f4e: f9 8e        	c.and	a3, a4
   18f50: 13 57 16 00  	srli	a4, a2, 0x1
   18f54: 05 8a        	c.andi	a2, 0x1
   18f56: 51 8f        	c.or	a4, a2
   18f58: 13 96 f6 03  	slli	a2, a3, 0x3f
   18f5c: 59 8e        	c.or	a2, a4
   18f5e: 13 d7 16 00  	srli	a4, a3, 0x1
   18f62: c1 a0        	c.j	0x19022 <__subtf3+0x184>
   18f64: 63 14 c8 03  	bne	a6, t3, 0x18f8c <__subtf3+0xee>
   18f68: 33 e6 a8 00  	or	a2, a7, a0
   18f6c: 63 0c 06 6c  	beq	a2, zero, 0x19644 <__subtf3+0x7a6>
   18f70: 93 d7 28 03  	srli	a5, a7, 0x32
   18f74: 93 c7 17 00  	xori	a5, a5, 0x1
   18f78: 85 8b        	c.andi	a5, 0x1
   18f7a: 92 07        	c.slli	a5, 0x4
   18f7c: 46 87        	c.mv	a4, a7
   18f7e: 2a 86        	c.mv	a2, a0
   18f80: 4d a0        	c.j	0x19022 <__subtf3+0x184>
   18f82: e3 03 c8 ff  	beq	a6, t3, 0x18f68 <__subtf3+0xca>
   18f86: 85 46        	c.li	a3, 0x1
   18f88: ce 16        	c.slli	a3, 0x33
   18f8a: 55 8f        	c.or	a4, a3
   18f8c: 93 06 40 07  	addi	a3, zero, 0x74
   18f90: 63 c1 f6 06  	blt	a3, a5, 0x18ff2 <__subtf3+0x154>
   18f94: 93 06 f0 03  	addi	a3, zero, 0x3f
   18f98: 63 c9 f6 02  	blt	a3, a5, 0x18fca <__subtf3+0x12c>
   18f9c: 93 05 00 04  	addi	a1, zero, 0x40
   18fa0: 9d 9d        	c.subw	a1, a5
   18fa2: b3 16 b7 00  	sll	a3, a4, a1
   18fa6: 33 58 f6 00  	srl	a6, a2, a5
   18faa: b3 15 b6 00  	sll	a1, a2, a1
   18fae: b3 e6 06 01  	or	a3, a3, a6
   18fb2: b3 35 b0 00  	sltu	a1, zero, a1
   18fb6: cd 8e        	c.or	a3, a1
   18fb8: 33 57 f7 00  	srl	a4, a4, a5
   18fbc: 36 95        	c.add	a0, a3
   18fbe: 46 97        	c.add	a4, a7
   18fc0: b3 36 d5 00  	sltu	a3, a0, a3
   18fc4: 2a 86        	c.mv	a2, a0
   18fc6: 36 97        	c.add	a4, a3
   18fc8: b5 b7        	c.j	0x18f34 <__subtf3+0x96>
   18fca: 9b 86 07 fc  	addiw	a3, a5, -0x40
   18fce: 13 08 00 04  	addi	a6, zero, 0x40
   18fd2: b3 56 d7 00  	srl	a3, a4, a3
   18fd6: 81 45        	c.li	a1, 0x0
   18fd8: 63 87 07 01  	beq	a5, a6, 0x18fe6 <__subtf3+0x148>
   18fdc: 93 05 00 08  	addi	a1, zero, 0x80
   18fe0: 9d 9d        	c.subw	a1, a5
   18fe2: b3 15 b7 00  	sll	a1, a4, a1
   18fe6: d1 8d        	c.or	a1, a2
   18fe8: b3 35 b0 00  	sltu	a1, zero, a1
   18fec: cd 8e        	c.or	a3, a1
   18fee: 01 47        	c.li	a4, 0x0
   18ff0: f1 b7        	c.j	0x18fbc <__subtf3+0x11e>
   18ff2: b3 66 c7 00  	or	a3, a4, a2
   18ff6: b3 36 d0 00  	sltu	a3, zero, a3
   18ffa: d5 bf        	c.j	0x18fee <__subtf3+0x150>
   18ffc: e9 c7        	c.beqz	a5, 0x190c6 <__subtf3+0x228>
   18ffe: 63 12 08 08  	bne	a6, zero, 0x19082 <__subtf3+0x1e4>
   19002: b3 e7 a8 00  	or	a5, a7, a0
   19006: 95 e3        	c.bnez	a5, 0x1902a <__subtf3+0x18c>
   19008: 63 1c c3 63  	bne	t1, t3, 0x19640 <__subtf3+0x7a2>
   1900c: b3 67 c7 00  	or	a5, a4, a2
   19010: 63 86 07 62  	beq	a5, zero, 0x1963c <__subtf3+0x79e>
   19014: 93 57 27 03  	srli	a5, a4, 0x32
   19018: 93 c7 17 00  	xori	a5, a5, 0x1
   1901c: 85 8b        	c.andi	a5, 0x1
   1901e: 92 07        	c.slli	a5, 0x4
   19020: 9a 89        	c.mv	s3, t1
   19022: ba 88        	c.mv	a7, a4
   19024: 32 85        	c.mv	a0, a2
   19026: 01 47        	c.li	a4, 0x0
   19028: 31 ab        	c.j	0x19544 <__subtf3+0x6a6>
   1902a: 93 c7 f6 ff  	xori	a5, a3, -0x1
   1902e: 81 27        	c.addiw	a5, 0x0
   19030: 81 eb        	c.bnez	a5, 0x19040 <__subtf3+0x1a2>
   19032: 2a 96        	c.add	a2, a0
   19034: 46 97        	c.add	a4, a7
   19036: 33 35 a6 00  	sltu	a0, a2, a0
   1903a: 2a 97        	c.add	a4, a0
   1903c: 9a 89        	c.mv	s3, t1
   1903e: dd bd        	c.j	0x18f34 <__subtf3+0x96>
   19040: e3 06 c3 fd  	beq	t1, t3, 0x1900c <__subtf3+0x16e>
   19044: 93 06 40 07  	addi	a3, zero, 0x74
   19048: 63 ca f6 06  	blt	a3, a5, 0x190bc <__subtf3+0x21e>
   1904c: 93 06 f0 03  	addi	a3, zero, 0x3f
   19050: 63 c2 f6 04  	blt	a3, a5, 0x19094 <__subtf3+0x1f6>
   19054: 93 05 00 04  	addi	a1, zero, 0x40
   19058: 9d 9d        	c.subw	a1, a5
   1905a: b3 96 b8 00  	sll	a3, a7, a1
   1905e: 33 58 f5 00  	srl	a6, a0, a5
   19062: b3 15 b5 00  	sll	a1, a0, a1
   19066: b3 e6 06 01  	or	a3, a3, a6
   1906a: b3 35 b0 00  	sltu	a1, zero, a1
   1906e: cd 8e        	c.or	a3, a1
   19070: b3 d7 f8 00  	srl	a5, a7, a5
   19074: 36 96        	c.add	a2, a3
   19076: ba 97        	c.add	a5, a4
   19078: b3 36 d6 00  	sltu	a3, a2, a3
   1907c: 33 87 d7 00  	add	a4, a5, a3
   19080: 75 bf        	c.j	0x1903c <__subtf3+0x19e>
   19082: e3 05 c3 f9  	beq	t1, t3, 0x1900c <__subtf3+0x16e>
   19086: bb 07 d0 40  	subw	a5, zero, a3
   1908a: 85 46        	c.li	a3, 0x1
   1908c: ce 16        	c.slli	a3, 0x33
   1908e: b3 e8 d8 00  	or	a7, a7, a3
   19092: 4d bf        	c.j	0x19044 <__subtf3+0x1a6>
   19094: 9b 86 07 fc  	addiw	a3, a5, -0x40
   19098: 13 08 00 04  	addi	a6, zero, 0x40
   1909c: b3 d6 d8 00  	srl	a3, a7, a3
   190a0: 81 45        	c.li	a1, 0x0
   190a2: 63 87 07 01  	beq	a5, a6, 0x190b0 <__subtf3+0x212>
   190a6: 93 05 00 08  	addi	a1, zero, 0x80
   190aa: 9d 9d        	c.subw	a1, a5
   190ac: b3 95 b8 00  	sll	a1, a7, a1
   190b0: c9 8d        	c.or	a1, a0
   190b2: b3 35 b0 00  	sltu	a1, zero, a1
   190b6: cd 8e        	c.or	a3, a1
   190b8: 81 47        	c.li	a5, 0x0
   190ba: 6d bf        	c.j	0x19074 <__subtf3+0x1d6>
   190bc: b3 e6 a8 00  	or	a3, a7, a0
   190c0: b3 36 d0 00  	sltu	a3, zero, a3
   190c4: d5 bf        	c.j	0x190b8 <__subtf3+0x21a>
   190c6: 93 06 18 00  	addi	a3, a6, 0x1
   190ca: 93 9e 16 03  	slli	t4, a3, 0x31
   190ce: a1 65        	c.lui	a1, 0x8
   190d0: 93 de 2e 03  	srli	t4, t4, 0x32
   190d4: f9 15        	c.addi	a1, -0x2
   190d6: 63 9d 0e 06  	bne	t4, zero, 0x19150 <__subtf3+0x2b2>
   190da: b3 e6 a8 00  	or	a3, a7, a0
   190de: 63 19 08 02  	bne	a6, zero, 0x19110 <__subtf3+0x272>
   190e2: 63 88 06 56  	beq	a3, zero, 0x19652 <__subtf3+0x7b4>
   190e6: b3 66 c7 00  	or	a3, a4, a2
   190ea: 63 88 06 56  	beq	a3, zero, 0x1965a <__subtf3+0x7bc>
   190ee: 2a 96        	c.add	a2, a0
   190f0: 46 97        	c.add	a4, a7
   190f2: 33 35 a6 00  	sltu	a0, a2, a0
   190f6: b3 08 a7 00  	add	a7, a4, a0
   190fa: 13 97 c8 00  	slli	a4, a7, 0xc
   190fe: 63 5b 07 26  	bge	a4, zero, 0x19374 <__subtf3+0x4d6>
   19102: 7d 57        	c.li	a4, -0x1
   19104: 4e 17        	c.slli	a4, 0x33
   19106: 7d 17        	c.addi	a4, -0x1
   19108: 33 f7 e8 00  	and	a4, a7, a4
   1910c: 85 49        	c.li	s3, 0x1
   1910e: 11 bf        	c.j	0x19022 <__subtf3+0x184>
   19110: 63 15 c8 03  	bne	a6, t3, 0x1913a <__subtf3+0x29c>
   19114: 63 8b 06 54  	beq	a3, zero, 0x1966a <__subtf3+0x7cc>
   19118: 93 d7 28 03  	srli	a5, a7, 0x32
   1911c: 93 c7 17 00  	xori	a5, a5, 0x1
   19120: 85 8b        	c.andi	a5, 0x1
   19122: 92 07        	c.slli	a5, 0x4
   19124: 63 1e 03 01  	bne	t1, a6, 0x19140 <__subtf3+0x2a2>
   19128: b3 65 c7 00  	or	a1, a4, a2
   1912c: 89 c9        	c.beqz	a1, 0x1913e <__subtf3+0x2a0>
   1912e: 93 15 d7 00  	slli	a1, a4, 0xd
   19132: 63 c6 05 00  	blt	a1, zero, 0x1913e <__subtf3+0x2a0>
   19136: c1 47        	c.li	a5, 0x10
   19138: 19 a0        	c.j	0x1913e <__subtf3+0x2a0>
   1913a: e3 07 c3 ff  	beq	t1, t3, 0x19128 <__subtf3+0x28a>
   1913e: 91 c6        	c.beqz	a3, 0x1914a <__subtf3+0x2ac>
   19140: 51 8f        	c.or	a4, a2
   19142: 63 1e 07 2c  	bne	a4, zero, 0x1941e <__subtf3+0x580>
   19146: 46 87        	c.mv	a4, a7
   19148: 2a 86        	c.mv	a2, a0
   1914a: a1 69        	c.lui	s3, 0x8
   1914c: fd 19        	c.addi	s3, -0x1
   1914e: d1 bd        	c.j	0x19022 <__subtf3+0x184>
   19150: 63 8e c6 01  	beq	a3, t3, 0x1916c <__subtf3+0x2ce>
   19154: 2a 96        	c.add	a2, a0
   19156: 33 35 a6 00  	sltu	a0, a2, a0
   1915a: 46 97        	c.add	a4, a7
   1915c: 2a 97        	c.add	a4, a0
   1915e: 93 15 f7 03  	slli	a1, a4, 0x3f
   19162: 05 82        	c.srli	a2, 0x1
   19164: 4d 8e        	c.or	a2, a1
   19166: 05 83        	c.srli	a4, 0x1
   19168: b6 89        	c.mv	s3, a3
   1916a: 65 bd        	c.j	0x19022 <__subtf3+0x184>
   1916c: 99 cc        	c.beqz	s1, 0x1918a <__subtf3+0x2ec>
   1916e: 8d 47        	c.li	a5, 0x3
   19170: 63 98 f4 00  	bne	s1, a5, 0x19180 <__subtf3+0x2e2>
   19174: 63 0b 09 00  	beq	s2, zero, 0x1918a <__subtf3+0x2ec>
   19178: 7d 57        	c.li	a4, -0x1
   1917a: 7d 56        	c.li	a2, -0x1
   1917c: ae 89        	c.mv	s3, a1
   1917e: 15 a8        	c.j	0x191b2 <__subtf3+0x314>
   19180: 89 47        	c.li	a5, 0x2
   19182: e3 9b f4 fe  	bne	s1, a5, 0x19178 <__subtf3+0x2da>
   19186: e3 09 09 fe  	beq	s2, zero, 0x19178 <__subtf3+0x2da>
   1918a: b6 89        	c.mv	s3, a3
   1918c: 0d a0        	c.j	0x191ae <__subtf3+0x310>
   1918e: 85 c0        	c.beqz	s1, 0x191ae <__subtf3+0x310>
   19190: 8d 47        	c.li	a5, 0x3
   19192: 63 99 f4 00  	bne	s1, a5, 0x191a4 <__subtf3+0x306>
   19196: 63 0c 09 00  	beq	s2, zero, 0x191ae <__subtf3+0x310>
   1919a: a1 69        	c.lui	s3, 0x8
   1919c: 7d 57        	c.li	a4, -0x1
   1919e: 7d 56        	c.li	a2, -0x1
   191a0: f9 19        	c.addi	s3, -0x2
   191a2: 01 a8        	c.j	0x191b2 <__subtf3+0x314>
   191a4: 89 47        	c.li	a5, 0x2
   191a6: e3 9a f4 fe  	bne	s1, a5, 0x1919a <__subtf3+0x2fc>
   191aa: e3 08 09 fe  	beq	s2, zero, 0x1919a <__subtf3+0x2fc>
   191ae: 01 47        	c.li	a4, 0x0
   191b0: 01 46        	c.li	a2, 0x0
   191b2: 95 47        	c.li	a5, 0x5
   191b4: bd b5        	c.j	0x19022 <__subtf3+0x184>
   191b6: 63 58 f0 0a  	bge	zero, a5, 0x19266 <__subtf3+0x3c8>
   191ba: 63 17 03 06  	bne	t1, zero, 0x19228 <__subtf3+0x38a>
   191be: b3 67 c7 00  	or	a5, a4, a2
   191c2: e3 8c 07 d4  	beq	a5, zero, 0x18f1a <__subtf3+0x7c>
   191c6: 9b 87 f6 ff  	addiw	a5, a3, -0x1
   191ca: 8d e3        	c.bnez	a5, 0x191ec <__subtf3+0x34e>
   191cc: 33 06 c5 40  	sub	a2, a0, a2
   191d0: 33 87 e8 40  	sub	a4, a7, a4
   191d4: 33 35 c5 00  	sltu	a0, a0, a2
   191d8: 09 8f        	c.sub	a4, a0
   191da: 93 17 c7 00  	slli	a5, a4, 0xc
   191de: 63 d1 07 32  	bge	a5, zero, 0x19500 <__subtf3+0x662>
   191e2: 13 14 d7 00  	slli	s0, a4, 0xd
   191e6: 35 80        	c.srli	s0, 0xd
   191e8: 32 8a        	c.mv	s4, a2
   191ea: 9d a4        	c.j	0x19450 <__subtf3+0x5b2>
   191ec: e3 0e c8 d7  	beq	a6, t3, 0x18f68 <__subtf3+0xca>
   191f0: 93 06 40 07  	addi	a3, zero, 0x74
   191f4: 63 c4 f6 06  	blt	a3, a5, 0x1925c <__subtf3+0x3be>
   191f8: 93 06 f0 03  	addi	a3, zero, 0x3f
   191fc: 63 cc f6 02  	blt	a3, a5, 0x19234 <__subtf3+0x396>
   19200: 93 05 00 04  	addi	a1, zero, 0x40
   19204: 9d 9d        	c.subw	a1, a5
   19206: b3 16 b7 00  	sll	a3, a4, a1
   1920a: 33 58 f6 00  	srl	a6, a2, a5
   1920e: b3 15 b6 00  	sll	a1, a2, a1
   19212: b3 e6 06 01  	or	a3, a3, a6
   19216: b3 35 b0 00  	sltu	a1, zero, a1
   1921a: cd 8e        	c.or	a3, a1
   1921c: 33 57 f7 00  	srl	a4, a4, a5
   19220: b3 06 d5 40  	sub	a3, a0, a3
   19224: 36 86        	c.mv	a2, a3
   19226: 6d b7        	c.j	0x191d0 <__subtf3+0x332>
   19228: e3 00 c8 d5  	beq	a6, t3, 0x18f68 <__subtf3+0xca>
   1922c: 85 46        	c.li	a3, 0x1
   1922e: ce 16        	c.slli	a3, 0x33
   19230: 55 8f        	c.or	a4, a3
   19232: 7d bf        	c.j	0x191f0 <__subtf3+0x352>
   19234: 9b 86 07 fc  	addiw	a3, a5, -0x40
   19238: 13 08 00 04  	addi	a6, zero, 0x40
   1923c: b3 56 d7 00  	srl	a3, a4, a3
   19240: 81 45        	c.li	a1, 0x0
   19242: 63 87 07 01  	beq	a5, a6, 0x19250 <__subtf3+0x3b2>
   19246: 93 05 00 08  	addi	a1, zero, 0x80
   1924a: 9d 9d        	c.subw	a1, a5
   1924c: b3 15 b7 00  	sll	a1, a4, a1
   19250: d1 8d        	c.or	a1, a2
   19252: b3 35 b0 00  	sltu	a1, zero, a1
   19256: cd 8e        	c.or	a3, a1
   19258: 01 47        	c.li	a4, 0x0
   1925a: d9 b7        	c.j	0x19220 <__subtf3+0x382>
   1925c: b3 66 c7 00  	or	a3, a4, a2
   19260: b3 36 d0 00  	sltu	a3, zero, a3
   19264: d5 bf        	c.j	0x19258 <__subtf3+0x3ba>
   19266: f9 cf        	c.beqz	a5, 0x19344 <__subtf3+0x4a6>
   19268: 63 19 08 08  	bne	a6, zero, 0x192fa <__subtf3+0x45c>
   1926c: b3 e7 a8 00  	or	a5, a7, a0
   19270: 85 e3        	c.bnez	a5, 0x19290 <__subtf3+0x3f2>
   19272: 63 1d c3 3d  	bne	t1, t3, 0x1964c <__subtf3+0x7ae>
   19276: b3 67 c7 00  	or	a5, a4, a2
   1927a: 63 87 07 3c  	beq	a5, zero, 0x19648 <__subtf3+0x7aa>
   1927e: 93 57 27 03  	srli	a5, a4, 0x32
   19282: 93 c7 17 00  	xori	a5, a5, 0x1
   19286: 85 8b        	c.andi	a5, 0x1
   19288: 92 07        	c.slli	a5, 0x4
   1928a: 9a 89        	c.mv	s3, t1
   1928c: 2e 89        	c.mv	s2, a1
   1928e: 51 bb        	c.j	0x19022 <__subtf3+0x184>
   19290: 93 c7 f6 ff  	xori	a5, a3, -0x1
   19294: 81 27        	c.addiw	a5, 0x0
   19296: 81 ef        	c.bnez	a5, 0x192ae <__subtf3+0x410>
   19298: 33 05 a6 40  	sub	a0, a2, a0
   1929c: b3 37 a6 00  	sltu	a5, a2, a0
   192a0: 33 07 17 41  	sub	a4, a4, a7
   192a4: 2a 86        	c.mv	a2, a0
   192a6: 1d 8f        	c.sub	a4, a5
   192a8: 9a 89        	c.mv	s3, t1
   192aa: 2e 89        	c.mv	s2, a1
   192ac: 3d b7        	c.j	0x191da <__subtf3+0x33c>
   192ae: e3 04 c3 fd  	beq	t1, t3, 0x19276 <__subtf3+0x3d8>
   192b2: 93 06 40 07  	addi	a3, zero, 0x74
   192b6: 63 c2 f6 08  	blt	a3, a5, 0x1933a <__subtf3+0x49c>
   192ba: 93 06 f0 03  	addi	a3, zero, 0x3f
   192be: 63 c7 f6 04  	blt	a3, a5, 0x1930c <__subtf3+0x46e>
   192c2: 13 08 00 04  	addi	a6, zero, 0x40
   192c6: 3b 08 f8 40  	subw	a6, a6, a5
   192ca: b3 96 08 01  	sll	a3, a7, a6
   192ce: 33 5e f5 00  	srl	t3, a0, a5
   192d2: 33 18 05 01  	sll	a6, a0, a6
   192d6: b3 e6 c6 01  	or	a3, a3, t3
   192da: 33 38 00 01  	sltu	a6, zero, a6
   192de: b3 e6 06 01  	or	a3, a3, a6
   192e2: b3 d7 f8 00  	srl	a5, a7, a5
   192e6: b3 06 d6 40  	sub	a3, a2, a3
   192ea: 33 35 d6 00  	sltu	a0, a2, a3
   192ee: b3 07 f7 40  	sub	a5, a4, a5
   192f2: 36 86        	c.mv	a2, a3
   192f4: 33 87 a7 40  	sub	a4, a5, a0
   192f8: 45 bf        	c.j	0x192a8 <__subtf3+0x40a>
   192fa: e3 0e c3 f7  	beq	t1, t3, 0x19276 <__subtf3+0x3d8>
   192fe: bb 07 d0 40  	subw	a5, zero, a3
   19302: 85 46        	c.li	a3, 0x1
   19304: ce 16        	c.slli	a3, 0x33
   19306: b3 e8 d8 00  	or	a7, a7, a3
   1930a: 65 b7        	c.j	0x192b2 <__subtf3+0x414>
   1930c: 9b 86 07 fc  	addiw	a3, a5, -0x40
   19310: 13 0e 00 04  	addi	t3, zero, 0x40
   19314: b3 d6 d8 00  	srl	a3, a7, a3
   19318: 01 48        	c.li	a6, 0x0
   1931a: 63 88 c7 01  	beq	a5, t3, 0x1932a <__subtf3+0x48c>
   1931e: 13 08 00 08  	addi	a6, zero, 0x80
   19322: 3b 08 f8 40  	subw	a6, a6, a5
   19326: 33 98 08 01  	sll	a6, a7, a6
   1932a: 33 68 a8 00  	or	a6, a6, a0
   1932e: 33 38 00 01  	sltu	a6, zero, a6
   19332: b3 e6 06 01  	or	a3, a3, a6
   19336: 81 47        	c.li	a5, 0x0
   19338: 7d b7        	c.j	0x192e6 <__subtf3+0x448>
   1933a: b3 e6 a8 00  	or	a3, a7, a0
   1933e: b3 36 d0 00  	sltu	a3, zero, a3
   19342: d5 bf        	c.j	0x19336 <__subtf3+0x498>
   19344: 93 06 18 00  	addi	a3, a6, 0x1
   19348: 93 9e 16 03  	slli	t4, a3, 0x31
   1934c: 93 de 2e 03  	srli	t4, t4, 0x32
   19350: 63 9c 0e 0c  	bne	t4, zero, 0x19428 <__subtf3+0x58a>
   19354: b3 66 c7 00  	or	a3, a4, a2
   19358: b3 ee a8 00  	or	t4, a7, a0
   1935c: 63 17 08 06  	bne	a6, zero, 0x193ca <__subtf3+0x52c>
   19360: 63 92 0e 02  	bne	t4, zero, 0x19384 <__subtf3+0x4e6>
   19364: 63 99 06 2e  	bne	a3, zero, 0x19656 <__subtf3+0x7b8>
   19368: 13 89 e4 ff  	addi	s2, s1, -0x2
   1936c: 13 39 19 00  	sltiu	s2, s2, 0x1
   19370: 81 48        	c.li	a7, 0x0
   19372: 01 46        	c.li	a2, 0x0
   19374: 33 e5 c8 00  	or	a0, a7, a2
   19378: 63 16 05 18  	bne	a0, zero, 0x19504 <__subtf3+0x666>
   1937c: 81 48        	c.li	a7, 0x0
   1937e: 81 49        	c.li	s3, 0x0
   19380: 81 47        	c.li	a5, 0x0
   19382: 0d a4        	c.j	0x195a4 <__subtf3+0x706>
   19384: 63 8b 06 2c  	beq	a3, zero, 0x1965a <__subtf3+0x7bc>
   19388: b3 06 c5 40  	sub	a3, a0, a2
   1938c: 33 38 d5 00  	sltu	a6, a0, a3
   19390: b3 87 e8 40  	sub	a5, a7, a4
   19394: b3 87 07 41  	sub	a5, a5, a6
   19398: 13 98 c7 00  	slli	a6, a5, 0xc
   1939c: 63 5d 08 00  	bge	a6, zero, 0x193b6 <__subtf3+0x518>
   193a0: 33 05 a6 40  	sub	a0, a2, a0
   193a4: b3 37 a6 00  	sltu	a5, a2, a0
   193a8: 33 07 17 41  	sub	a4, a4, a7
   193ac: 2a 86        	c.mv	a2, a0
   193ae: b3 08 f7 40  	sub	a7, a4, a5
   193b2: 2e 89        	c.mv	s2, a1
   193b4: c1 b7        	c.j	0x19374 <__subtf3+0x4d6>
   193b6: 33 e6 f6 00  	or	a2, a3, a5
   193ba: 63 12 06 2a  	bne	a2, zero, 0x1965e <__subtf3+0x7c0>
   193be: 13 89 e4 ff  	addi	s2, s1, -0x2
   193c2: 13 39 19 00  	sltiu	s2, s2, 0x1
   193c6: 81 48        	c.li	a7, 0x0
   193c8: 75 b7        	c.j	0x19374 <__subtf3+0x4d6>
   193ca: 63 19 c8 03  	bne	a6, t3, 0x193fc <__subtf3+0x55e>
   193ce: 63 8b 0e 28  	beq	t4, zero, 0x19664 <__subtf3+0x7c6>
   193d2: 93 d7 28 03  	srli	a5, a7, 0x32
   193d6: 93 c7 17 00  	xori	a5, a5, 0x1
   193da: 85 8b        	c.andi	a5, 0x1
   193dc: 92 07        	c.slli	a5, 0x4
   193de: 63 1e 03 03  	bne	t1, a6, 0x1941a <__subtf3+0x57c>
   193e2: 99 ce        	c.beqz	a3, 0x19400 <__subtf3+0x562>
   193e4: 05 48        	c.li	a6, 0x1
   193e6: 13 13 d7 00  	slli	t1, a4, 0xd
   193ea: 4a 18        	c.slli	a6, 0x32
   193ec: 63 4a 03 00  	blt	t1, zero, 0x19400 <__subtf3+0x562>
   193f0: 2e 89        	c.mv	s2, a1
   193f2: 63 80 0e 02  	beq	t4, zero, 0x19412 <__subtf3+0x574>
   193f6: 01 49        	c.li	s2, 0x0
   193f8: 42 87        	c.mv	a4, a6
   193fa: 19 a8        	c.j	0x19410 <__subtf3+0x572>
   193fc: e3 03 c3 ff  	beq	t1, t3, 0x193e2 <__subtf3+0x544>
   19400: 63 9d 0e 00  	bne	t4, zero, 0x1941a <__subtf3+0x57c>
   19404: 2e 89        	c.mv	s2, a1
   19406: e3 92 06 d4  	bne	a3, zero, 0x1914a <__subtf3+0x2ac>
   1940a: 05 47        	c.li	a4, 0x1
   1940c: 01 49        	c.li	s2, 0x0
   1940e: 4a 17        	c.slli	a4, 0x32
   19410: 01 46        	c.li	a2, 0x0
   19412: a1 69        	c.lui	s3, 0x8
   19414: fd 19        	c.addi	s3, -0x1
   19416: c1 47        	c.li	a5, 0x10
   19418: 29 b1        	c.j	0x19022 <__subtf3+0x184>
   1941a: e3 86 06 d2  	beq	a3, zero, 0x19146 <__subtf3+0x2a8>
   1941e: 05 47        	c.li	a4, 0x1
   19420: 01 49        	c.li	s2, 0x0
   19422: 4a 17        	c.slli	a4, 0x32
   19424: 01 46        	c.li	a2, 0x0
   19426: 15 b3        	c.j	0x1914a <__subtf3+0x2ac>
   19428: b3 07 c5 40  	sub	a5, a0, a2
   1942c: b3 36 f5 00  	sltu	a3, a0, a5
   19430: 33 84 e8 40  	sub	s0, a7, a4
   19434: 15 8c        	c.sub	s0, a3
   19436: 93 16 c4 00  	slli	a3, s0, 0xc
   1943a: 3e 8a        	c.mv	s4, a5
   1943c: 63 d5 06 06  	bge	a3, zero, 0x194a6 <__subtf3+0x608>
   19440: 33 0a a6 40  	sub	s4, a2, a0
   19444: 33 04 17 41  	sub	s0, a4, a7
   19448: 33 36 46 01  	sltu	a2, a2, s4
   1944c: 11 8c        	c.sub	s0, a2
   1944e: 2e 89        	c.mv	s2, a1
   19450: 39 cc        	c.beqz	s0, 0x194ae <__subtf3+0x610>
   19452: 22 85        	c.mv	a0, s0
   19454: ef 00 20 4b  	jal	ra, 0x19906 <__clzdi2>
   19458: 1b 06 45 ff  	addiw	a2, a0, -0xc
   1945c: 13 07 00 04  	addi	a4, zero, 0x40
   19460: 11 9f        	c.subw	a4, a2
   19462: 33 14 c4 00  	sll	s0, s0, a2
   19466: 33 57 ea 00  	srl	a4, s4, a4
   1946a: 41 8f        	c.or	a4, s0
   1946c: 33 14 ca 00  	sll	s0, s4, a2
   19470: 63 41 36 09  	blt	a2, s3, 0x194f2 <__subtf3+0x654>
   19474: 3b 06 36 41  	subw	a2, a2, s3
   19478: 9b 08 16 00  	addiw	a7, a2, 0x1
   1947c: 93 07 f0 03  	addi	a5, zero, 0x3f
   19480: 63 c5 17 05  	blt	a5, a7, 0x194ca <__subtf3+0x62c>
   19484: 93 07 00 04  	addi	a5, zero, 0x40
   19488: bb 87 17 41  	subw	a5, a5, a7
   1948c: 33 16 f7 00  	sll	a2, a4, a5
   19490: b3 56 14 01  	srl	a3, s0, a7
   19494: b3 17 f4 00  	sll	a5, s0, a5
   19498: 55 8e        	c.or	a2, a3
   1949a: b3 37 f0 00  	sltu	a5, zero, a5
   1949e: 5d 8e        	c.or	a2, a5
   194a0: b3 58 17 01  	srl	a7, a4, a7
   194a4: c1 bd        	c.j	0x19374 <__subtf3+0x4d6>
   194a6: 33 e6 87 00  	or	a2, a5, s0
   194aa: 5d f2        	c.bnez	a2, 0x19450 <__subtf3+0x5b2>
   194ac: 09 bf        	c.j	0x193be <__subtf3+0x520>
   194ae: 52 85        	c.mv	a0, s4
   194b0: ef 00 60 45  	jal	ra, 0x19906 <__clzdi2>
   194b4: 1b 06 45 03  	addiw	a2, a0, 0x34
   194b8: 93 07 f0 03  	addi	a5, zero, 0x3f
   194bc: e3 d0 c7 fa  	bge	a5, a2, 0x1945c <__subtf3+0x5be>
   194c0: 1b 07 45 ff  	addiw	a4, a0, -0xc
   194c4: 33 17 ea 00  	sll	a4, s4, a4
   194c8: 65 b7        	c.j	0x19470 <__subtf3+0x5d2>
   194ca: 1b 06 16 fc  	addiw	a2, a2, -0x3f
   194ce: 93 05 00 04  	addi	a1, zero, 0x40
   194d2: 33 56 c7 00  	srl	a2, a4, a2
   194d6: 81 47        	c.li	a5, 0x0
   194d8: 63 88 b8 00  	beq	a7, a1, 0x194e8 <__subtf3+0x64a>
   194dc: 93 07 00 08  	addi	a5, zero, 0x80
   194e0: bb 87 17 41  	subw	a5, a5, a7
   194e4: b3 17 f7 00  	sll	a5, a4, a5
   194e8: c1 8f        	c.or	a5, s0
   194ea: b3 37 f0 00  	sltu	a5, zero, a5
   194ee: 5d 8e        	c.or	a2, a5
   194f0: d9 bd        	c.j	0x193c6 <__subtf3+0x528>
   194f2: fd 57        	c.li	a5, -0x1
   194f4: ce 17        	c.slli	a5, 0x33
   194f6: fd 17        	c.addi	a5, -0x1
   194f8: b3 89 c9 40  	sub	s3, s3, a2
   194fc: 7d 8f        	c.and	a4, a5
   194fe: 22 86        	c.mv	a2, s0
   19500: 81 47        	c.li	a5, 0x0
   19502: 05 b6        	c.j	0x19022 <__subtf3+0x184>
   19504: 93 16 16 00  	slli	a3, a2, 0x1
   19508: 93 57 f6 03  	srli	a5, a2, 0x3f
   1950c: 13 97 18 00  	slli	a4, a7, 0x1
   19510: 93 f5 76 00  	andi	a1, a3, 0x7
   19514: 3e 97        	c.add	a4, a5
   19516: 81 47        	c.li	a5, 0x0
   19518: 85 c1        	c.beqz	a1, 0x19538 <__subtf3+0x69a>
   1951a: 89 47        	c.li	a5, 0x2
   1951c: 63 84 f4 06  	beq	s1, a5, 0x19584 <__subtf3+0x6e6>
   19520: 8d 47        	c.li	a5, 0x3
   19522: 63 88 f4 04  	beq	s1, a5, 0x19572 <__subtf3+0x6d4>
   19526: 85 47        	c.li	a5, 0x1
   19528: 81 e8        	c.bnez	s1, 0x19538 <__subtf3+0x69a>
   1952a: 93 f5 f6 00  	andi	a1, a3, 0xf
   1952e: 11 45        	c.li	a0, 0x4
   19530: 93 b6 c6 ff  	sltiu	a3, a3, -0x4
   19534: 63 94 a5 04  	bne	a1, a0, 0x1957c <__subtf3+0x6de>
   19538: 51 93        	c.srli	a4, 0x34
   1953a: 13 47 17 00  	xori	a4, a4, 0x1
   1953e: 05 8b        	c.andi	a4, 0x1
   19540: 32 85        	c.mv	a0, a2
   19542: 81 49        	c.li	s3, 0x0
   19544: 93 76 76 00  	andi	a3, a2, 0x7
   19548: a9 ca        	c.beqz	a3, 0x1959a <__subtf3+0x6fc>
   1954a: 89 46        	c.li	a3, 0x2
   1954c: 93 e7 17 00  	ori	a5, a5, 0x1
   19550: 63 83 d4 04  	beq	s1, a3, 0x19596 <__subtf3+0x6f8>
   19554: 8d 46        	c.li	a3, 0x3
   19556: 63 8b d4 02  	beq	s1, a3, 0x1958c <__subtf3+0x6ee>
   1955a: a1 e0        	c.bnez	s1, 0x1959a <__subtf3+0x6fc>
   1955c: 93 76 f6 00  	andi	a3, a2, 0xf
   19560: 91 45        	c.li	a1, 0x4
   19562: 63 8c b6 02  	beq	a3, a1, 0x1959a <__subtf3+0x6fc>
   19566: 13 05 46 00  	addi	a0, a2, 0x4
   1956a: 33 36 c5 00  	sltu	a2, a0, a2
   1956e: b2 98        	c.add	a7, a2
   19570: 2d a0        	c.j	0x1959a <__subtf3+0x6fc>
   19572: 85 47        	c.li	a5, 0x1
   19574: e3 12 09 fc  	bne	s2, zero, 0x19538 <__subtf3+0x69a>
   19578: 93 b6 86 ff  	sltiu	a3, a3, -0x8
   1957c: 93 c6 16 00  	xori	a3, a3, 0x1
   19580: 36 97        	c.add	a4, a3
   19582: 5d bf        	c.j	0x19538 <__subtf3+0x69a>
   19584: 85 47        	c.li	a5, 0x1
   19586: e3 09 09 fa  	beq	s2, zero, 0x19538 <__subtf3+0x69a>
   1958a: fd b7        	c.j	0x19578 <__subtf3+0x6da>
   1958c: 63 17 09 00  	bne	s2, zero, 0x1959a <__subtf3+0x6fc>
   19590: 13 05 86 00  	addi	a0, a2, 0x8
   19594: d9 bf        	c.j	0x1956a <__subtf3+0x6cc>
   19596: e3 1d 09 fe  	bne	s2, zero, 0x19590 <__subtf3+0x6f2>
   1959a: 09 c7        	c.beqz	a4, 0x195a4 <__subtf3+0x706>
   1959c: 13 f7 17 00  	andi	a4, a5, 0x1
   195a0: 06 07        	c.slli	a4, 0x1
   195a2: d9 8f        	c.or	a5, a4
   195a4: 13 97 c8 00  	slli	a4, a7, 0xc
   195a8: 63 5c 07 00  	bge	a4, zero, 0x195c0 <__subtf3+0x722>
   195ac: 21 67        	c.lui	a4, 0x8
   195ae: 85 09        	c.addi	s3, 0x1
   195b0: 7d 17        	c.addi	a4, -0x1
   195b2: 63 81 e9 06  	beq	s3, a4, 0x19614 <__subtf3+0x776>
   195b6: 7d 57        	c.li	a4, -0x1
   195b8: 4e 17        	c.slli	a4, 0x33
   195ba: 7d 17        	c.addi	a4, -0x1
   195bc: b3 f8 e8 00  	and	a7, a7, a4
   195c0: 13 97 d8 03  	slli	a4, a7, 0x3d
   195c4: 0d 81        	c.srli	a0, 0x3
   195c6: 59 8d        	c.or	a0, a4
   195c8: 21 67        	c.lui	a4, 0x8
   195ca: 7d 17        	c.addi	a4, -0x1
   195cc: 93 d8 38 00  	srli	a7, a7, 0x3
   195d0: 63 9a e9 00  	bne	s3, a4, 0x195e4 <__subtf3+0x746>
   195d4: 33 65 15 01  	or	a0, a0, a7
   195d8: 81 48        	c.li	a7, 0x0
   195da: 09 c5        	c.beqz	a0, 0x195e4 <__subtf3+0x746>
   195dc: 85 48        	c.li	a7, 0x1
   195de: be 18        	c.slli	a7, 0x2f
   195e0: 01 45        	c.li	a0, 0x0
   195e2: 01 49        	c.li	s2, 0x0
   195e4: c6 19        	c.slli	s3, 0x31
   195e6: 1b 19 f9 00  	slliw	s2, s2, 0xf
   195ea: 93 d9 19 03  	srli	s3, s3, 0x31
   195ee: 93 95 08 01  	slli	a1, a7, 0x10
   195f2: b3 e9 29 01  	or	s3, s3, s2
   195f6: c2 19        	c.slli	s3, 0x30
   195f8: c1 81        	c.srli	a1, 0x10
   195fa: b3 e5 35 01  	or	a1, a1, s3
   195fe: 99 c3        	c.beqz	a5, 0x19604 <__subtf3+0x766>
   19600: 73 a0 17 00  	csrrs	zero, fflags, a5
   19604: a2 70        	c.ldsp	ra, 0x28(sp)
   19606: 02 74        	c.ldsp	s0, 0x20(sp)
   19608: e2 64        	c.ldsp	s1, 0x18(sp)
   1960a: 42 69        	c.ldsp	s2, 0x10(sp)
   1960c: a2 69        	c.ldsp	s3, 0x8(sp)
   1960e: 02 6a        	c.ldsp	s4, 0x0(sp)
   19610: 45 61        	c.addi16sp	sp, 0x30
   19612: 82 80        	c.jr	ra
   19614: 01 45        	c.li	a0, 0x0
   19616: 99 cc        	c.beqz	s1, 0x19634 <__subtf3+0x796>
   19618: 0d 47        	c.li	a4, 0x3
   1961a: 63 98 e4 00  	bne	s1, a4, 0x1962a <__subtf3+0x78c>
   1961e: 63 0b 09 00  	beq	s2, zero, 0x19634 <__subtf3+0x796>
   19622: a1 69        	c.lui	s3, 0x8
   19624: 7d 55        	c.li	a0, -0x1
   19626: f9 19        	c.addi	s3, -0x2
   19628: 31 a0        	c.j	0x19634 <__subtf3+0x796>
   1962a: 09 47        	c.li	a4, 0x2
   1962c: e3 9b e4 fe  	bne	s1, a4, 0x19622 <__subtf3+0x784>
   19630: e3 09 09 fe  	beq	s2, zero, 0x19622 <__subtf3+0x784>
   19634: 93 e7 57 00  	ori	a5, a5, 0x5
   19638: aa 88        	c.mv	a7, a0
   1963a: 59 b7        	c.j	0x195c0 <__subtf3+0x722>
   1963c: 01 47        	c.li	a4, 0x0
   1963e: 01 46        	c.li	a2, 0x0
   19640: 9a 89        	c.mv	s3, t1
   19642: 7d bd        	c.j	0x19500 <__subtf3+0x662>
   19644: 01 47        	c.li	a4, 0x0
   19646: 6d bd        	c.j	0x19500 <__subtf3+0x662>
   19648: 01 47        	c.li	a4, 0x0
   1964a: 01 46        	c.li	a2, 0x0
   1964c: 9a 89        	c.mv	s3, t1
   1964e: 2e 89        	c.mv	s2, a1
   19650: 45 bd        	c.j	0x19500 <__subtf3+0x662>
   19652: ba 88        	c.mv	a7, a4
   19654: 05 b3        	c.j	0x19374 <__subtf3+0x4d6>
   19656: ba 88        	c.mv	a7, a4
   19658: a9 bb        	c.j	0x193b2 <__subtf3+0x514>
   1965a: 2a 86        	c.mv	a2, a0
   1965c: 21 bb        	c.j	0x19374 <__subtf3+0x4d6>
   1965e: be 88        	c.mv	a7, a5
   19660: 36 86        	c.mv	a2, a3
   19662: 09 bb        	c.j	0x19374 <__subtf3+0x4d6>
   19664: e3 10 03 db  	bne	t1, a6, 0x19404 <__subtf3+0x566>
   19668: ad bb        	c.j	0x193e2 <__subtf3+0x544>
   1966a: e3 1c 03 9b  	bne	t1, a6, 0x19022 <__subtf3+0x184>
   1966e: 6d bc        	c.j	0x19128 <__subtf3+0x28a>

0000000000019670 <__unordtf2>:
   19670: 2a 87        	c.mv	a4, a0
   19672: f3 27 20 00  	csrrs	a5, frm, zero
   19676: 7d 55        	c.li	a0, -0x1
   19678: 93 57 05 01  	srli	a5, a0, 0x10
   1967c: 21 68        	c.lui	a6, 0x8
   1967e: b3 f8 f5 00  	and	a7, a1, a5
   19682: 7d 18        	c.addi	a6, -0x1
   19684: c1 91        	c.srli	a1, 0x30
   19686: f5 8f        	c.and	a5, a3
   19688: b3 f5 05 01  	and	a1, a1, a6
   1968c: c1 92        	c.srli	a3, 0x30
   1968e: b3 f6 06 01  	and	a3, a3, a6
   19692: 63 96 05 01  	bne	a1, a6, 0x1969e <__unordtf2+0x2e>
   19696: 33 63 17 01  	or	t1, a4, a7
   1969a: 63 13 03 02  	bne	t1, zero, 0x196c0 <__unordtf2+0x50>
   1969e: 01 45        	c.li	a0, 0x0
   196a0: 63 92 06 05  	bne	a3, a6, 0x196e4 <__unordtf2+0x74>
   196a4: 33 68 f6 00  	or	a6, a2, a5
   196a8: 63 0e 08 02  	beq	a6, zero, 0x196e4 <__unordtf2+0x74>
   196ac: 63 93 d5 02  	bne	a1, a3, 0x196d2 <__unordtf2+0x62>
   196b0: 33 67 17 01  	or	a4, a4, a7
   196b4: 01 cf        	c.beqz	a4, 0x196cc <__unordtf2+0x5c>
   196b6: 7d 57        	c.li	a4, -0x1
   196b8: 45 83        	c.srli	a4, 0x11
   196ba: 63 71 17 03  	bgeu	a4, a7, 0x196dc <__unordtf2+0x6c>
   196be: 39 a0        	c.j	0x196cc <__unordtf2+0x5c>
   196c0: 45 81        	c.srli	a0, 0x11
   196c2: 63 7d 15 01  	bgeu	a0, a7, 0x196dc <__unordtf2+0x6c>
   196c6: 05 45        	c.li	a0, 0x1
   196c8: 63 9e b6 00  	bne	a3, a1, 0x196e4 <__unordtf2+0x74>
   196cc: 5d 8e        	c.or	a2, a5
   196ce: 05 45        	c.li	a0, 0x1
   196d0: 11 ca        	c.beqz	a2, 0x196e4 <__unordtf2+0x74>
   196d2: 7d 57        	c.li	a4, -0x1
   196d4: 45 83        	c.srli	a4, 0x11
   196d6: 05 45        	c.li	a0, 0x1
   196d8: 63 66 f7 00  	bltu	a4, a5, 0x196e4 <__unordtf2+0x74>
   196dc: 73 60 18 00  	csrrsi	zero, fflags, 0x10
   196e0: 05 45        	c.li	a0, 0x1
   196e2: 82 80        	c.jr	ra
   196e4: 82 80        	c.jr	ra

00000000000196e6 <__fixtfsi>:
   196e6: f3 27 20 00  	csrrs	a5, frm, zero
   196ea: 11 67        	c.lui	a4, 0x4
   196ec: 93 96 15 00  	slli	a3, a1, 0x1
   196f0: 93 97 05 01  	slli	a5, a1, 0x10
   196f4: c5 92        	c.srli	a3, 0x31
   196f6: 79 17        	c.addi	a4, -0x2
   196f8: c1 83        	c.srli	a5, 0x10
   196fa: fd 91        	c.srli	a1, 0x3f
   196fc: 63 47 d7 00  	blt	a4, a3, 0x1970a <__fixtfsi+0x24>
   19700: b1 ee        	c.bnez	a3, 0x1975c <__fixtfsi+0x76>
   19702: c9 8f        	c.or	a5, a0
   19704: 01 45        	c.li	a0, 0x0
   19706: a9 eb        	c.bnez	a5, 0x19758 <__fixtfsi+0x72>
   19708: 82 80        	c.jr	ra
   1970a: 11 67        	c.lui	a4, 0x4
   1970c: 75 07        	c.addi	a4, 0x1d
   1970e: 63 50 d7 02  	bge	a4, a3, 0x1972e <__fixtfsi+0x48>
   19712: b9 c5        	c.beqz	a1, 0x19760 <__fixtfsi+0x7a>
   19714: 11 67        	c.lui	a4, 0x4
   19716: 79 07        	c.addi	a4, 0x1e
   19718: 63 9c e6 04  	bne	a3, a4, 0x19770 <__fixtfsi+0x8a>
   1971c: 13 d7 17 01  	srli	a4, a5, 0x11
   19720: 21 eb        	c.bnez	a4, 0x19770 <__fixtfsi+0x8a>
   19722: be 17        	c.slli	a5, 0x2f
   19724: 5d 8d        	c.or	a0, a5
   19726: 21 e9        	c.bnez	a0, 0x19776 <__fixtfsi+0x90>
   19728: 37 05 00 80  	lui	a0, 0x80000
   1972c: 82 80        	c.jr	ra
   1972e: 05 47        	c.li	a4, 0x1
   19730: 42 17        	c.slli	a4, 0x30
   19732: d9 8f        	c.or	a5, a4
   19734: 11 66        	c.lui	a2, 0x4
   19736: 71 77        	c.lui	a4, 0xffffc
   19738: 45 27        	c.addiw	a4, 0x11
   1973a: 1b 06 f6 02  	addiw	a2, a2, 0x2f
   1973e: 35 9f        	c.addw	a4, a3
   19740: 15 9e        	c.subw	a2, a3
   19742: 33 97 e7 00  	sll	a4, a5, a4
   19746: b3 d7 c7 00  	srl	a5, a5, a2
   1974a: 49 8f        	c.or	a4, a0
   1974c: 1b 85 07 00  	addiw	a0, a5, 0x0
   19750: 99 c1        	c.beqz	a1, 0x19756 <__fixtfsi+0x70>
   19752: 3b 05 a0 40  	subw	a0, zero, a0
   19756: 01 cf        	c.beqz	a4, 0x1976e <__fixtfsi+0x88>
   19758: 85 47        	c.li	a5, 0x1
   1975a: 01 a8        	c.j	0x1976a <__fixtfsi+0x84>
   1975c: 01 45        	c.li	a0, 0x0
   1975e: ed bf        	c.j	0x19758 <__fixtfsi+0x72>
   19760: 37 05 00 80  	lui	a0, 0x80000
   19764: 13 45 f5 ff  	xori	a0, a0, -0x1
   19768: c1 47        	c.li	a5, 0x10
   1976a: 73 a0 17 00  	csrrs	zero, fflags, a5
   1976e: 82 80        	c.jr	ra
   19770: 37 05 00 80  	lui	a0, 0x80000
   19774: d5 bf        	c.j	0x19768 <__fixtfsi+0x82>
   19776: 37 05 00 80  	lui	a0, 0x80000
   1977a: f9 bf        	c.j	0x19758 <__fixtfsi+0x72>

000000000001977c <__floatsitf>:
   1977c: 01 11        	c.addi	sp, -0x20
   1977e: 06 ec        	c.sdsp	ra, 0x18(sp)
   19780: 22 e8        	c.sdsp	s0, 0x10(sp)
   19782: 26 e4        	c.sdsp	s1, 0x8(sp)
   19784: 39 c1        	c.beqz	a0, 0x197ca <__floatsitf+0x4e>
   19786: 9b 07 05 00  	addiw	a5, a0, 0x0
   1978a: 93 54 f5 03  	srli	s1, a0, 0x3f
   1978e: 63 54 05 00  	bge	a0, zero, 0x19796 <__floatsitf+0x1a>
   19792: bb 07 f0 40  	subw	a5, zero, a5
   19796: 13 94 07 02  	slli	s0, a5, 0x20
   1979a: 01 90        	c.srli	s0, 0x20
   1979c: 22 85        	c.mv	a0, s0
   1979e: ef 00 80 16  	jal	ra, 0x19906 <__clzdi2>
   197a2: 91 65        	c.lui	a1, 0x4
   197a4: 9b 85 e5 03  	addiw	a1, a1, 0x3e
   197a8: 89 9d        	c.subw	a1, a0
   197aa: 45 35        	c.addiw	a0, -0xf
   197ac: b3 17 a4 00  	sll	a5, s0, a0
   197b0: e2 60        	c.ldsp	ra, 0x18(sp)
   197b2: 42 64        	c.ldsp	s0, 0x10(sp)
   197b4: 9b 94 f4 00  	slliw	s1, s1, 0xf
   197b8: c5 8d        	c.or	a1, s1
   197ba: c2 07        	c.slli	a5, 0x10
   197bc: c2 15        	c.slli	a1, 0x30
   197be: c1 83        	c.srli	a5, 0x10
   197c0: a2 64        	c.ldsp	s1, 0x8(sp)
   197c2: 01 45        	c.li	a0, 0x0
   197c4: dd 8d        	c.or	a1, a5
   197c6: 05 61        	c.addi16sp	sp, 0x20
   197c8: 82 80        	c.jr	ra
   197ca: 81 47        	c.li	a5, 0x0
   197cc: 81 45        	c.li	a1, 0x0
   197ce: 81 44        	c.li	s1, 0x0
   197d0: c5 b7        	c.j	0x197b0 <__floatsitf+0x34>

00000000000197d2 <__extenddftf2>:
   197d2: 01 11        	c.addi	sp, -0x20
   197d4: d3 07 05 e2  	fmv.x.d	a5, fa0
   197d8: 06 ec        	c.sdsp	ra, 0x18(sp)
   197da: 22 e8        	c.sdsp	s0, 0x10(sp)
   197dc: 26 e4        	c.sdsp	s1, 0x8(sp)
   197de: 73 27 20 00  	csrrs	a4, frm, zero
   197e2: 13 d5 47 03  	srli	a0, a5, 0x34
   197e6: 13 75 f5 7f  	andi	a0, a0, 0x7ff
   197ea: 13 94 c7 00  	slli	s0, a5, 0xc
   197ee: 93 d4 f7 03  	srli	s1, a5, 0x3f
   197f2: 93 07 15 00  	addi	a5, a0, 0x1
   197f6: 93 f7 e7 7f  	andi	a5, a5, 0x7fe
   197fa: 31 80        	c.srli	s0, 0xc
   197fc: 91 cb        	c.beqz	a5, 0x19810 <__extenddftf2+0x3e>
   197fe: 91 67        	c.lui	a5, 0x4
   19800: 93 87 07 c0  	addi	a5, a5, -0x400
   19804: 93 55 44 00  	srli	a1, s0, 0x4
   19808: 3e 95        	c.add	a0, a5
   1980a: 72 14        	c.slli	s0, 0x3c
   1980c: 81 47        	c.li	a5, 0x0
   1980e: b1 a8        	c.j	0x1986a <__extenddftf2+0x98>
   19810: 1d ed        	c.bnez	a0, 0x1984e <__extenddftf2+0x7c>
   19812: 81 45        	c.li	a1, 0x0
   19814: 65 dc        	c.beqz	s0, 0x1980c <__extenddftf2+0x3a>
   19816: 22 85        	c.mv	a0, s0
   19818: ef 00 e0 0e  	jal	ra, 0x19906 <__clzdi2>
   1981c: 1b 07 05 00  	addiw	a4, a0, 0x0
   19820: b9 47        	c.li	a5, 0xe
   19822: 63 c0 e7 02  	blt	a5, a4, 0x19842 <__extenddftf2+0x70>
   19826: bd 45        	c.li	a1, 0xf
   19828: 89 9d        	c.subw	a1, a0
   1982a: 9b 07 15 03  	addiw	a5, a0, 0x31
   1982e: b3 55 b4 00  	srl	a1, s0, a1
   19832: 33 14 f4 00  	sll	s0, s0, a5
   19836: 91 67        	c.lui	a5, 0x4
   19838: 9b 87 c7 c0  	addiw	a5, a5, -0x3f4
   1983c: 3b 85 a7 40  	subw	a0, a5, a0
   19840: f1 b7        	c.j	0x1980c <__extenddftf2+0x3a>
   19842: 9b 05 15 ff  	addiw	a1, a0, -0xf
   19846: b3 15 b4 00  	sll	a1, s0, a1
   1984a: 01 44        	c.li	s0, 0x0
   1984c: ed b7        	c.j	0x19836 <__extenddftf2+0x64>
   1984e: 15 cc        	c.beqz	s0, 0x1988a <__extenddftf2+0xb8>
   19850: 85 47        	c.li	a5, 0x1
   19852: ce 17        	c.slli	a5, 0x33
   19854: 05 47        	c.li	a4, 0x1
   19856: b3 37 f4 00  	sltu	a5, s0, a5
   1985a: 93 55 44 00  	srli	a1, s0, 0x4
   1985e: 3e 17        	c.slli	a4, 0x2f
   19860: 21 65        	c.lui	a0, 0x8
   19862: 92 07        	c.slli	a5, 0x4
   19864: 72 14        	c.slli	s0, 0x3c
   19866: d9 8d        	c.or	a1, a4
   19868: 7d 15        	c.addi	a0, -0x1
   1986a: 9b 94 f4 00  	slliw	s1, s1, 0xf
   1986e: c2 05        	c.slli	a1, 0x10
   19870: 45 8d        	c.or	a0, s1
   19872: 42 15        	c.slli	a0, 0x30
   19874: c1 81        	c.srli	a1, 0x10
   19876: c9 8d        	c.or	a1, a0
   19878: 99 c3        	c.beqz	a5, 0x1987e <__extenddftf2+0xac>
   1987a: 73 60 18 00  	csrrsi	zero, fflags, 0x10
   1987e: e2 60        	c.ldsp	ra, 0x18(sp)
   19880: 22 85        	c.mv	a0, s0
   19882: 42 64        	c.ldsp	s0, 0x10(sp)
   19884: a2 64        	c.ldsp	s1, 0x8(sp)
   19886: 05 61        	c.addi16sp	sp, 0x20
   19888: 82 80        	c.jr	ra
   1988a: 21 65        	c.lui	a0, 0x8
   1988c: 81 45        	c.li	a1, 0x0
   1988e: 7d 15        	c.addi	a0, -0x1
   19890: b5 bf        	c.j	0x1980c <__extenddftf2+0x3a>

0000000000019892 <__riscv_save_12>:
   19892: 59 71        	c.addi16sp	sp, -0x70
   19894: 01 43        	c.li	t1, 0x0
   19896: 6e e4        	c.sdsp	s11, 0x8(sp)
   19898: 19 a0        	c.j	0x1989e <__riscv_save_11+0x4>

000000000001989a <__riscv_save_11>:
   1989a: 59 71        	c.addi16sp	sp, -0x70
   1989c: 05 43        	c.li	t1, 0x1
   1989e: 6a e8        	c.sdsp	s10, 0x10(sp)
   198a0: 66 ec        	c.sdsp	s9, 0x18(sp)
   198a2: 19 a0        	c.j	0x198a8 <__riscv_save_9+0x4>

00000000000198a4 <__riscv_save_9>:
   198a4: 59 71        	c.addi16sp	sp, -0x70
   198a6: 09 43        	c.li	t1, 0x2
   198a8: 62 f0        	c.sdsp	s8, 0x20(sp)
   198aa: 5e f4        	c.sdsp	s7, 0x28(sp)
   198ac: 19 a0        	c.j	0x198b2 <__riscv_save_7+0x4>

00000000000198ae <__riscv_save_7>:
   198ae: 59 71        	c.addi16sp	sp, -0x70
   198b0: 0d 43        	c.li	t1, 0x3
   198b2: 5a f8        	c.sdsp	s6, 0x30(sp)
   198b4: 56 fc        	c.sdsp	s5, 0x38(sp)
   198b6: 19 a0        	c.j	0x198bc <__riscv_save_5+0x4>

00000000000198b8 <__riscv_save_5>:
   198b8: 59 71        	c.addi16sp	sp, -0x70
   198ba: 11 43        	c.li	t1, 0x4
   198bc: d2 e0        	c.sdsp	s4, 0x40(sp)
   198be: ce e4        	c.sdsp	s3, 0x48(sp)
   198c0: 19 a0        	c.j	0x198c6 <__riscv_save_3+0x4>

00000000000198c2 <__riscv_save_3>:
   198c2: 59 71        	c.addi16sp	sp, -0x70
   198c4: 15 43        	c.li	t1, 0x5
   198c6: ca e8        	c.sdsp	s2, 0x50(sp)
   198c8: a6 ec        	c.sdsp	s1, 0x58(sp)
   198ca: a2 f0        	c.sdsp	s0, 0x60(sp)
   198cc: 86 f4        	c.sdsp	ra, 0x68(sp)
   198ce: 12 03        	c.slli	t1, 0x4
   198d0: 1a 91        	c.add	sp, t1
   198d2: 82 82        	c.jr	t0

00000000000198d4 <__riscv_save_1>:
   198d4: 41 11        	c.addi	sp, -0x10
   198d6: 22 e0        	c.sdsp	s0, 0x0(sp)
   198d8: 06 e4        	c.sdsp	ra, 0x8(sp)
   198da: 82 82        	c.jr	t0

00000000000198dc <__riscv_restore_12>:
   198dc: a2 6d        	c.ldsp	s11, 0x8(sp)
   198de: 41 01        	c.addi	sp, 0x10

00000000000198e0 <__riscv_restore_11>:
   198e0: 02 6d        	c.ldsp	s10, 0x0(sp)
   198e2: a2 6c        	c.ldsp	s9, 0x8(sp)
   198e4: 41 01        	c.addi	sp, 0x10

00000000000198e6 <__riscv_restore_9>:
   198e6: 02 6c        	c.ldsp	s8, 0x0(sp)
   198e8: a2 6b        	c.ldsp	s7, 0x8(sp)
   198ea: 41 01        	c.addi	sp, 0x10

00000000000198ec <__riscv_restore_7>:
   198ec: 02 6b        	c.ldsp	s6, 0x0(sp)
   198ee: a2 6a        	c.ldsp	s5, 0x8(sp)
   198f0: 41 01        	c.addi	sp, 0x10

00000000000198f2 <__riscv_restore_5>:
   198f2: 02 6a        	c.ldsp	s4, 0x0(sp)
   198f4: a2 69        	c.ldsp	s3, 0x8(sp)
   198f6: 41 01        	c.addi	sp, 0x10

00000000000198f8 <__riscv_restore_3>:
   198f8: 02 69        	c.ldsp	s2, 0x0(sp)
   198fa: a2 64        	c.ldsp	s1, 0x8(sp)
   198fc: 41 01        	c.addi	sp, 0x10

00000000000198fe <__riscv_restore_1>:
   198fe: 02 64        	c.ldsp	s0, 0x0(sp)
   19900: a2 60        	c.ldsp	ra, 0x8(sp)
   19902: 41 01        	c.addi	sp, 0x10
   19904: 82 80        	c.jr	ra

0000000000019906 <__clzdi2>:
   19906: 93 57 85 03  	srli	a5, a0, 0x38
   1990a: 8d eb        	c.bnez	a5, 0x1993c <__clzdi2+0x36>
   1990c: 93 07 80 03  	addi	a5, zero, 0x38
   19910: e1 17        	c.addi	a5, -0x8
   19912: 91 c7        	c.beqz	a5, 0x1991e <__clzdi2+0x18>
   19914: 33 57 f5 00  	srl	a4, a0, a5
   19918: 13 77 f7 0f  	andi	a4, a4, 0xff
   1991c: 75 db        	c.beqz	a4, 0x19910 <__clzdi2+0xa>
   1991e: 37 07 02 00  	lui	a4, 0x20
   19922: 93 06 00 04  	addi	a3, zero, 0x40
   19926: 9d 8e        	c.sub	a3, a5
   19928: 33 55 f5 00  	srl	a0, a0, a5
   1992c: 93 07 07 2f  	addi	a5, a4, 0x2f0
   19930: aa 97        	c.add	a5, a0
   19932: 03 c5 07 00  	lbu	a0, 0x0(a5)
   19936: 3b 85 a6 40  	subw	a0, a3, a0
   1993a: 82 80        	c.jr	ra
   1993c: 93 07 80 03  	addi	a5, zero, 0x38
   19940: f9 bf        	c.j	0x1991e <__clzdi2+0x18>
