
dynamic_C_search_large:	file format elf64-littleriscv

Disassembly of section .text:

0000000000010120 <exit>:
   10120: 41 11        	addi	sp, sp, -0x10
   10122: 81 45        	li	a1, 0x0
   10124: 22 e0        	sd	s0, 0x0(sp)
   10126: 06 e4        	sd	ra, 0x8(sp)
   10128: 2a 84        	mv	s0, a0
   1012a: ef 10 f0 26  	jal	0x11b98 <__call_exitprocs>
   1012e: 83 b7 01 8f  	ld	a5, -0x710(gp)
   10132: 91 c3        	beqz	a5, 0x10136 <exit+0x16>
   10134: 82 97        	jalr	a5
   10136: 22 85        	mv	a0, s0
   10138: ef 80 60 21  	jal	0x1834e <_exit>

000000000001013c <register_fini>:
   1013c: 93 07 00 00  	li	a5, 0x0
   10140: 89 c7        	beqz	a5, 0x1014a <register_fini+0xe>
   10142: 55 65        	lui	a0, 0x15
   10144: 13 05 25 60  	addi	a0, a0, 0x602
   10148: a5 a5        	j	0x107b0 <atexit>
   1014a: 82 80        	ret

000000000001014c <_start>:
   1014c: 97 21 01 00  	auipc	gp, 0x12
   10150: 93 81 41 79  	addi	gp, gp, 0x794
   10154: 13 85 01 89  	addi	a0, gp, -0x770
   10158: 17 46 01 00  	auipc	a2, 0x14
   1015c: 13 06 86 a2  	addi	a2, a2, -0x5d8
   10160: 09 8e        	sub	a2, a2, a0
   10162: 81 45        	li	a1, 0x0
   10164: ef 10 f0 06  	jal	0x119d2 <memset>
   10168: 17 05 00 00  	auipc	a0, 0x0
   1016c: 13 05 85 64  	addi	a0, a0, 0x648
   10170: 19 c5        	beqz	a0, 0x1017e <_start+0x32>
   10172: 17 55 00 00  	auipc	a0, 0x5
   10176: 13 05 05 49  	addi	a0, a0, 0x490
   1017a: ef 00 60 63  	jal	0x107b0 <atexit>
   1017e: ef 10 00 71  	jal	0x1188e <__libc_init_array>
   10182: 02 45        	lw	a0, 0x0(sp)
   10184: 2c 00        	addi	a1, sp, 0x8
   10186: 01 46        	li	a2, 0x0
   10188: ef 00 80 5b  	jal	0x10740 <main>
   1018c: 51 bf        	j	0x10120 <exit>

000000000001018e <__do_global_dtors_aux>:
   1018e: 41 11        	addi	sp, sp, -0x10
   10190: 22 e0        	sd	s0, 0x0(sp)
   10192: 83 c7 81 91  	lbu	a5, -0x6e8(gp)
   10196: 06 e4        	sd	ra, 0x8(sp)
   10198: 99 ef        	bnez	a5, 0x101b6 <__do_global_dtors_aux+0x28>
   1019a: 93 07 00 00  	li	a5, 0x0
   1019e: 89 cb        	beqz	a5, 0x101b0 <__do_global_dtors_aux+0x22>
   101a0: 37 15 02 00  	lui	a0, 0x21
   101a4: 13 05 05 24  	addi	a0, a0, 0x240
   101a8: 97 00 00 00  	auipc	ra, 0x0
   101ac: e7 00 00 00  	jalr	zero
   101b0: 85 47        	li	a5, 0x1
   101b2: 23 8c f1 90  	sb	a5, -0x6e8(gp)
   101b6: a2 60        	ld	ra, 0x8(sp)
   101b8: 02 64        	ld	s0, 0x0(sp)
   101ba: 41 01        	addi	sp, sp, 0x10
   101bc: 82 80        	ret

00000000000101be <frame_dummy>:
   101be: 93 07 00 00  	li	a5, 0x0
   101c2: 99 cb        	beqz	a5, 0x101d8 <frame_dummy+0x1a>
   101c4: 37 15 02 00  	lui	a0, 0x21
   101c8: 93 85 01 92  	addi	a1, gp, -0x6e0
   101cc: 13 05 05 24  	addi	a0, a0, 0x240
   101d0: 17 03 00 00  	auipc	t1, 0x0
   101d4: 67 00 00 00  	jr	zero
   101d8: 82 80        	ret

00000000000101da <bmha_init>:
   101da: ef 92 80 53  	jal	t0, 0x19712 <__riscv_save_3>
   101de: 2a 89        	mv	s2, a0
   101e0: 23 b8 21 89  	sd	s2, -0x770(gp)
   101e4: 4a 85        	mv	a0, s2
   101e6: ef 10 70 09  	jal	0x11a7c <strlen>
   101ea: 01 4e        	li	t3, 0x0
   101ec: 23 ac a1 88  	sw	a0, -0x768(gp)
   101f0: 93 15 05 02  	slli	a1, a0, 0x20
   101f4: 81 91        	srli	a1, a1, 0x20
   101f6: ca 95        	add	a1, a1, s2
   101f8: 93 82 f5 ff  	addi	t0, a1, -0x1
   101fc: b7 25 02 00  	lui	a1, 0x22
   10200: 13 83 05 23  	addi	t1, a1, 0x230
   10204: b7 15 02 00  	lui	a1, 0x21
   10208: 13 87 85 4b  	addi	a4, a1, 0x4b8
   1020c: 21 68        	lui	a6, 0x8
   1020e: 7d 18        	addi	a6, a6, -0x1
   10210: 93 08 00 10  	li	a7, 0x100
   10214: 01 46        	li	a2, 0x0
   10216: 93 16 2e 00  	slli	a3, t3, 0x2
   1021a: b3 03 d3 00  	add	t2, t1, a3
   1021e: 23 a0 a3 00  	sw	a0, 0x0(t2)
   10222: b3 05 c7 01  	add	a1, a4, t3
   10226: 16 84        	mv	s0, t0
   10228: b2 84        	mv	s1, a2
   1022a: 29 9e        	addw	a2, a2, a0
   1022c: 63 52 c0 02  	blez	a2, 0x10250 <bmha_init+0x76>
   10230: 03 46 04 00  	lbu	a2, 0x0(s0)
   10234: 83 c6 05 00  	lbu	a3, 0x0(a1)
   10238: 3a 96        	add	a2, a2, a4
   1023a: 83 47 06 00  	lbu	a5, 0x0(a2)
   1023e: 1b 86 f4 ff  	addiw	a2, s1, -0x1
   10242: 7d 14        	addi	s0, s0, -0x1
   10244: e3 92 f6 fe  	bne	a3, a5, 0x10228 <bmha_init+0x4e>
   10248: 93 45 f6 ff  	not	a1, a2
   1024c: 23 a0 b3 00  	sw	a1, 0x0(t2)
   10250: 99 e0        	bnez	s1, 0x10256 <bmha_init+0x7c>
   10252: 23 a0 03 01  	sw	a6, 0x0(t2)
   10256: 05 0e        	addi	t3, t3, 0x1
   10258: e3 1e 1e fb  	bne	t3, a7, 0x10214 <bmha_init+0x3a>
   1025c: 1b 06 05 00  	sext.w	a2, a0
   10260: 89 46        	li	a3, 0x2
   10262: 23 ae a1 88  	sw	a0, -0x764(gp)
   10266: 63 4f d6 02  	blt	a2, a3, 0x102a4 <bmha_init+0xca>
   1026a: 7d 35        	addiw	a0, a0, -0x1
   1026c: 33 06 a9 00  	add	a2, s2, a0
   10270: 83 46 06 00  	lbu	a3, 0x0(a2)
   10274: 37 16 02 00  	lui	a2, 0x21
   10278: 13 06 86 4b  	addi	a2, a2, 0x4b8
   1027c: b2 96        	add	a3, a3, a2
   1027e: 83 c6 06 00  	lbu	a3, 0x0(a3)
   10282: 13 17 05 02  	slli	a4, a0, 0x20
   10286: 01 93        	srli	a4, a4, 0x20
   10288: 4a 97        	add	a4, a4, s2
   1028a: 83 47 09 00  	lbu	a5, 0x0(s2)
   1028e: b2 97        	add	a5, a5, a2
   10290: 83 c7 07 00  	lbu	a5, 0x0(a5)
   10294: 63 94 d7 00  	bne	a5, a3, 0x1029c <bmha_init+0xc2>
   10298: 23 ae a1 88  	sw	a0, -0x764(gp)
   1029c: 05 09        	addi	s2, s2, 0x1
   1029e: 7d 15        	addi	a0, a0, -0x1
   102a0: e3 15 e9 fe  	bne	s2, a4, 0x1028a <bmha_init+0xb0>
   102a4: 6f 90 40 4a  	j	0x19748 <__riscv_restore_3>

00000000000102a8 <bmha_search>:
   102a8: 03 af 81 89  	lw	t5, -0x768(gp)
   102ac: 13 c6 f5 ff  	not	a2, a1
   102b0: bb 07 cf 00  	addw	a5, t5, a2
   102b4: 63 c4 07 00  	bltz	a5, 0x102bc <bmha_search+0x14>
   102b8: 01 45        	li	a0, 0x0
   102ba: 82 80        	ret
   102bc: ef 92 80 46  	jal	t0, 0x19724 <__riscv_save_1>
   102c0: b3 0e b5 00  	add	t4, a0, a1
   102c4: 21 66        	lui	a2, 0x8
   102c6: 7d 16        	addi	a2, a2, -0x1
   102c8: bb 08 b6 40  	subw	a7, a2, a1
   102cc: 7d 3f        	addiw	t5, t5, -0x1
   102ce: 03 b6 01 89  	ld	a2, -0x770(gp)
   102d2: 03 a8 c1 89  	lw	a6, -0x764(gp)
   102d6: 93 16 0f 02  	slli	a3, t5, 0x20
   102da: 81 92        	srli	a3, a3, 0x20
   102dc: 36 96        	add	a2, a2, a3
   102de: 93 02 f6 ff  	addi	t0, a2, -0x1
   102e2: 13 46 ff ff  	not	a2, t5
   102e6: b2 95        	add	a1, a1, a2
   102e8: b6 95        	add	a1, a1, a3
   102ea: 33 03 b5 00  	add	t1, a0, a1
   102ee: 37 25 02 00  	lui	a0, 0x22
   102f2: 13 0e 05 23  	addi	t3, a0, 0x230
   102f6: e1 73        	lui	t2, 0xffff8
   102f8: 85 03        	addi	t2, t2, 0x1
   102fa: 37 15 02 00  	lui	a0, 0x21
   102fe: 93 05 85 4b  	addi	a1, a0, 0x4b8
   10302: 33 85 fe 00  	add	a0, t4, a5
   10306: 03 45 05 00  	lbu	a0, 0x0(a0)
   1030a: 0a 05        	slli	a0, a0, 0x2
   1030c: 72 95        	add	a0, a0, t3
   1030e: 08 41        	lw	a0, 0x0(a0)
   10310: a9 9f        	addw	a5, a5, a0
   10312: e3 c8 07 fe  	bltz	a5, 0x10302 <bmha_search+0x5a>
   10316: 63 c0 17 05  	blt	a5, a7, 0x10356 <bmha_search+0xae>
   1031a: bb 8f 77 00  	addw	t6, a5, t2
   1031e: 3b 85 ef 41  	subw	a0, t6, t5
   10322: 76 95        	add	a0, a0, t4
   10324: b3 07 f3 01  	add	a5, t1, t6
   10328: 16 86        	mv	a2, t0
   1032a: 7a 87        	mv	a4, t5
   1032c: 63 56 e0 02  	blez	a4, 0x10358 <bmha_search+0xb0>
   10330: 83 c6 07 00  	lbu	a3, 0x0(a5)
   10334: 03 44 06 00  	lbu	s0, 0x0(a2)
   10338: ae 96        	add	a3, a3, a1
   1033a: 83 c6 06 00  	lbu	a3, 0x0(a3)
   1033e: 2e 94        	add	s0, s0, a1
   10340: 03 44 04 00  	lbu	s0, 0x0(s0)
   10344: 7d 37        	addiw	a4, a4, -0x1
   10346: 7d 16        	addi	a2, a2, -0x1
   10348: fd 17        	addi	a5, a5, -0x1
   1034a: e3 81 86 fe  	beq	a3, s0, 0x1032c <bmha_search+0x84>
   1034e: bb 07 f8 01  	addw	a5, a6, t6
   10352: e3 c8 07 fa  	bltz	a5, 0x10302 <bmha_search+0x5a>
   10356: 01 45        	li	a0, 0x0
   10358: 6f 90 60 3f  	j	0x1974e <__riscv_restore_1>
   1035c: 09 a0        	j	0x1035e <bmha_search+0xb6>
   1035e: 82 80        	ret

0000000000010360 <bmhi_init>:
   10360: ef 92 20 3b  	jal	t0, 0x19712 <__riscv_save_3>
   10364: 2a 84        	mv	s0, a0
   10366: ef 10 60 71  	jal	0x11a7c <strlen>
   1036a: 03 b6 81 8a  	ld	a2, -0x758(gp)
   1036e: 23 a0 a1 8a  	sw	a0, -0x760(gp)
   10372: 9b 05 05 00  	sext.w	a1, a0
   10376: 32 85        	mv	a0, a2
   10378: ef 00 b0 26  	jal	0x10de2 <realloc>
   1037c: 23 b4 a1 8a  	sd	a0, -0x758(gp)
   10380: 63 0b 05 10  	beqz	a0, 0x10496 <bmhi_init+0x136>
   10384: 41 65        	lui	a0, 0x10
   10386: 13 05 c5 49  	addi	a0, a0, 0x49c
   1038a: ef 00 60 42  	jal	0x107b0 <atexit>
   1038e: 83 a2 01 8a  	lw	t0, -0x760(gp)
   10392: 63 5e 50 02  	blez	t0, 0x103ce <bmhi_init+0x6e>
   10396: 03 b5 81 8a  	ld	a0, -0x758(gp)
   1039a: b3 05 55 00  	add	a1, a0, t0
   1039e: 37 06 02 00  	lui	a2, 0x20
   103a2: 13 06 06 a9  	addi	a2, a2, -0x570
   103a6: 83 46 04 00  	lbu	a3, 0x0(s0)
   103aa: 33 07 d6 00  	add	a4, a2, a3
   103ae: 03 47 17 00  	lbu	a4, 0x1(a4)
   103b2: 0d 8b        	andi	a4, a4, 0x3
   103b4: 79 17        	addi	a4, a4, -0x2
   103b6: 33 37 e0 00  	snez	a4, a4
   103ba: 7d 17        	addi	a4, a4, -0x1
   103bc: 13 77 07 0e  	andi	a4, a4, 0xe0
   103c0: ba 96        	add	a3, a3, a4
   103c2: 23 00 d5 00  	sb	a3, 0x0(a0)
   103c6: 05 05        	addi	a0, a0, 0x1
   103c8: 05 04        	addi	s0, s0, 0x1
   103ca: e3 1e b5 fc  	bne	a0, a1, 0x103a6 <bmhi_init+0x46>
   103ce: 13 85 01 d5  	addi	a0, gp, -0x2b0
   103d2: 93 05 05 40  	addi	a1, a0, 0x400
   103d6: 23 20 55 00  	sw	t0, 0x0(a0)
   103da: 11 05        	addi	a0, a0, 0x4
   103dc: e3 1d b5 fe  	bne	a0, a1, 0x103d6 <bmhi_init+0x76>
   103e0: 83 b7 81 8a  	ld	a5, -0x758(gp)
   103e4: 1b 85 f2 ff  	addiw	a0, t0, -0x1
   103e8: 09 48        	li	a6, 0x2
   103ea: 93 18 05 02  	slli	a7, a0, 0x20
   103ee: 63 c5 02 05  	blt	t0, a6, 0x10438 <bmhi_init+0xd8>
   103f2: 93 d6 08 02  	srli	a3, a7, 0x20
   103f6: 33 83 d7 00  	add	t1, a5, a3
   103fa: 13 84 01 d5  	addi	s0, gp, -0x2b0
   103fe: b7 05 02 00  	lui	a1, 0x20
   10402: 93 83 05 a9  	addi	t2, a1, -0x570
   10406: be 85        	mv	a1, a5
   10408: 2a 86        	mv	a2, a0
   1040a: 83 c6 05 00  	lbu	a3, 0x0(a1)
   1040e: 33 87 d3 00  	add	a4, t2, a3
   10412: 03 47 17 00  	lbu	a4, 0x1(a4)
   10416: 93 94 26 00  	slli	s1, a3, 0x2
   1041a: a2 94        	add	s1, s1, s0
   1041c: 90 c0        	sw	a2, 0x0(s1)
   1041e: 0d 8b        	andi	a4, a4, 0x3
   10420: 7d 17        	addi	a4, a4, -0x1
   10422: 13 37 17 00  	seqz	a4, a4
   10426: 16 07        	slli	a4, a4, 0x5
   10428: ba 96        	add	a3, a3, a4
   1042a: 8a 06        	slli	a3, a3, 0x2
   1042c: a2 96        	add	a3, a3, s0
   1042e: 90 c2        	sw	a2, 0x0(a3)
   10430: 85 05        	addi	a1, a1, 0x1
   10432: 7d 16        	addi	a2, a2, -0x1
   10434: e3 9b 65 fc  	bne	a1, t1, 0x1040a <bmhi_init+0xaa>
   10438: b3 85 a7 00  	add	a1, a5, a0
   1043c: 83 c5 05 00  	lbu	a1, 0x0(a1)
   10440: 13 96 25 00  	slli	a2, a1, 0x2
   10444: 93 86 01 d5  	addi	a3, gp, -0x2b0
   10448: 36 96        	add	a2, a2, a3
   1044a: 37 07 02 00  	lui	a4, 0x20
   1044e: 13 07 07 a9  	addi	a4, a4, -0x570
   10452: 2e 97        	add	a4, a4, a1
   10454: 03 47 17 00  	lbu	a4, 0x1(a4)
   10458: a1 64        	lui	s1, 0x8
   1045a: fd 14        	addi	s1, s1, -0x1
   1045c: 04 c2        	sw	s1, 0x0(a2)
   1045e: 0d 8b        	andi	a4, a4, 0x3
   10460: 7d 17        	addi	a4, a4, -0x1
   10462: 13 36 17 00  	seqz	a2, a4
   10466: 16 06        	slli	a2, a2, 0x5
   10468: 2e 96        	add	a2, a2, a1
   1046a: 0a 06        	slli	a2, a2, 0x2
   1046c: 36 96        	add	a2, a2, a3
   1046e: 04 c2        	sw	s1, 0x0(a2)
   10470: 23 a8 51 8a  	sw	t0, -0x750(gp)
   10474: 63 cf 02 01  	blt	t0, a6, 0x10492 <bmhi_init+0x132>
   10478: 93 d6 08 02  	srli	a3, a7, 0x20
   1047c: be 96        	add	a3, a3, a5
   1047e: 03 c7 07 00  	lbu	a4, 0x0(a5)
   10482: 63 14 b7 00  	bne	a4, a1, 0x1048a <bmhi_init+0x12a>
   10486: 23 a8 a1 8a  	sw	a0, -0x750(gp)
   1048a: 85 07        	addi	a5, a5, 0x1
   1048c: 7d 15        	addi	a0, a0, -0x1
   1048e: e3 98 d7 fe  	bne	a5, a3, 0x1047e <bmhi_init+0x11e>
   10492: 6f 90 60 2b  	j	0x19748 <__riscv_restore_3>
   10496: 05 45        	li	a0, 0x1
   10498: ef f0 9f c8  	jal	0x10120 <exit>

000000000001049c <bhmi_cleanup>:
   1049c: 03 b5 81 8a  	ld	a0, -0x758(gp)
   104a0: 15 a6        	j	0x107c4 <free>

00000000000104a2 <bmhi_search>:
   104a2: 03 af 01 8a  	lw	t5, -0x760(gp)
   104a6: 13 c6 f5 ff  	not	a2, a1
   104aa: bb 07 cf 00  	addw	a5, t5, a2
   104ae: 63 c4 07 00  	bltz	a5, 0x104b6 <bmhi_search+0x14>
   104b2: 01 45        	li	a0, 0x0
   104b4: 82 80        	ret
   104b6: ef 92 c0 25  	jal	t0, 0x19712 <__riscv_save_3>
   104ba: b3 0e b5 00  	add	t4, a0, a1
   104be: 21 66        	lui	a2, 0x8
   104c0: 7d 16        	addi	a2, a2, -0x1
   104c2: bb 08 b6 40  	subw	a7, a2, a1
   104c6: 7d 3f        	addiw	t5, t5, -0x1
   104c8: 03 b6 81 8a  	ld	a2, -0x758(gp)
   104cc: 03 a8 01 8b  	lw	a6, -0x750(gp)
   104d0: 93 16 0f 02  	slli	a3, t5, 0x20
   104d4: 81 92        	srli	a3, a3, 0x20
   104d6: 36 96        	add	a2, a2, a3
   104d8: 93 02 f6 ff  	addi	t0, a2, -0x1
   104dc: 13 46 ff ff  	not	a2, t5
   104e0: b2 95        	add	a1, a1, a2
   104e2: b6 95        	add	a1, a1, a3
   104e4: 33 03 b5 00  	add	t1, a0, a1
   104e8: 13 8e 01 d5  	addi	t3, gp, -0x2b0
   104ec: e1 73        	lui	t2, 0xffff8
   104ee: 85 03        	addi	t2, t2, 0x1
   104f0: 37 05 02 00  	lui	a0, 0x20
   104f4: 93 05 05 a9  	addi	a1, a0, -0x570
   104f8: 33 85 fe 00  	add	a0, t4, a5
   104fc: 03 45 05 00  	lbu	a0, 0x0(a0)
   10500: 0a 05        	slli	a0, a0, 0x2
   10502: 72 95        	add	a0, a0, t3
   10504: 08 41        	lw	a0, 0x0(a0)
   10506: a9 9f        	addw	a5, a5, a0
   10508: e3 c8 07 fe  	bltz	a5, 0x104f8 <bmhi_search+0x56>
   1050c: 63 c5 17 05  	blt	a5, a7, 0x10556 <bmhi_search+0xb4>
   10510: bb 8f 77 00  	addw	t6, a5, t2
   10514: 3b 85 ef 41  	subw	a0, t6, t5
   10518: 76 95        	add	a0, a0, t4
   1051a: b3 07 f3 01  	add	a5, t1, t6
   1051e: 16 86        	mv	a2, t0
   10520: 7a 87        	mv	a4, t5
   10522: 63 5b e0 02  	blez	a4, 0x10558 <bmhi_search+0xb6>
   10526: 83 c6 07 00  	lbu	a3, 0x0(a5)
   1052a: 33 84 d5 00  	add	s0, a1, a3
   1052e: 03 44 14 00  	lbu	s0, 0x1(s0)
   10532: 0d 88        	andi	s0, s0, 0x3
   10534: 79 14        	addi	s0, s0, -0x2
   10536: 33 34 80 00  	snez	s0, s0
   1053a: 7d 14        	addi	s0, s0, -0x1
   1053c: 01 98        	andi	s0, s0, -0x20
   1053e: 83 44 06 00  	lbu	s1, 0x0(a2)
   10542: a2 96        	add	a3, a3, s0
   10544: 7d 37        	addiw	a4, a4, -0x1
   10546: 7d 16        	addi	a2, a2, -0x1
   10548: fd 17        	addi	a5, a5, -0x1
   1054a: e3 8c 96 fc  	beq	a3, s1, 0x10522 <bmhi_search+0x80>
   1054e: bb 07 f8 01  	addw	a5, a6, t6
   10552: e3 c3 07 fa  	bltz	a5, 0x104f8 <bmhi_search+0x56>
   10556: 01 45        	li	a0, 0x0
   10558: 6f 90 00 1f  	j	0x19748 <__riscv_restore_3>
   1055c: 09 a0        	j	0x1055e <bmhi_search+0xbc>
   1055e: 82 80        	ret

0000000000010560 <bmh_init>:
   10560: ef 92 20 1b  	jal	t0, 0x19712 <__riscv_save_3>
   10564: aa 84        	mv	s1, a0
   10566: 23 bc 91 8a  	sd	s1, -0x748(gp)
   1056a: 26 85        	mv	a0, s1
   1056c: ef 10 00 51  	jal	0x11a7c <strlen>
   10570: 23 a0 a1 8c  	sw	a0, -0x740(gp)
   10574: 93 85 01 15  	addi	a1, gp, 0x150
   10578: 13 86 05 40  	addi	a2, a1, 0x400
   1057c: 88 c1        	sw	a0, 0x0(a1)
   1057e: 91 05        	addi	a1, a1, 0x4
   10580: e3 9e c5 fe  	bne	a1, a2, 0x1057c <bmh_init+0x1c>
   10584: 1b 06 05 00  	sext.w	a2, a0
   10588: fd 55        	li	a1, -0x1
   1058a: 13 d8 05 02  	srli	a6, a1, 0x20
   1058e: 63 53 c0 02  	blez	a2, 0x105b4 <bmh_init+0x54>
   10592: 33 77 05 01  	and	a4, a0, a6
   10596: 93 06 f5 ff  	addi	a3, a0, -0x1
   1059a: 26 97        	add	a4, a4, s1
   1059c: 93 87 01 15  	addi	a5, gp, 0x150
   105a0: 26 84        	mv	s0, s1
   105a2: 83 45 04 00  	lbu	a1, 0x0(s0)
   105a6: 8a 05        	slli	a1, a1, 0x2
   105a8: be 95        	add	a1, a1, a5
   105aa: 94 c1        	sw	a3, 0x0(a1)
   105ac: 05 04        	addi	s0, s0, 0x1
   105ae: fd 16        	addi	a3, a3, -0x1
   105b0: e3 19 e4 fe  	bne	s0, a4, 0x105a2 <bmh_init+0x42>
   105b4: b3 85 c4 00  	add	a1, s1, a2
   105b8: 83 c6 f5 ff  	lbu	a3, -0x1(a1)
   105bc: 93 95 26 00  	slli	a1, a3, 0x2
   105c0: 13 87 01 15  	addi	a4, gp, 0x150
   105c4: ba 95        	add	a1, a1, a4
   105c6: 21 67        	lui	a4, 0x8
   105c8: 7d 17        	addi	a4, a4, -0x1
   105ca: 98 c1        	sw	a4, 0x0(a1)
   105cc: 89 45        	li	a1, 0x2
   105ce: 23 a2 a1 8c  	sw	a0, -0x73c(gp)
   105d2: 63 42 b6 02  	blt	a2, a1, 0x105f6 <bmh_init+0x96>
   105d6: 13 06 f5 ff  	addi	a2, a0, -0x1
   105da: 42 95        	add	a0, a0, a6
   105dc: 33 75 05 01  	and	a0, a0, a6
   105e0: 26 95        	add	a0, a0, s1
   105e2: 83 c5 04 00  	lbu	a1, 0x0(s1)
   105e6: 63 94 d5 00  	bne	a1, a3, 0x105ee <bmh_init+0x8e>
   105ea: 23 a2 c1 8c  	sw	a2, -0x73c(gp)
   105ee: 85 04        	addi	s1, s1, 0x1
   105f0: 7d 16        	addi	a2, a2, -0x1
   105f2: e3 98 a4 fe  	bne	s1, a0, 0x105e2 <bmh_init+0x82>
   105f6: 6f 90 20 15  	j	0x19748 <__riscv_restore_3>

00000000000105fa <bmh_search>:
   105fa: 03 a6 01 8c  	lw	a2, -0x740(gp)
   105fe: 93 c7 f5 ff  	not	a5, a1
   10602: b1 9f        	addw	a5, a5, a2
   10604: 63 c4 07 00  	bltz	a5, 0x1060c <bmh_search+0x12>
   10608: 01 45        	li	a0, 0x0
   1060a: 82 80        	ret
   1060c: b3 0e b5 00  	add	t4, a0, a1
   10610: a1 66        	lui	a3, 0x8
   10612: fd 16        	addi	a3, a3, -0x1
   10614: bb 88 b6 40  	subw	a7, a3, a1
   10618: 1b 0f f6 ff  	addiw	t5, a2, -0x1
   1061c: 83 b6 81 8b  	ld	a3, -0x748(gp)
   10620: 03 a8 41 8c  	lw	a6, -0x73c(gp)
   10624: 13 17 0f 02  	slli	a4, t5, 0x20
   10628: 01 93        	srli	a4, a4, 0x20
   1062a: ba 96        	add	a3, a3, a4
   1062c: 93 82 f6 ff  	addi	t0, a3, -0x1
   10630: 93 46 ff ff  	not	a3, t5
   10634: b6 95        	add	a1, a1, a3
   10636: ba 95        	add	a1, a1, a4
   10638: 33 03 b5 00  	add	t1, a0, a1
   1063c: 13 8e 01 15  	addi	t3, gp, 0x150
   10640: e1 73        	lui	t2, 0xffff8
   10642: 85 03        	addi	t2, t2, 0x1
   10644: 33 85 fe 00  	add	a0, t4, a5
   10648: 03 45 05 00  	lbu	a0, 0x0(a0)
   1064c: 0a 05        	slli	a0, a0, 0x2
   1064e: 72 95        	add	a0, a0, t3
   10650: 08 41        	lw	a0, 0x0(a0)
   10652: a9 9f        	addw	a5, a5, a0
   10654: e3 c8 07 fe  	bltz	a5, 0x10644 <bmh_search+0x4a>
   10658: e3 c8 17 fb  	blt	a5, a7, 0x10608 <bmh_search+0xe>
   1065c: bb 8f 77 00  	addw	t6, a5, t2
   10660: 3b 85 ef 41  	subw	a0, t6, t5
   10664: 76 95        	add	a0, a0, t4
   10666: b3 07 f3 01  	add	a5, t1, t6
   1066a: 96 86        	mv	a3, t0
   1066c: 7a 87        	mv	a4, t5
   1066e: e3 5e e0 f8  	blez	a4, 0x1060a <bmh_search+0x10>
   10672: 03 c6 07 00  	lbu	a2, 0x0(a5)
   10676: 83 c5 06 00  	lbu	a1, 0x0(a3)
   1067a: 7d 37        	addiw	a4, a4, -0x1
   1067c: fd 16        	addi	a3, a3, -0x1
   1067e: fd 17        	addi	a5, a5, -0x1
   10680: e3 07 b6 fe  	beq	a2, a1, 0x1066e <bmh_search+0x74>
   10684: bb 07 f8 01  	addw	a5, a6, t6
   10688: e3 ce 07 fa  	bltz	a5, 0x10644 <bmh_search+0x4a>
   1068c: b5 bf        	j	0x10608 <bmh_search+0xe>

000000000001068e <init_search>:
   1068e: ef 92 60 09  	jal	t0, 0x19724 <__riscv_save_1>
   10692: 2a 84        	mv	s0, a0
   10694: ef 10 80 3e  	jal	0x11a7c <strlen>
   10698: 23 b4 a1 8c  	sd	a0, -0x738(gp)
   1069c: b7 35 02 00  	lui	a1, 0x23
   106a0: 93 85 05 e3  	addi	a1, a1, -0x1d0
   106a4: 13 86 f5 7f  	addi	a2, a1, 0x7ff
   106a8: 05 06        	addi	a2, a2, 0x1
   106aa: 88 e1        	sd	a0, 0x0(a1)
   106ac: a1 05        	addi	a1, a1, 0x8
   106ae: e3 9e c5 fe  	bne	a1, a2, 0x106aa <init_search+0x1c>
   106b2: 0d c1        	beqz	a0, 0x106d4 <init_search+0x46>
   106b4: 7d 15        	addi	a0, a0, -0x1
   106b6: b7 35 02 00  	lui	a1, 0x23
   106ba: 93 85 05 e3  	addi	a1, a1, -0x1d0
   106be: 7d 56        	li	a2, -0x1
   106c0: a2 86        	mv	a3, s0
   106c2: 03 c7 06 00  	lbu	a4, 0x0(a3)
   106c6: 0e 07        	slli	a4, a4, 0x3
   106c8: 2e 97        	add	a4, a4, a1
   106ca: 08 e3        	sd	a0, 0x0(a4)
   106cc: 7d 15        	addi	a0, a0, -0x1
   106ce: 85 06        	addi	a3, a3, 0x1
   106d0: e3 19 c5 fe  	bne	a0, a2, 0x106c2 <init_search+0x34>
   106d4: 23 b8 81 8c  	sd	s0, -0x730(gp)
   106d8: 6f 90 60 07  	j	0x1974e <__riscv_restore_1>

00000000000106dc <strsearch>:
   106dc: ef 92 80 01  	jal	t0, 0x196f4 <__riscv_save_9>
   106e0: 03 b9 81 8c  	ld	s2, -0x738(gp)
   106e4: 2a 8a        	mv	s4, a0
   106e6: 13 04 f9 ff  	addi	s0, s2, -0x1
   106ea: ef 10 20 39  	jal	0x11a7c <strlen>
   106ee: 63 75 a4 04  	bgeu	s0, a0, 0x10738 <strsearch+0x5c>
   106f2: aa 8a        	mv	s5, a0
   106f4: 83 b9 01 8d  	ld	s3, -0x730(gp)
   106f8: 13 0b 1a 00  	addi	s6, s4, 0x1
   106fc: 37 35 02 00  	lui	a0, 0x23
   10700: 93 0b 05 e3  	addi	s7, a0, -0x1d0
   10704: 33 05 8a 00  	add	a0, s4, s0
   10708: 03 45 05 00  	lbu	a0, 0x0(a0)
   1070c: 0e 05        	slli	a0, a0, 0x3
   1070e: 5e 95        	add	a0, a0, s7
   10710: 08 61        	ld	a0, 0x0(a0)
   10712: 19 c5        	beqz	a0, 0x10720 <strsearch+0x44>
   10714: 2a 94        	add	s0, s0, a0
   10716: e3 67 54 ff  	bltu	s0, s5, 0x10704 <strsearch+0x28>
   1071a: e3 65 54 ff  	bltu	s0, s5, 0x10704 <strsearch+0x28>
   1071e: 29 a8        	j	0x10738 <strsearch+0x5c>
   10720: b3 04 24 41  	sub	s1, s0, s2
   10724: da 94        	add	s1, s1, s6
   10726: 4e 85        	mv	a0, s3
   10728: a6 85        	mv	a1, s1
   1072a: 4a 86        	mv	a2, s2
   1072c: ef 00 10 72  	jal	0x1164c <strncmp>
   10730: 09 c5        	beqz	a0, 0x1073a <strsearch+0x5e>
   10732: 05 04        	addi	s0, s0, 0x1
   10734: e3 68 54 fd  	bltu	s0, s5, 0x10704 <strsearch+0x28>
   10738: 81 44        	li	s1, 0x0
   1073a: 26 85        	mv	a0, s1
   1073c: 6f 80 b0 7f  	j	0x19736 <__riscv_restore_9>

0000000000010740 <main>:
   10740: ef 82 50 7b  	jal	t0, 0x196f4 <__riscv_save_9>
   10744: 65 65        	lui	a0, 0x19
   10746: 93 04 85 79  	addi	s1, a0, 0x798
   1074a: 75 65        	lui	a0, 0x1d
   1074c: 93 0a 05 0f  	addi	s5, a0, 0xf0
   10750: 69 65        	lui	a0, 0x1a
   10752: 13 0b 05 75  	addi	s6, a0, 0x750
   10756: 69 65        	lui	a0, 0x1a
   10758: 93 0b 35 73  	addi	s7, a0, 0x733
   1075c: 69 65        	lui	a0, 0x1a
   1075e: 13 0c 45 73  	addi	s8, a0, 0x734
   10762: 69 65        	lui	a0, 0x1a
   10764: 93 09 25 72  	addi	s3, a0, 0x722
   10768: 69 65        	lui	a0, 0x1a
   1076a: 13 09 95 73  	addi	s2, a0, 0x739
   1076e: 26 85        	mv	a0, s1
   10770: ef f0 ff f1  	jal	0x1068e <init_search>
   10774: 03 ba 0a 00  	ld	s4, 0x0(s5)
   10778: 52 85        	mv	a0, s4
   1077a: ef f0 3f f6  	jal	0x106dc <strsearch>
   1077e: 2a 84        	mv	s0, a0
   10780: 62 86        	mv	a2, s8
   10782: 11 c1        	beqz	a0, 0x10786 <main+0x46>
   10784: 5e 86        	mv	a2, s7
   10786: 4e 85        	mv	a0, s3
   10788: a6 85        	mv	a1, s1
   1078a: d2 86        	mv	a3, s4
   1078c: ef 00 b0 59  	jal	0x11526 <printf>
   10790: 09 c4        	beqz	s0, 0x1079a <main+0x5a>
   10792: 4a 85        	mv	a0, s2
   10794: a2 85        	mv	a1, s0
   10796: ef 00 10 59  	jal	0x11526 <printf>
   1079a: 29 45        	li	a0, 0xa
   1079c: ef 00 d0 5b  	jal	0x11558 <putchar>
   107a0: 83 34 0b 00  	ld	s1, 0x0(s6)
   107a4: a1 0a        	addi	s5, s5, 0x8
   107a6: 21 0b        	addi	s6, s6, 0x8
   107a8: f9 f0        	bnez	s1, 0x1076e <main+0x2e>
   107aa: 01 45        	li	a0, 0x0
   107ac: 6f 80 b0 78  	j	0x19736 <__riscv_restore_9>

00000000000107b0 <atexit>:
   107b0: aa 85        	mv	a1, a0
   107b2: 81 46        	li	a3, 0x0
   107b4: 01 46        	li	a2, 0x0
   107b6: 01 45        	li	a0, 0x0
   107b8: 6f 10 60 36  	j	0x11b1e <__register_exitproc>

00000000000107bc <malloc>:
   107bc: aa 85        	mv	a1, a0
   107be: 03 b5 81 88  	ld	a0, -0x778(gp)
   107c2: 31 a0        	j	0x107ce <_malloc_r>

00000000000107c4 <free>:
   107c4: aa 85        	mv	a1, a0
   107c6: 03 b5 81 88  	ld	a0, -0x778(gp)
   107ca: 6f 10 80 57  	j	0x11d42 <_free_r>

00000000000107ce <_malloc_r>:
   107ce: 1d 71        	addi	sp, sp, -0x60
   107d0: a6 e4        	sd	s1, 0x48(sp)
   107d2: ca e0        	sd	s2, 0x40(sp)
   107d4: 86 ec        	sd	ra, 0x58(sp)
   107d6: a2 e8        	sd	s0, 0x50(sp)
   107d8: 4e fc        	sd	s3, 0x38(sp)
   107da: 93 84 75 01  	addi	s1, a1, 0x17
   107de: 93 07 e0 02  	li	a5, 0x2e
   107e2: 2a 89        	mv	s2, a0
   107e4: 63 ee 97 04  	bltu	a5, s1, 0x10840 <_malloc_r+0x72>
   107e8: 93 07 00 02  	li	a5, 0x20
   107ec: 63 ec b7 18  	bltu	a5, a1, 0x10984 <_malloc_r+0x1b6>
   107f0: ef 00 e0 5e  	jal	0x10dde <__malloc_lock>
   107f4: 93 07 00 05  	li	a5, 0x50
   107f8: 91 45        	li	a1, 0x4
   107fa: 93 04 00 02  	li	s1, 0x20
   107fe: b7 19 02 00  	lui	s3, 0x21
   10802: 93 89 89 5b  	addi	s3, s3, 0x5b8
   10806: ce 97        	add	a5, a5, s3
   10808: 80 67        	ld	s0, 0x8(a5)
   1080a: 13 87 07 ff  	addi	a4, a5, -0x10
   1080e: 63 01 e4 28  	beq	s0, a4, 0x10a90 <_malloc_r+0x2c2>
   10812: 1c 64        	ld	a5, 0x8(s0)
   10814: 14 6c        	ld	a3, 0x18(s0)
   10816: 10 68        	ld	a2, 0x10(s0)
   10818: f1 9b        	andi	a5, a5, -0x4
   1081a: a2 97        	add	a5, a5, s0
   1081c: 98 67        	ld	a4, 0x8(a5)
   1081e: 14 ee        	sd	a3, 0x18(a2)
   10820: 90 ea        	sd	a2, 0x10(a3)
   10822: 13 67 17 00  	ori	a4, a4, 0x1
   10826: 4a 85        	mv	a0, s2
   10828: 98 e7        	sd	a4, 0x8(a5)
   1082a: ef 00 60 5b  	jal	0x10de0 <__malloc_unlock>
   1082e: 13 05 04 01  	addi	a0, s0, 0x10
   10832: e6 60        	ld	ra, 0x58(sp)
   10834: 46 64        	ld	s0, 0x50(sp)
   10836: a6 64        	ld	s1, 0x48(sp)
   10838: 06 69        	ld	s2, 0x40(sp)
   1083a: e2 79        	ld	s3, 0x38(sp)
   1083c: 25 61        	addi	sp, sp, 0x60
   1083e: 82 80        	ret
   10840: b7 07 00 80  	lui	a5, 0x80000
   10844: c1 98        	andi	s1, s1, -0x10
   10846: 93 c7 f7 ff  	not	a5, a5
   1084a: 63 ed 97 12  	bltu	a5, s1, 0x10984 <_malloc_r+0x1b6>
   1084e: 63 eb b4 12  	bltu	s1, a1, 0x10984 <_malloc_r+0x1b6>
   10852: ef 00 c0 58  	jal	0x10dde <__malloc_lock>
   10856: 93 07 70 1f  	li	a5, 0x1f7
   1085a: 63 f6 97 32  	bgeu	a5, s1, 0x10b86 <_malloc_r+0x3b8>
   1085e: 93 d7 94 00  	srli	a5, s1, 0x9
   10862: 63 86 07 12  	beqz	a5, 0x1098e <_malloc_r+0x1c0>
   10866: 11 47        	li	a4, 0x4
   10868: 63 6b f7 26  	bltu	a4, a5, 0x10ade <_malloc_r+0x310>
   1086c: 93 d7 64 00  	srli	a5, s1, 0x6
   10870: 9b 85 97 03  	addiw	a1, a5, 0x39
   10874: 1b 96 15 00  	slliw	a2, a1, 0x1
   10878: 1b 88 87 03  	addiw	a6, a5, 0x38
   1087c: 0e 06        	slli	a2, a2, 0x3
   1087e: b7 19 02 00  	lui	s3, 0x21
   10882: 93 89 89 5b  	addi	s3, s3, 0x5b8
   10886: 4e 96        	add	a2, a2, s3
   10888: 00 66        	ld	s0, 0x8(a2)
   1088a: 41 16        	addi	a2, a2, -0x10
   1088c: 63 01 86 02  	beq	a2, s0, 0x108ae <_malloc_r+0xe0>
   10890: 7d 45        	li	a0, 0x1f
   10892: 39 a0        	j	0x108a0 <_malloc_r+0xd2>
   10894: 14 6c        	ld	a3, 0x18(s0)
   10896: 63 5b 07 1e  	bgez	a4, 0x10a8c <_malloc_r+0x2be>
   1089a: 63 0a d6 00  	beq	a2, a3, 0x108ae <_malloc_r+0xe0>
   1089e: 36 84        	mv	s0, a3
   108a0: 1c 64        	ld	a5, 0x8(s0)
   108a2: f1 9b        	andi	a5, a5, -0x4
   108a4: 33 87 97 40  	sub	a4, a5, s1
   108a8: e3 56 e5 fe  	bge	a0, a4, 0x10894 <_malloc_r+0xc6>
   108ac: c2 85        	mv	a1, a6
   108ae: 03 b4 09 02  	ld	s0, 0x20(s3)
   108b2: 37 18 02 00  	lui	a6, 0x21
   108b6: 13 08 88 5c  	addi	a6, a6, 0x5c8
   108ba: 63 06 04 1d  	beq	s0, a6, 0x10a86 <_malloc_r+0x2b8>
   108be: 1c 64        	ld	a5, 0x8(s0)
   108c0: fd 46        	li	a3, 0x1f
   108c2: f1 9b        	andi	a5, a5, -0x4
   108c4: 33 87 97 40  	sub	a4, a5, s1
   108c8: 63 c8 e6 28  	blt	a3, a4, 0x10b58 <_malloc_r+0x38a>
   108cc: 23 b4 09 03  	sd	a6, 0x28(s3)
   108d0: 23 b0 09 03  	sd	a6, 0x20(s3)
   108d4: 63 57 07 26  	bgez	a4, 0x10b42 <_malloc_r+0x374>
   108d8: 13 07 f0 1f  	li	a4, 0x1ff
   108dc: 03 b5 89 00  	ld	a0, 0x8(s3)
   108e0: 63 6d f7 1a  	bltu	a4, a5, 0x10a9a <_malloc_r+0x2cc>
   108e4: 8d 83        	srli	a5, a5, 0x3
   108e6: 1b 87 17 00  	addiw	a4, a5, 0x1
   108ea: 1b 17 17 00  	slliw	a4, a4, 0x1
   108ee: 0e 07        	slli	a4, a4, 0x3
   108f0: 4e 97        	add	a4, a4, s3
   108f2: 10 63        	ld	a2, 0x0(a4)
   108f4: 9b d7 27 40  	sraiw	a5, a5, 0x2
   108f8: 85 46        	li	a3, 0x1
   108fa: b3 97 f6 00  	sll	a5, a3, a5
   108fe: 5d 8d        	or	a0, a0, a5
   10900: 93 07 07 ff  	addi	a5, a4, -0x10
   10904: 1c ec        	sd	a5, 0x18(s0)
   10906: 10 e8        	sd	a2, 0x10(s0)
   10908: 23 b4 a9 00  	sd	a0, 0x8(s3)
   1090c: 00 e3        	sd	s0, 0x0(a4)
   1090e: 00 ee        	sd	s0, 0x18(a2)
   10910: 9b d7 25 40  	sraiw	a5, a1, 0x2
   10914: 05 46        	li	a2, 0x1
   10916: 33 16 f6 00  	sll	a2, a2, a5
   1091a: 63 61 c5 08  	bltu	a0, a2, 0x1099c <_malloc_r+0x1ce>
   1091e: b3 77 a6 00  	and	a5, a2, a0
   10922: 81 ef        	bnez	a5, 0x1093a <_malloc_r+0x16c>
   10924: 06 06        	slli	a2, a2, 0x1
   10926: f1 99        	andi	a1, a1, -0x4
   10928: b3 77 a6 00  	and	a5, a2, a0
   1092c: 91 25        	addiw	a1, a1, 0x4
   1092e: 91 e7        	bnez	a5, 0x1093a <_malloc_r+0x16c>
   10930: 06 06        	slli	a2, a2, 0x1
   10932: b3 77 a6 00  	and	a5, a2, a0
   10936: 91 25        	addiw	a1, a1, 0x4
   10938: e5 df        	beqz	a5, 0x10930 <_malloc_r+0x162>
   1093a: fd 48        	li	a7, 0x1f
   1093c: 1b 83 15 00  	addiw	t1, a1, 0x1
   10940: 1b 13 13 00  	slliw	t1, t1, 0x1
   10944: 0e 03        	slli	t1, t1, 0x3
   10946: 41 13        	addi	t1, t1, -0x10
   10948: 4e 93        	add	t1, t1, s3
   1094a: 1a 85        	mv	a0, t1
   1094c: 1c 6d        	ld	a5, 0x18(a0)
   1094e: 2e 8e        	mv	t3, a1
   10950: 63 08 f5 1a  	beq	a0, a5, 0x10b00 <_malloc_r+0x332>
   10954: 98 67        	ld	a4, 0x8(a5)
   10956: 3e 84        	mv	s0, a5
   10958: 9c 6f        	ld	a5, 0x18(a5)
   1095a: 71 9b        	andi	a4, a4, -0x4
   1095c: b3 06 97 40  	sub	a3, a4, s1
   10960: 63 c7 d8 1a  	blt	a7, a3, 0x10b0e <_malloc_r+0x340>
   10964: e3 c6 06 fe  	bltz	a3, 0x10950 <_malloc_r+0x182>
   10968: 22 97        	add	a4, a4, s0
   1096a: 14 67        	ld	a3, 0x8(a4)
   1096c: 10 68        	ld	a2, 0x10(s0)
   1096e: 4a 85        	mv	a0, s2
   10970: 93 e6 16 00  	ori	a3, a3, 0x1
   10974: 14 e7        	sd	a3, 0x8(a4)
   10976: 1c ee        	sd	a5, 0x18(a2)
   10978: 90 eb        	sd	a2, 0x10(a5)
   1097a: ef 00 60 46  	jal	0x10de0 <__malloc_unlock>
   1097e: 13 05 04 01  	addi	a0, s0, 0x10
   10982: 45 bd        	j	0x10832 <_malloc_r+0x64>
   10984: b1 47        	li	a5, 0xc
   10986: 23 20 f9 00  	sw	a5, 0x0(s2)
   1098a: 01 45        	li	a0, 0x0
   1098c: 5d b5        	j	0x10832 <_malloc_r+0x64>
   1098e: 13 06 00 40  	li	a2, 0x400
   10992: 93 05 00 04  	li	a1, 0x40
   10996: 13 08 f0 03  	li	a6, 0x3f
   1099a: d5 b5        	j	0x1087e <_malloc_r+0xb0>
   1099c: 03 b4 09 01  	ld	s0, 0x10(s3)
   109a0: 56 f4        	sd	s5, 0x28(sp)
   109a2: 1c 64        	ld	a5, 0x8(s0)
   109a4: 93 fa c7 ff  	andi	s5, a5, -0x4
   109a8: 63 e7 9a 00  	bltu	s5, s1, 0x109b6 <_malloc_r+0x1e8>
   109ac: 33 87 9a 40  	sub	a4, s5, s1
   109b0: fd 47        	li	a5, 0x1f
   109b2: 63 c4 e7 0a  	blt	a5, a4, 0x10a5a <_malloc_r+0x28c>
   109b6: 66 e4        	sd	s9, 0x8(sp)
   109b8: 52 f8        	sd	s4, 0x30(sp)
   109ba: 03 b7 81 87  	ld	a4, -0x788(gp)
   109be: 03 ba 81 8e  	ld	s4, -0x718(gp)
   109c2: 62 e8        	sd	s8, 0x10(sp)
   109c4: 5a f0        	sd	s6, 0x20(sp)
   109c6: fd 57        	li	a5, -0x1
   109c8: 33 0c 54 01  	add	s8, s0, s5
   109cc: 26 9a        	add	s4, s4, s1
   109ce: 63 0c f7 2e  	beq	a4, a5, 0x10cc6 <_malloc_r+0x4f8>
   109d2: 85 67        	lui	a5, 0x1
   109d4: fd 07        	addi	a5, a5, 0x1f
   109d6: 3e 9a        	add	s4, s4, a5
   109d8: fd 77        	lui	a5, 0xfffff
   109da: 33 7a fa 00  	and	s4, s4, a5
   109de: d2 85        	mv	a1, s4
   109e0: 4a 85        	mv	a0, s2
   109e2: ef 00 b0 63  	jal	0x1181c <_sbrk_r>
   109e6: fd 57        	li	a5, -0x1
   109e8: 2a 8b        	mv	s6, a0
   109ea: 63 04 f5 36  	beq	a0, a5, 0x10d52 <_malloc_r+0x584>
   109ee: 5e ec        	sd	s7, 0x18(sp)
   109f0: 63 6e 85 1b  	bltu	a0, s8, 0x10bac <_malloc_r+0x3de>
   109f4: b7 3b 02 00  	lui	s7, 0x23
   109f8: 93 8b 0b 63  	addi	s7, s7, 0x630
   109fc: 83 a7 0b 00  	lw	a5, 0x0(s7)
   10a00: 3b 87 47 01  	addw	a4, a5, s4
   10a04: 23 a0 eb 00  	sw	a4, 0x0(s7)
   10a08: ba 86        	mv	a3, a4
   10a0a: 63 19 ac 20  	bne	s8, a0, 0x10c1c <_malloc_r+0x44e>
   10a0e: 93 17 45 03  	slli	a5, a0, 0x34
   10a12: 63 95 07 20  	bnez	a5, 0x10c1c <_malloc_r+0x44e>
   10a16: 03 bb 09 01  	ld	s6, 0x10(s3)
   10a1a: b3 87 4a 01  	add	a5, s5, s4
   10a1e: 93 e7 17 00  	ori	a5, a5, 0x1
   10a22: 23 34 fb 00  	sd	a5, 0x8(s6)
   10a26: 03 b6 01 8e  	ld	a2, -0x720(gp)
   10a2a: 63 74 e6 00  	bgeu	a2, a4, 0x10a32 <_malloc_r+0x264>
   10a2e: 23 b0 e1 8e  	sd	a4, -0x720(gp)
   10a32: 03 b6 81 8d  	ld	a2, -0x728(gp)
   10a36: 63 74 e6 00  	bgeu	a2, a4, 0x10a3e <_malloc_r+0x270>
   10a3a: 23 bc e1 8c  	sd	a4, -0x728(gp)
   10a3e: e2 6b        	ld	s7, 0x18(sp)
   10a40: 5a 84        	mv	s0, s6
   10a42: f1 9b        	andi	a5, a5, -0x4
   10a44: 33 87 97 40  	sub	a4, a5, s1
   10a48: 63 ef 97 2a  	bltu	a5, s1, 0x10d06 <_malloc_r+0x538>
   10a4c: fd 47        	li	a5, 0x1f
   10a4e: 63 dc e7 2a  	bge	a5, a4, 0x10d06 <_malloc_r+0x538>
   10a52: 42 7a        	ld	s4, 0x30(sp)
   10a54: 02 7b        	ld	s6, 0x20(sp)
   10a56: 42 6c        	ld	s8, 0x10(sp)
   10a58: a2 6c        	ld	s9, 0x8(sp)
   10a5a: 93 e7 14 00  	ori	a5, s1, 0x1
   10a5e: 1c e4        	sd	a5, 0x8(s0)
   10a60: a2 94        	add	s1, s1, s0
   10a62: 23 b8 99 00  	sd	s1, 0x10(s3)
   10a66: 13 67 17 00  	ori	a4, a4, 0x1
   10a6a: 4a 85        	mv	a0, s2
   10a6c: 98 e4        	sd	a4, 0x8(s1)
   10a6e: ef 00 20 37  	jal	0x10de0 <__malloc_unlock>
   10a72: e6 60        	ld	ra, 0x58(sp)
   10a74: 13 05 04 01  	addi	a0, s0, 0x10
   10a78: 46 64        	ld	s0, 0x50(sp)
   10a7a: a2 7a        	ld	s5, 0x28(sp)
   10a7c: a6 64        	ld	s1, 0x48(sp)
   10a7e: 06 69        	ld	s2, 0x40(sp)
   10a80: e2 79        	ld	s3, 0x38(sp)
   10a82: 25 61        	addi	sp, sp, 0x60
   10a84: 82 80        	ret
   10a86: 03 b5 89 00  	ld	a0, 0x8(s3)
   10a8a: 59 b5        	j	0x10910 <_malloc_r+0x142>
   10a8c: 10 68        	ld	a2, 0x10(s0)
   10a8e: 71 b3        	j	0x1081a <_malloc_r+0x4c>
   10a90: 80 6f        	ld	s0, 0x18(a5)
   10a92: 89 25        	addiw	a1, a1, 0x2
   10a94: e3 8d 87 e0  	beq	a5, s0, 0x108ae <_malloc_r+0xe0>
   10a98: ad bb        	j	0x10812 <_malloc_r+0x44>
   10a9a: 13 d7 97 00  	srli	a4, a5, 0x9
   10a9e: 91 46        	li	a3, 0x4
   10aa0: 63 fc e6 0e  	bgeu	a3, a4, 0x10b98 <_malloc_r+0x3ca>
   10aa4: d1 46        	li	a3, 0x14
   10aa6: 63 ea e6 26  	bltu	a3, a4, 0x10d1a <_malloc_r+0x54c>
   10aaa: 1b 06 c7 05  	addiw	a2, a4, 0x5c
   10aae: 1b 16 16 00  	slliw	a2, a2, 0x1
   10ab2: 9b 06 b7 05  	addiw	a3, a4, 0x5b
   10ab6: 0e 06        	slli	a2, a2, 0x3
   10ab8: 4e 96        	add	a2, a2, s3
   10aba: 18 62        	ld	a4, 0x0(a2)
   10abc: 41 16        	addi	a2, a2, -0x10
   10abe: 63 16 e6 00  	bne	a2, a4, 0x10aca <_malloc_r+0x2fc>
   10ac2: 29 a4        	j	0x10ccc <_malloc_r+0x4fe>
   10ac4: 18 6b        	ld	a4, 0x10(a4)
   10ac6: 63 06 e6 00  	beq	a2, a4, 0x10ad2 <_malloc_r+0x304>
   10aca: 14 67        	ld	a3, 0x8(a4)
   10acc: f1 9a        	andi	a3, a3, -0x4
   10ace: e3 eb d7 fe  	bltu	a5, a3, 0x10ac4 <_malloc_r+0x2f6>
   10ad2: 10 6f        	ld	a2, 0x18(a4)
   10ad4: 10 ec        	sd	a2, 0x18(s0)
   10ad6: 18 e8        	sd	a4, 0x10(s0)
   10ad8: 00 ea        	sd	s0, 0x10(a2)
   10ada: 00 ef        	sd	s0, 0x18(a4)
   10adc: 15 bd        	j	0x10910 <_malloc_r+0x142>
   10ade: 51 47        	li	a4, 0x14
   10ae0: 63 7d f7 0c  	bgeu	a4, a5, 0x10bba <_malloc_r+0x3ec>
   10ae4: 13 07 40 05  	li	a4, 0x54
   10ae8: 63 67 f7 24  	bltu	a4, a5, 0x10d36 <_malloc_r+0x568>
   10aec: 93 d7 c4 00  	srli	a5, s1, 0xc
   10af0: 9b 85 f7 06  	addiw	a1, a5, 0x6f
   10af4: 1b 96 15 00  	slliw	a2, a1, 0x1
   10af8: 1b 88 e7 06  	addiw	a6, a5, 0x6e
   10afc: 0e 06        	slli	a2, a2, 0x3
   10afe: 41 b3        	j	0x1087e <_malloc_r+0xb0>
   10b00: 05 2e        	addiw	t3, t3, 0x1
   10b02: 93 77 3e 00  	andi	a5, t3, 0x3
   10b06: 41 05        	addi	a0, a0, 0x10
   10b08: f1 c7        	beqz	a5, 0x10bd4 <_malloc_r+0x406>
   10b0a: 1c 6d        	ld	a5, 0x18(a0)
   10b0c: 91 b5        	j	0x10950 <_malloc_r+0x182>
   10b0e: 10 68        	ld	a2, 0x10(s0)
   10b10: 93 e5 14 00  	ori	a1, s1, 0x1
   10b14: 0c e4        	sd	a1, 0x8(s0)
   10b16: 1c ee        	sd	a5, 0x18(a2)
   10b18: 90 eb        	sd	a2, 0x10(a5)
   10b1a: a2 94        	add	s1, s1, s0
   10b1c: 23 b4 99 02  	sd	s1, 0x28(s3)
   10b20: 23 b0 99 02  	sd	s1, 0x20(s3)
   10b24: 93 e7 16 00  	ori	a5, a3, 0x1
   10b28: 23 bc 04 01  	sd	a6, 0x18(s1)
   10b2c: 23 b8 04 01  	sd	a6, 0x10(s1)
   10b30: 9c e4        	sd	a5, 0x8(s1)
   10b32: 22 97        	add	a4, a4, s0
   10b34: 4a 85        	mv	a0, s2
   10b36: 14 e3        	sd	a3, 0x0(a4)
   10b38: ef 00 80 2a  	jal	0x10de0 <__malloc_unlock>
   10b3c: 13 05 04 01  	addi	a0, s0, 0x10
   10b40: cd b9        	j	0x10832 <_malloc_r+0x64>
   10b42: a2 97        	add	a5, a5, s0
   10b44: 98 67        	ld	a4, 0x8(a5)
   10b46: 4a 85        	mv	a0, s2
   10b48: 13 67 17 00  	ori	a4, a4, 0x1
   10b4c: 98 e7        	sd	a4, 0x8(a5)
   10b4e: ef 00 20 29  	jal	0x10de0 <__malloc_unlock>
   10b52: 13 05 04 01  	addi	a0, s0, 0x10
   10b56: f1 b9        	j	0x10832 <_malloc_r+0x64>
   10b58: 93 e6 14 00  	ori	a3, s1, 0x1
   10b5c: 14 e4        	sd	a3, 0x8(s0)
   10b5e: a2 94        	add	s1, s1, s0
   10b60: 23 b4 99 02  	sd	s1, 0x28(s3)
   10b64: 23 b0 99 02  	sd	s1, 0x20(s3)
   10b68: 93 66 17 00  	ori	a3, a4, 0x1
   10b6c: 23 bc 04 01  	sd	a6, 0x18(s1)
   10b70: 23 b8 04 01  	sd	a6, 0x10(s1)
   10b74: 94 e4        	sd	a3, 0x8(s1)
   10b76: a2 97        	add	a5, a5, s0
   10b78: 4a 85        	mv	a0, s2
   10b7a: 98 e3        	sd	a4, 0x0(a5)
   10b7c: ef 00 40 26  	jal	0x10de0 <__malloc_unlock>
   10b80: 13 05 04 01  	addi	a0, s0, 0x10
   10b84: 7d b1        	j	0x10832 <_malloc_r+0x64>
   10b86: 93 d5 34 00  	srli	a1, s1, 0x3
   10b8a: 9b 87 15 00  	addiw	a5, a1, 0x1
   10b8e: 9b 97 17 00  	slliw	a5, a5, 0x1
   10b92: 81 25        	sext.w	a1, a1
   10b94: 8e 07        	slli	a5, a5, 0x3
   10b96: a5 b1        	j	0x107fe <_malloc_r+0x30>
   10b98: 13 d7 67 00  	srli	a4, a5, 0x6
   10b9c: 1b 06 97 03  	addiw	a2, a4, 0x39
   10ba0: 1b 16 16 00  	slliw	a2, a2, 0x1
   10ba4: 9b 06 87 03  	addiw	a3, a4, 0x38
   10ba8: 0e 06        	slli	a2, a2, 0x3
   10baa: 39 b7        	j	0x10ab8 <_malloc_r+0x2ea>
   10bac: 63 0e 34 05  	beq	s0, s3, 0x10c08 <_malloc_r+0x43a>
   10bb0: 03 b4 09 01  	ld	s0, 0x10(s3)
   10bb4: e2 6b        	ld	s7, 0x18(sp)
   10bb6: 1c 64        	ld	a5, 0x8(s0)
   10bb8: 69 b5        	j	0x10a42 <_malloc_r+0x274>
   10bba: 9b 85 c7 05  	addiw	a1, a5, 0x5c
   10bbe: 1b 96 15 00  	slliw	a2, a1, 0x1
   10bc2: 1b 88 b7 05  	addiw	a6, a5, 0x5b
   10bc6: 0e 06        	slli	a2, a2, 0x3
   10bc8: 5d b9        	j	0x1087e <_malloc_r+0xb0>
   10bca: 83 37 03 01  	ld	a5, 0x10(t1)
   10bce: fd 35        	addiw	a1, a1, -0x1
   10bd0: 63 94 67 20  	bne	a5, t1, 0x10dd8 <_malloc_r+0x60a>
   10bd4: 93 f7 35 00  	andi	a5, a1, 0x3
   10bd8: 41 13        	addi	t1, t1, -0x10
   10bda: e5 fb        	bnez	a5, 0x10bca <_malloc_r+0x3fc>
   10bdc: 03 b7 89 00  	ld	a4, 0x8(s3)
   10be0: 93 47 f6 ff  	not	a5, a2
   10be4: f9 8f        	and	a5, a5, a4
   10be6: 23 b4 f9 00  	sd	a5, 0x8(s3)
   10bea: 06 06        	slli	a2, a2, 0x1
   10bec: e3 e8 c7 da  	bltu	a5, a2, 0x1099c <_malloc_r+0x1ce>
   10bf0: e3 06 06 da  	beqz	a2, 0x1099c <_malloc_r+0x1ce>
   10bf4: 33 77 f6 00  	and	a4, a2, a5
   10bf8: 11 e7        	bnez	a4, 0x10c04 <_malloc_r+0x436>
   10bfa: 06 06        	slli	a2, a2, 0x1
   10bfc: 33 77 f6 00  	and	a4, a2, a5
   10c00: 11 2e        	addiw	t3, t3, 0x4
   10c02: 65 df        	beqz	a4, 0x10bfa <_malloc_r+0x42c>
   10c04: f2 85        	mv	a1, t3
   10c06: 1d bb        	j	0x1093c <_malloc_r+0x16e>
   10c08: b7 3b 02 00  	lui	s7, 0x23
   10c0c: 93 8b 0b 63  	addi	s7, s7, 0x630
   10c10: 83 a7 0b 00  	lw	a5, 0x0(s7)
   10c14: bb 86 47 01  	addw	a3, a5, s4
   10c18: 23 a0 db 00  	sw	a3, 0x0(s7)
   10c1c: 03 b7 81 87  	ld	a4, -0x788(gp)
   10c20: fd 57        	li	a5, -0x1
   10c22: 63 0c f7 12  	beq	a4, a5, 0x10d5a <_malloc_r+0x58c>
   10c26: b3 07 8b 41  	sub	a5, s6, s8
   10c2a: b5 9f        	addw	a5, a5, a3
   10c2c: 23 a0 fb 00  	sw	a5, 0x0(s7)
   10c30: 93 7c fb 00  	andi	s9, s6, 0xf
   10c34: 63 85 0c 0a  	beqz	s9, 0x10cde <_malloc_r+0x510>
   10c38: 33 0b 9b 41  	sub	s6, s6, s9
   10c3c: 05 67        	lui	a4, 0x1
   10c3e: 41 07        	addi	a4, a4, 0x10
   10c40: 41 0b        	addi	s6, s6, 0x10
   10c42: 33 0c 97 41  	sub	s8, a4, s9
   10c46: 5a 9a        	add	s4, s4, s6
   10c48: 33 0c 4c 41  	sub	s8, s8, s4
   10c4c: 52 1c        	slli	s8, s8, 0x34
   10c4e: 13 5c 4c 03  	srli	s8, s8, 0x34
   10c52: e2 85        	mv	a1, s8
   10c54: 4a 85        	mv	a0, s2
   10c56: ef 00 70 3c  	jal	0x1181c <_sbrk_r>
   10c5a: fd 57        	li	a5, -0x1
   10c5c: 63 0e f5 12  	beq	a0, a5, 0x10d98 <_malloc_r+0x5ca>
   10c60: 33 05 65 41  	sub	a0, a0, s6
   10c64: 9b 06 0c 00  	sext.w	a3, s8
   10c68: 33 0a 85 01  	add	s4, a0, s8
   10c6c: 03 a7 0b 00  	lw	a4, 0x0(s7)
   10c70: 23 b8 69 01  	sd	s6, 0x10(s3)
   10c74: 93 67 1a 00  	ori	a5, s4, 0x1
   10c78: 35 9f        	addw	a4, a4, a3
   10c7a: 23 a0 eb 00  	sw	a4, 0x0(s7)
   10c7e: 23 34 fb 00  	sd	a5, 0x8(s6)
   10c82: e3 02 34 db  	beq	s0, s3, 0x10a26 <_malloc_r+0x258>
   10c86: 7d 46        	li	a2, 0x1f
   10c88: 63 7b 56 07  	bgeu	a2, s5, 0x10cfe <_malloc_r+0x530>
   10c8c: 14 64        	ld	a3, 0x8(s0)
   10c8e: 93 87 8a fe  	addi	a5, s5, -0x18
   10c92: c1 9b        	andi	a5, a5, -0x10
   10c94: 85 8a        	andi	a3, a3, 0x1
   10c96: dd 8e        	or	a3, a3, a5
   10c98: 14 e4        	sd	a3, 0x8(s0)
   10c9a: a5 45        	li	a1, 0x9
   10c9c: b3 06 f4 00  	add	a3, s0, a5
   10ca0: 8c e6        	sd	a1, 0x8(a3)
   10ca2: 8c ea        	sd	a1, 0x10(a3)
   10ca4: 63 65 f6 00  	bltu	a2, a5, 0x10cae <_malloc_r+0x4e0>
   10ca8: 83 37 8b 00  	ld	a5, 0x8(s6)
   10cac: ad bb        	j	0x10a26 <_malloc_r+0x258>
   10cae: 93 05 04 01  	addi	a1, s0, 0x10
   10cb2: 4a 85        	mv	a0, s2
   10cb4: ef 10 e0 08  	jal	0x11d42 <_free_r>
   10cb8: 03 bb 09 01  	ld	s6, 0x10(s3)
   10cbc: 03 a7 0b 00  	lw	a4, 0x0(s7)
   10cc0: 83 37 8b 00  	ld	a5, 0x8(s6)
   10cc4: 8d b3        	j	0x10a26 <_malloc_r+0x258>
   10cc6: 13 0a 0a 02  	addi	s4, s4, 0x20
   10cca: 11 bb        	j	0x109de <_malloc_r+0x210>
   10ccc: 9b d6 26 40  	sraiw	a3, a3, 0x2
   10cd0: 85 47        	li	a5, 0x1
   10cd2: b3 97 d7 00  	sll	a5, a5, a3
   10cd6: 5d 8d        	or	a0, a0, a5
   10cd8: 23 b4 a9 00  	sd	a0, 0x8(s3)
   10cdc: e5 bb        	j	0x10ad4 <_malloc_r+0x306>
   10cde: 33 0c 4b 01  	add	s8, s6, s4
   10ce2: 33 0c 80 41  	neg	s8, s8
   10ce6: 52 1c        	slli	s8, s8, 0x34
   10ce8: 13 5c 4c 03  	srli	s8, s8, 0x34
   10cec: e2 85        	mv	a1, s8
   10cee: 4a 85        	mv	a0, s2
   10cf0: ef 00 d0 32  	jal	0x1181c <_sbrk_r>
   10cf4: fd 57        	li	a5, -0x1
   10cf6: 81 46        	li	a3, 0x0
   10cf8: e3 14 f5 f6  	bne	a0, a5, 0x10c60 <_malloc_r+0x492>
   10cfc: 85 bf        	j	0x10c6c <_malloc_r+0x49e>
   10cfe: e2 6b        	ld	s7, 0x18(sp)
   10d00: 85 47        	li	a5, 0x1
   10d02: 23 34 fb 00  	sd	a5, 0x8(s6)
   10d06: 4a 85        	mv	a0, s2
   10d08: ef 00 80 0d  	jal	0x10de0 <__malloc_unlock>
   10d0c: 01 45        	li	a0, 0x0
   10d0e: 42 7a        	ld	s4, 0x30(sp)
   10d10: a2 7a        	ld	s5, 0x28(sp)
   10d12: 02 7b        	ld	s6, 0x20(sp)
   10d14: 42 6c        	ld	s8, 0x10(sp)
   10d16: a2 6c        	ld	s9, 0x8(sp)
   10d18: 29 be        	j	0x10832 <_malloc_r+0x64>
   10d1a: 93 06 40 05  	li	a3, 0x54
   10d1e: 63 e1 e6 04  	bltu	a3, a4, 0x10d60 <_malloc_r+0x592>
   10d22: 13 d7 c7 00  	srli	a4, a5, 0xc
   10d26: 1b 06 f7 06  	addiw	a2, a4, 0x6f
   10d2a: 1b 16 16 00  	slliw	a2, a2, 0x1
   10d2e: 9b 06 e7 06  	addiw	a3, a4, 0x6e
   10d32: 0e 06        	slli	a2, a2, 0x3
   10d34: 51 b3        	j	0x10ab8 <_malloc_r+0x2ea>
   10d36: 13 07 40 15  	li	a4, 0x154
   10d3a: 63 61 f7 04  	bltu	a4, a5, 0x10d7c <_malloc_r+0x5ae>
   10d3e: 93 d7 f4 00  	srli	a5, s1, 0xf
   10d42: 9b 85 87 07  	addiw	a1, a5, 0x78
   10d46: 1b 96 15 00  	slliw	a2, a1, 0x1
   10d4a: 1b 88 77 07  	addiw	a6, a5, 0x77
   10d4e: 0e 06        	slli	a2, a2, 0x3
   10d50: 3d b6        	j	0x1087e <_malloc_r+0xb0>
   10d52: 03 b4 09 01  	ld	s0, 0x10(s3)
   10d56: 1c 64        	ld	a5, 0x8(s0)
   10d58: ed b1        	j	0x10a42 <_malloc_r+0x274>
   10d5a: 23 bc 61 87  	sd	s6, -0x788(gp)
   10d5e: c9 bd        	j	0x10c30 <_malloc_r+0x462>
   10d60: 93 06 40 15  	li	a3, 0x154
   10d64: 63 e0 e6 04  	bltu	a3, a4, 0x10da4 <_malloc_r+0x5d6>
   10d68: 13 d7 f7 00  	srli	a4, a5, 0xf
   10d6c: 1b 06 87 07  	addiw	a2, a4, 0x78
   10d70: 1b 16 16 00  	slliw	a2, a2, 0x1
   10d74: 9b 06 77 07  	addiw	a3, a4, 0x77
   10d78: 0e 06        	slli	a2, a2, 0x3
   10d7a: 3d bb        	j	0x10ab8 <_malloc_r+0x2ea>
   10d7c: 13 07 40 55  	li	a4, 0x554
   10d80: 63 60 f7 04  	bltu	a4, a5, 0x10dc0 <_malloc_r+0x5f2>
   10d84: 93 d7 24 01  	srli	a5, s1, 0x12
   10d88: 9b 85 d7 07  	addiw	a1, a5, 0x7d
   10d8c: 1b 96 15 00  	slliw	a2, a1, 0x1
   10d90: 1b 88 c7 07  	addiw	a6, a5, 0x7c
   10d94: 0e 06        	slli	a2, a2, 0x3
   10d96: e5 b4        	j	0x1087e <_malloc_r+0xb0>
   10d98: c1 1c        	addi	s9, s9, -0x10
   10d9a: 66 9a        	add	s4, s4, s9
   10d9c: 33 0a 6a 41  	sub	s4, s4, s6
   10da0: 81 46        	li	a3, 0x0
   10da2: e9 b5        	j	0x10c6c <_malloc_r+0x49e>
   10da4: 93 06 40 55  	li	a3, 0x554
   10da8: 63 e3 e6 02  	bltu	a3, a4, 0x10dce <_malloc_r+0x600>
   10dac: 13 d7 27 01  	srli	a4, a5, 0x12
   10db0: 1b 06 d7 07  	addiw	a2, a4, 0x7d
   10db4: 1b 16 16 00  	slliw	a2, a2, 0x1
   10db8: 9b 06 c7 07  	addiw	a3, a4, 0x7c
   10dbc: 0e 06        	slli	a2, a2, 0x3
   10dbe: ed b9        	j	0x10ab8 <_malloc_r+0x2ea>
   10dc0: 13 06 00 7f  	li	a2, 0x7f0
   10dc4: 93 05 f0 07  	li	a1, 0x7f
   10dc8: 13 08 e0 07  	li	a6, 0x7e
   10dcc: 4d bc        	j	0x1087e <_malloc_r+0xb0>
   10dce: 13 06 00 7f  	li	a2, 0x7f0
   10dd2: 93 06 e0 07  	li	a3, 0x7e
   10dd6: cd b1        	j	0x10ab8 <_malloc_r+0x2ea>
   10dd8: 83 b7 89 00  	ld	a5, 0x8(s3)
   10ddc: 39 b5        	j	0x10bea <_malloc_r+0x41c>

0000000000010dde <__malloc_lock>:
   10dde: 82 80        	ret

0000000000010de0 <__malloc_unlock>:
   10de0: 82 80        	ret

0000000000010de2 <realloc>:
   10de2: aa 87        	mv	a5, a0
   10de4: 03 b5 81 88  	ld	a0, -0x778(gp)
   10de8: 2e 86        	mv	a2, a1
   10dea: be 85        	mv	a1, a5
   10dec: 09 a0        	j	0x10dee <_realloc_r>

0000000000010dee <_realloc_r>:
   10dee: 5d 71        	addi	sp, sp, -0x50
   10df0: 4a f8        	sd	s2, 0x30(sp)
   10df2: 86 e4        	sd	ra, 0x48(sp)
   10df4: 32 89        	mv	s2, a2
   10df6: 63 84 05 16  	beqz	a1, 0x10f5e <_realloc_r+0x170>
   10dfa: a2 e0        	sd	s0, 0x40(sp)
   10dfc: 26 fc        	sd	s1, 0x38(sp)
   10dfe: 2e 84        	mv	s0, a1
   10e00: 4e f4        	sd	s3, 0x28(sp)
   10e02: 52 f0        	sd	s4, 0x20(sp)
   10e04: 56 ec        	sd	s5, 0x18(sp)
   10e06: aa 89        	mv	s3, a0
   10e08: ef f0 7f fd  	jal	0x10dde <__malloc_lock>
   10e0c: 83 37 84 ff  	ld	a5, -0x8(s0)
   10e10: 93 04 79 01  	addi	s1, s2, 0x17
   10e14: 13 07 e0 02  	li	a4, 0x2e
   10e18: 93 0a 04 ff  	addi	s5, s0, -0x10
   10e1c: 13 fa c7 ff  	andi	s4, a5, -0x4
   10e20: 63 74 97 0c  	bgeu	a4, s1, 0x10ee8 <_realloc_r+0xfa>
   10e24: 37 07 00 80  	lui	a4, 0x80000
   10e28: c1 98        	andi	s1, s1, -0x10
   10e2a: 13 47 f7 ff  	not	a4, a4
   10e2e: 63 61 97 0c  	bltu	a4, s1, 0x10ef0 <_realloc_r+0x102>
   10e32: 63 ef 24 0b  	bltu	s1, s2, 0x10ef0 <_realloc_r+0x102>
   10e36: 63 58 9a 0c  	bge	s4, s1, 0x10f06 <_realloc_r+0x118>
   10e3a: 37 17 02 00  	lui	a4, 0x21
   10e3e: 62 e0        	sd	s8, 0x0(sp)
   10e40: 13 0c 87 5b  	addi	s8, a4, 0x5b8
   10e44: 03 36 0c 01  	ld	a2, 0x10(s8)
   10e48: b3 86 4a 01  	add	a3, s5, s4
   10e4c: 98 66        	ld	a4, 0x8(a3)
   10e4e: 63 0f d6 12  	beq	a2, a3, 0x10f8c <_realloc_r+0x19e>
   10e52: 13 76 e7 ff  	andi	a2, a4, -0x2
   10e56: 36 96        	add	a2, a2, a3
   10e58: 10 66        	ld	a2, 0x8(a2)
   10e5a: 05 8a        	andi	a2, a2, 0x1
   10e5c: 6d e6        	bnez	a2, 0x10f46 <_realloc_r+0x158>
   10e5e: 71 9b        	andi	a4, a4, -0x4
   10e60: 33 06 ea 00  	add	a2, s4, a4
   10e64: 63 5b 96 08  	bge	a2, s1, 0x10efa <_realloc_r+0x10c>
   10e68: 85 8b        	andi	a5, a5, 0x1
   10e6a: 8d e7        	bnez	a5, 0x10e94 <_realloc_r+0xa6>
   10e6c: 5e e4        	sd	s7, 0x8(sp)
   10e6e: 83 3b 04 ff  	ld	s7, -0x10(s0)
   10e72: 5a e8        	sd	s6, 0x10(sp)
   10e74: b3 8b 7a 41  	sub	s7, s5, s7
   10e78: 83 b7 8b 00  	ld	a5, 0x8(s7)
   10e7c: f1 9b        	andi	a5, a5, -0x4
   10e7e: 3e 97        	add	a4, a4, a5
   10e80: 33 0b 47 01  	add	s6, a4, s4
   10e84: 63 55 9b 24  	bge	s6, s1, 0x110ce <_realloc_r+0x2e0>
   10e88: 33 0b fa 00  	add	s6, s4, a5
   10e8c: 63 57 9b 1c  	bge	s6, s1, 0x1105a <_realloc_r+0x26c>
   10e90: 42 6b        	ld	s6, 0x10(sp)
   10e92: a2 6b        	ld	s7, 0x8(sp)
   10e94: ca 85        	mv	a1, s2
   10e96: 4e 85        	mv	a0, s3
   10e98: ef f0 7f 93  	jal	0x107ce <_malloc_r>
   10e9c: 2a 89        	mv	s2, a0
   10e9e: 63 08 05 2e  	beqz	a0, 0x1118e <_realloc_r+0x3a0>
   10ea2: 83 37 84 ff  	ld	a5, -0x8(s0)
   10ea6: 13 07 05 ff  	addi	a4, a0, -0x10
   10eaa: f9 9b        	andi	a5, a5, -0x2
   10eac: d6 97        	add	a5, a5, s5
   10eae: 63 80 e7 1a  	beq	a5, a4, 0x1104e <_realloc_r+0x260>
   10eb2: 13 06 8a ff  	addi	a2, s4, -0x8
   10eb6: 93 07 80 04  	li	a5, 0x48
   10eba: 63 e6 c7 20  	bltu	a5, a2, 0x110c6 <_realloc_r+0x2d8>
   10ebe: 13 07 70 02  	li	a4, 0x27
   10ec2: 63 69 c7 16  	bltu	a4, a2, 0x11034 <_realloc_r+0x246>
   10ec6: aa 87        	mv	a5, a0
   10ec8: 22 87        	mv	a4, s0
   10eca: 14 63        	ld	a3, 0x0(a4)
   10ecc: 94 e3        	sd	a3, 0x0(a5)
   10ece: 14 67        	ld	a3, 0x8(a4)
   10ed0: 94 e7        	sd	a3, 0x8(a5)
   10ed2: 18 6b        	ld	a4, 0x10(a4)
   10ed4: 98 eb        	sd	a4, 0x10(a5)
   10ed6: a2 85        	mv	a1, s0
   10ed8: 4e 85        	mv	a0, s3
   10eda: ef 00 90 66  	jal	0x11d42 <_free_r>
   10ede: 4e 85        	mv	a0, s3
   10ee0: ef f0 1f f0  	jal	0x10de0 <__malloc_unlock>
   10ee4: 02 6c        	ld	s8, 0x0(sp)
   10ee6: b1 a0        	j	0x10f32 <_realloc_r+0x144>
   10ee8: 93 04 00 02  	li	s1, 0x20
   10eec: e3 f5 24 f5  	bgeu	s1, s2, 0x10e36 <_realloc_r+0x48>
   10ef0: b1 47        	li	a5, 0xc
   10ef2: 23 a0 f9 00  	sw	a5, 0x0(s3)
   10ef6: 01 49        	li	s2, 0x0
   10ef8: 2d a8        	j	0x10f32 <_realloc_r+0x144>
   10efa: 9c 6e        	ld	a5, 0x18(a3)
   10efc: 98 6a        	ld	a4, 0x10(a3)
   10efe: 02 6c        	ld	s8, 0x0(sp)
   10f00: 32 8a        	mv	s4, a2
   10f02: 1c ef        	sd	a5, 0x18(a4)
   10f04: 98 eb        	sd	a4, 0x10(a5)
   10f06: 83 b7 8a 00  	ld	a5, 0x8(s5)
   10f0a: b3 06 9a 40  	sub	a3, s4, s1
   10f0e: 7d 46        	li	a2, 0x1f
   10f10: 85 8b        	andi	a5, a5, 0x1
   10f12: 33 87 4a 01  	add	a4, s5, s4
   10f16: 63 6a d6 04  	bltu	a2, a3, 0x10f6a <_realloc_r+0x17c>
   10f1a: b3 e7 47 01  	or	a5, a5, s4
   10f1e: 23 b4 fa 00  	sd	a5, 0x8(s5)
   10f22: 1c 67        	ld	a5, 0x8(a4)
   10f24: 93 e7 17 00  	ori	a5, a5, 0x1
   10f28: 1c e7        	sd	a5, 0x8(a4)
   10f2a: 4e 85        	mv	a0, s3
   10f2c: ef f0 5f eb  	jal	0x10de0 <__malloc_unlock>
   10f30: 22 89        	mv	s2, s0
   10f32: 06 64        	ld	s0, 0x40(sp)
   10f34: a6 60        	ld	ra, 0x48(sp)
   10f36: e2 74        	ld	s1, 0x38(sp)
   10f38: a2 79        	ld	s3, 0x28(sp)
   10f3a: 02 7a        	ld	s4, 0x20(sp)
   10f3c: e2 6a        	ld	s5, 0x18(sp)
   10f3e: 4a 85        	mv	a0, s2
   10f40: 42 79        	ld	s2, 0x30(sp)
   10f42: 61 61        	addi	sp, sp, 0x50
   10f44: 82 80        	ret
   10f46: 85 8b        	andi	a5, a5, 0x1
   10f48: b1 f7        	bnez	a5, 0x10e94 <_realloc_r+0xa6>
   10f4a: 5e e4        	sd	s7, 0x8(sp)
   10f4c: 83 3b 04 ff  	ld	s7, -0x10(s0)
   10f50: 5a e8        	sd	s6, 0x10(sp)
   10f52: b3 8b 7a 41  	sub	s7, s5, s7
   10f56: 83 b7 8b 00  	ld	a5, 0x8(s7)
   10f5a: f1 9b        	andi	a5, a5, -0x4
   10f5c: 35 b7        	j	0x10e88 <_realloc_r+0x9a>
   10f5e: a6 60        	ld	ra, 0x48(sp)
   10f60: 42 79        	ld	s2, 0x30(sp)
   10f62: b2 85        	mv	a1, a2
   10f64: 61 61        	addi	sp, sp, 0x50
   10f66: 6f f0 9f 86  	j	0x107ce <_malloc_r>
   10f6a: c5 8f        	or	a5, a5, s1
   10f6c: 23 b4 fa 00  	sd	a5, 0x8(s5)
   10f70: b3 85 9a 00  	add	a1, s5, s1
   10f74: 93 e6 16 00  	ori	a3, a3, 0x1
   10f78: 94 e5        	sd	a3, 0x8(a1)
   10f7a: 1c 67        	ld	a5, 0x8(a4)
   10f7c: c1 05        	addi	a1, a1, 0x10
   10f7e: 4e 85        	mv	a0, s3
   10f80: 93 e7 17 00  	ori	a5, a5, 0x1
   10f84: 1c e7        	sd	a5, 0x8(a4)
   10f86: ef 00 d0 5b  	jal	0x11d42 <_free_r>
   10f8a: 45 b7        	j	0x10f2a <_realloc_r+0x13c>
   10f8c: 71 9b        	andi	a4, a4, -0x4
   10f8e: b3 06 47 01  	add	a3, a4, s4
   10f92: 13 86 04 02  	addi	a2, s1, 0x20
   10f96: 63 d3 c6 1c  	bge	a3, a2, 0x1115c <_realloc_r+0x36e>
   10f9a: 85 8b        	andi	a5, a5, 0x1
   10f9c: e3 9c 07 ee  	bnez	a5, 0x10e94 <_realloc_r+0xa6>
   10fa0: 5e e4        	sd	s7, 0x8(sp)
   10fa2: 83 3b 04 ff  	ld	s7, -0x10(s0)
   10fa6: 5a e8        	sd	s6, 0x10(sp)
   10fa8: b3 8b 7a 41  	sub	s7, s5, s7
   10fac: 83 b7 8b 00  	ld	a5, 0x8(s7)
   10fb0: f1 9b        	andi	a5, a5, -0x4
   10fb2: 3e 97        	add	a4, a4, a5
   10fb4: 33 0b 47 01  	add	s6, a4, s4
   10fb8: e3 48 cb ec  	blt	s6, a2, 0x10e88 <_realloc_r+0x9a>
   10fbc: 83 b7 8b 01  	ld	a5, 0x18(s7)
   10fc0: 03 b7 0b 01  	ld	a4, 0x10(s7)
   10fc4: 13 06 8a ff  	addi	a2, s4, -0x8
   10fc8: 93 06 80 04  	li	a3, 0x48
   10fcc: 1c ef        	sd	a5, 0x18(a4)
   10fce: 98 eb        	sd	a4, 0x10(a5)
   10fd0: 13 89 0b 01  	addi	s2, s7, 0x10
   10fd4: 63 ec c6 1c  	bltu	a3, a2, 0x111ac <_realloc_r+0x3be>
   10fd8: 13 07 70 02  	li	a4, 0x27
   10fdc: ca 87        	mv	a5, s2
   10fde: 63 7f c7 00  	bgeu	a4, a2, 0x10ffc <_realloc_r+0x20e>
   10fe2: 18 60        	ld	a4, 0x0(s0)
   10fe4: 93 07 70 03  	li	a5, 0x37
   10fe8: 23 b8 eb 00  	sd	a4, 0x10(s7)
   10fec: 18 64        	ld	a4, 0x8(s0)
   10fee: 23 bc eb 00  	sd	a4, 0x18(s7)
   10ff2: 63 e2 c7 1c  	bltu	a5, a2, 0x111b6 <_realloc_r+0x3c8>
   10ff6: 41 04        	addi	s0, s0, 0x10
   10ff8: 93 87 0b 02  	addi	a5, s7, 0x20
   10ffc: 18 60        	ld	a4, 0x0(s0)
   10ffe: 98 e3        	sd	a4, 0x0(a5)
   11000: 18 64        	ld	a4, 0x8(s0)
   11002: 98 e7        	sd	a4, 0x8(a5)
   11004: 18 68        	ld	a4, 0x10(s0)
   11006: 98 eb        	sd	a4, 0x10(a5)
   11008: 33 87 9b 00  	add	a4, s7, s1
   1100c: b3 07 9b 40  	sub	a5, s6, s1
   11010: 23 38 ec 00  	sd	a4, 0x10(s8)
   11014: 93 e7 17 00  	ori	a5, a5, 0x1
   11018: 1c e7        	sd	a5, 0x8(a4)
   1101a: 83 b7 8b 00  	ld	a5, 0x8(s7)
   1101e: 4e 85        	mv	a0, s3
   11020: 85 8b        	andi	a5, a5, 0x1
   11022: c5 8f        	or	a5, a5, s1
   11024: 23 b4 fb 00  	sd	a5, 0x8(s7)
   11028: ef f0 9f db  	jal	0x10de0 <__malloc_unlock>
   1102c: 42 6b        	ld	s6, 0x10(sp)
   1102e: a2 6b        	ld	s7, 0x8(sp)
   11030: 02 6c        	ld	s8, 0x0(sp)
   11032: 01 b7        	j	0x10f32 <_realloc_r+0x144>
   11034: 14 60        	ld	a3, 0x0(s0)
   11036: 13 07 70 03  	li	a4, 0x37
   1103a: 14 e1        	sd	a3, 0x0(a0)
   1103c: 14 64        	ld	a3, 0x8(s0)
   1103e: 14 e5        	sd	a3, 0x8(a0)
   11040: 63 63 c7 10  	bltu	a4, a2, 0x11146 <_realloc_r+0x358>
   11044: 13 07 04 01  	addi	a4, s0, 0x10
   11048: 93 07 05 01  	addi	a5, a0, 0x10
   1104c: bd bd        	j	0x10eca <_realloc_r+0xdc>
   1104e: 83 37 85 ff  	ld	a5, -0x8(a0)
   11052: 02 6c        	ld	s8, 0x0(sp)
   11054: f1 9b        	andi	a5, a5, -0x4
   11056: 3e 9a        	add	s4, s4, a5
   11058: 7d b5        	j	0x10f06 <_realloc_r+0x118>
   1105a: 83 b7 8b 01  	ld	a5, 0x18(s7)
   1105e: 03 b7 0b 01  	ld	a4, 0x10(s7)
   11062: 13 06 8a ff  	addi	a2, s4, -0x8
   11066: 93 06 80 04  	li	a3, 0x48
   1106a: 1c ef        	sd	a5, 0x18(a4)
   1106c: 98 eb        	sd	a4, 0x10(a5)
   1106e: 13 89 0b 01  	addi	s2, s7, 0x10
   11072: 63 e5 c6 0c  	bltu	a3, a2, 0x1113c <_realloc_r+0x34e>
   11076: 13 07 70 02  	li	a4, 0x27
   1107a: ca 87        	mv	a5, s2
   1107c: 63 78 c7 02  	bgeu	a4, a2, 0x110ac <_realloc_r+0x2be>
   11080: 18 60        	ld	a4, 0x0(s0)
   11082: 93 07 70 03  	li	a5, 0x37
   11086: 23 b8 eb 00  	sd	a4, 0x10(s7)
   1108a: 18 64        	ld	a4, 0x8(s0)
   1108c: 23 bc eb 00  	sd	a4, 0x18(s7)
   11090: 63 fb c7 0e  	bgeu	a5, a2, 0x11186 <_realloc_r+0x398>
   11094: 1c 68        	ld	a5, 0x10(s0)
   11096: 23 b0 fb 02  	sd	a5, 0x20(s7)
   1109a: 1c 6c        	ld	a5, 0x18(s0)
   1109c: 23 b4 fb 02  	sd	a5, 0x28(s7)
   110a0: 63 02 d6 08  	beq	a2, a3, 0x11124 <_realloc_r+0x336>
   110a4: 13 04 04 02  	addi	s0, s0, 0x20
   110a8: 93 87 0b 03  	addi	a5, s7, 0x30
   110ac: 18 60        	ld	a4, 0x0(s0)
   110ae: 98 e3        	sd	a4, 0x0(a5)
   110b0: 18 64        	ld	a4, 0x8(s0)
   110b2: 98 e7        	sd	a4, 0x8(a5)
   110b4: 18 68        	ld	a4, 0x10(s0)
   110b6: 98 eb        	sd	a4, 0x10(a5)
   110b8: 5a 8a        	mv	s4, s6
   110ba: de 8a        	mv	s5, s7
   110bc: 42 6b        	ld	s6, 0x10(sp)
   110be: a2 6b        	ld	s7, 0x8(sp)
   110c0: 02 6c        	ld	s8, 0x0(sp)
   110c2: 4a 84        	mv	s0, s2
   110c4: 89 b5        	j	0x10f06 <_realloc_r+0x118>
   110c6: a2 85        	mv	a1, s0
   110c8: ef 00 90 03  	jal	0x11900 <memmove>
   110cc: 29 b5        	j	0x10ed6 <_realloc_r+0xe8>
   110ce: 9c 6e        	ld	a5, 0x18(a3)
   110d0: 98 6a        	ld	a4, 0x10(a3)
   110d2: 13 06 8a ff  	addi	a2, s4, -0x8
   110d6: 93 06 80 04  	li	a3, 0x48
   110da: 1c ef        	sd	a5, 0x18(a4)
   110dc: 98 eb        	sd	a4, 0x10(a5)
   110de: 03 b7 0b 01  	ld	a4, 0x10(s7)
   110e2: 83 b7 8b 01  	ld	a5, 0x18(s7)
   110e6: 13 89 0b 01  	addi	s2, s7, 0x10
   110ea: 1c ef        	sd	a5, 0x18(a4)
   110ec: 98 eb        	sd	a4, 0x10(a5)
   110ee: 63 e7 c6 04  	bltu	a3, a2, 0x1113c <_realloc_r+0x34e>
   110f2: 13 07 70 02  	li	a4, 0x27
   110f6: ca 87        	mv	a5, s2
   110f8: e3 7a c7 fa  	bgeu	a4, a2, 0x110ac <_realloc_r+0x2be>
   110fc: 18 60        	ld	a4, 0x0(s0)
   110fe: 93 07 70 03  	li	a5, 0x37
   11102: 23 b8 eb 00  	sd	a4, 0x10(s7)
   11106: 18 64        	ld	a4, 0x8(s0)
   11108: 23 bc eb 00  	sd	a4, 0x18(s7)
   1110c: 63 fd c7 06  	bgeu	a5, a2, 0x11186 <_realloc_r+0x398>
   11110: 18 68        	ld	a4, 0x10(s0)
   11112: 93 07 80 04  	li	a5, 0x48
   11116: 23 b0 eb 02  	sd	a4, 0x20(s7)
   1111a: 18 6c        	ld	a4, 0x18(s0)
   1111c: 23 b4 eb 02  	sd	a4, 0x28(s7)
   11120: e3 12 f6 f8  	bne	a2, a5, 0x110a4 <_realloc_r+0x2b6>
   11124: 18 70        	ld	a4, 0x20(s0)
   11126: 93 87 0b 04  	addi	a5, s7, 0x40
   1112a: 13 04 04 03  	addi	s0, s0, 0x30
   1112e: 23 b8 eb 02  	sd	a4, 0x30(s7)
   11132: 03 37 84 ff  	ld	a4, -0x8(s0)
   11136: 23 bc eb 02  	sd	a4, 0x38(s7)
   1113a: 8d bf        	j	0x110ac <_realloc_r+0x2be>
   1113c: a2 85        	mv	a1, s0
   1113e: 4a 85        	mv	a0, s2
   11140: ef 00 00 7c  	jal	0x11900 <memmove>
   11144: 95 bf        	j	0x110b8 <_realloc_r+0x2ca>
   11146: 18 68        	ld	a4, 0x10(s0)
   11148: 18 e9        	sd	a4, 0x10(a0)
   1114a: 18 6c        	ld	a4, 0x18(s0)
   1114c: 18 ed        	sd	a4, 0x18(a0)
   1114e: 63 06 f6 04  	beq	a2, a5, 0x1119a <_realloc_r+0x3ac>
   11152: 13 07 04 02  	addi	a4, s0, 0x20
   11156: 93 07 05 02  	addi	a5, a0, 0x20
   1115a: 85 bb        	j	0x10eca <_realloc_r+0xdc>
   1115c: a6 9a        	add	s5, s5, s1
   1115e: b3 87 96 40  	sub	a5, a3, s1
   11162: 23 38 5c 01  	sd	s5, 0x10(s8)
   11166: 93 e7 17 00  	ori	a5, a5, 0x1
   1116a: 23 b4 fa 00  	sd	a5, 0x8(s5)
   1116e: 83 37 84 ff  	ld	a5, -0x8(s0)
   11172: 4e 85        	mv	a0, s3
   11174: 22 89        	mv	s2, s0
   11176: 85 8b        	andi	a5, a5, 0x1
   11178: c5 8f        	or	a5, a5, s1
   1117a: 23 3c f4 fe  	sd	a5, -0x8(s0)
   1117e: ef f0 3f c6  	jal	0x10de0 <__malloc_unlock>
   11182: 02 6c        	ld	s8, 0x0(sp)
   11184: 7d b3        	j	0x10f32 <_realloc_r+0x144>
   11186: 41 04        	addi	s0, s0, 0x10
   11188: 93 87 0b 02  	addi	a5, s7, 0x20
   1118c: 05 b7        	j	0x110ac <_realloc_r+0x2be>
   1118e: 4e 85        	mv	a0, s3
   11190: ef f0 1f c5  	jal	0x10de0 <__malloc_unlock>
   11194: 01 49        	li	s2, 0x0
   11196: 02 6c        	ld	s8, 0x0(sp)
   11198: 69 bb        	j	0x10f32 <_realloc_r+0x144>
   1119a: 14 70        	ld	a3, 0x20(s0)
   1119c: 13 07 04 03  	addi	a4, s0, 0x30
   111a0: 93 07 05 03  	addi	a5, a0, 0x30
   111a4: 14 f1        	sd	a3, 0x20(a0)
   111a6: 14 74        	ld	a3, 0x28(s0)
   111a8: 14 f5        	sd	a3, 0x28(a0)
   111aa: 05 b3        	j	0x10eca <_realloc_r+0xdc>
   111ac: a2 85        	mv	a1, s0
   111ae: 4a 85        	mv	a0, s2
   111b0: ef 00 00 75  	jal	0x11900 <memmove>
   111b4: 91 bd        	j	0x11008 <_realloc_r+0x21a>
   111b6: 1c 68        	ld	a5, 0x10(s0)
   111b8: 23 b0 fb 02  	sd	a5, 0x20(s7)
   111bc: 1c 6c        	ld	a5, 0x18(s0)
   111be: 23 b4 fb 02  	sd	a5, 0x28(s7)
   111c2: 63 07 d6 00  	beq	a2, a3, 0x111d0 <_realloc_r+0x3e2>
   111c6: 13 04 04 02  	addi	s0, s0, 0x20
   111ca: 93 87 0b 03  	addi	a5, s7, 0x30
   111ce: 3d b5        	j	0x10ffc <_realloc_r+0x20e>
   111d0: 18 70        	ld	a4, 0x20(s0)
   111d2: 93 87 0b 04  	addi	a5, s7, 0x40
   111d6: 13 04 04 03  	addi	s0, s0, 0x30
   111da: 23 b8 eb 02  	sd	a4, 0x30(s7)
   111de: 03 37 84 ff  	ld	a4, -0x8(s0)
   111e2: 23 bc eb 02  	sd	a4, 0x38(s7)
   111e6: 19 bd        	j	0x10ffc <_realloc_r+0x20e>

00000000000111e8 <__fp_lock>:
   111e8: 01 45        	li	a0, 0x0
   111ea: 82 80        	ret

00000000000111ec <stdio_exit_handler>:
   111ec: 37 26 02 00  	lui	a2, 0x22
   111f0: d5 65        	lui	a1, 0x15
   111f2: 37 25 02 00  	lui	a0, 0x22
   111f6: 13 06 86 dc  	addi	a2, a2, -0x238
   111fa: 93 85 a5 9f  	addi	a1, a1, -0x606
   111fe: 13 05 05 de  	addi	a0, a0, -0x220
   11202: 41 a4        	j	0x11482 <_fwalk_sglue>

0000000000011204 <cleanup_stdio>:
   11204: 0c 65        	ld	a1, 0x8(a0)
   11206: 41 11        	addi	sp, sp, -0x10
   11208: b7 37 02 00  	lui	a5, 0x23
   1120c: 22 e0        	sd	s0, 0x0(sp)
   1120e: 06 e4        	sd	ra, 0x8(sp)
   11210: 93 87 87 65  	addi	a5, a5, 0x658
   11214: 2a 84        	mv	s0, a0
   11216: 63 84 f5 00  	beq	a1, a5, 0x1121e <cleanup_stdio+0x1a>
   1121a: ef 30 00 7e  	jal	0x149fa <_fclose_r>
   1121e: 0c 68        	ld	a1, 0x10(s0)
   11220: b7 37 02 00  	lui	a5, 0x23
   11224: 93 87 87 70  	addi	a5, a5, 0x708
   11228: 63 85 f5 00  	beq	a1, a5, 0x11232 <cleanup_stdio+0x2e>
   1122c: 22 85        	mv	a0, s0
   1122e: ef 30 c0 7c  	jal	0x149fa <_fclose_r>
   11232: 0c 6c        	ld	a1, 0x18(s0)
   11234: b7 37 02 00  	lui	a5, 0x23
   11238: 93 87 87 7b  	addi	a5, a5, 0x7b8
   1123c: 63 88 f5 00  	beq	a1, a5, 0x1124c <cleanup_stdio+0x48>
   11240: 22 85        	mv	a0, s0
   11242: 02 64        	ld	s0, 0x0(sp)
   11244: a2 60        	ld	ra, 0x8(sp)
   11246: 41 01        	addi	sp, sp, 0x10
   11248: 6f 30 20 7b  	j	0x149fa <_fclose_r>
   1124c: a2 60        	ld	ra, 0x8(sp)
   1124e: 02 64        	ld	s0, 0x0(sp)
   11250: 41 01        	addi	sp, sp, 0x10
   11252: 82 80        	ret

0000000000011254 <__fp_unlock>:
   11254: 01 45        	li	a0, 0x0
   11256: 82 80        	ret

0000000000011258 <global_stdio_init.part.0>:
   11258: 79 71        	addi	sp, sp, -0x30
   1125a: c5 67        	lui	a5, 0x11
   1125c: 22 f0        	sd	s0, 0x20(sp)
   1125e: 93 87 c7 1e  	addi	a5, a5, 0x1ec
   11262: 37 34 02 00  	lui	s0, 0x23
   11266: 37 35 02 00  	lui	a0, 0x23
   1126a: 13 04 84 65  	addi	s0, s0, 0x658
   1126e: 06 f4        	sd	ra, 0x28(sp)
   11270: 26 ec        	sd	s1, 0x18(sp)
   11272: 4a e8        	sd	s2, 0x10(sp)
   11274: 4e e4        	sd	s3, 0x8(sp)
   11276: 52 e0        	sd	s4, 0x0(sp)
   11278: 23 b8 f1 8e  	sd	a5, -0x710(gp)
   1127c: 21 46        	li	a2, 0x8
   1127e: 91 47        	li	a5, 0x4
   11280: 81 45        	li	a1, 0x0
   11282: 13 05 c5 6f  	addi	a0, a0, 0x6fc
   11286: 1c c8        	sw	a5, 0x10(s0)
   11288: 23 30 04 00  	sd	zero, 0x0(s0)
   1128c: 23 34 04 00  	sd	zero, 0x8(s0)
   11290: 23 26 04 0a  	sw	zero, 0xac(s0)
   11294: 23 3c 04 00  	sd	zero, 0x18(s0)
   11298: 23 20 04 02  	sw	zero, 0x20(s0)
   1129c: 23 24 04 02  	sw	zero, 0x28(s0)
   112a0: ef 00 20 73  	jal	0x119d2 <memset>
   112a4: c1 67        	lui	a5, 0x10
   112a6: 45 6a        	lui	s4, 0x11
   112a8: c5 69        	lui	s3, 0x11
   112aa: 45 69        	lui	s2, 0x11
   112ac: c5 64        	lui	s1, 0x11
   112ae: 37 35 02 00  	lui	a0, 0x23
   112b2: 13 0a 6a 56  	addi	s4, s4, 0x566
   112b6: 93 89 29 5a  	addi	s3, s3, 0x5a2
   112ba: 13 09 49 5f  	addi	s2, s2, 0x5f4
   112be: 93 84 64 64  	addi	s1, s1, 0x646
   112c2: a5 07        	addi	a5, a5, 0x9
   112c4: 21 46        	li	a2, 0x8
   112c6: 81 45        	li	a1, 0x0
   112c8: 13 05 c5 7a  	addi	a0, a0, 0x7ac
   112cc: 23 3c 44 03  	sd	s4, 0x38(s0)
   112d0: 23 30 34 05  	sd	s3, 0x40(s0)
   112d4: 23 34 24 05  	sd	s2, 0x48(s0)
   112d8: 24 e8        	sd	s1, 0x50(s0)
   112da: 23 20 f4 0c  	sw	a5, 0xc0(s0)
   112de: 00 f8        	sd	s0, 0x30(s0)
   112e0: 23 38 04 0a  	sd	zero, 0xb0(s0)
   112e4: 23 3c 04 0a  	sd	zero, 0xb8(s0)
   112e8: 23 2e 04 14  	sw	zero, 0x15c(s0)
   112ec: 23 34 04 0c  	sd	zero, 0xc8(s0)
   112f0: 23 28 04 0c  	sw	zero, 0xd0(s0)
   112f4: 23 2c 04 0c  	sw	zero, 0xd8(s0)
   112f8: ef 00 a0 6d  	jal	0x119d2 <memset>
   112fc: b7 07 02 00  	lui	a5, 0x20
   11300: 37 45 02 00  	lui	a0, 0x24
   11304: 37 37 02 00  	lui	a4, 0x23
   11308: c9 07        	addi	a5, a5, 0x12
   1130a: 13 07 87 70  	addi	a4, a4, 0x708
   1130e: 21 46        	li	a2, 0x8
   11310: 81 45        	li	a1, 0x0
   11312: 13 05 c5 85  	addi	a0, a0, -0x7a4
   11316: 23 34 44 0f  	sd	s4, 0xe8(s0)
   1131a: 23 38 34 0f  	sd	s3, 0xf0(s0)
   1131e: 23 3c 24 0f  	sd	s2, 0xf8(s0)
   11322: 23 30 94 10  	sd	s1, 0x100(s0)
   11326: 23 28 f4 16  	sw	a5, 0x170(s0)
   1132a: 78 f0        	sd	a4, 0xe0(s0)
   1132c: 23 30 04 16  	sd	zero, 0x160(s0)
   11330: 23 34 04 16  	sd	zero, 0x168(s0)
   11334: 23 26 04 20  	sw	zero, 0x20c(s0)
   11338: 23 3c 04 16  	sd	zero, 0x178(s0)
   1133c: 23 20 04 18  	sw	zero, 0x180(s0)
   11340: 23 24 04 18  	sw	zero, 0x188(s0)
   11344: ef 00 e0 68  	jal	0x119d2 <memset>
   11348: b7 37 02 00  	lui	a5, 0x23
   1134c: 93 87 87 7b  	addi	a5, a5, 0x7b8
   11350: 23 3c 44 19  	sd	s4, 0x198(s0)
   11354: 23 30 34 1b  	sd	s3, 0x1a0(s0)
   11358: 23 34 24 1b  	sd	s2, 0x1a8(s0)
   1135c: 23 38 94 1a  	sd	s1, 0x1b0(s0)
   11360: a2 70        	ld	ra, 0x28(sp)
   11362: 23 38 f4 18  	sd	a5, 0x190(s0)
   11366: 02 74        	ld	s0, 0x20(sp)
   11368: e2 64        	ld	s1, 0x18(sp)
   1136a: 42 69        	ld	s2, 0x10(sp)
   1136c: a2 69        	ld	s3, 0x8(sp)
   1136e: 02 6a        	ld	s4, 0x0(sp)
   11370: 45 61        	addi	sp, sp, 0x30
   11372: 82 80        	ret

0000000000011374 <__sfp>:
   11374: 83 b7 01 8f  	ld	a5, -0x710(gp)
   11378: 79 71        	addi	sp, sp, -0x30
   1137a: 4a e8        	sd	s2, 0x10(sp)
   1137c: 06 f4        	sd	ra, 0x28(sp)
   1137e: 22 f0        	sd	s0, 0x20(sp)
   11380: 26 ec        	sd	s1, 0x18(sp)
   11382: 4e e4        	sd	s3, 0x8(sp)
   11384: 2a 89        	mv	s2, a0
   11386: d5 c7        	beqz	a5, 0x11432 <__sfp+0xbe>
   11388: b7 24 02 00  	lui	s1, 0x22
   1138c: 93 84 84 dc  	addi	s1, s1, -0x238
   11390: 93 09 00 0b  	li	s3, 0xb0
   11394: 98 44        	lw	a4, 0x8(s1)
   11396: 80 68        	ld	s0, 0x10(s1)
   11398: 63 54 e0 06  	blez	a4, 0x11400 <__sfp+0x8c>
   1139c: 02 17        	slli	a4, a4, 0x20
   1139e: 01 93        	srli	a4, a4, 0x20
   113a0: 33 07 37 03  	mul	a4, a4, s3
   113a4: 22 97        	add	a4, a4, s0
   113a6: 29 a0        	j	0x113b0 <__sfp+0x3c>
   113a8: 13 04 04 0b  	addi	s0, s0, 0xb0
   113ac: 63 0a 87 04  	beq	a4, s0, 0x11400 <__sfp+0x8c>
   113b0: 83 17 04 01  	lh	a5, 0x10(s0)
   113b4: f5 fb        	bnez	a5, 0x113a8 <__sfp+0x34>
   113b6: c1 77        	lui	a5, 0xffff0
   113b8: 85 07        	addi	a5, a5, 0x1
   113ba: 1c c8        	sw	a5, 0x10(s0)
   113bc: 23 26 04 0a  	sw	zero, 0xac(s0)
   113c0: 23 30 04 00  	sd	zero, 0x0(s0)
   113c4: 23 34 04 00  	sd	zero, 0x8(s0)
   113c8: 23 3c 04 00  	sd	zero, 0x18(s0)
   113cc: 23 20 04 02  	sw	zero, 0x20(s0)
   113d0: 23 24 04 02  	sw	zero, 0x28(s0)
   113d4: 21 46        	li	a2, 0x8
   113d6: 81 45        	li	a1, 0x0
   113d8: 13 05 44 0a  	addi	a0, s0, 0xa4
   113dc: ef 00 60 5f  	jal	0x119d2 <memset>
   113e0: 23 3c 04 04  	sd	zero, 0x58(s0)
   113e4: 23 20 04 06  	sw	zero, 0x60(s0)
   113e8: 23 3c 04 06  	sd	zero, 0x78(s0)
   113ec: 23 20 04 08  	sw	zero, 0x80(s0)
   113f0: a2 70        	ld	ra, 0x28(sp)
   113f2: 22 85        	mv	a0, s0
   113f4: 02 74        	ld	s0, 0x20(sp)
   113f6: e2 64        	ld	s1, 0x18(sp)
   113f8: 42 69        	ld	s2, 0x10(sp)
   113fa: a2 69        	ld	s3, 0x8(sp)
   113fc: 45 61        	addi	sp, sp, 0x30
   113fe: 82 80        	ret
   11400: 80 60        	ld	s0, 0x0(s1)
   11402: 19 c0        	beqz	s0, 0x11408 <__sfp+0x94>
   11404: a2 84        	mv	s1, s0
   11406: 79 b7        	j	0x11394 <__sfp+0x20>
   11408: 93 05 80 2d  	li	a1, 0x2d8
   1140c: 4a 85        	mv	a0, s2
   1140e: ef f0 0f bc  	jal	0x107ce <_malloc_r>
   11412: 2a 84        	mv	s0, a0
   11414: 15 c1        	beqz	a0, 0x11438 <__sfp+0xc4>
   11416: 61 05        	addi	a0, a0, 0x18
   11418: 91 47        	li	a5, 0x4
   1141a: 23 30 04 00  	sd	zero, 0x0(s0)
   1141e: 1c c4        	sw	a5, 0x8(s0)
   11420: 08 e8        	sd	a0, 0x10(s0)
   11422: 13 06 00 2c  	li	a2, 0x2c0
   11426: 81 45        	li	a1, 0x0
   11428: ef 00 a0 5a  	jal	0x119d2 <memset>
   1142c: 80 e0        	sd	s0, 0x0(s1)
   1142e: a2 84        	mv	s1, s0
   11430: 95 b7        	j	0x11394 <__sfp+0x20>
   11432: ef f0 7f e2  	jal	0x11258 <global_stdio_init.part.0>
   11436: 89 bf        	j	0x11388 <__sfp+0x14>
   11438: 23 b0 04 00  	sd	zero, 0x0(s1)
   1143c: b1 47        	li	a5, 0xc
   1143e: 23 20 f9 00  	sw	a5, 0x0(s2)
   11442: 7d b7        	j	0x113f0 <__sfp+0x7c>

0000000000011444 <__sinit>:
   11444: 3c 65        	ld	a5, 0x48(a0)
   11446: 91 c3        	beqz	a5, 0x1144a <__sinit+0x6>
   11448: 82 80        	ret
   1144a: 03 b7 01 8f  	ld	a4, -0x710(gp)
   1144e: c5 67        	lui	a5, 0x11
   11450: 93 87 47 20  	addi	a5, a5, 0x204
   11454: 3c e5        	sd	a5, 0x48(a0)
   11456: 6d fb        	bnez	a4, 0x11448 <__sinit+0x4>
   11458: 01 b5        	j	0x11258 <global_stdio_init.part.0>

000000000001145a <__sfp_lock_acquire>:
   1145a: 82 80        	ret

000000000001145c <__sfp_lock_release>:
   1145c: 82 80        	ret

000000000001145e <__fp_lock_all>:
   1145e: 37 26 02 00  	lui	a2, 0x22
   11462: c5 65        	lui	a1, 0x11
   11464: 13 06 86 dc  	addi	a2, a2, -0x238
   11468: 93 85 85 1e  	addi	a1, a1, 0x1e8
   1146c: 01 45        	li	a0, 0x0
   1146e: 11 a8        	j	0x11482 <_fwalk_sglue>

0000000000011470 <__fp_unlock_all>:
   11470: 37 26 02 00  	lui	a2, 0x22
   11474: c5 65        	lui	a1, 0x11
   11476: 13 06 86 dc  	addi	a2, a2, -0x238
   1147a: 93 85 45 25  	addi	a1, a1, 0x254
   1147e: 01 45        	li	a0, 0x0
   11480: 09 a0        	j	0x11482 <_fwalk_sglue>

0000000000011482 <_fwalk_sglue>:
   11482: 5d 71        	addi	sp, sp, -0x50
   11484: 4a f8        	sd	s2, 0x30(sp)
   11486: 4e f4        	sd	s3, 0x28(sp)
   11488: 52 f0        	sd	s4, 0x20(sp)
   1148a: 56 ec        	sd	s5, 0x18(sp)
   1148c: 5a e8        	sd	s6, 0x10(sp)
   1148e: 5e e4        	sd	s7, 0x8(sp)
   11490: 62 e0        	sd	s8, 0x0(sp)
   11492: 86 e4        	sd	ra, 0x48(sp)
   11494: a2 e0        	sd	s0, 0x40(sp)
   11496: 26 fc        	sd	s1, 0x38(sp)
   11498: 2a 8a        	mv	s4, a0
   1149a: 2e 8b        	mv	s6, a1
   1149c: b2 89        	mv	s3, a2
   1149e: 01 49        	li	s2, 0x0
   114a0: 93 0b 00 0b  	li	s7, 0xb0
   114a4: 05 4c        	li	s8, 0x1
   114a6: fd 5a        	li	s5, -0x1
   114a8: 83 a4 89 00  	lw	s1, 0x8(s3)
   114ac: 03 b4 09 01  	ld	s0, 0x10(s3)
   114b0: 63 59 90 02  	blez	s1, 0x114e2 <_fwalk_sglue+0x60>
   114b4: 82 14        	slli	s1, s1, 0x20
   114b6: 81 90        	srli	s1, s1, 0x20
   114b8: b3 84 74 03  	mul	s1, s1, s7
   114bc: a2 94        	add	s1, s1, s0
   114be: 83 57 04 01  	lhu	a5, 0x10(s0)
   114c2: 63 7c fc 00  	bgeu	s8, a5, 0x114da <_fwalk_sglue+0x58>
   114c6: 83 17 24 01  	lh	a5, 0x12(s0)
   114ca: a2 85        	mv	a1, s0
   114cc: 52 85        	mv	a0, s4
   114ce: 63 86 57 01  	beq	a5, s5, 0x114da <_fwalk_sglue+0x58>
   114d2: 02 9b        	jalr	s6
   114d4: 33 69 25 01  	or	s2, a0, s2
   114d8: 01 29        	sext.w	s2, s2
   114da: 13 04 04 0b  	addi	s0, s0, 0xb0
   114de: e3 10 94 fe  	bne	s0, s1, 0x114be <_fwalk_sglue+0x3c>
   114e2: 83 b9 09 00  	ld	s3, 0x0(s3)
   114e6: e3 91 09 fc  	bnez	s3, 0x114a8 <_fwalk_sglue+0x26>
   114ea: a6 60        	ld	ra, 0x48(sp)
   114ec: 06 64        	ld	s0, 0x40(sp)
   114ee: e2 74        	ld	s1, 0x38(sp)
   114f0: a2 79        	ld	s3, 0x28(sp)
   114f2: 02 7a        	ld	s4, 0x20(sp)
   114f4: e2 6a        	ld	s5, 0x18(sp)
   114f6: 42 6b        	ld	s6, 0x10(sp)
   114f8: a2 6b        	ld	s7, 0x8(sp)
   114fa: 02 6c        	ld	s8, 0x0(sp)
   114fc: 4a 85        	mv	a0, s2
   114fe: 42 79        	ld	s2, 0x30(sp)
   11500: 61 61        	addi	sp, sp, 0x50
   11502: 82 80        	ret

0000000000011504 <_printf_r>:
   11504: 5d 71        	addi	sp, sp, -0x50
   11506: 32 f0        	sd	a2, 0x20(sp)
   11508: 36 f4        	sd	a3, 0x28(sp)
   1150a: 3a f8        	sd	a4, 0x30(sp)
   1150c: 3e fc        	sd	a5, 0x38(sp)
   1150e: c2 e0        	sd	a6, 0x40(sp)
   11510: c6 e4        	sd	a7, 0x48(sp)
   11512: 2e 86        	mv	a2, a1
   11514: 0c 69        	ld	a1, 0x10(a0)
   11516: 14 10        	addi	a3, sp, 0x20
   11518: 06 ec        	sd	ra, 0x18(sp)
   1151a: 36 e4        	sd	a3, 0x8(sp)
   1151c: ef 00 50 27  	jal	0x11f90 <_vfprintf_r>
   11520: e2 60        	ld	ra, 0x18(sp)
   11522: 61 61        	addi	sp, sp, 0x50
   11524: 82 80        	ret

0000000000011526 <printf>:
   11526: 03 b3 81 88  	ld	t1, -0x778(gp)
   1152a: 1d 71        	addi	sp, sp, -0x60
   1152c: 32 f8        	sd	a2, 0x30(sp)
   1152e: 36 fc        	sd	a3, 0x38(sp)
   11530: 2e f4        	sd	a1, 0x28(sp)
   11532: ba e0        	sd	a4, 0x40(sp)
   11534: be e4        	sd	a5, 0x48(sp)
   11536: c2 e8        	sd	a6, 0x50(sp)
   11538: c6 ec        	sd	a7, 0x58(sp)
   1153a: 83 35 03 01  	ld	a1, 0x10(t1)
   1153e: 34 10        	addi	a3, sp, 0x28
   11540: 2a 86        	mv	a2, a0
   11542: 1a 85        	mv	a0, t1
   11544: 06 ec        	sd	ra, 0x18(sp)
   11546: 36 e4        	sd	a3, 0x8(sp)
   11548: ef 00 90 24  	jal	0x11f90 <_vfprintf_r>
   1154c: e2 60        	ld	ra, 0x18(sp)
   1154e: 25 61        	addi	sp, sp, 0x60
   11550: 82 80        	ret

0000000000011552 <_putchar_r>:
   11552: 10 69        	ld	a2, 0x10(a0)
   11554: 6f 30 b0 2d  	j	0x1502e <_putc_r>

0000000000011558 <putchar>:
   11558: 83 b7 81 88  	ld	a5, -0x778(gp)
   1155c: aa 85        	mv	a1, a0
   1155e: 90 6b        	ld	a2, 0x10(a5)
   11560: 3e 85        	mv	a0, a5
   11562: 6f 30 d0 2c  	j	0x1502e <_putc_r>

0000000000011566 <__sread>:
   11566: 41 11        	addi	sp, sp, -0x10
   11568: 22 e0        	sd	s0, 0x0(sp)
   1156a: 2e 84        	mv	s0, a1
   1156c: 83 95 25 01  	lh	a1, 0x12(a1)
   11570: 06 e4        	sd	ra, 0x8(sp)
   11572: ef 00 e0 26  	jal	0x117e0 <_read_r>
   11576: 63 49 05 00  	bltz	a0, 0x11588 <__sread+0x22>
   1157a: 5c 68        	ld	a5, 0x90(s0)
   1157c: a2 60        	ld	ra, 0x8(sp)
   1157e: aa 97        	add	a5, a5, a0
   11580: 5c e8        	sd	a5, 0x90(s0)
   11582: 02 64        	ld	s0, 0x0(sp)
   11584: 41 01        	addi	sp, sp, 0x10
   11586: 82 80        	ret
   11588: 83 57 04 01  	lhu	a5, 0x10(s0)
   1158c: 7d 77        	lui	a4, 0xfffff
   1158e: 7d 17        	addi	a4, a4, -0x1
   11590: f9 8f        	and	a5, a5, a4
   11592: a2 60        	ld	ra, 0x8(sp)
   11594: 23 18 f4 00  	sh	a5, 0x10(s0)
   11598: 02 64        	ld	s0, 0x0(sp)
   1159a: 41 01        	addi	sp, sp, 0x10
   1159c: 82 80        	ret

000000000001159e <__seofread>:
   1159e: 01 45        	li	a0, 0x0
   115a0: 82 80        	ret

00000000000115a2 <__swrite>:
   115a2: 83 97 05 01  	lh	a5, 0x10(a1)
   115a6: 79 71        	addi	sp, sp, -0x30
   115a8: 22 f0        	sd	s0, 0x20(sp)
   115aa: 26 ec        	sd	s1, 0x18(sp)
   115ac: 4a e8        	sd	s2, 0x10(sp)
   115ae: 4e e4        	sd	s3, 0x8(sp)
   115b0: 06 f4        	sd	ra, 0x28(sp)
   115b2: 13 f7 07 10  	andi	a4, a5, 0x100
   115b6: 2e 84        	mv	s0, a1
   115b8: aa 84        	mv	s1, a0
   115ba: 32 89        	mv	s2, a2
   115bc: b6 89        	mv	s3, a3
   115be: 15 e3        	bnez	a4, 0x115e2 <__swrite+0x40>
   115c0: 7d 77        	lui	a4, 0xfffff
   115c2: 7d 17        	addi	a4, a4, -0x1
   115c4: f9 8f        	and	a5, a5, a4
   115c6: 83 15 24 01  	lh	a1, 0x12(s0)
   115ca: 23 18 f4 00  	sh	a5, 0x10(s0)
   115ce: 02 74        	ld	s0, 0x20(sp)
   115d0: a2 70        	ld	ra, 0x28(sp)
   115d2: ce 86        	mv	a3, s3
   115d4: 4a 86        	mv	a2, s2
   115d6: a2 69        	ld	s3, 0x8(sp)
   115d8: 42 69        	ld	s2, 0x10(sp)
   115da: 26 85        	mv	a0, s1
   115dc: e2 64        	ld	s1, 0x18(sp)
   115de: 45 61        	addi	sp, sp, 0x30
   115e0: 8d ac        	j	0x11852 <_write_r>
   115e2: 83 95 25 01  	lh	a1, 0x12(a1)
   115e6: 89 46        	li	a3, 0x2
   115e8: 01 46        	li	a2, 0x0
   115ea: ef 00 a0 1b  	jal	0x117a4 <_lseek_r>
   115ee: 83 17 04 01  	lh	a5, 0x10(s0)
   115f2: f9 b7        	j	0x115c0 <__swrite+0x1e>

00000000000115f4 <__sseek>:
   115f4: 41 11        	addi	sp, sp, -0x10
   115f6: 22 e0        	sd	s0, 0x0(sp)
   115f8: 2e 84        	mv	s0, a1
   115fa: 83 95 25 01  	lh	a1, 0x12(a1)
   115fe: 06 e4        	sd	ra, 0x8(sp)
   11600: ef 00 40 1a  	jal	0x117a4 <_lseek_r>
   11604: fd 57        	li	a5, -0x1
   11606: 63 01 f5 02  	beq	a0, a5, 0x11628 <__sseek+0x34>
   1160a: 83 57 04 01  	lhu	a5, 0x10(s0)
   1160e: 05 67        	lui	a4, 0x1
   11610: a2 60        	ld	ra, 0x8(sp)
   11612: d9 8f        	or	a5, a5, a4
   11614: 9b 97 07 01  	slliw	a5, a5, 0x10
   11618: 9b d7 07 41  	sraiw	a5, a5, 0x10
   1161c: 48 e8        	sd	a0, 0x90(s0)
   1161e: 23 18 f4 00  	sh	a5, 0x10(s0)
   11622: 02 64        	ld	s0, 0x0(sp)
   11624: 41 01        	addi	sp, sp, 0x10
   11626: 82 80        	ret
   11628: 83 57 04 01  	lhu	a5, 0x10(s0)
   1162c: 7d 77        	lui	a4, 0xfffff
   1162e: 7d 17        	addi	a4, a4, -0x1
   11630: f9 8f        	and	a5, a5, a4
   11632: 9b 97 07 01  	slliw	a5, a5, 0x10
   11636: 9b d7 07 41  	sraiw	a5, a5, 0x10
   1163a: a2 60        	ld	ra, 0x8(sp)
   1163c: 23 18 f4 00  	sh	a5, 0x10(s0)
   11640: 02 64        	ld	s0, 0x0(sp)
   11642: 41 01        	addi	sp, sp, 0x10
   11644: 82 80        	ret

0000000000011646 <__sclose>:
   11646: 83 95 25 01  	lh	a1, 0x12(a1)
   1164a: 45 a8        	j	0x116fa <_close_r>

000000000001164c <strncmp>:
   1164c: 4d c6        	beqz	a2, 0x116f6 <strncmp+0xaa>
   1164e: b3 67 b5 00  	or	a5, a0, a1
   11652: 9d 8b        	andi	a5, a5, 0x7
   11654: a5 eb        	bnez	a5, 0x116c4 <strncmp+0x78>
   11656: 9d 47        	li	a5, 0x7
   11658: 63 f6 c7 06  	bgeu	a5, a2, 0x116c4 <strncmp+0x78>
   1165c: b7 16 10 f0  	lui	a3, 0xf0101
   11660: 37 08 ff fe  	lui	a6, 0xfeff0
   11664: 92 06        	slli	a3, a3, 0x4
   11666: 13 08 f8 ef  	addi	a6, a6, -0x101
   1166a: 93 86 16 10  	addi	a3, a3, 0x101
   1166e: 42 08        	slli	a6, a6, 0x10
   11670: c2 06        	slli	a3, a3, 0x10
   11672: 13 08 f8 ef  	addi	a6, a6, -0x101
   11676: 93 86 16 10  	addi	a3, a3, 0x101
   1167a: 42 08        	slli	a6, a6, 0x10
   1167c: be 06        	slli	a3, a3, 0xf
   1167e: 13 08 f8 ef  	addi	a6, a6, -0x101
   11682: 93 86 06 08  	addi	a3, a3, 0x80
   11686: 1d 4e        	li	t3, 0x7
   11688: 01 a8        	j	0x11698 <strncmp+0x4c>
   1168a: 61 16        	addi	a2, a2, -0x8
   1168c: 2d c6        	beqz	a2, 0x116f6 <strncmp+0xaa>
   1168e: a5 e7        	bnez	a5, 0x116f6 <strncmp+0xaa>
   11690: 21 05        	addi	a0, a0, 0x8
   11692: a1 05        	addi	a1, a1, 0x8
   11694: 63 78 ce 02  	bgeu	t3, a2, 0x116c4 <strncmp+0x78>
   11698: 18 61        	ld	a4, 0x0(a0)
   1169a: 83 b8 05 00  	ld	a7, 0x0(a1)
   1169e: b3 07 07 01  	add	a5, a4, a6
   116a2: 13 43 f7 ff  	not	t1, a4
   116a6: b3 f7 67 00  	and	a5, a5, t1
   116aa: f5 8f        	and	a5, a5, a3
   116ac: e3 0f 17 fd  	beq	a4, a7, 0x1168a <strncmp+0x3e>
   116b0: 03 47 05 00  	lbu	a4, 0x0(a0)
   116b4: 83 c6 05 00  	lbu	a3, 0x0(a1)
   116b8: 2a 88        	mv	a6, a0
   116ba: 63 07 d7 02  	beq	a4, a3, 0x116e8 <strncmp+0x9c>
   116be: 3b 05 d7 40  	subw	a0, a4, a3
   116c2: 82 80        	ret
   116c4: 03 47 05 00  	lbu	a4, 0x0(a0)
   116c8: 83 c6 05 00  	lbu	a3, 0x0(a1)
   116cc: e3 19 d7 fe  	bne	a4, a3, 0x116be <strncmp+0x72>
   116d0: 85 47        	li	a5, 0x1
   116d2: 63 02 f6 02  	beq	a2, a5, 0x116f6 <strncmp+0xaa>
   116d6: 2a 88        	mv	a6, a0
   116d8: 01 a8        	j	0x116e8 <strncmp+0x9c>
   116da: 03 47 05 00  	lbu	a4, 0x0(a0)
   116de: 83 c6 05 00  	lbu	a3, 0x0(a1)
   116e2: e3 1e d7 fc  	bne	a4, a3, 0x116be <strncmp+0x72>
   116e6: 81 cb        	beqz	a5, 0x116f6 <strncmp+0xaa>
   116e8: 05 05        	addi	a0, a0, 0x1
   116ea: b3 07 a6 40  	sub	a5, a2, a0
   116ee: fd 17        	addi	a5, a5, -0x1
   116f0: 85 05        	addi	a1, a1, 0x1
   116f2: c2 97        	add	a5, a5, a6
   116f4: 7d f3        	bnez	a4, 0x116da <strncmp+0x8e>
   116f6: 01 45        	li	a0, 0x0
   116f8: 82 80        	ret

00000000000116fa <_close_r>:
   116fa: 01 11        	addi	sp, sp, -0x20
   116fc: 22 e8        	sd	s0, 0x10(sp)
   116fe: 26 e4        	sd	s1, 0x8(sp)
   11700: 2a 84        	mv	s0, a0
   11702: 2e 85        	mv	a0, a1
   11704: 06 ec        	sd	ra, 0x18(sp)
   11706: 23 ac 01 8e  	sw	zero, -0x708(gp)
   1170a: ef 60 90 41  	jal	0x18322 <_close>
   1170e: fd 57        	li	a5, -0x1
   11710: 63 07 f5 00  	beq	a0, a5, 0x1171e <_close_r+0x24>
   11714: e2 60        	ld	ra, 0x18(sp)
   11716: 42 64        	ld	s0, 0x10(sp)
   11718: a2 64        	ld	s1, 0x8(sp)
   1171a: 05 61        	addi	sp, sp, 0x20
   1171c: 82 80        	ret
   1171e: 83 a7 81 8f  	lw	a5, -0x708(gp)
   11722: ed db        	beqz	a5, 0x11714 <_close_r+0x1a>
   11724: e2 60        	ld	ra, 0x18(sp)
   11726: 1c c0        	sw	a5, 0x0(s0)
   11728: 42 64        	ld	s0, 0x10(sp)
   1172a: a2 64        	ld	s1, 0x8(sp)
   1172c: 05 61        	addi	sp, sp, 0x20
   1172e: 82 80        	ret

0000000000011730 <_reclaim_reent>:
   11730: 83 b7 81 88  	ld	a5, -0x778(gp)
   11734: 63 87 a7 06  	beq	a5, a0, 0x117a2 <_reclaim_reent+0x72>
   11738: 2c 75        	ld	a1, 0x68(a0)
   1173a: 79 71        	addi	sp, sp, -0x30
   1173c: 26 ec        	sd	s1, 0x18(sp)
   1173e: 06 f4        	sd	ra, 0x28(sp)
   11740: aa 84        	mv	s1, a0
   11742: 9d c9        	beqz	a1, 0x11778 <_reclaim_reent+0x48>
   11744: 4a e8        	sd	s2, 0x10(sp)
   11746: 4e e4        	sd	s3, 0x8(sp)
   11748: 22 f0        	sd	s0, 0x20(sp)
   1174a: 01 49        	li	s2, 0x0
   1174c: 93 09 00 20  	li	s3, 0x200
   11750: b3 87 25 01  	add	a5, a1, s2
   11754: 80 63        	ld	s0, 0x0(a5)
   11756: 01 c8        	beqz	s0, 0x11766 <_reclaim_reent+0x36>
   11758: a2 85        	mv	a1, s0
   1175a: 00 60        	ld	s0, 0x0(s0)
   1175c: 26 85        	mv	a0, s1
   1175e: ef 00 40 5e  	jal	0x11d42 <_free_r>
   11762: 7d f8        	bnez	s0, 0x11758 <_reclaim_reent+0x28>
   11764: ac 74        	ld	a1, 0x68(s1)
   11766: 21 09        	addi	s2, s2, 0x8
   11768: e3 14 39 ff  	bne	s2, s3, 0x11750 <_reclaim_reent+0x20>
   1176c: 26 85        	mv	a0, s1
   1176e: ef 00 40 5d  	jal	0x11d42 <_free_r>
   11772: 02 74        	ld	s0, 0x20(sp)
   11774: 42 69        	ld	s2, 0x10(sp)
   11776: a2 69        	ld	s3, 0x8(sp)
   11778: ac 68        	ld	a1, 0x50(s1)
   1177a: 81 c5        	beqz	a1, 0x11782 <_reclaim_reent+0x52>
   1177c: 26 85        	mv	a0, s1
   1177e: ef 00 40 5c  	jal	0x11d42 <_free_r>
   11782: ac 7c        	ld	a1, 0x78(s1)
   11784: 81 c5        	beqz	a1, 0x1178c <_reclaim_reent+0x5c>
   11786: 26 85        	mv	a0, s1
   11788: ef 00 a0 5b  	jal	0x11d42 <_free_r>
   1178c: bc 64        	ld	a5, 0x48(s1)
   1178e: 91 c7        	beqz	a5, 0x1179a <_reclaim_reent+0x6a>
   11790: a2 70        	ld	ra, 0x28(sp)
   11792: 26 85        	mv	a0, s1
   11794: e2 64        	ld	s1, 0x18(sp)
   11796: 45 61        	addi	sp, sp, 0x30
   11798: 82 87        	jr	a5
   1179a: a2 70        	ld	ra, 0x28(sp)
   1179c: e2 64        	ld	s1, 0x18(sp)
   1179e: 45 61        	addi	sp, sp, 0x30
   117a0: 82 80        	ret
   117a2: 82 80        	ret

00000000000117a4 <_lseek_r>:
   117a4: 01 11        	addi	sp, sp, -0x20
   117a6: 2e 87        	mv	a4, a1
   117a8: 22 e8        	sd	s0, 0x10(sp)
   117aa: 26 e4        	sd	s1, 0x8(sp)
   117ac: b2 85        	mv	a1, a2
   117ae: 2a 84        	mv	s0, a0
   117b0: 36 86        	mv	a2, a3
   117b2: 3a 85        	mv	a0, a4
   117b4: 06 ec        	sd	ra, 0x18(sp)
   117b6: 23 ac 01 8e  	sw	zero, -0x708(gp)
   117ba: ef 60 50 43  	jal	0x183ee <_lseek>
   117be: fd 57        	li	a5, -0x1
   117c0: 63 07 f5 00  	beq	a0, a5, 0x117ce <_lseek_r+0x2a>
   117c4: e2 60        	ld	ra, 0x18(sp)
   117c6: 42 64        	ld	s0, 0x10(sp)
   117c8: a2 64        	ld	s1, 0x8(sp)
   117ca: 05 61        	addi	sp, sp, 0x20
   117cc: 82 80        	ret
   117ce: 83 a7 81 8f  	lw	a5, -0x708(gp)
   117d2: ed db        	beqz	a5, 0x117c4 <_lseek_r+0x20>
   117d4: e2 60        	ld	ra, 0x18(sp)
   117d6: 1c c0        	sw	a5, 0x0(s0)
   117d8: 42 64        	ld	s0, 0x10(sp)
   117da: a2 64        	ld	s1, 0x8(sp)
   117dc: 05 61        	addi	sp, sp, 0x20
   117de: 82 80        	ret

00000000000117e0 <_read_r>:
   117e0: 01 11        	addi	sp, sp, -0x20
   117e2: 2e 87        	mv	a4, a1
   117e4: 22 e8        	sd	s0, 0x10(sp)
   117e6: 26 e4        	sd	s1, 0x8(sp)
   117e8: b2 85        	mv	a1, a2
   117ea: 2a 84        	mv	s0, a0
   117ec: 36 86        	mv	a2, a3
   117ee: 3a 85        	mv	a0, a4
   117f0: 06 ec        	sd	ra, 0x18(sp)
   117f2: 23 ac 01 8e  	sw	zero, -0x708(gp)
   117f6: ef 60 50 42  	jal	0x1841a <_read>
   117fa: fd 57        	li	a5, -0x1
   117fc: 63 07 f5 00  	beq	a0, a5, 0x1180a <_read_r+0x2a>
   11800: e2 60        	ld	ra, 0x18(sp)
   11802: 42 64        	ld	s0, 0x10(sp)
   11804: a2 64        	ld	s1, 0x8(sp)
   11806: 05 61        	addi	sp, sp, 0x20
   11808: 82 80        	ret
   1180a: 83 a7 81 8f  	lw	a5, -0x708(gp)
   1180e: ed db        	beqz	a5, 0x11800 <_read_r+0x20>
   11810: e2 60        	ld	ra, 0x18(sp)
   11812: 1c c0        	sw	a5, 0x0(s0)
   11814: 42 64        	ld	s0, 0x10(sp)
   11816: a2 64        	ld	s1, 0x8(sp)
   11818: 05 61        	addi	sp, sp, 0x20
   1181a: 82 80        	ret

000000000001181c <_sbrk_r>:
   1181c: 01 11        	addi	sp, sp, -0x20
   1181e: 22 e8        	sd	s0, 0x10(sp)
   11820: 26 e4        	sd	s1, 0x8(sp)
   11822: 2a 84        	mv	s0, a0
   11824: 2e 85        	mv	a0, a1
   11826: 06 ec        	sd	ra, 0x18(sp)
   11828: 23 ac 01 8e  	sw	zero, -0x708(gp)
   1182c: ef 60 b0 41  	jal	0x18446 <_sbrk>
   11830: fd 57        	li	a5, -0x1
   11832: 63 07 f5 00  	beq	a0, a5, 0x11840 <_sbrk_r+0x24>
   11836: e2 60        	ld	ra, 0x18(sp)
   11838: 42 64        	ld	s0, 0x10(sp)
   1183a: a2 64        	ld	s1, 0x8(sp)
   1183c: 05 61        	addi	sp, sp, 0x20
   1183e: 82 80        	ret
   11840: 83 a7 81 8f  	lw	a5, -0x708(gp)
   11844: ed db        	beqz	a5, 0x11836 <_sbrk_r+0x1a>
   11846: e2 60        	ld	ra, 0x18(sp)
   11848: 1c c0        	sw	a5, 0x0(s0)
   1184a: 42 64        	ld	s0, 0x10(sp)
   1184c: a2 64        	ld	s1, 0x8(sp)
   1184e: 05 61        	addi	sp, sp, 0x20
   11850: 82 80        	ret

0000000000011852 <_write_r>:
   11852: 01 11        	addi	sp, sp, -0x20
   11854: 2e 87        	mv	a4, a1
   11856: 22 e8        	sd	s0, 0x10(sp)
   11858: 26 e4        	sd	s1, 0x8(sp)
   1185a: b2 85        	mv	a1, a2
   1185c: 2a 84        	mv	s0, a0
   1185e: 36 86        	mv	a2, a3
   11860: 3a 85        	mv	a0, a4
   11862: 06 ec        	sd	ra, 0x18(sp)
   11864: 23 ac 01 8e  	sw	zero, -0x708(gp)
   11868: ef 60 30 43  	jal	0x1849a <_write>
   1186c: fd 57        	li	a5, -0x1
   1186e: 63 07 f5 00  	beq	a0, a5, 0x1187c <_write_r+0x2a>
   11872: e2 60        	ld	ra, 0x18(sp)
   11874: 42 64        	ld	s0, 0x10(sp)
   11876: a2 64        	ld	s1, 0x8(sp)
   11878: 05 61        	addi	sp, sp, 0x20
   1187a: 82 80        	ret
   1187c: 83 a7 81 8f  	lw	a5, -0x708(gp)
   11880: ed db        	beqz	a5, 0x11872 <_write_r+0x20>
   11882: e2 60        	ld	ra, 0x18(sp)
   11884: 1c c0        	sw	a5, 0x0(s0)
   11886: 42 64        	ld	s0, 0x10(sp)
   11888: a2 64        	ld	s1, 0x8(sp)
   1188a: 05 61        	addi	sp, sp, 0x20
   1188c: 82 80        	ret

000000000001188e <__libc_init_array>:
   1188e: 01 11        	addi	sp, sp, -0x20
   11890: 22 e8        	sd	s0, 0x10(sp)
   11892: b7 17 02 00  	lui	a5, 0x21
   11896: 37 14 02 00  	lui	s0, 0x21
   1189a: 4a e0        	sd	s2, 0x0(sp)
   1189c: 93 87 07 4a  	addi	a5, a5, 0x4a0
   118a0: 13 07 04 4a  	addi	a4, s0, 0x4a0
   118a4: 06 ec        	sd	ra, 0x18(sp)
   118a6: 26 e4        	sd	s1, 0x8(sp)
   118a8: 33 89 e7 40  	sub	s2, a5, a4
   118ac: 63 8d e7 00  	beq	a5, a4, 0x118c6 <__libc_init_array+0x38>
   118b0: 13 59 39 40  	srai	s2, s2, 0x3
   118b4: 13 04 04 4a  	addi	s0, s0, 0x4a0
   118b8: 81 44        	li	s1, 0x0
   118ba: 1c 60        	ld	a5, 0x0(s0)
   118bc: 85 04        	addi	s1, s1, 0x1
   118be: 21 04        	addi	s0, s0, 0x8
   118c0: 82 97        	jalr	a5
   118c2: e3 ec 24 ff  	bltu	s1, s2, 0x118ba <__libc_init_array+0x2c>
   118c6: 37 14 02 00  	lui	s0, 0x21
   118ca: b7 17 02 00  	lui	a5, 0x21
   118ce: 93 87 07 4b  	addi	a5, a5, 0x4b0
   118d2: 13 07 04 4a  	addi	a4, s0, 0x4a0
   118d6: 33 89 e7 40  	sub	s2, a5, a4
   118da: 13 59 39 40  	srai	s2, s2, 0x3
   118de: 63 8b e7 00  	beq	a5, a4, 0x118f4 <__libc_init_array+0x66>
   118e2: 13 04 04 4a  	addi	s0, s0, 0x4a0
   118e6: 81 44        	li	s1, 0x0
   118e8: 1c 60        	ld	a5, 0x0(s0)
   118ea: 85 04        	addi	s1, s1, 0x1
   118ec: 21 04        	addi	s0, s0, 0x8
   118ee: 82 97        	jalr	a5
   118f0: e3 ec 24 ff  	bltu	s1, s2, 0x118e8 <__libc_init_array+0x5a>
   118f4: e2 60        	ld	ra, 0x18(sp)
   118f6: 42 64        	ld	s0, 0x10(sp)
   118f8: a2 64        	ld	s1, 0x8(sp)
   118fa: 02 69        	ld	s2, 0x0(sp)
   118fc: 05 61        	addi	sp, sp, 0x20
   118fe: 82 80        	ret

0000000000011900 <memmove>:
   11900: 63 f2 a5 02  	bgeu	a1, a0, 0x11924 <memmove+0x24>
   11904: 33 87 c5 00  	add	a4, a1, a2
   11908: 63 7e e5 00  	bgeu	a0, a4, 0x11924 <memmove+0x24>
   1190c: b3 07 c5 00  	add	a5, a0, a2
   11910: 1d ca        	beqz	a2, 0x11946 <memmove+0x46>
   11912: 83 46 f7 ff  	lbu	a3, -0x1(a4)
   11916: fd 17        	addi	a5, a5, -0x1
   11918: 7d 17        	addi	a4, a4, -0x1
   1191a: 23 80 d7 00  	sb	a3, 0x0(a5)
   1191e: e3 1a f5 fe  	bne	a0, a5, 0x11912 <memmove+0x12>
   11922: 82 80        	ret
   11924: fd 47        	li	a5, 0x1f
   11926: 63 e1 c7 02  	bltu	a5, a2, 0x11948 <memmove+0x48>
   1192a: aa 87        	mv	a5, a0
   1192c: 93 06 f6 ff  	addi	a3, a2, -0x1
   11930: 51 ce        	beqz	a2, 0x119cc <memmove+0xcc>
   11932: 85 06        	addi	a3, a3, 0x1
   11934: be 96        	add	a3, a3, a5
   11936: 03 c7 05 00  	lbu	a4, 0x0(a1)
   1193a: 85 07        	addi	a5, a5, 0x1
   1193c: 85 05        	addi	a1, a1, 0x1
   1193e: a3 8f e7 fe  	sb	a4, -0x1(a5)
   11942: e3 9a d7 fe  	bne	a5, a3, 0x11936 <memmove+0x36>
   11946: 82 80        	ret
   11948: b3 67 b5 00  	or	a5, a0, a1
   1194c: 9d 8b        	andi	a5, a5, 0x7
   1194e: bd eb        	bnez	a5, 0x119c4 <memmove+0xc4>
   11950: 93 08 06 fe  	addi	a7, a2, -0x20
   11954: 93 f8 08 fe  	andi	a7, a7, -0x20
   11958: 93 88 08 02  	addi	a7, a7, 0x20
   1195c: b3 06 15 01  	add	a3, a0, a7
   11960: 2e 87        	mv	a4, a1
   11962: aa 87        	mv	a5, a0
   11964: 03 38 07 00  	ld	a6, 0x0(a4)
   11968: 13 07 07 02  	addi	a4, a4, 0x20
   1196c: 93 87 07 02  	addi	a5, a5, 0x20
   11970: 23 b0 07 ff  	sd	a6, -0x20(a5)
   11974: 03 38 87 fe  	ld	a6, -0x18(a4)
   11978: 23 b4 07 ff  	sd	a6, -0x18(a5)
   1197c: 03 38 07 ff  	ld	a6, -0x10(a4)
   11980: 23 b8 07 ff  	sd	a6, -0x10(a5)
   11984: 03 38 87 ff  	ld	a6, -0x8(a4)
   11988: 23 bc 07 ff  	sd	a6, -0x8(a5)
   1198c: e3 9c d7 fc  	bne	a5, a3, 0x11964 <memmove+0x64>
   11990: 13 78 86 01  	andi	a6, a2, 0x18
   11994: c6 95        	add	a1, a1, a7
   11996: 13 77 f6 01  	andi	a4, a2, 0x1f
   1199a: 63 0a 08 02  	beqz	a6, 0x119ce <memmove+0xce>
   1199e: 13 08 87 ff  	addi	a6, a4, -0x8
   119a2: 13 78 88 ff  	andi	a6, a6, -0x8
   119a6: 21 08        	addi	a6, a6, 0x8
   119a8: b3 87 06 01  	add	a5, a3, a6
   119ac: 2e 87        	mv	a4, a1
   119ae: 83 38 07 00  	ld	a7, 0x0(a4)
   119b2: a1 06        	addi	a3, a3, 0x8
   119b4: 21 07        	addi	a4, a4, 0x8
   119b6: 23 bc 16 ff  	sd	a7, -0x8(a3)
   119ba: e3 9a f6 fe  	bne	a3, a5, 0x119ae <memmove+0xae>
   119be: 1d 8a        	andi	a2, a2, 0x7
   119c0: c2 95        	add	a1, a1, a6
   119c2: ad b7        	j	0x1192c <memmove+0x2c>
   119c4: 93 06 f6 ff  	addi	a3, a2, -0x1
   119c8: aa 87        	mv	a5, a0
   119ca: a5 b7        	j	0x11932 <memmove+0x32>
   119cc: 82 80        	ret
   119ce: 3a 86        	mv	a2, a4
   119d0: b1 bf        	j	0x1192c <memmove+0x2c>

00000000000119d2 <memset>:
   119d2: 3d 43        	li	t1, 0xf
   119d4: 2a 87        	mv	a4, a0
   119d6: 63 71 c3 02  	bgeu	t1, a2, 0x119f8 <memset+0x26>
   119da: 93 77 f7 00  	andi	a5, a4, 0xf
   119de: c1 e3        	bnez	a5, 0x11a5e <memset+0x8c>
   119e0: bd e1        	bnez	a1, 0x11a46 <memset+0x74>
   119e2: 93 76 06 ff  	andi	a3, a2, -0x10
   119e6: 3d 8a        	andi	a2, a2, 0xf
   119e8: ba 96        	add	a3, a3, a4
   119ea: 0c e3        	sd	a1, 0x0(a4)
   119ec: 0c e7        	sd	a1, 0x8(a4)
   119ee: 41 07        	addi	a4, a4, 0x10
   119f0: e3 6d d7 fe  	bltu	a4, a3, 0x119ea <memset+0x18>
   119f4: 11 e2        	bnez	a2, 0x119f8 <memset+0x26>
   119f6: 82 80        	ret
   119f8: b3 06 c3 40  	sub	a3, t1, a2
   119fc: 8a 06        	slli	a3, a3, 0x2
   119fe: 97 02 00 00  	auipc	t0, 0x0
   11a02: 96 96        	add	a3, a3, t0
   11a04: 67 80 a6 00  	jr	0xa(a3)
   11a08: 23 07 b7 00  	sb	a1, 0xe(a4)
   11a0c: a3 06 b7 00  	sb	a1, 0xd(a4)
   11a10: 23 06 b7 00  	sb	a1, 0xc(a4)
   11a14: a3 05 b7 00  	sb	a1, 0xb(a4)
   11a18: 23 05 b7 00  	sb	a1, 0xa(a4)
   11a1c: a3 04 b7 00  	sb	a1, 0x9(a4)
   11a20: 23 04 b7 00  	sb	a1, 0x8(a4)
   11a24: a3 03 b7 00  	sb	a1, 0x7(a4)
   11a28: 23 03 b7 00  	sb	a1, 0x6(a4)
   11a2c: a3 02 b7 00  	sb	a1, 0x5(a4)
   11a30: 23 02 b7 00  	sb	a1, 0x4(a4)
   11a34: a3 01 b7 00  	sb	a1, 0x3(a4)
   11a38: 23 01 b7 00  	sb	a1, 0x2(a4)
   11a3c: a3 00 b7 00  	sb	a1, 0x1(a4)
   11a40: 23 00 b7 00  	sb	a1, 0x0(a4)
   11a44: 82 80        	ret
   11a46: 93 f5 f5 0f  	andi	a1, a1, 0xff
   11a4a: 93 96 85 00  	slli	a3, a1, 0x8
   11a4e: d5 8d        	or	a1, a1, a3
   11a50: 93 96 05 01  	slli	a3, a1, 0x10
   11a54: d5 8d        	or	a1, a1, a3
   11a56: 93 96 05 02  	slli	a3, a1, 0x20
   11a5a: d5 8d        	or	a1, a1, a3
   11a5c: 59 b7        	j	0x119e2 <memset+0x10>
   11a5e: 93 96 27 00  	slli	a3, a5, 0x2
   11a62: 97 02 00 00  	auipc	t0, 0x0
   11a66: 96 96        	add	a3, a3, t0
   11a68: 86 82        	mv	t0, ra
   11a6a: e7 80 26 fa  	jalr	-0x5e(a3)
   11a6e: 96 80        	mv	ra, t0
   11a70: c1 17        	addi	a5, a5, -0x10
   11a72: 1d 8f        	sub	a4, a4, a5
   11a74: 3e 96        	add	a2, a2, a5
   11a76: e3 71 c3 f8  	bgeu	t1, a2, 0x119f8 <memset+0x26>
   11a7a: 9d b7        	j	0x119e0 <memset+0xe>

0000000000011a7c <strlen>:
   11a7c: 93 77 75 00  	andi	a5, a0, 0x7
   11a80: 2a 87        	mv	a4, a0
   11a82: b5 e3        	bnez	a5, 0x11ae6 <strlen+0x6a>
   11a84: b7 f6 ef 0f  	lui	a3, 0xfeff
   11a88: 92 06        	slli	a3, a3, 0x4
   11a8a: 93 86 f6 ef  	addi	a3, a3, -0x101
   11a8e: c2 06        	slli	a3, a3, 0x10
   11a90: 93 86 f6 ef  	addi	a3, a3, -0x101
   11a94: be 06        	slli	a3, a3, 0xf
   11a96: 93 86 f6 f7  	addi	a3, a3, -0x81
   11a9a: fd 55        	li	a1, -0x1
   11a9c: 10 63        	ld	a2, 0x0(a4)
   11a9e: 21 07        	addi	a4, a4, 0x8
   11aa0: b3 77 d6 00  	and	a5, a2, a3
   11aa4: b6 97        	add	a5, a5, a3
   11aa6: d1 8f        	or	a5, a5, a2
   11aa8: d5 8f        	or	a5, a5, a3
   11aaa: e3 89 b7 fe  	beq	a5, a1, 0x11a9c <strlen+0x20>
   11aae: 83 46 87 ff  	lbu	a3, -0x8(a4)
   11ab2: b3 07 a7 40  	sub	a5, a4, a0
   11ab6: a9 c6        	beqz	a3, 0x11b00 <strlen+0x84>
   11ab8: 83 46 97 ff  	lbu	a3, -0x7(a4)
   11abc: 9d ce        	beqz	a3, 0x11afa <strlen+0x7e>
   11abe: 83 46 a7 ff  	lbu	a3, -0x6(a4)
   11ac2: a9 c6        	beqz	a3, 0x11b0c <strlen+0x90>
   11ac4: 83 46 b7 ff  	lbu	a3, -0x5(a4)
   11ac8: 9d ce        	beqz	a3, 0x11b06 <strlen+0x8a>
   11aca: 83 46 c7 ff  	lbu	a3, -0x4(a4)
   11ace: b1 c2        	beqz	a3, 0x11b12 <strlen+0x96>
   11ad0: 83 46 d7 ff  	lbu	a3, -0x3(a4)
   11ad4: b1 c2        	beqz	a3, 0x11b18 <strlen+0x9c>
   11ad6: 03 45 e7 ff  	lbu	a0, -0x2(a4)
   11ada: 33 35 a0 00  	snez	a0, a0
   11ade: 3e 95        	add	a0, a0, a5
   11ae0: 79 15        	addi	a0, a0, -0x2
   11ae2: 82 80        	ret
   11ae4: c5 d2        	beqz	a3, 0x11a84 <strlen+0x8>
   11ae6: 83 47 07 00  	lbu	a5, 0x0(a4)
   11aea: 05 07        	addi	a4, a4, 0x1
   11aec: 93 76 77 00  	andi	a3, a4, 0x7
   11af0: f5 fb        	bnez	a5, 0x11ae4 <strlen+0x68>
   11af2: 09 8f        	sub	a4, a4, a0
   11af4: 13 05 f7 ff  	addi	a0, a4, -0x1
   11af8: 82 80        	ret
   11afa: 13 85 97 ff  	addi	a0, a5, -0x7
   11afe: 82 80        	ret
   11b00: 13 85 87 ff  	addi	a0, a5, -0x8
   11b04: 82 80        	ret
   11b06: 13 85 b7 ff  	addi	a0, a5, -0x5
   11b0a: 82 80        	ret
   11b0c: 13 85 a7 ff  	addi	a0, a5, -0x6
   11b10: 82 80        	ret
   11b12: 13 85 c7 ff  	addi	a0, a5, -0x4
   11b16: 82 80        	ret
   11b18: 13 85 d7 ff  	addi	a0, a5, -0x3
   11b1c: 82 80        	ret

0000000000011b1e <__register_exitproc>:
   11b1e: 83 b7 01 90  	ld	a5, -0x700(gp)
   11b22: b1 c3        	beqz	a5, 0x11b66 <__register_exitproc+0x48>
   11b24: 98 47        	lw	a4, 0x8(a5)
   11b26: 7d 48        	li	a6, 0x1f
   11b28: 63 46 e8 06  	blt	a6, a4, 0x11b94 <__register_exitproc+0x76>
   11b2c: 05 c5        	beqz	a0, 0x11b54 <__register_exitproc+0x36>
   11b2e: 13 18 37 00  	slli	a6, a4, 0x3
   11b32: 3e 98        	add	a6, a6, a5
   11b34: 23 38 c8 10  	sd	a2, 0x110(a6)
   11b38: 83 a8 07 31  	lw	a7, 0x310(a5)
   11b3c: 05 46        	li	a2, 0x1
   11b3e: 3b 16 e6 00  	sllw	a2, a2, a4
   11b42: b3 e8 c8 00  	or	a7, a7, a2
   11b46: 23 a8 17 31  	sw	a7, 0x310(a5)
   11b4a: 23 38 d8 20  	sd	a3, 0x210(a6)
   11b4e: 89 46        	li	a3, 0x2
   11b50: 63 04 d5 02  	beq	a0, a3, 0x11b78 <__register_exitproc+0x5a>
   11b54: 93 06 27 00  	addi	a3, a4, 0x2
   11b58: 8e 06        	slli	a3, a3, 0x3
   11b5a: 05 27        	addiw	a4, a4, 0x1
   11b5c: 98 c7        	sw	a4, 0x8(a5)
   11b5e: b6 97        	add	a5, a5, a3
   11b60: 8c e3        	sd	a1, 0x0(a5)
   11b62: 01 45        	li	a0, 0x0
   11b64: 82 80        	ret
   11b66: b7 47 02 00  	lui	a5, 0x24
   11b6a: 13 88 87 86  	addi	a6, a5, -0x798
   11b6e: 23 b0 01 91  	sd	a6, -0x700(gp)
   11b72: 93 87 87 86  	addi	a5, a5, -0x798
   11b76: 7d b7        	j	0x11b24 <__register_exitproc+0x6>
   11b78: 83 a6 47 31  	lw	a3, 0x314(a5)
   11b7c: 01 45        	li	a0, 0x0
   11b7e: d1 8e        	or	a3, a3, a2
   11b80: 23 aa d7 30  	sw	a3, 0x314(a5)
   11b84: 93 06 27 00  	addi	a3, a4, 0x2
   11b88: 8e 06        	slli	a3, a3, 0x3
   11b8a: 05 27        	addiw	a4, a4, 0x1
   11b8c: 98 c7        	sw	a4, 0x8(a5)
   11b8e: b6 97        	add	a5, a5, a3
   11b90: 8c e3        	sd	a1, 0x0(a5)
   11b92: 82 80        	ret
   11b94: 7d 55        	li	a0, -0x1
   11b96: 82 80        	ret

0000000000011b98 <__call_exitprocs>:
   11b98: 5d 71        	addi	sp, sp, -0x50
   11b9a: 52 f0        	sd	s4, 0x20(sp)
   11b9c: 4a f8        	sd	s2, 0x30(sp)
   11b9e: 03 b9 01 90  	ld	s2, -0x700(gp)
   11ba2: 86 e4        	sd	ra, 0x48(sp)
   11ba4: 63 0d 09 06  	beqz	s2, 0x11c1e <__call_exitprocs+0x86>
   11ba8: 4e f4        	sd	s3, 0x28(sp)
   11baa: 56 ec        	sd	s5, 0x18(sp)
   11bac: 5a e8        	sd	s6, 0x10(sp)
   11bae: 5e e4        	sd	s7, 0x8(sp)
   11bb0: a2 e0        	sd	s0, 0x40(sp)
   11bb2: 26 fc        	sd	s1, 0x38(sp)
   11bb4: 62 e0        	sd	s8, 0x0(sp)
   11bb6: 2a 8b        	mv	s6, a0
   11bb8: ae 8b        	mv	s7, a1
   11bba: fd 59        	li	s3, -0x1
   11bbc: 85 4a        	li	s5, 0x1
   11bbe: 83 24 89 00  	lw	s1, 0x8(s2)
   11bc2: 1b 84 f4 ff  	addiw	s0, s1, -0x1
   11bc6: 63 45 04 04  	bltz	s0, 0x11c10 <__call_exitprocs+0x78>
   11bca: 8e 04        	slli	s1, s1, 0x3
   11bcc: ca 94        	add	s1, s1, s2
   11bce: 63 9d 0b 04  	bnez	s7, 0x11c28 <__call_exitprocs+0x90>
   11bd2: 83 27 89 00  	lw	a5, 0x8(s2)
   11bd6: 98 64        	ld	a4, 0x8(s1)
   11bd8: fd 37        	addiw	a5, a5, -0x1
   11bda: 63 82 87 08  	beq	a5, s0, 0x11c5e <__call_exitprocs+0xc6>
   11bde: 23 b4 04 00  	sd	zero, 0x8(s1)
   11be2: 1d c3        	beqz	a4, 0x11c08 <__call_exitprocs+0x70>
   11be4: 83 27 09 31  	lw	a5, 0x310(s2)
   11be8: bb 96 8a 00  	sllw	a3, s5, s0
   11bec: 03 2c 89 00  	lw	s8, 0x8(s2)
   11bf0: f5 8f        	and	a5, a5, a3
   11bf2: 81 27        	sext.w	a5, a5
   11bf4: b9 e3        	bnez	a5, 0x11c3a <__call_exitprocs+0xa2>
   11bf6: 02 97        	jalr	a4
   11bf8: 03 27 89 00  	lw	a4, 0x8(s2)
   11bfc: 83 b7 01 90  	ld	a5, -0x700(gp)
   11c00: 63 1c 87 05  	bne	a4, s8, 0x11c58 <__call_exitprocs+0xc0>
   11c04: 63 9a 27 05  	bne	a5, s2, 0x11c58 <__call_exitprocs+0xc0>
   11c08: 7d 34        	addiw	s0, s0, -0x1
   11c0a: e1 14        	addi	s1, s1, -0x8
   11c0c: e3 11 34 fd  	bne	s0, s3, 0x11bce <__call_exitprocs+0x36>
   11c10: 06 64        	ld	s0, 0x40(sp)
   11c12: e2 74        	ld	s1, 0x38(sp)
   11c14: a2 79        	ld	s3, 0x28(sp)
   11c16: e2 6a        	ld	s5, 0x18(sp)
   11c18: 42 6b        	ld	s6, 0x10(sp)
   11c1a: a2 6b        	ld	s7, 0x8(sp)
   11c1c: 02 6c        	ld	s8, 0x0(sp)
   11c1e: a6 60        	ld	ra, 0x48(sp)
   11c20: 42 79        	ld	s2, 0x30(sp)
   11c22: 02 7a        	ld	s4, 0x20(sp)
   11c24: 61 61        	addi	sp, sp, 0x50
   11c26: 82 80        	ret
   11c28: 83 b7 84 20  	ld	a5, 0x208(s1)
   11c2c: e3 83 77 fb  	beq	a5, s7, 0x11bd2 <__call_exitprocs+0x3a>
   11c30: 7d 34        	addiw	s0, s0, -0x1
   11c32: e1 14        	addi	s1, s1, -0x8
   11c34: e3 1a 34 ff  	bne	s0, s3, 0x11c28 <__call_exitprocs+0x90>
   11c38: e1 bf        	j	0x11c10 <__call_exitprocs+0x78>
   11c3a: 83 27 49 31  	lw	a5, 0x314(s2)
   11c3e: 83 b5 84 10  	ld	a1, 0x108(s1)
   11c42: f5 8f        	and	a5, a5, a3
   11c44: 81 27        	sext.w	a5, a5
   11c46: 99 ef        	bnez	a5, 0x11c64 <__call_exitprocs+0xcc>
   11c48: 5a 85        	mv	a0, s6
   11c4a: 02 97        	jalr	a4
   11c4c: 03 27 89 00  	lw	a4, 0x8(s2)
   11c50: 83 b7 01 90  	ld	a5, -0x700(gp)
   11c54: e3 08 87 fb  	beq	a4, s8, 0x11c04 <__call_exitprocs+0x6c>
   11c58: c5 df        	beqz	a5, 0x11c10 <__call_exitprocs+0x78>
   11c5a: 3e 89        	mv	s2, a5
   11c5c: 8d b7        	j	0x11bbe <__call_exitprocs+0x26>
   11c5e: 23 24 89 00  	sw	s0, 0x8(s2)
   11c62: 41 b7        	j	0x11be2 <__call_exitprocs+0x4a>
   11c64: 2e 85        	mv	a0, a1
   11c66: 02 97        	jalr	a4
   11c68: 41 bf        	j	0x11bf8 <__call_exitprocs+0x60>

0000000000011c6a <_malloc_trim_r>:
   11c6a: 79 71        	addi	sp, sp, -0x30
   11c6c: 4e e4        	sd	s3, 0x8(sp)
   11c6e: b7 19 02 00  	lui	s3, 0x21
   11c72: 22 f0        	sd	s0, 0x20(sp)
   11c74: 26 ec        	sd	s1, 0x18(sp)
   11c76: 4a e8        	sd	s2, 0x10(sp)
   11c78: 52 e0        	sd	s4, 0x0(sp)
   11c7a: 06 f4        	sd	ra, 0x28(sp)
   11c7c: 2e 8a        	mv	s4, a1
   11c7e: 2a 89        	mv	s2, a0
   11c80: 93 89 89 5b  	addi	s3, s3, 0x5b8
   11c84: ef f0 af 95  	jal	0x10dde <__malloc_lock>
   11c88: 03 b7 09 01  	ld	a4, 0x10(s3)
   11c8c: 85 67        	lui	a5, 0x1
   11c8e: 93 87 f7 fd  	addi	a5, a5, -0x21
   11c92: 04 67        	ld	s1, 0x8(a4)
   11c94: 05 67        	lui	a4, 0x1
   11c96: f1 98        	andi	s1, s1, -0x4
   11c98: 33 84 f4 00  	add	s0, s1, a5
   11c9c: 33 04 44 41  	sub	s0, s0, s4
   11ca0: 31 80        	srli	s0, s0, 0xc
   11ca2: 7d 14        	addi	s0, s0, -0x1
   11ca4: 32 04        	slli	s0, s0, 0xc
   11ca6: 63 4b e4 00  	blt	s0, a4, 0x11cbc <_malloc_trim_r+0x52>
   11caa: 81 45        	li	a1, 0x0
   11cac: 4a 85        	mv	a0, s2
   11cae: ef f0 ff b6  	jal	0x1181c <_sbrk_r>
   11cb2: 83 b7 09 01  	ld	a5, 0x10(s3)
   11cb6: a6 97        	add	a5, a5, s1
   11cb8: 63 0e f5 00  	beq	a0, a5, 0x11cd4 <_malloc_trim_r+0x6a>
   11cbc: 4a 85        	mv	a0, s2
   11cbe: ef f0 2f 92  	jal	0x10de0 <__malloc_unlock>
   11cc2: a2 70        	ld	ra, 0x28(sp)
   11cc4: 02 74        	ld	s0, 0x20(sp)
   11cc6: e2 64        	ld	s1, 0x18(sp)
   11cc8: 42 69        	ld	s2, 0x10(sp)
   11cca: a2 69        	ld	s3, 0x8(sp)
   11ccc: 02 6a        	ld	s4, 0x0(sp)
   11cce: 01 45        	li	a0, 0x0
   11cd0: 45 61        	addi	sp, sp, 0x30
   11cd2: 82 80        	ret
   11cd4: b3 05 80 40  	neg	a1, s0
   11cd8: 4a 85        	mv	a0, s2
   11cda: ef f0 3f b4  	jal	0x1181c <_sbrk_r>
   11cde: fd 57        	li	a5, -0x1
   11ce0: 63 0b f5 02  	beq	a0, a5, 0x11d16 <_malloc_trim_r+0xac>
   11ce4: b7 37 02 00  	lui	a5, 0x23
   11ce8: 93 87 07 63  	addi	a5, a5, 0x630
   11cec: 98 43        	lw	a4, 0x0(a5)
   11cee: 83 b6 09 01  	ld	a3, 0x10(s3)
   11cf2: 81 8c        	sub	s1, s1, s0
   11cf4: 93 e4 14 00  	ori	s1, s1, 0x1
   11cf8: 01 9f        	subw	a4, a4, s0
   11cfa: 4a 85        	mv	a0, s2
   11cfc: 84 e6        	sd	s1, 0x8(a3)
   11cfe: 98 c3        	sw	a4, 0x0(a5)
   11d00: ef f0 0f 8e  	jal	0x10de0 <__malloc_unlock>
   11d04: a2 70        	ld	ra, 0x28(sp)
   11d06: 02 74        	ld	s0, 0x20(sp)
   11d08: e2 64        	ld	s1, 0x18(sp)
   11d0a: 42 69        	ld	s2, 0x10(sp)
   11d0c: a2 69        	ld	s3, 0x8(sp)
   11d0e: 02 6a        	ld	s4, 0x0(sp)
   11d10: 05 45        	li	a0, 0x1
   11d12: 45 61        	addi	sp, sp, 0x30
   11d14: 82 80        	ret
   11d16: 81 45        	li	a1, 0x0
   11d18: 4a 85        	mv	a0, s2
   11d1a: ef f0 3f b0  	jal	0x1181c <_sbrk_r>
   11d1e: 03 b7 09 01  	ld	a4, 0x10(s3)
   11d22: fd 46        	li	a3, 0x1f
   11d24: b3 07 e5 40  	sub	a5, a0, a4
   11d28: e3 da f6 f8  	bge	a3, a5, 0x11cbc <_malloc_trim_r+0x52>
   11d2c: 83 b6 81 87  	ld	a3, -0x788(gp)
   11d30: 93 e7 17 00  	ori	a5, a5, 0x1
   11d34: 1c e7        	sd	a5, 0x8(a4)
   11d36: 15 8d        	sub	a0, a0, a3
   11d38: b7 36 02 00  	lui	a3, 0x23
   11d3c: 23 a8 a6 62  	sw	a0, 0x630(a3)
   11d40: b5 bf        	j	0x11cbc <_malloc_trim_r+0x52>

0000000000011d42 <_free_r>:
   11d42: 63 85 05 12  	beqz	a1, 0x11e6c <_free_r+0x12a>
   11d46: 01 11        	addi	sp, sp, -0x20
   11d48: 22 e8        	sd	s0, 0x10(sp)
   11d4a: 26 e4        	sd	s1, 0x8(sp)
   11d4c: 2e 84        	mv	s0, a1
   11d4e: aa 84        	mv	s1, a0
   11d50: 06 ec        	sd	ra, 0x18(sp)
   11d52: ef f0 cf 88  	jal	0x10dde <__malloc_lock>
   11d56: 03 35 84 ff  	ld	a0, -0x8(s0)
   11d5a: 13 07 04 ff  	addi	a4, s0, -0x10
   11d5e: b7 15 02 00  	lui	a1, 0x21
   11d62: 93 77 e5 ff  	andi	a5, a0, -0x2
   11d66: 33 06 f7 00  	add	a2, a4, a5
   11d6a: 93 85 85 5b  	addi	a1, a1, 0x5b8
   11d6e: 14 66        	ld	a3, 0x8(a2)
   11d70: 03 b8 05 01  	ld	a6, 0x10(a1)
   11d74: f1 9a        	andi	a3, a3, -0x4
   11d76: 63 0e c8 12  	beq	a6, a2, 0x11eb2 <_free_r+0x170>
   11d7a: 14 e6        	sd	a3, 0x8(a2)
   11d7c: 05 89        	andi	a0, a0, 0x1
   11d7e: 33 08 d6 00  	add	a6, a2, a3
   11d82: 49 e1        	bnez	a0, 0x11e04 <_free_r+0xc2>
   11d84: 03 33 04 ff  	ld	t1, -0x10(s0)
   11d88: 03 38 88 00  	ld	a6, 0x8(a6)
   11d8c: 37 15 02 00  	lui	a0, 0x21
   11d90: 33 07 67 40  	sub	a4, a4, t1
   11d94: 83 38 07 01  	ld	a7, 0x10(a4)
   11d98: 13 05 85 5c  	addi	a0, a0, 0x5c8
   11d9c: 9a 97        	add	a5, a5, t1
   11d9e: 13 78 18 00  	andi	a6, a6, 0x1
   11da2: 63 8b a8 0e  	beq	a7, a0, 0x11e98 <_free_r+0x156>
   11da6: 03 33 87 01  	ld	t1, 0x18(a4)
   11daa: 23 bc 68 00  	sd	t1, 0x18(a7)
   11dae: 23 38 13 01  	sd	a7, 0x10(t1)
   11db2: 63 09 08 12  	beqz	a6, 0x11ee4 <_free_r+0x1a2>
   11db6: 93 e6 17 00  	ori	a3, a5, 0x1
   11dba: 14 e7        	sd	a3, 0x8(a4)
   11dbc: 1c e2        	sd	a5, 0x0(a2)
   11dbe: 93 06 f0 1f  	li	a3, 0x1ff
   11dc2: 63 ee f6 04  	bltu	a3, a5, 0x11e1e <_free_r+0xdc>
   11dc6: 8d 83        	srli	a5, a5, 0x3
   11dc8: 9b 86 17 00  	addiw	a3, a5, 0x1
   11dcc: 9b 96 16 00  	slliw	a3, a3, 0x1
   11dd0: 8e 06        	slli	a3, a3, 0x3
   11dd2: 03 b8 85 00  	ld	a6, 0x8(a1)
   11dd6: ae 96        	add	a3, a3, a1
   11dd8: 88 62        	ld	a0, 0x0(a3)
   11dda: 1b d6 27 40  	sraiw	a2, a5, 0x2
   11dde: 85 47        	li	a5, 0x1
   11de0: b3 97 c7 00  	sll	a5, a5, a2
   11de4: b3 e7 07 01  	or	a5, a5, a6
   11de8: 13 86 06 ff  	addi	a2, a3, -0x10
   11dec: 10 ef        	sd	a2, 0x18(a4)
   11dee: 08 eb        	sd	a0, 0x10(a4)
   11df0: 9c e5        	sd	a5, 0x8(a1)
   11df2: 98 e2        	sd	a4, 0x0(a3)
   11df4: 18 ed        	sd	a4, 0x18(a0)
   11df6: 42 64        	ld	s0, 0x10(sp)
   11df8: e2 60        	ld	ra, 0x18(sp)
   11dfa: 26 85        	mv	a0, s1
   11dfc: a2 64        	ld	s1, 0x8(sp)
   11dfe: 05 61        	addi	sp, sp, 0x20
   11e00: 6f e0 1f fe  	j	0x10de0 <__malloc_unlock>
   11e04: 03 35 88 00  	ld	a0, 0x8(a6)
   11e08: 05 89        	andi	a0, a0, 0x1
   11e0a: 35 c1        	beqz	a0, 0x11e6e <_free_r+0x12c>
   11e0c: 93 e6 17 00  	ori	a3, a5, 0x1
   11e10: 23 3c d4 fe  	sd	a3, -0x8(s0)
   11e14: 1c e2        	sd	a5, 0x0(a2)
   11e16: 93 06 f0 1f  	li	a3, 0x1ff
   11e1a: e3 f6 f6 fa  	bgeu	a3, a5, 0x11dc6 <_free_r+0x84>
   11e1e: 93 d6 97 00  	srli	a3, a5, 0x9
   11e22: 11 46        	li	a2, 0x4
   11e24: 63 62 d6 0c  	bltu	a2, a3, 0x11ee8 <_free_r+0x1a6>
   11e28: 93 d6 67 00  	srli	a3, a5, 0x6
   11e2c: 1b 85 96 03  	addiw	a0, a3, 0x39
   11e30: 1b 15 15 00  	slliw	a0, a0, 0x1
   11e34: 1b 86 86 03  	addiw	a2, a3, 0x38
   11e38: 0e 05        	slli	a0, a0, 0x3
   11e3a: 2e 95        	add	a0, a0, a1
   11e3c: 14 61        	ld	a3, 0x0(a0)
   11e3e: 41 15        	addi	a0, a0, -0x10
   11e40: 63 16 d5 00  	bne	a0, a3, 0x11e4c <_free_r+0x10a>
   11e44: ed a0        	j	0x11f2e <_free_r+0x1ec>
   11e46: 94 6a        	ld	a3, 0x10(a3)
   11e48: 63 06 d5 00  	beq	a0, a3, 0x11e54 <_free_r+0x112>
   11e4c: 90 66        	ld	a2, 0x8(a3)
   11e4e: 71 9a        	andi	a2, a2, -0x4
   11e50: e3 eb c7 fe  	bltu	a5, a2, 0x11e46 <_free_r+0x104>
   11e54: 88 6e        	ld	a0, 0x18(a3)
   11e56: 08 ef        	sd	a0, 0x18(a4)
   11e58: 14 eb        	sd	a3, 0x10(a4)
   11e5a: 42 64        	ld	s0, 0x10(sp)
   11e5c: 18 e9        	sd	a4, 0x10(a0)
   11e5e: e2 60        	ld	ra, 0x18(sp)
   11e60: 26 85        	mv	a0, s1
   11e62: a2 64        	ld	s1, 0x8(sp)
   11e64: 98 ee        	sd	a4, 0x18(a3)
   11e66: 05 61        	addi	sp, sp, 0x20
   11e68: 6f e0 9f f7  	j	0x10de0 <__malloc_unlock>
   11e6c: 82 80        	ret
   11e6e: 37 15 02 00  	lui	a0, 0x21
   11e72: b6 97        	add	a5, a5, a3
   11e74: 13 05 85 5c  	addi	a0, a0, 0x5c8
   11e78: 14 6a        	ld	a3, 0x10(a2)
   11e7a: 63 80 a6 0a  	beq	a3, a0, 0x11f1a <_free_r+0x1d8>
   11e7e: 03 38 86 01  	ld	a6, 0x18(a2)
   11e82: 13 e5 17 00  	ori	a0, a5, 0x1
   11e86: 33 06 f7 00  	add	a2, a4, a5
   11e8a: 23 bc 06 01  	sd	a6, 0x18(a3)
   11e8e: 23 38 d8 00  	sd	a3, 0x10(a6)
   11e92: 08 e7        	sd	a0, 0x8(a4)
   11e94: 1c e2        	sd	a5, 0x0(a2)
   11e96: 25 b7        	j	0x11dbe <_free_r+0x7c>
   11e98: 63 17 08 0e  	bnez	a6, 0x11f86 <_free_r+0x244>
   11e9c: 0c 6a        	ld	a1, 0x10(a2)
   11e9e: 10 6e        	ld	a2, 0x18(a2)
   11ea0: be 96        	add	a3, a3, a5
   11ea2: 93 e7 16 00  	ori	a5, a3, 0x1
   11ea6: 90 ed        	sd	a2, 0x18(a1)
   11ea8: 0c ea        	sd	a1, 0x10(a2)
   11eaa: 1c e7        	sd	a5, 0x8(a4)
   11eac: 36 97        	add	a4, a4, a3
   11eae: 14 e3        	sd	a3, 0x0(a4)
   11eb0: 99 b7        	j	0x11df6 <_free_r+0xb4>
   11eb2: 05 89        	andi	a0, a0, 0x1
   11eb4: be 96        	add	a3, a3, a5
   11eb6: 09 e9        	bnez	a0, 0x11ec8 <_free_r+0x186>
   11eb8: 03 35 04 ff  	ld	a0, -0x10(s0)
   11ebc: 09 8f        	sub	a4, a4, a0
   11ebe: 1c 6f        	ld	a5, 0x18(a4)
   11ec0: 10 6b        	ld	a2, 0x10(a4)
   11ec2: aa 96        	add	a3, a3, a0
   11ec4: 1c ee        	sd	a5, 0x18(a2)
   11ec6: 90 eb        	sd	a2, 0x10(a5)
   11ec8: 13 e6 16 00  	ori	a2, a3, 0x1
   11ecc: 83 b7 01 88  	ld	a5, -0x780(gp)
   11ed0: 10 e7        	sd	a2, 0x8(a4)
   11ed2: 98 e9        	sd	a4, 0x10(a1)
   11ed4: e3 e1 f6 f2  	bltu	a3, a5, 0x11df6 <_free_r+0xb4>
   11ed8: 83 b5 81 8e  	ld	a1, -0x718(gp)
   11edc: 26 85        	mv	a0, s1
   11ede: ef f0 df d8  	jal	0x11c6a <_malloc_trim_r>
   11ee2: 11 bf        	j	0x11df6 <_free_r+0xb4>
   11ee4: b6 97        	add	a5, a5, a3
   11ee6: 49 bf        	j	0x11e78 <_free_r+0x136>
   11ee8: 51 46        	li	a2, 0x14
   11eea: 63 70 d6 02  	bgeu	a2, a3, 0x11f0a <_free_r+0x1c8>
   11eee: 13 06 40 05  	li	a2, 0x54
   11ef2: 63 69 d6 04  	bltu	a2, a3, 0x11f44 <_free_r+0x202>
   11ef6: 93 d6 c7 00  	srli	a3, a5, 0xc
   11efa: 1b 85 f6 06  	addiw	a0, a3, 0x6f
   11efe: 1b 15 15 00  	slliw	a0, a0, 0x1
   11f02: 1b 86 e6 06  	addiw	a2, a3, 0x6e
   11f06: 0e 05        	slli	a0, a0, 0x3
   11f08: 0d bf        	j	0x11e3a <_free_r+0xf8>
   11f0a: 1b 85 c6 05  	addiw	a0, a3, 0x5c
   11f0e: 1b 15 15 00  	slliw	a0, a0, 0x1
   11f12: 1b 86 b6 05  	addiw	a2, a3, 0x5b
   11f16: 0e 05        	slli	a0, a0, 0x3
   11f18: 0d b7        	j	0x11e3a <_free_r+0xf8>
   11f1a: 98 f5        	sd	a4, 0x28(a1)
   11f1c: 98 f1        	sd	a4, 0x20(a1)
   11f1e: 93 e6 17 00  	ori	a3, a5, 0x1
   11f22: 08 ef        	sd	a0, 0x18(a4)
   11f24: 08 eb        	sd	a0, 0x10(a4)
   11f26: 14 e7        	sd	a3, 0x8(a4)
   11f28: 3e 97        	add	a4, a4, a5
   11f2a: 1c e3        	sd	a5, 0x0(a4)
   11f2c: e9 b5        	j	0x11df6 <_free_r+0xb4>
   11f2e: 03 b8 85 00  	ld	a6, 0x8(a1)
   11f32: 1b 56 26 40  	sraiw	a2, a2, 0x2
   11f36: 85 47        	li	a5, 0x1
   11f38: b3 97 c7 00  	sll	a5, a5, a2
   11f3c: b3 e7 07 01  	or	a5, a5, a6
   11f40: 9c e5        	sd	a5, 0x8(a1)
   11f42: 11 bf        	j	0x11e56 <_free_r+0x114>
   11f44: 13 06 40 15  	li	a2, 0x154
   11f48: 63 6c d6 00  	bltu	a2, a3, 0x11f60 <_free_r+0x21e>
   11f4c: 93 d6 f7 00  	srli	a3, a5, 0xf
   11f50: 1b 85 86 07  	addiw	a0, a3, 0x78
   11f54: 1b 15 15 00  	slliw	a0, a0, 0x1
   11f58: 1b 86 76 07  	addiw	a2, a3, 0x77
   11f5c: 0e 05        	slli	a0, a0, 0x3
   11f5e: f1 bd        	j	0x11e3a <_free_r+0xf8>
   11f60: 13 06 40 55  	li	a2, 0x554
   11f64: 63 6c d6 00  	bltu	a2, a3, 0x11f7c <_free_r+0x23a>
   11f68: 93 d6 27 01  	srli	a3, a5, 0x12
   11f6c: 1b 85 d6 07  	addiw	a0, a3, 0x7d
   11f70: 1b 15 15 00  	slliw	a0, a0, 0x1
   11f74: 1b 86 c6 07  	addiw	a2, a3, 0x7c
   11f78: 0e 05        	slli	a0, a0, 0x3
   11f7a: c1 b5        	j	0x11e3a <_free_r+0xf8>
   11f7c: 13 05 00 7f  	li	a0, 0x7f0
   11f80: 13 06 e0 07  	li	a2, 0x7e
   11f84: 5d bd        	j	0x11e3a <_free_r+0xf8>
   11f86: 93 e6 17 00  	ori	a3, a5, 0x1
   11f8a: 14 e7        	sd	a3, 0x8(a4)
   11f8c: 1c e2        	sd	a5, 0x0(a2)
   11f8e: a5 b5        	j	0x11df6 <_free_r+0xb4>

0000000000011f90 <_vfprintf_r>:
   11f90: 13 01 01 db  	addi	sp, sp, -0x250
   11f94: 23 34 11 24  	sd	ra, 0x248(sp)
   11f98: 23 30 81 24  	sd	s0, 0x240(sp)
   11f9c: 23 38 21 23  	sd	s2, 0x230(sp)
   11fa0: e6 ff        	sd	s9, 0x1f8(sp)
   11fa2: 2e 89        	mv	s2, a1
   11fa4: b2 8c        	mv	s9, a2
   11fa6: 36 f0        	sd	a3, 0x20(sp)
   11fa8: 2a 84        	mv	s0, a0
   11faa: 2a e4        	sd	a0, 0x8(sp)
   11fac: ef 30 20 64  	jal	0x155ee <_localeconv_r>
   11fb0: 1c 61        	ld	a5, 0x0(a0)
   11fb2: 3e 85        	mv	a0, a5
   11fb4: be ec        	sd	a5, 0x58(sp)
   11fb6: ef f0 7f ac  	jal	0x11a7c <strlen>
   11fba: aa e8        	sd	a0, 0x50(sp)
   11fbc: 82 e9        	sd	zero, 0xd0(sp)
   11fbe: 82 ed        	sd	zero, 0xd8(sp)
   11fc0: 09 c4        	beqz	s0, 0x11fca <_vfprintf_r+0x3a>
   11fc2: 38 64        	ld	a4, 0x48(s0)
   11fc4: 19 e3        	bnez	a4, 0x11fca <_vfprintf_r+0x3a>
   11fc6: 6f 10 e0 23  	j	0x13204 <_vfprintf_r+0x1274>
   11fca: 03 17 09 01  	lh	a4, 0x10(s2)
   11fce: 93 16 27 03  	slli	a3, a4, 0x32
   11fd2: 63 c1 06 02  	bltz	a3, 0x11ff4 <_vfprintf_r+0x64>
   11fd6: 83 26 c9 0a  	lw	a3, 0xac(s2)
   11fda: 89 65        	lui	a1, 0x2
   11fdc: 79 76        	lui	a2, 0xffffe
   11fde: 4d 8f        	or	a4, a4, a1
   11fe0: 7d 16        	addi	a2, a2, -0x1
   11fe2: 1b 17 07 01  	slliw	a4, a4, 0x10
   11fe6: 1b 57 07 41  	sraiw	a4, a4, 0x10
   11fea: f1 8e        	and	a3, a3, a2
   11fec: 23 18 e9 00  	sh	a4, 0x10(s2)
   11ff0: 23 26 d9 0a  	sw	a3, 0xac(s2)
   11ff4: 93 76 87 00  	andi	a3, a4, 0x8
   11ff8: 63 80 06 26  	beqz	a3, 0x12258 <_vfprintf_r+0x2c8>
   11ffc: 83 36 89 01  	ld	a3, 0x18(s2)
   12000: 63 8c 06 24  	beqz	a3, 0x12258 <_vfprintf_r+0x2c8>
   12004: 69 8b        	andi	a4, a4, 0x1a
   12006: a9 46        	li	a3, 0xa
   12008: 63 05 d7 26  	beq	a4, a3, 0x12272 <_vfprintf_r+0x2e2>
   1200c: 23 30 41 23  	sd	s4, 0x220(sp)
   12010: 23 3c 51 21  	sd	s5, 0x218(sp)
   12014: ea fb        	sd	s10, 0x1f0(sp)
   12016: 37 07 02 00  	lui	a4, 0x20
   1201a: 23 3c 91 22  	sd	s1, 0x238(sp)
   1201e: 23 34 31 23  	sd	s3, 0x228(sp)
   12022: 23 38 61 21  	sd	s6, 0x210(sp)
   12026: 23 34 71 21  	sd	s7, 0x208(sp)
   1202a: 23 30 81 21  	sd	s8, 0x200(sp)
   1202e: ee f7        	sd	s11, 0x1e8(sp)
   12030: 66 8d        	mv	s10, s9
   12032: 93 07 07 ce  	addi	a5, a4, -0x320
   12036: 03 47 0d 00  	lbu	a4, 0x0(s10)
   1203a: 13 0a 01 16  	addi	s4, sp, 0x160
   1203e: b7 0a 02 00  	lui	s5, 0x20
   12042: d2 f1        	sd	s4, 0xe0(sp)
   12044: 82 f9        	sd	zero, 0xf0(sp)
   12046: 82 d5        	sw	zero, 0xe8(sp)
   12048: 02 fc        	sd	zero, 0x38(sp)
   1204a: 82 f0        	sd	zero, 0x60(sp)
   1204c: 82 f8        	sd	zero, 0x70(sp)
   1204e: 02 e1        	sd	zero, 0x80(sp)
   12050: 02 e5        	sd	zero, 0x88(sp)
   12052: 82 fc        	sd	zero, 0x78(sp)
   12054: 02 e8        	sd	zero, 0x10(sp)
   12056: 3e f4        	sd	a5, 0x28(sp)
   12058: 52 84        	mv	s0, s4
   1205a: 93 8a 0a e5  	addi	s5, s5, -0x1b0
   1205e: 63 01 07 1a  	beqz	a4, 0x12200 <_vfprintf_r+0x270>
   12062: ea 89        	mv	s3, s10
   12064: 93 06 50 02  	li	a3, 0x25
   12068: 63 0d d7 2c  	beq	a4, a3, 0x12342 <_vfprintf_r+0x3b2>
   1206c: 03 c7 19 00  	lbu	a4, 0x1(s3)
   12070: 85 09        	addi	s3, s3, 0x1
   12072: 7d fb        	bnez	a4, 0x12068 <_vfprintf_r+0xd8>
   12074: bb 84 a9 41  	subw	s1, s3, s10
   12078: 63 84 04 18  	beqz	s1, 0x12200 <_vfprintf_r+0x270>
   1207c: 2e 57        	lw	a4, 0xe8(sp)
   1207e: ce 76        	ld	a3, 0xf0(sp)
   12080: 23 30 a4 01  	sd	s10, 0x0(s0)
   12084: 05 27        	addiw	a4, a4, 0x1
   12086: a6 96        	add	a3, a3, s1
   12088: 04 e4        	sd	s1, 0x8(s0)
   1208a: b6 f9        	sd	a3, 0xf0(sp)
   1208c: ba d5        	sw	a4, 0xe8(sp)
   1208e: 9b 06 07 00  	sext.w	a3, a4
   12092: 1d 47        	li	a4, 0x7
   12094: 41 04        	addi	s0, s0, 0x10
   12096: 63 4d d7 2a  	blt	a4, a3, 0x12350 <_vfprintf_r+0x3c0>
   1209a: c2 67        	ld	a5, 0x10(sp)
   1209c: 03 c7 09 00  	lbu	a4, 0x0(s3)
   120a0: a5 9f        	addw	a5, a5, s1
   120a2: 3e e8        	sd	a5, 0x10(sp)
   120a4: 63 0e 07 14  	beqz	a4, 0x12200 <_vfprintf_r+0x270>
   120a8: 03 c3 19 00  	lbu	t1, 0x1(s3)
   120ac: a3 07 01 0a  	sb	zero, 0xaf(sp)
   120b0: 85 09        	addi	s3, s3, 0x1
   120b2: 7d 5b        	li	s6, -0x1
   120b4: 81 4b        	li	s7, 0x0
   120b6: 81 4d        	li	s11, 0x0
   120b8: 93 04 a0 05  	li	s1, 0x5a
   120bc: 85 09        	addi	s3, s3, 0x1
   120be: 01 23        	sext.w	t1, t1
   120c0: 9b 07 03 fe  	addiw	a5, t1, -0x20
   120c4: 1b 87 07 00  	sext.w	a4, a5
   120c8: 63 e5 e4 04  	bltu	s1, a4, 0x12112 <_vfprintf_r+0x182>
   120cc: 13 97 07 02  	slli	a4, a5, 0x20
   120d0: 93 57 e7 01  	srli	a5, a4, 0x1e
   120d4: 22 77        	ld	a4, 0x28(sp)
   120d6: ba 97        	add	a5, a5, a4
   120d8: 9c 43        	lw	a5, 0x0(a5)
   120da: 82 87        	jr	a5
   120dc: 81 4b        	li	s7, 0x0
   120de: a5 46        	li	a3, 0x9
   120e0: 03 c7 09 00  	lbu	a4, 0x0(s3)
   120e4: 9b 97 2b 00  	slliw	a5, s7, 0x2
   120e8: bb 8b 77 01  	addw	s7, a5, s7
   120ec: 1b 03 03 fd  	addiw	t1, t1, -0x30
   120f0: 9b 9b 1b 00  	slliw	s7, s7, 0x1
   120f4: 9b 07 07 fd  	addiw	a5, a4, -0x30
   120f8: bb 0b 73 01  	addw	s7, t1, s7
   120fc: 85 09        	addi	s3, s3, 0x1
   120fe: 1b 03 07 00  	sext.w	t1, a4
   12102: e3 ff f6 fc  	bgeu	a3, a5, 0x120e0 <_vfprintf_r+0x150>
   12106: 9b 07 03 fe  	addiw	a5, t1, -0x20
   1210a: 1b 87 07 00  	sext.w	a4, a5
   1210e: e3 ff e4 fa  	bgeu	s1, a4, 0x120cc <_vfprintf_r+0x13c>
   12112: 63 07 03 0e  	beqz	t1, 0x12200 <_vfprintf_r+0x270>
   12116: 23 0c 61 0e  	sb	t1, 0xf8(sp)
   1211a: a3 07 01 0a  	sb	zero, 0xaf(sp)
   1211e: 05 4c        	li	s8, 0x1
   12120: 85 46        	li	a3, 0x1
   12122: 13 0d 81 0f  	addi	s10, sp, 0xf8
   12126: 02 ec        	sd	zero, 0x18(sp)
   12128: 01 4b        	li	s6, 0x0
   1212a: 82 e4        	sd	zero, 0x48(sp)
   1212c: 82 e0        	sd	zero, 0x40(sp)
   1212e: 02 f8        	sd	zero, 0x30(sp)
   12130: 93 f2 2d 00  	andi	t0, s11, 0x2
   12134: 63 83 02 00  	beqz	t0, 0x1213a <_vfprintf_r+0x1aa>
   12138: 09 2c        	addiw	s8, s8, 0x2
   1213a: 93 fc 4d 08  	andi	s9, s11, 0x84
   1213e: ce 74        	ld	s1, 0xf0(sp)
   12140: 63 96 0c 00  	bnez	s9, 0x1214c <_vfprintf_r+0x1bc>
   12144: 3b 87 8b 41  	subw	a4, s7, s8
   12148: e3 4a e0 2e  	bgtz	a4, 0x12c3c <_vfprintf_r+0xcac>
   1214c: 03 47 f1 0a  	lbu	a4, 0xaf(sp)
   12150: 0d c3        	beqz	a4, 0x12172 <_vfprintf_r+0x1e2>
   12152: 2e 57        	lw	a4, 0xe8(sp)
   12154: 13 06 f1 0a  	addi	a2, sp, 0xaf
   12158: 10 e0        	sd	a2, 0x0(s0)
   1215a: 05 27        	addiw	a4, a4, 0x1
   1215c: 05 46        	li	a2, 0x1
   1215e: 85 04        	addi	s1, s1, 0x1
   12160: 10 e4        	sd	a2, 0x8(s0)
   12162: ba d5        	sw	a4, 0xe8(sp)
   12164: 1b 06 07 00  	sext.w	a2, a4
   12168: a6 f9        	sd	s1, 0xf0(sp)
   1216a: 1d 47        	li	a4, 0x7
   1216c: 41 04        	addi	s0, s0, 0x10
   1216e: 63 4c c7 4e  	blt	a4, a2, 0x12666 <_vfprintf_r+0x6d6>
   12172: 63 81 02 02  	beqz	t0, 0x12194 <_vfprintf_r+0x204>
   12176: 2e 57        	lw	a4, 0xe8(sp)
   12178: 09 46        	li	a2, 0x2
   1217a: 89 04        	addi	s1, s1, 0x2
   1217c: 05 27        	addiw	a4, a4, 0x1
   1217e: 1c 19        	addi	a5, sp, 0xb0
   12180: 10 e4        	sd	a2, 0x8(s0)
   12182: 1c e0        	sd	a5, 0x0(s0)
   12184: 1b 06 07 00  	sext.w	a2, a4
   12188: ba d5        	sw	a4, 0xe8(sp)
   1218a: a6 f9        	sd	s1, 0xf0(sp)
   1218c: 1d 47        	li	a4, 0x7
   1218e: 41 04        	addi	s0, s0, 0x10
   12190: e3 46 c7 34  	blt	a4, a2, 0x12cdc <_vfprintf_r+0xd4c>
   12194: 13 07 00 08  	li	a4, 0x80
   12198: e3 80 ec 12  	beq	s9, a4, 0x12ab8 <_vfprintf_r+0xb28>
   1219c: 3b 0b db 40  	subw	s6, s6, a3
   121a0: e3 40 60 1d  	bgtz	s6, 0x12b60 <_vfprintf_r+0xbd0>
   121a4: 13 f7 0d 10  	andi	a4, s11, 0x100
   121a8: e3 12 07 02  	bnez	a4, 0x129cc <_vfprintf_r+0xa3c>
   121ac: 2e 57        	lw	a4, 0xe8(sp)
   121ae: b6 94        	add	s1, s1, a3
   121b0: 23 30 a4 01  	sd	s10, 0x0(s0)
   121b4: 05 27        	addiw	a4, a4, 0x1
   121b6: 14 e4        	sd	a3, 0x8(s0)
   121b8: a6 f9        	sd	s1, 0xf0(sp)
   121ba: ba d5        	sw	a4, 0xe8(sp)
   121bc: 9d 47        	li	a5, 0x7
   121be: 63 c0 e7 56  	blt	a5, a4, 0x1271e <_vfprintf_r+0x78e>
   121c2: 41 04        	addi	s0, s0, 0x10
   121c4: 13 fe 4d 00  	andi	t3, s11, 0x4
   121c8: 63 06 0e 00  	beqz	t3, 0x121d4 <_vfprintf_r+0x244>
   121cc: 3b 8b 8b 41  	subw	s6, s7, s8
   121d0: e3 44 60 33  	bgtz	s6, 0x12cf8 <_vfprintf_r+0xd68>
   121d4: de 87        	mv	a5, s7
   121d6: 63 d3 8b 01  	bge	s7, s8, 0x121dc <_vfprintf_r+0x24c>
   121da: e2 87        	mv	a5, s8
   121dc: 42 67        	ld	a4, 0x10(sp)
   121de: b9 9f        	addw	a5, a5, a4
   121e0: 3e e8        	sd	a5, 0x10(sp)
   121e2: e3 9d 04 20  	bnez	s1, 0x12bfc <_vfprintf_r+0xc6c>
   121e6: e2 67        	ld	a5, 0x18(sp)
   121e8: 82 d5        	sw	zero, 0xe8(sp)
   121ea: 89 c7        	beqz	a5, 0x121f4 <_vfprintf_r+0x264>
   121ec: e2 65        	ld	a1, 0x18(sp)
   121ee: 22 65        	ld	a0, 0x8(sp)
   121f0: ef f0 3f b5  	jal	0x11d42 <_free_r>
   121f4: 52 84        	mv	s0, s4
   121f6: 4e 8d        	mv	s10, s3
   121f8: 03 47 0d 00  	lbu	a4, 0x0(s10)
   121fc: e3 13 07 e6  	bnez	a4, 0x12062 <_vfprintf_r+0xd2>
   12200: ce 77        	ld	a5, 0xf0(sp)
   12202: 99 c3        	beqz	a5, 0x12208 <_vfprintf_r+0x278>
   12204: 6f 10 a0 3c  	j	0x135ce <_vfprintf_r+0x163e>
   12208: 83 57 09 01  	lhu	a5, 0x10(s2)
   1220c: 83 34 81 23  	ld	s1, 0x238(sp)
   12210: 83 39 81 22  	ld	s3, 0x228(sp)
   12214: 93 f7 07 04  	andi	a5, a5, 0x40
   12218: 03 3a 01 22  	ld	s4, 0x220(sp)
   1221c: 83 3a 81 21  	ld	s5, 0x218(sp)
   12220: 03 3b 01 21  	ld	s6, 0x210(sp)
   12224: 83 3b 81 20  	ld	s7, 0x208(sp)
   12228: 03 3c 01 20  	ld	s8, 0x200(sp)
   1222c: 5e 7d        	ld	s10, 0x1f0(sp)
   1222e: be 7d        	ld	s11, 0x1e8(sp)
   12230: 99 c3        	beqz	a5, 0x12236 <_vfprintf_r+0x2a6>
   12232: 6f 10 40 6a  	j	0x138d6 <_vfprintf_r+0x1946>
   12236: 83 30 81 24  	ld	ra, 0x248(sp)
   1223a: 03 34 01 24  	ld	s0, 0x240(sp)
   1223e: 42 65        	ld	a0, 0x10(sp)
   12240: 03 39 01 23  	ld	s2, 0x230(sp)
   12244: fe 7c        	ld	s9, 0x1f8(sp)
   12246: 13 01 01 25  	addi	sp, sp, 0x250
   1224a: 82 80        	ret
   1224c: 93 ed 0d 01  	ori	s11, s11, 0x10
   12250: 03 c3 09 00  	lbu	t1, 0x0(s3)
   12254: 81 2d        	sext.w	s11, s11
   12256: 9d b5        	j	0x120bc <_vfprintf_r+0x12c>
   12258: 22 65        	ld	a0, 0x8(sp)
   1225a: ca 85        	mv	a1, s2
   1225c: ef 20 50 7a  	jal	0x15200 <__swsetup_r>
   12260: 19 c1        	beqz	a0, 0x12266 <_vfprintf_r+0x2d6>
   12262: 6f 10 40 67  	j	0x138d6 <_vfprintf_r+0x1946>
   12266: 03 17 09 01  	lh	a4, 0x10(s2)
   1226a: a9 46        	li	a3, 0xa
   1226c: 69 8b        	andi	a4, a4, 0x1a
   1226e: e3 1f d7 d8  	bne	a4, a3, 0x1200c <_vfprintf_r+0x7c>
   12272: 03 17 29 01  	lh	a4, 0x12(s2)
   12276: e3 4b 07 d8  	bltz	a4, 0x1200c <_vfprintf_r+0x7c>
   1227a: 82 76        	ld	a3, 0x20(sp)
   1227c: 22 65        	ld	a0, 0x8(sp)
   1227e: 66 86        	mv	a2, s9
   12280: ca 85        	mv	a1, s2
   12282: ef 10 b0 08  	jal	0x13b0c <__sbprintf>
   12286: 2a e8        	sd	a0, 0x10(sp)
   12288: 7d b7        	j	0x12236 <_vfprintf_r+0x2a6>
   1228a: 13 ee 0d 01  	ori	t3, s11, 0x10
   1228e: 9b 0d 0e 00  	sext.w	s11, t3
   12292: 82 76        	ld	a3, 0x20(sp)
   12294: 93 f7 0d 02  	andi	a5, s11, 0x20
   12298: 13 87 86 00  	addi	a4, a3, 0x8
   1229c: 63 88 07 4a  	beqz	a5, 0x1274c <_vfprintf_r+0x7bc>
   122a0: 9c 62        	ld	a5, 0x0(a3)
   122a2: be 84        	mv	s1, a5
   122a4: 63 c5 07 4c  	bltz	a5, 0x1276e <_vfprintf_r+0x7de>
   122a8: e3 4f 0b 4c  	bltz	s6, 0x12f86 <_vfprintf_r+0xff6>
   122ac: 93 fc fd f7  	andi	s9, s11, -0x81
   122b0: 81 2c        	sext.w	s9, s9
   122b2: 99 c0        	beqz	s1, 0x122b8 <_vfprintf_r+0x328>
   122b4: 6f 00 70 79  	j	0x1324a <_vfprintf_r+0x12ba>
   122b8: 63 04 0b 00  	beqz	s6, 0x122c0 <_vfprintf_r+0x330>
   122bc: 6f 10 e0 6a  	j	0x1396a <_vfprintf_r+0x19da>
   122c0: 81 46        	li	a3, 0x0
   122c2: 3a f0        	sd	a4, 0x20(sp)
   122c4: e6 8d        	mv	s11, s9
   122c6: 13 0d c1 15  	addi	s10, sp, 0x15c
   122ca: 03 47 f1 0a  	lbu	a4, 0xaf(sp)
   122ce: 5a 88        	mv	a6, s6
   122d0: 63 53 db 00  	bge	s6, a3, 0x122d6 <_vfprintf_r+0x346>
   122d4: 36 88        	mv	a6, a3
   122d6: 02 ec        	sd	zero, 0x18(sp)
   122d8: 82 e4        	sd	zero, 0x48(sp)
   122da: 82 e0        	sd	zero, 0x40(sp)
   122dc: 02 f8        	sd	zero, 0x30(sp)
   122de: 1b 0c 08 00  	sext.w	s8, a6
   122e2: e3 07 07 e4  	beqz	a4, 0x12130 <_vfprintf_r+0x1a0>
   122e6: 05 2c        	addiw	s8, s8, 0x1
   122e8: a1 b5        	j	0x12130 <_vfprintf_r+0x1a0>
   122ea: 13 ee 0d 01  	ori	t3, s11, 0x10
   122ee: 9b 0d 0e 00  	sext.w	s11, t3
   122f2: 82 76        	ld	a3, 0x20(sp)
   122f4: 93 f7 0d 02  	andi	a5, s11, 0x20
   122f8: 13 87 86 00  	addi	a4, a3, 0x8
   122fc: 63 8b 07 42  	beqz	a5, 0x12732 <_vfprintf_r+0x7a2>
   12300: 84 62        	ld	s1, 0x0(a3)
   12302: 93 fc fd bf  	andi	s9, s11, -0x401
   12306: 81 2c        	sext.w	s9, s9
   12308: 3a f0        	sd	a4, 0x20(sp)
   1230a: 81 47        	li	a5, 0x0
   1230c: 01 47        	li	a4, 0x0
   1230e: a3 07 e1 0a  	sb	a4, 0xaf(sp)
   12312: 63 49 0b 46  	bltz	s6, 0x12784 <_vfprintf_r+0x7f4>
   12316: 13 fe fc f7  	andi	t3, s9, -0x81
   1231a: 9b 0d 0e 00  	sext.w	s11, t3
   1231e: e3 9e 04 0e  	bnez	s1, 0x12c1a <_vfprintf_r+0xc8a>
   12322: 63 12 0b 76  	bnez	s6, 0x12a86 <_vfprintf_r+0xaf6>
   12326: e3 94 07 3e  	bnez	a5, 0x12f0e <_vfprintf_r+0xf7e>
   1232a: 93 f6 1c 00  	andi	a3, s9, 0x1
   1232e: 13 0d c1 15  	addi	s10, sp, 0x15c
   12332: c1 de        	beqz	a3, 0x122ca <_vfprintf_r+0x33a>
   12334: 93 07 00 03  	li	a5, 0x30
   12338: a3 0d f1 14  	sb	a5, 0x15b(sp)
   1233c: 13 0d b1 15  	addi	s10, sp, 0x15b
   12340: 69 b7        	j	0x122ca <_vfprintf_r+0x33a>
   12342: bb 84 a9 41  	subw	s1, s3, s10
   12346: e3 9b 04 d2  	bnez	s1, 0x1207c <_vfprintf_r+0xec>
   1234a: 03 c7 09 00  	lbu	a4, 0x0(s3)
   1234e: 99 bb        	j	0x120a4 <_vfprintf_r+0x114>
   12350: 22 65        	ld	a0, 0x8(sp)
   12352: 90 11        	addi	a2, sp, 0xe0
   12354: ca 85        	mv	a1, s2
   12356: ef 10 10 11  	jal	0x13c66 <__sprint_r>
   1235a: e3 17 05 ea  	bnez	a0, 0x12208 <_vfprintf_r+0x278>
   1235e: 52 84        	mv	s0, s4
   12360: 2d bb        	j	0x1209a <_vfprintf_r+0x10a>
   12362: 13 f7 8d 00  	andi	a4, s11, 0x8
   12366: e3 12 07 40  	bnez	a4, 0x12f6a <_vfprintf_r+0xfda>
   1236a: 82 77        	ld	a5, 0x20(sp)
   1236c: 1a ec        	sd	t1, 0x18(sp)
   1236e: 88 23        	fld	fa0, 0x0(a5)
   12370: 13 8c 87 00  	addi	s8, a5, 0x8
   12374: ef 70 e0 2a  	jal	0x19622 <__extenddftf2>
   12378: 62 63        	ld	t1, 0x18(sp)
   1237a: 2a 87        	mv	a4, a0
   1237c: 62 f0        	sd	s8, 0x20(sp)
   1237e: 88 09        	addi	a0, sp, 0xd0
   12380: 1a ec        	sd	t1, 0x18(sp)
   12382: ba e9        	sd	a4, 0xd0(sp)
   12384: ae ed        	sd	a1, 0xd8(sp)
   12386: ef 30 a0 70  	jal	0x15a90 <_ldcheck>
   1238a: 2a dd        	sw	a0, 0xb8(sp)
   1238c: 09 47        	li	a4, 0x2
   1238e: 62 63        	ld	t1, 0x18(sp)
   12390: e3 0f e5 6a  	beq	a0, a4, 0x1324e <_vfprintf_r+0x12be>
   12394: 05 47        	li	a4, 0x1
   12396: 63 14 e5 00  	bne	a0, a4, 0x1239e <_vfprintf_r+0x40e>
   1239a: 6f 00 b0 7d  	j	0x13374 <_vfprintf_r+0x13e4>
   1239e: 13 07 10 06  	li	a4, 0x61
   123a2: e3 0e e3 56  	beq	t1, a4, 0x1311e <_vfprintf_r+0x118e>
   123a6: 13 07 10 04  	li	a4, 0x41
   123aa: 93 07 80 05  	li	a5, 0x58
   123ae: e3 0a e3 56  	beq	t1, a4, 0x13122 <_vfprintf_r+0x1192>
   123b2: 7d 57        	li	a4, -0x1
   123b4: 63 14 eb 00  	bne	s6, a4, 0x123bc <_vfprintf_r+0x42c>
   123b8: 6f 10 e0 58  	j	0x13946 <_vfprintf_r+0x19b6>
   123bc: 13 77 f3 fd  	andi	a4, t1, -0x21
   123c0: 93 06 70 04  	li	a3, 0x47
   123c4: 02 ec        	sd	zero, 0x18(sp)
   123c6: 63 14 d7 00  	bne	a4, a3, 0x123ce <_vfprintf_r+0x43e>
   123ca: 6f 10 40 58  	j	0x1394e <_vfprintf_r+0x19be>
   123ce: ce 67        	ld	a5, 0xd0(sp)
   123d0: ee 6c        	ld	s9, 0xd8(sp)
   123d2: 13 e7 0d 10  	ori	a4, s11, 0x100
   123d6: 3e f8        	sd	a5, 0x30(sp)
   123d8: 82 f4        	sd	zero, 0x68(sp)
   123da: 9b 04 07 00  	sext.w	s1, a4
   123de: 63 d4 0c 00  	bgez	s9, 0x123e6 <_vfprintf_r+0x456>
   123e2: 6f 10 a0 39  	j	0x1377c <_vfprintf_r+0x17ec>
   123e6: 9b 06 f3 fb  	addiw	a3, t1, -0x41
   123ea: 13 07 50 02  	li	a4, 0x25
   123ee: 63 74 d7 00  	bgeu	a4, a3, 0x123f6 <_vfprintf_r+0x466>
   123f2: 6f 10 e0 3e  	j	0x137e0 <_vfprintf_r+0x1850>
   123f6: 05 47        	li	a4, 0x1
   123f8: 05 4c        	li	s8, 0x1
   123fa: 16 17        	slli	a4, a4, 0x25
   123fc: b3 16 dc 00  	sll	a3, s8, a3
   12400: 13 07 07 02  	addi	a4, a4, 0x20
   12404: 75 8f        	and	a4, a4, a3
   12406: 19 c3        	beqz	a4, 0x1240c <_vfprintf_r+0x47c>
   12408: 6f 10 00 29  	j	0x13698 <_vfprintf_r+0x1708>
   1240c: 05 47        	li	a4, 0x1
   1240e: 12 17        	slli	a4, a4, 0x24
   12410: 41 07        	addi	a4, a4, 0x10
   12412: 75 8f        	and	a4, a4, a3
   12414: 19 c3        	beqz	a4, 0x1241a <_vfprintf_r+0x48a>
   12416: 6f 10 e0 4c  	j	0x138e4 <_vfprintf_r+0x1954>
   1241a: 05 47        	li	a4, 0x1
   1241c: 02 17        	slli	a4, a4, 0x20
   1241e: 05 07        	addi	a4, a4, 0x1
   12420: f9 8e        	and	a3, a3, a4
   12422: 1a fc        	sd	t1, 0x38(sp)
   12424: 99 e2        	bnez	a3, 0x1242a <_vfprintf_r+0x49a>
   12426: 6f 10 c0 1f  	j	0x13622 <_vfprintf_r+0x1692>
   1242a: 42 75        	ld	a0, 0x30(sp)
   1242c: 30 19        	addi	a2, sp, 0xb8
   1242e: e6 85        	mv	a1, s9
   12430: ef 30 a0 43  	jal	0x1586a <frexpl>
   12434: b7 f6 ff 00  	lui	a3, 0xfff
   12438: 01 46        	li	a2, 0x0
   1243a: 9a 16        	slli	a3, a3, 0x26
   1243c: ef 60 c0 2b  	jal	0x186f8 <__multf3>
   12440: 01 46        	li	a2, 0x0
   12442: 81 46        	li	a3, 0x0
   12444: aa 8c        	mv	s9, a0
   12446: ae 84        	mv	s1, a1
   12448: ef 60 c0 0c  	jal	0x18514 <__netf2>
   1244c: 62 73        	ld	t1, 0x38(sp)
   1244e: 11 e1        	bnez	a0, 0x12452 <_vfprintf_r+0x4c2>
   12450: 62 dd        	sw	s8, 0xb8(sp)
   12452: 13 07 10 06  	li	a4, 0x61
   12456: 63 14 e3 00  	bne	t1, a4, 0x1245e <_vfprintf_r+0x4ce>
   1245a: 6f 10 60 61  	j	0x13a70 <_vfprintf_r+0x1ae0>
   1245e: 37 07 02 00  	lui	a4, 0x20
   12462: 93 07 07 bd  	addi	a5, a4, -0x430
   12466: 3e f8        	sd	a5, 0x30(sp)
   12468: 13 17 0b 02  	slli	a4, s6, 0x20
   1246c: 01 93        	srli	a4, a4, 0x20
   1246e: 05 07        	addi	a4, a4, 0x1
   12470: b7 36 00 04  	lui	a3, 0x4003
   12474: 1b 08 0b 00  	sext.w	a6, s6
   12478: b3 07 ed 00  	add	a5, s10, a4
   1247c: 92 16        	slli	a3, a3, 0x24
   1247e: 4e fc        	sd	s3, 0x38(sp)
   12480: a2 f8        	sd	s0, 0x70(sp)
   12482: 4a 8c        	mv	s8, s2
   12484: 42 7b        	ld	s6, 0x30(sp)
   12486: 9a e0        	sd	t1, 0x40(sp)
   12488: de e4        	sd	s7, 0x48(sp)
   1248a: 42 e9        	sd	a6, 0x90(sp)
   1248c: ea 89        	mv	s3, s10
   1248e: 3e 89        	mv	s2, a5
   12490: 36 84        	mv	s0, a3
   12492: 01 a8        	j	0x124a2 <_vfprintf_r+0x512>
   12494: 01 46        	li	a2, 0x0
   12496: 81 46        	li	a3, 0x0
   12498: ef 60 c0 07  	jal	0x18514 <__netf2>
   1249c: 19 e1        	bnez	a0, 0x124a2 <_vfprintf_r+0x512>
   1249e: 6f 10 20 59  	j	0x13a30 <_vfprintf_r+0x1aa0>
   124a2: 01 46        	li	a2, 0x0
   124a4: a2 86        	mv	a3, s0
   124a6: 66 85        	mv	a0, s9
   124a8: a6 85        	mv	a1, s1
   124aa: ef 60 e0 24  	jal	0x186f8 <__multf3>
   124ae: ae 84        	mv	s1, a1
   124b0: aa 8c        	mv	s9, a0
   124b2: ef 70 40 08  	jal	0x19536 <__fixtfsi>
   124b6: 9b 0b 05 00  	sext.w	s7, a0
   124ba: ef 70 20 11  	jal	0x195cc <__floatsitf>
   124be: ae 86        	mv	a3, a1
   124c0: 2a 86        	mv	a2, a0
   124c2: a6 85        	mv	a1, s1
   124c4: 66 85        	mv	a0, s9
   124c6: ef 60 90 02  	jal	0x18cee <__subtf3>
   124ca: b3 06 7b 01  	add	a3, s6, s7
   124ce: 83 c6 06 00  	lbu	a3, 0x0(a3)
   124d2: ce 88        	mv	a7, s3
   124d4: 85 09        	addi	s3, s3, 0x1
   124d6: a3 8f d9 fe  	sb	a3, -0x1(s3)
   124da: aa 8c        	mv	s9, a0
   124dc: ae 84        	mv	s1, a1
   124de: e3 1b 39 fb  	bne	s2, s3, 0x12494 <_vfprintf_r+0x504>
   124e2: 06 63        	ld	t1, 0x40(sp)
   124e4: b7 f6 ff 01  	lui	a3, 0x1fff
   124e8: 96 16        	slli	a3, a3, 0x25
   124ea: 01 46        	li	a2, 0x0
   124ec: 1a e9        	sd	t1, 0x90(sp)
   124ee: c6 e0        	sd	a7, 0x40(sp)
   124f0: 5e 8b        	mv	s6, s7
   124f2: a6 6b        	ld	s7, 0x48(sp)
   124f4: b6 e4        	sd	a3, 0x48(sp)
   124f6: ef 60 60 0c  	jal	0x185bc <__gttf2>
   124fa: 62 89        	mv	s2, s8
   124fc: 46 74        	ld	s0, 0x70(sp)
   124fe: 4e 8c        	mv	s8, s3
   12500: 86 68        	ld	a7, 0x40(sp)
   12502: e2 79        	ld	s3, 0x38(sp)
   12504: 4a 63        	ld	t1, 0x90(sp)
   12506: 63 40 a0 02  	bgtz	a0, 0x12526 <_vfprintf_r+0x596>
   1250a: a6 66        	ld	a3, 0x48(sp)
   1250c: 01 46        	li	a2, 0x0
   1250e: 66 85        	mv	a0, s9
   12510: a6 85        	mv	a1, s1
   12512: 1a fc        	sd	t1, 0x38(sp)
   12514: ef 60 00 00  	jal	0x18514 <__netf2>
   12518: 62 73        	ld	t1, 0x38(sp)
   1251a: 39 e5        	bnez	a0, 0x12568 <_vfprintf_r+0x5d8>
   1251c: 13 7b 1b 00  	andi	s6, s6, 0x1
   12520: 86 68        	ld	a7, 0x40(sp)
   12522: 63 03 0b 04  	beqz	s6, 0x12568 <_vfprintf_r+0x5d8>
   12526: c2 77        	ld	a5, 0x30(sp)
   12528: c6 e5        	sd	a7, 0xc8(sp)
   1252a: 03 46 fc ff  	lbu	a2, -0x1(s8)
   1252e: 83 c5 f7 00  	lbu	a1, 0xf(a5)
   12532: e2 86        	mv	a3, s8
   12534: 63 1e b6 00  	bne	a2, a1, 0x12550 <_vfprintf_r+0x5c0>
   12538: 13 05 00 03  	li	a0, 0x30
   1253c: a3 8f a6 fe  	sb	a0, -0x1(a3)
   12540: ae 66        	ld	a3, 0xc8(sp)
   12542: 93 87 f6 ff  	addi	a5, a3, -0x1
   12546: be e5        	sd	a5, 0xc8(sp)
   12548: 03 c6 f6 ff  	lbu	a2, -0x1(a3)
   1254c: e3 88 c5 fe  	beq	a1, a2, 0x1253c <_vfprintf_r+0x5ac>
   12550: 9b 05 16 00  	addiw	a1, a2, 0x1
   12554: 13 05 90 03  	li	a0, 0x39
   12558: 93 f5 f5 0f  	andi	a1, a1, 0xff
   1255c: 63 14 a6 00  	bne	a2, a0, 0x12564 <_vfprintf_r+0x5d4>
   12560: 6f 10 a0 11  	j	0x1367a <_vfprintf_r+0x16ea>
   12564: a3 8f b6 fe  	sb	a1, -0x1(a3)
   12568: e2 86        	mv	a3, s8
   1256a: ea 57        	lw	a5, 0xb8(sp)
   1256c: 3b 87 a6 41  	subw	a4, a3, s10
   12570: 3a fc        	sd	a4, 0x38(sp)
   12572: 1b 87 f7 ff  	addiw	a4, a5, -0x1
   12576: 3e f8        	sd	a5, 0x30(sp)
   12578: 13 06 10 06  	li	a2, 0x61
   1257c: 3a dd        	sw	a4, 0xb8(sp)
   1257e: 63 14 c3 00  	bne	t1, a2, 0x12586 <_vfprintf_r+0x5f6>
   12582: 6f 10 c0 4f  	j	0x13a7e <_vfprintf_r+0x1aee>
   12586: 13 06 10 04  	li	a2, 0x41
   1258a: 93 06 00 05  	li	a3, 0x50
   1258e: 63 04 c3 00  	beq	t1, a2, 0x12596 <_vfprintf_r+0x606>
   12592: 6f 10 e0 0d  	j	0x13670 <_vfprintf_r+0x16e0>
   12596: 05 46        	li	a2, 0x1
   12598: 23 00 d1 0c  	sb	a3, 0xc0(sp)
   1259c: 93 06 b0 02  	li	a3, 0x2b
   125a0: 63 57 07 00  	bgez	a4, 0x125ae <_vfprintf_r+0x61e>
   125a4: c2 77        	ld	a5, 0x30(sp)
   125a6: 05 47        	li	a4, 0x1
   125a8: 93 06 d0 02  	li	a3, 0x2d
   125ac: 1d 9f        	subw	a4, a4, a5
   125ae: a3 00 d1 0c  	sb	a3, 0xc1(sp)
   125b2: a5 46        	li	a3, 0x9
   125b4: 63 c4 e6 00  	blt	a3, a4, 0x125bc <_vfprintf_r+0x62c>
   125b8: 6f 10 40 36  	j	0x1391c <_vfprintf_r+0x198c>
   125bc: 93 08 f1 0c  	addi	a7, sp, 0xcf
   125c0: 46 85        	mv	a0, a7
   125c2: 29 48        	li	a6, 0xa
   125c4: 13 0f 30 06  	li	t5, 0x63
   125c8: bb 67 07 03  	remw	a5, a4, a6
   125cc: aa 86        	mv	a3, a0
   125ce: 3a 86        	mv	a2, a4
   125d0: 7d 15        	addi	a0, a0, -0x1
   125d2: 9b 87 07 03  	addiw	a5, a5, 0x30
   125d6: a3 8f f6 fe  	sb	a5, -0x1(a3)
   125da: 3b 47 07 03  	divw	a4, a4, a6
   125de: e3 45 cf fe  	blt	t5, a2, 0x125c8 <_vfprintf_r+0x638>
   125e2: 9b 05 07 03  	addiw	a1, a4, 0x30
   125e6: a3 0f b5 fe  	sb	a1, -0x1(a0)
   125ea: 13 87 e6 ff  	addi	a4, a3, -0x2
   125ee: 63 64 17 01  	bltu	a4, a7, 0x125f6 <_vfprintf_r+0x666>
   125f2: 6f 10 c0 4c  	j	0x13abe <_vfprintf_r+0x1b2e>
   125f6: 13 06 21 0c  	addi	a2, sp, 0xc2
   125fa: 83 47 07 00  	lbu	a5, 0x0(a4)
   125fe: 05 07        	addi	a4, a4, 0x1
   12600: 05 06        	addi	a2, a2, 0x1
   12602: a3 0f f6 fe  	sb	a5, -0x1(a2)
   12606: e3 1a 17 ff  	bne	a4, a7, 0x125fa <_vfprintf_r+0x66a>
   1260a: 9c 13        	addi	a5, sp, 0x1e0
   1260c: b3 86 d7 40  	sub	a3, a5, a3
   12610: 9b 87 36 ef  	addiw	a5, a3, -0x10d
   12614: be f8        	sd	a5, 0x70(sp)
   12616: 46 77        	ld	a4, 0x70(sp)
   12618: e2 77        	ld	a5, 0x38(sp)
   1261a: 05 46        	li	a2, 0x1
   1261c: bb 86 e7 00  	addw	a3, a5, a4
   12620: 36 87        	mv	a4, a3
   12622: 63 44 f6 00  	blt	a2, a5, 0x1262a <_vfprintf_r+0x69a>
   12626: 6f 10 60 33  	j	0x1395c <_vfprintf_r+0x19cc>
   1262a: c6 67        	ld	a5, 0x50(sp)
   1262c: bb 06 f7 00  	addw	a3, a4, a5
   12630: 13 c8 f6 ff  	not	a6, a3
   12634: 13 fe fd bf  	andi	t3, s11, -0x401
   12638: 13 58 f8 43  	srai	a6, a6, 0x3f
   1263c: 01 2e        	sext.w	t3, t3
   1263e: 33 f8 06 01  	and	a6, a3, a6
   12642: 93 6d 0e 10  	ori	s11, t3, 0x100
   12646: 1b 0c 08 00  	sext.w	s8, a6
   1264a: 82 e4        	sd	zero, 0x48(sp)
   1264c: 82 e0        	sd	zero, 0x40(sp)
   1264e: 02 f8        	sd	zero, 0x30(sp)
   12650: a6 77        	ld	a5, 0x68(sp)
   12652: 99 e3        	bnez	a5, 0x12658 <_vfprintf_r+0x6c8>
   12654: 6f 10 40 03  	j	0x13688 <_vfprintf_r+0x16f8>
   12658: 13 07 d0 02  	li	a4, 0x2d
   1265c: a3 07 e1 0a  	sb	a4, 0xaf(sp)
   12660: 01 4b        	li	s6, 0x0
   12662: 05 2c        	addiw	s8, s8, 0x1
   12664: f1 b4        	j	0x12130 <_vfprintf_r+0x1a0>
   12666: 22 65        	ld	a0, 0x8(sp)
   12668: 90 11        	addi	a2, sp, 0xe0
   1266a: ca 85        	mv	a1, s2
   1266c: 36 ed        	sd	a3, 0x98(sp)
   1266e: 1a e9        	sd	t1, 0x90(sp)
   12670: 96 f4        	sd	t0, 0x68(sp)
   12672: ef 10 40 5f  	jal	0x13c66 <__sprint_r>
   12676: 63 1a 05 58  	bnez	a0, 0x12c0a <_vfprintf_r+0xc7a>
   1267a: ce 74        	ld	s1, 0xf0(sp)
   1267c: ea 66        	ld	a3, 0x98(sp)
   1267e: 4a 63        	ld	t1, 0x90(sp)
   12680: a6 72        	ld	t0, 0x68(sp)
   12682: 52 84        	mv	s0, s4
   12684: fd b4        	j	0x12172 <_vfprintf_r+0x1e2>
   12686: 2e 57        	lw	a4, 0xe8(sp)
   12688: e2 77        	ld	a5, 0x38(sp)
   1268a: 85 46        	li	a3, 0x1
   1268c: 1b 0b 17 00  	addiw	s6, a4, 0x1
   12690: 23 30 a4 01  	sd	s10, 0x0(s0)
   12694: 85 04        	addi	s1, s1, 0x1
   12696: 5a 87        	mv	a4, s6
   12698: 93 0c 04 01  	addi	s9, s0, 0x10
   1269c: 63 db f6 7c  	bge	a3, a5, 0x12e72 <_vfprintf_r+0xee2>
   126a0: 85 46        	li	a3, 0x1
   126a2: ba d5        	sw	a4, 0xe8(sp)
   126a4: 14 e4        	sd	a3, 0x8(s0)
   126a6: a6 f9        	sd	s1, 0xf0(sp)
   126a8: 1d 47        	li	a4, 0x7
   126aa: e3 41 67 2d  	blt	a4, s6, 0x1316c <_vfprintf_r+0x11dc>
   126ae: c6 67        	ld	a5, 0x50(sp)
   126b0: e6 66        	ld	a3, 0x58(sp)
   126b2: 05 2b        	addiw	s6, s6, 0x1
   126b4: be 94        	add	s1, s1, a5
   126b6: 23 b0 dc 00  	sd	a3, 0x0(s9)
   126ba: 23 b4 fc 00  	sd	a5, 0x8(s9)
   126be: a6 f9        	sd	s1, 0xf0(sp)
   126c0: da d5        	sw	s6, 0xe8(sp)
   126c2: 1d 47        	li	a4, 0x7
   126c4: c1 0c        	addi	s9, s9, 0x10
   126c6: e3 4f 67 2b  	blt	a4, s6, 0x13184 <_vfprintf_r+0x11f4>
   126ca: e2 77        	ld	a5, 0x38(sp)
   126cc: 4e 65        	ld	a0, 0xd0(sp)
   126ce: ee 65        	ld	a1, 0xd8(sp)
   126d0: 01 46        	li	a2, 0x0
   126d2: 81 46        	li	a3, 0x0
   126d4: 1b 84 f7 ff  	addiw	s0, a5, -0x1
   126d8: ef 50 d0 63  	jal	0x18514 <__netf2>
   126dc: 63 00 05 7c  	beqz	a0, 0x12e9c <_vfprintf_r+0xf0c>
   126e0: 93 07 1d 00  	addi	a5, s10, 0x1
   126e4: 05 2b        	addiw	s6, s6, 0x1
   126e6: a2 94        	add	s1, s1, s0
   126e8: 23 b0 fc 00  	sd	a5, 0x0(s9)
   126ec: 23 b4 8c 00  	sd	s0, 0x8(s9)
   126f0: a6 f9        	sd	s1, 0xf0(sp)
   126f2: da d5        	sw	s6, 0xe8(sp)
   126f4: 9d 47        	li	a5, 0x7
   126f6: 63 c8 67 79  	blt	a5, s6, 0x12e86 <_vfprintf_r+0xef6>
   126fa: c1 0c        	addi	s9, s9, 0x10
   126fc: 46 77        	ld	a4, 0x70(sp)
   126fe: 05 2b        	addiw	s6, s6, 0x1
   12700: 9c 01        	addi	a5, sp, 0xc0
   12702: ba 94        	add	s1, s1, a4
   12704: 23 b0 fc 00  	sd	a5, 0x0(s9)
   12708: 23 b4 ec 00  	sd	a4, 0x8(s9)
   1270c: a6 f9        	sd	s1, 0xf0(sp)
   1270e: 1b 07 0b 00  	sext.w	a4, s6
   12712: da d5        	sw	s6, 0xe8(sp)
   12714: 9d 47        	li	a5, 0x7
   12716: 13 84 0c 01  	addi	s0, s9, 0x10
   1271a: e3 d5 e7 aa  	bge	a5, a4, 0x121c4 <_vfprintf_r+0x234>
   1271e: 22 65        	ld	a0, 0x8(sp)
   12720: 90 11        	addi	a2, sp, 0xe0
   12722: ca 85        	mv	a1, s2
   12724: ef 10 20 54  	jal	0x13c66 <__sprint_r>
   12728: 63 11 05 4e  	bnez	a0, 0x12c0a <_vfprintf_r+0xc7a>
   1272c: ce 74        	ld	s1, 0xf0(sp)
   1272e: 52 84        	mv	s0, s4
   12730: 51 bc        	j	0x121c4 <_vfprintf_r+0x234>
   12732: 93 f7 0d 01  	andi	a5, s11, 0x10
   12736: e3 96 07 02  	bnez	a5, 0x12f62 <_vfprintf_r+0xfd2>
   1273a: 82 76        	ld	a3, 0x20(sp)
   1273c: 93 f7 0d 04  	andi	a5, s11, 0x40
   12740: 84 42        	lw	s1, 0x0(a3)
   12742: e3 85 07 3e  	beqz	a5, 0x1332c <_vfprintf_r+0x139c>
   12746: c2 14        	slli	s1, s1, 0x30
   12748: c1 90        	srli	s1, s1, 0x30
   1274a: 65 be        	j	0x12302 <_vfprintf_r+0x372>
   1274c: 93 f7 0d 01  	andi	a5, s11, 0x10
   12750: 63 9e 07 7c  	bnez	a5, 0x12f2c <_vfprintf_r+0xf9c>
   12754: 82 76        	ld	a3, 0x20(sp)
   12756: 93 f7 0d 04  	andi	a5, s11, 0x40
   1275a: 84 42        	lw	s1, 0x0(a3)
   1275c: e3 80 07 3e  	beqz	a5, 0x1333c <_vfprintf_r+0x13ac>
   12760: 9b 94 04 01  	slliw	s1, s1, 0x10
   12764: 9b d4 04 41  	sraiw	s1, s1, 0x10
   12768: a6 87        	mv	a5, s1
   1276a: e3 df 07 b2  	bgez	a5, 0x122a8 <_vfprintf_r+0x318>
   1276e: 3a f0        	sd	a4, 0x20(sp)
   12770: 13 07 d0 02  	li	a4, 0x2d
   12774: a3 07 e1 0a  	sb	a4, 0xaf(sp)
   12778: b3 04 90 40  	neg	s1, s1
   1277c: ee 8c        	mv	s9, s11
   1277e: 85 47        	li	a5, 0x1
   12780: e3 5b 0b b8  	bgez	s6, 0x12316 <_vfprintf_r+0x386>
   12784: 05 47        	li	a4, 0x1
   12786: 63 8e e7 48  	beq	a5, a4, 0x12c22 <_vfprintf_r+0xc92>
   1278a: 09 47        	li	a4, 0x2
   1278c: 63 84 e7 30  	beq	a5, a4, 0x12a94 <_vfprintf_r+0xb04>
   12790: f4 0a        	addi	a3, sp, 0x15c
   12792: 36 8d        	mv	s10, a3
   12794: 13 f7 74 00  	andi	a4, s1, 0x7
   12798: 13 07 07 03  	addi	a4, a4, 0x30
   1279c: a3 0f ed fe  	sb	a4, -0x1(s10)
   127a0: 8d 80        	srli	s1, s1, 0x3
   127a2: 6a 86        	mv	a2, s10
   127a4: 7d 1d        	addi	s10, s10, -0x1
   127a6: fd f4        	bnez	s1, 0x12794 <_vfprintf_r+0x804>
   127a8: 93 f5 1c 00  	andi	a1, s9, 0x1
   127ac: 63 81 05 30  	beqz	a1, 0x12aae <_vfprintf_r+0xb1e>
   127b0: 93 05 00 03  	li	a1, 0x30
   127b4: 63 0d b7 2e  	beq	a4, a1, 0x12aae <_vfprintf_r+0xb1e>
   127b8: 79 16        	addi	a2, a2, -0x2
   127ba: a3 0f bd fe  	sb	a1, -0x1(s10)
   127be: 91 9e        	subw	a3, a3, a2
   127c0: e6 8d        	mv	s11, s9
   127c2: 32 8d        	mv	s10, a2
   127c4: 19 b6        	j	0x122ca <_vfprintf_r+0x33a>
   127c6: 82 77        	ld	a5, 0x20(sp)
   127c8: a3 07 01 0a  	sb	zero, 0xaf(sp)
   127cc: 03 bd 07 00  	ld	s10, 0x0(a5)
   127d0: 93 84 87 00  	addi	s1, a5, 0x8
   127d4: e3 05 0d 0a  	beqz	s10, 0x1307e <_vfprintf_r+0x10ee>
   127d8: e3 4e 0b 2a  	bltz	s6, 0x13294 <_vfprintf_r+0x1304>
   127dc: 5a 86        	mv	a2, s6
   127de: 81 45        	li	a1, 0x0
   127e0: 6a 85        	mv	a0, s10
   127e2: 1a f0        	sd	t1, 0x20(sp)
   127e4: ef 20 d0 40  	jal	0x153f0 <memchr>
   127e8: 2a ec        	sd	a0, 0x18(sp)
   127ea: 02 73        	ld	t1, 0x20(sp)
   127ec: 19 e1        	bnez	a0, 0x127f2 <_vfprintf_r+0x862>
   127ee: 6f 00 70 7d  	j	0x137c4 <_vfprintf_r+0x1834>
   127f2: e2 67        	ld	a5, 0x18(sp)
   127f4: 03 47 f1 0a  	lbu	a4, 0xaf(sp)
   127f8: 26 f0        	sd	s1, 0x20(sp)
   127fa: bb 86 a7 41  	subw	a3, a5, s10
   127fe: 13 c8 f6 ff  	not	a6, a3
   12802: 13 58 f8 43  	srai	a6, a6, 0x3f
   12806: 02 ec        	sd	zero, 0x18(sp)
   12808: 82 e4        	sd	zero, 0x48(sp)
   1280a: 82 e0        	sd	zero, 0x40(sp)
   1280c: 02 f8        	sd	zero, 0x30(sp)
   1280e: 33 7c d8 00  	and	s8, a6, a3
   12812: 01 4b        	li	s6, 0x0
   12814: e3 19 07 ac  	bnez	a4, 0x122e6 <_vfprintf_r+0x356>
   12818: 21 ba        	j	0x12130 <_vfprintf_r+0x1a0>
   1281a: 02 77        	ld	a4, 0x20(sp)
   1281c: a3 07 01 0a  	sb	zero, 0xaf(sp)
   12820: 05 4c        	li	s8, 0x1
   12822: 1c 43        	lw	a5, 0x0(a4)
   12824: 21 07        	addi	a4, a4, 0x8
   12826: 3a f0        	sd	a4, 0x20(sp)
   12828: 23 0c f1 0e  	sb	a5, 0xf8(sp)
   1282c: 85 46        	li	a3, 0x1
   1282e: 13 0d 81 0f  	addi	s10, sp, 0xf8
   12832: d5 b8        	j	0x12126 <_vfprintf_r+0x196>
   12834: 82 77        	ld	a5, 0x20(sp)
   12836: 83 ab 07 00  	lw	s7, 0x0(a5)
   1283a: a1 07        	addi	a5, a5, 0x8
   1283c: 63 d3 0b 6e  	bgez	s7, 0x12f22 <_vfprintf_r+0xf92>
   12840: bb 0b 70 41  	negw	s7, s7
   12844: 3e f0        	sd	a5, 0x20(sp)
   12846: 93 ed 4d 00  	ori	s11, s11, 0x4
   1284a: 03 c3 09 00  	lbu	t1, 0x0(s3)
   1284e: 81 2d        	sext.w	s11, s11
   12850: b5 b0        	j	0x120bc <_vfprintf_r+0x12c>
   12852: 93 07 b0 02  	li	a5, 0x2b
   12856: 03 c3 09 00  	lbu	t1, 0x0(s3)
   1285a: a3 07 f1 0a  	sb	a5, 0xaf(sp)
   1285e: b9 b8        	j	0x120bc <_vfprintf_r+0x12c>
   12860: 93 ed 0d 08  	ori	s11, s11, 0x80
   12864: 03 c3 09 00  	lbu	t1, 0x0(s3)
   12868: 81 2d        	sext.w	s11, s11
   1286a: 89 b8        	j	0x120bc <_vfprintf_r+0x12c>
   1286c: 03 c3 09 00  	lbu	t1, 0x0(s3)
   12870: 93 06 a0 02  	li	a3, 0x2a
   12874: 13 87 19 00  	addi	a4, s3, 0x1
   12878: 63 14 d3 00  	bne	t1, a3, 0x12880 <_vfprintf_r+0x8f0>
   1287c: 6f 10 a0 24  	j	0x13ac6 <_vfprintf_r+0x1b36>
   12880: 9b 07 03 fd  	addiw	a5, t1, -0x30
   12884: a5 45        	li	a1, 0x9
   12886: 81 46        	li	a3, 0x0
   12888: 25 46        	li	a2, 0x9
   1288a: ba 89        	mv	s3, a4
   1288c: 01 4b        	li	s6, 0x0
   1288e: e3 e9 f5 82  	bltu	a1, a5, 0x120c0 <_vfprintf_r+0x130>
   12892: 03 43 07 00  	lbu	t1, 0x0(a4)
   12896: 1b 9b 26 00  	slliw	s6, a3, 0x2
   1289a: 3b 0b db 00  	addw	s6, s6, a3
   1289e: 1b 1b 1b 00  	slliw	s6, s6, 0x1
   128a2: bb 86 67 01  	addw	a3, a5, s6
   128a6: 9b 07 03 fd  	addiw	a5, t1, -0x30
   128aa: 36 8b        	mv	s6, a3
   128ac: 05 07        	addi	a4, a4, 0x1
   128ae: e3 72 f6 fe  	bgeu	a2, a5, 0x12892 <_vfprintf_r+0x902>
   128b2: 63 ce 06 72  	bltz	a3, 0x12fee <_vfprintf_r+0x105e>
   128b6: ba 89        	mv	s3, a4
   128b8: 6f f0 9f 80  	j	0x120c0 <_vfprintf_r+0x130>
   128bc: 93 ec 0d 01  	ori	s9, s11, 0x10
   128c0: 81 2c        	sext.w	s9, s9
   128c2: 82 76        	ld	a3, 0x20(sp)
   128c4: 93 f7 0c 02  	andi	a5, s9, 0x20
   128c8: 13 87 86 00  	addi	a4, a3, 0x8
   128cc: 63 82 07 62  	beqz	a5, 0x12ef0 <_vfprintf_r+0xf60>
   128d0: 84 62        	ld	s1, 0x0(a3)
   128d2: 85 47        	li	a5, 0x1
   128d4: 3a f0        	sd	a4, 0x20(sp)
   128d6: 1d bc        	j	0x1230c <_vfprintf_r+0x37c>
   128d8: 22 6c        	ld	s8, 0x8(sp)
   128da: 62 85        	mv	a0, s8
   128dc: ef 20 30 51  	jal	0x155ee <_localeconv_r>
   128e0: 1c 65        	ld	a5, 0x8(a0)
   128e2: 3e 85        	mv	a0, a5
   128e4: be fc        	sd	a5, 0x78(sp)
   128e6: ef f0 6f 99  	jal	0x11a7c <strlen>
   128ea: aa 87        	mv	a5, a0
   128ec: 62 85        	mv	a0, s8
   128ee: 3e e5        	sd	a5, 0x88(sp)
   128f0: 3e 8c        	mv	s8, a5
   128f2: ef 20 d0 4f  	jal	0x155ee <_localeconv_r>
   128f6: 1c 69        	ld	a5, 0x10(a0)
   128f8: 03 c3 09 00  	lbu	t1, 0x0(s3)
   128fc: 3e e1        	sd	a5, 0x80(sp)
   128fe: 63 0f 0c fa  	beqz	s8, 0x120bc <_vfprintf_r+0x12c>
   12902: 63 8d 07 fa  	beqz	a5, 0x120bc <_vfprintf_r+0x12c>
   12906: 83 c7 07 00  	lbu	a5, 0x0(a5)
   1290a: 63 89 07 fa  	beqz	a5, 0x120bc <_vfprintf_r+0x12c>
   1290e: 93 ed 0d 40  	ori	s11, s11, 0x400
   12912: 81 2d        	sext.w	s11, s11
   12914: 6f f0 8f fa  	j	0x120bc <_vfprintf_r+0x12c>
   12918: 93 ed 1d 00  	ori	s11, s11, 0x1
   1291c: 03 c3 09 00  	lbu	t1, 0x0(s3)
   12920: 81 2d        	sext.w	s11, s11
   12922: 6f f0 af f9  	j	0x120bc <_vfprintf_r+0x12c>
   12926: 83 47 f1 0a  	lbu	a5, 0xaf(sp)
   1292a: 03 c3 09 00  	lbu	t1, 0x0(s3)
   1292e: 63 97 07 f8  	bnez	a5, 0x120bc <_vfprintf_r+0x12c>
   12932: 93 07 00 02  	li	a5, 0x20
   12936: a3 07 f1 0a  	sb	a5, 0xaf(sp)
   1293a: 6f f0 2f f8  	j	0x120bc <_vfprintf_r+0x12c>
   1293e: 93 ed 8d 00  	ori	s11, s11, 0x8
   12942: 03 c3 09 00  	lbu	t1, 0x0(s3)
   12946: 81 2d        	sext.w	s11, s11
   12948: 6f f0 4f f7  	j	0x120bc <_vfprintf_r+0x12c>
   1294c: 93 ed 0d 02  	ori	s11, s11, 0x20
   12950: 03 c3 09 00  	lbu	t1, 0x0(s3)
   12954: 81 2d        	sext.w	s11, s11
   12956: 6f f0 6f f6  	j	0x120bc <_vfprintf_r+0x12c>
   1295a: 02 77        	ld	a4, 0x20(sp)
   1295c: a1 67        	lui	a5, 0x8
   1295e: 93 87 07 83  	addi	a5, a5, -0x7d0
   12962: 23 18 f1 0a  	sh	a5, 0xb0(sp)
   12966: 93 07 87 00  	addi	a5, a4, 0x8
   1296a: 3e f0        	sd	a5, 0x20(sp)
   1296c: b7 07 02 00  	lui	a5, 0x20
   12970: 93 87 87 bb  	addi	a5, a5, -0x448
   12974: 93 ec 2d 00  	ori	s9, s11, 0x2
   12978: be f0        	sd	a5, 0x60(sp)
   1297a: 04 63        	ld	s1, 0x0(a4)
   1297c: 81 2c        	sext.w	s9, s9
   1297e: 89 47        	li	a5, 0x2
   12980: 13 03 80 07  	li	t1, 0x78
   12984: 61 b2        	j	0x1230c <_vfprintf_r+0x37c>
   12986: 02 77        	ld	a4, 0x20(sp)
   12988: 93 f7 0d 02  	andi	a5, s11, 0x20
   1298c: 18 63        	ld	a4, 0x0(a4)
   1298e: 63 8a 07 5a  	beqz	a5, 0x12f42 <_vfprintf_r+0xfb2>
   12992: c2 67        	ld	a5, 0x10(sp)
   12994: 1c e3        	sd	a5, 0x0(a4)
   12996: 82 77        	ld	a5, 0x20(sp)
   12998: 4e 8d        	mv	s10, s3
   1299a: a1 07        	addi	a5, a5, 0x8
   1299c: 3e f0        	sd	a5, 0x20(sp)
   1299e: a9 b8        	j	0x121f8 <_vfprintf_r+0x268>
   129a0: 03 c3 09 00  	lbu	t1, 0x0(s3)
   129a4: 93 07 c0 06  	li	a5, 0x6c
   129a8: 63 09 f3 6a  	beq	t1, a5, 0x1305a <_vfprintf_r+0x10ca>
   129ac: 93 ed 0d 01  	ori	s11, s11, 0x10
   129b0: 81 2d        	sext.w	s11, s11
   129b2: 6f f0 af f0  	j	0x120bc <_vfprintf_r+0x12c>
   129b6: 03 c3 09 00  	lbu	t1, 0x0(s3)
   129ba: 93 07 80 06  	li	a5, 0x68
   129be: 63 06 f3 68  	beq	t1, a5, 0x1304a <_vfprintf_r+0x10ba>
   129c2: 93 ed 0d 04  	ori	s11, s11, 0x40
   129c6: 81 2d        	sext.w	s11, s11
   129c8: 6f f0 4f ef  	j	0x120bc <_vfprintf_r+0x12c>
   129cc: 13 07 50 06  	li	a4, 0x65
   129d0: e3 5b 67 ca  	bge	a4, t1, 0x12686 <_vfprintf_r+0x6f6>
   129d4: 4e 65        	ld	a0, 0xd0(sp)
   129d6: ee 65        	ld	a1, 0xd8(sp)
   129d8: 01 46        	li	a2, 0x0
   129da: 81 46        	li	a3, 0x0
   129dc: ef 50 90 33  	jal	0x18514 <__netf2>
   129e0: 63 1a 05 38  	bnez	a0, 0x12d74 <_vfprintf_r+0xde4>
   129e4: ae 57        	lw	a5, 0xe8(sp)
   129e6: 37 07 02 00  	lui	a4, 0x20
   129ea: 13 07 07 bf  	addi	a4, a4, -0x410
   129ee: 85 27        	addiw	a5, a5, 0x1
   129f0: 18 e0        	sd	a4, 0x0(s0)
   129f2: 85 04        	addi	s1, s1, 0x1
   129f4: 05 47        	li	a4, 0x1
   129f6: 18 e4        	sd	a4, 0x8(s0)
   129f8: be d5        	sw	a5, 0xe8(sp)
   129fa: 1b 87 07 00  	sext.w	a4, a5
   129fe: a6 f9        	sd	s1, 0xf0(sp)
   12a00: 9d 47        	li	a5, 0x7
   12a02: 41 04        	addi	s0, s0, 0x10
   12a04: e3 c5 e7 00  	blt	a5, a4, 0x1320e <_vfprintf_r+0x127e>
   12a08: ea 57        	lw	a5, 0xb8(sp)
   12a0a: 62 77        	ld	a4, 0x38(sp)
   12a0c: 63 d6 e7 50  	bge	a5, a4, 0x12f18 <_vfprintf_r+0xf88>
   12a10: 46 67        	ld	a4, 0x50(sp)
   12a12: ae 57        	lw	a5, 0xe8(sp)
   12a14: e6 66        	ld	a3, 0x58(sp)
   12a16: ba 94        	add	s1, s1, a4
   12a18: 85 27        	addiw	a5, a5, 0x1
   12a1a: 18 e4        	sd	a4, 0x8(s0)
   12a1c: 14 e0        	sd	a3, 0x0(s0)
   12a1e: 1b 87 07 00  	sext.w	a4, a5
   12a22: be d5        	sw	a5, 0xe8(sp)
   12a24: a6 f9        	sd	s1, 0xf0(sp)
   12a26: 9d 47        	li	a5, 0x7
   12a28: 41 04        	addi	s0, s0, 0x10
   12a2a: 63 c0 e7 64  	blt	a5, a4, 0x1306a <_vfprintf_r+0x10da>
   12a2e: e2 77        	ld	a5, 0x38(sp)
   12a30: 1b 8b f7 ff  	addiw	s6, a5, -0x1
   12a34: 63 58 60 f9  	blez	s6, 0x121c4 <_vfprintf_r+0x234>
   12a38: b7 08 02 00  	lui	a7, 0x20
   12a3c: 41 47        	li	a4, 0x10
   12a3e: ae 57        	lw	a5, 0xe8(sp)
   12a40: 93 88 08 e5  	addi	a7, a7, -0x1b0
   12a44: 63 53 67 7f  	bge	a4, s6, 0x1322a <_vfprintf_r+0x129a>
   12a48: 4e f8        	sd	s3, 0x30(sp)
   12a4a: c1 4c        	li	s9, 0x10
   12a4c: da 89        	mv	s3, s6
   12a4e: 1d 4d        	li	s10, 0x7
   12a50: 46 8b        	mv	s6, a7
   12a52: 21 a0        	j	0x12a5a <_vfprintf_r+0xaca>
   12a54: c1 39        	addiw	s3, s3, -0x10
   12a56: 63 d7 3c 7d  	bge	s9, s3, 0x13224 <_vfprintf_r+0x1294>
   12a5a: 85 27        	addiw	a5, a5, 0x1
   12a5c: c1 04        	addi	s1, s1, 0x10
   12a5e: 23 30 64 01  	sd	s6, 0x0(s0)
   12a62: 23 34 94 01  	sd	s9, 0x8(s0)
   12a66: a6 f9        	sd	s1, 0xf0(sp)
   12a68: be d5        	sw	a5, 0xe8(sp)
   12a6a: 41 04        	addi	s0, s0, 0x10
   12a6c: e3 54 fd fe  	bge	s10, a5, 0x12a54 <_vfprintf_r+0xac4>
   12a70: 22 65        	ld	a0, 0x8(sp)
   12a72: 90 11        	addi	a2, sp, 0xe0
   12a74: ca 85        	mv	a1, s2
   12a76: ef 10 00 1f  	jal	0x13c66 <__sprint_r>
   12a7a: 63 18 05 18  	bnez	a0, 0x12c0a <_vfprintf_r+0xc7a>
   12a7e: ce 74        	ld	s1, 0xf0(sp)
   12a80: ae 57        	lw	a5, 0xe8(sp)
   12a82: 52 84        	mv	s0, s4
   12a84: c1 bf        	j	0x12a54 <_vfprintf_r+0xac4>
   12a86: 05 47        	li	a4, 0x1
   12a88: e3 8b e7 64  	beq	a5, a4, 0x138de <_vfprintf_r+0x194e>
   12a8c: 09 47        	li	a4, 0x2
   12a8e: ee 8c        	mv	s9, s11
   12a90: e3 90 e7 d0  	bne	a5, a4, 0x12790 <_vfprintf_r+0x800>
   12a94: 06 77        	ld	a4, 0x60(sp)
   12a96: f4 0a        	addi	a3, sp, 0x15c
   12a98: 36 8d        	mv	s10, a3
   12a9a: 93 f7 f4 00  	andi	a5, s1, 0xf
   12a9e: ba 97        	add	a5, a5, a4
   12aa0: 83 c7 07 00  	lbu	a5, 0x0(a5)
   12aa4: 91 80        	srli	s1, s1, 0x4
   12aa6: 7d 1d        	addi	s10, s10, -0x1
   12aa8: 23 00 fd 00  	sb	a5, 0x0(s10)
   12aac: fd f4        	bnez	s1, 0x12a9a <_vfprintf_r+0xb0a>
   12aae: bb 86 a6 41  	subw	a3, a3, s10
   12ab2: e6 8d        	mv	s11, s9
   12ab4: 6f f0 7f 81  	j	0x122ca <_vfprintf_r+0x33a>
   12ab8: bb 8c 8b 41  	subw	s9, s7, s8
   12abc: 63 50 90 ef  	blez	s9, 0x1219c <_vfprintf_r+0x20c>
   12ac0: b7 08 02 00  	lui	a7, 0x20
   12ac4: c1 45        	li	a1, 0x10
   12ac6: 2e 56        	lw	a2, 0xe8(sp)
   12ac8: 93 88 08 e5  	addi	a7, a7, -0x1b0
   12acc: 63 df 95 05  	bge	a1, s9, 0x12b2a <_vfprintf_r+0xb9a>
   12ad0: a2 87        	mv	a5, s0
   12ad2: 26 87        	mv	a4, s1
   12ad4: 66 84        	mv	s0, s9
   12ad6: 41 4f        	li	t5, 0x10
   12ad8: e2 8c        	mv	s9, s8
   12ada: 9d 4f        	li	t6, 0x7
   12adc: 9a f4        	sd	t1, 0x68(sp)
   12ade: 36 8c        	mv	s8, a3
   12ae0: c6 84        	mv	s1, a7
   12ae2: 21 a0        	j	0x12aea <_vfprintf_r+0xb5a>
   12ae4: 41 34        	addiw	s0, s0, -0x10
   12ae6: 63 5b 8f 02  	bge	t5, s0, 0x12b1c <_vfprintf_r+0xb8c>
   12aea: 05 26        	addiw	a2, a2, 0x1
   12aec: 41 07        	addi	a4, a4, 0x10
   12aee: 84 e3        	sd	s1, 0x0(a5)
   12af0: 23 b4 e7 01  	sd	t5, 0x8(a5)
   12af4: ba f9        	sd	a4, 0xf0(sp)
   12af6: b2 d5        	sw	a2, 0xe8(sp)
   12af8: c1 07        	addi	a5, a5, 0x10
   12afa: e3 d5 cf fe  	bge	t6, a2, 0x12ae4 <_vfprintf_r+0xb54>
   12afe: 22 65        	ld	a0, 0x8(sp)
   12b00: 90 11        	addi	a2, sp, 0xe0
   12b02: ca 85        	mv	a1, s2
   12b04: ef 10 20 16  	jal	0x13c66 <__sprint_r>
   12b08: 63 11 05 10  	bnez	a0, 0x12c0a <_vfprintf_r+0xc7a>
   12b0c: 41 4f        	li	t5, 0x10
   12b0e: 41 34        	addiw	s0, s0, -0x10
   12b10: 4e 77        	ld	a4, 0xf0(sp)
   12b12: 2e 56        	lw	a2, 0xe8(sp)
   12b14: d2 87        	mv	a5, s4
   12b16: 9d 4f        	li	t6, 0x7
   12b18: e3 49 8f fc  	blt	t5, s0, 0x12aea <_vfprintf_r+0xb5a>
   12b1c: 26 73        	ld	t1, 0x68(sp)
   12b1e: e2 86        	mv	a3, s8
   12b20: a6 88        	mv	a7, s1
   12b22: 66 8c        	mv	s8, s9
   12b24: ba 84        	mv	s1, a4
   12b26: a2 8c        	mv	s9, s0
   12b28: 3e 84        	mv	s0, a5
   12b2a: 9b 05 16 00  	addiw	a1, a2, 0x1
   12b2e: e6 94        	add	s1, s1, s9
   12b30: 23 30 14 01  	sd	a7, 0x0(s0)
   12b34: 23 34 94 01  	sd	s9, 0x8(s0)
   12b38: a6 f9        	sd	s1, 0xf0(sp)
   12b3a: ae d5        	sw	a1, 0xe8(sp)
   12b3c: 1d 47        	li	a4, 0x7
   12b3e: 41 04        	addi	s0, s0, 0x10
   12b40: 63 5e b7 e4  	bge	a4, a1, 0x1219c <_vfprintf_r+0x20c>
   12b44: 22 65        	ld	a0, 0x8(sp)
   12b46: 90 11        	addi	a2, sp, 0xe0
   12b48: ca 85        	mv	a1, s2
   12b4a: 36 e9        	sd	a3, 0x90(sp)
   12b4c: 9a f4        	sd	t1, 0x68(sp)
   12b4e: ef 10 80 11  	jal	0x13c66 <__sprint_r>
   12b52: 45 ed        	bnez	a0, 0x12c0a <_vfprintf_r+0xc7a>
   12b54: ce 74        	ld	s1, 0xf0(sp)
   12b56: ca 66        	ld	a3, 0x90(sp)
   12b58: 26 73        	ld	t1, 0x68(sp)
   12b5a: 52 84        	mv	s0, s4
   12b5c: 6f f0 0f e4  	j	0x1219c <_vfprintf_r+0x20c>
   12b60: b7 08 02 00  	lui	a7, 0x20
   12b64: 41 47        	li	a4, 0x10
   12b66: 2e 56        	lw	a2, 0xe8(sp)
   12b68: 93 88 08 e5  	addi	a7, a7, -0x1b0
   12b6c: 63 5d 67 05  	bge	a4, s6, 0x12bc6 <_vfprintf_r+0xc36>
   12b70: a6 85        	mv	a1, s1
   12b72: a2 87        	mv	a5, s0
   12b74: b6 84        	mv	s1, a3
   12b76: 5a 84        	mv	s0, s6
   12b78: 41 47        	li	a4, 0x10
   12b7a: 9d 4c        	li	s9, 0x7
   12b7c: 9a f4        	sd	t1, 0x68(sp)
   12b7e: 56 8b        	mv	s6, s5
   12b80: ae 86        	mv	a3, a1
   12b82: 21 a0        	j	0x12b8a <_vfprintf_r+0xbfa>
   12b84: 41 34        	addiw	s0, s0, -0x10
   12b86: 63 59 87 02  	bge	a4, s0, 0x12bb8 <_vfprintf_r+0xc28>
   12b8a: 05 26        	addiw	a2, a2, 0x1
   12b8c: c1 06        	addi	a3, a3, 0x10
   12b8e: 23 b0 57 01  	sd	s5, 0x0(a5)
   12b92: 98 e7        	sd	a4, 0x8(a5)
   12b94: b6 f9        	sd	a3, 0xf0(sp)
   12b96: b2 d5        	sw	a2, 0xe8(sp)
   12b98: c1 07        	addi	a5, a5, 0x10
   12b9a: e3 d5 cc fe  	bge	s9, a2, 0x12b84 <_vfprintf_r+0xbf4>
   12b9e: 22 65        	ld	a0, 0x8(sp)
   12ba0: 90 11        	addi	a2, sp, 0xe0
   12ba2: ca 85        	mv	a1, s2
   12ba4: ef 10 20 0c  	jal	0x13c66 <__sprint_r>
   12ba8: 2d e1        	bnez	a0, 0x12c0a <_vfprintf_r+0xc7a>
   12baa: 41 47        	li	a4, 0x10
   12bac: 41 34        	addiw	s0, s0, -0x10
   12bae: ce 76        	ld	a3, 0xf0(sp)
   12bb0: 2e 56        	lw	a2, 0xe8(sp)
   12bb2: d2 87        	mv	a5, s4
   12bb4: e3 4b 87 fc  	blt	a4, s0, 0x12b8a <_vfprintf_r+0xbfa>
   12bb8: 26 73        	ld	t1, 0x68(sp)
   12bba: 36 87        	mv	a4, a3
   12bbc: da 88        	mv	a7, s6
   12bbe: a6 86        	mv	a3, s1
   12bc0: 22 8b        	mv	s6, s0
   12bc2: ba 84        	mv	s1, a4
   12bc4: 3e 84        	mv	s0, a5
   12bc6: 9b 05 16 00  	addiw	a1, a2, 0x1
   12bca: da 94        	add	s1, s1, s6
   12bcc: 23 30 14 01  	sd	a7, 0x0(s0)
   12bd0: 23 34 64 01  	sd	s6, 0x8(s0)
   12bd4: a6 f9        	sd	s1, 0xf0(sp)
   12bd6: ae d5        	sw	a1, 0xe8(sp)
   12bd8: 1d 47        	li	a4, 0x7
   12bda: 41 04        	addi	s0, s0, 0x10
   12bdc: 63 54 b7 dc  	bge	a4, a1, 0x121a4 <_vfprintf_r+0x214>
   12be0: 22 65        	ld	a0, 0x8(sp)
   12be2: 90 11        	addi	a2, sp, 0xe0
   12be4: ca 85        	mv	a1, s2
   12be6: 36 e9        	sd	a3, 0x90(sp)
   12be8: 9a f4        	sd	t1, 0x68(sp)
   12bea: ef 10 c0 07  	jal	0x13c66 <__sprint_r>
   12bee: 11 ed        	bnez	a0, 0x12c0a <_vfprintf_r+0xc7a>
   12bf0: ce 74        	ld	s1, 0xf0(sp)
   12bf2: ca 66        	ld	a3, 0x90(sp)
   12bf4: 26 73        	ld	t1, 0x68(sp)
   12bf6: 52 84        	mv	s0, s4
   12bf8: 6f f0 cf da  	j	0x121a4 <_vfprintf_r+0x214>
   12bfc: 22 65        	ld	a0, 0x8(sp)
   12bfe: 90 11        	addi	a2, sp, 0xe0
   12c00: ca 85        	mv	a1, s2
   12c02: ef 10 40 06  	jal	0x13c66 <__sprint_r>
   12c06: 63 00 05 de  	beqz	a0, 0x121e6 <_vfprintf_r+0x256>
   12c0a: e2 65        	ld	a1, 0x18(sp)
   12c0c: 63 8e 05 de  	beqz	a1, 0x12208 <_vfprintf_r+0x278>
   12c10: 22 65        	ld	a0, 0x8(sp)
   12c12: ef f0 0f 93  	jal	0x11d42 <_free_r>
   12c16: 6f f0 2f df  	j	0x12208 <_vfprintf_r+0x278>
   12c1a: 05 47        	li	a4, 0x1
   12c1c: ee 8c        	mv	s9, s11
   12c1e: e3 96 e7 b6  	bne	a5, a4, 0x1278a <_vfprintf_r+0x7fa>
   12c22: a5 47        	li	a5, 0x9
   12c24: 63 e6 97 36  	bltu	a5, s1, 0x12f90 <_vfprintf_r+0x1000>
   12c28: 9b 84 04 03  	addiw	s1, s1, 0x30
   12c2c: a3 0d 91 14  	sb	s1, 0x15b(sp)
   12c30: e6 8d        	mv	s11, s9
   12c32: 85 46        	li	a3, 0x1
   12c34: 13 0d b1 15  	addi	s10, sp, 0x15b
   12c38: 6f f0 2f e9  	j	0x122ca <_vfprintf_r+0x33a>
   12c3c: b7 08 02 00  	lui	a7, 0x20
   12c40: c1 45        	li	a1, 0x10
   12c42: 2e 56        	lw	a2, 0xe8(sp)
   12c44: 93 88 08 e6  	addi	a7, a7, -0x1a0
   12c48: 63 de e5 04  	bge	a1, a4, 0x12ca4 <_vfprintf_r+0xd14>
   12c4c: 36 ed        	sd	a3, 0x98(sp)
   12c4e: a2 87        	mv	a5, s0
   12c50: a6 86        	mv	a3, s1
   12c52: 41 4f        	li	t5, 0x10
   12c54: 9d 43        	li	t2, 0x7
   12c56: 96 f4        	sd	t0, 0x68(sp)
   12c58: 1a e9        	sd	t1, 0x90(sp)
   12c5a: 3a 84        	mv	s0, a4
   12c5c: c6 84        	mv	s1, a7
   12c5e: 21 a0        	j	0x12c66 <_vfprintf_r+0xcd6>
   12c60: 41 34        	addiw	s0, s0, -0x10
   12c62: 63 5a 8f 02  	bge	t5, s0, 0x12c96 <_vfprintf_r+0xd06>
   12c66: 05 26        	addiw	a2, a2, 0x1
   12c68: c1 06        	addi	a3, a3, 0x10
   12c6a: 84 e3        	sd	s1, 0x0(a5)
   12c6c: 23 b4 e7 01  	sd	t5, 0x8(a5)
   12c70: b6 f9        	sd	a3, 0xf0(sp)
   12c72: b2 d5        	sw	a2, 0xe8(sp)
   12c74: c1 07        	addi	a5, a5, 0x10
   12c76: e3 d5 c3 fe  	bge	t2, a2, 0x12c60 <_vfprintf_r+0xcd0>
   12c7a: 22 65        	ld	a0, 0x8(sp)
   12c7c: 90 11        	addi	a2, sp, 0xe0
   12c7e: ca 85        	mv	a1, s2
   12c80: ef 00 70 7e  	jal	0x13c66 <__sprint_r>
   12c84: 59 f1        	bnez	a0, 0x12c0a <_vfprintf_r+0xc7a>
   12c86: 41 4f        	li	t5, 0x10
   12c88: 41 34        	addiw	s0, s0, -0x10
   12c8a: ce 76        	ld	a3, 0xf0(sp)
   12c8c: 2e 56        	lw	a2, 0xe8(sp)
   12c8e: d2 87        	mv	a5, s4
   12c90: 9d 43        	li	t2, 0x7
   12c92: e3 4a 8f fc  	blt	t5, s0, 0x12c66 <_vfprintf_r+0xcd6>
   12c96: a6 88        	mv	a7, s1
   12c98: a6 72        	ld	t0, 0x68(sp)
   12c9a: b6 84        	mv	s1, a3
   12c9c: 4a 63        	ld	t1, 0x90(sp)
   12c9e: ea 66        	ld	a3, 0x98(sp)
   12ca0: 22 87        	mv	a4, s0
   12ca2: 3e 84        	mv	s0, a5
   12ca4: ba 94        	add	s1, s1, a4
   12ca6: 9b 05 16 00  	addiw	a1, a2, 0x1
   12caa: 18 e4        	sd	a4, 0x8(s0)
   12cac: 23 30 14 01  	sd	a7, 0x0(s0)
   12cb0: a6 f9        	sd	s1, 0xf0(sp)
   12cb2: ae d5        	sw	a1, 0xe8(sp)
   12cb4: 1d 47        	li	a4, 0x7
   12cb6: 41 04        	addi	s0, s0, 0x10
   12cb8: 63 5a b7 c8  	bge	a4, a1, 0x1214c <_vfprintf_r+0x1bc>
   12cbc: 22 65        	ld	a0, 0x8(sp)
   12cbe: 90 11        	addi	a2, sp, 0xe0
   12cc0: ca 85        	mv	a1, s2
   12cc2: 36 ed        	sd	a3, 0x98(sp)
   12cc4: 1a e9        	sd	t1, 0x90(sp)
   12cc6: 96 f4        	sd	t0, 0x68(sp)
   12cc8: ef 00 f0 79  	jal	0x13c66 <__sprint_r>
   12ccc: 1d fd        	bnez	a0, 0x12c0a <_vfprintf_r+0xc7a>
   12cce: ce 74        	ld	s1, 0xf0(sp)
   12cd0: ea 66        	ld	a3, 0x98(sp)
   12cd2: 4a 63        	ld	t1, 0x90(sp)
   12cd4: a6 72        	ld	t0, 0x68(sp)
   12cd6: 52 84        	mv	s0, s4
   12cd8: 6f f0 4f c7  	j	0x1214c <_vfprintf_r+0x1bc>
   12cdc: 22 65        	ld	a0, 0x8(sp)
   12cde: 90 11        	addi	a2, sp, 0xe0
   12ce0: ca 85        	mv	a1, s2
   12ce2: 36 e9        	sd	a3, 0x90(sp)
   12ce4: 9a f4        	sd	t1, 0x68(sp)
   12ce6: ef 00 10 78  	jal	0x13c66 <__sprint_r>
   12cea: 05 f1        	bnez	a0, 0x12c0a <_vfprintf_r+0xc7a>
   12cec: ce 74        	ld	s1, 0xf0(sp)
   12cee: ca 66        	ld	a3, 0x90(sp)
   12cf0: 26 73        	ld	t1, 0x68(sp)
   12cf2: 52 84        	mv	s0, s4
   12cf4: 6f f0 0f ca  	j	0x12194 <_vfprintf_r+0x204>
   12cf8: b7 08 02 00  	lui	a7, 0x20
   12cfc: 93 88 08 e6  	addi	a7, a7, -0x1a0
   12d00: 41 47        	li	a4, 0x10
   12d02: ae 57        	lw	a5, 0xe8(sp)
   12d04: c1 4c        	li	s9, 0x10
   12d06: 1d 4d        	li	s10, 0x7
   12d08: c6 8d        	mv	s11, a7
   12d0a: 63 46 67 01  	blt	a4, s6, 0x12d16 <_vfprintf_r+0xd86>
   12d0e: 2d a8        	j	0x12d48 <_vfprintf_r+0xdb8>
   12d10: 41 3b        	addiw	s6, s6, -0x10
   12d12: 63 da 6c 03  	bge	s9, s6, 0x12d46 <_vfprintf_r+0xdb6>
   12d16: 85 27        	addiw	a5, a5, 0x1
   12d18: c1 04        	addi	s1, s1, 0x10
   12d1a: 23 30 b4 01  	sd	s11, 0x0(s0)
   12d1e: 23 34 94 01  	sd	s9, 0x8(s0)
   12d22: a6 f9        	sd	s1, 0xf0(sp)
   12d24: be d5        	sw	a5, 0xe8(sp)
   12d26: 41 04        	addi	s0, s0, 0x10
   12d28: e3 54 fd fe  	bge	s10, a5, 0x12d10 <_vfprintf_r+0xd80>
   12d2c: 22 65        	ld	a0, 0x8(sp)
   12d2e: 90 11        	addi	a2, sp, 0xe0
   12d30: ca 85        	mv	a1, s2
   12d32: ef 00 50 73  	jal	0x13c66 <__sprint_r>
   12d36: e3 1a 05 ec  	bnez	a0, 0x12c0a <_vfprintf_r+0xc7a>
   12d3a: 41 3b        	addiw	s6, s6, -0x10
   12d3c: ce 74        	ld	s1, 0xf0(sp)
   12d3e: ae 57        	lw	a5, 0xe8(sp)
   12d40: 52 84        	mv	s0, s4
   12d42: e3 ca 6c fd  	blt	s9, s6, 0x12d16 <_vfprintf_r+0xd86>
   12d46: ee 88        	mv	a7, s11
   12d48: 1b 87 17 00  	addiw	a4, a5, 0x1
   12d4c: da 94        	add	s1, s1, s6
   12d4e: 23 30 14 01  	sd	a7, 0x0(s0)
   12d52: 23 34 64 01  	sd	s6, 0x8(s0)
   12d56: a6 f9        	sd	s1, 0xf0(sp)
   12d58: ba d5        	sw	a4, 0xe8(sp)
   12d5a: 9d 47        	li	a5, 0x7
   12d5c: 63 dc e7 c6  	bge	a5, a4, 0x121d4 <_vfprintf_r+0x244>
   12d60: 22 65        	ld	a0, 0x8(sp)
   12d62: 90 11        	addi	a2, sp, 0xe0
   12d64: ca 85        	mv	a1, s2
   12d66: ef 00 10 70  	jal	0x13c66 <__sprint_r>
   12d6a: e3 10 05 ea  	bnez	a0, 0x12c0a <_vfprintf_r+0xc7a>
   12d6e: ce 74        	ld	s1, 0xf0(sp)
   12d70: 6f f0 4f c6  	j	0x121d4 <_vfprintf_r+0x244>
   12d74: 6a 57        	lw	a4, 0xb8(sp)
   12d76: 63 53 e0 42  	blez	a4, 0x1319c <_vfprintf_r+0x120c>
   12d7a: c2 77        	ld	a5, 0x30(sp)
   12d7c: 62 77        	ld	a4, 0x38(sp)
   12d7e: 1b 8b 07 00  	sext.w	s6, a5
   12d82: 63 41 f7 26  	blt	a4, a5, 0x12fe4 <_vfprintf_r+0x1054>
   12d86: 63 50 60 03  	blez	s6, 0x12da6 <_vfprintf_r+0xe16>
   12d8a: 2e 57        	lw	a4, 0xe8(sp)
   12d8c: da 94        	add	s1, s1, s6
   12d8e: 23 30 a4 01  	sd	s10, 0x0(s0)
   12d92: 9b 06 17 00  	addiw	a3, a4, 0x1
   12d96: 23 34 64 01  	sd	s6, 0x8(s0)
   12d9a: a6 f9        	sd	s1, 0xf0(sp)
   12d9c: b6 d5        	sw	a3, 0xe8(sp)
   12d9e: 1d 47        	li	a4, 0x7
   12da0: 41 04        	addi	s0, s0, 0x10
   12da2: 63 44 d7 7e  	blt	a4, a3, 0x1358a <_vfprintf_r+0x15fa>
   12da6: 13 47 fb ff  	not	a4, s6
   12daa: c2 77        	ld	a5, 0x30(sp)
   12dac: 7d 97        	srai	a4, a4, 0x3f
   12dae: 33 7b eb 00  	and	s6, s6, a4
   12db2: 3b 8b 67 41  	subw	s6, a5, s6
   12db6: 63 41 60 2f  	bgtz	s6, 0x13098 <_vfprintf_r+0x1108>
   12dba: c2 77        	ld	a5, 0x30(sp)
   12dbc: 13 f7 0d 40  	andi	a4, s11, 0x400
   12dc0: 33 03 fd 00  	add	t1, s10, a5
   12dc4: 63 19 07 62  	bnez	a4, 0x133f6 <_vfprintf_r+0x1466>
   12dc8: 6a 57        	lw	a4, 0xb8(sp)
   12dca: e2 77        	ld	a5, 0x38(sp)
   12dcc: 63 4c f7 30  	blt	a4, a5, 0x130e4 <_vfprintf_r+0x1154>
   12dd0: 93 f6 1d 00  	andi	a3, s11, 0x1
   12dd4: 63 98 06 30  	bnez	a3, 0x130e4 <_vfprintf_r+0x1154>
   12dd8: e2 76        	ld	a3, 0x38(sp)
   12dda: b3 07 dd 00  	add	a5, s10, a3
   12dde: 33 8b 67 40  	sub	s6, a5, t1
   12de2: 99 9e        	subw	a3, a3, a4
   12de4: 9b 07 0b 00  	sext.w	a5, s6
   12de8: 63 d3 f6 00  	bge	a3, a5, 0x12dee <_vfprintf_r+0xe5e>
   12dec: 36 8b        	mv	s6, a3
   12dee: 01 2b        	sext.w	s6, s6
   12df0: 63 50 60 03  	blez	s6, 0x12e10 <_vfprintf_r+0xe80>
   12df4: ae 57        	lw	a5, 0xe8(sp)
   12df6: da 94        	add	s1, s1, s6
   12df8: 23 30 64 00  	sd	t1, 0x0(s0)
   12dfc: 1b 87 17 00  	addiw	a4, a5, 0x1
   12e00: 23 34 64 01  	sd	s6, 0x8(s0)
   12e04: a6 f9        	sd	s1, 0xf0(sp)
   12e06: ba d5        	sw	a4, 0xe8(sp)
   12e08: 9d 47        	li	a5, 0x7
   12e0a: 41 04        	addi	s0, s0, 0x10
   12e0c: e3 c6 e7 20  	blt	a5, a4, 0x13818 <_vfprintf_r+0x1888>
   12e10: 93 47 fb ff  	not	a5, s6
   12e14: fd 97        	srai	a5, a5, 0x3f
   12e16: 33 7b fb 00  	and	s6, s6, a5
   12e1a: 3b 8b 66 41  	subw	s6, a3, s6
   12e1e: 63 53 60 bb  	blez	s6, 0x121c4 <_vfprintf_r+0x234>
   12e22: b7 08 02 00  	lui	a7, 0x20
   12e26: 41 47        	li	a4, 0x10
   12e28: ae 57        	lw	a5, 0xe8(sp)
   12e2a: 93 88 08 e5  	addi	a7, a7, -0x1b0
   12e2e: 63 5e 67 3f  	bge	a4, s6, 0x1322a <_vfprintf_r+0x129a>
   12e32: 4e f8        	sd	s3, 0x30(sp)
   12e34: c1 4c        	li	s9, 0x10
   12e36: ca 89        	mv	s3, s2
   12e38: 1d 4d        	li	s10, 0x7
   12e3a: 5a 89        	mv	s2, s6
   12e3c: 46 8b        	mv	s6, a7
   12e3e: 21 a0        	j	0x12e46 <_vfprintf_r+0xeb6>
   12e40: 41 39        	addiw	s2, s2, -0x10
   12e42: e3 dc 2c 17  	bge	s9, s2, 0x137ba <_vfprintf_r+0x182a>
   12e46: 85 27        	addiw	a5, a5, 0x1
   12e48: c1 04        	addi	s1, s1, 0x10
   12e4a: 23 30 64 01  	sd	s6, 0x0(s0)
   12e4e: 23 34 94 01  	sd	s9, 0x8(s0)
   12e52: a6 f9        	sd	s1, 0xf0(sp)
   12e54: be d5        	sw	a5, 0xe8(sp)
   12e56: 41 04        	addi	s0, s0, 0x10
   12e58: e3 54 fd fe  	bge	s10, a5, 0x12e40 <_vfprintf_r+0xeb0>
   12e5c: 22 65        	ld	a0, 0x8(sp)
   12e5e: 90 11        	addi	a2, sp, 0xe0
   12e60: ce 85        	mv	a1, s3
   12e62: ef 00 50 60  	jal	0x13c66 <__sprint_r>
   12e66: e3 11 05 40  	bnez	a0, 0x13a68 <_vfprintf_r+0x1ad8>
   12e6a: ce 74        	ld	s1, 0xf0(sp)
   12e6c: ae 57        	lw	a5, 0xe8(sp)
   12e6e: 52 84        	mv	s0, s4
   12e70: c1 bf        	j	0x12e40 <_vfprintf_r+0xeb0>
   12e72: 13 f6 1d 00  	andi	a2, s11, 0x1
   12e76: e3 15 06 82  	bnez	a2, 0x126a0 <_vfprintf_r+0x710>
   12e7a: 14 e4        	sd	a3, 0x8(s0)
   12e7c: a6 f9        	sd	s1, 0xf0(sp)
   12e7e: da d5        	sw	s6, 0xe8(sp)
   12e80: 9d 47        	li	a5, 0x7
   12e82: e3 dd 67 87  	bge	a5, s6, 0x126fc <_vfprintf_r+0x76c>
   12e86: 22 65        	ld	a0, 0x8(sp)
   12e88: 90 11        	addi	a2, sp, 0xe0
   12e8a: ca 85        	mv	a1, s2
   12e8c: ef 00 b0 5d  	jal	0x13c66 <__sprint_r>
   12e90: e3 1d 05 d6  	bnez	a0, 0x12c0a <_vfprintf_r+0xc7a>
   12e94: ce 74        	ld	s1, 0xf0(sp)
   12e96: 2e 5b        	lw	s6, 0xe8(sp)
   12e98: d2 8c        	mv	s9, s4
   12e9a: 8d b0        	j	0x126fc <_vfprintf_r+0x76c>
   12e9c: 62 77        	ld	a4, 0x38(sp)
   12e9e: 85 47        	li	a5, 0x1
   12ea0: e3 de e7 84  	bge	a5, a4, 0x126fc <_vfprintf_r+0x76c>
   12ea4: b7 08 02 00  	lui	a7, 0x20
   12ea8: c5 47        	li	a5, 0x11
   12eaa: 93 88 08 e5  	addi	a7, a7, -0x1b0
   12eae: 63 d3 e7 46  	bge	a5, a4, 0x13314 <_vfprintf_r+0x1384>
   12eb2: 4e f8        	sd	s3, 0x30(sp)
   12eb4: 41 47        	li	a4, 0x10
   12eb6: 1d 4d        	li	s10, 0x7
   12eb8: c6 89        	mv	s3, a7
   12eba: 21 a0        	j	0x12ec2 <_vfprintf_r+0xf32>
   12ebc: 41 34        	addiw	s0, s0, -0x10
   12ebe: 63 59 87 44  	bge	a4, s0, 0x13310 <_vfprintf_r+0x1380>
   12ec2: 05 2b        	addiw	s6, s6, 0x1
   12ec4: c1 04        	addi	s1, s1, 0x10
   12ec6: 23 b0 3c 01  	sd	s3, 0x0(s9)
   12eca: 23 b4 ec 00  	sd	a4, 0x8(s9)
   12ece: a6 f9        	sd	s1, 0xf0(sp)
   12ed0: da d5        	sw	s6, 0xe8(sp)
   12ed2: c1 0c        	addi	s9, s9, 0x10
   12ed4: e3 54 6d ff  	bge	s10, s6, 0x12ebc <_vfprintf_r+0xf2c>
   12ed8: 22 65        	ld	a0, 0x8(sp)
   12eda: 90 11        	addi	a2, sp, 0xe0
   12edc: ca 85        	mv	a1, s2
   12ede: ef 00 90 58  	jal	0x13c66 <__sprint_r>
   12ee2: e3 14 05 d2  	bnez	a0, 0x12c0a <_vfprintf_r+0xc7a>
   12ee6: ce 74        	ld	s1, 0xf0(sp)
   12ee8: 2e 5b        	lw	s6, 0xe8(sp)
   12eea: d2 8c        	mv	s9, s4
   12eec: 41 47        	li	a4, 0x10
   12eee: f9 b7        	j	0x12ebc <_vfprintf_r+0xf2c>
   12ef0: 93 f7 0c 01  	andi	a5, s9, 0x10
   12ef4: a9 e3        	bnez	a5, 0x12f36 <_vfprintf_r+0xfa6>
   12ef6: 82 76        	ld	a3, 0x20(sp)
   12ef8: 93 f7 0c 04  	andi	a5, s9, 0x40
   12efc: 84 42        	lw	s1, 0x0(a3)
   12efe: 63 8a 07 44  	beqz	a5, 0x13352 <_vfprintf_r+0x13c2>
   12f02: c2 14        	slli	s1, s1, 0x30
   12f04: c1 90        	srli	s1, s1, 0x30
   12f06: 3a f0        	sd	a4, 0x20(sp)
   12f08: 85 47        	li	a5, 0x1
   12f0a: 6f f0 2f c0  	j	0x1230c <_vfprintf_r+0x37c>
   12f0e: 81 46        	li	a3, 0x0
   12f10: 13 0d c1 15  	addi	s10, sp, 0x15c
   12f14: 6f f0 6f bb  	j	0x122ca <_vfprintf_r+0x33a>
   12f18: 93 f7 1d 00  	andi	a5, s11, 0x1
   12f1c: 63 84 07 aa  	beqz	a5, 0x121c4 <_vfprintf_r+0x234>
   12f20: c5 bc        	j	0x12a10 <_vfprintf_r+0xa80>
   12f22: 03 c3 09 00  	lbu	t1, 0x0(s3)
   12f26: 3e f0        	sd	a5, 0x20(sp)
   12f28: 6f f0 4f 99  	j	0x120bc <_vfprintf_r+0x12c>
   12f2c: 82 77        	ld	a5, 0x20(sp)
   12f2e: 9c 63        	ld	a5, 0x0(a5)
   12f30: be 84        	mv	s1, a5
   12f32: 6f f0 2f b7  	j	0x122a4 <_vfprintf_r+0x314>
   12f36: 82 77        	ld	a5, 0x20(sp)
   12f38: 3a f0        	sd	a4, 0x20(sp)
   12f3a: 84 63        	ld	s1, 0x0(a5)
   12f3c: 85 47        	li	a5, 0x1
   12f3e: 6f f0 ef bc  	j	0x1230c <_vfprintf_r+0x37c>
   12f42: 93 f7 0d 01  	andi	a5, s11, 0x10
   12f46: e3 96 07 a4  	bnez	a5, 0x12992 <_vfprintf_r+0xa02>
   12f4a: 93 f7 0d 04  	andi	a5, s11, 0x40
   12f4e: 63 9b 07 66  	bnez	a5, 0x135c4 <_vfprintf_r+0x1634>
   12f52: 13 fe 0d 20  	andi	t3, s11, 0x200
   12f56: c2 67        	ld	a5, 0x10(sp)
   12f58: e3 0c 0e 20  	beqz	t3, 0x13970 <_vfprintf_r+0x19e0>
   12f5c: 23 00 f7 00  	sb	a5, 0x0(a4)
   12f60: 1d bc        	j	0x12996 <_vfprintf_r+0xa06>
   12f62: 82 77        	ld	a5, 0x20(sp)
   12f64: 84 63        	ld	s1, 0x0(a5)
   12f66: 6f f0 cf b9  	j	0x12302 <_vfprintf_r+0x372>
   12f6a: 82 77        	ld	a5, 0x20(sp)
   12f6c: 13 8c f7 00  	addi	s8, a5, 0xf
   12f70: 13 7c 0c ff  	andi	s8, s8, -0x10
   12f74: 93 07 0c 01  	addi	a5, s8, 0x10
   12f78: 03 37 0c 00  	ld	a4, 0x0(s8)
   12f7c: 83 35 8c 00  	ld	a1, 0x8(s8)
   12f80: 3e f0        	sd	a5, 0x20(sp)
   12f82: 6f f0 cf bf  	j	0x1237e <_vfprintf_r+0x3ee>
   12f86: 3a f0        	sd	a4, 0x20(sp)
   12f88: a5 47        	li	a5, 0x9
   12f8a: ee 8c        	mv	s9, s11
   12f8c: e3 fe 97 c8  	bgeu	a5, s1, 0x12c28 <_vfprintf_r+0xc98>
   12f90: f4 0a        	addi	a3, sp, 0x15c
   12f92: 8a 68        	ld	a7, 0x80(sp)
   12f94: 13 f7 0c 40  	andi	a4, s9, 0x400
   12f98: 01 46        	li	a2, 0x0
   12f9a: b6 85        	mv	a1, a3
   12f9c: a9 4d        	li	s11, 0xa
   12f9e: 25 48        	li	a6, 0x9
   12fa0: 13 0c f0 0f  	li	s8, 0xff
   12fa4: 39 a0        	j	0x12fb2 <_vfprintf_r+0x1022>
   12fa6: b3 d7 b4 03  	divu	a5, s1, s11
   12faa: 63 76 98 02  	bgeu	a6, s1, 0x12fd6 <_vfprintf_r+0x1046>
   12fae: be 84        	mv	s1, a5
   12fb0: ea 85        	mv	a1, s10
   12fb2: 13 8d f5 ff  	addi	s10, a1, -0x1
   12fb6: 05 26        	addiw	a2, a2, 0x1
   12fb8: b3 f7 b4 03  	remu	a5, s1, s11
   12fbc: 9b 87 07 03  	addiw	a5, a5, 0x30
   12fc0: a3 8f f5 fe  	sb	a5, -0x1(a1)
   12fc4: 6d d3        	beqz	a4, 0x12fa6 <_vfprintf_r+0x1016>
   12fc6: 83 c7 08 00  	lbu	a5, 0x0(a7)
   12fca: e3 1e f6 fc  	bne	a2, a5, 0x12fa6 <_vfprintf_r+0x1016>
   12fce: e3 8c 87 fd  	beq	a5, s8, 0x12fa6 <_vfprintf_r+0x1016>
   12fd2: 63 67 98 3e  	bltu	a6, s1, 0x133c0 <_vfprintf_r+0x1430>
   12fd6: 32 fc        	sd	a2, 0x38(sp)
   12fd8: 46 e1        	sd	a7, 0x80(sp)
   12fda: bb 86 a6 41  	subw	a3, a3, s10
   12fde: e6 8d        	mv	s11, s9
   12fe0: 6f f0 af ae  	j	0x122ca <_vfprintf_r+0x33a>
   12fe4: 1b 0b 07 00  	sext.w	s6, a4
   12fe8: e3 41 60 db  	bgtz	s6, 0x12d8a <_vfprintf_r+0xdfa>
   12fec: 6d bb        	j	0x12da6 <_vfprintf_r+0xe16>
   12fee: 7d 5b        	li	s6, -0x1
   12ff0: ba 89        	mv	s3, a4
   12ff2: 6f f0 ef 8c  	j	0x120c0 <_vfprintf_r+0x130>
   12ff6: ee 8c        	mv	s9, s11
   12ff8: e9 b0        	j	0x128c2 <_vfprintf_r+0x932>
   12ffa: b7 07 02 00  	lui	a5, 0x20
   12ffe: 93 87 07 bd  	addi	a5, a5, -0x430
   13002: be f0        	sd	a5, 0x60(sp)
   13004: 82 76        	ld	a3, 0x20(sp)
   13006: 93 f7 0d 02  	andi	a5, s11, 0x20
   1300a: 13 87 86 00  	addi	a4, a3, 0x8
   1300e: 63 89 07 14  	beqz	a5, 0x13160 <_vfprintf_r+0x11d0>
   13012: 84 62        	ld	s1, 0x0(a3)
   13014: 93 f7 1d 00  	andi	a5, s11, 0x1
   13018: 81 cf        	beqz	a5, 0x13030 <_vfprintf_r+0x10a0>
   1301a: 99 c8        	beqz	s1, 0x13030 <_vfprintf_r+0x10a0>
   1301c: 13 ee 2d 00  	ori	t3, s11, 0x2
   13020: 93 07 00 03  	li	a5, 0x30
   13024: 23 08 f1 0a  	sb	a5, 0xb0(sp)
   13028: a3 08 61 0a  	sb	t1, 0xb1(sp)
   1302c: 9b 0d 0e 00  	sext.w	s11, t3
   13030: 93 fc fd bf  	andi	s9, s11, -0x401
   13034: 81 2c        	sext.w	s9, s9
   13036: 3a f0        	sd	a4, 0x20(sp)
   13038: 89 47        	li	a5, 0x2
   1303a: 6f f0 2f ad  	j	0x1230c <_vfprintf_r+0x37c>
   1303e: b7 07 02 00  	lui	a5, 0x20
   13042: 93 87 87 bb  	addi	a5, a5, -0x448
   13046: be f0        	sd	a5, 0x60(sp)
   13048: 75 bf        	j	0x13004 <_vfprintf_r+0x1074>
   1304a: 93 ed 0d 20  	ori	s11, s11, 0x200
   1304e: 03 c3 19 00  	lbu	t1, 0x1(s3)
   13052: 81 2d        	sext.w	s11, s11
   13054: 85 09        	addi	s3, s3, 0x1
   13056: 6f f0 6f 86  	j	0x120bc <_vfprintf_r+0x12c>
   1305a: 93 ed 0d 02  	ori	s11, s11, 0x20
   1305e: 03 c3 19 00  	lbu	t1, 0x1(s3)
   13062: 81 2d        	sext.w	s11, s11
   13064: 85 09        	addi	s3, s3, 0x1
   13066: 6f f0 6f 85  	j	0x120bc <_vfprintf_r+0x12c>
   1306a: 22 65        	ld	a0, 0x8(sp)
   1306c: 90 11        	addi	a2, sp, 0xe0
   1306e: ca 85        	mv	a1, s2
   13070: ef 00 70 3f  	jal	0x13c66 <__sprint_r>
   13074: e3 1b 05 b8  	bnez	a0, 0x12c0a <_vfprintf_r+0xc7a>
   13078: ce 74        	ld	s1, 0xf0(sp)
   1307a: 52 84        	mv	s0, s4
   1307c: 4d ba        	j	0x12a2e <_vfprintf_r+0xa9e>
   1307e: 99 47        	li	a5, 0x6
   13080: 9b 06 0b 00  	sext.w	a3, s6
   13084: 63 ee 67 51  	bltu	a5, s6, 0x135a0 <_vfprintf_r+0x1610>
   13088: b7 07 02 00  	lui	a5, 0x20
   1308c: 36 8c        	mv	s8, a3
   1308e: 26 f0        	sd	s1, 0x20(sp)
   13090: 13 8d 87 be  	addi	s10, a5, -0x418
   13094: 6f f0 2f 89  	j	0x12126 <_vfprintf_r+0x196>
   13098: b7 08 02 00  	lui	a7, 0x20
   1309c: c1 46        	li	a3, 0x10
   1309e: 2e 57        	lw	a4, 0xe8(sp)
   130a0: 93 88 08 e5  	addi	a7, a7, -0x1b0
   130a4: 63 d7 66 2f  	bge	a3, s6, 0x13392 <_vfprintf_r+0x1402>
   130a8: c1 46        	li	a3, 0x10
   130aa: 1d 43        	li	t1, 0x7
   130ac: c6 8c        	mv	s9, a7
   130ae: 21 a0        	j	0x130b6 <_vfprintf_r+0x1126>
   130b0: 41 3b        	addiw	s6, s6, -0x10
   130b2: 63 df 66 2d  	bge	a3, s6, 0x13390 <_vfprintf_r+0x1400>
   130b6: 05 27        	addiw	a4, a4, 0x1
   130b8: c1 04        	addi	s1, s1, 0x10
   130ba: 23 30 94 01  	sd	s9, 0x0(s0)
   130be: 14 e4        	sd	a3, 0x8(s0)
   130c0: a6 f9        	sd	s1, 0xf0(sp)
   130c2: ba d5        	sw	a4, 0xe8(sp)
   130c4: 41 04        	addi	s0, s0, 0x10
   130c6: e3 55 e3 fe  	bge	t1, a4, 0x130b0 <_vfprintf_r+0x1120>
   130ca: 22 65        	ld	a0, 0x8(sp)
   130cc: 90 11        	addi	a2, sp, 0xe0
   130ce: ca 85        	mv	a1, s2
   130d0: ef 00 70 39  	jal	0x13c66 <__sprint_r>
   130d4: e3 1b 05 b2  	bnez	a0, 0x12c0a <_vfprintf_r+0xc7a>
   130d8: ce 74        	ld	s1, 0xf0(sp)
   130da: 2e 57        	lw	a4, 0xe8(sp)
   130dc: 52 84        	mv	s0, s4
   130de: 1d 43        	li	t1, 0x7
   130e0: c1 46        	li	a3, 0x10
   130e2: f9 b7        	j	0x130b0 <_vfprintf_r+0x1120>
   130e4: ae 56        	lw	a3, 0xe8(sp)
   130e6: c6 67        	ld	a5, 0x50(sp)
   130e8: 66 66        	ld	a2, 0x58(sp)
   130ea: 41 04        	addi	s0, s0, 0x10
   130ec: be 94        	add	s1, s1, a5
   130ee: 23 38 c4 fe  	sd	a2, -0x10(s0)
   130f2: 1b 86 16 00  	addiw	a2, a3, 0x1
   130f6: 23 3c f4 fe  	sd	a5, -0x8(s0)
   130fa: a6 f9        	sd	s1, 0xf0(sp)
   130fc: b2 d5        	sw	a2, 0xe8(sp)
   130fe: 9d 46        	li	a3, 0x7
   13100: e3 dc c6 cc  	bge	a3, a2, 0x12dd8 <_vfprintf_r+0xe48>
   13104: 22 65        	ld	a0, 0x8(sp)
   13106: 90 11        	addi	a2, sp, 0xe0
   13108: ca 85        	mv	a1, s2
   1310a: 1a f8        	sd	t1, 0x30(sp)
   1310c: ef 00 b0 35  	jal	0x13c66 <__sprint_r>
   13110: e3 1d 05 ae  	bnez	a0, 0x12c0a <_vfprintf_r+0xc7a>
   13114: 6a 57        	lw	a4, 0xb8(sp)
   13116: ce 74        	ld	s1, 0xf0(sp)
   13118: 42 73        	ld	t1, 0x30(sp)
   1311a: 52 84        	mv	s0, s4
   1311c: 75 b9        	j	0x12dd8 <_vfprintf_r+0xe48>
   1311e: 93 07 80 07  	li	a5, 0x78
   13122: 93 06 00 03  	li	a3, 0x30
   13126: 13 e7 2d 00  	ori	a4, s11, 0x2
   1312a: a3 08 f1 0a  	sb	a5, 0xb1(sp)
   1312e: 23 08 d1 0a  	sb	a3, 0xb0(sp)
   13132: 93 07 30 06  	li	a5, 0x63
   13136: 01 27        	sext.w	a4, a4
   13138: 63 c5 67 4d  	blt	a5, s6, 0x13602 <_vfprintf_r+0x1672>
   1313c: ce 67        	ld	a5, 0xd0(sp)
   1313e: ee 6c        	ld	s9, 0xd8(sp)
   13140: 13 ee 2d 10  	ori	t3, s11, 0x102
   13144: 3e f8        	sd	a5, 0x30(sp)
   13146: 9b 04 0e 00  	sext.w	s1, t3
   1314a: 63 c5 0c 62  	bltz	s9, 0x13774 <_vfprintf_r+0x17e4>
   1314e: 9b 06 f3 fb  	addiw	a3, t1, -0x41
   13152: ba 8d        	mv	s11, a4
   13154: 82 f4        	sd	zero, 0x68(sp)
   13156: 02 ec        	sd	zero, 0x18(sp)
   13158: 13 0d 81 0f  	addi	s10, sp, 0xf8
   1315c: 6f f0 af a9  	j	0x123f6 <_vfprintf_r+0x466>
   13160: 93 f7 0d 01  	andi	a5, s11, 0x10
   13164: d9 c7        	beqz	a5, 0x131f2 <_vfprintf_r+0x1262>
   13166: 82 77        	ld	a5, 0x20(sp)
   13168: 84 63        	ld	s1, 0x0(a5)
   1316a: 6d b5        	j	0x13014 <_vfprintf_r+0x1084>
   1316c: 22 65        	ld	a0, 0x8(sp)
   1316e: 90 11        	addi	a2, sp, 0xe0
   13170: ca 85        	mv	a1, s2
   13172: ef 00 50 2f  	jal	0x13c66 <__sprint_r>
   13176: e3 1a 05 a8  	bnez	a0, 0x12c0a <_vfprintf_r+0xc7a>
   1317a: ce 74        	ld	s1, 0xf0(sp)
   1317c: 2e 5b        	lw	s6, 0xe8(sp)
   1317e: d2 8c        	mv	s9, s4
   13180: 6f f0 ef d2  	j	0x126ae <_vfprintf_r+0x71e>
   13184: 22 65        	ld	a0, 0x8(sp)
   13186: 90 11        	addi	a2, sp, 0xe0
   13188: ca 85        	mv	a1, s2
   1318a: ef 00 d0 2d  	jal	0x13c66 <__sprint_r>
   1318e: e3 1e 05 a6  	bnez	a0, 0x12c0a <_vfprintf_r+0xc7a>
   13192: ce 74        	ld	s1, 0xf0(sp)
   13194: 2e 5b        	lw	s6, 0xe8(sp)
   13196: d2 8c        	mv	s9, s4
   13198: 6f f0 2f d3  	j	0x126ca <_vfprintf_r+0x73a>
   1319c: ae 56        	lw	a3, 0xe8(sp)
   1319e: 37 06 02 00  	lui	a2, 0x20
   131a2: 13 06 06 bf  	addi	a2, a2, -0x410
   131a6: 85 26        	addiw	a3, a3, 0x1
   131a8: 10 e0        	sd	a2, 0x0(s0)
   131aa: 85 04        	addi	s1, s1, 0x1
   131ac: 05 46        	li	a2, 0x1
   131ae: 10 e4        	sd	a2, 0x8(s0)
   131b0: b6 d5        	sw	a3, 0xe8(sp)
   131b2: 1b 86 06 00  	sext.w	a2, a3
   131b6: a6 f9        	sd	s1, 0xf0(sp)
   131b8: 9d 46        	li	a3, 0x7
   131ba: 41 04        	addi	s0, s0, 0x10
   131bc: 63 c7 c6 3a  	blt	a3, a2, 0x1356a <_vfprintf_r+0x15da>
   131c0: 63 14 07 10  	bnez	a4, 0x132c8 <_vfprintf_r+0x1338>
   131c4: e2 77        	ld	a5, 0x38(sp)
   131c6: 13 f7 1d 00  	andi	a4, s11, 0x1
   131ca: 5d 8f        	or	a4, a4, a5
   131cc: 19 e3        	bnez	a4, 0x131d2 <_vfprintf_r+0x1242>
   131ce: 6f e0 7f ff  	j	0x121c4 <_vfprintf_r+0x234>
   131d2: 2e 57        	lw	a4, 0xe8(sp)
   131d4: c6 67        	ld	a5, 0x50(sp)
   131d6: e6 66        	ld	a3, 0x58(sp)
   131d8: 33 86 97 00  	add	a2, a5, s1
   131dc: 14 e0        	sd	a3, 0x0(s0)
   131de: 9b 06 17 00  	addiw	a3, a4, 0x1
   131e2: 1c e4        	sd	a5, 0x8(s0)
   131e4: b2 f9        	sd	a2, 0xf0(sp)
   131e6: b6 d5        	sw	a3, 0xe8(sp)
   131e8: 1d 47        	li	a4, 0x7
   131ea: 63 40 d7 40  	blt	a4, a3, 0x135ea <_vfprintf_r+0x165a>
   131ee: 41 04        	addi	s0, s0, 0x10
   131f0: fd a8        	j	0x132ee <_vfprintf_r+0x135e>
   131f2: 82 76        	ld	a3, 0x20(sp)
   131f4: 93 f7 0d 04  	andi	a5, s11, 0x40
   131f8: 84 42        	lw	s1, 0x0(a3)
   131fa: 63 86 07 16  	beqz	a5, 0x13366 <_vfprintf_r+0x13d6>
   131fe: c2 14        	slli	s1, s1, 0x30
   13200: c1 90        	srli	s1, s1, 0x30
   13202: 09 bd        	j	0x13014 <_vfprintf_r+0x1084>
   13204: 22 65        	ld	a0, 0x8(sp)
   13206: ef e0 ef a3  	jal	0x11444 <__sinit>
   1320a: 6f e0 1f dc  	j	0x11fca <_vfprintf_r+0x3a>
   1320e: 22 65        	ld	a0, 0x8(sp)
   13210: 90 11        	addi	a2, sp, 0xe0
   13212: ca 85        	mv	a1, s2
   13214: ef 00 30 25  	jal	0x13c66 <__sprint_r>
   13218: e3 19 05 9e  	bnez	a0, 0x12c0a <_vfprintf_r+0xc7a>
   1321c: ce 74        	ld	s1, 0xf0(sp)
   1321e: 52 84        	mv	s0, s4
   13220: 6f f0 8f fe  	j	0x12a08 <_vfprintf_r+0xa78>
   13224: da 88        	mv	a7, s6
   13226: 4e 8b        	mv	s6, s3
   13228: c2 79        	ld	s3, 0x30(sp)
   1322a: 1b 87 17 00  	addiw	a4, a5, 0x1
   1322e: 23 30 14 01  	sd	a7, 0x0(s0)
   13232: 23 34 64 01  	sd	s6, 0x8(s0)
   13236: da 94        	add	s1, s1, s6
   13238: a6 f9        	sd	s1, 0xf0(sp)
   1323a: ba d5        	sw	a4, 0xe8(sp)
   1323c: 9d 47        	li	a5, 0x7
   1323e: 63 c4 e7 00  	blt	a5, a4, 0x13246 <_vfprintf_r+0x12b6>
   13242: 6f e0 1f f8  	j	0x121c2 <_vfprintf_r+0x232>
   13246: 6f f0 8f cd  	j	0x1271e <_vfprintf_r+0x78e>
   1324a: 3a f0        	sd	a4, 0x20(sp)
   1324c: d9 ba        	j	0x12c22 <_vfprintf_r+0xc92>
   1324e: 4e 65        	ld	a0, 0xd0(sp)
   13250: ee 65        	ld	a1, 0xd8(sp)
   13252: 01 46        	li	a2, 0x0
   13254: 81 46        	li	a3, 0x0
   13256: ef 50 40 40  	jal	0x1865a <__lttf2>
   1325a: 62 63        	ld	t1, 0x18(sp)
   1325c: 63 48 05 54  	bltz	a0, 0x137ac <_vfprintf_r+0x181c>
   13260: 03 47 f1 0a  	lbu	a4, 0xaf(sp)
   13264: 93 07 70 04  	li	a5, 0x47
   13268: 63 dc 67 30  	bge	a5, t1, 0x13580 <_vfprintf_r+0x15f0>
   1326c: b7 07 02 00  	lui	a5, 0x20
   13270: 13 8d 07 ba  	addi	s10, a5, -0x460
   13274: 13 fe fd f7  	andi	t3, s11, -0x81
   13278: 02 ec        	sd	zero, 0x18(sp)
   1327a: 82 e4        	sd	zero, 0x48(sp)
   1327c: 82 e0        	sd	zero, 0x40(sp)
   1327e: 02 f8        	sd	zero, 0x30(sp)
   13280: 9b 0d 0e 00  	sext.w	s11, t3
   13284: 0d 4c        	li	s8, 0x3
   13286: 8d 46        	li	a3, 0x3
   13288: 01 4b        	li	s6, 0x0
   1328a: 19 c3        	beqz	a4, 0x13290 <_vfprintf_r+0x1300>
   1328c: 6f f0 af 85  	j	0x122e6 <_vfprintf_r+0x356>
   13290: 6f e0 1f ea  	j	0x12130 <_vfprintf_r+0x1a0>
   13294: 6a 85        	mv	a0, s10
   13296: 9a f4        	sd	t1, 0x68(sp)
   13298: ef e0 4f fe  	jal	0x11a7c <strlen>
   1329c: 9b 06 05 00  	sext.w	a3, a0
   132a0: 03 47 f1 0a  	lbu	a4, 0xaf(sp)
   132a4: 13 c8 f6 ff  	not	a6, a3
   132a8: 13 58 f8 43  	srai	a6, a6, 0x3f
   132ac: 26 f0        	sd	s1, 0x20(sp)
   132ae: 02 ec        	sd	zero, 0x18(sp)
   132b0: 82 e4        	sd	zero, 0x48(sp)
   132b2: 82 e0        	sd	zero, 0x40(sp)
   132b4: 02 f8        	sd	zero, 0x30(sp)
   132b6: 26 73        	ld	t1, 0x68(sp)
   132b8: 33 7c d8 00  	and	s8, a6, a3
   132bc: 01 4b        	li	s6, 0x0
   132be: 19 c3        	beqz	a4, 0x132c4 <_vfprintf_r+0x1334>
   132c0: 6f f0 6f 82  	j	0x122e6 <_vfprintf_r+0x356>
   132c4: 6f e0 df e6  	j	0x12130 <_vfprintf_r+0x1a0>
   132c8: ae 55        	lw	a1, 0xe8(sp)
   132ca: c6 67        	ld	a5, 0x50(sp)
   132cc: e6 66        	ld	a3, 0x58(sp)
   132ce: 41 04        	addi	s0, s0, 0x10
   132d0: 33 86 97 00  	add	a2, a5, s1
   132d4: 23 38 d4 fe  	sd	a3, -0x10(s0)
   132d8: 9b 86 15 00  	addiw	a3, a1, 0x1
   132dc: 23 3c f4 fe  	sd	a5, -0x8(s0)
   132e0: b2 f9        	sd	a2, 0xf0(sp)
   132e2: b6 d5        	sw	a3, 0xe8(sp)
   132e4: 9d 45        	li	a1, 0x7
   132e6: 63 c2 d5 30  	blt	a1, a3, 0x135ea <_vfprintf_r+0x165a>
   132ea: 63 4b 07 54  	bltz	a4, 0x13840 <_vfprintf_r+0x18b0>
   132ee: e2 77        	ld	a5, 0x38(sp)
   132f0: 1b 87 16 00  	addiw	a4, a3, 0x1
   132f4: 23 30 a4 01  	sd	s10, 0x0(s0)
   132f8: b3 84 c7 00  	add	s1, a5, a2
   132fc: 1c e4        	sd	a5, 0x8(s0)
   132fe: a6 f9        	sd	s1, 0xf0(sp)
   13300: ba d5        	sw	a4, 0xe8(sp)
   13302: 9d 47        	li	a5, 0x7
   13304: 63 c4 e7 00  	blt	a5, a4, 0x1330c <_vfprintf_r+0x137c>
   13308: 6f e0 bf eb  	j	0x121c2 <_vfprintf_r+0x232>
   1330c: 6f f0 2f c1  	j	0x1271e <_vfprintf_r+0x78e>
   13310: ce 88        	mv	a7, s3
   13312: c2 79        	ld	s3, 0x30(sp)
   13314: 05 2b        	addiw	s6, s6, 0x1
   13316: a2 94        	add	s1, s1, s0
   13318: 23 b0 1c 01  	sd	a7, 0x0(s9)
   1331c: 23 b4 8c 00  	sd	s0, 0x8(s9)
   13320: a6 f9        	sd	s1, 0xf0(sp)
   13322: da d5        	sw	s6, 0xe8(sp)
   13324: 9d 47        	li	a5, 0x7
   13326: 63 da 67 bd  	bge	a5, s6, 0x126fa <_vfprintf_r+0x76a>
   1332a: b1 be        	j	0x12e86 <_vfprintf_r+0xef6>
   1332c: 93 f7 0d 20  	andi	a5, s11, 0x200
   13330: 63 86 07 28  	beqz	a5, 0x135bc <_vfprintf_r+0x162c>
   13334: 93 f4 f4 0f  	andi	s1, s1, 0xff
   13338: 6f e0 bf fc  	j	0x12302 <_vfprintf_r+0x372>
   1333c: 93 f7 0d 20  	andi	a5, s11, 0x200
   13340: 63 8b 07 26  	beqz	a5, 0x135b6 <_vfprintf_r+0x1626>
   13344: 9b 94 84 01  	slliw	s1, s1, 0x18
   13348: 9b d4 84 41  	sraiw	s1, s1, 0x18
   1334c: a6 87        	mv	a5, s1
   1334e: 6f e0 7f f5  	j	0x122a4 <_vfprintf_r+0x314>
   13352: 93 f7 0c 20  	andi	a5, s9, 0x200
   13356: 63 8a 07 24  	beqz	a5, 0x135aa <_vfprintf_r+0x161a>
   1335a: 93 f4 f4 0f  	andi	s1, s1, 0xff
   1335e: 3a f0        	sd	a4, 0x20(sp)
   13360: 85 47        	li	a5, 0x1
   13362: 6f e0 bf fa  	j	0x1230c <_vfprintf_r+0x37c>
   13366: 93 f7 0d 20  	andi	a5, s11, 0x200
   1336a: 63 8d 07 22  	beqz	a5, 0x135a4 <_vfprintf_r+0x1614>
   1336e: 93 f4 f4 0f  	andi	s1, s1, 0xff
   13372: 4d b1        	j	0x13014 <_vfprintf_r+0x1084>
   13374: ee 67        	ld	a5, 0xd8(sp)
   13376: 63 c3 07 26  	bltz	a5, 0x135dc <_vfprintf_r+0x164c>
   1337a: 03 47 f1 0a  	lbu	a4, 0xaf(sp)
   1337e: 93 07 70 04  	li	a5, 0x47
   13382: 63 ca 67 4a  	blt	a5, t1, 0x13836 <_vfprintf_r+0x18a6>
   13386: b7 07 02 00  	lui	a5, 0x20
   1338a: 13 8d 87 ba  	addi	s10, a5, -0x458
   1338e: dd b5        	j	0x13274 <_vfprintf_r+0x12e4>
   13390: e6 88        	mv	a7, s9
   13392: 9b 06 17 00  	addiw	a3, a4, 0x1
   13396: da 94        	add	s1, s1, s6
   13398: 23 30 14 01  	sd	a7, 0x0(s0)
   1339c: 23 34 64 01  	sd	s6, 0x8(s0)
   133a0: a6 f9        	sd	s1, 0xf0(sp)
   133a2: b6 d5        	sw	a3, 0xe8(sp)
   133a4: 1d 47        	li	a4, 0x7
   133a6: 41 04        	addi	s0, s0, 0x10
   133a8: e3 59 d7 a0  	bge	a4, a3, 0x12dba <_vfprintf_r+0xe2a>
   133ac: 22 65        	ld	a0, 0x8(sp)
   133ae: 90 11        	addi	a2, sp, 0xe0
   133b0: ca 85        	mv	a1, s2
   133b2: ef 00 50 0b  	jal	0x13c66 <__sprint_r>
   133b6: e3 1a 05 84  	bnez	a0, 0x12c0a <_vfprintf_r+0xc7a>
   133ba: ce 74        	ld	s1, 0xf0(sp)
   133bc: 52 84        	mv	s0, s4
   133be: f5 ba        	j	0x12dba <_vfprintf_r+0xe2a>
   133c0: aa 67        	ld	a5, 0x88(sp)
   133c2: e6 75        	ld	a1, 0x78(sp)
   133c4: b6 e0        	sd	a3, 0x40(sp)
   133c6: 33 0d fd 40  	sub	s10, s10, a5
   133ca: 3e 86        	mv	a2, a5
   133cc: 6a 85        	mv	a0, s10
   133ce: 3a fc        	sd	a4, 0x38(sp)
   133d0: 1a f8        	sd	t1, 0x30(sp)
   133d2: 46 ec        	sd	a7, 0x18(sp)
   133d4: ef 20 a0 0c  	jal	0x1549e <strncpy>
   133d8: e2 68        	ld	a7, 0x18(sp)
   133da: a9 47        	li	a5, 0xa
   133dc: b3 d7 f4 02  	divu	a5, s1, a5
   133e0: 03 c6 18 00  	lbu	a2, 0x1(a7)
   133e4: 42 73        	ld	t1, 0x30(sp)
   133e6: 62 77        	ld	a4, 0x38(sp)
   133e8: 33 36 c0 00  	snez	a2, a2
   133ec: b2 98        	add	a7, a7, a2
   133ee: 86 66        	ld	a3, 0x40(sp)
   133f0: 01 46        	li	a2, 0x0
   133f2: 25 48        	li	a6, 0x9
   133f4: 6d be        	j	0x12fae <_vfprintf_r+0x101e>
   133f6: e2 77        	ld	a5, 0x38(sp)
   133f8: 86 6c        	ld	s9, 0x40(sp)
   133fa: b7 08 02 00  	lui	a7, 0x20
   133fe: b3 05 fd 00  	add	a1, s10, a5
   13402: ce f4        	sd	s3, 0x68(sp)
   13404: 6e e9        	sd	s11, 0x90(sp)
   13406: 5e ed        	sd	s7, 0x98(sp)
   13408: a6 6d        	ld	s11, 0x48(sp)
   1340a: e2 e0        	sd	s8, 0x40(sp)
   1340c: ea e4        	sd	s10, 0x48(sp)
   1340e: 26 86        	mv	a2, s1
   13410: aa 6b        	ld	s7, 0x88(sp)
   13412: 0a 6c        	ld	s8, 0x80(sp)
   13414: a2 69        	ld	s3, 0x8(sp)
   13416: 9d 46        	li	a3, 0x7
   13418: 41 47        	li	a4, 0x10
   1341a: 13 8b 08 e5  	addi	s6, a7, -0x1b0
   1341e: a2 87        	mv	a5, s0
   13420: 1a 8d        	mv	s10, t1
   13422: ae 84        	mv	s1, a1
   13424: 63 5d 90 07  	blez	s9, 0x1349e <_vfprintf_r+0x150e>
   13428: 63 52 b0 11  	blez	s11, 0x1352c <_vfprintf_r+0x159c>
   1342c: fd 3d        	addiw	s11, s11, -0x1
   1342e: ae 55        	lw	a1, 0xe8(sp)
   13430: 66 75        	ld	a0, 0x78(sp)
   13432: 5e 96        	add	a2, a2, s7
   13434: 23 b4 77 01  	sd	s7, 0x8(a5)
   13438: 88 e3        	sd	a0, 0x0(a5)
   1343a: 1b 85 15 00  	addiw	a0, a1, 0x1
   1343e: b2 f9        	sd	a2, 0xf0(sp)
   13440: aa d5        	sw	a0, 0xe8(sp)
   13442: c1 07        	addi	a5, a5, 0x10
   13444: 63 c7 a6 0e  	blt	a3, a0, 0x13532 <_vfprintf_r+0x15a2>
   13448: 83 45 0c 00  	lbu	a1, 0x0(s8)
   1344c: 33 8f a4 41  	sub	t5, s1, s10
   13450: 1b 05 0f 00  	sext.w	a0, t5
   13454: 1b 88 05 00  	sext.w	a6, a1
   13458: 63 d3 a5 00  	bge	a1, a0, 0x1345e <_vfprintf_r+0x14ce>
   1345c: 42 8f        	mv	t5, a6
   1345e: 1b 04 0f 00  	sext.w	s0, t5
   13462: 63 52 80 02  	blez	s0, 0x13486 <_vfprintf_r+0x14f6>
   13466: ae 55        	lw	a1, 0xe8(sp)
   13468: 22 96        	add	a2, a2, s0
   1346a: 23 b0 a7 01  	sd	s10, 0x0(a5)
   1346e: 1b 85 15 00  	addiw	a0, a1, 0x1
   13472: 80 e7        	sd	s0, 0x8(a5)
   13474: b2 f9        	sd	a2, 0xf0(sp)
   13476: aa d5        	sw	a0, 0xe8(sp)
   13478: 63 c9 a6 0c  	blt	a3, a0, 0x1354a <_vfprintf_r+0x15ba>
   1347c: 83 45 0c 00  	lbu	a1, 0x0(s8)
   13480: c1 07        	addi	a5, a5, 0x10
   13482: 1b 88 05 00  	sext.w	a6, a1
   13486: 13 45 f4 ff  	not	a0, s0
   1348a: 7d 95        	srai	a0, a0, 0x3f
   1348c: 33 7f a4 00  	and	t5, s0, a0
   13490: 3b 04 e8 41  	subw	s0, a6, t5
   13494: 63 47 80 02  	bgtz	s0, 0x134c2 <_vfprintf_r+0x1532>
   13498: 2e 9d        	add	s10, s10, a1
   1349a: e3 47 90 f9  	bgtz	s9, 0x13428 <_vfprintf_r+0x1498>
   1349e: e3 47 b0 f9  	bgtz	s11, 0x1342c <_vfprintf_r+0x149c>
   134a2: 6a 83        	mv	t1, s10
   134a4: 3e 84        	mv	s0, a5
   134a6: 26 6d        	ld	s10, 0x48(sp)
   134a8: e2 77        	ld	a5, 0x38(sp)
   134aa: 62 e1        	sd	s8, 0x80(sp)
   134ac: a6 79        	ld	s3, 0x68(sp)
   134ae: 33 07 fd 00  	add	a4, s10, a5
   134b2: ca 6d        	ld	s11, 0x90(sp)
   134b4: ea 6b        	ld	s7, 0x98(sp)
   134b6: 06 6c        	ld	s8, 0x40(sp)
   134b8: b2 84        	mv	s1, a2
   134ba: e3 77 67 90  	bgeu	a4, t1, 0x12dc8 <_vfprintf_r+0xe38>
   134be: 3a 83        	mv	t1, a4
   134c0: 21 b2        	j	0x12dc8 <_vfprintf_r+0xe38>
   134c2: 37 0f 02 00  	lui	t5, 0x20
   134c6: ae 55        	lw	a1, 0xe8(sp)
   134c8: 13 0f 0f e5  	addi	t5, t5, -0x1b0
   134cc: 63 51 87 04  	bge	a4, s0, 0x1350e <_vfprintf_r+0x157e>
   134d0: 5a f8        	sd	s6, 0x30(sp)
   134d2: 21 a0        	j	0x134da <_vfprintf_r+0x154a>
   134d4: 41 34        	addiw	s0, s0, -0x10
   134d6: 63 5b 87 02  	bge	a4, s0, 0x1350c <_vfprintf_r+0x157c>
   134da: 85 25        	addiw	a1, a1, 0x1
   134dc: 41 06        	addi	a2, a2, 0x10
   134de: 23 b0 67 01  	sd	s6, 0x0(a5)
   134e2: 98 e7        	sd	a4, 0x8(a5)
   134e4: b2 f9        	sd	a2, 0xf0(sp)
   134e6: ae d5        	sw	a1, 0xe8(sp)
   134e8: c1 07        	addi	a5, a5, 0x10
   134ea: e3 d5 b6 fe  	bge	a3, a1, 0x134d4 <_vfprintf_r+0x1544>
   134ee: 90 11        	addi	a2, sp, 0xe0
   134f0: ca 85        	mv	a1, s2
   134f2: 4e 85        	mv	a0, s3
   134f4: ef 00 20 77  	jal	0x13c66 <__sprint_r>
   134f8: 63 19 05 f0  	bnez	a0, 0x12c0a <_vfprintf_r+0xc7a>
   134fc: 41 47        	li	a4, 0x10
   134fe: 41 34        	addiw	s0, s0, -0x10
   13500: 4e 76        	ld	a2, 0xf0(sp)
   13502: ae 55        	lw	a1, 0xe8(sp)
   13504: d2 87        	mv	a5, s4
   13506: 9d 46        	li	a3, 0x7
   13508: e3 49 87 fc  	blt	a4, s0, 0x134da <_vfprintf_r+0x154a>
   1350c: 42 7f        	ld	t5, 0x30(sp)
   1350e: 1b 85 15 00  	addiw	a0, a1, 0x1
   13512: 22 96        	add	a2, a2, s0
   13514: 23 b0 e7 01  	sd	t5, 0x0(a5)
   13518: 80 e7        	sd	s0, 0x8(a5)
   1351a: b2 f9        	sd	a2, 0xf0(sp)
   1351c: aa d5        	sw	a0, 0xe8(sp)
   1351e: 63 c8 a6 26  	blt	a3, a0, 0x1378e <_vfprintf_r+0x17fe>
   13522: 83 45 0c 00  	lbu	a1, 0x0(s8)
   13526: c1 07        	addi	a5, a5, 0x10
   13528: 2e 9d        	add	s10, s10, a1
   1352a: 85 bf        	j	0x1349a <_vfprintf_r+0x150a>
   1352c: 7d 1c        	addi	s8, s8, -0x1
   1352e: fd 3c        	addiw	s9, s9, -0x1
   13530: fd bd        	j	0x1342e <_vfprintf_r+0x149e>
   13532: 90 11        	addi	a2, sp, 0xe0
   13534: ca 85        	mv	a1, s2
   13536: 4e 85        	mv	a0, s3
   13538: ef 00 e0 72  	jal	0x13c66 <__sprint_r>
   1353c: 63 17 05 ec  	bnez	a0, 0x12c0a <_vfprintf_r+0xc7a>
   13540: 4e 76        	ld	a2, 0xf0(sp)
   13542: d2 87        	mv	a5, s4
   13544: 41 47        	li	a4, 0x10
   13546: 9d 46        	li	a3, 0x7
   13548: 01 b7        	j	0x13448 <_vfprintf_r+0x14b8>
   1354a: 90 11        	addi	a2, sp, 0xe0
   1354c: ca 85        	mv	a1, s2
   1354e: 4e 85        	mv	a0, s3
   13550: ef 00 60 71  	jal	0x13c66 <__sprint_r>
   13554: 63 1b 05 ea  	bnez	a0, 0x12c0a <_vfprintf_r+0xc7a>
   13558: 83 45 0c 00  	lbu	a1, 0x0(s8)
   1355c: 4e 76        	ld	a2, 0xf0(sp)
   1355e: d2 87        	mv	a5, s4
   13560: 1b 88 05 00  	sext.w	a6, a1
   13564: 41 47        	li	a4, 0x10
   13566: 9d 46        	li	a3, 0x7
   13568: 39 bf        	j	0x13486 <_vfprintf_r+0x14f6>
   1356a: 22 65        	ld	a0, 0x8(sp)
   1356c: 90 11        	addi	a2, sp, 0xe0
   1356e: ca 85        	mv	a1, s2
   13570: ef 00 60 6f  	jal	0x13c66 <__sprint_r>
   13574: 63 1b 05 e8  	bnez	a0, 0x12c0a <_vfprintf_r+0xc7a>
   13578: 6a 57        	lw	a4, 0xb8(sp)
   1357a: ce 74        	ld	s1, 0xf0(sp)
   1357c: 52 84        	mv	s0, s4
   1357e: 89 b1        	j	0x131c0 <_vfprintf_r+0x1230>
   13580: b7 07 02 00  	lui	a5, 0x20
   13584: 13 8d 87 b9  	addi	s10, a5, -0x468
   13588: f5 b1        	j	0x13274 <_vfprintf_r+0x12e4>
   1358a: 22 65        	ld	a0, 0x8(sp)
   1358c: 90 11        	addi	a2, sp, 0xe0
   1358e: ca 85        	mv	a1, s2
   13590: ef 00 60 6d  	jal	0x13c66 <__sprint_r>
   13594: 63 1b 05 e6  	bnez	a0, 0x12c0a <_vfprintf_r+0xc7a>
   13598: ce 74        	ld	s1, 0xf0(sp)
   1359a: 52 84        	mv	s0, s4
   1359c: 6f f0 bf 80  	j	0x12da6 <_vfprintf_r+0xe16>
   135a0: 99 46        	li	a3, 0x6
   135a2: dd b4        	j	0x13088 <_vfprintf_r+0x10f8>
   135a4: 82 14        	slli	s1, s1, 0x20
   135a6: 81 90        	srli	s1, s1, 0x20
   135a8: b5 b4        	j	0x13014 <_vfprintf_r+0x1084>
   135aa: 82 14        	slli	s1, s1, 0x20
   135ac: 81 90        	srli	s1, s1, 0x20
   135ae: 3a f0        	sd	a4, 0x20(sp)
   135b0: 85 47        	li	a5, 0x1
   135b2: 6f e0 bf d5  	j	0x1230c <_vfprintf_r+0x37c>
   135b6: a6 87        	mv	a5, s1
   135b8: 6f e0 df ce  	j	0x122a4 <_vfprintf_r+0x314>
   135bc: 82 14        	slli	s1, s1, 0x20
   135be: 81 90        	srli	s1, s1, 0x20
   135c0: 6f e0 3f d4  	j	0x12302 <_vfprintf_r+0x372>
   135c4: c2 67        	ld	a5, 0x10(sp)
   135c6: 23 10 f7 00  	sh	a5, 0x0(a4)
   135ca: 6f f0 cf bc  	j	0x12996 <_vfprintf_r+0xa06>
   135ce: 22 65        	ld	a0, 0x8(sp)
   135d0: 90 11        	addi	a2, sp, 0xe0
   135d2: ca 85        	mv	a1, s2
   135d4: ef 00 20 69  	jal	0x13c66 <__sprint_r>
   135d8: 6f e0 1f c3  	j	0x12208 <_vfprintf_r+0x278>
   135dc: 93 07 d0 02  	li	a5, 0x2d
   135e0: a3 07 f1 0a  	sb	a5, 0xaf(sp)
   135e4: 13 07 d0 02  	li	a4, 0x2d
   135e8: 59 bb        	j	0x1337e <_vfprintf_r+0x13ee>
   135ea: 22 65        	ld	a0, 0x8(sp)
   135ec: 90 11        	addi	a2, sp, 0xe0
   135ee: ca 85        	mv	a1, s2
   135f0: ef 00 60 67  	jal	0x13c66 <__sprint_r>
   135f4: 63 1b 05 e0  	bnez	a0, 0x12c0a <_vfprintf_r+0xc7a>
   135f8: 6a 57        	lw	a4, 0xb8(sp)
   135fa: 4e 76        	ld	a2, 0xf0(sp)
   135fc: ae 56        	lw	a3, 0xe8(sp)
   135fe: 52 84        	mv	s0, s4
   13600: ed b1        	j	0x132ea <_vfprintf_r+0x135a>
   13602: 22 65        	ld	a0, 0x8(sp)
   13604: 9b 05 1b 00  	addiw	a1, s6, 0x1
   13608: 3a f8        	sd	a4, 0x30(sp)
   1360a: 1a ec        	sd	t1, 0x18(sp)
   1360c: ef d0 2f 9c  	jal	0x107ce <_malloc_r>
   13610: 62 63        	ld	t1, 0x18(sp)
   13612: 42 77        	ld	a4, 0x30(sp)
   13614: 2a 8d        	mv	s10, a0
   13616: 63 06 05 4c  	beqz	a0, 0x13ae2 <_vfprintf_r+0x1b52>
   1361a: 2a ec        	sd	a0, 0x18(sp)
   1361c: ba 8d        	mv	s11, a4
   1361e: 6f e0 1f db  	j	0x123ce <_vfprintf_r+0x43e>
   13622: c2 75        	ld	a1, 0x30(sp)
   13624: 22 65        	ld	a0, 0x8(sp)
   13626: 5a 87        	mv	a4, s6
   13628: 93 08 81 0c  	addi	a7, sp, 0xc8
   1362c: 13 08 c1 0b  	addi	a6, sp, 0xbc
   13630: 3c 19        	addi	a5, sp, 0xb8
   13632: 89 46        	li	a3, 0x2
   13634: 66 86        	mv	a2, s9
   13636: ef 20 40 2e  	jal	0x1591a <_ldtoa_r>
   1363a: 62 73        	ld	t1, 0x38(sp)
   1363c: 13 07 70 04  	li	a4, 0x47
   13640: 2a 8d        	mv	s10, a0
   13642: 63 18 e3 4a  	bne	t1, a4, 0x13af2 <_vfprintf_r+0x1b62>
   13646: 13 f7 1d 00  	andi	a4, s11, 0x1
   1364a: 63 1e 07 1a  	bnez	a4, 0x13806 <_vfprintf_r+0x1876>
   1364e: ea 57        	lw	a5, 0xb8(sp)
   13650: 3e f8        	sd	a5, 0x30(sp)
   13652: ae 67        	ld	a5, 0xc8(sp)
   13654: bb 87 a7 41  	subw	a5, a5, s10
   13658: 3e fc        	sd	a5, 0x38(sp)
   1365a: c2 77        	ld	a5, 0x30(sp)
   1365c: 75 57        	li	a4, -0x3
   1365e: 63 c4 e7 00  	blt	a5, a4, 0x13666 <_vfprintf_r+0x16d6>
   13662: 63 57 fb 0c  	bge	s6, a5, 0x13730 <_vfprintf_r+0x17a0>
   13666: c2 77        	ld	a5, 0x30(sp)
   13668: 79 33        	addiw	t1, t1, -0x2
   1366a: 1b 87 f7 ff  	addiw	a4, a5, -0x1
   1366e: 3a dd        	sw	a4, 0xb8(sp)
   13670: 93 76 f3 0f  	andi	a3, t1, 0xff
   13674: 01 46        	li	a2, 0x0
   13676: 6f e0 3f f2  	j	0x12598 <_vfprintf_r+0x608>
   1367a: c2 77        	ld	a5, 0x30(sp)
   1367c: 83 c5 a7 00  	lbu	a1, 0xa(a5)
   13680: a3 8f b6 fe  	sb	a1, -0x1(a3)
   13684: 6f e0 5f ee  	j	0x12568 <_vfprintf_r+0x5d8>
   13688: 03 47 f1 0a  	lbu	a4, 0xaf(sp)
   1368c: 01 4b        	li	s6, 0x0
   1368e: 19 c3        	beqz	a4, 0x13694 <_vfprintf_r+0x1704>
   13690: 6f e0 7f c5  	j	0x122e6 <_vfprintf_r+0x356>
   13694: 6f e0 df a9  	j	0x12130 <_vfprintf_r+0x1a0>
   13698: 5a 87        	mv	a4, s6
   1369a: 8d 46        	li	a3, 0x3
   1369c: c2 75        	ld	a1, 0x30(sp)
   1369e: 22 65        	ld	a0, 0x8(sp)
   136a0: 93 08 81 0c  	addi	a7, sp, 0xc8
   136a4: 13 08 c1 0b  	addi	a6, sp, 0xbc
   136a8: 3c 19        	addi	a5, sp, 0xb8
   136aa: 66 86        	mv	a2, s9
   136ac: 9a e0        	sd	t1, 0x40(sp)
   136ae: 3a fc        	sd	a4, 0x38(sp)
   136b0: ef 20 a0 26  	jal	0x1591a <_ldtoa_r>
   136b4: 62 77        	ld	a4, 0x38(sp)
   136b6: 06 63        	ld	t1, 0x40(sp)
   136b8: 2a 8d        	mv	s10, a0
   136ba: 13 7c f3 fd  	andi	s8, t1, -0x21
   136be: 93 06 60 04  	li	a3, 0x46
   136c2: 33 08 ed 00  	add	a6, s10, a4
   136c6: 63 1a dc 00  	bne	s8, a3, 0x136da <_vfprintf_r+0x174a>
   136ca: 03 46 0d 00  	lbu	a2, 0x0(s10)
   136ce: 93 06 00 03  	li	a3, 0x30
   136d2: 63 07 d6 30  	beq	a2, a3, 0x139e0 <_vfprintf_r+0x1a50>
   136d6: ea 56        	lw	a3, 0xb8(sp)
   136d8: 36 98        	add	a6, a6, a3
   136da: 42 75        	ld	a0, 0x30(sp)
   136dc: 01 46        	li	a2, 0x0
   136de: 81 46        	li	a3, 0x0
   136e0: e6 85        	mv	a1, s9
   136e2: c2 e0        	sd	a6, 0x40(sp)
   136e4: 1a fc        	sd	t1, 0x38(sp)
   136e6: ef 40 f0 62  	jal	0x18514 <__netf2>
   136ea: 62 73        	ld	t1, 0x38(sp)
   136ec: 06 68        	ld	a6, 0x40(sp)
   136ee: 63 01 05 12  	beqz	a0, 0x13810 <_vfprintf_r+0x1880>
   136f2: ae 67        	ld	a5, 0xc8(sp)
   136f4: 63 fc 07 01  	bgeu	a5, a6, 0x1370c <_vfprintf_r+0x177c>
   136f8: 93 06 00 03  	li	a3, 0x30
   136fc: 13 87 17 00  	addi	a4, a5, 0x1
   13700: ba e5        	sd	a4, 0xc8(sp)
   13702: 23 80 d7 00  	sb	a3, 0x0(a5)
   13706: ae 67        	ld	a5, 0xc8(sp)
   13708: e3 ea 07 ff  	bltu	a5, a6, 0x136fc <_vfprintf_r+0x176c>
   1370c: 6a 57        	lw	a4, 0xb8(sp)
   1370e: 3a f8        	sd	a4, 0x30(sp)
   13710: bb 87 a7 41  	subw	a5, a5, s10
   13714: 13 07 70 04  	li	a4, 0x47
   13718: 3e fc        	sd	a5, 0x38(sp)
   1371a: e3 00 ec f4  	beq	s8, a4, 0x1365a <_vfprintf_r+0x16ca>
   1371e: 13 07 60 04  	li	a4, 0x46
   13722: 63 0d ec 18  	beq	s8, a4, 0x138bc <_vfprintf_r+0x192c>
   13726: c2 77        	ld	a5, 0x30(sp)
   13728: 1b 87 f7 ff  	addiw	a4, a5, -0x1
   1372c: 3a dd        	sw	a4, 0xb8(sp)
   1372e: 89 b7        	j	0x13670 <_vfprintf_r+0x16e0>
   13730: e2 77        	ld	a5, 0x38(sp)
   13732: 42 77        	ld	a4, 0x30(sp)
   13734: 63 4d f7 14  	blt	a4, a5, 0x1388e <_vfprintf_r+0x18fe>
   13738: c2 77        	ld	a5, 0x30(sp)
   1373a: 13 f7 1d 00  	andi	a4, s11, 0x1
   1373e: be 86        	mv	a3, a5
   13740: 01 c7        	beqz	a4, 0x13748 <_vfprintf_r+0x17b8>
   13742: 46 67        	ld	a4, 0x50(sp)
   13744: bb 06 f7 00  	addw	a3, a4, a5
   13748: 13 fe 0d 40  	andi	t3, s11, 0x400
   1374c: 63 05 0e 00  	beqz	t3, 0x13756 <_vfprintf_r+0x17c6>
   13750: c2 77        	ld	a5, 0x30(sp)
   13752: 63 42 f0 22  	bgtz	a5, 0x13976 <_vfprintf_r+0x19e6>
   13756: 13 c8 f6 ff  	not	a6, a3
   1375a: 13 58 f8 43  	srai	a6, a6, 0x3f
   1375e: 33 f8 06 01  	and	a6, a3, a6
   13762: 1b 0c 08 00  	sext.w	s8, a6
   13766: a6 8d        	mv	s11, s1
   13768: 13 03 70 06  	li	t1, 0x67
   1376c: 82 e4        	sd	zero, 0x48(sp)
   1376e: 82 e0        	sd	zero, 0x40(sp)
   13770: 6f e0 1f ee  	j	0x12650 <_vfprintf_r+0x6c0>
   13774: ba 8d        	mv	s11, a4
   13776: 02 ec        	sd	zero, 0x18(sp)
   13778: 13 0d 81 0f  	addi	s10, sp, 0xf8
   1377c: 7d 57        	li	a4, -0x1
   1377e: 7e 17        	slli	a4, a4, 0x3f
   13780: 93 07 d0 02  	li	a5, 0x2d
   13784: b3 cc ec 00  	xor	s9, s9, a4
   13788: be f4        	sd	a5, 0x68(sp)
   1378a: 6f e0 df c5  	j	0x123e6 <_vfprintf_r+0x456>
   1378e: 90 11        	addi	a2, sp, 0xe0
   13790: ca 85        	mv	a1, s2
   13792: 4e 85        	mv	a0, s3
   13794: ef 00 20 4d  	jal	0x13c66 <__sprint_r>
   13798: 63 19 05 c6  	bnez	a0, 0x12c0a <_vfprintf_r+0xc7a>
   1379c: 83 45 0c 00  	lbu	a1, 0x0(s8)
   137a0: 4e 76        	ld	a2, 0xf0(sp)
   137a2: d2 87        	mv	a5, s4
   137a4: 41 47        	li	a4, 0x10
   137a6: 9d 46        	li	a3, 0x7
   137a8: 2e 9d        	add	s10, s10, a1
   137aa: c5 b9        	j	0x1349a <_vfprintf_r+0x150a>
   137ac: 93 07 d0 02  	li	a5, 0x2d
   137b0: a3 07 f1 0a  	sb	a5, 0xaf(sp)
   137b4: 13 07 d0 02  	li	a4, 0x2d
   137b8: 75 b4        	j	0x13264 <_vfprintf_r+0x12d4>
   137ba: da 88        	mv	a7, s6
   137bc: 4a 8b        	mv	s6, s2
   137be: 4e 89        	mv	s2, s3
   137c0: c2 79        	ld	s3, 0x30(sp)
   137c2: a5 b4        	j	0x1322a <_vfprintf_r+0x129a>
   137c4: 03 47 f1 0a  	lbu	a4, 0xaf(sp)
   137c8: 26 f0        	sd	s1, 0x20(sp)
   137ca: 82 e4        	sd	zero, 0x48(sp)
   137cc: 82 e0        	sd	zero, 0x40(sp)
   137ce: 02 f8        	sd	zero, 0x30(sp)
   137d0: 5a 8c        	mv	s8, s6
   137d2: da 86        	mv	a3, s6
   137d4: 01 4b        	li	s6, 0x0
   137d6: 19 c3        	beqz	a4, 0x137dc <_vfprintf_r+0x184c>
   137d8: 6f e0 ff b0  	j	0x122e6 <_vfprintf_r+0x356>
   137dc: 6f e0 5f 95  	j	0x12130 <_vfprintf_r+0x1a0>
   137e0: c2 75        	ld	a1, 0x30(sp)
   137e2: 22 65        	ld	a0, 0x8(sp)
   137e4: 5a 87        	mv	a4, s6
   137e6: 93 08 81 0c  	addi	a7, sp, 0xc8
   137ea: 13 08 c1 0b  	addi	a6, sp, 0xbc
   137ee: 3c 19        	addi	a5, sp, 0xb8
   137f0: 89 46        	li	a3, 0x2
   137f2: 66 86        	mv	a2, s9
   137f4: 1a fc        	sd	t1, 0x38(sp)
   137f6: ef 20 40 12  	jal	0x1591a <_ldtoa_r>
   137fa: 13 f7 1d 00  	andi	a4, s11, 0x1
   137fe: 62 73        	ld	t1, 0x38(sp)
   13800: 2a 8d        	mv	s10, a0
   13802: e3 06 07 e4  	beqz	a4, 0x1364e <_vfprintf_r+0x16be>
   13806: 33 08 6d 01  	add	a6, s10, s6
   1380a: 13 0c 70 04  	li	s8, 0x47
   1380e: f1 b5        	j	0x136da <_vfprintf_r+0x174a>
   13810: ea 57        	lw	a5, 0xb8(sp)
   13812: 3e f8        	sd	a5, 0x30(sp)
   13814: c2 87        	mv	a5, a6
   13816: ed bd        	j	0x13710 <_vfprintf_r+0x1780>
   13818: 22 65        	ld	a0, 0x8(sp)
   1381a: 90 11        	addi	a2, sp, 0xe0
   1381c: ca 85        	mv	a1, s2
   1381e: ef 00 80 44  	jal	0x13c66 <__sprint_r>
   13822: 63 14 05 be  	bnez	a0, 0x12c0a <_vfprintf_r+0xc7a>
   13826: ea 56        	lw	a3, 0xb8(sp)
   13828: e2 77        	ld	a5, 0x38(sp)
   1382a: ce 74        	ld	s1, 0xf0(sp)
   1382c: 52 84        	mv	s0, s4
   1382e: bb 86 d7 40  	subw	a3, a5, a3
   13832: 6f f0 ef dd  	j	0x12e10 <_vfprintf_r+0xe80>
   13836: b7 07 02 00  	lui	a5, 0x20
   1383a: 13 8d 07 bb  	addi	s10, a5, -0x450
   1383e: 1d bc        	j	0x13274 <_vfprintf_r+0x12e4>
   13840: b7 08 02 00  	lui	a7, 0x20
   13844: c1 55        	li	a1, -0x10
   13846: 3b 0b e0 40  	negw	s6, a4
   1384a: 93 88 08 e5  	addi	a7, a7, -0x1b0
   1384e: 63 51 b7 0a  	bge	a4, a1, 0x138f0 <_vfprintf_r+0x1960>
   13852: 4e f8        	sd	s3, 0x30(sp)
   13854: c1 4c        	li	s9, 0x10
   13856: 9d 44        	li	s1, 0x7
   13858: c6 89        	mv	s3, a7
   1385a: 21 a0        	j	0x13862 <_vfprintf_r+0x18d2>
   1385c: 41 3b        	addiw	s6, s6, -0x10
   1385e: 63 d7 6c 09  	bge	s9, s6, 0x138ec <_vfprintf_r+0x195c>
   13862: 85 26        	addiw	a3, a3, 0x1
   13864: 41 06        	addi	a2, a2, 0x10
   13866: 23 30 34 01  	sd	s3, 0x0(s0)
   1386a: 23 34 94 01  	sd	s9, 0x8(s0)
   1386e: b2 f9        	sd	a2, 0xf0(sp)
   13870: b6 d5        	sw	a3, 0xe8(sp)
   13872: 41 04        	addi	s0, s0, 0x10
   13874: e3 d4 d4 fe  	bge	s1, a3, 0x1385c <_vfprintf_r+0x18cc>
   13878: 22 65        	ld	a0, 0x8(sp)
   1387a: 90 11        	addi	a2, sp, 0xe0
   1387c: ca 85        	mv	a1, s2
   1387e: ef 00 80 3e  	jal	0x13c66 <__sprint_r>
   13882: 63 14 05 b8  	bnez	a0, 0x12c0a <_vfprintf_r+0xc7a>
   13886: 4e 76        	ld	a2, 0xf0(sp)
   13888: ae 56        	lw	a3, 0xe8(sp)
   1388a: 52 84        	mv	s0, s4
   1388c: c1 bf        	j	0x1385c <_vfprintf_r+0x18cc>
   1388e: c6 67        	ld	a5, 0x50(sp)
   13890: 62 77        	ld	a4, 0x38(sp)
   13892: 13 03 70 06  	li	t1, 0x67
   13896: bb 86 e7 00  	addw	a3, a5, a4
   1389a: c2 77        	ld	a5, 0x30(sp)
   1389c: 63 5d f0 16  	blez	a5, 0x13a16 <_vfprintf_r+0x1a86>
   138a0: 13 fe 0d 40  	andi	t3, s11, 0x400
   138a4: 63 1b 0e 0c  	bnez	t3, 0x1397a <_vfprintf_r+0x19ea>
   138a8: 13 c8 f6 ff  	not	a6, a3
   138ac: 13 58 f8 43  	srai	a6, a6, 0x3f
   138b0: 33 f8 06 01  	and	a6, a3, a6
   138b4: 1b 0c 08 00  	sext.w	s8, a6
   138b8: a6 8d        	mv	s11, s1
   138ba: 4d bd        	j	0x1376c <_vfprintf_r+0x17dc>
   138bc: c2 77        	ld	a5, 0x30(sp)
   138be: 13 f7 1d 00  	andi	a4, s11, 0x1
   138c2: 33 67 eb 00  	or	a4, s6, a4
   138c6: 63 54 f0 1c  	blez	a5, 0x13a8e <_vfprintf_r+0x1afe>
   138ca: 63 1f 07 12  	bnez	a4, 0x13a08 <_vfprintf_r+0x1a78>
   138ce: c2 76        	ld	a3, 0x30(sp)
   138d0: 13 03 60 06  	li	t1, 0x66
   138d4: f1 b7        	j	0x138a0 <_vfprintf_r+0x1910>
   138d6: fd 57        	li	a5, -0x1
   138d8: 3e e8        	sd	a5, 0x10(sp)
   138da: 6f e0 df 95  	j	0x12236 <_vfprintf_r+0x2a6>
   138de: ee 8c        	mv	s9, s11
   138e0: 6f f0 8f b4  	j	0x12c28 <_vfprintf_r+0xc98>
   138e4: 1b 07 1b 00  	addiw	a4, s6, 0x1
   138e8: 89 46        	li	a3, 0x2
   138ea: 4d bb        	j	0x1369c <_vfprintf_r+0x170c>
   138ec: ce 88        	mv	a7, s3
   138ee: c2 79        	ld	s3, 0x30(sp)
   138f0: 85 26        	addiw	a3, a3, 0x1
   138f2: 5a 96        	add	a2, a2, s6
   138f4: 23 30 14 01  	sd	a7, 0x0(s0)
   138f8: 23 34 64 01  	sd	s6, 0x8(s0)
   138fc: b2 f9        	sd	a2, 0xf0(sp)
   138fe: b6 d5        	sw	a3, 0xe8(sp)
   13900: 1d 47        	li	a4, 0x7
   13902: e3 56 d7 8e  	bge	a4, a3, 0x131ee <_vfprintf_r+0x125e>
   13906: 22 65        	ld	a0, 0x8(sp)
   13908: 90 11        	addi	a2, sp, 0xe0
   1390a: ca 85        	mv	a1, s2
   1390c: ef 00 a0 35  	jal	0x13c66 <__sprint_r>
   13910: 63 1d 05 ae  	bnez	a0, 0x12c0a <_vfprintf_r+0xc7a>
   13914: 4e 76        	ld	a2, 0xf0(sp)
   13916: ae 56        	lw	a3, 0xe8(sp)
   13918: 52 84        	mv	s0, s4
   1391a: d1 ba        	j	0x132ee <_vfprintf_r+0x135e>
   1391c: 93 06 21 0c  	addi	a3, sp, 0xc2
   13920: 19 e6        	bnez	a2, 0x1392e <_vfprintf_r+0x199e>
   13922: 93 06 00 03  	li	a3, 0x30
   13926: 23 01 d1 0c  	sb	a3, 0xc2(sp)
   1392a: 93 06 31 0c  	addi	a3, sp, 0xc3
   1392e: 9c 13        	addi	a5, sp, 0x1e0
   13930: 33 86 f6 40  	sub	a2, a3, a5
   13934: 1b 07 07 03  	addiw	a4, a4, 0x30
   13938: 9b 07 16 12  	addiw	a5, a2, 0x121
   1393c: 23 80 e6 00  	sb	a4, 0x0(a3)
   13940: be f8        	sd	a5, 0x70(sp)
   13942: 6f e0 5f cd  	j	0x12616 <_vfprintf_r+0x686>
   13946: 02 ec        	sd	zero, 0x18(sp)
   13948: 19 4b        	li	s6, 0x6
   1394a: 6f e0 5f a8  	j	0x123ce <_vfprintf_r+0x43e>
   1394e: 63 04 0b 00  	beqz	s6, 0x13956 <_vfprintf_r+0x19c6>
   13952: 6f e0 df a7  	j	0x123ce <_vfprintf_r+0x43e>
   13956: 05 4b        	li	s6, 0x1
   13958: 6f e0 7f a7  	j	0x123ce <_vfprintf_r+0x43e>
   1395c: 13 f6 1d 00  	andi	a2, s11, 0x1
   13960: 19 e2        	bnez	a2, 0x13966 <_vfprintf_r+0x19d6>
   13962: 6f e0 ff cc  	j	0x12630 <_vfprintf_r+0x6a0>
   13966: 6f e0 5f cc  	j	0x1262a <_vfprintf_r+0x69a>
   1396a: 3a f0        	sd	a4, 0x20(sp)
   1396c: 6f f0 cf ab  	j	0x12c28 <_vfprintf_r+0xc98>
   13970: 1c c3        	sw	a5, 0x0(a4)
   13972: 6f f0 4f 82  	j	0x12996 <_vfprintf_r+0xa06>
   13976: 13 03 70 06  	li	t1, 0x67
   1397a: 8a 67        	ld	a5, 0x80(sp)
   1397c: 13 06 f0 0f  	li	a2, 0xff
   13980: 03 c7 07 00  	lbu	a4, 0x0(a5)
   13984: 63 09 c7 16  	beq	a4, a2, 0x13af6 <_vfprintf_r+0x1b66>
   13988: 3e 86        	mv	a2, a5
   1398a: c2 77        	ld	a5, 0x30(sp)
   1398c: 81 48        	li	a7, 0x0
   1398e: 01 48        	li	a6, 0x0
   13990: 93 05 f0 0f  	li	a1, 0xff
   13994: 1b 05 07 00  	sext.w	a0, a4
   13998: 63 5a f7 00  	bge	a4, a5, 0x139ac <_vfprintf_r+0x1a1c>
   1399c: 03 47 16 00  	lbu	a4, 0x1(a2)
   139a0: 89 9f        	subw	a5, a5, a0
   139a2: 1d cb        	beqz	a4, 0x139d8 <_vfprintf_r+0x1a48>
   139a4: 05 28        	addiw	a6, a6, 0x1
   139a6: 05 06        	addi	a2, a2, 0x1
   139a8: e3 16 b7 fe  	bne	a4, a1, 0x13994 <_vfprintf_r+0x1a04>
   139ac: 32 e1        	sd	a2, 0x80(sp)
   139ae: c2 e0        	sd	a6, 0x40(sp)
   139b0: c6 e4        	sd	a7, 0x48(sp)
   139b2: 3e f8        	sd	a5, 0x30(sp)
   139b4: a6 67        	ld	a5, 0x48(sp)
   139b6: 06 67        	ld	a4, 0x40(sp)
   139b8: a6 8d        	mv	s11, s1
   139ba: 3d 9f        	addw	a4, a4, a5
   139bc: aa 67        	ld	a5, 0x88(sp)
   139be: 3b 07 f7 02  	mulw	a4, a4, a5
   139c2: 35 9f        	addw	a4, a4, a3
   139c4: 9b 06 07 00  	sext.w	a3, a4
   139c8: 13 c6 f6 ff  	not	a2, a3
   139cc: 7d 96        	srai	a2, a2, 0x3f
   139ce: 71 8f        	and	a4, a4, a2
   139d0: 1b 0c 07 00  	sext.w	s8, a4
   139d4: 6f e0 df c7  	j	0x12650 <_vfprintf_r+0x6c0>
   139d8: 03 47 06 00  	lbu	a4, 0x0(a2)
   139dc: 85 28        	addiw	a7, a7, 0x1
   139de: e9 b7        	j	0x139a8 <_vfprintf_r+0x1a18>
   139e0: 42 75        	ld	a0, 0x30(sp)
   139e2: 01 46        	li	a2, 0x0
   139e4: 81 46        	li	a3, 0x0
   139e6: e6 85        	mv	a1, s9
   139e8: c2 e4        	sd	a6, 0x48(sp)
   139ea: 9a e0        	sd	t1, 0x40(sp)
   139ec: 3a fc        	sd	a4, 0x38(sp)
   139ee: ef 40 70 32  	jal	0x18514 <__netf2>
   139f2: 62 77        	ld	a4, 0x38(sp)
   139f4: 06 63        	ld	t1, 0x40(sp)
   139f6: 26 68        	ld	a6, 0x48(sp)
   139f8: 59 e5        	bnez	a0, 0x13a86 <_vfprintf_r+0x1af6>
   139fa: ea 57        	lw	a5, 0xb8(sp)
   139fc: 3e 98        	add	a6, a6, a5
   139fe: 3e f8        	sd	a5, 0x30(sp)
   13a00: bb 07 a8 41  	subw	a5, a6, s10
   13a04: 3e fc        	sd	a5, 0x38(sp)
   13a06: 21 bb        	j	0x1371e <_vfprintf_r+0x178e>
   13a08: 46 67        	ld	a4, 0x50(sp)
   13a0a: 13 03 60 06  	li	t1, 0x66
   13a0e: bb 06 67 01  	addw	a3, a4, s6
   13a12: bd 9e        	addw	a3, a3, a5
   13a14: 71 b5        	j	0x138a0 <_vfprintf_r+0x1910>
   13a16: 3b 87 f6 40  	subw	a4, a3, a5
   13a1a: 05 27        	addiw	a4, a4, 0x1
   13a1c: 9b 06 07 00  	sext.w	a3, a4
   13a20: 13 c6 f6 ff  	not	a2, a3
   13a24: 7d 96        	srai	a2, a2, 0x3f
   13a26: 71 8f        	and	a4, a4, a2
   13a28: 1b 0c 07 00  	sext.w	s8, a4
   13a2c: a6 8d        	mv	s11, s1
   13a2e: 3d bb        	j	0x1376c <_vfprintf_r+0x17dc>
   13a30: 4a 68        	ld	a6, 0x90(sp)
   13a32: 62 89        	mv	s2, s8
   13a34: 4e 8c        	mv	s8, s3
   13a36: bb 06 0d 01  	addw	a3, s10, a6
   13a3a: bb 86 86 41  	subw	a3, a3, s8
   13a3e: 13 96 06 02  	slli	a2, a3, 0x20
   13a42: 06 63        	ld	t1, 0x40(sp)
   13a44: a6 6b        	ld	s7, 0x48(sp)
   13a46: 46 74        	ld	s0, 0x70(sp)
   13a48: e2 79        	ld	s3, 0x38(sp)
   13a4a: 63 54 06 00  	bgez	a2, 0x13a52 <_vfprintf_r+0x1ac2>
   13a4e: 6f e0 bf b1  	j	0x12568 <_vfprintf_r+0x5d8>
   13a52: 85 26        	addiw	a3, a3, 0x1
   13a54: e2 96        	add	a3, a3, s8
   13a56: 13 06 00 03  	li	a2, 0x30
   13a5a: 05 0c        	addi	s8, s8, 0x1
   13a5c: a3 0f cc fe  	sb	a2, -0x1(s8)
   13a60: e3 1d dc fe  	bne	s8, a3, 0x13a5a <_vfprintf_r+0x1aca>
   13a64: 6f e0 7f b0  	j	0x1256a <_vfprintf_r+0x5da>
   13a68: e2 65        	ld	a1, 0x18(sp)
   13a6a: 4e 89        	mv	s2, s3
   13a6c: 6f f0 0f 9a  	j	0x12c0c <_vfprintf_r+0xc7c>
   13a70: 37 07 02 00  	lui	a4, 0x20
   13a74: 93 07 87 bb  	addi	a5, a4, -0x448
   13a78: 3e f8        	sd	a5, 0x30(sp)
   13a7a: 6f e0 ff 9e  	j	0x12468 <_vfprintf_r+0x4d8>
   13a7e: 93 06 00 07  	li	a3, 0x70
   13a82: 6f e0 5f b1  	j	0x12596 <_vfprintf_r+0x606>
   13a86: 85 46        	li	a3, 0x1
   13a88: 99 9e        	subw	a3, a3, a4
   13a8a: 36 dd        	sw	a3, 0xb8(sp)
   13a8c: b1 b1        	j	0x136d8 <_vfprintf_r+0x1748>
   13a8e: 19 e7        	bnez	a4, 0x13a9c <_vfprintf_r+0x1b0c>
   13a90: a6 8d        	mv	s11, s1
   13a92: 05 4c        	li	s8, 0x1
   13a94: 13 03 60 06  	li	t1, 0x66
   13a98: 85 46        	li	a3, 0x1
   13a9a: c9 b9        	j	0x1376c <_vfprintf_r+0x17dc>
   13a9c: c6 67        	ld	a5, 0x50(sp)
   13a9e: a6 8d        	mv	s11, s1
   13aa0: 13 03 60 06  	li	t1, 0x66
   13aa4: 1b 87 17 00  	addiw	a4, a5, 0x1
   13aa8: 3b 07 67 01  	addw	a4, a4, s6
   13aac: 9b 06 07 00  	sext.w	a3, a4
   13ab0: 13 c6 f6 ff  	not	a2, a3
   13ab4: 7d 96        	srai	a2, a2, 0x3f
   13ab6: 71 8f        	and	a4, a4, a2
   13ab8: 1b 0c 07 00  	sext.w	s8, a4
   13abc: 45 b9        	j	0x1376c <_vfprintf_r+0x17dc>
   13abe: 89 47        	li	a5, 0x2
   13ac0: be f8        	sd	a5, 0x70(sp)
   13ac2: 6f e0 5f b5  	j	0x12616 <_vfprintf_r+0x686>
   13ac6: 82 76        	ld	a3, 0x20(sp)
   13ac8: 9c 42        	lw	a5, 0x0(a3)
   13aca: a1 06        	addi	a3, a3, 0x8
   13acc: 1b 8b 07 00  	sext.w	s6, a5
   13ad0: 63 d3 07 00  	bgez	a5, 0x13ad6 <_vfprintf_r+0x1b46>
   13ad4: 7d 5b        	li	s6, -0x1
   13ad6: 03 c3 19 00  	lbu	t1, 0x1(s3)
   13ada: 36 f0        	sd	a3, 0x20(sp)
   13adc: ba 89        	mv	s3, a4
   13ade: 6f e0 ef dd  	j	0x120bc <_vfprintf_r+0x12c>
   13ae2: 83 57 09 01  	lhu	a5, 0x10(s2)
   13ae6: 93 e7 07 04  	ori	a5, a5, 0x40
   13aea: 23 18 f9 00  	sh	a5, 0x10(s2)
   13aee: 6f e0 af f1  	j	0x12208 <_vfprintf_r+0x278>
   13af2: 5a 87        	mv	a4, s6
   13af4: d9 b6        	j	0x136ba <_vfprintf_r+0x172a>
   13af6: 82 e4        	sd	zero, 0x48(sp)
   13af8: 82 e0        	sd	zero, 0x40(sp)
   13afa: 6d bd        	j	0x139b4 <_vfprintf_r+0x1a24>

0000000000013afc <vfprintf>:
   13afc: aa 87        	mv	a5, a0
   13afe: 03 b5 81 88  	ld	a0, -0x778(gp)
   13b02: b2 86        	mv	a3, a2
   13b04: 2e 86        	mv	a2, a1
   13b06: be 85        	mv	a1, a5
   13b08: 6f e0 8f c8  	j	0x11f90 <_vfprintf_r>

0000000000013b0c <__sbprintf>:
   13b0c: 13 01 01 b3  	addi	sp, sp, -0x4d0
   13b10: 03 d7 25 01  	lhu	a4, 0x12(a1)
   13b14: 83 d7 05 01  	lhu	a5, 0x10(a1)
   13b18: 23 30 81 4c  	sd	s0, 0x4c0(sp)
   13b1c: 2e 84        	mv	s0, a1
   13b1e: c1 65        	lui	a1, 0x10
   13b20: f5 35        	addiw	a1, a1, -0x3
   13b22: 03 2e c4 0a  	lw	t3, 0xac(s0)
   13b26: 03 33 04 03  	ld	t1, 0x30(s0)
   13b2a: 83 38 04 04  	ld	a7, 0x40(s0)
   13b2e: 1b 17 07 01  	slliw	a4, a4, 0x10
   13b32: ed 8f        	and	a5, a5, a1
   13b34: d9 8f        	or	a5, a5, a4
   13b36: 13 08 00 40  	li	a6, 0x400
   13b3a: 3e c8        	sw	a5, 0x10(sp)
   13b3c: 8a 85        	mv	a1, sp
   13b3e: 1c 19        	addi	a5, sp, 0xb0
   13b40: 23 3c 91 4a  	sd	s1, 0x4b8(sp)
   13b44: 23 38 21 4b  	sd	s2, 0x4b0(sp)
   13b48: 23 34 11 4c  	sd	ra, 0x4c8(sp)
   13b4c: 2a 89        	mv	s2, a0
   13b4e: 72 d7        	sw	t3, 0xac(sp)
   13b50: 1a f8        	sd	t1, 0x30(sp)
   13b52: c6 e0        	sd	a7, 0x40(sp)
   13b54: 3e e0        	sd	a5, 0x0(sp)
   13b56: 3e ec        	sd	a5, 0x18(sp)
   13b58: 42 c6        	sw	a6, 0xc(sp)
   13b5a: 42 d0        	sw	a6, 0x20(sp)
   13b5c: 02 d4        	sw	zero, 0x28(sp)
   13b5e: ef e0 2f c3  	jal	0x11f90 <_vfprintf_r>
   13b62: aa 84        	mv	s1, a0
   13b64: 63 59 05 02  	bgez	a0, 0x13b96 <__sbprintf+0x8a>
   13b68: 83 57 01 01  	lhu	a5, 0x10(sp)
   13b6c: 93 f7 07 04  	andi	a5, a5, 0x40
   13b70: 99 c7        	beqz	a5, 0x13b7e <__sbprintf+0x72>
   13b72: 83 57 04 01  	lhu	a5, 0x10(s0)
   13b76: 93 e7 07 04  	ori	a5, a5, 0x40
   13b7a: 23 18 f4 00  	sh	a5, 0x10(s0)
   13b7e: 83 30 81 4c  	ld	ra, 0x4c8(sp)
   13b82: 03 34 01 4c  	ld	s0, 0x4c0(sp)
   13b86: 03 39 01 4b  	ld	s2, 0x4b0(sp)
   13b8a: 26 85        	mv	a0, s1
   13b8c: 83 34 81 4b  	ld	s1, 0x4b8(sp)
   13b90: 13 01 01 4d  	addi	sp, sp, 0x4d0
   13b94: 82 80        	ret
   13b96: 8a 85        	mv	a1, sp
   13b98: 4a 85        	mv	a0, s2
   13b9a: ef 10 80 0a  	jal	0x14c42 <_fflush_r>
   13b9e: 69 d5        	beqz	a0, 0x13b68 <__sbprintf+0x5c>
   13ba0: fd 54        	li	s1, -0x1
   13ba2: d9 b7        	j	0x13b68 <__sbprintf+0x5c>

0000000000013ba4 <__sprint_r.part.0>:
   13ba4: 83 a7 c5 0a  	lw	a5, 0xac(a1)
   13ba8: 5d 71        	addi	sp, sp, -0x50
   13baa: 56 ec        	sd	s5, 0x18(sp)
   13bac: 86 e4        	sd	ra, 0x48(sp)
   13bae: 13 97 27 03  	slli	a4, a5, 0x32
   13bb2: b2 8a        	mv	s5, a2
   13bb4: 63 5f 07 08  	bgez	a4, 0x13c52 <__sprint_r.part.0+0xae>
   13bb8: 1c 6a        	ld	a5, 0x10(a2)
   13bba: 4a f8        	sd	s2, 0x30(sp)
   13bbc: 4e f4        	sd	s3, 0x28(sp)
   13bbe: 52 f0        	sd	s4, 0x20(sp)
   13bc0: 5a e8        	sd	s6, 0x10(sp)
   13bc2: 2e 89        	mv	s2, a1
   13bc4: 03 3b 06 00  	ld	s6, 0x0(a2)
   13bc8: aa 89        	mv	s3, a0
   13bca: 7d 5a        	li	s4, -0x1
   13bcc: ad cf        	beqz	a5, 0x13c46 <__sprint_r.part.0+0xa2>
   13bce: a2 e0        	sd	s0, 0x40(sp)
   13bd0: 26 fc        	sd	s1, 0x38(sp)
   13bd2: 5e e4        	sd	s7, 0x8(sp)
   13bd4: 83 34 8b 00  	ld	s1, 0x8(s6)
   13bd8: 03 34 0b 00  	ld	s0, 0x0(s6)
   13bdc: 89 80        	srli	s1, s1, 0x2
   13bde: 9b 8b 04 00  	sext.w	s7, s1
   13be2: 63 58 70 05  	blez	s7, 0x13c32 <__sprint_r.part.0+0x8e>
   13be6: fd 34        	addiw	s1, s1, -0x1
   13be8: 93 97 04 02  	slli	a5, s1, 0x20
   13bec: 93 d4 e7 01  	srli	s1, a5, 0x1e
   13bf0: 93 07 44 00  	addi	a5, s0, 0x4
   13bf4: be 94        	add	s1, s1, a5
   13bf6: 19 a0        	j	0x13bfc <__sprint_r.part.0+0x58>
   13bf8: 63 8b 84 02  	beq	s1, s0, 0x13c2e <__sprint_r.part.0+0x8a>
   13bfc: 0c 40        	lw	a1, 0x0(s0)
   13bfe: 4a 86        	mv	a2, s2
   13c00: 4e 85        	mv	a0, s3
   13c02: ef 10 e0 77  	jal	0x15380 <_fputwc_r>
   13c06: 01 25        	sext.w	a0, a0
   13c08: 11 04        	addi	s0, s0, 0x4
   13c0a: e3 17 45 ff  	bne	a0, s4, 0x13bf8 <__sprint_r.part.0+0x54>
   13c0e: 06 64        	ld	s0, 0x40(sp)
   13c10: e2 74        	ld	s1, 0x38(sp)
   13c12: 42 79        	ld	s2, 0x30(sp)
   13c14: a2 79        	ld	s3, 0x28(sp)
   13c16: 02 7a        	ld	s4, 0x20(sp)
   13c18: 42 6b        	ld	s6, 0x10(sp)
   13c1a: a2 6b        	ld	s7, 0x8(sp)
   13c1c: 7d 55        	li	a0, -0x1
   13c1e: a6 60        	ld	ra, 0x48(sp)
   13c20: 23 b8 0a 00  	sd	zero, 0x10(s5)
   13c24: 23 a4 0a 00  	sw	zero, 0x8(s5)
   13c28: e2 6a        	ld	s5, 0x18(sp)
   13c2a: 61 61        	addi	sp, sp, 0x50
   13c2c: 82 80        	ret
   13c2e: 83 b7 0a 01  	ld	a5, 0x10(s5)
   13c32: 8a 0b        	slli	s7, s7, 0x2
   13c34: b3 87 77 41  	sub	a5, a5, s7
   13c38: 23 b8 fa 00  	sd	a5, 0x10(s5)
   13c3c: 41 0b        	addi	s6, s6, 0x10
   13c3e: d9 fb        	bnez	a5, 0x13bd4 <__sprint_r.part.0+0x30>
   13c40: 06 64        	ld	s0, 0x40(sp)
   13c42: e2 74        	ld	s1, 0x38(sp)
   13c44: a2 6b        	ld	s7, 0x8(sp)
   13c46: 42 79        	ld	s2, 0x30(sp)
   13c48: a2 79        	ld	s3, 0x28(sp)
   13c4a: 02 7a        	ld	s4, 0x20(sp)
   13c4c: 42 6b        	ld	s6, 0x10(sp)
   13c4e: 01 45        	li	a0, 0x0
   13c50: f9 b7        	j	0x13c1e <__sprint_r.part.0+0x7a>
   13c52: ef 10 a0 07  	jal	0x14ccc <__sfvwrite_r>
   13c56: a6 60        	ld	ra, 0x48(sp)
   13c58: 23 b8 0a 00  	sd	zero, 0x10(s5)
   13c5c: 23 a4 0a 00  	sw	zero, 0x8(s5)
   13c60: e2 6a        	ld	s5, 0x18(sp)
   13c62: 61 61        	addi	sp, sp, 0x50
   13c64: 82 80        	ret

0000000000013c66 <__sprint_r>:
   13c66: 18 6a        	ld	a4, 0x10(a2)
   13c68: 11 c3        	beqz	a4, 0x13c6c <__sprint_r+0x6>
   13c6a: 2d bf        	j	0x13ba4 <__sprint_r.part.0>
   13c6c: 23 24 06 00  	sw	zero, 0x8(a2)
   13c70: 01 45        	li	a0, 0x0
   13c72: 82 80        	ret

0000000000013c74 <_vfiprintf_r>:
   13c74: 05 71        	addi	sp, sp, -0x1e0
   13c76: 52 fb        	sd	s4, 0x1b0(sp)
   13c78: 56 f7        	sd	s5, 0x1a8(sp)
   13c7a: 5e ef        	sd	s7, 0x198(sp)
   13c7c: 6a e3        	sd	s10, 0x180(sp)
   13c7e: 86 ef        	sd	ra, 0x1d8(sp)
   13c80: 62 eb        	sd	s8, 0x190(sp)
   13c82: aa 8a        	mv	s5, a0
   13c84: 2e 8a        	mv	s4, a1
   13c86: 32 8d        	mv	s10, a2
   13c88: b6 8b        	mv	s7, a3
   13c8a: 01 c5        	beqz	a0, 0x13c92 <_vfiprintf_r+0x1e>
   13c8c: 3c 65        	ld	a5, 0x48(a0)
   13c8e: e3 83 07 3a  	beqz	a5, 0x14834 <_vfiprintf_r+0xbc0>
   13c92: 83 17 0a 01  	lh	a5, 0x10(s4)
   13c96: 93 96 27 03  	slli	a3, a5, 0x32
   13c9a: 63 c1 06 02  	bltz	a3, 0x13cbc <_vfiprintf_r+0x48>
   13c9e: 83 26 ca 0a  	lw	a3, 0xac(s4)
   13ca2: 89 65        	lui	a1, 0x2
   13ca4: 79 76        	lui	a2, 0xffffe
   13ca6: cd 8f        	or	a5, a5, a1
   13ca8: 7d 16        	addi	a2, a2, -0x1
   13caa: 9b 97 07 01  	slliw	a5, a5, 0x10
   13cae: 9b d7 07 41  	sraiw	a5, a5, 0x10
   13cb2: f1 8e        	and	a3, a3, a2
   13cb4: 23 18 fa 00  	sh	a5, 0x10(s4)
   13cb8: 23 26 da 0a  	sw	a3, 0xac(s4)
   13cbc: 93 f6 87 00  	andi	a3, a5, 0x8
   13cc0: e1 ce        	beqz	a3, 0x13d98 <_vfiprintf_r+0x124>
   13cc2: 83 36 8a 01  	ld	a3, 0x18(s4)
   13cc6: e9 ca        	beqz	a3, 0x13d98 <_vfiprintf_r+0x124>
   13cc8: e9 8b        	andi	a5, a5, 0x1a
   13cca: a9 46        	li	a3, 0xa
   13ccc: 63 82 d7 0e  	beq	a5, a3, 0x13db0 <_vfiprintf_r+0x13c>
   13cd0: b7 07 02 00  	lui	a5, 0x20
   13cd4: 4e ff        	sd	s3, 0x1b8(sp)
   13cd6: 5a f3        	sd	s6, 0x1a0(sp)
   13cd8: 93 09 01 0f  	addi	s3, sp, 0xf0
   13cdc: 93 87 07 e7  	addi	a5, a5, -0x190
   13ce0: 37 0b 02 00  	lui	s6, 0x20
   13ce4: a2 eb        	sd	s0, 0x1d0(sp)
   13ce6: ca e3        	sd	s2, 0x1c0(sp)
   13ce8: a6 e7        	sd	s1, 0x1c8(sp)
   13cea: 66 e7        	sd	s9, 0x188(sp)
   13cec: ee fe        	sd	s11, 0x178(sp)
   13cee: ce f8        	sd	s3, 0x70(sp)
   13cf0: 02 e1        	sd	zero, 0x80(sp)
   13cf2: 82 dc        	sw	zero, 0x78(sp)
   13cf4: 4e 84        	mv	s0, s3
   13cf6: 02 e8        	sd	zero, 0x10(sp)
   13cf8: 02 fc        	sd	zero, 0x38(sp)
   13cfa: 02 f8        	sd	zero, 0x30(sp)
   13cfc: 82 e0        	sd	zero, 0x40(sp)
   13cfe: 01 4c        	li	s8, 0x0
   13d00: 3e e4        	sd	a5, 0x8(sp)
   13d02: 41 49        	li	s2, 0x10
   13d04: 13 0b 0b fe  	addi	s6, s6, -0x20
   13d08: 83 47 0d 00  	lbu	a5, 0x0(s10)
   13d0c: f9 c3        	beqz	a5, 0x13dd2 <_vfiprintf_r+0x15e>
   13d0e: ea 84        	mv	s1, s10
   13d10: 13 07 50 02  	li	a4, 0x25
   13d14: 63 8f e7 26  	beq	a5, a4, 0x13f92 <_vfiprintf_r+0x31e>
   13d18: 83 c7 14 00  	lbu	a5, 0x1(s1)
   13d1c: 85 04        	addi	s1, s1, 0x1
   13d1e: fd fb        	bnez	a5, 0x13d14 <_vfiprintf_r+0xa0>
   13d20: bb 8d a4 41  	subw	s11, s1, s10
   13d24: 63 87 0d 0a  	beqz	s11, 0x13dd2 <_vfiprintf_r+0x15e>
   13d28: e6 57        	lw	a5, 0x78(sp)
   13d2a: 0a 67        	ld	a4, 0x80(sp)
   13d2c: 23 30 a4 01  	sd	s10, 0x0(s0)
   13d30: 9b 86 17 00  	addiw	a3, a5, 0x1
   13d34: 6e 97        	add	a4, a4, s11
   13d36: 23 34 b4 01  	sd	s11, 0x8(s0)
   13d3a: 3a e1        	sd	a4, 0x80(sp)
   13d3c: b6 dc        	sw	a3, 0x78(sp)
   13d3e: 9d 47        	li	a5, 0x7
   13d40: 41 04        	addi	s0, s0, 0x10
   13d42: 63 db d7 00  	bge	a5, a3, 0x13d58 <_vfiprintf_r+0xe4>
   13d46: e3 07 07 0e  	beqz	a4, 0x14634 <_vfiprintf_r+0x9c0>
   13d4a: 90 18        	addi	a2, sp, 0x70
   13d4c: d2 85        	mv	a1, s4
   13d4e: 56 85        	mv	a0, s5
   13d50: ef f0 5f e5  	jal	0x13ba4 <__sprint_r.part.0>
   13d54: 51 e1        	bnez	a0, 0x13dd8 <_vfiprintf_r+0x164>
   13d56: 4e 84        	mv	s0, s3
   13d58: 83 c7 04 00  	lbu	a5, 0x0(s1)
   13d5c: 3b 8c 8d 01  	addw	s8, s11, s8
   13d60: ad cb        	beqz	a5, 0x13dd2 <_vfiprintf_r+0x15e>
   13d62: 83 c7 14 00  	lbu	a5, 0x1(s1)
   13d66: 13 8d 14 00  	addi	s10, s1, 0x1
   13d6a: a3 03 01 06  	sb	zero, 0x67(sp)
   13d6e: fd 54        	li	s1, -0x1
   13d70: 81 48        	li	a7, 0x0
   13d72: 81 4c        	li	s9, 0x0
   13d74: 93 0d a0 05  	li	s11, 0x5a
   13d78: 05 0d        	addi	s10, s10, 0x1
   13d7a: 81 27        	sext.w	a5, a5
   13d7c: 1b 87 07 fe  	addiw	a4, a5, -0x20
   13d80: 9b 06 07 00  	sext.w	a3, a4
   13d84: 63 eb dd 0a  	bltu	s11, a3, 0x13e3a <_vfiprintf_r+0x1c6>
   13d88: 93 16 07 02  	slli	a3, a4, 0x20
   13d8c: 13 d7 e6 01  	srli	a4, a3, 0x1e
   13d90: a2 66        	ld	a3, 0x8(sp)
   13d92: 36 97        	add	a4, a4, a3
   13d94: 18 43        	lw	a4, 0x0(a4)
   13d96: 02 87        	jr	a4
   13d98: d2 85        	mv	a1, s4
   13d9a: 56 85        	mv	a0, s5
   13d9c: ef 10 40 46  	jal	0x15200 <__swsetup_r>
   13da0: e3 14 05 38  	bnez	a0, 0x14928 <_vfiprintf_r+0xcb4>
   13da4: 83 17 0a 01  	lh	a5, 0x10(s4)
   13da8: a9 46        	li	a3, 0xa
   13daa: e9 8b        	andi	a5, a5, 0x1a
   13dac: e3 92 d7 f2  	bne	a5, a3, 0x13cd0 <_vfiprintf_r+0x5c>
   13db0: 83 17 2a 01  	lh	a5, 0x12(s4)
   13db4: e3 ce 07 f0  	bltz	a5, 0x13cd0 <_vfiprintf_r+0x5c>
   13db8: fe 60        	ld	ra, 0x1d8(sp)
   13dba: 5a 6c        	ld	s8, 0x190(sp)
   13dbc: de 86        	mv	a3, s7
   13dbe: 6a 86        	mv	a2, s10
   13dc0: fa 6b        	ld	s7, 0x198(sp)
   13dc2: 1a 6d        	ld	s10, 0x180(sp)
   13dc4: d2 85        	mv	a1, s4
   13dc6: 56 85        	mv	a0, s5
   13dc8: 5a 7a        	ld	s4, 0x1b0(sp)
   13dca: ba 7a        	ld	s5, 0x1a8(sp)
   13dcc: 3d 61        	addi	sp, sp, 0x1e0
   13dce: 6f 00 50 39  	j	0x14962 <__sbprintf>
   13dd2: 8a 67        	ld	a5, 0x80(sp)
   13dd4: e3 9c 07 30  	bnez	a5, 0x148ec <_vfiprintf_r+0xc78>
   13dd8: 83 57 0a 01  	lhu	a5, 0x10(s4)
   13ddc: 5e 64        	ld	s0, 0x1d0(sp)
   13dde: be 64        	ld	s1, 0x1c8(sp)
   13de0: 93 f7 07 04  	andi	a5, a5, 0x40
   13de4: 1e 69        	ld	s2, 0x1c0(sp)
   13de6: fa 79        	ld	s3, 0x1b8(sp)
   13de8: 1a 7b        	ld	s6, 0x1a0(sp)
   13dea: ba 6c        	ld	s9, 0x188(sp)
   13dec: f6 7d        	ld	s11, 0x178(sp)
   13dee: e3 9d 07 32  	bnez	a5, 0x14928 <_vfiprintf_r+0xcb4>
   13df2: fe 60        	ld	ra, 0x1d8(sp)
   13df4: 5a 7a        	ld	s4, 0x1b0(sp)
   13df6: ba 7a        	ld	s5, 0x1a8(sp)
   13df8: fa 6b        	ld	s7, 0x198(sp)
   13dfa: 1a 6d        	ld	s10, 0x180(sp)
   13dfc: 62 85        	mv	a0, s8
   13dfe: 5a 6c        	ld	s8, 0x190(sp)
   13e00: 3d 61        	addi	sp, sp, 0x1e0
   13e02: 82 80        	ret
   13e04: 81 48        	li	a7, 0x0
   13e06: 25 46        	li	a2, 0x9
   13e08: 83 46 0d 00  	lbu	a3, 0x0(s10)
   13e0c: 1b 97 28 00  	slliw	a4, a7, 0x2
   13e10: bb 08 17 01  	addw	a7, a4, a7
   13e14: 9b 87 07 fd  	addiw	a5, a5, -0x30
   13e18: 9b 98 18 00  	slliw	a7, a7, 0x1
   13e1c: 1b 87 06 fd  	addiw	a4, a3, -0x30
   13e20: bb 88 17 01  	addw	a7, a5, a7
   13e24: 05 0d        	addi	s10, s10, 0x1
   13e26: 9b 87 06 00  	sext.w	a5, a3
   13e2a: e3 7f e6 fc  	bgeu	a2, a4, 0x13e08 <_vfiprintf_r+0x194>
   13e2e: 1b 87 07 fe  	addiw	a4, a5, -0x20
   13e32: 9b 06 07 00  	sext.w	a3, a4
   13e36: e3 f9 dd f4  	bgeu	s11, a3, 0x13d88 <_vfiprintf_r+0x114>
   13e3a: c1 df        	beqz	a5, 0x13dd2 <_vfiprintf_r+0x15e>
   13e3c: 23 04 f1 08  	sb	a5, 0x88(sp)
   13e40: a3 03 01 06  	sb	zero, 0x67(sp)
   13e44: 05 43        	li	t1, 0x1
   13e46: 05 4e        	li	t3, 0x1
   13e48: 93 0d 81 08  	addi	s11, sp, 0x88
   13e4c: 81 44        	li	s1, 0x0
   13e4e: 81 4f        	li	t6, 0x0
   13e50: e6 56        	lw	a3, 0x78(sp)
   13e52: 93 f2 4c 08  	andi	t0, s9, 0x84
   13e56: 8a 67        	ld	a5, 0x80(sp)
   13e58: 9b 85 16 00  	addiw	a1, a3, 0x1
   13e5c: 2e 86        	mv	a2, a1
   13e5e: 63 96 02 00  	bnez	t0, 0x13e6a <_vfiprintf_r+0x1f6>
   13e62: 3b 87 68 40  	subw	a4, a7, t1
   13e66: 63 4e e0 62  	bgtz	a4, 0x144a2 <_vfiprintf_r+0x82e>
   13e6a: 03 47 71 06  	lbu	a4, 0x67(sp)
   13e6e: 19 cf        	beqz	a4, 0x13e8c <_vfiprintf_r+0x218>
   13e70: 13 07 71 06  	addi	a4, sp, 0x67
   13e74: 85 07        	addi	a5, a5, 0x1
   13e76: 18 e0        	sd	a4, 0x0(s0)
   13e78: 05 47        	li	a4, 0x1
   13e7a: 18 e4        	sd	a4, 0x8(s0)
   13e7c: 3e e1        	sd	a5, 0x80(sp)
   13e7e: ae dc        	sw	a1, 0x78(sp)
   13e80: 1d 47        	li	a4, 0x7
   13e82: 63 41 b7 5a  	blt	a4, a1, 0x14424 <_vfiprintf_r+0x7b0>
   13e86: ae 86        	mv	a3, a1
   13e88: 41 04        	addi	s0, s0, 0x10
   13e8a: 85 25        	addiw	a1, a1, 0x1
   13e8c: 63 81 0f 04  	beqz	t6, 0x13ece <_vfiprintf_r+0x25a>
   13e90: b8 10        	addi	a4, sp, 0x68
   13e92: 89 07        	addi	a5, a5, 0x2
   13e94: 18 e0        	sd	a4, 0x0(s0)
   13e96: 09 47        	li	a4, 0x2
   13e98: 18 e4        	sd	a4, 0x8(s0)
   13e9a: 3e e1        	sd	a5, 0x80(sp)
   13e9c: ae dc        	sw	a1, 0x78(sp)
   13e9e: 1d 47        	li	a4, 0x7
   13ea0: 63 52 b7 5c  	bge	a4, a1, 0x14464 <_vfiprintf_r+0x7f0>
   13ea4: 63 8c 07 78  	beqz	a5, 0x1463c <_vfiprintf_r+0x9c8>
   13ea8: 90 18        	addi	a2, sp, 0x70
   13eaa: d2 85        	mv	a1, s4
   13eac: 56 85        	mv	a0, s5
   13eae: 9a e4        	sd	t1, 0x48(sp)
   13eb0: 46 f4        	sd	a7, 0x28(sp)
   13eb2: 72 f0        	sd	t3, 0x20(sp)
   13eb4: 16 ec        	sd	t0, 0x18(sp)
   13eb6: ef f0 ff ce  	jal	0x13ba4 <__sprint_r.part.0>
   13eba: 19 fd        	bnez	a0, 0x13dd8 <_vfiprintf_r+0x164>
   13ebc: e6 56        	lw	a3, 0x78(sp)
   13ebe: 8a 67        	ld	a5, 0x80(sp)
   13ec0: 26 63        	ld	t1, 0x48(sp)
   13ec2: a2 78        	ld	a7, 0x28(sp)
   13ec4: 02 7e        	ld	t3, 0x20(sp)
   13ec6: e2 62        	ld	t0, 0x18(sp)
   13ec8: 4e 84        	mv	s0, s3
   13eca: 9b 85 16 00  	addiw	a1, a3, 0x1
   13ece: 13 07 00 08  	li	a4, 0x80
   13ed2: 63 85 e2 3e  	beq	t0, a4, 0x142bc <_vfiprintf_r+0x648>
   13ed6: bb 84 c4 41  	subw	s1, s1, t3
   13eda: 63 42 90 4a  	bgtz	s1, 0x1437e <_vfiprintf_r+0x70a>
   13ede: f2 97        	add	a5, a5, t3
   13ee0: 23 30 b4 01  	sd	s11, 0x0(s0)
   13ee4: 23 34 c4 01  	sd	t3, 0x8(s0)
   13ee8: 3e e1        	sd	a5, 0x80(sp)
   13eea: ae dc        	sw	a1, 0x78(sp)
   13eec: 1d 47        	li	a4, 0x7
   13eee: 63 55 b7 3c  	bge	a4, a1, 0x142b8 <_vfiprintf_r+0x644>
   13ef2: 63 8b 07 64  	beqz	a5, 0x14548 <_vfiprintf_r+0x8d4>
   13ef6: 90 18        	addi	a2, sp, 0x70
   13ef8: d2 85        	mv	a1, s4
   13efa: 56 85        	mv	a0, s5
   13efc: 1a f0        	sd	t1, 0x20(sp)
   13efe: 46 ec        	sd	a7, 0x18(sp)
   13f00: ef f0 5f ca  	jal	0x13ba4 <__sprint_r.part.0>
   13f04: e3 1a 05 ec  	bnez	a0, 0x13dd8 <_vfiprintf_r+0x164>
   13f08: 8a 67        	ld	a5, 0x80(sp)
   13f0a: 02 73        	ld	t1, 0x20(sp)
   13f0c: e2 68        	ld	a7, 0x18(sp)
   13f0e: 4e 84        	mv	s0, s3
   13f10: 13 f8 4c 00  	andi	a6, s9, 0x4
   13f14: 63 06 08 00  	beqz	a6, 0x13f20 <_vfiprintf_r+0x2ac>
   13f18: bb 84 68 40  	subw	s1, a7, t1
   13f1c: 63 40 90 64  	bgtz	s1, 0x1455c <_vfiprintf_r+0x8e8>
   13f20: 46 87        	mv	a4, a7
   13f22: 63 d3 68 00  	bge	a7, t1, 0x13f28 <_vfiprintf_r+0x2b4>
   13f26: 1a 87        	mv	a4, t1
   13f28: 3b 0c 87 01  	addw	s8, a4, s8
   13f2c: 63 90 07 4e  	bnez	a5, 0x1440c <_vfiprintf_r+0x798>
   13f30: 82 dc        	sw	zero, 0x78(sp)
   13f32: 4e 84        	mv	s0, s3
   13f34: d1 bb        	j	0x13d08 <_vfiprintf_r+0x94>
   13f36: 93 ec 0c 01  	ori	s9, s9, 0x10
   13f3a: 83 47 0d 00  	lbu	a5, 0x0(s10)
   13f3e: 81 2c        	sext.w	s9, s9
   13f40: 25 bd        	j	0x13d78 <_vfiprintf_r+0x104>
   13f42: 13 e8 0c 01  	ori	a6, s9, 0x10
   13f46: 9b 0c 08 00  	sext.w	s9, a6
   13f4a: 93 f7 0c 02  	andi	a5, s9, 0x20
   13f4e: 93 8e 8b 00  	addi	t4, s7, 0x8
   13f52: b9 c7        	beqz	a5, 0x13fa0 <_vfiprintf_r+0x32c>
   13f54: 83 b7 0b 00  	ld	a5, 0x0(s7)
   13f58: be 8b        	mv	s7, a5
   13f5a: 63 c3 07 06  	bltz	a5, 0x13fc0 <_vfiprintf_r+0x34c>
   13f5e: 63 cd 04 06  	bltz	s1, 0x13fd8 <_vfiprintf_r+0x364>
   13f62: 13 f8 fc f7  	andi	a6, s9, -0x81
   13f66: 9b 0c 08 00  	sext.w	s9, a6
   13f6a: 63 97 0b 06  	bnez	s7, 0x13fd8 <_vfiprintf_r+0x364>
   13f6e: e3 9b 04 18  	bnez	s1, 0x14904 <_vfiprintf_r+0xc90>
   13f72: 83 47 71 06  	lbu	a5, 0x67(sp)
   13f76: 01 43        	li	t1, 0x0
   13f78: 01 4e        	li	t3, 0x0
   13f7a: f6 8b        	mv	s7, t4
   13f7c: 93 0d c1 0e  	addi	s11, sp, 0xec
   13f80: 91 c3        	beqz	a5, 0x13f84 <_vfiprintf_r+0x310>
   13f82: 05 23        	addiw	t1, t1, 0x1
   13f84: 93 ff 2c 00  	andi	t6, s9, 0x2
   13f88: e3 84 0f ec  	beqz	t6, 0x13e50 <_vfiprintf_r+0x1dc>
   13f8c: 09 23        	addiw	t1, t1, 0x2
   13f8e: 89 4f        	li	t6, 0x2
   13f90: c1 b5        	j	0x13e50 <_vfiprintf_r+0x1dc>
   13f92: bb 8d a4 41  	subw	s11, s1, s10
   13f96: e3 99 0d d8  	bnez	s11, 0x13d28 <_vfiprintf_r+0xb4>
   13f9a: 83 c7 04 00  	lbu	a5, 0x0(s1)
   13f9e: c9 b3        	j	0x13d60 <_vfiprintf_r+0xec>
   13fa0: 93 f7 0c 01  	andi	a5, s9, 0x10
   13fa4: c5 fb        	bnez	a5, 0x13f54 <_vfiprintf_r+0x2e0>
   13fa6: 93 f7 0c 04  	andi	a5, s9, 0x40
   13faa: 83 ab 0b 00  	lw	s7, 0x0(s7)
   13fae: e3 8f 07 0c  	beqz	a5, 0x1488c <_vfiprintf_r+0xc18>
   13fb2: 9b 9b 0b 01  	slliw	s7, s7, 0x10
   13fb6: 9b db 0b 41  	sraiw	s7, s7, 0x10
   13fba: de 87        	mv	a5, s7
   13fbc: e3 d1 07 fa  	bgez	a5, 0x13f5e <_vfiprintf_r+0x2ea>
   13fc0: 93 07 d0 02  	li	a5, 0x2d
   13fc4: a3 03 f1 06  	sb	a5, 0x67(sp)
   13fc8: b3 0b 70 41  	neg	s7, s7
   13fcc: 63 c6 04 00  	bltz	s1, 0x13fd8 <_vfiprintf_r+0x364>
   13fd0: 13 f8 fc f7  	andi	a6, s9, -0x81
   13fd4: 9b 0c 08 00  	sext.w	s9, a6
   13fd8: a5 47        	li	a5, 0x9
   13fda: 63 e4 77 6b  	bltu	a5, s7, 0x14682 <_vfiprintf_r+0xa0e>
   13fde: 9b 87 0b 03  	addiw	a5, s7, 0x30
   13fe2: 93 f7 f7 0f  	andi	a5, a5, 0xff
   13fe6: f6 8b        	mv	s7, t4
   13fe8: a3 05 f1 0e  	sb	a5, 0xeb(sp)
   13fec: 1b 83 04 00  	sext.w	t1, s1
   13ff0: 63 43 90 00  	bgtz	s1, 0x13ff6 <_vfiprintf_r+0x382>
   13ff4: 05 43        	li	t1, 0x1
   13ff6: 05 4e        	li	t3, 0x1
   13ff8: 93 0d b1 0e  	addi	s11, sp, 0xeb
   13ffc: 83 47 71 06  	lbu	a5, 0x67(sp)
   14000: c9 f3        	bnez	a5, 0x13f82 <_vfiprintf_r+0x30e>
   14002: 49 b7        	j	0x13f84 <_vfiprintf_r+0x310>
   14004: 83 bd 0b 00  	ld	s11, 0x0(s7)
   14008: a3 03 01 06  	sb	zero, 0x67(sp)
   1400c: a1 0b        	addi	s7, s7, 0x8
   1400e: e3 87 0d 04  	beqz	s11, 0x1485c <_vfiprintf_r+0xbe8>
   14012: 46 ec        	sd	a7, 0x18(sp)
   14014: 63 c8 04 7a  	bltz	s1, 0x147c4 <_vfiprintf_r+0xb50>
   14018: 26 86        	mv	a2, s1
   1401a: 81 45        	li	a1, 0x0
   1401c: 6e 85        	mv	a0, s11
   1401e: ef 10 20 3d  	jal	0x153f0 <memchr>
   14022: e2 68        	ld	a7, 0x18(sp)
   14024: 26 8e        	mv	t3, s1
   14026: 19 c1        	beqz	a0, 0x1402c <_vfiprintf_r+0x3b8>
   14028: 3b 0e b5 41  	subw	t3, a0, s11
   1402c: 13 43 fe ff  	not	t1, t3
   14030: 83 47 71 06  	lbu	a5, 0x67(sp)
   14034: 13 53 f3 43  	srai	t1, t1, 0x3f
   14038: 33 73 6e 00  	and	t1, t3, t1
   1403c: 01 23        	sext.w	t1, t1
   1403e: 81 44        	li	s1, 0x0
   14040: 81 4f        	li	t6, 0x0
   14042: a1 f3        	bnez	a5, 0x13f82 <_vfiprintf_r+0x30e>
   14044: 31 b5        	j	0x13e50 <_vfiprintf_r+0x1dc>
   14046: 83 a7 0b 00  	lw	a5, 0x0(s7)
   1404a: a3 03 01 06  	sb	zero, 0x67(sp)
   1404e: a1 0b        	addi	s7, s7, 0x8
   14050: 23 04 f1 08  	sb	a5, 0x88(sp)
   14054: 05 43        	li	t1, 0x1
   14056: 05 4e        	li	t3, 0x1
   14058: 93 0d 81 08  	addi	s11, sp, 0x88
   1405c: c5 bb        	j	0x13e4c <_vfiprintf_r+0x1d8>
   1405e: 83 a8 0b 00  	lw	a7, 0x0(s7)
   14062: a1 0b        	addi	s7, s7, 0x8
   14064: 63 df 08 08  	bgez	a7, 0x14102 <_vfiprintf_r+0x48e>
   14068: bb 08 10 41  	negw	a7, a7
   1406c: 93 ec 4c 00  	ori	s9, s9, 0x4
   14070: 83 47 0d 00  	lbu	a5, 0x0(s10)
   14074: 81 2c        	sext.w	s9, s9
   14076: 09 b3        	j	0x13d78 <_vfiprintf_r+0x104>
   14078: 13 07 b0 02  	li	a4, 0x2b
   1407c: 83 47 0d 00  	lbu	a5, 0x0(s10)
   14080: a3 03 e1 06  	sb	a4, 0x67(sp)
   14084: d5 b9        	j	0x13d78 <_vfiprintf_r+0x104>
   14086: 93 ec 0c 08  	ori	s9, s9, 0x80
   1408a: 83 47 0d 00  	lbu	a5, 0x0(s10)
   1408e: 81 2c        	sext.w	s9, s9
   14090: e5 b1        	j	0x13d78 <_vfiprintf_r+0x104>
   14092: 83 47 0d 00  	lbu	a5, 0x0(s10)
   14096: 13 06 a0 02  	li	a2, 0x2a
   1409a: 93 06 1d 00  	addi	a3, s10, 0x1
   1409e: e3 8d c7 08  	beq	a5, a2, 0x14938 <_vfiprintf_r+0xcc4>
   140a2: 1b 87 07 fd  	addiw	a4, a5, -0x30
   140a6: 25 45        	li	a0, 0x9
   140a8: 01 46        	li	a2, 0x0
   140aa: a5 45        	li	a1, 0x9
   140ac: 36 8d        	mv	s10, a3
   140ae: 81 44        	li	s1, 0x0
   140b0: e3 66 e5 cc  	bltu	a0, a4, 0x13d7c <_vfiprintf_r+0x108>
   140b4: 83 c7 06 00  	lbu	a5, 0x0(a3)
   140b8: 9b 14 26 00  	slliw	s1, a2, 0x2
   140bc: b1 9c        	addw	s1, s1, a2
   140be: 9b 94 14 00  	slliw	s1, s1, 0x1
   140c2: 3b 86 e4 00  	addw	a2, s1, a4
   140c6: 1b 87 07 fd  	addiw	a4, a5, -0x30
   140ca: b2 84        	mv	s1, a2
   140cc: 85 06        	addi	a3, a3, 0x1
   140ce: e3 f3 e5 fe  	bgeu	a1, a4, 0x140b4 <_vfiprintf_r+0x440>
   140d2: 63 4b 06 66  	bltz	a2, 0x14748 <_vfiprintf_r+0xad4>
   140d6: 36 8d        	mv	s10, a3
   140d8: 55 b1        	j	0x13d7c <_vfiprintf_r+0x108>
   140da: 56 85        	mv	a0, s5
   140dc: 46 ec        	sd	a7, 0x18(sp)
   140de: ef 10 00 51  	jal	0x155ee <_localeconv_r>
   140e2: 1c 65        	ld	a5, 0x8(a0)
   140e4: 3e 85        	mv	a0, a5
   140e6: be e0        	sd	a5, 0x40(sp)
   140e8: ef d0 5f 99  	jal	0x11a7c <strlen>
   140ec: aa 87        	mv	a5, a0
   140ee: 56 85        	mv	a0, s5
   140f0: 3e f8        	sd	a5, 0x30(sp)
   140f2: ef 10 c0 4f  	jal	0x155ee <_localeconv_r>
   140f6: 18 69        	ld	a4, 0x10(a0)
   140f8: c2 77        	ld	a5, 0x30(sp)
   140fa: e2 68        	ld	a7, 0x18(sp)
   140fc: 3a fc        	sd	a4, 0x38(sp)
   140fe: 63 9f 07 60  	bnez	a5, 0x1471c <_vfiprintf_r+0xaa8>
   14102: 83 47 0d 00  	lbu	a5, 0x0(s10)
   14106: 8d b9        	j	0x13d78 <_vfiprintf_r+0x104>
   14108: 93 ec 1c 00  	ori	s9, s9, 0x1
   1410c: 83 47 0d 00  	lbu	a5, 0x0(s10)
   14110: 81 2c        	sext.w	s9, s9
   14112: 9d b1        	j	0x13d78 <_vfiprintf_r+0x104>
   14114: 03 47 71 06  	lbu	a4, 0x67(sp)
   14118: 83 47 0d 00  	lbu	a5, 0x0(s10)
   1411c: e3 1e 07 c4  	bnez	a4, 0x13d78 <_vfiprintf_r+0x104>
   14120: 13 07 00 02  	li	a4, 0x20
   14124: a3 03 e1 06  	sb	a4, 0x67(sp)
   14128: 81 b9        	j	0x13d78 <_vfiprintf_r+0x104>
   1412a: 93 e7 0c 01  	ori	a5, s9, 0x10
   1412e: 81 27        	sext.w	a5, a5
   14130: 13 f7 07 02  	andi	a4, a5, 0x20
   14134: 93 86 8b 00  	addi	a3, s7, 0x8
   14138: 09 e7        	bnez	a4, 0x14142 <_vfiprintf_r+0x4ce>
   1413a: 13 f7 07 01  	andi	a4, a5, 0x10
   1413e: 63 06 07 5c  	beqz	a4, 0x1470a <_vfiprintf_r+0xa96>
   14142: 03 b7 0b 00  	ld	a4, 0x0(s7)
   14146: 13 f8 f7 bf  	andi	a6, a5, -0x401
   1414a: a3 03 01 06  	sb	zero, 0x67(sp)
   1414e: 9b 0c 08 00  	sext.w	s9, a6
   14152: b6 8b        	mv	s7, a3
   14154: 63 c5 04 08  	bltz	s1, 0x141de <_vfiprintf_r+0x56a>
   14158: 93 f7 f7 b7  	andi	a5, a5, -0x481
   1415c: 81 27        	sext.w	a5, a5
   1415e: 63 16 07 6c  	bnez	a4, 0x1482a <_vfiprintf_r+0xbb6>
   14162: 66 8e        	mv	t3, s9
   14164: be 8c        	mv	s9, a5
   14166: ad e4        	bnez	s1, 0x141d0 <_vfiprintf_r+0x55c>
   14168: 63 18 07 50  	bnez	a4, 0x14678 <_vfiprintf_r+0xa04>
   1416c: 13 7e 1e 00  	andi	t3, t3, 0x1
   14170: 63 09 0e 56  	beqz	t3, 0x146e2 <_vfiprintf_r+0xa6e>
   14174: 93 07 00 03  	li	a5, 0x30
   14178: a3 05 f1 0e  	sb	a5, 0xeb(sp)
   1417c: 72 83        	mv	t1, t3
   1417e: 93 0d b1 0e  	addi	s11, sp, 0xeb
   14182: ad bd        	j	0x13ffc <_vfiprintf_r+0x388>
   14184: 83 47 0d 00  	lbu	a5, 0x0(s10)
   14188: 13 07 c0 06  	li	a4, 0x6c
   1418c: 63 80 e7 6c  	beq	a5, a4, 0x1484c <_vfiprintf_r+0xbd8>
   14190: 93 ec 0c 01  	ori	s9, s9, 0x10
   14194: 81 2c        	sext.w	s9, s9
   14196: cd b6        	j	0x13d78 <_vfiprintf_r+0x104>
   14198: 13 ee 0c 01  	ori	t3, s9, 0x10
   1419c: 01 2e        	sext.w	t3, t3
   1419e: 93 77 0e 02  	andi	a5, t3, 0x20
   141a2: 93 8e 8b 00  	addi	t4, s7, 0x8
   141a6: 89 e7        	bnez	a5, 0x141b0 <_vfiprintf_r+0x53c>
   141a8: 93 77 0e 01  	andi	a5, t3, 0x10
   141ac: 63 85 07 54  	beqz	a5, 0x146f6 <_vfiprintf_r+0xa82>
   141b0: 83 bb 0b 00  	ld	s7, 0x0(s7)
   141b4: a3 03 01 06  	sb	zero, 0x67(sp)
   141b8: f2 8c        	mv	s9, t3
   141ba: e3 cf 04 e0  	bltz	s1, 0x13fd8 <_vfiprintf_r+0x364>
   141be: 13 78 fe f7  	andi	a6, t3, -0x81
   141c2: 9b 0c 08 00  	sext.w	s9, a6
   141c6: e3 99 0b e0  	bnez	s7, 0x13fd8 <_vfiprintf_r+0x364>
   141ca: f6 8b        	mv	s7, t4
   141cc: 05 47        	li	a4, 0x1
   141ce: c9 dc        	beqz	s1, 0x14168 <_vfiprintf_r+0x4f4>
   141d0: 85 47        	li	a5, 0x1
   141d2: 63 0a f7 72  	beq	a4, a5, 0x14906 <_vfiprintf_r+0xc92>
   141d6: 89 47        	li	a5, 0x2
   141d8: 63 0a f7 6c  	beq	a4, a5, 0x148ac <_vfiprintf_r+0xc38>
   141dc: 01 47        	li	a4, 0x0
   141de: 13 0e c1 0e  	addi	t3, sp, 0xec
   141e2: f2 8d        	mv	s11, t3
   141e4: 93 77 77 00  	andi	a5, a4, 0x7
   141e8: 93 87 07 03  	addi	a5, a5, 0x30
   141ec: a3 8f fd fe  	sb	a5, -0x1(s11)
   141f0: 0d 83        	srli	a4, a4, 0x3
   141f2: ee 86        	mv	a3, s11
   141f4: fd 1d        	addi	s11, s11, -0x1
   141f6: 7d f7        	bnez	a4, 0x141e4 <_vfiprintf_r+0x570>
   141f8: 13 f7 1c 00  	andi	a4, s9, 0x1
   141fc: 63 0a 07 28  	beqz	a4, 0x14490 <_vfiprintf_r+0x81c>
   14200: 13 07 00 03  	li	a4, 0x30
   14204: 63 86 e7 28  	beq	a5, a4, 0x14490 <_vfiprintf_r+0x81c>
   14208: f9 16        	addi	a3, a3, -0x2
   1420a: a3 8f ed fe  	sb	a4, -0x1(s11)
   1420e: 3b 0e de 40  	subw	t3, t3, a3
   14212: 1b 83 04 00  	sext.w	t1, s1
   14216: 63 c5 c4 53  	blt	s1, t3, 0x14740 <_vfiprintf_r+0xacc>
   1421a: b6 8d        	mv	s11, a3
   1421c: c5 b3        	j	0x13ffc <_vfiprintf_r+0x388>
   1421e: 83 47 0d 00  	lbu	a5, 0x0(s10)
   14222: 13 07 80 06  	li	a4, 0x68
   14226: 63 8b e7 60  	beq	a5, a4, 0x1483c <_vfiprintf_r+0xbc8>
   1422a: 93 ec 0c 04  	ori	s9, s9, 0x40
   1422e: 81 2c        	sext.w	s9, s9
   14230: a1 b6        	j	0x13d78 <_vfiprintf_r+0x104>
   14232: 93 ec 0c 02  	ori	s9, s9, 0x20
   14236: 83 47 0d 00  	lbu	a5, 0x0(s10)
   1423a: 81 2c        	sext.w	s9, s9
   1423c: 35 be        	j	0x13d78 <_vfiprintf_r+0x104>
   1423e: a1 67        	lui	a5, 0x8
   14240: 93 87 07 83  	addi	a5, a5, -0x7d0
   14244: 23 14 f1 06  	sh	a5, 0x68(sp)
   14248: b7 07 02 00  	lui	a5, 0x20
   1424c: 13 e8 2c 00  	ori	a6, s9, 0x2
   14250: 93 87 87 bb  	addi	a5, a5, -0x448
   14254: 03 b7 0b 00  	ld	a4, 0x0(s7)
   14258: 9b 0c 08 00  	sext.w	s9, a6
   1425c: a1 0b        	addi	s7, s7, 0x8
   1425e: 3e e8        	sd	a5, 0x10(sp)
   14260: a3 03 01 06  	sb	zero, 0x67(sp)
   14264: 63 c8 04 20  	bltz	s1, 0x14474 <_vfiprintf_r+0x800>
   14268: 93 f7 fc f7  	andi	a5, s9, -0x81
   1426c: 81 27        	sext.w	a5, a5
   1426e: 63 1f 07 1e  	bnez	a4, 0x1446c <_vfiprintf_r+0x7f8>
   14272: 66 8e        	mv	t3, s9
   14274: 09 47        	li	a4, 0x2
   14276: be 8c        	mv	s9, a5
   14278: fd b5        	j	0x14166 <_vfiprintf_r+0x4f2>
   1427a: 93 f7 0c 02  	andi	a5, s9, 0x20
   1427e: 03 b7 0b 00  	ld	a4, 0x0(s7)
   14282: 85 e3        	bnez	a5, 0x142a2 <_vfiprintf_r+0x62e>
   14284: 93 f7 0c 01  	andi	a5, s9, 0x10
   14288: 89 ef        	bnez	a5, 0x142a2 <_vfiprintf_r+0x62e>
   1428a: 93 f7 0c 04  	andi	a5, s9, 0x40
   1428e: 63 9d 07 62  	bnez	a5, 0x148c8 <_vfiprintf_r+0xc54>
   14292: 13 f8 0c 20  	andi	a6, s9, 0x200
   14296: 63 0c 08 68  	beqz	a6, 0x1492e <_vfiprintf_r+0xcba>
   1429a: 23 00 87 01  	sb	s8, 0x0(a4)
   1429e: a1 0b        	addi	s7, s7, 0x8
   142a0: a5 b4        	j	0x13d08 <_vfiprintf_r+0x94>
   142a2: 23 30 87 01  	sd	s8, 0x0(a4)
   142a6: a1 0b        	addi	s7, s7, 0x8
   142a8: 85 b4        	j	0x13d08 <_vfiprintf_r+0x94>
   142aa: 05 47        	li	a4, 0x1
   142ac: f2 87        	mv	a5, t3
   142ae: ee f9        	sd	s11, 0xf0(sp)
   142b0: f2 fd        	sd	t3, 0xf8(sp)
   142b2: 72 e1        	sd	t3, 0x80(sp)
   142b4: ba dc        	sw	a4, 0x78(sp)
   142b6: 4e 84        	mv	s0, s3
   142b8: 41 04        	addi	s0, s0, 0x10
   142ba: 99 b9        	j	0x13f10 <_vfiprintf_r+0x29c>
   142bc: 3b 87 68 40  	subw	a4, a7, t1
   142c0: e3 5b e0 c0  	blez	a4, 0x13ed6 <_vfiprintf_r+0x262>
   142c4: 41 46        	li	a2, 0x10
   142c6: 63 5b e6 64  	bge	a2, a4, 0x1491c <_vfiprintf_r+0xca8>
   142ca: b7 0e 02 00  	lui	t4, 0x20
   142ce: 93 8e 0e fe  	addi	t4, t4, -0x20
   142d2: 26 f4        	sd	s1, 0x28(sp)
   142d4: a2 85        	mv	a1, s0
   142d6: 41 4f        	li	t5, 0x10
   142d8: 9d 4f        	li	t6, 0x7
   142da: 72 ec        	sd	t3, 0x18(sp)
   142dc: 46 f0        	sd	a7, 0x20(sp)
   142de: 9a e4        	sd	t1, 0x48(sp)
   142e0: 3a 84        	mv	s0, a4
   142e2: f6 84        	mv	s1, t4
   142e4: 01 a8        	j	0x142f4 <_vfiprintf_r+0x680>
   142e6: 1b 86 26 00  	addiw	a2, a3, 0x2
   142ea: c1 05        	addi	a1, a1, 0x10
   142ec: aa 86        	mv	a3, a0
   142ee: 41 34        	addiw	s0, s0, -0x10
   142f0: 63 5f 8f 02  	bge	t5, s0, 0x1432e <_vfiprintf_r+0x6ba>
   142f4: 1b 85 16 00  	addiw	a0, a3, 0x1
   142f8: c1 07        	addi	a5, a5, 0x10
   142fa: 84 e1        	sd	s1, 0x0(a1)
   142fc: 23 b4 e5 01  	sd	t5, 0x8(a1)
   14300: 3e e1        	sd	a5, 0x80(sp)
   14302: aa dc        	sw	a0, 0x78(sp)
   14304: e3 d1 af fe  	bge	t6, a0, 0x142e6 <_vfiprintf_r+0x672>
   14308: 63 8a 07 10  	beqz	a5, 0x1441c <_vfiprintf_r+0x7a8>
   1430c: 90 18        	addi	a2, sp, 0x70
   1430e: d2 85        	mv	a1, s4
   14310: 56 85        	mv	a0, s5
   14312: ef f0 3f 89  	jal	0x13ba4 <__sprint_r.part.0>
   14316: e3 11 05 ac  	bnez	a0, 0x13dd8 <_vfiprintf_r+0x164>
   1431a: e6 56        	lw	a3, 0x78(sp)
   1431c: 41 4f        	li	t5, 0x10
   1431e: 41 34        	addiw	s0, s0, -0x10
   14320: 8a 67        	ld	a5, 0x80(sp)
   14322: ce 85        	mv	a1, s3
   14324: 1b 86 16 00  	addiw	a2, a3, 0x1
   14328: 9d 4f        	li	t6, 0x7
   1432a: e3 45 8f fc  	blt	t5, s0, 0x142f4 <_vfiprintf_r+0x680>
   1432e: a6 8e        	mv	t4, s1
   14330: 62 6e        	ld	t3, 0x18(sp)
   14332: 82 78        	ld	a7, 0x20(sp)
   14334: 26 63        	ld	t1, 0x48(sp)
   14336: a2 74        	ld	s1, 0x28(sp)
   14338: 22 87        	mv	a4, s0
   1433a: 2e 84        	mv	s0, a1
   1433c: ba 97        	add	a5, a5, a4
   1433e: 18 e4        	sd	a4, 0x8(s0)
   14340: 23 30 d4 01  	sd	t4, 0x0(s0)
   14344: 3e e1        	sd	a5, 0x80(sp)
   14346: b2 dc        	sw	a2, 0x78(sp)
   14348: 1d 47        	li	a4, 0x7
   1434a: 63 50 c7 3a  	bge	a4, a2, 0x146ea <_vfiprintf_r+0xa76>
   1434e: 63 81 07 56  	beqz	a5, 0x148b0 <_vfiprintf_r+0xc3c>
   14352: 90 18        	addi	a2, sp, 0x70
   14354: d2 85        	mv	a1, s4
   14356: 56 85        	mv	a0, s5
   14358: 1a f4        	sd	t1, 0x28(sp)
   1435a: 46 f0        	sd	a7, 0x20(sp)
   1435c: 72 ec        	sd	t3, 0x18(sp)
   1435e: ef f0 7f 84  	jal	0x13ba4 <__sprint_r.part.0>
   14362: e3 1b 05 a6  	bnez	a0, 0x13dd8 <_vfiprintf_r+0x164>
   14366: 62 6e        	ld	t3, 0x18(sp)
   14368: e6 56        	lw	a3, 0x78(sp)
   1436a: 8a 67        	ld	a5, 0x80(sp)
   1436c: bb 84 c4 41  	subw	s1, s1, t3
   14370: 22 73        	ld	t1, 0x28(sp)
   14372: 82 78        	ld	a7, 0x20(sp)
   14374: 4e 84        	mv	s0, s3
   14376: 9b 85 16 00  	addiw	a1, a3, 0x1
   1437a: e3 52 90 b6  	blez	s1, 0x13ede <_vfiprintf_r+0x26a>
   1437e: b7 0e 02 00  	lui	t4, 0x20
   14382: 93 8e 0e fe  	addi	t4, t4, -0x20
   14386: 63 53 99 06  	bge	s2, s1, 0x143ec <_vfiprintf_r+0x778>
   1438a: 22 87        	mv	a4, s0
   1438c: 1d 4f        	li	t5, 0x7
   1438e: 26 84        	mv	s0, s1
   14390: 72 ec        	sd	t3, 0x18(sp)
   14392: 46 f0        	sd	a7, 0x20(sp)
   14394: 1a f4        	sd	t1, 0x28(sp)
   14396: da 84        	mv	s1, s6
   14398: 01 a8        	j	0x143a8 <_vfiprintf_r+0x734>
   1439a: 9b 85 26 00  	addiw	a1, a3, 0x2
   1439e: 41 07        	addi	a4, a4, 0x10
   143a0: aa 86        	mv	a3, a0
   143a2: 41 34        	addiw	s0, s0, -0x10
   143a4: 63 5e 89 02  	bge	s2, s0, 0x143e0 <_vfiprintf_r+0x76c>
   143a8: 1b 85 16 00  	addiw	a0, a3, 0x1
   143ac: c1 07        	addi	a5, a5, 0x10
   143ae: 23 30 67 01  	sd	s6, 0x0(a4)
   143b2: 23 34 27 01  	sd	s2, 0x8(a4)
   143b6: 3e e1        	sd	a5, 0x80(sp)
   143b8: aa dc        	sw	a0, 0x78(sp)
   143ba: e3 50 af fe  	bge	t5, a0, 0x1439a <_vfiprintf_r+0x726>
   143be: b9 c3        	beqz	a5, 0x14404 <_vfiprintf_r+0x790>
   143c0: 90 18        	addi	a2, sp, 0x70
   143c2: d2 85        	mv	a1, s4
   143c4: 56 85        	mv	a0, s5
   143c6: ef f0 ef fd  	jal	0x13ba4 <__sprint_r.part.0>
   143ca: e3 17 05 a0  	bnez	a0, 0x13dd8 <_vfiprintf_r+0x164>
   143ce: e6 56        	lw	a3, 0x78(sp)
   143d0: 41 34        	addiw	s0, s0, -0x10
   143d2: 8a 67        	ld	a5, 0x80(sp)
   143d4: 4e 87        	mv	a4, s3
   143d6: 9b 85 16 00  	addiw	a1, a3, 0x1
   143da: 1d 4f        	li	t5, 0x7
   143dc: e3 46 89 fc  	blt	s2, s0, 0x143a8 <_vfiprintf_r+0x734>
   143e0: 62 6e        	ld	t3, 0x18(sp)
   143e2: 82 78        	ld	a7, 0x20(sp)
   143e4: 22 73        	ld	t1, 0x28(sp)
   143e6: a6 8e        	mv	t4, s1
   143e8: a2 84        	mv	s1, s0
   143ea: 3a 84        	mv	s0, a4
   143ec: a6 97        	add	a5, a5, s1
   143ee: 23 30 d4 01  	sd	t4, 0x0(s0)
   143f2: 04 e4        	sd	s1, 0x8(s0)
   143f4: 3e e1        	sd	a5, 0x80(sp)
   143f6: ae dc        	sw	a1, 0x78(sp)
   143f8: 1d 47        	li	a4, 0x7
   143fa: 63 49 b7 20  	blt	a4, a1, 0x1460c <_vfiprintf_r+0x998>
   143fe: 41 04        	addi	s0, s0, 0x10
   14400: 85 25        	addiw	a1, a1, 0x1
   14402: f1 bc        	j	0x13ede <_vfiprintf_r+0x26a>
   14404: 85 45        	li	a1, 0x1
   14406: 81 46        	li	a3, 0x0
   14408: 4e 87        	mv	a4, s3
   1440a: 61 bf        	j	0x143a2 <_vfiprintf_r+0x72e>
   1440c: 90 18        	addi	a2, sp, 0x70
   1440e: d2 85        	mv	a1, s4
   14410: 56 85        	mv	a0, s5
   14412: ef f0 2f f9  	jal	0x13ba4 <__sprint_r.part.0>
   14416: e3 0d 05 b0  	beqz	a0, 0x13f30 <_vfiprintf_r+0x2bc>
   1441a: 7d ba        	j	0x13dd8 <_vfiprintf_r+0x164>
   1441c: 05 46        	li	a2, 0x1
   1441e: 81 46        	li	a3, 0x0
   14420: ce 85        	mv	a1, s3
   14422: f1 b5        	j	0x142ee <_vfiprintf_r+0x67a>
   14424: 85 cb        	beqz	a5, 0x14454 <_vfiprintf_r+0x7e0>
   14426: 90 18        	addi	a2, sp, 0x70
   14428: d2 85        	mv	a1, s4
   1442a: 56 85        	mv	a0, s5
   1442c: 9a e8        	sd	t1, 0x50(sp)
   1442e: c6 e4        	sd	a7, 0x48(sp)
   14430: 72 f4        	sd	t3, 0x28(sp)
   14432: 16 f0        	sd	t0, 0x20(sp)
   14434: 7e ec        	sd	t6, 0x18(sp)
   14436: ef f0 ef f6  	jal	0x13ba4 <__sprint_r.part.0>
   1443a: e3 1f 05 98  	bnez	a0, 0x13dd8 <_vfiprintf_r+0x164>
   1443e: e6 56        	lw	a3, 0x78(sp)
   14440: 8a 67        	ld	a5, 0x80(sp)
   14442: 46 63        	ld	t1, 0x50(sp)
   14444: a6 68        	ld	a7, 0x48(sp)
   14446: 22 7e        	ld	t3, 0x28(sp)
   14448: 82 72        	ld	t0, 0x20(sp)
   1444a: e2 6f        	ld	t6, 0x18(sp)
   1444c: 4e 84        	mv	s0, s3
   1444e: 9b 85 16 00  	addiw	a1, a3, 0x1
   14452: 2d bc        	j	0x13e8c <_vfiprintf_r+0x218>
   14454: 63 81 0f 2e  	beqz	t6, 0x14736 <_vfiprintf_r+0xac2>
   14458: bc 10        	addi	a5, sp, 0x68
   1445a: be f9        	sd	a5, 0xf0(sp)
   1445c: 89 47        	li	a5, 0x2
   1445e: be fd        	sd	a5, 0xf8(sp)
   14460: 85 45        	li	a1, 0x1
   14462: 4e 84        	mv	s0, s3
   14464: ae 86        	mv	a3, a1
   14466: 41 04        	addi	s0, s0, 0x10
   14468: 85 25        	addiw	a1, a1, 0x1
   1446a: 95 b4        	j	0x13ece <_vfiprintf_r+0x25a>
   1446c: be 8c        	mv	s9, a5
   1446e: 89 47        	li	a5, 0x2
   14470: e3 87 07 d6  	beqz	a5, 0x141de <_vfiprintf_r+0x56a>
   14474: c2 66        	ld	a3, 0x10(sp)
   14476: 13 0e c1 0e  	addi	t3, sp, 0xec
   1447a: f2 8d        	mv	s11, t3
   1447c: 93 77 f7 00  	andi	a5, a4, 0xf
   14480: b6 97        	add	a5, a5, a3
   14482: 83 c7 07 00  	lbu	a5, 0x0(a5)
   14486: 11 83        	srli	a4, a4, 0x4
   14488: fd 1d        	addi	s11, s11, -0x1
   1448a: 23 80 fd 00  	sb	a5, 0x0(s11)
   1448e: 7d f7        	bnez	a4, 0x1447c <_vfiprintf_r+0x808>
   14490: 3b 0e be 41  	subw	t3, t3, s11
   14494: 1b 83 04 00  	sext.w	t1, s1
   14498: e3 d2 c4 b7  	bge	s1, t3, 0x13ffc <_vfiprintf_r+0x388>
   1449c: 1b 03 0e 00  	sext.w	t1, t3
   144a0: b1 be        	j	0x13ffc <_vfiprintf_r+0x388>
   144a2: 41 45        	li	a0, 0x10
   144a4: 63 5b e5 44  	bge	a0, a4, 0x148fa <_vfiprintf_r+0xc86>
   144a8: b7 0e 02 00  	lui	t4, 0x20
   144ac: 93 8e 0e ff  	addi	t4, t4, -0x10
   144b0: a6 e8        	sd	s1, 0x50(sp)
   144b2: a2 85        	mv	a1, s0
   144b4: 41 4f        	li	t5, 0x10
   144b6: 9d 43        	li	t2, 0x7
   144b8: 7e ec        	sd	t6, 0x18(sp)
   144ba: 16 f0        	sd	t0, 0x20(sp)
   144bc: 72 f4        	sd	t3, 0x28(sp)
   144be: c6 e4        	sd	a7, 0x48(sp)
   144c0: 9a ec        	sd	t1, 0x58(sp)
   144c2: 3a 84        	mv	s0, a4
   144c4: f6 84        	mv	s1, t4
   144c6: 11 a8        	j	0x144da <_vfiprintf_r+0x866>
   144c8: 1b 86 26 00  	addiw	a2, a3, 0x2
   144cc: c1 05        	addi	a1, a1, 0x10
   144ce: aa 86        	mv	a3, a0
   144d0: 41 34        	addiw	s0, s0, -0x10
   144d2: 63 50 8f 04  	bge	t5, s0, 0x14512 <_vfiprintf_r+0x89e>
   144d6: 1b 86 16 00  	addiw	a2, a3, 0x1
   144da: c1 07        	addi	a5, a5, 0x10
   144dc: 84 e1        	sd	s1, 0x0(a1)
   144de: 23 b4 e5 01  	sd	t5, 0x8(a1)
   144e2: 3e e1        	sd	a5, 0x80(sp)
   144e4: 1b 05 06 00  	sext.w	a0, a2
   144e8: b2 dc        	sw	a2, 0x78(sp)
   144ea: e3 df a3 fc  	bge	t2, a0, 0x144c8 <_vfiprintf_r+0x854>
   144ee: a9 cb        	beqz	a5, 0x14540 <_vfiprintf_r+0x8cc>
   144f0: 90 18        	addi	a2, sp, 0x70
   144f2: d2 85        	mv	a1, s4
   144f4: 56 85        	mv	a0, s5
   144f6: ef f0 ef ea  	jal	0x13ba4 <__sprint_r.part.0>
   144fa: e3 1f 05 8c  	bnez	a0, 0x13dd8 <_vfiprintf_r+0x164>
   144fe: e6 56        	lw	a3, 0x78(sp)
   14500: 41 4f        	li	t5, 0x10
   14502: 41 34        	addiw	s0, s0, -0x10
   14504: 8a 67        	ld	a5, 0x80(sp)
   14506: ce 85        	mv	a1, s3
   14508: 1b 86 16 00  	addiw	a2, a3, 0x1
   1450c: 9d 43        	li	t2, 0x7
   1450e: e3 44 8f fc  	blt	t5, s0, 0x144d6 <_vfiprintf_r+0x862>
   14512: a6 8e        	mv	t4, s1
   14514: e2 6f        	ld	t6, 0x18(sp)
   14516: 82 72        	ld	t0, 0x20(sp)
   14518: 22 7e        	ld	t3, 0x28(sp)
   1451a: a6 68        	ld	a7, 0x48(sp)
   1451c: 66 63        	ld	t1, 0x58(sp)
   1451e: c6 64        	ld	s1, 0x50(sp)
   14520: 22 87        	mv	a4, s0
   14522: 2e 84        	mv	s0, a1
   14524: ba 97        	add	a5, a5, a4
   14526: 18 e4        	sd	a4, 0x8(s0)
   14528: 23 30 d4 01  	sd	t4, 0x0(s0)
   1452c: 3e e1        	sd	a5, 0x80(sp)
   1452e: b2 dc        	sw	a2, 0x78(sp)
   14530: 1d 47        	li	a4, 0x7
   14532: 63 49 c7 10  	blt	a4, a2, 0x14644 <_vfiprintf_r+0x9d0>
   14536: 41 04        	addi	s0, s0, 0x10
   14538: 9b 05 16 00  	addiw	a1, a2, 0x1
   1453c: b2 86        	mv	a3, a2
   1453e: 35 b2        	j	0x13e6a <_vfiprintf_r+0x1f6>
   14540: 81 46        	li	a3, 0x0
   14542: 05 46        	li	a2, 0x1
   14544: ce 85        	mv	a1, s3
   14546: 69 b7        	j	0x144d0 <_vfiprintf_r+0x85c>
   14548: 82 dc        	sw	zero, 0x78(sp)
   1454a: 13 f8 4c 00  	andi	a6, s9, 0x4
   1454e: 63 08 08 0a  	beqz	a6, 0x145fe <_vfiprintf_r+0x98a>
   14552: bb 84 68 40  	subw	s1, a7, t1
   14556: 63 54 90 0a  	blez	s1, 0x145fe <_vfiprintf_r+0x98a>
   1455a: 4e 84        	mv	s0, s3
   1455c: 41 47        	li	a4, 0x10
   1455e: e6 56        	lw	a3, 0x78(sp)
   14560: 63 57 97 3a  	bge	a4, s1, 0x1490e <_vfiprintf_r+0xc9a>
   14564: b7 0e 02 00  	lui	t4, 0x20
   14568: 93 8e 0e ff  	addi	t4, t4, -0x10
   1456c: 22 86        	mv	a2, s0
   1456e: c1 4d        	li	s11, 0x10
   14570: 26 84        	mv	s0, s1
   14572: 9d 4c        	li	s9, 0x7
   14574: 46 ec        	sd	a7, 0x18(sp)
   14576: 1a f0        	sd	t1, 0x20(sp)
   14578: f6 84        	mv	s1, t4
   1457a: 01 a8        	j	0x1458a <_vfiprintf_r+0x916>
   1457c: 1b 87 26 00  	addiw	a4, a3, 0x2
   14580: 41 06        	addi	a2, a2, 0x10
   14582: ae 86        	mv	a3, a1
   14584: 41 34        	addiw	s0, s0, -0x10
   14586: 63 dc 8d 02  	bge	s11, s0, 0x145be <_vfiprintf_r+0x94a>
   1458a: 9b 85 16 00  	addiw	a1, a3, 0x1
   1458e: c1 07        	addi	a5, a5, 0x10
   14590: 04 e2        	sd	s1, 0x0(a2)
   14592: 23 34 b6 01  	sd	s11, 0x8(a2)
   14596: 3e e1        	sd	a5, 0x80(sp)
   14598: ae dc        	sw	a1, 0x78(sp)
   1459a: e3 d1 bc fe  	bge	s9, a1, 0x1457c <_vfiprintf_r+0x908>
   1459e: a1 cf        	beqz	a5, 0x145f6 <_vfiprintf_r+0x982>
   145a0: 90 18        	addi	a2, sp, 0x70
   145a2: d2 85        	mv	a1, s4
   145a4: 56 85        	mv	a0, s5
   145a6: ef f0 ef df  	jal	0x13ba4 <__sprint_r.part.0>
   145aa: e3 17 05 82  	bnez	a0, 0x13dd8 <_vfiprintf_r+0x164>
   145ae: e6 56        	lw	a3, 0x78(sp)
   145b0: 41 34        	addiw	s0, s0, -0x10
   145b2: 8a 67        	ld	a5, 0x80(sp)
   145b4: 4e 86        	mv	a2, s3
   145b6: 1b 87 16 00  	addiw	a4, a3, 0x1
   145ba: e3 c8 8d fc  	blt	s11, s0, 0x1458a <_vfiprintf_r+0x916>
   145be: e2 68        	ld	a7, 0x18(sp)
   145c0: 02 73        	ld	t1, 0x20(sp)
   145c2: a6 8e        	mv	t4, s1
   145c4: a2 84        	mv	s1, s0
   145c6: 32 84        	mv	s0, a2
   145c8: a6 97        	add	a5, a5, s1
   145ca: 23 30 d4 01  	sd	t4, 0x0(s0)
   145ce: 04 e4        	sd	s1, 0x8(s0)
   145d0: 3e e1        	sd	a5, 0x80(sp)
   145d2: ba dc        	sw	a4, 0x78(sp)
   145d4: 9d 46        	li	a3, 0x7
   145d6: e3 d5 e6 94  	bge	a3, a4, 0x13f20 <_vfiprintf_r+0x2ac>
   145da: 95 c3        	beqz	a5, 0x145fe <_vfiprintf_r+0x98a>
   145dc: 90 18        	addi	a2, sp, 0x70
   145de: d2 85        	mv	a1, s4
   145e0: 56 85        	mv	a0, s5
   145e2: 1a f0        	sd	t1, 0x20(sp)
   145e4: 46 ec        	sd	a7, 0x18(sp)
   145e6: ef f0 ef db  	jal	0x13ba4 <__sprint_r.part.0>
   145ea: 63 17 05 fe  	bnez	a0, 0x13dd8 <_vfiprintf_r+0x164>
   145ee: 8a 67        	ld	a5, 0x80(sp)
   145f0: 02 73        	ld	t1, 0x20(sp)
   145f2: e2 68        	ld	a7, 0x18(sp)
   145f4: 35 b2        	j	0x13f20 <_vfiprintf_r+0x2ac>
   145f6: 05 47        	li	a4, 0x1
   145f8: 81 46        	li	a3, 0x0
   145fa: 4e 86        	mv	a2, s3
   145fc: 61 b7        	j	0x14584 <_vfiprintf_r+0x910>
   145fe: c6 87        	mv	a5, a7
   14600: 63 d3 68 00  	bge	a7, t1, 0x14606 <_vfiprintf_r+0x992>
   14604: 9a 87        	mv	a5, t1
   14606: 3b 8c 87 01  	addw	s8, a5, s8
   1460a: 1d b2        	j	0x13f30 <_vfiprintf_r+0x2bc>
   1460c: e3 8f 07 c8  	beqz	a5, 0x142aa <_vfiprintf_r+0x636>
   14610: 90 18        	addi	a2, sp, 0x70
   14612: d2 85        	mv	a1, s4
   14614: 56 85        	mv	a0, s5
   14616: 1a f4        	sd	t1, 0x28(sp)
   14618: 46 f0        	sd	a7, 0x20(sp)
   1461a: 72 ec        	sd	t3, 0x18(sp)
   1461c: ef f0 8f d8  	jal	0x13ba4 <__sprint_r.part.0>
   14620: 63 1c 05 fa  	bnez	a0, 0x13dd8 <_vfiprintf_r+0x164>
   14624: e6 55        	lw	a1, 0x78(sp)
   14626: 8a 67        	ld	a5, 0x80(sp)
   14628: 22 73        	ld	t1, 0x28(sp)
   1462a: 82 78        	ld	a7, 0x20(sp)
   1462c: 62 6e        	ld	t3, 0x18(sp)
   1462e: 4e 84        	mv	s0, s3
   14630: 85 25        	addiw	a1, a1, 0x1
   14632: 75 b0        	j	0x13ede <_vfiprintf_r+0x26a>
   14634: 82 dc        	sw	zero, 0x78(sp)
   14636: 4e 84        	mv	s0, s3
   14638: 6f f0 0f f2  	j	0x13d58 <_vfiprintf_r+0xe4>
   1463c: 85 45        	li	a1, 0x1
   1463e: 81 46        	li	a3, 0x0
   14640: 4e 84        	mv	s0, s3
   14642: 71 b0        	j	0x13ece <_vfiprintf_r+0x25a>
   14644: 63 87 07 18  	beqz	a5, 0x147d2 <_vfiprintf_r+0xb5e>
   14648: 90 18        	addi	a2, sp, 0x70
   1464a: d2 85        	mv	a1, s4
   1464c: 56 85        	mv	a0, s5
   1464e: 9a e8        	sd	t1, 0x50(sp)
   14650: c6 e4        	sd	a7, 0x48(sp)
   14652: 72 f4        	sd	t3, 0x28(sp)
   14654: 16 f0        	sd	t0, 0x20(sp)
   14656: 7e ec        	sd	t6, 0x18(sp)
   14658: ef f0 cf d4  	jal	0x13ba4 <__sprint_r.part.0>
   1465c: 63 1e 05 f6  	bnez	a0, 0x13dd8 <_vfiprintf_r+0x164>
   14660: e6 56        	lw	a3, 0x78(sp)
   14662: 8a 67        	ld	a5, 0x80(sp)
   14664: 46 63        	ld	t1, 0x50(sp)
   14666: a6 68        	ld	a7, 0x48(sp)
   14668: 22 7e        	ld	t3, 0x28(sp)
   1466a: 82 72        	ld	t0, 0x20(sp)
   1466c: e2 6f        	ld	t6, 0x18(sp)
   1466e: 4e 84        	mv	s0, s3
   14670: 9b 85 16 00  	addiw	a1, a3, 0x1
   14674: 6f f0 6f ff  	j	0x13e6a <_vfiprintf_r+0x1f6>
   14678: 01 43        	li	t1, 0x0
   1467a: 01 4e        	li	t3, 0x0
   1467c: 93 0d c1 0e  	addi	s11, sp, 0xec
   14680: b5 ba        	j	0x13ffc <_vfiprintf_r+0x388>
   14682: 13 0e c1 0e  	addi	t3, sp, 0xec
   14686: 62 78        	ld	a6, 0x38(sp)
   14688: 13 ff 0c 40  	andi	t5, s9, 0x400
   1468c: 01 46        	li	a2, 0x0
   1468e: 72 87        	mv	a4, t3
   14690: a9 46        	li	a3, 0xa
   14692: 25 43        	li	t1, 0x9
   14694: 93 0f f0 0f  	li	t6, 0xff
   14698: 39 a0        	j	0x146a6 <_vfiprintf_r+0xa32>
   1469a: b3 d7 db 02  	divu	a5, s7, a3
   1469e: 63 77 73 03  	bgeu	t1, s7, 0x146cc <_vfiprintf_r+0xa58>
   146a2: be 8b        	mv	s7, a5
   146a4: 6e 87        	mv	a4, s11
   146a6: 93 0d f7 ff  	addi	s11, a4, -0x1
   146aa: 05 26        	addiw	a2, a2, 0x1
   146ac: b3 f7 db 02  	remu	a5, s7, a3
   146b0: 9b 87 07 03  	addiw	a5, a5, 0x30
   146b4: a3 0f f7 fe  	sb	a5, -0x1(a4)
   146b8: e3 01 0f fe  	beqz	t5, 0x1469a <_vfiprintf_r+0xa26>
   146bc: 83 47 08 00  	lbu	a5, 0x0(a6)
   146c0: e3 9d c7 fc  	bne	a5, a2, 0x1469a <_vfiprintf_r+0xa26>
   146c4: e3 8b f7 fd  	beq	a5, t6, 0x1469a <_vfiprintf_r+0xa26>
   146c8: 63 61 73 13  	bltu	t1, s7, 0x147ea <_vfiprintf_r+0xb76>
   146cc: 42 fc        	sd	a6, 0x38(sp)
   146ce: 3b 0e be 41  	subw	t3, t3, s11
   146d2: 1b 83 04 00  	sext.w	t1, s1
   146d6: 63 d4 c4 01  	bge	s1, t3, 0x146de <_vfiprintf_r+0xa6a>
   146da: 1b 03 0e 00  	sext.w	t1, t3
   146de: f6 8b        	mv	s7, t4
   146e0: 31 ba        	j	0x13ffc <_vfiprintf_r+0x388>
   146e2: 01 43        	li	t1, 0x0
   146e4: 93 0d c1 0e  	addi	s11, sp, 0xec
   146e8: 11 ba        	j	0x13ffc <_vfiprintf_r+0x388>
   146ea: 41 04        	addi	s0, s0, 0x10
   146ec: 9b 05 16 00  	addiw	a1, a2, 0x1
   146f0: b2 86        	mv	a3, a2
   146f2: 6f f0 4f fe  	j	0x13ed6 <_vfiprintf_r+0x262>
   146f6: 93 77 0e 04  	andi	a5, t3, 0x40
   146fa: 83 ab 0b 00  	lw	s7, 0x0(s7)
   146fe: 63 81 07 1a  	beqz	a5, 0x148a0 <_vfiprintf_r+0xc2c>
   14702: c2 1b        	slli	s7, s7, 0x30
   14704: 93 db 0b 03  	srli	s7, s7, 0x30
   14708: 75 b4        	j	0x141b4 <_vfiprintf_r+0x540>
   1470a: 13 f6 07 04  	andi	a2, a5, 0x40
   1470e: 03 a7 0b 00  	lw	a4, 0x0(s7)
   14712: 63 07 06 16  	beqz	a2, 0x14880 <_vfiprintf_r+0xc0c>
   14716: 42 17        	slli	a4, a4, 0x30
   14718: 41 93        	srli	a4, a4, 0x30
   1471a: 35 b4        	j	0x14146 <_vfiprintf_r+0x4d2>
   1471c: 83 47 0d 00  	lbu	a5, 0x0(s10)
   14720: 63 0c 07 e4  	beqz	a4, 0x13d78 <_vfiprintf_r+0x104>
   14724: 03 47 07 00  	lbu	a4, 0x0(a4)
   14728: 63 08 07 e4  	beqz	a4, 0x13d78 <_vfiprintf_r+0x104>
   1472c: 93 ec 0c 40  	ori	s9, s9, 0x400
   14730: 81 2c        	sext.w	s9, s9
   14732: 6f f0 6f e4  	j	0x13d78 <_vfiprintf_r+0x104>
   14736: 81 46        	li	a3, 0x0
   14738: 85 45        	li	a1, 0x1
   1473a: 4e 84        	mv	s0, s3
   1473c: 6f f0 2f f9  	j	0x13ece <_vfiprintf_r+0x25a>
   14740: 1b 03 0e 00  	sext.w	t1, t3
   14744: b6 8d        	mv	s11, a3
   14746: 5d b8        	j	0x13ffc <_vfiprintf_r+0x388>
   14748: fd 54        	li	s1, -0x1
   1474a: 36 8d        	mv	s10, a3
   1474c: 6f f0 0f e3  	j	0x13d7c <_vfiprintf_r+0x108>
   14750: 37 07 02 00  	lui	a4, 0x20
   14754: 13 07 07 bd  	addi	a4, a4, -0x430
   14758: 3a e8        	sd	a4, 0x10(sp)
   1475a: 13 f7 0c 02  	andi	a4, s9, 0x20
   1475e: 93 86 8b 00  	addi	a3, s7, 0x8
   14762: 31 ef        	bnez	a4, 0x147be <_vfiprintf_r+0xb4a>
   14764: 13 f7 0c 01  	andi	a4, s9, 0x10
   14768: 39 eb        	bnez	a4, 0x147be <_vfiprintf_r+0xb4a>
   1476a: 13 f6 0c 04  	andi	a2, s9, 0x40
   1476e: 03 a7 0b 00  	lw	a4, 0x0(s7)
   14772: 63 01 06 10  	beqz	a2, 0x14874 <_vfiprintf_r+0xc00>
   14776: 42 17        	slli	a4, a4, 0x30
   14778: 41 93        	srli	a4, a4, 0x30
   1477a: 13 f6 1c 00  	andi	a2, s9, 0x1
   1477e: 01 ce        	beqz	a2, 0x14796 <_vfiprintf_r+0xb22>
   14780: 19 cb        	beqz	a4, 0x14796 <_vfiprintf_r+0xb22>
   14782: 13 e8 2c 00  	ori	a6, s9, 0x2
   14786: 13 06 00 03  	li	a2, 0x30
   1478a: 23 04 c1 06  	sb	a2, 0x68(sp)
   1478e: a3 04 f1 06  	sb	a5, 0x69(sp)
   14792: 9b 0c 08 00  	sext.w	s9, a6
   14796: 13 f8 fc bf  	andi	a6, s9, -0x401
   1479a: 9b 0c 08 00  	sext.w	s9, a6
   1479e: b6 8b        	mv	s7, a3
   147a0: c1 b4        	j	0x14260 <_vfiprintf_r+0x5ec>
   147a2: 66 8e        	mv	t3, s9
   147a4: ed ba        	j	0x1419e <_vfiprintf_r+0x52a>
   147a6: e6 87        	mv	a5, s9
   147a8: 61 b2        	j	0x14130 <_vfiprintf_r+0x4bc>
   147aa: 37 07 02 00  	lui	a4, 0x20
   147ae: 13 07 87 bb  	addi	a4, a4, -0x448
   147b2: 3a e8        	sd	a4, 0x10(sp)
   147b4: 13 f7 0c 02  	andi	a4, s9, 0x20
   147b8: 93 86 8b 00  	addi	a3, s7, 0x8
   147bc: 45 d7        	beqz	a4, 0x14764 <_vfiprintf_r+0xaf0>
   147be: 03 b7 0b 00  	ld	a4, 0x0(s7)
   147c2: 65 bf        	j	0x1477a <_vfiprintf_r+0xb06>
   147c4: 6e 85        	mv	a0, s11
   147c6: ef d0 6f ab  	jal	0x11a7c <strlen>
   147ca: e2 68        	ld	a7, 0x18(sp)
   147cc: 1b 0e 05 00  	sext.w	t3, a0
   147d0: b1 b8        	j	0x1402c <_vfiprintf_r+0x3b8>
   147d2: 03 47 71 06  	lbu	a4, 0x67(sp)
   147d6: 65 c7        	beqz	a4, 0x148be <_vfiprintf_r+0xc4a>
   147d8: 93 07 71 06  	addi	a5, sp, 0x67
   147dc: be f9        	sd	a5, 0xf0(sp)
   147de: 85 47        	li	a5, 0x1
   147e0: be fd        	sd	a5, 0xf8(sp)
   147e2: 85 45        	li	a1, 0x1
   147e4: 4e 84        	mv	s0, s3
   147e6: 6f f0 0f ea  	j	0x13e86 <_vfiprintf_r+0x212>
   147ea: c2 77        	ld	a5, 0x30(sp)
   147ec: 86 65        	ld	a1, 0x40(sp)
   147ee: f2 e4        	sd	t3, 0x48(sp)
   147f0: b3 8d fd 40  	sub	s11, s11, a5
   147f4: 3e 86        	mv	a2, a5
   147f6: 6e 85        	mv	a0, s11
   147f8: 76 fc        	sd	t4, 0x38(sp)
   147fa: 7a f4        	sd	t5, 0x28(sp)
   147fc: 46 f0        	sd	a7, 0x20(sp)
   147fe: 42 ec        	sd	a6, 0x18(sp)
   14800: ef 00 f0 49  	jal	0x1549e <strncpy>
   14804: 62 68        	ld	a6, 0x18(sp)
   14806: a9 47        	li	a5, 0xa
   14808: b3 d7 fb 02  	divu	a5, s7, a5
   1480c: 03 47 18 00  	lbu	a4, 0x1(a6)
   14810: 82 78        	ld	a7, 0x20(sp)
   14812: 22 7f        	ld	t5, 0x28(sp)
   14814: 33 37 e0 00  	snez	a4, a4
   14818: e2 7e        	ld	t4, 0x38(sp)
   1481a: 26 6e        	ld	t3, 0x48(sp)
   1481c: 3a 98        	add	a6, a6, a4
   1481e: 01 46        	li	a2, 0x0
   14820: a9 46        	li	a3, 0xa
   14822: 25 43        	li	t1, 0x9
   14824: 93 0f f0 0f  	li	t6, 0xff
   14828: ad bd        	j	0x146a2 <_vfiprintf_r+0xa2e>
   1482a: be 8c        	mv	s9, a5
   1482c: 81 47        	li	a5, 0x0
   1482e: e3 88 07 9a  	beqz	a5, 0x141de <_vfiprintf_r+0x56a>
   14832: 89 b1        	j	0x14474 <_vfiprintf_r+0x800>
   14834: ef c0 1f c1  	jal	0x11444 <__sinit>
   14838: 6f f0 af c5  	j	0x13c92 <_vfiprintf_r+0x1e>
   1483c: 93 ec 0c 20  	ori	s9, s9, 0x200
   14840: 83 47 1d 00  	lbu	a5, 0x1(s10)
   14844: 81 2c        	sext.w	s9, s9
   14846: 05 0d        	addi	s10, s10, 0x1
   14848: 6f f0 0f d3  	j	0x13d78 <_vfiprintf_r+0x104>
   1484c: 93 ec 0c 02  	ori	s9, s9, 0x20
   14850: 83 47 1d 00  	lbu	a5, 0x1(s10)
   14854: 81 2c        	sext.w	s9, s9
   14856: 05 0d        	addi	s10, s10, 0x1
   14858: 6f f0 0f d2  	j	0x13d78 <_vfiprintf_r+0x104>
   1485c: 99 47        	li	a5, 0x6
   1485e: 1b 8e 04 00  	sext.w	t3, s1
   14862: 63 ec 97 04  	bltu	a5, s1, 0x148ba <_vfiprintf_r+0xc46>
   14866: b7 0d 02 00  	lui	s11, 0x20
   1486a: 72 83        	mv	t1, t3
   1486c: 93 8d 8d be  	addi	s11, s11, -0x418
   14870: 6f f0 cf dd  	j	0x13e4c <_vfiprintf_r+0x1d8>
   14874: 13 f6 0c 20  	andi	a2, s9, 0x200
   14878: 3d c6        	beqz	a2, 0x148e6 <_vfiprintf_r+0xc72>
   1487a: 13 77 f7 0f  	andi	a4, a4, 0xff
   1487e: f5 bd        	j	0x1477a <_vfiprintf_r+0xb06>
   14880: 13 f6 07 20  	andi	a2, a5, 0x200
   14884: 31 ce        	beqz	a2, 0x148e0 <_vfiprintf_r+0xc6c>
   14886: 13 77 f7 0f  	andi	a4, a4, 0xff
   1488a: 75 b8        	j	0x14146 <_vfiprintf_r+0x4d2>
   1488c: 93 f7 0c 20  	andi	a5, s9, 0x200
   14890: a9 c7        	beqz	a5, 0x148da <_vfiprintf_r+0xc66>
   14892: 9b 9b 8b 01  	slliw	s7, s7, 0x18
   14896: 9b db 8b 41  	sraiw	s7, s7, 0x18
   1489a: de 87        	mv	a5, s7
   1489c: 6f f0 ef eb  	j	0x13f5a <_vfiprintf_r+0x2e6>
   148a0: 93 77 0e 20  	andi	a5, t3, 0x200
   148a4: 9d c7        	beqz	a5, 0x148d2 <_vfiprintf_r+0xc5e>
   148a6: 93 fb fb 0f  	andi	s7, s7, 0xff
   148aa: 29 b2        	j	0x141b4 <_vfiprintf_r+0x540>
   148ac: 01 47        	li	a4, 0x0
   148ae: d9 b6        	j	0x14474 <_vfiprintf_r+0x800>
   148b0: 85 45        	li	a1, 0x1
   148b2: 81 46        	li	a3, 0x0
   148b4: 4e 84        	mv	s0, s3
   148b6: 6f f0 0f e2  	j	0x13ed6 <_vfiprintf_r+0x262>
   148ba: 19 4e        	li	t3, 0x6
   148bc: 6d b7        	j	0x14866 <_vfiprintf_r+0xbf2>
   148be: 81 46        	li	a3, 0x0
   148c0: 85 45        	li	a1, 0x1
   148c2: 4e 84        	mv	s0, s3
   148c4: 6f f0 8f dc  	j	0x13e8c <_vfiprintf_r+0x218>
   148c8: 23 10 87 01  	sh	s8, 0x0(a4)
   148cc: a1 0b        	addi	s7, s7, 0x8
   148ce: 6f f0 af c3  	j	0x13d08 <_vfiprintf_r+0x94>
   148d2: 82 1b        	slli	s7, s7, 0x20
   148d4: 93 db 0b 02  	srli	s7, s7, 0x20
   148d8: f1 b8        	j	0x141b4 <_vfiprintf_r+0x540>
   148da: de 87        	mv	a5, s7
   148dc: 6f f0 ef e7  	j	0x13f5a <_vfiprintf_r+0x2e6>
   148e0: 02 17        	slli	a4, a4, 0x20
   148e2: 01 93        	srli	a4, a4, 0x20
   148e4: 8d b0        	j	0x14146 <_vfiprintf_r+0x4d2>
   148e6: 02 17        	slli	a4, a4, 0x20
   148e8: 01 93        	srli	a4, a4, 0x20
   148ea: 41 bd        	j	0x1477a <_vfiprintf_r+0xb06>
   148ec: 90 18        	addi	a2, sp, 0x70
   148ee: d2 85        	mv	a1, s4
   148f0: 56 85        	mv	a0, s5
   148f2: ef f0 2f ab  	jal	0x13ba4 <__sprint_r.part.0>
   148f6: 6f f0 2f ce  	j	0x13dd8 <_vfiprintf_r+0x164>
   148fa: b7 0e 02 00  	lui	t4, 0x20
   148fe: 93 8e 0e ff  	addi	t4, t4, -0x10
   14902: 0d b1        	j	0x14524 <_vfiprintf_r+0x8b0>
   14904: f6 8b        	mv	s7, t4
   14906: 93 07 00 03  	li	a5, 0x30
   1490a: 6f f0 ef ed  	j	0x13fe8 <_vfiprintf_r+0x374>
   1490e: b7 0e 02 00  	lui	t4, 0x20
   14912: 1b 87 16 00  	addiw	a4, a3, 0x1
   14916: 93 8e 0e ff  	addi	t4, t4, -0x10
   1491a: 7d b1        	j	0x145c8 <_vfiprintf_r+0x954>
   1491c: b7 0e 02 00  	lui	t4, 0x20
   14920: 2e 86        	mv	a2, a1
   14922: 93 8e 0e fe  	addi	t4, t4, -0x20
   14926: 19 bc        	j	0x1433c <_vfiprintf_r+0x6c8>
   14928: 7d 5c        	li	s8, -0x1
   1492a: 6f f0 8f cc  	j	0x13df2 <_vfiprintf_r+0x17e>
   1492e: 23 20 87 01  	sw	s8, 0x0(a4)
   14932: a1 0b        	addi	s7, s7, 0x8
   14934: 6f f0 4f bd  	j	0x13d08 <_vfiprintf_r+0x94>
   14938: 83 a7 0b 00  	lw	a5, 0x0(s7)
   1493c: a1 0b        	addi	s7, s7, 0x8
   1493e: 9b 84 07 00  	sext.w	s1, a5
   14942: 63 d3 07 00  	bgez	a5, 0x14948 <_vfiprintf_r+0xcd4>
   14946: fd 54        	li	s1, -0x1
   14948: 83 47 1d 00  	lbu	a5, 0x1(s10)
   1494c: 36 8d        	mv	s10, a3
   1494e: 6f f0 af c2  	j	0x13d78 <_vfiprintf_r+0x104>

0000000000014952 <vfiprintf>:
   14952: aa 87        	mv	a5, a0
   14954: 03 b5 81 88  	ld	a0, -0x778(gp)
   14958: b2 86        	mv	a3, a2
   1495a: 2e 86        	mv	a2, a1
   1495c: be 85        	mv	a1, a5
   1495e: 6f f0 6f b1  	j	0x13c74 <_vfiprintf_r>

0000000000014962 <__sbprintf>:
   14962: 13 01 01 b3  	addi	sp, sp, -0x4d0
   14966: 03 d7 25 01  	lhu	a4, 0x12(a1)
   1496a: 83 d7 05 01  	lhu	a5, 0x10(a1)
   1496e: 23 30 81 4c  	sd	s0, 0x4c0(sp)
   14972: 2e 84        	mv	s0, a1
   14974: c1 65        	lui	a1, 0x10
   14976: f5 35        	addiw	a1, a1, -0x3
   14978: 03 2e c4 0a  	lw	t3, 0xac(s0)
   1497c: 03 33 04 03  	ld	t1, 0x30(s0)
   14980: 83 38 04 04  	ld	a7, 0x40(s0)
   14984: 1b 17 07 01  	slliw	a4, a4, 0x10
   14988: ed 8f        	and	a5, a5, a1
   1498a: d9 8f        	or	a5, a5, a4
   1498c: 13 08 00 40  	li	a6, 0x400
   14990: 3e c8        	sw	a5, 0x10(sp)
   14992: 8a 85        	mv	a1, sp
   14994: 1c 19        	addi	a5, sp, 0xb0
   14996: 23 3c 91 4a  	sd	s1, 0x4b8(sp)
   1499a: 23 38 21 4b  	sd	s2, 0x4b0(sp)
   1499e: 23 34 11 4c  	sd	ra, 0x4c8(sp)
   149a2: 2a 89        	mv	s2, a0
   149a4: 72 d7        	sw	t3, 0xac(sp)
   149a6: 1a f8        	sd	t1, 0x30(sp)
   149a8: c6 e0        	sd	a7, 0x40(sp)
   149aa: 3e e0        	sd	a5, 0x0(sp)
   149ac: 3e ec        	sd	a5, 0x18(sp)
   149ae: 42 c6        	sw	a6, 0xc(sp)
   149b0: 42 d0        	sw	a6, 0x20(sp)
   149b2: 02 d4        	sw	zero, 0x28(sp)
   149b4: ef f0 0f ac  	jal	0x13c74 <_vfiprintf_r>
   149b8: aa 84        	mv	s1, a0
   149ba: 63 59 05 02  	bgez	a0, 0x149ec <__sbprintf+0x8a>
   149be: 83 57 01 01  	lhu	a5, 0x10(sp)
   149c2: 93 f7 07 04  	andi	a5, a5, 0x40
   149c6: 99 c7        	beqz	a5, 0x149d4 <__sbprintf+0x72>
   149c8: 83 57 04 01  	lhu	a5, 0x10(s0)
   149cc: 93 e7 07 04  	ori	a5, a5, 0x40
   149d0: 23 18 f4 00  	sh	a5, 0x10(s0)
   149d4: 83 30 81 4c  	ld	ra, 0x4c8(sp)
   149d8: 03 34 01 4c  	ld	s0, 0x4c0(sp)
   149dc: 03 39 01 4b  	ld	s2, 0x4b0(sp)
   149e0: 26 85        	mv	a0, s1
   149e2: 83 34 81 4b  	ld	s1, 0x4b8(sp)
   149e6: 13 01 01 4d  	addi	sp, sp, 0x4d0
   149ea: 82 80        	ret
   149ec: 8a 85        	mv	a1, sp
   149ee: 4a 85        	mv	a0, s2
   149f0: ef 00 20 25  	jal	0x14c42 <_fflush_r>
   149f4: 69 d5        	beqz	a0, 0x149be <__sbprintf+0x5c>
   149f6: fd 54        	li	s1, -0x1
   149f8: d9 b7        	j	0x149be <__sbprintf+0x5c>

00000000000149fa <_fclose_r>:
   149fa: 01 11        	addi	sp, sp, -0x20
   149fc: 06 ec        	sd	ra, 0x18(sp)
   149fe: 4a e0        	sd	s2, 0x0(sp)
   14a00: 89 cd        	beqz	a1, 0x14a1a <_fclose_r+0x20>
   14a02: 22 e8        	sd	s0, 0x10(sp)
   14a04: 26 e4        	sd	s1, 0x8(sp)
   14a06: 2e 84        	mv	s0, a1
   14a08: aa 84        	mv	s1, a0
   14a0a: 19 c1        	beqz	a0, 0x14a10 <_fclose_r+0x16>
   14a0c: 3c 65        	ld	a5, 0x48(a0)
   14a0e: d9 c7        	beqz	a5, 0x14a9c <_fclose_r+0xa2>
   14a10: 83 17 04 01  	lh	a5, 0x10(s0)
   14a14: 89 eb        	bnez	a5, 0x14a26 <_fclose_r+0x2c>
   14a16: 42 64        	ld	s0, 0x10(sp)
   14a18: a2 64        	ld	s1, 0x8(sp)
   14a1a: e2 60        	ld	ra, 0x18(sp)
   14a1c: 01 49        	li	s2, 0x0
   14a1e: 4a 85        	mv	a0, s2
   14a20: 02 69        	ld	s2, 0x0(sp)
   14a22: 05 61        	addi	sp, sp, 0x20
   14a24: 82 80        	ret
   14a26: a2 85        	mv	a1, s0
   14a28: 26 85        	mv	a0, s1
   14a2a: ef 00 00 08  	jal	0x14aaa <__sflush_r>
   14a2e: 3c 68        	ld	a5, 0x50(s0)
   14a30: 2a 89        	mv	s2, a0
   14a32: 91 c7        	beqz	a5, 0x14a3e <_fclose_r+0x44>
   14a34: 0c 78        	ld	a1, 0x30(s0)
   14a36: 26 85        	mv	a0, s1
   14a38: 82 97        	jalr	a5
   14a3a: 63 46 05 04  	bltz	a0, 0x14a86 <_fclose_r+0x8c>
   14a3e: 83 57 04 01  	lhu	a5, 0x10(s0)
   14a42: 93 f7 07 08  	andi	a5, a5, 0x80
   14a46: b1 e7        	bnez	a5, 0x14a92 <_fclose_r+0x98>
   14a48: 2c 6c        	ld	a1, 0x58(s0)
   14a4a: 91 c9        	beqz	a1, 0x14a5e <_fclose_r+0x64>
   14a4c: 93 07 44 07  	addi	a5, s0, 0x74
   14a50: 63 85 f5 00  	beq	a1, a5, 0x14a5a <_fclose_r+0x60>
   14a54: 26 85        	mv	a0, s1
   14a56: ef d0 cf ae  	jal	0x11d42 <_free_r>
   14a5a: 23 3c 04 04  	sd	zero, 0x58(s0)
   14a5e: 2c 7c        	ld	a1, 0x78(s0)
   14a60: 91 c5        	beqz	a1, 0x14a6c <_fclose_r+0x72>
   14a62: 26 85        	mv	a0, s1
   14a64: ef d0 ef ad  	jal	0x11d42 <_free_r>
   14a68: 23 3c 04 06  	sd	zero, 0x78(s0)
   14a6c: ef c0 ff 9e  	jal	0x1145a <__sfp_lock_acquire>
   14a70: 23 18 04 00  	sh	zero, 0x10(s0)
   14a74: ef c0 9f 9e  	jal	0x1145c <__sfp_lock_release>
   14a78: e2 60        	ld	ra, 0x18(sp)
   14a7a: 42 64        	ld	s0, 0x10(sp)
   14a7c: a2 64        	ld	s1, 0x8(sp)
   14a7e: 4a 85        	mv	a0, s2
   14a80: 02 69        	ld	s2, 0x0(sp)
   14a82: 05 61        	addi	sp, sp, 0x20
   14a84: 82 80        	ret
   14a86: 83 57 04 01  	lhu	a5, 0x10(s0)
   14a8a: 7d 59        	li	s2, -0x1
   14a8c: 93 f7 07 08  	andi	a5, a5, 0x80
   14a90: c5 df        	beqz	a5, 0x14a48 <_fclose_r+0x4e>
   14a92: 0c 6c        	ld	a1, 0x18(s0)
   14a94: 26 85        	mv	a0, s1
   14a96: ef d0 cf aa  	jal	0x11d42 <_free_r>
   14a9a: 7d b7        	j	0x14a48 <_fclose_r+0x4e>
   14a9c: ef c0 9f 9a  	jal	0x11444 <__sinit>
   14aa0: 85 bf        	j	0x14a10 <_fclose_r+0x16>

0000000000014aa2 <fclose>:
   14aa2: aa 85        	mv	a1, a0
   14aa4: 03 b5 81 88  	ld	a0, -0x778(gp)
   14aa8: 89 bf        	j	0x149fa <_fclose_r>

0000000000014aaa <__sflush_r>:
   14aaa: 03 97 05 01  	lh	a4, 0x10(a1)
   14aae: 79 71        	addi	sp, sp, -0x30
   14ab0: 22 f0        	sd	s0, 0x20(sp)
   14ab2: 4e e4        	sd	s3, 0x8(sp)
   14ab4: 06 f4        	sd	ra, 0x28(sp)
   14ab6: 93 77 87 00  	andi	a5, a4, 0x8
   14aba: 2e 84        	mv	s0, a1
   14abc: aa 89        	mv	s3, a0
   14abe: f1 e7        	bnez	a5, 0x14b8a <__sflush_r+0xe0>
   14ac0: 85 67        	lui	a5, 0x1
   14ac2: 93 87 07 80  	addi	a5, a5, -0x800
   14ac6: 94 45        	lw	a3, 0x8(a1)
   14ac8: d9 8f        	or	a5, a5, a4
   14aca: 23 98 f5 00  	sh	a5, 0x10(a1)
   14ace: 63 57 d0 10  	blez	a3, 0x14bdc <__sflush_r+0x132>
   14ad2: 03 38 84 04  	ld	a6, 0x48(s0)
   14ad6: 63 04 08 0a  	beqz	a6, 0x14b7e <__sflush_r+0xd4>
   14ada: 26 ec        	sd	s1, 0x18(sp)
   14adc: 93 16 37 03  	slli	a3, a4, 0x33
   14ae0: 83 a4 09 00  	lw	s1, 0x0(s3)
   14ae4: 23 a0 09 00  	sw	zero, 0x0(s3)
   14ae8: 0c 78        	ld	a1, 0x30(s0)
   14aea: 63 c0 06 10  	bltz	a3, 0x14bea <__sflush_r+0x140>
   14aee: 01 46        	li	a2, 0x0
   14af0: 85 46        	li	a3, 0x1
   14af2: 4e 85        	mv	a0, s3
   14af4: 02 98        	jalr	a6
   14af6: fd 57        	li	a5, -0x1
   14af8: 2a 86        	mv	a2, a0
   14afa: 63 01 f5 12  	beq	a0, a5, 0x14c1c <__sflush_r+0x172>
   14afe: 83 17 04 01  	lh	a5, 0x10(s0)
   14b02: 03 38 84 04  	ld	a6, 0x48(s0)
   14b06: 0c 78        	ld	a1, 0x30(s0)
   14b08: 91 8b        	andi	a5, a5, 0x4
   14b0a: 99 c7        	beqz	a5, 0x14b18 <__sflush_r+0x6e>
   14b0c: 18 44        	lw	a4, 0x8(s0)
   14b0e: 3c 6c        	ld	a5, 0x58(s0)
   14b10: 19 8e        	sub	a2, a2, a4
   14b12: 99 c3        	beqz	a5, 0x14b18 <__sflush_r+0x6e>
   14b14: 3c 58        	lw	a5, 0x70(s0)
   14b16: 1d 8e        	sub	a2, a2, a5
   14b18: 81 46        	li	a3, 0x0
   14b1a: 4e 85        	mv	a0, s3
   14b1c: 02 98        	jalr	a6
   14b1e: fd 57        	li	a5, -0x1
   14b20: 63 17 f5 0c  	bne	a0, a5, 0x14bee <__sflush_r+0x144>
   14b24: 83 a6 09 00  	lw	a3, 0x0(s3)
   14b28: f5 47        	li	a5, 0x1d
   14b2a: 03 17 04 01  	lh	a4, 0x10(s0)
   14b2e: 1b 86 06 00  	sext.w	a2, a3
   14b32: 63 e1 d7 10  	bltu	a5, a3, 0x14c34 <__sflush_r+0x18a>
   14b36: b7 07 40 20  	lui	a5, 0x20400
   14b3a: 85 07        	addi	a5, a5, 0x1
   14b3c: b3 d7 c7 00  	srl	a5, a5, a2
   14b40: 85 8b        	andi	a5, a5, 0x1
   14b42: ed cb        	beqz	a5, 0x14c34 <__sflush_r+0x18a>
   14b44: 10 6c        	ld	a2, 0x18(s0)
   14b46: fd 77        	lui	a5, 0xfffff
   14b48: 93 87 f7 7f  	addi	a5, a5, 0x7ff
   14b4c: f9 8f        	and	a5, a5, a4
   14b4e: 23 18 f4 00  	sh	a5, 0x10(s0)
   14b52: 23 24 04 00  	sw	zero, 0x8(s0)
   14b56: 10 e0        	sd	a2, 0x0(s0)
   14b58: 93 17 37 03  	slli	a5, a4, 0x33
   14b5c: 63 d3 07 00  	bgez	a5, 0x14b62 <__sflush_r+0xb8>
   14b60: dd c6        	beqz	a3, 0x14c0e <__sflush_r+0x164>
   14b62: 2c 6c        	ld	a1, 0x58(s0)
   14b64: 23 a0 99 00  	sw	s1, 0x0(s3)
   14b68: c5 c9        	beqz	a1, 0x14c18 <__sflush_r+0x16e>
   14b6a: 93 07 44 07  	addi	a5, s0, 0x74
   14b6e: 63 85 f5 00  	beq	a1, a5, 0x14b78 <__sflush_r+0xce>
   14b72: 4e 85        	mv	a0, s3
   14b74: ef d0 ef 9c  	jal	0x11d42 <_free_r>
   14b78: e2 64        	ld	s1, 0x18(sp)
   14b7a: 23 3c 04 04  	sd	zero, 0x58(s0)
   14b7e: 01 45        	li	a0, 0x0
   14b80: a2 70        	ld	ra, 0x28(sp)
   14b82: 02 74        	ld	s0, 0x20(sp)
   14b84: a2 69        	ld	s3, 0x8(sp)
   14b86: 45 61        	addi	sp, sp, 0x30
   14b88: 82 80        	ret
   14b8a: 4a e8        	sd	s2, 0x10(sp)
   14b8c: 03 b9 85 01  	ld	s2, 0x18(a1)
   14b90: 63 0b 09 04  	beqz	s2, 0x14be6 <__sflush_r+0x13c>
   14b94: 26 ec        	sd	s1, 0x18(sp)
   14b96: 84 61        	ld	s1, 0x0(a1)
   14b98: 0d 8b        	andi	a4, a4, 0x3
   14b9a: 23 b0 25 01  	sd	s2, 0x0(a1)
   14b9e: bb 84 24 41  	subw	s1, s1, s2
   14ba2: 81 47        	li	a5, 0x0
   14ba4: 11 e3        	bnez	a4, 0x14ba8 <__sflush_r+0xfe>
   14ba6: 9c 51        	lw	a5, 0x20(a1)
   14ba8: 5c c4        	sw	a5, 0xc(s0)
   14baa: 63 46 90 00  	bgtz	s1, 0x14bb6 <__sflush_r+0x10c>
   14bae: 1d a8        	j	0x14be4 <__sflush_r+0x13a>
   14bb0: 2a 99        	add	s2, s2, a0
   14bb2: 63 59 90 02  	blez	s1, 0x14be4 <__sflush_r+0x13a>
   14bb6: 3c 60        	ld	a5, 0x40(s0)
   14bb8: 0c 78        	ld	a1, 0x30(s0)
   14bba: a6 86        	mv	a3, s1
   14bbc: 4a 86        	mv	a2, s2
   14bbe: 4e 85        	mv	a0, s3
   14bc0: 82 97        	jalr	a5
   14bc2: 89 9c        	subw	s1, s1, a0
   14bc4: e3 46 a0 fe  	bgtz	a0, 0x14bb0 <__sflush_r+0x106>
   14bc8: 03 17 04 01  	lh	a4, 0x10(s0)
   14bcc: 42 69        	ld	s2, 0x10(sp)
   14bce: 13 67 07 04  	ori	a4, a4, 0x40
   14bd2: e2 64        	ld	s1, 0x18(sp)
   14bd4: 23 18 e4 00  	sh	a4, 0x10(s0)
   14bd8: 7d 55        	li	a0, -0x1
   14bda: 5d b7        	j	0x14b80 <__sflush_r+0xd6>
   14bdc: b4 59        	lw	a3, 0x70(a1)
   14bde: e3 4a d0 ee  	bgtz	a3, 0x14ad2 <__sflush_r+0x28>
   14be2: 71 bf        	j	0x14b7e <__sflush_r+0xd4>
   14be4: e2 64        	ld	s1, 0x18(sp)
   14be6: 42 69        	ld	s2, 0x10(sp)
   14be8: 59 bf        	j	0x14b7e <__sflush_r+0xd4>
   14bea: 50 68        	ld	a2, 0x90(s0)
   14bec: 31 bf        	j	0x14b08 <__sflush_r+0x5e>
   14bee: 03 17 04 01  	lh	a4, 0x10(s0)
   14bf2: 14 6c        	ld	a3, 0x18(s0)
   14bf4: fd 77        	lui	a5, 0xfffff
   14bf6: 93 87 f7 7f  	addi	a5, a5, 0x7ff
   14bfa: f9 8f        	and	a5, a5, a4
   14bfc: 23 18 f4 00  	sh	a5, 0x10(s0)
   14c00: 23 24 04 00  	sw	zero, 0x8(s0)
   14c04: 14 e0        	sd	a3, 0x0(s0)
   14c06: 93 17 37 03  	slli	a5, a4, 0x33
   14c0a: e3 dc 07 f4  	bgez	a5, 0x14b62 <__sflush_r+0xb8>
   14c0e: 2c 6c        	ld	a1, 0x58(s0)
   14c10: 48 e8        	sd	a0, 0x90(s0)
   14c12: 23 a0 99 00  	sw	s1, 0x0(s3)
   14c16: b1 f9        	bnez	a1, 0x14b6a <__sflush_r+0xc0>
   14c18: e2 64        	ld	s1, 0x18(sp)
   14c1a: 95 b7        	j	0x14b7e <__sflush_r+0xd4>
   14c1c: 83 a7 09 00  	lw	a5, 0x0(s3)
   14c20: e3 8f 07 ec  	beqz	a5, 0x14afe <__sflush_r+0x54>
   14c24: 75 47        	li	a4, 0x1d
   14c26: 63 8a e7 00  	beq	a5, a4, 0x14c3a <__sflush_r+0x190>
   14c2a: 59 47        	li	a4, 0x16
   14c2c: 63 87 e7 00  	beq	a5, a4, 0x14c3a <__sflush_r+0x190>
   14c30: 03 17 04 01  	lh	a4, 0x10(s0)
   14c34: 13 67 07 04  	ori	a4, a4, 0x40
   14c38: 69 bf        	j	0x14bd2 <__sflush_r+0x128>
   14c3a: 23 a0 99 00  	sw	s1, 0x0(s3)
   14c3e: e2 64        	ld	s1, 0x18(sp)
   14c40: 3d bf        	j	0x14b7e <__sflush_r+0xd4>

0000000000014c42 <_fflush_r>:
   14c42: 01 11        	addi	sp, sp, -0x20
   14c44: 22 e8        	sd	s0, 0x10(sp)
   14c46: 06 ec        	sd	ra, 0x18(sp)
   14c48: 2a 84        	mv	s0, a0
   14c4a: 19 c1        	beqz	a0, 0x14c50 <_fflush_r+0xe>
   14c4c: 3c 65        	ld	a5, 0x48(a0)
   14c4e: 91 cf        	beqz	a5, 0x14c6a <_fflush_r+0x28>
   14c50: 83 97 05 01  	lh	a5, 0x10(a1)
   14c54: 91 e7        	bnez	a5, 0x14c60 <_fflush_r+0x1e>
   14c56: e2 60        	ld	ra, 0x18(sp)
   14c58: 42 64        	ld	s0, 0x10(sp)
   14c5a: 01 45        	li	a0, 0x0
   14c5c: 05 61        	addi	sp, sp, 0x20
   14c5e: 82 80        	ret
   14c60: 22 85        	mv	a0, s0
   14c62: 42 64        	ld	s0, 0x10(sp)
   14c64: e2 60        	ld	ra, 0x18(sp)
   14c66: 05 61        	addi	sp, sp, 0x20
   14c68: 89 b5        	j	0x14aaa <__sflush_r>
   14c6a: 2e e4        	sd	a1, 0x8(sp)
   14c6c: ef c0 8f fd  	jal	0x11444 <__sinit>
   14c70: a2 65        	ld	a1, 0x8(sp)
   14c72: f9 bf        	j	0x14c50 <_fflush_r+0xe>

0000000000014c74 <fflush>:
   14c74: 05 cd        	beqz	a0, 0x14cac <fflush+0x38>
   14c76: aa 85        	mv	a1, a0
   14c78: 03 b5 81 88  	ld	a0, -0x778(gp)
   14c7c: 19 c1        	beqz	a0, 0x14c82 <fflush+0xe>
   14c7e: 3c 65        	ld	a5, 0x48(a0)
   14c80: 99 c7        	beqz	a5, 0x14c8e <fflush+0x1a>
   14c82: 83 97 05 01  	lh	a5, 0x10(a1)
   14c86: 99 e3        	bnez	a5, 0x14c8c <fflush+0x18>
   14c88: 01 45        	li	a0, 0x0
   14c8a: 82 80        	ret
   14c8c: 39 bd        	j	0x14aaa <__sflush_r>
   14c8e: 01 11        	addi	sp, sp, -0x20
   14c90: 2e e4        	sd	a1, 0x8(sp)
   14c92: 2a e0        	sd	a0, 0x0(sp)
   14c94: 06 ec        	sd	ra, 0x18(sp)
   14c96: ef c0 ef fa  	jal	0x11444 <__sinit>
   14c9a: a2 65        	ld	a1, 0x8(sp)
   14c9c: 02 65        	ld	a0, 0x0(sp)
   14c9e: 83 97 05 01  	lh	a5, 0x10(a1)
   14ca2: 95 e3        	bnez	a5, 0x14cc6 <fflush+0x52>
   14ca4: e2 60        	ld	ra, 0x18(sp)
   14ca6: 01 45        	li	a0, 0x0
   14ca8: 05 61        	addi	sp, sp, 0x20
   14caa: 82 80        	ret
   14cac: 37 26 02 00  	lui	a2, 0x22
   14cb0: d5 65        	lui	a1, 0x15
   14cb2: 37 25 02 00  	lui	a0, 0x22
   14cb6: 13 06 86 dc  	addi	a2, a2, -0x238
   14cba: 93 85 25 c4  	addi	a1, a1, -0x3be
   14cbe: 13 05 05 de  	addi	a0, a0, -0x220
   14cc2: 6f c0 0f fc  	j	0x11482 <_fwalk_sglue>
   14cc6: e2 60        	ld	ra, 0x18(sp)
   14cc8: 05 61        	addi	sp, sp, 0x20
   14cca: c5 b3        	j	0x14aaa <__sflush_r>

0000000000014ccc <__sfvwrite_r>:
   14ccc: 1c 6a        	ld	a5, 0x10(a2)
   14cce: 63 8b 07 1c  	beqz	a5, 0x14ea4 <__sfvwrite_r+0x1d8>
   14cd2: 03 97 05 01  	lh	a4, 0x10(a1)
   14cd6: 1d 71        	addi	sp, sp, -0x60
   14cd8: a2 e8        	sd	s0, 0x50(sp)
   14cda: 56 f4        	sd	s5, 0x28(sp)
   14cdc: 5e ec        	sd	s7, 0x18(sp)
   14cde: 86 ec        	sd	ra, 0x58(sp)
   14ce0: 93 77 87 00  	andi	a5, a4, 0x8
   14ce4: b2 8b        	mv	s7, a2
   14ce6: aa 8a        	mv	s5, a0
   14ce8: 2e 84        	mv	s0, a1
   14cea: b5 c7        	beqz	a5, 0x14d56 <__sfvwrite_r+0x8a>
   14cec: 9c 6d        	ld	a5, 0x18(a1)
   14cee: a5 c7        	beqz	a5, 0x14d56 <__sfvwrite_r+0x8a>
   14cf0: a6 e4        	sd	s1, 0x48(sp)
   14cf2: ca e0        	sd	s2, 0x40(sp)
   14cf4: 4e fc        	sd	s3, 0x38(sp)
   14cf6: 52 f8        	sd	s4, 0x30(sp)
   14cf8: 93 77 27 00  	andi	a5, a4, 0x2
   14cfc: 83 b4 0b 00  	ld	s1, 0x0(s7)
   14d00: a5 cf        	beqz	a5, 0x14d78 <__sfvwrite_r+0xac>
   14d02: 3c 60        	ld	a5, 0x40(s0)
   14d04: 0c 78        	ld	a1, 0x30(s0)
   14d06: 37 0a 00 80  	lui	s4, 0x80000
   14d0a: 81 49        	li	s3, 0x0
   14d0c: 01 49        	li	s2, 0x0
   14d0e: 13 4a 0a c0  	xori	s4, s4, -0x400
   14d12: 4e 86        	mv	a2, s3
   14d14: 56 85        	mv	a0, s5
   14d16: 63 0a 09 02  	beqz	s2, 0x14d4a <__sfvwrite_r+0x7e>
   14d1a: ca 86        	mv	a3, s2
   14d1c: 63 73 2a 01  	bgeu	s4, s2, 0x14d22 <__sfvwrite_r+0x56>
   14d20: d2 86        	mv	a3, s4
   14d22: 81 26        	sext.w	a3, a3
   14d24: 82 97        	jalr	a5
   14d26: 63 58 a0 2e  	blez	a0, 0x15016 <__sfvwrite_r+0x34a>
   14d2a: 83 b7 0b 01  	ld	a5, 0x10(s7)
   14d2e: aa 99        	add	s3, s3, a0
   14d30: 33 09 a9 40  	sub	s2, s2, a0
   14d34: 89 8f        	sub	a5, a5, a0
   14d36: 23 b8 fb 00  	sd	a5, 0x10(s7)
   14d3a: 63 81 07 12  	beqz	a5, 0x14e5c <__sfvwrite_r+0x190>
   14d3e: 3c 60        	ld	a5, 0x40(s0)
   14d40: 0c 78        	ld	a1, 0x30(s0)
   14d42: 4e 86        	mv	a2, s3
   14d44: 56 85        	mv	a0, s5
   14d46: e3 1a 09 fc  	bnez	s2, 0x14d1a <__sfvwrite_r+0x4e>
   14d4a: 83 b9 04 00  	ld	s3, 0x0(s1)
   14d4e: 03 b9 84 00  	ld	s2, 0x8(s1)
   14d52: c1 04        	addi	s1, s1, 0x10
   14d54: 7d bf        	j	0x14d12 <__sfvwrite_r+0x46>
   14d56: a2 85        	mv	a1, s0
   14d58: 56 85        	mv	a0, s5
   14d5a: ef 00 60 4a  	jal	0x15200 <__swsetup_r>
   14d5e: 63 1c 05 12  	bnez	a0, 0x14e96 <__sfvwrite_r+0x1ca>
   14d62: 03 17 04 01  	lh	a4, 0x10(s0)
   14d66: a6 e4        	sd	s1, 0x48(sp)
   14d68: ca e0        	sd	s2, 0x40(sp)
   14d6a: 4e fc        	sd	s3, 0x38(sp)
   14d6c: 52 f8        	sd	s4, 0x30(sp)
   14d6e: 93 77 27 00  	andi	a5, a4, 0x2
   14d72: 83 b4 0b 00  	ld	s1, 0x0(s7)
   14d76: d1 f7        	bnez	a5, 0x14d02 <__sfvwrite_r+0x36>
   14d78: 5a f0        	sd	s6, 0x20(sp)
   14d7a: 62 e8        	sd	s8, 0x10(sp)
   14d7c: 66 e4        	sd	s9, 0x8(sp)
   14d7e: 93 77 17 00  	andi	a5, a4, 0x1
   14d82: ad eb        	bnez	a5, 0x14df4 <__sfvwrite_r+0x128>
   14d84: 03 2a c4 00  	lw	s4, 0xc(s0)
   14d88: 1c 60        	ld	a5, 0x0(s0)
   14d8a: 37 0b 00 80  	lui	s6, 0x80000
   14d8e: 01 4c        	li	s8, 0x0
   14d90: 01 49        	li	s2, 0x0
   14d92: 13 4b fb ff  	not	s6, s6
   14d96: 3e 85        	mv	a0, a5
   14d98: 63 08 09 04  	beqz	s2, 0x14de8 <__sfvwrite_r+0x11c>
   14d9c: 93 76 07 20  	andi	a3, a4, 0x200
   14da0: 63 86 06 14  	beqz	a3, 0x14eec <__sfvwrite_r+0x220>
   14da4: 63 75 49 1b  	bgeu	s2, s4, 0x14f4e <__sfvwrite_r+0x282>
   14da8: ca 8c        	mv	s9, s2
   14daa: 4a 8a        	mv	s4, s2
   14dac: 52 86        	mv	a2, s4
   14dae: e2 85        	mv	a1, s8
   14db0: ef c0 1f b5  	jal	0x11900 <memmove>
   14db4: 58 44        	lw	a4, 0xc(s0)
   14db6: 1c 60        	ld	a5, 0x0(s0)
   14db8: ca 89        	mv	s3, s2
   14dba: 3b 07 97 41  	subw	a4, a4, s9
   14dbe: 3e 9a        	add	s4, s4, a5
   14dc0: 58 c4        	sw	a4, 0xc(s0)
   14dc2: 23 30 44 01  	sd	s4, 0x0(s0)
   14dc6: 01 49        	li	s2, 0x0
   14dc8: 83 b7 0b 01  	ld	a5, 0x10(s7)
   14dcc: 4e 9c        	add	s8, s8, s3
   14dce: b3 87 37 41  	sub	a5, a5, s3
   14dd2: 23 b8 fb 00  	sd	a5, 0x10(s7)
   14dd6: c1 c3        	beqz	a5, 0x14e56 <__sfvwrite_r+0x18a>
   14dd8: 1c 60        	ld	a5, 0x0(s0)
   14dda: 03 17 04 01  	lh	a4, 0x10(s0)
   14dde: 03 2a c4 00  	lw	s4, 0xc(s0)
   14de2: 3e 85        	mv	a0, a5
   14de4: e3 1c 09 fa  	bnez	s2, 0x14d9c <__sfvwrite_r+0xd0>
   14de8: 03 bc 04 00  	ld	s8, 0x0(s1)
   14dec: 03 b9 84 00  	ld	s2, 0x8(s1)
   14df0: c1 04        	addi	s1, s1, 0x10
   14df2: 55 b7        	j	0x14d96 <__sfvwrite_r+0xca>
   14df4: 01 4b        	li	s6, 0x0
   14df6: 01 45        	li	a0, 0x0
   14df8: 81 4c        	li	s9, 0x0
   14dfa: 01 4c        	li	s8, 0x0
   14dfc: 63 06 0c 0a  	beqz	s8, 0x14ea8 <__sfvwrite_r+0x1dc>
   14e00: 45 cd        	beqz	a0, 0x14eb8 <__sfvwrite_r+0x1ec>
   14e02: 5a 8a        	mv	s4, s6
   14e04: 63 73 6c 01  	bgeu	s8, s6, 0x14e0a <__sfvwrite_r+0x13e>
   14e08: 62 8a        	mv	s4, s8
   14e0a: 08 60        	ld	a0, 0x0(s0)
   14e0c: 18 6c        	ld	a4, 0x18(s0)
   14e0e: 5c 44        	lw	a5, 0xc(s0)
   14e10: 14 50        	lw	a3, 0x20(s0)
   14e12: 52 89        	mv	s2, s4
   14e14: 63 76 a7 00  	bgeu	a4, a0, 0x14e20 <__sfvwrite_r+0x154>
   14e18: bb 89 d7 00  	addw	s3, a5, a3
   14e1c: 63 c9 49 0b  	blt	s3, s4, 0x14ece <__sfvwrite_r+0x202>
   14e20: 63 43 da 1a  	blt	s4, a3, 0x14fc6 <__sfvwrite_r+0x2fa>
   14e24: 3c 60        	ld	a5, 0x40(s0)
   14e26: 0c 78        	ld	a1, 0x30(s0)
   14e28: 66 86        	mv	a2, s9
   14e2a: 56 85        	mv	a0, s5
   14e2c: 82 97        	jalr	a5
   14e2e: 2a 89        	mv	s2, a0
   14e30: 63 56 a0 04  	blez	a0, 0x14e7c <__sfvwrite_r+0x1b0>
   14e34: 9b 07 05 00  	sext.w	a5, a0
   14e38: 3b 0b fb 40  	subw	s6, s6, a5
   14e3c: 05 45        	li	a0, 0x1
   14e3e: 63 0a 0b 02  	beqz	s6, 0x14e72 <__sfvwrite_r+0x1a6>
   14e42: 83 b7 0b 01  	ld	a5, 0x10(s7)
   14e46: ca 9c        	add	s9, s9, s2
   14e48: 33 0c 2c 41  	sub	s8, s8, s2
   14e4c: b3 87 27 41  	sub	a5, a5, s2
   14e50: 23 b8 fb 00  	sd	a5, 0x10(s7)
   14e54: c5 f7        	bnez	a5, 0x14dfc <__sfvwrite_r+0x130>
   14e56: 02 7b        	ld	s6, 0x20(sp)
   14e58: 42 6c        	ld	s8, 0x10(sp)
   14e5a: a2 6c        	ld	s9, 0x8(sp)
   14e5c: e6 60        	ld	ra, 0x58(sp)
   14e5e: 46 64        	ld	s0, 0x50(sp)
   14e60: a6 64        	ld	s1, 0x48(sp)
   14e62: 06 69        	ld	s2, 0x40(sp)
   14e64: e2 79        	ld	s3, 0x38(sp)
   14e66: 42 7a        	ld	s4, 0x30(sp)
   14e68: a2 7a        	ld	s5, 0x28(sp)
   14e6a: e2 6b        	ld	s7, 0x18(sp)
   14e6c: 01 45        	li	a0, 0x0
   14e6e: 25 61        	addi	sp, sp, 0x60
   14e70: 82 80        	ret
   14e72: a2 85        	mv	a1, s0
   14e74: 56 85        	mv	a0, s5
   14e76: ef f0 df dc  	jal	0x14c42 <_fflush_r>
   14e7a: 61 d5        	beqz	a0, 0x14e42 <__sfvwrite_r+0x176>
   14e7c: 83 17 04 01  	lh	a5, 0x10(s0)
   14e80: 02 7b        	ld	s6, 0x20(sp)
   14e82: 42 6c        	ld	s8, 0x10(sp)
   14e84: a2 6c        	ld	s9, 0x8(sp)
   14e86: a6 64        	ld	s1, 0x48(sp)
   14e88: 06 69        	ld	s2, 0x40(sp)
   14e8a: e2 79        	ld	s3, 0x38(sp)
   14e8c: 42 7a        	ld	s4, 0x30(sp)
   14e8e: 93 e7 07 04  	ori	a5, a5, 0x40
   14e92: 23 18 f4 00  	sh	a5, 0x10(s0)
   14e96: e6 60        	ld	ra, 0x58(sp)
   14e98: 46 64        	ld	s0, 0x50(sp)
   14e9a: a2 7a        	ld	s5, 0x28(sp)
   14e9c: e2 6b        	ld	s7, 0x18(sp)
   14e9e: 7d 55        	li	a0, -0x1
   14ea0: 25 61        	addi	sp, sp, 0x60
   14ea2: 82 80        	ret
   14ea4: 01 45        	li	a0, 0x0
   14ea6: 82 80        	ret
   14ea8: 03 bc 84 00  	ld	s8, 0x8(s1)
   14eac: a6 87        	mv	a5, s1
   14eae: c1 04        	addi	s1, s1, 0x10
   14eb0: e3 0c 0c fe  	beqz	s8, 0x14ea8 <__sfvwrite_r+0x1dc>
   14eb4: 83 bc 07 00  	ld	s9, 0x0(a5)
   14eb8: 62 86        	mv	a2, s8
   14eba: a9 45        	li	a1, 0xa
   14ebc: 66 85        	mv	a0, s9
   14ebe: ef 00 20 53  	jal	0x153f0 <memchr>
   14ec2: 63 07 05 14  	beqz	a0, 0x15010 <__sfvwrite_r+0x344>
   14ec6: 05 05        	addi	a0, a0, 0x1
   14ec8: 3b 0b 95 41  	subw	s6, a0, s9
   14ecc: 1d bf        	j	0x14e02 <__sfvwrite_r+0x136>
   14ece: e6 85        	mv	a1, s9
   14ed0: 4e 86        	mv	a2, s3
   14ed2: ef c0 ff a2  	jal	0x11900 <memmove>
   14ed6: 1c 60        	ld	a5, 0x0(s0)
   14ed8: a2 85        	mv	a1, s0
   14eda: 56 85        	mv	a0, s5
   14edc: ce 97        	add	a5, a5, s3
   14ede: 1c e0        	sd	a5, 0x0(s0)
   14ee0: ef f0 3f d6  	jal	0x14c42 <_fflush_r>
   14ee4: 41 fd        	bnez	a0, 0x14e7c <__sfvwrite_r+0x1b0>
   14ee6: ce 87        	mv	a5, s3
   14ee8: 4e 89        	mv	s2, s3
   14eea: b9 b7        	j	0x14e38 <__sfvwrite_r+0x16c>
   14eec: 18 6c        	ld	a4, 0x18(s0)
   14eee: 63 67 f7 02  	bltu	a4, a5, 0x14f1c <__sfvwrite_r+0x250>
   14ef2: 18 50        	lw	a4, 0x20(s0)
   14ef4: 63 64 e9 02  	bltu	s2, a4, 0x14f1c <__sfvwrite_r+0x250>
   14ef8: ca 86        	mv	a3, s2
   14efa: 63 73 2b 01  	bgeu	s6, s2, 0x14f00 <__sfvwrite_r+0x234>
   14efe: da 86        	mv	a3, s6
   14f00: 3b e7 e6 02  	remw	a4, a3, a4
   14f04: 3c 60        	ld	a5, 0x40(s0)
   14f06: 0c 78        	ld	a1, 0x30(s0)
   14f08: 62 86        	mv	a2, s8
   14f0a: 56 85        	mv	a0, s5
   14f0c: 99 9e        	subw	a3, a3, a4
   14f0e: 82 97        	jalr	a5
   14f10: aa 89        	mv	s3, a0
   14f12: e3 55 a0 f6  	blez	a0, 0x14e7c <__sfvwrite_r+0x1b0>
   14f16: 33 09 39 41  	sub	s2, s2, s3
   14f1a: 7d b5        	j	0x14dc8 <__sfvwrite_r+0xfc>
   14f1c: d2 89        	mv	s3, s4
   14f1e: 63 73 49 01  	bgeu	s2, s4, 0x14f24 <__sfvwrite_r+0x258>
   14f22: ca 89        	mv	s3, s2
   14f24: 3e 85        	mv	a0, a5
   14f26: 4e 86        	mv	a2, s3
   14f28: e2 85        	mv	a1, s8
   14f2a: ef c0 7f 9d  	jal	0x11900 <memmove>
   14f2e: 58 44        	lw	a4, 0xc(s0)
   14f30: 1c 60        	ld	a5, 0x0(s0)
   14f32: bb 06 37 41  	subw	a3, a4, s3
   14f36: ce 97        	add	a5, a5, s3
   14f38: 54 c4        	sw	a3, 0xc(s0)
   14f3a: 1c e0        	sd	a5, 0x0(s0)
   14f3c: e9 fe        	bnez	a3, 0x14f16 <__sfvwrite_r+0x24a>
   14f3e: a2 85        	mv	a1, s0
   14f40: 56 85        	mv	a0, s5
   14f42: ef f0 1f d0  	jal	0x14c42 <_fflush_r>
   14f46: 1d f9        	bnez	a0, 0x14e7c <__sfvwrite_r+0x1b0>
   14f48: 33 09 39 41  	sub	s2, s2, s3
   14f4c: b5 bd        	j	0x14dc8 <__sfvwrite_r+0xfc>
   14f4e: 93 76 07 48  	andi	a3, a4, 0x480
   14f52: c1 ca        	beqz	a3, 0x14fe2 <__sfvwrite_r+0x316>
   14f54: 10 50        	lw	a2, 0x20(s0)
   14f56: 0c 6c        	ld	a1, 0x18(s0)
   14f58: 9b 16 16 00  	slliw	a3, a2, 0x1
   14f5c: b1 9e        	addw	a3, a3, a2
   14f5e: 8d 8f        	sub	a5, a5, a1
   14f60: 9b d9 f6 01  	srliw	s3, a3, 0x1f
   14f64: 9b 8c 07 00  	sext.w	s9, a5
   14f68: bb 89 d9 00  	addw	s3, s3, a3
   14f6c: 93 86 1c 00  	addi	a3, s9, 0x1
   14f70: 9b d9 19 40  	sraiw	s3, s3, 0x1
   14f74: ca 96        	add	a3, a3, s2
   14f76: 63 f6 d9 00  	bgeu	s3, a3, 0x14f82 <__sfvwrite_r+0x2b6>
   14f7a: 9b 86 17 00  	addiw	a3, a5, 0x1
   14f7e: bb 89 26 01  	addw	s3, a3, s2
   14f82: 13 77 07 40  	andi	a4, a4, 0x400
   14f86: 25 c3        	beqz	a4, 0x14fe6 <__sfvwrite_r+0x31a>
   14f88: ce 85        	mv	a1, s3
   14f8a: 56 85        	mv	a0, s5
   14f8c: ef b0 3f 84  	jal	0x107ce <_malloc_r>
   14f90: 2a 8a        	mv	s4, a0
   14f92: 49 c5        	beqz	a0, 0x1501c <__sfvwrite_r+0x350>
   14f94: 0c 6c        	ld	a1, 0x18(s0)
   14f96: 66 86        	mv	a2, s9
   14f98: ef 00 20 6a  	jal	0x1563a <memcpy>
   14f9c: 83 57 04 01  	lhu	a5, 0x10(s0)
   14fa0: 93 f7 f7 b7  	andi	a5, a5, -0x481
   14fa4: 93 e7 07 08  	ori	a5, a5, 0x80
   14fa8: 23 18 f4 00  	sh	a5, 0x10(s0)
   14fac: 33 05 9a 01  	add	a0, s4, s9
   14fb0: bb 87 99 41  	subw	a5, s3, s9
   14fb4: 23 3c 44 01  	sd	s4, 0x18(s0)
   14fb8: 08 e0        	sd	a0, 0x0(s0)
   14fba: 23 20 34 03  	sw	s3, 0x20(s0)
   14fbe: ca 8c        	mv	s9, s2
   14fc0: 5c c4        	sw	a5, 0xc(s0)
   14fc2: 4a 8a        	mv	s4, s2
   14fc4: e5 b3        	j	0x14dac <__sfvwrite_r+0xe0>
   14fc6: 52 86        	mv	a2, s4
   14fc8: e6 85        	mv	a1, s9
   14fca: ef c0 7f 93  	jal	0x11900 <memmove>
   14fce: 54 44        	lw	a3, 0xc(s0)
   14fd0: 18 60        	ld	a4, 0x0(s0)
   14fd2: 9b 07 0a 00  	sext.w	a5, s4
   14fd6: bb 86 46 41  	subw	a3, a3, s4
   14fda: 52 97        	add	a4, a4, s4
   14fdc: 54 c4        	sw	a3, 0xc(s0)
   14fde: 18 e0        	sd	a4, 0x0(s0)
   14fe0: a1 bd        	j	0x14e38 <__sfvwrite_r+0x16c>
   14fe2: d2 8c        	mv	s9, s4
   14fe4: e1 b3        	j	0x14dac <__sfvwrite_r+0xe0>
   14fe6: 4e 86        	mv	a2, s3
   14fe8: 56 85        	mv	a0, s5
   14fea: ef b0 5f e0  	jal	0x10dee <_realloc_r>
   14fee: 2a 8a        	mv	s4, a0
   14ff0: 55 fd        	bnez	a0, 0x14fac <__sfvwrite_r+0x2e0>
   14ff2: 0c 6c        	ld	a1, 0x18(s0)
   14ff4: 56 85        	mv	a0, s5
   14ff6: ef c0 df d4  	jal	0x11d42 <_free_r>
   14ffa: 83 17 04 01  	lh	a5, 0x10(s0)
   14ffe: 31 47        	li	a4, 0xc
   15000: 02 7b        	ld	s6, 0x20(sp)
   15002: 42 6c        	ld	s8, 0x10(sp)
   15004: a2 6c        	ld	s9, 0x8(sp)
   15006: 23 a0 ea 00  	sw	a4, 0x0(s5)
   1500a: 93 f7 f7 f7  	andi	a5, a5, -0x81
   1500e: a5 bd        	j	0x14e86 <__sfvwrite_r+0x1ba>
   15010: 1b 0b 1c 00  	addiw	s6, s8, 0x1
   15014: fd b3        	j	0x14e02 <__sfvwrite_r+0x136>
   15016: 83 17 04 01  	lh	a5, 0x10(s0)
   1501a: b5 b5        	j	0x14e86 <__sfvwrite_r+0x1ba>
   1501c: 31 47        	li	a4, 0xc
   1501e: 83 17 04 01  	lh	a5, 0x10(s0)
   15022: 02 7b        	ld	s6, 0x20(sp)
   15024: 42 6c        	ld	s8, 0x10(sp)
   15026: a2 6c        	ld	s9, 0x8(sp)
   15028: 23 a0 ea 00  	sw	a4, 0x0(s5)
   1502c: a9 bd        	j	0x14e86 <__sfvwrite_r+0x1ba>

000000000001502e <_putc_r>:
   1502e: 01 11        	addi	sp, sp, -0x20
   15030: 22 e8        	sd	s0, 0x10(sp)
   15032: 06 ec        	sd	ra, 0x18(sp)
   15034: 2a 84        	mv	s0, a0
   15036: 19 c1        	beqz	a0, 0x1503c <_putc_r+0xe>
   15038: 3c 65        	ld	a5, 0x48(a0)
   1503a: a1 c3        	beqz	a5, 0x1507a <_putc_r+0x4c>
   1503c: 5c 46        	lw	a5, 0xc(a2)
   1503e: 1b 87 f7 ff  	addiw	a4, a5, -0x1
   15042: 58 c6        	sw	a4, 0xc(a2)
   15044: 63 5a 07 00  	bgez	a4, 0x15058 <_putc_r+0x2a>
   15048: 1c 56        	lw	a5, 0x28(a2)
   1504a: 63 43 f7 02  	blt	a4, a5, 0x15070 <_putc_r+0x42>
   1504e: 93 f7 f5 0f  	andi	a5, a1, 0xff
   15052: 29 47        	li	a4, 0xa
   15054: 63 8e e7 00  	beq	a5, a4, 0x15070 <_putc_r+0x42>
   15058: 1c 62        	ld	a5, 0x0(a2)
   1505a: 13 f5 f5 0f  	andi	a0, a1, 0xff
   1505e: 13 87 17 00  	addi	a4, a5, 0x1
   15062: 18 e2        	sd	a4, 0x0(a2)
   15064: 23 80 b7 00  	sb	a1, 0x0(a5)
   15068: e2 60        	ld	ra, 0x18(sp)
   1506a: 42 64        	ld	s0, 0x10(sp)
   1506c: 05 61        	addi	sp, sp, 0x20
   1506e: 82 80        	ret
   15070: 22 85        	mv	a0, s0
   15072: 42 64        	ld	s0, 0x10(sp)
   15074: e2 60        	ld	ra, 0x18(sp)
   15076: 05 61        	addi	sp, sp, 0x20
   15078: ad a8        	j	0x150f2 <__swbuf_r>
   1507a: 32 e4        	sd	a2, 0x8(sp)
   1507c: 2e e0        	sd	a1, 0x0(sp)
   1507e: ef c0 6f bc  	jal	0x11444 <__sinit>
   15082: 22 66        	ld	a2, 0x8(sp)
   15084: 82 65        	ld	a1, 0x0(sp)
   15086: 5d bf        	j	0x1503c <_putc_r+0xe>

0000000000015088 <putc>:
   15088: 79 71        	addi	sp, sp, -0x30
   1508a: 4a ec        	sd	s2, 0x18(sp)
   1508c: 03 b9 81 88  	ld	s2, -0x778(gp)
   15090: 26 f0        	sd	s1, 0x20(sp)
   15092: 06 f4        	sd	ra, 0x28(sp)
   15094: aa 84        	mv	s1, a0
   15096: 63 05 09 00  	beqz	s2, 0x150a0 <putc+0x18>
   1509a: 83 37 89 04  	ld	a5, 0x48(s2)
   1509e: a1 c7        	beqz	a5, 0x150e6 <putc+0x5e>
   150a0: dc 45        	lw	a5, 0xc(a1)
   150a2: 1b 87 f7 ff  	addiw	a4, a5, -0x1
   150a6: d8 c5        	sw	a4, 0xc(a1)
   150a8: 63 5a 07 00  	bgez	a4, 0x150bc <putc+0x34>
   150ac: 9c 55        	lw	a5, 0x28(a1)
   150ae: 63 44 f7 02  	blt	a4, a5, 0x150d6 <putc+0x4e>
   150b2: 93 f7 f4 0f  	andi	a5, s1, 0xff
   150b6: 29 47        	li	a4, 0xa
   150b8: 63 8f e7 00  	beq	a5, a4, 0x150d6 <putc+0x4e>
   150bc: 9c 61        	ld	a5, 0x0(a1)
   150be: 13 f5 f4 0f  	andi	a0, s1, 0xff
   150c2: 13 87 17 00  	addi	a4, a5, 0x1
   150c6: 98 e1        	sd	a4, 0x0(a1)
   150c8: 23 80 97 00  	sb	s1, 0x0(a5)
   150cc: a2 70        	ld	ra, 0x28(sp)
   150ce: 82 74        	ld	s1, 0x20(sp)
   150d0: 62 69        	ld	s2, 0x18(sp)
   150d2: 45 61        	addi	sp, sp, 0x30
   150d4: 82 80        	ret
   150d6: a2 70        	ld	ra, 0x28(sp)
   150d8: 2e 86        	mv	a2, a1
   150da: 4a 85        	mv	a0, s2
   150dc: a6 85        	mv	a1, s1
   150de: 62 69        	ld	s2, 0x18(sp)
   150e0: 82 74        	ld	s1, 0x20(sp)
   150e2: 45 61        	addi	sp, sp, 0x30
   150e4: 39 a0        	j	0x150f2 <__swbuf_r>
   150e6: 4a 85        	mv	a0, s2
   150e8: 2e e4        	sd	a1, 0x8(sp)
   150ea: ef c0 af b5  	jal	0x11444 <__sinit>
   150ee: a2 65        	ld	a1, 0x8(sp)
   150f0: 45 bf        	j	0x150a0 <putc+0x18>

00000000000150f2 <__swbuf_r>:
   150f2: 79 71        	addi	sp, sp, -0x30
   150f4: 22 f0        	sd	s0, 0x20(sp)
   150f6: 26 ec        	sd	s1, 0x18(sp)
   150f8: 4a e8        	sd	s2, 0x10(sp)
   150fa: 06 f4        	sd	ra, 0x28(sp)
   150fc: 2a 89        	mv	s2, a0
   150fe: ae 84        	mv	s1, a1
   15100: 32 84        	mv	s0, a2
   15102: 19 c1        	beqz	a0, 0x15108 <__swbuf_r+0x16>
   15104: 3c 65        	ld	a5, 0x48(a0)
   15106: e5 c7        	beqz	a5, 0x151ee <__swbuf_r+0xfc>
   15108: 1c 54        	lw	a5, 0x28(s0)
   1510a: 03 17 04 01  	lh	a4, 0x10(s0)
   1510e: 5c c4        	sw	a5, 0xc(s0)
   15110: 93 77 87 00  	andi	a5, a4, 0x8
   15114: a9 cb        	beqz	a5, 0x15166 <__swbuf_r+0x74>
   15116: 1c 6c        	ld	a5, 0x18(s0)
   15118: b9 c7        	beqz	a5, 0x15166 <__swbuf_r+0x74>
   1511a: 4e e4        	sd	s3, 0x8(sp)
   1511c: 93 16 27 03  	slli	a3, a4, 0x32
   15120: 93 f9 f4 0f  	andi	s3, s1, 0xff
   15124: ce 84        	mv	s1, s3
   15126: 63 d0 06 06  	bgez	a3, 0x15186 <__swbuf_r+0x94>
   1512a: 18 60        	ld	a4, 0x0(s0)
   1512c: 14 50        	lw	a3, 0x20(s0)
   1512e: bb 07 f7 40  	subw	a5, a4, a5
   15132: 63 db d7 06  	bge	a5, a3, 0x151a8 <__swbuf_r+0xb6>
   15136: 54 44        	lw	a3, 0xc(s0)
   15138: 13 06 17 00  	addi	a2, a4, 0x1
   1513c: 10 e0        	sd	a2, 0x0(s0)
   1513e: fd 36        	addiw	a3, a3, -0x1
   15140: 54 c4        	sw	a3, 0xc(s0)
   15142: 23 00 37 01  	sb	s3, 0x0(a4)
   15146: 18 50        	lw	a4, 0x20(s0)
   15148: 85 27        	addiw	a5, a5, 0x1
   1514a: 63 01 f7 08  	beq	a4, a5, 0x151cc <__swbuf_r+0xda>
   1514e: 83 57 04 01  	lhu	a5, 0x10(s0)
   15152: 85 8b        	andi	a5, a5, 0x1
   15154: c1 e7        	bnez	a5, 0x151dc <__swbuf_r+0xea>
   15156: a2 69        	ld	s3, 0x8(sp)
   15158: a2 70        	ld	ra, 0x28(sp)
   1515a: 02 74        	ld	s0, 0x20(sp)
   1515c: 42 69        	ld	s2, 0x10(sp)
   1515e: 26 85        	mv	a0, s1
   15160: e2 64        	ld	s1, 0x18(sp)
   15162: 45 61        	addi	sp, sp, 0x30
   15164: 82 80        	ret
   15166: a2 85        	mv	a1, s0
   15168: 4a 85        	mv	a0, s2
   1516a: ef 00 60 09  	jal	0x15200 <__swsetup_r>
   1516e: 2d e5        	bnez	a0, 0x151d8 <__swbuf_r+0xe6>
   15170: 03 17 04 01  	lh	a4, 0x10(s0)
   15174: 4e e4        	sd	s3, 0x8(sp)
   15176: 93 f9 f4 0f  	andi	s3, s1, 0xff
   1517a: 93 16 27 03  	slli	a3, a4, 0x32
   1517e: 1c 6c        	ld	a5, 0x18(s0)
   15180: ce 84        	mv	s1, s3
   15182: e3 c4 06 fa  	bltz	a3, 0x1512a <__swbuf_r+0x38>
   15186: 83 26 c4 0a  	lw	a3, 0xac(s0)
   1518a: 79 76        	lui	a2, 0xffffe
   1518c: 89 65        	lui	a1, 0x2
   1518e: 4d 8f        	or	a4, a4, a1
   15190: 7d 16        	addi	a2, a2, -0x1
   15192: f1 8e        	and	a3, a3, a2
   15194: 23 18 e4 00  	sh	a4, 0x10(s0)
   15198: 18 60        	ld	a4, 0x0(s0)
   1519a: 23 26 d4 0a  	sw	a3, 0xac(s0)
   1519e: 14 50        	lw	a3, 0x20(s0)
   151a0: bb 07 f7 40  	subw	a5, a4, a5
   151a4: e3 c9 d7 f8  	blt	a5, a3, 0x15136 <__swbuf_r+0x44>
   151a8: a2 85        	mv	a1, s0
   151aa: 4a 85        	mv	a0, s2
   151ac: ef f0 7f a9  	jal	0x14c42 <_fflush_r>
   151b0: 1d e1        	bnez	a0, 0x151d6 <__swbuf_r+0xe4>
   151b2: 18 60        	ld	a4, 0x0(s0)
   151b4: 54 44        	lw	a3, 0xc(s0)
   151b6: 85 47        	li	a5, 0x1
   151b8: 13 06 17 00  	addi	a2, a4, 0x1
   151bc: fd 36        	addiw	a3, a3, -0x1
   151be: 10 e0        	sd	a2, 0x0(s0)
   151c0: 54 c4        	sw	a3, 0xc(s0)
   151c2: 23 00 37 01  	sb	s3, 0x0(a4)
   151c6: 18 50        	lw	a4, 0x20(s0)
   151c8: e3 13 f7 f8  	bne	a4, a5, 0x1514e <__swbuf_r+0x5c>
   151cc: a2 85        	mv	a1, s0
   151ce: 4a 85        	mv	a0, s2
   151d0: ef f0 3f a7  	jal	0x14c42 <_fflush_r>
   151d4: 49 d1        	beqz	a0, 0x15156 <__swbuf_r+0x64>
   151d6: a2 69        	ld	s3, 0x8(sp)
   151d8: fd 54        	li	s1, -0x1
   151da: bd bf        	j	0x15158 <__swbuf_r+0x66>
   151dc: a9 47        	li	a5, 0xa
   151de: e3 9c f4 f6  	bne	s1, a5, 0x15156 <__swbuf_r+0x64>
   151e2: a2 85        	mv	a1, s0
   151e4: 4a 85        	mv	a0, s2
   151e6: ef f0 df a5  	jal	0x14c42 <_fflush_r>
   151ea: 35 d5        	beqz	a0, 0x15156 <__swbuf_r+0x64>
   151ec: ed b7        	j	0x151d6 <__swbuf_r+0xe4>
   151ee: ef c0 6f a5  	jal	0x11444 <__sinit>
   151f2: 19 bf        	j	0x15108 <__swbuf_r+0x16>

00000000000151f4 <__swbuf>:
   151f4: aa 87        	mv	a5, a0
   151f6: 03 b5 81 88  	ld	a0, -0x778(gp)
   151fa: 2e 86        	mv	a2, a1
   151fc: be 85        	mv	a1, a5
   151fe: d5 bd        	j	0x150f2 <__swbuf_r>

0000000000015200 <__swsetup_r>:
   15200: 83 b7 81 88  	ld	a5, -0x778(gp)
   15204: 01 11        	addi	sp, sp, -0x20
   15206: 22 e8        	sd	s0, 0x10(sp)
   15208: 26 e4        	sd	s1, 0x8(sp)
   1520a: 06 ec        	sd	ra, 0x18(sp)
   1520c: aa 84        	mv	s1, a0
   1520e: 2e 84        	mv	s0, a1
   15210: 99 c3        	beqz	a5, 0x15216 <__swsetup_r+0x16>
   15212: b8 67        	ld	a4, 0x48(a5)
   15214: 5d c7        	beqz	a4, 0x152c2 <__swsetup_r+0xc2>
   15216: 83 17 04 01  	lh	a5, 0x10(s0)
   1521a: 13 f7 87 00  	andi	a4, a5, 0x8
   1521e: 21 c7        	beqz	a4, 0x15266 <__swsetup_r+0x66>
   15220: 18 6c        	ld	a4, 0x18(s0)
   15222: 31 cf        	beqz	a4, 0x1527e <__swsetup_r+0x7e>
   15224: 93 f6 17 00  	andi	a3, a5, 0x1
   15228: 91 ce        	beqz	a3, 0x15244 <__swsetup_r+0x44>
   1522a: 14 50        	lw	a3, 0x20(s0)
   1522c: 23 26 04 00  	sw	zero, 0xc(s0)
   15230: 01 45        	li	a0, 0x0
   15232: bb 06 d0 40  	negw	a3, a3
   15236: 14 d4        	sw	a3, 0x28(s0)
   15238: 11 cf        	beqz	a4, 0x15254 <__swsetup_r+0x54>
   1523a: e2 60        	ld	ra, 0x18(sp)
   1523c: 42 64        	ld	s0, 0x10(sp)
   1523e: a2 64        	ld	s1, 0x8(sp)
   15240: 05 61        	addi	sp, sp, 0x20
   15242: 82 80        	ret
   15244: 93 f6 27 00  	andi	a3, a5, 0x2
   15248: 01 46        	li	a2, 0x0
   1524a: 91 e2        	bnez	a3, 0x1524e <__swsetup_r+0x4e>
   1524c: 10 50        	lw	a2, 0x20(s0)
   1524e: 50 c4        	sw	a2, 0xc(s0)
   15250: 01 45        	li	a0, 0x0
   15252: 65 f7        	bnez	a4, 0x1523a <__swsetup_r+0x3a>
   15254: 13 f7 07 08  	andi	a4, a5, 0x80
   15258: 6d d3        	beqz	a4, 0x1523a <__swsetup_r+0x3a>
   1525a: 93 e7 07 04  	ori	a5, a5, 0x40
   1525e: 23 18 f4 00  	sh	a5, 0x10(s0)
   15262: 7d 55        	li	a0, -0x1
   15264: d9 bf        	j	0x1523a <__swsetup_r+0x3a>
   15266: 13 f7 07 01  	andi	a4, a5, 0x10
   1526a: 25 c3        	beqz	a4, 0x152ca <__swsetup_r+0xca>
   1526c: 13 f7 47 00  	andi	a4, a5, 0x4
   15270: 0d e7        	bnez	a4, 0x1529a <__swsetup_r+0x9a>
   15272: 18 6c        	ld	a4, 0x18(s0)
   15274: 93 e7 87 00  	ori	a5, a5, 0x8
   15278: 23 18 f4 00  	sh	a5, 0x10(s0)
   1527c: 45 f7        	bnez	a4, 0x15224 <__swsetup_r+0x24>
   1527e: 93 f6 07 28  	andi	a3, a5, 0x280
   15282: 13 06 00 20  	li	a2, 0x200
   15286: e3 8f c6 f8  	beq	a3, a2, 0x15224 <__swsetup_r+0x24>
   1528a: a2 85        	mv	a1, s0
   1528c: 26 85        	mv	a0, s1
   1528e: ef 20 b0 1b  	jal	0x17c48 <__smakebuf_r>
   15292: 83 17 04 01  	lh	a5, 0x10(s0)
   15296: 18 6c        	ld	a4, 0x18(s0)
   15298: 71 b7        	j	0x15224 <__swsetup_r+0x24>
   1529a: 2c 6c        	ld	a1, 0x58(s0)
   1529c: 81 cd        	beqz	a1, 0x152b4 <__swsetup_r+0xb4>
   1529e: 13 07 44 07  	addi	a4, s0, 0x74
   152a2: 63 87 e5 00  	beq	a1, a4, 0x152b0 <__swsetup_r+0xb0>
   152a6: 26 85        	mv	a0, s1
   152a8: ef c0 bf a9  	jal	0x11d42 <_free_r>
   152ac: 83 17 04 01  	lh	a5, 0x10(s0)
   152b0: 23 3c 04 04  	sd	zero, 0x58(s0)
   152b4: 18 6c        	ld	a4, 0x18(s0)
   152b6: 93 f7 b7 fd  	andi	a5, a5, -0x25
   152ba: 23 24 04 00  	sw	zero, 0x8(s0)
   152be: 18 e0        	sd	a4, 0x0(s0)
   152c0: 55 bf        	j	0x15274 <__swsetup_r+0x74>
   152c2: 3e 85        	mv	a0, a5
   152c4: ef c0 0f 98  	jal	0x11444 <__sinit>
   152c8: b9 b7        	j	0x15216 <__swsetup_r+0x16>
   152ca: 25 47        	li	a4, 0x9
   152cc: 98 c0        	sw	a4, 0x0(s1)
   152ce: 93 e7 07 04  	ori	a5, a5, 0x40
   152d2: 23 18 f4 00  	sh	a5, 0x10(s0)
   152d6: 7d 55        	li	a0, -0x1
   152d8: 8d b7        	j	0x1523a <__swsetup_r+0x3a>

00000000000152da <__fputwc>:
   152da: 79 71        	addi	sp, sp, -0x30
   152dc: 22 f0        	sd	s0, 0x20(sp)
   152de: 26 ec        	sd	s1, 0x18(sp)
   152e0: 4a e8        	sd	s2, 0x10(sp)
   152e2: 06 f4        	sd	ra, 0x28(sp)
   152e4: 2a 89        	mv	s2, a0
   152e6: ae 84        	mv	s1, a1
   152e8: 32 84        	mv	s0, a2
   152ea: ef 00 e0 29  	jal	0x15588 <__locale_mb_cur_max>
   152ee: 85 47        	li	a5, 0x1
   152f0: 63 1b f5 00  	bne	a0, a5, 0x15306 <__fputwc+0x2c>
   152f4: 9b 87 f4 ff  	addiw	a5, s1, -0x1
   152f8: 13 07 e0 0f  	li	a4, 0xfe
   152fc: 63 65 f7 00  	bltu	a4, a5, 0x15306 <__fputwc+0x2c>
   15300: 23 04 91 00  	sb	s1, 0x8(sp)
   15304: 21 a8        	j	0x1531c <__fputwc+0x42>
   15306: 93 06 44 0a  	addi	a3, s0, 0xa4
   1530a: 26 86        	mv	a2, s1
   1530c: 2c 00        	addi	a1, sp, 0x8
   1530e: 4a 85        	mv	a0, s2
   15310: ef 20 b0 09  	jal	0x17baa <_wcrtomb_r>
   15314: fd 57        	li	a5, -0x1
   15316: 63 0d f5 04  	beq	a0, a5, 0x15370 <__fputwc+0x96>
   1531a: 0d c5        	beqz	a0, 0x15344 <__fputwc+0x6a>
   1531c: 5c 44        	lw	a5, 0xc(s0)
   1531e: 83 45 81 00  	lbu	a1, 0x8(sp)
   15322: 1b 87 f7 ff  	addiw	a4, a5, -0x1
   15326: 58 c4        	sw	a4, 0xc(s0)
   15328: 63 58 07 00  	bgez	a4, 0x15338 <__fputwc+0x5e>
   1532c: 1c 54        	lw	a5, 0x28(s0)
   1532e: 63 43 f7 02  	blt	a4, a5, 0x15354 <__fputwc+0x7a>
   15332: a9 47        	li	a5, 0xa
   15334: 63 80 f5 02  	beq	a1, a5, 0x15354 <__fputwc+0x7a>
   15338: 1c 60        	ld	a5, 0x0(s0)
   1533a: 13 87 17 00  	addi	a4, a5, 0x1
   1533e: 18 e0        	sd	a4, 0x0(s0)
   15340: 23 80 b7 00  	sb	a1, 0x0(a5)
   15344: a2 70        	ld	ra, 0x28(sp)
   15346: 02 74        	ld	s0, 0x20(sp)
   15348: 42 69        	ld	s2, 0x10(sp)
   1534a: 1b 85 04 00  	sext.w	a0, s1
   1534e: e2 64        	ld	s1, 0x18(sp)
   15350: 45 61        	addi	sp, sp, 0x30
   15352: 82 80        	ret
   15354: 22 86        	mv	a2, s0
   15356: 4a 85        	mv	a0, s2
   15358: ef f0 bf d9  	jal	0x150f2 <__swbuf_r>
   1535c: fd 57        	li	a5, -0x1
   1535e: e3 13 f5 fe  	bne	a0, a5, 0x15344 <__fputwc+0x6a>
   15362: 7d 55        	li	a0, -0x1
   15364: a2 70        	ld	ra, 0x28(sp)
   15366: 02 74        	ld	s0, 0x20(sp)
   15368: e2 64        	ld	s1, 0x18(sp)
   1536a: 42 69        	ld	s2, 0x10(sp)
   1536c: 45 61        	addi	sp, sp, 0x30
   1536e: 82 80        	ret
   15370: 83 57 04 01  	lhu	a5, 0x10(s0)
   15374: 7d 55        	li	a0, -0x1
   15376: 93 e7 07 04  	ori	a5, a5, 0x40
   1537a: 23 18 f4 00  	sh	a5, 0x10(s0)
   1537e: dd b7        	j	0x15364 <__fputwc+0x8a>

0000000000015380 <_fputwc_r>:
   15380: 83 17 06 01  	lh	a5, 0x10(a2)
   15384: 13 97 27 03  	slli	a4, a5, 0x32
   15388: 63 4c 07 00  	bltz	a4, 0x153a0 <_fputwc_r+0x20>
   1538c: 03 27 c6 0a  	lw	a4, 0xac(a2)
   15390: 89 66        	lui	a3, 0x2
   15392: d5 8f        	or	a5, a5, a3
   15394: 89 66        	lui	a3, 0x2
   15396: 55 8f        	or	a4, a4, a3
   15398: 23 18 f6 00  	sh	a5, 0x10(a2)
   1539c: 23 26 e6 0a  	sw	a4, 0xac(a2)
   153a0: 2d bf        	j	0x152da <__fputwc>

00000000000153a2 <fputwc>:
   153a2: 01 11        	addi	sp, sp, -0x20
   153a4: 22 e8        	sd	s0, 0x10(sp)
   153a6: 03 b4 81 88  	ld	s0, -0x778(gp)
   153aa: 06 ec        	sd	ra, 0x18(sp)
   153ac: 2e 86        	mv	a2, a1
   153ae: aa 85        	mv	a1, a0
   153b0: 19 c0        	beqz	s0, 0x153b6 <fputwc+0x14>
   153b2: 3c 64        	ld	a5, 0x48(s0)
   153b4: 95 c7        	beqz	a5, 0x153e0 <fputwc+0x3e>
   153b6: 83 17 06 01  	lh	a5, 0x10(a2)
   153ba: 13 97 27 03  	slli	a4, a5, 0x32
   153be: 63 4c 07 00  	bltz	a4, 0x153d6 <fputwc+0x34>
   153c2: 03 27 c6 0a  	lw	a4, 0xac(a2)
   153c6: 89 66        	lui	a3, 0x2
   153c8: d5 8f        	or	a5, a5, a3
   153ca: 89 66        	lui	a3, 0x2
   153cc: 55 8f        	or	a4, a4, a3
   153ce: 23 18 f6 00  	sh	a5, 0x10(a2)
   153d2: 23 26 e6 0a  	sw	a4, 0xac(a2)
   153d6: 22 85        	mv	a0, s0
   153d8: 42 64        	ld	s0, 0x10(sp)
   153da: e2 60        	ld	ra, 0x18(sp)
   153dc: 05 61        	addi	sp, sp, 0x20
   153de: f5 bd        	j	0x152da <__fputwc>
   153e0: 2a e0        	sd	a0, 0x0(sp)
   153e2: 22 85        	mv	a0, s0
   153e4: 32 e4        	sd	a2, 0x8(sp)
   153e6: ef c0 ef 85  	jal	0x11444 <__sinit>
   153ea: 22 66        	ld	a2, 0x8(sp)
   153ec: 82 65        	ld	a1, 0x0(sp)
   153ee: e1 b7        	j	0x153b6 <fputwc+0x14>

00000000000153f0 <memchr>:
   153f0: 93 77 75 00  	andi	a5, a0, 0x7
   153f4: 93 f6 f5 0f  	andi	a3, a1, 0xff
   153f8: 95 c3        	beqz	a5, 0x1541c <memchr+0x2c>
   153fa: 93 07 f6 ff  	addi	a5, a2, -0x1
   153fe: 05 c6        	beqz	a2, 0x15426 <memchr+0x36>
   15400: 7d 56        	li	a2, -0x1
   15402: 01 a8        	j	0x15412 <memchr+0x22>
   15404: 05 05        	addi	a0, a0, 0x1
   15406: 13 77 75 00  	andi	a4, a0, 0x7
   1540a: 11 cb        	beqz	a4, 0x1541e <memchr+0x2e>
   1540c: fd 17        	addi	a5, a5, -0x1
   1540e: 63 8c c7 00  	beq	a5, a2, 0x15426 <memchr+0x36>
   15412: 03 47 05 00  	lbu	a4, 0x0(a0)
   15416: e3 17 d7 fe  	bne	a4, a3, 0x15404 <memchr+0x14>
   1541a: 82 80        	ret
   1541c: b2 87        	mv	a5, a2
   1541e: 1d 47        	li	a4, 0x7
   15420: 63 65 f7 00  	bltu	a4, a5, 0x1542a <memchr+0x3a>
   15424: bd e3        	bnez	a5, 0x1548a <memchr+0x9a>
   15426: 01 45        	li	a0, 0x0
   15428: 82 80        	ret
   1542a: 93 f5 f5 0f  	andi	a1, a1, 0xff
   1542e: 37 18 10 f0  	lui	a6, 0xf0101
   15432: 13 97 85 00  	slli	a4, a1, 0x8
   15436: b7 08 ff fe  	lui	a7, 0xfeff0
   1543a: 12 08        	slli	a6, a6, 0x4
   1543c: 2e 97        	add	a4, a4, a1
   1543e: 93 88 f8 ef  	addi	a7, a7, -0x101
   15442: 13 08 18 10  	addi	a6, a6, 0x101
   15446: 93 15 07 01  	slli	a1, a4, 0x10
   1544a: c2 08        	slli	a7, a7, 0x10
   1544c: 42 08        	slli	a6, a6, 0x10
   1544e: ba 95        	add	a1, a1, a4
   15450: 93 88 f8 ef  	addi	a7, a7, -0x101
   15454: 13 08 18 10  	addi	a6, a6, 0x101
   15458: 13 97 05 02  	slli	a4, a1, 0x20
   1545c: c2 08        	slli	a7, a7, 0x10
   1545e: 3e 08        	slli	a6, a6, 0xf
   15460: ba 95        	add	a1, a1, a4
   15462: 93 88 f8 ef  	addi	a7, a7, -0x101
   15466: 13 08 08 08  	addi	a6, a6, 0x80
   1546a: 1d 43        	li	t1, 0x7
   1546c: 29 a0        	j	0x15476 <memchr+0x86>
   1546e: e1 17        	addi	a5, a5, -0x8
   15470: 21 05        	addi	a0, a0, 0x8
   15472: e3 79 f3 fa  	bgeu	t1, a5, 0x15424 <memchr+0x34>
   15476: 18 61        	ld	a4, 0x0(a0)
   15478: 2d 8f        	xor	a4, a4, a1
   1547a: 33 06 17 01  	add	a2, a4, a7
   1547e: 13 47 f7 ff  	not	a4, a4
   15482: 71 8f        	and	a4, a4, a2
   15484: 33 77 07 01  	and	a4, a4, a6
   15488: 7d d3        	beqz	a4, 0x1546e <memchr+0x7e>
   1548a: aa 97        	add	a5, a5, a0
   1548c: 21 a0        	j	0x15494 <memchr+0xa4>
   1548e: 05 05        	addi	a0, a0, 0x1
   15490: e3 8b a7 f8  	beq	a5, a0, 0x15426 <memchr+0x36>
   15494: 03 47 05 00  	lbu	a4, 0x0(a0)
   15498: e3 1b d7 fe  	bne	a4, a3, 0x1548e <memchr+0x9e>
   1549c: 82 80        	ret

000000000001549e <strncpy>:
   1549e: b3 e7 a5 00  	or	a5, a1, a0
   154a2: 9d 8b        	andi	a5, a5, 0x7
   154a4: 81 e7        	bnez	a5, 0x154ac <strncpy+0xe>
   154a6: 9d 47        	li	a5, 0x7
   154a8: 63 eb c7 02  	bltu	a5, a2, 0x154de <strncpy+0x40>
   154ac: 2a 87        	mv	a4, a0
   154ae: 11 a8        	j	0x154c2 <strncpy+0x24>
   154b0: 83 c6 f5 ff  	lbu	a3, -0x1(a1)
   154b4: 13 08 f6 ff  	addi	a6, a2, -0x1
   154b8: a3 8f d7 fe  	sb	a3, -0x1(a5)
   154bc: 81 ca        	beqz	a3, 0x154cc <strncpy+0x2e>
   154be: 3e 87        	mv	a4, a5
   154c0: 42 86        	mv	a2, a6
   154c2: 85 05        	addi	a1, a1, 0x1
   154c4: 93 07 17 00  	addi	a5, a4, 0x1
   154c8: 65 f6        	bnez	a2, 0x154b0 <strncpy+0x12>
   154ca: 82 80        	ret
   154cc: 32 97        	add	a4, a4, a2
   154ce: 63 01 08 06  	beqz	a6, 0x15530 <strncpy+0x92>
   154d2: 85 07        	addi	a5, a5, 0x1
   154d4: a3 8f 07 fe  	sb	zero, -0x1(a5)
   154d8: e3 9d e7 fe  	bne	a5, a4, 0x154d2 <strncpy+0x34>
   154dc: 82 80        	ret
   154de: 37 18 10 f0  	lui	a6, 0xf0101
   154e2: b7 08 ff fe  	lui	a7, 0xfeff0
   154e6: 12 08        	slli	a6, a6, 0x4
   154e8: 93 88 f8 ef  	addi	a7, a7, -0x101
   154ec: 13 08 18 10  	addi	a6, a6, 0x101
   154f0: c2 08        	slli	a7, a7, 0x10
   154f2: 42 08        	slli	a6, a6, 0x10
   154f4: 93 88 f8 ef  	addi	a7, a7, -0x101
   154f8: 13 08 18 10  	addi	a6, a6, 0x101
   154fc: c2 08        	slli	a7, a7, 0x10
   154fe: 3e 08        	slli	a6, a6, 0xf
   15500: 2a 87        	mv	a4, a0
   15502: 93 88 f8 ef  	addi	a7, a7, -0x101
   15506: 13 08 08 08  	addi	a6, a6, 0x80
   1550a: 1d 4e        	li	t3, 0x7
   1550c: 39 a0        	j	0x1551a <strncpy+0x7c>
   1550e: 14 e3        	sd	a3, 0x0(a4)
   15510: 61 16        	addi	a2, a2, -0x8
   15512: 21 07        	addi	a4, a4, 0x8
   15514: a1 05        	addi	a1, a1, 0x8
   15516: e3 76 ce fa  	bgeu	t3, a2, 0x154c2 <strncpy+0x24>
   1551a: 94 61        	ld	a3, 0x0(a1)
   1551c: b3 87 16 01  	add	a5, a3, a7
   15520: 13 c3 f6 ff  	not	t1, a3
   15524: b3 f7 67 00  	and	a5, a5, t1
   15528: b3 f7 07 01  	and	a5, a5, a6
   1552c: ed d3        	beqz	a5, 0x1550e <strncpy+0x70>
   1552e: 51 bf        	j	0x154c2 <strncpy+0x24>
   15530: 82 80        	ret

0000000000015532 <_setlocale_r>:
   15532: 01 11        	addi	sp, sp, -0x20
   15534: 06 ec        	sd	ra, 0x18(sp)
   15536: 26 e4        	sd	s1, 0x8(sp)
   15538: 05 c6        	beqz	a2, 0x15560 <_setlocale_r+0x2e>
   1553a: b7 05 02 00  	lui	a1, 0x20
   1553e: 93 85 05 c0  	addi	a1, a1, -0x400
   15542: 32 85        	mv	a0, a2
   15544: 22 e8        	sd	s0, 0x10(sp)
   15546: 32 84        	mv	s0, a2
   15548: ef 00 80 23  	jal	0x15780 <strcmp>
   1554c: b7 04 02 00  	lui	s1, 0x20
   15550: 19 e9        	bnez	a0, 0x15566 <_setlocale_r+0x34>
   15552: 42 64        	ld	s0, 0x10(sp)
   15554: 13 85 84 bf  	addi	a0, s1, -0x408
   15558: e2 60        	ld	ra, 0x18(sp)
   1555a: a2 64        	ld	s1, 0x8(sp)
   1555c: 05 61        	addi	sp, sp, 0x20
   1555e: 82 80        	ret
   15560: b7 04 02 00  	lui	s1, 0x20
   15564: c5 bf        	j	0x15554 <_setlocale_r+0x22>
   15566: 93 85 84 bf  	addi	a1, s1, -0x408
   1556a: 22 85        	mv	a0, s0
   1556c: ef 00 40 21  	jal	0x15780 <strcmp>
   15570: 6d d1        	beqz	a0, 0x15552 <_setlocale_r+0x20>
   15572: b7 05 02 00  	lui	a1, 0x20
   15576: 93 85 05 be  	addi	a1, a1, -0x420
   1557a: 22 85        	mv	a0, s0
   1557c: ef 00 40 20  	jal	0x15780 <strcmp>
   15580: 69 d9        	beqz	a0, 0x15552 <_setlocale_r+0x20>
   15582: 42 64        	ld	s0, 0x10(sp)
   15584: 01 45        	li	a0, 0x0
   15586: c9 bf        	j	0x15558 <_setlocale_r+0x26>

0000000000015588 <__locale_mb_cur_max>:
   15588: b7 27 02 00  	lui	a5, 0x22
   1558c: 03 c5 87 09  	lbu	a0, 0x98(a5)
   15590: 82 80        	ret

0000000000015592 <setlocale>:
   15592: 01 11        	addi	sp, sp, -0x20
   15594: 06 ec        	sd	ra, 0x18(sp)
   15596: 26 e4        	sd	s1, 0x8(sp)
   15598: 85 c5        	beqz	a1, 0x155c0 <setlocale+0x2e>
   1559a: 22 e8        	sd	s0, 0x10(sp)
   1559c: 2e 84        	mv	s0, a1
   1559e: b7 05 02 00  	lui	a1, 0x20
   155a2: 93 85 05 c0  	addi	a1, a1, -0x400
   155a6: 22 85        	mv	a0, s0
   155a8: ef 00 80 1d  	jal	0x15780 <strcmp>
   155ac: b7 04 02 00  	lui	s1, 0x20
   155b0: 19 e9        	bnez	a0, 0x155c6 <setlocale+0x34>
   155b2: 42 64        	ld	s0, 0x10(sp)
   155b4: 13 85 84 bf  	addi	a0, s1, -0x408
   155b8: e2 60        	ld	ra, 0x18(sp)
   155ba: a2 64        	ld	s1, 0x8(sp)
   155bc: 05 61        	addi	sp, sp, 0x20
   155be: 82 80        	ret
   155c0: b7 04 02 00  	lui	s1, 0x20
   155c4: c5 bf        	j	0x155b4 <setlocale+0x22>
   155c6: 93 85 84 bf  	addi	a1, s1, -0x408
   155ca: 22 85        	mv	a0, s0
   155cc: ef 00 40 1b  	jal	0x15780 <strcmp>
   155d0: 6d d1        	beqz	a0, 0x155b2 <setlocale+0x20>
   155d2: b7 05 02 00  	lui	a1, 0x20
   155d6: 93 85 05 be  	addi	a1, a1, -0x420
   155da: 22 85        	mv	a0, s0
   155dc: ef 00 40 1a  	jal	0x15780 <strcmp>
   155e0: 69 d9        	beqz	a0, 0x155b2 <setlocale+0x20>
   155e2: 42 64        	ld	s0, 0x10(sp)
   155e4: 01 45        	li	a0, 0x0
   155e6: c9 bf        	j	0x155b8 <setlocale+0x26>

00000000000155e8 <__localeconv_l>:
   155e8: 13 05 05 10  	addi	a0, a0, 0x100
   155ec: 82 80        	ret

00000000000155ee <_localeconv_r>:
   155ee: 37 25 02 00  	lui	a0, 0x22
   155f2: 13 05 85 03  	addi	a0, a0, 0x38
   155f6: 82 80        	ret

00000000000155f8 <localeconv>:
   155f8: 37 25 02 00  	lui	a0, 0x22
   155fc: 13 05 85 03  	addi	a0, a0, 0x38
   15600: 82 80        	ret

0000000000015602 <__libc_fini_array>:
   15602: 01 11        	addi	sp, sp, -0x20
   15604: 22 e8        	sd	s0, 0x10(sp)
   15606: b7 17 02 00  	lui	a5, 0x21
   1560a: 37 14 02 00  	lui	s0, 0x21
   1560e: 93 87 07 4b  	addi	a5, a5, 0x4b0
   15612: 13 04 84 4b  	addi	s0, s0, 0x4b8
   15616: 1d 8c        	sub	s0, s0, a5
   15618: 26 e4        	sd	s1, 0x8(sp)
   1561a: 06 ec        	sd	ra, 0x18(sp)
   1561c: 93 54 34 40  	srai	s1, s0, 0x3
   15620: 81 c8        	beqz	s1, 0x15630 <__libc_fini_array+0x2e>
   15622: 61 14        	addi	s0, s0, -0x8
   15624: 3e 94        	add	s0, s0, a5
   15626: 1c 60        	ld	a5, 0x0(s0)
   15628: fd 14        	addi	s1, s1, -0x1
   1562a: 61 14        	addi	s0, s0, -0x8
   1562c: 82 97        	jalr	a5
   1562e: e5 fc        	bnez	s1, 0x15626 <__libc_fini_array+0x24>
   15630: e2 60        	ld	ra, 0x18(sp)
   15632: 42 64        	ld	s0, 0x10(sp)
   15634: a2 64        	ld	s1, 0x8(sp)
   15636: 05 61        	addi	sp, sp, 0x20
   15638: 82 80        	ret

000000000001563a <memcpy>:
   1563a: b3 c7 a5 00  	xor	a5, a1, a0
   1563e: 9d 8b        	andi	a5, a5, 0x7
   15640: b3 08 c5 00  	add	a7, a0, a2
   15644: b1 e7        	bnez	a5, 0x15690 <memcpy+0x56>
   15646: 9d 47        	li	a5, 0x7
   15648: 63 f4 c7 04  	bgeu	a5, a2, 0x15690 <memcpy+0x56>
   1564c: 93 77 75 00  	andi	a5, a0, 0x7
   15650: 2a 87        	mv	a4, a0
   15652: b9 eb        	bnez	a5, 0x156a8 <memcpy+0x6e>
   15654: 13 f6 88 ff  	andi	a2, a7, -0x8
   15658: b3 06 e6 40  	sub	a3, a2, a4
   1565c: 93 07 00 04  	li	a5, 0x40
   15660: 63 c8 d7 06  	blt	a5, a3, 0x156d0 <memcpy+0x96>
   15664: ae 86        	mv	a3, a1
   15666: ba 87        	mv	a5, a4
   15668: 63 71 c7 02  	bgeu	a4, a2, 0x1568a <memcpy+0x50>
   1566c: 03 b8 06 00  	ld	a6, 0x0(a3)
   15670: a1 07        	addi	a5, a5, 0x8
   15672: a1 06        	addi	a3, a3, 0x8
   15674: 23 bc 07 ff  	sd	a6, -0x8(a5)
   15678: e3 ea c7 fe  	bltu	a5, a2, 0x1566c <memcpy+0x32>
   1567c: 93 07 f6 ff  	addi	a5, a2, -0x1
   15680: 99 8f        	sub	a5, a5, a4
   15682: e1 9b        	andi	a5, a5, -0x8
   15684: a1 07        	addi	a5, a5, 0x8
   15686: 3e 97        	add	a4, a4, a5
   15688: be 95        	add	a1, a1, a5
   1568a: 63 66 17 01  	bltu	a4, a7, 0x15696 <memcpy+0x5c>
   1568e: 82 80        	ret
   15690: 2a 87        	mv	a4, a0
   15692: 63 7e 15 03  	bgeu	a0, a7, 0x156ce <memcpy+0x94>
   15696: 83 c7 05 00  	lbu	a5, 0x0(a1)
   1569a: 05 07        	addi	a4, a4, 0x1
   1569c: 85 05        	addi	a1, a1, 0x1
   1569e: a3 0f f7 fe  	sb	a5, -0x1(a4)
   156a2: e3 9a e8 fe  	bne	a7, a4, 0x15696 <memcpy+0x5c>
   156a6: 82 80        	ret
   156a8: 83 c6 05 00  	lbu	a3, 0x0(a1)
   156ac: 05 07        	addi	a4, a4, 0x1
   156ae: 93 77 77 00  	andi	a5, a4, 0x7
   156b2: a3 0f d7 fe  	sb	a3, -0x1(a4)
   156b6: 85 05        	addi	a1, a1, 0x1
   156b8: d1 df        	beqz	a5, 0x15654 <memcpy+0x1a>
   156ba: 83 c6 05 00  	lbu	a3, 0x0(a1)
   156be: 05 07        	addi	a4, a4, 0x1
   156c0: 93 77 77 00  	andi	a5, a4, 0x7
   156c4: a3 0f d7 fe  	sb	a3, -0x1(a4)
   156c8: 85 05        	addi	a1, a1, 0x1
   156ca: f9 ff        	bnez	a5, 0x156a8 <memcpy+0x6e>
   156cc: 61 b7        	j	0x15654 <memcpy+0x1a>
   156ce: 82 80        	ret
   156d0: 41 11        	addi	sp, sp, -0x10
   156d2: 22 e4        	sd	s0, 0x8(sp)
   156d4: 13 04 00 04  	li	s0, 0x40
   156d8: 83 b3 05 00  	ld	t2, 0x0(a1)
   156dc: 83 b2 85 00  	ld	t0, 0x8(a1)
   156e0: 83 bf 05 01  	ld	t6, 0x10(a1)
   156e4: 03 bf 85 01  	ld	t5, 0x18(a1)
   156e8: 83 be 05 02  	ld	t4, 0x20(a1)
   156ec: 03 be 85 02  	ld	t3, 0x28(a1)
   156f0: 03 b3 05 03  	ld	t1, 0x30(a1)
   156f4: 03 b8 85 03  	ld	a6, 0x38(a1)
   156f8: b4 61        	ld	a3, 0x40(a1)
   156fa: 13 07 87 04  	addi	a4, a4, 0x48
   156fe: b3 07 e6 40  	sub	a5, a2, a4
   15702: 23 3c 77 fa  	sd	t2, -0x48(a4)
   15706: 23 30 57 fc  	sd	t0, -0x40(a4)
   1570a: 23 34 f7 fd  	sd	t6, -0x38(a4)
   1570e: 23 38 e7 fd  	sd	t5, -0x30(a4)
   15712: 23 3c d7 fd  	sd	t4, -0x28(a4)
   15716: 23 30 c7 ff  	sd	t3, -0x20(a4)
   1571a: 23 34 67 fe  	sd	t1, -0x18(a4)
   1571e: 23 38 07 ff  	sd	a6, -0x10(a4)
   15722: 23 3c d7 fe  	sd	a3, -0x8(a4)
   15726: 93 85 85 04  	addi	a1, a1, 0x48
   1572a: e3 47 f4 fa  	blt	s0, a5, 0x156d8 <memcpy+0x9e>
   1572e: ae 86        	mv	a3, a1
   15730: ba 87        	mv	a5, a4
   15732: 63 71 c7 02  	bgeu	a4, a2, 0x15754 <memcpy+0x11a>
   15736: 03 b8 06 00  	ld	a6, 0x0(a3)
   1573a: a1 07        	addi	a5, a5, 0x8
   1573c: a1 06        	addi	a3, a3, 0x8
   1573e: 23 bc 07 ff  	sd	a6, -0x8(a5)
   15742: e3 ea c7 fe  	bltu	a5, a2, 0x15736 <memcpy+0xfc>
   15746: 93 07 f6 ff  	addi	a5, a2, -0x1
   1574a: 99 8f        	sub	a5, a5, a4
   1574c: e1 9b        	andi	a5, a5, -0x8
   1574e: a1 07        	addi	a5, a5, 0x8
   15750: 3e 97        	add	a4, a4, a5
   15752: be 95        	add	a1, a1, a5
   15754: 63 65 17 01  	bltu	a4, a7, 0x1575e <memcpy+0x124>
   15758: 22 64        	ld	s0, 0x8(sp)
   1575a: 41 01        	addi	sp, sp, 0x10
   1575c: 82 80        	ret
   1575e: 83 c7 05 00  	lbu	a5, 0x0(a1)
   15762: 05 07        	addi	a4, a4, 0x1
   15764: 85 05        	addi	a1, a1, 0x1
   15766: a3 0f f7 fe  	sb	a5, -0x1(a4)
   1576a: e3 87 e8 fe  	beq	a7, a4, 0x15758 <memcpy+0x11e>
   1576e: 83 c7 05 00  	lbu	a5, 0x0(a1)
   15772: 05 07        	addi	a4, a4, 0x1
   15774: 85 05        	addi	a1, a1, 0x1
   15776: a3 0f f7 fe  	sb	a5, -0x1(a4)
   1577a: e3 92 e8 fe  	bne	a7, a4, 0x1575e <memcpy+0x124>
   1577e: e9 bf        	j	0x15758 <memcpy+0x11e>

0000000000015780 <strcmp>:
   15780: 33 67 b5 00  	or	a4, a0, a1
   15784: fd 53        	li	t2, -0x1
   15786: 1d 8b        	andi	a4, a4, 0x7
   15788: 4d eb        	bnez	a4, 0x1583a <strcmp+0xba>
   1578a: 97 d7 00 00  	auipc	a5, 0xd
   1578e: 83 b7 67 95  	ld	a5, -0x6aa(a5)
   15792: 10 61        	ld	a2, 0x0(a0)
   15794: 94 61        	ld	a3, 0x0(a1)
   15796: b3 72 f6 00  	and	t0, a2, a5
   1579a: 33 63 f6 00  	or	t1, a2, a5
   1579e: be 92        	add	t0, t0, a5
   157a0: b3 e2 62 00  	or	t0, t0, t1
   157a4: 63 99 72 0a  	bne	t0, t2, 0x15856 <strcmp+0xd6>
   157a8: 63 1e d6 02  	bne	a2, a3, 0x157e4 <strcmp+0x64>
   157ac: 10 65        	ld	a2, 0x8(a0)
   157ae: 94 65        	ld	a3, 0x8(a1)
   157b0: b3 72 f6 00  	and	t0, a2, a5
   157b4: 33 63 f6 00  	or	t1, a2, a5
   157b8: be 92        	add	t0, t0, a5
   157ba: b3 e2 62 00  	or	t0, t0, t1
   157be: 63 9a 72 08  	bne	t0, t2, 0x15852 <strcmp+0xd2>
   157c2: 63 11 d6 02  	bne	a2, a3, 0x157e4 <strcmp+0x64>
   157c6: 10 69        	ld	a2, 0x10(a0)
   157c8: 94 69        	ld	a3, 0x10(a1)
   157ca: b3 72 f6 00  	and	t0, a2, a5
   157ce: 33 63 f6 00  	or	t1, a2, a5
   157d2: be 92        	add	t0, t0, a5
   157d4: b3 e2 62 00  	or	t0, t0, t1
   157d8: 63 93 72 08  	bne	t0, t2, 0x1585e <strcmp+0xde>
   157dc: 61 05        	addi	a0, a0, 0x18
   157de: e1 05        	addi	a1, a1, 0x18
   157e0: e3 09 d6 fa  	beq	a2, a3, 0x15792 <strcmp+0x12>
   157e4: 13 17 06 03  	slli	a4, a2, 0x30
   157e8: 93 97 06 03  	slli	a5, a3, 0x30
   157ec: 63 18 f7 02  	bne	a4, a5, 0x1581c <strcmp+0x9c>
   157f0: 13 17 06 02  	slli	a4, a2, 0x20
   157f4: 93 97 06 02  	slli	a5, a3, 0x20
   157f8: 63 12 f7 02  	bne	a4, a5, 0x1581c <strcmp+0x9c>
   157fc: 13 17 06 01  	slli	a4, a2, 0x10
   15800: 93 97 06 01  	slli	a5, a3, 0x10
   15804: 63 1c f7 00  	bne	a4, a5, 0x1581c <strcmp+0x9c>
   15808: 13 57 06 03  	srli	a4, a2, 0x30
   1580c: 93 d7 06 03  	srli	a5, a3, 0x30
   15810: 33 05 f7 40  	sub	a0, a4, a5
   15814: 93 75 f5 0f  	andi	a1, a0, 0xff
   15818: 91 e9        	bnez	a1, 0x1582c <strcmp+0xac>
   1581a: 82 80        	ret
   1581c: 41 93        	srli	a4, a4, 0x30
   1581e: c1 93        	srli	a5, a5, 0x30
   15820: 33 05 f7 40  	sub	a0, a4, a5
   15824: 93 75 f5 0f  	andi	a1, a0, 0xff
   15828: 91 e1        	bnez	a1, 0x1582c <strcmp+0xac>
   1582a: 82 80        	ret
   1582c: 13 77 f7 0f  	andi	a4, a4, 0xff
   15830: 93 f7 f7 0f  	andi	a5, a5, 0xff
   15834: 33 05 f7 40  	sub	a0, a4, a5
   15838: 82 80        	ret
   1583a: 03 46 05 00  	lbu	a2, 0x0(a0)
   1583e: 83 c6 05 00  	lbu	a3, 0x0(a1)
   15842: 05 05        	addi	a0, a0, 0x1
   15844: 85 05        	addi	a1, a1, 0x1
   15846: 63 13 d6 00  	bne	a2, a3, 0x1584c <strcmp+0xcc>
   1584a: 65 fa        	bnez	a2, 0x1583a <strcmp+0xba>
   1584c: 33 05 d6 40  	sub	a0, a2, a3
   15850: 82 80        	ret
   15852: 21 05        	addi	a0, a0, 0x8
   15854: a1 05        	addi	a1, a1, 0x8
   15856: e3 12 d6 fe  	bne	a2, a3, 0x1583a <strcmp+0xba>
   1585a: 01 45        	li	a0, 0x0
   1585c: 82 80        	ret
   1585e: 41 05        	addi	a0, a0, 0x10
   15860: c1 05        	addi	a1, a1, 0x10
   15862: e3 1c d6 fc  	bne	a2, a3, 0x1583a <strcmp+0xba>
   15866: 01 45        	li	a0, 0x0
   15868: 82 80        	ret

000000000001586a <frexpl>:
   1586a: 39 71        	addi	sp, sp, -0x40
   1586c: 4a f0        	sd	s2, 0x20(sp)
   1586e: 21 69        	lui	s2, 0x8
   15870: 22 f8        	sd	s0, 0x30(sp)
   15872: 26 f4        	sd	s1, 0x28(sp)
   15874: 5a e0        	sd	s6, 0x0(sp)
   15876: 06 fc        	sd	ra, 0x38(sp)
   15878: 93 d4 05 03  	srli	s1, a1, 0x30
   1587c: 7d 19        	addi	s2, s2, -0x1
   1587e: b3 f4 24 01  	and	s1, s1, s2
   15882: 23 20 06 00  	sw	zero, 0x0(a2)
   15886: 2e 84        	mv	s0, a1
   15888: 2a 8b        	mv	s6, a0
   1588a: 63 84 24 05  	beq	s1, s2, 0x158d2 <frexpl+0x68>
   1588e: 56 e4        	sd	s5, 0x8(sp)
   15890: 81 46        	li	a3, 0x0
   15892: b2 8a        	mv	s5, a2
   15894: 01 46        	li	a2, 0x0
   15896: 4e ec        	sd	s3, 0x18(sp)
   15898: 52 e8        	sd	s4, 0x10(sp)
   1589a: ae 89        	mv	s3, a1
   1589c: 2a 8a        	mv	s4, a0
   1589e: ef 20 70 47  	jal	0x18514 <__netf2>
   158a2: 25 c1        	beqz	a0, 0x15902 <frexpl+0x98>
   158a4: 81 46        	li	a3, 0x0
   158a6: 8d cc        	beqz	s1, 0x158e0 <frexpl+0x76>
   158a8: 71 77        	lui	a4, 0xffffc
   158aa: b7 17 00 f8  	lui	a5, 0xf8001
   158ae: 09 27        	addiw	a4, a4, 0x2
   158b0: 92 17        	slli	a5, a5, 0x24
   158b2: b9 9c        	addw	s1, s1, a4
   158b4: fd 17        	addi	a5, a5, -0x1
   158b6: 37 f4 ff 01  	lui	s0, 0x1fff
   158ba: b3 f9 f9 00  	and	s3, s3, a5
   158be: b5 9c        	addw	s1, s1, a3
   158c0: 16 14        	slli	s0, s0, 0x25
   158c2: 23 a0 9a 00  	sw	s1, 0x0(s5)
   158c6: 52 85        	mv	a0, s4
   158c8: b3 e5 89 00  	or	a1, s3, s0
   158cc: 42 6a        	ld	s4, 0x10(sp)
   158ce: e2 69        	ld	s3, 0x18(sp)
   158d0: a2 6a        	ld	s5, 0x8(sp)
   158d2: e2 70        	ld	ra, 0x38(sp)
   158d4: 42 74        	ld	s0, 0x30(sp)
   158d6: a2 74        	ld	s1, 0x28(sp)
   158d8: 02 79        	ld	s2, 0x20(sp)
   158da: 02 6b        	ld	s6, 0x0(sp)
   158dc: 21 61        	addi	sp, sp, 0x40
   158de: 82 80        	ret
   158e0: b7 16 07 04  	lui	a3, 0x4071
   158e4: 92 16        	slli	a3, a3, 0x24
   158e6: 01 46        	li	a2, 0x0
   158e8: 5a 85        	mv	a0, s6
   158ea: a2 85        	mv	a1, s0
   158ec: ef 20 d0 60  	jal	0x186f8 <__multf3>
   158f0: 93 d4 05 03  	srli	s1, a1, 0x30
   158f4: ae 89        	mv	s3, a1
   158f6: 2a 8a        	mv	s4, a0
   158f8: b3 f4 24 01  	and	s1, s1, s2
   158fc: 93 06 e0 f8  	li	a3, -0x72
   15900: 65 b7        	j	0x158a8 <frexpl+0x3e>
   15902: e2 70        	ld	ra, 0x38(sp)
   15904: a2 85        	mv	a1, s0
   15906: 42 74        	ld	s0, 0x30(sp)
   15908: e2 69        	ld	s3, 0x18(sp)
   1590a: 42 6a        	ld	s4, 0x10(sp)
   1590c: a2 6a        	ld	s5, 0x8(sp)
   1590e: a2 74        	ld	s1, 0x28(sp)
   15910: 02 79        	ld	s2, 0x20(sp)
   15912: 5a 85        	mv	a0, s6
   15914: 02 6b        	ld	s6, 0x0(sp)
   15916: 21 61        	addi	sp, sp, 0x40
   15918: 82 80        	ret

000000000001591a <_ldtoa_r>:
   1591a: 37 03 02 00  	lui	t1, 0x20
   1591e: 13 03 03 00  	mv	t1, t1
   15922: 03 3f 03 00  	ld	t5, 0x0(t1)
   15926: 83 3e 83 00  	ld	t4, 0x8(t1)
   1592a: 03 2e 03 01  	lw	t3, 0x10(t1)
   1592e: 03 33 05 05  	ld	t1, 0x50(a0)
   15932: 71 71        	addi	sp, sp, -0xb0
   15934: 26 ed        	sd	s1, 0x98(sp)
   15936: 4a e9        	sd	s2, 0x90(sp)
   15938: 52 e1        	sd	s4, 0x80(sp)
   1593a: da f8        	sd	s6, 0x70(sp)
   1593c: de f4        	sd	s7, 0x68(sp)
   1593e: e2 f0        	sd	s8, 0x60(sp)
   15940: e6 ec        	sd	s9, 0x58(sp)
   15942: ea e8        	sd	s10, 0x50(sp)
   15944: 06 f5        	sd	ra, 0xa8(sp)
   15946: 22 f1        	sd	s0, 0xa0(sp)
   15948: 4e e5        	sd	s3, 0x88(sp)
   1594a: d6 fc        	sd	s5, 0x78(sp)
   1594c: ee e4        	sd	s11, 0x48(sp)
   1594e: 7a f4        	sd	t5, 0x28(sp)
   15950: 76 f8        	sd	t4, 0x30(sp)
   15952: 72 dc        	sw	t3, 0x38(sp)
   15954: 2a 8b        	mv	s6, a0
   15956: 2e 89        	mv	s2, a1
   15958: b2 84        	mv	s1, a2
   1595a: 36 8c        	mv	s8, a3
   1595c: ba 8c        	mv	s9, a4
   1595e: be 8b        	mv	s7, a5
   15960: 42 8a        	mv	s4, a6
   15962: 46 8d        	mv	s10, a7
   15964: 63 01 03 02  	beqz	t1, 0x15986 <_ldtoa_r+0x6c>
   15968: 3c 4d        	lw	a5, 0x58(a0)
   1596a: 05 47        	li	a4, 0x1
   1596c: 9a 85        	mv	a1, t1
   1596e: 3b 17 f7 00  	sllw	a4, a4, a5
   15972: 82 17        	slli	a5, a5, 0x20
   15974: 02 17        	slli	a4, a4, 0x20
   15976: 81 93        	srli	a5, a5, 0x20
   15978: d9 8f        	or	a5, a5, a4
   1597a: 23 34 f3 00  	sd	a5, 0x8(t1)
   1597e: ef 10 60 58  	jal	0x16f04 <_Bfree>
   15982: 23 38 0b 04  	sd	zero, 0x50(s6)
   15986: d2 57        	lw	a5, 0x34(sp)
   15988: 93 a5 04 00  	slti	a1, s1, 0x0
   1598c: 13 94 14 00  	slli	s0, s1, 0x1
   15990: 1b d7 17 40  	sraiw	a4, a5, 0x1
   15994: 93 d9 04 02  	srli	s3, s1, 0x20
   15998: f9 8d        	and	a1, a1, a4
   1599a: 05 80        	srli	s0, s0, 0x1
   1599c: 93 a6 04 00  	slti	a3, s1, 0x0
   159a0: 93 9a 14 00  	slli	s5, s1, 0x1
   159a4: 71 77        	lui	a4, 0xffffc
   159a6: 9b 99 09 01  	slliw	s3, s3, 0x10
   159aa: ad 8f        	xor	a5, a5, a1
   159ac: 93 da 1a 03  	srli	s5, s5, 0x31
   159b0: 1b 07 17 f9  	addiw	a4, a4, -0x6f
   159b4: 9b d9 09 01  	srliw	s3, s3, 0x10
   159b8: 23 20 da 00  	sw	a3, 0x0(s4)
   159bc: 4a 86        	mv	a2, s2
   159be: a2 86        	mv	a3, s0
   159c0: 4a 85        	mv	a0, s2
   159c2: a2 85        	mv	a1, s0
   159c4: 3e da        	sw	a5, 0x34(sp)
   159c6: bb 8d ea 00  	addw	s11, s5, a4
   159ca: 4a ec        	sd	s2, 0x18(sp)
   159cc: 26 d0        	sw	s1, 0x20(sp)
   159ce: 4e d2        	sw	s3, 0x24(sp)
   159d0: ef 30 10 2f  	jal	0x194c0 <__unordtf2>
   159d4: 5d e9        	bnez	a0, 0x15a8a <_ldtoa_r+0x170>
   159d6: 37 fa ff 07  	lui	s4, 0x7fff
   159da: 12 1a        	slli	s4, s4, 0x24
   159dc: 7d 1a        	addi	s4, s4, -0x1
   159de: 7d 56        	li	a2, -0x1
   159e0: d2 86        	mv	a3, s4
   159e2: 4a 85        	mv	a0, s2
   159e4: a2 85        	mv	a1, s0
   159e6: ef 30 b0 2d  	jal	0x194c0 <__unordtf2>
   159ea: 39 ed        	bnez	a0, 0x15a48 <_ldtoa_r+0x12e>
   159ec: 7d 56        	li	a2, -0x1
   159ee: d2 86        	mv	a3, s4
   159f0: 4a 85        	mv	a0, s2
   159f2: a2 85        	mv	a1, s0
   159f4: ef 20 70 46  	jal	0x1865a <__lttf2>
   159f8: 63 58 a0 04  	blez	a0, 0x15a48 <_ldtoa_r+0x12e>
   159fc: 8d 47        	li	a5, 0x3
   159fe: 3e ca        	sw	a5, 0x14(sp)
   15a00: e2 87        	mv	a5, s8
   15a02: 58 08        	addi	a4, sp, 0x14
   15a04: 6a e0        	sd	s10, 0x0(sp)
   15a06: de 88        	mv	a7, s7
   15a08: 66 88        	mv	a6, s9
   15a0a: 34 08        	addi	a3, sp, 0x18
   15a0c: 6e 86        	mv	a2, s11
   15a0e: 2c 10        	addi	a1, sp, 0x28
   15a10: 5a 85        	mv	a0, s6
   15a12: ef 00 e0 0e  	jal	0x15b00 <__gdtoa>
   15a16: 03 a7 0b 00  	lw	a4, 0x0(s7)
   15a1a: e1 77        	lui	a5, 0xffff8
   15a1c: 63 17 f7 00  	bne	a4, a5, 0x15a2a <_ldtoa_r+0x110>
   15a20: b7 07 00 80  	lui	a5, 0x80000
   15a24: fd 17        	addi	a5, a5, -0x1
   15a26: 23 a0 fb 00  	sw	a5, 0x0(s7)
   15a2a: aa 70        	ld	ra, 0xa8(sp)
   15a2c: 0a 74        	ld	s0, 0xa0(sp)
   15a2e: ea 64        	ld	s1, 0x98(sp)
   15a30: 4a 69        	ld	s2, 0x90(sp)
   15a32: aa 69        	ld	s3, 0x88(sp)
   15a34: 0a 6a        	ld	s4, 0x80(sp)
   15a36: e6 7a        	ld	s5, 0x78(sp)
   15a38: 46 7b        	ld	s6, 0x70(sp)
   15a3a: a6 7b        	ld	s7, 0x68(sp)
   15a3c: 06 7c        	ld	s8, 0x60(sp)
   15a3e: e6 6c        	ld	s9, 0x58(sp)
   15a40: 46 6d        	ld	s10, 0x50(sp)
   15a42: a6 6d        	ld	s11, 0x48(sp)
   15a44: 4d 61        	addi	sp, sp, 0xb0
   15a46: 82 80        	ret
   15a48: 85 46        	li	a3, 0x1
   15a4a: 01 46        	li	a2, 0x0
   15a4c: c2 16        	slli	a3, a3, 0x30
   15a4e: 4a 85        	mv	a0, s2
   15a50: a2 85        	mv	a1, s0
   15a52: ef 20 b0 36  	jal	0x185bc <__gttf2>
   15a56: 63 49 05 00  	bltz	a0, 0x15a68 <_ldtoa_r+0x14e>
   15a5a: c1 67        	lui	a5, 0x10
   15a5c: b3 e9 f9 00  	or	s3, s3, a5
   15a60: 85 47        	li	a5, 0x1
   15a62: 3e ca        	sw	a5, 0x14(sp)
   15a64: 4e d2        	sw	s3, 0x24(sp)
   15a66: 69 bf        	j	0x15a00 <_ldtoa_r+0xe6>
   15a68: 01 46        	li	a2, 0x0
   15a6a: 81 46        	li	a3, 0x0
   15a6c: 4a 85        	mv	a0, s2
   15a6e: a6 85        	mv	a1, s1
   15a70: ef 20 50 2a  	jal	0x18514 <__netf2>
   15a74: 19 e1        	bnez	a0, 0x15a7a <_ldtoa_r+0x160>
   15a76: 02 ca        	sw	zero, 0x14(sp)
   15a78: 61 b7        	j	0x15a00 <_ldtoa_r+0xe6>
   15a7a: 71 77        	lui	a4, 0xffffc
   15a7c: 1b 07 27 f9  	addiw	a4, a4, -0x6e
   15a80: 89 47        	li	a5, 0x2
   15a82: 3e ca        	sw	a5, 0x14(sp)
   15a84: bb 8d ea 00  	addw	s11, s5, a4
   15a88: a5 bf        	j	0x15a00 <_ldtoa_r+0xe6>
   15a8a: 91 47        	li	a5, 0x4
   15a8c: 3e ca        	sw	a5, 0x14(sp)
   15a8e: 8d bf        	j	0x15a00 <_ldtoa_r+0xe6>

0000000000015a90 <_ldcheck>:
   15a90: 79 71        	addi	sp, sp, -0x30
   15a92: 26 ec        	sd	s1, 0x18(sp)
   15a94: 04 65        	ld	s1, 0x8(a0)
   15a96: 4e e4        	sd	s3, 0x8(sp)
   15a98: 83 39 05 00  	ld	s3, 0x0(a0)
   15a9c: 86 04        	slli	s1, s1, 0x1
   15a9e: 85 80        	srli	s1, s1, 0x1
   15aa0: 4e 86        	mv	a2, s3
   15aa2: a6 86        	mv	a3, s1
   15aa4: 4e 85        	mv	a0, s3
   15aa6: a6 85        	mv	a1, s1
   15aa8: 06 f4        	sd	ra, 0x28(sp)
   15aaa: ef 30 70 21  	jal	0x194c0 <__unordtf2>
   15aae: 39 e1        	bnez	a0, 0x15af4 <_ldcheck+0x64>
   15ab0: 4a e8        	sd	s2, 0x10(sp)
   15ab2: 37 f9 ff 07  	lui	s2, 0x7fff
   15ab6: 12 19        	slli	s2, s2, 0x24
   15ab8: 7d 19        	addi	s2, s2, -0x1
   15aba: 7d 56        	li	a2, -0x1
   15abc: ca 86        	mv	a3, s2
   15abe: 4e 85        	mv	a0, s3
   15ac0: a6 85        	mv	a1, s1
   15ac2: 22 f0        	sd	s0, 0x20(sp)
   15ac4: 05 44        	li	s0, 0x1
   15ac6: ef 30 b0 1f  	jal	0x194c0 <__unordtf2>
   15aca: 01 cd        	beqz	a0, 0x15ae2 <_ldcheck+0x52>
   15acc: a2 70        	ld	ra, 0x28(sp)
   15ace: 13 45 14 00  	xori	a0, s0, 0x1
   15ad2: 02 74        	ld	s0, 0x20(sp)
   15ad4: 06 05        	slli	a0, a0, 0x1
   15ad6: 42 69        	ld	s2, 0x10(sp)
   15ad8: e2 64        	ld	s1, 0x18(sp)
   15ada: a2 69        	ld	s3, 0x8(sp)
   15adc: 09 89        	andi	a0, a0, 0x2
   15ade: 45 61        	addi	sp, sp, 0x30
   15ae0: 82 80        	ret
   15ae2: 7d 56        	li	a2, -0x1
   15ae4: ca 86        	mv	a3, s2
   15ae6: 4e 85        	mv	a0, s3
   15ae8: a6 85        	mv	a1, s1
   15aea: ef 20 10 37  	jal	0x1865a <__lttf2>
   15aee: 13 24 15 00  	slti	s0, a0, 0x1
   15af2: e9 bf        	j	0x15acc <_ldcheck+0x3c>
   15af4: a2 70        	ld	ra, 0x28(sp)
   15af6: e2 64        	ld	s1, 0x18(sp)
   15af8: a2 69        	ld	s3, 0x8(sp)
   15afa: 05 45        	li	a0, 0x1
   15afc: 45 61        	addi	sp, sp, 0x30
   15afe: 82 80        	ret

0000000000015b00 <__gdtoa>:
   15b00: 11 71        	addi	sp, sp, -0x100
   15b02: 66 f5        	sd	s9, 0xa8(sp)
   15b04: 83 2c 07 00  	lw	s9, 0x0(a4)
   15b08: a6 f5        	sd	s1, 0xe8(sp)
   15b0a: d2 e9        	sd	s4, 0xd0(sp)
   15b0c: 13 f3 fc fc  	andi	t1, s9, -0x31
   15b10: 86 fd        	sd	ra, 0xf8(sp)
   15b12: 23 20 67 00  	sw	t1, 0x0(a4)
   15b16: 3a 8a        	mv	s4, a4
   15b18: 12 67        	ld	a4, 0x100(sp)
   15b1a: 13 f3 fc 00  	andi	t1, s9, 0xf
   15b1e: 0d 4e        	li	t3, 0x3
   15b20: 3a e4        	sd	a4, 0x8(sp)
   15b22: 32 e8        	sd	a2, 0x10(sp)
   15b24: c6 84        	mv	s1, a7
   15b26: 63 0a c3 53  	beq	t1, t3, 0x1605a <__gdtoa+0x55a>
   15b2a: ce ed        	sd	s3, 0xd8(sp)
   15b2c: 93 f9 cc 00  	andi	s3, s9, 0xc
   15b30: 63 91 09 4c  	bnez	s3, 0x15ff2 <__gdtoa+0x4f2>
   15b34: a2 f9        	sd	s0, 0xf0(sp)
   15b36: 2a 84        	mv	s0, a0
   15b38: 63 0c 03 4e  	beqz	t1, 0x16030 <__gdtoa+0x530>
   15b3c: 6a f1        	sd	s10, 0xa0(sp)
   15b3e: 03 ad 05 00  	lw	s10, 0x0(a1)
   15b42: ca f1        	sd	s2, 0xe0(sp)
   15b44: da e1        	sd	s6, 0xc0(sp)
   15b46: 5e fd        	sd	s7, 0xb8(sp)
   15b48: 6e ed        	sd	s11, 0x98(sp)
   15b4a: 62 f9        	sd	s8, 0xb0(sp)
   15b4c: b6 8d        	mv	s11, a3
   15b4e: 93 06 00 02  	li	a3, 0x20
   15b52: 2e 8b        	mv	s6, a1
   15b54: 3e 89        	mv	s2, a5
   15b56: c2 8b        	mv	s7, a6
   15b58: 81 45        	li	a1, 0x0
   15b5a: 93 07 00 02  	li	a5, 0x20
   15b5e: 63 d7 a6 01  	bge	a3, s10, 0x15b6c <__gdtoa+0x6c>
   15b62: 9b 97 17 00  	slliw	a5, a5, 0x1
   15b66: 85 25        	addiw	a1, a1, 0x1
   15b68: e3 cd a7 ff  	blt	a5, s10, 0x15b62 <__gdtoa+0x62>
   15b6c: 22 85        	mv	a0, s0
   15b6e: ef 10 20 33  	jal	0x16ea0 <_Balloc>
   15b72: 2a 8c        	mv	s8, a0
   15b74: 63 0f 05 6c  	beqz	a0, 0x16252 <__gdtoa+0x752>
   15b78: 1b 05 fd ff  	addiw	a0, s10, -0x1
   15b7c: 1b 55 55 40  	sraiw	a0, a0, 0x5
   15b80: 93 15 25 00  	slli	a1, a0, 0x2
   15b84: d6 e5        	sd	s5, 0xc8(sp)
   15b86: ee 95        	add	a1, a1, s11
   15b88: 93 06 8c 01  	addi	a3, s8, 0x18
   15b8c: ee 87        	mv	a5, s11
   15b8e: 98 43        	lw	a4, 0x0(a5)
   15b90: 91 07        	addi	a5, a5, 0x4
   15b92: 91 06        	addi	a3, a3, 0x4
   15b94: 23 ae e6 fe  	sw	a4, -0x4(a3)
   15b98: e3 fb f5 fe  	bgeu	a1, a5, 0x15b8e <__gdtoa+0x8e>
   15b9c: 85 05        	addi	a1, a1, 0x1
   15b9e: 93 87 1d 00  	addi	a5, s11, 0x1
   15ba2: 91 46        	li	a3, 0x4
   15ba4: 63 e5 f5 00  	bltu	a1, a5, 0x15bae <__gdtoa+0xae>
   15ba8: 0a 05        	slli	a0, a0, 0x2
   15baa: 93 06 45 00  	addi	a3, a0, 0x4
   15bae: 93 d7 26 40  	srai	a5, a3, 0x2
   15bb2: 81 27        	sext.w	a5, a5
   15bb4: e2 96        	add	a3, a3, s8
   15bb6: 21 a0        	j	0x15bbe <__gdtoa+0xbe>
   15bb8: f1 16        	addi	a3, a3, -0x4
   15bba: 63 85 07 4e  	beqz	a5, 0x160a4 <__gdtoa+0x5a4>
   15bbe: d8 4a        	lw	a4, 0x14(a3)
   15bc0: be 8a        	mv	s5, a5
   15bc2: fd 37        	addiw	a5, a5, -0x1
   15bc4: 75 db        	beqz	a4, 0x15bb8 <__gdtoa+0xb8>
   15bc6: 91 07        	addi	a5, a5, 0x4
   15bc8: 8a 07        	slli	a5, a5, 0x2
   15bca: e2 97        	add	a5, a5, s8
   15bcc: 88 47        	lw	a0, 0x8(a5)
   15bce: 23 2a 5c 01  	sw	s5, 0x14(s8)
   15bd2: 9b 9a 5a 00  	slliw	s5, s5, 0x5
   15bd6: ef 10 40 51  	jal	0x170ea <__hi0bits>
   15bda: bb 87 aa 40  	subw	a5, s5, a0
   15bde: 62 85        	mv	a0, s8
   15be0: 3e ec        	sd	a5, 0x18(sp)
   15be2: ef 10 80 23  	jal	0x16e1a <__trailz_D2A>
   15be6: 2a c7        	sw	a0, 0x8c(sp)
   15be8: 42 66        	ld	a2, 0x10(sp)
   15bea: e2 67        	ld	a5, 0x18(sp)
   15bec: 63 10 05 4e  	bnez	a0, 0x160cc <__gdtoa+0x5cc>
   15bf0: 83 26 4c 01  	lw	a3, 0x14(s8)
   15bf4: 63 83 06 42  	beqz	a3, 0x1601a <__gdtoa+0x51a>
   15bf8: 6c 01        	addi	a1, sp, 0x8c
   15bfa: 62 85        	mv	a0, s8
   15bfc: 3e f0        	sd	a5, 0x20(sp)
   15bfe: 32 ec        	sd	a2, 0x18(sp)
   15c00: ef 10 b0 46  	jal	0x1786a <__b2d>
   15c04: 53 05 05 e2  	fmv.x.d	a0, fa0
   15c08: 37 03 f0 3f  	lui	t1, 0x3ff00
   15c0c: fd 56        	li	a3, -0x1
   15c0e: 93 15 c5 00  	slli	a1, a0, 0xc
   15c12: b1 91        	srli	a1, a1, 0x2c
   15c14: b3 e8 65 00  	or	a7, a1, t1
   15c18: 81 92        	srli	a3, a3, 0x20
   15c1a: 82 18        	slli	a7, a7, 0x20
   15c1c: e9 8e        	and	a3, a3, a0
   15c1e: b3 e6 16 01  	or	a3, a3, a7
   15c22: 07 b7 81 80  	fld	fa4, -0x7f8(gp)
   15c26: d3 87 06 f2  	fmv.d.x	fa5, a3
   15c2a: 87 b6 01 81  	fld	fa3, -0x7f0(gp)
   15c2e: 53 f7 e7 0a  	fsub.d	fa4, fa5, fa4
   15c32: 87 b7 81 81  	fld	fa5, -0x7e8(gp)
   15c36: 62 66        	ld	a2, 0x18(sp)
   15c38: 82 77        	ld	a5, 0x20(sp)
   15c3a: b3 ee 65 00  	or	t4, a1, t1
   15c3e: 43 77 d7 7a  	fmadd.d	fa4, fa4, fa3, fa5
   15c42: bb 0a f6 00  	addw	s5, a2, a5
   15c46: 9b 88 fa ff  	addiw	a7, s5, -0x1
   15c4a: d3 87 08 d2  	fcvt.d.w	fa5, a7
   15c4e: 87 b6 01 82  	fld	fa3, -0x7e0(gp)
   15c52: 1b 85 08 00  	sext.w	a0, a7
   15c56: c3 f7 d7 72  	fmadd.d	fa5, fa5, fa3, fa4
   15c5a: 63 55 05 00  	bgez	a0, 0x15c64 <__gdtoa+0x164>
   15c5e: 05 45        	li	a0, 0x1
   15c60: 3b 05 55 41  	subw	a0, a0, s5
   15c64: 1b 03 b5 bc  	addiw	t1, a0, -0x435
   15c68: 63 58 60 00  	blez	t1, 0x15c78 <__gdtoa+0x178>
   15c6c: d3 06 03 d2  	fcvt.d.w	fa3, t1
   15c70: 07 b7 81 82  	fld	fa4, -0x7d8(gp)
   15c74: c3 f7 e6 7a  	fmadd.d	fa5, fa3, fa4, fa5
   15c78: 53 07 00 f2  	fmv.d.x	fa4, zero
   15c7c: 53 95 07 c2  	fcvt.w.d	a0, fa5, rtz
   15c80: 53 9e e7 a2  	flt.d	t3, fa5, fa4
   15c84: 1b 03 05 00  	sext.w	t1, a0
   15c88: 63 10 0e 70  	bnez	t3, 0x16388 <__gdtoa+0x888>
   15c8c: 9b 95 48 01  	slliw	a1, a7, 0x14
   15c90: bb 85 d5 01  	addw	a1, a1, t4
   15c94: 82 16        	slli	a3, a3, 0x20
   15c96: 3b 8f 17 41  	subw	t5, a5, a7
   15c9a: 82 15        	slli	a1, a1, 0x20
   15c9c: 81 92        	srli	a3, a3, 0x20
   15c9e: 1b 05 03 00  	sext.w	a0, t1
   15ca2: d9 4e        	li	t4, 0x16
   15ca4: fa 88        	mv	a7, t5
   15ca6: cd 8e        	or	a3, a3, a1
   15ca8: 1b 0e ff ff  	addiw	t3, t5, -0x1
   15cac: 63 ef ae 3e  	bltu	t4, a0, 0x160aa <__gdtoa+0x5aa>
   15cb0: b7 05 02 00  	lui	a1, 0x20
   15cb4: 93 85 85 07  	addi	a1, a1, 0x78
   15cb8: 13 15 33 00  	slli	a0, t1, 0x3
   15cbc: aa 95        	add	a1, a1, a0
   15cbe: 9c 21        	fld	fa5, 0x0(a1)
   15cc0: 53 87 06 f2  	fmv.d.x	fa4, a3
   15cc4: d3 15 f7 a2  	flt.d	a1, fa4, fa5
   15cc8: 63 94 05 5c  	bnez	a1, 0x16290 <__gdtoa+0x790>
   15ccc: 82 f8        	sd	zero, 0x70(sp)
   15cce: 02 ec        	sd	zero, 0x18(sp)
   15cd0: 63 47 e0 01  	bgtz	t5, 0x15cde <__gdtoa+0x1de>
   15cd4: 85 45        	li	a1, 0x1
   15cd6: 3b 87 e5 41  	subw	a4, a1, t5
   15cda: 3a ec        	sd	a4, 0x18(sp)
   15cdc: 01 4e        	li	t3, 0x0
   15cde: 3b 0e c3 01  	addw	t3, t1, t3
   15ce2: 1a fc        	sd	t1, 0x38(sp)
   15ce4: 02 f8        	sd	zero, 0x30(sp)
   15ce6: a5 45        	li	a1, 0x9
   15ce8: 63 ed 25 3f  	bltu	a1, s2, 0x160e2 <__gdtoa+0x5e2>
   15cec: 95 45        	li	a1, 0x5
   15cee: 63 c4 25 59  	blt	a1, s2, 0x16276 <__gdtoa+0x776>
   15cf2: 9b 8a da 3f  	addiw	s5, s5, 0x3fd
   15cf6: 11 45        	li	a0, 0x4
   15cf8: 93 ba 8a 7f  	sltiu	s5, s5, 0x7f8
   15cfc: e3 09 a9 22  	beq	s2, a0, 0x1672e <__gdtoa+0xc2e>
   15d00: e3 03 b9 22  	beq	s2, a1, 0x16726 <__gdtoa+0xc26>
   15d04: 89 45        	li	a1, 0x2
   15d06: e3 07 b9 22  	beq	s2, a1, 0x16734 <__gdtoa+0xc34>
   15d0a: 8d 45        	li	a1, 0x3
   15d0c: 82 e0        	sd	zero, 0x40(sp)
   15d0e: 63 1f b9 3c  	bne	s2, a1, 0x160ec <__gdtoa+0x5ec>
   15d12: 62 77        	ld	a4, 0x38(sp)
   15d14: bb 05 77 01  	addw	a1, a4, s7
   15d18: 1b 87 15 00  	addiw	a4, a1, 0x1
   15d1c: 3a f4        	sd	a4, 0x28(sp)
   15d1e: ae fc        	sd	a1, 0x78(sp)
   15d20: e3 58 e0 04  	blez	a4, 0x16570 <__gdtoa+0xa70>
   15d24: ba 88        	mv	a7, a4
   15d26: ba 85        	mv	a1, a4
   15d28: 22 85        	mv	a0, s0
   15d2a: b6 f4        	sd	a3, 0x68(sp)
   15d2c: be f0        	sd	a5, 0x60(sp)
   15d2e: f2 ec        	sd	t3, 0x58(sp)
   15d30: 9a e8        	sd	t1, 0x50(sp)
   15d32: b2 e4        	sd	a2, 0x48(sp)
   15d34: 46 c7        	sw	a7, 0x8c(sp)
   15d36: ef 00 90 61  	jal	0x16b4e <__rv_alloc_D2A>
   15d3a: 2a 88        	mv	a6, a0
   15d3c: 63 0a 05 34  	beqz	a0, 0x16090 <__gdtoa+0x590>
   15d40: 03 27 cb 00  	lw	a4, 0xc(s6)
   15d44: 26 66        	ld	a2, 0x48(sp)
   15d46: 46 63        	ld	t1, 0x50(sp)
   15d48: 7d 37        	addiw	a4, a4, -0x1
   15d4a: 3a f0        	sd	a4, 0x20(sp)
   15d4c: 66 6e        	ld	t3, 0x58(sp)
   15d4e: 86 77        	ld	a5, 0x60(sp)
   15d50: a6 76        	ld	a3, 0x68(sp)
   15d52: 63 03 07 3c  	beqz	a4, 0x16118 <__gdtoa+0x618>
   15d56: 63 4d 07 50  	bltz	a4, 0x16270 <__gdtoa+0x770>
   15d5a: 93 fc 0c 10  	andi	s9, s9, 0x100
   15d5e: 63 98 0c 3a  	bnez	s9, 0x1610e <__gdtoa+0x60e>
   15d62: 63 46 06 00  	bltz	a2, 0x15d6e <__gdtoa+0x26e>
   15d66: 62 77        	ld	a4, 0x38(sp)
   15d68: b9 45        	li	a1, 0xe
   15d6a: 63 d6 e5 52  	bge	a1, a4, 0x16296 <__gdtoa+0x796>
   15d6e: 06 67        	ld	a4, 0x40(sp)
   15d70: 63 0c 07 4e  	beqz	a4, 0x16268 <__gdtoa+0x768>
   15d74: 3b 0d fd 40  	subw	s10, s10, a5
   15d78: 83 26 4b 00  	lw	a3, 0x4(s6)
   15d7c: 9b 05 1d 00  	addiw	a1, s10, 0x1
   15d80: 2e c7        	sw	a1, 0x8c(sp)
   15d82: 3b 0d a6 41  	subw	s10, a2, s10
   15d86: e3 58 dd 02  	bge	s10, a3, 0x165b6 <__gdtoa+0xab6>
   15d8a: 9b 05 d9 ff  	addiw	a1, s2, -0x3
   15d8e: f5 99        	andi	a1, a1, -0x3
   15d90: 81 25        	sext.w	a1, a1
   15d92: 63 82 05 76  	beqz	a1, 0x164f6 <__gdtoa+0x9f6>
   15d96: bb 06 d6 40  	subw	a3, a2, a3
   15d9a: 9b 85 16 00  	addiw	a1, a3, 0x1
   15d9e: 2e c7        	sw	a1, 0x8c(sp)
   15da0: 05 46        	li	a2, 0x1
   15da2: ae 86        	mv	a3, a1
   15da4: 63 58 26 01  	bge	a2, s2, 0x15db4 <__gdtoa+0x2b4>
   15da8: 22 77        	ld	a4, 0x28(sp)
   15daa: 63 55 e0 00  	blez	a4, 0x15db4 <__gdtoa+0x2b4>
   15dae: 22 77        	ld	a4, 0x28(sp)
   15db0: e3 42 b7 46  	blt	a4, a1, 0x16a14 <__gdtoa+0xf14>
   15db4: 62 67        	ld	a4, 0x18(sp)
   15db6: 42 7d        	ld	s10, 0x30(sp)
   15db8: 3b 8e c6 01  	addw	t3, a3, t3
   15dbc: ba 8c        	mv	s9, a4
   15dbe: 35 9f        	addw	a4, a4, a3
   15dc0: 3a ec        	sd	a4, 0x18(sp)
   15dc2: 85 45        	li	a1, 0x1
   15dc4: 22 85        	mv	a0, s0
   15dc6: c2 f0        	sd	a6, 0x60(sp)
   15dc8: be ec        	sd	a5, 0x58(sp)
   15dca: f2 e8        	sd	t3, 0x50(sp)
   15dcc: 9a e4        	sd	t1, 0x48(sp)
   15dce: ef 10 20 41  	jal	0x171e0 <__i2b>
   15dd2: 26 63        	ld	t1, 0x48(sp)
   15dd4: 46 6e        	ld	t3, 0x50(sp)
   15dd6: e6 67        	ld	a5, 0x58(sp)
   15dd8: 06 78        	ld	a6, 0x60(sp)
   15dda: aa 8a        	mv	s5, a0
   15ddc: 63 0a 05 2a  	beqz	a0, 0x16090 <__gdtoa+0x590>
   15de0: 63 80 0c 02  	beqz	s9, 0x15e00 <__gdtoa+0x300>
   15de4: 63 5e c0 01  	blez	t3, 0x15e00 <__gdtoa+0x300>
   15de8: e6 86        	mv	a3, s9
   15dea: 63 53 9e 01  	bge	t3, s9, 0x15df0 <__gdtoa+0x2f0>
   15dee: f2 86        	mv	a3, t3
   15df0: 62 67        	ld	a4, 0x18(sp)
   15df2: 36 c7        	sw	a3, 0x8c(sp)
   15df4: bb 8c dc 40  	subw	s9, s9, a3
   15df8: 15 9f        	subw	a4, a4, a3
   15dfa: 3a ec        	sd	a4, 0x18(sp)
   15dfc: 3b 0e de 40  	subw	t3, t3, a3
   15e00: 42 77        	ld	a4, 0x30(sp)
   15e02: 0d c7        	beqz	a4, 0x15e2c <__gdtoa+0x32c>
   15e04: 06 67        	ld	a4, 0x40(sp)
   15e06: 19 c3        	beqz	a4, 0x15e0c <__gdtoa+0x30c>
   15e08: e3 1d 0d 06  	bnez	s10, 0x16682 <__gdtoa+0xb82>
   15e0c: 42 76        	ld	a2, 0x30(sp)
   15e0e: e2 85        	mv	a1, s8
   15e10: 22 85        	mv	a0, s0
   15e12: c2 f0        	sd	a6, 0x60(sp)
   15e14: be ec        	sd	a5, 0x58(sp)
   15e16: f2 e8        	sd	t3, 0x50(sp)
   15e18: 9a e4        	sd	t1, 0x48(sp)
   15e1a: ef 10 e0 5d  	jal	0x173f8 <__pow5mult>
   15e1e: 26 63        	ld	t1, 0x48(sp)
   15e20: 46 6e        	ld	t3, 0x50(sp)
   15e22: e6 67        	ld	a5, 0x58(sp)
   15e24: 06 78        	ld	a6, 0x60(sp)
   15e26: 2a 8c        	mv	s8, a0
   15e28: 63 04 05 26  	beqz	a0, 0x16090 <__gdtoa+0x590>
   15e2c: 85 45        	li	a1, 0x1
   15e2e: 22 85        	mv	a0, s0
   15e30: c2 ec        	sd	a6, 0x58(sp)
   15e32: be e8        	sd	a5, 0x50(sp)
   15e34: f2 e4        	sd	t3, 0x48(sp)
   15e36: 1a f8        	sd	t1, 0x30(sp)
   15e38: ef 10 80 3a  	jal	0x171e0 <__i2b>
   15e3c: 2a 8d        	mv	s10, a0
   15e3e: 63 09 05 24  	beqz	a0, 0x16090 <__gdtoa+0x590>
   15e42: 42 73        	ld	t1, 0x30(sp)
   15e44: 26 6e        	ld	t3, 0x48(sp)
   15e46: c6 67        	ld	a5, 0x50(sp)
   15e48: 66 68        	ld	a6, 0x58(sp)
   15e4a: 63 17 03 72  	bnez	t1, 0x16578 <__gdtoa+0xa78>
   15e4e: 85 46        	li	a3, 0x1
   15e50: 63 de 26 51  	bge	a3, s2, 0x1636c <__gdtoa+0x86c>
   15e54: 7d 45        	li	a0, 0x1f
   15e56: e2 67        	ld	a5, 0x18(sp)
   15e58: bb 09 c5 41  	subw	s3, a0, t3
   15e5c: f1 39        	addiw	s3, s3, -0x4
   15e5e: 93 f9 f9 01  	andi	s3, s3, 0x1f
   15e62: 3b 86 f9 00  	addw	a2, s3, a5
   15e66: 4e c7        	sw	s3, 0x8c(sp)
   15e68: ce 87        	mv	a5, s3
   15e6a: 63 4e c0 5a  	bgtz	a2, 0x16426 <__gdtoa+0x926>
   15e6e: 3b 06 fe 00  	addw	a2, t3, a5
   15e72: 63 44 c0 20  	bgtz	a2, 0x1607a <__gdtoa+0x57a>
   15e76: c6 77        	ld	a5, 0x70(sp)
   15e78: 63 96 07 5c  	bnez	a5, 0x16444 <__gdtoa+0x944>
   15e7c: a2 77        	ld	a5, 0x28(sp)
   15e7e: 63 5c f0 68  	blez	a5, 0x16516 <__gdtoa+0xa16>
   15e82: 86 67        	ld	a5, 0x40(sp)
   15e84: 63 8e 07 5e  	beqz	a5, 0x16480 <__gdtoa+0x980>
   15e88: 3b 86 99 01  	addw	a2, s3, s9
   15e8c: e3 4c c0 06  	bgtz	a2, 0x16704 <__gdtoa+0xc04>
   15e90: 56 ec        	sd	s5, 0x18(sp)
   15e92: e3 12 03 0c  	bnez	t1, 0x16756 <__gdtoa+0xc56>
   15e96: 6e e8        	sd	s11, 0x10(sp)
   15e98: a6 e0        	sd	s1, 0x40(sp)
   15e9a: a2 7d        	ld	s11, 0x28(sp)
   15e9c: e2 64        	ld	s1, 0x18(sp)
   15e9e: c2 8b        	mv	s7, a6
   15ea0: 85 46        	li	a3, 0x1
   15ea2: 42 f8        	sd	a6, 0x30(sp)
   15ea4: 52 f4        	sd	s4, 0x28(sp)
   15ea6: 8d a8        	j	0x15f18 <__gdtoa+0x418>
   15ea8: 22 85        	mv	a0, s0
   15eaa: ef 10 a0 05  	jal	0x16f04 <_Bfree>
   15eae: e3 49 0b 12  	bltz	s6, 0x167e0 <__gdtoa+0xce0>
   15eb2: 33 6b 69 01  	or	s6, s2, s6
   15eb6: 01 2b        	sext.w	s6, s6
   15eb8: 63 17 0b 00  	bnez	s6, 0x15ec6 <__gdtoa+0x3c6>
   15ebc: c2 67        	ld	a5, 0x10(sp)
   15ebe: 9c 43        	lw	a5, 0x0(a5)
   15ec0: 85 8b        	andi	a5, a5, 0x1
   15ec2: e3 8f 07 10  	beqz	a5, 0x167e0 <__gdtoa+0xce0>
   15ec6: 82 77        	ld	a5, 0x20(sp)
   15ec8: 09 47        	li	a4, 0x2
   15eca: e3 92 e7 2c  	bne	a5, a4, 0x1698e <__gdtoa+0xe8e>
   15ece: 23 80 4b 01  	sb	s4, 0x0(s7)
   15ed2: ba 47        	lw	a5, 0x8c(sp)
   15ed4: 85 0b        	addi	s7, s7, 0x1
   15ed6: e3 85 b7 23  	beq	a5, s11, 0x16900 <__gdtoa+0xe00>
   15eda: e2 85        	mv	a1, s8
   15edc: 81 46        	li	a3, 0x0
   15ede: 29 46        	li	a2, 0xa
   15ee0: 22 85        	mv	a0, s0
   15ee2: ef 10 40 03  	jal	0x16f16 <__multadd>
   15ee6: 2a 8c        	mv	s8, a0
   15ee8: 63 04 05 1a  	beqz	a0, 0x16090 <__gdtoa+0x590>
   15eec: 81 46        	li	a3, 0x0
   15eee: 29 46        	li	a2, 0xa
   15ef0: d6 85        	mv	a1, s5
   15ef2: 22 85        	mv	a0, s0
   15ef4: 63 80 9a 4c  	beq	s5, s1, 0x163b4 <__gdtoa+0x8b4>
   15ef8: ef 10 e0 01  	jal	0x16f16 <__multadd>
   15efc: aa 8a        	mv	s5, a0
   15efe: 63 09 05 18  	beqz	a0, 0x16090 <__gdtoa+0x590>
   15f02: a6 85        	mv	a1, s1
   15f04: 81 46        	li	a3, 0x0
   15f06: 29 46        	li	a2, 0xa
   15f08: 22 85        	mv	a0, s0
   15f0a: ef 10 c0 00  	jal	0x16f16 <__multadd>
   15f0e: aa 84        	mv	s1, a0
   15f10: 63 00 05 18  	beqz	a0, 0x16090 <__gdtoa+0x590>
   15f14: ba 46        	lw	a3, 0x8c(sp)
   15f16: 85 26        	addiw	a3, a3, 0x1
   15f18: ea 85        	mv	a1, s10
   15f1a: 62 85        	mv	a0, s8
   15f1c: 36 c7        	sw	a3, 0x8c(sp)
   15f1e: ef 00 d0 4e  	jal	0x16c0a <__quorem_D2A>
   15f22: 1b 0a 05 03  	addiw	s4, a0, 0x30
   15f26: d6 85        	mv	a1, s5
   15f28: aa 8c        	mv	s9, a0
   15f2a: 62 85        	mv	a0, s8
   15f2c: ef 10 e0 6c  	jal	0x175fa <__mcmp>
   15f30: ea 85        	mv	a1, s10
   15f32: 2a 8b        	mv	s6, a0
   15f34: 26 86        	mv	a2, s1
   15f36: 22 85        	mv	a0, s0
   15f38: ef 10 a0 6f  	jal	0x17632 <__mdiff>
   15f3c: d2 89        	mv	s3, s4
   15f3e: aa 85        	mv	a1, a0
   15f40: 63 08 05 14  	beqz	a0, 0x16090 <__gdtoa+0x590>
   15f44: 1c 49        	lw	a5, 0x10(a0)
   15f46: ad f3        	bnez	a5, 0x15ea8 <__gdtoa+0x3a8>
   15f48: 2a ec        	sd	a0, 0x18(sp)
   15f4a: 62 85        	mv	a0, s8
   15f4c: ef 10 e0 6a  	jal	0x175fa <__mcmp>
   15f50: e2 65        	ld	a1, 0x18(sp)
   15f52: aa 86        	mv	a3, a0
   15f54: 22 85        	mv	a0, s0
   15f56: 36 ec        	sd	a3, 0x18(sp)
   15f58: ef 00 d0 7a  	jal	0x16f04 <_Bfree>
   15f5c: e2 66        	ld	a3, 0x18(sp)
   15f5e: 33 67 d9 00  	or	a4, s2, a3
   15f62: 01 27        	sext.w	a4, a4
   15f64: e3 1e 07 38  	bnez	a4, 0x16b00 <__gdtoa+0x1000>
   15f68: c2 67        	ld	a5, 0x10(sp)
   15f6a: 9c 43        	lw	a5, 0x0(a5)
   15f6c: 85 8b        	andi	a5, a5, 0x1
   15f6e: 63 9a 07 44  	bnez	a5, 0x163c2 <__gdtoa+0x8c2>
   15f72: 82 77        	ld	a5, 0x20(sp)
   15f74: e3 82 07 2c  	beqz	a5, 0x16a38 <__gdtoa+0xf38>
   15f78: e3 4b 60 f5  	bgtz	s6, 0x15ece <__gdtoa+0x3ce>
   15f7c: 03 26 4c 01  	lw	a2, 0x14(s8)
   15f80: 26 ec        	sd	s1, 0x18(sp)
   15f82: 85 46        	li	a3, 0x1
   15f84: 52 83        	mv	t1, s4
   15f86: 42 78        	ld	a6, 0x30(sp)
   15f88: 22 7a        	ld	s4, 0x28(sp)
   15f8a: 86 64        	ld	s1, 0x40(sp)
   15f8c: ba 89        	mv	s3, a4
   15f8e: e3 d6 c6 34  	bge	a3, a2, 0x16ada <__gdtoa+0xfda>
   15f92: 82 77        	ld	a5, 0x20(sp)
   15f94: 89 46        	li	a3, 0x2
   15f96: e3 85 d7 32  	beq	a5, a3, 0x16ac0 <__gdtoa+0xfc0>
   15f9a: 62 6b        	ld	s6, 0x18(sp)
   15f9c: 9a 89        	mv	s3, t1
   15f9e: c2 8d        	mv	s11, a6
   15fa0: 29 a8        	j	0x15fba <__gdtoa+0x4ba>
   15fa2: ef 00 50 77  	jal	0x16f16 <__multadd>
   15fa6: ea 85        	mv	a1, s10
   15fa8: 2a 8c        	mv	s8, a0
   15faa: 63 03 05 0e  	beqz	a0, 0x16090 <__gdtoa+0x590>
   15fae: ef 00 d0 45  	jal	0x16c0a <__quorem_D2A>
   15fb2: 9b 09 05 03  	addiw	s3, a0, 0x30
   15fb6: e6 8b        	mv	s7, s9
   15fb8: 4a 8b        	mv	s6, s2
   15fba: da 85        	mv	a1, s6
   15fbc: 6a 85        	mv	a0, s10
   15fbe: ef 10 c0 63  	jal	0x175fa <__mcmp>
   15fc2: aa 87        	mv	a5, a0
   15fc4: 81 46        	li	a3, 0x0
   15fc6: 29 46        	li	a2, 0xa
   15fc8: da 85        	mv	a1, s6
   15fca: 22 85        	mv	a0, s0
   15fcc: 93 8c 1b 00  	addi	s9, s7, 0x1
   15fd0: e3 5d f0 2c  	blez	a5, 0x16aaa <__gdtoa+0xfaa>
   15fd4: a3 8f 3c ff  	sb	s3, -0x1(s9)
   15fd8: ef 00 f0 73  	jal	0x16f16 <__multadd>
   15fdc: 2a 89        	mv	s2, a0
   15fde: 81 46        	li	a3, 0x0
   15fe0: 29 46        	li	a2, 0xa
   15fe2: e2 85        	mv	a1, s8
   15fe4: 22 85        	mv	a0, s0
   15fe6: 63 05 09 0a  	beqz	s2, 0x16090 <__gdtoa+0x590>
   15fea: e3 9c 6a fb  	bne	s5, s6, 0x15fa2 <__gdtoa+0x4a2>
   15fee: ca 8a        	mv	s5, s2
   15ff0: 4d bf        	j	0x15fa2 <__gdtoa+0x4a2>
   15ff2: 91 47        	li	a5, 0x4
   15ff4: 63 16 f3 0a  	bne	t1, a5, 0x160a0 <__gdtoa+0x5a0>
   15ff8: 22 66        	ld	a2, 0x8(sp)
   15ffa: ee 69        	ld	s3, 0xd8(sp)
   15ffc: ee 70        	ld	ra, 0xf8(sp)
   15ffe: ae 74        	ld	s1, 0xe8(sp)
   16000: 4e 6a        	ld	s4, 0xd0(sp)
   16002: aa 7c        	ld	s9, 0xa8(sp)
   16004: e1 77        	lui	a5, 0xffff8
   16006: 23 a0 f8 00  	sw	a5, 0x0(a7)
   1600a: b7 05 02 00  	lui	a1, 0x20
   1600e: 8d 46        	li	a3, 0x3
   16010: 93 85 05 c2  	addi	a1, a1, -0x3e0
   16014: 11 61        	addi	sp, sp, 0x100
   16016: 6f 00 b0 36  	j	0x16b80 <__nrv_alloc_D2A>
   1601a: e2 85        	mv	a1, s8
   1601c: 22 85        	mv	a0, s0
   1601e: ef 00 70 6e  	jal	0x16f04 <_Bfree>
   16022: 0e 79        	ld	s2, 0xe0(sp)
   16024: ae 6a        	ld	s5, 0xc8(sp)
   16026: 0e 6b        	ld	s6, 0xc0(sp)
   16028: ea 7b        	ld	s7, 0xb8(sp)
   1602a: 4a 7c        	ld	s8, 0xb0(sp)
   1602c: 0a 7d        	ld	s10, 0xa0(sp)
   1602e: ea 6d        	ld	s11, 0x98(sp)
   16030: 22 66        	ld	a2, 0x8(sp)
   16032: 85 47        	li	a5, 0x1
   16034: b7 05 02 00  	lui	a1, 0x20
   16038: 22 85        	mv	a0, s0
   1603a: 9c c0        	sw	a5, 0x0(s1)
   1603c: 85 46        	li	a3, 0x1
   1603e: 93 85 05 bf  	addi	a1, a1, -0x410
   16042: ef 00 f0 33  	jal	0x16b80 <__nrv_alloc_D2A>
   16046: 4e 74        	ld	s0, 0xf0(sp)
   16048: 2a 88        	mv	a6, a0
   1604a: ee 70        	ld	ra, 0xf8(sp)
   1604c: ee 69        	ld	s3, 0xd8(sp)
   1604e: ae 74        	ld	s1, 0xe8(sp)
   16050: 4e 6a        	ld	s4, 0xd0(sp)
   16052: aa 7c        	ld	s9, 0xa8(sp)
   16054: 42 85        	mv	a0, a6
   16056: 11 61        	addi	sp, sp, 0x100
   16058: 82 80        	ret
   1605a: 22 66        	ld	a2, 0x8(sp)
   1605c: ee 70        	ld	ra, 0xf8(sp)
   1605e: ae 74        	ld	s1, 0xe8(sp)
   16060: 4e 6a        	ld	s4, 0xd0(sp)
   16062: aa 7c        	ld	s9, 0xa8(sp)
   16064: e1 77        	lui	a5, 0xffff8
   16066: 23 a0 f8 00  	sw	a5, 0x0(a7)
   1606a: b7 05 02 00  	lui	a1, 0x20
   1606e: a1 46        	li	a3, 0x8
   16070: 93 85 05 c1  	addi	a1, a1, -0x3f0
   16074: 11 61        	addi	sp, sp, 0x100
   16076: 6f 00 b0 30  	j	0x16b80 <__nrv_alloc_D2A>
   1607a: ea 85        	mv	a1, s10
   1607c: 22 85        	mv	a0, s0
   1607e: 42 ec        	sd	a6, 0x18(sp)
   16080: 1a e8        	sd	t1, 0x10(sp)
   16082: ef 10 00 45  	jal	0x174d2 <__lshift>
   16086: 42 63        	ld	t1, 0x10(sp)
   16088: 62 68        	ld	a6, 0x18(sp)
   1608a: 2a 8d        	mv	s10, a0
   1608c: e3 15 05 de  	bnez	a0, 0x15e76 <__gdtoa+0x376>
   16090: 4e 74        	ld	s0, 0xf0(sp)
   16092: 0e 79        	ld	s2, 0xe0(sp)
   16094: ae 6a        	ld	s5, 0xc8(sp)
   16096: 0e 6b        	ld	s6, 0xc0(sp)
   16098: ea 7b        	ld	s7, 0xb8(sp)
   1609a: 4a 7c        	ld	s8, 0xb0(sp)
   1609c: 0a 7d        	ld	s10, 0xa0(sp)
   1609e: ea 6d        	ld	s11, 0x98(sp)
   160a0: 01 48        	li	a6, 0x0
   160a2: 65 b7        	j	0x1604a <__gdtoa+0x54a>
   160a4: 23 2a 0c 00  	sw	zero, 0x14(s8)
   160a8: 1d be        	j	0x15bde <__gdtoa+0xde>
   160aa: 05 47        	li	a4, 0x1
   160ac: ba f8        	sd	a4, 0x70(sp)
   160ae: 02 ec        	sd	zero, 0x18(sp)
   160b0: 63 44 0e 1a  	bltz	t3, 0x16258 <__gdtoa+0x758>
   160b4: e3 55 03 c2  	bgez	t1, 0x15cde <__gdtoa+0x1de>
   160b8: 62 67        	ld	a4, 0x18(sp)
   160ba: 1a fc        	sd	t1, 0x38(sp)
   160bc: 3b 07 67 40  	subw	a4, a4, t1
   160c0: 3a ec        	sd	a4, 0x18(sp)
   160c2: 3b 07 60 40  	negw	a4, t1
   160c6: 3a f8        	sd	a4, 0x30(sp)
   160c8: 01 43        	li	t1, 0x0
   160ca: 31 b9        	j	0x15ce6 <__gdtoa+0x1e6>
   160cc: aa 85        	mv	a1, a0
   160ce: 62 85        	mv	a0, s8
   160d0: ef 00 b0 4a  	jal	0x16d7a <__rshift_D2A>
   160d4: ba 46        	lw	a3, 0x8c(sp)
   160d6: c2 67        	ld	a5, 0x10(sp)
   160d8: 3b 86 f6 00  	addw	a2, a3, a5
   160dc: e2 67        	ld	a5, 0x18(sp)
   160de: 95 9f        	subw	a5, a5, a3
   160e0: 01 be        	j	0x15bf0 <__gdtoa+0xf0>
   160e2: 9b 8a da 3f  	addiw	s5, s5, 0x3fd
   160e6: 93 ba 8a 7f  	sltiu	s5, s5, 0x7f8
   160ea: 01 49        	li	s2, 0x0
   160ec: 07 b7 01 83  	fld	fa4, -0x7d0(gp)
   160f0: d3 07 0d d2  	fcvt.d.w	fa5, s10
   160f4: 05 47        	li	a4, 0x1
   160f6: ba e0        	sd	a4, 0x40(sp)
   160f8: d3 f7 e7 12  	fmul.d	fa5, fa5, fa4
   160fc: 7d 57        	li	a4, -0x1
   160fe: 81 4b        	li	s7, 0x0
   16100: ba fc        	sd	a4, 0x78(sp)
   16102: 3a f4        	sd	a4, 0x28(sp)
   16104: d3 95 07 c2  	fcvt.w.d	a1, fa5, rtz
   16108: 8d 25        	addiw	a1, a1, 0x3
   1610a: ae 88        	mv	a7, a1
   1610c: 31 b9        	j	0x15d28 <__gdtoa+0x228>
   1610e: 02 77        	ld	a4, 0x20(sp)
   16110: 8d 45        	li	a1, 0x3
   16112: 3b 87 e5 40  	subw	a4, a1, a4
   16116: 3a f0        	sd	a4, 0x20(sp)
   16118: 22 77        	ld	a4, 0x28(sp)
   1611a: 39 45        	li	a0, 0xe
   1611c: 9b 05 07 00  	sext.w	a1, a4
   16120: e3 61 b5 c4  	bltu	a0, a1, 0x15d62 <__gdtoa+0x262>
   16124: e3 8f 0a c2  	beqz	s5, 0x15d62 <__gdtoa+0x262>
   16128: e2 75        	ld	a1, 0x38(sp)
   1612a: 02 75        	ld	a0, 0x20(sp)
   1612c: c9 8d        	or	a1, a1, a0
   1612e: 81 25        	sext.w	a1, a1
   16130: e3 99 05 c2  	bnez	a1, 0x15d62 <__gdtoa+0x262>
   16134: c6 75        	ld	a1, 0x70(sp)
   16136: 02 c7        	sw	zero, 0x8c(sp)
   16138: b6 8e        	mv	t4, a3
   1613a: 89 c9        	beqz	a1, 0x1614c <__gdtoa+0x64c>
   1613c: 87 b7 81 83  	fld	fa5, -0x7c8(gp)
   16140: 53 87 06 f2  	fmv.d.x	fa4, a3
   16144: d3 15 f7 a2  	flt.d	a1, fa4, fa5
   16148: 63 94 05 7c  	bnez	a1, 0x16910 <__gdtoa+0xe10>
   1614c: 07 b7 81 85  	fld	fa4, -0x7a8(gp)
   16150: 87 b7 01 85  	fld	fa5, -0x7b0(gp)
   16154: d3 86 0e f2  	fmv.d.x	fa3, t4
   16158: b7 05 c0 fc  	lui	a1, 0xfcc00
   1615c: 22 77        	ld	a4, 0x28(sp)
   1615e: c3 f7 e6 7a  	fmadd.d	fa5, fa3, fa4, fa5
   16162: 53 85 07 e2  	fmv.x.d	a0, fa5
   16166: 13 5f 05 02  	srli	t5, a0, 0x20
   1616a: bb 85 e5 01  	addw	a1, a1, t5
   1616e: 7d 5f        	li	t5, -0x1
   16170: 13 5f 0f 02  	srli	t5, t5, 0x20
   16174: 82 15        	slli	a1, a1, 0x20
   16176: 33 7f af 00  	and	t5, t5, a0
   1617a: 33 6f bf 00  	or	t5, t5, a1
   1617e: 63 09 07 4c  	beqz	a4, 0x16650 <__gdtoa+0xb50>
   16182: a2 7f        	ld	t6, 0x28(sp)
   16184: 76 85        	mv	a0, t4
   16186: 81 43        	li	t2, 0x0
   16188: b7 05 02 00  	lui	a1, 0x20
   1618c: 9b 82 ff ff  	addiw	t0, t6, -0x1
   16190: 06 67        	ld	a4, 0x40(sp)
   16192: 93 85 85 07  	addi	a1, a1, 0x78
   16196: 8e 02        	slli	t0, t0, 0x3
   16198: ae 92        	add	t0, t0, a1
   1619a: 87 b7 02 00  	fld	fa5, 0x0(t0)
   1619e: 63 0b 07 6c  	beqz	a4, 0x16874 <__gdtoa+0xd74>
   161a2: 53 07 05 f2  	fmv.d.x	fa4, a0
   161a6: d3 06 05 f2  	fmv.d.x	fa3, a0
   161aa: d3 16 07 c2  	fcvt.w.d	a3, fa4, rtz
   161ae: 07 b7 81 86  	fld	fa4, -0x798(gp)
   161b2: 93 0c 18 00  	addi	s9, a6, 0x1
   161b6: 53 77 f7 1a  	fdiv.d	fa4, fa4, fa5
   161ba: d3 87 06 d2  	fcvt.d.w	fa5, a3
   161be: 9b 86 06 03  	addiw	a3, a3, 0x30
   161c2: 23 00 d8 00  	sb	a3, 0x0(a6)
   161c6: d3 f7 f6 0a  	fsub.d	fa5, fa3, fa5
   161ca: d3 06 0f f2  	fmv.d.x	fa3, t5
   161ce: 53 77 d7 0a  	fsub.d	fa4, fa4, fa3
   161d2: d3 96 e7 a2  	flt.d	a3, fa5, fa4
   161d6: e3 9c 06 00  	bnez	a3, 0x169ee <__gdtoa+0xeee>
   161da: 87 b5 81 83  	fld	fa1, -0x7c8(gp)
   161de: 07 b6 01 84  	fld	fa2, -0x7c0(gp)
   161e2: 0d a8        	j	0x16214 <__gdtoa+0x714>
   161e4: 3a 47        	lw	a4, 0x8c(sp)
   161e6: 85 0c        	addi	s9, s9, 0x1
   161e8: 05 27        	addiw	a4, a4, 0x1
   161ea: 3a c7        	sw	a4, 0x8c(sp)
   161ec: e3 5e f7 01  	bge	a4, t6, 0x16a08 <__gdtoa+0xf08>
   161f0: d3 f7 c7 12  	fmul.d	fa5, fa5, fa2
   161f4: 53 77 c7 12  	fmul.d	fa4, fa4, fa2
   161f8: 53 97 07 c2  	fcvt.w.d	a4, fa5, rtz
   161fc: d3 06 07 d2  	fcvt.d.w	fa3, a4
   16200: 1b 07 07 03  	addiw	a4, a4, 0x30
   16204: a3 8f ec fe  	sb	a4, -0x1(s9)
   16208: d3 f7 d7 0a  	fsub.d	fa5, fa5, fa3
   1620c: 53 97 e7 a2  	flt.d	a4, fa5, fa4
   16210: 63 1f 07 7c  	bnez	a4, 0x169ee <__gdtoa+0xeee>
   16214: d3 f6 f5 0a  	fsub.d	fa3, fa1, fa5
   16218: 53 97 e6 a2  	flt.d	a4, fa3, fa4
   1621c: 61 d7        	beqz	a4, 0x161e4 <__gdtoa+0x6e4>
   1621e: 83 c6 fc ff  	lbu	a3, -0x1(s9)
   16222: 9b 85 13 00  	addiw	a1, t2, 0x1
   16226: 13 06 90 03  	li	a2, 0x39
   1622a: 31 a0        	j	0x16236 <__gdtoa+0x736>
   1622c: 63 00 f8 64  	beq	a6, a5, 0x1686c <__gdtoa+0xd6c>
   16230: 83 c6 f7 ff  	lbu	a3, -0x1(a5)
   16234: be 8c        	mv	s9, a5
   16236: 93 87 fc ff  	addi	a5, s9, -0x1
   1623a: e3 89 c6 fe  	beq	a3, a2, 0x1622c <__gdtoa+0x72c>
   1623e: 85 26        	addiw	a3, a3, 0x1
   16240: 93 f6 f6 0f  	andi	a3, a3, 0xff
   16244: 23 80 d7 00  	sb	a3, 0x0(a5)
   16248: 1b 89 05 00  	sext.w	s2, a1
   1624c: 93 09 00 02  	li	s3, 0x20
   16250: cd a0        	j	0x16332 <__gdtoa+0x832>
   16252: 4e 74        	ld	s0, 0xf0(sp)
   16254: 0e 79        	ld	s2, 0xe0(sp)
   16256: 81 b5        	j	0x16096 <__gdtoa+0x596>
   16258: 85 45        	li	a1, 0x1
   1625a: 3b 87 15 41  	subw	a4, a1, a7
   1625e: 3a ec        	sd	a4, 0x18(sp)
   16260: 01 4e        	li	t3, 0x0
   16262: e3 4b 03 e4  	bltz	t1, 0x160b8 <__gdtoa+0x5b8>
   16266: a5 bc        	j	0x15cde <__gdtoa+0x1de>
   16268: 42 7d        	ld	s10, 0x30(sp)
   1626a: e2 6c        	ld	s9, 0x18(sp)
   1626c: 81 4a        	li	s5, 0x0
   1626e: 8d be        	j	0x15de0 <__gdtoa+0x2e0>
   16270: 09 47        	li	a4, 0x2
   16272: 3a f0        	sd	a4, 0x20(sp)
   16274: dd b4        	j	0x15d5a <__gdtoa+0x25a>
   16276: 71 39        	addiw	s2, s2, -0x4
   16278: 11 45        	li	a0, 0x4
   1627a: 63 00 a9 12  	beq	s2, a0, 0x1639a <__gdtoa+0x89a>
   1627e: 63 0f b9 48  	beq	s2, a1, 0x1671c <__gdtoa+0xc1c>
   16282: 89 45        	li	a1, 0x2
   16284: 82 e0        	sd	zero, 0x40(sp)
   16286: 81 4a        	li	s5, 0x0
   16288: 63 0c b9 10  	beq	s2, a1, 0x163a0 <__gdtoa+0x8a0>
   1628c: 0d 49        	li	s2, 0x3
   1628e: 51 b4        	j	0x15d12 <__gdtoa+0x212>
   16290: 7d 33        	addiw	t1, t1, -0x1
   16292: 82 f8        	sd	zero, 0x70(sp)
   16294: 29 bd        	j	0x160ae <__gdtoa+0x5ae>
   16296: b7 07 02 00  	lui	a5, 0x20
   1629a: 13 16 37 00  	slli	a2, a4, 0x3
   1629e: 93 87 87 07  	addi	a5, a5, 0x78
   162a2: b2 97        	add	a5, a5, a2
   162a4: 98 23        	fld	fa4, 0x0(a5)
   162a6: 63 ca 0b 32  	bltz	s7, 0x165da <__gdtoa+0xada>
   162aa: d3 87 06 f2  	fmv.d.x	fa5, a3
   162ae: 85 47        	li	a5, 0x1
   162b0: 3e c7        	sw	a5, 0x8c(sp)
   162b2: d3 f7 e7 1a  	fdiv.d	fa5, fa5, fa4
   162b6: e2 77        	ld	a5, 0x38(sp)
   162b8: d3 86 06 f2  	fmv.d.x	fa3, a3
   162bc: 93 0c 18 00  	addi	s9, a6, 0x1
   162c0: 1b 89 17 00  	addiw	s2, a5, 0x1
   162c4: ca 85        	mv	a1, s2
   162c6: d3 97 07 c2  	fcvt.w.d	a5, fa5, rtz
   162ca: d3 87 07 d2  	fcvt.d.w	fa5, a5
   162ce: 1b 86 07 03  	addiw	a2, a5, 0x30
   162d2: 23 00 c8 00  	sb	a2, 0x0(a6)
   162d6: cb 77 f7 6a  	fnmsub.d	fa5, fa4, fa5, fa3
   162da: d3 06 00 f2  	fmv.d.x	fa3, zero
   162de: 81 27        	sext.w	a5, a5
   162e0: d3 a6 d7 a2  	feq.d	a3, fa5, fa3
   162e4: b9 e6        	bnez	a3, 0x16332 <__gdtoa+0x832>
   162e6: 87 b5 01 84  	fld	fa1, -0x7c0(gp)
   162ea: 53 86 d6 22  	fmv.d	fa2, fa3
   162ee: 22 76        	ld	a2, 0x28(sp)
   162f0: 2d a0        	j	0x1631a <__gdtoa+0x81a>
   162f2: d3 f7 b7 12  	fmul.d	fa5, fa5, fa1
   162f6: 36 c7        	sw	a3, 0x8c(sp)
   162f8: 85 0c        	addi	s9, s9, 0x1
   162fa: d3 f6 e7 1a  	fdiv.d	fa3, fa5, fa4
   162fe: d3 97 06 c2  	fcvt.w.d	a5, fa3, rtz
   16302: d3 86 07 d2  	fcvt.d.w	fa3, a5
   16306: 1b 87 07 03  	addiw	a4, a5, 0x30
   1630a: a3 8f ec fe  	sb	a4, -0x1(s9)
   1630e: cb f7 e6 7a  	fnmsub.d	fa5, fa3, fa4, fa5
   16312: 81 27        	sext.w	a5, a5
   16314: 53 a7 c7 a2  	feq.d	a4, fa5, fa2
   16318: 09 ef        	bnez	a4, 0x16332 <__gdtoa+0x832>
   1631a: 3a 47        	lw	a4, 0x8c(sp)
   1631c: 9b 06 17 00  	addiw	a3, a4, 0x1
   16320: e3 19 c7 fc  	bne	a4, a2, 0x162f2 <__gdtoa+0x7f2>
   16324: 02 77        	ld	a4, 0x20(sp)
   16326: 63 08 07 50  	beqz	a4, 0x16836 <__gdtoa+0xd36>
   1632a: 85 47        	li	a5, 0x1
   1632c: c1 49        	li	s3, 0x10
   1632e: 63 08 f7 62  	beq	a4, a5, 0x1695e <__gdtoa+0xe5e>
   16332: e2 85        	mv	a1, s8
   16334: 22 85        	mv	a0, s0
   16336: 42 e8        	sd	a6, 0x10(sp)
   16338: ef 00 d0 3c  	jal	0x16f04 <_Bfree>
   1633c: a2 67        	ld	a5, 0x8(sp)
   1633e: 23 80 0c 00  	sb	zero, 0x0(s9)
   16342: 23 a0 24 01  	sw	s2, 0x0(s1)
   16346: 42 68        	ld	a6, 0x10(sp)
   16348: 99 c3        	beqz	a5, 0x1634e <__gdtoa+0x84e>
   1634a: 23 b0 97 01  	sd	s9, 0x0(a5)
   1634e: 83 27 0a 00  	lw	a5, 0x0(s4)
   16352: 4e 74        	ld	s0, 0xf0(sp)
   16354: 0e 79        	ld	s2, 0xe0(sp)
   16356: b3 e7 f9 00  	or	a5, s3, a5
   1635a: ae 6a        	ld	s5, 0xc8(sp)
   1635c: 0e 6b        	ld	s6, 0xc0(sp)
   1635e: ea 7b        	ld	s7, 0xb8(sp)
   16360: 4a 7c        	ld	s8, 0xb0(sp)
   16362: 0a 7d        	ld	s10, 0xa0(sp)
   16364: ea 6d        	ld	s11, 0x98(sp)
   16366: 23 20 fa 00  	sw	a5, 0x0(s4)
   1636a: c5 b1        	j	0x1604a <__gdtoa+0x54a>
   1636c: e3 94 d7 ae  	bne	a5, a3, 0x15e54 <__gdtoa+0x354>
   16370: 83 27 4b 00  	lw	a5, 0x4(s6)
   16374: 42 67        	ld	a4, 0x10(sp)
   16376: 85 27        	addiw	a5, a5, 0x1
   16378: e3 de e7 ac  	bge	a5, a4, 0x15e54 <__gdtoa+0x354>
   1637c: e2 67        	ld	a5, 0x18(sp)
   1637e: 05 2e        	addiw	t3, t3, 0x1
   16380: 05 43        	li	t1, 0x1
   16382: 85 27        	addiw	a5, a5, 0x1
   16384: 3e ec        	sd	a5, 0x18(sp)
   16386: f9 b4        	j	0x15e54 <__gdtoa+0x354>
   16388: 53 07 05 d2  	fcvt.d.w	fa4, a0
   1638c: d3 25 f7 a2  	feq.d	a1, fa4, fa5
   16390: e3 9e 05 8e  	bnez	a1, 0x15c8c <__gdtoa+0x18c>
   16394: 1b 03 f5 ff  	addiw	t1, a0, -0x1
   16398: d5 b8        	j	0x15c8c <__gdtoa+0x18c>
   1639a: 05 47        	li	a4, 0x1
   1639c: 81 4a        	li	s5, 0x0
   1639e: ba e0        	sd	a4, 0x40(sp)
   163a0: 9b 85 0b 00  	sext.w	a1, s7
   163a4: 63 43 70 01  	bgtz	s7, 0x163aa <__gdtoa+0x8aa>
   163a8: 85 45        	li	a1, 0x1
   163aa: ae 88        	mv	a7, a1
   163ac: ae fc        	sd	a1, 0x78(sp)
   163ae: 2e f4        	sd	a1, 0x28(sp)
   163b0: ae 8b        	mv	s7, a1
   163b2: 9d ba        	j	0x15d28 <__gdtoa+0x228>
   163b4: ef 00 30 36  	jal	0x16f16 <__multadd>
   163b8: aa 8a        	mv	s5, a0
   163ba: e3 0b 05 cc  	beqz	a0, 0x16090 <__gdtoa+0x590>
   163be: aa 84        	mv	s1, a0
   163c0: 91 be        	j	0x15f14 <__gdtoa+0x414>
   163c2: e3 56 0b b0  	bgez	s6, 0x15ece <__gdtoa+0x3ce>
   163c6: 82 77        	ld	a5, 0x20(sp)
   163c8: 26 ec        	sd	s1, 0x18(sp)
   163ca: 52 83        	mv	t1, s4
   163cc: 42 78        	ld	a6, 0x30(sp)
   163ce: 22 7a        	ld	s4, 0x28(sp)
   163d0: 86 64        	ld	s1, 0x40(sp)
   163d2: ba 89        	mv	s3, a4
   163d4: 63 9e 07 6e  	bnez	a5, 0x16ad0 <__gdtoa+0xfd0>
   163d8: 03 26 4c 01  	lw	a2, 0x14(s8)
   163dc: 85 46        	li	a3, 0x1
   163de: c1 49        	li	s3, 0x10
   163e0: 93 8c 1b 00  	addi	s9, s7, 0x1
   163e4: 63 db c6 68  	bge	a3, a2, 0x16a7a <__gdtoa+0xf7a>
   163e8: 23 80 6b 00  	sb	t1, 0x0(s7)
   163ec: 56 8b        	mv	s6, s5
   163ee: e2 6a        	ld	s5, 0x18(sp)
   163f0: ea 85        	mv	a1, s10
   163f2: 22 85        	mv	a0, s0
   163f4: 42 e8        	sd	a6, 0x10(sp)
   163f6: ef 00 f0 30  	jal	0x16f04 <_Bfree>
   163fa: e2 77        	ld	a5, 0x38(sp)
   163fc: 42 68        	ld	a6, 0x10(sp)
   163fe: 1b 89 17 00  	addiw	s2, a5, 0x1
   16402: e3 88 0a f2  	beqz	s5, 0x16332 <__gdtoa+0x832>
   16406: 63 09 0b 00  	beqz	s6, 0x16418 <__gdtoa+0x918>
   1640a: 63 07 5b 01  	beq	s6, s5, 0x16418 <__gdtoa+0x918>
   1640e: da 85        	mv	a1, s6
   16410: 22 85        	mv	a0, s0
   16412: ef 00 30 2f  	jal	0x16f04 <_Bfree>
   16416: 42 68        	ld	a6, 0x10(sp)
   16418: d6 85        	mv	a1, s5
   1641a: 22 85        	mv	a0, s0
   1641c: 42 e8        	sd	a6, 0x10(sp)
   1641e: ef 00 70 2e  	jal	0x16f04 <_Bfree>
   16422: 42 68        	ld	a6, 0x10(sp)
   16424: 39 b7        	j	0x16332 <__gdtoa+0x832>
   16426: e2 85        	mv	a1, s8
   16428: 22 85        	mv	a0, s0
   1642a: 42 f8        	sd	a6, 0x30(sp)
   1642c: 72 ec        	sd	t3, 0x18(sp)
   1642e: 1a e8        	sd	t1, 0x10(sp)
   16430: ef 10 20 0a  	jal	0x174d2 <__lshift>
   16434: 2a 8c        	mv	s8, a0
   16436: e3 0d 05 c4  	beqz	a0, 0x16090 <__gdtoa+0x590>
   1643a: ba 47        	lw	a5, 0x8c(sp)
   1643c: 42 78        	ld	a6, 0x30(sp)
   1643e: 62 6e        	ld	t3, 0x18(sp)
   16440: 42 63        	ld	t1, 0x10(sp)
   16442: 35 b4        	j	0x15e6e <__gdtoa+0x36e>
   16444: ea 85        	mv	a1, s10
   16446: 62 85        	mv	a0, s8
   16448: 42 ec        	sd	a6, 0x18(sp)
   1644a: 1a e8        	sd	t1, 0x10(sp)
   1644c: ef 10 e0 1a  	jal	0x175fa <__mcmp>
   16450: 42 63        	ld	t1, 0x10(sp)
   16452: 62 68        	ld	a6, 0x18(sp)
   16454: e3 54 05 a2  	bgez	a0, 0x15e7c <__gdtoa+0x37c>
   16458: e2 77        	ld	a5, 0x38(sp)
   1645a: e2 85        	mv	a1, s8
   1645c: 81 46        	li	a3, 0x0
   1645e: fd 37        	addiw	a5, a5, -0x1
   16460: 29 46        	li	a2, 0xa
   16462: 22 85        	mv	a0, s0
   16464: 3e fc        	sd	a5, 0x38(sp)
   16466: ef 00 10 2b  	jal	0x16f16 <__multadd>
   1646a: 2a 8c        	mv	s8, a0
   1646c: e3 02 05 c2  	beqz	a0, 0x16090 <__gdtoa+0x590>
   16470: 86 67        	ld	a5, 0x40(sp)
   16472: 62 68        	ld	a6, 0x18(sp)
   16474: 63 91 07 54  	bnez	a5, 0x169b6 <__gdtoa+0xeb6>
   16478: e6 77        	ld	a5, 0x78(sp)
   1647a: 63 5a f0 14  	blez	a5, 0x165ce <__gdtoa+0xace>
   1647e: 3e f4        	sd	a5, 0x28(sp)
   16480: 22 79        	ld	s2, 0x28(sp)
   16482: c2 8b        	mv	s7, a6
   16484: 85 46        	li	a3, 0x1
   16486: c2 89        	mv	s3, a6
   16488: 01 a8        	j	0x16498 <__gdtoa+0x998>
   1648a: ef 00 d0 28  	jal	0x16f16 <__multadd>
   1648e: 2a 8c        	mv	s8, a0
   16490: e3 00 05 c0  	beqz	a0, 0x16090 <__gdtoa+0x590>
   16494: ba 46        	lw	a3, 0x8c(sp)
   16496: 85 26        	addiw	a3, a3, 0x1
   16498: ea 85        	mv	a1, s10
   1649a: 62 85        	mv	a0, s8
   1649c: 36 c7        	sw	a3, 0x8c(sp)
   1649e: ef 00 c0 76  	jal	0x16c0a <__quorem_D2A>
   164a2: 1b 03 05 03  	addiw	t1, a0, 0x30
   164a6: 23 80 6b 00  	sb	t1, 0x0(s7)
   164aa: ba 47        	lw	a5, 0x8c(sp)
   164ac: 81 46        	li	a3, 0x0
   164ae: 29 46        	li	a2, 0xa
   164b0: e2 85        	mv	a1, s8
   164b2: 22 85        	mv	a0, s0
   164b4: 85 0b        	addi	s7, s7, 0x1
   164b6: e3 ca 27 fd  	blt	a5, s2, 0x1648a <__gdtoa+0x98a>
   164ba: 4e 88        	mv	a6, s3
   164bc: 01 4b        	li	s6, 0x0
   164be: 82 77        	ld	a5, 0x20(sp)
   164c0: 63 87 07 2c  	beqz	a5, 0x1678e <__gdtoa+0xc8e>
   164c4: 89 46        	li	a3, 0x2
   164c6: 03 26 4c 01  	lw	a2, 0x14(s8)
   164ca: 63 88 d7 2e  	beq	a5, a3, 0x167ba <__gdtoa+0xcba>
   164ce: 85 46        	li	a3, 0x1
   164d0: 63 c9 c6 20  	blt	a3, a2, 0x166e2 <__gdtoa+0xbe2>
   164d4: 83 26 8c 01  	lw	a3, 0x18(s8)
   164d8: 63 95 06 20  	bnez	a3, 0x166e2 <__gdtoa+0xbe2>
   164dc: b3 36 d0 00  	snez	a3, a3
   164e0: 93 99 46 00  	slli	s3, a3, 0x4
   164e4: 13 06 00 03  	li	a2, 0x30
   164e8: 83 c7 fb ff  	lbu	a5, -0x1(s7)
   164ec: de 8c        	mv	s9, s7
   164ee: fd 1b        	addi	s7, s7, -0x1
   164f0: e3 8c c7 fe  	beq	a5, a2, 0x164e8 <__gdtoa+0x9e8>
   164f4: f5 bd        	j	0x163f0 <__gdtoa+0x8f0>
   164f6: 22 77        	ld	a4, 0x28(sp)
   164f8: 42 76        	ld	a2, 0x30(sp)
   164fa: 9b 06 f7 ff  	addiw	a3, a4, -0x1
   164fe: 63 41 d6 10  	blt	a2, a3, 0x16600 <__gdtoa+0xb00>
   16502: 3b 0d d6 40  	subw	s10, a2, a3
   16506: 63 5b 07 46  	bgez	a4, 0x1697c <__gdtoa+0xe7c>
   1650a: 62 67        	ld	a4, 0x18(sp)
   1650c: a2 76        	ld	a3, 0x28(sp)
   1650e: 02 c7        	sw	zero, 0x8c(sp)
   16510: bb 0c d7 40  	subw	s9, a4, a3
   16514: 7d b0        	j	0x15dc2 <__gdtoa+0x2c2>
   16516: 89 47        	li	a5, 0x2
   16518: e3 d5 27 97  	bge	a5, s2, 0x15e82 <__gdtoa+0x382>
   1651c: ea 85        	mv	a1, s10
   1651e: 81 46        	li	a3, 0x0
   16520: 15 46        	li	a2, 0x5
   16522: 22 85        	mv	a0, s0
   16524: 42 e8        	sd	a6, 0x10(sp)
   16526: ef 00 10 1f  	jal	0x16f16 <__multadd>
   1652a: aa 85        	mv	a1, a0
   1652c: e3 02 05 b6  	beqz	a0, 0x16090 <__gdtoa+0x590>
   16530: a2 77        	ld	a5, 0x28(sp)
   16532: 42 68        	ld	a6, 0x10(sp)
   16534: 63 92 07 14  	bnez	a5, 0x16678 <__gdtoa+0xb78>
   16538: 2a e8        	sd	a0, 0x10(sp)
   1653a: 62 85        	mv	a0, s8
   1653c: 42 ec        	sd	a6, 0x18(sp)
   1653e: ef 10 c0 0b  	jal	0x175fa <__mcmp>
   16542: e2 77        	ld	a5, 0x38(sp)
   16544: c2 65        	ld	a1, 0x10(sp)
   16546: 62 68        	ld	a6, 0x18(sp)
   16548: 1b 89 27 00  	addiw	s2, a5, 0x2
   1654c: 63 56 a0 12  	blez	a0, 0x16678 <__gdtoa+0xb78>
   16550: 93 07 10 03  	li	a5, 0x31
   16554: 93 0c 18 00  	addi	s9, a6, 0x1
   16558: 23 00 f8 00  	sb	a5, 0x0(a6)
   1655c: 93 09 00 02  	li	s3, 0x20
   16560: 22 85        	mv	a0, s0
   16562: 42 e8        	sd	a6, 0x10(sp)
   16564: ef 00 10 1a  	jal	0x16f04 <_Bfree>
   16568: 42 68        	ld	a6, 0x10(sp)
   1656a: e3 84 0a dc  	beqz	s5, 0x16332 <__gdtoa+0x832>
   1656e: 6d b5        	j	0x16418 <__gdtoa+0x918>
   16570: 85 48        	li	a7, 0x1
   16572: 85 45        	li	a1, 0x1
   16574: 6f f0 4f fb  	j	0x15d28 <__gdtoa+0x228>
   16578: aa 85        	mv	a1, a0
   1657a: 1a 86        	mv	a2, t1
   1657c: 22 85        	mv	a0, s0
   1657e: c2 e4        	sd	a6, 0x48(sp)
   16580: 72 f8        	sd	t3, 0x30(sp)
   16582: ef 00 70 67  	jal	0x173f8 <__pow5mult>
   16586: 2a 8d        	mv	s10, a0
   16588: e3 04 05 b0  	beqz	a0, 0x16090 <__gdtoa+0x590>
   1658c: 85 46        	li	a3, 0x1
   1658e: 42 7e        	ld	t3, 0x30(sp)
   16590: 26 68        	ld	a6, 0x48(sp)
   16592: 63 d3 26 1b  	bge	a3, s2, 0x16738 <__gdtoa+0xc38>
   16596: 83 27 4d 01  	lw	a5, 0x14(s10)
   1659a: 42 f8        	sd	a6, 0x30(sp)
   1659c: 72 e8        	sd	t3, 0x10(sp)
   1659e: fd 37        	addiw	a5, a5, -0x1
   165a0: 91 07        	addi	a5, a5, 0x4
   165a2: 8a 07        	slli	a5, a5, 0x2
   165a4: ea 97        	add	a5, a5, s10
   165a6: 88 47        	lw	a0, 0x8(a5)
   165a8: ef 00 30 34  	jal	0x170ea <__hi0bits>
   165ac: 42 78        	ld	a6, 0x30(sp)
   165ae: 42 6e        	ld	t3, 0x10(sp)
   165b0: 4e 83        	mv	t1, s3
   165b2: 6f f0 5f 8a  	j	0x15e56 <__gdtoa+0x356>
   165b6: 85 46        	li	a3, 0x1
   165b8: e3 cf 26 f3  	blt	a3, s2, 0x164f6 <__gdtoa+0x9f6>
   165bc: 62 67        	ld	a4, 0x18(sp)
   165be: 42 7d        	ld	s10, 0x30(sp)
   165c0: 3b 8e c5 01  	addw	t3, a1, t3
   165c4: ba 8c        	mv	s9, a4
   165c6: 2d 9f        	addw	a4, a4, a1
   165c8: 3a ec        	sd	a4, 0x18(sp)
   165ca: 6f f0 8f ff  	j	0x15dc2 <__gdtoa+0x2c2>
   165ce: 89 47        	li	a5, 0x2
   165d0: 63 cb 27 4b  	blt	a5, s2, 0x16a86 <__gdtoa+0xf86>
   165d4: e6 77        	ld	a5, 0x78(sp)
   165d6: 3e f4        	sd	a5, 0x28(sp)
   165d8: 65 b5        	j	0x16480 <__gdtoa+0x980>
   165da: a2 77        	ld	a5, 0x28(sp)
   165dc: e3 47 f0 cc  	bgtz	a5, 0x162aa <__gdtoa+0x7aa>
   165e0: d1 eb        	bnez	a5, 0x16674 <__gdtoa+0xb74>
   165e2: 87 b7 01 86  	fld	fa5, -0x7a0(gp)
   165e6: 53 77 f7 12  	fmul.d	fa4, fa4, fa5
   165ea: d3 87 06 f2  	fmv.d.x	fa5, a3
   165ee: d3 87 e7 a2  	fle.d	a5, fa5, fa4
   165f2: c9 e3        	bnez	a5, 0x16674 <__gdtoa+0xb74>
   165f4: e2 77        	ld	a5, 0x38(sp)
   165f6: 81 45        	li	a1, 0x0
   165f8: 81 4a        	li	s5, 0x0
   165fa: 1b 89 27 00  	addiw	s2, a5, 0x2
   165fe: 89 bf        	j	0x16550 <__gdtoa+0xa50>
   16600: 42 77        	ld	a4, 0x30(sp)
   16602: e2 65        	ld	a1, 0x18(sp)
   16604: 01 4d        	li	s10, 0x0
   16606: 3b 86 e6 40  	subw	a2, a3, a4
   1660a: 22 77        	ld	a4, 0x28(sp)
   1660c: ae 8c        	mv	s9, a1
   1660e: 3b 03 66 00  	addw	t1, a2, t1
   16612: 3a c7        	sw	a4, 0x8c(sp)
   16614: 3b 0e c7 01  	addw	t3, a4, t3
   16618: 2d 9f        	addw	a4, a4, a1
   1661a: 3a ec        	sd	a4, 0x18(sp)
   1661c: 36 f8        	sd	a3, 0x30(sp)
   1661e: 6f f0 4f fa  	j	0x15dc2 <__gdtoa+0x2c2>
   16622: 87 b7 81 85  	fld	fa5, -0x7a8(gp)
   16626: 07 b7 01 85  	fld	fa4, -0x7b0(gp)
   1662a: d3 86 0e f2  	fmv.d.x	fa3, t4
   1662e: b7 06 c0 fc  	lui	a3, 0xfcc00
   16632: 7d 5f        	li	t5, -0x1
   16634: c3 f7 f6 72  	fmadd.d	fa5, fa3, fa5, fa4
   16638: 13 5f 0f 02  	srli	t5, t5, 0x20
   1663c: d3 85 07 e2  	fmv.x.d	a1, fa5
   16640: 13 d5 05 02  	srli	a0, a1, 0x20
   16644: a9 9e        	addw	a3, a3, a0
   16646: 82 16        	slli	a3, a3, 0x20
   16648: 33 7f bf 00  	and	t5, t5, a1
   1664c: 33 6f df 00  	or	t5, t5, a3
   16650: 87 b7 01 86  	fld	fa5, -0x7a0(gp)
   16654: 53 87 0e f2  	fmv.d.x	fa4, t4
   16658: d3 77 f7 0a  	fsub.d	fa5, fa4, fa5
   1665c: 53 07 0f f2  	fmv.d.x	fa4, t5
   16660: d3 16 f7 a2  	flt.d	a3, fa4, fa5
   16664: 63 98 06 30  	bnez	a3, 0x16974 <__gdtoa+0xe74>
   16668: 53 17 e7 22  	fneg.d	fa4, fa4
   1666c: d3 96 e7 a2  	flt.d	a3, fa5, fa4
   16670: 63 8a 06 2e  	beqz	a3, 0x16964 <__gdtoa+0xe64>
   16674: 81 45        	li	a1, 0x0
   16676: 81 4a        	li	s5, 0x0
   16678: 3b 09 70 41  	negw	s2, s7
   1667c: c2 8c        	mv	s9, a6
   1667e: c1 49        	li	s3, 0x10
   16680: c5 b5        	j	0x16560 <__gdtoa+0xa60>
   16682: d6 85        	mv	a1, s5
   16684: 6a 86        	mv	a2, s10
   16686: 22 85        	mv	a0, s0
   16688: c2 f0        	sd	a6, 0x60(sp)
   1668a: be ec        	sd	a5, 0x58(sp)
   1668c: f2 e8        	sd	t3, 0x50(sp)
   1668e: 9a e4        	sd	t1, 0x48(sp)
   16690: ef 00 90 56  	jal	0x173f8 <__pow5mult>
   16694: aa 8a        	mv	s5, a0
   16696: e3 0d 05 9e  	beqz	a0, 0x16090 <__gdtoa+0x590>
   1669a: aa 85        	mv	a1, a0
   1669c: 62 86        	mv	a2, s8
   1669e: 22 85        	mv	a0, s0
   166a0: ef 00 d0 3a  	jal	0x1724c <__multiply>
   166a4: aa f4        	sd	a0, 0x68(sp)
   166a6: e3 05 05 9e  	beqz	a0, 0x16090 <__gdtoa+0x590>
   166aa: e2 85        	mv	a1, s8
   166ac: 22 85        	mv	a0, s0
   166ae: ef 00 70 05  	jal	0x16f04 <_Bfree>
   166b2: c2 77        	ld	a5, 0x30(sp)
   166b4: a6 76        	ld	a3, 0x68(sp)
   166b6: 26 63        	ld	t1, 0x48(sp)
   166b8: 3b 87 a7 41  	subw	a4, a5, s10
   166bc: 3a f8        	sd	a4, 0x30(sp)
   166be: 46 6e        	ld	t3, 0x50(sp)
   166c0: e6 67        	ld	a5, 0x58(sp)
   166c2: 06 78        	ld	a6, 0x60(sp)
   166c4: 36 8c        	mv	s8, a3
   166c6: 63 03 07 f6  	beqz	a4, 0x15e2c <__gdtoa+0x32c>
   166ca: 6f f0 2f f4  	j	0x15e0c <__gdtoa+0x30c>
   166ce: 56 8b        	mv	s6, s5
   166d0: e2 6a        	ld	s5, 0x18(sp)
   166d2: de 86        	mv	a3, s7
   166d4: 93 8c 1b 00  	addi	s9, s7, 0x1
   166d8: 13 06 90 03  	li	a2, 0x39
   166dc: e6 8b        	mv	s7, s9
   166de: 23 80 c6 00  	sb	a2, 0x0(a3)
   166e2: 13 06 90 03  	li	a2, 0x39
   166e6: 19 a0        	j	0x166ec <__gdtoa+0xbec>
   166e8: 63 02 78 0f  	beq	a6, s7, 0x167cc <__gdtoa+0xccc>
   166ec: 83 c6 fb ff  	lbu	a3, -0x1(s7)
   166f0: de 8c        	mv	s9, s7
   166f2: fd 1b        	addi	s7, s7, -0x1
   166f4: e3 8a c6 fe  	beq	a3, a2, 0x166e8 <__gdtoa+0xbe8>
   166f8: 85 26        	addiw	a3, a3, 0x1
   166fa: 23 80 db 00  	sb	a3, 0x0(s7)
   166fe: 93 09 00 02  	li	s3, 0x20
   16702: fd b1        	j	0x163f0 <__gdtoa+0x8f0>
   16704: d6 85        	mv	a1, s5
   16706: 22 85        	mv	a0, s0
   16708: 42 ec        	sd	a6, 0x18(sp)
   1670a: 1a e8        	sd	t1, 0x10(sp)
   1670c: ef 00 70 5c  	jal	0x174d2 <__lshift>
   16710: 42 63        	ld	t1, 0x10(sp)
   16712: 62 68        	ld	a6, 0x18(sp)
   16714: aa 8a        	mv	s5, a0
   16716: 63 1d 05 f6  	bnez	a0, 0x15e90 <__gdtoa+0x390>
   1671a: 9d ba        	j	0x16090 <__gdtoa+0x590>
   1671c: 05 47        	li	a4, 0x1
   1671e: 81 4a        	li	s5, 0x0
   16720: ba e0        	sd	a4, 0x40(sp)
   16722: 6f f0 0f df  	j	0x15d12 <__gdtoa+0x212>
   16726: 05 47        	li	a4, 0x1
   16728: ba e0        	sd	a4, 0x40(sp)
   1672a: 6f f0 8f de  	j	0x15d12 <__gdtoa+0x212>
   1672e: 05 47        	li	a4, 0x1
   16730: ba e0        	sd	a4, 0x40(sp)
   16732: bd b1        	j	0x163a0 <__gdtoa+0x8a0>
   16734: 82 e0        	sd	zero, 0x40(sp)
   16736: ad b1        	j	0x163a0 <__gdtoa+0x8a0>
   16738: c6 67        	ld	a5, 0x50(sp)
   1673a: e3 9e d7 e4  	bne	a5, a3, 0x16596 <__gdtoa+0xa96>
   1673e: 83 27 4b 00  	lw	a5, 0x4(s6)
   16742: 42 67        	ld	a4, 0x10(sp)
   16744: 85 27        	addiw	a5, a5, 0x1
   16746: e3 d8 e7 e4  	bge	a5, a4, 0x16596 <__gdtoa+0xa96>
   1674a: e2 67        	ld	a5, 0x18(sp)
   1674c: 05 2e        	addiw	t3, t3, 0x1
   1674e: 85 49        	li	s3, 0x1
   16750: 85 27        	addiw	a5, a5, 0x1
   16752: 3e ec        	sd	a5, 0x18(sp)
   16754: 89 b5        	j	0x16596 <__gdtoa+0xa96>
   16756: 83 a5 8a 00  	lw	a1, 0x8(s5)
   1675a: 22 85        	mv	a0, s0
   1675c: 42 e8        	sd	a6, 0x10(sp)
   1675e: ef 00 20 74  	jal	0x16ea0 <_Balloc>
   16762: aa 89        	mv	s3, a0
   16764: e3 06 05 92  	beqz	a0, 0x16090 <__gdtoa+0x590>
   16768: 03 a6 4a 01  	lw	a2, 0x14(s5)
   1676c: 93 85 0a 01  	addi	a1, s5, 0x10
   16770: 41 05        	addi	a0, a0, 0x10
   16772: 09 06        	addi	a2, a2, 0x2
   16774: 0a 06        	slli	a2, a2, 0x2
   16776: ef e0 5f ec  	jal	0x1563a <memcpy>
   1677a: 05 46        	li	a2, 0x1
   1677c: ce 85        	mv	a1, s3
   1677e: 22 85        	mv	a0, s0
   16780: ef 00 30 55  	jal	0x174d2 <__lshift>
   16784: 2a ec        	sd	a0, 0x18(sp)
   16786: 42 68        	ld	a6, 0x10(sp)
   16788: 63 17 05 f0  	bnez	a0, 0x15e96 <__gdtoa+0x396>
   1678c: 11 b2        	j	0x16090 <__gdtoa+0x590>
   1678e: e2 85        	mv	a1, s8
   16790: 05 46        	li	a2, 0x1
   16792: 22 85        	mv	a0, s0
   16794: 42 e8        	sd	a6, 0x10(sp)
   16796: 1a ec        	sd	t1, 0x18(sp)
   16798: ef 00 b0 53  	jal	0x174d2 <__lshift>
   1679c: 2a 8c        	mv	s8, a0
   1679e: e3 09 05 8e  	beqz	a0, 0x16090 <__gdtoa+0x590>
   167a2: ea 85        	mv	a1, s10
   167a4: ef 00 70 65  	jal	0x175fa <__mcmp>
   167a8: 42 68        	ld	a6, 0x10(sp)
   167aa: e3 4c a0 f2  	bgtz	a0, 0x166e2 <__gdtoa+0xbe2>
   167ae: 11 e5        	bnez	a0, 0x167ba <__gdtoa+0xcba>
   167b0: 62 63        	ld	t1, 0x18(sp)
   167b2: 13 73 13 00  	andi	t1, t1, 0x1
   167b6: e3 16 03 f2  	bnez	t1, 0x166e2 <__gdtoa+0xbe2>
   167ba: 03 26 4c 01  	lw	a2, 0x14(s8)
   167be: 85 46        	li	a3, 0x1
   167c0: c1 49        	li	s3, 0x10
   167c2: e3 c1 c6 d2  	blt	a3, a2, 0x164e4 <__gdtoa+0x9e4>
   167c6: 83 26 8c 01  	lw	a3, 0x18(s8)
   167ca: 09 bb        	j	0x164dc <__gdtoa+0x9dc>
   167cc: e2 77        	ld	a5, 0x38(sp)
   167ce: 93 09 00 02  	li	s3, 0x20
   167d2: 85 27        	addiw	a5, a5, 0x1
   167d4: 3e fc        	sd	a5, 0x38(sp)
   167d6: 93 07 10 03  	li	a5, 0x31
   167da: 23 00 f8 00  	sb	a5, 0x0(a6)
   167de: 09 b9        	j	0x163f0 <__gdtoa+0x8f0>
   167e0: 82 77        	ld	a5, 0x20(sp)
   167e2: 26 ec        	sd	s1, 0x18(sp)
   167e4: 52 83        	mv	t1, s4
   167e6: 42 78        	ld	a6, 0x30(sp)
   167e8: 22 7a        	ld	s4, 0x28(sp)
   167ea: 86 64        	ld	s1, 0x40(sp)
   167ec: 91 cb        	beqz	a5, 0x16800 <__gdtoa+0xd00>
   167ee: 03 26 4c 01  	lw	a2, 0x14(s8)
   167f2: 85 46        	li	a3, 0x1
   167f4: 63 cf c6 f8  	blt	a3, a2, 0x15f92 <__gdtoa+0x492>
   167f8: 83 26 8c 01  	lw	a3, 0x18(s8)
   167fc: 63 9b 06 f8  	bnez	a3, 0x15f92 <__gdtoa+0x492>
   16800: e2 85        	mv	a1, s8
   16802: 05 46        	li	a2, 0x1
   16804: 22 85        	mv	a0, s0
   16806: 42 f0        	sd	a6, 0x20(sp)
   16808: 1a e8        	sd	t1, 0x10(sp)
   1680a: ef 00 90 4c  	jal	0x174d2 <__lshift>
   1680e: 2a 8c        	mv	s8, a0
   16810: e3 00 05 88  	beqz	a0, 0x16090 <__gdtoa+0x590>
   16814: ea 85        	mv	a1, s10
   16816: ef 00 50 5e  	jal	0x175fa <__mcmp>
   1681a: 42 63        	ld	t1, 0x10(sp)
   1681c: 02 78        	ld	a6, 0x20(sp)
   1681e: 63 57 a0 26  	blez	a0, 0x16a8c <__gdtoa+0xf8c>
   16822: 93 06 90 03  	li	a3, 0x39
   16826: e3 04 d3 ea  	beq	t1, a3, 0x166ce <__gdtoa+0xbce>
   1682a: 93 07 00 02  	li	a5, 0x20
   1682e: 1b 83 1c 03  	addiw	t1, s9, 0x31
   16832: 3e f0        	sd	a5, 0x20(sp)
   16834: 55 b6        	j	0x163d8 <__gdtoa+0x8d8>
   16836: d3 f7 f7 02  	fadd.d	fa5, fa5, fa5
   1683a: 83 c6 fc ff  	lbu	a3, -0x1(s9)
   1683e: 53 16 f7 a2  	flt.d	a2, fa4, fa5
   16842: e3 12 06 9e  	bnez	a2, 0x16226 <__gdtoa+0x726>
   16846: 53 a6 e7 a2  	feq.d	a2, fa5, fa4
   1684a: 01 c6        	beqz	a2, 0x16852 <__gdtoa+0xd52>
   1684c: 85 8b        	andi	a5, a5, 0x1
   1684e: e3 9c 07 9c  	bnez	a5, 0x16226 <__gdtoa+0x726>
   16852: e6 87        	mv	a5, s9
   16854: c1 49        	li	s3, 0x10
   16856: 13 06 00 03  	li	a2, 0x30
   1685a: 03 c7 f7 ff  	lbu	a4, -0x1(a5)
   1685e: be 8c        	mv	s9, a5
   16860: fd 17        	addi	a5, a5, -0x1
   16862: e3 0c c7 fe  	beq	a4, a2, 0x1685a <__gdtoa+0xd5a>
   16866: 1b 89 05 00  	sext.w	s2, a1
   1686a: e1 b4        	j	0x16332 <__gdtoa+0x832>
   1686c: 93 06 10 03  	li	a3, 0x31
   16870: 85 25        	addiw	a1, a1, 0x1
   16872: c9 ba        	j	0x16244 <__gdtoa+0x744>
   16874: 53 07 0f f2  	fmv.d.x	fa4, t5
   16878: d3 85 06 f2  	fmv.d.x	fa1, a3
   1687c: c2 8c        	mv	s9, a6
   1687e: 53 f6 e7 12  	fmul.d	fa2, fa5, fa4
   16882: d3 87 06 f2  	fmv.d.x	fa5, a3
   16886: 07 b7 01 84  	fld	fa4, -0x7c0(gp)
   1688a: 85 46        	li	a3, 0x1
   1688c: 36 c7        	sw	a3, 0x8c(sp)
   1688e: 01 4f        	li	t5, 0x0
   16890: 29 a0        	j	0x1689a <__gdtoa+0xd9a>
   16892: d3 f7 e7 12  	fmul.d	fa5, fa5, fa4
   16896: 2a c7        	sw	a0, 0x8c(sp)
   16898: 05 4f        	li	t5, 0x1
   1689a: 53 97 07 c2  	fcvt.w.d	a4, fa5, rtz
   1689e: 85 0c        	addi	s9, s9, 0x1
   168a0: 9b 06 07 03  	addiw	a3, a4, 0x30
   168a4: 1b 05 07 00  	sext.w	a0, a4
   168a8: 93 f6 f6 0f  	andi	a3, a3, 0xff
   168ac: 11 c5        	beqz	a0, 0x168b8 <__gdtoa+0xdb8>
   168ae: d3 06 07 d2  	fcvt.d.w	fa3, a4
   168b2: 05 4f        	li	t5, 0x1
   168b4: d3 f7 d7 0a  	fsub.d	fa5, fa5, fa3
   168b8: a3 8f dc fe  	sb	a3, -0x1(s9)
   168bc: 3a 47        	lw	a4, 0x8c(sp)
   168be: 1b 05 17 00  	addiw	a0, a4, 0x1
   168c2: e3 18 f7 fd  	bne	a4, t6, 0x16892 <__gdtoa+0xd92>
   168c6: 63 04 0f 00  	beqz	t5, 0x168ce <__gdtoa+0xdce>
   168ca: d3 85 f7 22  	fmv.d	fa1, fa5
   168ce: 87 b7 81 86  	fld	fa5, -0x798(gp)
   168d2: 53 77 f6 02  	fadd.d	fa4, fa2, fa5
   168d6: 53 15 b7 a2  	flt.d	a0, fa4, fa1
   168da: 63 16 05 10  	bnez	a0, 0x169e6 <__gdtoa+0xee6>
   168de: d3 f7 c7 0a  	fsub.d	fa5, fa5, fa2
   168e2: d3 96 f5 a2  	flt.d	a3, fa1, fa5
   168e6: 63 9f 06 16  	bnez	a3, 0x16a64 <__gdtoa+0xf64>
   168ea: f6 86        	mv	a3, t4
   168ec: 63 49 06 1a  	bltz	a2, 0x16a9e <__gdtoa+0xf9e>
   168f0: 02 f0        	sd	zero, 0x20(sp)
   168f2: 98 21        	fld	fa4, 0x0(a1)
   168f4: e3 db 0b 9a  	bgez	s7, 0x162aa <__gdtoa+0x7aa>
   168f8: a2 77        	ld	a5, 0x28(sp)
   168fa: e3 98 07 9a  	bnez	a5, 0x162aa <__gdtoa+0x7aa>
   168fe: d5 b1        	j	0x165e2 <__gdtoa+0xae2>
   16900: a6 87        	mv	a5, s1
   16902: 52 83        	mv	t1, s4
   16904: 56 8b        	mv	s6, s5
   16906: 42 78        	ld	a6, 0x30(sp)
   16908: 22 7a        	ld	s4, 0x28(sp)
   1690a: 86 64        	ld	s1, 0x40(sp)
   1690c: be 8a        	mv	s5, a5
   1690e: 45 be        	j	0x164be <__gdtoa+0x9be>
   16910: e3 09 07 d0  	beqz	a4, 0x16622 <__gdtoa+0xb22>
   16914: e6 7f        	ld	t6, 0x78(sp)
   16916: 63 57 f0 05  	blez	t6, 0x16964 <__gdtoa+0xe64>
   1691a: 87 b7 01 84  	fld	fa5, -0x7c0(gp)
   1691e: b7 05 c0 fc  	lui	a1, 0xfcc00
   16922: d3 77 f7 12  	fmul.d	fa5, fa4, fa5
   16926: 07 b7 81 84  	fld	fa4, -0x7b8(gp)
   1692a: fd 53        	li	t2, -0x1
   1692c: 53 85 07 e2  	fmv.x.d	a0, fa5
   16930: 87 b7 01 85  	fld	fa5, -0x7b0(gp)
   16934: d3 06 05 f2  	fmv.d.x	fa3, a0
   16938: aa 86        	mv	a3, a0
   1693a: c3 f7 e6 7a  	fmadd.d	fa5, fa3, fa4, fa5
   1693e: d3 8a 07 e2  	fmv.x.d	s5, fa5
   16942: 13 df 0a 02  	srli	t5, s5, 0x20
   16946: bb 85 e5 01  	addw	a1, a1, t5
   1694a: 7d 5f        	li	t5, -0x1
   1694c: 13 5f 0f 02  	srli	t5, t5, 0x20
   16950: 82 15        	slli	a1, a1, 0x20
   16952: 33 7f 5f 01  	and	t5, t5, s5
   16956: 33 6f bf 00  	or	t5, t5, a1
   1695a: 6f f0 ff 82  	j	0x16188 <__gdtoa+0x688>
   1695e: 83 c6 fc ff  	lbu	a3, -0x1(s9)
   16962: d1 b0        	j	0x16226 <__gdtoa+0x726>
   16964: f6 86        	mv	a3, t4
   16966: 63 4e 06 08  	bltz	a2, 0x16a02 <__gdtoa+0xf02>
   1696a: b7 05 02 00  	lui	a1, 0x20
   1696e: 93 85 85 07  	addi	a1, a1, 0x78
   16972: bd bf        	j	0x168f0 <__gdtoa+0xdf0>
   16974: 09 49        	li	s2, 0x2
   16976: 81 45        	li	a1, 0x0
   16978: 81 4a        	li	s5, 0x0
   1697a: d9 be        	j	0x16550 <__gdtoa+0xa50>
   1697c: e2 66        	ld	a3, 0x18(sp)
   1697e: 3a c7        	sw	a4, 0x8c(sp)
   16980: 3b 0e c7 01  	addw	t3, a4, t3
   16984: 35 9f        	addw	a4, a4, a3
   16986: b6 8c        	mv	s9, a3
   16988: 3a ec        	sd	a4, 0x18(sp)
   1698a: 6f f0 8f c3  	j	0x15dc2 <__gdtoa+0x2c2>
   1698e: 52 83        	mv	t1, s4
   16990: 26 ec        	sd	s1, 0x18(sp)
   16992: 93 06 90 03  	li	a3, 0x39
   16996: 42 78        	ld	a6, 0x30(sp)
   16998: 22 7a        	ld	s4, 0x28(sp)
   1699a: 86 64        	ld	s1, 0x40(sp)
   1699c: e3 09 d3 d2  	beq	t1, a3, 0x166ce <__gdtoa+0xbce>
   169a0: 9b 87 19 00  	addiw	a5, s3, 0x1
   169a4: 56 8b        	mv	s6, s5
   169a6: 93 8c 1b 00  	addi	s9, s7, 0x1
   169aa: e2 6a        	ld	s5, 0x18(sp)
   169ac: 23 80 fb 00  	sb	a5, 0x0(s7)
   169b0: 93 09 00 02  	li	s3, 0x20
   169b4: 35 bc        	j	0x163f0 <__gdtoa+0x8f0>
   169b6: d6 85        	mv	a1, s5
   169b8: 81 46        	li	a3, 0x0
   169ba: 29 46        	li	a2, 0xa
   169bc: 22 85        	mv	a0, s0
   169be: ef 00 80 55  	jal	0x16f16 <__multadd>
   169c2: aa 8a        	mv	s5, a0
   169c4: 63 06 05 ec  	beqz	a0, 0x16090 <__gdtoa+0x590>
   169c8: e6 77        	ld	a5, 0x78(sp)
   169ca: 42 63        	ld	t1, 0x10(sp)
   169cc: 62 68        	ld	a6, 0x18(sp)
   169ce: 63 55 f0 00  	blez	a5, 0x169d8 <__gdtoa+0xed8>
   169d2: 3e f4        	sd	a5, 0x28(sp)
   169d4: 6f f0 4f cb  	j	0x15e88 <__gdtoa+0x388>
   169d8: 89 47        	li	a5, 0x2
   169da: 63 c6 27 0b  	blt	a5, s2, 0x16a86 <__gdtoa+0xf86>
   169de: e6 77        	ld	a5, 0x78(sp)
   169e0: 3e f4        	sd	a5, 0x28(sp)
   169e2: 6f f0 6f ca  	j	0x15e88 <__gdtoa+0x388>
   169e6: 9b 85 13 00  	addiw	a1, t2, 0x1
   169ea: 6f f0 df 83  	j	0x16226 <__gdtoa+0x726>
   169ee: 53 07 00 f2  	fmv.d.x	fa4, zero
   169f2: 13 89 13 00  	addi	s2, t2, 0x1
   169f6: d3 a9 e7 a2  	feq.d	s3, fa5, fa4
   169fa: 93 b9 19 00  	seqz	s3, s3
   169fe: 92 09        	slli	s3, s3, 0x4
   16a00: 0d ba        	j	0x16332 <__gdtoa+0x832>
   16a02: 02 f0        	sd	zero, 0x20(sp)
   16a04: 6f f0 af b6  	j	0x15d6e <__gdtoa+0x26e>
   16a08: f6 86        	mv	a3, t4
   16a0a: e3 53 06 ee  	bgez	a2, 0x168f0 <__gdtoa+0xdf0>
   16a0e: 02 f0        	sd	zero, 0x20(sp)
   16a10: 6f f0 4f b6  	j	0x15d74 <__gdtoa+0x274>
   16a14: 22 77        	ld	a4, 0x28(sp)
   16a16: 42 76        	ld	a2, 0x30(sp)
   16a18: 9b 06 f7 ff  	addiw	a3, a4, -0x1
   16a1c: 36 8d        	mv	s10, a3
   16a1e: e3 41 d6 be  	blt	a2, a3, 0x16600 <__gdtoa+0xb00>
   16a22: e2 66        	ld	a3, 0x18(sp)
   16a24: 3b 0e c7 01  	addw	t3, a4, t3
   16a28: 3a c7        	sw	a4, 0x8c(sp)
   16a2a: 35 9f        	addw	a4, a4, a3
   16a2c: b6 8c        	mv	s9, a3
   16a2e: 3b 0d a6 41  	subw	s10, a2, s10
   16a32: 3a ec        	sd	a4, 0x18(sp)
   16a34: 6f f0 ef b8  	j	0x15dc2 <__gdtoa+0x2c2>
   16a38: 26 ec        	sd	s1, 0x18(sp)
   16a3a: 93 06 90 03  	li	a3, 0x39
   16a3e: 52 83        	mv	t1, s4
   16a40: 42 78        	ld	a6, 0x30(sp)
   16a42: 22 7a        	ld	s4, 0x28(sp)
   16a44: 86 64        	ld	s1, 0x40(sp)
   16a46: e3 84 d9 c8  	beq	s3, a3, 0x166ce <__gdtoa+0xbce>
   16a4a: 63 5f 60 09  	blez	s6, 0x16ae8 <__gdtoa+0xfe8>
   16a4e: 1b 83 1c 03  	addiw	t1, s9, 0x31
   16a52: 93 09 00 02  	li	s3, 0x20
   16a56: 23 80 6b 00  	sb	t1, 0x0(s7)
   16a5a: 56 8b        	mv	s6, s5
   16a5c: 93 8c 1b 00  	addi	s9, s7, 0x1
   16a60: e2 6a        	ld	s5, 0x18(sp)
   16a62: 79 b2        	j	0x163f0 <__gdtoa+0x8f0>
   16a64: d3 07 00 f2  	fmv.d.x	fa5, zero
   16a68: e6 87        	mv	a5, s9
   16a6a: 9b 85 13 00  	addiw	a1, t2, 0x1
   16a6e: d3 a9 f5 a2  	feq.d	s3, fa1, fa5
   16a72: 93 b9 19 00  	seqz	s3, s3
   16a76: 92 09        	slli	s3, s3, 0x4
   16a78: f9 bb        	j	0x16856 <__gdtoa+0xd56>
   16a7a: 83 26 8c 01  	lw	a3, 0x18(s8)
   16a7e: e3 95 06 96  	bnez	a3, 0x163e8 <__gdtoa+0x8e8>
   16a82: 82 79        	ld	s3, 0x20(sp)
   16a84: 95 b2        	j	0x163e8 <__gdtoa+0x8e8>
   16a86: e6 77        	ld	a5, 0x78(sp)
   16a88: 3e f4        	sd	a5, 0x28(sp)
   16a8a: 49 bc        	j	0x1651c <__gdtoa+0xa1c>
   16a8c: 09 e5        	bnez	a0, 0x16a96 <__gdtoa+0xf96>
   16a8e: 93 76 13 00  	andi	a3, t1, 0x1
   16a92: e3 98 06 d8  	bnez	a3, 0x16822 <__gdtoa+0xd22>
   16a96: 93 07 00 02  	li	a5, 0x20
   16a9a: 3e f0        	sd	a5, 0x20(sp)
   16a9c: 35 ba        	j	0x163d8 <__gdtoa+0x8d8>
   16a9e: 42 7d        	ld	s10, 0x30(sp)
   16aa0: e2 6c        	ld	s9, 0x18(sp)
   16aa2: 02 f0        	sd	zero, 0x20(sp)
   16aa4: 81 4a        	li	s5, 0x0
   16aa6: 6f f0 af b3  	j	0x15de0 <__gdtoa+0x2e0>
   16aaa: 5a ec        	sd	s6, 0x18(sp)
   16aac: 93 06 90 03  	li	a3, 0x39
   16ab0: 6e 88        	mv	a6, s11
   16ab2: 63 8b d9 00  	beq	s3, a3, 0x16ac8 <__gdtoa+0xfc8>
   16ab6: 1b 83 19 00  	addiw	t1, s3, 0x1
   16aba: 93 09 00 02  	li	s3, 0x20
   16abe: 2d b2        	j	0x163e8 <__gdtoa+0x8e8>
   16ac0: c1 49        	li	s3, 0x10
   16ac2: 93 8c 1b 00  	addi	s9, s7, 0x1
   16ac6: 0d b2        	j	0x163e8 <__gdtoa+0x8e8>
   16ac8: 56 8b        	mv	s6, s5
   16aca: de 86        	mv	a3, s7
   16acc: e2 6a        	ld	s5, 0x18(sp)
   16ace: 29 b1        	j	0x166d8 <__gdtoa+0xbd8>
   16ad0: 03 26 4c 01  	lw	a2, 0x14(s8)
   16ad4: 85 46        	li	a3, 0x1
   16ad6: 63 ce c6 ca  	blt	a3, a2, 0x15f92 <__gdtoa+0x492>
   16ada: 83 26 8c 01  	lw	a3, 0x18(s8)
   16ade: 63 9a 06 ca  	bnez	a3, 0x15f92 <__gdtoa+0x492>
   16ae2: 93 8c 1b 00  	addi	s9, s7, 0x1
   16ae6: 09 b2        	j	0x163e8 <__gdtoa+0x8e8>
   16ae8: 03 26 4c 01  	lw	a2, 0x14(s8)
   16aec: 85 46        	li	a3, 0x1
   16aee: c1 49        	li	s3, 0x10
   16af0: e3 c3 c6 f6  	blt	a3, a2, 0x16a56 <__gdtoa+0xf56>
   16af4: 83 29 8c 01  	lw	s3, 0x18(s8)
   16af8: b3 39 30 01  	snez	s3, s3
   16afc: 92 09        	slli	s3, s3, 0x4
   16afe: a1 bf        	j	0x16a56 <__gdtoa+0xf56>
   16b00: 63 4e 0b 00  	bltz	s6, 0x16b1c <__gdtoa+0x101c>
   16b04: b3 67 69 01  	or	a5, s2, s6
   16b08: 81 27        	sext.w	a5, a5
   16b0a: 89 e7        	bnez	a5, 0x16b14 <__gdtoa+0x1014>
   16b0c: c2 67        	ld	a5, 0x10(sp)
   16b0e: 9c 43        	lw	a5, 0x0(a5)
   16b10: 85 8b        	andi	a5, a5, 0x1
   16b12: 89 c7        	beqz	a5, 0x16b1c <__gdtoa+0x101c>
   16b14: 63 5d d0 ba  	blez	a3, 0x15ece <__gdtoa+0x3ce>
   16b18: 6f f0 ef ba  	j	0x15ec6 <__gdtoa+0x3c6>
   16b1c: 82 77        	ld	a5, 0x20(sp)
   16b1e: 26 ec        	sd	s1, 0x18(sp)
   16b20: 52 83        	mv	t1, s4
   16b22: 42 78        	ld	a6, 0x30(sp)
   16b24: 22 7a        	ld	s4, 0x28(sp)
   16b26: 86 64        	ld	s1, 0x40(sp)
   16b28: 85 c3        	beqz	a5, 0x16b48 <__gdtoa+0x1048>
   16b2a: 83 25 4c 01  	lw	a1, 0x14(s8)
   16b2e: 05 46        	li	a2, 0x1
   16b30: 63 41 b6 c6  	blt	a2, a1, 0x15f92 <__gdtoa+0x492>
   16b34: 03 26 8c 01  	lw	a2, 0x18(s8)
   16b38: 63 1d 06 c4  	bnez	a2, 0x15f92 <__gdtoa+0x492>
   16b3c: e3 42 d0 cc  	bgtz	a3, 0x16800 <__gdtoa+0xd00>
   16b40: 81 49        	li	s3, 0x0
   16b42: 93 8c 1b 00  	addi	s9, s7, 0x1
   16b46: 4d b0        	j	0x163e8 <__gdtoa+0x8e8>
   16b48: e3 58 d0 88  	blez	a3, 0x163d8 <__gdtoa+0x8d8>
   16b4c: 55 b9        	j	0x16800 <__gdtoa+0xd00>

0000000000016b4e <__rv_alloc_D2A>:
   16b4e: 41 11        	addi	sp, sp, -0x10
   16b50: 22 e0        	sd	s0, 0x0(sp)
   16b52: 06 e4        	sd	ra, 0x8(sp)
   16b54: ed 47        	li	a5, 0x1b
   16b56: 01 44        	li	s0, 0x0
   16b58: 63 fa b7 00  	bgeu	a5, a1, 0x16b6c <__rv_alloc_D2A+0x1e>
   16b5c: 91 47        	li	a5, 0x4
   16b5e: 9b 97 17 00  	slliw	a5, a5, 0x1
   16b62: 13 87 87 01  	addi	a4, a5, 0x18
   16b66: 05 24        	addiw	s0, s0, 0x1
   16b68: e3 fb e5 fe  	bgeu	a1, a4, 0x16b5e <__rv_alloc_D2A+0x10>
   16b6c: a2 85        	mv	a1, s0
   16b6e: ef 00 20 33  	jal	0x16ea0 <_Balloc>
   16b72: 19 c1        	beqz	a0, 0x16b78 <__rv_alloc_D2A+0x2a>
   16b74: 00 c1        	sw	s0, 0x0(a0)
   16b76: 11 05        	addi	a0, a0, 0x4
   16b78: a2 60        	ld	ra, 0x8(sp)
   16b7a: 02 64        	ld	s0, 0x0(sp)
   16b7c: 41 01        	addi	sp, sp, 0x10
   16b7e: 82 80        	ret

0000000000016b80 <__nrv_alloc_D2A>:
   16b80: 01 11        	addi	sp, sp, -0x20
   16b82: 22 e8        	sd	s0, 0x10(sp)
   16b84: 4a e0        	sd	s2, 0x0(sp)
   16b86: 06 ec        	sd	ra, 0x18(sp)
   16b88: 26 e4        	sd	s1, 0x8(sp)
   16b8a: ed 47        	li	a5, 0x1b
   16b8c: 2e 84        	mv	s0, a1
   16b8e: 32 89        	mv	s2, a2
   16b90: 63 fb d7 04  	bgeu	a5, a3, 0x16be6 <__nrv_alloc_D2A+0x66>
   16b94: 91 47        	li	a5, 0x4
   16b96: 81 44        	li	s1, 0x0
   16b98: 9b 97 17 00  	slliw	a5, a5, 0x1
   16b9c: 13 87 87 01  	addi	a4, a5, 0x18
   16ba0: 85 24        	addiw	s1, s1, 0x1
   16ba2: e3 fb e6 fe  	bgeu	a3, a4, 0x16b98 <__nrv_alloc_D2A+0x18>
   16ba6: a6 85        	mv	a1, s1
   16ba8: ef 00 80 2f  	jal	0x16ea0 <_Balloc>
   16bac: aa 87        	mv	a5, a0
   16bae: 15 cd        	beqz	a0, 0x16bea <__nrv_alloc_D2A+0x6a>
   16bb0: 04 c1        	sw	s1, 0x0(a0)
   16bb2: 03 47 04 00  	lbu	a4, 0x0(s0)
   16bb6: 11 05        	addi	a0, a0, 0x4
   16bb8: 93 05 14 00  	addi	a1, s0, 0x1
   16bbc: 23 82 e7 00  	sb	a4, 0x4(a5)
   16bc0: aa 87        	mv	a5, a0
   16bc2: 01 cb        	beqz	a4, 0x16bd2 <__nrv_alloc_D2A+0x52>
   16bc4: 03 c7 05 00  	lbu	a4, 0x0(a1)
   16bc8: 85 07        	addi	a5, a5, 0x1
   16bca: 85 05        	addi	a1, a1, 0x1
   16bcc: 23 80 e7 00  	sb	a4, 0x0(a5)
   16bd0: 75 fb        	bnez	a4, 0x16bc4 <__nrv_alloc_D2A+0x44>
   16bd2: 63 04 09 00  	beqz	s2, 0x16bda <__nrv_alloc_D2A+0x5a>
   16bd6: 23 30 f9 00  	sd	a5, 0x0(s2)
   16bda: e2 60        	ld	ra, 0x18(sp)
   16bdc: 42 64        	ld	s0, 0x10(sp)
   16bde: a2 64        	ld	s1, 0x8(sp)
   16be0: 02 69        	ld	s2, 0x0(sp)
   16be2: 05 61        	addi	sp, sp, 0x20
   16be4: 82 80        	ret
   16be6: 81 44        	li	s1, 0x0
   16be8: 7d bf        	j	0x16ba6 <__nrv_alloc_D2A+0x26>
   16bea: 01 45        	li	a0, 0x0
   16bec: fd b7        	j	0x16bda <__nrv_alloc_D2A+0x5a>

0000000000016bee <__freedtoa>:
   16bee: 83 a7 c5 ff  	lw	a5, -0x4(a1)
   16bf2: 85 46        	li	a3, 0x1
   16bf4: 2e 87        	mv	a4, a1
   16bf6: bb 96 f6 00  	sllw	a3, a3, a5
   16bfa: 82 17        	slli	a5, a5, 0x20
   16bfc: 82 16        	slli	a3, a3, 0x20
   16bfe: 81 93        	srli	a5, a5, 0x20
   16c00: d5 8f        	or	a5, a5, a3
   16c02: f1 15        	addi	a1, a1, -0x4
   16c04: 23 32 f7 00  	sd	a5, 0x4(a4)
   16c08: f5 ac        	j	0x16f04 <_Bfree>

0000000000016c0a <__quorem_D2A>:
   16c0a: 39 71        	addi	sp, sp, -0x40
   16c0c: 26 f4        	sd	s1, 0x28(sp)
   16c0e: 5c 49        	lw	a5, 0x14(a0)
   16c10: c4 49        	lw	s1, 0x14(a1)
   16c12: 06 fc        	sd	ra, 0x38(sp)
   16c14: 63 ce 97 14  	blt	a5, s1, 0x16d70 <__quorem_D2A+0x166>
   16c18: fd 34        	addiw	s1, s1, -0x1
   16c1a: 13 93 24 00  	slli	t1, s1, 0x2
   16c1e: 22 f8        	sd	s0, 0x30(sp)
   16c20: 13 84 85 01  	addi	s0, a1, 0x18
   16c24: 4a f0        	sd	s2, 0x20(sp)
   16c26: 4e ec        	sd	s3, 0x18(sp)
   16c28: 33 09 64 00  	add	s2, s0, t1
   16c2c: 93 09 85 01  	addi	s3, a0, 0x18
   16c30: 56 e4        	sd	s5, 0x8(sp)
   16c32: 4e 93        	add	t1, t1, s3
   16c34: 83 2a 09 00  	lw	s5, 0x0(s2)
   16c38: 83 27 03 00  	lw	a5, 0x0(t1)
   16c3c: 5a e0        	sd	s6, 0x0(sp)
   16c3e: 1b 87 1a 00  	addiw	a4, s5, 0x1
   16c42: 3b db e7 02  	divuw	s6, a5, a4
   16c46: 52 e8        	sd	s4, 0x10(sp)
   16c48: 2a 8a        	mv	s4, a0
   16c4a: da 8a        	mv	s5, s6
   16c4c: 63 ea e7 08  	bltu	a5, a4, 0x16ce0 <__quorem_D2A+0xd6>
   16c50: 41 68        	lui	a6, 0x10
   16c52: 22 85        	mv	a0, s0
   16c54: ce 88        	mv	a7, s3
   16c56: 01 4f        	li	t5, 0x0
   16c58: 81 4e        	li	t4, 0x0
   16c5a: 7d 18        	addi	a6, a6, -0x1
   16c5c: 18 41        	lw	a4, 0x0(a0)
   16c5e: 03 a6 08 00  	lw	a2, 0x0(a7)
   16c62: 91 08        	addi	a7, a7, 0x4
   16c64: b3 76 07 01  	and	a3, a4, a6
   16c68: bb 86 66 03  	mulw	a3, a3, s6
   16c6c: 1b 57 07 01  	srliw	a4, a4, 0x10
   16c70: b3 77 06 01  	and	a5, a2, a6
   16c74: 1b 5e 06 01  	srliw	t3, a2, 0x10
   16c78: 11 05        	addi	a0, a0, 0x4
   16c7a: 3b 07 67 03  	mulw	a4, a4, s6
   16c7e: bb 86 e6 01  	addw	a3, a3, t5
   16c82: 33 76 d8 00  	and	a2, a6, a3
   16c86: 91 9f        	subw	a5, a5, a2
   16c88: bb 87 d7 41  	subw	a5, a5, t4
   16c8c: 9b d6 06 01  	srliw	a3, a3, 0x10
   16c90: 1b d6 07 01  	srliw	a2, a5, 0x10
   16c94: 05 8a        	andi	a2, a2, 0x1
   16c96: b3 77 f8 00  	and	a5, a6, a5
   16c9a: 35 9f        	addw	a4, a4, a3
   16c9c: b3 76 e8 00  	and	a3, a6, a4
   16ca0: 35 9e        	addw	a2, a2, a3
   16ca2: bb 06 ce 40  	subw	a3, t3, a2
   16ca6: 1b 96 06 01  	slliw	a2, a3, 0x10
   16caa: d1 8f        	or	a5, a5, a2
   16cac: 9b d6 06 01  	srliw	a3, a3, 0x10
   16cb0: 23 ae f8 fe  	sw	a5, -0x4(a7)
   16cb4: 1b 5f 07 01  	srliw	t5, a4, 0x10
   16cb8: 93 fe 16 00  	andi	t4, a3, 0x1
   16cbc: e3 70 a9 fa  	bgeu	s2, a0, 0x16c5c <__quorem_D2A+0x52>
   16cc0: 83 27 03 00  	lw	a5, 0x0(t1)
   16cc4: 91 ef        	bnez	a5, 0x16ce0 <__quorem_D2A+0xd6>
   16cc6: 71 13        	addi	t1, t1, -0x4
   16cc8: 63 e6 69 00  	bltu	s3, t1, 0x16cd4 <__quorem_D2A+0xca>
   16ccc: 01 a8        	j	0x16cdc <__quorem_D2A+0xd2>
   16cce: fd 34        	addiw	s1, s1, -0x1
   16cd0: 63 f6 69 00  	bgeu	s3, t1, 0x16cdc <__quorem_D2A+0xd2>
   16cd4: 83 27 03 00  	lw	a5, 0x0(t1)
   16cd8: 71 13        	addi	t1, t1, -0x4
   16cda: f5 db        	beqz	a5, 0x16cce <__quorem_D2A+0xc4>
   16cdc: 23 2a 9a 00  	sw	s1, 0x14(s4)
   16ce0: 52 85        	mv	a0, s4
   16ce2: ef 00 90 11  	jal	0x175fa <__mcmp>
   16ce6: 63 49 05 06  	bltz	a0, 0x16d58 <__quorem_D2A+0x14e>
   16cea: 41 65        	lui	a0, 0x10
   16cec: 4e 86        	mv	a2, s3
   16cee: 81 45        	li	a1, 0x0
   16cf0: 7d 15        	addi	a0, a0, -0x1
   16cf2: 18 42        	lw	a4, 0x0(a2)
   16cf4: 14 40        	lw	a3, 0x0(s0)
   16cf6: 11 06        	addi	a2, a2, 0x4
   16cf8: b3 77 a7 00  	and	a5, a4, a0
   16cfc: 33 f8 a6 00  	and	a6, a3, a0
   16d00: bb 87 07 41  	subw	a5, a5, a6
   16d04: 8d 9f        	subw	a5, a5, a1
   16d06: 9b d5 07 01  	srliw	a1, a5, 0x10
   16d0a: 85 89        	andi	a1, a1, 0x1
   16d0c: 9b d6 06 01  	srliw	a3, a3, 0x10
   16d10: ad 9e        	addw	a3, a3, a1
   16d12: 1b 57 07 01  	srliw	a4, a4, 0x10
   16d16: 15 9f        	subw	a4, a4, a3
   16d18: 9b 16 07 01  	slliw	a3, a4, 0x10
   16d1c: e9 8f        	and	a5, a5, a0
   16d1e: d5 8f        	or	a5, a5, a3
   16d20: 1b 57 07 01  	srliw	a4, a4, 0x10
   16d24: 11 04        	addi	s0, s0, 0x4
   16d26: 23 2e f6 fe  	sw	a5, -0x4(a2)
   16d2a: 93 75 17 00  	andi	a1, a4, 0x1
   16d2e: e3 72 89 fc  	bgeu	s2, s0, 0x16cf2 <__quorem_D2A+0xe8>
   16d32: 93 97 24 00  	slli	a5, s1, 0x2
   16d36: ce 97        	add	a5, a5, s3
   16d38: 98 43        	lw	a4, 0x0(a5)
   16d3a: 09 ef        	bnez	a4, 0x16d54 <__quorem_D2A+0x14a>
   16d3c: f1 17        	addi	a5, a5, -0x4
   16d3e: 63 e6 f9 00  	bltu	s3, a5, 0x16d4a <__quorem_D2A+0x140>
   16d42: 39 a0        	j	0x16d50 <__quorem_D2A+0x146>
   16d44: fd 34        	addiw	s1, s1, -0x1
   16d46: 63 f5 f9 00  	bgeu	s3, a5, 0x16d50 <__quorem_D2A+0x146>
   16d4a: 98 43        	lw	a4, 0x0(a5)
   16d4c: f1 17        	addi	a5, a5, -0x4
   16d4e: 7d db        	beqz	a4, 0x16d44 <__quorem_D2A+0x13a>
   16d50: 23 2a 9a 00  	sw	s1, 0x14(s4)
   16d54: 1b 8b 1a 00  	addiw	s6, s5, 0x1
   16d58: 42 74        	ld	s0, 0x30(sp)
   16d5a: e2 70        	ld	ra, 0x38(sp)
   16d5c: 02 79        	ld	s2, 0x20(sp)
   16d5e: e2 69        	ld	s3, 0x18(sp)
   16d60: 42 6a        	ld	s4, 0x10(sp)
   16d62: a2 6a        	ld	s5, 0x8(sp)
   16d64: a2 74        	ld	s1, 0x28(sp)
   16d66: 1b 05 0b 00  	sext.w	a0, s6
   16d6a: 02 6b        	ld	s6, 0x0(sp)
   16d6c: 21 61        	addi	sp, sp, 0x40
   16d6e: 82 80        	ret
   16d70: e2 70        	ld	ra, 0x38(sp)
   16d72: a2 74        	ld	s1, 0x28(sp)
   16d74: 01 45        	li	a0, 0x0
   16d76: 21 61        	addi	sp, sp, 0x40
   16d78: 82 80        	ret

0000000000016d7a <__rshift_D2A>:
   16d7a: 58 49        	lw	a4, 0x14(a0)
   16d7c: 13 de 55 40  	srai	t3, a1, 0x5
   16d80: 63 47 ee 00  	blt	t3, a4, 0x16d8e <__rshift_D2A+0x14>
   16d84: 23 2a 05 00  	sw	zero, 0x14(a0)
   16d88: 23 2c 05 00  	sw	zero, 0x18(a0)
   16d8c: 82 80        	ret
   16d8e: 13 03 85 01  	addi	t1, a0, 0x18
   16d92: 13 18 27 00  	slli	a6, a4, 0x2
   16d96: 93 17 2e 00  	slli	a5, t3, 0x2
   16d9a: fd 89        	andi	a1, a1, 0x1f
   16d9c: 1a 98        	add	a6, a6, t1
   16d9e: 9a 97        	add	a5, a5, t1
   16da0: b9 c1        	beqz	a1, 0x16de6 <__rshift_D2A+0x6c>
   16da2: 90 43        	lw	a2, 0x0(a5)
   16da4: 93 0e 00 02  	li	t4, 0x20
   16da8: 91 07        	addi	a5, a5, 0x4
   16daa: bb 56 b6 00  	srlw	a3, a2, a1
   16dae: bb 8e be 40  	subw	t4, t4, a1
   16db2: 63 ff 07 05  	bgeu	a5, a6, 0x16e10 <__rshift_D2A+0x96>
   16db6: 9a 88        	mv	a7, t1
   16db8: 90 43        	lw	a2, 0x0(a5)
   16dba: 91 08        	addi	a7, a7, 0x4
   16dbc: 91 07        	addi	a5, a5, 0x4
   16dbe: 3b 16 d6 01  	sllw	a2, a2, t4
   16dc2: d1 8e        	or	a3, a3, a2
   16dc4: 23 ae d8 fe  	sw	a3, -0x4(a7)
   16dc8: 03 a6 c7 ff  	lw	a2, -0x4(a5)
   16dcc: bb 56 b6 00  	srlw	a3, a2, a1
   16dd0: e3 e4 07 ff  	bltu	a5, a6, 0x16db8 <__rshift_D2A+0x3e>
   16dd4: 33 07 c7 41  	sub	a4, a4, t3
   16dd8: 0a 07        	slli	a4, a4, 0x2
   16dda: 71 17        	addi	a4, a4, -0x4
   16ddc: 1a 97        	add	a4, a4, t1
   16dde: 14 c3        	sw	a3, 0x0(a4)
   16de0: 8d c2        	beqz	a3, 0x16e02 <__rshift_D2A+0x88>
   16de2: 11 07        	addi	a4, a4, 0x4
   16de4: 39 a8        	j	0x16e02 <__rshift_D2A+0x88>
   16de6: 9a 86        	mv	a3, t1
   16de8: e3 fe 07 f9  	bgeu	a5, a6, 0x16d84 <__rshift_D2A+0xa>
   16dec: 90 43        	lw	a2, 0x0(a5)
   16dee: 91 07        	addi	a5, a5, 0x4
   16df0: 91 06        	addi	a3, a3, 0x4
   16df2: 23 ae c6 fe  	sw	a2, -0x4(a3)
   16df6: e3 eb 07 ff  	bltu	a5, a6, 0x16dec <__rshift_D2A+0x72>
   16dfa: 33 07 c7 41  	sub	a4, a4, t3
   16dfe: 0a 07        	slli	a4, a4, 0x2
   16e00: 1a 97        	add	a4, a4, t1
   16e02: 33 07 67 40  	sub	a4, a4, t1
   16e06: 09 87        	srai	a4, a4, 0x2
   16e08: 01 27        	sext.w	a4, a4
   16e0a: 58 c9        	sw	a4, 0x14(a0)
   16e0c: 35 df        	beqz	a4, 0x16d88 <__rshift_D2A+0xe>
   16e0e: 82 80        	ret
   16e10: 14 cd        	sw	a3, 0x18(a0)
   16e12: ad da        	beqz	a3, 0x16d84 <__rshift_D2A+0xa>
   16e14: 1a 87        	mv	a4, t1
   16e16: 11 07        	addi	a4, a4, 0x4
   16e18: ed b7        	j	0x16e02 <__rshift_D2A+0x88>

0000000000016e1a <__trailz_D2A>:
   16e1a: 58 49        	lw	a4, 0x14(a0)
   16e1c: 01 11        	addi	sp, sp, -0x20
   16e1e: 61 05        	addi	a0, a0, 0x18
   16e20: 0a 07        	slli	a4, a4, 0x2
   16e22: 22 e8        	sd	s0, 0x10(sp)
   16e24: 06 ec        	sd	ra, 0x18(sp)
   16e26: 2a 97        	add	a4, a4, a0
   16e28: 01 44        	li	s0, 0x0
   16e2a: 63 68 e5 00  	bltu	a0, a4, 0x16e3a <__trailz_D2A+0x20>
   16e2e: 39 a8        	j	0x16e4c <__trailz_D2A+0x32>
   16e30: 11 05        	addi	a0, a0, 0x4
   16e32: 1b 04 04 02  	addiw	s0, s0, 0x20
   16e36: 63 7b e5 00  	bgeu	a0, a4, 0x16e4c <__trailz_D2A+0x32>
   16e3a: 1c 41        	lw	a5, 0x0(a0)
   16e3c: f5 db        	beqz	a5, 0x16e30 <__trailz_D2A+0x16>
   16e3e: 63 77 e5 00  	bgeu	a0, a4, 0x16e4c <__trailz_D2A+0x32>
   16e42: 68 00        	addi	a0, sp, 0xc
   16e44: 3e c6        	sw	a5, 0xc(sp)
   16e46: ef 00 20 30  	jal	0x17148 <__lo0bits>
   16e4a: 29 9c        	addw	s0, s0, a0
   16e4c: e2 60        	ld	ra, 0x18(sp)
   16e4e: 22 85        	mv	a0, s0
   16e50: 42 64        	ld	s0, 0x10(sp)
   16e52: 05 61        	addi	sp, sp, 0x20
   16e54: 82 80        	ret

0000000000016e56 <_mbtowc_r>:
   16e56: b7 27 02 00  	lui	a5, 0x22
   16e5a: 83 b7 07 02  	ld	a5, 0x20(a5)
   16e5e: 82 87        	jr	a5

0000000000016e60 <__ascii_mbtowc>:
   16e60: 99 c9        	beqz	a1, 0x16e76 <__ascii_mbtowc+0x16>
   16e62: 1d c6        	beqz	a2, 0x16e90 <__ascii_mbtowc+0x30>
   16e64: 95 ca        	beqz	a3, 0x16e98 <__ascii_mbtowc+0x38>
   16e66: 83 47 06 00  	lbu	a5, 0x0(a2)
   16e6a: 9c c1        	sw	a5, 0x0(a1)
   16e6c: 03 45 06 00  	lbu	a0, 0x0(a2)
   16e70: 33 35 a0 00  	snez	a0, a0
   16e74: 82 80        	ret
   16e76: 41 11        	addi	sp, sp, -0x10
   16e78: 6c 00        	addi	a1, sp, 0xc
   16e7a: 09 ce        	beqz	a2, 0x16e94 <__ascii_mbtowc+0x34>
   16e7c: 85 c2        	beqz	a3, 0x16e9c <__ascii_mbtowc+0x3c>
   16e7e: 83 47 06 00  	lbu	a5, 0x0(a2)
   16e82: 9c c1        	sw	a5, 0x0(a1)
   16e84: 03 45 06 00  	lbu	a0, 0x0(a2)
   16e88: 33 35 a0 00  	snez	a0, a0
   16e8c: 41 01        	addi	sp, sp, 0x10
   16e8e: 82 80        	ret
   16e90: 01 45        	li	a0, 0x0
   16e92: 82 80        	ret
   16e94: 01 45        	li	a0, 0x0
   16e96: dd bf        	j	0x16e8c <__ascii_mbtowc+0x2c>
   16e98: 79 55        	li	a0, -0x2
   16e9a: 82 80        	ret
   16e9c: 79 55        	li	a0, -0x2
   16e9e: fd b7        	j	0x16e8c <__ascii_mbtowc+0x2c>

0000000000016ea0 <_Balloc>:
   16ea0: 3c 75        	ld	a5, 0x68(a0)
   16ea2: 01 11        	addi	sp, sp, -0x20
   16ea4: 22 e8        	sd	s0, 0x10(sp)
   16ea6: 26 e4        	sd	s1, 0x8(sp)
   16ea8: 06 ec        	sd	ra, 0x18(sp)
   16eaa: aa 84        	mv	s1, a0
   16eac: 2e 84        	mv	s0, a1
   16eae: 99 cf        	beqz	a5, 0x16ecc <_Balloc+0x2c>
   16eb0: 13 17 34 00  	slli	a4, s0, 0x3
   16eb4: ba 97        	add	a5, a5, a4
   16eb6: 88 63        	ld	a0, 0x0(a5)
   16eb8: 05 c5        	beqz	a0, 0x16ee0 <_Balloc+0x40>
   16eba: 18 61        	ld	a4, 0x0(a0)
   16ebc: 98 e3        	sd	a4, 0x0(a5)
   16ebe: 23 38 05 00  	sd	zero, 0x10(a0)
   16ec2: e2 60        	ld	ra, 0x18(sp)
   16ec4: 42 64        	ld	s0, 0x10(sp)
   16ec6: a2 64        	ld	s1, 0x8(sp)
   16ec8: 05 61        	addi	sp, sp, 0x20
   16eca: 82 80        	ret
   16ecc: 13 06 10 04  	li	a2, 0x41
   16ed0: a1 45        	li	a1, 0x8
   16ed2: ef 00 30 7d  	jal	0x17ea4 <_calloc_r>
   16ed6: a8 f4        	sd	a0, 0x68(s1)
   16ed8: aa 87        	mv	a5, a0
   16eda: 79 f9        	bnez	a0, 0x16eb0 <_Balloc+0x10>
   16edc: 01 45        	li	a0, 0x0
   16ede: d5 b7        	j	0x16ec2 <_Balloc+0x22>
   16ee0: 85 47        	li	a5, 0x1
   16ee2: bb 97 87 00  	sllw	a5, a5, s0
   16ee6: 1b 86 07 00  	sext.w	a2, a5
   16eea: 1d 06        	addi	a2, a2, 0x7
   16eec: 02 14        	slli	s0, s0, 0x20
   16eee: 82 17        	slli	a5, a5, 0x20
   16ef0: 01 90        	srli	s0, s0, 0x20
   16ef2: 0a 06        	slli	a2, a2, 0x2
   16ef4: 85 45        	li	a1, 0x1
   16ef6: 26 85        	mv	a0, s1
   16ef8: 5d 8c        	or	s0, s0, a5
   16efa: ef 00 b0 7a  	jal	0x17ea4 <_calloc_r>
   16efe: 79 dd        	beqz	a0, 0x16edc <_Balloc+0x3c>
   16f00: 00 e5        	sd	s0, 0x8(a0)
   16f02: 75 bf        	j	0x16ebe <_Balloc+0x1e>

0000000000016f04 <_Bfree>:
   16f04: 81 c9        	beqz	a1, 0x16f14 <_Bfree+0x10>
   16f06: 98 45        	lw	a4, 0x8(a1)
   16f08: 3c 75        	ld	a5, 0x68(a0)
   16f0a: 0e 07        	slli	a4, a4, 0x3
   16f0c: ba 97        	add	a5, a5, a4
   16f0e: 98 63        	ld	a4, 0x0(a5)
   16f10: 98 e1        	sd	a4, 0x0(a1)
   16f12: 8c e3        	sd	a1, 0x0(a5)
   16f14: 82 80        	ret

0000000000016f16 <__multadd>:
   16f16: 79 71        	addi	sp, sp, -0x30
   16f18: 22 f0        	sd	s0, 0x20(sp)
   16f1a: c0 49        	lw	s0, 0x14(a1)
   16f1c: 41 63        	lui	t1, 0x10
   16f1e: 4a e8        	sd	s2, 0x10(sp)
   16f20: 4e e4        	sd	s3, 0x8(sp)
   16f22: 06 f4        	sd	ra, 0x28(sp)
   16f24: 26 ec        	sd	s1, 0x18(sp)
   16f26: 2e 89        	mv	s2, a1
   16f28: aa 89        	mv	s3, a0
   16f2a: 13 88 85 01  	addi	a6, a1, 0x18
   16f2e: 81 48        	li	a7, 0x0
   16f30: 7d 13        	addi	t1, t1, -0x1
   16f32: 83 27 08 00  	lw	a5, 0x0(a6)
   16f36: 11 08        	addi	a6, a6, 0x4
   16f38: 85 28        	addiw	a7, a7, 0x1
   16f3a: 33 f7 67 00  	and	a4, a5, t1
   16f3e: 3b 07 c7 02  	mulw	a4, a4, a2
   16f42: 9b d7 07 01  	srliw	a5, a5, 0x10
   16f46: bb 87 c7 02  	mulw	a5, a5, a2
   16f4a: 35 9f        	addw	a4, a4, a3
   16f4c: 9b 56 07 01  	srliw	a3, a4, 0x10
   16f50: 33 77 e3 00  	and	a4, t1, a4
   16f54: b5 9f        	addw	a5, a5, a3
   16f56: 9b 96 07 01  	slliw	a3, a5, 0x10
   16f5a: 35 9f        	addw	a4, a4, a3
   16f5c: 23 2e e8 fe  	sw	a4, -0x4(a6)
   16f60: 9b d4 07 01  	srliw	s1, a5, 0x10
   16f64: 9b d6 07 01  	srliw	a3, a5, 0x10
   16f68: e3 c5 88 fc  	blt	a7, s0, 0x16f32 <__multadd+0x1c>
   16f6c: 89 ce        	beqz	a3, 0x16f86 <__multadd+0x70>
   16f6e: 83 27 c9 00  	lw	a5, 0xc(s2)
   16f72: 63 52 f4 02  	bge	s0, a5, 0x16f96 <__multadd+0x80>
   16f76: 93 07 44 00  	addi	a5, s0, 0x4
   16f7a: 8a 07        	slli	a5, a5, 0x2
   16f7c: ca 97        	add	a5, a5, s2
   16f7e: 84 c7        	sw	s1, 0x8(a5)
   16f80: 05 24        	addiw	s0, s0, 0x1
   16f82: 23 2a 89 00  	sw	s0, 0x14(s2)
   16f86: a2 70        	ld	ra, 0x28(sp)
   16f88: 02 74        	ld	s0, 0x20(sp)
   16f8a: e2 64        	ld	s1, 0x18(sp)
   16f8c: a2 69        	ld	s3, 0x8(sp)
   16f8e: 4a 85        	mv	a0, s2
   16f90: 42 69        	ld	s2, 0x10(sp)
   16f92: 45 61        	addi	sp, sp, 0x30
   16f94: 82 80        	ret
   16f96: 83 25 89 00  	lw	a1, 0x8(s2)
   16f9a: 4e 85        	mv	a0, s3
   16f9c: 52 e0        	sd	s4, 0x0(sp)
   16f9e: 85 25        	addiw	a1, a1, 0x1
   16fa0: ef f0 1f f0  	jal	0x16ea0 <_Balloc>
   16fa4: 2a 8a        	mv	s4, a0
   16fa6: 21 c1        	beqz	a0, 0x16fe6 <__multadd+0xd0>
   16fa8: 03 26 49 01  	lw	a2, 0x14(s2)
   16fac: 93 05 09 01  	addi	a1, s2, 0x10
   16fb0: 41 05        	addi	a0, a0, 0x10
   16fb2: 09 06        	addi	a2, a2, 0x2
   16fb4: 0a 06        	slli	a2, a2, 0x2
   16fb6: ef e0 4f e8  	jal	0x1563a <memcpy>
   16fba: 03 27 89 00  	lw	a4, 0x8(s2)
   16fbe: 83 b7 89 06  	ld	a5, 0x68(s3)
   16fc2: 0e 07        	slli	a4, a4, 0x3
   16fc4: ba 97        	add	a5, a5, a4
   16fc6: 98 63        	ld	a4, 0x0(a5)
   16fc8: 23 30 e9 00  	sd	a4, 0x0(s2)
   16fcc: 23 b0 27 01  	sd	s2, 0x0(a5)
   16fd0: 93 07 44 00  	addi	a5, s0, 0x4
   16fd4: 52 89        	mv	s2, s4
   16fd6: 8a 07        	slli	a5, a5, 0x2
   16fd8: ca 97        	add	a5, a5, s2
   16fda: 02 6a        	ld	s4, 0x0(sp)
   16fdc: 05 24        	addiw	s0, s0, 0x1
   16fde: 84 c7        	sw	s1, 0x8(a5)
   16fe0: 23 2a 89 00  	sw	s0, 0x14(s2)
   16fe4: 4d b7        	j	0x16f86 <__multadd+0x70>
   16fe6: b7 06 02 00  	lui	a3, 0x20
   16fea: 37 05 02 00  	lui	a0, 0x20
   16fee: 93 86 86 c2  	addi	a3, a3, -0x3d8
   16ff2: 01 46        	li	a2, 0x0
   16ff4: 93 05 a0 0b  	li	a1, 0xba
   16ff8: 13 05 05 c4  	addi	a0, a0, -0x3c0
   16ffc: ef 00 b0 65  	jal	0x17e56 <__assert_func>

0000000000017000 <__s2b>:
   17000: 39 71        	addi	sp, sp, -0x40
   17002: 22 f8        	sd	s0, 0x30(sp)
   17004: 26 f4        	sd	s1, 0x28(sp)
   17006: 4a f0        	sd	s2, 0x20(sp)
   17008: 4e ec        	sd	s3, 0x18(sp)
   1700a: 52 e8        	sd	s4, 0x10(sp)
   1700c: b6 84        	mv	s1, a3
   1700e: 2e 84        	mv	s0, a1
   17010: a1 26        	addiw	a3, a3, 0x8
   17012: a5 45        	li	a1, 0x9
   17014: 06 fc        	sd	ra, 0x38(sp)
   17016: a5 47        	li	a5, 0x9
   17018: bb c6 b6 02  	divw	a3, a3, a1
   1701c: 2a 89        	mv	s2, a0
   1701e: 32 8a        	mv	s4, a2
   17020: ba 89        	mv	s3, a4
   17022: 63 d3 97 0a  	bge	a5, s1, 0x170c8 <__s2b+0xc8>
   17026: 85 47        	li	a5, 0x1
   17028: 81 45        	li	a1, 0x0
   1702a: 9b 97 17 00  	slliw	a5, a5, 0x1
   1702e: 85 25        	addiw	a1, a1, 0x1
   17030: e3 cd d7 fe  	blt	a5, a3, 0x1702a <__s2b+0x2a>
   17034: 4a 85        	mv	a0, s2
   17036: ef f0 bf e6  	jal	0x16ea0 <_Balloc>
   1703a: aa 85        	mv	a1, a0
   1703c: 41 c9        	beqz	a0, 0x170cc <__s2b+0xcc>
   1703e: 85 47        	li	a5, 0x1
   17040: 5c c9        	sw	a5, 0x14(a0)
   17042: 23 2c 35 01  	sw	s3, 0x18(a0)
   17046: a5 47        	li	a5, 0x9
   17048: 63 dd 47 07  	bge	a5, s4, 0x170c2 <__s2b+0xc2>
   1704c: 93 17 0a 02  	slli	a5, s4, 0x20
   17050: 5a e0        	sd	s6, 0x0(sp)
   17052: 81 93        	srli	a5, a5, 0x20
   17054: 13 0b 94 00  	addi	s6, s0, 0x9
   17058: 56 e4        	sd	s5, 0x8(sp)
   1705a: 3e 94        	add	s0, s0, a5
   1705c: 9b 0a 0a 00  	sext.w	s5, s4
   17060: da 89        	mv	s3, s6
   17062: 83 c6 09 00  	lbu	a3, 0x0(s3)
   17066: 29 46        	li	a2, 0xa
   17068: 4a 85        	mv	a0, s2
   1706a: 9b 86 06 fd  	addiw	a3, a3, -0x30
   1706e: ef f0 9f ea  	jal	0x16f16 <__multadd>
   17072: 85 09        	addi	s3, s3, 0x1
   17074: aa 85        	mv	a1, a0
   17076: e3 96 89 fe  	bne	s3, s0, 0x17062 <__s2b+0x62>
   1707a: e1 3a        	addiw	s5, s5, -0x8
   1707c: 82 1a        	slli	s5, s5, 0x20
   1707e: 93 da 0a 02  	srli	s5, s5, 0x20
   17082: 33 04 5b 01  	add	s0, s6, s5
   17086: a2 6a        	ld	s5, 0x8(sp)
   17088: 02 6b        	ld	s6, 0x0(sp)
   1708a: 63 53 9a 02  	bge	s4, s1, 0x170b0 <__s2b+0xb0>
   1708e: bb 84 44 41  	subw	s1, s1, s4
   17092: 82 14        	slli	s1, s1, 0x20
   17094: 81 90        	srli	s1, s1, 0x20
   17096: a2 94        	add	s1, s1, s0
   17098: 83 46 04 00  	lbu	a3, 0x0(s0)
   1709c: 29 46        	li	a2, 0xa
   1709e: 4a 85        	mv	a0, s2
   170a0: 9b 86 06 fd  	addiw	a3, a3, -0x30
   170a4: ef f0 3f e7  	jal	0x16f16 <__multadd>
   170a8: 05 04        	addi	s0, s0, 0x1
   170aa: aa 85        	mv	a1, a0
   170ac: e3 16 94 fe  	bne	s0, s1, 0x17098 <__s2b+0x98>
   170b0: e2 70        	ld	ra, 0x38(sp)
   170b2: 42 74        	ld	s0, 0x30(sp)
   170b4: a2 74        	ld	s1, 0x28(sp)
   170b6: 02 79        	ld	s2, 0x20(sp)
   170b8: e2 69        	ld	s3, 0x18(sp)
   170ba: 42 6a        	ld	s4, 0x10(sp)
   170bc: 2e 85        	mv	a0, a1
   170be: 21 61        	addi	sp, sp, 0x40
   170c0: 82 80        	ret
   170c2: 29 04        	addi	s0, s0, 0xa
   170c4: 25 4a        	li	s4, 0x9
   170c6: d1 b7        	j	0x1708a <__s2b+0x8a>
   170c8: 81 45        	li	a1, 0x0
   170ca: ad b7        	j	0x17034 <__s2b+0x34>
   170cc: b7 06 02 00  	lui	a3, 0x20
   170d0: 37 05 02 00  	lui	a0, 0x20
   170d4: 93 86 86 c2  	addi	a3, a3, -0x3d8
   170d8: 01 46        	li	a2, 0x0
   170da: 93 05 30 0d  	li	a1, 0xd3
   170de: 13 05 05 c4  	addi	a0, a0, -0x3c0
   170e2: 56 e4        	sd	s5, 0x8(sp)
   170e4: 5a e0        	sd	s6, 0x0(sp)
   170e6: ef 00 10 57  	jal	0x17e56 <__assert_func>

00000000000170ea <__hi0bits>:
   170ea: aa 87        	mv	a5, a0
   170ec: 41 67        	lui	a4, 0x10
   170ee: 01 45        	li	a0, 0x0
   170f0: 63 f5 e7 00  	bgeu	a5, a4, 0x170fa <__hi0bits+0x10>
   170f4: 9b 97 07 01  	slliw	a5, a5, 0x10
   170f8: 41 45        	li	a0, 0x10
   170fa: 37 07 00 01  	lui	a4, 0x1000
   170fe: 63 f5 e7 00  	bgeu	a5, a4, 0x17108 <__hi0bits+0x1e>
   17102: 9b 97 87 00  	slliw	a5, a5, 0x8
   17106: 21 25        	addiw	a0, a0, 0x8
   17108: 37 07 00 10  	lui	a4, 0x10000
   1710c: 63 f5 e7 00  	bgeu	a5, a4, 0x17116 <__hi0bits+0x2c>
   17110: 9b 97 47 00  	slliw	a5, a5, 0x4
   17114: 11 25        	addiw	a0, a0, 0x4
   17116: 37 07 00 40  	lui	a4, 0x40000
   1711a: 63 e6 e7 00  	bltu	a5, a4, 0x17126 <__hi0bits+0x3c>
   1711e: 63 c0 07 02  	bltz	a5, 0x1713e <__hi0bits+0x54>
   17122: 05 25        	addiw	a0, a0, 0x1
   17124: 82 80        	ret
   17126: 93 96 27 02  	slli	a3, a5, 0x22
   1712a: 1b 97 27 00  	slliw	a4, a5, 0x2
   1712e: 63 c9 06 00  	bltz	a3, 0x17140 <__hi0bits+0x56>
   17132: 93 17 17 02  	slli	a5, a4, 0x21
   17136: 63 c7 07 00  	bltz	a5, 0x17144 <__hi0bits+0x5a>
   1713a: 13 05 00 02  	li	a0, 0x20
   1713e: 82 80        	ret
   17140: 09 25        	addiw	a0, a0, 0x2
   17142: 82 80        	ret
   17144: 0d 25        	addiw	a0, a0, 0x3
   17146: 82 80        	ret

0000000000017148 <__lo0bits>:
   17148: 1c 41        	lw	a5, 0x0(a0)
   1714a: 2a 87        	mv	a4, a0
   1714c: 93 f6 77 00  	andi	a3, a5, 0x7
   17150: 3e 86        	mv	a2, a5
   17152: 81 ce        	beqz	a3, 0x1716a <__lo0bits+0x22>
   17154: 93 f6 17 00  	andi	a3, a5, 0x1
   17158: 01 45        	li	a0, 0x0
   1715a: 9d ee        	bnez	a3, 0x17198 <__lo0bits+0x50>
   1715c: 09 8a        	andi	a2, a2, 0x2
   1715e: 25 ce        	beqz	a2, 0x171d6 <__lo0bits+0x8e>
   17160: 9b d7 17 00  	srliw	a5, a5, 0x1
   17164: 1c c3        	sw	a5, 0x0(a4)
   17166: 05 45        	li	a0, 0x1
   17168: 82 80        	ret
   1716a: 93 96 07 03  	slli	a3, a5, 0x30
   1716e: c1 92        	srli	a3, a3, 0x30
   17170: 01 45        	li	a0, 0x0
   17172: b9 ca        	beqz	a3, 0x171c8 <__lo0bits+0x80>
   17174: 93 f6 f7 0f  	andi	a3, a5, 0xff
   17178: a9 c2        	beqz	a3, 0x171ba <__lo0bits+0x72>
   1717a: 93 f6 f7 00  	andi	a3, a5, 0xf
   1717e: 9d c6        	beqz	a3, 0x171ac <__lo0bits+0x64>
   17180: 93 f6 37 00  	andi	a3, a5, 0x3
   17184: 89 ce        	beqz	a3, 0x1719e <__lo0bits+0x56>
   17186: 93 f6 17 00  	andi	a3, a5, 0x1
   1718a: 81 ea        	bnez	a3, 0x1719a <__lo0bits+0x52>
   1718c: 9b d7 17 00  	srliw	a5, a5, 0x1
   17190: 05 25        	addiw	a0, a0, 0x1
   17192: 81 e7        	bnez	a5, 0x1719a <__lo0bits+0x52>
   17194: 13 05 00 02  	li	a0, 0x20
   17198: 82 80        	ret
   1719a: 1c c3        	sw	a5, 0x0(a4)
   1719c: 82 80        	ret
   1719e: 9b d7 27 00  	srliw	a5, a5, 0x2
   171a2: 93 f6 17 00  	andi	a3, a5, 0x1
   171a6: 09 25        	addiw	a0, a0, 0x2
   171a8: ed fa        	bnez	a3, 0x1719a <__lo0bits+0x52>
   171aa: cd b7        	j	0x1718c <__lo0bits+0x44>
   171ac: 9b d7 47 00  	srliw	a5, a5, 0x4
   171b0: 93 f6 37 00  	andi	a3, a5, 0x3
   171b4: 11 25        	addiw	a0, a0, 0x4
   171b6: e1 fa        	bnez	a3, 0x17186 <__lo0bits+0x3e>
   171b8: dd b7        	j	0x1719e <__lo0bits+0x56>
   171ba: 9b d7 87 00  	srliw	a5, a5, 0x8
   171be: 93 f6 f7 00  	andi	a3, a5, 0xf
   171c2: 21 25        	addiw	a0, a0, 0x8
   171c4: d5 fe        	bnez	a3, 0x17180 <__lo0bits+0x38>
   171c6: dd b7        	j	0x171ac <__lo0bits+0x64>
   171c8: 9b d7 07 01  	srliw	a5, a5, 0x10
   171cc: 93 f6 f7 0f  	andi	a3, a5, 0xff
   171d0: 41 45        	li	a0, 0x10
   171d2: c5 f6        	bnez	a3, 0x1717a <__lo0bits+0x32>
   171d4: dd b7        	j	0x171ba <__lo0bits+0x72>
   171d6: 9b d7 27 00  	srliw	a5, a5, 0x2
   171da: 1c c3        	sw	a5, 0x0(a4)
   171dc: 09 45        	li	a0, 0x2
   171de: 82 80        	ret

00000000000171e0 <__i2b>:
   171e0: 3c 75        	ld	a5, 0x68(a0)
   171e2: 01 11        	addi	sp, sp, -0x20
   171e4: 22 e8        	sd	s0, 0x10(sp)
   171e6: 26 e4        	sd	s1, 0x8(sp)
   171e8: 06 ec        	sd	ra, 0x18(sp)
   171ea: 2a 84        	mv	s0, a0
   171ec: ae 84        	mv	s1, a1
   171ee: 91 cf        	beqz	a5, 0x1720a <__i2b+0x2a>
   171f0: 88 67        	ld	a0, 0x8(a5)
   171f2: 29 c1        	beqz	a0, 0x17234 <__i2b+0x54>
   171f4: 18 61        	ld	a4, 0x0(a0)
   171f6: 98 e7        	sd	a4, 0x8(a5)
   171f8: e2 60        	ld	ra, 0x18(sp)
   171fa: 42 64        	ld	s0, 0x10(sp)
   171fc: 85 47        	li	a5, 0x1
   171fe: 82 17        	slli	a5, a5, 0x20
   17200: 04 cd        	sw	s1, 0x18(a0)
   17202: 1c e9        	sd	a5, 0x10(a0)
   17204: a2 64        	ld	s1, 0x8(sp)
   17206: 05 61        	addi	sp, sp, 0x20
   17208: 82 80        	ret
   1720a: 13 06 10 04  	li	a2, 0x41
   1720e: a1 45        	li	a1, 0x8
   17210: ef 00 50 49  	jal	0x17ea4 <_calloc_r>
   17214: 28 f4        	sd	a0, 0x68(s0)
   17216: aa 87        	mv	a5, a0
   17218: 61 fd        	bnez	a0, 0x171f0 <__i2b+0x10>
   1721a: b7 06 02 00  	lui	a3, 0x20
   1721e: 37 05 02 00  	lui	a0, 0x20
   17222: 93 86 86 c2  	addi	a3, a3, -0x3d8
   17226: 01 46        	li	a2, 0x0
   17228: 93 05 50 14  	li	a1, 0x145
   1722c: 13 05 05 c4  	addi	a0, a0, -0x3c0
   17230: ef 00 70 42  	jal	0x17e56 <__assert_func>
   17234: 13 06 40 02  	li	a2, 0x24
   17238: 85 45        	li	a1, 0x1
   1723a: 22 85        	mv	a0, s0
   1723c: ef 00 90 46  	jal	0x17ea4 <_calloc_r>
   17240: 69 dd        	beqz	a0, 0x1721a <__i2b+0x3a>
   17242: 85 47        	li	a5, 0x1
   17244: 86 17        	slli	a5, a5, 0x21
   17246: 85 07        	addi	a5, a5, 0x1
   17248: 1c e5        	sd	a5, 0x8(a0)
   1724a: 7d b7        	j	0x171f8 <__i2b+0x18>

000000000001724c <__multiply>:
   1724c: 79 71        	addi	sp, sp, -0x30
   1724e: 4a e8        	sd	s2, 0x10(sp)
   17250: 4e e4        	sd	s3, 0x8(sp)
   17252: 03 29 46 01  	lw	s2, 0x14(a2)
   17256: 83 a9 45 01  	lw	s3, 0x14(a1)
   1725a: 26 ec        	sd	s1, 0x18(sp)
   1725c: 52 e0        	sd	s4, 0x0(sp)
   1725e: 06 f4        	sd	ra, 0x28(sp)
   17260: 22 f0        	sd	s0, 0x20(sp)
   17262: 2e 8a        	mv	s4, a1
   17264: b2 84        	mv	s1, a2
   17266: 63 c7 29 01  	blt	s3, s2, 0x17274 <__multiply+0x28>
   1726a: ca 87        	mv	a5, s2
   1726c: ae 84        	mv	s1, a1
   1726e: 4e 89        	mv	s2, s3
   17270: 32 8a        	mv	s4, a2
   17272: be 89        	mv	s3, a5
   17274: dc 44        	lw	a5, 0xc(s1)
   17276: 3b 04 39 01  	addw	s0, s2, s3
   1727a: 8c 44        	lw	a1, 0x8(s1)
   1727c: 63 d3 87 00  	bge	a5, s0, 0x17282 <__multiply+0x36>
   17280: 85 25        	addiw	a1, a1, 0x1
   17282: ef f0 ff c1  	jal	0x16ea0 <_Balloc>
   17286: 63 0c 05 14  	beqz	a0, 0x173de <__multiply+0x192>
   1728a: 13 03 85 01  	addi	t1, a0, 0x18
   1728e: 93 18 24 00  	slli	a7, s0, 0x2
   17292: 9a 98        	add	a7, a7, t1
   17294: 9a 87        	mv	a5, t1
   17296: 63 77 13 01  	bgeu	t1, a7, 0x172a4 <__multiply+0x58>
   1729a: 23 a0 07 00  	sw	zero, 0x0(a5)
   1729e: 91 07        	addi	a5, a5, 0x4
   172a0: e3 ed 17 ff  	bltu	a5, a7, 0x1729a <__multiply+0x4e>
   172a4: 13 08 8a 01  	addi	a6, s4, 0x18
   172a8: 13 9e 29 00  	slli	t3, s3, 0x2
   172ac: 93 8e 84 01  	addi	t4, s1, 0x18
   172b0: 93 15 29 00  	slli	a1, s2, 0x2
   172b4: 42 9e        	add	t3, t3, a6
   172b6: f6 95        	add	a1, a1, t4
   172b8: 63 7a c8 0f  	bgeu	a6, t3, 0x173ac <__multiply+0x160>
   172bc: 93 87 94 01  	addi	a5, s1, 0x19
   172c0: 11 4f        	li	t5, 0x4
   172c2: 63 f7 f5 10  	bgeu	a1, a5, 0x173d0 <__multiply+0x184>
   172c6: c1 66        	lui	a3, 0x10
   172c8: fd 16        	addi	a3, a3, -0x1
   172ca: 09 a8        	j	0x172dc <__multiply+0x90>
   172cc: 9b df 0f 01  	srliw	t6, t6, 0x10
   172d0: 63 9d 0f 06  	bnez	t6, 0x1734a <__multiply+0xfe>
   172d4: 11 08        	addi	a6, a6, 0x4
   172d6: 11 03        	addi	t1, t1, 0x4
   172d8: 63 7a c8 0d  	bgeu	a6, t3, 0x173ac <__multiply+0x160>
   172dc: 83 2f 08 00  	lw	t6, 0x0(a6)
   172e0: b3 f3 df 00  	and	t2, t6, a3
   172e4: e3 84 03 fe  	beqz	t2, 0x172cc <__multiply+0x80>
   172e8: 9a 82        	mv	t0, t1
   172ea: f6 8f        	mv	t6, t4
   172ec: 81 44        	li	s1, 0x0
   172ee: 83 a7 0f 00  	lw	a5, 0x0(t6)
   172f2: 03 a6 02 00  	lw	a2, 0x0(t0)
   172f6: 91 02        	addi	t0, t0, 0x4
   172f8: 33 f7 d7 00  	and	a4, a5, a3
   172fc: 3b 07 77 02  	mulw	a4, a4, t2
   17300: 9b d7 07 01  	srliw	a5, a5, 0x10
   17304: 33 79 d6 00  	and	s2, a2, a3
   17308: 1b 56 06 01  	srliw	a2, a2, 0x10
   1730c: 91 0f        	addi	t6, t6, 0x4
   1730e: bb 87 77 02  	mulw	a5, a5, t2
   17312: 3b 07 27 01  	addw	a4, a4, s2
   17316: 25 9f        	addw	a4, a4, s1
   17318: 9b 54 07 01  	srliw	s1, a4, 0x10
   1731c: 75 8f        	and	a4, a4, a3
   1731e: b1 9f        	addw	a5, a5, a2
   17320: a5 9f        	addw	a5, a5, s1
   17322: 1b 96 07 01  	slliw	a2, a5, 0x10
   17326: 51 8f        	or	a4, a4, a2
   17328: 23 ae e2 fe  	sw	a4, -0x4(t0)
   1732c: 9b d4 07 01  	srliw	s1, a5, 0x10
   17330: 1b d7 07 01  	srliw	a4, a5, 0x10
   17334: e3 ed bf fa  	bltu	t6, a1, 0x172ee <__multiply+0xa2>
   17338: b3 07 e3 01  	add	a5, t1, t5
   1733c: 98 c3        	sw	a4, 0x0(a5)
   1733e: 83 2f 08 00  	lw	t6, 0x0(a6)
   17342: 9b df 0f 01  	srliw	t6, t6, 0x10
   17346: e3 87 0f f8  	beqz	t6, 0x172d4 <__multiply+0x88>
   1734a: 03 27 03 00  	lw	a4, 0x0(t1)
   1734e: 9a 82        	mv	t0, t1
   17350: 76 86        	mv	a2, t4
   17352: ba 83        	mv	t2, a4
   17354: 81 44        	li	s1, 0x0
   17356: 1c 42        	lw	a5, 0x0(a2)
   17358: 9b d9 03 01  	srliw	s3, t2, 0x10
   1735c: 75 8f        	and	a4, a4, a3
   1735e: f5 8f        	and	a5, a5, a3
   17360: bb 87 f7 03  	mulw	a5, a5, t6
   17364: 83 a3 42 00  	lw	t2, 0x4(t0)
   17368: 91 02        	addi	t0, t0, 0x4
   1736a: 11 06        	addi	a2, a2, 0x4
   1736c: 33 f9 d3 00  	and	s2, t2, a3
   17370: a5 9f        	addw	a5, a5, s1
   17372: bb 87 37 01  	addw	a5, a5, s3
   17376: 9b 94 07 01  	slliw	s1, a5, 0x10
   1737a: 45 8f        	or	a4, a4, s1
   1737c: 23 ae e2 fe  	sw	a4, -0x4(t0)
   17380: 03 57 e6 ff  	lhu	a4, -0x2(a2)
   17384: 9b d7 07 01  	srliw	a5, a5, 0x10
   17388: 3b 07 f7 03  	mulw	a4, a4, t6
   1738c: 3b 07 27 01  	addw	a4, a4, s2
   17390: b9 9f        	addw	a5, a5, a4
   17392: 1b 87 07 00  	sext.w	a4, a5
   17396: 9b d4 07 01  	srliw	s1, a5, 0x10
   1739a: e3 6e b6 fa  	bltu	a2, a1, 0x17356 <__multiply+0x10a>
   1739e: 33 07 e3 01  	add	a4, t1, t5
   173a2: 1c c3        	sw	a5, 0x0(a4)
   173a4: 11 08        	addi	a6, a6, 0x4
   173a6: 11 03        	addi	t1, t1, 0x4
   173a8: e3 6a c8 f3  	bltu	a6, t3, 0x172dc <__multiply+0x90>
   173ac: 63 45 80 00  	bgtz	s0, 0x173b6 <__multiply+0x16a>
   173b0: 39 a0        	j	0x173be <__multiply+0x172>
   173b2: 7d 34        	addiw	s0, s0, -0x1
   173b4: 09 c4        	beqz	s0, 0x173be <__multiply+0x172>
   173b6: 83 a7 c8 ff  	lw	a5, -0x4(a7)
   173ba: f1 18        	addi	a7, a7, -0x4
   173bc: fd db        	beqz	a5, 0x173b2 <__multiply+0x166>
   173be: a2 70        	ld	ra, 0x28(sp)
   173c0: 40 c9        	sw	s0, 0x14(a0)
   173c2: 02 74        	ld	s0, 0x20(sp)
   173c4: e2 64        	ld	s1, 0x18(sp)
   173c6: 42 69        	ld	s2, 0x10(sp)
   173c8: a2 69        	ld	s3, 0x8(sp)
   173ca: 02 6a        	ld	s4, 0x0(sp)
   173cc: 45 61        	addi	sp, sp, 0x30
   173ce: 82 80        	ret
   173d0: b3 87 95 40  	sub	a5, a1, s1
   173d4: 9d 17        	addi	a5, a5, -0x19
   173d6: f1 9b        	andi	a5, a5, -0x4
   173d8: 13 8f 47 00  	addi	t5, a5, 0x4
   173dc: ed b5        	j	0x172c6 <__multiply+0x7a>
   173de: b7 06 02 00  	lui	a3, 0x20
   173e2: 37 05 02 00  	lui	a0, 0x20
   173e6: 93 86 86 c2  	addi	a3, a3, -0x3d8
   173ea: 01 46        	li	a2, 0x0
   173ec: 93 05 20 16  	li	a1, 0x162
   173f0: 13 05 05 c4  	addi	a0, a0, -0x3c0
   173f4: ef 00 30 26  	jal	0x17e56 <__assert_func>

00000000000173f8 <__pow5mult>:
   173f8: 79 71        	addi	sp, sp, -0x30
   173fa: 22 f0        	sd	s0, 0x20(sp)
   173fc: 4a e8        	sd	s2, 0x10(sp)
   173fe: 4e e4        	sd	s3, 0x8(sp)
   17400: 06 f4        	sd	ra, 0x28(sp)
   17402: 93 77 36 00  	andi	a5, a2, 0x3
   17406: 32 84        	mv	s0, a2
   17408: aa 89        	mv	s3, a0
   1740a: 2e 89        	mv	s2, a1
   1740c: ad eb        	bnez	a5, 0x1747e <__pow5mult+0x86>
   1740e: 09 84        	srai	s0, s0, 0x2
   17410: 31 c4        	beqz	s0, 0x1745c <__pow5mult+0x64>
   17412: 26 ec        	sd	s1, 0x18(sp)
   17414: 83 b4 09 06  	ld	s1, 0x60(s3)
   17418: c1 c0        	beqz	s1, 0x17498 <__pow5mult+0xa0>
   1741a: 93 77 14 00  	andi	a5, s0, 0x1
   1741e: 89 eb        	bnez	a5, 0x17430 <__pow5mult+0x38>
   17420: 05 84        	srai	s0, s0, 0x1
   17422: 05 cc        	beqz	s0, 0x1745a <__pow5mult+0x62>
   17424: 88 60        	ld	a0, 0x0(s1)
   17426: 31 c1        	beqz	a0, 0x1746a <__pow5mult+0x72>
   17428: aa 84        	mv	s1, a0
   1742a: 93 77 14 00  	andi	a5, s0, 0x1
   1742e: ed db        	beqz	a5, 0x17420 <__pow5mult+0x28>
   17430: 26 86        	mv	a2, s1
   17432: ca 85        	mv	a1, s2
   17434: 4e 85        	mv	a0, s3
   17436: ef f0 7f e1  	jal	0x1724c <__multiply>
   1743a: 63 0d 09 00  	beqz	s2, 0x17454 <__pow5mult+0x5c>
   1743e: 03 27 89 00  	lw	a4, 0x8(s2)
   17442: 83 b7 89 06  	ld	a5, 0x68(s3)
   17446: 0e 07        	slli	a4, a4, 0x3
   17448: ba 97        	add	a5, a5, a4
   1744a: 98 63        	ld	a4, 0x0(a5)
   1744c: 23 30 e9 00  	sd	a4, 0x0(s2)
   17450: 23 b0 27 01  	sd	s2, 0x0(a5)
   17454: 05 84        	srai	s0, s0, 0x1
   17456: 2a 89        	mv	s2, a0
   17458: 71 f4        	bnez	s0, 0x17424 <__pow5mult+0x2c>
   1745a: e2 64        	ld	s1, 0x18(sp)
   1745c: a2 70        	ld	ra, 0x28(sp)
   1745e: 02 74        	ld	s0, 0x20(sp)
   17460: a2 69        	ld	s3, 0x8(sp)
   17462: 4a 85        	mv	a0, s2
   17464: 42 69        	ld	s2, 0x10(sp)
   17466: 45 61        	addi	sp, sp, 0x30
   17468: 82 80        	ret
   1746a: 26 86        	mv	a2, s1
   1746c: a6 85        	mv	a1, s1
   1746e: 4e 85        	mv	a0, s3
   17470: ef f0 df dd  	jal	0x1724c <__multiply>
   17474: 88 e0        	sd	a0, 0x0(s1)
   17476: 23 30 05 00  	sd	zero, 0x0(a0)
   1747a: aa 84        	mv	s1, a0
   1747c: 7d b7        	j	0x1742a <__pow5mult+0x32>
   1747e: fd 37        	addiw	a5, a5, -0x1
   17480: 37 07 02 00  	lui	a4, 0x20
   17484: 13 07 87 01  	addi	a4, a4, 0x18
   17488: 8a 07        	slli	a5, a5, 0x2
   1748a: ba 97        	add	a5, a5, a4
   1748c: 90 43        	lw	a2, 0x0(a5)
   1748e: 81 46        	li	a3, 0x0
   17490: ef f0 7f a8  	jal	0x16f16 <__multadd>
   17494: 2a 89        	mv	s2, a0
   17496: a5 bf        	j	0x1740e <__pow5mult+0x16>
   17498: 85 45        	li	a1, 0x1
   1749a: 4e 85        	mv	a0, s3
   1749c: ef f0 5f a0  	jal	0x16ea0 <_Balloc>
   174a0: aa 84        	mv	s1, a0
   174a2: 19 c9        	beqz	a0, 0x174b8 <__pow5mult+0xc0>
   174a4: 93 07 10 27  	li	a5, 0x271
   174a8: 1c cd        	sw	a5, 0x18(a0)
   174aa: 85 47        	li	a5, 0x1
   174ac: 5c c9        	sw	a5, 0x14(a0)
   174ae: 23 b0 a9 06  	sd	a0, 0x60(s3)
   174b2: 23 30 05 00  	sd	zero, 0x0(a0)
   174b6: 95 b7        	j	0x1741a <__pow5mult+0x22>
   174b8: b7 06 02 00  	lui	a3, 0x20
   174bc: 37 05 02 00  	lui	a0, 0x20
   174c0: 93 86 86 c2  	addi	a3, a3, -0x3d8
   174c4: 01 46        	li	a2, 0x0
   174c6: 93 05 50 14  	li	a1, 0x145
   174ca: 13 05 05 c4  	addi	a0, a0, -0x3c0
   174ce: ef 00 90 18  	jal	0x17e56 <__assert_func>

00000000000174d2 <__lshift>:
   174d2: 39 71        	addi	sp, sp, -0x40
   174d4: 22 f8        	sd	s0, 0x30(sp)
   174d6: c0 49        	lw	s0, 0x14(a1)
   174d8: dc 45        	lw	a5, 0xc(a1)
   174da: 56 e4        	sd	s5, 0x8(sp)
   174dc: 9b 5a 56 40  	sraiw	s5, a2, 0x5
   174e0: 3b 84 8a 00  	addw	s0, s5, s0
   174e4: 26 f4        	sd	s1, 0x28(sp)
   174e6: 4a f0        	sd	s2, 0x20(sp)
   174e8: 4e ec        	sd	s3, 0x18(sp)
   174ea: 52 e8        	sd	s4, 0x10(sp)
   174ec: 5a e0        	sd	s6, 0x0(sp)
   174ee: 06 fc        	sd	ra, 0x38(sp)
   174f0: 1b 09 14 00  	addiw	s2, s0, 0x1
   174f4: ae 84        	mv	s1, a1
   174f6: 32 8a        	mv	s4, a2
   174f8: 8c 45        	lw	a1, 0x8(a1)
   174fa: aa 89        	mv	s3, a0
   174fc: 13 5b 56 40  	srai	s6, a2, 0x5
   17500: 63 d7 27 01  	bge	a5, s2, 0x1750e <__lshift+0x3c>
   17504: 9b 97 17 00  	slliw	a5, a5, 0x1
   17508: 85 25        	addiw	a1, a1, 0x1
   1750a: e3 cd 27 ff  	blt	a5, s2, 0x17504 <__lshift+0x32>
   1750e: 4e 85        	mv	a0, s3
   17510: ef f0 1f 99  	jal	0x16ea0 <_Balloc>
   17514: 71 c5        	beqz	a0, 0x175e0 <__lshift+0x10e>
   17516: 13 07 85 01  	addi	a4, a0, 0x18
   1751a: 63 51 60 03  	blez	s6, 0x1753c <__lshift+0x6a>
   1751e: 9b 86 6a 00  	addiw	a3, s5, 0x6
   17522: 8a 06        	slli	a3, a3, 0x2
   17524: aa 96        	add	a3, a3, a0
   17526: ba 87        	mv	a5, a4
   17528: 91 07        	addi	a5, a5, 0x4
   1752a: 23 ae 07 fe  	sw	zero, -0x4(a5)
   1752e: e3 9d d7 fe  	bne	a5, a3, 0x17528 <__lshift+0x56>
   17532: 93 97 0a 02  	slli	a5, s5, 0x20
   17536: 93 da e7 01  	srli	s5, a5, 0x1e
   1753a: 56 97        	add	a4, a4, s5
   1753c: 83 a8 44 01  	lw	a7, 0x14(s1)
   17540: 93 87 84 01  	addi	a5, s1, 0x18
   17544: 13 76 fa 01  	andi	a2, s4, 0x1f
   17548: 8a 08        	slli	a7, a7, 0x2
   1754a: be 98        	add	a7, a7, a5
   1754c: 3d ca        	beqz	a2, 0x175c2 <__lshift+0xf0>
   1754e: 93 05 00 02  	li	a1, 0x20
   17552: 91 9d        	subw	a1, a1, a2
   17554: 3a 83        	mv	t1, a4
   17556: 81 46        	li	a3, 0x0
   17558: 03 a8 07 00  	lw	a6, 0x0(a5)
   1755c: 11 03        	addi	t1, t1, 0x4
   1755e: 91 07        	addi	a5, a5, 0x4
   17560: 3b 18 c8 00  	sllw	a6, a6, a2
   17564: b3 e6 06 01  	or	a3, a3, a6
   17568: 23 2e d3 fe  	sw	a3, -0x4(t1)
   1756c: 03 a8 c7 ff  	lw	a6, -0x4(a5)
   17570: bb 56 b8 00  	srlw	a3, a6, a1
   17574: 36 88        	mv	a6, a3
   17576: e3 e1 17 ff  	bltu	a5, a7, 0x17558 <__lshift+0x86>
   1757a: 93 87 94 01  	addi	a5, s1, 0x19
   1757e: 11 46        	li	a2, 0x4
   17580: 63 e8 f8 00  	bltu	a7, a5, 0x17590 <__lshift+0xbe>
   17584: b3 87 98 40  	sub	a5, a7, s1
   17588: 9d 17        	addi	a5, a5, -0x19
   1758a: f1 9b        	andi	a5, a5, -0x4
   1758c: 13 86 47 00  	addi	a2, a5, 0x4
   17590: 32 97        	add	a4, a4, a2
   17592: 23 20 07 01  	sw	a6, 0x0(a4)
   17596: 91 e2        	bnez	a3, 0x1759a <__lshift+0xc8>
   17598: 22 89        	mv	s2, s0
   1759a: 98 44        	lw	a4, 0x8(s1)
   1759c: 83 b7 89 06  	ld	a5, 0x68(s3)
   175a0: e2 70        	ld	ra, 0x38(sp)
   175a2: 0e 07        	slli	a4, a4, 0x3
   175a4: ba 97        	add	a5, a5, a4
   175a6: 98 63        	ld	a4, 0x0(a5)
   175a8: 23 2a 25 01  	sw	s2, 0x14(a0)
   175ac: 42 74        	ld	s0, 0x30(sp)
   175ae: 98 e0        	sd	a4, 0x0(s1)
   175b0: 84 e3        	sd	s1, 0x0(a5)
   175b2: 02 79        	ld	s2, 0x20(sp)
   175b4: a2 74        	ld	s1, 0x28(sp)
   175b6: e2 69        	ld	s3, 0x18(sp)
   175b8: 42 6a        	ld	s4, 0x10(sp)
   175ba: a2 6a        	ld	s5, 0x8(sp)
   175bc: 02 6b        	ld	s6, 0x0(sp)
   175be: 21 61        	addi	sp, sp, 0x40
   175c0: 82 80        	ret
   175c2: 94 43        	lw	a3, 0x0(a5)
   175c4: 91 07        	addi	a5, a5, 0x4
   175c6: 11 07        	addi	a4, a4, 0x4
   175c8: 23 2e d7 fe  	sw	a3, -0x4(a4)
   175cc: e3 f6 17 fd  	bgeu	a5, a7, 0x17598 <__lshift+0xc6>
   175d0: 94 43        	lw	a3, 0x0(a5)
   175d2: 91 07        	addi	a5, a5, 0x4
   175d4: 11 07        	addi	a4, a4, 0x4
   175d6: 23 2e d7 fe  	sw	a3, -0x4(a4)
   175da: e3 e4 17 ff  	bltu	a5, a7, 0x175c2 <__lshift+0xf0>
   175de: 6d bf        	j	0x17598 <__lshift+0xc6>
   175e0: b7 06 02 00  	lui	a3, 0x20
   175e4: 37 05 02 00  	lui	a0, 0x20
   175e8: 93 86 86 c2  	addi	a3, a3, -0x3d8
   175ec: 01 46        	li	a2, 0x0
   175ee: 93 05 e0 1d  	li	a1, 0x1de
   175f2: 13 05 05 c4  	addi	a0, a0, -0x3c0
   175f6: ef 00 10 06  	jal	0x17e56 <__assert_func>

00000000000175fa <__mcmp>:
   175fa: dc 49        	lw	a5, 0x14(a1)
   175fc: 2a 88        	mv	a6, a0
   175fe: 48 49        	lw	a0, 0x14(a0)
   17600: 1d 9d        	subw	a0, a0, a5
   17602: 1d e5        	bnez	a0, 0x17630 <__mcmp+0x36>
   17604: 8a 07        	slli	a5, a5, 0x2
   17606: 61 08        	addi	a6, a6, 0x18
   17608: e1 05        	addi	a1, a1, 0x18
   1760a: 33 07 f8 00  	add	a4, a6, a5
   1760e: ae 97        	add	a5, a5, a1
   17610: 19 a0        	j	0x17616 <__mcmp+0x1c>
   17612: 63 7f e8 00  	bgeu	a6, a4, 0x17630 <__mcmp+0x36>
   17616: 03 26 c7 ff  	lw	a2, -0x4(a4)
   1761a: 83 a6 c7 ff  	lw	a3, -0x4(a5)
   1761e: 71 17        	addi	a4, a4, -0x4
   17620: f1 17        	addi	a5, a5, -0x4
   17622: e3 08 d6 fe  	beq	a2, a3, 0x17612 <__mcmp+0x18>
   17626: 05 45        	li	a0, 0x1
   17628: 63 74 d6 00  	bgeu	a2, a3, 0x17630 <__mcmp+0x36>
   1762c: 7d 55        	li	a0, -0x1
   1762e: 82 80        	ret
   17630: 82 80        	ret

0000000000017632 <__mdiff>:
   17632: d8 49        	lw	a4, 0x14(a1)
   17634: 5c 4a        	lw	a5, 0x14(a2)
   17636: 01 11        	addi	sp, sp, -0x20
   17638: 22 e8        	sd	s0, 0x10(sp)
   1763a: 26 e4        	sd	s1, 0x8(sp)
   1763c: 06 ec        	sd	ra, 0x18(sp)
   1763e: 4a e0        	sd	s2, 0x0(sp)
   17640: 1d 9f        	subw	a4, a4, a5
   17642: 2e 84        	mv	s0, a1
   17644: b2 84        	mv	s1, a2
   17646: 63 10 07 14  	bnez	a4, 0x17786 <__mdiff+0x154>
   1764a: 93 96 27 00  	slli	a3, a5, 0x2
   1764e: 13 86 85 01  	addi	a2, a1, 0x18
   17652: 13 87 84 01  	addi	a4, s1, 0x18
   17656: b3 07 d6 00  	add	a5, a2, a3
   1765a: 36 97        	add	a4, a4, a3
   1765c: 19 a0        	j	0x17662 <__mdiff+0x30>
   1765e: 63 7c f6 12  	bgeu	a2, a5, 0x17796 <__mdiff+0x164>
   17662: 83 a5 c7 ff  	lw	a1, -0x4(a5)
   17666: 83 26 c7 ff  	lw	a3, -0x4(a4)
   1766a: f1 17        	addi	a5, a5, -0x4
   1766c: 71 17        	addi	a4, a4, -0x4
   1766e: e3 88 d5 fe  	beq	a1, a3, 0x1765e <__mdiff+0x2c>
   17672: 05 49        	li	s2, 0x1
   17674: 63 e6 d5 00  	bltu	a1, a3, 0x17680 <__mdiff+0x4e>
   17678: a6 87        	mv	a5, s1
   1767a: 01 49        	li	s2, 0x0
   1767c: a2 84        	mv	s1, s0
   1767e: 3e 84        	mv	s0, a5
   17680: 8c 44        	lw	a1, 0x8(s1)
   17682: ef f0 ff 81  	jal	0x16ea0 <_Balloc>
   17686: 63 0f 05 12  	beqz	a0, 0x177c4 <__mdiff+0x192>
   1768a: 03 a3 44 01  	lw	t1, 0x14(s1)
   1768e: 83 22 44 01  	lw	t0, 0x14(s0)
   17692: 13 8f 84 01  	addi	t5, s1, 0x18
   17696: 13 1e 23 00  	slli	t3, t1, 0x2
   1769a: 13 08 84 01  	addi	a6, s0, 0x18
   1769e: 8a 02        	slli	t0, t0, 0x2
   176a0: 93 0f 85 01  	addi	t6, a0, 0x18
   176a4: c1 68        	lui	a7, 0x10
   176a6: 23 28 25 01  	sw	s2, 0x10(a0)
   176aa: 7a 9e        	add	t3, t3, t5
   176ac: c2 92        	add	t0, t0, a6
   176ae: fe 85        	mv	a1, t6
   176b0: fa 8e        	mv	t4, t5
   176b2: 01 46        	li	a2, 0x0
   176b4: fd 18        	addi	a7, a7, -0x1
   176b6: 03 a7 0e 00  	lw	a4, 0x0(t4)
   176ba: 83 26 08 00  	lw	a3, 0x0(a6)
   176be: 91 05        	addi	a1, a1, 0x4
   176c0: b3 77 17 01  	and	a5, a4, a7
   176c4: b3 f3 16 01  	and	t2, a3, a7
   176c8: bb 87 77 40  	subw	a5, a5, t2
   176cc: b1 9f        	addw	a5, a5, a2
   176ce: 9b d6 06 01  	srliw	a3, a3, 0x10
   176d2: 1b 57 07 01  	srliw	a4, a4, 0x10
   176d6: 15 9f        	subw	a4, a4, a3
   176d8: 9b d6 07 41  	sraiw	a3, a5, 0x10
   176dc: 35 9f        	addw	a4, a4, a3
   176de: b3 f7 f8 00  	and	a5, a7, a5
   176e2: 9b 16 07 01  	slliw	a3, a4, 0x10
   176e6: d5 8f        	or	a5, a5, a3
   176e8: 81 27        	sext.w	a5, a5
   176ea: 11 08        	addi	a6, a6, 0x4
   176ec: 23 ae f5 fe  	sw	a5, -0x4(a1)
   176f0: 91 0e        	addi	t4, t4, 0x4
   176f2: 1b 56 07 41  	sraiw	a2, a4, 0x10
   176f6: e3 60 58 fc  	bltu	a6, t0, 0x176b6 <__mdiff+0x84>
   176fa: 13 07 94 01  	addi	a4, s0, 0x19
   176fe: 33 84 82 40  	sub	s0, t0, s0
   17702: 1d 14        	addi	s0, s0, -0x19
   17704: b3 b2 e2 00  	sltu	t0, t0, a4
   17708: 93 c8 12 00  	xori	a7, t0, 0x1
   1770c: 09 80        	srli	s0, s0, 0x2
   1770e: 11 47        	li	a4, 0x4
   17710: 63 8f 02 06  	beqz	t0, 0x1778e <__mdiff+0x15c>
   17714: 3a 9f        	add	t5, t5, a4
   17716: b3 8e ef 00  	add	t4, t6, a4
   1771a: 41 68        	lui	a6, 0x10
   1771c: f6 85        	mv	a1, t4
   1771e: fa 86        	mv	a3, t5
   17720: 7d 18        	addi	a6, a6, -0x1
   17722: 63 78 cf 09  	bgeu	t5, t3, 0x177b2 <__mdiff+0x180>
   17726: 9c 42        	lw	a5, 0x0(a3)
   17728: 9b 08 06 00  	sext.w	a7, a2
   1772c: 91 05        	addi	a1, a1, 0x4
   1772e: 33 f7 07 01  	and	a4, a5, a6
   17732: 31 9f        	addw	a4, a4, a2
   17734: 1b 57 07 41  	sraiw	a4, a4, 0x10
   17738: 1b d6 07 01  	srliw	a2, a5, 0x10
   1773c: 31 9f        	addw	a4, a4, a2
   1773e: bb 87 17 01  	addw	a5, a5, a7
   17742: 1b 16 07 01  	slliw	a2, a4, 0x10
   17746: b3 f7 07 01  	and	a5, a5, a6
   1774a: d1 8f        	or	a5, a5, a2
   1774c: 81 27        	sext.w	a5, a5
   1774e: 91 06        	addi	a3, a3, 0x4
   17750: 23 ae f5 fe  	sw	a5, -0x4(a1)
   17754: 1b 56 07 41  	sraiw	a2, a4, 0x10
   17758: e3 e7 c6 fd  	bltu	a3, t3, 0x17726 <__mdiff+0xf4>
   1775c: 7d 1e        	addi	t3, t3, -0x1
   1775e: 33 0e ee 41  	sub	t3, t3, t5
   17762: 13 7e ce ff  	andi	t3, t3, -0x4
   17766: 33 87 ce 01  	add	a4, t4, t3
   1776a: 91 e7        	bnez	a5, 0x17776 <__mdiff+0x144>
   1776c: 83 27 c7 ff  	lw	a5, -0x4(a4)
   17770: 7d 33        	addiw	t1, t1, -0x1
   17772: 71 17        	addi	a4, a4, -0x4
   17774: e5 df        	beqz	a5, 0x1776c <__mdiff+0x13a>
   17776: e2 60        	ld	ra, 0x18(sp)
   17778: 42 64        	ld	s0, 0x10(sp)
   1777a: 23 2a 65 00  	sw	t1, 0x14(a0)
   1777e: a2 64        	ld	s1, 0x8(sp)
   17780: 02 69        	ld	s2, 0x0(sp)
   17782: 05 61        	addi	sp, sp, 0x20
   17784: 82 80        	ret
   17786: 05 49        	li	s2, 0x1
   17788: e3 58 07 ee  	bgez	a4, 0x17678 <__mdiff+0x46>
   1778c: d5 bd        	j	0x17680 <__mdiff+0x4e>
   1778e: 13 07 14 00  	addi	a4, s0, 0x1
   17792: 0a 07        	slli	a4, a4, 0x2
   17794: 41 b7        	j	0x17714 <__mdiff+0xe2>
   17796: 81 45        	li	a1, 0x0
   17798: ef f0 8f f0  	jal	0x16ea0 <_Balloc>
   1779c: 29 c1        	beqz	a0, 0x177de <__mdiff+0x1ac>
   1779e: e2 60        	ld	ra, 0x18(sp)
   177a0: 42 64        	ld	s0, 0x10(sp)
   177a2: 85 47        	li	a5, 0x1
   177a4: 5c c9        	sw	a5, 0x14(a0)
   177a6: 23 2c 05 00  	sw	zero, 0x18(a0)
   177aa: a2 64        	ld	s1, 0x8(sp)
   177ac: 02 69        	ld	s2, 0x0(sp)
   177ae: 05 61        	addi	sp, sp, 0x20
   177b0: 82 80        	ret
   177b2: 01 47        	li	a4, 0x0
   177b4: 63 94 08 00  	bnez	a7, 0x177bc <__mdiff+0x18a>
   177b8: 7e 97        	add	a4, a4, t6
   177ba: 45 bf        	j	0x1776a <__mdiff+0x138>
   177bc: 13 17 24 00  	slli	a4, s0, 0x2
   177c0: 7e 97        	add	a4, a4, t6
   177c2: 65 b7        	j	0x1776a <__mdiff+0x138>
   177c4: b7 06 02 00  	lui	a3, 0x20
   177c8: 37 05 02 00  	lui	a0, 0x20
   177cc: 93 86 86 c2  	addi	a3, a3, -0x3d8
   177d0: 01 46        	li	a2, 0x0
   177d2: 93 05 50 24  	li	a1, 0x245
   177d6: 13 05 05 c4  	addi	a0, a0, -0x3c0
   177da: ef 00 c0 67  	jal	0x17e56 <__assert_func>
   177de: b7 06 02 00  	lui	a3, 0x20
   177e2: 37 05 02 00  	lui	a0, 0x20
   177e6: 93 86 86 c2  	addi	a3, a3, -0x3d8
   177ea: 01 46        	li	a2, 0x0
   177ec: 93 05 70 23  	li	a1, 0x237
   177f0: 13 05 05 c4  	addi	a0, a0, -0x3c0
   177f4: ef 00 20 66  	jal	0x17e56 <__assert_func>

00000000000177f8 <__ulp>:
   177f8: 53 07 05 e2  	fmv.x.d	a4, fa0
   177fc: b7 07 f0 7f  	lui	a5, 0x7ff00
   17800: 01 93        	srli	a4, a4, 0x20
   17802: 7d 8f        	and	a4, a4, a5
   17804: b7 07 c0 fc  	lui	a5, 0xfcc00
   17808: bb 86 e7 00  	addw	a3, a5, a4
   1780c: 01 47        	li	a4, 0x0
   1780e: 63 59 d0 00  	blez	a3, 0x17820 <__ulp+0x28>
   17812: 02 17        	slli	a4, a4, 0x20
   17814: 82 16        	slli	a3, a3, 0x20
   17816: 01 93        	srli	a4, a4, 0x20
   17818: 55 8f        	or	a4, a4, a3
   1781a: 53 05 07 f2  	fmv.d.x	fa0, a4
   1781e: 82 80        	ret
   17820: bb 07 d0 40  	negw	a5, a3
   17824: 1b d7 47 41  	sraiw	a4, a5, 0x14
   17828: cd 46        	li	a3, 0x13
   1782a: 63 ce e6 00  	blt	a3, a4, 0x17846 <__ulp+0x4e>
   1782e: b7 06 08 00  	lui	a3, 0x80
   17832: bb d6 e6 40  	sraw	a3, a3, a4
   17836: 01 47        	li	a4, 0x0
   17838: 02 17        	slli	a4, a4, 0x20
   1783a: 82 16        	slli	a3, a3, 0x20
   1783c: 01 93        	srli	a4, a4, 0x20
   1783e: 55 8f        	or	a4, a4, a3
   17840: 53 05 07 f2  	fmv.d.x	fa0, a4
   17844: 82 80        	ret
   17846: 9b 07 c7 fe  	addiw	a5, a4, -0x14
   1784a: f9 46        	li	a3, 0x1e
   1784c: 05 47        	li	a4, 0x1
   1784e: 63 c6 f6 00  	blt	a3, a5, 0x1785a <__ulp+0x62>
   17852: 37 07 00 80  	lui	a4, 0x80000
   17856: 3b 57 f7 00  	srlw	a4, a4, a5
   1785a: 81 46        	li	a3, 0x0
   1785c: 02 17        	slli	a4, a4, 0x20
   1785e: 82 16        	slli	a3, a3, 0x20
   17860: 01 93        	srli	a4, a4, 0x20
   17862: 55 8f        	or	a4, a4, a3
   17864: 53 05 07 f2  	fmv.d.x	fa0, a4
   17868: 82 80        	ret

000000000001786a <__b2d>:
   1786a: 79 71        	addi	sp, sp, -0x30
   1786c: 26 ec        	sd	s1, 0x18(sp)
   1786e: 44 49        	lw	s1, 0x14(a0)
   17870: 22 f0        	sd	s0, 0x20(sp)
   17872: 13 04 85 01  	addi	s0, a0, 0x18
   17876: 8a 04        	slli	s1, s1, 0x2
   17878: a2 94        	add	s1, s1, s0
   1787a: 4a e8        	sd	s2, 0x10(sp)
   1787c: 03 a9 c4 ff  	lw	s2, -0x4(s1)
   17880: 4e e4        	sd	s3, 0x8(sp)
   17882: 52 e0        	sd	s4, 0x0(sp)
   17884: 4a 85        	mv	a0, s2
   17886: ae 89        	mv	s3, a1
   17888: 06 f4        	sd	ra, 0x28(sp)
   1788a: ef f0 1f 86  	jal	0x170ea <__hi0bits>
   1788e: 93 06 00 02  	li	a3, 0x20
   17892: bb 87 a6 40  	subw	a5, a3, a0
   17896: 23 a0 f9 00  	sw	a5, 0x0(s3)
   1789a: a9 47        	li	a5, 0xa
   1789c: 13 8a c4 ff  	addi	s4, s1, -0x4
   178a0: 63 d5 a7 08  	bge	a5, a0, 0x1792a <__b2d+0xc0>
   178a4: 9b 07 55 ff  	addiw	a5, a0, -0xb
   178a8: 63 71 44 05  	bgeu	s0, s4, 0x178ea <__b2d+0x80>
   178ac: 03 a7 84 ff  	lw	a4, -0x8(s1)
   178b0: a9 cb        	beqz	a5, 0x17902 <__b2d+0x98>
   178b2: 9d 9e        	subw	a3, a3, a5
   178b4: 3b 56 d7 00  	srlw	a2, a4, a3
   178b8: 3b 19 f9 00  	sllw	s2, s2, a5
   178bc: 33 69 c9 00  	or	s2, s2, a2
   178c0: 37 06 f0 3f  	lui	a2, 0x3ff00
   178c4: 33 69 c9 00  	or	s2, s2, a2
   178c8: bb 15 f7 00  	sllw	a1, a4, a5
   178cc: 13 86 84 ff  	addi	a2, s1, -0x8
   178d0: 93 17 09 02  	slli	a5, s2, 0x20
   178d4: 1b 87 05 00  	sext.w	a4, a1
   178d8: 63 7a c4 02  	bgeu	s0, a2, 0x1790c <__b2d+0xa2>
   178dc: 03 a7 44 ff  	lw	a4, -0xc(s1)
   178e0: 3b 57 d7 00  	srlw	a4, a4, a3
   178e4: 4d 8f        	or	a4, a4, a1
   178e6: 01 27        	sext.w	a4, a4
   178e8: 15 a0        	j	0x1790c <__b2d+0xa2>
   178ea: 2d 47        	li	a4, 0xb
   178ec: 63 0a e5 00  	beq	a0, a4, 0x17900 <__b2d+0x96>
   178f0: 37 07 f0 3f  	lui	a4, 0x3ff00
   178f4: bb 17 f9 00  	sllw	a5, s2, a5
   178f8: d9 8f        	or	a5, a5, a4
   178fa: 82 17        	slli	a5, a5, 0x20
   178fc: 01 47        	li	a4, 0x0
   178fe: 39 a0        	j	0x1790c <__b2d+0xa2>
   17900: 01 47        	li	a4, 0x0
   17902: b7 07 f0 3f  	lui	a5, 0x3ff00
   17906: b3 67 f9 00  	or	a5, s2, a5
   1790a: 82 17        	slli	a5, a5, 0x20
   1790c: a2 70        	ld	ra, 0x28(sp)
   1790e: 02 74        	ld	s0, 0x20(sp)
   17910: 81 93        	srli	a5, a5, 0x20
   17912: 02 17        	slli	a4, a4, 0x20
   17914: 01 93        	srli	a4, a4, 0x20
   17916: 82 17        	slli	a5, a5, 0x20
   17918: d9 8f        	or	a5, a5, a4
   1791a: e2 64        	ld	s1, 0x18(sp)
   1791c: 42 69        	ld	s2, 0x10(sp)
   1791e: a2 69        	ld	s3, 0x8(sp)
   17920: 02 6a        	ld	s4, 0x0(sp)
   17922: 53 85 07 f2  	fmv.d.x	fa0, a5
   17926: 45 61        	addi	sp, sp, 0x30
   17928: 82 80        	ret
   1792a: ad 46        	li	a3, 0xb
   1792c: 89 9e        	subw	a3, a3, a0
   1792e: 37 07 f0 3f  	lui	a4, 0x3ff00
   17932: bb 57 d9 00  	srlw	a5, s2, a3
   17936: d9 8f        	or	a5, a5, a4
   17938: 82 17        	slli	a5, a5, 0x20
   1793a: 01 47        	li	a4, 0x0
   1793c: 63 76 44 01  	bgeu	s0, s4, 0x17948 <__b2d+0xde>
   17940: 03 a7 84 ff  	lw	a4, -0x8(s1)
   17944: 3b 57 d7 00  	srlw	a4, a4, a3
   17948: 55 25        	addiw	a0, a0, 0x15
   1794a: 3b 15 a9 00  	sllw	a0, s2, a0
   1794e: 49 8f        	or	a4, a4, a0
   17950: 01 27        	sext.w	a4, a4
   17952: 6d bf        	j	0x1790c <__b2d+0xa2>

0000000000017954 <__d2b>:
   17954: 39 71        	addi	sp, sp, -0x40
   17956: 52 e8        	sd	s4, 0x10(sp)
   17958: 2e 8a        	mv	s4, a1
   1795a: 85 45        	li	a1, 0x1
   1795c: 22 f8        	sd	s0, 0x30(sp)
   1795e: 4a f0        	sd	s2, 0x20(sp)
   17960: 06 fc        	sd	ra, 0x38(sp)
   17962: 26 f4        	sd	s1, 0x28(sp)
   17964: 4e ec        	sd	s3, 0x18(sp)
   17966: 53 04 05 e2  	fmv.x.d	s0, fa0
   1796a: 32 89        	mv	s2, a2
   1796c: ef f0 4f d3  	jal	0x16ea0 <_Balloc>
   17970: 55 c9        	beqz	a0, 0x17a24 <__d2b+0xd0>
   17972: 93 57 04 42  	srai	a5, s0, 0x20
   17976: 9b d9 47 01  	srliw	s3, a5, 0x14
   1797a: 93 f9 f9 7f  	andi	s3, s3, 0x7ff
   1797e: b2 17        	slli	a5, a5, 0x2c
   17980: aa 84        	mv	s1, a0
   17982: b1 93        	srli	a5, a5, 0x2c
   17984: 63 85 09 00  	beqz	s3, 0x1798e <__d2b+0x3a>
   17988: 37 07 10 00  	lui	a4, 0x100
   1798c: d9 8f        	or	a5, a5, a4
   1798e: 3e c6        	sw	a5, 0xc(sp)
   17990: 01 24        	sext.w	s0, s0
   17992: 29 e0        	bnez	s0, 0x179d4 <__d2b+0x80>
   17994: 68 00        	addi	a0, sp, 0xc
   17996: ef f0 2f fb  	jal	0x17148 <__lo0bits>
   1799a: b2 47        	lw	a5, 0xc(sp)
   1799c: 05 44        	li	s0, 0x1
   1799e: c0 c8        	sw	s0, 0x14(s1)
   179a0: 9c cc        	sw	a5, 0x18(s1)
   179a2: 1b 05 05 02  	addiw	a0, a0, 0x20
   179a6: 63 80 09 06  	beqz	s3, 0x17a06 <__d2b+0xb2>
   179aa: 9b 89 d9 bc  	addiw	s3, s3, -0x433
   179ae: bb 89 a9 00  	addw	s3, s3, a0
   179b2: 13 04 50 03  	li	s0, 0x35
   179b6: 23 20 3a 01  	sw	s3, 0x0(s4)
   179ba: 3b 05 a4 40  	subw	a0, s0, a0
   179be: e2 70        	ld	ra, 0x38(sp)
   179c0: 42 74        	ld	s0, 0x30(sp)
   179c2: 23 20 a9 00  	sw	a0, 0x0(s2)
   179c6: e2 69        	ld	s3, 0x18(sp)
   179c8: 02 79        	ld	s2, 0x20(sp)
   179ca: 42 6a        	ld	s4, 0x10(sp)
   179cc: 26 85        	mv	a0, s1
   179ce: a2 74        	ld	s1, 0x28(sp)
   179d0: 21 61        	addi	sp, sp, 0x40
   179d2: 82 80        	ret
   179d4: 28 00        	addi	a0, sp, 0x8
   179d6: 22 c4        	sw	s0, 0x8(sp)
   179d8: ef f0 0f f7  	jal	0x17148 <__lo0bits>
   179dc: b2 47        	lw	a5, 0xc(sp)
   179de: 22 47        	lw	a4, 0x8(sp)
   179e0: 19 c9        	beqz	a0, 0x179f6 <__d2b+0xa2>
   179e2: 93 06 00 02  	li	a3, 0x20
   179e6: 89 9e        	subw	a3, a3, a0
   179e8: bb 96 d7 00  	sllw	a3, a5, a3
   179ec: 55 8f        	or	a4, a4, a3
   179ee: bb d7 a7 00  	srlw	a5, a5, a0
   179f2: 01 27        	sext.w	a4, a4
   179f4: 3e c6        	sw	a5, 0xc(sp)
   179f6: 33 34 f0 00  	snez	s0, a5
   179fa: 05 04        	addi	s0, s0, 0x1
   179fc: 98 cc        	sw	a4, 0x18(s1)
   179fe: dc cc        	sw	a5, 0x1c(s1)
   17a00: c0 c8        	sw	s0, 0x14(s1)
   17a02: e3 94 09 fa  	bnez	s3, 0x179aa <__d2b+0x56>
   17a06: 1b 05 e5 bc  	addiw	a0, a0, -0x432
   17a0a: 93 17 24 00  	slli	a5, s0, 0x2
   17a0e: 23 20 aa 00  	sw	a0, 0x0(s4)
   17a12: a6 97        	add	a5, a5, s1
   17a14: c8 4b        	lw	a0, 0x14(a5)
   17a16: 1b 14 54 00  	slliw	s0, s0, 0x5
   17a1a: ef f0 0f ed  	jal	0x170ea <__hi0bits>
   17a1e: 3b 05 a4 40  	subw	a0, s0, a0
   17a22: 71 bf        	j	0x179be <__d2b+0x6a>
   17a24: b7 06 02 00  	lui	a3, 0x20
   17a28: 37 05 02 00  	lui	a0, 0x20
   17a2c: 93 86 86 c2  	addi	a3, a3, -0x3d8
   17a30: 01 46        	li	a2, 0x0
   17a32: 93 05 f0 30  	li	a1, 0x30f
   17a36: 13 05 05 c4  	addi	a0, a0, -0x3c0
   17a3a: ef 00 c0 41  	jal	0x17e56 <__assert_func>

0000000000017a3e <__ratio>:
   17a3e: 79 71        	addi	sp, sp, -0x30
   17a40: 26 ec        	sd	s1, 0x18(sp)
   17a42: ae 84        	mv	s1, a1
   17a44: 2c 00        	addi	a1, sp, 0x8
   17a46: 06 f4        	sd	ra, 0x28(sp)
   17a48: 22 f0        	sd	s0, 0x20(sp)
   17a4a: 4a e8        	sd	s2, 0x10(sp)
   17a4c: 2a 89        	mv	s2, a0
   17a4e: ef f0 df e1  	jal	0x1786a <__b2d>
   17a52: 6c 00        	addi	a1, sp, 0xc
   17a54: 26 85        	mv	a0, s1
   17a56: 53 04 05 e2  	fmv.x.d	s0, fa0
   17a5a: ef f0 1f e1  	jal	0x1786a <__b2d>
   17a5e: 83 27 49 01  	lw	a5, 0x14(s2)
   17a62: d0 48        	lw	a2, 0x14(s1)
   17a64: b2 46        	lw	a3, 0xc(sp)
   17a66: 22 47        	lw	a4, 0x8(sp)
   17a68: 91 9f        	subw	a5, a5, a2
   17a6a: 9b 97 57 00  	slliw	a5, a5, 0x5
   17a6e: 15 9f        	subw	a4, a4, a3
   17a70: bb 86 e7 00  	addw	a3, a5, a4
   17a74: b6 87        	mv	a5, a3
   17a76: 53 07 05 e2  	fmv.x.d	a4, fa0
   17a7a: 63 59 d0 02  	blez	a3, 0x17aac <__ratio+0x6e>
   17a7e: 93 56 04 02  	srli	a3, s0, 0x20
   17a82: 9b 97 47 01  	slliw	a5, a5, 0x14
   17a86: b5 9f        	addw	a5, a5, a3
   17a88: fd 56        	li	a3, -0x1
   17a8a: 81 92        	srli	a3, a3, 0x20
   17a8c: 82 17        	slli	a5, a5, 0x20
   17a8e: e1 8e        	and	a3, a3, s0
   17a90: 33 e4 f6 00  	or	s0, a3, a5
   17a94: d3 07 04 f2  	fmv.d.x	fa5, s0
   17a98: a2 70        	ld	ra, 0x28(sp)
   17a9a: 02 74        	ld	s0, 0x20(sp)
   17a9c: 53 07 07 f2  	fmv.d.x	fa4, a4
   17aa0: e2 64        	ld	s1, 0x18(sp)
   17aa2: 42 69        	ld	s2, 0x10(sp)
   17aa4: 53 f5 e7 1a  	fdiv.d	fa0, fa5, fa4
   17aa8: 45 61        	addi	sp, sp, 0x30
   17aaa: 82 80        	ret
   17aac: 93 56 07 02  	srli	a3, a4, 0x20
   17ab0: 9b 97 47 01  	slliw	a5, a5, 0x14
   17ab4: bb 87 f6 40  	subw	a5, a3, a5
   17ab8: fd 56        	li	a3, -0x1
   17aba: 81 92        	srli	a3, a3, 0x20
   17abc: 82 17        	slli	a5, a5, 0x20
   17abe: 75 8f        	and	a4, a4, a3
   17ac0: 5d 8f        	or	a4, a4, a5
   17ac2: c9 bf        	j	0x17a94 <__ratio+0x56>

0000000000017ac4 <_mprec_log10>:
   17ac4: dd 47        	li	a5, 0x17
   17ac6: 63 db a7 00  	bge	a5, a0, 0x17adc <_mprec_log10+0x18>
   17aca: 07 b5 81 83  	fld	fa0, -0x7c8(gp)
   17ace: 87 b7 01 84  	fld	fa5, -0x7c0(gp)
   17ad2: 7d 35        	addiw	a0, a0, -0x1
   17ad4: 53 75 f5 12  	fmul.d	fa0, fa0, fa5
   17ad8: 6d fd        	bnez	a0, 0x17ad2 <_mprec_log10+0xe>
   17ada: 82 80        	ret
   17adc: b7 07 02 00  	lui	a5, 0x20
   17ae0: 0e 05        	slli	a0, a0, 0x3
   17ae2: 93 87 87 07  	addi	a5, a5, 0x78
   17ae6: aa 97        	add	a5, a5, a0
   17ae8: 88 23        	fld	fa0, 0x0(a5)
   17aea: 82 80        	ret

0000000000017aec <__copybits>:
   17aec: 54 4a        	lw	a3, 0x14(a2)
   17aee: fd 35        	addiw	a1, a1, -0x1
   17af0: 9b d5 55 40  	sraiw	a1, a1, 0x5
   17af4: 85 25        	addiw	a1, a1, 0x1
   17af6: 93 07 86 01  	addi	a5, a2, 0x18
   17afa: 8a 06        	slli	a3, a3, 0x2
   17afc: 8a 05        	slli	a1, a1, 0x2
   17afe: be 96        	add	a3, a3, a5
   17b00: aa 95        	add	a1, a1, a0
   17b02: 63 f1 d7 02  	bgeu	a5, a3, 0x17b24 <__copybits+0x38>
   17b06: 2a 87        	mv	a4, a0
   17b08: 03 a8 07 00  	lw	a6, 0x0(a5)
   17b0c: 91 07        	addi	a5, a5, 0x4
   17b0e: 11 07        	addi	a4, a4, 0x4
   17b10: 23 2e 07 ff  	sw	a6, -0x4(a4)
   17b14: e3 ea d7 fe  	bltu	a5, a3, 0x17b08 <__copybits+0x1c>
   17b18: b3 87 c6 40  	sub	a5, a3, a2
   17b1c: 9d 17        	addi	a5, a5, -0x19
   17b1e: f1 9b        	andi	a5, a5, -0x4
   17b20: 91 07        	addi	a5, a5, 0x4
   17b22: 3e 95        	add	a0, a0, a5
   17b24: 63 77 b5 00  	bgeu	a0, a1, 0x17b32 <__copybits+0x46>
   17b28: 11 05        	addi	a0, a0, 0x4
   17b2a: 23 2e 05 fe  	sw	zero, -0x4(a0)
   17b2e: e3 6d b5 fe  	bltu	a0, a1, 0x17b28 <__copybits+0x3c>
   17b32: 82 80        	ret

0000000000017b34 <__any_on>:
   17b34: 58 49        	lw	a4, 0x14(a0)
   17b36: 13 d6 55 40  	srai	a2, a1, 0x5
   17b3a: 93 06 85 01  	addi	a3, a0, 0x18
   17b3e: 63 5d c7 00  	bge	a4, a2, 0x17b58 <__any_on+0x24>
   17b42: 0a 07        	slli	a4, a4, 0x2
   17b44: b3 87 e6 00  	add	a5, a3, a4
   17b48: 63 f8 f6 02  	bgeu	a3, a5, 0x17b78 <__any_on+0x44>
   17b4c: 03 a7 c7 ff  	lw	a4, -0x4(a5)
   17b50: f1 17        	addi	a5, a5, -0x4
   17b52: 7d db        	beqz	a4, 0x17b48 <__any_on+0x14>
   17b54: 05 45        	li	a0, 0x1
   17b56: 82 80        	ret
   17b58: 93 17 26 00  	slli	a5, a2, 0x2
   17b5c: b6 97        	add	a5, a5, a3
   17b5e: e3 55 e6 fe  	bge	a2, a4, 0x17b48 <__any_on+0x14>
   17b62: fd 89        	andi	a1, a1, 0x1f
   17b64: f5 d1        	beqz	a1, 0x17b48 <__any_on+0x14>
   17b66: 90 43        	lw	a2, 0x0(a5)
   17b68: 05 45        	li	a0, 0x1
   17b6a: 3b 57 b6 00  	srlw	a4, a2, a1
   17b6e: 3b 17 b7 00  	sllw	a4, a4, a1
   17b72: e3 0b c7 fc  	beq	a4, a2, 0x17b48 <__any_on+0x14>
   17b76: 82 80        	ret
   17b78: 01 45        	li	a0, 0x0
   17b7a: 82 80        	ret

0000000000017b7c <_wctomb_r>:
   17b7c: b7 27 02 00  	lui	a5, 0x22
   17b80: 83 b7 87 01  	ld	a5, 0x18(a5)
   17b84: 82 87        	jr	a5

0000000000017b86 <__ascii_wctomb>:
   17b86: 9b 07 06 00  	sext.w	a5, a2
   17b8a: 91 cd        	beqz	a1, 0x17ba6 <__ascii_wctomb+0x20>
   17b8c: 13 07 f0 0f  	li	a4, 0xff
   17b90: 63 66 f7 00  	bltu	a4, a5, 0x17b9c <__ascii_wctomb+0x16>
   17b94: 23 80 c5 00  	sb	a2, 0x0(a1)
   17b98: 05 45        	li	a0, 0x1
   17b9a: 82 80        	ret
   17b9c: 93 07 a0 08  	li	a5, 0x8a
   17ba0: 1c c1        	sw	a5, 0x0(a0)
   17ba2: 7d 55        	li	a0, -0x1
   17ba4: 82 80        	ret
   17ba6: 01 45        	li	a0, 0x0
   17ba8: 82 80        	ret

0000000000017baa <_wcrtomb_r>:
   17baa: 79 71        	addi	sp, sp, -0x30
   17bac: 22 f0        	sd	s0, 0x20(sp)
   17bae: 26 ec        	sd	s1, 0x18(sp)
   17bb0: b7 27 02 00  	lui	a5, 0x22
   17bb4: 06 f4        	sd	ra, 0x28(sp)
   17bb6: 83 b7 87 01  	ld	a5, 0x18(a5)
   17bba: 2a 84        	mv	s0, a0
   17bbc: b6 84        	mv	s1, a3
   17bbe: 91 c9        	beqz	a1, 0x17bd2 <_wcrtomb_r+0x28>
   17bc0: 82 97        	jalr	a5
   17bc2: fd 57        	li	a5, -0x1
   17bc4: 63 0d f5 00  	beq	a0, a5, 0x17bde <_wcrtomb_r+0x34>
   17bc8: a2 70        	ld	ra, 0x28(sp)
   17bca: 02 74        	ld	s0, 0x20(sp)
   17bcc: e2 64        	ld	s1, 0x18(sp)
   17bce: 45 61        	addi	sp, sp, 0x30
   17bd0: 82 80        	ret
   17bd2: 01 46        	li	a2, 0x0
   17bd4: 8a 85        	mv	a1, sp
   17bd6: 82 97        	jalr	a5
   17bd8: fd 57        	li	a5, -0x1
   17bda: e3 17 f5 fe  	bne	a0, a5, 0x17bc8 <_wcrtomb_r+0x1e>
   17bde: 23 a0 04 00  	sw	zero, 0x0(s1)
   17be2: 93 07 a0 08  	li	a5, 0x8a
   17be6: a2 70        	ld	ra, 0x28(sp)
   17be8: 1c c0        	sw	a5, 0x0(s0)
   17bea: 02 74        	ld	s0, 0x20(sp)
   17bec: e2 64        	ld	s1, 0x18(sp)
   17bee: 45 61        	addi	sp, sp, 0x30
   17bf0: 82 80        	ret

0000000000017bf2 <wcrtomb>:
   17bf2: 79 71        	addi	sp, sp, -0x30
   17bf4: 22 f0        	sd	s0, 0x20(sp)
   17bf6: 26 ec        	sd	s1, 0x18(sp)
   17bf8: 06 f4        	sd	ra, 0x28(sp)
   17bfa: 83 b4 81 88  	ld	s1, -0x778(gp)
   17bfe: b7 27 02 00  	lui	a5, 0x22
   17c02: 83 b7 87 01  	ld	a5, 0x18(a5)
   17c06: 32 84        	mv	s0, a2
   17c08: 11 cd        	beqz	a0, 0x17c24 <wcrtomb+0x32>
   17c0a: 2e 86        	mv	a2, a1
   17c0c: a2 86        	mv	a3, s0
   17c0e: aa 85        	mv	a1, a0
   17c10: 26 85        	mv	a0, s1
   17c12: 82 97        	jalr	a5
   17c14: fd 57        	li	a5, -0x1
   17c16: 63 0f f5 00  	beq	a0, a5, 0x17c34 <wcrtomb+0x42>
   17c1a: a2 70        	ld	ra, 0x28(sp)
   17c1c: 02 74        	ld	s0, 0x20(sp)
   17c1e: e2 64        	ld	s1, 0x18(sp)
   17c20: 45 61        	addi	sp, sp, 0x30
   17c22: 82 80        	ret
   17c24: b2 86        	mv	a3, a2
   17c26: 8a 85        	mv	a1, sp
   17c28: 01 46        	li	a2, 0x0
   17c2a: 26 85        	mv	a0, s1
   17c2c: 82 97        	jalr	a5
   17c2e: fd 57        	li	a5, -0x1
   17c30: e3 15 f5 fe  	bne	a0, a5, 0x17c1a <wcrtomb+0x28>
   17c34: 23 20 04 00  	sw	zero, 0x0(s0)
   17c38: a2 70        	ld	ra, 0x28(sp)
   17c3a: 02 74        	ld	s0, 0x20(sp)
   17c3c: 93 07 a0 08  	li	a5, 0x8a
   17c40: 9c c0        	sw	a5, 0x0(s1)
   17c42: e2 64        	ld	s1, 0x18(sp)
   17c44: 45 61        	addi	sp, sp, 0x30
   17c46: 82 80        	ret

0000000000017c48 <__smakebuf_r>:
   17c48: 83 97 05 01  	lh	a5, 0x10(a1)
   17c4c: 35 71        	addi	sp, sp, -0xa0
   17c4e: 22 e9        	sd	s0, 0x90(sp)
   17c50: 06 ed        	sd	ra, 0x98(sp)
   17c52: 13 f7 27 00  	andi	a4, a5, 0x2
   17c56: 2e 84        	mv	s0, a1
   17c58: 19 cb        	beqz	a4, 0x17c6e <__smakebuf_r+0x26>
   17c5a: 93 87 75 07  	addi	a5, a1, 0x77
   17c5e: 9c e1        	sd	a5, 0x0(a1)
   17c60: 9c ed        	sd	a5, 0x18(a1)
   17c62: 85 47        	li	a5, 0x1
   17c64: 9c d1        	sw	a5, 0x20(a1)
   17c66: ea 60        	ld	ra, 0x98(sp)
   17c68: 4a 64        	ld	s0, 0x90(sp)
   17c6a: 0d 61        	addi	sp, sp, 0xa0
   17c6c: 82 80        	ret
   17c6e: 83 95 25 01  	lh	a1, 0x12(a1)
   17c72: 26 e5        	sd	s1, 0x88(sp)
   17c74: 4a e1        	sd	s2, 0x80(sp)
   17c76: ce fc        	sd	s3, 0x78(sp)
   17c78: d2 f8        	sd	s4, 0x70(sp)
   17c7a: aa 84        	mv	s1, a0
   17c7c: 63 c4 05 06  	bltz	a1, 0x17ce4 <__smakebuf_r+0x9c>
   17c80: 30 00        	addi	a2, sp, 0x8
   17c82: ef 00 40 16  	jal	0x17de6 <_fstat_r>
   17c86: 63 4d 05 04  	bltz	a0, 0x17ce0 <__smakebuf_r+0x98>
   17c8a: 32 49        	lw	s2, 0xc(sp)
   17c8c: bd 67        	lui	a5, 0xf
   17c8e: 85 69        	lui	s3, 0x1
   17c90: 33 79 f9 00  	and	s2, s2, a5
   17c94: 89 67        	lui	a5, 0x2
   17c96: 33 09 f9 40  	sub	s2, s2, a5
   17c9a: 13 39 19 00  	seqz	s2, s2
   17c9e: 13 0a 00 40  	li	s4, 0x400
   17ca2: 93 89 09 80  	addi	s3, s3, -0x800
   17ca6: d2 85        	mv	a1, s4
   17ca8: 26 85        	mv	a0, s1
   17caa: ef 80 5f b2  	jal	0x107ce <_malloc_r>
   17cae: 83 17 04 01  	lh	a5, 0x10(s0)
   17cb2: 39 c5        	beqz	a0, 0x17d00 <__smakebuf_r+0xb8>
   17cb4: 93 e7 07 08  	ori	a5, a5, 0x80
   17cb8: 08 e0        	sd	a0, 0x0(s0)
   17cba: 08 ec        	sd	a0, 0x18(s0)
   17cbc: 23 18 f4 00  	sh	a5, 0x10(s0)
   17cc0: 23 20 44 03  	sw	s4, 0x20(s0)
   17cc4: 63 15 09 06  	bnez	s2, 0x17d2e <__smakebuf_r+0xe6>
   17cc8: b3 e7 37 01  	or	a5, a5, s3
   17ccc: ea 60        	ld	ra, 0x98(sp)
   17cce: 23 18 f4 00  	sh	a5, 0x10(s0)
   17cd2: 4a 64        	ld	s0, 0x90(sp)
   17cd4: aa 64        	ld	s1, 0x88(sp)
   17cd6: 0a 69        	ld	s2, 0x80(sp)
   17cd8: e6 79        	ld	s3, 0x78(sp)
   17cda: 46 7a        	ld	s4, 0x70(sp)
   17cdc: 0d 61        	addi	sp, sp, 0xa0
   17cde: 82 80        	ret
   17ce0: 83 17 04 01  	lh	a5, 0x10(s0)
   17ce4: 93 f7 07 08  	andi	a5, a5, 0x80
   17ce8: 01 49        	li	s2, 0x0
   17cea: 95 cf        	beqz	a5, 0x17d26 <__smakebuf_r+0xde>
   17cec: 13 0a 00 04  	li	s4, 0x40
   17cf0: d2 85        	mv	a1, s4
   17cf2: 26 85        	mv	a0, s1
   17cf4: ef 80 bf ad  	jal	0x107ce <_malloc_r>
   17cf8: 83 17 04 01  	lh	a5, 0x10(s0)
   17cfc: 81 49        	li	s3, 0x0
   17cfe: 5d f9        	bnez	a0, 0x17cb4 <__smakebuf_r+0x6c>
   17d00: 13 f7 07 20  	andi	a4, a5, 0x200
   17d04: 15 ef        	bnez	a4, 0x17d40 <__smakebuf_r+0xf8>
   17d06: f1 9b        	andi	a5, a5, -0x4
   17d08: 93 e7 27 00  	ori	a5, a5, 0x2
   17d0c: 13 07 74 07  	addi	a4, s0, 0x77
   17d10: 23 18 f4 00  	sh	a5, 0x10(s0)
   17d14: 85 47        	li	a5, 0x1
   17d16: aa 64        	ld	s1, 0x88(sp)
   17d18: 0a 69        	ld	s2, 0x80(sp)
   17d1a: e6 79        	ld	s3, 0x78(sp)
   17d1c: 46 7a        	ld	s4, 0x70(sp)
   17d1e: 18 e0        	sd	a4, 0x0(s0)
   17d20: 18 ec        	sd	a4, 0x18(s0)
   17d22: 1c d0        	sw	a5, 0x20(s0)
   17d24: 89 b7        	j	0x17c66 <__smakebuf_r+0x1e>
   17d26: 13 0a 00 40  	li	s4, 0x400
   17d2a: 81 49        	li	s3, 0x0
   17d2c: ad bf        	j	0x17ca6 <__smakebuf_r+0x5e>
   17d2e: 83 15 24 01  	lh	a1, 0x12(s0)
   17d32: 26 85        	mv	a0, s1
   17d34: ef 00 c0 0e  	jal	0x17e20 <_isatty_r>
   17d38: 09 e9        	bnez	a0, 0x17d4a <__smakebuf_r+0x102>
   17d3a: 83 17 04 01  	lh	a5, 0x10(s0)
   17d3e: 69 b7        	j	0x17cc8 <__smakebuf_r+0x80>
   17d40: aa 64        	ld	s1, 0x88(sp)
   17d42: 0a 69        	ld	s2, 0x80(sp)
   17d44: e6 79        	ld	s3, 0x78(sp)
   17d46: 46 7a        	ld	s4, 0x70(sp)
   17d48: 39 bf        	j	0x17c66 <__smakebuf_r+0x1e>
   17d4a: 83 57 04 01  	lhu	a5, 0x10(s0)
   17d4e: f1 9b        	andi	a5, a5, -0x4
   17d50: 93 e7 17 00  	ori	a5, a5, 0x1
   17d54: 9b 97 07 01  	slliw	a5, a5, 0x10
   17d58: 9b d7 07 41  	sraiw	a5, a5, 0x10
   17d5c: b5 b7        	j	0x17cc8 <__smakebuf_r+0x80>

0000000000017d5e <__swhatbuf_r>:
   17d5e: 75 71        	addi	sp, sp, -0x90
   17d60: 22 e1        	sd	s0, 0x80(sp)
   17d62: 2e 84        	mv	s0, a1
   17d64: 83 95 25 01  	lh	a1, 0x12(a1)
   17d68: a6 fc        	sd	s1, 0x78(sp)
   17d6a: ca f8        	sd	s2, 0x70(sp)
   17d6c: 06 e5        	sd	ra, 0x88(sp)
   17d6e: b2 84        	mv	s1, a2
   17d70: 36 89        	mv	s2, a3
   17d72: 63 cc 05 02  	bltz	a1, 0x17daa <__swhatbuf_r+0x4c>
   17d76: 30 00        	addi	a2, sp, 0x8
   17d78: ef 00 e0 06  	jal	0x17de6 <_fstat_r>
   17d7c: 63 47 05 02  	bltz	a0, 0x17daa <__swhatbuf_r+0x4c>
   17d80: b2 47        	lw	a5, 0xc(sp)
   17d82: 3d 67        	lui	a4, 0xf
   17d84: aa 60        	ld	ra, 0x88(sp)
   17d86: f9 8f        	and	a5, a5, a4
   17d88: 09 67        	lui	a4, 0x2
   17d8a: 99 8f        	sub	a5, a5, a4
   17d8c: 0a 64        	ld	s0, 0x80(sp)
   17d8e: 93 b7 17 00  	seqz	a5, a5
   17d92: 23 20 f9 00  	sw	a5, 0x0(s2)
   17d96: 13 07 00 40  	li	a4, 0x400
   17d9a: 98 e0        	sd	a4, 0x0(s1)
   17d9c: 05 65        	lui	a0, 0x1
   17d9e: e6 74        	ld	s1, 0x78(sp)
   17da0: 46 79        	ld	s2, 0x70(sp)
   17da2: 13 05 05 80  	addi	a0, a0, -0x800
   17da6: 49 61        	addi	sp, sp, 0x90
   17da8: 82 80        	ret
   17daa: 83 57 04 01  	lhu	a5, 0x10(s0)
   17dae: 93 f7 07 08  	andi	a5, a5, 0x80
   17db2: 91 cf        	beqz	a5, 0x17dce <__swhatbuf_r+0x70>
   17db4: aa 60        	ld	ra, 0x88(sp)
   17db6: 0a 64        	ld	s0, 0x80(sp)
   17db8: 81 47        	li	a5, 0x0
   17dba: 23 20 f9 00  	sw	a5, 0x0(s2)
   17dbe: 13 07 00 04  	li	a4, 0x40
   17dc2: 98 e0        	sd	a4, 0x0(s1)
   17dc4: 46 79        	ld	s2, 0x70(sp)
   17dc6: e6 74        	ld	s1, 0x78(sp)
   17dc8: 01 45        	li	a0, 0x0
   17dca: 49 61        	addi	sp, sp, 0x90
   17dcc: 82 80        	ret
   17dce: aa 60        	ld	ra, 0x88(sp)
   17dd0: 0a 64        	ld	s0, 0x80(sp)
   17dd2: 23 20 f9 00  	sw	a5, 0x0(s2)
   17dd6: 13 07 00 40  	li	a4, 0x400
   17dda: 98 e0        	sd	a4, 0x0(s1)
   17ddc: 46 79        	ld	s2, 0x70(sp)
   17dde: e6 74        	ld	s1, 0x78(sp)
   17de0: 01 45        	li	a0, 0x0
   17de2: 49 61        	addi	sp, sp, 0x90
   17de4: 82 80        	ret

0000000000017de6 <_fstat_r>:
   17de6: 01 11        	addi	sp, sp, -0x20
   17de8: 2e 87        	mv	a4, a1
   17dea: 22 e8        	sd	s0, 0x10(sp)
   17dec: 26 e4        	sd	s1, 0x8(sp)
   17dee: 2a 84        	mv	s0, a0
   17df0: b2 85        	mv	a1, a2
   17df2: 3a 85        	mv	a0, a4
   17df4: 06 ec        	sd	ra, 0x18(sp)
   17df6: 23 ac 01 8e  	sw	zero, -0x708(gp)
   17dfa: ef 00 60 57  	jal	0x18370 <_fstat>
   17dfe: fd 57        	li	a5, -0x1
   17e00: 63 07 f5 00  	beq	a0, a5, 0x17e0e <_fstat_r+0x28>
   17e04: e2 60        	ld	ra, 0x18(sp)
   17e06: 42 64        	ld	s0, 0x10(sp)
   17e08: a2 64        	ld	s1, 0x8(sp)
   17e0a: 05 61        	addi	sp, sp, 0x20
   17e0c: 82 80        	ret
   17e0e: 83 a7 81 8f  	lw	a5, -0x708(gp)
   17e12: ed db        	beqz	a5, 0x17e04 <_fstat_r+0x1e>
   17e14: e2 60        	ld	ra, 0x18(sp)
   17e16: 1c c0        	sw	a5, 0x0(s0)
   17e18: 42 64        	ld	s0, 0x10(sp)
   17e1a: a2 64        	ld	s1, 0x8(sp)
   17e1c: 05 61        	addi	sp, sp, 0x20
   17e1e: 82 80        	ret

0000000000017e20 <_isatty_r>:
   17e20: 01 11        	addi	sp, sp, -0x20
   17e22: 22 e8        	sd	s0, 0x10(sp)
   17e24: 26 e4        	sd	s1, 0x8(sp)
   17e26: 2a 84        	mv	s0, a0
   17e28: 2e 85        	mv	a0, a1
   17e2a: 06 ec        	sd	ra, 0x18(sp)
   17e2c: 23 ac 01 8e  	sw	zero, -0x708(gp)
   17e30: ef 00 40 58  	jal	0x183b4 <_isatty>
   17e34: fd 57        	li	a5, -0x1
   17e36: 63 07 f5 00  	beq	a0, a5, 0x17e44 <_isatty_r+0x24>
   17e3a: e2 60        	ld	ra, 0x18(sp)
   17e3c: 42 64        	ld	s0, 0x10(sp)
   17e3e: a2 64        	ld	s1, 0x8(sp)
   17e40: 05 61        	addi	sp, sp, 0x20
   17e42: 82 80        	ret
   17e44: 83 a7 81 8f  	lw	a5, -0x708(gp)
   17e48: ed db        	beqz	a5, 0x17e3a <_isatty_r+0x1a>
   17e4a: e2 60        	ld	ra, 0x18(sp)
   17e4c: 1c c0        	sw	a5, 0x0(s0)
   17e4e: 42 64        	ld	s0, 0x10(sp)
   17e50: a2 64        	ld	s1, 0x8(sp)
   17e52: 05 61        	addi	sp, sp, 0x20
   17e54: 82 80        	ret

0000000000017e56 <__assert_func>:
   17e56: 03 b7 81 88  	ld	a4, -0x778(gp)
   17e5a: 41 11        	addi	sp, sp, -0x10
   17e5c: b6 87        	mv	a5, a3
   17e5e: 32 88        	mv	a6, a2
   17e60: 06 e4        	sd	ra, 0x8(sp)
   17e62: 83 38 87 01  	ld	a7, 0x18(a4)
   17e66: aa 86        	mv	a3, a0
   17e68: 2e 87        	mv	a4, a1
   17e6a: 3e 86        	mv	a2, a5
   17e6c: 63 0f 08 00  	beqz	a6, 0x17e8a <__assert_func+0x34>
   17e70: b7 07 02 00  	lui	a5, 0x20
   17e74: 93 87 07 ca  	addi	a5, a5, -0x360
   17e78: b7 05 02 00  	lui	a1, 0x20
   17e7c: 93 85 05 cb  	addi	a1, a1, -0x350
   17e80: 46 85        	mv	a0, a7
   17e82: ef 00 e0 0e  	jal	0x17f70 <fiprintf>
   17e86: ef 00 c0 11  	jal	0x17fa2 <abort>
   17e8a: 37 08 02 00  	lui	a6, 0x20
   17e8e: 93 07 08 be  	addi	a5, a6, -0x420
   17e92: 13 08 08 be  	addi	a6, a6, -0x420
   17e96: cd b7        	j	0x17e78 <__assert_func+0x22>

0000000000017e98 <__assert>:
   17e98: 41 11        	addi	sp, sp, -0x10
   17e9a: b2 86        	mv	a3, a2
   17e9c: 01 46        	li	a2, 0x0
   17e9e: 06 e4        	sd	ra, 0x8(sp)
   17ea0: ef f0 7f fb  	jal	0x17e56 <__assert_func>

0000000000017ea4 <_calloc_r>:
   17ea4: b3 b7 c5 02  	mulhu	a5, a1, a2
   17ea8: 41 11        	addi	sp, sp, -0x10
   17eaa: 06 e4        	sd	ra, 0x8(sp)
   17eac: 22 e0        	sd	s0, 0x0(sp)
   17eae: b3 85 c5 02  	mul	a1, a1, a2
   17eb2: b5 ef        	bnez	a5, 0x17f2e <_calloc_r+0x8a>
   17eb4: ef 80 bf 91  	jal	0x107ce <_malloc_r>
   17eb8: 2a 84        	mv	s0, a0
   17eba: 35 cd        	beqz	a0, 0x17f36 <_calloc_r+0x92>
   17ebc: 03 36 85 ff  	ld	a2, -0x8(a0)
   17ec0: 13 07 80 04  	li	a4, 0x48
   17ec4: 71 9a        	andi	a2, a2, -0x4
   17ec6: 61 16        	addi	a2, a2, -0x8
   17ec8: 63 62 c7 04  	bltu	a4, a2, 0x17f0c <_calloc_r+0x68>
   17ecc: 93 06 70 02  	li	a3, 0x27
   17ed0: aa 87        	mv	a5, a0
   17ed2: 63 f2 c6 02  	bgeu	a3, a2, 0x17ef6 <_calloc_r+0x52>
   17ed6: 23 30 05 00  	sd	zero, 0x0(a0)
   17eda: 23 34 05 00  	sd	zero, 0x8(a0)
   17ede: 93 07 70 03  	li	a5, 0x37
   17ee2: 63 fd c7 02  	bgeu	a5, a2, 0x17f1c <_calloc_r+0x78>
   17ee6: 23 38 05 00  	sd	zero, 0x10(a0)
   17eea: 23 3c 05 00  	sd	zero, 0x18(a0)
   17eee: 93 07 05 02  	addi	a5, a0, 0x20
   17ef2: 63 08 e6 04  	beq	a2, a4, 0x17f42 <_calloc_r+0x9e>
   17ef6: 23 b0 07 00  	sd	zero, 0x0(a5)
   17efa: 23 b4 07 00  	sd	zero, 0x8(a5)
   17efe: 23 b8 07 00  	sd	zero, 0x10(a5)
   17f02: a2 60        	ld	ra, 0x8(sp)
   17f04: 22 85        	mv	a0, s0
   17f06: 02 64        	ld	s0, 0x0(sp)
   17f08: 41 01        	addi	sp, sp, 0x10
   17f0a: 82 80        	ret
   17f0c: 81 45        	li	a1, 0x0
   17f0e: ef 90 5f ac  	jal	0x119d2 <memset>
   17f12: a2 60        	ld	ra, 0x8(sp)
   17f14: 22 85        	mv	a0, s0
   17f16: 02 64        	ld	s0, 0x0(sp)
   17f18: 41 01        	addi	sp, sp, 0x10
   17f1a: 82 80        	ret
   17f1c: 93 07 05 01  	addi	a5, a0, 0x10
   17f20: 23 b0 07 00  	sd	zero, 0x0(a5)
   17f24: 23 b4 07 00  	sd	zero, 0x8(a5)
   17f28: 23 b8 07 00  	sd	zero, 0x10(a5)
   17f2c: d9 bf        	j	0x17f02 <_calloc_r+0x5e>
   17f2e: ef 00 e0 06  	jal	0x17f9c <__errno>
   17f32: b1 47        	li	a5, 0xc
   17f34: 1c c1        	sw	a5, 0x0(a0)
   17f36: 01 44        	li	s0, 0x0
   17f38: a2 60        	ld	ra, 0x8(sp)
   17f3a: 22 85        	mv	a0, s0
   17f3c: 02 64        	ld	s0, 0x0(sp)
   17f3e: 41 01        	addi	sp, sp, 0x10
   17f40: 82 80        	ret
   17f42: 23 30 05 02  	sd	zero, 0x20(a0)
   17f46: 93 07 05 03  	addi	a5, a0, 0x30
   17f4a: 23 34 05 02  	sd	zero, 0x28(a0)
   17f4e: 65 b7        	j	0x17ef6 <_calloc_r+0x52>

0000000000017f50 <_fiprintf_r>:
   17f50: 5d 71        	addi	sp, sp, -0x50
   17f52: 13 03 81 02  	addi	t1, sp, 0x28
   17f56: 36 f4        	sd	a3, 0x28(sp)
   17f58: 9a 86        	mv	a3, t1
   17f5a: 06 ec        	sd	ra, 0x18(sp)
   17f5c: 3a f8        	sd	a4, 0x30(sp)
   17f5e: 3e fc        	sd	a5, 0x38(sp)
   17f60: c2 e0        	sd	a6, 0x40(sp)
   17f62: c6 e4        	sd	a7, 0x48(sp)
   17f64: 1a e4        	sd	t1, 0x8(sp)
   17f66: ef b0 ff d0  	jal	0x13c74 <_vfiprintf_r>
   17f6a: e2 60        	ld	ra, 0x18(sp)
   17f6c: 61 61        	addi	sp, sp, 0x50
   17f6e: 82 80        	ret

0000000000017f70 <fiprintf>:
   17f70: 2a 8e        	mv	t3, a0
   17f72: 5d 71        	addi	sp, sp, -0x50
   17f74: 03 b5 81 88  	ld	a0, -0x778(gp)
   17f78: 13 03 01 02  	addi	t1, sp, 0x20
   17f7c: 32 f0        	sd	a2, 0x20(sp)
   17f7e: 36 f4        	sd	a3, 0x28(sp)
   17f80: 2e 86        	mv	a2, a1
   17f82: 9a 86        	mv	a3, t1
   17f84: f2 85        	mv	a1, t3
   17f86: 06 ec        	sd	ra, 0x18(sp)
   17f88: 3a f8        	sd	a4, 0x30(sp)
   17f8a: 3e fc        	sd	a5, 0x38(sp)
   17f8c: c2 e0        	sd	a6, 0x40(sp)
   17f8e: c6 e4        	sd	a7, 0x48(sp)
   17f90: 1a e4        	sd	t1, 0x8(sp)
   17f92: ef b0 3f ce  	jal	0x13c74 <_vfiprintf_r>
   17f96: e2 60        	ld	ra, 0x18(sp)
   17f98: 61 61        	addi	sp, sp, 0x50
   17f9a: 82 80        	ret

0000000000017f9c <__errno>:
   17f9c: 03 b5 81 88  	ld	a0, -0x778(gp)
   17fa0: 82 80        	ret

0000000000017fa2 <abort>:
   17fa2: 41 11        	addi	sp, sp, -0x10
   17fa4: 19 45        	li	a0, 0x6
   17fa6: 06 e4        	sd	ra, 0x8(sp)
   17fa8: ef 00 c0 19  	jal	0x18144 <raise>
   17fac: 05 45        	li	a0, 0x1
   17fae: ef 00 00 3a  	jal	0x1834e <_exit>

0000000000017fb2 <_init_signal_r>:
   17fb2: 83 37 05 15  	ld	a5, 0x150(a0)
   17fb6: 99 c3        	beqz	a5, 0x17fbc <_init_signal_r+0xa>
   17fb8: 01 45        	li	a0, 0x0
   17fba: 82 80        	ret
   17fbc: 41 11        	addi	sp, sp, -0x10
   17fbe: 93 05 00 10  	li	a1, 0x100
   17fc2: 22 e0        	sd	s0, 0x0(sp)
   17fc4: 06 e4        	sd	ra, 0x8(sp)
   17fc6: 2a 84        	mv	s0, a0
   17fc8: ef 80 7f 80  	jal	0x107ce <_malloc_r>
   17fcc: 23 38 a4 14  	sd	a0, 0x150(s0)
   17fd0: 09 cd        	beqz	a0, 0x17fea <_init_signal_r+0x38>
   17fd2: 93 07 05 10  	addi	a5, a0, 0x100
   17fd6: 23 30 05 00  	sd	zero, 0x0(a0)
   17fda: 21 05        	addi	a0, a0, 0x8
   17fdc: e3 1d f5 fe  	bne	a0, a5, 0x17fd6 <_init_signal_r+0x24>
   17fe0: 01 45        	li	a0, 0x0
   17fe2: a2 60        	ld	ra, 0x8(sp)
   17fe4: 02 64        	ld	s0, 0x0(sp)
   17fe6: 41 01        	addi	sp, sp, 0x10
   17fe8: 82 80        	ret
   17fea: 7d 55        	li	a0, -0x1
   17fec: dd bf        	j	0x17fe2 <_init_signal_r+0x30>

0000000000017fee <_signal_r>:
   17fee: 79 71        	addi	sp, sp, -0x30
   17ff0: 26 ec        	sd	s1, 0x18(sp)
   17ff2: 06 f4        	sd	ra, 0x28(sp)
   17ff4: fd 47        	li	a5, 0x1f
   17ff6: aa 84        	mv	s1, a0
   17ff8: 63 e0 b7 02  	bltu	a5, a1, 0x18018 <_signal_r+0x2a>
   17ffc: 83 37 05 15  	ld	a5, 0x150(a0)
   18000: 22 f0        	sd	s0, 0x20(sp)
   18002: 2e 84        	mv	s0, a1
   18004: 91 cf        	beqz	a5, 0x18020 <_signal_r+0x32>
   18006: 0e 04        	slli	s0, s0, 0x3
   18008: a2 97        	add	a5, a5, s0
   1800a: 02 74        	ld	s0, 0x20(sp)
   1800c: 88 63        	ld	a0, 0x0(a5)
   1800e: 90 e3        	sd	a2, 0x0(a5)
   18010: a2 70        	ld	ra, 0x28(sp)
   18012: e2 64        	ld	s1, 0x18(sp)
   18014: 45 61        	addi	sp, sp, 0x30
   18016: 82 80        	ret
   18018: d9 47        	li	a5, 0x16
   1801a: 1c c1        	sw	a5, 0x0(a0)
   1801c: 7d 55        	li	a0, -0x1
   1801e: cd bf        	j	0x18010 <_signal_r+0x22>
   18020: 93 05 00 10  	li	a1, 0x100
   18024: 32 e4        	sd	a2, 0x8(sp)
   18026: ef 80 8f fa  	jal	0x107ce <_malloc_r>
   1802a: 23 b8 a4 14  	sd	a0, 0x150(s1)
   1802e: 22 66        	ld	a2, 0x8(sp)
   18030: aa 87        	mv	a5, a0
   18032: 2a 87        	mv	a4, a0
   18034: 93 06 05 10  	addi	a3, a0, 0x100
   18038: 19 c5        	beqz	a0, 0x18046 <_signal_r+0x58>
   1803a: 23 30 07 00  	sd	zero, 0x0(a4)
   1803e: 21 07        	addi	a4, a4, 0x8
   18040: e3 1d d7 fe  	bne	a4, a3, 0x1803a <_signal_r+0x4c>
   18044: c9 b7        	j	0x18006 <_signal_r+0x18>
   18046: 02 74        	ld	s0, 0x20(sp)
   18048: 7d 55        	li	a0, -0x1
   1804a: d9 b7        	j	0x18010 <_signal_r+0x22>

000000000001804c <_raise_r>:
   1804c: 01 11        	addi	sp, sp, -0x20
   1804e: 26 e4        	sd	s1, 0x8(sp)
   18050: 06 ec        	sd	ra, 0x18(sp)
   18052: fd 47        	li	a5, 0x1f
   18054: aa 84        	mv	s1, a0
   18056: 63 ef b7 04  	bltu	a5, a1, 0x180b4 <_raise_r+0x68>
   1805a: 83 37 05 15  	ld	a5, 0x150(a0)
   1805e: 22 e8        	sd	s0, 0x10(sp)
   18060: 2e 84        	mv	s0, a1
   18062: 95 c7        	beqz	a5, 0x1808e <_raise_r+0x42>
   18064: 13 97 35 00  	slli	a4, a1, 0x3
   18068: ba 97        	add	a5, a5, a4
   1806a: 98 63        	ld	a4, 0x0(a5)
   1806c: 0d c3        	beqz	a4, 0x1808e <_raise_r+0x42>
   1806e: 85 46        	li	a3, 0x1
   18070: 63 09 d7 00  	beq	a4, a3, 0x18082 <_raise_r+0x36>
   18074: fd 56        	li	a3, -0x1
   18076: 63 07 d7 02  	beq	a4, a3, 0x180a4 <_raise_r+0x58>
   1807a: 23 b0 07 00  	sd	zero, 0x0(a5)
   1807e: 2e 85        	mv	a0, a1
   18080: 02 97        	jalr	a4
   18082: 42 64        	ld	s0, 0x10(sp)
   18084: 01 45        	li	a0, 0x0
   18086: e2 60        	ld	ra, 0x18(sp)
   18088: a2 64        	ld	s1, 0x8(sp)
   1808a: 05 61        	addi	sp, sp, 0x20
   1808c: 82 80        	ret
   1808e: 26 85        	mv	a0, s1
   18090: ef 00 00 29  	jal	0x18320 <_getpid_r>
   18094: 22 86        	mv	a2, s0
   18096: 42 64        	ld	s0, 0x10(sp)
   18098: e2 60        	ld	ra, 0x18(sp)
   1809a: aa 85        	mv	a1, a0
   1809c: 26 85        	mv	a0, s1
   1809e: a2 64        	ld	s1, 0x8(sp)
   180a0: 05 61        	addi	sp, sp, 0x20
   180a2: 91 a4        	j	0x182e6 <_kill_r>
   180a4: 42 64        	ld	s0, 0x10(sp)
   180a6: e2 60        	ld	ra, 0x18(sp)
   180a8: d9 47        	li	a5, 0x16
   180aa: 1c c1        	sw	a5, 0x0(a0)
   180ac: a2 64        	ld	s1, 0x8(sp)
   180ae: 05 45        	li	a0, 0x1
   180b0: 05 61        	addi	sp, sp, 0x20
   180b2: 82 80        	ret
   180b4: d9 47        	li	a5, 0x16
   180b6: 1c c1        	sw	a5, 0x0(a0)
   180b8: 7d 55        	li	a0, -0x1
   180ba: f1 b7        	j	0x18086 <_raise_r+0x3a>

00000000000180bc <__sigtramp_r>:
   180bc: fd 47        	li	a5, 0x1f
   180be: 63 e1 b7 08  	bltu	a5, a1, 0x18140 <__sigtramp_r+0x84>
   180c2: 83 37 05 15  	ld	a5, 0x150(a0)
   180c6: 01 11        	addi	sp, sp, -0x20
   180c8: 22 e8        	sd	s0, 0x10(sp)
   180ca: 26 e4        	sd	s1, 0x8(sp)
   180cc: 06 ec        	sd	ra, 0x18(sp)
   180ce: 2e 84        	mv	s0, a1
   180d0: aa 84        	mv	s1, a0
   180d2: a1 c7        	beqz	a5, 0x1811a <__sigtramp_r+0x5e>
   180d4: 13 17 34 00  	slli	a4, s0, 0x3
   180d8: ba 97        	add	a5, a5, a4
   180da: 98 63        	ld	a4, 0x0(a5)
   180dc: 0d c3        	beqz	a4, 0x180fe <__sigtramp_r+0x42>
   180de: fd 56        	li	a3, -0x1
   180e0: 63 0b d7 02  	beq	a4, a3, 0x18116 <__sigtramp_r+0x5a>
   180e4: 85 46        	li	a3, 0x1
   180e6: 63 02 d7 02  	beq	a4, a3, 0x1810a <__sigtramp_r+0x4e>
   180ea: 22 85        	mv	a0, s0
   180ec: 23 b0 07 00  	sd	zero, 0x0(a5)
   180f0: 02 97        	jalr	a4
   180f2: 01 45        	li	a0, 0x0
   180f4: e2 60        	ld	ra, 0x18(sp)
   180f6: 42 64        	ld	s0, 0x10(sp)
   180f8: a2 64        	ld	s1, 0x8(sp)
   180fa: 05 61        	addi	sp, sp, 0x20
   180fc: 82 80        	ret
   180fe: e2 60        	ld	ra, 0x18(sp)
   18100: 42 64        	ld	s0, 0x10(sp)
   18102: a2 64        	ld	s1, 0x8(sp)
   18104: 05 45        	li	a0, 0x1
   18106: 05 61        	addi	sp, sp, 0x20
   18108: 82 80        	ret
   1810a: e2 60        	ld	ra, 0x18(sp)
   1810c: 42 64        	ld	s0, 0x10(sp)
   1810e: a2 64        	ld	s1, 0x8(sp)
   18110: 0d 45        	li	a0, 0x3
   18112: 05 61        	addi	sp, sp, 0x20
   18114: 82 80        	ret
   18116: 09 45        	li	a0, 0x2
   18118: f1 bf        	j	0x180f4 <__sigtramp_r+0x38>
   1811a: 93 05 00 10  	li	a1, 0x100
   1811e: ef 80 0f eb  	jal	0x107ce <_malloc_r>
   18122: 23 b8 a4 14  	sd	a0, 0x150(s1)
   18126: aa 87        	mv	a5, a0
   18128: 11 c9        	beqz	a0, 0x1813c <__sigtramp_r+0x80>
   1812a: 2a 87        	mv	a4, a0
   1812c: 93 06 05 10  	addi	a3, a0, 0x100
   18130: 23 30 07 00  	sd	zero, 0x0(a4)
   18134: 21 07        	addi	a4, a4, 0x8
   18136: e3 1d d7 fe  	bne	a4, a3, 0x18130 <__sigtramp_r+0x74>
   1813a: 69 bf        	j	0x180d4 <__sigtramp_r+0x18>
   1813c: 7d 55        	li	a0, -0x1
   1813e: 5d bf        	j	0x180f4 <__sigtramp_r+0x38>
   18140: 7d 55        	li	a0, -0x1
   18142: 82 80        	ret

0000000000018144 <raise>:
   18144: 01 11        	addi	sp, sp, -0x20
   18146: 26 e4        	sd	s1, 0x8(sp)
   18148: 06 ec        	sd	ra, 0x18(sp)
   1814a: fd 47        	li	a5, 0x1f
   1814c: 83 b4 81 88  	ld	s1, -0x778(gp)
   18150: 63 ee a7 04  	bltu	a5, a0, 0x181ac <raise+0x68>
   18154: 83 b7 04 15  	ld	a5, 0x150(s1)
   18158: 22 e8        	sd	s0, 0x10(sp)
   1815a: 2a 84        	mv	s0, a0
   1815c: 8d c7        	beqz	a5, 0x18186 <raise+0x42>
   1815e: 13 17 35 00  	slli	a4, a0, 0x3
   18162: ba 97        	add	a5, a5, a4
   18164: 98 63        	ld	a4, 0x0(a5)
   18166: 05 c3        	beqz	a4, 0x18186 <raise+0x42>
   18168: 85 46        	li	a3, 0x1
   1816a: 63 08 d7 00  	beq	a4, a3, 0x1817a <raise+0x36>
   1816e: fd 56        	li	a3, -0x1
   18170: 63 06 d7 02  	beq	a4, a3, 0x1819c <raise+0x58>
   18174: 23 b0 07 00  	sd	zero, 0x0(a5)
   18178: 02 97        	jalr	a4
   1817a: 42 64        	ld	s0, 0x10(sp)
   1817c: 01 45        	li	a0, 0x0
   1817e: e2 60        	ld	ra, 0x18(sp)
   18180: a2 64        	ld	s1, 0x8(sp)
   18182: 05 61        	addi	sp, sp, 0x20
   18184: 82 80        	ret
   18186: 26 85        	mv	a0, s1
   18188: ef 00 80 19  	jal	0x18320 <_getpid_r>
   1818c: 22 86        	mv	a2, s0
   1818e: 42 64        	ld	s0, 0x10(sp)
   18190: e2 60        	ld	ra, 0x18(sp)
   18192: aa 85        	mv	a1, a0
   18194: 26 85        	mv	a0, s1
   18196: a2 64        	ld	s1, 0x8(sp)
   18198: 05 61        	addi	sp, sp, 0x20
   1819a: b1 a2        	j	0x182e6 <_kill_r>
   1819c: 42 64        	ld	s0, 0x10(sp)
   1819e: e2 60        	ld	ra, 0x18(sp)
   181a0: d9 47        	li	a5, 0x16
   181a2: 9c c0        	sw	a5, 0x0(s1)
   181a4: 05 45        	li	a0, 0x1
   181a6: a2 64        	ld	s1, 0x8(sp)
   181a8: 05 61        	addi	sp, sp, 0x20
   181aa: 82 80        	ret
   181ac: d9 47        	li	a5, 0x16
   181ae: 9c c0        	sw	a5, 0x0(s1)
   181b0: 7d 55        	li	a0, -0x1
   181b2: f1 b7        	j	0x1817e <raise+0x3a>

00000000000181b4 <signal>:
   181b4: 01 11        	addi	sp, sp, -0x20
   181b6: 4a e0        	sd	s2, 0x0(sp)
   181b8: 06 ec        	sd	ra, 0x18(sp)
   181ba: fd 47        	li	a5, 0x1f
   181bc: 03 b9 81 88  	ld	s2, -0x778(gp)
   181c0: 63 e4 a7 02  	bltu	a5, a0, 0x181e8 <signal+0x34>
   181c4: 22 e8        	sd	s0, 0x10(sp)
   181c6: 2a 84        	mv	s0, a0
   181c8: 03 35 09 15  	ld	a0, 0x150(s2)
   181cc: 26 e4        	sd	s1, 0x8(sp)
   181ce: ae 84        	mv	s1, a1
   181d0: 0d c1        	beqz	a0, 0x181f2 <signal+0x3e>
   181d2: 0e 04        	slli	s0, s0, 0x3
   181d4: b3 07 85 00  	add	a5, a0, s0
   181d8: 88 63        	ld	a0, 0x0(a5)
   181da: 42 64        	ld	s0, 0x10(sp)
   181dc: 84 e3        	sd	s1, 0x0(a5)
   181de: a2 64        	ld	s1, 0x8(sp)
   181e0: e2 60        	ld	ra, 0x18(sp)
   181e2: 02 69        	ld	s2, 0x0(sp)
   181e4: 05 61        	addi	sp, sp, 0x20
   181e6: 82 80        	ret
   181e8: d9 47        	li	a5, 0x16
   181ea: 23 20 f9 00  	sw	a5, 0x0(s2)
   181ee: 7d 55        	li	a0, -0x1
   181f0: c5 bf        	j	0x181e0 <signal+0x2c>
   181f2: 93 05 00 10  	li	a1, 0x100
   181f6: 4a 85        	mv	a0, s2
   181f8: ef 80 6f dd  	jal	0x107ce <_malloc_r>
   181fc: 23 38 a9 14  	sd	a0, 0x150(s2)
   18200: aa 87        	mv	a5, a0
   18202: 13 07 05 10  	addi	a4, a0, 0x100
   18206: 19 c5        	beqz	a0, 0x18214 <signal+0x60>
   18208: 23 b0 07 00  	sd	zero, 0x0(a5)
   1820c: a1 07        	addi	a5, a5, 0x8
   1820e: e3 1d f7 fe  	bne	a4, a5, 0x18208 <signal+0x54>
   18212: c1 b7        	j	0x181d2 <signal+0x1e>
   18214: 42 64        	ld	s0, 0x10(sp)
   18216: a2 64        	ld	s1, 0x8(sp)
   18218: 7d 55        	li	a0, -0x1
   1821a: d9 b7        	j	0x181e0 <signal+0x2c>

000000000001821c <_init_signal>:
   1821c: 41 11        	addi	sp, sp, -0x10
   1821e: 22 e0        	sd	s0, 0x0(sp)
   18220: 03 b4 81 88  	ld	s0, -0x778(gp)
   18224: 06 e4        	sd	ra, 0x8(sp)
   18226: 83 37 04 15  	ld	a5, 0x150(s0)
   1822a: 91 c7        	beqz	a5, 0x18236 <_init_signal+0x1a>
   1822c: 01 45        	li	a0, 0x0
   1822e: a2 60        	ld	ra, 0x8(sp)
   18230: 02 64        	ld	s0, 0x0(sp)
   18232: 41 01        	addi	sp, sp, 0x10
   18234: 82 80        	ret
   18236: 93 05 00 10  	li	a1, 0x100
   1823a: 22 85        	mv	a0, s0
   1823c: ef 80 2f d9  	jal	0x107ce <_malloc_r>
   18240: 23 38 a4 14  	sd	a0, 0x150(s0)
   18244: 09 c9        	beqz	a0, 0x18256 <_init_signal+0x3a>
   18246: 93 07 05 10  	addi	a5, a0, 0x100
   1824a: 23 30 05 00  	sd	zero, 0x0(a0)
   1824e: 21 05        	addi	a0, a0, 0x8
   18250: e3 1d f5 fe  	bne	a0, a5, 0x1824a <_init_signal+0x2e>
   18254: e1 bf        	j	0x1822c <_init_signal+0x10>
   18256: 7d 55        	li	a0, -0x1
   18258: d9 bf        	j	0x1822e <_init_signal+0x12>

000000000001825a <__sigtramp>:
   1825a: 01 11        	addi	sp, sp, -0x20
   1825c: 26 e4        	sd	s1, 0x8(sp)
   1825e: 06 ec        	sd	ra, 0x18(sp)
   18260: fd 47        	li	a5, 0x1f
   18262: 83 b4 81 88  	ld	s1, -0x778(gp)
   18266: 63 ee a7 06  	bltu	a5, a0, 0x182e2 <__sigtramp+0x88>
   1826a: 83 b7 04 15  	ld	a5, 0x150(s1)
   1826e: 22 e8        	sd	s0, 0x10(sp)
   18270: 2a 84        	mv	s0, a0
   18272: a9 c7        	beqz	a5, 0x182bc <__sigtramp+0x62>
   18274: 13 17 34 00  	slli	a4, s0, 0x3
   18278: ba 97        	add	a5, a5, a4
   1827a: 98 63        	ld	a4, 0x0(a5)
   1827c: 0d c3        	beqz	a4, 0x1829e <__sigtramp+0x44>
   1827e: fd 56        	li	a3, -0x1
   18280: 63 0b d7 02  	beq	a4, a3, 0x182b6 <__sigtramp+0x5c>
   18284: 85 46        	li	a3, 0x1
   18286: 63 02 d7 02  	beq	a4, a3, 0x182aa <__sigtramp+0x50>
   1828a: 22 85        	mv	a0, s0
   1828c: 23 b0 07 00  	sd	zero, 0x0(a5)
   18290: 02 97        	jalr	a4
   18292: 42 64        	ld	s0, 0x10(sp)
   18294: 01 45        	li	a0, 0x0
   18296: e2 60        	ld	ra, 0x18(sp)
   18298: a2 64        	ld	s1, 0x8(sp)
   1829a: 05 61        	addi	sp, sp, 0x20
   1829c: 82 80        	ret
   1829e: 42 64        	ld	s0, 0x10(sp)
   182a0: e2 60        	ld	ra, 0x18(sp)
   182a2: a2 64        	ld	s1, 0x8(sp)
   182a4: 05 45        	li	a0, 0x1
   182a6: 05 61        	addi	sp, sp, 0x20
   182a8: 82 80        	ret
   182aa: 42 64        	ld	s0, 0x10(sp)
   182ac: e2 60        	ld	ra, 0x18(sp)
   182ae: a2 64        	ld	s1, 0x8(sp)
   182b0: 0d 45        	li	a0, 0x3
   182b2: 05 61        	addi	sp, sp, 0x20
   182b4: 82 80        	ret
   182b6: 42 64        	ld	s0, 0x10(sp)
   182b8: 09 45        	li	a0, 0x2
   182ba: f1 bf        	j	0x18296 <__sigtramp+0x3c>
   182bc: 93 05 00 10  	li	a1, 0x100
   182c0: 26 85        	mv	a0, s1
   182c2: ef 80 cf d0  	jal	0x107ce <_malloc_r>
   182c6: 23 b8 a4 14  	sd	a0, 0x150(s1)
   182ca: aa 87        	mv	a5, a0
   182cc: 11 c9        	beqz	a0, 0x182e0 <__sigtramp+0x86>
   182ce: 2a 87        	mv	a4, a0
   182d0: 93 06 05 10  	addi	a3, a0, 0x100
   182d4: 23 30 07 00  	sd	zero, 0x0(a4)
   182d8: 21 07        	addi	a4, a4, 0x8
   182da: e3 9d e6 fe  	bne	a3, a4, 0x182d4 <__sigtramp+0x7a>
   182de: 59 bf        	j	0x18274 <__sigtramp+0x1a>
   182e0: 42 64        	ld	s0, 0x10(sp)
   182e2: 7d 55        	li	a0, -0x1
   182e4: 4d bf        	j	0x18296 <__sigtramp+0x3c>

00000000000182e6 <_kill_r>:
   182e6: 01 11        	addi	sp, sp, -0x20
   182e8: 2e 87        	mv	a4, a1
   182ea: 22 e8        	sd	s0, 0x10(sp)
   182ec: 26 e4        	sd	s1, 0x8(sp)
   182ee: 2a 84        	mv	s0, a0
   182f0: b2 85        	mv	a1, a2
   182f2: 3a 85        	mv	a0, a4
   182f4: 06 ec        	sd	ra, 0x18(sp)
   182f6: 23 ac 01 8e  	sw	zero, -0x708(gp)
   182fa: ef 00 00 0e  	jal	0x183da <_kill>
   182fe: fd 57        	li	a5, -0x1
   18300: 63 07 f5 00  	beq	a0, a5, 0x1830e <_kill_r+0x28>
   18304: e2 60        	ld	ra, 0x18(sp)
   18306: 42 64        	ld	s0, 0x10(sp)
   18308: a2 64        	ld	s1, 0x8(sp)
   1830a: 05 61        	addi	sp, sp, 0x20
   1830c: 82 80        	ret
   1830e: 83 a7 81 8f  	lw	a5, -0x708(gp)
   18312: ed db        	beqz	a5, 0x18304 <_kill_r+0x1e>
   18314: e2 60        	ld	ra, 0x18(sp)
   18316: 1c c0        	sw	a5, 0x0(s0)
   18318: 42 64        	ld	s0, 0x10(sp)
   1831a: a2 64        	ld	s1, 0x8(sp)
   1831c: 05 61        	addi	sp, sp, 0x20
   1831e: 82 80        	ret

0000000000018320 <_getpid_r>:
   18320: 41 a8        	j	0x183b0 <_getpid>

0000000000018322 <_close>:
   18322: 41 11        	addi	sp, sp, -0x10
   18324: 06 e4        	sd	ra, 0x8(sp)
   18326: 22 e0        	sd	s0, 0x0(sp)
   18328: 93 08 90 03  	li	a7, 0x39
   1832c: 73 00 00 00  	ecall
   18330: 2a 84        	mv	s0, a0
   18332: 63 47 05 00  	bltz	a0, 0x18340 <_close+0x1e>
   18336: 01 25        	sext.w	a0, a0
   18338: a2 60        	ld	ra, 0x8(sp)
   1833a: 02 64        	ld	s0, 0x0(sp)
   1833c: 41 01        	addi	sp, sp, 0x10
   1833e: 82 80        	ret
   18340: ef f0 df c5  	jal	0x17f9c <__errno>
   18344: 3b 04 80 40  	negw	s0, s0
   18348: 00 c1        	sw	s0, 0x0(a0)
   1834a: 7d 55        	li	a0, -0x1
   1834c: f5 b7        	j	0x18338 <_close+0x16>

000000000001834e <_exit>:
   1834e: 93 08 d0 05  	li	a7, 0x5d
   18352: 73 00 00 00  	ecall
   18356: 63 43 05 00  	bltz	a0, 0x1835c <_exit+0xe>
   1835a: 01 a0        	j	0x1835a <_exit+0xc>
   1835c: 41 11        	addi	sp, sp, -0x10
   1835e: 22 e0        	sd	s0, 0x0(sp)
   18360: 2a 84        	mv	s0, a0
   18362: 06 e4        	sd	ra, 0x8(sp)
   18364: 3b 04 80 40  	negw	s0, s0
   18368: ef f0 5f c3  	jal	0x17f9c <__errno>
   1836c: 00 c1        	sw	s0, 0x0(a0)
   1836e: 01 a0        	j	0x1836e <_exit+0x20>

0000000000018370 <_fstat>:
   18370: 35 71        	addi	sp, sp, -0xa0
   18372: 26 e5        	sd	s1, 0x88(sp)
   18374: 06 ed        	sd	ra, 0x98(sp)
   18376: ae 84        	mv	s1, a1
   18378: 22 e9        	sd	s0, 0x90(sp)
   1837a: 93 08 00 05  	li	a7, 0x50
   1837e: 8a 85        	mv	a1, sp
   18380: 73 00 00 00  	ecall
   18384: 2a 84        	mv	s0, a0
   18386: 63 4e 05 00  	bltz	a0, 0x183a2 <_fstat+0x32>
   1838a: 1b 04 05 00  	sext.w	s0, a0
   1838e: 26 85        	mv	a0, s1
   18390: 8a 85        	mv	a1, sp
   18392: ef 00 40 13  	jal	0x184c6 <_conv_stat>
   18396: ea 60        	ld	ra, 0x98(sp)
   18398: 22 85        	mv	a0, s0
   1839a: 4a 64        	ld	s0, 0x90(sp)
   1839c: aa 64        	ld	s1, 0x88(sp)
   1839e: 0d 61        	addi	sp, sp, 0xa0
   183a0: 82 80        	ret
   183a2: 3b 04 80 40  	negw	s0, s0
   183a6: ef f0 7f bf  	jal	0x17f9c <__errno>
   183aa: 00 c1        	sw	s0, 0x0(a0)
   183ac: 7d 54        	li	s0, -0x1
   183ae: c5 b7        	j	0x1838e <_fstat+0x1e>

00000000000183b0 <_getpid>:
   183b0: 05 45        	li	a0, 0x1
   183b2: 82 80        	ret

00000000000183b4 <_isatty>:
   183b4: 19 71        	addi	sp, sp, -0x80
   183b6: 2c 00        	addi	a1, sp, 0x8
   183b8: 86 fc        	sd	ra, 0x78(sp)
   183ba: ef f0 7f fb  	jal	0x18370 <_fstat>
   183be: fd 57        	li	a5, -0x1
   183c0: 63 09 f5 00  	beq	a0, a5, 0x183d2 <_isatty+0x1e>
   183c4: 32 45        	lw	a0, 0xc(sp)
   183c6: e6 70        	ld	ra, 0x78(sp)
   183c8: 1b 55 d5 40  	sraiw	a0, a0, 0xd
   183cc: 05 89        	andi	a0, a0, 0x1
   183ce: 09 61        	addi	sp, sp, 0x80
   183d0: 82 80        	ret
   183d2: e6 70        	ld	ra, 0x78(sp)
   183d4: 01 45        	li	a0, 0x0
   183d6: 09 61        	addi	sp, sp, 0x80
   183d8: 82 80        	ret

00000000000183da <_kill>:
   183da: 41 11        	addi	sp, sp, -0x10
   183dc: 06 e4        	sd	ra, 0x8(sp)
   183de: ef f0 ff bb  	jal	0x17f9c <__errno>
   183e2: a2 60        	ld	ra, 0x8(sp)
   183e4: d9 47        	li	a5, 0x16
   183e6: 1c c1        	sw	a5, 0x0(a0)
   183e8: 7d 55        	li	a0, -0x1
   183ea: 41 01        	addi	sp, sp, 0x10
   183ec: 82 80        	ret

00000000000183ee <_lseek>:
   183ee: 41 11        	addi	sp, sp, -0x10
   183f0: 06 e4        	sd	ra, 0x8(sp)
   183f2: 22 e0        	sd	s0, 0x0(sp)
   183f4: 93 08 e0 03  	li	a7, 0x3e
   183f8: 73 00 00 00  	ecall
   183fc: 2a 84        	mv	s0, a0
   183fe: 63 47 05 00  	bltz	a0, 0x1840c <_lseek+0x1e>
   18402: a2 60        	ld	ra, 0x8(sp)
   18404: 22 85        	mv	a0, s0
   18406: 02 64        	ld	s0, 0x0(sp)
   18408: 41 01        	addi	sp, sp, 0x10
   1840a: 82 80        	ret
   1840c: 3b 04 80 40  	negw	s0, s0
   18410: ef f0 df b8  	jal	0x17f9c <__errno>
   18414: 00 c1        	sw	s0, 0x0(a0)
   18416: 7d 54        	li	s0, -0x1
   18418: ed b7        	j	0x18402 <_lseek+0x14>

000000000001841a <_read>:
   1841a: 41 11        	addi	sp, sp, -0x10
   1841c: 06 e4        	sd	ra, 0x8(sp)
   1841e: 22 e0        	sd	s0, 0x0(sp)
   18420: 93 08 f0 03  	li	a7, 0x3f
   18424: 73 00 00 00  	ecall
   18428: 2a 84        	mv	s0, a0
   1842a: 63 47 05 00  	bltz	a0, 0x18438 <_read+0x1e>
   1842e: a2 60        	ld	ra, 0x8(sp)
   18430: 22 85        	mv	a0, s0
   18432: 02 64        	ld	s0, 0x0(sp)
   18434: 41 01        	addi	sp, sp, 0x10
   18436: 82 80        	ret
   18438: 3b 04 80 40  	negw	s0, s0
   1843c: ef f0 1f b6  	jal	0x17f9c <__errno>
   18440: 00 c1        	sw	s0, 0x0(a0)
   18442: 7d 54        	li	s0, -0x1
   18444: ed b7        	j	0x1842e <_read+0x14>

0000000000018446 <_sbrk>:
   18446: 03 b7 01 91  	ld	a4, -0x6f0(gp)
   1844a: 41 11        	addi	sp, sp, -0x10
   1844c: 06 e4        	sd	ra, 0x8(sp)
   1844e: aa 87        	mv	a5, a0
   18450: 01 ef        	bnez	a4, 0x18468 <_sbrk+0x22>
   18452: 93 08 60 0d  	li	a7, 0xd6
   18456: 01 45        	li	a0, 0x0
   18458: 73 00 00 00  	ecall
   1845c: 7d 56        	li	a2, -0x1
   1845e: 2a 87        	mv	a4, a0
   18460: 63 05 c5 02  	beq	a0, a2, 0x1848a <_sbrk+0x44>
   18464: 23 b8 a1 90  	sd	a0, -0x6f0(gp)
   18468: 93 08 60 0d  	li	a7, 0xd6
   1846c: 33 85 e7 00  	add	a0, a5, a4
   18470: 73 00 00 00  	ecall
   18474: 03 b7 01 91  	ld	a4, -0x6f0(gp)
   18478: ba 97        	add	a5, a5, a4
   1847a: 63 18 f5 00  	bne	a0, a5, 0x1848a <_sbrk+0x44>
   1847e: a2 60        	ld	ra, 0x8(sp)
   18480: 23 b8 a1 90  	sd	a0, -0x6f0(gp)
   18484: 3a 85        	mv	a0, a4
   18486: 41 01        	addi	sp, sp, 0x10
   18488: 82 80        	ret
   1848a: ef f0 3f b1  	jal	0x17f9c <__errno>
   1848e: a2 60        	ld	ra, 0x8(sp)
   18490: b1 47        	li	a5, 0xc
   18492: 1c c1        	sw	a5, 0x0(a0)
   18494: 7d 55        	li	a0, -0x1
   18496: 41 01        	addi	sp, sp, 0x10
   18498: 82 80        	ret

000000000001849a <_write>:
   1849a: 41 11        	addi	sp, sp, -0x10
   1849c: 06 e4        	sd	ra, 0x8(sp)
   1849e: 22 e0        	sd	s0, 0x0(sp)
   184a0: 93 08 00 04  	li	a7, 0x40
   184a4: 73 00 00 00  	ecall
   184a8: 2a 84        	mv	s0, a0
   184aa: 63 47 05 00  	bltz	a0, 0x184b8 <_write+0x1e>
   184ae: a2 60        	ld	ra, 0x8(sp)
   184b0: 22 85        	mv	a0, s0
   184b2: 02 64        	ld	s0, 0x0(sp)
   184b4: 41 01        	addi	sp, sp, 0x10
   184b6: 82 80        	ret
   184b8: 3b 04 80 40  	negw	s0, s0
   184bc: ef f0 1f ae  	jal	0x17f9c <__errno>
   184c0: 00 c1        	sw	s0, 0x0(a0)
   184c2: 7d 54        	li	s0, -0x1
   184c4: ed b7        	j	0x184ae <_write+0x14>

00000000000184c6 <_conv_stat>:
   184c6: 03 d7 85 01  	lhu	a4, 0x18(a1)
   184ca: 83 d7 45 01  	lhu	a5, 0x14(a1)
   184ce: d0 4d        	lw	a2, 0x1c(a1)
   184d0: 94 71        	ld	a3, 0x20(a1)
   184d2: 03 b3 05 00  	ld	t1, 0x0(a1)
   184d6: 83 b8 85 00  	ld	a7, 0x8(a1)
   184da: 03 a8 05 01  	lw	a6, 0x10(a1)
   184de: 1b 17 07 01  	slliw	a4, a4, 0x10
   184e2: d9 8f        	or	a5, a5, a4
   184e4: 23 16 c5 00  	sh	a2, 0xc(a0)
   184e8: 23 17 d5 00  	sh	a3, 0xe(a0)
   184ec: 23 10 65 00  	sh	t1, 0x0(a0)
   184f0: 23 11 15 01  	sh	a7, 0x2(a0)
   184f4: 23 22 05 01  	sw	a6, 0x4(a0)
   184f8: 1c c5        	sw	a5, 0x8(a0)
   184fa: 98 79        	ld	a4, 0x30(a1)
   184fc: bc 65        	ld	a5, 0x48(a1)
   184fe: b0 61        	ld	a2, 0x40(a1)
   18500: 94 5d        	lw	a3, 0x38(a1)
   18502: 18 e9        	sd	a4, 0x10(a0)
   18504: 1c ed        	sd	a5, 0x18(a0)
   18506: b8 6d        	ld	a4, 0x58(a1)
   18508: bc 75        	ld	a5, 0x68(a1)
   1850a: 30 e9        	sd	a2, 0x50(a0)
   1850c: 34 e5        	sd	a3, 0x48(a0)
   1850e: 18 f5        	sd	a4, 0x28(a0)
   18510: 1c fd        	sd	a5, 0x38(a0)
   18512: 82 80        	ret

0000000000018514 <__netf2>:
   18514: 2a 88        	mv	a6, a0
   18516: f3 27 20 00  	frrm	a5
   1851a: 21 65        	lui	a0, 0x8
   1851c: 13 d7 05 03  	srli	a4, a1, 0x30
   18520: 7d 15        	addi	a0, a0, -0x1
   18522: 7d 5e        	li	t3, -0x1
   18524: 93 58 0e 01  	srli	a7, t3, 0x10
   18528: 13 d3 06 03  	srli	t1, a3, 0x30
   1852c: 69 8f        	and	a4, a4, a0
   1852e: b3 f7 15 01  	and	a5, a1, a7
   18532: 33 73 a3 00  	and	t1, t1, a0
   18536: b3 f8 16 01  	and	a7, a3, a7
   1853a: fd 91        	srli	a1, a1, 0x3f
   1853c: fd 92        	srli	a3, a3, 0x3f
   1853e: 63 18 a7 00  	bne	a4, a0, 0x1854e <__netf2+0x3a>
   18542: 33 e5 07 01  	or	a0, a5, a6
   18546: 05 e9        	bnez	a0, 0x18576 <__netf2+0x62>
   18548: 63 16 e3 04  	bne	t1, a4, 0x18594 <__netf2+0x80>
   1854c: 19 a0        	j	0x18552 <__netf2+0x3e>
   1854e: 63 15 a3 04  	bne	t1, a0, 0x18598 <__netf2+0x84>
   18552: 33 e5 c8 00  	or	a0, a7, a2
   18556: 29 c1        	beqz	a0, 0x18598 <__netf2+0x84>
   18558: a1 66        	lui	a3, 0x8
   1855a: fd 16        	addi	a3, a3, -0x1
   1855c: 63 18 d7 02  	bne	a4, a3, 0x1858c <__netf2+0x78>
   18560: 33 e8 07 01  	or	a6, a5, a6
   18564: 63 00 08 02  	beqz	a6, 0x18584 <__netf2+0x70>
   18568: 7d 57        	li	a4, -0x1
   1856a: 45 83        	srli	a4, a4, 0x11
   1856c: 63 6c f7 00  	bltu	a4, a5, 0x18584 <__netf2+0x70>
   18570: 73 60 18 00  	csrsi	fflags, 0x10
   18574: 05 a0        	j	0x18594 <__netf2+0x80>
   18576: 13 5e 1e 01  	srli	t3, t3, 0x11
   1857a: e3 7b fe fe  	bgeu	t3, a5, 0x18570 <__netf2+0x5c>
   1857e: 05 45        	li	a0, 0x1
   18580: 63 1d e3 02  	bne	t1, a4, 0x185ba <__netf2+0xa6>
   18584: 33 e6 c8 00  	or	a2, a7, a2
   18588: 05 45        	li	a0, 0x1
   1858a: 05 ca        	beqz	a2, 0x185ba <__netf2+0xa6>
   1858c: fd 57        	li	a5, -0x1
   1858e: c5 83        	srli	a5, a5, 0x11
   18590: e3 f0 17 ff  	bgeu	a5, a7, 0x18570 <__netf2+0x5c>
   18594: 05 45        	li	a0, 0x1
   18596: 82 80        	ret
   18598: 05 45        	li	a0, 0x1
   1859a: 63 10 67 02  	bne	a4, t1, 0x185ba <__netf2+0xa6>
   1859e: 63 9e 17 01  	bne	a5, a7, 0x185ba <__netf2+0xa6>
   185a2: 63 1c c8 00  	bne	a6, a2, 0x185ba <__netf2+0xa6>
   185a6: 63 88 d5 00  	beq	a1, a3, 0x185b6 <__netf2+0xa2>
   185aa: 01 eb        	bnez	a4, 0x185ba <__netf2+0xa6>
   185ac: b3 e7 07 01  	or	a5, a5, a6
   185b0: 33 35 f0 00  	snez	a0, a5
   185b4: 82 80        	ret
   185b6: 01 45        	li	a0, 0x0
   185b8: 82 80        	ret
   185ba: 82 80        	ret

00000000000185bc <__gttf2>:
   185bc: aa 88        	mv	a7, a0
   185be: f3 27 20 00  	frrm	a5
   185c2: 21 63        	lui	t1, 0x8
   185c4: 13 d8 05 03  	srli	a6, a1, 0x30
   185c8: 7d 13        	addi	t1, t1, -0x1
   185ca: 7d 57        	li	a4, -0x1
   185cc: 41 83        	srli	a4, a4, 0x10
   185ce: 93 d7 06 03  	srli	a5, a3, 0x30
   185d2: 33 78 68 00  	and	a6, a6, t1
   185d6: 33 fe e5 00  	and	t3, a1, a4
   185da: 33 f5 67 00  	and	a0, a5, t1
   185de: 75 8f        	and	a4, a4, a3
   185e0: fd 91        	srli	a1, a1, 0x3f
   185e2: fd 92        	srli	a3, a3, 0x3f
   185e4: 63 15 68 00  	bne	a6, t1, 0x185ee <__gttf2+0x32>
   185e8: b3 67 1e 01  	or	a5, t3, a7
   185ec: b1 eb        	bnez	a5, 0x18640 <__gttf2+0x84>
   185ee: 63 15 65 00  	bne	a0, t1, 0x185f8 <__gttf2+0x3c>
   185f2: b3 67 c7 00  	or	a5, a4, a2
   185f6: a9 e7        	bnez	a5, 0x18640 <__gttf2+0x84>
   185f8: 81 47        	li	a5, 0x0
   185fa: 63 16 08 00  	bnez	a6, 0x18606 <__gttf2+0x4a>
   185fe: b3 67 1e 01  	or	a5, t3, a7
   18602: 93 b7 17 00  	seqz	a5, a5
   18606: 29 e1        	bnez	a0, 0x18648 <__gttf2+0x8c>
   18608: 33 63 c7 00  	or	t1, a4, a2
   1860c: 99 c7        	beqz	a5, 0x1861a <__gttf2+0x5e>
   1860e: 63 0a 03 00  	beqz	t1, 0x18622 <__gttf2+0x66>
   18612: 05 45        	li	a0, 0x1
   18614: 99 e6        	bnez	a3, 0x18622 <__gttf2+0x66>
   18616: 7d 55        	li	a0, -0x1
   18618: 82 80        	ret
   1861a: 63 18 03 02  	bnez	t1, 0x1864a <__gttf2+0x8e>
   1861e: 7d 55        	li	a0, -0x1
   18620: 9d c9        	beqz	a1, 0x18656 <__gttf2+0x9a>
   18622: 82 80        	ret
   18624: e3 47 a8 fe  	blt	a6, a0, 0x18612 <__gttf2+0x56>
   18628: e3 6b c7 ff  	bltu	a4, t3, 0x1861e <__gttf2+0x62>
   1862c: 63 17 ee 00  	bne	t3, a4, 0x1863a <__gttf2+0x7e>
   18630: e3 67 16 ff  	bltu	a2, a7, 0x1861e <__gttf2+0x62>
   18634: 01 45        	li	a0, 0x0
   18636: e3 f6 c8 fe  	bgeu	a7, a2, 0x18622 <__gttf2+0x66>
   1863a: 05 45        	li	a0, 0x1
   1863c: fd f1        	bnez	a1, 0x18622 <__gttf2+0x66>
   1863e: e1 bf        	j	0x18616 <__gttf2+0x5a>
   18640: 73 60 18 00  	csrsi	fflags, 0x10
   18644: 79 55        	li	a0, -0x2
   18646: 82 80        	ret
   18648: e9 f7        	bnez	a5, 0x18612 <__gttf2+0x56>
   1864a: e3 9a b6 fc  	bne	a3, a1, 0x1861e <__gttf2+0x62>
   1864e: e3 5b 05 fd  	bge	a0, a6, 0x18624 <__gttf2+0x68>
   18652: 7d 55        	li	a0, -0x1
   18654: f9 f6        	bnez	a3, 0x18622 <__gttf2+0x66>
   18656: 05 45        	li	a0, 0x1
   18658: 82 80        	ret

000000000001865a <__lttf2>:
   1865a: aa 88        	mv	a7, a0
   1865c: f3 27 20 00  	frrm	a5
   18660: 21 63        	lui	t1, 0x8
   18662: 13 d8 05 03  	srli	a6, a1, 0x30
   18666: 7d 13        	addi	t1, t1, -0x1
   18668: 7d 57        	li	a4, -0x1
   1866a: 41 83        	srli	a4, a4, 0x10
   1866c: 93 d7 06 03  	srli	a5, a3, 0x30
   18670: 33 78 68 00  	and	a6, a6, t1
   18674: 33 fe e5 00  	and	t3, a1, a4
   18678: 33 f5 67 00  	and	a0, a5, t1
   1867c: 75 8f        	and	a4, a4, a3
   1867e: fd 91        	srli	a1, a1, 0x3f
   18680: fd 92        	srli	a3, a3, 0x3f
   18682: 63 15 68 00  	bne	a6, t1, 0x1868c <__lttf2+0x32>
   18686: b3 67 1e 01  	or	a5, t3, a7
   1868a: b1 eb        	bnez	a5, 0x186de <__lttf2+0x84>
   1868c: 63 15 65 00  	bne	a0, t1, 0x18696 <__lttf2+0x3c>
   18690: b3 67 c7 00  	or	a5, a4, a2
   18694: a9 e7        	bnez	a5, 0x186de <__lttf2+0x84>
   18696: 81 47        	li	a5, 0x0
   18698: 63 16 08 00  	bnez	a6, 0x186a4 <__lttf2+0x4a>
   1869c: b3 67 1e 01  	or	a5, t3, a7
   186a0: 93 b7 17 00  	seqz	a5, a5
   186a4: 29 e1        	bnez	a0, 0x186e6 <__lttf2+0x8c>
   186a6: 33 63 c7 00  	or	t1, a4, a2
   186aa: 99 c7        	beqz	a5, 0x186b8 <__lttf2+0x5e>
   186ac: 63 0a 03 00  	beqz	t1, 0x186c0 <__lttf2+0x66>
   186b0: 05 45        	li	a0, 0x1
   186b2: 99 e6        	bnez	a3, 0x186c0 <__lttf2+0x66>
   186b4: 7d 55        	li	a0, -0x1
   186b6: 82 80        	ret
   186b8: 63 18 03 02  	bnez	t1, 0x186e8 <__lttf2+0x8e>
   186bc: 7d 55        	li	a0, -0x1
   186be: 9d c9        	beqz	a1, 0x186f4 <__lttf2+0x9a>
   186c0: 82 80        	ret
   186c2: e3 47 a8 fe  	blt	a6, a0, 0x186b0 <__lttf2+0x56>
   186c6: e3 6b c7 ff  	bltu	a4, t3, 0x186bc <__lttf2+0x62>
   186ca: 63 17 ee 00  	bne	t3, a4, 0x186d8 <__lttf2+0x7e>
   186ce: e3 67 16 ff  	bltu	a2, a7, 0x186bc <__lttf2+0x62>
   186d2: 01 45        	li	a0, 0x0
   186d4: e3 f6 c8 fe  	bgeu	a7, a2, 0x186c0 <__lttf2+0x66>
   186d8: 05 45        	li	a0, 0x1
   186da: fd f1        	bnez	a1, 0x186c0 <__lttf2+0x66>
   186dc: e1 bf        	j	0x186b4 <__lttf2+0x5a>
   186de: 73 60 18 00  	csrsi	fflags, 0x10
   186e2: 09 45        	li	a0, 0x2
   186e4: 82 80        	ret
   186e6: e9 f7        	bnez	a5, 0x186b0 <__lttf2+0x56>
   186e8: e3 9a b6 fc  	bne	a3, a1, 0x186bc <__lttf2+0x62>
   186ec: e3 5b 05 fd  	bge	a0, a6, 0x186c2 <__lttf2+0x68>
   186f0: 7d 55        	li	a0, -0x1
   186f2: f9 f6        	bnez	a3, 0x186c0 <__lttf2+0x66>
   186f4: 05 45        	li	a0, 0x1
   186f6: 82 80        	ret

00000000000186f8 <__multf3>:
   186f8: 1d 71        	addi	sp, sp, -0x60
   186fa: a2 e8        	sd	s0, 0x50(sp)
   186fc: 56 f4        	sd	s5, 0x28(sp)
   186fe: 62 e8        	sd	s8, 0x10(sp)
   18700: 86 ec        	sd	ra, 0x58(sp)
   18702: a6 e4        	sd	s1, 0x48(sp)
   18704: ca e0        	sd	s2, 0x40(sp)
   18706: 4e fc        	sd	s3, 0x38(sp)
   18708: 52 f8        	sd	s4, 0x30(sp)
   1870a: 5a f0        	sd	s6, 0x20(sp)
   1870c: 5e ec        	sd	s7, 0x18(sp)
   1870e: 66 e4        	sd	s9, 0x8(sp)
   18710: 2a 84        	mv	s0, a0
   18712: 32 8c        	mv	s8, a2
   18714: b6 8a        	mv	s5, a3
   18716: f3 29 20 00  	frrm	s3
   1871a: 21 67        	lui	a4, 0x8
   1871c: 93 d7 05 03  	srli	a5, a1, 0x30
   18720: 7d 17        	addi	a4, a4, -0x1
   18722: 93 94 05 01  	slli	s1, a1, 0x10
   18726: f9 8f        	and	a5, a5, a4
   18728: 81 29        	sext.w	s3, s3
   1872a: c1 80        	srli	s1, s1, 0x10
   1872c: 13 db f5 03  	srli	s6, a1, 0x3f
   18730: 85 c7        	beqz	a5, 0x18758 <__multf3+0x60>
   18732: 1b 8a 07 00  	sext.w	s4, a5
   18736: 63 8f e7 06  	beq	a5, a4, 0x187b4 <__multf3+0xbc>
   1873a: 8e 04        	slli	s1, s1, 0x3
   1873c: 13 57 d5 03  	srli	a4, a0, 0x3d
   18740: 45 8f        	or	a4, a4, s1
   18742: 71 7a        	lui	s4, 0xffffc
   18744: 85 44        	li	s1, 0x1
   18746: ce 14        	slli	s1, s1, 0x33
   18748: 05 0a        	addi	s4, s4, 0x1
   1874a: d9 8c        	or	s1, s1, a4
   1874c: 93 1b 35 00  	slli	s7, a0, 0x3
   18750: 3e 9a        	add	s4, s4, a5
   18752: 81 4c        	li	s9, 0x0
   18754: 01 49        	li	s2, 0x0
   18756: 95 a8        	j	0x187ca <__multf3+0xd2>
   18758: b3 6b 95 00  	or	s7, a0, s1
   1875c: 63 82 0b 28  	beqz	s7, 0x189e0 <__multf3+0x2e8>
   18760: 9d c8        	beqz	s1, 0x18796 <__multf3+0x9e>
   18762: 26 85        	mv	a0, s1
   18764: ef 00 30 7f  	jal	0x19756 <__clzdi2>
   18768: 01 25        	sext.w	a0, a0
   1876a: 93 07 15 ff  	addi	a5, a0, -0xf
   1876e: 13 07 d0 03  	li	a4, 0x3d
   18772: 9b 86 37 00  	addiw	a3, a5, 0x3
   18776: bb 07 f7 40  	subw	a5, a4, a5
   1877a: b3 94 d4 00  	sll	s1, s1, a3
   1877e: b3 57 f4 00  	srl	a5, s0, a5
   18782: c5 8f        	or	a5, a5, s1
   18784: b3 14 d4 00  	sll	s1, s0, a3
   18788: 71 7a        	lui	s4, 0xffffc
   1878a: 45 0a        	addi	s4, s4, 0x11
   1878c: a6 8b        	mv	s7, s1
   1878e: 33 0a aa 40  	sub	s4, s4, a0
   18792: be 84        	mv	s1, a5
   18794: 7d bf        	j	0x18752 <__multf3+0x5a>
   18796: ef 00 10 7c  	jal	0x19756 <__clzdi2>
   1879a: 1b 05 05 04  	addiw	a0, a0, 0x40
   1879e: 93 07 15 ff  	addi	a5, a0, -0xf
   187a2: 13 07 c0 03  	li	a4, 0x3c
   187a6: e3 54 f7 fc  	bge	a4, a5, 0x1876e <__multf3+0x76>
   187aa: 9b 87 37 fc  	addiw	a5, a5, -0x3d
   187ae: b3 17 f4 00  	sll	a5, s0, a5
   187b2: d9 bf        	j	0x18788 <__multf3+0x90>
   187b4: b3 6b 95 00  	or	s7, a0, s1
   187b8: 63 88 0b 22  	beqz	s7, 0x189e8 <__multf3+0x2f0>
   187bc: 05 49        	li	s2, 0x1
   187be: 3e 19        	slli	s2, s2, 0x2f
   187c0: 33 b9 24 01  	sltu	s2, s1, s2
   187c4: 12 09        	slli	s2, s2, 0x4
   187c6: aa 8b        	mv	s7, a0
   187c8: 8d 4c        	li	s9, 0x3
   187ca: 21 66        	lui	a2, 0x8
   187cc: 13 d7 0a 03  	srli	a4, s5, 0x30
   187d0: fd 56        	li	a3, -0x1
   187d2: 7d 16        	addi	a2, a2, -0x1
   187d4: 13 d4 06 01  	srli	s0, a3, 0x10
   187d8: 71 8f        	and	a4, a4, a2
   187da: 33 f4 8a 00  	and	s0, s5, s0
   187de: 62 85        	mv	a0, s8
   187e0: 93 da fa 03  	srli	s5, s5, 0x3f
   187e4: 63 05 07 20  	beqz	a4, 0x189ee <__multf3+0x2f6>
   187e8: 9b 07 07 00  	sext.w	a5, a4
   187ec: 63 0e c7 24  	beq	a4, a2, 0x18a48 <__multf3+0x350>
   187f0: 0e 04        	slli	s0, s0, 0x3
   187f2: 93 57 dc 03  	srli	a5, s8, 0x3d
   187f6: c1 8f        	or	a5, a5, s0
   187f8: 05 44        	li	s0, 0x1
   187fa: 4e 14        	slli	s0, s0, 0x33
   187fc: 5d 8c        	or	s0, s0, a5
   187fe: f1 77        	lui	a5, 0xffffc
   18800: 85 07        	addi	a5, a5, 0x1
   18802: 13 15 3c 00  	slli	a0, s8, 0x3
   18806: ba 97        	add	a5, a5, a4
   18808: 01 47        	li	a4, 0x0
   1880a: b3 86 47 01  	add	a3, a5, s4
   1880e: 93 97 2c 00  	slli	a5, s9, 0x2
   18812: d9 8f        	or	a5, a5, a4
   18814: 29 46        	li	a2, 0xa
   18816: 93 88 16 00  	addi	a7, a3, 0x1
   1881a: 63 4f f6 2a  	blt	a2, a5, 0x18ad8 <__multf3+0x3e0>
   1881e: 89 45        	li	a1, 0x2
   18820: 33 46 5b 01  	xor	a2, s6, s5
   18824: 63 c4 f5 24  	blt	a1, a5, 0x18a6c <__multf3+0x374>
   18828: fd 17        	addi	a5, a5, -0x1
   1882a: 85 45        	li	a1, 0x1
   1882c: 63 ff f5 24  	bgeu	a1, a5, 0x18a8a <__multf3+0x392>
   18830: fd 57        	li	a5, -0x1
   18832: 81 93        	srli	a5, a5, 0x20
   18834: 13 d7 0b 02  	srli	a4, s7, 0x20
   18838: 93 55 05 02  	srli	a1, a0, 0x20
   1883c: b3 8f 74 01  	add	t6, s1, s7
   18840: 33 0f 85 00  	add	t5, a0, s0
   18844: b3 fb fb 00  	and	s7, s7, a5
   18848: e9 8f        	and	a5, a5, a0
   1884a: b3 3e af 00  	sltu	t4, t5, a0
   1884e: 33 85 77 03  	mul	a0, a5, s7
   18852: 33 be 9f 00  	sltu	t3, t6, s1
   18856: b3 07 f7 02  	mul	a5, a4, a5
   1885a: 13 58 05 02  	srli	a6, a0, 0x20
   1885e: 33 07 b7 02  	mul	a4, a4, a1
   18862: b3 85 75 03  	mul	a1, a1, s7
   18866: be 95        	add	a1, a1, a5
   18868: 2e 98        	add	a6, a6, a1
   1886a: 63 75 f8 00  	bgeu	a6, a5, 0x18874 <__multf3+0x17c>
   1886e: 85 47        	li	a5, 0x1
   18870: 82 17        	slli	a5, a5, 0x20
   18872: 3e 97        	add	a4, a4, a5
   18874: fd 57        	li	a5, -0x1
   18876: 81 93        	srli	a5, a5, 0x20
   18878: 13 53 08 02  	srli	t1, a6, 0x20
   1887c: 33 78 f8 00  	and	a6, a6, a5
   18880: 7d 8d        	and	a0, a0, a5
   18882: 02 18        	slli	a6, a6, 0x20
   18884: 93 d3 0f 02  	srli	t2, t6, 0x20
   18888: 3a 93        	add	t1, t1, a4
   1888a: 2a 98        	add	a6, a6, a0
   1888c: 13 57 0f 02  	srli	a4, t5, 0x20
   18890: 33 f5 ff 00  	and	a0, t6, a5
   18894: b3 77 ff 00  	and	a5, t5, a5
   18898: b3 85 a7 02  	mul	a1, a5, a0
   1889c: b3 87 f3 02  	mul	a5, t2, a5
   188a0: 93 d2 05 02  	srli	t0, a1, 0x20
   188a4: b3 83 e3 02  	mul	t2, t2, a4
   188a8: 33 07 a7 02  	mul	a4, a4, a0
   188ac: 3e 97        	add	a4, a4, a5
   188ae: ba 92        	add	t0, t0, a4
   188b0: 63 f5 f2 00  	bgeu	t0, a5, 0x188ba <__multf3+0x1c2>
   188b4: 85 47        	li	a5, 0x1
   188b6: 82 17        	slli	a5, a5, 0x20
   188b8: be 93        	add	t2, t2, a5
   188ba: fd 57        	li	a5, -0x1
   188bc: 81 93        	srli	a5, a5, 0x20
   188be: 13 d7 02 02  	srli	a4, t0, 0x20
   188c2: b3 f2 f2 00  	and	t0, t0, a5
   188c6: fd 8d        	and	a1, a1, a5
   188c8: 82 12        	slli	t0, t0, 0x20
   188ca: 13 55 04 02  	srli	a0, s0, 0x20
   188ce: ae 92        	add	t0, t0, a1
   188d0: 93 d5 04 02  	srli	a1, s1, 0x20
   188d4: fd 8c        	and	s1, s1, a5
   188d6: e1 8f        	and	a5, a5, s0
   188d8: 33 8a f4 02  	mul	s4, s1, a5
   188dc: 33 84 a5 02  	mul	s0, a1, a0
   188e0: b3 87 f5 02  	mul	a5, a1, a5
   188e4: 33 05 95 02  	mul	a0, a0, s1
   188e8: b3 05 f5 00  	add	a1, a0, a5
   188ec: 13 55 0a 02  	srli	a0, s4, 0x20
   188f0: 2e 95        	add	a0, a0, a1
   188f2: 63 75 f5 00  	bgeu	a0, a5, 0x188fc <__multf3+0x204>
   188f6: 85 47        	li	a5, 0x1
   188f8: 82 17        	slli	a5, a5, 0x20
   188fa: 3e 94        	add	s0, s0, a5
   188fc: 93 55 05 02  	srli	a1, a0, 0x20
   18900: a2 95        	add	a1, a1, s0
   18902: 7d 54        	li	s0, -0x1
   18904: 01 90        	srli	s0, s0, 0x20
   18906: b3 77 85 00  	and	a5, a0, s0
   1890a: 82 17        	slli	a5, a5, 0x20
   1890c: 33 7a 8a 00  	and	s4, s4, s0
   18910: d2 97        	add	a5, a5, s4
   18912: 01 45        	li	a0, 0x0
   18914: 63 83 0e 00  	beqz	t4, 0x1891a <__multf3+0x222>
   18918: 7e 85        	mv	a0, t6
   1891a: 81 4f        	li	t6, 0x0
   1891c: 63 03 0e 00  	beqz	t3, 0x18922 <__multf3+0x22a>
   18920: fa 8f        	mv	t6, t5
   18922: 33 84 62 00  	add	s0, t0, t1
   18926: 33 3f 54 00  	sltu	t5, s0, t0
   1892a: 7a 97        	add	a4, a4, t5
   1892c: 1e 97        	add	a4, a4, t2
   1892e: 33 7e de 01  	and	t3, t3, t4
   18932: 33 3f e7 01  	sltu	t5, a4, t5
   18936: 3a 95        	add	a0, a0, a4
   18938: 72 9f        	add	t5, t5, t3
   1893a: 33 37 e5 00  	sltu	a4, a0, a4
   1893e: 7e 95        	add	a0, a0, t6
   18940: 7a 97        	add	a4, a4, t5
   18942: b3 3f f5 01  	sltu	t6, a0, t6
   18946: 33 0e 04 41  	sub	t3, s0, a6
   1894a: b3 3e c4 01  	sltu	t4, s0, t3
   1894e: ba 9f        	add	t6, t6, a4
   18950: 33 07 65 40  	sub	a4, a0, t1
   18954: 33 3f e5 00  	sltu	t5, a0, a4
   18958: 33 07 d7 41  	sub	a4, a4, t4
   1895c: 81 4e        	li	t4, 0x0
   1895e: 63 76 c4 01  	bgeu	s0, t3, 0x1896a <__multf3+0x272>
   18962: 33 03 a3 40  	sub	t1, t1, a0
   18966: 93 3e 13 00  	seqz	t4, t1
   1896a: ae 9f        	add	t6, t6, a1
   1896c: 33 03 fe 40  	sub	t1, t3, a5
   18970: b3 05 b7 40  	sub	a1, a4, a1
   18974: 33 35 b7 00  	sltu	a0, a4, a1
   18978: 33 37 6e 00  	sltu	a4, t3, t1
   1897c: 33 ef ee 01  	or	t5, t4, t5
   18980: 33 87 e7 40  	sub	a4, a5, a4
   18984: 81 4e        	li	t4, 0x0
   18986: 63 74 6e 00  	bgeu	t3, t1, 0x1898e <__multf3+0x296>
   1898a: 93 be 15 00  	seqz	t4, a1
   1898e: ba 95        	add	a1, a1, a4
   18990: 33 b7 f5 00  	sltu	a4, a1, a5
   18994: 7e 97        	add	a4, a4, t6
   18996: b3 ee ae 00  	or	t4, t4, a0
   1899a: 33 07 e7 41  	sub	a4, a4, t5
   1899e: 13 15 d3 00  	slli	a0, t1, 0xd
   189a2: 33 07 d7 41  	sub	a4, a4, t4
   189a6: 33 65 05 01  	or	a0, a0, a6
   189aa: 36 07        	slli	a4, a4, 0xd
   189ac: 33 35 a0 00  	snez	a0, a0
   189b0: 13 53 33 03  	srli	t1, t1, 0x33
   189b4: 13 d4 35 03  	srli	s0, a1, 0x33
   189b8: 33 65 65 00  	or	a0, a0, t1
   189bc: b6 05        	slli	a1, a1, 0xd
   189be: 93 17 b7 00  	slli	a5, a4, 0xb
   189c2: 59 8c        	or	s0, s0, a4
   189c4: 4d 8d        	or	a0, a0, a1
   189c6: 63 db 07 00  	bgez	a5, 0x189dc <__multf3+0x2e4>
   189ca: 93 57 15 00  	srli	a5, a0, 0x1
   189ce: 05 89        	andi	a0, a0, 0x1
   189d0: c9 8f        	or	a5, a5, a0
   189d2: 13 15 f4 03  	slli	a0, s0, 0x3f
   189d6: 5d 8d        	or	a0, a0, a5
   189d8: 05 80        	srli	s0, s0, 0x1
   189da: c6 86        	mv	a3, a7
   189dc: b6 88        	mv	a7, a3
   189de: 7d a8        	j	0x18a9c <__multf3+0x3a4>
   189e0: 81 44        	li	s1, 0x0
   189e2: 01 4a        	li	s4, 0x0
   189e4: 85 4c        	li	s9, 0x1
   189e6: bd b3        	j	0x18754 <__multf3+0x5c>
   189e8: 81 44        	li	s1, 0x0
   189ea: 89 4c        	li	s9, 0x2
   189ec: a5 b3        	j	0x18754 <__multf3+0x5c>
   189ee: b3 67 8c 00  	or	a5, s8, s0
   189f2: a5 c7        	beqz	a5, 0x18a5a <__multf3+0x362>
   189f4: 1d c8        	beqz	s0, 0x18a2a <__multf3+0x332>
   189f6: 22 85        	mv	a0, s0
   189f8: ef 00 f0 55  	jal	0x19756 <__clzdi2>
   189fc: 01 25        	sext.w	a0, a0
   189fe: 93 07 15 ff  	addi	a5, a0, -0xf
   18a02: 13 07 d0 03  	li	a4, 0x3d
   18a06: 9b 86 37 00  	addiw	a3, a5, 0x3
   18a0a: bb 07 f7 40  	subw	a5, a4, a5
   18a0e: 33 14 d4 00  	sll	s0, s0, a3
   18a12: b3 57 fc 00  	srl	a5, s8, a5
   18a16: 33 e7 87 00  	or	a4, a5, s0
   18a1a: 33 14 dc 00  	sll	s0, s8, a3
   18a1e: f1 77        	lui	a5, 0xffffc
   18a20: c5 07        	addi	a5, a5, 0x11
   18a22: 89 8f        	sub	a5, a5, a0
   18a24: 22 85        	mv	a0, s0
   18a26: 3a 84        	mv	s0, a4
   18a28: c5 b3        	j	0x18808 <__multf3+0x110>
   18a2a: ef 00 d0 52  	jal	0x19756 <__clzdi2>
   18a2e: 1b 05 05 04  	addiw	a0, a0, 0x40
   18a32: 93 07 15 ff  	addi	a5, a0, -0xf
   18a36: 13 07 c0 03  	li	a4, 0x3c
   18a3a: e3 54 f7 fc  	bge	a4, a5, 0x18a02 <__multf3+0x30a>
   18a3e: 9b 87 37 fc  	addiw	a5, a5, -0x3d
   18a42: 33 17 fc 00  	sll	a4, s8, a5
   18a46: e1 bf        	j	0x18a1e <__multf3+0x326>
   18a48: 33 67 8c 00  	or	a4, s8, s0
   18a4c: 01 cf        	beqz	a4, 0x18a64 <__multf3+0x36c>
   18a4e: c5 82        	srli	a3, a3, 0x11
   18a50: 0d 47        	li	a4, 0x3
   18a52: e3 ec 86 da  	bltu	a3, s0, 0x1880a <__multf3+0x112>
   18a56: 41 49        	li	s2, 0x10
   18a58: 4d bb        	j	0x1880a <__multf3+0x112>
   18a5a: 01 44        	li	s0, 0x0
   18a5c: 01 45        	li	a0, 0x0
   18a5e: 81 47        	li	a5, 0x0
   18a60: 05 47        	li	a4, 0x1
   18a62: 65 b3        	j	0x1880a <__multf3+0x112>
   18a64: 01 44        	li	s0, 0x0
   18a66: 01 45        	li	a0, 0x0
   18a68: 09 47        	li	a4, 0x2
   18a6a: 45 b3        	j	0x1880a <__multf3+0x112>
   18a6c: 85 45        	li	a1, 0x1
   18a6e: b3 97 f5 00  	sll	a5, a1, a5
   18a72: 93 f5 07 53  	andi	a1, a5, 0x530
   18a76: a5 e9        	bnez	a1, 0x18ae6 <__multf3+0x3ee>
   18a78: 93 f5 07 24  	andi	a1, a5, 0x240
   18a7c: 63 99 05 24  	bnez	a1, 0x18cce <__multf3+0x5d6>
   18a80: 93 f7 87 08  	andi	a5, a5, 0x88
   18a84: e3 86 07 da  	beqz	a5, 0x18830 <__multf3+0x138>
   18a88: 56 86        	mv	a2, s5
   18a8a: 89 47        	li	a5, 0x2
   18a8c: 63 09 f7 24  	beq	a4, a5, 0x18cde <__multf3+0x5e6>
   18a90: 8d 47        	li	a5, 0x3
   18a92: 63 0f f7 22  	beq	a4, a5, 0x18cd0 <__multf3+0x5d8>
   18a96: 85 47        	li	a5, 0x1
   18a98: 63 08 f7 24  	beq	a4, a5, 0x18ce8 <__multf3+0x5f0>
   18a9c: 11 67        	lui	a4, 0x4
   18a9e: 7d 17        	addi	a4, a4, -0x1
   18aa0: 46 97        	add	a4, a4, a7
   18aa2: 63 5f e0 0c  	blez	a4, 0x18b80 <__multf3+0x488>
   18aa6: 93 77 75 00  	andi	a5, a0, 0x7
   18aaa: b9 c7        	beqz	a5, 0x18af8 <__multf3+0x400>
   18aac: 89 47        	li	a5, 0x2
   18aae: 13 69 19 00  	ori	s2, s2, 0x1
   18ab2: 63 82 f9 04  	beq	s3, a5, 0x18af6 <__multf3+0x3fe>
   18ab6: 8d 47        	li	a5, 0x3
   18ab8: 63 8b f9 02  	beq	s3, a5, 0x18aee <__multf3+0x3f6>
   18abc: 63 9e 09 02  	bnez	s3, 0x18af8 <__multf3+0x400>
   18ac0: 93 77 f5 00  	andi	a5, a0, 0xf
   18ac4: 91 46        	li	a3, 0x4
   18ac6: 63 89 d7 02  	beq	a5, a3, 0x18af8 <__multf3+0x400>
   18aca: 93 07 45 00  	addi	a5, a0, 0x4
   18ace: b3 b6 a7 00  	sltu	a3, a5, a0
   18ad2: 36 94        	add	s0, s0, a3
   18ad4: 3e 85        	mv	a0, a5
   18ad6: 0d a0        	j	0x18af8 <__multf3+0x400>
   18ad8: bd 46        	li	a3, 0xf
   18ada: 63 8b d7 1e  	beq	a5, a3, 0x18cd0 <__multf3+0x5d8>
   18ade: ad 46        	li	a3, 0xb
   18ae0: 5a 86        	mv	a2, s6
   18ae2: e3 83 d7 fa  	beq	a5, a3, 0x18a88 <__multf3+0x390>
   18ae6: 26 84        	mv	s0, s1
   18ae8: 5e 85        	mv	a0, s7
   18aea: 66 87        	mv	a4, s9
   18aec: 79 bf        	j	0x18a8a <__multf3+0x392>
   18aee: 09 e6        	bnez	a2, 0x18af8 <__multf3+0x400>
   18af0: 93 07 85 00  	addi	a5, a0, 0x8
   18af4: e9 bf        	j	0x18ace <__multf3+0x3d6>
   18af6: 6d fe        	bnez	a2, 0x18af0 <__multf3+0x3f8>
   18af8: 93 17 b4 00  	slli	a5, s0, 0xb
   18afc: 63 d8 07 00  	bgez	a5, 0x18b0c <__multf3+0x414>
   18b00: fd 57        	li	a5, -0x1
   18b02: d2 17        	slli	a5, a5, 0x34
   18b04: fd 17        	addi	a5, a5, -0x1
   18b06: 11 67        	lui	a4, 0x4
   18b08: 7d 8c        	and	s0, s0, a5
   18b0a: 46 97        	add	a4, a4, a7
   18b0c: a1 67        	lui	a5, 0x8
   18b0e: f9 17        	addi	a5, a5, -0x2
   18b10: a1 66        	lui	a3, 0x8
   18b12: 63 c2 e7 04  	blt	a5, a4, 0x18b56 <__multf3+0x45e>
   18b16: 93 57 35 00  	srli	a5, a0, 0x3
   18b1a: 13 15 d4 03  	slli	a0, s0, 0x3d
   18b1e: 5d 8d        	or	a0, a0, a5
   18b20: 93 57 34 00  	srli	a5, s0, 0x3
   18b24: 1b 16 f6 00  	slliw	a2, a2, 0xf
   18b28: 93 95 07 01  	slli	a1, a5, 0x10
   18b2c: 51 8f        	or	a4, a4, a2
   18b2e: 42 17        	slli	a4, a4, 0x30
   18b30: c1 81        	srli	a1, a1, 0x10
   18b32: d9 8d        	or	a1, a1, a4
   18b34: 63 04 09 00  	beqz	s2, 0x18b3c <__multf3+0x444>
   18b38: 73 20 19 00  	csrs	fflags, s2
   18b3c: e6 60        	ld	ra, 0x58(sp)
   18b3e: 46 64        	ld	s0, 0x50(sp)
   18b40: a6 64        	ld	s1, 0x48(sp)
   18b42: 06 69        	ld	s2, 0x40(sp)
   18b44: e2 79        	ld	s3, 0x38(sp)
   18b46: 42 7a        	ld	s4, 0x30(sp)
   18b48: a2 7a        	ld	s5, 0x28(sp)
   18b4a: 02 7b        	ld	s6, 0x20(sp)
   18b4c: e2 6b        	ld	s7, 0x18(sp)
   18b4e: 42 6c        	ld	s8, 0x10(sp)
   18b50: a2 6c        	ld	s9, 0x8(sp)
   18b52: 25 61        	addi	sp, sp, 0x60
   18b54: 82 80        	ret
   18b56: 09 47        	li	a4, 0x2
   18b58: 63 82 e9 02  	beq	s3, a4, 0x18b7c <__multf3+0x484>
   18b5c: 0d 47        	li	a4, 0x3
   18b5e: 63 88 e9 00  	beq	s3, a4, 0x18b6e <__multf3+0x476>
   18b62: 63 97 09 00  	bnez	s3, 0x18b70 <__multf3+0x478>
   18b66: 01 45        	li	a0, 0x0
   18b68: 13 87 f6 ff  	addi	a4, a3, -0x1
   18b6c: 21 a0        	j	0x18b74 <__multf3+0x47c>
   18b6e: 65 de        	beqz	a2, 0x18b66 <__multf3+0x46e>
   18b70: 7d 55        	li	a0, -0x1
   18b72: 3e 87        	mv	a4, a5
   18b74: 13 69 59 00  	ori	s2, s2, 0x5
   18b78: aa 87        	mv	a5, a0
   18b7a: 6d b7        	j	0x18b24 <__multf3+0x42c>
   18b7c: 6d f6        	bnez	a2, 0x18b66 <__multf3+0x46e>
   18b7e: cd bf        	j	0x18b70 <__multf3+0x478>
   18b80: 85 46        	li	a3, 0x1
   18b82: 21 e7        	bnez	a4, 0x18bca <__multf3+0x4d2>
   18b84: 93 76 75 00  	andi	a3, a0, 0x7
   18b88: a2 87        	mv	a5, s0
   18b8a: 9d ca        	beqz	a3, 0x18bc0 <__multf3+0x4c8>
   18b8c: 89 46        	li	a3, 0x2
   18b8e: 13 69 19 00  	ori	s2, s2, 0x1
   18b92: 63 86 d9 02  	beq	s3, a3, 0x18bbe <__multf3+0x4c6>
   18b96: 8d 46        	li	a3, 0x3
   18b98: 63 8f d9 00  	beq	s3, a3, 0x18bb6 <__multf3+0x4be>
   18b9c: 63 92 09 02  	bnez	s3, 0x18bc0 <__multf3+0x4c8>
   18ba0: 93 76 f5 00  	andi	a3, a0, 0xf
   18ba4: 91 45        	li	a1, 0x4
   18ba6: 63 8d b6 00  	beq	a3, a1, 0x18bc0 <__multf3+0x4c8>
   18baa: 93 37 c5 ff  	sltiu	a5, a0, -0x4
   18bae: 93 c7 17 00  	xori	a5, a5, 0x1
   18bb2: a2 97        	add	a5, a5, s0
   18bb4: 31 a0        	j	0x18bc0 <__multf3+0x4c8>
   18bb6: 09 e6        	bnez	a2, 0x18bc0 <__multf3+0x4c8>
   18bb8: 93 37 85 ff  	sltiu	a5, a0, -0x8
   18bbc: cd bf        	j	0x18bae <__multf3+0x4b6>
   18bbe: 6d fe        	bnez	a2, 0x18bb8 <__multf3+0x4c0>
   18bc0: 93 d6 47 03  	srli	a3, a5, 0x34
   18bc4: 93 c6 16 00  	xori	a3, a3, 0x1
   18bc8: 85 8a        	andi	a3, a3, 0x1
   18bca: 05 48        	li	a6, 0x1
   18bcc: 33 08 e8 40  	sub	a6, a6, a4
   18bd0: 93 07 40 07  	li	a5, 0x74
   18bd4: 63 c2 07 0d  	blt	a5, a6, 0x18c98 <__multf3+0x5a0>
   18bd8: 13 07 f0 03  	li	a4, 0x3f
   18bdc: 9b 07 08 00  	sext.w	a5, a6
   18be0: 63 4b 07 05  	blt	a4, a6, 0x18c36 <__multf3+0x53e>
   18be4: 93 05 00 04  	li	a1, 0x40
   18be8: 9d 9d        	subw	a1, a1, a5
   18bea: 33 17 b4 00  	sll	a4, s0, a1
   18bee: 33 58 f5 00  	srl	a6, a0, a5
   18bf2: b3 15 b5 00  	sll	a1, a0, a1
   18bf6: 33 67 07 01  	or	a4, a4, a6
   18bfa: b3 35 b0 00  	snez	a1, a1
   18bfe: 4d 8f        	or	a4, a4, a1
   18c00: b3 57 f4 00  	srl	a5, s0, a5
   18c04: 93 75 77 00  	andi	a1, a4, 0x7
   18c08: a5 c1        	beqz	a1, 0x18c68 <__multf3+0x570>
   18c0a: 89 45        	li	a1, 0x2
   18c0c: 13 69 19 00  	ori	s2, s2, 0x1
   18c10: 63 8b b9 04  	beq	s3, a1, 0x18c66 <__multf3+0x56e>
   18c14: 8d 45        	li	a1, 0x3
   18c16: 63 84 b9 04  	beq	s3, a1, 0x18c5e <__multf3+0x566>
   18c1a: 63 97 09 04  	bnez	s3, 0x18c68 <__multf3+0x570>
   18c1e: 93 75 f7 00  	andi	a1, a4, 0xf
   18c22: 11 45        	li	a0, 0x4
   18c24: 63 82 a5 04  	beq	a1, a0, 0x18c68 <__multf3+0x570>
   18c28: 93 05 47 00  	addi	a1, a4, 0x4
   18c2c: 33 b5 e5 00  	sltu	a0, a1, a4
   18c30: aa 97        	add	a5, a5, a0
   18c32: 2e 87        	mv	a4, a1
   18c34: 15 a8        	j	0x18c68 <__multf3+0x570>
   18c36: 1b 87 07 fc  	addiw	a4, a5, -0x40
   18c3a: 93 08 00 04  	li	a7, 0x40
   18c3e: 33 57 e4 00  	srl	a4, s0, a4
   18c42: 81 45        	li	a1, 0x0
   18c44: 63 07 18 01  	beq	a6, a7, 0x18c52 <__multf3+0x55a>
   18c48: 93 05 00 08  	li	a1, 0x80
   18c4c: 9d 9d        	subw	a1, a1, a5
   18c4e: b3 15 b4 00  	sll	a1, s0, a1
   18c52: c9 8d        	or	a1, a1, a0
   18c54: b3 35 b0 00  	snez	a1, a1
   18c58: 4d 8f        	or	a4, a4, a1
   18c5a: 81 47        	li	a5, 0x0
   18c5c: 65 b7        	j	0x18c04 <__multf3+0x50c>
   18c5e: 09 e6        	bnez	a2, 0x18c68 <__multf3+0x570>
   18c60: 93 05 87 00  	addi	a1, a4, 0x8
   18c64: e1 b7        	j	0x18c2c <__multf3+0x534>
   18c66: 6d fe        	bnez	a2, 0x18c60 <__multf3+0x568>
   18c68: 93 95 c7 00  	slli	a1, a5, 0xc
   18c6c: 63 df 05 00  	bgez	a1, 0x18c8a <__multf3+0x592>
   18c70: 13 69 19 00  	ori	s2, s2, 0x1
   18c74: 81 47        	li	a5, 0x0
   18c76: 01 45        	li	a0, 0x0
   18c78: 05 47        	li	a4, 0x1
   18c7a: e3 85 06 ea  	beqz	a3, 0x18b24 <__multf3+0x42c>
   18c7e: 93 76 19 00  	andi	a3, s2, 0x1
   18c82: 86 06        	slli	a3, a3, 0x1
   18c84: 33 e9 26 01  	or	s2, a3, s2
   18c88: 71 bd        	j	0x18b24 <__multf3+0x42c>
   18c8a: 0d 83        	srli	a4, a4, 0x3
   18c8c: 13 95 d7 03  	slli	a0, a5, 0x3d
   18c90: 59 8d        	or	a0, a0, a4
   18c92: 8d 83        	srli	a5, a5, 0x3
   18c94: 01 47        	li	a4, 0x0
   18c96: d5 b7        	j	0x18c7a <__multf3+0x582>
   18c98: 41 8d        	or	a0, a0, s0
   18c9a: 11 cd        	beqz	a0, 0x18cb6 <__multf3+0x5be>
   18c9c: 89 47        	li	a5, 0x2
   18c9e: 13 69 19 00  	ori	s2, s2, 0x1
   18ca2: 63 83 f9 02  	beq	s3, a5, 0x18cc8 <__multf3+0x5d0>
   18ca6: 8d 47        	li	a5, 0x3
   18ca8: 63 8c f9 00  	beq	s3, a5, 0x18cc0 <__multf3+0x5c8>
   18cac: 05 45        	li	a0, 0x1
   18cae: 63 93 09 00  	bnez	s3, 0x18cb4 <__multf3+0x5bc>
   18cb2: 15 45        	li	a0, 0x5
   18cb4: 0d 81        	srli	a0, a0, 0x3
   18cb6: 13 69 29 00  	ori	s2, s2, 0x2
   18cba: 81 47        	li	a5, 0x0
   18cbc: 01 47        	li	a4, 0x0
   18cbe: 9d b5        	j	0x18b24 <__multf3+0x42c>
   18cc0: 25 45        	li	a0, 0x9
   18cc2: 6d da        	beqz	a2, 0x18cb4 <__multf3+0x5bc>
   18cc4: 05 45        	li	a0, 0x1
   18cc6: fd b7        	j	0x18cb4 <__multf3+0x5bc>
   18cc8: 25 45        	li	a0, 0x9
   18cca: 6d f6        	bnez	a2, 0x18cb4 <__multf3+0x5bc>
   18ccc: e5 bf        	j	0x18cc4 <__multf3+0x5cc>
   18cce: 41 49        	li	s2, 0x10
   18cd0: 85 47        	li	a5, 0x1
   18cd2: 21 67        	lui	a4, 0x8
   18cd4: be 17        	slli	a5, a5, 0x2f
   18cd6: 01 45        	li	a0, 0x0
   18cd8: 7d 17        	addi	a4, a4, -0x1
   18cda: 01 46        	li	a2, 0x0
   18cdc: a1 b5        	j	0x18b24 <__multf3+0x42c>
   18cde: 21 67        	lui	a4, 0x8
   18ce0: 81 47        	li	a5, 0x0
   18ce2: 01 45        	li	a0, 0x0
   18ce4: 7d 17        	addi	a4, a4, -0x1
   18ce6: 3d bd        	j	0x18b24 <__multf3+0x42c>
   18ce8: 81 47        	li	a5, 0x0
   18cea: 01 45        	li	a0, 0x0
   18cec: c1 bf        	j	0x18cbc <__multf3+0x5c4>

0000000000018cee <__subtf3>:
   18cee: 79 71        	addi	sp, sp, -0x30
   18cf0: 06 f4        	sd	ra, 0x28(sp)
   18cf2: 22 f0        	sd	s0, 0x20(sp)
   18cf4: 26 ec        	sd	s1, 0x18(sp)
   18cf6: 4a e8        	sd	s2, 0x10(sp)
   18cf8: 4e e4        	sd	s3, 0x8(sp)
   18cfa: 52 e0        	sd	s4, 0x0(sp)
   18cfc: f3 24 20 00  	frrm	s1
   18d00: 7d 57        	li	a4, -0x1
   18d02: 41 83        	srli	a4, a4, 0x10
   18d04: 13 d8 05 03  	srli	a6, a1, 0x30
   18d08: 13 d9 f5 03  	srli	s2, a1, 0x3f
   18d0c: f9 8d        	and	a1, a1, a4
   18d0e: 8e 05        	slli	a1, a1, 0x3
   18d10: 93 58 d5 03  	srli	a7, a0, 0x3d
   18d14: a1 67        	lui	a5, 0x8
   18d16: fd 17        	addi	a5, a5, -0x1
   18d18: 13 d3 06 03  	srli	t1, a3, 0x30
   18d1c: b3 e8 b8 00  	or	a7, a7, a1
   18d20: 93 d5 f6 03  	srli	a1, a3, 0x3f
   18d24: f9 8e        	and	a3, a3, a4
   18d26: 33 78 f8 00  	and	a6, a6, a5
   18d2a: 13 57 d6 03  	srli	a4, a2, 0x3d
   18d2e: 8e 06        	slli	a3, a3, 0x3
   18d30: 33 73 f3 00  	and	t1, t1, a5
   18d34: 81 24        	sext.w	s1, s1
   18d36: c2 89        	mv	s3, a6
   18d38: 0e 05        	slli	a0, a0, 0x3
   18d3a: 55 8f        	or	a4, a4, a3
   18d3c: 0e 06        	slli	a2, a2, 0x3
   18d3e: 63 15 f3 00  	bne	t1, a5, 0x18d48 <__subtf3+0x5a>
   18d42: b3 67 c7 00  	or	a5, a4, a2
   18d46: 99 e3        	bnez	a5, 0x18d4c <__subtf3+0x5e>
   18d48: 93 c5 15 00  	xori	a1, a1, 0x1
   18d4c: bb 06 68 40  	subw	a3, a6, t1
   18d50: 21 6e        	lui	t3, 0x8
   18d52: 9b 87 06 00  	sext.w	a5, a3
   18d56: 7d 1e        	addi	t3, t3, -0x1
   18d58: 63 97 25 2b  	bne	a1, s2, 0x19006 <__subtf3+0x318>
   18d5c: 63 58 f0 0e  	blez	a5, 0x18e4c <__subtf3+0x15e>
   18d60: 63 19 03 06  	bnez	t1, 0x18dd2 <__subtf3+0xe4>
   18d64: b3 67 c7 00  	or	a5, a4, a2
   18d68: 91 e7        	bnez	a5, 0x18d74 <__subtf3+0x86>
   18d6a: 63 07 c8 05  	beq	a6, t3, 0x18db8 <__subtf3+0xca>
   18d6e: 46 87        	mv	a4, a7
   18d70: 2a 86        	mv	a2, a0
   18d72: f9 ab        	j	0x19350 <__subtf3+0x662>
   18d74: 9b 87 f6 ff  	addiw	a5, a3, -0x1
   18d78: 95 ef        	bnez	a5, 0x18db4 <__subtf3+0xc6>
   18d7a: 2a 96        	add	a2, a2, a0
   18d7c: 46 97        	add	a4, a4, a7
   18d7e: 33 35 a6 00  	sltu	a0, a2, a0
   18d82: 2a 97        	add	a4, a4, a0
   18d84: 93 16 c7 00  	slli	a3, a4, 0xc
   18d88: 81 47        	li	a5, 0x0
   18d8a: 63 d4 06 0e  	bgez	a3, 0x18e72 <__subtf3+0x184>
   18d8e: a1 66        	lui	a3, 0x8
   18d90: 85 09        	addi	s3, s3, 0x1
   18d92: fd 16        	addi	a3, a3, -0x1
   18d94: 63 85 d9 24  	beq	s3, a3, 0x18fde <__subtf3+0x2f0>
   18d98: fd 56        	li	a3, -0x1
   18d9a: ce 16        	slli	a3, a3, 0x33
   18d9c: fd 16        	addi	a3, a3, -0x1
   18d9e: f9 8e        	and	a3, a3, a4
   18da0: 13 57 16 00  	srli	a4, a2, 0x1
   18da4: 05 8a        	andi	a2, a2, 0x1
   18da6: 51 8f        	or	a4, a4, a2
   18da8: 13 96 f6 03  	slli	a2, a3, 0x3f
   18dac: 59 8e        	or	a2, a2, a4
   18dae: 13 d7 16 00  	srli	a4, a3, 0x1
   18db2: c1 a0        	j	0x18e72 <__subtf3+0x184>
   18db4: 63 14 c8 03  	bne	a6, t3, 0x18ddc <__subtf3+0xee>
   18db8: 33 e6 a8 00  	or	a2, a7, a0
   18dbc: 63 0c 06 6c  	beqz	a2, 0x19494 <__subtf3+0x7a6>
   18dc0: 93 d7 28 03  	srli	a5, a7, 0x32
   18dc4: 93 c7 17 00  	xori	a5, a5, 0x1
   18dc8: 85 8b        	andi	a5, a5, 0x1
   18dca: 92 07        	slli	a5, a5, 0x4
   18dcc: 46 87        	mv	a4, a7
   18dce: 2a 86        	mv	a2, a0
   18dd0: 4d a0        	j	0x18e72 <__subtf3+0x184>
   18dd2: e3 03 c8 ff  	beq	a6, t3, 0x18db8 <__subtf3+0xca>
   18dd6: 85 46        	li	a3, 0x1
   18dd8: ce 16        	slli	a3, a3, 0x33
   18dda: 55 8f        	or	a4, a4, a3
   18ddc: 93 06 40 07  	li	a3, 0x74
   18de0: 63 c1 f6 06  	blt	a3, a5, 0x18e42 <__subtf3+0x154>
   18de4: 93 06 f0 03  	li	a3, 0x3f
   18de8: 63 c9 f6 02  	blt	a3, a5, 0x18e1a <__subtf3+0x12c>
   18dec: 93 05 00 04  	li	a1, 0x40
   18df0: 9d 9d        	subw	a1, a1, a5
   18df2: b3 16 b7 00  	sll	a3, a4, a1
   18df6: 33 58 f6 00  	srl	a6, a2, a5
   18dfa: b3 15 b6 00  	sll	a1, a2, a1
   18dfe: b3 e6 06 01  	or	a3, a3, a6
   18e02: b3 35 b0 00  	snez	a1, a1
   18e06: cd 8e        	or	a3, a3, a1
   18e08: 33 57 f7 00  	srl	a4, a4, a5
   18e0c: 36 95        	add	a0, a0, a3
   18e0e: 46 97        	add	a4, a4, a7
   18e10: b3 36 d5 00  	sltu	a3, a0, a3
   18e14: 2a 86        	mv	a2, a0
   18e16: 36 97        	add	a4, a4, a3
   18e18: b5 b7        	j	0x18d84 <__subtf3+0x96>
   18e1a: 9b 86 07 fc  	addiw	a3, a5, -0x40
   18e1e: 13 08 00 04  	li	a6, 0x40
   18e22: b3 56 d7 00  	srl	a3, a4, a3
   18e26: 81 45        	li	a1, 0x0
   18e28: 63 87 07 01  	beq	a5, a6, 0x18e36 <__subtf3+0x148>
   18e2c: 93 05 00 08  	li	a1, 0x80
   18e30: 9d 9d        	subw	a1, a1, a5
   18e32: b3 15 b7 00  	sll	a1, a4, a1
   18e36: d1 8d        	or	a1, a1, a2
   18e38: b3 35 b0 00  	snez	a1, a1
   18e3c: cd 8e        	or	a3, a3, a1
   18e3e: 01 47        	li	a4, 0x0
   18e40: f1 b7        	j	0x18e0c <__subtf3+0x11e>
   18e42: b3 66 c7 00  	or	a3, a4, a2
   18e46: b3 36 d0 00  	snez	a3, a3
   18e4a: d5 bf        	j	0x18e3e <__subtf3+0x150>
   18e4c: e9 c7        	beqz	a5, 0x18f16 <__subtf3+0x228>
   18e4e: 63 12 08 08  	bnez	a6, 0x18ed2 <__subtf3+0x1e4>
   18e52: b3 e7 a8 00  	or	a5, a7, a0
   18e56: 95 e3        	bnez	a5, 0x18e7a <__subtf3+0x18c>
   18e58: 63 1c c3 63  	bne	t1, t3, 0x19490 <__subtf3+0x7a2>
   18e5c: b3 67 c7 00  	or	a5, a4, a2
   18e60: 63 86 07 62  	beqz	a5, 0x1948c <__subtf3+0x79e>
   18e64: 93 57 27 03  	srli	a5, a4, 0x32
   18e68: 93 c7 17 00  	xori	a5, a5, 0x1
   18e6c: 85 8b        	andi	a5, a5, 0x1
   18e6e: 92 07        	slli	a5, a5, 0x4
   18e70: 9a 89        	mv	s3, t1
   18e72: ba 88        	mv	a7, a4
   18e74: 32 85        	mv	a0, a2
   18e76: 01 47        	li	a4, 0x0
   18e78: 31 ab        	j	0x19394 <__subtf3+0x6a6>
   18e7a: 93 c7 f6 ff  	not	a5, a3
   18e7e: 81 27        	sext.w	a5, a5
   18e80: 81 eb        	bnez	a5, 0x18e90 <__subtf3+0x1a2>
   18e82: 2a 96        	add	a2, a2, a0
   18e84: 46 97        	add	a4, a4, a7
   18e86: 33 35 a6 00  	sltu	a0, a2, a0
   18e8a: 2a 97        	add	a4, a4, a0
   18e8c: 9a 89        	mv	s3, t1
   18e8e: dd bd        	j	0x18d84 <__subtf3+0x96>
   18e90: e3 06 c3 fd  	beq	t1, t3, 0x18e5c <__subtf3+0x16e>
   18e94: 93 06 40 07  	li	a3, 0x74
   18e98: 63 ca f6 06  	blt	a3, a5, 0x18f0c <__subtf3+0x21e>
   18e9c: 93 06 f0 03  	li	a3, 0x3f
   18ea0: 63 c2 f6 04  	blt	a3, a5, 0x18ee4 <__subtf3+0x1f6>
   18ea4: 93 05 00 04  	li	a1, 0x40
   18ea8: 9d 9d        	subw	a1, a1, a5
   18eaa: b3 96 b8 00  	sll	a3, a7, a1
   18eae: 33 58 f5 00  	srl	a6, a0, a5
   18eb2: b3 15 b5 00  	sll	a1, a0, a1
   18eb6: b3 e6 06 01  	or	a3, a3, a6
   18eba: b3 35 b0 00  	snez	a1, a1
   18ebe: cd 8e        	or	a3, a3, a1
   18ec0: b3 d7 f8 00  	srl	a5, a7, a5
   18ec4: 36 96        	add	a2, a2, a3
   18ec6: ba 97        	add	a5, a5, a4
   18ec8: b3 36 d6 00  	sltu	a3, a2, a3
   18ecc: 33 87 d7 00  	add	a4, a5, a3
   18ed0: 75 bf        	j	0x18e8c <__subtf3+0x19e>
   18ed2: e3 05 c3 f9  	beq	t1, t3, 0x18e5c <__subtf3+0x16e>
   18ed6: bb 07 d0 40  	negw	a5, a3
   18eda: 85 46        	li	a3, 0x1
   18edc: ce 16        	slli	a3, a3, 0x33
   18ede: b3 e8 d8 00  	or	a7, a7, a3
   18ee2: 4d bf        	j	0x18e94 <__subtf3+0x1a6>
   18ee4: 9b 86 07 fc  	addiw	a3, a5, -0x40
   18ee8: 13 08 00 04  	li	a6, 0x40
   18eec: b3 d6 d8 00  	srl	a3, a7, a3
   18ef0: 81 45        	li	a1, 0x0
   18ef2: 63 87 07 01  	beq	a5, a6, 0x18f00 <__subtf3+0x212>
   18ef6: 93 05 00 08  	li	a1, 0x80
   18efa: 9d 9d        	subw	a1, a1, a5
   18efc: b3 95 b8 00  	sll	a1, a7, a1
   18f00: c9 8d        	or	a1, a1, a0
   18f02: b3 35 b0 00  	snez	a1, a1
   18f06: cd 8e        	or	a3, a3, a1
   18f08: 81 47        	li	a5, 0x0
   18f0a: 6d bf        	j	0x18ec4 <__subtf3+0x1d6>
   18f0c: b3 e6 a8 00  	or	a3, a7, a0
   18f10: b3 36 d0 00  	snez	a3, a3
   18f14: d5 bf        	j	0x18f08 <__subtf3+0x21a>
   18f16: 93 06 18 00  	addi	a3, a6, 0x1
   18f1a: 93 9e 16 03  	slli	t4, a3, 0x31
   18f1e: a1 65        	lui	a1, 0x8
   18f20: 93 de 2e 03  	srli	t4, t4, 0x32
   18f24: f9 15        	addi	a1, a1, -0x2
   18f26: 63 9d 0e 06  	bnez	t4, 0x18fa0 <__subtf3+0x2b2>
   18f2a: b3 e6 a8 00  	or	a3, a7, a0
   18f2e: 63 19 08 02  	bnez	a6, 0x18f60 <__subtf3+0x272>
   18f32: 63 88 06 56  	beqz	a3, 0x194a2 <__subtf3+0x7b4>
   18f36: b3 66 c7 00  	or	a3, a4, a2
   18f3a: 63 88 06 56  	beqz	a3, 0x194aa <__subtf3+0x7bc>
   18f3e: 2a 96        	add	a2, a2, a0
   18f40: 46 97        	add	a4, a4, a7
   18f42: 33 35 a6 00  	sltu	a0, a2, a0
   18f46: b3 08 a7 00  	add	a7, a4, a0
   18f4a: 13 97 c8 00  	slli	a4, a7, 0xc
   18f4e: 63 5b 07 26  	bgez	a4, 0x191c4 <__subtf3+0x4d6>
   18f52: 7d 57        	li	a4, -0x1
   18f54: 4e 17        	slli	a4, a4, 0x33
   18f56: 7d 17        	addi	a4, a4, -0x1
   18f58: 33 f7 e8 00  	and	a4, a7, a4
   18f5c: 85 49        	li	s3, 0x1
   18f5e: 11 bf        	j	0x18e72 <__subtf3+0x184>
   18f60: 63 15 c8 03  	bne	a6, t3, 0x18f8a <__subtf3+0x29c>
   18f64: 63 8b 06 54  	beqz	a3, 0x194ba <__subtf3+0x7cc>
   18f68: 93 d7 28 03  	srli	a5, a7, 0x32
   18f6c: 93 c7 17 00  	xori	a5, a5, 0x1
   18f70: 85 8b        	andi	a5, a5, 0x1
   18f72: 92 07        	slli	a5, a5, 0x4
   18f74: 63 1e 03 01  	bne	t1, a6, 0x18f90 <__subtf3+0x2a2>
   18f78: b3 65 c7 00  	or	a1, a4, a2
   18f7c: 89 c9        	beqz	a1, 0x18f8e <__subtf3+0x2a0>
   18f7e: 93 15 d7 00  	slli	a1, a4, 0xd
   18f82: 63 c6 05 00  	bltz	a1, 0x18f8e <__subtf3+0x2a0>
   18f86: c1 47        	li	a5, 0x10
   18f88: 19 a0        	j	0x18f8e <__subtf3+0x2a0>
   18f8a: e3 07 c3 ff  	beq	t1, t3, 0x18f78 <__subtf3+0x28a>
   18f8e: 91 c6        	beqz	a3, 0x18f9a <__subtf3+0x2ac>
   18f90: 51 8f        	or	a4, a4, a2
   18f92: 63 1e 07 2c  	bnez	a4, 0x1926e <__subtf3+0x580>
   18f96: 46 87        	mv	a4, a7
   18f98: 2a 86        	mv	a2, a0
   18f9a: a1 69        	lui	s3, 0x8
   18f9c: fd 19        	addi	s3, s3, -0x1
   18f9e: d1 bd        	j	0x18e72 <__subtf3+0x184>
   18fa0: 63 8e c6 01  	beq	a3, t3, 0x18fbc <__subtf3+0x2ce>
   18fa4: 2a 96        	add	a2, a2, a0
   18fa6: 33 35 a6 00  	sltu	a0, a2, a0
   18faa: 46 97        	add	a4, a4, a7
   18fac: 2a 97        	add	a4, a4, a0
   18fae: 93 15 f7 03  	slli	a1, a4, 0x3f
   18fb2: 05 82        	srli	a2, a2, 0x1
   18fb4: 4d 8e        	or	a2, a2, a1
   18fb6: 05 83        	srli	a4, a4, 0x1
   18fb8: b6 89        	mv	s3, a3
   18fba: 65 bd        	j	0x18e72 <__subtf3+0x184>
   18fbc: 99 cc        	beqz	s1, 0x18fda <__subtf3+0x2ec>
   18fbe: 8d 47        	li	a5, 0x3
   18fc0: 63 98 f4 00  	bne	s1, a5, 0x18fd0 <__subtf3+0x2e2>
   18fc4: 63 0b 09 00  	beqz	s2, 0x18fda <__subtf3+0x2ec>
   18fc8: 7d 57        	li	a4, -0x1
   18fca: 7d 56        	li	a2, -0x1
   18fcc: ae 89        	mv	s3, a1
   18fce: 15 a8        	j	0x19002 <__subtf3+0x314>
   18fd0: 89 47        	li	a5, 0x2
   18fd2: e3 9b f4 fe  	bne	s1, a5, 0x18fc8 <__subtf3+0x2da>
   18fd6: e3 09 09 fe  	beqz	s2, 0x18fc8 <__subtf3+0x2da>
   18fda: b6 89        	mv	s3, a3
   18fdc: 0d a0        	j	0x18ffe <__subtf3+0x310>
   18fde: 85 c0        	beqz	s1, 0x18ffe <__subtf3+0x310>
   18fe0: 8d 47        	li	a5, 0x3
   18fe2: 63 99 f4 00  	bne	s1, a5, 0x18ff4 <__subtf3+0x306>
   18fe6: 63 0c 09 00  	beqz	s2, 0x18ffe <__subtf3+0x310>
   18fea: a1 69        	lui	s3, 0x8
   18fec: 7d 57        	li	a4, -0x1
   18fee: 7d 56        	li	a2, -0x1
   18ff0: f9 19        	addi	s3, s3, -0x2
   18ff2: 01 a8        	j	0x19002 <__subtf3+0x314>
   18ff4: 89 47        	li	a5, 0x2
   18ff6: e3 9a f4 fe  	bne	s1, a5, 0x18fea <__subtf3+0x2fc>
   18ffa: e3 08 09 fe  	beqz	s2, 0x18fea <__subtf3+0x2fc>
   18ffe: 01 47        	li	a4, 0x0
   19000: 01 46        	li	a2, 0x0
   19002: 95 47        	li	a5, 0x5
   19004: bd b5        	j	0x18e72 <__subtf3+0x184>
   19006: 63 58 f0 0a  	blez	a5, 0x190b6 <__subtf3+0x3c8>
   1900a: 63 17 03 06  	bnez	t1, 0x19078 <__subtf3+0x38a>
   1900e: b3 67 c7 00  	or	a5, a4, a2
   19012: e3 8c 07 d4  	beqz	a5, 0x18d6a <__subtf3+0x7c>
   19016: 9b 87 f6 ff  	addiw	a5, a3, -0x1
   1901a: 8d e3        	bnez	a5, 0x1903c <__subtf3+0x34e>
   1901c: 33 06 c5 40  	sub	a2, a0, a2
   19020: 33 87 e8 40  	sub	a4, a7, a4
   19024: 33 35 c5 00  	sltu	a0, a0, a2
   19028: 09 8f        	sub	a4, a4, a0
   1902a: 93 17 c7 00  	slli	a5, a4, 0xc
   1902e: 63 d1 07 32  	bgez	a5, 0x19350 <__subtf3+0x662>
   19032: 13 14 d7 00  	slli	s0, a4, 0xd
   19036: 35 80        	srli	s0, s0, 0xd
   19038: 32 8a        	mv	s4, a2
   1903a: 9d a4        	j	0x192a0 <__subtf3+0x5b2>
   1903c: e3 0e c8 d7  	beq	a6, t3, 0x18db8 <__subtf3+0xca>
   19040: 93 06 40 07  	li	a3, 0x74
   19044: 63 c4 f6 06  	blt	a3, a5, 0x190ac <__subtf3+0x3be>
   19048: 93 06 f0 03  	li	a3, 0x3f
   1904c: 63 cc f6 02  	blt	a3, a5, 0x19084 <__subtf3+0x396>
   19050: 93 05 00 04  	li	a1, 0x40
   19054: 9d 9d        	subw	a1, a1, a5
   19056: b3 16 b7 00  	sll	a3, a4, a1
   1905a: 33 58 f6 00  	srl	a6, a2, a5
   1905e: b3 15 b6 00  	sll	a1, a2, a1
   19062: b3 e6 06 01  	or	a3, a3, a6
   19066: b3 35 b0 00  	snez	a1, a1
   1906a: cd 8e        	or	a3, a3, a1
   1906c: 33 57 f7 00  	srl	a4, a4, a5
   19070: b3 06 d5 40  	sub	a3, a0, a3
   19074: 36 86        	mv	a2, a3
   19076: 6d b7        	j	0x19020 <__subtf3+0x332>
   19078: e3 00 c8 d5  	beq	a6, t3, 0x18db8 <__subtf3+0xca>
   1907c: 85 46        	li	a3, 0x1
   1907e: ce 16        	slli	a3, a3, 0x33
   19080: 55 8f        	or	a4, a4, a3
   19082: 7d bf        	j	0x19040 <__subtf3+0x352>
   19084: 9b 86 07 fc  	addiw	a3, a5, -0x40
   19088: 13 08 00 04  	li	a6, 0x40
   1908c: b3 56 d7 00  	srl	a3, a4, a3
   19090: 81 45        	li	a1, 0x0
   19092: 63 87 07 01  	beq	a5, a6, 0x190a0 <__subtf3+0x3b2>
   19096: 93 05 00 08  	li	a1, 0x80
   1909a: 9d 9d        	subw	a1, a1, a5
   1909c: b3 15 b7 00  	sll	a1, a4, a1
   190a0: d1 8d        	or	a1, a1, a2
   190a2: b3 35 b0 00  	snez	a1, a1
   190a6: cd 8e        	or	a3, a3, a1
   190a8: 01 47        	li	a4, 0x0
   190aa: d9 b7        	j	0x19070 <__subtf3+0x382>
   190ac: b3 66 c7 00  	or	a3, a4, a2
   190b0: b3 36 d0 00  	snez	a3, a3
   190b4: d5 bf        	j	0x190a8 <__subtf3+0x3ba>
   190b6: f9 cf        	beqz	a5, 0x19194 <__subtf3+0x4a6>
   190b8: 63 19 08 08  	bnez	a6, 0x1914a <__subtf3+0x45c>
   190bc: b3 e7 a8 00  	or	a5, a7, a0
   190c0: 85 e3        	bnez	a5, 0x190e0 <__subtf3+0x3f2>
   190c2: 63 1d c3 3d  	bne	t1, t3, 0x1949c <__subtf3+0x7ae>
   190c6: b3 67 c7 00  	or	a5, a4, a2
   190ca: 63 87 07 3c  	beqz	a5, 0x19498 <__subtf3+0x7aa>
   190ce: 93 57 27 03  	srli	a5, a4, 0x32
   190d2: 93 c7 17 00  	xori	a5, a5, 0x1
   190d6: 85 8b        	andi	a5, a5, 0x1
   190d8: 92 07        	slli	a5, a5, 0x4
   190da: 9a 89        	mv	s3, t1
   190dc: 2e 89        	mv	s2, a1
   190de: 51 bb        	j	0x18e72 <__subtf3+0x184>
   190e0: 93 c7 f6 ff  	not	a5, a3
   190e4: 81 27        	sext.w	a5, a5
   190e6: 81 ef        	bnez	a5, 0x190fe <__subtf3+0x410>
   190e8: 33 05 a6 40  	sub	a0, a2, a0
   190ec: b3 37 a6 00  	sltu	a5, a2, a0
   190f0: 33 07 17 41  	sub	a4, a4, a7
   190f4: 2a 86        	mv	a2, a0
   190f6: 1d 8f        	sub	a4, a4, a5
   190f8: 9a 89        	mv	s3, t1
   190fa: 2e 89        	mv	s2, a1
   190fc: 3d b7        	j	0x1902a <__subtf3+0x33c>
   190fe: e3 04 c3 fd  	beq	t1, t3, 0x190c6 <__subtf3+0x3d8>
   19102: 93 06 40 07  	li	a3, 0x74
   19106: 63 c2 f6 08  	blt	a3, a5, 0x1918a <__subtf3+0x49c>
   1910a: 93 06 f0 03  	li	a3, 0x3f
   1910e: 63 c7 f6 04  	blt	a3, a5, 0x1915c <__subtf3+0x46e>
   19112: 13 08 00 04  	li	a6, 0x40
   19116: 3b 08 f8 40  	subw	a6, a6, a5
   1911a: b3 96 08 01  	sll	a3, a7, a6
   1911e: 33 5e f5 00  	srl	t3, a0, a5
   19122: 33 18 05 01  	sll	a6, a0, a6
   19126: b3 e6 c6 01  	or	a3, a3, t3
   1912a: 33 38 00 01  	snez	a6, a6
   1912e: b3 e6 06 01  	or	a3, a3, a6
   19132: b3 d7 f8 00  	srl	a5, a7, a5
   19136: b3 06 d6 40  	sub	a3, a2, a3
   1913a: 33 35 d6 00  	sltu	a0, a2, a3
   1913e: b3 07 f7 40  	sub	a5, a4, a5
   19142: 36 86        	mv	a2, a3
   19144: 33 87 a7 40  	sub	a4, a5, a0
   19148: 45 bf        	j	0x190f8 <__subtf3+0x40a>
   1914a: e3 0e c3 f7  	beq	t1, t3, 0x190c6 <__subtf3+0x3d8>
   1914e: bb 07 d0 40  	negw	a5, a3
   19152: 85 46        	li	a3, 0x1
   19154: ce 16        	slli	a3, a3, 0x33
   19156: b3 e8 d8 00  	or	a7, a7, a3
   1915a: 65 b7        	j	0x19102 <__subtf3+0x414>
   1915c: 9b 86 07 fc  	addiw	a3, a5, -0x40
   19160: 13 0e 00 04  	li	t3, 0x40
   19164: b3 d6 d8 00  	srl	a3, a7, a3
   19168: 01 48        	li	a6, 0x0
   1916a: 63 88 c7 01  	beq	a5, t3, 0x1917a <__subtf3+0x48c>
   1916e: 13 08 00 08  	li	a6, 0x80
   19172: 3b 08 f8 40  	subw	a6, a6, a5
   19176: 33 98 08 01  	sll	a6, a7, a6
   1917a: 33 68 a8 00  	or	a6, a6, a0
   1917e: 33 38 00 01  	snez	a6, a6
   19182: b3 e6 06 01  	or	a3, a3, a6
   19186: 81 47        	li	a5, 0x0
   19188: 7d b7        	j	0x19136 <__subtf3+0x448>
   1918a: b3 e6 a8 00  	or	a3, a7, a0
   1918e: b3 36 d0 00  	snez	a3, a3
   19192: d5 bf        	j	0x19186 <__subtf3+0x498>
   19194: 93 06 18 00  	addi	a3, a6, 0x1
   19198: 93 9e 16 03  	slli	t4, a3, 0x31
   1919c: 93 de 2e 03  	srli	t4, t4, 0x32
   191a0: 63 9c 0e 0c  	bnez	t4, 0x19278 <__subtf3+0x58a>
   191a4: b3 66 c7 00  	or	a3, a4, a2
   191a8: b3 ee a8 00  	or	t4, a7, a0
   191ac: 63 17 08 06  	bnez	a6, 0x1921a <__subtf3+0x52c>
   191b0: 63 92 0e 02  	bnez	t4, 0x191d4 <__subtf3+0x4e6>
   191b4: 63 99 06 2e  	bnez	a3, 0x194a6 <__subtf3+0x7b8>
   191b8: 13 89 e4 ff  	addi	s2, s1, -0x2
   191bc: 13 39 19 00  	seqz	s2, s2
   191c0: 81 48        	li	a7, 0x0
   191c2: 01 46        	li	a2, 0x0
   191c4: 33 e5 c8 00  	or	a0, a7, a2
   191c8: 63 16 05 18  	bnez	a0, 0x19354 <__subtf3+0x666>
   191cc: 81 48        	li	a7, 0x0
   191ce: 81 49        	li	s3, 0x0
   191d0: 81 47        	li	a5, 0x0
   191d2: 0d a4        	j	0x193f4 <__subtf3+0x706>
   191d4: 63 8b 06 2c  	beqz	a3, 0x194aa <__subtf3+0x7bc>
   191d8: b3 06 c5 40  	sub	a3, a0, a2
   191dc: 33 38 d5 00  	sltu	a6, a0, a3
   191e0: b3 87 e8 40  	sub	a5, a7, a4
   191e4: b3 87 07 41  	sub	a5, a5, a6
   191e8: 13 98 c7 00  	slli	a6, a5, 0xc
   191ec: 63 5d 08 00  	bgez	a6, 0x19206 <__subtf3+0x518>
   191f0: 33 05 a6 40  	sub	a0, a2, a0
   191f4: b3 37 a6 00  	sltu	a5, a2, a0
   191f8: 33 07 17 41  	sub	a4, a4, a7
   191fc: 2a 86        	mv	a2, a0
   191fe: b3 08 f7 40  	sub	a7, a4, a5
   19202: 2e 89        	mv	s2, a1
   19204: c1 b7        	j	0x191c4 <__subtf3+0x4d6>
   19206: 33 e6 f6 00  	or	a2, a3, a5
   1920a: 63 12 06 2a  	bnez	a2, 0x194ae <__subtf3+0x7c0>
   1920e: 13 89 e4 ff  	addi	s2, s1, -0x2
   19212: 13 39 19 00  	seqz	s2, s2
   19216: 81 48        	li	a7, 0x0
   19218: 75 b7        	j	0x191c4 <__subtf3+0x4d6>
   1921a: 63 19 c8 03  	bne	a6, t3, 0x1924c <__subtf3+0x55e>
   1921e: 63 8b 0e 28  	beqz	t4, 0x194b4 <__subtf3+0x7c6>
   19222: 93 d7 28 03  	srli	a5, a7, 0x32
   19226: 93 c7 17 00  	xori	a5, a5, 0x1
   1922a: 85 8b        	andi	a5, a5, 0x1
   1922c: 92 07        	slli	a5, a5, 0x4
   1922e: 63 1e 03 03  	bne	t1, a6, 0x1926a <__subtf3+0x57c>
   19232: 99 ce        	beqz	a3, 0x19250 <__subtf3+0x562>
   19234: 05 48        	li	a6, 0x1
   19236: 13 13 d7 00  	slli	t1, a4, 0xd
   1923a: 4a 18        	slli	a6, a6, 0x32
   1923c: 63 4a 03 00  	bltz	t1, 0x19250 <__subtf3+0x562>
   19240: 2e 89        	mv	s2, a1
   19242: 63 80 0e 02  	beqz	t4, 0x19262 <__subtf3+0x574>
   19246: 01 49        	li	s2, 0x0
   19248: 42 87        	mv	a4, a6
   1924a: 19 a8        	j	0x19260 <__subtf3+0x572>
   1924c: e3 03 c3 ff  	beq	t1, t3, 0x19232 <__subtf3+0x544>
   19250: 63 9d 0e 00  	bnez	t4, 0x1926a <__subtf3+0x57c>
   19254: 2e 89        	mv	s2, a1
   19256: e3 92 06 d4  	bnez	a3, 0x18f9a <__subtf3+0x2ac>
   1925a: 05 47        	li	a4, 0x1
   1925c: 01 49        	li	s2, 0x0
   1925e: 4a 17        	slli	a4, a4, 0x32
   19260: 01 46        	li	a2, 0x0
   19262: a1 69        	lui	s3, 0x8
   19264: fd 19        	addi	s3, s3, -0x1
   19266: c1 47        	li	a5, 0x10
   19268: 29 b1        	j	0x18e72 <__subtf3+0x184>
   1926a: e3 86 06 d2  	beqz	a3, 0x18f96 <__subtf3+0x2a8>
   1926e: 05 47        	li	a4, 0x1
   19270: 01 49        	li	s2, 0x0
   19272: 4a 17        	slli	a4, a4, 0x32
   19274: 01 46        	li	a2, 0x0
   19276: 15 b3        	j	0x18f9a <__subtf3+0x2ac>
   19278: b3 07 c5 40  	sub	a5, a0, a2
   1927c: b3 36 f5 00  	sltu	a3, a0, a5
   19280: 33 84 e8 40  	sub	s0, a7, a4
   19284: 15 8c        	sub	s0, s0, a3
   19286: 93 16 c4 00  	slli	a3, s0, 0xc
   1928a: 3e 8a        	mv	s4, a5
   1928c: 63 d5 06 06  	bgez	a3, 0x192f6 <__subtf3+0x608>
   19290: 33 0a a6 40  	sub	s4, a2, a0
   19294: 33 04 17 41  	sub	s0, a4, a7
   19298: 33 36 46 01  	sltu	a2, a2, s4
   1929c: 11 8c        	sub	s0, s0, a2
   1929e: 2e 89        	mv	s2, a1
   192a0: 39 cc        	beqz	s0, 0x192fe <__subtf3+0x610>
   192a2: 22 85        	mv	a0, s0
   192a4: ef 00 20 4b  	jal	0x19756 <__clzdi2>
   192a8: 1b 06 45 ff  	addiw	a2, a0, -0xc
   192ac: 13 07 00 04  	li	a4, 0x40
   192b0: 11 9f        	subw	a4, a4, a2
   192b2: 33 14 c4 00  	sll	s0, s0, a2
   192b6: 33 57 ea 00  	srl	a4, s4, a4
   192ba: 41 8f        	or	a4, a4, s0
   192bc: 33 14 ca 00  	sll	s0, s4, a2
   192c0: 63 41 36 09  	blt	a2, s3, 0x19342 <__subtf3+0x654>
   192c4: 3b 06 36 41  	subw	a2, a2, s3
   192c8: 9b 08 16 00  	addiw	a7, a2, 0x1
   192cc: 93 07 f0 03  	li	a5, 0x3f
   192d0: 63 c5 17 05  	blt	a5, a7, 0x1931a <__subtf3+0x62c>
   192d4: 93 07 00 04  	li	a5, 0x40
   192d8: bb 87 17 41  	subw	a5, a5, a7
   192dc: 33 16 f7 00  	sll	a2, a4, a5
   192e0: b3 56 14 01  	srl	a3, s0, a7
   192e4: b3 17 f4 00  	sll	a5, s0, a5
   192e8: 55 8e        	or	a2, a2, a3
   192ea: b3 37 f0 00  	snez	a5, a5
   192ee: 5d 8e        	or	a2, a2, a5
   192f0: b3 58 17 01  	srl	a7, a4, a7
   192f4: c1 bd        	j	0x191c4 <__subtf3+0x4d6>
   192f6: 33 e6 87 00  	or	a2, a5, s0
   192fa: 5d f2        	bnez	a2, 0x192a0 <__subtf3+0x5b2>
   192fc: 09 bf        	j	0x1920e <__subtf3+0x520>
   192fe: 52 85        	mv	a0, s4
   19300: ef 00 60 45  	jal	0x19756 <__clzdi2>
   19304: 1b 06 45 03  	addiw	a2, a0, 0x34
   19308: 93 07 f0 03  	li	a5, 0x3f
   1930c: e3 d0 c7 fa  	bge	a5, a2, 0x192ac <__subtf3+0x5be>
   19310: 1b 07 45 ff  	addiw	a4, a0, -0xc
   19314: 33 17 ea 00  	sll	a4, s4, a4
   19318: 65 b7        	j	0x192c0 <__subtf3+0x5d2>
   1931a: 1b 06 16 fc  	addiw	a2, a2, -0x3f
   1931e: 93 05 00 04  	li	a1, 0x40
   19322: 33 56 c7 00  	srl	a2, a4, a2
   19326: 81 47        	li	a5, 0x0
   19328: 63 88 b8 00  	beq	a7, a1, 0x19338 <__subtf3+0x64a>
   1932c: 93 07 00 08  	li	a5, 0x80
   19330: bb 87 17 41  	subw	a5, a5, a7
   19334: b3 17 f7 00  	sll	a5, a4, a5
   19338: c1 8f        	or	a5, a5, s0
   1933a: b3 37 f0 00  	snez	a5, a5
   1933e: 5d 8e        	or	a2, a2, a5
   19340: d9 bd        	j	0x19216 <__subtf3+0x528>
   19342: fd 57        	li	a5, -0x1
   19344: ce 17        	slli	a5, a5, 0x33
   19346: fd 17        	addi	a5, a5, -0x1
   19348: b3 89 c9 40  	sub	s3, s3, a2
   1934c: 7d 8f        	and	a4, a4, a5
   1934e: 22 86        	mv	a2, s0
   19350: 81 47        	li	a5, 0x0
   19352: 05 b6        	j	0x18e72 <__subtf3+0x184>
   19354: 93 16 16 00  	slli	a3, a2, 0x1
   19358: 93 57 f6 03  	srli	a5, a2, 0x3f
   1935c: 13 97 18 00  	slli	a4, a7, 0x1
   19360: 93 f5 76 00  	andi	a1, a3, 0x7
   19364: 3e 97        	add	a4, a4, a5
   19366: 81 47        	li	a5, 0x0
   19368: 85 c1        	beqz	a1, 0x19388 <__subtf3+0x69a>
   1936a: 89 47        	li	a5, 0x2
   1936c: 63 84 f4 06  	beq	s1, a5, 0x193d4 <__subtf3+0x6e6>
   19370: 8d 47        	li	a5, 0x3
   19372: 63 88 f4 04  	beq	s1, a5, 0x193c2 <__subtf3+0x6d4>
   19376: 85 47        	li	a5, 0x1
   19378: 81 e8        	bnez	s1, 0x19388 <__subtf3+0x69a>
   1937a: 93 f5 f6 00  	andi	a1, a3, 0xf
   1937e: 11 45        	li	a0, 0x4
   19380: 93 b6 c6 ff  	sltiu	a3, a3, -0x4
   19384: 63 94 a5 04  	bne	a1, a0, 0x193cc <__subtf3+0x6de>
   19388: 51 93        	srli	a4, a4, 0x34
   1938a: 13 47 17 00  	xori	a4, a4, 0x1
   1938e: 05 8b        	andi	a4, a4, 0x1
   19390: 32 85        	mv	a0, a2
   19392: 81 49        	li	s3, 0x0
   19394: 93 76 76 00  	andi	a3, a2, 0x7
   19398: a9 ca        	beqz	a3, 0x193ea <__subtf3+0x6fc>
   1939a: 89 46        	li	a3, 0x2
   1939c: 93 e7 17 00  	ori	a5, a5, 0x1
   193a0: 63 83 d4 04  	beq	s1, a3, 0x193e6 <__subtf3+0x6f8>
   193a4: 8d 46        	li	a3, 0x3
   193a6: 63 8b d4 02  	beq	s1, a3, 0x193dc <__subtf3+0x6ee>
   193aa: a1 e0        	bnez	s1, 0x193ea <__subtf3+0x6fc>
   193ac: 93 76 f6 00  	andi	a3, a2, 0xf
   193b0: 91 45        	li	a1, 0x4
   193b2: 63 8c b6 02  	beq	a3, a1, 0x193ea <__subtf3+0x6fc>
   193b6: 13 05 46 00  	addi	a0, a2, 0x4
   193ba: 33 36 c5 00  	sltu	a2, a0, a2
   193be: b2 98        	add	a7, a7, a2
   193c0: 2d a0        	j	0x193ea <__subtf3+0x6fc>
   193c2: 85 47        	li	a5, 0x1
   193c4: e3 12 09 fc  	bnez	s2, 0x19388 <__subtf3+0x69a>
   193c8: 93 b6 86 ff  	sltiu	a3, a3, -0x8
   193cc: 93 c6 16 00  	xori	a3, a3, 0x1
   193d0: 36 97        	add	a4, a4, a3
   193d2: 5d bf        	j	0x19388 <__subtf3+0x69a>
   193d4: 85 47        	li	a5, 0x1
   193d6: e3 09 09 fa  	beqz	s2, 0x19388 <__subtf3+0x69a>
   193da: fd b7        	j	0x193c8 <__subtf3+0x6da>
   193dc: 63 17 09 00  	bnez	s2, 0x193ea <__subtf3+0x6fc>
   193e0: 13 05 86 00  	addi	a0, a2, 0x8
   193e4: d9 bf        	j	0x193ba <__subtf3+0x6cc>
   193e6: e3 1d 09 fe  	bnez	s2, 0x193e0 <__subtf3+0x6f2>
   193ea: 09 c7        	beqz	a4, 0x193f4 <__subtf3+0x706>
   193ec: 13 f7 17 00  	andi	a4, a5, 0x1
   193f0: 06 07        	slli	a4, a4, 0x1
   193f2: d9 8f        	or	a5, a5, a4
   193f4: 13 97 c8 00  	slli	a4, a7, 0xc
   193f8: 63 5c 07 00  	bgez	a4, 0x19410 <__subtf3+0x722>
   193fc: 21 67        	lui	a4, 0x8
   193fe: 85 09        	addi	s3, s3, 0x1
   19400: 7d 17        	addi	a4, a4, -0x1
   19402: 63 81 e9 06  	beq	s3, a4, 0x19464 <__subtf3+0x776>
   19406: 7d 57        	li	a4, -0x1
   19408: 4e 17        	slli	a4, a4, 0x33
   1940a: 7d 17        	addi	a4, a4, -0x1
   1940c: b3 f8 e8 00  	and	a7, a7, a4
   19410: 13 97 d8 03  	slli	a4, a7, 0x3d
   19414: 0d 81        	srli	a0, a0, 0x3
   19416: 59 8d        	or	a0, a0, a4
   19418: 21 67        	lui	a4, 0x8
   1941a: 7d 17        	addi	a4, a4, -0x1
   1941c: 93 d8 38 00  	srli	a7, a7, 0x3
   19420: 63 9a e9 00  	bne	s3, a4, 0x19434 <__subtf3+0x746>
   19424: 33 65 15 01  	or	a0, a0, a7
   19428: 81 48        	li	a7, 0x0
   1942a: 09 c5        	beqz	a0, 0x19434 <__subtf3+0x746>
   1942c: 85 48        	li	a7, 0x1
   1942e: be 18        	slli	a7, a7, 0x2f
   19430: 01 45        	li	a0, 0x0
   19432: 01 49        	li	s2, 0x0
   19434: c6 19        	slli	s3, s3, 0x31
   19436: 1b 19 f9 00  	slliw	s2, s2, 0xf
   1943a: 93 d9 19 03  	srli	s3, s3, 0x31
   1943e: 93 95 08 01  	slli	a1, a7, 0x10
   19442: b3 e9 29 01  	or	s3, s3, s2
   19446: c2 19        	slli	s3, s3, 0x30
   19448: c1 81        	srli	a1, a1, 0x10
   1944a: b3 e5 35 01  	or	a1, a1, s3
   1944e: 99 c3        	beqz	a5, 0x19454 <__subtf3+0x766>
   19450: 73 a0 17 00  	csrs	fflags, a5
   19454: a2 70        	ld	ra, 0x28(sp)
   19456: 02 74        	ld	s0, 0x20(sp)
   19458: e2 64        	ld	s1, 0x18(sp)
   1945a: 42 69        	ld	s2, 0x10(sp)
   1945c: a2 69        	ld	s3, 0x8(sp)
   1945e: 02 6a        	ld	s4, 0x0(sp)
   19460: 45 61        	addi	sp, sp, 0x30
   19462: 82 80        	ret
   19464: 01 45        	li	a0, 0x0
   19466: 99 cc        	beqz	s1, 0x19484 <__subtf3+0x796>
   19468: 0d 47        	li	a4, 0x3
   1946a: 63 98 e4 00  	bne	s1, a4, 0x1947a <__subtf3+0x78c>
   1946e: 63 0b 09 00  	beqz	s2, 0x19484 <__subtf3+0x796>
   19472: a1 69        	lui	s3, 0x8
   19474: 7d 55        	li	a0, -0x1
   19476: f9 19        	addi	s3, s3, -0x2
   19478: 31 a0        	j	0x19484 <__subtf3+0x796>
   1947a: 09 47        	li	a4, 0x2
   1947c: e3 9b e4 fe  	bne	s1, a4, 0x19472 <__subtf3+0x784>
   19480: e3 09 09 fe  	beqz	s2, 0x19472 <__subtf3+0x784>
   19484: 93 e7 57 00  	ori	a5, a5, 0x5
   19488: aa 88        	mv	a7, a0
   1948a: 59 b7        	j	0x19410 <__subtf3+0x722>
   1948c: 01 47        	li	a4, 0x0
   1948e: 01 46        	li	a2, 0x0
   19490: 9a 89        	mv	s3, t1
   19492: 7d bd        	j	0x19350 <__subtf3+0x662>
   19494: 01 47        	li	a4, 0x0
   19496: 6d bd        	j	0x19350 <__subtf3+0x662>
   19498: 01 47        	li	a4, 0x0
   1949a: 01 46        	li	a2, 0x0
   1949c: 9a 89        	mv	s3, t1
   1949e: 2e 89        	mv	s2, a1
   194a0: 45 bd        	j	0x19350 <__subtf3+0x662>
   194a2: ba 88        	mv	a7, a4
   194a4: 05 b3        	j	0x191c4 <__subtf3+0x4d6>
   194a6: ba 88        	mv	a7, a4
   194a8: a9 bb        	j	0x19202 <__subtf3+0x514>
   194aa: 2a 86        	mv	a2, a0
   194ac: 21 bb        	j	0x191c4 <__subtf3+0x4d6>
   194ae: be 88        	mv	a7, a5
   194b0: 36 86        	mv	a2, a3
   194b2: 09 bb        	j	0x191c4 <__subtf3+0x4d6>
   194b4: e3 10 03 db  	bne	t1, a6, 0x19254 <__subtf3+0x566>
   194b8: ad bb        	j	0x19232 <__subtf3+0x544>
   194ba: e3 1c 03 9b  	bne	t1, a6, 0x18e72 <__subtf3+0x184>
   194be: 6d bc        	j	0x18f78 <__subtf3+0x28a>

00000000000194c0 <__unordtf2>:
   194c0: 2a 87        	mv	a4, a0
   194c2: f3 27 20 00  	frrm	a5
   194c6: 7d 55        	li	a0, -0x1
   194c8: 93 57 05 01  	srli	a5, a0, 0x10
   194cc: 21 68        	lui	a6, 0x8
   194ce: b3 f8 f5 00  	and	a7, a1, a5
   194d2: 7d 18        	addi	a6, a6, -0x1
   194d4: c1 91        	srli	a1, a1, 0x30
   194d6: f5 8f        	and	a5, a5, a3
   194d8: b3 f5 05 01  	and	a1, a1, a6
   194dc: c1 92        	srli	a3, a3, 0x30
   194de: b3 f6 06 01  	and	a3, a3, a6
   194e2: 63 96 05 01  	bne	a1, a6, 0x194ee <__unordtf2+0x2e>
   194e6: 33 63 17 01  	or	t1, a4, a7
   194ea: 63 13 03 02  	bnez	t1, 0x19510 <__unordtf2+0x50>
   194ee: 01 45        	li	a0, 0x0
   194f0: 63 92 06 05  	bne	a3, a6, 0x19534 <__unordtf2+0x74>
   194f4: 33 68 f6 00  	or	a6, a2, a5
   194f8: 63 0e 08 02  	beqz	a6, 0x19534 <__unordtf2+0x74>
   194fc: 63 93 d5 02  	bne	a1, a3, 0x19522 <__unordtf2+0x62>
   19500: 33 67 17 01  	or	a4, a4, a7
   19504: 01 cf        	beqz	a4, 0x1951c <__unordtf2+0x5c>
   19506: 7d 57        	li	a4, -0x1
   19508: 45 83        	srli	a4, a4, 0x11
   1950a: 63 71 17 03  	bgeu	a4, a7, 0x1952c <__unordtf2+0x6c>
   1950e: 39 a0        	j	0x1951c <__unordtf2+0x5c>
   19510: 45 81        	srli	a0, a0, 0x11
   19512: 63 7d 15 01  	bgeu	a0, a7, 0x1952c <__unordtf2+0x6c>
   19516: 05 45        	li	a0, 0x1
   19518: 63 9e b6 00  	bne	a3, a1, 0x19534 <__unordtf2+0x74>
   1951c: 5d 8e        	or	a2, a2, a5
   1951e: 05 45        	li	a0, 0x1
   19520: 11 ca        	beqz	a2, 0x19534 <__unordtf2+0x74>
   19522: 7d 57        	li	a4, -0x1
   19524: 45 83        	srli	a4, a4, 0x11
   19526: 05 45        	li	a0, 0x1
   19528: 63 66 f7 00  	bltu	a4, a5, 0x19534 <__unordtf2+0x74>
   1952c: 73 60 18 00  	csrsi	fflags, 0x10
   19530: 05 45        	li	a0, 0x1
   19532: 82 80        	ret
   19534: 82 80        	ret

0000000000019536 <__fixtfsi>:
   19536: f3 27 20 00  	frrm	a5
   1953a: 11 67        	lui	a4, 0x4
   1953c: 93 96 15 00  	slli	a3, a1, 0x1
   19540: 93 97 05 01  	slli	a5, a1, 0x10
   19544: c5 92        	srli	a3, a3, 0x31
   19546: 79 17        	addi	a4, a4, -0x2
   19548: c1 83        	srli	a5, a5, 0x10
   1954a: fd 91        	srli	a1, a1, 0x3f
   1954c: 63 47 d7 00  	blt	a4, a3, 0x1955a <__fixtfsi+0x24>
   19550: b1 ee        	bnez	a3, 0x195ac <__fixtfsi+0x76>
   19552: c9 8f        	or	a5, a5, a0
   19554: 01 45        	li	a0, 0x0
   19556: a9 eb        	bnez	a5, 0x195a8 <__fixtfsi+0x72>
   19558: 82 80        	ret
   1955a: 11 67        	lui	a4, 0x4
   1955c: 75 07        	addi	a4, a4, 0x1d
   1955e: 63 50 d7 02  	bge	a4, a3, 0x1957e <__fixtfsi+0x48>
   19562: b9 c5        	beqz	a1, 0x195b0 <__fixtfsi+0x7a>
   19564: 11 67        	lui	a4, 0x4
   19566: 79 07        	addi	a4, a4, 0x1e
   19568: 63 9c e6 04  	bne	a3, a4, 0x195c0 <__fixtfsi+0x8a>
   1956c: 13 d7 17 01  	srli	a4, a5, 0x11
   19570: 21 eb        	bnez	a4, 0x195c0 <__fixtfsi+0x8a>
   19572: be 17        	slli	a5, a5, 0x2f
   19574: 5d 8d        	or	a0, a0, a5
   19576: 21 e9        	bnez	a0, 0x195c6 <__fixtfsi+0x90>
   19578: 37 05 00 80  	lui	a0, 0x80000
   1957c: 82 80        	ret
   1957e: 05 47        	li	a4, 0x1
   19580: 42 17        	slli	a4, a4, 0x30
   19582: d9 8f        	or	a5, a5, a4
   19584: 11 66        	lui	a2, 0x4
   19586: 71 77        	lui	a4, 0xffffc
   19588: 45 27        	addiw	a4, a4, 0x11
   1958a: 1b 06 f6 02  	addiw	a2, a2, 0x2f
   1958e: 35 9f        	addw	a4, a4, a3
   19590: 15 9e        	subw	a2, a2, a3
   19592: 33 97 e7 00  	sll	a4, a5, a4
   19596: b3 d7 c7 00  	srl	a5, a5, a2
   1959a: 49 8f        	or	a4, a4, a0
   1959c: 1b 85 07 00  	sext.w	a0, a5
   195a0: 99 c1        	beqz	a1, 0x195a6 <__fixtfsi+0x70>
   195a2: 3b 05 a0 40  	negw	a0, a0
   195a6: 01 cf        	beqz	a4, 0x195be <__fixtfsi+0x88>
   195a8: 85 47        	li	a5, 0x1
   195aa: 01 a8        	j	0x195ba <__fixtfsi+0x84>
   195ac: 01 45        	li	a0, 0x0
   195ae: ed bf        	j	0x195a8 <__fixtfsi+0x72>
   195b0: 37 05 00 80  	lui	a0, 0x80000
   195b4: 13 45 f5 ff  	not	a0, a0
   195b8: c1 47        	li	a5, 0x10
   195ba: 73 a0 17 00  	csrs	fflags, a5
   195be: 82 80        	ret
   195c0: 37 05 00 80  	lui	a0, 0x80000
   195c4: d5 bf        	j	0x195b8 <__fixtfsi+0x82>
   195c6: 37 05 00 80  	lui	a0, 0x80000
   195ca: f9 bf        	j	0x195a8 <__fixtfsi+0x72>

00000000000195cc <__floatsitf>:
   195cc: 01 11        	addi	sp, sp, -0x20
   195ce: 06 ec        	sd	ra, 0x18(sp)
   195d0: 22 e8        	sd	s0, 0x10(sp)
   195d2: 26 e4        	sd	s1, 0x8(sp)
   195d4: 39 c1        	beqz	a0, 0x1961a <__floatsitf+0x4e>
   195d6: 9b 07 05 00  	sext.w	a5, a0
   195da: 93 54 f5 03  	srli	s1, a0, 0x3f
   195de: 63 54 05 00  	bgez	a0, 0x195e6 <__floatsitf+0x1a>
   195e2: bb 07 f0 40  	negw	a5, a5
   195e6: 13 94 07 02  	slli	s0, a5, 0x20
   195ea: 01 90        	srli	s0, s0, 0x20
   195ec: 22 85        	mv	a0, s0
   195ee: ef 00 80 16  	jal	0x19756 <__clzdi2>
   195f2: 91 65        	lui	a1, 0x4
   195f4: 9b 85 e5 03  	addiw	a1, a1, 0x3e
   195f8: 89 9d        	subw	a1, a1, a0
   195fa: 45 35        	addiw	a0, a0, -0xf
   195fc: b3 17 a4 00  	sll	a5, s0, a0
   19600: e2 60        	ld	ra, 0x18(sp)
   19602: 42 64        	ld	s0, 0x10(sp)
   19604: 9b 94 f4 00  	slliw	s1, s1, 0xf
   19608: c5 8d        	or	a1, a1, s1
   1960a: c2 07        	slli	a5, a5, 0x10
   1960c: c2 15        	slli	a1, a1, 0x30
   1960e: c1 83        	srli	a5, a5, 0x10
   19610: a2 64        	ld	s1, 0x8(sp)
   19612: 01 45        	li	a0, 0x0
   19614: dd 8d        	or	a1, a1, a5
   19616: 05 61        	addi	sp, sp, 0x20
   19618: 82 80        	ret
   1961a: 81 47        	li	a5, 0x0
   1961c: 81 45        	li	a1, 0x0
   1961e: 81 44        	li	s1, 0x0
   19620: c5 b7        	j	0x19600 <__floatsitf+0x34>

0000000000019622 <__extenddftf2>:
   19622: 01 11        	addi	sp, sp, -0x20
   19624: d3 07 05 e2  	fmv.x.d	a5, fa0
   19628: 06 ec        	sd	ra, 0x18(sp)
   1962a: 22 e8        	sd	s0, 0x10(sp)
   1962c: 26 e4        	sd	s1, 0x8(sp)
   1962e: 73 27 20 00  	frrm	a4
   19632: 13 d5 47 03  	srli	a0, a5, 0x34
   19636: 13 75 f5 7f  	andi	a0, a0, 0x7ff
   1963a: 13 94 c7 00  	slli	s0, a5, 0xc
   1963e: 93 d4 f7 03  	srli	s1, a5, 0x3f
   19642: 93 07 15 00  	addi	a5, a0, 0x1
   19646: 93 f7 e7 7f  	andi	a5, a5, 0x7fe
   1964a: 31 80        	srli	s0, s0, 0xc
   1964c: 91 cb        	beqz	a5, 0x19660 <__extenddftf2+0x3e>
   1964e: 91 67        	lui	a5, 0x4
   19650: 93 87 07 c0  	addi	a5, a5, -0x400
   19654: 93 55 44 00  	srli	a1, s0, 0x4
   19658: 3e 95        	add	a0, a0, a5
   1965a: 72 14        	slli	s0, s0, 0x3c
   1965c: 81 47        	li	a5, 0x0
   1965e: b1 a8        	j	0x196ba <__extenddftf2+0x98>
   19660: 1d ed        	bnez	a0, 0x1969e <__extenddftf2+0x7c>
   19662: 81 45        	li	a1, 0x0
   19664: 65 dc        	beqz	s0, 0x1965c <__extenddftf2+0x3a>
   19666: 22 85        	mv	a0, s0
   19668: ef 00 e0 0e  	jal	0x19756 <__clzdi2>
   1966c: 1b 07 05 00  	sext.w	a4, a0
   19670: b9 47        	li	a5, 0xe
   19672: 63 c0 e7 02  	blt	a5, a4, 0x19692 <__extenddftf2+0x70>
   19676: bd 45        	li	a1, 0xf
   19678: 89 9d        	subw	a1, a1, a0
   1967a: 9b 07 15 03  	addiw	a5, a0, 0x31
   1967e: b3 55 b4 00  	srl	a1, s0, a1
   19682: 33 14 f4 00  	sll	s0, s0, a5
   19686: 91 67        	lui	a5, 0x4
   19688: 9b 87 c7 c0  	addiw	a5, a5, -0x3f4
   1968c: 3b 85 a7 40  	subw	a0, a5, a0
   19690: f1 b7        	j	0x1965c <__extenddftf2+0x3a>
   19692: 9b 05 15 ff  	addiw	a1, a0, -0xf
   19696: b3 15 b4 00  	sll	a1, s0, a1
   1969a: 01 44        	li	s0, 0x0
   1969c: ed b7        	j	0x19686 <__extenddftf2+0x64>
   1969e: 15 cc        	beqz	s0, 0x196da <__extenddftf2+0xb8>
   196a0: 85 47        	li	a5, 0x1
   196a2: ce 17        	slli	a5, a5, 0x33
   196a4: 05 47        	li	a4, 0x1
   196a6: b3 37 f4 00  	sltu	a5, s0, a5
   196aa: 93 55 44 00  	srli	a1, s0, 0x4
   196ae: 3e 17        	slli	a4, a4, 0x2f
   196b0: 21 65        	lui	a0, 0x8
   196b2: 92 07        	slli	a5, a5, 0x4
   196b4: 72 14        	slli	s0, s0, 0x3c
   196b6: d9 8d        	or	a1, a1, a4
   196b8: 7d 15        	addi	a0, a0, -0x1
   196ba: 9b 94 f4 00  	slliw	s1, s1, 0xf
   196be: c2 05        	slli	a1, a1, 0x10
   196c0: 45 8d        	or	a0, a0, s1
   196c2: 42 15        	slli	a0, a0, 0x30
   196c4: c1 81        	srli	a1, a1, 0x10
   196c6: c9 8d        	or	a1, a1, a0
   196c8: 99 c3        	beqz	a5, 0x196ce <__extenddftf2+0xac>
   196ca: 73 60 18 00  	csrsi	fflags, 0x10
   196ce: e2 60        	ld	ra, 0x18(sp)
   196d0: 22 85        	mv	a0, s0
   196d2: 42 64        	ld	s0, 0x10(sp)
   196d4: a2 64        	ld	s1, 0x8(sp)
   196d6: 05 61        	addi	sp, sp, 0x20
   196d8: 82 80        	ret
   196da: 21 65        	lui	a0, 0x8
   196dc: 81 45        	li	a1, 0x0
   196de: 7d 15        	addi	a0, a0, -0x1
   196e0: b5 bf        	j	0x1965c <__extenddftf2+0x3a>

00000000000196e2 <__riscv_save_12>:
   196e2: 59 71        	addi	sp, sp, -0x70
   196e4: 01 43        	li	t1, 0x0
   196e6: 6e e4        	sd	s11, 0x8(sp)
   196e8: 19 a0        	j	0x196ee <__riscv_save_11+0x4>

00000000000196ea <__riscv_save_11>:
   196ea: 59 71        	addi	sp, sp, -0x70
   196ec: 05 43        	li	t1, 0x1
   196ee: 6a e8        	sd	s10, 0x10(sp)
   196f0: 66 ec        	sd	s9, 0x18(sp)
   196f2: 19 a0        	j	0x196f8 <__riscv_save_9+0x4>

00000000000196f4 <__riscv_save_9>:
   196f4: 59 71        	addi	sp, sp, -0x70
   196f6: 09 43        	li	t1, 0x2
   196f8: 62 f0        	sd	s8, 0x20(sp)
   196fa: 5e f4        	sd	s7, 0x28(sp)
   196fc: 19 a0        	j	0x19702 <__riscv_save_7+0x4>

00000000000196fe <__riscv_save_7>:
   196fe: 59 71        	addi	sp, sp, -0x70
   19700: 0d 43        	li	t1, 0x3
   19702: 5a f8        	sd	s6, 0x30(sp)
   19704: 56 fc        	sd	s5, 0x38(sp)
   19706: 19 a0        	j	0x1970c <__riscv_save_5+0x4>

0000000000019708 <__riscv_save_5>:
   19708: 59 71        	addi	sp, sp, -0x70
   1970a: 11 43        	li	t1, 0x4
   1970c: d2 e0        	sd	s4, 0x40(sp)
   1970e: ce e4        	sd	s3, 0x48(sp)
   19710: 19 a0        	j	0x19716 <__riscv_save_3+0x4>

0000000000019712 <__riscv_save_3>:
   19712: 59 71        	addi	sp, sp, -0x70
   19714: 15 43        	li	t1, 0x5
   19716: ca e8        	sd	s2, 0x50(sp)
   19718: a6 ec        	sd	s1, 0x58(sp)
   1971a: a2 f0        	sd	s0, 0x60(sp)
   1971c: 86 f4        	sd	ra, 0x68(sp)
   1971e: 12 03        	slli	t1, t1, 0x4
   19720: 1a 91        	add	sp, sp, t1
   19722: 82 82        	jr	t0

0000000000019724 <__riscv_save_1>:
   19724: 41 11        	addi	sp, sp, -0x10
   19726: 22 e0        	sd	s0, 0x0(sp)
   19728: 06 e4        	sd	ra, 0x8(sp)
   1972a: 82 82        	jr	t0

000000000001972c <__riscv_restore_12>:
   1972c: a2 6d        	ld	s11, 0x8(sp)
   1972e: 41 01        	addi	sp, sp, 0x10

0000000000019730 <__riscv_restore_11>:
   19730: 02 6d        	ld	s10, 0x0(sp)
   19732: a2 6c        	ld	s9, 0x8(sp)
   19734: 41 01        	addi	sp, sp, 0x10

0000000000019736 <__riscv_restore_9>:
   19736: 02 6c        	ld	s8, 0x0(sp)
   19738: a2 6b        	ld	s7, 0x8(sp)
   1973a: 41 01        	addi	sp, sp, 0x10

000000000001973c <__riscv_restore_7>:
   1973c: 02 6b        	ld	s6, 0x0(sp)
   1973e: a2 6a        	ld	s5, 0x8(sp)
   19740: 41 01        	addi	sp, sp, 0x10

0000000000019742 <__riscv_restore_5>:
   19742: 02 6a        	ld	s4, 0x0(sp)
   19744: a2 69        	ld	s3, 0x8(sp)
   19746: 41 01        	addi	sp, sp, 0x10

0000000000019748 <__riscv_restore_3>:
   19748: 02 69        	ld	s2, 0x0(sp)
   1974a: a2 64        	ld	s1, 0x8(sp)
   1974c: 41 01        	addi	sp, sp, 0x10

000000000001974e <__riscv_restore_1>:
   1974e: 02 64        	ld	s0, 0x0(sp)
   19750: a2 60        	ld	ra, 0x8(sp)
   19752: 41 01        	addi	sp, sp, 0x10
   19754: 82 80        	ret

0000000000019756 <__clzdi2>:
   19756: 93 57 85 03  	srli	a5, a0, 0x38
   1975a: 8d eb        	bnez	a5, 0x1978c <__clzdi2+0x36>
   1975c: 93 07 80 03  	li	a5, 0x38
   19760: e1 17        	addi	a5, a5, -0x8
   19762: 91 c7        	beqz	a5, 0x1976e <__clzdi2+0x18>
   19764: 33 57 f5 00  	srl	a4, a0, a5
   19768: 13 77 f7 0f  	andi	a4, a4, 0xff
   1976c: 75 db        	beqz	a4, 0x19760 <__clzdi2+0xa>
   1976e: 37 07 02 00  	lui	a4, 0x20
   19772: 93 06 00 04  	li	a3, 0x40
   19776: 9d 8e        	sub	a3, a3, a5
   19778: 33 55 f5 00  	srl	a0, a0, a5
   1977c: 93 07 07 14  	addi	a5, a4, 0x140
   19780: aa 97        	add	a5, a5, a0
   19782: 03 c5 07 00  	lbu	a0, 0x0(a5)
   19786: 3b 85 a6 40  	subw	a0, a3, a0
   1978a: 82 80        	ret
   1978c: 93 07 80 03  	li	a5, 0x38
   19790: f9 bf        	j	0x1976e <__clzdi2+0x18>
